===== Assembly blocks =====

=== CODE BLOCK ADDRESS 0x1000 ===
  0x1000	int3   	
  0x1001	int3   	
  0x1002	int3   	
  0x1003	int3   	
  0x1004	int3   	
  === BLOCK LINK ===
    0x1005
=== CODE BLOCK END ===

=== CODE BLOCK ADDRESS 0x1005 ===
  0x1005	int3   	
  0x1006	int3   	
  0x1007	int3   	
  0x1008	dec    	esp
  0x1009	mov    	ebx, esp
  === BLOCK LINK ===
    0x100b
=== CODE BLOCK END ===

=== CODE BLOCK ADDRESS 0x100b ===
  0x100b	dec    	eax
  0x100c	sub    	esp, 0x48
  0x100f	inc    	ebx
  0x1010	lea    	eax, [ecx + ecx]
  0x1013	mov    	dword ptr [esp + 0x68], eax
  === BLOCK LINK ===
    0x1017
=== CODE BLOCK END ===

=== CODE BLOCK ADDRESS 0x1017 ===
  0x1017	dec    	ebp
  0x1018	lea    	ecx, [ebx - 0x18]
  0x101b	dec    	ecx
  0x101c	lea    	eax, [ebx + 0x20]
  0x101f	dec    	ecx
  === BLOCK LINK ===
    0x1020
=== CODE BLOCK END ===

=== CODE BLOCK ADDRESS 0x1020 ===
  0x1020	mov    	dword ptr [ebx - 0x20], eax
  0x1023	dec    	ebp
  0x1024	mov    	dword ptr [ebx - 0x28], eax
  0x1027	inc    	ebp
  0x1028	xor    	eax, eax
  === BLOCK LINK ===
    0x102a
=== CODE BLOCK END ===

=== CODE BLOCK ADDRESS 0x102a ===
  0x102a	dec    	eax
  0x102b	call   	dword ptr [0x30f7]
  === BLOCK LINK ===
    0x1031
=== CODE BLOCK END ===

=== CODE BLOCK ADDRESS 0x1031 ===
  0x1031	nop    	dword ptr [eax + eax]
  0x1036	test   	eax, eax
  0x1038	jne    	0x1047
  === BLOCK LINK ===
    0x103a
    0x1047
=== CODE BLOCK END ===

=== CODE BLOCK ADDRESS 0x103a ===
  0x103a	cmp    	dword ptr [esp + 0x30], 1
  0x103f	mov    	ecx, 0x3f7
  0x1044	cmovne  	eax, ecx
  === BLOCK LINK ===
    0x1047
=== CODE BLOCK END ===

=== CODE BLOCK ADDRESS 0x104b ===
  0x104b	ret    	
  0x104c	int3   	
  0x104d	int3   	
  0x104e	int3   	
  0x104f	int3   	
  === BLOCK LINK ===
    0x1050
=== CODE BLOCK END ===

=== CODE BLOCK ADDRESS 0x1047 ===
  0x1047	dec    	eax
  0x1048	add    	esp, 0x48
  === BLOCK LINK ===
    0x104b
=== CODE BLOCK END ===

=== CODE BLOCK ADDRESS 0x1050 ===
  0x1050	int3   	
  0x1051	int3   	
  0x1052	int3   	
  0x1053	int3   	
  0x1054	inc    	eax
  === BLOCK LINK ===
    0x1055
=== CODE BLOCK END ===

=== CODE BLOCK ADDRESS 0x1055 ===
  0x1055	push   	ebp
  0x1056	push   	ebx
  0x1057	push   	esi
  0x1058	push   	edi
  0x1059	inc    	ecx
  === BLOCK LINK ===
    0x105a
=== CODE BLOCK END ===

=== CODE BLOCK ADDRESS 0x105a ===
  0x105a	push   	esp
  0x105b	inc    	ecx
  0x105c	push   	esi
  0x105d	inc    	ecx
  0x105e	push   	edi
  === BLOCK LINK ===
    0x105f
=== CODE BLOCK END ===

=== CODE BLOCK ADDRESS 0x105f ===
  0x105f	dec    	eax
  0x1060	mov    	ebp, esp
  0x1062	dec    	eax
  0x1063	sub    	esp, 0x30
  0x1066	inc    	ebp
  === BLOCK LINK ===
    0x1067
=== CODE BLOCK END ===

=== CODE BLOCK ADDRESS 0x1067 ===
  0x1067	xor    	esp, esp
  0x1069	dec    	eax
  0x106a	mov    	ebx, edx
  0x106c	test   	dword ptr [edx], 0x3fe
  0x1072	dec    	esp
  === BLOCK LINK ===
    0x1073
=== CODE BLOCK END ===

=== CODE BLOCK ADDRESS 0x1073 ===
  0x1073	mov    	edi, ecx
  0x1075	dec    	esp
  0x1076	mov    	dword ptr [ebp + 0x58], esp
  0x1079	inc    	esp
  0x107a	mov    	dword ptr [ebp + 0x48], esp
  === BLOCK LINK ===
    0x107d
=== CODE BLOCK END ===

=== CODE BLOCK ADDRESS 0x107d ===
  0x107d	jne    	0x1086
  === BLOCK LINK ===
    0x107f
    0x1086
=== CODE BLOCK END ===

=== CODE BLOCK ADDRESS 0x107f ===
  0x107f	xor    	eax, eax
  0x1081	jmp    	0x13ca
  === BLOCK LINK ===
    0x1086
    0x13ca
=== CODE BLOCK END ===

=== CODE BLOCK ADDRESS 0x1086 ===
  0x1086	test   	byte ptr [ebx], 8
  0x1089	inc    	ecx
  0x108a	mov    	edx, esp
  0x108c	dec    	ebp
  0x108d	mov    	esi, esp
  === BLOCK LINK ===
    0x108f
=== CODE BLOCK END ===

=== CODE BLOCK ADDRESS 0x108f ===
  0x108f	je     	0x10a4
  === BLOCK LINK ===
    0x1091
    0x10a4
=== CODE BLOCK END ===

=== CODE BLOCK ADDRESS 0x1091 ===
  0x1091	inc    	esp
  0x1092	cmp    	dword ptr [ebx + 0x214], esp
  0x1098	inc    	ecx
  0x1099	mov    	esi, 1
  0x109e	setne  	dl
  === BLOCK LINK ===
    0x10a1
=== CODE BLOCK END ===

=== CODE BLOCK ADDRESS 0x10a1 ===
  0x10a1	mov    	dword ptr [ebp + 0x48], edx
  === BLOCK LINK ===
    0x10a4
    0x10be
=== CODE BLOCK END ===

=== CODE BLOCK ADDRESS 0x10a9 ===
  0x10a9	mov    	eax, dword ptr [ebx + 8]
  0x10ac	inc    	ecx
  0x10ad	mov    	esi, 1
  0x10b2	neg    	eax
  0x10b4	sbb    	ecx, ecx
  === BLOCK LINK ===
    0x10b6
=== CODE BLOCK END ===

=== CODE BLOCK ADDRESS 0x10b6 ===
  0x10b6	and    	ecx, 2
  0x10b9	or     	ecx, edx
  0x10bb	mov    	dword ptr [ebp + 0x48], ecx
  === BLOCK LINK ===
    0x10be
=== CODE BLOCK END ===

=== CODE BLOCK ADDRESS 0x10c2 ===
  0x10c2	dec    	ecx
  0x10c3	mov    	ecx, edi
  0x10c5	dec    	eax
  0x10c6	lea    	edx, [ebp + 0x58]
  0x10c9	dec    	eax
  === BLOCK LINK ===
    0x10ca
=== CODE BLOCK END ===

=== CODE BLOCK ADDRESS 0x10ca ===
  0x10ca	call   	dword ptr [0x30a8]
  === BLOCK LINK ===
    0x10d0
=== CODE BLOCK END ===

=== CODE BLOCK ADDRESS 0x10d0 ===
  0x10d0	nop    	dword ptr [eax + eax]
  0x10d5	test   	eax, eax
  0x10d7	jne    	0x10ea
  === BLOCK LINK ===
    0x10d9
    0x10ea
=== CODE BLOCK END ===

=== CODE BLOCK ADDRESS 0x10d9 ===
  0x10d9	dec    	eax
  0x10da	call   	dword ptr [0x3128]
  === BLOCK LINK ===
    0x10e0
=== CODE BLOCK END ===

=== CODE BLOCK ADDRESS 0x10e0 ===
  0x10e0	nop    	dword ptr [eax + eax]
  0x10e5	jmp    	0x129c
  === BLOCK LINK ===
    0x10ea
    0x129c
=== CODE BLOCK END ===

=== CODE BLOCK ADDRESS 0x10ea ===
  0x10ea	inc    	ecx
  0x10eb	mov    	edi, esp
  0x10ed	inc    	esp
  0x10ee	cmp    	dword ptr [ebp + 0x50], esp
  0x10f1	jbe    	0x129c
  === BLOCK LINK ===
    0x10f7
    0x129c
=== CODE BLOCK END ===

=== CODE BLOCK ADDRESS 0x10f7 ===
  0x10f7	mov    	eax, dword ptr [ebx]
  0x10f9	dec    	eax
  0x10fa	mov    	edx, dword ptr [ebp + 0x58]
  0x10fd	mov    	esi, edi
  0x10ff	dec    	eax
  === BLOCK LINK ===
    0x1100
=== CODE BLOCK END ===

=== CODE BLOCK ADDRESS 0x1100 ===
  0x1100	lea    	ecx, [esi + esi*8]
  0x1103	bt     	eax, 8
  0x1107	jae    	0x1117
  === BLOCK LINK ===
    0x1109
    0x1117
=== CODE BLOCK END ===

=== CODE BLOCK ADDRESS 0x1109 ===
  0x1109	dec    	eax
  0x110a	lea    	eax, [ebx + 0x450]
  0x1110	dec    	eax
  0x1111	mov    	dword ptr [edx + ecx*8 + 0x38], eax
  0x1115	mov    	eax, dword ptr [ebx]
  === BLOCK LINK ===
    0x1117
=== CODE BLOCK END ===

=== CODE BLOCK ADDRESS 0x1117 ===
  0x1117	test   	al, al
  0x1119	jns    	0x1129
  === BLOCK LINK ===
    0x111b
    0x1129
=== CODE BLOCK END ===

=== CODE BLOCK ADDRESS 0x111b ===
  0x111b	dec    	eax
  0x111c	lea    	eax, [ebx + 0x428]
  0x1122	dec    	eax
  0x1123	mov    	dword ptr [edx + ecx*8 + 0x40], eax
  0x1127	mov    	eax, dword ptr [ebx]
  === BLOCK LINK ===
    0x1129
=== CODE BLOCK END ===

=== CODE BLOCK ADDRESS 0x1129 ===
  0x1129	bt     	eax, 9
  0x112d	jae    	0x113b
  === BLOCK LINK ===
    0x112f
    0x113b
=== CODE BLOCK END ===

=== CODE BLOCK ADDRESS 0x112f ===
  0x112f	mov    	eax, dword ptr [ebx + 0x478]
  0x1135	mov    	dword ptr [edx + ecx*8 + 0x34], eax
  0x1139	mov    	eax, dword ptr [ebx]
  === BLOCK LINK ===
    0x113b
    0x114b
=== CODE BLOCK END ===

=== CODE BLOCK ADDRESS 0x113f ===
  0x113f	mov    	eax, dword ptr [ebx + 0x424]
  0x1145	mov    	dword ptr [edx + ecx*8 + 0x28], eax
  0x1149	mov    	eax, dword ptr [ebx]
  === BLOCK LINK ===
    0x114b
    0x1160
=== CODE BLOCK END ===

=== CODE BLOCK ADDRESS 0x114f ===
  0x114f	inc    	esp
  0x1150	cmp    	dword ptr [ebx + 0x420], esp
  0x1156	inc    	ecx
  0x1157	mov    	eax, esp
  0x1159	setne  	al
  === BLOCK LINK ===
    0x115c
=== CODE BLOCK END ===

=== CODE BLOCK ADDRESS 0x115c ===
  0x115c	mov    	dword ptr [edx + ecx*8 + 0x2c], eax
  === BLOCK LINK ===
    0x1160
=== CODE BLOCK END ===

=== CODE BLOCK ADDRESS 0x1168 ===
  0x1168	mov    	edx, dword ptr [ecx + 4]
  0x116b	dec    	esp
  0x116c	mov    	eax, ecx
  0x116e	dec    	ecx
  0x116f	mov    	ecx, edi
  === BLOCK LINK ===
    0x1171
=== CODE BLOCK END ===

=== CODE BLOCK ADDRESS 0x1171 ===
  0x1171	dec    	eax
  0x1172	call   	dword ptr [0x2fe8]
  === BLOCK LINK ===
    0x1178
=== CODE BLOCK END ===

=== CODE BLOCK ADDRESS 0x1178 ===
  0x1178	nop    	dword ptr [eax + eax]
  0x117d	test   	eax, eax
  0x117f	jne    	0x118d
  === BLOCK LINK ===
    0x1181
    0x118d
=== CODE BLOCK END ===

=== CODE BLOCK ADDRESS 0x1181 ===
  0x1181	dec    	eax
  0x1182	call   	dword ptr [0x3080]
  === BLOCK LINK ===
    0x1188
=== CODE BLOCK END ===

=== CODE BLOCK ADDRESS 0x1188 ===
  0x1188	nop    	dword ptr [eax + eax]
  === BLOCK LINK ===
    0x118d
    0x11d0
=== CODE BLOCK END ===

=== CODE BLOCK ADDRESS 0x1192 ===
  0x1192	dec    	eax
  0x1193	mov    	eax, dword ptr [ebp + 0x58]
  0x1196	dec    	eax
  0x1197	lea    	ecx, [esi + esi*8]
  0x119a	dec    	esp
  === BLOCK LINK ===
    0x119b
=== CODE BLOCK END ===

=== CODE BLOCK ADDRESS 0x119b ===
  0x119b	lea    	ecx, [ebp + 0x48]
  0x119e	mov    	dword ptr [esp + 0x20], 4
  0x11a6	dec    	esp
  0x11a7	lea    	eax, [0x3433]
  0x11ad	mov    	edx, dword ptr [eax + ecx*8 + 4]
  === BLOCK LINK ===
    0x11b1
=== CODE BLOCK END ===

=== CODE BLOCK ADDRESS 0x11b1 ===
  0x11b1	dec    	ecx
  0x11b2	mov    	ecx, edi
  0x11b4	dec    	eax
  0x11b5	call   	dword ptr [0x2fad]
  === BLOCK LINK ===
    0x11bb
=== CODE BLOCK END ===

=== CODE BLOCK ADDRESS 0x11bb ===
  0x11bb	nop    	dword ptr [eax + eax]
  0x11c0	test   	eax, eax
  0x11c2	jne    	0x11d0
  === BLOCK LINK ===
    0x11c4
    0x11d0
=== CODE BLOCK END ===

=== CODE BLOCK ADDRESS 0x11c4 ===
  0x11c4	dec    	eax
  0x11c5	call   	dword ptr [0x303d]
  === BLOCK LINK ===
    0x11cb
=== CODE BLOCK END ===

=== CODE BLOCK ADDRESS 0x11cb ===
  0x11cb	nop    	dword ptr [eax + eax]
  === BLOCK LINK ===
    0x11d0
    0x1232
=== CODE BLOCK END ===

=== CODE BLOCK ADDRESS 0x11d5 ===
  0x11d5	dec    	esp
  0x11d6	lea    	ecx, [ebx + 0x218]
  0x11dc	dec    	ebp
  0x11dd	test   	ecx, ecx
  0x11df	je     	0x11f9
  === BLOCK LINK ===
    0x11e1
    0x11f9
=== CODE BLOCK END ===

=== CODE BLOCK ADDRESS 0x11e1 ===
  0x11e1	dec    	eax
  0x11e2	or     	eax, 0xffffffff
  === BLOCK LINK ===
    0x11e5
=== CODE BLOCK END ===

=== CODE BLOCK ADDRESS 0x11ea ===
  0x11ea	cmp    	dword ptr [ecx + eax*2], esp
  0x11ed	jne    	0x11e5
  === BLOCK LINK ===
    0x11ef
    0x11e5
=== CODE BLOCK END ===

=== CODE BLOCK ADDRESS 0x11ef ===
  0x11ef	dec    	eax
  0x11f0	lea    	eax, [eax*2 + 2]
  0x11f7	jmp    	0x11fc
  === BLOCK LINK ===
    0x11f9
    0x11fc
=== CODE BLOCK END ===

=== CODE BLOCK ADDRESS 0x11f9 ===
  0x11f9	dec    	ecx
  0x11fa	mov    	eax, esp
  === BLOCK LINK ===
    0x11fc
=== CODE BLOCK END ===

=== CODE BLOCK ADDRESS 0x1204 ===
  0x1204	dec    	eax
  0x1205	mov    	eax, dword ptr [ebp + 0x58]
  0x1208	dec    	esp
  0x1209	lea    	eax, [0x3421]
  0x120f	mov    	edx, dword ptr [eax + ecx*8 + 4]
  === BLOCK LINK ===
    0x1213
=== CODE BLOCK END ===

=== CODE BLOCK ADDRESS 0x1213 ===
  0x1213	dec    	ecx
  0x1214	mov    	ecx, edi
  0x1216	dec    	eax
  0x1217	call   	dword ptr [0x2f4b]
  === BLOCK LINK ===
    0x121d
=== CODE BLOCK END ===

=== CODE BLOCK ADDRESS 0x121d ===
  0x121d	nop    	dword ptr [eax + eax]
  0x1222	test   	eax, eax
  0x1224	jne    	0x1232
  === BLOCK LINK ===
    0x1226
    0x1232
=== CODE BLOCK END ===

=== CODE BLOCK ADDRESS 0x1226 ===
  0x1226	dec    	eax
  0x1227	call   	dword ptr [0x2fdb]
  === BLOCK LINK ===
    0x122d
=== CODE BLOCK END ===

=== CODE BLOCK ADDRESS 0x122d ===
  0x122d	nop    	dword ptr [eax + eax]
  === BLOCK LINK ===
    0x1232
    0x1291
=== CODE BLOCK END ===

=== CODE BLOCK ADDRESS 0x1237 ===
  0x1237	dec    	esp
  0x1238	lea    	ecx, [ebx + 0xc]
  0x123b	dec    	ebp
  0x123c	test   	ecx, ecx
  0x123e	je     	0x1258
  === BLOCK LINK ===
    0x1240
    0x1258
=== CODE BLOCK END ===

=== CODE BLOCK ADDRESS 0x1240 ===
  0x1240	dec    	eax
  0x1241	or     	eax, 0xffffffff
  === BLOCK LINK ===
    0x1244
=== CODE BLOCK END ===

=== CODE BLOCK ADDRESS 0x1249 ===
  0x1249	cmp    	dword ptr [ecx + eax*2], esp
  0x124c	jne    	0x1244
  === BLOCK LINK ===
    0x124e
    0x1244
=== CODE BLOCK END ===

=== CODE BLOCK ADDRESS 0x124e ===
  0x124e	dec    	eax
  0x124f	lea    	eax, [eax*2 + 2]
  0x1256	jmp    	0x125b
  === BLOCK LINK ===
    0x1258
    0x125b
=== CODE BLOCK END ===

=== CODE BLOCK ADDRESS 0x1258 ===
  0x1258	dec    	ecx
  0x1259	mov    	eax, esp
  === BLOCK LINK ===
    0x125b
=== CODE BLOCK END ===

=== CODE BLOCK ADDRESS 0x1263 ===
  0x1263	dec    	eax
  0x1264	mov    	eax, dword ptr [ebp + 0x58]
  0x1267	dec    	esp
  0x1268	lea    	eax, [0x3412]
  0x126e	mov    	edx, dword ptr [eax + ecx*8 + 4]
  === BLOCK LINK ===
    0x1272
=== CODE BLOCK END ===

=== CODE BLOCK ADDRESS 0x1272 ===
  0x1272	dec    	ecx
  0x1273	mov    	ecx, edi
  0x1275	dec    	eax
  0x1276	call   	dword ptr [0x2eec]
  === BLOCK LINK ===
    0x127c
=== CODE BLOCK END ===

=== CODE BLOCK ADDRESS 0x127c ===
  0x127c	nop    	dword ptr [eax + eax]
  0x1281	test   	eax, eax
  0x1283	jne    	0x1291
  === BLOCK LINK ===
    0x1285
    0x1291
=== CODE BLOCK END ===

=== CODE BLOCK ADDRESS 0x1285 ===
  0x1285	dec    	eax
  0x1286	call   	dword ptr [0x2f7c]
  === BLOCK LINK ===
    0x128c
=== CODE BLOCK END ===

=== CODE BLOCK ADDRESS 0x128c ===
  0x128c	nop    	dword ptr [eax + eax]
  === BLOCK LINK ===
    0x1291
    0x10f7
=== CODE BLOCK END ===

=== CODE BLOCK ADDRESS 0x129c ===
  0x129c	inc    	ecx
  0x129d	mov    	ecx, 0x20006
  0x12a2	dec    	eax
  0x12a3	lea    	edx, [0x3297]
  0x12a9	inc    	ecx
  === BLOCK LINK ===
    0x12aa
=== CODE BLOCK END ===

=== CODE BLOCK ADDRESS 0x12aa ===
  0x12aa	mov    	eax, 1
  0x12af	inc    	ecx
  0x12b0	mov    	edi, esp
  0x12b2	call   	0x1728
  === BLOCK LINK ===
    0x12b7
    0x1728
=== CODE BLOCK END ===

=== CODE BLOCK ADDRESS 0x12b7 ===
  0x12b7	dec    	eax
  0x12b8	mov    	esi, eax
  0x12ba	dec    	eax
  0x12bb	test   	eax, eax
  0x12bd	jne    	0x12d2
  === BLOCK LINK ===
    0x12bf
    0x12d2
=== CODE BLOCK END ===

=== CODE BLOCK ADDRESS 0x12bf ===
  0x12bf	dec    	eax
  0x12c0	call   	dword ptr [0x2f42]
  === BLOCK LINK ===
    0x12c6
=== CODE BLOCK END ===

=== CODE BLOCK ADDRESS 0x12c6 ===
  0x12c6	nop    	dword ptr [eax + eax]
  0x12cb	mov    	edi, eax
  0x12cd	jmp    	0x13b3
  === BLOCK LINK ===
    0x12d2
    0x13b3
=== CODE BLOCK END ===

=== CODE BLOCK ADDRESS 0x12d2 ===
  0x12d2	test   	byte ptr [ebx], 0x60
  0x12d5	je     	0x1317
  === BLOCK LINK ===
    0x12d7
    0x1317
=== CODE BLOCK END ===

=== CODE BLOCK ADDRESS 0x12d7 ===
  0x12d7	mov    	eax, dword ptr [ebx + 0x424]
  0x12dd	dec    	eax
  0x12de	lea    	edx, [0x32c4]
  0x12e4	neg    	eax
  0x12e6	dec    	eax
  === BLOCK LINK ===
    0x12e7
=== CODE BLOCK END ===

=== CODE BLOCK ADDRESS 0x12e7 ===
  0x12e7	mov    	ecx, esi
  0x12e9	inc    	ecx
  0x12ea	mov    	eax, esp
  0x12ec	inc    	ebp
  0x12ed	sbb    	eax, eax
  === BLOCK LINK ===
    0x12ef
=== CODE BLOCK END ===

=== CODE BLOCK ADDRESS 0x12ef ===
  0x12ef	inc    	ecx
  0x12f0	and    	eax, 2
  0x12f3	inc    	esp
  0x12f4	cmp    	dword ptr [ebx + 0x420], esp
  0x12fa	setne  	al
  === BLOCK LINK ===
    0x12fd
=== CODE BLOCK END ===

=== CODE BLOCK ADDRESS 0x12fd ===
  0x12fd	inc    	esp
  0x12fe	or     	eax, eax
  0x1300	call   	0x1810
  === BLOCK LINK ===
    0x1305
    0x1810
=== CODE BLOCK END ===

=== CODE BLOCK ADDRESS 0x1305 ===
  0x1305	test   	eax, eax
  0x1307	jne    	0x1317
  === BLOCK LINK ===
    0x1309
    0x1317
=== CODE BLOCK END ===

=== CODE BLOCK ADDRESS 0x1309 ===
  0x1309	dec    	eax
  0x130a	call   	dword ptr [0x2ef8]
  === BLOCK LINK ===
    0x1310
=== CODE BLOCK END ===

=== CODE BLOCK ADDRESS 0x1310 ===
  0x1310	nop    	dword ptr [eax + eax]
  0x1315	mov    	edi, eax
  === BLOCK LINK ===
    0x1317
    0x1347
=== CODE BLOCK END ===

=== CODE BLOCK ADDRESS 0x131f ===
  0x131f	inc    	esp
  0x1320	mov    	eax, dword ptr [ebx + 0x478]
  0x1326	dec    	eax
  0x1327	lea    	edx, [0x3203]
  0x132d	dec    	eax
  === BLOCK LINK ===
    0x132e
=== CODE BLOCK END ===

=== CODE BLOCK ADDRESS 0x132e ===
  0x132e	mov    	ecx, esi
  0x1330	call   	0x1810
  === BLOCK LINK ===
    0x1335
    0x1810
=== CODE BLOCK END ===

=== CODE BLOCK ADDRESS 0x1335 ===
  0x1335	test   	eax, eax
  0x1337	jne    	0x1347
  === BLOCK LINK ===
    0x1339
    0x1347
=== CODE BLOCK END ===

=== CODE BLOCK ADDRESS 0x1339 ===
  0x1339	dec    	eax
  0x133a	call   	dword ptr [0x2ec8]
  === BLOCK LINK ===
    0x1340
=== CODE BLOCK END ===

=== CODE BLOCK ADDRESS 0x1340 ===
  0x1340	nop    	dword ptr [eax + eax]
  0x1345	mov    	edi, eax
  === BLOCK LINK ===
    0x1347
    0x1374
=== CODE BLOCK END ===

=== CODE BLOCK ADDRESS 0x134c ===
  0x134c	dec    	esp
  0x134d	lea    	ecx, [ebx + 0x428]
  0x1353	dec    	eax
  0x1354	mov    	ecx, esi
  0x1356	dec    	esp
  === BLOCK LINK ===
    0x1357
=== CODE BLOCK END ===

=== CODE BLOCK ADDRESS 0x1357 ===
  0x1357	lea    	eax, [0x325b]
  0x135d	call   	0x1888
  === BLOCK LINK ===
    0x1362
    0x1888
=== CODE BLOCK END ===

=== CODE BLOCK ADDRESS 0x1362 ===
  0x1362	test   	eax, eax
  0x1364	jne    	0x1374
  === BLOCK LINK ===
    0x1366
    0x1374
=== CODE BLOCK END ===

=== CODE BLOCK ADDRESS 0x1366 ===
  0x1366	dec    	eax
  0x1367	call   	dword ptr [0x2e9b]
  === BLOCK LINK ===
    0x136d
=== CODE BLOCK END ===

=== CODE BLOCK ADDRESS 0x136d ===
  0x136d	nop    	dword ptr [eax + eax]
  0x1372	mov    	edi, eax
  === BLOCK LINK ===
    0x1374
    0x13a4
=== CODE BLOCK END ===

=== CODE BLOCK ADDRESS 0x137c ===
  0x137c	dec    	esp
  0x137d	lea    	ecx, [ebx + 0x450]
  0x1383	dec    	eax
  0x1384	mov    	ecx, esi
  0x1386	dec    	esp
  === BLOCK LINK ===
    0x1387
=== CODE BLOCK END ===

=== CODE BLOCK ADDRESS 0x1387 ===
  0x1387	lea    	eax, [0x323b]
  0x138d	call   	0x1888
  === BLOCK LINK ===
    0x1392
    0x1888
=== CODE BLOCK END ===

=== CODE BLOCK ADDRESS 0x1392 ===
  0x1392	test   	eax, eax
  0x1394	jne    	0x13a4
  === BLOCK LINK ===
    0x1396
=== CODE BLOCK END ===

=== CODE BLOCK ADDRESS 0x1396 ===
  0x1396	dec    	eax
  0x1397	call   	dword ptr [0x2e6b]
  === BLOCK LINK ===
    0x139d
=== CODE BLOCK END ===

=== CODE BLOCK ADDRESS 0x139d ===
  0x139d	nop    	dword ptr [eax + eax]
  0x13a2	mov    	edi, eax
  === BLOCK LINK ===
    0x13a4
=== CODE BLOCK END ===

=== CODE BLOCK ADDRESS 0x13a8 ===
  0x13a8	call   	dword ptr [0x2d82]
  === BLOCK LINK ===
    0x13ae
=== CODE BLOCK END ===

=== CODE BLOCK ADDRESS 0x13ae ===
  0x13ae	nop    	dword ptr [eax + eax]
  === BLOCK LINK ===
    0x13b3
=== CODE BLOCK END ===

=== CODE BLOCK ADDRESS 0x13ba ===
  0x13ba	je     	0x13c8
  === BLOCK LINK ===
    0x13bc
=== CODE BLOCK END ===

=== CODE BLOCK ADDRESS 0x13bc ===
  0x13bc	dec    	eax
  0x13bd	call   	dword ptr [0x2dc5]
  === BLOCK LINK ===
    0x13c3
=== CODE BLOCK END ===

=== CODE BLOCK ADDRESS 0x13c3 ===
  0x13c3	nop    	dword ptr [eax + eax]
  0x13c8	mov    	eax, edi
  === BLOCK LINK ===
    0x13ca
=== CODE BLOCK END ===

=== CODE BLOCK ADDRESS 0x13cf ===
  0x13cf	pop    	edi
  0x13d0	inc    	ecx
  0x13d1	pop    	esi
  0x13d2	inc    	ecx
  0x13d3	pop    	esp
  === BLOCK LINK ===
    0x13d4
=== CODE BLOCK END ===

=== CODE BLOCK ADDRESS 0x13d4 ===
  0x13d4	pop    	edi
  0x13d5	pop    	esi
  0x13d6	pop    	ebx
  0x13d7	pop    	ebp
  0x13d8	ret    	
  === BLOCK LINK ===
    0x13d9
=== CODE BLOCK END ===

=== CODE BLOCK ADDRESS 0x13d9 ===
  0x13d9	int3   	
  0x13da	int3   	
  0x13db	int3   	
  0x13dc	int3   	
  0x13dd	int3   	
  === BLOCK LINK ===
    0x13de
=== CODE BLOCK END ===

=== CODE BLOCK ADDRESS 0x13de ===
  0x13de	int3   	
  0x13df	int3   	
  0x13e0	dec    	eax
  0x13e1	mov    	dword ptr [esp + 8], ebx
  0x13e5	dec    	eax
  === BLOCK LINK ===
    0x13e6
=== CODE BLOCK END ===

=== CODE BLOCK ADDRESS 0x13e6 ===
  0x13e6	mov    	dword ptr [esp + 0x10], edi
  0x13ea	push   	ebp
  0x13eb	dec    	eax
  0x13ec	lea    	ebp, [esp - 0x3c0]
  0x13f3	dec    	eax
  === BLOCK LINK ===
    0x13f4
=== CODE BLOCK END ===

=== CODE BLOCK ADDRESS 0x13f4 ===
  0x13f4	sub    	esp, 0x4c0
  0x13fa	dec    	eax
  0x13fb	mov    	eax, dword ptr [0x4c17]
  0x1401	dec    	eax
  0x1402	xor    	eax, esp
  === BLOCK LINK ===
    0x1404
=== CODE BLOCK END ===

=== CODE BLOCK ADDRESS 0x1404 ===
  0x1404	dec    	eax
  0x1405	mov    	dword ptr [ebp + 0x3b0], eax
  0x140b	xor    	edx, edx
  0x140d	dec    	eax
  0x140e	lea    	ecx, [esp + 0x30]
  === BLOCK LINK ===
    0x1412
=== CODE BLOCK END ===

=== CODE BLOCK ADDRESS 0x1412 ===
  0x1412	inc    	ecx
  0x1413	mov    	eax, 0x47c
  0x1418	call   	0x3216
  === BLOCK LINK ===
    0x141d
=== CODE BLOCK END ===

=== CODE BLOCK ADDRESS 0x141d ===
  0x141d	inc    	ebp
  0x141e	xor    	ecx, ecx
  0x1420	inc    	ebp
  0x1421	xor    	eax, eax
  0x1423	xor    	ecx, ecx
  === BLOCK LINK ===
    0x1425
=== CODE BLOCK END ===

=== CODE BLOCK ADDRESS 0x1425 ===
  0x1425	inc    	ecx
  0x1426	lea    	edx, [ecx + 1]
  0x1429	dec    	eax
  0x142a	call   	dword ptr [0x2dd0]
  === BLOCK LINK ===
    0x1430
=== CODE BLOCK END ===

=== CODE BLOCK ADDRESS 0x1430 ===
  0x1430	nop    	dword ptr [eax + eax]
  0x1435	inc    	ecx
  0x1436	mov    	ecx, 0x20019
  0x143b	dec    	eax
  0x143c	lea    	edx, [0x2f5e]
  === BLOCK LINK ===
    0x1442
=== CODE BLOCK END ===

=== CODE BLOCK ADDRESS 0x1442 ===
  0x1442	inc    	ebp
  0x1443	xor    	eax, eax
  0x1445	call   	0x1728
  === BLOCK LINK ===
    0x144a
=== CODE BLOCK END ===

=== CODE BLOCK ADDRESS 0x144a ===
  0x144a	dec    	eax
  0x144b	mov    	ebx, eax
  0x144d	dec    	eax
  0x144e	test   	eax, eax
  0x1450	jne    	0x1465
  === BLOCK LINK ===
    0x1452
=== CODE BLOCK END ===

=== CODE BLOCK ADDRESS 0x1452 ===
  0x1452	dec    	eax
  0x1453	call   	dword ptr [0x2daf]
  === BLOCK LINK ===
    0x1459
=== CODE BLOCK END ===

=== CODE BLOCK ADDRESS 0x1459 ===
  0x1459	nop    	dword ptr [eax + eax]
  0x145e	mov    	edi, eax
  0x1460	jmp    	0x15bf
  === BLOCK LINK ===
    0x1465
=== CODE BLOCK END ===

=== CODE BLOCK ADDRESS 0x1465 ===
  0x1465	dec    	esp
  0x1466	lea    	eax, [esp + 0x34]
  0x146a	dec    	eax
  0x146b	mov    	ecx, ebx
  0x146d	dec    	eax
  === BLOCK LINK ===
    0x146e
=== CODE BLOCK END ===

=== CODE BLOCK ADDRESS 0x146e ===
  0x146e	lea    	edx, [0x2fb4]
  0x1474	call   	0x190c
  === BLOCK LINK ===
    0x1479
=== CODE BLOCK END ===

=== CODE BLOCK ADDRESS 0x1479 ===
  0x1479	test   	eax, eax
  0x147b	jne    	0x1482
  === BLOCK LINK ===
    0x147d
=== CODE BLOCK END ===

=== CODE BLOCK ADDRESS 0x147d ===
  0x147d	or     	dword ptr [esp + 0x30], 1
  0x1482	dec    	esp
  0x1483	lea    	eax, [esp + 0x38]
  0x1487	dec    	eax
  0x1488	mov    	ecx, ebx
  === BLOCK LINK ===
    0x148a
=== CODE BLOCK END ===

=== CODE BLOCK ADDRESS 0x148a ===
  0x148a	dec    	eax
  0x148b	lea    	edx, [0x2fbf]
  0x1491	call   	0x190c
  === BLOCK LINK ===
    0x1496
=== CODE BLOCK END ===

=== CODE BLOCK ADDRESS 0x1496 ===
  0x1496	test   	eax, eax
  0x1498	jne    	0x149f
  === BLOCK LINK ===
    0x149a
=== CODE BLOCK END ===

=== CODE BLOCK ADDRESS 0x149a ===
  0x149a	or     	dword ptr [esp + 0x30], 2
  0x149f	mov    	edi, 0x104
  0x14a4	dec    	esp
  0x14a5	lea    	eax, [esp + 0x3c]
  0x14a9	inc    	esp
  === BLOCK LINK ===
    0x14aa
=== CODE BLOCK END ===

=== CODE BLOCK ADDRESS 0x14aa ===
  0x14aa	mov    	ecx, edi
  0x14ac	dec    	eax
  0x14ad	lea    	edx, [0x2fbd]
  0x14b3	dec    	eax
  0x14b4	mov    	ecx, ebx
  === BLOCK LINK ===
    0x14b6
=== CODE BLOCK END ===

=== CODE BLOCK ADDRESS 0x14b6 ===
  0x14b6	call   	0x1008
  === BLOCK LINK ===
    0x14bb
=== CODE BLOCK END ===

=== CODE BLOCK ADDRESS 0x14bb ===
  0x14bb	test   	eax, eax
  0x14bd	jne    	0x14c4
  === BLOCK LINK ===
    0x14bf
=== CODE BLOCK END ===

=== CODE BLOCK ADDRESS 0x14bf ===
  0x14bf	or     	dword ptr [esp + 0x30], 4
  0x14c4	dec    	esp
  0x14c5	lea    	eax, [ebp + 0x144]
  0x14cb	dec    	eax
  0x14cc	mov    	ecx, ebx
  === BLOCK LINK ===
    0x14ce
=== CODE BLOCK END ===

=== CODE BLOCK ADDRESS 0x14ce ===
  0x14ce	dec    	eax
  0x14cf	lea    	edx, [0x2fbb]
  0x14d5	call   	0x190c
  === BLOCK LINK ===
    0x14da
=== CODE BLOCK END ===

=== CODE BLOCK ADDRESS 0x14da ===
  0x14da	test   	eax, eax
  0x14dc	jne    	0x14e3
  === BLOCK LINK ===
    0x14de
=== CODE BLOCK END ===

=== CODE BLOCK ADDRESS 0x14de ===
  0x14de	or     	dword ptr [esp + 0x30], 8
  0x14e3	inc    	esp
  0x14e4	mov    	ecx, edi
  0x14e6	dec    	esp
  0x14e7	lea    	eax, [ebp + 0x148]
  === BLOCK LINK ===
    0x14ed
=== CODE BLOCK END ===

=== CODE BLOCK ADDRESS 0x14ed ===
  0x14ed	dec    	eax
  0x14ee	lea    	edx, [0x2fbc]
  0x14f4	dec    	eax
  0x14f5	mov    	ecx, ebx
  0x14f7	call   	0x1008
  === BLOCK LINK ===
    0x14fc
=== CODE BLOCK END ===

=== CODE BLOCK ADDRESS 0x14fc ===
  0x14fc	test   	eax, eax
  0x14fe	jne    	0x1505
  === BLOCK LINK ===
    0x1500
=== CODE BLOCK END ===

=== CODE BLOCK ADDRESS 0x1500 ===
  0x1500	or     	dword ptr [esp + 0x30], 0x10
  0x1505	dec    	esp
  0x1506	lea    	eax, [ebp + 0x350]
  0x150c	dec    	eax
  0x150d	mov    	ecx, ebx
  === BLOCK LINK ===
    0x150f
=== CODE BLOCK END ===

=== CODE BLOCK ADDRESS 0x150f ===
  0x150f	dec    	eax
  0x1510	lea    	edx, [0x2fc2]
  0x1516	call   	0x190c
  === BLOCK LINK ===
    0x151b
=== CODE BLOCK END ===

=== CODE BLOCK ADDRESS 0x151b ===
  0x151b	test   	eax, eax
  0x151d	jne    	0x1524
  === BLOCK LINK ===
    0x151f
=== CODE BLOCK END ===

=== CODE BLOCK ADDRESS 0x151f ===
  0x151f	or     	dword ptr [esp + 0x30], 0x20
  0x1524	dec    	esp
  0x1525	lea    	eax, [ebp + 0x354]
  0x152b	dec    	eax
  0x152c	mov    	ecx, ebx
  === BLOCK LINK ===
    0x152e
=== CODE BLOCK END ===

=== CODE BLOCK ADDRESS 0x152e ===
  0x152e	dec    	eax
  0x152f	lea    	edx, [0x2fc3]
  0x1535	call   	0x190c
  === BLOCK LINK ===
    0x153a
=== CODE BLOCK END ===

=== CODE BLOCK ADDRESS 0x153a ===
  0x153a	test   	eax, eax
  0x153c	jne    	0x1543
  === BLOCK LINK ===
    0x153e
=== CODE BLOCK END ===

=== CODE BLOCK ADDRESS 0x153e ===
  0x153e	or     	dword ptr [esp + 0x30], 0x40
  0x1543	mov    	edi, 0x14
  0x1548	dec    	esp
  0x1549	lea    	eax, [ebp + 0x358]
  0x154f	inc    	esp
  === BLOCK LINK ===
    0x1550
=== CODE BLOCK END ===

=== CODE BLOCK ADDRESS 0x1550 ===
  0x1550	mov    	ecx, edi
  0x1552	dec    	eax
  0x1553	lea    	edx, [0x2fb7]
  0x1559	dec    	eax
  0x155a	mov    	ecx, ebx
  === BLOCK LINK ===
    0x155c
=== CODE BLOCK END ===

=== CODE BLOCK ADDRESS 0x155c ===
  0x155c	call   	0x1008
  === BLOCK LINK ===
    0x1561
=== CODE BLOCK END ===

=== CODE BLOCK ADDRESS 0x1561 ===
  0x1561	test   	eax, eax
  0x1563	jne    	0x156b
  === BLOCK LINK ===
    0x1565
=== CODE BLOCK END ===

=== CODE BLOCK ADDRESS 0x1565 ===
  0x1565	bts    	dword ptr [esp + 0x30], 7
  0x156b	inc    	esp
  0x156c	mov    	ecx, edi
  0x156e	dec    	esp
  0x156f	lea    	eax, [ebp + 0x380]
  === BLOCK LINK ===
    0x1575
=== CODE BLOCK END ===

=== CODE BLOCK ADDRESS 0x1575 ===
  0x1575	dec    	eax
  0x1576	lea    	edx, [0x2fa4]
  0x157c	dec    	eax
  0x157d	mov    	ecx, ebx
  0x157f	call   	0x1008
  === BLOCK LINK ===
    0x1584
=== CODE BLOCK END ===

=== CODE BLOCK ADDRESS 0x1584 ===
  0x1584	mov    	edi, eax
  0x1586	test   	eax, eax
  0x1588	jne    	0x1590
  === BLOCK LINK ===
    0x158a
=== CODE BLOCK END ===

=== CODE BLOCK ADDRESS 0x158a ===
  0x158a	bts    	dword ptr [esp + 0x30], 8
  0x1590	dec    	esp
  0x1591	lea    	eax, [ebp + 0x3a8]
  0x1597	dec    	eax
  0x1598	mov    	ecx, ebx
  === BLOCK LINK ===
    0x159a
=== CODE BLOCK END ===

=== CODE BLOCK ADDRESS 0x159a ===
  0x159a	dec    	eax
  0x159b	lea    	edx, [0x2f8f]
  0x15a1	call   	0x190c
  === BLOCK LINK ===
    0x15a6
=== CODE BLOCK END ===

=== CODE BLOCK ADDRESS 0x15a6 ===
  0x15a6	test   	eax, eax
  0x15a8	jne    	0x15b0
  === BLOCK LINK ===
    0x15aa
=== CODE BLOCK END ===

=== CODE BLOCK ADDRESS 0x15aa ===
  0x15aa	bts    	dword ptr [esp + 0x30], 9
  0x15b0	dec    	eax
  0x15b1	mov    	ecx, ebx
  0x15b3	dec    	eax
  0x15b4	call   	dword ptr [0x2b76]
  === BLOCK LINK ===
    0x15ba
=== CODE BLOCK END ===

=== CODE BLOCK ADDRESS 0x15ba ===
  0x15ba	nop    	dword ptr [eax + eax]
  0x15bf	test   	edi, edi
  0x15c1	jne    	0x1638
  === BLOCK LINK ===
    0x15c3
=== CODE BLOCK END ===

=== CODE BLOCK ADDRESS 0x15c3 ===
  0x15c3	dec    	eax
  0x15c4	and    	dword ptr [esp + 0x20], 0
  0x15c9	dec    	eax
  0x15ca	lea    	edx, [esp + 0x20]
  0x15ce	xor    	ecx, ecx
  === BLOCK LINK ===
    0x15d0
=== CODE BLOCK END ===

=== CODE BLOCK ADDRESS 0x15d0 ===
  0x15d0	dec    	eax
  0x15d1	call   	dword ptr [0x2ba9]
  === BLOCK LINK ===
    0x15d7
=== CODE BLOCK END ===

=== CODE BLOCK ADDRESS 0x15d7 ===
  0x15d7	nop    	dword ptr [eax + eax]
  0x15dc	test   	eax, eax
  0x15de	jne    	0x15ee
  === BLOCK LINK ===
    0x15e0
=== CODE BLOCK END ===

=== CODE BLOCK ADDRESS 0x15e0 ===
  0x15e0	dec    	eax
  0x15e1	call   	dword ptr [0x2c21]
  === BLOCK LINK ===
    0x15e7
=== CODE BLOCK END ===

=== CODE BLOCK ADDRESS 0x15e7 ===
  0x15e7	nop    	dword ptr [eax + eax]
  0x15ec	jmp    	0x1622
  === BLOCK LINK ===
    0x15ee
=== CODE BLOCK END ===

=== CODE BLOCK ADDRESS 0x15ee ===
  0x15ee	test   	byte ptr [esp + 0x30], 1
  0x15f3	je     	0x1609
  === BLOCK LINK ===
    0x15f5
=== CODE BLOCK END ===

=== CODE BLOCK ADDRESS 0x15f5 ===
  0x15f5	mov    	ebx, dword ptr [esp + 0x34]
  0x15f9	call   	0x1c50
  === BLOCK LINK ===
    0x15fe
=== CODE BLOCK END ===

=== CODE BLOCK ADDRESS 0x15fe ===
  0x15fe	test   	eax, eax
  0x1600	je     	0x1609
  === BLOCK LINK ===
    0x1602
=== CODE BLOCK END ===

=== CODE BLOCK ADDRESS 0x1602 ===
  0x1602	mov    	ecx, ebx
  0x1604	call   	0x2130
  === BLOCK LINK ===
    0x1609
=== CODE BLOCK END ===

=== CODE BLOCK ADDRESS 0x1609 ===
  0x1609	test   	dword ptr [esp + 0x30], 0x3fe
  0x1611	je     	0x1622
  === BLOCK LINK ===
    0x1613
=== CODE BLOCK END ===

=== CODE BLOCK ADDRESS 0x1613 ===
  0x1613	dec    	eax
  0x1614	mov    	ecx, dword ptr [esp + 0x20]
  0x1618	dec    	eax
  0x1619	lea    	edx, [esp + 0x30]
  0x161d	call   	0x1054
  === BLOCK LINK ===
    0x1622
=== CODE BLOCK END ===

=== CODE BLOCK ADDRESS 0x1622 ===
  0x1622	dec    	eax
  0x1623	mov    	ecx, dword ptr [esp + 0x20]
  0x1627	dec    	eax
  0x1628	test   	ecx, ecx
  0x162a	je     	0x1638
  === BLOCK LINK ===
    0x162c
=== CODE BLOCK END ===

=== CODE BLOCK ADDRESS 0x162c ===
  0x162c	dec    	eax
  0x162d	call   	dword ptr [0x2b3d]
  === BLOCK LINK ===
    0x1633
=== CODE BLOCK END ===

=== CODE BLOCK ADDRESS 0x1633 ===
  0x1633	nop    	dword ptr [eax + eax]
  0x1638	xor    	eax, eax
  0x163a	dec    	eax
  0x163b	mov    	ecx, dword ptr [ebp + 0x3b0]
  0x1641	dec    	eax
  === BLOCK LINK ===
    0x1642
=== CODE BLOCK END ===

=== CODE BLOCK ADDRESS 0x1642 ===
  0x1642	xor    	ecx, esp
  0x1644	call   	0x2b80
  === BLOCK LINK ===
    0x1649
=== CODE BLOCK END ===

=== CODE BLOCK ADDRESS 0x1649 ===
  0x1649	dec    	esp
  0x164a	lea    	ebx, [esp + 0x4c0]
  0x1651	dec    	ecx
  0x1652	mov    	ebx, dword ptr [ebx + 0x10]
  0x1655	dec    	ecx
  === BLOCK LINK ===
    0x1656
=== CODE BLOCK END ===

=== CODE BLOCK ADDRESS 0x1656 ===
  0x1656	mov    	edi, dword ptr [ebx + 0x18]
  0x1659	dec    	ecx
  0x165a	mov    	esp, ebx
  0x165c	pop    	ebp
  0x165d	ret    	
  === BLOCK LINK ===
    0x165e
=== CODE BLOCK END ===

=== CODE BLOCK ADDRESS 0x13ca ===
  0x13ca	dec    	eax
  0x13cb	add    	esp, 0x30
  0x13ce	inc    	ecx
  === BLOCK LINK ===
    0x13cf
=== CODE BLOCK END ===

=== CODE BLOCK ADDRESS 0x165e ===
  0x165e	int3   	
  0x165f	int3   	
  0x1660	int3   	
  0x1661	int3   	
  0x1662	int3   	
  === BLOCK LINK ===
    0x1663
=== CODE BLOCK END ===

=== CODE BLOCK ADDRESS 0x1663 ===
  0x1663	int3   	
  0x1664	int3   	
  0x1665	int3   	
  0x1666	int3   	
  0x1667	int3   	
  === BLOCK LINK ===
    0x1668
=== CODE BLOCK END ===

=== CODE BLOCK ADDRESS 0x1668 ===
  0x1668	dec    	eax
  0x1669	sub    	esp, 0x38
  0x166c	dec    	eax
  0x166d	and    	dword ptr [esp + 0x20], 0
  0x1672	inc    	esp
  === BLOCK LINK ===
    0x1673
=== CODE BLOCK END ===

=== CODE BLOCK ADDRESS 0x1673 ===
  0x1673	movzx  	ecx, dx
  0x1676	mov    	edx, 0x2b
  0x167b	dec    	eax
  0x167c	call   	dword ptr [0x2abe]
  === BLOCK LINK ===
    0x1682
=== CODE BLOCK END ===

=== CODE BLOCK ADDRESS 0x1682 ===
  0x1682	nop    	dword ptr [eax + eax]
  0x1687	dec    	eax
  0x1688	add    	esp, 0x38
  0x168b	ret    	
  0x168c	int3   	
  === BLOCK LINK ===
    0x168d
=== CODE BLOCK END ===

=== CODE BLOCK ADDRESS 0x10a4 ===
  0x10a4	test   	byte ptr [ebx], 2
  0x10a7	je     	0x10be
  === BLOCK LINK ===
    0x10a9
=== CODE BLOCK END ===

=== CODE BLOCK ADDRESS 0x168d ===
  0x168d	int3   	
  0x168e	int3   	
  0x168f	int3   	
  0x1690	int3   	
  0x1691	int3   	
  === BLOCK LINK ===
    0x1692
=== CODE BLOCK END ===

=== CODE BLOCK ADDRESS 0x1692 ===
  0x1692	int3   	
  0x1693	int3   	
  0x1694	dec    	esp
  0x1695	mov    	ebx, esp
  0x1697	inc    	ebp
  === BLOCK LINK ===
    0x1698
=== CODE BLOCK END ===

=== CODE BLOCK ADDRESS 0x1698 ===
  0x1698	mov    	dword ptr [ebx + 0x20], ecx
  0x169b	dec    	eax
  0x169c	sub    	esp, 0x48
  0x169f	dec    	ecx
  0x16a0	and    	dword ptr [ebx - 0x18], 0
  === BLOCK LINK ===
    0x16a4
=== CODE BLOCK END ===

=== CODE BLOCK ADDRESS 0x16a4 ===
  0x16a4	dec    	ecx
  0x16a5	lea    	eax, [ebx + 0x20]
  0x16a8	mov    	edx, 0xc
  0x16ad	dec    	ecx
  0x16ae	mov    	dword ptr [ebx - 0x20], 4
  === BLOCK LINK ===
    0x16b5
=== CODE BLOCK END ===

=== CODE BLOCK ADDRESS 0x16b5 ===
  0x16b5	inc    	esp
  0x16b6	movzx  	ecx, dx
  0x16b9	dec    	esp
  0x16ba	lea    	eax, [0x3218]
  0x16c0	mov    	edx, 0x2b
  === BLOCK LINK ===
    0x16c5
=== CODE BLOCK END ===

=== CODE BLOCK ADDRESS 0x16c5 ===
  0x16c5	dec    	ecx
  0x16c6	mov    	dword ptr [ebx - 0x28], eax
  0x16c9	dec    	eax
  0x16ca	call   	dword ptr [0x2a70]
  === BLOCK LINK ===
    0x16d0
=== CODE BLOCK END ===

=== CODE BLOCK ADDRESS 0x16d0 ===
  0x16d0	nop    	dword ptr [eax + eax]
  0x16d5	dec    	eax
  0x16d6	add    	esp, 0x48
  0x16d9	ret    	
  0x16da	int3   	
  === BLOCK LINK ===
    0x16db
=== CODE BLOCK END ===

=== CODE BLOCK ADDRESS 0x10be ===
  0x10be	dec    	esp
  0x10bf	lea    	eax, [ebp + 0x50]
  === BLOCK LINK ===
    0x10c2
=== CODE BLOCK END ===

=== CODE BLOCK ADDRESS 0x16db ===
  0x16db	int3   	
  0x16dc	int3   	
  0x16dd	int3   	
  0x16de	int3   	
  0x16df	int3   	
  === BLOCK LINK ===
    0x16e0
=== CODE BLOCK END ===

=== CODE BLOCK ADDRESS 0x16e0 ===
  0x16e0	int3   	
  0x16e1	int3   	
  0x16e2	int3   	
  0x16e3	int3   	
  0x16e4	dec    	esp
  === BLOCK LINK ===
    0x16e5
=== CODE BLOCK END ===

=== CODE BLOCK ADDRESS 0x16e5 ===
  0x16e5	mov    	ebx, esp
  0x16e7	inc    	ebp
  0x16e8	mov    	dword ptr [ebx + 0x20], ecx
  0x16eb	dec    	eax
  0x16ec	sub    	esp, 0x48
  === BLOCK LINK ===
    0x16ef
=== CODE BLOCK END ===

=== CODE BLOCK ADDRESS 0x16ef ===
  0x16ef	dec    	ecx
  0x16f0	and    	dword ptr [ebx - 0x18], 0
  0x16f4	dec    	ecx
  0x16f5	lea    	eax, [ebx + 0x20]
  0x16f8	inc    	esp
  === BLOCK LINK ===
    0x16f9
=== CODE BLOCK END ===

=== CODE BLOCK ADDRESS 0x16f9 ===
  0x16f9	movzx  	ecx, dx
  0x16fc	mov    	edx, 0x2b
  0x1701	dec    	ecx
  0x1702	mov    	dword ptr [ebx - 0x20], 4
  0x1709	dec    	ecx
  === BLOCK LINK ===
    0x170a
=== CODE BLOCK END ===

=== CODE BLOCK ADDRESS 0x170a ===
  0x170a	mov    	dword ptr [ebx - 0x28], eax
  0x170d	dec    	eax
  0x170e	call   	dword ptr [0x2a2c]
  === BLOCK LINK ===
    0x1714
=== CODE BLOCK END ===

=== CODE BLOCK ADDRESS 0x1714 ===
  0x1714	nop    	dword ptr [eax + eax]
  0x1719	dec    	eax
  0x171a	add    	esp, 0x48
  0x171d	ret    	
  0x171e	int3   	
  === BLOCK LINK ===
    0x171f
=== CODE BLOCK END ===

=== CODE BLOCK ADDRESS 0x171f ===
  0x171f	int3   	
  0x1720	int3   	
  0x1721	int3   	
  0x1722	int3   	
  0x1723	int3   	
  === BLOCK LINK ===
    0x1724
=== CODE BLOCK END ===

=== CODE BLOCK ADDRESS 0x1724 ===
  0x1724	int3   	
  0x1725	int3   	
  0x1726	int3   	
  0x1727	int3   	
  0x1728	dec    	esp
  === BLOCK LINK ===
    0x1729
=== CODE BLOCK END ===

=== CODE BLOCK ADDRESS 0x1729 ===
  0x1729	mov    	ebx, esp
  0x172b	dec    	ecx
  0x172c	mov    	dword ptr [ebx + 8], ecx
  0x172f	push   	ebx
  0x1730	dec    	eax
  === BLOCK LINK ===
    0x1731
=== CODE BLOCK END ===

=== CODE BLOCK ADDRESS 0x1731 ===
  0x1731	sub    	esp, 0x50
  0x1734	dec    	ecx
  0x1735	and    	dword ptr [ebx + 8], 0
  0x1739	mov    	eax, 0x2001f
  0x173e	dec    	eax
  === BLOCK LINK ===
    0x173f
=== CODE BLOCK END ===

=== CODE BLOCK ADDRESS 0x173f ===
  0x173f	mov    	ecx, 0x80000002
  0x1745	inc    	ebp
  0x1746	test   	eax, eax
  0x1748	je     	0x17da
  === BLOCK LINK ===
    0x174e
=== CODE BLOCK END ===

=== CODE BLOCK ADDRESS 0x174e ===
  0x174e	inc    	ebp
  0x174f	test   	ecx, ecx
  0x1751	inc    	esp
  0x1752	cmove  	ecx, eax
  0x1755	dec    	ecx
  === BLOCK LINK ===
    0x1756
=== CODE BLOCK END ===

=== CODE BLOCK ADDRESS 0x1756 ===
  0x1756	lea    	eax, [ebx + 0x18]
  0x1759	dec    	ecx
  0x175a	mov    	dword ptr [ebx - 0x18], eax
  0x175d	inc    	ebp
  0x175e	xor    	eax, eax
  === BLOCK LINK ===
    0x1760
=== CODE BLOCK END ===

=== CODE BLOCK ADDRESS 0x1760 ===
  0x1760	dec    	ecx
  0x1761	lea    	eax, [ebx + 8]
  0x1764	dec    	ecx
  0x1765	mov    	dword ptr [ebx - 0x20], eax
  0x1768	dec    	ecx
  === BLOCK LINK ===
    0x1769
=== CODE BLOCK END ===

=== CODE BLOCK ADDRESS 0x1769 ===
  0x1769	and    	dword ptr [ebx - 0x28], 0
  0x176d	inc    	ebp
  0x176e	mov    	dword ptr [ebx - 0x30], ecx
  0x1771	inc    	ebp
  0x1772	xor    	ecx, ecx
  === BLOCK LINK ===
    0x1774
=== CODE BLOCK END ===

=== CODE BLOCK ADDRESS 0x1774 ===
  0x1774	and    	dword ptr [esp + 0x20], 0
  0x1779	dec    	eax
  0x177a	call   	dword ptr [0x29b8]
  === BLOCK LINK ===
    0x1780
=== CODE BLOCK END ===

=== CODE BLOCK ADDRESS 0x1780 ===
  0x1780	nop    	dword ptr [eax + eax]
  0x1785	mov    	ebx, eax
  0x1787	test   	eax, eax
  0x1789	je     	0x17ab
  === BLOCK LINK ===
    0x178b
=== CODE BLOCK END ===

=== CODE BLOCK ADDRESS 0x178b ===
  0x178b	dec    	eax
  0x178c	lea    	ecx, [0x2f3e]
  0x1792	mov    	edx, ebx
  0x1794	call   	0x2580
  === BLOCK LINK ===
    0x1799
=== CODE BLOCK END ===

=== CODE BLOCK ADDRESS 0x1799 ===
  0x1799	mov    	ecx, ebx
  0x179b	dec    	eax
  0x179c	call   	dword ptr [0x2a2e]
  === BLOCK LINK ===
    0x17a2
=== CODE BLOCK END ===

=== CODE BLOCK ADDRESS 0x17a2 ===
  0x17a2	nop    	dword ptr [eax + eax]
  0x17a7	xor    	eax, eax
  0x17a9	jmp    	0x17d3
  === BLOCK LINK ===
    0x17ab
=== CODE BLOCK END ===

=== CODE BLOCK ADDRESS 0x17ab ===
  0x17ab	cmp    	dword ptr [esp + 0x70], 1
  0x17b0	jne    	0x17c0
  === BLOCK LINK ===
    0x17b2
=== CODE BLOCK END ===

=== CODE BLOCK ADDRESS 0x17b2 ===
  0x17b2	xor    	edx, edx
  0x17b4	dec    	eax
  0x17b5	lea    	ecx, [0x2f55]
  0x17bb	call   	0x2580
  === BLOCK LINK ===
    0x17c0
=== CODE BLOCK END ===

=== CODE BLOCK ADDRESS 0x17c0 ===
  0x17c0	xor    	ecx, ecx
  0x17c2	dec    	eax
  0x17c3	call   	dword ptr [0x2a07]
  === BLOCK LINK ===
    0x17c9
=== CODE BLOCK END ===

=== CODE BLOCK ADDRESS 0x17c9 ===
  0x17c9	nop    	dword ptr [eax + eax]
  0x17ce	dec    	eax
  0x17cf	mov    	eax, dword ptr [esp + 0x60]
  0x17d3	dec    	eax
  0x17d4	add    	esp, 0x50
  === BLOCK LINK ===
    0x17d7
=== CODE BLOCK END ===

=== CODE BLOCK ADDRESS 0x17d7 ===
  0x17d7	pop    	ebx
  0x17d8	ret    	
  0x17d9	int3   	
  0x17da	inc    	ebp
  0x17db	test   	ecx, ecx
  === BLOCK LINK ===
    0x17dd
=== CODE BLOCK END ===

=== CODE BLOCK ADDRESS 0x17dd ===
  0x17dd	inc    	esp
  0x17de	cmove  	ecx, eax
  0x17e1	dec    	eax
  0x17e2	lea    	eax, [esp + 0x60]
  0x17e6	inc    	ebp
  === BLOCK LINK ===
    0x17e7
=== CODE BLOCK END ===

=== CODE BLOCK ADDRESS 0x17e7 ===
  0x17e7	xor    	eax, eax
  0x17e9	dec    	eax
  0x17ea	mov    	dword ptr [esp + 0x20], eax
  0x17ee	dec    	eax
  0x17ef	call   	dword ptr [0x295b]
  === BLOCK LINK ===
    0x17f5
=== CODE BLOCK END ===

=== CODE BLOCK ADDRESS 0x17f5 ===
  0x17f5	nop    	dword ptr [eax + eax]
  0x17fa	mov    	ebx, eax
  0x17fc	test   	eax, eax
  0x17fe	je     	0x17c0
  === BLOCK LINK ===
    0x1800
=== CODE BLOCK END ===

=== CODE BLOCK ADDRESS 0x1800 ===
  0x1800	dec    	eax
  0x1801	lea    	ecx, [0x2f51]
  0x1807	jmp    	0x1792
  === BLOCK LINK ===
    0x1809
=== CODE BLOCK END ===

=== CODE BLOCK ADDRESS 0x1809 ===
  0x1809	int3   	
  0x180a	int3   	
  0x180b	int3   	
  0x180c	int3   	
  0x180d	int3   	
  === BLOCK LINK ===
    0x180e
=== CODE BLOCK END ===

=== CODE BLOCK ADDRESS 0x180e ===
  0x180e	int3   	
  0x180f	int3   	
  === BLOCK LINK ===
    0x1810
=== CODE BLOCK END ===

=== CODE BLOCK ADDRESS 0x1814 ===
  0x1814	mov    	dword ptr [ebx + 8], ebx
  0x1817	inc    	ebp
  0x1818	mov    	dword ptr [ebx + 0x18], eax
  0x181b	push   	edi
  0x181c	dec    	eax
  === BLOCK LINK ===
    0x181d
=== CODE BLOCK END ===

=== CODE BLOCK ADDRESS 0x181d ===
  0x181d	sub    	esp, 0x30
  0x1820	inc    	ecx
  0x1821	mov    	ecx, 4
  0x1826	dec    	ecx
  0x1827	lea    	eax, [ebx + 0x18]
  === BLOCK LINK ===
    0x182a
=== CODE BLOCK END ===

=== CODE BLOCK ADDRESS 0x182a ===
  0x182a	inc    	ebp
  0x182b	mov    	dword ptr [ebx - 0x10], ecx
  0x182e	inc    	ebp
  0x182f	xor    	eax, eax
  0x1831	dec    	ecx
  === BLOCK LINK ===
    0x1832
=== CODE BLOCK END ===

=== CODE BLOCK ADDRESS 0x1832 ===
  0x1832	mov    	dword ptr [ebx - 0x18], eax
  0x1835	dec    	eax
  0x1836	mov    	edi, edx
  0x1838	dec    	eax
  0x1839	call   	dword ptr [0x2909]
  === BLOCK LINK ===
    0x183f
=== CODE BLOCK END ===

=== CODE BLOCK ADDRESS 0x183f ===
  0x183f	nop    	dword ptr [eax + eax]
  0x1844	mov    	ebx, eax
  0x1846	test   	eax, eax
  0x1848	je     	0x186e
  === BLOCK LINK ===
    0x184a
=== CODE BLOCK END ===

=== CODE BLOCK ADDRESS 0x184a ===
  0x184a	inc    	esp
  0x184b	mov    	eax, eax
  0x184d	dec    	eax
  0x184e	lea    	ecx, [0x2f4c]
  0x1854	dec    	eax
  === BLOCK LINK ===
    0x1855
=== CODE BLOCK END ===

=== CODE BLOCK ADDRESS 0x1855 ===
  0x1855	mov    	edx, edi
  0x1857	call   	0x2580
  === BLOCK LINK ===
    0x185c
=== CODE BLOCK END ===

=== CODE BLOCK ADDRESS 0x185c ===
  0x185c	mov    	ecx, ebx
  0x185e	dec    	eax
  0x185f	call   	dword ptr [0x296b]
  === BLOCK LINK ===
    0x1865
=== CODE BLOCK END ===

=== CODE BLOCK ADDRESS 0x1865 ===
  0x1865	nop    	dword ptr [eax + eax]
  0x186a	xor    	eax, eax
  0x186c	jmp    	0x1873
  === BLOCK LINK ===
    0x186e
=== CODE BLOCK END ===

=== CODE BLOCK ADDRESS 0x186e ===
  0x186e	mov    	eax, 1
  0x1873	dec    	eax
  0x1874	mov    	ebx, dword ptr [esp + 0x40]
  0x1878	dec    	eax
  0x1879	add    	esp, 0x30
  === BLOCK LINK ===
    0x187c
=== CODE BLOCK END ===

=== CODE BLOCK ADDRESS 0x187c ===
  0x187c	pop    	edi
  0x187d	ret    	
  0x187e	int3   	
  0x187f	int3   	
  0x1880	int3   	
  === BLOCK LINK ===
    0x1881
=== CODE BLOCK END ===

=== CODE BLOCK ADDRESS 0x1881 ===
  0x1881	int3   	
  0x1882	int3   	
  0x1883	int3   	
  0x1884	int3   	
  0x1885	int3   	
  === BLOCK LINK ===
    0x1886
=== CODE BLOCK END ===

=== CODE BLOCK ADDRESS 0x1886 ===
  0x1886	int3   	
  0x1887	int3   	
  === BLOCK LINK ===
    0x1888
=== CODE BLOCK END ===

=== CODE BLOCK ADDRESS 0x188e ===
  0x188e	dec    	eax
  0x188f	sub    	esp, 0x30
  0x1892	xor    	edi, edi
  0x1894	dec    	ecx
  0x1895	mov    	ebx, eax
  === BLOCK LINK ===
    0x1897
=== CODE BLOCK END ===

=== CODE BLOCK ADDRESS 0x1897 ===
  0x1897	dec    	ebp
  0x1898	test   	ecx, ecx
  0x189a	je     	0x18b4
  === BLOCK LINK ===
    0x189c
=== CODE BLOCK END ===

=== CODE BLOCK ADDRESS 0x189c ===
  0x189c	dec    	eax
  0x189d	or     	eax, 0xffffffff
  0x18a0	dec    	eax
  0x18a1	inc    	eax
  0x18a3	inc    	cx
  === BLOCK LINK ===
    0x18a5
=== CODE BLOCK END ===

=== CODE BLOCK ADDRESS 0x18a5 ===
  0x18a5	cmp    	dword ptr [ecx + eax*2], edi
  0x18a8	jne    	0x18a0
  === BLOCK LINK ===
    0x18aa
=== CODE BLOCK END ===

=== CODE BLOCK ADDRESS 0x18aa ===
  0x18aa	dec    	eax
  0x18ab	lea    	eax, [eax*2 + 2]
  0x18b2	jmp    	0x18b7
  === BLOCK LINK ===
    0x18b4
=== CODE BLOCK END ===

=== CODE BLOCK ADDRESS 0x18b4 ===
  0x18b4	dec    	eax
  0x18b5	mov    	eax, edi
  0x18b7	mov    	dword ptr [esp + 0x28], eax
  0x18bb	inc    	ebp
  0x18bc	xor    	eax, eax
  === BLOCK LINK ===
    0x18be
=== CODE BLOCK END ===

=== CODE BLOCK ADDRESS 0x18be ===
  0x18be	dec    	esp
  0x18bf	mov    	dword ptr [esp + 0x20], ecx
  0x18c3	dec    	eax
  0x18c4	mov    	edx, ebx
  0x18c6	inc    	ecx
  === BLOCK LINK ===
    0x18c7
=== CODE BLOCK END ===

=== CODE BLOCK ADDRESS 0x18c7 ===
  0x18c7	mov    	ecx, 1
  0x18cc	dec    	eax
  0x18cd	call   	dword ptr [0x2875]
  === BLOCK LINK ===
    0x18d3
=== CODE BLOCK END ===

=== CODE BLOCK ADDRESS 0x18d3 ===
  0x18d3	nop    	dword ptr [eax + eax]
  0x18d8	test   	eax, eax
  0x18da	je     	0x18f2
  === BLOCK LINK ===
    0x18dc
=== CODE BLOCK END ===

=== CODE BLOCK ADDRESS 0x18dc ===
  0x18dc	inc    	esp
  0x18dd	mov    	eax, eax
  0x18df	dec    	eax
  0x18e0	lea    	ecx, [0x2eba]
  0x18e6	dec    	eax
  === BLOCK LINK ===
    0x18e7
=== CODE BLOCK END ===

=== CODE BLOCK ADDRESS 0x18e7 ===
  0x18e7	mov    	edx, ebx
  0x18e9	call   	0x2580
  === BLOCK LINK ===
    0x18ee
=== CODE BLOCK END ===

=== CODE BLOCK ADDRESS 0x18ee ===
  0x18ee	xor    	eax, eax
  0x18f0	jmp    	0x18f7
  === BLOCK LINK ===
    0x18f2
=== CODE BLOCK END ===

=== CODE BLOCK ADDRESS 0x18f2 ===
  0x18f2	mov    	eax, 1
  0x18f7	dec    	eax
  0x18f8	mov    	ebx, dword ptr [esp + 0x40]
  0x18fc	dec    	eax
  0x18fd	add    	esp, 0x30
  === BLOCK LINK ===
    0x1900
=== CODE BLOCK END ===

=== CODE BLOCK ADDRESS 0x1900 ===
  0x1900	pop    	edi
  0x1901	ret    	
  0x1902	int3   	
  0x1903	int3   	
  0x1904	int3   	
  === BLOCK LINK ===
    0x1905
=== CODE BLOCK END ===

=== CODE BLOCK ADDRESS 0x1905 ===
  0x1905	int3   	
  0x1906	int3   	
  0x1907	int3   	
  0x1908	int3   	
  0x1909	int3   	
  === BLOCK LINK ===
    0x190a
=== CODE BLOCK END ===

=== CODE BLOCK ADDRESS 0x190a ===
  0x190a	int3   	
  0x190b	int3   	
  0x190c	dec    	eax
  0x190d	mov    	eax, esp
  0x190f	dec    	eax
  === BLOCK LINK ===
    0x1910
=== CODE BLOCK END ===

=== CODE BLOCK ADDRESS 0x1910 ===
  0x1910	mov    	dword ptr [eax + 8], ebx
  0x1913	dec    	eax
  0x1914	mov    	dword ptr [eax + 0x10], ebp
  0x1917	push   	esi
  0x1918	push   	edi
  === BLOCK LINK ===
    0x1919
=== CODE BLOCK END ===

=== CODE BLOCK ADDRESS 0x1919 ===
  0x1919	inc    	ecx
  0x191a	push   	edi
  0x191b	dec    	eax
  0x191c	sub    	esp, 0x40
  0x191f	and    	dword ptr [eax - 0x28], 0
  === BLOCK LINK ===
    0x1923
=== CODE BLOCK END ===

=== CODE BLOCK ADDRESS 0x1923 ===
  0x1923	dec    	ecx
  0x1924	mov    	ebp, eax
  0x1926	dec    	eax
  0x1927	mov    	edi, edx
  0x1929	mov    	dword ptr [eax + 0x20], 4
  === BLOCK LINK ===
    0x1930
=== CODE BLOCK END ===

=== CODE BLOCK ADDRESS 0x1930 ===
  0x1930	dec    	eax
  0x1931	mov    	esi, ecx
  0x1933	dec    	eax
  0x1934	mov    	ecx, dword ptr [0x46c6]
  0x193a	dec    	esp
  === BLOCK LINK ===
    0x193b
=== CODE BLOCK END ===

=== CODE BLOCK ADDRESS 0x193b ===
  0x193b	lea    	edi, [0x46bf]
  0x1941	dec    	ecx
  0x1942	cmp    	ecx, edi
  0x1944	je     	0x1967
  === BLOCK LINK ===
    0x1946
=== CODE BLOCK END ===

=== CODE BLOCK ADDRESS 0x1946 ===
  0x1946	test   	byte ptr [ecx + 0x1c], 2
  0x194a	je     	0x1967
  === BLOCK LINK ===
    0x194c
=== CODE BLOCK END ===

=== CODE BLOCK ADDRESS 0x194c ===
  0x194c	cmp    	byte ptr [ecx + 0x19], 5
  0x1950	jb     	0x1967
  === BLOCK LINK ===
    0x1952
=== CODE BLOCK END ===

=== CODE BLOCK ADDRESS 0x1952 ===
  0x1952	dec    	eax
  0x1953	mov    	ecx, dword ptr [ecx + 0x10]
  0x1956	dec    	esp
  0x1957	lea    	eax, [0x2e8b]
  0x195d	mov    	edx, 0xe
  === BLOCK LINK ===
    0x1962
=== CODE BLOCK END ===

=== CODE BLOCK ADDRESS 0x1962 ===
  0x1962	call   	0x1668
  === BLOCK LINK ===
    0x1967
=== CODE BLOCK END ===

=== CODE BLOCK ADDRESS 0x1967 ===
  0x1967	dec    	eax
  0x1968	lea    	eax, [esp + 0x30]
  0x196c	inc    	ebp
  0x196d	xor    	eax, eax
  0x196f	dec    	eax
  === BLOCK LINK ===
    0x1970
=== CODE BLOCK END ===

=== CODE BLOCK ADDRESS 0x1970 ===
  0x1970	mov    	dword ptr [esp + 0x28], eax
  0x1974	dec    	esp
  0x1975	lea    	ecx, [esp + 0x78]
  0x1979	dec    	eax
  0x197a	and    	dword ptr [esp + 0x20], 0
  === BLOCK LINK ===
    0x197f
=== CODE BLOCK END ===

=== CODE BLOCK ADDRESS 0x197f ===
  0x197f	dec    	eax
  0x1980	mov    	edx, edi
  0x1982	dec    	eax
  0x1983	mov    	ecx, esi
  0x1985	dec    	eax
  === BLOCK LINK ===
    0x1986
=== CODE BLOCK END ===

=== CODE BLOCK ADDRESS 0x1986 ===
  0x1986	call   	dword ptr [0x279c]
  === BLOCK LINK ===
    0x198c
=== CODE BLOCK END ===

=== CODE BLOCK ADDRESS 0x198c ===
  0x198c	nop    	dword ptr [eax + eax]
  0x1991	mov    	ebx, eax
  0x1993	test   	eax, eax
  0x1995	je     	0x19c5
  === BLOCK LINK ===
    0x1997
=== CODE BLOCK END ===

=== CODE BLOCK ADDRESS 0x1997 ===
  0x1997	dec    	eax
  0x1998	mov    	ecx, dword ptr [0x4662]
  0x199e	dec    	ecx
  0x199f	cmp    	ecx, edi
  0x19a1	je     	0x1a5f
  === BLOCK LINK ===
    0x19a7
=== CODE BLOCK END ===

=== CODE BLOCK ADDRESS 0x19a7 ===
  0x19a7	test   	byte ptr [ecx + 0x1c], 2
  0x19ab	je     	0x1a5f
  === BLOCK LINK ===
    0x19b1
=== CODE BLOCK END ===

=== CODE BLOCK ADDRESS 0x19b1 ===
  0x19b1	cmp    	byte ptr [ecx + 0x19], 2
  0x19b5	jb     	0x1a5f
  === BLOCK LINK ===
    0x19bb
=== CODE BLOCK END ===

=== CODE BLOCK ADDRESS 0x19bb ===
  0x19bb	mov    	edx, 0xf
  0x19c0	jmp    	0x1a4c
  === BLOCK LINK ===
    0x19c5
=== CODE BLOCK END ===

=== CODE BLOCK ADDRESS 0x19c5 ===
  0x19c5	cmp    	dword ptr [esp + 0x78], 4
  0x19ca	je     	0x1a00
  === BLOCK LINK ===
    0x19cc
=== CODE BLOCK END ===

=== CODE BLOCK ADDRESS 0x19cc ===
  0x19cc	dec    	eax
  0x19cd	mov    	ecx, dword ptr [0x462d]
  0x19d3	dec    	ecx
  0x19d4	cmp    	ecx, edi
  0x19d6	je     	0x19f9
  === BLOCK LINK ===
    0x19d8
=== CODE BLOCK END ===

=== CODE BLOCK ADDRESS 0x19d8 ===
  0x19d8	test   	byte ptr [ecx + 0x1c], 2
  0x19dc	je     	0x19f9
  === BLOCK LINK ===
    0x19de
=== CODE BLOCK END ===

=== CODE BLOCK ADDRESS 0x19de ===
  0x19de	cmp    	byte ptr [ecx + 0x19], 2
  0x19e2	jb     	0x19f9
  === BLOCK LINK ===
    0x19e4
=== CODE BLOCK END ===

=== CODE BLOCK ADDRESS 0x19e4 ===
  0x19e4	dec    	eax
  0x19e5	mov    	ecx, dword ptr [ecx + 0x10]
  0x19e8	dec    	esp
  0x19e9	lea    	eax, [0x2df9]
  0x19ef	mov    	edx, 0x10
  === BLOCK LINK ===
    0x19f4
=== CODE BLOCK END ===

=== CODE BLOCK ADDRESS 0x19f4 ===
  0x19f4	call   	0x1668
  === BLOCK LINK ===
    0x19f9
=== CODE BLOCK END ===

=== CODE BLOCK ADDRESS 0x19f9 ===
  0x19f9	mov    	ebx, 0x3f1
  0x19fe	jmp    	0x1a5f
  === BLOCK LINK ===
    0x1a00
=== CODE BLOCK END ===

=== CODE BLOCK ADDRESS 0x1a00 ===
  0x1a00	dec    	eax
  0x1a01	lea    	eax, [esp + 0x30]
  0x1a05	inc    	ebp
  0x1a06	xor    	eax, eax
  0x1a08	dec    	eax
  === BLOCK LINK ===
    0x1a09
=== CODE BLOCK END ===

=== CODE BLOCK ADDRESS 0x1a09 ===
  0x1a09	mov    	dword ptr [esp + 0x28], eax
  0x1a0d	dec    	esp
  0x1a0e	lea    	ecx, [esp + 0x78]
  0x1a12	dec    	eax
  0x1a13	mov    	edx, edi
  === BLOCK LINK ===
    0x1a15
=== CODE BLOCK END ===

=== CODE BLOCK ADDRESS 0x1a15 ===
  0x1a15	dec    	eax
  0x1a16	mov    	dword ptr [esp + 0x20], ebp
  0x1a1a	dec    	eax
  0x1a1b	mov    	ecx, esi
  0x1a1d	dec    	eax
  === BLOCK LINK ===
    0x1a1e
=== CODE BLOCK END ===

=== CODE BLOCK ADDRESS 0x1a1e ===
  0x1a1e	call   	dword ptr [0x2704]
  === BLOCK LINK ===
    0x1a24
=== CODE BLOCK END ===

=== CODE BLOCK ADDRESS 0x1a24 ===
  0x1a24	nop    	dword ptr [eax + eax]
  0x1a29	mov    	ebx, eax
  0x1a2b	test   	eax, eax
  0x1a2d	je     	0x1a5f
  === BLOCK LINK ===
    0x1a2f
=== CODE BLOCK END ===

=== CODE BLOCK ADDRESS 0x1a2f ===
  0x1a2f	dec    	eax
  0x1a30	mov    	ecx, dword ptr [0x45ca]
  0x1a36	dec    	ecx
  0x1a37	cmp    	ecx, edi
  0x1a39	je     	0x1a5f
  === BLOCK LINK ===
    0x1a3b
=== CODE BLOCK END ===

=== CODE BLOCK ADDRESS 0x1a3b ===
  0x1a3b	test   	byte ptr [ecx + 0x1c], 2
  0x1a3f	je     	0x1a5f
  === BLOCK LINK ===
    0x1a41
=== CODE BLOCK END ===

=== CODE BLOCK ADDRESS 0x1a41 ===
  0x1a41	cmp    	byte ptr [ecx + 0x19], 2
  0x1a45	jb     	0x1a5f
  === BLOCK LINK ===
    0x1a47
=== CODE BLOCK END ===

=== CODE BLOCK ADDRESS 0x1a47 ===
  0x1a47	mov    	edx, 0x11
  0x1a4c	dec    	eax
  0x1a4d	mov    	ecx, dword ptr [ecx + 0x10]
  0x1a50	dec    	esp
  0x1a51	lea    	eax, [0x2d91]
  === BLOCK LINK ===
    0x1a57
=== CODE BLOCK END ===

=== CODE BLOCK ADDRESS 0x1a57 ===
  0x1a57	inc    	esp
  0x1a58	mov    	ecx, eax
  0x1a5a	call   	0x16e4
  === BLOCK LINK ===
    0x1a5f
=== CODE BLOCK END ===

=== CODE BLOCK ADDRESS 0x1a5f ===
  0x1a5f	dec    	eax
  0x1a60	mov    	ebp, dword ptr [esp + 0x68]
  0x1a64	mov    	eax, ebx
  0x1a66	dec    	eax
  0x1a67	mov    	ebx, dword ptr [esp + 0x60]
  === BLOCK LINK ===
    0x1a6b
=== CODE BLOCK END ===

=== CODE BLOCK ADDRESS 0x1a6b ===
  0x1a6b	dec    	eax
  0x1a6c	add    	esp, 0x40
  0x1a6f	inc    	ecx
  0x1a70	pop    	edi
  0x1a71	pop    	edi
  === BLOCK LINK ===
    0x1a72
=== CODE BLOCK END ===

=== CODE BLOCK ADDRESS 0x1a72 ===
  0x1a72	pop    	esi
  0x1a73	ret    	
  0x1a74	int3   	
  0x1a75	int3   	
  0x1a76	int3   	
  === BLOCK LINK ===
    0x1a77
=== CODE BLOCK END ===

=== CODE BLOCK ADDRESS 0x1a77 ===
  0x1a77	int3   	
  0x1a78	int3   	
  0x1a79	int3   	
  0x1a7a	int3   	
  0x1a7b	int3   	
  === BLOCK LINK ===
    0x1a7c
=== CODE BLOCK END ===

=== CODE BLOCK ADDRESS 0x1a7c ===
  0x1a7c	inc    	eax
  0x1a7d	push   	edi
  0x1a7e	dec    	eax
  0x1a7f	sub    	esp, 0x150
  0x1a85	dec    	eax
  === BLOCK LINK ===
    0x1a86
=== CODE BLOCK END ===

=== CODE BLOCK ADDRESS 0x1a86 ===
  0x1a86	mov    	eax, dword ptr [0x458c]
  0x1a8c	dec    	eax
  0x1a8d	xor    	eax, esp
  0x1a8f	dec    	eax
  0x1a90	mov    	dword ptr [esp + 0x140], eax
  === BLOCK LINK ===
    0x1a97
=== CODE BLOCK END ===

=== CODE BLOCK ADDRESS 0x1a97 ===
  0x1a97	xor    	edx, edx
  0x1a99	dec    	eax
  0x1a9a	lea    	ecx, [esp + 0x24]
  0x1a9e	inc    	ecx
  0x1a9f	mov    	eax, 0x118
  === BLOCK LINK ===
    0x1aa4
=== CODE BLOCK END ===

=== CODE BLOCK ADDRESS 0x1aa4 ===
  0x1aa4	call   	0x3216
  === BLOCK LINK ===
    0x1aa9
=== CODE BLOCK END ===

=== CODE BLOCK ADDRESS 0x1aa9 ===
  0x1aa9	dec    	eax
  0x1aaa	mov    	ecx, dword ptr [0x4550]
  0x1ab0	dec    	eax
  0x1ab1	lea    	edi, [0x4549]
  0x1ab7	dec    	eax
  === BLOCK LINK ===
    0x1ab8
=== CODE BLOCK END ===

=== CODE BLOCK ADDRESS 0x1ab8 ===
  0x1ab8	cmp    	ecx, edi
  0x1aba	je     	0x1add
  === BLOCK LINK ===
    0x1abc
=== CODE BLOCK END ===

=== CODE BLOCK ADDRESS 0x1abc ===
  0x1abc	test   	byte ptr [ecx + 0x1c], 2
  0x1ac0	je     	0x1add
  === BLOCK LINK ===
    0x1ac2
=== CODE BLOCK END ===

=== CODE BLOCK ADDRESS 0x1ac2 ===
  0x1ac2	cmp    	byte ptr [ecx + 0x19], 5
  0x1ac6	jb     	0x1add
  === BLOCK LINK ===
    0x1ac8
=== CODE BLOCK END ===

=== CODE BLOCK ADDRESS 0x1ac8 ===
  0x1ac8	dec    	eax
  0x1ac9	mov    	ecx, dword ptr [ecx + 0x10]
  0x1acc	dec    	esp
  0x1acd	lea    	eax, [0x2dbd]
  0x1ad3	mov    	edx, 0xa
  === BLOCK LINK ===
    0x1ad8
=== CODE BLOCK END ===

=== CODE BLOCK ADDRESS 0x1ad8 ===
  0x1ad8	call   	0x1668
  === BLOCK LINK ===
    0x1add
=== CODE BLOCK END ===

=== CODE BLOCK ADDRESS 0x1add ===
  0x1add	dec    	eax
  0x1ade	lea    	ecx, [esp + 0x20]
  0x1ae2	mov    	dword ptr [esp + 0x20], 0x11c
  0x1aea	dec    	eax
  0x1aeb	call   	dword ptr [0x26d7]
  === BLOCK LINK ===
    0x1af1
=== CODE BLOCK END ===

=== CODE BLOCK ADDRESS 0x1af1 ===
  0x1af1	nop    	dword ptr [eax + eax]
  0x1af6	xor    	edx, edx
  0x1af8	test   	eax, eax
  0x1afa	jne    	0x1b4d
  === BLOCK LINK ===
    0x1afc
=== CODE BLOCK END ===

=== CODE BLOCK ADDRESS 0x1afc ===
  0x1afc	dec    	eax
  0x1afd	mov    	eax, dword ptr [0x44fd]
  0x1b03	dec    	eax
  0x1b04	cmp    	eax, edi
  0x1b06	je     	0x1ba7
  === BLOCK LINK ===
    0x1b0c
=== CODE BLOCK END ===

=== CODE BLOCK ADDRESS 0x1b0c ===
  0x1b0c	test   	byte ptr [eax + 0x1c], 2
  0x1b10	je     	0x1ba7
  === BLOCK LINK ===
    0x1b16
=== CODE BLOCK END ===

=== CODE BLOCK ADDRESS 0x1b16 ===
  0x1b16	cmp    	byte ptr [eax + 0x19], 2
  0x1b1a	jb     	0x1ba7
  === BLOCK LINK ===
    0x1b20
=== CODE BLOCK END ===

=== CODE BLOCK ADDRESS 0x1b20 ===
  0x1b20	dec    	eax
  0x1b21	call   	dword ptr [0x26e1]
  === BLOCK LINK ===
    0x1b27
=== CODE BLOCK END ===

=== CODE BLOCK ADDRESS 0x1b27 ===
  0x1b27	nop    	dword ptr [eax + eax]
  0x1b2c	dec    	eax
  0x1b2d	mov    	ecx, dword ptr [0x44cd]
  0x1b33	dec    	esp
  0x1b34	lea    	eax, [0x2d56]
  === BLOCK LINK ===
    0x1b3a
=== CODE BLOCK END ===

=== CODE BLOCK ADDRESS 0x1b3a ===
  0x1b3a	inc    	esp
  0x1b3b	mov    	ecx, eax
  0x1b3d	mov    	edx, 0xc
  0x1b42	dec    	eax
  0x1b43	mov    	ecx, dword ptr [ecx + 0x10]
  === BLOCK LINK ===
    0x1b46
=== CODE BLOCK END ===

=== CODE BLOCK ADDRESS 0x1b46 ===
  0x1b46	call   	0x16e4
  === BLOCK LINK ===
    0x1b4b
=== CODE BLOCK END ===

=== CODE BLOCK ADDRESS 0x1b4b ===
  0x1b4b	jmp    	0x1ba7
  === BLOCK LINK ===
    0x1b4d
=== CODE BLOCK END ===

=== CODE BLOCK ADDRESS 0x1b4d ===
  0x1b4d	cmp    	dword ptr [esp + 0x30], 2
  0x1b52	je     	0x1b73
  === BLOCK LINK ===
    0x1b54
=== CODE BLOCK END ===

=== CODE BLOCK ADDRESS 0x1b54 ===
  0x1b54	dec    	eax
  0x1b55	mov    	ecx, dword ptr [0x44a5]
  0x1b5b	dec    	eax
  0x1b5c	cmp    	ecx, edi
  0x1b5e	je     	0x1ba7
  === BLOCK LINK ===
    0x1b60
=== CODE BLOCK END ===

=== CODE BLOCK ADDRESS 0x1b60 ===
  0x1b60	test   	byte ptr [ecx + 0x1c], 2
  0x1b64	je     	0x1ba7
  === BLOCK LINK ===
    0x1b66
=== CODE BLOCK END ===

=== CODE BLOCK ADDRESS 0x1b66 ===
  0x1b66	cmp    	byte ptr [ecx + 0x19], 3
  0x1b6a	jb     	0x1ba7
  === BLOCK LINK ===
    0x1b6c
=== CODE BLOCK END ===

=== CODE BLOCK ADDRESS 0x1b6c ===
  0x1b6c	mov    	edx, 0xd
  0x1b71	jmp    	0x1b97
  === BLOCK LINK ===
    0x1b73
=== CODE BLOCK END ===

=== CODE BLOCK ADDRESS 0x1b73 ===
  0x1b73	cmp    	dword ptr [esp + 0x24], 5
  0x1b78	jae    	0x1bae
  === BLOCK LINK ===
    0x1b7a
=== CODE BLOCK END ===

=== CODE BLOCK ADDRESS 0x1b7a ===
  0x1b7a	dec    	eax
  0x1b7b	mov    	ecx, dword ptr [0x447f]
  0x1b81	dec    	eax
  0x1b82	cmp    	ecx, edi
  0x1b84	je     	0x1ba7
  === BLOCK LINK ===
    0x1b86
=== CODE BLOCK END ===

=== CODE BLOCK ADDRESS 0x1b86 ===
  0x1b86	test   	byte ptr [ecx + 0x1c], 2
  0x1b8a	je     	0x1ba7
  === BLOCK LINK ===
    0x1b8c
=== CODE BLOCK END ===

=== CODE BLOCK ADDRESS 0x1b8c ===
  0x1b8c	cmp    	byte ptr [ecx + 0x19], 3
  0x1b90	jb     	0x1ba7
  === BLOCK LINK ===
    0x1b92
=== CODE BLOCK END ===

=== CODE BLOCK ADDRESS 0x1b92 ===
  0x1b92	mov    	edx, 0xe
  0x1b97	dec    	eax
  0x1b98	mov    	ecx, dword ptr [ecx + 0x10]
  0x1b9b	dec    	esp
  0x1b9c	lea    	eax, [0x2cee]
  === BLOCK LINK ===
    0x1ba2
=== CODE BLOCK END ===

=== CODE BLOCK ADDRESS 0x1ba2 ===
  0x1ba2	call   	0x1668
  === BLOCK LINK ===
    0x1ba7
=== CODE BLOCK END ===

=== CODE BLOCK ADDRESS 0x1ba7 ===
  0x1ba7	xor    	eax, eax
  0x1ba9	jmp    	0x1c30
  === BLOCK LINK ===
    0x1bae
=== CODE BLOCK END ===

=== CODE BLOCK ADDRESS 0x1bae ===
  0x1bae	mov    	cl, byte ptr [esp + 0x138]
  0x1bb5	mov    	eax, 0x40
  0x1bba	test   	al, cl
  0x1bbc	je     	0x1bce
  === BLOCK LINK ===
    0x1bbe
=== CODE BLOCK END ===

=== CODE BLOCK ADDRESS 0x1bbe ===
  0x1bbe	cmp    	byte ptr [esp + 0x13a], 1
  0x1bc6	lea    	ecx, [eax - 0x20]
  0x1bc9	cmove  	eax, ecx
  0x1bcc	jmp    	0x1c30
  === BLOCK LINK ===
    0x1bce
=== CODE BLOCK END ===

=== CODE BLOCK ADDRESS 0x1bce ===
  0x1bce	mov    	eax, 0x200
  0x1bd3	test   	word ptr [esp + 0x138], ax
  0x1bdb	je     	0x1be4
  === BLOCK LINK ===
    0x1bdd
=== CODE BLOCK END ===

=== CODE BLOCK ADDRESS 0x1bdd ===
  0x1bdd	mov    	eax, 1
  0x1be2	jmp    	0x1c30
  === BLOCK LINK ===
    0x1be4
=== CODE BLOCK END ===

=== CODE BLOCK ADDRESS 0x1be4 ===
  0x1be4	test   	cl, 2
  0x1be7	je     	0x1bf0
  === BLOCK LINK ===
    0x1be9
=== CODE BLOCK END ===

=== CODE BLOCK ADDRESS 0x1be9 ===
  0x1be9	mov    	eax, 8
  0x1bee	jmp    	0x1c30
  === BLOCK LINK ===
    0x1bf0
=== CODE BLOCK END ===

=== CODE BLOCK ADDRESS 0x1bf0 ===
  0x1bf0	mov    	eax, 0x80
  0x1bf5	test   	al, cl
  0x1bf7	je     	0x1c00
  === BLOCK LINK ===
    0x1bf9
=== CODE BLOCK END ===

=== CODE BLOCK ADDRESS 0x1bf9 ===
  0x1bf9	mov    	eax, 0x10
  0x1bfe	jmp    	0x1c30
  === BLOCK LINK ===
    0x1c00
=== CODE BLOCK END ===

=== CODE BLOCK ADDRESS 0x1c00 ===
  0x1c00	mov    	ecx, 0x400
  0x1c05	test   	word ptr [esp + 0x138], cx
  0x1c0d	jne    	0x1c30
  === BLOCK LINK ===
    0x1c0f
=== CODE BLOCK END ===

=== CODE BLOCK ADDRESS 0x1c0f ===
  0x1c0f	mov    	cl, byte ptr [esp + 0x13a]
  0x1c16	cmp    	cl, 1
  0x1c19	jne    	0x1c22
  === BLOCK LINK ===
    0x1c1b
=== CODE BLOCK END ===

=== CODE BLOCK ADDRESS 0x1c1b ===
  0x1c1b	mov    	eax, 2
  0x1c20	jmp    	0x1c30
  === BLOCK LINK ===
    0x1c22
=== CODE BLOCK END ===

=== CODE BLOCK ADDRESS 0x1c22 ===
  0x1c22	sub    	cl, 2
  0x1c25	mov    	eax, 4
  0x1c2a	cmp    	cl, 1
  0x1c2d	cmova  	eax, edx
  0x1c30	dec    	eax
  === BLOCK LINK ===
    0x1c31
=== CODE BLOCK END ===

=== CODE BLOCK ADDRESS 0x1c31 ===
  0x1c31	mov    	ecx, dword ptr [esp + 0x140]
  0x1c38	dec    	eax
  0x1c39	xor    	ecx, esp
  0x1c3b	call   	0x2b80
  === BLOCK LINK ===
    0x1c40
=== CODE BLOCK END ===

=== CODE BLOCK ADDRESS 0x1c40 ===
  0x1c40	dec    	eax
  0x1c41	add    	esp, 0x150
  0x1c47	pop    	edi
  0x1c48	ret    	
  0x1c49	int3   	
  === BLOCK LINK ===
    0x1c4a
=== CODE BLOCK END ===

=== CODE BLOCK ADDRESS 0x113b ===
  0x113b	test   	al, 0x40
  0x113d	je     	0x114b
  === BLOCK LINK ===
    0x113f
=== CODE BLOCK END ===

=== CODE BLOCK ADDRESS 0x1c4a ===
  0x1c4a	int3   	
  0x1c4b	int3   	
  0x1c4c	int3   	
  0x1c4d	int3   	
  0x1c4e	int3   	
  === BLOCK LINK ===
    0x1c4f
=== CODE BLOCK END ===

=== CODE BLOCK ADDRESS 0x1c4f ===
  0x1c4f	int3   	
  0x1c50	dec    	eax
  0x1c51	mov    	dword ptr [esp + 0x10], ebx
  0x1c55	push   	edi
  0x1c56	dec    	eax
  === BLOCK LINK ===
    0x1c57
=== CODE BLOCK END ===

=== CODE BLOCK ADDRESS 0x1c57 ===
  0x1c57	sub    	esp, 0x20
  0x1c5a	dec    	eax
  0x1c5b	mov    	ecx, dword ptr [0x439f]
  0x1c61	dec    	eax
  0x1c62	lea    	edi, [0x4398]
  === BLOCK LINK ===
    0x1c68
=== CODE BLOCK END ===

=== CODE BLOCK ADDRESS 0x1c68 ===
  0x1c68	dec    	eax
  0x1c69	cmp    	ecx, edi
  0x1c6b	je     	0x1c8e
  === BLOCK LINK ===
    0x1c6d
=== CODE BLOCK END ===

=== CODE BLOCK ADDRESS 0x1c6d ===
  0x1c6d	test   	byte ptr [ecx + 0x1c], 2
  0x1c71	je     	0x1c8e
  === BLOCK LINK ===
    0x1c73
=== CODE BLOCK END ===

=== CODE BLOCK ADDRESS 0x1c73 ===
  0x1c73	cmp    	byte ptr [ecx + 0x19], 5
  0x1c77	jb     	0x1c8e
  === BLOCK LINK ===
    0x1c79
=== CODE BLOCK END ===

=== CODE BLOCK ADDRESS 0x1c79 ===
  0x1c79	dec    	eax
  0x1c7a	mov    	ecx, dword ptr [ecx + 0x10]
  0x1c7d	dec    	esp
  0x1c7e	lea    	eax, [0x2c0c]
  0x1c84	mov    	edx, 0xf
  === BLOCK LINK ===
    0x1c89
=== CODE BLOCK END ===

=== CODE BLOCK ADDRESS 0x1c89 ===
  0x1c89	call   	0x1668
  === BLOCK LINK ===
    0x1c8e
=== CODE BLOCK END ===

=== CODE BLOCK ADDRESS 0x1c8e ===
  0x1c8e	xor    	ebx, ebx
  0x1c90	dec    	eax
  0x1c91	lea    	edx, [esp + 0x30]
  0x1c95	mov    	dword ptr [esp + 0x30], ebx
  0x1c99	call   	0x1cec
  === BLOCK LINK ===
    0x1c9e
=== CODE BLOCK END ===

=== CODE BLOCK ADDRESS 0x1c9e ===
  0x1c9e	test   	eax, eax
  0x1ca0	js     	0x1cab
  === BLOCK LINK ===
    0x1ca2
=== CODE BLOCK END ===

=== CODE BLOCK ADDRESS 0x1ca2 ===
  0x1ca2	cmp    	dword ptr [esp + 0x30], ebx
  0x1ca6	setne  	bl
  0x1ca9	jmp    	0x1cd8
  === BLOCK LINK ===
    0x1cab
=== CODE BLOCK END ===

=== CODE BLOCK ADDRESS 0x1cab ===
  0x1cab	dec    	eax
  0x1cac	mov    	ecx, dword ptr [0x434e]
  0x1cb2	dec    	eax
  0x1cb3	cmp    	ecx, edi
  0x1cb5	je     	0x1cd8
  === BLOCK LINK ===
    0x1cb7
=== CODE BLOCK END ===

=== CODE BLOCK ADDRESS 0x1cb7 ===
  0x1cb7	test   	byte ptr [ecx + 0x1c], 2
  0x1cbb	je     	0x1cd8
  === BLOCK LINK ===
    0x1cbd
=== CODE BLOCK END ===

=== CODE BLOCK ADDRESS 0x1cbd ===
  0x1cbd	cmp    	byte ptr [ecx + 0x19], 3
  0x1cc1	jb     	0x1cd8
  === BLOCK LINK ===
    0x1cc3
=== CODE BLOCK END ===

=== CODE BLOCK ADDRESS 0x1cc3 ===
  0x1cc3	dec    	eax
  0x1cc4	mov    	ecx, dword ptr [ecx + 0x10]
  0x1cc7	dec    	esp
  0x1cc8	lea    	eax, [0x2bc2]
  0x1cce	mov    	edx, 0x10
  === BLOCK LINK ===
    0x1cd3
=== CODE BLOCK END ===

=== CODE BLOCK ADDRESS 0x1cd3 ===
  0x1cd3	call   	0x1668
  === BLOCK LINK ===
    0x1cd8
=== CODE BLOCK END ===

=== CODE BLOCK ADDRESS 0x1cd8 ===
  0x1cd8	mov    	eax, ebx
  0x1cda	dec    	eax
  0x1cdb	mov    	ebx, dword ptr [esp + 0x38]
  0x1cdf	dec    	eax
  0x1ce0	add    	esp, 0x20
  === BLOCK LINK ===
    0x1ce3
=== CODE BLOCK END ===

=== CODE BLOCK ADDRESS 0x1ce3 ===
  0x1ce3	pop    	edi
  0x1ce4	ret    	
  0x1ce5	int3   	
  0x1ce6	int3   	
  0x1ce7	int3   	
  === BLOCK LINK ===
    0x1ce8
=== CODE BLOCK END ===

=== CODE BLOCK ADDRESS 0x114b ===
  0x114b	test   	al, 0x20
  0x114d	je     	0x1160
  === BLOCK LINK ===
    0x114f
=== CODE BLOCK END ===

=== CODE BLOCK ADDRESS 0x1ce8 ===
  0x1ce8	int3   	
  0x1ce9	int3   	
  0x1cea	int3   	
  0x1ceb	int3   	
  0x1cec	dec    	eax
  === BLOCK LINK ===
    0x1ced
=== CODE BLOCK END ===

=== CODE BLOCK ADDRESS 0x1ced ===
  0x1ced	mov    	dword ptr [esp + 8], ebx
  0x1cf1	dec    	eax
  0x1cf2	mov    	dword ptr [esp + 0x10], esi
  0x1cf6	dec    	eax
  0x1cf7	mov    	dword ptr [esp + 0x18], edi
  === BLOCK LINK ===
    0x1cfb
=== CODE BLOCK END ===

=== CODE BLOCK ADDRESS 0x1cfb ===
  0x1cfb	inc    	ecx
  0x1cfc	push   	esi
  0x1cfd	dec    	eax
  0x1cfe	sub    	esp, 0x20
  0x1d01	dec    	eax
  === BLOCK LINK ===
    0x1d02
=== CODE BLOCK END ===

=== CODE BLOCK ADDRESS 0x1d02 ===
  0x1d02	mov    	esi, edx
  0x1d04	xor    	ebx, ebx
  0x1d06	dec    	eax
  0x1d07	mov    	ecx, dword ptr [0x42f3]
  0x1d0d	dec    	esp
  === BLOCK LINK ===
    0x1d0e
=== CODE BLOCK END ===

=== CODE BLOCK ADDRESS 0x1d0e ===
  0x1d0e	lea    	esi, [0x42ec]
  0x1d14	dec    	ecx
  0x1d15	cmp    	ecx, esi
  0x1d17	je     	0x1d38
  === BLOCK LINK ===
    0x1d19
=== CODE BLOCK END ===

=== CODE BLOCK ADDRESS 0x1d19 ===
  0x1d19	test   	byte ptr [ecx + 0x1c], 2
  0x1d1d	je     	0x1d38
  === BLOCK LINK ===
    0x1d1f
=== CODE BLOCK END ===

=== CODE BLOCK ADDRESS 0x1d1f ===
  0x1d1f	cmp    	byte ptr [ecx + 0x19], 5
  0x1d23	jb     	0x1d38
  === BLOCK LINK ===
    0x1d25
=== CODE BLOCK END ===

=== CODE BLOCK ADDRESS 0x1d25 ===
  0x1d25	dec    	eax
  0x1d26	mov    	ecx, dword ptr [ecx + 0x10]
  0x1d29	lea    	edx, [ebx + 0x1c]
  0x1d2c	dec    	esp
  0x1d2d	lea    	eax, [0x2b5d]
  === BLOCK LINK ===
    0x1d33
=== CODE BLOCK END ===

=== CODE BLOCK ADDRESS 0x1d33 ===
  0x1d33	call   	0x1668
  === BLOCK LINK ===
    0x1d38
=== CODE BLOCK END ===

=== CODE BLOCK ADDRESS 0x1d38 ===
  0x1d38	dec    	eax
  0x1d39	test   	esi, esi
  0x1d3b	jne    	0x1d47
  === BLOCK LINK ===
    0x1d3d
=== CODE BLOCK END ===

=== CODE BLOCK ADDRESS 0x1d3d ===
  0x1d3d	mov    	eax, 0x80070057
  0x1d42	jmp    	0x1e2a
  === BLOCK LINK ===
    0x1d47
=== CODE BLOCK END ===

=== CODE BLOCK ADDRESS 0x1d47 ===
  0x1d47	call   	0x2758
  === BLOCK LINK ===
    0x1d4c
=== CODE BLOCK END ===

=== CODE BLOCK ADDRESS 0x1d4c ===
  0x1d4c	test   	eax, eax
  0x1d4e	je     	0x1e1e
  === BLOCK LINK ===
    0x1d54
=== CODE BLOCK END ===

=== CODE BLOCK ADDRESS 0x1d54 ===
  0x1d54	dec    	eax
  0x1d55	lea    	ecx, [0x2b05]
  0x1d5b	dec    	eax
  0x1d5c	call   	dword ptr [0x245e]
  === BLOCK LINK ===
    0x1d62
=== CODE BLOCK END ===

=== CODE BLOCK ADDRESS 0x1d62 ===
  0x1d62	nop    	dword ptr [eax + eax]
  0x1d67	dec    	eax
  0x1d68	mov    	edi, eax
  0x1d6a	dec    	eax
  0x1d6b	test   	eax, eax
  === BLOCK LINK ===
    0x1d6d
=== CODE BLOCK END ===

=== CODE BLOCK ADDRESS 0x1d6d ===
  0x1d6d	je     	0x1dea
  === BLOCK LINK ===
    0x1d6f
=== CODE BLOCK END ===

=== CODE BLOCK ADDRESS 0x1d6f ===
  0x1d6f	dec    	eax
  0x1d70	lea    	edx, [0x2afa]
  0x1d76	dec    	eax
  0x1d77	mov    	ecx, eax
  0x1d79	dec    	eax
  === BLOCK LINK ===
    0x1d7a
=== CODE BLOCK END ===

=== CODE BLOCK ADDRESS 0x1d7a ===
  0x1d7a	call   	dword ptr [0x2438]
  === BLOCK LINK ===
    0x1d80
=== CODE BLOCK END ===

=== CODE BLOCK ADDRESS 0x1d80 ===
  0x1d80	nop    	dword ptr [eax + eax]
  0x1d85	dec    	eax
  0x1d86	test   	eax, eax
  0x1d88	jne    	0x1dc7
  === BLOCK LINK ===
    0x1d8a
=== CODE BLOCK END ===

=== CODE BLOCK ADDRESS 0x1d8a ===
  0x1d8a	dec    	eax
  0x1d8b	call   	dword ptr [0x2477]
  === BLOCK LINK ===
    0x1d91
=== CODE BLOCK END ===

=== CODE BLOCK ADDRESS 0x1d91 ===
  0x1d91	nop    	dword ptr [eax + eax]
  0x1d96	mov    	ebx, eax
  0x1d98	dec    	eax
  0x1d99	mov    	ecx, dword ptr [0x4261]
  0x1d9f	dec    	ecx
  === BLOCK LINK ===
    0x1da0
=== CODE BLOCK END ===

=== CODE BLOCK ADDRESS 0x1da0 ===
  0x1da0	cmp    	ecx, esi
  0x1da2	je     	0x1dd9
  === BLOCK LINK ===
    0x1da4
=== CODE BLOCK END ===

=== CODE BLOCK ADDRESS 0x1da4 ===
  0x1da4	test   	byte ptr [ecx + 0x1c], 2
  0x1da8	je     	0x1dd9
  === BLOCK LINK ===
    0x1daa
=== CODE BLOCK END ===

=== CODE BLOCK ADDRESS 0x1daa ===
  0x1daa	cmp    	byte ptr [ecx + 0x19], 2
  0x1dae	jb     	0x1dd9
  === BLOCK LINK ===
    0x1db0
=== CODE BLOCK END ===

=== CODE BLOCK ADDRESS 0x1db0 ===
  0x1db0	dec    	eax
  0x1db1	mov    	ecx, dword ptr [ecx + 0x10]
  0x1db4	dec    	esp
  0x1db5	lea    	eax, [0x2ad5]
  0x1dbb	mov    	edx, 0x1d
  === BLOCK LINK ===
    0x1dc0
=== CODE BLOCK END ===

=== CODE BLOCK ADDRESS 0x1dc0 ===
  0x1dc0	call   	0x1668
  === BLOCK LINK ===
    0x1dc5
=== CODE BLOCK END ===

=== CODE BLOCK ADDRESS 0x1dc5 ===
  0x1dc5	jmp    	0x1dd9
  === BLOCK LINK ===
    0x1dc7
=== CODE BLOCK END ===

=== CODE BLOCK ADDRESS 0x1dc7 ===
  0x1dc7	dec    	eax
  0x1dc8	mov    	edx, esi
  0x1dca	dec    	eax
  0x1dcb	lea    	ecx, [0x2a2f]
  0x1dd1	call   	dword ptr [0x2551]
  === BLOCK LINK ===
    0x1dd7
=== CODE BLOCK END ===

=== CODE BLOCK ADDRESS 0x1dd7 ===
  0x1dd7	mov    	ebx, eax
  0x1dd9	dec    	eax
  0x1dda	mov    	ecx, edi
  0x1ddc	dec    	eax
  0x1ddd	call   	dword ptr [0x23cd]
  === BLOCK LINK ===
    0x1de3
=== CODE BLOCK END ===

=== CODE BLOCK ADDRESS 0x1de3 ===
  0x1de3	nop    	dword ptr [eax + eax]
  0x1de8	jmp    	0x1e28
  === BLOCK LINK ===
    0x1dea
=== CODE BLOCK END ===

=== CODE BLOCK ADDRESS 0x1dea ===
  0x1dea	dec    	eax
  0x1deb	mov    	ecx, dword ptr [0x420f]
  0x1df1	dec    	ecx
  0x1df2	cmp    	ecx, esi
  0x1df4	je     	0x1e17
  === BLOCK LINK ===
    0x1df6
=== CODE BLOCK END ===

=== CODE BLOCK ADDRESS 0x1df6 ===
  0x1df6	test   	byte ptr [ecx + 0x1c], 2
  0x1dfa	je     	0x1e17
  === BLOCK LINK ===
    0x1dfc
=== CODE BLOCK END ===

=== CODE BLOCK ADDRESS 0x1dfc ===
  0x1dfc	cmp    	byte ptr [ecx + 0x19], 2
  0x1e00	jb     	0x1e17
  === BLOCK LINK ===
    0x1e02
=== CODE BLOCK END ===

=== CODE BLOCK ADDRESS 0x1e02 ===
  0x1e02	dec    	eax
  0x1e03	mov    	ecx, dword ptr [ecx + 0x10]
  0x1e06	dec    	esp
  0x1e07	lea    	eax, [0x2a83]
  0x1e0d	mov    	edx, 0x1e
  === BLOCK LINK ===
    0x1e12
=== CODE BLOCK END ===

=== CODE BLOCK ADDRESS 0x1e12 ===
  0x1e12	call   	0x1668
  === BLOCK LINK ===
    0x1e17
=== CODE BLOCK END ===

=== CODE BLOCK ADDRESS 0x1e17 ===
  0x1e17	mov    	ebx, 0x485
  0x1e1c	jmp    	0x1e28
  === BLOCK LINK ===
    0x1e1e
=== CODE BLOCK END ===

=== CODE BLOCK ADDRESS 0x1e1e ===
  0x1e1e	call   	0x1a7c
  === BLOCK LINK ===
    0x1e23
=== CODE BLOCK END ===

=== CODE BLOCK ADDRESS 0x1e23 ===
  0x1e23	and    	eax, 0x5c
  0x1e26	mov    	dword ptr [esi], eax
  0x1e28	mov    	eax, ebx
  0x1e2a	dec    	eax
  0x1e2b	mov    	ebx, dword ptr [esp + 0x30]
  === BLOCK LINK ===
    0x1e2f
=== CODE BLOCK END ===

=== CODE BLOCK ADDRESS 0x1e2f ===
  0x1e2f	dec    	eax
  0x1e30	mov    	esi, dword ptr [esp + 0x38]
  0x1e34	dec    	eax
  0x1e35	mov    	edi, dword ptr [esp + 0x40]
  0x1e39	dec    	eax
  === BLOCK LINK ===
    0x1e3a
=== CODE BLOCK END ===

=== CODE BLOCK ADDRESS 0x1e3a ===
  0x1e3a	add    	esp, 0x20
  0x1e3d	inc    	ecx
  0x1e3e	pop    	esi
  0x1e3f	ret    	
  0x1e40	int3   	
  === BLOCK LINK ===
    0x1e41
=== CODE BLOCK END ===

=== CODE BLOCK ADDRESS 0x1160 ===
  0x1160	dec    	eax
  0x1161	mov    	eax, dword ptr [ebp + 0x58]
  0x1164	dec    	eax
  0x1165	lea    	ecx, [eax + ecx*8]
  === BLOCK LINK ===
    0x1168
=== CODE BLOCK END ===

=== CODE BLOCK ADDRESS 0x1e41 ===
  0x1e41	int3   	
  0x1e42	int3   	
  0x1e43	int3   	
  0x1e44	int3   	
  0x1e45	int3   	
  === BLOCK LINK ===
    0x1e46
=== CODE BLOCK END ===

=== CODE BLOCK ADDRESS 0x1e46 ===
  0x1e46	int3   	
  0x1e47	int3   	
  0x1e48	dec    	eax
  0x1e49	mov    	eax, esp
  0x1e4b	dec    	eax
  === BLOCK LINK ===
    0x1e4c
=== CODE BLOCK END ===

=== CODE BLOCK ADDRESS 0x1e4c ===
  0x1e4c	mov    	dword ptr [eax + 8], ebx
  0x1e4f	dec    	eax
  0x1e50	mov    	dword ptr [eax + 0x10], esi
  0x1e53	inc    	esp
  0x1e54	mov    	dword ptr [eax + 0x20], ecx
  === BLOCK LINK ===
    0x1e57
=== CODE BLOCK END ===

=== CODE BLOCK ADDRESS 0x1e57 ===
  0x1e57	push   	edi
  0x1e58	dec    	eax
  0x1e59	sub    	esp, 0x40
  0x1e5c	dec    	esp
  0x1e5d	mov    	dword ptr [eax - 0x18], eax
  === BLOCK LINK ===
    0x1e60
=== CODE BLOCK END ===

=== CODE BLOCK ADDRESS 0x1e60 ===
  0x1e60	dec    	eax
  0x1e61	lea    	eax, [eax + 0x20]
  0x1e64	xor    	ebx, ebx
  0x1e66	dec    	eax
  0x1e67	mov    	dword ptr [esp + 0x28], eax
  === BLOCK LINK ===
    0x1e6b
=== CODE BLOCK END ===

=== CODE BLOCK ADDRESS 0x1e6b ===
  0x1e6b	and    	dword ptr [eax], ebx
  0x1e6d	dec    	ecx
  0x1e6e	mov    	esi, eax
  0x1e70	and    	dword ptr [esp + 0x20], ebx
  0x1e74	inc    	ebp
  === BLOCK LINK ===
    0x1e75
=== CODE BLOCK END ===

=== CODE BLOCK ADDRESS 0x1e75 ===
  0x1e75	xor    	ecx, ecx
  0x1e77	xor    	edx, edx
  0x1e79	xor    	edi, edi
  0x1e7b	lea    	ecx, [ebx + 2]
  0x1e7e	inc    	esp
  === BLOCK LINK ===
    0x1e7f
=== CODE BLOCK END ===

=== CODE BLOCK ADDRESS 0x1e7f ===
  0x1e7f	mov    	eax, ecx
  0x1e81	dec    	eax
  0x1e82	call   	dword ptr [0x2400]
  === BLOCK LINK ===
    0x1e88
=== CODE BLOCK END ===

=== CODE BLOCK ADDRESS 0x1e88 ===
  0x1e88	nop    	dword ptr [eax + eax]
  0x1e8d	test   	eax, eax
  0x1e8f	jne    	0x1efa
  === BLOCK LINK ===
    0x1e91
=== CODE BLOCK END ===

=== CODE BLOCK ADDRESS 0x1e91 ===
  0x1e91	dec    	eax
  0x1e92	call   	dword ptr [0x2370]
  === BLOCK LINK ===
    0x1e98
=== CODE BLOCK END ===

=== CODE BLOCK ADDRESS 0x1e98 ===
  0x1e98	nop    	dword ptr [eax + eax]
  0x1e9d	mov    	edi, eax
  0x1e9f	cmp    	eax, 0x7a
  0x1ea2	jne    	0x1efa
  === BLOCK LINK ===
    0x1ea4
=== CODE BLOCK END ===

=== CODE BLOCK ADDRESS 0x1ea4 ===
  0x1ea4	mov    	ecx, dword ptr [esp + 0x68]
  0x1ea8	call   	0x2480
  === BLOCK LINK ===
    0x1ead
=== CODE BLOCK END ===

=== CODE BLOCK ADDRESS 0x1ead ===
  0x1ead	dec    	eax
  0x1eae	mov    	ebx, eax
  0x1eb0	dec    	eax
  0x1eb1	test   	eax, eax
  0x1eb3	je     	0x1efa
  === BLOCK LINK ===
    0x1eb5
=== CODE BLOCK END ===

=== CODE BLOCK ADDRESS 0x1eb5 ===
  0x1eb5	mov    	edx, dword ptr [esp + 0x68]
  0x1eb9	dec    	eax
  0x1eba	lea    	eax, [esp + 0x68]
  0x1ebe	dec    	eax
  0x1ebf	mov    	dword ptr [esp + 0x30], esi
  === BLOCK LINK ===
    0x1ec3
=== CODE BLOCK END ===

=== CODE BLOCK ADDRESS 0x1ec3 ===
  0x1ec3	lea    	ecx, [edi - 0x78]
  0x1ec6	dec    	eax
  0x1ec7	mov    	dword ptr [esp + 0x28], eax
  0x1ecb	dec    	esp
  0x1ecc	mov    	ecx, ebx
  === BLOCK LINK ===
    0x1ece
=== CODE BLOCK END ===

=== CODE BLOCK ADDRESS 0x1ece ===
  0x1ece	mov    	dword ptr [esp + 0x20], edx
  0x1ed2	inc    	esp
  0x1ed3	mov    	eax, ecx
  0x1ed5	xor    	edx, edx
  0x1ed7	dec    	eax
  === BLOCK LINK ===
    0x1ed8
=== CODE BLOCK END ===

=== CODE BLOCK ADDRESS 0x1ed8 ===
  0x1ed8	call   	dword ptr [0x23aa]
  === BLOCK LINK ===
    0x1ede
=== CODE BLOCK END ===

=== CODE BLOCK ADDRESS 0x1ede ===
  0x1ede	nop    	dword ptr [eax + eax]
  0x1ee3	test   	eax, eax
  0x1ee5	je     	0x1eec
  === BLOCK LINK ===
    0x1ee7
=== CODE BLOCK END ===

=== CODE BLOCK ADDRESS 0x1ee7 ===
  0x1ee7	dec    	eax
  0x1ee8	mov    	eax, ebx
  0x1eea	jmp    	0x1f12
  === BLOCK LINK ===
    0x1eec
=== CODE BLOCK END ===

=== CODE BLOCK ADDRESS 0x1eec ===
  0x1eec	dec    	eax
  0x1eed	call   	dword ptr [0x2315]
  === BLOCK LINK ===
    0x1ef3
=== CODE BLOCK END ===

=== CODE BLOCK ADDRESS 0x1ef3 ===
  0x1ef3	nop    	dword ptr [eax + eax]
  0x1ef8	mov    	edi, eax
  0x1efa	dec    	eax
  0x1efb	mov    	ecx, ebx
  0x1efd	call   	0x253c
  === BLOCK LINK ===
    0x1f02
=== CODE BLOCK END ===

=== CODE BLOCK ADDRESS 0x1f02 ===
  0x1f02	mov    	ecx, edi
  0x1f04	dec    	eax
  0x1f05	call   	dword ptr [0x22c5]
  === BLOCK LINK ===
    0x1f0b
=== CODE BLOCK END ===

=== CODE BLOCK ADDRESS 0x1f0b ===
  0x1f0b	nop    	dword ptr [eax + eax]
  0x1f10	xor    	eax, eax
  0x1f12	dec    	eax
  0x1f13	mov    	ebx, dword ptr [esp + 0x50]
  0x1f17	dec    	eax
  === BLOCK LINK ===
    0x1f18
=== CODE BLOCK END ===

=== CODE BLOCK ADDRESS 0x1f18 ===
  0x1f18	mov    	esi, dword ptr [esp + 0x58]
  0x1f1c	dec    	eax
  0x1f1d	add    	esp, 0x40
  0x1f20	pop    	edi
  0x1f21	ret    	
  === BLOCK LINK ===
    0x1f22
=== CODE BLOCK END ===

=== CODE BLOCK ADDRESS 0x118d ===
  0x118d	dec    	ebp
  0x118e	test   	esi, esi
  0x1190	je     	0x11d0
  === BLOCK LINK ===
    0x1192
=== CODE BLOCK END ===

=== CODE BLOCK ADDRESS 0x1f22 ===
  0x1f22	int3   	
  0x1f23	int3   	
  0x1f24	int3   	
  0x1f25	int3   	
  0x1f26	int3   	
  === BLOCK LINK ===
    0x1f27
=== CODE BLOCK END ===

=== CODE BLOCK ADDRESS 0x1f27 ===
  0x1f27	int3   	
  0x1f28	int3   	
  0x1f29	int3   	
  0x1f2a	int3   	
  0x1f2b	int3   	
  === BLOCK LINK ===
    0x1f2c
=== CODE BLOCK END ===

=== CODE BLOCK ADDRESS 0x1f2c ===
  0x1f2c	dec    	eax
  0x1f2d	mov    	dword ptr [esp + 8], ebx
  0x1f31	dec    	eax
  0x1f32	mov    	dword ptr [esp + 0x10], ebp
  0x1f36	inc    	esp
  === BLOCK LINK ===
    0x1f37
=== CODE BLOCK END ===

=== CODE BLOCK ADDRESS 0x1f37 ===
  0x1f37	mov    	dword ptr [esp + 0x18], eax
  0x1f3b	push   	esi
  0x1f3c	push   	edi
  0x1f3d	inc    	ecx
  0x1f3e	push   	esp
  === BLOCK LINK ===
    0x1f3f
=== CODE BLOCK END ===

=== CODE BLOCK ADDRESS 0x1f3f ===
  0x1f3f	inc    	ecx
  0x1f40	push   	ebp
  0x1f41	inc    	ecx
  0x1f42	push   	edi
  0x1f43	dec    	eax
  === BLOCK LINK ===
    0x1f44
=== CODE BLOCK END ===

=== CODE BLOCK ADDRESS 0x1f44 ===
  0x1f44	sub    	esp, 0x20
  0x1f47	inc    	ebp
  0x1f48	xor    	ebp, ebp
  0x1f4a	dec    	eax
  0x1f4b	mov    	edi, ecx
  === BLOCK LINK ===
    0x1f4d
=== CODE BLOCK END ===

=== CODE BLOCK ADDRESS 0x1f4d ===
  0x1f4d	inc    	ecx
  0x1f4e	mov    	ebx, ebp
  0x1f50	dec    	eax
  0x1f51	mov    	ecx, dword ptr [0x40a9]
  0x1f57	dec    	eax
  === BLOCK LINK ===
    0x1f58
=== CODE BLOCK END ===

=== CODE BLOCK ADDRESS 0x1f58 ===
  0x1f58	lea    	esi, [0x40a2]
  0x1f5e	dec    	eax
  0x1f5f	cmp    	ecx, esi
  0x1f61	je     	0x1f83
  === BLOCK LINK ===
    0x1f63
=== CODE BLOCK END ===

=== CODE BLOCK ADDRESS 0x1f63 ===
  0x1f63	test   	byte ptr [ecx + 0x1c], 2
  0x1f67	je     	0x1f83
  === BLOCK LINK ===
    0x1f69
=== CODE BLOCK END ===

=== CODE BLOCK ADDRESS 0x1f69 ===
  0x1f69	cmp    	byte ptr [ecx + 0x19], 5
  0x1f6d	jb     	0x1f83
  === BLOCK LINK ===
    0x1f6f
=== CODE BLOCK END ===

=== CODE BLOCK ADDRESS 0x1f6f ===
  0x1f6f	dec    	eax
  0x1f70	mov    	ecx, dword ptr [ecx + 0x10]
  0x1f73	inc    	ecx
  0x1f74	lea    	edx, [ebp + 0xa]
  0x1f77	dec    	esp
  === BLOCK LINK ===
    0x1f78
=== CODE BLOCK END ===

=== CODE BLOCK ADDRESS 0x1f78 ===
  0x1f78	lea    	eax, [0x295a]
  0x1f7e	call   	0x1668
  === BLOCK LINK ===
    0x1f83
=== CODE BLOCK END ===

=== CODE BLOCK ADDRESS 0x1f83 ===
  0x1f83	xor    	ecx, ecx
  0x1f85	dec    	eax
  0x1f86	call   	dword ptr [0x2244]
  === BLOCK LINK ===
    0x1f8c
=== CODE BLOCK END ===

=== CODE BLOCK ADDRESS 0x1f8c ===
  0x1f8c	nop    	dword ptr [eax + eax]
  0x1f91	dec    	esp
  0x1f92	lea    	eax, [esp + 0x60]
  0x1f96	call   	0x1e48
  === BLOCK LINK ===
    0x1f9b
=== CODE BLOCK END ===

=== CODE BLOCK ADDRESS 0x1f9b ===
  0x1f9b	dec    	eax
  0x1f9c	mov    	ebp, eax
  0x1f9e	dec    	eax
  0x1f9f	test   	eax, eax
  0x1fa1	jne    	0x1fff
  === BLOCK LINK ===
    0x1fa3
=== CODE BLOCK END ===

=== CODE BLOCK ADDRESS 0x1fa3 ===
  0x1fa3	dec    	eax
  0x1fa4	call   	dword ptr [0x225e]
  === BLOCK LINK ===
    0x1faa
=== CODE BLOCK END ===

=== CODE BLOCK ADDRESS 0x1faa ===
  0x1faa	nop    	dword ptr [eax + eax]
  0x1faf	mov    	ebx, eax
  0x1fb1	test   	eax, eax
  0x1fb3	jne    	0x1fcd
  === BLOCK LINK ===
    0x1fb5
=== CODE BLOCK END ===

=== CODE BLOCK ADDRESS 0x1fb5 ===
  0x1fb5	mov    	ecx, 0xbc4
  0x1fba	dec    	eax
  0x1fbb	call   	dword ptr [0x220f]
  === BLOCK LINK ===
    0x1fc1
=== CODE BLOCK END ===

=== CODE BLOCK ADDRESS 0x1fc1 ===
  0x1fc1	nop    	dword ptr [eax + eax]
  0x1fc6	xor    	eax, eax
  0x1fc8	jmp    	0x2110
  === BLOCK LINK ===
    0x1fcd
=== CODE BLOCK END ===

=== CODE BLOCK ADDRESS 0x1fcd ===
  0x1fcd	dec    	eax
  0x1fce	mov    	ecx, dword ptr [0x402c]
  0x1fd4	dec    	eax
  0x1fd5	cmp    	ecx, esi
  0x1fd7	je     	0x2040
  === BLOCK LINK ===
    0x1fd9
=== CODE BLOCK END ===

=== CODE BLOCK ADDRESS 0x1fd9 ===
  0x1fd9	test   	byte ptr [ecx + 0x1c], 2
  0x1fdd	je     	0x2040
  === BLOCK LINK ===
    0x1fdf
=== CODE BLOCK END ===

=== CODE BLOCK ADDRESS 0x1fdf ===
  0x1fdf	cmp    	byte ptr [ecx + 0x19], 2
  0x1fe3	jb     	0x2040
  === BLOCK LINK ===
    0x1fe5
=== CODE BLOCK END ===

=== CODE BLOCK ADDRESS 0x1fe5 ===
  0x1fe5	dec    	eax
  0x1fe6	mov    	ecx, dword ptr [ecx + 0x10]
  0x1fe9	dec    	esp
  0x1fea	lea    	eax, [0x28e8]
  0x1ff0	mov    	edx, 0xb
  === BLOCK LINK ===
    0x1ff5
=== CODE BLOCK END ===

=== CODE BLOCK ADDRESS 0x1ff5 ===
  0x1ff5	inc    	esp
  0x1ff6	mov    	ecx, eax
  0x1ff8	call   	0x16e4
  === BLOCK LINK ===
    0x1ffd
=== CODE BLOCK END ===

=== CODE BLOCK ADDRESS 0x1ffd ===
  0x1ffd	jmp    	0x2040
  === BLOCK LINK ===
    0x1fff
=== CODE BLOCK END ===

=== CODE BLOCK ADDRESS 0x1fff ===
  0x1fff	inc    	ecx
  0x2000	mov    	esi, ebp
  0x2002	inc    	esp
  0x2003	cmp    	dword ptr [esp + 0x60], ebp
  0x2007	jbe    	0x203b
  === BLOCK LINK ===
    0x2009
=== CODE BLOCK END ===

=== CODE BLOCK ADDRESS 0x2009 ===
  0x2009	inc    	esp
  0x200a	mov    	esp, esi
  0x200c	dec    	eax
  0x200d	lea    	edx, [0x288d]
  0x2013	dec    	ebp
  === BLOCK LINK ===
    0x2014
=== CODE BLOCK END ===

=== CODE BLOCK ADDRESS 0x2014 ===
  0x2014	imul   	edi, esp, 0x88
  0x201a	dec    	ecx
  0x201b	mov    	ecx, dword ptr [edi + ebp + 0x20]
  0x201f	call   	0x3222
  === BLOCK LINK ===
    0x2024
=== CODE BLOCK END ===

=== CODE BLOCK ADDRESS 0x2024 ===
  0x2024	test   	eax, eax
  0x2026	jne    	0x2033
  === BLOCK LINK ===
    0x2028
=== CODE BLOCK END ===

=== CODE BLOCK ADDRESS 0x2028 ===
  0x2028	inc    	ecx
  0x2029	test   	dword ptr [edi + ebp + 0x68], 0x8000
  0x2031	je     	0x2057
  === BLOCK LINK ===
    0x2033
=== CODE BLOCK END ===

=== CODE BLOCK ADDRESS 0x2033 ===
  0x2033	inc    	esi
  0x2035	cmp    	esi, dword ptr [esp + 0x60]
  0x2039	jb     	0x2009
  === BLOCK LINK ===
    0x203b
=== CODE BLOCK END ===

=== CODE BLOCK ADDRESS 0x203b ===
  0x203b	mov    	ebx, 0xbc4
  0x2040	dec    	eax
  0x2041	mov    	ecx, ebp
  0x2043	call   	0x253c
  === BLOCK LINK ===
    0x2048
=== CODE BLOCK END ===

=== CODE BLOCK ADDRESS 0x2048 ===
  0x2048	test   	ebx, ebx
  0x204a	je     	0x210b
  === BLOCK LINK ===
    0x2050
=== CODE BLOCK END ===

=== CODE BLOCK ADDRESS 0x2050 ===
  0x2050	mov    	ecx, ebx
  0x2052	jmp    	0x1fba
  === BLOCK LINK ===
    0x2057
=== CODE BLOCK END ===

=== CODE BLOCK ADDRESS 0x2057 ===
  0x2057	xor    	edx, edx
  0x2059	inc    	ecx
  0x205a	mov    	eax, 0x618
  0x205f	dec    	eax
  0x2060	mov    	ecx, edi
  === BLOCK LINK ===
    0x2062
=== CODE BLOCK END ===

=== CODE BLOCK ADDRESS 0x2062 ===
  0x2062	call   	0x3216
  === BLOCK LINK ===
    0x2067
=== CODE BLOCK END ===

=== CODE BLOCK ADDRESS 0x2067 ===
  0x2067	dec    	ecx
  0x2068	imul   	eax, esp, 0x88
  0x206e	mov    	ecx, 0x30c
  0x2073	dec    	eax
  0x2074	mov    	edx, dword ptr [eax + ebp + 8]
  === BLOCK LINK ===
    0x2078
=== CODE BLOCK END ===

=== CODE BLOCK ADDRESS 0x2078 ===
  0x2078	dec    	eax
  0x2079	sub    	edx, edi
  0x207b	dec    	eax
  0x207c	lea    	eax, [ecx + 0x7ffffcf2]
  0x2082	dec    	eax
  === BLOCK LINK ===
    0x2083
=== CODE BLOCK END ===

=== CODE BLOCK ADDRESS 0x2083 ===
  0x2083	test   	eax, eax
  0x2085	je     	0x209d
  === BLOCK LINK ===
    0x2087
=== CODE BLOCK END ===

=== CODE BLOCK ADDRESS 0x2087 ===
  0x2087	movzx  	eax, word ptr [edx + edi]
  0x208b	test   	ax, ax
  0x208e	je     	0x209d
  === BLOCK LINK ===
    0x2090
=== CODE BLOCK END ===

=== CODE BLOCK ADDRESS 0x2090 ===
  0x2090	mov    	word ptr [edi], ax
  0x2093	dec    	eax
  0x2094	add    	edi, 2
  0x2097	dec    	eax
  0x2098	sub    	ecx, 1
  === BLOCK LINK ===
    0x209b
=== CODE BLOCK END ===

=== CODE BLOCK ADDRESS 0x209b ===
  0x209b	jne    	0x207b
  === BLOCK LINK ===
    0x209d
=== CODE BLOCK END ===

=== CODE BLOCK ADDRESS 0x209d ===
  0x209d	dec    	eax
  0x209e	lea    	eax, [edi - 2]
  0x20a1	dec    	eax
  0x20a2	test   	ecx, ecx
  0x20a4	dec    	eax
  === BLOCK LINK ===
    0x20a5
=== CODE BLOCK END ===

=== CODE BLOCK ADDRESS 0x20a5 ===
  0x20a5	cmovne  	eax, edi
  0x20a8	inc    	sp
  0x20aa	mov    	dword ptr [eax], ebp
  0x20ac	dec    	eax
  0x20ad	mov    	eax, ecx
  === BLOCK LINK ===
    0x20af
=== CODE BLOCK END ===

=== CODE BLOCK ADDRESS 0x20af ===
  0x20af	dec    	eax
  0x20b0	neg    	eax
  0x20b2	sbb    	edi, edi
  0x20b4	not    	edi
  0x20b6	and    	edi, 0x8007007a
  === BLOCK LINK ===
    0x20bc
=== CODE BLOCK END ===

=== CODE BLOCK ADDRESS 0x20bc ===
  0x20bc	dec    	eax
  0x20bd	test   	ecx, ecx
  0x20bf	jne    	0x2040
  === BLOCK LINK ===
    0x20c5
=== CODE BLOCK END ===

=== CODE BLOCK ADDRESS 0x20c5 ===
  0x20c5	dec    	eax
  0x20c6	mov    	ecx, dword ptr [0x3f34]
  0x20cc	dec    	eax
  0x20cd	lea    	eax, [0x3f2d]
  0x20d3	dec    	eax
  === BLOCK LINK ===
    0x20d4
=== CODE BLOCK END ===

=== CODE BLOCK ADDRESS 0x20d4 ===
  0x20d4	cmp    	ecx, eax
  0x20d6	je     	0x20f0
  === BLOCK LINK ===
    0x20d8
=== CODE BLOCK END ===

=== CODE BLOCK ADDRESS 0x20d8 ===
  0x20d8	test   	byte ptr [ecx + 0x1c], 2
  0x20dc	je     	0x20f0
  === BLOCK LINK ===
    0x20de
=== CODE BLOCK END ===

=== CODE BLOCK ADDRESS 0x20de ===
  0x20de	cmp    	byte ptr [ecx + 0x19], 2
  0x20e2	jb     	0x20f0
  === BLOCK LINK ===
    0x20e4
=== CODE BLOCK END ===

=== CODE BLOCK ADDRESS 0x20e4 ===
  0x20e4	dec    	eax
  0x20e5	mov    	ecx, dword ptr [ecx + 0x10]
  0x20e8	inc    	esp
  0x20e9	mov    	ecx, edi
  0x20eb	call   	0x1694
  === BLOCK LINK ===
    0x20f0
=== CODE BLOCK END ===

=== CODE BLOCK ADDRESS 0x20f0 ===
  0x20f0	mov    	ecx, edi
  0x20f2	movzx  	eax, di
  0x20f5	and    	ecx, 0x1fff0000
  0x20fb	mov    	ebx, edi
  0x20fd	cmp    	ecx, 0x70000
  === BLOCK LINK ===
    0x2103
=== CODE BLOCK END ===

=== CODE BLOCK ADDRESS 0x2103 ===
  0x2103	cmove  	ebx, eax
  0x2106	jmp    	0x2040
  === BLOCK LINK ===
    0x210b
=== CODE BLOCK END ===

=== CODE BLOCK ADDRESS 0x210b ===
  0x210b	mov    	eax, 1
  0x2110	dec    	eax
  0x2111	mov    	ebx, dword ptr [esp + 0x50]
  0x2115	dec    	eax
  0x2116	mov    	ebp, dword ptr [esp + 0x58]
  === BLOCK LINK ===
    0x211a
=== CODE BLOCK END ===

=== CODE BLOCK ADDRESS 0x211a ===
  0x211a	dec    	eax
  0x211b	add    	esp, 0x20
  0x211e	inc    	ecx
  0x211f	pop    	edi
  0x2120	inc    	ecx
  === BLOCK LINK ===
    0x2121
=== CODE BLOCK END ===

=== CODE BLOCK ADDRESS 0x2121 ===
  0x2121	pop    	ebp
  0x2122	inc    	ecx
  0x2123	pop    	esp
  0x2124	pop    	edi
  0x2125	pop    	esi
  === BLOCK LINK ===
    0x2126
=== CODE BLOCK END ===

=== CODE BLOCK ADDRESS 0x2126 ===
  0x2126	ret    	
  0x2127	int3   	
  0x2128	int3   	
  0x2129	int3   	
  0x212a	int3   	
  === BLOCK LINK ===
    0x212b
=== CODE BLOCK END ===

=== CODE BLOCK ADDRESS 0x11d0 ===
  0x11d0	test   	byte ptr [ebx], 0x10
  0x11d3	je     	0x1232
  === BLOCK LINK ===
    0x11d5
=== CODE BLOCK END ===

=== CODE BLOCK ADDRESS 0x212b ===
  0x212b	int3   	
  0x212c	int3   	
  0x212d	int3   	
  0x212e	int3   	
  0x212f	int3   	
  === BLOCK LINK ===
    0x2130
=== CODE BLOCK END ===

=== CODE BLOCK ADDRESS 0x2130 ===
  0x2130	dec    	eax
  0x2131	mov    	eax, esp
  0x2133	dec    	eax
  0x2134	mov    	dword ptr [eax + 8], ebx
  0x2137	dec    	eax
  === BLOCK LINK ===
    0x2138
=== CODE BLOCK END ===

=== CODE BLOCK ADDRESS 0x2138 ===
  0x2138	mov    	dword ptr [eax + 0x10], esi
  0x213b	dec    	eax
  0x213c	mov    	dword ptr [eax + 0x18], edi
  0x213f	dec    	esp
  0x2140	mov    	dword ptr [eax + 0x20], esp
  === BLOCK LINK ===
    0x2143
=== CODE BLOCK END ===

=== CODE BLOCK ADDRESS 0x2143 ===
  0x2143	push   	ebp
  0x2144	inc    	ecx
  0x2145	push   	esi
  0x2146	inc    	ecx
  0x2147	push   	edi
  === BLOCK LINK ===
    0x2148
=== CODE BLOCK END ===

=== CODE BLOCK ADDRESS 0x2148 ===
  0x2148	dec    	eax
  0x2149	lea    	ebp, [eax - 0x15a8]
  0x214f	mov    	eax, 0x1690
  0x2154	call   	0x3260
  === BLOCK LINK ===
    0x2159
=== CODE BLOCK END ===

=== CODE BLOCK ADDRESS 0x2159 ===
  0x2159	dec    	eax
  0x215a	sub    	esp, eax
  0x215c	dec    	eax
  0x215d	mov    	eax, dword ptr [0x3eb5]
  0x2163	dec    	eax
  === BLOCK LINK ===
    0x2164
=== CODE BLOCK END ===

=== CODE BLOCK ADDRESS 0x2164 ===
  0x2164	xor    	eax, esp
  0x2166	dec    	eax
  0x2167	mov    	dword ptr [ebp + 0x1580], eax
  0x216d	dec    	eax
  0x216e	and    	dword ptr [esp + 0x38], 0
  === BLOCK LINK ===
    0x2173
=== CODE BLOCK END ===

=== CODE BLOCK ADDRESS 0x2173 ===
  0x2173	dec    	eax
  0x2174	lea    	edi, [ebp + 0x580]
  0x217a	xor    	eax, eax
  0x217c	xorps  	xmm0, xmm0
  0x217f	dec    	eax
  === BLOCK LINK ===
    0x2180
=== CODE BLOCK END ===

=== CODE BLOCK ADDRESS 0x2180 ===
  0x2180	mov    	dword ptr [esp + 0x50], eax
  0x2184	mov    	esi, ecx
  0x2186	movups  	xmmword ptr [esp + 0x40], xmm0
  0x218b	dec    	eax
  0x218c	mov    	ecx, dword ptr [0x3e6e]
  === BLOCK LINK ===
    0x2192
=== CODE BLOCK END ===

=== CODE BLOCK ADDRESS 0x2192 ===
  0x2192	dec    	esp
  0x2193	lea    	edi, [0x3e67]
  0x2199	dec    	esp
  0x219a	lea    	esp, [0x2738]
  0x21a0	inc    	esp
  === BLOCK LINK ===
    0x21a1
=== CODE BLOCK END ===

=== CODE BLOCK ADDRESS 0x21a1 ===
  0x21a1	lea    	esi, [eax + 2]
  0x21a4	dec    	ecx
  0x21a5	cmp    	ecx, edi
  0x21a7	je     	0x21c4
  === BLOCK LINK ===
    0x21a9
=== CODE BLOCK END ===

=== CODE BLOCK ADDRESS 0x21a9 ===
  0x21a9	inc    	esp
  0x21aa	test   	byte ptr [ecx + 0x1c], dh
  0x21ad	je     	0x21c4
  === BLOCK LINK ===
    0x21af
=== CODE BLOCK END ===

=== CODE BLOCK ADDRESS 0x21af ===
  0x21af	cmp    	byte ptr [ecx + 0x19], 5
  0x21b3	jb     	0x21c4
  === BLOCK LINK ===
    0x21b5
=== CODE BLOCK END ===

=== CODE BLOCK ADDRESS 0x21b5 ===
  0x21b5	dec    	eax
  0x21b6	mov    	ecx, dword ptr [ecx + 0x10]
  0x21b9	lea    	edx, [eax + 0x35]
  0x21bc	dec    	ebp
  0x21bd	mov    	eax, esp
  === BLOCK LINK ===
    0x21bf
=== CODE BLOCK END ===

=== CODE BLOCK ADDRESS 0x21bf ===
  0x21bf	call   	0x1668
  === BLOCK LINK ===
    0x21c4
=== CODE BLOCK END ===

=== CODE BLOCK ADDRESS 0x21c4 ===
  0x21c4	dec    	eax
  0x21c5	lea    	ecx, [esp + 0x60]
  0x21c9	call   	0x1f2c
  === BLOCK LINK ===
    0x21ce
=== CODE BLOCK END ===

=== CODE BLOCK ADDRESS 0x21ce ===
  0x21ce	test   	eax, eax
  0x21d0	jne    	0x221d
  === BLOCK LINK ===
    0x21d2
=== CODE BLOCK END ===

=== CODE BLOCK ADDRESS 0x21d2 ===
  0x21d2	dec    	eax
  0x21d3	call   	dword ptr [0x202f]
  === BLOCK LINK ===
    0x21d9
=== CODE BLOCK END ===

=== CODE BLOCK ADDRESS 0x21d9 ===
  0x21d9	nop    	dword ptr [eax + eax]
  0x21de	mov    	ebx, eax
  0x21e0	dec    	eax
  0x21e1	mov    	ecx, dword ptr [0x3e19]
  0x21e7	dec    	ecx
  === BLOCK LINK ===
    0x21e8
=== CODE BLOCK END ===

=== CODE BLOCK ADDRESS 0x21e8 ===
  0x21e8	cmp    	ecx, edi
  0x21ea	je     	0x2447
  === BLOCK LINK ===
    0x21f0
=== CODE BLOCK END ===

=== CODE BLOCK ADDRESS 0x21f0 ===
  0x21f0	inc    	esp
  0x21f1	test   	byte ptr [ecx + 0x1c], dh
  0x21f4	je     	0x2447
  === BLOCK LINK ===
    0x21fa
=== CODE BLOCK END ===

=== CODE BLOCK ADDRESS 0x21fa ===
  0x21fa	inc    	esp
  0x21fb	cmp    	byte ptr [ecx + 0x19], dh
  0x21fe	jb     	0x2447
  === BLOCK LINK ===
    0x2204
=== CODE BLOCK END ===

=== CODE BLOCK ADDRESS 0x2204 ===
  0x2204	mov    	edx, 0x36
  0x2209	dec    	eax
  0x220a	mov    	ecx, dword ptr [ecx + 0x10]
  0x220d	inc    	esp
  0x220e	mov    	ecx, ebx
  === BLOCK LINK ===
    0x2210
=== CODE BLOCK END ===

=== CODE BLOCK ADDRESS 0x2210 ===
  0x2210	dec    	ebp
  0x2211	mov    	eax, esp
  0x2213	call   	0x16e4
  === BLOCK LINK ===
    0x2218
=== CODE BLOCK END ===

=== CODE BLOCK ADDRESS 0x2218 ===
  0x2218	jmp    	0x2447
  === BLOCK LINK ===
    0x221d
=== CODE BLOCK END ===

=== CODE BLOCK ADDRESS 0x221d ===
  0x221d	dec    	esp
  0x221e	lea    	eax, [esp + 0x40]
  0x2222	mov    	dword ptr [esp + 0x50], 0xf000c
  0x222a	dec    	eax
  0x222b	lea    	edx, [esp + 0x38]
  === BLOCK LINK ===
    0x222f
=== CODE BLOCK END ===

=== CODE BLOCK ADDRESS 0x222f ===
  0x222f	dec    	eax
  0x2230	lea    	ecx, [esp + 0x60]
  0x2234	dec    	eax
  0x2235	call   	dword ptr [0x2045]
  === BLOCK LINK ===
    0x223b
=== CODE BLOCK END ===

=== CODE BLOCK ADDRESS 0x223b ===
  0x223b	nop    	dword ptr [eax + eax]
  0x2240	test   	eax, eax
  0x2242	jne    	0x227d
  === BLOCK LINK ===
    0x2244
=== CODE BLOCK END ===

=== CODE BLOCK ADDRESS 0x2244 ===
  0x2244	dec    	eax
  0x2245	call   	dword ptr [0x1fbd]
  === BLOCK LINK ===
    0x224b
=== CODE BLOCK END ===

=== CODE BLOCK ADDRESS 0x224b ===
  0x224b	nop    	dword ptr [eax + eax]
  0x2250	mov    	ebx, eax
  0x2252	dec    	eax
  0x2253	mov    	ecx, dword ptr [0x3da7]
  0x2259	dec    	ecx
  === BLOCK LINK ===
    0x225a
=== CODE BLOCK END ===

=== CODE BLOCK ADDRESS 0x225a ===
  0x225a	cmp    	ecx, edi
  0x225c	je     	0x2447
  === BLOCK LINK ===
    0x2262
=== CODE BLOCK END ===

=== CODE BLOCK ADDRESS 0x2262 ===
  0x2262	inc    	esp
  0x2263	test   	byte ptr [ecx + 0x1c], dh
  0x2266	je     	0x2447
  === BLOCK LINK ===
    0x226c
=== CODE BLOCK END ===

=== CODE BLOCK ADDRESS 0x226c ===
  0x226c	inc    	esp
  0x226d	cmp    	byte ptr [ecx + 0x19], dh
  0x2270	jb     	0x2447
  === BLOCK LINK ===
    0x2276
=== CODE BLOCK END ===

=== CODE BLOCK ADDRESS 0x2276 ===
  0x2276	mov    	edx, 0x37
  0x227b	jmp    	0x2209
  === BLOCK LINK ===
    0x227d
=== CODE BLOCK END ===

=== CODE BLOCK ADDRESS 0x227d ===
  0x227d	dec    	eax
  0x227e	mov    	ecx, dword ptr [esp + 0x38]
  0x2282	dec    	eax
  0x2283	lea    	eax, [esp + 0x30]
  0x2287	inc    	ecx
  === BLOCK LINK ===
    0x2288
=== CODE BLOCK END ===

=== CODE BLOCK ADDRESS 0x2288 ===
  0x2288	mov    	ecx, 0x1000
  0x228d	dec    	eax
  0x228e	mov    	dword ptr [esp + 0x20], eax
  0x2292	dec    	esp
  0x2293	lea    	eax, [ebp + 0x580]
  === BLOCK LINK ===
    0x2299
=== CODE BLOCK END ===

=== CODE BLOCK ADDRESS 0x2299 ===
  0x2299	inc    	ecx
  0x229a	mov    	edx, esi
  0x229c	dec    	eax
  0x229d	call   	dword ptr [0x1fcd]
  === BLOCK LINK ===
    0x22a3
=== CODE BLOCK END ===

=== CODE BLOCK ADDRESS 0x22a3 ===
  0x22a3	nop    	dword ptr [eax + eax]
  0x22a8	test   	eax, eax
  0x22aa	jne    	0x23a4
  === BLOCK LINK ===
    0x22b0
=== CODE BLOCK END ===

=== CODE BLOCK ADDRESS 0x22b0 ===
  0x22b0	dec    	eax
  0x22b1	call   	dword ptr [0x1f51]
  === BLOCK LINK ===
    0x22b7
=== CODE BLOCK END ===

=== CODE BLOCK ADDRESS 0x22b7 ===
  0x22b7	nop    	dword ptr [eax + eax]
  0x22bc	mov    	ebx, eax
  0x22be	cmp    	eax, 0x7a
  0x22c1	je     	0x22f1
  === BLOCK LINK ===
    0x22c3
=== CODE BLOCK END ===

=== CODE BLOCK ADDRESS 0x22c3 ===
  0x22c3	dec    	eax
  0x22c4	mov    	ecx, dword ptr [0x3d36]
  0x22ca	dec    	ecx
  0x22cb	cmp    	ecx, edi
  0x22cd	je     	0x241d
  === BLOCK LINK ===
    0x22d3
=== CODE BLOCK END ===

=== CODE BLOCK ADDRESS 0x22d3 ===
  0x22d3	inc    	esp
  0x22d4	test   	byte ptr [ecx + 0x1c], dh
  0x22d7	je     	0x241d
  === BLOCK LINK ===
    0x22dd
=== CODE BLOCK END ===

=== CODE BLOCK ADDRESS 0x22dd ===
  0x22dd	inc    	esp
  0x22de	cmp    	byte ptr [ecx + 0x19], dh
  0x22e1	jb     	0x241d
  === BLOCK LINK ===
    0x22e7
=== CODE BLOCK END ===

=== CODE BLOCK ADDRESS 0x22e7 ===
  0x22e7	mov    	edx, 0x38
  0x22ec	jmp    	0x240e
  === BLOCK LINK ===
    0x22f1
=== CODE BLOCK END ===

=== CODE BLOCK ADDRESS 0x22f1 ===
  0x22f1	mov    	ecx, dword ptr [esp + 0x30]
  0x22f5	call   	0x2480
  === BLOCK LINK ===
    0x22fa
=== CODE BLOCK END ===

=== CODE BLOCK ADDRESS 0x22fa ===
  0x22fa	dec    	eax
  0x22fb	mov    	edi, eax
  0x22fd	dec    	eax
  0x22fe	test   	eax, eax
  0x2300	jne    	0x2341
  === BLOCK LINK ===
    0x2302
=== CODE BLOCK END ===

=== CODE BLOCK ADDRESS 0x2302 ===
  0x2302	dec    	eax
  0x2303	call   	dword ptr [0x1eff]
  === BLOCK LINK ===
    0x2309
=== CODE BLOCK END ===

=== CODE BLOCK ADDRESS 0x2309 ===
  0x2309	nop    	dword ptr [eax + eax]
  0x230e	mov    	ebx, eax
  0x2310	dec    	eax
  0x2311	mov    	ecx, dword ptr [0x3ce9]
  0x2317	dec    	ecx
  === BLOCK LINK ===
    0x2318
=== CODE BLOCK END ===

=== CODE BLOCK ADDRESS 0x2318 ===
  0x2318	cmp    	ecx, edi
  0x231a	je     	0x241d
  === BLOCK LINK ===
    0x2320
=== CODE BLOCK END ===

=== CODE BLOCK ADDRESS 0x2320 ===
  0x2320	inc    	esp
  0x2321	test   	byte ptr [ecx + 0x1c], dh
  0x2324	je     	0x241d
  === BLOCK LINK ===
    0x232a
=== CODE BLOCK END ===

=== CODE BLOCK ADDRESS 0x232a ===
  0x232a	inc    	esp
  0x232b	cmp    	byte ptr [ecx + 0x19], dh
  0x232e	jb     	0x241d
  === BLOCK LINK ===
    0x2334
=== CODE BLOCK END ===

=== CODE BLOCK ADDRESS 0x2334 ===
  0x2334	inc    	esp
  0x2335	mov    	ecx, dword ptr [esp + 0x30]
  0x2339	lea    	edx, [edi + 0x39]
  0x233c	jmp    	0x2411
  === BLOCK LINK ===
    0x2341
=== CODE BLOCK END ===

=== CODE BLOCK ADDRESS 0x2341 ===
  0x2341	inc    	esp
  0x2342	mov    	ecx, dword ptr [esp + 0x30]
  0x2346	dec    	eax
  0x2347	lea    	eax, [esp + 0x30]
  0x234b	dec    	eax
  === BLOCK LINK ===
    0x234c
=== CODE BLOCK END ===

=== CODE BLOCK ADDRESS 0x234c ===
  0x234c	mov    	ecx, dword ptr [esp + 0x38]
  0x2350	dec    	esp
  0x2351	mov    	eax, edi
  0x2353	inc    	ecx
  0x2354	mov    	edx, esi
  === BLOCK LINK ===
    0x2356
=== CODE BLOCK END ===

=== CODE BLOCK ADDRESS 0x2356 ===
  0x2356	dec    	eax
  0x2357	mov    	dword ptr [esp + 0x20], eax
  0x235b	dec    	eax
  0x235c	call   	dword ptr [0x1f0e]
  === BLOCK LINK ===
    0x2362
=== CODE BLOCK END ===

=== CODE BLOCK ADDRESS 0x2362 ===
  0x2362	nop    	dword ptr [eax + eax]
  0x2367	test   	eax, eax
  0x2369	jne    	0x23a4
  === BLOCK LINK ===
    0x236b
=== CODE BLOCK END ===

=== CODE BLOCK ADDRESS 0x236b ===
  0x236b	dec    	eax
  0x236c	call   	dword ptr [0x1e96]
  === BLOCK LINK ===
    0x2372
=== CODE BLOCK END ===

=== CODE BLOCK ADDRESS 0x2372 ===
  0x2372	nop    	dword ptr [eax + eax]
  0x2377	mov    	ebx, eax
  0x2379	dec    	eax
  0x237a	mov    	ecx, dword ptr [0x3c80]
  0x2380	dec    	ecx
  === BLOCK LINK ===
    0x2381
=== CODE BLOCK END ===

=== CODE BLOCK ADDRESS 0x2381 ===
  0x2381	cmp    	ecx, edi
  0x2383	je     	0x241d
  === BLOCK LINK ===
    0x2389
=== CODE BLOCK END ===

=== CODE BLOCK ADDRESS 0x2389 ===
  0x2389	inc    	esp
  0x238a	test   	byte ptr [ecx + 0x1c], dh
  0x238d	je     	0x241d
  === BLOCK LINK ===
    0x2393
=== CODE BLOCK END ===

=== CODE BLOCK ADDRESS 0x2393 ===
  0x2393	inc    	esp
  0x2394	cmp    	byte ptr [ecx + 0x19], dh
  0x2397	jb     	0x241d
  === BLOCK LINK ===
    0x239d
=== CODE BLOCK END ===

=== CODE BLOCK ADDRESS 0x239d ===
  0x239d	mov    	edx, 0x3a
  0x23a2	jmp    	0x240e
  === BLOCK LINK ===
    0x23a4
=== CODE BLOCK END ===

=== CODE BLOCK ADDRESS 0x23a4 ===
  0x23a4	mov    	eax, dword ptr [edi + 0x68]
  0x23a7	xor    	ebx, ebx
  0x23a9	mov    	ecx, eax
  0x23ab	and    	ecx, 8
  0x23ae	test   	esi, esi
  === BLOCK LINK ===
    0x23b0
=== CODE BLOCK END ===

=== CODE BLOCK ADDRESS 0x23b0 ===
  0x23b0	je     	0x23bb
  === BLOCK LINK ===
    0x23b2
=== CODE BLOCK END ===

=== CODE BLOCK ADDRESS 0x23b2 ===
  0x23b2	test   	ecx, ecx
  0x23b4	jne    	0x241d
  === BLOCK LINK ===
    0x23b6
=== CODE BLOCK END ===

=== CODE BLOCK ADDRESS 0x23b6 ===
  0x23b6	or     	eax, 8
  0x23b9	jmp    	0x23c2
  === BLOCK LINK ===
    0x23bb
=== CODE BLOCK END ===

=== CODE BLOCK ADDRESS 0x23bb ===
  0x23bb	test   	ecx, ecx
  0x23bd	je     	0x241d
  === BLOCK LINK ===
    0x23bf
=== CODE BLOCK END ===

=== CODE BLOCK ADDRESS 0x23bf ===
  0x23bf	and    	eax, 0xfffffff7
  0x23c2	mov    	dword ptr [edi + 0x68], eax
  0x23c5	inc    	ebp
  0x23c6	xor    	ecx, ecx
  0x23c8	dec    	eax
  === BLOCK LINK ===
    0x23c9
=== CODE BLOCK END ===

=== CODE BLOCK ADDRESS 0x23c9 ===
  0x23c9	mov    	ecx, dword ptr [esp + 0x38]
  0x23cd	dec    	esp
  0x23ce	mov    	eax, edi
  0x23d0	inc    	ecx
  0x23d1	mov    	edx, esi
  === BLOCK LINK ===
    0x23d3
=== CODE BLOCK END ===

=== CODE BLOCK ADDRESS 0x23d3 ===
  0x23d3	dec    	eax
  0x23d4	call   	dword ptr [0x1e9e]
  === BLOCK LINK ===
    0x23da
=== CODE BLOCK END ===

=== CODE BLOCK ADDRESS 0x23da ===
  0x23da	nop    	dword ptr [eax + eax]
  0x23df	test   	eax, eax
  0x23e1	jne    	0x241d
  === BLOCK LINK ===
    0x23e3
=== CODE BLOCK END ===

=== CODE BLOCK ADDRESS 0x23e3 ===
  0x23e3	dec    	eax
  0x23e4	call   	dword ptr [0x1e1e]
  === BLOCK LINK ===
    0x23ea
=== CODE BLOCK END ===

=== CODE BLOCK ADDRESS 0x23ea ===
  0x23ea	nop    	dword ptr [eax + eax]
  0x23ef	mov    	ebx, eax
  0x23f1	dec    	eax
  0x23f2	mov    	ecx, dword ptr [0x3c08]
  0x23f8	dec    	ecx
  === BLOCK LINK ===
    0x23f9
=== CODE BLOCK END ===

=== CODE BLOCK ADDRESS 0x23f9 ===
  0x23f9	cmp    	ecx, edi
  0x23fb	je     	0x241d
  === BLOCK LINK ===
    0x23fd
=== CODE BLOCK END ===

=== CODE BLOCK ADDRESS 0x23fd ===
  0x23fd	inc    	esp
  0x23fe	test   	byte ptr [ecx + 0x1c], dh
  0x2401	je     	0x241d
  === BLOCK LINK ===
    0x2403
=== CODE BLOCK END ===

=== CODE BLOCK ADDRESS 0x2403 ===
  0x2403	inc    	esp
  0x2404	cmp    	byte ptr [ecx + 0x19], dh
  0x2407	jb     	0x241d
  === BLOCK LINK ===
    0x2409
=== CODE BLOCK END ===

=== CODE BLOCK ADDRESS 0x2409 ===
  0x2409	mov    	edx, 0x3b
  0x240e	inc    	esp
  0x240f	mov    	ecx, eax
  0x2411	dec    	eax
  0x2412	mov    	ecx, dword ptr [ecx + 0x10]
  === BLOCK LINK ===
    0x2415
=== CODE BLOCK END ===

=== CODE BLOCK ADDRESS 0x2415 ===
  0x2415	dec    	ebp
  0x2416	mov    	eax, esp
  0x2418	call   	0x16e4
  === BLOCK LINK ===
    0x241d
=== CODE BLOCK END ===

=== CODE BLOCK ADDRESS 0x241d ===
  0x241d	dec    	eax
  0x241e	mov    	ecx, dword ptr [esp + 0x38]
  0x2422	dec    	eax
  0x2423	test   	ecx, ecx
  0x2425	je     	0x2433
  === BLOCK LINK ===
    0x2427
=== CODE BLOCK END ===

=== CODE BLOCK ADDRESS 0x2427 ===
  0x2427	dec    	eax
  0x2428	call   	dword ptr [0x1e3a]
  === BLOCK LINK ===
    0x242e
=== CODE BLOCK END ===

=== CODE BLOCK ADDRESS 0x242e ===
  0x242e	nop    	dword ptr [eax + eax]
  0x2433	dec    	eax
  0x2434	lea    	eax, [ebp + 0x580]
  0x243a	dec    	eax
  0x243b	cmp    	edi, eax
  === BLOCK LINK ===
    0x243d
=== CODE BLOCK END ===

=== CODE BLOCK ADDRESS 0x243d ===
  0x243d	je     	0x2447
  === BLOCK LINK ===
    0x243f
=== CODE BLOCK END ===

=== CODE BLOCK ADDRESS 0x243f ===
  0x243f	dec    	eax
  0x2440	mov    	ecx, edi
  0x2442	call   	0x253c
  === BLOCK LINK ===
    0x2447
=== CODE BLOCK END ===

=== CODE BLOCK ADDRESS 0x2447 ===
  0x2447	mov    	eax, ebx
  0x2449	dec    	eax
  0x244a	mov    	ecx, dword ptr [ebp + 0x1580]
  0x2450	dec    	eax
  0x2451	xor    	ecx, esp
  === BLOCK LINK ===
    0x2453
=== CODE BLOCK END ===

=== CODE BLOCK ADDRESS 0x2453 ===
  0x2453	call   	0x2b80
  === BLOCK LINK ===
    0x2458
=== CODE BLOCK END ===

=== CODE BLOCK ADDRESS 0x2458 ===
  0x2458	dec    	esp
  0x2459	lea    	ebx, [esp + 0x1690]
  0x2460	dec    	ecx
  0x2461	mov    	ebx, dword ptr [ebx + 0x20]
  0x2464	dec    	ecx
  === BLOCK LINK ===
    0x2465
=== CODE BLOCK END ===

=== CODE BLOCK ADDRESS 0x2465 ===
  0x2465	mov    	esi, dword ptr [ebx + 0x28]
  0x2468	dec    	ecx
  0x2469	mov    	edi, dword ptr [ebx + 0x30]
  0x246c	dec    	ebp
  0x246d	mov    	esp, dword ptr [ebx + 0x38]
  === BLOCK LINK ===
    0x2470
=== CODE BLOCK END ===

=== CODE BLOCK ADDRESS 0x2470 ===
  0x2470	dec    	ecx
  0x2471	mov    	esp, ebx
  0x2473	inc    	ecx
  0x2474	pop    	edi
  0x2475	inc    	ecx
  === BLOCK LINK ===
    0x2476
=== CODE BLOCK END ===

=== CODE BLOCK ADDRESS 0x2476 ===
  0x2476	pop    	esi
  0x2477	pop    	ebp
  0x2478	ret    	
  0x2479	int3   	
  0x247a	int3   	
  === BLOCK LINK ===
    0x247b
=== CODE BLOCK END ===

=== CODE BLOCK ADDRESS 0x247b ===
  0x247b	int3   	
  0x247c	int3   	
  0x247d	int3   	
  0x247e	int3   	
  0x247f	int3   	
  === BLOCK LINK ===
    0x2480
=== CODE BLOCK END ===

=== CODE BLOCK ADDRESS 0x2480 ===
  0x2480	dec    	eax
  0x2481	mov    	dword ptr [esp + 8], ebx
  0x2485	push   	edi
  0x2486	dec    	eax
  0x2487	sub    	esp, 0x20
  === BLOCK LINK ===
    0x248a
=== CODE BLOCK END ===

=== CODE BLOCK ADDRESS 0x248a ===
  0x248a	dec    	eax
  0x248b	mov    	eax, dword ptr [0x4167]
  0x2491	dec    	eax
  0x2492	mov    	edi, ecx
  0x2494	dec    	eax
  === BLOCK LINK ===
    0x2495
=== CODE BLOCK END ===

=== CODE BLOCK ADDRESS 0x2495 ===
  0x2495	test   	eax, eax
  0x2497	je     	0x24a1
  === BLOCK LINK ===
    0x2499
=== CODE BLOCK END ===

=== CODE BLOCK ADDRESS 0x2499 ===
  0x2499	call   	dword ptr [0x1e89]
  === BLOCK LINK ===
    0x249f
=== CODE BLOCK END ===

=== CODE BLOCK ADDRESS 0x249f ===
  0x249f	jmp    	0x24ff
  === BLOCK LINK ===
    0x24a1
=== CODE BLOCK END ===

=== CODE BLOCK ADDRESS 0x24a1 ===
  0x24a1	dec    	eax
  0x24a2	mov    	eax, dword ptr [0x4158]
  0x24a8	dec    	eax
  0x24a9	test   	eax, eax
  0x24ab	jne    	0x24e8
  === BLOCK LINK ===
    0x24ad
=== CODE BLOCK END ===

=== CODE BLOCK ADDRESS 0x24ad ===
  0x24ad	dec    	eax
  0x24ae	call   	dword ptr [0x1ce4]
  === BLOCK LINK ===
    0x24b4
=== CODE BLOCK END ===

=== CODE BLOCK ADDRESS 0x24b4 ===
  0x24b4	nop    	dword ptr [eax + eax]
  0x24b9	dec    	eax
  0x24ba	and    	dword ptr [0x4137], 0
  0x24c1	dec    	eax
  0x24c2	and    	dword ptr [0x4127], 0
  === BLOCK LINK ===
    0x24c9
=== CODE BLOCK END ===

=== CODE BLOCK ADDRESS 0x24c9 ===
  0x24c9	dec    	eax
  0x24ca	test   	eax, eax
  0x24cc	jne    	0x24e1
  === BLOCK LINK ===
    0x24ce
=== CODE BLOCK END ===

=== CODE BLOCK ADDRESS 0x24ce ===
  0x24ce	lea    	ecx, [eax + 6]
  0x24d1	dec    	eax
  0x24d2	call   	dword ptr [0x1cf8]
  === BLOCK LINK ===
    0x24d8
=== CODE BLOCK END ===

=== CODE BLOCK ADDRESS 0x24d8 ===
  0x24d8	nop    	dword ptr [eax + eax]
  0x24dd	xor    	eax, eax
  0x24df	jmp    	0x2528
  === BLOCK LINK ===
    0x24e1
=== CODE BLOCK END ===

=== CODE BLOCK ADDRESS 0x24e1 ===
  0x24e1	dec    	eax
  0x24e2	mov    	dword ptr [0x4118], eax
  0x24e8	dec    	esp
  0x24e9	mov    	eax, edi
  0x24eb	mov    	edx, 8
  === BLOCK LINK ===
    0x24f0
=== CODE BLOCK END ===

=== CODE BLOCK ADDRESS 0x24f0 ===
  0x24f0	dec    	eax
  0x24f1	mov    	ecx, eax
  0x24f3	dec    	eax
  0x24f4	call   	dword ptr [0x1ca6]
  === BLOCK LINK ===
    0x24fa
=== CODE BLOCK END ===

=== CODE BLOCK ADDRESS 0x24fa ===
  0x24fa	nop    	dword ptr [eax + eax]
  0x24ff	dec    	eax
  0x2500	mov    	ebx, eax
  0x2502	dec    	eax
  0x2503	test   	eax, eax
  === BLOCK LINK ===
    0x2505
=== CODE BLOCK END ===

=== CODE BLOCK ADDRESS 0x2505 ===
  0x2505	jne    	0x2525
  === BLOCK LINK ===
    0x2507
=== CODE BLOCK END ===

=== CODE BLOCK ADDRESS 0x2507 ===
  0x2507	dec    	eax
  0x2508	mov    	edx, edi
  0x250a	dec    	eax
  0x250b	lea    	ecx, [0x23d7]
  0x2511	call   	0x2580
  === BLOCK LINK ===
    0x2516
=== CODE BLOCK END ===

=== CODE BLOCK ADDRESS 0x2516 ===
  0x2516	lea    	ecx, [ebx + 8]
  0x2519	dec    	eax
  0x251a	call   	dword ptr [0x1cb0]
  === BLOCK LINK ===
    0x2520
=== CODE BLOCK END ===

=== CODE BLOCK ADDRESS 0x2520 ===
  0x2520	nop    	dword ptr [eax + eax]
  0x2525	dec    	eax
  0x2526	mov    	eax, ebx
  0x2528	dec    	eax
  0x2529	mov    	ebx, dword ptr [esp + 0x30]
  === BLOCK LINK ===
    0x252d
=== CODE BLOCK END ===

=== CODE BLOCK ADDRESS 0x252d ===
  0x252d	dec    	eax
  0x252e	add    	esp, 0x20
  0x2531	pop    	edi
  0x2532	ret    	
  0x2533	int3   	
  === BLOCK LINK ===
    0x2534
=== CODE BLOCK END ===

=== CODE BLOCK ADDRESS 0x1232 ===
  0x1232	test   	byte ptr [ebx], 4
  0x1235	je     	0x1291
  === BLOCK LINK ===
    0x1237
=== CODE BLOCK END ===

=== CODE BLOCK ADDRESS 0x2534 ===
  0x2534	int3   	
  0x2535	int3   	
  0x2536	int3   	
  0x2537	int3   	
  0x2538	int3   	
  === BLOCK LINK ===
    0x2539
=== CODE BLOCK END ===

=== CODE BLOCK ADDRESS 0x2539 ===
  0x2539	int3   	
  0x253a	int3   	
  0x253b	int3   	
  0x253c	dec    	eax
  0x253d	sub    	esp, 0x28
  === BLOCK LINK ===
    0x2540
=== CODE BLOCK END ===

=== CODE BLOCK ADDRESS 0x2540 ===
  0x2540	dec    	eax
  0x2541	test   	ecx, ecx
  0x2543	je     	0x2574
  === BLOCK LINK ===
    0x2545
=== CODE BLOCK END ===

=== CODE BLOCK ADDRESS 0x2545 ===
  0x2545	dec    	eax
  0x2546	mov    	eax, dword ptr [0x40a4]
  0x254c	dec    	eax
  0x254d	test   	eax, eax
  0x254f	je     	0x255c
  === BLOCK LINK ===
    0x2551
=== CODE BLOCK END ===

=== CODE BLOCK ADDRESS 0x2551 ===
  0x2551	dec    	eax
  0x2552	add    	esp, 0x28
  0x2555	dec    	eax
  0x2556	jmp    	dword ptr [0x1dcc]
  === BLOCK LINK ===
    0x255c
=== CODE BLOCK END ===

=== CODE BLOCK ADDRESS 0x255c ===
  0x255c	dec    	esp
  0x255d	mov    	eax, ecx
  0x255f	xor    	edx, edx
  0x2561	dec    	eax
  0x2562	mov    	ecx, dword ptr [0x4098]
  === BLOCK LINK ===
    0x2568
=== CODE BLOCK END ===

=== CODE BLOCK ADDRESS 0x2568 ===
  0x2568	dec    	eax
  0x2569	call   	dword ptr [0x1c39]
  === BLOCK LINK ===
    0x256f
=== CODE BLOCK END ===

=== CODE BLOCK ADDRESS 0x256f ===
  0x256f	nop    	dword ptr [eax + eax]
  0x2574	dec    	eax
  0x2575	add    	esp, 0x28
  0x2578	ret    	
  0x2579	int3   	
  === BLOCK LINK ===
    0x257a
=== CODE BLOCK END ===

=== CODE BLOCK ADDRESS 0x257a ===
  0x257a	int3   	
  0x257b	int3   	
  0x257c	int3   	
  0x257d	int3   	
  0x257e	int3   	
  === BLOCK LINK ===
    0x257f
=== CODE BLOCK END ===

=== CODE BLOCK ADDRESS 0x257f ===
  0x257f	int3   	
  0x2580	dec    	eax
  0x2581	mov    	eax, esp
  0x2583	dec    	eax
  0x2584	mov    	dword ptr [eax + 8], ecx
  === BLOCK LINK ===
    0x2587
=== CODE BLOCK END ===

=== CODE BLOCK ADDRESS 0x2587 ===
  0x2587	dec    	eax
  0x2588	mov    	dword ptr [eax + 0x10], edx
  0x258b	dec    	esp
  0x258c	mov    	dword ptr [eax + 0x18], eax
  0x258f	dec    	esp
  === BLOCK LINK ===
    0x2590
=== CODE BLOCK END ===

=== CODE BLOCK ADDRESS 0x2590 ===
  0x2590	mov    	dword ptr [eax + 0x20], ecx
  0x2593	push   	ebp
  0x2594	push   	ebx
  0x2595	push   	edi
  0x2596	dec    	eax
  === BLOCK LINK ===
    0x2597
=== CODE BLOCK END ===

=== CODE BLOCK ADDRESS 0x2597 ===
  0x2597	lea    	ebp, [eax - 0x778]
  0x259d	dec    	eax
  0x259e	sub    	esp, 0x860
  0x25a4	dec    	eax
  0x25a5	mov    	eax, dword ptr [0x3a6d]
  === BLOCK LINK ===
    0x25ab
=== CODE BLOCK END ===

=== CODE BLOCK ADDRESS 0x25ab ===
  0x25ab	dec    	eax
  0x25ac	xor    	eax, esp
  0x25ae	dec    	eax
  0x25af	mov    	dword ptr [ebp + 0x750], eax
  0x25b5	dec    	eax
  === BLOCK LINK ===
    0x25b6
=== CODE BLOCK END ===

=== CODE BLOCK ADDRESS 0x25b6 ===
  0x25b6	mov    	ebx, ecx
  0x25b8	xor    	edx, edx
  0x25ba	dec    	eax
  0x25bb	lea    	ecx, [esp + 0x50]
  0x25bf	inc    	ecx
  === BLOCK LINK ===
    0x25c0
=== CODE BLOCK END ===

=== CODE BLOCK ADDRESS 0x25c0 ===
  0x25c0	mov    	eax, 0x800
  0x25c5	call   	0x3216
  === BLOCK LINK ===
    0x25ca
=== CODE BLOCK END ===

=== CODE BLOCK ADDRESS 0x25ca ===
  0x25ca	xor    	edi, edi
  0x25cc	cmp    	dword ptr [0x4036], edi
  0x25d2	jne    	0x2686
  === BLOCK LINK ===
    0x25d8
=== CODE BLOCK END ===

=== CODE BLOCK ADDRESS 0x25d8 ===
  0x25d8	dec    	eax
  0x25d9	lea    	eax, [esp + 0x40]
  0x25dd	inc    	ecx
  0x25de	mov    	ecx, 0x20019
  0x25e3	inc    	ebp
  === BLOCK LINK ===
    0x25e4
=== CODE BLOCK END ===

=== CODE BLOCK ADDRESS 0x25e4 ===
  0x25e4	xor    	eax, eax
  0x25e6	dec    	eax
  0x25e7	mov    	dword ptr [esp + 0x20], eax
  0x25eb	dec    	eax
  0x25ec	lea    	edx, [0x232e]
  === BLOCK LINK ===
    0x25f2
=== CODE BLOCK END ===

=== CODE BLOCK ADDRESS 0x25f2 ===
  0x25f2	dec    	eax
  0x25f3	mov    	ecx, 0x80000002
  0x25f9	dec    	eax
  0x25fa	call   	dword ptr [0x1b50]
  === BLOCK LINK ===
    0x2600
=== CODE BLOCK END ===

=== CODE BLOCK ADDRESS 0x2600 ===
  0x2600	nop    	dword ptr [eax + eax]
  0x2605	test   	eax, eax
  0x2607	je     	0x260d
  === BLOCK LINK ===
    0x2609
=== CODE BLOCK END ===

=== CODE BLOCK ADDRESS 0x2609 ===
  0x2609	mov    	eax, edi
  0x260b	jmp    	0x266d
  === BLOCK LINK ===
    0x260d
=== CODE BLOCK END ===

=== CODE BLOCK ADDRESS 0x260d ===
  0x260d	dec    	eax
  0x260e	mov    	ecx, dword ptr [esp + 0x40]
  0x2612	dec    	eax
  0x2613	lea    	eax, [esp + 0x34]
  0x2617	dec    	eax
  === BLOCK LINK ===
    0x2618
=== CODE BLOCK END ===

=== CODE BLOCK ADDRESS 0x2618 ===
  0x2618	mov    	dword ptr [esp + 0x28], eax
  0x261c	dec    	esp
  0x261d	lea    	ecx, [esp + 0x38]
  0x2621	dec    	eax
  0x2622	lea    	eax, [esp + 0x30]
  === BLOCK LINK ===
    0x2626
=== CODE BLOCK END ===

=== CODE BLOCK ADDRESS 0x2626 ===
  0x2626	mov    	dword ptr [esp + 0x34], 4
  0x262e	inc    	ebp
  0x262f	xor    	eax, eax
  0x2631	dec    	eax
  0x2632	mov    	dword ptr [esp + 0x20], eax
  === BLOCK LINK ===
    0x2636
=== CODE BLOCK END ===

=== CODE BLOCK ADDRESS 0x2636 ===
  0x2636	dec    	eax
  0x2637	lea    	edx, [0x2323]
  0x263d	dec    	eax
  0x263e	call   	dword ptr [0x1ae4]
  === BLOCK LINK ===
    0x2644
=== CODE BLOCK END ===

=== CODE BLOCK ADDRESS 0x2644 ===
  0x2644	nop    	dword ptr [eax + eax]
  0x2649	test   	eax, eax
  0x264b	jne    	0x2654
  === BLOCK LINK ===
    0x264d
=== CODE BLOCK END ===

=== CODE BLOCK ADDRESS 0x264d ===
  0x264d	cmp    	dword ptr [esp + 0x38], 4
  0x2652	je     	0x2658
  === BLOCK LINK ===
    0x2654
=== CODE BLOCK END ===

=== CODE BLOCK ADDRESS 0x2654 ===
  0x2654	mov    	dword ptr [esp + 0x30], edi
  0x2658	dec    	eax
  0x2659	mov    	ecx, dword ptr [esp + 0x40]
  0x265d	dec    	eax
  0x265e	call   	dword ptr [0x1acc]
  === BLOCK LINK ===
    0x2664
=== CODE BLOCK END ===

=== CODE BLOCK ADDRESS 0x2664 ===
  0x2664	nop    	dword ptr [eax + eax]
  0x2669	mov    	eax, dword ptr [esp + 0x30]
  0x266d	dec    	eax
  0x266e	mov    	ebx, dword ptr [ebp + 0x780]
  0x2674	mov    	dword ptr [0x39b6], eax
  === BLOCK LINK ===
    0x267a
=== CODE BLOCK END ===

=== CODE BLOCK ADDRESS 0x267a ===
  0x267a	mov    	dword ptr [0x3f84], 1
  0x2684	jmp    	0x268c
  === BLOCK LINK ===
    0x2686
=== CODE BLOCK END ===

=== CODE BLOCK ADDRESS 0x2686 ===
  0x2686	mov    	eax, dword ptr [0x39a4]
  0x268c	test   	eax, eax
  0x268e	jle    	0x272f
  === BLOCK LINK ===
    0x2694
=== CODE BLOCK END ===

=== CODE BLOCK ADDRESS 0x2694 ===
  0x2694	dec    	esp
  0x2695	mov    	eax, ebx
  0x2697	dec    	esp
  0x2698	lea    	ecx, [ebp + 0x788]
  0x269e	mov    	ebx, 0x3ff
  === BLOCK LINK ===
    0x26a3
=== CODE BLOCK END ===

=== CODE BLOCK ADDRESS 0x26a3 ===
  0x26a3	dec    	eax
  0x26a4	lea    	ecx, [esp + 0x50]
  0x26a8	mov    	edx, ebx
  0x26aa	dec    	eax
  0x26ab	call   	dword ptr [0x1c57]
  === BLOCK LINK ===
    0x26b1
=== CODE BLOCK END ===

=== CODE BLOCK ADDRESS 0x26b1 ===
  0x26b1	nop    	dword ptr [eax + eax]
  0x26b6	test   	eax, eax
  0x26b8	js     	0x272f
  === BLOCK LINK ===
    0x26ba
=== CODE BLOCK END ===

=== CODE BLOCK ADDRESS 0x26ba ===
  0x26ba	dec    	eax
  0x26bb	cwde   	
  0x26bc	dec    	eax
  0x26bd	cmp    	eax, ebx
  0x26bf	ja     	0x272f
  === BLOCK LINK ===
    0x26c1
=== CODE BLOCK END ===

=== CODE BLOCK ADDRESS 0x26c1 ===
  0x26c1	jne    	0x26ca
  === BLOCK LINK ===
    0x26c3
=== CODE BLOCK END ===

=== CODE BLOCK ADDRESS 0x26c3 ===
  0x26c3	mov    	word ptr [ebp + 0x74e], di
  0x26ca	dec    	eax
  0x26cb	lea    	ecx, [esp + 0x50]
  0x26cf	dec    	eax
  0x26d0	or     	eax, 0xffffffff
  === BLOCK LINK ===
    0x26d3
=== CODE BLOCK END ===

=== CODE BLOCK ADDRESS 0x26d3 ===
  0x26d3	dec    	eax
  0x26d4	inc    	eax
  0x26d6	cmp    	word ptr [ecx + eax*2], di
  0x26da	jne    	0x26d3
  === BLOCK LINK ===
    0x26dc
=== CODE BLOCK END ===

=== CODE BLOCK ADDRESS 0x26dc ===
  0x26dc	mov    	edx, 0x3fd
  0x26e1	inc    	ecx
  0x26e2	mov    	eax, 0xa
  0x26e7	dec    	eax
  0x26e8	cmp    	eax, edx
  === BLOCK LINK ===
    0x26ea
=== CODE BLOCK END ===

=== CODE BLOCK ADDRESS 0x26ea ===
  0x26ea	cmovb  	edx, eax
  0x26ed	lea    	eax, [edx - 1]
  0x26f0	inc    	sp
  0x26f2	cmp    	dword ptr [esp + eax*2 + 0x50], eax
  0x26f6	je     	0x271e
  === BLOCK LINK ===
    0x26f8
=== CODE BLOCK END ===

=== CODE BLOCK ADDRESS 0x26f8 ===
  0x26f8	inc    	ecx
  0x26f9	lea    	ecx, [eax + 3]
  0x26fc	mov    	word ptr [esp + edx*2 + 0x50], cx
  0x2701	lea    	eax, [edx + 1]
  0x2704	lea    	ecx, [edx + 2]
  === BLOCK LINK ===
    0x2707
=== CODE BLOCK END ===

=== CODE BLOCK ADDRESS 0x2707 ===
  0x2707	inc    	sp
  0x2709	mov    	dword ptr [esp + eax*2 + 0x50], eax
  0x270d	dec    	eax
  0x270e	add    	ecx, ecx
  0x2710	dec    	eax
  === BLOCK LINK ===
    0x2711
=== CODE BLOCK END ===

=== CODE BLOCK ADDRESS 0x2711 ===
  0x2711	cmp    	ecx, 0x800
  0x2717	jae    	0x274a
  === BLOCK LINK ===
    0x2719
=== CODE BLOCK END ===

=== CODE BLOCK ADDRESS 0x2719 ===
  0x2719	mov    	word ptr [esp + ecx + 0x50], di
  0x271e	dec    	eax
  0x271f	lea    	ecx, [esp + 0x50]
  0x2723	dec    	eax
  0x2724	call   	dword ptr [0x1ac6]
  === BLOCK LINK ===
    0x272a
=== CODE BLOCK END ===

=== CODE BLOCK ADDRESS 0x272a ===
  0x272a	nop    	dword ptr [eax + eax]
  0x272f	dec    	eax
  0x2730	mov    	ecx, dword ptr [ebp + 0x750]
  0x2736	dec    	eax
  0x2737	xor    	ecx, esp
  === BLOCK LINK ===
    0x2739
=== CODE BLOCK END ===

=== CODE BLOCK ADDRESS 0x2739 ===
  0x2739	call   	0x2b80
  === BLOCK LINK ===
    0x273e
=== CODE BLOCK END ===

=== CODE BLOCK ADDRESS 0x273e ===
  0x273e	dec    	eax
  0x273f	add    	esp, 0x860
  0x2745	pop    	edi
  0x2746	pop    	ebx
  0x2747	pop    	ebp
  === BLOCK LINK ===
    0x2748
=== CODE BLOCK END ===

=== CODE BLOCK ADDRESS 0x2748 ===
  0x2748	ret    	
  0x2749	int3   	
  0x274a	call   	0x3088
  === BLOCK LINK ===
    0x274f
=== CODE BLOCK END ===

=== CODE BLOCK ADDRESS 0x11e5 ===
  0x11e5	dec    	eax
  0x11e6	inc    	eax
  0x11e8	inc    	bp
  === BLOCK LINK ===
    0x11ea
=== CODE BLOCK END ===

=== CODE BLOCK ADDRESS 0x274f ===
  0x274f	int3   	
  0x2750	int3   	
  0x2751	int3   	
  0x2752	int3   	
  0x2753	int3   	
  === BLOCK LINK ===
    0x2754
=== CODE BLOCK END ===

=== CODE BLOCK ADDRESS 0x2754 ===
  0x2754	int3   	
  0x2755	int3   	
  0x2756	int3   	
  0x2757	int3   	
  0x2758	inc    	eax
  === BLOCK LINK ===
    0x2759
=== CODE BLOCK END ===

=== CODE BLOCK ADDRESS 0x2759 ===
  0x2759	push   	edi
  0x275a	dec    	eax
  0x275b	sub    	esp, 0x150
  0x2761	dec    	eax
  0x2762	mov    	eax, dword ptr [0x38b0]
  === BLOCK LINK ===
    0x2768
=== CODE BLOCK END ===

=== CODE BLOCK ADDRESS 0x2768 ===
  0x2768	dec    	eax
  0x2769	xor    	eax, esp
  0x276b	dec    	eax
  0x276c	mov    	dword ptr [esp + 0x140], eax
  0x2773	dec    	eax
  === BLOCK LINK ===
    0x2774
=== CODE BLOCK END ===

=== CODE BLOCK ADDRESS 0x2774 ===
  0x2774	mov    	ecx, dword ptr [0x3886]
  0x277a	dec    	eax
  0x277b	lea    	edi, [0x387f]
  0x2781	dec    	eax
  0x2782	cmp    	ecx, edi
  === BLOCK LINK ===
    0x2784
=== CODE BLOCK END ===

=== CODE BLOCK ADDRESS 0x2784 ===
  0x2784	je     	0x27a7
  === BLOCK LINK ===
    0x2786
=== CODE BLOCK END ===

=== CODE BLOCK ADDRESS 0x2786 ===
  0x2786	test   	byte ptr [ecx + 0x1c], 2
  0x278a	je     	0x27a7
  === BLOCK LINK ===
    0x278c
=== CODE BLOCK END ===

=== CODE BLOCK ADDRESS 0x278c ===
  0x278c	cmp    	byte ptr [ecx + 0x19], 5
  0x2790	jb     	0x27a7
  === BLOCK LINK ===
    0x2792
=== CODE BLOCK END ===

=== CODE BLOCK ADDRESS 0x2792 ===
  0x2792	dec    	eax
  0x2793	mov    	ecx, dword ptr [ecx + 0x10]
  0x2796	dec    	esp
  0x2797	lea    	eax, [0x21db]
  0x279d	mov    	edx, 0xf
  === BLOCK LINK ===
    0x27a2
=== CODE BLOCK END ===

=== CODE BLOCK ADDRESS 0x27a2 ===
  0x27a2	call   	0x1668
  === BLOCK LINK ===
    0x27a7
=== CODE BLOCK END ===

=== CODE BLOCK ADDRESS 0x27a7 ===
  0x27a7	xor    	edx, edx
  0x27a9	dec    	eax
  0x27aa	lea    	ecx, [esp + 0x24]
  0x27ae	inc    	ecx
  0x27af	mov    	eax, 0x110
  === BLOCK LINK ===
    0x27b4
=== CODE BLOCK END ===

=== CODE BLOCK ADDRESS 0x27b4 ===
  0x27b4	call   	0x3216
  === BLOCK LINK ===
    0x27b9
=== CODE BLOCK END ===

=== CODE BLOCK ADDRESS 0x27b9 ===
  0x27b9	dec    	eax
  0x27ba	lea    	ecx, [esp + 0x20]
  0x27be	mov    	dword ptr [esp + 0x20], 0x114
  0x27c6	dec    	eax
  0x27c7	call   	dword ptr [0x19fb]
  === BLOCK LINK ===
    0x27cd
=== CODE BLOCK END ===

=== CODE BLOCK ADDRESS 0x27cd ===
  0x27cd	nop    	dword ptr [eax + eax]
  0x27d2	xor    	ecx, ecx
  0x27d4	test   	eax, eax
  0x27d6	jne    	0x281f
  === BLOCK LINK ===
    0x27d8
=== CODE BLOCK END ===

=== CODE BLOCK ADDRESS 0x27d8 ===
  0x27d8	dec    	eax
  0x27d9	mov    	eax, dword ptr [0x3821]
  0x27df	dec    	eax
  0x27e0	cmp    	eax, edi
  0x27e2	je     	0x281b
  === BLOCK LINK ===
    0x27e4
=== CODE BLOCK END ===

=== CODE BLOCK ADDRESS 0x27e4 ===
  0x27e4	test   	byte ptr [eax + 0x1c], 2
  0x27e8	je     	0x281b
  === BLOCK LINK ===
    0x27ea
=== CODE BLOCK END ===

=== CODE BLOCK ADDRESS 0x27ea ===
  0x27ea	cmp    	byte ptr [eax + 0x19], 2
  0x27ee	jb     	0x281b
  === BLOCK LINK ===
    0x27f0
=== CODE BLOCK END ===

=== CODE BLOCK ADDRESS 0x27f0 ===
  0x27f0	dec    	eax
  0x27f1	call   	dword ptr [0x1a11]
  === BLOCK LINK ===
    0x27f7
=== CODE BLOCK END ===

=== CODE BLOCK ADDRESS 0x27f7 ===
  0x27f7	nop    	dword ptr [eax + eax]
  0x27fc	dec    	eax
  0x27fd	mov    	ecx, dword ptr [0x37fd]
  0x2803	dec    	esp
  0x2804	lea    	eax, [0x216e]
  === BLOCK LINK ===
    0x280a
=== CODE BLOCK END ===

=== CODE BLOCK ADDRESS 0x280a ===
  0x280a	inc    	esp
  0x280b	mov    	ecx, eax
  0x280d	mov    	edx, 0x10
  0x2812	dec    	eax
  0x2813	mov    	ecx, dword ptr [ecx + 0x10]
  === BLOCK LINK ===
    0x2816
=== CODE BLOCK END ===

=== CODE BLOCK ADDRESS 0x2816 ===
  0x2816	call   	0x16e4
  === BLOCK LINK ===
    0x281b
=== CODE BLOCK END ===

=== CODE BLOCK ADDRESS 0x281b ===
  0x281b	xor    	eax, eax
  0x281d	jmp    	0x2829
  === BLOCK LINK ===
    0x281f
=== CODE BLOCK END ===

=== CODE BLOCK ADDRESS 0x281f ===
  0x281f	cmp    	dword ptr [esp + 0x24], 6
  0x2824	setae  	cl
  0x2827	mov    	eax, ecx
  0x2829	dec    	eax
  0x282a	mov    	ecx, dword ptr [esp + 0x140]
  === BLOCK LINK ===
    0x2831
=== CODE BLOCK END ===

=== CODE BLOCK ADDRESS 0x2831 ===
  0x2831	dec    	eax
  0x2832	xor    	ecx, esp
  0x2834	call   	0x2b80
  === BLOCK LINK ===
    0x2839
=== CODE BLOCK END ===

=== CODE BLOCK ADDRESS 0x2839 ===
  0x2839	dec    	eax
  0x283a	add    	esp, 0x150
  0x2840	pop    	edi
  0x2841	ret    	
  0x2842	int3   	
  === BLOCK LINK ===
    0x2843
=== CODE BLOCK END ===

=== CODE BLOCK ADDRESS 0x11fc ===
  0x11fc	mov    	dword ptr [esp + 0x20], eax
  0x1200	dec    	eax
  0x1201	lea    	ecx, [esi + esi*8]
  === BLOCK LINK ===
    0x1204
=== CODE BLOCK END ===

=== CODE BLOCK ADDRESS 0x2843 ===
  0x2843	int3   	
  0x2844	int3   	
  0x2845	int3   	
  0x2846	int3   	
  0x2847	int3   	
  === BLOCK LINK ===
    0x2848
=== CODE BLOCK END ===

=== CODE BLOCK ADDRESS 0x2848 ===
  0x2848	int3   	
  0x2849	int3   	
  0x284a	int3   	
  0x284b	int3   	
  0x284c	int3   	
  === BLOCK LINK ===
    0x284d
=== CODE BLOCK END ===

=== CODE BLOCK ADDRESS 0x284d ===
  0x284d	int3   	
  0x284e	int3   	
  0x284f	int3   	
  0x2850	dec    	eax
  0x2851	sub    	esp, 0x28
  === BLOCK LINK ===
    0x2854
=== CODE BLOCK END ===

=== CODE BLOCK ADDRESS 0x2854 ===
  0x2854	mov    	eax, 0x5a4d
  0x2859	cmp    	word ptr [0xffffd7a0], ax
  0x2860	je     	0x2866
  === BLOCK LINK ===
    0x2862
=== CODE BLOCK END ===

=== CODE BLOCK ADDRESS 0x2862 ===
  0x2862	xor    	eax, eax
  0x2864	jmp    	0x28b9
  === BLOCK LINK ===
    0x2866
=== CODE BLOCK END ===

=== CODE BLOCK ADDRESS 0x2866 ===
  0x2866	dec    	eax
  0x2867	arpl   	word ptr [0xffffd7cf], cx
  0x286d	dec    	eax
  0x286e	lea    	eax, [0xffffd78c]
  0x2874	dec    	eax
  === BLOCK LINK ===
    0x2875
=== CODE BLOCK END ===

=== CODE BLOCK ADDRESS 0x2875 ===
  0x2875	add    	ecx, eax
  0x2877	cmp    	dword ptr [ecx], 0x4550
  0x287d	jne    	0x2862
  === BLOCK LINK ===
    0x287f
=== CODE BLOCK END ===

=== CODE BLOCK ADDRESS 0x287f ===
  0x287f	mov    	eax, 0x10b
  0x2884	cmp    	word ptr [ecx + 0x18], ax
  0x2888	je     	0x28a8
  === BLOCK LINK ===
    0x288a
=== CODE BLOCK END ===

=== CODE BLOCK ADDRESS 0x288a ===
  0x288a	mov    	eax, 0x20b
  0x288f	cmp    	word ptr [ecx + 0x18], ax
  0x2893	jne    	0x2862
  === BLOCK LINK ===
    0x2895
=== CODE BLOCK END ===

=== CODE BLOCK ADDRESS 0x2895 ===
  0x2895	xor    	eax, eax
  0x2897	cmp    	dword ptr [ecx + 0x84], 0xe
  0x289e	jbe    	0x28b9
  === BLOCK LINK ===
    0x28a0
=== CODE BLOCK END ===

=== CODE BLOCK ADDRESS 0x28a0 ===
  0x28a0	cmp    	dword ptr [ecx + 0xf8], eax
  0x28a6	jmp    	0x28b6
  === BLOCK LINK ===
    0x28a8
=== CODE BLOCK END ===

=== CODE BLOCK ADDRESS 0x28a8 ===
  0x28a8	xor    	eax, eax
  0x28aa	cmp    	dword ptr [ecx + 0x74], 0xe
  0x28ae	jbe    	0x28b9
  === BLOCK LINK ===
    0x28b0
=== CODE BLOCK END ===

=== CODE BLOCK ADDRESS 0x28b0 ===
  0x28b0	cmp    	dword ptr [ecx + 0xe8], eax
  0x28b6	setne  	al
  0x28b9	mov    	ecx, 1
  0x28be	mov    	dword ptr [0x379c], eax
  0x28c4	call   	0x2c78
  === BLOCK LINK ===
    0x28c9
=== CODE BLOCK END ===

=== CODE BLOCK ADDRESS 0x28c9 ===
  0x28c9	mov    	ecx, eax
  0x28cb	call   	dword ptr [0x1a17]
  === BLOCK LINK ===
    0x28d1
=== CODE BLOCK END ===

=== CODE BLOCK ADDRESS 0x28d1 ===
  0x28d1	dec    	eax
  0x28d2	mov    	ecx, dword ptr [0x19c0]
  0x28d8	dec    	eax
  0x28d9	or     	eax, 0xffffffff
  0x28dc	dec    	eax
  === BLOCK LINK ===
    0x28dd
=== CODE BLOCK END ===

=== CODE BLOCK ADDRESS 0x28dd ===
  0x28dd	mov    	dword ptr [0x3d2d], eax
  0x28e3	dec    	eax
  0x28e4	mov    	dword ptr [0x3d2e], eax
  0x28ea	mov    	eax, dword ptr [0x3784]
  0x28f0	mov    	dword ptr [ecx], eax
  === BLOCK LINK ===
    0x28f2
=== CODE BLOCK END ===

=== CODE BLOCK ADDRESS 0x28f2 ===
  0x28f2	dec    	eax
  0x28f3	mov    	ecx, dword ptr [0x19a7]
  0x28f9	mov    	eax, dword ptr [0x3769]
  0x28ff	mov    	dword ptr [ecx], eax
  0x2901	call   	0x2cd0
  === BLOCK LINK ===
    0x2906
=== CODE BLOCK END ===

=== CODE BLOCK ADDRESS 0x2906 ===
  0x2906	cmp    	dword ptr [0x3703], 0
  0x290d	jne    	0x291c
  === BLOCK LINK ===
    0x290f
=== CODE BLOCK END ===

=== CODE BLOCK ADDRESS 0x290f ===
  0x290f	dec    	eax
  0x2910	lea    	ecx, [0x3ba]
  0x2916	call   	dword ptr [0x19ac]
  === BLOCK LINK ===
    0x291c
=== CODE BLOCK END ===

=== CODE BLOCK ADDRESS 0x291c ===
  0x291c	xor    	eax, eax
  0x291e	dec    	eax
  0x291f	add    	esp, 0x28
  0x2922	ret    	
  0x2923	int3   	
  === BLOCK LINK ===
    0x2924
=== CODE BLOCK END ===

=== CODE BLOCK ADDRESS 0x2924 ===
  0x2924	int3   	
  0x2925	int3   	
  0x2926	int3   	
  0x2927	int3   	
  0x2928	int3   	
  === BLOCK LINK ===
    0x2929
=== CODE BLOCK END ===

=== CODE BLOCK ADDRESS 0x2929 ===
  0x2929	int3   	
  0x292a	int3   	
  0x292b	int3   	
  0x292c	int3   	
  0x292d	int3   	
  === BLOCK LINK ===
    0x292e
=== CODE BLOCK END ===

=== CODE BLOCK ADDRESS 0x292e ===
  0x292e	int3   	
  0x292f	int3   	
  0x2930	dec    	eax
  0x2931	sub    	esp, 0x38
  0x2934	mov    	eax, dword ptr [0x3736]
  === BLOCK LINK ===
    0x293a
=== CODE BLOCK END ===

=== CODE BLOCK ADDRESS 0x293a ===
  0x293a	dec    	esp
  0x293b	lea    	eax, [0x3717]
  0x2941	inc    	esp
  0x2942	mov    	ecx, dword ptr [0x3724]
  0x2948	dec    	eax
  === BLOCK LINK ===
    0x2949
=== CODE BLOCK END ===

=== CODE BLOCK ADDRESS 0x2949 ===
  0x2949	lea    	edx, [0x3701]
  0x294f	mov    	dword ptr [0x370f], eax
  0x2955	dec    	eax
  0x2956	lea    	ecx, [0x36ec]
  0x295c	dec    	eax
  === BLOCK LINK ===
    0x295d
=== CODE BLOCK END ===

=== CODE BLOCK ADDRESS 0x295d ===
  0x295d	lea    	eax, [0x3701]
  0x2963	dec    	eax
  0x2964	mov    	dword ptr [esp + 0x20], eax
  0x2968	call   	dword ptr [0x198a]
  === BLOCK LINK ===
    0x296e
=== CODE BLOCK END ===

=== CODE BLOCK ADDRESS 0x296e ===
  0x296e	mov    	dword ptr [0x36d8], eax
  0x2974	dec    	eax
  0x2975	add    	esp, 0x38
  0x2978	ret    	
  0x2979	int3   	
  === BLOCK LINK ===
    0x297a
=== CODE BLOCK END ===

=== CODE BLOCK ADDRESS 0x1291 ===
  0x1291	inc    	edi
  0x1293	cmp    	edi, dword ptr [ebp + 0x50]
  0x1296	jb     	0x10f7
  === BLOCK LINK ===
    0x129c
=== CODE BLOCK END ===

=== CODE BLOCK ADDRESS 0x297a ===
  0x297a	int3   	
  0x297b	int3   	
  0x297c	int3   	
  0x297d	int3   	
  0x297e	int3   	
  === BLOCK LINK ===
    0x297f
=== CODE BLOCK END ===

=== CODE BLOCK ADDRESS 0x297f ===
  0x297f	int3   	
  0x2980	dec    	eax
  0x2981	mov    	dword ptr [esp + 8], ebx
  0x2985	dec    	eax
  0x2986	mov    	dword ptr [esp + 0x10], esi
  === BLOCK LINK ===
    0x298a
=== CODE BLOCK END ===

=== CODE BLOCK ADDRESS 0x298a ===
  0x298a	dec    	eax
  0x298b	mov    	dword ptr [esp + 0x18], edi
  0x298f	inc    	ecx
  0x2990	push   	edi
  0x2991	dec    	eax
  === BLOCK LINK ===
    0x2992
=== CODE BLOCK END ===

=== CODE BLOCK ADDRESS 0x2992 ===
  0x2992	sub    	esp, 0x30
  0x2995	dec    	eax
  0x2997	mov    	eax, dword ptr [0x30]
  0x299e	dec    	eax
  0x299f	mov    	ebx, dword ptr [eax + 8]
  === BLOCK LINK ===
    0x29a2
=== CODE BLOCK END ===

=== CODE BLOCK ADDRESS 0x29a2 ===
  0x29a2	xor    	esi, esi
  0x29a4	xor    	eax, eax
  0x29a6	.byte  	0xf0
  0x29a7	dec    	eax
  0x29a8	cmpxchg  	dword ptr [0x3c71], ebx
  === BLOCK LINK ===
    0x29af
=== CODE BLOCK END ===

=== CODE BLOCK ADDRESS 0x29af ===
  0x29af	je     	0x29cc
  === BLOCK LINK ===
    0x29b1
=== CODE BLOCK END ===

=== CODE BLOCK ADDRESS 0x29b1 ===
  0x29b1	dec    	eax
  0x29b2	cmp    	eax, ebx
  0x29b4	jne    	0x29bf
  === BLOCK LINK ===
    0x29b6
=== CODE BLOCK END ===

=== CODE BLOCK ADDRESS 0x29b6 ===
  0x29b6	mov    	ebx, 1
  0x29bb	mov    	esi, ebx
  0x29bd	jmp    	0x29d1
  === BLOCK LINK ===
    0x29bf
=== CODE BLOCK END ===

=== CODE BLOCK ADDRESS 0x29bf ===
  0x29bf	mov    	ecx, 0x3e8
  0x29c4	call   	dword ptr [0x184e]
  === BLOCK LINK ===
    0x29ca
=== CODE BLOCK END ===

=== CODE BLOCK ADDRESS 0x29ca ===
  0x29ca	jmp    	0x29a4
  === BLOCK LINK ===
    0x29cc
=== CODE BLOCK END ===

=== CODE BLOCK ADDRESS 0x29cc ===
  0x29cc	mov    	ebx, 1
  0x29d1	mov    	eax, dword ptr [0x3c51]
  0x29d7	cmp    	eax, ebx
  0x29d9	jne    	0x29e7
  === BLOCK LINK ===
    0x29db
=== CODE BLOCK END ===

=== CODE BLOCK ADDRESS 0x29db ===
  0x29db	mov    	ecx, 0x1f
  0x29e0	call   	0x2cc3
  === BLOCK LINK ===
    0x29e5
=== CODE BLOCK END ===

=== CODE BLOCK ADDRESS 0x29e5 ===
  0x29e5	jmp    	0x2a4c
  === BLOCK LINK ===
    0x29e7
=== CODE BLOCK END ===

=== CODE BLOCK ADDRESS 0x29e7 ===
  0x29e7	mov    	eax, dword ptr [0x3c3b]
  0x29ed	test   	eax, eax
  0x29ef	jne    	0x2a46
  === BLOCK LINK ===
    0x29f1
=== CODE BLOCK END ===

=== CODE BLOCK ADDRESS 0x29f1 ===
  0x29f1	mov    	dword ptr [0x3c31], ebx
  0x29f7	dec    	esp
  0x29f8	lea    	edi, [0x1962]
  0x29fe	dec    	eax
  0x29ff	lea    	edi, [0x1943]
  === BLOCK LINK ===
    0x2a05
=== CODE BLOCK END ===

=== CODE BLOCK ADDRESS 0x2a05 ===
  0x2a05	dec    	eax
  0x2a06	mov    	dword ptr [esp + 0x28], edi
  0x2a0a	mov    	dword ptr [esp + 0x20], eax
  0x2a0e	dec    	ecx
  0x2a0f	cmp    	edi, edi
  === BLOCK LINK ===
    0x2a11
=== CODE BLOCK END ===

=== CODE BLOCK ADDRESS 0x2a11 ===
  0x2a11	jae    	0x2a38
  === BLOCK LINK ===
    0x2a13
=== CODE BLOCK END ===

=== CODE BLOCK ADDRESS 0x2a13 ===
  0x2a13	test   	eax, eax
  0x2a15	jne    	0x2a3c
  === BLOCK LINK ===
    0x2a17
=== CODE BLOCK END ===

=== CODE BLOCK ADDRESS 0x2a17 ===
  0x2a17	dec    	eax
  0x2a18	cmp    	dword ptr [edi], 0
  0x2a1b	je     	0x2a2d
  === BLOCK LINK ===
    0x2a1d
=== CODE BLOCK END ===

=== CODE BLOCK ADDRESS 0x2a1d ===
  0x2a1d	dec    	eax
  0x2a1e	mov    	eax, dword ptr [edi]
  0x2a20	dec    	eax
  0x2a21	mov    	ecx, dword ptr [0x1901]
  0x2a27	call   	ecx
  === BLOCK LINK ===
    0x2a29
=== CODE BLOCK END ===

=== CODE BLOCK ADDRESS 0x2a29 ===
  0x2a29	mov    	dword ptr [esp + 0x20], eax
  0x2a2d	dec    	eax
  0x2a2e	add    	edi, 8
  0x2a31	dec    	eax
  0x2a32	mov    	dword ptr [esp + 0x28], edi
  === BLOCK LINK ===
    0x2a36
=== CODE BLOCK END ===

=== CODE BLOCK ADDRESS 0x2a36 ===
  0x2a36	jmp    	0x2a0e
  === BLOCK LINK ===
    0x2a38
=== CODE BLOCK END ===

=== CODE BLOCK ADDRESS 0x2a38 ===
  0x2a38	test   	eax, eax
  0x2a3a	je     	0x2a4c
  === BLOCK LINK ===
    0x2a3c
=== CODE BLOCK END ===

=== CODE BLOCK ADDRESS 0x2a3c ===
  0x2a3c	mov    	eax, 0xff
  0x2a41	jmp    	0x2b28
  === BLOCK LINK ===
    0x2a46
=== CODE BLOCK END ===

=== CODE BLOCK ADDRESS 0x2a46 ===
  0x2a46	mov    	dword ptr [0x35f8], ebx
  0x2a4c	mov    	eax, dword ptr [0x3bd6]
  0x2a52	cmp    	eax, ebx
  0x2a54	jne    	0x2a73
  === BLOCK LINK ===
    0x2a56
=== CODE BLOCK END ===

=== CODE BLOCK ADDRESS 0x2a56 ===
  0x2a56	dec    	eax
  0x2a57	lea    	edx, [0x18e3]
  0x2a5d	dec    	eax
  0x2a5e	lea    	ecx, [0x18cc]
  0x2a64	call   	0x2e9e
  === BLOCK LINK ===
    0x2a69
=== CODE BLOCK END ===

=== CODE BLOCK ADDRESS 0x2a69 ===
  0x2a69	mov    	dword ptr [0x3bb5], 2
  0x2a73	test   	esi, esi
  0x2a75	jne    	0x2a80
  === BLOCK LINK ===
    0x2a77
=== CODE BLOCK END ===

=== CODE BLOCK ADDRESS 0x2a77 ===
  0x2a77	xor    	eax, eax
  0x2a79	dec    	eax
  0x2a7a	xchg   	dword ptr [0x3ba0], eax
  0x2a80	dec    	eax
  0x2a81	cmp    	dword ptr [0x3ba8], 0
  === BLOCK LINK ===
    0x2a88
=== CODE BLOCK END ===

=== CODE BLOCK ADDRESS 0x2a88 ===
  0x2a88	je     	0x2ab4
  === BLOCK LINK ===
    0x2a8a
=== CODE BLOCK END ===

=== CODE BLOCK ADDRESS 0x2a8a ===
  0x2a8a	dec    	eax
  0x2a8b	lea    	ecx, [0x3b9f]
  0x2a91	call   	0x2d30
  === BLOCK LINK ===
    0x2a96
=== CODE BLOCK END ===

=== CODE BLOCK ADDRESS 0x2a96 ===
  0x2a96	test   	eax, eax
  0x2a98	je     	0x2ab4
  === BLOCK LINK ===
    0x2a9a
=== CODE BLOCK END ===

=== CODE BLOCK ADDRESS 0x2a9a ===
  0x2a9a	inc    	ebp
  0x2a9b	xor    	eax, eax
  0x2a9d	inc    	ecx
  0x2a9e	lea    	edx, [eax + 2]
  0x2aa1	xor    	ecx, ecx
  === BLOCK LINK ===
    0x2aa3
=== CODE BLOCK END ===

=== CODE BLOCK ADDRESS 0x2aa3 ===
  0x2aa3	dec    	eax
  0x2aa4	mov    	eax, dword ptr [0x3b86]
  0x2aaa	dec    	esp
  0x2aab	mov    	ecx, dword ptr [0x1877]
  0x2ab1	inc    	ecx
  === BLOCK LINK ===
    0x2ab2
=== CODE BLOCK END ===

=== CODE BLOCK ADDRESS 0x2ab2 ===
  0x2ab2	call   	ecx
  === BLOCK LINK ===
    0x2ab4
=== CODE BLOCK END ===

=== CODE BLOCK ADDRESS 0x2ab4 ===
  0x2ab4	dec    	esp
  0x2ab5	mov    	eax, dword ptr [0x359d]
  0x2abb	dec    	eax
  0x2abc	mov    	edx, dword ptr [0x358e]
  0x2ac2	mov    	ecx, dword ptr [0x3580]
  === BLOCK LINK ===
    0x2ac8
=== CODE BLOCK END ===

=== CODE BLOCK ADDRESS 0x2ac8 ===
  0x2ac8	call   	0x13e0
  === BLOCK LINK ===
    0x2acd
=== CODE BLOCK END ===

=== CODE BLOCK ADDRESS 0x2acd ===
  0x2acd	mov    	dword ptr [0x356d], eax
  0x2ad3	cmp    	dword ptr [0x3586], 0
  0x2ada	jne    	0x2ae4
  === BLOCK LINK ===
    0x2adc
=== CODE BLOCK END ===

=== CODE BLOCK ADDRESS 0x2adc ===
  0x2adc	mov    	ecx, eax
  0x2ade	call   	dword ptr [0x17fc]
  === BLOCK LINK ===
    0x2ae4
=== CODE BLOCK END ===

=== CODE BLOCK ADDRESS 0x2ae4 ===
  0x2ae4	cmp    	dword ptr [0x3559], 0
  0x2aeb	jne    	0x2af9
  === BLOCK LINK ===
    0x2aed
=== CODE BLOCK END ===

=== CODE BLOCK ADDRESS 0x2aed ===
  0x2aed	call   	dword ptr [0x17dd]
  === BLOCK LINK ===
    0x2af3
=== CODE BLOCK END ===

=== CODE BLOCK ADDRESS 0x2af3 ===
  0x2af3	mov    	eax, dword ptr [0x3547]
  0x2af9	jmp    	0x2b28
  === BLOCK LINK ===
    0x2afb
=== CODE BLOCK END ===

=== CODE BLOCK ADDRESS 0x2afb ===
  0x2afb	mov    	dword ptr [0x353f], eax
  0x2b01	cmp    	dword ptr [0x3558], 0
  0x2b08	jne    	0x2b13
  === BLOCK LINK ===
    0x2b0a
=== CODE BLOCK END ===

=== CODE BLOCK ADDRESS 0x2b0a ===
  0x2b0a	mov    	ecx, eax
  0x2b0c	call   	dword ptr [0x17c6]
  === BLOCK LINK ===
    0x2b12
=== CODE BLOCK END ===

=== CODE BLOCK ADDRESS 0x2b12 ===
  0x2b12	int3   	
  0x2b13	cmp    	dword ptr [0x352a], 0
  0x2b1a	jne    	0x2b28
  === BLOCK LINK ===
    0x2b1c
=== CODE BLOCK END ===

=== CODE BLOCK ADDRESS 0x2b1c ===
  0x2b1c	call   	dword ptr [0x17ae]
  === BLOCK LINK ===
    0x2b22
=== CODE BLOCK END ===

=== CODE BLOCK ADDRESS 0x2b22 ===
  0x2b22	mov    	eax, dword ptr [0x3518]
  0x2b28	dec    	eax
  0x2b29	mov    	ebx, dword ptr [esp + 0x40]
  0x2b2d	dec    	eax
  0x2b2e	mov    	esi, dword ptr [esp + 0x48]
  === BLOCK LINK ===
    0x2b32
=== CODE BLOCK END ===

=== CODE BLOCK ADDRESS 0x2b32 ===
  0x2b32	dec    	eax
  0x2b33	mov    	edi, dword ptr [esp + 0x50]
  0x2b37	dec    	eax
  0x2b38	add    	esp, 0x30
  0x2b3b	inc    	ecx
  === BLOCK LINK ===
    0x2b3c
=== CODE BLOCK END ===

=== CODE BLOCK ADDRESS 0x2b3c ===
  0x2b3c	pop    	edi
  0x2b3d	ret    	
  0x2b3e	int3   	
  0x2b3f	int3   	
  0x2b40	int3   	
  === BLOCK LINK ===
    0x2b41
=== CODE BLOCK END ===

=== CODE BLOCK ADDRESS 0x2b41 ===
  0x2b41	int3   	
  0x2b42	int3   	
  0x2b43	int3   	
  0x2b44	int3   	
  0x2b45	int3   	
  === BLOCK LINK ===
    0x2b46
=== CODE BLOCK END ===

=== CODE BLOCK ADDRESS 0x2b46 ===
  0x2b46	int3   	
  0x2b47	int3   	
  0x2b48	int3   	
  0x2b49	int3   	
  0x2b4a	int3   	
  === BLOCK LINK ===
    0x2b4b
=== CODE BLOCK END ===

=== CODE BLOCK ADDRESS 0x2b4b ===
  0x2b4b	int3   	
  0x2b4c	int3   	
  0x2b4d	int3   	
  0x2b4e	int3   	
  0x2b4f	int3   	
  === BLOCK LINK ===
    0x2b50
=== CODE BLOCK END ===

=== CODE BLOCK ADDRESS 0x2b50 ===
  0x2b50	dec    	eax
  0x2b51	sub    	esp, 0x28
  0x2b54	call   	0x2dc4
  === BLOCK LINK ===
    0x2b59
=== CODE BLOCK END ===

=== CODE BLOCK ADDRESS 0x2b59 ===
  0x2b59	dec    	eax
  0x2b5a	add    	esp, 0x28
  0x2b5d	jmp    	0x2980
  === BLOCK LINK ===
    0x2b62
=== CODE BLOCK END ===

=== CODE BLOCK ADDRESS 0x2b62 ===
  0x2b62	int3   	
  0x2b63	int3   	
  0x2b64	int3   	
  0x2b65	int3   	
  0x2b66	int3   	
  === BLOCK LINK ===
    0x2b67
=== CODE BLOCK END ===

=== CODE BLOCK ADDRESS 0x2b67 ===
  0x2b67	int3   	
  0x2b68	int3   	
  0x2b69	int3   	
  0x2b6a	int3   	
  0x2b6b	int3   	
  === BLOCK LINK ===
    0x2b6c
=== CODE BLOCK END ===

=== CODE BLOCK ADDRESS 0x2b6c ===
  0x2b6c	int3   	
  0x2b6d	int3   	
  0x2b6e	int3   	
  0x2b6f	int3   	
  0x2b70	int3   	
  === BLOCK LINK ===
    0x2b71
=== CODE BLOCK END ===

=== CODE BLOCK ADDRESS 0x2b71 ===
  0x2b71	int3   	
  0x2b72	int3   	
  0x2b73	int3   	
  0x2b74	int3   	
  0x2b75	int3   	
  === BLOCK LINK ===
    0x2b76
=== CODE BLOCK END ===

=== CODE BLOCK ADDRESS 0x2b76 ===
  0x2b76	nop    	word ptr [eax + eax]
  0x2b80	dec    	eax
  0x2b81	cmp    	ecx, dword ptr [0x3491]
  0x2b87	jne    	0x2b99
  === BLOCK LINK ===
    0x2b89
=== CODE BLOCK END ===

=== CODE BLOCK ADDRESS 0x2b89 ===
  0x2b89	dec    	eax
  0x2b8a	rol    	ecx, 0x10
  0x2b8d	test   	cx, 0xffff
  0x2b92	jne    	0x2b95
  === BLOCK LINK ===
    0x2b94
=== CODE BLOCK END ===

=== CODE BLOCK ADDRESS 0x2b94 ===
  0x2b94	ret    	
  0x2b95	dec    	eax
  0x2b96	ror    	ecx, 0x10
  0x2b99	jmp    	0x2f10
  === BLOCK LINK ===
    0x2b9e
=== CODE BLOCK END ===

=== CODE BLOCK ADDRESS 0x1244 ===
  0x1244	dec    	eax
  0x1245	inc    	eax
  0x1247	inc    	bp
  === BLOCK LINK ===
    0x1249
=== CODE BLOCK END ===

=== CODE BLOCK ADDRESS 0x2b9e ===
  0x2b9e	int3   	
  0x2b9f	int3   	
  0x2ba0	int3   	
  0x2ba1	int3   	
  0x2ba2	int3   	
  === BLOCK LINK ===
    0x2ba3
=== CODE BLOCK END ===

=== CODE BLOCK ADDRESS 0x2ba3 ===
  0x2ba3	int3   	
  0x2ba4	int3   	
  0x2ba5	int3   	
  0x2ba6	int3   	
  0x2ba7	int3   	
  === BLOCK LINK ===
    0x2ba8
=== CODE BLOCK END ===

=== CODE BLOCK ADDRESS 0x2ba8 ===
  0x2ba8	int3   	
  0x2ba9	int3   	
  0x2baa	int3   	
  0x2bab	int3   	
  0x2bac	int3   	
  === BLOCK LINK ===
    0x2bad
=== CODE BLOCK END ===

=== CODE BLOCK ADDRESS 0x2bad ===
  0x2bad	int3   	
  0x2bae	int3   	
  0x2baf	int3   	
  0x2bb0	dec    	eax
  0x2bb1	sub    	esp, 0x28
  === BLOCK LINK ===
    0x2bb4
=== CODE BLOCK END ===

=== CODE BLOCK ADDRESS 0x2bb4 ===
  0x2bb4	dec    	eax
  0x2bb5	mov    	eax, dword ptr [ecx]
  0x2bb7	cmp    	dword ptr [eax], 0xe06d7363
  0x2bbd	jne    	0x2be2
  === BLOCK LINK ===
    0x2bbf
=== CODE BLOCK END ===

=== CODE BLOCK ADDRESS 0x2bbf ===
  0x2bbf	cmp    	dword ptr [eax + 0x18], 4
  0x2bc3	jne    	0x2be2
  === BLOCK LINK ===
    0x2bc5
=== CODE BLOCK END ===

=== CODE BLOCK ADDRESS 0x2bc5 ===
  0x2bc5	mov    	ecx, dword ptr [eax + 0x20]
  0x2bc8	lea    	eax, [ecx - 0x19930520]
  0x2bce	cmp    	eax, 2
  0x2bd1	jbe    	0x2bdb
  === BLOCK LINK ===
    0x2bd3
=== CODE BLOCK END ===

=== CODE BLOCK ADDRESS 0x2bd3 ===
  0x2bd3	cmp    	ecx, 0x1994000
  0x2bd9	jne    	0x2be2
  === BLOCK LINK ===
    0x2bdb
=== CODE BLOCK END ===

=== CODE BLOCK ADDRESS 0x2bdb ===
  0x2bdb	call   	dword ptr [0x16c7]
  === BLOCK LINK ===
    0x2be1
=== CODE BLOCK END ===

=== CODE BLOCK ADDRESS 0x2be1 ===
  0x2be1	int3   	
  0x2be2	xor    	eax, eax
  0x2be4	dec    	eax
  0x2be5	add    	esp, 0x28
  0x2be8	ret    	
  === BLOCK LINK ===
    0x2be9
=== CODE BLOCK END ===

=== CODE BLOCK ADDRESS 0x125b ===
  0x125b	mov    	dword ptr [esp + 0x20], eax
  0x125f	dec    	eax
  0x1260	lea    	ecx, [esi + esi*8]
  === BLOCK LINK ===
    0x1263
=== CODE BLOCK END ===

=== CODE BLOCK ADDRESS 0x2be9 ===
  0x2be9	int3   	
  0x2bea	int3   	
  0x2beb	int3   	
  0x2bec	int3   	
  0x2bed	int3   	
  === BLOCK LINK ===
    0x2bee
=== CODE BLOCK END ===

=== CODE BLOCK ADDRESS 0x2bee ===
  0x2bee	int3   	
  0x2bef	int3   	
  0x2bf0	dec    	eax
  0x2bf1	sub    	esp, 0x28
  0x2bf4	dec    	eax
  === BLOCK LINK ===
    0x2bf5
=== CODE BLOCK END ===

=== CODE BLOCK ADDRESS 0x2bf5 ===
  0x2bf5	lea    	ecx, [0xffffffb5]
  0x2bfb	call   	dword ptr [0x161f]
  === BLOCK LINK ===
    0x2c01
=== CODE BLOCK END ===

=== CODE BLOCK ADDRESS 0x2c01 ===
  0x2c01	xor    	eax, eax
  0x2c03	dec    	eax
  0x2c04	add    	esp, 0x28
  0x2c07	ret    	
  0x2c08	int3   	
  === BLOCK LINK ===
    0x2c09
=== CODE BLOCK END ===

=== CODE BLOCK ADDRESS 0x2c09 ===
  0x2c09	int3   	
  0x2c0a	int3   	
  0x2c0b	int3   	
  0x2c0c	int3   	
  0x2c0d	int3   	
  === BLOCK LINK ===
    0x2c0e
=== CODE BLOCK END ===

=== CODE BLOCK ADDRESS 0x2c0e ===
  0x2c0e	jmp    	dword ptr [0x16dc]
  === BLOCK LINK ===
    0x2c14
=== CODE BLOCK END ===

=== CODE BLOCK ADDRESS 0x2c14 ===
  0x2c14	int3   	
  0x2c15	int3   	
  0x2c16	int3   	
  0x2c17	int3   	
  0x2c18	int3   	
  === BLOCK LINK ===
    0x2c19
=== CODE BLOCK END ===

=== CODE BLOCK ADDRESS 0x2c19 ===
  0x2c19	int3   	
  0x2c1a	int3   	
  0x2c1b	int3   	
  0x2c1c	dec    	eax
  0x2c1d	sub    	esp, 0x18
  === BLOCK LINK ===
    0x2c20
=== CODE BLOCK END ===

=== CODE BLOCK ADDRESS 0x2c20 ===
  0x2c20	xor    	edx, edx
  0x2c22	dec    	eax
  0x2c23	lea    	eax, [ecx - 1]
  0x2c26	dec    	eax
  0x2c27	cmp    	eax, -3
  === BLOCK LINK ===
    0x2c2a
=== CODE BLOCK END ===

=== CODE BLOCK ADDRESS 0x2c2a ===
  0x2c2a	ja     	0x2c68
  === BLOCK LINK ===
    0x2c2c
=== CODE BLOCK END ===

=== CODE BLOCK ADDRESS 0x2c2c ===
  0x2c2c	mov    	eax, 0x5a4d
  0x2c31	cmp    	word ptr [ecx], ax
  0x2c34	jne    	0x2c60
  === BLOCK LINK ===
    0x2c36
=== CODE BLOCK END ===

=== CODE BLOCK ADDRESS 0x2c36 ===
  0x2c36	cmp    	dword ptr [ecx + 0x3c], edx
  0x2c39	jl     	0x2c60
  === BLOCK LINK ===
    0x2c3b
=== CODE BLOCK END ===

=== CODE BLOCK ADDRESS 0x2c3b ===
  0x2c3b	cmp    	dword ptr [ecx + 0x3c], 0x10000000
  0x2c42	jae    	0x2c60
  === BLOCK LINK ===
    0x2c44
=== CODE BLOCK END ===

=== CODE BLOCK ADDRESS 0x2c44 ===
  0x2c44	dec    	eax
  0x2c45	arpl   	word ptr [ecx + 0x3c], ax
  0x2c48	dec    	eax
  0x2c49	add    	eax, ecx
  0x2c4b	dec    	eax
  === BLOCK LINK ===
    0x2c4c
=== CODE BLOCK END ===

=== CODE BLOCK ADDRESS 0x2c4c ===
  0x2c4c	mov    	dword ptr [esp], eax
  0x2c4f	cmp    	dword ptr [eax], 0x4550
  0x2c55	dec    	eax
  0x2c56	cmovne  	eax, edx
  0x2c59	dec    	eax
  === BLOCK LINK ===
    0x2c5a
=== CODE BLOCK END ===

=== CODE BLOCK ADDRESS 0x2c5a ===
  0x2c5a	mov    	edx, eax
  0x2c5c	dec    	eax
  0x2c5d	mov    	dword ptr [esp], eax
  0x2c60	jmp    	0x2c68
  === BLOCK LINK ===
    0x2c62
=== CODE BLOCK END ===

=== CODE BLOCK ADDRESS 0x2c62 ===
  0x2c62	xor    	edx, edx
  0x2c64	dec    	eax
  0x2c65	mov    	dword ptr [esp], edx
  0x2c68	dec    	eax
  0x2c69	mov    	eax, edx
  === BLOCK LINK ===
    0x2c6b
=== CODE BLOCK END ===

=== CODE BLOCK ADDRESS 0x2c6b ===
  0x2c6b	dec    	eax
  0x2c6c	add    	esp, 0x18
  0x2c6f	ret    	
  0x2c70	int3   	
  0x2c71	int3   	
  === BLOCK LINK ===
    0x2c72
=== CODE BLOCK END ===

=== CODE BLOCK ADDRESS 0x2c72 ===
  0x2c72	int3   	
  0x2c73	int3   	
  0x2c74	int3   	
  0x2c75	int3   	
  0x2c76	int3   	
  === BLOCK LINK ===
    0x2c77
=== CODE BLOCK END ===

=== CODE BLOCK ADDRESS 0x2c77 ===
  0x2c77	int3   	
  0x2c78	inc    	eax
  0x2c79	push   	ebx
  0x2c7a	dec    	eax
  0x2c7b	sub    	esp, 0x20
  === BLOCK LINK ===
    0x2c7e
=== CODE BLOCK END ===

=== CODE BLOCK ADDRESS 0x2c7e ===
  0x2c7e	mov    	ebx, ecx
  0x2c80	xor    	ecx, ecx
  0x2c82	call   	dword ptr [0x15a0]
  === BLOCK LINK ===
    0x2c88
=== CODE BLOCK END ===

=== CODE BLOCK ADDRESS 0x2c88 ===
  0x2c88	dec    	eax
  0x2c89	test   	eax, eax
  0x2c8b	je     	0x2cb5
  === BLOCK LINK ===
    0x2c8d
=== CODE BLOCK END ===

=== CODE BLOCK ADDRESS 0x2c8d ===
  0x2c8d	dec    	eax
  0x2c8e	mov    	ecx, eax
  0x2c90	call   	0x2c1c
  === BLOCK LINK ===
    0x2c95
=== CODE BLOCK END ===

=== CODE BLOCK ADDRESS 0x2c95 ===
  0x2c95	dec    	eax
  0x2c96	test   	eax, eax
  0x2c98	je     	0x2cb5
  === BLOCK LINK ===
    0x2c9a
=== CODE BLOCK END ===

=== CODE BLOCK ADDRESS 0x2c9a ===
  0x2c9a	mov    	ecx, 2
  0x2c9f	cmp    	word ptr [eax + 0x5c], cx
  0x2ca3	jne    	0x2ca9
  === BLOCK LINK ===
    0x2ca5
=== CODE BLOCK END ===

=== CODE BLOCK ADDRESS 0x2ca5 ===
  0x2ca5	mov    	eax, ecx
  0x2ca7	jmp    	0x2cb7
  === BLOCK LINK ===
    0x2ca9
=== CODE BLOCK END ===

=== CODE BLOCK ADDRESS 0x2ca9 ===
  0x2ca9	cmp    	word ptr [eax + 0x5c], 3
  0x2cae	mov    	eax, 1
  0x2cb3	je     	0x2cb7
  === BLOCK LINK ===
    0x2cb5
=== CODE BLOCK END ===

=== CODE BLOCK ADDRESS 0x2cb5 ===
  0x2cb5	mov    	eax, ebx
  0x2cb7	dec    	eax
  0x2cb8	add    	esp, 0x20
  0x2cbb	pop    	ebx
  0x2cbc	ret    	
  === BLOCK LINK ===
    0x2cbd
=== CODE BLOCK END ===

=== CODE BLOCK ADDRESS 0x1728 ===
=== CODE BLOCK END ===

=== CODE BLOCK ADDRESS 0x2cbd ===
  0x2cbd	int3   	
  0x2cbe	int3   	
  0x2cbf	int3   	
  0x2cc0	int3   	
  0x2cc1	int3   	
  === BLOCK LINK ===
    0x2cc2
=== CODE BLOCK END ===

=== CODE BLOCK ADDRESS 0x2cc2 ===
  0x2cc2	int3   	
  0x2cc3	jmp    	dword ptr [0x1637]
  === BLOCK LINK ===
    0x2cc9
=== CODE BLOCK END ===

=== CODE BLOCK ADDRESS 0x2cc9 ===
  0x2cc9	int3   	
  0x2cca	int3   	
  0x2ccb	int3   	
  0x2ccc	int3   	
  0x2ccd	int3   	
  === BLOCK LINK ===
    0x2cce
=== CODE BLOCK END ===

=== CODE BLOCK ADDRESS 0x2cce ===
  0x2cce	int3   	
  0x2ccf	int3   	
  0x2cd0	xor    	eax, eax
  0x2cd2	ret    	
  0x2cd3	int3   	
  === BLOCK LINK ===
    0x2cd4
=== CODE BLOCK END ===

=== CODE BLOCK ADDRESS 0x2cd4 ===
  0x2cd4	int3   	
  0x2cd5	int3   	
  0x2cd6	int3   	
  0x2cd7	int3   	
  0x2cd8	int3   	
  === BLOCK LINK ===
    0x2cd9
=== CODE BLOCK END ===

=== CODE BLOCK ADDRESS 0x2cd9 ===
  0x2cd9	int3   	
  0x2cda	int3   	
  0x2cdb	int3   	
  0x2cdc	int3   	
  0x2cdd	int3   	
  === BLOCK LINK ===
    0x2cde
=== CODE BLOCK END ===

=== CODE BLOCK ADDRESS 0x2cde ===
  0x2cde	int3   	
  0x2cdf	int3   	
  0x2ce0	dec    	esp
  0x2ce1	arpl   	word ptr [ecx + 0x3c], ax
  0x2ce4	inc    	ebp
  === BLOCK LINK ===
    0x2ce5
=== CODE BLOCK END ===

=== CODE BLOCK ADDRESS 0x2ce5 ===
  0x2ce5	xor    	ecx, ecx
  0x2ce7	dec    	esp
  0x2ce8	add    	eax, ecx
  0x2cea	dec    	esp
  0x2ceb	mov    	edx, edx
  === BLOCK LINK ===
    0x2ced
=== CODE BLOCK END ===

=== CODE BLOCK ADDRESS 0x2ced ===
  0x2ced	inc    	ecx
  0x2cee	movzx  	eax, word ptr [eax + 0x14]
  0x2cf2	inc    	ebp
  0x2cf3	movzx  	ebx, word ptr [eax + 6]
  0x2cf7	dec    	eax
  === BLOCK LINK ===
    0x2cf8
=== CODE BLOCK END ===

=== CODE BLOCK ADDRESS 0x2cf8 ===
  0x2cf8	add    	eax, 0x18
  0x2cfb	dec    	ecx
  0x2cfc	add    	eax, eax
  0x2cfe	inc    	ebp
  0x2cff	test   	ebx, ebx
  === BLOCK LINK ===
    0x2d01
=== CODE BLOCK END ===

=== CODE BLOCK ADDRESS 0x2d01 ===
  0x2d01	je     	0x2d21
  === BLOCK LINK ===
    0x2d03
=== CODE BLOCK END ===

=== CODE BLOCK ADDRESS 0x2d03 ===
  0x2d03	mov    	edx, dword ptr [eax + 0xc]
  0x2d06	dec    	esp
  0x2d07	cmp    	edx, edx
  0x2d09	jb     	0x2d15
  === BLOCK LINK ===
    0x2d0b
=== CODE BLOCK END ===

=== CODE BLOCK ADDRESS 0x2d0b ===
  0x2d0b	mov    	ecx, dword ptr [eax + 8]
  0x2d0e	add    	ecx, edx
  0x2d10	dec    	esp
  0x2d11	cmp    	edx, ecx
  0x2d13	jb     	0x2d23
  === BLOCK LINK ===
    0x2d15
=== CODE BLOCK END ===

=== CODE BLOCK ADDRESS 0x2d15 ===
  0x2d15	inc    	ecx
  0x2d16	inc    	ecx
  0x2d18	dec    	eax
  0x2d19	add    	eax, 0x28
  0x2d1c	inc    	ebp
  === BLOCK LINK ===
    0x2d1d
=== CODE BLOCK END ===

=== CODE BLOCK ADDRESS 0x2d1d ===
  0x2d1d	cmp    	ecx, ebx
  0x2d1f	jb     	0x2d03
  === BLOCK LINK ===
    0x2d21
=== CODE BLOCK END ===

=== CODE BLOCK ADDRESS 0x2d21 ===
  0x2d21	xor    	eax, eax
  0x2d23	ret    	
  0x2d24	int3   	
  0x2d25	int3   	
  0x2d26	int3   	
  === BLOCK LINK ===
    0x2d27
=== CODE BLOCK END ===

=== CODE BLOCK ADDRESS 0x13b3 ===
  0x13b3	dec    	eax
  0x13b4	mov    	ecx, dword ptr [ebp + 0x58]
  0x13b7	dec    	eax
  0x13b8	test   	ecx, ecx
  === BLOCK LINK ===
    0x13ba
=== CODE BLOCK END ===

=== CODE BLOCK ADDRESS 0x2d27 ===
  0x2d27	int3   	
  0x2d28	int3   	
  0x2d29	int3   	
  0x2d2a	int3   	
  0x2d2b	int3   	
  === BLOCK LINK ===
    0x2d2c
=== CODE BLOCK END ===

=== CODE BLOCK ADDRESS 0x2d2c ===
  0x2d2c	int3   	
  0x2d2d	int3   	
  0x2d2e	int3   	
  0x2d2f	int3   	
  0x2d30	dec    	eax
  === BLOCK LINK ===
    0x2d31
=== CODE BLOCK END ===

=== CODE BLOCK ADDRESS 0x2d31 ===
  0x2d31	mov    	dword ptr [esp + 8], ebx
  0x2d35	push   	edi
  0x2d36	dec    	eax
  0x2d37	sub    	esp, 0x20
  0x2d3a	dec    	eax
  === BLOCK LINK ===
    0x2d3b
=== CODE BLOCK END ===

=== CODE BLOCK ADDRESS 0x2d3b ===
  0x2d3b	mov    	ebx, ecx
  0x2d3d	dec    	eax
  0x2d3e	lea    	edi, [0xffffd2bc]
  0x2d44	dec    	eax
  0x2d45	mov    	ecx, edi
  === BLOCK LINK ===
    0x2d47
=== CODE BLOCK END ===

=== CODE BLOCK ADDRESS 0x2d47 ===
  0x2d47	call   	0x2d90
  === BLOCK LINK ===
    0x2d4c
=== CODE BLOCK END ===

=== CODE BLOCK ADDRESS 0x2d4c ===
  0x2d4c	test   	eax, eax
  0x2d4e	je     	0x2d72
  === BLOCK LINK ===
    0x2d50
=== CODE BLOCK END ===

=== CODE BLOCK ADDRESS 0x2d50 ===
  0x2d50	dec    	eax
  0x2d51	sub    	ebx, edi
  0x2d53	dec    	eax
  0x2d54	mov    	edx, ebx
  0x2d56	dec    	eax
  === BLOCK LINK ===
    0x2d57
=== CODE BLOCK END ===

=== CODE BLOCK ADDRESS 0x2d57 ===
  0x2d57	mov    	ecx, edi
  0x2d59	call   	0x2ce0
  === BLOCK LINK ===
    0x2d5e
=== CODE BLOCK END ===

=== CODE BLOCK ADDRESS 0x2d5e ===
  0x2d5e	dec    	eax
  0x2d5f	test   	eax, eax
  0x2d61	je     	0x2d72
  === BLOCK LINK ===
    0x2d63
=== CODE BLOCK END ===

=== CODE BLOCK ADDRESS 0x2d63 ===
  0x2d63	mov    	eax, dword ptr [eax + 0x24]
  0x2d66	shr    	eax, 0x1f
  0x2d69	not    	eax
  0x2d6b	and    	eax, 1
  0x2d6e	jmp    	0x2d72
  === BLOCK LINK ===
    0x2d70
=== CODE BLOCK END ===

=== CODE BLOCK ADDRESS 0x2d70 ===
  0x2d70	xor    	eax, eax
  0x2d72	dec    	eax
  0x2d73	mov    	ebx, dword ptr [esp + 0x30]
  0x2d77	dec    	eax
  0x2d78	add    	esp, 0x20
  === BLOCK LINK ===
    0x2d7b
=== CODE BLOCK END ===

=== CODE BLOCK ADDRESS 0x2d7b ===
  0x2d7b	pop    	edi
  0x2d7c	ret    	
  0x2d7d	int3   	
  0x2d7e	int3   	
  0x2d7f	int3   	
  === BLOCK LINK ===
    0x2d80
=== CODE BLOCK END ===

=== CODE BLOCK ADDRESS 0x1317 ===
  0x1317	test   	dword ptr [ebx], 0x200
  0x131d	je     	0x1347
  === BLOCK LINK ===
    0x131f
=== CODE BLOCK END ===

=== CODE BLOCK ADDRESS 0x2d80 ===
  0x2d80	int3   	
  0x2d81	int3   	
  0x2d82	int3   	
  0x2d83	int3   	
  0x2d84	int3   	
  === BLOCK LINK ===
    0x2d85
=== CODE BLOCK END ===

=== CODE BLOCK ADDRESS 0x2d85 ===
  0x2d85	int3   	
  0x2d86	int3   	
  0x2d87	int3   	
  0x2d88	int3   	
  0x2d89	int3   	
  === BLOCK LINK ===
    0x2d8a
=== CODE BLOCK END ===

=== CODE BLOCK ADDRESS 0x2d8a ===
  0x2d8a	int3   	
  0x2d8b	int3   	
  0x2d8c	int3   	
  0x2d8d	int3   	
  0x2d8e	int3   	
  === BLOCK LINK ===
    0x2d8f
=== CODE BLOCK END ===

=== CODE BLOCK ADDRESS 0x2d8f ===
  0x2d8f	int3   	
  0x2d90	mov    	eax, 0x5a4d
  0x2d95	cmp    	word ptr [ecx], ax
  0x2d98	jne    	0x2dba
  === BLOCK LINK ===
    0x2d9a
=== CODE BLOCK END ===

=== CODE BLOCK ADDRESS 0x2d9a ===
  0x2d9a	dec    	eax
  0x2d9b	arpl   	word ptr [ecx + 0x3c], ax
  0x2d9e	dec    	eax
  0x2d9f	add    	eax, ecx
  0x2da1	cmp    	dword ptr [eax], 0x4550
  === BLOCK LINK ===
    0x2da7
=== CODE BLOCK END ===

=== CODE BLOCK ADDRESS 0x2da7 ===
  0x2da7	jne    	0x2dba
  === BLOCK LINK ===
    0x2da9
=== CODE BLOCK END ===

=== CODE BLOCK ADDRESS 0x2da9 ===
  0x2da9	mov    	ecx, 0x20b
  0x2dae	cmp    	word ptr [eax + 0x18], cx
  0x2db2	jne    	0x2dba
  === BLOCK LINK ===
    0x2db4
=== CODE BLOCK END ===

=== CODE BLOCK ADDRESS 0x2db4 ===
  0x2db4	mov    	eax, 1
  0x2db9	ret    	
  0x2dba	xor    	eax, eax
  0x2dbc	ret    	
  0x2dbd	int3   	
  === BLOCK LINK ===
    0x2dbe
=== CODE BLOCK END ===

=== CODE BLOCK ADDRESS 0x1810 ===
  0x1810	dec    	esp
  0x1811	mov    	ebx, esp
  0x1813	dec    	ecx
  === BLOCK LINK ===
    0x1814
=== CODE BLOCK END ===

=== CODE BLOCK ADDRESS 0x2dbe ===
  0x2dbe	int3   	
  0x2dbf	int3   	
  0x2dc0	int3   	
  0x2dc1	int3   	
  0x2dc2	int3   	
  === BLOCK LINK ===
    0x2dc3
=== CODE BLOCK END ===

=== CODE BLOCK ADDRESS 0x2dc3 ===
  0x2dc3	int3   	
  0x2dc4	dec    	eax
  0x2dc5	mov    	dword ptr [esp + 0x20], ebx
  0x2dc9	push   	ebp
  0x2dca	dec    	eax
  === BLOCK LINK ===
    0x2dcb
=== CODE BLOCK END ===

=== CODE BLOCK ADDRESS 0x2dcb ===
  0x2dcb	mov    	ebp, esp
  0x2dcd	dec    	eax
  0x2dce	sub    	esp, 0x20
  0x2dd1	dec    	eax
  0x2dd2	and    	dword ptr [ebp + 0x18], 0
  === BLOCK LINK ===
    0x2dd6
=== CODE BLOCK END ===

=== CODE BLOCK ADDRESS 0x2dd6 ===
  0x2dd6	dec    	eax
  0x2dd7	mov    	ebx, 0x2ddfa232
  0x2ddc	cdq    	
  0x2ddd	sub    	eax, dword ptr [eax]
  0x2ddf	add    	byte ptr [eax - 0x75], cl
  === BLOCK LINK ===
    0x2de2
=== CODE BLOCK END ===

=== CODE BLOCK ADDRESS 0x2de2 ===
  0x2de2	add    	eax, 0x3231
  0x2de7	dec    	eax
  0x2de8	cmp    	eax, ebx
  0x2dea	jne    	0x2e83
  === BLOCK LINK ===
    0x2df0
=== CODE BLOCK END ===

=== CODE BLOCK ADDRESS 0x2df0 ===
  0x2df0	dec    	eax
  0x2df1	lea    	ecx, [ebp + 0x18]
  0x2df4	call   	dword ptr [0x144e]
  === BLOCK LINK ===
    0x2dfa
=== CODE BLOCK END ===

=== CODE BLOCK ADDRESS 0x2dfa ===
  0x2dfa	dec    	eax
  0x2dfb	mov    	eax, dword ptr [ebp + 0x18]
  0x2dfe	dec    	eax
  0x2dff	mov    	dword ptr [ebp + 0x10], eax
  0x2e02	call   	dword ptr [0x1430]
  === BLOCK LINK ===
    0x2e08
=== CODE BLOCK END ===

=== CODE BLOCK ADDRESS 0x2e08 ===
  0x2e08	mov    	eax, eax
  0x2e0a	dec    	eax
  0x2e0b	xor    	dword ptr [ebp + 0x10], eax
  0x2e0e	call   	dword ptr [0x142c]
  === BLOCK LINK ===
    0x2e14
=== CODE BLOCK END ===

=== CODE BLOCK ADDRESS 0x2e14 ===
  0x2e14	mov    	eax, eax
  0x2e16	dec    	eax
  0x2e17	xor    	dword ptr [ebp + 0x10], eax
  0x2e1a	call   	dword ptr [0x1430]
  === BLOCK LINK ===
    0x2e20
=== CODE BLOCK END ===

=== CODE BLOCK ADDRESS 0x2e20 ===
  0x2e20	mov    	eax, eax
  0x2e22	dec    	eax
  0x2e23	shl    	eax, 0x18
  0x2e26	dec    	eax
  0x2e27	xor    	dword ptr [ebp + 0x10], eax
  === BLOCK LINK ===
    0x2e2a
=== CODE BLOCK END ===

=== CODE BLOCK ADDRESS 0x2e2a ===
  0x2e2a	call   	dword ptr [0x1420]
  === BLOCK LINK ===
    0x2e30
=== CODE BLOCK END ===

=== CODE BLOCK ADDRESS 0x2e30 ===
  0x2e30	mov    	eax, eax
  0x2e32	dec    	eax
  0x2e33	lea    	ecx, [ebp + 0x10]
  0x2e36	dec    	eax
  0x2e37	xor    	eax, dword ptr [ebp + 0x10]
  === BLOCK LINK ===
    0x2e3a
=== CODE BLOCK END ===

=== CODE BLOCK ADDRESS 0x2e3a ===
  0x2e3a	dec    	eax
  0x2e3b	xor    	eax, ecx
  0x2e3d	dec    	eax
  0x2e3e	lea    	ecx, [ebp + 0x20]
  0x2e41	dec    	eax
  === BLOCK LINK ===
    0x2e42
=== CODE BLOCK END ===

=== CODE BLOCK ADDRESS 0x2e42 ===
  0x2e42	mov    	dword ptr [ebp + 0x10], eax
  0x2e45	call   	dword ptr [0x13e5]
  === BLOCK LINK ===
    0x2e4b
=== CODE BLOCK END ===

=== CODE BLOCK ADDRESS 0x2e4b ===
  0x2e4b	mov    	eax, dword ptr [ebp + 0x20]
  0x2e4e	dec    	eax
  0x2e4f	mov    	ecx, 0xffffffff
  0x2e54	.byte  	0xff
  0x2e55	inc    	dword ptr [eax]
  === BLOCK LINK ===
    0x2e57
=== CODE BLOCK END ===

=== CODE BLOCK ADDRESS 0x2e57 ===
  0x2e57	add    	byte ptr [eax - 0x3f], cl
  0x2e5a	loopne  	0x2e7c
  === BLOCK LINK ===
    0x2e5c
=== CODE BLOCK END ===

=== CODE BLOCK ADDRESS 0x2e5c ===
  0x2e5c	dec    	eax
  0x2e5d	xor    	eax, dword ptr [ebp + 0x20]
  0x2e60	dec    	eax
  0x2e61	xor    	eax, dword ptr [ebp + 0x10]
  0x2e64	dec    	eax
  === BLOCK LINK ===
    0x2e65
=== CODE BLOCK END ===

=== CODE BLOCK ADDRESS 0x2e65 ===
  0x2e65	and    	eax, ecx
  0x2e67	dec    	eax
  0x2e68	mov    	ecx, eax
  0x2e6a	dec    	eax
  0x2e6b	cmp    	eax, ebx
  === BLOCK LINK ===
    0x2e6d
=== CODE BLOCK END ===

=== CODE BLOCK ADDRESS 0x2e6d ===
  0x2e6d	jne    	0x2e7c
  === BLOCK LINK ===
    0x2e6f
=== CODE BLOCK END ===

=== CODE BLOCK ADDRESS 0x2e6f ===
  0x2e6f	dec    	eax
  0x2e70	mov    	eax, 0x2ddfa233
  0x2e75	cdq    	
  0x2e76	sub    	eax, dword ptr [eax]
  0x2e78	add    	byte ptr [eax - 0x75], cl
  === BLOCK LINK ===
    0x2e7b
=== CODE BLOCK END ===

=== CODE BLOCK ADDRESS 0x2e7b ===
  0x2e7b	enter  	-0x76b8, 0xd
  0x2e7f	xchg   	eax, ebp
  0x2e80	xor    	dword ptr [eax], eax
  0x2e82	add    	byte ptr [eax - 0x75], cl
  0x2e85	pop    	esp
  === BLOCK LINK ===
    0x2e86
=== CODE BLOCK END ===

=== CODE BLOCK ADDRESS 0x2e86 ===
  0x2e86	and    	al, 0x48
  0x2e88	dec    	eax
  0x2e89	not    	eax
  0x2e8b	dec    	eax
  0x2e8c	mov    	dword ptr [0x318e], eax
  === BLOCK LINK ===
    0x2e92
=== CODE BLOCK END ===

=== CODE BLOCK ADDRESS 0x2e92 ===
  0x2e92	dec    	eax
  0x2e93	add    	esp, 0x20
  0x2e96	pop    	ebp
  0x2e97	ret    	
  0x2e98	int3   	
  === BLOCK LINK ===
    0x2e99
=== CODE BLOCK END ===

=== CODE BLOCK ADDRESS 0x1347 ===
  0x1347	test   	byte ptr [ebx], 0x80
  0x134a	je     	0x1374
  === BLOCK LINK ===
    0x134c
=== CODE BLOCK END ===

=== CODE BLOCK ADDRESS 0x2e99 ===
  0x2e99	int3   	
  0x2e9a	int3   	
  0x2e9b	int3   	
  0x2e9c	int3   	
  0x2e9d	int3   	
  === BLOCK LINK ===
    0x2e9e
=== CODE BLOCK END ===

=== CODE BLOCK ADDRESS 0x2e9e ===
  0x2e9e	jmp    	dword ptr [0x140c]
  === BLOCK LINK ===
    0x2ea4
=== CODE BLOCK END ===

=== CODE BLOCK ADDRESS 0x2ea4 ===
  0x2ea4	int3   	
  0x2ea5	int3   	
  0x2ea6	int3   	
  0x2ea7	int3   	
  0x2ea8	int3   	
  === BLOCK LINK ===
    0x2ea9
=== CODE BLOCK END ===

=== CODE BLOCK ADDRESS 0x2ea9 ===
  0x2ea9	int3   	
  0x2eaa	jmp    	dword ptr [0x1410]
  === BLOCK LINK ===
    0x2eb0
=== CODE BLOCK END ===

=== CODE BLOCK ADDRESS 0x2eb0 ===
  0x2eb0	int3   	
  0x2eb1	int3   	
  0x2eb2	int3   	
  0x2eb3	int3   	
  0x2eb4	int3   	
  === BLOCK LINK ===
    0x2eb5
=== CODE BLOCK END ===

=== CODE BLOCK ADDRESS 0x2eb5 ===
  0x2eb5	int3   	
  0x2eb6	int3   	
  0x2eb7	int3   	
  0x2eb8	int3   	
  0x2eb9	int3   	
  === BLOCK LINK ===
    0x2eba
=== CODE BLOCK END ===

=== CODE BLOCK ADDRESS 0x2eba ===
  0x2eba	int3   	
  0x2ebb	int3   	
  0x2ebc	int3   	
  0x2ebd	int3   	
  0x2ebe	int3   	
  === BLOCK LINK ===
    0x2ebf
=== CODE BLOCK END ===

=== CODE BLOCK ADDRESS 0x2ebf ===
  0x2ebf	int3   	
  0x2ec0	ret    	0
  0x2ec3	int3   	
  0x2ec4	int3   	
  0x2ec5	int3   	
  === BLOCK LINK ===
    0x2ec6
=== CODE BLOCK END ===

=== CODE BLOCK ADDRESS 0x2ec6 ===
  0x2ec6	int3   	
  0x2ec7	int3   	
  0x2ec8	int3   	
  0x2ec9	int3   	
  0x2eca	int3   	
  === BLOCK LINK ===
    0x2ecb
=== CODE BLOCK END ===

=== CODE BLOCK ADDRESS 0x2ecb ===
  0x2ecb	int3   	
  0x2ecc	inc    	eax
  0x2ecd	push   	ebx
  0x2ece	dec    	eax
  0x2ecf	sub    	esp, 0x20
  === BLOCK LINK ===
    0x2ed2
=== CODE BLOCK END ===

=== CODE BLOCK ADDRESS 0x2ed2 ===
  0x2ed2	dec    	eax
  0x2ed3	mov    	ebx, ecx
  0x2ed5	xor    	ecx, ecx
  0x2ed7	call   	dword ptr [0x1343]
  === BLOCK LINK ===
    0x2edd
=== CODE BLOCK END ===

=== CODE BLOCK ADDRESS 0x2edd ===
  0x2edd	dec    	eax
  0x2ede	mov    	ecx, ebx
  0x2ee0	call   	dword ptr [0x132a]
  === BLOCK LINK ===
    0x2ee6
=== CODE BLOCK END ===

=== CODE BLOCK ADDRESS 0x2ee6 ===
  0x2ee6	call   	dword ptr [0x12f4]
  === BLOCK LINK ===
    0x2eec
=== CODE BLOCK END ===

=== CODE BLOCK ADDRESS 0x2eec ===
  0x2eec	dec    	eax
  0x2eed	mov    	ecx, eax
  0x2eef	mov    	edx, 0xc0000409
  0x2ef4	dec    	eax
  0x2ef5	add    	esp, 0x20
  === BLOCK LINK ===
    0x2ef8
=== CODE BLOCK END ===

=== CODE BLOCK ADDRESS 0x2ef8 ===
  0x2ef8	pop    	ebx
  0x2ef9	dec    	eax
  0x2efa	jmp    	dword ptr [0x12d8]
  === BLOCK LINK ===
    0x2f00
=== CODE BLOCK END ===

=== CODE BLOCK ADDRESS 0x2f00 ===
  0x2f00	int3   	
  0x2f01	int3   	
  0x2f02	int3   	
  0x2f03	int3   	
  0x2f04	int3   	
  === BLOCK LINK ===
    0x2f05
=== CODE BLOCK END ===

=== CODE BLOCK ADDRESS 0x2f05 ===
  0x2f05	int3   	
  0x2f06	int3   	
  0x2f07	int3   	
  0x2f08	int3   	
  0x2f09	int3   	
  === BLOCK LINK ===
    0x2f0a
=== CODE BLOCK END ===

=== CODE BLOCK ADDRESS 0x2f0a ===
  0x2f0a	int3   	
  0x2f0b	int3   	
  0x2f0c	int3   	
  0x2f0d	int3   	
  0x2f0e	int3   	
  === BLOCK LINK ===
    0x2f0f
=== CODE BLOCK END ===

=== CODE BLOCK ADDRESS 0x2f0f ===
  0x2f0f	int3   	
  0x2f10	dec    	eax
  0x2f11	mov    	dword ptr [esp + 8], ecx
  0x2f15	dec    	eax
  0x2f16	sub    	esp, 0x88
  === BLOCK LINK ===
    0x2f1c
=== CODE BLOCK END ===

=== CODE BLOCK ADDRESS 0x2f1c ===
  0x2f1c	dec    	eax
  0x2f1d	lea    	ecx, [0x31fd]
  0x2f23	call   	dword ptr [0x132f]
  === BLOCK LINK ===
    0x2f29
=== CODE BLOCK END ===

=== CODE BLOCK ADDRESS 0x2f29 ===
  0x2f29	dec    	eax
  0x2f2a	mov    	eax, dword ptr [0x32e8]
  0x2f30	dec    	eax
  0x2f31	mov    	dword ptr [esp + 0x48], eax
  0x2f35	inc    	ebp
  === BLOCK LINK ===
    0x2f36
=== CODE BLOCK END ===

=== CODE BLOCK ADDRESS 0x2f36 ===
  0x2f36	xor    	eax, eax
  0x2f38	dec    	eax
  0x2f39	lea    	edx, [esp + 0x50]
  0x2f3d	dec    	eax
  0x2f3e	mov    	ecx, dword ptr [esp + 0x48]
  === BLOCK LINK ===
    0x2f42
=== CODE BLOCK END ===

=== CODE BLOCK ADDRESS 0x2f42 ===
  0x2f42	call   	dword ptr [0x12b0]
  === BLOCK LINK ===
    0x2f48
=== CODE BLOCK END ===

=== CODE BLOCK ADDRESS 0x2f48 ===
  0x2f48	dec    	eax
  0x2f49	mov    	dword ptr [esp + 0x40], eax
  0x2f4d	dec    	eax
  0x2f4e	cmp    	dword ptr [esp + 0x40], 0
  0x2f53	je     	0x2f97
  === BLOCK LINK ===
    0x2f55
=== CODE BLOCK END ===

=== CODE BLOCK ADDRESS 0x2f55 ===
  0x2f55	dec    	eax
  0x2f56	mov    	dword ptr [esp + 0x38], 0
  0x2f5e	dec    	eax
  0x2f5f	lea    	eax, [esp + 0x58]
  0x2f63	dec    	eax
  === BLOCK LINK ===
    0x2f64
=== CODE BLOCK END ===

=== CODE BLOCK ADDRESS 0x2f64 ===
  0x2f64	mov    	dword ptr [esp + 0x30], eax
  0x2f68	dec    	eax
  0x2f69	lea    	eax, [esp + 0x60]
  0x2f6d	dec    	eax
  0x2f6e	mov    	dword ptr [esp + 0x28], eax
  === BLOCK LINK ===
    0x2f72
=== CODE BLOCK END ===

=== CODE BLOCK ADDRESS 0x2f72 ===
  0x2f72	dec    	eax
  0x2f73	lea    	eax, [0x31a7]
  0x2f79	dec    	eax
  0x2f7a	mov    	dword ptr [esp + 0x20], eax
  0x2f7e	dec    	esp
  === BLOCK LINK ===
    0x2f7f
=== CODE BLOCK END ===

=== CODE BLOCK ADDRESS 0x2f7f ===
  0x2f7f	mov    	ecx, dword ptr [esp + 0x40]
  0x2f83	dec    	esp
  0x2f84	mov    	eax, dword ptr [esp + 0x48]
  0x2f88	dec    	eax
  0x2f89	mov    	edx, dword ptr [esp + 0x50]
  === BLOCK LINK ===
    0x2f8d
=== CODE BLOCK END ===

=== CODE BLOCK ADDRESS 0x2f8d ===
  0x2f8d	xor    	ecx, ecx
  0x2f8f	call   	dword ptr [0x1253]
  === BLOCK LINK ===
    0x2f95
=== CODE BLOCK END ===

=== CODE BLOCK ADDRESS 0x2f95 ===
  0x2f95	jmp    	0x2fba
  === BLOCK LINK ===
    0x2f97
=== CODE BLOCK END ===

=== CODE BLOCK ADDRESS 0x2f97 ===
  0x2f97	dec    	eax
  0x2f98	mov    	eax, dword ptr [0x321a]
  0x2f9e	dec    	eax
  0x2f9f	mov    	eax, dword ptr [eax]
  0x2fa1	dec    	eax
  === BLOCK LINK ===
    0x2fa2
=== CODE BLOCK END ===

=== CODE BLOCK ADDRESS 0x2fa2 ===
  0x2fa2	mov    	dword ptr [0x3270], eax
  0x2fa8	dec    	eax
  0x2fa9	mov    	eax, dword ptr [0x3209]
  0x2faf	dec    	eax
  0x2fb0	add    	eax, 8
  === BLOCK LINK ===
    0x2fb3
=== CODE BLOCK END ===

=== CODE BLOCK ADDRESS 0x2fb3 ===
  0x2fb3	dec    	eax
  0x2fb4	mov    	dword ptr [0x31fe], eax
  0x2fba	dec    	eax
  0x2fbb	mov    	eax, dword ptr [0x3257]
  0x2fc1	dec    	eax
  === BLOCK LINK ===
    0x2fc2
=== CODE BLOCK END ===

=== CODE BLOCK ADDRESS 0x2fc2 ===
  0x2fc2	mov    	dword ptr [0x30c8], eax
  0x2fc8	dec    	eax
  0x2fc9	mov    	eax, dword ptr [esp + 0x90]
  0x2fd0	dec    	eax
  0x2fd1	mov    	dword ptr [0x31c9], eax
  === BLOCK LINK ===
    0x2fd7
=== CODE BLOCK END ===

=== CODE BLOCK ADDRESS 0x2fd7 ===
  0x2fd7	mov    	dword ptr [0x309f], 0xc0000409
  0x2fe1	mov    	dword ptr [0x3099], 1
  0x2feb	mov    	dword ptr [0x30a3], 3
  0x2ff5	mov    	eax, 8
  0x2ffa	dec    	eax
  === BLOCK LINK ===
    0x2ffb
=== CODE BLOCK END ===

=== CODE BLOCK ADDRESS 0x2ffb ===
  0x2ffb	imul   	eax, eax, 0
  0x2ffe	dec    	eax
  0x2fff	lea    	ecx, [0x309b]
  0x3005	dec    	eax
  0x3006	mov    	dword ptr [ecx + eax], 2
  === BLOCK LINK ===
    0x300d
=== CODE BLOCK END ===

=== CODE BLOCK ADDRESS 0x300d ===
  0x300d	mov    	eax, 8
  0x3012	dec    	eax
  0x3013	imul   	eax, eax, 1
  0x3016	dec    	eax
  0x3017	lea    	ecx, [0x3083]
  === BLOCK LINK ===
    0x301d
=== CODE BLOCK END ===

=== CODE BLOCK ADDRESS 0x301d ===
  0x301d	dec    	eax
  0x301e	mov    	edx, dword ptr [0x2ff4]
  0x3024	dec    	eax
  0x3025	mov    	dword ptr [ecx + eax], edx
  0x3028	mov    	eax, 8
  === BLOCK LINK ===
    0x302d
=== CODE BLOCK END ===

=== CODE BLOCK ADDRESS 0x302d ===
  0x302d	dec    	eax
  0x302e	imul   	eax, eax, 2
  0x3031	dec    	eax
  0x3032	lea    	ecx, [0x3068]
  0x3038	dec    	eax
  === BLOCK LINK ===
    0x3039
=== CODE BLOCK END ===

=== CODE BLOCK ADDRESS 0x3039 ===
  0x3039	mov    	edx, dword ptr [0x2fe1]
  0x303f	dec    	eax
  0x3040	mov    	dword ptr [ecx + eax], edx
  0x3043	mov    	eax, 8
  0x3048	dec    	eax
  === BLOCK LINK ===
    0x3049
=== CODE BLOCK END ===

=== CODE BLOCK ADDRESS 0x3049 ===
  0x3049	imul   	eax, eax, 0
  0x304c	dec    	eax
  0x304d	mov    	ecx, dword ptr [0x2fc5]
  0x3053	dec    	eax
  0x3054	mov    	dword ptr [esp + eax + 0x68], ecx
  === BLOCK LINK ===
    0x3058
=== CODE BLOCK END ===

=== CODE BLOCK ADDRESS 0x3058 ===
  0x3058	mov    	eax, 8
  0x305d	dec    	eax
  0x305e	imul   	eax, eax, 1
  0x3061	dec    	eax
  0x3062	mov    	ecx, dword ptr [0x2fb8]
  === BLOCK LINK ===
    0x3068
=== CODE BLOCK END ===

=== CODE BLOCK ADDRESS 0x3068 ===
  0x3068	dec    	eax
  0x3069	mov    	dword ptr [esp + eax + 0x68], ecx
  0x306d	dec    	eax
  0x306e	lea    	ecx, [0xf8c]
  0x3074	call   	0x2ecc
  === BLOCK LINK ===
    0x3079
=== CODE BLOCK END ===

=== CODE BLOCK ADDRESS 0x3079 ===
  0x3079	dec    	eax
  0x307a	add    	esp, 0x88
  0x3080	ret    	
  0x3081	int3   	
  0x3082	int3   	
  === BLOCK LINK ===
    0x3083
=== CODE BLOCK END ===

=== CODE BLOCK ADDRESS 0x3083 ===
  0x3083	int3   	
  0x3084	int3   	
  0x3085	int3   	
  0x3086	int3   	
  0x3087	int3   	
  === BLOCK LINK ===
    0x3088
=== CODE BLOCK END ===

=== CODE BLOCK ADDRESS 0x3088 ===
  0x3088	dec    	eax
  0x3089	sub    	esp, 0x78
  0x308c	dec    	eax
  0x308d	lea    	ecx, [0x308d]
  0x3093	call   	dword ptr [0x11bf]
  === BLOCK LINK ===
    0x3099
=== CODE BLOCK END ===

=== CODE BLOCK ADDRESS 0x3099 ===
  0x3099	dec    	eax
  0x309a	mov    	eax, dword ptr [0x3178]
  0x30a0	dec    	eax
  0x30a1	mov    	dword ptr [esp + 0x48], eax
  0x30a5	inc    	ebp
  === BLOCK LINK ===
    0x30a6
=== CODE BLOCK END ===

=== CODE BLOCK ADDRESS 0x30a6 ===
  0x30a6	xor    	eax, eax
  0x30a8	dec    	eax
  0x30a9	lea    	edx, [esp + 0x50]
  0x30ad	dec    	eax
  0x30ae	mov    	ecx, dword ptr [esp + 0x48]
  === BLOCK LINK ===
    0x30b2
=== CODE BLOCK END ===

=== CODE BLOCK ADDRESS 0x30b2 ===
  0x30b2	call   	dword ptr [0x1140]
  === BLOCK LINK ===
    0x30b8
=== CODE BLOCK END ===

=== CODE BLOCK ADDRESS 0x30b8 ===
  0x30b8	dec    	eax
  0x30b9	mov    	dword ptr [esp + 0x40], eax
  0x30bd	dec    	eax
  0x30be	cmp    	dword ptr [esp + 0x40], 0
  0x30c3	je     	0x3107
  === BLOCK LINK ===
    0x30c5
=== CODE BLOCK END ===

=== CODE BLOCK ADDRESS 0x30c5 ===
  0x30c5	dec    	eax
  0x30c6	mov    	dword ptr [esp + 0x38], 0
  0x30ce	dec    	eax
  0x30cf	lea    	eax, [esp + 0x58]
  0x30d3	dec    	eax
  === BLOCK LINK ===
    0x30d4
=== CODE BLOCK END ===

=== CODE BLOCK ADDRESS 0x30d4 ===
  0x30d4	mov    	dword ptr [esp + 0x30], eax
  0x30d8	dec    	eax
  0x30d9	lea    	eax, [esp + 0x60]
  0x30dd	dec    	eax
  0x30de	mov    	dword ptr [esp + 0x28], eax
  === BLOCK LINK ===
    0x30e2
=== CODE BLOCK END ===

=== CODE BLOCK ADDRESS 0x30e2 ===
  0x30e2	dec    	eax
  0x30e3	lea    	eax, [0x3037]
  0x30e9	dec    	eax
  0x30ea	mov    	dword ptr [esp + 0x20], eax
  0x30ee	dec    	esp
  === BLOCK LINK ===
    0x30ef
=== CODE BLOCK END ===

=== CODE BLOCK ADDRESS 0x30ef ===
  0x30ef	mov    	ecx, dword ptr [esp + 0x40]
  0x30f3	dec    	esp
  0x30f4	mov    	eax, dword ptr [esp + 0x48]
  0x30f8	dec    	eax
  0x30f9	mov    	edx, dword ptr [esp + 0x50]
  === BLOCK LINK ===
    0x30fd
=== CODE BLOCK END ===

=== CODE BLOCK ADDRESS 0x30fd ===
  0x30fd	xor    	ecx, ecx
  0x30ff	call   	dword ptr [0x10e3]
  === BLOCK LINK ===
    0x3105
=== CODE BLOCK END ===

=== CODE BLOCK ADDRESS 0x3105 ===
  0x3105	jmp    	0x312a
  === BLOCK LINK ===
    0x3107
=== CODE BLOCK END ===

=== CODE BLOCK ADDRESS 0x3107 ===
  0x3107	dec    	eax
  0x3108	mov    	eax, dword ptr [0x30aa]
  0x310e	dec    	eax
  0x310f	mov    	eax, dword ptr [eax]
  0x3111	dec    	eax
  === BLOCK LINK ===
    0x3112
=== CODE BLOCK END ===

=== CODE BLOCK ADDRESS 0x3112 ===
  0x3112	mov    	dword ptr [0x3100], eax
  0x3118	dec    	eax
  0x3119	mov    	eax, dword ptr [0x3099]
  0x311f	dec    	eax
  0x3120	add    	eax, 8
  === BLOCK LINK ===
    0x3123
=== CODE BLOCK END ===

=== CODE BLOCK ADDRESS 0x3123 ===
  0x3123	dec    	eax
  0x3124	mov    	dword ptr [0x308e], eax
  0x312a	dec    	eax
  0x312b	mov    	eax, dword ptr [0x30e7]
  0x3131	dec    	eax
  === BLOCK LINK ===
    0x3132
=== CODE BLOCK END ===

=== CODE BLOCK ADDRESS 0x3132 ===
  0x3132	mov    	dword ptr [0x2f58], eax
  0x3138	mov    	dword ptr [0x2f3e], 0xc0000409
  0x3142	mov    	dword ptr [0x2f38], 1
  0x314c	mov    	dword ptr [0x2f42], 1
  0x3156	mov    	eax, 8
  === BLOCK LINK ===
    0x315b
=== CODE BLOCK END ===

=== CODE BLOCK ADDRESS 0x315b ===
  0x315b	dec    	eax
  0x315c	imul   	eax, eax, 0
  0x315f	dec    	eax
  0x3160	lea    	ecx, [0x2f3a]
  0x3166	dec    	eax
  === BLOCK LINK ===
    0x3167
=== CODE BLOCK END ===

=== CODE BLOCK ADDRESS 0x3167 ===
  0x3167	mov    	dword ptr [ecx + eax], 8
  0x316e	dec    	eax
  0x316f	lea    	ecx, [0xe8b]
  0x3175	call   	0x2ecc
  === BLOCK LINK ===
    0x317a
=== CODE BLOCK END ===

=== CODE BLOCK ADDRESS 0x317a ===
  0x317a	dec    	eax
  0x317b	add    	esp, 0x78
  0x317e	ret    	
  0x317f	int3   	
  0x3180	int3   	
  === BLOCK LINK ===
    0x3181
=== CODE BLOCK END ===

=== CODE BLOCK ADDRESS 0x1374 ===
  0x1374	test   	dword ptr [ebx], 0x100
  0x137a	je     	0x13a4
  === BLOCK LINK ===
    0x137c
=== CODE BLOCK END ===

=== CODE BLOCK ADDRESS 0x3181 ===
  0x3181	int3   	
  0x3182	int3   	
  0x3183	int3   	
  0x3184	int3   	
  0x3185	int3   	
  === BLOCK LINK ===
    0x3186
=== CODE BLOCK END ===

=== CODE BLOCK ADDRESS 0x3186 ===
  0x3186	int3   	
  0x3187	int3   	
  0x3188	dec    	eax
  0x3189	sub    	esp, 0x28
  0x318c	dec    	ebp
  === BLOCK LINK ===
    0x318d
=== CODE BLOCK END ===

=== CODE BLOCK ADDRESS 0x318d ===
  0x318d	mov    	eax, dword ptr [ecx + 0x38]
  0x3190	dec    	eax
  0x3191	mov    	ecx, edx
  0x3193	dec    	ecx
  0x3194	mov    	edx, ecx
  === BLOCK LINK ===
    0x3196
=== CODE BLOCK END ===

=== CODE BLOCK ADDRESS 0x3196 ===
  0x3196	call   	0x31ac
  === BLOCK LINK ===
    0x319b
=== CODE BLOCK END ===

=== CODE BLOCK ADDRESS 0x319b ===
  0x319b	mov    	eax, 1
  0x31a0	dec    	eax
  0x31a1	add    	esp, 0x28
  0x31a4	ret    	
  0x31a5	int3   	
  === BLOCK LINK ===
    0x31a6
=== CODE BLOCK END ===

=== CODE BLOCK ADDRESS 0x1888 ===
  0x1888	dec    	eax
  0x1889	mov    	dword ptr [esp + 8], ebx
  0x188d	push   	edi
  === BLOCK LINK ===
    0x188e
=== CODE BLOCK END ===

=== CODE BLOCK ADDRESS 0x31a6 ===
  0x31a6	int3   	
  0x31a7	int3   	
  0x31a8	int3   	
  0x31a9	int3   	
  0x31aa	int3   	
  === BLOCK LINK ===
    0x31ab
=== CODE BLOCK END ===

=== CODE BLOCK ADDRESS 0x31ab ===
  0x31ab	int3   	
  0x31ac	inc    	eax
  0x31ad	push   	ebx
  0x31ae	inc    	ebp
  0x31af	mov    	ebx, dword ptr [eax]
  === BLOCK LINK ===
    0x31b1
=== CODE BLOCK END ===

=== CODE BLOCK ADDRESS 0x31b1 ===
  0x31b1	dec    	eax
  0x31b2	mov    	ebx, edx
  0x31b4	inc    	ecx
  0x31b5	and    	ebx, 0xfffffff8
  0x31b8	dec    	esp
  === BLOCK LINK ===
    0x31b9
=== CODE BLOCK END ===

=== CODE BLOCK ADDRESS 0x31b9 ===
  0x31b9	mov    	ecx, ecx
  0x31bb	inc    	ecx
  0x31bc	test   	byte ptr [eax], 4
  0x31bf	dec    	esp
  0x31c0	mov    	edx, ecx
  === BLOCK LINK ===
    0x31c2
=== CODE BLOCK END ===

=== CODE BLOCK ADDRESS 0x31c2 ===
  0x31c2	je     	0x31d7
  === BLOCK LINK ===
    0x31c4
=== CODE BLOCK END ===

=== CODE BLOCK ADDRESS 0x31c4 ===
  0x31c4	inc    	ecx
  0x31c5	mov    	eax, dword ptr [eax + 8]
  0x31c8	dec    	ebp
  0x31c9	arpl   	word ptr [eax + 4], dx
  0x31cc	neg    	eax
  === BLOCK LINK ===
    0x31ce
=== CODE BLOCK END ===

=== CODE BLOCK ADDRESS 0x31ce ===
  0x31ce	dec    	esp
  0x31cf	add    	edx, ecx
  0x31d1	dec    	eax
  0x31d2	arpl   	ax, cx
  0x31d4	dec    	esp
  === BLOCK LINK ===
    0x31d5
=== CODE BLOCK END ===

=== CODE BLOCK ADDRESS 0x31d5 ===
  0x31d5	and    	edx, ecx
  0x31d7	dec    	ecx
  0x31d8	arpl   	bx, ax
  0x31da	dec    	edx
  0x31db	mov    	edx, dword ptr [eax + edx]
  === BLOCK LINK ===
    0x31de
=== CODE BLOCK END ===

=== CODE BLOCK ADDRESS 0x31de ===
  0x31de	dec    	eax
  0x31df	mov    	eax, dword ptr [ebx + 0x10]
  0x31e2	mov    	ecx, dword ptr [eax + 8]
  0x31e5	dec    	eax
  0x31e6	mov    	eax, dword ptr [ebx + 8]
  === BLOCK LINK ===
    0x31e9
=== CODE BLOCK END ===

=== CODE BLOCK ADDRESS 0x31e9 ===
  0x31e9	test   	byte ptr [ecx + eax + 3], 0xf
  0x31ee	je     	0x31fb
  === BLOCK LINK ===
    0x31f0
=== CODE BLOCK END ===

=== CODE BLOCK ADDRESS 0x31f0 ===
  0x31f0	movzx  	eax, byte ptr [ecx + eax + 3]
  0x31f5	and    	eax, 0xfffffff0
  0x31f8	dec    	esp
  0x31f9	add    	ecx, eax
  0x31fb	dec    	esp
  === BLOCK LINK ===
    0x31fc
=== CODE BLOCK END ===

=== CODE BLOCK ADDRESS 0x31fc ===
  0x31fc	xor    	ecx, edx
  0x31fe	dec    	ecx
  0x31ff	mov    	ecx, ecx
  0x3201	pop    	ebx
  0x3202	jmp    	0x2b80
  === BLOCK LINK ===
    0x3207
=== CODE BLOCK END ===

=== CODE BLOCK ADDRESS 0x3207 ===
  0x3207	int3   	
  0x3208	int3   	
  0x3209	int3   	
  0x320a	int3   	
  0x320b	int3   	
  === BLOCK LINK ===
    0x320c
=== CODE BLOCK END ===

=== CODE BLOCK ADDRESS 0x320c ===
  0x320c	int3   	
  0x320d	int3   	
  0x320e	int3   	
  0x320f	int3   	
  0x3210	int3   	
  === BLOCK LINK ===
    0x3211
=== CODE BLOCK END ===

=== CODE BLOCK ADDRESS 0x3211 ===
  0x3211	int3   	
  0x3212	int3   	
  0x3213	int3   	
  0x3214	int3   	
  0x3215	int3   	
  === BLOCK LINK ===
    0x3216
=== CODE BLOCK END ===

=== CODE BLOCK ADDRESS 0x3216 ===
  0x3216	jmp    	dword ptr [0x109c]
  === BLOCK LINK ===
    0x321c
=== CODE BLOCK END ===

=== CODE BLOCK ADDRESS 0x321c ===
  0x321c	int3   	
  0x321d	int3   	
  0x321e	int3   	
  0x321f	int3   	
  0x3220	int3   	
  === BLOCK LINK ===
    0x3221
=== CODE BLOCK END ===

=== CODE BLOCK ADDRESS 0x3221 ===
  0x3221	int3   	
  0x3222	jmp    	dword ptr [0x10e8]
  === BLOCK LINK ===
    0x3228
=== CODE BLOCK END ===

=== CODE BLOCK ADDRESS 0x3228 ===
  0x3228	int3   	
  0x3229	int3   	
  0x322a	int3   	
  0x322b	int3   	
  0x322c	int3   	
  === BLOCK LINK ===
    0x322d
=== CODE BLOCK END ===

=== CODE BLOCK ADDRESS 0x322d ===
  0x322d	int3   	
  0x322e	int3   	
  0x322f	int3   	
  0x3230	int3   	
  0x3231	int3   	
  === BLOCK LINK ===
    0x3232
=== CODE BLOCK END ===

=== CODE BLOCK ADDRESS 0x3232 ===
  0x3232	int3   	
  0x3233	int3   	
  0x3234	int3   	
  0x3235	int3   	
  0x3236	nop    	word ptr [eax + eax]
  === BLOCK LINK ===
    0x3240
=== CODE BLOCK END ===

=== CODE BLOCK ADDRESS 0x3240 ===
  0x3240	jmp    	eax
  === BLOCK LINK ===
    0x3242
=== CODE BLOCK END ===

=== CODE BLOCK ADDRESS 0x3242 ===
  0x3242	int3   	
  0x3243	int3   	
  0x3244	int3   	
  0x3245	int3   	
  0x3246	int3   	
  === BLOCK LINK ===
    0x3247
=== CODE BLOCK END ===

=== CODE BLOCK ADDRESS 0x3247 ===
  0x3247	int3   	
  0x3248	int3   	
  0x3249	int3   	
  0x324a	int3   	
  0x324b	int3   	
  === BLOCK LINK ===
    0x324c
=== CODE BLOCK END ===

=== CODE BLOCK ADDRESS 0x324c ===
  0x324c	int3   	
  0x324d	int3   	
  0x324e	int3   	
  0x324f	int3   	
  0x3250	int3   	
  === BLOCK LINK ===
    0x3251
=== CODE BLOCK END ===

=== CODE BLOCK ADDRESS 0x3251 ===
  0x3251	int3   	
  0x3252	int3   	
  0x3253	int3   	
  0x3254	int3   	
  0x3255	int3   	
  === BLOCK LINK ===
    0x3256
=== CODE BLOCK END ===

=== CODE BLOCK ADDRESS 0x3256 ===
  0x3256	nop    	word ptr [eax + eax]
  0x3260	dec    	eax
  0x3261	sub    	esp, 0x10
  0x3264	dec    	esp
  0x3265	mov    	dword ptr [esp], edx
  === BLOCK LINK ===
    0x3268
=== CODE BLOCK END ===

=== CODE BLOCK ADDRESS 0x3268 ===
  0x3268	dec    	esp
  0x3269	mov    	dword ptr [esp + 8], ebx
  0x326d	dec    	ebp
  0x326e	xor    	ebx, ebx
  0x3270	dec    	esp
  === BLOCK LINK ===
    0x3271
=== CODE BLOCK END ===

=== CODE BLOCK ADDRESS 0x3271 ===
  0x3271	lea    	edx, [esp + 0x18]
  0x3275	dec    	esp
  0x3276	sub    	edx, eax
  0x3278	dec    	ebp
  0x3279	cmovb  	edx, ebx
  === BLOCK LINK ===
    0x327c
=== CODE BLOCK END ===

=== CODE BLOCK ADDRESS 0x327c ===
  0x327c	dec    	esp
  0x327e	mov    	ebx, dword ptr [0x10]
  0x3285	dec    	ebp
  0x3286	cmp    	edx, ebx
  0x3288	jae    	0x329f
  === BLOCK LINK ===
    0x328a
=== CODE BLOCK END ===

=== CODE BLOCK ADDRESS 0x328a ===
  0x328a	inc    	cx
  0x328c	and    	edx, 0x8d4df000
  0x3292	wait   	
  0x3293	add    	al, dh
  0x3295	.byte  	0xff
  === BLOCK LINK ===
    0x3296
=== CODE BLOCK END ===

=== CODE BLOCK ADDRESS 0x3296 ===
  0x3296	inc    	dword ptr [ebp - 0x7c]
  0x3299	sbb    	ecx, dword ptr [ebp + 0x3b]
  0x329c	sal    	dword ptr [edx - 0xf], cl
  0x329f	dec    	esp
  0x32a0	mov    	edx, dword ptr [esp]
  === BLOCK LINK ===
    0x32a3
=== CODE BLOCK END ===

=== CODE BLOCK ADDRESS 0x32a3 ===
  0x32a3	dec    	esp
  0x32a4	mov    	ebx, dword ptr [esp + 8]
  0x32a8	dec    	eax
  0x32a9	add    	esp, 0x10
  0x32ac	ret    	
  === BLOCK LINK ===
    0x32ad
=== CODE BLOCK END ===

=== CODE BLOCK ADDRESS 0x32ad ===
  0x32ad	int3   	
  0x32ae	int3   	
  0x32af	int3   	
  0x32b0	int3   	
  0x32b1	int3   	
  === BLOCK LINK ===
    0x32b2
=== CODE BLOCK END ===

=== CODE BLOCK ADDRESS 0x32b2 ===
  0x32b2	int3   	
  0x32b3	inc    	eax
  0x32b4	push   	ebp
  0x32b5	dec    	eax
  0x32b6	sub    	esp, 0x20
  === BLOCK LINK ===
    0x32b9
=== CODE BLOCK END ===

=== CODE BLOCK ADDRESS 0x32b9 ===
  0x32b9	dec    	eax
  0x32ba	mov    	ebp, edx
  0x32bc	dec    	eax
  0x32bd	mov    	eax, dword ptr [ecx]
  0x32bf	dec    	eax
  === BLOCK LINK ===
    0x32c0
=== CODE BLOCK END ===

=== CODE BLOCK ADDRESS 0x32c0 ===
  0x32c0	mov    	edx, ecx
  0x32c2	mov    	ecx, dword ptr [eax]
  0x32c4	call   	0x2c0e
  === BLOCK LINK ===
    0x32c9
=== CODE BLOCK END ===

=== CODE BLOCK ADDRESS 0x32c9 ===
  0x32c9	nop    	
  0x32ca	dec    	eax
  0x32cb	add    	esp, 0x20
  0x32ce	pop    	ebp
  0x32cf	ret    	
  === BLOCK LINK ===
    0x32d0
=== CODE BLOCK END ===

=== CODE BLOCK ADDRESS 0x13a4 ===
  0x13a4	dec    	eax
  0x13a5	mov    	ecx, esi
  0x13a7	dec    	eax
  === BLOCK LINK ===
    0x13a8
=== CODE BLOCK END ===

=== CODE BLOCK ADDRESS 0x32d0 ===
  0x32d0	int3   	
  0x32d1	int3   	
  0x32d2	int3   	
  0x32d3	int3   	
  0x32d4	int3   	
  === BLOCK LINK ===
    0x32d5
=== CODE BLOCK END ===

=== CODE BLOCK ADDRESS 0x32d5 ===
  0x32d5	int3   	
  0x32d6	int3   	
  0x32d7	int3   	
  0x32d8	int3   	
  0x32d9	int3   	
  === BLOCK LINK ===
    0x32da
=== CODE BLOCK END ===

=== CODE BLOCK ADDRESS 0x32da ===
  0x32da	int3   	
  0x32db	int3   	
  0x32dc	int3   	
  0x32dd	int3   	
  0x32de	int3   	
  === BLOCK LINK ===
    0x32df
=== CODE BLOCK END ===

=== CODE BLOCK ADDRESS 0x32df ===
  0x32df	int3   	
  0x32e0	inc    	eax
  0x32e1	push   	ebp
  0x32e2	dec    	eax
  0x32e3	sub    	esp, 0x20
  === BLOCK LINK ===
    0x32e6
=== CODE BLOCK END ===

=== CODE BLOCK ADDRESS 0x32e6 ===
  0x32e6	dec    	eax
  0x32e7	mov    	ebp, edx
  0x32e9	dec    	eax
  0x32ea	mov    	eax, dword ptr [ecx]
  0x32ec	xor    	ecx, ecx
  === BLOCK LINK ===
    0x32ee
=== CODE BLOCK END ===

=== CODE BLOCK ADDRESS 0x32ee ===
  0x32ee	cmp    	dword ptr [eax], 0xc0000005
  0x32f4	sete   	cl
  0x32f7	mov    	eax, ecx
  0x32f9	dec    	eax
  0x32fa	add    	esp, 0x20
  === BLOCK LINK ===
    0x32fd
=== CODE BLOCK END ===

=== CODE BLOCK ADDRESS 0x32fd ===
  0x32fd	pop    	ebp
  0x32fe	ret    	
  0x32ff	int3   	
  0x3300	add    	byte ptr [eax], al
  0x3302	add    	byte ptr [eax], al
  === BLOCK LINK ===
    0x3304
=== CODE BLOCK END ===

=== CODE BLOCK ADDRESS 0x3304 ===
  0x3304	add    	byte ptr [eax], al
  0x3306	add    	byte ptr [eax], al
  0x3308	add    	byte ptr [eax], al
  0x330a	add    	byte ptr [eax], al
  0x330c	add    	byte ptr [eax], al
  === BLOCK LINK ===
    0x330e
=== CODE BLOCK END ===

=== CODE BLOCK ADDRESS 0x330e ===
  0x330e	add    	byte ptr [eax], al
  0x3310	add    	byte ptr [eax], al
  0x3312	add    	byte ptr [eax], al
  0x3314	add    	byte ptr [eax], al
  0x3316	add    	byte ptr [eax], al
  === BLOCK LINK ===
    0x3318
=== CODE BLOCK END ===

=== CODE BLOCK ADDRESS 0x3318 ===
  0x3318	add    	byte ptr [eax], al
  0x331a	add    	byte ptr [eax], al
  0x331c	add    	byte ptr [eax], al
  0x331e	add    	byte ptr [eax], al
  0x3320	add    	byte ptr [eax], al
  === BLOCK LINK ===
    0x3322
=== CODE BLOCK END ===

=== CODE BLOCK ADDRESS 0x3322 ===
  0x3322	add    	byte ptr [eax], al
  0x3324	add    	byte ptr [eax], al
  0x3326	add    	byte ptr [eax], al
  0x3328	add    	byte ptr [eax], al
  0x332a	add    	byte ptr [eax], al
  === BLOCK LINK ===
    0x332c
=== CODE BLOCK END ===

=== CODE BLOCK ADDRESS 0x332c ===
  0x332c	add    	byte ptr [eax], al
  0x332e	add    	byte ptr [eax], al
  0x3330	add    	byte ptr [eax], al
  0x3332	add    	byte ptr [eax], al
  0x3334	add    	byte ptr [eax], al
  === BLOCK LINK ===
    0x3336
=== CODE BLOCK END ===

=== CODE BLOCK ADDRESS 0x3336 ===
  0x3336	add    	byte ptr [eax], al
  0x3338	add    	byte ptr [eax], al
  0x333a	add    	byte ptr [eax], al
  0x333c	add    	byte ptr [eax], al
  0x333e	add    	byte ptr [eax], al
  === BLOCK LINK ===
    0x3340
=== CODE BLOCK END ===

=== CODE BLOCK ADDRESS 0x3340 ===
  0x3340	add    	byte ptr [eax], al
  0x3342	add    	byte ptr [eax], al
  0x3344	add    	byte ptr [eax], al
  0x3346	add    	byte ptr [eax], al
  0x3348	add    	byte ptr [eax], al
  === BLOCK LINK ===
    0x334a
=== CODE BLOCK END ===

=== CODE BLOCK ADDRESS 0x334a ===
  0x334a	add    	byte ptr [eax], al
  0x334c	add    	byte ptr [eax], al
  0x334e	add    	byte ptr [eax], al
  0x3350	add    	byte ptr [eax], al
  0x3352	add    	byte ptr [eax], al
  === BLOCK LINK ===
    0x3354
=== CODE BLOCK END ===

=== CODE BLOCK ADDRESS 0x3354 ===
  0x3354	add    	byte ptr [eax], al
  0x3356	add    	byte ptr [eax], al
  0x3358	add    	byte ptr [eax], al
  0x335a	add    	byte ptr [eax], al
  0x335c	add    	byte ptr [eax], al
  === BLOCK LINK ===
    0x335e
=== CODE BLOCK END ===

=== CODE BLOCK ADDRESS 0x335e ===
  0x335e	add    	byte ptr [eax], al
  0x3360	add    	byte ptr [eax], al
  0x3362	add    	byte ptr [eax], al
  0x3364	add    	byte ptr [eax], al
  0x3366	add    	byte ptr [eax], al
  === BLOCK LINK ===
    0x3368
=== CODE BLOCK END ===

=== CODE BLOCK ADDRESS 0x3368 ===
  0x3368	add    	byte ptr [eax], al
  0x336a	add    	byte ptr [eax], al
  0x336c	add    	byte ptr [eax], al
  0x336e	add    	byte ptr [eax], al
  0x3370	add    	byte ptr [eax], al
  === BLOCK LINK ===
    0x3372
=== CODE BLOCK END ===

=== CODE BLOCK ADDRESS 0x3372 ===
  0x3372	add    	byte ptr [eax], al
  0x3374	add    	byte ptr [eax], al
  0x3376	add    	byte ptr [eax], al
  0x3378	add    	byte ptr [eax], al
  0x337a	add    	byte ptr [eax], al
  === BLOCK LINK ===
    0x337c
=== CODE BLOCK END ===

=== CODE BLOCK ADDRESS 0x337c ===
  0x337c	add    	byte ptr [eax], al
  0x337e	add    	byte ptr [eax], al
  0x3380	add    	byte ptr [eax], al
  0x3382	add    	byte ptr [eax], al
  0x3384	add    	byte ptr [eax], al
  === BLOCK LINK ===
    0x3386
=== CODE BLOCK END ===

=== CODE BLOCK ADDRESS 0x3386 ===
  0x3386	add    	byte ptr [eax], al
  0x3388	add    	byte ptr [eax], al
  0x338a	add    	byte ptr [eax], al
  0x338c	add    	byte ptr [eax], al
  0x338e	add    	byte ptr [eax], al
  === BLOCK LINK ===
    0x3390
=== CODE BLOCK END ===

=== CODE BLOCK ADDRESS 0x3390 ===
  0x3390	add    	byte ptr [eax], al
  0x3392	add    	byte ptr [eax], al
  0x3394	add    	byte ptr [eax], al
  0x3396	add    	byte ptr [eax], al
  0x3398	add    	byte ptr [eax], al
  === BLOCK LINK ===
    0x339a
=== CODE BLOCK END ===

=== CODE BLOCK ADDRESS 0x339a ===
  0x339a	add    	byte ptr [eax], al
  0x339c	add    	byte ptr [eax], al
  0x339e	add    	byte ptr [eax], al
  0x33a0	add    	byte ptr [eax], al
  0x33a2	add    	byte ptr [eax], al
  === BLOCK LINK ===
    0x33a4
=== CODE BLOCK END ===

=== CODE BLOCK ADDRESS 0x33a4 ===
  0x33a4	add    	byte ptr [eax], al
  0x33a6	add    	byte ptr [eax], al
  0x33a8	add    	byte ptr [eax], al
  0x33aa	add    	byte ptr [eax], al
  0x33ac	add    	byte ptr [eax], al
  === BLOCK LINK ===
    0x33ae
=== CODE BLOCK END ===

=== CODE BLOCK ADDRESS 0x33ae ===
  0x33ae	add    	byte ptr [eax], al
  0x33b0	add    	byte ptr [eax], al
  0x33b2	add    	byte ptr [eax], al
  0x33b4	add    	byte ptr [eax], al
  0x33b6	add    	byte ptr [eax], al
  === BLOCK LINK ===
    0x33b8
=== CODE BLOCK END ===

=== CODE BLOCK ADDRESS 0x33b8 ===
  0x33b8	add    	byte ptr [eax], al
  0x33ba	add    	byte ptr [eax], al
  0x33bc	add    	byte ptr [eax], al
  0x33be	add    	byte ptr [eax], al
  0x33c0	add    	byte ptr [eax], al
  === BLOCK LINK ===
    0x33c2
=== CODE BLOCK END ===

=== CODE BLOCK ADDRESS 0x33c2 ===
  0x33c2	add    	byte ptr [eax], al
  0x33c4	add    	byte ptr [eax], al
  0x33c6	add    	byte ptr [eax], al
  0x33c8	add    	byte ptr [eax], al
  0x33ca	add    	byte ptr [eax], al
  === BLOCK LINK ===
    0x33cc
=== CODE BLOCK END ===

=== CODE BLOCK ADDRESS 0x33cc ===
  0x33cc	add    	byte ptr [eax], al
  0x33ce	add    	byte ptr [eax], al
  0x33d0	add    	byte ptr [eax], al
  0x33d2	add    	byte ptr [eax], al
  0x33d4	add    	byte ptr [eax], al
  === BLOCK LINK ===
    0x33d6
=== CODE BLOCK END ===

=== CODE BLOCK ADDRESS 0x33d6 ===
  0x33d6	add    	byte ptr [eax], al
  0x33d8	add    	byte ptr [eax], al
  0x33da	add    	byte ptr [eax], al
  0x33dc	add    	byte ptr [eax], al
  0x33de	add    	byte ptr [eax], al
  === BLOCK LINK ===
    0x33e0
=== CODE BLOCK END ===

=== CODE BLOCK ADDRESS 0x33e0 ===
  0x33e0	add    	byte ptr [eax], al
  0x33e2	add    	byte ptr [eax], al
  0x33e4	add    	byte ptr [eax], al
  0x33e6	add    	byte ptr [eax], al
  0x33e8	add    	byte ptr [eax], al
  === BLOCK LINK ===
    0x33ea
=== CODE BLOCK END ===

=== CODE BLOCK ADDRESS 0x33ea ===
  0x33ea	add    	byte ptr [eax], al
  0x33ec	add    	byte ptr [eax], al
  0x33ee	add    	byte ptr [eax], al
  0x33f0	add    	byte ptr [eax], al
  0x33f2	add    	byte ptr [eax], al
  === BLOCK LINK ===
    0x33f4
=== CODE BLOCK END ===

=== CODE BLOCK ADDRESS 0x33f4 ===
  0x33f4	add    	byte ptr [eax], al
  0x33f6	add    	byte ptr [eax], al
  0x33f8	add    	byte ptr [eax], al
  0x33fa	add    	byte ptr [eax], al
  0x33fc	add    	byte ptr [eax], al
  === BLOCK LINK ===
    0x33fe
=== CODE BLOCK END ===

=== CODE BLOCK ADDRESS 0x33fe ===
=== CODE BLOCK END ===

=== DATA BLOCK ADDRESS 0x4000 ===
  0x4000	80 60 00 40 01 00 00 00 20 61 00 40 01 00 00 00 	0`0@0000 a0@0000
  0x4010	18 01 00 00 00 00 00 00 00 00 00 00 00 00 00 00 	0000000000000000
  0x4020	00 00 00 00 00 00 00 00 00 00 00 00 00 00 00 00 	0000000000000000
  0x4030	00 00 00 00 00 00 00 00 00 00 00 00 00 00 00 00 	0000000000000000
  0x4040	00 00 00 00 00 00 00 00 00 00 00 00 00 00 00 00 	0000000000000000
  0x4050	00 00 00 00 00 00 00 00 00 00 00 00 00 00 00 00 	0000000000000000
  0x4060	00 00 00 00 00 00 00 00 18 60 00 40 01 00 00 00 	000000000`0@0000
  0x4070	00 00 00 00 00 00 00 00 00 00 00 00 00 00 00 00 	0000000000000000
  0x4080	20 43 00 40 01 00 00 00 28 43 00 40 01 00 00 00 	 C0@0000(C0@0000
  0x4090	74 43 00 40 01 00 00 00 08 00 00 00 00 00 00 00 	tC0@000000000000
  0x40a0	00 75 41 00 00 00 00 00 00 00 00 00 00 00 00 00 	0uA0000000000000
  0x40b0	00 00 00 00 00 00 00 00 00 00 00 00 00 00 00 00 	0000000000000000
  0x40c0	00 00 00 00 00 00 00 00 00 00 00 00 00 00 00 00 	0000000000000000
  0x40d0	00 00 00 00 00 00 00 00 00 00 00 00 00 00 00 00 	0000000000000000
  0x40e0	00 00 00 00 00 00 00 00 00 00 00 00 00 00 00 00 	0000000000000000
  0x40f0	00 00 00 00 00 00 00 00 00 00 00 00 00 00 00 00 	0000000000000000
  0x4100	00 00 00 00 00 00 00 00 00 00 00 00 00 00 00 00 	0000000000000000
  0x4110	00 00 00 00 00 00 00 00 68 43 00 40 01 00 00 00 	00000000hC0@0000
  0x4120	03 00 00 00 00 00 00 00 a8 50 00 00 00 00 00 00 	000000000P000000
  0x4130	bc 50 00 00 00 00 00 00 da 52 00 00 00 00 00 00 	0P0000000R000000
  0x4140	ca 52 00 00 00 00 00 00 b8 52 00 00 00 00 00 00 	0R0000000R000000
  0x4150	a8 52 00 00 00 00 00 00 00 00 00 00 00 00 00 00 	0R00000000000000
  0x4160	d4 51 00 00 00 00 00 00 e4 51 00 00 00 00 00 00 	0Q0000000Q000000
  0x4170	fc 51 00 00 00 00 00 00 08 52 00 00 00 00 00 00 	0Q0000000R000000
  0x4180	1a 52 00 00 00 00 00 00 32 52 00 00 00 00 00 00 	0R0000002R000000
  0x4190	00 00 00 00 00 00 00 00 84 54 00 00 00 00 00 00 	000000000T000000
  0x41a0	78 54 00 00 00 00 00 00 6c 54 00 00 00 00 00 00 	xT000000lT000000
  0x41b0	5e 54 00 00 00 00 00 00 4c 54 00 00 00 00 00 00 	^T000000LT000000
  0x41c0	3c 54 00 00 00 00 00 00 2c 54 00 00 00 00 00 00 	<T000000,T000000
  0x41d0	1c 54 00 00 00 00 00 00 08 54 00 00 00 00 00 00 	0T0000000T000000
  0x41e0	f4 53 00 00 00 00 00 00 c4 53 00 00 00 00 00 00 	0S0000000S000000
  0x41f0	96 54 00 00 00 00 00 00 aa 53 00 00 00 00 00 00 	0T0000000S000000
  0x4200	e8 50 00 00 00 00 00 00 d8 50 00 00 00 00 00 00 	0P0000000P000000
  0x4210	d8 53 00 00 00 00 00 00 ec 52 00 00 00 00 00 00 	0S0000000R000000
  0x4220	f4 52 00 00 00 00 00 00 12 53 00 00 00 00 00 00 	0R0000000S000000
  0x4230	26 53 00 00 00 00 00 00 40 53 00 00 00 00 00 00 	&S000000@S000000
  0x4240	56 53 00 00 00 00 00 00 6c 53 00 00 00 00 00 00 	VS000000lS000000
  0x4250	86 53 00 00 00 00 00 00 96 53 00 00 00 00 00 00 	0S0000000S000000
  0x4260	00 00 00 00 00 00 00 00 5e 52 00 00 00 00 00 00 	00000000^R000000
  0x4270	6e 52 00 00 00 00 00 00 7c 52 00 00 00 00 00 00 	nR000000|R000000
  0x4280	8a 52 00 00 00 00 00 00 4e 52 00 00 00 00 00 00 	0R000000NR000000
  0x4290	00 00 00 00 00 00 00 00 9e 51 00 00 00 00 00 00 	000000000Q000000
  0x42a0	a8 51 00 00 00 00 00 00 b4 51 00 00 00 00 00 00 	0Q0000000Q000000
  0x42b0	7a 51 00 00 00 00 00 00 ba 54 00 00 00 00 00 00 	zQ0000000T000000
  0x42c0	86 51 00 00 00 00 00 00 66 51 00 00 00 00 00 00 	0Q000000fQ000000
  0x42d0	5c 51 00 00 00 00 00 00 54 51 00 00 00 00 00 00 	0Q000000TQ000000
  0x42e0	4c 51 00 00 00 00 00 00 3a 51 00 00 00 00 00 00 	LQ000000:Q000000
  0x42f0	0c 51 00 00 00 00 00 00 28 51 00 00 00 00 00 00 	0Q000000(Q000000
  0x4300	1a 51 00 00 00 00 00 00 ac 54 00 00 00 00 00 00 	0Q0000000T000000
  0x4310	c4 54 00 00 00 00 00 00 00 00 00 00 00 00 00 00 	0T00000000000000
  0x4320	c0 2e 00 40 01 00 00 00 40 32 00 40 01 00 00 00 	0.0@0000@20@0000
  0x4330	00 00 00 00 00 00 00 00 30 29 00 40 01 00 00 00 	000000000)0@0000
  0x4340	00 00 00 00 00 00 00 00 00 00 00 00 00 00 00 00 	0000000000000000
  0x4350	50 28 00 40 01 00 00 00 f0 2b 00 40 01 00 00 00 	P(0@00000+0@0000
  0x4360	00 00 00 00 00 00 00 00 fb 2a 00 00 62 2c 00 00 	000000000*00b,00
  0x4370	70 2d 00 00 50 28 00 00 30 29 00 00 50 2b 00 00 	p-00P(000)00P+00
  0x4380	b0 2b 00 00 f0 2b 00 00 d0 2c 00 00 c0 2e 00 00 	0+000+000,000.00
  0x4390	10 2f 00 00 00 00 00 00 00 00 00 00 00 00 00 00 	0/00000000000000
  0x43a0	53 00 6f 00 66 00 74 00 77 00 61 00 72 00 65 00 	S0o0f0t0w0a0r0e0
  0x43b0	5c 00 4d 00 69 00 63 00 72 00 6f 00 73 00 6f 00 	00M0i0c0r0o0s0o0
  0x43c0	66 00 74 00 5c 00 57 00 69 00 6e 00 64 00 6f 00 	f0t000W0i0n0d0o0
  0x43d0	77 00 73 00 20 00 4e 00 54 00 5c 00 43 00 75 00 	w0s0 0N0T000C0u0
  0x43e0	72 00 72 00 65 00 6e 00 74 00 56 00 65 00 72 00 	r0r0e0n0t0V0e0r0
  0x43f0	73 00 69 00 6f 00 6e 00 5c 00 55 00 6e 00 61 00 	s0i0o0n000U0n0a0
  0x4400	74 00 74 00 65 00 6e 00 64 00 53 00 65 00 74 00 	t0t0e0n0d0S0e0t0
  0x4410	74 00 69 00 6e 00 67 00 73 00 5c 00 46 00 61 00 	t0i0n0g0s000F0a0
  0x4420	78 00 00 00 00 00 00 00 46 00 61 00 78 00 50 00 	x0000000F0a0x0P0
  0x4430	72 00 69 00 6e 00 74 00 65 00 72 00 49 00 73 00 	r0i0n0t0e0r0I0s0
  0x4440	53 00 68 00 61 00 72 00 65 00 64 00 00 00 00 00 	S0h0a0r0e0d00000
  0x4450	52 00 6f 00 75 00 74 00 65 00 54 00 6f 00 46 00 	R0o0u0t0e0T0o0F0
  0x4460	6f 00 6c 00 64 00 65 00 72 00 00 00 00 00 00 00 	o0l0d0e0r0000000
  0x4470	52 00 6f 00 75 00 74 00 65 00 46 00 6f 00 6c 00 	R0o0u0t0e0F0o0l0
  0x4480	64 00 65 00 72 00 4e 00 61 00 6d 00 65 00 00 00 	d0e0r0N0a0m0e000
  0x4490	52 00 6f 00 75 00 74 00 65 00 54 00 6f 00 50 00 	R0o0u0t0e0T0o0P0
  0x44a0	72 00 69 00 6e 00 74 00 65 00 72 00 00 00 00 00 	r0i0n0t0e0r00000
  0x44b0	52 00 6f 00 75 00 74 00 65 00 50 00 72 00 69 00 	R0o0u0t0e0P0r0i0
  0x44c0	6e 00 74 00 65 00 72 00 4e 00 61 00 6d 00 65 00 	n0t0e0r0N0a0m0e0
  0x44d0	00 00 00 00 00 00 00 00 52 00 65 00 63 00 65 00 	00000000R0e0c0e0
  0x44e0	69 00 76 00 65 00 46 00 61 00 78 00 65 00 73 00 	i0v0e0F0a0x0e0s0
  0x44f0	00 00 00 00 00 00 00 00 53 00 65 00 6e 00 64 00 	00000000S0e0n0d0
  0x4500	46 00 61 00 78 00 65 00 73 00 00 00 00 00 00 00 	F0a0x0e0s0000000
  0x4510	54 00 73 00 69 00 64 00 00 00 00 00 00 00 00 00 	T0s0i0d000000000
  0x4520	43 00 73 00 69 00 64 00 00 00 00 00 00 00 00 00 	C0s0i0d000000000
  0x4530	52 00 69 00 6e 00 67 00 73 00 00 00 00 00 00 00 	R0i0n0g0s0000000
  0x4540	53 00 6f 00 66 00 74 00 77 00 61 00 72 00 65 00 	S0o0f0t0w0a0r0e0
  0x4550	5c 00 4d 00 69 00 63 00 72 00 6f 00 73 00 6f 00 	00M0i0c0r0o0s0o0
  0x4560	66 00 74 00 5c 00 46 00 61 00 78 00 5c 00 53 00 	f0t000F0a0x000S0
  0x4570	65 00 74 00 75 00 70 00 5c 00 4f 00 72 00 69 00 	e0t0u0p000O0r0i0
  0x4580	67 00 69 00 6e 00 61 00 6c 00 20 00 53 00 65 00 	g0i0n0a0l0 0S0e0
  0x4590	74 00 75 00 70 00 20 00 44 00 61 00 74 00 61 00 	t0u0p0 0D0a0t0a0
  0x45a0	00 00 00 00 00 00 00 00 46 00 6c 00 61 00 67 00 	00000000F0l0a0g0
  0x45b0	73 00 00 00 00 00 00 00 54 00 53 00 49 00 44 00 	s0000000T0S0I0D0
  0x45c0	00 00 00 00 00 00 00 00 43 00 53 00 49 00 44 00 	00000000C0S0I0D0
  0x45d0	00 00 00 00 00 00 00 00 00 00 00 00 00 00 00 00 	0000000000000000
  0x45e0	7b 00 61 00 61 00 63 00 63 00 36 00 35 00 65 00 	{0a0a0c0c06050e0
  0x45f0	63 00 2d 00 30 00 30 00 39 00 31 00 2d 00 34 00 	c0-000009010-040
  0x4600	30 00 64 00 36 00 2d 00 61 00 36 00 66 00 33 00 	00d060-0a060f030
  0x4610	2d 00 61 00 32 00 65 00 64 00 36 00 30 00 35 00 	-0a020e0d0600050
  0x4620	37 00 65 00 31 00 66 00 61 00 7d 00 00 00 00 00 	70e010f0a0}00000
  0x4630	7b 00 61 00 65 00 63 00 31 00 62 00 33 00 37 00 	{0a0e0c010b03070
  0x4640	63 00 2d 00 39 00 61 00 66 00 32 00 2d 00 31 00 	c0-090a0f020-010
  0x4650	31 00 64 00 30 00 2d 00 61 00 62 00 66 00 37 00 	10d000-0a0b0f070
  0x4660	2d 00 30 00 30 00 63 00 30 00 34 00 66 00 64 00 	-00000c00040f0d0
  0x4670	39 00 31 00 61 00 34 00 65 00 7d 00 00 00 00 00 	9010a040e0}00000
  0x4680	7b 00 39 00 32 00 30 00 34 00 31 00 61 00 39 00 	{09020004010a090
  0x4690	30 00 2d 00 39 00 61 00 66 00 32 00 2d 00 31 00 	00-090a0f020-010
  0x46a0	31 00 64 00 30 00 2d 00 61 00 62 00 66 00 37 00 	10d000-0a0b0f070
  0x46b0	2d 00 30 00 30 00 63 00 30 00 34 00 66 00 64 00 	-00000c00040f0d0
  0x46c0	39 00 31 00 61 00 34 00 65 00 7d 00 00 00 00 00 	9010a040e0}00000
  0x46d0	52 00 65 00 67 00 43 00 72 00 65 00 61 00 74 00 	R0e0g0C0r0e0a0t0
  0x46e0	65 00 4b 00 65 00 79 00 45 00 78 00 28 00 29 00 	e0K0e0y0E0x0(0)0
  0x46f0	20 00 66 00 61 00 69 00 6c 00 65 00 64 00 2c 00 	 0f0a0i0l0e0d0,0
  0x4700	20 00 65 00 63 00 3d 00 25 00 64 00 00 00 00 00 	 0e0c0=0%0d00000
  0x4710	43 00 72 00 65 00 61 00 74 00 65 00 64 00 20 00 	C0r0e0a0t0e0d0 0
  0x4720	6e 00 65 00 77 00 20 00 66 00 61 00 78 00 20 00 	n0e0w0 0f0a0x0 0
  0x4730	72 00 65 00 67 00 69 00 73 00 74 00 72 00 79 00 	r0e0g0i0s0t0r0y0
  0x4740	20 00 6b 00 65 00 79 00 2c 00 20 00 65 00 63 00 	 0k0e0y0,0 0e0c0
  0x4750	3d 00 25 00 64 00 00 00 52 00 65 00 67 00 4f 00 	=0%0d000R0e0g0O0
  0x4760	70 00 65 00 6e 00 4b 00 65 00 79 00 45 00 78 00 	p0e0n0K0e0y0E0x0
  0x4770	28 00 29 00 20 00 66 00 61 00 69 00 6c 00 65 00 	(0)0 0f0a0i0l0e0
  0x4780	64 00 2c 00 20 00 65 00 63 00 3d 00 25 00 64 00 	d0,0 0e0c0=0%0d0
  0x4790	00 00 00 00 00 00 00 00 00 00 00 00 00 00 00 00 	0000000000000000
  0x47a0	52 00 65 00 67 00 53 00 65 00 74 00 56 00 61 00 	R0e0g0S0e0t0V0a0
  0x47b0	6c 00 75 00 65 00 45 00 78 00 28 00 29 00 20 00 	l0u0e0E0x0(0)0 0
  0x47c0	66 00 61 00 69 00 6c 00 65 00 64 00 5b 00 25 00 	f0a0i0l0e0d0[0%0
  0x47d0	73 00 5d 00 2c 00 20 00 65 00 63 00 3d 00 25 00 	s0]0,0 0e0c0=0%0
  0x47e0	64 00 00 00 00 00 00 00 be 70 ce fc 13 14 f8 30 	d00000000p000000
  0x47f0	d4 e0 cd f6 9d 71 06 55 00 00 00 00 00 00 00 00 	00000q0U00000000
  0x4800	4d 00 69 00 63 00 72 00 6f 00 73 00 6f 00 66 00 	M0i0c0r0o0s0o0f0
  0x4810	74 00 2d 00 57 00 69 00 6e 00 64 00 6f 00 77 00 	t0-0W0i0n0d0o0w0
  0x4820	73 00 2d 00 46 00 61 00 78 00 2d 00 43 00 6f 00 	s0-0F0a0x0-0C0o0
  0x4830	6d 00 6d 00 6f 00 6e 00 2d 00 45 00 6e 00 61 00 	m0m0o0n0-0E0n0a0
  0x4840	62 00 6c 00 65 00 53 00 65 00 72 00 76 00 65 00 	b0l0e0S0e0r0v0e0
  0x4850	72 00 50 00 6f 00 6c 00 69 00 63 00 79 00 00 00 	r0P0o0l0i0c0y000
  0x4860	73 00 6c 00 63 00 2e 00 64 00 6c 00 6c 00 00 00 	s0l0c0.0d0l0l000
  0x4870	53 4c 47 65 74 57 69 6e 64 6f 77 73 49 6e 66 6f 	SLGetWindowsInfo
  0x4880	72 6d 61 74 69 6f 6e 44 57 4f 52 44 00 00 00 00 	rmationDWORD0000
  0x4890	7d 8e ed 62 ef e8 65 32 f8 7a ee 08 69 30 cd 18 	}00b00e20z00i000
  0x48a0	4d 00 69 00 63 00 72 00 6f 00 73 00 6f 00 66 00 	M0i0c0r0o0s0o0f0
  0x48b0	74 00 20 00 53 00 68 00 61 00 72 00 65 00 64 00 	t0 0S0h0a0r0e0d0
  0x48c0	20 00 46 00 61 00 78 00 20 00 44 00 72 00 69 00 	 0F0a0x0 0D0r0i0
  0x48d0	76 00 65 00 72 00 00 00 22 8f 7c 15 4f 10 f7 3b 	v0e0r000"0|0O00;
  0x48e0	64 80 ef f3 c0 99 4d fa 4d 00 65 00 6d 00 41 00 	d00000M0M0e0m0A0
  0x48f0	6c 00 6c 00 6f 00 63 00 28 00 29 00 20 00 66 00 	l0l0o0c0(0)0 0f0
  0x4900	61 00 69 00 6c 00 65 00 64 00 2c 00 20 00 73 00 	a0i0l0e0d0,0 0s0
  0x4910	69 00 7a 00 65 00 3d 00 25 00 64 00 00 00 00 00 	i0z0e0=0%0d00000
  0x4920	53 00 6f 00 66 00 74 00 77 00 61 00 72 00 65 00 	S0o0f0t0w0a0r0e0
  0x4930	5c 00 4d 00 69 00 63 00 72 00 6f 00 73 00 6f 00 	00M0i0c0r0o0s0o0
  0x4940	66 00 74 00 5c 00 46 00 61 00 78 00 5c 00 43 00 	f0t000F0a0x000C0
  0x4950	6c 00 69 00 65 00 6e 00 74 00 00 00 00 00 00 00 	l0i0e0n0t0000000
  0x4960	44 00 65 00 62 00 75 00 67 00 4c 00 65 00 76 00 	D0e0b0u0g0L0e0v0
  0x4970	65 00 6c 00 00 00 00 00 2d 81 db e5 70 fc e6 38 	e0l00000-000p008
  0x4980	6c 96 d0 34 85 75 48 5f 00 00 00 00 00 00 00 00 	l0040uH_00000000
  0x4990	00 00 00 00 6e 17 a5 59 00 00 00 00 02 00 00 00 	0000n00Y00000000
  0x49a0	25 00 00 00 e4 49 00 00 e4 31 00 00 00 00 00 00 	%0000I0001000000
  0x49b0	6e 17 a5 59 00 00 00 00 0d 00 00 00 18 02 00 00 	n00Y000000000000
  0x49c0	0c 4a 00 00 0c 32 00 00 00 00 00 00 6e 17 a5 59 	0J0002000000n00Y
  0x49d0	00 00 00 00 10 00 00 00 24 00 00 00 24 4c 00 00 	00000000$000$L00
  0x49e0	24 34 00 00 52 53 44 53 4b 67 2b 0d 44 ad 16 41 	$400RSDSKg+0D00A
  0x49f0	bc 6e 77 46 2f 04 2d 28 01 00 00 00 46 58 53 55 	0nwF/0-(0000FXSU
  0x4a00	4e 41 54 44 2e 70 64 62 00 00 00 00 47 43 54 4c 	NATD.pdb0000GCTL
  0x4a10	00 10 00 00 30 22 00 00 2e 74 65 78 74 24 6d 6e 	00000"00.text$mn
  0x4a20	00 00 00 00 30 32 00 00 80 00 00 00 2e 74 65 78 	000002000000.tex
  0x4a30	74 24 6d 6e 24 30 30 00 b0 32 00 00 50 00 00 00 	t$mn$0000200P000
  0x4a40	2e 74 65 78 74 24 78 00 00 40 00 00 28 01 00 00 	.text$x00@00(000
  0x4a50	2e 72 64 61 74 61 24 62 72 63 00 00 28 41 00 00 	.rdata$brc00(A00
  0x4a60	f8 01 00 00 2e 69 64 61 74 61 24 35 00 00 00 00 	0000.idata$50000
  0x4a70	20 43 00 00 10 00 00 00 2e 30 30 63 66 67 00 00 	 C000000.00cfg00
  0x4a80	30 43 00 00 08 00 00 00 2e 43 52 54 24 58 43 41 	0C000000.CRT$XCA
  0x4a90	00 00 00 00 38 43 00 00 08 00 00 00 2e 43 52 54 	00008C000000.CRT
  0x4aa0	24 58 43 41 41 00 00 00 40 43 00 00 08 00 00 00 	$XCAA000@C000000
  0x4ab0	2e 43 52 54 24 58 43 5a 00 00 00 00 48 43 00 00 	.CRT$XCZ0000HC00
  0x4ac0	08 00 00 00 2e 43 52 54 24 58 49 41 00 00 00 00 	0000.CRT$XIA0000
  0x4ad0	50 43 00 00 08 00 00 00 2e 43 52 54 24 58 49 41 	PC000000.CRT$XIA
  0x4ae0	41 00 00 00 58 43 00 00 08 00 00 00 2e 43 52 54 	A000XC000000.CRT
  0x4af0	24 58 49 59 00 00 00 00 60 43 00 00 08 00 00 00 	$XIY0000`C000000
  0x4b00	2e 43 52 54 24 58 49 5a 00 00 00 00 68 43 00 00 	.CRT$XIZ0000hC00
  0x4b10	0c 00 00 00 2e 67 65 68 63 6f 6e 74 00 00 00 00 	0000.gehcont0000
  0x4b20	74 43 00 00 2c 00 00 00 2e 67 66 69 64 73 00 00 	tC00,000.gfids00
  0x4b30	a0 43 00 00 44 06 00 00 2e 72 64 61 74 61 00 00 	0C00D000.rdata00
  0x4b40	e4 49 00 00 64 02 00 00 2e 72 64 61 74 61 24 7a 	0I00d000.rdata$z
  0x4b50	7a 7a 64 62 67 00 00 00 48 4c 00 00 ec 01 00 00 	zzdbg000HL000000
  0x4b60	2e 78 64 61 74 61 00 00 34 4e 00 00 64 00 00 00 	.xdata004N00d000
  0x4b70	2e 69 64 61 74 61 24 32 00 00 00 00 98 4e 00 00 	.idata$200000N00
  0x4b80	18 00 00 00 2e 69 64 61 74 61 24 33 00 00 00 00 	0000.idata$30000
  0x4b90	b0 4e 00 00 f8 01 00 00 2e 69 64 61 74 61 24 34 	0N000000.idata$4
  0x4ba0	00 00 00 00 a8 50 00 00 26 04 00 00 2e 69 64 61 	00000P00&000.ida
  0x4bb0	74 61 24 36 00 00 00 00 00 60 00 00 10 00 00 00 	ta$600000`000000
  0x4bc0	2e 64 61 74 61 24 62 72 63 00 00 00 10 60 00 00 	.data$brc0000`00
  0x4bd0	30 00 00 00 2e 64 61 74 61 00 00 00 40 60 00 00 	0000.data000@`00
  0x4be0	78 06 00 00 2e 62 73 73 00 00 00 00 00 70 00 00 	x000.bss00000p00
  0x4bf0	e0 01 00 00 2e 70 64 61 74 61 00 00 00 80 00 00 	0000.pdata000000
  0x4c00	a0 00 00 00 2e 72 73 72 63 24 30 31 00 00 00 00 	0000.rsrc$010000
  0x4c10	a0 80 00 00 68 07 00 00 2e 72 73 72 63 24 30 32 	0000h000.rsrc$02
  0x4c20	00 00 00 00 20 00 00 00 4b 67 2b 0d 44 ad 16 41 	0000 000Kg+0D00A
  0x4c30	bc 6e 77 46 2f 04 2d 28 f3 bf 60 93 26 e5 0b f6 	0nwF/0-(00`0&000
  0x4c40	5d 77 42 4f 6e 17 a5 59 01 07 01 00 07 82 00 00 	]wBOn00Y00000000
  0x4c50	01 12 08 00 12 52 0b f0 09 e0 07 c0 05 70 04 60 	00000R0000000p0`
  0x4c60	03 30 02 50 19 2b 07 00 1a 74 9b 00 1a 34 9a 00 	000P0+000t000400
  0x4c70	1a 01 98 00 0b 50 00 00 88 31 00 00 b0 04 00 00 	00000P0001000000
  0x4c80	01 04 01 00 04 62 00 00 01 0b 01 00 0b 82 00 00 	00000b0000000000
  0x4c90	01 0c 02 00 0c 92 08 30 01 10 04 00 10 34 08 00 	0000000000000400
  0x4ca0	10 52 0c 70 01 0a 04 00 0a 34 08 00 0a 52 06 70 	0R0p000004000R0p
  0x4cb0	01 13 08 00 13 54 0d 00 13 34 0c 00 13 72 0f f0 	00000T0004000r00
  0x4cc0	0d 70 0c 60 19 1b 03 00 09 01 2a 00 02 70 00 00 	0p0`000000*00p00
  0x4cd0	88 31 00 00 40 01 00 00 01 0a 04 00 0a 34 07 00 	0100@00000000400
  0x4ce0	0a 32 06 70 01 15 08 00 15 74 08 00 15 64 07 00 	020p00000t000d00
  0x4cf0	15 34 06 00 15 32 11 e0 01 14 06 00 14 64 0b 00 	0400020000000d00
  0x4d00	14 34 0a 00 14 72 10 70 01 1b 0a 00 1b 54 0b 00 	04000r0p00000T00
  0x4d10	1b 34 0a 00 1b 32 17 f0 15 d0 13 c0 11 70 10 60 	0400020000000p0`
  0x4d20	19 3d 0d 00 2c c4 d9 02 2c 74 d8 02 2c 64 d7 02 	0=00,000,t00,d00
  0x4d30	2c 34 d6 02 2c 01 d2 02 18 f0 16 e0 14 50 00 00 	,400,00000000P00
  0x4d40	88 31 00 00 80 16 00 00 01 0a 04 00 0a 34 06 00 	0100000000000400
  0x4d50	0a 32 06 70 01 04 01 00 04 42 00 00 19 35 05 00 	020p00000B000500
  0x4d60	24 01 0c 01 16 70 15 30 14 50 00 00 88 31 00 00 	$0000p000P000100
  0x4d70	50 08 00 00 09 15 08 00 15 74 0a 00 15 64 09 00 	P00000000t000d00
  0x4d80	15 34 08 00 15 52 11 f0 aa 2e 00 00 01 00 00 00 	04000R000.000000
  0x4d90	95 29 00 00 fb 2a 00 00 b3 32 00 00 fb 2a 00 00 	0)000*0002000*00
  0x4da0	01 06 02 00 06 32 02 50 01 00 00 00 09 04 01 00 	0000020P00000000
  0x4db0	04 22 00 00 aa 2e 00 00 01 00 00 00 2c 2c 00 00 	0"000.000000,,00
  0x4dc0	62 2c 00 00 01 00 00 00 62 2c 00 00 01 06 02 00 	b,000000b,000000
  0x4dd0	06 32 02 30 09 0a 04 00 0a 34 06 00 0a 32 06 70 	020000000400020p
  0x4de0	aa 2e 00 00 01 00 00 00 3d 2d 00 00 70 2d 00 00 	0.000000=-00p-00
  0x4df0	e0 32 00 00 70 2d 00 00 01 0d 04 00 0d 34 09 00 	0200p-0000000400
  0x4e00	0d 32 06 50 01 04 01 00 04 e2 00 00 01 0c 02 00 	020P000000000000
  0x4e10	0c 01 11 00 00 00 00 00 01 00 00 00 01 02 01 00 	0000000000000000
  0x4e20	02 30 00 00 00 00 00 00 02 04 03 00 01 16 00 06 	0000000000000000
  0x4e30	04 12 00 00 b0 4e 00 00 00 00 00 00 00 00 00 00 	00000N0000000000
  0x4e40	ca 50 00 00 28 41 00 00 20 4f 00 00 00 00 00 00 	0P00(A00 O000000
  0x4e50	00 00 00 00 fe 50 00 00 98 41 00 00 20 50 00 00 	00000P000A00 P00
  0x4e60	00 00 00 00 00 00 00 00 c8 51 00 00 98 42 00 00 	000000000Q000B00
  0x4e70	e8 4e 00 00 00 00 00 00 00 00 00 00 42 52 00 00 	0N0000000000BR00
  0x4e80	60 41 00 00 f0 4f 00 00 00 00 00 00 00 00 00 00 	`A000O0000000000
  0x4e90	9a 52 00 00 68 42 00 00 00 00 00 00 00 00 00 00 	0R00hB0000000000
  0x4ea0	00 00 00 00 00 00 00 00 00 00 00 00 00 00 00 00 	0000000000000000
  0x4eb0	a8 50 00 00 00 00 00 00 bc 50 00 00 00 00 00 00 	0P0000000P000000
  0x4ec0	da 52 00 00 00 00 00 00 ca 52 00 00 00 00 00 00 	0R0000000R000000
  0x4ed0	b8 52 00 00 00 00 00 00 a8 52 00 00 00 00 00 00 	0R0000000R000000
  0x4ee0	00 00 00 00 00 00 00 00 d4 51 00 00 00 00 00 00 	000000000Q000000
  0x4ef0	e4 51 00 00 00 00 00 00 fc 51 00 00 00 00 00 00 	0Q0000000Q000000
  0x4f00	08 52 00 00 00 00 00 00 1a 52 00 00 00 00 00 00 	0R0000000R000000
  0x4f10	32 52 00 00 00 00 00 00 00 00 00 00 00 00 00 00 	2R00000000000000
  0x4f20	84 54 00 00 00 00 00 00 78 54 00 00 00 00 00 00 	0T000000xT000000
  0x4f30	6c 54 00 00 00 00 00 00 5e 54 00 00 00 00 00 00 	lT000000^T000000
  0x4f40	4c 54 00 00 00 00 00 00 3c 54 00 00 00 00 00 00 	LT000000<T000000
  0x4f50	2c 54 00 00 00 00 00 00 1c 54 00 00 00 00 00 00 	,T0000000T000000
  0x4f60	08 54 00 00 00 00 00 00 f4 53 00 00 00 00 00 00 	0T0000000S000000
  0x4f70	c4 53 00 00 00 00 00 00 96 54 00 00 00 00 00 00 	0S0000000T000000
  0x4f80	aa 53 00 00 00 00 00 00 e8 50 00 00 00 00 00 00 	0S0000000P000000
  0x4f90	d8 50 00 00 00 00 00 00 d8 53 00 00 00 00 00 00 	0P0000000S000000
  0x4fa0	ec 52 00 00 00 00 00 00 f4 52 00 00 00 00 00 00 	0R0000000R000000
  0x4fb0	12 53 00 00 00 00 00 00 26 53 00 00 00 00 00 00 	0S000000&S000000
  0x4fc0	40 53 00 00 00 00 00 00 56 53 00 00 00 00 00 00 	@S000000VS000000
  0x4fd0	6c 53 00 00 00 00 00 00 86 53 00 00 00 00 00 00 	lS0000000S000000
  0x4fe0	96 53 00 00 00 00 00 00 00 00 00 00 00 00 00 00 	0S00000000000000
  0x4ff0	5e 52 00 00 00 00 00 00 6e 52 00 00 00 00 00 00 	^R000000nR000000
  0x5000	7c 52 00 00 00 00 00 00 8a 52 00 00 00 00 00 00 	|R0000000R000000
  0x5010	4e 52 00 00 00 00 00 00 00 00 00 00 00 00 00 00 	NR00000000000000
  0x5020	9e 51 00 00 00 00 00 00 a8 51 00 00 00 00 00 00 	0Q0000000Q000000
  0x5030	b4 51 00 00 00 00 00 00 7a 51 00 00 00 00 00 00 	0Q000000zQ000000
  0x5040	ba 54 00 00 00 00 00 00 86 51 00 00 00 00 00 00 	0T0000000Q000000
  0x5050	66 51 00 00 00 00 00 00 5c 51 00 00 00 00 00 00 	fQ0000000Q000000
  0x5060	54 51 00 00 00 00 00 00 4c 51 00 00 00 00 00 00 	TQ000000LQ000000
  0x5070	3a 51 00 00 00 00 00 00 0c 51 00 00 00 00 00 00 	:Q0000000Q000000
  0x5080	28 51 00 00 00 00 00 00 1a 51 00 00 00 00 00 00 	(Q0000000Q000000
  0x5090	ac 54 00 00 00 00 00 00 c4 54 00 00 00 00 00 00 	0T0000000T000000
  0x50a0	00 00 00 00 00 00 00 00 9c 02 52 65 67 51 75 65 	0000000000RegQue
  0x50b0	72 79 56 61 6c 75 65 45 78 57 00 00 5e 02 52 65 	ryValueExW00^0Re
  0x50c0	67 43 6c 6f 73 65 4b 65 79 00 41 44 56 41 50 49 	gCloseKey0ADVAPI
  0x50d0	33 32 2e 64 6c 6c 00 00 6a 02 47 65 74 4c 61 73 	32.dll00j0GetLas
  0x50e0	74 45 72 72 6f 72 00 00 59 03 48 65 61 70 53 65 	tError00Y0HeapSe
  0x50f0	74 49 6e 66 6f 72 6d 61 74 69 6f 6e 00 00 4b 45 	tInformation00KE
  0x5100	52 4e 45 4c 33 32 2e 64 6c 6c 00 00 55 00 5f 58 	RNEL32.dll00U0_X
  0x5110	63 70 74 46 69 6c 74 65 72 00 ae 00 5f 61 6d 73 	cptFilter000_ams
  0x5120	67 5f 65 78 69 74 00 00 9d 00 5f 5f 77 67 65 74 	g_exit0000__wget
  0x5130	6d 61 69 6e 61 72 67 73 00 00 8e 00 5f 5f 73 65 	mainargs0000__se
  0x5140	74 5f 61 70 70 5f 74 79 70 65 00 00 32 04 65 78 	t_app_type0020ex
  0x5150	69 74 00 00 0e 01 5f 65 78 69 74 00 c1 00 5f 63 	it0000_exit000_c
  0x5160	65 78 69 74 00 00 90 00 5f 5f 73 65 74 75 73 65 	exit0000__setuse
  0x5170	72 6d 61 74 68 65 72 72 00 00 7d 01 5f 69 6e 69 	rmatherr00}0_ini
  0x5180	74 74 65 72 6d 00 57 00 5f 5f 43 5f 73 70 65 63 	tterm0W0__C_spec
  0x5190	69 66 69 63 5f 68 61 6e 64 6c 65 72 00 00 27 01 	ific_handler00'0
  0x51a0	5f 66 6d 6f 64 65 00 00 d2 00 5f 63 6f 6d 6d 6f 	_fmode0000_commo
  0x51b0	64 65 00 00 2f 00 3f 74 65 72 6d 69 6e 61 74 65 	de00/0?terminate
  0x51c0	40 40 59 41 58 58 5a 00 6d 73 76 63 72 74 2e 64 	@@YAXXZ0msvcrt.d
  0x51d0	6c 6c 00 00 9a 00 46 61 78 53 65 74 50 6f 72 74 	ll0000FaxSetPort
  0x51e0	45 78 57 00 8a 00 46 61 78 53 65 74 45 78 74 65 	ExW000FaxSetExte
  0x51f0	6e 73 69 6f 6e 44 61 74 61 57 00 00 0c 00 46 61 	nsionDataW0000Fa
  0x5200	78 43 6c 6f 73 65 00 00 27 00 46 61 78 45 6e 75 	xClose00'0FaxEnu
  0x5210	6d 50 6f 72 74 73 45 78 57 00 10 00 46 61 78 43 	mPortsExW000FaxC
  0x5220	6f 6e 6e 65 63 74 46 61 78 53 65 72 76 65 72 57 	onnectFaxServerW
  0x5230	00 00 2f 00 46 61 78 46 72 65 65 42 75 66 66 65 	00/0FaxFreeBuffe
  0x5240	72 00 46 58 53 41 50 49 2e 64 6c 6c 00 00 6a 00 	r0FXSAPI.dll00j0
  0x5250	45 6e 75 6d 50 72 69 6e 74 65 72 73 57 00 1d 00 	EnumPrintersW000
  0x5260	43 6c 6f 73 65 50 72 69 6e 74 65 72 00 00 8d 00 	ClosePrinter0000
  0x5270	47 65 74 50 72 69 6e 74 65 72 57 00 b6 00 53 65 	GetPrinterW000Se
  0x5280	74 50 72 69 6e 74 65 72 57 00 96 00 4f 70 65 6e 	tPrinterW000Open
  0x5290	50 72 69 6e 74 65 72 57 00 00 57 49 4e 53 50 4f 	PrinterW00WINSPO
  0x52a0	4f 4c 2e 44 52 56 00 00 8f 02 52 65 67 4f 70 65 	OL.DRV0000RegOpe
  0x52b0	6e 4b 65 79 45 78 57 00 ac 02 52 65 67 53 65 74 	nKeyExW000RegSet
  0x52c0	56 61 6c 75 65 45 78 57 00 00 2b 03 54 72 61 63 	ValueExW00+0Trac
  0x52d0	65 4d 65 73 73 61 67 65 00 00 67 02 52 65 67 43 	eMessage00g0RegC
  0x52e0	72 65 61 74 65 4b 65 79 45 78 57 00 8f 05 53 6c 	reateKeyExW000Sl
  0x52f0	65 65 70 00 7f 05 53 65 74 55 6e 68 61 6e 64 6c 	eep000SetUnhandl
  0x5300	65 64 45 78 63 65 70 74 69 6f 6e 46 69 6c 74 65 	edExceptionFilte
  0x5310	72 00 81 02 47 65 74 4d 6f 64 75 6c 65 48 61 6e 	r000GetModuleHan
  0x5320	64 6c 65 57 00 00 52 04 51 75 65 72 79 50 65 72 	dleW00R0QueryPer
  0x5330	66 6f 72 6d 61 6e 63 65 43 6f 75 6e 74 65 72 00 	formanceCounter0
  0x5340	21 02 47 65 74 43 75 72 72 65 6e 74 50 72 6f 63 	!0GetCurrentProc
  0x5350	65 73 73 49 64 00 25 02 47 65 74 43 75 72 72 65 	essId0%0GetCurre
  0x5360	6e 74 54 68 72 65 61 64 49 64 00 00 f3 02 47 65 	ntThreadId0000Ge
  0x5370	74 53 79 73 74 65 6d 54 69 6d 65 41 73 46 69 6c 	tSystemTimeAsFil
  0x5380	65 54 69 6d 65 00 11 03 47 65 74 54 69 63 6b 43 	eTime000GetTickC
  0x5390	6f 75 6e 74 00 00 d5 04 52 74 6c 43 61 70 74 75 	ount0000RtlCaptu
  0x53a0	72 65 43 6f 6e 74 65 78 74 00 dc 04 52 74 6c 4c 	reContext000RtlL
  0x53b0	6f 6f 6b 75 70 46 75 6e 63 74 69 6f 6e 45 6e 74 	ookupFunctionEnt
  0x53c0	72 79 00 00 e3 04 52 74 6c 56 69 72 74 75 61 6c 	ry0000RtlVirtual
  0x53d0	55 6e 77 69 6e 64 00 00 c0 05 55 6e 68 61 6e 64 	Unwind0000Unhand
  0x53e0	6c 65 64 45 78 63 65 70 74 69 6f 6e 46 69 6c 74 	ledExceptionFilt
  0x53f0	65 72 00 00 20 02 47 65 74 43 75 72 72 65 6e 74 	er00 0GetCurrent
  0x5400	50 72 6f 63 65 73 73 00 9e 05 54 65 72 6d 69 6e 	Process000Termin
  0x5410	61 74 65 50 72 6f 63 65 73 73 00 00 41 05 53 65 	ateProcess00A0Se
  0x5420	74 4c 61 73 74 45 72 72 6f 72 00 00 27 03 47 65 	tLastError00'0Ge
  0x5430	74 56 65 72 73 69 6f 6e 45 78 57 00 cb 03 4c 6f 	tVersionExW000Lo
  0x5440	61 64 4c 69 62 72 61 72 79 57 00 00 b8 02 47 65 	adLibraryW0000Ge
  0x5450	74 50 72 6f 63 41 64 64 72 65 73 73 00 00 b4 01 	tProcAddress0000
  0x5460	46 72 65 65 4c 69 62 72 61 72 79 00 55 03 48 65 	FreeLibrary0U0He
  0x5470	61 70 46 72 65 65 00 00 51 03 48 65 61 70 41 6c 	apFree00Q0HeapAl
  0x5480	6c 6f 63 00 be 02 47 65 74 50 72 6f 63 65 73 73 	loc000GetProcess
  0x5490	48 65 61 70 00 00 1e 04 4f 75 74 70 75 74 44 65 	Heap0000OutputDe
  0x54a0	62 75 67 53 74 72 69 6e 67 57 00 00 69 03 5f 76 	bugStringW00i0_v
  0x54b0	73 6e 77 70 72 69 6e 74 66 00 96 04 6d 65 6d 73 	snwprintf000mems
  0x54c0	65 74 00 00 02 05 77 63 73 63 6d 70 00 00 00 00 	et0000wcscmp0000
  0x54d0	00 00 00 00 00 00 00 00 00 00 00 00 00 00 00 00 	0000000000000000
  0x54e0	00 00 00 00 00 00 00 00 00 00 00 00 00 00 00 00 	0000000000000000
  0x54f0	00 00 00 00 00 00 00 00 00 00 00 00 00 00 00 00 	0000000000000000
  0x5500	00 00 00 00 00 00 00 00 00 00 00 00 00 00 00 00 	0000000000000000
  0x5510	00 00 00 00 00 00 00 00 00 00 00 00 00 00 00 00 	0000000000000000
  0x5520	00 00 00 00 00 00 00 00 00 00 00 00 00 00 00 00 	0000000000000000
  0x5530	00 00 00 00 00 00 00 00 00 00 00 00 00 00 00 00 	0000000000000000
  0x5540	00 00 00 00 00 00 00 00 00 00 00 00 00 00 00 00 	0000000000000000
  0x5550	00 00 00 00 00 00 00 00 00 00 00 00 00 00 00 00 	0000000000000000
  0x5560	00 00 00 00 00 00 00 00 00 00 00 00 00 00 00 00 	0000000000000000
  0x5570	00 00 00 00 00 00 00 00 00 00 00 00 00 00 00 00 	0000000000000000
  0x5580	00 00 00 00 00 00 00 00 00 00 00 00 00 00 00 00 	0000000000000000
  0x5590	00 00 00 00 00 00 00 00 00 00 00 00 00 00 00 00 	0000000000000000
  0x55a0	00 00 00 00 00 00 00 00 00 00 00 00 00 00 00 00 	0000000000000000
  0x55b0	00 00 00 00 00 00 00 00 00 00 00 00 00 00 00 00 	0000000000000000
  0x55c0	00 00 00 00 00 00 00 00 00 00 00 00 00 00 00 00 	0000000000000000
  0x55d0	00 00 00 00 00 00 00 00 00 00 00 00 00 00 00 00 	0000000000000000
  0x55e0	00 00 00 00 00 00 00 00 00 00 00 00 00 00 00 00 	0000000000000000
  0x55f0	00 00 00 00 00 00 00 00 00 00 00 00 00 00 00 00 	0000000000000000
=== DATA BLOCK END ===

=== DATA BLOCK ADDRESS 0x6000 ===
  0x6000	00 60 00 40 01 00 00 00 00 00 00 00 00 00 00 00 	0`0@000000000000
  0x6010	01 00 00 00 00 00 00 00 32 a2 df 2d 99 2b 00 00 	00000000200-0+00
  0x6020	cd 5d 20 d2 66 d4 ff ff 00 00 00 00 00 00 00 00 	0] 0f00000000000
  0x6030	ff ff ff ff 00 00 00 00 00 00 00 00 00 00 00 00 	0000000000000000
  0x6040	00 00 00 00 00 00 00 00 00 00 00 00 00 00 00 00 	0000000000000000
  0x6050	00 00 00 00 00 00 00 00 00 00 00 00 00 00 00 00 	0000000000000000
  0x6060	00 00 00 00 00 00 00 00 00 00 00 00 00 00 00 00 	0000000000000000
  0x6070	00 00 00 00 00 00 00 00 00 00 00 00 00 00 00 00 	0000000000000000
  0x6080	00 00 00 00 00 00 00 00 00 00 00 00 00 00 00 00 	0000000000000000
  0x6090	00 00 00 00 00 00 00 00 00 00 00 00 00 00 00 00 	0000000000000000
  0x60a0	00 00 00 00 00 00 00 00 00 00 00 00 00 00 00 00 	0000000000000000
  0x60b0	00 00 00 00 00 00 00 00 00 00 00 00 00 00 00 00 	0000000000000000
  0x60c0	00 00 00 00 00 00 00 00 00 00 00 00 00 00 00 00 	0000000000000000
  0x60d0	00 00 00 00 00 00 00 00 00 00 00 00 00 00 00 00 	0000000000000000
  0x60e0	00 00 00 00 00 00 00 00 00 00 00 00 00 00 00 00 	0000000000000000
  0x60f0	00 00 00 00 00 00 00 00 00 00 00 00 00 00 00 00 	0000000000000000
  0x6100	00 00 00 00 00 00 00 00 00 00 00 00 00 00 00 00 	0000000000000000
  0x6110	00 00 00 00 00 00 00 00 00 00 00 00 00 00 00 00 	0000000000000000
  0x6120	00 00 00 00 00 00 00 00 00 00 00 00 00 00 00 00 	0000000000000000
  0x6130	00 00 00 00 00 00 00 00 00 00 00 00 00 00 00 00 	0000000000000000
  0x6140	00 00 00 00 00 00 00 00 00 00 00 00 00 00 00 00 	0000000000000000
  0x6150	00 00 00 00 00 00 00 00 00 00 00 00 00 00 00 00 	0000000000000000
  0x6160	00 00 00 00 00 00 00 00 00 00 00 00 00 00 00 00 	0000000000000000
  0x6170	00 00 00 00 00 00 00 00 00 00 00 00 00 00 00 00 	0000000000000000
  0x6180	00 00 00 00 00 00 00 00 00 00 00 00 00 00 00 00 	0000000000000000
  0x6190	00 00 00 00 00 00 00 00 00 00 00 00 00 00 00 00 	0000000000000000
  0x61a0	00 00 00 00 00 00 00 00 00 00 00 00 00 00 00 00 	0000000000000000
  0x61b0	00 00 00 00 00 00 00 00 00 00 00 00 00 00 00 00 	0000000000000000
  0x61c0	00 00 00 00 00 00 00 00 00 00 00 00 00 00 00 00 	0000000000000000
  0x61d0	00 00 00 00 00 00 00 00 00 00 00 00 00 00 00 00 	0000000000000000
  0x61e0	00 00 00 00 00 00 00 00 00 00 00 00 00 00 00 00 	0000000000000000
  0x61f0	00 00 00 00 00 00 00 00 00 00 00 00 00 00 00 00 	0000000000000000
=== DATA BLOCK END ===

=== DATA BLOCK ADDRESS 0x7000 ===
  0x7000	08 10 00 00 4d 10 00 00 48 4c 00 00 54 10 00 00 	0000M000HL00T000
  0x7010	da 13 00 00 50 4c 00 00 e0 13 00 00 5f 16 00 00 	0000PL000000_000
  0x7020	64 4c 00 00 68 16 00 00 8d 16 00 00 80 4c 00 00 	dL00h00000000L00
  0x7030	94 16 00 00 db 16 00 00 88 4c 00 00 e4 16 00 00 	000000000L000000
  0x7040	1f 17 00 00 88 4c 00 00 28 17 00 00 09 18 00 00 	00000L00(0000000
  0x7050	90 4c 00 00 10 18 00 00 7f 18 00 00 98 4c 00 00 	0L00000000000L00
  0x7060	88 18 00 00 03 19 00 00 a4 4c 00 00 0c 19 00 00 	000000000L000000
  0x7070	75 1a 00 00 b0 4c 00 00 7c 1a 00 00 4a 1c 00 00 	u0000L00|000J000
  0x7080	c4 4c 00 00 50 1c 00 00 e6 1c 00 00 d8 4c 00 00 	0L00P00000000L00
  0x7090	ec 1c 00 00 41 1e 00 00 e4 4c 00 00 48 1e 00 00 	0000A0000L00H000
  0x70a0	23 1f 00 00 f8 4c 00 00 2c 1f 00 00 28 21 00 00 	#0000L00,000(!00
  0x70b0	08 4d 00 00 30 21 00 00 7a 24 00 00 20 4d 00 00 	0M000!00z$00 M00
  0x70c0	80 24 00 00 34 25 00 00 48 4d 00 00 3c 25 00 00 	0$004%00HM00<%00
  0x70d0	7a 25 00 00 54 4d 00 00 80 25 00 00 50 27 00 00 	z%00TM000%00P'00
  0x70e0	5c 4d 00 00 58 27 00 00 43 28 00 00 c4 4c 00 00 	0M00X'00C(000L00
  0x70f0	50 28 00 00 23 29 00 00 54 4d 00 00 30 29 00 00 	P(00#)00TM000)00
  0x7100	79 29 00 00 80 4c 00 00 80 29 00 00 3e 2b 00 00 	y)000L000)00>+00
  0x7110	74 4d 00 00 50 2b 00 00 62 2b 00 00 54 4d 00 00 	tM00P+00b+00TM00
  0x7120	80 2b 00 00 9e 2b 00 00 a8 4d 00 00 b0 2b 00 00 	0+000+000M000+00
  0x7130	e9 2b 00 00 54 4d 00 00 f0 2b 00 00 08 2c 00 00 	0+00TM000+000,00
  0x7140	54 4d 00 00 1c 2c 00 00 70 2c 00 00 ac 4d 00 00 	TM000,00p,000M00
  0x7150	78 2c 00 00 bd 2c 00 00 cc 4d 00 00 30 2d 00 00 	x,000,000M000-00
  0x7160	7d 2d 00 00 d4 4d 00 00 c4 2d 00 00 98 2e 00 00 	}-000M000-000.00
  0x7170	f8 4d 00 00 cc 2e 00 00 00 2f 00 00 cc 4d 00 00 	0M000.000/000M00
  0x7180	10 2f 00 00 81 30 00 00 0c 4e 00 00 88 30 00 00 	0/0000000N000000
  0x7190	7f 31 00 00 04 4e 00 00 88 31 00 00 a5 31 00 00 	01000N0001000100
  0x71a0	54 4d 00 00 ac 31 00 00 07 32 00 00 1c 4e 00 00 	TM00010002000N00
  0x71b0	40 32 00 00 42 32 00 00 18 4e 00 00 60 32 00 00 	@200B2000N00`200
  0x71c0	ad 32 00 00 28 4e 00 00 b3 32 00 00 d1 32 00 00 	0200(N0002000200
  0x71d0	a0 4d 00 00 e0 32 00 00 00 33 00 00 a0 4d 00 00 	0M00020003000M00
  0x71e0	00 00 00 00 00 00 00 00 00 00 00 00 00 00 00 00 	0000000000000000
  0x71f0	00 00 00 00 00 00 00 00 00 00 00 00 00 00 00 00 	0000000000000000
=== DATA BLOCK END ===
