===== Assembly blocks =====

=== CODE BLOCK ADDRESS 0x1000 ===
  0x1000	int3   	
  0x1001	int3   	
  0x1002	int3   	
  0x1003	int3   	
  0x1004	int3   	
  === BLOCK LINK ===
    0x1005
=== CODE BLOCK END ===

=== CODE BLOCK ADDRESS 0x1005 ===
  0x1005	int3   	
  0x1006	int3   	
  0x1007	int3   	
  0x1008	int3   	
  0x1009	int3   	
  === BLOCK LINK ===
    0x100a
=== CODE BLOCK END ===

=== CODE BLOCK ADDRESS 0x100a ===
  0x100a	int3   	
  0x100b	int3   	
  0x100c	int3   	
  0x100d	int3   	
  0x100e	int3   	
  === BLOCK LINK ===
    0x100f
=== CODE BLOCK END ===

=== CODE BLOCK ADDRESS 0x100f ===
  0x100f	int3   	
  0x1010	inc    	eax
  0x1011	push   	ebx
  0x1012	dec    	eax
  0x1013	sub    	esp, 0x40
  === BLOCK LINK ===
    0x1016
=== CODE BLOCK END ===

=== CODE BLOCK ADDRESS 0x1016 ===
  0x1016	dec    	esp
  0x1017	mov    	edx, dword ptr [esp + 0x80]
  0x101e	dec    	eax
  0x101f	mov    	ebx, ecx
  0x1021	dec    	ebp
  === BLOCK LINK ===
    0x1022
=== CODE BLOCK END ===

=== CODE BLOCK ADDRESS 0x1022 ===
  0x1022	test   	edx, edx
  0x1024	je     	0x1082
  === BLOCK LINK ===
    0x1026
    0x1082
=== CODE BLOCK END ===

=== CODE BLOCK ADDRESS 0x1026 ===
  0x1026	dec    	esp
  0x1027	mov    	ebx, dword ptr [esp + 0x70]
  0x102b	mov    	eax, edx
  0x102d	test   	edx, edx
  0x102f	je     	0x1054
  === BLOCK LINK ===
    0x1031
    0x1054
=== CODE BLOCK END ===

=== CODE BLOCK ADDRESS 0x1031 ===
  0x1031	cmp    	eax, 1
  0x1034	jne    	0x1058
  === BLOCK LINK ===
    0x1036
    0x1058
=== CODE BLOCK END ===

=== CODE BLOCK ADDRESS 0x1036 ===
  0x1036	inc    	ecx
  0x1037	movzx  	ecx, al
  0x103a	mov    	eax, 0x100
  0x103f	inc    	ecx
  0x1041	dec    	ebp
  === BLOCK LINK ===
    0x1042
=== CODE BLOCK END ===

=== CODE BLOCK ADDRESS 0x1042 ===
  0x1042	mov    	dword ptr [edx + 0x10], ecx
  0x1045	inc    	ebp
  0x1046	test   	al, al
  0x1048	dec    	ebp
  0x1049	mov    	dword ptr [edx + 0x18], ebx
  === BLOCK LINK ===
    0x104c
=== CODE BLOCK END ===

=== CODE BLOCK ADDRESS 0x104c ===
  0x104c	cmovne  	eax, ecx
  0x104f	inc    	ecx
  0x1050	mov    	dword ptr [edx], eax
  0x1052	jmp    	0x1058
  === BLOCK LINK ===
    0x1054
    0x1058
=== CODE BLOCK END ===

=== CODE BLOCK ADDRESS 0x1054 ===
  0x1054	inc    	ecx
  0x1055	and    	dword ptr [edx], 0
  === BLOCK LINK ===
    0x1058
=== CODE BLOCK END ===

=== CODE BLOCK ADDRESS 0x105d ===
  0x105d	test   	eax, eax
  0x105f	je     	0x1082
  === BLOCK LINK ===
    0x1061
    0x1082
=== CODE BLOCK END ===

=== CODE BLOCK ADDRESS 0x1061 ===
  0x1061	dec    	ecx
  0x1062	mov    	ecx, dword ptr [edx + 0x30]
  0x1065	dec    	eax
  0x1066	mov    	dword ptr [esp + 0x30], ecx
  0x106a	dec    	eax
  === BLOCK LINK ===
    0x106b
=== CODE BLOCK END ===

=== CODE BLOCK ADDRESS 0x106b ===
  0x106b	mov    	ecx, dword ptr [esp + 0x78]
  0x106f	dec    	eax
  0x1070	mov    	dword ptr [esp + 0x28], ecx
  0x1074	dec    	eax
  0x1075	mov    	ecx, ebx
  === BLOCK LINK ===
    0x1077
=== CODE BLOCK END ===

=== CODE BLOCK ADDRESS 0x1077 ===
  0x1077	dec    	esp
  0x1078	mov    	dword ptr [esp + 0x20], ebx
  0x107c	call   	dword ptr [0x54fe]
  === BLOCK LINK ===
    0x1082
=== CODE BLOCK END ===

=== CODE BLOCK ADDRESS 0x1082 ===
  0x1082	dec    	eax
  0x1083	add    	esp, 0x40
  0x1086	pop    	ebx
  0x1087	ret    	
  0x1088	int3   	
  === BLOCK LINK ===
    0x1089
=== CODE BLOCK END ===

=== CODE BLOCK ADDRESS 0x1089 ===
  0x1089	int3   	
  0x108a	int3   	
  0x108b	int3   	
  0x108c	int3   	
  0x108d	int3   	
  === BLOCK LINK ===
    0x108e
=== CODE BLOCK END ===

=== CODE BLOCK ADDRESS 0x108e ===
  0x108e	int3   	
  0x108f	int3   	
  === BLOCK LINK ===
    0x1090
=== CODE BLOCK END ===

=== CODE BLOCK ADDRESS 0x1097 ===
  0x1097	dec    	esp
  0x1098	lea    	edx, [edx + 1]
  0x109b	dec    	eax
  0x109c	mov    	edx, dword ptr [esp + 0x78]
  0x10a0	dec    	esp
  === BLOCK LINK ===
    0x10a1
=== CODE BLOCK END ===

=== CODE BLOCK ADDRESS 0x10a1 ===
  0x10a1	mov    	ebx, ecx
  0x10a3	shl    	eax, 0x18
  0x10a6	mov    	dword ptr [esp + 0x30], eax
  0x10aa	inc    	ecx
  0x10ab	movzx  	eax, word ptr [edx]
  === BLOCK LINK ===
    0x10ae
=== CODE BLOCK END ===

=== CODE BLOCK ADDRESS 0x10ae ===
  0x10ae	mov    	dword ptr [esp + 0x34], eax
  0x10b2	dec    	ecx
  0x10b3	mov    	eax, dword ptr [edx + 2]
  0x10b6	dec    	ecx
  0x10b7	add    	edx, 0xa
  === BLOCK LINK ===
    0x10ba
=== CODE BLOCK END ===

=== CODE BLOCK ADDRESS 0x10ba ===
  0x10ba	dec    	eax
  0x10bb	mov    	dword ptr [esp + 0x38], eax
  0x10bf	dec    	eax
  0x10c0	mov    	eax, dword ptr [ecx + 8]
  0x10c3	dec    	eax
  === BLOCK LINK ===
    0x10c4
=== CODE BLOCK END ===

=== CODE BLOCK ADDRESS 0x10c4 ===
  0x10c4	mov    	dword ptr [edx], eax
  0x10c6	dec    	eax
  0x10c7	mov    	eax, dword ptr [ecx + 8]
  0x10ca	dec    	eax
  0x10cb	mov    	dword ptr [esp + 0x28], edx
  === BLOCK LINK ===
    0x10cf
=== CODE BLOCK END ===

=== CODE BLOCK ADDRESS 0x10cf ===
  0x10cf	movzx  	ecx, word ptr [eax]
  0x10d2	mov    	dword ptr [edx + 8], ecx
  0x10d5	dec    	eax
  0x10d6	lea    	ecx, [0x5b2c]
  0x10dc	mov    	dword ptr [edx + 0xc], 2
  === BLOCK LINK ===
    0x10e3
=== CODE BLOCK END ===

=== CODE BLOCK ADDRESS 0x10e3 ===
  0x10e3	dec    	esp
  0x10e4	mov    	dword ptr [edx + 0x10], edx
  0x10e7	inc    	ecx
  0x10e8	movzx  	eax, word ptr [edx]
  0x10eb	mov    	dword ptr [edx + 0x18], eax
  === BLOCK LINK ===
    0x10ee
=== CODE BLOCK END ===

=== CODE BLOCK ADDRESS 0x10ee ===
  0x10ee	dec    	eax
  0x10ef	lea    	eax, [0x5d61]
  0x10f5	sub    	eax, ecx
  0x10f7	mov    	dword ptr [edx + 0x1c], 1
  0x10fe	dec    	ecx
  === BLOCK LINK ===
    0x10ff
=== CODE BLOCK END ===

=== CODE BLOCK ADDRESS 0x10ff ===
  0x10ff	mov    	ecx, dword ptr [ebx + 0x20]
  0x1102	dec    	eax
  0x1103	lea    	edx, [esp + 0x30]
  0x1107	mov    	dword ptr [esp + 0x78], eax
  0x110b	mov    	eax, dword ptr [esp + 0x70]
  === BLOCK LINK ===
    0x110f
=== CODE BLOCK END ===

=== CODE BLOCK ADDRESS 0x110f ===
  0x110f	mov    	dword ptr [esp + 0x20], eax
  0x1113	dec    	eax
  0x1114	call   	dword ptr [0x52ee]
  === BLOCK LINK ===
    0x111a
=== CODE BLOCK END ===

=== CODE BLOCK ADDRESS 0x111a ===
  0x111a	nop    	dword ptr [eax + eax]
  0x111f	dec    	eax
  0x1120	add    	esp, 0x48
  0x1123	ret    	
  0x1124	int3   	
  === BLOCK LINK ===
    0x1125
=== CODE BLOCK END ===

=== CODE BLOCK ADDRESS 0x1125 ===
  0x1125	int3   	
  0x1126	int3   	
  0x1127	int3   	
  0x1128	int3   	
  0x1129	int3   	
  === BLOCK LINK ===
    0x112a
=== CODE BLOCK END ===

=== CODE BLOCK ADDRESS 0x112a ===
  0x112a	int3   	
  0x112b	int3   	
  === BLOCK LINK ===
    0x112c
=== CODE BLOCK END ===

=== CODE BLOCK ADDRESS 0x1134 ===
  0x1134	mov    	eax, dword ptr [0x806e]
  0x113a	dec    	eax
  0x113b	xor    	eax, esp
  0x113d	dec    	eax
  0x113e	mov    	dword ptr [esp + 0x70], eax
  === BLOCK LINK ===
    0x1142
=== CODE BLOCK END ===

=== CODE BLOCK ADDRESS 0x1142 ===
  0x1142	dec    	eax
  0x1143	mov    	eax, dword ptr [esp + 0xb8]
  0x114a	inc    	ebp
  0x114b	xor    	eax, eax
  0x114d	dec    	eax
  === BLOCK LINK ===
    0x114e
=== CODE BLOCK END ===

=== CODE BLOCK ADDRESS 0x114e ===
  0x114e	mov    	dword ptr [esp + 0x60], eax
  0x1152	inc    	ecx
  0x1153	mov    	ecx, 4
  0x1158	dec    	eax
  0x1159	mov    	eax, dword ptr [esp + 0xb0]
  === BLOCK LINK ===
    0x1160
=== CODE BLOCK END ===

=== CODE BLOCK ADDRESS 0x1160 ===
  0x1160	dec    	esp
  0x1161	mov    	edx, edx
  0x1163	dec    	esp
  0x1164	mov    	dword ptr [esp + 0x68], ecx
  0x1168	dec    	eax
  === BLOCK LINK ===
    0x1169
=== CODE BLOCK END ===

=== CODE BLOCK ADDRESS 0x1169 ===
  0x1169	mov    	ecx, dword ptr [eax]
  0x116b	dec    	eax
  0x116c	test   	ecx, ecx
  0x116e	je     	0x1187
  === BLOCK LINK ===
    0x1170
    0x1187
=== CODE BLOCK END ===

=== CODE BLOCK ADDRESS 0x1170 ===
  0x1170	dec    	eax
  0x1171	or     	eax, 0xffffffff
  === BLOCK LINK ===
    0x1174
=== CODE BLOCK END ===

=== CODE BLOCK ADDRESS 0x1179 ===
  0x1179	cmp    	dword ptr [ecx + eax*2], eax
  0x117c	jne    	0x1174
  === BLOCK LINK ===
    0x117e
    0x1174
=== CODE BLOCK END ===

=== CODE BLOCK ADDRESS 0x117e ===
  0x117e	lea    	edx, [eax*2 + 2]
  0x1185	jmp    	0x1193
  === BLOCK LINK ===
    0x1187
    0x1193
=== CODE BLOCK END ===

=== CODE BLOCK ADDRESS 0x1187 ===
  0x1187	dec    	eax
  0x1188	lea    	ecx, [0x5532]
  0x118e	mov    	edx, 2
  === BLOCK LINK ===
    0x1193
=== CODE BLOCK END ===

=== CODE BLOCK ADDRESS 0x1198 ===
  0x1198	dec    	eax
  0x1199	mov    	dword ptr [esp + 0x50], ecx
  0x119d	dec    	eax
  0x119e	mov    	dword ptr [esp + 0x28], eax
  0x11a2	dec    	eax
  === BLOCK LINK ===
    0x11a3
=== CODE BLOCK END ===

=== CODE BLOCK ADDRESS 0x11a3 ===
  0x11a3	lea    	ecx, [0x7e57]
  0x11a9	inc    	esp
  0x11aa	mov    	dword ptr [esp + 0x20], ecx
  0x11ae	inc    	ebp
  0x11af	xor    	ecx, ecx
  === BLOCK LINK ===
    0x11b1
=== CODE BLOCK END ===

=== CODE BLOCK ADDRESS 0x11b1 ===
  0x11b1	mov    	dword ptr [esp + 0x58], edx
  0x11b5	dec    	ecx
  0x11b6	mov    	edx, edx
  0x11b8	inc    	esp
  0x11b9	mov    	dword ptr [esp + 0x5c], eax
  === BLOCK LINK ===
    0x11bd
=== CODE BLOCK END ===

=== CODE BLOCK ADDRESS 0x11bd ===
  0x11bd	call   	0x1090
  === BLOCK LINK ===
    0x11c2
    0x1090
=== CODE BLOCK END ===

=== CODE BLOCK ADDRESS 0x11c2 ===
  0x11c2	dec    	eax
  0x11c3	mov    	ecx, dword ptr [esp + 0x70]
  0x11c7	dec    	eax
  0x11c8	xor    	ecx, esp
  0x11ca	call   	0x5280
  === BLOCK LINK ===
    0x11cf
    0x5280
=== CODE BLOCK END ===

=== CODE BLOCK ADDRESS 0x11cf ===
  0x11cf	dec    	eax
  0x11d0	add    	esp, 0x88
  0x11d6	ret    	
  0x11d7	int3   	
  0x11d8	int3   	
  === BLOCK LINK ===
    0x11d9
=== CODE BLOCK END ===

=== CODE BLOCK ADDRESS 0x1058 ===
  0x1058	dec    	ecx
  0x1059	mov    	eax, dword ptr [edx + 0x28]
  0x105c	dec    	eax
  === BLOCK LINK ===
    0x105d
=== CODE BLOCK END ===

=== CODE BLOCK ADDRESS 0x11d9 ===
  0x11d9	int3   	
  0x11da	int3   	
  0x11db	int3   	
  0x11dc	int3   	
  0x11dd	int3   	
  === BLOCK LINK ===
    0x11de
=== CODE BLOCK END ===

=== CODE BLOCK ADDRESS 0x11de ===
  0x11de	int3   	
  0x11df	int3   	
  0x11e0	dec    	eax
  0x11e1	lea    	eax, [0x1659]
  0x11e7	dec    	eax
  === BLOCK LINK ===
    0x11e8
=== CODE BLOCK END ===

=== CODE BLOCK ADDRESS 0x11e8 ===
  0x11e8	mov    	dword ptr [0x8632], eax
  0x11ee	dec    	eax
  0x11ef	lea    	eax, [0x166b]
  0x11f5	dec    	eax
  0x11f6	mov    	dword ptr [0x863c], eax
  === BLOCK LINK ===
    0x11fc
=== CODE BLOCK END ===

=== CODE BLOCK ADDRESS 0x11fc ===
  0x11fc	ret    	
  0x11fd	int3   	
  0x11fe	int3   	
  0x11ff	int3   	
  0x1200	int3   	
  === BLOCK LINK ===
    0x1201
=== CODE BLOCK END ===

=== CODE BLOCK ADDRESS 0x1201 ===
  0x1201	int3   	
  0x1202	int3   	
  0x1203	int3   	
  0x1204	int3   	
  0x1205	int3   	
  === BLOCK LINK ===
    0x1206
=== CODE BLOCK END ===

=== CODE BLOCK ADDRESS 0x1206 ===
  0x1206	int3   	
  0x1207	int3   	
  0x1208	int3   	
  0x1209	int3   	
  0x120a	int3   	
  === BLOCK LINK ===
    0x120b
=== CODE BLOCK END ===

=== CODE BLOCK ADDRESS 0x120b ===
  0x120b	int3   	
  0x120c	int3   	
  0x120d	int3   	
  0x120e	int3   	
  0x120f	int3   	
  === BLOCK LINK ===
    0x1210
=== CODE BLOCK END ===

=== CODE BLOCK ADDRESS 0x1210 ===
  0x1210	dec    	eax
  0x1211	lea    	eax, [0xf49]
  0x1217	dec    	eax
  0x1218	mov    	dword ptr [0x862a], eax
  0x121e	dec    	eax
  === BLOCK LINK ===
    0x121f
=== CODE BLOCK END ===

=== CODE BLOCK ADDRESS 0x121f ===
  0x121f	lea    	eax, [0xf8b]
  0x1225	dec    	eax
  0x1226	mov    	dword ptr [0x85e4], eax
  0x122c	dec    	eax
  0x122d	lea    	eax, [0xf9d]
  === BLOCK LINK ===
    0x1233
=== CODE BLOCK END ===

=== CODE BLOCK ADDRESS 0x1233 ===
  0x1233	dec    	eax
  0x1234	mov    	dword ptr [0x8606], eax
  0x123a	dec    	eax
  0x123b	lea    	eax, [0x174f]
  0x1241	dec    	eax
  === BLOCK LINK ===
    0x1242
=== CODE BLOCK END ===

=== CODE BLOCK ADDRESS 0x1242 ===
  0x1242	mov    	dword ptr [0x85c0], eax
  0x1248	dec    	eax
  0x1249	lea    	eax, [0x17c1]
  0x124f	dec    	eax
  0x1250	mov    	dword ptr [0x85a2], eax
  === BLOCK LINK ===
    0x1256
=== CODE BLOCK END ===

=== CODE BLOCK ADDRESS 0x1256 ===
  0x1256	ret    	
  0x1257	int3   	
  0x1258	int3   	
  0x1259	int3   	
  0x125a	int3   	
  === BLOCK LINK ===
    0x125b
=== CODE BLOCK END ===

=== CODE BLOCK ADDRESS 0x125b ===
  0x125b	int3   	
  0x125c	int3   	
  0x125d	int3   	
  0x125e	int3   	
  0x125f	int3   	
  === BLOCK LINK ===
    0x1260
=== CODE BLOCK END ===

=== CODE BLOCK ADDRESS 0x1260 ===
  0x1260	dec    	eax
  0x1261	lea    	ecx, [0x4a99]
  0x1267	jmp    	0x568c
  === BLOCK LINK ===
    0x126c
    0x568c
=== CODE BLOCK END ===

=== CODE BLOCK ADDRESS 0x126c ===
  0x126c	int3   	
  0x126d	int3   	
  0x126e	int3   	
  0x126f	int3   	
  0x1270	int3   	
  === BLOCK LINK ===
    0x1271
=== CODE BLOCK END ===

=== CODE BLOCK ADDRESS 0x1271 ===
  0x1271	int3   	
  0x1272	int3   	
  0x1273	int3   	
  0x1274	int3   	
  0x1275	int3   	
  === BLOCK LINK ===
    0x1276
=== CODE BLOCK END ===

=== CODE BLOCK ADDRESS 0x1276 ===
  0x1276	int3   	
  0x1277	int3   	
  0x1278	int3   	
  0x1279	int3   	
  0x127a	int3   	
  === BLOCK LINK ===
    0x127b
=== CODE BLOCK END ===

=== CODE BLOCK ADDRESS 0x127b ===
  0x127b	int3   	
  0x127c	int3   	
  0x127d	int3   	
  0x127e	int3   	
  0x127f	int3   	
  === BLOCK LINK ===
    0x1280
=== CODE BLOCK END ===

=== CODE BLOCK ADDRESS 0x1280 ===
  0x1280	dec    	eax
  0x1281	lea    	ecx, [0x4aa9]
  0x1287	jmp    	0x568c
  === BLOCK LINK ===
    0x128c
    0x568c
=== CODE BLOCK END ===

=== CODE BLOCK ADDRESS 0x128c ===
  0x128c	int3   	
  0x128d	int3   	
  0x128e	int3   	
  0x128f	int3   	
  0x1290	int3   	
  === BLOCK LINK ===
    0x1291
=== CODE BLOCK END ===

=== CODE BLOCK ADDRESS 0x1291 ===
  0x1291	int3   	
  0x1292	int3   	
  0x1293	int3   	
  0x1294	int3   	
  0x1295	int3   	
  === BLOCK LINK ===
    0x1296
=== CODE BLOCK END ===

=== CODE BLOCK ADDRESS 0x1296 ===
  0x1296	int3   	
  0x1297	int3   	
  0x1298	int3   	
  0x1299	int3   	
  0x129a	int3   	
  === BLOCK LINK ===
    0x129b
=== CODE BLOCK END ===

=== CODE BLOCK ADDRESS 0x129b ===
  0x129b	int3   	
  0x129c	int3   	
  0x129d	int3   	
  0x129e	int3   	
  0x129f	int3   	
  === BLOCK LINK ===
    0x12a0
=== CODE BLOCK END ===

=== CODE BLOCK ADDRESS 0x12a0 ===
  0x12a0	dec    	eax
  0x12a1	lea    	eax, [0x3359]
  0x12a7	dec    	eax
  0x12a8	mov    	dword ptr [0x8552], eax
  0x12ae	dec    	eax
  === BLOCK LINK ===
    0x12af
=== CODE BLOCK END ===

=== CODE BLOCK ADDRESS 0x12af ===
  0x12af	lea    	eax, [0x7e5b]
  0x12b5	dec    	eax
  0x12b6	mov    	dword ptr [0x8604], eax
  0x12bc	dec    	eax
  0x12bd	lea    	eax, [0x863d]
  === BLOCK LINK ===
    0x12c3
=== CODE BLOCK END ===

=== CODE BLOCK ADDRESS 0x12c3 ===
  0x12c3	dec    	eax
  0x12c4	mov    	dword ptr [0x85fe], eax
  0x12ca	ret    	
  0x12cb	int3   	
  0x12cc	int3   	
  === BLOCK LINK ===
    0x12cd
=== CODE BLOCK END ===

=== CODE BLOCK ADDRESS 0x12cd ===
  0x12cd	int3   	
  0x12ce	int3   	
  0x12cf	int3   	
  0x12d0	int3   	
  0x12d1	int3   	
  === BLOCK LINK ===
    0x12d2
=== CODE BLOCK END ===

=== CODE BLOCK ADDRESS 0x12d2 ===
  0x12d2	int3   	
  0x12d3	int3   	
  0x12d4	nop    	
  0x12d6	ret    	
  0x12d7	int3   	
  === BLOCK LINK ===
    0x12d8
=== CODE BLOCK END ===

=== CODE BLOCK ADDRESS 0x1174 ===
  0x1174	dec    	eax
  0x1175	inc    	eax
  0x1177	inc    	sp
  === BLOCK LINK ===
    0x1179
=== CODE BLOCK END ===

=== CODE BLOCK ADDRESS 0x12d8 ===
  0x12d8	int3   	
  0x12d9	int3   	
  0x12da	int3   	
  0x12db	int3   	
  0x12dc	int3   	
  === BLOCK LINK ===
    0x12dd
=== CODE BLOCK END ===

=== CODE BLOCK ADDRESS 0x12dd ===
  0x12dd	int3   	
  0x12de	int3   	
  0x12df	int3   	
  0x12e0	mov    	eax, 0x8000ffff
  0x12e5	ret    	
  === BLOCK LINK ===
    0x12e6
=== CODE BLOCK END ===

=== CODE BLOCK ADDRESS 0x1193 ===
  0x1193	dec    	eax
  0x1194	lea    	eax, [esp + 0x30]
  === BLOCK LINK ===
    0x1198
=== CODE BLOCK END ===

=== CODE BLOCK ADDRESS 0x12e6 ===
  0x12e6	int3   	
  0x12e7	int3   	
  0x12e8	int3   	
  0x12e9	int3   	
  0x12ea	int3   	
  === BLOCK LINK ===
    0x12eb
=== CODE BLOCK END ===

=== CODE BLOCK ADDRESS 0x12eb ===
  0x12eb	int3   	
  0x12ec	int3   	
  0x12ed	int3   	
  0x12ee	int3   	
  0x12ef	int3   	
  === BLOCK LINK ===
    0x12f0
=== CODE BLOCK END ===

=== CODE BLOCK ADDRESS 0x12f0 ===
  0x12f0	dec    	eax
  0x12f1	mov    	dword ptr [esp + 0x10], ebx
  0x12f5	dec    	eax
  0x12f6	mov    	dword ptr [esp + 0x18], edi
  0x12fa	push   	ebp
  === BLOCK LINK ===
    0x12fb
=== CODE BLOCK END ===

=== CODE BLOCK ADDRESS 0x12fb ===
  0x12fb	dec    	eax
  0x12fc	lea    	ebp, [esp - 0x57]
  0x1300	dec    	eax
  0x1301	sub    	esp, 0xd0
  0x1307	dec    	eax
  === BLOCK LINK ===
    0x1308
=== CODE BLOCK END ===

=== CODE BLOCK ADDRESS 0x1308 ===
  0x1308	mov    	eax, dword ptr [0x7e9a]
  0x130e	dec    	eax
  0x130f	xor    	eax, esp
  0x1311	dec    	eax
  0x1312	mov    	dword ptr [ebp + 0x47], eax
  === BLOCK LINK ===
    0x1315
=== CODE BLOCK END ===

=== CODE BLOCK ADDRESS 0x1315 ===
  0x1315	dec    	eax
  0x1316	and    	dword ptr [ebp - 0x39], 0
  0x131a	dec    	eax
  0x131b	lea    	edx, [ebp - 9]
  0x131e	dec    	eax
  === BLOCK LINK ===
    0x131f
=== CODE BLOCK END ===

=== CODE BLOCK ADDRESS 0x131f ===
  0x131f	mov    	edi, ecx
  0x1321	mov    	dword ptr [ebp - 0x41], 0x3f
  0x1328	dec    	eax
  0x1329	lea    	ecx, [0x5419]
  0x132f	inc    	ecx
  === BLOCK LINK ===
    0x1330
=== CODE BLOCK END ===

=== CODE BLOCK ADDRESS 0x1330 ===
  0x1330	mov    	eax, 0x27
  0x1335	dec    	eax
  0x1336	call   	dword ptr [0x4e94]
  === BLOCK LINK ===
    0x133c
=== CODE BLOCK END ===

=== CODE BLOCK ADDRESS 0x133c ===
  0x133c	nop    	dword ptr [eax + eax]
  0x1341	test   	eax, eax
  0x1343	jne    	0x13b0
  === BLOCK LINK ===
    0x1345
    0x13b0
=== CODE BLOCK END ===

=== CODE BLOCK ADDRESS 0x1345 ===
  0x1345	mov    	ebx, 0x80004005
  === BLOCK LINK ===
    0x134a
=== CODE BLOCK END ===

=== CODE BLOCK ADDRESS 0x1355 ===
  0x1355	nop    	dword ptr [eax + eax]
  === BLOCK LINK ===
    0x135a
=== CODE BLOCK END ===

=== CODE BLOCK ADDRESS 0x1363 ===
  0x1363	dec    	eax
  0x1364	lea    	eax, [ebp - 9]
  0x1367	mov    	dword ptr [ebp - 0x49], ebx
  0x136a	dec    	eax
  0x136b	mov    	dword ptr [ebp - 0x19], eax
  === BLOCK LINK ===
    0x136e
=== CODE BLOCK END ===

=== CODE BLOCK ADDRESS 0x136e ===
  0x136e	dec    	eax
  0x136f	lea    	edx, [0x598d]
  0x1375	dec    	eax
  0x1376	lea    	eax, [ebp - 0x49]
  0x1379	dec    	eax
  === BLOCK LINK ===
    0x137a
=== CODE BLOCK END ===

=== CODE BLOCK ADDRESS 0x137a ===
  0x137a	mov    	dword ptr [esp + 0x28], eax
  0x137e	dec    	eax
  0x137f	lea    	eax, [ebp - 0x19]
  0x1382	dec    	eax
  0x1383	mov    	dword ptr [esp + 0x20], eax
  === BLOCK LINK ===
    0x1387
=== CODE BLOCK END ===

=== CODE BLOCK ADDRESS 0x1387 ===
  0x1387	call   	0x112c
  === BLOCK LINK ===
    0x138c
    0x112c
=== CODE BLOCK END ===

=== CODE BLOCK ADDRESS 0x138c ===
  0x138c	mov    	eax, ebx
  0x138e	dec    	eax
  0x138f	mov    	ecx, dword ptr [ebp + 0x47]
  0x1392	dec    	eax
  0x1393	xor    	ecx, esp
  === BLOCK LINK ===
    0x1395
=== CODE BLOCK END ===

=== CODE BLOCK ADDRESS 0x1395 ===
  0x1395	call   	0x5280
  === BLOCK LINK ===
    0x139a
    0x5280
=== CODE BLOCK END ===

=== CODE BLOCK ADDRESS 0x139a ===
  0x139a	dec    	esp
  0x139b	lea    	ebx, [esp + 0xd0]
  0x13a2	dec    	ecx
  0x13a3	mov    	ebx, dword ptr [ebx + 0x18]
  0x13a6	dec    	ecx
  === BLOCK LINK ===
    0x13a7
=== CODE BLOCK END ===

=== CODE BLOCK ADDRESS 0x13a7 ===
  0x13a7	mov    	edi, dword ptr [ebx + 0x20]
  0x13aa	dec    	ecx
  0x13ab	mov    	esp, ebx
  0x13ad	pop    	ebp
  0x13ae	ret    	
  === BLOCK LINK ===
    0x13af
=== CODE BLOCK END ===

=== CODE BLOCK ADDRESS 0x1090 ===
  0x1090	dec    	eax
  0x1091	sub    	esp, 0x48
  0x1094	movzx  	eax, byte ptr [edx]
  === BLOCK LINK ===
    0x1097
=== CODE BLOCK END ===

=== CODE BLOCK ADDRESS 0x13af ===
  0x13af	int3   	
  === BLOCK LINK ===
    0x13b0
=== CODE BLOCK END ===

=== CODE BLOCK ADDRESS 0x13b8 ===
  0x13b8	lea    	ecx, [ebp - 7]
  0x13bb	dec    	eax
  0x13bc	call   	dword ptr [0x4dae]
  === BLOCK LINK ===
    0x13c2
=== CODE BLOCK END ===

=== CODE BLOCK ADDRESS 0x13c2 ===
  0x13c2	nop    	dword ptr [eax + eax]
  0x13c7	mov    	ebx, eax
  0x13c9	test   	eax, eax
  0x13cb	js     	0x134a
  === BLOCK LINK ===
    0x13d1
    0x134a
=== CODE BLOCK END ===

=== CODE BLOCK ADDRESS 0x13d1 ===
  0x13d1	dec    	eax
  0x13d2	mov    	ecx, dword ptr [ebp - 0x39]
  0x13d5	dec    	esp
  0x13d6	lea    	eax, [ebp - 0x49]
  0x13d9	dec    	eax
  === BLOCK LINK ===
    0x13da
=== CODE BLOCK END ===

=== CODE BLOCK ADDRESS 0x13da ===
  0x13da	and    	dword ptr [ebp - 0x49], 0
  0x13de	mov    	edx, 1
  0x13e3	dec    	eax
  0x13e4	call   	dword ptr [0x517e]
  === BLOCK LINK ===
    0x13ea
=== CODE BLOCK END ===

=== CODE BLOCK ADDRESS 0x13ea ===
  0x13ea	nop    	dword ptr [eax + eax]
  0x13ef	mov    	ebx, eax
  0x13f1	test   	eax, eax
  0x13f3	js     	0x1427
  === BLOCK LINK ===
    0x13f5
    0x1427
=== CODE BLOCK END ===

=== CODE BLOCK ADDRESS 0x13f5 ===
  0x13f5	dec    	eax
  0x13f6	mov    	ecx, dword ptr [ebp - 0x49]
  0x13f9	dec    	eax
  0x13fa	lea    	edx, [ebp - 0x19]
  0x13fd	call   	0x2aa4
  === BLOCK LINK ===
    0x1402
    0x2aa4
=== CODE BLOCK END ===

=== CODE BLOCK ADDRESS 0x1402 ===
  0x1402	mov    	ebx, eax
  0x1404	test   	eax, eax
  0x1406	js     	0x1427
  === BLOCK LINK ===
    0x1408
    0x1427
=== CODE BLOCK END ===

=== CODE BLOCK ADDRESS 0x1408 ===
  0x1408	movaps  	xmm0, xmmword ptr [ebp - 0x19]
  0x140c	dec    	eax
  0x140d	lea    	edx, [ebp - 0x41]
  0x1410	dec    	eax
  0x1411	lea    	ecx, [ebp - 0x29]
  === BLOCK LINK ===
    0x1414
=== CODE BLOCK END ===

=== CODE BLOCK ADDRESS 0x1414 ===
  0x1414	movdqa  	xmmword ptr [ebp - 0x29], xmm0
  0x1419	dec    	eax
  0x141a	call   	dword ptr [0x5000]
  === BLOCK LINK ===
    0x1420
=== CODE BLOCK END ===

=== CODE BLOCK ADDRESS 0x1420 ===
  0x1420	nop    	dword ptr [eax + eax]
  0x1425	mov    	ebx, eax
  === BLOCK LINK ===
    0x1427
=== CODE BLOCK END ===

=== CODE BLOCK ADDRESS 0x142c ===
  0x142c	call   	dword ptr [0x4e4e]
  === BLOCK LINK ===
    0x1432
=== CODE BLOCK END ===

=== CODE BLOCK ADDRESS 0x1432 ===
  0x1432	nop    	dword ptr [eax + eax]
  0x1437	cmp    	ebx, 0x80070002
  0x143d	jne    	0x1490
  === BLOCK LINK ===
    0x143f
    0x1490
=== CODE BLOCK END ===

=== CODE BLOCK ADDRESS 0x143f ===
  0x143f	dec    	eax
  0x1440	mov    	ecx, dword ptr [ebp - 0x39]
  0x1443	call   	0x2b64
  === BLOCK LINK ===
    0x1448
    0x2b64
=== CODE BLOCK END ===

=== CODE BLOCK ADDRESS 0x1448 ===
  0x1448	cmp    	dword ptr [0x7bb1], 4
  0x144f	mov    	ebx, eax
  0x1451	jbe    	0x147c
  === BLOCK LINK ===
    0x1453
    0x147c
=== CODE BLOCK END ===

=== CODE BLOCK ADDRESS 0x1453 ===
  0x1453	mov    	dword ptr [ebp - 0x49], eax
  0x1456	dec    	eax
  0x1457	lea    	edx, [0x5809]
  0x145d	dec    	eax
  0x145e	lea    	eax, [ebp - 9]
  === BLOCK LINK ===
    0x1461
=== CODE BLOCK END ===

=== CODE BLOCK ADDRESS 0x1461 ===
  0x1461	dec    	eax
  0x1462	mov    	dword ptr [ebp - 0x19], eax
  0x1465	dec    	eax
  0x1466	lea    	eax, [ebp - 0x49]
  0x1469	dec    	eax
  === BLOCK LINK ===
    0x146a
=== CODE BLOCK END ===

=== CODE BLOCK ADDRESS 0x146a ===
  0x146a	mov    	dword ptr [esp + 0x28], eax
  0x146e	dec    	eax
  0x146f	lea    	eax, [ebp - 0x19]
  0x1472	dec    	eax
  0x1473	mov    	dword ptr [esp + 0x20], eax
  === BLOCK LINK ===
    0x1477
=== CODE BLOCK END ===

=== CODE BLOCK ADDRESS 0x1477 ===
  0x1477	call   	0x112c
  === BLOCK LINK ===
    0x147c
    0x112c
=== CODE BLOCK END ===

=== CODE BLOCK ADDRESS 0x147c ===
  0x147c	test   	ebx, ebx
  0x147e	js     	0x134a
  === BLOCK LINK ===
    0x1484
    0x134a
=== CODE BLOCK END ===

=== CODE BLOCK ADDRESS 0x1484 ===
  0x1484	dec    	eax
  0x1485	mov    	eax, dword ptr [ebp - 0x39]
  0x1488	dec    	eax
  0x1489	mov    	dword ptr [edi], eax
  0x148b	jmp    	0x135a
  === BLOCK LINK ===
    0x1490
    0x135a
=== CODE BLOCK END ===

=== CODE BLOCK ADDRESS 0x1490 ===
  0x1490	test   	ebx, ebx
  0x1492	js     	0x134a
  === BLOCK LINK ===
    0x1498
    0x134a
=== CODE BLOCK END ===

=== CODE BLOCK ADDRESS 0x1498 ===
  0x1498	cmp    	dword ptr [ebp - 0x41], 4
  0x149c	je     	0x1484
  === BLOCK LINK ===
    0x149e
    0x1484
=== CODE BLOCK END ===

=== CODE BLOCK ADDRESS 0x149e ===
  0x149e	mov    	ebx, 0x8000ffff
  0x14a3	jmp    	0x134a
  === BLOCK LINK ===
    0x14a8
    0x134a
=== CODE BLOCK END ===

=== CODE BLOCK ADDRESS 0x14a8 ===
  0x14a8	int3   	
  0x14a9	int3   	
  0x14aa	int3   	
  0x14ab	int3   	
  0x14ac	int3   	
  === BLOCK LINK ===
    0x14ad
=== CODE BLOCK END ===

=== CODE BLOCK ADDRESS 0x14ad ===
  0x14ad	int3   	
  0x14ae	int3   	
  0x14af	int3   	
  === BLOCK LINK ===
    0x14b0
=== CODE BLOCK END ===

=== CODE BLOCK ADDRESS 0x14b5 ===
  0x14b5	dec    	eax
  0x14b6	mov    	dword ptr [esp + 0x18], esi
  0x14ba	push   	ebp
  0x14bb	push   	edi
  0x14bc	inc    	ecx
  === BLOCK LINK ===
    0x14bd
=== CODE BLOCK END ===

=== CODE BLOCK ADDRESS 0x14bd ===
  0x14bd	push   	esi
  0x14be	dec    	eax
  0x14bf	mov    	ebp, esp
  0x14c1	dec    	eax
  0x14c2	sub    	esp, 0x40
  === BLOCK LINK ===
    0x14c5
=== CODE BLOCK END ===

=== CODE BLOCK ADDRESS 0x14c5 ===
  0x14c5	xor    	edi, edi
  0x14c7	xor    	ebx, ebx
  0x14c9	dec    	eax
  0x14ca	and    	dword ptr [ebp + 0x28], edi
  0x14cd	xorps  	xmm0, xmm0
  === BLOCK LINK ===
    0x14d0
=== CODE BLOCK END ===

=== CODE BLOCK ADDRESS 0x14d0 ===
  0x14d0	dec    	eax
  0x14d1	mov    	dword ptr [ebp + 0x38], ebx
  0x14d4	dec    	ecx
  0x14d5	mov    	esi, eax
  0x14d7	dec    	esp
  === BLOCK LINK ===
    0x14d8
=== CODE BLOCK END ===

=== CODE BLOCK ADDRESS 0x14d8 ===
  0x14d8	mov    	esi, ecx
  0x14da	movups  	xmmword ptr [ebp - 0x20], xmm0
  0x14de	movups  	xmmword ptr [ebp - 0x10], xmm0
  0x14e2	dec    	eax
  0x14e3	test   	edx, edx
  === BLOCK LINK ===
    0x14e5
=== CODE BLOCK END ===

=== CODE BLOCK ADDRESS 0x14e5 ===
  0x14e5	je     	0x1577
  === BLOCK LINK ===
    0x14eb
    0x1577
=== CODE BLOCK END ===

=== CODE BLOCK ADDRESS 0x14eb ===
  0x14eb	dec    	eax
  0x14ec	lea    	eax, [0x5246]
  0x14f2	dec    	eax
  0x14f3	mov    	dword ptr [ebp - 0x18], edx
  0x14f6	dec    	eax
  === BLOCK LINK ===
    0x14f7
=== CODE BLOCK END ===

=== CODE BLOCK ADDRESS 0x14f7 ===
  0x14f7	lea    	ecx, [ebp + 0x38]
  0x14fa	dec    	eax
  0x14fb	mov    	dword ptr [ebp - 0x20], eax
  0x14fe	call   	0x12f0
  === BLOCK LINK ===
    0x1503
    0x12f0
=== CODE BLOCK END ===

=== CODE BLOCK ADDRESS 0x1503 ===
  0x1503	mov    	edi, eax
  0x1505	test   	eax, eax
  0x1507	js     	0x1573
  === BLOCK LINK ===
    0x1509
    0x1573
=== CODE BLOCK END ===

=== CODE BLOCK ADDRESS 0x1509 ===
  0x1509	call   	0x30d0
  === BLOCK LINK ===
    0x150e
    0x30d0
=== CODE BLOCK END ===

=== CODE BLOCK ADDRESS 0x150e ===
  0x150e	dec    	eax
  0x150f	mov    	ebx, dword ptr [ebp + 0x38]
  0x1512	dec    	eax
  0x1513	mov    	ecx, eax
  0x1515	dec    	eax
  === BLOCK LINK ===
    0x1516
=== CODE BLOCK END ===

=== CODE BLOCK ADDRESS 0x1516 ===
  0x1516	mov    	edx, ebx
  0x1518	call   	0x3170
  === BLOCK LINK ===
    0x151d
    0x3170
=== CODE BLOCK END ===

=== CODE BLOCK ADDRESS 0x151d ===
  0x151d	dec    	eax
  0x151e	lea    	eax, [0x51a4]
  0x1524	dec    	eax
  0x1525	mov    	dword ptr [ebp - 8], ebx
  0x1528	dec    	esp
  === BLOCK LINK ===
    0x1529
=== CODE BLOCK END ===

=== CODE BLOCK ADDRESS 0x1529 ===
  0x1529	lea    	ecx, [ebp + 0x28]
  0x152c	dec    	eax
  0x152d	mov    	dword ptr [ebp - 0x10], eax
  0x1530	dec    	esp
  0x1531	lea    	eax, [ebp - 0x20]
  === BLOCK LINK ===
    0x1534
=== CODE BLOCK END ===

=== CODE BLOCK ADDRESS 0x1534 ===
  0x1534	mov    	edx, 2
  0x1539	dec    	ecx
  0x153a	mov    	ecx, esi
  0x153c	dec    	eax
  0x153d	call   	dword ptr [0x4c3d]
  === BLOCK LINK ===
    0x1543
=== CODE BLOCK END ===

=== CODE BLOCK ADDRESS 0x1543 ===
  0x1543	nop    	dword ptr [eax + eax]
  0x1548	mov    	edi, eax
  0x154a	test   	eax, eax
  0x154c	jns    	0x1565
  === BLOCK LINK ===
    0x154e
    0x1565
=== CODE BLOCK END ===

=== CODE BLOCK ADDRESS 0x154e ===
  0x154e	dec    	eax
  0x154f	mov    	ecx, dword ptr [ebp + 0x28]
  0x1552	dec    	eax
  0x1553	call   	dword ptr [0x4c37]
  === BLOCK LINK ===
    0x1559
=== CODE BLOCK END ===

=== CODE BLOCK ADDRESS 0x1559 ===
  0x1559	nop    	dword ptr [eax + eax]
  0x155e	dec    	eax
  0x155f	and    	dword ptr [ebp + 0x28], 0
  0x1563	jmp    	0x1577
  === BLOCK LINK ===
    0x1565
    0x1577
=== CODE BLOCK END ===

=== CODE BLOCK ADDRESS 0x1565 ===
  0x1565	dec    	eax
  0x1566	mov    	eax, dword ptr [ebp + 0x28]
  0x1569	dec    	eax
  0x156a	test   	eax, eax
  0x156c	je     	0x1577
  === BLOCK LINK ===
    0x156e
    0x1577
=== CODE BLOCK END ===

=== CODE BLOCK ADDRESS 0x156e ===
  0x156e	dec    	eax
  0x156f	mov    	dword ptr [esi], eax
  0x1571	jmp    	0x1577
  === BLOCK LINK ===
    0x1573
    0x1577
=== CODE BLOCK END ===

=== CODE BLOCK ADDRESS 0x1573 ===
  0x1573	dec    	eax
  0x1574	mov    	ebx, dword ptr [ebp + 0x38]
  === BLOCK LINK ===
    0x1577
=== CODE BLOCK END ===

=== CODE BLOCK ADDRESS 0x157b ===
  0x157b	call   	dword ptr [0x4cff]
  === BLOCK LINK ===
    0x1581
=== CODE BLOCK END ===

=== CODE BLOCK ADDRESS 0x1581 ===
  0x1581	nop    	dword ptr [eax + eax]
  0x1586	dec    	eax
  0x1587	mov    	ebx, dword ptr [esp + 0x60]
  0x158b	mov    	eax, edi
  0x158d	dec    	eax
  === BLOCK LINK ===
    0x158e
=== CODE BLOCK END ===

=== CODE BLOCK ADDRESS 0x158e ===
  0x158e	mov    	esi, dword ptr [esp + 0x70]
  0x1592	dec    	eax
  0x1593	add    	esp, 0x40
  0x1596	inc    	ecx
  0x1597	pop    	esi
  === BLOCK LINK ===
    0x1598
=== CODE BLOCK END ===

=== CODE BLOCK ADDRESS 0x1598 ===
  0x1598	pop    	edi
  0x1599	pop    	ebp
  0x159a	ret    	
  0x159b	int3   	
  0x159c	int3   	
  === BLOCK LINK ===
    0x159d
=== CODE BLOCK END ===

=== CODE BLOCK ADDRESS 0x5280 ===
=== CODE BLOCK END ===

=== CODE BLOCK ADDRESS 0x159d ===
  0x159d	int3   	
  0x159e	int3   	
  0x159f	int3   	
  0x15a0	int3   	
  0x15a1	int3   	
  === BLOCK LINK ===
    0x15a2
=== CODE BLOCK END ===

=== CODE BLOCK ADDRESS 0x15a2 ===
  0x15a2	int3   	
  0x15a3	int3   	
  0x15a4	dec    	eax
  0x15a5	mov    	eax, esp
  0x15a7	inc    	ecx
  === BLOCK LINK ===
    0x15a8
=== CODE BLOCK END ===

=== CODE BLOCK ADDRESS 0x15a8 ===
  0x15a8	push   	esp
  0x15a9	inc    	ecx
  0x15aa	push   	esi
  0x15ab	inc    	ecx
  0x15ac	push   	edi
  === BLOCK LINK ===
    0x15ad
=== CODE BLOCK END ===

=== CODE BLOCK ADDRESS 0x15ad ===
  0x15ad	dec    	eax
  0x15ae	sub    	esp, 0xe0
  0x15b4	dec    	eax
  0x15b5	mov    	dword ptr [esp + 0x70], 0xfffffffe
  0x15bd	dec    	eax
  === BLOCK LINK ===
    0x15be
=== CODE BLOCK END ===

=== CODE BLOCK ADDRESS 0x15be ===
  0x15be	mov    	dword ptr [eax + 8], ebx
  0x15c1	dec    	eax
  0x15c2	mov    	dword ptr [eax + 0x10], esi
  0x15c5	dec    	eax
  0x15c6	mov    	dword ptr [eax + 0x18], edi
  === BLOCK LINK ===
    0x15c9
=== CODE BLOCK END ===

=== CODE BLOCK ADDRESS 0x15c9 ===
  0x15c9	dec    	eax
  0x15ca	mov    	eax, dword ptr [0x7bd8]
  0x15d0	dec    	eax
  0x15d1	xor    	eax, esp
  0x15d3	dec    	eax
  === BLOCK LINK ===
    0x15d4
=== CODE BLOCK END ===

=== CODE BLOCK ADDRESS 0x15d4 ===
  0x15d4	mov    	dword ptr [esp + 0xd0], eax
  0x15db	xor    	edi, edi
  0x15dd	inc    	esp
  0x15de	mov    	esp, edi
  0x15e0	dec    	eax
  === BLOCK LINK ===
    0x15e1
=== CODE BLOCK END ===

=== CODE BLOCK ADDRESS 0x15e1 ===
  0x15e1	or     	dword ptr [esp + 0x38], 0xffffffff
  0x15e6	mov    	dword ptr [esp + 0x30], edi
  0x15ea	dec    	eax
  0x15eb	call   	dword ptr [0x4cd7]
  === BLOCK LINK ===
    0x15f1
=== CODE BLOCK END ===

=== CODE BLOCK ADDRESS 0x15f1 ===
  0x15f1	nop    	dword ptr [eax + eax]
  0x15f6	dec    	esp
  0x15f7	mov    	esi, eax
  0x15f9	inc    	esp
  0x15fa	mov    	edi, edi
  === BLOCK LINK ===
    0x15fc
=== CODE BLOCK END ===

=== CODE BLOCK ADDRESS 0x15fc ===
  0x15fc	mov    	dword ptr [esp + 0x50], edi
  0x1600	xorps  	xmm0, xmm0
  0x1603	xor    	eax, eax
  0x1605	movups  	xmmword ptr [esp + 0x58], xmm0
  0x160a	dec    	eax
  === BLOCK LINK ===
    0x160b
=== CODE BLOCK END ===

=== CODE BLOCK ADDRESS 0x160b ===
  0x160b	mov    	dword ptr [esp + 0x68], eax
  0x160f	dec    	eax
  0x1610	mov    	dword ptr [esp + 0x48], edi
  0x1614	mov    	dword ptr [esp + 0x78], edi
  0x1618	inc    	eax
  === BLOCK LINK ===
    0x1619
=== CODE BLOCK END ===

=== CODE BLOCK ADDRESS 0x1619 ===
  0x1619	mov    	byte ptr [esp + 0x7c], bh
  0x161d	xor    	edx, edx
  0x161f	xor    	ecx, ecx
  0x1621	dec    	eax
  0x1622	call   	dword ptr [0x4ba0]
  === BLOCK LINK ===
    0x1628
=== CODE BLOCK END ===

=== CODE BLOCK ADDRESS 0x1628 ===
  0x1628	nop    	dword ptr [eax + eax]
  0x162d	mov    	ebx, eax
  0x162f	test   	eax, eax
  0x1631	js     	0x1971
  === BLOCK LINK ===
    0x1637
    0x1971
=== CODE BLOCK END ===

=== CODE BLOCK ADDRESS 0x1637 ===
  0x1637	dec    	eax
  0x1638	mov    	eax, dword ptr [0x79ca]
  0x163e	movups  	xmm0, xmmword ptr [eax - 0x10]
  0x1642	movdqu  	xmmword ptr [esp + 0xa0], xmm0
  0x164b	xorps  	xmm1, xmm1
  === BLOCK LINK ===
    0x164e
=== CODE BLOCK END ===

=== CODE BLOCK ADDRESS 0x164e ===
  0x164e	movdqu  	xmmword ptr [0x79d2], xmm1
  0x1656	dec    	esp
  0x1657	lea    	ecx, [0x79c3]
  0x165d	dec    	esp
  0x165e	lea    	eax, [0x799c]
  === BLOCK LINK ===
    0x1664
=== CODE BLOCK END ===

=== CODE BLOCK ADDRESS 0x1664 ===
  0x1664	dec    	eax
  0x1665	lea    	edx, [0xfffff9a5]
  0x166b	dec    	eax
  0x166c	lea    	ecx, [esp + 0xa0]
  0x1673	dec    	eax
  === BLOCK LINK ===
    0x1674
=== CODE BLOCK END ===

=== CODE BLOCK ADDRESS 0x1674 ===
  0x1674	call   	dword ptr [0x4d96]
  === BLOCK LINK ===
    0x167a
=== CODE BLOCK END ===

=== CODE BLOCK ADDRESS 0x167a ===
  0x167a	nop    	dword ptr [eax + eax]
  0x167f	test   	eax, eax
  0x1681	jne    	0x16a4
  === BLOCK LINK ===
    0x1683
    0x16a4
=== CODE BLOCK END ===

=== CODE BLOCK ADDRESS 0x1683 ===
  0x1683	dec    	esp
  0x1684	mov    	eax, dword ptr [0x797e]
  0x168a	inc    	ebp
  0x168b	movzx  	ecx, word ptr [eax]
  0x168e	lea    	edx, [edi + 2]
  === BLOCK LINK ===
    0x1691
=== CODE BLOCK END ===

=== CODE BLOCK ADDRESS 0x1691 ===
  0x1691	dec    	eax
  0x1692	mov    	ecx, dword ptr [0x7988]
  0x1698	dec    	eax
  0x1699	call   	dword ptr [0x4d51]
  === BLOCK LINK ===
    0x169f
=== CODE BLOCK END ===

=== CODE BLOCK ADDRESS 0x169f ===
  0x169f	nop    	dword ptr [eax + eax]
  === BLOCK LINK ===
    0x16a4
=== CODE BLOCK END ===

=== CODE BLOCK ADDRESS 0x16af ===
  0x16af	mov    	edx, dword ptr [0x794b]
  0x16b5	dec    	eax
  0x16b6	mov    	esi, 0
  0x16bb	add    	byte ptr [eax], ah
  0x16bd	add    	byte ptr [eax], al
  === BLOCK LINK ===
    0x16bf
=== CODE BLOCK END ===

=== CODE BLOCK ADDRESS 0x16bf ===
  0x16bf	dec    	eax
  0x16c0	mov    	ecx, dword ptr [0x7952]
  0x16c6	cmp    	edx, 5
  0x16c9	jbe    	0x1739
  === BLOCK LINK ===
    0x16cb
    0x1739
=== CODE BLOCK END ===

=== CODE BLOCK ADDRESS 0x16cb ===
  0x16cb	dec    	eax
  0x16cc	test   	dword ptr [0x793e], esi
  0x16d2	je     	0x1739
  === BLOCK LINK ===
    0x16d4
    0x1739
=== CODE BLOCK END ===

=== CODE BLOCK ADDRESS 0x16d4 ===
  0x16d4	dec    	eax
  0x16d5	mov    	eax, ecx
  0x16d7	dec    	eax
  0x16d8	and    	eax, esi
  0x16da	dec    	eax
  === BLOCK LINK ===
    0x16db
=== CODE BLOCK END ===

=== CODE BLOCK ADDRESS 0x16db ===
  0x16db	cmp    	eax, ecx
  0x16dd	jne    	0x1739
  === BLOCK LINK ===
    0x16df
    0x1739
=== CODE BLOCK END ===

=== CODE BLOCK ADDRESS 0x16df ===
  0x16df	dec    	eax
  0x16e0	lea    	edx, [esp + 0x80]
  0x16e7	inc    	ecx
  0x16e8	lea    	ecx, [esp + 2]
  0x16ec	dec    	eax
  === BLOCK LINK ===
    0x16ed
=== CODE BLOCK END ===

=== CODE BLOCK ADDRESS 0x16ed ===
  0x16ed	call   	dword ptr [0x4d05]
  === BLOCK LINK ===
    0x16f3
=== CODE BLOCK END ===

=== CODE BLOCK ADDRESS 0x16f3 ===
  0x16f3	nop    	dword ptr [eax + eax]
  0x16f8	movups  	xmm0, xmmword ptr [esp + 0x80]
  0x1700	movdqu  	xmmword ptr [esp + 0x90], xmm0
  0x1709	dec    	eax
  0x170a	lea    	edx, [esp + 0x90]
  === BLOCK LINK ===
    0x1711
=== CODE BLOCK END ===

=== CODE BLOCK ADDRESS 0x1711 ===
  0x1711	inc    	ecx
  0x1712	lea    	ecx, [esp + 3]
  0x1716	dec    	eax
  0x1717	call   	dword ptr [0x4cdb]
  === BLOCK LINK ===
    0x171d
=== CODE BLOCK END ===

=== CODE BLOCK ADDRESS 0x171d ===
  0x171d	nop    	dword ptr [eax + eax]
  0x1722	inc    	ebp
  0x1723	mov    	al, ah
  0x1725	inc    	esp
  0x1726	mov    	byte ptr [esp + 0x7c], ah
  === BLOCK LINK ===
    0x172a
=== CODE BLOCK END ===

=== CODE BLOCK ADDRESS 0x172a ===
  0x172a	dec    	eax
  0x172b	mov    	ecx, dword ptr [0x78e7]
  0x1731	mov    	edx, dword ptr [0x78c9]
  0x1737	jmp    	0x1749
  === BLOCK LINK ===
    0x1739
    0x1749
=== CODE BLOCK END ===

=== CODE BLOCK ADDRESS 0x1739 ===
  0x1739	xorps  	xmm0, xmm0
  0x173c	movups  	xmmword ptr [esp + 0x80], xmm0
  0x1744	inc    	esp
  0x1745	mov    	al, byte ptr [esp + 0x7c]
  0x1749	inc    	esp
  === BLOCK LINK ===
    0x174a
=== CODE BLOCK END ===

=== CODE BLOCK ADDRESS 0x174a ===
  0x174a	mov    	dword ptr [esp + 0x78], esp
  0x174e	cmp    	edx, 5
  0x1751	jbe    	0x17cd
  === BLOCK LINK ===
    0x1753
    0x17cd
=== CODE BLOCK END ===

=== CODE BLOCK ADDRESS 0x1753 ===
  0x1753	dec    	eax
  0x1754	test   	dword ptr [0x78b6], esi
  0x175a	je     	0x17cd
  === BLOCK LINK ===
    0x175c
    0x17cd
=== CODE BLOCK END ===

=== CODE BLOCK ADDRESS 0x175c ===
  0x175c	dec    	eax
  0x175d	mov    	eax, ecx
  0x175f	dec    	eax
  0x1760	and    	eax, esi
  0x1762	dec    	eax
  === BLOCK LINK ===
    0x1763
=== CODE BLOCK END ===

=== CODE BLOCK ADDRESS 0x1763 ===
  0x1763	cmp    	eax, ecx
  0x1765	jne    	0x17cd
  === BLOCK LINK ===
    0x1767
    0x17cd
=== CODE BLOCK END ===

=== CODE BLOCK ADDRESS 0x1767 ===
  0x1767	inc    	ebp
  0x1768	test   	al, al
  0x176a	je     	0x179a
  === BLOCK LINK ===
    0x176c
    0x179a
=== CODE BLOCK END ===

=== CODE BLOCK ADDRESS 0x176c ===
  0x176c	cmp    	dword ptr [esp + 0x90], edi
  0x1773	jne    	0x1790
  === BLOCK LINK ===
    0x1775
    0x1790
=== CODE BLOCK END ===

=== CODE BLOCK ADDRESS 0x1775 ===
  0x1775	cmp    	dword ptr [esp + 0x94], edi
  0x177c	jne    	0x1790
  === BLOCK LINK ===
    0x177e
    0x1790
=== CODE BLOCK END ===

=== CODE BLOCK ADDRESS 0x177e ===
  0x177e	cmp    	dword ptr [esp + 0x98], edi
  0x1785	jne    	0x1790
  === BLOCK LINK ===
    0x1787
    0x1790
=== CODE BLOCK END ===

=== CODE BLOCK ADDRESS 0x1787 ===
  0x1787	cmp    	dword ptr [esp + 0x9c], edi
  0x178e	je     	0x179a
  === BLOCK LINK ===
    0x1790
    0x179a
=== CODE BLOCK END ===

=== CODE BLOCK ADDRESS 0x1790 ===
  0x1790	dec    	esp
  0x1791	lea    	ecx, [esp + 0x90]
  0x1798	jmp    	0x179d
  === BLOCK LINK ===
    0x179a
    0x179d
=== CODE BLOCK END ===

=== CODE BLOCK ADDRESS 0x179a ===
  0x179a	dec    	esp
  0x179b	mov    	ecx, edi
  === BLOCK LINK ===
    0x179d
=== CODE BLOCK END ===

=== CODE BLOCK ADDRESS 0x17a6 ===
  0x17a6	mov    	dword ptr [esp + 0x28], eax
  0x17aa	mov    	dword ptr [esp + 0x20], 2
  0x17b2	dec    	esp
  0x17b3	lea    	eax, [esp + 0x80]
  0x17ba	dec    	eax
  === BLOCK LINK ===
    0x17bb
=== CODE BLOCK END ===

=== CODE BLOCK ADDRESS 0x17bb ===
  0x17bb	lea    	edx, [0x5458]
  0x17c1	dec    	eax
  0x17c2	lea    	ecx, [0x7838]
  0x17c8	call   	0x1090
  === BLOCK LINK ===
    0x17cd
    0x1090
=== CODE BLOCK END ===

=== CODE BLOCK ADDRESS 0x17cd ===
  0x17cd	mov    	dword ptr [esp + 0x28], 0x20
  0x17d5	dec    	eax
  0x17d6	lea    	eax, [esp + 0x50]
  0x17da	dec    	eax
  0x17db	mov    	dword ptr [esp + 0x20], eax
  === BLOCK LINK ===
    0x17df
=== CODE BLOCK END ===

=== CODE BLOCK ADDRESS 0x17df ===
  0x17df	dec    	ebp
  0x17e0	mov    	ecx, esi
  0x17e2	dec    	esp
  0x17e3	lea    	eax, [0xfffffaf7]
  0x17e9	mov    	edx, 2
  === BLOCK LINK ===
    0x17ee
=== CODE BLOCK END ===

=== CODE BLOCK ADDRESS 0x17ee ===
  0x17ee	dec    	eax
  0x17ef	lea    	ecx, [0x7843]
  0x17f5	dec    	eax
  0x17f6	call   	dword ptr [0x4d64]
  === BLOCK LINK ===
    0x17fc
=== CODE BLOCK END ===

=== CODE BLOCK ADDRESS 0x17fc ===
  0x17fc	nop    	dword ptr [eax + eax]
  0x1801	mov    	ebx, eax
  0x1803	test   	eax, eax
  0x1805	js     	0x197b
  === BLOCK LINK ===
    0x180b
    0x197b
=== CODE BLOCK END ===

=== CODE BLOCK ADDRESS 0x180b ===
  0x180b	cmp    	dword ptr [esp + 0x50], edi
  0x180f	jne    	0x181b
  === BLOCK LINK ===
    0x1811
    0x181b
=== CODE BLOCK END ===

=== CODE BLOCK ADDRESS 0x1811 ===
  0x1811	mov    	ebx, 0x80070057
  0x1816	jmp    	0x197b
  === BLOCK LINK ===
    0x181b
    0x197b
=== CODE BLOCK END ===

=== CODE BLOCK ADDRESS 0x181b ===
  0x181b	dec    	esp
  0x181c	lea    	eax, [esp + 0x38]
  0x1820	xor    	edx, edx
  0x1822	dec    	eax
  0x1823	mov    	ecx, dword ptr [esp + 0x58]
  === BLOCK LINK ===
    0x1827
=== CODE BLOCK END ===

=== CODE BLOCK ADDRESS 0x1827 ===
  0x1827	dec    	eax
  0x1828	call   	dword ptr [0x4c02]
  === BLOCK LINK ===
    0x182e
=== CODE BLOCK END ===

=== CODE BLOCK ADDRESS 0x182e ===
  0x182e	nop    	dword ptr [eax + eax]
  0x1833	mov    	ebx, eax
  0x1835	test   	eax, eax
  0x1837	js     	0x197b
  === BLOCK LINK ===
    0x183d
    0x197b
=== CODE BLOCK END ===

=== CODE BLOCK ADDRESS 0x183d ===
  0x183d	dec    	eax
  0x183e	mov    	ecx, dword ptr [esp + 0x38]
  0x1842	dec    	eax
  0x1843	cmp    	ecx, -1
  0x1846	jne    	0x1867
  === BLOCK LINK ===
    0x1848
    0x1867
=== CODE BLOCK END ===

=== CODE BLOCK ADDRESS 0x1848 ===
  0x1848	dec    	eax
  0x1849	call   	dword ptr [0x49c1]
  === BLOCK LINK ===
    0x184f
=== CODE BLOCK END ===

=== CODE BLOCK ADDRESS 0x184f ===
  0x184f	nop    	dword ptr [eax + eax]
  0x1854	movzx  	ebx, ax
  0x1857	or     	ebx, 0x80070000
  0x185d	test   	eax, eax
  0x185f	cmovle  	ebx, eax
  === BLOCK LINK ===
    0x1862
=== CODE BLOCK END ===

=== CODE BLOCK ADDRESS 0x1862 ===
  0x1862	jmp    	0x197b
  === BLOCK LINK ===
    0x1867
    0x197b
=== CODE BLOCK END ===

=== CODE BLOCK ADDRESS 0x1867 ===
  0x1867	xor    	edx, edx
  0x1869	dec    	eax
  0x186a	call   	dword ptr [0x49c0]
  === BLOCK LINK ===
    0x1870
=== CODE BLOCK END ===

=== CODE BLOCK ADDRESS 0x1870 ===
  0x1870	nop    	dword ptr [eax + eax]
  0x1875	inc    	esp
  0x1876	mov    	esi, eax
  0x1878	cmp    	eax, -1
  0x187b	jne    	0x189f
  === BLOCK LINK ===
    0x187d
    0x189f
=== CODE BLOCK END ===

=== CODE BLOCK ADDRESS 0x187d ===
  0x187d	dec    	eax
  0x187e	call   	dword ptr [0x498c]
  === BLOCK LINK ===
    0x1884
=== CODE BLOCK END ===

=== CODE BLOCK ADDRESS 0x1884 ===
  0x1884	nop    	dword ptr [eax + eax]
  0x1889	movzx  	ebx, ax
  0x188c	or     	ebx, 0x80070000
  0x1892	test   	eax, eax
  0x1894	cmovle  	ebx, eax
  === BLOCK LINK ===
    0x1897
=== CODE BLOCK END ===

=== CODE BLOCK ADDRESS 0x1897 ===
  0x1897	test   	ebx, ebx
  0x1899	js     	0x197b
  === BLOCK LINK ===
    0x189f
    0x197b
=== CODE BLOCK END ===

=== CODE BLOCK ADDRESS 0x189f ===
  0x189f	dec    	ecx
  0x18a0	lea    	edx, [esi + 2]
  0x18a3	xor    	ecx, ecx
  0x18a5	dec    	eax
  0x18a6	call   	dword ptr [0x49cc]
  === BLOCK LINK ===
    0x18ac
=== CODE BLOCK END ===

=== CODE BLOCK ADDRESS 0x18ac ===
  0x18ac	nop    	dword ptr [eax + eax]
  0x18b1	dec    	esp
  0x18b2	mov    	edi, eax
  0x18b4	dec    	eax
  0x18b5	mov    	dword ptr [esp + 0xa0], eax
  === BLOCK LINK ===
    0x18bc
=== CODE BLOCK END ===

=== CODE BLOCK ADDRESS 0x18bc ===
  0x18bc	dec    	eax
  0x18bd	test   	eax, eax
  0x18bf	jne    	0x18cb
  === BLOCK LINK ===
    0x18c1
    0x18cb
=== CODE BLOCK END ===

=== CODE BLOCK ADDRESS 0x18c1 ===
  0x18c1	mov    	ebx, 0x8007000e
  0x18c6	jmp    	0x197b
  === BLOCK LINK ===
    0x18cb
    0x197b
=== CODE BLOCK END ===

=== CODE BLOCK ADDRESS 0x18cb ===
  0x18cb	dec    	eax
  0x18cc	mov    	dword ptr [esp + 0x20], edi
  0x18d0	dec    	esp
  0x18d1	lea    	ecx, [esp + 0x30]
  0x18d5	inc    	ebp
  === BLOCK LINK ===
    0x18d6
=== CODE BLOCK END ===

=== CODE BLOCK ADDRESS 0x18d6 ===
  0x18d6	mov    	eax, esi
  0x18d8	dec    	ecx
  0x18d9	mov    	edx, edi
  0x18db	dec    	eax
  0x18dc	mov    	ecx, dword ptr [esp + 0x38]
  === BLOCK LINK ===
    0x18e0
=== CODE BLOCK END ===

=== CODE BLOCK ADDRESS 0x18e0 ===
  0x18e0	dec    	eax
  0x18e1	call   	dword ptr [0x4951]
  === BLOCK LINK ===
    0x18e7
=== CODE BLOCK END ===

=== CODE BLOCK ADDRESS 0x18e7 ===
  0x18e7	nop    	dword ptr [eax + eax]
  0x18ec	test   	eax, eax
  0x18ee	je     	0x1848
  === BLOCK LINK ===
    0x18f4
    0x1848
=== CODE BLOCK END ===

=== CODE BLOCK ADDRESS 0x18f4 ===
  0x18f4	inc    	esp
  0x18f5	cmp    	dword ptr [esp + 0x30], esi
  0x18f9	je     	0x1902
  === BLOCK LINK ===
    0x18fb
    0x1902
=== CODE BLOCK END ===

=== CODE BLOCK ADDRESS 0x18fb ===
  0x18fb	mov    	ebx, 0x80004005
  0x1900	jmp    	0x197b
  === BLOCK LINK ===
    0x1902
    0x197b
=== CODE BLOCK END ===

=== CODE BLOCK ADDRESS 0x1902 ===
  0x1902	mov    	eax, dword ptr [esp + 0x30]
  0x1906	dec    	eax
  0x1907	shr    	eax, 1
  0x1909	inc    	cx
  0x190b	mov    	dword ptr [edi + eax*2], edi
  === BLOCK LINK ===
    0x190e
=== CODE BLOCK END ===

=== CODE BLOCK ADDRESS 0x190e ===
  0x190e	dec    	eax
  0x190f	mov    	ecx, dword ptr [esp + 0x38]
  0x1913	dec    	eax
  0x1914	call   	dword ptr [0x492e]
  === BLOCK LINK ===
    0x191a
=== CODE BLOCK END ===

=== CODE BLOCK ADDRESS 0x191a ===
  0x191a	nop    	dword ptr [eax + eax]
  0x191f	dec    	eax
  0x1920	or     	dword ptr [esp + 0x38], 0xffffffff
  0x1925	dec    	eax
  0x1926	lea    	ebx, [0x4dfc]
  === BLOCK LINK ===
    0x192c
=== CODE BLOCK END ===

=== CODE BLOCK ADDRESS 0x192c ===
  0x192c	dec    	eax
  0x192d	cmp    	dword ptr [esp + 0x68], edi
  0x1931	dec    	eax
  0x1932	cmovne  	ebx, dword ptr [esp + 0x68]
  0x1937	call   	0x30d0
  === BLOCK LINK ===
    0x193c
    0x30d0
=== CODE BLOCK END ===

=== CODE BLOCK ADDRESS 0x193c ===
  0x193c	dec    	eax
  0x193d	mov    	ecx, eax
  0x193f	dec    	eax
  0x1940	mov    	edx, ebx
  0x1942	call   	0x32b0
  === BLOCK LINK ===
    0x1947
    0x32b0
=== CODE BLOCK END ===

=== CODE BLOCK ADDRESS 0x1947 ===
  0x1947	nop    	
  0x1948	dec    	esp
  0x1949	lea    	eax, [esp + 0x48]
  0x194d	dec    	eax
  0x194e	mov    	edx, dword ptr [esp + 0x68]
  === BLOCK LINK ===
    0x1952
=== CODE BLOCK END ===

=== CODE BLOCK ADDRESS 0x1952 ===
  0x1952	dec    	ecx
  0x1953	mov    	ecx, edi
  0x1955	call   	0x14b0
  === BLOCK LINK ===
    0x195a
    0x14b0
=== CODE BLOCK END ===

=== CODE BLOCK ADDRESS 0x195a ===
  0x195a	mov    	ebx, eax
  0x195c	jmp    	0x197b
  === BLOCK LINK ===
    0x195e
    0x197b
=== CODE BLOCK END ===

=== CODE BLOCK ADDRESS 0x195e ===
  0x195e	xor    	edi, edi
  0x1960	mov    	ebx, dword ptr [esp + 0x40]
  0x1964	inc    	esp
  0x1965	mov    	esp, dword ptr [esp + 0x34]
  0x1969	dec    	esp
  === BLOCK LINK ===
    0x196a
=== CODE BLOCK END ===

=== CODE BLOCK ADDRESS 0x196a ===
  0x196a	mov    	edi, dword ptr [esp + 0xa0]
  === BLOCK LINK ===
    0x1971
=== CODE BLOCK END ===

=== CODE BLOCK ADDRESS 0x197b ===
  0x197b	dec    	ecx
  0x197c	mov    	ecx, edi
  0x197e	dec    	eax
  0x197f	call   	dword ptr [0x48fb]
  === BLOCK LINK ===
    0x1985
=== CODE BLOCK END ===

=== CODE BLOCK ADDRESS 0x1985 ===
  0x1985	nop    	dword ptr [eax + eax]
  0x198a	dec    	eax
  0x198b	mov    	ecx, dword ptr [esp + 0x48]
  0x198f	dec    	eax
  0x1990	call   	dword ptr [0x47fa]
  === BLOCK LINK ===
    0x1996
=== CODE BLOCK END ===

=== CODE BLOCK ADDRESS 0x1996 ===
  0x1996	nop    	dword ptr [eax + eax]
  0x199b	dec    	eax
  0x199c	mov    	ecx, dword ptr [esp + 0x38]
  0x19a0	dec    	eax
  0x19a1	cmp    	ecx, -1
  === BLOCK LINK ===
    0x19a4
=== CODE BLOCK END ===

=== CODE BLOCK ADDRESS 0x19a4 ===
  0x19a4	je     	0x19b2
  === BLOCK LINK ===
    0x19a6
    0x19b2
=== CODE BLOCK END ===

=== CODE BLOCK ADDRESS 0x19a6 ===
  0x19a6	dec    	eax
  0x19a7	call   	dword ptr [0x489b]
  === BLOCK LINK ===
    0x19ad
=== CODE BLOCK END ===

=== CODE BLOCK ADDRESS 0x19ad ===
  0x19ad	nop    	dword ptr [eax + eax]
  === BLOCK LINK ===
    0x19b2
    0x19d2
=== CODE BLOCK END ===

=== CODE BLOCK ADDRESS 0x19b9 ===
  0x19b9	dec    	eax
  0x19ba	lea    	edx, [esp + 0x90]
  0x19c1	mov    	ecx, 4
  0x19c6	dec    	eax
  0x19c7	call   	dword ptr [0x4a2b]
  === BLOCK LINK ===
    0x19cd
=== CODE BLOCK END ===

=== CODE BLOCK ADDRESS 0x19cd ===
  0x19cd	nop    	dword ptr [eax + eax]
  === BLOCK LINK ===
    0x19d2
    0x1a4f
=== CODE BLOCK END ===

=== CODE BLOCK ADDRESS 0x19e3 ===
  0x19e3	dec    	eax
  0x19e4	test   	dword ptr [0x7626], esi
  0x19ea	je     	0x1a4f
  === BLOCK LINK ===
    0x19ec
    0x1a4f
=== CODE BLOCK END ===

=== CODE BLOCK ADDRESS 0x19ec ===
  0x19ec	dec    	eax
  0x19ed	mov    	eax, dword ptr [0x7625]
  0x19f3	dec    	eax
  0x19f4	and    	eax, esi
  0x19f6	dec    	eax
  === BLOCK LINK ===
    0x19f7
=== CODE BLOCK END ===

=== CODE BLOCK ADDRESS 0x19f7 ===
  0x19f7	cmp    	eax, dword ptr [0x761b]
  0x19fd	jne    	0x1a4f
  === BLOCK LINK ===
    0x19ff
    0x1a4f
=== CODE BLOCK END ===

=== CODE BLOCK ADDRESS 0x19ff ===
  0x19ff	mov    	dword ptr [esp + 0x34], ebx
  0x1a03	dec    	eax
  0x1a04	lea    	eax, [esp + 0x34]
  0x1a08	dec    	eax
  0x1a09	mov    	dword ptr [esp + 0xc0], eax
  === BLOCK LINK ===
    0x1a10
=== CODE BLOCK END ===

=== CODE BLOCK ADDRESS 0x1a10 ===
  0x1a10	dec    	eax
  0x1a11	mov    	dword ptr [esp + 0xc8], 4
  0x1a1c	dec    	eax
  0x1a1d	lea    	eax, [esp + 0xa0]
  0x1a24	dec    	eax
  === BLOCK LINK ===
    0x1a25
=== CODE BLOCK END ===

=== CODE BLOCK ADDRESS 0x1a25 ===
  0x1a25	mov    	dword ptr [esp + 0x28], eax
  0x1a29	mov    	dword ptr [esp + 0x20], 3
  0x1a31	inc    	ebp
  0x1a32	xor    	ecx, ecx
  0x1a34	dec    	esp
  === BLOCK LINK ===
    0x1a35
=== CODE BLOCK END ===

=== CODE BLOCK ADDRESS 0x1a35 ===
  0x1a35	lea    	eax, [esp + 0x80]
  0x1a3c	dec    	eax
  0x1a3d	lea    	edx, [0x51f8]
  0x1a43	dec    	eax
  0x1a44	lea    	ecx, [0x75b6]
  === BLOCK LINK ===
    0x1a4a
=== CODE BLOCK END ===

=== CODE BLOCK ADDRESS 0x1a4a ===
  0x1a4a	call   	0x1090
  === BLOCK LINK ===
    0x1a4f
    0x1090
=== CODE BLOCK END ===

=== CODE BLOCK ADDRESS 0x1a4f ===
  0x1a4f	dec    	eax
  0x1a50	mov    	ecx, dword ptr [0x75ca]
  0x1a56	mov    	dword ptr [0x75a4], edi
  0x1a5c	dec    	eax
  0x1a5d	mov    	dword ptr [0x75bd], edi
  === BLOCK LINK ===
    0x1a63
=== CODE BLOCK END ===

=== CODE BLOCK ADDRESS 0x1a63 ===
  0x1a63	dec    	eax
  0x1a64	call   	dword ptr [0x4996]
  === BLOCK LINK ===
    0x1a6a
=== CODE BLOCK END ===

=== CODE BLOCK ADDRESS 0x1a6a ===
  0x1a6a	nop    	dword ptr [eax + eax]
  0x1a6f	inc    	ebp
  0x1a70	test   	esp, esp
  0x1a72	je     	0x1a80
  === BLOCK LINK ===
    0x1a74
    0x1a80
=== CODE BLOCK END ===

=== CODE BLOCK ADDRESS 0x1a74 ===
  0x1a74	dec    	eax
  0x1a75	call   	dword ptr [0x473d]
  === BLOCK LINK ===
    0x1a7b
=== CODE BLOCK END ===

=== CODE BLOCK ADDRESS 0x1a7b ===
  0x1a7b	nop    	dword ptr [eax + eax]
  === BLOCK LINK ===
    0x1a80
    0x1ac3
=== CODE BLOCK END ===

=== CODE BLOCK ADDRESS 0x1a87 ===
  0x1a87	inc    	eax
  0x1a88	cmp    	byte ptr [esp + 0x7c], bh
  0x1a8c	je     	0x1aa7
  === BLOCK LINK ===
    0x1a8e
    0x1aa7
=== CODE BLOCK END ===

=== CODE BLOCK ADDRESS 0x1a8e ===
  0x1a8e	dec    	eax
  0x1a8f	lea    	edx, [esp + 0x90]
  0x1a96	mov    	ecx, 4
  0x1a9b	dec    	eax
  0x1a9c	call   	dword ptr [0x4956]
  === BLOCK LINK ===
    0x1aa2
=== CODE BLOCK END ===

=== CODE BLOCK ADDRESS 0x1aa2 ===
  0x1aa2	nop    	dword ptr [eax + eax]
  === BLOCK LINK ===
    0x1aa7
=== CODE BLOCK END ===

=== CODE BLOCK ADDRESS 0x1ab8 ===
  0x1ab8	lea    	ecx, [0x7542]
  0x1abe	call   	0x1afc
  === BLOCK LINK ===
    0x1ac3
    0x1afc
=== CODE BLOCK END ===

=== CODE BLOCK ADDRESS 0x1ac3 ===
  0x1ac3	mov    	eax, ebx
  0x1ac5	dec    	eax
  0x1ac6	mov    	ecx, dword ptr [esp + 0xd0]
  0x1acd	dec    	eax
  0x1ace	xor    	ecx, esp
  === BLOCK LINK ===
    0x1ad0
=== CODE BLOCK END ===

=== CODE BLOCK ADDRESS 0x1ad0 ===
  0x1ad0	call   	0x5280
  === BLOCK LINK ===
    0x1ad5
    0x5280
=== CODE BLOCK END ===

=== CODE BLOCK ADDRESS 0x1ad5 ===
  0x1ad5	dec    	esp
  0x1ad6	lea    	ebx, [esp + 0xe0]
  0x1add	dec    	ecx
  0x1ade	mov    	ebx, dword ptr [ebx + 0x20]
  0x1ae1	dec    	ecx
  === BLOCK LINK ===
    0x1ae2
=== CODE BLOCK END ===

=== CODE BLOCK ADDRESS 0x1ae2 ===
  0x1ae2	mov    	esi, dword ptr [ebx + 0x28]
  0x1ae5	dec    	ecx
  0x1ae6	mov    	edi, dword ptr [ebx + 0x30]
  0x1ae9	dec    	ecx
  0x1aea	mov    	esp, ebx
  === BLOCK LINK ===
    0x1aec
=== CODE BLOCK END ===

=== CODE BLOCK ADDRESS 0x1aec ===
  0x1aec	inc    	ecx
  0x1aed	pop    	edi
  0x1aee	inc    	ecx
  0x1aef	pop    	esi
  0x1af0	inc    	ecx
  === BLOCK LINK ===
    0x1af1
=== CODE BLOCK END ===

=== CODE BLOCK ADDRESS 0x1af1 ===
  0x1af1	pop    	esp
  0x1af2	ret    	
  0x1af3	int3   	
  0x1af4	int3   	
  0x1af5	int3   	
  === BLOCK LINK ===
    0x1af6
=== CODE BLOCK END ===

=== CODE BLOCK ADDRESS 0x568c ===
=== CODE BLOCK END ===

=== CODE BLOCK ADDRESS 0x1af6 ===
  0x1af6	int3   	
  0x1af7	int3   	
  0x1af8	int3   	
  0x1af9	int3   	
  0x1afa	int3   	
  === BLOCK LINK ===
    0x1afb
=== CODE BLOCK END ===

=== CODE BLOCK ADDRESS 0x1afb ===
  0x1afb	int3   	
  === BLOCK LINK ===
    0x1afc
=== CODE BLOCK END ===

=== CODE BLOCK ADDRESS 0x1b07 ===
  0x1b07	dec    	eax
  0x1b08	xor    	eax, esp
  0x1b0a	dec    	eax
  0x1b0b	mov    	dword ptr [esp + 0x50], eax
  0x1b0f	cmp    	dword ptr [ecx], 5
  === BLOCK LINK ===
    0x1b12
=== CODE BLOCK END ===

=== CODE BLOCK ADDRESS 0x1b12 ===
  0x1b12	jbe    	0x1b55
  === BLOCK LINK ===
    0x1b14
    0x1b55
=== CODE BLOCK END ===

=== CODE BLOCK ADDRESS 0x1b14 ===
  0x1b14	dec    	ecx
  0x1b15	mov    	eax, 0
  0x1b1a	add    	byte ptr [eax], ah
  0x1b1c	add    	byte ptr [eax], al
  0x1b1e	dec    	esp
  === BLOCK LINK ===
    0x1b1f
=== CODE BLOCK END ===

=== CODE BLOCK ADDRESS 0x1b1f ===
  0x1b1f	test   	dword ptr [ecx + 0x10], eax
  0x1b22	je     	0x1b55
  === BLOCK LINK ===
    0x1b24
    0x1b55
=== CODE BLOCK END ===

=== CODE BLOCK ADDRESS 0x1b24 ===
  0x1b24	dec    	eax
  0x1b25	mov    	eax, dword ptr [ecx + 0x18]
  0x1b28	dec    	ecx
  0x1b29	and    	eax, eax
  0x1b2b	dec    	eax
  === BLOCK LINK ===
    0x1b2c
=== CODE BLOCK END ===

=== CODE BLOCK ADDRESS 0x1b2c ===
  0x1b2c	cmp    	eax, dword ptr [ecx + 0x18]
  0x1b2f	jne    	0x1b55
  === BLOCK LINK ===
    0x1b31
    0x1b55
=== CODE BLOCK END ===

=== CODE BLOCK ADDRESS 0x1b31 ===
  0x1b31	dec    	eax
  0x1b32	lea    	eax, [esp + 0x30]
  0x1b36	dec    	esp
  0x1b37	mov    	eax, edx
  0x1b39	dec    	eax
  === BLOCK LINK ===
    0x1b3a
=== CODE BLOCK END ===

=== CODE BLOCK ADDRESS 0x1b3a ===
  0x1b3a	mov    	dword ptr [esp + 0x28], eax
  0x1b3e	dec    	eax
  0x1b3f	lea    	edx, [0x5191]
  0x1b45	inc    	ebp
  0x1b46	xor    	ecx, ecx
  === BLOCK LINK ===
    0x1b48
=== CODE BLOCK END ===

=== CODE BLOCK ADDRESS 0x1b48 ===
  0x1b48	mov    	dword ptr [esp + 0x20], 2
  0x1b50	call   	0x1090
  === BLOCK LINK ===
    0x1b55
    0x1090
=== CODE BLOCK END ===

=== CODE BLOCK ADDRESS 0x1b55 ===
  0x1b55	dec    	eax
  0x1b56	mov    	ecx, dword ptr [esp + 0x50]
  0x1b5a	dec    	eax
  0x1b5b	xor    	ecx, esp
  0x1b5d	call   	0x5280
  === BLOCK LINK ===
    0x1b62
    0x5280
=== CODE BLOCK END ===

=== CODE BLOCK ADDRESS 0x1b62 ===
  0x1b62	dec    	eax
  0x1b63	add    	esp, 0x68
  0x1b66	ret    	
  0x1b67	int3   	
  0x1b68	int3   	
  === BLOCK LINK ===
    0x1b69
=== CODE BLOCK END ===

=== CODE BLOCK ADDRESS 0x1b69 ===
  0x1b69	int3   	
  0x1b6a	int3   	
  0x1b6b	int3   	
  0x1b6c	int3   	
  0x1b6d	int3   	
  === BLOCK LINK ===
    0x1b6e
=== CODE BLOCK END ===

=== CODE BLOCK ADDRESS 0x1b6e ===
  0x1b6e	int3   	
  0x1b6f	int3   	
  0x1b70	dec    	esp
  0x1b71	mov    	dword ptr [esp + 0x18], eax
  0x1b75	dec    	esp
  === BLOCK LINK ===
    0x1b76
=== CODE BLOCK END ===

=== CODE BLOCK ADDRESS 0x1b76 ===
  0x1b76	mov    	dword ptr [esp + 0x20], ecx
  0x1b7a	push   	ebx
  0x1b7b	push   	ebp
  0x1b7c	push   	esi
  0x1b7d	push   	edi
  === BLOCK LINK ===
    0x1b7e
=== CODE BLOCK END ===

=== CODE BLOCK ADDRESS 0x1b7e ===
  0x1b7e	dec    	eax
  0x1b7f	sub    	esp, 0x28
  0x1b82	xor    	ebp, ebp
  0x1b84	dec    	eax
  0x1b85	lea    	eax, [edx - 1]
  === BLOCK LINK ===
    0x1b88
=== CODE BLOCK END ===

=== CODE BLOCK ADDRESS 0x1b88 ===
  0x1b88	dec    	eax
  0x1b89	cmp    	eax, 0x7ffffffe
  0x1b8e	dec    	eax
  0x1b8f	mov    	esi, ecx
  0x1b91	mov    	edi, ebp
  === BLOCK LINK ===
    0x1b93
=== CODE BLOCK END ===

=== CODE BLOCK ADDRESS 0x1b93 ===
  0x1b93	mov    	ecx, 0x80070057
  0x1b98	cmova  	edi, ecx
  0x1b9b	test   	edi, edi
  0x1b9d	js     	0x1bda
  === BLOCK LINK ===
    0x1b9f
    0x1bda
=== CODE BLOCK END ===

=== CODE BLOCK ADDRESS 0x1b9f ===
  0x1b9f	dec    	eax
  0x1ba0	lea    	ebx, [edx - 1]
  0x1ba3	dec    	eax
  0x1ba4	mov    	ecx, esi
  0x1ba6	dec    	eax
  === BLOCK LINK ===
    0x1ba7
=== CODE BLOCK END ===

=== CODE BLOCK ADDRESS 0x1ba7 ===
  0x1ba7	mov    	edx, ebx
  0x1ba9	dec    	esp
  0x1baa	lea    	ecx, [esp + 0x68]
  0x1bae	mov    	edi, ebp
  0x1bb0	dec    	eax
  === BLOCK LINK ===
    0x1bb1
=== CODE BLOCK END ===

=== CODE BLOCK ADDRESS 0x1bb1 ===
  0x1bb1	call   	dword ptr [0x48c9]
  === BLOCK LINK ===
    0x1bb7
=== CODE BLOCK END ===

=== CODE BLOCK ADDRESS 0x1bb7 ===
  0x1bb7	nop    	dword ptr [eax + eax]
  0x1bbc	test   	eax, eax
  0x1bbe	js     	0x1bcf
  === BLOCK LINK ===
    0x1bc0
    0x1bcf
=== CODE BLOCK END ===

=== CODE BLOCK ADDRESS 0x1bc0 ===
  0x1bc0	dec    	eax
  0x1bc1	cwde   	
  0x1bc2	dec    	eax
  0x1bc3	cmp    	eax, ebx
  0x1bc5	ja     	0x1bcf
  === BLOCK LINK ===
    0x1bc7
    0x1bcf
=== CODE BLOCK END ===

=== CODE BLOCK ADDRESS 0x1bc7 ===
  0x1bc7	jne    	0x1be2
  === BLOCK LINK ===
    0x1bc9
    0x1be2
=== CODE BLOCK END ===

=== CODE BLOCK ADDRESS 0x1bc9 ===
  0x1bc9	mov    	word ptr [esi + ebx*2], bp
  0x1bcd	jmp    	0x1be2
  === BLOCK LINK ===
    0x1bcf
    0x1be2
=== CODE BLOCK END ===

=== CODE BLOCK ADDRESS 0x1bcf ===
  0x1bcf	mov    	word ptr [esi + ebx*2], bp
  0x1bd3	mov    	edi, 0x8007007a
  0x1bd8	jmp    	0x1be2
  === BLOCK LINK ===
    0x1bda
    0x1be2
=== CODE BLOCK END ===

=== CODE BLOCK ADDRESS 0x1bda ===
  0x1bda	dec    	eax
  0x1bdb	test   	edx, edx
  0x1bdd	je     	0x1be2
  === BLOCK LINK ===
    0x1bdf
    0x1be2
=== CODE BLOCK END ===

=== CODE BLOCK ADDRESS 0x1bdf ===
  0x1bdf	mov    	word ptr [esi], bp
  === BLOCK LINK ===
    0x1be2
=== CODE BLOCK END ===

=== CODE BLOCK ADDRESS 0x1be9 ===
  0x1be9	pop    	esi
  0x1bea	pop    	ebp
  0x1beb	pop    	ebx
  0x1bec	ret    	
  0x1bed	int3   	
  === BLOCK LINK ===
    0x1bee
=== CODE BLOCK END ===

=== CODE BLOCK ADDRESS 0x13b0 ===
  0x13b0	lea    	edx, [eax - 3]
  0x13b3	dec    	esp
  0x13b4	lea    	eax, [ebp - 0x39]
  0x13b7	dec    	eax
  === BLOCK LINK ===
    0x13b8
=== CODE BLOCK END ===

=== CODE BLOCK ADDRESS 0x1bee ===
  0x1bee	int3   	
  0x1bef	int3   	
  0x1bf0	int3   	
  0x1bf1	int3   	
  0x1bf2	int3   	
  === BLOCK LINK ===
    0x1bf3
=== CODE BLOCK END ===

=== CODE BLOCK ADDRESS 0x1bf3 ===
  0x1bf3	int3   	
  0x1bf4	dec    	esp
  0x1bf5	mov    	dword ptr [esp + 0x18], eax
  0x1bf9	dec    	esp
  0x1bfa	mov    	dword ptr [esp + 0x20], ecx
  === BLOCK LINK ===
    0x1bfe
=== CODE BLOCK END ===

=== CODE BLOCK ADDRESS 0x1bfe ===
  0x1bfe	push   	ebx
  0x1bff	push   	esi
  0x1c00	push   	edi
  0x1c01	dec    	eax
  0x1c02	sub    	esp, 0x20
  === BLOCK LINK ===
    0x1c05
=== CODE BLOCK END ===

=== CODE BLOCK ADDRESS 0x1c05 ===
  0x1c05	dec    	esp
  0x1c06	mov    	edx, edx
  0x1c08	dec    	esp
  0x1c09	lea    	ecx, [esp + 0x58]
  0x1c0d	dec    	esp
  === BLOCK LINK ===
    0x1c0e
=== CODE BLOCK END ===

=== CODE BLOCK ADDRESS 0x1c0e ===
  0x1c0e	sub    	edx, ecx
  0x1c10	dec    	eax
  0x1c11	mov    	esi, edx
  0x1c13	dec    	ecx
  0x1c14	sar    	edx, 1
  === BLOCK LINK ===
    0x1c16
=== CODE BLOCK END ===

=== CODE BLOCK ADDRESS 0x1c16 ===
  0x1c16	dec    	eax
  0x1c17	mov    	ebx, ecx
  0x1c19	dec    	ecx
  0x1c1a	lea    	eax, [edx - 1]
  0x1c1d	dec    	eax
  === BLOCK LINK ===
    0x1c1e
=== CODE BLOCK END ===

=== CODE BLOCK ADDRESS 0x1c1e ===
  0x1c1e	cmp    	eax, 0x7ffffffe
  0x1c23	ja     	0x1c4d
  === BLOCK LINK ===
    0x1c25
    0x1c4d
=== CODE BLOCK END ===

=== CODE BLOCK ADDRESS 0x1c25 ===
  0x1c25	dec    	ecx
  0x1c26	lea    	edi, [edx - 1]
  0x1c29	dec    	eax
  0x1c2a	mov    	edx, edi
  0x1c2c	dec    	eax
  === BLOCK LINK ===
    0x1c2d
=== CODE BLOCK END ===

=== CODE BLOCK ADDRESS 0x1c2d ===
  0x1c2d	call   	dword ptr [0x484d]
  === BLOCK LINK ===
    0x1c33
=== CODE BLOCK END ===

=== CODE BLOCK ADDRESS 0x1c33 ===
  0x1c33	nop    	dword ptr [eax + eax]
  0x1c38	xor    	ecx, ecx
  0x1c3a	test   	eax, eax
  0x1c3c	js     	0x1c47
  === BLOCK LINK ===
    0x1c3e
    0x1c47
=== CODE BLOCK END ===

=== CODE BLOCK ADDRESS 0x1c3e ===
  0x1c3e	dec    	eax
  0x1c3f	cwde   	
  0x1c40	dec    	eax
  0x1c41	cmp    	eax, edi
  0x1c43	ja     	0x1c47
  === BLOCK LINK ===
    0x1c45
    0x1c47
=== CODE BLOCK END ===

=== CODE BLOCK ADDRESS 0x1c45 ===
  0x1c45	jne    	0x1c57
  === BLOCK LINK ===
    0x1c47
    0x1c57
=== CODE BLOCK END ===

=== CODE BLOCK ADDRESS 0x1c47 ===
  0x1c47	mov    	word ptr [ebx + edi*2], cx
  0x1c4b	jmp    	0x1c57
  === BLOCK LINK ===
    0x1c4d
    0x1c57
=== CODE BLOCK END ===

=== CODE BLOCK ADDRESS 0x1c4d ===
  0x1c4d	xor    	ecx, ecx
  0x1c4f	dec    	ebp
  0x1c50	test   	edx, edx
  0x1c52	je     	0x1c57
  === BLOCK LINK ===
    0x1c54
    0x1c57
=== CODE BLOCK END ===

=== CODE BLOCK ADDRESS 0x1c54 ===
  0x1c54	mov    	word ptr [ebx], cx
  === BLOCK LINK ===
    0x1c57
    0x1c6d
=== CODE BLOCK END ===

=== CODE BLOCK ADDRESS 0x1c5c ===
  0x1c5c	dec    	eax
  0x1c5d	or     	eax, 0xffffffff
  === BLOCK LINK ===
    0x1c60
=== CODE BLOCK END ===

=== CODE BLOCK ADDRESS 0x1c67 ===
  0x1c67	jne    	0x1c60
  === BLOCK LINK ===
    0x1c69
    0x1c60
=== CODE BLOCK END ===

=== CODE BLOCK ADDRESS 0x1c69 ===
  0x1c69	dec    	eax
  0x1c6a	lea    	ebx, [ebx + eax*2]
  === BLOCK LINK ===
    0x1c6d
=== CODE BLOCK END ===

=== CODE BLOCK ADDRESS 0x1c71 ===
  0x1c71	add    	esp, 0x20
  0x1c74	pop    	edi
  0x1c75	pop    	esi
  0x1c76	pop    	ebx
  0x1c77	ret    	
  === BLOCK LINK ===
    0x1c78
=== CODE BLOCK END ===

=== CODE BLOCK ADDRESS 0x1c78 ===
  0x1c78	int3   	
  0x1c79	int3   	
  0x1c7a	int3   	
  0x1c7b	int3   	
  0x1c7c	int3   	
  === BLOCK LINK ===
    0x1c7d
=== CODE BLOCK END ===

=== CODE BLOCK ADDRESS 0x1c7d ===
  0x1c7d	int3   	
  0x1c7e	int3   	
  0x1c7f	int3   	
  0x1c80	dec    	eax
  0x1c81	mov    	dword ptr [esp + 0x20], ebx
  === BLOCK LINK ===
    0x1c85
=== CODE BLOCK END ===

=== CODE BLOCK ADDRESS 0x1c85 ===
  0x1c85	push   	ebp
  0x1c86	push   	esi
  0x1c87	push   	edi
  0x1c88	inc    	ecx
  0x1c89	push   	esi
  === BLOCK LINK ===
    0x1c8a
=== CODE BLOCK END ===

=== CODE BLOCK ADDRESS 0x1c8a ===
  0x1c8a	inc    	ecx
  0x1c8b	push   	edi
  0x1c8c	dec    	eax
  0x1c8d	sub    	esp, 0x250
  0x1c93	dec    	eax
  === BLOCK LINK ===
    0x1c94
=== CODE BLOCK END ===

=== CODE BLOCK ADDRESS 0x1c94 ===
  0x1c94	mov    	eax, dword ptr [0x750e]
  0x1c9a	dec    	eax
  0x1c9b	xor    	eax, esp
  0x1c9d	dec    	eax
  0x1c9e	mov    	dword ptr [esp + 0x240], eax
  === BLOCK LINK ===
    0x1ca5
=== CODE BLOCK END ===

=== CODE BLOCK ADDRESS 0x1ca5 ===
  0x1ca5	inc    	ebp
  0x1ca6	xor    	edi, edi
  0x1ca8	dec    	ecx
  0x1ca9	mov    	ebx, eax
  0x1cab	dec    	eax
  === BLOCK LINK ===
    0x1cac
=== CODE BLOCK END ===

=== CODE BLOCK ADDRESS 0x1cac ===
  0x1cac	mov    	edi, edx
  0x1cae	dec    	esp
  0x1caf	mov    	esi, ecx
  0x1cb1	dec    	eax
  0x1cb2	test   	ecx, ecx
  === BLOCK LINK ===
    0x1cb4
=== CODE BLOCK END ===

=== CODE BLOCK ADDRESS 0x1cb4 ===
  0x1cb4	je     	0x1eba
  === BLOCK LINK ===
    0x1cba
=== CODE BLOCK END ===

=== CODE BLOCK ADDRESS 0x1cba ===
  0x1cba	dec    	eax
  0x1cbb	mov    	eax, dword ptr [0x7b17]
  0x1cc1	inc    	sp
  0x1cc3	mov    	dword ptr [ecx], edi
  0x1cc5	dec    	eax
  === BLOCK LINK ===
    0x1cc6
=== CODE BLOCK END ===

=== CODE BLOCK ADDRESS 0x1cc6 ===
  0x1cc6	test   	eax, eax
  0x1cc8	je     	0x1cec
  === BLOCK LINK ===
    0x1cca
=== CODE BLOCK END ===

=== CODE BLOCK ADDRESS 0x1cca ===
  0x1cca	inc    	esp
  0x1ccb	cmp    	byte ptr [0x7b10], bh
  0x1cd1	je     	0x1cec
  === BLOCK LINK ===
    0x1cd3
=== CODE BLOCK END ===

=== CODE BLOCK ADDRESS 0x1cd3 ===
  0x1cd3	dec    	esp
  0x1cd4	mov    	eax, edx
  0x1cd6	dec    	eax
  0x1cd7	mov    	edx, ecx
  0x1cd9	dec    	eax
  === BLOCK LINK ===
    0x1cda
=== CODE BLOCK END ===

=== CODE BLOCK ADDRESS 0x1cda ===
  0x1cda	mov    	ecx, ebx
  0x1cdc	call   	dword ptr [0x489e]
  === BLOCK LINK ===
    0x1ce2
=== CODE BLOCK END ===

=== CODE BLOCK ADDRESS 0x1ce2 ===
  0x1ce2	inc    	bp
  0x1ce4	cmp    	dword ptr [esi], edi
  0x1ce6	jne    	0x1eba
  === BLOCK LINK ===
    0x1cec
=== CODE BLOCK END ===

=== CODE BLOCK ADDRESS 0x1cec ===
  0x1cec	mov    	ecx, dword ptr [ebx]
  0x1cee	dec    	eax
  0x1cef	lea    	esi, [0x4a63]
  0x1cf5	test   	ecx, ecx
  0x1cf7	je     	0x1d23
  === BLOCK LINK ===
    0x1cf9
=== CODE BLOCK END ===

=== CODE BLOCK ADDRESS 0x1cf9 ===
  0x1cf9	sub    	ecx, 1
  0x1cfc	je     	0x1d1a
  === BLOCK LINK ===
    0x1cfe
=== CODE BLOCK END ===

=== CODE BLOCK ADDRESS 0x1cfe ===
  0x1cfe	sub    	ecx, 1
  0x1d01	je     	0x1d11
  === BLOCK LINK ===
    0x1d03
=== CODE BLOCK END ===

=== CODE BLOCK ADDRESS 0x1d03 ===
  0x1d03	cmp    	ecx, 1
  0x1d06	jne    	0x1d2a
  === BLOCK LINK ===
    0x1d08
=== CODE BLOCK END ===

=== CODE BLOCK ADDRESS 0x1d08 ===
  0x1d08	dec    	eax
  0x1d09	lea    	esi, [0x4a79]
  0x1d0f	jmp    	0x1d2a
  === BLOCK LINK ===
    0x1d11
=== CODE BLOCK END ===

=== CODE BLOCK ADDRESS 0x1d11 ===
  0x1d11	dec    	eax
  0x1d12	lea    	esi, [0x4a64]
  0x1d18	jmp    	0x1d2a
  === BLOCK LINK ===
    0x1d1a
=== CODE BLOCK END ===

=== CODE BLOCK ADDRESS 0x1d1a ===
  0x1d1a	dec    	eax
  0x1d1b	lea    	esi, [0x4a4f]
  0x1d21	jmp    	0x1d2a
  === BLOCK LINK ===
    0x1d23
=== CODE BLOCK END ===

=== CODE BLOCK ADDRESS 0x1d23 ===
  0x1d23	dec    	eax
  0x1d24	lea    	esi, [0x4a36]
  0x1d2a	inc    	esp
  0x1d2b	mov    	eax, dword ptr [ebx + 4]
  0x1d2e	dec    	eax
  === BLOCK LINK ===
    0x1d2f
=== CODE BLOCK END ===

=== CODE BLOCK ADDRESS 0x1d2f ===
  0x1d2f	lea    	eax, [esp + 0x40]
  0x1d33	dec    	esp
  0x1d34	mov    	dword ptr [esp + 0x30], edi
  0x1d38	inc    	ecx
  0x1d39	mov    	ecx, 0x400
  === BLOCK LINK ===
    0x1d3e
=== CODE BLOCK END ===

=== CODE BLOCK ADDRESS 0x1d3e ===
  0x1d3e	mov    	dword ptr [esp + 0x28], 0x100
  0x1d46	xor    	edx, edx
  0x1d48	mov    	ecx, 0x1200
  0x1d4d	dec    	eax
  0x1d4e	mov    	dword ptr [esp + 0x20], eax
  === BLOCK LINK ===
    0x1d52
=== CODE BLOCK END ===

=== CODE BLOCK ADDRESS 0x1d52 ===
  0x1d52	inc    	sp
  0x1d54	mov    	dword ptr [esp + 0x40], edi
  0x1d58	dec    	eax
  0x1d59	call   	dword ptr [0x4559]
  === BLOCK LINK ===
    0x1d5f
=== CODE BLOCK END ===

=== CODE BLOCK ADDRESS 0x1d5f ===
  0x1d5f	nop    	dword ptr [eax + eax]
  0x1d64	dec    	ecx
  0x1d65	lea    	edi, [esi + edi*2]
  0x1d68	dec    	eax
  0x1d69	mov    	eax, dword ptr [ebx + 0x80]
  === BLOCK LINK ===
    0x1d6f
=== CODE BLOCK END ===

=== CODE BLOCK ADDRESS 0x1d6f ===
  0x1d6f	dec    	eax
  0x1d70	mov    	edx, edi
  0x1d72	dec    	esp
  0x1d73	mov    	ecx, dword ptr [ebx + 0x78]
  0x1d76	dec    	ecx
  === BLOCK LINK ===
    0x1d77
=== CODE BLOCK END ===

=== CODE BLOCK ADDRESS 0x1d77 ===
  0x1d77	mov    	ecx, esi
  0x1d79	dec    	esp
  0x1d7a	cmp    	dword ptr [ebx + 0x30], edi
  0x1d7d	je     	0x1da2
  === BLOCK LINK ===
    0x1d7f
=== CODE BLOCK END ===

=== CODE BLOCK ADDRESS 0x1d7f ===
  0x1d7f	dec    	eax
  0x1d80	mov    	dword ptr [esp + 0x30], eax
  0x1d84	dec    	esp
  0x1d85	lea    	eax, [0x4a0d]
  0x1d8b	mov    	eax, dword ptr [ebx + 0x38]
  === BLOCK LINK ===
    0x1d8e
=== CODE BLOCK END ===

=== CODE BLOCK ADDRESS 0x1d8e ===
  0x1d8e	dec    	esp
  0x1d8f	mov    	dword ptr [esp + 0x28], ecx
  0x1d93	dec    	esp
  0x1d94	mov    	ecx, dword ptr [ebx + 0x30]
  0x1d97	mov    	dword ptr [esp + 0x20], eax
  === BLOCK LINK ===
    0x1d9b
=== CODE BLOCK END ===

=== CODE BLOCK ADDRESS 0x1d9b ===
  0x1d9b	call   	0x1bf4
  === BLOCK LINK ===
    0x1da0
=== CODE BLOCK END ===

=== CODE BLOCK ADDRESS 0x1da0 ===
  0x1da0	jmp    	0x1db3
  === BLOCK LINK ===
    0x1da2
=== CODE BLOCK END ===

=== CODE BLOCK ADDRESS 0x1da2 ===
  0x1da2	dec    	esp
  0x1da3	lea    	eax, [0x4a17]
  0x1da9	dec    	eax
  0x1daa	mov    	dword ptr [esp + 0x20], eax
  0x1dae	call   	0x1bf4
  === BLOCK LINK ===
    0x1db3
=== CODE BLOCK END ===

=== CODE BLOCK ADDRESS 0x1db3 ===
  0x1db3	dec    	esp
  0x1db4	mov    	ecx, dword ptr [ebx + 0x88]
  0x1dba	dec    	eax
  0x1dbb	mov    	ebp, eax
  0x1dbd	dec    	ebp
  === BLOCK LINK ===
    0x1dbe
=== CODE BLOCK END ===

=== CODE BLOCK ADDRESS 0x1dbe ===
  0x1dbe	test   	ecx, ecx
  0x1dc0	je     	0x1dd7
  === BLOCK LINK ===
    0x1dc2
=== CODE BLOCK END ===

=== CODE BLOCK ADDRESS 0x1dc2 ===
  0x1dc2	dec    	esp
  0x1dc3	lea    	eax, [0x4a0f]
  0x1dc9	dec    	eax
  0x1dca	mov    	edx, edi
  0x1dcc	dec    	eax
  === BLOCK LINK ===
    0x1dcd
=== CODE BLOCK END ===

=== CODE BLOCK ADDRESS 0x1dcd ===
  0x1dcd	mov    	ecx, eax
  0x1dcf	call   	0x1bf4
  === BLOCK LINK ===
    0x1dd4
=== CODE BLOCK END ===

=== CODE BLOCK ADDRESS 0x1dd4 ===
  0x1dd4	dec    	eax
  0x1dd5	mov    	ebp, eax
  0x1dd7	dec    	eax
  0x1dd8	call   	dword ptr [0x44fa]
  === BLOCK LINK ===
    0x1dde
=== CODE BLOCK END ===

=== CODE BLOCK ADDRESS 0x1dde ===
  0x1dde	nop    	dword ptr [eax + eax]
  0x1de3	dec    	eax
  0x1de4	lea    	ecx, [esp + 0x40]
  0x1de8	dec    	esp
  0x1de9	mov    	ecx, esi
  === BLOCK LINK ===
    0x1deb
=== CODE BLOCK END ===

=== CODE BLOCK ADDRESS 0x1deb ===
  0x1deb	dec    	eax
  0x1dec	mov    	dword ptr [esp + 0x38], ecx
  0x1df0	dec    	esp
  0x1df1	lea    	eax, [0x4a01]
  0x1df7	mov    	ecx, dword ptr [ebx + 4]
  === BLOCK LINK ===
    0x1dfa
=== CODE BLOCK END ===

=== CODE BLOCK ADDRESS 0x1dfa ===
  0x1dfa	dec    	eax
  0x1dfb	mov    	edx, edi
  0x1dfd	mov    	dword ptr [esp + 0x30], ecx
  0x1e01	dec    	eax
  0x1e02	mov    	ecx, ebp
  === BLOCK LINK ===
    0x1e04
=== CODE BLOCK END ===

=== CODE BLOCK ADDRESS 0x1e04 ===
  0x1e04	mov    	dword ptr [esp + 0x28], eax
  0x1e08	mov    	eax, dword ptr [ebx + 0x3c]
  0x1e0b	mov    	dword ptr [esp + 0x20], eax
  0x1e0f	call   	0x1bf4
  === BLOCK LINK ===
    0x1e14
=== CODE BLOCK END ===

=== CODE BLOCK ADDRESS 0x1e14 ===
  0x1e14	dec    	esp
  0x1e15	cmp    	dword ptr [ebx + 0x10], edi
  0x1e18	jne    	0x1e2a
  === BLOCK LINK ===
    0x1e1a
=== CODE BLOCK END ===

=== CODE BLOCK ADDRESS 0x1e1a ===
  0x1e1a	dec    	esp
  0x1e1b	cmp    	dword ptr [ebx + 0x40], edi
  0x1e1e	jne    	0x1e2a
  === BLOCK LINK ===
    0x1e20
=== CODE BLOCK END ===

=== CODE BLOCK ADDRESS 0x1e20 ===
  0x1e20	dec    	esp
  0x1e21	cmp    	dword ptr [ebx + 0x28], edi
  0x1e24	je     	0x1eba
  === BLOCK LINK ===
    0x1e2a
=== CODE BLOCK END ===

=== CODE BLOCK ADDRESS 0x1e2a ===
  0x1e2a	dec    	esp
  0x1e2b	lea    	eax, [0x49ff]
  0x1e31	dec    	eax
  0x1e32	mov    	edx, edi
  0x1e34	dec    	eax
  === BLOCK LINK ===
    0x1e35
=== CODE BLOCK END ===

=== CODE BLOCK ADDRESS 0x1e35 ===
  0x1e35	mov    	ecx, eax
  0x1e37	call   	0x1bf4
  === BLOCK LINK ===
    0x1e3c
=== CODE BLOCK END ===

=== CODE BLOCK ADDRESS 0x1e3c ===
  0x1e3c	dec    	esp
  0x1e3d	mov    	ecx, dword ptr [ebx + 0x10]
  0x1e40	dec    	ebp
  0x1e41	test   	ecx, ecx
  0x1e43	je     	0x1e57
  === BLOCK LINK ===
    0x1e45
=== CODE BLOCK END ===

=== CODE BLOCK ADDRESS 0x1e45 ===
  0x1e45	dec    	esp
  0x1e46	lea    	eax, [0x49f4]
  0x1e4c	dec    	eax
  0x1e4d	mov    	edx, edi
  0x1e4f	dec    	eax
  === BLOCK LINK ===
    0x1e50
=== CODE BLOCK END ===

=== CODE BLOCK ADDRESS 0x1e50 ===
  0x1e50	mov    	ecx, eax
  0x1e52	call   	0x1bf4
  === BLOCK LINK ===
    0x1e57
=== CODE BLOCK END ===

=== CODE BLOCK ADDRESS 0x1e57 ===
  0x1e57	dec    	esp
  0x1e58	mov    	ecx, dword ptr [ebx + 0x40]
  0x1e5b	dec    	ebp
  0x1e5c	test   	ecx, ecx
  0x1e5e	je     	0x1e72
  === BLOCK LINK ===
    0x1e60
=== CODE BLOCK END ===

=== CODE BLOCK ADDRESS 0x1e60 ===
  0x1e60	dec    	esp
  0x1e61	lea    	eax, [0x49f1]
  0x1e67	dec    	eax
  0x1e68	mov    	edx, edi
  0x1e6a	dec    	eax
  === BLOCK LINK ===
    0x1e6b
=== CODE BLOCK END ===

=== CODE BLOCK ADDRESS 0x1e6b ===
  0x1e6b	mov    	ecx, eax
  0x1e6d	call   	0x1bf4
  === BLOCK LINK ===
    0x1e72
=== CODE BLOCK END ===

=== CODE BLOCK ADDRESS 0x1e72 ===
  0x1e72	dec    	eax
  0x1e73	mov    	ecx, dword ptr [ebx + 0x20]
  0x1e76	dec    	eax
  0x1e77	mov    	edx, edi
  0x1e79	dec    	esp
  === BLOCK LINK ===
    0x1e7a
=== CODE BLOCK END ===

=== CODE BLOCK ADDRESS 0x1e7a ===
  0x1e7a	mov    	ecx, dword ptr [ebx + 0x28]
  0x1e7d	dec    	eax
  0x1e7e	test   	ecx, ecx
  0x1e80	je     	0x1e98
  === BLOCK LINK ===
    0x1e82
=== CODE BLOCK END ===

=== CODE BLOCK ADDRESS 0x1e82 ===
  0x1e82	dec    	eax
  0x1e83	mov    	dword ptr [esp + 0x20], ecx
  0x1e87	dec    	esp
  0x1e88	lea    	eax, [0x49f2]
  0x1e8e	dec    	eax
  === BLOCK LINK ===
    0x1e8f
=== CODE BLOCK END ===

=== CODE BLOCK ADDRESS 0x1e8f ===
  0x1e8f	mov    	ecx, eax
  0x1e91	call   	0x1bf4
  === BLOCK LINK ===
    0x1e96
=== CODE BLOCK END ===

=== CODE BLOCK ADDRESS 0x1e96 ===
  0x1e96	jmp    	0x1eba
  === BLOCK LINK ===
    0x1e98
=== CODE BLOCK END ===

=== CODE BLOCK ADDRESS 0x1e98 ===
  0x1e98	dec    	eax
  0x1e99	mov    	ecx, eax
  0x1e9b	dec    	ebp
  0x1e9c	test   	ecx, ecx
  0x1e9e	je     	0x1eae
  === BLOCK LINK ===
    0x1ea0
=== CODE BLOCK END ===

=== CODE BLOCK ADDRESS 0x1ea0 ===
  0x1ea0	dec    	esp
  0x1ea1	lea    	eax, [0x49f1]
  0x1ea7	call   	0x1bf4
  === BLOCK LINK ===
    0x1eac
=== CODE BLOCK END ===

=== CODE BLOCK ADDRESS 0x1eac ===
  0x1eac	jmp    	0x1eba
  === BLOCK LINK ===
    0x1eae
=== CODE BLOCK END ===

=== CODE BLOCK ADDRESS 0x1eae ===
  0x1eae	dec    	esp
  0x1eaf	lea    	eax, [0x49f3]
  0x1eb5	call   	0x1bf4
  === BLOCK LINK ===
    0x1eba
=== CODE BLOCK END ===

=== CODE BLOCK ADDRESS 0x1eba ===
  0x1eba	xor    	eax, eax
  0x1ebc	dec    	eax
  0x1ebd	mov    	ecx, dword ptr [esp + 0x240]
  0x1ec4	dec    	eax
  0x1ec5	xor    	ecx, esp
  === BLOCK LINK ===
    0x1ec7
=== CODE BLOCK END ===

=== CODE BLOCK ADDRESS 0x1ec7 ===
  0x1ec7	call   	0x5280
  === BLOCK LINK ===
    0x1ecc
=== CODE BLOCK END ===

=== CODE BLOCK ADDRESS 0x1ecc ===
  0x1ecc	dec    	eax
  0x1ecd	mov    	ebx, dword ptr [esp + 0x298]
  0x1ed4	dec    	eax
  0x1ed5	add    	esp, 0x250
  0x1edb	inc    	ecx
  === BLOCK LINK ===
    0x1edc
=== CODE BLOCK END ===

=== CODE BLOCK ADDRESS 0x1edc ===
  0x1edc	pop    	edi
  0x1edd	inc    	ecx
  0x1ede	pop    	esi
  0x1edf	pop    	edi
  0x1ee0	pop    	esi
  === BLOCK LINK ===
    0x1ee1
=== CODE BLOCK END ===

=== CODE BLOCK ADDRESS 0x1ee1 ===
  0x1ee1	pop    	ebp
  0x1ee2	ret    	
  0x1ee3	int3   	
  0x1ee4	int3   	
  0x1ee5	int3   	
  === BLOCK LINK ===
    0x1ee6
=== CODE BLOCK END ===

=== CODE BLOCK ADDRESS 0x112c ===
  0x112c	dec    	eax
  0x112d	sub    	esp, 0x88
  0x1133	dec    	eax
  === BLOCK LINK ===
    0x1134
=== CODE BLOCK END ===

=== CODE BLOCK ADDRESS 0x1ee6 ===
  0x1ee6	int3   	
  0x1ee7	int3   	
  0x1ee8	int3   	
  0x1ee9	int3   	
  0x1eea	int3   	
  === BLOCK LINK ===
    0x1eeb
=== CODE BLOCK END ===

=== CODE BLOCK ADDRESS 0x1eeb ===
  0x1eeb	int3   	
  0x1eec	dec    	eax
  0x1eed	mov    	dword ptr [esp + 8], ebx
  0x1ef1	dec    	eax
  0x1ef2	mov    	dword ptr [esp + 0x10], ebp
  === BLOCK LINK ===
    0x1ef6
=== CODE BLOCK END ===

=== CODE BLOCK ADDRESS 0x1ef6 ===
  0x1ef6	dec    	eax
  0x1ef7	mov    	dword ptr [esp + 0x18], esi
  0x1efb	push   	edi
  0x1efc	dec    	eax
  0x1efd	sub    	esp, 0x20
  === BLOCK LINK ===
    0x1f00
=== CODE BLOCK END ===

=== CODE BLOCK ADDRESS 0x1f00 ===
  0x1f00	dec    	ecx
  0x1f01	mov    	esi, eax
  0x1f03	dec    	eax
  0x1f04	mov    	ebp, edx
  0x1f06	dec    	eax
  === BLOCK LINK ===
    0x1f07
=== CODE BLOCK END ===

=== CODE BLOCK ADDRESS 0x1f07 ===
  0x1f07	mov    	edi, ecx
  0x1f09	dec    	ebp
  0x1f0a	test   	eax, eax
  0x1f0c	jne    	0x1f54
  === BLOCK LINK ===
    0x1f0e
=== CODE BLOCK END ===

=== CODE BLOCK ADDRESS 0x1f0e ===
  0x1f0e	dec    	eax
  0x1f0f	mov    	ecx, dword ptr [ecx]
  0x1f11	dec    	eax
  0x1f12	test   	ecx, ecx
  0x1f14	je     	0x1fdc
  === BLOCK LINK ===
    0x1f1a
=== CODE BLOCK END ===

=== CODE BLOCK ADDRESS 0x1f1a ===
  0x1f1a	or     	eax, 0xffffffff
  0x1f1d	lock xadd  	dword ptr [ecx], eax
  0x1f21	cmp    	eax, 1
  0x1f24	jne    	0x1f46
  === BLOCK LINK ===
    0x1f26
=== CODE BLOCK END ===

=== CODE BLOCK ADDRESS 0x1f26 ===
  0x1f26	dec    	eax
  0x1f27	call   	dword ptr [0x4333]
  === BLOCK LINK ===
    0x1f2d
=== CODE BLOCK END ===

=== CODE BLOCK ADDRESS 0x1f2d ===
  0x1f2d	nop    	dword ptr [eax + eax]
  0x1f32	dec    	esp
  0x1f33	mov    	eax, dword ptr [edi]
  0x1f35	xor    	edx, edx
  0x1f37	dec    	eax
  === BLOCK LINK ===
    0x1f38
=== CODE BLOCK END ===

=== CODE BLOCK ADDRESS 0x1f38 ===
  0x1f38	mov    	ecx, eax
  0x1f3a	dec    	eax
  0x1f3b	call   	dword ptr [0x4317]
  === BLOCK LINK ===
    0x1f41
=== CODE BLOCK END ===

=== CODE BLOCK ADDRESS 0x1f41 ===
  0x1f41	nop    	dword ptr [eax + eax]
  0x1f46	dec    	eax
  0x1f47	and    	dword ptr [edi], 0
  0x1f4a	dec    	eax
  0x1f4b	and    	dword ptr [edi + 8], 0
  === BLOCK LINK ===
    0x1f4f
=== CODE BLOCK END ===

=== CODE BLOCK ADDRESS 0x1f4f ===
  0x1f4f	jmp    	0x1fdc
  === BLOCK LINK ===
    0x1f54
=== CODE BLOCK END ===

=== CODE BLOCK ADDRESS 0x1f54 ===
  0x1f54	dec    	eax
  0x1f55	call   	dword ptr [0x4305]
  === BLOCK LINK ===
    0x1f5b
=== CODE BLOCK END ===

=== CODE BLOCK ADDRESS 0x1f5b ===
  0x1f5b	nop    	dword ptr [eax + eax]
  0x1f60	dec    	esp
  0x1f61	lea    	eax, [esi + 4]
  0x1f64	xor    	edx, edx
  0x1f66	dec    	eax
  === BLOCK LINK ===
    0x1f67
=== CODE BLOCK END ===

=== CODE BLOCK ADDRESS 0x1f67 ===
  0x1f67	mov    	ecx, eax
  0x1f69	dec    	eax
  0x1f6a	call   	dword ptr [0x42f8]
  === BLOCK LINK ===
    0x1f70
=== CODE BLOCK END ===

=== CODE BLOCK ADDRESS 0x1f70 ===
  0x1f70	nop    	dword ptr [eax + eax]
  0x1f75	dec    	eax
  0x1f76	mov    	ebx, eax
  0x1f78	dec    	eax
  0x1f79	test   	eax, eax
  === BLOCK LINK ===
    0x1f7b
=== CODE BLOCK END ===

=== CODE BLOCK ADDRESS 0x1f7b ===
  0x1f7b	je     	0x1fde
  === BLOCK LINK ===
    0x1f7d
=== CODE BLOCK END ===

=== CODE BLOCK ADDRESS 0x1f7d ===
  0x1f7d	and    	dword ptr [eax], 0
  0x1f80	dec    	eax
  0x1f81	test   	ebp, ebp
  0x1f83	je     	0x1f9e
  === BLOCK LINK ===
    0x1f85
=== CODE BLOCK END ===

=== CODE BLOCK ADDRESS 0x1f85 ===
  0x1f85	dec    	eax
  0x1f86	lea    	ecx, [eax + 4]
  0x1f89	dec    	esp
  0x1f8a	mov    	ecx, esi
  0x1f8c	dec    	esp
  === BLOCK LINK ===
    0x1f8d
=== CODE BLOCK END ===

=== CODE BLOCK ADDRESS 0x1f8d ===
  0x1f8d	mov    	eax, ebp
  0x1f8f	dec    	eax
  0x1f90	mov    	edx, esi
  0x1f92	dec    	eax
  0x1f93	call   	dword ptr [0x44df]
  === BLOCK LINK ===
    0x1f99
=== CODE BLOCK END ===

=== CODE BLOCK ADDRESS 0x1f99 ===
  0x1f99	nop    	dword ptr [eax + eax]
  0x1f9e	dec    	eax
  0x1f9f	mov    	ecx, dword ptr [edi]
  0x1fa1	dec    	eax
  0x1fa2	test   	ecx, ecx
  === BLOCK LINK ===
    0x1fa4
=== CODE BLOCK END ===

=== CODE BLOCK ADDRESS 0x1fa4 ===
  0x1fa4	je     	0x1fd2
  === BLOCK LINK ===
    0x1fa6
=== CODE BLOCK END ===

=== CODE BLOCK ADDRESS 0x1fa6 ===
  0x1fa6	or     	eax, 0xffffffff
  0x1fa9	lock xadd  	dword ptr [ecx], eax
  0x1fad	cmp    	eax, 1
  0x1fb0	jne    	0x1fd2
  === BLOCK LINK ===
    0x1fb2
=== CODE BLOCK END ===

=== CODE BLOCK ADDRESS 0x1fb2 ===
  0x1fb2	dec    	eax
  0x1fb3	call   	dword ptr [0x42a7]
  === BLOCK LINK ===
    0x1fb9
=== CODE BLOCK END ===

=== CODE BLOCK ADDRESS 0x1fb9 ===
  0x1fb9	nop    	dword ptr [eax + eax]
  0x1fbe	dec    	esp
  0x1fbf	mov    	eax, dword ptr [edi]
  0x1fc1	xor    	edx, edx
  0x1fc3	dec    	eax
  === BLOCK LINK ===
    0x1fc4
=== CODE BLOCK END ===

=== CODE BLOCK ADDRESS 0x1fc4 ===
  0x1fc4	mov    	ecx, eax
  0x1fc6	dec    	eax
  0x1fc7	call   	dword ptr [0x428b]
  === BLOCK LINK ===
    0x1fcd
=== CODE BLOCK END ===

=== CODE BLOCK ADDRESS 0x1fcd ===
  0x1fcd	nop    	dword ptr [eax + eax]
  0x1fd2	dec    	eax
  0x1fd3	mov    	dword ptr [edi], ebx
  0x1fd5	dec    	eax
  0x1fd6	mov    	dword ptr [edi + 8], esi
  === BLOCK LINK ===
    0x1fd9
=== CODE BLOCK END ===

=== CODE BLOCK ADDRESS 0x1fd9 ===
  0x1fd9	lock inc  	dword ptr [ebx]
  0x1fdc	mov    	al, 1
  0x1fde	dec    	eax
  0x1fdf	mov    	ebx, dword ptr [esp + 0x30]
  0x1fe3	dec    	eax
  === BLOCK LINK ===
    0x1fe4
=== CODE BLOCK END ===

=== CODE BLOCK ADDRESS 0x1fe4 ===
  0x1fe4	mov    	ebp, dword ptr [esp + 0x38]
  0x1fe8	dec    	eax
  0x1fe9	mov    	esi, dword ptr [esp + 0x40]
  0x1fed	dec    	eax
  0x1fee	add    	esp, 0x20
  === BLOCK LINK ===
    0x1ff1
=== CODE BLOCK END ===

=== CODE BLOCK ADDRESS 0x1ff1 ===
  0x1ff1	pop    	edi
  0x1ff2	ret    	
  0x1ff3	int3   	
  0x1ff4	int3   	
  0x1ff5	int3   	
  === BLOCK LINK ===
    0x1ff6
=== CODE BLOCK END ===

=== CODE BLOCK ADDRESS 0x1ff6 ===
  0x1ff6	int3   	
  0x1ff7	int3   	
  0x1ff8	int3   	
  0x1ff9	int3   	
  0x1ffa	int3   	
  === BLOCK LINK ===
    0x1ffb
=== CODE BLOCK END ===

=== CODE BLOCK ADDRESS 0x1ffb ===
  0x1ffb	int3   	
  0x1ffc	int3   	
  0x1ffd	int3   	
  0x1ffe	int3   	
  0x1fff	int3   	
  === BLOCK LINK ===
    0x2000
=== CODE BLOCK END ===

=== CODE BLOCK ADDRESS 0x2000 ===
  0x2000	mov    	dword ptr [0x785e], ecx
  0x2006	mov    	eax, 1
  0x200b	ret    	
  0x200c	int3   	
  0x200d	int3   	
  === BLOCK LINK ===
    0x200e
=== CODE BLOCK END ===

=== CODE BLOCK ADDRESS 0x134a ===
  0x134a	dec    	eax
  0x134b	mov    	ecx, dword ptr [ebp - 0x39]
  0x134e	dec    	eax
  0x134f	call   	dword ptr [0x4f2b]
  === BLOCK LINK ===
    0x1355
=== CODE BLOCK END ===

=== CODE BLOCK ADDRESS 0x200e ===
  0x200e	int3   	
  0x200f	int3   	
  0x2010	int3   	
  0x2011	int3   	
  0x2012	int3   	
  === BLOCK LINK ===
    0x2013
=== CODE BLOCK END ===

=== CODE BLOCK ADDRESS 0x2013 ===
  0x2013	int3   	
  0x2014	dec    	eax
  0x2015	mov    	dword ptr [esp + 0x20], ebx
  0x2019	push   	ebp
  0x201a	push   	esi
  === BLOCK LINK ===
    0x201b
=== CODE BLOCK END ===

=== CODE BLOCK ADDRESS 0x201b ===
  0x201b	push   	edi
  0x201c	dec    	eax
  0x201d	sub    	esp, 0x150
  0x2023	dec    	eax
  0x2024	mov    	eax, dword ptr [0x717e]
  === BLOCK LINK ===
    0x202a
=== CODE BLOCK END ===

=== CODE BLOCK ADDRESS 0x202a ===
  0x202a	dec    	eax
  0x202b	xor    	eax, esp
  0x202d	dec    	eax
  0x202e	mov    	dword ptr [esp + 0x140], eax
  0x2035	dec    	eax
  === BLOCK LINK ===
    0x2036
=== CODE BLOCK END ===

=== CODE BLOCK ADDRESS 0x2036 ===
  0x2036	mov    	ebp, ecx
  0x2038	dec    	ecx
  0x2039	mov    	edi, ecx
  0x203b	xor    	ecx, ecx
  0x203d	dec    	ecx
  === BLOCK LINK ===
    0x203e
=== CODE BLOCK END ===

=== CODE BLOCK ADDRESS 0x203e ===
  0x203e	mov    	ebx, eax
  0x2040	dec    	eax
  0x2041	mov    	dword ptr [esp + 0x20], ecx
  0x2045	dec    	eax
  0x2046	mov    	esi, edx
  === BLOCK LINK ===
    0x2048
=== CODE BLOCK END ===

=== CODE BLOCK ADDRESS 0x2048 ===
  0x2048	dec    	eax
  0x2049	test   	ebp, ebp
  0x204b	je     	0x2078
  === BLOCK LINK ===
    0x204d
=== CODE BLOCK END ===

=== CODE BLOCK ADDRESS 0x204d ===
  0x204d	dec    	esp
  0x204e	lea    	eax, [esp + 0x20]
  0x2052	dec    	eax
  0x2053	mov    	edx, ebp
  0x2055	mov    	ecx, 6
  === BLOCK LINK ===
    0x205a
=== CODE BLOCK END ===

=== CODE BLOCK ADDRESS 0x205a ===
  0x205a	dec    	eax
  0x205b	call   	dword ptr [0x4237]
  === BLOCK LINK ===
    0x2061
=== CODE BLOCK END ===

=== CODE BLOCK ADDRESS 0x2061 ===
  0x2061	nop    	dword ptr [eax + eax]
  0x2066	test   	eax, eax
  0x2068	jne    	0x2073
  === BLOCK LINK ===
    0x206a
=== CODE BLOCK END ===

=== CODE BLOCK ADDRESS 0x206a ===
  0x206a	dec    	eax
  0x206b	test   	esi, esi
  0x206d	je     	0x20ae
  === BLOCK LINK ===
    0x206f
=== CODE BLOCK END ===

=== CODE BLOCK ADDRESS 0x206f ===
  0x206f	and    	dword ptr [esi], eax
  0x2071	jmp    	0x20ae
  === BLOCK LINK ===
    0x2073
=== CODE BLOCK END ===

=== CODE BLOCK ADDRESS 0x2073 ===
  0x2073	dec    	eax
  0x2074	mov    	ecx, dword ptr [esp + 0x20]
  0x2078	dec    	eax
  0x2079	test   	esi, esi
  0x207b	je     	0x208a
  === BLOCK LINK ===
    0x207d
=== CODE BLOCK END ===

=== CODE BLOCK ADDRESS 0x207d ===
  0x207d	mov    	edx, ebp
  0x207f	sub    	edx, ecx
  0x2081	dec    	eax
  0x2082	neg    	ebp
  0x2084	sbb    	eax, eax
  === BLOCK LINK ===
    0x2086
=== CODE BLOCK END ===

=== CODE BLOCK ADDRESS 0x2086 ===
  0x2086	and    	eax, edx
  0x2088	mov    	dword ptr [esi], eax
  0x208a	dec    	eax
  0x208b	test   	ebx, ebx
  0x208d	je     	0x2128
  === BLOCK LINK ===
    0x2093
=== CODE BLOCK END ===

=== CODE BLOCK ADDRESS 0x2093 ===
  0x2093	inc    	ecx
  0x2094	mov    	eax, 0x104
  0x2099	dec    	eax
  0x209a	lea    	edx, [esp + 0x30]
  0x209e	dec    	eax
  === BLOCK LINK ===
    0x209f
=== CODE BLOCK END ===

=== CODE BLOCK ADDRESS 0x209f ===
  0x209f	call   	dword ptr [0x4203]
  === BLOCK LINK ===
    0x20a5
=== CODE BLOCK END ===

=== CODE BLOCK ADDRESS 0x20a5 ===
  0x20a5	nop    	dword ptr [eax + eax]
  0x20aa	test   	eax, eax
  0x20ac	jne    	0x20b2
  === BLOCK LINK ===
    0x20ae
=== CODE BLOCK END ===

=== CODE BLOCK ADDRESS 0x20ae ===
  0x20ae	xor    	al, al
  0x20b0	jmp    	0x212a
  === BLOCK LINK ===
    0x20b2
=== CODE BLOCK END ===

=== CODE BLOCK ADDRESS 0x20b2 ===
  0x20b2	dec    	eax
  0x20b3	lea    	ecx, [esp + 0x30]
  0x20b7	dec    	eax
  0x20b8	or     	eax, 0xffffffff
  0x20bb	dec    	eax
  === BLOCK LINK ===
    0x20bc
=== CODE BLOCK END ===

=== CODE BLOCK ADDRESS 0x20bc ===
  0x20bc	inc    	eax
  0x20be	cmp    	byte ptr [ecx + eax], 0
  0x20c2	jne    	0x20bb
  === BLOCK LINK ===
    0x20c4
=== CODE BLOCK END ===

=== CODE BLOCK ADDRESS 0x20c4 ===
  0x20c4	dec    	eax
  0x20c5	lea    	ecx, [esp + 0x30]
  0x20c9	dec    	eax
  0x20ca	add    	ecx, eax
  0x20cc	jmp    	0x20d7
  === BLOCK LINK ===
    0x20ce
=== CODE BLOCK END ===

=== CODE BLOCK ADDRESS 0x20ce ===
  0x20ce	cmp    	byte ptr [ecx - 1], 0x5c
  0x20d2	je     	0x20e1
  === BLOCK LINK ===
    0x20d4
=== CODE BLOCK END ===

=== CODE BLOCK ADDRESS 0x20d4 ===
  0x20d4	dec    	eax
  0x20d5	dec    	ecx
  0x20d7	dec    	eax
  0x20d8	lea    	eax, [esp + 0x30]
  0x20dc	dec    	eax
  === BLOCK LINK ===
    0x20dd
=== CODE BLOCK END ===

=== CODE BLOCK ADDRESS 0x20dd ===
  0x20dd	cmp    	ecx, eax
  0x20df	ja     	0x20ce
  === BLOCK LINK ===
    0x20e1
=== CODE BLOCK END ===

=== CODE BLOCK ADDRESS 0x20e1 ===
  0x20e1	dec    	eax
  0x20e2	lea    	eax, [edi - 1]
  0x20e5	mov    	edx, 0x7ffffffe
  0x20ea	dec    	eax
  0x20eb	cmp    	eax, edx
  === BLOCK LINK ===
    0x20ed
=== CODE BLOCK END ===

=== CODE BLOCK ADDRESS 0x20ed ===
  0x20ed	ja     	0x2120
  === BLOCK LINK ===
    0x20ef
=== CODE BLOCK END ===

=== CODE BLOCK ADDRESS 0x20ef ===
  0x20ef	dec    	eax
  0x20f0	sub    	edx, edi
  0x20f2	dec    	eax
  0x20f3	sub    	ecx, ebx
  0x20f5	dec    	eax
  === BLOCK LINK ===
    0x20f6
=== CODE BLOCK END ===

=== CODE BLOCK ADDRESS 0x20f6 ===
  0x20f6	lea    	eax, [edx + edi]
  0x20f9	dec    	eax
  0x20fa	test   	eax, eax
  0x20fc	je     	0x2110
  === BLOCK LINK ===
    0x20fe
=== CODE BLOCK END ===

=== CODE BLOCK ADDRESS 0x20fe ===
  0x20fe	mov    	al, byte ptr [ecx + ebx]
  0x2101	test   	al, al
  0x2103	je     	0x2110
  === BLOCK LINK ===
    0x2105
=== CODE BLOCK END ===

=== CODE BLOCK ADDRESS 0x2105 ===
  0x2105	mov    	byte ptr [ebx], al
  0x2107	dec    	eax
  0x2108	inc    	ebx
  0x210a	dec    	eax
  0x210b	sub    	edi, 1
  === BLOCK LINK ===
    0x210e
=== CODE BLOCK END ===

=== CODE BLOCK ADDRESS 0x210e ===
  0x210e	jne    	0x20f5
  === BLOCK LINK ===
    0x2110
=== CODE BLOCK END ===

=== CODE BLOCK ADDRESS 0x2110 ===
  0x2110	dec    	eax
  0x2111	test   	edi, edi
  0x2113	dec    	eax
  0x2114	lea    	eax, [ebx - 1]
  0x2117	dec    	eax
  === BLOCK LINK ===
    0x2118
=== CODE BLOCK END ===

=== CODE BLOCK ADDRESS 0x2118 ===
  0x2118	cmovne  	eax, ebx
  0x211b	mov    	byte ptr [eax], 0
  0x211e	jmp    	0x2128
  === BLOCK LINK ===
    0x2120
=== CODE BLOCK END ===

=== CODE BLOCK ADDRESS 0x2120 ===
  0x2120	dec    	eax
  0x2121	test   	edi, edi
  0x2123	je     	0x2128
  === BLOCK LINK ===
    0x2125
=== CODE BLOCK END ===

=== CODE BLOCK ADDRESS 0x2125 ===
  0x2125	mov    	byte ptr [ebx], 0
  0x2128	mov    	al, 1
  0x212a	dec    	eax
  0x212b	mov    	ecx, dword ptr [esp + 0x140]
  0x2132	dec    	eax
  === BLOCK LINK ===
    0x2133
=== CODE BLOCK END ===

=== CODE BLOCK ADDRESS 0x2133 ===
  0x2133	xor    	ecx, esp
  0x2135	call   	0x5280
  === BLOCK LINK ===
    0x213a
=== CODE BLOCK END ===

=== CODE BLOCK ADDRESS 0x213a ===
  0x213a	dec    	eax
  0x213b	mov    	ebx, dword ptr [esp + 0x188]
  0x2142	dec    	eax
  0x2143	add    	esp, 0x150
  0x2149	pop    	edi
  === BLOCK LINK ===
    0x214a
=== CODE BLOCK END ===

=== CODE BLOCK ADDRESS 0x214a ===
  0x214a	pop    	esi
  0x214b	pop    	ebp
  0x214c	ret    	
  0x214d	int3   	
  0x214e	int3   	
  === BLOCK LINK ===
    0x214f
=== CODE BLOCK END ===

=== CODE BLOCK ADDRESS 0x1427 ===
  0x1427	dec    	eax
  0x1428	mov    	ecx, dword ptr [ebp - 0x49]
  0x142b	dec    	eax
  === BLOCK LINK ===
    0x142c
=== CODE BLOCK END ===

=== CODE BLOCK ADDRESS 0x214f ===
  0x214f	int3   	
  0x2150	int3   	
  0x2151	int3   	
  0x2152	int3   	
  0x2153	int3   	
  === BLOCK LINK ===
    0x2154
=== CODE BLOCK END ===

=== CODE BLOCK ADDRESS 0x2154 ===
  0x2154	int3   	
  0x2155	int3   	
  0x2156	int3   	
  0x2157	int3   	
  0x2158	int3   	
  === BLOCK LINK ===
    0x2159
=== CODE BLOCK END ===

=== CODE BLOCK ADDRESS 0x2159 ===
  0x2159	int3   	
  0x215a	int3   	
  0x215b	int3   	
  0x215c	int3   	
  0x215d	int3   	
  === BLOCK LINK ===
    0x215e
=== CODE BLOCK END ===

=== CODE BLOCK ADDRESS 0x215e ===
  0x215e	int3   	
  0x215f	int3   	
  0x2160	dec    	eax
  0x2161	sub    	esp, 0x28
  0x2164	mov    	cl, byte ptr [0x76f6]
  === BLOCK LINK ===
    0x216a
=== CODE BLOCK END ===

=== CODE BLOCK ADDRESS 0x216a ===
  0x216a	test   	cl, cl
  0x216c	jne    	0x2190
  === BLOCK LINK ===
    0x216e
=== CODE BLOCK END ===

=== CODE BLOCK ADDRESS 0x216e ===
  0x216e	inc    	ecx
  0x216f	mov    	ecx, 0x40
  0x2174	dec    	esp
  0x2175	lea    	eax, [0x76f5]
  0x217b	xor    	edx, edx
  === BLOCK LINK ===
    0x217d
=== CODE BLOCK END ===

=== CODE BLOCK ADDRESS 0x217d ===
  0x217d	dec    	eax
  0x217e	lea    	ecx, [0xfffffe7c]
  0x2184	call   	0x2014
  === BLOCK LINK ===
    0x2189
=== CODE BLOCK END ===

=== CODE BLOCK ADDRESS 0x2189 ===
  0x2189	mov    	byte ptr [0x76d0], 1
  0x2190	dec    	eax
  0x2191	lea    	eax, [0x76d9]
  0x2197	dec    	eax
  0x2198	add    	esp, 0x28
  === BLOCK LINK ===
    0x219b
=== CODE BLOCK END ===

=== CODE BLOCK ADDRESS 0x219b ===
  0x219b	ret    	
  0x219c	int3   	
  0x219d	int3   	
  0x219e	int3   	
  0x219f	int3   	
  === BLOCK LINK ===
    0x21a0
=== CODE BLOCK END ===

=== CODE BLOCK ADDRESS 0x2aa4 ===
=== CODE BLOCK END ===

=== CODE BLOCK ADDRESS 0x21a0 ===
  0x21a0	int3   	
  0x21a1	int3   	
  0x21a2	int3   	
  0x21a3	int3   	
  0x21a4	int3   	
  === BLOCK LINK ===
    0x21a5
=== CODE BLOCK END ===

=== CODE BLOCK ADDRESS 0x21a5 ===
  0x21a5	int3   	
  0x21a6	int3   	
  0x21a7	int3   	
  0x21a8	int3   	
  0x21a9	int3   	
  === BLOCK LINK ===
    0x21aa
=== CODE BLOCK END ===

=== CODE BLOCK ADDRESS 0x21aa ===
  0x21aa	int3   	
  0x21ab	int3   	
  0x21ac	int3   	
  0x21ad	int3   	
  0x21ae	int3   	
  === BLOCK LINK ===
    0x21af
=== CODE BLOCK END ===

=== CODE BLOCK ADDRESS 0x21af ===
  0x21af	int3   	
  0x21b0	dec    	eax
  0x21b1	jmp    	dword ptr [0x4029]
  === BLOCK LINK ===
    0x21b7
=== CODE BLOCK END ===

=== CODE BLOCK ADDRESS 0x21b7 ===
  0x21b7	int3   	
  0x21b8	int3   	
  0x21b9	int3   	
  0x21ba	int3   	
  0x21bb	int3   	
  === BLOCK LINK ===
    0x21bc
=== CODE BLOCK END ===

=== CODE BLOCK ADDRESS 0x21bc ===
  0x21bc	int3   	
  0x21bd	int3   	
  0x21be	int3   	
  0x21bf	int3   	
  0x21c0	int3   	
  === BLOCK LINK ===
    0x21c1
=== CODE BLOCK END ===

=== CODE BLOCK ADDRESS 0x21c1 ===
  0x21c1	int3   	
  0x21c2	int3   	
  0x21c3	int3   	
  0x21c4	int3   	
  0x21c5	int3   	
  === BLOCK LINK ===
    0x21c6
=== CODE BLOCK END ===

=== CODE BLOCK ADDRESS 0x21c6 ===
  0x21c6	int3   	
  0x21c7	int3   	
  0x21c8	int3   	
  0x21c9	int3   	
  0x21ca	int3   	
  === BLOCK LINK ===
    0x21cb
=== CODE BLOCK END ===

=== CODE BLOCK ADDRESS 0x21cb ===
  0x21cb	int3   	
  0x21cc	int3   	
  0x21cd	int3   	
  0x21ce	int3   	
  0x21cf	int3   	
  === BLOCK LINK ===
    0x21d0
=== CODE BLOCK END ===

=== CODE BLOCK ADDRESS 0x21d0 ===
  0x21d0	dec    	eax
  0x21d1	mov    	dword ptr [esp + 8], ebx
  0x21d5	dec    	eax
  0x21d6	mov    	dword ptr [esp + 0x10], esi
  0x21da	push   	edi
  === BLOCK LINK ===
    0x21db
=== CODE BLOCK END ===

=== CODE BLOCK ADDRESS 0x21db ===
  0x21db	dec    	eax
  0x21dc	sub    	esp, 0x20
  0x21df	dec    	eax
  0x21e0	mov    	esi, ecx
  0x21e2	inc    	ecx
  === BLOCK LINK ===
    0x21e3
=== CODE BLOCK END ===

=== CODE BLOCK ADDRESS 0x21e3 ===
  0x21e3	mov    	ebx, eax
  0x21e5	dec    	eax
  0x21e6	lea    	ecx, [0x46c4]
  0x21ec	dec    	eax
  0x21ed	mov    	edi, edx
  === BLOCK LINK ===
    0x21ef
=== CODE BLOCK END ===

=== CODE BLOCK ADDRESS 0x21ef ===
  0x21ef	dec    	eax
  0x21f0	call   	dword ptr [0x40aa]
  === BLOCK LINK ===
    0x21f6
=== CODE BLOCK END ===

=== CODE BLOCK ADDRESS 0x21f6 ===
  0x21f6	nop    	dword ptr [eax + eax]
  0x21fb	dec    	eax
  0x21fc	mov    	ecx, eax
  0x21fe	dec    	eax
  0x21ff	lea    	edx, [0x46cb]
  === BLOCK LINK ===
    0x2205
=== CODE BLOCK END ===

=== CODE BLOCK ADDRESS 0x2205 ===
  0x2205	dec    	eax
  0x2206	call   	dword ptr [0x4084]
  === BLOCK LINK ===
    0x220c
=== CODE BLOCK END ===

=== CODE BLOCK ADDRESS 0x220c ===
  0x220c	nop    	dword ptr [eax + eax]
  0x2211	dec    	eax
  0x2212	test   	eax, eax
  0x2214	je     	0x2225
  === BLOCK LINK ===
    0x2216
=== CODE BLOCK END ===

=== CODE BLOCK ADDRESS 0x2216 ===
  0x2216	inc    	esp
  0x2217	mov    	eax, ebx
  0x2219	dec    	eax
  0x221a	mov    	edx, edi
  0x221c	dec    	eax
  === BLOCK LINK ===
    0x221d
=== CODE BLOCK END ===

=== CODE BLOCK ADDRESS 0x221d ===
  0x221d	mov    	ecx, esi
  0x221f	call   	dword ptr [0x435b]
  === BLOCK LINK ===
    0x2225
=== CODE BLOCK END ===

=== CODE BLOCK ADDRESS 0x2225 ===
  0x2225	dec    	eax
  0x2226	mov    	ebx, dword ptr [esp + 0x30]
  0x222a	dec    	eax
  0x222b	mov    	esi, dword ptr [esp + 0x38]
  0x222f	dec    	eax
  === BLOCK LINK ===
    0x2230
=== CODE BLOCK END ===

=== CODE BLOCK ADDRESS 0x2230 ===
  0x2230	add    	esp, 0x20
  0x2233	pop    	edi
  0x2234	ret    	
  0x2235	int3   	
  0x2236	int3   	
  === BLOCK LINK ===
    0x2237
=== CODE BLOCK END ===

=== CODE BLOCK ADDRESS 0x2237 ===
  0x2237	int3   	
  0x2238	int3   	
  0x2239	int3   	
  0x223a	int3   	
  0x223b	int3   	
  === BLOCK LINK ===
    0x223c
=== CODE BLOCK END ===

=== CODE BLOCK ADDRESS 0x223c ===
  0x223c	dec    	esp
  0x223d	mov    	ebx, esp
  0x223f	dec    	ebp
  0x2240	mov    	dword ptr [ebx + 0x18], eax
  0x2243	dec    	ebp
  === BLOCK LINK ===
    0x2244
=== CODE BLOCK END ===

=== CODE BLOCK ADDRESS 0x2244 ===
  0x2244	mov    	dword ptr [ebx + 0x20], ecx
  0x2247	push   	ebx
  0x2248	push   	esi
  0x2249	push   	edi
  0x224a	dec    	eax
  === BLOCK LINK ===
    0x224b
=== CODE BLOCK END ===

=== CODE BLOCK ADDRESS 0x224b ===
  0x224b	sub    	esp, 0x30
  0x224e	xor    	edi, edi
  0x2250	dec    	eax
  0x2251	lea    	eax, [edx - 1]
  0x2254	dec    	eax
  === BLOCK LINK ===
    0x2255
=== CODE BLOCK END ===

=== CODE BLOCK ADDRESS 0x2255 ===
  0x2255	cmp    	eax, 0x7ffffffe
  0x225a	dec    	eax
  0x225b	mov    	esi, ecx
  0x225d	mov    	ecx, 0x80070057
  0x2262	cmova  	edi, ecx
  === BLOCK LINK ===
    0x2265
=== CODE BLOCK END ===

=== CODE BLOCK ADDRESS 0x2265 ===
  0x2265	test   	edi, edi
  0x2267	js     	0x22aa
  === BLOCK LINK ===
    0x2269
=== CODE BLOCK END ===

=== CODE BLOCK ADDRESS 0x2269 ===
  0x2269	dec    	eax
  0x226a	lea    	ebx, [edx - 1]
  0x226d	dec    	ebp
  0x226e	mov    	ecx, eax
  0x2270	dec    	ecx
  === BLOCK LINK ===
    0x2271
=== CODE BLOCK END ===

=== CODE BLOCK ADDRESS 0x2271 ===
  0x2271	lea    	eax, [ebx + 0x20]
  0x2274	dec    	esp
  0x2275	mov    	eax, ebx
  0x2277	dec    	eax
  0x2278	mov    	ecx, esi
  === BLOCK LINK ===
    0x227a
=== CODE BLOCK END ===

=== CODE BLOCK ADDRESS 0x227a ===
  0x227a	dec    	ecx
  0x227b	mov    	dword ptr [ebx - 0x28], eax
  0x227e	xor    	edi, edi
  0x2280	dec    	eax
  0x2281	call   	dword ptr [0x41d1]
  === BLOCK LINK ===
    0x2287
=== CODE BLOCK END ===

=== CODE BLOCK ADDRESS 0x2287 ===
  0x2287	nop    	dword ptr [eax + eax]
  0x228c	test   	eax, eax
  0x228e	js     	0x229f
  === BLOCK LINK ===
    0x2290
=== CODE BLOCK END ===

=== CODE BLOCK ADDRESS 0x2290 ===
  0x2290	dec    	eax
  0x2291	cwde   	
  0x2292	dec    	eax
  0x2293	cmp    	eax, ebx
  0x2295	ja     	0x229f
  === BLOCK LINK ===
    0x2297
=== CODE BLOCK END ===

=== CODE BLOCK ADDRESS 0x2297 ===
  0x2297	jne    	0x22b2
  === BLOCK LINK ===
    0x2299
=== CODE BLOCK END ===

=== CODE BLOCK ADDRESS 0x2299 ===
  0x2299	inc    	eax
  0x229a	mov    	byte ptr [ebx + esi], bh
  0x229d	jmp    	0x22b2
  === BLOCK LINK ===
    0x229f
=== CODE BLOCK END ===

=== CODE BLOCK ADDRESS 0x229f ===
  0x229f	inc    	eax
  0x22a0	mov    	byte ptr [ebx + esi], bh
  0x22a3	mov    	edi, 0x8007007a
  0x22a8	jmp    	0x22b2
  === BLOCK LINK ===
    0x22aa
=== CODE BLOCK END ===

=== CODE BLOCK ADDRESS 0x22aa ===
  0x22aa	dec    	eax
  0x22ab	test   	edx, edx
  0x22ad	je     	0x22b2
  === BLOCK LINK ===
    0x22af
=== CODE BLOCK END ===

=== CODE BLOCK ADDRESS 0x22af ===
  0x22af	mov    	byte ptr [esi], 0
  0x22b2	mov    	eax, edi
  0x22b4	dec    	eax
  0x22b5	add    	esp, 0x30
  0x22b8	pop    	edi
  === BLOCK LINK ===
    0x22b9
=== CODE BLOCK END ===

=== CODE BLOCK ADDRESS 0x22b9 ===
  0x22b9	pop    	esi
  0x22ba	pop    	ebx
  0x22bb	ret    	
  0x22bc	int3   	
  0x22bd	int3   	
  === BLOCK LINK ===
    0x22be
=== CODE BLOCK END ===

=== CODE BLOCK ADDRESS 0x22be ===
  0x22be	int3   	
  0x22bf	int3   	
  0x22c0	int3   	
  0x22c1	int3   	
  0x22c2	int3   	
  === BLOCK LINK ===
    0x22c3
=== CODE BLOCK END ===

=== CODE BLOCK ADDRESS 0x22c3 ===
  0x22c3	int3   	
  0x22c4	dec    	eax
  0x22c5	mov    	dword ptr [esp + 8], ebx
  0x22c9	dec    	eax
  0x22ca	mov    	dword ptr [esp + 0x10], ebp
  === BLOCK LINK ===
    0x22ce
=== CODE BLOCK END ===

=== CODE BLOCK ADDRESS 0x22ce ===
  0x22ce	dec    	eax
  0x22cf	mov    	dword ptr [esp + 0x18], esi
  0x22d3	push   	edi
  0x22d4	inc    	ecx
  0x22d5	push   	esp
  === BLOCK LINK ===
    0x22d6
=== CODE BLOCK END ===

=== CODE BLOCK ADDRESS 0x22d6 ===
  0x22d6	inc    	ecx
  0x22d7	push   	ebp
  0x22d8	inc    	ecx
  0x22d9	push   	esi
  0x22da	inc    	ecx
  === BLOCK LINK ===
    0x22db
=== CODE BLOCK END ===

=== CODE BLOCK ADDRESS 0x22db ===
  0x22db	push   	edi
  0x22dc	dec    	eax
  0x22dd	sub    	esp, 0x20
  0x22e0	movups  	xmm0, xmmword ptr [edx]
  0x22e3	dec    	esp
  === BLOCK LINK ===
    0x22e4
=== CODE BLOCK END ===

=== CODE BLOCK ADDRESS 0x22e4 ===
  0x22e4	mov    	ebp, ecx
  0x22e6	dec    	ecx
  0x22e7	or     	edi, 0xffffffff
  0x22ea	xor    	ebp, ebp
  0x22ec	dec    	eax
  === BLOCK LINK ===
    0x22ed
=== CODE BLOCK END ===

=== CODE BLOCK ADDRESS 0x22ed ===
  0x22ed	mov    	edi, edx
  0x22ef	movups  	xmmword ptr [ecx], xmm0
  0x22f2	movups  	xmm1, xmmword ptr [edx + 0x10]
  0x22f6	inc    	ebp
  0x22f7	lea    	esi, [edi + 3]
  === BLOCK LINK ===
    0x22fa
=== CODE BLOCK END ===

=== CODE BLOCK ADDRESS 0x22fa ===
  0x22fa	movups  	xmmword ptr [ecx + 0x10], xmm1
  0x22fe	movups  	xmm0, xmmword ptr [edx + 0x20]
  0x2302	movups  	xmmword ptr [ecx + 0x20], xmm0
  0x2306	movups  	xmm1, xmmword ptr [edx + 0x30]
  0x230a	movups  	xmmword ptr [ecx + 0x30], xmm1
  === BLOCK LINK ===
    0x230e
=== CODE BLOCK END ===

=== CODE BLOCK ADDRESS 0x230e ===
  0x230e	movups  	xmm0, xmmword ptr [edx + 0x40]
  0x2312	movups  	xmmword ptr [ecx + 0x40], xmm0
  0x2316	movups  	xmm1, xmmword ptr [edx + 0x50]
  0x231a	movups  	xmmword ptr [ecx + 0x50], xmm1
  0x231e	movups  	xmm0, xmmword ptr [edx + 0x60]
  === BLOCK LINK ===
    0x2322
=== CODE BLOCK END ===

=== CODE BLOCK ADDRESS 0x2322 ===
  0x2322	movups  	xmmword ptr [ecx + 0x60], xmm0
  0x2326	mov    	ecx, 0x80
  0x232b	movups  	xmm0, xmmword ptr [edx + 0x70]
  0x232f	inc    	ecx
  0x2330	movups  	xmmword ptr [ebp + ecx - 0x10], xmm0
  === BLOCK LINK ===
    0x2335
=== CODE BLOCK END ===

=== CODE BLOCK ADDRESS 0x2335 ===
  0x2335	movups  	xmm1, xmmword ptr [edx + ecx]
  0x2339	inc    	ecx
  0x233a	movups  	xmmword ptr [ebp + ecx], xmm1
  0x233f	dec    	eax
  0x2340	mov    	ecx, dword ptr [edx + 0x10]
  === BLOCK LINK ===
    0x2343
=== CODE BLOCK END ===

=== CODE BLOCK ADDRESS 0x2343 ===
  0x2343	dec    	eax
  0x2344	test   	ecx, ecx
  0x2346	jne    	0x234d
  === BLOCK LINK ===
    0x2348
=== CODE BLOCK END ===

=== CODE BLOCK ADDRESS 0x2348 ===
  0x2348	inc    	ebp
  0x2349	mov    	esp, esi
  0x234b	jmp    	0x2361
  === BLOCK LINK ===
    0x234d
=== CODE BLOCK END ===

=== CODE BLOCK ADDRESS 0x234d ===
  0x234d	dec    	ecx
  0x234e	mov    	eax, edi
  0x2350	dec    	eax
  0x2351	inc    	eax
  0x2353	cmp    	word ptr [ecx + eax*2], bp
  === BLOCK LINK ===
    0x2357
=== CODE BLOCK END ===

=== CODE BLOCK ADDRESS 0x2357 ===
  0x2357	jne    	0x2350
  === BLOCK LINK ===
    0x2359
=== CODE BLOCK END ===

=== CODE BLOCK ADDRESS 0x2359 ===
  0x2359	dec    	esp
  0x235a	lea    	esp, [eax*2 + 2]
  0x2361	dec    	eax
  0x2362	mov    	eax, dword ptr [edx + 0x20]
  0x2365	dec    	eax
  === BLOCK LINK ===
    0x2366
=== CODE BLOCK END ===

=== CODE BLOCK ADDRESS 0x2366 ===
  0x2366	test   	eax, eax
  0x2368	jne    	0x2373
  === BLOCK LINK ===
    0x236a
=== CODE BLOCK END ===

=== CODE BLOCK ADDRESS 0x236a ===
  0x236a	mov    	eax, 1
  0x236f	mov    	edx, eax
  0x2371	jmp    	0x2387
  === BLOCK LINK ===
    0x2373
=== CODE BLOCK END ===

=== CODE BLOCK ADDRESS 0x2373 ===
  0x2373	dec    	ecx
  0x2374	mov    	edx, edi
  0x2376	dec    	eax
  0x2377	inc    	edx
  0x2379	inc    	eax
  === BLOCK LINK ===
    0x237a
=== CODE BLOCK END ===

=== CODE BLOCK ADDRESS 0x237a ===
  0x237a	cmp    	byte ptr [eax + edx], ch
  0x237d	jne    	0x2376
  === BLOCK LINK ===
    0x237f
=== CODE BLOCK END ===

=== CODE BLOCK ADDRESS 0x237f ===
  0x237f	mov    	eax, 1
  0x2384	dec    	eax
  0x2385	add    	edx, eax
  0x2387	dec    	eax
  0x2388	mov    	ecx, dword ptr [edi + 0x28]
  === BLOCK LINK ===
    0x238b
=== CODE BLOCK END ===

=== CODE BLOCK ADDRESS 0x238b ===
  0x238b	dec    	eax
  0x238c	test   	ecx, ecx
  0x238e	jne    	0x2395
  === BLOCK LINK ===
    0x2390
=== CODE BLOCK END ===

=== CODE BLOCK ADDRESS 0x2390 ===
  0x2390	dec    	esp
  0x2391	mov    	edx, eax
  0x2393	jmp    	0x23a4
  === BLOCK LINK ===
    0x2395
=== CODE BLOCK END ===

=== CODE BLOCK ADDRESS 0x2395 ===
  0x2395	dec    	ebp
  0x2396	mov    	edx, edi
  0x2398	dec    	ecx
  0x2399	inc    	edx
  0x239b	inc    	edx
  === BLOCK LINK ===
    0x239c
=== CODE BLOCK END ===

=== CODE BLOCK ADDRESS 0x239c ===
  0x239c	cmp    	byte ptr [ecx + edx], ch
  0x239f	jne    	0x2398
  === BLOCK LINK ===
    0x23a1
=== CODE BLOCK END ===

=== CODE BLOCK ADDRESS 0x23a1 ===
  0x23a1	dec    	esp
  0x23a2	add    	edx, eax
  0x23a4	dec    	eax
  0x23a5	mov    	ecx, dword ptr [edi + 0x30]
  0x23a8	dec    	eax
  === BLOCK LINK ===
    0x23a9
=== CODE BLOCK END ===

=== CODE BLOCK ADDRESS 0x23a9 ===
  0x23a9	test   	ecx, ecx
  0x23ab	jne    	0x23b2
  === BLOCK LINK ===
    0x23ad
=== CODE BLOCK END ===

=== CODE BLOCK ADDRESS 0x23ad ===
  0x23ad	dec    	eax
  0x23ae	mov    	esi, eax
  0x23b0	jmp    	0x23c1
  === BLOCK LINK ===
    0x23b2
=== CODE BLOCK END ===

=== CODE BLOCK ADDRESS 0x23b2 ===
  0x23b2	dec    	ecx
  0x23b3	mov    	esi, edi
  0x23b5	dec    	eax
  0x23b6	inc    	esi
  0x23b8	inc    	eax
  === BLOCK LINK ===
    0x23b9
=== CODE BLOCK END ===

=== CODE BLOCK ADDRESS 0x23b9 ===
  0x23b9	cmp    	byte ptr [ecx + esi], ch
  0x23bc	jne    	0x23b5
  === BLOCK LINK ===
    0x23be
=== CODE BLOCK END ===

=== CODE BLOCK ADDRESS 0x23be ===
  0x23be	dec    	eax
  0x23bf	add    	esi, eax
  0x23c1	dec    	eax
  0x23c2	mov    	ecx, dword ptr [edi + 0x40]
  0x23c5	dec    	eax
  === BLOCK LINK ===
    0x23c6
=== CODE BLOCK END ===

=== CODE BLOCK ADDRESS 0x23c6 ===
  0x23c6	test   	ecx, ecx
  0x23c8	jne    	0x23cf
  === BLOCK LINK ===
    0x23ca
=== CODE BLOCK END ===

=== CODE BLOCK ADDRESS 0x23ca ===
  0x23ca	dec    	esp
  0x23cb	mov    	ebx, eax
  0x23cd	jmp    	0x23de
  === BLOCK LINK ===
    0x23cf
=== CODE BLOCK END ===

=== CODE BLOCK ADDRESS 0x23cf ===
  0x23cf	dec    	ebp
  0x23d0	mov    	ebx, edi
  0x23d2	dec    	ecx
  0x23d3	inc    	ebx
  0x23d5	inc    	edx
  === BLOCK LINK ===
    0x23d6
=== CODE BLOCK END ===

=== CODE BLOCK ADDRESS 0x23d6 ===
  0x23d6	cmp    	byte ptr [ecx + ebx], ch
  0x23d9	jne    	0x23d2
  === BLOCK LINK ===
    0x23db
=== CODE BLOCK END ===

=== CODE BLOCK ADDRESS 0x23db ===
  0x23db	dec    	esp
  0x23dc	add    	ebx, eax
  0x23de	dec    	eax
  0x23df	mov    	ecx, dword ptr [edi + 0x78]
  0x23e2	dec    	eax
  === BLOCK LINK ===
    0x23e3
=== CODE BLOCK END ===

=== CODE BLOCK ADDRESS 0x23e3 ===
  0x23e3	test   	ecx, ecx
  0x23e5	jne    	0x23ec
  === BLOCK LINK ===
    0x23e7
=== CODE BLOCK END ===

=== CODE BLOCK ADDRESS 0x23e7 ===
  0x23e7	dec    	esp
  0x23e8	mov    	ecx, eax
  0x23ea	jmp    	0x23fb
  === BLOCK LINK ===
    0x23ec
=== CODE BLOCK END ===

=== CODE BLOCK ADDRESS 0x23ec ===
  0x23ec	dec    	ebp
  0x23ed	mov    	ecx, edi
  0x23ef	dec    	ecx
  0x23f0	inc    	ecx
  0x23f2	inc    	edx
  === BLOCK LINK ===
    0x23f3
=== CODE BLOCK END ===

=== CODE BLOCK ADDRESS 0x23f3 ===
  0x23f3	cmp    	byte ptr [ecx + ecx], ch
  0x23f6	jne    	0x23ef
  === BLOCK LINK ===
    0x23f8
=== CODE BLOCK END ===

=== CODE BLOCK ADDRESS 0x23f8 ===
  0x23f8	dec    	esp
  0x23f9	add    	ecx, eax
  0x23fb	dec    	eax
  0x23fc	mov    	ecx, dword ptr [edi + 0x68]
  0x23ff	dec    	eax
  === BLOCK LINK ===
    0x2400
=== CODE BLOCK END ===

=== CODE BLOCK ADDRESS 0x2400 ===
  0x2400	test   	ecx, ecx
  0x2402	jne    	0x2409
  === BLOCK LINK ===
    0x2404
=== CODE BLOCK END ===

=== CODE BLOCK ADDRESS 0x2404 ===
  0x2404	dec    	esp
  0x2405	mov    	eax, eax
  0x2407	jmp    	0x2418
  === BLOCK LINK ===
    0x2409
=== CODE BLOCK END ===

=== CODE BLOCK ADDRESS 0x2409 ===
  0x2409	dec    	ebp
  0x240a	mov    	eax, edi
  0x240c	dec    	ecx
  0x240d	inc    	eax
  0x240f	inc    	edx
  === BLOCK LINK ===
    0x2410
=== CODE BLOCK END ===

=== CODE BLOCK ADDRESS 0x2410 ===
  0x2410	cmp    	byte ptr [ecx + eax], ch
  0x2413	jne    	0x240c
  === BLOCK LINK ===
    0x2415
=== CODE BLOCK END ===

=== CODE BLOCK ADDRESS 0x2415 ===
  0x2415	dec    	esp
  0x2416	add    	eax, eax
  0x2418	dec    	eax
  0x2419	mov    	ebx, dword ptr [edi + 0x70]
  0x241c	dec    	eax
  === BLOCK LINK ===
    0x241d
=== CODE BLOCK END ===

=== CODE BLOCK ADDRESS 0x241d ===
  0x241d	test   	ebx, ebx
  0x241f	jne    	0x2426
  === BLOCK LINK ===
    0x2421
=== CODE BLOCK END ===

=== CODE BLOCK ADDRESS 0x2421 ===
  0x2421	dec    	ebp
  0x2422	mov    	edi, esi
  0x2424	jmp    	0x243a
  === BLOCK LINK ===
    0x2426
=== CODE BLOCK END ===

=== CODE BLOCK ADDRESS 0x2426 ===
  0x2426	dec    	ecx
  0x2427	mov    	ecx, edi
  0x2429	dec    	eax
  0x242a	inc    	ecx
  0x242c	cmp    	word ptr [ebx + ecx*2], bp
  === BLOCK LINK ===
    0x2430
=== CODE BLOCK END ===

=== CODE BLOCK ADDRESS 0x2430 ===
  0x2430	jne    	0x2429
  === BLOCK LINK ===
    0x2432
=== CODE BLOCK END ===

=== CODE BLOCK ADDRESS 0x2432 ===
  0x2432	dec    	esp
  0x2433	lea    	edi, [ecx*2 + 2]
  0x243a	dec    	eax
  0x243b	mov    	ebx, dword ptr [edi + 0x50]
  0x243e	dec    	eax
  === BLOCK LINK ===
    0x243f
=== CODE BLOCK END ===

=== CODE BLOCK ADDRESS 0x243f ===
  0x243f	test   	ebx, ebx
  0x2441	jne    	0x2448
  === BLOCK LINK ===
    0x2443
=== CODE BLOCK END ===

=== CODE BLOCK ADDRESS 0x2443 ===
  0x2443	dec    	eax
  0x2444	mov    	ecx, eax
  0x2446	jmp    	0x2458
  === BLOCK LINK ===
    0x2448
=== CODE BLOCK END ===

=== CODE BLOCK ADDRESS 0x2448 ===
  0x2448	dec    	eax
  0x2449	or     	ecx, 0xffffffff
  0x244c	dec    	eax
  0x244d	inc    	ecx
  0x244f	inc    	eax
  === BLOCK LINK ===
    0x2450
=== CODE BLOCK END ===

=== CODE BLOCK ADDRESS 0x2450 ===
  0x2450	cmp    	byte ptr [ebx + ecx], ch
  0x2453	jne    	0x244c
  === BLOCK LINK ===
    0x2455
=== CODE BLOCK END ===

=== CODE BLOCK ADDRESS 0x2455 ===
  0x2455	dec    	eax
  0x2456	add    	ecx, eax
  0x2458	dec    	eax
  0x2459	mov    	ebp, dword ptr [edi + 0x58]
  0x245c	dec    	eax
  === BLOCK LINK ===
    0x245d
=== CODE BLOCK END ===

=== CODE BLOCK ADDRESS 0x245d ===
  0x245d	test   	ebp, ebp
  0x245f	je     	0x247b
  === BLOCK LINK ===
    0x2461
=== CODE BLOCK END ===

=== CODE BLOCK ADDRESS 0x2461 ===
  0x2461	dec    	eax
  0x2462	or     	ebx, 0xffffffff
  0x2465	inc    	ebp
  0x2466	xor    	esi, esi
  0x2468	dec    	eax
  === BLOCK LINK ===
    0x2469
=== CODE BLOCK END ===

=== CODE BLOCK ADDRESS 0x2469 ===
  0x2469	inc    	ebx
  0x246b	inc    	sp
  0x246d	cmp    	dword ptr [ebp + ebx*2], esi
  0x2471	jne    	0x2468
  === BLOCK LINK ===
    0x2473
=== CODE BLOCK END ===

=== CODE BLOCK ADDRESS 0x2473 ===
  0x2473	dec    	esp
  0x2474	lea    	esi, [ebx*2 + 2]
  0x247b	dec    	ecx
  0x247c	lea    	ebx, [esi + ecx]
  0x247f	xor    	ebp, ebp
  === BLOCK LINK ===
    0x2481
=== CODE BLOCK END ===

=== CODE BLOCK ADDRESS 0x2481 ===
  0x2481	dec    	ecx
  0x2482	add    	ebx, edi
  0x2484	dec    	ecx
  0x2485	add    	ebx, eax
  0x2487	dec    	ecx
  === BLOCK LINK ===
    0x2488
=== CODE BLOCK END ===

=== CODE BLOCK ADDRESS 0x2488 ===
  0x2488	add    	ebx, ecx
  0x248a	dec    	ecx
  0x248b	add    	ebx, ebx
  0x248d	dec    	eax
  0x248e	add    	ebx, esi
  === BLOCK LINK ===
    0x2490
=== CODE BLOCK END ===

=== CODE BLOCK ADDRESS 0x2490 ===
  0x2490	dec    	ecx
  0x2491	lea    	esi, [ebp + 0x90]
  0x2497	dec    	eax
  0x2498	mov    	ecx, dword ptr [esi]
  0x249a	dec    	ecx
  === BLOCK LINK ===
    0x249b
=== CODE BLOCK END ===

=== CODE BLOCK ADDRESS 0x249b ===
  0x249b	add    	ebx, edx
  0x249d	dec    	eax
  0x249e	add    	ebx, edx
  0x24a0	dec    	ecx
  0x24a1	add    	ebx, esp
  === BLOCK LINK ===
    0x24a3
=== CODE BLOCK END ===

=== CODE BLOCK ADDRESS 0x24a3 ===
  0x24a3	dec    	eax
  0x24a4	test   	ecx, ecx
  0x24a6	je     	0x24ed
  === BLOCK LINK ===
    0x24a8
=== CODE BLOCK END ===

=== CODE BLOCK ADDRESS 0x24a8 ===
  0x24a8	cmp    	dword ptr [ecx], eax
  0x24aa	jne    	0x24b5
  === BLOCK LINK ===
    0x24ac
=== CODE BLOCK END ===

=== CODE BLOCK ADDRESS 0x24ac ===
  0x24ac	dec    	ecx
  0x24ad	cmp    	dword ptr [ebp + 0x98], ebx
  0x24b3	jae    	0x24fa
  === BLOCK LINK ===
    0x24b5
=== CODE BLOCK END ===

=== CODE BLOCK ADDRESS 0x24b5 ===
  0x24b5	dec    	eax
  0x24b6	test   	ecx, ecx
  0x24b8	je     	0x24ed
  === BLOCK LINK ===
    0x24ba
=== CODE BLOCK END ===

=== CODE BLOCK ADDRESS 0x24ba ===
  0x24ba	or     	eax, 0xffffffff
  0x24bd	lock xadd  	dword ptr [ecx], eax
  0x24c1	cmp    	eax, 1
  0x24c4	jne    	0x24e6
  === BLOCK LINK ===
    0x24c6
=== CODE BLOCK END ===

=== CODE BLOCK ADDRESS 0x24c6 ===
  0x24c6	dec    	eax
  0x24c7	call   	dword ptr [0x3d93]
  === BLOCK LINK ===
    0x24cd
=== CODE BLOCK END ===

=== CODE BLOCK ADDRESS 0x24cd ===
  0x24cd	nop    	dword ptr [eax + eax]
  0x24d2	dec    	esp
  0x24d3	mov    	eax, dword ptr [esi]
  0x24d5	xor    	edx, edx
  0x24d7	dec    	eax
  === BLOCK LINK ===
    0x24d8
=== CODE BLOCK END ===

=== CODE BLOCK ADDRESS 0x24d8 ===
  0x24d8	mov    	ecx, eax
  0x24da	dec    	eax
  0x24db	call   	dword ptr [0x3d77]
  === BLOCK LINK ===
    0x24e1
=== CODE BLOCK END ===

=== CODE BLOCK ADDRESS 0x24e1 ===
  0x24e1	nop    	dword ptr [eax + eax]
  0x24e6	dec    	eax
  0x24e7	mov    	dword ptr [esi], ebp
  0x24e9	dec    	eax
  0x24ea	mov    	dword ptr [esi + 8], ebp
  === BLOCK LINK ===
    0x24ed
=== CODE BLOCK END ===

=== CODE BLOCK ADDRESS 0x24ed ===
  0x24ed	dec    	esp
  0x24ee	mov    	eax, ebx
  0x24f0	xor    	edx, edx
  0x24f2	dec    	eax
  0x24f3	mov    	ecx, esi
  === BLOCK LINK ===
    0x24f5
=== CODE BLOCK END ===

=== CODE BLOCK ADDRESS 0x24f5 ===
  0x24f5	call   	0x1eec
  === BLOCK LINK ===
    0x24fa
=== CODE BLOCK END ===

=== CODE BLOCK ADDRESS 0x24fa ===
  0x24fa	dec    	eax
  0x24fb	mov    	eax, dword ptr [esi]
  0x24fd	dec    	eax
  0x24fe	mov    	edx, dword ptr [esi + 8]
  0x2501	dec    	eax
  === BLOCK LINK ===
    0x2502
=== CODE BLOCK END ===

=== CODE BLOCK ADDRESS 0x2502 ===
  0x2502	lea    	ecx, [eax + 4]
  0x2505	dec    	eax
  0x2506	neg    	eax
  0x2508	dec    	ebp
  0x2509	sbb    	edx, edx
  === BLOCK LINK ===
    0x250b
=== CODE BLOCK END ===

=== CODE BLOCK ADDRESS 0x250b ===
  0x250b	dec    	esp
  0x250c	and    	edx, ecx
  0x250e	dec    	ecx
  0x250f	add    	edx, edx
  0x2511	dec    	ecx
  === BLOCK LINK ===
    0x2512
=== CODE BLOCK END ===

=== CODE BLOCK ADDRESS 0x2512 ===
  0x2512	mov    	eax, edx
  0x2514	dec    	eax
  0x2515	neg    	eax
  0x2517	dec    	eax
  0x2518	sbb    	ebx, ebx
  === BLOCK LINK ===
    0x251a
=== CODE BLOCK END ===

=== CODE BLOCK ADDRESS 0x251a ===
  0x251a	dec    	eax
  0x251b	and    	ebx, edx
  0x251d	dec    	ebp
  0x251e	test   	edx, edx
  0x2520	je     	0x25f4
  === BLOCK LINK ===
    0x2526
=== CODE BLOCK END ===

=== CODE BLOCK ADDRESS 0x2526 ===
  0x2526	dec    	esp
  0x2527	mov    	eax, dword ptr [edi + 0x10]
  0x252a	dec    	ebp
  0x252b	lea    	ecx, [ebp + 0x10]
  0x252e	dec    	eax
  === BLOCK LINK ===
    0x252f
=== CODE BLOCK END ===

=== CODE BLOCK ADDRESS 0x252f ===
  0x252f	mov    	edx, ebx
  0x2531	dec    	ecx
  0x2532	mov    	ecx, edx
  0x2534	call   	0x2db8
  === BLOCK LINK ===
    0x2539
=== CODE BLOCK END ===

=== CODE BLOCK ADDRESS 0x2539 ===
  0x2539	dec    	esp
  0x253a	mov    	eax, dword ptr [edi + 0x20]
  0x253d	dec    	ebp
  0x253e	lea    	ecx, [ebp + 0x20]
  0x2541	dec    	eax
  === BLOCK LINK ===
    0x2542
=== CODE BLOCK END ===

=== CODE BLOCK ADDRESS 0x2542 ===
  0x2542	mov    	edx, ebx
  0x2544	dec    	eax
  0x2545	mov    	ecx, eax
  0x2547	call   	0x2e48
  === BLOCK LINK ===
    0x254c
=== CODE BLOCK END ===

=== CODE BLOCK ADDRESS 0x254c ===
  0x254c	dec    	esp
  0x254d	mov    	eax, dword ptr [edi + 0x28]
  0x2550	dec    	ebp
  0x2551	lea    	ecx, [ebp + 0x28]
  0x2554	dec    	eax
  === BLOCK LINK ===
    0x2555
=== CODE BLOCK END ===

=== CODE BLOCK ADDRESS 0x2555 ===
  0x2555	mov    	edx, ebx
  0x2557	dec    	eax
  0x2558	mov    	ecx, eax
  0x255a	call   	0x2e48
  === BLOCK LINK ===
    0x255f
=== CODE BLOCK END ===

=== CODE BLOCK ADDRESS 0x255f ===
  0x255f	dec    	esp
  0x2560	mov    	eax, dword ptr [edi + 0x30]
  0x2563	dec    	ebp
  0x2564	lea    	ecx, [ebp + 0x30]
  0x2567	dec    	eax
  === BLOCK LINK ===
    0x2568
=== CODE BLOCK END ===

=== CODE BLOCK ADDRESS 0x2568 ===
  0x2568	mov    	edx, ebx
  0x256a	dec    	eax
  0x256b	mov    	ecx, eax
  0x256d	call   	0x2e48
  === BLOCK LINK ===
    0x2572
=== CODE BLOCK END ===

=== CODE BLOCK ADDRESS 0x2572 ===
  0x2572	dec    	esp
  0x2573	mov    	eax, dword ptr [edi + 0x40]
  0x2576	dec    	ebp
  0x2577	lea    	ecx, [ebp + 0x40]
  0x257a	dec    	eax
  === BLOCK LINK ===
    0x257b
=== CODE BLOCK END ===

=== CODE BLOCK ADDRESS 0x257b ===
  0x257b	mov    	edx, ebx
  0x257d	dec    	eax
  0x257e	mov    	ecx, eax
  0x2580	call   	0x2e48
  === BLOCK LINK ===
    0x2585
=== CODE BLOCK END ===

=== CODE BLOCK ADDRESS 0x2585 ===
  0x2585	dec    	esp
  0x2586	mov    	eax, dword ptr [edi + 0x78]
  0x2589	dec    	ebp
  0x258a	lea    	ecx, [ebp + 0x78]
  0x258d	dec    	eax
  === BLOCK LINK ===
    0x258e
=== CODE BLOCK END ===

=== CODE BLOCK ADDRESS 0x258e ===
  0x258e	mov    	edx, ebx
  0x2590	dec    	eax
  0x2591	mov    	ecx, eax
  0x2593	call   	0x2e48
  === BLOCK LINK ===
    0x2598
=== CODE BLOCK END ===

=== CODE BLOCK ADDRESS 0x2598 ===
  0x2598	dec    	esp
  0x2599	mov    	eax, dword ptr [edi + 0x68]
  0x259c	dec    	ebp
  0x259d	lea    	ecx, [ebp + 0x68]
  0x25a0	dec    	eax
  === BLOCK LINK ===
    0x25a1
=== CODE BLOCK END ===

=== CODE BLOCK ADDRESS 0x25a1 ===
  0x25a1	mov    	edx, ebx
  0x25a3	dec    	eax
  0x25a4	mov    	ecx, eax
  0x25a6	call   	0x2e48
  === BLOCK LINK ===
    0x25ab
=== CODE BLOCK END ===

=== CODE BLOCK ADDRESS 0x25ab ===
  0x25ab	dec    	esp
  0x25ac	mov    	eax, dword ptr [edi + 0x70]
  0x25af	dec    	ebp
  0x25b0	lea    	ecx, [ebp + 0x70]
  0x25b3	dec    	eax
  === BLOCK LINK ===
    0x25b4
=== CODE BLOCK END ===

=== CODE BLOCK ADDRESS 0x25b4 ===
  0x25b4	mov    	edx, ebx
  0x25b6	dec    	eax
  0x25b7	mov    	ecx, eax
  0x25b9	call   	0x2db8
  === BLOCK LINK ===
    0x25be
=== CODE BLOCK END ===

=== CODE BLOCK ADDRESS 0x25be ===
  0x25be	dec    	esp
  0x25bf	mov    	eax, dword ptr [edi + 0x50]
  0x25c2	dec    	ebp
  0x25c3	lea    	ecx, [ebp + 0x50]
  0x25c6	dec    	eax
  === BLOCK LINK ===
    0x25c7
=== CODE BLOCK END ===

=== CODE BLOCK ADDRESS 0x25c7 ===
  0x25c7	mov    	edx, ebx
  0x25c9	dec    	eax
  0x25ca	mov    	ecx, eax
  0x25cc	call   	0x2e48
  === BLOCK LINK ===
    0x25d1
=== CODE BLOCK END ===

=== CODE BLOCK ADDRESS 0x25d1 ===
  0x25d1	dec    	esp
  0x25d2	mov    	eax, dword ptr [edi + 0x58]
  0x25d5	dec    	ebp
  0x25d6	lea    	ecx, [ebp + 0x58]
  0x25d9	dec    	eax
  === BLOCK LINK ===
    0x25da
=== CODE BLOCK END ===

=== CODE BLOCK ADDRESS 0x25da ===
  0x25da	mov    	edx, ebx
  0x25dc	dec    	eax
  0x25dd	mov    	ecx, eax
  0x25df	call   	0x2db8
  === BLOCK LINK ===
    0x25e4
=== CODE BLOCK END ===

=== CODE BLOCK ADDRESS 0x25e4 ===
  0x25e4	dec    	eax
  0x25e5	sub    	ebx, eax
  0x25e7	xor    	edx, edx
  0x25e9	dec    	esp
  0x25ea	mov    	eax, ebx
  === BLOCK LINK ===
    0x25ec
=== CODE BLOCK END ===

=== CODE BLOCK ADDRESS 0x25ec ===
  0x25ec	dec    	eax
  0x25ed	mov    	ecx, eax
  0x25ef	call   	0x5b36
  === BLOCK LINK ===
    0x25f4
=== CODE BLOCK END ===

=== CODE BLOCK ADDRESS 0x25f4 ===
  0x25f4	dec    	eax
  0x25f5	mov    	ebx, dword ptr [esp + 0x50]
  0x25f9	dec    	eax
  0x25fa	mov    	ebp, dword ptr [esp + 0x58]
  0x25fe	dec    	eax
  === BLOCK LINK ===
    0x25ff
=== CODE BLOCK END ===

=== CODE BLOCK ADDRESS 0x25ff ===
  0x25ff	mov    	esi, dword ptr [esp + 0x60]
  0x2603	dec    	eax
  0x2604	add    	esp, 0x20
  0x2607	inc    	ecx
  0x2608	pop    	edi
  === BLOCK LINK ===
    0x2609
=== CODE BLOCK END ===

=== CODE BLOCK ADDRESS 0x2609 ===
  0x2609	inc    	ecx
  0x260a	pop    	esi
  0x260b	inc    	ecx
  0x260c	pop    	ebp
  0x260d	inc    	ecx
  === BLOCK LINK ===
    0x260e
=== CODE BLOCK END ===

=== CODE BLOCK ADDRESS 0x260e ===
  0x260e	pop    	esp
  0x260f	pop    	edi
  0x2610	ret    	
  0x2611	int3   	
  0x2612	int3   	
  === BLOCK LINK ===
    0x2613
=== CODE BLOCK END ===

=== CODE BLOCK ADDRESS 0x2b64 ===
=== CODE BLOCK END ===

=== CODE BLOCK ADDRESS 0x2613 ===
  0x2613	int3   	
  0x2614	int3   	
  0x2615	int3   	
  0x2616	int3   	
  0x2617	int3   	
  === BLOCK LINK ===
    0x2618
=== CODE BLOCK END ===

=== CODE BLOCK ADDRESS 0x2618 ===
  0x2618	dec    	eax
  0x2619	mov    	dword ptr [esp + 8], ebx
  0x261d	push   	edi
  0x261e	dec    	eax
  0x261f	sub    	esp, 0x20
  === BLOCK LINK ===
    0x2622
=== CODE BLOCK END ===

=== CODE BLOCK ADDRESS 0x2622 ===
  0x2622	dec    	eax
  0x2623	mov    	ebx, edx
  0x2625	dec    	eax
  0x2626	mov    	edi, ecx
  0x2628	dec    	eax
  === BLOCK LINK ===
    0x2629
=== CODE BLOCK END ===

=== CODE BLOCK ADDRESS 0x2629 ===
  0x2629	call   	dword ptr [0x3e39]
  === BLOCK LINK ===
    0x262f
=== CODE BLOCK END ===

=== CODE BLOCK ADDRESS 0x262f ===
  0x262f	nop    	dword ptr [eax + eax]
  0x2634	dec    	eax
  0x2635	lea    	ecx, [edi + 0x18]
  0x2638	dec    	eax
  0x2639	mov    	edx, ebx
  === BLOCK LINK ===
    0x263b
=== CODE BLOCK END ===

=== CODE BLOCK ADDRESS 0x263b ===
  0x263b	dec    	eax
  0x263c	lea    	eax, [0x39d6]
  0x2642	dec    	eax
  0x2643	mov    	dword ptr [edi], eax
  0x2645	dec    	eax
  === BLOCK LINK ===
    0x2646
=== CODE BLOCK END ===

=== CODE BLOCK ADDRESS 0x2646 ===
  0x2646	and    	dword ptr [ecx + 0x90], 0
  0x264d	dec    	eax
  0x264e	and    	dword ptr [ecx + 0x98], 0
  0x2655	call   	0x22c4
  === BLOCK LINK ===
    0x265a
=== CODE BLOCK END ===

=== CODE BLOCK ADDRESS 0x265a ===
  0x265a	dec    	eax
  0x265b	and    	dword ptr [edi + 0xb8], 0
  0x2662	dec    	eax
  0x2663	mov    	eax, edi
  0x2665	dec    	eax
  === BLOCK LINK ===
    0x2666
=== CODE BLOCK END ===

=== CODE BLOCK ADDRESS 0x2666 ===
  0x2666	and    	dword ptr [edi + 0xc0], 0
  0x266d	dec    	eax
  0x266e	mov    	ebx, dword ptr [esp + 0x30]
  0x2672	dec    	eax
  0x2673	add    	esp, 0x20
  === BLOCK LINK ===
    0x2676
=== CODE BLOCK END ===

=== CODE BLOCK ADDRESS 0x2676 ===
  0x2676	pop    	edi
  0x2677	ret    	
  0x2678	int3   	
  0x2679	int3   	
  0x267a	int3   	
  === BLOCK LINK ===
    0x267b
=== CODE BLOCK END ===

=== CODE BLOCK ADDRESS 0x267b ===
  0x267b	int3   	
  0x267c	int3   	
  0x267d	int3   	
  0x267e	int3   	
  0x267f	int3   	
  === BLOCK LINK ===
    0x2680
=== CODE BLOCK END ===

=== CODE BLOCK ADDRESS 0x2680 ===
  0x2680	inc    	eax
  0x2681	push   	ebx
  0x2682	mov    	eax, 0x1430
  0x2687	call   	0x5b70
  === BLOCK LINK ===
    0x268c
=== CODE BLOCK END ===

=== CODE BLOCK ADDRESS 0x268c ===
  0x268c	dec    	eax
  0x268d	sub    	esp, eax
  0x268f	dec    	eax
  0x2690	mov    	eax, dword ptr [0x6b12]
  0x2696	dec    	eax
  === BLOCK LINK ===
    0x2697
=== CODE BLOCK END ===

=== CODE BLOCK ADDRESS 0x2697 ===
  0x2697	xor    	eax, esp
  0x2699	dec    	eax
  0x269a	mov    	dword ptr [esp + 0x1420], eax
  0x26a1	dec    	eax
  0x26a2	lea    	ebx, [ecx + 0xb8]
  === BLOCK LINK ===
    0x26a8
=== CODE BLOCK END ===

=== CODE BLOCK ADDRESS 0x26a8 ===
  0x26a8	dec    	eax
  0x26a9	mov    	eax, dword ptr [ebx]
  0x26ab	dec    	eax
  0x26ac	test   	eax, eax
  0x26ae	jne    	0x270a
  === BLOCK LINK ===
    0x26b0
=== CODE BLOCK END ===

=== CODE BLOCK ADDRESS 0x26b0 ===
  0x26b0	dec    	esp
  0x26b1	lea    	eax, [ecx + 0x18]
  0x26b4	mov    	edx, 0x800
  0x26b9	dec    	eax
  0x26ba	lea    	ecx, [esp + 0x420]
  === BLOCK LINK ===
    0x26c1
=== CODE BLOCK END ===

=== CODE BLOCK ADDRESS 0x26c1 ===
  0x26c1	call   	0x1c80
  === BLOCK LINK ===
    0x26c6
=== CODE BLOCK END ===

=== CODE BLOCK ADDRESS 0x26c6 ===
  0x26c6	dec    	esp
  0x26c7	lea    	ecx, [esp + 0x420]
  0x26ce	mov    	edx, 0x400
  0x26d3	dec    	esp
  0x26d4	lea    	eax, [0x420e]
  === BLOCK LINK ===
    0x26da
=== CODE BLOCK END ===

=== CODE BLOCK ADDRESS 0x26da ===
  0x26da	dec    	eax
  0x26db	lea    	ecx, [esp + 0x20]
  0x26df	call   	0x223c
  === BLOCK LINK ===
    0x26e4
=== CODE BLOCK END ===

=== CODE BLOCK ADDRESS 0x26e4 ===
  0x26e4	dec    	eax
  0x26e5	lea    	eax, [esp + 0x20]
  0x26e9	dec    	ecx
  0x26ea	or     	eax, 0xffffffff
  0x26ed	dec    	ecx
  === BLOCK LINK ===
    0x26ee
=== CODE BLOCK END ===

=== CODE BLOCK ADDRESS 0x26ee ===
  0x26ee	inc    	eax
  0x26f0	inc    	edx
  0x26f1	cmp    	byte ptr [eax + eax], 0
  0x26f5	jne    	0x26ed
  === BLOCK LINK ===
    0x26f7
=== CODE BLOCK END ===

=== CODE BLOCK ADDRESS 0x26f7 ===
  0x26f7	dec    	ecx
  0x26f8	inc    	eax
  0x26fa	dec    	eax
  0x26fb	lea    	edx, [esp + 0x20]
  0x26ff	dec    	eax
  === BLOCK LINK ===
    0x2700
=== CODE BLOCK END ===

=== CODE BLOCK ADDRESS 0x2700 ===
  0x2700	mov    	ecx, ebx
  0x2702	call   	0x1eec
  === BLOCK LINK ===
    0x2707
=== CODE BLOCK END ===

=== CODE BLOCK ADDRESS 0x2707 ===
  0x2707	dec    	eax
  0x2708	mov    	eax, dword ptr [ebx]
  0x270a	dec    	eax
  0x270b	lea    	ecx, [eax + 4]
  0x270e	dec    	eax
  === BLOCK LINK ===
    0x270f
=== CODE BLOCK END ===

=== CODE BLOCK ADDRESS 0x270f ===
  0x270f	neg    	eax
  0x2711	dec    	eax
  0x2712	sbb    	eax, eax
  0x2714	dec    	eax
  0x2715	and    	eax, ecx
  === BLOCK LINK ===
    0x2717
=== CODE BLOCK END ===

=== CODE BLOCK ADDRESS 0x2717 ===
  0x2717	dec    	eax
  0x2718	mov    	ecx, dword ptr [esp + 0x1420]
  0x271f	dec    	eax
  0x2720	xor    	ecx, esp
  0x2722	call   	0x5280
  === BLOCK LINK ===
    0x2727
=== CODE BLOCK END ===

=== CODE BLOCK ADDRESS 0x2727 ===
  0x2727	dec    	eax
  0x2728	add    	esp, 0x1430
  0x272e	pop    	ebx
  0x272f	ret    	
  0x2730	int3   	
  === BLOCK LINK ===
    0x2731
=== CODE BLOCK END ===

=== CODE BLOCK ADDRESS 0x2731 ===
  0x2731	int3   	
  0x2732	int3   	
  0x2733	int3   	
  0x2734	int3   	
  0x2735	int3   	
  === BLOCK LINK ===
    0x2736
=== CODE BLOCK END ===

=== CODE BLOCK ADDRESS 0x2736 ===
  0x2736	int3   	
  0x2737	int3   	
  0x2738	int3   	
  0x2739	int3   	
  0x273a	int3   	
  === BLOCK LINK ===
    0x273b
=== CODE BLOCK END ===

=== CODE BLOCK ADDRESS 0x273b ===
  0x273b	int3   	
  0x273c	int3   	
  0x273d	int3   	
  0x273e	int3   	
  0x273f	int3   	
  === BLOCK LINK ===
    0x2740
=== CODE BLOCK END ===

=== CODE BLOCK ADDRESS 0x2740 ===
  0x2740	dec    	eax
  0x2741	mov    	dword ptr [esp + 8], ebx
  0x2745	push   	edi
  0x2746	dec    	eax
  0x2747	sub    	esp, 0x20
  === BLOCK LINK ===
    0x274a
=== CODE BLOCK END ===

=== CODE BLOCK ADDRESS 0x274a ===
  0x274a	mov    	ebx, edx
  0x274c	dec    	eax
  0x274d	mov    	edi, ecx
  0x274f	call   	0x2778
  === BLOCK LINK ===
    0x2754
=== CODE BLOCK END ===

=== CODE BLOCK ADDRESS 0x2754 ===
  0x2754	test   	bl, 1
  0x2757	je     	0x2761
  === BLOCK LINK ===
    0x2759
=== CODE BLOCK END ===

=== CODE BLOCK ADDRESS 0x2759 ===
  0x2759	dec    	eax
  0x275a	mov    	ecx, edi
  0x275c	call   	0x5250
  === BLOCK LINK ===
    0x2761
=== CODE BLOCK END ===

=== CODE BLOCK ADDRESS 0x2761 ===
  0x2761	dec    	eax
  0x2762	mov    	ebx, dword ptr [esp + 0x30]
  0x2766	dec    	eax
  0x2767	mov    	eax, edi
  0x2769	dec    	eax
  === BLOCK LINK ===
    0x276a
=== CODE BLOCK END ===

=== CODE BLOCK ADDRESS 0x276a ===
  0x276a	add    	esp, 0x20
  0x276d	pop    	edi
  0x276e	ret    	
  0x276f	int3   	
  0x2770	int3   	
  === BLOCK LINK ===
    0x2771
=== CODE BLOCK END ===

=== CODE BLOCK ADDRESS 0x2771 ===
  0x2771	int3   	
  0x2772	int3   	
  0x2773	int3   	
  0x2774	int3   	
  0x2775	int3   	
  === BLOCK LINK ===
    0x2776
=== CODE BLOCK END ===

=== CODE BLOCK ADDRESS 0x2776 ===
  0x2776	int3   	
  0x2777	int3   	
  0x2778	inc    	eax
  0x2779	push   	ebx
  0x277a	dec    	eax
  === BLOCK LINK ===
    0x277b
=== CODE BLOCK END ===

=== CODE BLOCK ADDRESS 0x277b ===
  0x277b	sub    	esp, 0x20
  0x277e	dec    	eax
  0x277f	mov    	ebx, ecx
  0x2781	dec    	eax
  0x2782	mov    	ecx, dword ptr [ecx + 0xb8]
  === BLOCK LINK ===
    0x2788
=== CODE BLOCK END ===

=== CODE BLOCK ADDRESS 0x2788 ===
  0x2788	dec    	eax
  0x2789	test   	ecx, ecx
  0x278b	je     	0x27cd
  === BLOCK LINK ===
    0x278d
=== CODE BLOCK END ===

=== CODE BLOCK ADDRESS 0x278d ===
  0x278d	or     	eax, 0xffffffff
  0x2790	lock xadd  	dword ptr [ecx], eax
  0x2794	cmp    	eax, 1
  0x2797	jne    	0x27bd
  === BLOCK LINK ===
    0x2799
=== CODE BLOCK END ===

=== CODE BLOCK ADDRESS 0x2799 ===
  0x2799	dec    	eax
  0x279a	call   	dword ptr [0x3ac0]
  === BLOCK LINK ===
    0x27a0
=== CODE BLOCK END ===

=== CODE BLOCK ADDRESS 0x27a0 ===
  0x27a0	nop    	dword ptr [eax + eax]
  0x27a5	dec    	esp
  0x27a6	mov    	eax, dword ptr [ebx + 0xb8]
  0x27ac	xor    	edx, edx
  0x27ae	dec    	eax
  === BLOCK LINK ===
    0x27af
=== CODE BLOCK END ===

=== CODE BLOCK ADDRESS 0x27af ===
  0x27af	mov    	ecx, eax
  0x27b1	dec    	eax
  0x27b2	call   	dword ptr [0x3aa0]
  === BLOCK LINK ===
    0x27b8
=== CODE BLOCK END ===

=== CODE BLOCK ADDRESS 0x27b8 ===
  0x27b8	nop    	dword ptr [eax + eax]
  0x27bd	dec    	eax
  0x27be	and    	dword ptr [ebx + 0xb8], 0
  0x27c5	dec    	eax
  0x27c6	and    	dword ptr [ebx + 0xc0], 0
  === BLOCK LINK ===
    0x27cd
=== CODE BLOCK END ===

=== CODE BLOCK ADDRESS 0x27cd ===
  0x27cd	dec    	eax
  0x27ce	mov    	ecx, dword ptr [ebx + 0xa8]
  0x27d4	dec    	eax
  0x27d5	test   	ecx, ecx
  0x27d7	je     	0x2819
  === BLOCK LINK ===
    0x27d9
=== CODE BLOCK END ===

=== CODE BLOCK ADDRESS 0x27d9 ===
  0x27d9	or     	eax, 0xffffffff
  0x27dc	lock xadd  	dword ptr [ecx], eax
  0x27e0	cmp    	eax, 1
  0x27e3	jne    	0x2809
  === BLOCK LINK ===
    0x27e5
=== CODE BLOCK END ===

=== CODE BLOCK ADDRESS 0x27e5 ===
  0x27e5	dec    	eax
  0x27e6	call   	dword ptr [0x3a74]
  === BLOCK LINK ===
    0x27ec
=== CODE BLOCK END ===

=== CODE BLOCK ADDRESS 0x27ec ===
  0x27ec	nop    	dword ptr [eax + eax]
  0x27f1	dec    	esp
  0x27f2	mov    	eax, dword ptr [ebx + 0xa8]
  0x27f8	xor    	edx, edx
  0x27fa	dec    	eax
  === BLOCK LINK ===
    0x27fb
=== CODE BLOCK END ===

=== CODE BLOCK ADDRESS 0x27fb ===
  0x27fb	mov    	ecx, eax
  0x27fd	dec    	eax
  0x27fe	call   	dword ptr [0x3a54]
  === BLOCK LINK ===
    0x2804
=== CODE BLOCK END ===

=== CODE BLOCK ADDRESS 0x2804 ===
  0x2804	nop    	dword ptr [eax + eax]
  0x2809	dec    	eax
  0x280a	and    	dword ptr [ebx + 0xa8], 0
  0x2811	dec    	eax
  0x2812	and    	dword ptr [ebx + 0xb0], 0
  === BLOCK LINK ===
    0x2819
=== CODE BLOCK END ===

=== CODE BLOCK ADDRESS 0x2819 ===
  0x2819	dec    	eax
  0x281a	mov    	ecx, ebx
  0x281c	dec    	eax
  0x281d	add    	esp, 0x20
  0x2820	pop    	ebx
  === BLOCK LINK ===
    0x2821
=== CODE BLOCK END ===

=== CODE BLOCK ADDRESS 0x2821 ===
  0x2821	dec    	eax
  0x2822	jmp    	dword ptr [0x3c48]
  === BLOCK LINK ===
    0x2828
=== CODE BLOCK END ===

=== CODE BLOCK ADDRESS 0x2828 ===
  0x2828	int3   	
  0x2829	int3   	
  0x282a	int3   	
  0x282b	int3   	
  0x282c	int3   	
  === BLOCK LINK ===
    0x282d
=== CODE BLOCK END ===

=== CODE BLOCK ADDRESS 0x282d ===
  0x282d	int3   	
  0x282e	int3   	
  0x282f	int3   	
  0x2830	int3   	
  0x2831	int3   	
  === BLOCK LINK ===
    0x2832
=== CODE BLOCK END ===

=== CODE BLOCK ADDRESS 0x2832 ===
  0x2832	int3   	
  0x2833	int3   	
  0x2834	int3   	
  0x2835	int3   	
  0x2836	int3   	
  === BLOCK LINK ===
    0x2837
=== CODE BLOCK END ===

=== CODE BLOCK ADDRESS 0x2837 ===
  0x2837	int3   	
  0x2838	int3   	
  0x2839	int3   	
  0x283a	int3   	
  0x283b	int3   	
  === BLOCK LINK ===
    0x283c
=== CODE BLOCK END ===

=== CODE BLOCK ADDRESS 0x283c ===
  0x283c	int3   	
  0x283d	int3   	
  0x283e	int3   	
  0x283f	int3   	
  0x2840	dec    	eax
  === BLOCK LINK ===
    0x2841
=== CODE BLOCK END ===

=== CODE BLOCK ADDRESS 0x2841 ===
  0x2841	sub    	esp, 0x28
  0x2844	xor    	edx, edx
  0x2846	xor    	ecx, ecx
  0x2848	call   	0x5a1b
  === BLOCK LINK ===
    0x284d
=== CODE BLOCK END ===

=== CODE BLOCK ADDRESS 0x284d ===
  0x284d	int3   	
  0x284e	int3   	
  0x284f	int3   	
  0x2850	int3   	
  0x2851	int3   	
  === BLOCK LINK ===
    0x2852
=== CODE BLOCK END ===

=== CODE BLOCK ADDRESS 0x2852 ===
  0x2852	int3   	
  0x2853	int3   	
  0x2854	int3   	
  0x2855	int3   	
  0x2856	int3   	
  === BLOCK LINK ===
    0x2857
=== CODE BLOCK END ===

=== CODE BLOCK ADDRESS 0x2857 ===
  0x2857	int3   	
  0x2858	int3   	
  0x2859	int3   	
  0x285a	int3   	
  0x285b	int3   	
  === BLOCK LINK ===
    0x285c
=== CODE BLOCK END ===

=== CODE BLOCK ADDRESS 0x285c ===
  0x285c	int3   	
  0x285d	int3   	
  0x285e	int3   	
  0x285f	int3   	
  0x2860	dec    	eax
  === BLOCK LINK ===
    0x2861
=== CODE BLOCK END ===

=== CODE BLOCK ADDRESS 0x2861 ===
  0x2861	sub    	esp, 0xf8
  0x2867	dec    	eax
  0x2868	mov    	edx, ecx
  0x286a	dec    	eax
  0x286b	lea    	ecx, [esp + 0x20]
  === BLOCK LINK ===
    0x286f
=== CODE BLOCK END ===

=== CODE BLOCK ADDRESS 0x286f ===
  0x286f	call   	0x2618
  === BLOCK LINK ===
    0x2874
=== CODE BLOCK END ===

=== CODE BLOCK ADDRESS 0x2874 ===
  0x2874	dec    	eax
  0x2875	lea    	edx, [0x4ead]
  0x287b	dec    	eax
  0x287c	lea    	ecx, [esp + 0x20]
  0x2880	call   	0x5a1b
  === BLOCK LINK ===
    0x2885
=== CODE BLOCK END ===

=== CODE BLOCK ADDRESS 0x2885 ===
  0x2885	int3   	
  0x2886	int3   	
  0x2887	int3   	
  0x2888	int3   	
  0x2889	int3   	
  === BLOCK LINK ===
    0x288a
=== CODE BLOCK END ===

=== CODE BLOCK ADDRESS 0x288a ===
  0x288a	int3   	
  0x288b	int3   	
  0x288c	dec    	eax
  0x288d	mov    	dword ptr [esp + 8], ebx
  0x2891	push   	edi
  === BLOCK LINK ===
    0x2892
=== CODE BLOCK END ===

=== CODE BLOCK ADDRESS 0x2892 ===
  0x2892	dec    	eax
  0x2893	sub    	esp, 0x20
  0x2896	dec    	eax
  0x2897	mov    	edi, edx
  0x2899	dec    	eax
  === BLOCK LINK ===
    0x289a
=== CODE BLOCK END ===

=== CODE BLOCK ADDRESS 0x289a ===
  0x289a	mov    	ebx, ecx
  0x289c	dec    	eax
  0x289d	call   	dword ptr [0x3bbd]
  === BLOCK LINK ===
    0x28a3
=== CODE BLOCK END ===

=== CODE BLOCK ADDRESS 0x28a3 ===
  0x28a3	nop    	dword ptr [eax + eax]
  0x28a8	mov    	edx, 0x80
  0x28ad	dec    	eax
  0x28ae	lea    	eax, [0x3764]
  0x28b4	dec    	eax
  === BLOCK LINK ===
    0x28b5
=== CODE BLOCK END ===

=== CODE BLOCK ADDRESS 0x28b5 ===
  0x28b5	mov    	dword ptr [ebx], eax
  0x28b7	inc    	ebp
  0x28b8	xor    	eax, eax
  0x28ba	movups  	xmm0, xmmword ptr [edi + 0x18]
  0x28be	movups  	xmmword ptr [ebx + 0x18], xmm0
  === BLOCK LINK ===
    0x28c2
=== CODE BLOCK END ===

=== CODE BLOCK ADDRESS 0x28c2 ===
  0x28c2	movups  	xmm1, xmmword ptr [edi + 0x28]
  0x28c6	movups  	xmmword ptr [ebx + 0x28], xmm1
  0x28ca	movups  	xmm0, xmmword ptr [edi + 0x38]
  0x28ce	movups  	xmmword ptr [ebx + 0x38], xmm0
  0x28d2	movups  	xmm1, xmmword ptr [edi + 0x48]
  === BLOCK LINK ===
    0x28d6
=== CODE BLOCK END ===

=== CODE BLOCK ADDRESS 0x28d6 ===
  0x28d6	movups  	xmmword ptr [ebx + 0x48], xmm1
  0x28da	movups  	xmm0, xmmword ptr [edi + 0x58]
  0x28de	movups  	xmmword ptr [ebx + 0x58], xmm0
  0x28e2	movups  	xmm1, xmmword ptr [edi + 0x68]
  0x28e6	movups  	xmmword ptr [ebx + 0x68], xmm1
  === BLOCK LINK ===
    0x28ea
=== CODE BLOCK END ===

=== CODE BLOCK ADDRESS 0x28ea ===
  0x28ea	movups  	xmm0, xmmword ptr [edi + 0x78]
  0x28ee	movups  	xmmword ptr [ebx + 0x78], xmm0
  0x28f2	movups  	xmm0, xmmword ptr [edi + 0x88]
  0x28f9	movups  	xmmword ptr [ebx + edx + 8], xmm0
  0x28fe	movups  	xmm1, xmmword ptr [edi + edx + 0x18]
  === BLOCK LINK ===
    0x2903
=== CODE BLOCK END ===

=== CODE BLOCK ADDRESS 0x2903 ===
  0x2903	movups  	xmmword ptr [ebx + edx + 0x18], xmm1
  0x2908	dec    	esp
  0x2909	mov    	dword ptr [ebx + 0xa8], eax
  0x290f	dec    	esp
  0x2910	mov    	dword ptr [ebx + 0xb0], eax
  === BLOCK LINK ===
    0x2916
=== CODE BLOCK END ===

=== CODE BLOCK ADDRESS 0x2916 ===
  0x2916	dec    	eax
  0x2917	mov    	eax, dword ptr [edi + 0xa8]
  0x291d	dec    	eax
  0x291e	mov    	edx, dword ptr [edi + 0xb0]
  0x2924	dec    	eax
  === BLOCK LINK ===
    0x2925
=== CODE BLOCK END ===

=== CODE BLOCK ADDRESS 0x2925 ===
  0x2925	test   	eax, eax
  0x2927	je     	0x293a
  === BLOCK LINK ===
    0x2929
=== CODE BLOCK END ===

=== CODE BLOCK ADDRESS 0x2929 ===
  0x2929	dec    	eax
  0x292a	mov    	dword ptr [ebx + 0xa8], eax
  0x2930	dec    	eax
  0x2931	mov    	dword ptr [ebx + 0xb0], edx
  0x2937	lock inc  	dword ptr [eax]
  === BLOCK LINK ===
    0x293a
=== CODE BLOCK END ===

=== CODE BLOCK ADDRESS 0x293a ===
  0x293a	dec    	esp
  0x293b	mov    	dword ptr [ebx + 0xb8], eax
  0x2941	dec    	esp
  0x2942	mov    	dword ptr [ebx + 0xc0], eax
  0x2948	dec    	eax
  === BLOCK LINK ===
    0x2949
=== CODE BLOCK END ===

=== CODE BLOCK ADDRESS 0x2949 ===
  0x2949	mov    	eax, dword ptr [edi + 0xb8]
  0x294f	dec    	eax
  0x2950	mov    	ecx, dword ptr [edi + 0xc0]
  0x2956	dec    	eax
  0x2957	test   	eax, eax
  === BLOCK LINK ===
    0x2959
=== CODE BLOCK END ===

=== CODE BLOCK ADDRESS 0x2959 ===
  0x2959	je     	0x296c
  === BLOCK LINK ===
    0x295b
=== CODE BLOCK END ===

=== CODE BLOCK ADDRESS 0x295b ===
  0x295b	dec    	eax
  0x295c	mov    	dword ptr [ebx + 0xb8], eax
  0x2962	dec    	eax
  0x2963	mov    	dword ptr [ebx + 0xc0], ecx
  0x2969	lock inc  	dword ptr [eax]
  === BLOCK LINK ===
    0x296c
=== CODE BLOCK END ===

=== CODE BLOCK ADDRESS 0x296c ===
  0x296c	dec    	eax
  0x296d	mov    	eax, ebx
  0x296f	dec    	eax
  0x2970	mov    	ebx, dword ptr [esp + 0x30]
  0x2974	dec    	eax
  === BLOCK LINK ===
    0x2975
=== CODE BLOCK END ===

=== CODE BLOCK ADDRESS 0x2975 ===
  0x2975	add    	esp, 0x20
  0x2978	pop    	edi
  0x2979	ret    	
  0x297a	int3   	
  0x297b	int3   	
  === BLOCK LINK ===
    0x297c
=== CODE BLOCK END ===

=== CODE BLOCK ADDRESS 0x135a ===
  0x135a	cmp    	dword ptr [0x7c9f], 4
  0x1361	jbe    	0x138c
  === BLOCK LINK ===
    0x1363
    0x138c
=== CODE BLOCK END ===

=== CODE BLOCK ADDRESS 0x297c ===
  0x297c	int3   	
  0x297d	int3   	
  0x297e	int3   	
  0x297f	int3   	
  0x2980	int3   	
  === BLOCK LINK ===
    0x2981
=== CODE BLOCK END ===

=== CODE BLOCK ADDRESS 0x2981 ===
  0x2981	int3   	
  0x2982	int3   	
  0x2983	int3   	
  0x2984	int3   	
  0x2985	int3   	
  === BLOCK LINK ===
    0x2986
=== CODE BLOCK END ===

=== CODE BLOCK ADDRESS 0x2986 ===
  0x2986	int3   	
  0x2987	int3   	
  0x2988	int3   	
  0x2989	int3   	
  0x298a	int3   	
  === BLOCK LINK ===
    0x298b
=== CODE BLOCK END ===

=== CODE BLOCK ADDRESS 0x298b ===
  0x298b	int3   	
  0x298c	int3   	
  0x298d	int3   	
  0x298e	int3   	
  0x298f	int3   	
  === BLOCK LINK ===
    0x2990
=== CODE BLOCK END ===

=== CODE BLOCK ADDRESS 0x2990 ===
  0x2990	inc    	eax
  0x2991	push   	ebx
  0x2992	dec    	eax
  0x2993	sub    	esp, 0x20
  0x2996	dec    	eax
  === BLOCK LINK ===
    0x2997
=== CODE BLOCK END ===

=== CODE BLOCK ADDRESS 0x2997 ===
  0x2997	mov    	eax, dword ptr [0x6ebb]
  0x299d	xor    	ebx, ebx
  0x299f	dec    	eax
  0x29a0	test   	eax, eax
  0x29a2	jne    	0x29ec
  === BLOCK LINK ===
    0x29a4
=== CODE BLOCK END ===

=== CODE BLOCK ADDRESS 0x29a4 ===
  0x29a4	dec    	eax
  0x29a5	mov    	eax, dword ptr [0x6f0d]
  0x29ab	dec    	eax
  0x29ac	test   	eax, eax
  0x29ae	jne    	0x29ca
  === BLOCK LINK ===
    0x29b0
=== CODE BLOCK END ===

=== CODE BLOCK ADDRESS 0x29b0 ===
  0x29b0	dec    	eax
  0x29b1	lea    	ecx, [0x3f39]
  0x29b7	dec    	eax
  0x29b8	call   	dword ptr [0x38e2]
  === BLOCK LINK ===
    0x29be
=== CODE BLOCK END ===

=== CODE BLOCK ADDRESS 0x29be ===
  0x29be	nop    	dword ptr [eax + eax]
  0x29c3	dec    	eax
  0x29c4	mov    	dword ptr [0x6eee], eax
  0x29ca	dec    	eax
  0x29cb	lea    	edx, [0x3f37]
  === BLOCK LINK ===
    0x29d1
=== CODE BLOCK END ===

=== CODE BLOCK ADDRESS 0x29d1 ===
  0x29d1	dec    	eax
  0x29d2	mov    	ecx, eax
  0x29d4	dec    	eax
  0x29d5	call   	dword ptr [0x38b5]
  === BLOCK LINK ===
    0x29db
=== CODE BLOCK END ===

=== CODE BLOCK ADDRESS 0x29db ===
  0x29db	nop    	dword ptr [eax + eax]
  0x29e0	dec    	eax
  0x29e1	mov    	dword ptr [0x6e71], eax
  0x29e7	dec    	eax
  0x29e8	test   	eax, eax
  === BLOCK LINK ===
    0x29ea
=== CODE BLOCK END ===

=== CODE BLOCK ADDRESS 0x29ea ===
  0x29ea	je     	0x29f4
  === BLOCK LINK ===
    0x29ec
=== CODE BLOCK END ===

=== CODE BLOCK ADDRESS 0x29ec ===
  0x29ec	call   	dword ptr [0x3b8e]
  === BLOCK LINK ===
    0x29f2
=== CODE BLOCK END ===

=== CODE BLOCK ADDRESS 0x29f2 ===
  0x29f2	mov    	bl, al
  0x29f4	mov    	al, bl
  0x29f6	dec    	eax
  0x29f7	add    	esp, 0x20
  0x29fa	pop    	ebx
  === BLOCK LINK ===
    0x29fb
=== CODE BLOCK END ===

=== CODE BLOCK ADDRESS 0x29fb ===
  0x29fb	ret    	
  0x29fc	int3   	
  0x29fd	int3   	
  0x29fe	int3   	
  0x29ff	int3   	
  === BLOCK LINK ===
    0x2a00
=== CODE BLOCK END ===

=== CODE BLOCK ADDRESS 0x2a00 ===
  0x2a00	int3   	
  0x2a01	int3   	
  0x2a02	int3   	
  0x2a03	int3   	
  0x2a04	int3   	
  === BLOCK LINK ===
    0x2a05
=== CODE BLOCK END ===

=== CODE BLOCK ADDRESS 0x2a05 ===
  0x2a05	int3   	
  0x2a06	int3   	
  0x2a07	int3   	
  0x2a08	int3   	
  0x2a09	int3   	
  === BLOCK LINK ===
    0x2a0a
=== CODE BLOCK END ===

=== CODE BLOCK ADDRESS 0x2a0a ===
  0x2a0a	int3   	
  0x2a0b	int3   	
  0x2a0c	int3   	
  0x2a0d	int3   	
  0x2a0e	int3   	
  === BLOCK LINK ===
    0x2a0f
=== CODE BLOCK END ===

=== CODE BLOCK ADDRESS 0x2a0f ===
  0x2a0f	int3   	
  0x2a10	dec    	eax
  0x2a11	mov    	dword ptr [esp + 8], ebx
  0x2a15	dec    	eax
  0x2a16	mov    	dword ptr [esp + 0x10], esi
  === BLOCK LINK ===
    0x2a1a
=== CODE BLOCK END ===

=== CODE BLOCK ADDRESS 0x2a1a ===
  0x2a1a	push   	edi
  0x2a1b	dec    	eax
  0x2a1c	sub    	esp, 0x20
  0x2a1f	dec    	eax
  0x2a20	mov    	eax, dword ptr [0x6e8a]
  === BLOCK LINK ===
    0x2a26
=== CODE BLOCK END ===

=== CODE BLOCK ADDRESS 0x2a26 ===
  0x2a26	xor    	ebx, ebx
  0x2a28	dec    	eax
  0x2a29	mov    	edi, edx
  0x2a2b	dec    	eax
  0x2a2c	mov    	esi, ecx
  === BLOCK LINK ===
    0x2a2e
=== CODE BLOCK END ===

=== CODE BLOCK ADDRESS 0x2a2e ===
  0x2a2e	dec    	eax
  0x2a2f	test   	eax, eax
  0x2a31	jne    	0x2a7b
  === BLOCK LINK ===
    0x2a33
=== CODE BLOCK END ===

=== CODE BLOCK ADDRESS 0x2a33 ===
  0x2a33	dec    	eax
  0x2a34	mov    	eax, dword ptr [0x6e7e]
  0x2a3a	dec    	eax
  0x2a3b	test   	eax, eax
  0x2a3d	jne    	0x2a59
  === BLOCK LINK ===
    0x2a3f
=== CODE BLOCK END ===

=== CODE BLOCK ADDRESS 0x2a3f ===
  0x2a3f	dec    	eax
  0x2a40	lea    	ecx, [0x3eaa]
  0x2a46	dec    	eax
  0x2a47	call   	dword ptr [0x3853]
  === BLOCK LINK ===
    0x2a4d
=== CODE BLOCK END ===

=== CODE BLOCK ADDRESS 0x2a4d ===
  0x2a4d	nop    	dword ptr [eax + eax]
  0x2a52	dec    	eax
  0x2a53	mov    	dword ptr [0x6e5f], eax
  0x2a59	dec    	eax
  0x2a5a	lea    	edx, [0x3ec8]
  === BLOCK LINK ===
    0x2a60
=== CODE BLOCK END ===

=== CODE BLOCK ADDRESS 0x2a60 ===
  0x2a60	dec    	eax
  0x2a61	mov    	ecx, eax
  0x2a63	dec    	eax
  0x2a64	call   	dword ptr [0x3826]
  === BLOCK LINK ===
    0x2a6a
=== CODE BLOCK END ===

=== CODE BLOCK ADDRESS 0x2a6a ===
  0x2a6a	nop    	dword ptr [eax + eax]
  0x2a6f	dec    	eax
  0x2a70	mov    	dword ptr [0x6e3a], eax
  0x2a76	dec    	eax
  0x2a77	test   	eax, eax
  === BLOCK LINK ===
    0x2a79
=== CODE BLOCK END ===

=== CODE BLOCK ADDRESS 0x2a79 ===
  0x2a79	je     	0x2a89
  === BLOCK LINK ===
    0x2a7b
=== CODE BLOCK END ===

=== CODE BLOCK ADDRESS 0x2a7b ===
  0x2a7b	dec    	eax
  0x2a7c	mov    	edx, edi
  0x2a7e	dec    	eax
  0x2a7f	mov    	ecx, esi
  0x2a81	call   	dword ptr [0x3af9]
  === BLOCK LINK ===
    0x2a87
=== CODE BLOCK END ===

=== CODE BLOCK ADDRESS 0x2a87 ===
  0x2a87	mov    	ebx, eax
  0x2a89	dec    	eax
  0x2a8a	mov    	esi, dword ptr [esp + 0x38]
  0x2a8e	mov    	eax, ebx
  0x2a90	dec    	eax
  === BLOCK LINK ===
    0x2a91
=== CODE BLOCK END ===

=== CODE BLOCK ADDRESS 0x2a91 ===
  0x2a91	mov    	ebx, dword ptr [esp + 0x30]
  0x2a95	dec    	eax
  0x2a96	add    	esp, 0x20
  0x2a99	pop    	edi
  0x2a9a	ret    	
  === BLOCK LINK ===
    0x2a9b
=== CODE BLOCK END ===

=== CODE BLOCK ADDRESS 0x2a9b ===
  0x2a9b	int3   	
  0x2a9c	int3   	
  0x2a9d	int3   	
  0x2a9e	int3   	
  0x2a9f	int3   	
  === BLOCK LINK ===
    0x2aa0
=== CODE BLOCK END ===

=== CODE BLOCK ADDRESS 0x2aa0 ===
  0x2aa0	int3   	
  0x2aa1	int3   	
  0x2aa2	int3   	
  0x2aa3	int3   	
  0x2aa4	dec    	eax
  === BLOCK LINK ===
    0x2aa5
=== CODE BLOCK END ===

=== CODE BLOCK ADDRESS 0x2aa5 ===
  0x2aa5	mov    	eax, esp
  0x2aa7	dec    	eax
  0x2aa8	mov    	dword ptr [eax + 8], ebx
  0x2aab	dec    	eax
  0x2aac	mov    	dword ptr [eax + 0x10], ebp
  === BLOCK LINK ===
    0x2aaf
=== CODE BLOCK END ===

=== CODE BLOCK ADDRESS 0x2aaf ===
  0x2aaf	dec    	eax
  0x2ab0	mov    	dword ptr [eax + 0x18], esi
  0x2ab3	dec    	eax
  0x2ab4	mov    	dword ptr [eax + 0x20], edi
  0x2ab7	inc    	ecx
  === BLOCK LINK ===
    0x2ab8
=== CODE BLOCK END ===

=== CODE BLOCK ADDRESS 0x2ab8 ===
  0x2ab8	push   	esi
  0x2ab9	dec    	eax
  0x2aba	sub    	esp, 0x20
  0x2abd	inc    	ebp
  0x2abe	xor    	esi, esi
  === BLOCK LINK ===
    0x2ac0
=== CODE BLOCK END ===

=== CODE BLOCK ADDRESS 0x2ac0 ===
  0x2ac0	dec    	eax
  0x2ac1	mov    	ebp, edx
  0x2ac3	inc    	ecx
  0x2ac4	mov    	ebx, esi
  0x2ac6	dec    	eax
  === BLOCK LINK ===
    0x2ac7
=== CODE BLOCK END ===

=== CODE BLOCK ADDRESS 0x2ac7 ===
  0x2ac7	or     	eax, 0xffffffff
  0x2aca	dec    	eax
  0x2acb	mov    	esi, ecx
  0x2acd	dec    	eax
  0x2ace	inc    	eax
  === BLOCK LINK ===
    0x2ad0
=== CODE BLOCK END ===

=== CODE BLOCK ADDRESS 0x2ad0 ===
  0x2ad0	inc    	sp
  0x2ad2	cmp    	dword ptr [ecx + eax*2], esi
  0x2ad5	jne    	0x2acd
  === BLOCK LINK ===
    0x2ad7
=== CODE BLOCK END ===

=== CODE BLOCK ADDRESS 0x2ad7 ===
  0x2ad7	lea    	ecx, [eax + 3]
  0x2ada	cmp    	ecx, eax
  0x2adc	jb     	0x2b30
  === BLOCK LINK ===
    0x2ade
=== CODE BLOCK END ===

=== CODE BLOCK ADDRESS 0x2ade ===
  0x2ade	dec    	eax
  0x2adf	lea    	eax, [ecx + ecx]
  0x2ae2	mov    	edi, ecx
  0x2ae4	mov    	ecx, 0xffffffff
  0x2ae9	dec    	eax
  === BLOCK LINK ===
    0x2aea
=== CODE BLOCK END ===

=== CODE BLOCK ADDRESS 0x2aea ===
  0x2aea	cmp    	eax, ecx
  0x2aec	ja     	0x2b30
  === BLOCK LINK ===
    0x2aee
=== CODE BLOCK END ===

=== CODE BLOCK ADDRESS 0x2aee ===
  0x2aee	mov    	edx, eax
  0x2af0	xor    	ecx, ecx
  0x2af2	dec    	eax
  0x2af3	call   	dword ptr [0x377f]
  === BLOCK LINK ===
    0x2af9
=== CODE BLOCK END ===

=== CODE BLOCK ADDRESS 0x2af9 ===
  0x2af9	nop    	dword ptr [eax + eax]
  0x2afe	dec    	eax
  0x2aff	mov    	ebx, eax
  0x2b01	dec    	eax
  0x2b02	test   	eax, eax
  === BLOCK LINK ===
    0x2b04
=== CODE BLOCK END ===

=== CODE BLOCK ADDRESS 0x2b04 ===
  0x2b04	je     	0x2b30
  === BLOCK LINK ===
    0x2b06
=== CODE BLOCK END ===

=== CODE BLOCK ADDRESS 0x2b06 ===
  0x2b06	dec    	esp
  0x2b07	mov    	ecx, esi
  0x2b09	dec    	esp
  0x2b0a	lea    	eax, [0x3e38]
  0x2b10	mov    	edx, edi
  === BLOCK LINK ===
    0x2b12
=== CODE BLOCK END ===

=== CODE BLOCK ADDRESS 0x2b12 ===
  0x2b12	dec    	eax
  0x2b13	mov    	ecx, eax
  0x2b15	call   	0x1b70
  === BLOCK LINK ===
    0x2b1a
=== CODE BLOCK END ===

=== CODE BLOCK ADDRESS 0x2b1a ===
  0x2b1a	test   	eax, eax
  0x2b1c	js     	0x2b30
  === BLOCK LINK ===
    0x2b1e
=== CODE BLOCK END ===

=== CODE BLOCK ADDRESS 0x2b1e ===
  0x2b1e	dec    	eax
  0x2b1f	mov    	edx, ebp
  0x2b21	dec    	eax
  0x2b22	mov    	ecx, ebx
  0x2b24	dec    	eax
  === BLOCK LINK ===
    0x2b25
=== CODE BLOCK END ===

=== CODE BLOCK ADDRESS 0x2b25 ===
  0x2b25	call   	dword ptr [0x3695]
  === BLOCK LINK ===
    0x2b2b
=== CODE BLOCK END ===

=== CODE BLOCK ADDRESS 0x2b2b ===
  0x2b2b	nop    	dword ptr [eax + eax]
  0x2b30	dec    	eax
  0x2b31	mov    	ecx, ebx
  0x2b33	dec    	eax
  0x2b34	call   	dword ptr [0x3746]
  === BLOCK LINK ===
    0x2b3a
=== CODE BLOCK END ===

=== CODE BLOCK ADDRESS 0x2b3a ===
  0x2b3a	nop    	dword ptr [eax + eax]
  0x2b3f	dec    	eax
  0x2b40	mov    	ebx, dword ptr [esp + 0x30]
  0x2b44	xor    	eax, eax
  0x2b46	dec    	eax
  === BLOCK LINK ===
    0x2b47
=== CODE BLOCK END ===

=== CODE BLOCK ADDRESS 0x2b47 ===
  0x2b47	mov    	ebp, dword ptr [esp + 0x38]
  0x2b4b	dec    	eax
  0x2b4c	mov    	esi, dword ptr [esp + 0x40]
  0x2b50	dec    	eax
  0x2b51	mov    	edi, dword ptr [esp + 0x48]
  === BLOCK LINK ===
    0x2b55
=== CODE BLOCK END ===

=== CODE BLOCK ADDRESS 0x2b55 ===
  0x2b55	dec    	eax
  0x2b56	add    	esp, 0x20
  0x2b59	inc    	ecx
  0x2b5a	pop    	esi
  0x2b5b	ret    	
  === BLOCK LINK ===
    0x2b5c
=== CODE BLOCK END ===

=== CODE BLOCK ADDRESS 0x2b5c ===
  0x2b5c	int3   	
  0x2b5d	int3   	
  0x2b5e	int3   	
  0x2b5f	int3   	
  0x2b60	int3   	
  === BLOCK LINK ===
    0x2b61
=== CODE BLOCK END ===

=== CODE BLOCK ADDRESS 0x2b61 ===
  0x2b61	int3   	
  0x2b62	int3   	
  0x2b63	int3   	
  0x2b64	dec    	eax
  0x2b65	mov    	eax, esp
  === BLOCK LINK ===
    0x2b67
=== CODE BLOCK END ===

=== CODE BLOCK ADDRESS 0x2b67 ===
  0x2b67	push   	ebp
  0x2b68	dec    	eax
  0x2b69	lea    	ebp, [eax - 0x5f]
  0x2b6c	dec    	eax
  0x2b6d	sub    	esp, 0xc0
  === BLOCK LINK ===
    0x2b73
=== CODE BLOCK END ===

=== CODE BLOCK ADDRESS 0x2b73 ===
  0x2b73	dec    	eax
  0x2b74	mov    	dword ptr [ebp - 0x31], 0xfffffffe
  0x2b7b	dec    	eax
  0x2b7c	mov    	dword ptr [eax + 0x10], ebx
  0x2b7f	dec    	eax
  === BLOCK LINK ===
    0x2b80
=== CODE BLOCK END ===

=== CODE BLOCK ADDRESS 0x2b80 ===
  0x2b80	mov    	dword ptr [eax + 0x18], edi
  0x2b83	dec    	eax
  0x2b84	mov    	eax, dword ptr [0x661e]
  0x2b8a	dec    	eax
  0x2b8b	xor    	eax, esp
  === BLOCK LINK ===
    0x2b8d
=== CODE BLOCK END ===

=== CODE BLOCK ADDRESS 0x2b8d ===
  0x2b8d	dec    	eax
  0x2b8e	mov    	dword ptr [ebp + 0x47], eax
  0x2b91	dec    	eax
  0x2b92	mov    	edi, ecx
  0x2b94	dec    	eax
  === BLOCK LINK ===
    0x2b95
=== CODE BLOCK END ===

=== CODE BLOCK ADDRESS 0x2b95 ===
  0x2b95	and    	dword ptr [ebp - 0x49], 0
  0x2b99	xorps  	xmm0, xmm0
  0x2b9c	xor    	eax, eax
  0x2b9e	movups  	xmmword ptr [ebp - 0x29], xmm0
  0x2ba2	dec    	eax
  === BLOCK LINK ===
    0x2ba3
=== CODE BLOCK END ===

=== CODE BLOCK ADDRESS 0x2ba3 ===
  0x2ba3	mov    	dword ptr [ebp - 0x19], eax
  0x2ba6	dec    	esp
  0x2ba7	lea    	ecx, [ebp + 0x17]
  0x2baa	dec    	esp
  0x2bab	lea    	eax, [ebp + 0x1f]
  === BLOCK LINK ===
    0x2bae
=== CODE BLOCK END ===

=== CODE BLOCK ADDRESS 0x2bae ===
  0x2bae	lea    	edx, [eax + 0x13]
  0x2bb1	dec    	eax
  0x2bb2	lea    	ecx, [0x3b48]
  0x2bb8	dec    	eax
  0x2bb9	call   	dword ptr [0x3821]
  === BLOCK LINK ===
    0x2bbf
=== CODE BLOCK END ===

=== CODE BLOCK ADDRESS 0x2bbf ===
  0x2bbf	nop    	dword ptr [eax + eax]
  0x2bc4	mov    	ecx, 1
  0x2bc9	dec    	eax
  0x2bca	call   	dword ptr [0x3800]
  === BLOCK LINK ===
    0x2bd0
=== CODE BLOCK END ===

=== CODE BLOCK ADDRESS 0x2bd0 ===
  0x2bd0	nop    	dword ptr [eax + eax]
  0x2bd5	mov    	ebx, eax
  0x2bd7	test   	eax, eax
  0x2bd9	js     	0x2d1f
  === BLOCK LINK ===
    0x2bdf
=== CODE BLOCK END ===

=== CODE BLOCK ADDRESS 0x2bdf ===
  0x2bdf	mov    	byte ptr [ebp - 0x40], 1
  0x2be3	dec    	esp
  0x2be4	lea    	ecx, [ebp - 9]
  0x2be7	dec    	esp
  0x2be8	lea    	eax, [ebp - 1]
  === BLOCK LINK ===
    0x2beb
=== CODE BLOCK END ===

=== CODE BLOCK ADDRESS 0x2beb ===
  0x2beb	mov    	edx, 0x2f
  0x2bf0	dec    	eax
  0x2bf1	lea    	ecx, [0x3d69]
  0x2bf7	dec    	eax
  0x2bf8	call   	dword ptr [0x37e2]
  === BLOCK LINK ===
    0x2bfe
=== CODE BLOCK END ===

=== CODE BLOCK ADDRESS 0x2bfe ===
  0x2bfe	nop    	dword ptr [eax + eax]
  0x2c03	test   	eax, eax
  0x2c05	jns    	0x2c22
  === BLOCK LINK ===
    0x2c07
=== CODE BLOCK END ===

=== CODE BLOCK ADDRESS 0x2c07 ===
  0x2c07	inc    	ebp
  0x2c08	xor    	ecx, ecx
  0x2c0a	inc    	ebp
  0x2c0b	xor    	eax, eax
  0x2c0d	inc    	ecx
  === BLOCK LINK ===
    0x2c0e
=== CODE BLOCK END ===

=== CODE BLOCK ADDRESS 0x2c0e ===
  0x2c0e	lea    	edx, [ecx + 1]
  0x2c11	mov    	ecx, 0xc000000d
  0x2c16	dec    	eax
  0x2c17	call   	dword ptr [0x35e3]
  === BLOCK LINK ===
    0x2c1d
=== CODE BLOCK END ===

=== CODE BLOCK ADDRESS 0x2c1d ===
  0x2c1d	nop    	dword ptr [eax + eax]
  0x2c22	dec    	eax
  0x2c23	mov    	ebx, dword ptr [ebp - 9]
  0x2c26	dec    	eax
  0x2c27	mov    	ecx, dword ptr [ebp - 0x49]
  === BLOCK LINK ===
    0x2c2a
=== CODE BLOCK END ===

=== CODE BLOCK ADDRESS 0x2c2a ===
  0x2c2a	dec    	eax
  0x2c2b	test   	ecx, ecx
  0x2c2d	je     	0x2c41
  === BLOCK LINK ===
    0x2c2f
=== CODE BLOCK END ===

=== CODE BLOCK ADDRESS 0x2c2f ===
  0x2c2f	dec    	eax
  0x2c30	and    	dword ptr [ebp - 0x49], 0
  0x2c34	dec    	eax
  0x2c35	mov    	eax, dword ptr [ecx]
  0x2c37	dec    	eax
  === BLOCK LINK ===
    0x2c38
=== CODE BLOCK END ===

=== CODE BLOCK ADDRESS 0x2c38 ===
  0x2c38	mov    	eax, dword ptr [eax + 0x10]
  0x2c3b	call   	dword ptr [0x393f]
  === BLOCK LINK ===
    0x2c41
=== CODE BLOCK END ===

=== CODE BLOCK ADDRESS 0x2c41 ===
  0x2c41	dec    	eax
  0x2c42	and    	dword ptr [ebp - 0x49], 0
  0x2c46	dec    	eax
  0x2c47	lea    	edx, [ebp - 0x39]
  0x2c4a	dec    	eax
  === BLOCK LINK ===
    0x2c4b
=== CODE BLOCK END ===

=== CODE BLOCK ADDRESS 0x2c4b ===
  0x2c4b	mov    	ecx, ebx
  0x2c4d	dec    	eax
  0x2c4e	call   	dword ptr [0x376c]
  === BLOCK LINK ===
    0x2c54
=== CODE BLOCK END ===

=== CODE BLOCK ADDRESS 0x2c54 ===
  0x2c54	nop    	dword ptr [eax + eax]
  0x2c59	mov    	ebx, eax
  0x2c5b	test   	eax, eax
  0x2c5d	js     	0x2d12
  === BLOCK LINK ===
    0x2c63
=== CODE BLOCK END ===

=== CODE BLOCK ADDRESS 0x2c63 ===
  0x2c63	dec    	eax
  0x2c64	mov    	eax, dword ptr [0x3d56]
  0x2c6a	dec    	eax
  0x2c6b	cmp    	eax, dword ptr [0x3d5f]
  0x2c71	jne    	0x2c8d
  === BLOCK LINK ===
    0x2c73
=== CODE BLOCK END ===

=== CODE BLOCK ADDRESS 0x2c73 ===
  0x2c73	dec    	eax
  0x2c74	mov    	eax, dword ptr [0x3d4e]
  0x2c7a	dec    	eax
  0x2c7b	cmp    	eax, dword ptr [0x3d57]
  0x2c81	jne    	0x2c8d
  === BLOCK LINK ===
    0x2c83
=== CODE BLOCK END ===

=== CODE BLOCK ADDRESS 0x2c83 ===
  0x2c83	dec    	eax
  0x2c84	mov    	eax, dword ptr [ebp - 0x39]
  0x2c87	dec    	eax
  0x2c88	mov    	dword ptr [ebp - 0x49], eax
  0x2c8b	jmp    	0x2cbb
  === BLOCK LINK ===
    0x2c8d
=== CODE BLOCK END ===

=== CODE BLOCK ADDRESS 0x2c8d ===
  0x2c8d	dec    	eax
  0x2c8e	mov    	ecx, dword ptr [ebp - 0x39]
  0x2c91	dec    	eax
  0x2c92	mov    	eax, dword ptr [ecx]
  0x2c94	dec    	esp
  === BLOCK LINK ===
    0x2c95
=== CODE BLOCK END ===

=== CODE BLOCK ADDRESS 0x2c95 ===
  0x2c95	lea    	eax, [ebp - 0x49]
  0x2c98	dec    	eax
  0x2c99	lea    	edx, [0x3d21]
  0x2c9f	dec    	eax
  0x2ca0	mov    	eax, dword ptr [eax]
  === BLOCK LINK ===
    0x2ca2
=== CODE BLOCK END ===

=== CODE BLOCK ADDRESS 0x2ca2 ===
  0x2ca2	call   	dword ptr [0x38d8]
  === BLOCK LINK ===
    0x2ca8
=== CODE BLOCK END ===

=== CODE BLOCK ADDRESS 0x2ca8 ===
  0x2ca8	mov    	ebx, eax
  0x2caa	dec    	eax
  0x2cab	mov    	ecx, dword ptr [ebp - 0x39]
  0x2cae	dec    	eax
  0x2caf	mov    	eax, dword ptr [ecx]
  === BLOCK LINK ===
    0x2cb1
=== CODE BLOCK END ===

=== CODE BLOCK ADDRESS 0x2cb1 ===
  0x2cb1	dec    	eax
  0x2cb2	mov    	eax, dword ptr [eax + 0x10]
  0x2cb5	call   	dword ptr [0x38c5]
  === BLOCK LINK ===
    0x2cbb
=== CODE BLOCK END ===

=== CODE BLOCK ADDRESS 0x2cbb ===
  0x2cbb	test   	ebx, ebx
  0x2cbd	js     	0x2d12
  === BLOCK LINK ===
    0x2cbf
=== CODE BLOCK END ===

=== CODE BLOCK ADDRESS 0x2cbf ===
  0x2cbf	dec    	eax
  0x2cc0	lea    	edx, [ebp - 0x21]
  0x2cc3	dec    	eax
  0x2cc4	mov    	ecx, edi
  0x2cc6	dec    	eax
  === BLOCK LINK ===
    0x2cc7
=== CODE BLOCK END ===

=== CODE BLOCK ADDRESS 0x2cc7 ===
  0x2cc7	call   	dword ptr [0x34db]
  === BLOCK LINK ===
    0x2ccd
=== CODE BLOCK END ===

=== CODE BLOCK ADDRESS 0x2ccd ===
  0x2ccd	nop    	dword ptr [eax + eax]
  0x2cd2	test   	eax, eax
  0x2cd4	je     	0x2cdd
  === BLOCK LINK ===
    0x2cd6
=== CODE BLOCK END ===

=== CODE BLOCK ADDRESS 0x2cd6 ===
  0x2cd6	mov    	ebx, 0x80070057
  0x2cdb	jmp    	0x2d12
  === BLOCK LINK ===
    0x2cdd
=== CODE BLOCK END ===

=== CODE BLOCK ADDRESS 0x2cdd ===
  0x2cdd	dec    	eax
  0x2cde	mov    	eax, dword ptr [ebp + 0x17]
  0x2ce1	dec    	eax
  0x2ce2	mov    	dword ptr [ebp - 0x29], eax
  0x2ce5	movups  	xmm0, xmmword ptr [ebp - 0x29]
  === BLOCK LINK ===
    0x2ce9
=== CODE BLOCK END ===

=== CODE BLOCK ADDRESS 0x2ce9 ===
  0x2ce9	movaps  	xmmword ptr [ebp - 9], xmm0
  0x2ced	movsd  	xmm1, qword ptr [ebp - 0x19]
  0x2cf2	movsd  	qword ptr [ebp + 7], xmm1
  0x2cf7	dec    	eax
  0x2cf8	mov    	ecx, dword ptr [ebp - 0x49]
  === BLOCK LINK ===
    0x2cfb
=== CODE BLOCK END ===

=== CODE BLOCK ADDRESS 0x2cfb ===
  0x2cfb	dec    	eax
  0x2cfc	mov    	eax, dword ptr [ecx]
  0x2cfe	dec    	esp
  0x2cff	lea    	eax, [ebp + 0x37]
  0x2d02	dec    	eax
  === BLOCK LINK ===
    0x2d03
=== CODE BLOCK END ===

=== CODE BLOCK ADDRESS 0x2d03 ===
  0x2d03	lea    	edx, [ebp - 9]
  0x2d06	dec    	eax
  0x2d07	mov    	eax, dword ptr [eax + 0x50]
  0x2d0a	call   	dword ptr [0x3870]
  === BLOCK LINK ===
    0x2d10
=== CODE BLOCK END ===

=== CODE BLOCK ADDRESS 0x2d10 ===
  0x2d10	mov    	ebx, eax
  0x2d12	dec    	eax
  0x2d13	call   	dword ptr [0x36af]
  === BLOCK LINK ===
    0x2d19
=== CODE BLOCK END ===

=== CODE BLOCK ADDRESS 0x2d19 ===
  0x2d19	nop    	dword ptr [eax + eax]
  0x2d1e	nop    	
  0x2d1f	dec    	eax
  0x2d20	mov    	ecx, dword ptr [ebp - 0x49]
  0x2d23	dec    	eax
  === BLOCK LINK ===
    0x2d24
=== CODE BLOCK END ===

=== CODE BLOCK ADDRESS 0x2d24 ===
  0x2d24	test   	ecx, ecx
  0x2d26	je     	0x2d3a
  === BLOCK LINK ===
    0x2d28
=== CODE BLOCK END ===

=== CODE BLOCK ADDRESS 0x2d28 ===
  0x2d28	dec    	eax
  0x2d29	and    	dword ptr [ebp - 0x49], 0
  0x2d2d	dec    	eax
  0x2d2e	mov    	edx, dword ptr [ecx]
  0x2d30	dec    	eax
  === BLOCK LINK ===
    0x2d31
=== CODE BLOCK END ===

=== CODE BLOCK ADDRESS 0x2d31 ===
  0x2d31	mov    	eax, dword ptr [edx + 0x10]
  0x2d34	call   	dword ptr [0x3846]
  === BLOCK LINK ===
    0x2d3a
=== CODE BLOCK END ===

=== CODE BLOCK ADDRESS 0x2d3a ===
  0x2d3a	mov    	eax, ebx
  0x2d3c	dec    	eax
  0x2d3d	mov    	ecx, dword ptr [ebp + 0x47]
  0x2d40	dec    	eax
  0x2d41	xor    	ecx, esp
  === BLOCK LINK ===
    0x2d43
=== CODE BLOCK END ===

=== CODE BLOCK ADDRESS 0x2d43 ===
  0x2d43	call   	0x5280
  === BLOCK LINK ===
    0x2d48
=== CODE BLOCK END ===

=== CODE BLOCK ADDRESS 0x2d48 ===
  0x2d48	dec    	esp
  0x2d49	lea    	ebx, [esp + 0xc0]
  0x2d50	dec    	ecx
  0x2d51	mov    	ebx, dword ptr [ebx + 0x18]
  0x2d54	dec    	ecx
  === BLOCK LINK ===
    0x2d55
=== CODE BLOCK END ===

=== CODE BLOCK ADDRESS 0x2d55 ===
  0x2d55	mov    	edi, dword ptr [ebx + 0x20]
  0x2d58	dec    	ecx
  0x2d59	mov    	esp, ebx
  0x2d5b	pop    	ebp
  0x2d5c	ret    	
  === BLOCK LINK ===
    0x2d5d
=== CODE BLOCK END ===

=== CODE BLOCK ADDRESS 0x1577 ===
  0x1577	dec    	eax
  0x1578	mov    	ecx, ebx
  0x157a	dec    	eax
  === BLOCK LINK ===
    0x157b
=== CODE BLOCK END ===

=== CODE BLOCK ADDRESS 0x2d5d ===
  0x2d5d	int3   	
  0x2d5e	int3   	
  0x2d5f	int3   	
  0x2d60	int3   	
  0x2d61	int3   	
  === BLOCK LINK ===
    0x2d62
=== CODE BLOCK END ===

=== CODE BLOCK ADDRESS 0x2d62 ===
  0x2d62	int3   	
  0x2d63	int3   	
  0x2d64	dec    	eax
  0x2d65	sub    	esp, 0x28
  0x2d68	cmp    	byte ptr [ecx + 1], 0
  === BLOCK LINK ===
    0x2d6c
=== CODE BLOCK END ===

=== CODE BLOCK ADDRESS 0x2d6c ===
  0x2d6c	je     	0x2d7e
  === BLOCK LINK ===
    0x2d6e
=== CODE BLOCK END ===

=== CODE BLOCK ADDRESS 0x2d6e ===
  0x2d6e	mov    	byte ptr [ecx + 1], 0
  0x2d72	dec    	eax
  0x2d73	call   	dword ptr [0x364f]
  === BLOCK LINK ===
    0x2d79
=== CODE BLOCK END ===

=== CODE BLOCK ADDRESS 0x2d79 ===
  0x2d79	nop    	dword ptr [eax + eax]
  0x2d7e	dec    	eax
  0x2d7f	add    	esp, 0x28
  0x2d82	ret    	
  0x2d83	int3   	
  === BLOCK LINK ===
    0x2d84
=== CODE BLOCK END ===

=== CODE BLOCK ADDRESS 0x2d84 ===
  0x2d84	int3   	
  0x2d85	int3   	
  0x2d86	int3   	
  0x2d87	int3   	
  0x2d88	int3   	
  === BLOCK LINK ===
    0x2d89
=== CODE BLOCK END ===

=== CODE BLOCK ADDRESS 0x2d89 ===
  0x2d89	int3   	
  0x2d8a	int3   	
  0x2d8b	int3   	
  0x2d8c	dec    	eax
  0x2d8d	sub    	esp, 0x28
  === BLOCK LINK ===
    0x2d90
=== CODE BLOCK END ===

=== CODE BLOCK ADDRESS 0x2d90 ===
  0x2d90	dec    	eax
  0x2d91	mov    	eax, ecx
  0x2d93	dec    	eax
  0x2d94	mov    	ecx, dword ptr [ecx]
  0x2d96	dec    	eax
  === BLOCK LINK ===
    0x2d97
=== CODE BLOCK END ===

=== CODE BLOCK ADDRESS 0x2d97 ===
  0x2d97	test   	ecx, ecx
  0x2d99	je     	0x2dac
  === BLOCK LINK ===
    0x2d9b
=== CODE BLOCK END ===

=== CODE BLOCK ADDRESS 0x2d9b ===
  0x2d9b	dec    	eax
  0x2d9c	and    	dword ptr [eax], 0
  0x2d9f	dec    	eax
  0x2da0	mov    	eax, dword ptr [ecx]
  0x2da2	dec    	eax
  === BLOCK LINK ===
    0x2da3
=== CODE BLOCK END ===

=== CODE BLOCK ADDRESS 0x2da3 ===
  0x2da3	mov    	eax, dword ptr [eax + 0x10]
  0x2da6	call   	dword ptr [0x37d4]
  === BLOCK LINK ===
    0x2dac
=== CODE BLOCK END ===

=== CODE BLOCK ADDRESS 0x2dac ===
  0x2dac	dec    	eax
  0x2dad	add    	esp, 0x28
  0x2db0	ret    	
  0x2db1	int3   	
  0x2db2	int3   	
  === BLOCK LINK ===
    0x2db3
=== CODE BLOCK END ===

=== CODE BLOCK ADDRESS 0x2db3 ===
  0x2db3	int3   	
  0x2db4	int3   	
  0x2db5	int3   	
  0x2db6	int3   	
  0x2db7	int3   	
  === BLOCK LINK ===
    0x2db8
=== CODE BLOCK END ===

=== CODE BLOCK ADDRESS 0x2db8 ===
  0x2db8	dec    	eax
  0x2db9	mov    	dword ptr [esp + 8], ebx
  0x2dbd	dec    	eax
  0x2dbe	mov    	dword ptr [esp + 0x10], ebp
  0x2dc2	dec    	eax
  === BLOCK LINK ===
    0x2dc3
=== CODE BLOCK END ===

=== CODE BLOCK ADDRESS 0x2dc3 ===
  0x2dc3	mov    	dword ptr [esp + 0x18], esi
  0x2dc7	push   	edi
  0x2dc8	dec    	eax
  0x2dc9	sub    	esp, 0x20
  0x2dcc	xor    	ebp, ebp
  === BLOCK LINK ===
    0x2dce
=== CODE BLOCK END ===

=== CODE BLOCK ADDRESS 0x2dce ===
  0x2dce	dec    	ecx
  0x2dcf	mov    	ebx, ecx
  0x2dd1	dec    	eax
  0x2dd2	mov    	edi, ecx
  0x2dd4	dec    	eax
  === BLOCK LINK ===
    0x2dd5
=== CODE BLOCK END ===

=== CODE BLOCK ADDRESS 0x2dd5 ===
  0x2dd5	cmp    	ecx, edx
  0x2dd7	je     	0x2e1f
  === BLOCK LINK ===
    0x2dd9
=== CODE BLOCK END ===

=== CODE BLOCK ADDRESS 0x2dd9 ===
  0x2dd9	dec    	ebp
  0x2dda	test   	eax, eax
  0x2ddc	je     	0x2e1f
  === BLOCK LINK ===
    0x2dde
=== CODE BLOCK END ===

=== CODE BLOCK ADDRESS 0x2dde ===
  0x2dde	inc    	cx
  0x2de0	cmp    	dword ptr [eax], ebp
  0x2de2	je     	0x2e1f
  === BLOCK LINK ===
    0x2de4
=== CODE BLOCK END ===

=== CODE BLOCK ADDRESS 0x2de4 ===
  0x2de4	dec    	eax
  0x2de5	or     	eax, 0xffffffff
  0x2de8	dec    	eax
  0x2de9	inc    	eax
  0x2deb	inc    	cx
  === BLOCK LINK ===
    0x2ded
=== CODE BLOCK END ===

=== CODE BLOCK ADDRESS 0x2ded ===
  0x2ded	cmp    	dword ptr [eax + eax*2], ebp
  0x2df0	jne    	0x2de8
  === BLOCK LINK ===
    0x2df2
=== CODE BLOCK END ===

=== CODE BLOCK ADDRESS 0x2df2 ===
  0x2df2	dec    	eax
  0x2df3	lea    	esi, [eax*2 + 2]
  0x2dfa	dec    	eax
  0x2dfb	sub    	edx, edi
  0x2dfd	dec    	eax
  === BLOCK LINK ===
    0x2dfe
=== CODE BLOCK END ===

=== CODE BLOCK ADDRESS 0x2dfe ===
  0x2dfe	cmp    	edx, esi
  0x2e00	jb     	0x2e1f
  === BLOCK LINK ===
    0x2e02
=== CODE BLOCK END ===

=== CODE BLOCK ADDRESS 0x2e02 ===
  0x2e02	dec    	esp
  0x2e03	mov    	ecx, esi
  0x2e05	dec    	eax
  0x2e06	call   	dword ptr [0x366c]
  === BLOCK LINK ===
    0x2e0c
=== CODE BLOCK END ===

=== CODE BLOCK ADDRESS 0x2e0c ===
  0x2e0c	nop    	dword ptr [eax + eax]
  0x2e11	dec    	eax
  0x2e12	test   	ebx, ebx
  0x2e14	je     	0x2e19
  === BLOCK LINK ===
    0x2e16
=== CODE BLOCK END ===

=== CODE BLOCK ADDRESS 0x2e16 ===
  0x2e16	dec    	eax
  0x2e17	mov    	dword ptr [ebx], edi
  0x2e19	dec    	eax
  0x2e1a	lea    	eax, [esi + edi]
  0x2e1d	jmp    	0x2e2a
  === BLOCK LINK ===
    0x2e1f
=== CODE BLOCK END ===

=== CODE BLOCK ADDRESS 0x2e1f ===
  0x2e1f	dec    	eax
  0x2e20	test   	ebx, ebx
  0x2e22	je     	0x2e27
  === BLOCK LINK ===
    0x2e24
=== CODE BLOCK END ===

=== CODE BLOCK ADDRESS 0x2e24 ===
  0x2e24	dec    	ecx
  0x2e25	mov    	dword ptr [ecx], ebp
  0x2e27	dec    	eax
  0x2e28	mov    	eax, edi
  0x2e2a	dec    	eax
  === BLOCK LINK ===
    0x2e2b
=== CODE BLOCK END ===

=== CODE BLOCK ADDRESS 0x2e2b ===
  0x2e2b	mov    	ebx, dword ptr [esp + 0x30]
  0x2e2f	dec    	eax
  0x2e30	mov    	ebp, dword ptr [esp + 0x38]
  0x2e34	dec    	eax
  0x2e35	mov    	esi, dword ptr [esp + 0x40]
  === BLOCK LINK ===
    0x2e39
=== CODE BLOCK END ===

=== CODE BLOCK ADDRESS 0x2e39 ===
  0x2e39	dec    	eax
  0x2e3a	add    	esp, 0x20
  0x2e3d	pop    	edi
  0x2e3e	ret    	
  0x2e3f	int3   	
  === BLOCK LINK ===
    0x2e40
=== CODE BLOCK END ===

=== CODE BLOCK ADDRESS 0x30d0 ===
=== CODE BLOCK END ===

=== CODE BLOCK ADDRESS 0x2e40 ===
  0x2e40	int3   	
  0x2e41	int3   	
  0x2e42	int3   	
  0x2e43	int3   	
  0x2e44	int3   	
  === BLOCK LINK ===
    0x2e45
=== CODE BLOCK END ===

=== CODE BLOCK ADDRESS 0x2e45 ===
  0x2e45	int3   	
  0x2e46	int3   	
  0x2e47	int3   	
  0x2e48	dec    	eax
  0x2e49	mov    	dword ptr [esp + 8], ebx
  === BLOCK LINK ===
    0x2e4d
=== CODE BLOCK END ===

=== CODE BLOCK ADDRESS 0x2e4d ===
  0x2e4d	dec    	eax
  0x2e4e	mov    	dword ptr [esp + 0x10], esi
  0x2e52	push   	edi
  0x2e53	dec    	eax
  0x2e54	sub    	esp, 0x20
  === BLOCK LINK ===
    0x2e57
=== CODE BLOCK END ===

=== CODE BLOCK ADDRESS 0x2e57 ===
  0x2e57	dec    	ecx
  0x2e58	mov    	ebx, ecx
  0x2e5a	dec    	eax
  0x2e5b	mov    	edi, ecx
  0x2e5d	dec    	eax
  === BLOCK LINK ===
    0x2e5e
=== CODE BLOCK END ===

=== CODE BLOCK ADDRESS 0x2e5e ===
  0x2e5e	cmp    	ecx, edx
  0x2e60	je     	0x2ea3
  === BLOCK LINK ===
    0x2e62
=== CODE BLOCK END ===

=== CODE BLOCK ADDRESS 0x2e62 ===
  0x2e62	dec    	ebp
  0x2e63	test   	eax, eax
  0x2e65	je     	0x2ea3
  === BLOCK LINK ===
    0x2e67
=== CODE BLOCK END ===

=== CODE BLOCK ADDRESS 0x2e67 ===
  0x2e67	inc    	ecx
  0x2e68	cmp    	byte ptr [eax], 0
  0x2e6b	je     	0x2ea3
  === BLOCK LINK ===
    0x2e6d
=== CODE BLOCK END ===

=== CODE BLOCK ADDRESS 0x2e6d ===
  0x2e6d	dec    	eax
  0x2e6e	or     	esi, 0xffffffff
  0x2e71	dec    	eax
  0x2e72	inc    	esi
  0x2e74	inc    	ecx
  === BLOCK LINK ===
    0x2e75
=== CODE BLOCK END ===

=== CODE BLOCK ADDRESS 0x2e75 ===
  0x2e75	cmp    	byte ptr [eax + esi], 0
  0x2e79	jne    	0x2e71
  === BLOCK LINK ===
    0x2e7b
=== CODE BLOCK END ===

=== CODE BLOCK ADDRESS 0x2e7b ===
  0x2e7b	dec    	eax
  0x2e7c	inc    	esi
  0x2e7e	dec    	eax
  0x2e7f	sub    	edx, edi
  0x2e81	dec    	eax
  === BLOCK LINK ===
    0x2e82
=== CODE BLOCK END ===

=== CODE BLOCK ADDRESS 0x2e82 ===
  0x2e82	cmp    	edx, esi
  0x2e84	jb     	0x2ea3
  === BLOCK LINK ===
    0x2e86
=== CODE BLOCK END ===

=== CODE BLOCK ADDRESS 0x2e86 ===
  0x2e86	dec    	esp
  0x2e87	mov    	ecx, esi
  0x2e89	dec    	eax
  0x2e8a	call   	dword ptr [0x35e8]
  === BLOCK LINK ===
    0x2e90
=== CODE BLOCK END ===

=== CODE BLOCK ADDRESS 0x2e90 ===
  0x2e90	nop    	dword ptr [eax + eax]
  0x2e95	dec    	eax
  0x2e96	test   	ebx, ebx
  0x2e98	je     	0x2e9d
  === BLOCK LINK ===
    0x2e9a
=== CODE BLOCK END ===

=== CODE BLOCK ADDRESS 0x2e9a ===
  0x2e9a	dec    	eax
  0x2e9b	mov    	dword ptr [ebx], edi
  0x2e9d	dec    	eax
  0x2e9e	lea    	eax, [esi + edi]
  0x2ea1	jmp    	0x2eaf
  === BLOCK LINK ===
    0x2ea3
=== CODE BLOCK END ===

=== CODE BLOCK ADDRESS 0x2ea3 ===
  0x2ea3	dec    	eax
  0x2ea4	test   	ebx, ebx
  0x2ea6	je     	0x2eac
  === BLOCK LINK ===
    0x2ea8
=== CODE BLOCK END ===

=== CODE BLOCK ADDRESS 0x2ea8 ===
  0x2ea8	dec    	ecx
  0x2ea9	and    	dword ptr [ecx], 0
  0x2eac	dec    	eax
  0x2ead	mov    	eax, edi
  0x2eaf	dec    	eax
  === BLOCK LINK ===
    0x2eb0
=== CODE BLOCK END ===

=== CODE BLOCK ADDRESS 0x2eb0 ===
  0x2eb0	mov    	ebx, dword ptr [esp + 0x30]
  0x2eb4	dec    	eax
  0x2eb5	mov    	esi, dword ptr [esp + 0x38]
  0x2eb9	dec    	eax
  0x2eba	add    	esp, 0x20
  === BLOCK LINK ===
    0x2ebd
=== CODE BLOCK END ===

=== CODE BLOCK ADDRESS 0x2ebd ===
  0x2ebd	pop    	edi
  0x2ebe	ret    	
  0x2ebf	int3   	
  0x2ec0	int3   	
  0x2ec1	int3   	
  === BLOCK LINK ===
    0x2ec2
=== CODE BLOCK END ===

=== CODE BLOCK ADDRESS 0x3170 ===
=== CODE BLOCK END ===

=== CODE BLOCK ADDRESS 0x2ec2 ===
  0x2ec2	int3   	
  0x2ec3	int3   	
  0x2ec4	int3   	
  0x2ec5	int3   	
  0x2ec6	int3   	
  === BLOCK LINK ===
    0x2ec7
=== CODE BLOCK END ===

=== CODE BLOCK ADDRESS 0x2ec7 ===
  0x2ec7	int3   	
  0x2ec8	dec    	eax
  0x2ec9	mov    	dword ptr [esp + 0x10], ebx
  0x2ecd	push   	edi
  0x2ece	dec    	eax
  === BLOCK LINK ===
    0x2ecf
=== CODE BLOCK END ===

=== CODE BLOCK ADDRESS 0x2ecf ===
  0x2ecf	sub    	esp, 0x50
  0x2ed2	dec    	eax
  0x2ed3	mov    	eax, dword ptr [0x62cf]
  0x2ed9	dec    	eax
  0x2eda	xor    	eax, esp
  === BLOCK LINK ===
    0x2edc
=== CODE BLOCK END ===

=== CODE BLOCK ADDRESS 0x2edc ===
  0x2edc	dec    	eax
  0x2edd	mov    	dword ptr [esp + 0x40], eax
  0x2ee1	dec    	eax
  0x2ee2	mov    	ebx, ecx
  0x2ee4	mov    	byte ptr [ecx + 0x82], 0x41
  === BLOCK LINK ===
    0x2eeb
=== CODE BLOCK END ===

=== CODE BLOCK ADDRESS 0x2eeb ===
  0x2eeb	xorps  	xmm0, xmm0
  0x2eee	dec    	eax
  0x2eef	lea    	ecx, [esp + 0x30]
  0x2ef3	movups  	xmmword ptr [esp + 0x30], xmm0
  0x2ef8	dec    	eax
  === BLOCK LINK ===
    0x2ef9
=== CODE BLOCK END ===

=== CODE BLOCK ADDRESS 0x2ef9 ===
  0x2ef9	call   	dword ptr [0x32a1]
  === BLOCK LINK ===
    0x2eff
=== CODE BLOCK END ===

=== CODE BLOCK ADDRESS 0x2eff ===
  0x2eff	nop    	dword ptr [eax + eax]
  0x2f04	movaps  	xmm0, xmmword ptr [esp + 0x30]
  0x2f09	dec    	eax
  0x2f0a	mov    	eax, 0
  0x2f0f	adc    	eax, dword ptr [eax]
  === BLOCK LINK ===
    0x2f11
=== CODE BLOCK END ===

=== CODE BLOCK ADDRESS 0x2f11 ===
  0x2f11	add    	byte ptr [eax], al
  0x2f13	movdqa  	xmmword ptr [esp + 0x20], xmm0
  0x2f19	xor    	edx, edx
  0x2f1b	mov    	byte ptr [ebx + 0x81], 0x11
  0x2f22	inc    	ecx
  === BLOCK LINK ===
    0x2f23
=== CODE BLOCK END ===

=== CODE BLOCK ADDRESS 0x2f23 ===
  0x2f23	mov    	eax, 0x81
  0x2f28	dec    	eax
  0x2f29	mov    	ecx, ebx
  0x2f2b	dec    	eax
  0x2f2c	mov    	dword ptr [ebx + 0x88], eax
  === BLOCK LINK ===
    0x2f32
=== CODE BLOCK END ===

=== CODE BLOCK ADDRESS 0x2f32 ===
  0x2f32	call   	0x5b36
  === BLOCK LINK ===
    0x2f37
=== CODE BLOCK END ===

=== CODE BLOCK ADDRESS 0x2f37 ===
  0x2f37	inc    	ebp
  0x2f38	xor    	ecx, ecx
  0x2f3a	dec    	esp
  0x2f3b	lea    	edx, [esp + 0x20]
  0x2f3f	inc    	ebp
  === BLOCK LINK ===
    0x2f40
=== CODE BLOCK END ===

=== CODE BLOCK ADDRESS 0x2f40 ===
  0x2f40	xor    	ebx, ebx
  0x2f42	dec    	eax
  0x2f43	lea    	edi, [0x3af7]
  0x2f49	inc    	ecx
  0x2f4a	movzx  	ecx, byte ptr [edx]
  === BLOCK LINK ===
    0x2f4d
=== CODE BLOCK END ===

=== CODE BLOCK ADDRESS 0x2f4d ===
  0x2f4d	inc    	ecx
  0x2f4e	inc    	ebx
  0x2f50	inc    	ebp
  0x2f51	movzx  	eax, byte ptr [edx + 2]
  0x2f55	mov    	eax, ecx
  === BLOCK LINK ===
    0x2f57
=== CODE BLOCK END ===

=== CODE BLOCK ADDRESS 0x2f57 ===
  0x2f57	inc    	ecx
  0x2f58	movzx  	edx, byte ptr [edx + 1]
  0x2f5c	dec    	ebp
  0x2f5d	lea    	edx, [edx + 3]
  0x2f60	dec    	eax
  === BLOCK LINK ===
    0x2f61
=== CODE BLOCK END ===

=== CODE BLOCK ADDRESS 0x2f61 ===
  0x2f61	shr    	eax, 2
  0x2f64	and    	cl, 3
  0x2f67	shl    	cl, 4
  0x2f6a	movzx  	ecx, cl
  0x2f6d	mov    	al, byte ptr [eax + edi]
  === BLOCK LINK ===
    0x2f70
=== CODE BLOCK END ===

=== CODE BLOCK ADDRESS 0x2f70 ===
  0x2f70	inc    	ecx
  0x2f71	mov    	byte ptr [ecx + ebx], al
  0x2f74	mov    	eax, edx
  0x2f76	dec    	eax
  0x2f77	shr    	eax, 4
  === BLOCK LINK ===
    0x2f7a
=== CODE BLOCK END ===

=== CODE BLOCK ADDRESS 0x2f7a ===
  0x2f7a	dec    	ebp
  0x2f7b	lea    	ecx, [ecx + 4]
  0x2f7e	dec    	eax
  0x2f7f	or     	ecx, eax
  0x2f81	and    	dl, 0xf
  === BLOCK LINK ===
    0x2f84
=== CODE BLOCK END ===

=== CODE BLOCK ADDRESS 0x2f84 ===
  0x2f84	shl    	dl, 2
  0x2f87	mov    	al, byte ptr [ecx + edi]
  0x2f8a	inc    	ecx
  0x2f8b	mov    	byte ptr [ecx + ebx - 3], al
  0x2f8f	inc    	ecx
  === BLOCK LINK ===
    0x2f90
=== CODE BLOCK END ===

=== CODE BLOCK ADDRESS 0x2f90 ===
  0x2f90	mov    	eax, eax
  0x2f92	dec    	eax
  0x2f93	shr    	eax, 6
  0x2f96	inc    	ecx
  0x2f97	and    	eax, 0x3f
  === BLOCK LINK ===
    0x2f9a
=== CODE BLOCK END ===

=== CODE BLOCK ADDRESS 0x2f9a ===
  0x2f9a	movzx  	ecx, dl
  0x2f9d	dec    	eax
  0x2f9e	or     	ecx, eax
  0x2fa0	mov    	al, byte ptr [ecx + edi]
  0x2fa3	inc    	ecx
  === BLOCK LINK ===
    0x2fa4
=== CODE BLOCK END ===

=== CODE BLOCK ADDRESS 0x2fa4 ===
  0x2fa4	mov    	cl, byte ptr [eax + edi]
  0x2fa7	inc    	ecx
  0x2fa8	mov    	byte ptr [ecx + ebx - 2], al
  0x2fac	inc    	ecx
  0x2fad	mov    	byte ptr [ecx + ebx - 1], cl
  === BLOCK LINK ===
    0x2fb1
=== CODE BLOCK END ===

=== CODE BLOCK ADDRESS 0x2fb1 ===
  0x2fb1	inc    	ecx
  0x2fb2	cmp    	ebx, 4
  0x2fb5	jb     	0x2f49
  === BLOCK LINK ===
    0x2fb7
=== CODE BLOCK END ===

=== CODE BLOCK ADDRESS 0x2fb7 ===
  0x2fb7	inc    	ecx
  0x2fb8	mov    	byte ptr [ecx + ebx], 0
  0x2fbc	dec    	eax
  0x2fbd	mov    	eax, ebx
  0x2fbf	mov    	word ptr [ebx + 0x10], 0x2e
  === BLOCK LINK ===
    0x2fc5
=== CODE BLOCK END ===

=== CODE BLOCK ADDRESS 0x2fc5 ===
  0x2fc5	dec    	eax
  0x2fc6	mov    	ecx, dword ptr [esp + 0x40]
  0x2fca	dec    	eax
  0x2fcb	xor    	ecx, esp
  0x2fcd	call   	0x5280
  === BLOCK LINK ===
    0x2fd2
=== CODE BLOCK END ===

=== CODE BLOCK ADDRESS 0x2fd2 ===
  0x2fd2	dec    	eax
  0x2fd3	mov    	ebx, dword ptr [esp + 0x68]
  0x2fd7	dec    	eax
  0x2fd8	add    	esp, 0x50
  0x2fdb	pop    	edi
  === BLOCK LINK ===
    0x2fdc
=== CODE BLOCK END ===

=== CODE BLOCK ADDRESS 0x2fdc ===
  0x2fdc	ret    	
  0x2fdd	int3   	
  0x2fde	int3   	
  0x2fdf	int3   	
  0x2fe0	int3   	
  === BLOCK LINK ===
    0x2fe1
=== CODE BLOCK END ===

=== CODE BLOCK ADDRESS 0x2fe1 ===
  0x2fe1	int3   	
  0x2fe2	int3   	
  0x2fe3	int3   	
  0x2fe4	dec    	eax
  0x2fe5	mov    	eax, esp
  === BLOCK LINK ===
    0x2fe7
=== CODE BLOCK END ===

=== CODE BLOCK ADDRESS 0x2fe7 ===
  0x2fe7	dec    	eax
  0x2fe8	mov    	dword ptr [eax + 8], ebx
  0x2feb	dec    	eax
  0x2fec	mov    	dword ptr [eax + 0x10], ebp
  0x2fef	dec    	eax
  === BLOCK LINK ===
    0x2ff0
=== CODE BLOCK END ===

=== CODE BLOCK ADDRESS 0x2ff0 ===
  0x2ff0	mov    	dword ptr [eax + 0x18], esi
  0x2ff3	dec    	eax
  0x2ff4	mov    	dword ptr [eax + 0x20], edi
  0x2ff7	inc    	ecx
  0x2ff8	push   	esi
  === BLOCK LINK ===
    0x2ff9
=== CODE BLOCK END ===

=== CODE BLOCK ADDRESS 0x2ff9 ===
  0x2ff9	dec    	eax
  0x2ffa	sub    	esp, 0x20
  0x2ffd	xor    	ebx, ebx
  0x2fff	dec    	esp
  0x3000	mov    	esi, edx
  === BLOCK LINK ===
    0x3002
=== CODE BLOCK END ===

=== CODE BLOCK ADDRESS 0x3002 ===
  0x3002	mov    	esi, ebx
  0x3004	dec    	eax
  0x3005	mov    	edi, ecx
  0x3007	.byte  	0xf0
  0x3008	dec    	eax
  === BLOCK LINK ===
    0x3009
=== CODE BLOCK END ===

=== CODE BLOCK ADDRESS 0x3009 ===
  0x3009	xadd   	dword ptr [ecx + 0x88], esi
  0x3010	dec    	eax
  0x3011	test   	esi, esi
  0x3013	inc    	eax
  0x3014	sets   	ch
  === BLOCK LINK ===
    0x3017
=== CODE BLOCK END ===

=== CODE BLOCK ADDRESS 0x3017 ===
  0x3017	dec    	eax
  0x3018	test   	edx, edx
  0x301a	je     	0x3069
  === BLOCK LINK ===
    0x301c
=== CODE BLOCK END ===

=== CODE BLOCK ADDRESS 0x301c ===
  0x301c	mov    	byte ptr [edx], bl
  0x301e	dec    	esp
  0x301f	mov    	eax, ecx
  0x3021	movzx  	edx, byte ptr [ecx + 0x82]
  0x3028	dec    	eax
  === BLOCK LINK ===
    0x3029
=== CODE BLOCK END ===

=== CODE BLOCK ADDRESS 0x3029 ===
  0x3029	mov    	eax, esi
  0x302b	dec    	eax
  0x302c	shr    	eax, 0x20
  0x302f	dec    	ecx
  0x3030	mov    	ecx, esi
  === BLOCK LINK ===
    0x3032
=== CODE BLOCK END ===

=== CODE BLOCK ADDRESS 0x3032 ===
  0x3032	inc    	esp
  0x3033	movzx  	ecx, ax
  0x3036	dec    	eax
  0x3037	call   	dword ptr [0x343b]
  === BLOCK LINK ===
    0x303d
=== CODE BLOCK END ===

=== CODE BLOCK ADDRESS 0x303d ===
  0x303d	nop    	dword ptr [eax + eax]
  0x3042	test   	eax, eax
  0x3044	jne    	0x3069
  === BLOCK LINK ===
    0x3046
=== CODE BLOCK END ===

=== CODE BLOCK ADDRESS 0x3046 ===
  0x3046	inc    	eax
  0x3047	test   	ch, ch
  0x3049	je     	0x3087
  === BLOCK LINK ===
    0x304b
=== CODE BLOCK END ===

=== CODE BLOCK ADDRESS 0x304b ===
  0x304b	test   	esi, esi
  0x304d	jne    	0x3087
  === BLOCK LINK ===
    0x304f
=== CODE BLOCK END ===

=== CODE BLOCK ADDRESS 0x304f ===
  0x304f	movzx  	eax, byte ptr [edi + 0x81]
  0x3056	inc    	edx
  0x3057	mov    	byte ptr [eax + esi], 0x21
  0x305b	movzx  	eax, byte ptr [edi + 0x81]
  0x3062	inc    	edx
  === BLOCK LINK ===
    0x3063
=== CODE BLOCK END ===

=== CODE BLOCK ADDRESS 0x3063 ===
  0x3063	mov    	byte ptr [eax + esi + 1], bl
  0x3067	mov    	bl, 1
  0x3069	dec    	eax
  0x306a	mov    	ebp, dword ptr [esp + 0x38]
  0x306e	mov    	al, bl
  === BLOCK LINK ===
    0x3070
=== CODE BLOCK END ===

=== CODE BLOCK ADDRESS 0x3070 ===
  0x3070	dec    	eax
  0x3071	mov    	ebx, dword ptr [esp + 0x30]
  0x3075	dec    	eax
  0x3076	mov    	esi, dword ptr [esp + 0x40]
  0x307a	dec    	eax
  === BLOCK LINK ===
    0x307b
=== CODE BLOCK END ===

=== CODE BLOCK ADDRESS 0x307b ===
  0x307b	mov    	edi, dword ptr [esp + 0x48]
  0x307f	dec    	eax
  0x3080	add    	esp, 0x20
  0x3083	inc    	ecx
  0x3084	pop    	esi
  === BLOCK LINK ===
    0x3085
=== CODE BLOCK END ===

=== CODE BLOCK ADDRESS 0x3085 ===
  0x3085	ret    	
  0x3086	int3   	
  0x3087	movzx  	eax, byte ptr [edi + 0x81]
  0x308e	inc    	esp
  0x308f	mov    	ecx, esi
  === BLOCK LINK ===
    0x3091
=== CODE BLOCK END ===

=== CODE BLOCK ADDRESS 0x3091 ===
  0x3091	movzx  	edx, byte ptr [edi + 0x82]
  0x3098	dec    	eax
  0x3099	sub    	edx, eax
  0x309b	dec    	edx
  0x309c	lea    	ecx, [eax + esi]
  === BLOCK LINK ===
    0x309f
=== CODE BLOCK END ===

=== CODE BLOCK ADDRESS 0x309f ===
  0x309f	inc    	eax
  0x30a0	test   	ch, ch
  0x30a2	je     	0x30be
  === BLOCK LINK ===
    0x30a4
=== CODE BLOCK END ===

=== CODE BLOCK ADDRESS 0x30a4 ===
  0x30a4	dec    	esp
  0x30a5	lea    	eax, [0x3935]
  0x30ab	dec    	eax
  0x30ac	call   	dword ptr [0x339e]
  === BLOCK LINK ===
    0x30b2
=== CODE BLOCK END ===

=== CODE BLOCK ADDRESS 0x30b2 ===
  0x30b2	nop    	dword ptr [eax + eax]
  0x30b7	cmp    	eax, -1
  0x30ba	jne    	0x3067
  === BLOCK LINK ===
    0x30bc
=== CODE BLOCK END ===

=== CODE BLOCK ADDRESS 0x30bc ===
  0x30bc	jmp    	0x3069
  === BLOCK LINK ===
    0x30be
=== CODE BLOCK END ===

=== CODE BLOCK ADDRESS 0x30be ===
  0x30be	dec    	esp
  0x30bf	lea    	eax, [0x391f]
  0x30c5	jmp    	0x30ab
  === BLOCK LINK ===
    0x30c7
=== CODE BLOCK END ===

=== CODE BLOCK ADDRESS 0x30c7 ===
  0x30c7	int3   	
  0x30c8	int3   	
  0x30c9	int3   	
  0x30ca	int3   	
  0x30cb	int3   	
  === BLOCK LINK ===
    0x30cc
=== CODE BLOCK END ===

=== CODE BLOCK ADDRESS 0x30cc ===
  0x30cc	int3   	
  0x30cd	int3   	
  0x30ce	int3   	
  0x30cf	int3   	
  0x30d0	dec    	eax
  === BLOCK LINK ===
    0x30d1
=== CODE BLOCK END ===

=== CODE BLOCK ADDRESS 0x30d1 ===
  0x30d1	sub    	esp, 0x28
  0x30d4	dec    	eax
  0x30d6	mov    	eax, dword ptr [0x58]
  0x30dd	mov    	edx, 4
  0x30e2	dec    	eax
  === BLOCK LINK ===
    0x30e3
=== CODE BLOCK END ===

=== CODE BLOCK ADDRESS 0x30e3 ===
  0x30e3	mov    	ecx, dword ptr [eax]
  0x30e5	mov    	eax, dword ptr [edx + ecx]
  0x30e8	cmp    	dword ptr [0x6806], eax
  0x30ee	jg     	0x3117
  === BLOCK LINK ===
    0x30f0
=== CODE BLOCK END ===

=== CODE BLOCK ADDRESS 0x30f0 ===
  0x30f0	dec    	eax
  0x30f1	lea    	eax, [0x5f79]
  0x30f7	dec    	eax
  0x30f8	add    	esp, 0x28
  0x30fb	ret    	
  === BLOCK LINK ===
    0x30fc
=== CODE BLOCK END ===

=== CODE BLOCK ADDRESS 0x30fc ===
  0x30fc	int3   	
  0x30fd	dec    	eax
  0x30fe	lea    	ecx, [0x2bcc]
  0x3104	call   	0x568c
  === BLOCK LINK ===
    0x3109
=== CODE BLOCK END ===

=== CODE BLOCK ADDRESS 0x3109 ===
  0x3109	dec    	eax
  0x310a	lea    	ecx, [0x67e4]
  0x3110	call   	0x58b4
  === BLOCK LINK ===
    0x3115
=== CODE BLOCK END ===

=== CODE BLOCK ADDRESS 0x3115 ===
  0x3115	jmp    	0x30f0
  === BLOCK LINK ===
    0x3117
=== CODE BLOCK END ===

=== CODE BLOCK ADDRESS 0x3117 ===
  0x3117	dec    	eax
  0x3118	lea    	ecx, [0x67d6]
  0x311e	call   	0x5924
  === BLOCK LINK ===
    0x3123
=== CODE BLOCK END ===

=== CODE BLOCK ADDRESS 0x3123 ===
  0x3123	cmp    	dword ptr [0x67ca], -1
  0x312a	jne    	0x30f0
  === BLOCK LINK ===
    0x312c
=== CODE BLOCK END ===

=== CODE BLOCK ADDRESS 0x312c ===
  0x312c	dec    	eax
  0x312d	lea    	edx, [0x355d]
  0x3133	mov    	ecx, 0x90
  0x3138	call   	0x59a4
  === BLOCK LINK ===
    0x313d
=== CODE BLOCK END ===

=== CODE BLOCK ADDRESS 0x313d ===
  0x313d	dec    	eax
  0x313e	test   	eax, eax
  0x3140	je     	0x314a
  === BLOCK LINK ===
    0x3142
=== CODE BLOCK END ===

=== CODE BLOCK ADDRESS 0x3142 ===
  0x3142	dec    	eax
  0x3143	mov    	ecx, eax
  0x3145	call   	0x2ec8
  === BLOCK LINK ===
    0x314a
=== CODE BLOCK END ===

=== CODE BLOCK ADDRESS 0x314a ===
  0x314a	dec    	eax
  0x314b	mov    	dword ptr [0x5fb7], eax
  0x3151	dec    	eax
  0x3152	test   	eax, eax
  0x3154	je     	0x30fd
  === BLOCK LINK ===
    0x3156
=== CODE BLOCK END ===

=== CODE BLOCK ADDRESS 0x3156 ===
  0x3156	dec    	eax
  0x3157	lea    	edx, [0x5f23]
  0x315d	dec    	eax
  0x315e	mov    	ecx, eax
  0x3160	call   	0x2fe4
  === BLOCK LINK ===
    0x3165
=== CODE BLOCK END ===

=== CODE BLOCK ADDRESS 0x3165 ===
  0x3165	jmp    	0x30fd
  === BLOCK LINK ===
    0x3167
=== CODE BLOCK END ===

=== CODE BLOCK ADDRESS 0x3167 ===
  0x3167	int3   	
  0x3168	int3   	
  0x3169	int3   	
  0x316a	int3   	
  0x316b	int3   	
  === BLOCK LINK ===
    0x316c
=== CODE BLOCK END ===

=== CODE BLOCK ADDRESS 0x316c ===
  0x316c	int3   	
  0x316d	int3   	
  0x316e	int3   	
  0x316f	int3   	
  0x3170	dec    	eax
  === BLOCK LINK ===
    0x3171
=== CODE BLOCK END ===

=== CODE BLOCK ADDRESS 0x3171 ===
  0x3171	mov    	dword ptr [esp + 0x10], ebx
  0x3175	push   	edi
  0x3176	dec    	eax
  0x3177	sub    	esp, 0x110
  0x317d	dec    	eax
  === BLOCK LINK ===
    0x317e
=== CODE BLOCK END ===

=== CODE BLOCK ADDRESS 0x317e ===
  0x317e	mov    	eax, dword ptr [0x6024]
  0x3184	dec    	eax
  0x3185	xor    	eax, esp
  0x3187	dec    	eax
  0x3188	mov    	dword ptr [esp + 0x100], eax
  === BLOCK LINK ===
    0x318f
=== CODE BLOCK END ===

=== CODE BLOCK ADDRESS 0x318f ===
  0x318f	cmp    	dword ptr [0x5e6a], 5
  0x3196	dec    	eax
  0x3197	mov    	ebx, edx
  0x3199	jbe    	0x3285
  === BLOCK LINK ===
    0x319f
=== CODE BLOCK END ===

=== CODE BLOCK ADDRESS 0x319f ===
  0x319f	dec    	eax
  0x31a0	mov    	edx, 0
  0x31a5	add    	byte ptr [eax], al
  0x31a8	add    	byte ptr [eax - 0x7b], cl
  0x31ab	adc    	eax, 0x5e60
  === BLOCK LINK ===
    0x31b0
=== CODE BLOCK END ===

=== CODE BLOCK ADDRESS 0x31b0 ===
  0x31b0	je     	0x3285
  === BLOCK LINK ===
    0x31b6
=== CODE BLOCK END ===

=== CODE BLOCK ADDRESS 0x31b6 ===
  0x31b6	dec    	eax
  0x31b7	mov    	eax, dword ptr [0x5e5b]
  0x31bd	dec    	eax
  0x31be	and    	eax, edx
  0x31c0	dec    	eax
  === BLOCK LINK ===
    0x31c1
=== CODE BLOCK END ===

=== CODE BLOCK ADDRESS 0x31c1 ===
  0x31c1	cmp    	eax, dword ptr [0x5e51]
  0x31c7	jne    	0x3285
  === BLOCK LINK ===
    0x31cd
=== CODE BLOCK END ===

=== CODE BLOCK ADDRESS 0x31cd ===
  0x31cd	dec    	eax
  0x31ce	mov    	ecx, dword ptr [ecx + 0x98]
  0x31d4	xor    	edi, edi
  0x31d6	dec    	eax
  0x31d7	test   	ecx, ecx
  === BLOCK LINK ===
    0x31d9
=== CODE BLOCK END ===

=== CODE BLOCK ADDRESS 0x31d9 ===
  0x31d9	je     	0x31e7
  === BLOCK LINK ===
    0x31db
=== CODE BLOCK END ===

=== CODE BLOCK ADDRESS 0x31db ===
  0x31db	dec    	eax
  0x31dc	lea    	edx, [esp + 0x30]
  0x31e0	call   	0x2fe4
  === BLOCK LINK ===
    0x31e5
=== CODE BLOCK END ===

=== CODE BLOCK ADDRESS 0x31e5 ===
  0x31e5	jmp    	0x31ec
  === BLOCK LINK ===
    0x31e7
=== CODE BLOCK END ===

=== CODE BLOCK ADDRESS 0x31e7 ===
  0x31e7	inc    	eax
  0x31e8	mov    	byte ptr [esp + 0x30], bh
  0x31ec	dec    	eax
  0x31ed	or     	ecx, 0xffffffff
  0x31f0	dec    	eax
  === BLOCK LINK ===
    0x31f1
=== CODE BLOCK END ===

=== CODE BLOCK ADDRESS 0x31f1 ===
  0x31f1	lea    	edx, [esp + 0x30]
  0x31f5	dec    	eax
  0x31f6	mov    	eax, ecx
  0x31f8	dec    	eax
  0x31f9	inc    	eax
  === BLOCK LINK ===
    0x31fb
=== CODE BLOCK END ===

=== CODE BLOCK ADDRESS 0x31fb ===
  0x31fb	inc    	eax
  0x31fc	cmp    	byte ptr [edx + eax], bh
  0x31ff	jne    	0x31f8
  === BLOCK LINK ===
    0x3201
=== CODE BLOCK END ===

=== CODE BLOCK ADDRESS 0x3201 ===
  0x3201	inc    	eax
  0x3203	mov    	dword ptr [esp + 0xfc], edi
  0x320a	mov    	dword ptr [esp + 0xf8], eax
  0x3211	dec    	eax
  0x3212	lea    	edx, [esp + 0x30]
  === BLOCK LINK ===
    0x3216
=== CODE BLOCK END ===

=== CODE BLOCK ADDRESS 0x3216 ===
  0x3216	dec    	eax
  0x3217	mov    	dword ptr [esp + 0xf0], edx
  0x321e	dec    	eax
  0x321f	test   	ebx, ebx
  0x3221	je     	0x3235
  === BLOCK LINK ===
    0x3223
=== CODE BLOCK END ===

=== CODE BLOCK ADDRESS 0x3223 ===
  0x3223	dec    	eax
  0x3224	inc    	ecx
  0x3226	cmp    	word ptr [ebx + ecx*2], di
  0x322a	jne    	0x3223
  === BLOCK LINK ===
    0x322c
=== CODE BLOCK END ===

=== CODE BLOCK ADDRESS 0x322c ===
  0x322c	lea    	eax, [ecx*2 + 2]
  0x3233	jmp    	0x3241
  === BLOCK LINK ===
    0x3235
=== CODE BLOCK END ===

=== CODE BLOCK ADDRESS 0x3235 ===
  0x3235	dec    	eax
  0x3236	lea    	ebx, [0x3484]
  0x323c	mov    	eax, 2
  0x3241	mov    	dword ptr [esp + 0xe8], eax
  0x3248	dec    	eax
  === BLOCK LINK ===
    0x3249
=== CODE BLOCK END ===

=== CODE BLOCK ADDRESS 0x3249 ===
  0x3249	lea    	edx, [0x3b6e]
  0x324f	dec    	eax
  0x3250	lea    	eax, [esp + 0xc0]
  0x3257	dec    	eax
  0x3258	mov    	dword ptr [esp + 0xe0], ebx
  === BLOCK LINK ===
    0x325f
=== CODE BLOCK END ===

=== CODE BLOCK ADDRESS 0x325f ===
  0x325f	dec    	eax
  0x3260	mov    	dword ptr [esp + 0x28], eax
  0x3264	dec    	eax
  0x3265	lea    	ecx, [0x5d95]
  0x326b	inc    	ebp
  === BLOCK LINK ===
    0x326c
=== CODE BLOCK END ===

=== CODE BLOCK ADDRESS 0x326c ===
  0x326c	xor    	ecx, ecx
  0x326e	mov    	dword ptr [esp + 0x20], 4
  0x3276	inc    	ebp
  0x3277	xor    	eax, eax
  0x3279	mov    	dword ptr [esp + 0xec], edi
  === BLOCK LINK ===
    0x3280
=== CODE BLOCK END ===

=== CODE BLOCK ADDRESS 0x3280 ===
  0x3280	call   	0x1090
  === BLOCK LINK ===
    0x3285
=== CODE BLOCK END ===

=== CODE BLOCK ADDRESS 0x3285 ===
  0x3285	dec    	eax
  0x3286	mov    	ecx, dword ptr [esp + 0x100]
  0x328d	dec    	eax
  0x328e	xor    	ecx, esp
  0x3290	call   	0x5280
  === BLOCK LINK ===
    0x3295
=== CODE BLOCK END ===

=== CODE BLOCK ADDRESS 0x3295 ===
  0x3295	dec    	eax
  0x3296	mov    	ebx, dword ptr [esp + 0x128]
  0x329d	dec    	eax
  0x329e	add    	esp, 0x110
  0x32a4	pop    	edi
  === BLOCK LINK ===
    0x32a5
=== CODE BLOCK END ===

=== CODE BLOCK ADDRESS 0x32a5 ===
  0x32a5	ret    	
  0x32a6	int3   	
  0x32a7	int3   	
  0x32a8	int3   	
  0x32a9	int3   	
  === BLOCK LINK ===
    0x32aa
=== CODE BLOCK END ===

=== CODE BLOCK ADDRESS 0x32aa ===
  0x32aa	int3   	
  0x32ab	int3   	
  0x32ac	int3   	
  0x32ad	int3   	
  0x32ae	int3   	
  === BLOCK LINK ===
    0x32af
=== CODE BLOCK END ===

=== CODE BLOCK ADDRESS 0x32af ===
  0x32af	int3   	
  === BLOCK LINK ===
    0x32b0
=== CODE BLOCK END ===

=== CODE BLOCK ADDRESS 0x32ba ===
  0x32ba	push   	ebp
  0x32bb	dec    	eax
  0x32bc	lea    	ebp, [esp - 0x20]
  0x32c0	dec    	eax
  0x32c1	sub    	esp, 0x120
  === BLOCK LINK ===
    0x32c7
=== CODE BLOCK END ===

=== CODE BLOCK ADDRESS 0x32c7 ===
  0x32c7	dec    	eax
  0x32c8	mov    	eax, dword ptr [0x5eda]
  0x32ce	dec    	eax
  0x32cf	xor    	eax, esp
  0x32d1	dec    	eax
  === BLOCK LINK ===
    0x32d2
=== CODE BLOCK END ===

=== CODE BLOCK ADDRESS 0x32d2 ===
  0x32d2	mov    	dword ptr [ebp + 0x10], eax
  0x32d5	cmp    	dword ptr [0x5d24], 5
  0x32dc	dec    	eax
  0x32dd	mov    	ebx, edx
  0x32df	jbe    	0x33c2
  === BLOCK LINK ===
    0x32e5
=== CODE BLOCK END ===

=== CODE BLOCK ADDRESS 0x32e5 ===
  0x32e5	dec    	ecx
  0x32e6	mov    	eax, 0
  0x32eb	add    	byte ptr [eax], al
  0x32ee	add    	byte ptr [ebp + eax*4 + 5], cl
  0x32f2	sbb    	bl, byte ptr [ebp]
  === BLOCK LINK ===
    0x32f5
=== CODE BLOCK END ===

=== CODE BLOCK ADDRESS 0x32f5 ===
  0x32f5	add    	byte ptr [edi], cl
  0x32f7	test   	dh, al
  0x32f9	add    	byte ptr [eax], al
  0x32fb	add    	byte ptr [eax - 0x75], cl
  0x32fe	add    	eax, 0x5d15
  === BLOCK LINK ===
    0x3303
=== CODE BLOCK END ===

=== CODE BLOCK ADDRESS 0x3303 ===
  0x3303	dec    	ecx
  0x3304	and    	eax, eax
  0x3306	dec    	eax
  0x3307	cmp    	eax, dword ptr [0x5d0b]
  0x330d	jne    	0x33c2
  === BLOCK LINK ===
    0x3313
=== CODE BLOCK END ===

=== CODE BLOCK ADDRESS 0x3313 ===
  0x3313	dec    	eax
  0x3314	mov    	ecx, dword ptr [ecx + 0x98]
  0x331a	xor    	edi, edi
  0x331c	dec    	eax
  0x331d	test   	ecx, ecx
  === BLOCK LINK ===
    0x331f
=== CODE BLOCK END ===

=== CODE BLOCK ADDRESS 0x331f ===
  0x331f	je     	0x332d
  === BLOCK LINK ===
    0x3321
=== CODE BLOCK END ===

=== CODE BLOCK ADDRESS 0x3321 ===
  0x3321	dec    	eax
  0x3322	lea    	edx, [esp + 0x30]
  0x3326	call   	0x2fe4
  === BLOCK LINK ===
    0x332b
=== CODE BLOCK END ===

=== CODE BLOCK ADDRESS 0x332b ===
  0x332b	jmp    	0x3332
  === BLOCK LINK ===
    0x332d
=== CODE BLOCK END ===

=== CODE BLOCK ADDRESS 0x332d ===
  0x332d	inc    	eax
  0x332e	mov    	byte ptr [esp + 0x30], bh
  0x3332	dec    	eax
  0x3333	or     	eax, 0xffffffff
  0x3336	dec    	eax
  === BLOCK LINK ===
    0x3337
=== CODE BLOCK END ===

=== CODE BLOCK ADDRESS 0x3337 ===
  0x3337	lea    	edx, [esp + 0x30]
  0x333b	dec    	eax
  0x333c	mov    	ecx, eax
  0x333e	dec    	eax
  0x333f	inc    	ecx
  === BLOCK LINK ===
    0x3341
=== CODE BLOCK END ===

=== CODE BLOCK ADDRESS 0x3341 ===
  0x3341	inc    	eax
  0x3342	cmp    	byte ptr [edx + ecx], bh
  0x3345	jne    	0x333e
  === BLOCK LINK ===
    0x3347
=== CODE BLOCK END ===

=== CODE BLOCK ADDRESS 0x3347 ===
  0x3347	inc    	ecx
  0x3349	mov    	dword ptr [ebp + 0xc], edi
  0x334c	mov    	dword ptr [ebp + 8], ecx
  0x334f	dec    	eax
  0x3350	lea    	ecx, [0x369a]
  === BLOCK LINK ===
    0x3356
=== CODE BLOCK END ===

=== CODE BLOCK ADDRESS 0x3356 ===
  0x3356	dec    	eax
  0x3357	mov    	dword ptr [ebp - 0x10], ecx
  0x335a	dec    	eax
  0x335b	lea    	edx, [esp + 0x30]
  0x335f	dec    	eax
  === BLOCK LINK ===
    0x3360
=== CODE BLOCK END ===

=== CODE BLOCK ADDRESS 0x3360 ===
  0x3360	mov    	dword ptr [ebp], edx
  0x3363	dec    	eax
  0x3364	mov    	dword ptr [ebp - 8], 0x4e
  0x336b	dec    	eax
  0x336c	test   	ebx, ebx
  === BLOCK LINK ===
    0x336e
=== CODE BLOCK END ===

=== CODE BLOCK ADDRESS 0x336e ===
  0x336e	je     	0x3382
  === BLOCK LINK ===
    0x3370
=== CODE BLOCK END ===

=== CODE BLOCK ADDRESS 0x3370 ===
  0x3370	dec    	eax
  0x3371	inc    	eax
  0x3373	cmp    	word ptr [ebx + eax*2], di
  0x3377	jne    	0x3370
  === BLOCK LINK ===
    0x3379
=== CODE BLOCK END ===

=== CODE BLOCK ADDRESS 0x3379 ===
  0x3379	lea    	ecx, [eax*2 + 2]
  0x3380	jmp    	0x338e
  === BLOCK LINK ===
    0x3382
=== CODE BLOCK END ===

=== CODE BLOCK ADDRESS 0x3382 ===
  0x3382	dec    	eax
  0x3383	lea    	ebx, [0x3337]
  0x3389	mov    	ecx, 2
  0x338e	dec    	eax
  0x338f	lea    	eax, [ebp - 0x40]
  === BLOCK LINK ===
    0x3392
=== CODE BLOCK END ===

=== CODE BLOCK ADDRESS 0x3392 ===
  0x3392	mov    	dword ptr [ebp - 0x18], ecx
  0x3395	dec    	eax
  0x3396	mov    	dword ptr [esp + 0x28], eax
  0x339a	dec    	eax
  0x339b	lea    	edx, [0x39b2]
  === BLOCK LINK ===
    0x33a1
=== CODE BLOCK END ===

=== CODE BLOCK ADDRESS 0x33a1 ===
  0x33a1	inc    	ebp
  0x33a2	xor    	ecx, ecx
  0x33a4	mov    	dword ptr [esp + 0x20], 5
  0x33ac	inc    	ebp
  0x33ad	xor    	eax, eax
  === BLOCK LINK ===
    0x33af
=== CODE BLOCK END ===

=== CODE BLOCK ADDRESS 0x33af ===
  0x33af	dec    	eax
  0x33b0	mov    	dword ptr [ebp - 0x20], ebx
  0x33b3	dec    	eax
  0x33b4	lea    	ecx, [0x5c46]
  0x33ba	mov    	dword ptr [ebp - 0x14], edi
  === BLOCK LINK ===
    0x33bd
=== CODE BLOCK END ===

=== CODE BLOCK ADDRESS 0x33bd ===
  0x33bd	call   	0x1090
  === BLOCK LINK ===
    0x33c2
=== CODE BLOCK END ===

=== CODE BLOCK ADDRESS 0x33c2 ===
  0x33c2	dec    	eax
  0x33c3	mov    	ecx, dword ptr [ebp + 0x10]
  0x33c6	dec    	eax
  0x33c7	xor    	ecx, esp
  0x33c9	call   	0x5280
  === BLOCK LINK ===
    0x33ce
=== CODE BLOCK END ===

=== CODE BLOCK ADDRESS 0x33ce ===
  0x33ce	dec    	esp
  0x33cf	lea    	ebx, [esp + 0x120]
  0x33d6	dec    	ecx
  0x33d7	mov    	ebx, dword ptr [ebx + 0x18]
  0x33da	dec    	ecx
  === BLOCK LINK ===
    0x33db
=== CODE BLOCK END ===

=== CODE BLOCK ADDRESS 0x33db ===
  0x33db	mov    	edi, dword ptr [ebx + 0x20]
  0x33de	dec    	ecx
  0x33df	mov    	esp, ebx
  0x33e1	pop    	ebp
  0x33e2	ret    	
  === BLOCK LINK ===
    0x33e3
=== CODE BLOCK END ===

=== CODE BLOCK ADDRESS 0x1971 ===
  0x1971	dec    	eax
  0x1972	mov    	esi, 0
  0x1977	add    	byte ptr [eax], ah
  0x1979	add    	byte ptr [eax], al
  === BLOCK LINK ===
    0x197b
=== CODE BLOCK END ===

=== CODE BLOCK ADDRESS 0x33e3 ===
  0x33e3	int3   	
  0x33e4	int3   	
  0x33e5	int3   	
  0x33e6	int3   	
  0x33e7	int3   	
  === BLOCK LINK ===
    0x33e8
=== CODE BLOCK END ===

=== CODE BLOCK ADDRESS 0x33e8 ===
  0x33e8	int3   	
  0x33e9	int3   	
  0x33ea	int3   	
  0x33eb	int3   	
  0x33ec	mov    	edx, 0x104
  === BLOCK LINK ===
    0x33f1
=== CODE BLOCK END ===

=== CODE BLOCK ADDRESS 0x33f1 ===
  0x33f1	dec    	ebp
  0x33f2	mov    	edx, eax
  0x33f4	inc    	esp
  0x33f5	mov    	ecx, edx
  0x33f7	dec    	eax
  === BLOCK LINK ===
    0x33f8
=== CODE BLOCK END ===

=== CODE BLOCK ADDRESS 0x33f8 ===
  0x33f8	mov    	eax, ecx
  0x33fa	inc    	ebp
  0x33fb	xor    	ebx, ebx
  0x33fd	inc    	sp
  0x33ff	cmp    	dword ptr [eax], ebx
  === BLOCK LINK ===
    0x3401
=== CODE BLOCK END ===

=== CODE BLOCK ADDRESS 0x3401 ===
  0x3401	je     	0x340d
  === BLOCK LINK ===
    0x3403
=== CODE BLOCK END ===

=== CODE BLOCK ADDRESS 0x3403 ===
  0x3403	dec    	eax
  0x3404	add    	eax, 2
  0x3407	dec    	ecx
  0x3408	sub    	ecx, 1
  0x340b	jne    	0x33fd
  === BLOCK LINK ===
    0x340d
=== CODE BLOCK END ===

=== CODE BLOCK ADDRESS 0x340d ===
  0x340d	dec    	ecx
  0x340e	mov    	eax, ecx
  0x3410	dec    	eax
  0x3411	neg    	eax
  0x3413	sbb    	eax, eax
  === BLOCK LINK ===
    0x3415
=== CODE BLOCK END ===

=== CODE BLOCK ADDRESS 0x3415 ===
  0x3415	not    	eax
  0x3417	and    	eax, 0x80070057
  0x341c	dec    	ebp
  0x341d	test   	ecx, ecx
  0x341f	je     	0x3429
  === BLOCK LINK ===
    0x3421
=== CODE BLOCK END ===

=== CODE BLOCK ADDRESS 0x3421 ===
  0x3421	dec    	esp
  0x3422	mov    	eax, edx
  0x3424	dec    	ebp
  0x3425	sub    	eax, ecx
  0x3427	jmp    	0x342c
  === BLOCK LINK ===
    0x3429
=== CODE BLOCK END ===

=== CODE BLOCK ADDRESS 0x3429 ===
  0x3429	dec    	ebp
  0x342a	mov    	eax, ebx
  0x342c	dec    	ebp
  0x342d	test   	ecx, ecx
  0x342f	je     	0x3483
  === BLOCK LINK ===
    0x3431
=== CODE BLOCK END ===

=== CODE BLOCK ADDRESS 0x3431 ===
  0x3431	dec    	edx
  0x3432	lea    	ecx, [ecx + eax*2]
  0x3435	dec    	ecx
  0x3436	sub    	edx, eax
  0x3438	je     	0x3468
  === BLOCK LINK ===
    0x343a
=== CODE BLOCK END ===

=== CODE BLOCK ADDRESS 0x343a ===
  0x343a	dec    	ecx
  0x343b	lea    	eax, [eax + 0x7ffffefa]
  0x3441	dec    	eax
  0x3442	add    	eax, edx
  0x3444	dec    	esp
  === BLOCK LINK ===
    0x3445
=== CODE BLOCK END ===

=== CODE BLOCK ADDRESS 0x3445 ===
  0x3445	sub    	edx, ecx
  0x3447	dec    	eax
  0x3448	test   	eax, eax
  0x344a	je     	0x3468
  === BLOCK LINK ===
    0x344c
=== CODE BLOCK END ===

=== CODE BLOCK ADDRESS 0x344c ===
  0x344c	inc    	ebp
  0x344d	movzx  	eax, word ptr [edx + ecx]
  0x3451	inc    	bp
  0x3453	test   	eax, eax
  0x3455	je     	0x3468
  === BLOCK LINK ===
    0x3457
=== CODE BLOCK END ===

=== CODE BLOCK ADDRESS 0x3457 ===
  0x3457	inc    	sp
  0x3459	mov    	dword ptr [ecx], eax
  0x345b	dec    	eax
  0x345c	dec    	eax
  0x345e	dec    	eax
  === BLOCK LINK ===
    0x345f
=== CODE BLOCK END ===

=== CODE BLOCK ADDRESS 0x345f ===
  0x345f	add    	ecx, 2
  0x3462	dec    	eax
  0x3463	sub    	edx, 1
  0x3466	jne    	0x3447
  === BLOCK LINK ===
    0x3468
=== CODE BLOCK END ===

=== CODE BLOCK ADDRESS 0x3468 ===
  0x3468	dec    	eax
  0x3469	test   	edx, edx
  0x346b	dec    	eax
  0x346c	lea    	eax, [ecx - 2]
  0x346f	dec    	eax
  === BLOCK LINK ===
    0x3470
=== CODE BLOCK END ===

=== CODE BLOCK ADDRESS 0x3470 ===
  0x3470	cmovne  	eax, ecx
  0x3473	dec    	eax
  0x3474	neg    	edx
  0x3476	inc    	sp
  0x3478	mov    	dword ptr [eax], ebx
  === BLOCK LINK ===
    0x347a
=== CODE BLOCK END ===

=== CODE BLOCK ADDRESS 0x347a ===
  0x347a	sbb    	eax, eax
  0x347c	not    	eax
  0x347e	and    	eax, 0x8007007a
  0x3483	ret    	
  0x3484	int3   	
  === BLOCK LINK ===
    0x3485
=== CODE BLOCK END ===

=== CODE BLOCK ADDRESS 0x16a4 ===
  0x16a4	inc    	ecx
  0x16a5	mov    	esp, 1
  0x16aa	inc    	esp
  0x16ab	mov    	dword ptr [esp + 0x34], esp
  === BLOCK LINK ===
    0x16af
=== CODE BLOCK END ===

=== CODE BLOCK ADDRESS 0x3485 ===
  0x3485	int3   	
  0x3486	int3   	
  0x3487	int3   	
  0x3488	int3   	
  0x3489	int3   	
  === BLOCK LINK ===
    0x348a
=== CODE BLOCK END ===

=== CODE BLOCK ADDRESS 0x348a ===
  0x348a	int3   	
  0x348b	int3   	
  0x348c	mov    	dword ptr [0x643e], ecx
  0x3492	mov    	eax, 1
  0x3497	lock xadd  	dword ptr [0x6441], eax
  === BLOCK LINK ===
    0x349f
=== CODE BLOCK END ===

=== CODE BLOCK ADDRESS 0x349f ===
  0x349f	inc    	eax
  0x34a1	ret    	
  0x34a2	int3   	
  0x34a3	int3   	
  0x34a4	int3   	
  === BLOCK LINK ===
    0x34a5
=== CODE BLOCK END ===

=== CODE BLOCK ADDRESS 0x34a5 ===
  0x34a5	int3   	
  0x34a6	int3   	
  0x34a7	int3   	
  0x34a8	int3   	
  0x34a9	int3   	
  === BLOCK LINK ===
    0x34aa
=== CODE BLOCK END ===

=== CODE BLOCK ADDRESS 0x34aa ===
  0x34aa	int3   	
  0x34ab	int3   	
  0x34ac	mov    	dword ptr [0x6432], ecx
  0x34b2	mov    	eax, 1
  0x34b7	lock xadd  	dword ptr [0x642d], eax
  === BLOCK LINK ===
    0x34bf
=== CODE BLOCK END ===

=== CODE BLOCK ADDRESS 0x34bf ===
  0x34bf	inc    	eax
  0x34c1	ret    	
  0x34c2	int3   	
  0x34c3	int3   	
  0x34c4	int3   	
  === BLOCK LINK ===
    0x34c5
=== CODE BLOCK END ===

=== CODE BLOCK ADDRESS 0x34c5 ===
  0x34c5	int3   	
  0x34c6	int3   	
  0x34c7	int3   	
  0x34c8	int3   	
  0x34c9	int3   	
  === BLOCK LINK ===
    0x34ca
=== CODE BLOCK END ===

=== CODE BLOCK ADDRESS 0x34ca ===
  0x34ca	int3   	
  0x34cb	int3   	
  0x34cc	mov    	dword ptr [0x641e], ecx
  0x34d2	mov    	eax, 1
  0x34d7	lock xadd  	dword ptr [0x63fd], eax
  === BLOCK LINK ===
    0x34df
=== CODE BLOCK END ===

=== CODE BLOCK ADDRESS 0x34df ===
  0x34df	inc    	eax
  0x34e1	ret    	
  0x34e2	int3   	
  0x34e3	int3   	
  0x34e4	int3   	
  === BLOCK LINK ===
    0x34e5
=== CODE BLOCK END ===

=== CODE BLOCK ADDRESS 0x34e5 ===
  0x34e5	int3   	
  0x34e6	int3   	
  0x34e7	int3   	
  0x34e8	int3   	
  0x34e9	int3   	
  === BLOCK LINK ===
    0x34ea
=== CODE BLOCK END ===

=== CODE BLOCK ADDRESS 0x34ea ===
  0x34ea	int3   	
  0x34eb	int3   	
  0x34ec	dec    	eax
  0x34ed	sub    	esp, 0x28
  0x34f0	dec    	eax
  === BLOCK LINK ===
    0x34f1
=== CODE BLOCK END ===

=== CODE BLOCK ADDRESS 0x34f1 ===
  0x34f1	mov    	eax, dword ptr [0x6349]
  0x34f7	dec    	eax
  0x34f8	test   	eax, eax
  0x34fa	je     	0x3504
  === BLOCK LINK ===
    0x34fc
=== CODE BLOCK END ===

=== CODE BLOCK ADDRESS 0x34fc ===
  0x34fc	xor    	edx, edx
  0x34fe	call   	dword ptr [0x307c]
  === BLOCK LINK ===
    0x3504
=== CODE BLOCK END ===

=== CODE BLOCK ADDRESS 0x3504 ===
  0x3504	mov    	ecx, 7
  0x3509	int    	0x29
  0x350b	dec    	eax
  0x350c	add    	esp, 0x28
  0x350f	ret    	
  === BLOCK LINK ===
    0x3510
=== CODE BLOCK END ===

=== CODE BLOCK ADDRESS 0x1749 ===
=== CODE BLOCK END ===

=== CODE BLOCK ADDRESS 0x3510 ===
  0x3510	int3   	
  0x3511	int3   	
  0x3512	int3   	
  0x3513	int3   	
  0x3514	int3   	
  === BLOCK LINK ===
    0x3515
=== CODE BLOCK END ===

=== CODE BLOCK ADDRESS 0x3515 ===
  0x3515	int3   	
  0x3516	int3   	
  0x3517	int3   	
  0x3518	dec    	eax
  0x3519	sub    	esp, 0x48
  === BLOCK LINK ===
    0x351c
=== CODE BLOCK END ===

=== CODE BLOCK ADDRESS 0x351c ===
  0x351c	dec    	eax
  0x351d	call   	dword ptr [0x2ced]
  === BLOCK LINK ===
    0x3523
=== CODE BLOCK END ===

=== CODE BLOCK ADDRESS 0x3523 ===
  0x3523	nop    	dword ptr [eax + eax]
  0x3528	mov    	ecx, eax
  0x352a	test   	eax, eax
  0x352c	jne    	0x3562
  === BLOCK LINK ===
    0x352e
=== CODE BLOCK END ===

=== CODE BLOCK ADDRESS 0x352e ===
  0x352e	dec    	eax
  0x352f	mov    	eax, dword ptr [esp + 0x48]
  0x3533	inc    	ebp
  0x3534	xor    	ecx, ecx
  0x3536	mov    	dword ptr [esp + 0x38], 0x8007029c
  === BLOCK LINK ===
    0x353e
=== CODE BLOCK END ===

=== CODE BLOCK ADDRESS 0x353e ===
  0x353e	inc    	ebp
  0x353f	xor    	eax, eax
  0x3541	mov    	dword ptr [esp + 0x30], 2
  0x3549	xor    	edx, edx
  0x354b	dec    	eax
  === BLOCK LINK ===
    0x354c
=== CODE BLOCK END ===

=== CODE BLOCK ADDRESS 0x354c ===
  0x354c	mov    	dword ptr [esp + 0x28], eax
  0x3550	xor    	ecx, ecx
  0x3552	dec    	eax
  0x3553	and    	dword ptr [esp + 0x20], 0
  0x3558	call   	0x3a04
  === BLOCK LINK ===
    0x355d
=== CODE BLOCK END ===

=== CODE BLOCK ADDRESS 0x355d ===
  0x355d	mov    	ecx, 0x29c
  0x3562	movzx  	eax, cx
  0x3565	or     	eax, 0x80070000
  0x356a	test   	ecx, ecx
  0x356c	cmovle  	eax, ecx
  === BLOCK LINK ===
    0x356f
=== CODE BLOCK END ===

=== CODE BLOCK ADDRESS 0x356f ===
  0x356f	dec    	eax
  0x3570	add    	esp, 0x48
  0x3573	ret    	
  0x3574	int3   	
  0x3575	int3   	
  === BLOCK LINK ===
    0x3576
=== CODE BLOCK END ===

=== CODE BLOCK ADDRESS 0x3576 ===
  0x3576	int3   	
  0x3577	int3   	
  0x3578	int3   	
  0x3579	int3   	
  0x357a	int3   	
  === BLOCK LINK ===
    0x357b
=== CODE BLOCK END ===

=== CODE BLOCK ADDRESS 0x357b ===
  0x357b	int3   	
  0x357c	dec    	eax
  0x357d	sub    	esp, 0x28
  0x3580	dec    	eax
  0x3581	mov    	eax, dword ptr [0x62b1]
  === BLOCK LINK ===
    0x3587
=== CODE BLOCK END ===

=== CODE BLOCK ADDRESS 0x3587 ===
  0x3587	dec    	eax
  0x3588	test   	eax, eax
  0x358a	je     	0x3592
  === BLOCK LINK ===
    0x358c
=== CODE BLOCK END ===

=== CODE BLOCK ADDRESS 0x358c ===
  0x358c	call   	dword ptr [0x2fee]
  === BLOCK LINK ===
    0x3592
=== CODE BLOCK END ===

=== CODE BLOCK ADDRESS 0x3592 ===
  0x3592	dec    	eax
  0x3593	add    	esp, 0x28
  0x3596	ret    	
  0x3597	int3   	
  0x3598	int3   	
  === BLOCK LINK ===
    0x3599
=== CODE BLOCK END ===

=== CODE BLOCK ADDRESS 0x3599 ===
  0x3599	int3   	
  0x359a	int3   	
  0x359b	int3   	
  0x359c	int3   	
  0x359d	int3   	
  === BLOCK LINK ===
    0x359e
=== CODE BLOCK END ===

=== CODE BLOCK ADDRESS 0x359e ===
  0x359e	int3   	
  0x359f	int3   	
  0x35a0	inc    	eax
  0x35a1	push   	ebx
  0x35a2	push   	ebp
  === BLOCK LINK ===
    0x35a3
=== CODE BLOCK END ===

=== CODE BLOCK ADDRESS 0x35a3 ===
  0x35a3	push   	esi
  0x35a4	push   	edi
  0x35a5	inc    	ecx
  0x35a6	push   	esp
  0x35a7	inc    	ecx
  === BLOCK LINK ===
    0x35a8
=== CODE BLOCK END ===

=== CODE BLOCK ADDRESS 0x35a8 ===
  0x35a8	push   	ebp
  0x35a9	inc    	ecx
  0x35aa	push   	esi
  0x35ab	inc    	ecx
  0x35ac	push   	edi
  === BLOCK LINK ===
    0x35ad
=== CODE BLOCK END ===

=== CODE BLOCK ADDRESS 0x35ad ===
  0x35ad	dec    	eax
  0x35ae	sub    	esp, 0x68
  0x35b1	dec    	eax
  0x35b2	mov    	eax, dword ptr [esp + 0x110]
  0x35b9	inc    	ebp
  === BLOCK LINK ===
    0x35ba
=== CODE BLOCK END ===

=== CODE BLOCK ADDRESS 0x35ba ===
  0x35ba	xor    	edx, edx
  0x35bc	inc    	esp
  0x35bd	mov    	esi, dword ptr [esp + 0xe0]
  0x35c4	dec    	ebp
  0x35c5	mov    	ebp, eax
  === BLOCK LINK ===
    0x35c7
=== CODE BLOCK END ===

=== CODE BLOCK ADDRESS 0x35c7 ===
  0x35c7	dec    	eax
  0x35c8	mov    	esi, dword ptr [esp + 0x100]
  0x35cf	inc    	esp
  0x35d0	mov    	esp, edx
  0x35d2	dec    	eax
  === BLOCK LINK ===
    0x35d3
=== CODE BLOCK END ===

=== CODE BLOCK ADDRESS 0x35d3 ===
  0x35d3	mov    	edx, dword ptr [esp + 0xd0]
  0x35da	dec    	esp
  0x35db	mov    	edi, ecx
  0x35dd	dec    	esp
  0x35de	mov    	eax, dword ptr [esp + 0xd8]
  === BLOCK LINK ===
    0x35e5
=== CODE BLOCK END ===

=== CODE BLOCK ADDRESS 0x35e5 ===
  0x35e5	inc    	ecx
  0x35e6	mov    	ebp, edx
  0x35e8	dec    	eax
  0x35e9	mov    	ebx, dword ptr [esp + 0x120]
  0x35f0	inc    	ecx
  === BLOCK LINK ===
    0x35f1
=== CODE BLOCK END ===

=== CODE BLOCK ADDRESS 0x35f1 ===
  0x35f1	mov    	ecx, esi
  0x35f3	mov    	edi, dword ptr [esp + 0xe8]
  0x35fa	inc    	sp
  0x35fc	mov    	dword ptr [esi], edx
  0x35fe	inc    	esp
  === BLOCK LINK ===
    0x35ff
=== CODE BLOCK END ===

=== CODE BLOCK ADDRESS 0x35ff ===
  0x35ff	mov    	byte ptr [eax], dl
  0x3601	dec    	esp
  0x3602	mov    	dword ptr [esp + 0x48], ecx
  0x3606	dec    	eax
  0x3607	mov    	dword ptr [esp + 0x40], edx
  === BLOCK LINK ===
    0x360b
=== CODE BLOCK END ===

=== CODE BLOCK ADDRESS 0x360b ===
  0x360b	dec    	esp
  0x360c	mov    	dword ptr [esp + 0x50], eax
  0x3610	dec    	eax
  0x3611	mov    	dword ptr [esp + 0x58], eax
  0x3615	inc    	ebp
  === BLOCK LINK ===
    0x3616
=== CODE BLOCK END ===

=== CODE BLOCK ADDRESS 0x3616 ===
  0x3616	test   	esi, esi
  0x3618	je     	0x3671
  === BLOCK LINK ===
    0x361a
=== CODE BLOCK END ===

=== CODE BLOCK ADDRESS 0x361a ===
  0x361a	sub    	ecx, 1
  0x361d	je     	0x3668
  === BLOCK LINK ===
    0x361f
=== CODE BLOCK END ===

=== CODE BLOCK ADDRESS 0x361f ===
  0x361f	sub    	ecx, 1
  0x3622	je     	0x3632
  === BLOCK LINK ===
    0x3624
=== CODE BLOCK END ===

=== CODE BLOCK ADDRESS 0x3624 ===
  0x3624	cmp    	ecx, 1
  0x3627	jne    	0x367a
  === BLOCK LINK ===
    0x3629
=== CODE BLOCK END ===

=== CODE BLOCK ADDRESS 0x3629 ===
  0x3629	mov    	ecx, edi
  0x362b	call   	0x2000
  === BLOCK LINK ===
    0x3630
=== CODE BLOCK END ===

=== CODE BLOCK ADDRESS 0x3630 ===
  0x3630	jmp    	0x3678
  === BLOCK LINK ===
    0x3632
=== CODE BLOCK END ===

=== CODE BLOCK ADDRESS 0x3632 ===
  0x3632	test   	edi, edi
  0x3634	js     	0x365f
  === BLOCK LINK ===
    0x3636
=== CODE BLOCK END ===

=== CODE BLOCK ADDRESS 0x3636 ===
  0x3636	mov    	edi, 0x8007029c
  0x363b	dec    	ecx
  0x363c	mov    	ecx, edi
  0x363e	mov    	dword ptr [esp + 0x38], edi
  0x3642	mov    	dword ptr [esp + 0x30], 2
  === BLOCK LINK ===
    0x364a
=== CODE BLOCK END ===

=== CODE BLOCK ADDRESS 0x364a ===
  0x364a	dec    	esp
  0x364b	mov    	dword ptr [esp + 0x28], eax
  0x364f	dec    	ebp
  0x3650	mov    	eax, ebp
  0x3652	dec    	eax
  === BLOCK LINK ===
    0x3653
=== CODE BLOCK END ===

=== CODE BLOCK ADDRESS 0x3653 ===
  0x3653	mov    	dword ptr [esp + 0x20], edx
  0x3657	inc    	ecx
  0x3658	mov    	edx, esp
  0x365a	call   	0x3a04
  === BLOCK LINK ===
    0x365f
=== CODE BLOCK END ===

=== CODE BLOCK ADDRESS 0x365f ===
  0x365f	mov    	ecx, edi
  0x3661	call   	0x34cc
  === BLOCK LINK ===
    0x3666
=== CODE BLOCK END ===

=== CODE BLOCK ADDRESS 0x3666 ===
  0x3666	jmp    	0x3678
  === BLOCK LINK ===
    0x3668
=== CODE BLOCK END ===

=== CODE BLOCK ADDRESS 0x3668 ===
  0x3668	mov    	ecx, edi
  0x366a	call   	0x34ac
  === BLOCK LINK ===
    0x366f
=== CODE BLOCK END ===

=== CODE BLOCK ADDRESS 0x366f ===
  0x366f	jmp    	0x3678
  === BLOCK LINK ===
    0x3671
=== CODE BLOCK END ===

=== CODE BLOCK ADDRESS 0x3671 ===
  0x3671	mov    	ecx, edi
  0x3673	call   	0x348c
  === BLOCK LINK ===
    0x3678
=== CODE BLOCK END ===

=== CODE BLOCK ADDRESS 0x3678 ===
  0x3678	mov    	ebp, eax
  0x367a	inc    	esp
  0x367b	mov    	dword ptr [ebx], esi
  0x367d	mov    	eax, 1
  0x3682	mov    	dword ptr [ebx + 4], edi
  === BLOCK LINK ===
    0x3685
=== CODE BLOCK END ===

=== CODE BLOCK ADDRESS 0x3685 ===
  0x3685	lock xadd  	dword ptr [0x625b], eax
  0x368d	inc    	eax
  0x368f	xor    	edi, edi
  0x3691	mov    	dword ptr [ebx + 8], eax
  0x3694	dec    	eax
  === BLOCK LINK ===
    0x3695
=== CODE BLOCK END ===

=== CODE BLOCK ADDRESS 0x3695 ===
  0x3695	mov    	eax, dword ptr [esp + 0xf0]
  0x369c	dec    	eax
  0x369d	test   	eax, eax
  0x369f	je     	0x36a6
  === BLOCK LINK ===
    0x36a1
=== CODE BLOCK END ===

=== CODE BLOCK ADDRESS 0x36a1 ===
  0x36a1	cmp    	word ptr [eax], di
  0x36a4	jne    	0x36a9
  === BLOCK LINK ===
    0x36a6
=== CODE BLOCK END ===

=== CODE BLOCK ADDRESS 0x36a6 ===
  0x36a6	dec    	eax
  0x36a7	mov    	eax, edi
  0x36a9	dec    	eax
  0x36aa	mov    	dword ptr [ebx + 0x10], eax
  0x36ad	dec    	eax
  === BLOCK LINK ===
    0x36ae
=== CODE BLOCK END ===

=== CODE BLOCK ADDRESS 0x36ae ===
  0x36ae	call   	dword ptr [0x2c24]
  === BLOCK LINK ===
    0x36b4
=== CODE BLOCK END ===

=== CODE BLOCK ADDRESS 0x36b4 ===
  0x36b4	nop    	dword ptr [eax + eax]
  0x36b9	xorps  	xmm0, xmm0
  0x36bc	dec    	esp
  0x36bd	mov    	dword ptr [ebx + 0x30], ebp
  0x36c0	mov    	dword ptr [ebx + 0x18], eax
  === BLOCK LINK ===
    0x36c3
=== CODE BLOCK END ===

=== CODE BLOCK ADDRESS 0x36c3 ===
  0x36c3	dec    	eax
  0x36c4	mov    	eax, dword ptr [esp + 0x40]
  0x36c8	dec    	eax
  0x36c9	mov    	dword ptr [ebx + 0x20], eax
  0x36cc	dec    	eax
  === BLOCK LINK ===
    0x36cd
=== CODE BLOCK END ===

=== CODE BLOCK ADDRESS 0x36cd ===
  0x36cd	mov    	eax, dword ptr [esp + 0x48]
  0x36d1	dec    	eax
  0x36d2	mov    	dword ptr [ebx + 0x28], eax
  0x36d5	dec    	eax
  0x36d6	mov    	eax, dword ptr [esp + 0x50]
  === BLOCK LINK ===
    0x36da
=== CODE BLOCK END ===

=== CODE BLOCK ADDRESS 0x36da ===
  0x36da	dec    	eax
  0x36db	mov    	dword ptr [ebx + 0x80], eax
  0x36e1	dec    	eax
  0x36e2	mov    	eax, dword ptr [0x6160]
  0x36e8	inc    	esp
  === BLOCK LINK ===
    0x36e9
=== CODE BLOCK END ===

=== CODE BLOCK ADDRESS 0x36e9 ===
  0x36e9	mov    	dword ptr [ebx + 0x38], esp
  0x36ec	mov    	dword ptr [ebx + 0x3c], ebp
  0x36ef	dec    	esp
  0x36f0	mov    	dword ptr [ebx + 0x88], edi
  0x36f6	dec    	eax
  === BLOCK LINK ===
    0x36f7
=== CODE BLOCK END ===

=== CODE BLOCK ADDRESS 0x36f7 ===
  0x36f7	mov    	dword ptr [ebx + 0x40], edi
  0x36fa	movups  	xmmword ptr [ebx + 0x48], xmm0
  0x36fe	movups  	xmmword ptr [ebx + 0x58], xmm0
  0x3702	movups  	xmmword ptr [ebx + 0x68], xmm0
  0x3706	dec    	eax
  === BLOCK LINK ===
    0x3707
=== CODE BLOCK END ===

=== CODE BLOCK ADDRESS 0x3707 ===
  0x3707	test   	eax, eax
  0x3709	je     	0x3713
  === BLOCK LINK ===
    0x370b
=== CODE BLOCK END ===

=== CODE BLOCK ADDRESS 0x370b ===
  0x370b	call   	dword ptr [0x2e6f]
  === BLOCK LINK ===
    0x3711
=== CODE BLOCK END ===

=== CODE BLOCK ADDRESS 0x3711 ===
  0x3711	jmp    	0x3716
  === BLOCK LINK ===
    0x3713
=== CODE BLOCK END ===

=== CODE BLOCK ADDRESS 0x3713 ===
  0x3713	dec    	eax
  0x3714	mov    	eax, edi
  0x3716	dec    	eax
  0x3717	mov    	dword ptr [ebx + 0x78], eax
  0x371a	dec    	eax
  === BLOCK LINK ===
    0x371b
=== CODE BLOCK END ===

=== CODE BLOCK ADDRESS 0x371b ===
  0x371b	mov    	eax, dword ptr [0x60df]
  0x3721	dec    	eax
  0x3722	test   	eax, eax
  0x3724	je     	0x373a
  === BLOCK LINK ===
    0x3726
=== CODE BLOCK END ===

=== CODE BLOCK ADDRESS 0x3726 ===
  0x3726	dec    	eax
  0x3727	mov    	edx, dword ptr [esp + 0x58]
  0x372b	inc    	ecx
  0x372c	mov    	eax, 0x400
  0x3731	dec    	eax
  === BLOCK LINK ===
    0x3732
=== CODE BLOCK END ===

=== CODE BLOCK ADDRESS 0x3732 ===
  0x3732	mov    	ecx, ebx
  0x3734	call   	dword ptr [0x2e46]
  === BLOCK LINK ===
    0x373a
=== CODE BLOCK END ===

=== CODE BLOCK ADDRESS 0x373a ===
  0x373a	dec    	eax
  0x373b	mov    	eax, dword ptr [0x60af]
  0x3741	dec    	eax
  0x3742	test   	eax, eax
  0x3744	je     	0x374f
  === BLOCK LINK ===
    0x3746
=== CODE BLOCK END ===

=== CODE BLOCK ADDRESS 0x3746 ===
  0x3746	dec    	eax
  0x3747	mov    	ecx, ebx
  0x3749	call   	dword ptr [0x2e31]
  === BLOCK LINK ===
    0x374f
=== CODE BLOCK END ===

=== CODE BLOCK ADDRESS 0x374f ===
  0x374f	dec    	eax
  0x3750	mov    	eax, dword ptr [0x60d2]
  0x3756	dec    	eax
  0x3757	test   	eax, eax
  0x3759	je     	0x3764
  === BLOCK LINK ===
    0x375b
=== CODE BLOCK END ===

=== CODE BLOCK ADDRESS 0x375b ===
  0x375b	dec    	eax
  0x375c	mov    	ecx, ebx
  0x375e	call   	dword ptr [0x2e1c]
  === BLOCK LINK ===
    0x3764
=== CODE BLOCK END ===

=== CODE BLOCK ADDRESS 0x3764 ===
  0x3764	cmp    	dword ptr [ebx + 4], edi
  0x3767	jl     	0x377a
  === BLOCK LINK ===
    0x3769
=== CODE BLOCK END ===

=== CODE BLOCK ADDRESS 0x3769 ===
  0x3769	inc    	ecx
  0x376a	cmp    	esi, 3
  0x376d	jne    	0x384e
  === BLOCK LINK ===
    0x3773
=== CODE BLOCK END ===

=== CODE BLOCK ADDRESS 0x3773 ===
  0x3773	mov    	dword ptr [ebx + 4], 0x8000ffff
  0x377a	inc    	eax
  0x377b	cmp    	byte ptr [0x604f], bh
  0x3781	jne    	0x37d6
  === BLOCK LINK ===
    0x3783
=== CODE BLOCK END ===

=== CODE BLOCK ADDRESS 0x3783 ===
  0x3783	dec    	eax
  0x3784	mov    	eax, dword ptr [0x603e]
  0x378a	dec    	eax
  0x378b	test   	eax, eax
  0x378d	je     	0x379a
  === BLOCK LINK ===
    0x378f
=== CODE BLOCK END ===

=== CODE BLOCK ADDRESS 0x378f ===
  0x378f	call   	dword ptr [0x2deb]
  === BLOCK LINK ===
    0x3795
=== CODE BLOCK END ===

=== CODE BLOCK ADDRESS 0x3795 ===
  0x3795	movzx  	ecx, al
  0x3798	jmp    	0x37ad
  === BLOCK LINK ===
    0x379a
=== CODE BLOCK END ===

=== CODE BLOCK ADDRESS 0x379a ===
  0x379a	dec    	eax
  0x379b	call   	dword ptr [0x2a47]
  === BLOCK LINK ===
    0x37a1
=== CODE BLOCK END ===

=== CODE BLOCK ADDRESS 0x37a1 ===
  0x37a1	nop    	dword ptr [eax + eax]
  0x37a6	test   	eax, eax
  0x37a8	mov    	ecx, edi
  0x37aa	setne  	cl
  0x37ad	test   	ecx, ecx
  === BLOCK LINK ===
    0x37af
=== CODE BLOCK END ===

=== CODE BLOCK ADDRESS 0x37af ===
  0x37af	jne    	0x37d6
  === BLOCK LINK ===
    0x37b1
=== CODE BLOCK END ===

=== CODE BLOCK ADDRESS 0x37b1 ===
  0x37b1	dec    	eax
  0x37b2	mov    	eax, dword ptr [0x6020]
  0x37b8	dec    	eax
  0x37b9	test   	eax, eax
  0x37bb	je     	0x3821
  === BLOCK LINK ===
    0x37bd
=== CODE BLOCK END ===

=== CODE BLOCK ADDRESS 0x37bd ===
  0x37bd	inc    	eax
  0x37be	cmp    	byte ptr [0x601d], bh
  0x37c4	jne    	0x3821
  === BLOCK LINK ===
    0x37c6
=== CODE BLOCK END ===

=== CODE BLOCK ADDRESS 0x37c6 ===
  0x37c6	inc    	ebp
  0x37c7	xor    	eax, eax
  0x37c9	xor    	edx, edx
  0x37cb	dec    	eax
  0x37cc	mov    	ecx, ebx
  === BLOCK LINK ===
    0x37ce
=== CODE BLOCK END ===

=== CODE BLOCK ADDRESS 0x37ce ===
  0x37ce	call   	dword ptr [0x2dac]
  === BLOCK LINK ===
    0x37d4
=== CODE BLOCK END ===

=== CODE BLOCK ADDRESS 0x37d4 ===
  0x37d4	jmp    	0x3821
  === BLOCK LINK ===
    0x37d6
=== CODE BLOCK END ===

=== CODE BLOCK ADDRESS 0x37d6 ===
  0x37d6	dec    	eax
  0x37d7	mov    	eax, dword ptr [0x5ffb]
  0x37dd	mov    	ebp, 0x800
  0x37e2	dec    	eax
  0x37e3	test   	eax, eax
  === BLOCK LINK ===
    0x37e5
=== CODE BLOCK END ===

=== CODE BLOCK ADDRESS 0x37e5 ===
  0x37e5	je     	0x37ff
  === BLOCK LINK ===
    0x37e7
=== CODE BLOCK END ===

=== CODE BLOCK ADDRESS 0x37e7 ===
  0x37e7	inc    	eax
  0x37e8	cmp    	byte ptr [0x5ff3], bh
  0x37ee	jne    	0x37ff
  === BLOCK LINK ===
    0x37f0
=== CODE BLOCK END ===

=== CODE BLOCK ADDRESS 0x37f0 ===
  0x37f0	inc    	esp
  0x37f1	mov    	eax, ebp
  0x37f3	dec    	eax
  0x37f4	mov    	edx, esi
  0x37f6	dec    	eax
  === BLOCK LINK ===
    0x37f7
=== CODE BLOCK END ===

=== CODE BLOCK ADDRESS 0x37f7 ===
  0x37f7	mov    	ecx, ebx
  0x37f9	call   	dword ptr [0x2d81]
  === BLOCK LINK ===
    0x37ff
=== CODE BLOCK END ===

=== CODE BLOCK ADDRESS 0x37ff ===
  0x37ff	cmp    	word ptr [esi], di
  0x3802	jne    	0x3812
  === BLOCK LINK ===
    0x3804
=== CODE BLOCK END ===

=== CODE BLOCK ADDRESS 0x3804 ===
  0x3804	dec    	esp
  0x3805	mov    	eax, ebx
  0x3807	dec    	eax
  0x3808	mov    	edx, ebp
  0x380a	dec    	eax
  === BLOCK LINK ===
    0x380b
=== CODE BLOCK END ===

=== CODE BLOCK ADDRESS 0x380b ===
  0x380b	mov    	ecx, esi
  0x380d	call   	0x1c80
  === BLOCK LINK ===
    0x3812
=== CODE BLOCK END ===

=== CODE BLOCK ADDRESS 0x3812 ===
  0x3812	dec    	eax
  0x3813	mov    	ecx, esi
  0x3815	dec    	eax
  0x3816	call   	dword ptr [0x29d4]
  === BLOCK LINK ===
    0x381c
=== CODE BLOCK END ===

=== CODE BLOCK ADDRESS 0x381c ===
  0x381c	nop    	dword ptr [eax + eax]
  0x3821	inc    	eax
  0x3822	cmp    	byte ptr [0x5fb8], bh
  0x3828	je     	0x383c
  === BLOCK LINK ===
    0x382a
=== CODE BLOCK END ===

=== CODE BLOCK ADDRESS 0x382a ===
  0x382a	dec    	eax
  0x382b	mov    	eax, dword ptr [0x5fdf]
  0x3831	dec    	eax
  0x3832	test   	eax, eax
  0x3834	je     	0x383c
  === BLOCK LINK ===
    0x3836
=== CODE BLOCK END ===

=== CODE BLOCK ADDRESS 0x3836 ===
  0x3836	call   	dword ptr [0x2d44]
  === BLOCK LINK ===
    0x383c
=== CODE BLOCK END ===

=== CODE BLOCK ADDRESS 0x383c ===
  0x383c	dec    	eax
  0x383d	add    	esp, 0x68
  0x3840	inc    	ecx
  0x3841	pop    	edi
  0x3842	inc    	ecx
  === BLOCK LINK ===
    0x3843
=== CODE BLOCK END ===

=== CODE BLOCK ADDRESS 0x3843 ===
  0x3843	pop    	esi
  0x3844	inc    	ecx
  0x3845	pop    	ebp
  0x3846	inc    	ecx
  0x3847	pop    	esp
  === BLOCK LINK ===
    0x3848
=== CODE BLOCK END ===

=== CODE BLOCK ADDRESS 0x3848 ===
  0x3848	pop    	edi
  0x3849	pop    	esi
  0x384a	pop    	ebp
  0x384b	pop    	ebx
  0x384c	ret    	
  === BLOCK LINK ===
    0x384d
=== CODE BLOCK END ===

=== CODE BLOCK ADDRESS 0x384d ===
  0x384d	int3   	
  0x384e	call   	0x3c88
  === BLOCK LINK ===
    0x3853
=== CODE BLOCK END ===

=== CODE BLOCK ADDRESS 0x3853 ===
  0x3853	int3   	
  0x3854	int3   	
  0x3855	int3   	
  0x3856	int3   	
  0x3857	int3   	
  === BLOCK LINK ===
    0x3858
=== CODE BLOCK END ===

=== CODE BLOCK ADDRESS 0x3858 ===
  0x3858	int3   	
  0x3859	int3   	
  0x385a	int3   	
  0x385b	int3   	
  0x385c	inc    	eax
  === BLOCK LINK ===
    0x385d
=== CODE BLOCK END ===

=== CODE BLOCK ADDRESS 0x385d ===
  0x385d	push   	ebx
  0x385e	dec    	eax
  0x385f	sub    	esp, 0xc0
  0x3865	dec    	eax
  0x3866	mov    	eax, dword ptr [0x5fe4]
  === BLOCK LINK ===
    0x386c
=== CODE BLOCK END ===

=== CODE BLOCK ADDRESS 0x386c ===
  0x386c	dec    	eax
  0x386d	mov    	ebx, ecx
  0x386f	dec    	eax
  0x3870	test   	eax, eax
  0x3872	je     	0x387a
  === BLOCK LINK ===
    0x3874
=== CODE BLOCK END ===

=== CODE BLOCK ADDRESS 0x3874 ===
  0x3874	call   	dword ptr [0x2d06]
  === BLOCK LINK ===
    0x387a
=== CODE BLOCK END ===

=== CODE BLOCK ADDRESS 0x387a ===
  0x387a	xor    	edx, edx
  0x387c	dec    	eax
  0x387d	lea    	ecx, [esp + 0x20]
  0x3881	inc    	ecx
  0x3882	mov    	eax, 0x98
  === BLOCK LINK ===
    0x3887
=== CODE BLOCK END ===

=== CODE BLOCK ADDRESS 0x3887 ===
  0x3887	call   	0x5b36
  === BLOCK LINK ===
    0x388c
=== CODE BLOCK END ===

=== CODE BLOCK ADDRESS 0x388c ===
  0x388c	dec    	eax
  0x388d	mov    	ecx, dword ptr [ebx + 0x80]
  0x3893	inc    	ecx
  0x3894	mov    	eax, 1
  0x3899	inc    	esp
  === BLOCK LINK ===
    0x389a
=== CODE BLOCK END ===

=== CODE BLOCK ADDRESS 0x389a ===
  0x389a	mov    	dword ptr [esp + 0x38], eax
  0x389e	mov    	dword ptr [esp + 0x20], 0xc0000409
  0x38a6	inc    	esp
  0x38a7	mov    	dword ptr [esp + 0x24], eax
  0x38ab	dec    	eax
  === BLOCK LINK ===
    0x38ac
=== CODE BLOCK END ===

=== CODE BLOCK ADDRESS 0x38ac ===
  0x38ac	mov    	dword ptr [esp + 0x40], 7
  0x38b4	dec    	eax
  0x38b5	test   	ecx, ecx
  0x38b7	jne    	0x38c4
  === BLOCK LINK ===
    0x38b9
=== CODE BLOCK END ===

=== CODE BLOCK ADDRESS 0x38b9 ===
  0x38b9	dec    	eax
  0x38ba	lea    	ecx, [esp + 0x20]
  0x38be	call   	0x34ec
  === BLOCK LINK ===
    0x38c3
=== CODE BLOCK END ===

=== CODE BLOCK ADDRESS 0x38c3 ===
  0x38c3	int3   	
  0x38c4	dec    	eax
  0x38c5	arpl   	word ptr [ebx + 4], ax
  0x38c8	inc    	ebp
  0x38c9	xor    	eax, eax
  === BLOCK LINK ===
    0x38cb
=== CODE BLOCK END ===

=== CODE BLOCK ADDRESS 0x38cb ===
  0x38cb	dec    	eax
  0x38cc	mov    	dword ptr [esp + 0x48], eax
  0x38d0	mov    	eax, dword ptr [ebx + 0x38]
  0x38d3	dec    	eax
  0x38d4	mov    	dword ptr [esp + 0x30], ecx
  === BLOCK LINK ===
    0x38d8
=== CODE BLOCK END ===

=== CODE BLOCK ADDRESS 0x38d8 ===
  0x38d8	dec    	eax
  0x38d9	lea    	ecx, [esp + 0x20]
  0x38dd	dec    	eax
  0x38de	mov    	dword ptr [esp + 0x50], eax
  0x38e2	mov    	dword ptr [esp + 0x38], 3
  === BLOCK LINK ===
    0x38ea
=== CODE BLOCK END ===

=== CODE BLOCK ADDRESS 0x38ea ===
  0x38ea	call   	0x34ec
  === BLOCK LINK ===
    0x38ef
=== CODE BLOCK END ===

=== CODE BLOCK ADDRESS 0x38ef ===
  0x38ef	int3   	
  0x38f0	int3   	
  0x38f1	int3   	
  0x38f2	int3   	
  0x38f3	int3   	
  === BLOCK LINK ===
    0x38f4
=== CODE BLOCK END ===

=== CODE BLOCK ADDRESS 0x38f4 ===
  0x38f4	int3   	
  0x38f5	int3   	
  0x38f6	int3   	
  0x38f7	int3   	
  0x38f8	inc    	eax
  === BLOCK LINK ===
    0x38f9
=== CODE BLOCK END ===

=== CODE BLOCK ADDRESS 0x38f9 ===
  0x38f9	push   	ebx
  0x38fa	push   	edi
  0x38fb	mov    	eax, 0x1528
  0x3900	call   	0x5b70
  === BLOCK LINK ===
    0x3905
=== CODE BLOCK END ===

=== CODE BLOCK ADDRESS 0x3905 ===
  0x3905	dec    	eax
  0x3906	sub    	esp, eax
  0x3908	dec    	eax
  0x3909	mov    	eax, dword ptr [0x5899]
  0x390f	dec    	eax
  === BLOCK LINK ===
    0x3910
=== CODE BLOCK END ===

=== CODE BLOCK ADDRESS 0x3910 ===
  0x3910	xor    	eax, esp
  0x3912	dec    	eax
  0x3913	mov    	dword ptr [esp + 0x1510], eax
  0x391a	mov    	edi, dword ptr [esp + 0x1570]
  0x3921	dec    	esp
  === BLOCK LINK ===
    0x3922
=== CODE BLOCK END ===

=== CODE BLOCK ADDRESS 0x3922 ===
  0x3922	mov    	edx, dword ptr [esp + 0x1560]
  0x3929	dec    	esp
  0x392a	mov    	ebx, dword ptr [esp + 0x1568]
  0x3931	test   	edi, edi
  0x3933	jne    	0x3943
  === BLOCK LINK ===
    0x3935
=== CODE BLOCK END ===

=== CODE BLOCK ADDRESS 0x3935 ===
  0x3935	dec    	eax
  0x3936	cmp    	dword ptr [0x5edb], 0
  0x393d	je     	0x3943
  === BLOCK LINK ===
    0x393f
=== CODE BLOCK END ===

=== CODE BLOCK ADDRESS 0x393f ===
  0x393f	mov    	bl, 1
  0x3941	jmp    	0x3945
  === BLOCK LINK ===
    0x3943
=== CODE BLOCK END ===

=== CODE BLOCK ADDRESS 0x3943 ===
  0x3943	xor    	bl, bl
  0x3945	dec    	eax
  0x3946	lea    	eax, [esp + 0x80]
  0x394d	dec    	eax
  0x394e	mov    	dword ptr [esp + 0x70], eax
  === BLOCK LINK ===
    0x3952
=== CODE BLOCK END ===

=== CODE BLOCK ADDRESS 0x3952 ===
  0x3952	dec    	eax
  0x3953	lea    	eax, [esp + 0x110]
  0x395a	dec    	eax
  0x395b	mov    	dword ptr [esp + 0x60], eax
  0x395f	dec    	eax
  === BLOCK LINK ===
    0x3960
=== CODE BLOCK END ===

=== CODE BLOCK ADDRESS 0x3960 ===
  0x3960	lea    	eax, [esp + 0x510]
  0x3967	dec    	eax
  0x3968	mov    	dword ptr [esp + 0x50], eax
  0x396c	dec    	eax
  0x396d	and    	dword ptr [esp + 0x40], 0
  === BLOCK LINK ===
    0x3972
=== CODE BLOCK END ===

=== CODE BLOCK ADDRESS 0x3972 ===
  0x3972	mov    	eax, dword ptr [esp + 0x1578]
  0x3979	mov    	dword ptr [esp + 0x38], eax
  0x397d	mov    	dword ptr [esp + 0x30], edi
  0x3981	dec    	esp
  0x3982	mov    	dword ptr [esp + 0x28], ebx
  === BLOCK LINK ===
    0x3986
=== CODE BLOCK END ===

=== CODE BLOCK ADDRESS 0x3986 ===
  0x3986	dec    	esp
  0x3987	mov    	dword ptr [esp + 0x20], edx
  0x398b	call   	0x35a0
  === BLOCK LINK ===
    0x3990
=== CODE BLOCK END ===

=== CODE BLOCK ADDRESS 0x3990 ===
  0x3990	cmp    	edi, 3
  0x3993	je     	0x39b4
  === BLOCK LINK ===
    0x3995
=== CODE BLOCK END ===

=== CODE BLOCK ADDRESS 0x3995 ===
  0x3995	test   	edi, edi
  0x3997	je     	0x39c2
  === BLOCK LINK ===
    0x3999
=== CODE BLOCK END ===

=== CODE BLOCK ADDRESS 0x3999 ===
  0x3999	dec    	eax
  0x399a	mov    	ecx, dword ptr [esp + 0x1510]
  0x39a1	dec    	eax
  0x39a2	xor    	ecx, esp
  0x39a4	call   	0x5280
  === BLOCK LINK ===
    0x39a9
=== CODE BLOCK END ===

=== CODE BLOCK ADDRESS 0x39a9 ===
  0x39a9	dec    	eax
  0x39aa	add    	esp, 0x1528
  0x39b0	pop    	edi
  0x39b1	pop    	ebx
  0x39b2	ret    	
  === BLOCK LINK ===
    0x39b3
=== CODE BLOCK END ===

=== CODE BLOCK ADDRESS 0x39b3 ===
  0x39b3	int3   	
  0x39b4	dec    	eax
  0x39b5	lea    	ecx, [esp + 0x80]
  0x39bc	call   	0x385c
  === BLOCK LINK ===
    0x39c1
=== CODE BLOCK END ===

=== CODE BLOCK ADDRESS 0x39c1 ===
  0x39c1	int3   	
  0x39c2	test   	bl, bl
  0x39c4	je     	0x39e3
  === BLOCK LINK ===
    0x39c6
=== CODE BLOCK END ===

=== CODE BLOCK ADDRESS 0x39c6 ===
  0x39c6	dec    	eax
  0x39c7	mov    	eax, dword ptr [0x5e4b]
  0x39cd	dec    	eax
  0x39ce	lea    	edx, [esp + 0x510]
  0x39d5	dec    	eax
  === BLOCK LINK ===
    0x39d6
=== CODE BLOCK END ===

=== CODE BLOCK ADDRESS 0x39d6 ===
  0x39d6	lea    	ecx, [esp + 0x80]
  0x39dd	call   	dword ptr [0x2b9d]
  === BLOCK LINK ===
    0x39e3
=== CODE BLOCK END ===

=== CODE BLOCK ADDRESS 0x39e3 ===
  0x39e3	dec    	eax
  0x39e4	lea    	ecx, [esp + 0x80]
  0x39eb	call   	0x357c
  === BLOCK LINK ===
    0x39f0
=== CODE BLOCK END ===

=== CODE BLOCK ADDRESS 0x39f0 ===
  0x39f0	dec    	eax
  0x39f1	lea    	ecx, [esp + 0x80]
  0x39f8	call   	0x385c
  === BLOCK LINK ===
    0x39fd
=== CODE BLOCK END ===

=== CODE BLOCK ADDRESS 0x39fd ===
  0x39fd	int3   	
  0x39fe	int3   	
  0x39ff	int3   	
  0x3a00	int3   	
  0x3a01	int3   	
  === BLOCK LINK ===
    0x3a02
=== CODE BLOCK END ===

=== CODE BLOCK ADDRESS 0x3a02 ===
  0x3a02	int3   	
  0x3a03	int3   	
  0x3a04	dec    	eax
  0x3a05	sub    	esp, 0x58
  0x3a08	mov    	eax, dword ptr [esp + 0x98]
  === BLOCK LINK ===
    0x3a0f
=== CODE BLOCK END ===

=== CODE BLOCK ADDRESS 0x3a0f ===
  0x3a0f	mov    	dword ptr [esp + 0x38], eax
  0x3a13	mov    	eax, dword ptr [esp + 0x90]
  0x3a1a	mov    	dword ptr [esp + 0x30], eax
  0x3a1e	dec    	eax
  0x3a1f	mov    	eax, dword ptr [esp + 0x88]
  === BLOCK LINK ===
    0x3a26
=== CODE BLOCK END ===

=== CODE BLOCK ADDRESS 0x3a26 ===
  0x3a26	dec    	eax
  0x3a27	mov    	dword ptr [esp + 0x28], eax
  0x3a2b	dec    	eax
  0x3a2c	mov    	eax, dword ptr [esp + 0x80]
  0x3a33	dec    	eax
  === BLOCK LINK ===
    0x3a34
=== CODE BLOCK END ===

=== CODE BLOCK ADDRESS 0x3a34 ===
  0x3a34	mov    	dword ptr [esp + 0x20], eax
  0x3a38	call   	0x38f8
  === BLOCK LINK ===
    0x3a3d
=== CODE BLOCK END ===

=== CODE BLOCK ADDRESS 0x3a3d ===
  0x3a3d	dec    	eax
  0x3a3e	add    	esp, 0x58
  0x3a41	ret    	
  0x3a42	int3   	
  0x3a43	int3   	
  === BLOCK LINK ===
    0x3a44
=== CODE BLOCK END ===

=== CODE BLOCK ADDRESS 0x3a44 ===
  0x3a44	int3   	
  0x3a45	int3   	
  0x3a46	int3   	
  0x3a47	int3   	
  0x3a48	int3   	
  === BLOCK LINK ===
    0x3a49
=== CODE BLOCK END ===

=== CODE BLOCK ADDRESS 0x3a49 ===
  0x3a49	int3   	
  0x3a4a	int3   	
  0x3a4b	int3   	
  0x3a4c	dec    	eax
  0x3a4d	mov    	dword ptr [esp + 8], ebx
  === BLOCK LINK ===
    0x3a51
=== CODE BLOCK END ===

=== CODE BLOCK ADDRESS 0x3a51 ===
  0x3a51	dec    	eax
  0x3a52	mov    	dword ptr [esp + 0x10], ebp
  0x3a56	dec    	eax
  0x3a57	mov    	dword ptr [esp + 0x18], esi
  0x3a5b	push   	edi
  === BLOCK LINK ===
    0x3a5c
=== CODE BLOCK END ===

=== CODE BLOCK ADDRESS 0x3a5c ===
  0x3a5c	dec    	eax
  0x3a5d	sub    	esp, 0x50
  0x3a60	mov    	edi, edx
  0x3a62	dec    	eax
  0x3a63	mov    	esi, ecx
  === BLOCK LINK ===
    0x3a65
=== CODE BLOCK END ===

=== CODE BLOCK ADDRESS 0x3a65 ===
  0x3a65	dec    	eax
  0x3a66	call   	dword ptr [0x27a4]
  === BLOCK LINK ===
    0x3a6c
=== CODE BLOCK END ===

=== CODE BLOCK ADDRESS 0x3a6c ===
  0x3a6c	nop    	dword ptr [eax + eax]
  0x3a71	dec    	eax
  0x3a72	mov    	ebp, dword ptr [esp + 0x88]
  0x3a79	mov    	ebx, eax
  0x3a7b	test   	eax, eax
  === BLOCK LINK ===
    0x3a7d
=== CODE BLOCK END ===

=== CODE BLOCK ADDRESS 0x3a7d ===
  0x3a7d	jne    	0x3ab3
  === BLOCK LINK ===
    0x3a7f
=== CODE BLOCK END ===

=== CODE BLOCK ADDRESS 0x3a7f ===
  0x3a7f	mov    	dword ptr [esp + 0x38], 0x8007029c
  0x3a87	dec    	esp
  0x3a88	lea    	eax, [0x2ffa]
  0x3a8e	mov    	dword ptr [esp + 0x30], 2
  0x3a96	inc    	ebp
  === BLOCK LINK ===
    0x3a97
=== CODE BLOCK END ===

=== CODE BLOCK ADDRESS 0x3a97 ===
  0x3a97	xor    	ecx, ecx
  0x3a99	dec    	eax
  0x3a9a	mov    	dword ptr [esp + 0x28], ebp
  0x3a9e	mov    	edx, edi
  0x3aa0	dec    	eax
  === BLOCK LINK ===
    0x3aa1
=== CODE BLOCK END ===

=== CODE BLOCK ADDRESS 0x3aa1 ===
  0x3aa1	and    	dword ptr [esp + 0x20], 0
  0x3aa6	dec    	eax
  0x3aa7	mov    	ecx, esi
  0x3aa9	call   	0x3a04
  === BLOCK LINK ===
    0x3aae
=== CODE BLOCK END ===

=== CODE BLOCK ADDRESS 0x3aae ===
  0x3aae	mov    	ebx, 0x29c
  0x3ab3	movzx  	ecx, bx
  0x3ab6	dec    	esp
  0x3ab7	lea    	eax, [0x2fcb]
  0x3abd	or     	ecx, 0x80070000
  === BLOCK LINK ===
    0x3ac3
=== CODE BLOCK END ===

=== CODE BLOCK ADDRESS 0x3ac3 ===
  0x3ac3	mov    	edx, edi
  0x3ac5	test   	ebx, ebx
  0x3ac7	cmovle  	ecx, ebx
  0x3aca	inc    	ebp
  0x3acb	xor    	ecx, ecx
  === BLOCK LINK ===
    0x3acd
=== CODE BLOCK END ===

=== CODE BLOCK ADDRESS 0x3acd ===
  0x3acd	mov    	dword ptr [esp + 0x38], ecx
  0x3ad1	dec    	eax
  0x3ad2	mov    	ecx, esi
  0x3ad4	mov    	dword ptr [esp + 0x30], 3
  0x3adc	dec    	eax
  === BLOCK LINK ===
    0x3add
=== CODE BLOCK END ===

=== CODE BLOCK ADDRESS 0x3add ===
  0x3add	mov    	dword ptr [esp + 0x28], ebp
  0x3ae1	dec    	eax
  0x3ae2	and    	dword ptr [esp + 0x20], 0
  0x3ae7	call   	0x38f8
  === BLOCK LINK ===
    0x3aec
=== CODE BLOCK END ===

=== CODE BLOCK ADDRESS 0x3aec ===
  0x3aec	dec    	eax
  0x3aed	mov    	ebp, dword ptr [esp + 0x68]
  0x3af1	mov    	eax, ebx
  0x3af3	dec    	eax
  0x3af4	mov    	ebx, dword ptr [esp + 0x60]
  === BLOCK LINK ===
    0x3af8
=== CODE BLOCK END ===

=== CODE BLOCK ADDRESS 0x3af8 ===
  0x3af8	dec    	eax
  0x3af9	mov    	esi, dword ptr [esp + 0x70]
  0x3afd	dec    	eax
  0x3afe	add    	esp, 0x50
  0x3b01	pop    	edi
  === BLOCK LINK ===
    0x3b02
=== CODE BLOCK END ===

=== CODE BLOCK ADDRESS 0x3b02 ===
  0x3b02	ret    	
  0x3b03	int3   	
  0x3b04	int3   	
  0x3b05	int3   	
  0x3b06	int3   	
  === BLOCK LINK ===
    0x3b07
=== CODE BLOCK END ===

=== CODE BLOCK ADDRESS 0x3b07 ===
  0x3b07	int3   	
  0x3b08	int3   	
  0x3b09	int3   	
  0x3b0a	int3   	
  0x3b0b	int3   	
  === BLOCK LINK ===
    0x3b0c
=== CODE BLOCK END ===

=== CODE BLOCK ADDRESS 0x3b0c ===
  0x3b0c	dec    	eax
  0x3b0d	mov    	dword ptr [esp + 8], ebx
  0x3b11	dec    	eax
  0x3b12	mov    	dword ptr [esp + 0x10], ebp
  0x3b16	dec    	eax
  === BLOCK LINK ===
    0x3b17
=== CODE BLOCK END ===

=== CODE BLOCK ADDRESS 0x3b17 ===
  0x3b17	mov    	dword ptr [esp + 0x18], esi
  0x3b1b	push   	edi
  0x3b1c	dec    	eax
  0x3b1d	sub    	esp, 0x50
  0x3b20	mov    	edi, edx
  === BLOCK LINK ===
    0x3b22
=== CODE BLOCK END ===

=== CODE BLOCK ADDRESS 0x3b22 ===
  0x3b22	dec    	eax
  0x3b23	mov    	esi, ecx
  0x3b25	dec    	eax
  0x3b26	call   	dword ptr [0x26e4]
  === BLOCK LINK ===
    0x3b2c
=== CODE BLOCK END ===

=== CODE BLOCK ADDRESS 0x3b2c ===
  0x3b2c	nop    	dword ptr [eax + eax]
  0x3b31	dec    	eax
  0x3b32	mov    	ebp, dword ptr [esp + 0x88]
  0x3b39	test   	eax, eax
  0x3b3b	jne    	0x3b71
  === BLOCK LINK ===
    0x3b3d
=== CODE BLOCK END ===

=== CODE BLOCK ADDRESS 0x3b3d ===
  0x3b3d	mov    	dword ptr [esp + 0x38], 0x8007029c
  0x3b45	dec    	esp
  0x3b46	lea    	eax, [0x2f34]
  0x3b4c	mov    	dword ptr [esp + 0x30], 2
  0x3b54	inc    	ebp
  === BLOCK LINK ===
    0x3b55
=== CODE BLOCK END ===

=== CODE BLOCK ADDRESS 0x3b55 ===
  0x3b55	xor    	ecx, ecx
  0x3b57	dec    	eax
  0x3b58	mov    	dword ptr [esp + 0x28], ebp
  0x3b5c	mov    	edx, edi
  0x3b5e	dec    	eax
  === BLOCK LINK ===
    0x3b5f
=== CODE BLOCK END ===

=== CODE BLOCK ADDRESS 0x3b5f ===
  0x3b5f	and    	dword ptr [esp + 0x20], 0
  0x3b64	dec    	eax
  0x3b65	mov    	ecx, esi
  0x3b67	call   	0x3a04
  === BLOCK LINK ===
    0x3b6c
=== CODE BLOCK END ===

=== CODE BLOCK ADDRESS 0x3b6c ===
  0x3b6c	mov    	eax, 0x29c
  0x3b71	movzx  	ebx, ax
  0x3b74	dec    	esp
  0x3b75	lea    	eax, [0x2f05]
  0x3b7b	or     	ebx, 0x80070000
  === BLOCK LINK ===
    0x3b81
=== CODE BLOCK END ===

=== CODE BLOCK ADDRESS 0x3b81 ===
  0x3b81	mov    	edx, edi
  0x3b83	test   	eax, eax
  0x3b85	dec    	eax
  0x3b86	mov    	ecx, esi
  0x3b88	cmovle  	ebx, eax
  === BLOCK LINK ===
    0x3b8b
=== CODE BLOCK END ===

=== CODE BLOCK ADDRESS 0x3b8b ===
  0x3b8b	inc    	ebp
  0x3b8c	xor    	ecx, ecx
  0x3b8e	mov    	dword ptr [esp + 0x38], ebx
  0x3b92	mov    	dword ptr [esp + 0x30], 1
  0x3b9a	dec    	eax
  === BLOCK LINK ===
    0x3b9b
=== CODE BLOCK END ===

=== CODE BLOCK ADDRESS 0x3b9b ===
  0x3b9b	mov    	dword ptr [esp + 0x28], ebp
  0x3b9f	dec    	eax
  0x3ba0	and    	dword ptr [esp + 0x20], 0
  0x3ba5	call   	0x38f8
  === BLOCK LINK ===
    0x3baa
=== CODE BLOCK END ===

=== CODE BLOCK ADDRESS 0x3baa ===
  0x3baa	dec    	eax
  0x3bab	mov    	ebp, dword ptr [esp + 0x68]
  0x3baf	mov    	eax, ebx
  0x3bb1	dec    	eax
  0x3bb2	mov    	ebx, dword ptr [esp + 0x60]
  === BLOCK LINK ===
    0x3bb6
=== CODE BLOCK END ===

=== CODE BLOCK ADDRESS 0x3bb6 ===
  0x3bb6	dec    	eax
  0x3bb7	mov    	esi, dword ptr [esp + 0x70]
  0x3bbb	dec    	eax
  0x3bbc	add    	esp, 0x50
  0x3bbf	pop    	edi
  === BLOCK LINK ===
    0x3bc0
=== CODE BLOCK END ===

=== CODE BLOCK ADDRESS 0x3bc0 ===
  0x3bc0	ret    	
  0x3bc1	int3   	
  0x3bc2	int3   	
  0x3bc3	int3   	
  0x3bc4	int3   	
  === BLOCK LINK ===
    0x3bc5
=== CODE BLOCK END ===

=== CODE BLOCK ADDRESS 0x3bc5 ===
  0x3bc5	int3   	
  0x3bc6	int3   	
  0x3bc7	int3   	
  0x3bc8	dec    	eax
  0x3bc9	sub    	esp, 0x48
  === BLOCK LINK ===
    0x3bcc
=== CODE BLOCK END ===

=== CODE BLOCK ADDRESS 0x3bcc ===
  0x3bcc	dec    	eax
  0x3bcd	mov    	eax, dword ptr [esp + 0x48]
  0x3bd1	dec    	esp
  0x3bd2	lea    	eax, [0x2ea8]
  0x3bd8	inc    	esp
  === BLOCK LINK ===
    0x3bd9
=== CODE BLOCK END ===

=== CODE BLOCK ADDRESS 0x3bd9 ===
  0x3bd9	mov    	dword ptr [esp + 0x38], ecx
  0x3bdd	inc    	ebp
  0x3bde	xor    	ecx, ecx
  0x3be0	mov    	dword ptr [esp + 0x30], 1
  0x3be8	dec    	eax
  === BLOCK LINK ===
    0x3be9
=== CODE BLOCK END ===

=== CODE BLOCK ADDRESS 0x3be9 ===
  0x3be9	mov    	dword ptr [esp + 0x28], eax
  0x3bed	dec    	eax
  0x3bee	and    	dword ptr [esp + 0x20], 0
  0x3bf3	call   	0x3a04
  === BLOCK LINK ===
    0x3bf8
=== CODE BLOCK END ===

=== CODE BLOCK ADDRESS 0x3bf8 ===
  0x3bf8	dec    	eax
  0x3bf9	add    	esp, 0x48
  0x3bfc	ret    	
  0x3bfd	int3   	
  0x3bfe	int3   	
  === BLOCK LINK ===
    0x3bff
=== CODE BLOCK END ===

=== CODE BLOCK ADDRESS 0x3bff ===
  0x3bff	int3   	
  0x3c00	int3   	
  0x3c01	int3   	
  0x3c02	int3   	
  0x3c03	int3   	
  === BLOCK LINK ===
    0x3c04
=== CODE BLOCK END ===

=== CODE BLOCK ADDRESS 0x3c04 ===
  0x3c04	dec    	eax
  0x3c05	sub    	esp, 0x48
  0x3c08	dec    	eax
  0x3c09	mov    	eax, dword ptr [esp + 0x48]
  0x3c0d	dec    	eax
  === BLOCK LINK ===
    0x3c0e
=== CODE BLOCK END ===

=== CODE BLOCK ADDRESS 0x3c0e ===
  0x3c0e	mov    	dword ptr [esp + 0x28], eax
  0x3c12	call   	0x3b0c
  === BLOCK LINK ===
    0x3c17
=== CODE BLOCK END ===

=== CODE BLOCK ADDRESS 0x3c17 ===
  0x3c17	dec    	eax
  0x3c18	add    	esp, 0x48
  0x3c1b	ret    	
  0x3c1c	int3   	
  0x3c1d	int3   	
  === BLOCK LINK ===
    0x3c1e
=== CODE BLOCK END ===

=== CODE BLOCK ADDRESS 0x179d ===
  0x179d	dec    	eax
  0x179e	lea    	eax, [esp + 0xa0]
  0x17a5	dec    	eax
  === BLOCK LINK ===
    0x17a6
=== CODE BLOCK END ===

=== CODE BLOCK ADDRESS 0x3c1e ===
  0x3c1e	int3   	
  0x3c1f	int3   	
  0x3c20	int3   	
  0x3c21	int3   	
  0x3c22	int3   	
  === BLOCK LINK ===
    0x3c23
=== CODE BLOCK END ===

=== CODE BLOCK ADDRESS 0x3c23 ===
  0x3c23	int3   	
  0x3c24	dec    	eax
  0x3c25	sub    	esp, 0x48
  0x3c28	dec    	eax
  0x3c29	mov    	eax, dword ptr [esp + 0x48]
  === BLOCK LINK ===
    0x3c2d
=== CODE BLOCK END ===

=== CODE BLOCK ADDRESS 0x3c2d ===
  0x3c2d	dec    	eax
  0x3c2e	mov    	dword ptr [esp + 0x28], eax
  0x3c32	call   	0x3a4c
  === BLOCK LINK ===
    0x3c37
=== CODE BLOCK END ===

=== CODE BLOCK ADDRESS 0x3c37 ===
  0x3c37	dec    	eax
  0x3c38	add    	esp, 0x48
  0x3c3b	ret    	
  0x3c3c	int3   	
  0x3c3d	int3   	
  === BLOCK LINK ===
    0x3c3e
=== CODE BLOCK END ===

=== CODE BLOCK ADDRESS 0x3c3e ===
  0x3c3e	int3   	
  0x3c3f	int3   	
  0x3c40	int3   	
  0x3c41	int3   	
  0x3c42	int3   	
  === BLOCK LINK ===
    0x3c43
=== CODE BLOCK END ===

=== CODE BLOCK ADDRESS 0x3c43 ===
  0x3c43	int3   	
  0x3c44	dec    	eax
  0x3c45	sub    	esp, 0x48
  0x3c48	dec    	eax
  0x3c49	mov    	eax, dword ptr [esp + 0x48]
  === BLOCK LINK ===
    0x3c4d
=== CODE BLOCK END ===

=== CODE BLOCK ADDRESS 0x3c4d ===
  0x3c4d	dec    	esp
  0x3c4e	lea    	eax, [0x2e34]
  0x3c54	mov    	dword ptr [esp + 0x38], 0x8000ffff
  0x3c5c	inc    	ebp
  0x3c5d	xor    	ecx, ecx
  === BLOCK LINK ===
    0x3c5f
=== CODE BLOCK END ===

=== CODE BLOCK ADDRESS 0x3c5f ===
  0x3c5f	mov    	dword ptr [esp + 0x30], 3
  0x3c67	mov    	edx, 0xb4c
  0x3c6c	dec    	eax
  0x3c6d	mov    	dword ptr [esp + 0x28], eax
  0x3c71	dec    	eax
  === BLOCK LINK ===
    0x3c72
=== CODE BLOCK END ===

=== CODE BLOCK ADDRESS 0x3c72 ===
  0x3c72	and    	dword ptr [esp + 0x20], 0
  0x3c77	call   	0x3a04
  === BLOCK LINK ===
    0x3c7c
=== CODE BLOCK END ===

=== CODE BLOCK ADDRESS 0x3c7c ===
  0x3c7c	dec    	eax
  0x3c7d	add    	esp, 0x48
  0x3c80	ret    	
  0x3c81	int3   	
  0x3c82	int3   	
  === BLOCK LINK ===
    0x3c83
=== CODE BLOCK END ===

=== CODE BLOCK ADDRESS 0x3c83 ===
  0x3c83	int3   	
  0x3c84	int3   	
  0x3c85	int3   	
  0x3c86	int3   	
  0x3c87	int3   	
  === BLOCK LINK ===
    0x3c88
=== CODE BLOCK END ===

=== CODE BLOCK ADDRESS 0x3c88 ===
  0x3c88	mov    	ecx, 7
  0x3c8d	int    	0x29
  0x3c8f	ret    	
  0x3c90	int3   	
  0x3c91	int3   	
  === BLOCK LINK ===
    0x3c92
=== CODE BLOCK END ===

=== CODE BLOCK ADDRESS 0x3c92 ===
  0x3c92	int3   	
  0x3c93	int3   	
  0x3c94	int3   	
  0x3c95	int3   	
  0x3c96	int3   	
  === BLOCK LINK ===
    0x3c97
=== CODE BLOCK END ===

=== CODE BLOCK ADDRESS 0x3c97 ===
  0x3c97	int3   	
  0x3c98	dec    	eax
  0x3c99	sub    	esp, 0x28
  0x3c9c	dec    	eax
  0x3c9d	call   	dword ptr [0x25a5]
  === BLOCK LINK ===
    0x3ca3
=== CODE BLOCK END ===

=== CODE BLOCK ADDRESS 0x3ca3 ===
  0x3ca3	nop    	dword ptr [eax + eax]
  0x3ca8	test   	eax, eax
  0x3caa	je     	0x3cb2
  === BLOCK LINK ===
    0x3cac
=== CODE BLOCK END ===

=== CODE BLOCK ADDRESS 0x3cac ===
  0x3cac	dec    	eax
  0x3cad	add    	esp, 0x28
  0x3cb0	ret    	
  0x3cb1	int3   	
  0x3cb2	dec    	eax
  === BLOCK LINK ===
    0x3cb3
=== CODE BLOCK END ===

=== CODE BLOCK ADDRESS 0x3cb3 ===
  0x3cb3	mov    	ecx, dword ptr [esp + 0x28]
  0x3cb7	mov    	edx, 0x926
  0x3cbc	call   	0x3c24
  === BLOCK LINK ===
    0x3cc1
=== CODE BLOCK END ===

=== CODE BLOCK ADDRESS 0x3cc1 ===
  0x3cc1	int3   	
  0x3cc2	int3   	
  0x3cc3	int3   	
  0x3cc4	int3   	
  0x3cc5	int3   	
  === BLOCK LINK ===
    0x3cc6
=== CODE BLOCK END ===

=== CODE BLOCK ADDRESS 0x3cc6 ===
  0x3cc6	int3   	
  0x3cc7	int3   	
  0x3cc8	dec    	eax
  0x3cc9	sub    	esp, 0x28
  0x3ccc	dec    	eax
  === BLOCK LINK ===
    0x3ccd
=== CODE BLOCK END ===

=== CODE BLOCK ADDRESS 0x3ccd ===
  0x3ccd	call   	dword ptr [0x266d]
  === BLOCK LINK ===
    0x3cd3
=== CODE BLOCK END ===

=== CODE BLOCK ADDRESS 0x3cd3 ===
  0x3cd3	nop    	dword ptr [eax + eax]
  0x3cd8	test   	eax, eax
  0x3cda	je     	0x3ce2
  === BLOCK LINK ===
    0x3cdc
=== CODE BLOCK END ===

=== CODE BLOCK ADDRESS 0x3cdc ===
  0x3cdc	dec    	eax
  0x3cdd	add    	esp, 0x28
  0x3ce0	ret    	
  0x3ce1	int3   	
  0x3ce2	dec    	eax
  === BLOCK LINK ===
    0x3ce3
=== CODE BLOCK END ===

=== CODE BLOCK ADDRESS 0x3ce3 ===
  0x3ce3	mov    	ecx, dword ptr [esp + 0x28]
  0x3ce7	mov    	edx, 0x930
  0x3cec	call   	0x3c24
  === BLOCK LINK ===
    0x3cf1
=== CODE BLOCK END ===

=== CODE BLOCK ADDRESS 0x3cf1 ===
  0x3cf1	int3   	
  0x3cf2	int3   	
  0x3cf3	int3   	
  0x3cf4	int3   	
  0x3cf5	int3   	
  === BLOCK LINK ===
    0x3cf6
=== CODE BLOCK END ===

=== CODE BLOCK ADDRESS 0x3cf6 ===
  0x3cf6	int3   	
  0x3cf7	int3   	
  0x3cf8	dec    	eax
  0x3cf9	sub    	esp, 0x38
  0x3cfc	dec    	eax
  === BLOCK LINK ===
    0x3cfd
=== CODE BLOCK END ===

=== CODE BLOCK ADDRESS 0x3cfd ===
  0x3cfd	mov    	dword ptr [esp + 0x20], 0xfffffffe
  0x3d05	dec    	eax
  0x3d06	mov    	ecx, dword ptr [ecx]
  0x3d08	dec    	eax
  0x3d09	test   	ecx, ecx
  === BLOCK LINK ===
    0x3d0b
=== CODE BLOCK END ===

=== CODE BLOCK ADDRESS 0x3d0b ===
  0x3d0b	je     	0x3d13
  === BLOCK LINK ===
    0x3d0d
=== CODE BLOCK END ===

=== CODE BLOCK ADDRESS 0x3d0d ===
  0x3d0d	call   	0x3cc8
  === BLOCK LINK ===
    0x3d12
=== CODE BLOCK END ===

=== CODE BLOCK ADDRESS 0x3d12 ===
  0x3d12	nop    	
  0x3d13	dec    	eax
  0x3d14	add    	esp, 0x38
  0x3d17	ret    	
  0x3d18	int3   	
  === BLOCK LINK ===
    0x3d19
=== CODE BLOCK END ===

=== CODE BLOCK ADDRESS 0x3d19 ===
  0x3d19	int3   	
  0x3d1a	int3   	
  0x3d1b	int3   	
  0x3d1c	int3   	
  0x3d1d	int3   	
  === BLOCK LINK ===
    0x3d1e
=== CODE BLOCK END ===

=== CODE BLOCK ADDRESS 0x3d1e ===
  0x3d1e	int3   	
  0x3d1f	int3   	
  0x3d20	dec    	eax
  0x3d21	mov    	dword ptr [esp + 0x10], ebx
  0x3d25	dec    	eax
  === BLOCK LINK ===
    0x3d26
=== CODE BLOCK END ===

=== CODE BLOCK ADDRESS 0x3d26 ===
  0x3d26	mov    	dword ptr [esp + 0x18], ebp
  0x3d2a	push   	esi
  0x3d2b	push   	edi
  0x3d2c	inc    	ecx
  0x3d2d	push   	esp
  === BLOCK LINK ===
    0x3d2e
=== CODE BLOCK END ===

=== CODE BLOCK ADDRESS 0x3d2e ===
  0x3d2e	inc    	ecx
  0x3d2f	push   	esi
  0x3d30	inc    	ecx
  0x3d31	push   	edi
  0x3d32	dec    	eax
  === BLOCK LINK ===
    0x3d33
=== CODE BLOCK END ===

=== CODE BLOCK ADDRESS 0x3d33 ===
  0x3d33	sub    	esp, 0x250
  0x3d39	dec    	eax
  0x3d3a	mov    	eax, dword ptr [0x5468]
  0x3d40	dec    	eax
  0x3d41	xor    	eax, esp
  === BLOCK LINK ===
    0x3d43
=== CODE BLOCK END ===

=== CODE BLOCK ADDRESS 0x3d43 ===
  0x3d43	dec    	eax
  0x3d44	mov    	dword ptr [esp + 0x240], eax
  0x3d4b	dec    	eax
  0x3d4c	mov    	eax, 0
  0x3d51	add    	byte ptr [eax], al
  === BLOCK LINK ===
    0x3d53
=== CODE BLOCK END ===

=== CODE BLOCK ADDRESS 0x3d53 ===
  0x3d53	add    	al, al
  0x3d55	dec    	ecx
  0x3d56	mov    	ebx, ecx
  0x3d58	dec    	esp
  0x3d59	mov    	eax, edx
  === BLOCK LINK ===
    0x3d5b
=== CODE BLOCK END ===

=== CODE BLOCK ADDRESS 0x3d5b ===
  0x3d5b	dec    	eax
  0x3d5c	mov    	edi, ecx
  0x3d5e	dec    	esp
  0x3d5f	test   	eax, ecx
  0x3d61	jne    	0x3f1c
  === BLOCK LINK ===
    0x3d67
=== CODE BLOCK END ===

=== CODE BLOCK ADDRESS 0x3d67 ===
  0x3d67	dec    	eax
  0x3d68	lea    	eax, [esp + 0x30]
  0x3d6c	mov    	edx, 0x104
  0x3d71	dec    	esp
  0x3d72	sub    	eax, eax
  === BLOCK LINK ===
    0x3d74
=== CODE BLOCK END ===

=== CODE BLOCK ADDRESS 0x3d74 ===
  0x3d74	dec    	eax
  0x3d75	lea    	ecx, [esp + 0x30]
  0x3d79	inc    	ebp
  0x3d7a	xor    	esp, esp
  0x3d7c	inc    	ecx
  === BLOCK LINK ===
    0x3d7d
=== CODE BLOCK END ===

=== CODE BLOCK ADDRESS 0x3d7d ===
  0x3d7d	lea    	esi, [esp + 1]
  0x3d81	dec    	eax
  0x3d82	lea    	eax, [edx + 0x7ffffefa]
  0x3d88	dec    	eax
  0x3d89	test   	eax, eax
  === BLOCK LINK ===
    0x3d8b
=== CODE BLOCK END ===

=== CODE BLOCK ADDRESS 0x3d8b ===
  0x3d8b	je     	0x3da3
  === BLOCK LINK ===
    0x3d8d
=== CODE BLOCK END ===

=== CODE BLOCK ADDRESS 0x3d8d ===
  0x3d8d	inc    	ecx
  0x3d8e	movzx  	eax, word ptr [eax + ecx]
  0x3d92	test   	ax, ax
  0x3d95	je     	0x3da3
  === BLOCK LINK ===
    0x3d97
=== CODE BLOCK END ===

=== CODE BLOCK ADDRESS 0x3d97 ===
  0x3d97	mov    	word ptr [ecx], ax
  0x3d9a	dec    	eax
  0x3d9b	add    	ecx, 2
  0x3d9e	dec    	eax
  0x3d9f	sub    	edx, esi
  === BLOCK LINK ===
    0x3da1
=== CODE BLOCK END ===

=== CODE BLOCK ADDRESS 0x3da1 ===
  0x3da1	jne    	0x3d81
  === BLOCK LINK ===
    0x3da3
=== CODE BLOCK END ===

=== CODE BLOCK ADDRESS 0x3da3 ===
  0x3da3	dec    	eax
  0x3da4	lea    	eax, [ecx - 2]
  0x3da7	dec    	eax
  0x3da8	test   	edx, edx
  0x3daa	dec    	esp
  === BLOCK LINK ===
    0x3dab
=== CODE BLOCK END ===

=== CODE BLOCK ADDRESS 0x3dab ===
  0x3dab	lea    	eax, [0x2d0f]
  0x3db1	dec    	eax
  0x3db2	cmovne  	eax, ecx
  0x3db5	dec    	eax
  0x3db6	lea    	ecx, [esp + 0x30]
  === BLOCK LINK ===
    0x3dba
=== CODE BLOCK END ===

=== CODE BLOCK ADDRESS 0x3dba ===
  0x3dba	inc    	sp
  0x3dbc	mov    	dword ptr [eax], esp
  0x3dbe	call   	0x33ec
  === BLOCK LINK ===
    0x3dc3
=== CODE BLOCK END ===

=== CODE BLOCK ADDRESS 0x3dc3 ===
  0x3dc3	dec    	esp
  0x3dc4	mov    	esi, ebx
  0x3dc6	mov    	dword ptr [esp + 0x28], 0x1f0003
  0x3dce	inc    	esp
  0x3dcf	mov    	eax, esi
  === BLOCK LINK ===
    0x3dd1
=== CODE BLOCK END ===

=== CODE BLOCK ADDRESS 0x3dd1 ===
  0x3dd1	dec    	ecx
  0x3dd2	shr    	esi, 0x1f
  0x3dd5	and    	ebx, 0x7fffffff
  0x3ddb	inc    	esp
  0x3ddc	mov    	dword ptr [esp + 0x20], esp
  === BLOCK LINK ===
    0x3de0
=== CODE BLOCK END ===

=== CODE BLOCK ADDRESS 0x3de0 ===
  0x3de0	dec    	esp
  0x3de1	lea    	ecx, [esp + 0x30]
  0x3de5	mov    	edx, ebx
  0x3de7	inc    	esp
  0x3de8	cmova  	eax, ebx
  === BLOCK LINK ===
    0x3deb
=== CODE BLOCK END ===

=== CODE BLOCK ADDRESS 0x3deb ===
  0x3deb	xor    	ecx, ecx
  0x3ded	dec    	eax
  0x3dee	call   	dword ptr [0x257c]
  === BLOCK LINK ===
    0x3df4
=== CODE BLOCK END ===

=== CODE BLOCK ADDRESS 0x3df4 ===
  0x3df4	nop    	dword ptr [eax + eax]
  0x3df9	dec    	esp
  0x3dfa	mov    	edi, eax
  0x3dfc	dec    	eax
  0x3dfd	test   	eax, eax
  === BLOCK LINK ===
    0x3dff
=== CODE BLOCK END ===

=== CODE BLOCK ADDRESS 0x3dff ===
  0x3dff	je     	0x3e35
  === BLOCK LINK ===
    0x3e01
=== CODE BLOCK END ===

=== CODE BLOCK ADDRESS 0x3e01 ===
  0x3e01	dec    	eax
  0x3e02	mov    	ebp, dword ptr [edi]
  0x3e04	dec    	eax
  0x3e05	test   	ebp, ebp
  0x3e07	je     	0x3e2d
  === BLOCK LINK ===
    0x3e09
=== CODE BLOCK END ===

=== CODE BLOCK ADDRESS 0x3e09 ===
  0x3e09	dec    	eax
  0x3e0a	call   	dword ptr [0x2400]
  === BLOCK LINK ===
    0x3e10
=== CODE BLOCK END ===

=== CODE BLOCK ADDRESS 0x3e10 ===
  0x3e10	nop    	dword ptr [eax + eax]
  0x3e15	dec    	eax
  0x3e16	mov    	ecx, ebp
  0x3e18	mov    	ebx, eax
  0x3e1a	call   	0x3c98
  === BLOCK LINK ===
    0x3e1f
=== CODE BLOCK END ===

=== CODE BLOCK ADDRESS 0x3e1f ===
  0x3e1f	mov    	ecx, ebx
  0x3e21	dec    	eax
  0x3e22	call   	dword ptr [0x23f8]
  === BLOCK LINK ===
    0x3e28
=== CODE BLOCK END ===

=== CODE BLOCK ADDRESS 0x3e28 ===
  0x3e28	nop    	dword ptr [eax + eax]
  0x3e2d	dec    	esp
  0x3e2e	mov    	dword ptr [edi], edi
  0x3e30	inc    	ecx
  0x3e31	mov    	ebx, esp
  === BLOCK LINK ===
    0x3e33
=== CODE BLOCK END ===

=== CODE BLOCK ADDRESS 0x3e33 ===
  0x3e33	jmp    	0x3e3c
  === BLOCK LINK ===
    0x3e35
=== CODE BLOCK END ===

=== CODE BLOCK ADDRESS 0x3e35 ===
  0x3e35	call   	0x3518
  === BLOCK LINK ===
    0x3e3a
=== CODE BLOCK END ===

=== CODE BLOCK ADDRESS 0x3e3a ===
  0x3e3a	mov    	ebx, eax
  0x3e3c	test   	ebx, ebx
  0x3e3e	jns    	0x3e5c
  === BLOCK LINK ===
    0x3e40
=== CODE BLOCK END ===

=== CODE BLOCK ADDRESS 0x3e40 ===
  0x3e40	mov    	edx, 0x85
  0x3e45	dec    	eax
  0x3e46	mov    	ecx, dword ptr [esp + 0x278]
  0x3e4d	inc    	esp
  0x3e4e	mov    	ecx, ebx
  === BLOCK LINK ===
    0x3e50
=== CODE BLOCK END ===

=== CODE BLOCK ADDRESS 0x3e50 ===
  0x3e50	call   	0x3bc8
  === BLOCK LINK ===
    0x3e55
=== CODE BLOCK END ===

=== CODE BLOCK ADDRESS 0x3e55 ===
  0x3e55	mov    	eax, ebx
  0x3e57	jmp    	0x3eef
  === BLOCK LINK ===
    0x3e5c
=== CODE BLOCK END ===

=== CODE BLOCK ADDRESS 0x3e5c ===
  0x3e5c	dec    	esp
  0x3e5d	lea    	eax, [0x2c65]
  0x3e63	dec    	eax
  0x3e64	lea    	ecx, [esp + 0x30]
  0x3e68	call   	0x33ec
  === BLOCK LINK ===
    0x3e6d
=== CODE BLOCK END ===

=== CODE BLOCK ADDRESS 0x3e6d ===
  0x3e6d	inc    	ebp
  0x3e6e	test   	esi, esi
  0x3e70	mov    	dword ptr [esp + 0x28], 0x1f0003
  0x3e78	dec    	esp
  0x3e79	lea    	ecx, [esp + 0x30]
  === BLOCK LINK ===
    0x3e7d
=== CODE BLOCK END ===

=== CODE BLOCK ADDRESS 0x3e7d ===
  0x3e7d	inc    	esp
  0x3e7e	mov    	dword ptr [esp + 0x20], esp
  0x3e82	inc    	ecx
  0x3e83	cmovne  	esi, esi
  0x3e86	inc    	ecx
  === BLOCK LINK ===
    0x3e87
=== CODE BLOCK END ===

=== CODE BLOCK ADDRESS 0x3e87 ===
  0x3e87	mov    	edx, esi
  0x3e89	inc    	esp
  0x3e8a	mov    	eax, esi
  0x3e8c	xor    	ecx, ecx
  0x3e8e	dec    	eax
  === BLOCK LINK ===
    0x3e8f
=== CODE BLOCK END ===

=== CODE BLOCK ADDRESS 0x3e8f ===
  0x3e8f	call   	dword ptr [0x24db]
  === BLOCK LINK ===
    0x3e95
=== CODE BLOCK END ===

=== CODE BLOCK ADDRESS 0x3e95 ===
  0x3e95	nop    	dword ptr [eax + eax]
  0x3e9a	dec    	eax
  0x3e9b	mov    	ebp, eax
  0x3e9d	dec    	eax
  0x3e9e	test   	eax, eax
  === BLOCK LINK ===
    0x3ea0
=== CODE BLOCK END ===

=== CODE BLOCK ADDRESS 0x3ea0 ===
  0x3ea0	je     	0x3ed8
  === BLOCK LINK ===
    0x3ea2
=== CODE BLOCK END ===

=== CODE BLOCK ADDRESS 0x3ea2 ===
  0x3ea2	dec    	eax
  0x3ea3	mov    	esi, dword ptr [edi + 8]
  0x3ea6	dec    	eax
  0x3ea7	test   	esi, esi
  0x3ea9	je     	0x3ecf
  === BLOCK LINK ===
    0x3eab
=== CODE BLOCK END ===

=== CODE BLOCK ADDRESS 0x3eab ===
  0x3eab	dec    	eax
  0x3eac	call   	dword ptr [0x235e]
  === BLOCK LINK ===
    0x3eb2
=== CODE BLOCK END ===

=== CODE BLOCK ADDRESS 0x3eb2 ===
  0x3eb2	nop    	dword ptr [eax + eax]
  0x3eb7	dec    	eax
  0x3eb8	mov    	ecx, esi
  0x3eba	mov    	ebx, eax
  0x3ebc	call   	0x3c98
  === BLOCK LINK ===
    0x3ec1
=== CODE BLOCK END ===

=== CODE BLOCK ADDRESS 0x3ec1 ===
  0x3ec1	mov    	ecx, ebx
  0x3ec3	dec    	eax
  0x3ec4	call   	dword ptr [0x2356]
  === BLOCK LINK ===
    0x3eca
=== CODE BLOCK END ===

=== CODE BLOCK ADDRESS 0x3eca ===
  0x3eca	nop    	dword ptr [eax + eax]
  0x3ecf	dec    	eax
  0x3ed0	mov    	dword ptr [edi + 8], ebp
  0x3ed3	inc    	ecx
  0x3ed4	mov    	ebx, esp
  === BLOCK LINK ===
    0x3ed6
=== CODE BLOCK END ===

=== CODE BLOCK ADDRESS 0x3ed6 ===
  0x3ed6	jmp    	0x3edf
  === BLOCK LINK ===
    0x3ed8
=== CODE BLOCK END ===

=== CODE BLOCK ADDRESS 0x3ed8 ===
  0x3ed8	call   	0x3518
  === BLOCK LINK ===
    0x3edd
=== CODE BLOCK END ===

=== CODE BLOCK ADDRESS 0x3edd ===
  0x3edd	mov    	ebx, eax
  0x3edf	test   	ebx, ebx
  0x3ee1	jns    	0x3eed
  === BLOCK LINK ===
    0x3ee3
=== CODE BLOCK END ===

=== CODE BLOCK ADDRESS 0x3ee3 ===
  0x3ee3	mov    	edx, 0x89
  0x3ee8	jmp    	0x3e45
  === BLOCK LINK ===
    0x3eed
=== CODE BLOCK END ===

=== CODE BLOCK ADDRESS 0x3eed ===
  0x3eed	xor    	eax, eax
  0x3eef	dec    	eax
  0x3ef0	mov    	ecx, dword ptr [esp + 0x240]
  0x3ef7	dec    	eax
  0x3ef8	xor    	ecx, esp
  === BLOCK LINK ===
    0x3efa
=== CODE BLOCK END ===

=== CODE BLOCK ADDRESS 0x3efa ===
  0x3efa	call   	0x5280
  === BLOCK LINK ===
    0x3eff
=== CODE BLOCK END ===

=== CODE BLOCK ADDRESS 0x3eff ===
  0x3eff	dec    	esp
  0x3f00	lea    	ebx, [esp + 0x250]
  0x3f07	dec    	ecx
  0x3f08	mov    	ebx, dword ptr [ebx + 0x38]
  0x3f0b	dec    	ecx
  === BLOCK LINK ===
    0x3f0c
=== CODE BLOCK END ===

=== CODE BLOCK ADDRESS 0x3f0c ===
  0x3f0c	mov    	ebp, dword ptr [ebx + 0x40]
  0x3f0f	dec    	ecx
  0x3f10	mov    	esp, ebx
  0x3f12	inc    	ecx
  0x3f13	pop    	edi
  === BLOCK LINK ===
    0x3f14
=== CODE BLOCK END ===

=== CODE BLOCK ADDRESS 0x3f14 ===
  0x3f14	inc    	ecx
  0x3f15	pop    	esi
  0x3f16	inc    	ecx
  0x3f17	pop    	esp
  0x3f18	pop    	edi
  === BLOCK LINK ===
    0x3f19
=== CODE BLOCK END ===

=== CODE BLOCK ADDRESS 0x3f19 ===
  0x3f19	pop    	esi
  0x3f1a	ret    	
  0x3f1b	int3   	
  0x3f1c	call   	0x3c88
  === BLOCK LINK ===
    0x3f21
=== CODE BLOCK END ===

=== CODE BLOCK ADDRESS 0x3f21 ===
  0x3f21	int3   	
  0x3f22	int3   	
  0x3f23	int3   	
  0x3f24	int3   	
  0x3f25	int3   	
  === BLOCK LINK ===
    0x3f26
=== CODE BLOCK END ===

=== CODE BLOCK ADDRESS 0x3f26 ===
  0x3f26	int3   	
  0x3f27	int3   	
  0x3f28	dec    	eax
  0x3f29	mov    	dword ptr [esp + 8], esi
  0x3f2d	push   	edi
  === BLOCK LINK ===
    0x3f2e
=== CODE BLOCK END ===

=== CODE BLOCK ADDRESS 0x3f2e ===
  0x3f2e	dec    	eax
  0x3f2f	sub    	esp, 0x20
  0x3f32	dec    	eax
  0x3f33	mov    	esi, edx
  0x3f35	dec    	eax
  === BLOCK LINK ===
    0x3f36
=== CODE BLOCK END ===

=== CODE BLOCK ADDRESS 0x3f36 ===
  0x3f36	mov    	edi, ecx
  0x3f38	xor    	edx, edx
  0x3f3a	dec    	eax
  0x3f3b	call   	dword ptr [0x2407]
  === BLOCK LINK ===
    0x3f41
=== CODE BLOCK END ===

=== CODE BLOCK ADDRESS 0x3f41 ===
  0x3f41	nop    	dword ptr [eax + eax]
  0x3f46	cmp    	eax, -1
  0x3f49	jne    	0x3f5f
  === BLOCK LINK ===
    0x3f4b
=== CODE BLOCK END ===

=== CODE BLOCK ADDRESS 0x3f4b ===
  0x3f4b	mov    	edx, 0x95
  0x3f50	dec    	eax
  0x3f51	mov    	ecx, dword ptr [esp + 0x28]
  0x3f55	call   	0x3c04
  === BLOCK LINK ===
    0x3f5a
=== CODE BLOCK END ===

=== CODE BLOCK ADDRESS 0x3f5a ===
  0x3f5a	jmp    	0x408e
  === BLOCK LINK ===
    0x3f5f
=== CODE BLOCK END ===

=== CODE BLOCK ADDRESS 0x3f5f ===
  0x3f5f	test   	eax, eax
  0x3f61	je     	0x3f74
  === BLOCK LINK ===
    0x3f63
=== CODE BLOCK END ===

=== CODE BLOCK ADDRESS 0x3f63 ===
  0x3f63	cmp    	eax, 0x102
  0x3f68	je     	0x3f74
  === BLOCK LINK ===
    0x3f6a
=== CODE BLOCK END ===

=== CODE BLOCK ADDRESS 0x3f6a ===
  0x3f6a	mov    	edx, 0x96
  0x3f6f	jmp    	0x4079
  === BLOCK LINK ===
    0x3f74
=== CODE BLOCK END ===

=== CODE BLOCK ADDRESS 0x3f74 ===
  0x3f74	and    	dword ptr [esp + 0x40], 0
  0x3f79	mov    	edx, 1
  0x3f7e	dec    	eax
  0x3f7f	mov    	ecx, edi
  0x3f81	test   	eax, eax
  === BLOCK LINK ===
    0x3f83
=== CODE BLOCK END ===

=== CODE BLOCK ADDRESS 0x3f83 ===
  0x3f83	jne    	0x3fe0
  === BLOCK LINK ===
    0x3f85
=== CODE BLOCK END ===

=== CODE BLOCK ADDRESS 0x3f85 ===
  0x3f85	dec    	esp
  0x3f86	lea    	eax, [esp + 0x40]
  0x3f8a	dec    	eax
  0x3f8b	call   	dword ptr [0x23d7]
  === BLOCK LINK ===
    0x3f91
=== CODE BLOCK END ===

=== CODE BLOCK ADDRESS 0x3f91 ===
  0x3f91	nop    	dword ptr [eax + eax]
  0x3f96	test   	eax, eax
  0x3f98	jne    	0x3fa1
  === BLOCK LINK ===
    0x3f9a
=== CODE BLOCK END ===

=== CODE BLOCK ADDRESS 0x3f9a ===
  0x3f9a	mov    	edx, 0x9e
  0x3f9f	jmp    	0x3f50
  === BLOCK LINK ===
    0x3fa1
=== CODE BLOCK END ===

=== CODE BLOCK ADDRESS 0x3fa1 ===
  0x3fa1	inc    	dword ptr [esp + 0x40]
  0x3fa5	inc    	ebp
  0x3fa6	xor    	eax, eax
  0x3fa8	dec    	eax
  0x3fa9	mov    	ecx, edi
  === BLOCK LINK ===
    0x3fab
=== CODE BLOCK END ===

=== CODE BLOCK ADDRESS 0x3fab ===
  0x3fab	inc    	ecx
  0x3fac	lea    	edx, [eax + 1]
  0x3faf	dec    	eax
  0x3fb0	call   	dword ptr [0x23b2]
  === BLOCK LINK ===
    0x3fb6
=== CODE BLOCK END ===

=== CODE BLOCK ADDRESS 0x3fb6 ===
  0x3fb6	nop    	dword ptr [eax + eax]
  0x3fbb	test   	eax, eax
  0x3fbd	jne    	0x3fd6
  === BLOCK LINK ===
    0x3fbf
=== CODE BLOCK END ===

=== CODE BLOCK ADDRESS 0x3fbf ===
  0x3fbf	dec    	eax
  0x3fc0	call   	dword ptr [0x224a]
  === BLOCK LINK ===
    0x3fc6
=== CODE BLOCK END ===

=== CODE BLOCK ADDRESS 0x3fc6 ===
  0x3fc6	nop    	dword ptr [eax + eax]
  0x3fcb	cmp    	eax, 0x12a
  0x3fd0	je     	0x406a
  === BLOCK LINK ===
    0x3fd6
=== CODE BLOCK END ===

=== CODE BLOCK ADDRESS 0x3fd6 ===
  0x3fd6	mov    	edx, 0xa3
  0x3fdb	jmp    	0x4079
  === BLOCK LINK ===
    0x3fe0
=== CODE BLOCK END ===

=== CODE BLOCK ADDRESS 0x3fe0 ===
  0x3fe0	and    	dword ptr [esp + 0x48], 0
  0x3fe5	dec    	esp
  0x3fe6	lea    	eax, [esp + 0x48]
  0x3fea	dec    	eax
  0x3feb	call   	dword ptr [0x2377]
  === BLOCK LINK ===
    0x3ff1
=== CODE BLOCK END ===

=== CODE BLOCK ADDRESS 0x3ff1 ===
  0x3ff1	nop    	dword ptr [eax + eax]
  0x3ff6	test   	eax, eax
  0x3ff8	jne    	0x4004
  === BLOCK LINK ===
    0x3ffa
=== CODE BLOCK END ===

=== CODE BLOCK ADDRESS 0x3ffa ===
  0x3ffa	mov    	edx, 0xad
  0x3fff	jmp    	0x3f50
  === BLOCK LINK ===
    0x4004
=== CODE BLOCK END ===

=== CODE BLOCK ADDRESS 0x4004 ===
  0x4004	cmp    	dword ptr [esp + 0x48], 0
  0x4009	je     	0x4012
  === BLOCK LINK ===
    0x400b
=== CODE BLOCK END ===

=== CODE BLOCK ADDRESS 0x400b ===
  0x400b	mov    	edx, 0xae
  0x4010	jmp    	0x4079
  === BLOCK LINK ===
    0x4012
=== CODE BLOCK END ===

=== CODE BLOCK ADDRESS 0x4012 ===
  0x4012	inc    	ebp
  0x4013	xor    	eax, eax
  0x4015	dec    	eax
  0x4016	mov    	ecx, edi
  0x4018	inc    	ecx
  === BLOCK LINK ===
    0x4019
=== CODE BLOCK END ===

=== CODE BLOCK ADDRESS 0x4019 ===
  0x4019	lea    	edx, [eax + 1]
  0x401c	dec    	eax
  0x401d	call   	dword ptr [0x2345]
  === BLOCK LINK ===
    0x4023
=== CODE BLOCK END ===

=== CODE BLOCK ADDRESS 0x4023 ===
  0x4023	nop    	dword ptr [eax + eax]
  0x4028	test   	eax, eax
  0x402a	jne    	0x4074
  === BLOCK LINK ===
    0x402c
=== CODE BLOCK END ===

=== CODE BLOCK ADDRESS 0x402c ===
  0x402c	dec    	eax
  0x402d	call   	dword ptr [0x21dd]
  === BLOCK LINK ===
    0x4033
=== CODE BLOCK END ===

=== CODE BLOCK ADDRESS 0x4033 ===
  0x4033	nop    	dword ptr [eax + eax]
  0x4038	cmp    	eax, 0x12a
  0x403d	jne    	0x4074
  === BLOCK LINK ===
    0x403f
=== CODE BLOCK END ===

=== CODE BLOCK ADDRESS 0x403f ===
  0x403f	xor    	edx, edx
  0x4041	dec    	eax
  0x4042	mov    	ecx, edi
  0x4044	dec    	eax
  0x4045	call   	dword ptr [0x22fd]
  === BLOCK LINK ===
    0x404b
=== CODE BLOCK END ===

=== CODE BLOCK ADDRESS 0x404b ===
  0x404b	nop    	dword ptr [eax + eax]
  0x4050	cmp    	eax, -1
  0x4053	jne    	0x405f
  === BLOCK LINK ===
    0x4055
=== CODE BLOCK END ===

=== CODE BLOCK ADDRESS 0x4055 ===
  0x4055	mov    	edx, 0xb4
  0x405a	jmp    	0x3f50
  === BLOCK LINK ===
    0x405f
=== CODE BLOCK END ===

=== CODE BLOCK ADDRESS 0x405f ===
  0x405f	test   	eax, eax
  0x4061	je     	0x406a
  === BLOCK LINK ===
    0x4063
=== CODE BLOCK END ===

=== CODE BLOCK ADDRESS 0x4063 ===
  0x4063	mov    	edx, 0xb5
  0x4068	jmp    	0x4079
  === BLOCK LINK ===
    0x406a
=== CODE BLOCK END ===

=== CODE BLOCK ADDRESS 0x406a ===
  0x406a	mov    	eax, dword ptr [esp + 0x40]
  0x406e	mov    	dword ptr [esi], eax
  0x4070	xor    	eax, eax
  0x4072	jmp    	0x408e
  === BLOCK LINK ===
    0x4074
=== CODE BLOCK END ===

=== CODE BLOCK ADDRESS 0x4074 ===
  0x4074	mov    	edx, 0xb1
  0x4079	dec    	eax
  0x407a	mov    	ecx, dword ptr [esp + 0x28]
  0x407e	inc    	ecx
  0x407f	mov    	ecx, 0x8000ffff
  === BLOCK LINK ===
    0x4084
=== CODE BLOCK END ===

=== CODE BLOCK ADDRESS 0x4084 ===
  0x4084	call   	0x3bc8
  === BLOCK LINK ===
    0x4089
=== CODE BLOCK END ===

=== CODE BLOCK ADDRESS 0x4089 ===
  0x4089	mov    	eax, 0x8000ffff
  0x408e	dec    	eax
  0x408f	mov    	esi, dword ptr [esp + 0x30]
  0x4093	dec    	eax
  0x4094	add    	esp, 0x20
  === BLOCK LINK ===
    0x4097
=== CODE BLOCK END ===

=== CODE BLOCK ADDRESS 0x4097 ===
  0x4097	pop    	edi
  0x4098	ret    	
  0x4099	int3   	
  0x409a	int3   	
  0x409b	int3   	
  === BLOCK LINK ===
    0x409c
=== CODE BLOCK END ===

=== CODE BLOCK ADDRESS 0x409c ===
  0x409c	int3   	
  0x409d	int3   	
  0x409e	int3   	
  0x409f	int3   	
  0x40a0	dec    	eax
  === BLOCK LINK ===
    0x40a1
=== CODE BLOCK END ===

=== CODE BLOCK ADDRESS 0x40a1 ===
  0x40a1	mov    	dword ptr [esp + 8], ebx
  0x40a5	dec    	eax
  0x40a6	mov    	dword ptr [esp + 0x10], ebp
  0x40aa	dec    	eax
  0x40ab	mov    	dword ptr [esp + 0x18], esi
  === BLOCK LINK ===
    0x40af
=== CODE BLOCK END ===

=== CODE BLOCK ADDRESS 0x40af ===
  0x40af	push   	edi
  0x40b0	dec    	eax
  0x40b1	sub    	esp, 0x20
  0x40b4	dec    	eax
  0x40b5	mov    	ebx, dword ptr [ecx + 0x18]
  === BLOCK LINK ===
    0x40b8
=== CODE BLOCK END ===

=== CODE BLOCK ADDRESS 0x40b8 ===
  0x40b8	xor    	ebp, ebp
  0x40ba	movzx  	eax, word ptr [ecx + 0x20]
  0x40be	dec    	eax
  0x40bf	mov    	edi, ecx
  0x40c1	dec    	eax
  === BLOCK LINK ===
    0x40c2
=== CODE BLOCK END ===

=== CODE BLOCK ADDRESS 0x40c2 ===
  0x40c2	lea    	esi, [eax + eax*4]
  0x40c5	dec    	eax
  0x40c6	shl    	esi, 4
  0x40c9	dec    	eax
  0x40ca	add    	esi, ebx
  === BLOCK LINK ===
    0x40cc
=== CODE BLOCK END ===

=== CODE BLOCK ADDRESS 0x40cc ===
  0x40cc	dec    	eax
  0x40cd	cmp    	ebx, esi
  0x40cf	je     	0x410d
  === BLOCK LINK ===
    0x40d1
=== CODE BLOCK END ===

=== CODE BLOCK ADDRESS 0x40d1 ===
  0x40d1	dec    	eax
  0x40d2	add    	ebx, 0x40
  0x40d5	dec    	eax
  0x40d6	call   	dword ptr [0x2184]
  === BLOCK LINK ===
    0x40dc
=== CODE BLOCK END ===

=== CODE BLOCK ADDRESS 0x40dc ===
  0x40dc	nop    	dword ptr [eax + eax]
  0x40e1	dec    	esp
  0x40e2	mov    	eax, dword ptr [ebx]
  0x40e4	xor    	edx, edx
  0x40e6	dec    	eax
  === BLOCK LINK ===
    0x40e7
=== CODE BLOCK END ===

=== CODE BLOCK ADDRESS 0x40e7 ===
  0x40e7	mov    	ecx, eax
  0x40e9	dec    	eax
  0x40ea	call   	dword ptr [0x2168]
  === BLOCK LINK ===
    0x40f0
=== CODE BLOCK END ===

=== CODE BLOCK ADDRESS 0x40f0 ===
  0x40f0	nop    	dword ptr [eax + eax]
  0x40f5	dec    	eax
  0x40f6	mov    	dword ptr [ebx], ebp
  0x40f8	dec    	eax
  0x40f9	mov    	dword ptr [ebx + 8], ebp
  === BLOCK LINK ===
    0x40fc
=== CODE BLOCK END ===

=== CODE BLOCK ADDRESS 0x40fc ===
  0x40fc	dec    	eax
  0x40fd	lea    	ebx, [ebx + 0x50]
  0x4100	dec    	eax
  0x4101	lea    	eax, [ebx - 0x40]
  0x4104	dec    	eax
  === BLOCK LINK ===
    0x4105
=== CODE BLOCK END ===

=== CODE BLOCK ADDRESS 0x4105 ===
  0x4105	cmp    	eax, esi
  0x4107	jne    	0x40d5
  === BLOCK LINK ===
    0x4109
=== CODE BLOCK END ===

=== CODE BLOCK ADDRESS 0x4109 ===
  0x4109	dec    	eax
  0x410a	mov    	ebx, dword ptr [edi + 0x18]
  0x410d	dec    	eax
  0x410e	call   	dword ptr [0x214c]
  === BLOCK LINK ===
    0x4114
=== CODE BLOCK END ===

=== CODE BLOCK ADDRESS 0x4114 ===
  0x4114	nop    	dword ptr [eax + eax]
  0x4119	dec    	esp
  0x411a	mov    	eax, ebx
  0x411c	xor    	edx, edx
  0x411e	dec    	eax
  === BLOCK LINK ===
    0x411f
=== CODE BLOCK END ===

=== CODE BLOCK ADDRESS 0x411f ===
  0x411f	mov    	ecx, eax
  0x4121	dec    	eax
  0x4122	call   	dword ptr [0x2130]
  === BLOCK LINK ===
    0x4128
=== CODE BLOCK END ===

=== CODE BLOCK ADDRESS 0x4128 ===
  0x4128	nop    	dword ptr [eax + eax]
  0x412d	dec    	eax
  0x412e	mov    	ebx, dword ptr [esp + 0x30]
  0x4132	dec    	eax
  0x4133	mov    	esi, dword ptr [esp + 0x40]
  === BLOCK LINK ===
    0x4137
=== CODE BLOCK END ===

=== CODE BLOCK ADDRESS 0x4137 ===
  0x4137	mov    	dword ptr [edi + 0x20], ebp
  0x413a	dec    	eax
  0x413b	mov    	dword ptr [edi + 0x18], ebp
  0x413e	dec    	eax
  0x413f	mov    	ebp, dword ptr [esp + 0x38]
  === BLOCK LINK ===
    0x4143
=== CODE BLOCK END ===

=== CODE BLOCK ADDRESS 0x4143 ===
  0x4143	dec    	eax
  0x4144	add    	esp, 0x20
  0x4147	pop    	edi
  0x4148	ret    	
  0x4149	int3   	
  === BLOCK LINK ===
    0x414a
=== CODE BLOCK END ===

=== CODE BLOCK ADDRESS 0x414a ===
  0x414a	int3   	
  0x414b	int3   	
  0x414c	int3   	
  0x414d	int3   	
  0x414e	int3   	
  === BLOCK LINK ===
    0x414f
=== CODE BLOCK END ===

=== CODE BLOCK ADDRESS 0x414f ===
  0x414f	int3   	
  0x4150	dec    	eax
  0x4151	mov    	dword ptr [esp + 8], ebx
  0x4155	dec    	eax
  0x4156	mov    	dword ptr [esp + 0x10], ebp
  === BLOCK LINK ===
    0x415a
=== CODE BLOCK END ===

=== CODE BLOCK ADDRESS 0x415a ===
  0x415a	dec    	eax
  0x415b	mov    	dword ptr [esp + 0x18], esi
  0x415f	push   	edi
  0x4160	inc    	ecx
  0x4161	push   	esp
  === BLOCK LINK ===
    0x4162
=== CODE BLOCK END ===

=== CODE BLOCK ADDRESS 0x4162 ===
  0x4162	inc    	ecx
  0x4163	push   	ebp
  0x4164	inc    	ecx
  0x4165	push   	esi
  0x4166	inc    	ecx
  === BLOCK LINK ===
    0x4167
=== CODE BLOCK END ===

=== CODE BLOCK ADDRESS 0x4167 ===
  0x4167	push   	edi
  0x4168	dec    	eax
  0x4169	sub    	esp, 0x20
  0x416c	dec    	eax
  0x416d	mov    	ebx, dword ptr [ecx + 0x18]
  === BLOCK LINK ===
    0x4170
=== CODE BLOCK END ===

=== CODE BLOCK ADDRESS 0x4170 ===
  0x4170	inc    	ebp
  0x4171	xor    	ebp, ebp
  0x4173	mov    	ebp, dword ptr [ecx + 0x10]
  0x4176	dec    	esp
  0x4177	mov    	esi, edx
  === BLOCK LINK ===
    0x4179
=== CODE BLOCK END ===

=== CODE BLOCK ADDRESS 0x4179 ===
  0x4179	dec    	eax
  0x417a	mov    	esi, ecx
  0x417c	inc    	ecx
  0x417d	mov    	edi, 0x50
  0x4182	dec    	eax
  === BLOCK LINK ===
    0x4183
=== CODE BLOCK END ===

=== CODE BLOCK ADDRESS 0x4183 ===
  0x4183	test   	ebx, ebx
  0x4185	jne    	0x4216
  === BLOCK LINK ===
    0x418b
=== CODE BLOCK END ===

=== CODE BLOCK ADDRESS 0x418b ===
  0x418b	test   	ebp, ebp
  0x418d	je     	0x420d
  === BLOCK LINK ===
    0x418f
=== CODE BLOCK END ===

=== CODE BLOCK ADDRESS 0x418f ===
  0x418f	dec    	eax
  0x4190	call   	dword ptr [0x20ca]
  === BLOCK LINK ===
    0x4196
=== CODE BLOCK END ===

=== CODE BLOCK ADDRESS 0x4196 ===
  0x4196	nop    	dword ptr [eax + eax]
  0x419b	lea    	edx, [ebx + 8]
  0x419e	inc    	ecx
  0x419f	mov    	eax, 0x190
  0x41a4	dec    	eax
  === BLOCK LINK ===
    0x41a5
=== CODE BLOCK END ===

=== CODE BLOCK ADDRESS 0x41a5 ===
  0x41a5	mov    	ecx, eax
  0x41a7	dec    	eax
  0x41a8	call   	dword ptr [0x20ba]
  === BLOCK LINK ===
    0x41ae
=== CODE BLOCK END ===

=== CODE BLOCK ADDRESS 0x41ae ===
  0x41ae	nop    	dword ptr [eax + eax]
  0x41b3	dec    	esp
  0x41b4	cmp    	dword ptr [0x563e], ebp
  0x41ba	dec    	eax
  0x41bb	mov    	edi, eax
  === BLOCK LINK ===
    0x41bd
=== CODE BLOCK END ===

=== CODE BLOCK ADDRESS 0x41bd ===
  0x41bd	dec    	eax
  0x41be	mov    	ebx, eax
  0x41c0	je     	0x41e1
  === BLOCK LINK ===
    0x41c2
=== CODE BLOCK END ===

=== CODE BLOCK ADDRESS 0x41c2 ===
  0x41c2	dec    	eax
  0x41c3	call   	dword ptr [0x2097]
  === BLOCK LINK ===
    0x41c9
=== CODE BLOCK END ===

=== CODE BLOCK ADDRESS 0x41c9 ===
  0x41c9	nop    	dword ptr [eax + eax]
  0x41ce	dec    	eax
  0x41cf	mov    	ecx, eax
  0x41d1	dec    	eax
  0x41d2	mov    	edx, ebx
  === BLOCK LINK ===
    0x41d4
=== CODE BLOCK END ===

=== CODE BLOCK ADDRESS 0x41d4 ===
  0x41d4	dec    	eax
  0x41d5	mov    	eax, dword ptr [0x561d]
  0x41db	call   	dword ptr [0x239f]
  === BLOCK LINK ===
    0x41e1
=== CODE BLOCK END ===

=== CODE BLOCK ADDRESS 0x41e1 ===
  0x41e1	dec    	eax
  0x41e2	mov    	dword ptr [esi + 0x18], edi
  0x41e5	dec    	eax
  0x41e6	test   	edi, edi
  0x41e8	je     	0x420d
  === BLOCK LINK ===
    0x41ea
=== CODE BLOCK END ===

=== CODE BLOCK ADDRESS 0x41ea ===
  0x41ea	dec    	eax
  0x41eb	lea    	eax, [edi + 0x190]
  0x41f1	mov    	dword ptr [esi + 0x20], 5
  0x41f8	dec    	eax
  0x41f9	cmp    	edi, eax
  === BLOCK LINK ===
    0x41fb
=== CODE BLOCK END ===

=== CODE BLOCK ADDRESS 0x41fb ===
  0x41fb	je     	0x420d
  === BLOCK LINK ===
    0x41fd
=== CODE BLOCK END ===

=== CODE BLOCK ADDRESS 0x41fd ===
  0x41fd	inc    	sp
  0x41ff	mov    	dword ptr [edi], edi
  0x4201	dec    	ecx
  0x4202	add    	edi, edi
  0x4204	dec    	eax
  === BLOCK LINK ===
    0x4205
=== CODE BLOCK END ===

=== CODE BLOCK ADDRESS 0x4205 ===
  0x4205	cmp    	edi, eax
  0x4207	jne    	0x41fd
  === BLOCK LINK ===
    0x4209
=== CODE BLOCK END ===

=== CODE BLOCK ADDRESS 0x4209 ===
  0x4209	dec    	eax
  0x420a	mov    	ebx, dword ptr [esi + 0x18]
  0x420d	dec    	eax
  0x420e	test   	ebx, ebx
  0x4210	je     	0x440a
  === BLOCK LINK ===
    0x4216
=== CODE BLOCK END ===

=== CODE BLOCK ADDRESS 0x4216 ===
  0x4216	test   	ebp, ebp
  0x4218	je     	0x4252
  === BLOCK LINK ===
    0x421a
=== CODE BLOCK END ===

=== CODE BLOCK ADDRESS 0x421a ===
  0x421a	movzx  	eax, word ptr [esi + 0x20]
  0x421e	dec    	eax
  0x421f	lea    	ecx, [eax + eax*4]
  0x4222	dec    	eax
  0x4223	shl    	ecx, 4
  === BLOCK LINK ===
    0x4226
=== CODE BLOCK END ===

=== CODE BLOCK ADDRESS 0x4226 ===
  0x4226	dec    	eax
  0x4227	add    	ecx, ebx
  0x4229	dec    	eax
  0x422a	cmp    	ebx, ecx
  0x422c	je     	0x4252
  === BLOCK LINK ===
    0x422e
=== CODE BLOCK END ===

=== CODE BLOCK ADDRESS 0x422e ===
  0x422e	mov    	edx, dword ptr [esi + 0x10]
  0x4231	dec    	eax
  0x4232	add    	ebx, 8
  0x4235	cmp    	dword ptr [ebx - 4], edx
  0x4238	jbe    	0x4246
  === BLOCK LINK ===
    0x423a
=== CODE BLOCK END ===

=== CODE BLOCK ADDRESS 0x423a ===
  0x423a	inc    	ecx
  0x423b	mov    	eax, dword ptr [esi + 4]
  0x423e	cmp    	dword ptr [ebx], eax
  0x4240	je     	0x440a
  === BLOCK LINK ===
    0x4246
=== CODE BLOCK END ===

=== CODE BLOCK ADDRESS 0x4246 ===
  0x4246	dec    	ecx
  0x4247	add    	ebx, edi
  0x4249	dec    	eax
  0x424a	lea    	eax, [ebx - 8]
  0x424d	dec    	eax
  === BLOCK LINK ===
    0x424e
=== CODE BLOCK END ===

=== CODE BLOCK ADDRESS 0x424e ===
  0x424e	cmp    	eax, ecx
  0x4250	jne    	0x4235
  === BLOCK LINK ===
    0x4252
=== CODE BLOCK END ===

=== CODE BLOCK ADDRESS 0x4252 ===
  0x4252	movzx  	eax, word ptr [esi + 0x22]
  0x4256	inc    	ecx
  0x4257	mov    	eax, 1
  0x425c	movzx  	ecx, word ptr [esi + 0x20]
  0x4260	inc    	ecx
  === BLOCK LINK ===
    0x4261
=== CODE BLOCK END ===

=== CODE BLOCK ADDRESS 0x4261 ===
  0x4261	add    	eax, eax
  0x4263	xor    	edx, edx
  0x4265	div    	ecx
  0x4267	dec    	eax
  0x4268	mov    	eax, dword ptr [esi + 8]
  === BLOCK LINK ===
    0x426b
=== CODE BLOCK END ===

=== CODE BLOCK ADDRESS 0x426b ===
  0x426b	inc    	ecx
  0x426c	mov    	ecx, eax
  0x426e	mov    	word ptr [esi + 0x22], dx
  0x4272	lock xadd  	dword ptr [eax], ecx
  0x4276	movzx  	eax, word ptr [esi + 0x22]
  === BLOCK LINK ===
    0x427a
=== CODE BLOCK END ===

=== CODE BLOCK ADDRESS 0x427a ===
  0x427a	inc    	ecx
  0x427b	add    	ecx, eax
  0x427d	dec    	eax
  0x427e	or     	edx, 0xffffffff
  0x4281	dec    	eax
  === BLOCK LINK ===
    0x4282
=== CODE BLOCK END ===

=== CODE BLOCK ADDRESS 0x4282 ===
  0x4282	lea    	ebx, [eax + eax*4]
  0x4285	dec    	eax
  0x4286	shl    	ebx, 4
  0x4289	dec    	eax
  0x428a	add    	ebx, dword ptr [esi + 0x18]
  === BLOCK LINK ===
    0x428d
=== CODE BLOCK END ===

=== CODE BLOCK ADDRESS 0x428d ===
  0x428d	mov    	dword ptr [ebx + 4], ecx
  0x4290	dec    	esp
  0x4291	lea    	edi, [ebx + 0x10]
  0x4294	inc    	ecx
  0x4295	mov    	eax, dword ptr [esi + 4]
  === BLOCK LINK ===
    0x4298
=== CODE BLOCK END ===

=== CODE BLOCK ADDRESS 0x4298 ===
  0x4298	dec    	eax
  0x4299	lea    	ebp, [ebx + 0x20]
  0x429c	mov    	dword ptr [ebx + 8], eax
  0x429f	dec    	esp
  0x42a0	lea    	esp, [ebx + 0x38]
  === BLOCK LINK ===
    0x42a3
=== CODE BLOCK END ===

=== CODE BLOCK ADDRESS 0x42a3 ===
  0x42a3	dec    	ebp
  0x42a4	mov    	dword ptr [edi], ebp
  0x42a6	inc    	ecx
  0x42a7	movzx  	eax, word ptr [esi + 0x38]
  0x42ab	mov    	word ptr [ebx + 0x18], ax
  === BLOCK LINK ===
    0x42af
=== CODE BLOCK END ===

=== CODE BLOCK ADDRESS 0x42af ===
  0x42af	inc    	ecx
  0x42b0	mov    	al, byte ptr [esi]
  0x42b2	mov    	byte ptr [ebx + 0x1a], al
  0x42b5	dec    	esp
  0x42b6	mov    	dword ptr [ebp], ebp
  === BLOCK LINK ===
    0x42b9
=== CODE BLOCK END ===

=== CODE BLOCK ADDRESS 0x42b9 ===
  0x42b9	dec    	ecx
  0x42ba	mov    	eax, dword ptr [esi + 0x80]
  0x42c0	dec    	eax
  0x42c1	mov    	dword ptr [ebx + 0x28], eax
  0x42c4	dec    	ecx
  === BLOCK LINK ===
    0x42c5
=== CODE BLOCK END ===

=== CODE BLOCK ADDRESS 0x42c5 ===
  0x42c5	mov    	eax, dword ptr [esi + 0x88]
  0x42cb	dec    	eax
  0x42cc	mov    	dword ptr [ebx + 0x30], eax
  0x42cf	dec    	ebp
  0x42d0	mov    	dword ptr [esp], ebp
  === BLOCK LINK ===
    0x42d3
=== CODE BLOCK END ===

=== CODE BLOCK ADDRESS 0x42d3 ===
  0x42d3	dec    	ecx
  0x42d4	mov    	ecx, dword ptr [esi + 0x30]
  0x42d7	dec    	eax
  0x42d8	test   	ecx, ecx
  0x42da	jne    	0x42e1
  === BLOCK LINK ===
    0x42dc
=== CODE BLOCK END ===

=== CODE BLOCK ADDRESS 0x42dc ===
  0x42dc	inc    	ecx
  0x42dd	mov    	eax, eax
  0x42df	jmp    	0x42f0
  === BLOCK LINK ===
    0x42e1
=== CODE BLOCK END ===

=== CODE BLOCK ADDRESS 0x42e1 ===
  0x42e1	dec    	eax
  0x42e2	mov    	eax, edx
  0x42e4	dec    	eax
  0x42e5	inc    	eax
  0x42e7	inc    	esp
  === BLOCK LINK ===
    0x42e8
=== CODE BLOCK END ===

=== CODE BLOCK ADDRESS 0x42e8 ===
  0x42e8	cmp    	byte ptr [ecx + eax], ch
  0x42eb	jne    	0x42e4
  === BLOCK LINK ===
    0x42ed
=== CODE BLOCK END ===

=== CODE BLOCK ADDRESS 0x42ed ===
  0x42ed	dec    	ecx
  0x42ee	add    	eax, eax
  0x42f0	dec    	ebp
  0x42f1	mov    	ecx, dword ptr [esi + 0x78]
  0x42f4	dec    	ebp
  === BLOCK LINK ===
    0x42f5
=== CODE BLOCK END ===

=== CODE BLOCK ADDRESS 0x42f5 ===
  0x42f5	test   	ecx, ecx
  0x42f7	je     	0x4308
  === BLOCK LINK ===
    0x42f9
=== CODE BLOCK END ===

=== CODE BLOCK ADDRESS 0x42f9 ===
  0x42f9	dec    	eax
  0x42fa	mov    	ecx, edx
  0x42fc	dec    	eax
  0x42fd	inc    	ecx
  0x42ff	inc    	ebp
  === BLOCK LINK ===
    0x4300
=== CODE BLOCK END ===

=== CODE BLOCK ADDRESS 0x4300 ===
  0x4300	cmp    	byte ptr [ecx + ecx], ch
  0x4303	jne    	0x42fc
  === BLOCK LINK ===
    0x4305
=== CODE BLOCK END ===

=== CODE BLOCK ADDRESS 0x4305 ===
  0x4305	dec    	esp
  0x4306	add    	eax, ecx
  0x4308	dec    	ecx
  0x4309	mov    	ecx, dword ptr [esi + 0x10]
  0x430c	dec    	eax
  === BLOCK LINK ===
    0x430d
=== CODE BLOCK END ===

=== CODE BLOCK ADDRESS 0x430d ===
  0x430d	test   	ecx, ecx
  0x430f	jne    	0x4316
  === BLOCK LINK ===
    0x4311
=== CODE BLOCK END ===

=== CODE BLOCK ADDRESS 0x4311 ===
  0x4311	lea    	edx, [ecx + 2]
  0x4314	jmp    	0x4328
  === BLOCK LINK ===
    0x4316
=== CODE BLOCK END ===

=== CODE BLOCK ADDRESS 0x4316 ===
  0x4316	dec    	eax
  0x4317	inc    	edx
  0x4319	inc    	sp
  0x431b	cmp    	dword ptr [ecx + edx*2], ebp
  0x431e	jne    	0x4316
  === BLOCK LINK ===
    0x4320
=== CODE BLOCK END ===

=== CODE BLOCK ADDRESS 0x4320 ===
  0x4320	dec    	eax
  0x4321	lea    	edx, [edx*2 + 2]
  0x4328	dec    	edx
  0x4329	lea    	edi, [edx + eax]
  0x432c	dec    	eax
  === BLOCK LINK ===
    0x432d
=== CODE BLOCK END ===

=== CODE BLOCK ADDRESS 0x432d ===
  0x432d	add    	edi, eax
  0x432f	dec    	esp
  0x4330	cmp    	dword ptr [ebx + 0x40], ebp
  0x4333	je     	0x433b
  === BLOCK LINK ===
    0x4335
=== CODE BLOCK END ===

=== CODE BLOCK ADDRESS 0x4335 ===
  0x4335	dec    	eax
  0x4336	cmp    	dword ptr [ebx + 0x48], edi
  0x4339	jae    	0x43b7
  === BLOCK LINK ===
    0x433b
=== CODE BLOCK END ===

=== CODE BLOCK ADDRESS 0x433b ===
  0x433b	dec    	eax
  0x433c	call   	dword ptr [0x1f1e]
  === BLOCK LINK ===
    0x4342
=== CODE BLOCK END ===

=== CODE BLOCK ADDRESS 0x4342 ===
  0x4342	nop    	dword ptr [eax + eax]
  0x4347	dec    	esp
  0x4348	mov    	eax, edi
  0x434a	mov    	edx, 8
  0x434f	dec    	eax
  === BLOCK LINK ===
    0x4350
=== CODE BLOCK END ===

=== CODE BLOCK ADDRESS 0x4350 ===
  0x4350	mov    	ecx, eax
  0x4352	dec    	eax
  0x4353	call   	dword ptr [0x1f0f]
  === BLOCK LINK ===
    0x4359
=== CODE BLOCK END ===

=== CODE BLOCK ADDRESS 0x4359 ===
  0x4359	nop    	dword ptr [eax + eax]
  0x435e	dec    	esp
  0x435f	cmp    	dword ptr [0x5493], ebp
  0x4365	dec    	eax
  0x4366	mov    	esi, eax
  === BLOCK LINK ===
    0x4368
=== CODE BLOCK END ===

=== CODE BLOCK ADDRESS 0x4368 ===
  0x4368	je     	0x4389
  === BLOCK LINK ===
    0x436a
=== CODE BLOCK END ===

=== CODE BLOCK ADDRESS 0x436a ===
  0x436a	dec    	eax
  0x436b	call   	dword ptr [0x1eef]
  === BLOCK LINK ===
    0x4371
=== CODE BLOCK END ===

=== CODE BLOCK ADDRESS 0x4371 ===
  0x4371	nop    	dword ptr [eax + eax]
  0x4376	dec    	eax
  0x4377	mov    	ecx, eax
  0x4379	dec    	eax
  0x437a	mov    	edx, esi
  === BLOCK LINK ===
    0x437c
=== CODE BLOCK END ===

=== CODE BLOCK ADDRESS 0x437c ===
  0x437c	dec    	eax
  0x437d	mov    	eax, dword ptr [0x5475]
  0x4383	call   	dword ptr [0x21f7]
  === BLOCK LINK ===
    0x4389
=== CODE BLOCK END ===

=== CODE BLOCK ADDRESS 0x4389 ===
  0x4389	dec    	eax
  0x438a	test   	esi, esi
  0x438c	je     	0x43b7
  === BLOCK LINK ===
    0x438e
=== CODE BLOCK END ===

=== CODE BLOCK ADDRESS 0x438e ===
  0x438e	dec    	eax
  0x438f	call   	dword ptr [0x1ecb]
  === BLOCK LINK ===
    0x4395
=== CODE BLOCK END ===

=== CODE BLOCK ADDRESS 0x4395 ===
  0x4395	nop    	dword ptr [eax + eax]
  0x439a	dec    	esp
  0x439b	mov    	eax, dword ptr [ebx + 0x40]
  0x439e	xor    	edx, edx
  0x43a0	dec    	eax
  === BLOCK LINK ===
    0x43a1
=== CODE BLOCK END ===

=== CODE BLOCK ADDRESS 0x43a1 ===
  0x43a1	mov    	ecx, eax
  0x43a3	dec    	eax
  0x43a4	call   	dword ptr [0x1eae]
  === BLOCK LINK ===
    0x43aa
=== CODE BLOCK END ===

=== CODE BLOCK ADDRESS 0x43aa ===
  0x43aa	nop    	dword ptr [eax + eax]
  0x43af	dec    	eax
  0x43b0	mov    	dword ptr [ebx + 0x40], esi
  0x43b3	dec    	eax
  0x43b4	mov    	dword ptr [ebx + 0x48], edi
  === BLOCK LINK ===
    0x43b7
=== CODE BLOCK END ===

=== CODE BLOCK ADDRESS 0x43b7 ===
  0x43b7	dec    	eax
  0x43b8	mov    	ecx, dword ptr [ebx + 0x40]
  0x43bb	dec    	eax
  0x43bc	test   	ecx, ecx
  0x43be	je     	0x440a
  === BLOCK LINK ===
    0x43c0
=== CODE BLOCK END ===

=== CODE BLOCK ADDRESS 0x43c0 ===
  0x43c0	dec    	eax
  0x43c1	mov    	ebx, dword ptr [ebx + 0x48]
  0x43c4	dec    	ebp
  0x43c5	mov    	ecx, edi
  0x43c7	dec    	ebp
  === BLOCK LINK ===
    0x43c8
=== CODE BLOCK END ===

=== CODE BLOCK ADDRESS 0x43c8 ===
  0x43c8	mov    	eax, dword ptr [esi + 0x30]
  0x43cb	dec    	eax
  0x43cc	add    	ebx, ecx
  0x43ce	dec    	eax
  0x43cf	mov    	edx, ebx
  === BLOCK LINK ===
    0x43d1
=== CODE BLOCK END ===

=== CODE BLOCK ADDRESS 0x43d1 ===
  0x43d1	call   	0x2e48
  === BLOCK LINK ===
    0x43d6
=== CODE BLOCK END ===

=== CODE BLOCK ADDRESS 0x43d6 ===
  0x43d6	dec    	ebp
  0x43d7	mov    	eax, dword ptr [esi + 0x78]
  0x43da	dec    	esp
  0x43db	mov    	ecx, ebp
  0x43dd	dec    	eax
  === BLOCK LINK ===
    0x43de
=== CODE BLOCK END ===

=== CODE BLOCK ADDRESS 0x43de ===
  0x43de	mov    	edx, ebx
  0x43e0	dec    	eax
  0x43e1	mov    	ecx, eax
  0x43e3	call   	0x2e48
  === BLOCK LINK ===
    0x43e8
=== CODE BLOCK END ===

=== CODE BLOCK ADDRESS 0x43e8 ===
  0x43e8	dec    	ebp
  0x43e9	mov    	eax, dword ptr [esi + 0x10]
  0x43ec	dec    	ebp
  0x43ed	mov    	ecx, esp
  0x43ef	dec    	eax
  === BLOCK LINK ===
    0x43f0
=== CODE BLOCK END ===

=== CODE BLOCK ADDRESS 0x43f0 ===
  0x43f0	mov    	edx, ebx
  0x43f2	dec    	eax
  0x43f3	mov    	ecx, eax
  0x43f5	call   	0x2db8
  === BLOCK LINK ===
    0x43fa
=== CODE BLOCK END ===

=== CODE BLOCK ADDRESS 0x43fa ===
  0x43fa	dec    	eax
  0x43fb	sub    	ebx, eax
  0x43fd	xor    	edx, edx
  0x43ff	dec    	esp
  0x4400	mov    	eax, ebx
  === BLOCK LINK ===
    0x4402
=== CODE BLOCK END ===

=== CODE BLOCK ADDRESS 0x4402 ===
  0x4402	dec    	eax
  0x4403	mov    	ecx, eax
  0x4405	call   	0x5b36
  === BLOCK LINK ===
    0x440a
=== CODE BLOCK END ===

=== CODE BLOCK ADDRESS 0x440a ===
  0x440a	dec    	eax
  0x440b	mov    	ebx, dword ptr [esp + 0x50]
  0x440f	dec    	eax
  0x4410	mov    	ebp, dword ptr [esp + 0x58]
  0x4414	dec    	eax
  === BLOCK LINK ===
    0x4415
=== CODE BLOCK END ===

=== CODE BLOCK ADDRESS 0x4415 ===
  0x4415	mov    	esi, dword ptr [esp + 0x60]
  0x4419	dec    	eax
  0x441a	add    	esp, 0x20
  0x441d	inc    	ecx
  0x441e	pop    	edi
  === BLOCK LINK ===
    0x441f
=== CODE BLOCK END ===

=== CODE BLOCK ADDRESS 0x441f ===
  0x441f	inc    	ecx
  0x4420	pop    	esi
  0x4421	inc    	ecx
  0x4422	pop    	ebp
  0x4423	inc    	ecx
  === BLOCK LINK ===
    0x4424
=== CODE BLOCK END ===

=== CODE BLOCK ADDRESS 0x4424 ===
  0x4424	pop    	esp
  0x4425	pop    	edi
  0x4426	ret    	
  0x4427	int3   	
  0x4428	int3   	
  === BLOCK LINK ===
    0x4429
=== CODE BLOCK END ===

=== CODE BLOCK ADDRESS 0x4429 ===
  0x4429	int3   	
  0x442a	int3   	
  0x442b	int3   	
  0x442c	int3   	
  0x442d	int3   	
  === BLOCK LINK ===
    0x442e
=== CODE BLOCK END ===

=== CODE BLOCK ADDRESS 0x442e ===
  0x442e	int3   	
  0x442f	int3   	
  0x4430	dec    	eax
  0x4431	mov    	dword ptr [esp + 8], ebx
  0x4435	push   	edi
  === BLOCK LINK ===
    0x4436
=== CODE BLOCK END ===

=== CODE BLOCK ADDRESS 0x4436 ===
  0x4436	dec    	eax
  0x4437	sub    	esp, 0x20
  0x443a	dec    	eax
  0x443b	mov    	edi, dword ptr [0x547f]
  0x4441	xor    	ebx, ebx
  === BLOCK LINK ===
    0x4443
=== CODE BLOCK END ===

=== CODE BLOCK ADDRESS 0x4443 ===
  0x4443	dec    	eax
  0x4444	test   	edi, edi
  0x4446	je     	0x44e0
  === BLOCK LINK ===
    0x444c
=== CODE BLOCK END ===

=== CODE BLOCK ADDRESS 0x444c ===
  0x444c	dec    	eax
  0x444d	cmp    	dword ptr [edi + 8], ebx
  0x4450	jne    	0x4477
  === BLOCK LINK ===
    0x4452
=== CODE BLOCK END ===

=== CODE BLOCK ADDRESS 0x4452 ===
  0x4452	dec    	eax
  0x4453	mov    	ecx, dword ptr [edi]
  0x4455	dec    	eax
  0x4456	lea    	edx, [esp + 0x38]
  0x445a	dec    	eax
  === BLOCK LINK ===
    0x445b
=== CODE BLOCK END ===

=== CODE BLOCK ADDRESS 0x445b ===
  0x445b	and    	dword ptr [esp + 0x38], ebx
  0x445f	call   	0x4760
  === BLOCK LINK ===
    0x4464
=== CODE BLOCK END ===

=== CODE BLOCK ADDRESS 0x4464 ===
  0x4464	test   	eax, eax
  0x4466	js     	0x4477
  === BLOCK LINK ===
    0x4468
=== CODE BLOCK END ===

=== CODE BLOCK ADDRESS 0x4468 ===
  0x4468	dec    	eax
  0x4469	cmp    	dword ptr [edi + 8], ebx
  0x446c	jne    	0x4477
  === BLOCK LINK ===
    0x446e
=== CODE BLOCK END ===

=== CODE BLOCK ADDRESS 0x446e ===
  0x446e	dec    	eax
  0x446f	mov    	eax, dword ptr [esp + 0x38]
  0x4473	dec    	eax
  0x4474	mov    	dword ptr [edi + 8], eax
  0x4477	dec    	eax
  === BLOCK LINK ===
    0x4478
=== CODE BLOCK END ===

=== CODE BLOCK ADDRESS 0x4478 ===
  0x4478	mov    	eax, dword ptr [edi + 8]
  0x447b	dec    	eax
  0x447c	lea    	ecx, [eax + 0x20]
  0x447f	dec    	eax
  0x4480	neg    	eax
  === BLOCK LINK ===
    0x4482
=== CODE BLOCK END ===

=== CODE BLOCK ADDRESS 0x4482 ===
  0x4482	dec    	eax
  0x4483	sbb    	edi, edi
  0x4485	dec    	eax
  0x4486	and    	edi, ecx
  0x4488	je     	0x44e0
  === BLOCK LINK ===
    0x448a
=== CODE BLOCK END ===

=== CODE BLOCK ADDRESS 0x448a ===
  0x448a	dec    	eax
  0x448b	call   	dword ptr [0x1e47]
  === BLOCK LINK ===
    0x4491
=== CODE BLOCK END ===

=== CODE BLOCK ADDRESS 0x4491 ===
  0x4491	nop    	dword ptr [eax + eax]
  0x4496	inc    	esp
  0x4497	mov    	eax, eax
  0x4499	inc    	esp
  0x449a	mov    	ecx, eax
  === BLOCK LINK ===
    0x449c
=== CODE BLOCK END ===

=== CODE BLOCK ADDRESS 0x449c ===
  0x449c	dec    	eax
  0x449d	mov    	eax, 0xcccccccd
  0x44a2	int3   	
  0x44a3	int3   	
  0x44a4	int3   	
  === BLOCK LINK ===
    0x44a5
=== CODE BLOCK END ===

=== CODE BLOCK ADDRESS 0x44a5 ===
  0x44a5	int3   	
  0x44a6	dec    	ecx
  0x44a7	mul    	ecx
  0x44a9	dec    	eax
  0x44aa	shr    	edx, 3
  === BLOCK LINK ===
    0x44ad
=== CODE BLOCK END ===

=== CODE BLOCK ADDRESS 0x44ad ===
  0x44ad	dec    	eax
  0x44ae	lea    	ecx, [edx + edx*4]
  0x44b1	dec    	eax
  0x44b2	add    	ecx, ecx
  0x44b4	dec    	esp
  === BLOCK LINK ===
    0x44b5
=== CODE BLOCK END ===

=== CODE BLOCK ADDRESS 0x44b5 ===
  0x44b5	sub    	eax, ecx
  0x44b7	dec    	edx
  0x44b8	mov    	ebx, dword ptr [edi + eax*8 + 8]
  0x44bc	jmp    	0x44c7
  === BLOCK LINK ===
    0x44be
=== CODE BLOCK END ===

=== CODE BLOCK ADDRESS 0x44be ===
  0x44be	inc    	esp
  0x44bf	cmp    	dword ptr [ebx], ecx
  0x44c1	je     	0x44ef
  === BLOCK LINK ===
    0x44c3
=== CODE BLOCK END ===

=== CODE BLOCK ADDRESS 0x44c3 ===
  0x44c3	dec    	eax
  0x44c4	mov    	ebx, dword ptr [ebx + 8]
  0x44c7	dec    	eax
  0x44c8	test   	ebx, ebx
  0x44ca	jne    	0x44be
  === BLOCK LINK ===
    0x44cc
=== CODE BLOCK END ===

=== CODE BLOCK ADDRESS 0x44cc ===
  0x44cc	dec    	eax
  0x44cd	test   	ebx, ebx
  0x44cf	je     	0x44e0
  === BLOCK LINK ===
    0x44d1
=== CODE BLOCK END ===

=== CODE BLOCK ADDRESS 0x44d1 ===
  0x44d1	dec    	eax
  0x44d2	cmp    	dword ptr [ebx + 8], 0
  0x44d6	jne    	0x44e0
  === BLOCK LINK ===
    0x44d8
=== CODE BLOCK END ===

=== CODE BLOCK ADDRESS 0x44d8 ===
  0x44d8	dec    	eax
  0x44d9	lea    	ecx, [edi + 4]
  0x44dc	dec    	eax
  0x44dd	mov    	dword ptr [ebx + 8], ecx
  0x44e0	dec    	eax
  === BLOCK LINK ===
    0x44e1
=== CODE BLOCK END ===

=== CODE BLOCK ADDRESS 0x44e1 ===
  0x44e1	mov    	eax, ebx
  0x44e3	dec    	eax
  0x44e4	mov    	ebx, dword ptr [esp + 0x30]
  0x44e8	dec    	eax
  0x44e9	add    	esp, 0x20
  === BLOCK LINK ===
    0x44ec
=== CODE BLOCK END ===

=== CODE BLOCK ADDRESS 0x44ec ===
  0x44ec	pop    	edi
  0x44ed	ret    	
  0x44ee	int3   	
  0x44ef	dec    	eax
  0x44f0	add    	ebx, 0x10
  === BLOCK LINK ===
    0x44f3
=== CODE BLOCK END ===

=== CODE BLOCK ADDRESS 0x44f3 ===
  0x44f3	jmp    	0x44cc
  === BLOCK LINK ===
    0x44f5
=== CODE BLOCK END ===

=== CODE BLOCK ADDRESS 0x44f5 ===
  0x44f5	int3   	
  0x44f6	int3   	
  0x44f7	int3   	
  0x44f8	int3   	
  0x44f9	int3   	
  === BLOCK LINK ===
    0x44fa
=== CODE BLOCK END ===

=== CODE BLOCK ADDRESS 0x44fa ===
  0x44fa	int3   	
  0x44fb	int3   	
  0x44fc	dec    	eax
  0x44fd	mov    	dword ptr [esp + 8], ebx
  0x4501	dec    	eax
  === BLOCK LINK ===
    0x4502
=== CODE BLOCK END ===

=== CODE BLOCK ADDRESS 0x4502 ===
  0x4502	mov    	dword ptr [esp + 0x10], ebp
  0x4506	dec    	eax
  0x4507	mov    	dword ptr [esp + 0x18], esi
  0x450b	push   	edi
  0x450c	dec    	eax
  === BLOCK LINK ===
    0x450d
=== CODE BLOCK END ===

=== CODE BLOCK ADDRESS 0x450d ===
  0x450d	sub    	esp, 0x20
  0x4510	xor    	al, al
  0x4512	inc    	ecx
  0x4513	mov    	byte ptr [eax], 0
  0x4516	dec    	ecx
  === BLOCK LINK ===
    0x4517
=== CODE BLOCK END ===

=== CODE BLOCK ADDRESS 0x4517 ===
  0x4517	mov    	ebp, ecx
  0x4519	dec    	ecx
  0x451a	mov    	edi, eax
  0x451c	dec    	eax
  0x451d	mov    	esi, edx
  === BLOCK LINK ===
    0x451f
=== CODE BLOCK END ===

=== CODE BLOCK ADDRESS 0x451f ===
  0x451f	dec    	eax
  0x4520	mov    	ebx, ecx
  0x4522	dec    	eax
  0x4523	test   	edx, edx
  0x4525	je     	0x45e2
  === BLOCK LINK ===
    0x452b
=== CODE BLOCK END ===

=== CODE BLOCK ADDRESS 0x452b ===
  0x452b	dec    	eax
  0x452c	mov    	edx, dword ptr [edx + 0x10]
  0x452f	call   	0x44fc
  === BLOCK LINK ===
    0x4534
=== CODE BLOCK END ===

=== CODE BLOCK ADDRESS 0x4534 ===
  0x4534	dec    	eax
  0x4535	mov    	edx, dword ptr [esi + 0x20]
  0x4538	dec    	eax
  0x4539	test   	edx, edx
  0x453b	je     	0x45e2
  === BLOCK LINK ===
    0x4541
=== CODE BLOCK END ===

=== CODE BLOCK ADDRESS 0x4541 ===
  0x4541	cmp    	dword ptr [edx], 0
  0x4544	jne    	0x4557
  === BLOCK LINK ===
    0x4546
=== CODE BLOCK END ===

=== CODE BLOCK ADDRESS 0x4546 ===
  0x4546	mov    	eax, 1
  0x454b	lock xadd  	dword ptr [0x4c71], eax
  0x4553	inc    	eax
  0x4555	mov    	dword ptr [edx], eax
  0x4557	cmp    	dword ptr [ebx + 0x48], 0
  === BLOCK LINK ===
    0x455b
=== CODE BLOCK END ===

=== CODE BLOCK ADDRESS 0x455b ===
  0x455b	jne    	0x456e
  === BLOCK LINK ===
    0x455d
=== CODE BLOCK END ===

=== CODE BLOCK ADDRESS 0x455d ===
  0x455d	movups  	xmm0, xmmword ptr [edx]
  0x4560	movups  	xmmword ptr [ebx + 0x48], xmm0
  0x4564	movsd  	xmm1, qword ptr [edx + 0x10]
  0x4569	movsd  	qword ptr [ebx + 0x58], xmm1
  0x456e	movups  	xmm0, xmmword ptr [edx]
  === BLOCK LINK ===
    0x4571
=== CODE BLOCK END ===

=== CODE BLOCK ADDRESS 0x4571 ===
  0x4571	dec    	eax
  0x4572	or     	ecx, 0xffffffff
  0x4575	dec    	esp
  0x4576	lea    	edx, [edi + ebp]
  0x4579	dec    	eax
  === BLOCK LINK ===
    0x457a
=== CODE BLOCK END ===

=== CODE BLOCK ADDRESS 0x457a ===
  0x457a	mov    	eax, ecx
  0x457c	movups  	xmmword ptr [ebx + 0x60], xmm0
  0x4580	movsd  	xmm1, qword ptr [edx + 0x10]
  0x4585	movsd  	qword ptr [ebx + 0x70], xmm1
  0x458a	dec    	eax
  === BLOCK LINK ===
    0x458b
=== CODE BLOCK END ===

=== CODE BLOCK ADDRESS 0x458b ===
  0x458b	inc    	eax
  0x458d	cmp    	byte ptr [edi + eax], 0
  0x4591	jne    	0x458a
  === BLOCK LINK ===
    0x4593
=== CODE BLOCK END ===

=== CODE BLOCK ADDRESS 0x4593 ===
  0x4593	dec    	eax
  0x4594	add    	edi, eax
  0x4596	dec    	ecx
  0x4597	mov    	eax, edx
  0x4599	dec    	eax
  === BLOCK LINK ===
    0x459a
=== CODE BLOCK END ===

=== CODE BLOCK ADDRESS 0x459a ===
  0x459a	sub    	eax, edi
  0x459c	dec    	eax
  0x459d	cmp    	eax, 2
  0x45a0	jle    	0x45e0
  === BLOCK LINK ===
    0x45a2
=== CODE BLOCK END ===

=== CODE BLOCK ADDRESS 0x45a2 ===
  0x45a2	mov    	byte ptr [edi], 0x5c
  0x45a5	dec    	eax
  0x45a6	inc    	edi
  0x45a8	dec    	esp
  0x45a9	mov    	eax, dword ptr [edx + 8]
  === BLOCK LINK ===
    0x45ac
=== CODE BLOCK END ===

=== CODE BLOCK ADDRESS 0x45ac ===
  0x45ac	dec    	eax
  0x45ad	inc    	ecx
  0x45af	inc    	ecx
  0x45b0	cmp    	byte ptr [eax + ecx], 0
  0x45b4	jne    	0x45ac
  === BLOCK LINK ===
    0x45b6
=== CODE BLOCK END ===

=== CODE BLOCK ADDRESS 0x45b6 ===
  0x45b6	dec    	eax
  0x45b7	inc    	ecx
  0x45b9	dec    	esp
  0x45ba	sub    	edx, edi
  0x45bc	dec    	ecx
  === BLOCK LINK ===
    0x45bd
=== CODE BLOCK END ===

=== CODE BLOCK ADDRESS 0x45bd ===
  0x45bd	cmp    	ecx, edx
  0x45bf	dec    	ecx
  0x45c0	mov    	ebx, edx
  0x45c2	dec    	ecx
  0x45c3	mov    	edx, edx
  === BLOCK LINK ===
    0x45c5
=== CODE BLOCK END ===

=== CODE BLOCK ADDRESS 0x45c5 ===
  0x45c5	dec    	eax
  0x45c6	cmovb  	ebx, ecx
  0x45c9	dec    	eax
  0x45ca	mov    	ecx, edi
  0x45cc	dec    	esp
  === BLOCK LINK ===
    0x45cd
=== CODE BLOCK END ===

=== CODE BLOCK ADDRESS 0x45cd ===
  0x45cd	mov    	ecx, ebx
  0x45cf	dec    	eax
  0x45d0	call   	dword ptr [0x1ea2]
  === BLOCK LINK ===
    0x45d6
=== CODE BLOCK END ===

=== CODE BLOCK ADDRESS 0x45d6 ===
  0x45d6	nop    	dword ptr [eax + eax]
  0x45db	mov    	byte ptr [ebx + edi - 1], 0
  0x45e0	mov    	al, 1
  0x45e2	dec    	eax
  0x45e3	mov    	ebx, dword ptr [esp + 0x30]
  === BLOCK LINK ===
    0x45e7
=== CODE BLOCK END ===

=== CODE BLOCK ADDRESS 0x45e7 ===
  0x45e7	dec    	eax
  0x45e8	mov    	ebp, dword ptr [esp + 0x38]
  0x45ec	dec    	eax
  0x45ed	mov    	esi, dword ptr [esp + 0x40]
  0x45f1	dec    	eax
  === BLOCK LINK ===
    0x45f2
=== CODE BLOCK END ===

=== CODE BLOCK ADDRESS 0x45f2 ===
  0x45f2	add    	esp, 0x20
  0x45f5	pop    	edi
  0x45f6	ret    	
  0x45f7	int3   	
  0x45f8	int3   	
  === BLOCK LINK ===
    0x45f9
=== CODE BLOCK END ===

=== CODE BLOCK ADDRESS 0x45f9 ===
  0x45f9	int3   	
  0x45fa	int3   	
  0x45fb	int3   	
  0x45fc	int3   	
  0x45fd	int3   	
  === BLOCK LINK ===
    0x45fe
=== CODE BLOCK END ===

=== CODE BLOCK ADDRESS 0x45fe ===
  0x45fe	int3   	
  0x45ff	int3   	
  0x4600	dec    	eax
  0x4601	mov    	eax, esp
  0x4603	dec    	eax
  === BLOCK LINK ===
    0x4604
=== CODE BLOCK END ===

=== CODE BLOCK ADDRESS 0x4604 ===
  0x4604	mov    	dword ptr [eax + 8], ebx
  0x4607	dec    	eax
  0x4608	mov    	dword ptr [eax + 0x10], ebp
  0x460b	dec    	eax
  0x460c	mov    	dword ptr [eax + 0x18], esi
  === BLOCK LINK ===
    0x460f
=== CODE BLOCK END ===

=== CODE BLOCK ADDRESS 0x460f ===
  0x460f	dec    	eax
  0x4610	mov    	dword ptr [eax + 0x20], edi
  0x4613	inc    	ecx
  0x4614	push   	esi
  0x4615	dec    	eax
  === BLOCK LINK ===
    0x4616
=== CODE BLOCK END ===

=== CODE BLOCK ADDRESS 0x4616 ===
  0x4616	sub    	esp, 0x20
  0x4619	mov    	byte ptr [edx], 0
  0x461c	inc    	eax
  0x461d	xor    	ch, ch
  0x461f	dec    	eax
  === BLOCK LINK ===
    0x4620
=== CODE BLOCK END ===

=== CODE BLOCK ADDRESS 0x4620 ===
  0x4620	mov    	ebx, dword ptr [0x52a2]
  0x4626	dec    	ebp
  0x4627	mov    	esi, eax
  0x4629	dec    	eax
  0x462a	mov    	esi, edx
  === BLOCK LINK ===
    0x462c
=== CODE BLOCK END ===

=== CODE BLOCK ADDRESS 0x462c ===
  0x462c	dec    	eax
  0x462d	mov    	edi, ecx
  0x462f	dec    	eax
  0x4630	test   	ebx, ebx
  0x4632	je     	0x4679
  === BLOCK LINK ===
    0x4634
=== CODE BLOCK END ===

=== CODE BLOCK ADDRESS 0x4634 ===
  0x4634	dec    	eax
  0x4635	call   	dword ptr [0x1c9d]
  === BLOCK LINK ===
    0x463b
=== CODE BLOCK END ===

=== CODE BLOCK ADDRESS 0x463b ===
  0x463b	nop    	dword ptr [eax + eax]
  0x4640	inc    	esp
  0x4641	mov    	ecx, eax
  0x4643	inc    	esp
  0x4644	mov    	edx, eax
  === BLOCK LINK ===
    0x4646
=== CODE BLOCK END ===

=== CODE BLOCK ADDRESS 0x4646 ===
  0x4646	dec    	eax
  0x4647	mov    	eax, 0xcccccccd
  0x464c	int3   	
  0x464d	int3   	
  0x464e	int3   	
  === BLOCK LINK ===
    0x464f
=== CODE BLOCK END ===

=== CODE BLOCK ADDRESS 0x464f ===
  0x464f	int3   	
  0x4650	dec    	ecx
  0x4651	mul    	edx
  0x4653	dec    	eax
  0x4654	shr    	edx, 3
  === BLOCK LINK ===
    0x4657
=== CODE BLOCK END ===

=== CODE BLOCK ADDRESS 0x4657 ===
  0x4657	dec    	eax
  0x4658	lea    	ecx, [edx + edx*4]
  0x465b	dec    	eax
  0x465c	add    	ecx, ecx
  0x465e	dec    	esp
  === BLOCK LINK ===
    0x465f
=== CODE BLOCK END ===

=== CODE BLOCK ADDRESS 0x465f ===
  0x465f	sub    	ecx, ecx
  0x4661	dec    	edx
  0x4662	mov    	ebx, dword ptr [ebx + ecx*8]
  0x4665	jmp    	0x4674
  === BLOCK LINK ===
    0x4667
=== CODE BLOCK END ===

=== CODE BLOCK ADDRESS 0x4667 ===
  0x4667	inc    	esp
  0x4668	cmp    	dword ptr [ebx], edx
  0x466a	je     	0x474e
  === BLOCK LINK ===
    0x4670
=== CODE BLOCK END ===

=== CODE BLOCK ADDRESS 0x4670 ===
  0x4670	dec    	eax
  0x4671	mov    	ebx, dword ptr [ebx + 8]
  0x4674	dec    	eax
  0x4675	test   	ebx, ebx
  0x4677	jne    	0x4667
  === BLOCK LINK ===
    0x4679
=== CODE BLOCK END ===

=== CODE BLOCK ADDRESS 0x4679 ===
  0x4679	xor    	ebx, ebx
  0x467b	dec    	eax
  0x467c	test   	ebx, ebx
  0x467e	je     	0x46c4
  === BLOCK LINK ===
    0x4680
=== CODE BLOCK END ===

=== CODE BLOCK ADDRESS 0x4680 ===
  0x4680	dec    	eax
  0x4681	cmp    	dword ptr [ebx], 0
  0x4684	je     	0x46c4
  === BLOCK LINK ===
    0x4686
=== CODE BLOCK END ===

=== CODE BLOCK ADDRESS 0x4686 ===
  0x4686	inc    	eax
  0x4687	mov    	byte ptr [esi], ch
  0x4689	dec    	ebp
  0x468a	mov    	ecx, esi
  0x468c	dec    	eax
  === BLOCK LINK ===
    0x468d
=== CODE BLOCK END ===

=== CODE BLOCK ADDRESS 0x468d ===
  0x468d	mov    	edx, dword ptr [ebx]
  0x468f	dec    	esp
  0x4690	mov    	eax, esi
  0x4692	dec    	eax
  0x4693	mov    	ecx, edi
  === BLOCK LINK ===
    0x4695
=== CODE BLOCK END ===

=== CODE BLOCK ADDRESS 0x4695 ===
  0x4695	call   	0x44fc
  === BLOCK LINK ===
    0x469a
=== CODE BLOCK END ===

=== CODE BLOCK ADDRESS 0x469a ===
  0x469a	test   	al, al
  0x469c	je     	0x46a2
  === BLOCK LINK ===
    0x469e
=== CODE BLOCK END ===

=== CODE BLOCK ADDRESS 0x469e ===
  0x469e	dec    	eax
  0x469f	mov    	dword ptr [edi + 0x40], esi
  0x46a2	dec    	eax
  0x46a3	mov    	ebx, dword ptr [ebx]
  0x46a5	dec    	eax
  === BLOCK LINK ===
    0x46a6
=== CODE BLOCK END ===

=== CODE BLOCK ADDRESS 0x46a6 ===
  0x46a6	mov    	ecx, dword ptr [ebx + 8]
  0x46a9	dec    	eax
  0x46aa	mov    	edx, edi
  0x46ac	dec    	eax
  0x46ad	mov    	eax, dword ptr [ecx]
  === BLOCK LINK ===
    0x46af
=== CODE BLOCK END ===

=== CODE BLOCK ADDRESS 0x46af ===
  0x46af	dec    	eax
  0x46b0	mov    	eax, dword ptr [eax]
  0x46b2	call   	dword ptr [0x1ec8]
  === BLOCK LINK ===
    0x46b8
=== CODE BLOCK END ===

=== CODE BLOCK ADDRESS 0x46b8 ===
  0x46b8	dec    	eax
  0x46b9	mov    	ebx, dword ptr [ebx + 0x10]
  0x46bc	inc    	eax
  0x46bd	or     	ch, al
  0x46bf	dec    	eax
  === BLOCK LINK ===
    0x46c0
=== CODE BLOCK END ===

=== CODE BLOCK ADDRESS 0x46c0 ===
  0x46c0	test   	ebx, ebx
  0x46c2	jne    	0x46a5
  === BLOCK LINK ===
    0x46c4
=== CODE BLOCK END ===

=== CODE BLOCK ADDRESS 0x46c4 ===
  0x46c4	dec    	eax
  0x46c5	mov    	eax, dword ptr [0x511d]
  0x46cb	dec    	eax
  0x46cc	test   	eax, eax
  0x46ce	je     	0x46dc
  === BLOCK LINK ===
    0x46d0
=== CODE BLOCK END ===

=== CODE BLOCK ADDRESS 0x46d0 ===
  0x46d0	dec    	eax
  0x46d1	mov    	edx, edi
  0x46d3	inc    	eax
  0x46d4	mov    	cl, ch
  0x46d6	call   	dword ptr [0x1ea4]
  === BLOCK LINK ===
    0x46dc
=== CODE BLOCK END ===

=== CODE BLOCK ADDRESS 0x46dc ===
  0x46dc	dec    	eax
  0x46dd	call   	dword ptr [0x1bf5]
  === BLOCK LINK ===
    0x46e3
=== CODE BLOCK END ===

=== CODE BLOCK ADDRESS 0x46e3 ===
  0x46e3	nop    	dword ptr [eax + eax]
  0x46e8	mov    	ecx, dword ptr [0x51e6]
  0x46ee	cmp    	ecx, eax
  0x46f0	je     	0x4732
  === BLOCK LINK ===
    0x46f2
=== CODE BLOCK END ===

=== CODE BLOCK ADDRESS 0x46f2 ===
  0x46f2	mov    	ecx, 1
  0x46f7	lock xadd  	dword ptr [0x51d9], ecx
  0x46ff	inc    	ecx
  0x4701	cmp    	ecx, 4
  0x4704	jge    	0x472b
  === BLOCK LINK ===
    0x4706
=== CODE BLOCK END ===

=== CODE BLOCK ADDRESS 0x4706 ===
  0x4706	mov    	dword ptr [0x51c8], eax
  0x470c	call   	0x4430
  === BLOCK LINK ===
    0x4711
=== CODE BLOCK END ===

=== CODE BLOCK ADDRESS 0x4711 ===
  0x4711	dec    	eax
  0x4712	test   	eax, eax
  0x4714	je     	0x4721
  === BLOCK LINK ===
    0x4716
=== CODE BLOCK END ===

=== CODE BLOCK ADDRESS 0x4716 ===
  0x4716	dec    	eax
  0x4717	mov    	edx, edi
  0x4719	dec    	eax
  0x471a	mov    	ecx, eax
  0x471c	call   	0x4150
  === BLOCK LINK ===
    0x4721
=== CODE BLOCK END ===

=== CODE BLOCK ADDRESS 0x4721 ===
  0x4721	mov    	dword ptr [0x51a9], 0
  0x472b	lock dec  	dword ptr [0x51a6]
  0x4732	dec    	eax
  0x4733	mov    	ebx, dword ptr [esp + 0x30]
  0x4737	dec    	eax
  === BLOCK LINK ===
    0x4738
=== CODE BLOCK END ===

=== CODE BLOCK ADDRESS 0x4738 ===
  0x4738	mov    	ebp, dword ptr [esp + 0x38]
  0x473c	dec    	eax
  0x473d	mov    	esi, dword ptr [esp + 0x40]
  0x4741	dec    	eax
  0x4742	mov    	edi, dword ptr [esp + 0x48]
  === BLOCK LINK ===
    0x4746
=== CODE BLOCK END ===

=== CODE BLOCK ADDRESS 0x4746 ===
  0x4746	dec    	eax
  0x4747	add    	esp, 0x20
  0x474a	inc    	ecx
  0x474b	pop    	esi
  0x474c	ret    	
  === BLOCK LINK ===
    0x474d
=== CODE BLOCK END ===

=== CODE BLOCK ADDRESS 0x474d ===
  0x474d	int3   	
  0x474e	dec    	eax
  0x474f	add    	ebx, 0x10
  0x4752	jmp    	0x467b
  === BLOCK LINK ===
    0x4757
=== CODE BLOCK END ===

=== CODE BLOCK ADDRESS 0x4757 ===
  0x4757	int3   	
  0x4758	int3   	
  0x4759	int3   	
  0x475a	int3   	
  0x475b	int3   	
  === BLOCK LINK ===
    0x475c
=== CODE BLOCK END ===

=== CODE BLOCK ADDRESS 0x475c ===
  0x475c	int3   	
  0x475d	int3   	
  0x475e	int3   	
  0x475f	int3   	
  0x4760	dec    	eax
  === BLOCK LINK ===
    0x4761
=== CODE BLOCK END ===

=== CODE BLOCK ADDRESS 0x4761 ===
  0x4761	mov    	eax, esp
  0x4763	push   	ebp
  0x4764	push   	esi
  0x4765	push   	edi
  0x4766	inc    	ecx
  === BLOCK LINK ===
    0x4767
=== CODE BLOCK END ===

=== CODE BLOCK ADDRESS 0x4767 ===
  0x4767	push   	esi
  0x4768	inc    	ecx
  0x4769	push   	edi
  0x476a	dec    	eax
  0x476b	lea    	ebp, [eax - 0x1b8]
  === BLOCK LINK ===
    0x4771
=== CODE BLOCK END ===

=== CODE BLOCK ADDRESS 0x4771 ===
  0x4771	dec    	eax
  0x4772	sub    	esp, 0x290
  0x4778	dec    	eax
  0x4779	mov    	dword ptr [esp + 0x50], 0xfffffffe
  0x4781	dec    	eax
  === BLOCK LINK ===
    0x4782
=== CODE BLOCK END ===

=== CODE BLOCK ADDRESS 0x4782 ===
  0x4782	mov    	dword ptr [eax + 0x18], ebx
  0x4785	dec    	eax
  0x4786	mov    	eax, dword ptr [0x4a1c]
  0x478c	dec    	eax
  0x478d	xor    	eax, esp
  === BLOCK LINK ===
    0x478f
=== CODE BLOCK END ===

=== CODE BLOCK ADDRESS 0x478f ===
  0x478f	dec    	eax
  0x4790	mov    	dword ptr [ebp + 0x180], eax
  0x4796	dec    	esp
  0x4797	mov    	edi, edx
  0x4799	dec    	eax
  === BLOCK LINK ===
    0x479a
=== CODE BLOCK END ===

=== CODE BLOCK ADDRESS 0x479a ===
  0x479a	mov    	ebx, ecx
  0x479c	dec    	eax
  0x479d	and    	dword ptr [edx], 0
  0x47a0	dec    	eax
  0x47a1	call   	dword ptr [0x1b39]
  === BLOCK LINK ===
    0x47a7
=== CODE BLOCK END ===

=== CODE BLOCK ADDRESS 0x47a7 ===
  0x47a7	nop    	dword ptr [eax + eax]
  0x47ac	inc    	esp
  0x47ad	mov    	ecx, eax
  0x47af	dec    	eax
  0x47b0	mov    	dword ptr [esp + 0x28], ebx
  === BLOCK LINK ===
    0x47b4
=== CODE BLOCK END ===

=== CODE BLOCK ADDRESS 0x47b4 ===
  0x47b4	mov    	dword ptr [esp + 0x20], 0x78
  0x47bc	dec    	esp
  0x47bd	lea    	eax, [0x231d]
  0x47c3	mov    	edx, 0x104
  0x47c8	dec    	eax
  === BLOCK LINK ===
    0x47c9
=== CODE BLOCK END ===

=== CODE BLOCK ADDRESS 0x47c9 ===
  0x47c9	lea    	ecx, [esp + 0x70]
  0x47cd	call   	0x1b70
  === BLOCK LINK ===
    0x47d2
=== CODE BLOCK END ===

=== CODE BLOCK ADDRESS 0x47d2 ===
  0x47d2	nop    	
  0x47d3	inc    	ecx
  0x47d4	mov    	ecx, 0x1f0001
  0x47d9	inc    	ebp
  0x47da	xor    	eax, eax
  === BLOCK LINK ===
    0x47dc
=== CODE BLOCK END ===

=== CODE BLOCK ADDRESS 0x47dc ===
  0x47dc	dec    	eax
  0x47dd	lea    	edx, [esp + 0x70]
  0x47e1	xor    	ecx, ecx
  0x47e3	dec    	eax
  0x47e4	call   	dword ptr [0x1b6e]
  === BLOCK LINK ===
    0x47ea
=== CODE BLOCK END ===

=== CODE BLOCK ADDRESS 0x47ea ===
  0x47ea	nop    	dword ptr [eax + eax]
  0x47ef	dec    	eax
  0x47f0	mov    	ebx, eax
  0x47f2	dec    	eax
  0x47f3	mov    	dword ptr [esp + 0x48], eax
  === BLOCK LINK ===
    0x47f7
=== CODE BLOCK END ===

=== CODE BLOCK ADDRESS 0x47f7 ===
  0x47f7	dec    	eax
  0x47f8	test   	eax, eax
  0x47fa	jne    	0x4808
  === BLOCK LINK ===
    0x47fc
=== CODE BLOCK END ===

=== CODE BLOCK ADDRESS 0x47fc ===
  0x47fc	call   	0x3518
  === BLOCK LINK ===
    0x4801
=== CODE BLOCK END ===

=== CODE BLOCK ADDRESS 0x4801 ===
  0x4801	mov    	edi, eax
  0x4803	jmp    	0x48b6
  === BLOCK LINK ===
    0x4808
=== CODE BLOCK END ===

=== CODE BLOCK ADDRESS 0x4808 ===
  0x4808	inc    	ebp
  0x4809	xor    	eax, eax
  0x480b	or     	edx, 0xffffffff
  0x480e	dec    	eax
  0x480f	mov    	ecx, ebx
  === BLOCK LINK ===
    0x4811
=== CODE BLOCK END ===

=== CODE BLOCK ADDRESS 0x4811 ===
  0x4811	dec    	eax
  0x4812	call   	dword ptr [0x1b60]
  === BLOCK LINK ===
    0x4818
=== CODE BLOCK END ===

=== CODE BLOCK ADDRESS 0x4818 ===
  0x4818	nop    	dword ptr [eax + eax]
  0x481d	cmp    	eax, 0x102
  0x4822	je     	0x4833
  === BLOCK LINK ===
    0x4824
=== CODE BLOCK END ===

=== CODE BLOCK ADDRESS 0x4824 ===
  0x4824	test   	eax, eax
  0x4826	je     	0x483f
  === BLOCK LINK ===
    0x4828
=== CODE BLOCK END ===

=== CODE BLOCK ADDRESS 0x4828 ===
  0x4828	cmp    	eax, 0x80
  0x482d	jne    	0x4a6d
  === BLOCK LINK ===
    0x4833
=== CODE BLOCK END ===

=== CODE BLOCK ADDRESS 0x4833 ===
  0x4833	test   	eax, 0xffffff7f
  0x4838	je     	0x483f
  === BLOCK LINK ===
    0x483a
=== CODE BLOCK END ===

=== CODE BLOCK ADDRESS 0x483a ===
  0x483a	inc    	ebp
  0x483b	xor    	esi, esi
  0x483d	jmp    	0x4842
  === BLOCK LINK ===
    0x483f
=== CODE BLOCK END ===

=== CODE BLOCK ADDRESS 0x483f ===
  0x483f	dec    	esp
  0x4840	mov    	esi, ebx
  0x4842	dec    	esp
  0x4843	mov    	dword ptr [esp + 0x58], esi
  0x4847	xor    	esi, esi
  === BLOCK LINK ===
    0x4849
=== CODE BLOCK END ===

=== CODE BLOCK ADDRESS 0x4849 ===
  0x4849	dec    	eax
  0x484a	and    	dword ptr [esp + 0x40], esi
  0x484e	dec    	eax
  0x484f	lea    	edx, [esp + 0x40]
  0x4853	dec    	eax
  === BLOCK LINK ===
    0x4854
=== CODE BLOCK END ===

=== CODE BLOCK ADDRESS 0x4854 ===
  0x4854	lea    	ecx, [esp + 0x70]
  0x4858	call   	0x4ca8
  === BLOCK LINK ===
    0x485d
=== CODE BLOCK END ===

=== CODE BLOCK ADDRESS 0x485d ===
  0x485d	mov    	edi, eax
  0x485f	test   	eax, eax
  0x4861	jns    	0x4877
  === BLOCK LINK ===
    0x4863
=== CODE BLOCK END ===

=== CODE BLOCK ADDRESS 0x4863 ===
  0x4863	dec    	eax
  0x4864	mov    	ecx, dword ptr [ebp + 0x1b8]
  0x486a	inc    	esp
  0x486b	mov    	ecx, eax
  0x486d	lea    	edx, [esi + 0x6b]
  === BLOCK LINK ===
    0x4870
=== CODE BLOCK END ===

=== CODE BLOCK ADDRESS 0x4870 ===
  0x4870	call   	0x3bc8
  === BLOCK LINK ===
    0x4875
=== CODE BLOCK END ===

=== CODE BLOCK ADDRESS 0x4875 ===
  0x4875	jmp    	0x4882
  === BLOCK LINK ===
    0x4877
=== CODE BLOCK END ===

=== CODE BLOCK ADDRESS 0x4877 ===
  0x4877	dec    	eax
  0x4878	mov    	esi, dword ptr [esp + 0x40]
  0x487c	dec    	eax
  0x487d	shl    	esi, 2
  0x4880	xor    	edi, edi
  === BLOCK LINK ===
    0x4882
=== CODE BLOCK END ===

=== CODE BLOCK ADDRESS 0x4882 ===
  0x4882	test   	edi, edi
  0x4884	jns    	0x4890
  === BLOCK LINK ===
    0x4886
=== CODE BLOCK END ===

=== CODE BLOCK ADDRESS 0x4886 ===
  0x4886	mov    	edx, 0x126
  0x488b	jmp    	0x4a53
  === BLOCK LINK ===
    0x4890
=== CODE BLOCK END ===

=== CODE BLOCK ADDRESS 0x4890 ===
  0x4890	dec    	eax
  0x4891	test   	esi, esi
  0x4893	je     	0x48ec
  === BLOCK LINK ===
    0x4895
=== CODE BLOCK END ===

=== CODE BLOCK ADDRESS 0x4895 ===
  0x4895	dec    	ecx
  0x4896	mov    	dword ptr [edi], esi
  0x4898	mov    	ecx, dword ptr [esi]
  0x489a	inc    	ecx
  0x489c	dec    	ecx
  === BLOCK LINK ===
    0x489d
=== CODE BLOCK END ===

=== CODE BLOCK ADDRESS 0x489d ===
  0x489d	mov    	eax, dword ptr [edi]
  0x489f	mov    	dword ptr [eax], ecx
  0x48a1	dec    	eax
  0x48a2	mov    	ebx, dword ptr [esp + 0x48]
  0x48a6	xor    	edi, edi
  === BLOCK LINK ===
    0x48a8
=== CODE BLOCK END ===

=== CODE BLOCK ADDRESS 0x48a8 ===
  0x48a8	dec    	ebp
  0x48a9	test   	esi, esi
  0x48ab	je     	0x48b6
  === BLOCK LINK ===
    0x48ad
=== CODE BLOCK END ===

=== CODE BLOCK ADDRESS 0x48ad ===
  0x48ad	dec    	ecx
  0x48ae	mov    	ecx, esi
  0x48b0	call   	0x3cc8
  === BLOCK LINK ===
    0x48b5
=== CODE BLOCK END ===

=== CODE BLOCK ADDRESS 0x48b5 ===
  0x48b5	nop    	
  0x48b6	dec    	eax
  0x48b7	test   	ebx, ebx
  0x48b9	je     	0x48c3
  === BLOCK LINK ===
    0x48bb
=== CODE BLOCK END ===

=== CODE BLOCK ADDRESS 0x48bb ===
  0x48bb	dec    	eax
  0x48bc	mov    	ecx, ebx
  0x48be	call   	0x3c98
  === BLOCK LINK ===
    0x48c3
=== CODE BLOCK END ===

=== CODE BLOCK ADDRESS 0x48c3 ===
  0x48c3	mov    	eax, edi
  0x48c5	dec    	eax
  0x48c6	mov    	ecx, dword ptr [ebp + 0x180]
  0x48cc	dec    	eax
  0x48cd	xor    	ecx, esp
  === BLOCK LINK ===
    0x48cf
=== CODE BLOCK END ===

=== CODE BLOCK ADDRESS 0x48cf ===
  0x48cf	call   	0x5280
  === BLOCK LINK ===
    0x48d4
=== CODE BLOCK END ===

=== CODE BLOCK ADDRESS 0x48d4 ===
  0x48d4	dec    	eax
  0x48d5	mov    	ebx, dword ptr [esp + 0x2d0]
  0x48dc	dec    	eax
  0x48dd	add    	esp, 0x290
  0x48e3	inc    	ecx
  === BLOCK LINK ===
    0x48e4
=== CODE BLOCK END ===

=== CODE BLOCK ADDRESS 0x48e4 ===
  0x48e4	pop    	edi
  0x48e5	inc    	ecx
  0x48e6	pop    	esi
  0x48e7	pop    	edi
  0x48e8	pop    	esi
  === BLOCK LINK ===
    0x48e9
=== CODE BLOCK END ===

=== CODE BLOCK ADDRESS 0x48e9 ===
  0x48e9	pop    	ebp
  0x48ea	ret    	
  0x48eb	int3   	
  0x48ec	dec    	ecx
  0x48ed	and    	dword ptr [edi], 0
  === BLOCK LINK ===
    0x48f0
=== CODE BLOCK END ===

=== CODE BLOCK ADDRESS 0x48f0 ===
  0x48f0	dec    	eax
  0x48f1	call   	dword ptr [0x1969]
  === BLOCK LINK ===
    0x48f7
=== CODE BLOCK END ===

=== CODE BLOCK ADDRESS 0x48f7 ===
  0x48f7	nop    	dword ptr [eax + eax]
  0x48fc	dec    	eax
  0x48fd	mov    	ecx, eax
  0x48ff	mov    	edx, 8
  0x4904	inc    	esp
  === BLOCK LINK ===
    0x4905
=== CODE BLOCK END ===

=== CODE BLOCK ADDRESS 0x4905 ===
  0x4905	lea    	eax, [edx + 0x70]
  0x4908	dec    	eax
  0x4909	call   	dword ptr [0x1959]
  === BLOCK LINK ===
    0x490f
=== CODE BLOCK END ===

=== CODE BLOCK ADDRESS 0x490f ===
  0x490f	nop    	dword ptr [eax + eax]
  0x4914	dec    	eax
  0x4915	mov    	esi, eax
  0x4917	dec    	eax
  0x4918	cmp    	dword ptr [0x4ed9], 0
  === BLOCK LINK ===
    0x491f
=== CODE BLOCK END ===

=== CODE BLOCK ADDRESS 0x491f ===
  0x491f	je     	0x4940
  === BLOCK LINK ===
    0x4921
=== CODE BLOCK END ===

=== CODE BLOCK ADDRESS 0x4921 ===
  0x4921	dec    	eax
  0x4922	call   	dword ptr [0x1938]
  === BLOCK LINK ===
    0x4928
=== CODE BLOCK END ===

=== CODE BLOCK ADDRESS 0x4928 ===
  0x4928	nop    	dword ptr [eax + eax]
  0x492d	dec    	eax
  0x492e	mov    	ecx, eax
  0x4930	dec    	eax
  0x4931	mov    	edx, esi
  === BLOCK LINK ===
    0x4933
=== CODE BLOCK END ===

=== CODE BLOCK ADDRESS 0x4933 ===
  0x4933	dec    	eax
  0x4934	mov    	eax, dword ptr [0x4ebe]
  0x493a	call   	dword ptr [0x1c40]
  === BLOCK LINK ===
    0x4940
=== CODE BLOCK END ===

=== CODE BLOCK ADDRESS 0x4940 ===
  0x4940	dec    	eax
  0x4941	mov    	dword ptr [esp + 0x60], esi
  0x4945	dec    	eax
  0x4946	test   	esi, esi
  0x4948	jne    	0x4968
  === BLOCK LINK ===
    0x494a
=== CODE BLOCK END ===

=== CODE BLOCK ADDRESS 0x494a ===
  0x494a	dec    	eax
  0x494b	mov    	ecx, dword ptr [ebp + 0x1b8]
  0x4951	mov    	edi, 0x8007000e
  0x4956	inc    	esp
  0x4957	mov    	ecx, edi
  === BLOCK LINK ===
    0x4959
=== CODE BLOCK END ===

=== CODE BLOCK ADDRESS 0x4959 ===
  0x4959	mov    	edx, 0x142
  0x495e	call   	0x3bc8
  === BLOCK LINK ===
    0x4963
=== CODE BLOCK END ===

=== CODE BLOCK ADDRESS 0x4963 ===
  0x4963	jmp    	0x4a4e
  === BLOCK LINK ===
    0x4968
=== CODE BLOCK END ===

=== CODE BLOCK ADDRESS 0x4968 ===
  0x4968	xorps  	xmm0, xmm0
  0x496b	movdqu  	xmmword ptr [esp + 0x30], xmm0
  0x4971	inc    	eax
  0x4972	test   	dh, 3
  0x4975	jne    	0x4a67
  === BLOCK LINK ===
    0x497b
=== CODE BLOCK END ===

=== CODE BLOCK ADDRESS 0x497b ===
  0x497b	dec    	esp
  0x497c	mov    	ecx, esi
  0x497e	dec    	ecx
  0x497f	shr    	ecx, 2
  0x4982	dec    	eax
  === BLOCK LINK ===
    0x4983
=== CODE BLOCK END ===

=== CODE BLOCK ADDRESS 0x4983 ===
  0x4983	lea    	edx, [esp + 0x70]
  0x4987	dec    	eax
  0x4988	lea    	ecx, [esp + 0x30]
  0x498c	call   	0x3d20
  === BLOCK LINK ===
    0x4991
=== CODE BLOCK END ===

=== CODE BLOCK ADDRESS 0x4991 ===
  0x4991	mov    	edi, eax
  0x4993	test   	eax, eax
  0x4995	jns    	0x49eb
  === BLOCK LINK ===
    0x4997
=== CODE BLOCK END ===

=== CODE BLOCK ADDRESS 0x4997 ===
  0x4997	dec    	eax
  0x4998	mov    	ecx, dword ptr [ebp + 0x1b8]
  0x499e	inc    	esp
  0x499f	mov    	ecx, eax
  0x49a1	mov    	edx, 0x145
  === BLOCK LINK ===
    0x49a6
=== CODE BLOCK END ===

=== CODE BLOCK ADDRESS 0x49a6 ===
  0x49a6	call   	0x3bc8
  === BLOCK LINK ===
    0x49ab
=== CODE BLOCK END ===

=== CODE BLOCK ADDRESS 0x49ab ===
  0x49ab	dec    	eax
  0x49ac	mov    	ecx, dword ptr [esp + 0x38]
  0x49b0	dec    	eax
  0x49b1	test   	ecx, ecx
  0x49b3	je     	0x49ba
  === BLOCK LINK ===
    0x49b5
=== CODE BLOCK END ===

=== CODE BLOCK ADDRESS 0x49b5 ===
  0x49b5	call   	0x3c98
  === BLOCK LINK ===
    0x49ba
=== CODE BLOCK END ===

=== CODE BLOCK ADDRESS 0x49ba ===
  0x49ba	dec    	eax
  0x49bb	mov    	ecx, dword ptr [esp + 0x30]
  0x49bf	dec    	eax
  0x49c0	test   	ecx, ecx
  0x49c2	je     	0x49c9
  === BLOCK LINK ===
    0x49c4
=== CODE BLOCK END ===

=== CODE BLOCK ADDRESS 0x49c4 ===
  0x49c4	call   	0x3c98
  === BLOCK LINK ===
    0x49c9
=== CODE BLOCK END ===

=== CODE BLOCK ADDRESS 0x49c9 ===
  0x49c9	dec    	eax
  0x49ca	call   	dword ptr [0x1890]
  === BLOCK LINK ===
    0x49d0
=== CODE BLOCK END ===

=== CODE BLOCK ADDRESS 0x49d0 ===
  0x49d0	nop    	dword ptr [eax + eax]
  0x49d5	dec    	eax
  0x49d6	mov    	ecx, eax
  0x49d8	dec    	esp
  0x49d9	mov    	eax, esi
  === BLOCK LINK ===
    0x49db
=== CODE BLOCK END ===

=== CODE BLOCK ADDRESS 0x49db ===
  0x49db	xor    	edx, edx
  0x49dd	dec    	eax
  0x49de	call   	dword ptr [0x1874]
  === BLOCK LINK ===
    0x49e4
=== CODE BLOCK END ===

=== CODE BLOCK ADDRESS 0x49e4 ===
  0x49e4	nop    	dword ptr [eax + eax]
  0x49e9	jmp    	0x4a46
  === BLOCK LINK ===
    0x49eb
=== CODE BLOCK END ===

=== CODE BLOCK ADDRESS 0x49eb ===
  0x49eb	mov    	edi, 1
  0x49f0	mov    	dword ptr [esi], edi
  0x49f2	dec    	eax
  0x49f3	mov    	dword ptr [esi + 8], ebx
  0x49f6	xor    	ebx, ebx
  === BLOCK LINK ===
    0x49f8
=== CODE BLOCK END ===

=== CODE BLOCK ADDRESS 0x49f8 ===
  0x49f8	dec    	eax
  0x49f9	mov    	dword ptr [esp + 0x48], ebx
  0x49fd	dec    	eax
  0x49fe	mov    	eax, dword ptr [esp + 0x30]
  0x4a02	dec    	eax
  === BLOCK LINK ===
    0x4a03
=== CODE BLOCK END ===

=== CODE BLOCK ADDRESS 0x4a03 ===
  0x4a03	mov    	dword ptr [esi + 0x10], eax
  0x4a06	dec    	eax
  0x4a07	and    	dword ptr [esp + 0x30], ebx
  0x4a0b	dec    	eax
  0x4a0c	mov    	eax, dword ptr [esp + 0x38]
  === BLOCK LINK ===
    0x4a10
=== CODE BLOCK END ===

=== CODE BLOCK ADDRESS 0x4a10 ===
  0x4a10	dec    	eax
  0x4a11	mov    	dword ptr [esi + 0x18], eax
  0x4a14	dec    	eax
  0x4a15	and    	dword ptr [esp + 0x38], ebx
  0x4a19	dec    	eax
  === BLOCK LINK ===
    0x4a1a
=== CODE BLOCK END ===

=== CODE BLOCK ADDRESS 0x4a1a ===
  0x4a1a	lea    	ecx, [esi + 0x22]
  0x4a1d	xor    	edx, edx
  0x4a1f	inc    	esp
  0x4a20	lea    	eax, [edi + 0x55]
  0x4a23	call   	0x5b36
  === BLOCK LINK ===
    0x4a28
=== CODE BLOCK END ===

=== CODE BLOCK ADDRESS 0x4a28 ===
  0x4a28	lea    	eax, [edi + 0x57]
  0x4a2b	mov    	word ptr [esi + 0x20], ax
  0x4a2f	mov    	dword ptr [esi + 0x24], edi
  0x4a32	dec    	eax
  0x4a33	lea    	ecx, [esi + 0x28]
  === BLOCK LINK ===
    0x4a36
=== CODE BLOCK END ===

=== CODE BLOCK ADDRESS 0x4a36 ===
  0x4a36	xor    	edx, edx
  0x4a38	inc    	esp
  0x4a39	lea    	eax, [edi + 0x4f]
  0x4a3c	call   	0x5b36
  === BLOCK LINK ===
    0x4a41
=== CODE BLOCK END ===

=== CODE BLOCK ADDRESS 0x4a41 ===
  0x4a41	dec    	ecx
  0x4a42	mov    	dword ptr [edi], esi
  0x4a44	xor    	edi, edi
  0x4a46	test   	edi, edi
  0x4a48	jns    	0x48a6
  === BLOCK LINK ===
    0x4a4e
=== CODE BLOCK END ===

=== CODE BLOCK ADDRESS 0x4a4e ===
  0x4a4e	mov    	edx, 0x12e
  0x4a53	inc    	esp
  0x4a54	mov    	ecx, edi
  0x4a56	dec    	eax
  0x4a57	mov    	ecx, dword ptr [ebp + 0x1b8]
  === BLOCK LINK ===
    0x4a5d
=== CODE BLOCK END ===

=== CODE BLOCK ADDRESS 0x4a5d ===
  0x4a5d	call   	0x3bc8
  === BLOCK LINK ===
    0x4a62
=== CODE BLOCK END ===

=== CODE BLOCK ADDRESS 0x4a62 ===
  0x4a62	jmp    	0x48a8
  === BLOCK LINK ===
    0x4a67
=== CODE BLOCK END ===

=== CODE BLOCK ADDRESS 0x4a67 ===
  0x4a67	call   	0x3c88
  === BLOCK LINK ===
    0x4a6c
=== CODE BLOCK END ===

=== CODE BLOCK ADDRESS 0x4a6c ===
  0x4a6c	nop    	
  0x4a6d	dec    	eax
  0x4a6e	mov    	ecx, dword ptr [ebp + 0x1b8]
  0x4a74	call   	0x3c44
  === BLOCK LINK ===
    0x4a79
=== CODE BLOCK END ===

=== CODE BLOCK ADDRESS 0x4a79 ===
  0x4a79	int3   	
  0x4a7a	int3   	
  0x4a7b	int3   	
  0x4a7c	int3   	
  0x4a7d	int3   	
  === BLOCK LINK ===
    0x4a7e
=== CODE BLOCK END ===

=== CODE BLOCK ADDRESS 0x4a7e ===
  0x4a7e	int3   	
  0x4a7f	int3   	
  0x4a80	dec    	eax
  0x4a81	mov    	dword ptr [esp + 8], ebx
  0x4a85	dec    	eax
  === BLOCK LINK ===
    0x4a86
=== CODE BLOCK END ===

=== CODE BLOCK ADDRESS 0x4a86 ===
  0x4a86	mov    	dword ptr [esp + 0x18], ebp
  0x4a8a	push   	esi
  0x4a8b	push   	edi
  0x4a8c	inc    	ecx
  0x4a8d	push   	esi
  === BLOCK LINK ===
    0x4a8e
=== CODE BLOCK END ===

=== CODE BLOCK ADDRESS 0x4a8e ===
  0x4a8e	dec    	eax
  0x4a8f	sub    	esp, 0x20
  0x4a92	cmp    	byte ptr [0x4d97], 0
  0x4a99	dec    	eax
  0x4a9a	mov    	edi, ecx
  === BLOCK LINK ===
    0x4a9c
=== CODE BLOCK END ===

=== CODE BLOCK ADDRESS 0x4a9c ===
  0x4a9c	jne    	0x4c55
  === BLOCK LINK ===
    0x4aa2
=== CODE BLOCK END ===

=== CODE BLOCK ADDRESS 0x4aa2 ===
  0x4aa2	dec    	eax
  0x4aa3	mov    	eax, dword ptr [0x4d5f]
  0x4aa9	dec    	eax
  0x4aaa	test   	eax, eax
  0x4aac	je     	0x4ab7
  === BLOCK LINK ===
    0x4aae
=== CODE BLOCK END ===

=== CODE BLOCK ADDRESS 0x4aae ===
  0x4aae	call   	dword ptr [0x1acc]
  === BLOCK LINK ===
    0x4ab4
=== CODE BLOCK END ===

=== CODE BLOCK ADDRESS 0x4ab4 ===
  0x4ab4	movzx  	eax, al
  0x4ab7	test   	eax, eax
  0x4ab9	jne    	0x4c55
  === BLOCK LINK ===
    0x4abf
=== CODE BLOCK END ===

=== CODE BLOCK ADDRESS 0x4abf ===
  0x4abf	dec    	eax
  0x4ac0	mov    	esi, dword ptr [edi + 8]
  0x4ac3	inc    	ebp
  0x4ac4	xor    	eax, eax
  0x4ac6	dec    	eax
  === BLOCK LINK ===
    0x4ac7
=== CODE BLOCK END ===

=== CODE BLOCK ADDRESS 0x4ac7 ===
  0x4ac7	mov    	ecx, esi
  0x4ac9	or     	edx, 0xffffffff
  0x4acc	dec    	eax
  0x4acd	call   	dword ptr [0x18a5]
  === BLOCK LINK ===
    0x4ad3
=== CODE BLOCK END ===

=== CODE BLOCK ADDRESS 0x4ad3 ===
  0x4ad3	nop    	dword ptr [eax + eax]
  0x4ad8	cmp    	eax, 0x102
  0x4add	je     	0x4aee
  === BLOCK LINK ===
    0x4adf
=== CODE BLOCK END ===

=== CODE BLOCK ADDRESS 0x4adf ===
  0x4adf	test   	eax, eax
  0x4ae1	je     	0x4af7
  === BLOCK LINK ===
    0x4ae3
=== CODE BLOCK END ===

=== CODE BLOCK ADDRESS 0x4ae3 ===
  0x4ae3	cmp    	eax, 0x80
  0x4ae8	jne    	0x4c6f
  === BLOCK LINK ===
    0x4aee
=== CODE BLOCK END ===

=== CODE BLOCK ADDRESS 0x4aee ===
  0x4aee	test   	eax, 0xffffff7f
  0x4af3	je     	0x4af7
  === BLOCK LINK ===
    0x4af5
=== CODE BLOCK END ===

=== CODE BLOCK ADDRESS 0x4af5 ===
  0x4af5	xor    	esi, esi
  0x4af7	mov    	eax, dword ptr [edi]
  0x4af9	sub    	eax, 1
  0x4afc	dec    	eax
  0x4afd	mov    	dword ptr [esp + 0x48], esi
  === BLOCK LINK ===
    0x4b01
=== CODE BLOCK END ===

=== CODE BLOCK ADDRESS 0x4b01 ===
  0x4b01	mov    	dword ptr [edi], eax
  0x4b03	jne    	0x4c41
  === BLOCK LINK ===
    0x4b09
=== CODE BLOCK END ===

=== CODE BLOCK ADDRESS 0x4b09 ===
  0x4b09	dec    	eax
  0x4b0a	mov    	ebp, dword ptr [edi + 0x10]
  0x4b0d	dec    	eax
  0x4b0e	test   	ebp, ebp
  0x4b10	je     	0x4b36
  === BLOCK LINK ===
    0x4b12
=== CODE BLOCK END ===

=== CODE BLOCK ADDRESS 0x4b12 ===
  0x4b12	dec    	eax
  0x4b13	call   	dword ptr [0x16f7]
  === BLOCK LINK ===
    0x4b19
=== CODE BLOCK END ===

=== CODE BLOCK ADDRESS 0x4b19 ===
  0x4b19	nop    	dword ptr [eax + eax]
  0x4b1e	dec    	eax
  0x4b1f	mov    	ecx, ebp
  0x4b21	mov    	ebx, eax
  0x4b23	call   	0x3c98
  === BLOCK LINK ===
    0x4b28
=== CODE BLOCK END ===

=== CODE BLOCK ADDRESS 0x4b28 ===
  0x4b28	mov    	ecx, ebx
  0x4b2a	dec    	eax
  0x4b2b	call   	dword ptr [0x16ef]
  === BLOCK LINK ===
    0x4b31
=== CODE BLOCK END ===

=== CODE BLOCK ADDRESS 0x4b31 ===
  0x4b31	nop    	dword ptr [eax + eax]
  0x4b36	dec    	eax
  0x4b37	and    	dword ptr [edi + 0x10], 0
  0x4b3b	dec    	eax
  0x4b3c	mov    	ebp, dword ptr [edi + 0x18]
  === BLOCK LINK ===
    0x4b3f
=== CODE BLOCK END ===

=== CODE BLOCK ADDRESS 0x4b3f ===
  0x4b3f	dec    	eax
  0x4b40	test   	ebp, ebp
  0x4b42	je     	0x4b68
  === BLOCK LINK ===
    0x4b44
=== CODE BLOCK END ===

=== CODE BLOCK ADDRESS 0x4b44 ===
  0x4b44	dec    	eax
  0x4b45	call   	dword ptr [0x16c5]
  === BLOCK LINK ===
    0x4b4b
=== CODE BLOCK END ===

=== CODE BLOCK ADDRESS 0x4b4b ===
  0x4b4b	nop    	dword ptr [eax + eax]
  0x4b50	dec    	eax
  0x4b51	mov    	ecx, ebp
  0x4b53	mov    	ebx, eax
  0x4b55	call   	0x3c98
  === BLOCK LINK ===
    0x4b5a
=== CODE BLOCK END ===

=== CODE BLOCK ADDRESS 0x4b5a ===
  0x4b5a	mov    	ecx, ebx
  0x4b5c	dec    	eax
  0x4b5d	call   	dword ptr [0x16bd]
  === BLOCK LINK ===
    0x4b63
=== CODE BLOCK END ===

=== CODE BLOCK ADDRESS 0x4b63 ===
  0x4b63	nop    	dword ptr [eax + eax]
  0x4b68	dec    	eax
  0x4b69	and    	dword ptr [edi + 0x18], 0
  0x4b6d	dec    	eax
  0x4b6e	test   	esi, esi
  === BLOCK LINK ===
    0x4b70
=== CODE BLOCK END ===

=== CODE BLOCK ADDRESS 0x4b70 ===
  0x4b70	je     	0x4b96
  === BLOCK LINK ===
    0x4b72
=== CODE BLOCK END ===

=== CODE BLOCK ADDRESS 0x4b72 ===
  0x4b72	dec    	eax
  0x4b73	call   	dword ptr [0x1697]
  === BLOCK LINK ===
    0x4b79
=== CODE BLOCK END ===

=== CODE BLOCK ADDRESS 0x4b79 ===
  0x4b79	nop    	dword ptr [eax + eax]
  0x4b7e	dec    	eax
  0x4b7f	mov    	ecx, esi
  0x4b81	mov    	ebx, eax
  0x4b83	call   	0x3cc8
  === BLOCK LINK ===
    0x4b88
=== CODE BLOCK END ===

=== CODE BLOCK ADDRESS 0x4b88 ===
  0x4b88	mov    	ecx, ebx
  0x4b8a	dec    	eax
  0x4b8b	call   	dword ptr [0x168f]
  === BLOCK LINK ===
    0x4b91
=== CODE BLOCK END ===

=== CODE BLOCK ADDRESS 0x4b91 ===
  0x4b91	nop    	dword ptr [eax + eax]
  0x4b96	dec    	eax
  0x4b97	lea    	esi, [edi + 0x28]
  0x4b9a	xor    	ebx, ebx
  0x4b9c	dec    	esp
  === BLOCK LINK ===
    0x4b9d
=== CODE BLOCK END ===

=== CODE BLOCK ADDRESS 0x4b9d ===
  0x4b9d	lea    	esi, [esi + 0x50]
  0x4ba0	dec    	eax
  0x4ba1	mov    	dword ptr [esp + 0x48], ebx
  0x4ba5	dec    	ecx
  0x4ba6	cmp    	esi, esi
  === BLOCK LINK ===
    0x4ba8
=== CODE BLOCK END ===

=== CODE BLOCK ADDRESS 0x4ba8 ===
  0x4ba8	je     	0x4bf5
  === BLOCK LINK ===
    0x4baa
=== CODE BLOCK END ===

=== CODE BLOCK ADDRESS 0x4baa ===
  0x4baa	dec    	eax
  0x4bab	mov    	ebp, dword ptr [esi]
  0x4bad	jmp    	0x4bdf
  === BLOCK LINK ===
    0x4baf
=== CODE BLOCK END ===

=== CODE BLOCK ADDRESS 0x4baf ===
  0x4baf	dec    	eax
  0x4bb0	mov    	ebx, ebp
  0x4bb2	dec    	eax
  0x4bb3	mov    	ebp, dword ptr [ebp + 8]
  0x4bb6	dec    	eax
  === BLOCK LINK ===
    0x4bb7
=== CODE BLOCK END ===

=== CODE BLOCK ADDRESS 0x4bb7 ===
  0x4bb7	lea    	ecx, [ebx + 0x10]
  0x4bba	call   	0x40a0
  === BLOCK LINK ===
    0x4bbf
=== CODE BLOCK END ===

=== CODE BLOCK ADDRESS 0x4bbf ===
  0x4bbf	dec    	eax
  0x4bc0	call   	dword ptr [0x169a]
  === BLOCK LINK ===
    0x4bc6
=== CODE BLOCK END ===

=== CODE BLOCK ADDRESS 0x4bc6 ===
  0x4bc6	nop    	dword ptr [eax + eax]
  0x4bcb	dec    	esp
  0x4bcc	mov    	eax, ebx
  0x4bce	xor    	edx, edx
  0x4bd0	dec    	eax
  === BLOCK LINK ===
    0x4bd1
=== CODE BLOCK END ===

=== CODE BLOCK ADDRESS 0x4bd1 ===
  0x4bd1	mov    	ecx, eax
  0x4bd3	dec    	eax
  0x4bd4	call   	dword ptr [0x167e]
  === BLOCK LINK ===
    0x4bda
=== CODE BLOCK END ===

=== CODE BLOCK ADDRESS 0x4bda ===
  0x4bda	nop    	dword ptr [eax + eax]
  0x4bdf	dec    	eax
  0x4be0	test   	ebp, ebp
  0x4be2	jne    	0x4baf
  === BLOCK LINK ===
    0x4be4
=== CODE BLOCK END ===

=== CODE BLOCK ADDRESS 0x4be4 ===
  0x4be4	dec    	eax
  0x4be5	mov    	dword ptr [esi], ebp
  0x4be7	dec    	eax
  0x4be8	add    	esi, 8
  0x4beb	dec    	ecx
  === BLOCK LINK ===
    0x4bec
=== CODE BLOCK END ===

=== CODE BLOCK ADDRESS 0x4bec ===
  0x4bec	cmp    	esi, esi
  0x4bee	jne    	0x4baa
  === BLOCK LINK ===
    0x4bf0
=== CODE BLOCK END ===

=== CODE BLOCK ADDRESS 0x4bf0 ===
  0x4bf0	dec    	eax
  0x4bf1	mov    	ebx, dword ptr [esp + 0x48]
  0x4bf5	dec    	eax
  0x4bf6	mov    	ecx, dword ptr [edi + 0x18]
  0x4bf9	dec    	eax
  === BLOCK LINK ===
    0x4bfa
=== CODE BLOCK END ===

=== CODE BLOCK ADDRESS 0x4bfa ===
  0x4bfa	test   	ecx, ecx
  0x4bfc	je     	0x4c03
  === BLOCK LINK ===
    0x4bfe
=== CODE BLOCK END ===

=== CODE BLOCK ADDRESS 0x4bfe ===
  0x4bfe	call   	0x3c98
  === BLOCK LINK ===
    0x4c03
=== CODE BLOCK END ===

=== CODE BLOCK ADDRESS 0x4c03 ===
  0x4c03	dec    	eax
  0x4c04	mov    	ecx, dword ptr [edi + 0x10]
  0x4c07	dec    	eax
  0x4c08	test   	ecx, ecx
  0x4c0a	je     	0x4c11
  === BLOCK LINK ===
    0x4c0c
=== CODE BLOCK END ===

=== CODE BLOCK ADDRESS 0x4c0c ===
  0x4c0c	call   	0x3c98
  === BLOCK LINK ===
    0x4c11
=== CODE BLOCK END ===

=== CODE BLOCK ADDRESS 0x4c11 ===
  0x4c11	dec    	eax
  0x4c12	mov    	ecx, dword ptr [edi + 8]
  0x4c15	dec    	eax
  0x4c16	test   	ecx, ecx
  0x4c18	je     	0x4c1f
  === BLOCK LINK ===
    0x4c1a
=== CODE BLOCK END ===

=== CODE BLOCK ADDRESS 0x4c1a ===
  0x4c1a	call   	0x3c98
  === BLOCK LINK ===
    0x4c1f
=== CODE BLOCK END ===

=== CODE BLOCK ADDRESS 0x4c1f ===
  0x4c1f	dec    	eax
  0x4c20	call   	dword ptr [0x163a]
  === BLOCK LINK ===
    0x4c26
=== CODE BLOCK END ===

=== CODE BLOCK ADDRESS 0x4c26 ===
  0x4c26	nop    	dword ptr [eax + eax]
  0x4c2b	dec    	esp
  0x4c2c	mov    	eax, edi
  0x4c2e	xor    	edx, edx
  0x4c30	dec    	eax
  === BLOCK LINK ===
    0x4c31
=== CODE BLOCK END ===

=== CODE BLOCK ADDRESS 0x4c31 ===
  0x4c31	mov    	ecx, eax
  0x4c33	dec    	eax
  0x4c34	call   	dword ptr [0x161e]
  === BLOCK LINK ===
    0x4c3a
=== CODE BLOCK END ===

=== CODE BLOCK ADDRESS 0x4c3a ===
  0x4c3a	nop    	dword ptr [eax + eax]
  0x4c3f	jmp    	0x4c46
  === BLOCK LINK ===
    0x4c41
=== CODE BLOCK END ===

=== CODE BLOCK ADDRESS 0x4c41 ===
  0x4c41	dec    	eax
  0x4c42	mov    	ebx, dword ptr [esp + 0x48]
  0x4c46	dec    	eax
  0x4c47	test   	ebx, ebx
  0x4c49	je     	0x4c5b
  === BLOCK LINK ===
    0x4c4b
=== CODE BLOCK END ===

=== CODE BLOCK ADDRESS 0x4c4b ===
  0x4c4b	dec    	eax
  0x4c4c	mov    	ecx, ebx
  0x4c4e	call   	0x3cc8
  === BLOCK LINK ===
    0x4c53
=== CODE BLOCK END ===

=== CODE BLOCK ADDRESS 0x4c53 ===
  0x4c53	jmp    	0x4c5b
  === BLOCK LINK ===
    0x4c55
=== CODE BLOCK END ===

=== CODE BLOCK ADDRESS 0x4c55 ===
  0x4c55	mov    	eax, dword ptr [edi]
  0x4c57	dec    	eax
  0x4c59	mov    	dword ptr [edi], eax
  0x4c5b	dec    	eax
  0x4c5c	mov    	ebx, dword ptr [esp + 0x40]
  === BLOCK LINK ===
    0x4c60
=== CODE BLOCK END ===

=== CODE BLOCK ADDRESS 0x4c60 ===
  0x4c60	dec    	eax
  0x4c61	mov    	ebp, dword ptr [esp + 0x50]
  0x4c65	dec    	eax
  0x4c66	add    	esp, 0x20
  0x4c69	inc    	ecx
  === BLOCK LINK ===
    0x4c6a
=== CODE BLOCK END ===

=== CODE BLOCK ADDRESS 0x4c6a ===
  0x4c6a	pop    	esi
  0x4c6b	pop    	edi
  0x4c6c	pop    	esi
  0x4c6d	ret    	
  0x4c6e	int3   	
  === BLOCK LINK ===
    0x4c6f
=== CODE BLOCK END ===

=== CODE BLOCK ADDRESS 0x4c6f ===
  0x4c6f	dec    	eax
  0x4c70	mov    	ecx, dword ptr [esp + 0x38]
  0x4c74	call   	0x3c44
  === BLOCK LINK ===
    0x4c79
=== CODE BLOCK END ===

=== CODE BLOCK ADDRESS 0x4c79 ===
  0x4c79	int3   	
  0x4c7a	int3   	
  0x4c7b	int3   	
  0x4c7c	int3   	
  0x4c7d	int3   	
  === BLOCK LINK ===
    0x4c7e
=== CODE BLOCK END ===

=== CODE BLOCK ADDRESS 0x4c7e ===
  0x4c7e	int3   	
  0x4c7f	int3   	
  0x4c80	dec    	eax
  0x4c81	sub    	esp, 0x38
  0x4c84	dec    	eax
  === BLOCK LINK ===
    0x4c85
=== CODE BLOCK END ===

=== CODE BLOCK ADDRESS 0x4c85 ===
  0x4c85	mov    	dword ptr [esp + 0x20], 0xfffffffe
  0x4c8d	dec    	eax
  0x4c8e	mov    	ecx, dword ptr [ecx]
  0x4c90	dec    	eax
  0x4c91	test   	ecx, ecx
  === BLOCK LINK ===
    0x4c93
=== CODE BLOCK END ===

=== CODE BLOCK ADDRESS 0x4c93 ===
  0x4c93	je     	0x4c9b
  === BLOCK LINK ===
    0x4c95
=== CODE BLOCK END ===

=== CODE BLOCK ADDRESS 0x4c95 ===
  0x4c95	call   	0x3c98
  === BLOCK LINK ===
    0x4c9a
=== CODE BLOCK END ===

=== CODE BLOCK ADDRESS 0x4c9a ===
  0x4c9a	nop    	
  0x4c9b	dec    	eax
  0x4c9c	add    	esp, 0x38
  0x4c9f	ret    	
  0x4ca0	int3   	
  === BLOCK LINK ===
    0x4ca1
=== CODE BLOCK END ===

=== CODE BLOCK ADDRESS 0x32b0 ===
  0x32b0	dec    	eax
  0x32b1	mov    	dword ptr [esp + 0x10], ebx
  0x32b5	dec    	eax
  0x32b6	mov    	dword ptr [esp + 0x18], edi
  === BLOCK LINK ===
    0x32ba
=== CODE BLOCK END ===

=== CODE BLOCK ADDRESS 0x4ca1 ===
  0x4ca1	int3   	
  0x4ca2	int3   	
  0x4ca3	int3   	
  0x4ca4	int3   	
  0x4ca5	int3   	
  === BLOCK LINK ===
    0x4ca6
=== CODE BLOCK END ===

=== CODE BLOCK ADDRESS 0x4ca6 ===
  0x4ca6	int3   	
  0x4ca7	int3   	
  0x4ca8	dec    	eax
  0x4ca9	mov    	dword ptr [esp + 8], ebx
  0x4cad	dec    	eax
  === BLOCK LINK ===
    0x4cae
=== CODE BLOCK END ===

=== CODE BLOCK ADDRESS 0x4cae ===
  0x4cae	mov    	dword ptr [esp + 0x18], esi
  0x4cb2	push   	ebp
  0x4cb3	push   	edi
  0x4cb4	inc    	ecx
  0x4cb5	push   	esp
  === BLOCK LINK ===
    0x4cb6
=== CODE BLOCK END ===

=== CODE BLOCK ADDRESS 0x4cb6 ===
  0x4cb6	inc    	ecx
  0x4cb7	push   	esi
  0x4cb8	inc    	ecx
  0x4cb9	push   	edi
  0x4cba	dec    	eax
  === BLOCK LINK ===
    0x4cbb
=== CODE BLOCK END ===

=== CODE BLOCK ADDRESS 0x4cbb ===
  0x4cbb	lea    	ebp, [esp - 0x150]
  0x4cc2	dec    	eax
  0x4cc3	sub    	esp, 0x250
  0x4cc9	dec    	eax
  0x4cca	mov    	eax, dword ptr [0x44d8]
  === BLOCK LINK ===
    0x4cd0
=== CODE BLOCK END ===

=== CODE BLOCK ADDRESS 0x4cd0 ===
  0x4cd0	dec    	eax
  0x4cd1	xor    	eax, esp
  0x4cd3	dec    	eax
  0x4cd4	mov    	dword ptr [ebp + 0x140], eax
  0x4cda	inc    	ebp
  === BLOCK LINK ===
    0x4cdb
=== CODE BLOCK END ===

=== CODE BLOCK ADDRESS 0x4cdb ===
  0x4cdb	xor    	esp, esp
  0x4cdd	dec    	eax
  0x4cde	lea    	eax, [esp + 0x30]
  0x4ce2	dec    	esp
  0x4ce3	mov    	dword ptr [edx], esp
  === BLOCK LINK ===
    0x4ce5
=== CODE BLOCK END ===

=== CODE BLOCK ADDRESS 0x4ce5 ===
  0x4ce5	dec    	esp
  0x4ce6	lea    	eax, [esp + 0x30]
  0x4cea	inc    	ebp
  0x4ceb	mov    	esi, esp
  0x4ced	dec    	eax
  === BLOCK LINK ===
    0x4cee
=== CODE BLOCK END ===

=== CODE BLOCK ADDRESS 0x4cee ===
  0x4cee	sub    	ecx, eax
  0x4cf0	dec    	esp
  0x4cf1	mov    	edi, edx
  0x4cf3	inc    	ecx
  0x4cf4	mov    	ecx, 0x104
  === BLOCK LINK ===
    0x4cf9
=== CODE BLOCK END ===

=== CODE BLOCK ADDRESS 0x4cf9 ===
  0x4cf9	dec    	ecx
  0x4cfa	lea    	eax, [ecx + 0x7ffffefa]
  0x4d00	dec    	eax
  0x4d01	test   	eax, eax
  0x4d03	je     	0x4d1d
  === BLOCK LINK ===
    0x4d05
=== CODE BLOCK END ===

=== CODE BLOCK ADDRESS 0x4d05 ===
  0x4d05	inc    	edx
  0x4d06	movzx  	eax, word ptr [ecx + eax]
  0x4d0a	test   	ax, ax
  0x4d0d	je     	0x4d1d
  === BLOCK LINK ===
    0x4d0f
=== CODE BLOCK END ===

=== CODE BLOCK ADDRESS 0x4d0f ===
  0x4d0f	inc    	cx
  0x4d11	mov    	dword ptr [eax], eax
  0x4d13	dec    	ecx
  0x4d14	add    	eax, 2
  0x4d17	dec    	ecx
  === BLOCK LINK ===
    0x4d18
=== CODE BLOCK END ===

=== CODE BLOCK ADDRESS 0x4d18 ===
  0x4d18	sub    	ecx, 1
  0x4d1b	jne    	0x4cf9
  === BLOCK LINK ===
    0x4d1d
=== CODE BLOCK END ===

=== CODE BLOCK ADDRESS 0x4d1d ===
  0x4d1d	dec    	ecx
  0x4d1e	lea    	eax, [eax - 2]
  0x4d21	dec    	ebp
  0x4d22	test   	ecx, ecx
  0x4d24	dec    	eax
  === BLOCK LINK ===
    0x4d25
=== CODE BLOCK END ===

=== CODE BLOCK ADDRESS 0x4d25 ===
  0x4d25	lea    	ecx, [esp + 0x30]
  0x4d29	dec    	ecx
  0x4d2a	cmovne  	eax, eax
  0x4d2d	dec    	esp
  0x4d2e	lea    	eax, [0x1d8c]
  === BLOCK LINK ===
    0x4d34
=== CODE BLOCK END ===

=== CODE BLOCK ADDRESS 0x4d34 ===
  0x4d34	inc    	sp
  0x4d36	mov    	dword ptr [eax], esp
  0x4d38	call   	0x33ec
  === BLOCK LINK ===
    0x4d3d
=== CODE BLOCK END ===

=== CODE BLOCK ADDRESS 0x4d3d ===
  0x4d3d	mov    	edi, 0x1f0003
  0x4d42	dec    	esp
  0x4d43	lea    	eax, [esp + 0x30]
  0x4d47	mov    	ecx, edi
  0x4d49	xor    	edx, edx
  === BLOCK LINK ===
    0x4d4b
=== CODE BLOCK END ===

=== CODE BLOCK ADDRESS 0x4d4b ===
  0x4d4b	dec    	eax
  0x4d4c	call   	dword ptr [0x15e6]
  === BLOCK LINK ===
    0x4d52
=== CODE BLOCK END ===

=== CODE BLOCK ADDRESS 0x4d52 ===
  0x4d52	nop    	dword ptr [eax + eax]
  0x4d57	dec    	eax
  0x4d58	mov    	ebx, eax
  0x4d5a	dec    	eax
  0x4d5b	test   	eax, eax
  === BLOCK LINK ===
    0x4d5d
=== CODE BLOCK END ===

=== CODE BLOCK ADDRESS 0x4d5d ===
  0x4d5d	jne    	0x4d8c
  === BLOCK LINK ===
    0x4d5f
=== CODE BLOCK END ===

=== CODE BLOCK ADDRESS 0x4d5f ===
  0x4d5f	dec    	eax
  0x4d60	call   	dword ptr [0x14aa]
  === BLOCK LINK ===
    0x4d66
=== CODE BLOCK END ===

=== CODE BLOCK ADDRESS 0x4d66 ===
  0x4d66	nop    	dword ptr [eax + eax]
  0x4d6b	cmp    	eax, 2
  0x4d6e	je     	0x4e81
  === BLOCK LINK ===
    0x4d74
=== CODE BLOCK END ===

=== CODE BLOCK ADDRESS 0x4d74 ===
  0x4d74	dec    	eax
  0x4d75	mov    	ecx, dword ptr [ebp + 0x178]
  0x4d7b	mov    	edx, 0xc9
  0x4d80	call   	0x3c04
  === BLOCK LINK ===
    0x4d85
=== CODE BLOCK END ===

=== CODE BLOCK ADDRESS 0x4d85 ===
  0x4d85	mov    	esi, eax
  0x4d87	jmp    	0x4e65
  === BLOCK LINK ===
    0x4d8c
=== CODE BLOCK END ===

=== CODE BLOCK ADDRESS 0x4d8c ===
  0x4d8c	dec    	eax
  0x4d8d	lea    	edx, [esp + 0x24]
  0x4d91	inc    	esp
  0x4d92	mov    	dword ptr [esp + 0x24], esp
  0x4d96	dec    	eax
  === BLOCK LINK ===
    0x4d97
=== CODE BLOCK END ===

=== CODE BLOCK ADDRESS 0x4d97 ===
  0x4d97	mov    	ecx, ebx
  0x4d99	inc    	esp
  0x4d9a	mov    	dword ptr [esp + 0x20], esp
  0x4d9e	call   	0x3f28
  === BLOCK LINK ===
    0x4da3
=== CODE BLOCK END ===

=== CODE BLOCK ADDRESS 0x4da3 ===
  0x4da3	mov    	esi, eax
  0x4da5	test   	eax, eax
  0x4da7	jns    	0x4dca
  === BLOCK LINK ===
    0x4da9
=== CODE BLOCK END ===

=== CODE BLOCK ADDRESS 0x4da9 ===
  0x4da9	dec    	eax
  0x4daa	mov    	ecx, dword ptr [ebp + 0x178]
  0x4db0	inc    	esp
  0x4db1	mov    	ecx, eax
  0x4db3	mov    	edx, 0xcf
  === BLOCK LINK ===
    0x4db8
=== CODE BLOCK END ===

=== CODE BLOCK ADDRESS 0x4db8 ===
  0x4db8	call   	0x3bc8
  === BLOCK LINK ===
    0x4dbd
=== CODE BLOCK END ===

=== CODE BLOCK ADDRESS 0x4dbd ===
  0x4dbd	dec    	eax
  0x4dbe	mov    	ecx, ebx
  0x4dc0	call   	0x3c98
  === BLOCK LINK ===
    0x4dc5
=== CODE BLOCK END ===

=== CODE BLOCK ADDRESS 0x4dc5 ===
  0x4dc5	jmp    	0x4e65
  === BLOCK LINK ===
    0x4dca
=== CODE BLOCK END ===

=== CODE BLOCK ADDRESS 0x4dca ===
  0x4dca	dec    	esp
  0x4dcb	lea    	eax, [0x1cf7]
  0x4dd1	dec    	eax
  0x4dd2	lea    	ecx, [esp + 0x30]
  0x4dd6	call   	0x33ec
  === BLOCK LINK ===
    0x4ddb
=== CODE BLOCK END ===

=== CODE BLOCK ADDRESS 0x4ddb ===
  0x4ddb	dec    	esp
  0x4ddc	lea    	eax, [esp + 0x30]
  0x4de0	xor    	edx, edx
  0x4de2	mov    	ecx, edi
  0x4de4	dec    	eax
  === BLOCK LINK ===
    0x4de5
=== CODE BLOCK END ===

=== CODE BLOCK ADDRESS 0x4de5 ===
  0x4de5	call   	dword ptr [0x154d]
  === BLOCK LINK ===
    0x4deb
=== CODE BLOCK END ===

=== CODE BLOCK ADDRESS 0x4deb ===
  0x4deb	nop    	dword ptr [eax + eax]
  0x4df0	dec    	eax
  0x4df1	mov    	edi, eax
  0x4df3	dec    	eax
  0x4df4	test   	eax, eax
  === BLOCK LINK ===
    0x4df6
=== CODE BLOCK END ===

=== CODE BLOCK ADDRESS 0x4df6 ===
  0x4df6	jne    	0x4e0d
  === BLOCK LINK ===
    0x4df8
=== CODE BLOCK END ===

=== CODE BLOCK ADDRESS 0x4df8 ===
  0x4df8	dec    	eax
  0x4df9	mov    	ecx, dword ptr [ebp + 0x178]
  0x4dff	mov    	edx, 0xd5
  0x4e04	call   	0x3c04
  === BLOCK LINK ===
    0x4e09
=== CODE BLOCK END ===

=== CODE BLOCK ADDRESS 0x4e09 ===
  0x4e09	mov    	esi, eax
  0x4e0b	jmp    	0x4dbd
  === BLOCK LINK ===
    0x4e0d
=== CODE BLOCK END ===

=== CODE BLOCK ADDRESS 0x4e0d ===
  0x4e0d	dec    	eax
  0x4e0e	lea    	edx, [esp + 0x20]
  0x4e12	dec    	eax
  0x4e13	mov    	ecx, edi
  0x4e15	call   	0x3f28
  === BLOCK LINK ===
    0x4e1a
=== CODE BLOCK END ===

=== CODE BLOCK ADDRESS 0x4e1a ===
  0x4e1a	mov    	esi, eax
  0x4e1c	test   	eax, eax
  0x4e1e	jns    	0x4e41
  === BLOCK LINK ===
    0x4e20
=== CODE BLOCK END ===

=== CODE BLOCK ADDRESS 0x4e20 ===
  0x4e20	dec    	eax
  0x4e21	mov    	ecx, dword ptr [ebp + 0x178]
  0x4e27	inc    	esp
  0x4e28	mov    	ecx, eax
  0x4e2a	mov    	edx, 0xd7
  === BLOCK LINK ===
    0x4e2f
=== CODE BLOCK END ===

=== CODE BLOCK ADDRESS 0x4e2f ===
  0x4e2f	call   	0x3bc8
  === BLOCK LINK ===
    0x4e34
=== CODE BLOCK END ===

=== CODE BLOCK ADDRESS 0x4e34 ===
  0x4e34	dec    	eax
  0x4e35	mov    	ecx, edi
  0x4e37	call   	0x3c98
  === BLOCK LINK ===
    0x4e3c
=== CODE BLOCK END ===

=== CODE BLOCK ADDRESS 0x4e3c ===
  0x4e3c	jmp    	0x4dbd
  === BLOCK LINK ===
    0x4e41
=== CODE BLOCK END ===

=== CODE BLOCK ADDRESS 0x4e41 ===
  0x4e41	dec    	eax
  0x4e42	mov    	ecx, edi
  0x4e44	call   	0x3c98
  === BLOCK LINK ===
    0x4e49
=== CODE BLOCK END ===

=== CODE BLOCK ADDRESS 0x4e49 ===
  0x4e49	dec    	eax
  0x4e4a	arpl   	word ptr [esp + 0x20], ax
  0x4e4e	dec    	eax
  0x4e4f	mov    	ecx, ebx
  0x4e51	dec    	esp
  === BLOCK LINK ===
    0x4e52
=== CODE BLOCK END ===

=== CODE BLOCK ADDRESS 0x4e52 ===
  0x4e52	arpl   	word ptr [esp + 0x24], si
  0x4e56	dec    	eax
  0x4e57	shl    	eax, 0x1f
  0x4e5a	dec    	esp
  0x4e5b	or     	esi, eax
  === BLOCK LINK ===
    0x4e5d
=== CODE BLOCK END ===

=== CODE BLOCK ADDRESS 0x4e5d ===
  0x4e5d	call   	0x3c98
  === BLOCK LINK ===
    0x4e62
=== CODE BLOCK END ===

=== CODE BLOCK ADDRESS 0x4e62 ===
  0x4e62	inc    	ecx
  0x4e63	mov    	esi, esp
  0x4e65	test   	esi, esi
  0x4e67	jns    	0x4e81
  === BLOCK LINK ===
    0x4e69
=== CODE BLOCK END ===

=== CODE BLOCK ADDRESS 0x4e69 ===
  0x4e69	dec    	eax
  0x4e6a	mov    	ecx, dword ptr [ebp + 0x178]
  0x4e70	inc    	esp
  0x4e71	mov    	ecx, esi
  0x4e73	mov    	edx, 0x62
  === BLOCK LINK ===
    0x4e78
=== CODE BLOCK END ===

=== CODE BLOCK ADDRESS 0x4e78 ===
  0x4e78	call   	0x3bc8
  === BLOCK LINK ===
    0x4e7d
=== CODE BLOCK END ===

=== CODE BLOCK ADDRESS 0x4e7d ===
  0x4e7d	mov    	eax, esi
  0x4e7f	jmp    	0x4e86
  === BLOCK LINK ===
    0x4e81
=== CODE BLOCK END ===

=== CODE BLOCK ADDRESS 0x4e81 ===
  0x4e81	dec    	ebp
  0x4e82	mov    	dword ptr [edi], esi
  0x4e84	xor    	eax, eax
  0x4e86	dec    	eax
  0x4e87	mov    	ecx, dword ptr [ebp + 0x140]
  === BLOCK LINK ===
    0x4e8d
=== CODE BLOCK END ===

=== CODE BLOCK ADDRESS 0x4e8d ===
  0x4e8d	dec    	eax
  0x4e8e	xor    	ecx, esp
  0x4e90	call   	0x5280
  === BLOCK LINK ===
    0x4e95
=== CODE BLOCK END ===

=== CODE BLOCK ADDRESS 0x4e95 ===
  0x4e95	dec    	esp
  0x4e96	lea    	ebx, [esp + 0x250]
  0x4e9d	dec    	ecx
  0x4e9e	mov    	ebx, dword ptr [ebx + 0x30]
  0x4ea1	dec    	ecx
  === BLOCK LINK ===
    0x4ea2
=== CODE BLOCK END ===

=== CODE BLOCK ADDRESS 0x4ea2 ===
  0x4ea2	mov    	esi, dword ptr [ebx + 0x40]
  0x4ea5	dec    	ecx
  0x4ea6	mov    	esp, ebx
  0x4ea8	inc    	ecx
  0x4ea9	pop    	edi
  === BLOCK LINK ===
    0x4eaa
=== CODE BLOCK END ===

=== CODE BLOCK ADDRESS 0x4eaa ===
  0x4eaa	inc    	ecx
  0x4eab	pop    	esi
  0x4eac	inc    	ecx
  0x4ead	pop    	esp
  0x4eae	pop    	edi
  === BLOCK LINK ===
    0x4eaf
=== CODE BLOCK END ===

=== CODE BLOCK ADDRESS 0x4eaf ===
  0x4eaf	pop    	ebp
  0x4eb0	ret    	
  0x4eb1	int3   	
  0x4eb2	int3   	
  0x4eb3	int3   	
  === BLOCK LINK ===
    0x4eb4
=== CODE BLOCK END ===

=== CODE BLOCK ADDRESS 0x14b0 ===
  0x14b0	dec    	eax
  0x14b1	mov    	dword ptr [esp + 8], ebx
  === BLOCK LINK ===
    0x14b5
=== CODE BLOCK END ===

=== CODE BLOCK ADDRESS 0x4eb4 ===
  0x4eb4	int3   	
  0x4eb5	int3   	
  0x4eb6	int3   	
  0x4eb7	int3   	
  0x4eb8	int3   	
  === BLOCK LINK ===
    0x4eb9
=== CODE BLOCK END ===

=== CODE BLOCK ADDRESS 0x4eb9 ===
  0x4eb9	int3   	
  0x4eba	int3   	
  0x4ebb	int3   	
  0x4ebc	int3   	
  0x4ebd	int3   	
  === BLOCK LINK ===
    0x4ebe
=== CODE BLOCK END ===

=== CODE BLOCK ADDRESS 0x4ebe ===
  0x4ebe	int3   	
  0x4ebf	int3   	
  0x4ec0	dec    	eax
  0x4ec1	sub    	esp, 0x28
  0x4ec4	mov    	eax, 0x5a4d
  === BLOCK LINK ===
    0x4ec9
=== CODE BLOCK END ===

=== CODE BLOCK ADDRESS 0x4ec9 ===
  0x4ec9	cmp    	word ptr [0xffffb130], ax
  0x4ed0	je     	0x4ed6
  === BLOCK LINK ===
    0x4ed2
=== CODE BLOCK END ===

=== CODE BLOCK ADDRESS 0x4ed2 ===
  0x4ed2	xor    	eax, eax
  0x4ed4	jmp    	0x4f29
  === BLOCK LINK ===
    0x4ed6
=== CODE BLOCK END ===

=== CODE BLOCK ADDRESS 0x4ed6 ===
  0x4ed6	dec    	eax
  0x4ed7	arpl   	word ptr [0xffffb15f], cx
  0x4edd	dec    	eax
  0x4ede	lea    	eax, [0xffffb11c]
  0x4ee4	dec    	eax
  === BLOCK LINK ===
    0x4ee5
=== CODE BLOCK END ===

=== CODE BLOCK ADDRESS 0x4ee5 ===
  0x4ee5	add    	ecx, eax
  0x4ee7	cmp    	dword ptr [ecx], 0x4550
  0x4eed	jne    	0x4ed2
  === BLOCK LINK ===
    0x4eef
=== CODE BLOCK END ===

=== CODE BLOCK ADDRESS 0x4eef ===
  0x4eef	mov    	eax, 0x10b
  0x4ef4	cmp    	word ptr [ecx + 0x18], ax
  0x4ef8	je     	0x4f18
  === BLOCK LINK ===
    0x4efa
=== CODE BLOCK END ===

=== CODE BLOCK ADDRESS 0x4efa ===
  0x4efa	mov    	eax, 0x20b
  0x4eff	cmp    	word ptr [ecx + 0x18], ax
  0x4f03	jne    	0x4ed2
  === BLOCK LINK ===
    0x4f05
=== CODE BLOCK END ===

=== CODE BLOCK ADDRESS 0x4f05 ===
  0x4f05	xor    	eax, eax
  0x4f07	cmp    	dword ptr [ecx + 0x84], 0xe
  0x4f0e	jbe    	0x4f29
  === BLOCK LINK ===
    0x4f10
=== CODE BLOCK END ===

=== CODE BLOCK ADDRESS 0x4f10 ===
  0x4f10	cmp    	dword ptr [ecx + 0xf8], eax
  0x4f16	jmp    	0x4f26
  === BLOCK LINK ===
    0x4f18
=== CODE BLOCK END ===

=== CODE BLOCK ADDRESS 0x4f18 ===
  0x4f18	xor    	eax, eax
  0x4f1a	cmp    	dword ptr [ecx + 0x74], 0xe
  0x4f1e	jbe    	0x4f29
  === BLOCK LINK ===
    0x4f20
=== CODE BLOCK END ===

=== CODE BLOCK ADDRESS 0x4f20 ===
  0x4f20	cmp    	dword ptr [ecx + 0xe8], eax
  0x4f26	setne  	al
  0x4f29	mov    	ecx, 2
  0x4f2e	mov    	dword ptr [0x42ec], eax
  0x4f34	call   	0x53b8
  === BLOCK LINK ===
    0x4f39
=== CODE BLOCK END ===

=== CODE BLOCK ADDRESS 0x4f39 ===
  0x4f39	mov    	ecx, eax
  0x4f3b	call   	dword ptr [0x15e7]
  === BLOCK LINK ===
    0x4f41
=== CODE BLOCK END ===

=== CODE BLOCK ADDRESS 0x4f41 ===
  0x4f41	dec    	eax
  0x4f42	mov    	ecx, dword ptr [0x1590]
  0x4f48	dec    	eax
  0x4f49	or     	eax, 0xffffffff
  0x4f4c	dec    	eax
  === BLOCK LINK ===
    0x4f4d
=== CODE BLOCK END ===

=== CODE BLOCK ADDRESS 0x4f4d ===
  0x4f4d	mov    	dword ptr [0x49fd], eax
  0x4f53	dec    	eax
  0x4f54	mov    	dword ptr [0x49fe], eax
  0x4f5a	mov    	eax, dword ptr [0x42d4]
  0x4f60	mov    	dword ptr [ecx], eax
  === BLOCK LINK ===
    0x4f62
=== CODE BLOCK END ===

=== CODE BLOCK ADDRESS 0x4f62 ===
  0x4f62	dec    	eax
  0x4f63	mov    	ecx, dword ptr [0x1567]
  0x4f69	mov    	eax, dword ptr [0x42b9]
  0x4f6f	mov    	dword ptr [ecx], eax
  0x4f71	call   	0x5410
  === BLOCK LINK ===
    0x4f76
=== CODE BLOCK END ===

=== CODE BLOCK ADDRESS 0x4f76 ===
  0x4f76	cmp    	dword ptr [0x4223], 0
  0x4f7d	jne    	0x4f8c
  === BLOCK LINK ===
    0x4f7f
=== CODE BLOCK END ===

=== CODE BLOCK ADDRESS 0x4f7f ===
  0x4f7f	dec    	eax
  0x4f80	lea    	ecx, [0x48a]
  0x4f86	call   	dword ptr [0x1574]
  === BLOCK LINK ===
    0x4f8c
=== CODE BLOCK END ===

=== CODE BLOCK ADDRESS 0x4f8c ===
  0x4f8c	xor    	eax, eax
  0x4f8e	dec    	eax
  0x4f8f	add    	esp, 0x28
  0x4f92	ret    	
  0x4f93	int3   	
  === BLOCK LINK ===
    0x4f94
=== CODE BLOCK END ===

=== CODE BLOCK ADDRESS 0x4f94 ===
  0x4f94	int3   	
  0x4f95	int3   	
  0x4f96	int3   	
  0x4f97	int3   	
  0x4f98	int3   	
  === BLOCK LINK ===
    0x4f99
=== CODE BLOCK END ===

=== CODE BLOCK ADDRESS 0x4f99 ===
  0x4f99	int3   	
  0x4f9a	int3   	
  0x4f9b	int3   	
  0x4f9c	int3   	
  0x4f9d	int3   	
  === BLOCK LINK ===
    0x4f9e
=== CODE BLOCK END ===

=== CODE BLOCK ADDRESS 0x4f9e ===
  0x4f9e	int3   	
  0x4f9f	int3   	
  0x4fa0	dec    	eax
  0x4fa1	sub    	esp, 0x38
  0x4fa4	mov    	eax, dword ptr [0x4286]
  === BLOCK LINK ===
    0x4faa
=== CODE BLOCK END ===

=== CODE BLOCK ADDRESS 0x4faa ===
  0x4faa	dec    	esp
  0x4fab	lea    	eax, [0x4267]
  0x4fb1	inc    	esp
  0x4fb2	mov    	ecx, dword ptr [0x4274]
  0x4fb8	dec    	eax
  === BLOCK LINK ===
    0x4fb9
=== CODE BLOCK END ===

=== CODE BLOCK ADDRESS 0x4fb9 ===
  0x4fb9	lea    	edx, [0x4251]
  0x4fbf	mov    	dword ptr [0x425f], eax
  0x4fc5	dec    	eax
  0x4fc6	lea    	ecx, [0x423c]
  0x4fcc	dec    	eax
  === BLOCK LINK ===
    0x4fcd
=== CODE BLOCK END ===

=== CODE BLOCK ADDRESS 0x4fcd ===
  0x4fcd	lea    	eax, [0x4251]
  0x4fd3	dec    	eax
  0x4fd4	mov    	dword ptr [esp + 0x20], eax
  0x4fd8	call   	dword ptr [0x1552]
  === BLOCK LINK ===
    0x4fde
=== CODE BLOCK END ===

=== CODE BLOCK ADDRESS 0x4fde ===
  0x4fde	mov    	dword ptr [0x4228], eax
  0x4fe4	dec    	eax
  0x4fe5	add    	esp, 0x38
  0x4fe8	ret    	
  0x4fe9	int3   	
  === BLOCK LINK ===
    0x4fea
=== CODE BLOCK END ===

=== CODE BLOCK ADDRESS 0x19b2 ===
  0x19b2	inc    	eax
  0x19b3	cmp    	byte ptr [esp + 0x7c], bh
  0x19b7	je     	0x19d2
  === BLOCK LINK ===
    0x19b9
=== CODE BLOCK END ===

=== CODE BLOCK ADDRESS 0x4fea ===
  0x4fea	int3   	
  0x4feb	int3   	
  0x4fec	int3   	
  0x4fed	int3   	
  0x4fee	int3   	
  === BLOCK LINK ===
    0x4fef
=== CODE BLOCK END ===

=== CODE BLOCK ADDRESS 0x4fef ===
  0x4fef	int3   	
  0x4ff0	dec    	eax
  0x4ff1	sub    	esp, 0x28
  0x4ff4	call   	0x5504
  === BLOCK LINK ===
    0x4ff9
=== CODE BLOCK END ===

=== CODE BLOCK ADDRESS 0x4ff9 ===
  0x4ff9	dec    	eax
  0x4ffa	add    	esp, 0x28
  0x4ffd	jmp    	0x5008
  === BLOCK LINK ===
    0x5002
=== CODE BLOCK END ===

=== CODE BLOCK ADDRESS 0x5002 ===
  0x5002	int3   	
  0x5003	int3   	
  0x5004	int3   	
  0x5005	int3   	
  0x5006	int3   	
  === BLOCK LINK ===
    0x5007
=== CODE BLOCK END ===

=== CODE BLOCK ADDRESS 0x5007 ===
  0x5007	int3   	
  0x5008	dec    	eax
  0x5009	mov    	dword ptr [esp + 8], ebx
  0x500d	dec    	eax
  0x500e	mov    	dword ptr [esp + 0x10], edi
  === BLOCK LINK ===
    0x5012
=== CODE BLOCK END ===

=== CODE BLOCK ADDRESS 0x5012 ===
  0x5012	inc    	ecx
  0x5013	push   	esi
  0x5014	dec    	eax
  0x5015	sub    	esp, 0xb0
  0x501b	and    	dword ptr [esp + 0x20], 0
  === BLOCK LINK ===
    0x5020
=== CODE BLOCK END ===

=== CODE BLOCK ADDRESS 0x5020 ===
  0x5020	dec    	eax
  0x5021	lea    	ecx, [esp + 0x40]
  0x5025	call   	dword ptr [0x12c5]
  === BLOCK LINK ===
    0x502b
=== CODE BLOCK END ===

=== CODE BLOCK ADDRESS 0x502b ===
  0x502b	nop    	
  0x502c	dec    	eax
  0x502e	mov    	eax, dword ptr [0x30]
  0x5035	dec    	eax
  0x5036	mov    	ebx, dword ptr [eax + 8]
  === BLOCK LINK ===
    0x5039
=== CODE BLOCK END ===

=== CODE BLOCK ADDRESS 0x5039 ===
  0x5039	xor    	edi, edi
  0x503b	xor    	eax, eax
  0x503d	.byte  	0xf0
  0x503e	dec    	eax
  0x503f	cmpxchg  	dword ptr [0x491a], ebx
  === BLOCK LINK ===
    0x5046
=== CODE BLOCK END ===

=== CODE BLOCK ADDRESS 0x5046 ===
  0x5046	je     	0x5052
  === BLOCK LINK ===
    0x5048
=== CODE BLOCK END ===

=== CODE BLOCK ADDRESS 0x5048 ===
  0x5048	dec    	eax
  0x5049	cmp    	eax, ebx
  0x504b	jne    	0x5067
  === BLOCK LINK ===
    0x504d
=== CODE BLOCK END ===

=== CODE BLOCK ADDRESS 0x504d ===
  0x504d	mov    	edi, 1
  0x5052	mov    	eax, dword ptr [0x4910]
  0x5058	cmp    	eax, 1
  0x505b	jne    	0x5074
  === BLOCK LINK ===
    0x505d
=== CODE BLOCK END ===

=== CODE BLOCK ADDRESS 0x505d ===
  0x505d	lea    	ecx, [eax + 0x1e]
  0x5060	call   	0x5403
  === BLOCK LINK ===
    0x5065
=== CODE BLOCK END ===

=== CODE BLOCK ADDRESS 0x5065 ===
  0x5065	jmp    	0x50e1
  === BLOCK LINK ===
    0x5067
=== CODE BLOCK END ===

=== CODE BLOCK ADDRESS 0x5067 ===
  0x5067	mov    	ecx, 0x3e8
  0x506c	call   	dword ptr [0x131e]
  === BLOCK LINK ===
    0x5072
=== CODE BLOCK END ===

=== CODE BLOCK ADDRESS 0x5072 ===
  0x5072	jmp    	0x503b
  === BLOCK LINK ===
    0x5074
=== CODE BLOCK END ===

=== CODE BLOCK ADDRESS 0x5074 ===
  0x5074	mov    	eax, dword ptr [0x48ee]
  0x507a	test   	eax, eax
  0x507c	jne    	0x50d7
  === BLOCK LINK ===
    0x507e
=== CODE BLOCK END ===

=== CODE BLOCK ADDRESS 0x507e ===
  0x507e	mov    	dword ptr [0x48e0], 1
  0x5088	dec    	esp
  0x5089	lea    	esi, [0x1551]
  0x508f	dec    	eax
  0x5090	lea    	ebx, [0x1532]
  === BLOCK LINK ===
    0x5096
=== CODE BLOCK END ===

=== CODE BLOCK ADDRESS 0x5096 ===
  0x5096	dec    	eax
  0x5097	mov    	dword ptr [esp + 0x30], ebx
  0x509b	mov    	dword ptr [esp + 0x24], eax
  0x509f	dec    	ecx
  0x50a0	cmp    	ebx, esi
  === BLOCK LINK ===
    0x50a2
=== CODE BLOCK END ===

=== CODE BLOCK ADDRESS 0x50a2 ===
  0x50a2	jae    	0x50c9
  === BLOCK LINK ===
    0x50a4
=== CODE BLOCK END ===

=== CODE BLOCK ADDRESS 0x50a4 ===
  0x50a4	test   	eax, eax
  0x50a6	jne    	0x50cd
  === BLOCK LINK ===
    0x50a8
=== CODE BLOCK END ===

=== CODE BLOCK ADDRESS 0x50a8 ===
  0x50a8	dec    	eax
  0x50a9	cmp    	dword ptr [ebx], 0
  0x50ac	je     	0x50be
  === BLOCK LINK ===
    0x50ae
=== CODE BLOCK END ===

=== CODE BLOCK ADDRESS 0x50ae ===
  0x50ae	dec    	eax
  0x50af	mov    	eax, dword ptr [ebx]
  0x50b1	dec    	eax
  0x50b2	mov    	ecx, dword ptr [0x14c8]
  0x50b8	call   	ecx
  === BLOCK LINK ===
    0x50ba
=== CODE BLOCK END ===

=== CODE BLOCK ADDRESS 0x50ba ===
  0x50ba	mov    	dword ptr [esp + 0x24], eax
  0x50be	dec    	eax
  0x50bf	add    	ebx, 8
  0x50c2	dec    	eax
  0x50c3	mov    	dword ptr [esp + 0x30], ebx
  === BLOCK LINK ===
    0x50c7
=== CODE BLOCK END ===

=== CODE BLOCK ADDRESS 0x50c7 ===
  0x50c7	jmp    	0x509f
  === BLOCK LINK ===
    0x50c9
=== CODE BLOCK END ===

=== CODE BLOCK ADDRESS 0x50c9 ===
  0x50c9	test   	eax, eax
  0x50cb	je     	0x50e1
  === BLOCK LINK ===
    0x50cd
=== CODE BLOCK END ===

=== CODE BLOCK ADDRESS 0x50cd ===
  0x50cd	mov    	eax, 0xff
  0x50d2	jmp    	0x5234
  === BLOCK LINK ===
    0x50d7
=== CODE BLOCK END ===

=== CODE BLOCK ADDRESS 0x50d7 ===
  0x50d7	mov    	dword ptr [0x4123], 1
  0x50e1	mov    	eax, dword ptr [0x4881]
  0x50e7	cmp    	eax, 1
  0x50ea	jne    	0x5109
  === BLOCK LINK ===
    0x50ec
=== CODE BLOCK END ===

=== CODE BLOCK ADDRESS 0x50ec ===
  0x50ec	dec    	eax
  0x50ed	lea    	edx, [0x14cd]
  0x50f3	dec    	eax
  0x50f4	lea    	ecx, [0x148e]
  0x50fa	call   	0x55de
  === BLOCK LINK ===
    0x50ff
=== CODE BLOCK END ===

=== CODE BLOCK ADDRESS 0x50ff ===
  0x50ff	mov    	dword ptr [0x485f], 2
  0x5109	test   	edi, edi
  0x510b	jne    	0x5116
  === BLOCK LINK ===
    0x510d
=== CODE BLOCK END ===

=== CODE BLOCK ADDRESS 0x510d ===
  0x510d	xor    	eax, eax
  0x510f	dec    	eax
  0x5110	xchg   	dword ptr [0x484a], eax
  0x5116	dec    	eax
  0x5117	cmp    	dword ptr [0x4852], 0
  === BLOCK LINK ===
    0x511e
=== CODE BLOCK END ===

=== CODE BLOCK ADDRESS 0x511e ===
  0x511e	je     	0x514a
  === BLOCK LINK ===
    0x5120
=== CODE BLOCK END ===

=== CODE BLOCK ADDRESS 0x5120 ===
  0x5120	dec    	eax
  0x5121	lea    	ecx, [0x4849]
  0x5127	call   	0x5470
  === BLOCK LINK ===
    0x512c
=== CODE BLOCK END ===

=== CODE BLOCK ADDRESS 0x512c ===
  0x512c	test   	eax, eax
  0x512e	je     	0x514a
  === BLOCK LINK ===
    0x5130
=== CODE BLOCK END ===

=== CODE BLOCK ADDRESS 0x5130 ===
  0x5130	inc    	ebp
  0x5131	xor    	eax, eax
  0x5133	inc    	ecx
  0x5134	lea    	edx, [eax + 2]
  0x5137	xor    	ecx, ecx
  === BLOCK LINK ===
    0x5139
=== CODE BLOCK END ===

=== CODE BLOCK ADDRESS 0x5139 ===
  0x5139	dec    	eax
  0x513a	mov    	eax, dword ptr [0x4830]
  0x5140	dec    	esp
  0x5141	mov    	ecx, dword ptr [0x1439]
  0x5147	inc    	ecx
  === BLOCK LINK ===
    0x5148
=== CODE BLOCK END ===

=== CODE BLOCK ADDRESS 0x5148 ===
  0x5148	call   	ecx
  === BLOCK LINK ===
    0x514a
=== CODE BLOCK END ===

=== CODE BLOCK ADDRESS 0x514a ===
  0x514a	dec    	eax
  0x514b	mov    	eax, dword ptr [0x138f]
  0x5151	dec    	eax
  0x5152	mov    	ebx, dword ptr [eax]
  0x5154	dec    	eax
  === BLOCK LINK ===
    0x5155
=== CODE BLOCK END ===

=== CODE BLOCK ADDRESS 0x5155 ===
  0x5155	mov    	dword ptr [esp + 0x28], ebx
  0x5159	mov    	edi, dword ptr [esp + 0x20]
  0x515d	movzx  	ecx, byte ptr [ebx]
  0x5160	cmp    	cl, 0x20
  0x5163	ja     	0x51d6
  === BLOCK LINK ===
    0x5165
=== CODE BLOCK END ===

=== CODE BLOCK ADDRESS 0x5165 ===
  0x5165	test   	cl, cl
  0x5167	je     	0x516d
  === BLOCK LINK ===
    0x5169
=== CODE BLOCK END ===

=== CODE BLOCK ADDRESS 0x5169 ===
  0x5169	test   	edi, edi
  0x516b	jne    	0x51d6
  === BLOCK LINK ===
    0x516d
=== CODE BLOCK END ===

=== CODE BLOCK ADDRESS 0x516d ===
  0x516d	dec    	cl
  0x516f	cmp    	cl, 0x1f
  0x5172	ja     	0x5180
  === BLOCK LINK ===
    0x5174
=== CODE BLOCK END ===

=== CODE BLOCK ADDRESS 0x5174 ===
  0x5174	dec    	eax
  0x5175	inc    	ebx
  0x5177	dec    	eax
  0x5178	mov    	dword ptr [esp + 0x28], ebx
  0x517c	mov    	cl, byte ptr [ebx]
  === BLOCK LINK ===
    0x517e
=== CODE BLOCK END ===

=== CODE BLOCK ADDRESS 0x517e ===
  0x517e	jmp    	0x516d
  === BLOCK LINK ===
    0x5180
=== CODE BLOCK END ===

=== CODE BLOCK ADDRESS 0x5180 ===
  0x5180	test   	byte ptr [esp + 0x7c], 1
  0x5185	movzx  	eax, word ptr [esp + 0x80]
  0x518d	inc    	ecx
  0x518e	mov    	ecx, 0xa
  0x5193	inc    	esp
  === BLOCK LINK ===
    0x5194
=== CODE BLOCK END ===

=== CODE BLOCK ADDRESS 0x5194 ===
  0x5194	cmovne  	ecx, eax
  0x5197	dec    	esp
  0x5198	mov    	eax, ebx
  0x519a	xor    	edx, edx
  0x519c	dec    	eax
  === BLOCK LINK ===
    0x519d
=== CODE BLOCK END ===

=== CODE BLOCK ADDRESS 0x519d ===
  0x519d	lea    	ecx, [0xffffae5d]
  0x51a3	call   	0x15a4
  === BLOCK LINK ===
    0x51a8
=== CODE BLOCK END ===

=== CODE BLOCK ADDRESS 0x51a8 ===
  0x51a8	mov    	dword ptr [0x4052], eax
  0x51ae	cmp    	dword ptr [0x406b], 0
  0x51b5	jne    	0x51bf
  === BLOCK LINK ===
    0x51b7
=== CODE BLOCK END ===

=== CODE BLOCK ADDRESS 0x51b7 ===
  0x51b7	mov    	ecx, eax
  0x51b9	call   	dword ptr [0x1361]
  === BLOCK LINK ===
    0x51bf
=== CODE BLOCK END ===

=== CODE BLOCK ADDRESS 0x51bf ===
  0x51bf	cmp    	dword ptr [0x403e], 0
  0x51c6	jne    	0x51d4
  === BLOCK LINK ===
    0x51c8
=== CODE BLOCK END ===

=== CODE BLOCK ADDRESS 0x51c8 ===
  0x51c8	call   	dword ptr [0x1342]
  === BLOCK LINK ===
    0x51ce
=== CODE BLOCK END ===

=== CODE BLOCK ADDRESS 0x51ce ===
  0x51ce	mov    	eax, dword ptr [0x402c]
  0x51d4	jmp    	0x5234
  === BLOCK LINK ===
    0x51d6
=== CODE BLOCK END ===

=== CODE BLOCK ADDRESS 0x51d6 ===
  0x51d6	cmp    	cl, 0x22
  0x51d9	jne    	0x51e8
  === BLOCK LINK ===
    0x51db
=== CODE BLOCK END ===

=== CODE BLOCK ADDRESS 0x51db ===
  0x51db	xor    	eax, eax
  0x51dd	test   	edi, edi
  0x51df	sete   	al
  0x51e2	mov    	edi, eax
  0x51e4	mov    	dword ptr [esp + 0x20], eax
  === BLOCK LINK ===
    0x51e8
=== CODE BLOCK END ===

=== CODE BLOCK ADDRESS 0x51e8 ===
  0x51e8	call   	dword ptr [0x131a]
  === BLOCK LINK ===
    0x51ee
=== CODE BLOCK END ===

=== CODE BLOCK ADDRESS 0x51ee ===
  0x51ee	test   	eax, eax
  0x51f0	je     	0x51fa
  === BLOCK LINK ===
    0x51f2
=== CODE BLOCK END ===

=== CODE BLOCK ADDRESS 0x51f2 ===
  0x51f2	dec    	eax
  0x51f3	inc    	ebx
  0x51f5	dec    	eax
  0x51f6	mov    	dword ptr [esp + 0x28], ebx
  0x51fa	dec    	eax
  === BLOCK LINK ===
    0x51fb
=== CODE BLOCK END ===

=== CODE BLOCK ADDRESS 0x51fb ===
  0x51fb	inc    	ebx
  0x51fd	dec    	eax
  0x51fe	mov    	dword ptr [esp + 0x28], ebx
  0x5202	jmp    	0x515d
  === BLOCK LINK ===
    0x5207
=== CODE BLOCK END ===

=== CODE BLOCK ADDRESS 0x5207 ===
  0x5207	mov    	dword ptr [0x3ff3], eax
  0x520d	cmp    	dword ptr [0x400c], 0
  0x5214	jne    	0x521f
  === BLOCK LINK ===
    0x5216
=== CODE BLOCK END ===

=== CODE BLOCK ADDRESS 0x5216 ===
  0x5216	mov    	ecx, eax
  0x5218	call   	dword ptr [0x12fa]
  === BLOCK LINK ===
    0x521e
=== CODE BLOCK END ===

=== CODE BLOCK ADDRESS 0x521e ===
  0x521e	int3   	
  0x521f	cmp    	dword ptr [0x3fde], 0
  0x5226	jne    	0x5234
  === BLOCK LINK ===
    0x5228
=== CODE BLOCK END ===

=== CODE BLOCK ADDRESS 0x5228 ===
  0x5228	call   	dword ptr [0x12e2]
  === BLOCK LINK ===
    0x522e
=== CODE BLOCK END ===

=== CODE BLOCK ADDRESS 0x522e ===
  0x522e	mov    	eax, dword ptr [0x3fcc]
  0x5234	dec    	esp
  0x5235	lea    	ebx, [esp + 0xb0]
  0x523c	dec    	ecx
  0x523d	mov    	ebx, dword ptr [ebx + 0x10]
  === BLOCK LINK ===
    0x5240
=== CODE BLOCK END ===

=== CODE BLOCK ADDRESS 0x5240 ===
  0x5240	dec    	ecx
  0x5241	mov    	edi, dword ptr [ebx + 0x18]
  0x5244	dec    	ecx
  0x5245	mov    	esp, ebx
  0x5247	inc    	ecx
  === BLOCK LINK ===
    0x5248
=== CODE BLOCK END ===

=== CODE BLOCK ADDRESS 0x5248 ===
  0x5248	pop    	esi
  0x5249	ret    	
  0x524a	int3   	
  0x524b	int3   	
  0x524c	int3   	
  === BLOCK LINK ===
    0x524d
=== CODE BLOCK END ===

=== CODE BLOCK ADDRESS 0x19d2 ===
  0x19d2	mov    	dword ptr [esp + 0x78], 2
  0x19da	cmp    	dword ptr [0x761f], 5
  0x19e1	jbe    	0x1a4f
  === BLOCK LINK ===
    0x19e3
=== CODE BLOCK END ===

=== CODE BLOCK ADDRESS 0x524d ===
  0x524d	int3   	
  0x524e	int3   	
  0x524f	int3   	
  0x5250	jmp    	dword ptr [0x12fa]
  === BLOCK LINK ===
    0x5256
=== CODE BLOCK END ===

=== CODE BLOCK ADDRESS 0x5256 ===
  0x5256	int3   	
  0x5257	int3   	
  0x5258	int3   	
  0x5259	int3   	
  0x525a	int3   	
  === BLOCK LINK ===
    0x525b
=== CODE BLOCK END ===

=== CODE BLOCK ADDRESS 0x525b ===
  0x525b	int3   	
  0x525c	jmp    	dword ptr [0x12e6]
  === BLOCK LINK ===
    0x5262
=== CODE BLOCK END ===

=== CODE BLOCK ADDRESS 0x5262 ===
  0x5262	int3   	
  0x5263	int3   	
  0x5264	int3   	
  0x5265	int3   	
  0x5266	int3   	
  === BLOCK LINK ===
    0x5267
=== CODE BLOCK END ===

=== CODE BLOCK ADDRESS 0x5267 ===
  0x5267	int3   	
  0x5268	int3   	
  0x5269	int3   	
  0x526a	int3   	
  0x526b	int3   	
  === BLOCK LINK ===
    0x526c
=== CODE BLOCK END ===

=== CODE BLOCK ADDRESS 0x526c ===
  0x526c	int3   	
  0x526d	int3   	
  0x526e	int3   	
  0x526f	int3   	
  0x5270	int3   	
  === BLOCK LINK ===
    0x5271
=== CODE BLOCK END ===

=== CODE BLOCK ADDRESS 0x5271 ===
  0x5271	int3   	
  0x5272	int3   	
  0x5273	int3   	
  0x5274	int3   	
  0x5275	int3   	
  === BLOCK LINK ===
    0x5276
=== CODE BLOCK END ===

=== CODE BLOCK ADDRESS 0x5276 ===
  0x5276	nop    	word ptr [eax + eax]
  0x5280	dec    	eax
  0x5281	cmp    	ecx, dword ptr [0x3f21]
  0x5287	jne    	0x5299
  === BLOCK LINK ===
    0x5289
=== CODE BLOCK END ===

=== CODE BLOCK ADDRESS 0x5289 ===
  0x5289	dec    	eax
  0x528a	rol    	ecx, 0x10
  0x528d	test   	cx, 0xffff
  0x5292	jne    	0x5295
  === BLOCK LINK ===
    0x5294
=== CODE BLOCK END ===

=== CODE BLOCK ADDRESS 0x5294 ===
  0x5294	ret    	
  0x5295	dec    	eax
  0x5296	ror    	ecx, 0x10
  0x5299	jmp    	0x5700
  === BLOCK LINK ===
    0x529e
=== CODE BLOCK END ===

=== CODE BLOCK ADDRESS 0x529e ===
  0x529e	int3   	
  0x529f	int3   	
  0x52a0	int3   	
  0x52a1	int3   	
  0x52a2	int3   	
  === BLOCK LINK ===
    0x52a3
=== CODE BLOCK END ===

=== CODE BLOCK ADDRESS 0x52a3 ===
  0x52a3	int3   	
  0x52a4	int3   	
  0x52a5	int3   	
  0x52a6	int3   	
  0x52a7	int3   	
  === BLOCK LINK ===
    0x52a8
=== CODE BLOCK END ===

=== CODE BLOCK ADDRESS 0x52a8 ===
  0x52a8	int3   	
  0x52a9	int3   	
  0x52aa	int3   	
  0x52ab	int3   	
  0x52ac	int3   	
  === BLOCK LINK ===
    0x52ad
=== CODE BLOCK END ===

=== CODE BLOCK ADDRESS 0x52ad ===
  0x52ad	int3   	
  0x52ae	int3   	
  0x52af	int3   	
  0x52b0	dec    	eax
  0x52b1	mov    	dword ptr [esp + 8], ebx
  === BLOCK LINK ===
    0x52b5
=== CODE BLOCK END ===

=== CODE BLOCK ADDRESS 0x52b5 ===
  0x52b5	push   	edi
  0x52b6	dec    	eax
  0x52b7	sub    	esp, 0x20
  0x52ba	mov    	ebx, edx
  0x52bc	dec    	eax
  === BLOCK LINK ===
    0x52bd
=== CODE BLOCK END ===

=== CODE BLOCK ADDRESS 0x52bd ===
  0x52bd	mov    	edi, ecx
  0x52bf	call   	dword ptr [0x11fb]
  === BLOCK LINK ===
    0x52c5
=== CODE BLOCK END ===

=== CODE BLOCK ADDRESS 0x52c5 ===
  0x52c5	test   	bl, 1
  0x52c8	je     	0x52d2
  === BLOCK LINK ===
    0x52ca
=== CODE BLOCK END ===

=== CODE BLOCK ADDRESS 0x52ca ===
  0x52ca	dec    	eax
  0x52cb	mov    	ecx, edi
  0x52cd	call   	0x5250
  === BLOCK LINK ===
    0x52d2
=== CODE BLOCK END ===

=== CODE BLOCK ADDRESS 0x52d2 ===
  0x52d2	dec    	eax
  0x52d3	mov    	ebx, dword ptr [esp + 0x30]
  0x52d7	dec    	eax
  0x52d8	mov    	eax, edi
  0x52da	dec    	eax
  === BLOCK LINK ===
    0x52db
=== CODE BLOCK END ===

=== CODE BLOCK ADDRESS 0x52db ===
  0x52db	add    	esp, 0x20
  0x52de	pop    	edi
  0x52df	ret    	
  0x52e0	int3   	
  0x52e1	int3   	
  === BLOCK LINK ===
    0x52e2
=== CODE BLOCK END ===

=== CODE BLOCK ADDRESS 0x52e2 ===
  0x52e2	int3   	
  0x52e3	int3   	
  0x52e4	int3   	
  0x52e5	int3   	
  0x52e6	int3   	
  === BLOCK LINK ===
    0x52e7
=== CODE BLOCK END ===

=== CODE BLOCK ADDRESS 0x52e7 ===
  0x52e7	int3   	
  0x52e8	int3   	
  0x52e9	int3   	
  0x52ea	int3   	
  0x52eb	int3   	
  === BLOCK LINK ===
    0x52ec
=== CODE BLOCK END ===

=== CODE BLOCK ADDRESS 0x52ec ===
  0x52ec	int3   	
  0x52ed	int3   	
  0x52ee	int3   	
  0x52ef	int3   	
  0x52f0	dec    	eax
  === BLOCK LINK ===
    0x52f1
=== CODE BLOCK END ===

=== CODE BLOCK ADDRESS 0x52f1 ===
  0x52f1	sub    	esp, 0x28
  0x52f4	dec    	eax
  0x52f5	mov    	eax, dword ptr [ecx]
  0x52f7	cmp    	dword ptr [eax], 0xe06d7363
  0x52fd	jne    	0x5322
  === BLOCK LINK ===
    0x52ff
=== CODE BLOCK END ===

=== CODE BLOCK ADDRESS 0x52ff ===
  0x52ff	cmp    	dword ptr [eax + 0x18], 4
  0x5303	jne    	0x5322
  === BLOCK LINK ===
    0x5305
=== CODE BLOCK END ===

=== CODE BLOCK ADDRESS 0x5305 ===
  0x5305	mov    	ecx, dword ptr [eax + 0x20]
  0x5308	lea    	eax, [ecx - 0x19930520]
  0x530e	cmp    	eax, 2
  0x5311	jbe    	0x531b
  === BLOCK LINK ===
    0x5313
=== CODE BLOCK END ===

=== CODE BLOCK ADDRESS 0x5313 ===
  0x5313	cmp    	ecx, 0x1994000
  0x5319	jne    	0x5322
  === BLOCK LINK ===
    0x531b
=== CODE BLOCK END ===

=== CODE BLOCK ADDRESS 0x531b ===
  0x531b	call   	dword ptr [0x11a7]
  === BLOCK LINK ===
    0x5321
=== CODE BLOCK END ===

=== CODE BLOCK ADDRESS 0x5321 ===
  0x5321	int3   	
  0x5322	xor    	eax, eax
  0x5324	dec    	eax
  0x5325	add    	esp, 0x28
  0x5328	ret    	
  === BLOCK LINK ===
    0x5329
=== CODE BLOCK END ===

=== CODE BLOCK ADDRESS 0x5329 ===
  0x5329	int3   	
  0x532a	int3   	
  0x532b	int3   	
  0x532c	int3   	
  0x532d	int3   	
  === BLOCK LINK ===
    0x532e
=== CODE BLOCK END ===

=== CODE BLOCK ADDRESS 0x532e ===
  0x532e	int3   	
  0x532f	int3   	
  0x5330	dec    	eax
  0x5331	sub    	esp, 0x28
  0x5334	dec    	eax
  === BLOCK LINK ===
    0x5335
=== CODE BLOCK END ===

=== CODE BLOCK ADDRESS 0x5335 ===
  0x5335	lea    	ecx, [0xffffffb5]
  0x533b	call   	dword ptr [0xec7]
  === BLOCK LINK ===
    0x5341
=== CODE BLOCK END ===

=== CODE BLOCK ADDRESS 0x5341 ===
  0x5341	xor    	eax, eax
  0x5343	dec    	eax
  0x5344	add    	esp, 0x28
  0x5347	ret    	
  0x5348	int3   	
  === BLOCK LINK ===
    0x5349
=== CODE BLOCK END ===

=== CODE BLOCK ADDRESS 0x5349 ===
  0x5349	int3   	
  0x534a	int3   	
  0x534b	int3   	
  0x534c	int3   	
  0x534d	int3   	
  === BLOCK LINK ===
    0x534e
=== CODE BLOCK END ===

=== CODE BLOCK ADDRESS 0x534e ===
  0x534e	jmp    	dword ptr [0x11ec]
  === BLOCK LINK ===
    0x5354
=== CODE BLOCK END ===

=== CODE BLOCK ADDRESS 0x5354 ===
  0x5354	int3   	
  0x5355	int3   	
  0x5356	int3   	
  0x5357	int3   	
  0x5358	int3   	
  === BLOCK LINK ===
    0x5359
=== CODE BLOCK END ===

=== CODE BLOCK ADDRESS 0x5359 ===
  0x5359	int3   	
  0x535a	int3   	
  0x535b	int3   	
  0x535c	dec    	eax
  0x535d	sub    	esp, 0x18
  === BLOCK LINK ===
    0x5360
=== CODE BLOCK END ===

=== CODE BLOCK ADDRESS 0x5360 ===
  0x5360	xor    	edx, edx
  0x5362	dec    	eax
  0x5363	lea    	eax, [ecx - 1]
  0x5366	dec    	eax
  0x5367	cmp    	eax, -3
  === BLOCK LINK ===
    0x536a
=== CODE BLOCK END ===

=== CODE BLOCK ADDRESS 0x536a ===
  0x536a	ja     	0x53a8
  === BLOCK LINK ===
    0x536c
=== CODE BLOCK END ===

=== CODE BLOCK ADDRESS 0x536c ===
  0x536c	mov    	eax, 0x5a4d
  0x5371	cmp    	word ptr [ecx], ax
  0x5374	jne    	0x53a0
  === BLOCK LINK ===
    0x5376
=== CODE BLOCK END ===

=== CODE BLOCK ADDRESS 0x5376 ===
  0x5376	cmp    	dword ptr [ecx + 0x3c], edx
  0x5379	jl     	0x53a0
  === BLOCK LINK ===
    0x537b
=== CODE BLOCK END ===

=== CODE BLOCK ADDRESS 0x537b ===
  0x537b	cmp    	dword ptr [ecx + 0x3c], 0x10000000
  0x5382	jae    	0x53a0
  === BLOCK LINK ===
    0x5384
=== CODE BLOCK END ===

=== CODE BLOCK ADDRESS 0x5384 ===
  0x5384	dec    	eax
  0x5385	arpl   	word ptr [ecx + 0x3c], ax
  0x5388	dec    	eax
  0x5389	add    	eax, ecx
  0x538b	dec    	eax
  === BLOCK LINK ===
    0x538c
=== CODE BLOCK END ===

=== CODE BLOCK ADDRESS 0x538c ===
  0x538c	mov    	dword ptr [esp], eax
  0x538f	cmp    	dword ptr [eax], 0x4550
  0x5395	dec    	eax
  0x5396	cmovne  	eax, edx
  0x5399	dec    	eax
  === BLOCK LINK ===
    0x539a
=== CODE BLOCK END ===

=== CODE BLOCK ADDRESS 0x539a ===
  0x539a	mov    	edx, eax
  0x539c	dec    	eax
  0x539d	mov    	dword ptr [esp], eax
  0x53a0	jmp    	0x53a8
  === BLOCK LINK ===
    0x53a2
=== CODE BLOCK END ===

=== CODE BLOCK ADDRESS 0x53a2 ===
  0x53a2	xor    	edx, edx
  0x53a4	dec    	eax
  0x53a5	mov    	dword ptr [esp], edx
  0x53a8	dec    	eax
  0x53a9	mov    	eax, edx
  === BLOCK LINK ===
    0x53ab
=== CODE BLOCK END ===

=== CODE BLOCK ADDRESS 0x53ab ===
  0x53ab	dec    	eax
  0x53ac	add    	esp, 0x18
  0x53af	ret    	
  0x53b0	int3   	
  0x53b1	int3   	
  === BLOCK LINK ===
    0x53b2
=== CODE BLOCK END ===

=== CODE BLOCK ADDRESS 0x1a80 ===
  0x1a80	cmp    	dword ptr [esp + 0x78], 1
  0x1a85	jne    	0x1ac3
  === BLOCK LINK ===
    0x1a87
=== CODE BLOCK END ===

=== CODE BLOCK ADDRESS 0x53b2 ===
  0x53b2	int3   	
  0x53b3	int3   	
  0x53b4	int3   	
  0x53b5	int3   	
  0x53b6	int3   	
  === BLOCK LINK ===
    0x53b7
=== CODE BLOCK END ===

=== CODE BLOCK ADDRESS 0x53b7 ===
  0x53b7	int3   	
  0x53b8	inc    	eax
  0x53b9	push   	ebx
  0x53ba	dec    	eax
  0x53bb	sub    	esp, 0x20
  === BLOCK LINK ===
    0x53be
=== CODE BLOCK END ===

=== CODE BLOCK ADDRESS 0x53be ===
  0x53be	mov    	ebx, ecx
  0x53c0	xor    	ecx, ecx
  0x53c2	call   	dword ptr [0xed8]
  === BLOCK LINK ===
    0x53c8
=== CODE BLOCK END ===

=== CODE BLOCK ADDRESS 0x53c8 ===
  0x53c8	dec    	eax
  0x53c9	test   	eax, eax
  0x53cb	je     	0x53f5
  === BLOCK LINK ===
    0x53cd
=== CODE BLOCK END ===

=== CODE BLOCK ADDRESS 0x53cd ===
  0x53cd	dec    	eax
  0x53ce	mov    	ecx, eax
  0x53d0	call   	0x535c
  === BLOCK LINK ===
    0x53d5
=== CODE BLOCK END ===

=== CODE BLOCK ADDRESS 0x53d5 ===
  0x53d5	dec    	eax
  0x53d6	test   	eax, eax
  0x53d8	je     	0x53f5
  === BLOCK LINK ===
    0x53da
=== CODE BLOCK END ===

=== CODE BLOCK ADDRESS 0x53da ===
  0x53da	mov    	ecx, 2
  0x53df	cmp    	word ptr [eax + 0x5c], cx
  0x53e3	jne    	0x53e9
  === BLOCK LINK ===
    0x53e5
=== CODE BLOCK END ===

=== CODE BLOCK ADDRESS 0x53e5 ===
  0x53e5	mov    	eax, ecx
  0x53e7	jmp    	0x53f7
  === BLOCK LINK ===
    0x53e9
=== CODE BLOCK END ===

=== CODE BLOCK ADDRESS 0x53e9 ===
  0x53e9	cmp    	word ptr [eax + 0x5c], 3
  0x53ee	mov    	eax, 1
  0x53f3	je     	0x53f7
  === BLOCK LINK ===
    0x53f5
=== CODE BLOCK END ===

=== CODE BLOCK ADDRESS 0x53f5 ===
  0x53f5	mov    	eax, ebx
  0x53f7	dec    	eax
  0x53f8	add    	esp, 0x20
  0x53fb	pop    	ebx
  0x53fc	ret    	
  === BLOCK LINK ===
    0x53fd
=== CODE BLOCK END ===

=== CODE BLOCK ADDRESS 0x53fd ===
  0x53fd	int3   	
  0x53fe	int3   	
  0x53ff	int3   	
  0x5400	int3   	
  0x5401	int3   	
  === BLOCK LINK ===
    0x5402
=== CODE BLOCK END ===

=== CODE BLOCK ADDRESS 0x5402 ===
  0x5402	int3   	
  0x5403	jmp    	dword ptr [0x112f]
  === BLOCK LINK ===
    0x5409
=== CODE BLOCK END ===

=== CODE BLOCK ADDRESS 0x5409 ===
  0x5409	int3   	
  0x540a	int3   	
  0x540b	int3   	
  0x540c	int3   	
  0x540d	int3   	
  === BLOCK LINK ===
    0x540e
=== CODE BLOCK END ===

=== CODE BLOCK ADDRESS 0x540e ===
  0x540e	int3   	
  0x540f	int3   	
  0x5410	xor    	eax, eax
  0x5412	ret    	
  0x5413	int3   	
  === BLOCK LINK ===
    0x5414
=== CODE BLOCK END ===

=== CODE BLOCK ADDRESS 0x1aa7 ===
  0x1aa7	mov    	dword ptr [esp + 0x78], 2
  0x1aaf	dec    	eax
  0x1ab0	lea    	edx, [esp + 0x80]
  0x1ab7	dec    	eax
  === BLOCK LINK ===
    0x1ab8
=== CODE BLOCK END ===

=== CODE BLOCK ADDRESS 0x5414 ===
  0x5414	int3   	
  0x5415	int3   	
  0x5416	int3   	
  0x5417	int3   	
  0x5418	int3   	
  === BLOCK LINK ===
    0x5419
=== CODE BLOCK END ===

=== CODE BLOCK ADDRESS 0x5419 ===
  0x5419	int3   	
  0x541a	int3   	
  0x541b	int3   	
  0x541c	int3   	
  0x541d	int3   	
  === BLOCK LINK ===
    0x541e
=== CODE BLOCK END ===

=== CODE BLOCK ADDRESS 0x541e ===
  0x541e	int3   	
  0x541f	int3   	
  0x5420	dec    	esp
  0x5421	arpl   	word ptr [ecx + 0x3c], ax
  0x5424	inc    	ebp
  === BLOCK LINK ===
    0x5425
=== CODE BLOCK END ===

=== CODE BLOCK ADDRESS 0x5425 ===
  0x5425	xor    	ecx, ecx
  0x5427	dec    	esp
  0x5428	add    	eax, ecx
  0x542a	dec    	esp
  0x542b	mov    	edx, edx
  === BLOCK LINK ===
    0x542d
=== CODE BLOCK END ===

=== CODE BLOCK ADDRESS 0x542d ===
  0x542d	inc    	ecx
  0x542e	movzx  	eax, word ptr [eax + 0x14]
  0x5432	inc    	ebp
  0x5433	movzx  	ebx, word ptr [eax + 6]
  0x5437	dec    	eax
  === BLOCK LINK ===
    0x5438
=== CODE BLOCK END ===

=== CODE BLOCK ADDRESS 0x5438 ===
  0x5438	add    	eax, 0x18
  0x543b	dec    	ecx
  0x543c	add    	eax, eax
  0x543e	inc    	ebp
  0x543f	test   	ebx, ebx
  === BLOCK LINK ===
    0x5441
=== CODE BLOCK END ===

=== CODE BLOCK ADDRESS 0x5441 ===
  0x5441	je     	0x5461
  === BLOCK LINK ===
    0x5443
=== CODE BLOCK END ===

=== CODE BLOCK ADDRESS 0x5443 ===
  0x5443	mov    	edx, dword ptr [eax + 0xc]
  0x5446	dec    	esp
  0x5447	cmp    	edx, edx
  0x5449	jb     	0x5455
  === BLOCK LINK ===
    0x544b
=== CODE BLOCK END ===

=== CODE BLOCK ADDRESS 0x544b ===
  0x544b	mov    	ecx, dword ptr [eax + 8]
  0x544e	add    	ecx, edx
  0x5450	dec    	esp
  0x5451	cmp    	edx, ecx
  0x5453	jb     	0x5463
  === BLOCK LINK ===
    0x5455
=== CODE BLOCK END ===

=== CODE BLOCK ADDRESS 0x5455 ===
  0x5455	inc    	ecx
  0x5456	inc    	ecx
  0x5458	dec    	eax
  0x5459	add    	eax, 0x28
  0x545c	inc    	ebp
  === BLOCK LINK ===
    0x545d
=== CODE BLOCK END ===

=== CODE BLOCK ADDRESS 0x545d ===
  0x545d	cmp    	ecx, ebx
  0x545f	jb     	0x5443
  === BLOCK LINK ===
    0x5461
=== CODE BLOCK END ===

=== CODE BLOCK ADDRESS 0x5461 ===
  0x5461	xor    	eax, eax
  0x5463	ret    	
  0x5464	int3   	
  0x5465	int3   	
  0x5466	int3   	
  === BLOCK LINK ===
    0x5467
=== CODE BLOCK END ===

=== CODE BLOCK ADDRESS 0x1afc ===
  0x1afc	dec    	eax
  0x1afd	sub    	esp, 0x68
  0x1b00	dec    	eax
  0x1b01	mov    	eax, dword ptr [0x76a1]
  === BLOCK LINK ===
    0x1b07
=== CODE BLOCK END ===

=== CODE BLOCK ADDRESS 0x5467 ===
  0x5467	int3   	
  0x5468	int3   	
  0x5469	int3   	
  0x546a	int3   	
  0x546b	int3   	
  === BLOCK LINK ===
    0x546c
=== CODE BLOCK END ===

=== CODE BLOCK ADDRESS 0x546c ===
  0x546c	int3   	
  0x546d	int3   	
  0x546e	int3   	
  0x546f	int3   	
  0x5470	dec    	eax
  === BLOCK LINK ===
    0x5471
=== CODE BLOCK END ===

=== CODE BLOCK ADDRESS 0x5471 ===
  0x5471	mov    	dword ptr [esp + 8], ebx
  0x5475	push   	edi
  0x5476	dec    	eax
  0x5477	sub    	esp, 0x20
  0x547a	dec    	eax
  === BLOCK LINK ===
    0x547b
=== CODE BLOCK END ===

=== CODE BLOCK ADDRESS 0x547b ===
  0x547b	mov    	ebx, ecx
  0x547d	dec    	eax
  0x547e	lea    	edi, [0xffffab7c]
  0x5484	dec    	eax
  0x5485	mov    	ecx, edi
  === BLOCK LINK ===
    0x5487
=== CODE BLOCK END ===

=== CODE BLOCK ADDRESS 0x5487 ===
  0x5487	call   	0x54d0
  === BLOCK LINK ===
    0x548c
=== CODE BLOCK END ===

=== CODE BLOCK ADDRESS 0x548c ===
  0x548c	test   	eax, eax
  0x548e	je     	0x54b2
  === BLOCK LINK ===
    0x5490
=== CODE BLOCK END ===

=== CODE BLOCK ADDRESS 0x5490 ===
  0x5490	dec    	eax
  0x5491	sub    	ebx, edi
  0x5493	dec    	eax
  0x5494	mov    	edx, ebx
  0x5496	dec    	eax
  === BLOCK LINK ===
    0x5497
=== CODE BLOCK END ===

=== CODE BLOCK ADDRESS 0x5497 ===
  0x5497	mov    	ecx, edi
  0x5499	call   	0x5420
  === BLOCK LINK ===
    0x549e
=== CODE BLOCK END ===

=== CODE BLOCK ADDRESS 0x549e ===
  0x549e	dec    	eax
  0x549f	test   	eax, eax
  0x54a1	je     	0x54b2
  === BLOCK LINK ===
    0x54a3
=== CODE BLOCK END ===

=== CODE BLOCK ADDRESS 0x54a3 ===
  0x54a3	mov    	eax, dword ptr [eax + 0x24]
  0x54a6	shr    	eax, 0x1f
  0x54a9	not    	eax
  0x54ab	and    	eax, 1
  0x54ae	jmp    	0x54b2
  === BLOCK LINK ===
    0x54b0
=== CODE BLOCK END ===

=== CODE BLOCK ADDRESS 0x54b0 ===
  0x54b0	xor    	eax, eax
  0x54b2	dec    	eax
  0x54b3	mov    	ebx, dword ptr [esp + 0x30]
  0x54b7	dec    	eax
  0x54b8	add    	esp, 0x20
  === BLOCK LINK ===
    0x54bb
=== CODE BLOCK END ===

=== CODE BLOCK ADDRESS 0x54bb ===
  0x54bb	pop    	edi
  0x54bc	ret    	
  0x54bd	int3   	
  0x54be	int3   	
  0x54bf	int3   	
  === BLOCK LINK ===
    0x54c0
=== CODE BLOCK END ===

=== CODE BLOCK ADDRESS 0x54c0 ===
  0x54c0	int3   	
  0x54c1	int3   	
  0x54c2	int3   	
  0x54c3	int3   	
  0x54c4	int3   	
  === BLOCK LINK ===
    0x54c5
=== CODE BLOCK END ===

=== CODE BLOCK ADDRESS 0x54c5 ===
  0x54c5	int3   	
  0x54c6	int3   	
  0x54c7	int3   	
  0x54c8	int3   	
  0x54c9	int3   	
  === BLOCK LINK ===
    0x54ca
=== CODE BLOCK END ===

=== CODE BLOCK ADDRESS 0x54ca ===
  0x54ca	int3   	
  0x54cb	int3   	
  0x54cc	int3   	
  0x54cd	int3   	
  0x54ce	int3   	
  === BLOCK LINK ===
    0x54cf
=== CODE BLOCK END ===

=== CODE BLOCK ADDRESS 0x54cf ===
  0x54cf	int3   	
  0x54d0	mov    	eax, 0x5a4d
  0x54d5	cmp    	word ptr [ecx], ax
  0x54d8	jne    	0x54fa
  === BLOCK LINK ===
    0x54da
=== CODE BLOCK END ===

=== CODE BLOCK ADDRESS 0x54da ===
  0x54da	dec    	eax
  0x54db	arpl   	word ptr [ecx + 0x3c], ax
  0x54de	dec    	eax
  0x54df	add    	eax, ecx
  0x54e1	cmp    	dword ptr [eax], 0x4550
  === BLOCK LINK ===
    0x54e7
=== CODE BLOCK END ===

=== CODE BLOCK ADDRESS 0x54e7 ===
  0x54e7	jne    	0x54fa
  === BLOCK LINK ===
    0x54e9
=== CODE BLOCK END ===

=== CODE BLOCK ADDRESS 0x54e9 ===
  0x54e9	mov    	ecx, 0x20b
  0x54ee	cmp    	word ptr [eax + 0x18], cx
  0x54f2	jne    	0x54fa
  === BLOCK LINK ===
    0x54f4
=== CODE BLOCK END ===

=== CODE BLOCK ADDRESS 0x54f4 ===
  0x54f4	mov    	eax, 1
  0x54f9	ret    	
  0x54fa	xor    	eax, eax
  0x54fc	ret    	
  0x54fd	int3   	
  === BLOCK LINK ===
    0x54fe
=== CODE BLOCK END ===

=== CODE BLOCK ADDRESS 0x54fe ===
  0x54fe	int3   	
  0x54ff	int3   	
  0x5500	int3   	
  0x5501	int3   	
  0x5502	int3   	
  === BLOCK LINK ===
    0x5503
=== CODE BLOCK END ===

=== CODE BLOCK ADDRESS 0x5503 ===
  0x5503	int3   	
  0x5504	dec    	eax
  0x5505	mov    	dword ptr [esp + 0x20], ebx
  0x5509	push   	ebp
  0x550a	dec    	eax
  === BLOCK LINK ===
    0x550b
=== CODE BLOCK END ===

=== CODE BLOCK ADDRESS 0x550b ===
  0x550b	mov    	ebp, esp
  0x550d	dec    	eax
  0x550e	sub    	esp, 0x20
  0x5511	dec    	eax
  0x5512	and    	dword ptr [ebp + 0x18], 0
  === BLOCK LINK ===
    0x5516
=== CODE BLOCK END ===

=== CODE BLOCK ADDRESS 0x5516 ===
  0x5516	dec    	eax
  0x5517	mov    	ebx, 0x2ddfa232
  0x551c	cdq    	
  0x551d	sub    	eax, dword ptr [eax]
  0x551f	add    	byte ptr [eax - 0x75], cl
  === BLOCK LINK ===
    0x5522
=== CODE BLOCK END ===

=== CODE BLOCK ADDRESS 0x5522 ===
  0x5522	add    	eax, 0x3c81
  0x5527	dec    	eax
  0x5528	cmp    	eax, ebx
  0x552a	jne    	0x55c3
  === BLOCK LINK ===
    0x5530
=== CODE BLOCK END ===

=== CODE BLOCK ADDRESS 0x5530 ===
  0x5530	dec    	eax
  0x5531	lea    	ecx, [ebp + 0x18]
  0x5534	call   	dword ptr [0xe6e]
  === BLOCK LINK ===
    0x553a
=== CODE BLOCK END ===

=== CODE BLOCK ADDRESS 0x553a ===
  0x553a	dec    	eax
  0x553b	mov    	eax, dword ptr [ebp + 0x18]
  0x553e	dec    	eax
  0x553f	mov    	dword ptr [ebp + 0x10], eax
  0x5542	call   	dword ptr [0xd98]
  === BLOCK LINK ===
    0x5548
=== CODE BLOCK END ===

=== CODE BLOCK ADDRESS 0x5548 ===
  0x5548	mov    	eax, eax
  0x554a	dec    	eax
  0x554b	xor    	dword ptr [ebp + 0x10], eax
  0x554e	call   	dword ptr [0xd84]
  === BLOCK LINK ===
    0x5554
=== CODE BLOCK END ===

=== CODE BLOCK ADDRESS 0x5554 ===
  0x5554	mov    	eax, eax
  0x5556	dec    	eax
  0x5557	xor    	dword ptr [ebp + 0x10], eax
  0x555a	call   	dword ptr [0xe50]
  === BLOCK LINK ===
    0x5560
=== CODE BLOCK END ===

=== CODE BLOCK ADDRESS 0x5560 ===
  0x5560	mov    	eax, eax
  0x5562	dec    	eax
  0x5563	shl    	eax, 0x18
  0x5566	dec    	eax
  0x5567	xor    	dword ptr [ebp + 0x10], eax
  === BLOCK LINK ===
    0x556a
=== CODE BLOCK END ===

=== CODE BLOCK ADDRESS 0x556a ===
  0x556a	call   	dword ptr [0xe40]
  === BLOCK LINK ===
    0x5570
=== CODE BLOCK END ===

=== CODE BLOCK ADDRESS 0x5570 ===
  0x5570	mov    	eax, eax
  0x5572	dec    	eax
  0x5573	lea    	ecx, [ebp + 0x10]
  0x5576	dec    	eax
  0x5577	xor    	eax, dword ptr [ebp + 0x10]
  === BLOCK LINK ===
    0x557a
=== CODE BLOCK END ===

=== CODE BLOCK ADDRESS 0x557a ===
  0x557a	dec    	eax
  0x557b	xor    	eax, ecx
  0x557d	dec    	eax
  0x557e	lea    	ecx, [ebp + 0x20]
  0x5581	dec    	eax
  === BLOCK LINK ===
    0x5582
=== CODE BLOCK END ===

=== CODE BLOCK ADDRESS 0x5582 ===
  0x5582	mov    	dword ptr [ebp + 0x10], eax
  0x5585	call   	dword ptr [0xd7d]
  === BLOCK LINK ===
    0x558b
=== CODE BLOCK END ===

=== CODE BLOCK ADDRESS 0x558b ===
  0x558b	mov    	eax, dword ptr [ebp + 0x20]
  0x558e	dec    	eax
  0x558f	mov    	ecx, 0xffffffff
  0x5594	.byte  	0xff
  0x5595	inc    	dword ptr [eax]
  === BLOCK LINK ===
    0x5597
=== CODE BLOCK END ===

=== CODE BLOCK ADDRESS 0x5597 ===
  0x5597	add    	byte ptr [eax - 0x3f], cl
  0x559a	loopne  	0x55bc
  === BLOCK LINK ===
    0x559c
=== CODE BLOCK END ===

=== CODE BLOCK ADDRESS 0x559c ===
  0x559c	dec    	eax
  0x559d	xor    	eax, dword ptr [ebp + 0x20]
  0x55a0	dec    	eax
  0x55a1	xor    	eax, dword ptr [ebp + 0x10]
  0x55a4	dec    	eax
  === BLOCK LINK ===
    0x55a5
=== CODE BLOCK END ===

=== CODE BLOCK ADDRESS 0x55a5 ===
  0x55a5	and    	eax, ecx
  0x55a7	dec    	eax
  0x55a8	mov    	ecx, eax
  0x55aa	dec    	eax
  0x55ab	cmp    	eax, ebx
  === BLOCK LINK ===
    0x55ad
=== CODE BLOCK END ===

=== CODE BLOCK ADDRESS 0x55ad ===
  0x55ad	jne    	0x55bc
  === BLOCK LINK ===
    0x55af
=== CODE BLOCK END ===

=== CODE BLOCK ADDRESS 0x55af ===
  0x55af	dec    	eax
  0x55b0	mov    	eax, 0x2ddfa233
  0x55b5	cdq    	
  0x55b6	sub    	eax, dword ptr [eax]
  0x55b8	add    	byte ptr [eax - 0x75], cl
  === BLOCK LINK ===
    0x55bb
=== CODE BLOCK END ===

=== CODE BLOCK ADDRESS 0x55bb ===
  0x55bb	enter  	-0x76b8, 0xd
  0x55bf	in     	eax, 0x3b
  0x55c1	add    	byte ptr [eax], al
  0x55c3	dec    	eax
  0x55c4	mov    	ebx, dword ptr [esp + 0x48]
  === BLOCK LINK ===
    0x55c8
=== CODE BLOCK END ===

=== CODE BLOCK ADDRESS 0x55c8 ===
  0x55c8	dec    	eax
  0x55c9	not    	eax
  0x55cb	dec    	eax
  0x55cc	mov    	dword ptr [0x3bde], eax
  0x55d2	dec    	eax
  === BLOCK LINK ===
    0x55d3
=== CODE BLOCK END ===

=== CODE BLOCK ADDRESS 0x55d3 ===
  0x55d3	add    	esp, 0x20
  0x55d6	pop    	ebp
  0x55d7	ret    	
  0x55d8	int3   	
  0x55d9	int3   	
  === BLOCK LINK ===
    0x55da
=== CODE BLOCK END ===

=== CODE BLOCK ADDRESS 0x55da ===
  0x55da	int3   	
  0x55db	int3   	
  0x55dc	int3   	
  0x55dd	int3   	
  0x55de	jmp    	dword ptr [0xf14]
  === BLOCK LINK ===
    0x55e4
=== CODE BLOCK END ===

=== CODE BLOCK ADDRESS 0x55e4 ===
  0x55e4	int3   	
  0x55e5	int3   	
  0x55e6	int3   	
  0x55e7	int3   	
  0x55e8	int3   	
  === BLOCK LINK ===
    0x55e9
=== CODE BLOCK END ===

=== CODE BLOCK ADDRESS 0x55e9 ===
  0x55e9	int3   	
  0x55ea	jmp    	dword ptr [0xef8]
  === BLOCK LINK ===
    0x55f0
=== CODE BLOCK END ===

=== CODE BLOCK ADDRESS 0x55f0 ===
  0x55f0	int3   	
  0x55f1	int3   	
  0x55f2	int3   	
  0x55f3	int3   	
  0x55f4	int3   	
  === BLOCK LINK ===
    0x55f5
=== CODE BLOCK END ===

=== CODE BLOCK ADDRESS 0x55f5 ===
  0x55f5	int3   	
  0x55f6	int3   	
  0x55f7	int3   	
  0x55f8	inc    	eax
  0x55f9	push   	ebx
  === BLOCK LINK ===
    0x55fa
=== CODE BLOCK END ===

=== CODE BLOCK ADDRESS 0x55fa ===
  0x55fa	dec    	eax
  0x55fb	sub    	esp, 0x20
  0x55fe	dec    	eax
  0x55ff	mov    	ebx, ecx
  0x5601	dec    	eax
  === BLOCK LINK ===
    0x5602
=== CODE BLOCK END ===

=== CODE BLOCK ADDRESS 0x5602 ===
  0x5602	mov    	eax, dword ptr [0x4350]
  0x5608	dec    	eax
  0x5609	mov    	dword ptr [esp + 0x38], eax
  0x560d	dec    	eax
  0x560e	cmp    	eax, -1
  === BLOCK LINK ===
    0x5611
=== CODE BLOCK END ===

=== CODE BLOCK ADDRESS 0x5611 ===
  0x5611	jne    	0x5626
  === BLOCK LINK ===
    0x5613
=== CODE BLOCK END ===

=== CODE BLOCK ADDRESS 0x5613 ===
  0x5613	dec    	eax
  0x5614	mov    	eax, dword ptr [0xe86]
  0x561a	call   	dword ptr [0xf60]
  === BLOCK LINK ===
    0x5620
=== CODE BLOCK END ===

=== CODE BLOCK ADDRESS 0x5620 ===
  0x5620	dec    	eax
  0x5621	add    	esp, 0x20
  0x5624	pop    	ebx
  0x5625	ret    	
  0x5626	mov    	ecx, 8
  === BLOCK LINK ===
    0x562b
=== CODE BLOCK END ===

=== CODE BLOCK ADDRESS 0x562b ===
  0x562b	call   	0x5877
  === BLOCK LINK ===
    0x5630
=== CODE BLOCK END ===

=== CODE BLOCK ADDRESS 0x5630 ===
  0x5630	nop    	
  0x5631	dec    	eax
  0x5632	mov    	eax, dword ptr [0x4320]
  0x5638	dec    	eax
  0x5639	mov    	dword ptr [esp + 0x38], eax
  === BLOCK LINK ===
    0x563d
=== CODE BLOCK END ===

=== CODE BLOCK ADDRESS 0x563d ===
  0x563d	dec    	eax
  0x563e	mov    	eax, dword ptr [0x430c]
  0x5644	dec    	eax
  0x5645	mov    	dword ptr [esp + 0x40], eax
  0x5649	dec    	esp
  === BLOCK LINK ===
    0x564a
=== CODE BLOCK END ===

=== CODE BLOCK ADDRESS 0x564a ===
  0x564a	lea    	eax, [esp + 0x40]
  0x564e	dec    	eax
  0x564f	lea    	edx, [esp + 0x38]
  0x5653	dec    	eax
  0x5654	mov    	ecx, ebx
  === BLOCK LINK ===
    0x5656
=== CODE BLOCK END ===

=== CODE BLOCK ADDRESS 0x5656 ===
  0x5656	call   	0x588f
  === BLOCK LINK ===
    0x565b
=== CODE BLOCK END ===

=== CODE BLOCK ADDRESS 0x565b ===
  0x565b	dec    	eax
  0x565c	mov    	ebx, eax
  0x565e	dec    	eax
  0x565f	mov    	edx, dword ptr [esp + 0x38]
  0x5663	dec    	eax
  === BLOCK LINK ===
    0x5664
=== CODE BLOCK END ===

=== CODE BLOCK ADDRESS 0x5664 ===
  0x5664	mov    	dword ptr [0x42ee], edx
  0x566a	dec    	eax
  0x566b	mov    	edx, dword ptr [esp + 0x40]
  0x566f	dec    	eax
  0x5670	mov    	dword ptr [0x42da], edx
  === BLOCK LINK ===
    0x5676
=== CODE BLOCK END ===

=== CODE BLOCK ADDRESS 0x5676 ===
  0x5676	mov    	ecx, 8
  0x567b	call   	0x5883
  === BLOCK LINK ===
    0x5680
=== CODE BLOCK END ===

=== CODE BLOCK ADDRESS 0x5680 ===
  0x5680	dec    	eax
  0x5681	mov    	eax, ebx
  0x5683	jmp    	0x5620
  === BLOCK LINK ===
    0x5685
=== CODE BLOCK END ===

=== CODE BLOCK ADDRESS 0x5685 ===
  0x5685	int3   	
  0x5686	int3   	
  0x5687	int3   	
  0x5688	int3   	
  0x5689	int3   	
  === BLOCK LINK ===
    0x568a
=== CODE BLOCK END ===

=== CODE BLOCK ADDRESS 0x568a ===
  0x568a	int3   	
  0x568b	int3   	
  0x568c	dec    	eax
  0x568d	sub    	esp, 0x28
  0x5690	call   	0x55f8
  === BLOCK LINK ===
    0x5695
=== CODE BLOCK END ===

=== CODE BLOCK ADDRESS 0x5695 ===
  0x5695	dec    	eax
  0x5696	neg    	eax
  0x5698	sbb    	eax, eax
  0x569a	neg    	eax
  0x569c	dec    	eax
  === BLOCK LINK ===
    0x569e
=== CODE BLOCK END ===

=== CODE BLOCK ADDRESS 0x569e ===
  0x569e	dec    	eax
  0x569f	add    	esp, 0x28
  0x56a2	ret    	
  0x56a3	int3   	
  0x56a4	int3   	
  === BLOCK LINK ===
    0x56a5
=== CODE BLOCK END ===

=== CODE BLOCK ADDRESS 0x56a5 ===
  0x56a5	int3   	
  0x56a6	int3   	
  0x56a7	int3   	
  0x56a8	int3   	
  0x56a9	int3   	
  === BLOCK LINK ===
    0x56aa
=== CODE BLOCK END ===

=== CODE BLOCK ADDRESS 0x56aa ===
  0x56aa	int3   	
  0x56ab	int3   	
  0x56ac	int3   	
  0x56ad	int3   	
  0x56ae	int3   	
  === BLOCK LINK ===
    0x56af
=== CODE BLOCK END ===

=== CODE BLOCK ADDRESS 0x56af ===
  0x56af	int3   	
  0x56b0	ret    	0
  0x56b3	int3   	
  0x56b4	int3   	
  0x56b5	int3   	
  === BLOCK LINK ===
    0x56b6
=== CODE BLOCK END ===

=== CODE BLOCK ADDRESS 0x56b6 ===
  0x56b6	int3   	
  0x56b7	int3   	
  0x56b8	int3   	
  0x56b9	int3   	
  0x56ba	int3   	
  === BLOCK LINK ===
    0x56bb
=== CODE BLOCK END ===

=== CODE BLOCK ADDRESS 0x56bb ===
  0x56bb	int3   	
  0x56bc	inc    	eax
  0x56bd	push   	ebx
  0x56be	dec    	eax
  0x56bf	sub    	esp, 0x20
  === BLOCK LINK ===
    0x56c2
=== CODE BLOCK END ===

=== CODE BLOCK ADDRESS 0x56c2 ===
  0x56c2	dec    	eax
  0x56c3	mov    	ebx, ecx
  0x56c5	xor    	ecx, ecx
  0x56c7	call   	dword ptr [0xb3b]
  === BLOCK LINK ===
    0x56cd
=== CODE BLOCK END ===

=== CODE BLOCK ADDRESS 0x56cd ===
  0x56cd	dec    	eax
  0x56ce	mov    	ecx, ebx
  0x56d0	call   	dword ptr [0xb42]
  === BLOCK LINK ===
    0x56d6
=== CODE BLOCK END ===

=== CODE BLOCK ADDRESS 0x56d6 ===
  0x56d6	call   	dword ptr [0xc1c]
  === BLOCK LINK ===
    0x56dc
=== CODE BLOCK END ===

=== CODE BLOCK ADDRESS 0x56dc ===
  0x56dc	dec    	eax
  0x56dd	mov    	ecx, eax
  0x56df	mov    	edx, 0xc0000409
  0x56e4	dec    	eax
  0x56e5	add    	esp, 0x20
  === BLOCK LINK ===
    0x56e8
=== CODE BLOCK END ===

=== CODE BLOCK ADDRESS 0x56e8 ===
  0x56e8	pop    	ebx
  0x56e9	dec    	eax
  0x56ea	jmp    	dword ptr [0xbf8]
  === BLOCK LINK ===
    0x56f0
=== CODE BLOCK END ===

=== CODE BLOCK ADDRESS 0x56f0 ===
  0x56f0	int3   	
  0x56f1	int3   	
  0x56f2	int3   	
  0x56f3	int3   	
  0x56f4	int3   	
  === BLOCK LINK ===
    0x56f5
=== CODE BLOCK END ===

=== CODE BLOCK ADDRESS 0x56f5 ===
  0x56f5	int3   	
  0x56f6	int3   	
  0x56f7	int3   	
  0x56f8	int3   	
  0x56f9	int3   	
  === BLOCK LINK ===
    0x56fa
=== CODE BLOCK END ===

=== CODE BLOCK ADDRESS 0x56fa ===
  0x56fa	int3   	
  0x56fb	int3   	
  0x56fc	int3   	
  0x56fd	int3   	
  0x56fe	int3   	
  === BLOCK LINK ===
    0x56ff
=== CODE BLOCK END ===

=== CODE BLOCK ADDRESS 0x56ff ===
  0x56ff	int3   	
  0x5700	dec    	eax
  0x5701	mov    	dword ptr [esp + 8], ecx
  0x5705	dec    	eax
  0x5706	sub    	esp, 0x88
  === BLOCK LINK ===
    0x570c
=== CODE BLOCK END ===

=== CODE BLOCK ADDRESS 0x570c ===
  0x570c	dec    	eax
  0x570d	lea    	ecx, [0x3bcd]
  0x5713	call   	dword ptr [0xc07]
  === BLOCK LINK ===
    0x5719
=== CODE BLOCK END ===

=== CODE BLOCK ADDRESS 0x5719 ===
  0x5719	dec    	eax
  0x571a	mov    	eax, dword ptr [0x3cb8]
  0x5720	dec    	eax
  0x5721	mov    	dword ptr [esp + 0x48], eax
  0x5725	inc    	ebp
  === BLOCK LINK ===
    0x5726
=== CODE BLOCK END ===

=== CODE BLOCK ADDRESS 0x5726 ===
  0x5726	xor    	eax, eax
  0x5728	dec    	eax
  0x5729	lea    	edx, [esp + 0x50]
  0x572d	dec    	eax
  0x572e	mov    	ecx, dword ptr [esp + 0x48]
  === BLOCK LINK ===
    0x5732
=== CODE BLOCK END ===

=== CODE BLOCK ADDRESS 0x5732 ===
  0x5732	call   	dword ptr [0xbe0]
  === BLOCK LINK ===
    0x5738
=== CODE BLOCK END ===

=== CODE BLOCK ADDRESS 0x5738 ===
  0x5738	dec    	eax
  0x5739	mov    	dword ptr [esp + 0x40], eax
  0x573d	dec    	eax
  0x573e	cmp    	dword ptr [esp + 0x40], 0
  0x5743	je     	0x5787
  === BLOCK LINK ===
    0x5745
=== CODE BLOCK END ===

=== CODE BLOCK ADDRESS 0x5745 ===
  0x5745	dec    	eax
  0x5746	mov    	dword ptr [esp + 0x38], 0
  0x574e	dec    	eax
  0x574f	lea    	eax, [esp + 0x58]
  0x5753	dec    	eax
  === BLOCK LINK ===
    0x5754
=== CODE BLOCK END ===

=== CODE BLOCK ADDRESS 0x5754 ===
  0x5754	mov    	dword ptr [esp + 0x30], eax
  0x5758	dec    	eax
  0x5759	lea    	eax, [esp + 0x60]
  0x575d	dec    	eax
  0x575e	mov    	dword ptr [esp + 0x28], eax
  === BLOCK LINK ===
    0x5762
=== CODE BLOCK END ===

=== CODE BLOCK ADDRESS 0x5762 ===
  0x5762	dec    	eax
  0x5763	lea    	eax, [0x3b77]
  0x5769	dec    	eax
  0x576a	mov    	dword ptr [esp + 0x20], eax
  0x576e	dec    	esp
  === BLOCK LINK ===
    0x576f
=== CODE BLOCK END ===

=== CODE BLOCK ADDRESS 0x576f ===
  0x576f	mov    	ecx, dword ptr [esp + 0x40]
  0x5773	dec    	esp
  0x5774	mov    	eax, dword ptr [esp + 0x48]
  0x5778	dec    	eax
  0x5779	mov    	edx, dword ptr [esp + 0x50]
  === BLOCK LINK ===
    0x577d
=== CODE BLOCK END ===

=== CODE BLOCK ADDRESS 0x577d ===
  0x577d	xor    	ecx, ecx
  0x577f	call   	dword ptr [0xba3]
  === BLOCK LINK ===
    0x5785
=== CODE BLOCK END ===

=== CODE BLOCK ADDRESS 0x5785 ===
  0x5785	jmp    	0x57aa
  === BLOCK LINK ===
    0x5787
=== CODE BLOCK END ===

=== CODE BLOCK ADDRESS 0x5787 ===
  0x5787	dec    	eax
  0x5788	mov    	eax, dword ptr [0x3bea]
  0x578e	dec    	eax
  0x578f	mov    	eax, dword ptr [eax]
  0x5791	dec    	eax
  === BLOCK LINK ===
    0x5792
=== CODE BLOCK END ===

=== CODE BLOCK ADDRESS 0x5792 ===
  0x5792	mov    	dword ptr [0x3c40], eax
  0x5798	dec    	eax
  0x5799	mov    	eax, dword ptr [0x3bd9]
  0x579f	dec    	eax
  0x57a0	add    	eax, 8
  === BLOCK LINK ===
    0x57a3
=== CODE BLOCK END ===

=== CODE BLOCK ADDRESS 0x57a3 ===
  0x57a3	dec    	eax
  0x57a4	mov    	dword ptr [0x3bce], eax
  0x57aa	dec    	eax
  0x57ab	mov    	eax, dword ptr [0x3c27]
  0x57b1	dec    	eax
  === BLOCK LINK ===
    0x57b2
=== CODE BLOCK END ===

=== CODE BLOCK ADDRESS 0x57b2 ===
  0x57b2	mov    	dword ptr [0x3a98], eax
  0x57b8	dec    	eax
  0x57b9	mov    	eax, dword ptr [esp + 0x90]
  0x57c0	dec    	eax
  0x57c1	mov    	dword ptr [0x3b99], eax
  === BLOCK LINK ===
    0x57c7
=== CODE BLOCK END ===

=== CODE BLOCK ADDRESS 0x57c7 ===
  0x57c7	mov    	dword ptr [0x3a6f], 0xc0000409
  0x57d1	mov    	dword ptr [0x3a69], 1
  0x57db	mov    	dword ptr [0x3a73], 3
  0x57e5	mov    	eax, 8
  0x57ea	dec    	eax
  === BLOCK LINK ===
    0x57eb
=== CODE BLOCK END ===

=== CODE BLOCK ADDRESS 0x57eb ===
  0x57eb	imul   	eax, eax, 0
  0x57ee	dec    	eax
  0x57ef	lea    	ecx, [0x3a6b]
  0x57f5	dec    	eax
  0x57f6	mov    	dword ptr [ecx + eax], 2
  === BLOCK LINK ===
    0x57fd
=== CODE BLOCK END ===

=== CODE BLOCK ADDRESS 0x57fd ===
  0x57fd	mov    	eax, 8
  0x5802	dec    	eax
  0x5803	imul   	eax, eax, 1
  0x5806	dec    	eax
  0x5807	lea    	ecx, [0x3a53]
  === BLOCK LINK ===
    0x580d
=== CODE BLOCK END ===

=== CODE BLOCK ADDRESS 0x580d ===
  0x580d	dec    	eax
  0x580e	mov    	edx, dword ptr [0x3994]
  0x5814	dec    	eax
  0x5815	mov    	dword ptr [ecx + eax], edx
  0x5818	mov    	eax, 8
  === BLOCK LINK ===
    0x581d
=== CODE BLOCK END ===

=== CODE BLOCK ADDRESS 0x581d ===
  0x581d	dec    	eax
  0x581e	imul   	eax, eax, 2
  0x5821	dec    	eax
  0x5822	lea    	ecx, [0x3a38]
  0x5828	dec    	eax
  === BLOCK LINK ===
    0x5829
=== CODE BLOCK END ===

=== CODE BLOCK ADDRESS 0x5829 ===
  0x5829	mov    	edx, dword ptr [0x3981]
  0x582f	dec    	eax
  0x5830	mov    	dword ptr [ecx + eax], edx
  0x5833	mov    	eax, 8
  0x5838	dec    	eax
  === BLOCK LINK ===
    0x5839
=== CODE BLOCK END ===

=== CODE BLOCK ADDRESS 0x5839 ===
  0x5839	imul   	eax, eax, 0
  0x583c	dec    	eax
  0x583d	mov    	ecx, dword ptr [0x3965]
  0x5843	dec    	eax
  0x5844	mov    	dword ptr [esp + eax + 0x68], ecx
  === BLOCK LINK ===
    0x5848
=== CODE BLOCK END ===

=== CODE BLOCK ADDRESS 0x5848 ===
  0x5848	mov    	eax, 8
  0x584d	dec    	eax
  0x584e	imul   	eax, eax, 1
  0x5851	dec    	eax
  0x5852	mov    	ecx, dword ptr [0x3958]
  === BLOCK LINK ===
    0x5858
=== CODE BLOCK END ===

=== CODE BLOCK ADDRESS 0x5858 ===
  0x5858	dec    	eax
  0x5859	mov    	dword ptr [esp + eax + 0x68], ecx
  0x585d	dec    	eax
  0x585e	lea    	ecx, [0x7a4]
  0x5864	call   	0x56bc
  === BLOCK LINK ===
    0x5869
=== CODE BLOCK END ===

=== CODE BLOCK ADDRESS 0x5869 ===
  0x5869	dec    	eax
  0x586a	add    	esp, 0x88
  0x5870	ret    	
  0x5871	int3   	
  0x5872	int3   	
  === BLOCK LINK ===
    0x5873
=== CODE BLOCK END ===

=== CODE BLOCK ADDRESS 0x5873 ===
  0x5873	int3   	
  0x5874	int3   	
  0x5875	int3   	
  0x5876	int3   	
  0x5877	jmp    	dword ptr [0xc3b]
  === BLOCK LINK ===
    0x587d
=== CODE BLOCK END ===

=== CODE BLOCK ADDRESS 0x587d ===
  0x587d	int3   	
  0x587e	int3   	
  0x587f	int3   	
  0x5880	int3   	
  0x5881	int3   	
  === BLOCK LINK ===
    0x5882
=== CODE BLOCK END ===

=== CODE BLOCK ADDRESS 0x5882 ===
  0x5882	int3   	
  0x5883	jmp    	dword ptr [0xc27]
  === BLOCK LINK ===
    0x5889
=== CODE BLOCK END ===

=== CODE BLOCK ADDRESS 0x5889 ===
  0x5889	int3   	
  0x588a	int3   	
  0x588b	int3   	
  0x588c	int3   	
  0x588d	int3   	
  === BLOCK LINK ===
    0x588e
=== CODE BLOCK END ===

=== CODE BLOCK ADDRESS 0x588e ===
  0x588e	int3   	
  0x588f	jmp    	dword ptr [0xc13]
  === BLOCK LINK ===
    0x5895
=== CODE BLOCK END ===

=== CODE BLOCK ADDRESS 0x5895 ===
  0x5895	int3   	
  0x5896	int3   	
  0x5897	int3   	
  0x5898	int3   	
  0x5899	int3   	
  === BLOCK LINK ===
    0x589a
=== CODE BLOCK END ===

=== CODE BLOCK ADDRESS 0x589a ===
  0x589a	int3   	
  0x589b	int3   	
  0x589c	int3   	
  0x589d	int3   	
  0x589e	int3   	
  === BLOCK LINK ===
    0x589f
=== CODE BLOCK END ===

=== CODE BLOCK ADDRESS 0x589f ===
  0x589f	int3   	
  0x58a0	int3   	
  0x58a1	int3   	
  0x58a2	int3   	
  0x58a3	int3   	
  === BLOCK LINK ===
    0x58a4
=== CODE BLOCK END ===

=== CODE BLOCK ADDRESS 0x58a4 ===
  0x58a4	int3   	
  0x58a5	int3   	
  0x58a6	jmp    	dword ptr [0xbb4]
  === BLOCK LINK ===
    0x58ac
=== CODE BLOCK END ===

=== CODE BLOCK ADDRESS 0x58ac ===
  0x58ac	int3   	
  0x58ad	int3   	
  0x58ae	int3   	
  0x58af	int3   	
  0x58b0	int3   	
  === BLOCK LINK ===
    0x58b1
=== CODE BLOCK END ===

=== CODE BLOCK ADDRESS 0x58b1 ===
  0x58b1	int3   	
  0x58b2	int3   	
  0x58b3	int3   	
  0x58b4	inc    	eax
  0x58b5	push   	ebx
  === BLOCK LINK ===
    0x58b6
=== CODE BLOCK END ===

=== CODE BLOCK ADDRESS 0x58b6 ===
  0x58b6	dec    	eax
  0x58b7	sub    	esp, 0x20
  0x58ba	dec    	eax
  0x58bb	mov    	ebx, ecx
  0x58bd	dec    	eax
  === BLOCK LINK ===
    0x58be
=== CODE BLOCK END ===

=== CODE BLOCK ADDRESS 0x58be ===
  0x58be	lea    	ecx, [0x3eec]
  0x58c4	call   	dword ptr [0xa86]
  === BLOCK LINK ===
    0x58ca
=== CODE BLOCK END ===

=== CODE BLOCK ADDRESS 0x58ca ===
  0x58ca	mov    	eax, dword ptr [0x38f0]
  0x58d0	dec    	eax
  0x58d1	lea    	ecx, [0x3ed9]
  0x58d7	mov    	edx, dword ptr [0x3ee3]
  0x58dd	inc    	eax
  === BLOCK LINK ===
    0x58df
=== CODE BLOCK END ===

=== CODE BLOCK ADDRESS 0x58df ===
  0x58df	mov    	dword ptr [0x38db], eax
  0x58e5	mov    	dword ptr [ebx], eax
  0x58e7	dec    	eax
  0x58e9	mov    	eax, dword ptr [0x58]
  0x58f0	inc    	ecx
  === BLOCK LINK ===
    0x58f1
=== CODE BLOCK END ===

=== CODE BLOCK ADDRESS 0x58f1 ===
  0x58f1	mov    	ecx, 4
  0x58f6	dec    	esp
  0x58f7	mov    	eax, dword ptr [eax + edx*8]
  0x58fa	mov    	eax, dword ptr [0x38c0]
  0x5900	inc    	ebx
  === BLOCK LINK ===
    0x5901
=== CODE BLOCK END ===

=== CODE BLOCK ADDRESS 0x5901 ===
  0x5901	mov    	dword ptr [ecx + eax], eax
  0x5904	call   	dword ptr [0xa56]
  === BLOCK LINK ===
    0x590a
=== CODE BLOCK END ===

=== CODE BLOCK ADDRESS 0x590a ===
  0x590a	dec    	eax
  0x590b	lea    	ecx, [0x3ea7]
  0x5911	dec    	eax
  0x5912	add    	esp, 0x20
  0x5915	pop    	ebx
  === BLOCK LINK ===
    0x5916
=== CODE BLOCK END ===

=== CODE BLOCK ADDRESS 0x5916 ===
  0x5916	dec    	eax
  0x5917	jmp    	dword ptr [0xa7b]
  === BLOCK LINK ===
    0x591d
=== CODE BLOCK END ===

=== CODE BLOCK ADDRESS 0x591d ===
  0x591d	int3   	
  0x591e	int3   	
  0x591f	int3   	
  0x5920	int3   	
  0x5921	int3   	
  === BLOCK LINK ===
    0x5922
=== CODE BLOCK END ===

=== CODE BLOCK ADDRESS 0x5922 ===
  0x5922	int3   	
  0x5923	int3   	
  0x5924	inc    	eax
  0x5925	push   	ebx
  0x5926	dec    	eax
  === BLOCK LINK ===
    0x5927
=== CODE BLOCK END ===

=== CODE BLOCK ADDRESS 0x5927 ===
  0x5927	sub    	esp, 0x20
  0x592a	dec    	eax
  0x592b	mov    	ebx, ecx
  0x592d	dec    	eax
  0x592e	lea    	ecx, [0x3e7c]
  === BLOCK LINK ===
    0x5934
=== CODE BLOCK END ===

=== CODE BLOCK ADDRESS 0x5934 ===
  0x5934	call   	dword ptr [0xa16]
  === BLOCK LINK ===
    0x593a
=== CODE BLOCK END ===

=== CODE BLOCK ADDRESS 0x593a ===
  0x593a	cmp    	dword ptr [ebx], 0
  0x593d	jne    	0x5961
  === BLOCK LINK ===
    0x593f
=== CODE BLOCK END ===

=== CODE BLOCK ADDRESS 0x593f ===
  0x593f	or     	dword ptr [ebx], 0xffffffff
  0x5942	jmp    	0x5989
  === BLOCK LINK ===
    0x5944
=== CODE BLOCK END ===

=== CODE BLOCK ADDRESS 0x5944 ===
  0x5944	inc    	ebp
  0x5945	xor    	ecx, ecx
  0x5947	dec    	eax
  0x5948	lea    	edx, [0x3e62]
  0x594e	inc    	ecx
  === BLOCK LINK ===
    0x594f
=== CODE BLOCK END ===

=== CODE BLOCK ADDRESS 0x594f ===
  0x594f	or     	eax, 0xffffffff
  0x5952	dec    	eax
  0x5953	lea    	ecx, [0x3e5f]
  0x5959	call   	dword ptr [0xa29]
  === BLOCK LINK ===
    0x595f
=== CODE BLOCK END ===

=== CODE BLOCK ADDRESS 0x595f ===
  0x595f	jmp    	0x593a
  === BLOCK LINK ===
    0x5961
=== CODE BLOCK END ===

=== CODE BLOCK ADDRESS 0x5961 ===
  0x5961	cmp    	dword ptr [ebx], -1
  0x5964	je     	0x5944
  === BLOCK LINK ===
    0x5966
=== CODE BLOCK END ===

=== CODE BLOCK ADDRESS 0x5966 ===
  0x5966	dec    	eax
  0x5968	mov    	eax, dword ptr [0x58]
  0x596f	mov    	ecx, dword ptr [0x3e4b]
  0x5975	inc    	ecx
  0x5976	mov    	eax, 4
  === BLOCK LINK ===
    0x597b
=== CODE BLOCK END ===

=== CODE BLOCK ADDRESS 0x597b ===
  0x597b	dec    	eax
  0x597c	mov    	edx, dword ptr [eax + ecx*8]
  0x597f	mov    	eax, dword ptr [0x383b]
  0x5985	inc    	ecx
  0x5986	mov    	dword ptr [eax + edx], eax
  === BLOCK LINK ===
    0x5989
=== CODE BLOCK END ===

=== CODE BLOCK ADDRESS 0x5989 ===
  0x5989	dec    	eax
  0x598a	lea    	ecx, [0x3e20]
  0x5990	dec    	eax
  0x5991	add    	esp, 0x20
  0x5994	pop    	ebx
  === BLOCK LINK ===
    0x5995
=== CODE BLOCK END ===

=== CODE BLOCK ADDRESS 0x5995 ===
  0x5995	dec    	eax
  0x5996	jmp    	dword ptr [0x9c4]
  === BLOCK LINK ===
    0x599c
=== CODE BLOCK END ===

=== CODE BLOCK ADDRESS 0x599c ===
  0x599c	int3   	
  0x599d	int3   	
  0x599e	int3   	
  0x599f	int3   	
  0x59a0	int3   	
  === BLOCK LINK ===
    0x59a1
=== CODE BLOCK END ===

=== CODE BLOCK ADDRESS 0x59a1 ===
  0x59a1	int3   	
  0x59a2	int3   	
  0x59a3	int3   	
  0x59a4	dec    	eax
  0x59a5	sub    	esp, 0x38
  === BLOCK LINK ===
    0x59a8
=== CODE BLOCK END ===

=== CODE BLOCK ADDRESS 0x59a8 ===
  0x59a8	dec    	eax
  0x59a9	mov    	dword ptr [esp + 0x20], 0xfffffffe
  0x59b1	call   	0x59cc
  === BLOCK LINK ===
    0x59b6
=== CODE BLOCK END ===

=== CODE BLOCK ADDRESS 0x59b6 ===
  0x59b6	nop    	
  0x59b7	jmp    	0x59be
  === BLOCK LINK ===
    0x59b9
=== CODE BLOCK END ===

=== CODE BLOCK ADDRESS 0x59b9 ===
  0x59b9	dec    	eax
  0x59ba	mov    	eax, dword ptr [esp + 0x50]
  0x59be	dec    	eax
  0x59bf	add    	esp, 0x38
  0x59c2	ret    	
  === BLOCK LINK ===
    0x59c3
=== CODE BLOCK END ===

=== CODE BLOCK ADDRESS 0x59c3 ===
  0x59c3	int3   	
  0x59c4	int3   	
  0x59c5	int3   	
  0x59c6	int3   	
  0x59c7	int3   	
  === BLOCK LINK ===
    0x59c8
=== CODE BLOCK END ===

=== CODE BLOCK ADDRESS 0x59c8 ===
  0x59c8	int3   	
  0x59c9	int3   	
  0x59ca	int3   	
  0x59cb	int3   	
  0x59cc	inc    	eax
  === BLOCK LINK ===
    0x59cd
=== CODE BLOCK END ===

=== CODE BLOCK ADDRESS 0x59cd ===
  0x59cd	push   	ebx
  0x59ce	dec    	eax
  0x59cf	sub    	esp, 0x20
  0x59d2	dec    	eax
  0x59d3	mov    	ebx, ecx
  === BLOCK LINK ===
    0x59d5
=== CODE BLOCK END ===

=== CODE BLOCK ADDRESS 0x59d5 ===
  0x59d5	jmp    	0x59e6
  === BLOCK LINK ===
    0x59d7
=== CODE BLOCK END ===

=== CODE BLOCK ADDRESS 0x59d7 ===
  0x59d7	dec    	eax
  0x59d8	mov    	ecx, ebx
  0x59da	call   	0x5a0f
  === BLOCK LINK ===
    0x59df
=== CODE BLOCK END ===

=== CODE BLOCK ADDRESS 0x59df ===
  0x59df	test   	eax, eax
  0x59e1	je     	0x59f6
  === BLOCK LINK ===
    0x59e3
=== CODE BLOCK END ===

=== CODE BLOCK ADDRESS 0x59e3 ===
  0x59e3	dec    	eax
  0x59e4	mov    	ecx, ebx
  0x59e6	call   	0x5a03
  === BLOCK LINK ===
    0x59eb
=== CODE BLOCK END ===

=== CODE BLOCK ADDRESS 0x59eb ===
  0x59eb	dec    	eax
  0x59ec	test   	eax, eax
  0x59ee	je     	0x59d7
  === BLOCK LINK ===
    0x59f0
=== CODE BLOCK END ===

=== CODE BLOCK ADDRESS 0x59f0 ===
  0x59f0	dec    	eax
  0x59f1	add    	esp, 0x20
  0x59f4	pop    	ebx
  0x59f5	ret    	
  0x59f6	call   	dword ptr [0xa44]
  === BLOCK LINK ===
    0x59fc
=== CODE BLOCK END ===

=== CODE BLOCK ADDRESS 0x1be2 ===
  0x1be2	mov    	eax, edi
  0x1be4	dec    	eax
  0x1be5	add    	esp, 0x28
  0x1be8	pop    	edi
  === BLOCK LINK ===
    0x1be9
=== CODE BLOCK END ===

=== CODE BLOCK ADDRESS 0x59fc ===
  0x59fc	int3   	
  0x59fd	int3   	
  0x59fe	int3   	
  0x59ff	int3   	
  0x5a00	int3   	
  === BLOCK LINK ===
    0x5a01
=== CODE BLOCK END ===

=== CODE BLOCK ADDRESS 0x5a01 ===
  0x5a01	int3   	
  0x5a02	int3   	
  0x5a03	jmp    	dword ptr [0xae7]
  === BLOCK LINK ===
    0x5a09
=== CODE BLOCK END ===

=== CODE BLOCK ADDRESS 0x5a09 ===
  0x5a09	int3   	
  0x5a0a	int3   	
  0x5a0b	int3   	
  0x5a0c	int3   	
  0x5a0d	int3   	
  === BLOCK LINK ===
    0x5a0e
=== CODE BLOCK END ===

=== CODE BLOCK ADDRESS 0x5a0e ===
  0x5a0e	int3   	
  0x5a0f	jmp    	dword ptr [0xa7b]
  === BLOCK LINK ===
    0x5a15
=== CODE BLOCK END ===

=== CODE BLOCK ADDRESS 0x5a15 ===
  0x5a15	int3   	
  0x5a16	int3   	
  0x5a17	int3   	
  0x5a18	int3   	
  0x5a19	int3   	
  === BLOCK LINK ===
    0x5a1a
=== CODE BLOCK END ===

=== CODE BLOCK ADDRESS 0x5a1a ===
  0x5a1a	int3   	
  0x5a1b	jmp    	dword ptr [0xa77]
  === BLOCK LINK ===
    0x5a21
=== CODE BLOCK END ===

=== CODE BLOCK ADDRESS 0x5a21 ===
  0x5a21	int3   	
  0x5a22	int3   	
  0x5a23	int3   	
  0x5a24	int3   	
  0x5a25	int3   	
  === BLOCK LINK ===
    0x5a26
=== CODE BLOCK END ===

=== CODE BLOCK ADDRESS 0x5a26 ===
  0x5a26	int3   	
  0x5a27	int3   	
  0x5a28	dec    	eax
  0x5a29	sub    	esp, 0x28
  0x5a2c	dec    	ebp
  === BLOCK LINK ===
    0x5a2d
=== CODE BLOCK END ===

=== CODE BLOCK ADDRESS 0x5a2d ===
  0x5a2d	mov    	eax, dword ptr [ecx + 0x38]
  0x5a30	dec    	eax
  0x5a31	mov    	ecx, edx
  0x5a33	dec    	ecx
  0x5a34	mov    	edx, ecx
  === BLOCK LINK ===
    0x5a36
=== CODE BLOCK END ===

=== CODE BLOCK ADDRESS 0x5a36 ===
  0x5a36	call   	0x5a4c
  === BLOCK LINK ===
    0x5a3b
=== CODE BLOCK END ===

=== CODE BLOCK ADDRESS 0x5a3b ===
  0x5a3b	mov    	eax, 1
  0x5a40	dec    	eax
  0x5a41	add    	esp, 0x28
  0x5a44	ret    	
  0x5a45	int3   	
  === BLOCK LINK ===
    0x5a46
=== CODE BLOCK END ===

=== CODE BLOCK ADDRESS 0x5a46 ===
  0x5a46	int3   	
  0x5a47	int3   	
  0x5a48	int3   	
  0x5a49	int3   	
  0x5a4a	int3   	
  === BLOCK LINK ===
    0x5a4b
=== CODE BLOCK END ===

=== CODE BLOCK ADDRESS 0x5a4b ===
  0x5a4b	int3   	
  0x5a4c	inc    	eax
  0x5a4d	push   	ebx
  0x5a4e	inc    	ebp
  0x5a4f	mov    	ebx, dword ptr [eax]
  === BLOCK LINK ===
    0x5a51
=== CODE BLOCK END ===

=== CODE BLOCK ADDRESS 0x5a51 ===
  0x5a51	dec    	eax
  0x5a52	mov    	ebx, edx
  0x5a54	inc    	ecx
  0x5a55	and    	ebx, 0xfffffff8
  0x5a58	dec    	esp
  === BLOCK LINK ===
    0x5a59
=== CODE BLOCK END ===

=== CODE BLOCK ADDRESS 0x5a59 ===
  0x5a59	mov    	ecx, ecx
  0x5a5b	inc    	ecx
  0x5a5c	test   	byte ptr [eax], 4
  0x5a5f	dec    	esp
  0x5a60	mov    	edx, ecx
  === BLOCK LINK ===
    0x5a62
=== CODE BLOCK END ===

=== CODE BLOCK ADDRESS 0x5a62 ===
  0x5a62	je     	0x5a77
  === BLOCK LINK ===
    0x5a64
=== CODE BLOCK END ===

=== CODE BLOCK ADDRESS 0x5a64 ===
  0x5a64	inc    	ecx
  0x5a65	mov    	eax, dword ptr [eax + 8]
  0x5a68	dec    	ebp
  0x5a69	arpl   	word ptr [eax + 4], dx
  0x5a6c	neg    	eax
  === BLOCK LINK ===
    0x5a6e
=== CODE BLOCK END ===

=== CODE BLOCK ADDRESS 0x5a6e ===
  0x5a6e	dec    	esp
  0x5a6f	add    	edx, ecx
  0x5a71	dec    	eax
  0x5a72	arpl   	ax, cx
  0x5a74	dec    	esp
  === BLOCK LINK ===
    0x5a75
=== CODE BLOCK END ===

=== CODE BLOCK ADDRESS 0x5a75 ===
  0x5a75	and    	edx, ecx
  0x5a77	dec    	ecx
  0x5a78	arpl   	bx, ax
  0x5a7a	dec    	edx
  0x5a7b	mov    	edx, dword ptr [eax + edx]
  === BLOCK LINK ===
    0x5a7e
=== CODE BLOCK END ===

=== CODE BLOCK ADDRESS 0x5a7e ===
  0x5a7e	dec    	eax
  0x5a7f	mov    	eax, dword ptr [ebx + 0x10]
  0x5a82	mov    	ecx, dword ptr [eax + 8]
  0x5a85	dec    	eax
  0x5a86	mov    	eax, dword ptr [ebx + 8]
  === BLOCK LINK ===
    0x5a89
=== CODE BLOCK END ===

=== CODE BLOCK ADDRESS 0x5a89 ===
  0x5a89	test   	byte ptr [ecx + eax + 3], 0xf
  0x5a8e	je     	0x5a9b
  === BLOCK LINK ===
    0x5a90
=== CODE BLOCK END ===

=== CODE BLOCK ADDRESS 0x5a90 ===
  0x5a90	movzx  	eax, byte ptr [ecx + eax + 3]
  0x5a95	and    	eax, 0xfffffff0
  0x5a98	dec    	esp
  0x5a99	add    	ecx, eax
  0x5a9b	dec    	esp
  === BLOCK LINK ===
    0x5a9c
=== CODE BLOCK END ===

=== CODE BLOCK ADDRESS 0x5a9c ===
  0x5a9c	xor    	ecx, edx
  0x5a9e	dec    	ecx
  0x5a9f	mov    	ecx, ecx
  0x5aa1	pop    	ebx
  0x5aa2	jmp    	0x5280
  === BLOCK LINK ===
    0x5aa7
=== CODE BLOCK END ===

=== CODE BLOCK ADDRESS 0x5aa7 ===
  0x5aa7	int3   	
  0x5aa8	int3   	
  0x5aa9	int3   	
  0x5aaa	int3   	
  0x5aab	int3   	
  === BLOCK LINK ===
    0x5aac
=== CODE BLOCK END ===

=== CODE BLOCK ADDRESS 0x5aac ===
  0x5aac	int3   	
  0x5aad	int3   	
  0x5aae	int3   	
  0x5aaf	int3   	
  0x5ab0	dec    	eax
  === BLOCK LINK ===
    0x5ab1
=== CODE BLOCK END ===

=== CODE BLOCK ADDRESS 0x5ab1 ===
  0x5ab1	mov    	eax, esp
  0x5ab3	dec    	eax
  0x5ab4	mov    	dword ptr [eax + 8], ebx
  0x5ab7	dec    	eax
  0x5ab8	mov    	dword ptr [eax + 0x10], ebp
  === BLOCK LINK ===
    0x5abb
=== CODE BLOCK END ===

=== CODE BLOCK ADDRESS 0x5abb ===
  0x5abb	dec    	eax
  0x5abc	mov    	dword ptr [eax + 0x18], esi
  0x5abf	dec    	eax
  0x5ac0	mov    	dword ptr [eax + 0x20], edi
  0x5ac3	inc    	ecx
  === BLOCK LINK ===
    0x5ac4
=== CODE BLOCK END ===

=== CODE BLOCK ADDRESS 0x5ac4 ===
  0x5ac4	push   	esi
  0x5ac5	dec    	eax
  0x5ac6	sub    	esp, 0x20
  0x5ac9	dec    	ecx
  0x5aca	mov    	ebx, dword ptr [ecx + 0x38]
  === BLOCK LINK ===
    0x5acd
=== CODE BLOCK END ===

=== CODE BLOCK ADDRESS 0x5acd ===
  0x5acd	dec    	eax
  0x5ace	mov    	esi, edx
  0x5ad0	dec    	ebp
  0x5ad1	mov    	esi, eax
  0x5ad3	dec    	eax
  === BLOCK LINK ===
    0x5ad4
=== CODE BLOCK END ===

=== CODE BLOCK ADDRESS 0x5ad4 ===
  0x5ad4	mov    	ebp, ecx
  0x5ad6	dec    	ecx
  0x5ad7	mov    	edx, ecx
  0x5ad9	dec    	eax
  0x5ada	mov    	ecx, esi
  === BLOCK LINK ===
    0x5adc
=== CODE BLOCK END ===

=== CODE BLOCK ADDRESS 0x5adc ===
  0x5adc	dec    	ecx
  0x5add	mov    	edi, ecx
  0x5adf	dec    	esp
  0x5ae0	lea    	eax, [ebx + 4]
  0x5ae3	call   	0x5a4c
  === BLOCK LINK ===
    0x5ae8
=== CODE BLOCK END ===

=== CODE BLOCK ADDRESS 0x5ae8 ===
  0x5ae8	mov    	eax, dword ptr [ebp + 4]
  0x5aeb	and    	al, 0x66
  0x5aed	neg    	al
  0x5aef	mov    	eax, 1
  0x5af4	inc    	ebp
  === BLOCK LINK ===
    0x5af5
=== CODE BLOCK END ===

=== CODE BLOCK ADDRESS 0x5af5 ===
  0x5af5	sbb    	eax, eax
  0x5af7	inc    	ecx
  0x5af8	neg    	eax
  0x5afa	inc    	esp
  0x5afb	add    	eax, eax
  === BLOCK LINK ===
    0x5afd
=== CODE BLOCK END ===

=== CODE BLOCK ADDRESS 0x5afd ===
  0x5afd	inc    	esp
  0x5afe	test   	dword ptr [ebx + 4], eax
  0x5b01	je     	0x5b14
  === BLOCK LINK ===
    0x5b03
=== CODE BLOCK END ===

=== CODE BLOCK ADDRESS 0x5b03 ===
  0x5b03	dec    	esp
  0x5b04	mov    	ecx, edi
  0x5b06	dec    	ebp
  0x5b07	mov    	eax, esi
  0x5b09	dec    	eax
  === BLOCK LINK ===
    0x5b0a
=== CODE BLOCK END ===

=== CODE BLOCK ADDRESS 0x5b0a ===
  0x5b0a	mov    	edx, esi
  0x5b0c	dec    	eax
  0x5b0d	mov    	ecx, ebp
  0x5b0f	call   	0x525c
  === BLOCK LINK ===
    0x5b14
=== CODE BLOCK END ===

=== CODE BLOCK ADDRESS 0x5b14 ===
  0x5b14	dec    	eax
  0x5b15	mov    	ebx, dword ptr [esp + 0x30]
  0x5b19	dec    	eax
  0x5b1a	mov    	ebp, dword ptr [esp + 0x38]
  0x5b1e	dec    	eax
  === BLOCK LINK ===
    0x5b1f
=== CODE BLOCK END ===

=== CODE BLOCK ADDRESS 0x5b1f ===
  0x5b1f	mov    	esi, dword ptr [esp + 0x40]
  0x5b23	dec    	eax
  0x5b24	mov    	edi, dword ptr [esp + 0x48]
  0x5b28	dec    	eax
  0x5b29	add    	esp, 0x20
  === BLOCK LINK ===
    0x5b2c
=== CODE BLOCK END ===

=== CODE BLOCK ADDRESS 0x5b2c ===
  0x5b2c	inc    	ecx
  0x5b2d	pop    	esi
  0x5b2e	ret    	
  0x5b2f	int3   	
  0x5b30	int3   	
  === BLOCK LINK ===
    0x5b31
=== CODE BLOCK END ===

=== CODE BLOCK ADDRESS 0x5b31 ===
  0x5b31	int3   	
  0x5b32	int3   	
  0x5b33	int3   	
  0x5b34	int3   	
  0x5b35	int3   	
  === BLOCK LINK ===
    0x5b36
=== CODE BLOCK END ===

=== CODE BLOCK ADDRESS 0x5b36 ===
  0x5b36	jmp    	dword ptr [0x94c]
  === BLOCK LINK ===
    0x5b3c
=== CODE BLOCK END ===

=== CODE BLOCK ADDRESS 0x5b3c ===
  0x5b3c	int3   	
  0x5b3d	int3   	
  0x5b3e	int3   	
  0x5b3f	int3   	
  0x5b40	int3   	
  === BLOCK LINK ===
    0x5b41
=== CODE BLOCK END ===

=== CODE BLOCK ADDRESS 0x5b41 ===
  0x5b41	int3   	
  0x5b42	int3   	
  0x5b43	int3   	
  0x5b44	int3   	
  0x5b45	int3   	
  === BLOCK LINK ===
    0x5b46
=== CODE BLOCK END ===

=== CODE BLOCK ADDRESS 0x5b46 ===
  0x5b46	nop    	word ptr [eax + eax]
  0x5b50	jmp    	eax
  === BLOCK LINK ===
    0x5b52
=== CODE BLOCK END ===

=== CODE BLOCK ADDRESS 0x5b52 ===
  0x5b52	int3   	
  0x5b53	int3   	
  0x5b54	int3   	
  0x5b55	int3   	
  0x5b56	int3   	
  === BLOCK LINK ===
    0x5b57
=== CODE BLOCK END ===

=== CODE BLOCK ADDRESS 0x5b57 ===
  0x5b57	int3   	
  0x5b58	int3   	
  0x5b59	int3   	
  0x5b5a	int3   	
  0x5b5b	int3   	
  === BLOCK LINK ===
    0x5b5c
=== CODE BLOCK END ===

=== CODE BLOCK ADDRESS 0x5b5c ===
  0x5b5c	int3   	
  0x5b5d	int3   	
  0x5b5e	int3   	
  0x5b5f	int3   	
  0x5b60	int3   	
  === BLOCK LINK ===
    0x5b61
=== CODE BLOCK END ===

=== CODE BLOCK ADDRESS 0x5b61 ===
  0x5b61	int3   	
  0x5b62	int3   	
  0x5b63	int3   	
  0x5b64	int3   	
  0x5b65	int3   	
  === BLOCK LINK ===
    0x5b66
=== CODE BLOCK END ===

=== CODE BLOCK ADDRESS 0x5b66 ===
  0x5b66	nop    	word ptr [eax + eax]
  0x5b70	dec    	eax
  0x5b71	sub    	esp, 0x10
  0x5b74	dec    	esp
  0x5b75	mov    	dword ptr [esp], edx
  === BLOCK LINK ===
    0x5b78
=== CODE BLOCK END ===

=== CODE BLOCK ADDRESS 0x5b78 ===
  0x5b78	dec    	esp
  0x5b79	mov    	dword ptr [esp + 8], ebx
  0x5b7d	dec    	ebp
  0x5b7e	xor    	ebx, ebx
  0x5b80	dec    	esp
  === BLOCK LINK ===
    0x5b81
=== CODE BLOCK END ===

=== CODE BLOCK ADDRESS 0x5b81 ===
  0x5b81	lea    	edx, [esp + 0x18]
  0x5b85	dec    	esp
  0x5b86	sub    	edx, eax
  0x5b88	dec    	ebp
  0x5b89	cmovb  	edx, ebx
  === BLOCK LINK ===
    0x5b8c
=== CODE BLOCK END ===

=== CODE BLOCK ADDRESS 0x5b8c ===
  0x5b8c	dec    	esp
  0x5b8e	mov    	ebx, dword ptr [0x10]
  0x5b95	dec    	ebp
  0x5b96	cmp    	edx, ebx
  0x5b98	jae    	0x5baf
  === BLOCK LINK ===
    0x5b9a
=== CODE BLOCK END ===

=== CODE BLOCK ADDRESS 0x5b9a ===
  0x5b9a	inc    	cx
  0x5b9c	and    	edx, 0x8d4df000
  0x5ba2	wait   	
  0x5ba3	add    	al, dh
  0x5ba5	.byte  	0xff
  === BLOCK LINK ===
    0x5ba6
=== CODE BLOCK END ===

=== CODE BLOCK ADDRESS 0x5ba6 ===
  0x5ba6	inc    	dword ptr [ebp - 0x7c]
  0x5ba9	sbb    	ecx, dword ptr [ebp + 0x3b]
  0x5bac	sal    	dword ptr [edx - 0xf], cl
  0x5baf	dec    	esp
  0x5bb0	mov    	edx, dword ptr [esp]
  === BLOCK LINK ===
    0x5bb3
=== CODE BLOCK END ===

=== CODE BLOCK ADDRESS 0x5bb3 ===
  0x5bb3	dec    	esp
  0x5bb4	mov    	ebx, dword ptr [esp + 8]
  0x5bb8	dec    	eax
  0x5bb9	add    	esp, 0x10
  0x5bbc	ret    	
  === BLOCK LINK ===
    0x5bbd
=== CODE BLOCK END ===

=== CODE BLOCK ADDRESS 0x5bbd ===
  0x5bbd	int3   	
  0x5bbe	int3   	
  0x5bbf	int3   	
  0x5bc0	int3   	
  0x5bc1	int3   	
  === BLOCK LINK ===
    0x5bc2
=== CODE BLOCK END ===

=== CODE BLOCK ADDRESS 0x5bc2 ===
  0x5bc2	int3   	
  0x5bc3	dec    	eax
  0x5bc4	mov    	dword ptr [esp + 0x10], edx
  0x5bc8	push   	ebp
  0x5bc9	dec    	eax
  === BLOCK LINK ===
    0x5bca
=== CODE BLOCK END ===

=== CODE BLOCK ADDRESS 0x5bca ===
  0x5bca	sub    	esp, 0x30
  0x5bcd	dec    	eax
  0x5bce	mov    	ebp, edx
  0x5bd0	mov    	dword ptr [ebp + 0x40], 0x8007000e
  0x5bd7	dec    	eax
  === BLOCK LINK ===
    0x5bd8
=== CODE BLOCK END ===

=== CODE BLOCK ADDRESS 0x5bd8 ===
  0x5bd8	lea    	eax, [0xffffbd80]
  0x5bde	dec    	eax
  0x5bdf	add    	esp, 0x30
  0x5be2	pop    	ebp
  0x5be3	ret    	
  === BLOCK LINK ===
    0x5be4
=== CODE BLOCK END ===

=== CODE BLOCK ADDRESS 0x5be4 ===
  0x5be4	int3   	
  0x5be5	int3   	
  0x5be6	int3   	
  0x5be7	int3   	
  0x5be8	int3   	
  === BLOCK LINK ===
    0x5be9
=== CODE BLOCK END ===

=== CODE BLOCK ADDRESS 0x5be9 ===
  0x5be9	int3   	
  0x5bea	int3   	
  0x5beb	dec    	eax
  0x5bec	lea    	ecx, [edx + 0x20]
  0x5bf2	jmp    	0x2d8c
  === BLOCK LINK ===
    0x5bf7
=== CODE BLOCK END ===

=== CODE BLOCK ADDRESS 0x5bf7 ===
  0x5bf7	int3   	
  0x5bf8	int3   	
  0x5bf9	int3   	
  0x5bfa	int3   	
  0x5bfb	int3   	
  === BLOCK LINK ===
    0x5bfc
=== CODE BLOCK END ===

=== CODE BLOCK ADDRESS 0x5bfc ===
  0x5bfc	int3   	
  0x5bfd	dec    	eax
  0x5bfe	lea    	ecx, [edx + 0x28]
  0x5c04	jmp    	0x2d64
  === BLOCK LINK ===
    0x5c09
=== CODE BLOCK END ===

=== CODE BLOCK ADDRESS 0x5c09 ===
  0x5c09	int3   	
  0x5c0a	int3   	
  0x5c0b	int3   	
  0x5c0c	int3   	
  0x5c0d	int3   	
  === BLOCK LINK ===
    0x5c0e
=== CODE BLOCK END ===

=== CODE BLOCK ADDRESS 0x5c0e ===
  0x5c0e	int3   	
  0x5c0f	dec    	eax
  0x5c10	lea    	ecx, [edx + 0x48]
  0x5c16	jmp    	0x4c80
  === BLOCK LINK ===
    0x5c1b
=== CODE BLOCK END ===

=== CODE BLOCK ADDRESS 0x5c1b ===
  0x5c1b	int3   	
  0x5c1c	int3   	
  0x5c1d	int3   	
  0x5c1e	int3   	
  0x5c1f	int3   	
  === BLOCK LINK ===
    0x5c20
=== CODE BLOCK END ===

=== CODE BLOCK ADDRESS 0x5c20 ===
  0x5c20	int3   	
  0x5c21	dec    	eax
  0x5c22	lea    	ecx, [edx + 0x58]
  0x5c28	jmp    	0x3cf8
  === BLOCK LINK ===
    0x5c2d
=== CODE BLOCK END ===

=== CODE BLOCK ADDRESS 0x5c2d ===
  0x5c2d	int3   	
  0x5c2e	int3   	
  0x5c2f	int3   	
  0x5c30	int3   	
  0x5c31	int3   	
  === BLOCK LINK ===
    0x5c32
=== CODE BLOCK END ===

=== CODE BLOCK ADDRESS 0x5c32 ===
  0x5c32	int3   	
  0x5c33	inc    	eax
  0x5c34	push   	ebp
  0x5c35	dec    	eax
  0x5c36	sub    	esp, 0x20
  === BLOCK LINK ===
    0x5c39
=== CODE BLOCK END ===

=== CODE BLOCK ADDRESS 0x5c39 ===
  0x5c39	dec    	eax
  0x5c3a	mov    	ebp, edx
  0x5c3c	dec    	eax
  0x5c3d	mov    	eax, dword ptr [ecx]
  0x5c3f	dec    	eax
  === BLOCK LINK ===
    0x5c40
=== CODE BLOCK END ===

=== CODE BLOCK ADDRESS 0x5c40 ===
  0x5c40	mov    	edx, ecx
  0x5c42	mov    	ecx, dword ptr [eax]
  0x5c44	call   	0x534e
  === BLOCK LINK ===
    0x5c49
=== CODE BLOCK END ===

=== CODE BLOCK ADDRESS 0x5c49 ===
  0x5c49	nop    	
  0x5c4a	dec    	eax
  0x5c4b	add    	esp, 0x20
  0x5c4e	pop    	ebp
  0x5c4f	ret    	
  === BLOCK LINK ===
    0x5c50
=== CODE BLOCK END ===

=== CODE BLOCK ADDRESS 0x5c50 ===
  0x5c50	int3   	
  0x5c51	int3   	
  0x5c52	int3   	
  0x5c53	int3   	
  0x5c54	int3   	
  === BLOCK LINK ===
    0x5c55
=== CODE BLOCK END ===

=== CODE BLOCK ADDRESS 0x5c55 ===
  0x5c55	int3   	
  0x5c56	int3   	
  0x5c57	int3   	
  0x5c58	int3   	
  0x5c59	int3   	
  === BLOCK LINK ===
    0x5c5a
=== CODE BLOCK END ===

=== CODE BLOCK ADDRESS 0x5c5a ===
  0x5c5a	int3   	
  0x5c5b	int3   	
  0x5c5c	int3   	
  0x5c5d	int3   	
  0x5c5e	int3   	
  === BLOCK LINK ===
    0x5c5f
=== CODE BLOCK END ===

=== CODE BLOCK ADDRESS 0x5c5f ===
  0x5c5f	int3   	
  0x5c60	inc    	eax
  0x5c61	push   	ebp
  0x5c62	dec    	eax
  0x5c63	sub    	esp, 0x20
  === BLOCK LINK ===
    0x5c66
=== CODE BLOCK END ===

=== CODE BLOCK ADDRESS 0x5c66 ===
  0x5c66	dec    	eax
  0x5c67	mov    	ebp, edx
  0x5c69	dec    	eax
  0x5c6a	mov    	eax, dword ptr [ecx]
  0x5c6c	xor    	ecx, ecx
  === BLOCK LINK ===
    0x5c6e
=== CODE BLOCK END ===

=== CODE BLOCK ADDRESS 0x5c6e ===
  0x5c6e	cmp    	dword ptr [eax], 0xc0000005
  0x5c74	sete   	cl
  0x5c77	mov    	eax, ecx
  0x5c79	dec    	eax
  0x5c7a	add    	esp, 0x20
  === BLOCK LINK ===
    0x5c7d
=== CODE BLOCK END ===

=== CODE BLOCK ADDRESS 0x5c7d ===
  0x5c7d	pop    	ebp
  0x5c7e	ret    	
  0x5c7f	int3   	
  0x5c80	int3   	
  0x5c81	int3   	
  === BLOCK LINK ===
    0x5c82
=== CODE BLOCK END ===

=== CODE BLOCK ADDRESS 0x5c82 ===
  0x5c82	int3   	
  0x5c83	int3   	
  0x5c84	int3   	
  0x5c85	int3   	
  0x5c86	inc    	eax
  === BLOCK LINK ===
    0x5c87
=== CODE BLOCK END ===

=== CODE BLOCK ADDRESS 0x5c87 ===
  0x5c87	push   	ebp
  0x5c88	dec    	eax
  0x5c89	sub    	esp, 0x20
  0x5c8c	dec    	eax
  0x5c8d	mov    	ebp, edx
  === BLOCK LINK ===
    0x5c8f
=== CODE BLOCK END ===

=== CODE BLOCK ADDRESS 0x5c8f ===
  0x5c8f	mov    	ecx, 8
  0x5c94	call   	0x5883
  === BLOCK LINK ===
    0x5c99
=== CODE BLOCK END ===

=== CODE BLOCK ADDRESS 0x5c99 ===
  0x5c99	nop    	
  0x5c9a	dec    	eax
  0x5c9b	add    	esp, 0x20
  0x5c9e	pop    	ebp
  0x5c9f	ret    	
  === BLOCK LINK ===
    0x5ca0
=== CODE BLOCK END ===

=== CODE BLOCK ADDRESS 0x1c57 ===
  0x1c57	dec    	eax
  0x1c58	cmp    	esi, ebx
  0x1c5a	je     	0x1c6d
  === BLOCK LINK ===
    0x1c5c
=== CODE BLOCK END ===

=== CODE BLOCK ADDRESS 0x5ca0 ===
  0x5ca0	int3   	
  0x5ca1	int3   	
  0x5ca2	int3   	
  0x5ca3	int3   	
  0x5ca4	int3   	
  === BLOCK LINK ===
    0x5ca5
=== CODE BLOCK END ===

=== CODE BLOCK ADDRESS 0x5ca5 ===
  0x5ca5	int3   	
  0x5ca6	int3   	
  0x5ca7	dec    	eax
  0x5ca8	mov    	dword ptr [esp + 0x10], edx
  0x5cac	push   	ebp
  === BLOCK LINK ===
    0x5cad
=== CODE BLOCK END ===

=== CODE BLOCK ADDRESS 0x5cad ===
  0x5cad	dec    	eax
  0x5cae	sub    	esp, 0x20
  0x5cb1	dec    	eax
  0x5cb2	mov    	ebp, edx
  0x5cb4	dec    	eax
  === BLOCK LINK ===
    0x5cb5
=== CODE BLOCK END ===

=== CODE BLOCK ADDRESS 0x5cb5 ===
  0x5cb5	and    	dword ptr [ebp + 0x50], 0
  0x5cb9	dec    	eax
  0x5cba	lea    	eax, [0xfffffcf9]
  0x5cc0	dec    	eax
  0x5cc1	add    	esp, 0x20
  === BLOCK LINK ===
    0x5cc4
=== CODE BLOCK END ===

=== CODE BLOCK ADDRESS 0x5cc4 ===
  0x5cc4	pop    	ebp
  0x5cc5	ret    	
  0x5cc6	int3   	
  0x5cc7	int3   	
  0x5cc8	int3   	
  === BLOCK LINK ===
    0x5cc9
=== CODE BLOCK END ===

=== CODE BLOCK ADDRESS 0x5cc9 ===
  0x5cc9	int3   	
  0x5cca	int3   	
  0x5ccb	int3   	
  0x5ccc	int3   	
  0x5ccd	int3   	
  === BLOCK LINK ===
    0x5cce
=== CODE BLOCK END ===

=== CODE BLOCK ADDRESS 0x5cce ===
  0x5cce	int3   	
  0x5ccf	int3   	
  0x5cd0	dec    	eax
  0x5cd1	sub    	esp, 0x28
  0x5cd4	dec    	eax
  === BLOCK LINK ===
    0x5cd5
=== CODE BLOCK END ===

=== CODE BLOCK ADDRESS 0x5cd5 ===
  0x5cd5	mov    	ecx, dword ptr [0x342d]
  0x5cdb	dec    	eax
  0x5cdc	test   	ecx, ecx
  0x5cde	je     	0x5ce5
  === BLOCK LINK ===
    0x5ce0
=== CODE BLOCK END ===

=== CODE BLOCK ADDRESS 0x5ce0 ===
  0x5ce0	call   	0x5250
  === BLOCK LINK ===
    0x5ce5
=== CODE BLOCK END ===

=== CODE BLOCK ADDRESS 0x5ce5 ===
  0x5ce5	dec    	eax
  0x5ce6	add    	esp, 0x28
  0x5ce9	ret    	
  0x5cea	int3   	
  0x5ceb	int3   	
  === BLOCK LINK ===
    0x5cec
=== CODE BLOCK END ===

=== CODE BLOCK ADDRESS 0x5cec ===
  0x5cec	int3   	
  0x5ced	int3   	
  0x5cee	int3   	
  0x5cef	int3   	
  0x5cf0	int3   	
  === BLOCK LINK ===
    0x5cf1
=== CODE BLOCK END ===

=== CODE BLOCK ADDRESS 0x5cf1 ===
  0x5cf1	int3   	
  0x5cf2	int3   	
  0x5cf3	int3   	
  0x5cf4	int3   	
  0x5cf5	int3   	
  === BLOCK LINK ===
    0x5cf6
=== CODE BLOCK END ===

=== CODE BLOCK ADDRESS 0x5cf6 ===
  0x5cf6	int3   	
  0x5cf7	int3   	
  0x5cf8	int3   	
  0x5cf9	int3   	
  0x5cfa	int3   	
  === BLOCK LINK ===
    0x5cfb
=== CODE BLOCK END ===

=== CODE BLOCK ADDRESS 0x5cfb ===
  0x5cfb	int3   	
  0x5cfc	int3   	
  0x5cfd	int3   	
  0x5cfe	int3   	
  0x5cff	int3   	
  === BLOCK LINK ===
    0x5d00
=== CODE BLOCK END ===

=== CODE BLOCK ADDRESS 0x5d00 ===
  0x5d00	dec    	eax
  0x5d01	sub    	esp, 0x28
  0x5d04	dec    	eax
  0x5d05	mov    	ecx, dword ptr [0x340d]
  0x5d0b	dec    	eax
  === BLOCK LINK ===
    0x5d0c
=== CODE BLOCK END ===

=== CODE BLOCK ADDRESS 0x5d0c ===
  0x5d0c	test   	ecx, ecx
  0x5d0e	je     	0x5d15
  === BLOCK LINK ===
    0x5d10
=== CODE BLOCK END ===

=== CODE BLOCK ADDRESS 0x5d10 ===
  0x5d10	call   	0x4a80
  === BLOCK LINK ===
    0x5d15
=== CODE BLOCK END ===

=== CODE BLOCK ADDRESS 0x5d15 ===
  0x5d15	dec    	eax
  0x5d16	add    	esp, 0x28
  0x5d19	ret    	
  0x5d1a	int3   	
  0x5d1b	int3   	
  === BLOCK LINK ===
    0x5d1c
=== CODE BLOCK END ===

=== CODE BLOCK ADDRESS 0x1c6d ===
  0x1c6d	dec    	eax
  0x1c6e	mov    	eax, ebx
  0x1c70	dec    	eax
  === BLOCK LINK ===
    0x1c71
=== CODE BLOCK END ===

=== CODE BLOCK ADDRESS 0x5d1c ===
  0x5d1c	int3   	
  0x5d1d	int3   	
  0x5d1e	int3   	
  0x5d1f	int3   	
  0x5d20	int3   	
  === BLOCK LINK ===
    0x5d21
=== CODE BLOCK END ===

=== CODE BLOCK ADDRESS 0x5d21 ===
  0x5d21	int3   	
  0x5d22	int3   	
  0x5d23	int3   	
  0x5d24	int3   	
  0x5d25	int3   	
  === BLOCK LINK ===
    0x5d26
=== CODE BLOCK END ===

=== CODE BLOCK ADDRESS 0x5d26 ===
  0x5d26	int3   	
  0x5d27	int3   	
  0x5d28	int3   	
  0x5d29	int3   	
  0x5d2a	int3   	
  === BLOCK LINK ===
    0x5d2b
=== CODE BLOCK END ===

=== CODE BLOCK ADDRESS 0x5d2b ===
  0x5d2b	int3   	
  0x5d2c	int3   	
  0x5d2d	int3   	
  0x5d2e	int3   	
  0x5d2f	int3   	
  === BLOCK LINK ===
    0x5d30
=== CODE BLOCK END ===

=== CODE BLOCK ADDRESS 0x5d30 ===
  0x5d30	dec    	eax
  0x5d31	mov    	dword ptr [esp + 8], ebx
  0x5d35	dec    	eax
  0x5d36	mov    	dword ptr [esp + 0x10], esi
  0x5d3a	push   	edi
  === BLOCK LINK ===
    0x5d3b
=== CODE BLOCK END ===

=== CODE BLOCK ADDRESS 0x5d3b ===
  0x5d3b	dec    	eax
  0x5d3c	sub    	esp, 0x20
  0x5d3f	dec    	eax
  0x5d40	lea    	edi, [0x3bba]
  0x5d46	dec    	eax
  === BLOCK LINK ===
    0x5d47
=== CODE BLOCK END ===

=== CODE BLOCK ADDRESS 0x5d47 ===
  0x5d47	mov    	esi, dword ptr [edi]
  0x5d49	jmp    	0x5d72
  === BLOCK LINK ===
    0x5d4b
=== CODE BLOCK END ===

=== CODE BLOCK ADDRESS 0x5d4b ===
  0x5d4b	dec    	eax
  0x5d4c	mov    	ebx, esi
  0x5d4e	dec    	eax
  0x5d4f	mov    	esi, dword ptr [esi + 8]
  0x5d52	dec    	eax
  === BLOCK LINK ===
    0x5d53
=== CODE BLOCK END ===

=== CODE BLOCK ADDRESS 0x5d53 ===
  0x5d53	call   	dword ptr [0x507]
  === BLOCK LINK ===
    0x5d59
=== CODE BLOCK END ===

=== CODE BLOCK ADDRESS 0x5d59 ===
  0x5d59	nop    	dword ptr [eax + eax]
  0x5d5e	dec    	esp
  0x5d5f	mov    	eax, ebx
  0x5d61	xor    	edx, edx
  0x5d63	dec    	eax
  === BLOCK LINK ===
    0x5d64
=== CODE BLOCK END ===

=== CODE BLOCK ADDRESS 0x5d64 ===
  0x5d64	mov    	ecx, eax
  0x5d66	dec    	eax
  0x5d67	call   	dword ptr [0x4eb]
  === BLOCK LINK ===
    0x5d6d
=== CODE BLOCK END ===

=== CODE BLOCK ADDRESS 0x5d6d ===
  0x5d6d	nop    	dword ptr [eax + eax]
  0x5d72	dec    	eax
  0x5d73	test   	esi, esi
  0x5d75	jne    	0x5d4b
  === BLOCK LINK ===
    0x5d77
=== CODE BLOCK END ===

=== CODE BLOCK ADDRESS 0x5d77 ===
  0x5d77	dec    	eax
  0x5d78	mov    	dword ptr [edi], esi
  0x5d7a	dec    	eax
  0x5d7b	lea    	eax, [0x3bcf]
  0x5d81	dec    	eax
  === BLOCK LINK ===
    0x5d82
=== CODE BLOCK END ===

=== CODE BLOCK ADDRESS 0x5d82 ===
  0x5d82	add    	edi, 8
  0x5d85	dec    	eax
  0x5d86	cmp    	edi, eax
  0x5d88	jne    	0x5d46
  === BLOCK LINK ===
    0x5d8a
=== CODE BLOCK END ===

=== CODE BLOCK ADDRESS 0x5d8a ===
  0x5d8a	dec    	eax
  0x5d8b	mov    	ebx, dword ptr [esp + 0x30]
  0x5d8f	dec    	eax
  0x5d90	mov    	esi, dword ptr [esp + 0x38]
  0x5d94	dec    	eax
  === BLOCK LINK ===
    0x5d95
=== CODE BLOCK END ===

=== CODE BLOCK ADDRESS 0x5d95 ===
  0x5d95	add    	esp, 0x20
  0x5d98	pop    	edi
  0x5d99	ret    	
  0x5d9a	int3   	
  0x5d9b	add    	byte ptr [eax], al
  === BLOCK LINK ===
    0x5d9d
=== CODE BLOCK END ===

=== CODE BLOCK ADDRESS 0x1c60 ===
  0x1c60	dec    	eax
  0x1c61	inc    	eax
  0x1c63	cmp    	word ptr [ebx + eax*2], cx
  === BLOCK LINK ===
    0x1c67
=== CODE BLOCK END ===

=== CODE BLOCK ADDRESS 0x5d9d ===
  0x5d9d	add    	byte ptr [eax], al
  0x5d9f	add    	byte ptr [eax], al
  0x5da1	add    	byte ptr [eax], al
  0x5da3	add    	byte ptr [eax], al
  0x5da5	add    	byte ptr [eax], al
  === BLOCK LINK ===
    0x5da7
=== CODE BLOCK END ===

=== CODE BLOCK ADDRESS 0x5da7 ===
  0x5da7	add    	byte ptr [eax], al
  0x5da9	add    	byte ptr [eax], al
  0x5dab	add    	byte ptr [eax], al
  0x5dad	add    	byte ptr [eax], al
  0x5daf	add    	byte ptr [eax], al
  === BLOCK LINK ===
    0x5db1
=== CODE BLOCK END ===

=== CODE BLOCK ADDRESS 0x5db1 ===
  0x5db1	add    	byte ptr [eax], al
  0x5db3	add    	byte ptr [eax], al
  0x5db5	add    	byte ptr [eax], al
  0x5db7	add    	byte ptr [eax], al
  0x5db9	add    	byte ptr [eax], al
  === BLOCK LINK ===
    0x5dbb
=== CODE BLOCK END ===

=== CODE BLOCK ADDRESS 0x5dbb ===
  0x5dbb	add    	byte ptr [eax], al
  0x5dbd	add    	byte ptr [eax], al
  0x5dbf	add    	byte ptr [eax], al
  0x5dc1	add    	byte ptr [eax], al
  0x5dc3	add    	byte ptr [eax], al
  === BLOCK LINK ===
    0x5dc5
=== CODE BLOCK END ===

=== CODE BLOCK ADDRESS 0x5dc5 ===
  0x5dc5	add    	byte ptr [eax], al
  0x5dc7	add    	byte ptr [eax], al
  0x5dc9	add    	byte ptr [eax], al
  0x5dcb	add    	byte ptr [eax], al
  0x5dcd	add    	byte ptr [eax], al
  === BLOCK LINK ===
    0x5dcf
=== CODE BLOCK END ===

=== CODE BLOCK ADDRESS 0x5dcf ===
  0x5dcf	add    	byte ptr [eax], al
  0x5dd1	add    	byte ptr [eax], al
  0x5dd3	add    	byte ptr [eax], al
  0x5dd5	add    	byte ptr [eax], al
  0x5dd7	add    	byte ptr [eax], al
  === BLOCK LINK ===
    0x5dd9
=== CODE BLOCK END ===

=== CODE BLOCK ADDRESS 0x5dd9 ===
  0x5dd9	add    	byte ptr [eax], al
  0x5ddb	add    	byte ptr [eax], al
  0x5ddd	add    	byte ptr [eax], al
  0x5ddf	add    	byte ptr [eax], al
  0x5de1	add    	byte ptr [eax], al
  === BLOCK LINK ===
    0x5de3
=== CODE BLOCK END ===

=== CODE BLOCK ADDRESS 0x5de3 ===
  0x5de3	add    	byte ptr [eax], al
  0x5de5	add    	byte ptr [eax], al
  0x5de7	add    	byte ptr [eax], al
  0x5de9	add    	byte ptr [eax], al
  0x5deb	add    	byte ptr [eax], al
  === BLOCK LINK ===
    0x5ded
=== CODE BLOCK END ===

=== CODE BLOCK ADDRESS 0x5ded ===
  0x5ded	add    	byte ptr [eax], al
  0x5def	add    	byte ptr [eax], al
  0x5df1	add    	byte ptr [eax], al
  0x5df3	add    	byte ptr [eax], al
  0x5df5	add    	byte ptr [eax], al
  === BLOCK LINK ===
    0x5df7
=== CODE BLOCK END ===

=== CODE BLOCK ADDRESS 0x5df7 ===
  0x5df7	add    	byte ptr [eax], al
  0x5df9	add    	byte ptr [eax], al
  0x5dfb	add    	byte ptr [eax], al
  0x5dfd	add    	byte ptr [eax], al
=== CODE BLOCK END ===

=== DATA BLOCK ADDRESS 0x6000 ===
  0x6000	b0 52 00 40 01 00 00 00 40 92 00 40 01 00 00 00 	0R0@0000@00@0000
  0x6010	e0 92 00 40 01 00 00 00 40 27 00 40 01 00 00 00 	000@0000@'0@0000
  0x6020	80 26 00 40 01 00 00 00 00 00 00 00 00 00 00 00 	0&0@000000000000
  0x6030	18 01 00 00 00 00 00 00 00 00 00 00 00 00 00 00 	0000000000000000
  0x6040	00 00 00 00 00 00 00 00 00 00 00 00 00 00 00 00 	0000000000000000
  0x6050	00 00 00 00 00 00 00 00 00 00 00 00 00 00 00 00 	0000000000000000
  0x6060	00 00 00 00 00 00 00 00 00 00 00 00 00 00 00 00 	0000000000000000
  0x6070	00 00 00 00 00 00 00 00 00 00 00 00 00 00 00 00 	0000000000000000
  0x6080	00 00 00 00 00 00 00 00 a8 91 00 40 01 00 00 00 	00000000000@0000
  0x6090	00 00 00 00 00 00 00 00 00 00 00 00 00 00 00 00 	0000000000000000
  0x60a0	78 65 00 40 01 00 00 00 80 65 00 40 01 00 00 00 	xe0@00000e0@0000
  0x60b0	0c 66 00 40 01 00 00 00 1e 00 00 00 00 00 00 00 	0f0@000000000000
  0x60c0	00 75 41 00 00 00 00 00 00 00 00 00 00 00 00 00 	0uA0000000000000
  0x60d0	84 66 00 40 01 00 00 00 01 00 00 00 00 00 00 00 	0f0@000000000000
  0x60e0	00 00 00 00 00 00 00 00 00 00 00 00 00 00 00 00 	0000000000000000
  0x60f0	00 00 00 00 00 00 00 00 00 00 00 00 00 00 00 00 	0000000000000000
  0x6100	00 00 00 00 00 00 00 00 00 00 00 00 00 00 00 00 	0000000000000000
  0x6110	00 00 00 00 00 00 00 00 00 00 00 00 00 00 00 00 	0000000000000000
  0x6120	00 00 00 00 00 00 00 00 00 00 00 00 00 00 00 00 	0000000000000000
  0x6130	00 00 00 00 00 00 00 00 f8 65 00 40 01 00 00 00 	000000000e0@0000
  0x6140	05 00 00 00 00 00 00 00 14 72 00 40 01 00 00 00 	000000000r0@0000
  0x6150	1c 72 00 40 01 00 00 00 c0 97 00 40 01 00 00 00 	0r0@0000000@0000
  0x6160	f0 65 00 40 01 00 00 00 00 00 00 00 00 00 30 00 	0e0@000000000000
  0x6170	24 83 00 00 00 00 00 00 00 00 00 00 00 00 00 00 	$000000000000000
  0x6180	42 83 00 00 00 00 00 00 00 00 00 00 00 00 00 00 	B000000000000000
  0x6190	06 00 00 00 00 00 00 80 00 00 00 00 00 00 00 00 	0000000000000000
  0x61a0	3c 85 00 00 00 00 00 00 3c 84 00 00 00 00 00 00 	<0000000<0000000
  0x61b0	00 00 00 00 00 00 00 00 28 7f 00 00 00 00 00 00 	00000000(0000000
  0x61c0	fa 84 00 00 00 00 00 00 ce 7f 00 00 00 00 00 00 	0000000000000000
  0x61d0	16 7f 00 00 00 00 00 00 00 00 00 00 00 00 00 00 	0000000000000000
  0x61e0	1e 85 00 00 00 00 00 00 fc 85 00 00 00 00 00 00 	0000000000000000
  0x61f0	aa 85 00 00 00 00 00 00 00 00 00 00 00 00 00 00 	0000000000000000
  0x6200	ca 84 00 00 00 00 00 00 fa 7f 00 00 00 00 00 00 	0000000000000000
  0x6210	70 7f 00 00 00 00 00 00 de 80 00 00 00 00 00 00 	p000000000000000
  0x6220	60 85 00 00 00 00 00 00 00 00 00 00 00 00 00 00 	`000000000000000
  0x6230	aa 7f 00 00 00 00 00 00 f8 7e 00 00 00 00 00 00 	000000000~000000
  0x6240	00 00 00 00 00 00 00 00 80 7f 00 00 00 00 00 00 	0000000000000000
  0x6250	00 00 00 00 00 00 00 00 4e 84 00 00 00 00 00 00 	00000000N0000000
  0x6260	0c 85 00 00 00 00 00 00 dc 84 00 00 00 00 00 00 	0000000000000000
  0x6270	00 00 00 00 00 00 00 00 4c 7f 00 00 00 00 00 00 	00000000L0000000
  0x6280	9e 7f 00 00 00 00 00 00 00 00 00 00 00 00 00 00 	0000000000000000
  0x6290	e8 84 00 00 00 00 00 00 5a 84 00 00 00 00 00 00 	00000000Z0000000
  0x62a0	18 80 00 00 00 00 00 00 26 84 00 00 00 00 00 00 	00000000&0000000
  0x62b0	00 00 00 00 00 00 00 00 90 84 00 00 00 00 00 00 	0000000000000000
  0x62c0	00 00 00 00 00 00 00 00 04 7f 00 00 00 00 00 00 	0000000000000000
  0x62d0	00 00 00 00 00 00 00 00 5c 80 00 00 00 00 00 00 	0000000000000000
  0x62e0	46 80 00 00 00 00 00 00 0e 81 00 00 00 00 00 00 	F000000000000000
  0x62f0	e8 7f 00 00 00 00 00 00 fa 80 00 00 00 00 00 00 	0000000000000000
  0x6300	00 00 00 00 00 00 00 00 2c 80 00 00 00 00 00 00 	00000000,0000000
  0x6310	00 00 00 00 00 00 00 00 b0 80 00 00 00 00 00 00 	0000000000000000
  0x6320	9c 80 00 00 00 00 00 00 ca 80 00 00 00 00 00 00 	0000000000000000
  0x6330	00 00 00 00 00 00 00 00 d8 85 00 00 00 00 00 00 	0000000000000000
  0x6340	9a 85 00 00 00 00 00 00 84 85 00 00 00 00 00 00 	0000000000000000
  0x6350	2a 86 00 00 00 00 00 00 ea 85 00 00 00 00 00 00 	*000000000000000
  0x6360	10 86 00 00 00 00 00 00 70 85 00 00 00 00 00 00 	00000000p0000000
  0x6370	4a 85 00 00 00 00 00 00 c0 85 00 00 00 00 00 00 	J000000000000000
  0x6380	00 00 00 00 00 00 00 00 60 86 00 00 00 00 00 00 	00000000`0000000
  0x6390	e0 7f 00 00 00 00 00 00 44 86 00 00 00 00 00 00 	00000000D0000000
  0x63a0	00 00 00 00 00 00 00 00 72 80 00 00 00 00 00 00 	00000000r0000000
  0x63b0	8c 80 00 00 00 00 00 00 00 00 00 00 00 00 00 00 	0000000000000000
  0x63c0	a2 84 00 00 00 00 00 00 b8 84 00 00 00 00 00 00 	0000000000000000
  0x63d0	2c 85 00 00 00 00 00 00 00 00 00 00 00 00 00 00 	,000000000000000
  0x63e0	70 84 00 00 00 00 00 00 00 00 00 00 00 00 00 00 	p000000000000000
  0x63f0	5a 7f 00 00 00 00 00 00 de 7e 00 00 00 00 00 00 	Z00000000~000000
  0x6400	3a 7f 00 00 00 00 00 00 b8 7f 00 00 00 00 00 00 	:000000000000000
  0x6410	8e 7f 00 00 00 00 00 00 00 00 00 00 00 00 00 00 	0000000000000000
  0x6420	5e 87 00 00 00 00 00 00 00 00 00 00 00 00 00 00 	^000000000000000
  0x6430	80 83 00 00 00 00 00 00 00 00 00 00 00 00 00 00 	0000000000000000
  0x6440	86 87 00 00 00 00 00 00 00 00 00 00 00 00 00 00 	0000000000000000
  0x6450	1a 84 00 00 00 00 00 00 0a 84 00 00 00 00 00 00 	0000000000000000
  0x6460	ec 83 00 00 00 00 00 00 d4 83 00 00 00 00 00 00 	0000000000000000
  0x6470	bc 83 00 00 00 00 00 00 b0 83 00 00 00 00 00 00 	0000000000000000
  0x6480	a2 83 00 00 00 00 00 00 de 87 00 00 00 00 00 00 	0000000000000000
  0x6490	bc 87 00 00 00 00 00 00 c8 87 00 00 00 00 00 00 	0000000000000000
  0x64a0	d4 7e 00 00 00 00 00 00 c6 7e 00 00 00 00 00 00 	0~0000000~000000
  0x64b0	bc 7e 00 00 00 00 00 00 b4 7e 00 00 00 00 00 00 	0~0000000~000000
  0x64c0	9c 7e 00 00 00 00 00 00 88 7e 00 00 00 00 00 00 	0~0000000~000000
  0x64d0	70 7e 00 00 00 00 00 00 66 7e 00 00 00 00 00 00 	p~000000f~000000
  0x64e0	5c 7e 00 00 00 00 00 00 44 7e 00 00 00 00 00 00 	0~000000D~000000
  0x64f0	b2 87 00 00 00 00 00 00 38 7e 00 00 00 00 00 00 	000000008~000000
  0x6500	24 7e 00 00 00 00 00 00 16 7e 00 00 00 00 00 00 	$~0000000~000000
  0x6510	0c 7e 00 00 00 00 00 00 04 7e 00 00 00 00 00 00 	0~0000000~000000
  0x6520	fc 7d 00 00 00 00 00 00 ea 7d 00 00 00 00 00 00 	0}0000000}000000
  0x6530	da 7d 00 00 00 00 00 00 cc 7d 00 00 00 00 00 00 	0}0000000}000000
  0x6540	be 7d 00 00 00 00 00 00 a8 7d 00 00 00 00 00 00 	0}0000000}000000
  0x6550	98 7d 00 00 00 00 00 00 00 00 00 00 00 00 00 00 	0}00000000000000
  0x6560	40 00 00 00 00 00 00 80 2c 00 00 00 00 00 00 80 	@0000000,0000000
  0x6570	00 00 00 00 00 00 00 00 b0 56 00 40 01 00 00 00 	000000000V0@0000
  0x6580	50 5b 00 40 01 00 00 00 00 00 00 00 00 00 00 00 	P[0@000000000000
  0x6590	a0 4f 00 40 01 00 00 00 e0 11 00 40 01 00 00 00 	0O0@0000000@0000
  0x65a0	10 12 00 40 01 00 00 00 60 12 00 40 01 00 00 00 	000@0000`00@0000
  0x65b0	80 12 00 40 01 00 00 00 a0 12 00 40 01 00 00 00 	000@0000000@0000
  0x65c0	00 00 00 00 00 00 00 00 00 00 00 00 00 00 00 00 	0000000000000000
  0x65d0	c0 4e 00 40 01 00 00 00 30 53 00 40 01 00 00 00 	0N0@00000S0@0000
  0x65e0	00 00 00 00 00 00 00 00 00 00 00 00 00 00 00 00 	0000000000000000
  0x65f0	00 00 00 00 00 00 00 00 5e 19 00 00 07 52 00 00 	00000000^0000R00
  0x6600	a2 53 00 00 b0 54 00 00 b9 59 00 00 10 10 00 00 	0S000T000Y000000
  0x6610	e0 11 00 00 10 12 00 00 60 12 00 00 80 12 00 00 	00000000`0000000
  0x6620	a0 12 00 00 e0 12 00 00 00 20 00 00 60 21 00 00 	000000000 00`!00
  0x6630	b0 21 00 00 d0 21 00 00 80 26 00 00 40 27 00 00 	0!000!000&00@'00
  0x6640	40 28 00 00 60 28 00 00 90 29 00 00 10 2a 00 00 	@(00`(000)000*00
  0x6650	00 46 00 00 c0 4e 00 00 a0 4f 00 00 f0 4f 00 00 	0F000N000O000O00
  0x6660	b0 52 00 00 f0 52 00 00 30 53 00 00 10 54 00 00 	0R000R000S000T00
  0x6670	b0 56 00 00 00 57 00 00 d0 5c 00 00 00 5d 00 00 	0V000W0000000]00
  0x6680	30 5d 00 00 a0 64 00 00 00 00 00 00 00 00 00 00 	0]000d0000000000
  0x6690	00 00 00 00 00 00 00 00 22 05 93 19 02 00 00 00 	00000000"0000000
  0x66a0	88 72 00 00 01 00 00 00 64 76 00 00 01 00 00 00 	0r000000dv000000
  0x66b0	90 76 00 00 20 00 00 00 00 00 00 00 01 00 00 00 	0v00 00000000000
  0x66c0	00 00 00 00 00 00 00 00 4f 00 4d 00 41 00 44 00 	00000000O0M0A0D0
  0x66d0	4d 00 3a 00 3a 00 41 00 63 00 63 00 6f 00 75 00 	M0:0:0A0c0c0o0u0
  0x66e0	6e 00 74 00 49 00 44 00 00 00 00 00 64 00 00 00 	n0t0I0D00000d000
  0x66f0	69 00 63 00 63 00 69 00 64 00 00 00 00 00 00 00 	i0c0c0i0d0000000
  0x6700	4f 00 6d 00 61 00 44 00 6d 00 4d 00 6f 00 62 00 	O0m0a0D0m0M0o0b0
  0x6710	69 00 6c 00 65 00 4f 00 70 00 65 00 72 00 61 00 	i0l0e0O0p0e0r0a0
  0x6720	74 00 6f 00 72 00 00 00 75 00 6e 00 6b 00 6e 00 	t0o0r000u0n0k0n0
  0x6730	6f 00 77 00 6e 00 00 00 49 00 43 00 43 00 49 00 	o0w0n000I0C0C0I0
  0x6740	44 00 00 00 00 00 00 00 a0 c5 71 37 c4 cc 91 4f 	D000000000q7000O
  0x6750	84 fa 92 48 b9 25 5c 44 00 00 00 00 00 00 00 00 	000H0%0D00000000
  0x6760	45 78 63 65 70 74 69 6f 6e 00 00 00 00 00 00 00 	Exception0000000
  0x6770	52 65 74 75 72 6e 48 72 00 00 00 00 4c 6f 67 48 	ReturnHr0000LogH
  0x6780	72 00 00 00 00 00 00 00 46 61 69 6c 46 61 73 74 	r0000000FailFast
  0x6790	00 00 00 00 00 00 00 00 25 00 68 00 73 00 28 00 	00000000%0h0s0(0
  0x67a0	25 00 75 00 29 00 5c 00 25 00 68 00 73 00 21 00 	%0u0)000%0h0s0!0
  0x67b0	25 00 70 00 3a 00 20 00 00 00 00 00 00 00 00 00 	%0p0:0 000000000
  0x67c0	25 00 68 00 73 00 21 00 25 00 70 00 3a 00 20 00 	%0h0s0!0%0p0:0 0
  0x67d0	00 00 00 00 00 00 00 00 28 00 63 00 61 00 6c 00 	00000000(0c0a0l0
  0x67e0	6c 00 65 00 72 00 3a 00 20 00 25 00 70 00 29 00 	l0e0r0:0 0%0p0)0
  0x67f0	20 00 00 00 00 00 00 00 25 00 68 00 73 00 28 00 	 0000000%0h0s0(0
  0x6800	25 00 64 00 29 00 20 00 74 00 69 00 64 00 28 00 	%0d0)0 0t0i0d0(0
  0x6810	25 00 78 00 29 00 20 00 25 00 30 00 38 00 58 00 	%0x0)0 0%00080X0
  0x6820	20 00 25 00 77 00 73 00 00 00 00 00 00 00 00 00 	 0%0w0s000000000
  0x6830	20 00 20 00 20 00 20 00 00 00 00 00 00 00 00 00 	 0 0 0 000000000
  0x6840	4d 00 73 00 67 00 3a 00 5b 00 25 00 77 00 73 00 	M0s0g0:0[0%0w0s0
  0x6850	5d 00 20 00 00 00 00 00 43 00 61 00 6c 00 6c 00 	]0 00000C0a0l0l0
  0x6860	43 00 6f 00 6e 00 74 00 65 00 78 00 74 00 3a 00 	C0o0n0t0e0x0t0:0
  0x6870	5b 00 25 00 68 00 73 00 5d 00 20 00 00 00 00 00 	[0%0h0s0]0 00000
  0x6880	5b 00 25 00 68 00 73 00 28 00 25 00 68 00 73 00 	[0%0h0s0(0%0h0s0
  0x6890	29 00 5d 00 0a 00 00 00 5b 00 25 00 68 00 73 00 	)0]00000[0%0h0s0
  0x68a0	5d 00 0a 00 00 00 00 00 0a 00 00 00 00 00 00 00 	]000000000000000
  0x68b0	6b 00 65 00 72 00 6e 00 65 00 6c 00 62 00 61 00 	k0e0r0n0e0l0b0a0
  0x68c0	73 00 65 00 2e 00 64 00 6c 00 6c 00 00 00 00 00 	s0e0.0d0l0l00000
  0x68d0	52 61 69 73 65 46 61 69 6c 46 61 73 74 45 78 63 	RaiseFailFastExc
  0x68e0	65 70 74 69 6f 6e 00 00 25 77 73 00 00 00 00 00 	eption00%ws00000
  0x68f0	6e 00 74 00 64 00 6c 00 6c 00 2e 00 64 00 6c 00 	n0t0d0l0l0.0d0l0
  0x6900	6c 00 00 00 00 00 00 00 52 74 6c 44 6c 6c 53 68 	l0000000RtlDllSh
  0x6910	75 74 64 6f 77 6e 49 6e 50 72 6f 67 72 65 73 73 	utdownInProgress
  0x6920	00 00 00 00 00 00 00 00 52 74 6c 44 69 73 6f 77 	00000000RtlDisow
  0x6930	6e 4d 6f 64 75 6c 65 48 65 61 70 41 6c 6c 6f 63 	nModuleHeapAlloc
  0x6940	61 74 69 6f 6e 00 00 00 7b 00 25 00 73 00 7d 00 	ation000{0%0s0}0
  0x6950	00 00 00 00 00 00 00 00 00 00 00 00 00 00 00 00 	0000000000000000
  0x6960	57 00 69 00 6e 00 64 00 6f 00 77 00 73 00 2e 00 	W0i0n0d0o0w0s0.0
  0x6970	49 00 6e 00 74 00 65 00 72 00 6e 00 61 00 6c 00 	I0n0t0e0r0n0a0l0
  0x6980	2e 00 4d 00 61 00 6e 00 61 00 67 00 65 00 6d 00 	.0M0a0n0a0g0e0m0
  0x6990	65 00 6e 00 74 00 2e 00 45 00 6e 00 72 00 6f 00 	e0n0t0.0E0n0r0o0
  0x69a0	6c 00 6c 00 6d 00 65 00 6e 00 74 00 2e 00 45 00 	l0l0m0e0n0t0.0E0
  0x69b0	6e 00 72 00 6f 00 6c 00 6c 00 65 00 72 00 00 00 	n0r0o0l0l0e0r000
  0x69c0	b2 02 b3 9c 9d e7 eb 4b 84 c7 3a bc b9 92 df 4e 	0000000K00:0000N
  0x69d0	e0 e2 86 af 2d b1 6a 4c 9c 5a d7 aa 65 10 1e 90 	0000-0jL0Z00e000
  0x69e0	25 75 21 00 25 75 00 00 00 00 00 00 00 00 00 00 	%u!0%u0000000000
  0x69f0	50 00 72 00 6f 00 63 00 65 00 73 00 73 00 69 00 	P0r0o0c0e0s0s0i0
  0x6a00	6e 00 67 00 20 00 61 00 20 00 57 00 41 00 50 00 	n0g0 0a0 0W0A0P0
  0x6a10	20 00 6d 00 65 00 73 00 73 00 61 00 67 00 65 00 	 0m0e0s0s0a0g0e0
  0x6a20	20 00 73 00 65 00 6e 00 74 00 20 00 66 00 72 00 	 0s0e0n0t0 0f0r0
  0x6a30	6f 00 6d 00 20 00 4f 00 54 00 41 00 00 00 00 00 	o0m0 0O0T0A00000
  0x6a40	41 42 43 44 45 46 47 48 49 4a 4b 4c 4d 4e 4f 50 	ABCDEFGHIJKLMNOP
  0x6a50	51 52 53 54 55 56 57 58 59 5a 61 62 63 64 65 66 	QRSTUVWXYZabcdef
  0x6a60	67 68 69 6a 6b 6c 6d 6e 6f 70 71 72 73 74 75 76 	ghijklmnopqrstuv
  0x6a70	77 78 79 7a 30 31 32 33 34 35 36 37 38 39 2b 2f 	wxyz0123456789+/
  0x6a80	77 69 6c 00 00 00 00 00 6f 6e 65 63 6f 72 65 5c 	wil00000onecore0
  0x6a90	69 6e 74 65 72 6e 61 6c 5c 73 64 6b 5c 69 6e 63 	internal0sdk0inc
  0x6aa0	5c 77 69 6c 5c 6f 70 65 6e 73 6f 75 72 63 65 5c 	0wil0opensource0
  0x6ab0	77 69 6c 5c 72 65 73 6f 75 72 63 65 2e 68 00 00 	wil0resource.h00
  0x6ac0	5f 00 70 00 30 00 00 00 68 00 00 00 00 00 00 00 	_0p00000h0000000
  0x6ad0	57 69 6c 45 72 72 6f 72 5f 30 33 00 00 00 00 00 	WilError_0300000
  0x6ae0	4c 00 6f 00 63 00 61 00 6c 00 5c 00 53 00 4d 00 	L0o0c0a0l000S0M0
  0x6af0	30 00 3a 00 25 00 64 00 3a 00 25 00 64 00 3a 00 	00:0%0d0:0%0d0:0
  0x6b00	25 00 68 00 73 00 00 00 22 05 93 19 02 00 00 00 	%0h0s000"0000000
  0x6b10	88 72 00 00 01 00 00 00 98 72 00 00 01 00 00 00 	0r0000000r000000
  0x6b20	c0 72 00 00 70 00 00 00 00 00 00 00 01 00 00 00 	0r00p00000000000
  0x6b30	22 05 93 19 02 00 00 00 0c 74 00 00 00 00 00 00 	"00000000t000000
  0x6b40	00 00 00 00 03 00 00 00 20 74 00 00 38 00 00 00 	00000000 t008000
  0x6b50	00 00 00 00 01 00 00 00 22 05 93 19 00 00 00 00 	00000000"0000000
  0x6b60	00 00 00 00 00 00 00 00 00 00 00 00 00 00 00 00 	0000000000000000
  0x6b70	00 00 00 00 20 00 00 00 00 00 00 00 05 00 00 00 	0000 00000000000
  0x6b80	22 05 93 19 02 00 00 00 38 75 00 00 00 00 00 00 	"00000008u000000
  0x6b90	00 00 00 00 02 00 00 00 48 75 00 00 50 00 00 00 	00000000Hu00P000
  0x6ba0	00 00 00 00 01 00 00 00 00 00 00 00 00 00 00 00 	0000000000000000
  0x6bb0	00 00 00 00 8d 2b 24 ec 00 00 00 00 02 00 00 00 	00000+$000000000
  0x6bc0	26 00 00 00 58 6e 00 00 58 60 00 00 00 00 00 00 	&000Xn00X`000000
  0x6bd0	8d 2b 24 ec 00 00 00 00 0d 00 00 00 70 03 00 00 	0+$000000000p000
  0x6be0	80 6e 00 00 80 60 00 00 00 00 00 00 8d 2b 24 ec 	0n000`0000000+$0
  0x6bf0	00 00 00 00 10 00 00 00 24 00 00 00 f0 71 00 00 	00000000$0000q00
  0x6c00	f0 63 00 00 00 00 00 00 45 54 57 30 10 00 00 01 	0c000000ETW00000
  0x6c10	86 0e 04 88 2b 05 8a bb 06 0b 05 01 00 00 00 00 	0000+00000000000
  0x6c20	00 20 00 00 16 00 00 4f 6d 61 43 70 43 6f 6e 66 	0 00000OmaCpConf
  0x6c30	69 67 75 72 61 74 69 6f 6e 00 06 0b 05 02 00 00 	iguration0000000
  0x6c40	00 00 00 20 00 00 1f 00 00 4f 6d 61 43 70 43 6f 	000 00000OmaCpCo
  0x6c50	6e 66 69 67 75 72 61 74 69 6f 6e 00 48 72 65 73 	nfiguration0Hres
  0x6c60	75 6c 74 00 14 06 0b 04 00 00 00 00 00 00 00 00 	ult0000000000000
  0x6c70	00 64 00 00 4f 6d 61 43 70 43 68 65 63 6b 41 6e 	0d00OmaCpCheckAn
  0x6c80	64 43 72 65 61 74 65 45 6e 72 6f 6c 6c 6d 65 6e 	dCreateEnrollmen
  0x6c90	74 52 65 63 6f 72 64 3a 20 43 72 65 61 74 69 6e 	tRecord: Creatin
  0x6ca0	67 20 6e 65 77 20 4f 4d 41 43 50 20 65 6e 72 6f 	g new OMACP enro
  0x6cb0	6c 6c 6d 65 6e 74 00 4f 4d 41 43 50 20 45 6e 72 	llment0OMACP Enr
  0x6cc0	6f 6c 6c 6d 65 6e 74 49 44 00 01 48 72 65 73 75 	ollmentID00Hresu
  0x6cd0	6c 74 00 87 0f 06 0b 05 02 00 00 00 00 00 20 00 	lt000000000000 0
  0x6ce0	00 20 00 00 41 63 74 69 76 69 74 79 53 74 6f 70 	0 00ActivityStop
  0x6cf0	70 65 64 41 75 74 6f 6d 61 74 69 63 61 6c 6c 79 	pedAutomatically
  0x6d00	00 06 0b 04 00 00 00 00 00 00 00 00 00 45 00 00 	0000000000000E00
  0x6d10	4f 6d 61 43 70 43 68 65 63 6b 41 6e 64 43 72 65 	OmaCpCheckAndCre
  0x6d20	61 74 65 45 6e 72 6f 6c 6c 6d 65 6e 74 52 65 63 	ateEnrollmentRec
  0x6d30	6f 72 64 00 4f 4d 41 43 50 20 45 6e 72 6f 6c 6c 	ord0OMACP Enroll
  0x6d40	6d 65 6e 74 49 44 00 01 48 72 65 73 75 6c 74 00 	mentID00Hresult0
  0x6d50	87 0f 06 0b 05 00 00 00 00 00 00 40 00 00 5e 00 	00000000000@00^0
  0x6d60	00 4f 6d 61 43 70 43 6f 6e 66 69 67 75 72 61 74 	0OmaCpConfigurat
  0x6d70	69 6f 6e 49 6e 66 6f 72 6d 61 74 69 6f 6e 00 49 	ionInformation0I
  0x6d80	63 63 49 44 00 01 4c 22 50 72 6f 63 65 73 73 69 	ccID00L"Processi
  0x6d90	6e 67 20 61 20 57 41 50 20 6d 65 73 73 61 67 65 	ng a WAP message
  0x6da0	20 73 65 6e 74 20 66 72 6f 6d 20 4f 54 41 22 00 	 sent from OTA"0
  0x6db0	01 5f 5f 54 6c 67 43 56 5f 5f 00 02 06 0b 05 00 	0__TlgCV__000000
  0x6dc0	00 00 00 00 00 40 00 00 39 00 00 4d 6f 62 69 6c 	00000@00900Mobil
  0x6dd0	65 4f 70 65 72 61 74 6f 72 45 6e 72 6f 6c 6c 6d 	eOperatorEnrollm
  0x6de0	65 6e 74 49 44 00 4d 4f 45 6e 72 6f 6c 6c 6d 65 	entID0MOEnrollme
  0x6df0	6e 74 49 44 00 01 5f 5f 54 6c 67 43 56 5f 5f 00 	ntID00__TlgCV__0
  0x6e00	02 04 93 66 03 ff 80 04 dd 41 ac 12 ed 3c 6a 93 	000f00000A000<j0
  0x6e10	6a 5f 44 00 4d 69 63 72 6f 73 6f 66 74 2e 57 69 	j_D0Microsoft.Wi
  0x6e20	6e 64 6f 77 73 2e 44 65 76 69 63 65 4d 61 6e 61 	ndows.DeviceMana
  0x6e30	67 65 6d 65 6e 74 2e 4f 6d 61 43 70 43 6c 69 65 	gement.OmaCpClie
  0x6e40	6e 74 00 13 00 01 1a 73 50 4f cf 89 82 47 b3 e0 	nt00000sPO000G00
  0x6e50	dc e8 c9 04 76 ba 01 00 52 53 44 53 f8 05 7a 8e 	0000v000RSDS00z0
  0x6e60	4f a5 26 69 db b2 a4 8e 78 19 06 b5 01 00 00 00 	O0&i0000x0000000
  0x6e70	44 6d 4f 6d 61 43 70 4d 6f 2e 70 64 62 00 00 00 	DmOmaCpMo.pdb000
  0x6e80	47 43 54 4c 00 10 00 00 e0 01 00 00 2e 74 65 78 	GCTL00000000.tex
  0x6e90	74 00 00 00 e0 11 00 00 f0 00 00 00 2e 74 65 78 	t00000000000.tex
  0x6ea0	74 24 64 69 00 00 00 00 d0 12 00 00 70 48 00 00 	t$di00000000pH00
  0x6eb0	2e 74 65 78 74 24 6d 6e 00 00 00 00 40 5b 00 00 	.text$mn0000@[00
  0x6ec0	80 00 00 00 2e 74 65 78 74 24 6d 6e 24 30 30 00 	0000.text$mn$000
  0x6ed0	c0 5b 00 00 10 01 00 00 2e 74 65 78 74 24 78 00 	0[000000.text$x0
  0x6ee0	d0 5c 00 00 cb 00 00 00 2e 74 65 78 74 24 79 64 	00000000.text$yd
  0x6ef0	00 00 00 00 00 60 00 00 48 01 00 00 2e 72 64 61 	00000`00H000.rda
  0x6f00	74 61 24 62 72 63 00 00 48 61 00 00 28 00 00 00 	ta$brc00Ha00(000
  0x6f10	2e 72 64 61 74 61 24 54 24 62 72 63 00 00 00 00 	.rdata$T$brc0000
  0x6f20	70 61 00 00 08 04 00 00 2e 69 64 61 74 61 24 35 	pa000000.idata$5
  0x6f30	00 00 00 00 78 65 00 00 10 00 00 00 2e 30 30 63 	0000xe000000.00c
  0x6f40	66 67 00 00 88 65 00 00 08 00 00 00 2e 43 52 54 	fg000e000000.CRT
  0x6f50	24 58 43 41 00 00 00 00 90 65 00 00 08 00 00 00 	$XCA00000e000000
  0x6f60	2e 43 52 54 24 58 43 41 41 00 00 00 98 65 00 00 	.CRT$XCAA0000e00
  0x6f70	28 00 00 00 2e 43 52 54 24 58 43 55 00 00 00 00 	(000.CRT$XCU0000
  0x6f80	c0 65 00 00 08 00 00 00 2e 43 52 54 24 58 43 5a 	0e000000.CRT$XCZ
  0x6f90	00 00 00 00 c8 65 00 00 08 00 00 00 2e 43 52 54 	00000e000000.CRT
  0x6fa0	24 58 49 41 00 00 00 00 d0 65 00 00 08 00 00 00 	$XIA00000e000000
  0x6fb0	2e 43 52 54 24 58 49 41 41 00 00 00 d8 65 00 00 	.CRT$XIAA0000e00
  0x6fc0	08 00 00 00 2e 43 52 54 24 58 49 59 00 00 00 00 	0000.CRT$XIY0000
  0x6fd0	e0 65 00 00 08 00 00 00 2e 43 52 54 24 58 49 5a 	0e000000.CRT$XIZ
  0x6fe0	00 00 00 00 e8 65 00 00 08 00 00 00 2e 43 52 54 	00000e000000.CRT
  0x6ff0	24 58 4c 41 00 00 00 00 f0 65 00 00 08 00 00 00 	$XLA00000e000000
  0x7000	2e 43 52 54 24 58 4c 5a 00 00 00 00 f8 65 00 00 	.CRT$XLZ00000e00
  0x7010	14 00 00 00 2e 67 65 68 63 6f 6e 74 00 00 00 00 	0000.gehcont0000
  0x7020	0c 66 00 00 78 00 00 00 2e 67 66 69 64 73 00 00 	0f00x000.gfids00
  0x7030	84 66 00 00 0c 00 00 00 2e 67 69 61 74 73 00 00 	0f000000.giats00
  0x7040	90 66 00 00 78 05 00 00 2e 72 64 61 74 61 00 00 	0f00x000.rdata00
  0x7050	08 6c 00 00 10 00 00 00 2e 72 64 61 74 61 24 7a 	0l000000.rdata$z
  0x7060	45 54 57 30 00 00 00 00 18 6c 00 00 e9 01 00 00 	ETW000000l000000
  0x7070	2e 72 64 61 74 61 24 7a 45 54 57 31 00 00 00 00 	.rdata$zETW10000
  0x7080	01 6e 00 00 55 00 00 00 2e 72 64 61 74 61 24 7a 	0n00U000.rdata$z
  0x7090	45 54 57 32 00 00 00 00 56 6e 00 00 02 00 00 00 	ETW20000Vn000000
  0x70a0	2e 72 64 61 74 61 24 7a 45 54 57 39 00 00 00 00 	.rdata$zETW90000
  0x70b0	58 6e 00 00 bc 03 00 00 2e 72 64 61 74 61 24 7a 	Xn000000.rdata$z
  0x70c0	7a 7a 64 62 67 00 00 00 14 72 00 00 04 00 00 00 	zzdbg0000r000000
  0x70d0	2e 74 6c 73 00 00 00 00 18 72 00 00 04 00 00 00 	.tls00000r000000
  0x70e0	2e 74 6c 73 24 00 00 00 1c 72 00 00 04 00 00 00 	.tls$0000r000000
  0x70f0	2e 74 6c 73 24 5a 5a 5a 00 00 00 00 20 72 00 00 	.tls$ZZZ0000 r00
  0x7100	a0 04 00 00 2e 78 64 61 74 61 00 00 c0 76 00 00 	0000.xdata000v00
  0x7110	88 00 00 00 2e 78 64 61 74 61 24 78 00 00 00 00 	0000.xdata$x0000
  0x7120	48 77 00 00 30 02 00 00 2e 69 64 61 74 61 24 32 	Hw000000.idata$2
  0x7130	00 00 00 00 78 79 00 00 18 00 00 00 2e 69 64 61 	0000xy000000.ida
  0x7140	74 61 24 33 00 00 00 00 90 79 00 00 08 04 00 00 	ta$300000y000000
  0x7150	2e 69 64 61 74 61 24 34 00 00 00 00 98 7d 00 00 	.idata$400000}00
  0x7160	50 0a 00 00 2e 69 64 61 74 61 24 36 00 00 00 00 	P000.idata$60000
  0x7170	00 90 00 00 20 01 00 00 2e 64 61 74 61 24 62 72 	0000 000.data$br
  0x7180	63 00 00 00 20 91 00 00 80 00 00 00 2e 64 61 74 	c000 0000000.dat
  0x7190	61 24 72 24 62 72 63 00 a0 91 00 00 60 00 00 00 	a$r$brc00000`000
  0x71a0	2e 64 61 74 61 00 00 00 00 92 00 00 f8 07 00 00 	.data00000000000
  0x71b0	2e 62 73 73 00 00 00 00 00 a0 00 00 80 04 00 00 	.bss000000000000
  0x71c0	2e 70 64 61 74 61 00 00 00 b0 00 00 60 00 00 00 	.pdata000000`000
  0x71d0	2e 72 73 72 63 24 30 31 00 00 00 00 60 b0 00 00 	.rsrc$010000`000
  0x71e0	b0 03 00 00 2e 72 73 72 63 24 30 32 00 00 00 00 	0000.rsrc$020000
  0x71f0	20 00 00 00 f8 05 7a 8e 4f a5 26 69 db b2 a4 8e 	 00000z0O0&i0000
  0x7200	78 19 06 b5 7f 28 f9 91 ed 35 66 a4 aa dd 48 67 	x0000(0005f000Hg
  0x7210	8d 2b 24 ec 00 00 00 00 00 00 00 80 00 00 00 00 	0+$0000000000000
  0x7220	01 06 02 00 06 72 02 30 01 04 01 00 04 82 00 00 	00000r0000000000
  0x7230	19 25 07 00 17 74 1e 00 17 34 1d 00 17 01 1a 00 	0%000t0004000000
  0x7240	0b 50 00 00 28 5a 00 00 c0 00 00 00 01 15 08 00 	0P00(Z0000000000
  0x7250	15 64 0e 00 15 34 0c 00 15 72 0e e0 0c 70 0b 50 	0d0004000r000p0P
  0x7260	19 37 0b 00 25 74 22 00 21 64 21 00 1d 34 20 00 	0700%t"0!d!004 0
  0x7270	10 01 1c 00 09 f0 07 e0 05 c0 00 00 b0 5a 00 00 	0000000000000Z00
  0x7280	08 6b 00 00 d3 00 00 00 ff ff ff ff 00 00 00 00 	0k00000000000000
  0x7290	ff ff ff ff 00 00 00 00 00 00 00 00 00 00 00 00 	0000000000000000
  0x72a0	01 00 00 00 01 00 00 00 ac 72 00 00 08 00 00 00 	000000000r000000
  0x72b0	20 91 00 00 00 00 00 00 c3 5b 00 00 48 00 00 00 	 00000000[00H000
  0x72c0	d0 1a 00 00 ff ff ff ff 19 0a 02 00 0a 52 06 50 	0000000000000R0P
  0x72d0	5c 52 00 00 08 6b 00 00 19 16 02 00 07 01 11 00 	0R000k0000000000
  0x72e0	28 5a 00 00 70 00 00 00 19 13 01 00 04 c2 00 00 	(Z00p00000000000
  0x72f0	28 5a 00 00 50 00 00 00 01 12 05 00 12 42 0e 70 	(Z00P00000000B0p
  0x7300	0d 60 0c 50 0b 30 00 00 01 11 04 00 11 32 0d 70 	0`0P00000000020p
  0x7310	0c 60 0b 30 19 25 09 00 13 34 53 00 13 01 4a 00 	0`000%0004S000J0
  0x7320	0c f0 0a e0 08 70 07 60 06 50 00 00 28 5a 00 00 	00000p0`0P00(Z00
  0x7330	40 02 00 00 01 14 08 00 14 64 08 00 14 54 07 00 	@00000000d000T00
  0x7340	14 34 06 00 14 32 10 70 19 21 07 00 0f 34 31 00 	0400020p0!000410
  0x7350	0f 01 2a 00 08 70 07 60 06 50 00 00 28 5a 00 00 	00*00p0`0P00(Z00
  0x7360	40 01 00 00 01 04 01 00 04 42 00 00 01 0f 06 00 	@00000000B000000
  0x7370	0f 64 07 00 0f 34 06 00 0f 32 0b 70 01 12 04 00 	0d000400020p0000
  0x7380	12 52 0e 70 0d 60 0c 30 01 1c 0c 00 1c 64 0c 00 	0R0p0`0000000d00
  0x7390	1c 54 0b 00 1c 34 0a 00 1c 32 18 f0 16 e0 14 d0 	0T00040002000000
  0x73a0	12 c0 10 70 01 0a 04 00 0a 34 06 00 0a 32 06 70 	000p00000400020p
  0x73b0	19 21 03 00 0f 01 86 02 02 30 00 00 28 5a 00 00 	0!0000000000(Z00
  0x73c0	20 14 00 00 01 06 02 00 06 32 02 30 01 07 02 00 	 000000002000000
  0x73d0	07 01 1f 00 01 19 0a 00 19 74 09 00 19 64 08 00 	000000000t000d00
  0x73e0	19 54 07 00 19 34 06 00 19 32 15 e0 19 2d 07 00 	0T00040002000-00
  0x73f0	1f 74 1c 00 1b 34 1b 00 0f 01 18 00 04 50 00 00 	0t00040000000P00
  0x7400	b0 5a 00 00 30 6b 00 00 b2 00 00 00 ff ff ff ff 	0Z000k0000000000
  0x7410	eb 5b 00 00 00 00 00 00 fd 5b 00 00 00 00 00 00 	0[0000000[000000
  0x7420	3b 2c 00 00 01 00 00 00 12 2d 00 00 00 00 00 00 	;,0000000-000000
  0x7430	34 2d 00 00 ff ff ff ff 19 19 04 00 0a 34 0d 00 	4-00000000000400
  0x7440	0a 92 06 70 28 5a 00 00 40 00 00 00 19 1f 05 00 	000p(Z00@0000000
  0x7450	0d 34 25 00 0d 01 22 00 06 70 00 00 28 5a 00 00 	04%000"00p00(Z00
  0x7460	00 01 00 00 19 25 07 00 17 74 28 00 17 34 27 00 	00000%000t(004'0
  0x7470	17 01 24 00 0b 50 00 00 28 5a 00 00 10 01 00 00 	00$00P00(Z000000
  0x7480	01 11 09 00 11 c2 0d f0 0b e0 09 d0 07 c0 05 70 	000000000000000p
  0x7490	04 60 03 50 02 30 00 00 01 09 03 00 09 01 18 00 	0`0P000000000000
  0x74a0	02 30 00 00 19 22 04 00 10 01 a5 02 03 70 02 30 	00000"0000000p00
  0x74b0	28 5a 00 00 10 15 00 00 01 04 01 00 04 a2 00 00 	(Z00000000000000
  0x74c0	01 14 08 00 14 64 0e 00 14 54 0d 00 14 34 0c 00 	00000d000T000400
  0x74d0	14 92 10 70 19 0d 01 00 04 62 00 00 5c 52 00 00 	000p00000b000R00
  0x74e0	58 6b 00 00 19 2b 0b 00 19 54 52 00 19 34 51 00 	Xk000+000TR004Q0
  0x74f0	19 01 4a 00 12 f0 10 e0 0e c0 0c 70 0b 60 00 00 	00J00000000p0`00
  0x7500	28 5a 00 00 40 02 00 00 01 0a 04 00 0a 64 06 00 	(Z00@00000000d00
  0x7510	0a 32 06 70 19 36 09 00 25 34 5a 00 18 01 52 00 	020p0600%4Z000R0
  0x7520	0a f0 08 e0 06 70 05 60 04 50 00 00 b0 5a 00 00 	00000p0`0P000Z00
  0x7530	80 6b 00 00 82 02 00 00 ff ff ff ff 0f 5c 00 00 	0k00000000000000
  0x7540	00 00 00 00 21 5c 00 00 cf 48 00 00 ff ff ff ff 	0000!0000H000000
  0x7550	3a 49 00 00 01 00 00 00 01 12 08 00 12 54 0a 00 	:I00000000000T00
  0x7560	12 34 08 00 12 32 0e e0 0c 70 0b 60 19 32 0b 00 	040002000p0`0200
  0x7570	21 64 52 00 21 34 50 00 21 01 4a 00 12 f0 10 e0 	!dR0!4P0!0J00000
  0x7580	0e c0 0c 70 0b 50 00 00 28 5a 00 00 40 02 00 00 	000p0P00(Z00@000
  0x7590	01 04 01 00 04 62 00 00 09 13 07 00 13 74 19 00 	00000b0000000t00
  0x75a0	13 34 18 00 13 01 16 00 0c e0 00 00 ea 55 00 00 	0400000000000U00
  0x75b0	01 00 00 00 2c 50 00 00 07 52 00 00 33 5c 00 00 	0000,P000R003000
  0x75c0	07 52 00 00 01 06 02 00 06 32 02 50 00 00 00 00 	0R000000020P0000
  0x75d0	01 00 00 00 09 04 01 00 04 22 00 00 ea 55 00 00 	000000000"000U00
  0x75e0	01 00 00 00 6c 53 00 00 a2 53 00 00 01 00 00 00 	0000lS000S000000
  0x75f0	a2 53 00 00 09 0a 04 00 0a 34 06 00 0a 32 06 70 	0S0000000400020p
  0x7600	ea 55 00 00 01 00 00 00 7d 54 00 00 b0 54 00 00 	0U000000}T000T00
  0x7610	60 5c 00 00 b0 54 00 00 01 0d 04 00 0d 34 09 00 	`0000T0000000400
  0x7620	0d 32 06 50 11 06 02 00 06 32 02 30 ea 55 00 00 	020P000002000U00
  0x7630	01 00 00 00 31 56 00 00 76 56 00 00 86 5c 00 00 	00001V00vV000000
  0x7640	00 00 00 00 01 0c 02 00 0c 01 11 00 00 00 00 00 	0000000000000000
  0x7650	01 00 00 00 19 0d 01 00 04 62 00 00 5c 52 00 00 	000000000b000R00
  0x7660	98 66 00 00 00 00 00 00 00 00 00 00 01 00 00 00 	0f00000000000000
  0x7670	01 00 00 00 78 76 00 00 40 00 00 00 00 00 00 00 	0000xv00@0000000
  0x7680	00 00 00 00 a7 5c 00 00 38 00 00 00 00 00 00 00 	0000000080000000
  0x7690	b1 59 00 00 00 00 00 00 19 0a 02 00 0a 32 06 50 	0Y0000000000020P
  0x76a0	5c 52 00 00 98 66 00 00 01 02 01 00 02 30 00 00 	0R000f0000000000
  0x76b0	02 04 03 00 01 16 00 06 04 12 00 00 00 00 00 00 	0000000000000000
  0x76c0	02 00 00 00 d8 76 00 00 00 77 00 00 00 00 00 00 	00000v000w000000
  0x76d0	00 00 00 00 00 00 00 00 00 00 00 00 48 91 00 00 	000000000000H000
  0x76e0	00 00 00 00 ff ff ff ff 00 00 00 00 c8 00 00 00 	0000000000000000
  0x76f0	8c 28 00 00 00 00 00 00 00 00 00 00 00 00 00 00 	0(00000000000000
  0x7700	00 00 00 00 78 91 00 00 00 00 00 00 ff ff ff ff 	0000x00000000000
  0x7710	00 00 00 00 18 00 00 00 a6 58 00 00 00 00 00 00 	000000000X000000
  0x7720	00 00 00 00 00 00 00 00 00 00 00 00 78 27 00 00 	000000000000x'00
  0x7730	00 00 00 00 c0 76 00 00 00 00 00 00 00 00 00 00 	00000v0000000000
  0x7740	00 00 00 00 00 00 00 00 70 7c 00 00 00 00 00 00 	00000000p|000000
  0x7750	00 00 00 00 7c 7e 00 00 50 64 00 00 10 7c 00 00 	0000|~00Pd000|00
  0x7760	00 00 00 00 00 00 00 00 22 81 00 00 f0 63 00 00 	00000000"0000c00
  0x7770	50 7a 00 00 00 00 00 00 00 00 00 00 4a 81 00 00 	Pz0000000000J000
  0x7780	30 62 00 00 e8 7a 00 00 00 00 00 00 00 00 00 00 	0b000z0000000000
  0x7790	6a 81 00 00 c8 62 00 00 d8 79 00 00 00 00 00 00 	j0000b000y000000
  0x77a0	00 00 00 00 98 81 00 00 b8 61 00 00 98 7a 00 00 	000000000a000z00
  0x77b0	00 00 00 00 00 00 00 00 b8 81 00 00 78 62 00 00 	000000000000xb00
  0x77c0	20 7a 00 00 00 00 00 00 00 00 00 00 d8 81 00 00 	 z00000000000000
  0x77d0	00 62 00 00 68 7a 00 00 00 00 00 00 00 00 00 00 	0b00hz0000000000
  0x77e0	02 82 00 00 48 62 00 00 b0 79 00 00 00 00 00 00 	0000Hb000y000000
  0x77f0	00 00 00 00 24 82 00 00 90 61 00 00 a8 7b 00 00 	0000$0000a000{00
  0x7800	00 00 00 00 00 00 00 00 32 82 00 00 88 63 00 00 	0000000020000c00
  0x7810	f8 7a 00 00 00 00 00 00 00 00 00 00 54 82 00 00 	0z0000000000T000
  0x7820	d8 62 00 00 b0 7a 00 00 00 00 00 00 00 00 00 00 	0b000z0000000000
  0x7830	7e 82 00 00 90 62 00 00 28 7b 00 00 00 00 00 00 	~0000b00({000000
  0x7840	00 00 00 00 a8 82 00 00 08 63 00 00 c8 7b 00 00 	000000000c000{00
  0x7850	00 00 00 00 00 00 00 00 cc 82 00 00 a8 63 00 00 	0000000000000c00
  0x7860	38 7b 00 00 00 00 00 00 00 00 00 00 f0 82 00 00 	8{00000000000000
  0x7870	18 63 00 00 80 7d 00 00 00 00 00 00 00 00 00 00 	0c000}0000000000
  0x7880	16 83 00 00 60 65 00 00 90 79 00 00 00 00 00 00 	0000`e000y000000
  0x7890	00 00 00 00 32 83 00 00 70 61 00 00 a0 79 00 00 	00002000pa000y00
  0x78a0	00 00 00 00 00 00 00 00 66 83 00 00 80 61 00 00 	00000000f0000a00
  0x78b0	50 7c 00 00 00 00 00 00 00 00 00 00 94 83 00 00 	P|00000000000000
  0x78c0	30 64 00 00 c0 79 00 00 00 00 00 00 00 00 00 00 	0d000y0000000000
  0x78d0	7c 86 00 00 a0 61 00 00 78 7a 00 00 00 00 00 00 	|0000a00xz000000
  0x78e0	00 00 00 00 88 86 00 00 58 62 00 00 00 7c 00 00 	00000000Xb000|00
  0x78f0	00 00 00 00 00 00 00 00 a8 86 00 00 e0 63 00 00 	0000000000000c00
  0x7900	d8 7a 00 00 00 00 00 00 00 00 00 00 d0 86 00 00 	0z00000000000000
  0x7910	b8 62 00 00 e0 7b 00 00 00 00 00 00 00 00 00 00 	0b000{0000000000
  0x7920	f8 86 00 00 c0 63 00 00 00 7a 00 00 00 00 00 00 	00000c000z000000
  0x7930	00 00 00 00 1a 87 00 00 e0 61 00 00 58 7b 00 00 	000000000a00X{00
  0x7940	00 00 00 00 00 00 00 00 3c 87 00 00 38 63 00 00 	00000000<0008c00
  0x7950	40 7c 00 00 00 00 00 00 00 00 00 00 72 87 00 00 	@|0000000000r000
  0x7960	20 64 00 00 60 7c 00 00 00 00 00 00 00 00 00 00 	 d00`|0000000000
  0x7970	a0 87 00 00 40 64 00 00 00 00 00 00 00 00 00 00 	0000@d0000000000
  0x7980	00 00 00 00 00 00 00 00 00 00 00 00 00 00 00 00 	0000000000000000
  0x7990	24 83 00 00 00 00 00 00 00 00 00 00 00 00 00 00 	$000000000000000
  0x79a0	42 83 00 00 00 00 00 00 00 00 00 00 00 00 00 00 	B000000000000000
  0x79b0	06 00 00 00 00 00 00 80 00 00 00 00 00 00 00 00 	0000000000000000
  0x79c0	3c 85 00 00 00 00 00 00 3c 84 00 00 00 00 00 00 	<0000000<0000000
  0x79d0	00 00 00 00 00 00 00 00 28 7f 00 00 00 00 00 00 	00000000(0000000
  0x79e0	fa 84 00 00 00 00 00 00 ce 7f 00 00 00 00 00 00 	0000000000000000
  0x79f0	16 7f 00 00 00 00 00 00 00 00 00 00 00 00 00 00 	0000000000000000
  0x7a00	1e 85 00 00 00 00 00 00 fc 85 00 00 00 00 00 00 	0000000000000000
  0x7a10	aa 85 00 00 00 00 00 00 00 00 00 00 00 00 00 00 	0000000000000000
  0x7a20	ca 84 00 00 00 00 00 00 fa 7f 00 00 00 00 00 00 	0000000000000000
  0x7a30	70 7f 00 00 00 00 00 00 de 80 00 00 00 00 00 00 	p000000000000000
  0x7a40	60 85 00 00 00 00 00 00 00 00 00 00 00 00 00 00 	`000000000000000
  0x7a50	aa 7f 00 00 00 00 00 00 f8 7e 00 00 00 00 00 00 	000000000~000000
  0x7a60	00 00 00 00 00 00 00 00 80 7f 00 00 00 00 00 00 	0000000000000000
  0x7a70	00 00 00 00 00 00 00 00 4e 84 00 00 00 00 00 00 	00000000N0000000
  0x7a80	0c 85 00 00 00 00 00 00 dc 84 00 00 00 00 00 00 	0000000000000000
  0x7a90	00 00 00 00 00 00 00 00 4c 7f 00 00 00 00 00 00 	00000000L0000000
  0x7aa0	9e 7f 00 00 00 00 00 00 00 00 00 00 00 00 00 00 	0000000000000000
  0x7ab0	e8 84 00 00 00 00 00 00 5a 84 00 00 00 00 00 00 	00000000Z0000000
  0x7ac0	18 80 00 00 00 00 00 00 26 84 00 00 00 00 00 00 	00000000&0000000
  0x7ad0	00 00 00 00 00 00 00 00 90 84 00 00 00 00 00 00 	0000000000000000
  0x7ae0	00 00 00 00 00 00 00 00 04 7f 00 00 00 00 00 00 	0000000000000000
  0x7af0	00 00 00 00 00 00 00 00 5c 80 00 00 00 00 00 00 	0000000000000000
  0x7b00	46 80 00 00 00 00 00 00 0e 81 00 00 00 00 00 00 	F000000000000000
  0x7b10	e8 7f 00 00 00 00 00 00 fa 80 00 00 00 00 00 00 	0000000000000000
  0x7b20	00 00 00 00 00 00 00 00 2c 80 00 00 00 00 00 00 	00000000,0000000
  0x7b30	00 00 00 00 00 00 00 00 b0 80 00 00 00 00 00 00 	0000000000000000
  0x7b40	9c 80 00 00 00 00 00 00 ca 80 00 00 00 00 00 00 	0000000000000000
  0x7b50	00 00 00 00 00 00 00 00 d8 85 00 00 00 00 00 00 	0000000000000000
  0x7b60	9a 85 00 00 00 00 00 00 84 85 00 00 00 00 00 00 	0000000000000000
  0x7b70	2a 86 00 00 00 00 00 00 ea 85 00 00 00 00 00 00 	*000000000000000
  0x7b80	10 86 00 00 00 00 00 00 70 85 00 00 00 00 00 00 	00000000p0000000
  0x7b90	4a 85 00 00 00 00 00 00 c0 85 00 00 00 00 00 00 	J000000000000000
  0x7ba0	00 00 00 00 00 00 00 00 60 86 00 00 00 00 00 00 	00000000`0000000
  0x7bb0	e0 7f 00 00 00 00 00 00 44 86 00 00 00 00 00 00 	00000000D0000000
  0x7bc0	00 00 00 00 00 00 00 00 72 80 00 00 00 00 00 00 	00000000r0000000
  0x7bd0	8c 80 00 00 00 00 00 00 00 00 00 00 00 00 00 00 	0000000000000000
  0x7be0	a2 84 00 00 00 00 00 00 b8 84 00 00 00 00 00 00 	0000000000000000
  0x7bf0	2c 85 00 00 00 00 00 00 00 00 00 00 00 00 00 00 	,000000000000000
  0x7c00	70 84 00 00 00 00 00 00 00 00 00 00 00 00 00 00 	p000000000000000
  0x7c10	5a 7f 00 00 00 00 00 00 de 7e 00 00 00 00 00 00 	Z00000000~000000
  0x7c20	3a 7f 00 00 00 00 00 00 b8 7f 00 00 00 00 00 00 	:000000000000000
  0x7c30	8e 7f 00 00 00 00 00 00 00 00 00 00 00 00 00 00 	0000000000000000
  0x7c40	5e 87 00 00 00 00 00 00 00 00 00 00 00 00 00 00 	^000000000000000
  0x7c50	80 83 00 00 00 00 00 00 00 00 00 00 00 00 00 00 	0000000000000000
  0x7c60	86 87 00 00 00 00 00 00 00 00 00 00 00 00 00 00 	0000000000000000
  0x7c70	1a 84 00 00 00 00 00 00 0a 84 00 00 00 00 00 00 	0000000000000000
  0x7c80	ec 83 00 00 00 00 00 00 d4 83 00 00 00 00 00 00 	0000000000000000
  0x7c90	bc 83 00 00 00 00 00 00 b0 83 00 00 00 00 00 00 	0000000000000000
  0x7ca0	a2 83 00 00 00 00 00 00 de 87 00 00 00 00 00 00 	0000000000000000
  0x7cb0	bc 87 00 00 00 00 00 00 c8 87 00 00 00 00 00 00 	0000000000000000
  0x7cc0	d4 7e 00 00 00 00 00 00 c6 7e 00 00 00 00 00 00 	0~0000000~000000
  0x7cd0	bc 7e 00 00 00 00 00 00 b4 7e 00 00 00 00 00 00 	0~0000000~000000
  0x7ce0	9c 7e 00 00 00 00 00 00 88 7e 00 00 00 00 00 00 	0~0000000~000000
  0x7cf0	70 7e 00 00 00 00 00 00 66 7e 00 00 00 00 00 00 	p~000000f~000000
  0x7d00	5c 7e 00 00 00 00 00 00 44 7e 00 00 00 00 00 00 	0~000000D~000000
  0x7d10	b2 87 00 00 00 00 00 00 38 7e 00 00 00 00 00 00 	000000008~000000
  0x7d20	24 7e 00 00 00 00 00 00 16 7e 00 00 00 00 00 00 	$~0000000~000000
  0x7d30	0c 7e 00 00 00 00 00 00 04 7e 00 00 00 00 00 00 	0~0000000~000000
  0x7d40	fc 7d 00 00 00 00 00 00 ea 7d 00 00 00 00 00 00 	0}0000000}000000
  0x7d50	da 7d 00 00 00 00 00 00 cc 7d 00 00 00 00 00 00 	0}0000000}000000
  0x7d60	be 7d 00 00 00 00 00 00 a8 7d 00 00 00 00 00 00 	0}0000000}000000
  0x7d70	98 7d 00 00 00 00 00 00 00 00 00 00 00 00 00 00 	0}00000000000000
  0x7d80	40 00 00 00 00 00 00 80 2c 00 00 00 00 00 00 80 	@0000000,0000000
  0x7d90	00 00 00 00 00 00 00 00 14 00 3f 3f 33 40 59 41 	0000000000??3@YA
  0x7da0	58 50 45 41 58 40 5a 00 5b 00 5f 5f 43 78 78 46 	XPEAX@Z0[0__CxxF
  0x7db0	72 61 6d 65 48 61 6e 64 6c 65 72 33 00 00 55 00 	rameHandler300U0
  0x7dc0	5f 58 63 70 74 46 69 6c 74 65 72 00 ae 00 5f 61 	_XcptFilter000_a
  0x7dd0	6d 73 67 5f 65 78 69 74 00 00 7f 00 5f 5f 67 65 	msg_exit0000__ge
  0x7de0	74 6d 61 69 6e 61 72 67 73 00 8e 00 5f 5f 73 65 	tmainargs000__se
  0x7df0	74 5f 61 70 70 5f 74 79 70 65 00 00 32 04 65 78 	t_app_type0020ex
  0x7e00	69 74 00 00 0e 01 5f 65 78 69 74 00 c1 00 5f 63 	it0000_exit000_c
  0x7e10	65 78 69 74 00 00 99 01 5f 69 73 6d 62 62 6c 65 	exit0000_ismbble
  0x7e20	61 64 00 00 90 00 5f 5f 73 65 74 75 73 65 72 6d 	ad0000__setuserm
  0x7e30	61 74 68 65 72 72 00 00 7d 01 5f 69 6e 69 74 74 	atherr00}0_initt
  0x7e40	65 72 6d 00 57 00 5f 5f 43 5f 73 70 65 63 69 66 	erm0W0__C_specif
  0x7e50	69 63 5f 68 61 6e 64 6c 65 72 00 00 a2 00 5f 61 	ic_handler0000_a
  0x7e60	63 6d 64 6c 6e 00 27 01 5f 66 6d 6f 64 65 00 00 	cmdln0'0_fmode00
  0x7e70	d2 00 5f 63 6f 6d 6d 6f 64 65 00 00 6d 73 76 63 	00_commode00msvc
  0x7e80	72 74 2e 64 6c 6c 00 00 2f 00 3f 74 65 72 6d 69 	rt.dll00/0?termi
  0x7e90	6e 61 74 65 40 40 59 41 58 58 5a 00 12 00 3f 3f 	nate@@YAXXZ000??
  0x7ea0	31 74 79 70 65 5f 69 6e 66 6f 40 40 55 45 41 41 	1type_info@@UEAA
  0x7eb0	40 58 5a 00 e6 01 5f 6c 6f 63 6b 00 41 03 5f 75 	@XZ000_lock0A0_u
  0x7ec0	6e 6c 6f 63 6b 00 7b 00 5f 5f 64 6c 6c 6f 6e 65 	nlock0{0__dllone
  0x7ed0	78 69 74 00 90 02 5f 6f 6e 65 78 69 74 00 00 00 	xit000_onexit000
  0x7ee0	45 76 65 6e 74 41 63 74 69 76 69 74 79 49 64 43 	EventActivityIdC
  0x7ef0	6f 6e 74 72 6f 6c 00 00 49 00 52 65 61 64 46 69 	ontrol00I0ReadFi
  0x7f00	6c 65 00 00 05 00 47 65 74 43 6f 6d 6d 61 6e 64 	le0000GetCommand
  0x7f10	4c 69 6e 65 57 00 54 00 53 74 72 69 6e 67 46 72 	LineW0T0StringFr
  0x7f20	6f 6d 47 55 49 44 32 00 46 00 43 6f 55 6e 69 6e 	omGUID20F0CoUnin
  0x7f30	69 74 69 61 6c 69 7a 65 00 00 05 00 45 76 65 6e 	itialize0000Even
  0x7f40	74 55 6e 72 65 67 69 73 74 65 72 00 02 00 4c 6f 	tUnregister000Lo
  0x7f50	63 61 6c 41 6c 6c 6f 63 00 00 04 00 45 76 65 6e 	calAlloc0000Even
  0x7f60	74 53 65 74 49 6e 66 6f 72 6d 61 74 69 6f 6e 00 	tSetInformation0
  0x7f70	05 00 47 65 74 4c 61 73 74 45 72 72 6f 72 00 00 	00GetLastError00
  0x7f80	00 00 43 6c 6f 73 65 48 61 6e 64 6c 65 00 03 00 	00CloseHandle000
  0x7f90	45 76 65 6e 74 52 65 67 69 73 74 65 72 00 03 00 	EventRegister000
  0x7fa0	4c 6f 63 61 6c 46 72 65 65 00 2e 00 47 65 74 46 	LocalFree0.0GetF
  0x7fb0	69 6c 65 53 69 7a 65 00 09 00 45 76 65 6e 74 57 	ileSize000EventW
  0x7fc0	72 69 74 65 54 72 61 6e 73 66 65 72 00 00 28 00 	riteTransfer00(0
  0x7fd0	43 6f 49 6e 69 74 69 61 6c 69 7a 65 45 78 00 00 	CoInitializeEx00
  0x7fe0	2d 00 53 6c 65 65 70 00 20 00 47 65 74 53 74 61 	-0Sleep0 0GetSta
  0x7ff0	72 74 75 70 49 6e 66 6f 57 00 0f 00 53 65 74 55 	rtupInfoW000SetU
  0x8000	6e 68 61 6e 64 6c 65 64 45 78 63 65 70 74 69 6f 	nhandledExceptio
  0x8010	6e 46 69 6c 74 65 72 00 14 00 47 65 74 4d 6f 64 	nFilter000GetMod
  0x8020	75 6c 65 48 61 6e 64 6c 65 57 00 00 00 00 51 75 	uleHandleW0000Qu
  0x8030	65 72 79 50 65 72 66 6f 72 6d 61 6e 63 65 43 6f 	eryPerformanceCo
  0x8040	75 6e 74 65 72 00 0d 00 47 65 74 43 75 72 72 65 	unter000GetCurre
  0x8050	6e 74 50 72 6f 63 65 73 73 49 64 00 11 00 47 65 	ntProcessId000Ge
  0x8060	74 43 75 72 72 65 6e 74 54 68 72 65 61 64 49 64 	tCurrentThreadId
  0x8070	00 00 16 00 47 65 74 53 79 73 74 65 6d 54 69 6d 	0000GetSystemTim
  0x8080	65 41 73 46 69 6c 65 54 69 6d 65 00 1a 00 47 65 	eAsFileTime000Ge
  0x8090	74 54 69 63 6b 43 6f 75 6e 74 00 00 02 00 52 74 	tTickCount0000Rt
  0x80a0	6c 43 61 70 74 75 72 65 43 6f 6e 74 65 78 74 00 	lCaptureContext0
  0x80b0	0a 00 52 74 6c 4c 6f 6f 6b 75 70 46 75 6e 63 74 	00RtlLookupFunct
  0x80c0	69 6f 6e 45 6e 74 72 79 00 00 10 00 52 74 6c 56 	ionEntry0000RtlV
  0x80d0	69 72 74 75 61 6c 55 6e 77 69 6e 64 00 00 11 00 	irtualUnwind0000
  0x80e0	55 6e 68 61 6e 64 6c 65 64 45 78 63 65 70 74 69 	UnhandledExcepti
  0x80f0	6f 6e 46 69 6c 74 65 72 00 00 0c 00 47 65 74 43 	onFilter0000GetC
  0x8100	75 72 72 65 6e 74 50 72 6f 63 65 73 73 00 4f 00 	urrentProcess0O0
  0x8110	54 65 72 6d 69 6e 61 74 65 50 72 6f 63 65 73 73 	TerminateProcess
  0x8120	00 00 61 70 69 2d 6d 73 2d 77 69 6e 2d 65 76 65 	00api-ms-win-eve
  0x8130	6e 74 69 6e 67 2d 70 72 6f 76 69 64 65 72 2d 6c 	nting-provider-l
  0x8140	31 2d 31 2d 30 2e 64 6c 6c 00 61 70 69 2d 6d 73 	1-1-0.dll0api-ms
  0x8150	2d 77 69 6e 2d 63 6f 72 65 2d 66 69 6c 65 2d 6c 	-win-core-file-l
  0x8160	31 2d 31 2d 30 2e 64 6c 6c 00 61 70 69 2d 6d 73 	1-1-0.dll0api-ms
  0x8170	2d 77 69 6e 2d 63 6f 72 65 2d 70 72 6f 63 65 73 	-win-core-proces
  0x8180	73 65 6e 76 69 72 6f 6e 6d 65 6e 74 2d 6c 31 2d 	senvironment-l1-
  0x8190	31 2d 30 2e 64 6c 6c 00 61 70 69 2d 6d 73 2d 77 	1-0.dll0api-ms-w
  0x81a0	69 6e 2d 63 6f 72 65 2d 63 6f 6d 2d 6c 31 2d 31 	in-core-com-l1-1
  0x81b0	2d 30 2e 64 6c 6c 00 00 61 70 69 2d 6d 73 2d 77 	-0.dll00api-ms-w
  0x81c0	69 6e 2d 63 6f 72 65 2d 68 65 61 70 2d 6c 32 2d 	in-core-heap-l2-
  0x81d0	31 2d 30 2e 64 6c 6c 00 61 70 69 2d 6d 73 2d 77 	1-0.dll0api-ms-w
  0x81e0	69 6e 2d 63 6f 72 65 2d 65 72 72 6f 72 68 61 6e 	in-core-errorhan
  0x81f0	64 6c 69 6e 67 2d 6c 31 2d 31 2d 30 2e 64 6c 6c 	dling-l1-1-0.dll
  0x8200	00 00 61 70 69 2d 6d 73 2d 77 69 6e 2d 63 6f 72 	00api-ms-win-cor
  0x8210	65 2d 68 61 6e 64 6c 65 2d 6c 31 2d 31 2d 30 2e 	e-handle-l1-1-0.
  0x8220	64 6c 6c 00 4f 4c 45 41 55 54 33 32 2e 64 6c 6c 	dll0OLEAUT32.dll
  0x8230	00 00 61 70 69 2d 6d 73 2d 77 69 6e 2d 63 6f 72 	00api-ms-win-cor
  0x8240	65 2d 73 79 6e 63 68 2d 6c 31 2d 32 2d 30 2e 64 	e-synch-l1-2-0.d
  0x8250	6c 6c 00 00 61 70 69 2d 6d 73 2d 77 69 6e 2d 63 	ll00api-ms-win-c
  0x8260	6f 72 65 2d 70 72 6f 63 65 73 73 74 68 72 65 61 	ore-processthrea
  0x8270	64 73 2d 6c 31 2d 31 2d 30 2e 64 6c 6c 00 61 70 	ds-l1-1-0.dll0ap
  0x8280	69 2d 6d 73 2d 77 69 6e 2d 63 6f 72 65 2d 6c 69 	i-ms-win-core-li
  0x8290	62 72 61 72 79 6c 6f 61 64 65 72 2d 6c 31 2d 32 	braryloader-l1-2
  0x82a0	2d 30 2e 64 6c 6c 00 00 61 70 69 2d 6d 73 2d 77 	-0.dll00api-ms-w
  0x82b0	69 6e 2d 63 6f 72 65 2d 70 72 6f 66 69 6c 65 2d 	in-core-profile-
  0x82c0	6c 31 2d 31 2d 30 2e 64 6c 6c 00 00 61 70 69 2d 	l1-1-0.dll00api-
  0x82d0	6d 73 2d 77 69 6e 2d 63 6f 72 65 2d 73 79 73 69 	ms-win-core-sysi
  0x82e0	6e 66 6f 2d 6c 31 2d 31 2d 30 2e 64 6c 6c 00 00 	nfo-l1-1-0.dll00
  0x82f0	61 70 69 2d 6d 73 2d 77 69 6e 2d 63 6f 72 65 2d 	api-ms-win-core-
  0x8300	72 74 6c 73 75 70 70 6f 72 74 2d 6c 31 2d 31 2d 	rtlsupport-l1-1-
  0x8310	30 2e 64 6c 6c 00 6f 6d 61 64 6d 61 70 69 2e 64 	0.dll0omadmapi.d
  0x8320	6c 6c 00 00 03 00 43 6f 70 79 53 74 72 69 6e 67 	ll0000CopyString
  0x8330	00 00 44 4d 43 6d 6e 55 74 69 6c 73 2e 64 6c 6c 	00DMCmnUtils.dll
  0x8340	00 00 02 00 4d 64 6d 50 72 6f 63 65 73 73 43 6f 	0000MdmProcessCo
  0x8350	6e 66 69 67 58 6d 6c 57 69 74 68 41 74 74 72 69 	nfigXmlWithAttri
  0x8360	62 75 74 65 73 00 44 4d 50 72 6f 63 65 73 73 58 	butes0DMProcessX
  0x8370	4d 4c 46 69 6c 74 65 72 65 64 2e 64 6c 6c 00 00 	MLFiltered.dll00
  0x8380	06 00 44 53 4f 70 65 6e 53 68 61 72 65 64 46 69 	00DSOpenSharedFi
  0x8390	6c 65 00 00 64 73 63 6c 69 65 6e 74 2e 64 6c 6c 	le00dsclient.dll
  0x83a0	00 00 69 03 5f 76 73 6e 77 70 72 69 6e 74 66 00 	00i0_vsnwprintf0
  0x83b0	93 04 6d 65 6d 63 70 79 5f 73 00 00 11 00 3f 3f 	00memcpy_s0000??
  0x83c0	31 65 78 63 65 70 74 69 6f 6e 40 40 55 45 41 41 	1exception@@UEAA
  0x83d0	40 58 5a 00 0d 00 3f 3f 30 65 78 63 65 70 74 69 	@XZ000??0excepti
  0x83e0	6f 6e 40 40 51 45 41 41 40 58 5a 00 0c 00 3f 3f 	on@@QEAA@XZ000??
  0x83f0	30 65 78 63 65 70 74 69 6f 6e 40 40 51 45 41 41 	0exception@@QEAA
  0x8400	40 41 45 42 56 30 40 40 5a 00 67 03 5f 76 73 6e 	@AEBV0@@Z0g0_vsn
  0x8410	70 72 69 6e 74 66 5f 73 00 00 b9 04 73 70 72 69 	printf_s0000spri
  0x8420	6e 74 66 5f 73 00 0f 00 47 65 74 4d 6f 64 75 6c 	ntf_s000GetModul
  0x8430	65 46 69 6c 65 4e 61 6d 65 41 00 00 22 02 55 75 	eFileNameA00"0Uu
  0x8440	69 64 46 72 6f 6d 53 74 72 69 6e 67 57 00 06 00 	idFromStringW000
  0x8450	48 65 61 70 46 72 65 65 00 00 13 00 47 65 74 4d 	HeapFree0000GetM
  0x8460	6f 64 75 6c 65 48 61 6e 64 6c 65 45 78 57 00 00 	oduleHandleExW00
  0x8470	0b 00 57 69 6e 64 6f 77 73 43 72 65 61 74 65 53 	00WindowsCreateS
  0x8480	74 72 69 6e 67 52 65 66 65 72 65 6e 63 65 00 00 	tringReference00
  0x8490	09 00 46 6f 72 6d 61 74 4d 65 73 73 61 67 65 57 	00FormatMessageW
  0x84a0	00 00 00 00 52 6f 41 63 74 69 76 61 74 65 49 6e 	0000RoActivateIn
  0x84b0	73 74 61 6e 63 65 00 00 07 00 52 6f 55 6e 69 6e 	stance0000RoUnin
  0x84c0	69 74 69 61 6c 69 7a 65 00 00 07 00 52 61 69 73 	itialize0000Rais
  0x84d0	65 45 78 63 65 70 74 69 6f 6e 00 00 02 00 48 65 	eException0000He
  0x84e0	61 70 41 6c 6c 6f 63 00 15 00 47 65 74 50 72 6f 	apAlloc000GetPro
  0x84f0	63 41 64 64 72 65 73 73 00 00 02 00 43 4c 53 49 	cAddress0000CLSI
  0x8500	44 46 72 6f 6d 53 74 72 69 6e 67 00 00 00 47 65 	DFromString000Ge
  0x8510	74 50 72 6f 63 65 73 73 48 65 61 70 00 00 04 00 	tProcessHeap0000
  0x8520	44 65 62 75 67 42 72 65 61 6b 00 00 03 00 52 6f 	DebugBreak0000Ro
  0x8530	49 6e 69 74 69 61 6c 69 7a 65 00 00 1d 02 55 75 	Initialize0000Uu
  0x8540	69 64 43 72 65 61 74 65 00 00 0b 00 43 72 65 61 	idCreate0000Crea
  0x8550	74 65 53 65 6d 61 70 68 6f 72 65 45 78 57 00 00 	teSemaphoreExW00
  0x8560	0d 00 53 65 74 4c 61 73 74 45 72 72 6f 72 00 00 	00SetLastError00
  0x8570	26 00 52 65 6c 65 61 73 65 53 65 6d 61 70 68 6f 	&0ReleaseSemapho
  0x8580	72 65 00 00 36 00 57 61 69 74 46 6f 72 53 69 6e 	re0060WaitForSin
  0x8590	67 6c 65 4f 62 6a 65 63 74 00 23 00 52 65 6c 65 	gleObject0#0Rele
  0x85a0	61 73 65 4d 75 74 65 78 00 00 07 00 4f 75 74 70 	aseMutex0000Outp
  0x85b0	75 74 44 65 62 75 67 53 74 72 69 6e 67 57 00 00 	utDebugStringW00
  0x85c0	37 00 57 61 69 74 46 6f 72 53 69 6e 67 6c 65 4f 	70WaitForSingleO
  0x85d0	62 6a 65 63 74 45 78 00 21 00 4f 70 65 6e 53 65 	bjectEx0!0OpenSe
  0x85e0	6d 61 70 68 6f 72 65 57 00 00 09 00 43 72 65 61 	maphoreW0000Crea
  0x85f0	74 65 4d 75 74 65 78 45 78 57 00 00 05 00 49 73 	teMutexExW0000Is
  0x8600	44 65 62 75 67 67 65 72 50 72 65 73 65 6e 74 00 	DebuggerPresent0
  0x8610	24 00 52 65 6c 65 61 73 65 53 52 57 4c 6f 63 6b 	$0ReleaseSRWLock
  0x8620	45 78 63 6c 75 73 69 76 65 00 00 00 41 63 71 75 	Exclusive000Acqu
  0x8630	69 72 65 53 52 57 4c 6f 63 6b 45 78 63 6c 75 73 	ireSRWLockExclus
  0x8640	69 76 65 00 39 00 57 61 6b 65 41 6c 6c 43 6f 6e 	ive090WakeAllCon
  0x8650	64 69 74 69 6f 6e 56 61 72 69 61 62 6c 65 00 00 	ditionVariable00
  0x8660	2f 00 53 6c 65 65 70 43 6f 6e 64 69 74 69 6f 6e 	/0SleepCondition
  0x8670	56 61 72 69 61 62 6c 65 53 52 57 00 52 50 43 52 	VariableSRW0RPCR
  0x8680	54 34 2e 64 6c 6c 00 00 61 70 69 2d 6d 73 2d 77 	T4.dll00api-ms-w
  0x8690	69 6e 2d 63 6f 72 65 2d 68 65 61 70 2d 6c 31 2d 	in-core-heap-l1-
  0x86a0	31 2d 30 2e 64 6c 6c 00 61 70 69 2d 6d 73 2d 77 	1-0.dll0api-ms-w
  0x86b0	69 6e 2d 63 6f 72 65 2d 77 69 6e 72 74 2d 73 74 	in-core-winrt-st
  0x86c0	72 69 6e 67 2d 6c 31 2d 31 2d 30 2e 64 6c 6c 00 	ring-l1-1-0.dll0
  0x86d0	61 70 69 2d 6d 73 2d 77 69 6e 2d 63 6f 72 65 2d 	api-ms-win-core-
  0x86e0	6c 6f 63 61 6c 69 7a 61 74 69 6f 6e 2d 6c 31 2d 	localization-l1-
  0x86f0	32 2d 30 2e 64 6c 6c 00 61 70 69 2d 6d 73 2d 77 	2-0.dll0api-ms-w
  0x8700	69 6e 2d 63 6f 72 65 2d 77 69 6e 72 74 2d 6c 31 	in-core-winrt-l1
  0x8710	2d 31 2d 30 2e 64 6c 6c 00 00 61 70 69 2d 6d 73 	-1-0.dll00api-ms
  0x8720	2d 77 69 6e 2d 63 6f 72 65 2d 64 65 62 75 67 2d 	-win-core-debug-
  0x8730	6c 31 2d 31 2d 30 2e 64 6c 6c 00 00 61 70 69 2d 	l1-1-0.dll00api-
  0x8740	6d 73 2d 77 69 6e 2d 63 6f 72 65 2d 73 79 6e 63 	ms-win-core-sync
  0x8750	68 2d 6c 31 2d 31 2d 30 2e 64 6c 6c 00 00 18 00 	h-l1-1-0.dll0000
  0x8760	47 65 74 45 6e 72 6f 6c 6c 6d 65 6e 74 54 79 70 	GetEnrollmentTyp
  0x8770	65 00 64 6d 45 6e 72 6f 6c 6c 45 6e 67 69 6e 65 	e0dmEnrollEngine
  0x8780	2e 44 4c 4c 00 00 8d 02 3f 5f 58 62 61 64 5f 61 	.DLL0000?_Xbad_a
  0x8790	6c 6c 6f 63 40 73 74 64 40 40 59 41 58 58 5a 00 	lloc@std@@YAXXZ0
  0x87a0	6d 73 76 63 70 31 31 30 5f 77 69 6e 2e 64 6c 6c 	msvcp110_win.dll
  0x87b0	00 00 86 04 6d 61 6c 6c 6f 63 00 00 bf 00 5f 63 	0000malloc0000_c
  0x87c0	61 6c 6c 6e 65 77 68 00 4b 00 5f 43 78 78 54 68 	allnewh0K0_CxxTh
  0x87d0	72 6f 77 45 78 63 65 70 74 69 6f 6e 00 00 96 04 	rowException0000
  0x87e0	6d 65 6d 73 65 74 00 00 00 00 00 00 00 00 00 00 	memset0000000000
  0x87f0	00 00 00 00 00 00 00 00 00 00 00 00 00 00 00 00 	0000000000000000
=== DATA BLOCK END ===

=== DATA BLOCK ADDRESS 0x9000 ===
  0x9000	00 00 00 00 00 00 00 00 12 6e 00 40 01 00 00 00 	000000000n0@0000
  0x9010	00 00 00 00 00 00 00 00 00 00 00 00 00 00 00 00 	0000000000000000
  0x9020	00 00 00 00 00 00 00 00 00 00 00 00 00 00 00 00 	0000000000000000
  0x9030	00 00 00 00 00 00 00 00 ec 66 00 40 01 00 00 00 	000000000f0@0000
  0x9040	02 00 00 00 00 00 00 00 00 00 00 00 00 00 00 00 	0000000000000000
  0x9050	f0 66 00 40 01 00 00 00 02 00 00 00 00 00 00 00 	0f0@000000000000
  0x9060	10 00 00 00 00 00 00 00 00 00 00 00 00 00 00 00 	0000000000000000
  0x9070	01 00 00 00 00 00 00 00 00 90 00 40 01 00 00 00 	00000000000@0000
  0x9080	00 00 00 00 00 00 00 00 00 00 00 00 00 00 00 00 	0000000000000000
  0x9090	00 00 00 00 00 00 00 00 00 00 00 00 00 00 00 00 	0000000000000000
  0x90a0	00 00 00 00 00 00 00 00 00 00 00 00 00 00 00 00 	0000000000000000
  0x90b0	00 00 00 00 00 00 00 00 00 00 00 00 00 00 00 00 	0000000000000000
  0x90c0	00 00 00 00 00 00 00 00 00 00 00 00 00 00 00 00 	0000000000000000
  0x90d0	00 00 00 00 00 00 00 00 00 00 00 00 00 00 00 00 	0000000000000000
  0x90e0	00 00 00 00 00 00 00 00 00 00 00 00 00 00 00 00 	0000000000000000
  0x90f0	00 00 00 00 00 00 00 00 00 00 00 00 00 00 00 00 	0000000000000000
  0x9100	00 00 00 00 00 00 00 00 00 00 00 00 00 00 00 00 	0000000000000000
  0x9110	d0 6a 00 40 01 00 00 00 00 00 00 00 00 00 00 00 	0j0@000000000000
  0x9120	00 60 00 40 01 00 00 00 00 00 00 00 00 00 00 00 	0`0@000000000000
  0x9130	2e 3f 41 56 62 61 64 5f 61 6c 6c 6f 63 40 73 74 	.?AVbad_alloc@st
  0x9140	64 40 40 00 00 00 00 00 00 60 00 40 01 00 00 00 	d@@000000`0@0000
  0x9150	00 00 00 00 00 00 00 00 2e 3f 41 56 52 65 73 75 	00000000.?AVResu
  0x9160	6c 74 45 78 63 65 70 74 69 6f 6e 40 77 69 6c 40 	ltException@wil@
  0x9170	40 00 00 00 00 00 00 00 00 60 00 40 01 00 00 00 	@00000000`0@0000
  0x9180	00 00 00 00 00 00 00 00 2e 3f 41 56 65 78 63 65 	00000000.?AVexce
  0x9190	70 74 69 6f 6e 40 40 00 00 00 00 00 00 00 00 00 	ption@@000000000
  0x91a0	01 00 00 00 00 00 00 00 32 a2 df 2d 99 2b 00 00 	00000000200-0+00
  0x91b0	cd 5d 20 d2 66 d4 ff ff 00 00 00 00 00 00 00 00 	0] 0f00000000000
  0x91c0	00 00 00 80 01 00 00 00 01 01 01 00 00 00 00 00 	0000000000000000
  0x91d0	00 00 00 00 00 00 00 00 00 00 00 00 00 00 00 00 	0000000000000000
  0x91e0	00 00 00 00 00 00 00 00 00 00 00 00 00 00 00 00 	0000000000000000
  0x91f0	00 00 00 00 00 00 00 00 00 00 00 00 00 00 00 00 	0000000000000000
=== DATA BLOCK END ===

=== DATA BLOCK ADDRESS 0xa000 ===
  0xa000	10 10 00 00 89 10 00 00 20 72 00 00 90 10 00 00 	00000000 r000000
  0xa010	25 11 00 00 28 72 00 00 2c 11 00 00 d8 11 00 00 	%000(r00,0000000
  0xa020	d8 72 00 00 f0 12 00 00 a8 14 00 00 30 72 00 00 	0r00000000000r00
  0xa030	b0 14 00 00 9c 15 00 00 4c 72 00 00 a4 15 00 00 	00000000Lr000000
  0xa040	f4 1a 00 00 60 72 00 00 fc 1a 00 00 68 1b 00 00 	0000`r000000h000
  0xa050	e8 72 00 00 70 1b 00 00 ee 1b 00 00 f8 72 00 00 	0r00p00000000r00
  0xa060	f4 1b 00 00 79 1c 00 00 08 73 00 00 80 1c 00 00 	0000y0000s000000
  0xa070	e4 1e 00 00 14 73 00 00 ec 1e 00 00 f4 1f 00 00 	00000s0000000000
  0xa080	34 73 00 00 14 20 00 00 4e 21 00 00 48 73 00 00 	4s000 00N!00Hs00
  0xa090	60 21 00 00 9d 21 00 00 64 73 00 00 d0 21 00 00 	`!000!00ds000!00
  0xa0a0	36 22 00 00 6c 73 00 00 3c 22 00 00 bd 22 00 00 	6"00ls00<"000"00
  0xa0b0	7c 73 00 00 c4 22 00 00 12 26 00 00 88 73 00 00 	|s000"000&000s00
  0xa0c0	18 26 00 00 79 26 00 00 a4 73 00 00 80 26 00 00 	0&00y&000s000&00
  0xa0d0	31 27 00 00 b0 73 00 00 40 27 00 00 70 27 00 00 	1'000s00@'00p'00
  0xa0e0	a4 73 00 00 78 27 00 00 2d 28 00 00 c4 73 00 00 	0s00x'00-(000s00
  0xa0f0	40 28 00 00 4e 28 00 00 64 73 00 00 60 28 00 00 	@(00N(00ds00`(00
  0xa100	86 28 00 00 cc 73 00 00 8c 28 00 00 7b 29 00 00 	0(000s000(00{)00
  0xa110	a4 73 00 00 90 29 00 00 fd 29 00 00 c4 73 00 00 	0s000)000)000s00
  0xa120	10 2a 00 00 9c 2a 00 00 6c 73 00 00 a4 2a 00 00 	0*000*00ls000*00
  0xa130	5d 2b 00 00 d4 73 00 00 64 2b 00 00 5e 2d 00 00 	]+000s00d+00^-00
  0xa140	ec 73 00 00 64 2d 00 00 84 2d 00 00 64 73 00 00 	0s00d-000-00ds00
  0xa150	8c 2d 00 00 b2 2d 00 00 64 73 00 00 b8 2d 00 00 	0-000-00ds000-00
  0xa160	40 2e 00 00 34 73 00 00 48 2e 00 00 c0 2e 00 00 	@.004s00H.000.00
  0xa170	6c 73 00 00 c8 2e 00 00 de 2f 00 00 38 74 00 00 	ls000.000/008t00
  0xa180	e4 2f 00 00 c7 30 00 00 d4 73 00 00 d0 30 00 00 	0/0000000s000000
  0xa190	67 31 00 00 64 73 00 00 70 31 00 00 a7 32 00 00 	g100ds00p1000200
  0xa1a0	4c 74 00 00 b0 32 00 00 e4 33 00 00 64 74 00 00 	Lt0002000300dt00
  0xa1b0	ec 34 00 00 11 35 00 00 64 73 00 00 18 35 00 00 	04000500ds000500
  0xa1c0	75 35 00 00 28 72 00 00 7c 35 00 00 98 35 00 00 	u500(r00|5000500
  0xa1d0	64 73 00 00 a0 35 00 00 54 38 00 00 80 74 00 00 	ds000500T8000t00
  0xa1e0	5c 38 00 00 f0 38 00 00 98 74 00 00 f8 38 00 00 	080008000t000800
  0xa1f0	fe 39 00 00 a4 74 00 00 04 3a 00 00 43 3a 00 00 	09000t000:00C:00
  0xa200	b8 74 00 00 4c 3a 00 00 04 3b 00 00 c0 74 00 00 	0t00L:000;000t00
  0xa210	0c 3b 00 00 c2 3b 00 00 c0 74 00 00 c8 3b 00 00 	0;000;000t000;00
  0xa220	fe 3b 00 00 28 72 00 00 04 3c 00 00 1d 3c 00 00 	0;00(r000<000<00
  0xa230	28 72 00 00 24 3c 00 00 3d 3c 00 00 28 72 00 00 	(r00$<00=<00(r00
  0xa240	44 3c 00 00 82 3c 00 00 28 72 00 00 98 3c 00 00 	D<000<00(r000<00
  0xa250	c2 3c 00 00 64 73 00 00 c8 3c 00 00 f2 3c 00 00 	0<00ds000<000<00
  0xa260	64 73 00 00 f8 3c 00 00 19 3d 00 00 d4 74 00 00 	ds000<000=000t00
  0xa270	20 3d 00 00 22 3f 00 00 e4 74 00 00 28 3f 00 00 	 =00"?000t00(?00
  0xa280	9a 40 00 00 08 75 00 00 a0 40 00 00 4a 41 00 00 	0@000u000@00JA00
  0xa290	34 73 00 00 50 41 00 00 28 44 00 00 88 73 00 00 	4s00PA00(D000s00
  0xa2a0	30 44 00 00 f5 44 00 00 a4 73 00 00 fc 44 00 00 	0D000D000s000D00
  0xa2b0	f8 45 00 00 34 73 00 00 00 46 00 00 57 47 00 00 	0E004s000F00WG00
  0xa2c0	d4 73 00 00 60 47 00 00 7a 4a 00 00 14 75 00 00 	0s00`G00zJ000u00
  0xa2d0	80 4a 00 00 7a 4c 00 00 58 75 00 00 80 4c 00 00 	0J00zL00Xu000L00
  0xa2e0	a1 4c 00 00 d4 74 00 00 a8 4c 00 00 b2 4e 00 00 	0L000t000L000N00
  0xa2f0	6c 75 00 00 c0 4e 00 00 93 4f 00 00 64 73 00 00 	lu000N000O00ds00
  0xa300	a0 4f 00 00 e9 4f 00 00 90 75 00 00 f0 4f 00 00 	0O000O000u000O00
  0xa310	02 50 00 00 64 73 00 00 08 50 00 00 4a 52 00 00 	0P00ds000P00JR00
  0xa320	98 75 00 00 80 52 00 00 9e 52 00 00 d0 75 00 00 	0u000R000R000u00
  0xa330	b0 52 00 00 e0 52 00 00 a4 73 00 00 f0 52 00 00 	0R000R000s000R00
  0xa340	29 53 00 00 64 73 00 00 30 53 00 00 48 53 00 00 	)S00ds000S00HS00
  0xa350	64 73 00 00 5c 53 00 00 b0 53 00 00 d4 75 00 00 	ds000S000S000u00
  0xa360	b8 53 00 00 fd 53 00 00 c4 73 00 00 70 54 00 00 	0S000S000s00pT00
  0xa370	bd 54 00 00 f4 75 00 00 04 55 00 00 d8 55 00 00 	0T000u000U000U00
  0xa380	18 76 00 00 f8 55 00 00 85 56 00 00 24 76 00 00 	0v000U000V00$v00
  0xa390	8c 56 00 00 a3 56 00 00 64 73 00 00 bc 56 00 00 	0V000V00ds000V00
  0xa3a0	f0 56 00 00 c4 73 00 00 00 57 00 00 71 58 00 00 	0V000s000W00qX00
  0xa3b0	44 76 00 00 b4 58 00 00 1d 59 00 00 c4 73 00 00 	Dv000X000Y000s00
  0xa3c0	24 59 00 00 9c 59 00 00 c4 73 00 00 a4 59 00 00 	$Y000Y000s000Y00
  0xa3d0	c3 59 00 00 54 76 00 00 cc 59 00 00 fd 59 00 00 	0Y00Tv000Y000Y00
  0xa3e0	c4 73 00 00 28 5a 00 00 45 5a 00 00 64 73 00 00 	0s00(Z00EZ00ds00
  0xa3f0	4c 5a 00 00 a7 5a 00 00 a8 76 00 00 b0 5a 00 00 	LZ000Z000v000Z00
  0xa400	2f 5b 00 00 d4 73 00 00 50 5b 00 00 52 5b 00 00 	/[000s00P[00R[00
  0xa410	50 76 00 00 70 5b 00 00 bd 5b 00 00 b0 76 00 00 	Pv00p[000[000v00
  0xa420	c3 5b 00 00 e5 5b 00 00 c8 72 00 00 33 5c 00 00 	0[000[000r003000
  0xa430	51 5c 00 00 c4 75 00 00 60 5c 00 00 80 5c 00 00 	Q0000u00`0000000
  0xa440	c4 75 00 00 86 5c 00 00 a1 5c 00 00 c4 75 00 00 	0u00000000000u00
  0xa450	a7 5c 00 00 c7 5c 00 00 98 76 00 00 d0 5c 00 00 	000000000v000000
  0xa460	eb 5c 00 00 64 73 00 00 00 5d 00 00 1b 5d 00 00 	0000ds000]000]00
  0xa470	64 73 00 00 30 5d 00 00 9b 5d 00 00 6c 73 00 00 	ds000]000]00ls00
  0xa480	00 00 00 00 00 00 00 00 00 00 00 00 00 00 00 00 	0000000000000000
  0xa490	00 00 00 00 00 00 00 00 00 00 00 00 00 00 00 00 	0000000000000000
  0xa4a0	00 00 00 00 00 00 00 00 00 00 00 00 00 00 00 00 	0000000000000000
  0xa4b0	00 00 00 00 00 00 00 00 00 00 00 00 00 00 00 00 	0000000000000000
  0xa4c0	00 00 00 00 00 00 00 00 00 00 00 00 00 00 00 00 	0000000000000000
  0xa4d0	00 00 00 00 00 00 00 00 00 00 00 00 00 00 00 00 	0000000000000000
  0xa4e0	00 00 00 00 00 00 00 00 00 00 00 00 00 00 00 00 	0000000000000000
  0xa4f0	00 00 00 00 00 00 00 00 00 00 00 00 00 00 00 00 	0000000000000000
  0xa500	00 00 00 00 00 00 00 00 00 00 00 00 00 00 00 00 	0000000000000000
  0xa510	00 00 00 00 00 00 00 00 00 00 00 00 00 00 00 00 	0000000000000000
  0xa520	00 00 00 00 00 00 00 00 00 00 00 00 00 00 00 00 	0000000000000000
  0xa530	00 00 00 00 00 00 00 00 00 00 00 00 00 00 00 00 	0000000000000000
  0xa540	00 00 00 00 00 00 00 00 00 00 00 00 00 00 00 00 	0000000000000000
  0xa550	00 00 00 00 00 00 00 00 00 00 00 00 00 00 00 00 	0000000000000000
  0xa560	00 00 00 00 00 00 00 00 00 00 00 00 00 00 00 00 	0000000000000000
  0xa570	00 00 00 00 00 00 00 00 00 00 00 00 00 00 00 00 	0000000000000000
  0xa580	00 00 00 00 00 00 00 00 00 00 00 00 00 00 00 00 	0000000000000000
  0xa590	00 00 00 00 00 00 00 00 00 00 00 00 00 00 00 00 	0000000000000000
  0xa5a0	00 00 00 00 00 00 00 00 00 00 00 00 00 00 00 00 	0000000000000000
  0xa5b0	00 00 00 00 00 00 00 00 00 00 00 00 00 00 00 00 	0000000000000000
  0xa5c0	00 00 00 00 00 00 00 00 00 00 00 00 00 00 00 00 	0000000000000000
  0xa5d0	00 00 00 00 00 00 00 00 00 00 00 00 00 00 00 00 	0000000000000000
  0xa5e0	00 00 00 00 00 00 00 00 00 00 00 00 00 00 00 00 	0000000000000000
  0xa5f0	00 00 00 00 00 00 00 00 00 00 00 00 00 00 00 00 	0000000000000000
=== DATA BLOCK END ===
