===== Assembly blocks =====

=== CODE BLOCK ADDRESS 0x1000 ===
  0x1000	int3   	
  0x1001	int3   	
  0x1002	int3   	
  0x1003	int3   	
  0x1004	int3   	
  === BLOCK LINK ===
    0x1005
=== CODE BLOCK END ===

=== CODE BLOCK ADDRESS 0x1005 ===
  0x1005	int3   	
  0x1006	int3   	
  0x1007	int3   	
  0x1008	dec    	eax
  0x1009	mov    	dword ptr [esp + 8], ebx
  === BLOCK LINK ===
    0x100d
=== CODE BLOCK END ===

=== CODE BLOCK ADDRESS 0x100d ===
  0x100d	dec    	eax
  0x100e	mov    	dword ptr [esp + 0x10], edi
  0x1012	push   	ebp
  0x1013	dec    	eax
  0x1014	mov    	ebp, esp
  === BLOCK LINK ===
    0x1016
=== CODE BLOCK END ===

=== CODE BLOCK ADDRESS 0x1016 ===
  0x1016	dec    	eax
  0x1017	sub    	esp, 0x70
  0x101a	dec    	eax
  0x101b	lea    	edx, [0x1307]
  0x1021	dec    	eax
  === BLOCK LINK ===
    0x1022
=== CODE BLOCK END ===

=== CODE BLOCK ADDRESS 0x1022 ===
  0x1022	lea    	ecx, [ebp - 0x40]
  0x1025	dec    	eax
  0x1026	call   	dword ptr [0x122c]
  === BLOCK LINK ===
    0x102c
=== CODE BLOCK END ===

=== CODE BLOCK ADDRESS 0x102c ===
  0x102c	nop    	dword ptr [eax + eax]
  0x1031	dec    	eax
  0x1032	and    	dword ptr [ebp - 0x28], 0
  0x1036	dec    	eax
  0x1037	lea    	eax, [ebp - 0x40]
  === BLOCK LINK ===
    0x103a
=== CODE BLOCK END ===

=== CODE BLOCK ADDRESS 0x103a ===
  0x103a	and    	dword ptr [ebp - 0x18], 0
  0x103e	dec    	esp
  0x103f	lea    	eax, [ebp - 0x30]
  0x1042	xorps  	xmm0, xmm0
  0x1045	dec    	eax
  === BLOCK LINK ===
    0x1046
=== CODE BLOCK END ===

=== CODE BLOCK ADDRESS 0x1046 ===
  0x1046	mov    	dword ptr [ebp - 0x20], eax
  0x1049	mov    	ebx, 0x100002
  0x104e	mov    	dword ptr [ebp - 0x30], 0x30
  0x1055	mov    	edx, ebx
  0x1057	dec    	eax
  === BLOCK LINK ===
    0x1058
=== CODE BLOCK END ===

=== CODE BLOCK ADDRESS 0x1058 ===
  0x1058	lea    	ecx, [ebp + 0x28]
  0x105b	movdqu  	xmmword ptr [ebp - 0x10], xmm0
  0x1060	dec    	eax
  0x1061	call   	dword ptr [0x11d9]
  === BLOCK LINK ===
    0x1067
=== CODE BLOCK END ===

=== CODE BLOCK ADDRESS 0x1067 ===
  0x1067	nop    	dword ptr [eax + eax]
  0x106c	test   	eax, eax
  0x106e	jns    	0x10c1
  === BLOCK LINK ===
    0x1070
    0x10c1
=== CODE BLOCK END ===

=== CODE BLOCK ADDRESS 0x1070 ===
  0x1070	cmp    	eax, 0xc0000034
  0x1075	jne    	0x10b9
  === BLOCK LINK ===
    0x1077
    0x10b9
=== CODE BLOCK END ===

=== CODE BLOCK ADDRESS 0x1077 ===
  0x1077	inc    	ebp
  0x1078	xor    	ecx, ecx
  0x107a	mov    	byte ptr [esp + 0x20], 0
  0x107f	dec    	esp
  0x1080	lea    	eax, [ebp - 0x30]
  === BLOCK LINK ===
    0x1083
=== CODE BLOCK END ===

=== CODE BLOCK ADDRESS 0x1083 ===
  0x1083	mov    	edx, ebx
  0x1085	dec    	eax
  0x1086	lea    	ecx, [ebp + 0x28]
  0x1089	dec    	eax
  0x108a	call   	dword ptr [0x11d0]
  === BLOCK LINK ===
    0x1090
=== CODE BLOCK END ===

=== CODE BLOCK ADDRESS 0x1090 ===
  0x1090	nop    	dword ptr [eax + eax]
  0x1095	cmp    	eax, 0x40000000
  0x109a	je     	0x10a3
  === BLOCK LINK ===
    0x109c
    0x10a3
=== CODE BLOCK END ===

=== CODE BLOCK ADDRESS 0x109c ===
  0x109c	cmp    	eax, 0xc0000035
  0x10a1	jne    	0x10b9
  === BLOCK LINK ===
    0x10a3
    0x10b9
=== CODE BLOCK END ===

=== CODE BLOCK ADDRESS 0x10a3 ===
  0x10a3	dec    	esp
  0x10a4	lea    	eax, [ebp - 0x30]
  0x10a7	mov    	edx, ebx
  0x10a9	dec    	eax
  0x10aa	lea    	ecx, [ebp + 0x28]
  === BLOCK LINK ===
    0x10ad
=== CODE BLOCK END ===

=== CODE BLOCK ADDRESS 0x10ad ===
  0x10ad	dec    	eax
  0x10ae	call   	dword ptr [0x118c]
  === BLOCK LINK ===
    0x10b4
=== CODE BLOCK END ===

=== CODE BLOCK ADDRESS 0x10b4 ===
  0x10b4	nop    	dword ptr [eax + eax]
  === BLOCK LINK ===
    0x10b9
    0x11ab
=== CODE BLOCK END ===

=== CODE BLOCK ADDRESS 0x10c1 ===
  0x10c1	dec    	eax
  0x10c2	mov    	ecx, dword ptr [ebp + 0x28]
  0x10c5	mov    	edx, 0x493e0
  0x10ca	dec    	eax
  0x10cb	call   	dword ptr [0x10df]
  === BLOCK LINK ===
    0x10d1
=== CODE BLOCK END ===

=== CODE BLOCK ADDRESS 0x10d1 ===
  0x10d1	nop    	dword ptr [eax + eax]
  0x10d6	dec    	eax
  0x10d7	mov    	ecx, dword ptr [ebp + 0x28]
  0x10da	mov    	ebx, eax
  0x10dc	dec    	eax
  === BLOCK LINK ===
    0x10dd
=== CODE BLOCK END ===

=== CODE BLOCK ADDRESS 0x10dd ===
  0x10dd	call   	dword ptr [0x1185]
  === BLOCK LINK ===
    0x10e3
=== CODE BLOCK END ===

=== CODE BLOCK ADDRESS 0x10e3 ===
  0x10e3	nop    	dword ptr [eax + eax]
  0x10e8	test   	ebx, ebx
  0x10ea	je     	0x10f3
  === BLOCK LINK ===
    0x10ec
    0x10f3
=== CODE BLOCK END ===

=== CODE BLOCK ADDRESS 0x10ec ===
  0x10ec	mov    	eax, ebx
  0x10ee	jmp    	0x11ad
  === BLOCK LINK ===
    0x10f3
    0x11ad
=== CODE BLOCK END ===

=== CODE BLOCK ADDRESS 0x10f3 ===
  0x10f3	dec    	esp
  0x10f4	lea    	eax, [0x11f6]
  0x10fa	xor    	edx, edx
  0x10fc	mov    	ecx, 0x100000
  0x1101	xor    	ebx, ebx
  === BLOCK LINK ===
    0x1103
=== CODE BLOCK END ===

=== CODE BLOCK ADDRESS 0x1103 ===
  0x1103	dec    	eax
  0x1104	call   	dword ptr [0x1096]
  === BLOCK LINK ===
    0x110a
=== CODE BLOCK END ===

=== CODE BLOCK ADDRESS 0x110a ===
  0x110a	nop    	dword ptr [eax + eax]
  0x110f	dec    	eax
  0x1110	mov    	edi, eax
  0x1112	dec    	eax
  0x1113	test   	eax, eax
  === BLOCK LINK ===
    0x1115
=== CODE BLOCK END ===

=== CODE BLOCK ADDRESS 0x1115 ===
  0x1115	je     	0x1153
  === BLOCK LINK ===
    0x1117
    0x1153
=== CODE BLOCK END ===

=== CODE BLOCK ADDRESS 0x1117 ===
  0x1117	or     	edx, 0xffffffff
  0x111a	dec    	eax
  0x111b	mov    	ecx, eax
  0x111d	dec    	eax
  0x111e	call   	dword ptr [0x108c]
  === BLOCK LINK ===
    0x1124
=== CODE BLOCK END ===

=== CODE BLOCK ADDRESS 0x1124 ===
  0x1124	nop    	dword ptr [eax + eax]
  0x1129	cmp    	eax, -1
  0x112c	je     	0x1134
  === BLOCK LINK ===
    0x112e
    0x1134
=== CODE BLOCK END ===

=== CODE BLOCK ADDRESS 0x112e ===
  0x112e	test   	eax, eax
  0x1130	je     	0x1142
  === BLOCK LINK ===
    0x1132
    0x1142
=== CODE BLOCK END ===

=== CODE BLOCK ADDRESS 0x1132 ===
  0x1132	jmp    	0x1140
  === BLOCK LINK ===
    0x1134
    0x1140
=== CODE BLOCK END ===

=== CODE BLOCK ADDRESS 0x1134 ===
  0x1134	dec    	eax
  0x1135	call   	dword ptr [0x102d]
  === BLOCK LINK ===
    0x113b
=== CODE BLOCK END ===

=== CODE BLOCK ADDRESS 0x113b ===
  0x113b	nop    	dword ptr [eax + eax]
  === BLOCK LINK ===
    0x1140
=== CODE BLOCK END ===

=== CODE BLOCK ADDRESS 0x1146 ===
  0x1146	call   	dword ptr [0x104c]
  === BLOCK LINK ===
    0x114c
=== CODE BLOCK END ===

=== CODE BLOCK ADDRESS 0x114c ===
  0x114c	nop    	dword ptr [eax + eax]
  0x1151	jmp    	0x1161
  === BLOCK LINK ===
    0x1153
    0x1161
=== CODE BLOCK END ===

=== CODE BLOCK ADDRESS 0x1153 ===
  0x1153	dec    	eax
  0x1154	call   	dword ptr [0x100e]
  === BLOCK LINK ===
    0x115a
=== CODE BLOCK END ===

=== CODE BLOCK ADDRESS 0x115a ===
  0x115a	nop    	dword ptr [eax + eax]
  0x115f	mov    	ebx, eax
  === BLOCK LINK ===
    0x1161
    0x10ec
=== CODE BLOCK END ===

=== CODE BLOCK ADDRESS 0x1165 ===
  0x1165	and    	dword ptr [ebp + 0x20], ebx
  0x1168	dec    	eax
  0x1169	lea    	ecx, [ebp + 0x20]
  0x116c	call   	0x11c8
  === BLOCK LINK ===
    0x1171
    0x11c8
=== CODE BLOCK END ===

=== CODE BLOCK ADDRESS 0x1171 ===
  0x1171	test   	eax, eax
  0x1173	je     	0x117b
  === BLOCK LINK ===
    0x1175
    0x117b
=== CODE BLOCK END ===

=== CODE BLOCK ADDRESS 0x1175 ===
  0x1175	cmp    	dword ptr [ebp + 0x20], 1
  0x1179	je     	0x11ab
  === BLOCK LINK ===
    0x117b
    0x11ab
=== CODE BLOCK END ===

=== CODE BLOCK ADDRESS 0x117b ===
  0x117b	and    	dword ptr [esp + 0x28], 0
  0x1180	dec    	eax
  0x1181	lea    	eax, [0x11cd]
  0x1187	dec    	esp
  0x1188	lea    	ecx, [0x11ca]
  === BLOCK LINK ===
    0x118e
=== CODE BLOCK END ===

=== CODE BLOCK ADDRESS 0x118e ===
  0x118e	dec    	eax
  0x118f	mov    	dword ptr [esp + 0x20], eax
  0x1193	inc    	ebp
  0x1194	xor    	eax, eax
  0x1196	dec    	eax
  === BLOCK LINK ===
    0x1197
=== CODE BLOCK END ===

=== CODE BLOCK ADDRESS 0x1197 ===
  0x1197	lea    	edx, [0x11db]
  0x119d	xor    	ecx, ecx
  0x119f	dec    	eax
  0x11a0	call   	dword ptr [0x10d2]
  === BLOCK LINK ===
    0x11a6
=== CODE BLOCK END ===

=== CODE BLOCK ADDRESS 0x11a6 ===
  0x11a6	nop    	dword ptr [eax + eax]
  === BLOCK LINK ===
    0x11ab
=== CODE BLOCK END ===

=== CODE BLOCK ADDRESS 0x11b3 ===
  0x11b3	mov    	ebx, dword ptr [ebx + 0x10]
  0x11b6	dec    	ecx
  0x11b7	mov    	edi, dword ptr [ebx + 0x18]
  0x11ba	dec    	ecx
  0x11bb	mov    	esp, ebx
  === BLOCK LINK ===
    0x11bd
=== CODE BLOCK END ===

=== CODE BLOCK ADDRESS 0x11bd ===
  0x11bd	pop    	ebp
  0x11be	ret    	
  0x11bf	int3   	
  0x11c0	int3   	
  0x11c1	int3   	
  === BLOCK LINK ===
    0x11c2
=== CODE BLOCK END ===

=== CODE BLOCK ADDRESS 0x11c2 ===
  0x11c2	int3   	
  0x11c3	int3   	
  0x11c4	int3   	
  0x11c5	int3   	
  0x11c6	int3   	
  === BLOCK LINK ===
    0x11c7
=== CODE BLOCK END ===

=== CODE BLOCK ADDRESS 0x11c7 ===
  0x11c7	int3   	
  === BLOCK LINK ===
    0x11c8
=== CODE BLOCK END ===

=== CODE BLOCK ADDRESS 0x11cc ===
  0x11cc	dec    	eax
  0x11cd	mov    	ebp, esp
  0x11cf	dec    	eax
  0x11d0	sub    	esp, 0x40
  0x11d3	xor    	ebx, ebx
  === BLOCK LINK ===
    0x11d5
=== CODE BLOCK END ===

=== CODE BLOCK ADDRESS 0x11d5 ===
  0x11d5	dec    	eax
  0x11d6	lea    	eax, [ebp - 0x10]
  0x11d9	dec    	eax
  0x11da	mov    	edi, ecx
  0x11dc	dec    	eax
  === BLOCK LINK ===
    0x11dd
=== CODE BLOCK END ===

=== CODE BLOCK ADDRESS 0x11dd ===
  0x11dd	mov    	dword ptr [ebp - 0x10], ebx
  0x11e0	inc    	ebp
  0x11e1	xor    	eax, eax
  0x11e3	dec    	eax
  0x11e4	mov    	dword ptr [esp + 0x20], eax
  === BLOCK LINK ===
    0x11e8
=== CODE BLOCK END ===

=== CODE BLOCK ADDRESS 0x11e8 ===
  0x11e8	dec    	eax
  0x11e9	lea    	edx, [0x11a1]
  0x11ef	dec    	eax
  0x11f0	mov    	ecx, 0x80000002
  0x11f6	inc    	esp
  === BLOCK LINK ===
    0x11f7
=== CODE BLOCK END ===

=== CODE BLOCK ADDRESS 0x11f7 ===
  0x11f7	lea    	ecx, [ebx + 1]
  0x11fa	dec    	eax
  0x11fb	call   	dword ptr [0xf37]
  === BLOCK LINK ===
    0x1201
=== CODE BLOCK END ===

=== CODE BLOCK ADDRESS 0x1201 ===
  0x1201	nop    	dword ptr [eax + eax]
  0x1206	test   	eax, eax
  0x1208	jne    	0x1270
  === BLOCK LINK ===
    0x120a
    0x1270
=== CODE BLOCK END ===

=== CODE BLOCK ADDRESS 0x120a ===
  0x120a	dec    	eax
  0x120b	mov    	ecx, dword ptr [ebp - 0x10]
  0x120e	dec    	eax
  0x120f	lea    	eax, [ebp + 0x38]
  0x1212	dec    	eax
  === BLOCK LINK ===
    0x1213
=== CODE BLOCK END ===

=== CODE BLOCK ADDRESS 0x1213 ===
  0x1213	mov    	dword ptr [esp + 0x28], eax
  0x1217	dec    	esp
  0x1218	lea    	ecx, [ebp + 0x28]
  0x121b	dec    	eax
  0x121c	lea    	eax, [ebp + 0x30]
  === BLOCK LINK ===
    0x121f
=== CODE BLOCK END ===

=== CODE BLOCK ADDRESS 0x121f ===
  0x121f	mov    	dword ptr [ebp + 0x30], ebx
  0x1222	inc    	ebp
  0x1223	xor    	eax, eax
  0x1225	dec    	eax
  0x1226	mov    	dword ptr [esp + 0x20], eax
  === BLOCK LINK ===
    0x122a
=== CODE BLOCK END ===

=== CODE BLOCK ADDRESS 0x122a ===
  0x122a	dec    	eax
  0x122b	lea    	edx, [0x117f]
  0x1231	mov    	dword ptr [ebp + 0x38], 4
  0x1238	mov    	dword ptr [ebp + 0x28], ebx
  0x123b	dec    	eax
  === BLOCK LINK ===
    0x123c
=== CODE BLOCK END ===

=== CODE BLOCK ADDRESS 0x123c ===
  0x123c	call   	dword ptr [0xee6]
  === BLOCK LINK ===
    0x1242
=== CODE BLOCK END ===

=== CODE BLOCK ADDRESS 0x1242 ===
  0x1242	nop    	dword ptr [eax + eax]
  0x1247	test   	eax, eax
  0x1249	jne    	0x1260
  === BLOCK LINK ===
    0x124b
    0x1260
=== CODE BLOCK END ===

=== CODE BLOCK ADDRESS 0x124b ===
  0x124b	cmp    	dword ptr [ebp + 0x28], 4
  0x124f	jne    	0x1260
  === BLOCK LINK ===
    0x1251
    0x1260
=== CODE BLOCK END ===

=== CODE BLOCK ADDRESS 0x1251 ===
  0x1251	dec    	eax
  0x1252	test   	edi, edi
  0x1254	je     	0x125b
  === BLOCK LINK ===
    0x1256
    0x125b
=== CODE BLOCK END ===

=== CODE BLOCK ADDRESS 0x1256 ===
  0x1256	mov    	eax, dword ptr [ebp + 0x30]
  0x1259	mov    	dword ptr [edi], eax
  === BLOCK LINK ===
    0x125b
=== CODE BLOCK END ===

=== CODE BLOCK ADDRESS 0x1264 ===
  0x1264	dec    	eax
  0x1265	call   	dword ptr [0xec5]
  === BLOCK LINK ===
    0x126b
=== CODE BLOCK END ===

=== CODE BLOCK ADDRESS 0x126b ===
  0x126b	nop    	dword ptr [eax + eax]
  === BLOCK LINK ===
    0x1270
=== CODE BLOCK END ===

=== CODE BLOCK ADDRESS 0x1277 ===
  0x1277	pop    	ebx
  0x1278	pop    	ebp
  0x1279	ret    	
  0x127a	int3   	
  0x127b	int3   	
  === BLOCK LINK ===
    0x127c
=== CODE BLOCK END ===

=== CODE BLOCK ADDRESS 0x10b9 ===
  0x10b9	test   	eax, eax
  0x10bb	js     	0x11ab
  === BLOCK LINK ===
    0x10c1
=== CODE BLOCK END ===

=== CODE BLOCK ADDRESS 0x127c ===
  0x127c	int3   	
  0x127d	int3   	
  0x127e	int3   	
  0x127f	int3   	
  0x1280	int3   	
  === BLOCK LINK ===
    0x1281
=== CODE BLOCK END ===

=== CODE BLOCK ADDRESS 0x1281 ===
  0x1281	int3   	
  0x1282	int3   	
  0x1283	int3   	
  0x1284	int3   	
  0x1285	int3   	
  === BLOCK LINK ===
    0x1286
=== CODE BLOCK END ===

=== CODE BLOCK ADDRESS 0x1286 ===
  0x1286	int3   	
  0x1287	int3   	
  0x1288	int3   	
  0x1289	int3   	
  0x128a	int3   	
  === BLOCK LINK ===
    0x128b
=== CODE BLOCK END ===

=== CODE BLOCK ADDRESS 0x128b ===
  0x128b	int3   	
  0x128c	int3   	
  0x128d	int3   	
  0x128e	int3   	
  0x128f	int3   	
  === BLOCK LINK ===
    0x1290
=== CODE BLOCK END ===

=== CODE BLOCK ADDRESS 0x1290 ===
  0x1290	dec    	eax
  0x1291	sub    	esp, 0x28
  0x1294	mov    	eax, 0x5a4d
  0x1299	cmp    	word ptr [0xffffed60], ax
  0x12a0	je     	0x12a6
  === BLOCK LINK ===
    0x12a2
=== CODE BLOCK END ===

=== CODE BLOCK ADDRESS 0x12a2 ===
  0x12a2	xor    	eax, eax
  0x12a4	jmp    	0x12f9
  === BLOCK LINK ===
    0x12a6
=== CODE BLOCK END ===

=== CODE BLOCK ADDRESS 0x12a6 ===
  0x12a6	dec    	eax
  0x12a7	arpl   	word ptr [0xffffed8f], cx
  0x12ad	dec    	eax
  0x12ae	lea    	eax, [0xffffed4c]
  0x12b4	dec    	eax
  === BLOCK LINK ===
    0x12b5
=== CODE BLOCK END ===

=== CODE BLOCK ADDRESS 0x12b5 ===
  0x12b5	add    	ecx, eax
  0x12b7	cmp    	dword ptr [ecx], 0x4550
  0x12bd	jne    	0x12a2
  === BLOCK LINK ===
    0x12bf
=== CODE BLOCK END ===

=== CODE BLOCK ADDRESS 0x12bf ===
  0x12bf	mov    	eax, 0x10b
  0x12c4	cmp    	word ptr [ecx + 0x18], ax
  0x12c8	je     	0x12e8
  === BLOCK LINK ===
    0x12ca
=== CODE BLOCK END ===

=== CODE BLOCK ADDRESS 0x12ca ===
  0x12ca	mov    	eax, 0x20b
  0x12cf	cmp    	word ptr [ecx + 0x18], ax
  0x12d3	jne    	0x12a2
  === BLOCK LINK ===
    0x12d5
=== CODE BLOCK END ===

=== CODE BLOCK ADDRESS 0x12d5 ===
  0x12d5	xor    	eax, eax
  0x12d7	cmp    	dword ptr [ecx + 0x84], 0xe
  0x12de	jbe    	0x12f9
  === BLOCK LINK ===
    0x12e0
=== CODE BLOCK END ===

=== CODE BLOCK ADDRESS 0x12e0 ===
  0x12e0	cmp    	dword ptr [ecx + 0xf8], eax
  0x12e6	jmp    	0x12f6
  === BLOCK LINK ===
    0x12e8
=== CODE BLOCK END ===

=== CODE BLOCK ADDRESS 0x12e8 ===
  0x12e8	xor    	eax, eax
  0x12ea	cmp    	dword ptr [ecx + 0x74], 0xe
  0x12ee	jbe    	0x12f9
  === BLOCK LINK ===
    0x12f0
=== CODE BLOCK END ===

=== CODE BLOCK ADDRESS 0x12f0 ===
  0x12f0	cmp    	dword ptr [ecx + 0xe8], eax
  0x12f6	setne  	al
  0x12f9	mov    	ecx, 1
  0x12fe	mov    	dword ptr [0x1d3c], eax
  0x1304	call   	0x16b8
  === BLOCK LINK ===
    0x1309
=== CODE BLOCK END ===

=== CODE BLOCK ADDRESS 0x1309 ===
  0x1309	mov    	ecx, eax
  0x130b	call   	dword ptr [0xecf]
  === BLOCK LINK ===
    0x1311
=== CODE BLOCK END ===

=== CODE BLOCK ADDRESS 0x1311 ===
  0x1311	dec    	eax
  0x1312	mov    	ecx, dword ptr [0xf08]
  0x1318	dec    	eax
  0x1319	or     	eax, 0xffffffff
  0x131c	dec    	eax
  === BLOCK LINK ===
    0x131d
=== CODE BLOCK END ===

=== CODE BLOCK ADDRESS 0x131d ===
  0x131d	mov    	dword ptr [0x22ad], eax
  0x1323	dec    	eax
  0x1324	mov    	dword ptr [0x22ae], eax
  0x132a	mov    	eax, dword ptr [0x1d24]
  0x1330	mov    	dword ptr [ecx], eax
  === BLOCK LINK ===
    0x1332
=== CODE BLOCK END ===

=== CODE BLOCK ADDRESS 0x1332 ===
  0x1332	dec    	eax
  0x1333	mov    	ecx, dword ptr [0xedf]
  0x1339	mov    	eax, dword ptr [0x1d09]
  0x133f	mov    	dword ptr [ecx], eax
  0x1341	call   	0x1710
  === BLOCK LINK ===
    0x1346
=== CODE BLOCK END ===

=== CODE BLOCK ADDRESS 0x1346 ===
  0x1346	cmp    	dword ptr [0x1cb3], 0
  0x134d	jne    	0x135c
  === BLOCK LINK ===
    0x134f
=== CODE BLOCK END ===

=== CODE BLOCK ADDRESS 0x134f ===
  0x134f	dec    	eax
  0x1350	lea    	ecx, [0x3ba]
  0x1356	call   	dword ptr [0xea4]
  === BLOCK LINK ===
    0x135c
=== CODE BLOCK END ===

=== CODE BLOCK ADDRESS 0x135c ===
  0x135c	xor    	eax, eax
  0x135e	dec    	eax
  0x135f	add    	esp, 0x28
  0x1362	ret    	
  0x1363	int3   	
  === BLOCK LINK ===
    0x1364
=== CODE BLOCK END ===

=== CODE BLOCK ADDRESS 0x1364 ===
  0x1364	int3   	
  0x1365	int3   	
  0x1366	int3   	
  0x1367	int3   	
  0x1368	int3   	
  === BLOCK LINK ===
    0x1369
=== CODE BLOCK END ===

=== CODE BLOCK ADDRESS 0x1369 ===
  0x1369	int3   	
  0x136a	int3   	
  0x136b	int3   	
  0x136c	int3   	
  0x136d	int3   	
  === BLOCK LINK ===
    0x136e
=== CODE BLOCK END ===

=== CODE BLOCK ADDRESS 0x136e ===
  0x136e	int3   	
  0x136f	int3   	
  0x1370	dec    	eax
  0x1371	sub    	esp, 0x38
  0x1374	mov    	eax, dword ptr [0x1cd6]
  === BLOCK LINK ===
    0x137a
=== CODE BLOCK END ===

=== CODE BLOCK ADDRESS 0x137a ===
  0x137a	dec    	esp
  0x137b	lea    	eax, [0x1cb7]
  0x1381	inc    	esp
  0x1382	mov    	ecx, dword ptr [0x1cc4]
  0x1388	dec    	eax
  === BLOCK LINK ===
    0x1389
=== CODE BLOCK END ===

=== CODE BLOCK ADDRESS 0x1389 ===
  0x1389	lea    	edx, [0x1ca1]
  0x138f	mov    	dword ptr [0x1caf], eax
  0x1395	dec    	eax
  0x1396	lea    	ecx, [0x1c8c]
  0x139c	dec    	eax
  === BLOCK LINK ===
    0x139d
=== CODE BLOCK END ===

=== CODE BLOCK ADDRESS 0x139d ===
  0x139d	lea    	eax, [0x1ca1]
  0x13a3	dec    	eax
  0x13a4	mov    	dword ptr [esp + 0x20], eax
  0x13a8	call   	dword ptr [0xe2a]
  === BLOCK LINK ===
    0x13ae
=== CODE BLOCK END ===

=== CODE BLOCK ADDRESS 0x13ae ===
  0x13ae	mov    	dword ptr [0x1c78], eax
  0x13b4	dec    	eax
  0x13b5	add    	esp, 0x38
  0x13b8	ret    	
  0x13b9	int3   	
  === BLOCK LINK ===
    0x13ba
=== CODE BLOCK END ===

=== CODE BLOCK ADDRESS 0x13ba ===
  0x13ba	int3   	
  0x13bb	int3   	
  0x13bc	int3   	
  0x13bd	int3   	
  0x13be	int3   	
  === BLOCK LINK ===
    0x13bf
=== CODE BLOCK END ===

=== CODE BLOCK ADDRESS 0x13bf ===
  0x13bf	int3   	
  0x13c0	dec    	eax
  0x13c1	mov    	dword ptr [esp + 8], ebx
  0x13c5	dec    	eax
  0x13c6	mov    	dword ptr [esp + 0x10], esi
  === BLOCK LINK ===
    0x13ca
=== CODE BLOCK END ===

=== CODE BLOCK ADDRESS 0x13ca ===
  0x13ca	dec    	eax
  0x13cb	mov    	dword ptr [esp + 0x18], edi
  0x13cf	inc    	ecx
  0x13d0	push   	edi
  0x13d1	dec    	eax
  === BLOCK LINK ===
    0x13d2
=== CODE BLOCK END ===

=== CODE BLOCK ADDRESS 0x13d2 ===
  0x13d2	sub    	esp, 0x30
  0x13d5	dec    	eax
  0x13d7	mov    	eax, dword ptr [0x30]
  0x13de	dec    	eax
  0x13df	mov    	ebx, dword ptr [eax + 8]
  === BLOCK LINK ===
    0x13e2
=== CODE BLOCK END ===

=== CODE BLOCK ADDRESS 0x13e2 ===
  0x13e2	xor    	esi, esi
  0x13e4	xor    	eax, eax
  0x13e6	.byte  	0xf0
  0x13e7	dec    	eax
  0x13e8	cmpxchg  	dword ptr [0x21f1], ebx
  === BLOCK LINK ===
    0x13ef
=== CODE BLOCK END ===

=== CODE BLOCK ADDRESS 0x13ef ===
  0x13ef	je     	0x140c
  === BLOCK LINK ===
    0x13f1
=== CODE BLOCK END ===

=== CODE BLOCK ADDRESS 0x13f1 ===
  0x13f1	dec    	eax
  0x13f2	cmp    	eax, ebx
  0x13f4	jne    	0x13ff
  === BLOCK LINK ===
    0x13f6
=== CODE BLOCK END ===

=== CODE BLOCK ADDRESS 0x13f6 ===
  0x13f6	mov    	ebx, 1
  0x13fb	mov    	esi, ebx
  0x13fd	jmp    	0x1411
  === BLOCK LINK ===
    0x13ff
=== CODE BLOCK END ===

=== CODE BLOCK ADDRESS 0x13ff ===
  0x13ff	mov    	ecx, 0x3e8
  0x1404	call   	dword ptr [0xd86]
  === BLOCK LINK ===
    0x140a
=== CODE BLOCK END ===

=== CODE BLOCK ADDRESS 0x140a ===
  0x140a	jmp    	0x13e4
  === BLOCK LINK ===
    0x140c
=== CODE BLOCK END ===

=== CODE BLOCK ADDRESS 0x140c ===
  0x140c	mov    	ebx, 1
  0x1411	mov    	eax, dword ptr [0x21d1]
  0x1417	cmp    	eax, ebx
  0x1419	jne    	0x1427
  === BLOCK LINK ===
    0x141b
=== CODE BLOCK END ===

=== CODE BLOCK ADDRESS 0x141b ===
  0x141b	mov    	ecx, 0x1f
  0x1420	call   	0x1703
  === BLOCK LINK ===
    0x1425
=== CODE BLOCK END ===

=== CODE BLOCK ADDRESS 0x1425 ===
  0x1425	jmp    	0x148c
  === BLOCK LINK ===
    0x1427
=== CODE BLOCK END ===

=== CODE BLOCK ADDRESS 0x1427 ===
  0x1427	mov    	eax, dword ptr [0x21bb]
  0x142d	test   	eax, eax
  0x142f	jne    	0x1486
  === BLOCK LINK ===
    0x1431
=== CODE BLOCK END ===

=== CODE BLOCK ADDRESS 0x1431 ===
  0x1431	mov    	dword ptr [0x21b1], ebx
  0x1437	dec    	esp
  0x1438	lea    	edi, [0xe8a]
  0x143e	dec    	eax
  0x143f	lea    	edi, [0xe6b]
  === BLOCK LINK ===
    0x1445
=== CODE BLOCK END ===

=== CODE BLOCK ADDRESS 0x1445 ===
  0x1445	dec    	eax
  0x1446	mov    	dword ptr [esp + 0x28], edi
  0x144a	mov    	dword ptr [esp + 0x20], eax
  0x144e	dec    	ecx
  0x144f	cmp    	edi, edi
  === BLOCK LINK ===
    0x1451
=== CODE BLOCK END ===

=== CODE BLOCK ADDRESS 0x1451 ===
  0x1451	jae    	0x1478
  === BLOCK LINK ===
    0x1453
=== CODE BLOCK END ===

=== CODE BLOCK ADDRESS 0x1453 ===
  0x1453	test   	eax, eax
  0x1455	jne    	0x147c
  === BLOCK LINK ===
    0x1457
=== CODE BLOCK END ===

=== CODE BLOCK ADDRESS 0x1457 ===
  0x1457	dec    	eax
  0x1458	cmp    	dword ptr [edi], 0
  0x145b	je     	0x146d
  === BLOCK LINK ===
    0x145d
=== CODE BLOCK END ===

=== CODE BLOCK ADDRESS 0x145d ===
  0x145d	dec    	eax
  0x145e	mov    	eax, dword ptr [edi]
  0x1460	dec    	eax
  0x1461	mov    	ecx, dword ptr [0xe29]
  0x1467	call   	ecx
  === BLOCK LINK ===
    0x1469
=== CODE BLOCK END ===

=== CODE BLOCK ADDRESS 0x1469 ===
  0x1469	mov    	dword ptr [esp + 0x20], eax
  0x146d	dec    	eax
  0x146e	add    	edi, 8
  0x1471	dec    	eax
  0x1472	mov    	dword ptr [esp + 0x28], edi
  === BLOCK LINK ===
    0x1476
=== CODE BLOCK END ===

=== CODE BLOCK ADDRESS 0x1476 ===
  0x1476	jmp    	0x144e
  === BLOCK LINK ===
    0x1478
=== CODE BLOCK END ===

=== CODE BLOCK ADDRESS 0x1478 ===
  0x1478	test   	eax, eax
  0x147a	je     	0x148c
  === BLOCK LINK ===
    0x147c
=== CODE BLOCK END ===

=== CODE BLOCK ADDRESS 0x147c ===
  0x147c	mov    	eax, 0xff
  0x1481	jmp    	0x1568
  === BLOCK LINK ===
    0x1486
=== CODE BLOCK END ===

=== CODE BLOCK ADDRESS 0x1486 ===
  0x1486	mov    	dword ptr [0x1b98], ebx
  0x148c	mov    	eax, dword ptr [0x2156]
  0x1492	cmp    	eax, ebx
  0x1494	jne    	0x14b3
  === BLOCK LINK ===
    0x1496
=== CODE BLOCK END ===

=== CODE BLOCK ADDRESS 0x1496 ===
  0x1496	dec    	eax
  0x1497	lea    	edx, [0xe0b]
  0x149d	dec    	eax
  0x149e	lea    	ecx, [0xdf4]
  0x14a4	call   	0x18de
  === BLOCK LINK ===
    0x14a9
=== CODE BLOCK END ===

=== CODE BLOCK ADDRESS 0x14a9 ===
  0x14a9	mov    	dword ptr [0x2135], 2
  0x14b3	test   	esi, esi
  0x14b5	jne    	0x14c0
  === BLOCK LINK ===
    0x14b7
=== CODE BLOCK END ===

=== CODE BLOCK ADDRESS 0x14b7 ===
  0x14b7	xor    	eax, eax
  0x14b9	dec    	eax
  0x14ba	xchg   	dword ptr [0x2120], eax
  0x14c0	dec    	eax
  0x14c1	cmp    	dword ptr [0x2128], 0
  === BLOCK LINK ===
    0x14c8
=== CODE BLOCK END ===

=== CODE BLOCK ADDRESS 0x14c8 ===
  0x14c8	je     	0x14f4
  === BLOCK LINK ===
    0x14ca
=== CODE BLOCK END ===

=== CODE BLOCK ADDRESS 0x14ca ===
  0x14ca	dec    	eax
  0x14cb	lea    	ecx, [0x211f]
  0x14d1	call   	0x1770
  === BLOCK LINK ===
    0x14d6
=== CODE BLOCK END ===

=== CODE BLOCK ADDRESS 0x14d6 ===
  0x14d6	test   	eax, eax
  0x14d8	je     	0x14f4
  === BLOCK LINK ===
    0x14da
=== CODE BLOCK END ===

=== CODE BLOCK ADDRESS 0x14da ===
  0x14da	inc    	ebp
  0x14db	xor    	eax, eax
  0x14dd	inc    	ecx
  0x14de	lea    	edx, [eax + 2]
  0x14e1	xor    	ecx, ecx
  === BLOCK LINK ===
    0x14e3
=== CODE BLOCK END ===

=== CODE BLOCK ADDRESS 0x14e3 ===
  0x14e3	dec    	eax
  0x14e4	mov    	eax, dword ptr [0x2106]
  0x14ea	dec    	esp
  0x14eb	mov    	ecx, dword ptr [0xd9f]
  0x14f1	inc    	ecx
  === BLOCK LINK ===
    0x14f2
=== CODE BLOCK END ===

=== CODE BLOCK ADDRESS 0x14f2 ===
  0x14f2	call   	ecx
  === BLOCK LINK ===
    0x14f4
=== CODE BLOCK END ===

=== CODE BLOCK ADDRESS 0x14f4 ===
  0x14f4	dec    	esp
  0x14f5	mov    	eax, dword ptr [0x1b3d]
  0x14fb	dec    	eax
  0x14fc	mov    	edx, dword ptr [0x1b2e]
  0x1502	mov    	ecx, dword ptr [0x1b20]
  === BLOCK LINK ===
    0x1508
=== CODE BLOCK END ===

=== CODE BLOCK ADDRESS 0x1508 ===
  0x1508	call   	0x1008
  === BLOCK LINK ===
    0x150d
=== CODE BLOCK END ===

=== CODE BLOCK ADDRESS 0x150d ===
  0x150d	mov    	dword ptr [0x1b0d], eax
  0x1513	cmp    	dword ptr [0x1b26], 0
  0x151a	jne    	0x1524
  === BLOCK LINK ===
    0x151c
=== CODE BLOCK END ===

=== CODE BLOCK ADDRESS 0x151c ===
  0x151c	mov    	ecx, eax
  0x151e	call   	dword ptr [0xcc4]
  === BLOCK LINK ===
    0x1524
=== CODE BLOCK END ===

=== CODE BLOCK ADDRESS 0x1524 ===
  0x1524	cmp    	dword ptr [0x1af9], 0
  0x152b	jne    	0x1539
  === BLOCK LINK ===
    0x152d
=== CODE BLOCK END ===

=== CODE BLOCK ADDRESS 0x152d ===
  0x152d	call   	dword ptr [0xcc5]
  === BLOCK LINK ===
    0x1533
=== CODE BLOCK END ===

=== CODE BLOCK ADDRESS 0x1533 ===
  0x1533	mov    	eax, dword ptr [0x1ae7]
  0x1539	jmp    	0x1568
  === BLOCK LINK ===
    0x153b
=== CODE BLOCK END ===

=== CODE BLOCK ADDRESS 0x153b ===
  0x153b	mov    	dword ptr [0x1adf], eax
  0x1541	cmp    	dword ptr [0x1af8], 0
  0x1548	jne    	0x1553
  === BLOCK LINK ===
    0x154a
=== CODE BLOCK END ===

=== CODE BLOCK ADDRESS 0x154a ===
  0x154a	mov    	ecx, eax
  0x154c	call   	dword ptr [0xc9e]
  === BLOCK LINK ===
    0x1552
=== CODE BLOCK END ===

=== CODE BLOCK ADDRESS 0x1552 ===
  0x1552	int3   	
  0x1553	cmp    	dword ptr [0x1aca], 0
  0x155a	jne    	0x1568
  === BLOCK LINK ===
    0x155c
=== CODE BLOCK END ===

=== CODE BLOCK ADDRESS 0x155c ===
  0x155c	call   	dword ptr [0xc96]
  === BLOCK LINK ===
    0x1562
=== CODE BLOCK END ===

=== CODE BLOCK ADDRESS 0x1562 ===
  0x1562	mov    	eax, dword ptr [0x1ab8]
  0x1568	dec    	eax
  0x1569	mov    	ebx, dword ptr [esp + 0x40]
  0x156d	dec    	eax
  0x156e	mov    	esi, dword ptr [esp + 0x48]
  === BLOCK LINK ===
    0x1572
=== CODE BLOCK END ===

=== CODE BLOCK ADDRESS 0x1572 ===
  0x1572	dec    	eax
  0x1573	mov    	edi, dword ptr [esp + 0x50]
  0x1577	dec    	eax
  0x1578	add    	esp, 0x30
  0x157b	inc    	ecx
  === BLOCK LINK ===
    0x157c
=== CODE BLOCK END ===

=== CODE BLOCK ADDRESS 0x157c ===
  0x157c	pop    	edi
  0x157d	ret    	
  0x157e	int3   	
  0x157f	int3   	
  0x1580	int3   	
  === BLOCK LINK ===
    0x1581
=== CODE BLOCK END ===

=== CODE BLOCK ADDRESS 0x11ab ===
  0x11ab	xor    	eax, eax
  === BLOCK LINK ===
    0x11ad
=== CODE BLOCK END ===

=== CODE BLOCK ADDRESS 0x1581 ===
  0x1581	int3   	
  0x1582	int3   	
  0x1583	int3   	
  0x1584	int3   	
  0x1585	int3   	
  === BLOCK LINK ===
    0x1586
=== CODE BLOCK END ===

=== CODE BLOCK ADDRESS 0x1586 ===
  0x1586	int3   	
  0x1587	int3   	
  0x1588	int3   	
  0x1589	int3   	
  0x158a	int3   	
  === BLOCK LINK ===
    0x158b
=== CODE BLOCK END ===

=== CODE BLOCK ADDRESS 0x158b ===
  0x158b	int3   	
  0x158c	int3   	
  0x158d	int3   	
  0x158e	int3   	
  0x158f	int3   	
  === BLOCK LINK ===
    0x1590
=== CODE BLOCK END ===

=== CODE BLOCK ADDRESS 0x1590 ===
  0x1590	dec    	eax
  0x1591	sub    	esp, 0x28
  0x1594	call   	0x1804
  === BLOCK LINK ===
    0x1599
=== CODE BLOCK END ===

=== CODE BLOCK ADDRESS 0x1599 ===
  0x1599	dec    	eax
  0x159a	add    	esp, 0x28
  0x159d	jmp    	0x13c0
  === BLOCK LINK ===
    0x15a2
=== CODE BLOCK END ===

=== CODE BLOCK ADDRESS 0x15a2 ===
  0x15a2	int3   	
  0x15a3	int3   	
  0x15a4	int3   	
  0x15a5	int3   	
  0x15a6	int3   	
  === BLOCK LINK ===
    0x15a7
=== CODE BLOCK END ===

=== CODE BLOCK ADDRESS 0x15a7 ===
  0x15a7	int3   	
  0x15a8	int3   	
  0x15a9	int3   	
  0x15aa	int3   	
  0x15ab	int3   	
  === BLOCK LINK ===
    0x15ac
=== CODE BLOCK END ===

=== CODE BLOCK ADDRESS 0x15ac ===
  0x15ac	int3   	
  0x15ad	int3   	
  0x15ae	int3   	
  0x15af	int3   	
  0x15b0	int3   	
  === BLOCK LINK ===
    0x15b1
=== CODE BLOCK END ===

=== CODE BLOCK ADDRESS 0x15b1 ===
  0x15b1	int3   	
  0x15b2	int3   	
  0x15b3	int3   	
  0x15b4	int3   	
  0x15b5	int3   	
  === BLOCK LINK ===
    0x15b6
=== CODE BLOCK END ===

=== CODE BLOCK ADDRESS 0x15b6 ===
  0x15b6	nop    	word ptr [eax + eax]
  0x15c0	dec    	eax
  0x15c1	cmp    	ecx, dword ptr [0x1a41]
  0x15c7	jne    	0x15d9
  === BLOCK LINK ===
    0x15c9
=== CODE BLOCK END ===

=== CODE BLOCK ADDRESS 0x15c9 ===
  0x15c9	dec    	eax
  0x15ca	rol    	ecx, 0x10
  0x15cd	test   	cx, 0xffff
  0x15d2	jne    	0x15d5
  === BLOCK LINK ===
    0x15d4
=== CODE BLOCK END ===

=== CODE BLOCK ADDRESS 0x15d4 ===
  0x15d4	ret    	
  0x15d5	dec    	eax
  0x15d6	ror    	ecx, 0x10
  0x15d9	jmp    	0x1950
  === BLOCK LINK ===
    0x15de
=== CODE BLOCK END ===

=== CODE BLOCK ADDRESS 0x15de ===
  0x15de	int3   	
  0x15df	int3   	
  0x15e0	int3   	
  0x15e1	int3   	
  0x15e2	int3   	
  === BLOCK LINK ===
    0x15e3
=== CODE BLOCK END ===

=== CODE BLOCK ADDRESS 0x15e3 ===
  0x15e3	int3   	
  0x15e4	int3   	
  0x15e5	int3   	
  0x15e6	int3   	
  0x15e7	int3   	
  === BLOCK LINK ===
    0x15e8
=== CODE BLOCK END ===

=== CODE BLOCK ADDRESS 0x15e8 ===
  0x15e8	int3   	
  0x15e9	int3   	
  0x15ea	int3   	
  0x15eb	int3   	
  0x15ec	int3   	
  === BLOCK LINK ===
    0x15ed
=== CODE BLOCK END ===

=== CODE BLOCK ADDRESS 0x15ed ===
  0x15ed	int3   	
  0x15ee	int3   	
  0x15ef	int3   	
  0x15f0	dec    	eax
  0x15f1	sub    	esp, 0x28
  === BLOCK LINK ===
    0x15f4
=== CODE BLOCK END ===

=== CODE BLOCK ADDRESS 0x15f4 ===
  0x15f4	dec    	eax
  0x15f5	mov    	eax, dword ptr [ecx]
  0x15f7	cmp    	dword ptr [eax], 0xe06d7363
  0x15fd	jne    	0x1622
  === BLOCK LINK ===
    0x15ff
=== CODE BLOCK END ===

=== CODE BLOCK ADDRESS 0x15ff ===
  0x15ff	cmp    	dword ptr [eax + 0x18], 4
  0x1603	jne    	0x1622
  === BLOCK LINK ===
    0x1605
=== CODE BLOCK END ===

=== CODE BLOCK ADDRESS 0x1605 ===
  0x1605	mov    	ecx, dword ptr [eax + 0x20]
  0x1608	lea    	eax, [ecx - 0x19930520]
  0x160e	cmp    	eax, 2
  0x1611	jbe    	0x161b
  === BLOCK LINK ===
    0x1613
=== CODE BLOCK END ===

=== CODE BLOCK ADDRESS 0x1613 ===
  0x1613	cmp    	ecx, 0x1994000
  0x1619	jne    	0x1622
  === BLOCK LINK ===
    0x161b
=== CODE BLOCK END ===

=== CODE BLOCK ADDRESS 0x161b ===
  0x161b	call   	dword ptr [0xbef]
  === BLOCK LINK ===
    0x1621
=== CODE BLOCK END ===

=== CODE BLOCK ADDRESS 0x1621 ===
  0x1621	int3   	
  0x1622	xor    	eax, eax
  0x1624	dec    	eax
  0x1625	add    	esp, 0x28
  0x1628	ret    	
  === BLOCK LINK ===
    0x1629
=== CODE BLOCK END ===

=== CODE BLOCK ADDRESS 0x11ad ===
  0x11ad	dec    	esp
  0x11ae	lea    	ebx, [esp + 0x70]
  0x11b2	dec    	ecx
  === BLOCK LINK ===
    0x11b3
=== CODE BLOCK END ===

=== CODE BLOCK ADDRESS 0x1629 ===
  0x1629	int3   	
  0x162a	int3   	
  0x162b	int3   	
  0x162c	int3   	
  0x162d	int3   	
  === BLOCK LINK ===
    0x162e
=== CODE BLOCK END ===

=== CODE BLOCK ADDRESS 0x162e ===
  0x162e	int3   	
  0x162f	int3   	
  0x1630	dec    	eax
  0x1631	sub    	esp, 0x28
  0x1634	dec    	eax
  === BLOCK LINK ===
    0x1635
=== CODE BLOCK END ===

=== CODE BLOCK ADDRESS 0x1635 ===
  0x1635	lea    	ecx, [0xffffffb5]
  0x163b	call   	dword ptr [0xb47]
  === BLOCK LINK ===
    0x1641
=== CODE BLOCK END ===

=== CODE BLOCK ADDRESS 0x1641 ===
  0x1641	xor    	eax, eax
  0x1643	dec    	eax
  0x1644	add    	esp, 0x28
  0x1647	ret    	
  0x1648	int3   	
  === BLOCK LINK ===
    0x1649
=== CODE BLOCK END ===

=== CODE BLOCK ADDRESS 0x1649 ===
  0x1649	int3   	
  0x164a	int3   	
  0x164b	int3   	
  0x164c	int3   	
  0x164d	int3   	
  === BLOCK LINK ===
    0x164e
=== CODE BLOCK END ===

=== CODE BLOCK ADDRESS 0x164e ===
  0x164e	jmp    	dword ptr [0xb74]
  === BLOCK LINK ===
    0x1654
=== CODE BLOCK END ===

=== CODE BLOCK ADDRESS 0x1654 ===
  0x1654	int3   	
  0x1655	int3   	
  0x1656	int3   	
  0x1657	int3   	
  0x1658	int3   	
  === BLOCK LINK ===
    0x1659
=== CODE BLOCK END ===

=== CODE BLOCK ADDRESS 0x1659 ===
  0x1659	int3   	
  0x165a	int3   	
  0x165b	int3   	
  0x165c	dec    	eax
  0x165d	sub    	esp, 0x18
  === BLOCK LINK ===
    0x1660
=== CODE BLOCK END ===

=== CODE BLOCK ADDRESS 0x1660 ===
  0x1660	xor    	edx, edx
  0x1662	dec    	eax
  0x1663	lea    	eax, [ecx - 1]
  0x1666	dec    	eax
  0x1667	cmp    	eax, -3
  === BLOCK LINK ===
    0x166a
=== CODE BLOCK END ===

=== CODE BLOCK ADDRESS 0x166a ===
  0x166a	ja     	0x16a8
  === BLOCK LINK ===
    0x166c
=== CODE BLOCK END ===

=== CODE BLOCK ADDRESS 0x166c ===
  0x166c	mov    	eax, 0x5a4d
  0x1671	cmp    	word ptr [ecx], ax
  0x1674	jne    	0x16a0
  === BLOCK LINK ===
    0x1676
=== CODE BLOCK END ===

=== CODE BLOCK ADDRESS 0x1676 ===
  0x1676	cmp    	dword ptr [ecx + 0x3c], edx
  0x1679	jl     	0x16a0
  === BLOCK LINK ===
    0x167b
=== CODE BLOCK END ===

=== CODE BLOCK ADDRESS 0x167b ===
  0x167b	cmp    	dword ptr [ecx + 0x3c], 0x10000000
  0x1682	jae    	0x16a0
  === BLOCK LINK ===
    0x1684
=== CODE BLOCK END ===

=== CODE BLOCK ADDRESS 0x1684 ===
  0x1684	dec    	eax
  0x1685	arpl   	word ptr [ecx + 0x3c], ax
  0x1688	dec    	eax
  0x1689	add    	eax, ecx
  0x168b	dec    	eax
  === BLOCK LINK ===
    0x168c
=== CODE BLOCK END ===

=== CODE BLOCK ADDRESS 0x168c ===
  0x168c	mov    	dword ptr [esp], eax
  0x168f	cmp    	dword ptr [eax], 0x4550
  0x1695	dec    	eax
  0x1696	cmovne  	eax, edx
  0x1699	dec    	eax
  === BLOCK LINK ===
    0x169a
=== CODE BLOCK END ===

=== CODE BLOCK ADDRESS 0x169a ===
  0x169a	mov    	edx, eax
  0x169c	dec    	eax
  0x169d	mov    	dword ptr [esp], eax
  0x16a0	jmp    	0x16a8
  === BLOCK LINK ===
    0x16a2
=== CODE BLOCK END ===

=== CODE BLOCK ADDRESS 0x16a2 ===
  0x16a2	xor    	edx, edx
  0x16a4	dec    	eax
  0x16a5	mov    	dword ptr [esp], edx
  0x16a8	dec    	eax
  0x16a9	mov    	eax, edx
  === BLOCK LINK ===
    0x16ab
=== CODE BLOCK END ===

=== CODE BLOCK ADDRESS 0x16ab ===
  0x16ab	dec    	eax
  0x16ac	add    	esp, 0x18
  0x16af	ret    	
  0x16b0	int3   	
  0x16b1	int3   	
  === BLOCK LINK ===
    0x16b2
=== CODE BLOCK END ===

=== CODE BLOCK ADDRESS 0x16b2 ===
  0x16b2	int3   	
  0x16b3	int3   	
  0x16b4	int3   	
  0x16b5	int3   	
  0x16b6	int3   	
  === BLOCK LINK ===
    0x16b7
=== CODE BLOCK END ===

=== CODE BLOCK ADDRESS 0x16b7 ===
  0x16b7	int3   	
  0x16b8	inc    	eax
  0x16b9	push   	ebx
  0x16ba	dec    	eax
  0x16bb	sub    	esp, 0x20
  === BLOCK LINK ===
    0x16be
=== CODE BLOCK END ===

=== CODE BLOCK ADDRESS 0x16be ===
  0x16be	mov    	ebx, ecx
  0x16c0	xor    	ecx, ecx
  0x16c2	call   	dword ptr [0xab8]
  === BLOCK LINK ===
    0x16c8
=== CODE BLOCK END ===

=== CODE BLOCK ADDRESS 0x16c8 ===
  0x16c8	dec    	eax
  0x16c9	test   	eax, eax
  0x16cb	je     	0x16f5
  === BLOCK LINK ===
    0x16cd
=== CODE BLOCK END ===

=== CODE BLOCK ADDRESS 0x16cd ===
  0x16cd	dec    	eax
  0x16ce	mov    	ecx, eax
  0x16d0	call   	0x165c
  === BLOCK LINK ===
    0x16d5
=== CODE BLOCK END ===

=== CODE BLOCK ADDRESS 0x16d5 ===
  0x16d5	dec    	eax
  0x16d6	test   	eax, eax
  0x16d8	je     	0x16f5
  === BLOCK LINK ===
    0x16da
=== CODE BLOCK END ===

=== CODE BLOCK ADDRESS 0x16da ===
  0x16da	mov    	ecx, 2
  0x16df	cmp    	word ptr [eax + 0x5c], cx
  0x16e3	jne    	0x16e9
  === BLOCK LINK ===
    0x16e5
=== CODE BLOCK END ===

=== CODE BLOCK ADDRESS 0x16e5 ===
  0x16e5	mov    	eax, ecx
  0x16e7	jmp    	0x16f7
  === BLOCK LINK ===
    0x16e9
=== CODE BLOCK END ===

=== CODE BLOCK ADDRESS 0x16e9 ===
  0x16e9	cmp    	word ptr [eax + 0x5c], 3
  0x16ee	mov    	eax, 1
  0x16f3	je     	0x16f7
  === BLOCK LINK ===
    0x16f5
=== CODE BLOCK END ===

=== CODE BLOCK ADDRESS 0x16f5 ===
  0x16f5	mov    	eax, ebx
  0x16f7	dec    	eax
  0x16f8	add    	esp, 0x20
  0x16fb	pop    	ebx
  0x16fc	ret    	
  === BLOCK LINK ===
    0x16fd
=== CODE BLOCK END ===

=== CODE BLOCK ADDRESS 0x1142 ===
  0x1142	dec    	eax
  0x1143	mov    	ecx, edi
  0x1145	dec    	eax
  === BLOCK LINK ===
    0x1146
=== CODE BLOCK END ===

=== CODE BLOCK ADDRESS 0x16fd ===
  0x16fd	int3   	
  0x16fe	int3   	
  0x16ff	int3   	
  0x1700	int3   	
  0x1701	int3   	
  === BLOCK LINK ===
    0x1702
=== CODE BLOCK END ===

=== CODE BLOCK ADDRESS 0x1702 ===
  0x1702	int3   	
  0x1703	jmp    	dword ptr [0xac7]
  === BLOCK LINK ===
    0x1709
=== CODE BLOCK END ===

=== CODE BLOCK ADDRESS 0x1709 ===
  0x1709	int3   	
  0x170a	int3   	
  0x170b	int3   	
  0x170c	int3   	
  0x170d	int3   	
  === BLOCK LINK ===
    0x170e
=== CODE BLOCK END ===

=== CODE BLOCK ADDRESS 0x170e ===
  0x170e	int3   	
  0x170f	int3   	
  0x1710	xor    	eax, eax
  0x1712	ret    	
  0x1713	int3   	
  === BLOCK LINK ===
    0x1714
=== CODE BLOCK END ===

=== CODE BLOCK ADDRESS 0x1140 ===
  0x1140	mov    	ebx, eax
  === BLOCK LINK ===
    0x1142
=== CODE BLOCK END ===

=== CODE BLOCK ADDRESS 0x1714 ===
  0x1714	int3   	
  0x1715	int3   	
  0x1716	int3   	
  0x1717	int3   	
  0x1718	int3   	
  === BLOCK LINK ===
    0x1719
=== CODE BLOCK END ===

=== CODE BLOCK ADDRESS 0x1719 ===
  0x1719	int3   	
  0x171a	int3   	
  0x171b	int3   	
  0x171c	int3   	
  0x171d	int3   	
  === BLOCK LINK ===
    0x171e
=== CODE BLOCK END ===

=== CODE BLOCK ADDRESS 0x171e ===
  0x171e	int3   	
  0x171f	int3   	
  0x1720	dec    	esp
  0x1721	arpl   	word ptr [ecx + 0x3c], ax
  0x1724	inc    	ebp
  === BLOCK LINK ===
    0x1725
=== CODE BLOCK END ===

=== CODE BLOCK ADDRESS 0x1725 ===
  0x1725	xor    	ecx, ecx
  0x1727	dec    	esp
  0x1728	add    	eax, ecx
  0x172a	dec    	esp
  0x172b	mov    	edx, edx
  === BLOCK LINK ===
    0x172d
=== CODE BLOCK END ===

=== CODE BLOCK ADDRESS 0x172d ===
  0x172d	inc    	ecx
  0x172e	movzx  	eax, word ptr [eax + 0x14]
  0x1732	inc    	ebp
  0x1733	movzx  	ebx, word ptr [eax + 6]
  0x1737	dec    	eax
  === BLOCK LINK ===
    0x1738
=== CODE BLOCK END ===

=== CODE BLOCK ADDRESS 0x1738 ===
  0x1738	add    	eax, 0x18
  0x173b	dec    	ecx
  0x173c	add    	eax, eax
  0x173e	inc    	ebp
  0x173f	test   	ebx, ebx
  === BLOCK LINK ===
    0x1741
=== CODE BLOCK END ===

=== CODE BLOCK ADDRESS 0x1741 ===
  0x1741	je     	0x1761
  === BLOCK LINK ===
    0x1743
=== CODE BLOCK END ===

=== CODE BLOCK ADDRESS 0x1743 ===
  0x1743	mov    	edx, dword ptr [eax + 0xc]
  0x1746	dec    	esp
  0x1747	cmp    	edx, edx
  0x1749	jb     	0x1755
  === BLOCK LINK ===
    0x174b
=== CODE BLOCK END ===

=== CODE BLOCK ADDRESS 0x174b ===
  0x174b	mov    	ecx, dword ptr [eax + 8]
  0x174e	add    	ecx, edx
  0x1750	dec    	esp
  0x1751	cmp    	edx, ecx
  0x1753	jb     	0x1763
  === BLOCK LINK ===
    0x1755
=== CODE BLOCK END ===

=== CODE BLOCK ADDRESS 0x1755 ===
  0x1755	inc    	ecx
  0x1756	inc    	ecx
  0x1758	dec    	eax
  0x1759	add    	eax, 0x28
  0x175c	inc    	ebp
  === BLOCK LINK ===
    0x175d
=== CODE BLOCK END ===

=== CODE BLOCK ADDRESS 0x175d ===
  0x175d	cmp    	ecx, ebx
  0x175f	jb     	0x1743
  === BLOCK LINK ===
    0x1761
=== CODE BLOCK END ===

=== CODE BLOCK ADDRESS 0x1761 ===
  0x1761	xor    	eax, eax
  0x1763	ret    	
  0x1764	int3   	
  0x1765	int3   	
  0x1766	int3   	
  === BLOCK LINK ===
    0x1767
=== CODE BLOCK END ===

=== CODE BLOCK ADDRESS 0x1161 ===
  0x1161	test   	ebx, ebx
  0x1163	jne    	0x10ec
  === BLOCK LINK ===
    0x1165
=== CODE BLOCK END ===

=== CODE BLOCK ADDRESS 0x1767 ===
  0x1767	int3   	
  0x1768	int3   	
  0x1769	int3   	
  0x176a	int3   	
  0x176b	int3   	
  === BLOCK LINK ===
    0x176c
=== CODE BLOCK END ===

=== CODE BLOCK ADDRESS 0x176c ===
  0x176c	int3   	
  0x176d	int3   	
  0x176e	int3   	
  0x176f	int3   	
  0x1770	dec    	eax
  === BLOCK LINK ===
    0x1771
=== CODE BLOCK END ===

=== CODE BLOCK ADDRESS 0x1771 ===
  0x1771	mov    	dword ptr [esp + 8], ebx
  0x1775	push   	edi
  0x1776	dec    	eax
  0x1777	sub    	esp, 0x20
  0x177a	dec    	eax
  === BLOCK LINK ===
    0x177b
=== CODE BLOCK END ===

=== CODE BLOCK ADDRESS 0x177b ===
  0x177b	mov    	ebx, ecx
  0x177d	dec    	eax
  0x177e	lea    	edi, [0xffffe87c]
  0x1784	dec    	eax
  0x1785	mov    	ecx, edi
  === BLOCK LINK ===
    0x1787
=== CODE BLOCK END ===

=== CODE BLOCK ADDRESS 0x1787 ===
  0x1787	call   	0x17d0
  === BLOCK LINK ===
    0x178c
=== CODE BLOCK END ===

=== CODE BLOCK ADDRESS 0x178c ===
  0x178c	test   	eax, eax
  0x178e	je     	0x17b2
  === BLOCK LINK ===
    0x1790
=== CODE BLOCK END ===

=== CODE BLOCK ADDRESS 0x1790 ===
  0x1790	dec    	eax
  0x1791	sub    	ebx, edi
  0x1793	dec    	eax
  0x1794	mov    	edx, ebx
  0x1796	dec    	eax
  === BLOCK LINK ===
    0x1797
=== CODE BLOCK END ===

=== CODE BLOCK ADDRESS 0x1797 ===
  0x1797	mov    	ecx, edi
  0x1799	call   	0x1720
  === BLOCK LINK ===
    0x179e
=== CODE BLOCK END ===

=== CODE BLOCK ADDRESS 0x179e ===
  0x179e	dec    	eax
  0x179f	test   	eax, eax
  0x17a1	je     	0x17b2
  === BLOCK LINK ===
    0x17a3
=== CODE BLOCK END ===

=== CODE BLOCK ADDRESS 0x17a3 ===
  0x17a3	mov    	eax, dword ptr [eax + 0x24]
  0x17a6	shr    	eax, 0x1f
  0x17a9	not    	eax
  0x17ab	and    	eax, 1
  0x17ae	jmp    	0x17b2
  === BLOCK LINK ===
    0x17b0
=== CODE BLOCK END ===

=== CODE BLOCK ADDRESS 0x17b0 ===
  0x17b0	xor    	eax, eax
  0x17b2	dec    	eax
  0x17b3	mov    	ebx, dword ptr [esp + 0x30]
  0x17b7	dec    	eax
  0x17b8	add    	esp, 0x20
  === BLOCK LINK ===
    0x17bb
=== CODE BLOCK END ===

=== CODE BLOCK ADDRESS 0x17bb ===
  0x17bb	pop    	edi
  0x17bc	ret    	
  0x17bd	int3   	
  0x17be	int3   	
  0x17bf	int3   	
  === BLOCK LINK ===
    0x17c0
=== CODE BLOCK END ===

=== CODE BLOCK ADDRESS 0x17c0 ===
  0x17c0	int3   	
  0x17c1	int3   	
  0x17c2	int3   	
  0x17c3	int3   	
  0x17c4	int3   	
  === BLOCK LINK ===
    0x17c5
=== CODE BLOCK END ===

=== CODE BLOCK ADDRESS 0x17c5 ===
  0x17c5	int3   	
  0x17c6	int3   	
  0x17c7	int3   	
  0x17c8	int3   	
  0x17c9	int3   	
  === BLOCK LINK ===
    0x17ca
=== CODE BLOCK END ===

=== CODE BLOCK ADDRESS 0x17ca ===
  0x17ca	int3   	
  0x17cb	int3   	
  0x17cc	int3   	
  0x17cd	int3   	
  0x17ce	int3   	
  === BLOCK LINK ===
    0x17cf
=== CODE BLOCK END ===

=== CODE BLOCK ADDRESS 0x17cf ===
  0x17cf	int3   	
  0x17d0	mov    	eax, 0x5a4d
  0x17d5	cmp    	word ptr [ecx], ax
  0x17d8	jne    	0x17fa
  === BLOCK LINK ===
    0x17da
=== CODE BLOCK END ===

=== CODE BLOCK ADDRESS 0x17da ===
  0x17da	dec    	eax
  0x17db	arpl   	word ptr [ecx + 0x3c], ax
  0x17de	dec    	eax
  0x17df	add    	eax, ecx
  0x17e1	cmp    	dword ptr [eax], 0x4550
  === BLOCK LINK ===
    0x17e7
=== CODE BLOCK END ===

=== CODE BLOCK ADDRESS 0x17e7 ===
  0x17e7	jne    	0x17fa
  === BLOCK LINK ===
    0x17e9
=== CODE BLOCK END ===

=== CODE BLOCK ADDRESS 0x17e9 ===
  0x17e9	mov    	ecx, 0x20b
  0x17ee	cmp    	word ptr [eax + 0x18], cx
  0x17f2	jne    	0x17fa
  === BLOCK LINK ===
    0x17f4
=== CODE BLOCK END ===

=== CODE BLOCK ADDRESS 0x17f4 ===
  0x17f4	mov    	eax, 1
  0x17f9	ret    	
  0x17fa	xor    	eax, eax
  0x17fc	ret    	
  0x17fd	int3   	
  === BLOCK LINK ===
    0x17fe
=== CODE BLOCK END ===

=== CODE BLOCK ADDRESS 0x11c8 ===
  0x11c8	inc    	eax
  0x11c9	push   	ebp
  0x11ca	push   	ebx
  0x11cb	push   	edi
  === BLOCK LINK ===
    0x11cc
=== CODE BLOCK END ===

=== CODE BLOCK ADDRESS 0x17fe ===
  0x17fe	int3   	
  0x17ff	int3   	
  0x1800	int3   	
  0x1801	int3   	
  0x1802	int3   	
  === BLOCK LINK ===
    0x1803
=== CODE BLOCK END ===

=== CODE BLOCK ADDRESS 0x1803 ===
  0x1803	int3   	
  0x1804	dec    	eax
  0x1805	mov    	dword ptr [esp + 0x20], ebx
  0x1809	push   	ebp
  0x180a	dec    	eax
  === BLOCK LINK ===
    0x180b
=== CODE BLOCK END ===

=== CODE BLOCK ADDRESS 0x180b ===
  0x180b	mov    	ebp, esp
  0x180d	dec    	eax
  0x180e	sub    	esp, 0x20
  0x1811	dec    	eax
  0x1812	and    	dword ptr [ebp + 0x18], 0
  === BLOCK LINK ===
    0x1816
=== CODE BLOCK END ===

=== CODE BLOCK ADDRESS 0x1816 ===
  0x1816	dec    	eax
  0x1817	mov    	ebx, 0x2ddfa232
  0x181c	cdq    	
  0x181d	sub    	eax, dword ptr [eax]
  0x181f	add    	byte ptr [eax - 0x75], cl
  === BLOCK LINK ===
    0x1822
=== CODE BLOCK END ===

=== CODE BLOCK ADDRESS 0x1822 ===
  0x1822	add    	eax, 0x17e1
  0x1827	dec    	eax
  0x1828	cmp    	eax, ebx
  0x182a	jne    	0x18c3
  === BLOCK LINK ===
    0x1830
=== CODE BLOCK END ===

=== CODE BLOCK ADDRESS 0x1830 ===
  0x1830	dec    	eax
  0x1831	lea    	ecx, [ebp + 0x18]
  0x1834	call   	dword ptr [0x926]
  === BLOCK LINK ===
    0x183a
=== CODE BLOCK END ===

=== CODE BLOCK ADDRESS 0x183a ===
  0x183a	dec    	eax
  0x183b	mov    	eax, dword ptr [ebp + 0x18]
  0x183e	dec    	eax
  0x183f	mov    	dword ptr [ebp + 0x10], eax
  0x1842	call   	dword ptr [0x928]
  === BLOCK LINK ===
    0x1848
=== CODE BLOCK END ===

=== CODE BLOCK ADDRESS 0x1848 ===
  0x1848	mov    	eax, eax
  0x184a	dec    	eax
  0x184b	xor    	dword ptr [ebp + 0x10], eax
  0x184e	call   	dword ptr [0x954]
  === BLOCK LINK ===
    0x1854
=== CODE BLOCK END ===

=== CODE BLOCK ADDRESS 0x1854 ===
  0x1854	mov    	eax, eax
  0x1856	dec    	eax
  0x1857	xor    	dword ptr [ebp + 0x10], eax
  0x185a	call   	dword ptr [0x8f8]
  === BLOCK LINK ===
    0x1860
=== CODE BLOCK END ===

=== CODE BLOCK ADDRESS 0x1860 ===
  0x1860	mov    	eax, eax
  0x1862	dec    	eax
  0x1863	shl    	eax, 0x18
  0x1866	dec    	eax
  0x1867	xor    	dword ptr [ebp + 0x10], eax
  === BLOCK LINK ===
    0x186a
=== CODE BLOCK END ===

=== CODE BLOCK ADDRESS 0x186a ===
  0x186a	call   	dword ptr [0x8e8]
  === BLOCK LINK ===
    0x1870
=== CODE BLOCK END ===

=== CODE BLOCK ADDRESS 0x1870 ===
  0x1870	mov    	eax, eax
  0x1872	dec    	eax
  0x1873	lea    	ecx, [ebp + 0x10]
  0x1876	dec    	eax
  0x1877	xor    	eax, dword ptr [ebp + 0x10]
  === BLOCK LINK ===
    0x187a
=== CODE BLOCK END ===

=== CODE BLOCK ADDRESS 0x187a ===
  0x187a	dec    	eax
  0x187b	xor    	eax, ecx
  0x187d	dec    	eax
  0x187e	lea    	ecx, [ebp + 0x20]
  0x1881	dec    	eax
  === BLOCK LINK ===
    0x1882
=== CODE BLOCK END ===

=== CODE BLOCK ADDRESS 0x1882 ===
  0x1882	mov    	dword ptr [ebp + 0x10], eax
  0x1885	call   	dword ptr [0x8ed]
  === BLOCK LINK ===
    0x188b
=== CODE BLOCK END ===

=== CODE BLOCK ADDRESS 0x188b ===
  0x188b	mov    	eax, dword ptr [ebp + 0x20]
  0x188e	dec    	eax
  0x188f	mov    	ecx, 0xffffffff
  0x1894	.byte  	0xff
  0x1895	inc    	dword ptr [eax]
  === BLOCK LINK ===
    0x1897
=== CODE BLOCK END ===

=== CODE BLOCK ADDRESS 0x1897 ===
  0x1897	add    	byte ptr [eax - 0x3f], cl
  0x189a	loopne  	0x18bc
  === BLOCK LINK ===
    0x189c
=== CODE BLOCK END ===

=== CODE BLOCK ADDRESS 0x189c ===
  0x189c	dec    	eax
  0x189d	xor    	eax, dword ptr [ebp + 0x20]
  0x18a0	dec    	eax
  0x18a1	xor    	eax, dword ptr [ebp + 0x10]
  0x18a4	dec    	eax
  === BLOCK LINK ===
    0x18a5
=== CODE BLOCK END ===

=== CODE BLOCK ADDRESS 0x18a5 ===
  0x18a5	and    	eax, ecx
  0x18a7	dec    	eax
  0x18a8	mov    	ecx, eax
  0x18aa	dec    	eax
  0x18ab	cmp    	eax, ebx
  === BLOCK LINK ===
    0x18ad
=== CODE BLOCK END ===

=== CODE BLOCK ADDRESS 0x18ad ===
  0x18ad	jne    	0x18bc
  === BLOCK LINK ===
    0x18af
=== CODE BLOCK END ===

=== CODE BLOCK ADDRESS 0x18af ===
  0x18af	dec    	eax
  0x18b0	mov    	eax, 0x2ddfa233
  0x18b5	cdq    	
  0x18b6	sub    	eax, dword ptr [eax]
  0x18b8	add    	byte ptr [eax - 0x75], cl
  === BLOCK LINK ===
    0x18bb
=== CODE BLOCK END ===

=== CODE BLOCK ADDRESS 0x18bb ===
  0x18bb	enter  	-0x76b8, 0xd
  0x18bf	inc    	ebp
  0x18c0	pop    	ss
  0x18c1	add    	byte ptr [eax], al
  0x18c3	dec    	eax
  === BLOCK LINK ===
    0x18c4
=== CODE BLOCK END ===

=== CODE BLOCK ADDRESS 0x18c4 ===
  0x18c4	mov    	ebx, dword ptr [esp + 0x48]
  0x18c8	dec    	eax
  0x18c9	not    	eax
  0x18cb	dec    	eax
  0x18cc	mov    	dword ptr [0x173e], eax
  === BLOCK LINK ===
    0x18d2
=== CODE BLOCK END ===

=== CODE BLOCK ADDRESS 0x18d2 ===
  0x18d2	dec    	eax
  0x18d3	add    	esp, 0x20
  0x18d6	pop    	ebp
  0x18d7	ret    	
  0x18d8	int3   	
  === BLOCK LINK ===
    0x18d9
=== CODE BLOCK END ===

=== CODE BLOCK ADDRESS 0x18d9 ===
  0x18d9	int3   	
  0x18da	int3   	
  0x18db	int3   	
  0x18dc	int3   	
  0x18dd	int3   	
  === BLOCK LINK ===
    0x18de
=== CODE BLOCK END ===

=== CODE BLOCK ADDRESS 0x18de ===
  0x18de	jmp    	dword ptr [0x924]
  === BLOCK LINK ===
    0x18e4
=== CODE BLOCK END ===

=== CODE BLOCK ADDRESS 0x18e4 ===
  0x18e4	int3   	
  0x18e5	int3   	
  0x18e6	int3   	
  0x18e7	int3   	
  0x18e8	int3   	
  === BLOCK LINK ===
    0x18e9
=== CODE BLOCK END ===

=== CODE BLOCK ADDRESS 0x18e9 ===
  0x18e9	int3   	
  0x18ea	jmp    	dword ptr [0x938]
  === BLOCK LINK ===
    0x18f0
=== CODE BLOCK END ===

=== CODE BLOCK ADDRESS 0x18f0 ===
  0x18f0	int3   	
  0x18f1	int3   	
  0x18f2	int3   	
  0x18f3	int3   	
  0x18f4	int3   	
  === BLOCK LINK ===
    0x18f5
=== CODE BLOCK END ===

=== CODE BLOCK ADDRESS 0x18f5 ===
  0x18f5	int3   	
  0x18f6	int3   	
  0x18f7	int3   	
  0x18f8	int3   	
  0x18f9	int3   	
  === BLOCK LINK ===
    0x18fa
=== CODE BLOCK END ===

=== CODE BLOCK ADDRESS 0x18fa ===
  0x18fa	int3   	
  0x18fb	int3   	
  0x18fc	int3   	
  0x18fd	int3   	
  0x18fe	int3   	
  === BLOCK LINK ===
    0x18ff
=== CODE BLOCK END ===

=== CODE BLOCK ADDRESS 0x18ff ===
  0x18ff	int3   	
  0x1900	ret    	0
  0x1903	int3   	
  0x1904	int3   	
  0x1905	int3   	
  === BLOCK LINK ===
    0x1906
=== CODE BLOCK END ===

=== CODE BLOCK ADDRESS 0x1270 ===
  0x1270	mov    	eax, ebx
  0x1272	dec    	eax
  0x1273	add    	esp, 0x40
  0x1276	pop    	edi
  === BLOCK LINK ===
    0x1277
=== CODE BLOCK END ===

=== CODE BLOCK ADDRESS 0x1906 ===
  0x1906	int3   	
  0x1907	int3   	
  0x1908	int3   	
  0x1909	int3   	
  0x190a	int3   	
  === BLOCK LINK ===
    0x190b
=== CODE BLOCK END ===

=== CODE BLOCK ADDRESS 0x190b ===
  0x190b	int3   	
  0x190c	inc    	eax
  0x190d	push   	ebx
  0x190e	dec    	eax
  0x190f	sub    	esp, 0x20
  === BLOCK LINK ===
    0x1912
=== CODE BLOCK END ===

=== CODE BLOCK ADDRESS 0x1912 ===
  0x1912	dec    	eax
  0x1913	mov    	ebx, ecx
  0x1915	xor    	ecx, ecx
  0x1917	call   	dword ptr [0x86b]
  === BLOCK LINK ===
    0x191d
=== CODE BLOCK END ===

=== CODE BLOCK ADDRESS 0x191d ===
  0x191d	dec    	eax
  0x191e	mov    	ecx, ebx
  0x1920	call   	dword ptr [0x82a]
  === BLOCK LINK ===
    0x1926
=== CODE BLOCK END ===

=== CODE BLOCK ADDRESS 0x1926 ===
  0x1926	call   	dword ptr [0x81c]
  === BLOCK LINK ===
    0x192c
=== CODE BLOCK END ===

=== CODE BLOCK ADDRESS 0x192c ===
  0x192c	dec    	eax
  0x192d	mov    	ecx, eax
  0x192f	mov    	edx, 0xc0000409
  0x1934	dec    	eax
  0x1935	add    	esp, 0x20
  === BLOCK LINK ===
    0x1938
=== CODE BLOCK END ===

=== CODE BLOCK ADDRESS 0x1938 ===
  0x1938	pop    	ebx
  0x1939	dec    	eax
  0x193a	jmp    	dword ptr [0x878]
  === BLOCK LINK ===
    0x1940
=== CODE BLOCK END ===

=== CODE BLOCK ADDRESS 0x1940 ===
  0x1940	int3   	
  0x1941	int3   	
  0x1942	int3   	
  0x1943	int3   	
  0x1944	int3   	
  === BLOCK LINK ===
    0x1945
=== CODE BLOCK END ===

=== CODE BLOCK ADDRESS 0x1945 ===
  0x1945	int3   	
  0x1946	int3   	
  0x1947	int3   	
  0x1948	int3   	
  0x1949	int3   	
  === BLOCK LINK ===
    0x194a
=== CODE BLOCK END ===

=== CODE BLOCK ADDRESS 0x194a ===
  0x194a	int3   	
  0x194b	int3   	
  0x194c	int3   	
  0x194d	int3   	
  0x194e	int3   	
  === BLOCK LINK ===
    0x194f
=== CODE BLOCK END ===

=== CODE BLOCK ADDRESS 0x194f ===
  0x194f	int3   	
  0x1950	dec    	eax
  0x1951	mov    	dword ptr [esp + 8], ecx
  0x1955	dec    	eax
  0x1956	sub    	esp, 0x88
  === BLOCK LINK ===
    0x195c
=== CODE BLOCK END ===

=== CODE BLOCK ADDRESS 0x195c ===
  0x195c	dec    	eax
  0x195d	lea    	ecx, [0x179d]
  0x1963	call   	dword ptr [0x8cf]
  === BLOCK LINK ===
    0x1969
=== CODE BLOCK END ===

=== CODE BLOCK ADDRESS 0x1969 ===
  0x1969	dec    	eax
  0x196a	mov    	eax, dword ptr [0x1888]
  0x1970	dec    	eax
  0x1971	mov    	dword ptr [esp + 0x48], eax
  0x1975	inc    	ebp
  === BLOCK LINK ===
    0x1976
=== CODE BLOCK END ===

=== CODE BLOCK ADDRESS 0x1976 ===
  0x1976	xor    	eax, eax
  0x1978	dec    	eax
  0x1979	lea    	edx, [esp + 0x50]
  0x197d	dec    	eax
  0x197e	mov    	ecx, dword ptr [esp + 0x48]
  === BLOCK LINK ===
    0x1982
=== CODE BLOCK END ===

=== CODE BLOCK ADDRESS 0x1982 ===
  0x1982	call   	dword ptr [0x8c8]
  === BLOCK LINK ===
    0x1988
=== CODE BLOCK END ===

=== CODE BLOCK ADDRESS 0x1988 ===
  0x1988	dec    	eax
  0x1989	mov    	dword ptr [esp + 0x40], eax
  0x198d	dec    	eax
  0x198e	cmp    	dword ptr [esp + 0x40], 0
  0x1993	je     	0x19d7
  === BLOCK LINK ===
    0x1995
=== CODE BLOCK END ===

=== CODE BLOCK ADDRESS 0x1995 ===
  0x1995	dec    	eax
  0x1996	mov    	dword ptr [esp + 0x38], 0
  0x199e	dec    	eax
  0x199f	lea    	eax, [esp + 0x58]
  0x19a3	dec    	eax
  === BLOCK LINK ===
    0x19a4
=== CODE BLOCK END ===

=== CODE BLOCK ADDRESS 0x19a4 ===
  0x19a4	mov    	dword ptr [esp + 0x30], eax
  0x19a8	dec    	eax
  0x19a9	lea    	eax, [esp + 0x60]
  0x19ad	dec    	eax
  0x19ae	mov    	dword ptr [esp + 0x28], eax
  === BLOCK LINK ===
    0x19b2
=== CODE BLOCK END ===

=== CODE BLOCK ADDRESS 0x19b2 ===
  0x19b2	dec    	eax
  0x19b3	lea    	eax, [0x1747]
  0x19b9	dec    	eax
  0x19ba	mov    	dword ptr [esp + 0x20], eax
  0x19be	dec    	esp
  === BLOCK LINK ===
    0x19bf
=== CODE BLOCK END ===

=== CODE BLOCK ADDRESS 0x19bf ===
  0x19bf	mov    	ecx, dword ptr [esp + 0x40]
  0x19c3	dec    	esp
  0x19c4	mov    	eax, dword ptr [esp + 0x48]
  0x19c8	dec    	eax
  0x19c9	mov    	edx, dword ptr [esp + 0x50]
  === BLOCK LINK ===
    0x19cd
=== CODE BLOCK END ===

=== CODE BLOCK ADDRESS 0x19cd ===
  0x19cd	xor    	ecx, ecx
  0x19cf	call   	dword ptr [0x873]
  === BLOCK LINK ===
    0x19d5
=== CODE BLOCK END ===

=== CODE BLOCK ADDRESS 0x19d5 ===
  0x19d5	jmp    	0x19fa
  === BLOCK LINK ===
    0x19d7
=== CODE BLOCK END ===

=== CODE BLOCK ADDRESS 0x19d7 ===
  0x19d7	dec    	eax
  0x19d8	mov    	eax, dword ptr [0x17ba]
  0x19de	dec    	eax
  0x19df	mov    	eax, dword ptr [eax]
  0x19e1	dec    	eax
  === BLOCK LINK ===
    0x19e2
=== CODE BLOCK END ===

=== CODE BLOCK ADDRESS 0x19e2 ===
  0x19e2	mov    	dword ptr [0x1810], eax
  0x19e8	dec    	eax
  0x19e9	mov    	eax, dword ptr [0x17a9]
  0x19ef	dec    	eax
  0x19f0	add    	eax, 8
  === BLOCK LINK ===
    0x19f3
=== CODE BLOCK END ===

=== CODE BLOCK ADDRESS 0x19f3 ===
  0x19f3	dec    	eax
  0x19f4	mov    	dword ptr [0x179e], eax
  0x19fa	dec    	eax
  0x19fb	mov    	eax, dword ptr [0x17f7]
  0x1a01	dec    	eax
  === BLOCK LINK ===
    0x1a02
=== CODE BLOCK END ===

=== CODE BLOCK ADDRESS 0x1a02 ===
  0x1a02	mov    	dword ptr [0x1668], eax
  0x1a08	dec    	eax
  0x1a09	mov    	eax, dword ptr [esp + 0x90]
  0x1a10	dec    	eax
  0x1a11	mov    	dword ptr [0x1769], eax
  === BLOCK LINK ===
    0x1a17
=== CODE BLOCK END ===

=== CODE BLOCK ADDRESS 0x1a17 ===
  0x1a17	mov    	dword ptr [0x163f], 0xc0000409
  0x1a21	mov    	dword ptr [0x1639], 1
  0x1a2b	mov    	dword ptr [0x1643], 3
  0x1a35	mov    	eax, 8
  0x1a3a	dec    	eax
  === BLOCK LINK ===
    0x1a3b
=== CODE BLOCK END ===

=== CODE BLOCK ADDRESS 0x1a3b ===
  0x1a3b	imul   	eax, eax, 0
  0x1a3e	dec    	eax
  0x1a3f	lea    	ecx, [0x163b]
  0x1a45	dec    	eax
  0x1a46	mov    	dword ptr [ecx + eax], 2
  === BLOCK LINK ===
    0x1a4d
=== CODE BLOCK END ===

=== CODE BLOCK ADDRESS 0x1a4d ===
  0x1a4d	mov    	eax, 8
  0x1a52	dec    	eax
  0x1a53	imul   	eax, eax, 1
  0x1a56	dec    	eax
  0x1a57	lea    	ecx, [0x1623]
  === BLOCK LINK ===
    0x1a5d
=== CODE BLOCK END ===

=== CODE BLOCK ADDRESS 0x1a5d ===
  0x1a5d	dec    	eax
  0x1a5e	mov    	edx, dword ptr [0x15a4]
  0x1a64	dec    	eax
  0x1a65	mov    	dword ptr [ecx + eax], edx
  0x1a68	mov    	eax, 8
  === BLOCK LINK ===
    0x1a6d
=== CODE BLOCK END ===

=== CODE BLOCK ADDRESS 0x1a6d ===
  0x1a6d	dec    	eax
  0x1a6e	imul   	eax, eax, 2
  0x1a71	dec    	eax
  0x1a72	lea    	ecx, [0x1608]
  0x1a78	dec    	eax
  === BLOCK LINK ===
    0x1a79
=== CODE BLOCK END ===

=== CODE BLOCK ADDRESS 0x1a79 ===
  0x1a79	mov    	edx, dword ptr [0x1591]
  0x1a7f	dec    	eax
  0x1a80	mov    	dword ptr [ecx + eax], edx
  0x1a83	mov    	eax, 8
  0x1a88	dec    	eax
  === BLOCK LINK ===
    0x1a89
=== CODE BLOCK END ===

=== CODE BLOCK ADDRESS 0x1a89 ===
  0x1a89	imul   	eax, eax, 0
  0x1a8c	dec    	eax
  0x1a8d	mov    	ecx, dword ptr [0x1575]
  0x1a93	dec    	eax
  0x1a94	mov    	dword ptr [esp + eax + 0x68], ecx
  === BLOCK LINK ===
    0x1a98
=== CODE BLOCK END ===

=== CODE BLOCK ADDRESS 0x1a98 ===
  0x1a98	mov    	eax, 8
  0x1a9d	dec    	eax
  0x1a9e	imul   	eax, eax, 1
  0x1aa1	dec    	eax
  0x1aa2	mov    	ecx, dword ptr [0x1568]
  === BLOCK LINK ===
    0x1aa8
=== CODE BLOCK END ===

=== CODE BLOCK ADDRESS 0x1aa8 ===
  0x1aa8	dec    	eax
  0x1aa9	mov    	dword ptr [esp + eax + 0x68], ecx
  0x1aad	dec    	eax
  0x1aae	lea    	ecx, [0x54c]
  0x1ab4	call   	0x190c
  === BLOCK LINK ===
    0x1ab9
=== CODE BLOCK END ===

=== CODE BLOCK ADDRESS 0x1ab9 ===
  0x1ab9	dec    	eax
  0x1aba	add    	esp, 0x88
  0x1ac0	ret    	
  0x1ac1	int3   	
  0x1ac2	int3   	
  === BLOCK LINK ===
    0x1ac3
=== CODE BLOCK END ===

=== CODE BLOCK ADDRESS 0x1260 ===
  0x1260	dec    	eax
  0x1261	mov    	ecx, dword ptr [ebp - 0x10]
  === BLOCK LINK ===
    0x1264
=== CODE BLOCK END ===

=== CODE BLOCK ADDRESS 0x1ac3 ===
  0x1ac3	int3   	
  0x1ac4	int3   	
  0x1ac5	int3   	
  0x1ac6	int3   	
  0x1ac7	int3   	
  === BLOCK LINK ===
    0x1ac8
=== CODE BLOCK END ===

=== CODE BLOCK ADDRESS 0x1ac8 ===
  0x1ac8	int3   	
  0x1ac9	int3   	
  0x1aca	int3   	
  0x1acb	int3   	
  0x1acc	int3   	
  === BLOCK LINK ===
    0x1acd
=== CODE BLOCK END ===

=== CODE BLOCK ADDRESS 0x1acd ===
  0x1acd	int3   	
  0x1ace	int3   	
  0x1acf	int3   	
  0x1ad0	int3   	
  0x1ad1	int3   	
  === BLOCK LINK ===
    0x1ad2
=== CODE BLOCK END ===

=== CODE BLOCK ADDRESS 0x1ad2 ===
  0x1ad2	int3   	
  0x1ad3	int3   	
  0x1ad4	int3   	
  0x1ad5	int3   	
  0x1ad6	nop    	word ptr [eax + eax]
  === BLOCK LINK ===
    0x1ae0
=== CODE BLOCK END ===

=== CODE BLOCK ADDRESS 0x1ae0 ===
  0x1ae0	jmp    	eax
  === BLOCK LINK ===
    0x1ae2
=== CODE BLOCK END ===

=== CODE BLOCK ADDRESS 0x1ae2 ===
  0x1ae2	int3   	
  0x1ae3	int3   	
  0x1ae4	int3   	
  0x1ae5	int3   	
  0x1ae6	int3   	
  === BLOCK LINK ===
    0x1ae7
=== CODE BLOCK END ===

=== CODE BLOCK ADDRESS 0x1ae7 ===
  0x1ae7	int3   	
  0x1ae8	int3   	
  0x1ae9	int3   	
  0x1aea	int3   	
  0x1aeb	int3   	
  === BLOCK LINK ===
    0x1aec
=== CODE BLOCK END ===

=== CODE BLOCK ADDRESS 0x1aec ===
  0x1aec	int3   	
  0x1aed	int3   	
  0x1aee	int3   	
  0x1aef	int3   	
  0x1af0	inc    	eax
  === BLOCK LINK ===
    0x1af1
=== CODE BLOCK END ===

=== CODE BLOCK ADDRESS 0x1af1 ===
  0x1af1	push   	ebp
  0x1af2	dec    	eax
  0x1af3	sub    	esp, 0x20
  0x1af6	dec    	eax
  0x1af7	mov    	ebp, edx
  === BLOCK LINK ===
    0x1af9
=== CODE BLOCK END ===

=== CODE BLOCK ADDRESS 0x1af9 ===
  0x1af9	dec    	eax
  0x1afa	mov    	eax, dword ptr [ecx]
  0x1afc	dec    	eax
  0x1afd	mov    	edx, ecx
  0x1aff	mov    	ecx, dword ptr [eax]
  === BLOCK LINK ===
    0x1b01
=== CODE BLOCK END ===

=== CODE BLOCK ADDRESS 0x1b01 ===
  0x1b01	call   	0x164e
  === BLOCK LINK ===
    0x1b06
=== CODE BLOCK END ===

=== CODE BLOCK ADDRESS 0x1b06 ===
  0x1b06	nop    	
  0x1b07	dec    	eax
  0x1b08	add    	esp, 0x20
  0x1b0b	pop    	ebp
  0x1b0c	ret    	
  === BLOCK LINK ===
    0x1b0d
=== CODE BLOCK END ===

=== CODE BLOCK ADDRESS 0x1b0d ===
  0x1b0d	int3   	
  0x1b0e	int3   	
  0x1b0f	int3   	
  0x1b10	int3   	
  0x1b11	int3   	
  === BLOCK LINK ===
    0x1b12
=== CODE BLOCK END ===

=== CODE BLOCK ADDRESS 0x1b12 ===
  0x1b12	int3   	
  0x1b13	int3   	
  0x1b14	int3   	
  0x1b15	int3   	
  0x1b16	int3   	
  === BLOCK LINK ===
    0x1b17
=== CODE BLOCK END ===

=== CODE BLOCK ADDRESS 0x1b17 ===
  0x1b17	int3   	
  0x1b18	int3   	
  0x1b19	int3   	
  0x1b1a	int3   	
  0x1b1b	int3   	
  === BLOCK LINK ===
    0x1b1c
=== CODE BLOCK END ===

=== CODE BLOCK ADDRESS 0x1b1c ===
  0x1b1c	int3   	
  0x1b1d	int3   	
  0x1b1e	int3   	
  0x1b1f	int3   	
  0x1b20	inc    	eax
  === BLOCK LINK ===
    0x1b21
=== CODE BLOCK END ===

=== CODE BLOCK ADDRESS 0x1b21 ===
  0x1b21	push   	ebp
  0x1b22	dec    	eax
  0x1b23	sub    	esp, 0x20
  0x1b26	dec    	eax
  0x1b27	mov    	ebp, edx
  === BLOCK LINK ===
    0x1b29
=== CODE BLOCK END ===

=== CODE BLOCK ADDRESS 0x1b29 ===
  0x1b29	dec    	eax
  0x1b2a	mov    	eax, dword ptr [ecx]
  0x1b2c	xor    	ecx, ecx
  0x1b2e	cmp    	dword ptr [eax], 0xc0000005
  0x1b34	sete   	cl
  === BLOCK LINK ===
    0x1b37
=== CODE BLOCK END ===

=== CODE BLOCK ADDRESS 0x1b37 ===
  0x1b37	mov    	eax, ecx
  0x1b39	dec    	eax
  0x1b3a	add    	esp, 0x20
  0x1b3d	pop    	ebp
  0x1b3e	ret    	
  === BLOCK LINK ===
    0x1b3f
=== CODE BLOCK END ===

=== CODE BLOCK ADDRESS 0x125b ===
  0x125b	mov    	ebx, 1
  === BLOCK LINK ===
    0x1260
=== CODE BLOCK END ===

=== CODE BLOCK ADDRESS 0x1b3f ===
  0x1b3f	int3   	
  0x1b40	add    	byte ptr [eax], al
  0x1b42	add    	byte ptr [eax], al
  0x1b44	add    	byte ptr [eax], al
  0x1b46	add    	byte ptr [eax], al
  === BLOCK LINK ===
    0x1b48
=== CODE BLOCK END ===

=== CODE BLOCK ADDRESS 0x1b48 ===
  0x1b48	add    	byte ptr [eax], al
  0x1b4a	add    	byte ptr [eax], al
  0x1b4c	add    	byte ptr [eax], al
  0x1b4e	add    	byte ptr [eax], al
  0x1b50	add    	byte ptr [eax], al
  === BLOCK LINK ===
    0x1b52
=== CODE BLOCK END ===

=== CODE BLOCK ADDRESS 0x1b52 ===
  0x1b52	add    	byte ptr [eax], al
  0x1b54	add    	byte ptr [eax], al
  0x1b56	add    	byte ptr [eax], al
  0x1b58	add    	byte ptr [eax], al
  0x1b5a	add    	byte ptr [eax], al
  === BLOCK LINK ===
    0x1b5c
=== CODE BLOCK END ===

=== CODE BLOCK ADDRESS 0x1b5c ===
  0x1b5c	add    	byte ptr [eax], al
  0x1b5e	add    	byte ptr [eax], al
  0x1b60	add    	byte ptr [eax], al
  0x1b62	add    	byte ptr [eax], al
  0x1b64	add    	byte ptr [eax], al
  === BLOCK LINK ===
    0x1b66
=== CODE BLOCK END ===

=== CODE BLOCK ADDRESS 0x1b66 ===
  0x1b66	add    	byte ptr [eax], al
  0x1b68	add    	byte ptr [eax], al
  0x1b6a	add    	byte ptr [eax], al
  0x1b6c	add    	byte ptr [eax], al
  0x1b6e	add    	byte ptr [eax], al
  === BLOCK LINK ===
    0x1b70
=== CODE BLOCK END ===

=== CODE BLOCK ADDRESS 0x1b70 ===
  0x1b70	add    	byte ptr [eax], al
  0x1b72	add    	byte ptr [eax], al
  0x1b74	add    	byte ptr [eax], al
  0x1b76	add    	byte ptr [eax], al
  0x1b78	add    	byte ptr [eax], al
  === BLOCK LINK ===
    0x1b7a
=== CODE BLOCK END ===

=== CODE BLOCK ADDRESS 0x1b7a ===
  0x1b7a	add    	byte ptr [eax], al
  0x1b7c	add    	byte ptr [eax], al
  0x1b7e	add    	byte ptr [eax], al
  0x1b80	add    	byte ptr [eax], al
  0x1b82	add    	byte ptr [eax], al
  === BLOCK LINK ===
    0x1b84
=== CODE BLOCK END ===

=== CODE BLOCK ADDRESS 0x1b84 ===
  0x1b84	add    	byte ptr [eax], al
  0x1b86	add    	byte ptr [eax], al
  0x1b88	add    	byte ptr [eax], al
  0x1b8a	add    	byte ptr [eax], al
  0x1b8c	add    	byte ptr [eax], al
  === BLOCK LINK ===
    0x1b8e
=== CODE BLOCK END ===

=== CODE BLOCK ADDRESS 0x1b8e ===
  0x1b8e	add    	byte ptr [eax], al
  0x1b90	add    	byte ptr [eax], al
  0x1b92	add    	byte ptr [eax], al
  0x1b94	add    	byte ptr [eax], al
  0x1b96	add    	byte ptr [eax], al
  === BLOCK LINK ===
    0x1b98
=== CODE BLOCK END ===

=== CODE BLOCK ADDRESS 0x1b98 ===
  0x1b98	add    	byte ptr [eax], al
  0x1b9a	add    	byte ptr [eax], al
  0x1b9c	add    	byte ptr [eax], al
  0x1b9e	add    	byte ptr [eax], al
  0x1ba0	add    	byte ptr [eax], al
  === BLOCK LINK ===
    0x1ba2
=== CODE BLOCK END ===

=== CODE BLOCK ADDRESS 0x1ba2 ===
  0x1ba2	add    	byte ptr [eax], al
  0x1ba4	add    	byte ptr [eax], al
  0x1ba6	add    	byte ptr [eax], al
  0x1ba8	add    	byte ptr [eax], al
  0x1baa	add    	byte ptr [eax], al
  === BLOCK LINK ===
    0x1bac
=== CODE BLOCK END ===

=== CODE BLOCK ADDRESS 0x1bac ===
  0x1bac	add    	byte ptr [eax], al
  0x1bae	add    	byte ptr [eax], al
  0x1bb0	add    	byte ptr [eax], al
  0x1bb2	add    	byte ptr [eax], al
  0x1bb4	add    	byte ptr [eax], al
  === BLOCK LINK ===
    0x1bb6
=== CODE BLOCK END ===

=== CODE BLOCK ADDRESS 0x1bb6 ===
  0x1bb6	add    	byte ptr [eax], al
  0x1bb8	add    	byte ptr [eax], al
  0x1bba	add    	byte ptr [eax], al
  0x1bbc	add    	byte ptr [eax], al
  0x1bbe	add    	byte ptr [eax], al
  === BLOCK LINK ===
    0x1bc0
=== CODE BLOCK END ===

=== CODE BLOCK ADDRESS 0x1bc0 ===
  0x1bc0	add    	byte ptr [eax], al
  0x1bc2	add    	byte ptr [eax], al
  0x1bc4	add    	byte ptr [eax], al
  0x1bc6	add    	byte ptr [eax], al
  0x1bc8	add    	byte ptr [eax], al
  === BLOCK LINK ===
    0x1bca
=== CODE BLOCK END ===

=== CODE BLOCK ADDRESS 0x1bca ===
  0x1bca	add    	byte ptr [eax], al
  0x1bcc	add    	byte ptr [eax], al
  0x1bce	add    	byte ptr [eax], al
  0x1bd0	add    	byte ptr [eax], al
  0x1bd2	add    	byte ptr [eax], al
  === BLOCK LINK ===
    0x1bd4
=== CODE BLOCK END ===

=== CODE BLOCK ADDRESS 0x1bd4 ===
  0x1bd4	add    	byte ptr [eax], al
  0x1bd6	add    	byte ptr [eax], al
  0x1bd8	add    	byte ptr [eax], al
  0x1bda	add    	byte ptr [eax], al
  0x1bdc	add    	byte ptr [eax], al
  === BLOCK LINK ===
    0x1bde
=== CODE BLOCK END ===

=== CODE BLOCK ADDRESS 0x1bde ===
  0x1bde	add    	byte ptr [eax], al
  0x1be0	add    	byte ptr [eax], al
  0x1be2	add    	byte ptr [eax], al
  0x1be4	add    	byte ptr [eax], al
  0x1be6	add    	byte ptr [eax], al
  === BLOCK LINK ===
    0x1be8
=== CODE BLOCK END ===

=== CODE BLOCK ADDRESS 0x1be8 ===
  0x1be8	add    	byte ptr [eax], al
  0x1bea	add    	byte ptr [eax], al
  0x1bec	add    	byte ptr [eax], al
  0x1bee	add    	byte ptr [eax], al
  0x1bf0	add    	byte ptr [eax], al
  === BLOCK LINK ===
    0x1bf2
=== CODE BLOCK END ===

=== CODE BLOCK ADDRESS 0x1bf2 ===
  0x1bf2	add    	byte ptr [eax], al
  0x1bf4	add    	byte ptr [eax], al
  0x1bf6	add    	byte ptr [eax], al
  0x1bf8	add    	byte ptr [eax], al
  0x1bfa	add    	byte ptr [eax], al
  === BLOCK LINK ===
    0x1bfc
=== CODE BLOCK END ===

=== CODE BLOCK ADDRESS 0x1bfc ===
  0x1bfc	add    	byte ptr [eax], al
=== CODE BLOCK END ===

=== DATA BLOCK ADDRESS 0x2000 ===
  0x2000	60 30 00 40 01 00 00 00 00 31 00 40 01 00 00 00 	`00@0000010@0000
  0x2010	18 01 00 00 00 00 00 00 00 00 00 00 00 00 00 00 	0000000000000000
  0x2020	00 00 00 00 00 00 00 00 00 00 00 00 00 00 00 00 	0000000000000000
  0x2030	00 00 00 00 00 00 00 00 00 00 00 00 00 00 00 00 	0000000000000000
  0x2040	00 00 00 00 00 00 00 00 00 00 00 00 00 00 00 00 	0000000000000000
  0x2050	00 00 00 00 00 00 00 00 00 00 00 00 00 00 00 00 	0000000000000000
  0x2060	00 00 00 00 00 00 00 00 08 30 00 40 01 00 00 00 	00000000000@0000
  0x2070	00 00 00 00 00 00 00 00 00 00 00 00 00 00 00 00 	0000000000000000
  0x2080	88 22 00 40 01 00 00 00 90 22 00 40 01 00 00 00 	0"0@00000"0@0000
  0x2090	d0 22 00 40 01 00 00 00 08 00 00 00 00 00 00 00 	0"0@000000000000
  0x20a0	00 75 01 00 00 00 00 00 00 00 00 00 00 00 00 00 	0u00000000000000
  0x20b0	00 00 00 00 00 00 00 00 00 00 00 00 00 00 00 00 	0000000000000000
  0x20c0	00 00 00 00 00 00 00 00 00 00 00 00 00 00 00 00 	0000000000000000
  0x20d0	00 00 00 00 00 00 00 00 00 00 00 00 00 00 00 00 	0000000000000000
  0x20e0	00 00 00 00 00 00 00 00 00 00 00 00 00 00 00 00 	0000000000000000
  0x20f0	00 00 00 00 00 00 00 00 00 00 00 00 00 00 00 00 	0000000000000000
  0x2100	00 00 00 00 00 00 00 00 00 00 00 00 00 00 00 00 	0000000000000000
  0x2110	00 00 00 00 00 00 00 00 00 00 00 00 00 00 00 00 	0000000000000000
  0x2120	00 00 00 00 00 00 00 00 b6 2a 00 00 00 00 00 00 	000000000*000000
  0x2130	da 2a 00 00 00 00 00 00 ca 2a 00 00 00 00 00 00 	0*0000000*000000
  0x2140	00 00 00 00 00 00 00 00 bc 2b 00 00 00 00 00 00 	000000000+000000
  0x2150	a0 2b 00 00 00 00 00 00 90 2b 00 00 00 00 00 00 	0+0000000+000000
  0x2160	76 2b 00 00 00 00 00 00 1c 29 00 00 00 00 00 00 	v+0000000)000000
  0x2170	4a 2b 00 00 00 00 00 00 30 2b 00 00 00 00 00 00 	J+0000000+000000
  0x2180	1c 2b 00 00 00 00 00 00 fe 2a 00 00 00 00 00 00 	0+0000000*000000
  0x2190	f6 2a 00 00 00 00 00 00 2c 29 00 00 00 00 00 00 	0*000000,)000000
  0x21a0	0e 29 00 00 00 00 00 00 60 2b 00 00 00 00 00 00 	0)000000`+000000
  0x21b0	f8 28 00 00 00 00 00 00 d0 2b 00 00 00 00 00 00 	0(0000000+000000
  0x21c0	00 00 00 00 00 00 00 00 48 29 00 00 00 00 00 00 	00000000H)000000
  0x21d0	56 29 00 00 00 00 00 00 64 29 00 00 00 00 00 00 	V)000000d)000000
  0x21e0	74 29 00 00 00 00 00 00 86 29 00 00 00 00 00 00 	t)0000000)000000
  0x21f0	8e 29 00 00 00 00 00 00 96 29 00 00 00 00 00 00 	0)0000000)000000
  0x2200	a0 29 00 00 00 00 00 00 b4 29 00 00 00 00 00 00 	0)0000000)000000
  0x2210	ee 29 00 00 00 00 00 00 e2 29 00 00 00 00 00 00 	0)0000000)000000
  0x2220	d8 29 00 00 00 00 00 00 c0 29 00 00 00 00 00 00 	0)0000000)000000
  0x2230	00 00 00 00 00 00 00 00 4e 2a 00 00 00 00 00 00 	00000000N*000000
  0x2240	0e 2a 00 00 00 00 00 00 7c 2a 00 00 00 00 00 00 	0*000000|*000000
  0x2250	62 2a 00 00 00 00 00 00 1c 2a 00 00 00 00 00 00 	b*0000000*000000
  0x2260	3e 2a 00 00 00 00 00 00 34 2a 00 00 00 00 00 00 	>*0000004*000000
  0x2270	00 00 00 00 00 00 00 00 9a 2a 00 00 00 00 00 00 	000000000*000000
  0x2280	00 00 00 00 00 00 00 00 00 19 00 40 01 00 00 00 	00000000000@0000
  0x2290	e0 1a 00 40 01 00 00 00 00 00 00 00 00 00 00 00 	000@000000000000
  0x22a0	70 13 00 40 01 00 00 00 00 00 00 00 00 00 00 00 	p00@000000000000
  0x22b0	00 00 00 00 00 00 00 00 90 12 00 40 01 00 00 00 	00000000000@0000
  0x22c0	30 16 00 40 01 00 00 00 00 00 00 00 00 00 00 00 	000@000000000000
  0x22d0	90 12 00 00 70 13 00 00 90 15 00 00 f0 15 00 00 	0000p00000000000
  0x22e0	30 16 00 00 10 17 00 00 00 19 00 00 50 19 00 00 	000000000000P000
  0x22f0	47 00 6c 00 6f 00 62 00 61 00 6c 00 5c 00 53 00 	G0l0o0b0a0l000S0
  0x2300	43 00 5f 00 41 00 75 00 74 00 6f 00 53 00 74 00 	C0_0A0u0t0o0S0t0
  0x2310	61 00 72 00 74 00 43 00 6f 00 6d 00 70 00 6c 00 	a0r0t0C0o0m0p0l0
  0x2320	65 00 74 00 65 00 00 00 5c 00 53 00 41 00 4d 00 	e0t0e00000S0A0M0
  0x2330	5f 00 53 00 45 00 52 00 56 00 49 00 43 00 45 00 	_0S0E0R0V0I0C0E0
  0x2340	5f 00 53 00 54 00 41 00 52 00 54 00 45 00 44 00 	_0S0T0A0R0T0E0D0
  0x2350	00 00 00 00 00 00 00 00 41 00 64 00 6d 00 69 00 	00000000A0d0m0i0
  0x2360	6e 00 69 00 73 00 74 00 72 00 61 00 74 00 6f 00 	n0i0s0t0r0a0t0o0
  0x2370	72 00 00 00 00 00 00 00 57 00 4f 00 52 00 4b 00 	r0000000W0O0R0K0
  0x2380	47 00 52 00 4f 00 55 00 50 00 00 00 00 00 00 00 	G0R0O0U0P0000000
  0x2390	53 00 79 00 73 00 74 00 65 00 6d 00 5c 00 53 00 	S0y0s0t0e0m000S0
  0x23a0	65 00 74 00 75 00 70 00 00 00 00 00 00 00 00 00 	e0t0u0p000000000
  0x23b0	55 00 70 00 67 00 72 00 61 00 64 00 65 00 00 00 	U0p0g0r0a0d0e000
  0x23c0	00 00 00 00 f2 8d a1 97 00 00 00 00 02 00 00 00 	0000000000000000
  0x23d0	24 00 00 00 14 24 00 00 14 14 00 00 00 00 00 00 	$0000$0000000000
  0x23e0	f2 8d a1 97 00 00 00 00 0d 00 00 00 f0 01 00 00 	0000000000000000
  0x23f0	38 24 00 00 38 14 00 00 00 00 00 00 f2 8d a1 97 	8$00800000000000
  0x2400	00 00 00 00 10 00 00 00 24 00 00 00 28 26 00 00 	00000000$000(&00
  0x2410	28 16 00 00 52 53 44 53 eb ff ab 20 cf 60 25 f8 	(000RSDS000 0`%0
  0x2420	31 97 17 41 83 a3 e7 e0 01 00 00 00 73 65 63 69 	100A00000000seci
  0x2430	6e 69 74 2e 70 64 62 00 47 43 54 4c 00 10 00 00 	nit.pdb0GCTL0000
  0x2440	d0 0a 00 00 2e 74 65 78 74 24 6d 6e 00 00 00 00 	0000.text$mn0000
  0x2450	d0 1a 00 00 20 00 00 00 2e 74 65 78 74 24 6d 6e 	0000 000.text$mn
  0x2460	24 30 30 00 f0 1a 00 00 50 00 00 00 2e 74 65 78 	$0000000P000.tex
  0x2470	74 24 78 00 00 20 00 00 28 01 00 00 2e 72 64 61 	t$x00 00(000.rda
  0x2480	74 61 24 62 72 63 00 00 28 21 00 00 60 01 00 00 	ta$brc00(!00`000
  0x2490	2e 69 64 61 74 61 24 35 00 00 00 00 88 22 00 00 	.idata$500000"00
  0x24a0	10 00 00 00 2e 30 30 63 66 67 00 00 98 22 00 00 	0000.00cfg000"00
  0x24b0	08 00 00 00 2e 43 52 54 24 58 43 41 00 00 00 00 	0000.CRT$XCA0000
  0x24c0	a0 22 00 00 08 00 00 00 2e 43 52 54 24 58 43 41 	0"000000.CRT$XCA
  0x24d0	41 00 00 00 a8 22 00 00 08 00 00 00 2e 43 52 54 	A0000"000000.CRT
  0x24e0	24 58 43 5a 00 00 00 00 b0 22 00 00 08 00 00 00 	$XCZ00000"000000
  0x24f0	2e 43 52 54 24 58 49 41 00 00 00 00 b8 22 00 00 	.CRT$XIA00000"00
  0x2500	08 00 00 00 2e 43 52 54 24 58 49 41 41 00 00 00 	0000.CRT$XIAA000
  0x2510	c0 22 00 00 08 00 00 00 2e 43 52 54 24 58 49 59 	0"000000.CRT$XIY
  0x2520	00 00 00 00 c8 22 00 00 08 00 00 00 2e 43 52 54 	00000"000000.CRT
  0x2530	24 58 49 5a 00 00 00 00 d0 22 00 00 20 00 00 00 	$XIZ00000"00 000
  0x2540	2e 67 66 69 64 73 00 00 f0 22 00 00 24 01 00 00 	.gfids000"00$000
  0x2550	2e 72 64 61 74 61 00 00 14 24 00 00 3c 02 00 00 	.rdata000$00<000
  0x2560	2e 72 64 61 74 61 24 7a 7a 7a 64 62 67 00 00 00 	.rdata$zzzdbg000
  0x2570	50 26 00 00 cc 00 00 00 2e 78 64 61 74 61 00 00 	P&000000.xdata00
  0x2580	1c 27 00 00 64 00 00 00 2e 69 64 61 74 61 24 32 	0'00d000.idata$2
  0x2590	00 00 00 00 80 27 00 00 18 00 00 00 2e 69 64 61 	00000'000000.ida
  0x25a0	74 61 24 33 00 00 00 00 98 27 00 00 60 01 00 00 	ta$300000'00`000
  0x25b0	2e 69 64 61 74 61 24 34 00 00 00 00 f8 28 00 00 	.idata$400000(00
  0x25c0	ec 02 00 00 2e 69 64 61 74 61 24 36 00 00 00 00 	0000.idata$60000
  0x25d0	00 30 00 00 20 00 00 00 2e 64 61 74 61 00 00 00 	0000 000.data000
  0x25e0	20 30 00 00 58 06 00 00 2e 62 73 73 00 00 00 00 	 000X000.bss0000
  0x25f0	00 40 00 00 d8 00 00 00 2e 70 64 61 74 61 00 00 	0@000000.pdata00
  0x2600	00 50 00 00 f0 00 00 00 2e 72 73 72 63 24 30 31 	0P000000.rsrc$01
  0x2610	00 00 00 00 f0 50 00 00 e0 06 00 00 2e 72 73 72 	00000P000000.rsr
  0x2620	63 24 30 32 00 00 00 00 20 00 00 00 eb ff ab 20 	c$020000 000000 
  0x2630	cf 60 25 f8 31 97 17 41 83 a3 e7 e0 33 bb bc b6 	0`%0100A00003000
  0x2640	7e 67 2b 60 d7 ff 4c 0c f2 8d a1 97 00 00 00 00 	~g+`00L000000000
  0x2650	01 12 06 00 12 74 11 00 12 34 10 00 12 d2 0b 50 	00000t000400000P
  0x2660	01 0b 04 00 0b 72 04 70 03 30 02 50 01 04 01 00 	00000r0p000P0000
  0x2670	04 42 00 00 01 04 01 00 04 62 00 00 09 15 08 00 	0B0000000b000000
  0x2680	15 74 0a 00 15 64 09 00 15 34 08 00 15 52 11 f0 	0t000d0004000R00
  0x2690	ea 18 00 00 01 00 00 00 d5 13 00 00 3b 15 00 00 	000000000000;000
  0x26a0	f0 1a 00 00 3b 15 00 00 01 06 02 00 06 32 02 50 	0000;0000000020P
  0x26b0	01 00 00 00 09 04 01 00 04 22 00 00 ea 18 00 00 	000000000"000000
  0x26c0	01 00 00 00 6c 16 00 00 a2 16 00 00 01 00 00 00 	0000l00000000000
  0x26d0	a2 16 00 00 01 06 02 00 06 32 02 30 09 0a 04 00 	0000000002000000
  0x26e0	0a 34 06 00 0a 32 06 70 ea 18 00 00 01 00 00 00 	0400020p00000000
  0x26f0	7d 17 00 00 b0 17 00 00 20 1b 00 00 b0 17 00 00 	}0000000 0000000
  0x2700	01 0d 04 00 0d 34 09 00 0d 32 06 50 01 0c 02 00 	00000400020P0000
  0x2710	0c 01 11 00 00 00 00 00 01 00 00 00 b8 27 00 00 	0000000000000'00
  0x2720	00 00 00 00 00 00 00 00 3a 29 00 00 48 21 00 00 	00000000:)00H!00
  0x2730	38 28 00 00 00 00 00 00 00 00 00 00 02 2a 00 00 	8(00000000000*00
  0x2740	c8 21 00 00 a8 28 00 00 00 00 00 00 00 00 00 00 	0!000(0000000000
  0x2750	90 2a 00 00 38 22 00 00 e8 28 00 00 00 00 00 00 	0*008"000(000000
  0x2760	00 00 00 00 aa 2a 00 00 78 22 00 00 98 27 00 00 	00000*00x"000'00
  0x2770	00 00 00 00 00 00 00 00 e8 2a 00 00 28 21 00 00 	000000000*00(!00
  0x2780	00 00 00 00 00 00 00 00 00 00 00 00 00 00 00 00 	0000000000000000
  0x2790	00 00 00 00 00 00 00 00 b6 2a 00 00 00 00 00 00 	000000000*000000
  0x27a0	da 2a 00 00 00 00 00 00 ca 2a 00 00 00 00 00 00 	0*0000000*000000
  0x27b0	00 00 00 00 00 00 00 00 bc 2b 00 00 00 00 00 00 	000000000+000000
  0x27c0	a0 2b 00 00 00 00 00 00 90 2b 00 00 00 00 00 00 	0+0000000+000000
  0x27d0	76 2b 00 00 00 00 00 00 1c 29 00 00 00 00 00 00 	v+0000000)000000
  0x27e0	4a 2b 00 00 00 00 00 00 30 2b 00 00 00 00 00 00 	J+0000000+000000
  0x27f0	1c 2b 00 00 00 00 00 00 fe 2a 00 00 00 00 00 00 	0+0000000*000000
  0x2800	f6 2a 00 00 00 00 00 00 2c 29 00 00 00 00 00 00 	0*000000,)000000
  0x2810	0e 29 00 00 00 00 00 00 60 2b 00 00 00 00 00 00 	0)000000`+000000
  0x2820	f8 28 00 00 00 00 00 00 d0 2b 00 00 00 00 00 00 	0(0000000+000000
  0x2830	00 00 00 00 00 00 00 00 48 29 00 00 00 00 00 00 	00000000H)000000
  0x2840	56 29 00 00 00 00 00 00 64 29 00 00 00 00 00 00 	V)000000d)000000
  0x2850	74 29 00 00 00 00 00 00 86 29 00 00 00 00 00 00 	t)0000000)000000
  0x2860	8e 29 00 00 00 00 00 00 96 29 00 00 00 00 00 00 	0)0000000)000000
  0x2870	a0 29 00 00 00 00 00 00 b4 29 00 00 00 00 00 00 	0)0000000)000000
  0x2880	ee 29 00 00 00 00 00 00 e2 29 00 00 00 00 00 00 	0)0000000)000000
  0x2890	d8 29 00 00 00 00 00 00 c0 29 00 00 00 00 00 00 	0)0000000)000000
  0x28a0	00 00 00 00 00 00 00 00 4e 2a 00 00 00 00 00 00 	00000000N*000000
  0x28b0	0e 2a 00 00 00 00 00 00 7c 2a 00 00 00 00 00 00 	0*000000|*000000
  0x28c0	62 2a 00 00 00 00 00 00 1c 2a 00 00 00 00 00 00 	b*0000000*000000
  0x28d0	3e 2a 00 00 00 00 00 00 34 2a 00 00 00 00 00 00 	>*0000004*000000
  0x28e0	00 00 00 00 00 00 00 00 9a 2a 00 00 00 00 00 00 	000000000*000000
  0x28f0	00 00 00 00 00 00 00 00 e8 05 57 61 69 74 46 6f 	0000000000WaitFo
  0x2900	72 53 69 6e 67 6c 65 4f 62 6a 65 63 74 00 05 04 	rSingleObject000
  0x2910	4f 70 65 6e 45 76 65 6e 74 57 00 00 69 02 47 65 	OpenEventW00i0Ge
  0x2920	74 4c 61 73 74 45 72 72 6f 72 00 00 88 00 43 6c 	tLastError0000Cl
  0x2930	6f 73 65 48 61 6e 64 6c 65 00 4b 45 52 4e 45 4c 	oseHandle0KERNEL
  0x2940	33 32 2e 64 6c 6c 00 00 55 00 5f 58 63 70 74 46 	32.dll00U0_XcptF
  0x2950	69 6c 74 65 72 00 ae 00 5f 61 6d 73 67 5f 65 78 	ilter000_amsg_ex
  0x2960	69 74 00 00 7f 00 5f 5f 67 65 74 6d 61 69 6e 61 	it0000__getmaina
  0x2970	72 67 73 00 8e 00 5f 5f 73 65 74 5f 61 70 70 5f 	rgs000__set_app_
  0x2980	74 79 70 65 00 00 32 04 65 78 69 74 00 00 0e 01 	type0020exit0000
  0x2990	5f 65 78 69 74 00 c1 00 5f 63 65 78 69 74 00 00 	_exit000_cexit00
  0x29a0	90 00 5f 5f 73 65 74 75 73 65 72 6d 61 74 68 65 	00__setusermathe
  0x29b0	72 72 00 00 7d 01 5f 69 6e 69 74 74 65 72 6d 00 	rr00}0_initterm0
  0x29c0	57 00 5f 5f 43 5f 73 70 65 63 69 66 69 63 5f 68 	W0__C_specific_h
  0x29d0	61 6e 64 6c 65 72 00 00 27 01 5f 66 6d 6f 64 65 	andler00'0_fmode
  0x29e0	00 00 d2 00 5f 63 6f 6d 6d 6f 64 65 00 00 2f 00 	0000_commode00/0
  0x29f0	3f 74 65 72 6d 69 6e 61 74 65 40 40 59 41 58 58 	?terminate@@YAXX
  0x2a00	5a 00 6d 73 76 63 72 74 2e 64 6c 6c 00 00 9d 01 	Z0msvcrt.dll0000
  0x2a10	4e 74 4f 70 65 6e 45 76 65 6e 74 00 6e 04 52 74 	NtOpenEvent0n0Rt
  0x2a20	6c 49 6e 69 74 55 6e 69 63 6f 64 65 53 74 72 69 	lInitUnicodeStri
  0x2a30	6e 67 00 00 fd 00 4e 74 43 6c 6f 73 65 00 14 01 	ng0000NtClose000
  0x2a40	4e 74 43 72 65 61 74 65 45 76 65 6e 74 00 f2 02 	NtCreateEvent000
  0x2a50	52 74 6c 43 61 70 74 75 72 65 43 6f 6e 74 65 78 	RtlCaptureContex
  0x2a60	74 00 e8 04 52 74 6c 4c 6f 6f 6b 75 70 46 75 6e 	t000RtlLookupFun
  0x2a70	63 74 69 6f 6e 45 6e 74 72 79 00 00 27 06 52 74 	ctionEntry00'0Rt
  0x2a80	6c 56 69 72 74 75 61 6c 55 6e 77 69 6e 64 00 00 	lVirtualUnwind00
  0x2a90	6e 74 64 6c 6c 2e 64 6c 6c 00 04 00 4e 65 74 4a 	ntdll.dll000NetJ
  0x2aa0	6f 69 6e 44 6f 6d 61 69 6e 00 77 6b 73 63 6c 69 	oinDomain0wkscli
  0x2ab0	2e 64 6c 6c 00 00 99 02 52 65 67 51 75 65 72 79 	.dll0000RegQuery
  0x2ac0	56 61 6c 75 65 45 78 57 00 00 8c 02 52 65 67 4f 	ValueExW0000RegO
  0x2ad0	70 65 6e 4b 65 79 45 78 57 00 5b 02 52 65 67 43 	penKeyExW0[0RegC
  0x2ae0	6c 6f 73 65 4b 65 79 00 41 44 56 41 50 49 33 32 	loseKey0ADVAPI32
  0x2af0	2e 64 6c 6c 00 00 8d 05 53 6c 65 65 70 00 7d 05 	.dll0000Sleep0}0
  0x2b00	53 65 74 55 6e 68 61 6e 64 6c 65 64 45 78 63 65 	SetUnhandledExce
  0x2b10	70 74 69 6f 6e 46 69 6c 74 65 72 00 80 02 47 65 	ptionFilter000Ge
  0x2b20	74 4d 6f 64 75 6c 65 48 61 6e 64 6c 65 57 00 00 	tModuleHandleW00
  0x2b30	51 04 51 75 65 72 79 50 65 72 66 6f 72 6d 61 6e 	Q0QueryPerforman
  0x2b40	63 65 43 6f 75 6e 74 65 72 00 20 02 47 65 74 43 	ceCounter0 0GetC
  0x2b50	75 72 72 65 6e 74 50 72 6f 63 65 73 73 49 64 00 	urrentProcessId0
  0x2b60	24 02 47 65 74 43 75 72 72 65 6e 74 54 68 72 65 	$0GetCurrentThre
  0x2b70	61 64 49 64 00 00 f2 02 47 65 74 53 79 73 74 65 	adId0000GetSyste
  0x2b80	6d 54 69 6d 65 41 73 46 69 6c 65 54 69 6d 65 00 	mTimeAsFileTime0
  0x2b90	10 03 47 65 74 54 69 63 6b 43 6f 75 6e 74 00 00 	00GetTickCount00
  0x2ba0	be 05 55 6e 68 61 6e 64 6c 65 64 45 78 63 65 70 	00UnhandledExcep
  0x2bb0	74 69 6f 6e 46 69 6c 74 65 72 00 00 1f 02 47 65 	tionFilter0000Ge
  0x2bc0	74 43 75 72 72 65 6e 74 50 72 6f 63 65 73 73 00 	tCurrentProcess0
  0x2bd0	9c 05 54 65 72 6d 69 6e 61 74 65 50 72 6f 63 65 	00TerminateProce
  0x2be0	73 73 00 00 00 00 00 00 00 00 00 00 00 00 00 00 	ss00000000000000
  0x2bf0	00 00 00 00 00 00 00 00 00 00 00 00 00 00 00 00 	0000000000000000
=== DATA BLOCK END ===

=== DATA BLOCK ADDRESS 0x3000 ===
  0x3000	01 00 00 00 00 00 00 00 32 a2 df 2d 99 2b 00 00 	00000000200-0+00
  0x3010	cd 5d 20 d2 66 d4 ff ff 00 00 00 00 00 00 00 00 	0] 0f00000000000
  0x3020	00 00 00 00 00 00 00 00 00 00 00 00 00 00 00 00 	0000000000000000
  0x3030	00 00 00 00 00 00 00 00 00 00 00 00 00 00 00 00 	0000000000000000
  0x3040	00 00 00 00 00 00 00 00 00 00 00 00 00 00 00 00 	0000000000000000
  0x3050	00 00 00 00 00 00 00 00 00 00 00 00 00 00 00 00 	0000000000000000
  0x3060	00 00 00 00 00 00 00 00 00 00 00 00 00 00 00 00 	0000000000000000
  0x3070	00 00 00 00 00 00 00 00 00 00 00 00 00 00 00 00 	0000000000000000
  0x3080	00 00 00 00 00 00 00 00 00 00 00 00 00 00 00 00 	0000000000000000
  0x3090	00 00 00 00 00 00 00 00 00 00 00 00 00 00 00 00 	0000000000000000
  0x30a0	00 00 00 00 00 00 00 00 00 00 00 00 00 00 00 00 	0000000000000000
  0x30b0	00 00 00 00 00 00 00 00 00 00 00 00 00 00 00 00 	0000000000000000
  0x30c0	00 00 00 00 00 00 00 00 00 00 00 00 00 00 00 00 	0000000000000000
  0x30d0	00 00 00 00 00 00 00 00 00 00 00 00 00 00 00 00 	0000000000000000
  0x30e0	00 00 00 00 00 00 00 00 00 00 00 00 00 00 00 00 	0000000000000000
  0x30f0	00 00 00 00 00 00 00 00 00 00 00 00 00 00 00 00 	0000000000000000
  0x3100	00 00 00 00 00 00 00 00 00 00 00 00 00 00 00 00 	0000000000000000
  0x3110	00 00 00 00 00 00 00 00 00 00 00 00 00 00 00 00 	0000000000000000
  0x3120	00 00 00 00 00 00 00 00 00 00 00 00 00 00 00 00 	0000000000000000
  0x3130	00 00 00 00 00 00 00 00 00 00 00 00 00 00 00 00 	0000000000000000
  0x3140	00 00 00 00 00 00 00 00 00 00 00 00 00 00 00 00 	0000000000000000
  0x3150	00 00 00 00 00 00 00 00 00 00 00 00 00 00 00 00 	0000000000000000
  0x3160	00 00 00 00 00 00 00 00 00 00 00 00 00 00 00 00 	0000000000000000
  0x3170	00 00 00 00 00 00 00 00 00 00 00 00 00 00 00 00 	0000000000000000
  0x3180	00 00 00 00 00 00 00 00 00 00 00 00 00 00 00 00 	0000000000000000
  0x3190	00 00 00 00 00 00 00 00 00 00 00 00 00 00 00 00 	0000000000000000
  0x31a0	00 00 00 00 00 00 00 00 00 00 00 00 00 00 00 00 	0000000000000000
  0x31b0	00 00 00 00 00 00 00 00 00 00 00 00 00 00 00 00 	0000000000000000
  0x31c0	00 00 00 00 00 00 00 00 00 00 00 00 00 00 00 00 	0000000000000000
  0x31d0	00 00 00 00 00 00 00 00 00 00 00 00 00 00 00 00 	0000000000000000
  0x31e0	00 00 00 00 00 00 00 00 00 00 00 00 00 00 00 00 	0000000000000000
  0x31f0	00 00 00 00 00 00 00 00 00 00 00 00 00 00 00 00 	0000000000000000
=== DATA BLOCK END ===

=== DATA BLOCK ADDRESS 0x4000 ===
  0x4000	08 10 00 00 c0 11 00 00 50 26 00 00 c8 11 00 00 	00000000P&000000
  0x4010	7b 12 00 00 60 26 00 00 90 12 00 00 63 13 00 00 	{000`&000000c000
  0x4020	6c 26 00 00 70 13 00 00 b9 13 00 00 74 26 00 00 	l&00p0000000t&00
  0x4030	c0 13 00 00 7e 15 00 00 7c 26 00 00 90 15 00 00 	0000~000|&000000
  0x4040	a2 15 00 00 6c 26 00 00 c0 15 00 00 de 15 00 00 	0000l&0000000000
  0x4050	b0 26 00 00 f0 15 00 00 29 16 00 00 6c 26 00 00 	0&000000)000l&00
  0x4060	30 16 00 00 48 16 00 00 6c 26 00 00 5c 16 00 00 	0000H000l&000000
  0x4070	b0 16 00 00 b4 26 00 00 b8 16 00 00 fd 16 00 00 	00000&0000000000
  0x4080	d4 26 00 00 70 17 00 00 bd 17 00 00 dc 26 00 00 	0&00p00000000&00
  0x4090	04 18 00 00 d8 18 00 00 00 27 00 00 0c 19 00 00 	000000000'000000
  0x40a0	40 19 00 00 d4 26 00 00 50 19 00 00 c1 1a 00 00 	@0000&00P0000000
  0x40b0	0c 27 00 00 e0 1a 00 00 e2 1a 00 00 18 27 00 00 	0'00000000000'00
  0x40c0	f0 1a 00 00 0e 1b 00 00 a8 26 00 00 20 1b 00 00 	000000000&00 000
  0x40d0	40 1b 00 00 a8 26 00 00 00 00 00 00 00 00 00 00 	@0000&0000000000
  0x40e0	00 00 00 00 00 00 00 00 00 00 00 00 00 00 00 00 	0000000000000000
  0x40f0	00 00 00 00 00 00 00 00 00 00 00 00 00 00 00 00 	0000000000000000
  0x4100	00 00 00 00 00 00 00 00 00 00 00 00 00 00 00 00 	0000000000000000
  0x4110	00 00 00 00 00 00 00 00 00 00 00 00 00 00 00 00 	0000000000000000
  0x4120	00 00 00 00 00 00 00 00 00 00 00 00 00 00 00 00 	0000000000000000
  0x4130	00 00 00 00 00 00 00 00 00 00 00 00 00 00 00 00 	0000000000000000
  0x4140	00 00 00 00 00 00 00 00 00 00 00 00 00 00 00 00 	0000000000000000
  0x4150	00 00 00 00 00 00 00 00 00 00 00 00 00 00 00 00 	0000000000000000
  0x4160	00 00 00 00 00 00 00 00 00 00 00 00 00 00 00 00 	0000000000000000
  0x4170	00 00 00 00 00 00 00 00 00 00 00 00 00 00 00 00 	0000000000000000
  0x4180	00 00 00 00 00 00 00 00 00 00 00 00 00 00 00 00 	0000000000000000
  0x4190	00 00 00 00 00 00 00 00 00 00 00 00 00 00 00 00 	0000000000000000
  0x41a0	00 00 00 00 00 00 00 00 00 00 00 00 00 00 00 00 	0000000000000000
  0x41b0	00 00 00 00 00 00 00 00 00 00 00 00 00 00 00 00 	0000000000000000
  0x41c0	00 00 00 00 00 00 00 00 00 00 00 00 00 00 00 00 	0000000000000000
  0x41d0	00 00 00 00 00 00 00 00 00 00 00 00 00 00 00 00 	0000000000000000
  0x41e0	00 00 00 00 00 00 00 00 00 00 00 00 00 00 00 00 	0000000000000000
  0x41f0	00 00 00 00 00 00 00 00 00 00 00 00 00 00 00 00 	0000000000000000
=== DATA BLOCK END ===
