===== Assembly blocks =====

=== CODE BLOCK ADDRESS 0x1000 ===
  0x1000	int3   	
  0x1001	int3   	
  0x1002	int3   	
  0x1003	int3   	
  0x1004	int3   	
  === BLOCK LINK ===
    0x1005
=== CODE BLOCK END ===

=== CODE BLOCK ADDRESS 0x1005 ===
  0x1005	int3   	
  0x1006	int3   	
  0x1007	int3   	
  === BLOCK LINK ===
    0x1008
=== CODE BLOCK END ===

=== CODE BLOCK ADDRESS 0x100d ===
  0x100d	push   	ebp
  0x100e	push   	esi
  0x100f	push   	edi
  0x1010	dec    	eax
  0x1011	sub    	esp, 0x860
  === BLOCK LINK ===
    0x1017
=== CODE BLOCK END ===

=== CODE BLOCK ADDRESS 0x1017 ===
  0x1017	dec    	eax
  0x1018	mov    	eax, dword ptr [0x4fea]
  0x101e	dec    	eax
  0x101f	xor    	eax, esp
  0x1021	dec    	eax
  === BLOCK LINK ===
    0x1022
=== CODE BLOCK END ===

=== CODE BLOCK ADDRESS 0x1022 ===
  0x1022	mov    	dword ptr [esp + 0x850], eax
  0x1029	xor    	bl, bl
  0x102b	mov    	esi, edx
  0x102d	dec    	eax
  0x102e	mov    	edi, ecx
  === BLOCK LINK ===
    0x1030
=== CODE BLOCK END ===

=== CODE BLOCK ADDRESS 0x1030 ===
  0x1030	mov    	ebp, 1
  0x1035	inc    	ebp
  0x1036	test   	al, al
  0x1038	je     	0x1084
  === BLOCK LINK ===
    0x103a
    0x1084
=== CODE BLOCK END ===

=== CODE BLOCK ADDRESS 0x103a ===
  0x103a	mov    	dword ptr [esp + 0x30], 4
  0x1042	dec    	esp
  0x1043	lea    	eax, [esp + 0x40]
  0x1047	and    	dword ptr [esp + 0x28], 0
  0x104c	inc    	ecx
  === BLOCK LINK ===
    0x104d
=== CODE BLOCK END ===

=== CODE BLOCK ADDRESS 0x104d ===
  0x104d	mov    	ecx, 0x401
  0x1052	dec    	eax
  0x1053	and    	dword ptr [esp + 0x20], 0
  0x1058	dec    	eax
  0x1059	call   	dword ptr [0x3121]
  === BLOCK LINK ===
    0x105f
=== CODE BLOCK END ===

=== CODE BLOCK ADDRESS 0x105f ===
  0x105f	nop    	dword ptr [eax + eax]
  0x1064	test   	eax, eax
  0x1066	jne    	0x1084
  === BLOCK LINK ===
    0x1068
    0x1084
=== CODE BLOCK END ===

=== CODE BLOCK ADDRESS 0x1068 ===
  0x1068	mov    	ecx, ebp
  0x106a	inc    	eax
  0x106b	mov    	bl, ch
  0x106d	call   	0x33c8
  === BLOCK LINK ===
    0x1072
    0x33c8
=== CODE BLOCK END ===

=== CODE BLOCK ADDRESS 0x1072 ===
  0x1072	dec    	eax
  0x1073	mov    	ecx, eax
  0x1075	dec    	esp
  0x1076	lea    	eax, [esp + 0x40]
  0x107a	mov    	edx, 0x273a
  === BLOCK LINK ===
    0x107f
=== CODE BLOCK END ===

=== CODE BLOCK ADDRESS 0x107f ===
  0x107f	call   	0x2af4
  === BLOCK LINK ===
    0x1084
    0x2af4
=== CODE BLOCK END ===

=== CODE BLOCK ADDRESS 0x1084 ===
  0x1084	mov    	dword ptr [esp + 0x30], 2
  0x108c	dec    	esp
  0x108d	lea    	eax, [esp + 0x40]
  0x1091	and    	dword ptr [esp + 0x28], 0
  0x1096	inc    	ecx
  === BLOCK LINK ===
    0x1097
=== CODE BLOCK END ===

=== CODE BLOCK ADDRESS 0x1097 ===
  0x1097	mov    	ecx, 0x401
  0x109c	dec    	eax
  0x109d	and    	dword ptr [esp + 0x20], 0
  0x10a2	mov    	edx, esi
  0x10a4	dec    	eax
  === BLOCK LINK ===
    0x10a5
=== CODE BLOCK END ===

=== CODE BLOCK ADDRESS 0x10a5 ===
  0x10a5	mov    	ecx, edi
  0x10a7	dec    	eax
  0x10a8	call   	dword ptr [0x30d2]
  === BLOCK LINK ===
    0x10ae
=== CODE BLOCK END ===

=== CODE BLOCK ADDRESS 0x10ae ===
  0x10ae	nop    	dword ptr [eax + eax]
  0x10b3	mov    	ecx, ebp
  0x10b5	test   	eax, eax
  0x10b7	je     	0x10da
  === BLOCK LINK ===
    0x10b9
    0x10da
=== CODE BLOCK END ===

=== CODE BLOCK ADDRESS 0x10b9 ===
  0x10b9	call   	0x33c8
  === BLOCK LINK ===
    0x10be
    0x33c8
=== CODE BLOCK END ===

=== CODE BLOCK ADDRESS 0x10be ===
  0x10be	dec    	eax
  0x10bf	mov    	ecx, eax
  0x10c1	mov    	edx, 0x2724
  0x10c6	call   	0x2af4
  === BLOCK LINK ===
    0x10cb
    0x2af4
=== CODE BLOCK END ===

=== CODE BLOCK ADDRESS 0x10cb ===
  0x10cb	mov    	ecx, ebp
  0x10cd	dec    	eax
  0x10ce	call   	dword ptr [0x326c]
  === BLOCK LINK ===
    0x10d4
=== CODE BLOCK END ===

=== CODE BLOCK ADDRESS 0x10d4 ===
  0x10d4	nop    	dword ptr [eax + eax]
  0x10d9	int3   	
  0x10da	call   	0x33c8
  === BLOCK LINK ===
    0x10df
    0x33c8
=== CODE BLOCK END ===

=== CODE BLOCK ADDRESS 0x10df ===
  0x10df	dec    	esp
  0x10e0	lea    	eax, [esp + 0x40]
  0x10e4	dec    	eax
  0x10e5	mov    	ecx, eax
  0x10e7	mov    	edx, 0x2710
  === BLOCK LINK ===
    0x10ec
=== CODE BLOCK END ===

=== CODE BLOCK ADDRESS 0x10ec ===
  0x10ec	test   	bl, bl
  0x10ee	jne    	0x10f5
  === BLOCK LINK ===
    0x10f0
    0x10f5
=== CODE BLOCK END ===

=== CODE BLOCK ADDRESS 0x10f0 ===
  0x10f0	mov    	edx, 0x273d
  0x10f5	call   	0x2af4
  === BLOCK LINK ===
    0x10fa
    0x2af4
=== CODE BLOCK END ===

=== CODE BLOCK ADDRESS 0x10fa ===
  0x10fa	dec    	eax
  0x10fb	mov    	ecx, dword ptr [esp + 0x850]
  0x1102	dec    	eax
  0x1103	xor    	ecx, esp
  0x1105	call   	0x2eb0
  === BLOCK LINK ===
    0x110a
    0x2eb0
=== CODE BLOCK END ===

=== CODE BLOCK ADDRESS 0x110a ===
  0x110a	dec    	eax
  0x110b	mov    	ebx, dword ptr [esp + 0x890]
  0x1112	dec    	eax
  0x1113	add    	esp, 0x860
  0x1119	pop    	edi
  === BLOCK LINK ===
    0x111a
=== CODE BLOCK END ===

=== CODE BLOCK ADDRESS 0x111a ===
  0x111a	pop    	esi
  0x111b	pop    	ebp
  0x111c	ret    	
  0x111d	int3   	
  0x111e	int3   	
  === BLOCK LINK ===
    0x111f
=== CODE BLOCK END ===

=== CODE BLOCK ADDRESS 0x111f ===
  0x111f	int3   	
  0x1120	int3   	
  0x1121	int3   	
  0x1122	int3   	
  0x1123	int3   	
  === BLOCK LINK ===
    0x1124
=== CODE BLOCK END ===

=== CODE BLOCK ADDRESS 0x1124 ===
  0x1124	dec    	eax
  0x1125	sub    	esp, 0x48
  0x1128	dec    	eax
  0x1129	mov    	eax, dword ptr [0x4ed9]
  0x112f	dec    	eax
  === BLOCK LINK ===
    0x1130
=== CODE BLOCK END ===

=== CODE BLOCK ADDRESS 0x1130 ===
  0x1130	xor    	eax, esp
  0x1132	dec    	eax
  0x1133	mov    	dword ptr [esp + 0x30], eax
  0x1137	inc    	esp
  0x1138	mov    	al, byte ptr [0x4f82]
  === BLOCK LINK ===
    0x113e
=== CODE BLOCK END ===

=== CODE BLOCK ADDRESS 0x113e ===
  0x113e	mov    	eax, 2
  0x1143	xorps  	xmm0, xmm0
  0x1146	movups  	xmmword ptr [esp + 0x20], xmm0
  0x114b	mov    	dword ptr [esp + 0x24], ecx
  0x114f	dec    	eax
  === BLOCK LINK ===
    0x1150
=== CODE BLOCK END ===

=== CODE BLOCK ADDRESS 0x1150 ===
  0x1150	lea    	ecx, [esp + 0x20]
  0x1154	lea    	edx, [eax + 0xe]
  0x1157	mov    	word ptr [esp + 0x20], ax
  0x115c	call   	0x1008
  === BLOCK LINK ===
    0x1161
    0x1008
=== CODE BLOCK END ===

=== CODE BLOCK ADDRESS 0x1161 ===
  0x1161	dec    	eax
  0x1162	mov    	ecx, dword ptr [esp + 0x30]
  0x1166	dec    	eax
  0x1167	xor    	ecx, esp
  0x1169	call   	0x2eb0
  === BLOCK LINK ===
    0x116e
    0x2eb0
=== CODE BLOCK END ===

=== CODE BLOCK ADDRESS 0x116e ===
  0x116e	dec    	eax
  0x116f	add    	esp, 0x48
  0x1172	ret    	
  0x1173	int3   	
  0x1174	int3   	
  === BLOCK LINK ===
    0x1175
=== CODE BLOCK END ===

=== CODE BLOCK ADDRESS 0x1175 ===
  0x1175	int3   	
  0x1176	int3   	
  0x1177	int3   	
  0x1178	int3   	
  0x1179	int3   	
  === BLOCK LINK ===
    0x117a
=== CODE BLOCK END ===

=== CODE BLOCK ADDRESS 0x117a ===
  0x117a	int3   	
  0x117b	int3   	
  0x117c	dec    	eax
  0x117d	sub    	esp, 0x58
  0x1180	dec    	eax
  === BLOCK LINK ===
    0x1181
=== CODE BLOCK END ===

=== CODE BLOCK ADDRESS 0x1181 ===
  0x1181	mov    	eax, dword ptr [0x4e81]
  0x1187	dec    	eax
  0x1188	xor    	eax, esp
  0x118a	dec    	eax
  0x118b	mov    	dword ptr [esp + 0x40], eax
  === BLOCK LINK ===
    0x118f
=== CODE BLOCK END ===

=== CODE BLOCK ADDRESS 0x118f ===
  0x118f	movups  	xmm0, xmmword ptr [ecx]
  0x1192	inc    	esp
  0x1193	mov    	al, byte ptr [0x4f27]
  0x1199	dec    	eax
  0x119a	lea    	ecx, [esp + 0x20]
  === BLOCK LINK ===
    0x119e
=== CODE BLOCK END ===

=== CODE BLOCK ADDRESS 0x119e ===
  0x119e	xor    	eax, eax
  0x11a0	mov    	dword ptr [esp + 0x22], eax
  0x11a4	mov    	word ptr [esp + 0x26], ax
  0x11a9	mov    	dword ptr [esp + 0x38], eax
  0x11ad	mov    	eax, 0x17
  === BLOCK LINK ===
    0x11b2
=== CODE BLOCK END ===

=== CODE BLOCK ADDRESS 0x11b2 ===
  0x11b2	mov    	word ptr [esp + 0x20], ax
  0x11b7	movdqu  	xmmword ptr [esp + 0x28], xmm0
  0x11bd	lea    	edx, [eax + 5]
  0x11c0	call   	0x1008
  === BLOCK LINK ===
    0x11c5
    0x1008
=== CODE BLOCK END ===

=== CODE BLOCK ADDRESS 0x11c5 ===
  0x11c5	dec    	eax
  0x11c6	mov    	ecx, dword ptr [esp + 0x40]
  0x11ca	dec    	eax
  0x11cb	xor    	ecx, esp
  0x11cd	call   	0x2eb0
  === BLOCK LINK ===
    0x11d2
    0x2eb0
=== CODE BLOCK END ===

=== CODE BLOCK ADDRESS 0x11d2 ===
  0x11d2	dec    	eax
  0x11d3	add    	esp, 0x58
  0x11d6	ret    	
  0x11d7	int3   	
  0x11d8	int3   	
  === BLOCK LINK ===
    0x11d9
=== CODE BLOCK END ===

=== CODE BLOCK ADDRESS 0x33c8 ===
=== CODE BLOCK END ===

=== CODE BLOCK ADDRESS 0x11d9 ===
  0x11d9	int3   	
  0x11da	int3   	
  0x11db	int3   	
  0x11dc	int3   	
  0x11dd	int3   	
  === BLOCK LINK ===
    0x11de
=== CODE BLOCK END ===

=== CODE BLOCK ADDRESS 0x11de ===
  0x11de	int3   	
  0x11df	int3   	
  0x11e0	dec    	eax
  0x11e1	mov    	dword ptr [esp + 8], ebx
  0x11e5	dec    	eax
  === BLOCK LINK ===
    0x11e6
=== CODE BLOCK END ===

=== CODE BLOCK ADDRESS 0x11e6 ===
  0x11e6	mov    	dword ptr [esp + 0x10], esi
  0x11ea	push   	edi
  0x11eb	dec    	eax
  0x11ec	sub    	esp, 0x30
  0x11ef	inc    	ecx
  === BLOCK LINK ===
    0x11f0
=== CODE BLOCK END ===

=== CODE BLOCK ADDRESS 0x11f0 ===
  0x11f0	lea    	eax, [eax - 1]
  0x11f3	dec    	ecx
  0x11f4	arpl   	cx, di
  0x11f6	dec    	eax
  0x11f7	mov    	ebx, edx
  === BLOCK LINK ===
    0x11f9
=== CODE BLOCK END ===

=== CODE BLOCK ADDRESS 0x11f9 ===
  0x11f9	dec    	eax
  0x11fa	mov    	esi, ecx
  0x11fc	inc    	esp
  0x11fd	cmp    	ecx, eax
  0x11ff	jne    	0x1212
  === BLOCK LINK ===
    0x1201
    0x1212
=== CODE BLOCK END ===

=== CODE BLOCK ADDRESS 0x1201 ===
  0x1201	mov    	ecx, 1
  0x1206	call   	0x33c8
  === BLOCK LINK ===
    0x120b
    0x33c8
=== CODE BLOCK END ===

=== CODE BLOCK ADDRESS 0x120b ===
  0x120b	mov    	edx, 0x2734
  0x1210	jmp    	0x124b
  === BLOCK LINK ===
    0x1212
    0x124b
=== CODE BLOCK END ===

=== CODE BLOCK ADDRESS 0x1212 ===
  0x1212	dec    	eax
  0x1213	mov    	ecx, dword ptr [ebx + edi*8 + 8]
  0x1217	dec    	eax
  0x1218	lea    	edx, [esp + 0x20]
  0x121c	inc    	ebp
  === BLOCK LINK ===
    0x121d
=== CODE BLOCK END ===

=== CODE BLOCK ADDRESS 0x121d ===
  0x121d	xor    	eax, eax
  0x121f	dec    	eax
  0x1220	call   	dword ptr [0x3142]
  === BLOCK LINK ===
    0x1226
=== CODE BLOCK END ===

=== CODE BLOCK ADDRESS 0x1226 ===
  0x1226	nop    	dword ptr [eax + eax]
  0x122b	cmp    	eax, 1
  0x122e	jb     	0x123c
  === BLOCK LINK ===
    0x1230
    0x123c
=== CODE BLOCK END ===

=== CODE BLOCK ADDRESS 0x1230 ===
  0x1230	cmp    	eax, dword ptr [esp + 0x68]
  0x1234	ja     	0x123c
  === BLOCK LINK ===
    0x1236
    0x123c
=== CODE BLOCK END ===

=== CODE BLOCK ADDRESS 0x1236 ===
  0x1236	mov    	dword ptr [esi], eax
  0x1238	mov    	al, 1
  0x123a	jmp    	0x1259
  === BLOCK LINK ===
    0x123c
    0x1259
=== CODE BLOCK END ===

=== CODE BLOCK ADDRESS 0x123c ===
  0x123c	mov    	ecx, 1
  0x1241	call   	0x33c8
  === BLOCK LINK ===
    0x1246
    0x33c8
=== CODE BLOCK END ===

=== CODE BLOCK ADDRESS 0x1246 ===
  0x1246	mov    	edx, 0x2735
  === BLOCK LINK ===
    0x124b
=== CODE BLOCK END ===

=== CODE BLOCK ADDRESS 0x1252 ===
  0x1252	call   	0x2af4
  === BLOCK LINK ===
    0x1257
    0x2af4
=== CODE BLOCK END ===

=== CODE BLOCK ADDRESS 0x1257 ===
  0x1257	xor    	al, al
  === BLOCK LINK ===
    0x1259
=== CODE BLOCK END ===

=== CODE BLOCK ADDRESS 0x1263 ===
  0x1263	dec    	eax
  0x1264	add    	esp, 0x30
  0x1267	pop    	edi
  0x1268	ret    	
  0x1269	int3   	
  === BLOCK LINK ===
    0x126a
=== CODE BLOCK END ===

=== CODE BLOCK ADDRESS 0x2af4 ===
=== CODE BLOCK END ===

=== CODE BLOCK ADDRESS 0x126a ===
  0x126a	int3   	
  0x126b	int3   	
  0x126c	int3   	
  0x126d	int3   	
  0x126e	int3   	
  === BLOCK LINK ===
    0x126f
=== CODE BLOCK END ===

=== CODE BLOCK ADDRESS 0x126f ===
  0x126f	int3   	
  0x1270	dec    	eax
  0x1271	mov    	eax, esp
  0x1273	dec    	eax
  0x1274	mov    	dword ptr [eax + 8], ebx
  === BLOCK LINK ===
    0x1277
=== CODE BLOCK END ===

=== CODE BLOCK ADDRESS 0x1277 ===
  0x1277	dec    	eax
  0x1278	mov    	dword ptr [eax + 0x10], esi
  0x127b	dec    	eax
  0x127c	mov    	dword ptr [eax + 0x18], edi
  0x127f	dec    	esp
  === BLOCK LINK ===
    0x1280
=== CODE BLOCK END ===

=== CODE BLOCK ADDRESS 0x1280 ===
  0x1280	mov    	dword ptr [eax + 0x20], esp
  0x1283	push   	ebp
  0x1284	inc    	ecx
  0x1285	push   	esi
  0x1286	inc    	ecx
  === BLOCK LINK ===
    0x1287
=== CODE BLOCK END ===

=== CODE BLOCK ADDRESS 0x1287 ===
  0x1287	push   	edi
  0x1288	dec    	eax
  0x1289	mov    	ebp, esp
  0x128b	dec    	eax
  0x128c	sub    	esp, 0x80
  === BLOCK LINK ===
    0x1292
=== CODE BLOCK END ===

=== CODE BLOCK ADDRESS 0x1292 ===
  0x1292	dec    	eax
  0x1293	mov    	ebx, dword ptr [ebp + 0x40]
  0x1296	xorps  	xmm0, xmm0
  0x1299	inc    	ebp
  0x129a	xor    	esp, esp
  === BLOCK LINK ===
    0x129c
=== CODE BLOCK END ===

=== CODE BLOCK ADDRESS 0x129c ===
  0x129c	dec    	eax
  0x129d	mov    	edi, edx
  0x129f	movups  	xmmword ptr [ebp - 0x38], xmm0
  0x12a3	dec    	ebp
  0x12a4	mov    	esi, ecx
  === BLOCK LINK ===
    0x12a6
=== CODE BLOCK END ===

=== CODE BLOCK ADDRESS 0x12a6 ===
  0x12a6	mov    	dword ptr [ebp - 0x34], ecx
  0x12a9	dec    	ebp
  0x12aa	mov    	edi, eax
  0x12ac	dec    	esp
  0x12ad	mov    	dword ptr [ebp - 0x40], esp
  === BLOCK LINK ===
    0x12b0
=== CODE BLOCK END ===

=== CODE BLOCK ADDRESS 0x12b0 ===
  0x12b0	inc    	ecx
  0x12b1	lea    	esi, [esp + 4]
  0x12b5	inc    	sp
  0x12b7	mov    	dword ptr [ebx], esp
  0x12b9	dec    	esp
  === BLOCK LINK ===
    0x12ba
=== CODE BLOCK END ===

=== CODE BLOCK ADDRESS 0x12ba ===
  0x12ba	lea    	ecx, [ebp - 0x40]
  0x12bd	mov    	dword ptr [ebp - 0x38], esi
  0x12c0	dec    	esp
  0x12c1	lea    	eax, [ebp - 0x38]
  0x12c4	xor    	edx, edx
  === BLOCK LINK ===
    0x12c6
=== CODE BLOCK END ===

=== CODE BLOCK ADDRESS 0x12c6 ===
  0x12c6	dec    	eax
  0x12c7	mov    	ecx, edi
  0x12c9	movups  	xmmword ptr [ebp - 0x28], xmm0
  0x12cd	movups  	xmmword ptr [ebp - 0x18], xmm0
  0x12d1	dec    	eax
  === BLOCK LINK ===
    0x12d2
=== CODE BLOCK END ===

=== CODE BLOCK ADDRESS 0x12d2 ===
  0x12d2	call   	dword ptr [0x2eb8]
  === BLOCK LINK ===
    0x12d8
=== CODE BLOCK END ===

=== CODE BLOCK ADDRESS 0x12d8 ===
  0x12d8	nop    	dword ptr [eax + eax]
  0x12dd	test   	eax, eax
  0x12df	jne    	0x1345
  === BLOCK LINK ===
    0x12e1
    0x1345
=== CODE BLOCK END ===

=== CODE BLOCK ADDRESS 0x12e1 ===
  0x12e1	dec    	eax
  0x12e2	mov    	edi, dword ptr [ebp - 0x40]
  0x12e5	dec    	ecx
  0x12e6	mov    	ecx, edi
  0x12e8	mov    	eax, dword ptr [edi + 0x10]
  === BLOCK LINK ===
    0x12eb
=== CODE BLOCK END ===

=== CODE BLOCK ADDRESS 0x12eb ===
  0x12eb	inc    	ecx
  0x12ec	mov    	dword ptr [esi], eax
  0x12ee	dec    	esp
  0x12ef	mov    	eax, dword ptr [edi + 0x10]
  0x12f2	dec    	eax
  === BLOCK LINK ===
    0x12f3
=== CODE BLOCK END ===

=== CODE BLOCK ADDRESS 0x12f3 ===
  0x12f3	mov    	edx, dword ptr [edi + 0x20]
  0x12f6	call   	0x3486
  === BLOCK LINK ===
    0x12fb
    0x3486
=== CODE BLOCK END ===

=== CODE BLOCK ADDRESS 0x12fb ===
  0x12fb	inc    	esp
  0x12fc	cmp    	byte ptr [ebp + 0x50], ah
  0x12ff	je     	0x132f
  === BLOCK LINK ===
    0x1301
    0x132f
=== CODE BLOCK END ===

=== CODE BLOCK ADDRESS 0x1301 ===
  0x1301	mov    	edx, dword ptr [edi + 0x10]
  0x1304	inc    	ecx
  0x1305	mov    	ecx, 0x401
  0x130a	dec    	eax
  0x130b	mov    	ecx, dword ptr [edi + 0x20]
  === BLOCK LINK ===
    0x130e
=== CODE BLOCK END ===

=== CODE BLOCK ADDRESS 0x130e ===
  0x130e	dec    	esp
  0x130f	mov    	eax, ebx
  0x1311	mov    	dword ptr [esp + 0x30], esi
  0x1315	inc    	esp
  0x1316	mov    	dword ptr [esp + 0x28], esp
  === BLOCK LINK ===
    0x131a
=== CODE BLOCK END ===

=== CODE BLOCK ADDRESS 0x131a ===
  0x131a	dec    	esp
  0x131b	mov    	dword ptr [esp + 0x20], esp
  0x131f	dec    	eax
  0x1320	call   	dword ptr [0x2e5a]
  === BLOCK LINK ===
    0x1326
=== CODE BLOCK END ===

=== CODE BLOCK ADDRESS 0x1326 ===
  0x1326	nop    	dword ptr [eax + eax]
  0x132b	dec    	eax
  0x132c	mov    	edi, dword ptr [ebp - 0x40]
  === BLOCK LINK ===
    0x132f
=== CODE BLOCK END ===

=== CODE BLOCK ADDRESS 0x1332 ===
  0x1332	dec    	eax
  0x1333	call   	dword ptr [0x2e3f]
  === BLOCK LINK ===
    0x1339
=== CODE BLOCK END ===

=== CODE BLOCK ADDRESS 0x1339 ===
  0x1339	nop    	dword ptr [eax + eax]
  0x133e	mov    	al, 1
  0x1340	jmp    	0x13dd
  === BLOCK LINK ===
    0x1345
    0x13dd
=== CODE BLOCK END ===

=== CODE BLOCK ADDRESS 0x1345 ===
  0x1345	dec    	esp
  0x1346	lea    	ecx, [ebp - 0x40]
  0x1349	mov    	dword ptr [ebp - 0x38], 2
  0x1350	dec    	esp
  0x1351	lea    	eax, [ebp - 0x38]
  === BLOCK LINK ===
    0x1354
=== CODE BLOCK END ===

=== CODE BLOCK ADDRESS 0x1354 ===
  0x1354	xor    	edx, edx
  0x1356	dec    	eax
  0x1357	mov    	ecx, edi
  0x1359	dec    	eax
  0x135a	call   	dword ptr [0x2e30]
  === BLOCK LINK ===
    0x1360
=== CODE BLOCK END ===

=== CODE BLOCK ADDRESS 0x1360 ===
  0x1360	nop    	dword ptr [eax + eax]
  0x1365	test   	eax, eax
  0x1367	jne    	0x13db
  === BLOCK LINK ===
    0x1369
    0x13db
=== CODE BLOCK END ===

=== CODE BLOCK ADDRESS 0x1369 ===
  0x1369	dec    	eax
  0x136a	mov    	esi, dword ptr [ebp - 0x40]
  0x136d	dec    	ecx
  0x136e	mov    	ecx, edi
  0x1370	mov    	eax, dword ptr [esi + 0x10]
  === BLOCK LINK ===
    0x1373
=== CODE BLOCK END ===

=== CODE BLOCK ADDRESS 0x1373 ===
  0x1373	inc    	ecx
  0x1374	mov    	dword ptr [esi], eax
  0x1376	dec    	esp
  0x1377	mov    	eax, dword ptr [esi + 0x10]
  0x137a	dec    	eax
  === BLOCK LINK ===
    0x137b
=== CODE BLOCK END ===

=== CODE BLOCK ADDRESS 0x137b ===
  0x137b	mov    	edx, dword ptr [esi + 0x20]
  0x137e	call   	0x3486
  === BLOCK LINK ===
    0x1383
    0x3486
=== CODE BLOCK END ===

=== CODE BLOCK ADDRESS 0x1383 ===
  0x1383	dec    	esp
  0x1384	cmp    	dword ptr [esi + 0x18], esp
  0x1387	mov    	ecx, 0x401
  0x138c	dec    	eax
  0x138d	cmovne  	edi, dword ptr [esi + 0x18]
  === BLOCK LINK ===
    0x1391
=== CODE BLOCK END ===

=== CODE BLOCK ADDRESS 0x1391 ===
  0x1391	dec    	eax
  0x1392	sub    	edi, ebx
  === BLOCK LINK ===
    0x1394
=== CODE BLOCK END ===

=== CODE BLOCK ADDRESS 0x139c ===
  0x139c	test   	eax, eax
  0x139e	je     	0x13b6
  === BLOCK LINK ===
    0x13a0
    0x13b6
=== CODE BLOCK END ===

=== CODE BLOCK ADDRESS 0x13a0 ===
  0x13a0	movzx  	eax, word ptr [edi + ebx]
  0x13a4	test   	ax, ax
  0x13a7	je     	0x13b6
  === BLOCK LINK ===
    0x13a9
    0x13b6
=== CODE BLOCK END ===

=== CODE BLOCK ADDRESS 0x13a9 ===
  0x13a9	mov    	word ptr [ebx], ax
  0x13ac	dec    	eax
  0x13ad	add    	ebx, 2
  0x13b0	dec    	eax
  0x13b1	sub    	ecx, 1
  === BLOCK LINK ===
    0x13b4
=== CODE BLOCK END ===

=== CODE BLOCK ADDRESS 0x13b4 ===
  0x13b4	jne    	0x1394
  === BLOCK LINK ===
    0x13b6
    0x1394
=== CODE BLOCK END ===

=== CODE BLOCK ADDRESS 0x13b6 ===
  0x13b6	dec    	eax
  0x13b7	test   	ecx, ecx
  0x13b9	dec    	eax
  0x13ba	lea    	eax, [ebx - 2]
  0x13bd	dec    	eax
  === BLOCK LINK ===
    0x13be
=== CODE BLOCK END ===

=== CODE BLOCK ADDRESS 0x13be ===
  0x13be	mov    	ecx, esi
  0x13c0	dec    	eax
  0x13c1	cmovne  	eax, ebx
  0x13c4	setne  	bl
  0x13c7	inc    	sp
  === BLOCK LINK ===
    0x13c9
=== CODE BLOCK END ===

=== CODE BLOCK ADDRESS 0x13c9 ===
  0x13c9	mov    	dword ptr [eax], esp
  0x13cb	dec    	eax
  0x13cc	call   	dword ptr [0x2da6]
  === BLOCK LINK ===
    0x13d2
=== CODE BLOCK END ===

=== CODE BLOCK ADDRESS 0x13d2 ===
  0x13d2	nop    	dword ptr [eax + eax]
  0x13d7	mov    	al, bl
  0x13d9	jmp    	0x13dd
  === BLOCK LINK ===
    0x13db
    0x13dd
=== CODE BLOCK END ===

=== CODE BLOCK ADDRESS 0x13db ===
  0x13db	xor    	al, al
  === BLOCK LINK ===
    0x13dd
=== CODE BLOCK END ===

=== CODE BLOCK ADDRESS 0x13e9 ===
  0x13e9	dec    	ecx
  0x13ea	mov    	esi, dword ptr [ebx + 0x28]
  0x13ed	dec    	ecx
  0x13ee	mov    	edi, dword ptr [ebx + 0x30]
  0x13f1	dec    	ebp
  === BLOCK LINK ===
    0x13f2
=== CODE BLOCK END ===

=== CODE BLOCK ADDRESS 0x13f2 ===
  0x13f2	mov    	esp, dword ptr [ebx + 0x38]
  0x13f5	dec    	ecx
  0x13f6	mov    	esp, ebx
  0x13f8	inc    	ecx
  0x13f9	pop    	edi
  === BLOCK LINK ===
    0x13fa
=== CODE BLOCK END ===

=== CODE BLOCK ADDRESS 0x13fa ===
  0x13fa	inc    	ecx
  0x13fb	pop    	esi
  0x13fc	pop    	ebp
  0x13fd	ret    	
  0x13fe	int3   	
  === BLOCK LINK ===
    0x13ff
=== CODE BLOCK END ===

=== CODE BLOCK ADDRESS 0x10da ===
=== CODE BLOCK END ===

=== CODE BLOCK ADDRESS 0x13ff ===
  0x13ff	int3   	
  0x1400	int3   	
  0x1401	int3   	
  0x1402	int3   	
  0x1403	int3   	
  === BLOCK LINK ===
    0x1404
=== CODE BLOCK END ===

=== CODE BLOCK ADDRESS 0x1404 ===
  0x1404	int3   	
  0x1405	int3   	
  0x1406	int3   	
  0x1407	int3   	
  0x1408	int3   	
  === BLOCK LINK ===
    0x1409
=== CODE BLOCK END ===

=== CODE BLOCK ADDRESS 0x1409 ===
  0x1409	int3   	
  0x140a	int3   	
  0x140b	int3   	
  0x140c	int3   	
  0x140d	int3   	
  === BLOCK LINK ===
    0x140e
=== CODE BLOCK END ===

=== CODE BLOCK ADDRESS 0x140e ===
  0x140e	int3   	
  0x140f	int3   	
  0x1410	inc    	eax
  0x1411	push   	ebx
  0x1412	dec    	eax
  === BLOCK LINK ===
    0x1413
=== CODE BLOCK END ===

=== CODE BLOCK ADDRESS 0x1413 ===
  0x1413	sub    	esp, 0x20
  0x1416	inc    	dword ptr [0x5278]
  0x141c	dec    	eax
  0x141d	mov    	ebx, ecx
  0x141f	cmp    	word ptr [0x5289], 2
  === BLOCK LINK ===
    0x1427
=== CODE BLOCK END ===

=== CODE BLOCK ADDRESS 0x1427 ===
  0x1427	mov    	edx, 0x2000
  0x142c	dec    	eax
  0x142d	mov    	ecx, dword ptr [ecx]
  0x142f	jne    	0x146d
  === BLOCK LINK ===
    0x1431
    0x146d
=== CODE BLOCK END ===

=== CODE BLOCK ADDRESS 0x1431 ===
  0x1431	dec    	eax
  0x1432	call   	dword ptr [0x2d20]
  === BLOCK LINK ===
    0x1438
=== CODE BLOCK END ===

=== CODE BLOCK ADDRESS 0x1438 ===
  0x1438	nop    	dword ptr [eax + eax]
  0x143d	xor    	edx, edx
  0x143f	test   	eax, eax
  0x1441	je     	0x14bd
  === BLOCK LINK ===
    0x1443
    0x14bd
=== CODE BLOCK END ===

=== CODE BLOCK ADDRESS 0x1443 ===
  0x1443	dec    	esp
  0x1444	mov    	ecx, dword ptr [ebx]
  0x1446	inc    	esp
  0x1447	mov    	edx, dword ptr [ebx + 0xc]
  0x144a	dec    	eax
  === BLOCK LINK ===
    0x144b
=== CODE BLOCK END ===

=== CODE BLOCK ADDRESS 0x144b ===
  0x144b	lea    	ecx, [edx + edx*4]
  0x144e	inc    	ebp
  0x144f	cmp    	edx, dword ptr [ecx + ecx*8]
  0x1452	je     	0x145c
  === BLOCK LINK ===
    0x1454
=== CODE BLOCK END ===

=== CODE BLOCK ADDRESS 0x1454 ===
  0x1454	inc    	edx
  0x1456	cmp    	edx, eax
  0x1458	jb     	0x144a
  === BLOCK LINK ===
    0x145a
=== CODE BLOCK END ===

=== CODE BLOCK ADDRESS 0x145a ===
  0x145a	jmp    	0x14bd
  === BLOCK LINK ===
    0x145c
=== CODE BLOCK END ===

=== CODE BLOCK ADDRESS 0x145c ===
  0x145c	inc    	dword ptr [ebx + 0x88]
  0x1462	dec    	eax
  0x1463	lea    	eax, [edx + edx*4]
  0x1466	inc    	ecx
  0x1467	mov    	ecx, dword ptr [ecx + eax*8 + 8]
  === BLOCK LINK ===
    0x146b
=== CODE BLOCK END ===

=== CODE BLOCK ADDRESS 0x146b ===
  0x146b	jmp    	0x14b7
  === BLOCK LINK ===
    0x146d
=== CODE BLOCK END ===

=== CODE BLOCK ADDRESS 0x146d ===
  0x146d	dec    	eax
  0x146e	call   	dword ptr [0x2cb4]
  === BLOCK LINK ===
    0x1474
=== CODE BLOCK END ===

=== CODE BLOCK ADDRESS 0x1474 ===
  0x1474	nop    	dword ptr [eax + eax]
  0x1479	xor    	edx, edx
  0x147b	inc    	esp
  0x147c	mov    	ecx, eax
  0x147e	test   	eax, eax
  === BLOCK LINK ===
    0x1480
=== CODE BLOCK END ===

=== CODE BLOCK ADDRESS 0x1480 ===
  0x1480	je     	0x14bd
  === BLOCK LINK ===
    0x1482
=== CODE BLOCK END ===

=== CODE BLOCK ADDRESS 0x1482 ===
  0x1482	dec    	esp
  0x1483	mov    	eax, dword ptr [ebx]
  0x1485	dec    	eax
  0x1486	mov    	eax, dword ptr [ebx + 0x10]
  0x1489	dec    	esp
  === BLOCK LINK ===
    0x148a
=== CODE BLOCK END ===

=== CODE BLOCK ADDRESS 0x148a ===
  0x148a	lea    	edx, [edx + edx*8]
  0x148d	dec    	ebx
  0x148e	cmp    	eax, dword ptr [eax + edx*4 + 6]
  0x1492	jne    	0x149f
  === BLOCK LINK ===
    0x1494
=== CODE BLOCK END ===

=== CODE BLOCK ADDRESS 0x1494 ===
  0x1494	dec    	eax
  0x1495	mov    	eax, dword ptr [ebx + 0x18]
  0x1498	dec    	ebx
  0x1499	cmp    	eax, dword ptr [eax + edx*4 + 0xe]
  0x149d	je     	0x14a8
  === BLOCK LINK ===
    0x149f
=== CODE BLOCK END ===

=== CODE BLOCK ADDRESS 0x149f ===
  0x149f	inc    	edx
  0x14a1	inc    	ecx
  0x14a2	cmp    	edx, ecx
  0x14a4	jae    	0x14bd
  === BLOCK LINK ===
    0x14a6
=== CODE BLOCK END ===

=== CODE BLOCK ADDRESS 0x14a6 ===
  0x14a6	jmp    	0x1485
  === BLOCK LINK ===
    0x14a8
=== CODE BLOCK END ===

=== CODE BLOCK ADDRESS 0x14a8 ===
  0x14a8	inc    	dword ptr [ebx + 0x88]
  0x14ae	dec    	eax
  0x14af	lea    	eax, [edx + edx*8]
  0x14b2	inc    	ecx
  0x14b3	mov    	ecx, dword ptr [eax + eax*4 + 0x20]
  === BLOCK LINK ===
    0x14b7
=== CODE BLOCK END ===

=== CODE BLOCK ADDRESS 0x14b7 ===
  0x14b7	add    	dword ptr [ebx + 0x90], ecx
  === BLOCK LINK ===
    0x14bd
=== CODE BLOCK END ===

=== CODE BLOCK ADDRESS 0x14c3 ===
  0x14c3	int3   	
  0x14c4	int3   	
  0x14c5	int3   	
  0x14c6	int3   	
  0x14c7	int3   	
  === BLOCK LINK ===
    0x14c8
=== CODE BLOCK END ===

=== CODE BLOCK ADDRESS 0x14c8 ===
  0x14c8	int3   	
  0x14c9	int3   	
  0x14ca	int3   	
  0x14cb	int3   	
  0x14cc	dec    	eax
  === BLOCK LINK ===
    0x14cd
=== CODE BLOCK END ===

=== CODE BLOCK ADDRESS 0x14cd ===
  0x14cd	mov    	dword ptr [esp + 0x10], ebx
  0x14d1	dec    	eax
  0x14d2	mov    	dword ptr [esp + 0x18], ebp
  0x14d6	dec    	eax
  0x14d7	mov    	dword ptr [esp + 0x20], esi
  === BLOCK LINK ===
    0x14db
=== CODE BLOCK END ===

=== CODE BLOCK ADDRESS 0x14db ===
  0x14db	push   	edi
  0x14dc	inc    	ecx
  0x14dd	push   	esp
  0x14de	inc    	ecx
  0x14df	push   	ebp
  === BLOCK LINK ===
    0x14e0
=== CODE BLOCK END ===

=== CODE BLOCK ADDRESS 0x14e0 ===
  0x14e0	inc    	ecx
  0x14e1	push   	esi
  0x14e2	inc    	ecx
  0x14e3	push   	edi
  0x14e4	dec    	eax
  === BLOCK LINK ===
    0x14e5
=== CODE BLOCK END ===

=== CODE BLOCK ADDRESS 0x14e5 ===
  0x14e5	sub    	esp, 0x60
  0x14e8	movzx  	edi, byte ptr [ecx]
  0x14eb	dec    	esp
  0x14ec	lea    	esi, [0x54ce]
  0x14f2	xor    	esi, esi
  === BLOCK LINK ===
    0x14f4
=== CODE BLOCK END ===

=== CODE BLOCK ADDRESS 0x14f4 ===
  0x14f4	dec    	esp
  0x14f5	mov    	esp, ecx
  0x14f7	inc    	esp
  0x14f8	lea    	ebp, [esi + 1]
  0x14fb	inc    	ecx
  === BLOCK LINK ===
    0x14fc
=== CODE BLOCK END ===

=== CODE BLOCK ADDRESS 0x14fc ===
  0x14fc	mov    	ebx, ebp
  0x14fe	inc    	ecx
  0x14ff	cmp    	edi, ebp
  0x1501	jb     	0x1533
  === BLOCK LINK ===
    0x1503
=== CODE BLOCK END ===

=== CODE BLOCK ADDRESS 0x1503 ===
  0x1503	mov    	edx, 0x2000
  0x1508	xor    	ecx, ecx
  0x150a	dec    	eax
  0x150b	call   	dword ptr [0x2cf7]
  === BLOCK LINK ===
    0x1511
=== CODE BLOCK END ===

=== CODE BLOCK ADDRESS 0x1511 ===
  0x1511	nop    	dword ptr [eax + eax]
  0x1516	mov    	edx, ebx
  0x1518	dec    	eax
  0x1519	imul   	ecx, edx, 0x98
  0x151f	dec    	edx
  === BLOCK LINK ===
    0x1520
=== CODE BLOCK END ===

=== CODE BLOCK ADDRESS 0x1520 ===
  0x1520	mov    	dword ptr [ecx + esi], eax
  0x1523	dec    	eax
  0x1524	test   	eax, eax
  0x1526	je     	0x15d9
  === BLOCK LINK ===
    0x152c
=== CODE BLOCK END ===

=== CODE BLOCK ADDRESS 0x152c ===
  0x152c	inc    	ecx
  0x152d	add    	ebx, ebp
  0x152f	cmp    	ebx, edi
  0x1531	jbe    	0x1503
  === BLOCK LINK ===
    0x1533
=== CODE BLOCK END ===

=== CODE BLOCK ADDRESS 0x1533 ===
  0x1533	inc    	esp
  0x1534	mov    	eax, dword ptr [0x4b8e]
  0x153a	inc    	ebp
  0x153b	xor    	edi, edi
  0x153d	inc    	esp
  === BLOCK LINK ===
    0x153e
=== CODE BLOCK END ===

=== CODE BLOCK ADDRESS 0x153e ===
  0x153e	mov    	dword ptr [esp + 0x90], edi
  0x1545	inc    	ebp
  0x1546	test   	eax, eax
  0x1548	je     	0x1727
  === BLOCK LINK ===
    0x154e
=== CODE BLOCK END ===

=== CODE BLOCK ADDRESS 0x154e ===
  0x154e	dec    	esp
  0x154f	lea    	edx, [0x520b]
  0x1555	inc    	ecx
  0x1556	mov    	ebp, ebp
  0x1558	inc    	ecx
  === BLOCK LINK ===
    0x1559
=== CODE BLOCK END ===

=== CODE BLOCK ADDRESS 0x1559 ===
  0x1559	cmp    	edi, ebp
  0x155b	jb     	0x16ea
  === BLOCK LINK ===
    0x1561
=== CODE BLOCK END ===

=== CODE BLOCK ADDRESS 0x1561 ===
  0x1561	inc    	ecx
  0x1562	mov    	edi, 0x40
  0x1567	mov    	eax, ebp
  0x1569	dec    	ecx
  0x156a	lea    	edx, [esi + 8]
  === BLOCK LINK ===
    0x156d
=== CODE BLOCK END ===

=== CODE BLOCK ADDRESS 0x156d ===
  0x156d	dec    	eax
  0x156e	imul   	ecx, eax, 0x98
  0x1574	dec    	eax
  0x1575	add    	edx, ecx
  0x1577	cmp    	word ptr [edx], 2
  === BLOCK LINK ===
    0x157b
=== CODE BLOCK END ===

=== CODE BLOCK ADDRESS 0x157b ===
  0x157b	jne    	0x1605
  === BLOCK LINK ===
    0x1581
=== CODE BLOCK END ===

=== CODE BLOCK ADDRESS 0x1581 ===
  0x1581	mov    	eax, dword ptr [0x4b45]
  0x1587	dec    	esi
  0x1588	lea    	ecx, [ecx + esi]
  0x158b	mov    	dword ptr [esp + 0x50], eax
  0x158f	dec    	esp
  === BLOCK LINK ===
    0x1590
=== CODE BLOCK END ===

=== CODE BLOCK ADDRESS 0x1590 ===
  0x1590	lea    	eax, [0xfffffe7a]
  0x1596	dec    	ecx
  0x1597	mov    	eax, dword ptr [ecx]
  0x1599	xor    	edx, edx
  0x159b	mov    	dword ptr [esp + 0x48], 0x2000
  === BLOCK LINK ===
    0x15a3
=== CODE BLOCK END ===

=== CODE BLOCK ADDRESS 0x15a3 ===
  0x15a3	dec    	eax
  0x15a4	mov    	dword ptr [esp + 0x40], eax
  0x15a8	inc    	edx
  0x15a9	mov    	eax, dword ptr [ecx + esi + 0xc]
  0x15ad	dec    	eax
  === BLOCK LINK ===
    0x15ae
=== CODE BLOCK END ===

=== CODE BLOCK ADDRESS 0x15ae ===
  0x15ae	mov    	ecx, dword ptr [0x50ec]
  0x15b4	dec    	esp
  0x15b5	mov    	dword ptr [esp + 0x38], esp
  0x15b9	inc    	sp
  0x15bb	mov    	dword ptr [esp + 0x30], edi
  === BLOCK LINK ===
    0x15bf
=== CODE BLOCK END ===

=== CODE BLOCK ADDRESS 0x15bf ===
  0x15bf	dec    	esp
  0x15c0	mov    	dword ptr [esp + 0x28], edx
  0x15c4	mov    	dword ptr [esp + 0x20], eax
  0x15c8	dec    	eax
  0x15c9	call   	dword ptr [0x2b61]
  === BLOCK LINK ===
    0x15cf
=== CODE BLOCK END ===

=== CODE BLOCK ADDRESS 0x15cf ===
  0x15cf	nop    	dword ptr [eax + eax]
  0x15d4	jmp    	0x166a
  === BLOCK LINK ===
    0x15d9
=== CODE BLOCK END ===

=== CODE BLOCK ADDRESS 0x15d9 ===
  0x15d9	inc    	ecx
  0x15da	cmp    	ebx, ebp
  0x15dc	jbe    	0x1785
  === BLOCK LINK ===
    0x15e2
=== CODE BLOCK END ===

=== CODE BLOCK ADDRESS 0x15e2 ===
  0x15e2	dec    	eax
  0x15e3	imul   	edi, edx, 0x98
  0x15e9	dec    	ebx
  0x15eb	dec    	edx
  0x15ec	mov    	ecx, dword ptr [edi + esi]
  === BLOCK LINK ===
    0x15ef
=== CODE BLOCK END ===

=== CODE BLOCK ADDRESS 0x15ef ===
  0x15ef	dec    	eax
  0x15f0	call   	dword ptr [0x2c0a]
  === BLOCK LINK ===
    0x15f6
=== CODE BLOCK END ===

=== CODE BLOCK ADDRESS 0x15f6 ===
  0x15f6	nop    	dword ptr [eax + eax]
  0x15fb	dec    	ecx
  0x15fc	sub    	ebx, ebp
  0x15fe	jne    	0x15eb
  === BLOCK LINK ===
    0x1600
=== CODE BLOCK END ===

=== CODE BLOCK ADDRESS 0x1600 ===
  0x1600	jmp    	0x1785
  === BLOCK LINK ===
    0x1605
=== CODE BLOCK END ===

=== CODE BLOCK ADDRESS 0x1605 ===
  0x1605	cmp    	word ptr [edx], 0x17
  0x1609	jne    	0x16d0
  === BLOCK LINK ===
    0x160f
=== CODE BLOCK END ===

=== CODE BLOCK ADDRESS 0x160f ===
  0x160f	mov    	eax, dword ptr [0x4ab7]
  0x1615	dec    	esi
  0x1616	lea    	ecx, [ecx + esi]
  0x1619	dec    	eax
  0x161a	mov    	ecx, dword ptr [0x5080]
  === BLOCK LINK ===
    0x1620
=== CODE BLOCK END ===

=== CODE BLOCK ADDRESS 0x1620 ===
  0x1620	dec    	esp
  0x1621	lea    	eax, [0xfffffde9]
  0x1627	mov    	dword ptr [esp + 0x58], eax
  0x162b	dec    	ecx
  0x162c	mov    	eax, dword ptr [ecx]
  === BLOCK LINK ===
    0x162e
=== CODE BLOCK END ===

=== CODE BLOCK ADDRESS 0x162e ===
  0x162e	mov    	dword ptr [esp + 0x50], 0x2000
  0x1636	dec    	eax
  0x1637	mov    	dword ptr [esp + 0x48], eax
  0x163b	dec    	eax
  0x163c	lea    	eax, [0x506e]
  === BLOCK LINK ===
    0x1642
=== CODE BLOCK END ===

=== CODE BLOCK ADDRESS 0x1642 ===
  0x1642	dec    	esp
  0x1643	mov    	dword ptr [esp + 0x40], esp
  0x1647	inc    	sp
  0x1649	mov    	dword ptr [esp + 0x38], edi
  0x164d	dec    	esp
  === BLOCK LINK ===
    0x164e
=== CODE BLOCK END ===

=== CODE BLOCK ADDRESS 0x164e ===
  0x164e	mov    	dword ptr [esp + 0x30], edx
  0x1652	dec    	eax
  0x1653	mov    	dword ptr [esp + 0x28], edx
  0x1657	xor    	edx, edx
  0x1659	dec    	eax
  === BLOCK LINK ===
    0x165a
=== CODE BLOCK END ===

=== CODE BLOCK ADDRESS 0x165a ===
  0x165a	mov    	dword ptr [esp + 0x20], eax
  0x165e	dec    	eax
  0x165f	call   	dword ptr [0x2ad3]
  === BLOCK LINK ===
    0x1665
=== CODE BLOCK END ===

=== CODE BLOCK ADDRESS 0x1665 ===
  0x1665	nop    	dword ptr [eax + eax]
  0x166a	test   	eax, eax
  0x166c	jne    	0x1684
  === BLOCK LINK ===
    0x166e
=== CODE BLOCK END ===

=== CODE BLOCK ADDRESS 0x166e ===
  0x166e	dec    	eax
  0x166f	call   	dword ptr [0x2b5b]
  === BLOCK LINK ===
    0x1675
=== CODE BLOCK END ===

=== CODE BLOCK ADDRESS 0x1675 ===
  0x1675	nop    	dword ptr [eax + eax]
  0x167a	cmp    	eax, 0x3e5
  0x167f	jne    	0x1684
  === BLOCK LINK ===
    0x1681
=== CODE BLOCK END ===

=== CODE BLOCK ADDRESS 0x1681 ===
  0x1681	inc    	ecx
  0x1682	add    	esi, ebp
  0x1684	mov    	ebx, dword ptr [0x4a3a]
  0x168a	dec    	eax
  0x168b	call   	dword ptr [0x2c4f]
  === BLOCK LINK ===
    0x1691
=== CODE BLOCK END ===

=== CODE BLOCK ADDRESS 0x1691 ===
  0x1691	nop    	dword ptr [eax + eax]
  0x1696	inc    	esp
  0x1697	lea    	esi, [ebx + eax]
  0x169a	test   	ebx, ebx
  0x169c	jle    	0x16c2
  === BLOCK LINK ===
    0x169e
=== CODE BLOCK END ===

=== CODE BLOCK ADDRESS 0x169e ===
  0x169e	inc    	ecx
  0x169f	mov    	edx, ebp
  0x16a1	mov    	ecx, ebx
  0x16a3	dec    	eax
  0x16a4	call   	dword ptr [0x2c0e]
  === BLOCK LINK ===
    0x16aa
=== CODE BLOCK END ===

=== CODE BLOCK ADDRESS 0x16aa ===
  0x16aa	nop    	dword ptr [eax + eax]
  0x16af	dec    	eax
  0x16b0	call   	dword ptr [0x2c2a]
  === BLOCK LINK ===
    0x16b6
=== CODE BLOCK END ===

=== CODE BLOCK ADDRESS 0x16b6 ===
  0x16b6	nop    	dword ptr [eax + eax]
  0x16bb	inc    	ecx
  0x16bc	mov    	ebx, esi
  0x16be	sub    	ebx, eax
  0x16c0	jmp    	0x169a
  === BLOCK LINK ===
    0x16c2
=== CODE BLOCK END ===

=== CODE BLOCK ADDRESS 0x16c2 ===
  0x16c2	dec    	esp
  0x16c3	lea    	edx, [0x5097]
  0x16c9	dec    	esp
  0x16ca	lea    	esi, [0x52f0]
  0x16d0	inc    	ecx
  === BLOCK LINK ===
    0x16d1
=== CODE BLOCK END ===

=== CODE BLOCK ADDRESS 0x16d1 ===
  0x16d1	add    	ebp, ebp
  0x16d3	cmp    	ebp, edi
  0x16d5	jbe    	0x1567
  === BLOCK LINK ===
    0x16db
=== CODE BLOCK END ===

=== CODE BLOCK ADDRESS 0x16db ===
  0x16db	inc    	esp
  0x16dc	mov    	eax, dword ptr [0x49e6]
  0x16e2	inc    	esp
  0x16e3	mov    	edi, dword ptr [esp + 0x90]
  0x16ea	inc    	ebp
  === BLOCK LINK ===
    0x16eb
=== CODE BLOCK END ===

=== CODE BLOCK ADDRESS 0x16eb ===
  0x16eb	add    	edi, ebp
  0x16ed	inc    	esp
  0x16ee	mov    	dword ptr [esp + 0x90], edi
  0x16f5	inc    	ebp
  0x16f6	cmp    	edi, eax
  === BLOCK LINK ===
    0x16f8
=== CODE BLOCK END ===

=== CODE BLOCK ADDRESS 0x16f8 ===
  0x16f8	jb     	0x1555
  === BLOCK LINK ===
    0x16fe
=== CODE BLOCK END ===

=== CODE BLOCK ADDRESS 0x16fe ===
  0x16fe	cmp    	dword ptr [0x4f90], esi
  0x1704	jae    	0x1727
  === BLOCK LINK ===
    0x1706
=== CODE BLOCK END ===

=== CODE BLOCK ADDRESS 0x1706 ===
  0x1706	inc    	ecx
  0x1707	mov    	edx, ebp
  0x1709	or     	ecx, 0xffffffff
  0x170c	dec    	eax
  0x170d	call   	dword ptr [0x2ba5]
  === BLOCK LINK ===
    0x1713
=== CODE BLOCK END ===

=== CODE BLOCK ADDRESS 0x1713 ===
  0x1713	nop    	dword ptr [eax + eax]
  0x1718	cmp    	dword ptr [0x4f76], esi
  0x171e	jb     	0x1706
  === BLOCK LINK ===
    0x1720
=== CODE BLOCK END ===

=== CODE BLOCK ADDRESS 0x1720 ===
  0x1720	inc    	esp
  0x1721	mov    	eax, dword ptr [0x49a1]
  0x1727	dec    	eax
  0x1728	imul   	ecx, edi, 0x98
  0x172e	inc    	edx
  === BLOCK LINK ===
    0x172f
=== CODE BLOCK END ===

=== CODE BLOCK ADDRESS 0x172f ===
  0x172f	mov    	eax, dword ptr [ecx + esi + 0x88]
  0x1736	dec    	esp
  0x1737	lea    	ecx, [ecx + 0x8c]
  0x173d	dec    	ebp
  0x173e	add    	ecx, esi
  === BLOCK LINK ===
    0x1740
=== CODE BLOCK END ===

=== CODE BLOCK ADDRESS 0x1740 ===
  0x1740	inc    	ecx
  0x1741	mov    	dword ptr [ecx], eax
  0x1743	test   	edi, edi
  0x1745	je     	0x177e
  === BLOCK LINK ===
    0x1747
=== CODE BLOCK END ===

=== CODE BLOCK ADDRESS 0x1747 ===
  0x1747	lea    	edx, [edi - 1]
  0x174a	test   	edx, edx
  0x174c	je     	0x177e
  === BLOCK LINK ===
    0x174e
=== CODE BLOCK END ===

=== CODE BLOCK ADDRESS 0x174e ===
  0x174e	mov    	eax, edx
  0x1750	inc    	ecx
  0x1751	mov    	edx, 0x98
  0x1756	dec    	eax
  0x1757	imul   	ecx, eax, 0x98
  === BLOCK LINK ===
    0x175d
=== CODE BLOCK END ===

=== CODE BLOCK ADDRESS 0x175d ===
  0x175d	dec    	eax
  0x175e	lea    	eax, [0x52e8]
  0x1764	dec    	eax
  0x1765	add    	ecx, eax
  0x1767	mov    	eax, dword ptr [ecx - 4]
  === BLOCK LINK ===
    0x176a
=== CODE BLOCK END ===

=== CODE BLOCK ADDRESS 0x176a ===
  0x176a	inc    	ecx
  0x176b	cmp    	eax, dword ptr [ecx]
  0x176d	inc    	ecx
  0x176e	cmovbe  	eax, dword ptr [ecx]
  0x1771	dec    	ebp
  === BLOCK LINK ===
    0x1772
=== CODE BLOCK END ===

=== CODE BLOCK ADDRESS 0x1772 ===
  0x1772	sub    	ecx, edx
  0x1774	mov    	dword ptr [ecx], eax
  0x1776	dec    	ecx
  0x1777	sub    	ecx, edx
  0x1779	add    	edx, -1
  === BLOCK LINK ===
    0x177c
=== CODE BLOCK END ===

=== CODE BLOCK ADDRESS 0x177c ===
  0x177c	jne    	0x1767
  === BLOCK LINK ===
    0x177e
=== CODE BLOCK END ===

=== CODE BLOCK ADDRESS 0x177e ===
  0x177e	inc    	esp
  0x177f	mov    	dword ptr [0x52c7], eax
  0x1785	dec    	esp
  0x1786	lea    	ebx, [esp + 0x60]
  0x178a	dec    	ecx
  === BLOCK LINK ===
    0x178b
=== CODE BLOCK END ===

=== CODE BLOCK ADDRESS 0x178b ===
  0x178b	mov    	ebx, dword ptr [ebx + 0x38]
  0x178e	dec    	ecx
  0x178f	mov    	ebp, dword ptr [ebx + 0x40]
  0x1792	dec    	ecx
  0x1793	mov    	esi, dword ptr [ebx + 0x48]
  === BLOCK LINK ===
    0x1796
=== CODE BLOCK END ===

=== CODE BLOCK ADDRESS 0x1796 ===
  0x1796	dec    	ecx
  0x1797	mov    	esp, ebx
  0x1799	inc    	ecx
  0x179a	pop    	edi
  0x179b	inc    	ecx
  === BLOCK LINK ===
    0x179c
=== CODE BLOCK END ===

=== CODE BLOCK ADDRESS 0x179c ===
  0x179c	pop    	esi
  0x179d	inc    	ecx
  0x179e	pop    	ebp
  0x179f	inc    	ecx
  0x17a0	pop    	esp
  === BLOCK LINK ===
    0x17a1
=== CODE BLOCK END ===

=== CODE BLOCK ADDRESS 0x17a1 ===
  0x17a1	pop    	edi
  0x17a2	ret    	
  0x17a3	int3   	
  0x17a4	int3   	
  0x17a5	int3   	
  === BLOCK LINK ===
    0x17a6
=== CODE BLOCK END ===

=== CODE BLOCK ADDRESS 0x17a6 ===
  0x17a6	int3   	
  0x17a7	int3   	
  0x17a8	int3   	
  0x17a9	int3   	
  0x17aa	int3   	
  === BLOCK LINK ===
    0x17ab
=== CODE BLOCK END ===

=== CODE BLOCK ADDRESS 0x17ab ===
  0x17ab	int3   	
  0x17ac	dec    	eax
  0x17ad	mov    	dword ptr [esp + 0x10], ebx
  0x17b1	dec    	eax
  0x17b2	mov    	dword ptr [esp + 0x18], ebp
  === BLOCK LINK ===
    0x17b6
=== CODE BLOCK END ===

=== CODE BLOCK ADDRESS 0x17b6 ===
  0x17b6	dec    	eax
  0x17b7	mov    	dword ptr [esp + 0x20], esi
  0x17bb	push   	edi
  0x17bc	inc    	ecx
  0x17bd	push   	esp
  === BLOCK LINK ===
    0x17be
=== CODE BLOCK END ===

=== CODE BLOCK ADDRESS 0x17be ===
  0x17be	inc    	ecx
  0x17bf	push   	ebp
  0x17c0	inc    	ecx
  0x17c1	push   	esi
  0x17c2	inc    	ecx
  === BLOCK LINK ===
    0x17c3
=== CODE BLOCK END ===

=== CODE BLOCK ADDRESS 0x17c3 ===
  0x17c3	push   	edi
  0x17c4	dec    	eax
  0x17c5	sub    	esp, 0x30
  0x17c8	mov    	ebp, ecx
  0x17ca	dec    	eax
  === BLOCK LINK ===
    0x17cb
=== CODE BLOCK END ===

=== CODE BLOCK ADDRESS 0x17cb ===
  0x17cb	call   	dword ptr [0x29ff]
  === BLOCK LINK ===
    0x17d1
=== CODE BLOCK END ===

=== CODE BLOCK ADDRESS 0x17d1 ===
  0x17d1	nop    	dword ptr [eax + eax]
  0x17d6	mov    	edi, 1
  0x17db	mov    	ebx, eax
  0x17dd	mov    	ecx, edi
  0x17df	call   	0x33c8
  === BLOCK LINK ===
    0x17e4
=== CODE BLOCK END ===

=== CODE BLOCK ADDRESS 0x17e4 ===
  0x17e4	dec    	eax
  0x17e5	mov    	ecx, eax
  0x17e7	inc    	esp
  0x17e8	mov    	eax, ebx
  0x17ea	mov    	edx, 0x273e
  === BLOCK LINK ===
    0x17ef
=== CODE BLOCK END ===

=== CODE BLOCK ADDRESS 0x17ef ===
  0x17ef	call   	0x2af4
  === BLOCK LINK ===
    0x17f4
=== CODE BLOCK END ===

=== CODE BLOCK ADDRESS 0x17f4 ===
  0x17f4	inc    	esp
  0x17f5	mov    	al, byte ptr [0x48c5]
  0x17fb	dec    	eax
  0x17fc	lea    	ecx, [0x4eae]
  0x1802	mov    	edx, dword ptr [0x4e88]
  === BLOCK LINK ===
    0x1808
=== CODE BLOCK END ===

=== CODE BLOCK ADDRESS 0x1808 ===
  0x1808	call   	0x1008
  === BLOCK LINK ===
    0x180d
=== CODE BLOCK END ===

=== CODE BLOCK ADDRESS 0x180d ===
  0x180d	mov    	ecx, edi
  0x180f	call   	0x33c8
  === BLOCK LINK ===
    0x1814
=== CODE BLOCK END ===

=== CODE BLOCK ADDRESS 0x1814 ===
  0x1814	dec    	eax
  0x1815	mov    	ecx, eax
  0x1817	mov    	edx, 0x273c
  0x181c	call   	0x2af4
  === BLOCK LINK ===
    0x1821
=== CODE BLOCK END ===

=== CODE BLOCK ADDRESS 0x1821 ===
  0x1821	mov    	esi, edi
  0x1823	cmp    	ebp, edi
  0x1825	jb     	0x19a5
  === BLOCK LINK ===
    0x182b
=== CODE BLOCK END ===

=== CODE BLOCK ADDRESS 0x182b ===
  0x182b	dec    	eax
  0x182c	lea    	edx, [0x518e]
  0x1832	inc    	esp
  0x1833	mov    	esi, dword ptr [0x488f]
  0x1839	lea    	ecx, [esi - 1]
  === BLOCK LINK ===
    0x183c
=== CODE BLOCK END ===

=== CODE BLOCK ADDRESS 0x183c ===
  0x183c	mov    	eax, esi
  0x183e	dec    	esp
  0x183f	imul   	edi, eax, 0x98
  0x1845	inc    	ecx
  0x1846	mov    	eax, esi
  === BLOCK LINK ===
    0x1848
=== CODE BLOCK END ===

=== CODE BLOCK ADDRESS 0x1848 ===
  0x1848	inc    	ebp
  0x1849	mov    	esp, dword ptr [edi + edx + 0x88]
  0x1850	inc    	ecx
  0x1851	sub    	eax, esp
  0x1853	inc    	ebp
  === BLOCK LINK ===
    0x1854
=== CODE BLOCK END ===

=== CODE BLOCK ADDRESS 0x1854 ===
  0x1854	mov    	ebp, dword ptr [edi + edx + 0x8c]
  0x185b	mov    	dword ptr [esp + 0x60], eax
  0x185f	dec    	eax
  0x1860	imul   	eax, ecx, 0x98
  0x1866	mov    	ecx, 1
  === BLOCK LINK ===
    0x186b
=== CODE BLOCK END ===

=== CODE BLOCK ADDRESS 0x186b ===
  0x186b	mov    	edi, dword ptr [eax + edx + 0x8c]
  0x1872	inc    	ecx
  0x1873	sub    	edi, ebp
  0x1875	inc    	ebp
  0x1876	sub    	ebp, esp
  === BLOCK LINK ===
    0x1878
=== CODE BLOCK END ===

=== CODE BLOCK ADDRESS 0x1878 ===
  0x1878	imul   	eax, edi, 0x64
  0x187b	cdq    	
  0x187c	inc    	ecx
  0x187d	idiv   	esi
  0x187f	mov    	ebx, eax
  === BLOCK LINK ===
    0x1881
=== CODE BLOCK END ===

=== CODE BLOCK ADDRESS 0x1881 ===
  0x1881	call   	0x33c8
  === BLOCK LINK ===
    0x1886
=== CODE BLOCK END ===

=== CODE BLOCK ADDRESS 0x1886 ===
  0x1886	dec    	eax
  0x1887	mov    	ecx, eax
  0x1889	mov    	dword ptr [esp + 0x20], ebx
  0x188d	inc    	ebp
  0x188e	mov    	ecx, esi
  === BLOCK LINK ===
    0x1890
=== CODE BLOCK END ===

=== CODE BLOCK ADDRESS 0x1890 ===
  0x1890	inc    	esp
  0x1891	mov    	eax, edi
  0x1893	mov    	edx, 0x273f
  0x1898	call   	0x2af4
  === BLOCK LINK ===
    0x189d
=== CODE BLOCK END ===

=== CODE BLOCK ADDRESS 0x189d ===
  0x189d	inc    	ebp
  0x189e	test   	esp, esp
  0x18a0	je     	0x18db
  === BLOCK LINK ===
    0x18a2
=== CODE BLOCK END ===

=== CODE BLOCK ADDRESS 0x18a2 ===
  0x18a2	dec    	eax
  0x18a3	lea    	eax, [0x5117]
  0x18a9	xor    	edx, edx
  0x18ab	inc    	ecx
  0x18ac	mov    	eax, dword ptr [edi + eax + 0x90]
  === BLOCK LINK ===
    0x18b3
=== CODE BLOCK END ===

=== CODE BLOCK ADDRESS 0x18b3 ===
  0x18b3	inc    	ecx
  0x18b4	div    	esp
  0x18b6	inc    	ecx
  0x18b7	mov    	esp, 1
  0x18bc	inc    	ecx
  === BLOCK LINK ===
    0x18bd
=== CODE BLOCK END ===

=== CODE BLOCK ADDRESS 0x18bd ===
  0x18bd	mov    	ecx, esp
  0x18bf	mov    	ebx, eax
  0x18c1	call   	0x33c8
  === BLOCK LINK ===
    0x18c6
=== CODE BLOCK END ===

=== CODE BLOCK ADDRESS 0x18c6 ===
  0x18c6	dec    	eax
  0x18c7	mov    	ecx, eax
  0x18c9	inc    	esp
  0x18ca	mov    	ecx, ebx
  0x18cc	inc    	esp
  === BLOCK LINK ===
    0x18cd
=== CODE BLOCK END ===

=== CODE BLOCK ADDRESS 0x18cd ===
  0x18cd	mov    	eax, esi
  0x18cf	mov    	edx, 0x2741
  0x18d4	call   	0x2af4
  === BLOCK LINK ===
    0x18d9
=== CODE BLOCK END ===

=== CODE BLOCK ADDRESS 0x18d9 ===
  0x18d9	jmp    	0x18f9
  === BLOCK LINK ===
    0x18db
=== CODE BLOCK END ===

=== CODE BLOCK ADDRESS 0x18db ===
  0x18db	inc    	ecx
  0x18dc	mov    	esp, 1
  0x18e1	inc    	ecx
  0x18e2	mov    	ecx, esp
  0x18e4	call   	0x33c8
  === BLOCK LINK ===
    0x18e9
=== CODE BLOCK END ===

=== CODE BLOCK ADDRESS 0x18e9 ===
  0x18e9	dec    	eax
  0x18ea	mov    	ecx, eax
  0x18ec	inc    	esp
  0x18ed	mov    	eax, esi
  0x18ef	mov    	edx, 0x2742
  === BLOCK LINK ===
    0x18f4
=== CODE BLOCK END ===

=== CODE BLOCK ADDRESS 0x18f4 ===
  0x18f4	call   	0x2af4
  === BLOCK LINK ===
    0x18f9
=== CODE BLOCK END ===

=== CODE BLOCK ADDRESS 0x18f9 ===
  0x18f9	imul   	eax, dword ptr [esp + 0x60], 0x64
  0x18fe	inc    	ecx
  0x18ff	mov    	ecx, esp
  0x1901	cdq    	
  0x1902	inc    	ecx
  === BLOCK LINK ===
    0x1903
=== CODE BLOCK END ===

=== CODE BLOCK ADDRESS 0x1903 ===
  0x1903	idiv   	esi
  0x1905	mov    	ebx, eax
  0x1907	call   	0x33c8
  === BLOCK LINK ===
    0x190c
=== CODE BLOCK END ===

=== CODE BLOCK ADDRESS 0x190c ===
  0x190c	inc    	esp
  0x190d	mov    	eax, dword ptr [esp + 0x60]
  0x1911	mov    	edi, 0x2740
  0x1916	mov    	edx, edi
  0x1918	mov    	dword ptr [esp + 0x20], ebx
  === BLOCK LINK ===
    0x191c
=== CODE BLOCK END ===

=== CODE BLOCK ADDRESS 0x191c ===
  0x191c	dec    	eax
  0x191d	mov    	ecx, eax
  0x191f	inc    	ebp
  0x1920	mov    	ecx, esi
  0x1922	call   	0x2af4
  === BLOCK LINK ===
    0x1927
=== CODE BLOCK END ===

=== CODE BLOCK ADDRESS 0x1927 ===
  0x1927	inc    	ecx
  0x1928	imul   	eax, ebp, 0x64
  0x192b	inc    	ecx
  0x192c	mov    	ecx, esp
  0x192e	cdq    	
  === BLOCK LINK ===
    0x192f
=== CODE BLOCK END ===

=== CODE BLOCK ADDRESS 0x192f ===
  0x192f	inc    	ecx
  0x1930	idiv   	esi
  0x1932	mov    	ebx, eax
  0x1934	call   	0x33c8
  === BLOCK LINK ===
    0x1939
=== CODE BLOCK END ===

=== CODE BLOCK ADDRESS 0x1939 ===
  0x1939	dec    	eax
  0x193a	mov    	ecx, eax
  0x193c	mov    	dword ptr [esp + 0x20], ebx
  0x1940	inc    	ebp
  0x1941	mov    	ecx, esi
  === BLOCK LINK ===
    0x1943
=== CODE BLOCK END ===

=== CODE BLOCK ADDRESS 0x1943 ===
  0x1943	inc    	ebp
  0x1944	mov    	eax, ebp
  0x1946	mov    	edx, edi
  0x1948	call   	0x2af4
  === BLOCK LINK ===
    0x194d
=== CODE BLOCK END ===

=== CODE BLOCK ADDRESS 0x194d ===
  0x194d	dec    	eax
  0x194e	lea    	ecx, [0x506c]
  0x1954	xor    	eax, eax
  0x1956	dec    	eax
  0x1957	add    	ecx, 8
  === BLOCK LINK ===
    0x195a
=== CODE BLOCK END ===

=== CODE BLOCK ADDRESS 0x195a ===
  0x195a	dec    	ecx
  0x195b	add    	ecx, edi
  0x195d	cmp    	word ptr [ecx], ax
  0x1960	jne    	0x196c
  === BLOCK LINK ===
    0x1962
=== CODE BLOCK END ===

=== CODE BLOCK ADDRESS 0x1962 ===
  0x1962	movzx  	eax, word ptr [0x4d47]
  0x1969	mov    	word ptr [ecx], ax
  0x196c	inc    	esp
  0x196d	mov    	al, byte ptr [0x474d]
  0x1973	mov    	edx, dword ptr [0x4d17]
  === BLOCK LINK ===
    0x1979
=== CODE BLOCK END ===

=== CODE BLOCK ADDRESS 0x1979 ===
  0x1979	call   	0x1008
  === BLOCK LINK ===
    0x197e
=== CODE BLOCK END ===

=== CODE BLOCK ADDRESS 0x197e ===
  0x197e	inc    	ecx
  0x197f	mov    	ecx, esp
  0x1981	call   	0x33c8
  === BLOCK LINK ===
    0x1986
=== CODE BLOCK END ===

=== CODE BLOCK ADDRESS 0x1986 ===
  0x1986	dec    	eax
  0x1987	mov    	ecx, eax
  0x1989	mov    	edx, 0x273c
  0x198e	call   	0x2af4
  === BLOCK LINK ===
    0x1993
=== CODE BLOCK END ===

=== CODE BLOCK ADDRESS 0x1993 ===
  0x1993	inc    	ecx
  0x1994	add    	esi, esp
  0x1996	dec    	eax
  0x1997	lea    	edx, [0x5023]
  0x199d	cmp    	esi, ebp
  === BLOCK LINK ===
    0x199f
=== CODE BLOCK END ===

=== CODE BLOCK ADDRESS 0x199f ===
  0x199f	jbe    	0x1832
  === BLOCK LINK ===
    0x19a5
=== CODE BLOCK END ===

=== CODE BLOCK ADDRESS 0x19a5 ===
  0x19a5	dec    	eax
  0x19a6	mov    	ebx, dword ptr [esp + 0x68]
  0x19aa	dec    	eax
  0x19ab	mov    	ebp, dword ptr [esp + 0x70]
  0x19af	dec    	eax
  === BLOCK LINK ===
    0x19b0
=== CODE BLOCK END ===

=== CODE BLOCK ADDRESS 0x19b0 ===
  0x19b0	mov    	esi, dword ptr [esp + 0x78]
  0x19b4	dec    	eax
  0x19b5	add    	esp, 0x30
  0x19b8	inc    	ecx
  0x19b9	pop    	edi
  === BLOCK LINK ===
    0x19ba
=== CODE BLOCK END ===

=== CODE BLOCK ADDRESS 0x19ba ===
  0x19ba	inc    	ecx
  0x19bb	pop    	esi
  0x19bc	inc    	ecx
  0x19bd	pop    	ebp
  0x19be	inc    	ecx
  === BLOCK LINK ===
    0x19bf
=== CODE BLOCK END ===

=== CODE BLOCK ADDRESS 0x19bf ===
  0x19bf	pop    	esp
  0x19c0	pop    	edi
  0x19c1	ret    	
  0x19c2	int3   	
  0x19c3	int3   	
  === BLOCK LINK ===
    0x19c4
=== CODE BLOCK END ===

=== CODE BLOCK ADDRESS 0x19c4 ===
  0x19c4	int3   	
  0x19c5	int3   	
  0x19c6	int3   	
  0x19c7	int3   	
  0x19c8	int3   	
  === BLOCK LINK ===
    0x19c9
=== CODE BLOCK END ===

=== CODE BLOCK ADDRESS 0x19c9 ===
  0x19c9	int3   	
  0x19ca	int3   	
  0x19cb	int3   	
  0x19cc	dec    	eax
  0x19cd	mov    	dword ptr [esp + 8], ebx
  === BLOCK LINK ===
    0x19d1
=== CODE BLOCK END ===

=== CODE BLOCK ADDRESS 0x19d1 ===
  0x19d1	push   	edi
  0x19d2	dec    	eax
  0x19d3	sub    	esp, 0x20
  0x19d6	dec    	ecx
  0x19d7	mov    	edi, eax
  === BLOCK LINK ===
    0x19d9
=== CODE BLOCK END ===

=== CODE BLOCK ADDRESS 0x19d9 ===
  0x19d9	cmp    	dword ptr [ecx], edx
  0x19db	je     	0x1a13
  === BLOCK LINK ===
    0x19dd
=== CODE BLOCK END ===

=== CODE BLOCK ADDRESS 0x19dd ===
  0x19dd	cmp    	edx, 2
  0x19e0	dec    	eax
  0x19e1	lea    	eax, [0x2a69]
  0x19e7	dec    	eax
  0x19e8	lea    	ebx, [0x2a72]
  === BLOCK LINK ===
    0x19ee
=== CODE BLOCK END ===

=== CODE BLOCK ADDRESS 0x19ee ===
  0x19ee	mov    	ecx, 1
  0x19f3	dec    	eax
  0x19f4	cmove  	ebx, eax
  0x19f7	call   	0x33c8
  === BLOCK LINK ===
    0x19fc
=== CODE BLOCK END ===

=== CODE BLOCK ADDRESS 0x19fc ===
  0x19fc	dec    	eax
  0x19fd	mov    	ecx, eax
  0x19ff	dec    	esp
  0x1a00	mov    	ecx, ebx
  0x1a02	dec    	esp
  === BLOCK LINK ===
    0x1a03
=== CODE BLOCK END ===

=== CODE BLOCK ADDRESS 0x1a03 ===
  0x1a03	mov    	eax, edi
  0x1a05	mov    	edx, 0x275c
  0x1a0a	call   	0x2af4
  === BLOCK LINK ===
    0x1a0f
=== CODE BLOCK END ===

=== CODE BLOCK ADDRESS 0x1a0f ===
  0x1a0f	xor    	al, al
  0x1a11	jmp    	0x1a17
  === BLOCK LINK ===
    0x1a13
=== CODE BLOCK END ===

=== CODE BLOCK ADDRESS 0x1a13 ===
  0x1a13	mov    	dword ptr [ecx], edx
  0x1a15	mov    	al, 1
  0x1a17	dec    	eax
  0x1a18	mov    	ebx, dword ptr [esp + 0x30]
  0x1a1c	dec    	eax
  === BLOCK LINK ===
    0x1a1d
=== CODE BLOCK END ===

=== CODE BLOCK ADDRESS 0x1a1d ===
  0x1a1d	add    	esp, 0x20
  0x1a20	pop    	edi
  0x1a21	ret    	
  0x1a22	int3   	
  0x1a23	int3   	
  === BLOCK LINK ===
    0x1a24
=== CODE BLOCK END ===

=== CODE BLOCK ADDRESS 0x10f5 ===
=== CODE BLOCK END ===

=== CODE BLOCK ADDRESS 0x1a24 ===
  0x1a24	int3   	
  0x1a25	int3   	
  0x1a26	int3   	
  0x1a27	int3   	
  0x1a28	int3   	
  === BLOCK LINK ===
    0x1a29
=== CODE BLOCK END ===

=== CODE BLOCK ADDRESS 0x1a29 ===
  0x1a29	int3   	
  0x1a2a	int3   	
  0x1a2b	int3   	
  0x1a2c	dec    	eax
  0x1a2d	mov    	dword ptr [esp + 0x18], ebx
  === BLOCK LINK ===
    0x1a31
=== CODE BLOCK END ===

=== CODE BLOCK ADDRESS 0x1a31 ===
  0x1a31	push   	ebp
  0x1a32	push   	esi
  0x1a33	push   	edi
  0x1a34	inc    	ecx
  0x1a35	push   	esp
  === BLOCK LINK ===
    0x1a36
=== CODE BLOCK END ===

=== CODE BLOCK ADDRESS 0x1a36 ===
  0x1a36	inc    	ecx
  0x1a37	push   	ebp
  0x1a38	inc    	ecx
  0x1a39	push   	esi
  0x1a3a	inc    	ecx
  === BLOCK LINK ===
    0x1a3b
=== CODE BLOCK END ===

=== CODE BLOCK ADDRESS 0x1a3b ===
  0x1a3b	push   	edi
  0x1a3c	dec    	eax
  0x1a3d	lea    	ebp, [esp - 0x1120]
  0x1a44	mov    	eax, 0x1220
  0x1a49	call   	0x34d0
  === BLOCK LINK ===
    0x1a4e
=== CODE BLOCK END ===

=== CODE BLOCK ADDRESS 0x1a4e ===
  0x1a4e	dec    	eax
  0x1a4f	sub    	esp, eax
  0x1a51	dec    	eax
  0x1a52	mov    	eax, dword ptr [0x45b0]
  0x1a58	dec    	eax
  === BLOCK LINK ===
    0x1a59
=== CODE BLOCK END ===

=== CODE BLOCK ADDRESS 0x1a59 ===
  0x1a59	xor    	eax, esp
  0x1a5b	dec    	eax
  0x1a5c	mov    	dword ptr [ebp + 0x1110], eax
  0x1a62	xor    	edi, edi
  0x1a64	mov    	dword ptr [ebp - 0x80], ecx
  === BLOCK LINK ===
    0x1a67
=== CODE BLOCK END ===

=== CODE BLOCK ADDRESS 0x1a67 ===
  0x1a67	dec    	esp
  0x1a68	mov    	ebp, edx
  0x1a6a	dec    	eax
  0x1a6b	mov    	dword ptr [ebp - 0x60], edi
  0x1a6e	inc    	esp
  === BLOCK LINK ===
    0x1a6f
=== CODE BLOCK END ===

=== CODE BLOCK ADDRESS 0x1a6f ===
  0x1a6f	mov    	esp, ecx
  0x1a71	mov    	dword ptr [ebp - 0x7c], 0x1e
  0x1a78	inc    	ebp
  0x1a79	xor    	ecx, ecx
  0x1a7b	inc    	eax
  === BLOCK LINK ===
    0x1a7c
=== CODE BLOCK END ===

=== CODE BLOCK ADDRESS 0x1a7c ===
  0x1a7c	mov    	byte ptr [esp + 0x60], bh
  0x1a80	lea    	esi, [edi + 1]
  0x1a83	inc    	eax
  0x1a84	mov    	byte ptr [esp + 0x61], bh
  0x1a88	mov    	edx, esi
  === BLOCK LINK ===
    0x1a8a
=== CODE BLOCK END ===

=== CODE BLOCK ADDRESS 0x1a8a ===
  0x1a8a	mov    	dword ptr [esp + 0x64], edi
  0x1a8e	inc    	ebp
  0x1a8f	xor    	eax, eax
  0x1a91	xor    	ecx, ecx
  0x1a93	inc    	esp
  === BLOCK LINK ===
    0x1a94
=== CODE BLOCK END ===

=== CODE BLOCK ADDRESS 0x1a94 ===
  0x1a94	mov    	esi, edi
  0x1a96	dec    	eax
  0x1a97	call   	dword ptr [0x2753]
  === BLOCK LINK ===
    0x1a9d
=== CODE BLOCK END ===

=== CODE BLOCK ADDRESS 0x1a9d ===
  0x1a9d	nop    	dword ptr [eax + eax]
  0x1aa2	xor    	ecx, ecx
  0x1aa4	dec    	eax
  0x1aa5	call   	dword ptr [0x2785]
  === BLOCK LINK ===
    0x1aab
=== CODE BLOCK END ===

=== CODE BLOCK ADDRESS 0x1aab ===
  0x1aab	nop    	dword ptr [eax + eax]
  0x1ab0	mov    	ecx, esi
  0x1ab2	call   	0x33c8
  === BLOCK LINK ===
    0x1ab7
=== CODE BLOCK END ===

=== CODE BLOCK ADDRESS 0x1ab7 ===
  0x1ab7	dec    	eax
  0x1ab8	mov    	ecx, eax
  0x1aba	dec    	eax
  0x1abb	mov    	ebx, eax
  0x1abd	dec    	eax
  === BLOCK LINK ===
    0x1abe
=== CODE BLOCK END ===

=== CODE BLOCK ADDRESS 0x1abe ===
  0x1abe	call   	dword ptr [0x28e4]
  === BLOCK LINK ===
    0x1ac4
=== CODE BLOCK END ===

=== CODE BLOCK ADDRESS 0x1ac4 ===
  0x1ac4	nop    	dword ptr [eax + eax]
  0x1ac9	mov    	ecx, eax
  0x1acb	dec    	eax
  0x1acc	call   	dword ptr [0x28ae]
  === BLOCK LINK ===
    0x1ad2
=== CODE BLOCK END ===

=== CODE BLOCK ADDRESS 0x1ad2 ===
  0x1ad2	nop    	dword ptr [eax + eax]
  0x1ad7	dec    	eax
  0x1ad8	cmp    	eax, -1
  0x1adb	je     	0x1c18
  === BLOCK LINK ===
    0x1ae1
=== CODE BLOCK END ===

=== CODE BLOCK ADDRESS 0x1ae1 ===
  0x1ae1	dec    	eax
  0x1ae2	mov    	edx, eax
  0x1ae4	dec    	eax
  0x1ae5	lea    	ecx, [esp + 0x68]
  0x1ae9	call   	0x2718
  === BLOCK LINK ===
    0x1aee
=== CODE BLOCK END ===

=== CODE BLOCK ADDRESS 0x1aee ===
  0x1aee	test   	eax, eax
  0x1af0	jne    	0x1c18
  === BLOCK LINK ===
    0x1af6
=== CODE BLOCK END ===

=== CODE BLOCK ADDRESS 0x1af6 ===
  0x1af6	cmp    	dword ptr [esp + 0x68], edi
  0x1afa	jne    	0x1c18
  === BLOCK LINK ===
    0x1b00
=== CODE BLOCK END ===

=== CODE BLOCK ADDRESS 0x1b00 ===
  0x1b00	inc    	esp
  0x1b01	lea    	eax, [edi + 0x50]
  0x1b04	dec    	eax
  0x1b05	lea    	edx, [ebp + 0xf0]
  0x1b0b	dec    	eax
  === BLOCK LINK ===
    0x1b0c
=== CODE BLOCK END ===

=== CODE BLOCK ADDRESS 0x1b0c ===
  0x1b0c	lea    	ecx, [0x295e]
  0x1b12	dec    	eax
  0x1b13	call   	dword ptr [0x2727]
  === BLOCK LINK ===
    0x1b19
=== CODE BLOCK END ===

=== CODE BLOCK ADDRESS 0x1b19 ===
  0x1b19	nop    	dword ptr [eax + eax]
  0x1b1e	mov    	ecx, esi
  0x1b20	mov    	dword ptr [esp + 0x68], ecx
  0x1b24	test   	eax, eax
  0x1b26	je     	0x1b42
  === BLOCK LINK ===
    0x1b28
=== CODE BLOCK END ===

=== CODE BLOCK ADDRESS 0x1b28 ===
  0x1b28	inc    	esp
  0x1b29	mov    	eax, eax
  0x1b2b	dec    	eax
  0x1b2c	lea    	edx, [ebp + 0xf0]
  0x1b32	dec    	eax
  === BLOCK LINK ===
    0x1b33
=== CODE BLOCK END ===

=== CODE BLOCK ADDRESS 0x1b33 ===
  0x1b33	lea    	ecx, [esp + 0x68]
  0x1b37	call   	0x27c0
  === BLOCK LINK ===
    0x1b3c
=== CODE BLOCK END ===

=== CODE BLOCK ADDRESS 0x1b3c ===
  0x1b3c	mov    	ecx, dword ptr [esp + 0x68]
  0x1b40	jmp    	0x1b44
  === BLOCK LINK ===
    0x1b42
=== CODE BLOCK END ===

=== CODE BLOCK ADDRESS 0x1b42 ===
  0x1b42	mov    	eax, edi
  0x1b44	test   	eax, eax
  0x1b46	je     	0x1ba7
  === BLOCK LINK ===
    0x1b48
=== CODE BLOCK END ===

=== CODE BLOCK ADDRESS 0x1b48 ===
  0x1b48	dec    	eax
  0x1b49	lea    	edx, [ebp - 0x78]
  0x1b4c	dec    	eax
  0x1b4d	mov    	ecx, ebx
  0x1b4f	dec    	eax
  === BLOCK LINK ===
    0x1b50
=== CODE BLOCK END ===

=== CODE BLOCK ADDRESS 0x1b50 ===
  0x1b50	call   	dword ptr [0x27ca]
  === BLOCK LINK ===
    0x1b56
=== CODE BLOCK END ===

=== CODE BLOCK ADDRESS 0x1b56 ===
  0x1b56	nop    	dword ptr [eax + eax]
  0x1b5b	test   	eax, eax
  0x1b5d	jne    	0x1c18
  === BLOCK LINK ===
    0x1b63
=== CODE BLOCK END ===

=== CODE BLOCK ADDRESS 0x1b63 ===
  0x1b63	dec    	eax
  0x1b64	cmp    	dword ptr [ebp - 0x78], edi
  0x1b67	jne    	0x1c18
  === BLOCK LINK ===
    0x1b6d
=== CODE BLOCK END ===

=== CODE BLOCK ADDRESS 0x1b6d ===
  0x1b6d	dec    	eax
  0x1b6e	mov    	ecx, ebx
  0x1b70	dec    	eax
  0x1b71	call   	dword ptr [0x2831]
  === BLOCK LINK ===
    0x1b77
=== CODE BLOCK END ===

=== CODE BLOCK ADDRESS 0x1b77 ===
  0x1b77	nop    	dword ptr [eax + eax]
  0x1b7c	mov    	ecx, eax
  0x1b7e	mov    	edx, 0x20000
  0x1b83	dec    	eax
  0x1b84	call   	dword ptr [0x280e]
  === BLOCK LINK ===
    0x1b8a
=== CODE BLOCK END ===

=== CODE BLOCK ADDRESS 0x1b8a ===
  0x1b8a	nop    	dword ptr [eax + eax]
  0x1b8f	dec    	eax
  0x1b90	lea    	edx, [0x2936]
  0x1b96	dec    	eax
  0x1b97	mov    	ecx, ebx
  === BLOCK LINK ===
    0x1b99
=== CODE BLOCK END ===

=== CODE BLOCK ADDRESS 0x1b99 ===
  0x1b99	dec    	eax
  0x1b9a	call   	dword ptr [0x27b8]
  === BLOCK LINK ===
    0x1ba0
=== CODE BLOCK END ===

=== CODE BLOCK ADDRESS 0x1ba0 ===
  0x1ba0	nop    	dword ptr [eax + eax]
  0x1ba5	jmp    	0x1c18
  === BLOCK LINK ===
    0x1ba7
=== CODE BLOCK END ===

=== CODE BLOCK ADDRESS 0x1ba7 ===
  0x1ba7	cmp    	ecx, 0xfde9
  0x1bad	jne    	0x1c18
  === BLOCK LINK ===
    0x1baf
=== CODE BLOCK END ===

=== CODE BLOCK ADDRESS 0x1baf ===
  0x1baf	dec    	eax
  0x1bb0	lea    	edx, [ebp - 0x78]
  0x1bb3	dec    	eax
  0x1bb4	mov    	ecx, ebx
  0x1bb6	dec    	eax
  === BLOCK LINK ===
    0x1bb7
=== CODE BLOCK END ===

=== CODE BLOCK ADDRESS 0x1bb7 ===
  0x1bb7	call   	dword ptr [0x2763]
  === BLOCK LINK ===
    0x1bbd
=== CODE BLOCK END ===

=== CODE BLOCK ADDRESS 0x1bbd ===
  0x1bbd	nop    	dword ptr [eax + eax]
  0x1bc2	test   	eax, eax
  0x1bc4	jne    	0x1c18
  === BLOCK LINK ===
    0x1bc6
=== CODE BLOCK END ===

=== CODE BLOCK ADDRESS 0x1bc6 ===
  0x1bc6	dec    	eax
  0x1bc7	cmp    	dword ptr [ebp - 0x78], edi
  0x1bca	jne    	0x1c18
  === BLOCK LINK ===
    0x1bcc
=== CODE BLOCK END ===

=== CODE BLOCK ADDRESS 0x1bcc ===
  0x1bcc	dec    	eax
  0x1bcd	mov    	ecx, ebx
  0x1bcf	dec    	eax
  0x1bd0	call   	dword ptr [0x27d2]
  === BLOCK LINK ===
    0x1bd6
=== CODE BLOCK END ===

=== CODE BLOCK ADDRESS 0x1bd6 ===
  0x1bd6	nop    	dword ptr [eax + eax]
  0x1bdb	mov    	ecx, eax
  0x1bdd	mov    	edx, 0x8000
  0x1be2	dec    	eax
  0x1be3	call   	dword ptr [0x27af]
  === BLOCK LINK ===
    0x1be9
=== CODE BLOCK END ===

=== CODE BLOCK ADDRESS 0x1be9 ===
  0x1be9	nop    	dword ptr [eax + eax]
  0x1bee	dec    	eax
  0x1bef	mov    	ecx, ebx
  0x1bf1	dec    	eax
  0x1bf2	call   	dword ptr [0x27b0]
  === BLOCK LINK ===
    0x1bf8
=== CODE BLOCK END ===

=== CODE BLOCK ADDRESS 0x1bf8 ===
  0x1bf8	nop    	dword ptr [eax + eax]
  0x1bfd	inc    	ecx
  0x1bfe	mov    	eax, 3
  0x1c03	dec    	eax
  0x1c04	lea    	edx, [0x28c6]
  === BLOCK LINK ===
    0x1c0a
=== CODE BLOCK END ===

=== CODE BLOCK ADDRESS 0x1c0a ===
  0x1c0a	mov    	ecx, eax
  0x1c0c	dec    	eax
  0x1c0d	call   	dword ptr [0x278d]
  === BLOCK LINK ===
    0x1c13
=== CODE BLOCK END ===

=== CODE BLOCK ADDRESS 0x1c13 ===
  0x1c13	nop    	dword ptr [eax + eax]
  0x1c18	mov    	ecx, 0x101
  0x1c1d	dec    	eax
  0x1c1e	lea    	edx, [0x4bfc]
  0x1c24	dec    	eax
  === BLOCK LINK ===
    0x1c25
=== CODE BLOCK END ===

=== CODE BLOCK ADDRESS 0x1c25 ===
  0x1c25	call   	dword ptr [0x2545]
  === BLOCK LINK ===
    0x1c2b
=== CODE BLOCK END ===

=== CODE BLOCK ADDRESS 0x1c2b ===
  0x1c2b	nop    	dword ptr [eax + eax]
  0x1c30	mov    	ebx, eax
  0x1c32	test   	eax, eax
  0x1c34	je     	0x1c54
  === BLOCK LINK ===
    0x1c36
=== CODE BLOCK END ===

=== CODE BLOCK ADDRESS 0x1c36 ===
  0x1c36	mov    	ecx, esi
  0x1c38	call   	0x33c8
  === BLOCK LINK ===
    0x1c3d
=== CODE BLOCK END ===

=== CODE BLOCK ADDRESS 0x1c3d ===
  0x1c3d	dec    	eax
  0x1c3e	mov    	ecx, eax
  0x1c40	inc    	esp
  0x1c41	mov    	eax, ebx
  0x1c43	mov    	edx, 0x2732
  === BLOCK LINK ===
    0x1c48
=== CODE BLOCK END ===

=== CODE BLOCK ADDRESS 0x1c48 ===
  0x1c48	call   	0x2af4
  === BLOCK LINK ===
    0x1c4d
=== CODE BLOCK END ===

=== CODE BLOCK ADDRESS 0x1c4d ===
  0x1c4d	mov    	eax, esi
  0x1c4f	jmp    	0x26e6
  === BLOCK LINK ===
    0x1c54
=== CODE BLOCK END ===

=== CODE BLOCK ADDRESS 0x1c54 ===
  0x1c54	mov    	ebx, 0x80
  0x1c59	dec    	eax
  0x1c5a	lea    	ecx, [ebp - 0x50]
  0x1c5d	inc    	esp
  0x1c5e	mov    	eax, ebx
  === BLOCK LINK ===
    0x1c60
=== CODE BLOCK END ===

=== CODE BLOCK ADDRESS 0x1c60 ===
  0x1c60	xor    	edx, edx
  0x1c62	call   	0x3492
  === BLOCK LINK ===
    0x1c67
=== CODE BLOCK END ===

=== CODE BLOCK ADDRESS 0x1c67 ===
  0x1c67	lea    	edx, [ebx - 0x7e]
  0x1c6a	mov    	dword ptr [esp + 0x68], ebx
  0x1c6e	mov    	dword ptr [esp + 0x70], esi
  0x1c72	dec    	eax
  0x1c73	lea    	eax, [ebp + 0x30]
  === BLOCK LINK ===
    0x1c76
=== CODE BLOCK END ===

=== CODE BLOCK ADDRESS 0x1c76 ===
  0x1c76	dec    	eax
  0x1c77	mov    	dword ptr [esp + 0x78], eax
  0x1c7b	inc    	esp
  0x1c7c	cmp    	esp, edx
  0x1c7e	jge    	0x1c9d
  === BLOCK LINK ===
    0x1c80
=== CODE BLOCK END ===

=== CODE BLOCK ADDRESS 0x1c80 ===
  0x1c80	mov    	ecx, esi
  0x1c82	call   	0x33c8
  === BLOCK LINK ===
    0x1c87
=== CODE BLOCK END ===

=== CODE BLOCK ADDRESS 0x1c87 ===
  0x1c87	dec    	ebp
  0x1c88	mov    	eax, dword ptr [ebp]
  0x1c8b	mov    	edx, 0x2713
  0x1c90	dec    	eax
  0x1c91	mov    	ecx, eax
  === BLOCK LINK ===
    0x1c93
=== CODE BLOCK END ===

=== CODE BLOCK ADDRESS 0x1c93 ===
  0x1c93	call   	0x2af4
  === BLOCK LINK ===
    0x1c98
=== CODE BLOCK END ===

=== CODE BLOCK ADDRESS 0x1c98 ===
  0x1c98	jmp    	0x22ff
  === BLOCK LINK ===
    0x1c9d
=== CODE BLOCK END ===

=== CODE BLOCK ADDRESS 0x1c9d ===
  0x1c9d	mov    	ebx, esi
  0x1c9f	dec    	esp
  0x1ca0	arpl   	bx, di
  0x1ca2	mov    	ecx, 0xfffd
  0x1ca7	inc    	ecx
  === BLOCK LINK ===
    0x1ca8
=== CODE BLOCK END ===

=== CODE BLOCK ADDRESS 0x1ca8 ===
  0x1ca8	mov    	ecx, 0x17
  0x1cad	dec    	ebx
  0x1cae	mov    	esi, dword ptr [ebp + edi*8]
  0x1cb2	dec    	eax
  0x1cb3	mov    	dword ptr [ebp - 0x68], esi
  === BLOCK LINK ===
    0x1cb6
=== CODE BLOCK END ===

=== CODE BLOCK ADDRESS 0x1cb6 ===
  0x1cb6	movzx  	eax, word ptr [esi]
  0x1cb9	sub    	ax, 0x2d
  0x1cbd	test   	cx, ax
  0x1cc0	je     	0x1d0f
  === BLOCK LINK ===
    0x1cc2
=== CODE BLOCK END ===

=== CODE BLOCK ADDRESS 0x1cc2 ===
  0x1cc2	mov    	al, byte ptr [0x43f8]
  0x1cc8	dec    	esp
  0x1cc9	lea    	ecx, [esp + 0x68]
  0x1ccd	mov    	byte ptr [esp + 0x30], al
  0x1cd1	dec    	esp
  === BLOCK LINK ===
    0x1cd2
=== CODE BLOCK END ===

=== CODE BLOCK ADDRESS 0x1cd2 ===
  0x1cd2	lea    	eax, [ebp - 0x50]
  0x1cd5	dec    	eax
  0x1cd6	lea    	eax, [ebp + 0x900]
  0x1cdc	mov    	byte ptr [esp + 0x61], 1
  0x1ce1	dec    	eax
  === BLOCK LINK ===
    0x1ce2
=== CODE BLOCK END ===

=== CODE BLOCK ADDRESS 0x1ce2 ===
  0x1ce2	mov    	edx, esi
  0x1ce4	dec    	eax
  0x1ce5	mov    	dword ptr [esp + 0x20], eax
  0x1ce9	inc    	ecx
  0x1cea	mov    	ecx, esi
  === BLOCK LINK ===
    0x1cec
=== CODE BLOCK END ===

=== CODE BLOCK ADDRESS 0x1cec ===
  0x1cec	call   	0x1270
  === BLOCK LINK ===
    0x1cf1
=== CODE BLOCK END ===

=== CODE BLOCK ADDRESS 0x1cf1 ===
  0x1cf1	test   	al, al
  0x1cf3	jne    	0x1f38
  === BLOCK LINK ===
    0x1cf9
=== CODE BLOCK END ===

=== CODE BLOCK ADDRESS 0x1cf9 ===
  0x1cf9	mov    	ecx, 1
  0x1cfe	call   	0x33c8
  === BLOCK LINK ===
    0x1d03
=== CODE BLOCK END ===

=== CODE BLOCK ADDRESS 0x1d03 ===
  0x1d03	dec    	edi
  0x1d04	mov    	eax, dword ptr [ebp + edi*8]
  0x1d08	mov    	edx, 0x2714
  0x1d0d	jmp    	0x1c90
  === BLOCK LINK ===
    0x1d0f
=== CODE BLOCK END ===

=== CODE BLOCK ADDRESS 0x1d0f ===
  0x1d0f	movzx  	ecx, word ptr [esi + 2]
  0x1d13	cmp    	ecx, 0x69
  0x1d16	ja     	0x1eec
  === BLOCK LINK ===
    0x1d1c
=== CODE BLOCK END ===

=== CODE BLOCK ADDRESS 0x1d1c ===
  0x1d1c	je     	0x1ec8
  === BLOCK LINK ===
    0x1d22
=== CODE BLOCK END ===

=== CODE BLOCK ADDRESS 0x1d22 ===
  0x1d22	sub    	ecx, 0x34
  0x1d25	je     	0x1eba
  === BLOCK LINK ===
    0x1d2b
=== CODE BLOCK END ===

=== CODE BLOCK ADDRESS 0x1d2b ===
  0x1d2b	sub    	ecx, edx
  0x1d2d	je     	0x1e8a
  === BLOCK LINK ===
    0x1d33
=== CODE BLOCK END ===

=== CODE BLOCK ADDRESS 0x1d33 ===
  0x1d33	sub    	ecx, 9
  0x1d36	je     	0x1f85
  === BLOCK LINK ===
    0x1d3c
=== CODE BLOCK END ===

=== CODE BLOCK ADDRESS 0x1d3c ===
  0x1d3c	sub    	ecx, 0x28
  0x1d3f	je     	0x1d73
  === BLOCK LINK ===
    0x1d41
=== CODE BLOCK END ===

=== CODE BLOCK ADDRESS 0x1d41 ===
  0x1d41	cmp    	ecx, 1
  0x1d44	jne    	0x1fa6
  === BLOCK LINK ===
    0x1d4a
=== CODE BLOCK END ===

=== CODE BLOCK ADDRESS 0x1d4a ===
  0x1d4a	dec    	eax
  0x1d4b	lea    	ecx, [ebp - 0x7c]
  0x1d4e	mov    	dword ptr [esp + 0x28], 0xff
  0x1d56	dec    	ecx
  0x1d57	mov    	edx, ebp
  === BLOCK LINK ===
    0x1d59
=== CODE BLOCK END ===

=== CODE BLOCK ADDRESS 0x1d59 ===
  0x1d59	inc    	ebp
  0x1d5a	mov    	eax, esp
  0x1d5c	inc    	esp
  0x1d5d	mov    	ecx, ebx
  0x1d5f	call   	0x11e0
  === BLOCK LINK ===
    0x1d64
=== CODE BLOCK END ===

=== CODE BLOCK ADDRESS 0x1d64 ===
  0x1d64	test   	al, al
  0x1d66	je     	0x22ff
  === BLOCK LINK ===
    0x1d6c
=== CODE BLOCK END ===

=== CODE BLOCK ADDRESS 0x1d6c ===
  0x1d6c	inc    	ebx
  0x1d6e	jmp    	0x1f38
  === BLOCK LINK ===
    0x1d73
=== CODE BLOCK END ===

=== CODE BLOCK ADDRESS 0x1d73 ===
  0x1d73	inc    	ebp
  0x1d74	test   	esi, esi
  0x1d76	je     	0x1d8c
  === BLOCK LINK ===
    0x1d78
=== CODE BLOCK END ===

=== CODE BLOCK ADDRESS 0x1d78 ===
  0x1d78	dec    	esp
  0x1d79	mov    	eax, esi
  0x1d7b	dec    	eax
  0x1d7c	lea    	ecx, [esp + 0x64]
  0x1d80	call   	0x19cc
  === BLOCK LINK ===
    0x1d85
=== CODE BLOCK END ===

=== CODE BLOCK ADDRESS 0x1d85 ===
  0x1d85	inc    	esp
  0x1d86	mov    	esi, dword ptr [esp + 0x64]
  0x1d8a	jmp    	0x1d95
  === BLOCK LINK ===
    0x1d8c
=== CODE BLOCK END ===

=== CODE BLOCK ADDRESS 0x1d8c ===
  0x1d8c	inc    	esp
  0x1d8d	mov    	esi, edx
  0x1d8f	mov    	dword ptr [esp + 0x64], edx
  0x1d93	mov    	al, 1
  0x1d95	test   	al, al
  === BLOCK LINK ===
    0x1d97
=== CODE BLOCK END ===

=== CODE BLOCK ADDRESS 0x1d97 ===
  0x1d97	je     	0x22ff
  === BLOCK LINK ===
    0x1d9d
=== CODE BLOCK END ===

=== CODE BLOCK ADDRESS 0x1d9d ===
  0x1d9d	inc    	esp
  0x1d9e	movzx  	eax, byte ptr [esp + 0x73]
  0x1da3	inc    	ecx
  0x1da4	lea    	eax, [eax + 7]
  0x1da7	cmp    	eax, 0x28
  === BLOCK LINK ===
    0x1daa
=== CODE BLOCK END ===

=== CODE BLOCK ADDRESS 0x1daa ===
  0x1daa	ja     	0x1f69
  === BLOCK LINK ===
    0x1db0
=== CODE BLOCK END ===

=== CODE BLOCK ADDRESS 0x1db0 ===
  0x1db0	dec    	eax
  0x1db1	mov    	esi, dword ptr [esp + 0x78]
  0x1db5	inc    	ebp
  0x1db6	mov    	esp, eax
  0x1db8	mov    	eax, dword ptr [ebp - 0x80]
  === BLOCK LINK ===
    0x1dbb
=== CODE BLOCK END ===

=== CODE BLOCK ADDRESS 0x1dbb ===
  0x1dbb	add    	eax, -2
  0x1dbe	dec    	eax
  0x1dbf	cwde   	
  0x1dc0	inc    	ecx
  0x1dc1	mov    	byte ptr [eax + esi], 0x83
  === BLOCK LINK ===
    0x1dc5
=== CODE BLOCK END ===

=== CODE BLOCK ADDRESS 0x1dc5 ===
  0x1dc5	inc    	dx
  0x1dc7	mov    	dword ptr [esi + eax + 1], 0x548a0403
  0x1dcf	and    	al, 0x73
  0x1dd1	add    	dl, 3
  0x1dd4	dec    	eax
  === BLOCK LINK ===
    0x1dd5
=== CODE BLOCK END ===

=== CODE BLOCK ADDRESS 0x1dd5 ===
  0x1dd5	mov    	dword ptr [ebp - 0x78], eax
  0x1dd8	mov    	byte ptr [esp + 0x73], dl
  0x1ddc	dec    	esp
  0x1ddd	cmp    	edi, eax
  0x1ddf	jge    	0x1e59
  === BLOCK LINK ===
    0x1de1
=== CODE BLOCK END ===

=== CODE BLOCK ADDRESS 0x1de1 ===
  0x1de1	dec    	ebp
  0x1de2	lea    	eax, [ebp + 8]
  0x1de5	dec    	edi
  0x1de6	lea    	eax, [eax + edi*8]
  0x1de9	dec    	ecx
  === BLOCK LINK ===
    0x1dea
=== CODE BLOCK END ===

=== CODE BLOCK ADDRESS 0x1dea ===
  0x1dea	mov    	ecx, dword ptr [eax]
  0x1dec	cmp    	word ptr [ecx], 0x2d
  0x1df0	je     	0x1e56
  === BLOCK LINK ===
    0x1df2
=== CODE BLOCK END ===

=== CODE BLOCK ADDRESS 0x1df2 ===
  0x1df2	movzx  	eax, dl
  0x1df5	add    	eax, 4
  0x1df8	cmp    	eax, 0x28
  0x1dfb	ja     	0x1f69
  === BLOCK LINK ===
    0x1e01
=== CODE BLOCK END ===

=== CODE BLOCK ADDRESS 0x1e01 ===
  0x1e01	dec    	ecx
  0x1e02	add    	eax, 8
  0x1e05	dec    	eax
  0x1e06	mov    	dword ptr [ebp - 0x68], ecx
  0x1e09	dec    	esp
  === BLOCK LINK ===
    0x1e0a
=== CODE BLOCK END ===

=== CODE BLOCK ADDRESS 0x1e0a ===
  0x1e0a	mov    	dword ptr [ebp - 0x58], eax
  0x1e0d	dec    	esp
  0x1e0e	lea    	ecx, [ebp - 0x70]
  0x1e11	dec    	esp
  0x1e12	lea    	eax, [ebp - 0x68]
  === BLOCK LINK ===
    0x1e15
=== CODE BLOCK END ===

=== CODE BLOCK ADDRESS 0x1e15 ===
  0x1e15	mov    	dl, 1
  0x1e17	inc    	ebx
  0x1e19	dec    	ecx
  0x1e1a	inc    	edi
  0x1e1c	dec    	eax
  === BLOCK LINK ===
    0x1e1d
=== CODE BLOCK END ===

=== CODE BLOCK ADDRESS 0x1e1d ===
  0x1e1d	call   	dword ptr [0x25a5]
  === BLOCK LINK ===
    0x1e23
=== CODE BLOCK END ===

=== CODE BLOCK ADDRESS 0x1e23 ===
  0x1e23	nop    	dword ptr [eax + eax]
  0x1e28	test   	eax, eax
  0x1e2a	jne    	0x1f51
  === BLOCK LINK ===
    0x1e30
=== CODE BLOCK END ===

=== CODE BLOCK ADDRESS 0x1e30 ===
  0x1e30	movzx  	ecx, byte ptr [esp + 0x73]
  0x1e35	mov    	eax, dword ptr [ebp - 0x70]
  0x1e38	dec    	esp
  0x1e39	mov    	eax, dword ptr [ebp - 0x58]
  0x1e3c	mov    	dword ptr [ecx + esi], eax
  === BLOCK LINK ===
    0x1e3f
=== CODE BLOCK END ===

=== CODE BLOCK ADDRESS 0x1e3f ===
  0x1e3f	inc    	edx
  0x1e40	add    	byte ptr [esi + 1], 4
  0x1e45	mov    	dl, byte ptr [esp + 0x73]
  0x1e49	add    	dl, 4
  0x1e4c	mov    	byte ptr [esp + 0x73], dl
  === BLOCK LINK ===
    0x1e50
=== CODE BLOCK END ===

=== CODE BLOCK ADDRESS 0x1e50 ===
  0x1e50	dec    	esp
  0x1e51	cmp    	edi, dword ptr [ebp - 0x78]
  0x1e54	jl     	0x1de9
  === BLOCK LINK ===
    0x1e56
=== CODE BLOCK END ===

=== CODE BLOCK ADDRESS 0x1e56 ===
  0x1e56	inc    	ebp
  0x1e57	mov    	al, ah
  0x1e59	movzx  	eax, dl
  0x1e5c	add    	eax, 4
  0x1e5f	cmp    	eax, 0x28
  === BLOCK LINK ===
    0x1e62
=== CODE BLOCK END ===

=== CODE BLOCK ADDRESS 0x1e62 ===
  0x1e62	ja     	0x1f69
  === BLOCK LINK ===
    0x1e68
=== CODE BLOCK END ===

=== CODE BLOCK ADDRESS 0x1e68 ===
  0x1e68	inc    	edx
  0x1e69	mov    	al, byte ptr [esi + 1]
  0x1e6d	inc    	ecx
  0x1e6e	lea    	ecx, [eax + eax]
  0x1e71	add    	al, 4
  === BLOCK LINK ===
    0x1e73
=== CODE BLOCK END ===

=== CODE BLOCK ADDRESS 0x1e73 ===
  0x1e73	inc    	edx
  0x1e74	mov    	byte ptr [esi + 1], al
  0x1e78	add    	byte ptr [esp + 0x73], 4
  0x1e7d	inc    	esp
  0x1e7e	mov    	esp, dword ptr [ebp - 0x80]
  === BLOCK LINK ===
    0x1e81
=== CODE BLOCK END ===

=== CODE BLOCK ADDRESS 0x1e81 ===
  0x1e81	mov    	byte ptr [esp + 0x60], cl
  0x1e85	jmp    	0x1f3c
  === BLOCK LINK ===
    0x1e8a
=== CODE BLOCK END ===

=== CODE BLOCK ADDRESS 0x1e8a ===
  0x1e8a	inc    	ebp
  0x1e8b	test   	esi, esi
  0x1e8d	je     	0x1ea6
  === BLOCK LINK ===
    0x1e8f
=== CODE BLOCK END ===

=== CODE BLOCK ADDRESS 0x1e8f ===
  0x1e8f	inc    	ecx
  0x1e90	mov    	edx, ecx
  0x1e92	dec    	esp
  0x1e93	mov    	eax, esi
  0x1e95	dec    	eax
  === BLOCK LINK ===
    0x1e96
=== CODE BLOCK END ===

=== CODE BLOCK ADDRESS 0x1e96 ===
  0x1e96	lea    	ecx, [esp + 0x64]
  0x1e9a	call   	0x19cc
  === BLOCK LINK ===
    0x1e9f
=== CODE BLOCK END ===

=== CODE BLOCK ADDRESS 0x1e9f ===
  0x1e9f	inc    	esp
  0x1ea0	mov    	esi, dword ptr [esp + 0x64]
  0x1ea4	jmp    	0x1eb0
  === BLOCK LINK ===
    0x1ea6
=== CODE BLOCK END ===

=== CODE BLOCK ADDRESS 0x1ea6 ===
  0x1ea6	inc    	ebp
  0x1ea7	mov    	esi, ecx
  0x1ea9	inc    	esp
  0x1eaa	mov    	dword ptr [esp + 0x64], ecx
  0x1eae	mov    	al, 1
  === BLOCK LINK ===
    0x1eb0
=== CODE BLOCK END ===

=== CODE BLOCK ADDRESS 0x1eb0 ===
  0x1eb0	test   	al, al
  0x1eb2	je     	0x22ff
  === BLOCK LINK ===
    0x1eb8
=== CODE BLOCK END ===

=== CODE BLOCK ADDRESS 0x1eb8 ===
  0x1eb8	jmp    	0x1f38
  === BLOCK LINK ===
    0x1eba
=== CODE BLOCK END ===

=== CODE BLOCK ADDRESS 0x1eba ===
  0x1eba	inc    	ebp
  0x1ebb	test   	esi, esi
  0x1ebd	jne    	0x1e92
  === BLOCK LINK ===
    0x1ebf
=== CODE BLOCK END ===

=== CODE BLOCK ADDRESS 0x1ebf ===
  0x1ebf	inc    	esp
  0x1ec0	mov    	esi, edx
  0x1ec2	mov    	dword ptr [esp + 0x64], edx
  0x1ec6	jmp    	0x1eae
  === BLOCK LINK ===
    0x1ec8
=== CODE BLOCK END ===

=== CODE BLOCK ADDRESS 0x1ec8 ===
  0x1ec8	inc    	ecx
  0x1ec9	lea    	eax, [esp - 1]
  0x1ecd	cmp    	ebx, eax
  0x1ecf	je     	0x1f8f
  === BLOCK LINK ===
    0x1ed5
=== CODE BLOCK END ===

=== CODE BLOCK ADDRESS 0x1ed5 ===
  0x1ed5	inc    	ebx
  0x1ed7	mov    	byte ptr [0x47ba], 1
  0x1ede	dec    	eax
  0x1edf	arpl   	bx, ax
  0x1ee1	dec    	ecx
  === BLOCK LINK ===
    0x1ee2
=== CODE BLOCK END ===

=== CODE BLOCK ADDRESS 0x1ee2 ===
  0x1ee2	mov    	eax, dword ptr [ebp + eax*8]
  0x1ee6	dec    	eax
  0x1ee7	mov    	dword ptr [ebp - 0x60], eax
  0x1eea	jmp    	0x1f38
  === BLOCK LINK ===
    0x1eec
=== CODE BLOCK END ===

=== CODE BLOCK ADDRESS 0x1eec ===
  0x1eec	sub    	ecx, 0x6e
  0x1eef	je     	0x1f31
  === BLOCK LINK ===
    0x1ef1
=== CODE BLOCK END ===

=== CODE BLOCK ADDRESS 0x1ef1 ===
  0x1ef1	sub    	ecx, edx
  0x1ef3	je     	0x1f20
  === BLOCK LINK ===
    0x1ef5
=== CODE BLOCK END ===

=== CODE BLOCK ADDRESS 0x1ef5 ===
  0x1ef5	sub    	ecx, 1
  0x1ef8	je     	0x1f14
  === BLOCK LINK ===
    0x1efa
=== CODE BLOCK END ===

=== CODE BLOCK ADDRESS 0x1efa ===
  0x1efa	cmp    	ecx, 6
  0x1efd	jne    	0x1fa6
  === BLOCK LINK ===
    0x1f03
=== CODE BLOCK END ===

=== CODE BLOCK ADDRESS 0x1f03 ===
  0x1f03	or     	dword ptr [esp + 0x28], 0xffffffff
  0x1f08	dec    	eax
  0x1f09	lea    	ecx, [0x41bd]
  0x1f0f	jmp    	0x1d56
  === BLOCK LINK ===
    0x1f14
=== CODE BLOCK END ===

=== CODE BLOCK ADDRESS 0x1f14 ===
  0x1f14	dec    	eax
  0x1f15	lea    	ecx, [0x41ad]
  0x1f1b	jmp    	0x1d4e
  === BLOCK LINK ===
    0x1f20
=== CODE BLOCK END ===

=== CODE BLOCK ADDRESS 0x1f20 ===
  0x1f20	or     	dword ptr [esp + 0x28], 0xffffffff
  0x1f25	dec    	eax
  0x1f26	lea    	ecx, [0x4198]
  0x1f2c	jmp    	0x1d56
  === BLOCK LINK ===
    0x1f31
=== CODE BLOCK END ===

=== CODE BLOCK ADDRESS 0x1f31 ===
  0x1f31	inc    	eax
  0x1f32	mov    	byte ptr [0x4188], bh
  0x1f38	mov    	cl, byte ptr [esp + 0x60]
  0x1f3c	inc    	ebx
  0x1f3e	inc    	ecx
  === BLOCK LINK ===
    0x1f3f
=== CODE BLOCK END ===

=== CODE BLOCK ADDRESS 0x1f3f ===
  0x1f3f	cmp    	ebx, esp
  0x1f41	jge    	0x1fd1
  === BLOCK LINK ===
    0x1f47
=== CODE BLOCK END ===

=== CODE BLOCK ADDRESS 0x1f47 ===
  0x1f47	mov    	edx, 2
  0x1f4c	jmp    	0x1c9f
  === BLOCK LINK ===
    0x1f51
=== CODE BLOCK END ===

=== CODE BLOCK ADDRESS 0x1f51 ===
  0x1f51	mov    	ecx, 1
  0x1f56	call   	0x33c8
  === BLOCK LINK ===
    0x1f5b
=== CODE BLOCK END ===

=== CODE BLOCK ADDRESS 0x1f5b ===
  0x1f5b	dec    	esp
  0x1f5c	mov    	eax, dword ptr [ebp - 0x68]
  0x1f5f	mov    	edx, 0x2736
  0x1f64	jmp    	0x1c90
  === BLOCK LINK ===
    0x1f69
=== CODE BLOCK END ===

=== CODE BLOCK ADDRESS 0x1f69 ===
  0x1f69	mov    	ecx, 1
  0x1f6e	call   	0x33c8
  === BLOCK LINK ===
    0x1f73
=== CODE BLOCK END ===

=== CODE BLOCK ADDRESS 0x1f73 ===
  0x1f73	mov    	edx, 0x2737
  0x1f78	dec    	eax
  0x1f79	mov    	ecx, eax
  0x1f7b	call   	0x2af4
  === BLOCK LINK ===
    0x1f80
=== CODE BLOCK END ===

=== CODE BLOCK ADDRESS 0x1f80 ===
  0x1f80	jmp    	0x22ff
  === BLOCK LINK ===
    0x1f85
=== CODE BLOCK END ===

=== CODE BLOCK ADDRESS 0x1f85 ===
  0x1f85	mov    	ecx, 1
  0x1f8a	jmp    	0x1c82
  === BLOCK LINK ===
    0x1f8f
=== CODE BLOCK END ===

=== CODE BLOCK ADDRESS 0x1f8f ===
  0x1f8f	mov    	ecx, 1
  0x1f94	call   	0x33c8
  === BLOCK LINK ===
    0x1f99
=== CODE BLOCK END ===

=== CODE BLOCK ADDRESS 0x1f99 ===
  0x1f99	dec    	esp
  0x1f9a	mov    	eax, esi
  0x1f9c	mov    	edx, 0x2734
  0x1fa1	jmp    	0x1c90
  === BLOCK LINK ===
    0x1fa6
=== CODE BLOCK END ===

=== CODE BLOCK ADDRESS 0x1fa6 ===
  0x1fa6	mov    	ecx, 1
  0x1fab	call   	0x33c8
  === BLOCK LINK ===
    0x1fb0
=== CODE BLOCK END ===

=== CODE BLOCK ADDRESS 0x1fb0 ===
  0x1fb0	dec    	eax
  0x1fb1	mov    	ecx, eax
  0x1fb3	dec    	esp
  0x1fb4	mov    	eax, esi
  0x1fb6	mov    	edx, 0x2738
  === BLOCK LINK ===
    0x1fbb
=== CODE BLOCK END ===

=== CODE BLOCK ADDRESS 0x1fbb ===
  0x1fbb	call   	0x2af4
  === BLOCK LINK ===
    0x1fc0
=== CODE BLOCK END ===

=== CODE BLOCK ADDRESS 0x1fc0 ===
  0x1fc0	mov    	ecx, 1
  0x1fc5	call   	0x33c8
  === BLOCK LINK ===
    0x1fca
=== CODE BLOCK END ===

=== CODE BLOCK ADDRESS 0x1fca ===
  0x1fca	mov    	edx, 0x2713
  0x1fcf	jmp    	0x1f78
  === BLOCK LINK ===
    0x1fd1
=== CODE BLOCK END ===

=== CODE BLOCK ADDRESS 0x1fd1 ===
  0x1fd1	inc    	eax
  0x1fd2	cmp    	byte ptr [esp + 0x61], bh
  0x1fd6	jne    	0x1ff1
  === BLOCK LINK ===
    0x1fd8
=== CODE BLOCK END ===

=== CODE BLOCK ADDRESS 0x1fd8 ===
  0x1fd8	mov    	ecx, 1
  0x1fdd	call   	0x33c8
  === BLOCK LINK ===
    0x1fe2
=== CODE BLOCK END ===

=== CODE BLOCK ADDRESS 0x1fe2 ===
  0x1fe2	dec    	eax
  0x1fe3	mov    	ecx, eax
  0x1fe5	mov    	edx, 0x2739
  0x1fea	call   	0x2af4
  === BLOCK LINK ===
    0x1fef
=== CODE BLOCK END ===

=== CODE BLOCK ADDRESS 0x1fef ===
  0x1fef	jmp    	0x1fc0
  === BLOCK LINK ===
    0x1ff1
=== CODE BLOCK END ===

=== CODE BLOCK ADDRESS 0x1ff1 ===
  0x1ff1	test   	cl, cl
  0x1ff3	je     	0x2003
  === BLOCK LINK ===
    0x1ff5
=== CODE BLOCK END ===

=== CODE BLOCK ADDRESS 0x1ff5 ===
  0x1ff5	mov    	eax, dword ptr [ebp - 0x4c]
  0x1ff8	movzx  	edx, cl
  0x1ffb	dec    	eax
  0x1ffc	mov    	ecx, dword ptr [esp + 0x78]
  0x2000	mov    	dword ptr [edx + ecx], eax
  === BLOCK LINK ===
    0x2003
=== CODE BLOCK END ===

=== CODE BLOCK ADDRESS 0x2003 ===
  0x2003	inc    	esp
  0x2004	movzx  	esp, word ptr [ebp - 0x50]
  0x2008	inc    	ecx
  0x2009	mov    	esi, 2
  0x200e	inc    	ebp
  === BLOCK LINK ===
    0x200f
=== CODE BLOCK END ===

=== CODE BLOCK ADDRESS 0x200f ===
  0x200f	cmp    	esp, esi
  0x2011	jne    	0x2021
  === BLOCK LINK ===
    0x2013
=== CODE BLOCK END ===

=== CODE BLOCK ADDRESS 0x2013 ===
  0x2013	dec    	eax
  0x2014	call   	dword ptr [0x2126]
  === BLOCK LINK ===
    0x201a
=== CODE BLOCK END ===

=== CODE BLOCK ADDRESS 0x201a ===
  0x201a	nop    	dword ptr [eax + eax]
  0x201f	jmp    	0x202d
  === BLOCK LINK ===
    0x2021
=== CODE BLOCK END ===

=== CODE BLOCK ADDRESS 0x2021 ===
  0x2021	dec    	eax
  0x2022	call   	dword ptr [0x2120]
  === BLOCK LINK ===
    0x2028
=== CODE BLOCK END ===

=== CODE BLOCK ADDRESS 0x2028 ===
  0x2028	nop    	dword ptr [eax + eax]
  0x202d	dec    	eax
  0x202e	mov    	dword ptr [0x466c], eax
  0x2034	dec    	eax
  0x2035	cmp    	eax, -1
  === BLOCK LINK ===
    0x2038
=== CODE BLOCK END ===

=== CODE BLOCK ADDRESS 0x2038 ===
  0x2038	jne    	0x2067
  === BLOCK LINK ===
    0x203a
=== CODE BLOCK END ===

=== CODE BLOCK ADDRESS 0x203a ===
  0x203a	dec    	eax
  0x203b	call   	dword ptr [0x218f]
  === BLOCK LINK ===
    0x2041
=== CODE BLOCK END ===

=== CODE BLOCK ADDRESS 0x2041 ===
  0x2041	nop    	dword ptr [eax + eax]
  0x2046	mov    	ecx, 1
  0x204b	mov    	ebx, eax
  0x204d	call   	0x33c8
  === BLOCK LINK ===
    0x2052
=== CODE BLOCK END ===

=== CODE BLOCK ADDRESS 0x2052 ===
  0x2052	dec    	eax
  0x2053	mov    	ecx, eax
  0x2055	inc    	esp
  0x2056	mov    	eax, ebx
  0x2058	mov    	edx, 0x2715
  === BLOCK LINK ===
    0x205d
=== CODE BLOCK END ===

=== CODE BLOCK ADDRESS 0x205d ===
  0x205d	call   	0x2af4
  === BLOCK LINK ===
    0x2062
=== CODE BLOCK END ===

=== CODE BLOCK ADDRESS 0x2062 ===
  0x2062	jmp    	0x22ff
  === BLOCK LINK ===
    0x2067
=== CODE BLOCK END ===

=== CODE BLOCK ADDRESS 0x2067 ===
  0x2067	mov    	edx, dword ptr [esp + 0x68]
  0x206b	dec    	esp
  0x206c	lea    	eax, [ebp + 0x60]
  0x206f	inc    	esp
  0x2070	mov    	dword ptr [esp + 0x30], esi
  === BLOCK LINK ===
    0x2074
=== CODE BLOCK END ===

=== CODE BLOCK ADDRESS 0x2074 ===
  0x2074	dec    	eax
  0x2075	lea    	ecx, [ebp - 0x50]
  0x2078	mov    	dword ptr [esp + 0x28], edi
  0x207c	inc    	ecx
  0x207d	mov    	ecx, 0x41
  === BLOCK LINK ===
    0x2082
=== CODE BLOCK END ===

=== CODE BLOCK ADDRESS 0x2082 ===
  0x2082	dec    	eax
  0x2083	mov    	dword ptr [esp + 0x20], edi
  0x2087	dec    	eax
  0x2088	call   	dword ptr [0x20f2]
  === BLOCK LINK ===
    0x208e
=== CODE BLOCK END ===

=== CODE BLOCK ADDRESS 0x208e ===
  0x208e	nop    	dword ptr [eax + eax]
  0x2093	mov    	ecx, 1
  0x2098	cmp    	word ptr [ebp + 0x900], di
  0x209f	je     	0x20c9
  === BLOCK LINK ===
    0x20a1
=== CODE BLOCK END ===

=== CODE BLOCK ADDRESS 0x20a1 ===
  0x20a1	call   	0x33c8
  === BLOCK LINK ===
    0x20a6
=== CODE BLOCK END ===

=== CODE BLOCK ADDRESS 0x20a6 ===
  0x20a6	inc    	esp
  0x20a7	mov    	edi, dword ptr [ebp - 0x7c]
  0x20aa	dec    	esp
  0x20ab	lea    	ecx, [ebp + 0x60]
  0x20ae	dec    	eax
  === BLOCK LINK ===
    0x20af
=== CODE BLOCK END ===

=== CODE BLOCK ADDRESS 0x20af ===
  0x20af	mov    	ecx, eax
  0x20b1	inc    	esp
  0x20b2	mov    	dword ptr [esp + 0x20], edi
  0x20b6	dec    	esp
  0x20b7	lea    	eax, [ebp + 0x900]
  === BLOCK LINK ===
    0x20bd
=== CODE BLOCK END ===

=== CODE BLOCK ADDRESS 0x20bd ===
  0x20bd	mov    	edx, 0x2716
  0x20c2	call   	0x2af4
  === BLOCK LINK ===
    0x20c7
=== CODE BLOCK END ===

=== CODE BLOCK ADDRESS 0x20c7 ===
  0x20c7	jmp    	0x20e6
  === BLOCK LINK ===
    0x20c9
=== CODE BLOCK END ===

=== CODE BLOCK ADDRESS 0x20c9 ===
  0x20c9	call   	0x33c8
  === BLOCK LINK ===
    0x20ce
=== CODE BLOCK END ===

=== CODE BLOCK ADDRESS 0x20ce ===
  0x20ce	inc    	esp
  0x20cf	mov    	edi, dword ptr [ebp - 0x7c]
  0x20d2	dec    	esp
  0x20d3	lea    	eax, [ebp + 0x60]
  0x20d6	dec    	eax
  === BLOCK LINK ===
    0x20d7
=== CODE BLOCK END ===

=== CODE BLOCK ADDRESS 0x20d7 ===
  0x20d7	mov    	ecx, eax
  0x20d9	inc    	ebp
  0x20da	mov    	ecx, edi
  0x20dc	mov    	edx, 0x2733
  0x20e1	call   	0x2af4
  === BLOCK LINK ===
    0x20e6
=== CODE BLOCK END ===

=== CODE BLOCK ADDRESS 0x20e6 ===
  0x20e6	inc    	eax
  0x20e7	cmp    	byte ptr [0x45ab], bh
  0x20ed	jne    	0x226d
  === BLOCK LINK ===
    0x20f3
=== CODE BLOCK END ===

=== CODE BLOCK ADDRESS 0x20f3 ===
  0x20f3	movzx  	ecx, word ptr [ebp - 0x50]
  0x20f7	inc    	ecx
  0x20f8	mov    	eax, 0x11
  0x20fd	inc    	ecx
  0x20fe	mov    	edx, esi
  === BLOCK LINK ===
    0x2100
=== CODE BLOCK END ===

=== CODE BLOCK ADDRESS 0x2100 ===
  0x2100	dec    	eax
  0x2101	call   	dword ptr [0x2091]
  === BLOCK LINK ===
    0x2107
=== CODE BLOCK END ===

=== CODE BLOCK ADDRESS 0x2107 ===
  0x2107	nop    	dword ptr [eax + eax]
  0x210c	dec    	eax
  0x210d	mov    	dword ptr [esp + 0x40], edi
  0x2111	dec    	eax
  0x2112	lea    	esi, [0x4598]
  === BLOCK LINK ===
    0x2118
=== CODE BLOCK END ===

=== CODE BLOCK ADDRESS 0x2118 ===
  0x2118	dec    	eax
  0x2119	mov    	ebx, eax
  0x211b	dec    	eax
  0x211c	mov    	dword ptr [esp + 0x38], edi
  0x2120	dec    	eax
  === BLOCK LINK ===
    0x2121
=== CODE BLOCK END ===

=== CODE BLOCK ADDRESS 0x2121 ===
  0x2121	lea    	eax, [ebp - 0x80]
  0x2124	inc    	ecx
  0x2125	mov    	ecx, 0x80
  0x212a	dec    	eax
  0x212b	mov    	dword ptr [esp + 0x30], eax
  === BLOCK LINK ===
    0x212f
=== CODE BLOCK END ===

=== CODE BLOCK ADDRESS 0x212f ===
  0x212f	dec    	esp
  0x2130	lea    	eax, [ebp - 0x50]
  0x2133	mov    	dword ptr [esp + 0x28], 0x80
  0x213b	mov    	edx, 0xc8000014
  0x2140	dec    	eax
  === BLOCK LINK ===
    0x2141
=== CODE BLOCK END ===

=== CODE BLOCK ADDRESS 0x2141 ===
  0x2141	mov    	ecx, ebx
  0x2143	dec    	eax
  0x2144	mov    	dword ptr [esp + 0x20], esi
  0x2148	dec    	eax
  0x2149	call   	dword ptr [0x2039]
  === BLOCK LINK ===
    0x214f
=== CODE BLOCK END ===

=== CODE BLOCK ADDRESS 0x214f ===
  0x214f	nop    	dword ptr [eax + eax]
  0x2154	mov    	ecx, dword ptr [ebp - 0x80]
  0x2157	mov    	dword ptr [0x4533], ecx
  0x215d	dec    	eax
  0x215e	mov    	ecx, ebx
  === BLOCK LINK ===
    0x2160
=== CODE BLOCK END ===

=== CODE BLOCK ADDRESS 0x2160 ===
  0x2160	dec    	eax
  0x2161	call   	dword ptr [0x2039]
  === BLOCK LINK ===
    0x2167
=== CODE BLOCK END ===

=== CODE BLOCK ADDRESS 0x2167 ===
  0x2167	nop    	dword ptr [eax + eax]
  0x216c	mov    	ecx, 1
  0x2171	call   	0x33c8
  === BLOCK LINK ===
    0x2176
=== CODE BLOCK END ===

=== CODE BLOCK ADDRESS 0x2176 ===
  0x2176	dec    	eax
  0x2177	mov    	ecx, eax
  0x2179	inc    	ebp
  0x217a	xor    	eax, eax
  0x217c	mov    	edx, 0x2717
  === BLOCK LINK ===
    0x2181
=== CODE BLOCK END ===

=== CODE BLOCK ADDRESS 0x2181 ===
  0x2181	call   	0x2af4
  === BLOCK LINK ===
    0x2186
=== CODE BLOCK END ===

=== CODE BLOCK ADDRESS 0x2186 ===
  0x2186	inc    	esp
  0x2187	mov    	al, byte ptr [0x3f33]
  0x218d	dec    	eax
  0x218e	mov    	ecx, esi
  0x2190	mov    	edx, dword ptr [0x44fa]
  === BLOCK LINK ===
    0x2196
=== CODE BLOCK END ===

=== CODE BLOCK ADDRESS 0x2196 ===
  0x2196	call   	0x1008
  === BLOCK LINK ===
    0x219b
=== CODE BLOCK END ===

=== CODE BLOCK ADDRESS 0x219b ===
  0x219b	mov    	ecx, 1
  0x21a0	call   	0x33c8
  === BLOCK LINK ===
    0x21a5
=== CODE BLOCK END ===

=== CODE BLOCK ADDRESS 0x21a5 ===
  0x21a5	dec    	eax
  0x21a6	mov    	ecx, eax
  0x21a8	mov    	edx, 0x273c
  0x21ad	call   	0x2af4
  === BLOCK LINK ===
    0x21b2
=== CODE BLOCK END ===

=== CODE BLOCK ADDRESS 0x21b2 ===
  0x21b2	movzx  	ecx, byte ptr [esp + 0x70]
  0x21b7	inc    	ecx
  0x21b8	cmp    	ecx, edi
  0x21ba	ja     	0x265a
  === BLOCK LINK ===
    0x21c0
=== CODE BLOCK END ===

=== CODE BLOCK ADDRESS 0x21c0 ===
  0x21c0	test   	cl, cl
  0x21c2	je     	0x265a
  === BLOCK LINK ===
    0x21c8
=== CODE BLOCK END ===

=== CODE BLOCK ADDRESS 0x21c8 ===
  0x21c8	movzx  	ebx, cl
  0x21cb	mov    	ecx, 1
  0x21d0	call   	0x33c8
  === BLOCK LINK ===
    0x21d5
=== CODE BLOCK END ===

=== CODE BLOCK ADDRESS 0x21d5 ===
  0x21d5	dec    	eax
  0x21d6	mov    	ecx, eax
  0x21d8	inc    	esp
  0x21d9	mov    	eax, ebx
  0x21db	mov    	edx, 0x2717
  === BLOCK LINK ===
    0x21e0
=== CODE BLOCK END ===

=== CODE BLOCK ADDRESS 0x21e0 ===
  0x21e0	call   	0x2af4
  === BLOCK LINK ===
    0x21e5
=== CODE BLOCK END ===

=== CODE BLOCK ADDRESS 0x21e5 ===
  0x21e5	inc    	esp
  0x21e6	mov    	ebp, edi
  0x21e8	mov    	eax, dword ptr [0x3ede]
  0x21ee	dec    	eax
  0x21ef	lea    	ebx, [0x45ab]
  === BLOCK LINK ===
    0x21f5
=== CODE BLOCK END ===

=== CODE BLOCK ADDRESS 0x21f5 ===
  0x21f5	dec    	eax
  0x21f6	mov    	ecx, dword ptr [0x44a4]
  0x21fc	inc    	ebp
  0x21fd	xor    	ecx, ecx
  0x21ff	inc    	ebp
  === BLOCK LINK ===
    0x2200
=== CODE BLOCK END ===

=== CODE BLOCK ADDRESS 0x2200 ===
  0x2200	xor    	eax, eax
  0x2202	xor    	edx, edx
  0x2204	inc    	ebp
  0x2205	cmp    	esp, esi
  0x2207	jne    	0x239b
  === BLOCK LINK ===
    0x220d
=== CODE BLOCK END ===

=== CODE BLOCK ADDRESS 0x220d ===
  0x220d	mov    	dword ptr [esp + 0x50], eax
  0x2211	dec    	eax
  0x2212	lea    	eax, [esp + 0x70]
  0x2216	mov    	dword ptr [esp + 0x48], 0x80
  0x221e	dec    	eax
  === BLOCK LINK ===
    0x221f
=== CODE BLOCK END ===

=== CODE BLOCK ADDRESS 0x221f ===
  0x221f	mov    	dword ptr [esp + 0x40], ebx
  0x2223	dec    	eax
  0x2224	mov    	dword ptr [esp + 0x38], eax
  0x2228	lea    	eax, [edx + 0x40]
  0x222b	mov    	word ptr [esp + 0x30], ax
  === BLOCK LINK ===
    0x2230
=== CODE BLOCK END ===

=== CODE BLOCK ADDRESS 0x2230 ===
  0x2230	dec    	eax
  0x2231	lea    	eax, [0x4529]
  0x2237	dec    	eax
  0x2238	mov    	dword ptr [esp + 0x28], eax
  0x223c	mov    	eax, dword ptr [ebp - 0x4c]
  === BLOCK LINK ===
    0x223f
=== CODE BLOCK END ===

=== CODE BLOCK ADDRESS 0x223f ===
  0x223f	mov    	dword ptr [esp + 0x20], eax
  0x2243	dec    	eax
  0x2244	call   	dword ptr [0x1ee6]
  === BLOCK LINK ===
    0x224a
=== CODE BLOCK END ===

=== CODE BLOCK ADDRESS 0x224a ===
  0x224a	nop    	dword ptr [eax + eax]
  0x224f	test   	eax, eax
  0x2251	jne    	0x2315
  === BLOCK LINK ===
    0x2257
=== CODE BLOCK END ===

=== CODE BLOCK ADDRESS 0x2257 ===
  0x2257	dec    	eax
  0x2258	call   	dword ptr [0x1f72]
  === BLOCK LINK ===
    0x225e
=== CODE BLOCK END ===

=== CODE BLOCK ADDRESS 0x225e ===
  0x225e	nop    	dword ptr [eax + eax]
  0x2263	mov    	ebx, eax
  0x2265	dec    	esp
  0x2266	mov    	esi, edi
  0x2268	jmp    	0x231e
  === BLOCK LINK ===
    0x226d
=== CODE BLOCK END ===

=== CODE BLOCK ADDRESS 0x226d ===
  0x226d	inc    	ebp
  0x226e	cmp    	esp, esi
  0x2270	jne    	0x2299
  === BLOCK LINK ===
    0x2272
=== CODE BLOCK END ===

=== CODE BLOCK ADDRESS 0x2272 ===
  0x2272	mov    	ecx, 1
  0x2277	call   	0x33c8
  === BLOCK LINK ===
    0x227c
=== CODE BLOCK END ===

=== CODE BLOCK ADDRESS 0x227c ===
  0x227c	dec    	eax
  0x227d	mov    	ecx, eax
  0x227f	dec    	esp
  0x2280	lea    	ecx, [0x21da]
  0x2286	dec    	esp
  === BLOCK LINK ===
    0x2287
=== CODE BLOCK END ===

=== CODE BLOCK ADDRESS 0x2287 ===
  0x2287	lea    	eax, [0x21df]
  0x228d	mov    	edx, 0x275c
  0x2292	call   	0x2af4
  === BLOCK LINK ===
    0x2297
=== CODE BLOCK END ===

=== CODE BLOCK ADDRESS 0x2297 ===
  0x2297	jmp    	0x22ec
  === BLOCK LINK ===
    0x2299
=== CODE BLOCK END ===

=== CODE BLOCK ADDRESS 0x2299 ===
  0x2299	dec    	eax
  0x229a	mov    	ebx, dword ptr [ebp - 0x60]
  0x229d	dec    	eax
  0x229e	lea    	eax, [ebp + 0xf0]
  0x22a4	dec    	eax
  === BLOCK LINK ===
    0x22a5
=== CODE BLOCK END ===

=== CODE BLOCK ADDRESS 0x22a5 ===
  0x22a5	lea    	esi, [0x4405]
  0x22ab	inc    	eax
  0x22ac	mov    	byte ptr [esp + 0x30], bh
  0x22b0	dec    	esp
  0x22b1	mov    	eax, esi
  === BLOCK LINK ===
    0x22b3
=== CODE BLOCK END ===

=== CODE BLOCK ADDRESS 0x22b3 ===
  0x22b3	dec    	eax
  0x22b4	mov    	dword ptr [esp + 0x20], eax
  0x22b8	dec    	eax
  0x22b9	mov    	edx, ebx
  0x22bb	dec    	esp
  === BLOCK LINK ===
    0x22bc
=== CODE BLOCK END ===

=== CODE BLOCK ADDRESS 0x22bc ===
  0x22bc	lea    	ecx, [0x43ce]
  0x22c2	inc    	ecx
  0x22c3	mov    	ecx, esp
  0x22c5	call   	0x1270
  === BLOCK LINK ===
    0x22ca
=== CODE BLOCK END ===

=== CODE BLOCK ADDRESS 0x22ca ===
  0x22ca	test   	al, al
  0x22cc	jne    	0x21b2
  === BLOCK LINK ===
    0x22d2
=== CODE BLOCK END ===

=== CODE BLOCK ADDRESS 0x22d2 ===
  0x22d2	mov    	ecx, 1
  0x22d7	call   	0x33c8
  === BLOCK LINK ===
    0x22dc
=== CODE BLOCK END ===

=== CODE BLOCK ADDRESS 0x22dc ===
  0x22dc	dec    	eax
  0x22dd	mov    	ecx, eax
  0x22df	dec    	esp
  0x22e0	mov    	eax, ebx
  0x22e2	mov    	edx, 0x271c
  === BLOCK LINK ===
    0x22e7
=== CODE BLOCK END ===

=== CODE BLOCK ADDRESS 0x22e7 ===
  0x22e7	call   	0x2af4
  === BLOCK LINK ===
    0x22ec
=== CODE BLOCK END ===

=== CODE BLOCK ADDRESS 0x22ec ===
  0x22ec	dec    	eax
  0x22ed	mov    	ecx, dword ptr [0x43ad]
  0x22f3	dec    	eax
  0x22f4	call   	dword ptr [0x1e56]
  === BLOCK LINK ===
    0x22fa
=== CODE BLOCK END ===

=== CODE BLOCK ADDRESS 0x22fa ===
  0x22fa	nop    	dword ptr [eax + eax]
  0x22ff	dec    	eax
  0x2300	call   	dword ptr [0x1e62]
  === BLOCK LINK ===
    0x2306
=== CODE BLOCK END ===

=== CODE BLOCK ADDRESS 0x2306 ===
  0x2306	nop    	dword ptr [eax + eax]
  0x230b	mov    	eax, 1
  0x2310	jmp    	0x26e6
  === BLOCK LINK ===
    0x2315
=== CODE BLOCK END ===

=== CODE BLOCK ADDRESS 0x2315 ===
  0x2315	dec    	esp
  0x2316	mov    	esi, ebx
  0x2318	mov    	ebx, dword ptr [0x4486]
  0x231e	movzx  	esi, byte ptr [esp + 0x70]
  0x2323	dec    	eax
  === BLOCK LINK ===
    0x2324
=== CODE BLOCK END ===

=== CODE BLOCK ADDRESS 0x2324 ===
  0x2324	lea    	eax, [0x4696]
  0x232a	dec    	eax
  0x232b	imul   	ecx, esi, 0x98
  0x2331	xor    	edx, edx
  0x2333	inc    	ecx
  === BLOCK LINK ===
    0x2334
=== CODE BLOCK END ===

=== CODE BLOCK ADDRESS 0x2334 ===
  0x2334	mov    	eax, 0x98
  0x2339	dec    	eax
  0x233a	add    	ecx, eax
  0x233c	call   	0x3492
  === BLOCK LINK ===
    0x2341
=== CODE BLOCK END ===

=== CODE BLOCK ADDRESS 0x2341 ===
  0x2341	test   	ebx, ebx
  0x2343	je     	0x2549
  === BLOCK LINK ===
    0x2349
=== CODE BLOCK END ===

=== CODE BLOCK ADDRESS 0x2349 ===
  0x2349	cmp    	ebx, 0x2b05
  0x234f	je     	0x2486
  === BLOCK LINK ===
    0x2355
=== CODE BLOCK END ===

=== CODE BLOCK ADDRESS 0x2355 ===
  0x2355	cmp    	ebx, 0x2b02
  0x235b	jne    	0x2379
  === BLOCK LINK ===
    0x235d
=== CODE BLOCK END ===

=== CODE BLOCK ADDRESS 0x235d ===
  0x235d	mov    	ecx, 1
  0x2362	call   	0x33c8
  === BLOCK LINK ===
    0x2367
=== CODE BLOCK END ===

=== CODE BLOCK ADDRESS 0x2367 ===
  0x2367	dec    	eax
  0x2368	mov    	ecx, eax
  0x236a	mov    	edx, 0x273b
  0x236f	call   	0x2af4
  === BLOCK LINK ===
    0x2374
=== CODE BLOCK END ===

=== CODE BLOCK ADDRESS 0x2374 ===
  0x2374	jmp    	0x246b
  === BLOCK LINK ===
    0x2379
=== CODE BLOCK END ===

=== CODE BLOCK ADDRESS 0x2379 ===
  0x2379	cmp    	ebx, 0x2af8
  0x237f	jb     	0x2451
  === BLOCK LINK ===
    0x2385
=== CODE BLOCK END ===

=== CODE BLOCK ADDRESS 0x2385 ===
  0x2385	dec    	ebp
  0x2386	test   	esi, esi
  0x2388	je     	0x25b6
  === BLOCK LINK ===
    0x238e
=== CODE BLOCK END ===

=== CODE BLOCK ADDRESS 0x238e ===
  0x238e	inc    	ecx
  0x238f	mov    	ecx, dword ptr [esi]
  0x2391	call   	0x1124
  === BLOCK LINK ===
    0x2396
=== CODE BLOCK END ===

=== CODE BLOCK ADDRESS 0x2396 ===
  0x2396	jmp    	0x259f
  === BLOCK LINK ===
    0x239b
=== CODE BLOCK END ===

=== CODE BLOCK ADDRESS 0x239b ===
  0x239b	mov    	dword ptr [esp + 0x58], eax
  0x239f	dec    	eax
  0x23a0	lea    	eax, [esp + 0x70]
  0x23a4	mov    	dword ptr [esp + 0x50], 0x80
  0x23ac	dec    	eax
  === BLOCK LINK ===
    0x23ad
=== CODE BLOCK END ===

=== CODE BLOCK ADDRESS 0x23ad ===
  0x23ad	mov    	dword ptr [esp + 0x48], ebx
  0x23b1	dec    	eax
  0x23b2	mov    	dword ptr [esp + 0x40], eax
  0x23b6	mov    	eax, 0x40
  0x23bb	mov    	word ptr [esp + 0x38], ax
  === BLOCK LINK ===
    0x23c0
=== CODE BLOCK END ===

=== CODE BLOCK ADDRESS 0x23c0 ===
  0x23c0	dec    	eax
  0x23c1	lea    	eax, [0x4399]
  0x23c7	dec    	eax
  0x23c8	mov    	dword ptr [esp + 0x30], eax
  0x23cc	dec    	eax
  === BLOCK LINK ===
    0x23cd
=== CODE BLOCK END ===

=== CODE BLOCK ADDRESS 0x23cd ===
  0x23cd	lea    	eax, [ebp - 0x50]
  0x23d0	dec    	eax
  0x23d1	mov    	dword ptr [esp + 0x28], eax
  0x23d5	dec    	eax
  0x23d6	mov    	dword ptr [esp + 0x20], esi
  === BLOCK LINK ===
    0x23da
=== CODE BLOCK END ===

=== CODE BLOCK ADDRESS 0x23da ===
  0x23da	dec    	eax
  0x23db	call   	dword ptr [0x1d57]
  === BLOCK LINK ===
    0x23e1
=== CODE BLOCK END ===

=== CODE BLOCK ADDRESS 0x23e1 ===
  0x23e1	nop    	dword ptr [eax + eax]
  0x23e6	test   	eax, eax
  0x23e8	jne    	0x23fd
  === BLOCK LINK ===
    0x23ea
=== CODE BLOCK END ===

=== CODE BLOCK ADDRESS 0x23ea ===
  0x23ea	dec    	eax
  0x23eb	call   	dword ptr [0x1ddf]
  === BLOCK LINK ===
    0x23f1
=== CODE BLOCK END ===

=== CODE BLOCK ADDRESS 0x23f1 ===
  0x23f1	nop    	dword ptr [eax + eax]
  0x23f6	mov    	ebx, eax
  0x23f8	dec    	esp
  0x23f9	mov    	esi, edi
  0x23fb	jmp    	0x2406
  === BLOCK LINK ===
    0x23fd
=== CODE BLOCK END ===

=== CODE BLOCK ADDRESS 0x23fd ===
  0x23fd	dec    	esp
  0x23fe	mov    	esi, ebx
  0x2400	mov    	ebx, dword ptr [0x43b6]
  0x2406	movzx  	esi, byte ptr [esp + 0x70]
  0x240b	dec    	eax
  === BLOCK LINK ===
    0x240c
=== CODE BLOCK END ===

=== CODE BLOCK ADDRESS 0x240c ===
  0x240c	lea    	eax, [0x45ae]
  0x2412	dec    	eax
  0x2413	imul   	ecx, esi, 0x98
  0x2419	xor    	edx, edx
  0x241b	inc    	ecx
  === BLOCK LINK ===
    0x241c
=== CODE BLOCK END ===

=== CODE BLOCK ADDRESS 0x241c ===
  0x241c	mov    	eax, 0x98
  0x2421	dec    	eax
  0x2422	add    	ecx, eax
  0x2424	call   	0x3492
  === BLOCK LINK ===
    0x2429
=== CODE BLOCK END ===

=== CODE BLOCK ADDRESS 0x2429 ===
  0x2429	test   	ebx, ebx
  0x242b	je     	0x2608
  === BLOCK LINK ===
    0x2431
=== CODE BLOCK END ===

=== CODE BLOCK ADDRESS 0x2431 ===
  0x2431	cmp    	ebx, 0x2b05
  0x2437	je     	0x24ae
  === BLOCK LINK ===
    0x2439
=== CODE BLOCK END ===

=== CODE BLOCK ADDRESS 0x2439 ===
  0x2439	cmp    	ebx, 0x2b02
  0x243f	je     	0x235d
  === BLOCK LINK ===
    0x2445
=== CODE BLOCK END ===

=== CODE BLOCK ADDRESS 0x2445 ===
  0x2445	cmp    	ebx, 0x2af8
  0x244b	jae    	0x2591
  === BLOCK LINK ===
    0x2451
=== CODE BLOCK END ===

=== CODE BLOCK ADDRESS 0x2451 ===
  0x2451	mov    	ecx, 1
  0x2456	call   	0x33c8
  === BLOCK LINK ===
    0x245b
=== CODE BLOCK END ===

=== CODE BLOCK ADDRESS 0x245b ===
  0x245b	inc    	esp
  0x245c	mov    	eax, ebx
  0x245e	mov    	edx, 0x271a
  0x2463	dec    	eax
  0x2464	mov    	ecx, eax
  === BLOCK LINK ===
    0x2466
=== CODE BLOCK END ===

=== CODE BLOCK ADDRESS 0x2466 ===
  0x2466	call   	0x2af4
  === BLOCK LINK ===
    0x246b
=== CODE BLOCK END ===

=== CODE BLOCK ADDRESS 0x246b ===
  0x246b	inc    	ecx
  0x246c	inc    	ebp
  0x246e	inc    	ecx
  0x246f	cmp    	ebp, 3
  0x2472	jge    	0x24a7
  === BLOCK LINK ===
    0x2474
=== CODE BLOCK END ===

=== CODE BLOCK ADDRESS 0x2474 ===
  0x2474	dec    	eax
  0x2475	lea    	esi, [0x4235]
  0x247b	inc    	ecx
  0x247c	mov    	esi, 2
  0x2481	jmp    	0x21e8
  === BLOCK LINK ===
    0x2486
=== CODE BLOCK END ===

=== CODE BLOCK ADDRESS 0x2486 ===
  0x2486	dec    	eax
  0x2487	imul   	ecx, esi, 0x98
  0x248d	dec    	eax
  0x248e	lea    	ebx, [0x452c]
  0x2494	mov    	eax, 2
  === BLOCK LINK ===
    0x2499
=== CODE BLOCK END ===

=== CODE BLOCK ADDRESS 0x2499 ===
  0x2499	mov    	word ptr [ecx + ebx + 8], ax
  0x249e	inc    	ecx
  0x249f	mov    	eax, dword ptr [esi]
  0x24a1	mov    	dword ptr [ecx + ebx + 0xc], eax
  0x24a5	jmp    	0x24d9
  === BLOCK LINK ===
    0x24a7
=== CODE BLOCK END ===

=== CODE BLOCK ADDRESS 0x24a7 ===
  0x24a7	inc    	eax
  0x24a8	mov    	dh, byte ptr [esp + 0x70]
  0x24ac	jmp    	0x24d9
  === BLOCK LINK ===
    0x24ae
=== CODE BLOCK END ===

=== CODE BLOCK ADDRESS 0x24ae ===
  0x24ae	inc    	ecx
  0x24af	movups  	xmm0, xmmword ptr [esi + 6]
  0x24b3	dec    	eax
  0x24b4	lea    	ebx, [0x4506]
  0x24ba	mov    	eax, 0x17
  === BLOCK LINK ===
    0x24bf
=== CODE BLOCK END ===

=== CODE BLOCK ADDRESS 0x24bf ===
  0x24bf	dec    	eax
  0x24c0	imul   	ecx, esi, 0x98
  0x24c6	mov    	word ptr [ecx + ebx + 8], ax
  0x24cb	inc    	ecx
  0x24cc	mov    	eax, dword ptr [esi + 0x16]
  === BLOCK LINK ===
    0x24cf
=== CODE BLOCK END ===

=== CODE BLOCK ADDRESS 0x24cf ===
  0x24cf	movdqu  	xmmword ptr [ecx + ebx + 0x10], xmm0
  0x24d5	mov    	dword ptr [ecx + ebx + 0x20], eax
  0x24d9	inc    	ecx
  0x24da	cmp    	ebp, 3
  0x24dd	je     	0x25fd
  === BLOCK LINK ===
    0x24e3
=== CODE BLOCK END ===

=== CODE BLOCK ADDRESS 0x24e3 ===
  0x24e3	inc    	esp
  0x24e4	mov    	al, byte ptr [0x3bd6]
  0x24ea	mov    	edx, dword ptr [0x41a0]
  0x24f0	inc    	eax
  0x24f1	movzx  	eax, dh
  === BLOCK LINK ===
    0x24f4
=== CODE BLOCK END ===

=== CODE BLOCK ADDRESS 0x24f4 ===
  0x24f4	dec    	eax
  0x24f5	imul   	ecx, eax, 0x98
  0x24fb	dec    	eax
  0x24fc	lea    	eax, [0x44c6]
  0x2502	dec    	eax
  === BLOCK LINK ===
    0x2503
=== CODE BLOCK END ===

=== CODE BLOCK ADDRESS 0x2503 ===
  0x2503	add    	ecx, eax
  0x2505	call   	0x1008
  === BLOCK LINK ===
    0x250a
=== CODE BLOCK END ===

=== CODE BLOCK ADDRESS 0x250a ===
  0x250a	mov    	ecx, 1
  0x250f	call   	0x33c8
  === BLOCK LINK ===
    0x2514
=== CODE BLOCK END ===

=== CODE BLOCK ADDRESS 0x2514 ===
  0x2514	dec    	eax
  0x2515	mov    	ecx, eax
  0x2517	mov    	edx, 0x273c
  0x251c	call   	0x2af4
  === BLOCK LINK ===
    0x2521
=== CODE BLOCK END ===

=== CODE BLOCK ADDRESS 0x2521 ===
  0x2521	mov    	cl, byte ptr [esp + 0x70]
  0x2525	inc    	cl
  0x2527	movzx  	eax, cl
  0x252a	mov    	byte ptr [esp + 0x70], cl
  0x252e	inc    	ecx
  === BLOCK LINK ===
    0x252f
=== CODE BLOCK END ===

=== CODE BLOCK ADDRESS 0x252f ===
  0x252f	cmp    	eax, edi
  0x2531	ja     	0x265a
  === BLOCK LINK ===
    0x2537
=== CODE BLOCK END ===

=== CODE BLOCK ADDRESS 0x2537 ===
  0x2537	dec    	eax
  0x2538	lea    	esi, [0x4172]
  0x253e	inc    	ecx
  0x253f	mov    	esi, 2
  0x2544	jmp    	0x21c0
  === BLOCK LINK ===
    0x2549
=== CODE BLOCK END ===

=== CODE BLOCK ADDRESS 0x2549 ===
  0x2549	inc    	ecx
  0x254a	mov    	ecx, dword ptr [esi]
  0x254c	call   	0x1124
  === BLOCK LINK ===
    0x2551
=== CODE BLOCK END ===

=== CODE BLOCK ADDRESS 0x2551 ===
  0x2551	mov    	ecx, 1
  0x2556	call   	0x33c8
  === BLOCK LINK ===
    0x255b
=== CODE BLOCK END ===

=== CODE BLOCK ADDRESS 0x255b ===
  0x255b	dec    	eax
  0x255c	mov    	ecx, eax
  0x255e	mov    	edx, 0x273c
  0x2563	call   	0x2af4
  === BLOCK LINK ===
    0x2568
=== CODE BLOCK END ===

=== CODE BLOCK ADDRESS 0x2568 ===
  0x2568	movzx  	esi, byte ptr [esp + 0x70]
  0x256d	dec    	eax
  0x256e	lea    	edx, [0x444c]
  0x2574	dec    	eax
  0x2575	imul   	ecx, esi, 0x98
  === BLOCK LINK ===
    0x257b
=== CODE BLOCK END ===

=== CODE BLOCK ADDRESS 0x257b ===
  0x257b	mov    	eax, 2
  0x2580	mov    	word ptr [ecx + edx + 8], ax
  0x2585	inc    	ecx
  0x2586	mov    	eax, dword ptr [esi]
  0x2588	mov    	dword ptr [ecx + edx + 0xc], eax
  === BLOCK LINK ===
    0x258c
=== CODE BLOCK END ===

=== CODE BLOCK ADDRESS 0x258c ===
  0x258c	jmp    	0x2662
  === BLOCK LINK ===
    0x2591
=== CODE BLOCK END ===

=== CODE BLOCK ADDRESS 0x2591 ===
  0x2591	dec    	ebp
  0x2592	test   	esi, esi
  0x2594	je     	0x25b6
  === BLOCK LINK ===
    0x2596
=== CODE BLOCK END ===

=== CODE BLOCK ADDRESS 0x2596 ===
  0x2596	dec    	ecx
  0x2597	lea    	ecx, [esi + 6]
  0x259a	call   	0x117c
  === BLOCK LINK ===
    0x259f
=== CODE BLOCK END ===

=== CODE BLOCK ADDRESS 0x259f ===
  0x259f	mov    	ecx, 1
  0x25a4	call   	0x33c8
  === BLOCK LINK ===
    0x25a9
=== CODE BLOCK END ===

=== CODE BLOCK ADDRESS 0x25a9 ===
  0x25a9	mov    	edx, 0x2719
  0x25ae	dec    	eax
  0x25af	mov    	ecx, eax
  0x25b1	call   	0x2af4
  === BLOCK LINK ===
    0x25b6
=== CODE BLOCK END ===

=== CODE BLOCK ADDRESS 0x25b6 ===
  0x25b6	mov    	eax, dword ptr [0x3a64]
  0x25bc	dec    	eax
  0x25bd	lea    	esi, [0x3a5d]
  0x25c3	cmp    	eax, ebx
  0x25c5	je     	0x25dd
  === BLOCK LINK ===
    0x25c7
=== CODE BLOCK END ===

=== CODE BLOCK ADDRESS 0x25c7 ===
  0x25c7	dec    	eax
  0x25c8	mov    	ecx, edi
  0x25ca	cmp    	eax, 0x2b2a
  0x25cf	je     	0x25dd
  === BLOCK LINK ===
    0x25d1
=== CODE BLOCK END ===

=== CODE BLOCK ADDRESS 0x25d1 ===
  0x25d1	dec    	eax
  0x25d2	inc    	ecx
  0x25d4	inc    	edi
  0x25d6	mov    	eax, dword ptr [esi + ecx*8]
  0x25d9	cmp    	eax, ebx
  === BLOCK LINK ===
    0x25db
=== CODE BLOCK END ===

=== CODE BLOCK ADDRESS 0x25db ===
  0x25db	jne    	0x25ca
  === BLOCK LINK ===
    0x25dd
=== CODE BLOCK END ===

=== CODE BLOCK ADDRESS 0x25dd ===
  0x25dd	mov    	ecx, 1
  0x25e2	dec    	eax
  0x25e3	arpl   	di, bx
  0x25e5	call   	0x33c8
  === BLOCK LINK ===
    0x25ea
=== CODE BLOCK END ===

=== CODE BLOCK ADDRESS 0x25ea ===
  0x25ea	mov    	edx, dword ptr [esi + ebx*8 + 4]
  0x25ee	dec    	eax
  0x25ef	mov    	ecx, eax
  0x25f1	call   	0x2af4
  === BLOCK LINK ===
    0x25f6
=== CODE BLOCK END ===

=== CODE BLOCK ADDRESS 0x25f6 ===
  0x25f6	inc    	eax
  0x25f7	mov    	dh, byte ptr [esp + 0x70]
  0x25fb	jmp    	0x2662
  === BLOCK LINK ===
    0x25fd
=== CODE BLOCK END ===

=== CODE BLOCK ADDRESS 0x25fd ===
  0x25fd	inc    	eax
  0x25fe	add    	dh, 0xff
  0x2601	inc    	eax
  0x2602	mov    	byte ptr [esp + 0x70], dh
  0x2606	jmp    	0x2662
  === BLOCK LINK ===
    0x2608
=== CODE BLOCK END ===

=== CODE BLOCK ADDRESS 0x2608 ===
  0x2608	dec    	ecx
  0x2609	lea    	ecx, [esi + 6]
  0x260c	call   	0x117c
  === BLOCK LINK ===
    0x2611
=== CODE BLOCK END ===

=== CODE BLOCK ADDRESS 0x2611 ===
  0x2611	mov    	ecx, 1
  0x2616	call   	0x33c8
  === BLOCK LINK ===
    0x261b
=== CODE BLOCK END ===

=== CODE BLOCK ADDRESS 0x261b ===
  0x261b	dec    	eax
  0x261c	mov    	ecx, eax
  0x261e	mov    	edx, 0x273c
  0x2623	call   	0x2af4
  === BLOCK LINK ===
    0x2628
=== CODE BLOCK END ===

=== CODE BLOCK ADDRESS 0x2628 ===
  0x2628	movzx  	esi, byte ptr [esp + 0x70]
  0x262d	dec    	eax
  0x262e	lea    	edx, [0x438c]
  0x2634	inc    	ecx
  0x2635	movups  	xmm0, xmmword ptr [esi + 6]
  === BLOCK LINK ===
    0x2639
=== CODE BLOCK END ===

=== CODE BLOCK ADDRESS 0x2639 ===
  0x2639	mov    	eax, 0x17
  0x263e	dec    	eax
  0x263f	imul   	ecx, esi, 0x98
  0x2645	mov    	word ptr [ecx + edx + 8], ax
  0x264a	inc    	ecx
  === BLOCK LINK ===
    0x264b
=== CODE BLOCK END ===

=== CODE BLOCK ADDRESS 0x264b ===
  0x264b	mov    	eax, dword ptr [esi + 0x16]
  0x264e	movdqu  	xmmword ptr [ecx + edx + 0x10], xmm0
  0x2654	mov    	dword ptr [ecx + edx + 0x20], eax
  0x2658	jmp    	0x2662
  === BLOCK LINK ===
    0x265a
=== CODE BLOCK END ===

=== CODE BLOCK ADDRESS 0x265a ===
  0x265a	inc    	ecx
  0x265b	mov    	dh, bh
  0x265d	inc    	esp
  0x265e	mov    	byte ptr [esp + 0x70], bh
  0x2662	inc    	eax
  === BLOCK LINK ===
    0x2663
=== CODE BLOCK END ===

=== CODE BLOCK ADDRESS 0x2663 ===
  0x2663	movzx  	ecx, dh
  0x2666	mov    	eax, 0x10624dd3
  0x266b	imul   	ecx, dword ptr [0x3a56]
  0x2672	imul   	ecx, dword ptr [0x3a4b]
  0x2679	mul    	ecx
  === BLOCK LINK ===
    0x267b
=== CODE BLOCK END ===

=== CODE BLOCK ADDRESS 0x267b ===
  0x267b	mov    	ecx, 1
  0x2680	mov    	ebx, edx
  0x2682	shr    	ebx, 6
  0x2685	call   	0x33c8
  === BLOCK LINK ===
    0x268a
=== CODE BLOCK END ===

=== CODE BLOCK ADDRESS 0x268a ===
  0x268a	dec    	eax
  0x268b	mov    	ecx, eax
  0x268d	inc    	esp
  0x268e	mov    	eax, ebx
  0x2690	mov    	edx, 0x2743
  === BLOCK LINK ===
    0x2695
=== CODE BLOCK END ===

=== CODE BLOCK ADDRESS 0x2695 ===
  0x2695	call   	0x2af4
  === BLOCK LINK ===
    0x269a
=== CODE BLOCK END ===

=== CODE BLOCK ADDRESS 0x269a ===
  0x269a	dec    	eax
  0x269b	lea    	ecx, [esp + 0x70]
  0x269f	call   	0x14cc
  === BLOCK LINK ===
    0x26a4
=== CODE BLOCK END ===

=== CODE BLOCK ADDRESS 0x26a4 ===
  0x26a4	movzx  	ecx, byte ptr [esp + 0x70]
  0x26a9	call   	0x17ac
  === BLOCK LINK ===
    0x26ae
=== CODE BLOCK END ===

=== CODE BLOCK ADDRESS 0x26ae ===
  0x26ae	mov    	ecx, 1
  0x26b3	call   	0x33c8
  === BLOCK LINK ===
    0x26b8
=== CODE BLOCK END ===

=== CODE BLOCK ADDRESS 0x26b8 ===
  0x26b8	dec    	eax
  0x26b9	mov    	ecx, eax
  0x26bb	mov    	edx, 0x271b
  0x26c0	call   	0x2af4
  === BLOCK LINK ===
    0x26c5
=== CODE BLOCK END ===

=== CODE BLOCK ADDRESS 0x26c5 ===
  0x26c5	dec    	eax
  0x26c6	mov    	ecx, dword ptr [0x3fd4]
  0x26cc	dec    	eax
  0x26cd	call   	dword ptr [0x1a7d]
  === BLOCK LINK ===
    0x26d3
=== CODE BLOCK END ===

=== CODE BLOCK ADDRESS 0x26d3 ===
  0x26d3	nop    	dword ptr [eax + eax]
  0x26d8	dec    	eax
  0x26d9	call   	dword ptr [0x1a89]
  === BLOCK LINK ===
    0x26df
=== CODE BLOCK END ===

=== CODE BLOCK ADDRESS 0x26df ===
  0x26df	nop    	dword ptr [eax + eax]
  0x26e4	xor    	eax, eax
  0x26e6	dec    	eax
  0x26e7	mov    	ecx, dword ptr [ebp + 0x1110]
  0x26ed	dec    	eax
  === BLOCK LINK ===
    0x26ee
=== CODE BLOCK END ===

=== CODE BLOCK ADDRESS 0x26ee ===
  0x26ee	xor    	ecx, esp
  0x26f0	call   	0x2eb0
  === BLOCK LINK ===
    0x26f5
=== CODE BLOCK END ===

=== CODE BLOCK ADDRESS 0x26f5 ===
  0x26f5	dec    	eax
  0x26f6	mov    	ebx, dword ptr [esp + 0x1270]
  0x26fd	dec    	eax
  0x26fe	add    	esp, 0x1220
  0x2704	inc    	ecx
  === BLOCK LINK ===
    0x2705
=== CODE BLOCK END ===

=== CODE BLOCK ADDRESS 0x2705 ===
  0x2705	pop    	edi
  0x2706	inc    	ecx
  0x2707	pop    	esi
  0x2708	inc    	ecx
  0x2709	pop    	ebp
  === BLOCK LINK ===
    0x270a
=== CODE BLOCK END ===

=== CODE BLOCK ADDRESS 0x270a ===
  0x270a	inc    	ecx
  0x270b	pop    	esp
  0x270c	pop    	edi
  0x270d	pop    	esi
  0x270e	pop    	ebp
  === BLOCK LINK ===
    0x270f
=== CODE BLOCK END ===

=== CODE BLOCK ADDRESS 0x270f ===
  0x270f	ret    	
  0x2710	int3   	
  0x2711	int3   	
  0x2712	int3   	
  0x2713	int3   	
  === BLOCK LINK ===
    0x2714
=== CODE BLOCK END ===

=== CODE BLOCK ADDRESS 0x2714 ===
  0x2714	int3   	
  0x2715	int3   	
  0x2716	int3   	
  0x2717	int3   	
  0x2718	dec    	eax
  === BLOCK LINK ===
    0x2719
=== CODE BLOCK END ===

=== CODE BLOCK ADDRESS 0x2719 ===
  0x2719	mov    	dword ptr [esp + 8], ebx
  0x271d	dec    	eax
  0x271e	mov    	dword ptr [esp + 0x10], ebp
  0x2722	dec    	eax
  0x2723	mov    	dword ptr [esp + 0x20], esi
  === BLOCK LINK ===
    0x2727
=== CODE BLOCK END ===

=== CODE BLOCK ADDRESS 0x2727 ===
  0x2727	push   	edi
  0x2728	dec    	eax
  0x2729	sub    	esp, 0x20
  0x272c	dec    	eax
  0x272d	mov    	esi, ecx
  === BLOCK LINK ===
    0x272f
=== CODE BLOCK END ===

=== CODE BLOCK ADDRESS 0x272f ===
  0x272f	dec    	eax
  0x2730	mov    	ebp, edx
  0x2732	dec    	eax
  0x2733	mov    	ecx, edx
  0x2735	dec    	eax
  === BLOCK LINK ===
    0x2736
=== CODE BLOCK END ===

=== CODE BLOCK ADDRESS 0x2736 ===
  0x2736	call   	dword ptr [0x1aa4]
  === BLOCK LINK ===
    0x273c
=== CODE BLOCK END ===

=== CODE BLOCK ADDRESS 0x273c ===
  0x273c	nop    	dword ptr [eax + eax]
  0x2741	xor    	ebx, ebx
  0x2743	mov    	edi, eax
  0x2745	test   	eax, eax
  0x2747	jne    	0x2767
  === BLOCK LINK ===
    0x2749
=== CODE BLOCK END ===

=== CODE BLOCK ADDRESS 0x2749 ===
  0x2749	dec    	eax
  0x274a	call   	dword ptr [0x1a80]
  === BLOCK LINK ===
    0x2750
=== CODE BLOCK END ===

=== CODE BLOCK ADDRESS 0x2750 ===
  0x2750	nop    	dword ptr [eax + eax]
  0x2755	test   	eax, eax
  0x2757	je     	0x2767
  === BLOCK LINK ===
    0x2759
=== CODE BLOCK END ===

=== CODE BLOCK ADDRESS 0x2759 ===
  0x2759	dec    	eax
  0x275a	call   	dword ptr [0x1a70]
  === BLOCK LINK ===
    0x2760
=== CODE BLOCK END ===

=== CODE BLOCK ADDRESS 0x2760 ===
  0x2760	nop    	dword ptr [eax + eax]
  0x2765	jmp    	0x27a2
  === BLOCK LINK ===
    0x2767
=== CODE BLOCK END ===

=== CODE BLOCK ADDRESS 0x2767 ===
  0x2767	btr    	edi, 0xf
  0x276b	cmp    	edi, 2
  0x276e	jne    	0x279e
  === BLOCK LINK ===
    0x2770
=== CODE BLOCK END ===

=== CODE BLOCK ADDRESS 0x2770 ===
  0x2770	dec    	eax
  0x2771	lea    	edx, [esp + 0x40]
  0x2775	dec    	eax
  0x2776	mov    	ecx, ebp
  0x2778	dec    	eax
  === BLOCK LINK ===
    0x2779
=== CODE BLOCK END ===

=== CODE BLOCK ADDRESS 0x2779 ===
  0x2779	call   	dword ptr [0x1a31]
  === BLOCK LINK ===
    0x277f
=== CODE BLOCK END ===

=== CODE BLOCK ADDRESS 0x277f ===
  0x277f	nop    	dword ptr [eax + eax]
  0x2784	test   	eax, eax
  0x2786	jne    	0x2799
  === BLOCK LINK ===
    0x2788
=== CODE BLOCK END ===

=== CODE BLOCK ADDRESS 0x2788 ===
  0x2788	dec    	eax
  0x2789	call   	dword ptr [0x1a41]
  === BLOCK LINK ===
    0x278f
=== CODE BLOCK END ===

=== CODE BLOCK ADDRESS 0x278f ===
  0x278f	nop    	dword ptr [eax + eax]
  0x2794	cmp    	eax, 6
  0x2797	je     	0x279e
  === BLOCK LINK ===
    0x2799
=== CODE BLOCK END ===

=== CODE BLOCK ADDRESS 0x2799 ===
  0x2799	mov    	ebx, 1
  0x279e	mov    	dword ptr [esi], ebx
  0x27a0	xor    	eax, eax
  0x27a2	dec    	eax
  0x27a3	mov    	ebx, dword ptr [esp + 0x30]
  === BLOCK LINK ===
    0x27a7
=== CODE BLOCK END ===

=== CODE BLOCK ADDRESS 0x27a7 ===
  0x27a7	dec    	eax
  0x27a8	mov    	ebp, dword ptr [esp + 0x38]
  0x27ac	dec    	eax
  0x27ad	mov    	esi, dword ptr [esp + 0x48]
  0x27b1	dec    	eax
  === BLOCK LINK ===
    0x27b2
=== CODE BLOCK END ===

=== CODE BLOCK ADDRESS 0x27b2 ===
  0x27b2	add    	esp, 0x20
  0x27b5	pop    	edi
  0x27b6	ret    	
  0x27b7	int3   	
  0x27b8	int3   	
  === BLOCK LINK ===
    0x27b9
=== CODE BLOCK END ===

=== CODE BLOCK ADDRESS 0x2eb0 ===
=== CODE BLOCK END ===

=== CODE BLOCK ADDRESS 0x27b9 ===
  0x27b9	int3   	
  0x27ba	int3   	
  0x27bb	int3   	
  0x27bc	int3   	
  0x27bd	int3   	
  === BLOCK LINK ===
    0x27be
=== CODE BLOCK END ===

=== CODE BLOCK ADDRESS 0x27be ===
  0x27be	int3   	
  0x27bf	int3   	
  0x27c0	dec    	eax
  0x27c1	mov    	dword ptr [esp + 0x18], ebx
  0x27c5	push   	edi
  === BLOCK LINK ===
    0x27c6
=== CODE BLOCK END ===

=== CODE BLOCK ADDRESS 0x27c6 ===
  0x27c6	dec    	eax
  0x27c7	sub    	esp, 0x20
  0x27ca	dec    	eax
  0x27cb	mov    	ebx, edx
  0x27cd	dec    	eax
  === BLOCK LINK ===
    0x27ce
=== CODE BLOCK END ===

=== CODE BLOCK ADDRESS 0x27ce ===
  0x27ce	mov    	edi, ecx
  0x27d0	inc    	ecx
  0x27d1	cmp    	eax, 0x4f
  0x27d4	jae    	0x284f
  === BLOCK LINK ===
    0x27d6
=== CODE BLOCK END ===

=== CODE BLOCK ADDRESS 0x27d6 ===
  0x27d6	dec    	eax
  0x27d7	lea    	edx, [0x1cb3]
  0x27dd	dec    	eax
  0x27de	mov    	ecx, ebx
  0x27e0	dec    	eax
  === BLOCK LINK ===
    0x27e1
=== CODE BLOCK END ===

=== CODE BLOCK ADDRESS 0x27e1 ===
  0x27e1	call   	dword ptr [0x1ba1]
  === BLOCK LINK ===
    0x27e7
=== CODE BLOCK END ===

=== CODE BLOCK ADDRESS 0x27e7 ===
  0x27e7	nop    	dword ptr [eax + eax]
  0x27ec	test   	eax, eax
  0x27ee	jne    	0x27f7
  === BLOCK LINK ===
    0x27f0
=== CODE BLOCK END ===

=== CODE BLOCK ADDRESS 0x27f0 ===
  0x27f0	mov    	eax, 1
  0x27f5	jmp    	0x2851
  === BLOCK LINK ===
    0x27f7
=== CODE BLOCK END ===

=== CODE BLOCK ADDRESS 0x27f7 ===
  0x27f7	dec    	eax
  0x27f8	lea    	edx, [0x1ca2]
  0x27fe	dec    	eax
  0x27ff	mov    	ecx, ebx
  0x2801	dec    	eax
  === BLOCK LINK ===
    0x2802
=== CODE BLOCK END ===

=== CODE BLOCK ADDRESS 0x2802 ===
  0x2802	call   	dword ptr [0x1b80]
  === BLOCK LINK ===
    0x2808
=== CODE BLOCK END ===

=== CODE BLOCK ADDRESS 0x2808 ===
  0x2808	nop    	dword ptr [eax + eax]
  0x280d	test   	eax, eax
  0x280f	jne    	0x2815
  === BLOCK LINK ===
    0x2811
=== CODE BLOCK END ===

=== CODE BLOCK ADDRESS 0x2811 ===
  0x2811	and    	dword ptr [edi], eax
  0x2813	jmp    	0x284f
  === BLOCK LINK ===
    0x2815
=== CODE BLOCK END ===

=== CODE BLOCK ADDRESS 0x2815 ===
  0x2815	dec    	eax
  0x2816	lea    	edx, [0x1c94]
  0x281c	dec    	eax
  0x281d	mov    	ecx, ebx
  0x281f	dec    	eax
  === BLOCK LINK ===
    0x2820
=== CODE BLOCK END ===

=== CODE BLOCK ADDRESS 0x2820 ===
  0x2820	call   	dword ptr [0x1b62]
  === BLOCK LINK ===
    0x2826
=== CODE BLOCK END ===

=== CODE BLOCK ADDRESS 0x2826 ===
  0x2826	nop    	dword ptr [eax + eax]
  0x282b	test   	eax, eax
  0x282d	je     	0x2849
  === BLOCK LINK ===
    0x282f
=== CODE BLOCK END ===

=== CODE BLOCK ADDRESS 0x282f ===
  0x282f	dec    	eax
  0x2830	lea    	edx, [0x1c8a]
  0x2836	dec    	eax
  0x2837	mov    	ecx, ebx
  0x2839	dec    	eax
  === BLOCK LINK ===
    0x283a
=== CODE BLOCK END ===

=== CODE BLOCK ADDRESS 0x283a ===
  0x283a	call   	dword ptr [0x1b48]
  === BLOCK LINK ===
    0x2840
=== CODE BLOCK END ===

=== CODE BLOCK ADDRESS 0x2840 ===
  0x2840	nop    	dword ptr [eax + eax]
  0x2845	test   	eax, eax
  0x2847	jne    	0x284f
  === BLOCK LINK ===
    0x2849
=== CODE BLOCK END ===

=== CODE BLOCK ADDRESS 0x2849 ===
  0x2849	mov    	dword ptr [edi], 0xfde9
  0x284f	xor    	eax, eax
  0x2851	dec    	eax
  0x2852	mov    	ebx, dword ptr [esp + 0x40]
  0x2856	dec    	eax
  === BLOCK LINK ===
    0x2857
=== CODE BLOCK END ===

=== CODE BLOCK ADDRESS 0x2857 ===
  0x2857	add    	esp, 0x20
  0x285a	pop    	edi
  0x285b	ret    	
  0x285c	int3   	
  0x285d	int3   	
  === BLOCK LINK ===
    0x285e
=== CODE BLOCK END ===

=== CODE BLOCK ADDRESS 0x1008 ===
  0x1008	dec    	eax
  0x1009	mov    	dword ptr [esp + 0x18], ebx
  === BLOCK LINK ===
    0x100d
=== CODE BLOCK END ===

=== CODE BLOCK ADDRESS 0x285e ===
  0x285e	int3   	
  0x285f	int3   	
  0x2860	int3   	
  0x2861	int3   	
  0x2862	int3   	
  === BLOCK LINK ===
    0x2863
=== CODE BLOCK END ===

=== CODE BLOCK ADDRESS 0x2863 ===
  0x2863	int3   	
  0x2864	dec    	eax
  0x2865	mov    	dword ptr [esp + 0x18], ebx
  0x2869	dec    	eax
  0x286a	mov    	dword ptr [esp + 0x20], ebp
  === BLOCK LINK ===
    0x286e
=== CODE BLOCK END ===

=== CODE BLOCK ADDRESS 0x286e ===
  0x286e	push   	esi
  0x286f	push   	edi
  0x2870	inc    	ecx
  0x2871	push   	esp
  0x2872	inc    	ecx
  === BLOCK LINK ===
    0x2873
=== CODE BLOCK END ===

=== CODE BLOCK ADDRESS 0x2873 ===
  0x2873	push   	esi
  0x2874	inc    	ecx
  0x2875	push   	edi
  0x2876	dec    	eax
  0x2877	sub    	esp, 0x100
  === BLOCK LINK ===
    0x287d
=== CODE BLOCK END ===

=== CODE BLOCK ADDRESS 0x287d ===
  0x287d	dec    	eax
  0x287e	mov    	eax, dword ptr [0x3784]
  0x2884	dec    	eax
  0x2885	xor    	eax, esp
  0x2887	dec    	eax
  === BLOCK LINK ===
    0x2888
=== CODE BLOCK END ===

=== CODE BLOCK ADDRESS 0x2888 ===
  0x2888	mov    	dword ptr [esp + 0xf0], eax
  0x288f	inc    	ebp
  0x2890	xor    	esi, esi
  0x2892	dec    	esp
  0x2893	mov    	edi, edx
  === BLOCK LINK ===
    0x2895
=== CODE BLOCK END ===

=== CODE BLOCK ADDRESS 0x2895 ===
  0x2895	dec    	eax
  0x2896	mov    	edi, ecx
  0x2898	xor    	esi, esi
  0x289a	inc    	ebp
  0x289b	lea    	esp, [esi + 1]
  === BLOCK LINK ===
    0x289e
=== CODE BLOCK END ===

=== CODE BLOCK ADDRESS 0x289e ===
  0x289e	inc    	ecx
  0x289f	mov    	ebx, esp
  0x28a1	mov    	dword ptr [esp + 0x40], ebx
  0x28a5	dec    	eax
  0x28a6	call   	dword ptr [0x1ae4]
  === BLOCK LINK ===
    0x28ac
=== CODE BLOCK END ===

=== CODE BLOCK ADDRESS 0x28ac ===
  0x28ac	nop    	dword ptr [eax + eax]
  0x28b1	dec    	eax
  0x28b2	mov    	ecx, edi
  0x28b4	dec    	eax
  0x28b5	call   	dword ptr [0x1aed]
  === BLOCK LINK ===
    0x28bb
=== CODE BLOCK END ===

=== CODE BLOCK ADDRESS 0x28bb ===
  0x28bb	nop    	dword ptr [eax + eax]
  0x28c0	mov    	ecx, eax
  0x28c2	dec    	eax
  0x28c3	call   	dword ptr [0x1ab7]
  === BLOCK LINK ===
    0x28c9
=== CODE BLOCK END ===

=== CODE BLOCK ADDRESS 0x28c9 ===
  0x28c9	nop    	dword ptr [eax + eax]
  0x28ce	dec    	eax
  0x28cf	cmp    	eax, -1
  0x28d2	je     	0x28ed
  === BLOCK LINK ===
    0x28d4
=== CODE BLOCK END ===

=== CODE BLOCK ADDRESS 0x28d4 ===
  0x28d4	dec    	eax
  0x28d5	mov    	edx, eax
  0x28d7	dec    	eax
  0x28d8	lea    	ecx, [esp + 0x40]
  0x28dc	call   	0x2718
  === BLOCK LINK ===
    0x28e1
=== CODE BLOCK END ===

=== CODE BLOCK ADDRESS 0x28e1 ===
  0x28e1	mov    	ebx, dword ptr [esp + 0x40]
  0x28e5	test   	eax, eax
  0x28e7	jne    	0x28ed
  === BLOCK LINK ===
    0x28e9
=== CODE BLOCK END ===

=== CODE BLOCK ADDRESS 0x28e9 ===
  0x28e9	test   	ebx, ebx
  0x28eb	je     	0x2912
  === BLOCK LINK ===
    0x28ed
=== CODE BLOCK END ===

=== CODE BLOCK ADDRESS 0x28ed ===
  0x28ed	dec    	eax
  0x28ee	mov    	ecx, edi
  0x28f0	dec    	eax
  0x28f1	call   	dword ptr [0x1ab1]
  === BLOCK LINK ===
    0x28f7
=== CODE BLOCK END ===

=== CODE BLOCK ADDRESS 0x28f7 ===
  0x28f7	nop    	dword ptr [eax + eax]
  0x28fc	mov    	ecx, eax
  0x28fe	mov    	edx, 0x20000
  0x2903	dec    	eax
  0x2904	call   	dword ptr [0x1a8e]
  === BLOCK LINK ===
    0x290a
=== CODE BLOCK END ===

=== CODE BLOCK ADDRESS 0x290a ===
  0x290a	nop    	dword ptr [eax + eax]
  0x290f	inc    	esp
  0x2910	mov    	esi, eax
  0x2912	inc    	ecx
  0x2913	mov    	eax, 0x50
  === BLOCK LINK ===
    0x2918
=== CODE BLOCK END ===

=== CODE BLOCK ADDRESS 0x2918 ===
  0x2918	dec    	eax
  0x2919	lea    	edx, [esp + 0x50]
  0x291d	dec    	eax
  0x291e	lea    	ecx, [0x1b4c]
  0x2924	dec    	eax
  === BLOCK LINK ===
    0x2925
=== CODE BLOCK END ===

=== CODE BLOCK ADDRESS 0x2925 ===
  0x2925	call   	dword ptr [0x1915]
  === BLOCK LINK ===
    0x292b
=== CODE BLOCK END ===

=== CODE BLOCK ADDRESS 0x292b ===
  0x292b	nop    	dword ptr [eax + eax]
  0x2930	inc    	esp
  0x2931	mov    	dword ptr [esp + 0x40], esp
  0x2935	test   	eax, eax
  0x2937	je     	0x2954
  === BLOCK LINK ===
    0x2939
=== CODE BLOCK END ===

=== CODE BLOCK ADDRESS 0x2939 ===
  0x2939	inc    	esp
  0x293a	mov    	eax, eax
  0x293c	dec    	eax
  0x293d	lea    	edx, [esp + 0x50]
  0x2941	dec    	eax
  === BLOCK LINK ===
    0x2942
=== CODE BLOCK END ===

=== CODE BLOCK ADDRESS 0x2942 ===
  0x2942	lea    	ecx, [esp + 0x40]
  0x2946	call   	0x27c0
  === BLOCK LINK ===
    0x294b
=== CODE BLOCK END ===

=== CODE BLOCK ADDRESS 0x294b ===
  0x294b	inc    	esp
  0x294c	mov    	esp, dword ptr [esp + 0x40]
  0x2950	mov    	ebp, eax
  0x2952	jmp    	0x2956
  === BLOCK LINK ===
    0x2954
=== CODE BLOCK END ===

=== CODE BLOCK ADDRESS 0x2954 ===
  0x2954	xor    	ebp, ebp
  0x2956	test   	ebx, ebx
  0x2958	jne    	0x2a65
  === BLOCK LINK ===
    0x295e
=== CODE BLOCK END ===

=== CODE BLOCK ADDRESS 0x295e ===
  0x295e	lea    	edx, [ebx + 0xd]
  0x2961	dec    	ecx
  0x2962	mov    	ecx, edi
  0x2964	dec    	eax
  0x2965	call   	dword ptr [0x1a45]
  === BLOCK LINK ===
    0x296b
=== CODE BLOCK END ===

=== CODE BLOCK ADDRESS 0x296b ===
  0x296b	nop    	dword ptr [eax + eax]
  0x2970	dec    	eax
  0x2971	mov    	ecx, edi
  0x2973	dec    	eax
  0x2974	test   	eax, eax
  === BLOCK LINK ===
    0x2976
=== CODE BLOCK END ===

=== CODE BLOCK ADDRESS 0x2976 ===
  0x2976	je     	0x298b
  === BLOCK LINK ===
    0x2978
=== CODE BLOCK END ===

=== CODE BLOCK ADDRESS 0x2978 ===
  0x2978	dec    	eax
  0x2979	call   	dword ptr [0x1a29]
  === BLOCK LINK ===
    0x297f
=== CODE BLOCK END ===

=== CODE BLOCK ADDRESS 0x297f ===
  0x297f	nop    	dword ptr [eax + eax]
  0x2984	mov    	edx, 0x8000
  0x2989	jmp    	0x29a9
  === BLOCK LINK ===
    0x298b
=== CODE BLOCK END ===

=== CODE BLOCK ADDRESS 0x298b ===
  0x298b	mov    	eax, ebp
  0x298d	neg    	eax
  0x298f	sbb    	ebx, ebx
  0x2991	and    	ebx, 0x1c000
  0x2997	dec    	eax
  === BLOCK LINK ===
    0x2998
=== CODE BLOCK END ===

=== CODE BLOCK ADDRESS 0x2998 ===
  0x2998	call   	dword ptr [0x1a0a]
  === BLOCK LINK ===
    0x299e
=== CODE BLOCK END ===

=== CODE BLOCK ADDRESS 0x299e ===
  0x299e	nop    	dword ptr [eax + eax]
  0x29a3	lea    	edx, [ebx + 0x4000]
  0x29a9	mov    	ecx, eax
  0x29ab	dec    	eax
  0x29ac	call   	dword ptr [0x19e6]
  === BLOCK LINK ===
    0x29b2
=== CODE BLOCK END ===

=== CODE BLOCK ADDRESS 0x29b2 ===
  0x29b2	nop    	dword ptr [eax + eax]
  0x29b7	inc    	esp
  0x29b8	mov    	esi, eax
  0x29ba	test   	ebp, ebp
  0x29bc	jne    	0x2a65
  === BLOCK LINK ===
    0x29c2
=== CODE BLOCK END ===

=== CODE BLOCK ADDRESS 0x29c2 ===
  0x29c2	dec    	eax
  0x29c3	and    	dword ptr [esp + 0x38], esi
  0x29c7	inc    	ecx
  0x29c8	or     	ecx, 0xffffffff
  0x29cb	dec    	eax
  === BLOCK LINK ===
    0x29cc
=== CODE BLOCK END ===

=== CODE BLOCK ADDRESS 0x29cc ===
  0x29cc	and    	dword ptr [esp + 0x30], esi
  0x29d0	dec    	ebp
  0x29d1	mov    	eax, edi
  0x29d3	and    	dword ptr [esp + 0x28], esi
  0x29d7	xor    	edx, edx
  === BLOCK LINK ===
    0x29d9
=== CODE BLOCK END ===

=== CODE BLOCK ADDRESS 0x29d9 ===
  0x29d9	dec    	eax
  0x29da	and    	dword ptr [esp + 0x20], esi
  0x29de	inc    	ecx
  0x29df	mov    	ecx, esp
  0x29e1	dec    	eax
  === BLOCK LINK ===
    0x29e2
=== CODE BLOCK END ===

=== CODE BLOCK ADDRESS 0x29e2 ===
  0x29e2	call   	dword ptr [0x18c0]
  === BLOCK LINK ===
    0x29e8
=== CODE BLOCK END ===

=== CODE BLOCK ADDRESS 0x29e8 ===
  0x29e8	nop    	dword ptr [eax + eax]
  0x29ed	dec    	eax
  0x29ee	arpl   	ax, bx
  0x29f0	test   	eax, eax
  0x29f2	je     	0x2a7e
  === BLOCK LINK ===
    0x29f8
=== CODE BLOCK END ===

=== CODE BLOCK ADDRESS 0x29f8 ===
  0x29f8	dec    	eax
  0x29f9	mov    	edx, ebx
  0x29fb	lea    	ecx, [ebp + 0x40]
  0x29fe	dec    	eax
  0x29ff	call   	dword ptr [0x1803]
  === BLOCK LINK ===
    0x2a05
=== CODE BLOCK END ===

=== CODE BLOCK ADDRESS 0x2a05 ===
  0x2a05	nop    	dword ptr [eax + eax]
  0x2a0a	dec    	eax
  0x2a0b	mov    	esi, eax
  0x2a0d	dec    	eax
  0x2a0e	test   	eax, eax
  === BLOCK LINK ===
    0x2a10
=== CODE BLOCK END ===

=== CODE BLOCK ADDRESS 0x2a10 ===
  0x2a10	je     	0x2a7e
  === BLOCK LINK ===
    0x2a12
=== CODE BLOCK END ===

=== CODE BLOCK ADDRESS 0x2a12 ===
  0x2a12	dec    	eax
  0x2a13	and    	dword ptr [esp + 0x38], 0
  0x2a18	inc    	ecx
  0x2a19	or     	ecx, 0xffffffff
  0x2a1c	dec    	eax
  === BLOCK LINK ===
    0x2a1d
=== CODE BLOCK END ===

=== CODE BLOCK ADDRESS 0x2a1d ===
  0x2a1d	and    	dword ptr [esp + 0x30], 0
  0x2a22	dec    	ebp
  0x2a23	mov    	eax, edi
  0x2a25	mov    	dword ptr [esp + 0x28], ebx
  0x2a29	xor    	edx, edx
  === BLOCK LINK ===
    0x2a2b
=== CODE BLOCK END ===

=== CODE BLOCK ADDRESS 0x2a2b ===
  0x2a2b	inc    	ecx
  0x2a2c	mov    	ecx, esp
  0x2a2e	dec    	eax
  0x2a2f	mov    	dword ptr [esp + 0x20], eax
  0x2a33	dec    	eax
  === BLOCK LINK ===
    0x2a34
=== CODE BLOCK END ===

=== CODE BLOCK ADDRESS 0x2a34 ===
  0x2a34	call   	dword ptr [0x186e]
  === BLOCK LINK ===
    0x2a3a
=== CODE BLOCK END ===

=== CODE BLOCK ADDRESS 0x2a3a ===
  0x2a3a	nop    	dword ptr [eax + eax]
  0x2a3f	dec    	eax
  0x2a40	mov    	ecx, edi
  0x2a42	dec    	eax
  0x2a43	call   	dword ptr [0x195f]
  === BLOCK LINK ===
    0x2a49
=== CODE BLOCK END ===

=== CODE BLOCK ADDRESS 0x2a49 ===
  0x2a49	nop    	dword ptr [eax + eax]
  0x2a4e	inc    	esp
  0x2a4f	lea    	eax, [ebx - 1]
  0x2a52	dec    	eax
  0x2a53	mov    	edx, esi
  === BLOCK LINK ===
    0x2a55
=== CODE BLOCK END ===

=== CODE BLOCK ADDRESS 0x2a55 ===
  0x2a55	mov    	ecx, eax
  0x2a57	dec    	eax
  0x2a58	call   	dword ptr [0x1942]
  === BLOCK LINK ===
    0x2a5e
=== CODE BLOCK END ===

=== CODE BLOCK ADDRESS 0x2a5e ===
  0x2a5e	nop    	dword ptr [eax + eax]
  0x2a63	jmp    	0x2a7e
  === BLOCK LINK ===
    0x2a65
=== CODE BLOCK END ===

=== CODE BLOCK ADDRESS 0x2a65 ===
  0x2a65	dec    	ebp
  0x2a66	mov    	eax, edi
  0x2a68	dec    	eax
  0x2a69	lea    	edx, [0x1a69]
  0x2a6f	dec    	eax
  === BLOCK LINK ===
    0x2a70
=== CODE BLOCK END ===

=== CODE BLOCK ADDRESS 0x2a70 ===
  0x2a70	mov    	ecx, edi
  0x2a72	dec    	eax
  0x2a73	call   	dword ptr [0x18df]
  === BLOCK LINK ===
    0x2a79
=== CODE BLOCK END ===

=== CODE BLOCK ADDRESS 0x2a79 ===
  0x2a79	nop    	dword ptr [eax + eax]
  0x2a7e	dec    	eax
  0x2a7f	mov    	ecx, edi
  0x2a81	dec    	eax
  0x2a82	call   	dword ptr [0x1908]
  === BLOCK LINK ===
    0x2a88
=== CODE BLOCK END ===

=== CODE BLOCK ADDRESS 0x2a88 ===
  0x2a88	nop    	dword ptr [eax + eax]
  0x2a8d	dec    	eax
  0x2a8e	mov    	ecx, edi
  0x2a90	dec    	eax
  0x2a91	call   	dword ptr [0x1911]
  === BLOCK LINK ===
    0x2a97
=== CODE BLOCK END ===

=== CODE BLOCK ADDRESS 0x2a97 ===
  0x2a97	nop    	dword ptr [eax + eax]
  0x2a9c	mov    	ecx, eax
  0x2a9e	inc    	ecx
  0x2a9f	mov    	edx, esi
  0x2aa1	dec    	eax
  === BLOCK LINK ===
    0x2aa2
=== CODE BLOCK END ===

=== CODE BLOCK ADDRESS 0x2aa2 ===
  0x2aa2	call   	dword ptr [0x18f0]
  === BLOCK LINK ===
    0x2aa8
=== CODE BLOCK END ===

=== CODE BLOCK ADDRESS 0x2aa8 ===
  0x2aa8	nop    	dword ptr [eax + eax]
  0x2aad	dec    	eax
  0x2aae	test   	esi, esi
  0x2ab0	je     	0x2ac1
  === BLOCK LINK ===
    0x2ab2
=== CODE BLOCK END ===

=== CODE BLOCK ADDRESS 0x2ab2 ===
  0x2ab2	dec    	eax
  0x2ab3	mov    	ecx, esi
  0x2ab5	dec    	eax
  0x2ab6	call   	dword ptr [0x1744]
  === BLOCK LINK ===
    0x2abc
=== CODE BLOCK END ===

=== CODE BLOCK ADDRESS 0x2abc ===
  0x2abc	nop    	dword ptr [eax + eax]
  0x2ac1	dec    	eax
  0x2ac2	mov    	ecx, dword ptr [esp + 0xf0]
  0x2ac9	dec    	eax
  0x2aca	xor    	ecx, esp
  === BLOCK LINK ===
    0x2acc
=== CODE BLOCK END ===

=== CODE BLOCK ADDRESS 0x2acc ===
  0x2acc	call   	0x2eb0
  === BLOCK LINK ===
    0x2ad1
=== CODE BLOCK END ===

=== CODE BLOCK ADDRESS 0x2ad1 ===
  0x2ad1	dec    	esp
  0x2ad2	lea    	ebx, [esp + 0x100]
  0x2ad9	dec    	ecx
  0x2ada	mov    	ebx, dword ptr [ebx + 0x40]
  0x2add	dec    	ecx
  === BLOCK LINK ===
    0x2ade
=== CODE BLOCK END ===

=== CODE BLOCK ADDRESS 0x2ade ===
  0x2ade	mov    	ebp, dword ptr [ebx + 0x48]
  0x2ae1	dec    	ecx
  0x2ae2	mov    	esp, ebx
  0x2ae4	inc    	ecx
  0x2ae5	pop    	edi
  === BLOCK LINK ===
    0x2ae6
=== CODE BLOCK END ===

=== CODE BLOCK ADDRESS 0x2ae6 ===
  0x2ae6	inc    	ecx
  0x2ae7	pop    	esi
  0x2ae8	inc    	ecx
  0x2ae9	pop    	esp
  0x2aea	pop    	edi
  === BLOCK LINK ===
    0x2aeb
=== CODE BLOCK END ===

=== CODE BLOCK ADDRESS 0x2aeb ===
  0x2aeb	pop    	esi
  0x2aec	ret    	
  0x2aed	int3   	
  0x2aee	int3   	
  0x2aef	int3   	
  === BLOCK LINK ===
    0x2af0
=== CODE BLOCK END ===

=== CODE BLOCK ADDRESS 0x2af0 ===
  0x2af0	int3   	
  0x2af1	int3   	
  0x2af2	int3   	
  0x2af3	int3   	
  0x2af4	mov    	dword ptr [esp + 0x10], edx
  === BLOCK LINK ===
    0x2af8
=== CODE BLOCK END ===

=== CODE BLOCK ADDRESS 0x2af8 ===
  0x2af8	dec    	esp
  0x2af9	mov    	ebx, esp
  0x2afb	dec    	ebp
  0x2afc	mov    	dword ptr [ebx + 0x18], eax
  0x2aff	dec    	ebp
  === BLOCK LINK ===
    0x2b00
=== CODE BLOCK END ===

=== CODE BLOCK ADDRESS 0x2b00 ===
  0x2b00	mov    	dword ptr [ebx + 0x20], ecx
  0x2b03	push   	ebx
  0x2b04	dec    	eax
  0x2b05	sub    	esp, 0x50
  0x2b08	dec    	ecx
  === BLOCK LINK ===
    0x2b09
=== CODE BLOCK END ===

=== CODE BLOCK ADDRESS 0x2b09 ===
  0x2b09	lea    	eax, [ebx + 0x18]
  0x2b0c	dec    	eax
  0x2b0d	mov    	ebx, ecx
  0x2b0f	dec    	ecx
  0x2b10	mov    	dword ptr [ebx - 0x10], eax
  === BLOCK LINK ===
    0x2b13
=== CODE BLOCK END ===

=== CODE BLOCK ADDRESS 0x2b13 ===
  0x2b13	inc    	esp
  0x2b14	mov    	eax, edx
  0x2b16	dec    	eax
  0x2b17	mov    	edx, dword ptr [0x3c13]
  0x2b1d	dec    	ecx
  === BLOCK LINK ===
    0x2b1e
=== CODE BLOCK END ===

=== CODE BLOCK ADDRESS 0x2b1e ===
  0x2b1e	lea    	eax, [ebx - 0x10]
  0x2b21	dec    	ecx
  0x2b22	mov    	dword ptr [ebx - 0x28], eax
  0x2b25	inc    	ebp
  0x2b26	xor    	ecx, ecx
  === BLOCK LINK ===
    0x2b28
=== CODE BLOCK END ===

=== CODE BLOCK ADDRESS 0x2b28 ===
  0x2b28	and    	dword ptr [esp + 0x28], 0
  0x2b2d	dec    	ecx
  0x2b2e	lea    	eax, [ebx - 0x18]
  0x2b31	mov    	ecx, 0x900
  0x2b36	dec    	ecx
  === BLOCK LINK ===
    0x2b37
=== CODE BLOCK END ===

=== CODE BLOCK ADDRESS 0x2b37 ===
  0x2b37	mov    	dword ptr [ebx - 0x38], eax
  0x2b3a	dec    	eax
  0x2b3b	call   	dword ptr [0x16e7]
  === BLOCK LINK ===
    0x2b41
=== CODE BLOCK END ===

=== CODE BLOCK ADDRESS 0x2b41 ===
  0x2b41	nop    	dword ptr [eax + eax]
  0x2b46	test   	eax, eax
  0x2b48	je     	0x2b68
  === BLOCK LINK ===
    0x2b4a
=== CODE BLOCK END ===

=== CODE BLOCK ADDRESS 0x2b4a ===
  0x2b4a	dec    	eax
  0x2b4b	mov    	edx, dword ptr [esp + 0x40]
  0x2b4f	dec    	eax
  0x2b50	mov    	ecx, ebx
  0x2b52	call   	0x2864
  === BLOCK LINK ===
    0x2b57
=== CODE BLOCK END ===

=== CODE BLOCK ADDRESS 0x2b57 ===
  0x2b57	dec    	eax
  0x2b58	mov    	ecx, dword ptr [esp + 0x40]
  0x2b5c	dec    	eax
  0x2b5d	call   	dword ptr [0x169d]
  === BLOCK LINK ===
    0x2b63
=== CODE BLOCK END ===

=== CODE BLOCK ADDRESS 0x2b63 ===
  0x2b63	nop    	dword ptr [eax + eax]
  0x2b68	dec    	eax
  0x2b69	add    	esp, 0x50
  0x2b6c	pop    	ebx
  0x2b6d	ret    	
  === BLOCK LINK ===
    0x2b6e
=== CODE BLOCK END ===

=== CODE BLOCK ADDRESS 0x2b6e ===
  0x2b6e	int3   	
  0x2b6f	int3   	
  0x2b70	int3   	
  0x2b71	int3   	
  0x2b72	int3   	
  === BLOCK LINK ===
    0x2b73
=== CODE BLOCK END ===

=== CODE BLOCK ADDRESS 0x2b73 ===
  0x2b73	int3   	
  0x2b74	int3   	
  0x2b75	int3   	
  0x2b76	int3   	
  0x2b77	int3   	
  === BLOCK LINK ===
    0x2b78
=== CODE BLOCK END ===

=== CODE BLOCK ADDRESS 0x2b78 ===
  0x2b78	int3   	
  0x2b79	int3   	
  0x2b7a	int3   	
  0x2b7b	int3   	
  0x2b7c	int3   	
  === BLOCK LINK ===
    0x2b7d
=== CODE BLOCK END ===

=== CODE BLOCK ADDRESS 0x2b7d ===
  0x2b7d	int3   	
  0x2b7e	int3   	
  0x2b7f	int3   	
  0x2b80	dec    	eax
  0x2b81	sub    	esp, 0x28
  === BLOCK LINK ===
    0x2b84
=== CODE BLOCK END ===

=== CODE BLOCK ADDRESS 0x2b84 ===
  0x2b84	mov    	eax, 0x5a4d
  0x2b89	cmp    	word ptr [0xffffd470], ax
  0x2b90	je     	0x2b96
  === BLOCK LINK ===
    0x2b92
=== CODE BLOCK END ===

=== CODE BLOCK ADDRESS 0x2b92 ===
  0x2b92	xor    	eax, eax
  0x2b94	jmp    	0x2be9
  === BLOCK LINK ===
    0x2b96
=== CODE BLOCK END ===

=== CODE BLOCK ADDRESS 0x2b96 ===
  0x2b96	dec    	eax
  0x2b97	arpl   	word ptr [0xffffd49f], cx
  0x2b9d	dec    	eax
  0x2b9e	lea    	eax, [0xffffd45c]
  0x2ba4	dec    	eax
  === BLOCK LINK ===
    0x2ba5
=== CODE BLOCK END ===

=== CODE BLOCK ADDRESS 0x2ba5 ===
  0x2ba5	add    	ecx, eax
  0x2ba7	cmp    	dword ptr [ecx], 0x4550
  0x2bad	jne    	0x2b92
  === BLOCK LINK ===
    0x2baf
=== CODE BLOCK END ===

=== CODE BLOCK ADDRESS 0x2baf ===
  0x2baf	mov    	eax, 0x10b
  0x2bb4	cmp    	word ptr [ecx + 0x18], ax
  0x2bb8	je     	0x2bd8
  === BLOCK LINK ===
    0x2bba
=== CODE BLOCK END ===

=== CODE BLOCK ADDRESS 0x2bba ===
  0x2bba	mov    	eax, 0x20b
  0x2bbf	cmp    	word ptr [ecx + 0x18], ax
  0x2bc3	jne    	0x2b92
  === BLOCK LINK ===
    0x2bc5
=== CODE BLOCK END ===

=== CODE BLOCK ADDRESS 0x2bc5 ===
  0x2bc5	xor    	eax, eax
  0x2bc7	cmp    	dword ptr [ecx + 0x84], 0xe
  0x2bce	jbe    	0x2be9
  === BLOCK LINK ===
    0x2bd0
=== CODE BLOCK END ===

=== CODE BLOCK ADDRESS 0x2bd0 ===
  0x2bd0	cmp    	dword ptr [ecx + 0xf8], eax
  0x2bd6	jmp    	0x2be6
  === BLOCK LINK ===
    0x2bd8
=== CODE BLOCK END ===

=== CODE BLOCK ADDRESS 0x2bd8 ===
  0x2bd8	xor    	eax, eax
  0x2bda	cmp    	dword ptr [ecx + 0x74], 0xe
  0x2bde	jbe    	0x2be9
  === BLOCK LINK ===
    0x2be0
=== CODE BLOCK END ===

=== CODE BLOCK ADDRESS 0x2be0 ===
  0x2be0	cmp    	dword ptr [ecx + 0xe8], eax
  0x2be6	setne  	al
  0x2be9	mov    	ecx, 1
  0x2bee	mov    	dword ptr [0x350c], eax
  0x2bf4	call   	0x2fa8
  === BLOCK LINK ===
    0x2bf9
=== CODE BLOCK END ===

=== CODE BLOCK ADDRESS 0x2bf9 ===
  0x2bf9	mov    	ecx, eax
  0x2bfb	call   	dword ptr [0x1727]
  === BLOCK LINK ===
    0x2c01
=== CODE BLOCK END ===

=== CODE BLOCK ADDRESS 0x2c01 ===
  0x2c01	dec    	eax
  0x2c02	mov    	ecx, dword ptr [0x1740]
  0x2c08	dec    	eax
  0x2c09	or     	eax, 0xffffffff
  0x2c0c	dec    	eax
  === BLOCK LINK ===
    0x2c0d
=== CODE BLOCK END ===

=== CODE BLOCK ADDRESS 0x2c0d ===
  0x2c0d	mov    	dword ptr [0x3b25], eax
  0x2c13	dec    	eax
  0x2c14	mov    	dword ptr [0x3b26], eax
  0x2c1a	mov    	eax, dword ptr [0x34f4]
  0x2c20	mov    	dword ptr [ecx], eax
  === BLOCK LINK ===
    0x2c22
=== CODE BLOCK END ===

=== CODE BLOCK ADDRESS 0x2c22 ===
  0x2c22	dec    	eax
  0x2c23	mov    	ecx, dword ptr [0x1727]
  0x2c29	mov    	eax, dword ptr [0x34d9]
  0x2c2f	mov    	dword ptr [ecx], eax
  0x2c31	call   	0x3000
  === BLOCK LINK ===
    0x2c36
=== CODE BLOCK END ===

=== CODE BLOCK ADDRESS 0x2c36 ===
  0x2c36	cmp    	dword ptr [0x33c3], 0
  0x2c3d	jne    	0x2c4c
  === BLOCK LINK ===
    0x2c3f
=== CODE BLOCK END ===

=== CODE BLOCK ADDRESS 0x2c3f ===
  0x2c3f	dec    	eax
  0x2c40	lea    	ecx, [0x3ba]
  0x2c46	call   	dword ptr [0x16b4]
  === BLOCK LINK ===
    0x2c4c
=== CODE BLOCK END ===

=== CODE BLOCK ADDRESS 0x2c4c ===
  0x2c4c	xor    	eax, eax
  0x2c4e	dec    	eax
  0x2c4f	add    	esp, 0x28
  0x2c52	ret    	
  0x2c53	int3   	
  === BLOCK LINK ===
    0x2c54
=== CODE BLOCK END ===

=== CODE BLOCK ADDRESS 0x2c54 ===
  0x2c54	int3   	
  0x2c55	int3   	
  0x2c56	int3   	
  0x2c57	int3   	
  0x2c58	int3   	
  === BLOCK LINK ===
    0x2c59
=== CODE BLOCK END ===

=== CODE BLOCK ADDRESS 0x2c59 ===
  0x2c59	int3   	
  0x2c5a	int3   	
  0x2c5b	int3   	
  0x2c5c	int3   	
  0x2c5d	int3   	
  === BLOCK LINK ===
    0x2c5e
=== CODE BLOCK END ===

=== CODE BLOCK ADDRESS 0x2c5e ===
  0x2c5e	int3   	
  0x2c5f	int3   	
  0x2c60	dec    	eax
  0x2c61	sub    	esp, 0x38
  0x2c64	mov    	eax, dword ptr [0x34a6]
  === BLOCK LINK ===
    0x2c6a
=== CODE BLOCK END ===

=== CODE BLOCK ADDRESS 0x2c6a ===
  0x2c6a	dec    	esp
  0x2c6b	lea    	eax, [0x3487]
  0x2c71	inc    	esp
  0x2c72	mov    	ecx, dword ptr [0x3494]
  0x2c78	dec    	eax
  === BLOCK LINK ===
    0x2c79
=== CODE BLOCK END ===

=== CODE BLOCK ADDRESS 0x2c79 ===
  0x2c79	lea    	edx, [0x3471]
  0x2c7f	mov    	dword ptr [0x347f], eax
  0x2c85	dec    	eax
  0x2c86	lea    	ecx, [0x345c]
  0x2c8c	dec    	eax
  === BLOCK LINK ===
    0x2c8d
=== CODE BLOCK END ===

=== CODE BLOCK ADDRESS 0x2c8d ===
  0x2c8d	lea    	eax, [0x3471]
  0x2c93	dec    	eax
  0x2c94	mov    	dword ptr [esp + 0x20], eax
  0x2c98	call   	dword ptr [0x1672]
  === BLOCK LINK ===
    0x2c9e
=== CODE BLOCK END ===

=== CODE BLOCK ADDRESS 0x2c9e ===
  0x2c9e	mov    	dword ptr [0x3448], eax
  0x2ca4	dec    	eax
  0x2ca5	add    	esp, 0x38
  0x2ca8	ret    	
  0x2ca9	int3   	
  === BLOCK LINK ===
    0x2caa
=== CODE BLOCK END ===

=== CODE BLOCK ADDRESS 0x2caa ===
  0x2caa	int3   	
  0x2cab	int3   	
  0x2cac	int3   	
  0x2cad	int3   	
  0x2cae	int3   	
  === BLOCK LINK ===
    0x2caf
=== CODE BLOCK END ===

=== CODE BLOCK ADDRESS 0x2caf ===
  0x2caf	int3   	
  0x2cb0	dec    	eax
  0x2cb1	mov    	dword ptr [esp + 8], ebx
  0x2cb5	dec    	eax
  0x2cb6	mov    	dword ptr [esp + 0x10], esi
  === BLOCK LINK ===
    0x2cba
=== CODE BLOCK END ===

=== CODE BLOCK ADDRESS 0x2cba ===
  0x2cba	dec    	eax
  0x2cbb	mov    	dword ptr [esp + 0x18], edi
  0x2cbf	inc    	ecx
  0x2cc0	push   	edi
  0x2cc1	dec    	eax
  === BLOCK LINK ===
    0x2cc2
=== CODE BLOCK END ===

=== CODE BLOCK ADDRESS 0x2cc2 ===
  0x2cc2	sub    	esp, 0x30
  0x2cc5	dec    	eax
  0x2cc7	mov    	eax, dword ptr [0x30]
  0x2cce	dec    	eax
  0x2ccf	mov    	ebx, dword ptr [eax + 8]
  === BLOCK LINK ===
    0x2cd2
=== CODE BLOCK END ===

=== CODE BLOCK ADDRESS 0x2cd2 ===
  0x2cd2	xor    	esi, esi
  0x2cd4	xor    	eax, eax
  0x2cd6	.byte  	0xf0
  0x2cd7	dec    	eax
  0x2cd8	cmpxchg  	dword ptr [0x3a69], ebx
  === BLOCK LINK ===
    0x2cdf
=== CODE BLOCK END ===

=== CODE BLOCK ADDRESS 0x2cdf ===
  0x2cdf	je     	0x2cfc
  === BLOCK LINK ===
    0x2ce1
=== CODE BLOCK END ===

=== CODE BLOCK ADDRESS 0x2ce1 ===
  0x2ce1	dec    	eax
  0x2ce2	cmp    	eax, ebx
  0x2ce4	jne    	0x2cef
  === BLOCK LINK ===
    0x2ce6
=== CODE BLOCK END ===

=== CODE BLOCK ADDRESS 0x2ce6 ===
  0x2ce6	mov    	ebx, 1
  0x2ceb	mov    	esi, ebx
  0x2ced	jmp    	0x2d01
  === BLOCK LINK ===
    0x2cef
=== CODE BLOCK END ===

=== CODE BLOCK ADDRESS 0x2cef ===
  0x2cef	mov    	ecx, 0x3e8
  0x2cf4	call   	dword ptr [0x15ce]
  === BLOCK LINK ===
    0x2cfa
=== CODE BLOCK END ===

=== CODE BLOCK ADDRESS 0x2cfa ===
  0x2cfa	jmp    	0x2cd4
  === BLOCK LINK ===
    0x2cfc
=== CODE BLOCK END ===

=== CODE BLOCK ADDRESS 0x2cfc ===
  0x2cfc	mov    	ebx, 1
  0x2d01	mov    	eax, dword ptr [0x3a49]
  0x2d07	cmp    	eax, ebx
  0x2d09	jne    	0x2d17
  === BLOCK LINK ===
    0x2d0b
=== CODE BLOCK END ===

=== CODE BLOCK ADDRESS 0x2d0b ===
  0x2d0b	mov    	ecx, 0x1f
  0x2d10	call   	0x2ff3
  === BLOCK LINK ===
    0x2d15
=== CODE BLOCK END ===

=== CODE BLOCK ADDRESS 0x2d15 ===
  0x2d15	jmp    	0x2d7c
  === BLOCK LINK ===
    0x2d17
=== CODE BLOCK END ===

=== CODE BLOCK ADDRESS 0x2d17 ===
  0x2d17	mov    	eax, dword ptr [0x3a33]
  0x2d1d	test   	eax, eax
  0x2d1f	jne    	0x2d76
  === BLOCK LINK ===
    0x2d21
=== CODE BLOCK END ===

=== CODE BLOCK ADDRESS 0x2d21 ===
  0x2d21	mov    	dword ptr [0x3a29], ebx
  0x2d27	dec    	esp
  0x2d28	lea    	edi, [0x16ea]
  0x2d2e	dec    	eax
  0x2d2f	lea    	edi, [0x16cb]
  === BLOCK LINK ===
    0x2d35
=== CODE BLOCK END ===

=== CODE BLOCK ADDRESS 0x2d35 ===
  0x2d35	dec    	eax
  0x2d36	mov    	dword ptr [esp + 0x28], edi
  0x2d3a	mov    	dword ptr [esp + 0x20], eax
  0x2d3e	dec    	ecx
  0x2d3f	cmp    	edi, edi
  === BLOCK LINK ===
    0x2d41
=== CODE BLOCK END ===

=== CODE BLOCK ADDRESS 0x2d41 ===
  0x2d41	jae    	0x2d68
  === BLOCK LINK ===
    0x2d43
=== CODE BLOCK END ===

=== CODE BLOCK ADDRESS 0x2d43 ===
  0x2d43	test   	eax, eax
  0x2d45	jne    	0x2d6c
  === BLOCK LINK ===
    0x2d47
=== CODE BLOCK END ===

=== CODE BLOCK ADDRESS 0x2d47 ===
  0x2d47	dec    	eax
  0x2d48	cmp    	dword ptr [edi], 0
  0x2d4b	je     	0x2d5d
  === BLOCK LINK ===
    0x2d4d
=== CODE BLOCK END ===

=== CODE BLOCK ADDRESS 0x2d4d ===
  0x2d4d	dec    	eax
  0x2d4e	mov    	eax, dword ptr [edi]
  0x2d50	dec    	eax
  0x2d51	mov    	ecx, dword ptr [0x1689]
  0x2d57	call   	ecx
  === BLOCK LINK ===
    0x2d59
=== CODE BLOCK END ===

=== CODE BLOCK ADDRESS 0x2d59 ===
  0x2d59	mov    	dword ptr [esp + 0x20], eax
  0x2d5d	dec    	eax
  0x2d5e	add    	edi, 8
  0x2d61	dec    	eax
  0x2d62	mov    	dword ptr [esp + 0x28], edi
  === BLOCK LINK ===
    0x2d66
=== CODE BLOCK END ===

=== CODE BLOCK ADDRESS 0x2d66 ===
  0x2d66	jmp    	0x2d3e
  === BLOCK LINK ===
    0x2d68
=== CODE BLOCK END ===

=== CODE BLOCK ADDRESS 0x2d68 ===
  0x2d68	test   	eax, eax
  0x2d6a	je     	0x2d7c
  === BLOCK LINK ===
    0x2d6c
=== CODE BLOCK END ===

=== CODE BLOCK ADDRESS 0x2d6c ===
  0x2d6c	mov    	eax, 0xff
  0x2d71	jmp    	0x2e58
  === BLOCK LINK ===
    0x2d76
=== CODE BLOCK END ===

=== CODE BLOCK ADDRESS 0x2d76 ===
  0x2d76	mov    	dword ptr [0x3368], ebx
  0x2d7c	mov    	eax, dword ptr [0x39ce]
  0x2d82	cmp    	eax, ebx
  0x2d84	jne    	0x2da3
  === BLOCK LINK ===
    0x2d86
=== CODE BLOCK END ===

=== CODE BLOCK ADDRESS 0x2d86 ===
  0x2d86	dec    	eax
  0x2d87	lea    	edx, [0x166b]
  0x2d8d	dec    	eax
  0x2d8e	lea    	ecx, [0x1654]
  0x2d94	call   	0x31ce
  === BLOCK LINK ===
    0x2d99
=== CODE BLOCK END ===

=== CODE BLOCK ADDRESS 0x2d99 ===
  0x2d99	mov    	dword ptr [0x39ad], 2
  0x2da3	test   	esi, esi
  0x2da5	jne    	0x2db0
  === BLOCK LINK ===
    0x2da7
=== CODE BLOCK END ===

=== CODE BLOCK ADDRESS 0x2da7 ===
  0x2da7	xor    	eax, eax
  0x2da9	dec    	eax
  0x2daa	xchg   	dword ptr [0x3998], eax
  0x2db0	dec    	eax
  0x2db1	cmp    	dword ptr [0x39a0], 0
  === BLOCK LINK ===
    0x2db8
=== CODE BLOCK END ===

=== CODE BLOCK ADDRESS 0x2db8 ===
  0x2db8	je     	0x2de4
  === BLOCK LINK ===
    0x2dba
=== CODE BLOCK END ===

=== CODE BLOCK ADDRESS 0x2dba ===
  0x2dba	dec    	eax
  0x2dbb	lea    	ecx, [0x3997]
  0x2dc1	call   	0x3060
  === BLOCK LINK ===
    0x2dc6
=== CODE BLOCK END ===

=== CODE BLOCK ADDRESS 0x2dc6 ===
  0x2dc6	test   	eax, eax
  0x2dc8	je     	0x2de4
  === BLOCK LINK ===
    0x2dca
=== CODE BLOCK END ===

=== CODE BLOCK ADDRESS 0x2dca ===
  0x2dca	inc    	ebp
  0x2dcb	xor    	eax, eax
  0x2dcd	inc    	ecx
  0x2dce	lea    	edx, [eax + 2]
  0x2dd1	xor    	ecx, ecx
  === BLOCK LINK ===
    0x2dd3
=== CODE BLOCK END ===

=== CODE BLOCK ADDRESS 0x2dd3 ===
  0x2dd3	dec    	eax
  0x2dd4	mov    	eax, dword ptr [0x397e]
  0x2dda	dec    	esp
  0x2ddb	mov    	ecx, dword ptr [0x15ff]
  0x2de1	inc    	ecx
  === BLOCK LINK ===
    0x2de2
=== CODE BLOCK END ===

=== CODE BLOCK ADDRESS 0x2de2 ===
  0x2de2	call   	ecx
  === BLOCK LINK ===
    0x2de4
=== CODE BLOCK END ===

=== CODE BLOCK ADDRESS 0x2de4 ===
  0x2de4	dec    	esp
  0x2de5	mov    	eax, dword ptr [0x330d]
  0x2deb	dec    	eax
  0x2dec	mov    	edx, dword ptr [0x32fe]
  0x2df2	mov    	ecx, dword ptr [0x32f0]
  === BLOCK LINK ===
    0x2df8
=== CODE BLOCK END ===

=== CODE BLOCK ADDRESS 0x2df8 ===
  0x2df8	call   	0x1a2c
  === BLOCK LINK ===
    0x2dfd
=== CODE BLOCK END ===

=== CODE BLOCK ADDRESS 0x2dfd ===
  0x2dfd	mov    	dword ptr [0x32dd], eax
  0x2e03	cmp    	dword ptr [0x32f6], 0
  0x2e0a	jne    	0x2e14
  === BLOCK LINK ===
    0x2e0c
=== CODE BLOCK END ===

=== CODE BLOCK ADDRESS 0x2e0c ===
  0x2e0c	mov    	ecx, eax
  0x2e0e	call   	dword ptr [0x152c]
  === BLOCK LINK ===
    0x2e14
=== CODE BLOCK END ===

=== CODE BLOCK ADDRESS 0x2e14 ===
  0x2e14	cmp    	dword ptr [0x32c9], 0
  0x2e1b	jne    	0x2e29
  === BLOCK LINK ===
    0x2e1d
=== CODE BLOCK END ===

=== CODE BLOCK ADDRESS 0x2e1d ===
  0x2e1d	call   	dword ptr [0x14e5]
  === BLOCK LINK ===
    0x2e23
=== CODE BLOCK END ===

=== CODE BLOCK ADDRESS 0x2e23 ===
  0x2e23	mov    	eax, dword ptr [0x32b7]
  0x2e29	jmp    	0x2e58
  === BLOCK LINK ===
    0x2e2b
=== CODE BLOCK END ===

=== CODE BLOCK ADDRESS 0x2e2b ===
  0x2e2b	mov    	dword ptr [0x32af], eax
  0x2e31	cmp    	dword ptr [0x32c8], 0
  0x2e38	jne    	0x2e43
  === BLOCK LINK ===
    0x2e3a
=== CODE BLOCK END ===

=== CODE BLOCK ADDRESS 0x2e3a ===
  0x2e3a	mov    	ecx, eax
  0x2e3c	call   	dword ptr [0x14ae]
  === BLOCK LINK ===
    0x2e42
=== CODE BLOCK END ===

=== CODE BLOCK ADDRESS 0x2e42 ===
  0x2e42	int3   	
  0x2e43	cmp    	dword ptr [0x329a], 0
  0x2e4a	jne    	0x2e58
  === BLOCK LINK ===
    0x2e4c
=== CODE BLOCK END ===

=== CODE BLOCK ADDRESS 0x2e4c ===
  0x2e4c	call   	dword ptr [0x14b6]
  === BLOCK LINK ===
    0x2e52
=== CODE BLOCK END ===

=== CODE BLOCK ADDRESS 0x2e52 ===
  0x2e52	mov    	eax, dword ptr [0x3288]
  0x2e58	dec    	eax
  0x2e59	mov    	ebx, dword ptr [esp + 0x40]
  0x2e5d	dec    	eax
  0x2e5e	mov    	esi, dword ptr [esp + 0x48]
  === BLOCK LINK ===
    0x2e62
=== CODE BLOCK END ===

=== CODE BLOCK ADDRESS 0x2e62 ===
  0x2e62	dec    	eax
  0x2e63	mov    	edi, dword ptr [esp + 0x50]
  0x2e67	dec    	eax
  0x2e68	add    	esp, 0x30
  0x2e6b	inc    	ecx
  === BLOCK LINK ===
    0x2e6c
=== CODE BLOCK END ===

=== CODE BLOCK ADDRESS 0x2e6c ===
  0x2e6c	pop    	edi
  0x2e6d	ret    	
  0x2e6e	int3   	
  0x2e6f	int3   	
  0x2e70	int3   	
  === BLOCK LINK ===
    0x2e71
=== CODE BLOCK END ===

=== CODE BLOCK ADDRESS 0x2e71 ===
  0x2e71	int3   	
  0x2e72	int3   	
  0x2e73	int3   	
  0x2e74	int3   	
  0x2e75	int3   	
  === BLOCK LINK ===
    0x2e76
=== CODE BLOCK END ===

=== CODE BLOCK ADDRESS 0x2e76 ===
  0x2e76	int3   	
  0x2e77	int3   	
  0x2e78	int3   	
  0x2e79	int3   	
  0x2e7a	int3   	
  === BLOCK LINK ===
    0x2e7b
=== CODE BLOCK END ===

=== CODE BLOCK ADDRESS 0x2e7b ===
  0x2e7b	int3   	
  0x2e7c	int3   	
  0x2e7d	int3   	
  0x2e7e	int3   	
  0x2e7f	int3   	
  === BLOCK LINK ===
    0x2e80
=== CODE BLOCK END ===

=== CODE BLOCK ADDRESS 0x2e80 ===
  0x2e80	dec    	eax
  0x2e81	sub    	esp, 0x28
  0x2e84	call   	0x30f4
  === BLOCK LINK ===
    0x2e89
=== CODE BLOCK END ===

=== CODE BLOCK ADDRESS 0x2e89 ===
  0x2e89	dec    	eax
  0x2e8a	add    	esp, 0x28
  0x2e8d	jmp    	0x2cb0
  === BLOCK LINK ===
    0x2e92
=== CODE BLOCK END ===

=== CODE BLOCK ADDRESS 0x2e92 ===
  0x2e92	int3   	
  0x2e93	int3   	
  0x2e94	int3   	
  0x2e95	int3   	
  0x2e96	int3   	
  === BLOCK LINK ===
    0x2e97
=== CODE BLOCK END ===

=== CODE BLOCK ADDRESS 0x2e97 ===
  0x2e97	int3   	
  0x2e98	int3   	
  0x2e99	int3   	
  0x2e9a	int3   	
  0x2e9b	int3   	
  === BLOCK LINK ===
    0x2e9c
=== CODE BLOCK END ===

=== CODE BLOCK ADDRESS 0x2e9c ===
  0x2e9c	int3   	
  0x2e9d	int3   	
  0x2e9e	int3   	
  0x2e9f	int3   	
  0x2ea0	int3   	
  === BLOCK LINK ===
    0x2ea1
=== CODE BLOCK END ===

=== CODE BLOCK ADDRESS 0x2ea1 ===
  0x2ea1	int3   	
  0x2ea2	int3   	
  0x2ea3	int3   	
  0x2ea4	int3   	
  0x2ea5	int3   	
  === BLOCK LINK ===
    0x2ea6
=== CODE BLOCK END ===

=== CODE BLOCK ADDRESS 0x2ea6 ===
  0x2ea6	nop    	word ptr [eax + eax]
  0x2eb0	dec    	eax
  0x2eb1	cmp    	ecx, dword ptr [0x3151]
  0x2eb7	jne    	0x2ec9
  === BLOCK LINK ===
    0x2eb9
=== CODE BLOCK END ===

=== CODE BLOCK ADDRESS 0x2eb9 ===
  0x2eb9	dec    	eax
  0x2eba	rol    	ecx, 0x10
  0x2ebd	test   	cx, 0xffff
  0x2ec2	jne    	0x2ec5
  === BLOCK LINK ===
    0x2ec4
=== CODE BLOCK END ===

=== CODE BLOCK ADDRESS 0x2ec4 ===
  0x2ec4	ret    	
  0x2ec5	dec    	eax
  0x2ec6	ror    	ecx, 0x10
  0x2ec9	jmp    	0x3240
  === BLOCK LINK ===
    0x2ece
=== CODE BLOCK END ===

=== CODE BLOCK ADDRESS 0x124b ===
  0x124b	dec    	esp
  0x124c	mov    	eax, dword ptr [ebx + edi*8]
  0x124f	dec    	eax
  0x1250	mov    	ecx, eax
  === BLOCK LINK ===
    0x1252
=== CODE BLOCK END ===

=== CODE BLOCK ADDRESS 0x2ece ===
  0x2ece	int3   	
  0x2ecf	int3   	
  0x2ed0	int3   	
  0x2ed1	int3   	
  0x2ed2	int3   	
  === BLOCK LINK ===
    0x2ed3
=== CODE BLOCK END ===

=== CODE BLOCK ADDRESS 0x2ed3 ===
  0x2ed3	int3   	
  0x2ed4	int3   	
  0x2ed5	int3   	
  0x2ed6	int3   	
  0x2ed7	int3   	
  === BLOCK LINK ===
    0x2ed8
=== CODE BLOCK END ===

=== CODE BLOCK ADDRESS 0x2ed8 ===
  0x2ed8	int3   	
  0x2ed9	int3   	
  0x2eda	int3   	
  0x2edb	int3   	
  0x2edc	int3   	
  === BLOCK LINK ===
    0x2edd
=== CODE BLOCK END ===

=== CODE BLOCK ADDRESS 0x2edd ===
  0x2edd	int3   	
  0x2ede	int3   	
  0x2edf	int3   	
  0x2ee0	dec    	eax
  0x2ee1	sub    	esp, 0x28
  === BLOCK LINK ===
    0x2ee4
=== CODE BLOCK END ===

=== CODE BLOCK ADDRESS 0x2ee4 ===
  0x2ee4	dec    	eax
  0x2ee5	mov    	eax, dword ptr [ecx]
  0x2ee7	cmp    	dword ptr [eax], 0xe06d7363
  0x2eed	jne    	0x2f12
  === BLOCK LINK ===
    0x2eef
=== CODE BLOCK END ===

=== CODE BLOCK ADDRESS 0x2eef ===
  0x2eef	cmp    	dword ptr [eax + 0x18], 4
  0x2ef3	jne    	0x2f12
  === BLOCK LINK ===
    0x2ef5
=== CODE BLOCK END ===

=== CODE BLOCK ADDRESS 0x2ef5 ===
  0x2ef5	mov    	ecx, dword ptr [eax + 0x20]
  0x2ef8	lea    	eax, [ecx - 0x19930520]
  0x2efe	cmp    	eax, 2
  0x2f01	jbe    	0x2f0b
  === BLOCK LINK ===
    0x2f03
=== CODE BLOCK END ===

=== CODE BLOCK ADDRESS 0x2f03 ===
  0x2f03	cmp    	ecx, 0x1994000
  0x2f09	jne    	0x2f12
  === BLOCK LINK ===
    0x2f0b
=== CODE BLOCK END ===

=== CODE BLOCK ADDRESS 0x2f0b ===
  0x2f0b	call   	dword ptr [0x141f]
  === BLOCK LINK ===
    0x2f11
=== CODE BLOCK END ===

=== CODE BLOCK ADDRESS 0x2f11 ===
  0x2f11	int3   	
  0x2f12	xor    	eax, eax
  0x2f14	dec    	eax
  0x2f15	add    	esp, 0x28
  0x2f18	ret    	
  === BLOCK LINK ===
    0x2f19
=== CODE BLOCK END ===

=== CODE BLOCK ADDRESS 0x2f19 ===
  0x2f19	int3   	
  0x2f1a	int3   	
  0x2f1b	int3   	
  0x2f1c	int3   	
  0x2f1d	int3   	
  === BLOCK LINK ===
    0x2f1e
=== CODE BLOCK END ===

=== CODE BLOCK ADDRESS 0x2f1e ===
  0x2f1e	int3   	
  0x2f1f	int3   	
  0x2f20	dec    	eax
  0x2f21	sub    	esp, 0x28
  0x2f24	dec    	eax
  === BLOCK LINK ===
    0x2f25
=== CODE BLOCK END ===

=== CODE BLOCK ADDRESS 0x2f25 ===
  0x2f25	lea    	ecx, [0xffffffb5]
  0x2f2b	call   	dword ptr [0x1297]
  === BLOCK LINK ===
    0x2f31
=== CODE BLOCK END ===

=== CODE BLOCK ADDRESS 0x2f31 ===
  0x2f31	xor    	eax, eax
  0x2f33	dec    	eax
  0x2f34	add    	esp, 0x28
  0x2f37	ret    	
  0x2f38	int3   	
  === BLOCK LINK ===
    0x2f39
=== CODE BLOCK END ===

=== CODE BLOCK ADDRESS 0x2f39 ===
  0x2f39	int3   	
  0x2f3a	int3   	
  0x2f3b	int3   	
  0x2f3c	int3   	
  0x2f3d	int3   	
  === BLOCK LINK ===
    0x2f3e
=== CODE BLOCK END ===

=== CODE BLOCK ADDRESS 0x2f3e ===
  0x2f3e	jmp    	dword ptr [0x141c]
  === BLOCK LINK ===
    0x2f44
=== CODE BLOCK END ===

=== CODE BLOCK ADDRESS 0x2f44 ===
  0x2f44	int3   	
  0x2f45	int3   	
  0x2f46	int3   	
  0x2f47	int3   	
  0x2f48	int3   	
  === BLOCK LINK ===
    0x2f49
=== CODE BLOCK END ===

=== CODE BLOCK ADDRESS 0x2f49 ===
  0x2f49	int3   	
  0x2f4a	int3   	
  0x2f4b	int3   	
  0x2f4c	dec    	eax
  0x2f4d	sub    	esp, 0x18
  === BLOCK LINK ===
    0x2f50
=== CODE BLOCK END ===

=== CODE BLOCK ADDRESS 0x2f50 ===
  0x2f50	xor    	edx, edx
  0x2f52	dec    	eax
  0x2f53	lea    	eax, [ecx - 1]
  0x2f56	dec    	eax
  0x2f57	cmp    	eax, -3
  === BLOCK LINK ===
    0x2f5a
=== CODE BLOCK END ===

=== CODE BLOCK ADDRESS 0x2f5a ===
  0x2f5a	ja     	0x2f98
  === BLOCK LINK ===
    0x2f5c
=== CODE BLOCK END ===

=== CODE BLOCK ADDRESS 0x2f5c ===
  0x2f5c	mov    	eax, 0x5a4d
  0x2f61	cmp    	word ptr [ecx], ax
  0x2f64	jne    	0x2f90
  === BLOCK LINK ===
    0x2f66
=== CODE BLOCK END ===

=== CODE BLOCK ADDRESS 0x2f66 ===
  0x2f66	cmp    	dword ptr [ecx + 0x3c], edx
  0x2f69	jl     	0x2f90
  === BLOCK LINK ===
    0x2f6b
=== CODE BLOCK END ===

=== CODE BLOCK ADDRESS 0x2f6b ===
  0x2f6b	cmp    	dword ptr [ecx + 0x3c], 0x10000000
  0x2f72	jae    	0x2f90
  === BLOCK LINK ===
    0x2f74
=== CODE BLOCK END ===

=== CODE BLOCK ADDRESS 0x2f74 ===
  0x2f74	dec    	eax
  0x2f75	arpl   	word ptr [ecx + 0x3c], ax
  0x2f78	dec    	eax
  0x2f79	add    	eax, ecx
  0x2f7b	dec    	eax
  === BLOCK LINK ===
    0x2f7c
=== CODE BLOCK END ===

=== CODE BLOCK ADDRESS 0x2f7c ===
  0x2f7c	mov    	dword ptr [esp], eax
  0x2f7f	cmp    	dword ptr [eax], 0x4550
  0x2f85	dec    	eax
  0x2f86	cmovne  	eax, edx
  0x2f89	dec    	eax
  === BLOCK LINK ===
    0x2f8a
=== CODE BLOCK END ===

=== CODE BLOCK ADDRESS 0x2f8a ===
  0x2f8a	mov    	edx, eax
  0x2f8c	dec    	eax
  0x2f8d	mov    	dword ptr [esp], eax
  0x2f90	jmp    	0x2f98
  === BLOCK LINK ===
    0x2f92
=== CODE BLOCK END ===

=== CODE BLOCK ADDRESS 0x2f92 ===
  0x2f92	xor    	edx, edx
  0x2f94	dec    	eax
  0x2f95	mov    	dword ptr [esp], edx
  0x2f98	dec    	eax
  0x2f99	mov    	eax, edx
  === BLOCK LINK ===
    0x2f9b
=== CODE BLOCK END ===

=== CODE BLOCK ADDRESS 0x2f9b ===
  0x2f9b	dec    	eax
  0x2f9c	add    	esp, 0x18
  0x2f9f	ret    	
  0x2fa0	int3   	
  0x2fa1	int3   	
  === BLOCK LINK ===
    0x2fa2
=== CODE BLOCK END ===

=== CODE BLOCK ADDRESS 0x1259 ===
  0x1259	dec    	eax
  0x125a	mov    	ebx, dword ptr [esp + 0x40]
  0x125e	dec    	eax
  0x125f	mov    	esi, dword ptr [esp + 0x48]
  === BLOCK LINK ===
    0x1263
=== CODE BLOCK END ===

=== CODE BLOCK ADDRESS 0x2fa2 ===
  0x2fa2	int3   	
  0x2fa3	int3   	
  0x2fa4	int3   	
  0x2fa5	int3   	
  0x2fa6	int3   	
  === BLOCK LINK ===
    0x2fa7
=== CODE BLOCK END ===

=== CODE BLOCK ADDRESS 0x2fa7 ===
  0x2fa7	int3   	
  0x2fa8	inc    	eax
  0x2fa9	push   	ebx
  0x2faa	dec    	eax
  0x2fab	sub    	esp, 0x20
  === BLOCK LINK ===
    0x2fae
=== CODE BLOCK END ===

=== CODE BLOCK ADDRESS 0x2fae ===
  0x2fae	mov    	ebx, ecx
  0x2fb0	xor    	ecx, ecx
  0x2fb2	call   	dword ptr [0x1260]
  === BLOCK LINK ===
    0x2fb8
=== CODE BLOCK END ===

=== CODE BLOCK ADDRESS 0x2fb8 ===
  0x2fb8	dec    	eax
  0x2fb9	test   	eax, eax
  0x2fbb	je     	0x2fe5
  === BLOCK LINK ===
    0x2fbd
=== CODE BLOCK END ===

=== CODE BLOCK ADDRESS 0x2fbd ===
  0x2fbd	dec    	eax
  0x2fbe	mov    	ecx, eax
  0x2fc0	call   	0x2f4c
  === BLOCK LINK ===
    0x2fc5
=== CODE BLOCK END ===

=== CODE BLOCK ADDRESS 0x2fc5 ===
  0x2fc5	dec    	eax
  0x2fc6	test   	eax, eax
  0x2fc8	je     	0x2fe5
  === BLOCK LINK ===
    0x2fca
=== CODE BLOCK END ===

=== CODE BLOCK ADDRESS 0x2fca ===
  0x2fca	mov    	ecx, 2
  0x2fcf	cmp    	word ptr [eax + 0x5c], cx
  0x2fd3	jne    	0x2fd9
  === BLOCK LINK ===
    0x2fd5
=== CODE BLOCK END ===

=== CODE BLOCK ADDRESS 0x2fd5 ===
  0x2fd5	mov    	eax, ecx
  0x2fd7	jmp    	0x2fe7
  === BLOCK LINK ===
    0x2fd9
=== CODE BLOCK END ===

=== CODE BLOCK ADDRESS 0x2fd9 ===
  0x2fd9	cmp    	word ptr [eax + 0x5c], 3
  0x2fde	mov    	eax, 1
  0x2fe3	je     	0x2fe7
  === BLOCK LINK ===
    0x2fe5
=== CODE BLOCK END ===

=== CODE BLOCK ADDRESS 0x2fe5 ===
  0x2fe5	mov    	eax, ebx
  0x2fe7	dec    	eax
  0x2fe8	add    	esp, 0x20
  0x2feb	pop    	ebx
  0x2fec	ret    	
  === BLOCK LINK ===
    0x2fed
=== CODE BLOCK END ===

=== CODE BLOCK ADDRESS 0x2fed ===
  0x2fed	int3   	
  0x2fee	int3   	
  0x2fef	int3   	
  0x2ff0	int3   	
  0x2ff1	int3   	
  === BLOCK LINK ===
    0x2ff2
=== CODE BLOCK END ===

=== CODE BLOCK ADDRESS 0x2ff2 ===
  0x2ff2	int3   	
  0x2ff3	jmp    	dword ptr [0x131f]
  === BLOCK LINK ===
    0x2ff9
=== CODE BLOCK END ===

=== CODE BLOCK ADDRESS 0x2ff9 ===
  0x2ff9	int3   	
  0x2ffa	int3   	
  0x2ffb	int3   	
  0x2ffc	int3   	
  0x2ffd	int3   	
  === BLOCK LINK ===
    0x2ffe
=== CODE BLOCK END ===

=== CODE BLOCK ADDRESS 0x2ffe ===
  0x2ffe	int3   	
  0x2fff	int3   	
  0x3000	xor    	eax, eax
  0x3002	ret    	
  0x3003	int3   	
  === BLOCK LINK ===
    0x3004
=== CODE BLOCK END ===

=== CODE BLOCK ADDRESS 0x3004 ===
  0x3004	int3   	
  0x3005	int3   	
  0x3006	int3   	
  0x3007	int3   	
  0x3008	int3   	
  === BLOCK LINK ===
    0x3009
=== CODE BLOCK END ===

=== CODE BLOCK ADDRESS 0x3009 ===
  0x3009	int3   	
  0x300a	int3   	
  0x300b	int3   	
  0x300c	int3   	
  0x300d	int3   	
  === BLOCK LINK ===
    0x300e
=== CODE BLOCK END ===

=== CODE BLOCK ADDRESS 0x300e ===
  0x300e	int3   	
  0x300f	int3   	
  0x3010	dec    	esp
  0x3011	arpl   	word ptr [ecx + 0x3c], ax
  0x3014	inc    	ebp
  === BLOCK LINK ===
    0x3015
=== CODE BLOCK END ===

=== CODE BLOCK ADDRESS 0x3015 ===
  0x3015	xor    	ecx, ecx
  0x3017	dec    	esp
  0x3018	add    	eax, ecx
  0x301a	dec    	esp
  0x301b	mov    	edx, edx
  === BLOCK LINK ===
    0x301d
=== CODE BLOCK END ===

=== CODE BLOCK ADDRESS 0x301d ===
  0x301d	inc    	ecx
  0x301e	movzx  	eax, word ptr [eax + 0x14]
  0x3022	inc    	ebp
  0x3023	movzx  	ebx, word ptr [eax + 6]
  0x3027	dec    	eax
  === BLOCK LINK ===
    0x3028
=== CODE BLOCK END ===

=== CODE BLOCK ADDRESS 0x3028 ===
  0x3028	add    	eax, 0x18
  0x302b	dec    	ecx
  0x302c	add    	eax, eax
  0x302e	inc    	ebp
  0x302f	test   	ebx, ebx
  === BLOCK LINK ===
    0x3031
=== CODE BLOCK END ===

=== CODE BLOCK ADDRESS 0x3031 ===
  0x3031	je     	0x3051
  === BLOCK LINK ===
    0x3033
=== CODE BLOCK END ===

=== CODE BLOCK ADDRESS 0x3033 ===
  0x3033	mov    	edx, dword ptr [eax + 0xc]
  0x3036	dec    	esp
  0x3037	cmp    	edx, edx
  0x3039	jb     	0x3045
  === BLOCK LINK ===
    0x303b
=== CODE BLOCK END ===

=== CODE BLOCK ADDRESS 0x303b ===
  0x303b	mov    	ecx, dword ptr [eax + 8]
  0x303e	add    	ecx, edx
  0x3040	dec    	esp
  0x3041	cmp    	edx, ecx
  0x3043	jb     	0x3053
  === BLOCK LINK ===
    0x3045
=== CODE BLOCK END ===

=== CODE BLOCK ADDRESS 0x3045 ===
  0x3045	inc    	ecx
  0x3046	inc    	ecx
  0x3048	dec    	eax
  0x3049	add    	eax, 0x28
  0x304c	inc    	ebp
  === BLOCK LINK ===
    0x304d
=== CODE BLOCK END ===

=== CODE BLOCK ADDRESS 0x304d ===
  0x304d	cmp    	ecx, ebx
  0x304f	jb     	0x3033
  === BLOCK LINK ===
    0x3051
=== CODE BLOCK END ===

=== CODE BLOCK ADDRESS 0x3051 ===
  0x3051	xor    	eax, eax
  0x3053	ret    	
  0x3054	int3   	
  0x3055	int3   	
  0x3056	int3   	
  === BLOCK LINK ===
    0x3057
=== CODE BLOCK END ===

=== CODE BLOCK ADDRESS 0x3057 ===
  0x3057	int3   	
  0x3058	int3   	
  0x3059	int3   	
  0x305a	int3   	
  0x305b	int3   	
  === BLOCK LINK ===
    0x305c
=== CODE BLOCK END ===

=== CODE BLOCK ADDRESS 0x305c ===
  0x305c	int3   	
  0x305d	int3   	
  0x305e	int3   	
  0x305f	int3   	
  0x3060	dec    	eax
  === BLOCK LINK ===
    0x3061
=== CODE BLOCK END ===

=== CODE BLOCK ADDRESS 0x3061 ===
  0x3061	mov    	dword ptr [esp + 8], ebx
  0x3065	push   	edi
  0x3066	dec    	eax
  0x3067	sub    	esp, 0x20
  0x306a	dec    	eax
  === BLOCK LINK ===
    0x306b
=== CODE BLOCK END ===

=== CODE BLOCK ADDRESS 0x306b ===
  0x306b	mov    	ebx, ecx
  0x306d	dec    	eax
  0x306e	lea    	edi, [0xffffcf8c]
  0x3074	dec    	eax
  0x3075	mov    	ecx, edi
  === BLOCK LINK ===
    0x3077
=== CODE BLOCK END ===

=== CODE BLOCK ADDRESS 0x3077 ===
  0x3077	call   	0x30c0
  === BLOCK LINK ===
    0x307c
=== CODE BLOCK END ===

=== CODE BLOCK ADDRESS 0x307c ===
  0x307c	test   	eax, eax
  0x307e	je     	0x30a2
  === BLOCK LINK ===
    0x3080
=== CODE BLOCK END ===

=== CODE BLOCK ADDRESS 0x3080 ===
  0x3080	dec    	eax
  0x3081	sub    	ebx, edi
  0x3083	dec    	eax
  0x3084	mov    	edx, ebx
  0x3086	dec    	eax
  === BLOCK LINK ===
    0x3087
=== CODE BLOCK END ===

=== CODE BLOCK ADDRESS 0x3087 ===
  0x3087	mov    	ecx, edi
  0x3089	call   	0x3010
  === BLOCK LINK ===
    0x308e
=== CODE BLOCK END ===

=== CODE BLOCK ADDRESS 0x308e ===
  0x308e	dec    	eax
  0x308f	test   	eax, eax
  0x3091	je     	0x30a2
  === BLOCK LINK ===
    0x3093
=== CODE BLOCK END ===

=== CODE BLOCK ADDRESS 0x3093 ===
  0x3093	mov    	eax, dword ptr [eax + 0x24]
  0x3096	shr    	eax, 0x1f
  0x3099	not    	eax
  0x309b	and    	eax, 1
  0x309e	jmp    	0x30a2
  === BLOCK LINK ===
    0x30a0
=== CODE BLOCK END ===

=== CODE BLOCK ADDRESS 0x30a0 ===
  0x30a0	xor    	eax, eax
  0x30a2	dec    	eax
  0x30a3	mov    	ebx, dword ptr [esp + 0x30]
  0x30a7	dec    	eax
  0x30a8	add    	esp, 0x20
  === BLOCK LINK ===
    0x30ab
=== CODE BLOCK END ===

=== CODE BLOCK ADDRESS 0x30ab ===
  0x30ab	pop    	edi
  0x30ac	ret    	
  0x30ad	int3   	
  0x30ae	int3   	
  0x30af	int3   	
  === BLOCK LINK ===
    0x30b0
=== CODE BLOCK END ===

=== CODE BLOCK ADDRESS 0x3486 ===
  0x3486	jmp    	dword ptr [0xeac]
  === BLOCK LINK ===
    0x348c
=== CODE BLOCK END ===

=== CODE BLOCK ADDRESS 0x30b0 ===
  0x30b0	int3   	
  0x30b1	int3   	
  0x30b2	int3   	
  0x30b3	int3   	
  0x30b4	int3   	
  === BLOCK LINK ===
    0x30b5
=== CODE BLOCK END ===

=== CODE BLOCK ADDRESS 0x30b5 ===
  0x30b5	int3   	
  0x30b6	int3   	
  0x30b7	int3   	
  0x30b8	int3   	
  0x30b9	int3   	
  === BLOCK LINK ===
    0x30ba
=== CODE BLOCK END ===

=== CODE BLOCK ADDRESS 0x30ba ===
  0x30ba	int3   	
  0x30bb	int3   	
  0x30bc	int3   	
  0x30bd	int3   	
  0x30be	int3   	
  === BLOCK LINK ===
    0x30bf
=== CODE BLOCK END ===

=== CODE BLOCK ADDRESS 0x30bf ===
  0x30bf	int3   	
  0x30c0	mov    	eax, 0x5a4d
  0x30c5	cmp    	word ptr [ecx], ax
  0x30c8	jne    	0x30ea
  === BLOCK LINK ===
    0x30ca
=== CODE BLOCK END ===

=== CODE BLOCK ADDRESS 0x30ca ===
  0x30ca	dec    	eax
  0x30cb	arpl   	word ptr [ecx + 0x3c], ax
  0x30ce	dec    	eax
  0x30cf	add    	eax, ecx
  0x30d1	cmp    	dword ptr [eax], 0x4550
  === BLOCK LINK ===
    0x30d7
=== CODE BLOCK END ===

=== CODE BLOCK ADDRESS 0x30d7 ===
  0x30d7	jne    	0x30ea
  === BLOCK LINK ===
    0x30d9
=== CODE BLOCK END ===

=== CODE BLOCK ADDRESS 0x30d9 ===
  0x30d9	mov    	ecx, 0x20b
  0x30de	cmp    	word ptr [eax + 0x18], cx
  0x30e2	jne    	0x30ea
  === BLOCK LINK ===
    0x30e4
=== CODE BLOCK END ===

=== CODE BLOCK ADDRESS 0x30e4 ===
  0x30e4	mov    	eax, 1
  0x30e9	ret    	
  0x30ea	xor    	eax, eax
  0x30ec	ret    	
  0x30ed	int3   	
  === BLOCK LINK ===
    0x30ee
=== CODE BLOCK END ===

=== CODE BLOCK ADDRESS 0x132f ===
  0x132f	dec    	eax
  0x1330	mov    	ecx, edi
  === BLOCK LINK ===
    0x1332
=== CODE BLOCK END ===

=== CODE BLOCK ADDRESS 0x13dd ===
  0x13dd	dec    	esp
  0x13de	lea    	ebx, [esp + 0x80]
  0x13e5	dec    	ecx
  0x13e6	mov    	ebx, dword ptr [ebx + 0x20]
  === BLOCK LINK ===
    0x13e9
=== CODE BLOCK END ===

=== CODE BLOCK ADDRESS 0x30ee ===
  0x30ee	int3   	
  0x30ef	int3   	
  0x30f0	int3   	
  0x30f1	int3   	
  0x30f2	int3   	
  === BLOCK LINK ===
    0x30f3
=== CODE BLOCK END ===

=== CODE BLOCK ADDRESS 0x30f3 ===
  0x30f3	int3   	
  0x30f4	dec    	eax
  0x30f5	mov    	dword ptr [esp + 0x20], ebx
  0x30f9	push   	ebp
  0x30fa	dec    	eax
  === BLOCK LINK ===
    0x30fb
=== CODE BLOCK END ===

=== CODE BLOCK ADDRESS 0x30fb ===
  0x30fb	mov    	ebp, esp
  0x30fd	dec    	eax
  0x30fe	sub    	esp, 0x20
  0x3101	dec    	eax
  0x3102	and    	dword ptr [ebp + 0x18], 0
  === BLOCK LINK ===
    0x3106
=== CODE BLOCK END ===

=== CODE BLOCK ADDRESS 0x3106 ===
  0x3106	dec    	eax
  0x3107	mov    	ebx, 0x2ddfa232
  0x310c	cdq    	
  0x310d	sub    	eax, dword ptr [eax]
  0x310f	add    	byte ptr [eax - 0x75], cl
  === BLOCK LINK ===
    0x3112
=== CODE BLOCK END ===

=== CODE BLOCK ADDRESS 0x3112 ===
  0x3112	add    	eax, 0x2ef1
  0x3117	dec    	eax
  0x3118	cmp    	eax, ebx
  0x311a	jne    	0x31b3
  === BLOCK LINK ===
    0x3120
=== CODE BLOCK END ===

=== CODE BLOCK ADDRESS 0x3120 ===
  0x3120	dec    	eax
  0x3121	lea    	ecx, [ebp + 0x18]
  0x3124	call   	dword ptr [0x11ae]
  === BLOCK LINK ===
    0x312a
=== CODE BLOCK END ===

=== CODE BLOCK ADDRESS 0x312a ===
  0x312a	dec    	eax
  0x312b	mov    	eax, dword ptr [ebp + 0x18]
  0x312e	dec    	eax
  0x312f	mov    	dword ptr [ebp + 0x10], eax
  0x3132	call   	dword ptr [0x1118]
  === BLOCK LINK ===
    0x3138
=== CODE BLOCK END ===

=== CODE BLOCK ADDRESS 0x3138 ===
  0x3138	mov    	eax, eax
  0x313a	dec    	eax
  0x313b	xor    	dword ptr [ebp + 0x10], eax
  0x313e	call   	dword ptr [0x1124]
  === BLOCK LINK ===
    0x3144
=== CODE BLOCK END ===

=== CODE BLOCK ADDRESS 0x3144 ===
  0x3144	mov    	eax, eax
  0x3146	dec    	eax
  0x3147	xor    	dword ptr [ebp + 0x10], eax
  0x314a	call   	dword ptr [0x1190]
  === BLOCK LINK ===
    0x3150
=== CODE BLOCK END ===

=== CODE BLOCK ADDRESS 0x3150 ===
  0x3150	mov    	eax, eax
  0x3152	dec    	eax
  0x3153	shl    	eax, 0x18
  0x3156	dec    	eax
  0x3157	xor    	dword ptr [ebp + 0x10], eax
  === BLOCK LINK ===
    0x315a
=== CODE BLOCK END ===

=== CODE BLOCK ADDRESS 0x315a ===
  0x315a	call   	dword ptr [0x1180]
  === BLOCK LINK ===
    0x3160
=== CODE BLOCK END ===

=== CODE BLOCK ADDRESS 0x3160 ===
  0x3160	mov    	eax, eax
  0x3162	dec    	eax
  0x3163	lea    	ecx, [ebp + 0x10]
  0x3166	dec    	eax
  0x3167	xor    	eax, dword ptr [ebp + 0x10]
  === BLOCK LINK ===
    0x316a
=== CODE BLOCK END ===

=== CODE BLOCK ADDRESS 0x316a ===
  0x316a	dec    	eax
  0x316b	xor    	eax, ecx
  0x316d	dec    	eax
  0x316e	lea    	ecx, [ebp + 0x20]
  0x3171	dec    	eax
  === BLOCK LINK ===
    0x3172
=== CODE BLOCK END ===

=== CODE BLOCK ADDRESS 0x3172 ===
  0x3172	mov    	dword ptr [ebp + 0x10], eax
  0x3175	call   	dword ptr [0x10fd]
  === BLOCK LINK ===
    0x317b
=== CODE BLOCK END ===

=== CODE BLOCK ADDRESS 0x317b ===
  0x317b	mov    	eax, dword ptr [ebp + 0x20]
  0x317e	dec    	eax
  0x317f	mov    	ecx, 0xffffffff
  0x3184	.byte  	0xff
  0x3185	inc    	dword ptr [eax]
  === BLOCK LINK ===
    0x3187
=== CODE BLOCK END ===

=== CODE BLOCK ADDRESS 0x3187 ===
  0x3187	add    	byte ptr [eax - 0x3f], cl
  0x318a	loopne  	0x31ac
  === BLOCK LINK ===
    0x318c
=== CODE BLOCK END ===

=== CODE BLOCK ADDRESS 0x318c ===
  0x318c	dec    	eax
  0x318d	xor    	eax, dword ptr [ebp + 0x20]
  0x3190	dec    	eax
  0x3191	xor    	eax, dword ptr [ebp + 0x10]
  0x3194	dec    	eax
  === BLOCK LINK ===
    0x3195
=== CODE BLOCK END ===

=== CODE BLOCK ADDRESS 0x3195 ===
  0x3195	and    	eax, ecx
  0x3197	dec    	eax
  0x3198	mov    	ecx, eax
  0x319a	dec    	eax
  0x319b	cmp    	eax, ebx
  === BLOCK LINK ===
    0x319d
=== CODE BLOCK END ===

=== CODE BLOCK ADDRESS 0x319d ===
  0x319d	jne    	0x31ac
  === BLOCK LINK ===
    0x319f
=== CODE BLOCK END ===

=== CODE BLOCK ADDRESS 0x319f ===
  0x319f	dec    	eax
  0x31a0	mov    	eax, 0x2ddfa233
  0x31a5	cdq    	
  0x31a6	sub    	eax, dword ptr [eax]
  0x31a8	add    	byte ptr [eax - 0x75], cl
  === BLOCK LINK ===
    0x31ab
=== CODE BLOCK END ===

=== CODE BLOCK ADDRESS 0x31ab ===
  0x31ab	enter  	-0x76b8, 0xd
  0x31af	push   	ebp
  0x31b0	add    	byte ptr cs:[eax], al
  0x31b3	dec    	eax
  0x31b4	mov    	ebx, dword ptr [esp + 0x48]
  === BLOCK LINK ===
    0x31b8
=== CODE BLOCK END ===

=== CODE BLOCK ADDRESS 0x31b8 ===
  0x31b8	dec    	eax
  0x31b9	not    	eax
  0x31bb	dec    	eax
  0x31bc	mov    	dword ptr [0x2e4e], eax
  0x31c2	dec    	eax
  === BLOCK LINK ===
    0x31c3
=== CODE BLOCK END ===

=== CODE BLOCK ADDRESS 0x31c3 ===
  0x31c3	add    	esp, 0x20
  0x31c6	pop    	ebp
  0x31c7	ret    	
  0x31c8	int3   	
  0x31c9	int3   	
  === BLOCK LINK ===
    0x31ca
=== CODE BLOCK END ===

=== CODE BLOCK ADDRESS 0x31ca ===
  0x31ca	int3   	
  0x31cb	int3   	
  0x31cc	int3   	
  0x31cd	int3   	
  0x31ce	jmp    	dword ptr [0x1124]
  === BLOCK LINK ===
    0x31d4
=== CODE BLOCK END ===

=== CODE BLOCK ADDRESS 0x31d4 ===
  0x31d4	int3   	
  0x31d5	int3   	
  0x31d6	int3   	
  0x31d7	int3   	
  0x31d8	int3   	
  === BLOCK LINK ===
    0x31d9
=== CODE BLOCK END ===

=== CODE BLOCK ADDRESS 0x31d9 ===
  0x31d9	int3   	
  0x31da	jmp    	dword ptr [0x1190]
  === BLOCK LINK ===
    0x31e0
=== CODE BLOCK END ===

=== CODE BLOCK ADDRESS 0x31e0 ===
  0x31e0	int3   	
  0x31e1	int3   	
  0x31e2	int3   	
  0x31e3	int3   	
  0x31e4	int3   	
  === BLOCK LINK ===
    0x31e5
=== CODE BLOCK END ===

=== CODE BLOCK ADDRESS 0x31e5 ===
  0x31e5	int3   	
  0x31e6	int3   	
  0x31e7	int3   	
  0x31e8	int3   	
  0x31e9	int3   	
  === BLOCK LINK ===
    0x31ea
=== CODE BLOCK END ===

=== CODE BLOCK ADDRESS 0x31ea ===
  0x31ea	int3   	
  0x31eb	int3   	
  0x31ec	int3   	
  0x31ed	int3   	
  0x31ee	int3   	
  === BLOCK LINK ===
    0x31ef
=== CODE BLOCK END ===

=== CODE BLOCK ADDRESS 0x31ef ===
  0x31ef	int3   	
  0x31f0	ret    	0
  0x31f3	int3   	
  0x31f4	int3   	
  0x31f5	int3   	
  === BLOCK LINK ===
    0x31f6
=== CODE BLOCK END ===

=== CODE BLOCK ADDRESS 0x31f6 ===
  0x31f6	int3   	
  0x31f7	int3   	
  0x31f8	int3   	
  0x31f9	int3   	
  0x31fa	int3   	
  === BLOCK LINK ===
    0x31fb
=== CODE BLOCK END ===

=== CODE BLOCK ADDRESS 0x31fb ===
  0x31fb	int3   	
  0x31fc	inc    	eax
  0x31fd	push   	ebx
  0x31fe	dec    	eax
  0x31ff	sub    	esp, 0x20
  === BLOCK LINK ===
    0x3202
=== CODE BLOCK END ===

=== CODE BLOCK ADDRESS 0x3202 ===
  0x3202	dec    	eax
  0x3203	mov    	ebx, ecx
  0x3205	xor    	ecx, ecx
  0x3207	call   	dword ptr [0xfbb]
  === BLOCK LINK ===
    0x320d
=== CODE BLOCK END ===

=== CODE BLOCK ADDRESS 0x320d ===
  0x320d	dec    	eax
  0x320e	mov    	ecx, ebx
  0x3210	call   	dword ptr [0xfaa]
  === BLOCK LINK ===
    0x3216
=== CODE BLOCK END ===

=== CODE BLOCK ADDRESS 0x3216 ===
  0x3216	call   	dword ptr [0x103c]
  === BLOCK LINK ===
    0x321c
=== CODE BLOCK END ===

=== CODE BLOCK ADDRESS 0x321c ===
  0x321c	dec    	eax
  0x321d	mov    	ecx, eax
  0x321f	mov    	edx, 0xc0000409
  0x3224	dec    	eax
  0x3225	add    	esp, 0x20
  === BLOCK LINK ===
    0x3228
=== CODE BLOCK END ===

=== CODE BLOCK ADDRESS 0x3228 ===
  0x3228	pop    	ebx
  0x3229	dec    	eax
  0x322a	jmp    	dword ptr [0x1030]
  === BLOCK LINK ===
    0x3230
=== CODE BLOCK END ===

=== CODE BLOCK ADDRESS 0x3230 ===
  0x3230	int3   	
  0x3231	int3   	
  0x3232	int3   	
  0x3233	int3   	
  0x3234	int3   	
  === BLOCK LINK ===
    0x3235
=== CODE BLOCK END ===

=== CODE BLOCK ADDRESS 0x3235 ===
  0x3235	int3   	
  0x3236	int3   	
  0x3237	int3   	
  0x3238	int3   	
  0x3239	int3   	
  === BLOCK LINK ===
    0x323a
=== CODE BLOCK END ===

=== CODE BLOCK ADDRESS 0x323a ===
  0x323a	int3   	
  0x323b	int3   	
  0x323c	int3   	
  0x323d	int3   	
  0x323e	int3   	
  === BLOCK LINK ===
    0x323f
=== CODE BLOCK END ===

=== CODE BLOCK ADDRESS 0x323f ===
  0x323f	int3   	
  0x3240	dec    	eax
  0x3241	mov    	dword ptr [esp + 8], ecx
  0x3245	dec    	eax
  0x3246	sub    	esp, 0x88
  === BLOCK LINK ===
    0x324c
=== CODE BLOCK END ===

=== CODE BLOCK ADDRESS 0x324c ===
  0x324c	dec    	eax
  0x324d	lea    	ecx, [0x2f6d]
  0x3253	call   	dword ptr [0x1037]
  === BLOCK LINK ===
    0x3259
=== CODE BLOCK END ===

=== CODE BLOCK ADDRESS 0x3259 ===
  0x3259	dec    	eax
  0x325a	mov    	eax, dword ptr [0x3058]
  0x3260	dec    	eax
  0x3261	mov    	dword ptr [esp + 0x48], eax
  0x3265	inc    	ebp
  === BLOCK LINK ===
    0x3266
=== CODE BLOCK END ===

=== CODE BLOCK ADDRESS 0x3266 ===
  0x3266	xor    	eax, eax
  0x3268	dec    	eax
  0x3269	lea    	edx, [esp + 0x50]
  0x326d	dec    	eax
  0x326e	mov    	ecx, dword ptr [esp + 0x48]
  === BLOCK LINK ===
    0x3272
=== CODE BLOCK END ===

=== CODE BLOCK ADDRESS 0x3272 ===
  0x3272	call   	dword ptr [0x1020]
  === BLOCK LINK ===
    0x3278
=== CODE BLOCK END ===

=== CODE BLOCK ADDRESS 0x3278 ===
  0x3278	dec    	eax
  0x3279	mov    	dword ptr [esp + 0x40], eax
  0x327d	dec    	eax
  0x327e	cmp    	dword ptr [esp + 0x40], 0
  0x3283	je     	0x32c7
  === BLOCK LINK ===
    0x3285
=== CODE BLOCK END ===

=== CODE BLOCK ADDRESS 0x3285 ===
  0x3285	dec    	eax
  0x3286	mov    	dword ptr [esp + 0x38], 0
  0x328e	dec    	eax
  0x328f	lea    	eax, [esp + 0x58]
  0x3293	dec    	eax
  === BLOCK LINK ===
    0x3294
=== CODE BLOCK END ===

=== CODE BLOCK ADDRESS 0x3294 ===
  0x3294	mov    	dword ptr [esp + 0x30], eax
  0x3298	dec    	eax
  0x3299	lea    	eax, [esp + 0x60]
  0x329d	dec    	eax
  0x329e	mov    	dword ptr [esp + 0x28], eax
  === BLOCK LINK ===
    0x32a2
=== CODE BLOCK END ===

=== CODE BLOCK ADDRESS 0x32a2 ===
  0x32a2	dec    	eax
  0x32a3	lea    	eax, [0x2f17]
  0x32a9	dec    	eax
  0x32aa	mov    	dword ptr [esp + 0x20], eax
  0x32ae	dec    	esp
  === BLOCK LINK ===
    0x32af
=== CODE BLOCK END ===

=== CODE BLOCK ADDRESS 0x32af ===
  0x32af	mov    	ecx, dword ptr [esp + 0x40]
  0x32b3	dec    	esp
  0x32b4	mov    	eax, dword ptr [esp + 0x48]
  0x32b8	dec    	eax
  0x32b9	mov    	edx, dword ptr [esp + 0x50]
  === BLOCK LINK ===
    0x32bd
=== CODE BLOCK END ===

=== CODE BLOCK ADDRESS 0x32bd ===
  0x32bd	xor    	ecx, ecx
  0x32bf	call   	dword ptr [0xfc3]
  === BLOCK LINK ===
    0x32c5
=== CODE BLOCK END ===

=== CODE BLOCK ADDRESS 0x32c5 ===
  0x32c5	jmp    	0x32ea
  === BLOCK LINK ===
    0x32c7
=== CODE BLOCK END ===

=== CODE BLOCK ADDRESS 0x32c7 ===
  0x32c7	dec    	eax
  0x32c8	mov    	eax, dword ptr [0x2f8a]
  0x32ce	dec    	eax
  0x32cf	mov    	eax, dword ptr [eax]
  0x32d1	dec    	eax
  === BLOCK LINK ===
    0x32d2
=== CODE BLOCK END ===

=== CODE BLOCK ADDRESS 0x32d2 ===
  0x32d2	mov    	dword ptr [0x2fe0], eax
  0x32d8	dec    	eax
  0x32d9	mov    	eax, dword ptr [0x2f79]
  0x32df	dec    	eax
  0x32e0	add    	eax, 8
  === BLOCK LINK ===
    0x32e3
=== CODE BLOCK END ===

=== CODE BLOCK ADDRESS 0x32e3 ===
  0x32e3	dec    	eax
  0x32e4	mov    	dword ptr [0x2f6e], eax
  0x32ea	dec    	eax
  0x32eb	mov    	eax, dword ptr [0x2fc7]
  0x32f1	dec    	eax
  === BLOCK LINK ===
    0x32f2
=== CODE BLOCK END ===

=== CODE BLOCK ADDRESS 0x32f2 ===
  0x32f2	mov    	dword ptr [0x2e38], eax
  0x32f8	dec    	eax
  0x32f9	mov    	eax, dword ptr [esp + 0x90]
  0x3300	dec    	eax
  0x3301	mov    	dword ptr [0x2f39], eax
  === BLOCK LINK ===
    0x3307
=== CODE BLOCK END ===

=== CODE BLOCK ADDRESS 0x3307 ===
  0x3307	mov    	dword ptr [0x2e0f], 0xc0000409
  0x3311	mov    	dword ptr [0x2e09], 1
  0x331b	mov    	dword ptr [0x2e13], 3
  0x3325	mov    	eax, 8
  0x332a	dec    	eax
  === BLOCK LINK ===
    0x332b
=== CODE BLOCK END ===

=== CODE BLOCK ADDRESS 0x332b ===
  0x332b	imul   	eax, eax, 0
  0x332e	dec    	eax
  0x332f	lea    	ecx, [0x2e0b]
  0x3335	dec    	eax
  0x3336	mov    	dword ptr [ecx + eax], 2
  === BLOCK LINK ===
    0x333d
=== CODE BLOCK END ===

=== CODE BLOCK ADDRESS 0x333d ===
  0x333d	mov    	eax, 8
  0x3342	dec    	eax
  0x3343	imul   	eax, eax, 1
  0x3346	dec    	eax
  0x3347	lea    	ecx, [0x2df3]
  === BLOCK LINK ===
    0x334d
=== CODE BLOCK END ===

=== CODE BLOCK ADDRESS 0x334d ===
  0x334d	dec    	eax
  0x334e	mov    	edx, dword ptr [0x2cb4]
  0x3354	dec    	eax
  0x3355	mov    	dword ptr [ecx + eax], edx
  0x3358	mov    	eax, 8
  === BLOCK LINK ===
    0x335d
=== CODE BLOCK END ===

=== CODE BLOCK ADDRESS 0x335d ===
  0x335d	dec    	eax
  0x335e	imul   	eax, eax, 2
  0x3361	dec    	eax
  0x3362	lea    	ecx, [0x2dd8]
  0x3368	dec    	eax
  === BLOCK LINK ===
    0x3369
=== CODE BLOCK END ===

=== CODE BLOCK ADDRESS 0x3369 ===
  0x3369	mov    	edx, dword ptr [0x2ca1]
  0x336f	dec    	eax
  0x3370	mov    	dword ptr [ecx + eax], edx
  0x3373	mov    	eax, 8
  0x3378	dec    	eax
  === BLOCK LINK ===
    0x3379
=== CODE BLOCK END ===

=== CODE BLOCK ADDRESS 0x3379 ===
  0x3379	imul   	eax, eax, 0
  0x337c	dec    	eax
  0x337d	mov    	ecx, dword ptr [0x2c85]
  0x3383	dec    	eax
  0x3384	mov    	dword ptr [esp + eax + 0x68], ecx
  === BLOCK LINK ===
    0x3388
=== CODE BLOCK END ===

=== CODE BLOCK ADDRESS 0x3388 ===
  0x3388	mov    	eax, 8
  0x338d	dec    	eax
  0x338e	imul   	eax, eax, 1
  0x3391	dec    	eax
  0x3392	mov    	ecx, dword ptr [0x2c78]
  === BLOCK LINK ===
    0x3398
=== CODE BLOCK END ===

=== CODE BLOCK ADDRESS 0x3398 ===
  0x3398	dec    	eax
  0x3399	mov    	dword ptr [esp + eax + 0x68], ecx
  0x339d	dec    	eax
  0x339e	lea    	ecx, [0xc5c]
  0x33a4	call   	0x31fc
  === BLOCK LINK ===
    0x33a9
=== CODE BLOCK END ===

=== CODE BLOCK ADDRESS 0x33a9 ===
  0x33a9	dec    	eax
  0x33aa	add    	esp, 0x88
  0x33b0	ret    	
  0x33b1	int3   	
  0x33b2	int3   	
  === BLOCK LINK ===
    0x33b3
=== CODE BLOCK END ===

=== CODE BLOCK ADDRESS 0x33b3 ===
  0x33b3	int3   	
  0x33b4	int3   	
  0x33b5	int3   	
  0x33b6	int3   	
  0x33b7	int3   	
  === BLOCK LINK ===
    0x33b8
=== CODE BLOCK END ===

=== CODE BLOCK ADDRESS 0x33b8 ===
  0x33b8	int3   	
  0x33b9	int3   	
  0x33ba	int3   	
  0x33bb	int3   	
  0x33bc	int3   	
  === BLOCK LINK ===
    0x33bd
=== CODE BLOCK END ===

=== CODE BLOCK ADDRESS 0x33bd ===
  0x33bd	int3   	
  0x33be	int3   	
  0x33bf	int3   	
  0x33c0	int3   	
  0x33c1	int3   	
  === BLOCK LINK ===
    0x33c2
=== CODE BLOCK END ===

=== CODE BLOCK ADDRESS 0x33c2 ===
  0x33c2	int3   	
  0x33c3	int3   	
  0x33c4	int3   	
  0x33c5	int3   	
  0x33c6	int3   	
  === BLOCK LINK ===
    0x33c7
=== CODE BLOCK END ===

=== CODE BLOCK ADDRESS 0x33c7 ===
  0x33c7	int3   	
  0x33c8	inc    	eax
  0x33c9	push   	ebx
  0x33ca	dec    	eax
  0x33cb	sub    	esp, 0x20
  === BLOCK LINK ===
    0x33ce
=== CODE BLOCK END ===

=== CODE BLOCK ADDRESS 0x33ce ===
  0x33ce	mov    	ebx, ecx
  0x33d0	call   	0x33ec
  === BLOCK LINK ===
    0x33d5
=== CODE BLOCK END ===

=== CODE BLOCK ADDRESS 0x33d5 ===
  0x33d5	dec    	eax
  0x33d6	lea    	edx, [ebx + ebx*2]
  0x33d9	dec    	eax
  0x33da	shl    	edx, 4
  0x33dd	dec    	eax
  === BLOCK LINK ===
    0x33de
=== CODE BLOCK END ===

=== CODE BLOCK ADDRESS 0x33de ===
  0x33de	add    	eax, edx
  0x33e0	dec    	eax
  0x33e1	add    	esp, 0x20
  0x33e4	pop    	ebx
  0x33e5	ret    	
  === BLOCK LINK ===
    0x33e6
=== CODE BLOCK END ===

=== CODE BLOCK ADDRESS 0x33e6 ===
  0x33e6	int3   	
  0x33e7	int3   	
  0x33e8	int3   	
  0x33e9	int3   	
  0x33ea	int3   	
  === BLOCK LINK ===
    0x33eb
=== CODE BLOCK END ===

=== CODE BLOCK ADDRESS 0x33eb ===
  0x33eb	int3   	
  0x33ec	jmp    	dword ptr [0xf86]
  === BLOCK LINK ===
    0x33f2
=== CODE BLOCK END ===

=== CODE BLOCK ADDRESS 0x33f2 ===
  0x33f2	int3   	
  0x33f3	int3   	
  0x33f4	int3   	
  0x33f5	int3   	
  0x33f6	int3   	
  === BLOCK LINK ===
    0x33f7
=== CODE BLOCK END ===

=== CODE BLOCK ADDRESS 0x33f7 ===
  0x33f7	int3   	
  0x33f8	dec    	eax
  0x33f9	sub    	esp, 0x28
  0x33fc	dec    	ebp
  0x33fd	mov    	eax, dword ptr [ecx + 0x38]
  === BLOCK LINK ===
    0x3400
=== CODE BLOCK END ===

=== CODE BLOCK ADDRESS 0x3400 ===
  0x3400	dec    	eax
  0x3401	mov    	ecx, edx
  0x3403	dec    	ecx
  0x3404	mov    	edx, ecx
  0x3406	call   	0x341c
  === BLOCK LINK ===
    0x340b
=== CODE BLOCK END ===

=== CODE BLOCK ADDRESS 0x340b ===
  0x340b	mov    	eax, 1
  0x3410	dec    	eax
  0x3411	add    	esp, 0x28
  0x3414	ret    	
  0x3415	int3   	
  === BLOCK LINK ===
    0x3416
=== CODE BLOCK END ===

=== CODE BLOCK ADDRESS 0x1394 ===
  0x1394	dec    	eax
  0x1395	lea    	eax, [ecx + 0x7ffffbfd]
  0x139b	dec    	eax
  === BLOCK LINK ===
    0x139c
=== CODE BLOCK END ===

=== CODE BLOCK ADDRESS 0x3416 ===
  0x3416	int3   	
  0x3417	int3   	
  0x3418	int3   	
  0x3419	int3   	
  0x341a	int3   	
  === BLOCK LINK ===
    0x341b
=== CODE BLOCK END ===

=== CODE BLOCK ADDRESS 0x341b ===
  0x341b	int3   	
  0x341c	inc    	eax
  0x341d	push   	ebx
  0x341e	inc    	ebp
  0x341f	mov    	ebx, dword ptr [eax]
  === BLOCK LINK ===
    0x3421
=== CODE BLOCK END ===

=== CODE BLOCK ADDRESS 0x3421 ===
  0x3421	dec    	eax
  0x3422	mov    	ebx, edx
  0x3424	inc    	ecx
  0x3425	and    	ebx, 0xfffffff8
  0x3428	dec    	esp
  === BLOCK LINK ===
    0x3429
=== CODE BLOCK END ===

=== CODE BLOCK ADDRESS 0x3429 ===
  0x3429	mov    	ecx, ecx
  0x342b	inc    	ecx
  0x342c	test   	byte ptr [eax], 4
  0x342f	dec    	esp
  0x3430	mov    	edx, ecx
  === BLOCK LINK ===
    0x3432
=== CODE BLOCK END ===

=== CODE BLOCK ADDRESS 0x3432 ===
  0x3432	je     	0x3447
  === BLOCK LINK ===
    0x3434
=== CODE BLOCK END ===

=== CODE BLOCK ADDRESS 0x3434 ===
  0x3434	inc    	ecx
  0x3435	mov    	eax, dword ptr [eax + 8]
  0x3438	dec    	ebp
  0x3439	arpl   	word ptr [eax + 4], dx
  0x343c	neg    	eax
  === BLOCK LINK ===
    0x343e
=== CODE BLOCK END ===

=== CODE BLOCK ADDRESS 0x343e ===
  0x343e	dec    	esp
  0x343f	add    	edx, ecx
  0x3441	dec    	eax
  0x3442	arpl   	ax, cx
  0x3444	dec    	esp
  === BLOCK LINK ===
    0x3445
=== CODE BLOCK END ===

=== CODE BLOCK ADDRESS 0x3445 ===
  0x3445	and    	edx, ecx
  0x3447	dec    	ecx
  0x3448	arpl   	bx, ax
  0x344a	dec    	edx
  0x344b	mov    	edx, dword ptr [eax + edx]
  === BLOCK LINK ===
    0x344e
=== CODE BLOCK END ===

=== CODE BLOCK ADDRESS 0x344e ===
  0x344e	dec    	eax
  0x344f	mov    	eax, dword ptr [ebx + 0x10]
  0x3452	mov    	ecx, dword ptr [eax + 8]
  0x3455	dec    	eax
  0x3456	mov    	eax, dword ptr [ebx + 8]
  === BLOCK LINK ===
    0x3459
=== CODE BLOCK END ===

=== CODE BLOCK ADDRESS 0x3459 ===
  0x3459	test   	byte ptr [ecx + eax + 3], 0xf
  0x345e	je     	0x346b
  === BLOCK LINK ===
    0x3460
=== CODE BLOCK END ===

=== CODE BLOCK ADDRESS 0x3460 ===
  0x3460	movzx  	eax, byte ptr [ecx + eax + 3]
  0x3465	and    	eax, 0xfffffff0
  0x3468	dec    	esp
  0x3469	add    	ecx, eax
  0x346b	dec    	esp
  === BLOCK LINK ===
    0x346c
=== CODE BLOCK END ===

=== CODE BLOCK ADDRESS 0x346c ===
  0x346c	xor    	ecx, edx
  0x346e	dec    	ecx
  0x346f	mov    	ecx, ecx
  0x3471	pop    	ebx
  0x3472	jmp    	0x2eb0
  === BLOCK LINK ===
    0x3477
=== CODE BLOCK END ===

=== CODE BLOCK ADDRESS 0x3477 ===
  0x3477	int3   	
  0x3478	int3   	
  0x3479	int3   	
  0x347a	int3   	
  0x347b	int3   	
  === BLOCK LINK ===
    0x347c
=== CODE BLOCK END ===

=== CODE BLOCK ADDRESS 0x347c ===
  0x347c	int3   	
  0x347d	int3   	
  0x347e	int3   	
  0x347f	int3   	
  0x3480	int3   	
  === BLOCK LINK ===
    0x3481
=== CODE BLOCK END ===

=== CODE BLOCK ADDRESS 0x3481 ===
  0x3481	int3   	
  0x3482	int3   	
  0x3483	int3   	
  0x3484	int3   	
  0x3485	int3   	
  === BLOCK LINK ===
    0x3486
=== CODE BLOCK END ===

=== CODE BLOCK ADDRESS 0x348c ===
  0x348c	int3   	
  0x348d	int3   	
  0x348e	int3   	
  0x348f	int3   	
  0x3490	int3   	
  === BLOCK LINK ===
    0x3491
=== CODE BLOCK END ===

=== CODE BLOCK ADDRESS 0x3491 ===
  0x3491	int3   	
  0x3492	jmp    	dword ptr [0xf20]
  === BLOCK LINK ===
    0x3498
=== CODE BLOCK END ===

=== CODE BLOCK ADDRESS 0x3498 ===
  0x3498	int3   	
  0x3499	int3   	
  0x349a	int3   	
  0x349b	int3   	
  0x349c	int3   	
  === BLOCK LINK ===
    0x349d
=== CODE BLOCK END ===

=== CODE BLOCK ADDRESS 0x349d ===
  0x349d	int3   	
  0x349e	int3   	
  0x349f	int3   	
  0x34a0	int3   	
  0x34a1	int3   	
  === BLOCK LINK ===
    0x34a2
=== CODE BLOCK END ===

=== CODE BLOCK ADDRESS 0x34a2 ===
  0x34a2	int3   	
  0x34a3	int3   	
  0x34a4	int3   	
  0x34a5	int3   	
  0x34a6	nop    	word ptr [eax + eax]
  === BLOCK LINK ===
    0x34b0
=== CODE BLOCK END ===

=== CODE BLOCK ADDRESS 0x34b0 ===
  0x34b0	jmp    	eax
  === BLOCK LINK ===
    0x34b2
=== CODE BLOCK END ===

=== CODE BLOCK ADDRESS 0x34b2 ===
  0x34b2	int3   	
  0x34b3	int3   	
  0x34b4	int3   	
  0x34b5	int3   	
  0x34b6	int3   	
  === BLOCK LINK ===
    0x34b7
=== CODE BLOCK END ===

=== CODE BLOCK ADDRESS 0x34b7 ===
  0x34b7	int3   	
  0x34b8	int3   	
  0x34b9	int3   	
  0x34ba	int3   	
  0x34bb	int3   	
  === BLOCK LINK ===
    0x34bc
=== CODE BLOCK END ===

=== CODE BLOCK ADDRESS 0x34bc ===
  0x34bc	int3   	
  0x34bd	int3   	
  0x34be	int3   	
  0x34bf	int3   	
  0x34c0	int3   	
  === BLOCK LINK ===
    0x34c1
=== CODE BLOCK END ===

=== CODE BLOCK ADDRESS 0x34c1 ===
  0x34c1	int3   	
  0x34c2	int3   	
  0x34c3	int3   	
  0x34c4	int3   	
  0x34c5	int3   	
  === BLOCK LINK ===
    0x34c6
=== CODE BLOCK END ===

=== CODE BLOCK ADDRESS 0x34c6 ===
  0x34c6	nop    	word ptr [eax + eax]
  0x34d0	dec    	eax
  0x34d1	sub    	esp, 0x10
  0x34d4	dec    	esp
  0x34d5	mov    	dword ptr [esp], edx
  === BLOCK LINK ===
    0x34d8
=== CODE BLOCK END ===

=== CODE BLOCK ADDRESS 0x34d8 ===
  0x34d8	dec    	esp
  0x34d9	mov    	dword ptr [esp + 8], ebx
  0x34dd	dec    	ebp
  0x34de	xor    	ebx, ebx
  0x34e0	dec    	esp
  === BLOCK LINK ===
    0x34e1
=== CODE BLOCK END ===

=== CODE BLOCK ADDRESS 0x34e1 ===
  0x34e1	lea    	edx, [esp + 0x18]
  0x34e5	dec    	esp
  0x34e6	sub    	edx, eax
  0x34e8	dec    	ebp
  0x34e9	cmovb  	edx, ebx
  === BLOCK LINK ===
    0x34ec
=== CODE BLOCK END ===

=== CODE BLOCK ADDRESS 0x34ec ===
  0x34ec	dec    	esp
  0x34ee	mov    	ebx, dword ptr [0x10]
  0x34f5	dec    	ebp
  0x34f6	cmp    	edx, ebx
  0x34f8	jae    	0x350f
  === BLOCK LINK ===
    0x34fa
=== CODE BLOCK END ===

=== CODE BLOCK ADDRESS 0x34fa ===
  0x34fa	inc    	cx
  0x34fc	and    	edx, 0x8d4df000
  0x3502	wait   	
  0x3503	add    	al, dh
  0x3505	.byte  	0xff
  === BLOCK LINK ===
    0x3506
=== CODE BLOCK END ===

=== CODE BLOCK ADDRESS 0x3506 ===
  0x3506	inc    	dword ptr [ebp - 0x7c]
  0x3509	sbb    	ecx, dword ptr [ebp + 0x3b]
  0x350c	sal    	dword ptr [edx - 0xf], cl
  0x350f	dec    	esp
  0x3510	mov    	edx, dword ptr [esp]
  === BLOCK LINK ===
    0x3513
=== CODE BLOCK END ===

=== CODE BLOCK ADDRESS 0x3513 ===
  0x3513	dec    	esp
  0x3514	mov    	ebx, dword ptr [esp + 8]
  0x3518	dec    	eax
  0x3519	add    	esp, 0x10
  0x351c	ret    	
  === BLOCK LINK ===
    0x351d
=== CODE BLOCK END ===

=== CODE BLOCK ADDRESS 0x351d ===
  0x351d	int3   	
  0x351e	int3   	
  0x351f	int3   	
  0x3520	int3   	
  0x3521	int3   	
  === BLOCK LINK ===
    0x3522
=== CODE BLOCK END ===

=== CODE BLOCK ADDRESS 0x3522 ===
  0x3522	int3   	
  0x3523	inc    	eax
  0x3524	push   	ebp
  0x3525	dec    	eax
  0x3526	sub    	esp, 0x20
  === BLOCK LINK ===
    0x3529
=== CODE BLOCK END ===

=== CODE BLOCK ADDRESS 0x3529 ===
  0x3529	dec    	eax
  0x352a	mov    	ebp, edx
  0x352c	dec    	eax
  0x352d	mov    	eax, dword ptr [ecx]
  0x352f	dec    	eax
  === BLOCK LINK ===
    0x3530
=== CODE BLOCK END ===

=== CODE BLOCK ADDRESS 0x3530 ===
  0x3530	mov    	edx, ecx
  0x3532	mov    	ecx, dword ptr [eax]
  0x3534	call   	0x2f3e
  === BLOCK LINK ===
    0x3539
=== CODE BLOCK END ===

=== CODE BLOCK ADDRESS 0x3539 ===
  0x3539	nop    	
  0x353a	dec    	eax
  0x353b	add    	esp, 0x20
  0x353e	pop    	ebp
  0x353f	ret    	
  === BLOCK LINK ===
    0x3540
=== CODE BLOCK END ===

=== CODE BLOCK ADDRESS 0x3540 ===
  0x3540	int3   	
  0x3541	int3   	
  0x3542	int3   	
  0x3543	int3   	
  0x3544	int3   	
  === BLOCK LINK ===
    0x3545
=== CODE BLOCK END ===

=== CODE BLOCK ADDRESS 0x3545 ===
  0x3545	int3   	
  0x3546	int3   	
  0x3547	int3   	
  0x3548	int3   	
  0x3549	int3   	
  === BLOCK LINK ===
    0x354a
=== CODE BLOCK END ===

=== CODE BLOCK ADDRESS 0x354a ===
  0x354a	int3   	
  0x354b	int3   	
  0x354c	int3   	
  0x354d	int3   	
  0x354e	int3   	
  === BLOCK LINK ===
    0x354f
=== CODE BLOCK END ===

=== CODE BLOCK ADDRESS 0x354f ===
  0x354f	int3   	
  0x3550	inc    	eax
  0x3551	push   	ebp
  0x3552	dec    	eax
  0x3553	sub    	esp, 0x20
  === BLOCK LINK ===
    0x3556
=== CODE BLOCK END ===

=== CODE BLOCK ADDRESS 0x3556 ===
  0x3556	dec    	eax
  0x3557	mov    	ebp, edx
  0x3559	dec    	eax
  0x355a	mov    	eax, dword ptr [ecx]
  0x355c	xor    	ecx, ecx
  === BLOCK LINK ===
    0x355e
=== CODE BLOCK END ===

=== CODE BLOCK ADDRESS 0x355e ===
  0x355e	cmp    	dword ptr [eax], 0xc0000005
  0x3564	sete   	cl
  0x3567	mov    	eax, ecx
  0x3569	dec    	eax
  0x356a	add    	esp, 0x20
  === BLOCK LINK ===
    0x356d
=== CODE BLOCK END ===

=== CODE BLOCK ADDRESS 0x356d ===
  0x356d	pop    	ebp
  0x356e	ret    	
  0x356f	int3   	
  0x3570	add    	byte ptr [eax], al
  0x3572	add    	byte ptr [eax], al
  === BLOCK LINK ===
    0x3574
=== CODE BLOCK END ===

=== CODE BLOCK ADDRESS 0x14bd ===
  0x14bd	dec    	eax
  0x14be	add    	esp, 0x20
  0x14c1	pop    	ebx
  0x14c2	ret    	
  === BLOCK LINK ===
    0x14c3
=== CODE BLOCK END ===

=== CODE BLOCK ADDRESS 0x3574 ===
  0x3574	add    	byte ptr [eax], al
  0x3576	add    	byte ptr [eax], al
  0x3578	add    	byte ptr [eax], al
  0x357a	add    	byte ptr [eax], al
  0x357c	add    	byte ptr [eax], al
  === BLOCK LINK ===
    0x357e
=== CODE BLOCK END ===

=== CODE BLOCK ADDRESS 0x357e ===
  0x357e	add    	byte ptr [eax], al
  0x3580	add    	byte ptr [eax], al
  0x3582	add    	byte ptr [eax], al
  0x3584	add    	byte ptr [eax], al
  0x3586	add    	byte ptr [eax], al
  === BLOCK LINK ===
    0x3588
=== CODE BLOCK END ===

=== CODE BLOCK ADDRESS 0x3588 ===
  0x3588	add    	byte ptr [eax], al
  0x358a	add    	byte ptr [eax], al
  0x358c	add    	byte ptr [eax], al
  0x358e	add    	byte ptr [eax], al
  0x3590	add    	byte ptr [eax], al
  === BLOCK LINK ===
    0x3592
=== CODE BLOCK END ===

=== CODE BLOCK ADDRESS 0x3592 ===
  0x3592	add    	byte ptr [eax], al
  0x3594	add    	byte ptr [eax], al
  0x3596	add    	byte ptr [eax], al
  0x3598	add    	byte ptr [eax], al
  0x359a	add    	byte ptr [eax], al
  === BLOCK LINK ===
    0x359c
=== CODE BLOCK END ===

=== CODE BLOCK ADDRESS 0x359c ===
  0x359c	add    	byte ptr [eax], al
  0x359e	add    	byte ptr [eax], al
  0x35a0	add    	byte ptr [eax], al
  0x35a2	add    	byte ptr [eax], al
  0x35a4	add    	byte ptr [eax], al
  === BLOCK LINK ===
    0x35a6
=== CODE BLOCK END ===

=== CODE BLOCK ADDRESS 0x35a6 ===
  0x35a6	add    	byte ptr [eax], al
  0x35a8	add    	byte ptr [eax], al
  0x35aa	add    	byte ptr [eax], al
  0x35ac	add    	byte ptr [eax], al
  0x35ae	add    	byte ptr [eax], al
  === BLOCK LINK ===
    0x35b0
=== CODE BLOCK END ===

=== CODE BLOCK ADDRESS 0x35b0 ===
  0x35b0	add    	byte ptr [eax], al
  0x35b2	add    	byte ptr [eax], al
  0x35b4	add    	byte ptr [eax], al
  0x35b6	add    	byte ptr [eax], al
  0x35b8	add    	byte ptr [eax], al
  === BLOCK LINK ===
    0x35ba
=== CODE BLOCK END ===

=== CODE BLOCK ADDRESS 0x35ba ===
  0x35ba	add    	byte ptr [eax], al
  0x35bc	add    	byte ptr [eax], al
  0x35be	add    	byte ptr [eax], al
  0x35c0	add    	byte ptr [eax], al
  0x35c2	add    	byte ptr [eax], al
  === BLOCK LINK ===
    0x35c4
=== CODE BLOCK END ===

=== CODE BLOCK ADDRESS 0x35c4 ===
  0x35c4	add    	byte ptr [eax], al
  0x35c6	add    	byte ptr [eax], al
  0x35c8	add    	byte ptr [eax], al
  0x35ca	add    	byte ptr [eax], al
  0x35cc	add    	byte ptr [eax], al
  === BLOCK LINK ===
    0x35ce
=== CODE BLOCK END ===

=== CODE BLOCK ADDRESS 0x35ce ===
  0x35ce	add    	byte ptr [eax], al
  0x35d0	add    	byte ptr [eax], al
  0x35d2	add    	byte ptr [eax], al
  0x35d4	add    	byte ptr [eax], al
  0x35d6	add    	byte ptr [eax], al
  === BLOCK LINK ===
    0x35d8
=== CODE BLOCK END ===

=== CODE BLOCK ADDRESS 0x35d8 ===
  0x35d8	add    	byte ptr [eax], al
  0x35da	add    	byte ptr [eax], al
  0x35dc	add    	byte ptr [eax], al
  0x35de	add    	byte ptr [eax], al
  0x35e0	add    	byte ptr [eax], al
  === BLOCK LINK ===
    0x35e2
=== CODE BLOCK END ===

=== CODE BLOCK ADDRESS 0x35e2 ===
  0x35e2	add    	byte ptr [eax], al
  0x35e4	add    	byte ptr [eax], al
  0x35e6	add    	byte ptr [eax], al
  0x35e8	add    	byte ptr [eax], al
  0x35ea	add    	byte ptr [eax], al
  === BLOCK LINK ===
    0x35ec
=== CODE BLOCK END ===

=== CODE BLOCK ADDRESS 0x35ec ===
  0x35ec	add    	byte ptr [eax], al
  0x35ee	add    	byte ptr [eax], al
  0x35f0	add    	byte ptr [eax], al
  0x35f2	add    	byte ptr [eax], al
  0x35f4	add    	byte ptr [eax], al
  === BLOCK LINK ===
    0x35f6
=== CODE BLOCK END ===

=== CODE BLOCK ADDRESS 0x35f6 ===
  0x35f6	add    	byte ptr [eax], al
  0x35f8	add    	byte ptr [eax], al
  0x35fa	add    	byte ptr [eax], al
  0x35fc	add    	byte ptr [eax], al
=== CODE BLOCK END ===

=== DATA BLOCK ADDRESS 0x4000 ===
  0x4000	20 61 00 40 01 00 00 00 c0 61 00 40 01 00 00 00 	 a0@00000a0@0000
  0x4010	18 01 00 00 00 00 00 00 00 00 00 00 00 00 00 00 	0000000000000000
  0x4020	00 00 00 00 00 00 00 00 00 00 00 00 00 00 00 00 	0000000000000000
  0x4030	00 00 00 00 00 00 00 00 00 00 00 00 00 00 00 00 	0000000000000000
  0x4040	00 00 00 00 00 00 00 00 00 00 00 00 00 00 00 00 	0000000000000000
  0x4050	00 00 00 00 00 00 00 00 00 00 00 00 00 00 00 00 	0000000000000000
  0x4060	00 00 00 00 00 00 00 00 08 60 00 40 01 00 00 00 	000000000`0@0000
  0x4070	00 00 00 00 00 00 00 00 00 00 00 00 00 00 00 00 	0000000000000000
  0x4080	d8 43 00 40 01 00 00 00 e0 43 00 40 01 00 00 00 	0C0@00000C0@0000
  0x4090	20 44 00 40 01 00 00 00 09 00 00 00 00 00 00 00 	 D0@000000000000
  0x40a0	00 75 01 00 00 00 00 00 00 00 00 00 00 00 00 00 	0u00000000000000
  0x40b0	00 00 00 00 00 00 00 00 00 00 00 00 00 00 00 00 	0000000000000000
  0x40c0	00 00 00 00 00 00 00 00 00 00 00 00 00 00 00 00 	0000000000000000
  0x40d0	00 00 00 00 00 00 00 00 00 00 00 00 00 00 00 00 	0000000000000000
  0x40e0	00 00 00 00 00 00 00 00 00 00 00 00 00 00 00 00 	0000000000000000
  0x40f0	00 00 00 00 00 00 00 00 00 00 00 00 00 00 00 00 	0000000000000000
  0x4100	00 00 00 00 00 00 00 00 00 00 00 00 00 00 00 00 	0000000000000000
  0x4110	00 00 00 00 00 00 00 00 00 00 00 00 00 00 00 00 	0000000000000000
  0x4120	00 00 00 00 00 00 00 00 9c 4f 00 00 00 00 00 00 	000000000O000000
  0x4130	32 4f 00 00 00 00 00 00 c2 4e 00 00 00 00 00 00 	2O0000000N000000
  0x4140	b0 4e 00 00 00 00 00 00 14 4f 00 00 00 00 00 00 	0N0000000O000000
  0x4150	80 4e 00 00 00 00 00 00 4c 4f 00 00 00 00 00 00 	0N000000LO000000
  0x4160	00 00 00 00 00 00 00 00 74 00 00 00 00 00 00 80 	00000000t0000000
  0x4170	73 00 00 00 00 00 00 80 8c 4f 00 00 00 00 00 00 	s00000000O000000
  0x4180	6c 4f 00 00 00 00 00 00 60 4f 00 00 00 00 00 00 	lO000000`O000000
  0x4190	92 4e 00 00 00 00 00 00 17 00 00 00 00 00 00 80 	0N00000000000000
  0x41a0	03 00 00 00 00 00 00 80 00 00 00 00 00 00 00 00 	0000000000000000
  0x41b0	ea 50 00 00 00 00 00 00 00 00 00 00 00 00 00 00 	0P00000000000000
  0x41c0	8c 50 00 00 00 00 00 00 b8 4f 00 00 00 00 00 00 	0P0000000O000000
  0x41d0	d4 4e 00 00 00 00 00 00 00 00 00 00 00 00 00 00 	0N00000000000000
  0x41e0	24 51 00 00 00 00 00 00 00 00 00 00 00 00 00 00 	$Q00000000000000
  0x41f0	fe 4e 00 00 00 00 00 00 00 00 00 00 00 00 00 00 	0N00000000000000
  0x4200	26 4f 00 00 00 00 00 00 a2 4e 00 00 00 00 00 00 	&O0000000N000000
  0x4210	00 00 00 00 00 00 00 00 d6 4f 00 00 00 00 00 00 	000000000O000000
  0x4220	00 00 00 00 00 00 00 00 fc 50 00 00 00 00 00 00 	000000000P000000
  0x4230	6a 4e 00 00 00 00 00 00 00 00 00 00 00 00 00 00 	jN00000000000000
  0x4240	d0 50 00 00 00 00 00 00 00 00 00 00 00 00 00 00 	0P00000000000000
  0x4250	04 50 00 00 00 00 00 00 a8 50 00 00 00 00 00 00 	0P0000000P000000
  0x4260	bc 50 00 00 00 00 00 00 1a 50 00 00 00 00 00 00 	0P0000000P000000
  0x4270	00 00 00 00 00 00 00 00 ea 4f 00 00 00 00 00 00 	000000000O000000
  0x4280	00 00 00 00 00 00 00 00 78 50 00 00 00 00 00 00 	00000000xP000000
  0x4290	4a 50 00 00 00 00 00 00 5e 50 00 00 00 00 00 00 	JP000000^P000000
  0x42a0	00 00 00 00 00 00 00 00 0e 51 00 00 00 00 00 00 	000000000Q000000
  0x42b0	00 00 00 00 00 00 00 00 42 4f 00 00 00 00 00 00 	00000000BO000000
  0x42c0	00 00 00 00 00 00 00 00 b0 4f 00 00 00 00 00 00 	000000000O000000
  0x42d0	00 00 00 00 00 00 00 00 30 50 00 00 00 00 00 00 	000000000P000000
  0x42e0	7c 4f 00 00 00 00 00 00 00 00 00 00 00 00 00 00 	|O00000000000000
  0x42f0	ea 4d 00 00 00 00 00 00 10 4e 00 00 00 00 00 00 	0M0000000N000000
  0x4300	fc 4d 00 00 00 00 00 00 f2 4d 00 00 00 00 00 00 	0M0000000M000000
  0x4310	c6 4d 00 00 00 00 00 00 b8 4d 00 00 00 00 00 00 	0M0000000M000000
  0x4320	e2 53 00 00 00 00 00 00 d8 4d 00 00 00 00 00 00 	0S0000000M000000
  0x4330	56 4e 00 00 00 00 00 00 f8 53 00 00 00 00 00 00 	VN0000000S000000
  0x4340	98 4d 00 00 00 00 00 00 34 4e 00 00 00 00 00 00 	0M0000004N000000
  0x4350	3e 4e 00 00 00 00 00 00 ec 53 00 00 00 00 00 00 	>N0000000S000000
  0x4360	aa 4d 00 00 00 00 00 00 a0 4d 00 00 00 00 00 00 	0M0000000M000000
  0x4370	1c 4e 00 00 00 00 00 00 82 53 00 00 00 00 00 00 	0N0000000S000000
  0x4380	90 53 00 00 00 00 00 00 a2 53 00 00 00 00 00 00 	0S0000000S000000
  0x4390	ae 53 00 00 00 00 00 00 b8 53 00 00 00 00 00 00 	0S0000000S000000
  0x43a0	c4 53 00 00 00 00 00 00 ce 53 00 00 00 00 00 00 	0S0000000S000000
  0x43b0	d8 53 00 00 00 00 00 00 02 54 00 00 00 00 00 00 	0S0000000T000000
  0x43c0	00 00 00 00 00 00 00 00 e4 4e 00 00 00 00 00 00 	000000000N000000
  0x43d0	00 00 00 00 00 00 00 00 f0 31 00 40 01 00 00 00 	00000000010@0000
  0x43e0	b0 34 00 40 01 00 00 00 00 00 00 00 00 00 00 00 	040@000000000000
  0x43f0	60 2c 00 40 01 00 00 00 00 00 00 00 00 00 00 00 	`,0@000000000000
  0x4400	00 00 00 00 00 00 00 00 80 2b 00 40 01 00 00 00 	000000000+0@0000
  0x4410	20 2f 00 40 01 00 00 00 00 00 00 00 00 00 00 00 	 /0@000000000000
  0x4420	10 14 00 00 80 2b 00 00 60 2c 00 00 80 2e 00 00 	00000+00`,000.00
  0x4430	e0 2e 00 00 20 2f 00 00 00 30 00 00 f0 31 00 00 	0.00 /0000000100
  0x4440	40 32 00 00 00 00 00 00 00 00 00 00 00 00 00 00 	@200000000000000
  0x4450	49 00 50 00 76 00 34 00 00 00 00 00 00 00 00 00 	I0P0v04000000000
  0x4460	49 00 50 00 76 00 36 00 00 00 00 00 2d 69 00 00 	I0P0v0600000-i00
  0x4470	4f 00 75 00 74 00 70 00 75 00 74 00 45 00 6e 00 	O0u0t0p0u0t0E0n0
  0x4480	63 00 6f 00 64 00 69 00 6e 00 67 00 00 00 00 00 	c0o0d0i0n0g00000
  0x4490	55 00 6e 00 69 00 63 00 6f 00 64 00 65 00 00 00 	U0n0i0c0o0d0e000
  0x44a0	41 00 6e 00 73 00 69 00 00 00 00 00 00 00 00 00 	A0n0s0i000000000
  0x44b0	55 00 54 00 46 00 38 00 00 00 00 00 00 00 00 00 	U0T0F08000000000
  0x44c0	55 00 54 00 46 00 2d 00 38 00 00 00 ff fe 00 00 	U0T0F0-080000000
  0x44d0	ef bb bf 00 00 00 00 00 25 00 6c 00 73 00 00 00 	00000000%0l0s000
  0x44e0	00 00 00 00 39 ff 43 ca 00 00 00 00 02 00 00 00 	000090C000000000
  0x44f0	25 00 00 00 34 45 00 00 34 2f 00 00 00 00 00 00 	%0004E004/000000
  0x4500	39 ff 43 ca 00 00 00 00 0d 00 00 00 f0 01 00 00 	90C0000000000000
  0x4510	5c 45 00 00 5c 2f 00 00 00 00 00 00 39 ff 43 ca 	0E000/00000090C0
  0x4520	00 00 00 00 10 00 00 00 24 00 00 00 4c 47 00 00 	00000000$000LG00
  0x4530	4c 31 00 00 52 53 44 53 8b 0b 43 cd a3 be 05 41 	L100RSDS00C0000A
  0x4540	b1 ce 8c 48 f1 01 ca 42 01 00 00 00 70 61 74 68 	000H000B0000path
  0x4550	70 69 6e 67 2e 70 64 62 00 00 00 00 47 43 54 4c 	ping.pdb0000GCTL
  0x4560	00 10 00 00 a0 24 00 00 2e 74 65 78 74 24 6d 6e 	00000$00.text$mn
  0x4570	00 00 00 00 a0 34 00 00 80 00 00 00 2e 74 65 78 	000004000000.tex
  0x4580	74 24 6d 6e 24 30 30 00 20 35 00 00 50 00 00 00 	t$mn$000 500P000
  0x4590	2e 74 65 78 74 24 78 00 00 40 00 00 28 01 00 00 	.text$x00@00(000
  0x45a0	2e 72 64 61 74 61 24 62 72 63 00 00 28 41 00 00 	.rdata$brc00(A00
  0x45b0	b0 02 00 00 2e 69 64 61 74 61 24 35 00 00 00 00 	0000.idata$50000
  0x45c0	d8 43 00 00 10 00 00 00 2e 30 30 63 66 67 00 00 	0C000000.00cfg00
  0x45d0	e8 43 00 00 08 00 00 00 2e 43 52 54 24 58 43 41 	0C000000.CRT$XCA
  0x45e0	00 00 00 00 f0 43 00 00 08 00 00 00 2e 43 52 54 	00000C000000.CRT
  0x45f0	24 58 43 41 41 00 00 00 f8 43 00 00 08 00 00 00 	$XCAA0000C000000
  0x4600	2e 43 52 54 24 58 43 5a 00 00 00 00 00 44 00 00 	.CRT$XCZ00000D00
  0x4610	08 00 00 00 2e 43 52 54 24 58 49 41 00 00 00 00 	0000.CRT$XIA0000
  0x4620	08 44 00 00 08 00 00 00 2e 43 52 54 24 58 49 41 	0D000000.CRT$XIA
  0x4630	41 00 00 00 10 44 00 00 08 00 00 00 2e 43 52 54 	A0000D000000.CRT
  0x4640	24 58 49 59 00 00 00 00 18 44 00 00 08 00 00 00 	$XIY00000D000000
  0x4650	2e 43 52 54 24 58 49 5a 00 00 00 00 20 44 00 00 	.CRT$XIZ0000 D00
  0x4660	30 00 00 00 2e 67 66 69 64 73 00 00 50 44 00 00 	0000.gfids00PD00
  0x4670	e4 00 00 00 2e 72 64 61 74 61 00 00 34 45 00 00 	0000.rdata004E00
  0x4680	3c 02 00 00 2e 72 64 61 74 61 24 7a 7a 7a 64 62 	<000.rdata$zzzdb
  0x4690	67 00 00 00 70 47 00 00 e4 01 00 00 2e 78 64 61 	g000pG000000.xda
  0x46a0	74 61 00 00 54 49 00 00 7c 01 00 00 2e 69 64 61 	ta00TI00|000.ida
  0x46b0	74 61 24 32 00 00 00 00 d0 4a 00 00 18 00 00 00 	ta$200000J000000
  0x46c0	2e 69 64 61 74 61 24 33 00 00 00 00 e8 4a 00 00 	.idata$300000J00
  0x46d0	b0 02 00 00 2e 69 64 61 74 61 24 34 00 00 00 00 	0000.idata$40000
  0x46e0	98 4d 00 00 74 06 00 00 2e 69 64 61 74 61 24 36 	0M00t000.idata$6
  0x46f0	00 00 00 00 00 60 00 00 e0 00 00 00 2e 64 61 74 	00000`000000.dat
  0x4700	61 00 00 00 e0 60 00 00 c8 a0 00 00 2e 62 73 73 	a0000`000000.bss
  0x4710	00 00 00 00 00 10 01 00 98 01 00 00 2e 70 64 61 	000000000000.pda
  0x4720	74 61 00 00 00 20 01 00 f0 00 00 00 2e 72 73 72 	ta000 000000.rsr
  0x4730	63 24 30 31 00 00 00 00 f0 20 01 00 50 07 00 00 	c$0100000 00P000
  0x4740	2e 72 73 72 63 24 30 32 00 00 00 00 20 00 00 00 	.rsrc$020000 000
  0x4750	8b 0b 43 cd a3 be 05 41 b1 ce 8c 48 f1 01 ca 42 	00C0000A000H000B
  0x4760	92 15 5a fc 52 65 f2 08 96 ed eb 47 39 ff 43 ca 	00Z0Re00000G90C0
  0x4770	19 21 07 00 0f 34 12 01 0f 01 0c 01 08 70 07 60 	0!00040000000p0`
  0x4780	06 50 00 00 f8 33 00 00 50 08 00 00 19 13 01 00 	0P000300P0000000
  0x4790	04 82 00 00 f8 33 00 00 30 00 00 00 19 13 01 00 	0000030000000000
  0x47a0	04 a2 00 00 f8 33 00 00 40 00 00 00 01 0f 06 00 	00000300@0000000
  0x47b0	0f 64 09 00 0f 34 08 00 0f 52 0b 70 01 22 0c 00 	0d0004000R0p0"00
  0x47c0	22 c4 17 00 22 74 16 00 22 64 15 00 22 34 14 00 	"000"t00"d00"400
  0x47d0	22 f2 18 f0 16 e0 14 50 01 06 02 00 06 32 02 30 	"000000P00000200
  0x47e0	01 1c 0c 00 1c 64 15 00 1c 54 14 00 1c 34 13 00 	00000d000T000400
  0x47f0	1c b2 18 f0 16 e0 14 d0 12 c0 10 70 01 1c 0c 00 	00000000000p0000
  0x4800	1c 64 0f 00 1c 54 0e 00 1c 34 0d 00 1c 52 18 f0 	0d000T0004000R00
  0x4810	16 e0 14 d0 12 c0 10 70 01 0a 04 00 0a 34 06 00 	0000000p00000400
  0x4820	0a 32 06 70 19 36 0b 00 25 34 4e 02 25 01 44 02 	020p0600%4N0%0D0
  0x4830	10 f0 0e e0 0c d0 0a c0 08 70 07 60 06 50 00 00 	000000000p0`0P00
  0x4840	f8 33 00 00 10 12 00 00 01 14 08 00 14 64 09 00 	0300000000000d00
  0x4850	14 54 07 00 14 34 06 00 14 32 10 70 01 0a 04 00 	0T000400020p0000
  0x4860	0a 34 08 00 0a 32 06 70 19 2b 0b 00 19 54 29 00 	0400020p0+000T)0
  0x4870	19 34 28 00 19 01 20 00 12 f0 10 e0 0e c0 0c 70 	04(000 00000000p
  0x4880	0b 60 00 00 f8 33 00 00 f0 00 00 00 01 14 02 00 	0`00030000000000
  0x4890	14 92 10 30 01 04 01 00 04 42 00 00 01 04 01 00 	000000000B000000
  0x48a0	04 62 00 00 09 15 08 00 15 74 0a 00 15 64 09 00 	0b0000000t000d00
  0x48b0	15 34 08 00 15 52 11 f0 da 31 00 00 01 00 00 00 	04000R0001000000
  0x48c0	c5 2c 00 00 2b 2e 00 00 23 35 00 00 2b 2e 00 00 	0,00+.00#500+.00
  0x48d0	01 06 02 00 06 32 02 50 01 00 00 00 09 04 01 00 	0000020P00000000
  0x48e0	04 22 00 00 da 31 00 00 01 00 00 00 5c 2f 00 00 	0"00010000000/00
  0x48f0	92 2f 00 00 01 00 00 00 92 2f 00 00 09 0a 04 00 	0/0000000/000000
  0x4900	0a 34 06 00 0a 32 06 70 da 31 00 00 01 00 00 00 	0400020p01000000
  0x4910	6d 30 00 00 a0 30 00 00 50 35 00 00 a0 30 00 00 	m0000000P5000000
  0x4920	01 0d 04 00 0d 34 09 00 0d 32 06 50 01 0c 02 00 	00000400020P0000
  0x4930	0c 01 11 00 00 00 00 00 01 00 00 00 01 02 01 00 	0000000000000000
  0x4940	02 30 00 00 00 00 00 00 02 04 03 00 01 16 00 06 	0000000000000000
  0x4950	04 12 00 00 b0 4c 00 00 00 00 00 00 00 00 00 00 	00000L0000000000
  0x4960	4a 4e 00 00 f0 42 00 00 e8 4b 00 00 00 00 00 00 	JN000B000K000000
  0x4970	00 00 00 00 32 51 00 00 28 42 00 00 e8 4a 00 00 	00002Q00(B000J00
  0x4980	00 00 00 00 00 00 00 00 5a 51 00 00 28 41 00 00 	00000000ZQ00(A00
  0x4990	28 4b 00 00 00 00 00 00 00 00 00 00 68 51 00 00 	(K0000000000hQ00
  0x49a0	68 41 00 00 c0 4b 00 00 00 00 00 00 00 00 00 00 	hA000K0000000000
  0x49b0	74 51 00 00 00 42 00 00 80 4b 00 00 00 00 00 00 	tQ000B000K000000
  0x49c0	00 00 00 00 94 51 00 00 c0 41 00 00 88 4d 00 00 	00000Q000A000M00
  0x49d0	00 00 00 00 00 00 00 00 be 51 00 00 c8 43 00 00 	000000000Q000C00
  0x49e0	b0 4b 00 00 00 00 00 00 00 00 00 00 c8 51 00 00 	0K00000000000Q00
  0x49f0	f0 41 00 00 78 4c 00 00 00 00 00 00 00 00 00 00 	0A00xL0000000000
  0x4a00	e8 51 00 00 b8 42 00 00 98 4c 00 00 00 00 00 00 	0Q000B000L000000
  0x4a10	00 00 00 00 0a 52 00 00 d8 42 00 00 88 4c 00 00 	00000R000B000L00
  0x4a20	00 00 00 00 00 00 00 00 2e 52 00 00 c8 42 00 00 	00000000.R000B00
  0x4a30	d8 4b 00 00 00 00 00 00 00 00 00 00 50 52 00 00 	0K0000000000PR00
  0x4a40	18 42 00 00 38 4c 00 00 00 00 00 00 00 00 00 00 	0B008L0000000000
  0x4a50	7a 52 00 00 78 42 00 00 10 4c 00 00 00 00 00 00 	zR00xB000L000000
  0x4a60	00 00 00 00 9e 52 00 00 50 42 00 00 48 4c 00 00 	00000R00PB00HL00
  0x4a70	00 00 00 00 00 00 00 00 c8 52 00 00 88 42 00 00 	000000000R000B00
  0x4a80	00 4c 00 00 00 00 00 00 00 00 00 00 ee 52 00 00 	0L00000000000R00
  0x4a90	40 42 00 00 70 4b 00 00 00 00 00 00 00 00 00 00 	@B00pK0000000000
  0x4aa0	1c 53 00 00 b0 41 00 00 68 4c 00 00 00 00 00 00 	0S000A00hL000000
  0x4ab0	00 00 00 00 40 53 00 00 a8 42 00 00 a0 4b 00 00 	0000@S000B000K00
  0x4ac0	00 00 00 00 00 00 00 00 62 53 00 00 e0 41 00 00 	00000000bS000A00
  0x4ad0	00 00 00 00 00 00 00 00 00 00 00 00 00 00 00 00 	0000000000000000
  0x4ae0	00 00 00 00 00 00 00 00 9c 4f 00 00 00 00 00 00 	000000000O000000
  0x4af0	32 4f 00 00 00 00 00 00 c2 4e 00 00 00 00 00 00 	2O0000000N000000
  0x4b00	b0 4e 00 00 00 00 00 00 14 4f 00 00 00 00 00 00 	0N0000000O000000
  0x4b10	80 4e 00 00 00 00 00 00 4c 4f 00 00 00 00 00 00 	0N000000LO000000
  0x4b20	00 00 00 00 00 00 00 00 74 00 00 00 00 00 00 80 	00000000t0000000
  0x4b30	73 00 00 00 00 00 00 80 8c 4f 00 00 00 00 00 00 	s00000000O000000
  0x4b40	6c 4f 00 00 00 00 00 00 60 4f 00 00 00 00 00 00 	lO000000`O000000
  0x4b50	92 4e 00 00 00 00 00 00 17 00 00 00 00 00 00 80 	0N00000000000000
  0x4b60	03 00 00 00 00 00 00 80 00 00 00 00 00 00 00 00 	0000000000000000
  0x4b70	ea 50 00 00 00 00 00 00 00 00 00 00 00 00 00 00 	0P00000000000000
  0x4b80	8c 50 00 00 00 00 00 00 b8 4f 00 00 00 00 00 00 	0P0000000O000000
  0x4b90	d4 4e 00 00 00 00 00 00 00 00 00 00 00 00 00 00 	0N00000000000000
  0x4ba0	24 51 00 00 00 00 00 00 00 00 00 00 00 00 00 00 	$Q00000000000000
  0x4bb0	fe 4e 00 00 00 00 00 00 00 00 00 00 00 00 00 00 	0N00000000000000
  0x4bc0	26 4f 00 00 00 00 00 00 a2 4e 00 00 00 00 00 00 	&O0000000N000000
  0x4bd0	00 00 00 00 00 00 00 00 d6 4f 00 00 00 00 00 00 	000000000O000000
  0x4be0	00 00 00 00 00 00 00 00 fc 50 00 00 00 00 00 00 	000000000P000000
  0x4bf0	6a 4e 00 00 00 00 00 00 00 00 00 00 00 00 00 00 	jN00000000000000
  0x4c00	d0 50 00 00 00 00 00 00 00 00 00 00 00 00 00 00 	0P00000000000000
  0x4c10	04 50 00 00 00 00 00 00 a8 50 00 00 00 00 00 00 	0P0000000P000000
  0x4c20	bc 50 00 00 00 00 00 00 1a 50 00 00 00 00 00 00 	0P0000000P000000
  0x4c30	00 00 00 00 00 00 00 00 ea 4f 00 00 00 00 00 00 	000000000O000000
  0x4c40	00 00 00 00 00 00 00 00 78 50 00 00 00 00 00 00 	00000000xP000000
  0x4c50	4a 50 00 00 00 00 00 00 5e 50 00 00 00 00 00 00 	JP000000^P000000
  0x4c60	00 00 00 00 00 00 00 00 0e 51 00 00 00 00 00 00 	000000000Q000000
  0x4c70	00 00 00 00 00 00 00 00 42 4f 00 00 00 00 00 00 	00000000BO000000
  0x4c80	00 00 00 00 00 00 00 00 b0 4f 00 00 00 00 00 00 	000000000O000000
  0x4c90	00 00 00 00 00 00 00 00 30 50 00 00 00 00 00 00 	000000000P000000
  0x4ca0	7c 4f 00 00 00 00 00 00 00 00 00 00 00 00 00 00 	|O00000000000000
  0x4cb0	ea 4d 00 00 00 00 00 00 10 4e 00 00 00 00 00 00 	0M0000000N000000
  0x4cc0	fc 4d 00 00 00 00 00 00 f2 4d 00 00 00 00 00 00 	0M0000000M000000
  0x4cd0	c6 4d 00 00 00 00 00 00 b8 4d 00 00 00 00 00 00 	0M0000000M000000
  0x4ce0	e2 53 00 00 00 00 00 00 d8 4d 00 00 00 00 00 00 	0S0000000M000000
  0x4cf0	56 4e 00 00 00 00 00 00 f8 53 00 00 00 00 00 00 	VN0000000S000000
  0x4d00	98 4d 00 00 00 00 00 00 34 4e 00 00 00 00 00 00 	0M0000004N000000
  0x4d10	3e 4e 00 00 00 00 00 00 ec 53 00 00 00 00 00 00 	>N0000000S000000
  0x4d20	aa 4d 00 00 00 00 00 00 a0 4d 00 00 00 00 00 00 	0M0000000M000000
  0x4d30	1c 4e 00 00 00 00 00 00 82 53 00 00 00 00 00 00 	0N0000000S000000
  0x4d40	90 53 00 00 00 00 00 00 a2 53 00 00 00 00 00 00 	0S0000000S000000
  0x4d50	ae 53 00 00 00 00 00 00 b8 53 00 00 00 00 00 00 	0S0000000S000000
  0x4d60	c4 53 00 00 00 00 00 00 ce 53 00 00 00 00 00 00 	0S0000000S000000
  0x4d70	d8 53 00 00 00 00 00 00 02 54 00 00 00 00 00 00 	0S0000000T000000
  0x4d80	00 00 00 00 00 00 00 00 e4 4e 00 00 00 00 00 00 	000000000N000000
  0x4d90	00 00 00 00 00 00 00 00 32 04 65 78 69 74 00 00 	0000000020exit00
  0x4da0	1b 05 77 63 73 74 6f 75 6c 00 55 00 5f 58 63 70 	00wcstoul0U0_Xcp
  0x4db0	74 46 69 6c 74 65 72 00 ae 00 5f 61 6d 73 67 5f 	tFilter000_amsg_
  0x4dc0	65 78 69 74 00 00 9d 00 5f 5f 77 67 65 74 6d 61 	exit0000__wgetma
  0x4dd0	69 6e 61 72 67 73 00 00 8e 00 5f 5f 73 65 74 5f 	inargs0000__set_
  0x4de0	61 70 70 5f 74 79 70 65 00 00 0e 01 5f 65 78 69 	app_type0000_exi
  0x4df0	74 00 c1 00 5f 63 65 78 69 74 00 00 90 00 5f 5f 	t000_cexit0000__
  0x4e00	73 65 74 75 73 65 72 6d 61 74 68 65 72 72 00 00 	setusermatherr00
  0x4e10	7d 01 5f 69 6e 69 74 74 65 72 6d 00 57 00 5f 5f 	}0_initterm0W0__
  0x4e20	43 5f 73 70 65 63 69 66 69 63 5f 68 61 6e 64 6c 	C_specific_handl
  0x4e30	65 72 00 00 27 01 5f 66 6d 6f 64 65 00 00 d2 00 	er00'0_fmode0000
  0x4e40	5f 63 6f 6d 6d 6f 64 65 00 00 6d 73 76 63 72 74 	_commode00msvcrt
  0x4e50	2e 64 6c 6c 00 00 2f 00 3f 74 65 72 6d 69 6e 61 	.dll00/0?termina
  0x4e60	74 65 40 40 59 41 58 58 5a 00 3f 00 53 65 74 54 	te@@YAXXZ0?0SetT
  0x4e70	68 72 65 61 64 55 49 4c 61 6e 67 75 61 67 65 00 	hreadUILanguage0
  0x4e80	98 00 49 63 6d 70 43 6c 6f 73 65 48 61 6e 64 6c 	00IcmpCloseHandl
  0x4e90	65 00 07 00 47 65 74 41 64 64 72 49 6e 66 6f 57 	e000GetAddrInfoW
  0x4ea0	00 00 08 00 4c 6f 63 61 6c 41 6c 6c 6f 63 00 00 	0000LocalAlloc00
  0x4eb0	99 00 49 63 6d 70 43 72 65 61 74 65 46 69 6c 65 	00IcmpCreateFile
  0x4ec0	00 00 97 00 49 63 6d 70 36 53 65 6e 64 45 63 68 	0000Icmp6SendEch
  0x4ed0	6f 32 00 00 05 00 47 65 74 4c 61 73 74 45 72 72 	o20000GetLastErr
  0x4ee0	6f 72 00 00 0e 00 52 74 6c 49 70 76 34 53 74 72 	or0000RtlIpv4Str
  0x4ef0	69 6e 67 54 6f 41 64 64 72 65 73 73 57 00 0a 00 	ingToAddressW000
  0x4f00	48 65 61 70 53 65 74 49 6e 66 6f 72 6d 61 74 69 	HeapSetInformati
  0x4f10	6f 6e 00 00 95 00 49 63 6d 70 36 43 72 65 61 74 	on0000Icmp6Creat
  0x4f20	65 46 69 6c 65 00 0a 00 4c 6f 63 61 6c 46 72 65 	eFile000LocalFre
  0x4f30	65 00 9c 00 49 63 6d 70 53 65 6e 64 45 63 68 6f 	e000IcmpSendEcho
  0x4f40	32 00 30 00 53 6c 65 65 70 45 78 00 9a 00 49 63 	2000SleepEx000Ic
  0x4f50	6d 70 50 61 72 73 65 52 65 70 6c 69 65 73 00 00 	mpParseReplies00
  0x4f60	3a 00 57 53 41 49 6f 63 74 6c 00 00 09 00 47 65 	:0WSAIoctl0000Ge
  0x4f70	74 4e 61 6d 65 49 6e 66 6f 57 00 00 1a 00 47 65 	tNameInfoW0000Ge
  0x4f80	74 54 69 63 6b 43 6f 75 6e 74 00 00 02 00 46 72 	tTickCount0000Fr
  0x4f90	65 65 41 64 64 72 49 6e 66 6f 57 00 96 00 49 63 	eeAddrInfoW000Ic
  0x4fa0	6d 70 36 50 61 72 73 65 52 65 70 6c 69 65 73 00 	mp6ParseReplies0
  0x4fb0	2d 00 53 6c 65 65 70 00 0f 00 53 65 74 55 6e 68 	-0Sleep000SetUnh
  0x4fc0	61 6e 64 6c 65 64 45 78 63 65 70 74 69 6f 6e 46 	andledExceptionF
  0x4fd0	69 6c 74 65 72 00 14 00 47 65 74 4d 6f 64 75 6c 	ilter000GetModul
  0x4fe0	65 48 61 6e 64 6c 65 57 00 00 00 00 51 75 65 72 	eHandleW0000Quer
  0x4ff0	79 50 65 72 66 6f 72 6d 61 6e 63 65 43 6f 75 6e 	yPerformanceCoun
  0x5000	74 65 72 00 0d 00 47 65 74 43 75 72 72 65 6e 74 	ter000GetCurrent
  0x5010	50 72 6f 63 65 73 73 49 64 00 11 00 47 65 74 43 	ProcessId000GetC
  0x5020	75 72 72 65 6e 74 54 68 72 65 61 64 49 64 00 00 	urrentThreadId00
  0x5030	16 00 47 65 74 53 79 73 74 65 6d 54 69 6d 65 41 	00GetSystemTimeA
  0x5040	73 46 69 6c 65 54 69 6d 65 00 02 00 52 74 6c 43 	sFileTime000RtlC
  0x5050	61 70 74 75 72 65 43 6f 6e 74 65 78 74 00 0a 00 	aptureContext000
  0x5060	52 74 6c 4c 6f 6f 6b 75 70 46 75 6e 63 74 69 6f 	RtlLookupFunctio
  0x5070	6e 45 6e 74 72 79 00 00 10 00 52 74 6c 56 69 72 	nEntry0000RtlVir
  0x5080	74 75 61 6c 55 6e 77 69 6e 64 00 00 11 00 55 6e 	tualUnwind0000Un
  0x5090	68 61 6e 64 6c 65 64 45 78 63 65 70 74 69 6f 6e 	handledException
  0x50a0	46 69 6c 74 65 72 00 00 0c 00 47 65 74 43 75 72 	Filter0000GetCur
  0x50b0	72 65 6e 74 50 72 6f 63 65 73 73 00 4e 00 54 65 	rentProcess0N0Te
  0x50c0	72 6d 69 6e 61 74 65 50 72 6f 63 65 73 73 00 00 	rminateProcess00
  0x50d0	0b 00 47 65 74 45 6e 76 69 72 6f 6e 6d 65 6e 74 	00GetEnvironment
  0x50e0	56 61 72 69 61 62 6c 65 57 00 06 00 47 65 74 43 	VariableW000GetC
  0x50f0	6f 6e 73 6f 6c 65 4d 6f 64 65 00 00 09 00 46 6f 	onsoleMode0000Fo
  0x5100	72 6d 61 74 4d 65 73 73 61 67 65 57 00 00 07 00 	rmatMessageW0000
  0x5110	57 69 64 65 43 68 61 72 54 6f 4d 75 6c 74 69 42 	WideCharToMultiB
  0x5120	79 74 65 00 31 00 47 65 74 46 69 6c 65 54 79 70 	yte010GetFileTyp
  0x5130	65 00 61 70 69 2d 6d 73 2d 77 69 6e 2d 63 6f 72 	e0api-ms-win-cor
  0x5140	65 2d 6c 6f 63 61 6c 69 7a 61 74 69 6f 6e 2d 6c 	e-localization-l
  0x5150	31 2d 32 2d 30 2e 64 6c 6c 00 49 50 48 4c 50 41 	1-2-0.dll0IPHLPA
  0x5160	50 49 2e 44 4c 4c 00 00 57 53 32 5f 33 32 2e 64 	PI.DLL00WS2_32.d
  0x5170	6c 6c 00 00 61 70 69 2d 6d 73 2d 77 69 6e 2d 63 	ll00api-ms-win-c
  0x5180	6f 72 65 2d 68 65 61 70 2d 6c 32 2d 31 2d 30 2e 	ore-heap-l2-1-0.
  0x5190	64 6c 6c 00 61 70 69 2d 6d 73 2d 77 69 6e 2d 63 	dll0api-ms-win-c
  0x51a0	6f 72 65 2d 65 72 72 6f 72 68 61 6e 64 6c 69 6e 	ore-errorhandlin
  0x51b0	67 2d 6c 31 2d 31 2d 30 2e 64 6c 6c 00 00 6e 74 	g-l1-1-0.dll00nt
  0x51c0	64 6c 6c 2e 64 6c 6c 00 61 70 69 2d 6d 73 2d 77 	dll.dll0api-ms-w
  0x51d0	69 6e 2d 63 6f 72 65 2d 68 65 61 70 2d 6c 31 2d 	in-core-heap-l1-
  0x51e0	31 2d 30 2e 64 6c 6c 00 61 70 69 2d 6d 73 2d 77 	1-0.dll0api-ms-w
  0x51f0	69 6e 2d 63 6f 72 65 2d 73 79 6e 63 68 2d 6c 31 	in-core-synch-l1
  0x5200	2d 31 2d 30 2e 64 6c 6c 00 00 61 70 69 2d 6d 73 	-1-0.dll00api-ms
  0x5210	2d 77 69 6e 2d 63 6f 72 65 2d 73 79 73 69 6e 66 	-win-core-sysinf
  0x5220	6f 2d 6c 31 2d 31 2d 30 2e 64 6c 6c 00 00 61 70 	o-l1-1-0.dll00ap
  0x5230	69 2d 6d 73 2d 77 69 6e 2d 63 6f 72 65 2d 73 79 	i-ms-win-core-sy
  0x5240	6e 63 68 2d 6c 31 2d 32 2d 30 2e 64 6c 6c 00 00 	nch-l1-2-0.dll00
  0x5250	61 70 69 2d 6d 73 2d 77 69 6e 2d 63 6f 72 65 2d 	api-ms-win-core-
  0x5260	6c 69 62 72 61 72 79 6c 6f 61 64 65 72 2d 6c 31 	libraryloader-l1
  0x5270	2d 32 2d 30 2e 64 6c 6c 00 00 61 70 69 2d 6d 73 	-2-0.dll00api-ms
  0x5280	2d 77 69 6e 2d 63 6f 72 65 2d 70 72 6f 66 69 6c 	-win-core-profil
  0x5290	65 2d 6c 31 2d 31 2d 30 2e 64 6c 6c 00 00 61 70 	e-l1-1-0.dll00ap
  0x52a0	69 2d 6d 73 2d 77 69 6e 2d 63 6f 72 65 2d 70 72 	i-ms-win-core-pr
  0x52b0	6f 63 65 73 73 74 68 72 65 61 64 73 2d 6c 31 2d 	ocessthreads-l1-
  0x52c0	31 2d 30 2e 64 6c 6c 00 61 70 69 2d 6d 73 2d 77 	1-0.dll0api-ms-w
  0x52d0	69 6e 2d 63 6f 72 65 2d 72 74 6c 73 75 70 70 6f 	in-core-rtlsuppo
  0x52e0	72 74 2d 6c 31 2d 31 2d 30 2e 64 6c 6c 00 61 70 	rt-l1-1-0.dll0ap
  0x52f0	69 2d 6d 73 2d 77 69 6e 2d 63 6f 72 65 2d 70 72 	i-ms-win-core-pr
  0x5300	6f 63 65 73 73 65 6e 76 69 72 6f 6e 6d 65 6e 74 	ocessenvironment
  0x5310	2d 6c 31 2d 31 2d 30 2e 64 6c 6c 00 61 70 69 2d 	-l1-1-0.dll0api-
  0x5320	6d 73 2d 77 69 6e 2d 63 6f 72 65 2d 63 6f 6e 73 	ms-win-core-cons
  0x5330	6f 6c 65 2d 6c 31 2d 31 2d 30 2e 64 6c 6c 00 00 	ole-l1-1-0.dll00
  0x5340	61 70 69 2d 6d 73 2d 77 69 6e 2d 63 6f 72 65 2d 	api-ms-win-core-
  0x5350	73 74 72 69 6e 67 2d 6c 31 2d 31 2d 30 2e 64 6c 	string-l1-1-0.dl
  0x5360	6c 00 61 70 69 2d 6d 73 2d 77 69 6e 2d 63 6f 72 	l0api-ms-win-cor
  0x5370	65 2d 66 69 6c 65 2d 6c 31 2d 31 2d 30 2e 64 6c 	e-file-l1-1-0.dl
  0x5380	6c 00 81 00 5f 5f 69 6f 62 5f 66 75 6e 63 00 00 	l000__iob_func00
  0x5390	55 01 5f 67 65 74 5f 6f 73 66 68 61 6e 64 6c 65 	U0_get_osfhandle
  0x53a0	00 00 8a 03 5f 77 63 73 69 63 6d 70 00 00 39 04 	0000_wcsicmp0090
  0x53b0	66 66 6c 75 73 68 00 00 c8 02 5f 73 65 74 6d 6f 	fflush0000_setmo
  0x53c0	64 65 00 00 e4 03 5f 77 72 69 74 65 00 00 1b 01 	de0000_write0000
  0x53d0	5f 66 69 6c 65 6e 6f 00 01 05 77 63 73 63 68 72 	_fileno000wcschr
  0x53e0	00 00 3b 04 66 67 65 74 70 6f 73 00 55 04 66 77 	00;0fgetpos0U0fw
  0x53f0	70 72 69 6e 74 66 00 00 92 04 6d 65 6d 63 70 79 	printf0000memcpy
  0x5400	00 00 96 04 6d 65 6d 73 65 74 00 00 00 00 00 00 	0000memset000000
  0x5410	00 00 00 00 00 00 00 00 00 00 00 00 00 00 00 00 	0000000000000000
  0x5420	00 00 00 00 00 00 00 00 00 00 00 00 00 00 00 00 	0000000000000000
  0x5430	00 00 00 00 00 00 00 00 00 00 00 00 00 00 00 00 	0000000000000000
  0x5440	00 00 00 00 00 00 00 00 00 00 00 00 00 00 00 00 	0000000000000000
  0x5450	00 00 00 00 00 00 00 00 00 00 00 00 00 00 00 00 	0000000000000000
  0x5460	00 00 00 00 00 00 00 00 00 00 00 00 00 00 00 00 	0000000000000000
  0x5470	00 00 00 00 00 00 00 00 00 00 00 00 00 00 00 00 	0000000000000000
  0x5480	00 00 00 00 00 00 00 00 00 00 00 00 00 00 00 00 	0000000000000000
  0x5490	00 00 00 00 00 00 00 00 00 00 00 00 00 00 00 00 	0000000000000000
  0x54a0	00 00 00 00 00 00 00 00 00 00 00 00 00 00 00 00 	0000000000000000
  0x54b0	00 00 00 00 00 00 00 00 00 00 00 00 00 00 00 00 	0000000000000000
  0x54c0	00 00 00 00 00 00 00 00 00 00 00 00 00 00 00 00 	0000000000000000
  0x54d0	00 00 00 00 00 00 00 00 00 00 00 00 00 00 00 00 	0000000000000000
  0x54e0	00 00 00 00 00 00 00 00 00 00 00 00 00 00 00 00 	0000000000000000
  0x54f0	00 00 00 00 00 00 00 00 00 00 00 00 00 00 00 00 	0000000000000000
  0x5500	00 00 00 00 00 00 00 00 00 00 00 00 00 00 00 00 	0000000000000000
  0x5510	00 00 00 00 00 00 00 00 00 00 00 00 00 00 00 00 	0000000000000000
  0x5520	00 00 00 00 00 00 00 00 00 00 00 00 00 00 00 00 	0000000000000000
  0x5530	00 00 00 00 00 00 00 00 00 00 00 00 00 00 00 00 	0000000000000000
  0x5540	00 00 00 00 00 00 00 00 00 00 00 00 00 00 00 00 	0000000000000000
  0x5550	00 00 00 00 00 00 00 00 00 00 00 00 00 00 00 00 	0000000000000000
  0x5560	00 00 00 00 00 00 00 00 00 00 00 00 00 00 00 00 	0000000000000000
  0x5570	00 00 00 00 00 00 00 00 00 00 00 00 00 00 00 00 	0000000000000000
  0x5580	00 00 00 00 00 00 00 00 00 00 00 00 00 00 00 00 	0000000000000000
  0x5590	00 00 00 00 00 00 00 00 00 00 00 00 00 00 00 00 	0000000000000000
  0x55a0	00 00 00 00 00 00 00 00 00 00 00 00 00 00 00 00 	0000000000000000
  0x55b0	00 00 00 00 00 00 00 00 00 00 00 00 00 00 00 00 	0000000000000000
  0x55c0	00 00 00 00 00 00 00 00 00 00 00 00 00 00 00 00 	0000000000000000
  0x55d0	00 00 00 00 00 00 00 00 00 00 00 00 00 00 00 00 	0000000000000000
  0x55e0	00 00 00 00 00 00 00 00 00 00 00 00 00 00 00 00 	0000000000000000
  0x55f0	00 00 00 00 00 00 00 00 00 00 00 00 00 00 00 00 	0000000000000000
=== DATA BLOCK END ===

=== DATA BLOCK ADDRESS 0x6000 ===
  0x6000	01 00 00 00 00 00 00 00 32 a2 df 2d 99 2b 00 00 	00000000200-0+00
  0x6010	cd 5d 20 d2 66 d4 ff ff 00 00 00 00 00 00 00 00 	0] 0f00000000000
  0x6020	f9 2a 00 00 1f 27 00 00 fa 2a 00 00 20 27 00 00 	0*000'000*00 '00
  0x6030	fb 2a 00 00 21 27 00 00 fc 2a 00 00 22 27 00 00 	0*00!'000*00"'00
  0x6040	fd 2a 00 00 23 27 00 00 fe 2a 00 00 24 27 00 00 	0*00#'000*00$'00
  0x6050	ff 2a 00 00 25 27 00 00 00 2b 00 00 26 27 00 00 	0*00%'000+00&'00
  0x6060	01 2b 00 00 27 27 00 00 02 2b 00 00 28 27 00 00 	0+00''000+00('00
  0x6070	03 2b 00 00 29 27 00 00 04 2b 00 00 2a 27 00 00 	0+00)'000+00*'00
  0x6080	05 2b 00 00 2b 27 00 00 06 2b 00 00 2c 27 00 00 	0+00+'000+00,'00
  0x6090	07 2b 00 00 2d 27 00 00 08 2b 00 00 2e 27 00 00 	0+00-'000+00.'00
  0x60a0	09 2b 00 00 2f 27 00 00 0a 2b 00 00 30 27 00 00 	0+00/'000+000'00
  0x60b0	18 2b 00 00 44 27 00 00 2a 2b 00 00 31 27 00 00 	0+00D'00*+001'00
  0x60c0	01 00 00 00 fa 00 00 00 64 00 00 00 a0 0f 00 00 	00000000d0000000
  0x60d0	00 00 00 00 00 00 00 00 00 00 00 00 00 00 00 00 	0000000000000000
  0x60e0	00 00 00 00 00 00 00 00 00 00 00 00 00 00 00 00 	0000000000000000
  0x60f0	00 00 00 00 00 00 00 00 00 00 00 00 00 00 00 00 	0000000000000000
  0x6100	00 00 00 00 00 00 00 00 00 00 00 00 00 00 00 00 	0000000000000000
  0x6110	00 00 00 00 00 00 00 00 00 00 00 00 00 00 00 00 	0000000000000000
  0x6120	00 00 00 00 00 00 00 00 00 00 00 00 00 00 00 00 	0000000000000000
  0x6130	00 00 00 00 00 00 00 00 00 00 00 00 00 00 00 00 	0000000000000000
  0x6140	00 00 00 00 00 00 00 00 00 00 00 00 00 00 00 00 	0000000000000000
  0x6150	00 00 00 00 00 00 00 00 00 00 00 00 00 00 00 00 	0000000000000000
  0x6160	00 00 00 00 00 00 00 00 00 00 00 00 00 00 00 00 	0000000000000000
  0x6170	00 00 00 00 00 00 00 00 00 00 00 00 00 00 00 00 	0000000000000000
  0x6180	00 00 00 00 00 00 00 00 00 00 00 00 00 00 00 00 	0000000000000000
  0x6190	00 00 00 00 00 00 00 00 00 00 00 00 00 00 00 00 	0000000000000000
  0x61a0	00 00 00 00 00 00 00 00 00 00 00 00 00 00 00 00 	0000000000000000
  0x61b0	00 00 00 00 00 00 00 00 00 00 00 00 00 00 00 00 	0000000000000000
  0x61c0	00 00 00 00 00 00 00 00 00 00 00 00 00 00 00 00 	0000000000000000
  0x61d0	00 00 00 00 00 00 00 00 00 00 00 00 00 00 00 00 	0000000000000000
  0x61e0	00 00 00 00 00 00 00 00 00 00 00 00 00 00 00 00 	0000000000000000
  0x61f0	00 00 00 00 00 00 00 00 00 00 00 00 00 00 00 00 	0000000000000000
=== DATA BLOCK END ===

=== DATA BLOCK ADDRESS 0x11000 ===
  0x11000	08 10 00 00 1e 11 00 00 70 47 00 00 24 11 00 00 	00000000pG00$000
  0x11010	74 11 00 00 8c 47 00 00 7c 11 00 00 d8 11 00 00 	t0000G00|0000000
  0x11020	9c 47 00 00 e0 11 00 00 6a 12 00 00 ac 47 00 00 	0G000000j0000G00
  0x11030	70 12 00 00 ff 13 00 00 bc 47 00 00 10 14 00 00 	p00000000G000000
  0x11040	c4 14 00 00 d8 47 00 00 cc 14 00 00 a4 17 00 00 	00000G0000000000
  0x11050	e0 47 00 00 ac 17 00 00 c3 19 00 00 fc 47 00 00 	0G00000000000G00
  0x11060	cc 19 00 00 23 1a 00 00 18 48 00 00 2c 1a 00 00 	0000#0000H00,000
  0x11070	11 27 00 00 24 48 00 00 18 27 00 00 b8 27 00 00 	0'00$H000'000'00
  0x11080	48 48 00 00 c0 27 00 00 5d 28 00 00 5c 48 00 00 	HH000'00](000H00
  0x11090	64 28 00 00 ee 2a 00 00 68 48 00 00 f4 2a 00 00 	d(000*00hH000*00
  0x110a0	6f 2b 00 00 8c 48 00 00 80 2b 00 00 53 2c 00 00 	o+000H000+00S,00
  0x110b0	94 48 00 00 60 2c 00 00 a9 2c 00 00 9c 48 00 00 	0H00`,000,000H00
  0x110c0	b0 2c 00 00 6e 2e 00 00 a4 48 00 00 80 2e 00 00 	0,00n.000H000.00
  0x110d0	92 2e 00 00 94 48 00 00 b0 2e 00 00 ce 2e 00 00 	0.000H000.000.00
  0x110e0	d8 48 00 00 e0 2e 00 00 19 2f 00 00 94 48 00 00 	0H000.000/000H00
  0x110f0	20 2f 00 00 38 2f 00 00 94 48 00 00 4c 2f 00 00 	 /008/000H00L/00
  0x11100	a0 2f 00 00 dc 48 00 00 a8 2f 00 00 ed 2f 00 00 	0/000H000/000/00
  0x11110	d8 47 00 00 60 30 00 00 ad 30 00 00 fc 48 00 00 	0G00`00000000H00
  0x11120	f4 30 00 00 c8 31 00 00 20 49 00 00 fc 31 00 00 	00000100 I000100
  0x11130	30 32 00 00 d8 47 00 00 40 32 00 00 b1 33 00 00 	02000G00@2000300
  0x11140	2c 49 00 00 c8 33 00 00 e6 33 00 00 d8 47 00 00 	,I00030003000G00
  0x11150	f8 33 00 00 15 34 00 00 94 48 00 00 1c 34 00 00 	030004000H000400
  0x11160	77 34 00 00 3c 49 00 00 b0 34 00 00 b2 34 00 00 	w400<I0004000400
  0x11170	38 49 00 00 d0 34 00 00 1d 35 00 00 48 49 00 00 	8I0004000500HI00
  0x11180	23 35 00 00 41 35 00 00 d0 48 00 00 50 35 00 00 	#500A5000H00P500
  0x11190	70 35 00 00 d0 48 00 00 00 00 00 00 00 00 00 00 	p5000H0000000000
  0x111a0	00 00 00 00 00 00 00 00 00 00 00 00 00 00 00 00 	0000000000000000
  0x111b0	00 00 00 00 00 00 00 00 00 00 00 00 00 00 00 00 	0000000000000000
  0x111c0	00 00 00 00 00 00 00 00 00 00 00 00 00 00 00 00 	0000000000000000
  0x111d0	00 00 00 00 00 00 00 00 00 00 00 00 00 00 00 00 	0000000000000000
  0x111e0	00 00 00 00 00 00 00 00 00 00 00 00 00 00 00 00 	0000000000000000
  0x111f0	00 00 00 00 00 00 00 00 00 00 00 00 00 00 00 00 	0000000000000000
=== DATA BLOCK END ===
