===== Assembly blocks =====

=== CODE BLOCK ADDRESS 0x1000 ===
  0x1000	int3   	
  0x1001	int3   	
  0x1002	int3   	
  0x1003	int3   	
  0x1004	int3   	
  === BLOCK LINK ===
    0x1005
=== CODE BLOCK END ===

=== CODE BLOCK ADDRESS 0x1005 ===
  0x1005	int3   	
  0x1006	int3   	
  0x1007	int3   	
  0x1008	int3   	
  0x1009	int3   	
  === BLOCK LINK ===
    0x100a
=== CODE BLOCK END ===

=== CODE BLOCK ADDRESS 0x100a ===
  0x100a	int3   	
  0x100b	int3   	
  0x100c	int3   	
  0x100d	int3   	
  0x100e	int3   	
  === BLOCK LINK ===
    0x100f
=== CODE BLOCK END ===

=== CODE BLOCK ADDRESS 0x100f ===
  0x100f	int3   	
  0x1010	dec    	eax
  0x1011	lea    	ecx, [0x1f29]
  0x1017	jmp    	0x2648
  === BLOCK LINK ===
    0x101c
    0x2648
=== CODE BLOCK END ===

=== CODE BLOCK ADDRESS 0x101c ===
  0x101c	int3   	
  0x101d	int3   	
  0x101e	int3   	
  0x101f	int3   	
  0x1020	int3   	
  === BLOCK LINK ===
    0x1021
=== CODE BLOCK END ===

=== CODE BLOCK ADDRESS 0x1021 ===
  0x1021	int3   	
  0x1022	int3   	
  0x1023	int3   	
  0x1024	int3   	
  0x1025	int3   	
  === BLOCK LINK ===
    0x1026
=== CODE BLOCK END ===

=== CODE BLOCK ADDRESS 0x1026 ===
  0x1026	int3   	
  0x1027	int3   	
  0x1028	int3   	
  0x1029	int3   	
  0x102a	int3   	
  === BLOCK LINK ===
    0x102b
=== CODE BLOCK END ===

=== CODE BLOCK ADDRESS 0x102b ===
  0x102b	int3   	
  0x102c	int3   	
  0x102d	int3   	
  0x102e	int3   	
  0x102f	int3   	
  === BLOCK LINK ===
    0x1030
=== CODE BLOCK END ===

=== CODE BLOCK ADDRESS 0x1030 ===
  0x1030	dec    	eax
  0x1031	lea    	ecx, [0x1ee9]
  0x1037	jmp    	0x2648
  === BLOCK LINK ===
    0x103c
    0x2648
=== CODE BLOCK END ===

=== CODE BLOCK ADDRESS 0x103c ===
  0x103c	int3   	
  0x103d	int3   	
  0x103e	int3   	
  0x103f	int3   	
  0x1040	int3   	
  === BLOCK LINK ===
    0x1041
=== CODE BLOCK END ===

=== CODE BLOCK ADDRESS 0x1041 ===
  0x1041	int3   	
  0x1042	int3   	
  0x1043	int3   	
  0x1044	int3   	
  0x1045	int3   	
  === BLOCK LINK ===
    0x1046
=== CODE BLOCK END ===

=== CODE BLOCK ADDRESS 0x1046 ===
  0x1046	int3   	
  0x1047	int3   	
  0x1048	int3   	
  0x1049	int3   	
  0x104a	int3   	
  === BLOCK LINK ===
    0x104b
=== CODE BLOCK END ===

=== CODE BLOCK ADDRESS 0x104b ===
  0x104b	int3   	
  0x104c	int3   	
  0x104d	int3   	
  0x104e	int3   	
  0x104f	int3   	
  === BLOCK LINK ===
    0x1050
=== CODE BLOCK END ===

=== CODE BLOCK ADDRESS 0x1050 ===
  0x1050	dec    	eax
  0x1051	lea    	ecx, [0x1ea9]
  0x1057	jmp    	0x2648
  === BLOCK LINK ===
    0x105c
    0x2648
=== CODE BLOCK END ===

=== CODE BLOCK ADDRESS 0x105c ===
  0x105c	int3   	
  0x105d	int3   	
  0x105e	int3   	
  0x105f	int3   	
  0x1060	int3   	
  === BLOCK LINK ===
    0x1061
=== CODE BLOCK END ===

=== CODE BLOCK ADDRESS 0x1061 ===
  0x1061	int3   	
  0x1062	int3   	
  0x1063	int3   	
  0x1064	int3   	
  0x1065	int3   	
  === BLOCK LINK ===
    0x1066
=== CODE BLOCK END ===

=== CODE BLOCK ADDRESS 0x1066 ===
  0x1066	int3   	
  0x1067	int3   	
  0x1068	int3   	
  0x1069	int3   	
  0x106a	int3   	
  === BLOCK LINK ===
    0x106b
=== CODE BLOCK END ===

=== CODE BLOCK ADDRESS 0x106b ===
  0x106b	int3   	
  0x106c	int3   	
  0x106d	int3   	
  0x106e	int3   	
  0x106f	int3   	
  === BLOCK LINK ===
    0x1070
=== CODE BLOCK END ===

=== CODE BLOCK ADDRESS 0x1070 ===
  0x1070	inc    	eax
  0x1071	push   	ebx
  0x1072	dec    	eax
  0x1073	sub    	esp, 0x20
  0x1076	dec    	eax
  === BLOCK LINK ===
    0x1077
=== CODE BLOCK END ===

=== CODE BLOCK ADDRESS 0x1077 ===
  0x1077	lea    	eax, [0x296b]
  0x107d	dec    	eax
  0x107e	mov    	ebx, ecx
  0x1080	dec    	eax
  0x1081	mov    	dword ptr [ecx], eax
  === BLOCK LINK ===
    0x1083
=== CODE BLOCK END ===

=== CODE BLOCK ADDRESS 0x1083 ===
  0x1083	test   	dl, 1
  0x1086	je     	0x1094
  === BLOCK LINK ===
    0x1088
    0x1094
=== CODE BLOCK END ===

=== CODE BLOCK ADDRESS 0x1088 ===
  0x1088	dec    	eax
  0x1089	call   	dword ptr [0x2da1]
  === BLOCK LINK ===
    0x108f
=== CODE BLOCK END ===

=== CODE BLOCK ADDRESS 0x108f ===
  0x108f	nop    	dword ptr [eax + eax]
  === BLOCK LINK ===
    0x1094
=== CODE BLOCK END ===

=== CODE BLOCK ADDRESS 0x109b ===
  0x109b	pop    	ebx
  0x109c	ret    	
  0x109d	int3   	
  0x109e	int3   	
  0x109f	int3   	
  === BLOCK LINK ===
    0x10a0
=== CODE BLOCK END ===

=== CODE BLOCK ADDRESS 0x2648 ===
=== CODE BLOCK END ===

=== CODE BLOCK ADDRESS 0x10a0 ===
  0x10a0	int3   	
  0x10a1	int3   	
  0x10a2	int3   	
  0x10a3	int3   	
  0x10a4	int3   	
  === BLOCK LINK ===
    0x10a5
=== CODE BLOCK END ===

=== CODE BLOCK ADDRESS 0x10a5 ===
  0x10a5	int3   	
  0x10a6	int3   	
  0x10a7	int3   	
  0x10a8	int3   	
  0x10a9	int3   	
  === BLOCK LINK ===
    0x10aa
=== CODE BLOCK END ===

=== CODE BLOCK ADDRESS 0x10aa ===
  0x10aa	int3   	
  0x10ab	int3   	
  0x10ac	int3   	
  0x10ad	int3   	
  0x10ae	int3   	
  === BLOCK LINK ===
    0x10af
=== CODE BLOCK END ===

=== CODE BLOCK ADDRESS 0x10af ===
  0x10af	int3   	
  0x10b0	inc    	esp
  0x10b1	mov    	dword ptr [edx], eax
  0x10b3	dec    	eax
  0x10b4	mov    	eax, edx
  === BLOCK LINK ===
    0x10b6
=== CODE BLOCK END ===

=== CODE BLOCK ADDRESS 0x10b6 ===
  0x10b6	dec    	eax
  0x10b7	mov    	dword ptr [edx + 8], ecx
  0x10ba	ret    	
  0x10bb	int3   	
  0x10bc	int3   	
  === BLOCK LINK ===
    0x10bd
=== CODE BLOCK END ===

=== CODE BLOCK ADDRESS 0x10bd ===
  0x10bd	int3   	
  0x10be	int3   	
  0x10bf	int3   	
  0x10c0	int3   	
  0x10c1	int3   	
  === BLOCK LINK ===
    0x10c2
=== CODE BLOCK END ===

=== CODE BLOCK ADDRESS 0x10c2 ===
  0x10c2	int3   	
  0x10c3	int3   	
  0x10c4	int3   	
  0x10c5	int3   	
  0x10c6	int3   	
  === BLOCK LINK ===
    0x10c7
=== CODE BLOCK END ===

=== CODE BLOCK ADDRESS 0x10c7 ===
  0x10c7	int3   	
  0x10c8	int3   	
  0x10c9	int3   	
  0x10ca	int3   	
  0x10cb	int3   	
  === BLOCK LINK ===
    0x10cc
=== CODE BLOCK END ===

=== CODE BLOCK ADDRESS 0x10cc ===
  0x10cc	int3   	
  0x10cd	int3   	
  0x10ce	int3   	
  0x10cf	int3   	
  0x10d0	inc    	eax
  === BLOCK LINK ===
    0x10d1
=== CODE BLOCK END ===

=== CODE BLOCK ADDRESS 0x10d1 ===
  0x10d1	push   	ebx
  0x10d2	dec    	eax
  0x10d3	sub    	esp, 0x30
  0x10d6	dec    	eax
  0x10d7	mov    	eax, dword ptr [ecx]
  === BLOCK LINK ===
    0x10d9
=== CODE BLOCK END ===

=== CODE BLOCK ADDRESS 0x10d9 ===
  0x10d9	dec    	ecx
  0x10da	mov    	ebx, eax
  0x10dc	inc    	esp
  0x10dd	mov    	eax, edx
  0x10df	dec    	eax
  === BLOCK LINK ===
    0x10e0
=== CODE BLOCK END ===

=== CODE BLOCK ADDRESS 0x10e0 ===
  0x10e0	lea    	edx, [esp + 0x20]
  0x10e4	dec    	eax
  0x10e5	mov    	eax, dword ptr [eax + 0x18]
  0x10e8	call   	dword ptr [0x2dda]
  === BLOCK LINK ===
    0x10ee
=== CODE BLOCK END ===

=== CODE BLOCK ADDRESS 0x10ee ===
  0x10ee	dec    	eax
  0x10ef	mov    	ecx, dword ptr [ebx + 8]
  0x10f2	dec    	eax
  0x10f3	cmp    	dword ptr [eax + 8], ecx
  0x10f6	jne    	0x1102
  === BLOCK LINK ===
    0x10f8
    0x1102
=== CODE BLOCK END ===

=== CODE BLOCK ADDRESS 0x10f8 ===
  0x10f8	mov    	ecx, dword ptr [ebx]
  0x10fa	cmp    	dword ptr [eax], ecx
  0x10fc	jne    	0x1102
  === BLOCK LINK ===
    0x10fe
    0x1102
=== CODE BLOCK END ===

=== CODE BLOCK ADDRESS 0x10fe ===
  0x10fe	mov    	al, 1
  0x1100	jmp    	0x1104
  === BLOCK LINK ===
    0x1102
    0x1104
=== CODE BLOCK END ===

=== CODE BLOCK ADDRESS 0x1102 ===
  0x1102	xor    	al, al
  === BLOCK LINK ===
    0x1104
=== CODE BLOCK END ===

=== CODE BLOCK ADDRESS 0x110a ===
  0x110a	int3   	
  0x110b	int3   	
  0x110c	int3   	
  0x110d	int3   	
  0x110e	int3   	
  === BLOCK LINK ===
    0x110f
=== CODE BLOCK END ===

=== CODE BLOCK ADDRESS 0x110f ===
  0x110f	int3   	
  0x1110	int3   	
  0x1111	int3   	
  0x1112	int3   	
  0x1113	int3   	
  === BLOCK LINK ===
    0x1114
=== CODE BLOCK END ===

=== CODE BLOCK ADDRESS 0x1114 ===
  0x1114	int3   	
  0x1115	int3   	
  0x1116	int3   	
  0x1117	int3   	
  0x1118	int3   	
  === BLOCK LINK ===
    0x1119
=== CODE BLOCK END ===

=== CODE BLOCK ADDRESS 0x1119 ===
  0x1119	int3   	
  0x111a	int3   	
  0x111b	int3   	
  0x111c	int3   	
  0x111d	int3   	
  === BLOCK LINK ===
    0x111e
=== CODE BLOCK END ===

=== CODE BLOCK ADDRESS 0x111e ===
  0x111e	int3   	
  0x111f	int3   	
  0x1120	dec    	eax
  0x1121	cmp    	ecx, dword ptr [edx + 8]
  0x1124	jne    	0x112f
  === BLOCK LINK ===
    0x1126
    0x112f
=== CODE BLOCK END ===

=== CODE BLOCK ADDRESS 0x1126 ===
  0x1126	inc    	esp
  0x1127	cmp    	dword ptr [edx], eax
  0x1129	jne    	0x112f
  === BLOCK LINK ===
    0x112b
    0x112f
=== CODE BLOCK END ===

=== CODE BLOCK ADDRESS 0x112b ===
  0x112b	mov    	al, 1
  0x112d	ret    	
  0x112e	int3   	
  === BLOCK LINK ===
    0x112f
=== CODE BLOCK END ===

=== CODE BLOCK ADDRESS 0x1094 ===
  0x1094	dec    	eax
  0x1095	mov    	eax, ebx
  0x1097	dec    	eax
  0x1098	add    	esp, 0x20
  === BLOCK LINK ===
    0x109b
=== CODE BLOCK END ===

=== CODE BLOCK ADDRESS 0x1132 ===
  0x1132	int3   	
  0x1133	int3   	
  0x1134	int3   	
  0x1135	int3   	
  0x1136	int3   	
  === BLOCK LINK ===
    0x1137
=== CODE BLOCK END ===

=== CODE BLOCK ADDRESS 0x1137 ===
  0x1137	int3   	
  0x1138	int3   	
  0x1139	int3   	
  0x113a	int3   	
  0x113b	int3   	
  === BLOCK LINK ===
    0x113c
=== CODE BLOCK END ===

=== CODE BLOCK ADDRESS 0x113c ===
  0x113c	int3   	
  0x113d	int3   	
  0x113e	int3   	
  0x113f	int3   	
  0x1140	dec    	eax
  === BLOCK LINK ===
    0x1141
=== CODE BLOCK END ===

=== CODE BLOCK ADDRESS 0x1141 ===
  0x1141	lea    	eax, [0x3891]
  0x1147	ret    	
  0x1148	int3   	
  0x1149	int3   	
  0x114a	int3   	
  === BLOCK LINK ===
    0x114b
=== CODE BLOCK END ===

=== CODE BLOCK ADDRESS 0x114b ===
  0x114b	int3   	
  0x114c	int3   	
  0x114d	int3   	
  0x114e	int3   	
  0x114f	int3   	
  === BLOCK LINK ===
    0x1150
=== CODE BLOCK END ===

=== CODE BLOCK ADDRESS 0x1150 ===
  0x1150	inc    	eax
  0x1151	push   	ebx
  0x1152	dec    	eax
  0x1153	sub    	esp, 0x20
  0x1156	inc    	ecx
  === BLOCK LINK ===
    0x1157
=== CODE BLOCK END ===

=== CODE BLOCK ADDRESS 0x1157 ===
  0x1157	mov    	ecx, eax
  0x1159	dec    	eax
  0x115a	mov    	ebx, edx
  0x115c	call   	0x2148
  === BLOCK LINK ===
    0x1161
    0x2148
=== CODE BLOCK END ===

=== CODE BLOCK ADDRESS 0x1161 ===
  0x1161	inc    	ebp
  0x1162	xor    	eax, eax
  0x1164	dec    	eax
  0x1165	mov    	dword ptr [ebx + 0x18], 0xf
  0x116c	dec    	eax
  === BLOCK LINK ===
    0x116d
=== CODE BLOCK END ===

=== CODE BLOCK ADDRESS 0x116d ===
  0x116d	test   	eax, eax
  0x116f	dec    	esp
  0x1170	mov    	dword ptr [ebx + 0x10], eax
  0x1173	dec    	eax
  0x1174	lea    	edx, [0x3866]
  === BLOCK LINK ===
    0x117a
=== CODE BLOCK END ===

=== CODE BLOCK ADDRESS 0x117a ===
  0x117a	inc    	esp
  0x117b	mov    	byte ptr [ebx], al
  0x117d	dec    	eax
  0x117e	cmovne  	edx, eax
  0x1181	inc    	esp
  === BLOCK LINK ===
    0x1182
=== CODE BLOCK END ===

=== CODE BLOCK ADDRESS 0x1182 ===
  0x1182	cmp    	byte ptr [edx], al
  0x1184	je     	0x1196
  === BLOCK LINK ===
    0x1186
    0x1196
=== CODE BLOCK END ===

=== CODE BLOCK ADDRESS 0x1186 ===
  0x1186	dec    	eax
  0x1187	or     	eax, 0xffffffff
  === BLOCK LINK ===
    0x118a
=== CODE BLOCK END ===

=== CODE BLOCK ADDRESS 0x118e ===
  0x118e	cmp    	byte ptr [edx + eax], al
  0x1191	jne    	0x118a
  === BLOCK LINK ===
    0x1193
    0x118a
=== CODE BLOCK END ===

=== CODE BLOCK ADDRESS 0x1193 ===
  0x1193	dec    	esp
  0x1194	mov    	eax, eax
  === BLOCK LINK ===
    0x1196
    0x1adc
=== CODE BLOCK END ===

=== CODE BLOCK ADDRESS 0x119e ===
  0x119e	dec    	eax
  0x119f	mov    	eax, ebx
  0x11a1	dec    	eax
  0x11a2	add    	esp, 0x20
  0x11a5	pop    	ebx
  === BLOCK LINK ===
    0x11a6
=== CODE BLOCK END ===

=== CODE BLOCK ADDRESS 0x11a6 ===
  0x11a6	ret    	
  0x11a7	int3   	
  0x11a8	int3   	
  0x11a9	int3   	
  0x11aa	int3   	
  === BLOCK LINK ===
    0x11ab
=== CODE BLOCK END ===

=== CODE BLOCK ADDRESS 0x1104 ===
  0x1104	dec    	eax
  0x1105	add    	esp, 0x30
  0x1108	pop    	ebx
  0x1109	ret    	
  === BLOCK LINK ===
    0x110a
=== CODE BLOCK END ===

=== CODE BLOCK ADDRESS 0x11ab ===
  0x11ab	int3   	
  0x11ac	int3   	
  0x11ad	int3   	
  0x11ae	int3   	
  0x11af	int3   	
  === BLOCK LINK ===
    0x11b0
=== CODE BLOCK END ===

=== CODE BLOCK ADDRESS 0x11b0 ===
  0x11b0	dec    	eax
  0x11b1	lea    	eax, [0x3839]
  0x11b7	ret    	
  0x11b8	int3   	
  0x11b9	int3   	
  === BLOCK LINK ===
    0x11ba
=== CODE BLOCK END ===

=== CODE BLOCK ADDRESS 0x112f ===
  0x112f	xor    	al, al
  0x1131	ret    	
  === BLOCK LINK ===
    0x1132
=== CODE BLOCK END ===

=== CODE BLOCK ADDRESS 0x11ba ===
  0x11ba	int3   	
  0x11bb	int3   	
  0x11bc	int3   	
  0x11bd	int3   	
  0x11be	int3   	
  === BLOCK LINK ===
    0x11bf
=== CODE BLOCK END ===

=== CODE BLOCK ADDRESS 0x11bf ===
  0x11bf	int3   	
  0x11c0	inc    	eax
  0x11c1	push   	ebx
  0x11c2	dec    	eax
  0x11c3	sub    	esp, 0x20
  === BLOCK LINK ===
    0x11c6
=== CODE BLOCK END ===

=== CODE BLOCK ADDRESS 0x11c6 ===
  0x11c6	dec    	eax
  0x11c7	mov    	ebx, edx
  0x11c9	inc    	ecx
  0x11ca	cmp    	eax, 1
  0x11cd	jne    	0x11f0
  === BLOCK LINK ===
    0x11cf
    0x11f0
=== CODE BLOCK END ===

=== CODE BLOCK ADDRESS 0x11cf ===
  0x11cf	inc    	ebp
  0x11d0	xor    	eax, eax
  0x11d2	dec    	eax
  0x11d3	mov    	dword ptr [edx + 0x18], 0xf
  0x11da	dec    	esp
  === BLOCK LINK ===
    0x11db
=== CODE BLOCK END ===

=== CODE BLOCK ADDRESS 0x11db ===
  0x11db	mov    	dword ptr [edx + 0x10], eax
  0x11de	inc    	esp
  0x11df	mov    	byte ptr [edx], al
  0x11e1	inc    	ecx
  0x11e2	mov    	eax, 0x15
  === BLOCK LINK ===
    0x11e7
=== CODE BLOCK END ===

=== CODE BLOCK ADDRESS 0x11e7 ===
  0x11e7	dec    	eax
  0x11e8	lea    	edx, [0x3812]
  0x11ee	jmp    	0x122d
  === BLOCK LINK ===
    0x11f0
    0x122d
=== CODE BLOCK END ===

=== CODE BLOCK ADDRESS 0x11f0 ===
  0x11f0	inc    	ecx
  0x11f1	mov    	ecx, eax
  0x11f3	call   	0x2148
  === BLOCK LINK ===
    0x11f8
    0x2148
=== CODE BLOCK END ===

=== CODE BLOCK ADDRESS 0x11f8 ===
  0x11f8	inc    	ebp
  0x11f9	xor    	eax, eax
  0x11fb	dec    	eax
  0x11fc	mov    	dword ptr [ebx + 0x18], 0xf
  0x1203	dec    	eax
  === BLOCK LINK ===
    0x1204
=== CODE BLOCK END ===

=== CODE BLOCK ADDRESS 0x1204 ===
  0x1204	test   	eax, eax
  0x1206	dec    	esp
  0x1207	mov    	dword ptr [ebx + 0x10], eax
  0x120a	dec    	eax
  0x120b	lea    	edx, [0x37cf]
  === BLOCK LINK ===
    0x1211
=== CODE BLOCK END ===

=== CODE BLOCK ADDRESS 0x1211 ===
  0x1211	inc    	esp
  0x1212	mov    	byte ptr [ebx], al
  0x1214	dec    	eax
  0x1215	cmovne  	edx, eax
  0x1218	inc    	esp
  === BLOCK LINK ===
    0x1219
=== CODE BLOCK END ===

=== CODE BLOCK ADDRESS 0x1219 ===
  0x1219	cmp    	byte ptr [edx], al
  0x121b	je     	0x122d
  === BLOCK LINK ===
    0x121d
    0x122d
=== CODE BLOCK END ===

=== CODE BLOCK ADDRESS 0x121d ===
  0x121d	dec    	eax
  0x121e	or     	eax, 0xffffffff
  === BLOCK LINK ===
    0x1221
=== CODE BLOCK END ===

=== CODE BLOCK ADDRESS 0x1225 ===
  0x1225	cmp    	byte ptr [edx + eax], al
  0x1228	jne    	0x1221
  === BLOCK LINK ===
    0x122a
    0x1221
=== CODE BLOCK END ===

=== CODE BLOCK ADDRESS 0x122a ===
  0x122a	dec    	esp
  0x122b	mov    	eax, eax
  === BLOCK LINK ===
    0x122d
    0x1adc
=== CODE BLOCK END ===

=== CODE BLOCK ADDRESS 0x1235 ===
  0x1235	dec    	eax
  0x1236	mov    	eax, ebx
  0x1238	dec    	eax
  0x1239	add    	esp, 0x20
  0x123c	pop    	ebx
  === BLOCK LINK ===
    0x123d
=== CODE BLOCK END ===

=== CODE BLOCK ADDRESS 0x123d ===
  0x123d	ret    	
  0x123e	int3   	
  0x123f	int3   	
  0x1240	int3   	
  0x1241	int3   	
  === BLOCK LINK ===
    0x1242
=== CODE BLOCK END ===

=== CODE BLOCK ADDRESS 0x1242 ===
  0x1242	int3   	
  0x1243	int3   	
  0x1244	int3   	
  0x1245	int3   	
  0x1246	int3   	
  === BLOCK LINK ===
    0x1247
=== CODE BLOCK END ===

=== CODE BLOCK ADDRESS 0x1247 ===
  0x1247	int3   	
  0x1248	int3   	
  0x1249	int3   	
  0x124a	int3   	
  0x124b	int3   	
  === BLOCK LINK ===
    0x124c
=== CODE BLOCK END ===

=== CODE BLOCK ADDRESS 0x124c ===
  0x124c	int3   	
  0x124d	int3   	
  0x124e	int3   	
  0x124f	int3   	
  0x1250	dec    	eax
  === BLOCK LINK ===
    0x1251
=== CODE BLOCK END ===

=== CODE BLOCK ADDRESS 0x1251 ===
  0x1251	lea    	eax, [0x37c1]
  0x1257	ret    	
  0x1258	int3   	
  0x1259	int3   	
  0x125a	int3   	
  === BLOCK LINK ===
    0x125b
=== CODE BLOCK END ===

=== CODE BLOCK ADDRESS 0x2148 ===
  0x2148	dec    	eax
  0x2149	cmp    	dword ptr [0x1388], 0
  0x2150	dec    	eax
  0x2151	lea    	eax, [0x1379]
  0x2157	je     	0x2168
  === BLOCK LINK ===
    0x2159
=== CODE BLOCK END ===

=== CODE BLOCK ADDRESS 0x125b ===
  0x125b	int3   	
  0x125c	int3   	
  0x125d	int3   	
  0x125e	int3   	
  0x125f	int3   	
  === BLOCK LINK ===
    0x1260
=== CODE BLOCK END ===

=== CODE BLOCK ADDRESS 0x1260 ===
  0x1260	inc    	eax
  0x1261	push   	ebx
  0x1262	dec    	eax
  0x1263	sub    	esp, 0x20
  0x1266	inc    	ecx
  === BLOCK LINK ===
    0x1267
=== CODE BLOCK END ===

=== CODE BLOCK ADDRESS 0x1267 ===
  0x1267	mov    	ecx, eax
  0x1269	dec    	eax
  0x126a	mov    	ebx, edx
  0x126c	call   	0x2178
  === BLOCK LINK ===
    0x1271
    0x2178
=== CODE BLOCK END ===

=== CODE BLOCK ADDRESS 0x1271 ===
  0x1271	inc    	ebp
  0x1272	xor    	eax, eax
  0x1274	dec    	eax
  0x1275	mov    	dword ptr [ebx + 0x18], 0xf
  0x127c	dec    	eax
  === BLOCK LINK ===
    0x127d
=== CODE BLOCK END ===

=== CODE BLOCK ADDRESS 0x127d ===
  0x127d	test   	eax, eax
  0x127f	dec    	esp
  0x1280	mov    	dword ptr [ebx + 0x10], eax
  0x1283	dec    	eax
  0x1284	lea    	edx, [0x3756]
  === BLOCK LINK ===
    0x128a
=== CODE BLOCK END ===

=== CODE BLOCK ADDRESS 0x128a ===
  0x128a	inc    	esp
  0x128b	mov    	byte ptr [ebx], al
  0x128d	dec    	eax
  0x128e	cmovne  	edx, eax
  0x1291	inc    	esp
  === BLOCK LINK ===
    0x1292
=== CODE BLOCK END ===

=== CODE BLOCK ADDRESS 0x1292 ===
  0x1292	cmp    	byte ptr [edx], al
  0x1294	je     	0x12a6
  === BLOCK LINK ===
    0x1296
    0x12a6
=== CODE BLOCK END ===

=== CODE BLOCK ADDRESS 0x1296 ===
  0x1296	dec    	eax
  0x1297	or     	eax, 0xffffffff
  === BLOCK LINK ===
    0x129a
=== CODE BLOCK END ===

=== CODE BLOCK ADDRESS 0x129e ===
  0x129e	cmp    	byte ptr [edx + eax], al
  0x12a1	jne    	0x129a
  === BLOCK LINK ===
    0x12a3
    0x129a
=== CODE BLOCK END ===

=== CODE BLOCK ADDRESS 0x12a3 ===
  0x12a3	dec    	esp
  0x12a4	mov    	eax, eax
  === BLOCK LINK ===
    0x12a6
    0x1adc
=== CODE BLOCK END ===

=== CODE BLOCK ADDRESS 0x12ae ===
  0x12ae	dec    	eax
  0x12af	mov    	eax, ebx
  0x12b1	dec    	eax
  0x12b2	add    	esp, 0x20
  0x12b5	pop    	ebx
  === BLOCK LINK ===
    0x12b6
=== CODE BLOCK END ===

=== CODE BLOCK ADDRESS 0x12b6 ===
  0x12b6	ret    	
  0x12b7	int3   	
  0x12b8	int3   	
  0x12b9	int3   	
  0x12ba	int3   	
  === BLOCK LINK ===
    0x12bb
=== CODE BLOCK END ===

=== CODE BLOCK ADDRESS 0x1196 ===
  0x1196	dec    	eax
  0x1197	mov    	ecx, ebx
  0x1199	call   	0x1adc
  === BLOCK LINK ===
    0x119e
=== CODE BLOCK END ===

=== CODE BLOCK ADDRESS 0x12bb ===
  0x12bb	int3   	
  0x12bc	int3   	
  0x12bd	int3   	
  0x12be	int3   	
  0x12bf	int3   	
  === BLOCK LINK ===
    0x12c0
=== CODE BLOCK END ===

=== CODE BLOCK ADDRESS 0x12c0 ===
  0x12c0	inc    	eax
  0x12c1	push   	edi
  0x12c2	dec    	eax
  0x12c3	sub    	esp, 0x30
  0x12c6	dec    	eax
  === BLOCK LINK ===
    0x12c7
=== CODE BLOCK END ===

=== CODE BLOCK ADDRESS 0x12c7 ===
  0x12c7	mov    	dword ptr [esp + 0x20], 0xfffffffe
  0x12cf	dec    	eax
  0x12d0	mov    	dword ptr [esp + 0x40], ebx
  0x12d4	inc    	ecx
  0x12d5	mov    	ebx, eax
  === BLOCK LINK ===
    0x12d7
=== CODE BLOCK END ===

=== CODE BLOCK ADDRESS 0x12d7 ===
  0x12d7	dec    	eax
  0x12d8	mov    	edi, edx
  0x12da	inc    	ecx
  0x12db	mov    	ecx, eax
  0x12dd	call   	0x2148
  === BLOCK LINK ===
    0x12e2
    0x2148
=== CODE BLOCK END ===

=== CODE BLOCK ADDRESS 0x12e2 ===
  0x12e2	nop    	
  0x12e3	mov    	dword ptr [edi], ebx
  0x12e5	dec    	eax
  0x12e6	test   	eax, eax
  0x12e8	dec    	eax
  === BLOCK LINK ===
    0x12e9
=== CODE BLOCK END ===

=== CODE BLOCK ADDRESS 0x12e9 ===
  0x12e9	lea    	eax, [0x5d11]
  0x12ef	jne    	0x12f8
  === BLOCK LINK ===
    0x12f1
    0x12f8
=== CODE BLOCK END ===

=== CODE BLOCK ADDRESS 0x12f1 ===
  0x12f1	dec    	eax
  0x12f2	lea    	eax, [0x5d10]
  === BLOCK LINK ===
    0x12f8
=== CODE BLOCK END ===

=== CODE BLOCK ADDRESS 0x12fd ===
  0x12fd	mov    	eax, edi
  0x12ff	dec    	eax
  0x1300	mov    	ebx, dword ptr [esp + 0x40]
  0x1304	dec    	eax
  0x1305	add    	esp, 0x30
  === BLOCK LINK ===
    0x1308
=== CODE BLOCK END ===

=== CODE BLOCK ADDRESS 0x1308 ===
  0x1308	pop    	edi
  0x1309	ret    	
  0x130a	int3   	
  0x130b	int3   	
  0x130c	int3   	
  === BLOCK LINK ===
    0x130d
=== CODE BLOCK END ===

=== CODE BLOCK ADDRESS 0x118a ===
  0x118a	dec    	eax
  0x118b	inc    	eax
  0x118d	inc    	esp
  === BLOCK LINK ===
    0x118e
=== CODE BLOCK END ===

=== CODE BLOCK ADDRESS 0x130d ===
  0x130d	int3   	
  0x130e	int3   	
  0x130f	int3   	
  0x1310	int3   	
  0x1311	int3   	
  === BLOCK LINK ===
    0x1312
=== CODE BLOCK END ===

=== CODE BLOCK ADDRESS 0x1312 ===
  0x1312	int3   	
  0x1313	int3   	
  === BLOCK LINK ===
    0x1314
=== CODE BLOCK END ===

=== CODE BLOCK ADDRESS 0x131e ===
  0x131e	dec    	ebp
  0x131f	mov    	edx, eax
  0x1321	inc    	esp
  0x1322	mov    	ecx, edx
  0x1324	dec    	esp
  === BLOCK LINK ===
    0x1325
=== CODE BLOCK END ===

=== CODE BLOCK ADDRESS 0x1325 ===
  0x1325	mov    	ebx, ecx
  0x1327	dec    	eax
  0x1328	mov    	eax, ecx
  0x132a	xor    	ebx, ebx
  0x132c	cmp    	word ptr [eax], bx
  === BLOCK LINK ===
    0x132f
=== CODE BLOCK END ===

=== CODE BLOCK ADDRESS 0x132f ===
  0x132f	je     	0x133b
  === BLOCK LINK ===
    0x1331
    0x133b
=== CODE BLOCK END ===

=== CODE BLOCK ADDRESS 0x1331 ===
  0x1331	dec    	eax
  0x1332	add    	eax, 2
  0x1335	dec    	ecx
  0x1336	sub    	ecx, 1
  0x1339	jne    	0x132c
  === BLOCK LINK ===
    0x133b
    0x132c
=== CODE BLOCK END ===

=== CODE BLOCK ADDRESS 0x133b ===
  0x133b	dec    	eax
  0x133c	mov    	ecx, edx
  0x133e	dec    	ecx
  0x133f	mov    	eax, ecx
  0x1341	dec    	ecx
  === BLOCK LINK ===
    0x1342
=== CODE BLOCK END ===

=== CODE BLOCK ADDRESS 0x1342 ===
  0x1342	sub    	ecx, ecx
  0x1344	dec    	eax
  0x1345	neg    	eax
  0x1347	dec    	ecx
  0x1348	mov    	eax, ecx
  === BLOCK LINK ===
    0x134a
=== CODE BLOCK END ===

=== CODE BLOCK ADDRESS 0x134a ===
  0x134a	dec    	ebp
  0x134b	sbb    	eax, eax
  0x134d	dec    	esp
  0x134e	and    	eax, ecx
  0x1350	dec    	eax
  === BLOCK LINK ===
    0x1351
=== CODE BLOCK END ===

=== CODE BLOCK ADDRESS 0x1351 ===
  0x1351	neg    	eax
  0x1353	sbb    	eax, eax
  0x1355	not    	eax
  0x1357	and    	eax, 0x80070057
  0x135c	dec    	ebp
  === BLOCK LINK ===
    0x135d
=== CODE BLOCK END ===

=== CODE BLOCK ADDRESS 0x135d ===
  0x135d	test   	ecx, ecx
  0x135f	je     	0x13b2
  === BLOCK LINK ===
    0x1361
    0x13b2
=== CODE BLOCK END ===

=== CODE BLOCK ADDRESS 0x1361 ===
  0x1361	dec    	ebx
  0x1362	lea    	ecx, [ebx + eax*2]
  0x1365	dec    	ecx
  0x1366	sub    	edx, eax
  0x1368	je     	0x1398
  === BLOCK LINK ===
    0x136a
    0x1398
=== CODE BLOCK END ===

=== CODE BLOCK ADDRESS 0x136a ===
  0x136a	dec    	ecx
  0x136b	lea    	eax, [eax + 0x7ffffefa]
  0x1371	dec    	eax
  0x1372	add    	eax, edx
  0x1374	dec    	esp
  === BLOCK LINK ===
    0x1375
=== CODE BLOCK END ===

=== CODE BLOCK ADDRESS 0x1375 ===
  0x1375	sub    	edx, ecx
  === BLOCK LINK ===
    0x1377
=== CODE BLOCK END ===

=== CODE BLOCK ADDRESS 0x137c ===
  0x137c	inc    	ebp
  0x137d	movzx  	eax, word ptr [edx + ecx]
  0x1381	inc    	bp
  0x1383	test   	eax, eax
  0x1385	je     	0x1398
  === BLOCK LINK ===
    0x1387
    0x1398
=== CODE BLOCK END ===

=== CODE BLOCK ADDRESS 0x1387 ===
  0x1387	inc    	sp
  0x1389	mov    	dword ptr [ecx], eax
  0x138b	dec    	eax
  0x138c	dec    	eax
  0x138e	dec    	eax
  === BLOCK LINK ===
    0x138f
=== CODE BLOCK END ===

=== CODE BLOCK ADDRESS 0x138f ===
  0x138f	add    	ecx, 2
  0x1392	dec    	eax
  0x1393	sub    	edx, 1
  0x1396	jne    	0x1377
  === BLOCK LINK ===
    0x1398
    0x1377
=== CODE BLOCK END ===

=== CODE BLOCK ADDRESS 0x1398 ===
  0x1398	dec    	eax
  0x1399	test   	edx, edx
  0x139b	dec    	eax
  0x139c	lea    	eax, [ecx - 2]
  0x139f	dec    	eax
  === BLOCK LINK ===
    0x13a0
=== CODE BLOCK END ===

=== CODE BLOCK ADDRESS 0x13a0 ===
  0x13a0	cmovne  	eax, ecx
  0x13a3	dec    	eax
  0x13a4	neg    	edx
  0x13a6	mov    	word ptr [eax], bx
  0x13a9	sbb    	eax, eax
  === BLOCK LINK ===
    0x13ab
=== CODE BLOCK END ===

=== CODE BLOCK ADDRESS 0x13ab ===
  0x13ab	not    	eax
  0x13ad	and    	eax, 0x8007007a
  === BLOCK LINK ===
    0x13b2
=== CODE BLOCK END ===

=== CODE BLOCK ADDRESS 0x1adc ===
=== CODE BLOCK END ===

=== CODE BLOCK ADDRESS 0x13b8 ===
  0x13b8	int3   	
  0x13b9	int3   	
  0x13ba	int3   	
  0x13bb	int3   	
  0x13bc	int3   	
  === BLOCK LINK ===
    0x13bd
=== CODE BLOCK END ===

=== CODE BLOCK ADDRESS 0x13bd ===
  0x13bd	int3   	
  0x13be	int3   	
  0x13bf	int3   	
  0x13c0	dec    	eax
  0x13c1	mov    	dword ptr [esp + 8], ebx
  === BLOCK LINK ===
    0x13c5
=== CODE BLOCK END ===

=== CODE BLOCK ADDRESS 0x13c5 ===
  0x13c5	push   	ebp
  0x13c6	dec    	eax
  0x13c7	lea    	ebp, [esp - 0x220]
  0x13ce	dec    	eax
  0x13cf	sub    	esp, 0x320
  === BLOCK LINK ===
    0x13d5
=== CODE BLOCK END ===

=== CODE BLOCK ADDRESS 0x13d5 ===
  0x13d5	dec    	eax
  0x13d6	mov    	eax, dword ptr [0x5d0c]
  0x13dc	dec    	eax
  0x13dd	xor    	eax, esp
  0x13df	dec    	eax
  === BLOCK LINK ===
    0x13e0
=== CODE BLOCK END ===

=== CODE BLOCK ADDRESS 0x13e0 ===
  0x13e0	mov    	dword ptr [ebp + 0x210], eax
  0x13e6	dec    	eax
  0x13e7	and    	dword ptr [esp + 0x68], 0
  0x13ec	dec    	eax
  0x13ed	lea    	ecx, [ebp]
  === BLOCK LINK ===
    0x13f0
=== CODE BLOCK END ===

=== CODE BLOCK ADDRESS 0x13f0 ===
  0x13f0	and    	dword ptr [esp + 0x60], 0
  0x13f5	xor    	edx, edx
  0x13f7	inc    	ecx
  0x13f8	mov    	eax, 0x208
  0x13fd	call   	0x2dd1
  === BLOCK LINK ===
    0x1402
    0x2dd1
=== CODE BLOCK END ===

=== CODE BLOCK ADDRESS 0x1402 ===
  0x1402	xor    	eax, eax
  0x1404	dec    	eax
  0x1405	lea    	ecx, [ebp - 0x70]
  0x1408	xorps  	xmm0, xmm0
  0x140b	dec    	eax
  === BLOCK LINK ===
    0x140c
=== CODE BLOCK END ===

=== CODE BLOCK ADDRESS 0x140c ===
  0x140c	mov    	dword ptr [ebp - 0x78], eax
  0x140f	xor    	edx, edx
  0x1411	movups  	xmmword ptr [esp + 0x78], xmm0
  0x1416	inc    	esp
  0x1417	lea    	eax, [eax + 0x68]
  === BLOCK LINK ===
    0x141a
=== CODE BLOCK END ===

=== CODE BLOCK ADDRESS 0x141a ===
  0x141a	call   	0x2dd1
  === BLOCK LINK ===
    0x141f
    0x2dd1
=== CODE BLOCK END ===

=== CODE BLOCK ADDRESS 0x141f ===
  0x141f	dec    	eax
  0x1420	call   	dword ptr [0x286a]
  === BLOCK LINK ===
    0x1426
=== CODE BLOCK END ===

=== CODE BLOCK ADDRESS 0x1426 ===
  0x1426	nop    	dword ptr [eax + eax]
  0x142b	dec    	eax
  0x142c	mov    	ecx, eax
  0x142e	dec    	eax
  0x142f	lea    	edx, [esp + 0x70]
  === BLOCK LINK ===
    0x1433
=== CODE BLOCK END ===

=== CODE BLOCK ADDRESS 0x1433 ===
  0x1433	dec    	eax
  0x1434	call   	dword ptr [0x292e]
  === BLOCK LINK ===
    0x143a
=== CODE BLOCK END ===

=== CODE BLOCK ADDRESS 0x143a ===
  0x143a	nop    	dword ptr [eax + eax]
  0x143f	dec    	eax
  0x1440	mov    	ebx, eax
  0x1442	dec    	eax
  0x1443	test   	eax, eax
  === BLOCK LINK ===
    0x1445
=== CODE BLOCK END ===

=== CODE BLOCK ADDRESS 0x1445 ===
  0x1445	jne    	0x1466
  === BLOCK LINK ===
    0x1447
    0x1466
=== CODE BLOCK END ===

=== CODE BLOCK ADDRESS 0x1447 ===
  0x1447	dec    	esp
  0x1448	lea    	ecx, [0x35fa]
  0x144e	inc    	esp
  0x144f	lea    	eax, [eax + 0x48]
  0x1452	dec    	eax
  === BLOCK LINK ===
    0x1453
=== CODE BLOCK END ===

=== CODE BLOCK ADDRESS 0x1453 ===
  0x1453	lea    	edx, [0x360f]
  0x1459	lea    	ecx, [eax + 1]
  0x145c	call   	0x1ea4
  === BLOCK LINK ===
    0x1461
    0x1ea4
=== CODE BLOCK END ===

=== CODE BLOCK ADDRESS 0x1461 ===
  0x1461	jmp    	0x1668
  === BLOCK LINK ===
    0x1466
    0x1668
=== CODE BLOCK END ===

=== CODE BLOCK ADDRESS 0x1466 ===
  0x1466	cmp    	dword ptr [esp + 0x70], 2
  0x146b	jne    	0x150b
  === BLOCK LINK ===
    0x1471
    0x150b
=== CODE BLOCK END ===

=== CODE BLOCK ADDRESS 0x1471 ===
  0x1471	dec    	eax
  0x1472	mov    	ecx, dword ptr [eax + 8]
  0x1475	dec    	eax
  0x1476	lea    	edx, [0x35a4]
  0x147c	dec    	eax
  === BLOCK LINK ===
    0x147d
=== CODE BLOCK END ===

=== CODE BLOCK ADDRESS 0x147d ===
  0x147d	call   	dword ptr [0x2a15]
  === BLOCK LINK ===
    0x1483
=== CODE BLOCK END ===

=== CODE BLOCK ADDRESS 0x1483 ===
  0x1483	nop    	dword ptr [eax + eax]
  0x1488	test   	eax, eax
  0x148a	jne    	0x149d
  === BLOCK LINK ===
    0x148c
    0x149d
=== CODE BLOCK END ===

=== CODE BLOCK ADDRESS 0x148c ===
  0x148c	dec    	eax
  0x148d	call   	dword ptr [0x28fd]
  === BLOCK LINK ===
    0x1493
=== CODE BLOCK END ===

=== CODE BLOCK ADDRESS 0x1493 ===
  0x1493	nop    	dword ptr [eax + eax]
  0x1498	jmp    	0x162e
  === BLOCK LINK ===
    0x149d
    0x162e
=== CODE BLOCK END ===

=== CODE BLOCK ADDRESS 0x149d ===
  0x149d	dec    	eax
  0x149e	mov    	ecx, dword ptr [ebx + 8]
  0x14a1	dec    	eax
  0x14a2	lea    	edx, [0x3588]
  0x14a8	dec    	eax
  === BLOCK LINK ===
    0x14a9
=== CODE BLOCK END ===

=== CODE BLOCK ADDRESS 0x14a9 ===
  0x14a9	call   	dword ptr [0x29e9]
  === BLOCK LINK ===
    0x14af
=== CODE BLOCK END ===

=== CODE BLOCK ADDRESS 0x14af ===
  0x14af	nop    	dword ptr [eax + eax]
  0x14b4	test   	eax, eax
  0x14b6	jne    	0x14e0
  === BLOCK LINK ===
    0x14b8
    0x14e0
=== CODE BLOCK END ===

=== CODE BLOCK ADDRESS 0x14b8 ===
  0x14b8	dec    	eax
  0x14b9	lea    	ecx, [esp + 0x60]
  0x14bd	mov    	dword ptr [esp + 0x60], 0xfffffffe
  0x14c5	call   	0x1960
  === BLOCK LINK ===
    0x14ca
    0x1960
=== CODE BLOCK END ===

=== CODE BLOCK ADDRESS 0x14ca ===
  0x14ca	dec    	eax
  0x14cb	call   	dword ptr [0x28b7]
  === BLOCK LINK ===
    0x14d1
=== CODE BLOCK END ===

=== CODE BLOCK ADDRESS 0x14d1 ===
  0x14d1	nop    	dword ptr [eax + eax]
  0x14d6	call   	0x17f0
  === BLOCK LINK ===
    0x14db
    0x17f0
=== CODE BLOCK END ===

=== CODE BLOCK ADDRESS 0x14db ===
  0x14db	jmp    	0x162e
  === BLOCK LINK ===
    0x14e0
    0x162e
=== CODE BLOCK END ===

=== CODE BLOCK ADDRESS 0x14e0 ===
  0x14e0	dec    	eax
  0x14e1	mov    	eax, dword ptr [ebx + 8]
  0x14e4	dec    	esp
  0x14e5	lea    	ecx, [0x358d]
  0x14eb	inc    	ecx
  === BLOCK LINK ===
    0x14ec
=== CODE BLOCK END ===

=== CODE BLOCK ADDRESS 0x14ec ===
  0x14ec	mov    	eax, 0x62
  0x14f1	dec    	eax
  0x14f2	mov    	dword ptr [esp + 0x20], eax
  0x14f6	dec    	eax
  0x14f7	lea    	edx, [0x356b]
  === BLOCK LINK ===
    0x14fd
=== CODE BLOCK END ===

=== CODE BLOCK ADDRESS 0x14fd ===
  0x14fd	inc    	ecx
  0x14fe	lea    	ecx, [eax - 0x61]
  0x1501	call   	0x1ea4
  === BLOCK LINK ===
    0x1506
    0x1ea4
=== CODE BLOCK END ===

=== CODE BLOCK ADDRESS 0x1506 ===
  0x1506	jmp    	0x162e
  === BLOCK LINK ===
    0x150b
    0x162e
=== CODE BLOCK END ===

=== CODE BLOCK ADDRESS 0x150b ===
  0x150b	dec    	eax
  0x150c	lea    	ecx, [esp + 0x74]
  0x1510	mov    	dword ptr [esp + 0x74], 0xfffffffe
  0x1518	call   	0x1960
  === BLOCK LINK ===
    0x151d
    0x1960
=== CODE BLOCK END ===

=== CODE BLOCK ADDRESS 0x151d ===
  0x151d	dec    	eax
  0x151e	call   	dword ptr [0x2864]
  === BLOCK LINK ===
    0x1524
=== CODE BLOCK END ===

=== CODE BLOCK ADDRESS 0x1524 ===
  0x1524	nop    	dword ptr [eax + eax]
  0x1529	dec    	eax
  0x152a	lea    	edx, [esp + 0x60]
  0x152e	dec    	eax
  0x152f	lea    	ecx, [esp + 0x68]
  === BLOCK LINK ===
    0x1533
=== CODE BLOCK END ===

=== CODE BLOCK ADDRESS 0x1533 ===
  0x1533	call   	0x1694
  === BLOCK LINK ===
    0x1538
    0x1694
=== CODE BLOCK END ===

=== CODE BLOCK ADDRESS 0x1538 ===
  0x1538	test   	eax, eax
  0x153a	js     	0x15fd
  === BLOCK LINK ===
    0x1540
    0x15fd
=== CODE BLOCK END ===

=== CODE BLOCK ADDRESS 0x1540 ===
  0x1540	cmp    	dword ptr [esp + 0x60], 0
  0x1545	je     	0x1610
  === BLOCK LINK ===
    0x154b
    0x1610
=== CODE BLOCK END ===

=== CODE BLOCK ADDRESS 0x154b ===
  0x154b	inc    	ecx
  0x154c	mov    	eax, 0x104
  0x1551	dec    	eax
  0x1552	lea    	edx, [ebp]
  0x1555	xor    	ecx, ecx
  === BLOCK LINK ===
    0x1557
=== CODE BLOCK END ===

=== CODE BLOCK ADDRESS 0x1557 ===
  0x1557	dec    	eax
  0x1558	call   	dword ptr [0x2722]
  === BLOCK LINK ===
    0x155e
=== CODE BLOCK END ===

=== CODE BLOCK ADDRESS 0x155e ===
  0x155e	nop    	dword ptr [eax + eax]
  0x1563	test   	eax, eax
  0x1565	je     	0x1610
  === BLOCK LINK ===
    0x156b
    0x1610
=== CODE BLOCK END ===

=== CODE BLOCK ADDRESS 0x156b ===
  0x156b	dec    	esp
  0x156c	lea    	eax, [0x351a]
  0x1572	dec    	eax
  0x1573	lea    	ecx, [ebp]
  0x1576	call   	0x1314
  === BLOCK LINK ===
    0x157b
    0x1314
=== CODE BLOCK END ===

=== CODE BLOCK ADDRESS 0x157b ===
  0x157b	test   	eax, eax
  0x157d	js     	0x1615
  === BLOCK LINK ===
    0x1583
    0x1615
=== CODE BLOCK END ===

=== CODE BLOCK ADDRESS 0x1583 ===
  0x1583	dec    	esp
  0x1584	lea    	eax, [0x3496]
  0x158a	dec    	eax
  0x158b	lea    	ecx, [ebp]
  0x158e	call   	0x1314
  === BLOCK LINK ===
    0x1593
    0x1314
=== CODE BLOCK END ===

=== CODE BLOCK ADDRESS 0x1593 ===
  0x1593	test   	eax, eax
  0x1595	js     	0x1615
  === BLOCK LINK ===
    0x1597
    0x1615
=== CODE BLOCK END ===

=== CODE BLOCK ADDRESS 0x1597 ===
  0x1597	dec    	eax
  0x1598	mov    	ecx, dword ptr [esp + 0x68]
  0x159c	dec    	eax
  0x159d	lea    	eax, [esp + 0x78]
  0x15a1	dec    	eax
  === BLOCK LINK ===
    0x15a2
=== CODE BLOCK END ===

=== CODE BLOCK ADDRESS 0x15a2 ===
  0x15a2	mov    	dword ptr [esp + 0x50], eax
  0x15a6	dec    	esp
  0x15a7	lea    	eax, [ebp]
  0x15aa	dec    	eax
  0x15ab	lea    	eax, [ebp - 0x70]
  === BLOCK LINK ===
    0x15ae
=== CODE BLOCK END ===

=== CODE BLOCK ADDRESS 0x15ae ===
  0x15ae	inc    	ebp
  0x15af	xor    	ecx, ecx
  0x15b1	dec    	eax
  0x15b2	mov    	dword ptr [esp + 0x48], eax
  0x15b6	xor    	edx, edx
  === BLOCK LINK ===
    0x15b8
=== CODE BLOCK END ===

=== CODE BLOCK ADDRESS 0x15b8 ===
  0x15b8	dec    	eax
  0x15b9	and    	dword ptr [esp + 0x40], 0
  0x15be	dec    	eax
  0x15bf	and    	dword ptr [esp + 0x38], 0
  0x15c4	mov    	dword ptr [esp + 0x30], 0x8000000
  === BLOCK LINK ===
    0x15cc
=== CODE BLOCK END ===

=== CODE BLOCK ADDRESS 0x15cc ===
  0x15cc	and    	dword ptr [esp + 0x28], 0
  0x15d1	dec    	eax
  0x15d2	and    	dword ptr [esp + 0x20], 0
  0x15d7	dec    	eax
  0x15d8	call   	dword ptr [0x26d2]
  === BLOCK LINK ===
    0x15de
=== CODE BLOCK END ===

=== CODE BLOCK ADDRESS 0x15de ===
  0x15de	nop    	dword ptr [eax + eax]
  0x15e3	test   	eax, eax
  0x15e5	je     	0x1615
  === BLOCK LINK ===
    0x15e7
    0x1615
=== CODE BLOCK END ===

=== CODE BLOCK ADDRESS 0x15e7 ===
  0x15e7	dec    	eax
  0x15e8	mov    	ecx, dword ptr [esp + 0x78]
  0x15ec	or     	edx, 0xffffffff
  0x15ef	dec    	eax
  0x15f0	call   	dword ptr [0x273a]
  === BLOCK LINK ===
    0x15f6
=== CODE BLOCK END ===

=== CODE BLOCK ADDRESS 0x15f6 ===
  0x15f6	nop    	dword ptr [eax + eax]
  0x15fb	jmp    	0x1610
  === BLOCK LINK ===
    0x15fd
    0x1610
=== CODE BLOCK END ===

=== CODE BLOCK ADDRESS 0x15fd ===
  0x15fd	cmp    	dword ptr [esp + 0x60], 0
  0x1602	jne    	0x1610
  === BLOCK LINK ===
    0x1604
    0x1610
=== CODE BLOCK END ===

=== CODE BLOCK ADDRESS 0x1604 ===
  0x1604	dec    	eax
  0x1605	call   	dword ptr [0x2785]
  === BLOCK LINK ===
    0x160b
=== CODE BLOCK END ===

=== CODE BLOCK ADDRESS 0x160b ===
  0x160b	nop    	dword ptr [eax + eax]
  0x1610	call   	0x17f0
  === BLOCK LINK ===
    0x1615
    0x17f0
=== CODE BLOCK END ===

=== CODE BLOCK ADDRESS 0x1615 ===
  0x1615	dec    	eax
  0x1616	cmp    	dword ptr [esp + 0x68], 0
  0x161b	je     	0x162e
  === BLOCK LINK ===
    0x161d
    0x162e
=== CODE BLOCK END ===

=== CODE BLOCK ADDRESS 0x161d ===
  0x161d	dec    	eax
  0x161e	mov    	ecx, dword ptr [esp + 0x68]
  0x1622	dec    	eax
  0x1623	call   	dword ptr [0x261f]
  === BLOCK LINK ===
    0x1629
=== CODE BLOCK END ===

=== CODE BLOCK ADDRESS 0x1629 ===
  0x1629	nop    	dword ptr [eax + eax]
  === BLOCK LINK ===
    0x162e
=== CODE BLOCK END ===

=== CODE BLOCK ADDRESS 0x1636 ===
  0x1636	je     	0x1644
  === BLOCK LINK ===
    0x1638
    0x1644
=== CODE BLOCK END ===

=== CODE BLOCK ADDRESS 0x1638 ===
  0x1638	dec    	eax
  0x1639	call   	dword ptr [0x2609]
  === BLOCK LINK ===
    0x163f
=== CODE BLOCK END ===

=== CODE BLOCK ADDRESS 0x163f ===
  0x163f	nop    	dword ptr [eax + eax]
  === BLOCK LINK ===
    0x1644
=== CODE BLOCK END ===

=== CODE BLOCK ADDRESS 0x164b ===
  0x164b	je     	0x1659
  === BLOCK LINK ===
    0x164d
    0x1659
=== CODE BLOCK END ===

=== CODE BLOCK ADDRESS 0x164d ===
  0x164d	dec    	eax
  0x164e	call   	dword ptr [0x25f4]
  === BLOCK LINK ===
    0x1654
=== CODE BLOCK END ===

=== CODE BLOCK ADDRESS 0x1654 ===
  0x1654	nop    	dword ptr [eax + eax]
  === BLOCK LINK ===
    0x1659
=== CODE BLOCK END ===

=== CODE BLOCK ADDRESS 0x1663 ===
  0x1663	nop    	dword ptr [eax + eax]
  === BLOCK LINK ===
    0x1668
=== CODE BLOCK END ===

=== CODE BLOCK ADDRESS 0x1672 ===
  0x1672	xor    	ecx, esp
  0x1674	call   	0x2590
  === BLOCK LINK ===
    0x1679
    0x2590
=== CODE BLOCK END ===

=== CODE BLOCK ADDRESS 0x1679 ===
  0x1679	dec    	eax
  0x167a	mov    	ebx, dword ptr [esp + 0x330]
  0x1681	dec    	eax
  0x1682	add    	esp, 0x320
  0x1688	pop    	ebp
  === BLOCK LINK ===
    0x1689
=== CODE BLOCK END ===

=== CODE BLOCK ADDRESS 0x1689 ===
  0x1689	ret    	
  0x168a	int3   	
  0x168b	int3   	
  0x168c	int3   	
  0x168d	int3   	
  === BLOCK LINK ===
    0x168e
=== CODE BLOCK END ===

=== CODE BLOCK ADDRESS 0x168e ===
  0x168e	int3   	
  0x168f	int3   	
  0x1690	int3   	
  0x1691	int3   	
  0x1692	int3   	
  === BLOCK LINK ===
    0x1693
=== CODE BLOCK END ===

=== CODE BLOCK ADDRESS 0x1693 ===
  0x1693	int3   	
  === BLOCK LINK ===
    0x1694
=== CODE BLOCK END ===

=== CODE BLOCK ADDRESS 0x169b ===
  0x169b	push   	edi
  0x169c	dec    	eax
  0x169d	mov    	ebp, esp
  0x169f	dec    	eax
  0x16a0	sub    	esp, 0x30
  === BLOCK LINK ===
    0x16a3
=== CODE BLOCK END ===

=== CODE BLOCK ADDRESS 0x16a3 ===
  0x16a3	dec    	eax
  0x16a4	and    	dword ptr [ebp + 0x28], 0
  0x16a8	dec    	eax
  0x16a9	mov    	edi, edx
  0x16ab	dec    	eax
  === BLOCK LINK ===
    0x16ac
=== CODE BLOCK END ===

=== CODE BLOCK ADDRESS 0x16ac ===
  0x16ac	and    	dword ptr [ebp + 0x30], 0
  0x16b0	dec    	eax
  0x16b1	mov    	esi, ecx
  0x16b3	and    	dword ptr [ebp + 0x20], 0
  0x16b7	dec    	eax
  === BLOCK LINK ===
    0x16b8
=== CODE BLOCK END ===

=== CODE BLOCK ADDRESS 0x16b8 ===
  0x16b8	and    	dword ptr [ecx], 0
  0x16bb	and    	dword ptr [edx], 0
  0x16be	call   	0x2c38
  === BLOCK LINK ===
    0x16c3
=== CODE BLOCK END ===

=== CODE BLOCK ADDRESS 0x16c3 ===
  0x16c3	test   	al, al
  0x16c5	je     	0x17a2
  === BLOCK LINK ===
    0x16cb
=== CODE BLOCK END ===

=== CODE BLOCK ADDRESS 0x16cb ===
  0x16cb	call   	0x2c38
  === BLOCK LINK ===
    0x16d0
=== CODE BLOCK END ===

=== CODE BLOCK ADDRESS 0x16d0 ===
  0x16d0	test   	al, al
  0x16d2	je     	0x17a2
  === BLOCK LINK ===
    0x16d8
=== CODE BLOCK END ===

=== CODE BLOCK ADDRESS 0x16d8 ===
  0x16d8	dec    	eax
  0x16d9	call   	dword ptr [0x2589]
  === BLOCK LINK ===
    0x16df
=== CODE BLOCK END ===

=== CODE BLOCK ADDRESS 0x16df ===
  0x16df	nop    	dword ptr [eax + eax]
  0x16e4	cmp    	eax, -1
  0x16e7	je     	0x179e
  === BLOCK LINK ===
    0x16ed
=== CODE BLOCK END ===

=== CODE BLOCK ADDRESS 0x16ed ===
  0x16ed	dec    	eax
  0x16ee	lea    	edx, [ebp + 0x28]
  0x16f1	mov    	ecx, eax
  0x16f3	dec    	eax
  0x16f4	call   	dword ptr [0x7916]
  === BLOCK LINK ===
    0x16fa
=== CODE BLOCK END ===

=== CODE BLOCK ADDRESS 0x16fa ===
  0x16fa	nop    	dword ptr [eax + eax]
  0x16ff	test   	eax, eax
  0x1701	jne    	0x178c
  === BLOCK LINK ===
    0x1707
=== CODE BLOCK END ===

=== CODE BLOCK ADDRESS 0x1707 ===
  0x1707	xor    	edx, edx
  0x1709	dec    	eax
  0x170a	lea    	eax, [ebp + 0x20]
  0x170d	dec    	esp
  0x170e	lea    	ecx, [ebp + 0x30]
  === BLOCK LINK ===
    0x1711
=== CODE BLOCK END ===

=== CODE BLOCK ADDRESS 0x1711 ===
  0x1711	dec    	eax
  0x1712	mov    	dword ptr [esp + 0x20], eax
  0x1716	xor    	ecx, ecx
  0x1718	inc    	esp
  0x1719	lea    	eax, [edx + 1]
  === BLOCK LINK ===
    0x171c
=== CODE BLOCK END ===

=== CODE BLOCK ADDRESS 0x171c ===
  0x171c	dec    	eax
  0x171d	call   	dword ptr [0x78e5]
  === BLOCK LINK ===
    0x1723
=== CODE BLOCK END ===

=== CODE BLOCK ADDRESS 0x1723 ===
  0x1723	nop    	dword ptr [eax + eax]
  0x1728	test   	eax, eax
  0x172a	jne    	0x1748
  === BLOCK LINK ===
    0x172c
=== CODE BLOCK END ===

=== CODE BLOCK ADDRESS 0x172c ===
  0x172c	dec    	eax
  0x172d	call   	dword ptr [0x24fd]
  === BLOCK LINK ===
    0x1733
=== CODE BLOCK END ===

=== CODE BLOCK ADDRESS 0x1733 ===
  0x1733	nop    	dword ptr [eax + eax]
  0x1738	movzx  	ebx, ax
  0x173b	or     	ebx, 0x80070000
  0x1741	test   	eax, eax
  0x1743	cmovle  	ebx, eax
  === BLOCK LINK ===
    0x1746
=== CODE BLOCK END ===

=== CODE BLOCK ADDRESS 0x1746 ===
  0x1746	jmp    	0x17a7
  === BLOCK LINK ===
    0x1748
=== CODE BLOCK END ===

=== CODE BLOCK ADDRESS 0x1748 ===
  0x1748	xor    	ebx, ebx
  0x174a	cmp    	dword ptr [ebp + 0x20], ebx
  0x174d	jbe    	0x179e
  === BLOCK LINK ===
    0x174f
=== CODE BLOCK END ===

=== CODE BLOCK ADDRESS 0x174f ===
  0x174f	dec    	eax
  0x1750	mov    	ecx, dword ptr [ebp + 0x28]
  0x1753	dec    	eax
  0x1754	test   	ecx, ecx
  0x1756	je     	0x1764
  === BLOCK LINK ===
    0x1758
=== CODE BLOCK END ===

=== CODE BLOCK ADDRESS 0x1758 ===
  0x1758	dec    	eax
  0x1759	call   	dword ptr [0x24e9]
  === BLOCK LINK ===
    0x175f
=== CODE BLOCK END ===

=== CODE BLOCK ADDRESS 0x175f ===
  0x175f	nop    	dword ptr [eax + eax]
  0x1764	dec    	eax
  0x1765	mov    	eax, dword ptr [ebp + 0x30]
  0x1768	dec    	eax
  0x1769	lea    	ecx, [ebx + ebx*2]
  === BLOCK LINK ===
    0x176c
=== CODE BLOCK END ===

=== CODE BLOCK ADDRESS 0x176c ===
  0x176c	dec    	eax
  0x176d	lea    	edx, [ebp + 0x28]
  0x1770	mov    	ecx, dword ptr [eax + ecx*8]
  0x1773	dec    	eax
  0x1774	call   	dword ptr [0x7896]
  === BLOCK LINK ===
    0x177a
=== CODE BLOCK END ===

=== CODE BLOCK ADDRESS 0x177a ===
  0x177a	nop    	dword ptr [eax + eax]
  0x177f	test   	eax, eax
  0x1781	jne    	0x178c
  === BLOCK LINK ===
    0x1783
=== CODE BLOCK END ===

=== CODE BLOCK ADDRESS 0x1783 ===
  0x1783	inc    	ebx
  0x1785	cmp    	ebx, dword ptr [ebp + 0x20]
  0x1788	jb     	0x174f
  === BLOCK LINK ===
    0x178a
=== CODE BLOCK END ===

=== CODE BLOCK ADDRESS 0x178a ===
  0x178a	jmp    	0x179e
  === BLOCK LINK ===
    0x178c
=== CODE BLOCK END ===

=== CODE BLOCK ADDRESS 0x178c ===
  0x178c	dec    	eax
  0x178d	mov    	eax, dword ptr [ebp + 0x28]
  0x1790	dec    	eax
  0x1791	and    	dword ptr [ebp + 0x28], 0
  0x1795	dec    	eax
  === BLOCK LINK ===
    0x1796
=== CODE BLOCK END ===

=== CODE BLOCK ADDRESS 0x1796 ===
  0x1796	mov    	dword ptr [esi], eax
  0x1798	mov    	dword ptr [edi], 1
  0x179e	xor    	ebx, ebx
  0x17a0	jmp    	0x17a7
  === BLOCK LINK ===
    0x17a2
=== CODE BLOCK END ===

=== CODE BLOCK ADDRESS 0x17a2 ===
  0x17a2	mov    	ebx, 0x80004005
  0x17a7	call   	0x2c38
  === BLOCK LINK ===
    0x17ac
=== CODE BLOCK END ===

=== CODE BLOCK ADDRESS 0x17ac ===
  0x17ac	test   	al, al
  0x17ae	je     	0x17c5
  === BLOCK LINK ===
    0x17b0
=== CODE BLOCK END ===

=== CODE BLOCK ADDRESS 0x17b0 ===
  0x17b0	dec    	eax
  0x17b1	mov    	ecx, dword ptr [ebp + 0x30]
  0x17b4	dec    	eax
  0x17b5	test   	ecx, ecx
  0x17b7	je     	0x17c5
  === BLOCK LINK ===
    0x17b9
=== CODE BLOCK END ===

=== CODE BLOCK ADDRESS 0x17b9 ===
  0x17b9	dec    	eax
  0x17ba	call   	dword ptr [0x7840]
  === BLOCK LINK ===
    0x17c0
=== CODE BLOCK END ===

=== CODE BLOCK ADDRESS 0x17c0 ===
  0x17c0	nop    	dword ptr [eax + eax]
  0x17c5	dec    	eax
  0x17c6	mov    	ecx, dword ptr [ebp + 0x28]
  0x17c9	dec    	eax
  0x17ca	test   	ecx, ecx
  === BLOCK LINK ===
    0x17cc
=== CODE BLOCK END ===

=== CODE BLOCK ADDRESS 0x17cc ===
  0x17cc	je     	0x17da
  === BLOCK LINK ===
    0x17ce
=== CODE BLOCK END ===

=== CODE BLOCK ADDRESS 0x17ce ===
  0x17ce	dec    	eax
  0x17cf	call   	dword ptr [0x2473]
  === BLOCK LINK ===
    0x17d5
=== CODE BLOCK END ===

=== CODE BLOCK ADDRESS 0x17d5 ===
  0x17d5	nop    	dword ptr [eax + eax]
  0x17da	mov    	eax, ebx
  0x17dc	dec    	eax
  0x17dd	mov    	ebx, dword ptr [esp + 0x68]
  0x17e1	dec    	eax
  === BLOCK LINK ===
    0x17e2
=== CODE BLOCK END ===

=== CODE BLOCK ADDRESS 0x17e2 ===
  0x17e2	add    	esp, 0x30
  0x17e5	pop    	edi
  0x17e6	pop    	esi
  0x17e7	pop    	ebp
  0x17e8	ret    	
  === BLOCK LINK ===
    0x17e9
=== CODE BLOCK END ===

=== CODE BLOCK ADDRESS 0x122d ===
  0x122d	dec    	eax
  0x122e	mov    	ecx, ebx
  0x1230	call   	0x1adc
  === BLOCK LINK ===
    0x1235
=== CODE BLOCK END ===

=== CODE BLOCK ADDRESS 0x17e9 ===
  0x17e9	int3   	
  0x17ea	int3   	
  0x17eb	int3   	
  0x17ec	int3   	
  0x17ed	int3   	
  === BLOCK LINK ===
    0x17ee
=== CODE BLOCK END ===

=== CODE BLOCK ADDRESS 0x17ee ===
  0x17ee	int3   	
  0x17ef	int3   	
  === BLOCK LINK ===
    0x17f0
=== CODE BLOCK END ===

=== CODE BLOCK ADDRESS 0x17f3 ===
  0x17f3	sub    	esp, 0x270
  0x17f9	dec    	eax
  0x17fa	mov    	eax, dword ptr [0x58e8]
  0x1800	dec    	eax
  0x1801	xor    	eax, esp
  === BLOCK LINK ===
    0x1803
=== CODE BLOCK END ===

=== CODE BLOCK ADDRESS 0x1803 ===
  0x1803	dec    	eax
  0x1804	mov    	dword ptr [esp + 0x260], eax
  0x180b	xor    	edx, edx
  0x180d	xor    	ecx, ecx
  0x180f	dec    	eax
  === BLOCK LINK ===
    0x1810
=== CODE BLOCK END ===

=== CODE BLOCK ADDRESS 0x1810 ===
  0x1810	call   	dword ptr [0x23da]
  === BLOCK LINK ===
    0x1816
=== CODE BLOCK END ===

=== CODE BLOCK ADDRESS 0x1816 ===
  0x1816	nop    	dword ptr [eax + eax]
  0x181b	mov    	ebx, eax
  0x181d	test   	eax, eax
  0x181f	js     	0x193c
  === BLOCK LINK ===
    0x1825
=== CODE BLOCK END ===

=== CODE BLOCK ADDRESS 0x1825 ===
  0x1825	xor    	ecx, ecx
  0x1827	dec    	eax
  0x1828	call   	dword ptr [0x254a]
  === BLOCK LINK ===
    0x182e
=== CODE BLOCK END ===

=== CODE BLOCK ADDRESS 0x182e ===
  0x182e	nop    	dword ptr [eax + eax]
  0x1833	dec    	esp
  0x1834	lea    	ecx, [0x333e]
  0x183a	xor    	ecx, ecx
  0x183c	dec    	esp
  === BLOCK LINK ===
    0x183d
=== CODE BLOCK END ===

=== CODE BLOCK ADDRESS 0x183d ===
  0x183d	lea    	eax, [0x3305]
  0x1843	dec    	eax
  0x1844	lea    	edx, [0x3296]
  0x184a	dec    	eax
  0x184b	call   	dword ptr [0x252f]
  === BLOCK LINK ===
    0x1851
=== CODE BLOCK END ===

=== CODE BLOCK ADDRESS 0x1851 ===
  0x1851	nop    	dword ptr [eax + eax]
  0x1856	and    	dword ptr [esp + 0x44], 0
  0x185b	dec    	eax
  0x185c	lea    	ecx, [esp + 0x50]
  0x1860	and    	dword ptr [esp + 0x40], 0
  === BLOCK LINK ===
    0x1865
=== CODE BLOCK END ===

=== CODE BLOCK ADDRESS 0x1865 ===
  0x1865	xor    	edx, edx
  0x1867	inc    	ecx
  0x1868	mov    	eax, 0x20a
  0x186d	call   	0x2dd1
  === BLOCK LINK ===
    0x1872
=== CODE BLOCK END ===

=== CODE BLOCK ADDRESS 0x1872 ===
  0x1872	mov    	edx, 0x105
  0x1877	dec    	eax
  0x1878	lea    	ecx, [esp + 0x50]
  0x187c	dec    	eax
  0x187d	call   	dword ptr [0x2515]
  === BLOCK LINK ===
    0x1883
=== CODE BLOCK END ===

=== CODE BLOCK ADDRESS 0x1883 ===
  0x1883	nop    	dword ptr [eax + eax]
  0x1888	test   	eax, eax
  0x188a	js     	0x1930
  === BLOCK LINK ===
    0x1890
=== CODE BLOCK END ===

=== CODE BLOCK ADDRESS 0x1890 ===
  0x1890	dec    	eax
  0x1891	lea    	eax, [esp + 0x40]
  0x1895	mov    	dword ptr [esp + 0x40], 4
  0x189d	dec    	eax
  0x189e	mov    	dword ptr [esp + 0x30], eax
  === BLOCK LINK ===
    0x18a2
=== CODE BLOCK END ===

=== CODE BLOCK ADDRESS 0x18a2 ===
  0x18a2	dec    	esp
  0x18a3	lea    	eax, [0x334f]
  0x18a9	dec    	eax
  0x18aa	lea    	eax, [esp + 0x44]
  0x18ae	inc    	ecx
  === BLOCK LINK ===
    0x18af
=== CODE BLOCK END ===

=== CODE BLOCK ADDRESS 0x18af ===
  0x18af	mov    	ecx, 0x10
  0x18b4	dec    	eax
  0x18b5	mov    	dword ptr [esp + 0x28], eax
  0x18b9	dec    	eax
  0x18ba	lea    	edx, [esp + 0x50]
  === BLOCK LINK ===
    0x18be
=== CODE BLOCK END ===

=== CODE BLOCK ADDRESS 0x18be ===
  0x18be	dec    	eax
  0x18bf	and    	dword ptr [esp + 0x20], 0
  0x18c4	dec    	eax
  0x18c5	mov    	ecx, 0x80000002
  0x18cb	dec    	eax
  === BLOCK LINK ===
    0x18cc
=== CODE BLOCK END ===

=== CODE BLOCK ADDRESS 0x18cc ===
  0x18cc	call   	dword ptr [0x241e]
  === BLOCK LINK ===
    0x18d2
=== CODE BLOCK END ===

=== CODE BLOCK ADDRESS 0x18d2 ===
  0x18d2	nop    	dword ptr [eax + eax]
  0x18d7	test   	eax, eax
  0x18d9	jne    	0x1930
  === BLOCK LINK ===
    0x18db
=== CODE BLOCK END ===

=== CODE BLOCK ADDRESS 0x18db ===
  0x18db	cmp    	dword ptr [esp + 0x44], 2
  0x18e0	jb     	0x1930
  === BLOCK LINK ===
    0x18e2
=== CODE BLOCK END ===

=== CODE BLOCK ADDRESS 0x18e2 ===
  0x18e2	dec    	esp
  0x18e3	lea    	ecx, [0x32c7]
  0x18e9	xor    	ecx, ecx
  0x18eb	dec    	esp
  0x18ec	lea    	eax, [0x3246]
  === BLOCK LINK ===
    0x18f2
=== CODE BLOCK END ===

=== CODE BLOCK ADDRESS 0x18f2 ===
  0x18f2	dec    	eax
  0x18f3	lea    	edx, [0x3197]
  0x18f9	dec    	eax
  0x18fa	call   	dword ptr [0x2480]
  === BLOCK LINK ===
    0x1900
=== CODE BLOCK END ===

=== CODE BLOCK ADDRESS 0x1900 ===
  0x1900	nop    	dword ptr [eax + eax]
  0x1905	mov    	ebx, eax
  0x1907	test   	eax, eax
  0x1909	jns    	0x1930
  === BLOCK LINK ===
    0x190b
=== CODE BLOCK END ===

=== CODE BLOCK ADDRESS 0x190b ===
  0x190b	dec    	esp
  0x190c	lea    	ecx, [0x329e]
  0x1912	xor    	ecx, ecx
  0x1914	dec    	esp
  0x1915	lea    	eax, [0x322d]
  === BLOCK LINK ===
    0x191b
=== CODE BLOCK END ===

=== CODE BLOCK ADDRESS 0x191b ===
  0x191b	dec    	eax
  0x191c	lea    	edx, [0x31be]
  0x1922	dec    	eax
  0x1923	call   	dword ptr [0x2457]
  === BLOCK LINK ===
    0x1929
=== CODE BLOCK END ===

=== CODE BLOCK ADDRESS 0x1929 ===
  0x1929	nop    	dword ptr [eax + eax]
  0x192e	mov    	ebx, eax
  0x1930	dec    	eax
  0x1931	call   	dword ptr [0x22c1]
  === BLOCK LINK ===
    0x1937
=== CODE BLOCK END ===

=== CODE BLOCK ADDRESS 0x1937 ===
  0x1937	nop    	dword ptr [eax + eax]
  0x193c	mov    	eax, ebx
  0x193e	dec    	eax
  0x193f	mov    	ecx, dword ptr [esp + 0x260]
  0x1946	dec    	eax
  === BLOCK LINK ===
    0x1947
=== CODE BLOCK END ===

=== CODE BLOCK ADDRESS 0x1947 ===
  0x1947	xor    	ecx, esp
  0x1949	call   	0x2590
  === BLOCK LINK ===
    0x194e
=== CODE BLOCK END ===

=== CODE BLOCK ADDRESS 0x194e ===
  0x194e	dec    	eax
  0x194f	add    	esp, 0x270
  0x1955	pop    	ebx
  0x1956	ret    	
  0x1957	int3   	
  === BLOCK LINK ===
    0x1958
=== CODE BLOCK END ===

=== CODE BLOCK ADDRESS 0x1958 ===
  0x1958	int3   	
  0x1959	int3   	
  0x195a	int3   	
  0x195b	int3   	
  0x195c	int3   	
  === BLOCK LINK ===
    0x195d
=== CODE BLOCK END ===

=== CODE BLOCK ADDRESS 0x195d ===
  0x195d	int3   	
  0x195e	int3   	
  0x195f	int3   	
  === BLOCK LINK ===
    0x1960
=== CODE BLOCK END ===

=== CODE BLOCK ADDRESS 0x1967 ===
  0x1967	dec    	eax
  0x1968	mov    	eax, dword ptr [0x577a]
  0x196e	dec    	eax
  0x196f	xor    	eax, esp
  0x1971	dec    	eax
  === BLOCK LINK ===
    0x1972
=== CODE BLOCK END ===

=== CODE BLOCK ADDRESS 0x1972 ===
  0x1972	mov    	dword ptr [esp + 0x270], eax
  0x1979	mov    	eax, dword ptr [ecx]
  0x197b	xor    	edx, edx
  0x197d	dec    	eax
  0x197e	and    	dword ptr [esp + 0x58], 0
  === BLOCK LINK ===
    0x1983
=== CODE BLOCK END ===

=== CODE BLOCK ADDRESS 0x1983 ===
  0x1983	dec    	eax
  0x1984	lea    	ecx, [esp + 0x60]
  0x1988	inc    	ecx
  0x1989	mov    	eax, 0x20a
  0x198e	mov    	dword ptr [esp + 0x50], eax
  === BLOCK LINK ===
    0x1992
=== CODE BLOCK END ===

=== CODE BLOCK ADDRESS 0x1992 ===
  0x1992	call   	0x2dd1
  === BLOCK LINK ===
    0x1997
=== CODE BLOCK END ===

=== CODE BLOCK ADDRESS 0x1997 ===
  0x1997	mov    	edx, 0x105
  0x199c	dec    	eax
  0x199d	lea    	ecx, [esp + 0x60]
  0x19a1	dec    	eax
  0x19a2	call   	dword ptr [0x23f0]
  === BLOCK LINK ===
    0x19a8
=== CODE BLOCK END ===

=== CODE BLOCK ADDRESS 0x19a8 ===
  0x19a8	nop    	dword ptr [eax + eax]
  0x19ad	test   	eax, eax
  0x19af	js     	0x1a24
  === BLOCK LINK ===
    0x19b1
=== CODE BLOCK END ===

=== CODE BLOCK ADDRESS 0x19b1 ===
  0x19b1	dec    	eax
  0x19b2	and    	dword ptr [esp + 0x40], 0
  0x19b7	dec    	eax
  0x19b8	lea    	eax, [esp + 0x58]
  0x19bc	dec    	eax
  === BLOCK LINK ===
    0x19bd
=== CODE BLOCK END ===

=== CODE BLOCK ADDRESS 0x19bd ===
  0x19bd	mov    	dword ptr [esp + 0x38], eax
  0x19c1	dec    	eax
  0x19c2	lea    	edx, [esp + 0x60]
  0x19c6	dec    	eax
  0x19c7	and    	dword ptr [esp + 0x30], 0
  === BLOCK LINK ===
    0x19cc
=== CODE BLOCK END ===

=== CODE BLOCK ADDRESS 0x19cc ===
  0x19cc	inc    	ebp
  0x19cd	xor    	ecx, ecx
  0x19cf	mov    	dword ptr [esp + 0x28], 0xf003f
  0x19d7	inc    	ebp
  0x19d8	xor    	eax, eax
  === BLOCK LINK ===
    0x19da
=== CODE BLOCK END ===

=== CODE BLOCK ADDRESS 0x19da ===
  0x19da	and    	dword ptr [esp + 0x20], 0
  0x19df	dec    	eax
  0x19e0	mov    	ecx, 0x80000002
  0x19e6	dec    	eax
  0x19e7	call   	dword ptr [0x230b]
  === BLOCK LINK ===
    0x19ed
=== CODE BLOCK END ===

=== CODE BLOCK ADDRESS 0x19ed ===
  0x19ed	nop    	dword ptr [eax + eax]
  0x19f2	test   	eax, eax
  0x19f4	jne    	0x1a24
  === BLOCK LINK ===
    0x19f6
=== CODE BLOCK END ===

=== CODE BLOCK ADDRESS 0x19f6 ===
  0x19f6	dec    	eax
  0x19f7	mov    	ecx, dword ptr [esp + 0x58]
  0x19fb	inc    	esp
  0x19fc	lea    	ecx, [eax + 4]
  0x19ff	dec    	eax
  === BLOCK LINK ===
    0x1a00
=== CODE BLOCK END ===

=== CODE BLOCK ADDRESS 0x1a00 ===
  0x1a00	lea    	eax, [esp + 0x50]
  0x1a04	inc    	esp
  0x1a05	mov    	dword ptr [esp + 0x28], ecx
  0x1a09	inc    	ebp
  0x1a0a	xor    	eax, eax
  === BLOCK LINK ===
    0x1a0c
=== CODE BLOCK END ===

=== CODE BLOCK ADDRESS 0x1a0c ===
  0x1a0c	dec    	eax
  0x1a0d	mov    	dword ptr [esp + 0x20], eax
  0x1a11	dec    	eax
  0x1a12	lea    	edx, [0x31f8]
  0x1a18	dec    	eax
  === BLOCK LINK ===
    0x1a19
=== CODE BLOCK END ===

=== CODE BLOCK ADDRESS 0x1a19 ===
  0x1a19	call   	dword ptr [0x22c9]
  === BLOCK LINK ===
    0x1a1f
=== CODE BLOCK END ===

=== CODE BLOCK ADDRESS 0x1a1f ===
  0x1a1f	nop    	dword ptr [eax + eax]
  0x1a24	dec    	eax
  0x1a25	mov    	ecx, dword ptr [esp + 0x58]
  0x1a29	dec    	eax
  0x1a2a	test   	ecx, ecx
  === BLOCK LINK ===
    0x1a2c
=== CODE BLOCK END ===

=== CODE BLOCK ADDRESS 0x1a2c ===
  0x1a2c	je     	0x1a3a
  === BLOCK LINK ===
    0x1a2e
=== CODE BLOCK END ===

=== CODE BLOCK ADDRESS 0x1a2e ===
  0x1a2e	dec    	eax
  0x1a2f	call   	dword ptr [0x22cb]
  === BLOCK LINK ===
    0x1a35
=== CODE BLOCK END ===

=== CODE BLOCK ADDRESS 0x1a35 ===
  0x1a35	nop    	dword ptr [eax + eax]
  0x1a3a	dec    	eax
  0x1a3b	mov    	ecx, dword ptr [esp + 0x270]
  0x1a42	dec    	eax
  0x1a43	xor    	ecx, esp
  === BLOCK LINK ===
    0x1a45
=== CODE BLOCK END ===

=== CODE BLOCK ADDRESS 0x1a45 ===
  0x1a45	call   	0x2590
  === BLOCK LINK ===
    0x1a4a
=== CODE BLOCK END ===

=== CODE BLOCK ADDRESS 0x1a4a ===
  0x1a4a	dec    	eax
  0x1a4b	add    	esp, 0x288
  0x1a51	ret    	
  0x1a52	int3   	
  0x1a53	int3   	
  === BLOCK LINK ===
    0x1a54
=== CODE BLOCK END ===

=== CODE BLOCK ADDRESS 0x1a54 ===
  0x1a54	int3   	
  0x1a55	int3   	
  0x1a56	int3   	
  0x1a57	int3   	
  0x1a58	int3   	
  === BLOCK LINK ===
    0x1a59
=== CODE BLOCK END ===

=== CODE BLOCK ADDRESS 0x1a59 ===
  0x1a59	int3   	
  0x1a5a	int3   	
  0x1a5b	int3   	
  0x1a5c	dec    	eax
  0x1a5d	mov    	dword ptr [esp + 8], ebx
  === BLOCK LINK ===
    0x1a61
=== CODE BLOCK END ===

=== CODE BLOCK ADDRESS 0x1a61 ===
  0x1a61	dec    	eax
  0x1a62	mov    	dword ptr [esp + 0x10], esi
  0x1a66	push   	edi
  0x1a67	dec    	eax
  0x1a68	sub    	esp, 0x20
  === BLOCK LINK ===
    0x1a6b
=== CODE BLOCK END ===

=== CODE BLOCK ADDRESS 0x1a6b ===
  0x1a6b	dec    	ecx
  0x1a6c	mov    	edi, eax
  0x1a6e	dec    	eax
  0x1a6f	mov    	ebx, ecx
  0x1a71	test   	dl, dl
  === BLOCK LINK ===
    0x1a73
=== CODE BLOCK END ===

=== CODE BLOCK ADDRESS 0x1a73 ===
  0x1a73	je     	0x1a9b
  === BLOCK LINK ===
    0x1a75
=== CODE BLOCK END ===

=== CODE BLOCK ADDRESS 0x1a75 ===
  0x1a75	dec    	eax
  0x1a76	cmp    	dword ptr [ecx + 0x18], 0x10
  0x1a7a	jb     	0x1a9b
  === BLOCK LINK ===
    0x1a7c
=== CODE BLOCK END ===

=== CODE BLOCK ADDRESS 0x1a7c ===
  0x1a7c	dec    	eax
  0x1a7d	mov    	esi, dword ptr [ecx]
  0x1a7f	dec    	ebp
  0x1a80	test   	eax, eax
  0x1a82	je     	0x1a8c
  === BLOCK LINK ===
    0x1a84
=== CODE BLOCK END ===

=== CODE BLOCK ADDRESS 0x1a84 ===
  0x1a84	dec    	eax
  0x1a85	mov    	edx, esi
  0x1a87	call   	0x26d8
  === BLOCK LINK ===
    0x1a8c
=== CODE BLOCK END ===

=== CODE BLOCK ADDRESS 0x1a8c ===
  0x1a8c	dec    	eax
  0x1a8d	mov    	ecx, esi
  0x1a8f	dec    	eax
  0x1a90	call   	dword ptr [0x239a]
  === BLOCK LINK ===
    0x1a96
=== CODE BLOCK END ===

=== CODE BLOCK ADDRESS 0x1a96 ===
  0x1a96	nop    	dword ptr [eax + eax]
  0x1a9b	dec    	eax
  0x1a9c	mov    	esi, dword ptr [esp + 0x38]
  0x1aa0	dec    	eax
  0x1aa1	mov    	dword ptr [ebx + 0x18], 0xf
  === BLOCK LINK ===
    0x1aa8
=== CODE BLOCK END ===

=== CODE BLOCK ADDRESS 0x1aa8 ===
  0x1aa8	dec    	eax
  0x1aa9	mov    	dword ptr [ebx + 0x10], edi
  0x1aac	mov    	byte ptr [edi + ebx], 0
  0x1ab0	dec    	eax
  0x1ab1	mov    	ebx, dword ptr [esp + 0x30]
  === BLOCK LINK ===
    0x1ab5
=== CODE BLOCK END ===

=== CODE BLOCK ADDRESS 0x1ab5 ===
  0x1ab5	dec    	eax
  0x1ab6	add    	esp, 0x20
  0x1ab9	pop    	edi
  0x1aba	ret    	
  0x1abb	int3   	
  === BLOCK LINK ===
    0x1abc
=== CODE BLOCK END ===

=== CODE BLOCK ADDRESS 0x1221 ===
  0x1221	dec    	eax
  0x1222	inc    	eax
  0x1224	inc    	esp
  === BLOCK LINK ===
    0x1225
=== CODE BLOCK END ===

=== CODE BLOCK ADDRESS 0x1abc ===
  0x1abc	int3   	
  0x1abd	int3   	
  0x1abe	int3   	
  0x1abf	int3   	
  0x1ac0	int3   	
  === BLOCK LINK ===
    0x1ac1
=== CODE BLOCK END ===

=== CODE BLOCK ADDRESS 0x1ac1 ===
  0x1ac1	int3   	
  0x1ac2	int3   	
  0x1ac3	int3   	
  0x1ac4	dec    	eax
  0x1ac5	sub    	esp, 0x28
  === BLOCK LINK ===
    0x1ac8
=== CODE BLOCK END ===

=== CODE BLOCK ADDRESS 0x1ac8 ===
  0x1ac8	dec    	eax
  0x1ac9	lea    	ecx, [0x3159]
  0x1acf	call   	0x211c
  === BLOCK LINK ===
    0x1ad4
=== CODE BLOCK END ===

=== CODE BLOCK ADDRESS 0x1ad4 ===
  0x1ad4	int3   	
  0x1ad5	int3   	
  0x1ad6	int3   	
  0x1ad7	int3   	
  0x1ad8	int3   	
  === BLOCK LINK ===
    0x1ad9
=== CODE BLOCK END ===

=== CODE BLOCK ADDRESS 0x1ad9 ===
  0x1ad9	int3   	
  0x1ada	int3   	
  0x1adb	int3   	
  0x1adc	dec    	eax
  0x1add	mov    	dword ptr [esp + 8], ebx
  === BLOCK LINK ===
    0x1ae1
=== CODE BLOCK END ===

=== CODE BLOCK ADDRESS 0x1ae1 ===
  0x1ae1	dec    	eax
  0x1ae2	mov    	dword ptr [esp + 0x10], esi
  0x1ae6	push   	edi
  0x1ae7	dec    	eax
  0x1ae8	sub    	esp, 0x20
  === BLOCK LINK ===
    0x1aeb
=== CODE BLOCK END ===

=== CODE BLOCK ADDRESS 0x1aeb ===
  0x1aeb	dec    	ecx
  0x1aec	mov    	edi, eax
  0x1aee	dec    	eax
  0x1aef	mov    	esi, edx
  0x1af1	dec    	eax
  === BLOCK LINK ===
    0x1af2
=== CODE BLOCK END ===

=== CODE BLOCK ADDRESS 0x1af2 ===
  0x1af2	mov    	ebx, ecx
  0x1af4	dec    	eax
  0x1af5	test   	edx, edx
  0x1af7	je     	0x1b45
  === BLOCK LINK ===
    0x1af9
=== CODE BLOCK END ===

=== CODE BLOCK ADDRESS 0x1af9 ===
  0x1af9	dec    	eax
  0x1afa	cmp    	dword ptr [ecx + 0x18], 0x10
  0x1afe	jb     	0x1b05
  === BLOCK LINK ===
    0x1b00
=== CODE BLOCK END ===

=== CODE BLOCK ADDRESS 0x1b00 ===
  0x1b00	dec    	eax
  0x1b01	mov    	eax, dword ptr [ecx]
  0x1b03	jmp    	0x1b08
  === BLOCK LINK ===
    0x1b05
=== CODE BLOCK END ===

=== CODE BLOCK ADDRESS 0x1b05 ===
  0x1b05	dec    	eax
  0x1b06	mov    	eax, ebx
  0x1b08	dec    	eax
  0x1b09	cmp    	esi, eax
  0x1b0b	jb     	0x1b45
  === BLOCK LINK ===
    0x1b0d
=== CODE BLOCK END ===

=== CODE BLOCK ADDRESS 0x1b0d ===
  0x1b0d	dec    	eax
  0x1b0e	cmp    	dword ptr [ecx + 0x18], 0x10
  0x1b12	jb     	0x1b17
  === BLOCK LINK ===
    0x1b14
=== CODE BLOCK END ===

=== CODE BLOCK ADDRESS 0x1b14 ===
  0x1b14	dec    	eax
  0x1b15	mov    	ecx, dword ptr [ecx]
  0x1b17	dec    	eax
  0x1b18	add    	ecx, dword ptr [ebx + 0x10]
  0x1b1b	dec    	eax
  === BLOCK LINK ===
    0x1b1c
=== CODE BLOCK END ===

=== CODE BLOCK ADDRESS 0x1b1c ===
  0x1b1c	cmp    	ecx, esi
  0x1b1e	jbe    	0x1b45
  === BLOCK LINK ===
    0x1b20
=== CODE BLOCK END ===

=== CODE BLOCK ADDRESS 0x1b20 ===
  0x1b20	dec    	eax
  0x1b21	cmp    	dword ptr [ebx + 0x18], 0x10
  0x1b25	jb     	0x1b2c
  === BLOCK LINK ===
    0x1b27
=== CODE BLOCK END ===

=== CODE BLOCK ADDRESS 0x1b27 ===
  0x1b27	dec    	eax
  0x1b28	mov    	eax, dword ptr [ebx]
  0x1b2a	jmp    	0x1b2f
  === BLOCK LINK ===
    0x1b2c
=== CODE BLOCK END ===

=== CODE BLOCK ADDRESS 0x1b2c ===
  0x1b2c	dec    	eax
  0x1b2d	mov    	eax, ebx
  0x1b2f	dec    	eax
  0x1b30	sub    	esi, eax
  0x1b32	dec    	esp
  === BLOCK LINK ===
    0x1b33
=== CODE BLOCK END ===

=== CODE BLOCK ADDRESS 0x1b33 ===
  0x1b33	mov    	ecx, edi
  0x1b35	dec    	esp
  0x1b36	mov    	eax, esi
  0x1b38	dec    	eax
  0x1b39	mov    	edx, ebx
  === BLOCK LINK ===
    0x1b3b
=== CODE BLOCK END ===

=== CODE BLOCK ADDRESS 0x1b3b ===
  0x1b3b	dec    	eax
  0x1b3c	mov    	ecx, ebx
  0x1b3e	call   	0x1bf0
  === BLOCK LINK ===
    0x1b43
=== CODE BLOCK END ===

=== CODE BLOCK ADDRESS 0x1b43 ===
  0x1b43	jmp    	0x1bb7
  === BLOCK LINK ===
    0x1b45
=== CODE BLOCK END ===

=== CODE BLOCK ADDRESS 0x1b45 ===
  0x1b45	dec    	eax
  0x1b46	cmp    	edi, -2
  0x1b49	ja     	0x1bc8
  === BLOCK LINK ===
    0x1b4b
=== CODE BLOCK END ===

=== CODE BLOCK ADDRESS 0x1b4b ===
  0x1b4b	dec    	eax
  0x1b4c	cmp    	dword ptr [ebx + 0x18], edi
  0x1b4f	jae    	0x1b62
  === BLOCK LINK ===
    0x1b51
=== CODE BLOCK END ===

=== CODE BLOCK ADDRESS 0x1b51 ===
  0x1b51	dec    	esp
  0x1b52	mov    	eax, dword ptr [ebx + 0x10]
  0x1b55	dec    	eax
  0x1b56	mov    	edx, edi
  0x1b58	dec    	eax
  === BLOCK LINK ===
    0x1b59
=== CODE BLOCK END ===

=== CODE BLOCK ADDRESS 0x1b59 ===
  0x1b59	mov    	ecx, ebx
  0x1b5b	call   	0x1cfc
  === BLOCK LINK ===
    0x1b60
=== CODE BLOCK END ===

=== CODE BLOCK ADDRESS 0x1b60 ===
  0x1b60	jmp    	0x1b7e
  === BLOCK LINK ===
    0x1b62
=== CODE BLOCK END ===

=== CODE BLOCK ADDRESS 0x1b62 ===
  0x1b62	dec    	eax
  0x1b63	test   	edi, edi
  0x1b65	jne    	0x1b83
  === BLOCK LINK ===
    0x1b67
=== CODE BLOCK END ===

=== CODE BLOCK ADDRESS 0x1b67 ===
  0x1b67	dec    	eax
  0x1b68	cmp    	dword ptr [ebx + 0x18], 0x10
  0x1b6c	jb     	0x1b73
  === BLOCK LINK ===
    0x1b6e
=== CODE BLOCK END ===

=== CODE BLOCK ADDRESS 0x1b6e ===
  0x1b6e	dec    	eax
  0x1b6f	mov    	eax, dword ptr [ebx]
  0x1b71	jmp    	0x1b76
  === BLOCK LINK ===
    0x1b73
=== CODE BLOCK END ===

=== CODE BLOCK ADDRESS 0x1b73 ===
  0x1b73	dec    	eax
  0x1b74	mov    	eax, ebx
  0x1b76	dec    	eax
  0x1b77	and    	dword ptr [ebx + 0x10], 0
  0x1b7b	mov    	byte ptr [eax], 0
  === BLOCK LINK ===
    0x1b7e
=== CODE BLOCK END ===

=== CODE BLOCK ADDRESS 0x1b7e ===
  0x1b7e	dec    	eax
  0x1b7f	test   	edi, edi
  0x1b81	je     	0x1bb4
  === BLOCK LINK ===
    0x1b83
=== CODE BLOCK END ===

=== CODE BLOCK ADDRESS 0x1b83 ===
  0x1b83	dec    	eax
  0x1b84	cmp    	dword ptr [ebx + 0x18], 0x10
  0x1b88	jb     	0x1b8f
  === BLOCK LINK ===
    0x1b8a
=== CODE BLOCK END ===

=== CODE BLOCK ADDRESS 0x1b8a ===
  0x1b8a	dec    	eax
  0x1b8b	mov    	ecx, dword ptr [ebx]
  0x1b8d	jmp    	0x1b92
  === BLOCK LINK ===
    0x1b8f
=== CODE BLOCK END ===

=== CODE BLOCK ADDRESS 0x1b8f ===
  0x1b8f	dec    	eax
  0x1b90	mov    	ecx, ebx
  0x1b92	dec    	esp
  0x1b93	mov    	eax, edi
  0x1b95	dec    	eax
  === BLOCK LINK ===
    0x1b96
=== CODE BLOCK END ===

=== CODE BLOCK ADDRESS 0x1b96 ===
  0x1b96	mov    	edx, esi
  0x1b98	call   	0x26d8
  === BLOCK LINK ===
    0x1b9d
=== CODE BLOCK END ===

=== CODE BLOCK ADDRESS 0x1b9d ===
  0x1b9d	dec    	eax
  0x1b9e	cmp    	dword ptr [ebx + 0x18], 0x10
  0x1ba2	jb     	0x1ba9
  === BLOCK LINK ===
    0x1ba4
=== CODE BLOCK END ===

=== CODE BLOCK ADDRESS 0x1ba4 ===
  0x1ba4	dec    	eax
  0x1ba5	mov    	eax, dword ptr [ebx]
  0x1ba7	jmp    	0x1bac
  === BLOCK LINK ===
    0x1ba9
=== CODE BLOCK END ===

=== CODE BLOCK ADDRESS 0x1ba9 ===
  0x1ba9	dec    	eax
  0x1baa	mov    	eax, ebx
  0x1bac	dec    	eax
  0x1bad	mov    	dword ptr [ebx + 0x10], edi
  0x1bb0	mov    	byte ptr [eax + edi], 0
  === BLOCK LINK ===
    0x1bb4
=== CODE BLOCK END ===

=== CODE BLOCK ADDRESS 0x1bb4 ===
  0x1bb4	dec    	eax
  0x1bb5	mov    	eax, ebx
  0x1bb7	dec    	eax
  0x1bb8	mov    	ebx, dword ptr [esp + 0x30]
  0x1bbc	dec    	eax
  === BLOCK LINK ===
    0x1bbd
=== CODE BLOCK END ===

=== CODE BLOCK ADDRESS 0x1bbd ===
  0x1bbd	mov    	esi, dword ptr [esp + 0x38]
  0x1bc1	dec    	eax
  0x1bc2	add    	esp, 0x20
  0x1bc5	pop    	edi
  0x1bc6	ret    	
  === BLOCK LINK ===
    0x1bc7
=== CODE BLOCK END ===

=== CODE BLOCK ADDRESS 0x1bc7 ===
  0x1bc7	int3   	
  0x1bc8	dec    	eax
  0x1bc9	mov    	ecx, ebx
  0x1bcb	call   	0x1bd8
  === BLOCK LINK ===
    0x1bd0
=== CODE BLOCK END ===

=== CODE BLOCK ADDRESS 0x1bd0 ===
  0x1bd0	int3   	
  0x1bd1	int3   	
  0x1bd2	int3   	
  0x1bd3	int3   	
  0x1bd4	int3   	
  === BLOCK LINK ===
    0x1bd5
=== CODE BLOCK END ===

=== CODE BLOCK ADDRESS 0x1bd5 ===
  0x1bd5	int3   	
  0x1bd6	int3   	
  0x1bd7	int3   	
  0x1bd8	dec    	eax
  0x1bd9	sub    	esp, 0x28
  === BLOCK LINK ===
    0x1bdc
=== CODE BLOCK END ===

=== CODE BLOCK ADDRESS 0x1bdc ===
  0x1bdc	dec    	eax
  0x1bdd	lea    	ecx, [0x305d]
  0x1be3	call   	0x20f0
  === BLOCK LINK ===
    0x1be8
=== CODE BLOCK END ===

=== CODE BLOCK ADDRESS 0x1be8 ===
  0x1be8	int3   	
  0x1be9	int3   	
  0x1bea	int3   	
  0x1beb	int3   	
  0x1bec	int3   	
  === BLOCK LINK ===
    0x1bed
=== CODE BLOCK END ===

=== CODE BLOCK ADDRESS 0x1bed ===
  0x1bed	int3   	
  0x1bee	int3   	
  0x1bef	int3   	
  0x1bf0	dec    	eax
  0x1bf1	mov    	dword ptr [esp + 8], ebx
  === BLOCK LINK ===
    0x1bf5
=== CODE BLOCK END ===

=== CODE BLOCK ADDRESS 0x1bf5 ===
  0x1bf5	dec    	eax
  0x1bf6	mov    	dword ptr [esp + 0x10], ebp
  0x1bfa	dec    	eax
  0x1bfb	mov    	dword ptr [esp + 0x18], esi
  0x1bff	push   	edi
  === BLOCK LINK ===
    0x1c00
=== CODE BLOCK END ===

=== CODE BLOCK ADDRESS 0x1c00 ===
  0x1c00	dec    	eax
  0x1c01	sub    	esp, 0x20
  0x1c04	dec    	eax
  0x1c05	mov    	edi, dword ptr [edx + 0x10]
  0x1c08	dec    	ecx
  === BLOCK LINK ===
    0x1c09
=== CODE BLOCK END ===

=== CODE BLOCK ADDRESS 0x1c09 ===
  0x1c09	mov    	ebp, eax
  0x1c0b	dec    	eax
  0x1c0c	mov    	esi, edx
  0x1c0e	dec    	eax
  0x1c0f	mov    	ebx, ecx
  === BLOCK LINK ===
    0x1c11
=== CODE BLOCK END ===

=== CODE BLOCK ADDRESS 0x1c11 ===
  0x1c11	dec    	ecx
  0x1c12	cmp    	edi, eax
  0x1c14	jb     	0x1cef
  === BLOCK LINK ===
    0x1c1a
=== CODE BLOCK END ===

=== CODE BLOCK ADDRESS 0x1c1a ===
  0x1c1a	dec    	ecx
  0x1c1b	sub    	edi, eax
  0x1c1d	dec    	esp
  0x1c1e	cmp    	ecx, edi
  0x1c20	dec    	ecx
  === BLOCK LINK ===
    0x1c21
=== CODE BLOCK END ===

=== CODE BLOCK ADDRESS 0x1c21 ===
  0x1c21	cmovb  	edi, ecx
  0x1c24	dec    	eax
  0x1c25	cmp    	ecx, edx
  0x1c27	jne    	0x1c55
  === BLOCK LINK ===
    0x1c29
=== CODE BLOCK END ===

=== CODE BLOCK ADDRESS 0x1c29 ===
  0x1c29	dec    	edx
  0x1c2a	lea    	eax, [edi + eax]
  0x1c2d	dec    	eax
  0x1c2e	cmp    	dword ptr [ecx + 0x10], eax
  0x1c31	jb     	0x1cef
  === BLOCK LINK ===
    0x1c37
=== CODE BLOCK END ===

=== CODE BLOCK ADDRESS 0x1c37 ===
  0x1c37	dec    	eax
  0x1c38	cmp    	dword ptr [ecx + 0x18], 0x10
  0x1c3c	jb     	0x1c41
  === BLOCK LINK ===
    0x1c3e
=== CODE BLOCK END ===

=== CODE BLOCK ADDRESS 0x1c3e ===
  0x1c3e	dec    	eax
  0x1c3f	mov    	ecx, dword ptr [ecx]
  0x1c41	dec    	eax
  0x1c42	mov    	dword ptr [ebx + 0x10], eax
  0x1c45	xor    	edx, edx
  === BLOCK LINK ===
    0x1c47
=== CODE BLOCK END ===

=== CODE BLOCK ADDRESS 0x1c47 ===
  0x1c47	mov    	byte ptr [ecx + eax], 0
  0x1c4b	dec    	eax
  0x1c4c	mov    	ecx, ebx
  0x1c4e	call   	0x1e04
  === BLOCK LINK ===
    0x1c53
=== CODE BLOCK END ===

=== CODE BLOCK ADDRESS 0x1c53 ===
  0x1c53	jmp    	0x1cd0
  === BLOCK LINK ===
    0x1c55
=== CODE BLOCK END ===

=== CODE BLOCK ADDRESS 0x1c55 ===
  0x1c55	dec    	eax
  0x1c56	cmp    	edi, -2
  0x1c59	ja     	0x1ce9
  === BLOCK LINK ===
    0x1c5f
=== CODE BLOCK END ===

=== CODE BLOCK ADDRESS 0x1c5f ===
  0x1c5f	dec    	eax
  0x1c60	cmp    	dword ptr [ecx + 0x18], edi
  0x1c63	jae    	0x1c73
  === BLOCK LINK ===
    0x1c65
=== CODE BLOCK END ===

=== CODE BLOCK ADDRESS 0x1c65 ===
  0x1c65	dec    	esp
  0x1c66	mov    	eax, dword ptr [ecx + 0x10]
  0x1c69	dec    	eax
  0x1c6a	mov    	edx, edi
  0x1c6c	call   	0x1cfc
  === BLOCK LINK ===
    0x1c71
=== CODE BLOCK END ===

=== CODE BLOCK ADDRESS 0x1c71 ===
  0x1c71	jmp    	0x1c8f
  === BLOCK LINK ===
    0x1c73
=== CODE BLOCK END ===

=== CODE BLOCK ADDRESS 0x1c73 ===
  0x1c73	dec    	eax
  0x1c74	test   	edi, edi
  0x1c76	jne    	0x1c94
  === BLOCK LINK ===
    0x1c78
=== CODE BLOCK END ===

=== CODE BLOCK ADDRESS 0x1c78 ===
  0x1c78	dec    	eax
  0x1c79	cmp    	dword ptr [ecx + 0x18], 0x10
  0x1c7d	jb     	0x1c84
  === BLOCK LINK ===
    0x1c7f
=== CODE BLOCK END ===

=== CODE BLOCK ADDRESS 0x1c7f ===
  0x1c7f	dec    	eax
  0x1c80	mov    	eax, dword ptr [ecx]
  0x1c82	jmp    	0x1c87
  === BLOCK LINK ===
    0x1c84
=== CODE BLOCK END ===

=== CODE BLOCK ADDRESS 0x1c84 ===
  0x1c84	dec    	eax
  0x1c85	mov    	eax, ebx
  0x1c87	dec    	eax
  0x1c88	and    	dword ptr [ecx + 0x10], 0
  0x1c8c	mov    	byte ptr [eax], 0
  === BLOCK LINK ===
    0x1c8f
=== CODE BLOCK END ===

=== CODE BLOCK ADDRESS 0x1c8f ===
  0x1c8f	dec    	eax
  0x1c90	test   	edi, edi
  0x1c92	je     	0x1cd0
  === BLOCK LINK ===
    0x1c94
=== CODE BLOCK END ===

=== CODE BLOCK ADDRESS 0x1c94 ===
  0x1c94	dec    	eax
  0x1c95	cmp    	dword ptr [esi + 0x18], 0x10
  0x1c99	jb     	0x1c9e
  === BLOCK LINK ===
    0x1c9b
=== CODE BLOCK END ===

=== CODE BLOCK ADDRESS 0x1c9b ===
  0x1c9b	dec    	eax
  0x1c9c	mov    	esi, dword ptr [esi]
  0x1c9e	dec    	eax
  0x1c9f	cmp    	dword ptr [ebx + 0x18], 0x10
  0x1ca3	dec    	eax
  === BLOCK LINK ===
    0x1ca4
=== CODE BLOCK END ===

=== CODE BLOCK ADDRESS 0x1ca4 ===
  0x1ca4	lea    	edx, [esi + ebp]
  0x1ca7	jb     	0x1cae
  === BLOCK LINK ===
    0x1ca9
=== CODE BLOCK END ===

=== CODE BLOCK ADDRESS 0x1ca9 ===
  0x1ca9	dec    	eax
  0x1caa	mov    	ecx, dword ptr [ebx]
  0x1cac	jmp    	0x1cb1
  === BLOCK LINK ===
    0x1cae
=== CODE BLOCK END ===

=== CODE BLOCK ADDRESS 0x1cae ===
  0x1cae	dec    	eax
  0x1caf	mov    	ecx, ebx
  0x1cb1	dec    	esp
  0x1cb2	mov    	eax, edi
  0x1cb4	call   	0x26d8
  === BLOCK LINK ===
    0x1cb9
=== CODE BLOCK END ===

=== CODE BLOCK ADDRESS 0x1cb9 ===
  0x1cb9	dec    	eax
  0x1cba	cmp    	dword ptr [ebx + 0x18], 0x10
  0x1cbe	jb     	0x1cc5
  === BLOCK LINK ===
    0x1cc0
=== CODE BLOCK END ===

=== CODE BLOCK ADDRESS 0x1cc0 ===
  0x1cc0	dec    	eax
  0x1cc1	mov    	eax, dword ptr [ebx]
  0x1cc3	jmp    	0x1cc8
  === BLOCK LINK ===
    0x1cc5
=== CODE BLOCK END ===

=== CODE BLOCK ADDRESS 0x1cc5 ===
  0x1cc5	dec    	eax
  0x1cc6	mov    	eax, ebx
  0x1cc8	dec    	eax
  0x1cc9	mov    	dword ptr [ebx + 0x10], edi
  0x1ccc	mov    	byte ptr [eax + edi], 0
  === BLOCK LINK ===
    0x1cd0
=== CODE BLOCK END ===

=== CODE BLOCK ADDRESS 0x1cd0 ===
  0x1cd0	dec    	eax
  0x1cd1	mov    	ebp, dword ptr [esp + 0x38]
  0x1cd5	dec    	eax
  0x1cd6	mov    	eax, ebx
  0x1cd8	dec    	eax
  === BLOCK LINK ===
    0x1cd9
=== CODE BLOCK END ===

=== CODE BLOCK ADDRESS 0x1cd9 ===
  0x1cd9	mov    	ebx, dword ptr [esp + 0x30]
  0x1cdd	dec    	eax
  0x1cde	mov    	esi, dword ptr [esp + 0x40]
  0x1ce2	dec    	eax
  0x1ce3	add    	esp, 0x20
  === BLOCK LINK ===
    0x1ce6
=== CODE BLOCK END ===

=== CODE BLOCK ADDRESS 0x1ce6 ===
  0x1ce6	pop    	edi
  0x1ce7	ret    	
  0x1ce8	int3   	
  0x1ce9	call   	0x1bd8
  === BLOCK LINK ===
    0x1cee
=== CODE BLOCK END ===

=== CODE BLOCK ADDRESS 0x2178 ===
=== CODE BLOCK END ===

=== CODE BLOCK ADDRESS 0x1cee ===
  0x1cee	int3   	
  0x1cef	call   	0x1ac4
  === BLOCK LINK ===
    0x1cf4
=== CODE BLOCK END ===

=== CODE BLOCK ADDRESS 0x1cf4 ===
  0x1cf4	int3   	
  0x1cf5	int3   	
  0x1cf6	int3   	
  0x1cf7	int3   	
  0x1cf8	int3   	
  === BLOCK LINK ===
    0x1cf9
=== CODE BLOCK END ===

=== CODE BLOCK ADDRESS 0x1cf9 ===
  0x1cf9	int3   	
  0x1cfa	int3   	
  0x1cfb	int3   	
  0x1cfc	dec    	eax
  0x1cfd	mov    	eax, esp
  === BLOCK LINK ===
    0x1cff
=== CODE BLOCK END ===

=== CODE BLOCK ADDRESS 0x1cff ===
  0x1cff	dec    	esp
  0x1d00	mov    	dword ptr [eax + 0x18], eax
  0x1d03	dec    	eax
  0x1d04	mov    	dword ptr [eax + 0x10], edx
  0x1d07	dec    	eax
  === BLOCK LINK ===
    0x1d08
=== CODE BLOCK END ===

=== CODE BLOCK ADDRESS 0x1d08 ===
  0x1d08	mov    	dword ptr [eax + 8], ecx
  0x1d0b	push   	ebx
  0x1d0c	push   	esi
  0x1d0d	push   	edi
  0x1d0e	inc    	ecx
  === BLOCK LINK ===
    0x1d0f
=== CODE BLOCK END ===

=== CODE BLOCK ADDRESS 0x1d0f ===
  0x1d0f	push   	esi
  0x1d10	dec    	eax
  0x1d11	sub    	esp, 0x38
  0x1d14	dec    	eax
  0x1d15	mov    	dword ptr [eax - 0x38], 0xfffffffe
  === BLOCK LINK ===
    0x1d1c
=== CODE BLOCK END ===

=== CODE BLOCK ADDRESS 0x1d1c ===
  0x1d1c	dec    	ebp
  0x1d1d	mov    	esi, eax
  0x1d1f	dec    	eax
  0x1d20	mov    	ebx, ecx
  0x1d22	dec    	eax
  === BLOCK LINK ===
    0x1d23
=== CODE BLOCK END ===

=== CODE BLOCK ADDRESS 0x1d23 ===
  0x1d23	mov    	edi, edx
  0x1d25	dec    	eax
  0x1d26	or     	edi, 0xf
  0x1d29	dec    	ecx
  0x1d2a	mov    	ecx, 0xfffffffe
  === BLOCK LINK ===
    0x1d30
=== CODE BLOCK END ===

=== CODE BLOCK ADDRESS 0x1d30 ===
  0x1d30	dec    	ecx
  0x1d31	cmp    	edi, ecx
  0x1d33	jbe    	0x1d3a
  === BLOCK LINK ===
    0x1d35
=== CODE BLOCK END ===

=== CODE BLOCK ADDRESS 0x1d35 ===
  0x1d35	dec    	eax
  0x1d36	mov    	edi, edx
  0x1d38	jmp    	0x1d6b
  === BLOCK LINK ===
    0x1d3a
=== CODE BLOCK END ===

=== CODE BLOCK ADDRESS 0x1d3a ===
  0x1d3a	dec    	esp
  0x1d3b	mov    	eax, dword ptr [ecx + 0x18]
  0x1d3e	dec    	ecx
  0x1d3f	mov    	ecx, eax
  0x1d41	dec    	eax
  === BLOCK LINK ===
    0x1d42
=== CODE BLOCK END ===

=== CODE BLOCK ADDRESS 0x1d42 ===
  0x1d42	shr    	ecx, 1
  0x1d44	dec    	eax
  0x1d45	mov    	eax, 0xaaaaaaab
  0x1d4a	stosb  	byte ptr es:[edi], al
  0x1d4b	stosb  	byte ptr es:[edi], al
  === BLOCK LINK ===
    0x1d4c
=== CODE BLOCK END ===

=== CODE BLOCK ADDRESS 0x1d4c ===
  0x1d4c	stosb  	byte ptr es:[edi], al
  0x1d4d	stosb  	byte ptr es:[edi], al
  0x1d4e	dec    	eax
  0x1d4f	mul    	edi
  0x1d51	dec    	eax
  === BLOCK LINK ===
    0x1d52
=== CODE BLOCK END ===

=== CODE BLOCK ADDRESS 0x1d52 ===
  0x1d52	shr    	edx, 1
  0x1d54	dec    	eax
  0x1d55	cmp    	ecx, edx
  0x1d57	jbe    	0x1d6b
  === BLOCK LINK ===
    0x1d59
=== CODE BLOCK END ===

=== CODE BLOCK ADDRESS 0x1d59 ===
  0x1d59	dec    	ecx
  0x1d5a	mov    	eax, ecx
  0x1d5c	dec    	eax
  0x1d5d	sub    	eax, ecx
  0x1d5f	dec    	esp
  === BLOCK LINK ===
    0x1d60
=== CODE BLOCK END ===

=== CODE BLOCK ADDRESS 0x1d60 ===
  0x1d60	cmp    	eax, eax
  0x1d62	dec    	edx
  0x1d63	lea    	edi, [ecx + eax]
  0x1d66	jbe    	0x1d6b
  === BLOCK LINK ===
    0x1d68
=== CODE BLOCK END ===

=== CODE BLOCK ADDRESS 0x1d68 ===
  0x1d68	dec    	ecx
  0x1d69	mov    	edi, ecx
  0x1d6b	dec    	eax
  0x1d6c	lea    	ecx, [edi + 1]
  0x1d6f	xor    	esi, esi
  === BLOCK LINK ===
    0x1d71
=== CODE BLOCK END ===

=== CODE BLOCK ADDRESS 0x1d71 ===
  0x1d71	dec    	eax
  0x1d72	test   	ecx, ecx
  0x1d74	je     	0x1d83
  === BLOCK LINK ===
    0x1d76
=== CODE BLOCK END ===

=== CODE BLOCK ADDRESS 0x1d76 ===
  0x1d76	call   	0x1f24
  === BLOCK LINK ===
    0x1d7b
=== CODE BLOCK END ===

=== CODE BLOCK ADDRESS 0x1d7b ===
  0x1d7b	dec    	eax
  0x1d7c	mov    	esi, eax
  0x1d7e	dec    	eax
  0x1d7f	test   	eax, eax
  0x1d81	je     	0x1df4
  === BLOCK LINK ===
    0x1d83
=== CODE BLOCK END ===

=== CODE BLOCK ADDRESS 0x1d83 ===
  0x1d83	jmp    	0x1d99
  === BLOCK LINK ===
    0x1d85
=== CODE BLOCK END ===

=== CODE BLOCK ADDRESS 0x1d85 ===
  0x1d85	dec    	eax
  0x1d86	mov    	ebx, dword ptr [esp + 0x60]
  0x1d8a	dec    	esp
  0x1d8b	mov    	esi, dword ptr [esp + 0x70]
  0x1d8f	dec    	eax
  === BLOCK LINK ===
    0x1d90
=== CODE BLOCK END ===

=== CODE BLOCK ADDRESS 0x1d90 ===
  0x1d90	mov    	edi, dword ptr [esp + 0x68]
  0x1d94	dec    	eax
  0x1d95	mov    	esi, dword ptr [esp + 0x78]
  0x1d99	dec    	ebp
  0x1d9a	test   	esi, esi
  === BLOCK LINK ===
    0x1d9c
=== CODE BLOCK END ===

=== CODE BLOCK ADDRESS 0x1d9c ===
  0x1d9c	je     	0x1db8
  === BLOCK LINK ===
    0x1d9e
=== CODE BLOCK END ===

=== CODE BLOCK ADDRESS 0x1d9e ===
  0x1d9e	dec    	eax
  0x1d9f	cmp    	dword ptr [ebx + 0x18], 0x10
  0x1da3	jb     	0x1daa
  === BLOCK LINK ===
    0x1da5
=== CODE BLOCK END ===

=== CODE BLOCK ADDRESS 0x1da5 ===
  0x1da5	dec    	eax
  0x1da6	mov    	edx, dword ptr [ebx]
  0x1da8	jmp    	0x1dad
  === BLOCK LINK ===
    0x1daa
=== CODE BLOCK END ===

=== CODE BLOCK ADDRESS 0x1daa ===
  0x1daa	dec    	eax
  0x1dab	mov    	edx, ebx
  0x1dad	dec    	ebp
  0x1dae	mov    	eax, esi
  0x1db0	dec    	eax
  === BLOCK LINK ===
    0x1db1
=== CODE BLOCK END ===

=== CODE BLOCK ADDRESS 0x1db1 ===
  0x1db1	mov    	ecx, esi
  0x1db3	call   	0x26d8
  === BLOCK LINK ===
    0x1db8
=== CODE BLOCK END ===

=== CODE BLOCK ADDRESS 0x1db8 ===
  0x1db8	dec    	eax
  0x1db9	cmp    	dword ptr [ebx + 0x18], 0x10
  0x1dbd	jb     	0x1dce
  === BLOCK LINK ===
    0x1dbf
=== CODE BLOCK END ===

=== CODE BLOCK ADDRESS 0x1dbf ===
  0x1dbf	dec    	eax
  0x1dc0	mov    	ecx, dword ptr [ebx]
  0x1dc2	dec    	eax
  0x1dc3	call   	dword ptr [0x2067]
  === BLOCK LINK ===
    0x1dc9
=== CODE BLOCK END ===

=== CODE BLOCK ADDRESS 0x1dc9 ===
  0x1dc9	nop    	dword ptr [eax + eax]
  0x1dce	dec    	eax
  0x1dcf	lea    	eax, [ebx + 0x10]
  0x1dd2	dec    	eax
  0x1dd3	mov    	dword ptr [ebx], esi
  === BLOCK LINK ===
    0x1dd5
=== CODE BLOCK END ===

=== CODE BLOCK ADDRESS 0x1dd5 ===
  0x1dd5	dec    	eax
  0x1dd6	mov    	dword ptr [ebx + 0x18], edi
  0x1dd9	dec    	eax
  0x1dda	cmp    	edi, 0x10
  0x1ddd	dec    	eax
  === BLOCK LINK ===
    0x1dde
=== CODE BLOCK END ===

=== CODE BLOCK ADDRESS 0x1dde ===
  0x1dde	cmovae  	ebx, esi
  0x1de1	dec    	esp
  0x1de2	mov    	dword ptr [eax], esi
  0x1de4	inc    	edx
  0x1de5	mov    	byte ptr [ebx + esi], 0
  === BLOCK LINK ===
    0x1de9
=== CODE BLOCK END ===

=== CODE BLOCK ADDRESS 0x1de9 ===
  0x1de9	dec    	eax
  0x1dea	add    	esp, 0x38
  0x1ded	inc    	ecx
  0x1dee	pop    	esi
  0x1def	pop    	edi
  === BLOCK LINK ===
    0x1df0
=== CODE BLOCK END ===

=== CODE BLOCK ADDRESS 0x1df0 ===
  0x1df0	pop    	esi
  0x1df1	pop    	ebx
  0x1df2	ret    	
  0x1df3	int3   	
  0x1df4	call   	0x20c8
  === BLOCK LINK ===
    0x1df9
=== CODE BLOCK END ===

=== CODE BLOCK ADDRESS 0x12a6 ===
  0x12a6	dec    	eax
  0x12a7	mov    	ecx, ebx
  0x12a9	call   	0x1adc
  === BLOCK LINK ===
    0x12ae
=== CODE BLOCK END ===

=== CODE BLOCK ADDRESS 0x1df9 ===
  0x1df9	nop    	
  0x1dfa	int3   	
  0x1dfb	int3   	
  0x1dfc	int3   	
  0x1dfd	int3   	
  === BLOCK LINK ===
    0x1dfe
=== CODE BLOCK END ===

=== CODE BLOCK ADDRESS 0x1dfe ===
  0x1dfe	int3   	
  0x1dff	int3   	
  0x1e00	int3   	
  0x1e01	int3   	
  0x1e02	int3   	
  === BLOCK LINK ===
    0x1e03
=== CODE BLOCK END ===

=== CODE BLOCK ADDRESS 0x1e03 ===
  0x1e03	int3   	
  0x1e04	dec    	eax
  0x1e05	mov    	dword ptr [esp + 8], ebx
  0x1e09	push   	edi
  0x1e0a	dec    	eax
  === BLOCK LINK ===
    0x1e0b
=== CODE BLOCK END ===

=== CODE BLOCK ADDRESS 0x1e0b ===
  0x1e0b	sub    	esp, 0x20
  0x1e0e	dec    	eax
  0x1e0f	mov    	edi, dword ptr [ecx + 0x10]
  0x1e12	dec    	eax
  0x1e13	mov    	ebx, ecx
  === BLOCK LINK ===
    0x1e15
=== CODE BLOCK END ===

=== CODE BLOCK ADDRESS 0x1e15 ===
  0x1e15	dec    	eax
  0x1e16	cmp    	edi, edx
  0x1e18	jb     	0x1e97
  === BLOCK LINK ===
    0x1e1a
=== CODE BLOCK END ===

=== CODE BLOCK ADDRESS 0x1e1a ===
  0x1e1a	dec    	eax
  0x1e1b	mov    	eax, edi
  0x1e1d	dec    	eax
  0x1e1e	sub    	eax, edx
  0x1e20	dec    	ecx
  === BLOCK LINK ===
    0x1e21
=== CODE BLOCK END ===

=== CODE BLOCK ADDRESS 0x1e21 ===
  0x1e21	cmp    	eax, eax
  0x1e23	ja     	0x1e3e
  === BLOCK LINK ===
    0x1e25
=== CODE BLOCK END ===

=== CODE BLOCK ADDRESS 0x1e25 ===
  0x1e25	dec    	eax
  0x1e26	cmp    	dword ptr [ecx + 0x18], 0x10
  0x1e2a	jb     	0x1e31
  === BLOCK LINK ===
    0x1e2c
=== CODE BLOCK END ===

=== CODE BLOCK ADDRESS 0x1e2c ===
  0x1e2c	dec    	eax
  0x1e2d	mov    	eax, dword ptr [ecx]
  0x1e2f	jmp    	0x1e34
  === BLOCK LINK ===
    0x1e31
=== CODE BLOCK END ===

=== CODE BLOCK ADDRESS 0x1e31 ===
  0x1e31	dec    	eax
  0x1e32	mov    	eax, ebx
  0x1e34	dec    	eax
  0x1e35	mov    	dword ptr [ecx + 0x10], edx
  0x1e38	mov    	byte ptr [eax + edx], 0
  === BLOCK LINK ===
    0x1e3c
=== CODE BLOCK END ===

=== CODE BLOCK ADDRESS 0x1e3c ===
  0x1e3c	jmp    	0x1e88
  === BLOCK LINK ===
    0x1e3e
=== CODE BLOCK END ===

=== CODE BLOCK ADDRESS 0x1e3e ===
  0x1e3e	dec    	ebp
  0x1e3f	test   	eax, eax
  0x1e41	je     	0x1e88
  === BLOCK LINK ===
    0x1e43
=== CODE BLOCK END ===

=== CODE BLOCK ADDRESS 0x1e43 ===
  0x1e43	dec    	eax
  0x1e44	mov    	eax, dword ptr [ecx + 0x18]
  0x1e47	dec    	eax
  0x1e48	cmp    	eax, 0x10
  0x1e4b	jb     	0x1e50
  === BLOCK LINK ===
    0x1e4d
=== CODE BLOCK END ===

=== CODE BLOCK ADDRESS 0x1e4d ===
  0x1e4d	dec    	eax
  0x1e4e	mov    	ecx, dword ptr [ecx]
  0x1e50	dec    	ecx
  0x1e51	sub    	edi, eax
  0x1e53	dec    	esp
  === BLOCK LINK ===
    0x1e54
=== CODE BLOCK END ===

=== CODE BLOCK ADDRESS 0x1e54 ===
  0x1e54	lea    	ecx, [ecx + edx]
  0x1e57	dec    	eax
  0x1e58	mov    	ecx, edi
  0x1e5a	dec    	eax
  0x1e5b	sub    	ecx, edx
  === BLOCK LINK ===
    0x1e5d
=== CODE BLOCK END ===

=== CODE BLOCK ADDRESS 0x1e5d ===
  0x1e5d	je     	0x1e72
  === BLOCK LINK ===
    0x1e5f
=== CODE BLOCK END ===

=== CODE BLOCK ADDRESS 0x1e5f ===
  0x1e5f	dec    	ebx
  0x1e60	lea    	edx, [ecx + eax]
  0x1e63	dec    	esp
  0x1e64	mov    	eax, ecx
  0x1e66	dec    	ecx
  === BLOCK LINK ===
    0x1e67
=== CODE BLOCK END ===

=== CODE BLOCK ADDRESS 0x1e67 ===
  0x1e67	mov    	ecx, ecx
  0x1e69	call   	0x26e4
  === BLOCK LINK ===
    0x1e6e
=== CODE BLOCK END ===

=== CODE BLOCK ADDRESS 0x1e6e ===
  0x1e6e	dec    	eax
  0x1e6f	mov    	eax, dword ptr [ebx + 0x18]
  0x1e72	dec    	eax
  0x1e73	cmp    	eax, 0x10
  0x1e76	jb     	0x1e7d
  === BLOCK LINK ===
    0x1e78
=== CODE BLOCK END ===

=== CODE BLOCK ADDRESS 0x1e78 ===
  0x1e78	dec    	eax
  0x1e79	mov    	eax, dword ptr [ebx]
  0x1e7b	jmp    	0x1e80
  === BLOCK LINK ===
    0x1e7d
=== CODE BLOCK END ===

=== CODE BLOCK ADDRESS 0x1e7d ===
  0x1e7d	dec    	eax
  0x1e7e	mov    	eax, ebx
  0x1e80	dec    	eax
  0x1e81	mov    	dword ptr [ebx + 0x10], edi
  0x1e84	mov    	byte ptr [eax + edi], 0
  === BLOCK LINK ===
    0x1e88
=== CODE BLOCK END ===

=== CODE BLOCK ADDRESS 0x1e88 ===
  0x1e88	dec    	eax
  0x1e89	mov    	eax, ebx
  0x1e8b	dec    	eax
  0x1e8c	mov    	ebx, dword ptr [esp + 0x30]
  0x1e90	dec    	eax
  === BLOCK LINK ===
    0x1e91
=== CODE BLOCK END ===

=== CODE BLOCK ADDRESS 0x1e91 ===
  0x1e91	add    	esp, 0x20
  0x1e94	pop    	edi
  0x1e95	ret    	
  0x1e96	int3   	
  0x1e97	call   	0x1ac4
  === BLOCK LINK ===
    0x1e9c
=== CODE BLOCK END ===

=== CODE BLOCK ADDRESS 0x129a ===
  0x129a	dec    	eax
  0x129b	inc    	eax
  0x129d	inc    	esp
  === BLOCK LINK ===
    0x129e
=== CODE BLOCK END ===

=== CODE BLOCK ADDRESS 0x1e9c ===
  0x1e9c	int3   	
  0x1e9d	int3   	
  0x1e9e	int3   	
  0x1e9f	int3   	
  0x1ea0	int3   	
  === BLOCK LINK ===
    0x1ea1
=== CODE BLOCK END ===

=== CODE BLOCK ADDRESS 0x1ea1 ===
  0x1ea1	int3   	
  0x1ea2	int3   	
  0x1ea3	int3   	
  === BLOCK LINK ===
    0x1ea4
=== CODE BLOCK END ===

=== CODE BLOCK ADDRESS 0x1ea9 ===
  0x1ea9	dec    	eax
  0x1eaa	sub    	esp, 0x38
  0x1ead	dec    	eax
  0x1eae	mov    	eax, dword ptr [0x587c]
  0x1eb4	dec    	eax
  === BLOCK LINK ===
    0x1eb5
=== CODE BLOCK END ===

=== CODE BLOCK ADDRESS 0x1eb5 ===
  0x1eb5	test   	eax, eax
  0x1eb7	je     	0x1ec9
  === BLOCK LINK ===
    0x1eb9
=== CODE BLOCK END ===

=== CODE BLOCK ADDRESS 0x1eb9 ===
  0x1eb9	dec    	esp
  0x1eba	lea    	edx, [esp + 0x60]
  0x1ebe	dec    	esp
  0x1ebf	mov    	dword ptr [esp + 0x20], edx
  0x1ec3	call   	dword ptr [0x1fff]
  === BLOCK LINK ===
    0x1ec9
=== CODE BLOCK END ===

=== CODE BLOCK ADDRESS 0x1ec9 ===
  0x1ec9	dec    	eax
  0x1eca	add    	esp, 0x38
  0x1ecd	ret    	
  0x1ece	int3   	
  0x1ecf	int3   	
  === BLOCK LINK ===
    0x1ed0
=== CODE BLOCK END ===

=== CODE BLOCK ADDRESS 0x1ed0 ===
  0x1ed0	int3   	
  0x1ed1	int3   	
  0x1ed2	int3   	
  0x1ed3	int3   	
  0x1ed4	int3   	
  === BLOCK LINK ===
    0x1ed5
=== CODE BLOCK END ===

=== CODE BLOCK ADDRESS 0x1ed5 ===
  0x1ed5	int3   	
  0x1ed6	int3   	
  0x1ed7	int3   	
  0x1ed8	int3   	
  0x1ed9	int3   	
  === BLOCK LINK ===
    0x1eda
=== CODE BLOCK END ===

=== CODE BLOCK ADDRESS 0x1eda ===
  0x1eda	int3   	
  0x1edb	int3   	
  0x1edc	int3   	
  0x1edd	int3   	
  0x1ede	int3   	
  === BLOCK LINK ===
    0x1edf
=== CODE BLOCK END ===

=== CODE BLOCK ADDRESS 0x1edf ===
  0x1edf	int3   	
  0x1ee0	dec    	eax
  0x1ee1	sub    	esp, 0x38
  0x1ee4	mov    	eax, dword ptr [0x2d66]
  0x1eea	dec    	esp
  === BLOCK LINK ===
    0x1eeb
=== CODE BLOCK END ===

=== CODE BLOCK ADDRESS 0x1eeb ===
  0x1eeb	mov    	ecx, dword ptr [0x1d17]
  0x1ef1	dec    	esp
  0x1ef2	mov    	eax, dword ptr [0x2d60]
  0x1ef8	mov    	dword ptr [esp + 0x28], eax
  0x1efc	dec    	eax
  === BLOCK LINK ===
    0x1efd
=== CODE BLOCK END ===

=== CODE BLOCK ADDRESS 0x1efd ===
  0x1efd	mov    	dword ptr [esp + 0x20], edx
  0x1f01	dec    	eax
  0x1f02	mov    	edx, ecx
  0x1f04	dec    	eax
  0x1f05	lea    	ecx, [0xffffe0f5]
  === BLOCK LINK ===
    0x1f0b
=== CODE BLOCK END ===

=== CODE BLOCK ADDRESS 0x1f0b ===
  0x1f0b	dec    	eax
  0x1f0c	call   	dword ptr [0x1d06]
  === BLOCK LINK ===
    0x1f12
=== CODE BLOCK END ===

=== CODE BLOCK ADDRESS 0x1f12 ===
  0x1f12	nop    	dword ptr [eax + eax]
  0x1f17	dec    	eax
  0x1f18	add    	esp, 0x38
  0x1f1b	ret    	
  0x1f1c	int3   	
  === BLOCK LINK ===
    0x1f1d
=== CODE BLOCK END ===

=== CODE BLOCK ADDRESS 0x1f1d ===
  0x1f1d	int3   	
  0x1f1e	int3   	
  0x1f1f	int3   	
  0x1f20	int3   	
  0x1f21	int3   	
  === BLOCK LINK ===
    0x1f22
=== CODE BLOCK END ===

=== CODE BLOCK ADDRESS 0x1f22 ===
  0x1f22	int3   	
  0x1f23	int3   	
  0x1f24	inc    	eax
  0x1f25	push   	ebx
  0x1f26	dec    	eax
  === BLOCK LINK ===
    0x1f27
=== CODE BLOCK END ===

=== CODE BLOCK ADDRESS 0x1f27 ===
  0x1f27	sub    	esp, 0x20
  0x1f2a	dec    	eax
  0x1f2b	mov    	ebx, ecx
  0x1f2d	jmp    	0x1f3e
  === BLOCK LINK ===
    0x1f2f
=== CODE BLOCK END ===

=== CODE BLOCK ADDRESS 0x1f2f ===
  0x1f2f	dec    	eax
  0x1f30	mov    	ecx, ebx
  0x1f32	call   	0x267c
  === BLOCK LINK ===
    0x1f37
=== CODE BLOCK END ===

=== CODE BLOCK ADDRESS 0x1f37 ===
  0x1f37	test   	eax, eax
  0x1f39	je     	0x1f4f
  === BLOCK LINK ===
    0x1f3b
=== CODE BLOCK END ===

=== CODE BLOCK ADDRESS 0x1f3b ===
  0x1f3b	dec    	eax
  0x1f3c	mov    	ecx, ebx
  0x1f3e	call   	dword ptr [0x1f44]
  === BLOCK LINK ===
    0x1f44
=== CODE BLOCK END ===

=== CODE BLOCK ADDRESS 0x1f44 ===
  0x1f44	dec    	eax
  0x1f45	test   	eax, eax
  0x1f47	je     	0x1f2f
  === BLOCK LINK ===
    0x1f49
=== CODE BLOCK END ===

=== CODE BLOCK ADDRESS 0x1f49 ===
  0x1f49	dec    	eax
  0x1f4a	add    	esp, 0x20
  0x1f4d	pop    	ebx
  0x1f4e	ret    	
  0x1f4f	call   	0x20c8
  === BLOCK LINK ===
    0x1f54
=== CODE BLOCK END ===

=== CODE BLOCK ADDRESS 0x12f8 ===
  0x12f8	dec    	eax
  0x12f9	mov    	dword ptr [edi + 8], eax
  0x12fc	dec    	eax
  === BLOCK LINK ===
    0x12fd
=== CODE BLOCK END ===

=== CODE BLOCK ADDRESS 0x1f54 ===
  0x1f54	int3   	
  0x1f55	int3   	
  0x1f56	int3   	
  0x1f57	int3   	
  0x1f58	int3   	
  === BLOCK LINK ===
    0x1f59
=== CODE BLOCK END ===

=== CODE BLOCK ADDRESS 0x1f59 ===
  0x1f59	int3   	
  0x1f5a	int3   	
  0x1f5b	int3   	
  0x1f5c	inc    	eax
  0x1f5d	push   	ebx
  === BLOCK LINK ===
    0x1f5e
=== CODE BLOCK END ===

=== CODE BLOCK ADDRESS 0x1f5e ===
  0x1f5e	dec    	eax
  0x1f5f	sub    	esp, 0x20
  0x1f62	dec    	eax
  0x1f63	mov    	ebx, ecx
  0x1f65	call   	0x26a0
  === BLOCK LINK ===
    0x1f6a
=== CODE BLOCK END ===

=== CODE BLOCK ADDRESS 0x1f6a ===
  0x1f6a	dec    	eax
  0x1f6b	lea    	eax, [0x108f]
  0x1f71	dec    	eax
  0x1f72	mov    	dword ptr [ebx], eax
  0x1f74	dec    	eax
  === BLOCK LINK ===
    0x1f75
=== CODE BLOCK END ===

=== CODE BLOCK ADDRESS 0x1f75 ===
  0x1f75	mov    	eax, ebx
  0x1f77	dec    	eax
  0x1f78	add    	esp, 0x20
  0x1f7b	pop    	ebx
  0x1f7c	ret    	
  === BLOCK LINK ===
    0x1f7d
=== CODE BLOCK END ===

=== CODE BLOCK ADDRESS 0x1f7d ===
  0x1f7d	int3   	
  0x1f7e	int3   	
  0x1f7f	int3   	
  0x1f80	int3   	
  0x1f81	int3   	
  === BLOCK LINK ===
    0x1f82
=== CODE BLOCK END ===

=== CODE BLOCK ADDRESS 0x1f82 ===
  0x1f82	int3   	
  0x1f83	int3   	
  0x1f84	inc    	eax
  0x1f85	push   	ebx
  0x1f86	dec    	eax
  === BLOCK LINK ===
    0x1f87
=== CODE BLOCK END ===

=== CODE BLOCK ADDRESS 0x1f87 ===
  0x1f87	sub    	esp, 0x30
  0x1f8a	dec    	eax
  0x1f8b	mov    	dword ptr [esp + 0x20], 0xfffffffe
  0x1f93	dec    	eax
  0x1f94	mov    	ebx, ecx
  === BLOCK LINK ===
    0x1f96
=== CODE BLOCK END ===

=== CODE BLOCK ADDRESS 0x1f96 ===
  0x1f96	dec    	eax
  0x1f97	lea    	eax, [0x205b]
  0x1f9d	dec    	eax
  0x1f9e	mov    	dword ptr [esp + 0x40], eax
  0x1fa2	inc    	ecx
  === BLOCK LINK ===
    0x1fa3
=== CODE BLOCK END ===

=== CODE BLOCK ADDRESS 0x1fa3 ===
  0x1fa3	mov    	eax, 1
  0x1fa8	dec    	eax
  0x1fa9	lea    	edx, [esp + 0x40]
  0x1fad	call   	0x2694
  === BLOCK LINK ===
    0x1fb2
=== CODE BLOCK END ===

=== CODE BLOCK ADDRESS 0x1fb2 ===
  0x1fb2	nop    	
  0x1fb3	dec    	eax
  0x1fb4	lea    	eax, [0x1046]
  0x1fba	dec    	eax
  0x1fbb	mov    	dword ptr [ebx], eax
  === BLOCK LINK ===
    0x1fbd
=== CODE BLOCK END ===

=== CODE BLOCK ADDRESS 0x1fbd ===
  0x1fbd	dec    	eax
  0x1fbe	mov    	eax, ebx
  0x1fc0	dec    	eax
  0x1fc1	add    	esp, 0x30
  0x1fc4	pop    	ebx
  === BLOCK LINK ===
    0x1fc5
=== CODE BLOCK END ===

=== CODE BLOCK ADDRESS 0x1fc5 ===
  0x1fc5	ret    	
  0x1fc6	int3   	
  0x1fc7	int3   	
  0x1fc8	int3   	
  0x1fc9	int3   	
  === BLOCK LINK ===
    0x1fca
=== CODE BLOCK END ===

=== CODE BLOCK ADDRESS 0x132c ===
=== CODE BLOCK END ===

=== CODE BLOCK ADDRESS 0x1fca ===
  0x1fca	int3   	
  0x1fcb	int3   	
  0x1fcc	inc    	eax
  0x1fcd	push   	ebx
  0x1fce	dec    	eax
  === BLOCK LINK ===
    0x1fcf
=== CODE BLOCK END ===

=== CODE BLOCK ADDRESS 0x1fcf ===
  0x1fcf	sub    	esp, 0x20
  0x1fd2	dec    	eax
  0x1fd3	mov    	ebx, ecx
  0x1fd5	call   	0x26a0
  === BLOCK LINK ===
    0x1fda
=== CODE BLOCK END ===

=== CODE BLOCK ADDRESS 0x1fda ===
  0x1fda	dec    	eax
  0x1fdb	lea    	eax, [0x102f]
  0x1fe1	dec    	eax
  0x1fe2	mov    	dword ptr [ebx], eax
  0x1fe4	dec    	eax
  === BLOCK LINK ===
    0x1fe5
=== CODE BLOCK END ===

=== CODE BLOCK ADDRESS 0x1fe5 ===
  0x1fe5	mov    	eax, ebx
  0x1fe7	dec    	eax
  0x1fe8	add    	esp, 0x20
  0x1feb	pop    	ebx
  0x1fec	ret    	
  === BLOCK LINK ===
    0x1fed
=== CODE BLOCK END ===

=== CODE BLOCK ADDRESS 0x13b2 ===
  0x13b2	dec    	eax
  0x13b3	mov    	ebx, dword ptr [esp + 8]
  0x13b7	ret    	
  === BLOCK LINK ===
    0x13b8
=== CODE BLOCK END ===

=== CODE BLOCK ADDRESS 0x1fed ===
  0x1fed	int3   	
  0x1fee	int3   	
  0x1fef	int3   	
  0x1ff0	int3   	
  0x1ff1	int3   	
  === BLOCK LINK ===
    0x1ff2
=== CODE BLOCK END ===

=== CODE BLOCK ADDRESS 0x1ff2 ===
  0x1ff2	int3   	
  0x1ff3	int3   	
  0x1ff4	dec    	eax
  0x1ff5	mov    	dword ptr [esp + 8], ecx
  0x1ff9	push   	ebx
  === BLOCK LINK ===
    0x1ffa
=== CODE BLOCK END ===

=== CODE BLOCK ADDRESS 0x1ffa ===
  0x1ffa	dec    	eax
  0x1ffb	sub    	esp, 0x20
  0x1ffe	dec    	eax
  0x1fff	mov    	dword ptr [esp + 0x30], edx
  0x2003	dec    	eax
  === BLOCK LINK ===
    0x2004
=== CODE BLOCK END ===

=== CODE BLOCK ADDRESS 0x2004 ===
  0x2004	mov    	ebx, ecx
  0x2006	dec    	eax
  0x2007	lea    	edx, [esp + 0x30]
  0x200b	call   	0x2688
  === BLOCK LINK ===
    0x2010
=== CODE BLOCK END ===

=== CODE BLOCK ADDRESS 0x2010 ===
  0x2010	dec    	eax
  0x2011	lea    	eax, [0xff9]
  0x2017	dec    	eax
  0x2018	mov    	dword ptr [ebx], eax
  0x201a	dec    	eax
  === BLOCK LINK ===
    0x201b
=== CODE BLOCK END ===

=== CODE BLOCK ADDRESS 0x201b ===
  0x201b	mov    	eax, ebx
  0x201d	dec    	eax
  0x201e	add    	esp, 0x20
  0x2021	pop    	ebx
  0x2022	ret    	
  === BLOCK LINK ===
    0x2023
=== CODE BLOCK END ===

=== CODE BLOCK ADDRESS 0x2023 ===
  0x2023	int3   	
  0x2024	int3   	
  0x2025	int3   	
  0x2026	int3   	
  0x2027	int3   	
  === BLOCK LINK ===
    0x2028
=== CODE BLOCK END ===

=== CODE BLOCK ADDRESS 0x2028 ===
  0x2028	int3   	
  0x2029	int3   	
  0x202a	int3   	
  0x202b	int3   	
  0x202c	dec    	eax
  === BLOCK LINK ===
    0x202d
=== CODE BLOCK END ===

=== CODE BLOCK ADDRESS 0x202d ===
  0x202d	lea    	eax, [0xfcd]
  0x2033	dec    	eax
  0x2034	mov    	dword ptr [ecx], eax
  0x2036	jmp    	0x26ac
  === BLOCK LINK ===
    0x203b
=== CODE BLOCK END ===

=== CODE BLOCK ADDRESS 0x203b ===
  0x203b	int3   	
  0x203c	int3   	
  0x203d	int3   	
  0x203e	int3   	
  0x203f	int3   	
  === BLOCK LINK ===
    0x2040
=== CODE BLOCK END ===

=== CODE BLOCK ADDRESS 0x2040 ===
  0x2040	int3   	
  0x2041	int3   	
  0x2042	int3   	
  0x2043	int3   	
  0x2044	jmp    	0x26ac
  === BLOCK LINK ===
    0x2049
=== CODE BLOCK END ===

=== CODE BLOCK ADDRESS 0x2049 ===
  0x2049	int3   	
  0x204a	int3   	
  0x204b	int3   	
  0x204c	int3   	
  0x204d	int3   	
  === BLOCK LINK ===
    0x204e
=== CODE BLOCK END ===

=== CODE BLOCK ADDRESS 0x204e ===
  0x204e	int3   	
  0x204f	int3   	
  0x2050	dec    	eax
  0x2051	mov    	dword ptr [esp + 8], ebx
  0x2055	push   	edi
  === BLOCK LINK ===
    0x2056
=== CODE BLOCK END ===

=== CODE BLOCK ADDRESS 0x2056 ===
  0x2056	dec    	eax
  0x2057	sub    	esp, 0x20
  0x205a	dec    	eax
  0x205b	lea    	eax, [0xf9f]
  0x2061	mov    	ebx, edx
  === BLOCK LINK ===
    0x2063
=== CODE BLOCK END ===

=== CODE BLOCK ADDRESS 0x2063 ===
  0x2063	dec    	eax
  0x2064	mov    	dword ptr [ecx], eax
  0x2066	dec    	eax
  0x2067	mov    	edi, ecx
  0x2069	call   	0x26ac
  === BLOCK LINK ===
    0x206e
=== CODE BLOCK END ===

=== CODE BLOCK ADDRESS 0x206e ===
  0x206e	test   	bl, 1
  0x2071	je     	0x207b
  === BLOCK LINK ===
    0x2073
=== CODE BLOCK END ===

=== CODE BLOCK ADDRESS 0x2073 ===
  0x2073	dec    	eax
  0x2074	mov    	ecx, edi
  0x2076	call   	0x2568
  === BLOCK LINK ===
    0x207b
=== CODE BLOCK END ===

=== CODE BLOCK ADDRESS 0x207b ===
  0x207b	dec    	eax
  0x207c	mov    	ebx, dword ptr [esp + 0x30]
  0x2080	dec    	eax
  0x2081	mov    	eax, edi
  0x2083	dec    	eax
  === BLOCK LINK ===
    0x2084
=== CODE BLOCK END ===

=== CODE BLOCK ADDRESS 0x2084 ===
  0x2084	add    	esp, 0x20
  0x2087	pop    	edi
  0x2088	ret    	
  0x2089	int3   	
  0x208a	int3   	
  === BLOCK LINK ===
    0x208b
=== CODE BLOCK END ===

=== CODE BLOCK ADDRESS 0x208b ===
  0x208b	int3   	
  0x208c	int3   	
  0x208d	int3   	
  0x208e	int3   	
  0x208f	int3   	
  === BLOCK LINK ===
    0x2090
=== CODE BLOCK END ===

=== CODE BLOCK ADDRESS 0x2090 ===
  0x2090	dec    	eax
  0x2091	mov    	dword ptr [esp + 8], ebx
  0x2095	push   	edi
  0x2096	dec    	eax
  0x2097	sub    	esp, 0x20
  === BLOCK LINK ===
    0x209a
=== CODE BLOCK END ===

=== CODE BLOCK ADDRESS 0x209a ===
  0x209a	mov    	ebx, edx
  0x209c	dec    	eax
  0x209d	mov    	edi, ecx
  0x209f	call   	0x26ac
  === BLOCK LINK ===
    0x20a4
=== CODE BLOCK END ===

=== CODE BLOCK ADDRESS 0x20a4 ===
  0x20a4	test   	bl, 1
  0x20a7	je     	0x20b1
  === BLOCK LINK ===
    0x20a9
=== CODE BLOCK END ===

=== CODE BLOCK ADDRESS 0x20a9 ===
  0x20a9	dec    	eax
  0x20aa	mov    	ecx, edi
  0x20ac	call   	0x2568
  === BLOCK LINK ===
    0x20b1
=== CODE BLOCK END ===

=== CODE BLOCK ADDRESS 0x20b1 ===
  0x20b1	dec    	eax
  0x20b2	mov    	ebx, dword ptr [esp + 0x30]
  0x20b6	dec    	eax
  0x20b7	mov    	eax, edi
  0x20b9	dec    	eax
  === BLOCK LINK ===
    0x20ba
=== CODE BLOCK END ===

=== CODE BLOCK ADDRESS 0x20ba ===
  0x20ba	add    	esp, 0x20
  0x20bd	pop    	edi
  0x20be	ret    	
  0x20bf	int3   	
  0x20c0	int3   	
  === BLOCK LINK ===
    0x20c1
=== CODE BLOCK END ===

=== CODE BLOCK ADDRESS 0x20c1 ===
  0x20c1	int3   	
  0x20c2	int3   	
  0x20c3	int3   	
  0x20c4	int3   	
  0x20c5	int3   	
  === BLOCK LINK ===
    0x20c6
=== CODE BLOCK END ===

=== CODE BLOCK ADDRESS 0x20c6 ===
  0x20c6	int3   	
  0x20c7	int3   	
  0x20c8	dec    	eax
  0x20c9	sub    	esp, 0x48
  0x20cc	dec    	eax
  === BLOCK LINK ===
    0x20cd
=== CODE BLOCK END ===

=== CODE BLOCK ADDRESS 0x20cd ===
  0x20cd	lea    	ecx, [esp + 0x20]
  0x20d1	call   	0x1f84
  === BLOCK LINK ===
    0x20d6
=== CODE BLOCK END ===

=== CODE BLOCK ADDRESS 0x20d6 ===
  0x20d6	dec    	eax
  0x20d7	lea    	edx, [0x320b]
  0x20dd	dec    	eax
  0x20de	lea    	ecx, [esp + 0x20]
  0x20e2	call   	0x26cc
  === BLOCK LINK ===
    0x20e7
=== CODE BLOCK END ===

=== CODE BLOCK ADDRESS 0x20e7 ===
  0x20e7	int3   	
  0x20e8	int3   	
  0x20e9	int3   	
  0x20ea	int3   	
  0x20eb	int3   	
  === BLOCK LINK ===
    0x20ec
=== CODE BLOCK END ===

=== CODE BLOCK ADDRESS 0x20ec ===
  0x20ec	int3   	
  0x20ed	int3   	
  0x20ee	int3   	
  0x20ef	int3   	
  0x20f0	dec    	eax
  === BLOCK LINK ===
    0x20f1
=== CODE BLOCK END ===

=== CODE BLOCK ADDRESS 0x20f1 ===
  0x20f1	sub    	esp, 0x48
  0x20f4	dec    	eax
  0x20f5	mov    	edx, ecx
  0x20f7	dec    	eax
  0x20f8	lea    	ecx, [esp + 0x20]
  === BLOCK LINK ===
    0x20fc
=== CODE BLOCK END ===

=== CODE BLOCK ADDRESS 0x20fc ===
  0x20fc	call   	0x1ff4
  === BLOCK LINK ===
    0x2101
=== CODE BLOCK END ===

=== CODE BLOCK ADDRESS 0x2101 ===
  0x2101	dec    	eax
  0x2102	lea    	edx, [0x3290]
  0x2108	dec    	eax
  0x2109	lea    	ecx, [esp + 0x20]
  0x210d	call   	0x26cc
  === BLOCK LINK ===
    0x2112
=== CODE BLOCK END ===

=== CODE BLOCK ADDRESS 0x2112 ===
  0x2112	int3   	
  0x2113	int3   	
  0x2114	int3   	
  0x2115	int3   	
  0x2116	int3   	
  === BLOCK LINK ===
    0x2117
=== CODE BLOCK END ===

=== CODE BLOCK ADDRESS 0x2117 ===
  0x2117	int3   	
  0x2118	int3   	
  0x2119	int3   	
  0x211a	int3   	
  0x211b	int3   	
  === BLOCK LINK ===
    0x211c
=== CODE BLOCK END ===

=== CODE BLOCK ADDRESS 0x211c ===
  0x211c	dec    	eax
  0x211d	sub    	esp, 0x48
  0x2120	dec    	eax
  0x2121	mov    	edx, ecx
  0x2123	dec    	eax
  === BLOCK LINK ===
    0x2124
=== CODE BLOCK END ===

=== CODE BLOCK ADDRESS 0x2124 ===
  0x2124	lea    	ecx, [esp + 0x20]
  0x2128	call   	0x1ff4
  === BLOCK LINK ===
    0x212d
=== CODE BLOCK END ===

=== CODE BLOCK ADDRESS 0x212d ===
  0x212d	dec    	eax
  0x212e	lea    	edx, [0x32cc]
  0x2134	dec    	eax
  0x2135	lea    	ecx, [esp + 0x20]
  0x2139	call   	0x26cc
  === BLOCK LINK ===
    0x213e
=== CODE BLOCK END ===

=== CODE BLOCK ADDRESS 0x213e ===
  0x213e	int3   	
  0x213f	int3   	
  0x2140	int3   	
  0x2141	int3   	
  0x2142	int3   	
  === BLOCK LINK ===
    0x2143
=== CODE BLOCK END ===

=== CODE BLOCK ADDRESS 0x2143 ===
  0x2143	int3   	
  0x2144	int3   	
  0x2145	int3   	
  0x2146	int3   	
  0x2147	int3   	
  === BLOCK LINK ===
    0x2148
=== CODE BLOCK END ===

=== CODE BLOCK ADDRESS 0x2159 ===
  0x2159	cmp    	dword ptr [eax], ecx
  0x215b	je     	0x216b
  === BLOCK LINK ===
    0x215d
=== CODE BLOCK END ===

=== CODE BLOCK ADDRESS 0x215d ===
  0x215d	dec    	eax
  0x215e	add    	eax, 0x10
  0x2161	dec    	eax
  0x2162	cmp    	dword ptr [eax + 8], 0
  0x2166	jne    	0x2159
  === BLOCK LINK ===
    0x2168
=== CODE BLOCK END ===

=== CODE BLOCK ADDRESS 0x2168 ===
  0x2168	xor    	eax, eax
  0x216a	ret    	
  0x216b	dec    	eax
  0x216c	mov    	eax, dword ptr [eax + 8]
  0x216f	ret    	
  === BLOCK LINK ===
    0x2170
=== CODE BLOCK END ===

=== CODE BLOCK ADDRESS 0x1377 ===
  0x1377	dec    	eax
  0x1378	test   	eax, eax
  0x137a	je     	0x1398
  === BLOCK LINK ===
    0x137c
    0x1398
=== CODE BLOCK END ===

=== CODE BLOCK ADDRESS 0x2dd1 ===
=== CODE BLOCK END ===

=== CODE BLOCK ADDRESS 0x2170 ===
  0x2170	int3   	
  0x2171	int3   	
  0x2172	int3   	
  0x2173	int3   	
  0x2174	int3   	
  === BLOCK LINK ===
    0x2175
=== CODE BLOCK END ===

=== CODE BLOCK ADDRESS 0x2175 ===
  0x2175	int3   	
  0x2176	int3   	
  0x2177	int3   	
  0x2178	dec    	eax
  0x2179	cmp    	dword ptr [0xea8], 0
  === BLOCK LINK ===
    0x2180
=== CODE BLOCK END ===

=== CODE BLOCK ADDRESS 0x2180 ===
  0x2180	dec    	eax
  0x2181	lea    	eax, [0xe99]
  0x2187	je     	0x2198
  === BLOCK LINK ===
    0x2189
=== CODE BLOCK END ===

=== CODE BLOCK ADDRESS 0x2189 ===
  0x2189	cmp    	dword ptr [eax], ecx
  0x218b	je     	0x219b
  === BLOCK LINK ===
    0x218d
=== CODE BLOCK END ===

=== CODE BLOCK ADDRESS 0x218d ===
  0x218d	dec    	eax
  0x218e	add    	eax, 0x10
  0x2191	dec    	eax
  0x2192	cmp    	dword ptr [eax + 8], 0
  0x2196	jne    	0x2189
  === BLOCK LINK ===
    0x2198
=== CODE BLOCK END ===

=== CODE BLOCK ADDRESS 0x2198 ===
  0x2198	xor    	eax, eax
  0x219a	ret    	
  0x219b	dec    	eax
  0x219c	mov    	eax, dword ptr [eax + 8]
  0x219f	ret    	
  === BLOCK LINK ===
    0x21a0
=== CODE BLOCK END ===

=== CODE BLOCK ADDRESS 0x21a0 ===
  0x21a0	int3   	
  0x21a1	int3   	
  0x21a2	int3   	
  0x21a3	int3   	
  0x21a4	int3   	
  === BLOCK LINK ===
    0x21a5
=== CODE BLOCK END ===

=== CODE BLOCK ADDRESS 0x21a5 ===
  0x21a5	int3   	
  0x21a6	int3   	
  0x21a7	int3   	
  0x21a8	int3   	
  0x21a9	int3   	
  === BLOCK LINK ===
    0x21aa
=== CODE BLOCK END ===

=== CODE BLOCK ADDRESS 0x21aa ===
  0x21aa	int3   	
  0x21ab	int3   	
  0x21ac	int3   	
  0x21ad	int3   	
  0x21ae	int3   	
  === BLOCK LINK ===
    0x21af
=== CODE BLOCK END ===

=== CODE BLOCK ADDRESS 0x21af ===
  0x21af	int3   	
  0x21b0	dec    	eax
  0x21b1	sub    	esp, 0x28
  0x21b4	mov    	eax, 0x5a4d
  0x21b9	cmp    	word ptr [0xffffde40], ax
  === BLOCK LINK ===
    0x21c0
=== CODE BLOCK END ===

=== CODE BLOCK ADDRESS 0x21c0 ===
  0x21c0	je     	0x21c6
  === BLOCK LINK ===
    0x21c2
=== CODE BLOCK END ===

=== CODE BLOCK ADDRESS 0x21c2 ===
  0x21c2	xor    	eax, eax
  0x21c4	jmp    	0x2219
  === BLOCK LINK ===
    0x21c6
=== CODE BLOCK END ===

=== CODE BLOCK ADDRESS 0x21c6 ===
  0x21c6	dec    	eax
  0x21c7	arpl   	word ptr [0xffffde6f], cx
  0x21cd	dec    	eax
  0x21ce	lea    	eax, [0xffffde2c]
  0x21d4	dec    	eax
  === BLOCK LINK ===
    0x21d5
=== CODE BLOCK END ===

=== CODE BLOCK ADDRESS 0x21d5 ===
  0x21d5	add    	ecx, eax
  0x21d7	cmp    	dword ptr [ecx], 0x4550
  0x21dd	jne    	0x21c2
  === BLOCK LINK ===
    0x21df
=== CODE BLOCK END ===

=== CODE BLOCK ADDRESS 0x21df ===
  0x21df	mov    	eax, 0x10b
  0x21e4	cmp    	word ptr [ecx + 0x18], ax
  0x21e8	je     	0x2208
  === BLOCK LINK ===
    0x21ea
=== CODE BLOCK END ===

=== CODE BLOCK ADDRESS 0x21ea ===
  0x21ea	mov    	eax, 0x20b
  0x21ef	cmp    	word ptr [ecx + 0x18], ax
  0x21f3	jne    	0x21c2
  === BLOCK LINK ===
    0x21f5
=== CODE BLOCK END ===

=== CODE BLOCK ADDRESS 0x21f5 ===
  0x21f5	xor    	eax, eax
  0x21f7	cmp    	dword ptr [ecx + 0x84], 0xe
  0x21fe	jbe    	0x2219
  === BLOCK LINK ===
    0x2200
=== CODE BLOCK END ===

=== CODE BLOCK ADDRESS 0x2200 ===
  0x2200	cmp    	dword ptr [ecx + 0xf8], eax
  0x2206	jmp    	0x2216
  === BLOCK LINK ===
    0x2208
=== CODE BLOCK END ===

=== CODE BLOCK ADDRESS 0x2208 ===
  0x2208	xor    	eax, eax
  0x220a	cmp    	dword ptr [ecx + 0x74], 0xe
  0x220e	jbe    	0x2219
  === BLOCK LINK ===
    0x2210
=== CODE BLOCK END ===

=== CODE BLOCK ADDRESS 0x2210 ===
  0x2210	cmp    	dword ptr [ecx + 0xe8], eax
  0x2216	setne  	al
  0x2219	mov    	ecx, 2
  0x221e	mov    	dword ptr [0x4f1c], eax
  0x2224	call   	0x2808
  === BLOCK LINK ===
    0x2229
=== CODE BLOCK END ===

=== CODE BLOCK ADDRESS 0x2229 ===
  0x2229	mov    	ecx, eax
  0x222b	call   	dword ptr [0x1bf7]
  === BLOCK LINK ===
    0x2231
=== CODE BLOCK END ===

=== CODE BLOCK ADDRESS 0x2231 ===
  0x2231	dec    	eax
  0x2232	mov    	ecx, dword ptr [0x1b78]
  0x2238	dec    	eax
  0x2239	or     	eax, 0xffffffff
  0x223c	dec    	eax
  === BLOCK LINK ===
    0x223d
=== CODE BLOCK END ===

=== CODE BLOCK ADDRESS 0x223d ===
  0x223d	mov    	dword ptr [0x54cd], eax
  0x2243	dec    	eax
  0x2244	mov    	dword ptr [0x54ce], eax
  0x224a	mov    	eax, dword ptr [0x4f04]
  0x2250	mov    	dword ptr [ecx], eax
  === BLOCK LINK ===
    0x2252
=== CODE BLOCK END ===

=== CODE BLOCK ADDRESS 0x2252 ===
  0x2252	dec    	eax
  0x2253	mov    	ecx, dword ptr [0x1b5f]
  0x2259	mov    	eax, dword ptr [0x4ee9]
  0x225f	mov    	dword ptr [ecx], eax
  0x2261	call   	0x2860
  === BLOCK LINK ===
    0x2266
=== CODE BLOCK END ===

=== CODE BLOCK ADDRESS 0x2266 ===
  0x2266	cmp    	dword ptr [0x4e73], 0
  0x226d	jne    	0x227c
  === BLOCK LINK ===
    0x226f
=== CODE BLOCK END ===

=== CODE BLOCK ADDRESS 0x226f ===
  0x226f	dec    	eax
  0x2270	lea    	ecx, [0x5ea]
  0x2276	call   	dword ptr [0x1b64]
  === BLOCK LINK ===
    0x227c
=== CODE BLOCK END ===

=== CODE BLOCK ADDRESS 0x227c ===
  0x227c	xor    	eax, eax
  0x227e	dec    	eax
  0x227f	add    	esp, 0x28
  0x2282	ret    	
  0x2283	int3   	
  === BLOCK LINK ===
    0x2284
=== CODE BLOCK END ===

=== CODE BLOCK ADDRESS 0x1ea4 ===
  0x1ea4	dec    	esp
  0x1ea5	mov    	dword ptr [esp + 0x20], ecx
  === BLOCK LINK ===
    0x1ea9
=== CODE BLOCK END ===

=== CODE BLOCK ADDRESS 0x2284 ===
  0x2284	int3   	
  0x2285	int3   	
  0x2286	int3   	
  0x2287	int3   	
  0x2288	int3   	
  === BLOCK LINK ===
    0x2289
=== CODE BLOCK END ===

=== CODE BLOCK ADDRESS 0x2289 ===
  0x2289	int3   	
  0x228a	int3   	
  0x228b	int3   	
  0x228c	int3   	
  0x228d	int3   	
  === BLOCK LINK ===
    0x228e
=== CODE BLOCK END ===

=== CODE BLOCK ADDRESS 0x228e ===
  0x228e	int3   	
  0x228f	int3   	
  0x2290	dec    	eax
  0x2291	sub    	esp, 0x38
  0x2294	mov    	eax, dword ptr [0x4eb6]
  === BLOCK LINK ===
    0x229a
=== CODE BLOCK END ===

=== CODE BLOCK ADDRESS 0x229a ===
  0x229a	dec    	esp
  0x229b	lea    	eax, [0x4e97]
  0x22a1	inc    	esp
  0x22a2	mov    	ecx, dword ptr [0x4ea4]
  0x22a8	dec    	eax
  === BLOCK LINK ===
    0x22a9
=== CODE BLOCK END ===

=== CODE BLOCK ADDRESS 0x22a9 ===
  0x22a9	lea    	edx, [0x4e81]
  0x22af	mov    	dword ptr [0x4e8f], eax
  0x22b5	dec    	eax
  0x22b6	lea    	ecx, [0x4e6c]
  0x22bc	dec    	eax
  === BLOCK LINK ===
    0x22bd
=== CODE BLOCK END ===

=== CODE BLOCK ADDRESS 0x22bd ===
  0x22bd	lea    	eax, [0x4e81]
  0x22c3	dec    	eax
  0x22c4	mov    	dword ptr [esp + 0x20], eax
  0x22c8	call   	dword ptr [0x1bda]
  === BLOCK LINK ===
    0x22ce
=== CODE BLOCK END ===

=== CODE BLOCK ADDRESS 0x22ce ===
  0x22ce	mov    	dword ptr [0x4e58], eax
  0x22d4	dec    	eax
  0x22d5	add    	esp, 0x38
  0x22d8	ret    	
  0x22d9	int3   	
  === BLOCK LINK ===
    0x22da
=== CODE BLOCK END ===

=== CODE BLOCK ADDRESS 0x1668 ===
  0x1668	xor    	eax, eax
  0x166a	dec    	eax
  0x166b	mov    	ecx, dword ptr [ebp + 0x210]
  0x1671	dec    	eax
  === BLOCK LINK ===
    0x1672
=== CODE BLOCK END ===

=== CODE BLOCK ADDRESS 0x22da ===
  0x22da	int3   	
  0x22db	int3   	
  0x22dc	int3   	
  0x22dd	int3   	
  0x22de	int3   	
  === BLOCK LINK ===
    0x22df
=== CODE BLOCK END ===

=== CODE BLOCK ADDRESS 0x22df ===
  0x22df	int3   	
  0x22e0	dec    	eax
  0x22e1	mov    	eax, esp
  0x22e3	dec    	eax
  0x22e4	mov    	dword ptr [eax + 8], ebx
  === BLOCK LINK ===
    0x22e7
=== CODE BLOCK END ===

=== CODE BLOCK ADDRESS 0x22e7 ===
  0x22e7	dec    	eax
  0x22e8	mov    	dword ptr [eax + 0x10], esi
  0x22eb	dec    	eax
  0x22ec	mov    	dword ptr [eax + 0x18], edi
  0x22ef	dec    	esp
  === BLOCK LINK ===
    0x22f0
=== CODE BLOCK END ===

=== CODE BLOCK ADDRESS 0x22f0 ===
  0x22f0	mov    	dword ptr [eax + 0x20], esi
  0x22f3	inc    	ecx
  0x22f4	push   	edi
  0x22f5	dec    	eax
  0x22f6	sub    	esp, 0xb0
  === BLOCK LINK ===
    0x22fc
=== CODE BLOCK END ===

=== CODE BLOCK ADDRESS 0x22fc ===
  0x22fc	inc    	ebp
  0x22fd	xor    	esi, esi
  0x22ff	inc    	esp
  0x2300	mov    	dword ptr [esp + 0x20], esi
  0x2304	dec    	eax
  === BLOCK LINK ===
    0x2305
=== CODE BLOCK END ===

=== CODE BLOCK ADDRESS 0x2305 ===
  0x2305	lea    	ecx, [eax - 0x78]
  0x2308	call   	dword ptr [0x19b2]
  === BLOCK LINK ===
    0x230e
=== CODE BLOCK END ===

=== CODE BLOCK ADDRESS 0x230e ===
  0x230e	nop    	
  0x230f	dec    	eax
  0x2311	mov    	eax, dword ptr [0x30]
  0x2318	dec    	eax
  0x2319	mov    	ebx, dword ptr [eax + 8]
  === BLOCK LINK ===
    0x231c
=== CODE BLOCK END ===

=== CODE BLOCK ADDRESS 0x231c ===
  0x231c	inc    	ecx
  0x231d	mov    	esi, esi
  0x231f	xor    	eax, eax
  0x2321	.byte  	0xf0
  0x2322	dec    	eax
  === BLOCK LINK ===
    0x2323
=== CODE BLOCK END ===

=== CODE BLOCK ADDRESS 0x2323 ===
  0x2323	cmpxchg  	dword ptr [0x53d6], ebx
  0x232a	je     	0x2347
  === BLOCK LINK ===
    0x232c
=== CODE BLOCK END ===

=== CODE BLOCK ADDRESS 0x232c ===
  0x232c	dec    	eax
  0x232d	cmp    	eax, ebx
  0x232f	jne    	0x233a
  === BLOCK LINK ===
    0x2331
=== CODE BLOCK END ===

=== CODE BLOCK ADDRESS 0x2331 ===
  0x2331	mov    	ebx, 1
  0x2336	mov    	esi, ebx
  0x2338	jmp    	0x234c
  === BLOCK LINK ===
    0x233a
=== CODE BLOCK END ===

=== CODE BLOCK ADDRESS 0x233a ===
  0x233a	mov    	ecx, 0x3e8
  0x233f	call   	dword ptr [0x19fb]
  === BLOCK LINK ===
    0x2345
=== CODE BLOCK END ===

=== CODE BLOCK ADDRESS 0x2345 ===
  0x2345	jmp    	0x231f
  === BLOCK LINK ===
    0x2347
=== CODE BLOCK END ===

=== CODE BLOCK ADDRESS 0x2347 ===
  0x2347	mov    	ebx, 1
  0x234c	mov    	eax, dword ptr [0x53b6]
  0x2352	cmp    	eax, ebx
  0x2354	jne    	0x2364
  === BLOCK LINK ===
    0x2356
=== CODE BLOCK END ===

=== CODE BLOCK ADDRESS 0x2356 ===
  0x2356	mov    	edi, 0x1f
  0x235b	mov    	ecx, edi
  0x235d	call   	0x2853
  === BLOCK LINK ===
    0x2362
=== CODE BLOCK END ===

=== CODE BLOCK ADDRESS 0x2362 ===
  0x2362	jmp    	0x23d0
  === BLOCK LINK ===
    0x2364
=== CODE BLOCK END ===

=== CODE BLOCK ADDRESS 0x2364 ===
  0x2364	mov    	eax, dword ptr [0x539e]
  0x236a	test   	eax, eax
  0x236c	jne    	0x23c5
  === BLOCK LINK ===
    0x236e
=== CODE BLOCK END ===

=== CODE BLOCK ADDRESS 0x236e ===
  0x236e	mov    	dword ptr [0x5394], ebx
  0x2374	dec    	esp
  0x2375	lea    	edi, [0x1bb5]
  0x237b	dec    	eax
  0x237c	lea    	edi, [0x1b96]
  === BLOCK LINK ===
    0x2382
=== CODE BLOCK END ===

=== CODE BLOCK ADDRESS 0x2382 ===
  0x2382	dec    	eax
  0x2383	mov    	dword ptr [esp + 0x30], edi
  0x2387	inc    	ecx
  0x2388	mov    	eax, esi
  0x238a	mov    	dword ptr [esp + 0x24], eax
  === BLOCK LINK ===
    0x238e
=== CODE BLOCK END ===

=== CODE BLOCK ADDRESS 0x238e ===
  0x238e	dec    	ecx
  0x238f	cmp    	edi, edi
  0x2391	jae    	0x23b7
  === BLOCK LINK ===
    0x2393
=== CODE BLOCK END ===

=== CODE BLOCK ADDRESS 0x2393 ===
  0x2393	test   	eax, eax
  0x2395	jne    	0x23bb
  === BLOCK LINK ===
    0x2397
=== CODE BLOCK END ===

=== CODE BLOCK ADDRESS 0x2397 ===
  0x2397	dec    	esp
  0x2398	cmp    	dword ptr [edi], esi
  0x239a	je     	0x23ac
  === BLOCK LINK ===
    0x239c
=== CODE BLOCK END ===

=== CODE BLOCK ADDRESS 0x239c ===
  0x239c	dec    	eax
  0x239d	mov    	eax, dword ptr [edi]
  0x239f	dec    	eax
  0x23a0	mov    	ecx, dword ptr [0x1b22]
  0x23a6	call   	ecx
  === BLOCK LINK ===
    0x23a8
=== CODE BLOCK END ===

=== CODE BLOCK ADDRESS 0x23a8 ===
  0x23a8	mov    	dword ptr [esp + 0x24], eax
  0x23ac	dec    	eax
  0x23ad	add    	edi, 8
  0x23b0	dec    	eax
  0x23b1	mov    	dword ptr [esp + 0x30], edi
  === BLOCK LINK ===
    0x23b5
=== CODE BLOCK END ===

=== CODE BLOCK ADDRESS 0x23b5 ===
  0x23b5	jmp    	0x238e
  === BLOCK LINK ===
    0x23b7
=== CODE BLOCK END ===

=== CODE BLOCK ADDRESS 0x23b7 ===
  0x23b7	test   	eax, eax
  0x23b9	je     	0x23cb
  === BLOCK LINK ===
    0x23bb
=== CODE BLOCK END ===

=== CODE BLOCK ADDRESS 0x23bb ===
  0x23bb	mov    	eax, 0xff
  0x23c0	jmp    	0x2526
  === BLOCK LINK ===
    0x23c5
=== CODE BLOCK END ===

=== CODE BLOCK ADDRESS 0x23c5 ===
  0x23c5	mov    	dword ptr [0x4d55], ebx
  0x23cb	mov    	edi, 0x1f
  0x23d0	mov    	eax, dword ptr [0x5332]
  0x23d6	cmp    	eax, ebx
  0x23d8	jne    	0x23f7
  === BLOCK LINK ===
    0x23da
=== CODE BLOCK END ===

=== CODE BLOCK ADDRESS 0x23da ===
  0x23da	dec    	eax
  0x23db	lea    	edx, [0x1b2f]
  0x23e1	dec    	eax
  0x23e2	lea    	ecx, [0x1b00]
  0x23e8	call   	0x2a2e
  === BLOCK LINK ===
    0x23ed
=== CODE BLOCK END ===

=== CODE BLOCK ADDRESS 0x23ed ===
  0x23ed	mov    	dword ptr [0x5311], 2
  0x23f7	test   	esi, esi
  0x23f9	jne    	0x2405
  === BLOCK LINK ===
    0x23fb
=== CODE BLOCK END ===

=== CODE BLOCK ADDRESS 0x23fb ===
  0x23fb	dec    	ecx
  0x23fc	mov    	eax, esi
  0x23fe	dec    	eax
  0x23ff	xchg   	dword ptr [0x52fb], eax
  0x2405	dec    	esp
  === BLOCK LINK ===
    0x2406
=== CODE BLOCK END ===

=== CODE BLOCK ADDRESS 0x2406 ===
  0x2406	cmp    	dword ptr [0x5314], esi
  0x240c	je     	0x2438
  === BLOCK LINK ===
    0x240e
=== CODE BLOCK END ===

=== CODE BLOCK ADDRESS 0x240e ===
  0x240e	dec    	eax
  0x240f	lea    	ecx, [0x530b]
  0x2415	call   	0x28c0
  === BLOCK LINK ===
    0x241a
=== CODE BLOCK END ===

=== CODE BLOCK ADDRESS 0x241a ===
  0x241a	test   	eax, eax
  0x241c	je     	0x2438
  === BLOCK LINK ===
    0x241e
=== CODE BLOCK END ===

=== CODE BLOCK ADDRESS 0x241e ===
  0x241e	inc    	ebp
  0x241f	xor    	eax, eax
  0x2421	inc    	ecx
  0x2422	lea    	edx, [eax + 2]
  0x2425	xor    	ecx, ecx
  === BLOCK LINK ===
    0x2427
=== CODE BLOCK END ===

=== CODE BLOCK ADDRESS 0x2427 ===
  0x2427	dec    	eax
  0x2428	mov    	eax, dword ptr [0x52f2]
  0x242e	dec    	esp
  0x242f	mov    	ecx, dword ptr [0x1a93]
  0x2435	inc    	ecx
  === BLOCK LINK ===
    0x2436
=== CODE BLOCK END ===

=== CODE BLOCK ADDRESS 0x2436 ===
  0x2436	call   	ecx
  === BLOCK LINK ===
    0x2438
=== CODE BLOCK END ===

=== CODE BLOCK ADDRESS 0x2438 ===
  0x2438	dec    	eax
  0x2439	mov    	eax, dword ptr [0x1969]
  0x243f	dec    	eax
  0x2440	mov    	ecx, dword ptr [eax]
  0x2442	dec    	eax
  === BLOCK LINK ===
    0x2443
=== CODE BLOCK END ===

=== CODE BLOCK ADDRESS 0x2443 ===
  0x2443	test   	ecx, ecx
  0x2445	jne    	0x2451
  === BLOCK LINK ===
    0x2447
=== CODE BLOCK END ===

=== CODE BLOCK ADDRESS 0x2447 ===
  0x2447	mov    	eax, 0xff
  0x244c	jmp    	0x2526
  === BLOCK LINK ===
    0x2451
=== CODE BLOCK END ===

=== CODE BLOCK ADDRESS 0x2451 ===
  0x2451	dec    	eax
  0x2452	mov    	dword ptr [esp + 0x28], ecx
  0x2456	mov    	edx, dword ptr [esp + 0x20]
  0x245a	movzx  	eax, word ptr [ecx]
  0x245d	cmp    	ax, 0x20
  === BLOCK LINK ===
    0x2461
=== CODE BLOCK END ===

=== CODE BLOCK ADDRESS 0x2461 ===
  0x2461	ja     	0x24d7
  === BLOCK LINK ===
    0x2463
=== CODE BLOCK END ===

=== CODE BLOCK ADDRESS 0x2463 ===
  0x2463	test   	ax, ax
  0x2466	je     	0x246c
  === BLOCK LINK ===
    0x2468
=== CODE BLOCK END ===

=== CODE BLOCK ADDRESS 0x2468 ===
  0x2468	test   	edx, edx
  0x246a	jne    	0x24d7
  === BLOCK LINK ===
    0x246c
=== CODE BLOCK END ===

=== CODE BLOCK ADDRESS 0x246c ===
  0x246c	sub    	ax, bx
  0x246f	cmp    	ax, di
  0x2472	ja     	0x2482
  === BLOCK LINK ===
    0x2474
=== CODE BLOCK END ===

=== CODE BLOCK ADDRESS 0x2474 ===
  0x2474	dec    	eax
  0x2475	add    	ecx, 2
  0x2478	dec    	eax
  0x2479	mov    	dword ptr [esp + 0x28], ecx
  0x247d	movzx  	eax, word ptr [ecx]
  === BLOCK LINK ===
    0x2480
=== CODE BLOCK END ===

=== CODE BLOCK ADDRESS 0x2480 ===
  0x2480	jmp    	0x246c
  === BLOCK LINK ===
    0x2482
=== CODE BLOCK END ===

=== CODE BLOCK ADDRESS 0x2482 ===
  0x2482	test   	byte ptr [esp + 0x7c], bl
  0x2486	movzx  	eax, word ptr [esp + 0x80]
  0x248e	inc    	ecx
  0x248f	mov    	ecx, 0xa
  0x2494	inc    	esp
  === BLOCK LINK ===
    0x2495
=== CODE BLOCK END ===

=== CODE BLOCK ADDRESS 0x2495 ===
  0x2495	cmovne  	ecx, eax
  0x2498	dec    	esp
  0x2499	mov    	eax, ecx
  0x249b	xor    	edx, edx
  0x249d	dec    	eax
  === BLOCK LINK ===
    0x249e
=== CODE BLOCK END ===

=== CODE BLOCK ADDRESS 0x249e ===
  0x249e	lea    	ecx, [0xffffdb5c]
  0x24a4	call   	0x13c0
  === BLOCK LINK ===
    0x24a9
=== CODE BLOCK END ===

=== CODE BLOCK ADDRESS 0x24a9 ===
  0x24a9	mov    	dword ptr [0x4c6d], eax
  0x24af	inc    	esp
  0x24b0	cmp    	dword ptr [0x4c8a], esi
  0x24b6	jne    	0x24c0
  === BLOCK LINK ===
    0x24b8
=== CODE BLOCK END ===

=== CODE BLOCK ADDRESS 0x24b8 ===
  0x24b8	mov    	ecx, eax
  0x24ba	call   	dword ptr [0x1960]
  === BLOCK LINK ===
    0x24c0
=== CODE BLOCK END ===

=== CODE BLOCK ADDRESS 0x24c0 ===
  0x24c0	inc    	esp
  0x24c1	cmp    	dword ptr [0x4c59], esi
  0x24c7	jne    	0x24d5
  === BLOCK LINK ===
    0x24c9
=== CODE BLOCK END ===

=== CODE BLOCK ADDRESS 0x24c9 ===
  0x24c9	call   	dword ptr [0x1921]
  === BLOCK LINK ===
    0x24cf
=== CODE BLOCK END ===

=== CODE BLOCK ADDRESS 0x24cf ===
  0x24cf	mov    	eax, dword ptr [0x4c47]
  0x24d5	jmp    	0x2526
  === BLOCK LINK ===
    0x24d7
=== CODE BLOCK END ===

=== CODE BLOCK ADDRESS 0x24d7 ===
  0x24d7	cmp    	ax, 0x22
  0x24db	jne    	0x24eb
  === BLOCK LINK ===
    0x24dd
=== CODE BLOCK END ===

=== CODE BLOCK ADDRESS 0x24dd ===
  0x24dd	inc    	ecx
  0x24de	mov    	eax, esi
  0x24e0	test   	edx, edx
  0x24e2	sete   	al
  0x24e5	mov    	edx, eax
  === BLOCK LINK ===
    0x24e7
=== CODE BLOCK END ===

=== CODE BLOCK ADDRESS 0x24e7 ===
  0x24e7	mov    	dword ptr [esp + 0x20], eax
  0x24eb	dec    	eax
  0x24ec	add    	ecx, 2
  0x24ef	dec    	eax
  0x24f0	mov    	dword ptr [esp + 0x28], ecx
  === BLOCK LINK ===
    0x24f4
=== CODE BLOCK END ===

=== CODE BLOCK ADDRESS 0x24f4 ===
  0x24f4	jmp    	0x245a
  === BLOCK LINK ===
    0x24f9
=== CODE BLOCK END ===

=== CODE BLOCK ADDRESS 0x24f9 ===
  0x24f9	mov    	dword ptr [0x4c1d], eax
  0x24ff	cmp    	dword ptr [0x4c3a], 0
  0x2506	jne    	0x2511
  === BLOCK LINK ===
    0x2508
=== CODE BLOCK END ===

=== CODE BLOCK ADDRESS 0x2508 ===
  0x2508	mov    	ecx, eax
  0x250a	call   	dword ptr [0x18e8]
  === BLOCK LINK ===
    0x2510
=== CODE BLOCK END ===

=== CODE BLOCK ADDRESS 0x2510 ===
  0x2510	int3   	
  0x2511	cmp    	dword ptr [0x4c08], 0
  0x2518	jne    	0x2526
  === BLOCK LINK ===
    0x251a
=== CODE BLOCK END ===

=== CODE BLOCK ADDRESS 0x251a ===
  0x251a	call   	dword ptr [0x18d0]
  === BLOCK LINK ===
    0x2520
=== CODE BLOCK END ===

=== CODE BLOCK ADDRESS 0x2520 ===
  0x2520	mov    	eax, dword ptr [0x4bf6]
  0x2526	dec    	esp
  0x2527	lea    	ebx, [esp + 0xb0]
  0x252e	dec    	ecx
  0x252f	mov    	ebx, dword ptr [ebx + 0x10]
  === BLOCK LINK ===
    0x2532
=== CODE BLOCK END ===

=== CODE BLOCK ADDRESS 0x2532 ===
  0x2532	dec    	ecx
  0x2533	mov    	esi, dword ptr [ebx + 0x18]
  0x2536	dec    	ecx
  0x2537	mov    	edi, dword ptr [ebx + 0x20]
  0x253a	dec    	ebp
  === BLOCK LINK ===
    0x253b
=== CODE BLOCK END ===

=== CODE BLOCK ADDRESS 0x253b ===
  0x253b	mov    	esi, dword ptr [ebx + 0x28]
  0x253e	dec    	ecx
  0x253f	mov    	esp, ebx
  0x2541	inc    	ecx
  0x2542	pop    	edi
  === BLOCK LINK ===
    0x2543
=== CODE BLOCK END ===

=== CODE BLOCK ADDRESS 0x2543 ===
  0x2543	ret    	
  0x2544	int3   	
  0x2545	int3   	
  0x2546	int3   	
  0x2547	int3   	
  === BLOCK LINK ===
    0x2548
=== CODE BLOCK END ===

=== CODE BLOCK ADDRESS 0x2548 ===
  0x2548	int3   	
  0x2549	int3   	
  0x254a	int3   	
  0x254b	int3   	
  0x254c	int3   	
  === BLOCK LINK ===
    0x254d
=== CODE BLOCK END ===

=== CODE BLOCK ADDRESS 0x254d ===
  0x254d	int3   	
  0x254e	int3   	
  0x254f	int3   	
  0x2550	dec    	eax
  0x2551	sub    	esp, 0x28
  === BLOCK LINK ===
    0x2554
=== CODE BLOCK END ===

=== CODE BLOCK ADDRESS 0x2554 ===
  0x2554	call   	0x2954
  === BLOCK LINK ===
    0x2559
=== CODE BLOCK END ===

=== CODE BLOCK ADDRESS 0x2559 ===
  0x2559	dec    	eax
  0x255a	add    	esp, 0x28
  0x255d	jmp    	0x22e0
  === BLOCK LINK ===
    0x2562
=== CODE BLOCK END ===

=== CODE BLOCK ADDRESS 0x2562 ===
  0x2562	int3   	
  0x2563	int3   	
  0x2564	int3   	
  0x2565	int3   	
  0x2566	int3   	
  === BLOCK LINK ===
    0x2567
=== CODE BLOCK END ===

=== CODE BLOCK ADDRESS 0x2567 ===
  0x2567	int3   	
  0x2568	jmp    	dword ptr [0x18c2]
  === BLOCK LINK ===
    0x256e
=== CODE BLOCK END ===

=== CODE BLOCK ADDRESS 0x256e ===
  0x256e	int3   	
  0x256f	int3   	
  0x2570	int3   	
  0x2571	int3   	
  0x2572	int3   	
  === BLOCK LINK ===
    0x2573
=== CODE BLOCK END ===

=== CODE BLOCK ADDRESS 0x2573 ===
  0x2573	int3   	
  0x2574	jmp    	dword ptr [0x1926]
  === BLOCK LINK ===
    0x257a
=== CODE BLOCK END ===

=== CODE BLOCK ADDRESS 0x257a ===
  0x257a	int3   	
  0x257b	int3   	
  0x257c	int3   	
  0x257d	int3   	
  0x257e	int3   	
  === BLOCK LINK ===
    0x257f
=== CODE BLOCK END ===

=== CODE BLOCK ADDRESS 0x257f ===
  0x257f	int3   	
  0x2580	int3   	
  0x2581	int3   	
  0x2582	int3   	
  0x2583	int3   	
  === BLOCK LINK ===
    0x2584
=== CODE BLOCK END ===

=== CODE BLOCK ADDRESS 0x2584 ===
  0x2584	int3   	
  0x2585	int3   	
  0x2586	nop    	word ptr [eax + eax]
  === BLOCK LINK ===
    0x2590
=== CODE BLOCK END ===

=== CODE BLOCK ADDRESS 0x2597 ===
  0x2597	jne    	0x25a9
  === BLOCK LINK ===
    0x2599
=== CODE BLOCK END ===

=== CODE BLOCK ADDRESS 0x2599 ===
  0x2599	dec    	eax
  0x259a	rol    	ecx, 0x10
  0x259d	test   	cx, 0xffff
  0x25a2	jne    	0x25a5
  === BLOCK LINK ===
    0x25a4
=== CODE BLOCK END ===

=== CODE BLOCK ADDRESS 0x25a4 ===
  0x25a4	ret    	
  0x25a5	dec    	eax
  0x25a6	ror    	ecx, 0x10
  0x25a9	jmp    	0x2a90
  === BLOCK LINK ===
    0x25ae
=== CODE BLOCK END ===

=== CODE BLOCK ADDRESS 0x25ae ===
  0x25ae	int3   	
  0x25af	int3   	
  0x25b0	int3   	
  0x25b1	int3   	
  0x25b2	int3   	
  === BLOCK LINK ===
    0x25b3
=== CODE BLOCK END ===

=== CODE BLOCK ADDRESS 0x25b3 ===
  0x25b3	int3   	
  0x25b4	inc    	eax
  0x25b5	push   	ebx
  0x25b6	dec    	eax
  0x25b7	sub    	esp, 0x20
  === BLOCK LINK ===
    0x25ba
=== CODE BLOCK END ===

=== CODE BLOCK ADDRESS 0x25ba ===
  0x25ba	dec    	eax
  0x25bb	mov    	ebx, ecx
  0x25bd	dec    	eax
  0x25be	mov    	eax, dword ptr [0x5154]
  0x25c4	dec    	eax
  === BLOCK LINK ===
    0x25c5
=== CODE BLOCK END ===

=== CODE BLOCK ADDRESS 0x25c5 ===
  0x25c5	mov    	dword ptr [esp + 0x38], eax
  0x25c9	dec    	eax
  0x25ca	cmp    	eax, -1
  0x25cd	jne    	0x25e2
  === BLOCK LINK ===
    0x25cf
=== CODE BLOCK END ===

=== CODE BLOCK ADDRESS 0x25cf ===
  0x25cf	dec    	eax
  0x25d0	mov    	eax, dword ptr [0x1882]
  0x25d6	call   	dword ptr [0x18ec]
  === BLOCK LINK ===
    0x25dc
=== CODE BLOCK END ===

=== CODE BLOCK ADDRESS 0x25dc ===
  0x25dc	dec    	eax
  0x25dd	add    	esp, 0x20
  0x25e0	pop    	ebx
  0x25e1	ret    	
  0x25e2	mov    	ecx, 8
  === BLOCK LINK ===
    0x25e7
=== CODE BLOCK END ===

=== CODE BLOCK ADDRESS 0x162e ===
  0x162e	dec    	eax
  0x162f	mov    	ecx, dword ptr [esp + 0x78]
  0x1633	dec    	eax
  0x1634	test   	ecx, ecx
  === BLOCK LINK ===
    0x1636
=== CODE BLOCK END ===

=== CODE BLOCK ADDRESS 0x25e7 ===
  0x25e7	call   	0x2c07
  === BLOCK LINK ===
    0x25ec
=== CODE BLOCK END ===

=== CODE BLOCK ADDRESS 0x25ec ===
  0x25ec	nop    	
  0x25ed	dec    	eax
  0x25ee	mov    	eax, dword ptr [0x5124]
  0x25f4	dec    	eax
  0x25f5	mov    	dword ptr [esp + 0x38], eax
  === BLOCK LINK ===
    0x25f9
=== CODE BLOCK END ===

=== CODE BLOCK ADDRESS 0x25f9 ===
  0x25f9	dec    	eax
  0x25fa	mov    	eax, dword ptr [0x5110]
  0x2600	dec    	eax
  0x2601	mov    	dword ptr [esp + 0x40], eax
  0x2605	dec    	esp
  === BLOCK LINK ===
    0x2606
=== CODE BLOCK END ===

=== CODE BLOCK ADDRESS 0x2606 ===
  0x2606	lea    	eax, [esp + 0x40]
  0x260a	dec    	eax
  0x260b	lea    	edx, [esp + 0x38]
  0x260f	dec    	eax
  0x2610	mov    	ecx, ebx
  === BLOCK LINK ===
    0x2612
=== CODE BLOCK END ===

=== CODE BLOCK ADDRESS 0x2612 ===
  0x2612	call   	0x2c1f
  === BLOCK LINK ===
    0x2617
=== CODE BLOCK END ===

=== CODE BLOCK ADDRESS 0x2617 ===
  0x2617	dec    	eax
  0x2618	mov    	ebx, eax
  0x261a	dec    	eax
  0x261b	mov    	edx, dword ptr [esp + 0x38]
  0x261f	dec    	eax
  === BLOCK LINK ===
    0x2620
=== CODE BLOCK END ===

=== CODE BLOCK ADDRESS 0x2620 ===
  0x2620	mov    	dword ptr [0x50f2], edx
  0x2626	dec    	eax
  0x2627	mov    	edx, dword ptr [esp + 0x40]
  0x262b	dec    	eax
  0x262c	mov    	dword ptr [0x50de], edx
  === BLOCK LINK ===
    0x2632
=== CODE BLOCK END ===

=== CODE BLOCK ADDRESS 0x2632 ===
  0x2632	mov    	ecx, 8
  0x2637	call   	0x2c13
  === BLOCK LINK ===
    0x263c
=== CODE BLOCK END ===

=== CODE BLOCK ADDRESS 0x263c ===
  0x263c	dec    	eax
  0x263d	mov    	eax, ebx
  0x263f	jmp    	0x25dc
  === BLOCK LINK ===
    0x2641
=== CODE BLOCK END ===

=== CODE BLOCK ADDRESS 0x2641 ===
  0x2641	int3   	
  0x2642	int3   	
  0x2643	int3   	
  0x2644	int3   	
  0x2645	int3   	
  === BLOCK LINK ===
    0x2646
=== CODE BLOCK END ===

=== CODE BLOCK ADDRESS 0x2646 ===
  0x2646	int3   	
  0x2647	int3   	
  0x2648	dec    	eax
  0x2649	sub    	esp, 0x28
  0x264c	call   	0x25b4
  === BLOCK LINK ===
    0x2651
=== CODE BLOCK END ===

=== CODE BLOCK ADDRESS 0x2651 ===
  0x2651	dec    	eax
  0x2652	neg    	eax
  0x2654	sbb    	eax, eax
  0x2656	neg    	eax
  0x2658	dec    	eax
  === BLOCK LINK ===
    0x265a
=== CODE BLOCK END ===

=== CODE BLOCK ADDRESS 0x265a ===
  0x265a	dec    	eax
  0x265b	add    	esp, 0x28
  0x265e	ret    	
  0x265f	int3   	
  0x2660	int3   	
  === BLOCK LINK ===
    0x2661
=== CODE BLOCK END ===

=== CODE BLOCK ADDRESS 0x2661 ===
  0x2661	int3   	
  0x2662	int3   	
  0x2663	int3   	
  0x2664	int3   	
  0x2665	int3   	
  === BLOCK LINK ===
    0x2666
=== CODE BLOCK END ===

=== CODE BLOCK ADDRESS 0x2666 ===
  0x2666	int3   	
  0x2667	int3   	
  0x2668	int3   	
  0x2669	int3   	
  0x266a	int3   	
  === BLOCK LINK ===
    0x266b
=== CODE BLOCK END ===

=== CODE BLOCK ADDRESS 0x266b ===
  0x266b	int3   	
  0x266c	int3   	
  0x266d	int3   	
  0x266e	int3   	
  0x266f	int3   	
  === BLOCK LINK ===
    0x2670
=== CODE BLOCK END ===

=== CODE BLOCK ADDRESS 0x2670 ===
  0x2670	jmp    	dword ptr [0x181a]
  === BLOCK LINK ===
    0x2676
=== CODE BLOCK END ===

=== CODE BLOCK ADDRESS 0x2676 ===
  0x2676	int3   	
  0x2677	int3   	
  0x2678	int3   	
  0x2679	int3   	
  0x267a	int3   	
  === BLOCK LINK ===
    0x267b
=== CODE BLOCK END ===

=== CODE BLOCK ADDRESS 0x267b ===
  0x267b	int3   	
  0x267c	jmp    	dword ptr [0x17fe]
  === BLOCK LINK ===
    0x2682
=== CODE BLOCK END ===

=== CODE BLOCK ADDRESS 0x2682 ===
  0x2682	int3   	
  0x2683	int3   	
  0x2684	int3   	
  0x2685	int3   	
  0x2686	int3   	
  === BLOCK LINK ===
    0x2687
=== CODE BLOCK END ===

=== CODE BLOCK ADDRESS 0x2687 ===
  0x2687	int3   	
  0x2688	jmp    	dword ptr [0x178a]
  === BLOCK LINK ===
    0x268e
=== CODE BLOCK END ===

=== CODE BLOCK ADDRESS 0x268e ===
  0x268e	int3   	
  0x268f	int3   	
  0x2690	int3   	
  0x2691	int3   	
  0x2692	int3   	
  === BLOCK LINK ===
    0x2693
=== CODE BLOCK END ===

=== CODE BLOCK ADDRESS 0x2693 ===
  0x2693	int3   	
  0x2694	jmp    	dword ptr [0x174e]
  === BLOCK LINK ===
    0x269a
=== CODE BLOCK END ===

=== CODE BLOCK ADDRESS 0x269a ===
  0x269a	int3   	
  0x269b	int3   	
  0x269c	int3   	
  0x269d	int3   	
  0x269e	int3   	
  === BLOCK LINK ===
    0x269f
=== CODE BLOCK END ===

=== CODE BLOCK ADDRESS 0x269f ===
  0x269f	int3   	
  0x26a0	jmp    	dword ptr [0x1722]
  === BLOCK LINK ===
    0x26a6
=== CODE BLOCK END ===

=== CODE BLOCK ADDRESS 0x26a6 ===
  0x26a6	int3   	
  0x26a7	int3   	
  0x26a8	int3   	
  0x26a9	int3   	
  0x26aa	int3   	
  === BLOCK LINK ===
    0x26ab
=== CODE BLOCK END ===

=== CODE BLOCK ADDRESS 0x26ab ===
  0x26ab	int3   	
  0x26ac	jmp    	dword ptr [0x174e]
  === BLOCK LINK ===
    0x26b2
=== CODE BLOCK END ===

=== CODE BLOCK ADDRESS 0x26b2 ===
  0x26b2	int3   	
  0x26b3	int3   	
  0x26b4	int3   	
  0x26b5	int3   	
  0x26b6	int3   	
  === BLOCK LINK ===
    0x26b7
=== CODE BLOCK END ===

=== CODE BLOCK ADDRESS 0x26b7 ===
  0x26b7	int3   	
  0x26b8	int3   	
  0x26b9	int3   	
  0x26ba	int3   	
  0x26bb	int3   	
  === BLOCK LINK ===
    0x26bc
=== CODE BLOCK END ===

=== CODE BLOCK ADDRESS 0x26bc ===
  0x26bc	int3   	
  0x26bd	int3   	
  0x26be	int3   	
  0x26bf	int3   	
  0x26c0	jmp    	dword ptr [0x174a]
  === BLOCK LINK ===
    0x26c6
=== CODE BLOCK END ===

=== CODE BLOCK ADDRESS 0x26c6 ===
  0x26c6	int3   	
  0x26c7	int3   	
  0x26c8	int3   	
  0x26c9	int3   	
  0x26ca	int3   	
  === BLOCK LINK ===
    0x26cb
=== CODE BLOCK END ===

=== CODE BLOCK ADDRESS 0x26cb ===
  0x26cb	int3   	
  0x26cc	jmp    	dword ptr [0x1766]
  === BLOCK LINK ===
    0x26d2
=== CODE BLOCK END ===

=== CODE BLOCK ADDRESS 0x26d2 ===
  0x26d2	int3   	
  0x26d3	int3   	
  0x26d4	int3   	
  0x26d5	int3   	
  0x26d6	int3   	
  === BLOCK LINK ===
    0x26d7
=== CODE BLOCK END ===

=== CODE BLOCK ADDRESS 0x26d7 ===
  0x26d7	int3   	
  0x26d8	jmp    	dword ptr [0x1762]
  === BLOCK LINK ===
    0x26de
=== CODE BLOCK END ===

=== CODE BLOCK ADDRESS 0x26de ===
  0x26de	int3   	
  0x26df	int3   	
  0x26e0	int3   	
  0x26e1	int3   	
  0x26e2	int3   	
  === BLOCK LINK ===
    0x26e3
=== CODE BLOCK END ===

=== CODE BLOCK ADDRESS 0x26e3 ===
  0x26e3	int3   	
  0x26e4	jmp    	dword ptr [0x175e]
  === BLOCK LINK ===
    0x26ea
=== CODE BLOCK END ===

=== CODE BLOCK ADDRESS 0x26ea ===
  0x26ea	int3   	
  0x26eb	int3   	
  0x26ec	int3   	
  0x26ed	int3   	
  0x26ee	int3   	
  === BLOCK LINK ===
    0x26ef
=== CODE BLOCK END ===

=== CODE BLOCK ADDRESS 0x26ef ===
  0x26ef	int3   	
  0x26f0	dec    	eax
  0x26f1	mov    	dword ptr [esp + 8], ebx
  0x26f5	push   	edi
  0x26f6	dec    	eax
  === BLOCK LINK ===
    0x26f7
=== CODE BLOCK END ===

=== CODE BLOCK ADDRESS 0x26f7 ===
  0x26f7	sub    	esp, 0x20
  0x26fa	mov    	ebx, edx
  0x26fc	dec    	eax
  0x26fd	mov    	edi, ecx
  0x26ff	call   	dword ptr [0x1773]
  === BLOCK LINK ===
    0x2705
=== CODE BLOCK END ===

=== CODE BLOCK ADDRESS 0x2705 ===
  0x2705	test   	bl, 1
  0x2708	je     	0x2712
  === BLOCK LINK ===
    0x270a
=== CODE BLOCK END ===

=== CODE BLOCK ADDRESS 0x270a ===
  0x270a	dec    	eax
  0x270b	mov    	ecx, edi
  0x270d	call   	0x2568
  === BLOCK LINK ===
    0x2712
=== CODE BLOCK END ===

=== CODE BLOCK ADDRESS 0x2712 ===
  0x2712	dec    	eax
  0x2713	mov    	ebx, dword ptr [esp + 0x30]
  0x2717	dec    	eax
  0x2718	mov    	eax, edi
  0x271a	dec    	eax
  === BLOCK LINK ===
    0x271b
=== CODE BLOCK END ===

=== CODE BLOCK ADDRESS 0x271b ===
  0x271b	add    	esp, 0x20
  0x271e	pop    	edi
  0x271f	ret    	
  0x2720	int3   	
  0x2721	int3   	
  === BLOCK LINK ===
    0x2722
=== CODE BLOCK END ===

=== CODE BLOCK ADDRESS 0x1960 ===
  0x1960	dec    	eax
  0x1961	sub    	esp, 0x288
  === BLOCK LINK ===
    0x1967
=== CODE BLOCK END ===

=== CODE BLOCK ADDRESS 0x2722 ===
  0x2722	int3   	
  0x2723	int3   	
  0x2724	int3   	
  0x2725	int3   	
  0x2726	int3   	
  === BLOCK LINK ===
    0x2727
=== CODE BLOCK END ===

=== CODE BLOCK ADDRESS 0x2727 ===
  0x2727	int3   	
  0x2728	int3   	
  0x2729	int3   	
  0x272a	int3   	
  0x272b	int3   	
  === BLOCK LINK ===
    0x272c
=== CODE BLOCK END ===

=== CODE BLOCK ADDRESS 0x272c ===
  0x272c	int3   	
  0x272d	int3   	
  0x272e	int3   	
  0x272f	int3   	
  0x2730	ret    	0
  === BLOCK LINK ===
    0x2733
=== CODE BLOCK END ===

=== CODE BLOCK ADDRESS 0x17f0 ===
  0x17f0	inc    	eax
  0x17f1	push   	ebx
  0x17f2	dec    	eax
  === BLOCK LINK ===
    0x17f3
=== CODE BLOCK END ===

=== CODE BLOCK ADDRESS 0x2733 ===
  0x2733	int3   	
  0x2734	int3   	
  0x2735	int3   	
  0x2736	int3   	
  0x2737	int3   	
  === BLOCK LINK ===
    0x2738
=== CODE BLOCK END ===

=== CODE BLOCK ADDRESS 0x2738 ===
  0x2738	int3   	
  0x2739	int3   	
  0x273a	int3   	
  0x273b	int3   	
  0x273c	int3   	
  === BLOCK LINK ===
    0x273d
=== CODE BLOCK END ===

=== CODE BLOCK ADDRESS 0x273d ===
  0x273d	int3   	
  0x273e	int3   	
  0x273f	int3   	
  0x2740	dec    	eax
  0x2741	sub    	esp, 0x28
  === BLOCK LINK ===
    0x2744
=== CODE BLOCK END ===

=== CODE BLOCK ADDRESS 0x2744 ===
  0x2744	dec    	eax
  0x2745	mov    	eax, dword ptr [ecx]
  0x2747	cmp    	dword ptr [eax], 0xe06d7363
  0x274d	jne    	0x2772
  === BLOCK LINK ===
    0x274f
=== CODE BLOCK END ===

=== CODE BLOCK ADDRESS 0x274f ===
  0x274f	cmp    	dword ptr [eax + 0x18], 4
  0x2753	jne    	0x2772
  === BLOCK LINK ===
    0x2755
=== CODE BLOCK END ===

=== CODE BLOCK ADDRESS 0x2755 ===
  0x2755	mov    	ecx, dword ptr [eax + 0x20]
  0x2758	lea    	eax, [ecx - 0x19930520]
  0x275e	cmp    	eax, 2
  0x2761	jbe    	0x276b
  === BLOCK LINK ===
    0x2763
=== CODE BLOCK END ===

=== CODE BLOCK ADDRESS 0x2763 ===
  0x2763	cmp    	ecx, 0x1994000
  0x2769	jne    	0x2772
  === BLOCK LINK ===
    0x276b
=== CODE BLOCK END ===

=== CODE BLOCK ADDRESS 0x276b ===
  0x276b	call   	dword ptr [0x16f7]
  === BLOCK LINK ===
    0x2771
=== CODE BLOCK END ===

=== CODE BLOCK ADDRESS 0x2771 ===
  0x2771	int3   	
  0x2772	xor    	eax, eax
  0x2774	dec    	eax
  0x2775	add    	esp, 0x28
  0x2778	ret    	
  === BLOCK LINK ===
    0x2779
=== CODE BLOCK END ===

=== CODE BLOCK ADDRESS 0x2779 ===
  0x2779	int3   	
  0x277a	int3   	
  0x277b	int3   	
  0x277c	int3   	
  0x277d	int3   	
  === BLOCK LINK ===
    0x277e
=== CODE BLOCK END ===

=== CODE BLOCK ADDRESS 0x277e ===
  0x277e	int3   	
  0x277f	int3   	
  0x2780	dec    	eax
  0x2781	sub    	esp, 0x28
  0x2784	dec    	eax
  === BLOCK LINK ===
    0x2785
=== CODE BLOCK END ===

=== CODE BLOCK ADDRESS 0x2785 ===
  0x2785	lea    	ecx, [0xffffffb5]
  0x278b	call   	dword ptr [0x1497]
  === BLOCK LINK ===
    0x2791
=== CODE BLOCK END ===

=== CODE BLOCK ADDRESS 0x2791 ===
  0x2791	xor    	eax, eax
  0x2793	dec    	eax
  0x2794	add    	esp, 0x28
  0x2797	ret    	
  0x2798	int3   	
  === BLOCK LINK ===
    0x2799
=== CODE BLOCK END ===

=== CODE BLOCK ADDRESS 0x2799 ===
  0x2799	int3   	
  0x279a	int3   	
  0x279b	int3   	
  0x279c	int3   	
  0x279d	int3   	
  === BLOCK LINK ===
    0x279e
=== CODE BLOCK END ===

=== CODE BLOCK ADDRESS 0x279e ===
  0x279e	jmp    	dword ptr [0x16bc]
  === BLOCK LINK ===
    0x27a4
=== CODE BLOCK END ===

=== CODE BLOCK ADDRESS 0x27a4 ===
  0x27a4	int3   	
  0x27a5	int3   	
  0x27a6	int3   	
  0x27a7	int3   	
  0x27a8	int3   	
  === BLOCK LINK ===
    0x27a9
=== CODE BLOCK END ===

=== CODE BLOCK ADDRESS 0x27a9 ===
  0x27a9	int3   	
  0x27aa	int3   	
  0x27ab	int3   	
  0x27ac	dec    	eax
  0x27ad	sub    	esp, 0x18
  === BLOCK LINK ===
    0x27b0
=== CODE BLOCK END ===

=== CODE BLOCK ADDRESS 0x27b0 ===
  0x27b0	xor    	edx, edx
  0x27b2	dec    	eax
  0x27b3	lea    	eax, [ecx - 1]
  0x27b6	dec    	eax
  0x27b7	cmp    	eax, -3
  === BLOCK LINK ===
    0x27ba
=== CODE BLOCK END ===

=== CODE BLOCK ADDRESS 0x27ba ===
  0x27ba	ja     	0x27f8
  === BLOCK LINK ===
    0x27bc
=== CODE BLOCK END ===

=== CODE BLOCK ADDRESS 0x27bc ===
  0x27bc	mov    	eax, 0x5a4d
  0x27c1	cmp    	word ptr [ecx], ax
  0x27c4	jne    	0x27f0
  === BLOCK LINK ===
    0x27c6
=== CODE BLOCK END ===

=== CODE BLOCK ADDRESS 0x27c6 ===
  0x27c6	cmp    	dword ptr [ecx + 0x3c], edx
  0x27c9	jl     	0x27f0
  === BLOCK LINK ===
    0x27cb
=== CODE BLOCK END ===

=== CODE BLOCK ADDRESS 0x27cb ===
  0x27cb	cmp    	dword ptr [ecx + 0x3c], 0x10000000
  0x27d2	jae    	0x27f0
  === BLOCK LINK ===
    0x27d4
=== CODE BLOCK END ===

=== CODE BLOCK ADDRESS 0x27d4 ===
  0x27d4	dec    	eax
  0x27d5	arpl   	word ptr [ecx + 0x3c], ax
  0x27d8	dec    	eax
  0x27d9	add    	eax, ecx
  0x27db	dec    	eax
  === BLOCK LINK ===
    0x27dc
=== CODE BLOCK END ===

=== CODE BLOCK ADDRESS 0x27dc ===
  0x27dc	mov    	dword ptr [esp], eax
  0x27df	cmp    	dword ptr [eax], 0x4550
  0x27e5	dec    	eax
  0x27e6	cmovne  	eax, edx
  0x27e9	dec    	eax
  === BLOCK LINK ===
    0x27ea
=== CODE BLOCK END ===

=== CODE BLOCK ADDRESS 0x27ea ===
  0x27ea	mov    	edx, eax
  0x27ec	dec    	eax
  0x27ed	mov    	dword ptr [esp], eax
  0x27f0	jmp    	0x27f8
  === BLOCK LINK ===
    0x27f2
=== CODE BLOCK END ===

=== CODE BLOCK ADDRESS 0x27f2 ===
  0x27f2	xor    	edx, edx
  0x27f4	dec    	eax
  0x27f5	mov    	dword ptr [esp], edx
  0x27f8	dec    	eax
  0x27f9	mov    	eax, edx
  === BLOCK LINK ===
    0x27fb
=== CODE BLOCK END ===

=== CODE BLOCK ADDRESS 0x27fb ===
  0x27fb	dec    	eax
  0x27fc	add    	esp, 0x18
  0x27ff	ret    	
  0x2800	int3   	
  0x2801	int3   	
  === BLOCK LINK ===
    0x2802
=== CODE BLOCK END ===

=== CODE BLOCK ADDRESS 0x2802 ===
  0x2802	int3   	
  0x2803	int3   	
  0x2804	int3   	
  0x2805	int3   	
  0x2806	int3   	
  === BLOCK LINK ===
    0x2807
=== CODE BLOCK END ===

=== CODE BLOCK ADDRESS 0x2807 ===
  0x2807	int3   	
  0x2808	inc    	eax
  0x2809	push   	ebx
  0x280a	dec    	eax
  0x280b	sub    	esp, 0x20
  === BLOCK LINK ===
    0x280e
=== CODE BLOCK END ===

=== CODE BLOCK ADDRESS 0x280e ===
  0x280e	mov    	ebx, ecx
  0x2810	xor    	ecx, ecx
  0x2812	call   	dword ptr [0x1460]
  === BLOCK LINK ===
    0x2818
=== CODE BLOCK END ===

=== CODE BLOCK ADDRESS 0x2818 ===
  0x2818	dec    	eax
  0x2819	test   	eax, eax
  0x281b	je     	0x2845
  === BLOCK LINK ===
    0x281d
=== CODE BLOCK END ===

=== CODE BLOCK ADDRESS 0x281d ===
  0x281d	dec    	eax
  0x281e	mov    	ecx, eax
  0x2820	call   	0x27ac
  === BLOCK LINK ===
    0x2825
=== CODE BLOCK END ===

=== CODE BLOCK ADDRESS 0x2825 ===
  0x2825	dec    	eax
  0x2826	test   	eax, eax
  0x2828	je     	0x2845
  === BLOCK LINK ===
    0x282a
=== CODE BLOCK END ===

=== CODE BLOCK ADDRESS 0x282a ===
  0x282a	mov    	ecx, 2
  0x282f	cmp    	word ptr [eax + 0x5c], cx
  0x2833	jne    	0x2839
  === BLOCK LINK ===
    0x2835
=== CODE BLOCK END ===

=== CODE BLOCK ADDRESS 0x2835 ===
  0x2835	mov    	eax, ecx
  0x2837	jmp    	0x2847
  === BLOCK LINK ===
    0x2839
=== CODE BLOCK END ===

=== CODE BLOCK ADDRESS 0x2839 ===
  0x2839	cmp    	word ptr [eax + 0x5c], 3
  0x283e	mov    	eax, 1
  0x2843	je     	0x2847
  === BLOCK LINK ===
    0x2845
=== CODE BLOCK END ===

=== CODE BLOCK ADDRESS 0x2845 ===
  0x2845	mov    	eax, ebx
  0x2847	dec    	eax
  0x2848	add    	esp, 0x20
  0x284b	pop    	ebx
  0x284c	ret    	
  === BLOCK LINK ===
    0x284d
=== CODE BLOCK END ===

=== CODE BLOCK ADDRESS 0x284d ===
  0x284d	int3   	
  0x284e	int3   	
  0x284f	int3   	
  0x2850	int3   	
  0x2851	int3   	
  === BLOCK LINK ===
    0x2852
=== CODE BLOCK END ===

=== CODE BLOCK ADDRESS 0x2852 ===
  0x2852	int3   	
  0x2853	jmp    	dword ptr [0x1617]
  === BLOCK LINK ===
    0x2859
=== CODE BLOCK END ===

=== CODE BLOCK ADDRESS 0x2859 ===
  0x2859	int3   	
  0x285a	int3   	
  0x285b	int3   	
  0x285c	int3   	
  0x285d	int3   	
  === BLOCK LINK ===
    0x285e
=== CODE BLOCK END ===

=== CODE BLOCK ADDRESS 0x285e ===
  0x285e	int3   	
  0x285f	int3   	
  0x2860	xor    	eax, eax
  0x2862	ret    	
  0x2863	int3   	
  === BLOCK LINK ===
    0x2864
=== CODE BLOCK END ===

=== CODE BLOCK ADDRESS 0x1694 ===
  0x1694	dec    	eax
  0x1695	mov    	dword ptr [esp + 0x20], ebx
  0x1699	push   	ebp
  0x169a	push   	esi
  === BLOCK LINK ===
    0x169b
=== CODE BLOCK END ===

=== CODE BLOCK ADDRESS 0x2864 ===
  0x2864	int3   	
  0x2865	int3   	
  0x2866	int3   	
  0x2867	int3   	
  0x2868	int3   	
  === BLOCK LINK ===
    0x2869
=== CODE BLOCK END ===

=== CODE BLOCK ADDRESS 0x2869 ===
  0x2869	int3   	
  0x286a	int3   	
  0x286b	int3   	
  0x286c	int3   	
  0x286d	int3   	
  === BLOCK LINK ===
    0x286e
=== CODE BLOCK END ===

=== CODE BLOCK ADDRESS 0x286e ===
  0x286e	int3   	
  0x286f	int3   	
  0x2870	dec    	esp
  0x2871	arpl   	word ptr [ecx + 0x3c], ax
  0x2874	inc    	ebp
  === BLOCK LINK ===
    0x2875
=== CODE BLOCK END ===

=== CODE BLOCK ADDRESS 0x2875 ===
  0x2875	xor    	ecx, ecx
  0x2877	dec    	esp
  0x2878	add    	eax, ecx
  0x287a	dec    	esp
  0x287b	mov    	edx, edx
  === BLOCK LINK ===
    0x287d
=== CODE BLOCK END ===

=== CODE BLOCK ADDRESS 0x287d ===
  0x287d	inc    	ecx
  0x287e	movzx  	eax, word ptr [eax + 0x14]
  0x2882	inc    	ebp
  0x2883	movzx  	ebx, word ptr [eax + 6]
  0x2887	dec    	eax
  === BLOCK LINK ===
    0x2888
=== CODE BLOCK END ===

=== CODE BLOCK ADDRESS 0x2888 ===
  0x2888	add    	eax, 0x18
  0x288b	dec    	ecx
  0x288c	add    	eax, eax
  0x288e	inc    	ebp
  0x288f	test   	ebx, ebx
  === BLOCK LINK ===
    0x2891
=== CODE BLOCK END ===

=== CODE BLOCK ADDRESS 0x2891 ===
  0x2891	je     	0x28b1
  === BLOCK LINK ===
    0x2893
=== CODE BLOCK END ===

=== CODE BLOCK ADDRESS 0x2893 ===
  0x2893	mov    	edx, dword ptr [eax + 0xc]
  0x2896	dec    	esp
  0x2897	cmp    	edx, edx
  0x2899	jb     	0x28a5
  === BLOCK LINK ===
    0x289b
=== CODE BLOCK END ===

=== CODE BLOCK ADDRESS 0x289b ===
  0x289b	mov    	ecx, dword ptr [eax + 8]
  0x289e	add    	ecx, edx
  0x28a0	dec    	esp
  0x28a1	cmp    	edx, ecx
  0x28a3	jb     	0x28b3
  === BLOCK LINK ===
    0x28a5
=== CODE BLOCK END ===

=== CODE BLOCK ADDRESS 0x28a5 ===
  0x28a5	inc    	ecx
  0x28a6	inc    	ecx
  0x28a8	dec    	eax
  0x28a9	add    	eax, 0x28
  0x28ac	inc    	ebp
  === BLOCK LINK ===
    0x28ad
=== CODE BLOCK END ===

=== CODE BLOCK ADDRESS 0x28ad ===
  0x28ad	cmp    	ecx, ebx
  0x28af	jb     	0x2893
  === BLOCK LINK ===
    0x28b1
=== CODE BLOCK END ===

=== CODE BLOCK ADDRESS 0x28b1 ===
  0x28b1	xor    	eax, eax
  0x28b3	ret    	
  0x28b4	int3   	
  0x28b5	int3   	
  0x28b6	int3   	
  === BLOCK LINK ===
    0x28b7
=== CODE BLOCK END ===

=== CODE BLOCK ADDRESS 0x28b7 ===
  0x28b7	int3   	
  0x28b8	int3   	
  0x28b9	int3   	
  0x28ba	int3   	
  0x28bb	int3   	
  === BLOCK LINK ===
    0x28bc
=== CODE BLOCK END ===

=== CODE BLOCK ADDRESS 0x28bc ===
  0x28bc	int3   	
  0x28bd	int3   	
  0x28be	int3   	
  0x28bf	int3   	
  0x28c0	dec    	eax
  === BLOCK LINK ===
    0x28c1
=== CODE BLOCK END ===

=== CODE BLOCK ADDRESS 0x28c1 ===
  0x28c1	mov    	dword ptr [esp + 8], ebx
  0x28c5	push   	edi
  0x28c6	dec    	eax
  0x28c7	sub    	esp, 0x20
  0x28ca	dec    	eax
  === BLOCK LINK ===
    0x28cb
=== CODE BLOCK END ===

=== CODE BLOCK ADDRESS 0x28cb ===
  0x28cb	mov    	ebx, ecx
  0x28cd	dec    	eax
  0x28ce	lea    	edi, [0xffffd72c]
  0x28d4	dec    	eax
  0x28d5	mov    	ecx, edi
  === BLOCK LINK ===
    0x28d7
=== CODE BLOCK END ===

=== CODE BLOCK ADDRESS 0x28d7 ===
  0x28d7	call   	0x2920
  === BLOCK LINK ===
    0x28dc
=== CODE BLOCK END ===

=== CODE BLOCK ADDRESS 0x28dc ===
  0x28dc	test   	eax, eax
  0x28de	je     	0x2902
  === BLOCK LINK ===
    0x28e0
=== CODE BLOCK END ===

=== CODE BLOCK ADDRESS 0x28e0 ===
  0x28e0	dec    	eax
  0x28e1	sub    	ebx, edi
  0x28e3	dec    	eax
  0x28e4	mov    	edx, ebx
  0x28e6	dec    	eax
  === BLOCK LINK ===
    0x28e7
=== CODE BLOCK END ===

=== CODE BLOCK ADDRESS 0x28e7 ===
  0x28e7	mov    	ecx, edi
  0x28e9	call   	0x2870
  === BLOCK LINK ===
    0x28ee
=== CODE BLOCK END ===

=== CODE BLOCK ADDRESS 0x28ee ===
  0x28ee	dec    	eax
  0x28ef	test   	eax, eax
  0x28f1	je     	0x2902
  === BLOCK LINK ===
    0x28f3
=== CODE BLOCK END ===

=== CODE BLOCK ADDRESS 0x28f3 ===
  0x28f3	mov    	eax, dword ptr [eax + 0x24]
  0x28f6	shr    	eax, 0x1f
  0x28f9	not    	eax
  0x28fb	and    	eax, 1
  0x28fe	jmp    	0x2902
  === BLOCK LINK ===
    0x2900
=== CODE BLOCK END ===

=== CODE BLOCK ADDRESS 0x2900 ===
  0x2900	xor    	eax, eax
  0x2902	dec    	eax
  0x2903	mov    	ebx, dword ptr [esp + 0x30]
  0x2907	dec    	eax
  0x2908	add    	esp, 0x20
  === BLOCK LINK ===
    0x290b
=== CODE BLOCK END ===

=== CODE BLOCK ADDRESS 0x290b ===
  0x290b	pop    	edi
  0x290c	ret    	
  0x290d	int3   	
  0x290e	int3   	
  0x290f	int3   	
  === BLOCK LINK ===
    0x2910
=== CODE BLOCK END ===

=== CODE BLOCK ADDRESS 0x1610 ===
=== CODE BLOCK END ===

=== CODE BLOCK ADDRESS 0x2910 ===
  0x2910	int3   	
  0x2911	int3   	
  0x2912	int3   	
  0x2913	int3   	
  0x2914	int3   	
  === BLOCK LINK ===
    0x2915
=== CODE BLOCK END ===

=== CODE BLOCK ADDRESS 0x2915 ===
  0x2915	int3   	
  0x2916	int3   	
  0x2917	int3   	
  0x2918	int3   	
  0x2919	int3   	
  === BLOCK LINK ===
    0x291a
=== CODE BLOCK END ===

=== CODE BLOCK ADDRESS 0x291a ===
  0x291a	int3   	
  0x291b	int3   	
  0x291c	int3   	
  0x291d	int3   	
  0x291e	int3   	
  === BLOCK LINK ===
    0x291f
=== CODE BLOCK END ===

=== CODE BLOCK ADDRESS 0x291f ===
  0x291f	int3   	
  0x2920	mov    	eax, 0x5a4d
  0x2925	cmp    	word ptr [ecx], ax
  0x2928	jne    	0x294a
  === BLOCK LINK ===
    0x292a
=== CODE BLOCK END ===

=== CODE BLOCK ADDRESS 0x292a ===
  0x292a	dec    	eax
  0x292b	arpl   	word ptr [ecx + 0x3c], ax
  0x292e	dec    	eax
  0x292f	add    	eax, ecx
  0x2931	cmp    	dword ptr [eax], 0x4550
  === BLOCK LINK ===
    0x2937
=== CODE BLOCK END ===

=== CODE BLOCK ADDRESS 0x2937 ===
  0x2937	jne    	0x294a
  === BLOCK LINK ===
    0x2939
=== CODE BLOCK END ===

=== CODE BLOCK ADDRESS 0x2939 ===
  0x2939	mov    	ecx, 0x20b
  0x293e	cmp    	word ptr [eax + 0x18], cx
  0x2942	jne    	0x294a
  === BLOCK LINK ===
    0x2944
=== CODE BLOCK END ===

=== CODE BLOCK ADDRESS 0x2944 ===
  0x2944	mov    	eax, 1
  0x2949	ret    	
  0x294a	xor    	eax, eax
  0x294c	ret    	
  0x294d	int3   	
  === BLOCK LINK ===
    0x294e
=== CODE BLOCK END ===

=== CODE BLOCK ADDRESS 0x1314 ===
  0x1314	dec    	eax
  0x1315	mov    	dword ptr [esp + 8], ebx
  0x1319	mov    	edx, 0x104
  === BLOCK LINK ===
    0x131e
=== CODE BLOCK END ===

=== CODE BLOCK ADDRESS 0x294e ===
  0x294e	int3   	
  0x294f	int3   	
  0x2950	int3   	
  0x2951	int3   	
  0x2952	int3   	
  === BLOCK LINK ===
    0x2953
=== CODE BLOCK END ===

=== CODE BLOCK ADDRESS 0x2953 ===
  0x2953	int3   	
  0x2954	dec    	eax
  0x2955	mov    	dword ptr [esp + 0x20], ebx
  0x2959	push   	ebp
  0x295a	dec    	eax
  === BLOCK LINK ===
    0x295b
=== CODE BLOCK END ===

=== CODE BLOCK ADDRESS 0x295b ===
  0x295b	mov    	ebp, esp
  0x295d	dec    	eax
  0x295e	sub    	esp, 0x20
  0x2961	dec    	eax
  0x2962	and    	dword ptr [ebp + 0x18], 0
  === BLOCK LINK ===
    0x2966
=== CODE BLOCK END ===

=== CODE BLOCK ADDRESS 0x2966 ===
  0x2966	dec    	eax
  0x2967	mov    	ebx, 0x2ddfa232
  0x296c	cdq    	
  0x296d	sub    	eax, dword ptr [eax]
  0x296f	add    	byte ptr [eax - 0x75], cl
  === BLOCK LINK ===
    0x2972
=== CODE BLOCK END ===

=== CODE BLOCK ADDRESS 0x2972 ===
  0x2972	add    	eax, 0x4771
  0x2977	dec    	eax
  0x2978	cmp    	eax, ebx
  0x297a	jne    	0x2a13
  === BLOCK LINK ===
    0x2980
=== CODE BLOCK END ===

=== CODE BLOCK ADDRESS 0x2980 ===
  0x2980	dec    	eax
  0x2981	lea    	ecx, [ebp + 0x18]
  0x2984	call   	dword ptr [0x13ce]
  === BLOCK LINK ===
    0x298a
=== CODE BLOCK END ===

=== CODE BLOCK ADDRESS 0x298a ===
  0x298a	dec    	eax
  0x298b	mov    	eax, dword ptr [ebp + 0x18]
  0x298e	dec    	eax
  0x298f	mov    	dword ptr [ebp + 0x10], eax
  0x2992	call   	dword ptr [0x1310]
  === BLOCK LINK ===
    0x2998
=== CODE BLOCK END ===

=== CODE BLOCK ADDRESS 0x2998 ===
  0x2998	mov    	eax, eax
  0x299a	dec    	eax
  0x299b	xor    	dword ptr [ebp + 0x10], eax
  0x299e	call   	dword ptr [0x1324]
  === BLOCK LINK ===
    0x29a4
=== CODE BLOCK END ===

=== CODE BLOCK ADDRESS 0x29a4 ===
  0x29a4	mov    	eax, eax
  0x29a6	dec    	eax
  0x29a7	xor    	dword ptr [ebp + 0x10], eax
  0x29aa	call   	dword ptr [0x13a0]
  === BLOCK LINK ===
    0x29b0
=== CODE BLOCK END ===

=== CODE BLOCK ADDRESS 0x29b0 ===
  0x29b0	mov    	eax, eax
  0x29b2	dec    	eax
  0x29b3	shl    	eax, 0x18
  0x29b6	dec    	eax
  0x29b7	xor    	dword ptr [ebp + 0x10], eax
  === BLOCK LINK ===
    0x29ba
=== CODE BLOCK END ===

=== CODE BLOCK ADDRESS 0x29ba ===
  0x29ba	call   	dword ptr [0x1390]
  === BLOCK LINK ===
    0x29c0
=== CODE BLOCK END ===

=== CODE BLOCK ADDRESS 0x29c0 ===
  0x29c0	mov    	eax, eax
  0x29c2	dec    	eax
  0x29c3	lea    	ecx, [ebp + 0x10]
  0x29c6	dec    	eax
  0x29c7	xor    	eax, dword ptr [ebp + 0x10]
  === BLOCK LINK ===
    0x29ca
=== CODE BLOCK END ===

=== CODE BLOCK ADDRESS 0x29ca ===
  0x29ca	dec    	eax
  0x29cb	xor    	eax, ecx
  0x29cd	dec    	eax
  0x29ce	lea    	ecx, [ebp + 0x20]
  0x29d1	dec    	eax
  === BLOCK LINK ===
    0x29d2
=== CODE BLOCK END ===

=== CODE BLOCK ADDRESS 0x29d2 ===
  0x29d2	mov    	dword ptr [ebp + 0x10], eax
  0x29d5	call   	dword ptr [0x12fd]
  === BLOCK LINK ===
    0x29db
=== CODE BLOCK END ===

=== CODE BLOCK ADDRESS 0x29db ===
  0x29db	mov    	eax, dword ptr [ebp + 0x20]
  0x29de	dec    	eax
  0x29df	mov    	ecx, 0xffffffff
  0x29e4	.byte  	0xff
  0x29e5	inc    	dword ptr [eax]
  === BLOCK LINK ===
    0x29e7
=== CODE BLOCK END ===

=== CODE BLOCK ADDRESS 0x29e7 ===
  0x29e7	add    	byte ptr [eax - 0x3f], cl
  0x29ea	loopne  	0x2a0c
  === BLOCK LINK ===
    0x29ec
=== CODE BLOCK END ===

=== CODE BLOCK ADDRESS 0x29ec ===
  0x29ec	dec    	eax
  0x29ed	xor    	eax, dword ptr [ebp + 0x20]
  0x29f0	dec    	eax
  0x29f1	xor    	eax, dword ptr [ebp + 0x10]
  0x29f4	dec    	eax
  === BLOCK LINK ===
    0x29f5
=== CODE BLOCK END ===

=== CODE BLOCK ADDRESS 0x29f5 ===
  0x29f5	and    	eax, ecx
  0x29f7	dec    	eax
  0x29f8	mov    	ecx, eax
  0x29fa	dec    	eax
  0x29fb	cmp    	eax, ebx
  === BLOCK LINK ===
    0x29fd
=== CODE BLOCK END ===

=== CODE BLOCK ADDRESS 0x29fd ===
  0x29fd	jne    	0x2a0c
  === BLOCK LINK ===
    0x29ff
=== CODE BLOCK END ===

=== CODE BLOCK ADDRESS 0x29ff ===
  0x29ff	dec    	eax
  0x2a00	mov    	eax, 0x2ddfa233
  0x2a05	cdq    	
  0x2a06	sub    	eax, dword ptr [eax]
  0x2a08	add    	byte ptr [eax - 0x75], cl
  === BLOCK LINK ===
    0x2a0b
=== CODE BLOCK END ===

=== CODE BLOCK ADDRESS 0x2a0b ===
  0x2a0b	enter  	-0x76b8, 0xd
  0x2a0f	aad    	0x46
  0x2a11	add    	byte ptr [eax], al
  0x2a13	dec    	eax
  0x2a14	mov    	ebx, dword ptr [esp + 0x48]
  === BLOCK LINK ===
    0x2a18
=== CODE BLOCK END ===

=== CODE BLOCK ADDRESS 0x2a18 ===
  0x2a18	dec    	eax
  0x2a19	not    	eax
  0x2a1b	dec    	eax
  0x2a1c	mov    	dword ptr [0x46ce], eax
  0x2a22	dec    	eax
  === BLOCK LINK ===
    0x2a23
=== CODE BLOCK END ===

=== CODE BLOCK ADDRESS 0x2a23 ===
  0x2a23	add    	esp, 0x20
  0x2a26	pop    	ebp
  0x2a27	ret    	
  0x2a28	int3   	
  0x2a29	int3   	
  === BLOCK LINK ===
    0x2a2a
=== CODE BLOCK END ===

=== CODE BLOCK ADDRESS 0x2a2a ===
  0x2a2a	int3   	
  0x2a2b	int3   	
  0x2a2c	int3   	
  0x2a2d	int3   	
  0x2a2e	jmp    	dword ptr [0x13a4]
  === BLOCK LINK ===
    0x2a34
=== CODE BLOCK END ===

=== CODE BLOCK ADDRESS 0x2a34 ===
  0x2a34	int3   	
  0x2a35	int3   	
  0x2a36	int3   	
  0x2a37	int3   	
  0x2a38	int3   	
  === BLOCK LINK ===
    0x2a39
=== CODE BLOCK END ===

=== CODE BLOCK ADDRESS 0x2a39 ===
  0x2a39	int3   	
  0x2a3a	jmp    	dword ptr [0x1390]
  === BLOCK LINK ===
    0x2a40
=== CODE BLOCK END ===

=== CODE BLOCK ADDRESS 0x2a40 ===
  0x2a40	int3   	
  0x2a41	int3   	
  0x2a42	int3   	
  0x2a43	int3   	
  0x2a44	int3   	
  === BLOCK LINK ===
    0x2a45
=== CODE BLOCK END ===

=== CODE BLOCK ADDRESS 0x2a45 ===
  0x2a45	int3   	
  0x2a46	int3   	
  0x2a47	int3   	
  0x2a48	inc    	eax
  0x2a49	push   	ebx
  === BLOCK LINK ===
    0x2a4a
=== CODE BLOCK END ===

=== CODE BLOCK ADDRESS 0x2a4a ===
  0x2a4a	dec    	eax
  0x2a4b	sub    	esp, 0x20
  0x2a4e	dec    	eax
  0x2a4f	mov    	ebx, ecx
  0x2a51	xor    	ecx, ecx
  === BLOCK LINK ===
    0x2a53
=== CODE BLOCK END ===

=== CODE BLOCK ADDRESS 0x2a53 ===
  0x2a53	call   	dword ptr [0x11cf]
  === BLOCK LINK ===
    0x2a59
=== CODE BLOCK END ===

=== CODE BLOCK ADDRESS 0x2a59 ===
  0x2a59	dec    	eax
  0x2a5a	mov    	ecx, ebx
  0x2a5c	call   	dword ptr [0x11d6]
  === BLOCK LINK ===
    0x2a62
=== CODE BLOCK END ===

=== CODE BLOCK ADDRESS 0x2a62 ===
  0x2a62	call   	dword ptr [0x1250]
  === BLOCK LINK ===
    0x2a68
=== CODE BLOCK END ===

=== CODE BLOCK ADDRESS 0x2a68 ===
  0x2a68	dec    	eax
  0x2a69	mov    	ecx, eax
  0x2a6b	mov    	edx, 0xc0000409
  0x2a70	dec    	eax
  0x2a71	add    	esp, 0x20
  === BLOCK LINK ===
    0x2a74
=== CODE BLOCK END ===

=== CODE BLOCK ADDRESS 0x2a74 ===
  0x2a74	pop    	ebx
  0x2a75	dec    	eax
  0x2a76	jmp    	dword ptr [0x1224]
  === BLOCK LINK ===
    0x2a7c
=== CODE BLOCK END ===

=== CODE BLOCK ADDRESS 0x2a7c ===
  0x2a7c	int3   	
  0x2a7d	int3   	
  0x2a7e	int3   	
  0x2a7f	int3   	
  0x2a80	int3   	
  === BLOCK LINK ===
    0x2a81
=== CODE BLOCK END ===

=== CODE BLOCK ADDRESS 0x2a81 ===
  0x2a81	int3   	
  0x2a82	int3   	
  0x2a83	int3   	
  0x2a84	int3   	
  0x2a85	int3   	
  === BLOCK LINK ===
    0x2a86
=== CODE BLOCK END ===

=== CODE BLOCK ADDRESS 0x2a86 ===
  0x2a86	int3   	
  0x2a87	int3   	
  0x2a88	int3   	
  0x2a89	int3   	
  0x2a8a	int3   	
  === BLOCK LINK ===
    0x2a8b
=== CODE BLOCK END ===

=== CODE BLOCK ADDRESS 0x2a8b ===
  0x2a8b	int3   	
  0x2a8c	int3   	
  0x2a8d	int3   	
  0x2a8e	int3   	
  0x2a8f	int3   	
  === BLOCK LINK ===
    0x2a90
=== CODE BLOCK END ===

=== CODE BLOCK ADDRESS 0x2a90 ===
  0x2a90	dec    	eax
  0x2a91	mov    	dword ptr [esp + 8], ecx
  0x2a95	dec    	eax
  0x2a96	sub    	esp, 0x88
  0x2a9c	dec    	eax
  === BLOCK LINK ===
    0x2a9d
=== CODE BLOCK END ===

=== CODE BLOCK ADDRESS 0x2a9d ===
  0x2a9d	lea    	ecx, [0x475d]
  0x2aa3	call   	dword ptr [0x1277]
  === BLOCK LINK ===
    0x2aa9
=== CODE BLOCK END ===

=== CODE BLOCK ADDRESS 0x2aa9 ===
  0x2aa9	dec    	eax
  0x2aaa	mov    	eax, dword ptr [0x4848]
  0x2ab0	dec    	eax
  0x2ab1	mov    	dword ptr [esp + 0x48], eax
  0x2ab5	inc    	ebp
  === BLOCK LINK ===
    0x2ab6
=== CODE BLOCK END ===

=== CODE BLOCK ADDRESS 0x2ab6 ===
  0x2ab6	xor    	eax, eax
  0x2ab8	dec    	eax
  0x2ab9	lea    	edx, [esp + 0x50]
  0x2abd	dec    	eax
  0x2abe	mov    	ecx, dword ptr [esp + 0x48]
  === BLOCK LINK ===
    0x2ac2
=== CODE BLOCK END ===

=== CODE BLOCK ADDRESS 0x2ac2 ===
  0x2ac2	call   	dword ptr [0x1250]
  === BLOCK LINK ===
    0x2ac8
=== CODE BLOCK END ===

=== CODE BLOCK ADDRESS 0x2ac8 ===
  0x2ac8	dec    	eax
  0x2ac9	mov    	dword ptr [esp + 0x40], eax
  0x2acd	dec    	eax
  0x2ace	cmp    	dword ptr [esp + 0x40], 0
  0x2ad3	je     	0x2b17
  === BLOCK LINK ===
    0x2ad5
=== CODE BLOCK END ===

=== CODE BLOCK ADDRESS 0x2ad5 ===
  0x2ad5	dec    	eax
  0x2ad6	mov    	dword ptr [esp + 0x38], 0
  0x2ade	dec    	eax
  0x2adf	lea    	eax, [esp + 0x58]
  0x2ae3	dec    	eax
  === BLOCK LINK ===
    0x2ae4
=== CODE BLOCK END ===

=== CODE BLOCK ADDRESS 0x2ae4 ===
  0x2ae4	mov    	dword ptr [esp + 0x30], eax
  0x2ae8	dec    	eax
  0x2ae9	lea    	eax, [esp + 0x60]
  0x2aed	dec    	eax
  0x2aee	mov    	dword ptr [esp + 0x28], eax
  === BLOCK LINK ===
    0x2af2
=== CODE BLOCK END ===

=== CODE BLOCK ADDRESS 0x2af2 ===
  0x2af2	dec    	eax
  0x2af3	lea    	eax, [0x4707]
  0x2af9	dec    	eax
  0x2afa	mov    	dword ptr [esp + 0x20], eax
  0x2afe	dec    	esp
  === BLOCK LINK ===
    0x2aff
=== CODE BLOCK END ===

=== CODE BLOCK ADDRESS 0x2aff ===
  0x2aff	mov    	ecx, dword ptr [esp + 0x40]
  0x2b03	dec    	esp
  0x2b04	mov    	eax, dword ptr [esp + 0x48]
  0x2b08	dec    	eax
  0x2b09	mov    	edx, dword ptr [esp + 0x50]
  === BLOCK LINK ===
    0x2b0d
=== CODE BLOCK END ===

=== CODE BLOCK ADDRESS 0x2b0d ===
  0x2b0d	xor    	ecx, ecx
  0x2b0f	call   	dword ptr [0x11fb]
  === BLOCK LINK ===
    0x2b15
=== CODE BLOCK END ===

=== CODE BLOCK ADDRESS 0x2b15 ===
  0x2b15	jmp    	0x2b3a
  === BLOCK LINK ===
    0x2b17
=== CODE BLOCK END ===

=== CODE BLOCK ADDRESS 0x2b17 ===
  0x2b17	dec    	eax
  0x2b18	mov    	eax, dword ptr [0x477a]
  0x2b1e	dec    	eax
  0x2b1f	mov    	eax, dword ptr [eax]
  0x2b21	dec    	eax
  === BLOCK LINK ===
    0x2b22
=== CODE BLOCK END ===

=== CODE BLOCK ADDRESS 0x2b22 ===
  0x2b22	mov    	dword ptr [0x47d0], eax
  0x2b28	dec    	eax
  0x2b29	mov    	eax, dword ptr [0x4769]
  0x2b2f	dec    	eax
  0x2b30	add    	eax, 8
  === BLOCK LINK ===
    0x2b33
=== CODE BLOCK END ===

=== CODE BLOCK ADDRESS 0x2b33 ===
  0x2b33	dec    	eax
  0x2b34	mov    	dword ptr [0x475e], eax
  0x2b3a	dec    	eax
  0x2b3b	mov    	eax, dword ptr [0x47b7]
  0x2b41	dec    	eax
  === BLOCK LINK ===
    0x2b42
=== CODE BLOCK END ===

=== CODE BLOCK ADDRESS 0x2b42 ===
  0x2b42	mov    	dword ptr [0x4628], eax
  0x2b48	dec    	eax
  0x2b49	mov    	eax, dword ptr [esp + 0x90]
  0x2b50	dec    	eax
  0x2b51	mov    	dword ptr [0x4729], eax
  === BLOCK LINK ===
    0x2b57
=== CODE BLOCK END ===

=== CODE BLOCK ADDRESS 0x2b57 ===
  0x2b57	mov    	dword ptr [0x45ff], 0xc0000409
  0x2b61	mov    	dword ptr [0x45f9], 1
  0x2b6b	mov    	dword ptr [0x4603], 3
  0x2b75	mov    	eax, 8
  0x2b7a	dec    	eax
  === BLOCK LINK ===
    0x2b7b
=== CODE BLOCK END ===

=== CODE BLOCK ADDRESS 0x2b7b ===
  0x2b7b	imul   	eax, eax, 0
  0x2b7e	dec    	eax
  0x2b7f	lea    	ecx, [0x45fb]
  0x2b85	dec    	eax
  0x2b86	mov    	dword ptr [ecx + eax], 2
  === BLOCK LINK ===
    0x2b8d
=== CODE BLOCK END ===

=== CODE BLOCK ADDRESS 0x2b8d ===
  0x2b8d	mov    	eax, 8
  0x2b92	dec    	eax
  0x2b93	imul   	eax, eax, 1
  0x2b96	dec    	eax
  0x2b97	lea    	ecx, [0x45e3]
  === BLOCK LINK ===
    0x2b9d
=== CODE BLOCK END ===

=== CODE BLOCK ADDRESS 0x2b9d ===
  0x2b9d	dec    	eax
  0x2b9e	mov    	edx, dword ptr [0x4544]
  0x2ba4	dec    	eax
  0x2ba5	mov    	dword ptr [ecx + eax], edx
  0x2ba8	mov    	eax, 8
  === BLOCK LINK ===
    0x2bad
=== CODE BLOCK END ===

=== CODE BLOCK ADDRESS 0x2bad ===
  0x2bad	dec    	eax
  0x2bae	imul   	eax, eax, 2
  0x2bb1	dec    	eax
  0x2bb2	lea    	ecx, [0x45c8]
  0x2bb8	dec    	eax
  === BLOCK LINK ===
    0x2bb9
=== CODE BLOCK END ===

=== CODE BLOCK ADDRESS 0x2bb9 ===
  0x2bb9	mov    	edx, dword ptr [0x4531]
  0x2bbf	dec    	eax
  0x2bc0	mov    	dword ptr [ecx + eax], edx
  0x2bc3	mov    	eax, 8
  0x2bc8	dec    	eax
  === BLOCK LINK ===
    0x2bc9
=== CODE BLOCK END ===

=== CODE BLOCK ADDRESS 0x2bc9 ===
  0x2bc9	imul   	eax, eax, 0
  0x2bcc	dec    	eax
  0x2bcd	mov    	ecx, dword ptr [0x4515]
  0x2bd3	dec    	eax
  0x2bd4	mov    	dword ptr [esp + eax + 0x68], ecx
  === BLOCK LINK ===
    0x2bd8
=== CODE BLOCK END ===

=== CODE BLOCK ADDRESS 0x2bd8 ===
  0x2bd8	mov    	eax, 8
  0x2bdd	dec    	eax
  0x2bde	imul   	eax, eax, 1
  0x2be1	dec    	eax
  0x2be2	mov    	ecx, dword ptr [0x4508]
  === BLOCK LINK ===
    0x2be8
=== CODE BLOCK END ===

=== CODE BLOCK ADDRESS 0x2be8 ===
  0x2be8	dec    	eax
  0x2be9	mov    	dword ptr [esp + eax + 0x68], ecx
  0x2bed	dec    	eax
  0x2bee	lea    	ecx, [0xdd4]
  0x2bf4	call   	0x2a48
  === BLOCK LINK ===
    0x2bf9
=== CODE BLOCK END ===

=== CODE BLOCK ADDRESS 0x2bf9 ===
  0x2bf9	dec    	eax
  0x2bfa	add    	esp, 0x88
  0x2c00	ret    	
  0x2c01	int3   	
  0x2c02	int3   	
  === BLOCK LINK ===
    0x2c03
=== CODE BLOCK END ===

=== CODE BLOCK ADDRESS 0x2c03 ===
  0x2c03	int3   	
  0x2c04	int3   	
  0x2c05	int3   	
  0x2c06	int3   	
  0x2c07	jmp    	dword ptr [0x11b3]
  === BLOCK LINK ===
    0x2c0d
=== CODE BLOCK END ===

=== CODE BLOCK ADDRESS 0x2c0d ===
  0x2c0d	int3   	
  0x2c0e	int3   	
  0x2c0f	int3   	
  0x2c10	int3   	
  0x2c11	int3   	
  === BLOCK LINK ===
    0x2c12
=== CODE BLOCK END ===

=== CODE BLOCK ADDRESS 0x2c12 ===
  0x2c12	int3   	
  0x2c13	jmp    	dword ptr [0x11ef]
  === BLOCK LINK ===
    0x2c19
=== CODE BLOCK END ===

=== CODE BLOCK ADDRESS 0x2c19 ===
  0x2c19	int3   	
  0x2c1a	int3   	
  0x2c1b	int3   	
  0x2c1c	int3   	
  0x2c1d	int3   	
  === BLOCK LINK ===
    0x2c1e
=== CODE BLOCK END ===

=== CODE BLOCK ADDRESS 0x2c1e ===
  0x2c1e	int3   	
  0x2c1f	jmp    	dword ptr [0x122b]
  === BLOCK LINK ===
    0x2c25
=== CODE BLOCK END ===

=== CODE BLOCK ADDRESS 0x2c25 ===
  0x2c25	int3   	
  0x2c26	int3   	
  0x2c27	int3   	
  0x2c28	int3   	
  0x2c29	int3   	
  === BLOCK LINK ===
    0x2c2a
=== CODE BLOCK END ===

=== CODE BLOCK ADDRESS 0x2c2a ===
  0x2c2a	int3   	
  0x2c2b	int3   	
  0x2c2c	int3   	
  0x2c2d	int3   	
  0x2c2e	int3   	
  === BLOCK LINK ===
    0x2c2f
=== CODE BLOCK END ===

=== CODE BLOCK ADDRESS 0x2c2f ===
  0x2c2f	int3   	
  0x2c30	int3   	
  0x2c31	int3   	
  0x2c32	int3   	
  0x2c33	int3   	
  === BLOCK LINK ===
    0x2c34
=== CODE BLOCK END ===

=== CODE BLOCK ADDRESS 0x2c34 ===
  0x2c34	int3   	
  0x2c35	int3   	
  0x2c36	int3   	
  0x2c37	int3   	
  0x2c38	dec    	eax
  === BLOCK LINK ===
    0x2c39
=== CODE BLOCK END ===

=== CODE BLOCK ADDRESS 0x2c39 ===
  0x2c39	sub    	esp, 0x28
  0x2c3c	mov    	ecx, dword ptr [0x4a8e]
  0x2c42	cmp    	ecx, 1
  0x2c45	jne    	0x2c4b
  === BLOCK LINK ===
    0x2c47
=== CODE BLOCK END ===

=== CODE BLOCK ADDRESS 0x2c47 ===
  0x2c47	mov    	al, cl
  0x2c49	jmp    	0x2c81
  === BLOCK LINK ===
    0x2c4b
=== CODE BLOCK END ===

=== CODE BLOCK ADDRESS 0x2c4b ===
  0x2c4b	cmp    	ecx, 2
  0x2c4e	je     	0x2c7f
  === BLOCK LINK ===
    0x2c50
=== CODE BLOCK END ===

=== CODE BLOCK ADDRESS 0x2c50 ===
  0x2c50	dec    	eax
  0x2c51	lea    	edx, [esp + 0x30]
  0x2c55	mov    	byte ptr [esp + 0x30], 0
  0x2c5a	dec    	eax
  0x2c5b	lea    	ecx, [0xd77]
  === BLOCK LINK ===
    0x2c61
=== CODE BLOCK END ===

=== CODE BLOCK ADDRESS 0x2c61 ===
  0x2c61	call   	0x2d40
  === BLOCK LINK ===
    0x2c66
=== CODE BLOCK END ===

=== CODE BLOCK ADDRESS 0x2c66 ===
  0x2c66	test   	eax, eax
  0x2c68	js     	0x2c7f
  === BLOCK LINK ===
    0x2c6a
=== CODE BLOCK END ===

=== CODE BLOCK ADDRESS 0x2c6a ===
  0x2c6a	mov    	al, byte ptr [esp + 0x30]
  0x2c6e	mov    	cl, al
  0x2c70	neg    	cl
  0x2c72	sbb    	edx, edx
  0x2c74	add    	edx, 2
  === BLOCK LINK ===
    0x2c77
=== CODE BLOCK END ===

=== CODE BLOCK ADDRESS 0x2c77 ===
  0x2c77	mov    	dword ptr [0x4a53], edx
  0x2c7d	jmp    	0x2c81
  === BLOCK LINK ===
    0x2c7f
=== CODE BLOCK END ===

=== CODE BLOCK ADDRESS 0x2c7f ===
  0x2c7f	xor    	al, al
  0x2c81	dec    	eax
  0x2c82	add    	esp, 0x28
  0x2c85	ret    	
  0x2c86	int3   	
  === BLOCK LINK ===
    0x2c87
=== CODE BLOCK END ===

=== CODE BLOCK ADDRESS 0x2c87 ===
  0x2c87	int3   	
  0x2c88	int3   	
  0x2c89	int3   	
  0x2c8a	int3   	
  0x2c8b	int3   	
  === BLOCK LINK ===
    0x2c8c
=== CODE BLOCK END ===

=== CODE BLOCK ADDRESS 0x2c8c ===
  0x2c8c	dec    	eax
  0x2c8d	lea    	eax, [0x637d]
  0x2c93	jmp    	0x2c98
  === BLOCK LINK ===
    0x2c98
=== CODE BLOCK END ===

=== CODE BLOCK ADDRESS 0x2c98 ===
  0x2c98	dec    	eax
  0x2c99	mov    	dword ptr [esp + 8], ecx
  0x2c9d	dec    	eax
  0x2c9e	mov    	dword ptr [esp + 0x10], edx
  0x2ca2	dec    	esp
  === BLOCK LINK ===
    0x2ca3
=== CODE BLOCK END ===

=== CODE BLOCK ADDRESS 0x2ca3 ===
  0x2ca3	mov    	dword ptr [esp + 0x18], eax
  0x2ca7	dec    	esp
  0x2ca8	mov    	dword ptr [esp + 0x20], ecx
  0x2cac	dec    	eax
  0x2cad	sub    	esp, 0x68
  === BLOCK LINK ===
    0x2cb0
=== CODE BLOCK END ===

=== CODE BLOCK ADDRESS 0x2cb0 ===
  0x2cb0	movdqa  	xmmword ptr [esp + 0x20], xmm0
  0x2cb6	movdqa  	xmmword ptr [esp + 0x30], xmm1
  0x2cbc	movdqa  	xmmword ptr [esp + 0x40], xmm2
  0x2cc2	movdqa  	xmmword ptr [esp + 0x50], xmm3
  0x2cc8	dec    	eax
  === BLOCK LINK ===
    0x2cc9
=== CODE BLOCK END ===

=== CODE BLOCK ADDRESS 0x2cc9 ===
  0x2cc9	mov    	edx, eax
  0x2ccb	dec    	eax
  0x2ccc	lea    	ecx, [0x2796]
  0x2cd2	call   	0x1ee0
  === BLOCK LINK ===
    0x2cd7
=== CODE BLOCK END ===

=== CODE BLOCK ADDRESS 0x2cd7 ===
  0x2cd7	movdqa  	xmm0, xmmword ptr [esp + 0x20]
  0x2cdd	movdqa  	xmm1, xmmword ptr [esp + 0x30]
  0x2ce3	movdqa  	xmm2, xmmword ptr [esp + 0x40]
  0x2ce9	movdqa  	xmm3, xmmword ptr [esp + 0x50]
  0x2cef	dec    	eax
  === BLOCK LINK ===
    0x2cf0
=== CODE BLOCK END ===

=== CODE BLOCK ADDRESS 0x2cf0 ===
  0x2cf0	mov    	ecx, dword ptr [esp + 0x70]
  0x2cf4	dec    	eax
  0x2cf5	mov    	edx, dword ptr [esp + 0x78]
  0x2cf9	dec    	esp
  0x2cfa	mov    	eax, dword ptr [esp + 0x80]
  === BLOCK LINK ===
    0x2d01
=== CODE BLOCK END ===

=== CODE BLOCK ADDRESS 0x2d01 ===
  0x2d01	dec    	esp
  0x2d02	mov    	ecx, dword ptr [esp + 0x88]
  0x2d09	dec    	eax
  0x2d0a	add    	esp, 0x68
  0x2d0d	jmp    	0x2d0f
  === BLOCK LINK ===
    0x2d0f
=== CODE BLOCK END ===

=== CODE BLOCK ADDRESS 0x2d0f ===
  0x2d0f	jmp    	eax
  === BLOCK LINK ===
    0x2d11
=== CODE BLOCK END ===

=== CODE BLOCK ADDRESS 0x2d11 ===
  0x2d11	int3   	
  0x2d12	int3   	
  0x2d13	int3   	
  0x2d14	int3   	
  0x2d15	int3   	
  === BLOCK LINK ===
    0x2d16
=== CODE BLOCK END ===

=== CODE BLOCK ADDRESS 0x2d16 ===
  0x2d16	int3   	
  0x2d17	dec    	eax
  0x2d18	lea    	eax, [0x62ea]
  0x2d1e	jmp    	0x2c98
  === BLOCK LINK ===
    0x2d23
=== CODE BLOCK END ===

=== CODE BLOCK ADDRESS 0x2d23 ===
  0x2d23	int3   	
  0x2d24	int3   	
  0x2d25	int3   	
  0x2d26	int3   	
  0x2d27	int3   	
  === BLOCK LINK ===
    0x2d28
=== CODE BLOCK END ===

=== CODE BLOCK ADDRESS 0x2d28 ===
  0x2d28	int3   	
  0x2d29	dec    	eax
  0x2d2a	lea    	eax, [0x62d0]
  0x2d30	jmp    	0x2c98
  === BLOCK LINK ===
    0x2d35
=== CODE BLOCK END ===

=== CODE BLOCK ADDRESS 0x2d35 ===
  0x2d35	int3   	
  0x2d36	int3   	
  0x2d37	int3   	
  0x2d38	int3   	
  0x2d39	int3   	
  === BLOCK LINK ===
    0x2d3a
=== CODE BLOCK END ===

=== CODE BLOCK ADDRESS 0x2d3a ===
  0x2d3a	int3   	
  0x2d3b	int3   	
  0x2d3c	int3   	
  0x2d3d	int3   	
  0x2d3e	int3   	
  === BLOCK LINK ===
    0x2d3f
=== CODE BLOCK END ===

=== CODE BLOCK ADDRESS 0x2d3f ===
  0x2d3f	int3   	
  0x2d40	jmp    	dword ptr [0xe9a]
  === BLOCK LINK ===
    0x2d46
=== CODE BLOCK END ===

=== CODE BLOCK ADDRESS 0x2d46 ===
  0x2d46	int3   	
  0x2d47	int3   	
  0x2d48	int3   	
  0x2d49	int3   	
  0x2d4a	int3   	
  === BLOCK LINK ===
    0x2d4b
=== CODE BLOCK END ===

=== CODE BLOCK ADDRESS 0x2d4b ===
  0x2d4b	int3   	
  0x2d4c	dec    	eax
  0x2d4d	sub    	esp, 0x28
  0x2d50	dec    	ebp
  0x2d51	mov    	eax, dword ptr [ecx + 0x38]
  === BLOCK LINK ===
    0x2d54
=== CODE BLOCK END ===

=== CODE BLOCK ADDRESS 0x2d54 ===
  0x2d54	dec    	eax
  0x2d55	mov    	ecx, edx
  0x2d57	dec    	ecx
  0x2d58	mov    	edx, ecx
  0x2d5a	call   	0x2d70
  === BLOCK LINK ===
    0x2d5f
=== CODE BLOCK END ===

=== CODE BLOCK ADDRESS 0x2d5f ===
  0x2d5f	mov    	eax, 1
  0x2d64	dec    	eax
  0x2d65	add    	esp, 0x28
  0x2d68	ret    	
  0x2d69	int3   	
  === BLOCK LINK ===
    0x2d6a
=== CODE BLOCK END ===

=== CODE BLOCK ADDRESS 0x2d6a ===
  0x2d6a	int3   	
  0x2d6b	int3   	
  0x2d6c	int3   	
  0x2d6d	int3   	
  0x2d6e	int3   	
  === BLOCK LINK ===
    0x2d6f
=== CODE BLOCK END ===

=== CODE BLOCK ADDRESS 0x2d6f ===
  0x2d6f	int3   	
  0x2d70	inc    	eax
  0x2d71	push   	ebx
  0x2d72	inc    	ebp
  0x2d73	mov    	ebx, dword ptr [eax]
  === BLOCK LINK ===
    0x2d75
=== CODE BLOCK END ===

=== CODE BLOCK ADDRESS 0x2d75 ===
  0x2d75	dec    	eax
  0x2d76	mov    	ebx, edx
  0x2d78	inc    	ecx
  0x2d79	and    	ebx, 0xfffffff8
  0x2d7c	dec    	esp
  === BLOCK LINK ===
    0x2d7d
=== CODE BLOCK END ===

=== CODE BLOCK ADDRESS 0x2d7d ===
  0x2d7d	mov    	ecx, ecx
  0x2d7f	inc    	ecx
  0x2d80	test   	byte ptr [eax], 4
  0x2d83	dec    	esp
  0x2d84	mov    	edx, ecx
  === BLOCK LINK ===
    0x2d86
=== CODE BLOCK END ===

=== CODE BLOCK ADDRESS 0x2d86 ===
  0x2d86	je     	0x2d9b
  === BLOCK LINK ===
    0x2d88
=== CODE BLOCK END ===

=== CODE BLOCK ADDRESS 0x2d88 ===
  0x2d88	inc    	ecx
  0x2d89	mov    	eax, dword ptr [eax + 8]
  0x2d8c	dec    	ebp
  0x2d8d	arpl   	word ptr [eax + 4], dx
  0x2d90	neg    	eax
  === BLOCK LINK ===
    0x2d92
=== CODE BLOCK END ===

=== CODE BLOCK ADDRESS 0x2d92 ===
  0x2d92	dec    	esp
  0x2d93	add    	edx, ecx
  0x2d95	dec    	eax
  0x2d96	arpl   	ax, cx
  0x2d98	dec    	esp
  === BLOCK LINK ===
    0x2d99
=== CODE BLOCK END ===

=== CODE BLOCK ADDRESS 0x2d99 ===
  0x2d99	and    	edx, ecx
  0x2d9b	dec    	ecx
  0x2d9c	arpl   	bx, ax
  0x2d9e	dec    	edx
  0x2d9f	mov    	edx, dword ptr [eax + edx]
  === BLOCK LINK ===
    0x2da2
=== CODE BLOCK END ===

=== CODE BLOCK ADDRESS 0x2da2 ===
  0x2da2	dec    	eax
  0x2da3	mov    	eax, dword ptr [ebx + 0x10]
  0x2da6	mov    	ecx, dword ptr [eax + 8]
  0x2da9	dec    	eax
  0x2daa	mov    	eax, dword ptr [ebx + 8]
  === BLOCK LINK ===
    0x2dad
=== CODE BLOCK END ===

=== CODE BLOCK ADDRESS 0x2dad ===
  0x2dad	test   	byte ptr [ecx + eax + 3], 0xf
  0x2db2	je     	0x2dbf
  === BLOCK LINK ===
    0x2db4
=== CODE BLOCK END ===

=== CODE BLOCK ADDRESS 0x2db4 ===
  0x2db4	movzx  	eax, byte ptr [ecx + eax + 3]
  0x2db9	and    	eax, 0xfffffff0
  0x2dbc	dec    	esp
  0x2dbd	add    	ecx, eax
  0x2dbf	dec    	esp
  === BLOCK LINK ===
    0x2dc0
=== CODE BLOCK END ===

=== CODE BLOCK ADDRESS 0x2dc0 ===
  0x2dc0	xor    	ecx, edx
  0x2dc2	dec    	ecx
  0x2dc3	mov    	ecx, ecx
  0x2dc5	pop    	ebx
  0x2dc6	jmp    	0x2590
  === BLOCK LINK ===
    0x2dcb
=== CODE BLOCK END ===

=== CODE BLOCK ADDRESS 0x2dcb ===
  0x2dcb	int3   	
  0x2dcc	int3   	
  0x2dcd	int3   	
  0x2dce	int3   	
  0x2dcf	int3   	
  === BLOCK LINK ===
    0x2dd0
=== CODE BLOCK END ===

=== CODE BLOCK ADDRESS 0x2dd0 ===
  0x2dd0	int3   	
  0x2dd1	jmp    	dword ptr [0x10d9]
  === BLOCK LINK ===
    0x2dd7
=== CODE BLOCK END ===

=== CODE BLOCK ADDRESS 0x2dd7 ===
  0x2dd7	int3   	
  0x2dd8	int3   	
  0x2dd9	int3   	
  0x2dda	int3   	
  0x2ddb	int3   	
  === BLOCK LINK ===
    0x2ddc
=== CODE BLOCK END ===

=== CODE BLOCK ADDRESS 0x2ddc ===
  0x2ddc	int3   	
  0x2ddd	int3   	
  0x2dde	int3   	
  0x2ddf	int3   	
  0x2de0	int3   	
  === BLOCK LINK ===
    0x2de1
=== CODE BLOCK END ===

=== CODE BLOCK ADDRESS 0x2de1 ===
  0x2de1	int3   	
  0x2de2	int3   	
  0x2de3	int3   	
  0x2de4	int3   	
  0x2de5	int3   	
  === BLOCK LINK ===
    0x2de6
=== CODE BLOCK END ===

=== CODE BLOCK ADDRESS 0x2de6 ===
  0x2de6	nop    	word ptr [eax + eax]
  0x2df0	jmp    	eax
  === BLOCK LINK ===
    0x2df2
=== CODE BLOCK END ===

=== CODE BLOCK ADDRESS 0x2df2 ===
  0x2df2	int3   	
  0x2df3	int3   	
  0x2df4	int3   	
  0x2df5	int3   	
  0x2df6	int3   	
  === BLOCK LINK ===
    0x2df7
=== CODE BLOCK END ===

=== CODE BLOCK ADDRESS 0x2df7 ===
  0x2df7	int3   	
  0x2df8	nop    	dword ptr [eax + eax]
  0x2e00	jmp    	dword ptr [0x10c2]
  === BLOCK LINK ===
    0x2e06
=== CODE BLOCK END ===

=== CODE BLOCK ADDRESS 0x2e06 ===
  0x2e06	int3   	
  0x2e07	int3   	
  0x2e08	int3   	
  0x2e09	int3   	
  0x2e0a	int3   	
  === BLOCK LINK ===
    0x2e0b
=== CODE BLOCK END ===

=== CODE BLOCK ADDRESS 0x2e0b ===
  0x2e0b	int3   	
  0x2e0c	int3   	
  0x2e0d	int3   	
  0x2e0e	int3   	
  0x2e0f	int3   	
  === BLOCK LINK ===
    0x2e10
=== CODE BLOCK END ===

=== CODE BLOCK ADDRESS 0x2e10 ===
  0x2e10	dec    	eax
  0x2e11	mov    	dword ptr [esp + 0x10], edx
  0x2e15	push   	ebp
  0x2e16	dec    	eax
  0x2e17	sub    	esp, 0x20
  === BLOCK LINK ===
    0x2e1a
=== CODE BLOCK END ===

=== CODE BLOCK ADDRESS 0x2e1a ===
  0x2e1a	dec    	eax
  0x2e1b	mov    	ebp, edx
  0x2e1d	dec    	eax
  0x2e1e	mov    	ecx, dword ptr [ebp + 0x68]
  0x2e21	dec    	eax
  === BLOCK LINK ===
    0x2e22
=== CODE BLOCK END ===

=== CODE BLOCK ADDRESS 0x2e22 ===
  0x2e22	mov    	dword ptr [ebp + 0x68], ecx
  0x2e25	xor    	eax, eax
  0x2e27	dec    	eax
  0x2e28	add    	ecx, 1
  0x2e2b	je     	0x2e42
  === BLOCK LINK ===
    0x2e2d
=== CODE BLOCK END ===

=== CODE BLOCK ADDRESS 0x2e2d ===
  0x2e2d	dec    	eax
  0x2e2e	cmp    	ecx, -1
  0x2e31	ja     	0x2e3d
  === BLOCK LINK ===
    0x2e33
=== CODE BLOCK END ===

=== CODE BLOCK ADDRESS 0x2e33 ===
  0x2e33	call   	0x1f24
  === BLOCK LINK ===
    0x2e38
=== CODE BLOCK END ===

=== CODE BLOCK ADDRESS 0x2e38 ===
  0x2e38	dec    	eax
  0x2e39	test   	eax, eax
  0x2e3b	jne    	0x2e42
  === BLOCK LINK ===
    0x2e3d
=== CODE BLOCK END ===

=== CODE BLOCK ADDRESS 0x2e3d ===
  0x2e3d	call   	0x20c8
  === BLOCK LINK ===
    0x2e42
=== CODE BLOCK END ===

=== CODE BLOCK ADDRESS 0x2e42 ===
  0x2e42	dec    	eax
  0x2e43	mov    	dword ptr [ebp + 0x78], eax
  0x2e46	dec    	eax
  0x2e47	lea    	eax, [0xffffef38]
  0x2e4d	dec    	eax
  === BLOCK LINK ===
    0x2e4e
=== CODE BLOCK END ===

=== CODE BLOCK ADDRESS 0x2e4e ===
  0x2e4e	add    	esp, 0x20
  0x2e51	pop    	ebp
  0x2e52	ret    	
  0x2e53	int3   	
  0x2e54	dec    	eax
  === BLOCK LINK ===
    0x2e55
=== CODE BLOCK END ===

=== CODE BLOCK ADDRESS 0x2e55 ===
  0x2e55	mov    	dword ptr [esp + 0x10], edx
  0x2e59	push   	ebp
  0x2e5a	dec    	eax
  0x2e5b	sub    	esp, 0x20
  0x2e5e	dec    	eax
  === BLOCK LINK ===
    0x2e5f
=== CODE BLOCK END ===

=== CODE BLOCK ADDRESS 0x2e5f ===
  0x2e5f	mov    	ebp, edx
  0x2e61	inc    	ebp
  0x2e62	xor    	eax, eax
  0x2e64	mov    	dl, 1
  0x2e66	dec    	eax
  === BLOCK LINK ===
    0x2e67
=== CODE BLOCK END ===

=== CODE BLOCK ADDRESS 0x2e67 ===
  0x2e67	mov    	ecx, dword ptr [ebp + 0x60]
  0x2e6a	call   	0x1a5c
  === BLOCK LINK ===
    0x2e6f
=== CODE BLOCK END ===

=== CODE BLOCK ADDRESS 0x2e6f ===
  0x2e6f	xor    	edx, edx
  0x2e71	xor    	ecx, ecx
  0x2e73	call   	0x26cc
  === BLOCK LINK ===
    0x2e78
=== CODE BLOCK END ===

=== CODE BLOCK ADDRESS 0x2e78 ===
  0x2e78	nop    	
  0x2e79	int3   	
  0x2e7a	int3   	
  0x2e7b	int3   	
  0x2e7c	int3   	
  === BLOCK LINK ===
    0x2e7d
=== CODE BLOCK END ===

=== CODE BLOCK ADDRESS 0x2e7d ===
  0x2e7d	int3   	
  0x2e7e	int3   	
  0x2e7f	inc    	eax
  0x2e80	push   	ebp
  0x2e81	dec    	eax
  === BLOCK LINK ===
    0x2e82
=== CODE BLOCK END ===

=== CODE BLOCK ADDRESS 0x2e82 ===
  0x2e82	sub    	esp, 0x20
  0x2e85	dec    	eax
  0x2e86	mov    	ebp, edx
  0x2e88	dec    	eax
  0x2e89	mov    	eax, dword ptr [ecx]
  === BLOCK LINK ===
    0x2e8b
=== CODE BLOCK END ===

=== CODE BLOCK ADDRESS 0x2e8b ===
  0x2e8b	dec    	eax
  0x2e8c	mov    	edx, ecx
  0x2e8e	mov    	ecx, dword ptr [eax]
  0x2e90	call   	0x279e
  === BLOCK LINK ===
    0x2e95
=== CODE BLOCK END ===

=== CODE BLOCK ADDRESS 0x2e95 ===
  0x2e95	nop    	
  0x2e96	dec    	eax
  0x2e97	add    	esp, 0x20
  0x2e9a	pop    	ebp
  0x2e9b	ret    	
  === BLOCK LINK ===
    0x2e9c
=== CODE BLOCK END ===

=== CODE BLOCK ADDRESS 0x2e9c ===
  0x2e9c	int3   	
  0x2e9d	int3   	
  0x2e9e	int3   	
  0x2e9f	int3   	
  0x2ea0	int3   	
  === BLOCK LINK ===
    0x2ea1
=== CODE BLOCK END ===

=== CODE BLOCK ADDRESS 0x2ea1 ===
  0x2ea1	int3   	
  0x2ea2	int3   	
  0x2ea3	inc    	eax
  0x2ea4	push   	ebp
  0x2ea5	dec    	eax
  === BLOCK LINK ===
    0x2ea6
=== CODE BLOCK END ===

=== CODE BLOCK ADDRESS 0x2ea6 ===
  0x2ea6	sub    	esp, 0x20
  0x2ea9	dec    	eax
  0x2eaa	mov    	ebp, edx
  0x2eac	mov    	ecx, 8
  0x2eb1	call   	0x2c13
  === BLOCK LINK ===
    0x2eb6
=== CODE BLOCK END ===

=== CODE BLOCK ADDRESS 0x2eb6 ===
  0x2eb6	nop    	
  0x2eb7	dec    	eax
  0x2eb8	add    	esp, 0x20
  0x2ebb	pop    	ebp
  0x2ebc	ret    	
  === BLOCK LINK ===
    0x2ebd
=== CODE BLOCK END ===

=== CODE BLOCK ADDRESS 0x2ebd ===
  0x2ebd	int3   	
  0x2ebe	int3   	
  0x2ebf	int3   	
  0x2ec0	int3   	
  0x2ec1	int3   	
  === BLOCK LINK ===
    0x2ec2
=== CODE BLOCK END ===

=== CODE BLOCK ADDRESS 0x2ec2 ===
  0x2ec2	int3   	
  0x2ec3	int3   	
  0x2ec4	int3   	
  0x2ec5	int3   	
  0x2ec6	int3   	
  === BLOCK LINK ===
    0x2ec7
=== CODE BLOCK END ===

=== CODE BLOCK ADDRESS 0x2ec7 ===
  0x2ec7	int3   	
  0x2ec8	int3   	
  0x2ec9	int3   	
  0x2eca	int3   	
  0x2ecb	int3   	
  === BLOCK LINK ===
    0x2ecc
=== CODE BLOCK END ===

=== CODE BLOCK ADDRESS 0x2ecc ===
  0x2ecc	int3   	
  0x2ecd	int3   	
  0x2ece	int3   	
  0x2ecf	int3   	
  0x2ed0	inc    	eax
  === BLOCK LINK ===
    0x2ed1
=== CODE BLOCK END ===

=== CODE BLOCK ADDRESS 0x2ed1 ===
  0x2ed1	push   	ebp
  0x2ed2	dec    	eax
  0x2ed3	sub    	esp, 0x20
  0x2ed6	dec    	eax
  0x2ed7	mov    	ebp, edx
  === BLOCK LINK ===
    0x2ed9
=== CODE BLOCK END ===

=== CODE BLOCK ADDRESS 0x2ed9 ===
  0x2ed9	dec    	eax
  0x2eda	mov    	eax, dword ptr [ecx]
  0x2edc	xor    	ecx, ecx
  0x2ede	cmp    	dword ptr [eax], 0xc0000005
  0x2ee4	sete   	cl
  === BLOCK LINK ===
    0x2ee7
=== CODE BLOCK END ===

=== CODE BLOCK ADDRESS 0x2ee7 ===
  0x2ee7	mov    	eax, ecx
  0x2ee9	dec    	eax
  0x2eea	add    	esp, 0x20
  0x2eed	pop    	ebp
  0x2eee	ret    	
  === BLOCK LINK ===
    0x2eef
=== CODE BLOCK END ===

=== CODE BLOCK ADDRESS 0x2eef ===
  0x2eef	int3   	
  0x2ef0	int3   	
  0x2ef1	int3   	
  0x2ef2	int3   	
  0x2ef3	int3   	
  === BLOCK LINK ===
    0x2ef4
=== CODE BLOCK END ===

=== CODE BLOCK ADDRESS 0x2ef4 ===
  0x2ef4	int3   	
  0x2ef5	int3   	
  0x2ef6	int3   	
  0x2ef7	int3   	
  0x2ef8	int3   	
  === BLOCK LINK ===
    0x2ef9
=== CODE BLOCK END ===

=== CODE BLOCK ADDRESS 0x2ef9 ===
  0x2ef9	int3   	
  0x2efa	int3   	
  0x2efb	int3   	
  0x2efc	int3   	
  0x2efd	int3   	
  === BLOCK LINK ===
    0x2efe
=== CODE BLOCK END ===

=== CODE BLOCK ADDRESS 0x2efe ===
  0x2efe	int3   	
  0x2eff	int3   	
  0x2f00	dec    	eax
  0x2f01	lea    	eax, [0xae1]
  0x2f07	dec    	eax
  === BLOCK LINK ===
    0x2f08
=== CODE BLOCK END ===

=== CODE BLOCK ADDRESS 0x2f08 ===
  0x2f08	mov    	dword ptr [0x40fa], eax
  0x2f0e	ret    	
  0x2f0f	int3   	
  0x2f10	int3   	
  0x2f11	int3   	
  === BLOCK LINK ===
    0x2f12
=== CODE BLOCK END ===

=== CODE BLOCK ADDRESS 0x1644 ===
  0x1644	dec    	eax
  0x1645	mov    	ecx, dword ptr [ebp - 0x80]
  0x1648	dec    	eax
  0x1649	test   	ecx, ecx
  === BLOCK LINK ===
    0x164b
=== CODE BLOCK END ===

=== CODE BLOCK ADDRESS 0x2f12 ===
  0x2f12	int3   	
  0x2f13	int3   	
  0x2f14	int3   	
  0x2f15	int3   	
  0x2f16	int3   	
  === BLOCK LINK ===
    0x2f17
=== CODE BLOCK END ===

=== CODE BLOCK ADDRESS 0x2f17 ===
  0x2f17	int3   	
  0x2f18	int3   	
  0x2f19	int3   	
  0x2f1a	int3   	
  0x2f1b	int3   	
  === BLOCK LINK ===
    0x2f1c
=== CODE BLOCK END ===

=== CODE BLOCK ADDRESS 0x2f1c ===
  0x2f1c	int3   	
  0x2f1d	int3   	
  0x2f1e	int3   	
  0x2f1f	int3   	
  0x2f20	dec    	eax
  === BLOCK LINK ===
    0x2f21
=== CODE BLOCK END ===

=== CODE BLOCK ADDRESS 0x2f21 ===
  0x2f21	lea    	eax, [0xac1]
  0x2f27	dec    	eax
  0x2f28	mov    	dword ptr [0x40e2], eax
  0x2f2e	ret    	
  0x2f2f	int3   	
  === BLOCK LINK ===
    0x2f30
=== CODE BLOCK END ===

=== CODE BLOCK ADDRESS 0x1659 ===
  0x1659	dec    	eax
  0x165a	mov    	ecx, ebx
  0x165c	dec    	eax
  0x165d	call   	dword ptr [0x25f5]
  === BLOCK LINK ===
    0x1663
=== CODE BLOCK END ===

=== CODE BLOCK ADDRESS 0x2f30 ===
  0x2f30	int3   	
  0x2f31	int3   	
  0x2f32	int3   	
  0x2f33	int3   	
  0x2f34	int3   	
  === BLOCK LINK ===
    0x2f35
=== CODE BLOCK END ===

=== CODE BLOCK ADDRESS 0x2f35 ===
  0x2f35	int3   	
  0x2f36	int3   	
  0x2f37	int3   	
  0x2f38	int3   	
  0x2f39	int3   	
  === BLOCK LINK ===
    0x2f3a
=== CODE BLOCK END ===

=== CODE BLOCK ADDRESS 0x2f3a ===
  0x2f3a	int3   	
  0x2f3b	int3   	
  0x2f3c	int3   	
  0x2f3d	int3   	
  0x2f3e	int3   	
  === BLOCK LINK ===
    0x2f3f
=== CODE BLOCK END ===

=== CODE BLOCK ADDRESS 0x2f3f ===
  0x2f3f	int3   	
  0x2f40	dec    	eax
  0x2f41	lea    	eax, [0xaa1]
  0x2f47	dec    	eax
  0x2f48	mov    	dword ptr [0x40b2], eax
  === BLOCK LINK ===
    0x2f4e
=== CODE BLOCK END ===

=== CODE BLOCK ADDRESS 0x2f4e ===
  0x2f4e	ret    	
  0x2f4f	int3   	
  0x2f50	add    	byte ptr [eax], al
  0x2f52	add    	byte ptr [eax], al
  0x2f54	add    	byte ptr [eax], al
  === BLOCK LINK ===
    0x2f56
=== CODE BLOCK END ===

=== CODE BLOCK ADDRESS 0x2590 ===
  0x2590	dec    	eax
  0x2591	cmp    	ecx, dword ptr [0x4b51]
  === BLOCK LINK ===
    0x2597
=== CODE BLOCK END ===

=== CODE BLOCK ADDRESS 0x2f56 ===
  0x2f56	add    	byte ptr [eax], al
  0x2f58	add    	byte ptr [eax], al
  0x2f5a	add    	byte ptr [eax], al
  0x2f5c	add    	byte ptr [eax], al
  0x2f5e	add    	byte ptr [eax], al
  === BLOCK LINK ===
    0x2f60
=== CODE BLOCK END ===

=== CODE BLOCK ADDRESS 0x2f60 ===
  0x2f60	add    	byte ptr [eax], al
  0x2f62	add    	byte ptr [eax], al
  0x2f64	add    	byte ptr [eax], al
  0x2f66	add    	byte ptr [eax], al
  0x2f68	add    	byte ptr [eax], al
  === BLOCK LINK ===
    0x2f6a
=== CODE BLOCK END ===

=== CODE BLOCK ADDRESS 0x2f6a ===
  0x2f6a	add    	byte ptr [eax], al
  0x2f6c	add    	byte ptr [eax], al
  0x2f6e	add    	byte ptr [eax], al
  0x2f70	add    	byte ptr [eax], al
  0x2f72	add    	byte ptr [eax], al
  === BLOCK LINK ===
    0x2f74
=== CODE BLOCK END ===

=== CODE BLOCK ADDRESS 0x2f74 ===
  0x2f74	add    	byte ptr [eax], al
  0x2f76	add    	byte ptr [eax], al
  0x2f78	add    	byte ptr [eax], al
  0x2f7a	add    	byte ptr [eax], al
  0x2f7c	add    	byte ptr [eax], al
  === BLOCK LINK ===
    0x2f7e
=== CODE BLOCK END ===

=== CODE BLOCK ADDRESS 0x2f7e ===
  0x2f7e	add    	byte ptr [eax], al
  0x2f80	add    	byte ptr [eax], al
  0x2f82	add    	byte ptr [eax], al
  0x2f84	add    	byte ptr [eax], al
  0x2f86	add    	byte ptr [eax], al
  === BLOCK LINK ===
    0x2f88
=== CODE BLOCK END ===

=== CODE BLOCK ADDRESS 0x2f88 ===
  0x2f88	add    	byte ptr [eax], al
  0x2f8a	add    	byte ptr [eax], al
  0x2f8c	add    	byte ptr [eax], al
  0x2f8e	add    	byte ptr [eax], al
  0x2f90	add    	byte ptr [eax], al
  === BLOCK LINK ===
    0x2f92
=== CODE BLOCK END ===

=== CODE BLOCK ADDRESS 0x2f92 ===
  0x2f92	add    	byte ptr [eax], al
  0x2f94	add    	byte ptr [eax], al
  0x2f96	add    	byte ptr [eax], al
  0x2f98	add    	byte ptr [eax], al
  0x2f9a	add    	byte ptr [eax], al
  === BLOCK LINK ===
    0x2f9c
=== CODE BLOCK END ===

=== CODE BLOCK ADDRESS 0x2f9c ===
  0x2f9c	add    	byte ptr [eax], al
  0x2f9e	add    	byte ptr [eax], al
  0x2fa0	add    	byte ptr [eax], al
  0x2fa2	add    	byte ptr [eax], al
  0x2fa4	add    	byte ptr [eax], al
  === BLOCK LINK ===
    0x2fa6
=== CODE BLOCK END ===

=== CODE BLOCK ADDRESS 0x2fa6 ===
  0x2fa6	add    	byte ptr [eax], al
  0x2fa8	add    	byte ptr [eax], al
  0x2faa	add    	byte ptr [eax], al
  0x2fac	add    	byte ptr [eax], al
  0x2fae	add    	byte ptr [eax], al
  === BLOCK LINK ===
    0x2fb0
=== CODE BLOCK END ===

=== CODE BLOCK ADDRESS 0x2fb0 ===
  0x2fb0	add    	byte ptr [eax], al
  0x2fb2	add    	byte ptr [eax], al
  0x2fb4	add    	byte ptr [eax], al
  0x2fb6	add    	byte ptr [eax], al
  0x2fb8	add    	byte ptr [eax], al
  === BLOCK LINK ===
    0x2fba
=== CODE BLOCK END ===

=== CODE BLOCK ADDRESS 0x2fba ===
  0x2fba	add    	byte ptr [eax], al
  0x2fbc	add    	byte ptr [eax], al
  0x2fbe	add    	byte ptr [eax], al
  0x2fc0	add    	byte ptr [eax], al
  0x2fc2	add    	byte ptr [eax], al
  === BLOCK LINK ===
    0x2fc4
=== CODE BLOCK END ===

=== CODE BLOCK ADDRESS 0x2fc4 ===
  0x2fc4	add    	byte ptr [eax], al
  0x2fc6	add    	byte ptr [eax], al
  0x2fc8	add    	byte ptr [eax], al
  0x2fca	add    	byte ptr [eax], al
  0x2fcc	add    	byte ptr [eax], al
  === BLOCK LINK ===
    0x2fce
=== CODE BLOCK END ===

=== CODE BLOCK ADDRESS 0x2fce ===
  0x2fce	add    	byte ptr [eax], al
  0x2fd0	add    	byte ptr [eax], al
  0x2fd2	add    	byte ptr [eax], al
  0x2fd4	add    	byte ptr [eax], al
  0x2fd6	add    	byte ptr [eax], al
  === BLOCK LINK ===
    0x2fd8
=== CODE BLOCK END ===

=== CODE BLOCK ADDRESS 0x2fd8 ===
  0x2fd8	add    	byte ptr [eax], al
  0x2fda	add    	byte ptr [eax], al
  0x2fdc	add    	byte ptr [eax], al
  0x2fde	add    	byte ptr [eax], al
  0x2fe0	add    	byte ptr [eax], al
  === BLOCK LINK ===
    0x2fe2
=== CODE BLOCK END ===

=== CODE BLOCK ADDRESS 0x2fe2 ===
  0x2fe2	add    	byte ptr [eax], al
  0x2fe4	add    	byte ptr [eax], al
  0x2fe6	add    	byte ptr [eax], al
  0x2fe8	add    	byte ptr [eax], al
  0x2fea	add    	byte ptr [eax], al
  === BLOCK LINK ===
    0x2fec
=== CODE BLOCK END ===

=== CODE BLOCK ADDRESS 0x2fec ===
  0x2fec	add    	byte ptr [eax], al
  0x2fee	add    	byte ptr [eax], al
  0x2ff0	add    	byte ptr [eax], al
  0x2ff2	add    	byte ptr [eax], al
  0x2ff4	add    	byte ptr [eax], al
  === BLOCK LINK ===
    0x2ff6
=== CODE BLOCK END ===

=== CODE BLOCK ADDRESS 0x2ff6 ===
  0x2ff6	add    	byte ptr [eax], al
  0x2ff8	add    	byte ptr [eax], al
  0x2ffa	add    	byte ptr [eax], al
  0x2ffc	add    	byte ptr [eax], al
=== CODE BLOCK END ===

=== DATA BLOCK ADDRESS 0x3000 ===
  0x3000	50 20 00 40 01 00 00 00 c0 26 00 40 01 00 00 00 	P 0@00000&0@0000
  0x3010	90 20 00 40 01 00 00 00 c0 26 00 40 01 00 00 00 	0 0@00000&0@0000
  0x3020	05 00 00 00 00 00 00 00 08 40 00 40 01 00 00 00 	000000000@0@0000
  0x3030	b7 00 00 00 00 00 00 00 20 40 00 40 01 00 00 00 	00000000 @0@0000
  0x3040	14 00 00 00 00 00 00 00 30 40 00 40 01 00 00 00 	000000000@0@0000
  0x3050	6f 00 00 00 00 00 00 00 40 40 00 40 01 00 00 00 	o0000000@@0@0000
  0x3060	aa 00 00 00 00 00 00 00 58 40 00 40 01 00 00 00 	00000000X@0@0000
  0x3070	8e 00 00 00 00 00 00 00 58 40 00 40 01 00 00 00 	00000000X@0@0000
  0x3080	52 00 00 00 00 00 00 00 08 40 00 40 01 00 00 00 	R00000000@0@0000
  0x3090	f3 03 00 00 00 00 00 00 70 40 00 40 01 00 00 00 	00000000p@0@0000
  0x30a0	f4 03 00 00 00 00 00 00 70 40 00 40 01 00 00 00 	00000000p@0@0000
  0x30b0	f5 03 00 00 00 00 00 00 70 40 00 40 01 00 00 00 	00000000p@0@0000
  0x30c0	10 00 00 00 00 00 00 00 08 40 00 40 01 00 00 00 	000000000@0@0000
  0x30d0	37 00 00 00 00 00 00 00 30 40 00 40 01 00 00 00 	700000000@0@0000
  0x30e0	64 09 00 00 00 00 00 00 58 40 00 40 01 00 00 00 	d0000000X@0@0000
  0x30f0	91 00 00 00 00 00 00 00 80 40 00 40 01 00 00 00 	000000000@0@0000
  0x3100	0b 01 00 00 00 00 00 00 98 40 00 40 01 00 00 00 	000000000@0@0000
  0x3110	70 00 00 00 00 00 00 00 b0 40 00 40 01 00 00 00 	p00000000@0@0000
  0x3120	50 00 00 00 00 00 00 00 20 40 00 40 01 00 00 00 	P0000000 @0@0000
  0x3130	02 00 00 00 00 00 00 00 c8 40 00 40 01 00 00 00 	000000000@0@0000
  0x3140	27 00 00 00 00 00 00 00 b0 40 00 40 01 00 00 00 	'00000000@0@0000
  0x3150	0c 00 00 00 00 00 00 00 08 40 00 40 01 00 00 00 	000000000@0@0000
  0x3160	0f 00 00 00 00 00 00 00 30 40 00 40 01 00 00 00 	000000000@0@0000
  0x3170	01 00 00 00 00 00 00 00 e8 40 00 40 01 00 00 00 	000000000@0@0000
  0x3180	06 00 00 00 00 00 00 00 98 40 00 40 01 00 00 00 	000000000@0@0000
  0x3190	7b 00 00 00 00 00 00 00 98 40 00 40 01 00 00 00 	{00000000@0@0000
  0x31a0	21 00 00 00 00 00 00 00 00 41 00 40 01 00 00 00 	!00000000A0@0000
  0x31b0	d4 00 00 00 00 00 00 00 00 41 00 40 01 00 00 00 	000000000A0@0000
  0x31c0	83 00 00 00 00 00 00 00 98 40 00 40 01 00 00 00 	000000000@0@0000
  0x31d0	e6 03 00 00 00 00 00 00 08 40 00 40 01 00 00 00 	000000000@0@0000
  0x31e0	08 00 00 00 00 00 00 00 18 41 00 40 01 00 00 00 	000000000A0@0000
  0x31f0	15 00 00 00 00 00 00 00 30 41 00 40 01 00 00 00 	000000000A0@0000
  0x3200	11 00 00 00 00 00 00 00 50 41 00 40 01 00 00 00 	00000000PA0@0000
  0x3210	6e 00 00 00 00 00 00 00 70 40 00 40 01 00 00 00 	n0000000p@0@0000
  0x3220	61 09 00 00 00 00 00 00 58 40 00 40 01 00 00 00 	a0000000X@0@0000
  0x3230	e3 03 00 00 00 00 00 00 68 41 00 40 01 00 00 00 	00000000hA0@0000
  0x3240	0e 00 00 00 00 00 00 00 18 41 00 40 01 00 00 00 	000000000A0@0000
  0x3250	03 00 00 00 00 00 00 00 c8 40 00 40 01 00 00 00 	000000000@0@0000
  0x3260	1e 00 00 00 00 00 00 00 70 40 00 40 01 00 00 00 	00000000p@0@0000
  0x3270	d5 04 00 00 00 00 00 00 30 41 00 40 01 00 00 00 	000000000A0@0000
  0x3280	19 00 00 00 00 00 00 00 70 40 00 40 01 00 00 00 	00000000p@0@0000
  0x3290	20 00 00 00 00 00 00 00 08 40 00 40 01 00 00 00 	 00000000@0@0000
  0x32a0	04 00 00 00 00 00 00 00 80 41 00 40 01 00 00 00 	000000000A0@0000
  0x32b0	1d 00 00 00 00 00 00 00 70 40 00 40 01 00 00 00 	00000000p@0@0000
  0x32c0	13 00 00 00 00 00 00 00 08 40 00 40 01 00 00 00 	000000000@0@0000
  0x32d0	1d 27 00 00 00 00 00 00 98 41 00 40 01 00 00 00 	0'0000000A0@0000
  0x32e0	40 27 00 00 00 00 00 00 b0 41 00 40 01 00 00 00 	@'0000000A0@0000
  0x32f0	41 27 00 00 00 00 00 00 c0 41 00 40 01 00 00 00 	A'0000000A0@0000
  0x3300	3f 27 00 00 00 00 00 00 d8 41 00 40 01 00 00 00 	?'0000000A0@0000
  0x3310	35 27 00 00 00 00 00 00 f8 41 00 40 01 00 00 00 	5'0000000A0@0000
  0x3320	19 27 00 00 00 00 00 00 18 42 00 40 01 00 00 00 	0'0000000B0@0000
  0x3330	45 27 00 00 00 00 00 00 30 42 00 40 01 00 00 00 	E'0000000B0@0000
  0x3340	4d 27 00 00 00 00 00 00 48 42 00 40 01 00 00 00 	M'000000HB0@0000
  0x3350	46 27 00 00 00 00 00 00 60 42 00 40 01 00 00 00 	F'000000`B0@0000
  0x3360	37 27 00 00 00 00 00 00 78 42 00 40 01 00 00 00 	7'000000xB0@0000
  0x3370	1e 27 00 00 00 00 00 00 98 42 00 40 01 00 00 00 	0'0000000B0@0000
  0x3380	51 27 00 00 00 00 00 00 a8 42 00 40 01 00 00 00 	Q'0000000B0@0000
  0x3390	34 27 00 00 00 00 00 00 c0 42 00 40 01 00 00 00 	4'0000000B0@0000
  0x33a0	14 27 00 00 00 00 00 00 d8 42 00 40 01 00 00 00 	0'0000000B0@0000
  0x33b0	26 27 00 00 00 00 00 00 e8 42 00 40 01 00 00 00 	&'0000000B0@0000
  0x33c0	48 27 00 00 00 00 00 00 00 43 00 40 01 00 00 00 	H'0000000C0@0000
  0x33d0	28 27 00 00 00 00 00 00 18 43 00 40 01 00 00 00 	('0000000C0@0000
  0x33e0	38 27 00 00 00 00 00 00 30 43 00 40 01 00 00 00 	8'0000000C0@0000
  0x33f0	4f 27 00 00 00 00 00 00 40 43 00 40 01 00 00 00 	O'000000@C0@0000
  0x3400	42 27 00 00 00 00 00 00 58 43 00 40 01 00 00 00 	B'000000XC0@0000
  0x3410	44 27 00 00 00 00 00 00 68 43 00 40 01 00 00 00 	D'000000hC0@0000
  0x3420	43 27 00 00 00 00 00 00 78 43 00 40 01 00 00 00 	C'000000xC0@0000
  0x3430	47 27 00 00 00 00 00 00 90 43 00 40 01 00 00 00 	G'0000000C0@0000
  0x3440	3a 27 00 00 00 00 00 00 a0 43 00 40 01 00 00 00 	:'0000000C0@0000
  0x3450	49 27 00 00 00 00 00 00 b8 43 00 40 01 00 00 00 	I'0000000C0@0000
  0x3460	36 27 00 00 00 00 00 00 c8 43 00 40 01 00 00 00 	6'0000000C0@0000
  0x3470	3d 27 00 00 00 00 00 00 d8 43 00 40 01 00 00 00 	='0000000C0@0000
  0x3480	3b 27 00 00 00 00 00 00 f0 43 00 40 01 00 00 00 	;'0000000C0@0000
  0x3490	39 27 00 00 00 00 00 00 08 44 00 40 01 00 00 00 	9'0000000D0@0000
  0x34a0	4c 27 00 00 00 00 00 00 20 44 00 40 01 00 00 00 	L'000000 D0@0000
  0x34b0	33 27 00 00 00 00 00 00 30 44 00 40 01 00 00 00 	3'0000000D0@0000
  0x34c0	00 00 00 00 00 00 00 00 00 00 00 00 00 00 00 00 	0000000000000000
  0x34d0	66 00 00 00 00 00 00 00 48 44 00 40 01 00 00 00 	f0000000HD0@0000
  0x34e0	64 00 00 00 00 00 00 00 68 44 00 40 01 00 00 00 	d0000000hD0@0000
  0x34f0	65 00 00 00 00 00 00 00 78 44 00 40 01 00 00 00 	e0000000xD0@0000
  0x3500	71 00 00 00 00 00 00 00 90 44 00 40 01 00 00 00 	q00000000D0@0000
  0x3510	07 00 00 00 00 00 00 00 a8 44 00 40 01 00 00 00 	000000000D0@0000
  0x3520	21 00 00 00 00 00 00 00 c0 44 00 40 01 00 00 00 	!00000000D0@0000
  0x3530	0e 00 00 00 00 00 00 00 d8 44 00 40 01 00 00 00 	000000000D0@0000
  0x3540	09 00 00 00 00 00 00 00 e8 44 00 40 01 00 00 00 	000000000D0@0000
  0x3550	68 00 00 00 00 00 00 00 00 45 00 40 01 00 00 00 	h00000000E0@0000
  0x3560	20 00 00 00 00 00 00 00 10 45 00 40 01 00 00 00 	 00000000E0@0000
  0x3570	6a 00 00 00 00 00 00 00 20 45 00 40 01 00 00 00 	j0000000 E0@0000
  0x3580	67 00 00 00 00 00 00 00 38 45 00 40 01 00 00 00 	g00000008E0@0000
  0x3590	6b 00 00 00 00 00 00 00 58 45 00 40 01 00 00 00 	k0000000XE0@0000
  0x35a0	6c 00 00 00 00 00 00 00 70 45 00 40 01 00 00 00 	l0000000pE0@0000
  0x35b0	12 00 00 00 00 00 00 00 50 41 00 40 01 00 00 00 	00000000PA0@0000
  0x35c0	6d 00 00 00 00 00 00 00 88 45 00 40 01 00 00 00 	m00000000E0@0000
  0x35d0	10 00 00 00 00 00 00 00 58 40 00 40 01 00 00 00 	00000000X@0@0000
  0x35e0	29 00 00 00 00 00 00 00 80 40 00 40 01 00 00 00 	)00000000@0@0000
  0x35f0	08 00 00 00 00 00 00 00 a8 45 00 40 01 00 00 00 	000000000E0@0000
  0x3600	11 00 00 00 00 00 00 00 20 40 00 40 01 00 00 00 	00000000 @0@0000
  0x3610	1b 00 00 00 00 00 00 00 c0 45 00 40 01 00 00 00 	000000000E0@0000
  0x3620	26 00 00 00 00 00 00 00 40 40 00 40 01 00 00 00 	&0000000@@0@0000
  0x3630	28 00 00 00 00 00 00 00 e8 40 00 40 01 00 00 00 	(00000000@0@0000
  0x3640	6e 00 00 00 00 00 00 00 d0 45 00 40 01 00 00 00 	n00000000E0@0000
  0x3650	6f 00 00 00 00 00 00 00 e8 45 00 40 01 00 00 00 	o00000000E0@0000
  0x3660	2a 00 00 00 00 00 00 00 00 46 00 40 01 00 00 00 	*00000000F0@0000
  0x3670	19 00 00 00 00 00 00 00 18 46 00 40 01 00 00 00 	000000000F0@0000
  0x3680	04 00 00 00 00 00 00 00 d8 42 00 40 01 00 00 00 	000000000B0@0000
  0x3690	16 00 00 00 00 00 00 00 98 40 00 40 01 00 00 00 	000000000@0@0000
  0x36a0	1d 00 00 00 00 00 00 00 40 46 00 40 01 00 00 00 	00000000@F0@0000
  0x36b0	05 00 00 00 00 00 00 00 70 40 00 40 01 00 00 00 	00000000p@0@0000
  0x36c0	15 00 00 00 00 00 00 00 50 46 00 40 01 00 00 00 	00000000PF0@0000
  0x36d0	73 00 00 00 00 00 00 00 60 46 00 40 01 00 00 00 	s0000000`F0@0000
  0x36e0	74 00 00 00 00 00 00 00 70 46 00 40 01 00 00 00 	t0000000pF0@0000
  0x36f0	75 00 00 00 00 00 00 00 80 46 00 40 01 00 00 00 	u00000000F0@0000
  0x3700	76 00 00 00 00 00 00 00 90 46 00 40 01 00 00 00 	v00000000F0@0000
  0x3710	77 00 00 00 00 00 00 00 a8 46 00 40 01 00 00 00 	w00000000F0@0000
  0x3720	0a 00 00 00 00 00 00 00 b8 46 00 40 01 00 00 00 	000000000F0@0000
  0x3730	79 00 00 00 00 00 00 00 d0 46 00 40 01 00 00 00 	y00000000F0@0000
  0x3740	27 00 00 00 00 00 00 00 00 41 00 40 01 00 00 00 	'00000000A0@0000
  0x3750	78 00 00 00 00 00 00 00 d8 46 00 40 01 00 00 00 	x00000000F0@0000
  0x3760	7a 00 00 00 00 00 00 00 f0 46 00 40 01 00 00 00 	z00000000F0@0000
  0x3770	7b 00 00 00 00 00 00 00 00 47 00 40 01 00 00 00 	{00000000G0@0000
  0x3780	1c 00 00 00 00 00 00 00 b0 40 00 40 01 00 00 00 	000000000@0@0000
  0x3790	7c 00 00 00 00 00 00 00 18 47 00 40 01 00 00 00 	|00000000G0@0000
  0x37a0	06 00 00 00 00 00 00 00 30 47 00 40 01 00 00 00 	000000000G0@0000
  0x37b0	13 00 00 00 00 00 00 00 30 40 00 40 01 00 00 00 	000000000@0@0000
  0x37c0	02 00 00 00 00 00 00 00 c8 40 00 40 01 00 00 00 	000000000@0@0000
  0x37d0	03 00 00 00 00 00 00 00 50 47 00 40 01 00 00 00 	00000000PG0@0000
  0x37e0	14 00 00 00 00 00 00 00 60 47 00 40 01 00 00 00 	00000000`G0@0000
  0x37f0	80 00 00 00 00 00 00 00 70 47 00 40 01 00 00 00 	00000000pG0@0000
  0x3800	7d 00 00 00 00 00 00 00 80 47 00 40 01 00 00 00 	}00000000G0@0000
  0x3810	7e 00 00 00 00 00 00 00 90 47 00 40 01 00 00 00 	~00000000G0@0000
  0x3820	0c 00 00 00 00 00 00 00 18 41 00 40 01 00 00 00 	000000000A0@0000
  0x3830	81 00 00 00 00 00 00 00 a0 47 00 40 01 00 00 00 	000000000G0@0000
  0x3840	69 00 00 00 00 00 00 00 68 41 00 40 01 00 00 00 	i0000000hA0@0000
  0x3850	70 00 00 00 00 00 00 00 b0 47 00 40 01 00 00 00 	p00000000G0@0000
  0x3860	01 00 00 00 00 00 00 00 c8 47 00 40 01 00 00 00 	000000000G0@0000
  0x3870	82 00 00 00 00 00 00 00 e0 47 00 40 01 00 00 00 	000000000G0@0000
  0x3880	8c 00 00 00 00 00 00 00 f8 47 00 40 01 00 00 00 	000000000G0@0000
  0x3890	85 00 00 00 00 00 00 00 10 48 00 40 01 00 00 00 	000000000H0@0000
  0x38a0	0d 00 00 00 00 00 00 00 08 40 00 40 01 00 00 00 	000000000@0@0000
  0x38b0	86 00 00 00 00 00 00 00 20 48 00 40 01 00 00 00 	00000000 H0@0000
  0x38c0	87 00 00 00 00 00 00 00 30 48 00 40 01 00 00 00 	000000000H0@0000
  0x38d0	1e 00 00 00 00 00 00 00 48 48 00 40 01 00 00 00 	00000000HH0@0000
  0x38e0	24 00 00 00 00 00 00 00 60 48 00 40 01 00 00 00 	$0000000`H0@0000
  0x38f0	0b 00 00 00 00 00 00 00 30 41 00 40 01 00 00 00 	000000000A0@0000
  0x3900	22 00 00 00 00 00 00 00 80 48 00 40 01 00 00 00 	"00000000H0@0000
  0x3910	7f 00 00 00 00 00 00 00 98 48 00 40 01 00 00 00 	000000000H0@0000
  0x3920	89 00 00 00 00 00 00 00 b0 48 00 40 01 00 00 00 	000000000H0@0000
  0x3930	8b 00 00 00 00 00 00 00 c0 48 00 40 01 00 00 00 	000000000H0@0000
  0x3940	8a 00 00 00 00 00 00 00 d0 48 00 40 01 00 00 00 	000000000H0@0000
  0x3950	17 00 00 00 00 00 00 00 e0 48 00 40 01 00 00 00 	000000000H0@0000
  0x3960	18 00 00 00 00 00 00 00 80 41 00 40 01 00 00 00 	000000000A0@0000
  0x3970	1f 00 00 00 00 00 00 00 00 49 00 40 01 00 00 00 	000000000I0@0000
  0x3980	72 00 00 00 00 00 00 00 10 49 00 40 01 00 00 00 	r00000000I0@0000
  0x3990	84 00 00 00 00 00 00 00 30 49 00 40 01 00 00 00 	000000000I0@0000
  0x39a0	88 00 00 00 00 00 00 00 40 49 00 40 01 00 00 00 	00000000@I0@0000
  0x39b0	00 00 00 00 00 00 00 00 00 00 00 00 00 00 00 00 	0000000000000000
  0x39c0	f0 26 00 40 01 00 00 00 60 71 00 40 01 00 00 00 	0&0@0000`q0@0000
  0x39d0	00 72 00 40 01 00 00 00 44 00 46 00 00 00 00 00 	0r0@0000D0F00000
  0x39e0	60 49 00 40 01 00 00 00 70 10 00 40 01 00 00 00 	`I0@0000p00@0000
  0x39f0	70 26 00 40 01 00 00 00 70 26 00 40 01 00 00 00 	p&0@0000p&0@0000
  0x3a00	b0 10 00 40 01 00 00 00 20 11 00 40 01 00 00 00 	000@0000 00@0000
  0x3a10	d0 10 00 40 01 00 00 00 70 10 00 40 01 00 00 00 	000@0000p00@0000
  0x3a20	40 11 00 40 01 00 00 00 50 11 00 40 01 00 00 00 	@00@0000P00@0000
  0x3a30	b0 10 00 40 01 00 00 00 20 11 00 40 01 00 00 00 	000@0000 00@0000
  0x3a40	d0 10 00 40 01 00 00 00 70 10 00 40 01 00 00 00 	000@0000p00@0000
  0x3a50	b0 11 00 40 01 00 00 00 c0 11 00 40 01 00 00 00 	000@0000000@0000
  0x3a60	b0 10 00 40 01 00 00 00 20 11 00 40 01 00 00 00 	000@0000 00@0000
  0x3a70	d0 10 00 40 01 00 00 00 70 10 00 40 01 00 00 00 	000@0000p00@0000
  0x3a80	50 12 00 40 01 00 00 00 60 12 00 40 01 00 00 00 	P00@0000`00@0000
  0x3a90	c0 12 00 40 01 00 00 00 20 11 00 40 01 00 00 00 	000@0000 00@0000
  0x3aa0	d0 10 00 40 01 00 00 00 00 00 00 00 00 00 00 00 	000@000000000000
  0x3ab0	30 01 00 00 00 00 00 00 00 00 00 00 00 00 00 00 	0000000000000000
  0x3ac0	00 00 00 00 00 00 00 00 00 00 00 00 00 00 00 00 	0000000000000000
  0x3ad0	00 00 00 00 00 00 00 00 00 00 00 00 00 00 00 00 	0000000000000000
  0x3ae0	00 00 00 00 00 00 00 00 00 00 00 00 00 00 00 00 	0000000000000000
  0x3af0	00 00 00 00 00 00 00 00 00 00 00 00 00 00 00 00 	0000000000000000
  0x3b00	00 00 00 00 00 00 00 00 e8 70 00 40 01 00 00 00 	000000000p0@0000
  0x3b10	00 00 00 00 00 00 00 00 00 00 00 00 00 00 00 00 	0000000000000000
  0x3b20	c0 3e 00 40 01 00 00 00 c8 3e 00 40 01 00 00 00 	0>0@00000>0@0000
  0x3b30	48 3f 00 40 01 00 00 00 20 00 00 00 00 00 00 00 	H?0@0000 0000000
  0x3b40	00 75 41 00 00 00 00 00 00 00 00 00 00 00 00 00 	0uA0000000000000
  0x3b50	c8 3f 00 40 01 00 00 00 02 00 00 00 00 00 00 00 	0?0@000000000000
  0x3b60	00 00 00 00 00 00 00 00 00 00 00 00 00 00 00 00 	0000000000000000
  0x3b70	00 00 00 00 00 00 00 00 00 00 00 00 00 00 00 00 	0000000000000000
  0x3b80	00 00 00 00 00 00 00 00 00 00 00 00 00 00 00 00 	0000000000000000
  0x3b90	00 00 00 00 00 00 00 00 00 00 00 00 00 00 00 00 	0000000000000000
  0x3ba0	00 00 00 00 00 00 00 00 00 00 00 00 00 00 00 00 	0000000000000000
  0x3bb0	00 00 00 00 00 00 00 00 38 3f 00 40 01 00 00 00 	000000008?0@0000
  0x3bc0	04 00 00 00 00 00 00 00 d0 3e 00 40 01 00 00 00 	000000000>0@0000
  0x3bd0	d8 3e 00 40 01 00 00 00 e0 3e 00 40 01 00 00 00 	0>0@00000>0@0000
  0x3be0	ee 60 00 00 00 00 00 00 00 00 00 00 00 00 00 00 	0`00000000000000
  0x3bf0	d2 5c 00 00 00 00 00 00 e8 5b 00 00 00 00 00 00 	000000000[000000
  0x3c00	00 00 00 00 00 00 00 00 46 61 00 00 00 00 00 00 	00000000Fa000000
  0x3c10	00 00 00 00 00 00 00 00 2e 61 00 00 00 00 00 00 	00000000.a000000
  0x3c20	00 00 00 00 00 00 00 00 0c 5d 00 00 00 00 00 00 	000000000]000000
  0x3c30	76 5c 00 00 00 00 00 00 f0 5d 00 00 00 00 00 00 	v00000000]000000
  0x3c40	00 00 00 00 00 00 00 00 98 5c 00 00 00 00 00 00 	0000000000000000
  0x3c50	00 00 00 00 00 00 00 00 a6 5c 00 00 00 00 00 00 	0000000000000000
  0x3c60	00 00 00 00 00 00 00 00 b2 5c 00 00 00 00 00 00 	0000000000000000
  0x3c70	00 00 00 00 00 00 00 00 2a 5d 00 00 00 00 00 00 	00000000*]000000
  0x3c80	fa 5b 00 00 00 00 00 00 00 00 00 00 00 00 00 00 	0[00000000000000
  0x3c90	d6 5b 00 00 00 00 00 00 00 00 00 00 00 00 00 00 	0[00000000000000
  0x3ca0	20 5e 00 00 00 00 00 00 58 5d 00 00 00 00 00 00 	 ^000000X]000000
  0x3cb0	10 5c 00 00 00 00 00 00 0c 5e 00 00 00 00 00 00 	000000000^000000
  0x3cc0	fa 5c 00 00 00 00 00 00 6e 5d 00 00 00 00 00 00 	00000000n]000000
  0x3cd0	00 00 00 00 00 00 00 00 3e 5d 00 00 00 00 00 00 	00000000>]000000
  0x3ce0	00 00 00 00 00 00 00 00 64 5c 00 00 00 00 00 00 	00000000d0000000
  0x3cf0	28 5c 00 00 00 00 00 00 86 5c 00 00 00 00 00 00 	(000000000000000
  0x3d00	e4 5c 00 00 00 00 00 00 00 00 00 00 00 00 00 00 	0000000000000000
  0x3d10	dc 5d 00 00 00 00 00 00 c2 5d 00 00 00 00 00 00 	0]0000000]000000
  0x3d20	ae 5d 00 00 00 00 00 00 00 00 00 00 00 00 00 00 	0]00000000000000
  0x3d30	38 5c 00 00 00 00 00 00 00 00 00 00 00 00 00 00 	8000000000000000
  0x3d40	f2 5c 00 00 00 00 00 00 00 00 00 00 00 00 00 00 	0000000000000000
  0x3d50	9e 5d 00 00 00 00 00 00 84 5d 00 00 00 00 00 00 	0]0000000]000000
  0x3d60	00 00 00 00 00 00 00 00 4e 5c 00 00 00 00 00 00 	00000000N0000000
  0x3d70	00 00 00 00 00 00 00 00 6a 60 00 00 00 00 00 00 	00000000j`000000
  0x3d80	b4 60 00 00 00 00 00 00 9a 60 00 00 00 00 00 00 	0`0000000`000000
  0x3d90	ca 60 00 00 00 00 00 00 7e 60 00 00 00 00 00 00 	0`000000~`000000
  0x3da0	00 00 00 00 00 00 00 00 54 5b 00 00 00 00 00 00 	00000000T[000000
  0x3db0	5e 5b 00 00 00 00 00 00 68 5b 00 00 00 00 00 00 	^[000000h[000000
  0x3dc0	80 5b 00 00 00 00 00 00 44 5a 00 00 00 00 00 00 	0[000000DZ000000
  0x3dd0	3c 5b 00 00 00 00 00 00 30 5b 00 00 00 00 00 00 	<[0000000[000000
  0x3de0	1c 5b 00 00 00 00 00 00 24 5a 00 00 00 00 00 00 	0[000000$Z000000
  0x3df0	12 5b 00 00 00 00 00 00 0a 5b 00 00 00 00 00 00 	0[0000000[000000
  0x3e00	62 5a 00 00 00 00 00 00 88 5b 00 00 00 00 00 00 	bZ0000000[000000
  0x3e10	7a 5a 00 00 00 00 00 00 04 5a 00 00 00 00 00 00 	zZ0000000Z000000
  0x3e20	02 5b 00 00 00 00 00 00 f0 5a 00 00 00 00 00 00 	0[0000000Z000000
  0x3e30	b0 59 00 00 00 00 00 00 98 5a 00 00 00 00 00 00 	0Y0000000Z000000
  0x3e40	ae 5a 00 00 00 00 00 00 b8 5a 00 00 00 00 00 00 	0Z0000000Z000000
  0x3e50	92 5b 00 00 00 00 00 00 a0 5b 00 00 00 00 00 00 	0[0000000[000000
  0x3e60	c2 5a 00 00 00 00 00 00 aa 5b 00 00 00 00 00 00 	0Z0000000[000000
  0x3e70	d0 5a 00 00 00 00 00 00 be 5b 00 00 00 00 00 00 	0Z0000000[000000
  0x3e80	f8 59 00 00 00 00 00 00 ee 59 00 00 00 00 00 00 	0Y0000000Y000000
  0x3e90	e2 59 00 00 00 00 00 00 d6 59 00 00 00 00 00 00 	0Y0000000Y000000
  0x3ea0	c0 59 00 00 00 00 00 00 de 5a 00 00 00 00 00 00 	0Y0000000Z000000
  0x3eb0	aa 61 00 00 00 00 00 00 00 00 00 00 00 00 00 00 	0a00000000000000
  0x3ec0	30 27 00 40 01 00 00 00 f0 2d 00 40 01 00 00 00 	0'0@00000-0@0000
  0x3ed0	30 27 00 40 01 00 00 00 00 2e 00 40 01 00 00 00 	0'0@00000.0@0000
  0x3ee0	00 2e 00 40 01 00 00 00 00 00 00 00 00 00 00 00 	0.0@000000000000
  0x3ef0	90 22 00 40 01 00 00 00 10 10 00 40 01 00 00 00 	0"0@0000000@0000
  0x3f00	30 10 00 40 01 00 00 00 50 10 00 40 01 00 00 00 	000@0000P00@0000
  0x3f10	00 00 00 00 00 00 00 00 00 00 00 00 00 00 00 00 	0000000000000000
  0x3f20	b0 21 00 40 01 00 00 00 80 27 00 40 01 00 00 00 	0!0@00000'0@0000
  0x3f30	00 00 00 00 00 00 00 00 85 1d 00 00 f9 24 00 00 	0000000000000$00
  0x3f40	f2 27 00 00 00 29 00 00 10 10 00 00 30 10 00 00 	0'000)0000000000
  0x3f50	50 10 00 00 70 10 00 00 b0 10 00 00 d0 10 00 00 	P000p00000000000
  0x3f60	20 11 00 00 40 11 00 00 50 11 00 00 b0 11 00 00 	 000@000P0000000
  0x3f70	c0 11 00 00 50 12 00 00 60 12 00 00 c0 12 00 00 	0000P000`0000000
  0x3f80	e0 1e 00 00 50 20 00 00 90 20 00 00 b0 21 00 00 	0000P 000 000!00
  0x3f90	90 22 00 00 50 25 00 00 70 26 00 00 c0 26 00 00 	0"00P%00p&000&00
  0x3fa0	f0 26 00 00 30 27 00 00 40 27 00 00 80 27 00 00 	0&000'00@'000'00
  0x3fb0	60 28 00 00 90 2a 00 00 40 2d 00 00 00 2f 00 00 	`(000*00@-000/00
  0x3fc0	20 2f 00 00 40 2f 00 00 08 3c 00 00 58 3e 00 00 	 /00@/000<00X>00
  0x3fd0	22 05 93 19 00 00 00 00 00 00 00 00 00 00 00 00 	"000000000000000
  0x3fe0	00 00 00 00 01 00 00 00 f8 51 00 00 20 00 00 00 	000000000Q00 000
  0x3ff0	00 00 00 00 05 00 00 00 62 61 64 20 61 6c 6c 6f 	00000000bad allo
  0x4000	63 61 74 69 6f 6e 00 00 70 65 72 6d 69 73 73 69 	cation00permissi
  0x4010	6f 6e 20 64 65 6e 69 65 64 00 00 00 00 00 00 00 	on denied0000000
  0x4020	66 69 6c 65 20 65 78 69 73 74 73 00 00 00 00 00 	file exists00000
  0x4030	6e 6f 20 73 75 63 68 20 64 65 76 69 63 65 00 00 	no such device00
  0x4040	66 69 6c 65 6e 61 6d 65 20 74 6f 6f 20 6c 6f 6e 	filename too lon
  0x4050	67 00 00 00 00 00 00 00 64 65 76 69 63 65 20 6f 	g0000000device o
  0x4060	72 20 72 65 73 6f 75 72 63 65 20 62 75 73 79 00 	r resource busy0
  0x4070	69 6f 20 65 72 72 6f 72 00 00 00 00 00 00 00 00 	io error00000000
  0x4080	64 69 72 65 63 74 6f 72 79 20 6e 6f 74 20 65 6d 	directory not em
  0x4090	70 74 79 00 00 00 00 00 69 6e 76 61 6c 69 64 20 	pty00000invalid 
  0x40a0	61 72 67 75 6d 65 6e 74 00 00 00 00 00 00 00 00 	argument00000000
  0x40b0	6e 6f 20 73 70 61 63 65 20 6f 6e 20 64 65 76 69 	no space on devi
  0x40c0	63 65 00 00 00 00 00 00 6e 6f 20 73 75 63 68 20 	ce000000no such 
  0x40d0	66 69 6c 65 20 6f 72 20 64 69 72 65 63 74 6f 72 	file or director
  0x40e0	79 00 00 00 00 00 00 00 66 75 6e 63 74 69 6f 6e 	y0000000function
  0x40f0	20 6e 6f 74 20 73 75 70 70 6f 72 74 65 64 00 00 	 not supported00
  0x4100	6e 6f 20 6c 6f 63 6b 20 61 76 61 69 6c 61 62 6c 	no lock availabl
  0x4110	65 00 00 00 00 00 00 00 6e 6f 74 20 65 6e 6f 75 	e0000000not enou
  0x4120	67 68 20 6d 65 6d 6f 72 79 00 00 00 00 00 00 00 	gh memory0000000
  0x4130	72 65 73 6f 75 72 63 65 20 75 6e 61 76 61 69 6c 	resource unavail
  0x4140	61 62 6c 65 20 74 72 79 20 61 67 61 69 6e 00 00 	able try again00
  0x4150	63 72 6f 73 73 20 64 65 76 69 63 65 20 6c 69 6e 	cross device lin
  0x4160	6b 00 00 00 00 00 00 00 6f 70 65 72 61 74 69 6f 	k0000000operatio
  0x4170	6e 20 63 61 6e 63 65 6c 65 64 00 00 00 00 00 00 	n canceled000000
  0x4180	74 6f 6f 20 6d 61 6e 79 20 66 69 6c 65 73 20 6f 	too many files o
  0x4190	70 65 6e 00 00 00 00 00 70 65 72 6d 69 73 73 69 	pen00000permissi
  0x41a0	6f 6e 5f 64 65 6e 69 65 64 00 00 00 00 00 00 00 	on_denied0000000
  0x41b0	61 64 64 72 65 73 73 5f 69 6e 5f 75 73 65 00 00 	address_in_use00
  0x41c0	61 64 64 72 65 73 73 5f 6e 6f 74 5f 61 76 61 69 	address_not_avai
  0x41d0	6c 61 62 6c 65 00 00 00 61 64 64 72 65 73 73 5f 	lable000address_
  0x41e0	66 61 6d 69 6c 79 5f 6e 6f 74 5f 73 75 70 70 6f 	family_not_suppo
  0x41f0	72 74 65 64 00 00 00 00 63 6f 6e 6e 65 63 74 69 	rted0000connecti
  0x4200	6f 6e 5f 61 6c 72 65 61 64 79 5f 69 6e 5f 70 72 	on_already_in_pr
  0x4210	6f 67 72 65 73 73 00 00 62 61 64 5f 66 69 6c 65 	ogress00bad_file
  0x4220	5f 64 65 73 63 72 69 70 74 6f 72 00 00 00 00 00 	_descriptor00000
  0x4230	63 6f 6e 6e 65 63 74 69 6f 6e 5f 61 62 6f 72 74 	connection_abort
  0x4240	65 64 00 00 00 00 00 00 63 6f 6e 6e 65 63 74 69 	ed000000connecti
  0x4250	6f 6e 5f 72 65 66 75 73 65 64 00 00 00 00 00 00 	on_refused000000
  0x4260	63 6f 6e 6e 65 63 74 69 6f 6e 5f 72 65 73 65 74 	connection_reset
  0x4270	00 00 00 00 00 00 00 00 64 65 73 74 69 6e 61 74 	00000000destinat
  0x4280	69 6f 6e 5f 61 64 64 72 65 73 73 5f 72 65 71 75 	ion_address_requ
  0x4290	69 72 65 64 00 00 00 00 62 61 64 5f 61 64 64 72 	ired0000bad_addr
  0x42a0	65 73 73 00 00 00 00 00 68 6f 73 74 5f 75 6e 72 	ess00000host_unr
  0x42b0	65 61 63 68 61 62 6c 65 00 00 00 00 00 00 00 00 	eachable00000000
  0x42c0	6f 70 65 72 61 74 69 6f 6e 5f 69 6e 5f 70 72 6f 	operation_in_pro
  0x42d0	67 72 65 73 73 00 00 00 69 6e 74 65 72 72 75 70 	gress000interrup
  0x42e0	74 65 64 00 00 00 00 00 69 6e 76 61 6c 69 64 5f 	ted00000invalid_
  0x42f0	61 72 67 75 6d 65 6e 74 00 00 00 00 00 00 00 00 	argument00000000
  0x4300	61 6c 72 65 61 64 79 5f 63 6f 6e 6e 65 63 74 65 	already_connecte
  0x4310	64 00 00 00 00 00 00 00 74 6f 6f 5f 6d 61 6e 79 	d0000000too_many
  0x4320	5f 66 69 6c 65 73 5f 6f 70 65 6e 00 00 00 00 00 	_files_open00000
  0x4330	6d 65 73 73 61 67 65 5f 73 69 7a 65 00 00 00 00 	message_size0000
  0x4340	66 69 6c 65 6e 61 6d 65 5f 74 6f 6f 5f 6c 6f 6e 	filename_too_lon
  0x4350	67 00 00 00 00 00 00 00 6e 65 74 77 6f 72 6b 5f 	g0000000network_
  0x4360	64 6f 77 6e 00 00 00 00 6e 65 74 77 6f 72 6b 5f 	down0000network_
  0x4370	72 65 73 65 74 00 00 00 6e 65 74 77 6f 72 6b 5f 	reset000network_
  0x4380	75 6e 72 65 61 63 68 61 62 6c 65 00 00 00 00 00 	unreachable00000
  0x4390	6e 6f 5f 62 75 66 66 65 72 5f 73 70 61 63 65 00 	no_buffer_space0
  0x43a0	6e 6f 5f 70 72 6f 74 6f 63 6f 6c 5f 6f 70 74 69 	no_protocol_opti
  0x43b0	6f 6e 00 00 00 00 00 00 6e 6f 74 5f 63 6f 6e 6e 	on000000not_conn
  0x43c0	65 63 74 65 64 00 00 00 6e 6f 74 5f 61 5f 73 6f 	ected000not_a_so
  0x43d0	63 6b 65 74 00 00 00 00 6f 70 65 72 61 74 69 6f 	cket0000operatio
  0x43e0	6e 5f 6e 6f 74 5f 73 75 70 70 6f 72 74 65 64 00 	n_not_supported0
  0x43f0	70 72 6f 74 6f 63 6f 6c 5f 6e 6f 74 5f 73 75 70 	protocol_not_sup
  0x4400	70 6f 72 74 65 64 00 00 77 72 6f 6e 67 5f 70 72 	ported00wrong_pr
  0x4410	6f 74 6f 63 6f 6c 5f 74 79 70 65 00 00 00 00 00 	otocol_type00000
  0x4420	74 69 6d 65 64 5f 6f 75 74 00 00 00 00 00 00 00 	timed_out0000000
  0x4430	6f 70 65 72 61 74 69 6f 6e 5f 77 6f 75 6c 64 5f 	operation_would_
  0x4440	62 6c 6f 63 6b 00 00 00 61 64 64 72 65 73 73 20 	block000address 
  0x4450	66 61 6d 69 6c 79 20 6e 6f 74 20 73 75 70 70 6f 	family not suppo
  0x4460	72 74 65 64 00 00 00 00 61 64 64 72 65 73 73 20 	rted0000address 
  0x4470	69 6e 20 75 73 65 00 00 61 64 64 72 65 73 73 20 	in use00address 
  0x4480	6e 6f 74 20 61 76 61 69 6c 61 62 6c 65 00 00 00 	not available000
  0x4490	61 6c 72 65 61 64 79 20 63 6f 6e 6e 65 63 74 65 	already connecte
  0x44a0	64 00 00 00 00 00 00 00 61 72 67 75 6d 65 6e 74 	d0000000argument
  0x44b0	20 6c 69 73 74 20 74 6f 6f 20 6c 6f 6e 67 00 00 	 list too long00
  0x44c0	61 72 67 75 6d 65 6e 74 20 6f 75 74 20 6f 66 20 	argument out of 
  0x44d0	64 6f 6d 61 69 6e 00 00 62 61 64 20 61 64 64 72 	domain00bad addr
  0x44e0	65 73 73 00 00 00 00 00 62 61 64 20 66 69 6c 65 	ess00000bad file
  0x44f0	20 64 65 73 63 72 69 70 74 6f 72 00 00 00 00 00 	 descriptor00000
  0x4500	62 61 64 20 6d 65 73 73 61 67 65 00 00 00 00 00 	bad message00000
  0x4510	62 72 6f 6b 65 6e 20 70 69 70 65 00 00 00 00 00 	broken pipe00000
  0x4520	63 6f 6e 6e 65 63 74 69 6f 6e 20 61 62 6f 72 74 	connection abort
  0x4530	65 64 00 00 00 00 00 00 63 6f 6e 6e 65 63 74 69 	ed000000connecti
  0x4540	6f 6e 20 61 6c 72 65 61 64 79 20 69 6e 20 70 72 	on already in pr
  0x4550	6f 67 72 65 73 73 00 00 63 6f 6e 6e 65 63 74 69 	ogress00connecti
  0x4560	6f 6e 20 72 65 66 75 73 65 64 00 00 00 00 00 00 	on refused000000
  0x4570	63 6f 6e 6e 65 63 74 69 6f 6e 20 72 65 73 65 74 	connection reset
  0x4580	00 00 00 00 00 00 00 00 64 65 73 74 69 6e 61 74 	00000000destinat
  0x4590	69 6f 6e 20 61 64 64 72 65 73 73 20 72 65 71 75 	ion address requ
  0x45a0	69 72 65 64 00 00 00 00 65 78 65 63 75 74 61 62 	ired0000executab
  0x45b0	6c 65 20 66 6f 72 6d 61 74 20 65 72 72 6f 72 00 	le format error0
  0x45c0	66 69 6c 65 20 74 6f 6f 20 6c 61 72 67 65 00 00 	file too large00
  0x45d0	68 6f 73 74 20 75 6e 72 65 61 63 68 61 62 6c 65 	host unreachable
  0x45e0	00 00 00 00 00 00 00 00 69 64 65 6e 74 69 66 69 	00000000identifi
  0x45f0	65 72 20 72 65 6d 6f 76 65 64 00 00 00 00 00 00 	er removed000000
  0x4600	69 6c 6c 65 67 61 6c 20 62 79 74 65 20 73 65 71 	illegal byte seq
  0x4610	75 65 6e 63 65 00 00 00 69 6e 61 70 70 72 6f 70 	uence000inapprop
  0x4620	72 69 61 74 65 20 69 6f 20 63 6f 6e 74 72 6f 6c 	riate io control
  0x4630	20 6f 70 65 72 61 74 69 6f 6e 00 00 00 00 00 00 	 operation000000
  0x4640	69 6e 76 61 6c 69 64 20 73 65 65 6b 00 00 00 00 	invalid seek0000
  0x4650	69 73 20 61 20 64 69 72 65 63 74 6f 72 79 00 00 	is a directory00
  0x4660	6d 65 73 73 61 67 65 20 73 69 7a 65 00 00 00 00 	message size0000
  0x4670	6e 65 74 77 6f 72 6b 20 64 6f 77 6e 00 00 00 00 	network down0000
  0x4680	6e 65 74 77 6f 72 6b 20 72 65 73 65 74 00 00 00 	network reset000
  0x4690	6e 65 74 77 6f 72 6b 20 75 6e 72 65 61 63 68 61 	network unreacha
  0x46a0	62 6c 65 00 00 00 00 00 6e 6f 20 62 75 66 66 65 	ble00000no buffe
  0x46b0	72 20 73 70 61 63 65 00 6e 6f 20 63 68 69 6c 64 	r space0no child
  0x46c0	20 70 72 6f 63 65 73 73 00 00 00 00 00 00 00 00 	 process00000000
  0x46d0	6e 6f 20 6c 69 6e 6b 00 6e 6f 20 6d 65 73 73 61 	no link0no messa
  0x46e0	67 65 20 61 76 61 69 6c 61 62 6c 65 00 00 00 00 	ge available0000
  0x46f0	6e 6f 20 6d 65 73 73 61 67 65 00 00 00 00 00 00 	no message000000
  0x4700	6e 6f 20 70 72 6f 74 6f 63 6f 6c 20 6f 70 74 69 	no protocol opti
  0x4710	6f 6e 00 00 00 00 00 00 6e 6f 20 73 74 72 65 61 	on000000no strea
  0x4720	6d 20 72 65 73 6f 75 72 63 65 73 00 00 00 00 00 	m resources00000
  0x4730	6e 6f 20 73 75 63 68 20 64 65 76 69 63 65 20 6f 	no such device o
  0x4740	72 20 61 64 64 72 65 73 73 00 00 00 00 00 00 00 	r address0000000
  0x4750	6e 6f 20 73 75 63 68 20 70 72 6f 63 65 73 73 00 	no such process0
  0x4760	6e 6f 74 20 61 20 64 69 72 65 63 74 6f 72 79 00 	not a directory0
  0x4770	6e 6f 74 20 61 20 73 6f 63 6b 65 74 00 00 00 00 	not a socket0000
  0x4780	6e 6f 74 20 61 20 73 74 72 65 61 6d 00 00 00 00 	not a stream0000
  0x4790	6e 6f 74 20 63 6f 6e 6e 65 63 74 65 64 00 00 00 	not connected000
  0x47a0	6e 6f 74 20 73 75 70 70 6f 72 74 65 64 00 00 00 	not supported000
  0x47b0	6f 70 65 72 61 74 69 6f 6e 20 69 6e 20 70 72 6f 	operation in pro
  0x47c0	67 72 65 73 73 00 00 00 6f 70 65 72 61 74 69 6f 	gress000operatio
  0x47d0	6e 20 6e 6f 74 20 70 65 72 6d 69 74 74 65 64 00 	n not permitted0
  0x47e0	6f 70 65 72 61 74 69 6f 6e 20 6e 6f 74 20 73 75 	operation not su
  0x47f0	70 70 6f 72 74 65 64 00 6f 70 65 72 61 74 69 6f 	pported0operatio
  0x4800	6e 20 77 6f 75 6c 64 20 62 6c 6f 63 6b 00 00 00 	n would block000
  0x4810	6f 77 6e 65 72 20 64 65 61 64 00 00 00 00 00 00 	owner dead000000
  0x4820	70 72 6f 74 6f 63 6f 6c 20 65 72 72 6f 72 00 00 	protocol error00
  0x4830	70 72 6f 74 6f 63 6f 6c 20 6e 6f 74 20 73 75 70 	protocol not sup
  0x4840	70 6f 72 74 65 64 00 00 72 65 61 64 20 6f 6e 6c 	ported00read onl
  0x4850	79 20 66 69 6c 65 20 73 79 73 74 65 6d 00 00 00 	y file system000
  0x4860	72 65 73 6f 75 72 63 65 20 64 65 61 64 6c 6f 63 	resource deadloc
  0x4870	6b 20 77 6f 75 6c 64 20 6f 63 63 75 72 00 00 00 	k would occur000
  0x4880	72 65 73 75 6c 74 20 6f 75 74 20 6f 66 20 72 61 	result out of ra
  0x4890	6e 67 65 00 00 00 00 00 73 74 61 74 65 20 6e 6f 	nge00000state no
  0x48a0	74 20 72 65 63 6f 76 65 72 61 62 6c 65 00 00 00 	t recoverable000
  0x48b0	73 74 72 65 61 6d 20 74 69 6d 65 6f 75 74 00 00 	stream timeout00
  0x48c0	74 65 78 74 20 66 69 6c 65 20 62 75 73 79 00 00 	text file busy00
  0x48d0	74 69 6d 65 64 20 6f 75 74 00 00 00 00 00 00 00 	timed out0000000
  0x48e0	74 6f 6f 20 6d 61 6e 79 20 66 69 6c 65 73 20 6f 	too many files o
  0x48f0	70 65 6e 20 69 6e 20 73 79 73 74 65 6d 00 00 00 	pen in system000
  0x4900	74 6f 6f 20 6d 61 6e 79 20 6c 69 6e 6b 73 00 00 	too many links00
  0x4910	74 6f 6f 20 6d 61 6e 79 20 73 79 6d 62 6f 6c 69 	too many symboli
  0x4920	63 20 6c 69 6e 6b 20 6c 65 76 65 6c 73 00 00 00 	c link levels000
  0x4930	76 61 6c 75 65 20 74 6f 6f 20 6c 61 72 67 65 00 	value too large0
  0x4940	77 72 6f 6e 67 20 70 72 6f 74 6f 63 6f 6c 20 74 	wrong protocol t
  0x4950	79 70 65 00 00 00 00 00 00 00 00 00 00 00 00 00 	ype0000000000000
  0x4960	65 00 78 00 74 00 2d 00 6d 00 73 00 2d 00 77 00 	e0x0t0-0m0s0-0w0
  0x4970	69 00 6e 00 2d 00 73 00 65 00 73 00 73 00 69 00 	i0n0-0s0e0s0s0i0
  0x4980	6f 00 6e 00 2d 00 77 00 74 00 73 00 61 00 70 00 	o0n0-0w0t0s0a0p0
  0x4990	69 00 33 00 32 00 2d 00 6c 00 31 00 2d 00 31 00 	i03020-0l010-010
  0x49a0	2d 00 30 00 00 00 00 00 00 00 00 00 00 00 00 00 	-000000000000000
  0x49b0	65 78 74 2d 6d 73 2d 77 69 6e 2d 73 65 73 73 69 	ext-ms-win-sessi
  0x49c0	6f 6e 2d 77 74 73 61 70 69 33 32 2d 6c 31 2d 31 	on-wtsapi32-l1-1
  0x49d0	2d 30 2e 64 6c 6c 00 00 67 65 6e 65 72 69 63 00 	-0.dll00generic0
  0x49e0	75 6e 6b 6e 6f 77 6e 20 65 72 72 6f 72 00 00 00 	unknown error000
  0x49f0	69 6f 73 74 72 65 61 6d 00 00 00 00 00 00 00 00 	iostream00000000
  0x4a00	69 6f 73 74 72 65 61 6d 20 73 74 72 65 61 6d 20 	iostream stream 
  0x4a10	65 72 72 6f 72 00 00 00 73 79 73 74 65 6d 00 00 	error000system00
  0x4a20	55 00 73 00 65 00 72 00 43 00 78 00 74 00 00 00 	U0s0e0r0C0x0t000
  0x4a30	53 00 79 00 73 00 74 00 65 00 6d 00 43 00 78 00 	S0y0s0t0e0m0C0x0
  0x4a40	74 00 00 00 00 00 00 00 43 6f 6d 6d 61 6e 64 4c 	t0000000CommandL
  0x4a50	69 6e 65 54 6f 41 72 67 76 57 20 66 61 69 6c 65 	ineToArgvW faile
  0x4a60	64 00 00 00 00 00 00 00 77 57 69 6e 4d 61 69 6e 	d0000000wWinMain
  0x4a70	00 00 00 00 00 00 00 00 42 61 64 20 61 72 67 75 	00000000Bad argu
  0x4a80	6d 65 6e 74 3a 20 22 25 77 73 22 00 20 00 00 00 	ment: "%ws"0 000
  0x4a90	5c 00 4d 00 69 00 63 00 72 00 6f 00 73 00 6f 00 	00M0i0c0r0o0s0o0
  0x4aa0	66 00 74 00 5c 00 57 00 69 00 6e 00 64 00 6f 00 	f0t000W0i0n0d0o0
  0x4ab0	77 00 73 00 5c 00 44 00 65 00 76 00 69 00 63 00 	w0s000D0e0v0i0c0
  0x4ac0	65 00 20 00 49 00 6e 00 66 00 6f 00 72 00 6d 00 	e0 0I0n0f0o0r0m0
  0x4ad0	61 00 74 00 69 00 6f 00 6e 00 00 00 00 00 00 00 	a0t0i0o0n0000000
  0x4ae0	5c 00 4d 00 69 00 63 00 72 00 6f 00 73 00 6f 00 	00M0i0c0r0o0s0o0
  0x4af0	66 00 74 00 5c 00 57 00 69 00 6e 00 64 00 6f 00 	f0t000W0i0n0d0o0
  0x4b00	77 00 73 00 5c 00 41 00 70 00 70 00 6c 00 69 00 	w0s000A0p0p0l0i0
  0x4b10	63 00 61 00 74 00 69 00 6f 00 6e 00 20 00 45 00 	c0a0t0i0o0n0 0E0
  0x4b20	78 00 70 00 65 00 72 00 69 00 65 00 6e 00 63 00 	x0p0e0r0i0e0n0c0
  0x4b30	65 00 00 00 00 00 00 00 44 00 65 00 76 00 69 00 	e0000000D0e0v0i0
  0x4b40	63 00 65 00 00 00 00 00 44 00 65 00 76 00 69 00 	c0e00000D0e0v0i0
  0x4b50	63 00 65 00 20 00 43 00 65 00 6e 00 73 00 75 00 	c0e0 0C0e0n0s0u0
  0x4b60	73 00 20 00 47 00 61 00 74 00 68 00 65 00 72 00 	s0 0G0a0t0h0e0r0
  0x4b70	00 00 00 00 00 00 00 00 57 00 4e 00 46 00 5f 00 	00000000W0N0F0_0
  0x4b80	43 00 53 00 48 00 4c 00 5f 00 50 00 52 00 4f 00 	C0S0H0L0_0P0R0O0
  0x4b90	44 00 55 00 43 00 54 00 5f 00 52 00 45 00 41 00 	D0U0C0T0_0R0E0A0
  0x4ba0	44 00 59 00 00 00 00 00 00 00 00 00 00 00 00 00 	D0Y0000000000000
  0x4bb0	57 00 4e 00 46 00 5f 00 53 00 48 00 45 00 4c 00 	W0N0F0_0S0H0E0L0
  0x4bc0	5f 00 4f 00 4f 00 42 00 45 00 5f 00 55 00 53 00 	_0O0O0B0E0_0U0S0
  0x4bd0	45 00 52 00 5f 00 4c 00 4f 00 47 00 4f 00 4e 00 	E0R0_0L0O0G0O0N0
  0x4be0	5f 00 43 00 4f 00 4d 00 50 00 4c 00 45 00 54 00 	_0C0O0M0P0L0E0T0
  0x4bf0	45 00 00 00 00 00 00 00 52 00 75 00 6e 00 43 00 	E0000000R0u0n0C0
  0x4c00	6f 00 75 00 6e 00 74 00 65 00 72 00 00 00 00 00 	o0u0n0t0e0r00000
  0x4c10	52 00 65 00 74 00 75 00 72 00 6e 00 43 00 6f 00 	R0e0t0u0r0n0C0o0
  0x4c20	64 00 65 00 00 00 00 00 69 6e 76 61 6c 69 64 20 	d0e00000invalid 
  0x4c30	73 74 72 69 6e 67 20 70 6f 73 69 74 69 6f 6e 00 	string position0
  0x4c40	73 74 72 69 6e 67 20 74 6f 6f 20 6c 6f 6e 67 00 	string too long0
  0x4c50	00 00 00 00 00 00 00 00 00 00 00 00 00 00 00 00 	0000000000000000
  0x4c60	22 05 93 19 04 00 00 00 20 51 00 00 02 00 00 00 	"0000000 Q000000
  0x4c70	40 51 00 00 05 00 00 00 90 51 00 00 20 00 00 00 	@Q0000000Q00 000
  0x4c80	00 00 00 00 01 00 00 00 22 05 93 19 00 00 00 00 	00000000"0000000
  0x4c90	00 00 00 00 00 00 00 00 00 00 00 00 01 00 00 00 	0000000000000000
  0x4ca0	80 50 00 00 20 00 00 00 00 00 00 00 05 00 00 00 	0P00 00000000000
  0x4cb0	00 00 00 00 ce e5 7f 82 00 00 00 00 02 00 00 00 	0000000000000000
  0x4cc0	29 00 00 00 04 4d 00 00 04 4d 00 00 00 00 00 00 	)0000M000M000000
  0x4cd0	ce e5 7f 82 00 00 00 00 0d 00 00 00 04 03 00 00 	0000000000000000
  0x4ce0	30 4d 00 00 30 4d 00 00 00 00 00 00 ce e5 7f 82 	0M000M0000000000
  0x4cf0	00 00 00 00 10 00 00 00 24 00 00 00 34 50 00 00 	00000000$0004P00
  0x4d00	34 50 00 00 52 53 44 53 2f cc 34 99 d0 4a c3 58 	4P00RSDS/0400J0X
  0x4d10	f8 f8 fb 11 43 7d 8c e3 01 00 00 00 44 65 76 69 	0000C}000000Devi
  0x4d20	63 65 43 65 6e 73 75 73 2e 70 64 62 00 00 00 00 	ceCensus.pdb0000
  0x4d30	47 43 54 4c 00 10 00 00 60 00 00 00 2e 74 65 78 	GCTL0000`000.tex
  0x4d40	74 24 64 69 00 00 00 00 60 10 00 00 80 1d 00 00 	t$di0000`0000000
  0x4d50	2e 74 65 78 74 24 6d 6e 00 00 00 00 e0 2d 00 00 	.text$mn00000-00
  0x4d60	30 00 00 00 2e 74 65 78 74 24 6d 6e 24 30 30 00 	0000.text$mn$000
  0x4d70	10 2e 00 00 e0 00 00 00 2e 74 65 78 74 24 78 00 	0.000000.text$x0
  0x4d80	f0 2e 00 00 60 00 00 00 2e 74 65 78 74 24 79 64 	0.00`000.text$yd
  0x4d90	00 00 00 00 00 30 00 00 e0 0b 00 00 2e 72 64 61 	000000000000.rda
  0x4da0	74 61 24 62 72 63 00 00 e0 3b 00 00 e0 02 00 00 	ta$brc000;000000
  0x4db0	2e 69 64 61 74 61 24 35 00 00 00 00 c0 3e 00 00 	.idata$500000>00
  0x4dc0	28 00 00 00 2e 30 30 63 66 67 00 00 e8 3e 00 00 	(000.00cfg000>00
  0x4dd0	08 00 00 00 2e 43 52 54 24 58 43 41 00 00 00 00 	0000.CRT$XCA0000
  0x4de0	f0 3e 00 00 08 00 00 00 2e 43 52 54 24 58 43 41 	0>000000.CRT$XCA
  0x4df0	41 00 00 00 f8 3e 00 00 18 00 00 00 2e 43 52 54 	A0000>000000.CRT
  0x4e00	24 58 43 55 00 00 00 00 10 3f 00 00 08 00 00 00 	$XCU00000?000000
  0x4e10	2e 43 52 54 24 58 43 5a 00 00 00 00 18 3f 00 00 	.CRT$XCZ00000?00
  0x4e20	08 00 00 00 2e 43 52 54 24 58 49 41 00 00 00 00 	0000.CRT$XIA0000
  0x4e30	20 3f 00 00 08 00 00 00 2e 43 52 54 24 58 49 41 	 ?000000.CRT$XIA
  0x4e40	41 00 00 00 28 3f 00 00 08 00 00 00 2e 43 52 54 	A000(?000000.CRT
  0x4e50	24 58 49 59 00 00 00 00 30 3f 00 00 08 00 00 00 	$XIY00000?000000
  0x4e60	2e 43 52 54 24 58 49 5a 00 00 00 00 38 3f 00 00 	.CRT$XIZ00008?00
  0x4e70	10 00 00 00 2e 67 65 68 63 6f 6e 74 00 00 00 00 	0000.gehcont0000
  0x4e80	48 3f 00 00 80 00 00 00 2e 67 66 69 64 73 00 00 	H?000000.gfids00
  0x4e90	c8 3f 00 00 08 00 00 00 2e 67 69 61 74 73 00 00 	0?000000.giats00
  0x4ea0	d0 3f 00 00 34 0d 00 00 2e 72 64 61 74 61 00 00 	0?004000.rdata00
  0x4eb0	04 4d 00 00 54 03 00 00 2e 72 64 61 74 61 24 7a 	0M00T000.rdata$z
  0x4ec0	7a 7a 64 62 67 00 00 00 58 50 00 00 90 02 00 00 	zzdbg000XP000000
  0x4ed0	2e 78 64 61 74 61 00 00 e8 52 00 00 80 01 00 00 	.xdata000R000000
  0x4ee0	2e 78 64 61 74 61 24 78 00 00 00 00 68 54 00 00 	.xdata$x0000hT00
  0x4ef0	20 00 00 00 2e 64 69 64 61 74 24 32 00 00 00 00 	 000.didat$20000
  0x4f00	88 54 00 00 20 00 00 00 2e 64 69 64 61 74 24 33 	0T00 000.didat$3
  0x4f10	00 00 00 00 a8 54 00 00 20 00 00 00 2e 64 69 64 	00000T00 000.did
  0x4f20	61 74 24 34 00 00 00 00 c8 54 00 00 40 00 00 00 	at$400000T00@000
  0x4f30	2e 64 69 64 61 74 24 36 00 00 00 00 08 55 00 00 	.didat$600000U00
  0x4f40	20 00 00 00 2e 64 69 64 61 74 24 37 00 00 00 00 	 000.didat$70000
  0x4f50	28 55 00 00 90 01 00 00 2e 69 64 61 74 61 24 32 	(U000000.idata$2
  0x4f60	00 00 00 00 b8 56 00 00 18 00 00 00 2e 69 64 61 	00000V000000.ida
  0x4f70	74 61 24 33 00 00 00 00 d0 56 00 00 e0 02 00 00 	ta$300000V000000
  0x4f80	2e 69 64 61 74 61 24 34 00 00 00 00 b0 59 00 00 	.idata$400000Y00
  0x4f90	04 08 00 00 2e 69 64 61 74 61 24 36 00 00 00 00 	0000.idata$60000
  0x4fa0	00 70 00 00 18 00 00 00 2e 64 61 74 61 24 62 72 	0p000000.data$br
  0x4fb0	63 00 00 00 18 70 00 00 c8 00 00 00 2e 64 61 74 	c0000p000000.dat
  0x4fc0	61 24 72 24 62 72 63 00 e0 70 00 00 20 00 00 00 	a$r$brc00p00 000
  0x4fd0	2e 64 61 74 61 00 00 00 00 71 00 00 b8 06 00 00 	.data0000q000000
  0x4fe0	2e 62 73 73 00 00 00 00 00 80 00 00 ac 02 00 00 	.bss000000000000
  0x4ff0	2e 70 64 61 74 61 00 00 00 90 00 00 20 00 00 00 	.pdata000000 000
  0x5000	2e 64 69 64 61 74 24 35 00 00 00 00 00 a0 00 00 	.didat$500000000
  0x5010	a0 00 00 00 2e 72 73 72 63 24 30 31 00 00 00 00 	0000.rsrc$010000
  0x5020	a0 a0 00 00 48 06 00 00 2e 72 73 72 63 24 30 32 	0000H000.rsrc$02
  0x5030	00 00 00 00 20 00 00 00 2f cc 34 99 d0 4a c3 58 	0000 000/0400J0X
  0x5040	f8 f8 fb 11 43 7d 8c e3 59 ce fe b1 b9 18 c3 8b 	0000C}00Y0000000
  0x5050	47 74 ad ca ce e5 7f 82 01 06 02 00 06 32 02 30 	Gt00000000000200
  0x5060	01 06 02 00 06 52 02 30 19 14 04 00 14 34 08 00 	00000R0000000400
  0x5070	06 52 02 70 74 25 00 00 88 4c 00 00 00 00 00 00 	0R0pt%000L000000
  0x5080	dd 12 00 00 ff ff ff ff 01 05 02 00 05 34 01 00 	0000000000000400
  0x5090	19 26 05 00 15 34 66 00 15 01 64 00 06 50 00 00 	0&0004f000d00P00
  0x50a0	4c 2d 00 00 10 03 00 00 01 0f 06 00 0f 34 0d 00 	L-00000000000400
  0x50b0	0f 52 08 70 07 60 06 50 19 1b 03 00 09 01 4e 00 	0R0p0`0P000000N0
  0x50c0	02 30 00 00 4c 2d 00 00 60 02 00 00 19 19 02 00 	0000L-00`0000000
  0x50d0	07 01 51 00 4c 2d 00 00 70 02 00 00 01 0f 06 00 	00Q0L-00p0000000
  0x50e0	0f 64 07 00 0f 34 06 00 0f 32 0b 70 01 04 01 00 	0d000400020p0000
  0x50f0	04 42 00 00 01 14 08 00 14 64 08 00 14 54 07 00 	0B0000000d000T00
  0x5100	14 34 06 00 14 32 10 70 19 20 05 00 18 62 14 e0 	0400020p0 000b00
  0x5110	12 70 11 60 10 30 00 00 74 25 00 00 60 4c 00 00 	0p0`0000t%00`L00
  0x5120	ff ff ff ff 00 00 00 00 ff ff ff ff 00 00 00 00 	0000000000000000
  0x5130	01 00 00 00 00 00 00 00 01 00 00 00 00 00 00 00 	0000000000000000
  0x5140	00 00 00 00 00 00 00 00 03 00 00 00 01 00 00 00 	0000000000000000
  0x5150	68 51 00 00 02 00 00 00 02 00 00 00 03 00 00 00 	hQ00000000000000
  0x5160	01 00 00 00 7c 51 00 00 40 00 00 00 00 00 00 00 	0000|Q00@0000000
  0x5170	00 00 00 00 10 2e 00 00 38 00 00 00 40 00 00 00 	00000.008000@000
  0x5180	00 00 00 00 00 00 00 00 54 2e 00 00 38 00 00 00 	00000000T.008000
  0x5190	76 1d 00 00 00 00 00 00 fa 1d 00 00 ff ff ff ff 	v000000000000000
  0x51a0	33 2e 00 00 02 00 00 00 46 2e 00 00 00 00 00 00 	3.000000F.000000
  0x51b0	73 2e 00 00 03 00 00 00 19 0a 02 00 0a 32 06 50 	s.0000000000020P
  0x51c0	74 25 00 00 60 4c 00 00 01 0a 04 00 0a 34 06 00 	t%00`L0000000400
  0x51d0	0a 32 06 70 01 09 01 00 09 62 00 00 01 04 01 00 	020p00000b000000
  0x51e0	04 62 00 00 19 0f 02 00 06 52 02 30 74 25 00 00 	0b0000000R00t%00
  0x51f0	d0 3f 00 00 00 00 00 00 ad 1f 00 00 ff ff ff ff 	0?00000000000000
  0x5200	01 04 01 00 04 82 00 00 01 0a 02 00 0a 32 06 30 	0000000000000200
  0x5210	09 1c 0b 00 1c e4 1b 00 1c 74 1a 00 1c 64 19 00 	000000000t000d00
  0x5220	1c 34 18 00 1c 01 16 00 15 f0 00 00 3a 2a 00 00 	040000000000:*00
  0x5230	01 00 00 00 0f 23 00 00 f9 24 00 00 7f 2e 00 00 	00000#000$000.00
  0x5240	f9 24 00 00 01 06 02 00 06 32 02 50 00 00 00 00 	0$000000020P0000
  0x5250	01 00 00 00 11 06 02 00 06 32 02 30 3a 2a 00 00 	000000000200:*00
  0x5260	01 00 00 00 ed 25 00 00 32 26 00 00 a3 2e 00 00 	00000%002&000.00
  0x5270	00 00 00 00 09 04 01 00 04 22 00 00 3a 2a 00 00 	000000000"00:*00
  0x5280	01 00 00 00 bc 27 00 00 f2 27 00 00 01 00 00 00 	00000'000'000000
  0x5290	f2 27 00 00 09 0a 04 00 0a 34 06 00 0a 32 06 70 	0'0000000400020p
  0x52a0	3a 2a 00 00 01 00 00 00 cd 28 00 00 00 29 00 00 	:*0000000(000)00
  0x52b0	d0 2e 00 00 00 29 00 00 01 0d 04 00 0d 34 09 00 	0.000)0000000400
  0x52c0	0d 32 06 50 01 0c 02 00 0c 01 11 00 00 00 00 00 	020P000000000000
  0x52d0	01 00 00 00 01 00 00 00 01 18 01 00 18 c2 00 00 	0000000000000000
  0x52e0	01 02 01 00 02 30 00 00 00 00 00 00 2c 20 00 00 	000000000000, 00
  0x52f0	00 00 00 00 08 53 00 00 00 00 00 00 00 00 00 00 	00000S0000000000
  0x5300	00 00 00 00 00 00 00 00 02 00 00 00 20 53 00 00 	000000000000 S00
  0x5310	48 53 00 00 00 00 00 00 00 00 00 00 00 00 00 00 	HS00000000000000
  0x5320	10 00 00 00 18 70 00 00 00 00 00 00 ff ff ff ff 	00000p0000000000
  0x5330	00 00 00 00 18 00 00 00 5c 1f 00 00 00 00 00 00 	0000000000000000
  0x5340	00 00 00 00 00 00 00 00 00 00 00 00 40 70 00 00 	000000000000@p00
  0x5350	00 00 00 00 ff ff ff ff 00 00 00 00 18 00 00 00 	0000000000000000
  0x5360	a0 26 00 00 00 00 00 00 00 00 00 00 00 00 00 00 	0&00000000000000
  0x5370	00 00 00 00 60 70 00 00 00 00 00 00 ff ff ff ff 	0000`p0000000000
  0x5380	00 00 00 00 18 00 00 00 cc 1f 00 00 00 00 00 00 	0000000000000000
  0x5390	00 00 00 00 00 00 00 00 00 00 00 00 44 20 00 00 	000000000000D 00
  0x53a0	00 00 00 00 b8 53 00 00 00 00 00 00 00 00 00 00 	00000S0000000000
  0x53b0	00 00 00 00 00 00 00 00 03 00 00 00 d8 53 00 00 	0000000000000S00
  0x53c0	70 53 00 00 48 53 00 00 00 00 00 00 00 00 00 00 	pS00HS0000000000
  0x53d0	00 00 00 00 00 00 00 00 00 00 00 00 88 70 00 00 	0000000000000p00
  0x53e0	00 00 00 00 ff ff ff ff 00 00 00 00 18 00 00 00 	0000000000000000
  0x53f0	cc 1f 00 00 00 00 00 00 00 00 00 00 00 00 00 00 	0000000000000000
  0x5400	00 00 00 00 44 20 00 00 00 00 00 00 20 54 00 00 	0000D 000000 T00
  0x5410	00 00 00 00 00 00 00 00 00 00 00 00 00 00 00 00 	0000000000000000
  0x5420	03 00 00 00 40 54 00 00 70 53 00 00 48 53 00 00 	0000@T00pS00HS00
  0x5430	00 00 00 00 00 00 00 00 00 00 00 00 00 00 00 00 	0000000000000000
  0x5440	00 00 00 00 b0 70 00 00 00 00 00 00 ff ff ff ff 	00000p0000000000
  0x5450	00 00 00 00 18 00 00 00 cc 1f 00 00 00 00 00 00 	0000000000000000
  0x5460	00 00 00 00 00 00 00 00 01 00 00 00 b0 49 00 00 	0000000000000I00
  0x5470	d8 76 00 00 00 90 00 00 a8 54 00 00 08 55 00 00 	0v0000000T000U00
  0x5480	00 00 00 00 00 00 00 00 00 00 00 00 00 00 00 00 	0000000000000000
  0x5490	00 00 00 00 00 00 00 00 00 00 00 00 00 00 00 00 	0000000000000000
  0x54a0	00 00 00 00 00 00 00 00 f4 54 00 00 00 00 00 00 	000000000T000000
  0x54b0	dc 54 00 00 00 00 00 00 c8 54 00 00 00 00 00 00 	0T0000000T000000
  0x54c0	00 00 00 00 00 00 00 00 09 00 57 54 53 51 75 65 	0000000000WTSQue
  0x54d0	72 79 55 73 65 72 54 6f 6b 65 6e 00 04 00 57 54 	ryUserToken000WT
  0x54e0	53 45 6e 75 6d 65 72 61 74 65 53 65 73 73 69 6f 	SEnumerateSessio
  0x54f0	6e 73 57 00 05 00 57 54 53 46 72 65 65 4d 65 6d 	nsW000WTSFreeMem
  0x5500	6f 72 79 00 00 00 00 00 00 00 00 00 00 00 00 00 	ory0000000000000
  0x5510	00 00 00 00 00 00 00 00 00 00 00 00 00 00 00 00 	0000000000000000
  0x5520	00 00 00 00 00 00 00 00 98 58 00 00 00 00 00 00 	000000000X000000
  0x5530	00 00 00 00 74 5b 00 00 a8 3d 00 00 80 57 00 00 	0000t[000=000W00
  0x5540	00 00 00 00 00 00 00 00 34 5e 00 00 90 3c 00 00 	000000004^000<00
  0x5550	e0 56 00 00 00 00 00 00 00 00 00 00 62 5e 00 00 	0V0000000000b^00
  0x5560	f0 3b 00 00 68 57 00 00 00 00 00 00 00 00 00 00 	0;00hW0000000000
  0x5570	82 5e 00 00 78 3c 00 00 90 57 00 00 00 00 00 00 	0^00x<000W000000
  0x5580	00 00 00 00 ac 5e 00 00 a0 3c 00 00 d8 57 00 00 	00000^000<000W00
  0x5590	00 00 00 00 00 00 00 00 d6 5e 00 00 e8 3c 00 00 	000000000^000<00
  0x55a0	20 58 00 00 00 00 00 00 00 00 00 00 fa 5e 00 00 	 X00000000000^00
  0x55b0	30 3d 00 00 58 58 00 00 00 00 00 00 00 00 00 00 	0=00XX0000000000
  0x55c0	1c 5f 00 00 68 3d 00 00 18 57 00 00 00 00 00 00 	0_00h=000W000000
  0x55d0	00 00 00 00 42 5f 00 00 28 3c 00 00 38 57 00 00 	0000B_00(<008W00
  0x55e0	00 00 00 00 00 00 00 00 6c 5f 00 00 48 3c 00 00 	00000000l_00H<00
  0x55f0	48 57 00 00 00 00 00 00 00 00 00 00 8e 5f 00 00 	HW00000000000_00
  0x5600	58 3c 00 00 58 57 00 00 00 00 00 00 00 00 00 00 	X<00XW0000000000
  0x5610	ae 5f 00 00 68 3c 00 00 30 58 00 00 00 00 00 00 	0_00h<000X000000
  0x5620	00 00 00 00 da 5f 00 00 40 3d 00 00 c8 57 00 00 	00000_00@=000W00
  0x5630	00 00 00 00 00 00 00 00 fc 5f 00 00 d8 3c 00 00 	000000000_000<00
  0x5640	40 58 00 00 00 00 00 00 00 00 00 00 20 60 00 00 	@X0000000000 `00
  0x5650	50 3d 00 00 00 58 00 00 00 00 00 00 00 00 00 00 	P=000X0000000000
  0x5660	44 60 00 00 10 3d 00 00 68 58 00 00 00 00 00 00 	D`000=00hX000000
  0x5670	00 00 00 00 e2 60 00 00 78 3d 00 00 d0 56 00 00 	00000`00x=000V00
  0x5680	00 00 00 00 00 00 00 00 0a 61 00 00 e0 3b 00 00 	000000000a000;00
  0x5690	08 57 00 00 00 00 00 00 00 00 00 00 5e 61 00 00 	0W0000000000^a00
  0x56a0	18 3c 00 00 f8 56 00 00 00 00 00 00 00 00 00 00 	0<000V0000000000
  0x56b0	84 61 00 00 08 3c 00 00 00 00 00 00 00 00 00 00 	0a000<0000000000
  0x56c0	00 00 00 00 00 00 00 00 00 00 00 00 00 00 00 00 	0000000000000000
  0x56d0	ee 60 00 00 00 00 00 00 00 00 00 00 00 00 00 00 	0`00000000000000
  0x56e0	d2 5c 00 00 00 00 00 00 e8 5b 00 00 00 00 00 00 	000000000[000000
  0x56f0	00 00 00 00 00 00 00 00 46 61 00 00 00 00 00 00 	00000000Fa000000
  0x5700	00 00 00 00 00 00 00 00 2e 61 00 00 00 00 00 00 	00000000.a000000
  0x5710	00 00 00 00 00 00 00 00 0c 5d 00 00 00 00 00 00 	000000000]000000
  0x5720	76 5c 00 00 00 00 00 00 f0 5d 00 00 00 00 00 00 	v00000000]000000
  0x5730	00 00 00 00 00 00 00 00 98 5c 00 00 00 00 00 00 	0000000000000000
  0x5740	00 00 00 00 00 00 00 00 a6 5c 00 00 00 00 00 00 	0000000000000000
  0x5750	00 00 00 00 00 00 00 00 b2 5c 00 00 00 00 00 00 	0000000000000000
  0x5760	00 00 00 00 00 00 00 00 2a 5d 00 00 00 00 00 00 	00000000*]000000
  0x5770	fa 5b 00 00 00 00 00 00 00 00 00 00 00 00 00 00 	0[00000000000000
  0x5780	d6 5b 00 00 00 00 00 00 00 00 00 00 00 00 00 00 	0[00000000000000
  0x5790	20 5e 00 00 00 00 00 00 58 5d 00 00 00 00 00 00 	 ^000000X]000000
  0x57a0	10 5c 00 00 00 00 00 00 0c 5e 00 00 00 00 00 00 	000000000^000000
  0x57b0	fa 5c 00 00 00 00 00 00 6e 5d 00 00 00 00 00 00 	00000000n]000000
  0x57c0	00 00 00 00 00 00 00 00 3e 5d 00 00 00 00 00 00 	00000000>]000000
  0x57d0	00 00 00 00 00 00 00 00 64 5c 00 00 00 00 00 00 	00000000d0000000
  0x57e0	28 5c 00 00 00 00 00 00 86 5c 00 00 00 00 00 00 	(000000000000000
  0x57f0	e4 5c 00 00 00 00 00 00 00 00 00 00 00 00 00 00 	0000000000000000
  0x5800	dc 5d 00 00 00 00 00 00 c2 5d 00 00 00 00 00 00 	0]0000000]000000
  0x5810	ae 5d 00 00 00 00 00 00 00 00 00 00 00 00 00 00 	0]00000000000000
  0x5820	38 5c 00 00 00 00 00 00 00 00 00 00 00 00 00 00 	8000000000000000
  0x5830	f2 5c 00 00 00 00 00 00 00 00 00 00 00 00 00 00 	0000000000000000
  0x5840	9e 5d 00 00 00 00 00 00 84 5d 00 00 00 00 00 00 	0]0000000]000000
  0x5850	00 00 00 00 00 00 00 00 4e 5c 00 00 00 00 00 00 	00000000N0000000
  0x5860	00 00 00 00 00 00 00 00 6a 60 00 00 00 00 00 00 	00000000j`000000
  0x5870	b4 60 00 00 00 00 00 00 9a 60 00 00 00 00 00 00 	0`0000000`000000
  0x5880	ca 60 00 00 00 00 00 00 7e 60 00 00 00 00 00 00 	0`000000~`000000
  0x5890	00 00 00 00 00 00 00 00 54 5b 00 00 00 00 00 00 	00000000T[000000
  0x58a0	5e 5b 00 00 00 00 00 00 68 5b 00 00 00 00 00 00 	^[000000h[000000
  0x58b0	80 5b 00 00 00 00 00 00 44 5a 00 00 00 00 00 00 	0[000000DZ000000
  0x58c0	3c 5b 00 00 00 00 00 00 30 5b 00 00 00 00 00 00 	<[0000000[000000
  0x58d0	1c 5b 00 00 00 00 00 00 24 5a 00 00 00 00 00 00 	0[000000$Z000000
  0x58e0	12 5b 00 00 00 00 00 00 0a 5b 00 00 00 00 00 00 	0[0000000[000000
  0x58f0	62 5a 00 00 00 00 00 00 88 5b 00 00 00 00 00 00 	bZ0000000[000000
  0x5900	7a 5a 00 00 00 00 00 00 04 5a 00 00 00 00 00 00 	zZ0000000Z000000
  0x5910	02 5b 00 00 00 00 00 00 f0 5a 00 00 00 00 00 00 	0[0000000Z000000
  0x5920	b0 59 00 00 00 00 00 00 98 5a 00 00 00 00 00 00 	0Y0000000Z000000
  0x5930	ae 5a 00 00 00 00 00 00 b8 5a 00 00 00 00 00 00 	0Z0000000Z000000
  0x5940	92 5b 00 00 00 00 00 00 a0 5b 00 00 00 00 00 00 	0[0000000[000000
  0x5950	c2 5a 00 00 00 00 00 00 aa 5b 00 00 00 00 00 00 	0Z0000000[000000
  0x5960	d0 5a 00 00 00 00 00 00 be 5b 00 00 00 00 00 00 	0Z0000000[000000
  0x5970	f8 59 00 00 00 00 00 00 ee 59 00 00 00 00 00 00 	0Y0000000Y000000
  0x5980	e2 59 00 00 00 00 00 00 d6 59 00 00 00 00 00 00 	0Y0000000Y000000
  0x5990	c0 59 00 00 00 00 00 00 de 5a 00 00 00 00 00 00 	0Y0000000Z000000
  0x59a0	aa 61 00 00 00 00 00 00 00 00 00 00 00 00 00 00 	0a00000000000000
  0x59b0	14 00 3f 3f 33 40 59 41 58 50 45 41 58 40 5a 00 	00??3@YAXPEAX@Z0
  0x59c0	5b 00 5f 5f 43 78 78 46 72 61 6d 65 48 61 6e 64 	[0__CxxFrameHand
  0x59d0	6c 65 72 33 00 00 8b 03 5f 77 63 73 69 63 6d 70 	ler30000_wcsicmp
  0x59e0	00 00 9f 02 5f 70 75 72 65 63 61 6c 6c 00 87 04 	0000_purecall000
  0x59f0	6d 61 6c 6c 6f 63 00 00 c0 00 5f 63 61 6c 6c 6e 	malloc0000_calln
  0x5a00	65 77 68 00 0a 00 3f 3f 30 65 78 63 65 70 74 69 	ewh000??0excepti
  0x5a10	6f 6e 40 40 51 45 41 41 40 41 45 42 51 45 42 44 	on@@QEAA@AEBQEBD
  0x5a20	40 5a 00 00 0b 00 3f 3f 30 65 78 63 65 70 74 69 	@Z0000??0excepti
  0x5a30	6f 6e 40 40 51 45 41 41 40 41 45 42 51 45 42 44 	on@@QEAA@AEBQEBD
  0x5a40	48 40 5a 00 0c 00 3f 3f 30 65 78 63 65 70 74 69 	H@Z000??0excepti
  0x5a50	6f 6e 40 40 51 45 41 41 40 41 45 42 56 30 40 40 	on@@QEAA@AEBV0@@
  0x5a60	5a 00 11 00 3f 3f 31 65 78 63 65 70 74 69 6f 6e 	Z000??1exception
  0x5a70	40 40 55 45 41 41 40 58 5a 00 31 00 3f 77 68 61 	@@UEAA@XZ010?wha
  0x5a80	74 40 65 78 63 65 70 74 69 6f 6e 40 40 55 45 42 	t@exception@@UEB
  0x5a90	41 50 45 42 44 58 5a 00 4b 00 5f 43 78 78 54 68 	APEBDXZ0K0_CxxTh
  0x5aa0	72 6f 77 45 78 63 65 70 74 69 6f 6e 00 00 93 04 	rowException0000
  0x5ab0	6d 65 6d 63 70 79 00 00 95 04 6d 65 6d 6d 6f 76 	memcpy0000memmov
  0x5ac0	65 00 55 00 5f 58 63 70 74 46 69 6c 74 65 72 00 	e0U0_XcptFilter0
  0x5ad0	af 00 5f 61 6d 73 67 5f 65 78 69 74 00 00 9e 00 	00_amsg_exit0000
  0x5ae0	5f 5f 77 67 65 74 6d 61 69 6e 61 72 67 73 00 00 	__wgetmainargs00
  0x5af0	8f 00 5f 5f 73 65 74 5f 61 70 70 5f 74 79 70 65 	00__set_app_type
  0x5b00	00 00 33 04 65 78 69 74 00 00 0f 01 5f 65 78 69 	0030exit0000_exi
  0x5b10	74 00 c2 00 5f 63 65 78 69 74 00 00 91 00 5f 5f 	t000_cexit0000__
  0x5b20	73 65 74 75 73 65 72 6d 61 74 68 65 72 72 00 00 	setusermatherr00
  0x5b30	7e 01 5f 69 6e 69 74 74 65 72 6d 00 57 00 5f 5f 	~0_initterm0W0__
  0x5b40	43 5f 73 70 65 63 69 66 69 63 5f 68 61 6e 64 6c 	C_specific_handl
  0x5b50	65 72 00 00 83 03 5f 77 63 6d 64 6c 6e 00 28 01 	er0000_wcmdln0(0
  0x5b60	5f 66 6d 6f 64 65 00 00 d3 00 5f 63 6f 6d 6d 6f 	_fmode0000_commo
  0x5b70	64 65 00 00 6d 73 76 63 72 74 2e 64 6c 6c 00 00 	de00msvcrt.dll00
  0x5b80	e7 01 5f 6c 6f 63 6b 00 42 03 5f 75 6e 6c 6f 63 	00_lock0B0_unloc
  0x5b90	6b 00 7c 00 5f 5f 64 6c 6c 6f 6e 65 78 69 74 00 	k0|0__dllonexit0
  0x5ba0	91 02 5f 6f 6e 65 78 69 74 00 2f 00 3f 74 65 72 	00_onexit0/0?ter
  0x5bb0	6d 69 6e 61 74 65 40 40 59 41 58 58 5a 00 12 00 	minate@@YAXXZ000
  0x5bc0	3f 3f 31 74 79 70 65 5f 69 6e 66 6f 40 40 55 45 	??1type_info@@UE
  0x5bd0	41 41 40 58 5a 00 05 00 47 65 74 43 6f 6d 6d 61 	AA@XZ000GetComma
  0x5be0	6e 64 4c 69 6e 65 57 00 44 00 43 6f 55 6e 69 6e 	ndLineW0D0CoUnin
  0x5bf0	69 74 69 61 6c 69 7a 65 00 00 10 00 47 65 74 4d 	itialize0000GetM
  0x5c00	6f 64 75 6c 65 46 69 6c 65 4e 61 6d 65 57 00 00 	oduleFileNameW00
  0x5c10	02 00 43 72 65 61 74 65 50 72 6f 63 65 73 73 41 	00CreateProcessA
  0x5c20	73 55 73 65 72 57 00 00 14 00 52 65 67 47 65 74 	sUserW0000RegGet
  0x5c30	56 61 6c 75 65 57 00 00 36 00 57 61 69 74 46 6f 	ValueW0060WaitFo
  0x5c40	72 53 69 6e 67 6c 65 4f 62 6a 65 63 74 00 00 00 	rSingleObject000
  0x5c50	43 6f 6d 6d 61 6e 64 4c 69 6e 65 54 6f 41 72 67 	CommandLineToArg
  0x5c60	76 57 00 00 2c 00 52 65 67 53 65 74 56 61 6c 75 	vW00,0RegSetValu
  0x5c70	65 45 78 57 00 00 05 00 47 65 74 4c 61 73 74 45 	eExW0000GetLastE
  0x5c80	72 72 6f 72 00 00 03 00 52 65 67 43 72 65 61 74 	rror0000RegCreat
  0x5c90	65 4b 65 79 45 78 57 00 00 00 43 6c 6f 73 65 48 	eKeyExW000CloseH
  0x5ca0	61 6e 64 6c 65 00 0a 00 4c 6f 63 61 6c 46 72 65 	andle000LocalFre
  0x5cb0	65 00 5e 00 57 54 53 47 65 74 41 63 74 69 76 65 	e0^0WTSGetActive
  0x5cc0	43 6f 6e 73 6f 6c 65 53 65 73 73 69 6f 6e 49 64 	ConsoleSessionId
  0x5cd0	00 00 28 00 43 6f 49 6e 69 74 69 61 6c 69 7a 65 	00(0CoInitialize
  0x5ce0	45 78 00 00 00 00 52 65 67 43 6c 6f 73 65 4b 65 	Ex0000RegCloseKe
  0x5cf0	79 00 2d 00 53 6c 65 65 70 00 20 00 47 65 74 53 	y0-0Sleep0 0GetS
  0x5d00	74 61 72 74 75 70 49 6e 66 6f 57 00 0f 00 53 65 	tartupInfoW000Se
  0x5d10	74 55 6e 68 61 6e 64 6c 65 64 45 78 63 65 70 74 	tUnhandledExcept
  0x5d20	69 6f 6e 46 69 6c 74 65 72 00 14 00 47 65 74 4d 	ionFilter000GetM
  0x5d30	6f 64 75 6c 65 48 61 6e 64 6c 65 57 00 00 00 00 	oduleHandleW0000
  0x5d40	51 75 65 72 79 50 65 72 66 6f 72 6d 61 6e 63 65 	QueryPerformance
  0x5d50	43 6f 75 6e 74 65 72 00 0d 00 47 65 74 43 75 72 	Counter000GetCur
  0x5d60	72 65 6e 74 50 72 6f 63 65 73 73 49 64 00 11 00 	rentProcessId000
  0x5d70	47 65 74 43 75 72 72 65 6e 74 54 68 72 65 61 64 	GetCurrentThread
  0x5d80	49 64 00 00 14 00 47 65 74 53 79 73 74 65 6d 54 	Id0000GetSystemT
  0x5d90	69 6d 65 41 73 46 69 6c 65 54 69 6d 65 00 18 00 	imeAsFileTime000
  0x5da0	47 65 74 54 69 63 6b 43 6f 75 6e 74 00 00 02 00 	GetTickCount0000
  0x5db0	52 74 6c 43 61 70 74 75 72 65 43 6f 6e 74 65 78 	RtlCaptureContex
  0x5dc0	74 00 09 00 52 74 6c 4c 6f 6f 6b 75 70 46 75 6e 	t000RtlLookupFun
  0x5dd0	63 74 69 6f 6e 45 6e 74 72 79 00 00 0f 00 52 74 	ctionEntry0000Rt
  0x5de0	6c 56 69 72 74 75 61 6c 55 6e 77 69 6e 64 00 00 	lVirtualUnwind00
  0x5df0	11 00 55 6e 68 61 6e 64 6c 65 64 45 78 63 65 70 	00UnhandledExcep
  0x5e00	74 69 6f 6e 46 69 6c 74 65 72 00 00 0c 00 47 65 	tionFilter0000Ge
  0x5e10	74 43 75 72 72 65 6e 74 50 72 6f 63 65 73 73 00 	tCurrentProcess0
  0x5e20	4d 00 54 65 72 6d 69 6e 61 74 65 50 72 6f 63 65 	M0TerminateProce
  0x5e30	73 73 00 00 61 70 69 2d 6d 73 2d 77 69 6e 2d 63 	ss00api-ms-win-c
  0x5e40	6f 72 65 2d 70 72 6f 63 65 73 73 65 6e 76 69 72 	ore-processenvir
  0x5e50	6f 6e 6d 65 6e 74 2d 6c 31 2d 31 2d 30 2e 64 6c 	onment-l1-1-0.dl
  0x5e60	6c 00 61 70 69 2d 6d 73 2d 77 69 6e 2d 63 6f 72 	l0api-ms-win-cor
  0x5e70	65 2d 63 6f 6d 2d 6c 31 2d 31 2d 30 2e 64 6c 6c 	e-com-l1-1-0.dll
  0x5e80	00 00 61 70 69 2d 6d 73 2d 77 69 6e 2d 63 6f 72 	00api-ms-win-cor
  0x5e90	65 2d 6c 69 62 72 61 72 79 6c 6f 61 64 65 72 2d 	e-libraryloader-
  0x5ea0	6c 31 2d 32 2d 30 2e 64 6c 6c 00 00 61 70 69 2d 	l1-2-0.dll00api-
  0x5eb0	6d 73 2d 77 69 6e 2d 63 6f 72 65 2d 70 72 6f 63 	ms-win-core-proc
  0x5ec0	65 73 73 74 68 72 65 61 64 73 2d 6c 31 2d 31 2d 	essthreads-l1-1-
  0x5ed0	30 2e 64 6c 6c 00 61 70 69 2d 6d 73 2d 77 69 6e 	0.dll0api-ms-win
  0x5ee0	2d 63 6f 72 65 2d 72 65 67 69 73 74 72 79 2d 6c 	-core-registry-l
  0x5ef0	31 2d 31 2d 30 2e 64 6c 6c 00 61 70 69 2d 6d 73 	1-1-0.dll0api-ms
  0x5f00	2d 77 69 6e 2d 63 6f 72 65 2d 73 79 6e 63 68 2d 	-win-core-synch-
  0x5f10	6c 31 2d 31 2d 30 2e 64 6c 6c 00 00 61 70 69 2d 	l1-1-0.dll00api-
  0x5f20	6d 73 2d 77 69 6e 2d 73 68 63 6f 72 65 2d 6f 62 	ms-win-shcore-ob
  0x5f30	73 6f 6c 65 74 65 2d 6c 31 2d 31 2d 30 2e 64 6c 	solete-l1-1-0.dl
  0x5f40	6c 00 61 70 69 2d 6d 73 2d 77 69 6e 2d 63 6f 72 	l0api-ms-win-cor
  0x5f50	65 2d 65 72 72 6f 72 68 61 6e 64 6c 69 6e 67 2d 	e-errorhandling-
  0x5f60	6c 31 2d 31 2d 30 2e 64 6c 6c 00 00 61 70 69 2d 	l1-1-0.dll00api-
  0x5f70	6d 73 2d 77 69 6e 2d 63 6f 72 65 2d 68 61 6e 64 	ms-win-core-hand
  0x5f80	6c 65 2d 6c 31 2d 31 2d 30 2e 64 6c 6c 00 61 70 	le-l1-1-0.dll0ap
  0x5f90	69 2d 6d 73 2d 77 69 6e 2d 63 6f 72 65 2d 68 65 	i-ms-win-core-he
  0x5fa0	61 70 2d 6c 32 2d 31 2d 30 2e 64 6c 6c 00 61 70 	ap-l2-1-0.dll0ap
  0x5fb0	69 2d 6d 73 2d 77 69 6e 2d 63 6f 72 65 2d 6b 65 	i-ms-win-core-ke
  0x5fc0	72 6e 65 6c 33 32 2d 6c 65 67 61 63 79 2d 6c 31 	rnel32-legacy-l1
  0x5fd0	2d 31 2d 30 2e 64 6c 6c 00 00 61 70 69 2d 6d 73 	-1-0.dll00api-ms
  0x5fe0	2d 77 69 6e 2d 63 6f 72 65 2d 73 79 6e 63 68 2d 	-win-core-synch-
  0x5ff0	6c 31 2d 32 2d 30 2e 64 6c 6c 00 00 61 70 69 2d 	l1-2-0.dll00api-
  0x6000	6d 73 2d 77 69 6e 2d 63 6f 72 65 2d 70 72 6f 66 	ms-win-core-prof
  0x6010	69 6c 65 2d 6c 31 2d 31 2d 30 2e 64 6c 6c 00 00 	ile-l1-1-0.dll00
  0x6020	61 70 69 2d 6d 73 2d 77 69 6e 2d 63 6f 72 65 2d 	api-ms-win-core-
  0x6030	73 79 73 69 6e 66 6f 2d 6c 31 2d 31 2d 30 2e 64 	sysinfo-l1-1-0.d
  0x6040	6c 6c 00 00 61 70 69 2d 6d 73 2d 77 69 6e 2d 63 	ll00api-ms-win-c
  0x6050	6f 72 65 2d 72 74 6c 73 75 70 70 6f 72 74 2d 6c 	ore-rtlsupport-l
  0x6060	31 2d 31 2d 30 2e 64 6c 6c 00 04 00 53 65 74 43 	1-1-0.dll000SetC
  0x6070	75 73 74 6f 6d 54 72 69 67 67 65 72 00 00 01 00 	ustomTrigger0000
  0x6080	47 65 74 43 65 6e 73 75 73 52 65 67 69 73 74 72 	GetCensusRegistr
  0x6090	79 4c 6f 63 61 74 69 6f 6e 00 02 00 52 75 6e 53 	yLocation000RunS
  0x60a0	79 73 74 65 6d 43 6f 6e 74 65 78 74 43 65 6e 73 	ystemContextCens
  0x60b0	75 73 00 00 05 00 53 65 74 43 75 73 74 6f 6d 54 	us0000SetCustomT
  0x60c0	72 69 67 67 65 72 45 78 00 00 03 00 52 75 6e 55 	riggerEx0000RunU
  0x60d0	73 65 72 43 6f 6e 74 65 78 74 43 65 6e 73 75 73 	serContextCensus
  0x60e0	00 00 64 63 6e 74 65 6c 2e 64 6c 6c 00 00 00 00 	00dcntel.dll0000
  0x60f0	41 70 69 53 65 74 51 75 65 72 79 41 70 69 53 65 	ApiSetQueryApiSe
  0x6100	74 50 72 65 73 65 6e 63 65 00 61 70 69 2d 6d 73 	tPresence0api-ms
  0x6110	2d 77 69 6e 2d 63 6f 72 65 2d 61 70 69 71 75 65 	-win-core-apique
  0x6120	72 79 2d 6c 31 2d 31 2d 30 2e 64 6c 6c 00 01 00 	ry-l1-1-0.dll000
  0x6130	52 65 73 6f 6c 76 65 44 65 6c 61 79 4c 6f 61 64 	ResolveDelayLoad
  0x6140	65 64 41 50 49 00 00 00 44 65 6c 61 79 4c 6f 61 	edAPI000DelayLoa
  0x6150	64 46 61 69 6c 75 72 65 48 6f 6f 6b 00 00 61 70 	dFailureHook00ap
  0x6160	69 2d 6d 73 2d 77 69 6e 2d 63 6f 72 65 2d 64 65 	i-ms-win-core-de
  0x6170	6c 61 79 6c 6f 61 64 2d 6c 31 2d 31 2d 31 2e 64 	layload-l1-1-1.d
  0x6180	6c 6c 00 00 61 70 69 2d 6d 73 2d 77 69 6e 2d 63 	ll00api-ms-win-c
  0x6190	6f 72 65 2d 64 65 6c 61 79 6c 6f 61 64 2d 6c 31 	ore-delayload-l1
  0x61a0	2d 31 2d 30 2e 64 6c 6c 00 00 97 04 6d 65 6d 73 	-1-0.dll0000mems
  0x61b0	65 74 00 00 00 00 00 00 00 00 00 00 00 00 00 00 	et00000000000000
  0x61c0	00 00 00 00 00 00 00 00 00 00 00 00 00 00 00 00 	0000000000000000
  0x61d0	00 00 00 00 00 00 00 00 00 00 00 00 00 00 00 00 	0000000000000000
  0x61e0	00 00 00 00 00 00 00 00 00 00 00 00 00 00 00 00 	0000000000000000
  0x61f0	00 00 00 00 00 00 00 00 00 00 00 00 00 00 00 00 	0000000000000000
  0x6200	00 00 00 00 00 00 00 00 00 00 00 00 00 00 00 00 	0000000000000000
  0x6210	00 00 00 00 00 00 00 00 00 00 00 00 00 00 00 00 	0000000000000000
  0x6220	00 00 00 00 00 00 00 00 00 00 00 00 00 00 00 00 	0000000000000000
  0x6230	00 00 00 00 00 00 00 00 00 00 00 00 00 00 00 00 	0000000000000000
  0x6240	00 00 00 00 00 00 00 00 00 00 00 00 00 00 00 00 	0000000000000000
  0x6250	00 00 00 00 00 00 00 00 00 00 00 00 00 00 00 00 	0000000000000000
  0x6260	00 00 00 00 00 00 00 00 00 00 00 00 00 00 00 00 	0000000000000000
  0x6270	00 00 00 00 00 00 00 00 00 00 00 00 00 00 00 00 	0000000000000000
  0x6280	00 00 00 00 00 00 00 00 00 00 00 00 00 00 00 00 	0000000000000000
  0x6290	00 00 00 00 00 00 00 00 00 00 00 00 00 00 00 00 	0000000000000000
  0x62a0	00 00 00 00 00 00 00 00 00 00 00 00 00 00 00 00 	0000000000000000
  0x62b0	00 00 00 00 00 00 00 00 00 00 00 00 00 00 00 00 	0000000000000000
  0x62c0	00 00 00 00 00 00 00 00 00 00 00 00 00 00 00 00 	0000000000000000
  0x62d0	00 00 00 00 00 00 00 00 00 00 00 00 00 00 00 00 	0000000000000000
  0x62e0	00 00 00 00 00 00 00 00 00 00 00 00 00 00 00 00 	0000000000000000
  0x62f0	00 00 00 00 00 00 00 00 00 00 00 00 00 00 00 00 	0000000000000000
  0x6300	00 00 00 00 00 00 00 00 00 00 00 00 00 00 00 00 	0000000000000000
  0x6310	00 00 00 00 00 00 00 00 00 00 00 00 00 00 00 00 	0000000000000000
  0x6320	00 00 00 00 00 00 00 00 00 00 00 00 00 00 00 00 	0000000000000000
  0x6330	00 00 00 00 00 00 00 00 00 00 00 00 00 00 00 00 	0000000000000000
  0x6340	00 00 00 00 00 00 00 00 00 00 00 00 00 00 00 00 	0000000000000000
  0x6350	00 00 00 00 00 00 00 00 00 00 00 00 00 00 00 00 	0000000000000000
  0x6360	00 00 00 00 00 00 00 00 00 00 00 00 00 00 00 00 	0000000000000000
  0x6370	00 00 00 00 00 00 00 00 00 00 00 00 00 00 00 00 	0000000000000000
  0x6380	00 00 00 00 00 00 00 00 00 00 00 00 00 00 00 00 	0000000000000000
  0x6390	00 00 00 00 00 00 00 00 00 00 00 00 00 00 00 00 	0000000000000000
  0x63a0	00 00 00 00 00 00 00 00 00 00 00 00 00 00 00 00 	0000000000000000
  0x63b0	00 00 00 00 00 00 00 00 00 00 00 00 00 00 00 00 	0000000000000000
  0x63c0	00 00 00 00 00 00 00 00 00 00 00 00 00 00 00 00 	0000000000000000
  0x63d0	00 00 00 00 00 00 00 00 00 00 00 00 00 00 00 00 	0000000000000000
  0x63e0	00 00 00 00 00 00 00 00 00 00 00 00 00 00 00 00 	0000000000000000
  0x63f0	00 00 00 00 00 00 00 00 00 00 00 00 00 00 00 00 	0000000000000000
  0x6400	00 00 00 00 00 00 00 00 00 00 00 00 00 00 00 00 	0000000000000000
  0x6410	00 00 00 00 00 00 00 00 00 00 00 00 00 00 00 00 	0000000000000000
  0x6420	00 00 00 00 00 00 00 00 00 00 00 00 00 00 00 00 	0000000000000000
  0x6430	00 00 00 00 00 00 00 00 00 00 00 00 00 00 00 00 	0000000000000000
  0x6440	00 00 00 00 00 00 00 00 00 00 00 00 00 00 00 00 	0000000000000000
  0x6450	00 00 00 00 00 00 00 00 00 00 00 00 00 00 00 00 	0000000000000000
  0x6460	00 00 00 00 00 00 00 00 00 00 00 00 00 00 00 00 	0000000000000000
  0x6470	00 00 00 00 00 00 00 00 00 00 00 00 00 00 00 00 	0000000000000000
  0x6480	00 00 00 00 00 00 00 00 00 00 00 00 00 00 00 00 	0000000000000000
  0x6490	00 00 00 00 00 00 00 00 00 00 00 00 00 00 00 00 	0000000000000000
  0x64a0	00 00 00 00 00 00 00 00 00 00 00 00 00 00 00 00 	0000000000000000
  0x64b0	00 00 00 00 00 00 00 00 00 00 00 00 00 00 00 00 	0000000000000000
  0x64c0	00 00 00 00 00 00 00 00 00 00 00 00 00 00 00 00 	0000000000000000
  0x64d0	00 00 00 00 00 00 00 00 00 00 00 00 00 00 00 00 	0000000000000000
  0x64e0	00 00 00 00 00 00 00 00 00 00 00 00 00 00 00 00 	0000000000000000
  0x64f0	00 00 00 00 00 00 00 00 00 00 00 00 00 00 00 00 	0000000000000000
  0x6500	00 00 00 00 00 00 00 00 00 00 00 00 00 00 00 00 	0000000000000000
  0x6510	00 00 00 00 00 00 00 00 00 00 00 00 00 00 00 00 	0000000000000000
  0x6520	00 00 00 00 00 00 00 00 00 00 00 00 00 00 00 00 	0000000000000000
  0x6530	00 00 00 00 00 00 00 00 00 00 00 00 00 00 00 00 	0000000000000000
  0x6540	00 00 00 00 00 00 00 00 00 00 00 00 00 00 00 00 	0000000000000000
  0x6550	00 00 00 00 00 00 00 00 00 00 00 00 00 00 00 00 	0000000000000000
  0x6560	00 00 00 00 00 00 00 00 00 00 00 00 00 00 00 00 	0000000000000000
  0x6570	00 00 00 00 00 00 00 00 00 00 00 00 00 00 00 00 	0000000000000000
  0x6580	00 00 00 00 00 00 00 00 00 00 00 00 00 00 00 00 	0000000000000000
  0x6590	00 00 00 00 00 00 00 00 00 00 00 00 00 00 00 00 	0000000000000000
  0x65a0	00 00 00 00 00 00 00 00 00 00 00 00 00 00 00 00 	0000000000000000
  0x65b0	00 00 00 00 00 00 00 00 00 00 00 00 00 00 00 00 	0000000000000000
  0x65c0	00 00 00 00 00 00 00 00 00 00 00 00 00 00 00 00 	0000000000000000
  0x65d0	00 00 00 00 00 00 00 00 00 00 00 00 00 00 00 00 	0000000000000000
  0x65e0	00 00 00 00 00 00 00 00 00 00 00 00 00 00 00 00 	0000000000000000
  0x65f0	00 00 00 00 00 00 00 00 00 00 00 00 00 00 00 00 	0000000000000000
  0x6600	00 00 00 00 00 00 00 00 00 00 00 00 00 00 00 00 	0000000000000000
  0x6610	00 00 00 00 00 00 00 00 00 00 00 00 00 00 00 00 	0000000000000000
  0x6620	00 00 00 00 00 00 00 00 00 00 00 00 00 00 00 00 	0000000000000000
  0x6630	00 00 00 00 00 00 00 00 00 00 00 00 00 00 00 00 	0000000000000000
  0x6640	00 00 00 00 00 00 00 00 00 00 00 00 00 00 00 00 	0000000000000000
  0x6650	00 00 00 00 00 00 00 00 00 00 00 00 00 00 00 00 	0000000000000000
  0x6660	00 00 00 00 00 00 00 00 00 00 00 00 00 00 00 00 	0000000000000000
  0x6670	00 00 00 00 00 00 00 00 00 00 00 00 00 00 00 00 	0000000000000000
  0x6680	00 00 00 00 00 00 00 00 00 00 00 00 00 00 00 00 	0000000000000000
  0x6690	00 00 00 00 00 00 00 00 00 00 00 00 00 00 00 00 	0000000000000000
  0x66a0	00 00 00 00 00 00 00 00 00 00 00 00 00 00 00 00 	0000000000000000
  0x66b0	00 00 00 00 00 00 00 00 00 00 00 00 00 00 00 00 	0000000000000000
  0x66c0	00 00 00 00 00 00 00 00 00 00 00 00 00 00 00 00 	0000000000000000
  0x66d0	00 00 00 00 00 00 00 00 00 00 00 00 00 00 00 00 	0000000000000000
  0x66e0	00 00 00 00 00 00 00 00 00 00 00 00 00 00 00 00 	0000000000000000
  0x66f0	00 00 00 00 00 00 00 00 00 00 00 00 00 00 00 00 	0000000000000000
  0x6700	00 00 00 00 00 00 00 00 00 00 00 00 00 00 00 00 	0000000000000000
  0x6710	00 00 00 00 00 00 00 00 00 00 00 00 00 00 00 00 	0000000000000000
  0x6720	00 00 00 00 00 00 00 00 00 00 00 00 00 00 00 00 	0000000000000000
  0x6730	00 00 00 00 00 00 00 00 00 00 00 00 00 00 00 00 	0000000000000000
  0x6740	00 00 00 00 00 00 00 00 00 00 00 00 00 00 00 00 	0000000000000000
  0x6750	00 00 00 00 00 00 00 00 00 00 00 00 00 00 00 00 	0000000000000000
  0x6760	00 00 00 00 00 00 00 00 00 00 00 00 00 00 00 00 	0000000000000000
  0x6770	00 00 00 00 00 00 00 00 00 00 00 00 00 00 00 00 	0000000000000000
  0x6780	00 00 00 00 00 00 00 00 00 00 00 00 00 00 00 00 	0000000000000000
  0x6790	00 00 00 00 00 00 00 00 00 00 00 00 00 00 00 00 	0000000000000000
  0x67a0	00 00 00 00 00 00 00 00 00 00 00 00 00 00 00 00 	0000000000000000
  0x67b0	00 00 00 00 00 00 00 00 00 00 00 00 00 00 00 00 	0000000000000000
  0x67c0	00 00 00 00 00 00 00 00 00 00 00 00 00 00 00 00 	0000000000000000
  0x67d0	00 00 00 00 00 00 00 00 00 00 00 00 00 00 00 00 	0000000000000000
  0x67e0	00 00 00 00 00 00 00 00 00 00 00 00 00 00 00 00 	0000000000000000
  0x67f0	00 00 00 00 00 00 00 00 00 00 00 00 00 00 00 00 	0000000000000000
  0x6800	00 00 00 00 00 00 00 00 00 00 00 00 00 00 00 00 	0000000000000000
  0x6810	00 00 00 00 00 00 00 00 00 00 00 00 00 00 00 00 	0000000000000000
  0x6820	00 00 00 00 00 00 00 00 00 00 00 00 00 00 00 00 	0000000000000000
  0x6830	00 00 00 00 00 00 00 00 00 00 00 00 00 00 00 00 	0000000000000000
  0x6840	00 00 00 00 00 00 00 00 00 00 00 00 00 00 00 00 	0000000000000000
  0x6850	00 00 00 00 00 00 00 00 00 00 00 00 00 00 00 00 	0000000000000000
  0x6860	00 00 00 00 00 00 00 00 00 00 00 00 00 00 00 00 	0000000000000000
  0x6870	00 00 00 00 00 00 00 00 00 00 00 00 00 00 00 00 	0000000000000000
  0x6880	00 00 00 00 00 00 00 00 00 00 00 00 00 00 00 00 	0000000000000000
  0x6890	00 00 00 00 00 00 00 00 00 00 00 00 00 00 00 00 	0000000000000000
  0x68a0	00 00 00 00 00 00 00 00 00 00 00 00 00 00 00 00 	0000000000000000
  0x68b0	00 00 00 00 00 00 00 00 00 00 00 00 00 00 00 00 	0000000000000000
  0x68c0	00 00 00 00 00 00 00 00 00 00 00 00 00 00 00 00 	0000000000000000
  0x68d0	00 00 00 00 00 00 00 00 00 00 00 00 00 00 00 00 	0000000000000000
  0x68e0	00 00 00 00 00 00 00 00 00 00 00 00 00 00 00 00 	0000000000000000
  0x68f0	00 00 00 00 00 00 00 00 00 00 00 00 00 00 00 00 	0000000000000000
  0x6900	00 00 00 00 00 00 00 00 00 00 00 00 00 00 00 00 	0000000000000000
  0x6910	00 00 00 00 00 00 00 00 00 00 00 00 00 00 00 00 	0000000000000000
  0x6920	00 00 00 00 00 00 00 00 00 00 00 00 00 00 00 00 	0000000000000000
  0x6930	00 00 00 00 00 00 00 00 00 00 00 00 00 00 00 00 	0000000000000000
  0x6940	00 00 00 00 00 00 00 00 00 00 00 00 00 00 00 00 	0000000000000000
  0x6950	00 00 00 00 00 00 00 00 00 00 00 00 00 00 00 00 	0000000000000000
  0x6960	00 00 00 00 00 00 00 00 00 00 00 00 00 00 00 00 	0000000000000000
  0x6970	00 00 00 00 00 00 00 00 00 00 00 00 00 00 00 00 	0000000000000000
  0x6980	00 00 00 00 00 00 00 00 00 00 00 00 00 00 00 00 	0000000000000000
  0x6990	00 00 00 00 00 00 00 00 00 00 00 00 00 00 00 00 	0000000000000000
  0x69a0	00 00 00 00 00 00 00 00 00 00 00 00 00 00 00 00 	0000000000000000
  0x69b0	00 00 00 00 00 00 00 00 00 00 00 00 00 00 00 00 	0000000000000000
  0x69c0	00 00 00 00 00 00 00 00 00 00 00 00 00 00 00 00 	0000000000000000
  0x69d0	00 00 00 00 00 00 00 00 00 00 00 00 00 00 00 00 	0000000000000000
  0x69e0	00 00 00 00 00 00 00 00 00 00 00 00 00 00 00 00 	0000000000000000
  0x69f0	00 00 00 00 00 00 00 00 00 00 00 00 00 00 00 00 	0000000000000000
  0x6a00	00 00 00 00 00 00 00 00 00 00 00 00 00 00 00 00 	0000000000000000
  0x6a10	00 00 00 00 00 00 00 00 00 00 00 00 00 00 00 00 	0000000000000000
  0x6a20	00 00 00 00 00 00 00 00 00 00 00 00 00 00 00 00 	0000000000000000
  0x6a30	00 00 00 00 00 00 00 00 00 00 00 00 00 00 00 00 	0000000000000000
  0x6a40	00 00 00 00 00 00 00 00 00 00 00 00 00 00 00 00 	0000000000000000
  0x6a50	00 00 00 00 00 00 00 00 00 00 00 00 00 00 00 00 	0000000000000000
  0x6a60	00 00 00 00 00 00 00 00 00 00 00 00 00 00 00 00 	0000000000000000
  0x6a70	00 00 00 00 00 00 00 00 00 00 00 00 00 00 00 00 	0000000000000000
  0x6a80	00 00 00 00 00 00 00 00 00 00 00 00 00 00 00 00 	0000000000000000
  0x6a90	00 00 00 00 00 00 00 00 00 00 00 00 00 00 00 00 	0000000000000000
  0x6aa0	00 00 00 00 00 00 00 00 00 00 00 00 00 00 00 00 	0000000000000000
  0x6ab0	00 00 00 00 00 00 00 00 00 00 00 00 00 00 00 00 	0000000000000000
  0x6ac0	00 00 00 00 00 00 00 00 00 00 00 00 00 00 00 00 	0000000000000000
  0x6ad0	00 00 00 00 00 00 00 00 00 00 00 00 00 00 00 00 	0000000000000000
  0x6ae0	00 00 00 00 00 00 00 00 00 00 00 00 00 00 00 00 	0000000000000000
  0x6af0	00 00 00 00 00 00 00 00 00 00 00 00 00 00 00 00 	0000000000000000
  0x6b00	00 00 00 00 00 00 00 00 00 00 00 00 00 00 00 00 	0000000000000000
  0x6b10	00 00 00 00 00 00 00 00 00 00 00 00 00 00 00 00 	0000000000000000
  0x6b20	00 00 00 00 00 00 00 00 00 00 00 00 00 00 00 00 	0000000000000000
  0x6b30	00 00 00 00 00 00 00 00 00 00 00 00 00 00 00 00 	0000000000000000
  0x6b40	00 00 00 00 00 00 00 00 00 00 00 00 00 00 00 00 	0000000000000000
  0x6b50	00 00 00 00 00 00 00 00 00 00 00 00 00 00 00 00 	0000000000000000
  0x6b60	00 00 00 00 00 00 00 00 00 00 00 00 00 00 00 00 	0000000000000000
  0x6b70	00 00 00 00 00 00 00 00 00 00 00 00 00 00 00 00 	0000000000000000
  0x6b80	00 00 00 00 00 00 00 00 00 00 00 00 00 00 00 00 	0000000000000000
  0x6b90	00 00 00 00 00 00 00 00 00 00 00 00 00 00 00 00 	0000000000000000
  0x6ba0	00 00 00 00 00 00 00 00 00 00 00 00 00 00 00 00 	0000000000000000
  0x6bb0	00 00 00 00 00 00 00 00 00 00 00 00 00 00 00 00 	0000000000000000
  0x6bc0	00 00 00 00 00 00 00 00 00 00 00 00 00 00 00 00 	0000000000000000
  0x6bd0	00 00 00 00 00 00 00 00 00 00 00 00 00 00 00 00 	0000000000000000
  0x6be0	00 00 00 00 00 00 00 00 00 00 00 00 00 00 00 00 	0000000000000000
  0x6bf0	00 00 00 00 00 00 00 00 00 00 00 00 00 00 00 00 	0000000000000000
  0x6c00	00 00 00 00 00 00 00 00 00 00 00 00 00 00 00 00 	0000000000000000
  0x6c10	00 00 00 00 00 00 00 00 00 00 00 00 00 00 00 00 	0000000000000000
  0x6c20	00 00 00 00 00 00 00 00 00 00 00 00 00 00 00 00 	0000000000000000
  0x6c30	00 00 00 00 00 00 00 00 00 00 00 00 00 00 00 00 	0000000000000000
  0x6c40	00 00 00 00 00 00 00 00 00 00 00 00 00 00 00 00 	0000000000000000
  0x6c50	00 00 00 00 00 00 00 00 00 00 00 00 00 00 00 00 	0000000000000000
  0x6c60	00 00 00 00 00 00 00 00 00 00 00 00 00 00 00 00 	0000000000000000
  0x6c70	00 00 00 00 00 00 00 00 00 00 00 00 00 00 00 00 	0000000000000000
  0x6c80	00 00 00 00 00 00 00 00 00 00 00 00 00 00 00 00 	0000000000000000
  0x6c90	00 00 00 00 00 00 00 00 00 00 00 00 00 00 00 00 	0000000000000000
  0x6ca0	00 00 00 00 00 00 00 00 00 00 00 00 00 00 00 00 	0000000000000000
  0x6cb0	00 00 00 00 00 00 00 00 00 00 00 00 00 00 00 00 	0000000000000000
  0x6cc0	00 00 00 00 00 00 00 00 00 00 00 00 00 00 00 00 	0000000000000000
  0x6cd0	00 00 00 00 00 00 00 00 00 00 00 00 00 00 00 00 	0000000000000000
  0x6ce0	00 00 00 00 00 00 00 00 00 00 00 00 00 00 00 00 	0000000000000000
  0x6cf0	00 00 00 00 00 00 00 00 00 00 00 00 00 00 00 00 	0000000000000000
  0x6d00	00 00 00 00 00 00 00 00 00 00 00 00 00 00 00 00 	0000000000000000
  0x6d10	00 00 00 00 00 00 00 00 00 00 00 00 00 00 00 00 	0000000000000000
  0x6d20	00 00 00 00 00 00 00 00 00 00 00 00 00 00 00 00 	0000000000000000
  0x6d30	00 00 00 00 00 00 00 00 00 00 00 00 00 00 00 00 	0000000000000000
  0x6d40	00 00 00 00 00 00 00 00 00 00 00 00 00 00 00 00 	0000000000000000
  0x6d50	00 00 00 00 00 00 00 00 00 00 00 00 00 00 00 00 	0000000000000000
  0x6d60	00 00 00 00 00 00 00 00 00 00 00 00 00 00 00 00 	0000000000000000
  0x6d70	00 00 00 00 00 00 00 00 00 00 00 00 00 00 00 00 	0000000000000000
  0x6d80	00 00 00 00 00 00 00 00 00 00 00 00 00 00 00 00 	0000000000000000
  0x6d90	00 00 00 00 00 00 00 00 00 00 00 00 00 00 00 00 	0000000000000000
  0x6da0	00 00 00 00 00 00 00 00 00 00 00 00 00 00 00 00 	0000000000000000
  0x6db0	00 00 00 00 00 00 00 00 00 00 00 00 00 00 00 00 	0000000000000000
  0x6dc0	00 00 00 00 00 00 00 00 00 00 00 00 00 00 00 00 	0000000000000000
  0x6dd0	00 00 00 00 00 00 00 00 00 00 00 00 00 00 00 00 	0000000000000000
  0x6de0	00 00 00 00 00 00 00 00 00 00 00 00 00 00 00 00 	0000000000000000
  0x6df0	00 00 00 00 00 00 00 00 00 00 00 00 00 00 00 00 	0000000000000000
  0x6e00	00 00 00 00 00 00 00 00 00 00 00 00 00 00 00 00 	0000000000000000
  0x6e10	00 00 00 00 00 00 00 00 00 00 00 00 00 00 00 00 	0000000000000000
  0x6e20	00 00 00 00 00 00 00 00 00 00 00 00 00 00 00 00 	0000000000000000
  0x6e30	00 00 00 00 00 00 00 00 00 00 00 00 00 00 00 00 	0000000000000000
  0x6e40	00 00 00 00 00 00 00 00 00 00 00 00 00 00 00 00 	0000000000000000
  0x6e50	00 00 00 00 00 00 00 00 00 00 00 00 00 00 00 00 	0000000000000000
  0x6e60	00 00 00 00 00 00 00 00 00 00 00 00 00 00 00 00 	0000000000000000
  0x6e70	00 00 00 00 00 00 00 00 00 00 00 00 00 00 00 00 	0000000000000000
  0x6e80	00 00 00 00 00 00 00 00 00 00 00 00 00 00 00 00 	0000000000000000
  0x6e90	00 00 00 00 00 00 00 00 00 00 00 00 00 00 00 00 	0000000000000000
  0x6ea0	00 00 00 00 00 00 00 00 00 00 00 00 00 00 00 00 	0000000000000000
  0x6eb0	00 00 00 00 00 00 00 00 00 00 00 00 00 00 00 00 	0000000000000000
  0x6ec0	00 00 00 00 00 00 00 00 00 00 00 00 00 00 00 00 	0000000000000000
  0x6ed0	00 00 00 00 00 00 00 00 00 00 00 00 00 00 00 00 	0000000000000000
  0x6ee0	00 00 00 00 00 00 00 00 00 00 00 00 00 00 00 00 	0000000000000000
  0x6ef0	00 00 00 00 00 00 00 00 00 00 00 00 00 00 00 00 	0000000000000000
  0x6f00	00 00 00 00 00 00 00 00 00 00 00 00 00 00 00 00 	0000000000000000
  0x6f10	00 00 00 00 00 00 00 00 00 00 00 00 00 00 00 00 	0000000000000000
  0x6f20	00 00 00 00 00 00 00 00 00 00 00 00 00 00 00 00 	0000000000000000
  0x6f30	00 00 00 00 00 00 00 00 00 00 00 00 00 00 00 00 	0000000000000000
  0x6f40	00 00 00 00 00 00 00 00 00 00 00 00 00 00 00 00 	0000000000000000
  0x6f50	00 00 00 00 00 00 00 00 00 00 00 00 00 00 00 00 	0000000000000000
  0x6f60	00 00 00 00 00 00 00 00 00 00 00 00 00 00 00 00 	0000000000000000
  0x6f70	00 00 00 00 00 00 00 00 00 00 00 00 00 00 00 00 	0000000000000000
  0x6f80	00 00 00 00 00 00 00 00 00 00 00 00 00 00 00 00 	0000000000000000
  0x6f90	00 00 00 00 00 00 00 00 00 00 00 00 00 00 00 00 	0000000000000000
  0x6fa0	00 00 00 00 00 00 00 00 00 00 00 00 00 00 00 00 	0000000000000000
  0x6fb0	00 00 00 00 00 00 00 00 00 00 00 00 00 00 00 00 	0000000000000000
  0x6fc0	00 00 00 00 00 00 00 00 00 00 00 00 00 00 00 00 	0000000000000000
  0x6fd0	00 00 00 00 00 00 00 00 00 00 00 00 00 00 00 00 	0000000000000000
  0x6fe0	00 00 00 00 00 00 00 00 00 00 00 00 00 00 00 00 	0000000000000000
  0x6ff0	00 00 00 00 00 00 00 00 00 00 00 00 00 00 00 00 	0000000000000000
=== DATA BLOCK END ===

=== DATA BLOCK ADDRESS 0x7000 ===
  0x7000	18 3a 00 40 01 00 00 00 78 3a 00 40 01 00 00 00 	0:0@0000x:0@0000
  0x7010	48 3a 00 40 01 00 00 00 c0 39 00 40 01 00 00 00 	H:0@0000090@0000
  0x7020	00 00 00 00 00 00 00 00 2e 3f 41 56 62 61 64 5f 	00000000.?AVbad_
  0x7030	61 6c 6c 6f 63 40 73 74 64 40 40 00 00 00 00 00 	alloc@std@@00000
  0x7040	c0 39 00 40 01 00 00 00 00 00 00 00 00 00 00 00 	090@000000000000
  0x7050	2e 3f 41 56 65 78 63 65 70 74 69 6f 6e 40 40 00 	.?AVexception@@0
  0x7060	c0 39 00 40 01 00 00 00 00 00 00 00 00 00 00 00 	090@000000000000
  0x7070	2e 3f 41 56 6c 6f 67 69 63 5f 65 72 72 6f 72 40 	.?AVlogic_error@
  0x7080	73 74 64 40 40 00 00 00 c0 39 00 40 01 00 00 00 	std@@000090@0000
  0x7090	00 00 00 00 00 00 00 00 2e 3f 41 56 6c 65 6e 67 	00000000.?AVleng
  0x70a0	74 68 5f 65 72 72 6f 72 40 73 74 64 40 40 00 00 	th_error@std@@00
  0x70b0	c0 39 00 40 01 00 00 00 00 00 00 00 00 00 00 00 	090@000000000000
  0x70c0	2e 3f 41 56 6f 75 74 5f 6f 66 5f 72 61 6e 67 65 	.?AVout_of_range
  0x70d0	40 73 74 64 40 40 00 00 00 00 00 00 00 00 00 00 	@std@@0000000000
  0x70e0	01 00 00 00 00 00 00 00 32 a2 df 2d 99 2b 00 00 	00000000200-0+00
  0x70f0	cd 5d 20 d2 66 d4 ff ff 00 00 00 00 00 00 00 00 	0] 0f00000000000
  0x7100	00 00 00 00 00 00 00 00 00 00 00 00 00 00 00 00 	0000000000000000
  0x7110	00 00 00 00 00 00 00 00 00 00 00 00 00 00 00 00 	0000000000000000
  0x7120	00 00 00 00 00 00 00 00 00 00 00 00 00 00 00 00 	0000000000000000
  0x7130	00 00 00 00 00 00 00 00 00 00 00 00 00 00 00 00 	0000000000000000
  0x7140	00 00 00 00 00 00 00 00 00 00 00 00 00 00 00 00 	0000000000000000
  0x7150	00 00 00 00 00 00 00 00 00 00 00 00 00 00 00 00 	0000000000000000
  0x7160	00 00 00 00 00 00 00 00 00 00 00 00 00 00 00 00 	0000000000000000
  0x7170	00 00 00 00 00 00 00 00 00 00 00 00 00 00 00 00 	0000000000000000
  0x7180	00 00 00 00 00 00 00 00 00 00 00 00 00 00 00 00 	0000000000000000
  0x7190	00 00 00 00 00 00 00 00 00 00 00 00 00 00 00 00 	0000000000000000
  0x71a0	00 00 00 00 00 00 00 00 00 00 00 00 00 00 00 00 	0000000000000000
  0x71b0	00 00 00 00 00 00 00 00 00 00 00 00 00 00 00 00 	0000000000000000
  0x71c0	00 00 00 00 00 00 00 00 00 00 00 00 00 00 00 00 	0000000000000000
  0x71d0	00 00 00 00 00 00 00 00 00 00 00 00 00 00 00 00 	0000000000000000
  0x71e0	00 00 00 00 00 00 00 00 00 00 00 00 00 00 00 00 	0000000000000000
  0x71f0	00 00 00 00 00 00 00 00 00 00 00 00 00 00 00 00 	0000000000000000
  0x7200	00 00 00 00 00 00 00 00 00 00 00 00 00 00 00 00 	0000000000000000
  0x7210	00 00 00 00 00 00 00 00 00 00 00 00 00 00 00 00 	0000000000000000
  0x7220	00 00 00 00 00 00 00 00 00 00 00 00 00 00 00 00 	0000000000000000
  0x7230	00 00 00 00 00 00 00 00 00 00 00 00 00 00 00 00 	0000000000000000
  0x7240	00 00 00 00 00 00 00 00 00 00 00 00 00 00 00 00 	0000000000000000
  0x7250	00 00 00 00 00 00 00 00 00 00 00 00 00 00 00 00 	0000000000000000
  0x7260	00 00 00 00 00 00 00 00 00 00 00 00 00 00 00 00 	0000000000000000
  0x7270	00 00 00 00 00 00 00 00 00 00 00 00 00 00 00 00 	0000000000000000
  0x7280	00 00 00 00 00 00 00 00 00 00 00 00 00 00 00 00 	0000000000000000
  0x7290	00 00 00 00 00 00 00 00 00 00 00 00 00 00 00 00 	0000000000000000
  0x72a0	00 00 00 00 00 00 00 00 00 00 00 00 00 00 00 00 	0000000000000000
  0x72b0	00 00 00 00 00 00 00 00 00 00 00 00 00 00 00 00 	0000000000000000
  0x72c0	00 00 00 00 00 00 00 00 00 00 00 00 00 00 00 00 	0000000000000000
  0x72d0	00 00 00 00 00 00 00 00 00 00 00 00 00 00 00 00 	0000000000000000
  0x72e0	00 00 00 00 00 00 00 00 00 00 00 00 00 00 00 00 	0000000000000000
  0x72f0	00 00 00 00 00 00 00 00 00 00 00 00 00 00 00 00 	0000000000000000
  0x7300	00 00 00 00 00 00 00 00 00 00 00 00 00 00 00 00 	0000000000000000
  0x7310	00 00 00 00 00 00 00 00 00 00 00 00 00 00 00 00 	0000000000000000
  0x7320	00 00 00 00 00 00 00 00 00 00 00 00 00 00 00 00 	0000000000000000
  0x7330	00 00 00 00 00 00 00 00 00 00 00 00 00 00 00 00 	0000000000000000
  0x7340	00 00 00 00 00 00 00 00 00 00 00 00 00 00 00 00 	0000000000000000
  0x7350	00 00 00 00 00 00 00 00 00 00 00 00 00 00 00 00 	0000000000000000
  0x7360	00 00 00 00 00 00 00 00 00 00 00 00 00 00 00 00 	0000000000000000
  0x7370	00 00 00 00 00 00 00 00 00 00 00 00 00 00 00 00 	0000000000000000
  0x7380	00 00 00 00 00 00 00 00 00 00 00 00 00 00 00 00 	0000000000000000
  0x7390	00 00 00 00 00 00 00 00 00 00 00 00 00 00 00 00 	0000000000000000
  0x73a0	00 00 00 00 00 00 00 00 00 00 00 00 00 00 00 00 	0000000000000000
  0x73b0	00 00 00 00 00 00 00 00 00 00 00 00 00 00 00 00 	0000000000000000
  0x73c0	00 00 00 00 00 00 00 00 00 00 00 00 00 00 00 00 	0000000000000000
  0x73d0	00 00 00 00 00 00 00 00 00 00 00 00 00 00 00 00 	0000000000000000
  0x73e0	00 00 00 00 00 00 00 00 00 00 00 00 00 00 00 00 	0000000000000000
  0x73f0	00 00 00 00 00 00 00 00 00 00 00 00 00 00 00 00 	0000000000000000
  0x7400	00 00 00 00 00 00 00 00 00 00 00 00 00 00 00 00 	0000000000000000
  0x7410	00 00 00 00 00 00 00 00 00 00 00 00 00 00 00 00 	0000000000000000
  0x7420	00 00 00 00 00 00 00 00 00 00 00 00 00 00 00 00 	0000000000000000
  0x7430	00 00 00 00 00 00 00 00 00 00 00 00 00 00 00 00 	0000000000000000
  0x7440	00 00 00 00 00 00 00 00 00 00 00 00 00 00 00 00 	0000000000000000
  0x7450	00 00 00 00 00 00 00 00 00 00 00 00 00 00 00 00 	0000000000000000
  0x7460	00 00 00 00 00 00 00 00 00 00 00 00 00 00 00 00 	0000000000000000
  0x7470	00 00 00 00 00 00 00 00 00 00 00 00 00 00 00 00 	0000000000000000
  0x7480	00 00 00 00 00 00 00 00 00 00 00 00 00 00 00 00 	0000000000000000
  0x7490	00 00 00 00 00 00 00 00 00 00 00 00 00 00 00 00 	0000000000000000
  0x74a0	00 00 00 00 00 00 00 00 00 00 00 00 00 00 00 00 	0000000000000000
  0x74b0	00 00 00 00 00 00 00 00 00 00 00 00 00 00 00 00 	0000000000000000
  0x74c0	00 00 00 00 00 00 00 00 00 00 00 00 00 00 00 00 	0000000000000000
  0x74d0	00 00 00 00 00 00 00 00 00 00 00 00 00 00 00 00 	0000000000000000
  0x74e0	00 00 00 00 00 00 00 00 00 00 00 00 00 00 00 00 	0000000000000000
  0x74f0	00 00 00 00 00 00 00 00 00 00 00 00 00 00 00 00 	0000000000000000
  0x7500	00 00 00 00 00 00 00 00 00 00 00 00 00 00 00 00 	0000000000000000
  0x7510	00 00 00 00 00 00 00 00 00 00 00 00 00 00 00 00 	0000000000000000
  0x7520	00 00 00 00 00 00 00 00 00 00 00 00 00 00 00 00 	0000000000000000
  0x7530	00 00 00 00 00 00 00 00 00 00 00 00 00 00 00 00 	0000000000000000
  0x7540	00 00 00 00 00 00 00 00 00 00 00 00 00 00 00 00 	0000000000000000
  0x7550	00 00 00 00 00 00 00 00 00 00 00 00 00 00 00 00 	0000000000000000
  0x7560	00 00 00 00 00 00 00 00 00 00 00 00 00 00 00 00 	0000000000000000
  0x7570	00 00 00 00 00 00 00 00 00 00 00 00 00 00 00 00 	0000000000000000
  0x7580	00 00 00 00 00 00 00 00 00 00 00 00 00 00 00 00 	0000000000000000
  0x7590	00 00 00 00 00 00 00 00 00 00 00 00 00 00 00 00 	0000000000000000
  0x75a0	00 00 00 00 00 00 00 00 00 00 00 00 00 00 00 00 	0000000000000000
  0x75b0	00 00 00 00 00 00 00 00 00 00 00 00 00 00 00 00 	0000000000000000
  0x75c0	00 00 00 00 00 00 00 00 00 00 00 00 00 00 00 00 	0000000000000000
  0x75d0	00 00 00 00 00 00 00 00 00 00 00 00 00 00 00 00 	0000000000000000
  0x75e0	00 00 00 00 00 00 00 00 00 00 00 00 00 00 00 00 	0000000000000000
  0x75f0	00 00 00 00 00 00 00 00 00 00 00 00 00 00 00 00 	0000000000000000
  0x7600	00 00 00 00 00 00 00 00 00 00 00 00 00 00 00 00 	0000000000000000
  0x7610	00 00 00 00 00 00 00 00 00 00 00 00 00 00 00 00 	0000000000000000
  0x7620	00 00 00 00 00 00 00 00 00 00 00 00 00 00 00 00 	0000000000000000
  0x7630	00 00 00 00 00 00 00 00 00 00 00 00 00 00 00 00 	0000000000000000
  0x7640	00 00 00 00 00 00 00 00 00 00 00 00 00 00 00 00 	0000000000000000
  0x7650	00 00 00 00 00 00 00 00 00 00 00 00 00 00 00 00 	0000000000000000
  0x7660	00 00 00 00 00 00 00 00 00 00 00 00 00 00 00 00 	0000000000000000
  0x7670	00 00 00 00 00 00 00 00 00 00 00 00 00 00 00 00 	0000000000000000
  0x7680	00 00 00 00 00 00 00 00 00 00 00 00 00 00 00 00 	0000000000000000
  0x7690	00 00 00 00 00 00 00 00 00 00 00 00 00 00 00 00 	0000000000000000
  0x76a0	00 00 00 00 00 00 00 00 00 00 00 00 00 00 00 00 	0000000000000000
  0x76b0	00 00 00 00 00 00 00 00 00 00 00 00 00 00 00 00 	0000000000000000
  0x76c0	00 00 00 00 00 00 00 00 00 00 00 00 00 00 00 00 	0000000000000000
  0x76d0	00 00 00 00 00 00 00 00 00 00 00 00 00 00 00 00 	0000000000000000
  0x76e0	00 00 00 00 00 00 00 00 00 00 00 00 00 00 00 00 	0000000000000000
  0x76f0	00 00 00 00 00 00 00 00 00 00 00 00 00 00 00 00 	0000000000000000
  0x7700	00 00 00 00 00 00 00 00 00 00 00 00 00 00 00 00 	0000000000000000
  0x7710	00 00 00 00 00 00 00 00 00 00 00 00 00 00 00 00 	0000000000000000
  0x7720	00 00 00 00 00 00 00 00 00 00 00 00 00 00 00 00 	0000000000000000
  0x7730	00 00 00 00 00 00 00 00 00 00 00 00 00 00 00 00 	0000000000000000
  0x7740	00 00 00 00 00 00 00 00 00 00 00 00 00 00 00 00 	0000000000000000
  0x7750	00 00 00 00 00 00 00 00 00 00 00 00 00 00 00 00 	0000000000000000
  0x7760	00 00 00 00 00 00 00 00 00 00 00 00 00 00 00 00 	0000000000000000
  0x7770	00 00 00 00 00 00 00 00 00 00 00 00 00 00 00 00 	0000000000000000
  0x7780	00 00 00 00 00 00 00 00 00 00 00 00 00 00 00 00 	0000000000000000
  0x7790	00 00 00 00 00 00 00 00 00 00 00 00 00 00 00 00 	0000000000000000
  0x77a0	00 00 00 00 00 00 00 00 00 00 00 00 00 00 00 00 	0000000000000000
  0x77b0	00 00 00 00 00 00 00 00 00 00 00 00 00 00 00 00 	0000000000000000
  0x77c0	00 00 00 00 00 00 00 00 00 00 00 00 00 00 00 00 	0000000000000000
  0x77d0	00 00 00 00 00 00 00 00 00 00 00 00 00 00 00 00 	0000000000000000
  0x77e0	00 00 00 00 00 00 00 00 00 00 00 00 00 00 00 00 	0000000000000000
  0x77f0	00 00 00 00 00 00 00 00 00 00 00 00 00 00 00 00 	0000000000000000
  0x7800	00 00 00 00 00 00 00 00 00 00 00 00 00 00 00 00 	0000000000000000
  0x7810	00 00 00 00 00 00 00 00 00 00 00 00 00 00 00 00 	0000000000000000
  0x7820	00 00 00 00 00 00 00 00 00 00 00 00 00 00 00 00 	0000000000000000
  0x7830	00 00 00 00 00 00 00 00 00 00 00 00 00 00 00 00 	0000000000000000
  0x7840	00 00 00 00 00 00 00 00 00 00 00 00 00 00 00 00 	0000000000000000
  0x7850	00 00 00 00 00 00 00 00 00 00 00 00 00 00 00 00 	0000000000000000
  0x7860	00 00 00 00 00 00 00 00 00 00 00 00 00 00 00 00 	0000000000000000
  0x7870	00 00 00 00 00 00 00 00 00 00 00 00 00 00 00 00 	0000000000000000
  0x7880	00 00 00 00 00 00 00 00 00 00 00 00 00 00 00 00 	0000000000000000
  0x7890	00 00 00 00 00 00 00 00 00 00 00 00 00 00 00 00 	0000000000000000
  0x78a0	00 00 00 00 00 00 00 00 00 00 00 00 00 00 00 00 	0000000000000000
  0x78b0	00 00 00 00 00 00 00 00 00 00 00 00 00 00 00 00 	0000000000000000
  0x78c0	00 00 00 00 00 00 00 00 00 00 00 00 00 00 00 00 	0000000000000000
  0x78d0	00 00 00 00 00 00 00 00 00 00 00 00 00 00 00 00 	0000000000000000
  0x78e0	00 00 00 00 00 00 00 00 00 00 00 00 00 00 00 00 	0000000000000000
  0x78f0	00 00 00 00 00 00 00 00 00 00 00 00 00 00 00 00 	0000000000000000
  0x7900	00 00 00 00 00 00 00 00 00 00 00 00 00 00 00 00 	0000000000000000
  0x7910	00 00 00 00 00 00 00 00 00 00 00 00 00 00 00 00 	0000000000000000
  0x7920	00 00 00 00 00 00 00 00 00 00 00 00 00 00 00 00 	0000000000000000
  0x7930	00 00 00 00 00 00 00 00 00 00 00 00 00 00 00 00 	0000000000000000
  0x7940	00 00 00 00 00 00 00 00 00 00 00 00 00 00 00 00 	0000000000000000
  0x7950	00 00 00 00 00 00 00 00 00 00 00 00 00 00 00 00 	0000000000000000
  0x7960	00 00 00 00 00 00 00 00 00 00 00 00 00 00 00 00 	0000000000000000
  0x7970	00 00 00 00 00 00 00 00 00 00 00 00 00 00 00 00 	0000000000000000
  0x7980	00 00 00 00 00 00 00 00 00 00 00 00 00 00 00 00 	0000000000000000
  0x7990	00 00 00 00 00 00 00 00 00 00 00 00 00 00 00 00 	0000000000000000
  0x79a0	00 00 00 00 00 00 00 00 00 00 00 00 00 00 00 00 	0000000000000000
  0x79b0	00 00 00 00 00 00 00 00 00 00 00 00 00 00 00 00 	0000000000000000
  0x79c0	00 00 00 00 00 00 00 00 00 00 00 00 00 00 00 00 	0000000000000000
  0x79d0	00 00 00 00 00 00 00 00 00 00 00 00 00 00 00 00 	0000000000000000
  0x79e0	00 00 00 00 00 00 00 00 00 00 00 00 00 00 00 00 	0000000000000000
  0x79f0	00 00 00 00 00 00 00 00 00 00 00 00 00 00 00 00 	0000000000000000
  0x7a00	00 00 00 00 00 00 00 00 00 00 00 00 00 00 00 00 	0000000000000000
  0x7a10	00 00 00 00 00 00 00 00 00 00 00 00 00 00 00 00 	0000000000000000
  0x7a20	00 00 00 00 00 00 00 00 00 00 00 00 00 00 00 00 	0000000000000000
  0x7a30	00 00 00 00 00 00 00 00 00 00 00 00 00 00 00 00 	0000000000000000
  0x7a40	00 00 00 00 00 00 00 00 00 00 00 00 00 00 00 00 	0000000000000000
  0x7a50	00 00 00 00 00 00 00 00 00 00 00 00 00 00 00 00 	0000000000000000
  0x7a60	00 00 00 00 00 00 00 00 00 00 00 00 00 00 00 00 	0000000000000000
  0x7a70	00 00 00 00 00 00 00 00 00 00 00 00 00 00 00 00 	0000000000000000
  0x7a80	00 00 00 00 00 00 00 00 00 00 00 00 00 00 00 00 	0000000000000000
  0x7a90	00 00 00 00 00 00 00 00 00 00 00 00 00 00 00 00 	0000000000000000
  0x7aa0	00 00 00 00 00 00 00 00 00 00 00 00 00 00 00 00 	0000000000000000
  0x7ab0	00 00 00 00 00 00 00 00 00 00 00 00 00 00 00 00 	0000000000000000
  0x7ac0	00 00 00 00 00 00 00 00 00 00 00 00 00 00 00 00 	0000000000000000
  0x7ad0	00 00 00 00 00 00 00 00 00 00 00 00 00 00 00 00 	0000000000000000
  0x7ae0	00 00 00 00 00 00 00 00 00 00 00 00 00 00 00 00 	0000000000000000
  0x7af0	00 00 00 00 00 00 00 00 00 00 00 00 00 00 00 00 	0000000000000000
  0x7b00	00 00 00 00 00 00 00 00 00 00 00 00 00 00 00 00 	0000000000000000
  0x7b10	00 00 00 00 00 00 00 00 00 00 00 00 00 00 00 00 	0000000000000000
  0x7b20	00 00 00 00 00 00 00 00 00 00 00 00 00 00 00 00 	0000000000000000
  0x7b30	00 00 00 00 00 00 00 00 00 00 00 00 00 00 00 00 	0000000000000000
  0x7b40	00 00 00 00 00 00 00 00 00 00 00 00 00 00 00 00 	0000000000000000
  0x7b50	00 00 00 00 00 00 00 00 00 00 00 00 00 00 00 00 	0000000000000000
  0x7b60	00 00 00 00 00 00 00 00 00 00 00 00 00 00 00 00 	0000000000000000
  0x7b70	00 00 00 00 00 00 00 00 00 00 00 00 00 00 00 00 	0000000000000000
  0x7b80	00 00 00 00 00 00 00 00 00 00 00 00 00 00 00 00 	0000000000000000
  0x7b90	00 00 00 00 00 00 00 00 00 00 00 00 00 00 00 00 	0000000000000000
  0x7ba0	00 00 00 00 00 00 00 00 00 00 00 00 00 00 00 00 	0000000000000000
  0x7bb0	00 00 00 00 00 00 00 00 00 00 00 00 00 00 00 00 	0000000000000000
  0x7bc0	00 00 00 00 00 00 00 00 00 00 00 00 00 00 00 00 	0000000000000000
  0x7bd0	00 00 00 00 00 00 00 00 00 00 00 00 00 00 00 00 	0000000000000000
  0x7be0	00 00 00 00 00 00 00 00 00 00 00 00 00 00 00 00 	0000000000000000
  0x7bf0	00 00 00 00 00 00 00 00 00 00 00 00 00 00 00 00 	0000000000000000
  0x7c00	00 00 00 00 00 00 00 00 00 00 00 00 00 00 00 00 	0000000000000000
  0x7c10	00 00 00 00 00 00 00 00 00 00 00 00 00 00 00 00 	0000000000000000
  0x7c20	00 00 00 00 00 00 00 00 00 00 00 00 00 00 00 00 	0000000000000000
  0x7c30	00 00 00 00 00 00 00 00 00 00 00 00 00 00 00 00 	0000000000000000
  0x7c40	00 00 00 00 00 00 00 00 00 00 00 00 00 00 00 00 	0000000000000000
  0x7c50	00 00 00 00 00 00 00 00 00 00 00 00 00 00 00 00 	0000000000000000
  0x7c60	00 00 00 00 00 00 00 00 00 00 00 00 00 00 00 00 	0000000000000000
  0x7c70	00 00 00 00 00 00 00 00 00 00 00 00 00 00 00 00 	0000000000000000
  0x7c80	00 00 00 00 00 00 00 00 00 00 00 00 00 00 00 00 	0000000000000000
  0x7c90	00 00 00 00 00 00 00 00 00 00 00 00 00 00 00 00 	0000000000000000
  0x7ca0	00 00 00 00 00 00 00 00 00 00 00 00 00 00 00 00 	0000000000000000
  0x7cb0	00 00 00 00 00 00 00 00 00 00 00 00 00 00 00 00 	0000000000000000
  0x7cc0	00 00 00 00 00 00 00 00 00 00 00 00 00 00 00 00 	0000000000000000
  0x7cd0	00 00 00 00 00 00 00 00 00 00 00 00 00 00 00 00 	0000000000000000
  0x7ce0	00 00 00 00 00 00 00 00 00 00 00 00 00 00 00 00 	0000000000000000
  0x7cf0	00 00 00 00 00 00 00 00 00 00 00 00 00 00 00 00 	0000000000000000
  0x7d00	00 00 00 00 00 00 00 00 00 00 00 00 00 00 00 00 	0000000000000000
  0x7d10	00 00 00 00 00 00 00 00 00 00 00 00 00 00 00 00 	0000000000000000
  0x7d20	00 00 00 00 00 00 00 00 00 00 00 00 00 00 00 00 	0000000000000000
  0x7d30	00 00 00 00 00 00 00 00 00 00 00 00 00 00 00 00 	0000000000000000
  0x7d40	00 00 00 00 00 00 00 00 00 00 00 00 00 00 00 00 	0000000000000000
  0x7d50	00 00 00 00 00 00 00 00 00 00 00 00 00 00 00 00 	0000000000000000
  0x7d60	00 00 00 00 00 00 00 00 00 00 00 00 00 00 00 00 	0000000000000000
  0x7d70	00 00 00 00 00 00 00 00 00 00 00 00 00 00 00 00 	0000000000000000
  0x7d80	00 00 00 00 00 00 00 00 00 00 00 00 00 00 00 00 	0000000000000000
  0x7d90	00 00 00 00 00 00 00 00 00 00 00 00 00 00 00 00 	0000000000000000
  0x7da0	00 00 00 00 00 00 00 00 00 00 00 00 00 00 00 00 	0000000000000000
  0x7db0	00 00 00 00 00 00 00 00 00 00 00 00 00 00 00 00 	0000000000000000
  0x7dc0	00 00 00 00 00 00 00 00 00 00 00 00 00 00 00 00 	0000000000000000
  0x7dd0	00 00 00 00 00 00 00 00 00 00 00 00 00 00 00 00 	0000000000000000
  0x7de0	00 00 00 00 00 00 00 00 00 00 00 00 00 00 00 00 	0000000000000000
  0x7df0	00 00 00 00 00 00 00 00 00 00 00 00 00 00 00 00 	0000000000000000
  0x7e00	00 00 00 00 00 00 00 00 00 00 00 00 00 00 00 00 	0000000000000000
  0x7e10	00 00 00 00 00 00 00 00 00 00 00 00 00 00 00 00 	0000000000000000
  0x7e20	00 00 00 00 00 00 00 00 00 00 00 00 00 00 00 00 	0000000000000000
  0x7e30	00 00 00 00 00 00 00 00 00 00 00 00 00 00 00 00 	0000000000000000
  0x7e40	00 00 00 00 00 00 00 00 00 00 00 00 00 00 00 00 	0000000000000000
  0x7e50	00 00 00 00 00 00 00 00 00 00 00 00 00 00 00 00 	0000000000000000
  0x7e60	00 00 00 00 00 00 00 00 00 00 00 00 00 00 00 00 	0000000000000000
  0x7e70	00 00 00 00 00 00 00 00 00 00 00 00 00 00 00 00 	0000000000000000
  0x7e80	00 00 00 00 00 00 00 00 00 00 00 00 00 00 00 00 	0000000000000000
  0x7e90	00 00 00 00 00 00 00 00 00 00 00 00 00 00 00 00 	0000000000000000
  0x7ea0	00 00 00 00 00 00 00 00 00 00 00 00 00 00 00 00 	0000000000000000
  0x7eb0	00 00 00 00 00 00 00 00 00 00 00 00 00 00 00 00 	0000000000000000
  0x7ec0	00 00 00 00 00 00 00 00 00 00 00 00 00 00 00 00 	0000000000000000
  0x7ed0	00 00 00 00 00 00 00 00 00 00 00 00 00 00 00 00 	0000000000000000
  0x7ee0	00 00 00 00 00 00 00 00 00 00 00 00 00 00 00 00 	0000000000000000
  0x7ef0	00 00 00 00 00 00 00 00 00 00 00 00 00 00 00 00 	0000000000000000
  0x7f00	00 00 00 00 00 00 00 00 00 00 00 00 00 00 00 00 	0000000000000000
  0x7f10	00 00 00 00 00 00 00 00 00 00 00 00 00 00 00 00 	0000000000000000
  0x7f20	00 00 00 00 00 00 00 00 00 00 00 00 00 00 00 00 	0000000000000000
  0x7f30	00 00 00 00 00 00 00 00 00 00 00 00 00 00 00 00 	0000000000000000
  0x7f40	00 00 00 00 00 00 00 00 00 00 00 00 00 00 00 00 	0000000000000000
  0x7f50	00 00 00 00 00 00 00 00 00 00 00 00 00 00 00 00 	0000000000000000
  0x7f60	00 00 00 00 00 00 00 00 00 00 00 00 00 00 00 00 	0000000000000000
  0x7f70	00 00 00 00 00 00 00 00 00 00 00 00 00 00 00 00 	0000000000000000
  0x7f80	00 00 00 00 00 00 00 00 00 00 00 00 00 00 00 00 	0000000000000000
  0x7f90	00 00 00 00 00 00 00 00 00 00 00 00 00 00 00 00 	0000000000000000
  0x7fa0	00 00 00 00 00 00 00 00 00 00 00 00 00 00 00 00 	0000000000000000
  0x7fb0	00 00 00 00 00 00 00 00 00 00 00 00 00 00 00 00 	0000000000000000
  0x7fc0	00 00 00 00 00 00 00 00 00 00 00 00 00 00 00 00 	0000000000000000
  0x7fd0	00 00 00 00 00 00 00 00 00 00 00 00 00 00 00 00 	0000000000000000
  0x7fe0	00 00 00 00 00 00 00 00 00 00 00 00 00 00 00 00 	0000000000000000
  0x7ff0	00 00 00 00 00 00 00 00 00 00 00 00 00 00 00 00 	0000000000000000
=== DATA BLOCK END ===

=== DATA BLOCK ADDRESS 0x8000 ===
  0x8000	70 10 00 00 9e 10 00 00 58 50 00 00 d0 10 00 00 	p0000000XP000000
  0x8010	0b 11 00 00 60 50 00 00 50 11 00 00 a8 11 00 00 	0000`P00P0000000
  0x8020	58 50 00 00 c0 11 00 00 3f 12 00 00 58 50 00 00 	XP000000?000XP00
  0x8030	60 12 00 00 b8 12 00 00 58 50 00 00 c0 12 00 00 	`0000000XP000000
  0x8040	0b 13 00 00 68 50 00 00 14 13 00 00 b9 13 00 00 	0000hP0000000000
  0x8050	88 50 00 00 c0 13 00 00 8b 16 00 00 90 50 00 00 	0P00000000000P00
  0x8060	94 16 00 00 ea 17 00 00 a8 50 00 00 f0 17 00 00 	000000000P000000
  0x8070	58 19 00 00 b8 50 00 00 60 19 00 00 53 1a 00 00 	X0000P00`000S000
  0x8080	cc 50 00 00 5c 1a 00 00 bc 1a 00 00 dc 50 00 00 	0P00000000000P00
  0x8090	c4 1a 00 00 d5 1a 00 00 ec 50 00 00 dc 1a 00 00 	000000000P000000
  0x80a0	d1 1b 00 00 dc 50 00 00 d8 1b 00 00 e9 1b 00 00 	00000P0000000000
  0x80b0	ec 50 00 00 f0 1b 00 00 f5 1c 00 00 f4 50 00 00 	0P00000000000P00
  0x80c0	fc 1c 00 00 fb 1d 00 00 08 51 00 00 04 1e 00 00 	000000000Q000000
  0x80d0	9d 1e 00 00 c8 51 00 00 a4 1e 00 00 cf 1e 00 00 	00000Q0000000000
  0x80e0	d4 51 00 00 e0 1e 00 00 1d 1f 00 00 dc 51 00 00 	0Q00000000000Q00
  0x80f0	24 1f 00 00 55 1f 00 00 58 50 00 00 5c 1f 00 00 	$000U000XP000000
  0x8100	7d 1f 00 00 58 50 00 00 84 1f 00 00 c6 1f 00 00 	}000XP0000000000
  0x8110	e4 51 00 00 cc 1f 00 00 ed 1f 00 00 58 50 00 00 	0Q0000000000XP00
  0x8120	f4 1f 00 00 23 20 00 00 08 52 00 00 50 20 00 00 	0000# 000R00P 00
  0x8130	89 20 00 00 c8 51 00 00 90 20 00 00 bf 20 00 00 	0 000Q000 000 00
  0x8140	c8 51 00 00 c8 20 00 00 e8 20 00 00 00 52 00 00 	0Q000 000 000R00
  0x8150	f0 20 00 00 13 21 00 00 00 52 00 00 1c 21 00 00 	0 000!000R000!00
  0x8160	3f 21 00 00 00 52 00 00 b0 21 00 00 83 22 00 00 	?!000R000!000"00
  0x8170	ec 50 00 00 90 22 00 00 d9 22 00 00 dc 51 00 00 	0P000"000"000Q00
  0x8180	e0 22 00 00 44 25 00 00 10 52 00 00 50 25 00 00 	0"00D%000R00P%00
  0x8190	62 25 00 00 ec 50 00 00 90 25 00 00 ae 25 00 00 	b%000P000%000%00
  0x81a0	50 52 00 00 b4 25 00 00 41 26 00 00 54 52 00 00 	PR000%00A&00TR00
  0x81b0	48 26 00 00 5f 26 00 00 ec 50 00 00 f0 26 00 00 	H&00_&000P000&00
  0x81c0	20 27 00 00 c8 51 00 00 40 27 00 00 79 27 00 00 	 '000Q00@'00y'00
  0x81d0	ec 50 00 00 80 27 00 00 98 27 00 00 ec 50 00 00 	0P000'000'000P00
  0x81e0	ac 27 00 00 00 28 00 00 74 52 00 00 08 28 00 00 	0'000(00tR000(00
  0x81f0	4d 28 00 00 58 50 00 00 c0 28 00 00 0d 29 00 00 	M(00XP000(000)00
  0x8200	94 52 00 00 54 29 00 00 28 2a 00 00 b8 52 00 00 	0R00T)00(*000R00
  0x8210	48 2a 00 00 7c 2a 00 00 58 50 00 00 90 2a 00 00 	H*00|*00XP000*00
  0x8220	01 2c 00 00 c4 52 00 00 38 2c 00 00 86 2c 00 00 	0,000R008,000,00
  0x8230	ec 50 00 00 98 2c 00 00 0f 2d 00 00 d8 52 00 00 	0P000,000-000R00
  0x8240	4c 2d 00 00 69 2d 00 00 ec 50 00 00 70 2d 00 00 	L-00i-000P00p-00
  0x8250	cb 2d 00 00 e0 52 00 00 f0 2d 00 00 f2 2d 00 00 	0-000R000-000-00
  0x8260	d0 52 00 00 00 2e 00 00 06 2e 00 00 d4 52 00 00 	0R000.000.000R00
  0x8270	10 2e 00 00 54 2e 00 00 b8 51 00 00 54 2e 00 00 	0.00T.000Q00T.00
  0x8280	79 2e 00 00 b8 51 00 00 7f 2e 00 00 9d 2e 00 00 	y.000Q000.000.00
  0x8290	44 52 00 00 a3 2e 00 00 be 2e 00 00 44 52 00 00 	DR000.000.00DR00
  0x82a0	d0 2e 00 00 f0 2e 00 00 44 52 00 00 00 00 00 00 	0.000.00DR000000
  0x82b0	00 00 00 00 00 00 00 00 00 00 00 00 00 00 00 00 	0000000000000000
  0x82c0	00 00 00 00 00 00 00 00 00 00 00 00 00 00 00 00 	0000000000000000
  0x82d0	00 00 00 00 00 00 00 00 00 00 00 00 00 00 00 00 	0000000000000000
  0x82e0	00 00 00 00 00 00 00 00 00 00 00 00 00 00 00 00 	0000000000000000
  0x82f0	00 00 00 00 00 00 00 00 00 00 00 00 00 00 00 00 	0000000000000000
  0x8300	00 00 00 00 00 00 00 00 00 00 00 00 00 00 00 00 	0000000000000000
  0x8310	00 00 00 00 00 00 00 00 00 00 00 00 00 00 00 00 	0000000000000000
  0x8320	00 00 00 00 00 00 00 00 00 00 00 00 00 00 00 00 	0000000000000000
  0x8330	00 00 00 00 00 00 00 00 00 00 00 00 00 00 00 00 	0000000000000000
  0x8340	00 00 00 00 00 00 00 00 00 00 00 00 00 00 00 00 	0000000000000000
  0x8350	00 00 00 00 00 00 00 00 00 00 00 00 00 00 00 00 	0000000000000000
  0x8360	00 00 00 00 00 00 00 00 00 00 00 00 00 00 00 00 	0000000000000000
  0x8370	00 00 00 00 00 00 00 00 00 00 00 00 00 00 00 00 	0000000000000000
  0x8380	00 00 00 00 00 00 00 00 00 00 00 00 00 00 00 00 	0000000000000000
  0x8390	00 00 00 00 00 00 00 00 00 00 00 00 00 00 00 00 	0000000000000000
  0x83a0	00 00 00 00 00 00 00 00 00 00 00 00 00 00 00 00 	0000000000000000
  0x83b0	00 00 00 00 00 00 00 00 00 00 00 00 00 00 00 00 	0000000000000000
  0x83c0	00 00 00 00 00 00 00 00 00 00 00 00 00 00 00 00 	0000000000000000
  0x83d0	00 00 00 00 00 00 00 00 00 00 00 00 00 00 00 00 	0000000000000000
  0x83e0	00 00 00 00 00 00 00 00 00 00 00 00 00 00 00 00 	0000000000000000
  0x83f0	00 00 00 00 00 00 00 00 00 00 00 00 00 00 00 00 	0000000000000000
  0x8400	00 00 00 00 00 00 00 00 00 00 00 00 00 00 00 00 	0000000000000000
  0x8410	00 00 00 00 00 00 00 00 00 00 00 00 00 00 00 00 	0000000000000000
  0x8420	00 00 00 00 00 00 00 00 00 00 00 00 00 00 00 00 	0000000000000000
  0x8430	00 00 00 00 00 00 00 00 00 00 00 00 00 00 00 00 	0000000000000000
  0x8440	00 00 00 00 00 00 00 00 00 00 00 00 00 00 00 00 	0000000000000000
  0x8450	00 00 00 00 00 00 00 00 00 00 00 00 00 00 00 00 	0000000000000000
  0x8460	00 00 00 00 00 00 00 00 00 00 00 00 00 00 00 00 	0000000000000000
  0x8470	00 00 00 00 00 00 00 00 00 00 00 00 00 00 00 00 	0000000000000000
  0x8480	00 00 00 00 00 00 00 00 00 00 00 00 00 00 00 00 	0000000000000000
  0x8490	00 00 00 00 00 00 00 00 00 00 00 00 00 00 00 00 	0000000000000000
  0x84a0	00 00 00 00 00 00 00 00 00 00 00 00 00 00 00 00 	0000000000000000
  0x84b0	00 00 00 00 00 00 00 00 00 00 00 00 00 00 00 00 	0000000000000000
  0x84c0	00 00 00 00 00 00 00 00 00 00 00 00 00 00 00 00 	0000000000000000
  0x84d0	00 00 00 00 00 00 00 00 00 00 00 00 00 00 00 00 	0000000000000000
  0x84e0	00 00 00 00 00 00 00 00 00 00 00 00 00 00 00 00 	0000000000000000
  0x84f0	00 00 00 00 00 00 00 00 00 00 00 00 00 00 00 00 	0000000000000000
  0x8500	00 00 00 00 00 00 00 00 00 00 00 00 00 00 00 00 	0000000000000000
  0x8510	00 00 00 00 00 00 00 00 00 00 00 00 00 00 00 00 	0000000000000000
  0x8520	00 00 00 00 00 00 00 00 00 00 00 00 00 00 00 00 	0000000000000000
  0x8530	00 00 00 00 00 00 00 00 00 00 00 00 00 00 00 00 	0000000000000000
  0x8540	00 00 00 00 00 00 00 00 00 00 00 00 00 00 00 00 	0000000000000000
  0x8550	00 00 00 00 00 00 00 00 00 00 00 00 00 00 00 00 	0000000000000000
  0x8560	00 00 00 00 00 00 00 00 00 00 00 00 00 00 00 00 	0000000000000000
  0x8570	00 00 00 00 00 00 00 00 00 00 00 00 00 00 00 00 	0000000000000000
  0x8580	00 00 00 00 00 00 00 00 00 00 00 00 00 00 00 00 	0000000000000000
  0x8590	00 00 00 00 00 00 00 00 00 00 00 00 00 00 00 00 	0000000000000000
  0x85a0	00 00 00 00 00 00 00 00 00 00 00 00 00 00 00 00 	0000000000000000
  0x85b0	00 00 00 00 00 00 00 00 00 00 00 00 00 00 00 00 	0000000000000000
  0x85c0	00 00 00 00 00 00 00 00 00 00 00 00 00 00 00 00 	0000000000000000
  0x85d0	00 00 00 00 00 00 00 00 00 00 00 00 00 00 00 00 	0000000000000000
  0x85e0	00 00 00 00 00 00 00 00 00 00 00 00 00 00 00 00 	0000000000000000
  0x85f0	00 00 00 00 00 00 00 00 00 00 00 00 00 00 00 00 	0000000000000000
  0x8600	00 00 00 00 00 00 00 00 00 00 00 00 00 00 00 00 	0000000000000000
  0x8610	00 00 00 00 00 00 00 00 00 00 00 00 00 00 00 00 	0000000000000000
  0x8620	00 00 00 00 00 00 00 00 00 00 00 00 00 00 00 00 	0000000000000000
  0x8630	00 00 00 00 00 00 00 00 00 00 00 00 00 00 00 00 	0000000000000000
  0x8640	00 00 00 00 00 00 00 00 00 00 00 00 00 00 00 00 	0000000000000000
  0x8650	00 00 00 00 00 00 00 00 00 00 00 00 00 00 00 00 	0000000000000000
  0x8660	00 00 00 00 00 00 00 00 00 00 00 00 00 00 00 00 	0000000000000000
  0x8670	00 00 00 00 00 00 00 00 00 00 00 00 00 00 00 00 	0000000000000000
  0x8680	00 00 00 00 00 00 00 00 00 00 00 00 00 00 00 00 	0000000000000000
  0x8690	00 00 00 00 00 00 00 00 00 00 00 00 00 00 00 00 	0000000000000000
  0x86a0	00 00 00 00 00 00 00 00 00 00 00 00 00 00 00 00 	0000000000000000
  0x86b0	00 00 00 00 00 00 00 00 00 00 00 00 00 00 00 00 	0000000000000000
  0x86c0	00 00 00 00 00 00 00 00 00 00 00 00 00 00 00 00 	0000000000000000
  0x86d0	00 00 00 00 00 00 00 00 00 00 00 00 00 00 00 00 	0000000000000000
  0x86e0	00 00 00 00 00 00 00 00 00 00 00 00 00 00 00 00 	0000000000000000
  0x86f0	00 00 00 00 00 00 00 00 00 00 00 00 00 00 00 00 	0000000000000000
  0x8700	00 00 00 00 00 00 00 00 00 00 00 00 00 00 00 00 	0000000000000000
  0x8710	00 00 00 00 00 00 00 00 00 00 00 00 00 00 00 00 	0000000000000000
  0x8720	00 00 00 00 00 00 00 00 00 00 00 00 00 00 00 00 	0000000000000000
  0x8730	00 00 00 00 00 00 00 00 00 00 00 00 00 00 00 00 	0000000000000000
  0x8740	00 00 00 00 00 00 00 00 00 00 00 00 00 00 00 00 	0000000000000000
  0x8750	00 00 00 00 00 00 00 00 00 00 00 00 00 00 00 00 	0000000000000000
  0x8760	00 00 00 00 00 00 00 00 00 00 00 00 00 00 00 00 	0000000000000000
  0x8770	00 00 00 00 00 00 00 00 00 00 00 00 00 00 00 00 	0000000000000000
  0x8780	00 00 00 00 00 00 00 00 00 00 00 00 00 00 00 00 	0000000000000000
  0x8790	00 00 00 00 00 00 00 00 00 00 00 00 00 00 00 00 	0000000000000000
  0x87a0	00 00 00 00 00 00 00 00 00 00 00 00 00 00 00 00 	0000000000000000
  0x87b0	00 00 00 00 00 00 00 00 00 00 00 00 00 00 00 00 	0000000000000000
  0x87c0	00 00 00 00 00 00 00 00 00 00 00 00 00 00 00 00 	0000000000000000
  0x87d0	00 00 00 00 00 00 00 00 00 00 00 00 00 00 00 00 	0000000000000000
  0x87e0	00 00 00 00 00 00 00 00 00 00 00 00 00 00 00 00 	0000000000000000
  0x87f0	00 00 00 00 00 00 00 00 00 00 00 00 00 00 00 00 	0000000000000000
  0x8800	00 00 00 00 00 00 00 00 00 00 00 00 00 00 00 00 	0000000000000000
  0x8810	00 00 00 00 00 00 00 00 00 00 00 00 00 00 00 00 	0000000000000000
  0x8820	00 00 00 00 00 00 00 00 00 00 00 00 00 00 00 00 	0000000000000000
  0x8830	00 00 00 00 00 00 00 00 00 00 00 00 00 00 00 00 	0000000000000000
  0x8840	00 00 00 00 00 00 00 00 00 00 00 00 00 00 00 00 	0000000000000000
  0x8850	00 00 00 00 00 00 00 00 00 00 00 00 00 00 00 00 	0000000000000000
  0x8860	00 00 00 00 00 00 00 00 00 00 00 00 00 00 00 00 	0000000000000000
  0x8870	00 00 00 00 00 00 00 00 00 00 00 00 00 00 00 00 	0000000000000000
  0x8880	00 00 00 00 00 00 00 00 00 00 00 00 00 00 00 00 	0000000000000000
  0x8890	00 00 00 00 00 00 00 00 00 00 00 00 00 00 00 00 	0000000000000000
  0x88a0	00 00 00 00 00 00 00 00 00 00 00 00 00 00 00 00 	0000000000000000
  0x88b0	00 00 00 00 00 00 00 00 00 00 00 00 00 00 00 00 	0000000000000000
  0x88c0	00 00 00 00 00 00 00 00 00 00 00 00 00 00 00 00 	0000000000000000
  0x88d0	00 00 00 00 00 00 00 00 00 00 00 00 00 00 00 00 	0000000000000000
  0x88e0	00 00 00 00 00 00 00 00 00 00 00 00 00 00 00 00 	0000000000000000
  0x88f0	00 00 00 00 00 00 00 00 00 00 00 00 00 00 00 00 	0000000000000000
  0x8900	00 00 00 00 00 00 00 00 00 00 00 00 00 00 00 00 	0000000000000000
  0x8910	00 00 00 00 00 00 00 00 00 00 00 00 00 00 00 00 	0000000000000000
  0x8920	00 00 00 00 00 00 00 00 00 00 00 00 00 00 00 00 	0000000000000000
  0x8930	00 00 00 00 00 00 00 00 00 00 00 00 00 00 00 00 	0000000000000000
  0x8940	00 00 00 00 00 00 00 00 00 00 00 00 00 00 00 00 	0000000000000000
  0x8950	00 00 00 00 00 00 00 00 00 00 00 00 00 00 00 00 	0000000000000000
  0x8960	00 00 00 00 00 00 00 00 00 00 00 00 00 00 00 00 	0000000000000000
  0x8970	00 00 00 00 00 00 00 00 00 00 00 00 00 00 00 00 	0000000000000000
  0x8980	00 00 00 00 00 00 00 00 00 00 00 00 00 00 00 00 	0000000000000000
  0x8990	00 00 00 00 00 00 00 00 00 00 00 00 00 00 00 00 	0000000000000000
  0x89a0	00 00 00 00 00 00 00 00 00 00 00 00 00 00 00 00 	0000000000000000
  0x89b0	00 00 00 00 00 00 00 00 00 00 00 00 00 00 00 00 	0000000000000000
  0x89c0	00 00 00 00 00 00 00 00 00 00 00 00 00 00 00 00 	0000000000000000
  0x89d0	00 00 00 00 00 00 00 00 00 00 00 00 00 00 00 00 	0000000000000000
  0x89e0	00 00 00 00 00 00 00 00 00 00 00 00 00 00 00 00 	0000000000000000
  0x89f0	00 00 00 00 00 00 00 00 00 00 00 00 00 00 00 00 	0000000000000000
  0x8a00	00 00 00 00 00 00 00 00 00 00 00 00 00 00 00 00 	0000000000000000
  0x8a10	00 00 00 00 00 00 00 00 00 00 00 00 00 00 00 00 	0000000000000000
  0x8a20	00 00 00 00 00 00 00 00 00 00 00 00 00 00 00 00 	0000000000000000
  0x8a30	00 00 00 00 00 00 00 00 00 00 00 00 00 00 00 00 	0000000000000000
  0x8a40	00 00 00 00 00 00 00 00 00 00 00 00 00 00 00 00 	0000000000000000
  0x8a50	00 00 00 00 00 00 00 00 00 00 00 00 00 00 00 00 	0000000000000000
  0x8a60	00 00 00 00 00 00 00 00 00 00 00 00 00 00 00 00 	0000000000000000
  0x8a70	00 00 00 00 00 00 00 00 00 00 00 00 00 00 00 00 	0000000000000000
  0x8a80	00 00 00 00 00 00 00 00 00 00 00 00 00 00 00 00 	0000000000000000
  0x8a90	00 00 00 00 00 00 00 00 00 00 00 00 00 00 00 00 	0000000000000000
  0x8aa0	00 00 00 00 00 00 00 00 00 00 00 00 00 00 00 00 	0000000000000000
  0x8ab0	00 00 00 00 00 00 00 00 00 00 00 00 00 00 00 00 	0000000000000000
  0x8ac0	00 00 00 00 00 00 00 00 00 00 00 00 00 00 00 00 	0000000000000000
  0x8ad0	00 00 00 00 00 00 00 00 00 00 00 00 00 00 00 00 	0000000000000000
  0x8ae0	00 00 00 00 00 00 00 00 00 00 00 00 00 00 00 00 	0000000000000000
  0x8af0	00 00 00 00 00 00 00 00 00 00 00 00 00 00 00 00 	0000000000000000
  0x8b00	00 00 00 00 00 00 00 00 00 00 00 00 00 00 00 00 	0000000000000000
  0x8b10	00 00 00 00 00 00 00 00 00 00 00 00 00 00 00 00 	0000000000000000
  0x8b20	00 00 00 00 00 00 00 00 00 00 00 00 00 00 00 00 	0000000000000000
  0x8b30	00 00 00 00 00 00 00 00 00 00 00 00 00 00 00 00 	0000000000000000
  0x8b40	00 00 00 00 00 00 00 00 00 00 00 00 00 00 00 00 	0000000000000000
  0x8b50	00 00 00 00 00 00 00 00 00 00 00 00 00 00 00 00 	0000000000000000
  0x8b60	00 00 00 00 00 00 00 00 00 00 00 00 00 00 00 00 	0000000000000000
  0x8b70	00 00 00 00 00 00 00 00 00 00 00 00 00 00 00 00 	0000000000000000
  0x8b80	00 00 00 00 00 00 00 00 00 00 00 00 00 00 00 00 	0000000000000000
  0x8b90	00 00 00 00 00 00 00 00 00 00 00 00 00 00 00 00 	0000000000000000
  0x8ba0	00 00 00 00 00 00 00 00 00 00 00 00 00 00 00 00 	0000000000000000
  0x8bb0	00 00 00 00 00 00 00 00 00 00 00 00 00 00 00 00 	0000000000000000
  0x8bc0	00 00 00 00 00 00 00 00 00 00 00 00 00 00 00 00 	0000000000000000
  0x8bd0	00 00 00 00 00 00 00 00 00 00 00 00 00 00 00 00 	0000000000000000
  0x8be0	00 00 00 00 00 00 00 00 00 00 00 00 00 00 00 00 	0000000000000000
  0x8bf0	00 00 00 00 00 00 00 00 00 00 00 00 00 00 00 00 	0000000000000000
  0x8c00	00 00 00 00 00 00 00 00 00 00 00 00 00 00 00 00 	0000000000000000
  0x8c10	00 00 00 00 00 00 00 00 00 00 00 00 00 00 00 00 	0000000000000000
  0x8c20	00 00 00 00 00 00 00 00 00 00 00 00 00 00 00 00 	0000000000000000
  0x8c30	00 00 00 00 00 00 00 00 00 00 00 00 00 00 00 00 	0000000000000000
  0x8c40	00 00 00 00 00 00 00 00 00 00 00 00 00 00 00 00 	0000000000000000
  0x8c50	00 00 00 00 00 00 00 00 00 00 00 00 00 00 00 00 	0000000000000000
  0x8c60	00 00 00 00 00 00 00 00 00 00 00 00 00 00 00 00 	0000000000000000
  0x8c70	00 00 00 00 00 00 00 00 00 00 00 00 00 00 00 00 	0000000000000000
  0x8c80	00 00 00 00 00 00 00 00 00 00 00 00 00 00 00 00 	0000000000000000
  0x8c90	00 00 00 00 00 00 00 00 00 00 00 00 00 00 00 00 	0000000000000000
  0x8ca0	00 00 00 00 00 00 00 00 00 00 00 00 00 00 00 00 	0000000000000000
  0x8cb0	00 00 00 00 00 00 00 00 00 00 00 00 00 00 00 00 	0000000000000000
  0x8cc0	00 00 00 00 00 00 00 00 00 00 00 00 00 00 00 00 	0000000000000000
  0x8cd0	00 00 00 00 00 00 00 00 00 00 00 00 00 00 00 00 	0000000000000000
  0x8ce0	00 00 00 00 00 00 00 00 00 00 00 00 00 00 00 00 	0000000000000000
  0x8cf0	00 00 00 00 00 00 00 00 00 00 00 00 00 00 00 00 	0000000000000000
  0x8d00	00 00 00 00 00 00 00 00 00 00 00 00 00 00 00 00 	0000000000000000
  0x8d10	00 00 00 00 00 00 00 00 00 00 00 00 00 00 00 00 	0000000000000000
  0x8d20	00 00 00 00 00 00 00 00 00 00 00 00 00 00 00 00 	0000000000000000
  0x8d30	00 00 00 00 00 00 00 00 00 00 00 00 00 00 00 00 	0000000000000000
  0x8d40	00 00 00 00 00 00 00 00 00 00 00 00 00 00 00 00 	0000000000000000
  0x8d50	00 00 00 00 00 00 00 00 00 00 00 00 00 00 00 00 	0000000000000000
  0x8d60	00 00 00 00 00 00 00 00 00 00 00 00 00 00 00 00 	0000000000000000
  0x8d70	00 00 00 00 00 00 00 00 00 00 00 00 00 00 00 00 	0000000000000000
  0x8d80	00 00 00 00 00 00 00 00 00 00 00 00 00 00 00 00 	0000000000000000
  0x8d90	00 00 00 00 00 00 00 00 00 00 00 00 00 00 00 00 	0000000000000000
  0x8da0	00 00 00 00 00 00 00 00 00 00 00 00 00 00 00 00 	0000000000000000
  0x8db0	00 00 00 00 00 00 00 00 00 00 00 00 00 00 00 00 	0000000000000000
  0x8dc0	00 00 00 00 00 00 00 00 00 00 00 00 00 00 00 00 	0000000000000000
  0x8dd0	00 00 00 00 00 00 00 00 00 00 00 00 00 00 00 00 	0000000000000000
  0x8de0	00 00 00 00 00 00 00 00 00 00 00 00 00 00 00 00 	0000000000000000
  0x8df0	00 00 00 00 00 00 00 00 00 00 00 00 00 00 00 00 	0000000000000000
  0x8e00	00 00 00 00 00 00 00 00 00 00 00 00 00 00 00 00 	0000000000000000
  0x8e10	00 00 00 00 00 00 00 00 00 00 00 00 00 00 00 00 	0000000000000000
  0x8e20	00 00 00 00 00 00 00 00 00 00 00 00 00 00 00 00 	0000000000000000
  0x8e30	00 00 00 00 00 00 00 00 00 00 00 00 00 00 00 00 	0000000000000000
  0x8e40	00 00 00 00 00 00 00 00 00 00 00 00 00 00 00 00 	0000000000000000
  0x8e50	00 00 00 00 00 00 00 00 00 00 00 00 00 00 00 00 	0000000000000000
  0x8e60	00 00 00 00 00 00 00 00 00 00 00 00 00 00 00 00 	0000000000000000
  0x8e70	00 00 00 00 00 00 00 00 00 00 00 00 00 00 00 00 	0000000000000000
  0x8e80	00 00 00 00 00 00 00 00 00 00 00 00 00 00 00 00 	0000000000000000
  0x8e90	00 00 00 00 00 00 00 00 00 00 00 00 00 00 00 00 	0000000000000000
  0x8ea0	00 00 00 00 00 00 00 00 00 00 00 00 00 00 00 00 	0000000000000000
  0x8eb0	00 00 00 00 00 00 00 00 00 00 00 00 00 00 00 00 	0000000000000000
  0x8ec0	00 00 00 00 00 00 00 00 00 00 00 00 00 00 00 00 	0000000000000000
  0x8ed0	00 00 00 00 00 00 00 00 00 00 00 00 00 00 00 00 	0000000000000000
  0x8ee0	00 00 00 00 00 00 00 00 00 00 00 00 00 00 00 00 	0000000000000000
  0x8ef0	00 00 00 00 00 00 00 00 00 00 00 00 00 00 00 00 	0000000000000000
  0x8f00	00 00 00 00 00 00 00 00 00 00 00 00 00 00 00 00 	0000000000000000
  0x8f10	00 00 00 00 00 00 00 00 00 00 00 00 00 00 00 00 	0000000000000000
  0x8f20	00 00 00 00 00 00 00 00 00 00 00 00 00 00 00 00 	0000000000000000
  0x8f30	00 00 00 00 00 00 00 00 00 00 00 00 00 00 00 00 	0000000000000000
  0x8f40	00 00 00 00 00 00 00 00 00 00 00 00 00 00 00 00 	0000000000000000
  0x8f50	00 00 00 00 00 00 00 00 00 00 00 00 00 00 00 00 	0000000000000000
  0x8f60	00 00 00 00 00 00 00 00 00 00 00 00 00 00 00 00 	0000000000000000
  0x8f70	00 00 00 00 00 00 00 00 00 00 00 00 00 00 00 00 	0000000000000000
  0x8f80	00 00 00 00 00 00 00 00 00 00 00 00 00 00 00 00 	0000000000000000
  0x8f90	00 00 00 00 00 00 00 00 00 00 00 00 00 00 00 00 	0000000000000000
  0x8fa0	00 00 00 00 00 00 00 00 00 00 00 00 00 00 00 00 	0000000000000000
  0x8fb0	00 00 00 00 00 00 00 00 00 00 00 00 00 00 00 00 	0000000000000000
  0x8fc0	00 00 00 00 00 00 00 00 00 00 00 00 00 00 00 00 	0000000000000000
  0x8fd0	00 00 00 00 00 00 00 00 00 00 00 00 00 00 00 00 	0000000000000000
  0x8fe0	00 00 00 00 00 00 00 00 00 00 00 00 00 00 00 00 	0000000000000000
  0x8ff0	00 00 00 00 00 00 00 00 00 00 00 00 00 00 00 00 	0000000000000000
=== DATA BLOCK END ===
