===== Assembly blocks =====

=== CODE BLOCK ADDRESS 0x1000 ===
  0x1000	int3   	
  0x1001	int3   	
  0x1002	int3   	
  0x1003	int3   	
  0x1004	int3   	
  === BLOCK LINK ===
    0x1005
=== CODE BLOCK END ===

=== CODE BLOCK ADDRESS 0x1005 ===
  0x1005	int3   	
  0x1006	int3   	
  0x1007	int3   	
  0x1008	int3   	
  0x1009	int3   	
  === BLOCK LINK ===
    0x100a
=== CODE BLOCK END ===

=== CODE BLOCK ADDRESS 0x100a ===
  0x100a	int3   	
  0x100b	int3   	
  0x100c	int3   	
  0x100d	int3   	
  0x100e	int3   	
  === BLOCK LINK ===
    0x100f
=== CODE BLOCK END ===

=== CODE BLOCK ADDRESS 0x100f ===
  0x100f	int3   	
  0x1010	inc    	eax
  0x1011	push   	ebx
  0x1012	dec    	eax
  0x1013	sub    	esp, 0x20
  === BLOCK LINK ===
    0x1016
=== CODE BLOCK END ===

=== CODE BLOCK ADDRESS 0x1016 ===
  0x1016	mov    	ebx, 1
  0x101b	cmp    	ecx, ebx
  0x101d	jne    	0x10c5
  === BLOCK LINK ===
    0x1023
    0x10c5
=== CODE BLOCK END ===

=== CODE BLOCK ADDRESS 0x1023 ===
  0x1023	dec    	eax
  0x1024	mov    	ecx, dword ptr [0x3606]
  0x102a	dec    	eax
  0x102b	lea    	edx, [0x2fff]
  0x1031	add    	dword ptr [0x300d], ebx
  === BLOCK LINK ===
    0x1037
=== CODE BLOCK END ===

=== CODE BLOCK ADDRESS 0x1037 ===
  0x1037	mov    	dword ptr [0x2ff3], 3
  0x1041	mov    	dword ptr [0x2ffd], 0x4e20
  0x104b	dec    	eax
  0x104c	call   	dword ptr [0x210e]
  === BLOCK LINK ===
    0x1052
=== CODE BLOCK END ===

=== CODE BLOCK ADDRESS 0x1052 ===
  0x1052	nop    	dword ptr [eax + eax]
  0x1057	test   	eax, eax
  0x1059	je     	0x10f6
  === BLOCK LINK ===
    0x105f
    0x10f6
=== CODE BLOCK END ===

=== CODE BLOCK ADDRESS 0x105f ===
  0x105f	dec    	eax
  0x1060	mov    	ecx, dword ptr [0x35d2]
  0x1066	dec    	eax
  0x1067	call   	dword ptr [0x2163]
  === BLOCK LINK ===
    0x106d
=== CODE BLOCK END ===

=== CODE BLOCK ADDRESS 0x106d ===
  0x106d	nop    	dword ptr [eax + eax]
  0x1072	test   	eax, eax
  0x1074	jne    	0x1105
  === BLOCK LINK ===
    0x107a
    0x1105
=== CODE BLOCK END ===

=== CODE BLOCK ADDRESS 0x107a ===
  0x107a	dec    	eax
  0x107b	mov    	ecx, dword ptr [0x35af]
  0x1081	dec    	eax
  0x1082	lea    	edx, [0x2fa8]
  0x1088	and    	dword ptr [0x2fb6], eax
  === BLOCK LINK ===
    0x108e
=== CODE BLOCK END ===

=== CODE BLOCK ADDRESS 0x108e ===
  0x108e	and    	dword ptr [0x2fb4], eax
  0x1094	mov    	dword ptr [0x2f9a], ebx
  0x109a	mov    	dword ptr [0x2f98], 0x42a
  0x10a4	mov    	dword ptr [0x2f96], ebx
  0x10aa	dec    	eax
  === BLOCK LINK ===
    0x10ab
=== CODE BLOCK END ===

=== CODE BLOCK ADDRESS 0x10ab ===
  0x10ab	call   	dword ptr [0x20af]
  === BLOCK LINK ===
    0x10b1
=== CODE BLOCK END ===

=== CODE BLOCK ADDRESS 0x10b1 ===
  0x10b1	nop    	dword ptr [eax + eax]
  0x10b6	mov    	ecx, ebx
  0x10b8	dec    	eax
  0x10b9	call   	dword ptr [0x22a1]
  === BLOCK LINK ===
    0x10bf
=== CODE BLOCK END ===

=== CODE BLOCK ADDRESS 0x10bf ===
  0x10bf	nop    	dword ptr [eax + eax]
  0x10c4	int3   	
  === BLOCK LINK ===
    0x10c5
=== CODE BLOCK END ===

=== CODE BLOCK ADDRESS 0x10d0 ===
  0x10d0	ja     	0x10d8
  === BLOCK LINK ===
    0x10d2
    0x10d8
=== CODE BLOCK END ===

=== CODE BLOCK ADDRESS 0x10d2 ===
  0x10d2	add    	dword ptr [0x2f6c], ebx
  === BLOCK LINK ===
    0x10d8
=== CODE BLOCK END ===

=== CODE BLOCK ADDRESS 0x10e6 ===
  0x10e6	dec    	eax
  0x10e7	call   	dword ptr [0x2073]
  === BLOCK LINK ===
    0x10ed
=== CODE BLOCK END ===

=== CODE BLOCK ADDRESS 0x10ed ===
  0x10ed	nop    	dword ptr [eax + eax]
  0x10f2	test   	eax, eax
  0x10f4	jne    	0x1105
  === BLOCK LINK ===
    0x10f6
    0x1105
=== CODE BLOCK END ===

=== CODE BLOCK ADDRESS 0x10f6 ===
  0x10f6	mov    	ecx, ebx
  0x10f8	dec    	eax
  0x10f9	call   	dword ptr [0x2261]
  === BLOCK LINK ===
    0x10ff
=== CODE BLOCK END ===

=== CODE BLOCK ADDRESS 0x10ff ===
  0x10ff	nop    	dword ptr [eax + eax]
  0x1104	int3   	
  === BLOCK LINK ===
    0x1105
=== CODE BLOCK END ===

=== CODE BLOCK ADDRESS 0x110a ===
  0x110a	ret    	
  0x110b	int3   	
  0x110c	int3   	
  0x110d	int3   	
  0x110e	int3   	
  === BLOCK LINK ===
    0x110f
=== CODE BLOCK END ===

=== CODE BLOCK ADDRESS 0x10c5 ===
  0x10c5	mov    	eax, dword ptr [0x2f69]
  0x10cb	add    	eax, -2
  0x10ce	cmp    	eax, ebx
  === BLOCK LINK ===
    0x10d0
=== CODE BLOCK END ===

=== CODE BLOCK ADDRESS 0x110f ===
  0x110f	int3   	
  0x1110	int3   	
  0x1111	int3   	
  0x1112	int3   	
  0x1113	int3   	
  === BLOCK LINK ===
    0x1114
=== CODE BLOCK END ===

=== CODE BLOCK ADDRESS 0x1114 ===
  0x1114	int3   	
  0x1115	int3   	
  0x1116	int3   	
  0x1117	int3   	
  0x1118	int3   	
  === BLOCK LINK ===
    0x1119
=== CODE BLOCK END ===

=== CODE BLOCK ADDRESS 0x1119 ===
  0x1119	int3   	
  0x111a	int3   	
  0x111b	int3   	
  0x111c	int3   	
  0x111d	int3   	
  === BLOCK LINK ===
    0x111e
=== CODE BLOCK END ===

=== CODE BLOCK ADDRESS 0x111e ===
  0x111e	int3   	
  0x111f	int3   	
  0x1120	dec    	eax
  0x1121	mov    	eax, esp
  0x1123	dec    	eax
  === BLOCK LINK ===
    0x1124
=== CODE BLOCK END ===

=== CODE BLOCK ADDRESS 0x1124 ===
  0x1124	mov    	dword ptr [eax + 8], esi
  0x1127	dec    	eax
  0x1128	mov    	dword ptr [eax + 0x10], edi
  0x112b	dec    	esp
  0x112c	mov    	dword ptr [eax + 0x18], esp
  === BLOCK LINK ===
    0x112f
=== CODE BLOCK END ===

=== CODE BLOCK ADDRESS 0x112f ===
  0x112f	dec    	esp
  0x1130	mov    	dword ptr [eax + 0x20], esi
  0x1133	inc    	ecx
  0x1134	push   	edi
  0x1135	dec    	eax
  === BLOCK LINK ===
    0x1136
=== CODE BLOCK END ===

=== CODE BLOCK ADDRESS 0x1136 ===
  0x1136	sub    	esp, 0x240
  0x113c	dec    	eax
  0x113d	mov    	eax, dword ptr [0x2ec5]
  0x1143	dec    	eax
  0x1144	xor    	eax, esp
  === BLOCK LINK ===
    0x1146
=== CODE BLOCK END ===

=== CODE BLOCK ADDRESS 0x1146 ===
  0x1146	dec    	eax
  0x1147	mov    	dword ptr [esp + 0x230], eax
  0x114e	inc    	ebp
  0x114f	xor    	edi, edi
  0x1151	inc    	ecx
  === BLOCK LINK ===
    0x1152
=== CODE BLOCK END ===

=== CODE BLOCK ADDRESS 0x1152 ===
  0x1152	mov    	esi, edi
  0x1154	dec    	eax
  0x1155	call   	dword ptr [0x202d]
  === BLOCK LINK ===
    0x115b
=== CODE BLOCK END ===

=== CODE BLOCK ADDRESS 0x115b ===
  0x115b	nop    	dword ptr [eax + eax]
  0x1160	dec    	eax
  0x1161	mov    	ecx, eax
  0x1163	xor    	edx, edx
  0x1165	dec    	eax
  === BLOCK LINK ===
    0x1166
=== CODE BLOCK END ===

=== CODE BLOCK ADDRESS 0x1166 ===
  0x1166	call   	dword ptr [0x20ac]
  === BLOCK LINK ===
    0x116c
=== CODE BLOCK END ===

=== CODE BLOCK ADDRESS 0x116c ===
  0x116c	nop    	dword ptr [eax + eax]
  0x1171	dec    	eax
  0x1172	lea    	edx, [0xfffffe98]
  0x1178	dec    	eax
  0x1179	lea    	ecx, [0x2281]
  === BLOCK LINK ===
    0x117f
=== CODE BLOCK END ===

=== CODE BLOCK ADDRESS 0x117f ===
  0x117f	dec    	eax
  0x1180	call   	dword ptr [0x1fd2]
  === BLOCK LINK ===
    0x1186
=== CODE BLOCK END ===

=== CODE BLOCK ADDRESS 0x1186 ===
  0x1186	nop    	dword ptr [eax + eax]
  0x118b	dec    	eax
  0x118c	mov    	dword ptr [0x349e], eax
  0x1192	dec    	eax
  0x1193	test   	eax, eax
  === BLOCK LINK ===
    0x1195
=== CODE BLOCK END ===

=== CODE BLOCK ADDRESS 0x1195 ===
  0x1195	je     	0x1954
  === BLOCK LINK ===
    0x119b
    0x1954
=== CODE BLOCK END ===

=== CODE BLOCK ADDRESS 0x119b ===
  0x119b	inc    	ebp
  0x119c	lea    	esi, [edi + 2]
  0x119f	inc    	esp
  0x11a0	mov    	dword ptr [0x2e8e], esi
  0x11a6	mov    	dword ptr [0x2e98], 0x4e20
  === BLOCK LINK ===
    0x11b0
=== CODE BLOCK END ===

=== CODE BLOCK ADDRESS 0x11b0 ===
  0x11b0	dec    	esp
  0x11b1	lea    	esp, [0x2e79]
  0x11b7	dec    	ecx
  0x11b8	mov    	edx, esp
  0x11ba	dec    	eax
  === BLOCK LINK ===
    0x11bb
=== CODE BLOCK END ===

=== CODE BLOCK ADDRESS 0x11bb ===
  0x11bb	mov    	ecx, eax
  0x11bd	dec    	eax
  0x11be	call   	dword ptr [0x1f9c]
  === BLOCK LINK ===
    0x11c4
=== CODE BLOCK END ===

=== CODE BLOCK ADDRESS 0x11c4 ===
  0x11c4	nop    	dword ptr [eax + eax]
  0x11c9	test   	eax, eax
  0x11cb	je     	0x1954
  === BLOCK LINK ===
    0x11d1
    0x1954
=== CODE BLOCK END ===

=== CODE BLOCK ADDRESS 0x11d1 ===
  0x11d1	dec    	eax
  0x11d2	lea    	ecx, [0x3508]
  0x11d8	dec    	eax
  0x11d9	call   	dword ptr [0x1fc9]
  === BLOCK LINK ===
    0x11df
=== CODE BLOCK END ===

=== CODE BLOCK ADDRESS 0x11df ===
  0x11df	nop    	dword ptr [eax + eax]
  0x11e4	nop    	
  0x11e5	xorps  	xmm0, xmm0
  0x11e8	movups  	xmmword ptr [0x3539], xmm0
  0x11ef	movups  	xmmword ptr [0x3542], xmm0
  === BLOCK LINK ===
    0x11f6
=== CODE BLOCK END ===

=== CODE BLOCK ADDRESS 0x11f6 ===
  0x11f6	xorps  	xmm1, xmm1
  0x11f9	movups  	xmmword ptr [0x3568], xmm1
  0x1200	movups  	xmmword ptr [0x3571], xmm1
  0x1207	movups  	xmmword ptr [0x349a], xmm0
  0x120e	movups  	xmmword ptr [0x34a3], xmm0
  === BLOCK LINK ===
    0x1215
=== CODE BLOCK END ===

=== CODE BLOCK ADDRESS 0x1215 ===
  0x1215	mov    	ecx, 0x101
  0x121a	dec    	eax
  0x121b	lea    	edx, [esp + 0x80]
  0x1222	dec    	eax
  0x1223	call   	dword ptr [0x20cf]
  === BLOCK LINK ===
    0x1229
=== CODE BLOCK END ===

=== CODE BLOCK ADDRESS 0x1229 ===
  0x1229	nop    	dword ptr [eax + eax]
  0x122e	test   	eax, eax
  0x1230	jne    	0x162f
  === BLOCK LINK ===
    0x1236
    0x162f
=== CODE BLOCK END ===

=== CODE BLOCK ADDRESS 0x1236 ===
  0x1236	lea    	edx, [eax + 0x10]
  0x1239	lea    	ecx, [eax + 0x40]
  0x123c	dec    	eax
  0x123d	call   	dword ptr [0x1f95]
  === BLOCK LINK ===
    0x1243
=== CODE BLOCK END ===

=== CODE BLOCK ADDRESS 0x1243 ===
  0x1243	nop    	dword ptr [eax + eax]
  0x1248	dec    	eax
  0x1249	mov    	dword ptr [0x33c9], eax
  0x124f	dec    	eax
  0x1250	test   	eax, eax
  === BLOCK LINK ===
    0x1252
=== CODE BLOCK END ===

=== CODE BLOCK ADDRESS 0x1252 ===
  0x1252	je     	0x162f
  === BLOCK LINK ===
    0x1258
    0x162f
=== CODE BLOCK END ===

=== CODE BLOCK ADDRESS 0x1258 ===
  0x1258	dec    	eax
  0x1259	mov    	dword ptr [eax + 8], eax
  0x125c	dec    	eax
  0x125d	mov    	dword ptr [eax], eax
  0x125f	dec    	eax
  === BLOCK LINK ===
    0x1260
=== CODE BLOCK END ===

=== CODE BLOCK ADDRESS 0x1260 ===
  0x1260	lea    	eax, [esp + 0x30]
  0x1264	dec    	eax
  0x1265	mov    	dword ptr [esp + 0x28], eax
  0x1269	inc    	esp
  0x126a	mov    	dword ptr [esp + 0x20], edi
  === BLOCK LINK ===
    0x126e
=== CODE BLOCK END ===

=== CODE BLOCK ADDRESS 0x126e ===
  0x126e	inc    	ebp
  0x126f	xor    	ecx, ecx
  0x1271	dec    	esp
  0x1272	lea    	eax, [0xf18]
  0x1278	xor    	edx, edx
  === BLOCK LINK ===
    0x127a
=== CODE BLOCK END ===

=== CODE BLOCK ADDRESS 0x127a ===
  0x127a	xor    	ecx, ecx
  0x127c	dec    	eax
  0x127d	call   	dword ptr [0x20d5]
  === BLOCK LINK ===
    0x1283
=== CODE BLOCK END ===

=== CODE BLOCK ADDRESS 0x1283 ===
  0x1283	nop    	dword ptr [eax + eax]
  0x1288	dec    	eax
  0x1289	mov    	esi, eax
  0x128b	dec    	eax
  0x128c	test   	eax, eax
  === BLOCK LINK ===
    0x128e
=== CODE BLOCK END ===

=== CODE BLOCK ADDRESS 0x128e ===
  0x128e	je     	0x162f
  === BLOCK LINK ===
    0x1294
    0x162f
=== CODE BLOCK END ===

=== CODE BLOCK ADDRESS 0x1294 ===
  0x1294	inc    	ebp
  0x1295	xor    	eax, eax
  0x1297	inc    	ecx
  0x1298	mov    	edx, esi
  0x129a	inc    	ecx
  === BLOCK LINK ===
    0x129b
=== CODE BLOCK END ===

=== CODE BLOCK ADDRESS 0x129b ===
  0x129b	mov    	ecx, esi
  0x129d	dec    	eax
  0x129e	call   	dword ptr [0x204c]
  === BLOCK LINK ===
    0x12a4
=== CODE BLOCK END ===

=== CODE BLOCK ADDRESS 0x12a4 ===
  0x12a4	nop    	dword ptr [eax + eax]
  0x12a9	dec    	eax
  0x12aa	mov    	dword ptr [0x2da0], eax
  0x12b0	dec    	eax
  0x12b1	mov    	edi, 0x360031
  === BLOCK LINK ===
    0x12b6
=== CODE BLOCK END ===

=== CODE BLOCK ADDRESS 0x12b6 ===
  0x12b6	xor    	al, byte ptr [eax]
  0x12b8	add    	byte ptr [eax], al
  0x12ba	dec    	eax
  0x12bb	cmp    	eax, -1
  0x12be	je     	0x13db
  === BLOCK LINK ===
    0x12c4
    0x13db
=== CODE BLOCK END ===

=== CODE BLOCK ADDRESS 0x12c4 ===
  0x12c4	dec    	eax
  0x12c5	mov    	dword ptr [esp + 0x220], edi
  0x12cc	xorps  	xmm0, xmm0
  0x12cf	movups  	xmmword ptr [esp + 0x40], xmm0
  0x12d4	movups  	xmmword ptr [esp + 0x50], xmm0
  === BLOCK LINK ===
    0x12d9
=== CODE BLOCK END ===

=== CODE BLOCK ADDRESS 0x12d9 ===
  0x12d9	movups  	xmmword ptr [esp + 0x60], xmm0
  0x12de	mov    	dword ptr [esp + 0x40], 1
  0x12e6	inc    	esp
  0x12e7	mov    	dword ptr [esp + 0x44], esi
  0x12eb	inc    	esp
  === BLOCK LINK ===
    0x12ec
=== CODE BLOCK END ===

=== CODE BLOCK ADDRESS 0x12ec ===
  0x12ec	mov    	dword ptr [esp + 0x48], esi
  0x12f0	dec    	esp
  0x12f1	lea    	ecx, [esp + 0x38]
  0x12f5	dec    	esp
  0x12f6	lea    	eax, [esp + 0x40]
  === BLOCK LINK ===
    0x12fa
=== CODE BLOCK END ===

=== CODE BLOCK ADDRESS 0x12fa ===
  0x12fa	dec    	eax
  0x12fb	lea    	edx, [0x2117]
  0x1301	xor    	ecx, ecx
  0x1303	dec    	eax
  0x1304	call   	dword ptr [0x1fde]
  === BLOCK LINK ===
    0x130a
=== CODE BLOCK END ===

=== CODE BLOCK ADDRESS 0x130a ===
  0x130a	nop    	dword ptr [eax + eax]
  0x130f	test   	eax, eax
  0x1311	je     	0x133b
  === BLOCK LINK ===
    0x1313
    0x133b
=== CODE BLOCK END ===

=== CODE BLOCK ADDRESS 0x1313 ===
  0x1313	dec    	esp
  0x1314	lea    	ecx, [esp + 0x38]
  0x1318	dec    	esp
  0x1319	lea    	eax, [esp + 0x40]
  0x131d	dec    	eax
  === BLOCK LINK ===
    0x131e
=== CODE BLOCK END ===

=== CODE BLOCK ADDRESS 0x131e ===
  0x131e	lea    	edx, [esp + 0x220]
  0x1325	xor    	ecx, ecx
  0x1327	dec    	eax
  0x1328	call   	dword ptr [0x1fba]
  === BLOCK LINK ===
    0x132e
=== CODE BLOCK END ===

=== CODE BLOCK ADDRESS 0x132e ===
  0x132e	nop    	dword ptr [eax + eax]
  0x1333	test   	eax, eax
  0x1335	jne    	0x162f
  === BLOCK LINK ===
    0x133b
    0x162f
=== CODE BLOCK END ===

=== CODE BLOCK ADDRESS 0x133b ===
  0x133b	dec    	eax
  0x133c	mov    	edx, dword ptr [esp + 0x38]
  0x1340	inc    	esp
  0x1341	mov    	eax, dword ptr [edx + 0x10]
  0x1344	dec    	eax
  === BLOCK LINK ===
    0x1345
=== CODE BLOCK END ===

=== CODE BLOCK ADDRESS 0x1345 ===
  0x1345	mov    	edx, dword ptr [edx + 0x20]
  0x1348	dec    	eax
  0x1349	mov    	ecx, dword ptr [0x2d01]
  0x134f	dec    	eax
  0x1350	call   	dword ptr [0x1f4a]
  === BLOCK LINK ===
    0x1356
=== CODE BLOCK END ===

=== CODE BLOCK ADDRESS 0x1356 ===
  0x1356	nop    	dword ptr [eax + eax]
  0x135b	cmp    	eax, -1
  0x135e	je     	0x13ca
  === BLOCK LINK ===
    0x1360
    0x13ca
=== CODE BLOCK END ===

=== CODE BLOCK ADDRESS 0x1360 ===
  0x1360	dec    	eax
  0x1361	mov    	eax, dword ptr [0x2ce9]
  0x1367	dec    	eax
  0x1368	mov    	dword ptr [0x33b2], eax
  0x136e	inc    	ebp
  === BLOCK LINK ===
    0x136f
=== CODE BLOCK END ===

=== CODE BLOCK ADDRESS 0x136f ===
  0x136f	xor    	ecx, ecx
  0x1371	inc    	ebp
  0x1372	xor    	eax, eax
  0x1374	inc    	ecx
  0x1375	lea    	edx, [ecx + 1]
  === BLOCK LINK ===
    0x1378
=== CODE BLOCK END ===

=== CODE BLOCK ADDRESS 0x1378 ===
  0x1378	xor    	ecx, ecx
  0x137a	dec    	eax
  0x137b	call   	dword ptr [0x1e3f]
  === BLOCK LINK ===
    0x1381
=== CODE BLOCK END ===

=== CODE BLOCK ADDRESS 0x1381 ===
  0x1381	nop    	dword ptr [eax + eax]
  0x1386	dec    	eax
  0x1387	mov    	dword ptr [0x33b3], eax
  0x138d	dec    	eax
  0x138e	test   	eax, eax
  === BLOCK LINK ===
    0x1390
=== CODE BLOCK END ===

=== CODE BLOCK ADDRESS 0x1390 ===
  0x1390	je     	0x162f
  === BLOCK LINK ===
    0x1396
    0x162f
=== CODE BLOCK END ===

=== CODE BLOCK ADDRESS 0x1396 ===
  0x1396	dec    	eax
  0x1397	lea    	eax, [esp + 0x30]
  0x139b	dec    	eax
  0x139c	mov    	dword ptr [esp + 0x28], eax
  0x13a0	inc    	esp
  === BLOCK LINK ===
    0x13a1
=== CODE BLOCK END ===

=== CODE BLOCK ADDRESS 0x13a1 ===
  0x13a1	mov    	dword ptr [esp + 0x20], edi
  0x13a5	dec    	esp
  0x13a6	lea    	ecx, [0x3374]
  0x13ac	dec    	esp
  0x13ad	lea    	eax, [0x70d]
  === BLOCK LINK ===
    0x13b3
=== CODE BLOCK END ===

=== CODE BLOCK ADDRESS 0x13b3 ===
  0x13b3	xor    	edx, edx
  0x13b5	xor    	ecx, ecx
  0x13b7	dec    	eax
  0x13b8	call   	dword ptr [0x1f9a]
  === BLOCK LINK ===
    0x13be
=== CODE BLOCK END ===

=== CODE BLOCK ADDRESS 0x13be ===
  0x13be	nop    	dword ptr [eax + eax]
  0x13c3	dec    	eax
  0x13c4	mov    	dword ptr [0x325e], eax
  === BLOCK LINK ===
    0x13ca
=== CODE BLOCK END ===

=== CODE BLOCK ADDRESS 0x13cf ===
  0x13cf	dec    	eax
  0x13d0	call   	dword ptr [0x1eea]
  === BLOCK LINK ===
    0x13d6
=== CODE BLOCK END ===

=== CODE BLOCK ADDRESS 0x13d6 ===
  0x13d6	nop    	dword ptr [eax + eax]
  === BLOCK LINK ===
    0x13db
=== CODE BLOCK END ===

=== CODE BLOCK ADDRESS 0x13e1 ===
  0x13e1	inc    	ecx
  0x13e2	lea    	ecx, [eax + 0x17]
  0x13e5	dec    	eax
  0x13e6	call   	dword ptr [0x1f04]
  === BLOCK LINK ===
    0x13ec
=== CODE BLOCK END ===

=== CODE BLOCK ADDRESS 0x13ec ===
  0x13ec	nop    	dword ptr [eax + eax]
  0x13f1	dec    	eax
  0x13f2	mov    	dword ptr [0x2c30], eax
  0x13f8	dec    	eax
  0x13f9	cmp    	eax, -1
  === BLOCK LINK ===
    0x13fc
=== CODE BLOCK END ===

=== CODE BLOCK ADDRESS 0x13fc ===
  0x13fc	je     	0x1515
  === BLOCK LINK ===
    0x1402
    0x1515
=== CODE BLOCK END ===

=== CODE BLOCK ADDRESS 0x1402 ===
  0x1402	dec    	eax
  0x1403	mov    	dword ptr [esp + 0x228], edi
  0x140a	xorps  	xmm0, xmm0
  0x140d	movdqu  	xmmword ptr [esp + 0x50], xmm0
  0x1413	xorps  	xmm1, xmm1
  === BLOCK LINK ===
    0x1416
=== CODE BLOCK END ===

=== CODE BLOCK ADDRESS 0x1416 ===
  0x1416	movdqu  	xmmword ptr [esp + 0x60], xmm1
  0x141c	movdqa  	xmm0, xmmword ptr [0x203c]
  0x1424	movdqu  	xmmword ptr [esp + 0x40], xmm0
  0x142a	dec    	esp
  0x142b	lea    	ecx, [esp + 0x38]
  === BLOCK LINK ===
    0x142f
=== CODE BLOCK END ===

=== CODE BLOCK ADDRESS 0x142f ===
  0x142f	dec    	esp
  0x1430	lea    	eax, [esp + 0x40]
  0x1434	dec    	eax
  0x1435	lea    	edx, [0x1fdd]
  0x143b	xor    	ecx, ecx
  === BLOCK LINK ===
    0x143d
=== CODE BLOCK END ===

=== CODE BLOCK ADDRESS 0x143d ===
  0x143d	dec    	eax
  0x143e	call   	dword ptr [0x1ea4]
  === BLOCK LINK ===
    0x1444
=== CODE BLOCK END ===

=== CODE BLOCK ADDRESS 0x1444 ===
  0x1444	nop    	dword ptr [eax + eax]
  0x1449	test   	eax, eax
  0x144b	je     	0x1475
  === BLOCK LINK ===
    0x144d
    0x1475
=== CODE BLOCK END ===

=== CODE BLOCK ADDRESS 0x144d ===
  0x144d	dec    	esp
  0x144e	lea    	ecx, [esp + 0x38]
  0x1452	dec    	esp
  0x1453	lea    	eax, [esp + 0x40]
  0x1457	dec    	eax
  === BLOCK LINK ===
    0x1458
=== CODE BLOCK END ===

=== CODE BLOCK ADDRESS 0x1458 ===
  0x1458	lea    	edx, [esp + 0x228]
  0x145f	xor    	ecx, ecx
  0x1461	dec    	eax
  0x1462	call   	dword ptr [0x1e80]
  === BLOCK LINK ===
    0x1468
=== CODE BLOCK END ===

=== CODE BLOCK ADDRESS 0x1468 ===
  0x1468	nop    	dword ptr [eax + eax]
  0x146d	test   	eax, eax
  0x146f	jne    	0x162f
  === BLOCK LINK ===
    0x1475
    0x162f
=== CODE BLOCK END ===

=== CODE BLOCK ADDRESS 0x1475 ===
  0x1475	dec    	eax
  0x1476	mov    	edx, dword ptr [esp + 0x38]
  0x147a	inc    	esp
  0x147b	mov    	eax, dword ptr [edx + 0x10]
  0x147e	dec    	eax
  === BLOCK LINK ===
    0x147f
=== CODE BLOCK END ===

=== CODE BLOCK ADDRESS 0x147f ===
  0x147f	mov    	edx, dword ptr [edx + 0x20]
  0x1482	dec    	eax
  0x1483	mov    	ecx, dword ptr [0x2b9f]
  0x1489	dec    	eax
  0x148a	call   	dword ptr [0x1e10]
  === BLOCK LINK ===
    0x1490
=== CODE BLOCK END ===

=== CODE BLOCK ADDRESS 0x1490 ===
  0x1490	nop    	dword ptr [eax + eax]
  0x1495	cmp    	eax, -1
  0x1498	je     	0x1504
  === BLOCK LINK ===
    0x149a
    0x1504
=== CODE BLOCK END ===

=== CODE BLOCK ADDRESS 0x149a ===
  0x149a	dec    	eax
  0x149b	mov    	eax, dword ptr [0x2b87]
  0x14a1	dec    	eax
  0x14a2	mov    	dword ptr [0x32b8], eax
  0x14a8	inc    	ebp
  === BLOCK LINK ===
    0x14a9
=== CODE BLOCK END ===

=== CODE BLOCK ADDRESS 0x14a9 ===
  0x14a9	xor    	ecx, ecx
  0x14ab	inc    	ebp
  0x14ac	xor    	eax, eax
  0x14ae	inc    	ecx
  0x14af	lea    	edx, [ecx + 1]
  === BLOCK LINK ===
    0x14b2
=== CODE BLOCK END ===

=== CODE BLOCK ADDRESS 0x14b2 ===
  0x14b2	xor    	ecx, ecx
  0x14b4	dec    	eax
  0x14b5	call   	dword ptr [0x1d05]
  === BLOCK LINK ===
    0x14bb
=== CODE BLOCK END ===

=== CODE BLOCK ADDRESS 0x14bb ===
  0x14bb	nop    	dword ptr [eax + eax]
  0x14c0	dec    	eax
  0x14c1	mov    	dword ptr [0x32b9], eax
  0x14c7	dec    	eax
  0x14c8	test   	eax, eax
  === BLOCK LINK ===
    0x14ca
=== CODE BLOCK END ===

=== CODE BLOCK ADDRESS 0x14ca ===
  0x14ca	je     	0x162f
  === BLOCK LINK ===
    0x14d0
    0x162f
=== CODE BLOCK END ===

=== CODE BLOCK ADDRESS 0x14d0 ===
  0x14d0	dec    	eax
  0x14d1	lea    	eax, [esp + 0x30]
  0x14d5	dec    	eax
  0x14d6	mov    	dword ptr [esp + 0x28], eax
  0x14da	inc    	esp
  === BLOCK LINK ===
    0x14db
=== CODE BLOCK END ===

=== CODE BLOCK ADDRESS 0x14db ===
  0x14db	mov    	dword ptr [esp + 0x20], edi
  0x14df	dec    	esp
  0x14e0	lea    	ecx, [0x327a]
  0x14e6	dec    	esp
  0x14e7	lea    	eax, [0x5d3]
  === BLOCK LINK ===
    0x14ed
=== CODE BLOCK END ===

=== CODE BLOCK ADDRESS 0x14ed ===
  0x14ed	xor    	edx, edx
  0x14ef	xor    	ecx, ecx
  0x14f1	dec    	eax
  0x14f2	call   	dword ptr [0x1e60]
  === BLOCK LINK ===
    0x14f8
=== CODE BLOCK END ===

=== CODE BLOCK ADDRESS 0x14f8 ===
  0x14f8	nop    	dword ptr [eax + eax]
  0x14fd	dec    	eax
  0x14fe	mov    	dword ptr [0x310c], eax
  === BLOCK LINK ===
    0x1504
=== CODE BLOCK END ===

=== CODE BLOCK ADDRESS 0x1509 ===
  0x1509	dec    	eax
  0x150a	call   	dword ptr [0x1db0]
  === BLOCK LINK ===
    0x1510
=== CODE BLOCK END ===

=== CODE BLOCK ADDRESS 0x1510 ===
  0x1510	nop    	dword ptr [eax + eax]
  === BLOCK LINK ===
    0x1515
=== CODE BLOCK END ===

=== CODE BLOCK ADDRESS 0x151e ===
  0x151e	mov    	edi, 6
  0x1523	mov    	ecx, edi
  0x1525	dec    	eax
  0x1526	call   	dword ptr [0x1dc4]
  === BLOCK LINK ===
    0x152c
=== CODE BLOCK END ===

=== CODE BLOCK ADDRESS 0x152c ===
  0x152c	nop    	dword ptr [eax + eax]
  0x1531	dec    	eax
  0x1532	mov    	dword ptr [0x2ae8], eax
  0x1538	dec    	eax
  0x1539	cmp    	eax, -1
  === BLOCK LINK ===
    0x153c
=== CODE BLOCK END ===

=== CODE BLOCK ADDRESS 0x153c ===
  0x153c	je     	0x15ee
  === BLOCK LINK ===
    0x1542
    0x15ee
=== CODE BLOCK END ===

=== CODE BLOCK ADDRESS 0x1542 ===
  0x1542	dec    	esp
  0x1543	mov    	dword ptr [esp + 0x72], edi
  0x1547	inc    	sp
  0x1549	mov    	dword ptr [esp + 0x7a], edi
  0x154d	mov    	word ptr [esp + 0x70], di
  === BLOCK LINK ===
    0x1552
=== CODE BLOCK END ===

=== CODE BLOCK ADDRESS 0x1552 ===
  0x1552	mov    	ecx, 0x9010
  0x1557	dec    	eax
  0x1558	call   	dword ptr [0x1d7a]
  === BLOCK LINK ===
    0x155e
=== CODE BLOCK END ===

=== CODE BLOCK ADDRESS 0x155e ===
  0x155e	nop    	dword ptr [eax + eax]
  0x1563	mov    	word ptr [esp + 0x7c], ax
  0x1568	inc    	esp
  0x1569	lea    	eax, [edi + 8]
  0x156c	dec    	eax
  === BLOCK LINK ===
    0x156d
=== CODE BLOCK END ===

=== CODE BLOCK ADDRESS 0x156d ===
  0x156d	lea    	edx, [esp + 0x70]
  0x1571	dec    	eax
  0x1572	mov    	ecx, dword ptr [0x2aa8]
  0x1578	dec    	eax
  0x1579	call   	dword ptr [0x1d21]
  === BLOCK LINK ===
    0x157f
=== CODE BLOCK END ===

=== CODE BLOCK ADDRESS 0x157f ===
  0x157f	nop    	dword ptr [eax + eax]
  0x1584	cmp    	eax, -1
  0x1587	je     	0x15ee
  === BLOCK LINK ===
    0x1589
    0x15ee
=== CODE BLOCK END ===

=== CODE BLOCK ADDRESS 0x1589 ===
  0x1589	dec    	eax
  0x158a	mov    	eax, dword ptr [0x2a90]
  0x1590	dec    	eax
  0x1591	mov    	dword ptr [0x3109], eax
  0x1597	inc    	ebp
  === BLOCK LINK ===
    0x1598
=== CODE BLOCK END ===

=== CODE BLOCK ADDRESS 0x1598 ===
  0x1598	xor    	ecx, ecx
  0x159a	inc    	ebp
  0x159b	xor    	eax, eax
  0x159d	lea    	edx, [edi - 5]
  0x15a0	xor    	ecx, ecx
  === BLOCK LINK ===
    0x15a2
=== CODE BLOCK END ===

=== CODE BLOCK ADDRESS 0x15a2 ===
  0x15a2	dec    	eax
  0x15a3	call   	dword ptr [0x1c17]
  === BLOCK LINK ===
    0x15a9
=== CODE BLOCK END ===

=== CODE BLOCK ADDRESS 0x15a9 ===
  0x15a9	nop    	dword ptr [eax + eax]
  0x15ae	dec    	eax
  0x15af	mov    	dword ptr [0x310b], eax
  0x15b5	dec    	eax
  0x15b6	test   	eax, eax
  === BLOCK LINK ===
    0x15b8
=== CODE BLOCK END ===

=== CODE BLOCK ADDRESS 0x15b8 ===
  0x15b8	je     	0x162f
  === BLOCK LINK ===
    0x15ba
    0x162f
=== CODE BLOCK END ===

=== CODE BLOCK ADDRESS 0x15ba ===
  0x15ba	dec    	eax
  0x15bb	lea    	eax, [esp + 0x30]
  0x15bf	dec    	eax
  0x15c0	mov    	dword ptr [esp + 0x28], eax
  0x15c4	inc    	esp
  === BLOCK LINK ===
    0x15c5
=== CODE BLOCK END ===

=== CODE BLOCK ADDRESS 0x15c5 ===
  0x15c5	mov    	dword ptr [esp + 0x20], edi
  0x15c9	dec    	esp
  0x15ca	lea    	ecx, [0x30d0]
  0x15d0	dec    	esp
  0x15d1	lea    	eax, [0x4e9]
  === BLOCK LINK ===
    0x15d7
=== CODE BLOCK END ===

=== CODE BLOCK ADDRESS 0x15d7 ===
  0x15d7	xor    	edx, edx
  0x15d9	xor    	ecx, ecx
  0x15db	dec    	eax
  0x15dc	call   	dword ptr [0x1d76]
  === BLOCK LINK ===
    0x15e2
=== CODE BLOCK END ===

=== CODE BLOCK ADDRESS 0x15e2 ===
  0x15e2	nop    	dword ptr [eax + eax]
  0x15e7	dec    	eax
  0x15e8	mov    	dword ptr [0x3032], eax
  === BLOCK LINK ===
    0x15ee
=== CODE BLOCK END ===

=== CODE BLOCK ADDRESS 0x15f9 ===
  0x15f9	mov    	dword ptr [0x2a45], edi
  0x15ff	dec    	ecx
  0x1600	mov    	edx, esp
  0x1602	dec    	eax
  0x1603	mov    	ecx, dword ptr [0x3027]
  === BLOCK LINK ===
    0x1609
=== CODE BLOCK END ===

=== CODE BLOCK ADDRESS 0x1609 ===
  0x1609	dec    	eax
  0x160a	call   	dword ptr [0x1b50]
  === BLOCK LINK ===
    0x1610
=== CODE BLOCK END ===

=== CODE BLOCK ADDRESS 0x1610 ===
  0x1610	nop    	dword ptr [eax + eax]
  0x1615	test   	eax, eax
  0x1617	je     	0x162f
  === BLOCK LINK ===
    0x1619
    0x162f
=== CODE BLOCK END ===

=== CODE BLOCK ADDRESS 0x1619 ===
  0x1619	or     	edx, 0xffffffff
  0x161c	dec    	eax
  0x161d	mov    	ecx, dword ptr [0x3015]
  0x1623	dec    	eax
  0x1624	call   	dword ptr [0x1b86]
  === BLOCK LINK ===
    0x162a
=== CODE BLOCK END ===

=== CODE BLOCK ADDRESS 0x162a ===
  0x162a	nop    	dword ptr [eax + eax]
  === BLOCK LINK ===
    0x162f
=== CODE BLOCK END ===

=== CODE BLOCK ADDRESS 0x163d ===
  0x163d	nop    	dword ptr [eax + eax]
  0x1642	mov    	dword ptr [0x29e8], 3
  0x164c	inc    	dword ptr [0x29f2]
  0x1652	dec    	ecx
  0x1653	mov    	edx, esp
  === BLOCK LINK ===
    0x1655
=== CODE BLOCK END ===

=== CODE BLOCK ADDRESS 0x1655 ===
  0x1655	dec    	eax
  0x1656	mov    	ecx, dword ptr [0x2fd4]
  0x165c	dec    	eax
  0x165d	call   	dword ptr [0x1afd]
  === BLOCK LINK ===
    0x1663
=== CODE BLOCK END ===

=== CODE BLOCK ADDRESS 0x1663 ===
  0x1663	nop    	dword ptr [eax + eax]
  0x1668	dec    	eax
  0x1669	test   	esi, esi
  0x166b	je     	0x16bd
  === BLOCK LINK ===
    0x166d
    0x16bd
=== CODE BLOCK END ===

=== CODE BLOCK ADDRESS 0x166d ===
  0x166d	dec    	eax
  0x166e	mov    	ecx, dword ptr [0x3024]
  0x1674	dec    	eax
  0x1675	call   	dword ptr [0x1b55]
  === BLOCK LINK ===
    0x167b
=== CODE BLOCK END ===

=== CODE BLOCK ADDRESS 0x167b ===
  0x167b	nop    	dword ptr [eax + eax]
  0x1680	or     	edx, 0xffffffff
  0x1683	dec    	eax
  0x1684	mov    	ecx, esi
  0x1686	dec    	eax
  === BLOCK LINK ===
    0x1687
=== CODE BLOCK END ===

=== CODE BLOCK ADDRESS 0x1687 ===
  0x1687	call   	dword ptr [0x1b23]
  === BLOCK LINK ===
    0x168d
=== CODE BLOCK END ===

=== CODE BLOCK ADDRESS 0x168d ===
  0x168d	nop    	dword ptr [eax + eax]
  0x1692	inc    	dword ptr [0x29ac]
  0x1698	dec    	ecx
  0x1699	mov    	edx, esp
  0x169b	dec    	eax
  === BLOCK LINK ===
    0x169c
=== CODE BLOCK END ===

=== CODE BLOCK ADDRESS 0x169c ===
  0x169c	mov    	ecx, dword ptr [0x2f8e]
  0x16a2	dec    	eax
  0x16a3	call   	dword ptr [0x1ab7]
  === BLOCK LINK ===
    0x16a9
=== CODE BLOCK END ===

=== CODE BLOCK ADDRESS 0x16a9 ===
  0x16a9	nop    	dword ptr [eax + eax]
  0x16ae	dec    	eax
  0x16af	mov    	ecx, esi
  0x16b1	dec    	eax
  0x16b2	call   	dword ptr [0x1b30]
  === BLOCK LINK ===
    0x16b8
=== CODE BLOCK END ===

=== CODE BLOCK ADDRESS 0x16b8 ===
  0x16b8	nop    	dword ptr [eax + eax]
  === BLOCK LINK ===
    0x16bd
    0x171e
=== CODE BLOCK END ===

=== CODE BLOCK ADDRESS 0x16c6 ===
  0x16c6	dec    	eax
  0x16c7	mov    	ecx, dword ptr [0x3073]
  0x16cd	dec    	eax
  0x16ce	call   	dword ptr [0x1afc]
  === BLOCK LINK ===
    0x16d4
=== CODE BLOCK END ===

=== CODE BLOCK ADDRESS 0x16d4 ===
  0x16d4	nop    	dword ptr [eax + eax]
  0x16d9	or     	edx, 0xffffffff
  0x16dc	dec    	eax
  0x16dd	mov    	ecx, dword ptr [0x2f45]
  0x16e3	dec    	eax
  === BLOCK LINK ===
    0x16e4
=== CODE BLOCK END ===

=== CODE BLOCK ADDRESS 0x16e4 ===
  0x16e4	call   	dword ptr [0x1ac6]
  === BLOCK LINK ===
    0x16ea
=== CODE BLOCK END ===

=== CODE BLOCK ADDRESS 0x16ea ===
  0x16ea	nop    	dword ptr [eax + eax]
  0x16ef	inc    	dword ptr [0x294f]
  0x16f5	dec    	ecx
  0x16f6	mov    	edx, esp
  0x16f8	dec    	eax
  === BLOCK LINK ===
    0x16f9
=== CODE BLOCK END ===

=== CODE BLOCK ADDRESS 0x16f9 ===
  0x16f9	mov    	ecx, dword ptr [0x2f31]
  0x16ff	dec    	eax
  0x1700	call   	dword ptr [0x1a5a]
  === BLOCK LINK ===
    0x1706
=== CODE BLOCK END ===

=== CODE BLOCK ADDRESS 0x1706 ===
  0x1706	nop    	dword ptr [eax + eax]
  0x170b	dec    	eax
  0x170c	mov    	ecx, dword ptr [0x2f16]
  0x1712	dec    	eax
  0x1713	call   	dword ptr [0x1acf]
  === BLOCK LINK ===
    0x1719
=== CODE BLOCK END ===

=== CODE BLOCK ADDRESS 0x1719 ===
  0x1719	nop    	dword ptr [eax + eax]
  === BLOCK LINK ===
    0x171e
=== CODE BLOCK END ===

=== CODE BLOCK ADDRESS 0x1729 ===
  0x1729	je     	0x1737
  === BLOCK LINK ===
    0x172b
=== CODE BLOCK END ===

=== CODE BLOCK ADDRESS 0x172b ===
  0x172b	dec    	eax
  0x172c	call   	dword ptr [0x1b76]
  === BLOCK LINK ===
    0x1732
=== CODE BLOCK END ===

=== CODE BLOCK ADDRESS 0x1732 ===
  0x1732	nop    	dword ptr [eax + eax]
  0x1737	dec    	eax
  0x1738	mov    	ecx, dword ptr [0x3002]
  0x173e	dec    	eax
  0x173f	test   	ecx, ecx
  === BLOCK LINK ===
    0x1741
=== CODE BLOCK END ===

=== CODE BLOCK ADDRESS 0x1741 ===
  0x1741	je     	0x174f
  === BLOCK LINK ===
    0x1743
=== CODE BLOCK END ===

=== CODE BLOCK ADDRESS 0x1743 ===
  0x1743	dec    	eax
  0x1744	call   	dword ptr [0x1a9e]
  === BLOCK LINK ===
    0x174a
=== CODE BLOCK END ===

=== CODE BLOCK ADDRESS 0x174a ===
  0x174a	nop    	dword ptr [eax + eax]
  0x174f	dec    	esp
  0x1750	cmp    	dword ptr [0x2eba], edi
  0x1756	je     	0x17b0
  === BLOCK LINK ===
    0x1758
=== CODE BLOCK END ===

=== CODE BLOCK ADDRESS 0x1758 ===
  0x1758	dec    	eax
  0x1759	mov    	ecx, dword ptr [0x3021]
  0x175f	dec    	eax
  0x1760	call   	dword ptr [0x1a6a]
  === BLOCK LINK ===
    0x1766
=== CODE BLOCK END ===

=== CODE BLOCK ADDRESS 0x1766 ===
  0x1766	nop    	dword ptr [eax + eax]
  0x176b	or     	edx, 0xffffffff
  0x176e	dec    	eax
  0x176f	mov    	ecx, dword ptr [0x2e9b]
  0x1775	dec    	eax
  === BLOCK LINK ===
    0x1776
=== CODE BLOCK END ===

=== CODE BLOCK ADDRESS 0x1776 ===
  0x1776	call   	dword ptr [0x1a34]
  === BLOCK LINK ===
    0x177c
=== CODE BLOCK END ===

=== CODE BLOCK ADDRESS 0x177c ===
  0x177c	nop    	dword ptr [eax + eax]
  0x1781	inc    	dword ptr [0x28bd]
  0x1787	dec    	ecx
  0x1788	mov    	edx, esp
  0x178a	dec    	eax
  === BLOCK LINK ===
    0x178b
=== CODE BLOCK END ===

=== CODE BLOCK ADDRESS 0x178b ===
  0x178b	mov    	ecx, dword ptr [0x2e9f]
  0x1791	dec    	eax
  0x1792	call   	dword ptr [0x19c8]
  === BLOCK LINK ===
    0x1798
=== CODE BLOCK END ===

=== CODE BLOCK ADDRESS 0x1798 ===
  0x1798	nop    	dword ptr [eax + eax]
  0x179d	dec    	eax
  0x179e	mov    	ecx, dword ptr [0x2e6c]
  0x17a4	dec    	eax
  0x17a5	call   	dword ptr [0x1a3d]
  === BLOCK LINK ===
    0x17ab
=== CODE BLOCK END ===

=== CODE BLOCK ADDRESS 0x17ab ===
  0x17ab	nop    	dword ptr [eax + eax]
  0x17b0	dec    	eax
  0x17b1	mov    	ecx, dword ptr [0x2871]
  0x17b7	dec    	eax
  0x17b8	cmp    	ecx, -1
  === BLOCK LINK ===
    0x17bb
=== CODE BLOCK END ===

=== CODE BLOCK ADDRESS 0x17bb ===
  0x17bb	je     	0x17c9
  === BLOCK LINK ===
    0x17bd
=== CODE BLOCK END ===

=== CODE BLOCK ADDRESS 0x17bd ===
  0x17bd	dec    	eax
  0x17be	call   	dword ptr [0x1ae4]
  === BLOCK LINK ===
    0x17c4
=== CODE BLOCK END ===

=== CODE BLOCK ADDRESS 0x17c4 ===
  0x17c4	nop    	dword ptr [eax + eax]
  0x17c9	dec    	eax
  0x17ca	mov    	ecx, dword ptr [0x2fb0]
  0x17d0	dec    	eax
  0x17d1	test   	ecx, ecx
  === BLOCK LINK ===
    0x17d3
=== CODE BLOCK END ===

=== CODE BLOCK ADDRESS 0x17d3 ===
  0x17d3	je     	0x17e1
  === BLOCK LINK ===
    0x17d5
=== CODE BLOCK END ===

=== CODE BLOCK ADDRESS 0x17d5 ===
  0x17d5	dec    	eax
  0x17d6	call   	dword ptr [0x1a0c]
  === BLOCK LINK ===
    0x17dc
=== CODE BLOCK END ===

=== CODE BLOCK ADDRESS 0x17dc ===
  0x17dc	nop    	dword ptr [eax + eax]
  0x17e1	dec    	esp
  0x17e2	cmp    	dword ptr [0x2e38], edi
  0x17e8	je     	0x1842
  === BLOCK LINK ===
    0x17ea
=== CODE BLOCK END ===

=== CODE BLOCK ADDRESS 0x17ea ===
  0x17ea	dec    	eax
  0x17eb	mov    	ecx, dword ptr [0x2ecf]
  0x17f1	dec    	eax
  0x17f2	call   	dword ptr [0x19d8]
  === BLOCK LINK ===
    0x17f8
=== CODE BLOCK END ===

=== CODE BLOCK ADDRESS 0x17f8 ===
  0x17f8	nop    	dword ptr [eax + eax]
  0x17fd	or     	edx, 0xffffffff
  0x1800	dec    	eax
  0x1801	mov    	ecx, dword ptr [0x2e19]
  0x1807	dec    	eax
  === BLOCK LINK ===
    0x1808
=== CODE BLOCK END ===

=== CODE BLOCK ADDRESS 0x1808 ===
  0x1808	call   	dword ptr [0x19a2]
  === BLOCK LINK ===
    0x180e
=== CODE BLOCK END ===

=== CODE BLOCK ADDRESS 0x180e ===
  0x180e	nop    	dword ptr [eax + eax]
  0x1813	inc    	dword ptr [0x282b]
  0x1819	dec    	ecx
  0x181a	mov    	edx, esp
  0x181c	dec    	eax
  === BLOCK LINK ===
    0x181d
=== CODE BLOCK END ===

=== CODE BLOCK ADDRESS 0x181d ===
  0x181d	mov    	ecx, dword ptr [0x2e0d]
  0x1823	dec    	eax
  0x1824	call   	dword ptr [0x1936]
  === BLOCK LINK ===
    0x182a
=== CODE BLOCK END ===

=== CODE BLOCK ADDRESS 0x182a ===
  0x182a	nop    	dword ptr [eax + eax]
  0x182f	dec    	eax
  0x1830	mov    	ecx, dword ptr [0x2dea]
  0x1836	dec    	eax
  0x1837	call   	dword ptr [0x19ab]
  === BLOCK LINK ===
    0x183d
=== CODE BLOCK END ===

=== CODE BLOCK ADDRESS 0x183d ===
  0x183d	nop    	dword ptr [eax + eax]
  0x1842	dec    	eax
  0x1843	mov    	ecx, dword ptr [0x27d7]
  0x1849	dec    	eax
  0x184a	cmp    	ecx, -1
  === BLOCK LINK ===
    0x184d
=== CODE BLOCK END ===

=== CODE BLOCK ADDRESS 0x184d ===
  0x184d	je     	0x185b
  === BLOCK LINK ===
    0x184f
=== CODE BLOCK END ===

=== CODE BLOCK ADDRESS 0x184f ===
  0x184f	dec    	eax
  0x1850	call   	dword ptr [0x1a52]
  === BLOCK LINK ===
    0x1856
=== CODE BLOCK END ===

=== CODE BLOCK ADDRESS 0x1856 ===
  0x1856	nop    	dword ptr [eax + eax]
  0x185b	dec    	eax
  0x185c	mov    	ecx, dword ptr [0x2e5e]
  0x1862	dec    	eax
  0x1863	test   	ecx, ecx
  === BLOCK LINK ===
    0x1865
=== CODE BLOCK END ===

=== CODE BLOCK ADDRESS 0x1865 ===
  0x1865	je     	0x1873
  === BLOCK LINK ===
    0x1867
=== CODE BLOCK END ===

=== CODE BLOCK ADDRESS 0x1867 ===
  0x1867	dec    	eax
  0x1868	call   	dword ptr [0x197a]
  === BLOCK LINK ===
    0x186e
=== CODE BLOCK END ===

=== CODE BLOCK ADDRESS 0x186e ===
  0x186e	nop    	dword ptr [eax + eax]
  0x1873	dec    	eax
  0x1874	lea    	ecx, [0x2e66]
  0x187a	dec    	eax
  0x187b	call   	dword ptr [0x18ff]
  === BLOCK LINK ===
    0x1881
=== CODE BLOCK END ===

=== CODE BLOCK ADDRESS 0x1881 ===
  0x1881	nop    	dword ptr [eax + eax]
  0x1886	dec    	eax
  0x1887	mov    	esi, dword ptr [0x2d8b]
  0x188d	dec    	eax
  0x188e	test   	esi, esi
  === BLOCK LINK ===
    0x1890
=== CODE BLOCK END ===

=== CODE BLOCK ADDRESS 0x1890 ===
  0x1890	je     	0x18f7
  === BLOCK LINK ===
    0x1892
=== CODE BLOCK END ===

=== CODE BLOCK ADDRESS 0x1892 ===
  0x1892	dec    	esp
  0x1893	mov    	esi, esi
  0x1895	dec    	ecx
  0x1896	mov    	edi, dword ptr [esi]
  0x1898	dec    	eax
  === BLOCK LINK ===
    0x1899
=== CODE BLOCK END ===

=== CODE BLOCK ADDRESS 0x1899 ===
  0x1899	cmp    	edi, esi
  0x189b	je     	0x18e1
  === BLOCK LINK ===
    0x189d
=== CODE BLOCK END ===

=== CODE BLOCK ADDRESS 0x189d ===
  0x189d	dec    	eax
  0x189e	test   	edi, edi
  0x18a0	je     	0x18e1
  === BLOCK LINK ===
    0x18a2
=== CODE BLOCK END ===

=== CODE BLOCK ADDRESS 0x18a2 ===
  0x18a2	dec    	eax
  0x18a3	mov    	ecx, dword ptr [edi + 0x10]
  0x18a6	dec    	eax
  0x18a7	call   	dword ptr [0x190b]
  === BLOCK LINK ===
    0x18ad
=== CODE BLOCK END ===

=== CODE BLOCK ADDRESS 0x18ad ===
  0x18ad	nop    	dword ptr [eax + eax]
  0x18b2	dec    	eax
  0x18b3	mov    	ecx, dword ptr [edi + 0x10]
  0x18b6	dec    	eax
  0x18b7	call   	dword ptr [0x192b]
  === BLOCK LINK ===
    0x18bd
=== CODE BLOCK END ===

=== CODE BLOCK ADDRESS 0x18bd ===
  0x18bd	nop    	dword ptr [eax + eax]
  0x18c2	dec    	esp
  0x18c3	mov    	esi, dword ptr [edi + 8]
  0x18c6	dec    	eax
  0x18c7	mov    	eax, dword ptr [edi]
  === BLOCK LINK ===
    0x18c9
=== CODE BLOCK END ===

=== CODE BLOCK ADDRESS 0x18c9 ===
  0x18c9	dec    	ecx
  0x18ca	mov    	dword ptr [esi], eax
  0x18cc	dec    	esp
  0x18cd	mov    	dword ptr [eax + 8], esi
  0x18d0	dec    	eax
  === BLOCK LINK ===
    0x18d1
=== CODE BLOCK END ===

=== CODE BLOCK ADDRESS 0x18d1 ===
  0x18d1	mov    	ecx, edi
  0x18d3	dec    	eax
  0x18d4	call   	dword ptr [0x1906]
  === BLOCK LINK ===
    0x18da
=== CODE BLOCK END ===

=== CODE BLOCK ADDRESS 0x18da ===
  0x18da	nop    	dword ptr [eax + eax]
  0x18df	jmp    	0x1895
  === BLOCK LINK ===
    0x18e1
=== CODE BLOCK END ===

=== CODE BLOCK ADDRESS 0x18e1 ===
  0x18e1	dec    	eax
  0x18e2	mov    	ecx, esi
  0x18e4	dec    	eax
  0x18e5	call   	dword ptr [0x18f5]
  === BLOCK LINK ===
    0x18eb
=== CODE BLOCK END ===

=== CODE BLOCK ADDRESS 0x18eb ===
  0x18eb	nop    	dword ptr [eax + eax]
  0x18f0	dec    	esp
  0x18f1	mov    	dword ptr [0x2d21], edi
  0x18f7	dec    	eax
  0x18f8	lea    	ecx, [0x2de2]
  === BLOCK LINK ===
    0x18fe
=== CODE BLOCK END ===

=== CODE BLOCK ADDRESS 0x18fe ===
  0x18fe	dec    	eax
  0x18ff	call   	dword ptr [0x189b]
  === BLOCK LINK ===
    0x1905
=== CODE BLOCK END ===

=== CODE BLOCK ADDRESS 0x1905 ===
  0x1905	nop    	dword ptr [eax + eax]
  0x190a	dec    	eax
  0x190b	lea    	ecx, [0x2dcf]
  0x1911	dec    	eax
  0x1912	call   	dword ptr [0x18f0]
  === BLOCK LINK ===
    0x1918
=== CODE BLOCK END ===

=== CODE BLOCK ADDRESS 0x1918 ===
  0x1918	nop    	dword ptr [eax + eax]
  0x191d	dec    	eax
  0x191e	call   	dword ptr [0x1994]
  === BLOCK LINK ===
    0x1924
=== CODE BLOCK END ===

=== CODE BLOCK ADDRESS 0x1924 ===
  0x1924	nop    	dword ptr [eax + eax]
  0x1929	mov    	dword ptr [0x2701], 1
  0x1933	dec    	esp
  0x1934	mov    	dword ptr [0x270a], edi
  0x193a	dec    	ecx
  === BLOCK LINK ===
    0x193b
=== CODE BLOCK END ===

=== CODE BLOCK ADDRESS 0x193b ===
  0x193b	mov    	edx, esp
  0x193d	dec    	eax
  0x193e	mov    	ecx, dword ptr [0x2cec]
  0x1944	dec    	eax
  0x1945	call   	dword ptr [0x1815]
  === BLOCK LINK ===
    0x194b
=== CODE BLOCK END ===

=== CODE BLOCK ADDRESS 0x194b ===
  0x194b	nop    	dword ptr [eax + eax]
  0x1950	test   	eax, eax
  0x1952	jne    	0x1978
  === BLOCK LINK ===
    0x1954
=== CODE BLOCK END ===

=== CODE BLOCK ADDRESS 0x1954 ===
  0x1954	mov    	ecx, 1
  0x1959	dec    	eax
  0x195a	call   	dword ptr [0x1a00]
  === BLOCK LINK ===
    0x1960
=== CODE BLOCK END ===

=== CODE BLOCK ADDRESS 0x1960 ===
  0x1960	nop    	dword ptr [eax + eax]
  0x1965	nop    	
  0x1966	mov    	ecx, 1
  0x196b	dec    	eax
  0x196c	call   	dword ptr [0x19ee]
  === BLOCK LINK ===
    0x1972
=== CODE BLOCK END ===

=== CODE BLOCK ADDRESS 0x1972 ===
  0x1972	nop    	dword ptr [eax + eax]
  0x1977	nop    	
  0x1978	dec    	eax
  0x1979	mov    	ecx, dword ptr [esp + 0x230]
  0x1980	dec    	eax
  === BLOCK LINK ===
    0x1981
=== CODE BLOCK END ===

=== CODE BLOCK ADDRESS 0x1981 ===
  0x1981	xor    	ecx, esp
  0x1983	call   	0x2790
  === BLOCK LINK ===
    0x1988
=== CODE BLOCK END ===

=== CODE BLOCK ADDRESS 0x1988 ===
  0x1988	dec    	esp
  0x1989	lea    	ebx, [esp + 0x240]
  0x1990	dec    	ecx
  0x1991	mov    	esi, dword ptr [ebx + 0x10]
  0x1994	dec    	ecx
  === BLOCK LINK ===
    0x1995
=== CODE BLOCK END ===

=== CODE BLOCK ADDRESS 0x1995 ===
  0x1995	mov    	edi, dword ptr [ebx + 0x18]
  0x1998	dec    	ebp
  0x1999	mov    	esp, dword ptr [ebx + 0x20]
  0x199c	dec    	ebp
  0x199d	mov    	esi, dword ptr [ebx + 0x28]
  === BLOCK LINK ===
    0x19a0
=== CODE BLOCK END ===

=== CODE BLOCK ADDRESS 0x19a0 ===
  0x19a0	dec    	ecx
  0x19a1	mov    	esp, ebx
  0x19a3	inc    	ecx
  0x19a4	pop    	edi
  0x19a5	ret    	
  === BLOCK LINK ===
    0x19a6
=== CODE BLOCK END ===

=== CODE BLOCK ADDRESS 0x19a6 ===
  0x19a6	int3   	
  0x19a7	int3   	
  0x19a8	int3   	
  0x19a9	int3   	
  0x19aa	int3   	
  === BLOCK LINK ===
    0x19ab
=== CODE BLOCK END ===

=== CODE BLOCK ADDRESS 0x19ab ===
  0x19ab	int3   	
  0x19ac	int3   	
  0x19ad	int3   	
  0x19ae	int3   	
  0x19af	int3   	
  === BLOCK LINK ===
    0x19b0
=== CODE BLOCK END ===

=== CODE BLOCK ADDRESS 0x19b0 ===
  0x19b0	dec    	esp
  0x19b1	mov    	ebx, esp
  0x19b3	push   	ebx
  0x19b4	dec    	eax
  0x19b5	sub    	esp, 0x40
  === BLOCK LINK ===
    0x19b8
=== CODE BLOCK END ===

=== CODE BLOCK ADDRESS 0x19b8 ===
  0x19b8	dec    	ecx
  0x19b9	and    	dword ptr [ebx - 0x18], 0
  0x19bd	dec    	eax
  0x19be	lea    	eax, [0x1a3c]
  0x19c4	dec    	ecx
  === BLOCK LINK ===
    0x19c5
=== CODE BLOCK END ===

=== CODE BLOCK ADDRESS 0x19c5 ===
  0x19c5	and    	dword ptr [ebx - 0x10], 0
  0x19c9	inc    	ebp
  0x19ca	xor    	ecx, ecx
  0x19cc	dec    	ecx
  0x19cd	mov    	dword ptr [ebx - 0x28], eax
  === BLOCK LINK ===
    0x19d0
=== CODE BLOCK END ===

=== CODE BLOCK ADDRESS 0x19d0 ===
  0x19d0	inc    	ebp
  0x19d1	xor    	eax, eax
  0x19d3	dec    	eax
  0x19d4	lea    	eax, [0xfffff746]
  0x19da	xor    	ecx, ecx
  === BLOCK LINK ===
    0x19dc
=== CODE BLOCK END ===

=== CODE BLOCK ADDRESS 0x19dc ===
  0x19dc	dec    	ecx
  0x19dd	mov    	dword ptr [ebx - 0x20], eax
  0x19e0	inc    	ecx
  0x19e1	lea    	ebx, [ecx + 1]
  0x19e4	mov    	edx, ebx
  === BLOCK LINK ===
    0x19e6
=== CODE BLOCK END ===

=== CODE BLOCK ADDRESS 0x19e6 ===
  0x19e6	dec    	eax
  0x19e7	call   	dword ptr [0x1803]
  === BLOCK LINK ===
    0x19ed
=== CODE BLOCK END ===

=== CODE BLOCK ADDRESS 0x19ed ===
  0x19ed	nop    	dword ptr [eax + eax]
  0x19f2	inc    	ebp
  0x19f3	xor    	ecx, ecx
  0x19f5	inc    	ebp
  0x19f6	xor    	eax, eax
  === BLOCK LINK ===
    0x19f8
=== CODE BLOCK END ===

=== CODE BLOCK ADDRESS 0x19f8 ===
  0x19f8	mov    	edx, ebx
  0x19fa	xor    	ecx, ecx
  0x19fc	dec    	eax
  0x19fd	call   	dword ptr [0x17bd]
  === BLOCK LINK ===
    0x1a03
=== CODE BLOCK END ===

=== CODE BLOCK ADDRESS 0x1a03 ===
  0x1a03	nop    	dword ptr [eax + eax]
  0x1a08	dec    	eax
  0x1a09	mov    	dword ptr [0x2c29], eax
  0x1a0f	dec    	eax
  0x1a10	test   	eax, eax
  === BLOCK LINK ===
    0x1a12
=== CODE BLOCK END ===

=== CODE BLOCK ADDRESS 0x1a12 ===
  0x1a12	jne    	0x1a23
  === BLOCK LINK ===
    0x1a14
=== CODE BLOCK END ===

=== CODE BLOCK ADDRESS 0x1a14 ===
  0x1a14	mov    	ecx, ebx
  0x1a16	dec    	eax
  0x1a17	call   	dword ptr [0x1943]
  === BLOCK LINK ===
    0x1a1d
=== CODE BLOCK END ===

=== CODE BLOCK ADDRESS 0x1a1d ===
  0x1a1d	nop    	dword ptr [eax + eax]
  0x1a22	int3   	
  0x1a23	xorps  	xmm0, xmm0
  0x1a26	inc    	ebp
  0x1a27	xor    	ecx, ecx
  === BLOCK LINK ===
    0x1a29
=== CODE BLOCK END ===

=== CODE BLOCK ADDRESS 0x1a29 ===
  0x1a29	inc    	ebp
  0x1a2a	xor    	eax, eax
  0x1a2c	mov    	edx, ebx
  0x1a2e	xor    	ecx, ecx
  0x1a30	movups  	xmmword ptr [0x2c49], xmm0
  === BLOCK LINK ===
    0x1a37
=== CODE BLOCK END ===

=== CODE BLOCK ADDRESS 0x1a37 ===
  0x1a37	movups  	xmmword ptr [0x2c52], xmm0
  0x1a3e	dec    	eax
  0x1a3f	call   	dword ptr [0x177b]
  === BLOCK LINK ===
    0x1a45
=== CODE BLOCK END ===

=== CODE BLOCK ADDRESS 0x1a45 ===
  0x1a45	nop    	dword ptr [eax + eax]
  0x1a4a	dec    	eax
  0x1a4b	mov    	dword ptr [0x2c47], eax
  0x1a51	dec    	eax
  0x1a52	test   	eax, eax
  === BLOCK LINK ===
    0x1a54
=== CODE BLOCK END ===

=== CODE BLOCK ADDRESS 0x1a54 ===
  0x1a54	jne    	0x1a78
  === BLOCK LINK ===
    0x1a56
=== CODE BLOCK END ===

=== CODE BLOCK ADDRESS 0x1a56 ===
  0x1a56	dec    	eax
  0x1a57	mov    	ecx, dword ptr [0x2bdb]
  0x1a5d	dec    	eax
  0x1a5e	call   	dword ptr [0x1784]
  === BLOCK LINK ===
    0x1a64
=== CODE BLOCK END ===

=== CODE BLOCK ADDRESS 0x1a64 ===
  0x1a64	nop    	dword ptr [eax + eax]
  0x1a69	mov    	ecx, ebx
  0x1a6b	dec    	eax
  0x1a6c	call   	dword ptr [0x18ee]
  === BLOCK LINK ===
    0x1a72
=== CODE BLOCK END ===

=== CODE BLOCK ADDRESS 0x1a72 ===
  0x1a72	nop    	dword ptr [eax + eax]
  0x1a77	int3   	
  0x1a78	dec    	eax
  0x1a79	lea    	ecx, [esp + 0x20]
  0x1a7d	dec    	eax
  === BLOCK LINK ===
    0x1a7e
=== CODE BLOCK END ===

=== CODE BLOCK ADDRESS 0x1a7e ===
  0x1a7e	call   	dword ptr [0x16b4]
  === BLOCK LINK ===
    0x1a84
=== CODE BLOCK END ===

=== CODE BLOCK ADDRESS 0x1a84 ===
  0x1a84	nop    	dword ptr [eax + eax]
  0x1a89	dec    	eax
  0x1a8a	mov    	ecx, dword ptr [0x2ba8]
  0x1a90	mov    	ebx, eax
  0x1a92	dec    	eax
  === BLOCK LINK ===
    0x1a93
=== CODE BLOCK END ===

=== CODE BLOCK ADDRESS 0x1a93 ===
  0x1a93	call   	dword ptr [0x174f]
  === BLOCK LINK ===
    0x1a99
=== CODE BLOCK END ===

=== CODE BLOCK ADDRESS 0x1a99 ===
  0x1a99	nop    	dword ptr [eax + eax]
  0x1a9e	dec    	eax
  0x1a9f	mov    	ecx, dword ptr [0x2bf3]
  0x1aa5	dec    	eax
  0x1aa6	call   	dword ptr [0x173c]
  === BLOCK LINK ===
    0x1aac
=== CODE BLOCK END ===

=== CODE BLOCK ADDRESS 0x1aac ===
  0x1aac	nop    	dword ptr [eax + eax]
  0x1ab1	mov    	eax, ebx
  0x1ab3	dec    	eax
  0x1ab4	add    	esp, 0x40
  0x1ab7	pop    	ebx
  === BLOCK LINK ===
    0x1ab8
=== CODE BLOCK END ===

=== CODE BLOCK ADDRESS 0x1ab8 ===
  0x1ab8	ret    	
  0x1ab9	int3   	
  0x1aba	int3   	
  0x1abb	int3   	
  0x1abc	int3   	
  === BLOCK LINK ===
    0x1abd
=== CODE BLOCK END ===

=== CODE BLOCK ADDRESS 0x1105 ===
  0x1105	dec    	eax
  0x1106	add    	esp, 0x20
  0x1109	pop    	ebx
  === BLOCK LINK ===
    0x110a
=== CODE BLOCK END ===

=== CODE BLOCK ADDRESS 0x1abd ===
  0x1abd	int3   	
  0x1abe	int3   	
  0x1abf	int3   	
  0x1ac0	dec    	eax
  0x1ac1	mov    	eax, esp
  === BLOCK LINK ===
    0x1ac3
=== CODE BLOCK END ===

=== CODE BLOCK ADDRESS 0x1ac3 ===
  0x1ac3	dec    	eax
  0x1ac4	mov    	dword ptr [eax + 0x10], ebx
  0x1ac7	dec    	eax
  0x1ac8	mov    	dword ptr [eax + 0x18], esi
  0x1acb	dec    	eax
  === BLOCK LINK ===
    0x1acc
=== CODE BLOCK END ===

=== CODE BLOCK ADDRESS 0x1acc ===
  0x1acc	mov    	dword ptr [eax + 0x20], edi
  0x1acf	push   	ebp
  0x1ad0	inc    	ecx
  0x1ad1	push   	esp
  0x1ad2	inc    	ecx
  === BLOCK LINK ===
    0x1ad3
=== CODE BLOCK END ===

=== CODE BLOCK ADDRESS 0x1ad3 ===
  0x1ad3	push   	ebp
  0x1ad4	inc    	ecx
  0x1ad5	push   	esi
  0x1ad6	inc    	ecx
  0x1ad7	push   	edi
  === BLOCK LINK ===
    0x1ad8
=== CODE BLOCK END ===

=== CODE BLOCK ADDRESS 0x1ad8 ===
  0x1ad8	dec    	eax
  0x1ad9	lea    	ebp, [eax - 0x198]
  0x1adf	dec    	eax
  0x1ae0	sub    	esp, 0x270
  0x1ae6	dec    	eax
  === BLOCK LINK ===
    0x1ae7
=== CODE BLOCK END ===

=== CODE BLOCK ADDRESS 0x1ae7 ===
  0x1ae7	mov    	eax, dword ptr [0x251b]
  0x1aed	dec    	eax
  0x1aee	xor    	eax, esp
  0x1af0	dec    	eax
  0x1af1	mov    	dword ptr [ebp + 0x160], eax
  === BLOCK LINK ===
    0x1af7
=== CODE BLOCK END ===

=== CODE BLOCK ADDRESS 0x1af7 ===
  0x1af7	xor    	edi, edi
  0x1af9	inc    	ebp
  0x1afa	xor    	esi, esi
  0x1afc	dec    	esp
  0x1afd	mov    	esp, ecx
  === BLOCK LINK ===
    0x1aff
=== CODE BLOCK END ===

=== CODE BLOCK ADDRESS 0x1aff ===
  0x1aff	dec    	eax
  0x1b00	test   	ecx, ecx
  0x1b02	je     	0x1ed5
  === BLOCK LINK ===
    0x1b08
=== CODE BLOCK END ===

=== CODE BLOCK ADDRESS 0x1b08 ===
  0x1b08	dec    	esp
  0x1b09	mov    	ebp, dword ptr [ecx]
  0x1b0b	dec    	eax
  0x1b0c	call   	dword ptr [0x16fe]
  === BLOCK LINK ===
    0x1b12
=== CODE BLOCK END ===

=== CODE BLOCK ADDRESS 0x1b12 ===
  0x1b12	nop    	dword ptr [eax + eax]
  0x1b17	dec    	eax
  0x1b18	mov    	ecx, dword ptr [0x2b1a]
  0x1b1e	xor    	edx, edx
  0x1b20	and    	dword ptr [esp + 0x44], edi
  === BLOCK LINK ===
    0x1b24
=== CODE BLOCK END ===

=== CODE BLOCK ADDRESS 0x1b24 ===
  0x1b24	mov    	esi, eax
  0x1b26	and    	dword ptr [esp + 0x30], edi
  0x1b2a	mov    	dword ptr [esp + 0x34], eax
  0x1b2e	mov    	dword ptr [esp + 0x40], 5
  0x1b36	dec    	eax
  === BLOCK LINK ===
    0x1b37
=== CODE BLOCK END ===

=== CODE BLOCK ADDRESS 0x1b37 ===
  0x1b37	call   	dword ptr [0x1673]
  === BLOCK LINK ===
    0x1b3d
=== CODE BLOCK END ===

=== CODE BLOCK ADDRESS 0x1b3d ===
  0x1b3d	nop    	dword ptr [eax + eax]
  0x1b42	test   	eax, eax
  0x1b44	je     	0x1ed5
  === BLOCK LINK ===
    0x1b4a
=== CODE BLOCK END ===

=== CODE BLOCK ADDRESS 0x1b4a ===
  0x1b4a	inc    	esp
  0x1b4b	lea    	edi, [edi + 1]
  0x1b4e	dec    	eax
  0x1b4f	lea    	eax, [esp + 0x40]
  0x1b53	dec    	esp
  === BLOCK LINK ===
    0x1b54
=== CODE BLOCK END ===

=== CODE BLOCK ADDRESS 0x1b54 ===
  0x1b54	mov    	dword ptr [esp + 0x58], ebp
  0x1b58	inc    	ebp
  0x1b59	xor    	ecx, ecx
  0x1b5b	dec    	eax
  0x1b5c	mov    	dword ptr [esp + 0x20], eax
  === BLOCK LINK ===
    0x1b60
=== CODE BLOCK END ===

=== CODE BLOCK ADDRESS 0x1b60 ===
  0x1b60	inc    	ebp
  0x1b61	xor    	eax, eax
  0x1b63	inc    	esp
  0x1b64	mov    	dword ptr [esp + 0x50], edi
  0x1b68	dec    	eax
  === BLOCK LINK ===
    0x1b69
=== CODE BLOCK END ===

=== CODE BLOCK ADDRESS 0x1b69 ===
  0x1b69	lea    	edx, [esp + 0x50]
  0x1b6d	xor    	ecx, ecx
  0x1b6f	dec    	eax
  0x1b70	call   	dword ptr [0x173a]
  === BLOCK LINK ===
    0x1b76
=== CODE BLOCK END ===

=== CODE BLOCK ADDRESS 0x1b76 ===
  0x1b76	nop    	dword ptr [eax + eax]
  0x1b7b	test   	eax, eax
  0x1b7d	je     	0x1e87
  === BLOCK LINK ===
    0x1b83
=== CODE BLOCK END ===

=== CODE BLOCK ADDRESS 0x1b83 ===
  0x1b83	cmp    	eax, -1
  0x1b86	je     	0x1ec1
  === BLOCK LINK ===
    0x1b8c
=== CODE BLOCK END ===

=== CODE BLOCK ADDRESS 0x1b8c ===
  0x1b8c	dec    	eax
  0x1b8d	lea    	edx, [esp + 0x50]
  0x1b91	dec    	ecx
  0x1b92	mov    	ecx, ebp
  0x1b94	dec    	eax
  === BLOCK LINK ===
    0x1b95
=== CODE BLOCK END ===

=== CODE BLOCK ADDRESS 0x1b95 ===
  0x1b95	call   	dword ptr [0x16fd]
  === BLOCK LINK ===
    0x1b9b
=== CODE BLOCK END ===

=== CODE BLOCK ADDRESS 0x1b9b ===
  0x1b9b	nop    	dword ptr [eax + eax]
  0x1ba0	test   	eax, eax
  0x1ba2	je     	0x1e87
  === BLOCK LINK ===
    0x1ba8
=== CODE BLOCK END ===

=== CODE BLOCK ADDRESS 0x1ba8 ===
  0x1ba8	dec    	esp
  0x1ba9	lea    	eax, [esp + 0x30]
  0x1bad	mov    	edx, 0x4004667f
  0x1bb2	dec    	ecx
  0x1bb3	mov    	ecx, ebp
  === BLOCK LINK ===
    0x1bb5
=== CODE BLOCK END ===

=== CODE BLOCK ADDRESS 0x1bb5 ===
  0x1bb5	dec    	eax
  0x1bb6	call   	dword ptr [0x1714]
  === BLOCK LINK ===
    0x1bbc
=== CODE BLOCK END ===

=== CODE BLOCK ADDRESS 0x1bbc ===
  0x1bbc	nop    	dword ptr [eax + eax]
  0x1bc1	test   	eax, eax
  0x1bc3	je     	0x1bd6
  === BLOCK LINK ===
    0x1bc5
=== CODE BLOCK END ===

=== CODE BLOCK ADDRESS 0x1bc5 ===
  0x1bc5	dec    	eax
  0x1bc6	call   	dword ptr [0x16fc]
  === BLOCK LINK ===
    0x1bcc
=== CODE BLOCK END ===

=== CODE BLOCK ADDRESS 0x1bcc ===
  0x1bcc	nop    	dword ptr [eax + eax]
  0x1bd1	jmp    	0x1e87
  === BLOCK LINK ===
    0x1bd6
=== CODE BLOCK END ===

=== CODE BLOCK ADDRESS 0x1bd6 ===
  0x1bd6	mov    	eax, dword ptr [esp + 0x30]
  0x1bda	cmp    	eax, 0x2000
  0x1bdf	jb     	0x1c3f
  === BLOCK LINK ===
    0x1be1
=== CODE BLOCK END ===

=== CODE BLOCK ADDRESS 0x1be1 ===
  0x1be1	dec    	eax
  0x1be2	call   	dword ptr [0x1628]
  === BLOCK LINK ===
    0x1be8
=== CODE BLOCK END ===

=== CODE BLOCK ADDRESS 0x1be8 ===
  0x1be8	nop    	dword ptr [eax + eax]
  0x1bed	mov    	dword ptr [esp + 0x34], eax
  0x1bf1	dec    	eax
  0x1bf2	test   	edi, edi
  0x1bf4	je     	0x1c12
  === BLOCK LINK ===
    0x1bf6
=== CODE BLOCK END ===

=== CODE BLOCK ADDRESS 0x1bf6 ===
  0x1bf6	inc    	ecx
  0x1bf7	cmp    	esi, 0xfff7
  0x1bfd	jae    	0x1cda
  === BLOCK LINK ===
    0x1c03
=== CODE BLOCK END ===

=== CODE BLOCK ADDRESS 0x1c03 ===
  0x1c03	dec    	eax
  0x1c04	mov    	ecx, edi
  0x1c06	dec    	eax
  0x1c07	call   	dword ptr [0x15d3]
  === BLOCK LINK ===
    0x1c0d
=== CODE BLOCK END ===

=== CODE BLOCK ADDRESS 0x1c0d ===
  0x1c0d	nop    	dword ptr [eax + eax]
  0x1c12	mov    	edx, 0x1007f
  0x1c17	mov    	ecx, 0x40
  0x1c1c	dec    	eax
  0x1c1d	call   	dword ptr [0x15b5]
  === BLOCK LINK ===
    0x1c23
=== CODE BLOCK END ===

=== CODE BLOCK ADDRESS 0x1c23 ===
  0x1c23	nop    	dword ptr [eax + eax]
  0x1c28	dec    	eax
  0x1c29	mov    	edi, eax
  0x1c2b	dec    	eax
  0x1c2c	test   	eax, eax
  === BLOCK LINK ===
    0x1c2e
=== CODE BLOCK END ===

=== CODE BLOCK ADDRESS 0x1c2e ===
  0x1c2e	je     	0x1ed5
  === BLOCK LINK ===
    0x1c34
=== CODE BLOCK END ===

=== CODE BLOCK ADDRESS 0x1c34 ===
  0x1c34	inc    	ecx
  0x1c35	mov    	esi, 0xfff7
  0x1c3a	jmp    	0x1cda
  === BLOCK LINK ===
    0x1c3f
=== CODE BLOCK END ===

=== CODE BLOCK ADDRESS 0x1c3f ===
  0x1c3f	xor    	ebx, ebx
  0x1c41	inc    	ecx
  0x1c42	cmp    	esi, 0xfff7
  0x1c48	jne    	0x1c6e
  === BLOCK LINK ===
    0x1c4a
=== CODE BLOCK END ===

=== CODE BLOCK ADDRESS 0x1c4a ===
  0x1c4a	dec    	eax
  0x1c4b	call   	dword ptr [0x15bf]
  === BLOCK LINK ===
    0x1c51
=== CODE BLOCK END ===

=== CODE BLOCK ADDRESS 0x1c51 ===
  0x1c51	nop    	dword ptr [eax + eax]
  0x1c56	cmp    	eax, esi
  0x1c58	jae    	0x1c5f
  === BLOCK LINK ===
    0x1c5a
=== CODE BLOCK END ===

=== CODE BLOCK ADDRESS 0x1c5a ===
  0x1c5a	inc    	ecx
  0x1c5b	mov    	ebx, edi
  0x1c5d	jmp    	0x1c6a
  === BLOCK LINK ===
    0x1c5f
=== CODE BLOCK END ===

=== CODE BLOCK ADDRESS 0x1c5f ===
  0x1c5f	sub    	eax, esi
  0x1c61	cmp    	eax, 0x1d4c0
  0x1c66	inc    	ecx
  0x1c67	cmova  	ebx, edi
  0x1c6a	mov    	eax, dword ptr [esp + 0x30]
  === BLOCK LINK ===
    0x1c6e
=== CODE BLOCK END ===

=== CODE BLOCK ADDRESS 0x1c6e ===
  0x1c6e	dec    	eax
  0x1c6f	test   	edi, edi
  0x1c71	je     	0x1c8f
  === BLOCK LINK ===
    0x1c73
=== CODE BLOCK END ===

=== CODE BLOCK ADDRESS 0x1c73 ===
  0x1c73	test   	ebx, ebx
  0x1c75	jne    	0x1c7c
  === BLOCK LINK ===
    0x1c77
=== CODE BLOCK END ===

=== CODE BLOCK ADDRESS 0x1c77 ===
  0x1c77	inc    	esp
  0x1c78	cmp    	esi, eax
  0x1c7a	jae    	0x1cda
  === BLOCK LINK ===
    0x1c7c
=== CODE BLOCK END ===

=== CODE BLOCK ADDRESS 0x1c7c ===
  0x1c7c	dec    	eax
  0x1c7d	mov    	ecx, edi
  0x1c7f	dec    	eax
  0x1c80	call   	dword ptr [0x155a]
  === BLOCK LINK ===
    0x1c86
=== CODE BLOCK END ===

=== CODE BLOCK ADDRESS 0x1c86 ===
  0x1c86	nop    	dword ptr [eax + eax]
  0x1c8b	mov    	eax, dword ptr [esp + 0x30]
  0x1c8f	mov    	ecx, 0x40
  0x1c94	cmp    	eax, 0x1000
  0x1c99	ja     	0x1cb4
  === BLOCK LINK ===
    0x1c9b
=== CODE BLOCK END ===

=== CODE BLOCK ADDRESS 0x1c9b ===
  0x1c9b	mov    	edx, 0x1088
  0x1ca0	dec    	eax
  0x1ca1	call   	dword ptr [0x1531]
  === BLOCK LINK ===
    0x1ca7
=== CODE BLOCK END ===

=== CODE BLOCK ADDRESS 0x1ca7 ===
  0x1ca7	nop    	dword ptr [eax + eax]
  0x1cac	inc    	ecx
  0x1cad	mov    	esi, 0x1000
  0x1cb2	jmp    	0x1cce
  === BLOCK LINK ===
    0x1cb4
=== CODE BLOCK END ===

=== CODE BLOCK ADDRESS 0x1cb4 ===
  0x1cb4	mov    	edx, eax
  0x1cb6	dec    	eax
  0x1cb7	add    	edx, 0x88
  0x1cbd	dec    	eax
  0x1cbe	call   	dword ptr [0x1514]
  === BLOCK LINK ===
    0x1cc4
=== CODE BLOCK END ===

=== CODE BLOCK ADDRESS 0x1cc4 ===
  0x1cc4	nop    	dword ptr [eax + eax]
  0x1cc9	inc    	esp
  0x1cca	mov    	esi, dword ptr [esp + 0x30]
  0x1cce	dec    	eax
  0x1ccf	mov    	edi, eax
  === BLOCK LINK ===
    0x1cd1
=== CODE BLOCK END ===

=== CODE BLOCK ADDRESS 0x1cd1 ===
  0x1cd1	dec    	eax
  0x1cd2	test   	eax, eax
  0x1cd4	je     	0x1ed5
  === BLOCK LINK ===
    0x1cda
=== CODE BLOCK END ===

=== CODE BLOCK ADDRESS 0x1cda ===
  0x1cda	dec    	eax
  0x1cdb	lea    	eax, [edi + 0x80]
  0x1ce1	inc    	esp
  0x1ce2	mov    	dword ptr [edi + 0x84], esi
  0x1ce8	dec    	eax
  === BLOCK LINK ===
    0x1ce9
=== CODE BLOCK END ===

=== CODE BLOCK ADDRESS 0x1ce9 ===
  0x1ce9	mov    	dword ptr [esp + 0x28], eax
  0x1ced	dec    	eax
  0x1cee	lea    	edx, [edi + 0x88]
  0x1cf4	inc    	ebp
  0x1cf5	xor    	ecx, ecx
  === BLOCK LINK ===
    0x1cf7
=== CODE BLOCK END ===

=== CODE BLOCK ADDRESS 0x1cf7 ===
  0x1cf7	dec    	eax
  0x1cf8	mov    	dword ptr [esp + 0x20], edi
  0x1cfc	inc    	ebp
  0x1cfd	mov    	eax, esi
  0x1cff	mov    	dword ptr [eax], 0x80
  === BLOCK LINK ===
    0x1d05
=== CODE BLOCK END ===

=== CODE BLOCK ADDRESS 0x1d05 ===
  0x1d05	dec    	ecx
  0x1d06	mov    	ecx, ebp
  0x1d08	dec    	eax
  0x1d09	call   	dword ptr [0x15d1]
  === BLOCK LINK ===
    0x1d0f
=== CODE BLOCK END ===

=== CODE BLOCK ADDRESS 0x1d0f ===
  0x1d0f	nop    	dword ptr [eax + eax]
  0x1d14	inc    	esp
  0x1d15	mov    	edi, eax
  0x1d17	test   	eax, eax
  0x1d19	je     	0x1e81
  === BLOCK LINK ===
    0x1d1f
=== CODE BLOCK END ===

=== CODE BLOCK ADDRESS 0x1d1f ===
  0x1d1f	cmp    	eax, -1
  0x1d22	jne    	0x1d35
  === BLOCK LINK ===
    0x1d24
=== CODE BLOCK END ===

=== CODE BLOCK ADDRESS 0x1d24 ===
  0x1d24	dec    	eax
  0x1d25	call   	dword ptr [0x159d]
  === BLOCK LINK ===
    0x1d2b
=== CODE BLOCK END ===

=== CODE BLOCK ADDRESS 0x1d2b ===
  0x1d2b	nop    	dword ptr [eax + eax]
  0x1d30	jmp    	0x1e81
  === BLOCK LINK ===
    0x1d35
=== CODE BLOCK END ===

=== CODE BLOCK ADDRESS 0x1d35 ===
  0x1d35	dec    	eax
  0x1d36	lea    	ecx, [0x29a4]
  0x1d3c	dec    	eax
  0x1d3d	call   	dword ptr [0x143d]
  === BLOCK LINK ===
    0x1d43
=== CODE BLOCK END ===

=== CODE BLOCK ADDRESS 0x1d43 ===
  0x1d43	nop    	dword ptr [eax + eax]
  0x1d48	dec    	eax
  0x1d49	mov    	eax, dword ptr [0x28c9]
  0x1d4f	inc    	esp
  0x1d50	mov    	dword ptr [edi + 0x84], edi
  === BLOCK LINK ===
    0x1d56
=== CODE BLOCK END ===

=== CODE BLOCK ADDRESS 0x1d56 ===
  0x1d56	dec    	eax
  0x1d57	cmp    	dword ptr [eax], eax
  0x1d59	je     	0x1e6e
  === BLOCK LINK ===
    0x1d5f
=== CODE BLOCK END ===

=== CODE BLOCK ADDRESS 0x1d5f ===
  0x1d5f	dec    	eax
  0x1d60	mov    	esi, eax
  0x1d62	dec    	eax
  0x1d63	mov    	esi, dword ptr [esi]
  0x1d65	dec    	eax
  === BLOCK LINK ===
    0x1d66
=== CODE BLOCK END ===

=== CODE BLOCK ADDRESS 0x1d66 ===
  0x1d66	cmp    	esi, eax
  0x1d68	je     	0x1e6e
  === BLOCK LINK ===
    0x1d6e
=== CODE BLOCK END ===

=== CODE BLOCK ADDRESS 0x1d6e ===
  0x1d6e	dec    	eax
  0x1d6f	test   	esi, esi
  0x1d71	je     	0x1e6e
  === BLOCK LINK ===
    0x1d77
=== CODE BLOCK END ===

=== CODE BLOCK ADDRESS 0x1d77 ===
  0x1d77	dec    	eax
  0x1d78	mov    	ecx, dword ptr [0x28ba]
  0x1d7e	xor    	edx, edx
  0x1d80	dec    	eax
  0x1d81	call   	dword ptr [0x1429]
  === BLOCK LINK ===
    0x1d87
=== CODE BLOCK END ===

=== CODE BLOCK ADDRESS 0x1d87 ===
  0x1d87	nop    	dword ptr [eax + eax]
  0x1d8c	test   	eax, eax
  0x1d8e	je     	0x1eae
  === BLOCK LINK ===
    0x1d94
=== CODE BLOCK END ===

=== CODE BLOCK ADDRESS 0x1d94 ===
  0x1d94	dec    	eax
  0x1d95	mov    	ecx, dword ptr [esi + 0x10]
  0x1d98	dec    	ecx
  0x1d99	lea    	ebx, [esp + 8]
  0x1d9d	dec    	esp
  === BLOCK LINK ===
    0x1d9e
=== CODE BLOCK END ===

=== CODE BLOCK ADDRESS 0x1d9e ===
  0x1d9e	lea    	ecx, [esp + 0x38]
  0x1da2	dec    	eax
  0x1da3	mov    	dword ptr [esp + 0x20], ebx
  0x1da7	inc    	ebp
  0x1da8	lea    	eax, [edi + 0x88]
  === BLOCK LINK ===
    0x1dae
=== CODE BLOCK END ===

=== CODE BLOCK ADDRESS 0x1dae ===
  0x1dae	dec    	eax
  0x1daf	mov    	edx, edi
  0x1db1	dec    	eax
  0x1db2	call   	dword ptr [0x13d8]
  === BLOCK LINK ===
    0x1db8
=== CODE BLOCK END ===

=== CODE BLOCK ADDRESS 0x1db8 ===
  0x1db8	nop    	dword ptr [eax + eax]
  0x1dbd	test   	eax, eax
  0x1dbf	jne    	0x1e62
  === BLOCK LINK ===
    0x1dc5
=== CODE BLOCK END ===

=== CODE BLOCK ADDRESS 0x1dc5 ===
  0x1dc5	dec    	eax
  0x1dc6	call   	dword ptr [0x13fc]
  === BLOCK LINK ===
    0x1dcc
=== CODE BLOCK END ===

=== CODE BLOCK ADDRESS 0x1dcc ===
  0x1dcc	nop    	dword ptr [eax + eax]
  0x1dd1	dec    	eax
  0x1dd2	mov    	ecx, dword ptr [esi + 0x10]
  0x1dd5	cmp    	eax, 0x3e5
  0x1dda	jne    	0x1e26
  === BLOCK LINK ===
    0x1ddc
=== CODE BLOCK END ===

=== CODE BLOCK ADDRESS 0x1ddc ===
  0x1ddc	inc    	ecx
  0x1ddd	mov    	ecx, 1
  0x1de2	dec    	esp
  0x1de3	lea    	eax, [esp + 0x38]
  0x1de7	dec    	eax
  === BLOCK LINK ===
    0x1de8
=== CODE BLOCK END ===

=== CODE BLOCK ADDRESS 0x1de8 ===
  0x1de8	mov    	edx, ebx
  0x1dea	dec    	eax
  0x1deb	call   	dword ptr [0x140f]
  === BLOCK LINK ===
    0x1df1
=== CODE BLOCK END ===

=== CODE BLOCK ADDRESS 0x1df1 ===
  0x1df1	nop    	dword ptr [eax + eax]
  0x1df6	dec    	eax
  0x1df7	mov    	ecx, dword ptr [0x283b]
  0x1dfd	xor    	edx, edx
  0x1dff	dec    	eax
  === BLOCK LINK ===
    0x1e00
=== CODE BLOCK END ===

=== CODE BLOCK ADDRESS 0x1e00 ===
  0x1e00	call   	dword ptr [0x13aa]
  === BLOCK LINK ===
    0x1e06
=== CODE BLOCK END ===

=== CODE BLOCK ADDRESS 0x1e06 ===
  0x1e06	nop    	dword ptr [eax + eax]
  0x1e0b	test   	eax, eax
  0x1e0d	je     	0x1eae
  === BLOCK LINK ===
    0x1e13
=== CODE BLOCK END ===

=== CODE BLOCK ADDRESS 0x1e13 ===
  0x1e13	dec    	ecx
  0x1e14	mov    	ecx, dword ptr [esp + 0x20]
  0x1e18	dec    	eax
  0x1e19	call   	dword ptr [0x13d9]
  === BLOCK LINK ===
    0x1e1f
=== CODE BLOCK END ===

=== CODE BLOCK ADDRESS 0x1e1f ===
  0x1e1f	nop    	dword ptr [eax + eax]
  0x1e24	jmp    	0x1e62
  === BLOCK LINK ===
    0x1e26
=== CODE BLOCK END ===

=== CODE BLOCK ADDRESS 0x1e26 ===
  0x1e26	dec    	eax
  0x1e27	call   	dword ptr [0x138b]
  === BLOCK LINK ===
    0x1e2d
=== CODE BLOCK END ===

=== CODE BLOCK ADDRESS 0x1e2d ===
  0x1e2d	nop    	dword ptr [eax + eax]
  0x1e32	dec    	eax
  0x1e33	mov    	ecx, dword ptr [esi + 0x10]
  0x1e36	dec    	eax
  0x1e37	call   	dword ptr [0x13ab]
  === BLOCK LINK ===
    0x1e3d
=== CODE BLOCK END ===

=== CODE BLOCK ADDRESS 0x1e3d ===
  0x1e3d	nop    	dword ptr [eax + eax]
  0x1e42	dec    	eax
  0x1e43	mov    	ebx, dword ptr [esi + 8]
  0x1e46	dec    	eax
  0x1e47	mov    	ecx, esi
  === BLOCK LINK ===
    0x1e49
=== CODE BLOCK END ===

=== CODE BLOCK ADDRESS 0x1e49 ===
  0x1e49	dec    	eax
  0x1e4a	mov    	eax, dword ptr [esi]
  0x1e4c	dec    	eax
  0x1e4d	mov    	dword ptr [ebx], eax
  0x1e4f	dec    	eax
  === BLOCK LINK ===
    0x1e50
=== CODE BLOCK END ===

=== CODE BLOCK ADDRESS 0x1e50 ===
  0x1e50	mov    	dword ptr [eax + 8], ebx
  0x1e53	dec    	eax
  0x1e54	call   	dword ptr [0x1386]
  === BLOCK LINK ===
    0x1e5a
=== CODE BLOCK END ===

=== CODE BLOCK ADDRESS 0x1e5a ===
  0x1e5a	nop    	dword ptr [eax + eax]
  0x1e5f	dec    	eax
  0x1e60	mov    	esi, ebx
  0x1e62	dec    	eax
  0x1e63	mov    	eax, dword ptr [0x27af]
  === BLOCK LINK ===
    0x1e69
=== CODE BLOCK END ===

=== CODE BLOCK ADDRESS 0x1e69 ===
  0x1e69	jmp    	0x1d62
  === BLOCK LINK ===
    0x1e6e
=== CODE BLOCK END ===

=== CODE BLOCK ADDRESS 0x1e6e ===
  0x1e6e	dec    	eax
  0x1e6f	lea    	ecx, [0x286b]
  0x1e75	dec    	eax
  0x1e76	call   	dword ptr [0x1324]
  === BLOCK LINK ===
    0x1e7c
=== CODE BLOCK END ===

=== CODE BLOCK ADDRESS 0x1e7c ===
  0x1e7c	nop    	dword ptr [eax + eax]
  0x1e81	inc    	ecx
  0x1e82	mov    	edi, 1
  0x1e87	dec    	eax
  0x1e88	mov    	ecx, dword ptr [0x27aa]
  === BLOCK LINK ===
    0x1e8e
=== CODE BLOCK END ===

=== CODE BLOCK ADDRESS 0x1e8e ===
  0x1e8e	xor    	edx, edx
  0x1e90	and    	dword ptr [esp + 0x30], 0
  0x1e95	dec    	eax
  0x1e96	call   	dword ptr [0x1314]
  === BLOCK LINK ===
    0x1e9c
=== CODE BLOCK END ===

=== CODE BLOCK ADDRESS 0x1e9c ===
  0x1e9c	nop    	dword ptr [eax + eax]
  0x1ea1	test   	eax, eax
  0x1ea3	je     	0x1ec1
  === BLOCK LINK ===
    0x1ea5
=== CODE BLOCK END ===

=== CODE BLOCK ADDRESS 0x1ea5 ===
  0x1ea5	mov    	esi, dword ptr [esp + 0x34]
  0x1ea9	jmp    	0x1b4e
  === BLOCK LINK ===
    0x1eae
=== CODE BLOCK END ===

=== CODE BLOCK ADDRESS 0x1eae ===
  0x1eae	dec    	eax
  0x1eaf	lea    	ecx, [0x282b]
  0x1eb5	dec    	eax
  0x1eb6	call   	dword ptr [0x12e4]
  === BLOCK LINK ===
    0x1ebc
=== CODE BLOCK END ===

=== CODE BLOCK ADDRESS 0x1ebc ===
  0x1ebc	nop    	dword ptr [eax + eax]
  0x1ec1	dec    	eax
  0x1ec2	test   	edi, edi
  0x1ec4	je     	0x1ed5
  === BLOCK LINK ===
    0x1ec6
=== CODE BLOCK END ===

=== CODE BLOCK ADDRESS 0x1ec6 ===
  0x1ec6	dec    	eax
  0x1ec7	mov    	ecx, edi
  0x1ec9	dec    	eax
  0x1eca	call   	dword ptr [0x1310]
  === BLOCK LINK ===
    0x1ed0
=== CODE BLOCK END ===

=== CODE BLOCK ADDRESS 0x1ed0 ===
  0x1ed0	nop    	dword ptr [eax + eax]
  0x1ed5	xor    	eax, eax
  0x1ed7	dec    	eax
  0x1ed8	mov    	ecx, dword ptr [ebp + 0x160]
  0x1ede	dec    	eax
  === BLOCK LINK ===
    0x1edf
=== CODE BLOCK END ===

=== CODE BLOCK ADDRESS 0x1edf ===
  0x1edf	xor    	ecx, esp
  0x1ee1	call   	0x2790
  === BLOCK LINK ===
    0x1ee6
=== CODE BLOCK END ===

=== CODE BLOCK ADDRESS 0x1ee6 ===
  0x1ee6	dec    	esp
  0x1ee7	lea    	ebx, [esp + 0x270]
  0x1eee	dec    	ecx
  0x1eef	mov    	ebx, dword ptr [ebx + 0x38]
  0x1ef2	dec    	ecx
  === BLOCK LINK ===
    0x1ef3
=== CODE BLOCK END ===

=== CODE BLOCK ADDRESS 0x1ef3 ===
  0x1ef3	mov    	esi, dword ptr [ebx + 0x40]
  0x1ef6	dec    	ecx
  0x1ef7	mov    	edi, dword ptr [ebx + 0x48]
  0x1efa	dec    	ecx
  0x1efb	mov    	esp, ebx
  === BLOCK LINK ===
    0x1efd
=== CODE BLOCK END ===

=== CODE BLOCK ADDRESS 0x1efd ===
  0x1efd	inc    	ecx
  0x1efe	pop    	edi
  0x1eff	inc    	ecx
  0x1f00	pop    	esi
  0x1f01	inc    	ecx
  === BLOCK LINK ===
    0x1f02
=== CODE BLOCK END ===

=== CODE BLOCK ADDRESS 0x1f02 ===
  0x1f02	pop    	ebp
  0x1f03	inc    	ecx
  0x1f04	pop    	esp
  0x1f05	pop    	ebp
  0x1f06	ret    	
  === BLOCK LINK ===
    0x1f07
=== CODE BLOCK END ===

=== CODE BLOCK ADDRESS 0x10d8 ===
  0x10d8	dec    	eax
  0x10d9	mov    	ecx, dword ptr [0x3551]
  0x10df	dec    	eax
  0x10e0	lea    	edx, [0x2f4a]
  === BLOCK LINK ===
    0x10e6
=== CODE BLOCK END ===

=== CODE BLOCK ADDRESS 0x1f07 ===
  0x1f07	int3   	
  0x1f08	int3   	
  0x1f09	int3   	
  0x1f0a	int3   	
  0x1f0b	int3   	
  === BLOCK LINK ===
    0x1f0c
=== CODE BLOCK END ===

=== CODE BLOCK ADDRESS 0x1f0c ===
  0x1f0c	int3   	
  0x1f0d	int3   	
  0x1f0e	int3   	
  0x1f0f	int3   	
  0x1f10	dec    	esp
  === BLOCK LINK ===
    0x1f11
=== CODE BLOCK END ===

=== CODE BLOCK ADDRESS 0x1f11 ===
  0x1f11	mov    	ebx, esp
  0x1f13	dec    	ecx
  0x1f14	mov    	dword ptr [ebx + 8], ebx
  0x1f17	dec    	ecx
  0x1f18	mov    	dword ptr [ebx + 0x10], esi
  === BLOCK LINK ===
    0x1f1b
=== CODE BLOCK END ===

=== CODE BLOCK ADDRESS 0x1f1b ===
  0x1f1b	dec    	ecx
  0x1f1c	mov    	dword ptr [ebx + 0x18], edi
  0x1f1f	push   	ebp
  0x1f20	dec    	ecx
  0x1f21	lea    	ebp, [ebx - 0x5f]
  === BLOCK LINK ===
    0x1f24
=== CODE BLOCK END ===

=== CODE BLOCK ADDRESS 0x1f24 ===
  0x1f24	dec    	eax
  0x1f25	sub    	esp, 0x90
  0x1f2b	dec    	eax
  0x1f2c	mov    	eax, dword ptr [0x20d6]
  0x1f32	dec    	eax
  === BLOCK LINK ===
    0x1f33
=== CODE BLOCK END ===

=== CODE BLOCK ADDRESS 0x1f33 ===
  0x1f33	xor    	eax, esp
  0x1f35	dec    	eax
  0x1f36	mov    	dword ptr [ebp + 0x47], eax
  0x1f39	xor    	esi, esi
  0x1f3b	mov    	word ptr [ebp + 0x43], 0x500
  === BLOCK LINK ===
    0x1f41
=== CODE BLOCK END ===

=== CODE BLOCK ADDRESS 0x1f41 ===
  0x1f41	dec    	eax
  0x1f42	lea    	eax, [ebp + 0x27]
  0x1f45	mov    	dword ptr [ebp + 0x3f], esi
  0x1f48	dec    	ecx
  0x1f49	mov    	dword ptr [ebx - 0x48], eax
  === BLOCK LINK ===
    0x1f4c
=== CODE BLOCK END ===

=== CODE BLOCK ADDRESS 0x1f4c ===
  0x1f4c	dec    	eax
  0x1f4d	lea    	ecx, [ebp + 0x3f]
  0x1f50	mov    	dword ptr [esp + 0x48], esi
  0x1f54	inc    	ecx
  0x1f55	mov    	ecx, 0x220
  === BLOCK LINK ===
    0x1f5a
=== CODE BLOCK END ===

=== CODE BLOCK ADDRESS 0x1f5a ===
  0x1f5a	mov    	dword ptr [esp + 0x40], esi
  0x1f5e	lea    	ebx, [esi + 0x20]
  0x1f61	mov    	dword ptr [esp + 0x38], esi
  0x1f65	inc    	esp
  0x1f66	mov    	eax, ebx
  === BLOCK LINK ===
    0x1f68
=== CODE BLOCK END ===

=== CODE BLOCK ADDRESS 0x1f68 ===
  0x1f68	mov    	dword ptr [esp + 0x30], esi
  0x1f6c	mov    	dl, 2
  0x1f6e	mov    	dword ptr [esp + 0x28], esi
  0x1f72	mov    	dword ptr [esp + 0x20], esi
  0x1f76	dec    	eax
  === BLOCK LINK ===
    0x1f77
=== CODE BLOCK END ===

=== CODE BLOCK ADDRESS 0x1f77 ===
  0x1f77	mov    	dword ptr [ebp + 0x37], esi
  0x1f7a	dec    	eax
  0x1f7b	mov    	dword ptr [ebp + 0x2f], esi
  0x1f7e	dec    	eax
  0x1f7f	mov    	dword ptr [ebp + 0x27], esi
  === BLOCK LINK ===
    0x1f82
=== CODE BLOCK END ===

=== CODE BLOCK ADDRESS 0x1f82 ===
  0x1f82	dec    	eax
  0x1f83	call   	dword ptr [0x11df]
  === BLOCK LINK ===
    0x1f89
=== CODE BLOCK END ===

=== CODE BLOCK ADDRESS 0x1f89 ===
  0x1f89	nop    	dword ptr [eax + eax]
  0x1f8e	test   	eax, eax
  0x1f90	je     	0x2130
  === BLOCK LINK ===
    0x1f96
=== CODE BLOCK END ===

=== CODE BLOCK ADDRESS 0x1f96 ===
  0x1f96	dec    	eax
  0x1f97	lea    	eax, [ebp + 0x2f]
  0x1f9a	inc    	ecx
  0x1f9b	mov    	ecx, 0x221
  0x1fa0	dec    	eax
  === BLOCK LINK ===
    0x1fa1
=== CODE BLOCK END ===

=== CODE BLOCK ADDRESS 0x1fa1 ===
  0x1fa1	mov    	dword ptr [esp + 0x50], eax
  0x1fa5	dec    	eax
  0x1fa6	lea    	ecx, [ebp + 0x3f]
  0x1fa9	mov    	dword ptr [esp + 0x48], esi
  0x1fad	inc    	esp
  === BLOCK LINK ===
    0x1fae
=== CODE BLOCK END ===

=== CODE BLOCK ADDRESS 0x1fae ===
  0x1fae	mov    	eax, ebx
  0x1fb0	mov    	dword ptr [esp + 0x40], esi
  0x1fb4	mov    	dl, 2
  0x1fb6	mov    	dword ptr [esp + 0x38], esi
  0x1fba	mov    	dword ptr [esp + 0x30], esi
  === BLOCK LINK ===
    0x1fbe
=== CODE BLOCK END ===

=== CODE BLOCK ADDRESS 0x1fbe ===
  0x1fbe	mov    	dword ptr [esp + 0x28], esi
  0x1fc2	mov    	dword ptr [esp + 0x20], esi
  0x1fc6	dec    	eax
  0x1fc7	call   	dword ptr [0x119b]
  === BLOCK LINK ===
    0x1fcd
=== CODE BLOCK END ===

=== CODE BLOCK ADDRESS 0x1fcd ===
  0x1fcd	nop    	dword ptr [eax + eax]
  0x1fd2	test   	eax, eax
  0x1fd4	je     	0x2130
  === BLOCK LINK ===
    0x1fda
=== CODE BLOCK END ===

=== CODE BLOCK ADDRESS 0x1fda ===
  0x1fda	dec    	eax
  0x1fdb	lea    	eax, [ebp + 0x37]
  0x1fde	inc    	ebp
  0x1fdf	xor    	ecx, ecx
  0x1fe1	dec    	eax
  === BLOCK LINK ===
    0x1fe2
=== CODE BLOCK END ===

=== CODE BLOCK ADDRESS 0x1fe2 ===
  0x1fe2	mov    	dword ptr [esp + 0x50], eax
  0x1fe6	inc    	esp
  0x1fe7	lea    	eax, [esi + 0x13]
  0x1fea	mov    	dword ptr [esp + 0x48], esi
  0x1fee	dec    	eax
  === BLOCK LINK ===
    0x1fef
=== CODE BLOCK END ===

=== CODE BLOCK ADDRESS 0x1fef ===
  0x1fef	lea    	ecx, [ebp + 0x3f]
  0x1ff2	mov    	dword ptr [esp + 0x40], esi
  0x1ff6	mov    	dl, 1
  0x1ff8	mov    	dword ptr [esp + 0x38], esi
  0x1ffc	mov    	dword ptr [esp + 0x30], esi
  === BLOCK LINK ===
    0x2000
=== CODE BLOCK END ===

=== CODE BLOCK ADDRESS 0x2000 ===
  0x2000	mov    	dword ptr [esp + 0x28], esi
  0x2004	mov    	dword ptr [esp + 0x20], esi
  0x2008	dec    	eax
  0x2009	call   	dword ptr [0x1159]
  === BLOCK LINK ===
    0x200f
=== CODE BLOCK END ===

=== CODE BLOCK ADDRESS 0x200f ===
  0x200f	nop    	dword ptr [eax + eax]
  0x2014	test   	eax, eax
  0x2016	je     	0x2130
  === BLOCK LINK ===
    0x201c
=== CODE BLOCK END ===

=== CODE BLOCK ADDRESS 0x201c ===
  0x201c	dec    	eax
  0x201d	mov    	ecx, dword ptr [ebp + 0x37]
  0x2020	dec    	eax
  0x2021	call   	dword ptr [0x1109]
  === BLOCK LINK ===
    0x2027
=== CODE BLOCK END ===

=== CODE BLOCK ADDRESS 0x2027 ===
  0x2027	nop    	dword ptr [eax + eax]
  0x202c	dec    	eax
  0x202d	mov    	ecx, dword ptr [ebp + 0x2f]
  0x2030	mov    	edi, eax
  0x2032	dec    	eax
  === BLOCK LINK ===
    0x2033
=== CODE BLOCK END ===

=== CODE BLOCK ADDRESS 0x2033 ===
  0x2033	call   	dword ptr [0x10f7]
  === BLOCK LINK ===
    0x2039
=== CODE BLOCK END ===

=== CODE BLOCK ADDRESS 0x2039 ===
  0x2039	nop    	dword ptr [eax + eax]
  0x203e	dec    	eax
  0x203f	mov    	ecx, dword ptr [ebp + 0x27]
  0x2042	add    	edi, eax
  0x2044	dec    	eax
  === BLOCK LINK ===
    0x2045
=== CODE BLOCK END ===

=== CODE BLOCK ADDRESS 0x2045 ===
  0x2045	call   	dword ptr [0x10e5]
  === BLOCK LINK ===
    0x204b
=== CODE BLOCK END ===

=== CODE BLOCK ADDRESS 0x204b ===
  0x204b	nop    	dword ptr [eax + eax]
  0x2050	add    	eax, ebx
  0x2052	lea    	ecx, [esi + 0x40]
  0x2055	add    	edi, eax
  0x2057	mov    	edx, edi
  === BLOCK LINK ===
    0x2059
=== CODE BLOCK END ===

=== CODE BLOCK ADDRESS 0x2059 ===
  0x2059	dec    	eax
  0x205a	call   	dword ptr [0x1178]
  === BLOCK LINK ===
    0x2060
=== CODE BLOCK END ===

=== CODE BLOCK ADDRESS 0x2060 ===
  0x2060	nop    	dword ptr [eax + eax]
  0x2065	dec    	eax
  0x2066	mov    	ebx, eax
  0x2068	dec    	eax
  0x2069	test   	eax, eax
  === BLOCK LINK ===
    0x206b
=== CODE BLOCK END ===

=== CODE BLOCK ADDRESS 0x206b ===
  0x206b	je     	0x20fb
  === BLOCK LINK ===
    0x2071
=== CODE BLOCK END ===

=== CODE BLOCK ADDRESS 0x2071 ===
  0x2071	inc    	esp
  0x2072	lea    	eax, [esi + 2]
  0x2075	mov    	edx, edi
  0x2077	dec    	eax
  0x2078	mov    	ecx, eax
  === BLOCK LINK ===
    0x207a
=== CODE BLOCK END ===

=== CODE BLOCK ADDRESS 0x207a ===
  0x207a	dec    	eax
  0x207b	call   	dword ptr [0x10bf]
  === BLOCK LINK ===
    0x2081
=== CODE BLOCK END ===

=== CODE BLOCK ADDRESS 0x2081 ===
  0x2081	nop    	dword ptr [eax + eax]
  0x2086	test   	eax, eax
  0x2088	je     	0x20e9
  === BLOCK LINK ===
    0x208a
=== CODE BLOCK END ===

=== CODE BLOCK ADDRESS 0x208a ===
  0x208a	dec    	esp
  0x208b	mov    	ecx, dword ptr [ebp + 0x37]
  0x208e	lea    	edx, [esi + 2]
  0x2091	mov    	edi, 0xc0000000
  0x2096	dec    	eax
  === BLOCK LINK ===
    0x2097
=== CODE BLOCK END ===

=== CODE BLOCK ADDRESS 0x2097 ===
  0x2097	mov    	ecx, ebx
  0x2099	inc    	esp
  0x209a	mov    	eax, edi
  0x209c	dec    	eax
  0x209d	call   	dword ptr [0x1085]
  === BLOCK LINK ===
    0x20a3
=== CODE BLOCK END ===

=== CODE BLOCK ADDRESS 0x20a3 ===
  0x20a3	nop    	dword ptr [eax + eax]
  0x20a8	test   	eax, eax
  0x20aa	je     	0x20e9
  === BLOCK LINK ===
    0x20ac
=== CODE BLOCK END ===

=== CODE BLOCK ADDRESS 0x20ac ===
  0x20ac	dec    	esp
  0x20ad	mov    	ecx, dword ptr [ebp + 0x27]
  0x20b0	lea    	edx, [esi + 2]
  0x20b3	inc    	esp
  0x20b4	mov    	eax, edi
  === BLOCK LINK ===
    0x20b6
=== CODE BLOCK END ===

=== CODE BLOCK ADDRESS 0x20b6 ===
  0x20b6	dec    	eax
  0x20b7	mov    	ecx, ebx
  0x20b9	dec    	eax
  0x20ba	call   	dword ptr [0x1068]
  === BLOCK LINK ===
    0x20c0
=== CODE BLOCK END ===

=== CODE BLOCK ADDRESS 0x20c0 ===
  0x20c0	nop    	dword ptr [eax + eax]
  0x20c5	test   	eax, eax
  0x20c7	je     	0x20e9
  === BLOCK LINK ===
    0x20c9
=== CODE BLOCK END ===

=== CODE BLOCK ADDRESS 0x20c9 ===
  0x20c9	dec    	esp
  0x20ca	mov    	ecx, dword ptr [ebp + 0x2f]
  0x20cd	lea    	edx, [esi + 2]
  0x20d0	inc    	ecx
  0x20d1	mov    	eax, 0x80120112
  === BLOCK LINK ===
    0x20d6
=== CODE BLOCK END ===

=== CODE BLOCK ADDRESS 0x20d6 ===
  0x20d6	dec    	eax
  0x20d7	mov    	ecx, ebx
  0x20d9	dec    	eax
  0x20da	call   	dword ptr [0x1048]
  === BLOCK LINK ===
    0x20e0
=== CODE BLOCK END ===

=== CODE BLOCK ADDRESS 0x20e0 ===
  0x20e0	nop    	dword ptr [eax + eax]
  0x20e5	test   	eax, eax
  0x20e7	jne    	0x20fb
  === BLOCK LINK ===
    0x20e9
=== CODE BLOCK END ===

=== CODE BLOCK ADDRESS 0x20e9 ===
  0x20e9	dec    	eax
  0x20ea	mov    	ecx, ebx
  0x20ec	dec    	eax
  0x20ed	call   	dword ptr [0x10ed]
  === BLOCK LINK ===
    0x20f3
=== CODE BLOCK END ===

=== CODE BLOCK ADDRESS 0x20f3 ===
  0x20f3	nop    	dword ptr [eax + eax]
  0x20f8	dec    	eax
  0x20f9	mov    	ebx, esi
  0x20fb	dec    	eax
  0x20fc	mov    	ecx, dword ptr [ebp + 0x27]
  === BLOCK LINK ===
    0x20ff
=== CODE BLOCK END ===

=== CODE BLOCK ADDRESS 0x20ff ===
  0x20ff	dec    	eax
  0x2100	call   	dword ptr [0x104a]
  === BLOCK LINK ===
    0x2106
=== CODE BLOCK END ===

=== CODE BLOCK ADDRESS 0x2106 ===
  0x2106	nop    	dword ptr [eax + eax]
  0x210b	dec    	eax
  0x210c	mov    	ecx, dword ptr [ebp + 0x2f]
  0x210f	dec    	eax
  0x2110	call   	dword ptr [0x103a]
  === BLOCK LINK ===
    0x2116
=== CODE BLOCK END ===

=== CODE BLOCK ADDRESS 0x2116 ===
  0x2116	nop    	dword ptr [eax + eax]
  0x211b	dec    	eax
  0x211c	mov    	ecx, dword ptr [ebp + 0x37]
  0x211f	dec    	eax
  0x2120	call   	dword ptr [0x102a]
  === BLOCK LINK ===
    0x2126
=== CODE BLOCK END ===

=== CODE BLOCK ADDRESS 0x2126 ===
  0x2126	nop    	dword ptr [eax + eax]
  0x212b	dec    	eax
  0x212c	mov    	eax, ebx
  0x212e	jmp    	0x215c
  === BLOCK LINK ===
    0x2130
=== CODE BLOCK END ===

=== CODE BLOCK ADDRESS 0x2130 ===
  0x2130	dec    	eax
  0x2131	mov    	ecx, dword ptr [ebp + 0x27]
  0x2134	dec    	eax
  0x2135	test   	ecx, ecx
  0x2137	je     	0x2145
  === BLOCK LINK ===
    0x2139
=== CODE BLOCK END ===

=== CODE BLOCK ADDRESS 0x2139 ===
  0x2139	dec    	eax
  0x213a	call   	dword ptr [0x1010]
  === BLOCK LINK ===
    0x2140
=== CODE BLOCK END ===

=== CODE BLOCK ADDRESS 0x2140 ===
  0x2140	nop    	dword ptr [eax + eax]
  0x2145	dec    	eax
  0x2146	mov    	ecx, dword ptr [ebp + 0x2f]
  0x2149	dec    	eax
  0x214a	test   	ecx, ecx
  === BLOCK LINK ===
    0x214c
=== CODE BLOCK END ===

=== CODE BLOCK ADDRESS 0x214c ===
  0x214c	je     	0x215a
  === BLOCK LINK ===
    0x214e
=== CODE BLOCK END ===

=== CODE BLOCK ADDRESS 0x214e ===
  0x214e	dec    	eax
  0x214f	call   	dword ptr [0xffb]
  === BLOCK LINK ===
    0x2155
=== CODE BLOCK END ===

=== CODE BLOCK ADDRESS 0x2155 ===
  0x2155	nop    	dword ptr [eax + eax]
  0x215a	xor    	eax, eax
  0x215c	dec    	eax
  0x215d	mov    	ecx, dword ptr [ebp + 0x47]
  0x2160	dec    	eax
  === BLOCK LINK ===
    0x2161
=== CODE BLOCK END ===

=== CODE BLOCK ADDRESS 0x2161 ===
  0x2161	xor    	ecx, esp
  0x2163	call   	0x2790
  === BLOCK LINK ===
    0x2168
=== CODE BLOCK END ===

=== CODE BLOCK ADDRESS 0x2168 ===
  0x2168	dec    	esp
  0x2169	lea    	ebx, [esp + 0x90]
  0x2170	dec    	ecx
  0x2171	mov    	ebx, dword ptr [ebx + 0x10]
  0x2174	dec    	ecx
  === BLOCK LINK ===
    0x2175
=== CODE BLOCK END ===

=== CODE BLOCK ADDRESS 0x2175 ===
  0x2175	mov    	esi, dword ptr [ebx + 0x18]
  0x2178	dec    	ecx
  0x2179	mov    	edi, dword ptr [ebx + 0x20]
  0x217c	dec    	ecx
  0x217d	mov    	esp, ebx
  === BLOCK LINK ===
    0x217f
=== CODE BLOCK END ===

=== CODE BLOCK ADDRESS 0x217f ===
  0x217f	pop    	ebp
  0x2180	ret    	
  0x2181	int3   	
  0x2182	int3   	
  0x2183	int3   	
  === BLOCK LINK ===
    0x2184
=== CODE BLOCK END ===

=== CODE BLOCK ADDRESS 0x2184 ===
  0x2184	int3   	
  0x2185	int3   	
  0x2186	int3   	
  0x2187	int3   	
  0x2188	int3   	
  === BLOCK LINK ===
    0x2189
=== CODE BLOCK END ===

=== CODE BLOCK ADDRESS 0x2189 ===
  0x2189	int3   	
  0x218a	int3   	
  0x218b	int3   	
  0x218c	int3   	
  0x218d	int3   	
  === BLOCK LINK ===
    0x218e
=== CODE BLOCK END ===

=== CODE BLOCK ADDRESS 0x218e ===
  0x218e	int3   	
  0x218f	int3   	
  0x2190	dec    	eax
  0x2191	mov    	dword ptr [esp + 8], ebx
  0x2195	dec    	eax
  === BLOCK LINK ===
    0x2196
=== CODE BLOCK END ===

=== CODE BLOCK ADDRESS 0x2196 ===
  0x2196	mov    	dword ptr [esp + 0x18], esi
  0x219a	push   	edi
  0x219b	dec    	eax
  0x219c	sub    	esp, 0x80
  0x21a2	mov    	edx, 1
  === BLOCK LINK ===
    0x21a7
=== CODE BLOCK END ===

=== CODE BLOCK ADDRESS 0x21a7 ===
  0x21a7	dec    	eax
  0x21a8	lea    	ecx, [esp + 0x58]
  0x21ac	dec    	eax
  0x21ad	call   	dword ptr [0xf95]
  === BLOCK LINK ===
    0x21b3
=== CODE BLOCK END ===

=== CODE BLOCK ADDRESS 0x21b3 ===
  0x21b3	nop    	dword ptr [eax + eax]
  0x21b8	call   	0x1f10
  === BLOCK LINK ===
    0x21bd
=== CODE BLOCK END ===

=== CODE BLOCK ADDRESS 0x21bd ===
  0x21bd	dec    	eax
  0x21be	mov    	esi, eax
  0x21c0	dec    	eax
  0x21c1	test   	eax, eax
  0x21c3	je     	0x2438
  === BLOCK LINK ===
    0x21c9
=== CODE BLOCK END ===

=== CODE BLOCK ADDRESS 0x21c9 ===
  0x21c9	inc    	ebp
  0x21ca	xor    	ecx, ecx
  0x21cc	dec    	eax
  0x21cd	lea    	ecx, [esp + 0x58]
  0x21d1	dec    	esp
  === BLOCK LINK ===
    0x21d2
=== CODE BLOCK END ===

=== CODE BLOCK ADDRESS 0x21d2 ===
  0x21d2	mov    	eax, eax
  0x21d4	inc    	ecx
  0x21d5	lea    	edx, [ecx + 1]
  0x21d8	dec    	eax
  0x21d9	call   	dword ptr [0xf91]
  === BLOCK LINK ===
    0x21df
=== CODE BLOCK END ===

=== CODE BLOCK ADDRESS 0x21df ===
  0x21df	nop    	dword ptr [eax + eax]
  0x21e4	test   	eax, eax
  0x21e6	je     	0x2429
  === BLOCK LINK ===
    0x21ec
=== CODE BLOCK END ===

=== CODE BLOCK ADDRESS 0x21ec ===
  0x21ec	dec    	eax
  0x21ed	lea    	eax, [esp + 0x58]
  0x21f1	mov    	dword ptr [esp + 0x40], 0x18
  0x21f9	dec    	eax
  0x21fa	mov    	dword ptr [esp + 0x48], eax
  === BLOCK LINK ===
    0x21fe
=== CODE BLOCK END ===

=== CODE BLOCK ADDRESS 0x21fe ===
  0x21fe	mov    	dword ptr [esp + 0x50], 1
  0x2206	dec    	eax
  0x2207	mov    	ecx, dword ptr [0x242b]
  0x220d	xor    	edx, edx
  0x220f	dec    	eax
  === BLOCK LINK ===
    0x2210
=== CODE BLOCK END ===

=== CODE BLOCK ADDRESS 0x2210 ===
  0x2210	call   	dword ptr [0xf9a]
  === BLOCK LINK ===
    0x2216
=== CODE BLOCK END ===

=== CODE BLOCK ADDRESS 0x2216 ===
  0x2216	nop    	dword ptr [eax + eax]
  0x221b	test   	eax, eax
  0x221d	je     	0x2429
  === BLOCK LINK ===
    0x2223
=== CODE BLOCK END ===

=== CODE BLOCK ADDRESS 0x2223 ===
  0x2223	dec    	eax
  0x2224	lea    	eax, [esp + 0x40]
  0x2228	mov    	edx, 0x40000003
  0x222d	dec    	eax
  0x222e	mov    	dword ptr [esp + 0x38], eax
  === BLOCK LINK ===
    0x2232
=== CODE BLOCK END ===

=== CODE BLOCK ADDRESS 0x2232 ===
  0x2232	dec    	eax
  0x2233	lea    	ecx, [0x11f7]
  0x2239	and    	dword ptr [esp + 0x30], 0
  0x223e	inc    	ecx
  0x223f	mov    	ecx, 0xff
  === BLOCK LINK ===
    0x2244
=== CODE BLOCK END ===

=== CODE BLOCK ADDRESS 0x2244 ===
  0x2244	mov    	dword ptr [esp + 0x28], 0x1088
  0x224c	inc    	ecx
  0x224d	mov    	eax, 6
  0x2252	mov    	dword ptr [esp + 0x20], 0x10880
  0x225a	dec    	eax
  === BLOCK LINK ===
    0x225b
=== CODE BLOCK END ===

=== CODE BLOCK ADDRESS 0x225b ===
  0x225b	call   	dword ptr [0xf37]
  === BLOCK LINK ===
    0x2261
=== CODE BLOCK END ===

=== CODE BLOCK ADDRESS 0x2261 ===
  0x2261	nop    	dword ptr [eax + eax]
  0x2266	dec    	eax
  0x2267	mov    	ebx, eax
  0x2269	dec    	eax
  0x226a	cmp    	eax, -1
  === BLOCK LINK ===
    0x226d
=== CODE BLOCK END ===

=== CODE BLOCK ADDRESS 0x226d ===
  0x226d	je     	0x2429
  === BLOCK LINK ===
    0x2273
=== CODE BLOCK END ===

=== CODE BLOCK ADDRESS 0x2273 ===
  0x2273	dec    	eax
  0x2274	lea    	edx, [0x2406]
  0x227a	dec    	eax
  0x227b	mov    	ecx, eax
  0x227d	dec    	eax
  === BLOCK LINK ===
    0x227e
=== CODE BLOCK END ===

=== CODE BLOCK ADDRESS 0x227e ===
  0x227e	call   	dword ptr [0xf9c]
  === BLOCK LINK ===
    0x2284
=== CODE BLOCK END ===

=== CODE BLOCK ADDRESS 0x2284 ===
  0x2284	nop    	dword ptr [eax + eax]
  0x2289	test   	eax, eax
  0x228b	jne    	0x2325
  === BLOCK LINK ===
    0x2291
=== CODE BLOCK END ===

=== CODE BLOCK ADDRESS 0x2291 ===
  0x2291	dec    	eax
  0x2292	call   	dword ptr [0xf30]
  === BLOCK LINK ===
    0x2298
=== CODE BLOCK END ===

=== CODE BLOCK ADDRESS 0x2298 ===
  0x2298	nop    	dword ptr [eax + eax]
  0x229d	cmp    	eax, 0x3e5
  0x22a2	jne    	0x22fe
  === BLOCK LINK ===
    0x22a4
=== CODE BLOCK END ===

=== CODE BLOCK ADDRESS 0x22a4 ===
  0x22a4	inc    	ecx
  0x22a5	mov    	ecx, 1
  0x22aa	dec    	esp
  0x22ab	lea    	eax, [esp + 0x98]
  0x22b2	dec    	eax
  === BLOCK LINK ===
    0x22b3
=== CODE BLOCK END ===

=== CODE BLOCK ADDRESS 0x22b3 ===
  0x22b3	lea    	edx, [0x23c7]
  0x22b9	dec    	eax
  0x22ba	mov    	ecx, ebx
  0x22bc	dec    	eax
  0x22bd	call   	dword ptr [0xf3d]
  === BLOCK LINK ===
    0x22c3
=== CODE BLOCK END ===

=== CODE BLOCK ADDRESS 0x22c3 ===
  0x22c3	nop    	dword ptr [eax + eax]
  0x22c8	dec    	eax
  0x22c9	mov    	ecx, dword ptr [0x2369]
  0x22cf	xor    	edx, edx
  0x22d1	mov    	edi, eax
  === BLOCK LINK ===
    0x22d3
=== CODE BLOCK END ===

=== CODE BLOCK ADDRESS 0x22d3 ===
  0x22d3	dec    	eax
  0x22d4	call   	dword ptr [0xed6]
  === BLOCK LINK ===
    0x22da
=== CODE BLOCK END ===

=== CODE BLOCK ADDRESS 0x22da ===
  0x22da	nop    	dword ptr [eax + eax]
  0x22df	test   	eax, eax
  0x22e1	je     	0x241a
  === BLOCK LINK ===
    0x22e7
=== CODE BLOCK END ===

=== CODE BLOCK ADDRESS 0x22e7 ===
  0x22e7	dec    	eax
  0x22e8	mov    	ecx, dword ptr [0x23aa]
  0x22ee	dec    	eax
  0x22ef	call   	dword ptr [0xf03]
  === BLOCK LINK ===
    0x22f5
=== CODE BLOCK END ===

=== CODE BLOCK ADDRESS 0x22f5 ===
  0x22f5	nop    	dword ptr [eax + eax]
  0x22fa	test   	edi, edi
  0x22fc	jne    	0x2325
  === BLOCK LINK ===
    0x22fe
=== CODE BLOCK END ===

=== CODE BLOCK ADDRESS 0x22fe ===
  0x22fe	dec    	eax
  0x22ff	call   	dword ptr [0xec3]
  === BLOCK LINK ===
    0x2305
=== CODE BLOCK END ===

=== CODE BLOCK ADDRESS 0x2305 ===
  0x2305	nop    	dword ptr [eax + eax]
  0x230a	cmp    	eax, 0x217
  0x230f	je     	0x2325
  === BLOCK LINK ===
    0x2311
=== CODE BLOCK END ===

=== CODE BLOCK ADDRESS 0x2311 ===
  0x2311	dec    	eax
  0x2312	mov    	ecx, ebx
  0x2314	dec    	eax
  0x2315	call   	dword ptr [0xecd]
  === BLOCK LINK ===
    0x231b
=== CODE BLOCK END ===

=== CODE BLOCK ADDRESS 0x231b ===
  0x231b	nop    	dword ptr [eax + eax]
  0x2320	jmp    	0x2206
  === BLOCK LINK ===
    0x2325
=== CODE BLOCK END ===

=== CODE BLOCK ADDRESS 0x2325 ===
  0x2325	mov    	edx, 0x18
  0x232a	lea    	ecx, [edx + 0x28]
  0x232d	dec    	eax
  0x232e	call   	dword ptr [0xea4]
  === BLOCK LINK ===
    0x2334
=== CODE BLOCK END ===

=== CODE BLOCK ADDRESS 0x2334 ===
  0x2334	nop    	dword ptr [eax + eax]
  0x2339	dec    	eax
  0x233a	mov    	edi, eax
  0x233c	dec    	eax
  0x233d	test   	eax, eax
  === BLOCK LINK ===
    0x233f
=== CODE BLOCK END ===

=== CODE BLOCK ADDRESS 0x233f ===
  0x233f	je     	0x240b
  === BLOCK LINK ===
    0x2345
=== CODE BLOCK END ===

=== CODE BLOCK ADDRESS 0x2345 ===
  0x2345	dec    	eax
  0x2346	lea    	ecx, [0x2394]
  0x234c	dec    	eax
  0x234d	mov    	dword ptr [eax + 0x10], ebx
  0x2350	dec    	eax
  === BLOCK LINK ===
    0x2351
=== CODE BLOCK END ===

=== CODE BLOCK ADDRESS 0x2351 ===
  0x2351	call   	dword ptr [0xe29]
  === BLOCK LINK ===
    0x2357
=== CODE BLOCK END ===

=== CODE BLOCK ADDRESS 0x2357 ===
  0x2357	nop    	dword ptr [eax + eax]
  0x235c	dec    	eax
  0x235d	mov    	edx, dword ptr [0x22b5]
  0x2363	dec    	eax
  0x2364	mov    	ecx, dword ptr [edx + 8]
  === BLOCK LINK ===
    0x2367
=== CODE BLOCK END ===

=== CODE BLOCK ADDRESS 0x2367 ===
  0x2367	dec    	eax
  0x2368	mov    	dword ptr [edi], edx
  0x236a	dec    	eax
  0x236b	mov    	dword ptr [edi + 8], ecx
  0x236e	dec    	eax
  === BLOCK LINK ===
    0x236f
=== CODE BLOCK END ===

=== CODE BLOCK ADDRESS 0x236f ===
  0x236f	mov    	dword ptr [ecx], edi
  0x2371	dec    	eax
  0x2372	mov    	dword ptr [edx + 8], edi
  0x2375	dec    	eax
  0x2376	mov    	edi, edx
  === BLOCK LINK ===
    0x2378
=== CODE BLOCK END ===

=== CODE BLOCK ADDRESS 0x2378 ===
  0x2378	dec    	eax
  0x2379	mov    	edi, dword ptr [edi]
  0x237b	dec    	eax
  0x237c	cmp    	edi, edx
  0x237e	je     	0x23f3
  === BLOCK LINK ===
    0x2380
=== CODE BLOCK END ===

=== CODE BLOCK ADDRESS 0x2380 ===
  0x2380	dec    	eax
  0x2381	test   	edi, edi
  0x2383	je     	0x23f3
  === BLOCK LINK ===
    0x2385
=== CODE BLOCK END ===

=== CODE BLOCK ADDRESS 0x2385 ===
  0x2385	dec    	eax
  0x2386	mov    	ecx, dword ptr [edi + 0x10]
  0x2389	xor    	edx, edx
  0x238b	dec    	eax
  0x238c	call   	dword ptr [0xe8e]
  === BLOCK LINK ===
    0x2392
=== CODE BLOCK END ===

=== CODE BLOCK ADDRESS 0x2392 ===
  0x2392	nop    	dword ptr [eax + eax]
  0x2397	dec    	eax
  0x2398	call   	dword ptr [0xe2a]
  === BLOCK LINK ===
    0x239e
=== CODE BLOCK END ===

=== CODE BLOCK ADDRESS 0x239e ===
  0x239e	nop    	dword ptr [eax + eax]
  0x23a3	cmp    	eax, 0x217
  0x23a8	je     	0x23ea
  === BLOCK LINK ===
    0x23aa
=== CODE BLOCK END ===

=== CODE BLOCK ADDRESS 0x23aa ===
  0x23aa	dec    	eax
  0x23ab	mov    	ecx, dword ptr [edi + 0x10]
  0x23ae	dec    	eax
  0x23af	call   	dword ptr [0xe03]
  === BLOCK LINK ===
    0x23b5
=== CODE BLOCK END ===

=== CODE BLOCK ADDRESS 0x23b5 ===
  0x23b5	nop    	dword ptr [eax + eax]
  0x23ba	dec    	eax
  0x23bb	mov    	ecx, dword ptr [edi + 0x10]
  0x23be	dec    	eax
  0x23bf	call   	dword ptr [0xe23]
  === BLOCK LINK ===
    0x23c5
=== CODE BLOCK END ===

=== CODE BLOCK ADDRESS 0x23c5 ===
  0x23c5	nop    	dword ptr [eax + eax]
  0x23ca	dec    	eax
  0x23cb	mov    	ebx, dword ptr [edi + 8]
  0x23ce	dec    	eax
  0x23cf	mov    	ecx, edi
  === BLOCK LINK ===
    0x23d1
=== CODE BLOCK END ===

=== CODE BLOCK ADDRESS 0x23d1 ===
  0x23d1	dec    	eax
  0x23d2	mov    	eax, dword ptr [edi]
  0x23d4	dec    	eax
  0x23d5	mov    	dword ptr [ebx], eax
  0x23d7	dec    	eax
  === BLOCK LINK ===
    0x23d8
=== CODE BLOCK END ===

=== CODE BLOCK ADDRESS 0x23d8 ===
  0x23d8	mov    	dword ptr [eax + 8], ebx
  0x23db	dec    	eax
  0x23dc	call   	dword ptr [0xdfe]
  === BLOCK LINK ===
    0x23e2
=== CODE BLOCK END ===

=== CODE BLOCK ADDRESS 0x23e2 ===
  0x23e2	nop    	dword ptr [eax + eax]
  0x23e7	dec    	eax
  0x23e8	mov    	edi, ebx
  0x23ea	dec    	eax
  0x23eb	mov    	edx, dword ptr [0x2227]
  === BLOCK LINK ===
    0x23f1
=== CODE BLOCK END ===

=== CODE BLOCK ADDRESS 0x23f1 ===
  0x23f1	jmp    	0x2378
  === BLOCK LINK ===
    0x23f3
=== CODE BLOCK END ===

=== CODE BLOCK ADDRESS 0x23f3 ===
  0x23f3	dec    	eax
  0x23f4	lea    	ecx, [0x22e6]
  0x23fa	dec    	eax
  0x23fb	call   	dword ptr [0xd9f]
  === BLOCK LINK ===
    0x2401
=== CODE BLOCK END ===

=== CODE BLOCK ADDRESS 0x2401 ===
  0x2401	nop    	dword ptr [eax + eax]
  0x2406	jmp    	0x2206
  === BLOCK LINK ===
    0x240b
=== CODE BLOCK END ===

=== CODE BLOCK ADDRESS 0x240b ===
  0x240b	dec    	eax
  0x240c	mov    	ecx, ebx
  0x240e	dec    	eax
  0x240f	call   	dword ptr [0xda3]
  === BLOCK LINK ===
    0x2415
=== CODE BLOCK END ===

=== CODE BLOCK ADDRESS 0x2415 ===
  0x2415	nop    	dword ptr [eax + eax]
  0x241a	dec    	eax
  0x241b	mov    	ecx, ebx
  0x241d	dec    	eax
  0x241e	call   	dword ptr [0xdc4]
  === BLOCK LINK ===
    0x2424
=== CODE BLOCK END ===

=== CODE BLOCK ADDRESS 0x2424 ===
  0x2424	nop    	dword ptr [eax + eax]
  0x2429	dec    	eax
  0x242a	mov    	ecx, esi
  0x242c	dec    	eax
  0x242d	call   	dword ptr [0xdad]
  === BLOCK LINK ===
    0x2433
=== CODE BLOCK END ===

=== CODE BLOCK ADDRESS 0x2433 ===
  0x2433	nop    	dword ptr [eax + eax]
  0x2438	dec    	esp
  0x2439	lea    	ebx, [esp + 0x80]
  0x2440	xor    	eax, eax
  0x2442	dec    	ecx
  === BLOCK LINK ===
    0x2443
=== CODE BLOCK END ===

=== CODE BLOCK ADDRESS 0x2443 ===
  0x2443	mov    	ebx, dword ptr [ebx + 0x10]
  0x2446	dec    	ecx
  0x2447	mov    	esi, dword ptr [ebx + 0x20]
  0x244a	dec    	ecx
  0x244b	mov    	esp, ebx
  === BLOCK LINK ===
    0x244d
=== CODE BLOCK END ===

=== CODE BLOCK ADDRESS 0x244d ===
  0x244d	pop    	edi
  0x244e	ret    	
  0x244f	int3   	
  0x2450	int3   	
  0x2451	int3   	
  === BLOCK LINK ===
    0x2452
=== CODE BLOCK END ===

=== CODE BLOCK ADDRESS 0x2452 ===
  0x2452	int3   	
  0x2453	int3   	
  0x2454	int3   	
  0x2455	int3   	
  0x2456	int3   	
  === BLOCK LINK ===
    0x2457
=== CODE BLOCK END ===

=== CODE BLOCK ADDRESS 0x2457 ===
  0x2457	int3   	
  0x2458	int3   	
  0x2459	int3   	
  0x245a	int3   	
  0x245b	int3   	
  === BLOCK LINK ===
    0x245c
=== CODE BLOCK END ===

=== CODE BLOCK ADDRESS 0x245c ===
  0x245c	int3   	
  0x245d	int3   	
  0x245e	int3   	
  0x245f	int3   	
  0x2460	dec    	eax
  === BLOCK LINK ===
    0x2461
=== CODE BLOCK END ===

=== CODE BLOCK ADDRESS 0x2461 ===
  0x2461	sub    	esp, 0x28
  0x2464	mov    	eax, 0x5a4d
  0x2469	cmp    	word ptr [0xffffdb90], ax
  0x2470	je     	0x2476
  === BLOCK LINK ===
    0x2472
=== CODE BLOCK END ===

=== CODE BLOCK ADDRESS 0x2472 ===
  0x2472	xor    	eax, eax
  0x2474	jmp    	0x24c9
  === BLOCK LINK ===
    0x2476
=== CODE BLOCK END ===

=== CODE BLOCK ADDRESS 0x2476 ===
  0x2476	dec    	eax
  0x2477	arpl   	word ptr [0xffffdbbf], cx
  0x247d	dec    	eax
  0x247e	lea    	eax, [0xffffdb7c]
  0x2484	dec    	eax
  === BLOCK LINK ===
    0x2485
=== CODE BLOCK END ===

=== CODE BLOCK ADDRESS 0x2485 ===
  0x2485	add    	ecx, eax
  0x2487	cmp    	dword ptr [ecx], 0x4550
  0x248d	jne    	0x2472
  === BLOCK LINK ===
    0x248f
=== CODE BLOCK END ===

=== CODE BLOCK ADDRESS 0x248f ===
  0x248f	mov    	eax, 0x10b
  0x2494	cmp    	word ptr [ecx + 0x18], ax
  0x2498	je     	0x24b8
  === BLOCK LINK ===
    0x249a
=== CODE BLOCK END ===

=== CODE BLOCK ADDRESS 0x249a ===
  0x249a	mov    	eax, 0x20b
  0x249f	cmp    	word ptr [ecx + 0x18], ax
  0x24a3	jne    	0x2472
  === BLOCK LINK ===
    0x24a5
=== CODE BLOCK END ===

=== CODE BLOCK ADDRESS 0x24a5 ===
  0x24a5	xor    	eax, eax
  0x24a7	cmp    	dword ptr [ecx + 0x84], 0xe
  0x24ae	jbe    	0x24c9
  === BLOCK LINK ===
    0x24b0
=== CODE BLOCK END ===

=== CODE BLOCK ADDRESS 0x24b0 ===
  0x24b0	cmp    	dword ptr [ecx + 0xf8], eax
  0x24b6	jmp    	0x24c6
  === BLOCK LINK ===
    0x24b8
=== CODE BLOCK END ===

=== CODE BLOCK ADDRESS 0x24b8 ===
  0x24b8	xor    	eax, eax
  0x24ba	cmp    	dword ptr [ecx + 0x74], 0xe
  0x24be	jbe    	0x24c9
  === BLOCK LINK ===
    0x24c0
=== CODE BLOCK END ===

=== CODE BLOCK ADDRESS 0x24c0 ===
  0x24c0	cmp    	dword ptr [ecx + 0xe8], eax
  0x24c6	setne  	al
  0x24c9	mov    	ecx, 1
  0x24ce	mov    	dword ptr [0x1bac], eax
  0x24d4	call   	0x2888
  === BLOCK LINK ===
    0x24d9
=== CODE BLOCK END ===

=== CODE BLOCK ADDRESS 0x24d9 ===
  0x24d9	mov    	ecx, eax
  0x24db	call   	dword ptr [0xe8f]
  === BLOCK LINK ===
    0x24e1
=== CODE BLOCK END ===

=== CODE BLOCK ADDRESS 0x24e1 ===
  0x24e1	dec    	eax
  0x24e2	mov    	ecx, dword ptr [0xe30]
  0x24e8	dec    	eax
  0x24e9	or     	eax, 0xffffffff
  0x24ec	dec    	eax
  === BLOCK LINK ===
    0x24ed
=== CODE BLOCK END ===

=== CODE BLOCK ADDRESS 0x24ed ===
  0x24ed	mov    	dword ptr [0x214d], eax
  0x24f3	dec    	eax
  0x24f4	mov    	dword ptr [0x214e], eax
  0x24fa	mov    	eax, dword ptr [0x1b94]
  0x2500	mov    	dword ptr [ecx], eax
  === BLOCK LINK ===
    0x2502
=== CODE BLOCK END ===

=== CODE BLOCK ADDRESS 0x2502 ===
  0x2502	dec    	eax
  0x2503	mov    	ecx, dword ptr [0xdff]
  0x2509	mov    	eax, dword ptr [0x1b79]
  0x250f	mov    	dword ptr [ecx], eax
  0x2511	call   	0x28e0
  === BLOCK LINK ===
    0x2516
=== CODE BLOCK END ===

=== CODE BLOCK ADDRESS 0x2516 ===
  0x2516	cmp    	dword ptr [0x1ae3], 0
  0x251d	jne    	0x252c
  === BLOCK LINK ===
    0x251f
=== CODE BLOCK END ===

=== CODE BLOCK ADDRESS 0x251f ===
  0x251f	dec    	eax
  0x2520	lea    	ecx, [0x3ba]
  0x2526	call   	dword ptr [0xdfc]
  === BLOCK LINK ===
    0x252c
=== CODE BLOCK END ===

=== CODE BLOCK ADDRESS 0x252c ===
  0x252c	xor    	eax, eax
  0x252e	dec    	eax
  0x252f	add    	esp, 0x28
  0x2532	ret    	
  0x2533	int3   	
  === BLOCK LINK ===
    0x2534
=== CODE BLOCK END ===

=== CODE BLOCK ADDRESS 0x2534 ===
  0x2534	int3   	
  0x2535	int3   	
  0x2536	int3   	
  0x2537	int3   	
  0x2538	int3   	
  === BLOCK LINK ===
    0x2539
=== CODE BLOCK END ===

=== CODE BLOCK ADDRESS 0x2539 ===
  0x2539	int3   	
  0x253a	int3   	
  0x253b	int3   	
  0x253c	int3   	
  0x253d	int3   	
  === BLOCK LINK ===
    0x253e
=== CODE BLOCK END ===

=== CODE BLOCK ADDRESS 0x253e ===
  0x253e	int3   	
  0x253f	int3   	
  0x2540	dec    	eax
  0x2541	sub    	esp, 0x38
  0x2544	mov    	eax, dword ptr [0x1b46]
  === BLOCK LINK ===
    0x254a
=== CODE BLOCK END ===

=== CODE BLOCK ADDRESS 0x254a ===
  0x254a	dec    	esp
  0x254b	lea    	eax, [0x1b27]
  0x2551	inc    	esp
  0x2552	mov    	ecx, dword ptr [0x1b34]
  0x2558	dec    	eax
  === BLOCK LINK ===
    0x2559
=== CODE BLOCK END ===

=== CODE BLOCK ADDRESS 0x2559 ===
  0x2559	lea    	edx, [0x1b11]
  0x255f	mov    	dword ptr [0x1b1f], eax
  0x2565	dec    	eax
  0x2566	lea    	ecx, [0x1afc]
  0x256c	dec    	eax
  === BLOCK LINK ===
    0x256d
=== CODE BLOCK END ===

=== CODE BLOCK ADDRESS 0x256d ===
  0x256d	lea    	eax, [0x1b11]
  0x2573	dec    	eax
  0x2574	mov    	dword ptr [esp + 0x20], eax
  0x2578	call   	dword ptr [0xdc2]
  === BLOCK LINK ===
    0x257e
=== CODE BLOCK END ===

=== CODE BLOCK ADDRESS 0x257e ===
  0x257e	mov    	dword ptr [0x1ae8], eax
  0x2584	dec    	eax
  0x2585	add    	esp, 0x38
  0x2588	ret    	
  0x2589	int3   	
  === BLOCK LINK ===
    0x258a
=== CODE BLOCK END ===

=== CODE BLOCK ADDRESS 0x162f ===
  0x162f	dec    	eax
  0x1630	mov    	ecx, dword ptr [0x3002]
  0x1636	dec    	eax
  0x1637	call   	dword ptr [0x1b93]
  === BLOCK LINK ===
    0x163d
=== CODE BLOCK END ===

=== CODE BLOCK ADDRESS 0x258a ===
  0x258a	int3   	
  0x258b	int3   	
  0x258c	int3   	
  0x258d	int3   	
  0x258e	int3   	
  === BLOCK LINK ===
    0x258f
=== CODE BLOCK END ===

=== CODE BLOCK ADDRESS 0x258f ===
  0x258f	int3   	
  0x2590	dec    	eax
  0x2591	mov    	dword ptr [esp + 8], ebx
  0x2595	dec    	eax
  0x2596	mov    	dword ptr [esp + 0x10], esi
  === BLOCK LINK ===
    0x259a
=== CODE BLOCK END ===

=== CODE BLOCK ADDRESS 0x259a ===
  0x259a	dec    	eax
  0x259b	mov    	dword ptr [esp + 0x18], edi
  0x259f	inc    	ecx
  0x25a0	push   	edi
  0x25a1	dec    	eax
  === BLOCK LINK ===
    0x25a2
=== CODE BLOCK END ===

=== CODE BLOCK ADDRESS 0x25a2 ===
  0x25a2	sub    	esp, 0x30
  0x25a5	dec    	eax
  0x25a7	mov    	eax, dword ptr [0x30]
  0x25ae	dec    	eax
  0x25af	mov    	ebx, dword ptr [eax + 8]
  === BLOCK LINK ===
    0x25b2
=== CODE BLOCK END ===

=== CODE BLOCK ADDRESS 0x25b2 ===
  0x25b2	xor    	esi, esi
  0x25b4	xor    	eax, eax
  0x25b6	.byte  	0xf0
  0x25b7	dec    	eax
  0x25b8	cmpxchg  	dword ptr [0x2091], ebx
  === BLOCK LINK ===
    0x25bf
=== CODE BLOCK END ===

=== CODE BLOCK ADDRESS 0x25bf ===
  0x25bf	je     	0x25dc
  === BLOCK LINK ===
    0x25c1
=== CODE BLOCK END ===

=== CODE BLOCK ADDRESS 0x25c1 ===
  0x25c1	dec    	eax
  0x25c2	cmp    	eax, ebx
  0x25c4	jne    	0x25cf
  === BLOCK LINK ===
    0x25c6
=== CODE BLOCK END ===

=== CODE BLOCK ADDRESS 0x25c6 ===
  0x25c6	mov    	ebx, 1
  0x25cb	mov    	esi, ebx
  0x25cd	jmp    	0x25e1
  === BLOCK LINK ===
    0x25cf
=== CODE BLOCK END ===

=== CODE BLOCK ADDRESS 0x25cf ===
  0x25cf	mov    	ecx, 0x3e8
  0x25d4	call   	dword ptr [0xcae]
  === BLOCK LINK ===
    0x25da
=== CODE BLOCK END ===

=== CODE BLOCK ADDRESS 0x25da ===
  0x25da	jmp    	0x25b4
  === BLOCK LINK ===
    0x25dc
=== CODE BLOCK END ===

=== CODE BLOCK ADDRESS 0x25dc ===
  0x25dc	mov    	ebx, 1
  0x25e1	mov    	eax, dword ptr [0x2071]
  0x25e7	cmp    	eax, ebx
  0x25e9	jne    	0x25f7
  === BLOCK LINK ===
    0x25eb
=== CODE BLOCK END ===

=== CODE BLOCK ADDRESS 0x25eb ===
  0x25eb	mov    	ecx, 0x1f
  0x25f0	call   	0x28d3
  === BLOCK LINK ===
    0x25f5
=== CODE BLOCK END ===

=== CODE BLOCK ADDRESS 0x25f5 ===
  0x25f5	jmp    	0x265c
  === BLOCK LINK ===
    0x25f7
=== CODE BLOCK END ===

=== CODE BLOCK ADDRESS 0x25f7 ===
  0x25f7	mov    	eax, dword ptr [0x205b]
  0x25fd	test   	eax, eax
  0x25ff	jne    	0x2656
  === BLOCK LINK ===
    0x2601
=== CODE BLOCK END ===

=== CODE BLOCK ADDRESS 0x2601 ===
  0x2601	mov    	dword ptr [0x2051], ebx
  0x2607	dec    	esp
  0x2608	lea    	edi, [0xdb2]
  0x260e	dec    	eax
  0x260f	lea    	edi, [0xd93]
  === BLOCK LINK ===
    0x2615
=== CODE BLOCK END ===

=== CODE BLOCK ADDRESS 0x2615 ===
  0x2615	dec    	eax
  0x2616	mov    	dword ptr [esp + 0x28], edi
  0x261a	mov    	dword ptr [esp + 0x20], eax
  0x261e	dec    	ecx
  0x261f	cmp    	edi, edi
  === BLOCK LINK ===
    0x2621
=== CODE BLOCK END ===

=== CODE BLOCK ADDRESS 0x2621 ===
  0x2621	jae    	0x2648
  === BLOCK LINK ===
    0x2623
=== CODE BLOCK END ===

=== CODE BLOCK ADDRESS 0x2623 ===
  0x2623	test   	eax, eax
  0x2625	jne    	0x264c
  === BLOCK LINK ===
    0x2627
=== CODE BLOCK END ===

=== CODE BLOCK ADDRESS 0x2627 ===
  0x2627	dec    	eax
  0x2628	cmp    	dword ptr [edi], 0
  0x262b	je     	0x263d
  === BLOCK LINK ===
    0x262d
=== CODE BLOCK END ===

=== CODE BLOCK ADDRESS 0x262d ===
  0x262d	dec    	eax
  0x262e	mov    	eax, dword ptr [edi]
  0x2630	dec    	eax
  0x2631	mov    	ecx, dword ptr [0xd51]
  0x2637	call   	ecx
  === BLOCK LINK ===
    0x2639
=== CODE BLOCK END ===

=== CODE BLOCK ADDRESS 0x2639 ===
  0x2639	mov    	dword ptr [esp + 0x20], eax
  0x263d	dec    	eax
  0x263e	add    	edi, 8
  0x2641	dec    	eax
  0x2642	mov    	dword ptr [esp + 0x28], edi
  === BLOCK LINK ===
    0x2646
=== CODE BLOCK END ===

=== CODE BLOCK ADDRESS 0x2646 ===
  0x2646	jmp    	0x261e
  === BLOCK LINK ===
    0x2648
=== CODE BLOCK END ===

=== CODE BLOCK ADDRESS 0x2648 ===
  0x2648	test   	eax, eax
  0x264a	je     	0x265c
  === BLOCK LINK ===
    0x264c
=== CODE BLOCK END ===

=== CODE BLOCK ADDRESS 0x264c ===
  0x264c	mov    	eax, 0xff
  0x2651	jmp    	0x2738
  === BLOCK LINK ===
    0x2656
=== CODE BLOCK END ===

=== CODE BLOCK ADDRESS 0x2656 ===
  0x2656	mov    	dword ptr [0x1a08], ebx
  0x265c	mov    	eax, dword ptr [0x1ff6]
  0x2662	cmp    	eax, ebx
  0x2664	jne    	0x2683
  === BLOCK LINK ===
    0x2666
=== CODE BLOCK END ===

=== CODE BLOCK ADDRESS 0x2666 ===
  0x2666	dec    	eax
  0x2667	lea    	edx, [0xd33]
  0x266d	dec    	eax
  0x266e	lea    	ecx, [0xd1c]
  0x2674	call   	0x2aae
  === BLOCK LINK ===
    0x2679
=== CODE BLOCK END ===

=== CODE BLOCK ADDRESS 0x2679 ===
  0x2679	mov    	dword ptr [0x1fd5], 2
  0x2683	test   	esi, esi
  0x2685	jne    	0x2690
  === BLOCK LINK ===
    0x2687
=== CODE BLOCK END ===

=== CODE BLOCK ADDRESS 0x2687 ===
  0x2687	xor    	eax, eax
  0x2689	dec    	eax
  0x268a	xchg   	dword ptr [0x1fc0], eax
  0x2690	dec    	eax
  0x2691	cmp    	dword ptr [0x1fc8], 0
  === BLOCK LINK ===
    0x2698
=== CODE BLOCK END ===

=== CODE BLOCK ADDRESS 0x2698 ===
  0x2698	je     	0x26c4
  === BLOCK LINK ===
    0x269a
=== CODE BLOCK END ===

=== CODE BLOCK ADDRESS 0x269a ===
  0x269a	dec    	eax
  0x269b	lea    	ecx, [0x1fbf]
  0x26a1	call   	0x2940
  === BLOCK LINK ===
    0x26a6
=== CODE BLOCK END ===

=== CODE BLOCK ADDRESS 0x26a6 ===
  0x26a6	test   	eax, eax
  0x26a8	je     	0x26c4
  === BLOCK LINK ===
    0x26aa
=== CODE BLOCK END ===

=== CODE BLOCK ADDRESS 0x26aa ===
  0x26aa	inc    	ebp
  0x26ab	xor    	eax, eax
  0x26ad	inc    	ecx
  0x26ae	lea    	edx, [eax + 2]
  0x26b1	xor    	ecx, ecx
  === BLOCK LINK ===
    0x26b3
=== CODE BLOCK END ===

=== CODE BLOCK ADDRESS 0x26b3 ===
  0x26b3	dec    	eax
  0x26b4	mov    	eax, dword ptr [0x1fa6]
  0x26ba	dec    	esp
  0x26bb	mov    	ecx, dword ptr [0xcc7]
  0x26c1	inc    	ecx
  === BLOCK LINK ===
    0x26c2
=== CODE BLOCK END ===

=== CODE BLOCK ADDRESS 0x26c2 ===
  0x26c2	call   	ecx
  === BLOCK LINK ===
    0x26c4
=== CODE BLOCK END ===

=== CODE BLOCK ADDRESS 0x26c4 ===
  0x26c4	dec    	esp
  0x26c5	mov    	eax, dword ptr [0x19ad]
  0x26cb	dec    	eax
  0x26cc	mov    	edx, dword ptr [0x199e]
  0x26d2	mov    	ecx, dword ptr [0x1990]
  === BLOCK LINK ===
    0x26d8
=== CODE BLOCK END ===

=== CODE BLOCK ADDRESS 0x26d8 ===
  0x26d8	call   	0x19b0
  === BLOCK LINK ===
    0x26dd
=== CODE BLOCK END ===

=== CODE BLOCK ADDRESS 0x26dd ===
  0x26dd	mov    	dword ptr [0x197d], eax
  0x26e3	cmp    	dword ptr [0x1996], 0
  0x26ea	jne    	0x26f4
  === BLOCK LINK ===
    0x26ec
=== CODE BLOCK END ===

=== CODE BLOCK ADDRESS 0x26ec ===
  0x26ec	mov    	ecx, eax
  0x26ee	call   	dword ptr [0xc6c]
  === BLOCK LINK ===
    0x26f4
=== CODE BLOCK END ===

=== CODE BLOCK ADDRESS 0x26f4 ===
  0x26f4	cmp    	dword ptr [0x1969], 0
  0x26fb	jne    	0x2709
  === BLOCK LINK ===
    0x26fd
=== CODE BLOCK END ===

=== CODE BLOCK ADDRESS 0x26fd ===
  0x26fd	call   	dword ptr [0xc2d]
  === BLOCK LINK ===
    0x2703
=== CODE BLOCK END ===

=== CODE BLOCK ADDRESS 0x2703 ===
  0x2703	mov    	eax, dword ptr [0x1957]
  0x2709	jmp    	0x2738
  === BLOCK LINK ===
    0x270b
=== CODE BLOCK END ===

=== CODE BLOCK ADDRESS 0x270b ===
  0x270b	mov    	dword ptr [0x194f], eax
  0x2711	cmp    	dword ptr [0x1968], 0
  0x2718	jne    	0x2723
  === BLOCK LINK ===
    0x271a
=== CODE BLOCK END ===

=== CODE BLOCK ADDRESS 0x271a ===
  0x271a	mov    	ecx, eax
  0x271c	call   	dword ptr [0xc16]
  === BLOCK LINK ===
    0x2722
=== CODE BLOCK END ===

=== CODE BLOCK ADDRESS 0x2722 ===
  0x2722	int3   	
  0x2723	cmp    	dword ptr [0x193a], 0
  0x272a	jne    	0x2738
  === BLOCK LINK ===
    0x272c
=== CODE BLOCK END ===

=== CODE BLOCK ADDRESS 0x272c ===
  0x272c	call   	dword ptr [0xbfe]
  === BLOCK LINK ===
    0x2732
=== CODE BLOCK END ===

=== CODE BLOCK ADDRESS 0x2732 ===
  0x2732	mov    	eax, dword ptr [0x1928]
  0x2738	dec    	eax
  0x2739	mov    	ebx, dword ptr [esp + 0x40]
  0x273d	dec    	eax
  0x273e	mov    	esi, dword ptr [esp + 0x48]
  === BLOCK LINK ===
    0x2742
=== CODE BLOCK END ===

=== CODE BLOCK ADDRESS 0x2742 ===
  0x2742	dec    	eax
  0x2743	mov    	edi, dword ptr [esp + 0x50]
  0x2747	dec    	eax
  0x2748	add    	esp, 0x30
  0x274b	inc    	ecx
  === BLOCK LINK ===
    0x274c
=== CODE BLOCK END ===

=== CODE BLOCK ADDRESS 0x274c ===
  0x274c	pop    	edi
  0x274d	ret    	
  0x274e	int3   	
  0x274f	int3   	
  0x2750	int3   	
  === BLOCK LINK ===
    0x2751
=== CODE BLOCK END ===

=== CODE BLOCK ADDRESS 0x2751 ===
  0x2751	int3   	
  0x2752	int3   	
  0x2753	int3   	
  0x2754	int3   	
  0x2755	int3   	
  === BLOCK LINK ===
    0x2756
=== CODE BLOCK END ===

=== CODE BLOCK ADDRESS 0x2756 ===
  0x2756	int3   	
  0x2757	int3   	
  0x2758	int3   	
  0x2759	int3   	
  0x275a	int3   	
  === BLOCK LINK ===
    0x275b
=== CODE BLOCK END ===

=== CODE BLOCK ADDRESS 0x275b ===
  0x275b	int3   	
  0x275c	int3   	
  0x275d	int3   	
  0x275e	int3   	
  0x275f	int3   	
  === BLOCK LINK ===
    0x2760
=== CODE BLOCK END ===

=== CODE BLOCK ADDRESS 0x2760 ===
  0x2760	dec    	eax
  0x2761	sub    	esp, 0x28
  0x2764	call   	0x29d4
  === BLOCK LINK ===
    0x2769
=== CODE BLOCK END ===

=== CODE BLOCK ADDRESS 0x2769 ===
  0x2769	dec    	eax
  0x276a	add    	esp, 0x28
  0x276d	jmp    	0x2590
  === BLOCK LINK ===
    0x2772
=== CODE BLOCK END ===

=== CODE BLOCK ADDRESS 0x2772 ===
  0x2772	int3   	
  0x2773	int3   	
  0x2774	int3   	
  0x2775	int3   	
  0x2776	int3   	
  === BLOCK LINK ===
    0x2777
=== CODE BLOCK END ===

=== CODE BLOCK ADDRESS 0x2777 ===
  0x2777	int3   	
  0x2778	jmp    	dword ptr [0xbea]
  === BLOCK LINK ===
    0x277e
=== CODE BLOCK END ===

=== CODE BLOCK ADDRESS 0x277e ===
  0x277e	int3   	
  0x277f	int3   	
  0x2780	int3   	
  0x2781	int3   	
  0x2782	int3   	
  === BLOCK LINK ===
    0x2783
=== CODE BLOCK END ===

=== CODE BLOCK ADDRESS 0x2783 ===
  0x2783	int3   	
  0x2784	int3   	
  0x2785	int3   	
  0x2786	nop    	word ptr [eax + eax]
  0x2790	dec    	eax
  === BLOCK LINK ===
    0x2791
=== CODE BLOCK END ===

=== CODE BLOCK ADDRESS 0x2791 ===
  0x2791	cmp    	ecx, dword ptr [0x1871]
  0x2797	jne    	0x27a9
  === BLOCK LINK ===
    0x2799
=== CODE BLOCK END ===

=== CODE BLOCK ADDRESS 0x2799 ===
  0x2799	dec    	eax
  0x279a	rol    	ecx, 0x10
  0x279d	test   	cx, 0xffff
  0x27a2	jne    	0x27a5
  === BLOCK LINK ===
    0x27a4
=== CODE BLOCK END ===

=== CODE BLOCK ADDRESS 0x27a4 ===
  0x27a4	ret    	
  0x27a5	dec    	eax
  0x27a6	ror    	ecx, 0x10
  0x27a9	jmp    	0x2b10
  === BLOCK LINK ===
    0x27ae
=== CODE BLOCK END ===

=== CODE BLOCK ADDRESS 0x27ae ===
  0x27ae	int3   	
  0x27af	int3   	
  0x27b0	int3   	
  0x27b1	int3   	
  0x27b2	int3   	
  === BLOCK LINK ===
    0x27b3
=== CODE BLOCK END ===

=== CODE BLOCK ADDRESS 0x27b3 ===
  0x27b3	int3   	
  0x27b4	int3   	
  0x27b5	int3   	
  0x27b6	int3   	
  0x27b7	int3   	
  === BLOCK LINK ===
    0x27b8
=== CODE BLOCK END ===

=== CODE BLOCK ADDRESS 0x27b8 ===
  0x27b8	int3   	
  0x27b9	int3   	
  0x27ba	int3   	
  0x27bb	int3   	
  0x27bc	int3   	
  === BLOCK LINK ===
    0x27bd
=== CODE BLOCK END ===

=== CODE BLOCK ADDRESS 0x27bd ===
  0x27bd	int3   	
  0x27be	int3   	
  0x27bf	int3   	
  0x27c0	dec    	eax
  0x27c1	sub    	esp, 0x28
  === BLOCK LINK ===
    0x27c4
=== CODE BLOCK END ===

=== CODE BLOCK ADDRESS 0x27c4 ===
  0x27c4	dec    	eax
  0x27c5	mov    	eax, dword ptr [ecx]
  0x27c7	cmp    	dword ptr [eax], 0xe06d7363
  0x27cd	jne    	0x27f2
  === BLOCK LINK ===
    0x27cf
=== CODE BLOCK END ===

=== CODE BLOCK ADDRESS 0x27cf ===
  0x27cf	cmp    	dword ptr [eax + 0x18], 4
  0x27d3	jne    	0x27f2
  === BLOCK LINK ===
    0x27d5
=== CODE BLOCK END ===

=== CODE BLOCK ADDRESS 0x27d5 ===
  0x27d5	mov    	ecx, dword ptr [eax + 0x20]
  0x27d8	lea    	eax, [ecx - 0x19930520]
  0x27de	cmp    	eax, 2
  0x27e1	jbe    	0x27eb
  === BLOCK LINK ===
    0x27e3
=== CODE BLOCK END ===

=== CODE BLOCK ADDRESS 0x27e3 ===
  0x27e3	cmp    	ecx, 0x1994000
  0x27e9	jne    	0x27f2
  === BLOCK LINK ===
    0x27eb
=== CODE BLOCK END ===

=== CODE BLOCK ADDRESS 0x27eb ===
  0x27eb	call   	dword ptr [0xb1f]
  === BLOCK LINK ===
    0x27f1
=== CODE BLOCK END ===

=== CODE BLOCK ADDRESS 0x27f1 ===
  0x27f1	int3   	
  0x27f2	xor    	eax, eax
  0x27f4	dec    	eax
  0x27f5	add    	esp, 0x28
  0x27f8	ret    	
  === BLOCK LINK ===
    0x27f9
=== CODE BLOCK END ===

=== CODE BLOCK ADDRESS 0x13db ===
  0x13db	inc    	ebp
  0x13dc	xor    	eax, eax
  0x13de	inc    	ecx
  0x13df	mov    	edx, esi
  === BLOCK LINK ===
    0x13e1
=== CODE BLOCK END ===

=== CODE BLOCK ADDRESS 0x27f9 ===
  0x27f9	int3   	
  0x27fa	int3   	
  0x27fb	int3   	
  0x27fc	int3   	
  0x27fd	int3   	
  === BLOCK LINK ===
    0x27fe
=== CODE BLOCK END ===

=== CODE BLOCK ADDRESS 0x27fe ===
  0x27fe	int3   	
  0x27ff	int3   	
  0x2800	dec    	eax
  0x2801	sub    	esp, 0x28
  0x2804	dec    	eax
  === BLOCK LINK ===
    0x2805
=== CODE BLOCK END ===

=== CODE BLOCK ADDRESS 0x2805 ===
  0x2805	lea    	ecx, [0xffffffb5]
  0x280b	call   	dword ptr [0xa6f]
  === BLOCK LINK ===
    0x2811
=== CODE BLOCK END ===

=== CODE BLOCK ADDRESS 0x2811 ===
  0x2811	xor    	eax, eax
  0x2813	dec    	eax
  0x2814	add    	esp, 0x28
  0x2817	ret    	
  0x2818	int3   	
  === BLOCK LINK ===
    0x2819
=== CODE BLOCK END ===

=== CODE BLOCK ADDRESS 0x2819 ===
  0x2819	int3   	
  0x281a	int3   	
  0x281b	int3   	
  0x281c	int3   	
  0x281d	int3   	
  === BLOCK LINK ===
    0x281e
=== CODE BLOCK END ===

=== CODE BLOCK ADDRESS 0x281e ===
  0x281e	jmp    	dword ptr [0xb2c]
  === BLOCK LINK ===
    0x2824
=== CODE BLOCK END ===

=== CODE BLOCK ADDRESS 0x2824 ===
  0x2824	int3   	
  0x2825	int3   	
  0x2826	int3   	
  0x2827	int3   	
  0x2828	int3   	
  === BLOCK LINK ===
    0x2829
=== CODE BLOCK END ===

=== CODE BLOCK ADDRESS 0x2829 ===
  0x2829	int3   	
  0x282a	int3   	
  0x282b	int3   	
  0x282c	dec    	eax
  0x282d	sub    	esp, 0x18
  === BLOCK LINK ===
    0x2830
=== CODE BLOCK END ===

=== CODE BLOCK ADDRESS 0x2830 ===
  0x2830	xor    	edx, edx
  0x2832	dec    	eax
  0x2833	lea    	eax, [ecx - 1]
  0x2836	dec    	eax
  0x2837	cmp    	eax, -3
  === BLOCK LINK ===
    0x283a
=== CODE BLOCK END ===

=== CODE BLOCK ADDRESS 0x283a ===
  0x283a	ja     	0x2878
  === BLOCK LINK ===
    0x283c
=== CODE BLOCK END ===

=== CODE BLOCK ADDRESS 0x283c ===
  0x283c	mov    	eax, 0x5a4d
  0x2841	cmp    	word ptr [ecx], ax
  0x2844	jne    	0x2870
  === BLOCK LINK ===
    0x2846
=== CODE BLOCK END ===

=== CODE BLOCK ADDRESS 0x2846 ===
  0x2846	cmp    	dword ptr [ecx + 0x3c], edx
  0x2849	jl     	0x2870
  === BLOCK LINK ===
    0x284b
=== CODE BLOCK END ===

=== CODE BLOCK ADDRESS 0x284b ===
  0x284b	cmp    	dword ptr [ecx + 0x3c], 0x10000000
  0x2852	jae    	0x2870
  === BLOCK LINK ===
    0x2854
=== CODE BLOCK END ===

=== CODE BLOCK ADDRESS 0x2854 ===
  0x2854	dec    	eax
  0x2855	arpl   	word ptr [ecx + 0x3c], ax
  0x2858	dec    	eax
  0x2859	add    	eax, ecx
  0x285b	dec    	eax
  === BLOCK LINK ===
    0x285c
=== CODE BLOCK END ===

=== CODE BLOCK ADDRESS 0x285c ===
  0x285c	mov    	dword ptr [esp], eax
  0x285f	cmp    	dword ptr [eax], 0x4550
  0x2865	dec    	eax
  0x2866	cmovne  	eax, edx
  0x2869	dec    	eax
  === BLOCK LINK ===
    0x286a
=== CODE BLOCK END ===

=== CODE BLOCK ADDRESS 0x286a ===
  0x286a	mov    	edx, eax
  0x286c	dec    	eax
  0x286d	mov    	dword ptr [esp], eax
  0x2870	jmp    	0x2878
  === BLOCK LINK ===
    0x2872
=== CODE BLOCK END ===

=== CODE BLOCK ADDRESS 0x2872 ===
  0x2872	xor    	edx, edx
  0x2874	dec    	eax
  0x2875	mov    	dword ptr [esp], edx
  0x2878	dec    	eax
  0x2879	mov    	eax, edx
  === BLOCK LINK ===
    0x287b
=== CODE BLOCK END ===

=== CODE BLOCK ADDRESS 0x287b ===
  0x287b	dec    	eax
  0x287c	add    	esp, 0x18
  0x287f	ret    	
  0x2880	int3   	
  0x2881	int3   	
  === BLOCK LINK ===
    0x2882
=== CODE BLOCK END ===

=== CODE BLOCK ADDRESS 0x2882 ===
  0x2882	int3   	
  0x2883	int3   	
  0x2884	int3   	
  0x2885	int3   	
  0x2886	int3   	
  === BLOCK LINK ===
    0x2887
=== CODE BLOCK END ===

=== CODE BLOCK ADDRESS 0x2887 ===
  0x2887	int3   	
  0x2888	inc    	eax
  0x2889	push   	ebx
  0x288a	dec    	eax
  0x288b	sub    	esp, 0x20
  === BLOCK LINK ===
    0x288e
=== CODE BLOCK END ===

=== CODE BLOCK ADDRESS 0x288e ===
  0x288e	mov    	ebx, ecx
  0x2890	xor    	ecx, ecx
  0x2892	call   	dword ptr [0x9e0]
  === BLOCK LINK ===
    0x2898
=== CODE BLOCK END ===

=== CODE BLOCK ADDRESS 0x2898 ===
  0x2898	dec    	eax
  0x2899	test   	eax, eax
  0x289b	je     	0x28c5
  === BLOCK LINK ===
    0x289d
=== CODE BLOCK END ===

=== CODE BLOCK ADDRESS 0x289d ===
  0x289d	dec    	eax
  0x289e	mov    	ecx, eax
  0x28a0	call   	0x282c
  === BLOCK LINK ===
    0x28a5
=== CODE BLOCK END ===

=== CODE BLOCK ADDRESS 0x28a5 ===
  0x28a5	dec    	eax
  0x28a6	test   	eax, eax
  0x28a8	je     	0x28c5
  === BLOCK LINK ===
    0x28aa
=== CODE BLOCK END ===

=== CODE BLOCK ADDRESS 0x28aa ===
  0x28aa	mov    	ecx, 2
  0x28af	cmp    	word ptr [eax + 0x5c], cx
  0x28b3	jne    	0x28b9
  === BLOCK LINK ===
    0x28b5
=== CODE BLOCK END ===

=== CODE BLOCK ADDRESS 0x28b5 ===
  0x28b5	mov    	eax, ecx
  0x28b7	jmp    	0x28c7
  === BLOCK LINK ===
    0x28b9
=== CODE BLOCK END ===

=== CODE BLOCK ADDRESS 0x28b9 ===
  0x28b9	cmp    	word ptr [eax + 0x5c], 3
  0x28be	mov    	eax, 1
  0x28c3	je     	0x28c7
  === BLOCK LINK ===
    0x28c5
=== CODE BLOCK END ===

=== CODE BLOCK ADDRESS 0x28c5 ===
  0x28c5	mov    	eax, ebx
  0x28c7	dec    	eax
  0x28c8	add    	esp, 0x20
  0x28cb	pop    	ebx
  0x28cc	ret    	
  === BLOCK LINK ===
    0x28cd
=== CODE BLOCK END ===

=== CODE BLOCK ADDRESS 0x13ca ===
  0x13ca	dec    	eax
  0x13cb	mov    	ecx, dword ptr [esp + 0x38]
  === BLOCK LINK ===
    0x13cf
=== CODE BLOCK END ===

=== CODE BLOCK ADDRESS 0x28cd ===
  0x28cd	int3   	
  0x28ce	int3   	
  0x28cf	int3   	
  0x28d0	int3   	
  0x28d1	int3   	
  === BLOCK LINK ===
    0x28d2
=== CODE BLOCK END ===

=== CODE BLOCK ADDRESS 0x28d2 ===
  0x28d2	int3   	
  0x28d3	jmp    	dword ptr [0xa6f]
  === BLOCK LINK ===
    0x28d9
=== CODE BLOCK END ===

=== CODE BLOCK ADDRESS 0x28d9 ===
  0x28d9	int3   	
  0x28da	int3   	
  0x28db	int3   	
  0x28dc	int3   	
  0x28dd	int3   	
  === BLOCK LINK ===
    0x28de
=== CODE BLOCK END ===

=== CODE BLOCK ADDRESS 0x28de ===
  0x28de	int3   	
  0x28df	int3   	
  0x28e0	xor    	eax, eax
  0x28e2	ret    	
  0x28e3	int3   	
  === BLOCK LINK ===
    0x28e4
=== CODE BLOCK END ===

=== CODE BLOCK ADDRESS 0x28e4 ===
  0x28e4	int3   	
  0x28e5	int3   	
  0x28e6	int3   	
  0x28e7	int3   	
  0x28e8	int3   	
  === BLOCK LINK ===
    0x28e9
=== CODE BLOCK END ===

=== CODE BLOCK ADDRESS 0x28e9 ===
  0x28e9	int3   	
  0x28ea	int3   	
  0x28eb	int3   	
  0x28ec	int3   	
  0x28ed	int3   	
  === BLOCK LINK ===
    0x28ee
=== CODE BLOCK END ===

=== CODE BLOCK ADDRESS 0x28ee ===
  0x28ee	int3   	
  0x28ef	int3   	
  0x28f0	dec    	esp
  0x28f1	arpl   	word ptr [ecx + 0x3c], ax
  0x28f4	inc    	ebp
  === BLOCK LINK ===
    0x28f5
=== CODE BLOCK END ===

=== CODE BLOCK ADDRESS 0x28f5 ===
  0x28f5	xor    	ecx, ecx
  0x28f7	dec    	esp
  0x28f8	add    	eax, ecx
  0x28fa	dec    	esp
  0x28fb	mov    	edx, edx
  === BLOCK LINK ===
    0x28fd
=== CODE BLOCK END ===

=== CODE BLOCK ADDRESS 0x28fd ===
  0x28fd	inc    	ecx
  0x28fe	movzx  	eax, word ptr [eax + 0x14]
  0x2902	inc    	ebp
  0x2903	movzx  	ebx, word ptr [eax + 6]
  0x2907	dec    	eax
  === BLOCK LINK ===
    0x2908
=== CODE BLOCK END ===

=== CODE BLOCK ADDRESS 0x2908 ===
  0x2908	add    	eax, 0x18
  0x290b	dec    	ecx
  0x290c	add    	eax, eax
  0x290e	inc    	ebp
  0x290f	test   	ebx, ebx
  === BLOCK LINK ===
    0x2911
=== CODE BLOCK END ===

=== CODE BLOCK ADDRESS 0x2911 ===
  0x2911	je     	0x2931
  === BLOCK LINK ===
    0x2913
=== CODE BLOCK END ===

=== CODE BLOCK ADDRESS 0x2913 ===
  0x2913	mov    	edx, dword ptr [eax + 0xc]
  0x2916	dec    	esp
  0x2917	cmp    	edx, edx
  0x2919	jb     	0x2925
  === BLOCK LINK ===
    0x291b
=== CODE BLOCK END ===

=== CODE BLOCK ADDRESS 0x291b ===
  0x291b	mov    	ecx, dword ptr [eax + 8]
  0x291e	add    	ecx, edx
  0x2920	dec    	esp
  0x2921	cmp    	edx, ecx
  0x2923	jb     	0x2933
  === BLOCK LINK ===
    0x2925
=== CODE BLOCK END ===

=== CODE BLOCK ADDRESS 0x2925 ===
  0x2925	inc    	ecx
  0x2926	inc    	ecx
  0x2928	dec    	eax
  0x2929	add    	eax, 0x28
  0x292c	inc    	ebp
  === BLOCK LINK ===
    0x292d
=== CODE BLOCK END ===

=== CODE BLOCK ADDRESS 0x292d ===
  0x292d	cmp    	ecx, ebx
  0x292f	jb     	0x2913
  === BLOCK LINK ===
    0x2931
=== CODE BLOCK END ===

=== CODE BLOCK ADDRESS 0x2931 ===
  0x2931	xor    	eax, eax
  0x2933	ret    	
  0x2934	int3   	
  0x2935	int3   	
  0x2936	int3   	
  === BLOCK LINK ===
    0x2937
=== CODE BLOCK END ===

=== CODE BLOCK ADDRESS 0x1515 ===
  0x1515	inc    	ecx
  0x1516	mov    	eax, 0x3e8
  0x151b	inc    	ecx
  0x151c	mov    	edx, esi
  === BLOCK LINK ===
    0x151e
=== CODE BLOCK END ===

=== CODE BLOCK ADDRESS 0x2937 ===
  0x2937	int3   	
  0x2938	int3   	
  0x2939	int3   	
  0x293a	int3   	
  0x293b	int3   	
  === BLOCK LINK ===
    0x293c
=== CODE BLOCK END ===

=== CODE BLOCK ADDRESS 0x293c ===
  0x293c	int3   	
  0x293d	int3   	
  0x293e	int3   	
  0x293f	int3   	
  0x2940	dec    	eax
  === BLOCK LINK ===
    0x2941
=== CODE BLOCK END ===

=== CODE BLOCK ADDRESS 0x2941 ===
  0x2941	mov    	dword ptr [esp + 8], ebx
  0x2945	push   	edi
  0x2946	dec    	eax
  0x2947	sub    	esp, 0x20
  0x294a	dec    	eax
  === BLOCK LINK ===
    0x294b
=== CODE BLOCK END ===

=== CODE BLOCK ADDRESS 0x294b ===
  0x294b	mov    	ebx, ecx
  0x294d	dec    	eax
  0x294e	lea    	edi, [0xffffd6ac]
  0x2954	dec    	eax
  0x2955	mov    	ecx, edi
  === BLOCK LINK ===
    0x2957
=== CODE BLOCK END ===

=== CODE BLOCK ADDRESS 0x2957 ===
  0x2957	call   	0x29a0
  === BLOCK LINK ===
    0x295c
=== CODE BLOCK END ===

=== CODE BLOCK ADDRESS 0x295c ===
  0x295c	test   	eax, eax
  0x295e	je     	0x2982
  === BLOCK LINK ===
    0x2960
=== CODE BLOCK END ===

=== CODE BLOCK ADDRESS 0x2960 ===
  0x2960	dec    	eax
  0x2961	sub    	ebx, edi
  0x2963	dec    	eax
  0x2964	mov    	edx, ebx
  0x2966	dec    	eax
  === BLOCK LINK ===
    0x2967
=== CODE BLOCK END ===

=== CODE BLOCK ADDRESS 0x2967 ===
  0x2967	mov    	ecx, edi
  0x2969	call   	0x28f0
  === BLOCK LINK ===
    0x296e
=== CODE BLOCK END ===

=== CODE BLOCK ADDRESS 0x296e ===
  0x296e	dec    	eax
  0x296f	test   	eax, eax
  0x2971	je     	0x2982
  === BLOCK LINK ===
    0x2973
=== CODE BLOCK END ===

=== CODE BLOCK ADDRESS 0x2973 ===
  0x2973	mov    	eax, dword ptr [eax + 0x24]
  0x2976	shr    	eax, 0x1f
  0x2979	not    	eax
  0x297b	and    	eax, 1
  0x297e	jmp    	0x2982
  === BLOCK LINK ===
    0x2980
=== CODE BLOCK END ===

=== CODE BLOCK ADDRESS 0x2980 ===
  0x2980	xor    	eax, eax
  0x2982	dec    	eax
  0x2983	mov    	ebx, dword ptr [esp + 0x30]
  0x2987	dec    	eax
  0x2988	add    	esp, 0x20
  === BLOCK LINK ===
    0x298b
=== CODE BLOCK END ===

=== CODE BLOCK ADDRESS 0x298b ===
  0x298b	pop    	edi
  0x298c	ret    	
  0x298d	int3   	
  0x298e	int3   	
  0x298f	int3   	
  === BLOCK LINK ===
    0x2990
=== CODE BLOCK END ===

=== CODE BLOCK ADDRESS 0x2990 ===
  0x2990	int3   	
  0x2991	int3   	
  0x2992	int3   	
  0x2993	int3   	
  0x2994	int3   	
  === BLOCK LINK ===
    0x2995
=== CODE BLOCK END ===

=== CODE BLOCK ADDRESS 0x2995 ===
  0x2995	int3   	
  0x2996	int3   	
  0x2997	int3   	
  0x2998	int3   	
  0x2999	int3   	
  === BLOCK LINK ===
    0x299a
=== CODE BLOCK END ===

=== CODE BLOCK ADDRESS 0x299a ===
  0x299a	int3   	
  0x299b	int3   	
  0x299c	int3   	
  0x299d	int3   	
  0x299e	int3   	
  === BLOCK LINK ===
    0x299f
=== CODE BLOCK END ===

=== CODE BLOCK ADDRESS 0x299f ===
  0x299f	int3   	
  0x29a0	mov    	eax, 0x5a4d
  0x29a5	cmp    	word ptr [ecx], ax
  0x29a8	jne    	0x29ca
  === BLOCK LINK ===
    0x29aa
=== CODE BLOCK END ===

=== CODE BLOCK ADDRESS 0x29aa ===
  0x29aa	dec    	eax
  0x29ab	arpl   	word ptr [ecx + 0x3c], ax
  0x29ae	dec    	eax
  0x29af	add    	eax, ecx
  0x29b1	cmp    	dword ptr [eax], 0x4550
  === BLOCK LINK ===
    0x29b7
=== CODE BLOCK END ===

=== CODE BLOCK ADDRESS 0x29b7 ===
  0x29b7	jne    	0x29ca
  === BLOCK LINK ===
    0x29b9
=== CODE BLOCK END ===

=== CODE BLOCK ADDRESS 0x29b9 ===
  0x29b9	mov    	ecx, 0x20b
  0x29be	cmp    	word ptr [eax + 0x18], cx
  0x29c2	jne    	0x29ca
  === BLOCK LINK ===
    0x29c4
=== CODE BLOCK END ===

=== CODE BLOCK ADDRESS 0x29c4 ===
  0x29c4	mov    	eax, 1
  0x29c9	ret    	
  0x29ca	xor    	eax, eax
  0x29cc	ret    	
  0x29cd	int3   	
  === BLOCK LINK ===
    0x29ce
=== CODE BLOCK END ===

=== CODE BLOCK ADDRESS 0x1504 ===
  0x1504	dec    	eax
  0x1505	mov    	ecx, dword ptr [esp + 0x38]
  === BLOCK LINK ===
    0x1509
=== CODE BLOCK END ===

=== CODE BLOCK ADDRESS 0x29ce ===
  0x29ce	int3   	
  0x29cf	int3   	
  0x29d0	int3   	
  0x29d1	int3   	
  0x29d2	int3   	
  === BLOCK LINK ===
    0x29d3
=== CODE BLOCK END ===

=== CODE BLOCK ADDRESS 0x29d3 ===
  0x29d3	int3   	
  0x29d4	dec    	eax
  0x29d5	mov    	dword ptr [esp + 0x20], ebx
  0x29d9	push   	ebp
  0x29da	dec    	eax
  === BLOCK LINK ===
    0x29db
=== CODE BLOCK END ===

=== CODE BLOCK ADDRESS 0x29db ===
  0x29db	mov    	ebp, esp
  0x29dd	dec    	eax
  0x29de	sub    	esp, 0x20
  0x29e1	dec    	eax
  0x29e2	and    	dword ptr [ebp + 0x18], 0
  === BLOCK LINK ===
    0x29e6
=== CODE BLOCK END ===

=== CODE BLOCK ADDRESS 0x29e6 ===
  0x29e6	dec    	eax
  0x29e7	mov    	ebx, 0x2ddfa232
  0x29ec	cdq    	
  0x29ed	sub    	eax, dword ptr [eax]
  0x29ef	add    	byte ptr [eax - 0x75], cl
  === BLOCK LINK ===
    0x29f2
=== CODE BLOCK END ===

=== CODE BLOCK ADDRESS 0x29f2 ===
  0x29f2	add    	eax, 0x1611
  0x29f7	dec    	eax
  0x29f8	cmp    	eax, ebx
  0x29fa	jne    	0x2a93
  === BLOCK LINK ===
    0x2a00
=== CODE BLOCK END ===

=== CODE BLOCK ADDRESS 0x2a00 ===
  0x2a00	dec    	eax
  0x2a01	lea    	ecx, [ebp + 0x18]
  0x2a04	call   	dword ptr [0x846]
  === BLOCK LINK ===
    0x2a0a
=== CODE BLOCK END ===

=== CODE BLOCK ADDRESS 0x2a0a ===
  0x2a0a	dec    	eax
  0x2a0b	mov    	eax, dword ptr [ebp + 0x18]
  0x2a0e	dec    	eax
  0x2a0f	mov    	dword ptr [ebp + 0x10], eax
  0x2a12	call   	dword ptr [0x850]
  === BLOCK LINK ===
    0x2a18
=== CODE BLOCK END ===

=== CODE BLOCK ADDRESS 0x2a18 ===
  0x2a18	mov    	eax, eax
  0x2a1a	dec    	eax
  0x2a1b	xor    	dword ptr [ebp + 0x10], eax
  0x2a1e	call   	dword ptr [0x834]
  === BLOCK LINK ===
    0x2a24
=== CODE BLOCK END ===

=== CODE BLOCK ADDRESS 0x2a24 ===
  0x2a24	mov    	eax, eax
  0x2a26	dec    	eax
  0x2a27	xor    	dword ptr [ebp + 0x10], eax
  0x2a2a	call   	dword ptr [0x7e0]
  === BLOCK LINK ===
    0x2a30
=== CODE BLOCK END ===

=== CODE BLOCK ADDRESS 0x2a30 ===
  0x2a30	mov    	eax, eax
  0x2a32	dec    	eax
  0x2a33	shl    	eax, 0x18
  0x2a36	dec    	eax
  0x2a37	xor    	dword ptr [ebp + 0x10], eax
  === BLOCK LINK ===
    0x2a3a
=== CODE BLOCK END ===

=== CODE BLOCK ADDRESS 0x2a3a ===
  0x2a3a	call   	dword ptr [0x7d0]
  === BLOCK LINK ===
    0x2a40
=== CODE BLOCK END ===

=== CODE BLOCK ADDRESS 0x2a40 ===
  0x2a40	mov    	eax, eax
  0x2a42	dec    	eax
  0x2a43	lea    	ecx, [ebp + 0x10]
  0x2a46	dec    	eax
  0x2a47	xor    	eax, dword ptr [ebp + 0x10]
  === BLOCK LINK ===
    0x2a4a
=== CODE BLOCK END ===

=== CODE BLOCK ADDRESS 0x2a4a ===
  0x2a4a	dec    	eax
  0x2a4b	xor    	eax, ecx
  0x2a4d	dec    	eax
  0x2a4e	lea    	ecx, [ebp + 0x20]
  0x2a51	dec    	eax
  === BLOCK LINK ===
    0x2a52
=== CODE BLOCK END ===

=== CODE BLOCK ADDRESS 0x2a52 ===
  0x2a52	mov    	dword ptr [ebp + 0x10], eax
  0x2a55	call   	dword ptr [0x815]
  === BLOCK LINK ===
    0x2a5b
=== CODE BLOCK END ===

=== CODE BLOCK ADDRESS 0x2a5b ===
  0x2a5b	mov    	eax, dword ptr [ebp + 0x20]
  0x2a5e	dec    	eax
  0x2a5f	mov    	ecx, 0xffffffff
  0x2a64	.byte  	0xff
  0x2a65	inc    	dword ptr [eax]
  === BLOCK LINK ===
    0x2a67
=== CODE BLOCK END ===

=== CODE BLOCK ADDRESS 0x2a67 ===
  0x2a67	add    	byte ptr [eax - 0x3f], cl
  0x2a6a	loopne  	0x2a8c
  === BLOCK LINK ===
    0x2a6c
=== CODE BLOCK END ===

=== CODE BLOCK ADDRESS 0x2a6c ===
  0x2a6c	dec    	eax
  0x2a6d	xor    	eax, dword ptr [ebp + 0x20]
  0x2a70	dec    	eax
  0x2a71	xor    	eax, dword ptr [ebp + 0x10]
  0x2a74	dec    	eax
  === BLOCK LINK ===
    0x2a75
=== CODE BLOCK END ===

=== CODE BLOCK ADDRESS 0x2a75 ===
  0x2a75	and    	eax, ecx
  0x2a77	dec    	eax
  0x2a78	mov    	ecx, eax
  0x2a7a	dec    	eax
  0x2a7b	cmp    	eax, ebx
  === BLOCK LINK ===
    0x2a7d
=== CODE BLOCK END ===

=== CODE BLOCK ADDRESS 0x2a7d ===
  0x2a7d	jne    	0x2a8c
  === BLOCK LINK ===
    0x2a7f
=== CODE BLOCK END ===

=== CODE BLOCK ADDRESS 0x2a7f ===
  0x2a7f	dec    	eax
  0x2a80	mov    	eax, 0x2ddfa233
  0x2a85	cdq    	
  0x2a86	sub    	eax, dword ptr [eax]
  0x2a88	add    	byte ptr [eax - 0x75], cl
  === BLOCK LINK ===
    0x2a8b
=== CODE BLOCK END ===

=== CODE BLOCK ADDRESS 0x2a8b ===
  0x2a8b	enter  	-0x76b8, 0xd
  0x2a8f	jne    	0x2aa6
  === BLOCK LINK ===
    0x2a91
=== CODE BLOCK END ===

=== CODE BLOCK ADDRESS 0x2a91 ===
  0x2a91	add    	byte ptr [eax], al
  0x2a93	dec    	eax
  0x2a94	mov    	ebx, dword ptr [esp + 0x48]
  0x2a98	dec    	eax
  0x2a99	not    	eax
  === BLOCK LINK ===
    0x2a9b
=== CODE BLOCK END ===

=== CODE BLOCK ADDRESS 0x2a9b ===
  0x2a9b	dec    	eax
  0x2a9c	mov    	dword ptr [0x156e], eax
  0x2aa2	dec    	eax
  0x2aa3	add    	esp, 0x20
  0x2aa6	pop    	ebp
  === BLOCK LINK ===
    0x2aa7
=== CODE BLOCK END ===

=== CODE BLOCK ADDRESS 0x2aa7 ===
  0x2aa7	ret    	
  0x2aa8	int3   	
  0x2aa9	int3   	
  0x2aaa	int3   	
  0x2aab	int3   	
  === BLOCK LINK ===
    0x2aac
=== CODE BLOCK END ===

=== CODE BLOCK ADDRESS 0x2aac ===
  0x2aac	int3   	
  0x2aad	int3   	
  0x2aae	jmp    	dword ptr [0x86c]
  === BLOCK LINK ===
    0x2ab4
=== CODE BLOCK END ===

=== CODE BLOCK ADDRESS 0x2ab4 ===
  0x2ab4	int3   	
  0x2ab5	int3   	
  0x2ab6	int3   	
  0x2ab7	int3   	
  0x2ab8	int3   	
  === BLOCK LINK ===
    0x2ab9
=== CODE BLOCK END ===

=== CODE BLOCK ADDRESS 0x2ab9 ===
  0x2ab9	int3   	
  0x2aba	int3   	
  0x2abb	int3   	
  0x2abc	int3   	
  0x2abd	int3   	
  === BLOCK LINK ===
    0x2abe
=== CODE BLOCK END ===

=== CODE BLOCK ADDRESS 0x2abe ===
  0x2abe	int3   	
  0x2abf	int3   	
  0x2ac0	ret    	0
  0x2ac3	int3   	
  0x2ac4	int3   	
  === BLOCK LINK ===
    0x2ac5
=== CODE BLOCK END ===

=== CODE BLOCK ADDRESS 0x15ee ===
  0x15ee	mov    	dword ptr [0x2a3c], 4
  0x15f8	dec    	esp
  === BLOCK LINK ===
    0x15f9
=== CODE BLOCK END ===

=== CODE BLOCK ADDRESS 0x2ac5 ===
  0x2ac5	int3   	
  0x2ac6	int3   	
  0x2ac7	int3   	
  0x2ac8	int3   	
  0x2ac9	int3   	
  === BLOCK LINK ===
    0x2aca
=== CODE BLOCK END ===

=== CODE BLOCK ADDRESS 0x2aca ===
  0x2aca	int3   	
  0x2acb	int3   	
  0x2acc	inc    	eax
  0x2acd	push   	ebx
  0x2ace	dec    	eax
  === BLOCK LINK ===
    0x2acf
=== CODE BLOCK END ===

=== CODE BLOCK ADDRESS 0x2acf ===
  0x2acf	sub    	esp, 0x20
  0x2ad2	dec    	eax
  0x2ad3	mov    	ebx, ecx
  0x2ad5	xor    	ecx, ecx
  0x2ad7	call   	dword ptr [0x7a3]
  === BLOCK LINK ===
    0x2add
=== CODE BLOCK END ===

=== CODE BLOCK ADDRESS 0x2add ===
  0x2add	dec    	eax
  0x2ade	mov    	ecx, ebx
  0x2ae0	call   	dword ptr [0x74a]
  === BLOCK LINK ===
    0x2ae6
=== CODE BLOCK END ===

=== CODE BLOCK ADDRESS 0x2ae6 ===
  0x2ae6	call   	dword ptr [0x73c]
  === BLOCK LINK ===
    0x2aec
=== CODE BLOCK END ===

=== CODE BLOCK ADDRESS 0x2aec ===
  0x2aec	dec    	eax
  0x2aed	mov    	ecx, eax
  0x2aef	mov    	edx, 0xc0000409
  0x2af4	dec    	eax
  0x2af5	add    	esp, 0x20
  === BLOCK LINK ===
    0x2af8
=== CODE BLOCK END ===

=== CODE BLOCK ADDRESS 0x2af8 ===
  0x2af8	pop    	ebx
  0x2af9	dec    	eax
  0x2afa	jmp    	dword ptr [0x760]
  === BLOCK LINK ===
    0x2b00
=== CODE BLOCK END ===

=== CODE BLOCK ADDRESS 0x2b00 ===
  0x2b00	int3   	
  0x2b01	int3   	
  0x2b02	int3   	
  0x2b03	int3   	
  0x2b04	int3   	
  === BLOCK LINK ===
    0x2b05
=== CODE BLOCK END ===

=== CODE BLOCK ADDRESS 0x2b05 ===
  0x2b05	int3   	
  0x2b06	int3   	
  0x2b07	int3   	
  0x2b08	int3   	
  0x2b09	int3   	
  === BLOCK LINK ===
    0x2b0a
=== CODE BLOCK END ===

=== CODE BLOCK ADDRESS 0x2b0a ===
  0x2b0a	int3   	
  0x2b0b	int3   	
  0x2b0c	int3   	
  0x2b0d	int3   	
  0x2b0e	int3   	
  === BLOCK LINK ===
    0x2b0f
=== CODE BLOCK END ===

=== CODE BLOCK ADDRESS 0x2b0f ===
  0x2b0f	int3   	
  0x2b10	dec    	eax
  0x2b11	mov    	dword ptr [esp + 8], ecx
  0x2b15	dec    	eax
  0x2b16	sub    	esp, 0x88
  === BLOCK LINK ===
    0x2b1c
=== CODE BLOCK END ===

=== CODE BLOCK ADDRESS 0x2b1c ===
  0x2b1c	dec    	eax
  0x2b1d	lea    	ecx, [0x161d]
  0x2b23	call   	dword ptr [0x71f]
  === BLOCK LINK ===
    0x2b29
=== CODE BLOCK END ===

=== CODE BLOCK ADDRESS 0x2b29 ===
  0x2b29	dec    	eax
  0x2b2a	mov    	eax, dword ptr [0x1708]
  0x2b30	dec    	eax
  0x2b31	mov    	dword ptr [esp + 0x48], eax
  0x2b35	inc    	ebp
  === BLOCK LINK ===
    0x2b36
=== CODE BLOCK END ===

=== CODE BLOCK ADDRESS 0x2b36 ===
  0x2b36	xor    	eax, eax
  0x2b38	dec    	eax
  0x2b39	lea    	edx, [esp + 0x50]
  0x2b3d	dec    	eax
  0x2b3e	mov    	ecx, dword ptr [esp + 0x48]
  === BLOCK LINK ===
    0x2b42
=== CODE BLOCK END ===

=== CODE BLOCK ADDRESS 0x2b42 ===
  0x2b42	call   	dword ptr [0x6f8]
  === BLOCK LINK ===
    0x2b48
=== CODE BLOCK END ===

=== CODE BLOCK ADDRESS 0x2b48 ===
  0x2b48	dec    	eax
  0x2b49	mov    	dword ptr [esp + 0x40], eax
  0x2b4d	dec    	eax
  0x2b4e	cmp    	dword ptr [esp + 0x40], 0
  0x2b53	je     	0x2b97
  === BLOCK LINK ===
    0x2b55
=== CODE BLOCK END ===

=== CODE BLOCK ADDRESS 0x2b55 ===
  0x2b55	dec    	eax
  0x2b56	mov    	dword ptr [esp + 0x38], 0
  0x2b5e	dec    	eax
  0x2b5f	lea    	eax, [esp + 0x58]
  0x2b63	dec    	eax
  === BLOCK LINK ===
    0x2b64
=== CODE BLOCK END ===

=== CODE BLOCK ADDRESS 0x2b64 ===
  0x2b64	mov    	dword ptr [esp + 0x30], eax
  0x2b68	dec    	eax
  0x2b69	lea    	eax, [esp + 0x60]
  0x2b6d	dec    	eax
  0x2b6e	mov    	dword ptr [esp + 0x28], eax
  === BLOCK LINK ===
    0x2b72
=== CODE BLOCK END ===

=== CODE BLOCK ADDRESS 0x2b72 ===
  0x2b72	dec    	eax
  0x2b73	lea    	eax, [0x15c7]
  0x2b79	dec    	eax
  0x2b7a	mov    	dword ptr [esp + 0x20], eax
  0x2b7e	dec    	esp
  === BLOCK LINK ===
    0x2b7f
=== CODE BLOCK END ===

=== CODE BLOCK ADDRESS 0x2b7f ===
  0x2b7f	mov    	ecx, dword ptr [esp + 0x40]
  0x2b83	dec    	esp
  0x2b84	mov    	eax, dword ptr [esp + 0x48]
  0x2b88	dec    	eax
  0x2b89	mov    	edx, dword ptr [esp + 0x50]
  === BLOCK LINK ===
    0x2b8d
=== CODE BLOCK END ===

=== CODE BLOCK ADDRESS 0x2b8d ===
  0x2b8d	xor    	ecx, ecx
  0x2b8f	call   	dword ptr [0x6a3]
  === BLOCK LINK ===
    0x2b95
=== CODE BLOCK END ===

=== CODE BLOCK ADDRESS 0x2b95 ===
  0x2b95	jmp    	0x2bba
  === BLOCK LINK ===
    0x2b97
=== CODE BLOCK END ===

=== CODE BLOCK ADDRESS 0x2b97 ===
  0x2b97	dec    	eax
  0x2b98	mov    	eax, dword ptr [0x163a]
  0x2b9e	dec    	eax
  0x2b9f	mov    	eax, dword ptr [eax]
  0x2ba1	dec    	eax
  === BLOCK LINK ===
    0x2ba2
=== CODE BLOCK END ===

=== CODE BLOCK ADDRESS 0x2ba2 ===
  0x2ba2	mov    	dword ptr [0x1690], eax
  0x2ba8	dec    	eax
  0x2ba9	mov    	eax, dword ptr [0x1629]
  0x2baf	dec    	eax
  0x2bb0	add    	eax, 8
  === BLOCK LINK ===
    0x2bb3
=== CODE BLOCK END ===

=== CODE BLOCK ADDRESS 0x2bb3 ===
  0x2bb3	dec    	eax
  0x2bb4	mov    	dword ptr [0x161e], eax
  0x2bba	dec    	eax
  0x2bbb	mov    	eax, dword ptr [0x1677]
  0x2bc1	dec    	eax
  === BLOCK LINK ===
    0x2bc2
=== CODE BLOCK END ===

=== CODE BLOCK ADDRESS 0x2bc2 ===
  0x2bc2	mov    	dword ptr [0x14e8], eax
  0x2bc8	dec    	eax
  0x2bc9	mov    	eax, dword ptr [esp + 0x90]
  0x2bd0	dec    	eax
  0x2bd1	mov    	dword ptr [0x15e9], eax
  === BLOCK LINK ===
    0x2bd7
=== CODE BLOCK END ===

=== CODE BLOCK ADDRESS 0x2bd7 ===
  0x2bd7	mov    	dword ptr [0x14bf], 0xc0000409
  0x2be1	mov    	dword ptr [0x14b9], 1
  0x2beb	mov    	dword ptr [0x14c3], 3
  0x2bf5	mov    	eax, 8
  0x2bfa	dec    	eax
  === BLOCK LINK ===
    0x2bfb
=== CODE BLOCK END ===

=== CODE BLOCK ADDRESS 0x2bfb ===
  0x2bfb	imul   	eax, eax, 0
  0x2bfe	dec    	eax
  0x2bff	lea    	ecx, [0x14bb]
  0x2c05	dec    	eax
  0x2c06	mov    	dword ptr [ecx + eax], 2
  === BLOCK LINK ===
    0x2c0d
=== CODE BLOCK END ===

=== CODE BLOCK ADDRESS 0x2c0d ===
  0x2c0d	mov    	eax, 8
  0x2c12	dec    	eax
  0x2c13	imul   	eax, eax, 1
  0x2c16	dec    	eax
  0x2c17	lea    	ecx, [0x14a3]
  === BLOCK LINK ===
    0x2c1d
=== CODE BLOCK END ===

=== CODE BLOCK ADDRESS 0x2c1d ===
  0x2c1d	dec    	eax
  0x2c1e	mov    	edx, dword ptr [0x13e4]
  0x2c24	dec    	eax
  0x2c25	mov    	dword ptr [ecx + eax], edx
  0x2c28	mov    	eax, 8
  === BLOCK LINK ===
    0x2c2d
=== CODE BLOCK END ===

=== CODE BLOCK ADDRESS 0x2c2d ===
  0x2c2d	dec    	eax
  0x2c2e	imul   	eax, eax, 2
  0x2c31	dec    	eax
  0x2c32	lea    	ecx, [0x1488]
  0x2c38	dec    	eax
  === BLOCK LINK ===
    0x2c39
=== CODE BLOCK END ===

=== CODE BLOCK ADDRESS 0x2c39 ===
  0x2c39	mov    	edx, dword ptr [0x13d1]
  0x2c3f	dec    	eax
  0x2c40	mov    	dword ptr [ecx + eax], edx
  0x2c43	mov    	eax, 8
  0x2c48	dec    	eax
  === BLOCK LINK ===
    0x2c49
=== CODE BLOCK END ===

=== CODE BLOCK ADDRESS 0x2c49 ===
  0x2c49	imul   	eax, eax, 0
  0x2c4c	dec    	eax
  0x2c4d	mov    	ecx, dword ptr [0x13b5]
  0x2c53	dec    	eax
  0x2c54	mov    	dword ptr [esp + eax + 0x68], ecx
  === BLOCK LINK ===
    0x2c58
=== CODE BLOCK END ===

=== CODE BLOCK ADDRESS 0x2c58 ===
  0x2c58	mov    	eax, 8
  0x2c5d	dec    	eax
  0x2c5e	imul   	eax, eax, 1
  0x2c61	dec    	eax
  0x2c62	mov    	ecx, dword ptr [0x13a8]
  === BLOCK LINK ===
    0x2c68
=== CODE BLOCK END ===

=== CODE BLOCK ADDRESS 0x2c68 ===
  0x2c68	dec    	eax
  0x2c69	mov    	dword ptr [esp + eax + 0x68], ecx
  0x2c6d	dec    	eax
  0x2c6e	lea    	ecx, [0x38c]
  0x2c74	call   	0x2acc
  === BLOCK LINK ===
    0x2c79
=== CODE BLOCK END ===

=== CODE BLOCK ADDRESS 0x2c79 ===
  0x2c79	dec    	eax
  0x2c7a	add    	esp, 0x88
  0x2c80	ret    	
  0x2c81	int3   	
  0x2c82	int3   	
  === BLOCK LINK ===
    0x2c83
=== CODE BLOCK END ===

=== CODE BLOCK ADDRESS 0x2c83 ===
  0x2c83	int3   	
  0x2c84	int3   	
  0x2c85	int3   	
  0x2c86	int3   	
  0x2c87	int3   	
  === BLOCK LINK ===
    0x2c88
=== CODE BLOCK END ===

=== CODE BLOCK ADDRESS 0x2c88 ===
  0x2c88	int3   	
  0x2c89	int3   	
  0x2c8a	int3   	
  0x2c8b	int3   	
  0x2c8c	int3   	
  === BLOCK LINK ===
    0x2c8d
=== CODE BLOCK END ===

=== CODE BLOCK ADDRESS 0x2c8d ===
  0x2c8d	int3   	
  0x2c8e	int3   	
  0x2c8f	int3   	
  0x2c90	int3   	
  0x2c91	int3   	
  === BLOCK LINK ===
    0x2c92
=== CODE BLOCK END ===

=== CODE BLOCK ADDRESS 0x2c92 ===
  0x2c92	int3   	
  0x2c93	int3   	
  0x2c94	int3   	
  0x2c95	int3   	
  0x2c96	int3   	
  === BLOCK LINK ===
    0x2c97
=== CODE BLOCK END ===

=== CODE BLOCK ADDRESS 0x2c97 ===
  0x2c97	int3   	
  0x2c98	dec    	eax
  0x2c99	sub    	esp, 0x28
  0x2c9c	dec    	ebp
  0x2c9d	mov    	eax, dword ptr [ecx + 0x38]
  === BLOCK LINK ===
    0x2ca0
=== CODE BLOCK END ===

=== CODE BLOCK ADDRESS 0x2ca0 ===
  0x2ca0	dec    	eax
  0x2ca1	mov    	ecx, edx
  0x2ca3	dec    	ecx
  0x2ca4	mov    	edx, ecx
  0x2ca6	call   	0x2cbc
  === BLOCK LINK ===
    0x2cab
=== CODE BLOCK END ===

=== CODE BLOCK ADDRESS 0x2cab ===
  0x2cab	mov    	eax, 1
  0x2cb0	dec    	eax
  0x2cb1	add    	esp, 0x28
  0x2cb4	ret    	
  0x2cb5	int3   	
  === BLOCK LINK ===
    0x2cb6
=== CODE BLOCK END ===

=== CODE BLOCK ADDRESS 0x2cb6 ===
  0x2cb6	int3   	
  0x2cb7	int3   	
  0x2cb8	int3   	
  0x2cb9	int3   	
  0x2cba	int3   	
  === BLOCK LINK ===
    0x2cbb
=== CODE BLOCK END ===

=== CODE BLOCK ADDRESS 0x2cbb ===
  0x2cbb	int3   	
  0x2cbc	inc    	eax
  0x2cbd	push   	ebx
  0x2cbe	inc    	ebp
  0x2cbf	mov    	ebx, dword ptr [eax]
  === BLOCK LINK ===
    0x2cc1
=== CODE BLOCK END ===

=== CODE BLOCK ADDRESS 0x2cc1 ===
  0x2cc1	dec    	eax
  0x2cc2	mov    	ebx, edx
  0x2cc4	inc    	ecx
  0x2cc5	and    	ebx, 0xfffffff8
  0x2cc8	dec    	esp
  === BLOCK LINK ===
    0x2cc9
=== CODE BLOCK END ===

=== CODE BLOCK ADDRESS 0x2cc9 ===
  0x2cc9	mov    	ecx, ecx
  0x2ccb	inc    	ecx
  0x2ccc	test   	byte ptr [eax], 4
  0x2ccf	dec    	esp
  0x2cd0	mov    	edx, ecx
  === BLOCK LINK ===
    0x2cd2
=== CODE BLOCK END ===

=== CODE BLOCK ADDRESS 0x2cd2 ===
  0x2cd2	je     	0x2ce7
  === BLOCK LINK ===
    0x2cd4
=== CODE BLOCK END ===

=== CODE BLOCK ADDRESS 0x2cd4 ===
  0x2cd4	inc    	ecx
  0x2cd5	mov    	eax, dword ptr [eax + 8]
  0x2cd8	dec    	ebp
  0x2cd9	arpl   	word ptr [eax + 4], dx
  0x2cdc	neg    	eax
  === BLOCK LINK ===
    0x2cde
=== CODE BLOCK END ===

=== CODE BLOCK ADDRESS 0x2cde ===
  0x2cde	dec    	esp
  0x2cdf	add    	edx, ecx
  0x2ce1	dec    	eax
  0x2ce2	arpl   	ax, cx
  0x2ce4	dec    	esp
  === BLOCK LINK ===
    0x2ce5
=== CODE BLOCK END ===

=== CODE BLOCK ADDRESS 0x2ce5 ===
  0x2ce5	and    	edx, ecx
  0x2ce7	dec    	ecx
  0x2ce8	arpl   	bx, ax
  0x2cea	dec    	edx
  0x2ceb	mov    	edx, dword ptr [eax + edx]
  === BLOCK LINK ===
    0x2cee
=== CODE BLOCK END ===

=== CODE BLOCK ADDRESS 0x2cee ===
  0x2cee	dec    	eax
  0x2cef	mov    	eax, dword ptr [ebx + 0x10]
  0x2cf2	mov    	ecx, dword ptr [eax + 8]
  0x2cf5	dec    	eax
  0x2cf6	mov    	eax, dword ptr [ebx + 8]
  === BLOCK LINK ===
    0x2cf9
=== CODE BLOCK END ===

=== CODE BLOCK ADDRESS 0x2cf9 ===
  0x2cf9	test   	byte ptr [ecx + eax + 3], 0xf
  0x2cfe	je     	0x2d0b
  === BLOCK LINK ===
    0x2d00
=== CODE BLOCK END ===

=== CODE BLOCK ADDRESS 0x2d00 ===
  0x2d00	movzx  	eax, byte ptr [ecx + eax + 3]
  0x2d05	and    	eax, 0xfffffff0
  0x2d08	dec    	esp
  0x2d09	add    	ecx, eax
  0x2d0b	dec    	esp
  === BLOCK LINK ===
    0x2d0c
=== CODE BLOCK END ===

=== CODE BLOCK ADDRESS 0x2d0c ===
  0x2d0c	xor    	ecx, edx
  0x2d0e	dec    	ecx
  0x2d0f	mov    	ecx, ecx
  0x2d11	pop    	ebx
  0x2d12	jmp    	0x2790
  === BLOCK LINK ===
    0x2d17
=== CODE BLOCK END ===

=== CODE BLOCK ADDRESS 0x2d17 ===
  0x2d17	int3   	
  0x2d18	int3   	
  0x2d19	int3   	
  0x2d1a	int3   	
  0x2d1b	int3   	
  === BLOCK LINK ===
    0x2d1c
=== CODE BLOCK END ===

=== CODE BLOCK ADDRESS 0x2d1c ===
  0x2d1c	int3   	
  0x2d1d	int3   	
  0x2d1e	int3   	
  0x2d1f	int3   	
  0x2d20	dec    	eax
  === BLOCK LINK ===
    0x2d21
=== CODE BLOCK END ===

=== CODE BLOCK ADDRESS 0x2d21 ===
  0x2d21	mov    	eax, esp
  0x2d23	dec    	eax
  0x2d24	mov    	dword ptr [eax + 8], ebx
  0x2d27	dec    	eax
  0x2d28	mov    	dword ptr [eax + 0x10], ebp
  === BLOCK LINK ===
    0x2d2b
=== CODE BLOCK END ===

=== CODE BLOCK ADDRESS 0x2d2b ===
  0x2d2b	dec    	eax
  0x2d2c	mov    	dword ptr [eax + 0x18], esi
  0x2d2f	dec    	eax
  0x2d30	mov    	dword ptr [eax + 0x20], edi
  0x2d33	inc    	ecx
  === BLOCK LINK ===
    0x2d34
=== CODE BLOCK END ===

=== CODE BLOCK ADDRESS 0x2d34 ===
  0x2d34	push   	esi
  0x2d35	dec    	eax
  0x2d36	sub    	esp, 0x20
  0x2d39	dec    	ebp
  0x2d3a	mov    	edx, dword ptr [ecx + 0x38]
  === BLOCK LINK ===
    0x2d3d
=== CODE BLOCK END ===

=== CODE BLOCK ADDRESS 0x2d3d ===
  0x2d3d	dec    	eax
  0x2d3e	mov    	esi, edx
  0x2d40	dec    	ebp
  0x2d41	mov    	esi, eax
  0x2d43	dec    	eax
  === BLOCK LINK ===
    0x2d44
=== CODE BLOCK END ===

=== CODE BLOCK ADDRESS 0x2d44 ===
  0x2d44	mov    	ebp, ecx
  0x2d46	dec    	ecx
  0x2d47	mov    	edx, ecx
  0x2d49	dec    	eax
  0x2d4a	mov    	ecx, esi
  === BLOCK LINK ===
    0x2d4c
=== CODE BLOCK END ===

=== CODE BLOCK ADDRESS 0x2d4c ===
  0x2d4c	dec    	ecx
  0x2d4d	mov    	edi, ecx
  0x2d4f	inc    	ecx
  0x2d50	mov    	ebx, dword ptr [edx]
  0x2d52	dec    	eax
  === BLOCK LINK ===
    0x2d53
=== CODE BLOCK END ===

=== CODE BLOCK ADDRESS 0x2d53 ===
  0x2d53	shl    	ebx, 4
  0x2d56	dec    	ecx
  0x2d57	add    	ebx, edx
  0x2d59	dec    	esp
  0x2d5a	lea    	eax, [ebx + 4]
  === BLOCK LINK ===
    0x2d5d
=== CODE BLOCK END ===

=== CODE BLOCK ADDRESS 0x2d5d ===
  0x2d5d	call   	0x2cbc
  === BLOCK LINK ===
    0x2d62
=== CODE BLOCK END ===

=== CODE BLOCK ADDRESS 0x2d62 ===
  0x2d62	mov    	eax, dword ptr [ebp + 4]
  0x2d65	and    	al, 0x66
  0x2d67	neg    	al
  0x2d69	mov    	eax, 1
  0x2d6e	sbb    	edx, edx
  === BLOCK LINK ===
    0x2d70
=== CODE BLOCK END ===

=== CODE BLOCK ADDRESS 0x2d70 ===
  0x2d70	neg    	edx
  0x2d72	add    	edx, eax
  0x2d74	test   	dword ptr [ebx + 4], edx
  0x2d77	je     	0x2d8b
  === BLOCK LINK ===
    0x2d79
=== CODE BLOCK END ===

=== CODE BLOCK ADDRESS 0x2d79 ===
  0x2d79	dec    	esp
  0x2d7a	mov    	ecx, edi
  0x2d7c	dec    	ebp
  0x2d7d	mov    	eax, esi
  0x2d7f	dec    	eax
  === BLOCK LINK ===
    0x2d80
=== CODE BLOCK END ===

=== CODE BLOCK ADDRESS 0x2d80 ===
  0x2d80	mov    	edx, esi
  0x2d82	dec    	eax
  0x2d83	mov    	ecx, ebp
  0x2d85	call   	dword ptr [0x5dd]
  === BLOCK LINK ===
    0x2d8b
=== CODE BLOCK END ===

=== CODE BLOCK ADDRESS 0x2d8b ===
  0x2d8b	dec    	eax
  0x2d8c	mov    	ebx, dword ptr [esp + 0x30]
  0x2d90	dec    	eax
  0x2d91	mov    	ebp, dword ptr [esp + 0x38]
  0x2d95	dec    	eax
  === BLOCK LINK ===
    0x2d96
=== CODE BLOCK END ===

=== CODE BLOCK ADDRESS 0x2d96 ===
  0x2d96	mov    	esi, dword ptr [esp + 0x40]
  0x2d9a	dec    	eax
  0x2d9b	mov    	edi, dword ptr [esp + 0x48]
  0x2d9f	dec    	eax
  0x2da0	add    	esp, 0x20
  === BLOCK LINK ===
    0x2da3
=== CODE BLOCK END ===

=== CODE BLOCK ADDRESS 0x2da3 ===
  0x2da3	inc    	ecx
  0x2da4	pop    	esi
  0x2da5	ret    	
  0x2da6	int3   	
  0x2da7	int3   	
  === BLOCK LINK ===
    0x2da8
=== CODE BLOCK END ===

=== CODE BLOCK ADDRESS 0x2da8 ===
  0x2da8	int3   	
  0x2da9	int3   	
  0x2daa	int3   	
  0x2dab	int3   	
  0x2dac	int3   	
  === BLOCK LINK ===
    0x2dad
=== CODE BLOCK END ===

=== CODE BLOCK ADDRESS 0x2dad ===
  0x2dad	int3   	
  0x2dae	int3   	
  0x2daf	int3   	
  0x2db0	int3   	
  0x2db1	int3   	
  === BLOCK LINK ===
    0x2db2
=== CODE BLOCK END ===

=== CODE BLOCK ADDRESS 0x2db2 ===
  0x2db2	int3   	
  0x2db3	int3   	
  0x2db4	int3   	
  0x2db5	int3   	
  0x2db6	nop    	word ptr [eax + eax]
  === BLOCK LINK ===
    0x2dc0
=== CODE BLOCK END ===

=== CODE BLOCK ADDRESS 0x2dc0 ===
  0x2dc0	jmp    	eax
  === BLOCK LINK ===
    0x2dc2
=== CODE BLOCK END ===

=== CODE BLOCK ADDRESS 0x2dc2 ===
  0x2dc2	int3   	
  0x2dc3	int3   	
  0x2dc4	int3   	
  0x2dc5	int3   	
  0x2dc6	int3   	
  === BLOCK LINK ===
    0x2dc7
=== CODE BLOCK END ===

=== CODE BLOCK ADDRESS 0x2dc7 ===
  0x2dc7	int3   	
  0x2dc8	int3   	
  0x2dc9	int3   	
  0x2dca	int3   	
  0x2dcb	int3   	
  === BLOCK LINK ===
    0x2dcc
=== CODE BLOCK END ===

=== CODE BLOCK ADDRESS 0x2dcc ===
  0x2dcc	int3   	
  0x2dcd	int3   	
  0x2dce	int3   	
  0x2dcf	int3   	
  0x2dd0	inc    	eax
  === BLOCK LINK ===
    0x2dd1
=== CODE BLOCK END ===

=== CODE BLOCK ADDRESS 0x2dd1 ===
  0x2dd1	push   	ebp
  0x2dd2	dec    	eax
  0x2dd3	sub    	esp, 0x20
  0x2dd6	dec    	eax
  0x2dd7	mov    	ebp, edx
  === BLOCK LINK ===
    0x2dd9
=== CODE BLOCK END ===

=== CODE BLOCK ADDRESS 0x2dd9 ===
  0x2dd9	dec    	eax
  0x2dda	mov    	eax, dword ptr [ecx]
  0x2ddc	dec    	eax
  0x2ddd	mov    	edx, ecx
  0x2ddf	mov    	ecx, dword ptr [eax]
  === BLOCK LINK ===
    0x2de1
=== CODE BLOCK END ===

=== CODE BLOCK ADDRESS 0x2de1 ===
  0x2de1	call   	0x281e
  === BLOCK LINK ===
    0x2de6
=== CODE BLOCK END ===

=== CODE BLOCK ADDRESS 0x2de6 ===
  0x2de6	nop    	
  0x2de7	dec    	eax
  0x2de8	add    	esp, 0x20
  0x2deb	pop    	ebp
  0x2dec	ret    	
  === BLOCK LINK ===
    0x2ded
=== CODE BLOCK END ===

=== CODE BLOCK ADDRESS 0x16bd ===
  0x16bd	dec    	esp
  0x16be	cmp    	dword ptr [0x2f64], edi
  0x16c4	je     	0x171e
  === BLOCK LINK ===
    0x16c6
=== CODE BLOCK END ===

=== CODE BLOCK ADDRESS 0x2ded ===
  0x2ded	int3   	
  0x2dee	int3   	
  0x2def	int3   	
  0x2df0	int3   	
  0x2df1	int3   	
  === BLOCK LINK ===
    0x2df2
=== CODE BLOCK END ===

=== CODE BLOCK ADDRESS 0x2df2 ===
  0x2df2	int3   	
  0x2df3	int3   	
  0x2df4	int3   	
  0x2df5	int3   	
  0x2df6	int3   	
  === BLOCK LINK ===
    0x2df7
=== CODE BLOCK END ===

=== CODE BLOCK ADDRESS 0x2df7 ===
  0x2df7	int3   	
  0x2df8	int3   	
  0x2df9	int3   	
  0x2dfa	int3   	
  0x2dfb	int3   	
  === BLOCK LINK ===
    0x2dfc
=== CODE BLOCK END ===

=== CODE BLOCK ADDRESS 0x2dfc ===
  0x2dfc	int3   	
  0x2dfd	int3   	
  0x2dfe	int3   	
  0x2dff	int3   	
  0x2e00	inc    	eax
  === BLOCK LINK ===
    0x2e01
=== CODE BLOCK END ===

=== CODE BLOCK ADDRESS 0x2e01 ===
  0x2e01	push   	ebp
  0x2e02	dec    	eax
  0x2e03	sub    	esp, 0x20
  0x2e06	dec    	eax
  0x2e07	mov    	ebp, edx
  === BLOCK LINK ===
    0x2e09
=== CODE BLOCK END ===

=== CODE BLOCK ADDRESS 0x2e09 ===
  0x2e09	dec    	eax
  0x2e0a	mov    	eax, dword ptr [ecx]
  0x2e0c	xor    	ecx, ecx
  0x2e0e	cmp    	dword ptr [eax], 0xc0000005
  0x2e14	sete   	cl
  === BLOCK LINK ===
    0x2e17
=== CODE BLOCK END ===

=== CODE BLOCK ADDRESS 0x2e17 ===
  0x2e17	mov    	eax, ecx
  0x2e19	dec    	eax
  0x2e1a	add    	esp, 0x20
  0x2e1d	pop    	ebp
  0x2e1e	ret    	
  === BLOCK LINK ===
    0x2e1f
=== CODE BLOCK END ===

=== CODE BLOCK ADDRESS 0x171e ===
  0x171e	dec    	eax
  0x171f	mov    	ecx, dword ptr [0x292b]
  0x1725	dec    	eax
  0x1726	cmp    	ecx, -1
  === BLOCK LINK ===
    0x1729
=== CODE BLOCK END ===

=== CODE BLOCK ADDRESS 0x2e1f ===
  0x2e1f	int3   	
  0x2e20	add    	byte ptr [eax], al
  0x2e22	add    	byte ptr [eax], al
  0x2e24	add    	byte ptr [eax], al
  0x2e26	add    	byte ptr [eax], al
  === BLOCK LINK ===
    0x2e28
=== CODE BLOCK END ===

=== CODE BLOCK ADDRESS 0x2e28 ===
  0x2e28	add    	byte ptr [eax], al
  0x2e2a	add    	byte ptr [eax], al
  0x2e2c	add    	byte ptr [eax], al
  0x2e2e	add    	byte ptr [eax], al
  0x2e30	add    	byte ptr [eax], al
  === BLOCK LINK ===
    0x2e32
=== CODE BLOCK END ===

=== CODE BLOCK ADDRESS 0x2e32 ===
  0x2e32	add    	byte ptr [eax], al
  0x2e34	add    	byte ptr [eax], al
  0x2e36	add    	byte ptr [eax], al
  0x2e38	add    	byte ptr [eax], al
  0x2e3a	add    	byte ptr [eax], al
  === BLOCK LINK ===
    0x2e3c
=== CODE BLOCK END ===

=== CODE BLOCK ADDRESS 0x2e3c ===
  0x2e3c	add    	byte ptr [eax], al
  0x2e3e	add    	byte ptr [eax], al
  0x2e40	add    	byte ptr [eax], al
  0x2e42	add    	byte ptr [eax], al
  0x2e44	add    	byte ptr [eax], al
  === BLOCK LINK ===
    0x2e46
=== CODE BLOCK END ===

=== CODE BLOCK ADDRESS 0x2e46 ===
  0x2e46	add    	byte ptr [eax], al
  0x2e48	add    	byte ptr [eax], al
  0x2e4a	add    	byte ptr [eax], al
  0x2e4c	add    	byte ptr [eax], al
  0x2e4e	add    	byte ptr [eax], al
  === BLOCK LINK ===
    0x2e50
=== CODE BLOCK END ===

=== CODE BLOCK ADDRESS 0x2e50 ===
  0x2e50	add    	byte ptr [eax], al
  0x2e52	add    	byte ptr [eax], al
  0x2e54	add    	byte ptr [eax], al
  0x2e56	add    	byte ptr [eax], al
  0x2e58	add    	byte ptr [eax], al
  === BLOCK LINK ===
    0x2e5a
=== CODE BLOCK END ===

=== CODE BLOCK ADDRESS 0x2e5a ===
  0x2e5a	add    	byte ptr [eax], al
  0x2e5c	add    	byte ptr [eax], al
  0x2e5e	add    	byte ptr [eax], al
  0x2e60	add    	byte ptr [eax], al
  0x2e62	add    	byte ptr [eax], al
  === BLOCK LINK ===
    0x2e64
=== CODE BLOCK END ===

=== CODE BLOCK ADDRESS 0x2e64 ===
  0x2e64	add    	byte ptr [eax], al
  0x2e66	add    	byte ptr [eax], al
  0x2e68	add    	byte ptr [eax], al
  0x2e6a	add    	byte ptr [eax], al
  0x2e6c	add    	byte ptr [eax], al
  === BLOCK LINK ===
    0x2e6e
=== CODE BLOCK END ===

=== CODE BLOCK ADDRESS 0x2e6e ===
  0x2e6e	add    	byte ptr [eax], al
  0x2e70	add    	byte ptr [eax], al
  0x2e72	add    	byte ptr [eax], al
  0x2e74	add    	byte ptr [eax], al
  0x2e76	add    	byte ptr [eax], al
  === BLOCK LINK ===
    0x2e78
=== CODE BLOCK END ===

=== CODE BLOCK ADDRESS 0x2e78 ===
  0x2e78	add    	byte ptr [eax], al
  0x2e7a	add    	byte ptr [eax], al
  0x2e7c	add    	byte ptr [eax], al
  0x2e7e	add    	byte ptr [eax], al
  0x2e80	add    	byte ptr [eax], al
  === BLOCK LINK ===
    0x2e82
=== CODE BLOCK END ===

=== CODE BLOCK ADDRESS 0x2e82 ===
  0x2e82	add    	byte ptr [eax], al
  0x2e84	add    	byte ptr [eax], al
  0x2e86	add    	byte ptr [eax], al
  0x2e88	add    	byte ptr [eax], al
  0x2e8a	add    	byte ptr [eax], al
  === BLOCK LINK ===
    0x2e8c
=== CODE BLOCK END ===

=== CODE BLOCK ADDRESS 0x2e8c ===
  0x2e8c	add    	byte ptr [eax], al
  0x2e8e	add    	byte ptr [eax], al
  0x2e90	add    	byte ptr [eax], al
  0x2e92	add    	byte ptr [eax], al
  0x2e94	add    	byte ptr [eax], al
  === BLOCK LINK ===
    0x2e96
=== CODE BLOCK END ===

=== CODE BLOCK ADDRESS 0x2e96 ===
  0x2e96	add    	byte ptr [eax], al
  0x2e98	add    	byte ptr [eax], al
  0x2e9a	add    	byte ptr [eax], al
  0x2e9c	add    	byte ptr [eax], al
  0x2e9e	add    	byte ptr [eax], al
  === BLOCK LINK ===
    0x2ea0
=== CODE BLOCK END ===

=== CODE BLOCK ADDRESS 0x2ea0 ===
  0x2ea0	add    	byte ptr [eax], al
  0x2ea2	add    	byte ptr [eax], al
  0x2ea4	add    	byte ptr [eax], al
  0x2ea6	add    	byte ptr [eax], al
  0x2ea8	add    	byte ptr [eax], al
  === BLOCK LINK ===
    0x2eaa
=== CODE BLOCK END ===

=== CODE BLOCK ADDRESS 0x2eaa ===
  0x2eaa	add    	byte ptr [eax], al
  0x2eac	add    	byte ptr [eax], al
  0x2eae	add    	byte ptr [eax], al
  0x2eb0	add    	byte ptr [eax], al
  0x2eb2	add    	byte ptr [eax], al
  === BLOCK LINK ===
    0x2eb4
=== CODE BLOCK END ===

=== CODE BLOCK ADDRESS 0x2eb4 ===
  0x2eb4	add    	byte ptr [eax], al
  0x2eb6	add    	byte ptr [eax], al
  0x2eb8	add    	byte ptr [eax], al
  0x2eba	add    	byte ptr [eax], al
  0x2ebc	add    	byte ptr [eax], al
  === BLOCK LINK ===
    0x2ebe
=== CODE BLOCK END ===

=== CODE BLOCK ADDRESS 0x2ebe ===
  0x2ebe	add    	byte ptr [eax], al
  0x2ec0	add    	byte ptr [eax], al
  0x2ec2	add    	byte ptr [eax], al
  0x2ec4	add    	byte ptr [eax], al
  0x2ec6	add    	byte ptr [eax], al
  === BLOCK LINK ===
    0x2ec8
=== CODE BLOCK END ===

=== CODE BLOCK ADDRESS 0x2ec8 ===
  0x2ec8	add    	byte ptr [eax], al
  0x2eca	add    	byte ptr [eax], al
  0x2ecc	add    	byte ptr [eax], al
  0x2ece	add    	byte ptr [eax], al
  0x2ed0	add    	byte ptr [eax], al
  === BLOCK LINK ===
    0x2ed2
=== CODE BLOCK END ===

=== CODE BLOCK ADDRESS 0x2ed2 ===
  0x2ed2	add    	byte ptr [eax], al
  0x2ed4	add    	byte ptr [eax], al
  0x2ed6	add    	byte ptr [eax], al
  0x2ed8	add    	byte ptr [eax], al
  0x2eda	add    	byte ptr [eax], al
  === BLOCK LINK ===
    0x2edc
=== CODE BLOCK END ===

=== CODE BLOCK ADDRESS 0x2edc ===
  0x2edc	add    	byte ptr [eax], al
  0x2ede	add    	byte ptr [eax], al
  0x2ee0	add    	byte ptr [eax], al
  0x2ee2	add    	byte ptr [eax], al
  0x2ee4	add    	byte ptr [eax], al
  === BLOCK LINK ===
    0x2ee6
=== CODE BLOCK END ===

=== CODE BLOCK ADDRESS 0x2ee6 ===
  0x2ee6	add    	byte ptr [eax], al
  0x2ee8	add    	byte ptr [eax], al
  0x2eea	add    	byte ptr [eax], al
  0x2eec	add    	byte ptr [eax], al
  0x2eee	add    	byte ptr [eax], al
  === BLOCK LINK ===
    0x2ef0
=== CODE BLOCK END ===

=== CODE BLOCK ADDRESS 0x2ef0 ===
  0x2ef0	add    	byte ptr [eax], al
  0x2ef2	add    	byte ptr [eax], al
  0x2ef4	add    	byte ptr [eax], al
  0x2ef6	add    	byte ptr [eax], al
  0x2ef8	add    	byte ptr [eax], al
  === BLOCK LINK ===
    0x2efa
=== CODE BLOCK END ===

=== CODE BLOCK ADDRESS 0x2efa ===
  0x2efa	add    	byte ptr [eax], al
  0x2efc	add    	byte ptr [eax], al
  0x2efe	add    	byte ptr [eax], al
  0x2f00	add    	byte ptr [eax], al
  0x2f02	add    	byte ptr [eax], al
  === BLOCK LINK ===
    0x2f04
=== CODE BLOCK END ===

=== CODE BLOCK ADDRESS 0x2f04 ===
  0x2f04	add    	byte ptr [eax], al
  0x2f06	add    	byte ptr [eax], al
  0x2f08	add    	byte ptr [eax], al
  0x2f0a	add    	byte ptr [eax], al
  0x2f0c	add    	byte ptr [eax], al
  === BLOCK LINK ===
    0x2f0e
=== CODE BLOCK END ===

=== CODE BLOCK ADDRESS 0x2f0e ===
  0x2f0e	add    	byte ptr [eax], al
  0x2f10	add    	byte ptr [eax], al
  0x2f12	add    	byte ptr [eax], al
  0x2f14	add    	byte ptr [eax], al
  0x2f16	add    	byte ptr [eax], al
  === BLOCK LINK ===
    0x2f18
=== CODE BLOCK END ===

=== CODE BLOCK ADDRESS 0x2f18 ===
  0x2f18	add    	byte ptr [eax], al
  0x2f1a	add    	byte ptr [eax], al
  0x2f1c	add    	byte ptr [eax], al
  0x2f1e	add    	byte ptr [eax], al
  0x2f20	add    	byte ptr [eax], al
  === BLOCK LINK ===
    0x2f22
=== CODE BLOCK END ===

=== CODE BLOCK ADDRESS 0x2f22 ===
  0x2f22	add    	byte ptr [eax], al
  0x2f24	add    	byte ptr [eax], al
  0x2f26	add    	byte ptr [eax], al
  0x2f28	add    	byte ptr [eax], al
  0x2f2a	add    	byte ptr [eax], al
  === BLOCK LINK ===
    0x2f2c
=== CODE BLOCK END ===

=== CODE BLOCK ADDRESS 0x2f2c ===
  0x2f2c	add    	byte ptr [eax], al
  0x2f2e	add    	byte ptr [eax], al
  0x2f30	add    	byte ptr [eax], al
  0x2f32	add    	byte ptr [eax], al
  0x2f34	add    	byte ptr [eax], al
  === BLOCK LINK ===
    0x2f36
=== CODE BLOCK END ===

=== CODE BLOCK ADDRESS 0x2f36 ===
  0x2f36	add    	byte ptr [eax], al
  0x2f38	add    	byte ptr [eax], al
  0x2f3a	add    	byte ptr [eax], al
  0x2f3c	add    	byte ptr [eax], al
  0x2f3e	add    	byte ptr [eax], al
  === BLOCK LINK ===
    0x2f40
=== CODE BLOCK END ===

=== CODE BLOCK ADDRESS 0x2f40 ===
  0x2f40	add    	byte ptr [eax], al
  0x2f42	add    	byte ptr [eax], al
  0x2f44	add    	byte ptr [eax], al
  0x2f46	add    	byte ptr [eax], al
  0x2f48	add    	byte ptr [eax], al
  === BLOCK LINK ===
    0x2f4a
=== CODE BLOCK END ===

=== CODE BLOCK ADDRESS 0x2f4a ===
  0x2f4a	add    	byte ptr [eax], al
  0x2f4c	add    	byte ptr [eax], al
  0x2f4e	add    	byte ptr [eax], al
  0x2f50	add    	byte ptr [eax], al
  0x2f52	add    	byte ptr [eax], al
  === BLOCK LINK ===
    0x2f54
=== CODE BLOCK END ===

=== CODE BLOCK ADDRESS 0x2f54 ===
  0x2f54	add    	byte ptr [eax], al
  0x2f56	add    	byte ptr [eax], al
  0x2f58	add    	byte ptr [eax], al
  0x2f5a	add    	byte ptr [eax], al
  0x2f5c	add    	byte ptr [eax], al
  === BLOCK LINK ===
    0x2f5e
=== CODE BLOCK END ===

=== CODE BLOCK ADDRESS 0x2f5e ===
  0x2f5e	add    	byte ptr [eax], al
  0x2f60	add    	byte ptr [eax], al
  0x2f62	add    	byte ptr [eax], al
  0x2f64	add    	byte ptr [eax], al
  0x2f66	add    	byte ptr [eax], al
  === BLOCK LINK ===
    0x2f68
=== CODE BLOCK END ===

=== CODE BLOCK ADDRESS 0x2f68 ===
  0x2f68	add    	byte ptr [eax], al
  0x2f6a	add    	byte ptr [eax], al
  0x2f6c	add    	byte ptr [eax], al
  0x2f6e	add    	byte ptr [eax], al
  0x2f70	add    	byte ptr [eax], al
  === BLOCK LINK ===
    0x2f72
=== CODE BLOCK END ===

=== CODE BLOCK ADDRESS 0x2f72 ===
  0x2f72	add    	byte ptr [eax], al
  0x2f74	add    	byte ptr [eax], al
  0x2f76	add    	byte ptr [eax], al
  0x2f78	add    	byte ptr [eax], al
  0x2f7a	add    	byte ptr [eax], al
  === BLOCK LINK ===
    0x2f7c
=== CODE BLOCK END ===

=== CODE BLOCK ADDRESS 0x2f7c ===
  0x2f7c	add    	byte ptr [eax], al
  0x2f7e	add    	byte ptr [eax], al
  0x2f80	add    	byte ptr [eax], al
  0x2f82	add    	byte ptr [eax], al
  0x2f84	add    	byte ptr [eax], al
  === BLOCK LINK ===
    0x2f86
=== CODE BLOCK END ===

=== CODE BLOCK ADDRESS 0x2f86 ===
  0x2f86	add    	byte ptr [eax], al
  0x2f88	add    	byte ptr [eax], al
  0x2f8a	add    	byte ptr [eax], al
  0x2f8c	add    	byte ptr [eax], al
  0x2f8e	add    	byte ptr [eax], al
  === BLOCK LINK ===
    0x2f90
=== CODE BLOCK END ===

=== CODE BLOCK ADDRESS 0x2f90 ===
  0x2f90	add    	byte ptr [eax], al
  0x2f92	add    	byte ptr [eax], al
  0x2f94	add    	byte ptr [eax], al
  0x2f96	add    	byte ptr [eax], al
  0x2f98	add    	byte ptr [eax], al
  === BLOCK LINK ===
    0x2f9a
=== CODE BLOCK END ===

=== CODE BLOCK ADDRESS 0x2f9a ===
  0x2f9a	add    	byte ptr [eax], al
  0x2f9c	add    	byte ptr [eax], al
  0x2f9e	add    	byte ptr [eax], al
  0x2fa0	add    	byte ptr [eax], al
  0x2fa2	add    	byte ptr [eax], al
  === BLOCK LINK ===
    0x2fa4
=== CODE BLOCK END ===

=== CODE BLOCK ADDRESS 0x2fa4 ===
  0x2fa4	add    	byte ptr [eax], al
  0x2fa6	add    	byte ptr [eax], al
  0x2fa8	add    	byte ptr [eax], al
  0x2faa	add    	byte ptr [eax], al
  0x2fac	add    	byte ptr [eax], al
  === BLOCK LINK ===
    0x2fae
=== CODE BLOCK END ===

=== CODE BLOCK ADDRESS 0x2fae ===
  0x2fae	add    	byte ptr [eax], al
  0x2fb0	add    	byte ptr [eax], al
  0x2fb2	add    	byte ptr [eax], al
  0x2fb4	add    	byte ptr [eax], al
  0x2fb6	add    	byte ptr [eax], al
  === BLOCK LINK ===
    0x2fb8
=== CODE BLOCK END ===

=== CODE BLOCK ADDRESS 0x2fb8 ===
  0x2fb8	add    	byte ptr [eax], al
  0x2fba	add    	byte ptr [eax], al
  0x2fbc	add    	byte ptr [eax], al
  0x2fbe	add    	byte ptr [eax], al
  0x2fc0	add    	byte ptr [eax], al
  === BLOCK LINK ===
    0x2fc2
=== CODE BLOCK END ===

=== CODE BLOCK ADDRESS 0x2fc2 ===
  0x2fc2	add    	byte ptr [eax], al
  0x2fc4	add    	byte ptr [eax], al
  0x2fc6	add    	byte ptr [eax], al
  0x2fc8	add    	byte ptr [eax], al
  0x2fca	add    	byte ptr [eax], al
  === BLOCK LINK ===
    0x2fcc
=== CODE BLOCK END ===

=== CODE BLOCK ADDRESS 0x2fcc ===
  0x2fcc	add    	byte ptr [eax], al
  0x2fce	add    	byte ptr [eax], al
  0x2fd0	add    	byte ptr [eax], al
  0x2fd2	add    	byte ptr [eax], al
  0x2fd4	add    	byte ptr [eax], al
  === BLOCK LINK ===
    0x2fd6
=== CODE BLOCK END ===

=== CODE BLOCK ADDRESS 0x2fd6 ===
  0x2fd6	add    	byte ptr [eax], al
  0x2fd8	add    	byte ptr [eax], al
  0x2fda	add    	byte ptr [eax], al
  0x2fdc	add    	byte ptr [eax], al
  0x2fde	add    	byte ptr [eax], al
  === BLOCK LINK ===
    0x2fe0
=== CODE BLOCK END ===

=== CODE BLOCK ADDRESS 0x2fe0 ===
  0x2fe0	add    	byte ptr [eax], al
  0x2fe2	add    	byte ptr [eax], al
  0x2fe4	add    	byte ptr [eax], al
  0x2fe6	add    	byte ptr [eax], al
  0x2fe8	add    	byte ptr [eax], al
  === BLOCK LINK ===
    0x2fea
=== CODE BLOCK END ===

=== CODE BLOCK ADDRESS 0x2fea ===
  0x2fea	add    	byte ptr [eax], al
  0x2fec	add    	byte ptr [eax], al
  0x2fee	add    	byte ptr [eax], al
  0x2ff0	add    	byte ptr [eax], al
  0x2ff2	add    	byte ptr [eax], al
  === BLOCK LINK ===
    0x2ff4
=== CODE BLOCK END ===

=== CODE BLOCK ADDRESS 0x2ff4 ===
  0x2ff4	add    	byte ptr [eax], al
  0x2ff6	add    	byte ptr [eax], al
  0x2ff8	add    	byte ptr [eax], al
  0x2ffa	add    	byte ptr [eax], al
  0x2ffc	add    	byte ptr [eax], al
  === BLOCK LINK ===
    0x2ffe
=== CODE BLOCK END ===

=== CODE BLOCK ADDRESS 0x2ffe ===
=== CODE BLOCK END ===

=== DATA BLOCK ADDRESS 0x3000 ===
  0x3000	a0 40 00 40 01 00 00 00 40 41 00 40 01 00 00 00 	0@0@0000@A0@0000
  0x3010	18 01 00 00 00 00 00 00 00 00 00 00 00 00 00 00 	0000000000000000
  0x3020	00 00 00 00 00 00 00 00 00 00 00 00 00 00 00 00 	0000000000000000
  0x3030	00 00 00 00 00 00 00 00 00 00 00 00 00 00 00 00 	0000000000000000
  0x3040	00 00 00 00 00 00 00 00 00 00 00 00 00 00 00 00 	0000000000000000
  0x3050	00 00 00 00 00 00 00 00 00 00 00 00 00 00 00 00 	0000000000000000
  0x3060	00 00 00 00 00 00 00 00 08 40 00 40 01 00 00 00 	000000000@0@0000
  0x3070	00 00 00 00 00 00 00 00 00 00 00 00 00 00 00 00 	0000000000000000
  0x3080	80 33 00 40 01 00 00 00 88 33 00 40 01 00 00 00 	030@0000030@0000
  0x3090	c8 33 00 40 01 00 00 00 0c 00 00 00 00 00 00 00 	030@000000000000
  0x30a0	00 75 01 00 00 00 00 00 00 00 00 00 00 00 00 00 	0u00000000000000
  0x30b0	00 00 00 00 00 00 00 00 00 00 00 00 00 00 00 00 	0000000000000000
  0x30c0	00 00 00 00 00 00 00 00 00 00 00 00 00 00 00 00 	0000000000000000
  0x30d0	00 00 00 00 00 00 00 00 00 00 00 00 00 00 00 00 	0000000000000000
  0x30e0	00 00 00 00 00 00 00 00 00 00 00 00 00 00 00 00 	0000000000000000
  0x30f0	00 00 00 00 00 00 00 00 00 00 00 00 00 00 00 00 	0000000000000000
  0x3100	00 00 00 00 00 00 00 00 00 00 00 00 00 00 00 00 	0000000000000000
  0x3110	00 00 00 00 00 00 00 00 00 00 00 00 00 00 00 00 	0000000000000000
  0x3120	00 00 00 00 00 00 00 00 28 3b 00 00 00 00 00 00 	00000000(;000000
  0x3130	3e 3b 00 00 00 00 00 00 4e 3b 00 00 00 00 00 00 	>;000000N;000000
  0x3140	6c 3b 00 00 00 00 00 00 7c 3b 00 00 00 00 00 00 	l;000000|;000000
  0x3150	9c 3b 00 00 00 00 00 00 a6 3b 00 00 00 00 00 00 	0;0000000;000000
  0x3160	c4 3b 00 00 00 00 00 00 d8 3b 00 00 00 00 00 00 	0;0000000;000000
  0x3170	f4 3b 00 00 00 00 00 00 00 00 00 00 00 00 00 00 	0;00000000000000
  0x3180	1e 3c 00 00 00 00 00 00 36 3c 00 00 00 00 00 00 	0<0000006<000000
  0x3190	48 3c 00 00 00 00 00 00 54 3c 00 00 00 00 00 00 	H<000000T<000000
  0x31a0	68 3c 00 00 00 00 00 00 80 3c 00 00 00 00 00 00 	h<0000000<000000
  0x31b0	9c 3c 00 00 00 00 00 00 b2 3c 00 00 00 00 00 00 	0<0000000<000000
  0x31c0	c8 3c 00 00 00 00 00 00 d8 3c 00 00 00 00 00 00 	0<0000000<000000
  0x31d0	e8 3c 00 00 00 00 00 00 f4 3c 00 00 00 00 00 00 	0<0000000<000000
  0x31e0	02 3d 00 00 00 00 00 00 10 3d 00 00 00 00 00 00 	0=0000000=000000
  0x31f0	1e 3d 00 00 00 00 00 00 34 3d 00 00 00 00 00 00 	0=0000004=000000
  0x3200	42 3d 00 00 00 00 00 00 58 3d 00 00 00 00 00 00 	B=000000X=000000
  0x3210	70 3d 00 00 00 00 00 00 80 3d 00 00 00 00 00 00 	p=0000000=000000
  0x3220	9e 3d 00 00 00 00 00 00 bc 3f 00 00 00 00 00 00 	0=0000000?000000
  0x3230	a0 3f 00 00 00 00 00 00 8c 3f 00 00 00 00 00 00 	0?0000000?000000
  0x3240	72 3f 00 00 00 00 00 00 5e 3f 00 00 00 00 00 00 	r?000000^?000000
  0x3250	44 3f 00 00 00 00 00 00 2e 3f 00 00 00 00 00 00 	D?000000.?000000
  0x3260	d0 3f 00 00 00 00 00 00 18 3f 00 00 00 00 00 00 	0?0000000?000000
  0x3270	fe 3e 00 00 00 00 00 00 ea 3e 00 00 00 00 00 00 	0>0000000>000000
  0x3280	cc 3e 00 00 00 00 00 00 c4 3e 00 00 00 00 00 00 	0>0000000>000000
  0x3290	00 00 00 00 00 00 00 00 97 00 00 00 00 00 00 80 	0000000000000000
  0x32a0	02 00 00 00 00 00 00 80 03 00 00 00 00 00 00 80 	0000000000000000
  0x32b0	12 00 00 00 00 00 00 80 74 00 00 00 00 00 00 80 	00000000t0000000
  0x32c0	a8 3e 00 00 00 00 00 00 6f 00 00 00 00 00 00 80 	0>000000o0000000
  0x32d0	0a 00 00 00 00 00 00 80 09 00 00 00 00 00 00 80 	0000000000000000
  0x32e0	11 00 00 00 00 00 00 80 98 3e 00 00 00 00 00 00 	000000000>000000
  0x32f0	17 00 00 00 00 00 00 80 73 00 00 00 00 00 00 80 	00000000s0000000
  0x3300	00 00 00 00 00 00 00 00 6c 3e 00 00 00 00 00 00 	00000000l>000000
  0x3310	84 3e 00 00 00 00 00 00 62 3e 00 00 00 00 00 00 	0>000000b>000000
  0x3320	56 3e 00 00 00 00 00 00 42 3e 00 00 00 00 00 00 	V>000000B>000000
  0x3330	38 3e 00 00 00 00 00 00 30 3e 00 00 00 00 00 00 	8>0000000>000000
  0x3340	0e 3e 00 00 00 00 00 00 00 3e 00 00 00 00 00 00 	0>0000000>000000
  0x3350	f2 3d 00 00 00 00 00 00 e0 3d 00 00 00 00 00 00 	0=0000000=000000
  0x3360	d8 3d 00 00 00 00 00 00 c0 3d 00 00 00 00 00 00 	0=0000000=000000
  0x3370	1e 3e 00 00 00 00 00 00 00 00 00 00 00 00 00 00 	0>00000000000000
  0x3380	c0 2a 00 40 01 00 00 00 c0 2d 00 40 01 00 00 00 	0*0@00000-0@0000
  0x3390	00 00 00 00 00 00 00 00 40 25 00 40 01 00 00 00 	00000000@%0@0000
  0x33a0	00 00 00 00 00 00 00 00 00 00 00 00 00 00 00 00 	0000000000000000
  0x33b0	60 24 00 40 01 00 00 00 00 28 00 40 01 00 00 00 	`$0@00000(0@0000
  0x33c0	00 00 00 00 00 00 00 00 10 10 00 00 20 11 00 00 	000000000000 000
  0x33d0	c0 1a 00 00 90 21 00 00 60 24 00 00 40 25 00 00 	00000!00`$00@%00
  0x33e0	60 27 00 00 c0 27 00 00 00 28 00 00 e0 28 00 00 	`'000'000(000(00
  0x33f0	c0 2a 00 00 10 2b 00 00 00 00 00 00 00 00 00 00 	0*000+0000000000
  0x3400	53 00 4e 00 4d 00 50 00 54 00 52 00 41 00 50 00 	S0N0M0P0T0R0A0P0
  0x3410	00 00 00 00 00 00 00 00 73 00 6e 00 6d 00 70 00 	00000000s0n0m0p0
  0x3420	2d 00 74 00 72 00 61 00 70 00 00 00 00 00 00 00 	-0t0r0a0p0000000
  0x3430	5c 00 5c 00 2e 00 5c 00 50 00 49 00 50 00 45 00 	0000.000P0I0P0E0
  0x3440	5c 00 4d 00 47 00 4d 00 54 00 41 00 50 00 49 00 	00M0G0M0T0A0P0I0
  0x3450	00 00 00 00 00 00 00 00 00 00 00 00 00 00 00 00 	0000000000000000
  0x3460	01 00 00 00 17 00 00 00 02 00 00 00 00 00 00 00 	0000000000000000
  0x3470	00 00 00 00 98 4f 75 1a 00 00 00 00 02 00 00 00 	00000Ou000000000
  0x3480	25 00 00 00 c4 34 00 00 c4 28 00 00 00 00 00 00 	%00004000(000000
  0x3490	98 4f 75 1a 00 00 00 00 0d 00 00 00 f0 01 00 00 	0Ou0000000000000
  0x34a0	ec 34 00 00 ec 28 00 00 00 00 00 00 98 4f 75 1a 	04000(0000000Ou0
  0x34b0	00 00 00 00 10 00 00 00 24 00 00 00 dc 36 00 00 	00000000$0000600
  0x34c0	dc 2a 00 00 52 53 44 53 c5 b4 ed ca e2 36 07 8a 	0*00RSDS00000600
  0x34d0	93 f3 c3 f4 0c 43 6d d9 01 00 00 00 73 6e 6d 70 	00000Cm00000snmp
  0x34e0	74 72 61 70 2e 70 64 62 00 00 00 00 47 43 54 4c 	trap.pdb0000GCTL
  0x34f0	00 10 00 00 b0 1d 00 00 2e 74 65 78 74 24 6d 6e 	00000000.text$mn
  0x3500	00 00 00 00 b0 2d 00 00 20 00 00 00 2e 74 65 78 	00000-00 000.tex
  0x3510	74 24 6d 6e 24 30 30 00 d0 2d 00 00 50 00 00 00 	t$mn$0000-00P000
  0x3520	2e 74 65 78 74 24 78 00 00 30 00 00 28 01 00 00 	.text$x00000(000
  0x3530	2e 72 64 61 74 61 24 62 72 63 00 00 28 31 00 00 	.rdata$brc00(100
  0x3540	58 02 00 00 2e 69 64 61 74 61 24 35 00 00 00 00 	X000.idata$50000
  0x3550	80 33 00 00 10 00 00 00 2e 30 30 63 66 67 00 00 	03000000.00cfg00
  0x3560	90 33 00 00 08 00 00 00 2e 43 52 54 24 58 43 41 	03000000.CRT$XCA
  0x3570	00 00 00 00 98 33 00 00 08 00 00 00 2e 43 52 54 	000003000000.CRT
  0x3580	24 58 43 41 41 00 00 00 a0 33 00 00 08 00 00 00 	$XCAA00003000000
  0x3590	2e 43 52 54 24 58 43 5a 00 00 00 00 a8 33 00 00 	.CRT$XCZ00000300
  0x35a0	08 00 00 00 2e 43 52 54 24 58 49 41 00 00 00 00 	0000.CRT$XIA0000
  0x35b0	b0 33 00 00 08 00 00 00 2e 43 52 54 24 58 49 41 	03000000.CRT$XIA
  0x35c0	41 00 00 00 b8 33 00 00 08 00 00 00 2e 43 52 54 	A00003000000.CRT
  0x35d0	24 58 49 59 00 00 00 00 c0 33 00 00 08 00 00 00 	$XIY000003000000
  0x35e0	2e 43 52 54 24 58 49 5a 00 00 00 00 c8 33 00 00 	.CRT$XIZ00000300
  0x35f0	38 00 00 00 2e 67 66 69 64 73 00 00 00 34 00 00 	8000.gfids000400
  0x3600	c4 00 00 00 2e 72 64 61 74 61 00 00 c4 34 00 00 	0000.rdata000400
  0x3610	3c 02 00 00 2e 72 64 61 74 61 24 7a 7a 7a 64 62 	<000.rdata$zzzdb
  0x3620	67 00 00 00 00 37 00 00 6c 01 00 00 2e 78 64 61 	g0000700l000.xda
  0x3630	74 61 00 00 6c 38 00 00 50 00 00 00 2e 69 64 61 	ta00l800P000.ida
  0x3640	74 61 24 32 00 00 00 00 bc 38 00 00 14 00 00 00 	ta$2000008000000
  0x3650	2e 69 64 61 74 61 24 33 00 00 00 00 d0 38 00 00 	.idata$300000800
  0x3660	58 02 00 00 2e 69 64 61 74 61 24 34 00 00 00 00 	X000.idata$40000
  0x3670	28 3b 00 00 bc 04 00 00 2e 69 64 61 74 61 24 36 	(;000000.idata$6
  0x3680	00 00 00 00 00 40 00 00 60 00 00 00 2e 64 61 74 	00000@00`000.dat
  0x3690	61 00 00 00 60 40 00 00 a8 07 00 00 2e 62 73 73 	a000`@000000.bss
  0x36a0	00 00 00 00 00 50 00 00 2c 01 00 00 2e 70 64 61 	00000P00,000.pda
  0x36b0	74 61 00 00 00 60 00 00 f0 00 00 00 2e 72 73 72 	ta000`000000.rsr
  0x36c0	63 24 30 31 00 00 00 00 f0 60 00 00 e8 06 00 00 	c$0100000`000000
  0x36d0	2e 72 73 72 63 24 30 32 00 00 00 00 20 00 00 00 	.rsrc$020000 000
  0x36e0	c5 b4 ed ca e2 36 07 8a 93 f3 c3 f4 0c 43 6d d9 	0000060000000Cm0
  0x36f0	be 24 2b 57 73 94 ac 41 77 c5 b5 3c 98 4f 75 1a 	0$+Ws00Aw00<0Ou0
  0x3700	01 06 02 00 06 32 02 30 19 2e 0b 00 1c e4 4d 00 	000002000.0000M0
  0x3710	1c c4 4c 00 1c 74 4b 00 1c 64 4a 00 1c 01 48 00 	00L00tK00dJ000H0
  0x3720	15 f0 00 00 20 2d 00 00 01 00 00 00 d1 11 00 00 	0000 -0000000000
  0x3730	e5 11 00 00 01 00 00 00 66 19 00 00 31 02 00 00 	00000000f0001000
  0x3740	01 08 02 00 08 72 04 30 19 37 0d 00 26 74 57 00 	00000r000700&tW0
  0x3750	26 64 56 00 26 34 55 00 26 01 4e 00 18 f0 16 e0 	&dV0&4U0&0N00000
  0x3760	14 d0 12 c0 10 50 00 00 98 2c 00 00 60 02 00 00 	00000P000,00`000
  0x3770	19 29 09 00 1b 74 16 00 1b 64 15 00 1b 34 14 00 	0)000t000d000400
  0x3780	1b 01 12 00 10 50 00 00 98 2c 00 00 80 00 00 00 	00000P000,000000
  0x3790	01 12 06 00 12 64 14 00 12 34 12 00 12 f2 0b 70 	00000d000400000p
  0x37a0	01 04 01 00 04 42 00 00 01 04 01 00 04 62 00 00 	00000B0000000b00
  0x37b0	09 15 08 00 15 74 0a 00 15 64 09 00 15 34 08 00 	00000t000d000400
  0x37c0	15 52 11 f0 78 27 00 00 01 00 00 00 a5 25 00 00 	0R00x'0000000%00
  0x37d0	0b 27 00 00 d0 2d 00 00 0b 27 00 00 01 06 02 00 	0'000-000'000000
  0x37e0	06 32 02 50 00 00 00 00 01 00 00 00 09 04 01 00 	020P000000000000
  0x37f0	04 22 00 00 78 27 00 00 01 00 00 00 3c 28 00 00 	0"00x'000000<(00
  0x3800	72 28 00 00 01 00 00 00 72 28 00 00 09 0a 04 00 	r(000000r(000000
  0x3810	0a 34 06 00 0a 32 06 70 78 27 00 00 01 00 00 00 	0400020px'000000
  0x3820	4d 29 00 00 80 29 00 00 00 2e 00 00 80 29 00 00 	M)000)000.000)00
  0x3830	01 0d 04 00 0d 34 09 00 0d 32 06 50 01 0c 02 00 	00000400020P0000
  0x3840	0c 01 11 00 00 00 00 00 01 00 00 00 01 02 01 00 	0000000000000000
  0x3850	02 30 00 00 01 19 0a 00 19 74 09 00 19 64 08 00 	000000000t000d00
  0x3860	19 54 07 00 19 34 06 00 19 32 15 e0 d0 38 00 00 	0T00040002000800
  0x3870	00 00 00 00 00 00 00 00 10 3c 00 00 28 31 00 00 	000000000<00(100
  0x3880	28 39 00 00 00 00 00 00 00 00 00 00 b2 3d 00 00 	(900000000000=00
  0x3890	80 31 00 00 b0 3a 00 00 00 00 00 00 00 00 00 00 	01000:0000000000
  0x38a0	78 3e 00 00 08 33 00 00 40 3a 00 00 00 00 00 00 	x>000300@:000000
  0x38b0	00 00 00 00 b8 3e 00 00 98 32 00 00 00 00 00 00 	00000>0002000000
  0x38c0	00 00 00 00 00 00 00 00 00 00 00 00 00 00 00 00 	0000000000000000
  0x38d0	28 3b 00 00 00 00 00 00 3e 3b 00 00 00 00 00 00 	(;000000>;000000
  0x38e0	4e 3b 00 00 00 00 00 00 6c 3b 00 00 00 00 00 00 	N;000000l;000000
  0x38f0	7c 3b 00 00 00 00 00 00 9c 3b 00 00 00 00 00 00 	|;0000000;000000
  0x3900	a6 3b 00 00 00 00 00 00 c4 3b 00 00 00 00 00 00 	0;0000000;000000
  0x3910	d8 3b 00 00 00 00 00 00 f4 3b 00 00 00 00 00 00 	0;0000000;000000
  0x3920	00 00 00 00 00 00 00 00 1e 3c 00 00 00 00 00 00 	000000000<000000
  0x3930	36 3c 00 00 00 00 00 00 48 3c 00 00 00 00 00 00 	6<000000H<000000
  0x3940	54 3c 00 00 00 00 00 00 68 3c 00 00 00 00 00 00 	T<000000h<000000
  0x3950	80 3c 00 00 00 00 00 00 9c 3c 00 00 00 00 00 00 	0<0000000<000000
  0x3960	b2 3c 00 00 00 00 00 00 c8 3c 00 00 00 00 00 00 	0<0000000<000000
  0x3970	d8 3c 00 00 00 00 00 00 e8 3c 00 00 00 00 00 00 	0<0000000<000000
  0x3980	f4 3c 00 00 00 00 00 00 02 3d 00 00 00 00 00 00 	0<0000000=000000
  0x3990	10 3d 00 00 00 00 00 00 1e 3d 00 00 00 00 00 00 	0=0000000=000000
  0x39a0	34 3d 00 00 00 00 00 00 42 3d 00 00 00 00 00 00 	4=000000B=000000
  0x39b0	58 3d 00 00 00 00 00 00 70 3d 00 00 00 00 00 00 	X=000000p=000000
  0x39c0	80 3d 00 00 00 00 00 00 9e 3d 00 00 00 00 00 00 	0=0000000=000000
  0x39d0	bc 3f 00 00 00 00 00 00 a0 3f 00 00 00 00 00 00 	0?0000000?000000
  0x39e0	8c 3f 00 00 00 00 00 00 72 3f 00 00 00 00 00 00 	0?000000r?000000
  0x39f0	5e 3f 00 00 00 00 00 00 44 3f 00 00 00 00 00 00 	^?000000D?000000
  0x3a00	2e 3f 00 00 00 00 00 00 d0 3f 00 00 00 00 00 00 	.?0000000?000000
  0x3a10	18 3f 00 00 00 00 00 00 fe 3e 00 00 00 00 00 00 	0?0000000>000000
  0x3a20	ea 3e 00 00 00 00 00 00 cc 3e 00 00 00 00 00 00 	0>0000000>000000
  0x3a30	c4 3e 00 00 00 00 00 00 00 00 00 00 00 00 00 00 	0>00000000000000
  0x3a40	97 00 00 00 00 00 00 80 02 00 00 00 00 00 00 80 	0000000000000000
  0x3a50	03 00 00 00 00 00 00 80 12 00 00 00 00 00 00 80 	0000000000000000
  0x3a60	74 00 00 00 00 00 00 80 a8 3e 00 00 00 00 00 00 	t00000000>000000
  0x3a70	6f 00 00 00 00 00 00 80 0a 00 00 00 00 00 00 80 	o000000000000000
  0x3a80	09 00 00 00 00 00 00 80 11 00 00 00 00 00 00 80 	0000000000000000
  0x3a90	98 3e 00 00 00 00 00 00 17 00 00 00 00 00 00 80 	0>00000000000000
  0x3aa0	73 00 00 00 00 00 00 80 00 00 00 00 00 00 00 00 	s000000000000000
  0x3ab0	6c 3e 00 00 00 00 00 00 84 3e 00 00 00 00 00 00 	l>0000000>000000
  0x3ac0	62 3e 00 00 00 00 00 00 56 3e 00 00 00 00 00 00 	b>000000V>000000
  0x3ad0	42 3e 00 00 00 00 00 00 38 3e 00 00 00 00 00 00 	B>0000008>000000
  0x3ae0	30 3e 00 00 00 00 00 00 0e 3e 00 00 00 00 00 00 	0>0000000>000000
  0x3af0	00 3e 00 00 00 00 00 00 f2 3d 00 00 00 00 00 00 	0>0000000=000000
  0x3b00	e0 3d 00 00 00 00 00 00 d8 3d 00 00 00 00 00 00 	0=0000000=000000
  0x3b10	c0 3d 00 00 00 00 00 00 1e 3e 00 00 00 00 00 00 	0=0000000>000000
  0x3b20	00 00 00 00 00 00 00 00 10 00 41 64 64 41 63 63 	0000000000AddAcc
  0x3b30	65 73 73 41 6c 6c 6f 77 65 64 41 63 65 00 4b 01 	essAllowedAce0K0
  0x3b40	47 65 74 4c 65 6e 67 74 68 53 69 64 00 00 fa 02 	GetLengthSid0000
  0x3b50	53 74 61 72 74 53 65 72 76 69 63 65 43 74 72 6c 	StartServiceCtrl
  0x3b60	44 69 73 70 61 74 63 68 65 72 57 00 8e 01 49 6e 	DispatcherW000In
  0x3b70	69 74 69 61 6c 69 7a 65 41 63 6c 00 8f 01 49 6e 	itializeAcl000In
  0x3b80	69 74 69 61 6c 69 7a 65 53 65 63 75 72 69 74 79 	itializeSecurity
  0x3b90	44 65 73 63 72 69 70 74 6f 72 00 00 34 01 46 72 	Descriptor0040Fr
  0x3ba0	65 65 53 69 64 00 b3 02 52 65 67 69 73 74 65 72 	eeSid000Register
  0x3bb0	53 65 72 76 69 63 65 43 74 72 6c 48 61 6e 64 6c 	ServiceCtrlHandl
  0x3bc0	65 72 57 00 f2 02 53 65 74 53 65 72 76 69 63 65 	erW000SetService
  0x3bd0	53 74 61 74 75 73 00 00 20 00 41 6c 6c 6f 63 61 	Status00 0Alloca
  0x3be0	74 65 41 6e 64 49 6e 69 74 69 61 6c 69 7a 65 53 	teAndInitializeS
  0x3bf0	69 64 00 00 e8 02 53 65 74 53 65 63 75 72 69 74 	id0000SetSecurit
  0x3c00	79 44 65 73 63 72 69 70 74 6f 72 44 61 63 6c 00 	yDescriptorDacl0
  0x3c10	41 44 56 41 50 49 33 32 2e 64 6c 6c 00 00 37 01 	ADVAPI32.dll0070
  0x3c20	45 6e 74 65 72 43 72 69 74 69 63 61 6c 53 65 63 	EnterCriticalSec
  0x3c30	74 69 6f 6e 00 00 df 01 47 65 74 43 6f 6d 6d 61 	tion0000GetComma
  0x3c40	6e 64 4c 69 6e 65 57 00 23 06 57 72 69 74 65 46 	ndLineW0#0WriteF
  0x3c50	69 6c 65 00 de 00 43 72 65 61 74 65 4e 61 6d 65 	ile000CreateName
  0x3c60	64 50 69 70 65 57 00 00 c3 03 4c 65 61 76 65 43 	dPipeW0000LeaveC
  0x3c70	72 69 74 69 63 61 6c 53 65 63 74 69 6f 6e 00 00 	riticalSection00
  0x3c80	69 03 49 6e 69 74 69 61 6c 69 7a 65 43 72 69 74 	i0InitializeCrit
  0x3c90	69 63 61 6c 53 65 63 74 69 6f 6e 00 e8 05 57 61 	icalSection000Wa
  0x3ca0	69 74 46 6f 72 53 69 6e 67 6c 65 4f 62 6a 65 63 	itForSingleObjec
  0x3cb0	74 00 28 01 44 69 73 63 6f 6e 6e 65 63 74 4e 61 	t0(0DisconnectNa
  0x3cc0	6d 65 64 50 69 70 65 00 c1 00 43 72 65 61 74 65 	medPipe000Create
  0x3cd0	45 76 65 6e 74 57 00 00 69 02 47 65 74 4c 61 73 	EventW00i0GetLas
  0x3ce0	74 45 72 72 6f 72 00 00 25 05 53 65 74 45 76 65 	tError00%0SetEve
  0x3cf0	6e 74 00 00 38 03 47 6c 6f 62 61 6c 41 6c 6c 6f 	nt0080GlobalAllo
  0x3d00	63 00 3f 03 47 6c 6f 62 61 6c 46 72 65 65 00 00 	c0?0GlobalFree00
  0x3d10	88 00 43 6c 6f 73 65 48 61 6e 64 6c 65 00 58 03 	00CloseHandle0X0
  0x3d20	48 65 61 70 53 65 74 49 6e 66 6f 72 6d 61 74 69 	HeapSetInformati
  0x3d30	6f 6e 00 00 cb 04 52 65 73 65 74 45 76 65 6e 74 	on0000ResetEvent
  0x3d40	00 00 a1 02 47 65 74 4f 76 65 72 6c 61 70 70 65 	0000GetOverlappe
  0x3d50	64 52 65 73 75 6c 74 00 13 01 44 65 6c 65 74 65 	dResult000Delete
  0x3d60	43 72 69 74 69 63 61 6c 53 65 63 74 69 6f 6e 00 	CriticalSection0
  0x3d70	10 03 47 65 74 54 69 63 6b 43 6f 75 6e 74 00 00 	00GetTickCount00
  0x3d80	a8 04 52 65 67 69 73 74 65 72 41 70 70 6c 69 63 	00RegisterApplic
  0x3d90	61 74 69 6f 6e 52 65 73 74 61 72 74 00 00 9e 00 	ationRestart0000
  0x3da0	43 6f 6e 6e 65 63 74 4e 61 6d 65 64 50 69 70 65 	ConnectNamedPipe
  0x3db0	00 00 4b 45 52 4e 45 4c 33 32 2e 64 6c 6c 00 00 	00KERNEL32.dll00
  0x3dc0	57 00 5f 5f 43 5f 73 70 65 63 69 66 69 63 5f 68 	W0__C_specific_h
  0x3dd0	61 6e 64 6c 65 72 00 00 32 04 65 78 69 74 00 00 	andler0020exit00
  0x3de0	bc 00 5f 62 65 67 69 6e 74 68 72 65 61 64 65 78 	00_beginthreadex
  0x3df0	00 00 55 00 5f 58 63 70 74 46 69 6c 74 65 72 00 	00U0_XcptFilter0
  0x3e00	ae 00 5f 61 6d 73 67 5f 65 78 69 74 00 00 7f 00 	00_amsg_exit0000
  0x3e10	5f 5f 67 65 74 6d 61 69 6e 61 72 67 73 00 8e 00 	__getmainargs000
  0x3e20	5f 5f 73 65 74 5f 61 70 70 5f 74 79 70 65 00 00 	__set_app_type00
  0x3e30	0e 01 5f 65 78 69 74 00 c1 00 5f 63 65 78 69 74 	00_exit000_cexit
  0x3e40	00 00 90 00 5f 5f 73 65 74 75 73 65 72 6d 61 74 	0000__setusermat
  0x3e50	68 65 72 72 00 00 7d 01 5f 69 6e 69 74 74 65 72 	herr00}0_initter
  0x3e60	6d 00 27 01 5f 66 6d 6f 64 65 00 00 d2 00 5f 63 	m0'0_fmode0000_c
  0x3e70	6f 6d 6d 6f 64 65 00 00 6d 73 76 63 72 74 2e 64 	ommode00msvcrt.d
  0x3e80	6c 6c 00 00 2f 00 3f 74 65 72 6d 69 6e 61 74 65 	ll00/0?terminate
  0x3e90	40 40 59 41 58 58 5a 00 07 00 47 65 74 41 64 64 	@@YAXXZ000GetAdd
  0x3ea0	72 49 6e 66 6f 57 00 00 02 00 46 72 65 65 41 64 	rInfoW0000FreeAd
  0x3eb0	64 72 49 6e 66 6f 57 00 57 53 32 5f 33 32 2e 64 	drInfoW0WS2_32.d
  0x3ec0	6c 6c 00 00 8d 05 53 6c 65 65 70 00 7d 05 53 65 	ll0000Sleep0}0Se
  0x3ed0	74 55 6e 68 61 6e 64 6c 65 64 45 78 63 65 70 74 	tUnhandledExcept
  0x3ee0	69 6f 6e 46 69 6c 74 65 72 00 80 02 47 65 74 4d 	ionFilter000GetM
  0x3ef0	6f 64 75 6c 65 48 61 6e 64 6c 65 57 00 00 51 04 	oduleHandleW00Q0
  0x3f00	51 75 65 72 79 50 65 72 66 6f 72 6d 61 6e 63 65 	QueryPerformance
  0x3f10	43 6f 75 6e 74 65 72 00 20 02 47 65 74 43 75 72 	Counter0 0GetCur
  0x3f20	72 65 6e 74 50 72 6f 63 65 73 73 49 64 00 24 02 	rentProcessId0$0
  0x3f30	47 65 74 43 75 72 72 65 6e 74 54 68 72 65 61 64 	GetCurrentThread
  0x3f40	49 64 00 00 f2 02 47 65 74 53 79 73 74 65 6d 54 	Id0000GetSystemT
  0x3f50	69 6d 65 41 73 46 69 6c 65 54 69 6d 65 00 d4 04 	imeAsFileTime000
  0x3f60	52 74 6c 43 61 70 74 75 72 65 43 6f 6e 74 65 78 	RtlCaptureContex
  0x3f70	74 00 db 04 52 74 6c 4c 6f 6f 6b 75 70 46 75 6e 	t000RtlLookupFun
  0x3f80	63 74 69 6f 6e 45 6e 74 72 79 00 00 e2 04 52 74 	ctionEntry0000Rt
  0x3f90	6c 56 69 72 74 75 61 6c 55 6e 77 69 6e 64 00 00 	lVirtualUnwind00
  0x3fa0	be 05 55 6e 68 61 6e 64 6c 65 64 45 78 63 65 70 	00UnhandledExcep
  0x3fb0	74 69 6f 6e 46 69 6c 74 65 72 00 00 1f 02 47 65 	tionFilter0000Ge
  0x3fc0	74 43 75 72 72 65 6e 74 50 72 6f 63 65 73 73 00 	tCurrentProcess0
  0x3fd0	9c 05 54 65 72 6d 69 6e 61 74 65 50 72 6f 63 65 	00TerminateProce
  0x3fe0	73 73 00 00 00 00 00 00 00 00 00 00 00 00 00 00 	ss00000000000000
  0x3ff0	00 00 00 00 00 00 00 00 00 00 00 00 00 00 00 00 	0000000000000000
=== DATA BLOCK END ===

=== DATA BLOCK ADDRESS 0x4000 ===
  0x4000	01 00 00 00 00 00 00 00 32 a2 df 2d 99 2b 00 00 	00000000200-0+00
  0x4010	cd 5d 20 d2 66 d4 ff ff 00 00 00 00 00 00 00 00 	0] 0f00000000000
  0x4020	ff ff ff ff ff ff ff ff ff ff ff ff ff ff ff ff 	0000000000000000
  0x4030	30 00 00 00 01 00 00 00 01 00 00 00 00 00 00 00 	0000000000000000
  0x4040	00 00 00 00 00 00 00 00 00 00 00 00 00 00 00 00 	0000000000000000
  0x4050	ff ff ff ff ff ff ff ff 00 00 00 00 00 00 00 00 	0000000000000000
  0x4060	00 00 00 00 00 00 00 00 00 00 00 00 00 00 00 00 	0000000000000000
  0x4070	00 00 00 00 00 00 00 00 00 00 00 00 00 00 00 00 	0000000000000000
  0x4080	00 00 00 00 00 00 00 00 00 00 00 00 00 00 00 00 	0000000000000000
  0x4090	00 00 00 00 00 00 00 00 00 00 00 00 00 00 00 00 	0000000000000000
  0x40a0	00 00 00 00 00 00 00 00 00 00 00 00 00 00 00 00 	0000000000000000
  0x40b0	00 00 00 00 00 00 00 00 00 00 00 00 00 00 00 00 	0000000000000000
  0x40c0	00 00 00 00 00 00 00 00 00 00 00 00 00 00 00 00 	0000000000000000
  0x40d0	00 00 00 00 00 00 00 00 00 00 00 00 00 00 00 00 	0000000000000000
  0x40e0	00 00 00 00 00 00 00 00 00 00 00 00 00 00 00 00 	0000000000000000
  0x40f0	00 00 00 00 00 00 00 00 00 00 00 00 00 00 00 00 	0000000000000000
  0x4100	00 00 00 00 00 00 00 00 00 00 00 00 00 00 00 00 	0000000000000000
  0x4110	00 00 00 00 00 00 00 00 00 00 00 00 00 00 00 00 	0000000000000000
  0x4120	00 00 00 00 00 00 00 00 00 00 00 00 00 00 00 00 	0000000000000000
  0x4130	00 00 00 00 00 00 00 00 00 00 00 00 00 00 00 00 	0000000000000000
  0x4140	00 00 00 00 00 00 00 00 00 00 00 00 00 00 00 00 	0000000000000000
  0x4150	00 00 00 00 00 00 00 00 00 00 00 00 00 00 00 00 	0000000000000000
  0x4160	00 00 00 00 00 00 00 00 00 00 00 00 00 00 00 00 	0000000000000000
  0x4170	00 00 00 00 00 00 00 00 00 00 00 00 00 00 00 00 	0000000000000000
  0x4180	00 00 00 00 00 00 00 00 00 00 00 00 00 00 00 00 	0000000000000000
  0x4190	00 00 00 00 00 00 00 00 00 00 00 00 00 00 00 00 	0000000000000000
  0x41a0	00 00 00 00 00 00 00 00 00 00 00 00 00 00 00 00 	0000000000000000
  0x41b0	00 00 00 00 00 00 00 00 00 00 00 00 00 00 00 00 	0000000000000000
  0x41c0	00 00 00 00 00 00 00 00 00 00 00 00 00 00 00 00 	0000000000000000
  0x41d0	00 00 00 00 00 00 00 00 00 00 00 00 00 00 00 00 	0000000000000000
  0x41e0	00 00 00 00 00 00 00 00 00 00 00 00 00 00 00 00 	0000000000000000
  0x41f0	00 00 00 00 00 00 00 00 00 00 00 00 00 00 00 00 	0000000000000000
=== DATA BLOCK END ===

=== DATA BLOCK ADDRESS 0x5000 ===
  0x5000	10 10 00 00 0c 11 00 00 00 37 00 00 20 11 00 00 	000000000700 000
  0x5010	a7 19 00 00 08 37 00 00 b0 19 00 00 ba 1a 00 00 	0000070000000000
  0x5020	40 37 00 00 c0 1a 00 00 08 1f 00 00 48 37 00 00 	@70000000000H700
  0x5030	10 1f 00 00 82 21 00 00 70 37 00 00 90 21 00 00 	00000!00p7000!00
  0x5040	50 24 00 00 90 37 00 00 60 24 00 00 33 25 00 00 	P$000700`$003%00
  0x5050	a0 37 00 00 40 25 00 00 89 25 00 00 a8 37 00 00 	0700@%000%000700
  0x5060	90 25 00 00 4e 27 00 00 b0 37 00 00 60 27 00 00 	0%00N'000700`'00
  0x5070	72 27 00 00 a0 37 00 00 90 27 00 00 ae 27 00 00 	r'0007000'000'00
  0x5080	e8 37 00 00 c0 27 00 00 f9 27 00 00 a0 37 00 00 	07000'000'000700
  0x5090	00 28 00 00 18 28 00 00 a0 37 00 00 2c 28 00 00 	0(000(000700,(00
  0x50a0	80 28 00 00 ec 37 00 00 88 28 00 00 cd 28 00 00 	0(0007000(000(00
  0x50b0	00 37 00 00 40 29 00 00 8d 29 00 00 0c 38 00 00 	0700@)000)000800
  0x50c0	d4 29 00 00 a8 2a 00 00 30 38 00 00 cc 2a 00 00 	0)000*0008000*00
  0x50d0	00 2b 00 00 00 37 00 00 10 2b 00 00 81 2c 00 00 	0+0007000+000,00
  0x50e0	3c 38 00 00 98 2c 00 00 b5 2c 00 00 a0 37 00 00 	<8000,000,000700
  0x50f0	bc 2c 00 00 17 2d 00 00 4c 38 00 00 20 2d 00 00 	0,000-00L800 -00
  0x5100	a6 2d 00 00 54 38 00 00 c0 2d 00 00 c2 2d 00 00 	0-00T8000-000-00
  0x5110	48 38 00 00 d0 2d 00 00 ee 2d 00 00 dc 37 00 00 	H8000-000-000700
  0x5120	00 2e 00 00 20 2e 00 00 dc 37 00 00 00 00 00 00 	0.00 .0007000000
  0x5130	00 00 00 00 00 00 00 00 00 00 00 00 00 00 00 00 	0000000000000000
  0x5140	00 00 00 00 00 00 00 00 00 00 00 00 00 00 00 00 	0000000000000000
  0x5150	00 00 00 00 00 00 00 00 00 00 00 00 00 00 00 00 	0000000000000000
  0x5160	00 00 00 00 00 00 00 00 00 00 00 00 00 00 00 00 	0000000000000000
  0x5170	00 00 00 00 00 00 00 00 00 00 00 00 00 00 00 00 	0000000000000000
  0x5180	00 00 00 00 00 00 00 00 00 00 00 00 00 00 00 00 	0000000000000000
  0x5190	00 00 00 00 00 00 00 00 00 00 00 00 00 00 00 00 	0000000000000000
  0x51a0	00 00 00 00 00 00 00 00 00 00 00 00 00 00 00 00 	0000000000000000
  0x51b0	00 00 00 00 00 00 00 00 00 00 00 00 00 00 00 00 	0000000000000000
  0x51c0	00 00 00 00 00 00 00 00 00 00 00 00 00 00 00 00 	0000000000000000
  0x51d0	00 00 00 00 00 00 00 00 00 00 00 00 00 00 00 00 	0000000000000000
  0x51e0	00 00 00 00 00 00 00 00 00 00 00 00 00 00 00 00 	0000000000000000
  0x51f0	00 00 00 00 00 00 00 00 00 00 00 00 00 00 00 00 	0000000000000000
=== DATA BLOCK END ===
