===== Assembly blocks =====

=== CODE BLOCK ADDRESS 0x1000 ===
  0x1000	int3   	
  0x1001	int3   	
  0x1002	int3   	
  0x1003	int3   	
  0x1004	int3   	
  === BLOCK LINK ===
    0x1005
=== CODE BLOCK END ===

=== CODE BLOCK ADDRESS 0x1005 ===
  0x1005	int3   	
  0x1006	int3   	
  0x1007	int3   	
  === BLOCK LINK ===
    0x1008
=== CODE BLOCK END ===

=== CODE BLOCK ADDRESS 0x100d ===
  0x100d	push   	edi
  0x100e	dec    	eax
  0x100f	sub    	esp, 0x20
  0x1012	dec    	eax
  0x1013	mov    	eax, dword ptr [ecx]
  === BLOCK LINK ===
    0x1015
=== CODE BLOCK END ===

=== CODE BLOCK ADDRESS 0x1015 ===
  0x1015	dec    	eax
  0x1016	mov    	edi, edx
  0x1018	dec    	eax
  0x1019	mov    	ebx, ecx
  0x101b	jmp    	0x103a
  === BLOCK LINK ===
    0x101d
    0x103a
=== CODE BLOCK END ===

=== CODE BLOCK ADDRESS 0x101d ===
  0x101d	dec    	eax
  0x101e	mov    	edx, edi
  0x1020	dec    	eax
  0x1021	mov    	ecx, eax
  0x1023	dec    	eax
  === BLOCK LINK ===
    0x1024
=== CODE BLOCK END ===

=== CODE BLOCK ADDRESS 0x1024 ===
  0x1024	call   	dword ptr [0x3286]
  === BLOCK LINK ===
    0x102a
=== CODE BLOCK END ===

=== CODE BLOCK ADDRESS 0x102a ===
  0x102a	nop    	dword ptr [eax + eax]
  0x102f	test   	eax, eax
  0x1031	je     	0x104b
  === BLOCK LINK ===
    0x1033
    0x104b
=== CODE BLOCK END ===

=== CODE BLOCK ADDRESS 0x1033 ===
  0x1033	dec    	eax
  0x1034	add    	ebx, 0x10
  0x1037	dec    	eax
  0x1038	mov    	eax, dword ptr [ebx]
  0x103a	dec    	eax
  === BLOCK LINK ===
    0x103b
=== CODE BLOCK END ===

=== CODE BLOCK ADDRESS 0x103b ===
  0x103b	test   	eax, eax
  0x103d	jne    	0x101d
  === BLOCK LINK ===
    0x103f
    0x101d
=== CODE BLOCK END ===

=== CODE BLOCK ADDRESS 0x103f ===
  0x103f	dec    	eax
  0x1040	mov    	ebx, dword ptr [esp + 0x30]
  0x1044	dec    	eax
  0x1045	add    	esp, 0x20
  0x1048	pop    	edi
  === BLOCK LINK ===
    0x1049
=== CODE BLOCK END ===

=== CODE BLOCK ADDRESS 0x1049 ===
  0x1049	ret    	
  0x104a	int3   	
  === BLOCK LINK ===
    0x104b
    0x103f
=== CODE BLOCK END ===

=== CODE BLOCK ADDRESS 0x103a ===
=== CODE BLOCK END ===

=== CODE BLOCK ADDRESS 0x1050 ===
  0x1050	int3   	
  0x1051	int3   	
  0x1052	int3   	
  0x1053	int3   	
  0x1054	int3   	
  === BLOCK LINK ===
    0x1055
=== CODE BLOCK END ===

=== CODE BLOCK ADDRESS 0x1055 ===
  0x1055	int3   	
  0x1056	int3   	
  0x1057	int3   	
  0x1058	int3   	
  0x1059	int3   	
  === BLOCK LINK ===
    0x105a
=== CODE BLOCK END ===

=== CODE BLOCK ADDRESS 0x105a ===
  0x105a	int3   	
  0x105b	int3   	
  0x105c	int3   	
  0x105d	int3   	
  0x105e	int3   	
  === BLOCK LINK ===
    0x105f
=== CODE BLOCK END ===

=== CODE BLOCK ADDRESS 0x105f ===
  0x105f	int3   	
  0x1060	dec    	eax
  0x1061	mov    	dword ptr [esp + 8], ebx
  0x1065	dec    	eax
  0x1066	mov    	dword ptr [esp + 0x10], esi
  === BLOCK LINK ===
    0x106a
=== CODE BLOCK END ===

=== CODE BLOCK ADDRESS 0x106a ===
  0x106a	push   	edi
  0x106b	dec    	eax
  0x106c	sub    	esp, 0x20
  0x106f	mov    	edi, ecx
  0x1071	test   	ecx, ecx
  === BLOCK LINK ===
    0x1073
=== CODE BLOCK END ===

=== CODE BLOCK ADDRESS 0x1073 ===
  0x1073	dec    	eax
  0x1074	lea    	ecx, [0x5046]
  0x107a	dec    	eax
  0x107b	mov    	ebx, edx
  0x107d	jne    	0x109e
  === BLOCK LINK ===
    0x107f
    0x109e
=== CODE BLOCK END ===

=== CODE BLOCK ADDRESS 0x107f ===
  0x107f	dec    	eax
  0x1080	lea    	edx, [0x339a]
  0x1086	call   	0x1008
  === BLOCK LINK ===
    0x108b
    0x1008
=== CODE BLOCK END ===

=== CODE BLOCK ADDRESS 0x108b ===
  0x108b	dec    	eax
  0x108c	mov    	edx, ebx
  0x108e	xor    	ecx, ecx
  0x1090	dec    	eax
  0x1091	mov    	eax, dword ptr [eax + 8]
  === BLOCK LINK ===
    0x1094
=== CODE BLOCK END ===

=== CODE BLOCK ADDRESS 0x1094 ===
  0x1094	call   	dword ptr [0x32ee]
  === BLOCK LINK ===
    0x109a
=== CODE BLOCK END ===

=== CODE BLOCK ADDRESS 0x109a ===
  0x109a	xor    	eax, eax
  0x109c	jmp    	0x10f4
  === BLOCK LINK ===
    0x109e
    0x10f4
=== CODE BLOCK END ===

=== CODE BLOCK ADDRESS 0x109e ===
  0x109e	dec    	eax
  0x109f	mov    	edx, dword ptr [edx]
  0x10a1	call   	0x1008
  === BLOCK LINK ===
    0x10a6
    0x1008
=== CODE BLOCK END ===

=== CODE BLOCK ADDRESS 0x10a6 ===
  0x10a6	dec    	eax
  0x10a7	test   	eax, eax
  0x10a9	jne    	0x10e3
  === BLOCK LINK ===
    0x10ab
    0x10e3
=== CODE BLOCK END ===

=== CODE BLOCK ADDRESS 0x10ab ===
  0x10ab	dec    	eax
  0x10ac	mov    	edx, dword ptr [ebx]
  0x10ae	mov    	ecx, 0x4000271a
  0x10b3	call   	0x2558
  === BLOCK LINK ===
    0x10b8
    0x2558
=== CODE BLOCK END ===

=== CODE BLOCK ADDRESS 0x10b8 ===
  0x10b8	dec    	eax
  0x10b9	lea    	edx, [0x3361]
  0x10bf	dec    	eax
  0x10c0	lea    	ecx, [0x4ffa]
  0x10c6	call   	0x1008
  === BLOCK LINK ===
    0x10cb
    0x1008
=== CODE BLOCK END ===

=== CODE BLOCK ADDRESS 0x10cb ===
  0x10cb	dec    	eax
  0x10cc	lea    	edx, [ebx + 8]
  0x10cf	lea    	ecx, [edi - 1]
  0x10d2	dec    	eax
  0x10d3	mov    	eax, dword ptr [eax + 8]
  === BLOCK LINK ===
    0x10d6
=== CODE BLOCK END ===

=== CODE BLOCK ADDRESS 0x10d6 ===
  0x10d6	call   	dword ptr [0x32ac]
  === BLOCK LINK ===
    0x10dc
=== CODE BLOCK END ===

=== CODE BLOCK ADDRESS 0x10dc ===
  0x10dc	mov    	eax, 1
  0x10e1	jmp    	0x10f4
  === BLOCK LINK ===
    0x10e3
    0x10f4
=== CODE BLOCK END ===

=== CODE BLOCK ADDRESS 0x10e3 ===
  0x10e3	dec    	eax
  0x10e4	mov    	eax, dword ptr [eax + 8]
  0x10e7	dec    	eax
  0x10e8	lea    	edx, [ebx + 8]
  0x10eb	lea    	ecx, [edi - 1]
  === BLOCK LINK ===
    0x10ee
=== CODE BLOCK END ===

=== CODE BLOCK ADDRESS 0x10ee ===
  0x10ee	call   	dword ptr [0x3294]
  === BLOCK LINK ===
    0x10f4
=== CODE BLOCK END ===

=== CODE BLOCK ADDRESS 0x10f4 ===
  0x10f4	dec    	eax
  0x10f5	mov    	ebx, dword ptr [esp + 0x30]
  0x10f9	dec    	eax
  0x10fa	mov    	esi, dword ptr [esp + 0x38]
  0x10fe	dec    	eax
  === BLOCK LINK ===
    0x10ff
=== CODE BLOCK END ===

=== CODE BLOCK ADDRESS 0x10ff ===
  0x10ff	add    	esp, 0x20
  0x1102	pop    	edi
  0x1103	ret    	
  0x1104	int3   	
  0x1105	int3   	
  === BLOCK LINK ===
    0x1106
=== CODE BLOCK END ===

=== CODE BLOCK ADDRESS 0x104b ===
  0x104b	dec    	eax
  0x104c	mov    	eax, ebx
  0x104e	jmp    	0x103f
  === BLOCK LINK ===
    0x1050
=== CODE BLOCK END ===

=== CODE BLOCK ADDRESS 0x1106 ===
  0x1106	int3   	
  0x1107	int3   	
  0x1108	int3   	
  0x1109	int3   	
  0x110a	int3   	
  === BLOCK LINK ===
    0x110b
=== CODE BLOCK END ===

=== CODE BLOCK ADDRESS 0x110b ===
  0x110b	int3   	
  0x110c	dec    	eax
  0x110d	mov    	dword ptr [esp + 0x18], ebx
  0x1111	push   	ebp
  0x1112	push   	esi
  === BLOCK LINK ===
    0x1113
=== CODE BLOCK END ===

=== CODE BLOCK ADDRESS 0x1113 ===
  0x1113	push   	edi
  0x1114	inc    	ecx
  0x1115	push   	esi
  0x1116	inc    	ecx
  0x1117	push   	edi
  === BLOCK LINK ===
    0x1118
=== CODE BLOCK END ===

=== CODE BLOCK ADDRESS 0x1118 ===
  0x1118	dec    	eax
  0x1119	lea    	ebp, [esp - 0xb0]
  0x1120	dec    	eax
  0x1121	sub    	esp, 0x1b0
  0x1127	dec    	eax
  === BLOCK LINK ===
    0x1128
=== CODE BLOCK END ===

=== CODE BLOCK ADDRESS 0x1128 ===
  0x1128	mov    	eax, dword ptr [0x501a]
  0x112e	dec    	eax
  0x112f	xor    	eax, esp
  0x1131	dec    	eax
  0x1132	mov    	dword ptr [ebp + 0xa0], eax
  === BLOCK LINK ===
    0x1138
=== CODE BLOCK END ===

=== CODE BLOCK ADDRESS 0x1138 ===
  0x1138	dec    	eax
  0x1139	mov    	edi, edx
  0x113b	lea    	esi, [ecx - 1]
  0x113e	dec    	eax
  0x113f	lea    	edx, [0x336b]
  === BLOCK LINK ===
    0x1145
=== CODE BLOCK END ===

=== CODE BLOCK ADDRESS 0x1145 ===
  0x1145	xor    	ecx, ecx
  0x1147	dec    	eax
  0x1148	call   	dword ptr [0x316a]
  === BLOCK LINK ===
    0x114e
=== CODE BLOCK END ===

=== CODE BLOCK ADDRESS 0x114e ===
  0x114e	nop    	dword ptr [eax + eax]
  0x1153	xor    	ecx, ecx
  0x1155	dec    	eax
  0x1156	call   	dword ptr [0x2fec]
  === BLOCK LINK ===
    0x115c
=== CODE BLOCK END ===

=== CODE BLOCK ADDRESS 0x115c ===
  0x115c	nop    	dword ptr [eax + eax]
  0x1161	inc    	ebp
  0x1162	xor    	ecx, ecx
  0x1164	inc    	ebp
  0x1165	xor    	eax, eax
  === BLOCK LINK ===
    0x1167
=== CODE BLOCK END ===

=== CODE BLOCK ADDRESS 0x1167 ===
  0x1167	xor    	ecx, ecx
  0x1169	inc    	ecx
  0x116a	lea    	edx, [ecx + 1]
  0x116d	dec    	eax
  0x116e	call   	dword ptr [0x2fdc]
  === BLOCK LINK ===
    0x1174
=== CODE BLOCK END ===

=== CODE BLOCK ADDRESS 0x1174 ===
  0x1174	nop    	dword ptr [eax + eax]
  0x1179	dec    	eax
  0x117a	lea    	ecx, [ebp - 0x80]
  0x117d	mov    	dword ptr [ebp - 0x80], 0x11c
  0x1184	dec    	eax
  === BLOCK LINK ===
    0x1185
=== CODE BLOCK END ===

=== CODE BLOCK ADDRESS 0x1185 ===
  0x1185	call   	dword ptr [0x2fcd]
  === BLOCK LINK ===
    0x118b
=== CODE BLOCK END ===

=== CODE BLOCK ADDRESS 0x118b ===
  0x118b	nop    	dword ptr [eax + eax]
  0x1190	xor    	ebx, ebx
  0x1192	mov    	word ptr [esp + 0x74], 0x500
  0x1199	dec    	eax
  0x119a	lea    	eax, [esp + 0x68]
  === BLOCK LINK ===
    0x119e
=== CODE BLOCK END ===

=== CODE BLOCK ADDRESS 0x119e ===
  0x119e	mov    	dword ptr [esp + 0x70], ebx
  0x11a2	dec    	eax
  0x11a3	mov    	dword ptr [esp + 0x50], eax
  0x11a7	dec    	eax
  0x11a8	lea    	ecx, [esp + 0x70]
  === BLOCK LINK ===
    0x11ac
=== CODE BLOCK END ===

=== CODE BLOCK ADDRESS 0x11ac ===
  0x11ac	mov    	dword ptr [esp + 0x48], ebx
  0x11b0	inc    	ecx
  0x11b1	mov    	ecx, 0x220
  0x11b6	mov    	dword ptr [esp + 0x40], ebx
  0x11ba	inc    	esp
  === BLOCK LINK ===
    0x11bb
=== CODE BLOCK END ===

=== CODE BLOCK ADDRESS 0x11bb ===
  0x11bb	lea    	eax, [ebx + 0x20]
  0x11be	mov    	dword ptr [esp + 0x38], ebx
  0x11c2	mov    	dl, 2
  0x11c4	mov    	dword ptr [esp + 0x30], ebx
  0x11c8	mov    	dword ptr [esp + 0x28], ebx
  === BLOCK LINK ===
    0x11cc
=== CODE BLOCK END ===

=== CODE BLOCK ADDRESS 0x11cc ===
  0x11cc	mov    	dword ptr [esp + 0x20], ebx
  0x11d0	dec    	eax
  0x11d1	mov    	dword ptr [esp + 0x68], ebx
  0x11d5	dec    	eax
  0x11d6	call   	dword ptr [0x2f4c]
  === BLOCK LINK ===
    0x11dc
=== CODE BLOCK END ===

=== CODE BLOCK ADDRESS 0x11dc ===
  0x11dc	nop    	dword ptr [eax + eax]
  0x11e1	mov    	dword ptr [esp + 0x60], eax
  0x11e5	test   	eax, eax
  0x11e7	je     	0x12e2
  === BLOCK LINK ===
    0x11ed
    0x12e2
=== CODE BLOCK END ===

=== CODE BLOCK ADDRESS 0x11ed ===
  0x11ed	dec    	eax
  0x11ee	mov    	edx, dword ptr [esp + 0x68]
  0x11f2	dec    	esp
  0x11f3	lea    	eax, [esp + 0x60]
  0x11f7	xor    	ecx, ecx
  === BLOCK LINK ===
    0x11f9
=== CODE BLOCK END ===

=== CODE BLOCK ADDRESS 0x11f9 ===
  0x11f9	dec    	eax
  0x11fa	call   	dword ptr [0x2f30]
  === BLOCK LINK ===
    0x1200
=== CODE BLOCK END ===

=== CODE BLOCK ADDRESS 0x1200 ===
  0x1200	nop    	dword ptr [eax + eax]
  0x1205	neg    	eax
  0x1207	sbb    	ecx, ecx
  0x1209	and    	dword ptr [esp + 0x60], ecx
  0x120d	dec    	eax
  === BLOCK LINK ===
    0x120e
=== CODE BLOCK END ===

=== CODE BLOCK ADDRESS 0x120e ===
  0x120e	mov    	ecx, dword ptr [esp + 0x68]
  0x1212	dec    	eax
  0x1213	call   	dword ptr [0x2f1f]
  === BLOCK LINK ===
    0x1219
=== CODE BLOCK END ===

=== CODE BLOCK ADDRESS 0x1219 ===
  0x1219	nop    	dword ptr [eax + eax]
  0x121e	cmp    	dword ptr [esp + 0x60], ebx
  0x1222	je     	0x12e2
  === BLOCK LINK ===
    0x1228
    0x12e2
=== CODE BLOCK END ===

=== CODE BLOCK ADDRESS 0x1228 ===
  0x1228	test   	esi, esi
  0x122a	je     	0x1256
  === BLOCK LINK ===
    0x122c
    0x1256
=== CODE BLOCK END ===

=== CODE BLOCK ADDRESS 0x122c ===
  0x122c	dec    	eax
  0x122d	mov    	edx, dword ptr [edi + 8]
  0x1230	dec    	eax
  0x1231	lea    	ecx, [0x4ed9]
  0x1237	call   	0x1008
  === BLOCK LINK ===
    0x123c
    0x1008
=== CODE BLOCK END ===

=== CODE BLOCK ADDRESS 0x123c ===
  0x123c	dec    	esp
  0x123d	mov    	esi, eax
  0x123f	dec    	eax
  0x1240	test   	eax, eax
  0x1242	jne    	0x1267
  === BLOCK LINK ===
    0x1244
    0x1267
=== CODE BLOCK END ===

=== CODE BLOCK ADDRESS 0x1244 ===
  0x1244	dec    	eax
  0x1245	mov    	edx, dword ptr [edi + 8]
  0x1248	mov    	ecx, 0x4000271a
  0x124d	call   	0x2558
  === BLOCK LINK ===
    0x1252
    0x2558
=== CODE BLOCK END ===

=== CODE BLOCK ADDRESS 0x1252 ===
  0x1252	inc    	ecx
  0x1253	lea    	ebx, [esi + 1]
  === BLOCK LINK ===
    0x1256
    0x2558
=== CODE BLOCK END ===

=== CODE BLOCK ADDRESS 0x1260 ===
  0x1260	mov    	eax, ebx
  0x1262	jmp    	0x12f1
  === BLOCK LINK ===
    0x1267
    0x12f1
=== CODE BLOCK END ===

=== CODE BLOCK ADDRESS 0x1267 ===
  0x1267	dec    	eax
  0x1268	mov    	ecx, dword ptr [eax + 8]
  0x126b	sub    	esi, 1
  0x126e	jne    	0x1290
  === BLOCK LINK ===
    0x1270
    0x1290
=== CODE BLOCK END ===

=== CODE BLOCK ADDRESS 0x1270 ===
  0x1270	dec    	eax
  0x1271	lea    	edx, [0x31a9]
  0x1277	call   	0x1008
  === BLOCK LINK ===
    0x127c
    0x1008
=== CODE BLOCK END ===

=== CODE BLOCK ADDRESS 0x127c ===
  0x127c	dec    	eax
  0x127d	lea    	edx, [edi + 0x10]
  0x1280	xor    	ecx, ecx
  0x1282	dec    	eax
  0x1283	mov    	eax, dword ptr [eax + 8]
  === BLOCK LINK ===
    0x1286
=== CODE BLOCK END ===

=== CODE BLOCK ADDRESS 0x1286 ===
  0x1286	call   	dword ptr [0x30fc]
  === BLOCK LINK ===
    0x128c
=== CODE BLOCK END ===

=== CODE BLOCK ADDRESS 0x128c ===
  0x128c	xor    	eax, eax
  0x128e	jmp    	0x12f1
  === BLOCK LINK ===
    0x1290
    0x12f1
=== CODE BLOCK END ===

=== CODE BLOCK ADDRESS 0x1290 ===
  0x1290	dec    	eax
  0x1291	mov    	edx, dword ptr [edi + 0x10]
  0x1294	call   	0x1008
  === BLOCK LINK ===
    0x1299
    0x1008
=== CODE BLOCK END ===

=== CODE BLOCK ADDRESS 0x1299 ===
  0x1299	dec    	eax
  0x129a	test   	eax, eax
  0x129c	jne    	0x12cf
  === BLOCK LINK ===
    0x129e
    0x12cf
=== CODE BLOCK END ===

=== CODE BLOCK ADDRESS 0x129e ===
  0x129e	dec    	eax
  0x129f	mov    	edx, dword ptr [edi + 0x10]
  0x12a2	mov    	ecx, 0x4000271a
  0x12a7	call   	0x2558
  === BLOCK LINK ===
    0x12ac
    0x2558
=== CODE BLOCK END ===

=== CODE BLOCK ADDRESS 0x12ac ===
  0x12ac	dec    	ecx
  0x12ad	mov    	ecx, dword ptr [esi + 8]
  0x12b0	dec    	eax
  0x12b1	lea    	edx, [0x3169]
  0x12b7	call   	0x1008
  === BLOCK LINK ===
    0x12bc
    0x1008
=== CODE BLOCK END ===

=== CODE BLOCK ADDRESS 0x12bc ===
  0x12bc	dec    	eax
  0x12bd	lea    	edx, [edi + 0x18]
  0x12c0	lea    	ecx, [esi - 1]
  0x12c3	dec    	eax
  0x12c4	mov    	eax, dword ptr [eax + 8]
  === BLOCK LINK ===
    0x12c7
=== CODE BLOCK END ===

=== CODE BLOCK ADDRESS 0x12c7 ===
  0x12c7	call   	dword ptr [0x30bb]
  === BLOCK LINK ===
    0x12cd
=== CODE BLOCK END ===

=== CODE BLOCK ADDRESS 0x12cd ===
  0x12cd	jmp    	0x12ec
  === BLOCK LINK ===
    0x12cf
    0x12ec
=== CODE BLOCK END ===

=== CODE BLOCK ADDRESS 0x12cf ===
  0x12cf	dec    	eax
  0x12d0	mov    	eax, dword ptr [eax + 8]
  0x12d3	dec    	eax
  0x12d4	lea    	edx, [edi + 0x18]
  0x12d7	lea    	ecx, [esi - 1]
  === BLOCK LINK ===
    0x12da
=== CODE BLOCK END ===

=== CODE BLOCK ADDRESS 0x12da ===
  0x12da	call   	dword ptr [0x30a8]
  === BLOCK LINK ===
    0x12e0
=== CODE BLOCK END ===

=== CODE BLOCK ADDRESS 0x12e0 ===
  0x12e0	jmp    	0x12f1
  === BLOCK LINK ===
    0x12e2
    0x12f1
=== CODE BLOCK END ===

=== CODE BLOCK ADDRESS 0x12e2 ===
  0x12e2	mov    	ecx, 0x40002719
  0x12e7	call   	0x2558
  === BLOCK LINK ===
    0x12ec
    0x2558
=== CODE BLOCK END ===

=== CODE BLOCK ADDRESS 0x12ec ===
  0x12ec	mov    	eax, 1
  === BLOCK LINK ===
    0x12f1
=== CODE BLOCK END ===

=== CODE BLOCK ADDRESS 0x12fb ===
  0x12fb	call   	0x29b0
  === BLOCK LINK ===
    0x1300
    0x29b0
=== CODE BLOCK END ===

=== CODE BLOCK ADDRESS 0x1300 ===
  0x1300	dec    	eax
  0x1301	mov    	ebx, dword ptr [esp + 0x1f0]
  0x1308	dec    	eax
  0x1309	add    	esp, 0x1b0
  0x130f	inc    	ecx
  === BLOCK LINK ===
    0x1310
=== CODE BLOCK END ===

=== CODE BLOCK ADDRESS 0x1310 ===
  0x1310	pop    	edi
  0x1311	inc    	ecx
  0x1312	pop    	esi
  0x1313	pop    	edi
  0x1314	pop    	esi
  === BLOCK LINK ===
    0x1315
=== CODE BLOCK END ===

=== CODE BLOCK ADDRESS 0x1315 ===
  0x1315	pop    	ebp
  0x1316	ret    	
  0x1317	int3   	
  0x1318	int3   	
  0x1319	int3   	
  === BLOCK LINK ===
    0x131a
=== CODE BLOCK END ===

=== CODE BLOCK ADDRESS 0x131a ===
  0x131a	int3   	
  0x131b	int3   	
  0x131c	int3   	
  0x131d	int3   	
  0x131e	int3   	
  === BLOCK LINK ===
    0x131f
=== CODE BLOCK END ===

=== CODE BLOCK ADDRESS 0x131f ===
  0x131f	int3   	
  0x1320	dec    	eax
  0x1321	mov    	dword ptr [esp + 8], ebx
  0x1325	push   	ebp
  0x1326	dec    	eax
  === BLOCK LINK ===
    0x1327
=== CODE BLOCK END ===

=== CODE BLOCK ADDRESS 0x1327 ===
  0x1327	lea    	ebp, [esp - 0xfa0]
  0x132e	mov    	eax, 0x10a0
  0x1333	call   	0x2f70
  === BLOCK LINK ===
    0x1338
    0x2f70
=== CODE BLOCK END ===

=== CODE BLOCK ADDRESS 0x1338 ===
  0x1338	dec    	eax
  0x1339	sub    	esp, eax
  0x133b	dec    	eax
  0x133c	mov    	eax, dword ptr [0x4e06]
  0x1342	dec    	eax
  === BLOCK LINK ===
    0x1343
=== CODE BLOCK END ===

=== CODE BLOCK ADDRESS 0x1343 ===
  0x1343	xor    	eax, esp
  0x1345	dec    	eax
  0x1346	mov    	dword ptr [ebp + 0xf90], eax
  0x134c	xor    	ebx, ebx
  0x134e	dec    	eax
  === BLOCK LINK ===
    0x134f
=== CODE BLOCK END ===

=== CODE BLOCK ADDRESS 0x134f ===
  0x134f	mov    	eax, edx
  0x1351	cmp    	ecx, 1
  0x1354	jne    	0x13b9
  === BLOCK LINK ===
    0x1356
    0x13b9
=== CODE BLOCK END ===

=== CODE BLOCK ADDRESS 0x1356 ===
  0x1356	dec    	eax
  0x1357	mov    	ecx, dword ptr [eax]
  0x1359	dec    	eax
  0x135a	lea    	edx, [esp + 0x78]
  0x135e	dec    	eax
  === BLOCK LINK ===
    0x135f
=== CODE BLOCK END ===

=== CODE BLOCK ADDRESS 0x135f ===
  0x135f	call   	dword ptr [0x2ebb]
  === BLOCK LINK ===
    0x1365
=== CODE BLOCK END ===

=== CODE BLOCK ADDRESS 0x1365 ===
  0x1365	nop    	dword ptr [eax + eax]
  0x136a	test   	eax, eax
  0x136c	je     	0x1382
  === BLOCK LINK ===
    0x136e
    0x1382
=== CODE BLOCK END ===

=== CODE BLOCK ADDRESS 0x136e ===
  0x136e	mov    	ecx, 0x40002716
  0x1373	call   	0x2558
  === BLOCK LINK ===
    0x1378
    0x2558
=== CODE BLOCK END ===

=== CODE BLOCK ADDRESS 0x1378 ===
  0x1378	mov    	eax, 1
  0x137d	jmp    	0x14dc
  === BLOCK LINK ===
    0x1382
    0x14dc
=== CODE BLOCK END ===

=== CODE BLOCK ADDRESS 0x1382 ===
  0x1382	inc    	ebp
  0x1383	xor    	eax, eax
  0x1385	dec    	eax
  0x1386	lea    	ecx, [esp + 0x78]
  0x138a	mov    	edx, 0x20001
  === BLOCK LINK ===
    0x138f
=== CODE BLOCK END ===

=== CODE BLOCK ADDRESS 0x138f ===
  0x138f	dec    	eax
  0x1390	call   	dword ptr [0x2e9a]
  === BLOCK LINK ===
    0x1396
=== CODE BLOCK END ===

=== CODE BLOCK ADDRESS 0x1396 ===
  0x1396	nop    	dword ptr [eax + eax]
  0x139b	dec    	eax
  0x139c	mov    	ebx, eax
  0x139e	dec    	eax
  0x139f	cmp    	eax, -1
  === BLOCK LINK ===
    0x13a2
=== CODE BLOCK END ===

=== CODE BLOCK ADDRESS 0x13a2 ===
  0x13a2	jne    	0x13b9
  === BLOCK LINK ===
    0x13a4
    0x13b9
=== CODE BLOCK END ===

=== CODE BLOCK ADDRESS 0x13a4 ===
  0x13a4	dec    	eax
  0x13a5	call   	dword ptr [0x2db5]
  === BLOCK LINK ===
    0x13ab
=== CODE BLOCK END ===

=== CODE BLOCK ADDRESS 0x13ab ===
  0x13ab	nop    	dword ptr [eax + eax]
  0x13b0	mov    	ecx, eax
  0x13b2	call   	0x23e8
  === BLOCK LINK ===
    0x13b7
    0x23e8
=== CODE BLOCK END ===

=== CODE BLOCK ADDRESS 0x13b7 ===
  0x13b7	jmp    	0x1378
  === BLOCK LINK ===
    0x13b9
=== CODE BLOCK END ===

=== CODE BLOCK ADDRESS 0x13b9 ===
  0x13b9	mov    	ecx, 0x40002718
  0x13be	call   	0x2558
  === BLOCK LINK ===
    0x13c3
=== CODE BLOCK END ===

=== CODE BLOCK ADDRESS 0x13c3 ===
  0x13c3	xorps  	xmm0, xmm0
  0x13c6	xor    	eax, eax
  0x13c8	movups  	xmmword ptr [esp + 0x50], xmm0
  0x13cd	mov    	dword ptr [esp + 0x70], eax
  0x13d1	movups  	xmmword ptr [esp + 0x60], xmm0
  === BLOCK LINK ===
    0x13d6
=== CODE BLOCK END ===

=== CODE BLOCK ADDRESS 0x13d6 ===
  0x13d6	jmp    	0x14a9
  === BLOCK LINK ===
    0x13db
=== CODE BLOCK END ===

=== CODE BLOCK ADDRESS 0x13db ===
  0x13db	test   	eax, eax
  0x13dd	js     	0x14fd
  === BLOCK LINK ===
    0x13e3
=== CODE BLOCK END ===

=== CODE BLOCK ADDRESS 0x13e3 ===
  0x13e3	dec    	eax
  0x13e4	lea    	edx, [esp + 0x40]
  0x13e8	dec    	eax
  0x13e9	lea    	ecx, [esp + 0x64]
  0x13ed	dec    	eax
  === BLOCK LINK ===
    0x13ee
=== CODE BLOCK END ===

=== CODE BLOCK ADDRESS 0x13ee ===
  0x13ee	call   	dword ptr [0x2f64]
  === BLOCK LINK ===
    0x13f4
=== CODE BLOCK END ===

=== CODE BLOCK ADDRESS 0x13f4 ===
  0x13f4	nop    	dword ptr [eax + eax]
  0x13f9	dec    	eax
  0x13fa	mov    	ecx, dword ptr [esp + 0x48]
  0x13fe	call   	0x2274
  === BLOCK LINK ===
    0x1403
=== CODE BLOCK END ===

=== CODE BLOCK ADDRESS 0x1403 ===
  0x1403	dec    	eax
  0x1404	lea    	ecx, [0x30ae]
  0x140a	call   	0x2274
  === BLOCK LINK ===
    0x140f
=== CODE BLOCK END ===

=== CODE BLOCK ADDRESS 0x140f ===
  0x140f	dec    	esp
  0x1410	lea    	ecx, [esp + 0x64]
  0x1414	dec    	eax
  0x1415	mov    	dword ptr [esp + 0x20], ebx
  0x1419	inc    	ebp
  === BLOCK LINK ===
    0x141a
=== CODE BLOCK END ===

=== CODE BLOCK ADDRESS 0x141a ===
  0x141a	xor    	eax, eax
  0x141c	dec    	eax
  0x141d	lea    	ecx, [esp + 0x38]
  0x1421	mov    	edx, 0x120001
  0x1426	dec    	eax
  === BLOCK LINK ===
    0x1427
=== CODE BLOCK END ===

=== CODE BLOCK ADDRESS 0x1427 ===
  0x1427	call   	dword ptr [0x2f23]
  === BLOCK LINK ===
    0x142d
=== CODE BLOCK END ===

=== CODE BLOCK ADDRESS 0x142d ===
  0x142d	nop    	dword ptr [eax + eax]
  0x1432	test   	eax, eax
  0x1434	js     	0x1477
  === BLOCK LINK ===
    0x1436
=== CODE BLOCK END ===

=== CODE BLOCK ADDRESS 0x1436 ===
  0x1436	dec    	eax
  0x1437	mov    	ecx, dword ptr [esp + 0x38]
  0x143b	dec    	esp
  0x143c	lea    	eax, [ebp - 0x70]
  0x143f	dec    	eax
  === BLOCK LINK ===
    0x1440
=== CODE BLOCK END ===

=== CODE BLOCK ADDRESS 0x1440 ===
  0x1440	and    	dword ptr [esp + 0x20], 0
  0x1445	inc    	ecx
  0x1446	mov    	ecx, 0x1000
  0x144b	mov    	edx, 1
  0x1450	dec    	eax
  === BLOCK LINK ===
    0x1451
=== CODE BLOCK END ===

=== CODE BLOCK ADDRESS 0x1451 ===
  0x1451	call   	dword ptr [0x2ef1]
  === BLOCK LINK ===
    0x1457
=== CODE BLOCK END ===

=== CODE BLOCK ADDRESS 0x1457 ===
  0x1457	nop    	dword ptr [eax + eax]
  0x145c	test   	eax, eax
  0x145e	js     	0x1477
  === BLOCK LINK ===
    0x1460
=== CODE BLOCK END ===

=== CODE BLOCK ADDRESS 0x1460 ===
  0x1460	dec    	eax
  0x1461	lea    	ecx, [0x3051]
  0x1467	call   	0x2274
  === BLOCK LINK ===
    0x146c
=== CODE BLOCK END ===

=== CODE BLOCK ADDRESS 0x146c ===
  0x146c	dec    	eax
  0x146d	lea    	ecx, [ebp - 0x58]
  0x1470	call   	0x2274
  === BLOCK LINK ===
    0x1475
=== CODE BLOCK END ===

=== CODE BLOCK ADDRESS 0x1475 ===
  0x1475	jmp    	0x148c
  === BLOCK LINK ===
    0x1477
=== CODE BLOCK END ===

=== CODE BLOCK ADDRESS 0x1477 ===
  0x1477	mov    	ecx, eax
  0x1479	dec    	eax
  0x147a	call   	dword ptr [0x2ee0]
  === BLOCK LINK ===
    0x1480
=== CODE BLOCK END ===

=== CODE BLOCK ADDRESS 0x1480 ===
  0x1480	nop    	dword ptr [eax + eax]
  0x1485	mov    	ecx, eax
  0x1487	call   	0x23e8
  === BLOCK LINK ===
    0x148c
=== CODE BLOCK END ===

=== CODE BLOCK ADDRESS 0x148c ===
  0x148c	dec    	eax
  0x148d	lea    	ecx, [0x3029]
  0x1493	call   	0x2274
  === BLOCK LINK ===
    0x1498
=== CODE BLOCK END ===

=== CODE BLOCK ADDRESS 0x1498 ===
  0x1498	dec    	eax
  0x1499	lea    	ecx, [esp + 0x40]
  0x149d	dec    	eax
  0x149e	call   	dword ptr [0x2ecc]
  === BLOCK LINK ===
    0x14a4
=== CODE BLOCK END ===

=== CODE BLOCK ADDRESS 0x14a4 ===
  0x14a4	nop    	dword ptr [eax + eax]
  0x14a9	dec    	eax
  0x14aa	lea    	eax, [esp + 0x30]
  0x14ae	inc    	ecx
  0x14af	mov    	ecx, 0x24
  === BLOCK LINK ===
    0x14b4
=== CODE BLOCK END ===

=== CODE BLOCK ADDRESS 0x14b4 ===
  0x14b4	dec    	esp
  0x14b5	lea    	eax, [esp + 0x50]
  0x14b9	dec    	eax
  0x14ba	mov    	dword ptr [esp + 0x20], eax
  0x14be	xor    	edx, edx
  === BLOCK LINK ===
    0x14c0
=== CODE BLOCK END ===

=== CODE BLOCK ADDRESS 0x14c0 ===
  0x14c0	dec    	eax
  0x14c1	mov    	ecx, ebx
  0x14c3	dec    	eax
  0x14c4	call   	dword ptr [0x2e9e]
  === BLOCK LINK ===
    0x14ca
=== CODE BLOCK END ===

=== CODE BLOCK ADDRESS 0x14ca ===
  0x14ca	nop    	dword ptr [eax + eax]
  0x14cf	cmp    	eax, 0x8000001a
  0x14d4	jne    	0x13db
  === BLOCK LINK ===
    0x14da
=== CODE BLOCK END ===

=== CODE BLOCK ADDRESS 0x14da ===
  0x14da	xor    	eax, eax
  === BLOCK LINK ===
    0x14dc
=== CODE BLOCK END ===

=== CODE BLOCK ADDRESS 0x14e6 ===
  0x14e6	call   	0x29b0
  === BLOCK LINK ===
    0x14eb
=== CODE BLOCK END ===

=== CODE BLOCK ADDRESS 0x14eb ===
  0x14eb	dec    	eax
  0x14ec	mov    	ebx, dword ptr [esp + 0x10b0]
  0x14f3	dec    	eax
  0x14f4	add    	esp, 0x10a0
  0x14fa	pop    	ebp
  === BLOCK LINK ===
    0x14fb
=== CODE BLOCK END ===

=== CODE BLOCK ADDRESS 0x14fb ===
  0x14fb	ret    	
  0x14fc	int3   	
  0x14fd	mov    	ecx, eax
  0x14ff	dec    	eax
  0x1500	call   	dword ptr [0x2e5a]
  === BLOCK LINK ===
    0x1506
=== CODE BLOCK END ===

=== CODE BLOCK ADDRESS 0x1506 ===
  0x1506	nop    	dword ptr [eax + eax]
  0x150b	jmp    	0x13b0
  === BLOCK LINK ===
    0x1510
=== CODE BLOCK END ===

=== CODE BLOCK ADDRESS 0x1510 ===
  0x1510	int3   	
  0x1511	int3   	
  0x1512	int3   	
  0x1513	int3   	
  0x1514	int3   	
  === BLOCK LINK ===
    0x1515
=== CODE BLOCK END ===

=== CODE BLOCK ADDRESS 0x1515 ===
  0x1515	int3   	
  0x1516	int3   	
  0x1517	int3   	
  0x1518	int3   	
  0x1519	int3   	
  === BLOCK LINK ===
    0x151a
=== CODE BLOCK END ===

=== CODE BLOCK ADDRESS 0x151a ===
  0x151a	int3   	
  0x151b	int3   	
  0x151c	int3   	
  0x151d	int3   	
  0x151e	int3   	
  === BLOCK LINK ===
    0x151f
=== CODE BLOCK END ===

=== CODE BLOCK ADDRESS 0x151f ===
  0x151f	int3   	
  0x1520	inc    	eax
  0x1521	push   	ebp
  0x1522	dec    	eax
  0x1523	lea    	ebp, [esp - 0xf90]
  === BLOCK LINK ===
    0x152a
=== CODE BLOCK END ===

=== CODE BLOCK ADDRESS 0x152a ===
  0x152a	mov    	eax, 0x1090
  0x152f	call   	0x2f70
  === BLOCK LINK ===
    0x1534
=== CODE BLOCK END ===

=== CODE BLOCK ADDRESS 0x1534 ===
  0x1534	dec    	eax
  0x1535	sub    	esp, eax
  0x1537	dec    	eax
  0x1538	mov    	eax, dword ptr [0x4c0a]
  0x153e	dec    	eax
  === BLOCK LINK ===
    0x153f
=== CODE BLOCK END ===

=== CODE BLOCK ADDRESS 0x153f ===
  0x153f	xor    	eax, esp
  0x1541	dec    	eax
  0x1542	mov    	dword ptr [ebp + 0xf80], eax
  0x1548	mov    	ecx, 0x40002717
  0x154d	call   	0x2558
  === BLOCK LINK ===
    0x1552
=== CODE BLOCK END ===

=== CODE BLOCK ADDRESS 0x1552 ===
  0x1552	xorps  	xmm0, xmm0
  0x1555	xor    	eax, eax
  0x1557	movups  	xmmword ptr [esp + 0x50], xmm0
  0x155c	mov    	dword ptr [esp + 0x70], eax
  0x1560	movups  	xmmword ptr [esp + 0x60], xmm0
  === BLOCK LINK ===
    0x1565
=== CODE BLOCK END ===

=== CODE BLOCK ADDRESS 0x1565 ===
  0x1565	jmp    	0x1634
  === BLOCK LINK ===
    0x156a
=== CODE BLOCK END ===

=== CODE BLOCK ADDRESS 0x156a ===
  0x156a	test   	eax, eax
  0x156c	js     	0x1681
  === BLOCK LINK ===
    0x1572
=== CODE BLOCK END ===

=== CODE BLOCK ADDRESS 0x1572 ===
  0x1572	dec    	eax
  0x1573	lea    	edx, [esp + 0x40]
  0x1577	dec    	eax
  0x1578	lea    	ecx, [esp + 0x64]
  0x157c	dec    	eax
  === BLOCK LINK ===
    0x157d
=== CODE BLOCK END ===

=== CODE BLOCK ADDRESS 0x157d ===
  0x157d	call   	dword ptr [0x2dd5]
  === BLOCK LINK ===
    0x1583
=== CODE BLOCK END ===

=== CODE BLOCK ADDRESS 0x1583 ===
  0x1583	nop    	dword ptr [eax + eax]
  0x1588	dec    	eax
  0x1589	mov    	ecx, dword ptr [esp + 0x48]
  0x158d	call   	0x2274
  === BLOCK LINK ===
    0x1592
=== CODE BLOCK END ===

=== CODE BLOCK ADDRESS 0x1592 ===
  0x1592	dec    	eax
  0x1593	lea    	ecx, [0x2f1f]
  0x1599	call   	0x2274
  === BLOCK LINK ===
    0x159e
=== CODE BLOCK END ===

=== CODE BLOCK ADDRESS 0x159e ===
  0x159e	and    	dword ptr [esp + 0x28], 0
  0x15a3	dec    	eax
  0x15a4	lea    	eax, [esp + 0x64]
  0x15a8	inc    	ebp
  0x15a9	xor    	ecx, ecx
  === BLOCK LINK ===
    0x15ab
=== CODE BLOCK END ===

=== CODE BLOCK ADDRESS 0x15ab ===
  0x15ab	dec    	eax
  0x15ac	mov    	dword ptr [esp + 0x20], eax
  0x15b0	inc    	ebp
  0x15b1	xor    	eax, eax
  0x15b3	dec    	eax
  === BLOCK LINK ===
    0x15b4
=== CODE BLOCK END ===

=== CODE BLOCK ADDRESS 0x15b4 ===
  0x15b4	lea    	ecx, [esp + 0x38]
  0x15b8	mov    	edx, 0x20001
  0x15bd	dec    	eax
  0x15be	call   	dword ptr [0x2d7c]
  === BLOCK LINK ===
    0x15c4
=== CODE BLOCK END ===

=== CODE BLOCK ADDRESS 0x15c4 ===
  0x15c4	nop    	dword ptr [eax + eax]
  0x15c9	test   	eax, eax
  0x15cb	js     	0x160e
  === BLOCK LINK ===
    0x15cd
=== CODE BLOCK END ===

=== CODE BLOCK ADDRESS 0x15cd ===
  0x15cd	dec    	eax
  0x15ce	mov    	ecx, dword ptr [esp + 0x38]
  0x15d2	dec    	esp
  0x15d3	lea    	eax, [ebp - 0x80]
  0x15d6	dec    	eax
  === BLOCK LINK ===
    0x15d7
=== CODE BLOCK END ===

=== CODE BLOCK ADDRESS 0x15d7 ===
  0x15d7	and    	dword ptr [esp + 0x20], 0
  0x15dc	inc    	ecx
  0x15dd	mov    	ecx, 0x1000
  0x15e2	mov    	edx, 2
  0x15e7	dec    	eax
  === BLOCK LINK ===
    0x15e8
=== CODE BLOCK END ===

=== CODE BLOCK ADDRESS 0x15e8 ===
  0x15e8	call   	dword ptr [0x2d4a]
  === BLOCK LINK ===
    0x15ee
=== CODE BLOCK END ===

=== CODE BLOCK ADDRESS 0x15ee ===
  0x15ee	nop    	dword ptr [eax + eax]
  0x15f3	test   	eax, eax
  0x15f5	js     	0x160e
  === BLOCK LINK ===
    0x15f7
=== CODE BLOCK END ===

=== CODE BLOCK ADDRESS 0x15f7 ===
  0x15f7	dec    	eax
  0x15f8	lea    	ecx, [ebp - 0x7c]
  0x15fb	call   	0x2274
  === BLOCK LINK ===
    0x1600
=== CODE BLOCK END ===

=== CODE BLOCK ADDRESS 0x1600 ===
  0x1600	dec    	eax
  0x1601	lea    	ecx, [0x2eb5]
  0x1607	call   	0x2274
  === BLOCK LINK ===
    0x160c
=== CODE BLOCK END ===

=== CODE BLOCK ADDRESS 0x160c ===
  0x160c	jmp    	0x1623
  === BLOCK LINK ===
    0x160e
=== CODE BLOCK END ===

=== CODE BLOCK ADDRESS 0x160e ===
  0x160e	mov    	ecx, eax
  0x1610	dec    	eax
  0x1611	call   	dword ptr [0x2d49]
  === BLOCK LINK ===
    0x1617
=== CODE BLOCK END ===

=== CODE BLOCK ADDRESS 0x1617 ===
  0x1617	nop    	dword ptr [eax + eax]
  0x161c	mov    	ecx, eax
  0x161e	call   	0x23e8
  === BLOCK LINK ===
    0x1623
=== CODE BLOCK END ===

=== CODE BLOCK ADDRESS 0x1623 ===
  0x1623	dec    	eax
  0x1624	lea    	ecx, [esp + 0x40]
  0x1628	dec    	eax
  0x1629	call   	dword ptr [0x2d41]
  === BLOCK LINK ===
    0x162f
=== CODE BLOCK END ===

=== CODE BLOCK ADDRESS 0x162f ===
  0x162f	nop    	dword ptr [eax + eax]
  0x1634	inc    	ecx
  0x1635	mov    	ecx, 0x24
  0x163a	dec    	eax
  0x163b	lea    	eax, [esp + 0x30]
  === BLOCK LINK ===
    0x163f
=== CODE BLOCK END ===

=== CODE BLOCK ADDRESS 0x163f ===
  0x163f	dec    	esp
  0x1640	lea    	eax, [esp + 0x50]
  0x1644	dec    	eax
  0x1645	mov    	dword ptr [esp + 0x20], eax
  0x1649	xor    	ecx, ecx
  === BLOCK LINK ===
    0x164b
=== CODE BLOCK END ===

=== CODE BLOCK ADDRESS 0x164b ===
  0x164b	inc    	ecx
  0x164c	lea    	edx, [ecx - 0x23]
  0x164f	dec    	eax
  0x1650	call   	dword ptr [0x2d12]
  === BLOCK LINK ===
    0x1656
=== CODE BLOCK END ===

=== CODE BLOCK ADDRESS 0x1656 ===
  0x1656	nop    	dword ptr [eax + eax]
  0x165b	cmp    	eax, 0x8000001a
  0x1660	jne    	0x156a
  === BLOCK LINK ===
    0x1666
=== CODE BLOCK END ===

=== CODE BLOCK ADDRESS 0x1666 ===
  0x1666	xor    	eax, eax
  0x1668	dec    	eax
  0x1669	mov    	ecx, dword ptr [ebp + 0xf80]
  0x166f	dec    	eax
  0x1670	xor    	ecx, esp
  === BLOCK LINK ===
    0x1672
=== CODE BLOCK END ===

=== CODE BLOCK ADDRESS 0x1672 ===
  0x1672	call   	0x29b0
  === BLOCK LINK ===
    0x1677
=== CODE BLOCK END ===

=== CODE BLOCK ADDRESS 0x1677 ===
  0x1677	dec    	eax
  0x1678	add    	esp, 0x1090
  0x167e	pop    	ebp
  0x167f	ret    	
  0x1680	int3   	
  === BLOCK LINK ===
    0x1681
=== CODE BLOCK END ===

=== CODE BLOCK ADDRESS 0x1681 ===
  0x1681	mov    	ecx, eax
  0x1683	dec    	eax
  0x1684	call   	dword ptr [0x2cd6]
  === BLOCK LINK ===
    0x168a
=== CODE BLOCK END ===

=== CODE BLOCK ADDRESS 0x168a ===
  0x168a	nop    	dword ptr [eax + eax]
  0x168f	mov    	ecx, eax
  0x1691	call   	0x23e8
  === BLOCK LINK ===
    0x1696
=== CODE BLOCK END ===

=== CODE BLOCK ADDRESS 0x1696 ===
  0x1696	mov    	eax, 1
  0x169b	jmp    	0x1668
  === BLOCK LINK ===
    0x169d
=== CODE BLOCK END ===

=== CODE BLOCK ADDRESS 0x169d ===
  0x169d	int3   	
  0x169e	int3   	
  0x169f	int3   	
  0x16a0	int3   	
  0x16a1	int3   	
  === BLOCK LINK ===
    0x16a2
=== CODE BLOCK END ===

=== CODE BLOCK ADDRESS 0x16a2 ===
  0x16a2	int3   	
  0x16a3	int3   	
  0x16a4	int3   	
  0x16a5	int3   	
  0x16a6	int3   	
  === BLOCK LINK ===
    0x16a7
=== CODE BLOCK END ===

=== CODE BLOCK ADDRESS 0x16a7 ===
  0x16a7	int3   	
  0x16a8	int3   	
  0x16a9	int3   	
  0x16aa	int3   	
  0x16ab	int3   	
  === BLOCK LINK ===
    0x16ac
=== CODE BLOCK END ===

=== CODE BLOCK ADDRESS 0x16ac ===
  0x16ac	int3   	
  0x16ad	int3   	
  0x16ae	int3   	
  0x16af	int3   	
  0x16b0	dec    	eax
  === BLOCK LINK ===
    0x16b1
=== CODE BLOCK END ===

=== CODE BLOCK ADDRESS 0x16b1 ===
  0x16b1	sub    	esp, 0x28
  0x16b4	mov    	ecx, 0x40002712
  0x16b9	call   	0x2558
  === BLOCK LINK ===
    0x16be
=== CODE BLOCK END ===

=== CODE BLOCK ADDRESS 0x16be ===
  0x16be	xor    	eax, eax
  0x16c0	dec    	eax
  0x16c1	add    	esp, 0x28
  0x16c4	ret    	
  0x16c5	int3   	
  === BLOCK LINK ===
    0x16c6
=== CODE BLOCK END ===

=== CODE BLOCK ADDRESS 0x1008 ===
  0x1008	dec    	eax
  0x1009	mov    	dword ptr [esp + 8], ebx
  === BLOCK LINK ===
    0x100d
=== CODE BLOCK END ===

=== CODE BLOCK ADDRESS 0x16c6 ===
  0x16c6	int3   	
  0x16c7	int3   	
  0x16c8	int3   	
  0x16c9	int3   	
  0x16ca	int3   	
  === BLOCK LINK ===
    0x16cb
=== CODE BLOCK END ===

=== CODE BLOCK ADDRESS 0x16cb ===
  0x16cb	int3   	
  0x16cc	int3   	
  0x16cd	int3   	
  0x16ce	int3   	
  0x16cf	int3   	
  === BLOCK LINK ===
    0x16d0
=== CODE BLOCK END ===

=== CODE BLOCK ADDRESS 0x16d0 ===
  0x16d0	dec    	eax
  0x16d1	mov    	dword ptr [esp + 8], ebx
  0x16d5	dec    	eax
  0x16d6	mov    	dword ptr [esp + 0x18], esi
  0x16da	push   	edi
  === BLOCK LINK ===
    0x16db
=== CODE BLOCK END ===

=== CODE BLOCK ADDRESS 0x16db ===
  0x16db	dec    	eax
  0x16dc	sub    	esp, 0x60
  0x16df	dec    	eax
  0x16e0	mov    	eax, dword ptr [0x4a62]
  0x16e6	dec    	eax
  === BLOCK LINK ===
    0x16e7
=== CODE BLOCK END ===

=== CODE BLOCK ADDRESS 0x16e7 ===
  0x16e7	xor    	eax, esp
  0x16e9	dec    	eax
  0x16ea	mov    	dword ptr [esp + 0x50], eax
  0x16ee	dec    	eax
  0x16ef	mov    	ebx, edx
  === BLOCK LINK ===
    0x16f1
=== CODE BLOCK END ===

=== CODE BLOCK ADDRESS 0x16f1 ===
  0x16f1	cmp    	ecx, 3
  0x16f4	jne    	0x1841
  === BLOCK LINK ===
    0x16fa
=== CODE BLOCK END ===

=== CODE BLOCK ADDRESS 0x16fa ===
  0x16fa	dec    	eax
  0x16fb	mov    	ecx, dword ptr [ebx]
  0x16fd	dec    	eax
  0x16fe	lea    	edx, [esp + 0x20]
  0x1702	dec    	eax
  === BLOCK LINK ===
    0x1703
=== CODE BLOCK END ===

=== CODE BLOCK ADDRESS 0x1703 ===
  0x1703	call   	dword ptr [0x2b17]
  === BLOCK LINK ===
    0x1709
=== CODE BLOCK END ===

=== CODE BLOCK ADDRESS 0x1709 ===
  0x1709	nop    	dword ptr [eax + eax]
  0x170e	test   	eax, eax
  0x1710	jne    	0x1841
  === BLOCK LINK ===
    0x1716
=== CODE BLOCK END ===

=== CODE BLOCK ADDRESS 0x1716 ===
  0x1716	dec    	eax
  0x1717	mov    	ecx, dword ptr [ebx + 8]
  0x171a	dec    	eax
  0x171b	lea    	edx, [esp + 0x30]
  0x171f	dec    	eax
  === BLOCK LINK ===
    0x1720
=== CODE BLOCK END ===

=== CODE BLOCK ADDRESS 0x1720 ===
  0x1720	call   	dword ptr [0x2afa]
  === BLOCK LINK ===
    0x1726
=== CODE BLOCK END ===

=== CODE BLOCK ADDRESS 0x1726 ===
  0x1726	nop    	dword ptr [eax + eax]
  0x172b	test   	eax, eax
  0x172d	jne    	0x1841
  === BLOCK LINK ===
    0x1733
=== CODE BLOCK END ===

=== CODE BLOCK ADDRESS 0x1733 ===
  0x1733	dec    	eax
  0x1734	mov    	ecx, dword ptr [ebx + 0x10]
  0x1737	dec    	eax
  0x1738	lea    	edx, [esp + 0x40]
  0x173c	dec    	eax
  === BLOCK LINK ===
    0x173d
=== CODE BLOCK END ===

=== CODE BLOCK ADDRESS 0x173d ===
  0x173d	call   	dword ptr [0x2add]
  === BLOCK LINK ===
    0x1743
=== CODE BLOCK END ===

=== CODE BLOCK ADDRESS 0x1743 ===
  0x1743	nop    	dword ptr [eax + eax]
  0x1748	test   	eax, eax
  0x174a	jne    	0x1841
  === BLOCK LINK ===
    0x1750
=== CODE BLOCK END ===

=== CODE BLOCK ADDRESS 0x1750 ===
  0x1750	lea    	ebx, [eax + 1]
  0x1753	inc    	ebp
  0x1754	xor    	eax, eax
  0x1756	mov    	edx, ebx
  0x1758	dec    	eax
  === BLOCK LINK ===
    0x1759
=== CODE BLOCK END ===

=== CODE BLOCK ADDRESS 0x1759 ===
  0x1759	lea    	ecx, [esp + 0x20]
  0x175d	dec    	eax
  0x175e	call   	dword ptr [0x2acc]
  === BLOCK LINK ===
    0x1764
=== CODE BLOCK END ===

=== CODE BLOCK ADDRESS 0x1764 ===
  0x1764	nop    	dword ptr [eax + eax]
  0x1769	dec    	eax
  0x176a	mov    	edi, eax
  0x176c	dec    	eax
  0x176d	lea    	ecx, [eax - 1]
  === BLOCK LINK ===
    0x1770
=== CODE BLOCK END ===

=== CODE BLOCK ADDRESS 0x1770 ===
  0x1770	dec    	eax
  0x1771	cmp    	ecx, -3
  0x1774	ja     	0x1805
  === BLOCK LINK ===
    0x177a
=== CODE BLOCK END ===

=== CODE BLOCK ADDRESS 0x177a ===
  0x177a	dec    	esp
  0x177b	lea    	eax, [esp + 0x30]
  0x177f	dec    	eax
  0x1780	mov    	edx, eax
  0x1782	mov    	ecx, ebx
  === BLOCK LINK ===
    0x1784
=== CODE BLOCK END ===

=== CODE BLOCK ADDRESS 0x1784 ===
  0x1784	dec    	eax
  0x1785	call   	dword ptr [0x2aad]
  === BLOCK LINK ===
    0x178b
=== CODE BLOCK END ===

=== CODE BLOCK ADDRESS 0x178b ===
  0x178b	nop    	dword ptr [eax + eax]
  0x1790	dec    	eax
  0x1791	mov    	ecx, edi
  0x1793	dec    	eax
  0x1794	mov    	esi, eax
  === BLOCK LINK ===
    0x1796
=== CODE BLOCK END ===

=== CODE BLOCK ADDRESS 0x1796 ===
  0x1796	dec    	eax
  0x1797	call   	dword ptr [0x29cb]
  === BLOCK LINK ===
    0x179d
=== CODE BLOCK END ===

=== CODE BLOCK ADDRESS 0x179d ===
  0x179d	nop    	dword ptr [eax + eax]
  0x17a2	dec    	eax
  0x17a3	lea    	ecx, [esi - 1]
  0x17a6	dec    	eax
  0x17a7	cmp    	ecx, -3
  === BLOCK LINK ===
    0x17aa
=== CODE BLOCK END ===

=== CODE BLOCK ADDRESS 0x17aa ===
  0x17aa	ja     	0x1805
  === BLOCK LINK ===
    0x17ac
=== CODE BLOCK END ===

=== CODE BLOCK ADDRESS 0x17ac ===
  0x17ac	dec    	esp
  0x17ad	lea    	eax, [esp + 0x40]
  0x17b1	dec    	eax
  0x17b2	mov    	edx, esi
  0x17b4	mov    	ecx, 0x2001c
  === BLOCK LINK ===
    0x17b9
=== CODE BLOCK END ===

=== CODE BLOCK ADDRESS 0x17b9 ===
  0x17b9	dec    	eax
  0x17ba	call   	dword ptr [0x2a80]
  === BLOCK LINK ===
    0x17c0
=== CODE BLOCK END ===

=== CODE BLOCK ADDRESS 0x17c0 ===
  0x17c0	nop    	dword ptr [eax + eax]
  0x17c5	dec    	eax
  0x17c6	mov    	ecx, esi
  0x17c8	dec    	eax
  0x17c9	mov    	edi, eax
  === BLOCK LINK ===
    0x17cb
=== CODE BLOCK END ===

=== CODE BLOCK ADDRESS 0x17cb ===
  0x17cb	dec    	eax
  0x17cc	call   	dword ptr [0x2996]
  === BLOCK LINK ===
    0x17d2
=== CODE BLOCK END ===

=== CODE BLOCK ADDRESS 0x17d2 ===
  0x17d2	nop    	dword ptr [eax + eax]
  0x17d7	dec    	eax
  0x17d8	lea    	ecx, [edi - 1]
  0x17db	dec    	eax
  0x17dc	cmp    	ecx, -3
  === BLOCK LINK ===
    0x17df
=== CODE BLOCK END ===

=== CODE BLOCK ADDRESS 0x17df ===
  0x17df	ja     	0x1805
  === BLOCK LINK ===
    0x17e1
=== CODE BLOCK END ===

=== CODE BLOCK ADDRESS 0x17e1 ===
  0x17e1	xor    	edx, edx
  0x17e3	dec    	eax
  0x17e4	mov    	ecx, edi
  0x17e6	dec    	eax
  0x17e7	call   	dword ptr [0x2a73]
  === BLOCK LINK ===
    0x17ed
=== CODE BLOCK END ===

=== CODE BLOCK ADDRESS 0x17ed ===
  0x17ed	nop    	dword ptr [eax + eax]
  0x17f2	dec    	eax
  0x17f3	mov    	ecx, edi
  0x17f5	test   	eax, eax
  0x17f7	jne    	0x181c
  === BLOCK LINK ===
    0x17f9
=== CODE BLOCK END ===

=== CODE BLOCK ADDRESS 0x17f9 ===
  0x17f9	dec    	eax
  0x17fa	call   	dword ptr [0x2968]
  === BLOCK LINK ===
    0x1800
=== CODE BLOCK END ===

=== CODE BLOCK ADDRESS 0x1800 ===
  0x1800	nop    	dword ptr [eax + eax]
  0x1805	dec    	eax
  0x1806	call   	dword ptr [0x2954]
  === BLOCK LINK ===
    0x180c
=== CODE BLOCK END ===

=== CODE BLOCK ADDRESS 0x180c ===
  0x180c	nop    	dword ptr [eax + eax]
  0x1811	mov    	ecx, eax
  0x1813	call   	0x23e8
  === BLOCK LINK ===
    0x1818
=== CODE BLOCK END ===

=== CODE BLOCK ADDRESS 0x1818 ===
  0x1818	mov    	eax, ebx
  0x181a	jmp    	0x1850
  === BLOCK LINK ===
    0x181c
=== CODE BLOCK END ===

=== CODE BLOCK ADDRESS 0x181c ===
  0x181c	xor    	edx, edx
  0x181e	dec    	eax
  0x181f	call   	dword ptr [0x2a33]
  === BLOCK LINK ===
    0x1825
=== CODE BLOCK END ===

=== CODE BLOCK ADDRESS 0x1825 ===
  0x1825	nop    	dword ptr [eax + eax]
  0x182a	dec    	eax
  0x182b	mov    	ecx, edi
  0x182d	test   	eax, eax
  0x182f	je     	0x17f9
  === BLOCK LINK ===
    0x1831
=== CODE BLOCK END ===

=== CODE BLOCK ADDRESS 0x1831 ===
  0x1831	dec    	eax
  0x1832	call   	dword ptr [0x2930]
  === BLOCK LINK ===
    0x1838
=== CODE BLOCK END ===

=== CODE BLOCK ADDRESS 0x1838 ===
  0x1838	nop    	dword ptr [eax + eax]
  0x183d	xor    	eax, eax
  0x183f	jmp    	0x1850
  === BLOCK LINK ===
    0x1841
=== CODE BLOCK END ===

=== CODE BLOCK ADDRESS 0x1841 ===
  0x1841	mov    	ecx, 0x40002713
  0x1846	call   	0x2558
  === BLOCK LINK ===
    0x184b
=== CODE BLOCK END ===

=== CODE BLOCK ADDRESS 0x184b ===
  0x184b	mov    	eax, 1
  0x1850	dec    	eax
  0x1851	mov    	ecx, dword ptr [esp + 0x50]
  0x1855	dec    	eax
  0x1856	xor    	ecx, esp
  === BLOCK LINK ===
    0x1858
=== CODE BLOCK END ===

=== CODE BLOCK ADDRESS 0x1858 ===
  0x1858	call   	0x29b0
  === BLOCK LINK ===
    0x185d
=== CODE BLOCK END ===

=== CODE BLOCK ADDRESS 0x185d ===
  0x185d	dec    	esp
  0x185e	lea    	ebx, [esp + 0x60]
  0x1862	dec    	ecx
  0x1863	mov    	ebx, dword ptr [ebx + 0x10]
  0x1866	dec    	ecx
  === BLOCK LINK ===
    0x1867
=== CODE BLOCK END ===

=== CODE BLOCK ADDRESS 0x1867 ===
  0x1867	mov    	esi, dword ptr [ebx + 0x20]
  0x186a	dec    	ecx
  0x186b	mov    	esp, ebx
  0x186d	pop    	edi
  0x186e	ret    	
  === BLOCK LINK ===
    0x186f
=== CODE BLOCK END ===

=== CODE BLOCK ADDRESS 0x186f ===
  0x186f	int3   	
  0x1870	int3   	
  0x1871	int3   	
  0x1872	int3   	
  0x1873	int3   	
  === BLOCK LINK ===
    0x1874
=== CODE BLOCK END ===

=== CODE BLOCK ADDRESS 0x1874 ===
  0x1874	int3   	
  0x1875	int3   	
  0x1876	int3   	
  0x1877	int3   	
  0x1878	int3   	
  === BLOCK LINK ===
    0x1879
=== CODE BLOCK END ===

=== CODE BLOCK ADDRESS 0x1879 ===
  0x1879	int3   	
  0x187a	int3   	
  0x187b	int3   	
  0x187c	int3   	
  0x187d	int3   	
  === BLOCK LINK ===
    0x187e
=== CODE BLOCK END ===

=== CODE BLOCK ADDRESS 0x187e ===
  0x187e	int3   	
  0x187f	int3   	
  0x1880	dec    	eax
  0x1881	sub    	esp, 0x28
  0x1884	mov    	ecx, 0x40002715
  === BLOCK LINK ===
    0x1889
=== CODE BLOCK END ===

=== CODE BLOCK ADDRESS 0x1889 ===
  0x1889	call   	0x2558
  === BLOCK LINK ===
    0x188e
=== CODE BLOCK END ===

=== CODE BLOCK ADDRESS 0x188e ===
  0x188e	xor    	eax, eax
  0x1890	dec    	eax
  0x1891	add    	esp, 0x28
  0x1894	ret    	
  0x1895	int3   	
  === BLOCK LINK ===
    0x1896
=== CODE BLOCK END ===

=== CODE BLOCK ADDRESS 0x1896 ===
  0x1896	int3   	
  0x1897	int3   	
  0x1898	int3   	
  0x1899	int3   	
  0x189a	int3   	
  === BLOCK LINK ===
    0x189b
=== CODE BLOCK END ===

=== CODE BLOCK ADDRESS 0x189b ===
  0x189b	int3   	
  0x189c	dec    	eax
  0x189d	mov    	dword ptr [esp + 0x18], ebx
  0x18a1	push   	ebp
  0x18a2	dec    	eax
  === BLOCK LINK ===
    0x18a3
=== CODE BLOCK END ===

=== CODE BLOCK ADDRESS 0x18a3 ===
  0x18a3	lea    	ebp, [esp - 0xf80]
  0x18aa	mov    	eax, 0x1080
  0x18af	call   	0x2f70
  === BLOCK LINK ===
    0x18b4
=== CODE BLOCK END ===

=== CODE BLOCK ADDRESS 0x18b4 ===
  0x18b4	dec    	eax
  0x18b5	sub    	esp, eax
  0x18b7	dec    	eax
  0x18b8	mov    	eax, dword ptr [0x488a]
  0x18be	dec    	eax
  === BLOCK LINK ===
    0x18bf
=== CODE BLOCK END ===

=== CODE BLOCK ADDRESS 0x18bf ===
  0x18bf	xor    	eax, esp
  0x18c1	dec    	eax
  0x18c2	mov    	dword ptr [ebp + 0xf70], eax
  0x18c8	dec    	eax
  0x18c9	mov    	ebx, edx
  === BLOCK LINK ===
    0x18cb
=== CODE BLOCK END ===

=== CODE BLOCK ADDRESS 0x18cb ===
  0x18cb	dec    	eax
  0x18cc	mov    	dword ptr [esp + 0x20], edx
  0x18d0	dec    	esp
  0x18d1	mov    	ecx, ecx
  0x18d3	mov    	edx, 0x120001
  === BLOCK LINK ===
    0x18d8
=== CODE BLOCK END ===

=== CODE BLOCK ADDRESS 0x18d8 ===
  0x18d8	dec    	eax
  0x18d9	lea    	ecx, [esp + 0x30]
  0x18dd	inc    	ebp
  0x18de	xor    	eax, eax
  0x18e0	dec    	eax
  === BLOCK LINK ===
    0x18e1
=== CODE BLOCK END ===

=== CODE BLOCK ADDRESS 0x18e1 ===
  0x18e1	call   	dword ptr [0x2a69]
  === BLOCK LINK ===
    0x18e7
=== CODE BLOCK END ===

=== CODE BLOCK ADDRESS 0x18e7 ===
  0x18e7	nop    	dword ptr [eax + eax]
  0x18ec	test   	eax, eax
  0x18ee	jns    	0x190e
  === BLOCK LINK ===
    0x18f0
=== CODE BLOCK END ===

=== CODE BLOCK ADDRESS 0x18f0 ===
  0x18f0	mov    	ecx, eax
  0x18f2	dec    	eax
  0x18f3	call   	dword ptr [0x2a67]
  === BLOCK LINK ===
    0x18f9
=== CODE BLOCK END ===

=== CODE BLOCK ADDRESS 0x18f9 ===
  0x18f9	nop    	dword ptr [eax + eax]
  0x18fe	mov    	ecx, eax
  0x1900	call   	0x23e8
  === BLOCK LINK ===
    0x1905
=== CODE BLOCK END ===

=== CODE BLOCK ADDRESS 0x1905 ===
  0x1905	dec    	eax
  0x1906	or     	eax, 0xffffffff
  0x1909	jmp    	0x1a09
  === BLOCK LINK ===
    0x190e
=== CODE BLOCK END ===

=== CODE BLOCK ADDRESS 0x190e ===
  0x190e	dec    	eax
  0x190f	mov    	ecx, dword ptr [esp + 0x30]
  0x1913	dec    	esp
  0x1914	lea    	eax, [esp + 0x70]
  0x1918	dec    	eax
  === BLOCK LINK ===
    0x1919
=== CODE BLOCK END ===

=== CODE BLOCK ADDRESS 0x1919 ===
  0x1919	and    	dword ptr [esp + 0x20], 0
  0x191e	inc    	ecx
  0x191f	mov    	ecx, 0x1000
  0x1924	mov    	edx, 1
  0x1929	dec    	eax
  === BLOCK LINK ===
    0x192a
=== CODE BLOCK END ===

=== CODE BLOCK ADDRESS 0x192a ===
  0x192a	call   	dword ptr [0x2a18]
  === BLOCK LINK ===
    0x1930
=== CODE BLOCK END ===

=== CODE BLOCK ADDRESS 0x1930 ===
  0x1930	nop    	dword ptr [eax + eax]
  0x1935	test   	eax, eax
  0x1937	js     	0x18f0
  === BLOCK LINK ===
    0x1939
=== CODE BLOCK END ===

=== CODE BLOCK ADDRESS 0x1939 ===
  0x1939	cmp    	dword ptr [ebp - 0x80], 1
  0x193d	je     	0x194b
  === BLOCK LINK ===
    0x193f
=== CODE BLOCK END ===

=== CODE BLOCK ADDRESS 0x193f ===
  0x193f	mov    	ecx, 0x4000272f
  0x1944	call   	0x2558
  === BLOCK LINK ===
    0x1949
=== CODE BLOCK END ===

=== CODE BLOCK ADDRESS 0x1949 ===
  0x1949	jmp    	0x1905
  === BLOCK LINK ===
    0x194b
=== CODE BLOCK END ===

=== CODE BLOCK ADDRESS 0x194b ===
  0x194b	dec    	eax
  0x194c	mov    	ecx, dword ptr [esp + 0x30]
  0x1950	dec    	esp
  0x1951	lea    	eax, [esp + 0x48]
  0x1955	dec    	eax
  === BLOCK LINK ===
    0x1956
=== CODE BLOCK END ===

=== CODE BLOCK ADDRESS 0x1956 ===
  0x1956	and    	dword ptr [esp + 0x20], 0
  0x195b	inc    	ecx
  0x195c	mov    	ecx, 0x20
  0x1961	inc    	ecx
  0x1962	lea    	edx, [ecx - 0x1d]
  === BLOCK LINK ===
    0x1965
=== CODE BLOCK END ===

=== CODE BLOCK ADDRESS 0x1965 ===
  0x1965	dec    	eax
  0x1966	call   	dword ptr [0x29dc]
  === BLOCK LINK ===
    0x196c
=== CODE BLOCK END ===

=== CODE BLOCK ADDRESS 0x196c ===
  0x196c	nop    	dword ptr [eax + eax]
  0x1971	test   	eax, eax
  0x1973	js     	0x18f0
  === BLOCK LINK ===
    0x1979
=== CODE BLOCK END ===

=== CODE BLOCK ADDRESS 0x1979 ===
  0x1979	dec    	eax
  0x197a	and    	dword ptr [esp + 0x20], 0
  0x197f	dec    	esp
  0x1980	lea    	ecx, [esp + 0x58]
  0x1984	dec    	esp
  === BLOCK LINK ===
    0x1985
=== CODE BLOCK END ===

=== CODE BLOCK ADDRESS 0x1985 ===
  0x1985	mov    	eax, ebx
  0x1987	dec    	eax
  0x1988	lea    	ecx, [esp + 0x38]
  0x198c	mov    	edx, 0x120001
  0x1991	dec    	eax
  === BLOCK LINK ===
    0x1992
=== CODE BLOCK END ===

=== CODE BLOCK ADDRESS 0x1992 ===
  0x1992	call   	dword ptr [0x2998]
  === BLOCK LINK ===
    0x1998
=== CODE BLOCK END ===

=== CODE BLOCK ADDRESS 0x1998 ===
  0x1998	nop    	dword ptr [eax + eax]
  0x199d	test   	eax, eax
  0x199f	js     	0x18f0
  === BLOCK LINK ===
    0x19a5
=== CODE BLOCK END ===

=== CODE BLOCK ADDRESS 0x19a5 ===
  0x19a5	dec    	esp
  0x19a6	mov    	eax, dword ptr [esp + 0x38]
  0x19aa	dec    	esp
  0x19ab	lea    	ecx, [esp + 0x48]
  0x19af	dec    	eax
  === BLOCK LINK ===
    0x19b0
=== CODE BLOCK END ===

=== CODE BLOCK ADDRESS 0x19b0 ===
  0x19b0	and    	dword ptr [esp + 0x20], 0
  0x19b5	dec    	eax
  0x19b6	lea    	ecx, [esp + 0x40]
  0x19ba	mov    	edx, 0x2001c
  0x19bf	dec    	eax
  === BLOCK LINK ===
    0x19c0
=== CODE BLOCK END ===

=== CODE BLOCK ADDRESS 0x19c0 ===
  0x19c0	call   	dword ptr [0x2962]
  === BLOCK LINK ===
    0x19c6
=== CODE BLOCK END ===

=== CODE BLOCK ADDRESS 0x19c6 ===
  0x19c6	nop    	dword ptr [eax + eax]
  0x19cb	test   	eax, eax
  0x19cd	js     	0x18f0
  === BLOCK LINK ===
    0x19d3
=== CODE BLOCK END ===

=== CODE BLOCK ADDRESS 0x19d3 ===
  0x19d3	dec    	eax
  0x19d4	mov    	ecx, dword ptr [esp + 0x30]
  0x19d8	dec    	eax
  0x19d9	call   	dword ptr [0x2789]
  === BLOCK LINK ===
    0x19df
=== CODE BLOCK END ===

=== CODE BLOCK ADDRESS 0x19df ===
  0x19df	nop    	dword ptr [eax + eax]
  0x19e4	dec    	eax
  0x19e5	mov    	ecx, ebx
  0x19e7	dec    	eax
  0x19e8	call   	dword ptr [0x277a]
  === BLOCK LINK ===
    0x19ee
=== CODE BLOCK END ===

=== CODE BLOCK ADDRESS 0x19ee ===
  0x19ee	nop    	dword ptr [eax + eax]
  0x19f3	dec    	eax
  0x19f4	mov    	ecx, dword ptr [esp + 0x38]
  0x19f8	dec    	eax
  0x19f9	call   	dword ptr [0x2769]
  === BLOCK LINK ===
    0x19ff
=== CODE BLOCK END ===

=== CODE BLOCK ADDRESS 0x19ff ===
  0x19ff	nop    	dword ptr [eax + eax]
  0x1a04	dec    	eax
  0x1a05	mov    	eax, dword ptr [esp + 0x40]
  0x1a09	dec    	eax
  0x1a0a	mov    	ecx, dword ptr [ebp + 0xf70]
  === BLOCK LINK ===
    0x1a10
=== CODE BLOCK END ===

=== CODE BLOCK ADDRESS 0x1a10 ===
  0x1a10	dec    	eax
  0x1a11	xor    	ecx, esp
  0x1a13	call   	0x29b0
  === BLOCK LINK ===
    0x1a18
=== CODE BLOCK END ===

=== CODE BLOCK ADDRESS 0x1a18 ===
  0x1a18	dec    	eax
  0x1a19	mov    	ebx, dword ptr [esp + 0x10a0]
  0x1a20	dec    	eax
  0x1a21	add    	esp, 0x1080
  0x1a27	pop    	ebp
  === BLOCK LINK ===
    0x1a28
=== CODE BLOCK END ===

=== CODE BLOCK ADDRESS 0x1a28 ===
  0x1a28	ret    	
  0x1a29	int3   	
  0x1a2a	int3   	
  0x1a2b	int3   	
  0x1a2c	int3   	
  === BLOCK LINK ===
    0x1a2d
=== CODE BLOCK END ===

=== CODE BLOCK ADDRESS 0x1a2d ===
  0x1a2d	int3   	
  0x1a2e	int3   	
  0x1a2f	int3   	
  0x1a30	inc    	eax
  0x1a31	push   	ebx
  === BLOCK LINK ===
    0x1a32
=== CODE BLOCK END ===

=== CODE BLOCK ADDRESS 0x1a32 ===
  0x1a32	dec    	eax
  0x1a33	sub    	esp, 0x50
  0x1a36	dec    	eax
  0x1a37	mov    	eax, dword ptr [0x470b]
  0x1a3d	dec    	eax
  === BLOCK LINK ===
    0x1a3e
=== CODE BLOCK END ===

=== CODE BLOCK ADDRESS 0x1a3e ===
  0x1a3e	xor    	eax, esp
  0x1a40	dec    	eax
  0x1a41	mov    	dword ptr [esp + 0x40], eax
  0x1a45	dec    	eax
  0x1a46	mov    	ebx, edx
  === BLOCK LINK ===
    0x1a48
=== CODE BLOCK END ===

=== CODE BLOCK ADDRESS 0x1a48 ===
  0x1a48	cmp    	ecx, 2
  0x1a4b	jne    	0x1af8
  === BLOCK LINK ===
    0x1a51
=== CODE BLOCK END ===

=== CODE BLOCK ADDRESS 0x1a51 ===
  0x1a51	dec    	eax
  0x1a52	mov    	ecx, dword ptr [ebx]
  0x1a54	dec    	eax
  0x1a55	lea    	edx, [esp + 0x20]
  0x1a59	dec    	eax
  === BLOCK LINK ===
    0x1a5a
=== CODE BLOCK END ===

=== CODE BLOCK ADDRESS 0x1a5a ===
  0x1a5a	call   	dword ptr [0x27c0]
  === BLOCK LINK ===
    0x1a60
=== CODE BLOCK END ===

=== CODE BLOCK ADDRESS 0x1a60 ===
  0x1a60	nop    	dword ptr [eax + eax]
  0x1a65	test   	eax, eax
  0x1a67	jne    	0x1af8
  === BLOCK LINK ===
    0x1a6d
=== CODE BLOCK END ===

=== CODE BLOCK ADDRESS 0x1a6d ===
  0x1a6d	dec    	eax
  0x1a6e	mov    	ecx, dword ptr [ebx + 8]
  0x1a71	dec    	eax
  0x1a72	lea    	edx, [esp + 0x30]
  0x1a76	dec    	eax
  === BLOCK LINK ===
    0x1a77
=== CODE BLOCK END ===

=== CODE BLOCK ADDRESS 0x1a77 ===
  0x1a77	call   	dword ptr [0x27a3]
  === BLOCK LINK ===
    0x1a7d
=== CODE BLOCK END ===

=== CODE BLOCK ADDRESS 0x1a7d ===
  0x1a7d	nop    	dword ptr [eax + eax]
  0x1a82	test   	eax, eax
  0x1a84	jne    	0x1af8
  === BLOCK LINK ===
    0x1a86
=== CODE BLOCK END ===

=== CODE BLOCK ADDRESS 0x1a86 ===
  0x1a86	inc    	ebp
  0x1a87	xor    	eax, eax
  0x1a89	dec    	eax
  0x1a8a	lea    	ecx, [esp + 0x20]
  0x1a8e	mov    	edx, 0x20001
  === BLOCK LINK ===
    0x1a93
=== CODE BLOCK END ===

=== CODE BLOCK ADDRESS 0x1a93 ===
  0x1a93	dec    	eax
  0x1a94	call   	dword ptr [0x2796]
  === BLOCK LINK ===
    0x1a9a
=== CODE BLOCK END ===

=== CODE BLOCK ADDRESS 0x1a9a ===
  0x1a9a	nop    	dword ptr [eax + eax]
  0x1a9f	dec    	eax
  0x1aa0	cmp    	eax, -1
  0x1aa3	jne    	0x1aba
  === BLOCK LINK ===
    0x1aa5
=== CODE BLOCK END ===

=== CODE BLOCK ADDRESS 0x1aa5 ===
  0x1aa5	dec    	eax
  0x1aa6	call   	dword ptr [0x26b4]
  === BLOCK LINK ===
    0x1aac
=== CODE BLOCK END ===

=== CODE BLOCK ADDRESS 0x1aac ===
  0x1aac	nop    	dword ptr [eax + eax]
  0x1ab1	mov    	ecx, eax
  0x1ab3	call   	0x23e8
  === BLOCK LINK ===
    0x1ab8
=== CODE BLOCK END ===

=== CODE BLOCK ADDRESS 0x1ab8 ===
  0x1ab8	jmp    	0x1b02
  === BLOCK LINK ===
    0x1aba
=== CODE BLOCK END ===

=== CODE BLOCK ADDRESS 0x1aba ===
  0x1aba	dec    	eax
  0x1abb	mov    	edx, eax
  0x1abd	dec    	eax
  0x1abe	lea    	ecx, [esp + 0x30]
  0x1ac2	call   	0x189c
  === BLOCK LINK ===
    0x1ac7
=== CODE BLOCK END ===

=== CODE BLOCK ADDRESS 0x1ac7 ===
  0x1ac7	dec    	eax
  0x1ac8	mov    	ebx, eax
  0x1aca	dec    	eax
  0x1acb	cmp    	eax, -1
  0x1ace	je     	0x1b02
  === BLOCK LINK ===
    0x1ad0
=== CODE BLOCK END ===

=== CODE BLOCK ADDRESS 0x1ad0 ===
  0x1ad0	xor    	edx, edx
  0x1ad2	dec    	eax
  0x1ad3	mov    	ecx, eax
  0x1ad5	dec    	eax
  0x1ad6	call   	dword ptr [0x2774]
  === BLOCK LINK ===
    0x1adc
=== CODE BLOCK END ===

=== CODE BLOCK ADDRESS 0x1adc ===
  0x1adc	nop    	dword ptr [eax + eax]
  0x1ae1	test   	eax, eax
  0x1ae3	je     	0x1aa5
  === BLOCK LINK ===
    0x1ae5
=== CODE BLOCK END ===

=== CODE BLOCK ADDRESS 0x1ae5 ===
  0x1ae5	dec    	eax
  0x1ae6	mov    	ecx, ebx
  0x1ae8	dec    	eax
  0x1ae9	call   	dword ptr [0x2679]
  === BLOCK LINK ===
    0x1aef
=== CODE BLOCK END ===

=== CODE BLOCK ADDRESS 0x1aef ===
  0x1aef	nop    	dword ptr [eax + eax]
  0x1af4	xor    	eax, eax
  0x1af6	jmp    	0x1b07
  === BLOCK LINK ===
    0x1af8
=== CODE BLOCK END ===

=== CODE BLOCK ADDRESS 0x1af8 ===
  0x1af8	mov    	ecx, 0x40002712
  0x1afd	call   	0x2558
  === BLOCK LINK ===
    0x1b02
=== CODE BLOCK END ===

=== CODE BLOCK ADDRESS 0x1b02 ===
  0x1b02	mov    	eax, 1
  0x1b07	dec    	eax
  0x1b08	mov    	ecx, dword ptr [esp + 0x40]
  0x1b0c	dec    	eax
  0x1b0d	xor    	ecx, esp
  === BLOCK LINK ===
    0x1b0f
=== CODE BLOCK END ===

=== CODE BLOCK ADDRESS 0x1b0f ===
  0x1b0f	call   	0x29b0
  === BLOCK LINK ===
    0x1b14
=== CODE BLOCK END ===

=== CODE BLOCK ADDRESS 0x1b14 ===
  0x1b14	dec    	eax
  0x1b15	add    	esp, 0x50
  0x1b18	pop    	ebx
  0x1b19	ret    	
  0x1b1a	int3   	
  === BLOCK LINK ===
    0x1b1b
=== CODE BLOCK END ===

=== CODE BLOCK ADDRESS 0x2558 ===
=== CODE BLOCK END ===

=== CODE BLOCK ADDRESS 0x1b1b ===
  0x1b1b	int3   	
  0x1b1c	int3   	
  0x1b1d	int3   	
  0x1b1e	int3   	
  0x1b1f	int3   	
  === BLOCK LINK ===
    0x1b20
=== CODE BLOCK END ===

=== CODE BLOCK ADDRESS 0x1b20 ===
  0x1b20	int3   	
  0x1b21	int3   	
  0x1b22	int3   	
  0x1b23	int3   	
  0x1b24	int3   	
  === BLOCK LINK ===
    0x1b25
=== CODE BLOCK END ===

=== CODE BLOCK ADDRESS 0x1b25 ===
  0x1b25	int3   	
  0x1b26	int3   	
  0x1b27	int3   	
  0x1b28	int3   	
  0x1b29	int3   	
  === BLOCK LINK ===
    0x1b2a
=== CODE BLOCK END ===

=== CODE BLOCK ADDRESS 0x1b2a ===
  0x1b2a	int3   	
  0x1b2b	int3   	
  0x1b2c	int3   	
  0x1b2d	int3   	
  0x1b2e	int3   	
  === BLOCK LINK ===
    0x1b2f
=== CODE BLOCK END ===

=== CODE BLOCK ADDRESS 0x1b2f ===
  0x1b2f	int3   	
  0x1b30	inc    	eax
  0x1b31	push   	ebx
  0x1b32	dec    	eax
  0x1b33	sub    	esp, 0x50
  === BLOCK LINK ===
    0x1b36
=== CODE BLOCK END ===

=== CODE BLOCK ADDRESS 0x1b36 ===
  0x1b36	dec    	eax
  0x1b37	mov    	eax, dword ptr [0x460b]
  0x1b3d	dec    	eax
  0x1b3e	xor    	eax, esp
  0x1b40	dec    	eax
  === BLOCK LINK ===
    0x1b41
=== CODE BLOCK END ===

=== CODE BLOCK ADDRESS 0x1b41 ===
  0x1b41	mov    	dword ptr [esp + 0x40], eax
  0x1b45	dec    	eax
  0x1b46	mov    	ebx, edx
  0x1b48	cmp    	ecx, 2
  0x1b4b	jne    	0x1bf8
  === BLOCK LINK ===
    0x1b51
=== CODE BLOCK END ===

=== CODE BLOCK ADDRESS 0x1b51 ===
  0x1b51	dec    	eax
  0x1b52	mov    	ecx, dword ptr [ebx]
  0x1b54	dec    	eax
  0x1b55	lea    	edx, [esp + 0x20]
  0x1b59	dec    	eax
  === BLOCK LINK ===
    0x1b5a
=== CODE BLOCK END ===

=== CODE BLOCK ADDRESS 0x1b5a ===
  0x1b5a	call   	dword ptr [0x26c0]
  === BLOCK LINK ===
    0x1b60
=== CODE BLOCK END ===

=== CODE BLOCK ADDRESS 0x1b60 ===
  0x1b60	nop    	dword ptr [eax + eax]
  0x1b65	test   	eax, eax
  0x1b67	jne    	0x1bf8
  === BLOCK LINK ===
    0x1b6d
=== CODE BLOCK END ===

=== CODE BLOCK ADDRESS 0x1b6d ===
  0x1b6d	dec    	eax
  0x1b6e	mov    	ecx, dword ptr [ebx + 8]
  0x1b71	dec    	eax
  0x1b72	lea    	edx, [esp + 0x30]
  0x1b76	dec    	eax
  === BLOCK LINK ===
    0x1b77
=== CODE BLOCK END ===

=== CODE BLOCK ADDRESS 0x1b77 ===
  0x1b77	call   	dword ptr [0x26a3]
  === BLOCK LINK ===
    0x1b7d
=== CODE BLOCK END ===

=== CODE BLOCK ADDRESS 0x1b7d ===
  0x1b7d	nop    	dword ptr [eax + eax]
  0x1b82	test   	eax, eax
  0x1b84	jne    	0x1bf8
  === BLOCK LINK ===
    0x1b86
=== CODE BLOCK END ===

=== CODE BLOCK ADDRESS 0x1b86 ===
  0x1b86	inc    	ebp
  0x1b87	xor    	eax, eax
  0x1b89	dec    	eax
  0x1b8a	lea    	ecx, [esp + 0x20]
  0x1b8e	mov    	edx, 0x20001
  === BLOCK LINK ===
    0x1b93
=== CODE BLOCK END ===

=== CODE BLOCK ADDRESS 0x1b93 ===
  0x1b93	dec    	eax
  0x1b94	call   	dword ptr [0x2696]
  === BLOCK LINK ===
    0x1b9a
=== CODE BLOCK END ===

=== CODE BLOCK ADDRESS 0x1b9a ===
  0x1b9a	nop    	dword ptr [eax + eax]
  0x1b9f	dec    	eax
  0x1ba0	cmp    	eax, -1
  0x1ba3	jne    	0x1bba
  === BLOCK LINK ===
    0x1ba5
=== CODE BLOCK END ===

=== CODE BLOCK ADDRESS 0x1ba5 ===
  0x1ba5	dec    	eax
  0x1ba6	call   	dword ptr [0x25b4]
  === BLOCK LINK ===
    0x1bac
=== CODE BLOCK END ===

=== CODE BLOCK ADDRESS 0x1bac ===
  0x1bac	nop    	dword ptr [eax + eax]
  0x1bb1	mov    	ecx, eax
  0x1bb3	call   	0x23e8
  === BLOCK LINK ===
    0x1bb8
=== CODE BLOCK END ===

=== CODE BLOCK ADDRESS 0x1bb8 ===
  0x1bb8	jmp    	0x1c02
  === BLOCK LINK ===
    0x1bba
=== CODE BLOCK END ===

=== CODE BLOCK ADDRESS 0x1bba ===
  0x1bba	dec    	eax
  0x1bbb	mov    	edx, eax
  0x1bbd	dec    	eax
  0x1bbe	lea    	ecx, [esp + 0x30]
  0x1bc2	call   	0x189c
  === BLOCK LINK ===
    0x1bc7
=== CODE BLOCK END ===

=== CODE BLOCK ADDRESS 0x1bc7 ===
  0x1bc7	dec    	eax
  0x1bc8	mov    	ebx, eax
  0x1bca	dec    	eax
  0x1bcb	cmp    	eax, -1
  0x1bce	je     	0x1c02
  === BLOCK LINK ===
    0x1bd0
=== CODE BLOCK END ===

=== CODE BLOCK ADDRESS 0x1bd0 ===
  0x1bd0	xor    	edx, edx
  0x1bd2	dec    	eax
  0x1bd3	mov    	ecx, eax
  0x1bd5	dec    	eax
  0x1bd6	call   	dword ptr [0x266c]
  === BLOCK LINK ===
    0x1bdc
=== CODE BLOCK END ===

=== CODE BLOCK ADDRESS 0x1bdc ===
  0x1bdc	nop    	dword ptr [eax + eax]
  0x1be1	test   	eax, eax
  0x1be3	je     	0x1ba5
  === BLOCK LINK ===
    0x1be5
=== CODE BLOCK END ===

=== CODE BLOCK ADDRESS 0x1be5 ===
  0x1be5	dec    	eax
  0x1be6	mov    	ecx, ebx
  0x1be8	dec    	eax
  0x1be9	call   	dword ptr [0x2579]
  === BLOCK LINK ===
    0x1bef
=== CODE BLOCK END ===

=== CODE BLOCK ADDRESS 0x1bef ===
  0x1bef	nop    	dword ptr [eax + eax]
  0x1bf4	xor    	eax, eax
  0x1bf6	jmp    	0x1c07
  === BLOCK LINK ===
    0x1bf8
=== CODE BLOCK END ===

=== CODE BLOCK ADDRESS 0x1bf8 ===
  0x1bf8	mov    	ecx, 0x40002712
  0x1bfd	call   	0x2558
  === BLOCK LINK ===
    0x1c02
=== CODE BLOCK END ===

=== CODE BLOCK ADDRESS 0x1c02 ===
  0x1c02	mov    	eax, 1
  0x1c07	dec    	eax
  0x1c08	mov    	ecx, dword ptr [esp + 0x40]
  0x1c0c	dec    	eax
  0x1c0d	xor    	ecx, esp
  === BLOCK LINK ===
    0x1c0f
=== CODE BLOCK END ===

=== CODE BLOCK ADDRESS 0x1c0f ===
  0x1c0f	call   	0x29b0
  === BLOCK LINK ===
    0x1c14
=== CODE BLOCK END ===

=== CODE BLOCK ADDRESS 0x1c14 ===
  0x1c14	dec    	eax
  0x1c15	add    	esp, 0x50
  0x1c18	pop    	ebx
  0x1c19	ret    	
  0x1c1a	int3   	
  === BLOCK LINK ===
    0x1c1b
=== CODE BLOCK END ===

=== CODE BLOCK ADDRESS 0x1c1b ===
  0x1c1b	int3   	
  0x1c1c	int3   	
  0x1c1d	int3   	
  0x1c1e	int3   	
  0x1c1f	int3   	
  === BLOCK LINK ===
    0x1c20
=== CODE BLOCK END ===

=== CODE BLOCK ADDRESS 0x1c20 ===
  0x1c20	int3   	
  0x1c21	int3   	
  0x1c22	int3   	
  0x1c23	int3   	
  0x1c24	dec    	eax
  === BLOCK LINK ===
    0x1c25
=== CODE BLOCK END ===

=== CODE BLOCK ADDRESS 0x1c25 ===
  0x1c25	mov    	dword ptr [esp + 0x18], ebx
  0x1c29	push   	ebp
  0x1c2a	dec    	eax
  0x1c2b	lea    	ebp, [esp - 0x57]
  0x1c2f	dec    	eax
  === BLOCK LINK ===
    0x1c30
=== CODE BLOCK END ===

=== CODE BLOCK ADDRESS 0x1c30 ===
  0x1c30	sub    	esp, 0x90
  0x1c36	dec    	eax
  0x1c37	mov    	eax, dword ptr [0x450b]
  0x1c3d	dec    	eax
  0x1c3e	xor    	eax, esp
  === BLOCK LINK ===
    0x1c40
=== CODE BLOCK END ===

=== CODE BLOCK ADDRESS 0x1c40 ===
  0x1c40	dec    	eax
  0x1c41	mov    	dword ptr [ebp + 0x47], eax
  0x1c44	dec    	eax
  0x1c45	and    	dword ptr [esp + 0x20], 0
  0x1c4a	dec    	esp
  === BLOCK LINK ===
    0x1c4b
=== CODE BLOCK END ===

=== CODE BLOCK ADDRESS 0x1c4b ===
  0x1c4b	lea    	ecx, [edx + 0x10]
  0x1c4e	dec    	eax
  0x1c4f	mov    	ebx, edx
  0x1c51	dec    	esp
  0x1c52	mov    	eax, ecx
  === BLOCK LINK ===
    0x1c54
=== CODE BLOCK END ===

=== CODE BLOCK ADDRESS 0x1c54 ===
  0x1c54	mov    	edx, 0x120001
  0x1c59	dec    	eax
  0x1c5a	lea    	ecx, [ebp - 1]
  0x1c5d	dec    	eax
  0x1c5e	call   	dword ptr [0x26cc]
  === BLOCK LINK ===
    0x1c64
=== CODE BLOCK END ===

=== CODE BLOCK ADDRESS 0x1c64 ===
  0x1c64	nop    	dword ptr [eax + eax]
  0x1c69	test   	eax, eax
  0x1c6b	jns    	0x1c8c
  === BLOCK LINK ===
    0x1c6d
=== CODE BLOCK END ===

=== CODE BLOCK ADDRESS 0x1c6d ===
  0x1c6d	mov    	ecx, eax
  0x1c6f	dec    	eax
  0x1c70	call   	dword ptr [0x26ea]
  === BLOCK LINK ===
    0x1c76
=== CODE BLOCK END ===

=== CODE BLOCK ADDRESS 0x1c76 ===
  0x1c76	nop    	dword ptr [eax + eax]
  0x1c7b	mov    	ecx, eax
  0x1c7d	call   	0x23e8
  === BLOCK LINK ===
    0x1c82
=== CODE BLOCK END ===

=== CODE BLOCK ADDRESS 0x1c82 ===
  0x1c82	mov    	eax, 1
  0x1c87	jmp    	0x1d62
  === BLOCK LINK ===
    0x1c8c
=== CODE BLOCK END ===

=== CODE BLOCK ADDRESS 0x1c8c ===
  0x1c8c	dec    	esp
  0x1c8d	mov    	eax, dword ptr [ebp - 1]
  0x1c90	dec    	eax
  0x1c91	lea    	ecx, [ebp - 9]
  0x1c94	dec    	eax
  === BLOCK LINK ===
    0x1c95
=== CODE BLOCK END ===

=== CODE BLOCK ADDRESS 0x1c95 ===
  0x1c95	and    	dword ptr [esp + 0x20], 0
  0x1c9a	dec    	esp
  0x1c9b	mov    	ecx, ebx
  0x1c9d	mov    	edx, 0x20001
  0x1ca2	dec    	eax
  === BLOCK LINK ===
    0x1ca3
=== CODE BLOCK END ===

=== CODE BLOCK ADDRESS 0x1ca3 ===
  0x1ca3	call   	dword ptr [0x267f]
  === BLOCK LINK ===
    0x1ca9
=== CODE BLOCK END ===

=== CODE BLOCK ADDRESS 0x1ca9 ===
  0x1ca9	nop    	dword ptr [eax + eax]
  0x1cae	test   	eax, eax
  0x1cb0	js     	0x1c6d
  === BLOCK LINK ===
    0x1cb2
=== CODE BLOCK END ===

=== CODE BLOCK ADDRESS 0x1cb2 ===
  0x1cb2	dec    	eax
  0x1cb3	mov    	ecx, dword ptr [ebp - 9]
  0x1cb6	dec    	esp
  0x1cb7	lea    	eax, [ebp + 0x17]
  0x1cba	dec    	eax
  === BLOCK LINK ===
    0x1cbb
=== CODE BLOCK END ===

=== CODE BLOCK ADDRESS 0x1cbb ===
  0x1cbb	and    	dword ptr [esp + 0x20], 0
  0x1cc0	inc    	ecx
  0x1cc1	mov    	ecx, 0x30
  0x1cc6	inc    	ecx
  0x1cc7	lea    	edx, [ecx - 0x2e]
  === BLOCK LINK ===
    0x1cca
=== CODE BLOCK END ===

=== CODE BLOCK ADDRESS 0x1cca ===
  0x1cca	dec    	eax
  0x1ccb	call   	dword ptr [0x264f]
  === BLOCK LINK ===
    0x1cd1
=== CODE BLOCK END ===

=== CODE BLOCK ADDRESS 0x1cd1 ===
  0x1cd1	nop    	dword ptr [eax + eax]
  0x1cd6	test   	eax, eax
  0x1cd8	js     	0x1c6d
  === BLOCK LINK ===
    0x1cda
=== CODE BLOCK END ===

=== CODE BLOCK ADDRESS 0x1cda ===
  0x1cda	dec    	eax
  0x1cdb	lea    	edx, [ebp + 7]
  0x1cde	dec    	eax
  0x1cdf	lea    	ecx, [ebp + 0x17]
  0x1ce2	dec    	eax
  === BLOCK LINK ===
    0x1ce3
=== CODE BLOCK END ===

=== CODE BLOCK ADDRESS 0x1ce3 ===
  0x1ce3	call   	dword ptr [0x266f]
  === BLOCK LINK ===
    0x1ce9
=== CODE BLOCK END ===

=== CODE BLOCK ADDRESS 0x1ce9 ===
  0x1ce9	nop    	dword ptr [eax + eax]
  0x1cee	dec    	eax
  0x1cef	mov    	edx, dword ptr [ebp + 0xf]
  0x1cf2	mov    	ecx, 0x4000271f
  0x1cf7	call   	0x2558
  === BLOCK LINK ===
    0x1cfc
=== CODE BLOCK END ===

=== CODE BLOCK ADDRESS 0x1cfc ===
  0x1cfc	dec    	eax
  0x1cfd	lea    	edx, [ebp + 7]
  0x1d00	dec    	eax
  0x1d01	lea    	ecx, [ebp + 0x27]
  0x1d04	dec    	eax
  === BLOCK LINK ===
    0x1d05
=== CODE BLOCK END ===

=== CODE BLOCK ADDRESS 0x1d05 ===
  0x1d05	call   	dword ptr [0x264d]
  === BLOCK LINK ===
    0x1d0b
=== CODE BLOCK END ===

=== CODE BLOCK ADDRESS 0x1d0b ===
  0x1d0b	nop    	dword ptr [eax + eax]
  0x1d10	dec    	eax
  0x1d11	mov    	edx, dword ptr [ebp + 0xf]
  0x1d14	mov    	ecx, 0x40002720
  0x1d19	call   	0x2558
  === BLOCK LINK ===
    0x1d1e
=== CODE BLOCK END ===

=== CODE BLOCK ADDRESS 0x1d1e ===
  0x1d1e	dec    	eax
  0x1d1f	lea    	edx, [ebp + 7]
  0x1d22	dec    	eax
  0x1d23	lea    	ecx, [ebp + 0x37]
  0x1d26	dec    	eax
  === BLOCK LINK ===
    0x1d27
=== CODE BLOCK END ===

=== CODE BLOCK ADDRESS 0x1d27 ===
  0x1d27	call   	dword ptr [0x262b]
  === BLOCK LINK ===
    0x1d2d
=== CODE BLOCK END ===

=== CODE BLOCK ADDRESS 0x1d2d ===
  0x1d2d	nop    	dword ptr [eax + eax]
  0x1d32	dec    	eax
  0x1d33	mov    	edx, dword ptr [ebp + 0xf]
  0x1d36	mov    	ecx, 0x40002721
  0x1d3b	call   	0x2558
  === BLOCK LINK ===
    0x1d40
=== CODE BLOCK END ===

=== CODE BLOCK ADDRESS 0x1d40 ===
  0x1d40	dec    	eax
  0x1d41	mov    	ecx, dword ptr [ebp - 9]
  0x1d44	dec    	eax
  0x1d45	call   	dword ptr [0x241d]
  === BLOCK LINK ===
    0x1d4b
=== CODE BLOCK END ===

=== CODE BLOCK ADDRESS 0x1d4b ===
  0x1d4b	nop    	dword ptr [eax + eax]
  0x1d50	dec    	eax
  0x1d51	mov    	ecx, dword ptr [ebp - 1]
  0x1d54	dec    	eax
  0x1d55	call   	dword ptr [0x240d]
  === BLOCK LINK ===
    0x1d5b
=== CODE BLOCK END ===

=== CODE BLOCK ADDRESS 0x1d5b ===
  0x1d5b	nop    	dword ptr [eax + eax]
  0x1d60	xor    	eax, eax
  0x1d62	dec    	eax
  0x1d63	mov    	ecx, dword ptr [ebp + 0x47]
  0x1d66	dec    	eax
  === BLOCK LINK ===
    0x1d67
=== CODE BLOCK END ===

=== CODE BLOCK ADDRESS 0x1d67 ===
  0x1d67	xor    	ecx, esp
  0x1d69	call   	0x29b0
  === BLOCK LINK ===
    0x1d6e
=== CODE BLOCK END ===

=== CODE BLOCK ADDRESS 0x1d6e ===
  0x1d6e	dec    	eax
  0x1d6f	mov    	ebx, dword ptr [esp + 0xb0]
  0x1d76	dec    	eax
  0x1d77	add    	esp, 0x90
  0x1d7d	pop    	ebp
  === BLOCK LINK ===
    0x1d7e
=== CODE BLOCK END ===

=== CODE BLOCK ADDRESS 0x1d7e ===
  0x1d7e	ret    	
  0x1d7f	int3   	
  0x1d80	int3   	
  0x1d81	int3   	
  0x1d82	int3   	
  === BLOCK LINK ===
    0x1d83
=== CODE BLOCK END ===

=== CODE BLOCK ADDRESS 0x1d83 ===
  0x1d83	int3   	
  0x1d84	int3   	
  0x1d85	int3   	
  0x1d86	int3   	
  0x1d87	int3   	
  === BLOCK LINK ===
    0x1d88
=== CODE BLOCK END ===

=== CODE BLOCK ADDRESS 0x1d88 ===
  0x1d88	int3   	
  0x1d89	int3   	
  0x1d8a	int3   	
  0x1d8b	int3   	
  0x1d8c	int3   	
  === BLOCK LINK ===
    0x1d8d
=== CODE BLOCK END ===

=== CODE BLOCK ADDRESS 0x1d8d ===
  0x1d8d	int3   	
  0x1d8e	int3   	
  0x1d8f	int3   	
  0x1d90	dec    	eax
  0x1d91	mov    	dword ptr [esp + 8], ebx
  === BLOCK LINK ===
    0x1d95
=== CODE BLOCK END ===

=== CODE BLOCK ADDRESS 0x1d95 ===
  0x1d95	dec    	eax
  0x1d96	mov    	dword ptr [esp + 0x18], esi
  0x1d9a	push   	ebp
  0x1d9b	inc    	ecx
  0x1d9c	push   	esi
  === BLOCK LINK ===
    0x1d9d
=== CODE BLOCK END ===

=== CODE BLOCK ADDRESS 0x1d9d ===
  0x1d9d	inc    	ecx
  0x1d9e	push   	edi
  0x1d9f	dec    	eax
  0x1da0	lea    	ebp, [esp - 0xfa0]
  0x1da7	mov    	eax, 0x10a0
  === BLOCK LINK ===
    0x1dac
=== CODE BLOCK END ===

=== CODE BLOCK ADDRESS 0x1dac ===
  0x1dac	call   	0x2f70
  === BLOCK LINK ===
    0x1db1
=== CODE BLOCK END ===

=== CODE BLOCK ADDRESS 0x1db1 ===
  0x1db1	dec    	eax
  0x1db2	sub    	esp, eax
  0x1db4	dec    	eax
  0x1db5	mov    	eax, dword ptr [0x438d]
  0x1dbb	dec    	eax
  === BLOCK LINK ===
    0x1dbc
=== CODE BLOCK END ===

=== CODE BLOCK ADDRESS 0x1dbc ===
  0x1dbc	xor    	eax, esp
  0x1dbe	dec    	eax
  0x1dbf	mov    	dword ptr [ebp + 0xf90], eax
  0x1dc5	dec    	eax
  0x1dc6	mov    	ebx, edx
  === BLOCK LINK ===
    0x1dc8
=== CODE BLOCK END ===

=== CODE BLOCK ADDRESS 0x1dc8 ===
  0x1dc8	cmp    	ecx, 2
  0x1dcb	jne    	0x2085
  === BLOCK LINK ===
    0x1dd1
=== CODE BLOCK END ===

=== CODE BLOCK ADDRESS 0x1dd1 ===
  0x1dd1	dec    	eax
  0x1dd2	mov    	ecx, dword ptr [ebx]
  0x1dd4	dec    	eax
  0x1dd5	lea    	edx, [esp + 0x48]
  0x1dd9	dec    	eax
  === BLOCK LINK ===
    0x1dda
=== CODE BLOCK END ===

=== CODE BLOCK ADDRESS 0x1dda ===
  0x1dda	call   	dword ptr [0x2440]
  === BLOCK LINK ===
    0x1de0
=== CODE BLOCK END ===

=== CODE BLOCK ADDRESS 0x1de0 ===
  0x1de0	nop    	dword ptr [eax + eax]
  0x1de5	xor    	esi, esi
  0x1de7	test   	eax, eax
  0x1de9	jne    	0x2085
  === BLOCK LINK ===
    0x1def
=== CODE BLOCK END ===

=== CODE BLOCK ADDRESS 0x1def ===
  0x1def	dec    	eax
  0x1df0	mov    	ecx, dword ptr [ebx + 8]
  0x1df3	dec    	eax
  0x1df4	lea    	edx, [esp + 0x78]
  0x1df8	dec    	eax
  === BLOCK LINK ===
    0x1df9
=== CODE BLOCK END ===

=== CODE BLOCK ADDRESS 0x1df9 ===
  0x1df9	call   	dword ptr [0x2421]
  === BLOCK LINK ===
    0x1dff
=== CODE BLOCK END ===

=== CODE BLOCK ADDRESS 0x1dff ===
  0x1dff	nop    	dword ptr [eax + eax]
  0x1e04	test   	eax, eax
  0x1e06	jne    	0x2085
  === BLOCK LINK ===
    0x1e0c
=== CODE BLOCK END ===

=== CODE BLOCK ADDRESS 0x1e0c ===
  0x1e0c	inc    	ebp
  0x1e0d	xor    	eax, eax
  0x1e0f	dec    	eax
  0x1e10	lea    	ecx, [esp + 0x48]
  0x1e14	mov    	edx, 0x20001
  === BLOCK LINK ===
    0x1e19
=== CODE BLOCK END ===

=== CODE BLOCK ADDRESS 0x1e19 ===
  0x1e19	dec    	eax
  0x1e1a	call   	dword ptr [0x2410]
  === BLOCK LINK ===
    0x1e20
=== CODE BLOCK END ===

=== CODE BLOCK ADDRESS 0x1e20 ===
  0x1e20	nop    	dword ptr [eax + eax]
  0x1e25	dec    	esp
  0x1e26	mov    	esi, eax
  0x1e28	dec    	eax
  0x1e29	cmp    	eax, -1
  === BLOCK LINK ===
    0x1e2c
=== CODE BLOCK END ===

=== CODE BLOCK ADDRESS 0x1e2c ===
  0x1e2c	jne    	0x1e46
  === BLOCK LINK ===
    0x1e2e
=== CODE BLOCK END ===

=== CODE BLOCK ADDRESS 0x1e2e ===
  0x1e2e	dec    	eax
  0x1e2f	call   	dword ptr [0x232b]
  === BLOCK LINK ===
    0x1e35
=== CODE BLOCK END ===

=== CODE BLOCK ADDRESS 0x1e35 ===
  0x1e35	nop    	dword ptr [eax + eax]
  0x1e3a	mov    	ecx, eax
  0x1e3c	call   	0x23e8
  === BLOCK LINK ===
    0x1e41
=== CODE BLOCK END ===

=== CODE BLOCK ADDRESS 0x1e41 ===
  0x1e41	jmp    	0x208f
  === BLOCK LINK ===
    0x1e46
=== CODE BLOCK END ===

=== CODE BLOCK ADDRESS 0x1e46 ===
  0x1e46	dec    	esp
  0x1e47	lea    	ecx, [esp + 0x78]
  0x1e4b	dec    	esp
  0x1e4c	mov    	dword ptr [esp + 0x20], esi
  0x1e50	inc    	ebp
  === BLOCK LINK ===
    0x1e51
=== CODE BLOCK END ===

=== CODE BLOCK ADDRESS 0x1e51 ===
  0x1e51	xor    	eax, eax
  0x1e53	dec    	eax
  0x1e54	lea    	ecx, [esp + 0x30]
  0x1e58	mov    	edx, 0x120001
  0x1e5d	dec    	eax
  === BLOCK LINK ===
    0x1e5e
=== CODE BLOCK END ===

=== CODE BLOCK ADDRESS 0x1e5e ===
  0x1e5e	call   	dword ptr [0x24ec]
  === BLOCK LINK ===
    0x1e64
=== CODE BLOCK END ===

=== CODE BLOCK ADDRESS 0x1e64 ===
  0x1e64	nop    	dword ptr [eax + eax]
  0x1e69	test   	eax, eax
  0x1e6b	jns    	0x1e7d
  === BLOCK LINK ===
    0x1e6d
=== CODE BLOCK END ===

=== CODE BLOCK ADDRESS 0x1e6d ===
  0x1e6d	mov    	ecx, eax
  0x1e6f	dec    	eax
  0x1e70	call   	dword ptr [0x24ea]
  === BLOCK LINK ===
    0x1e76
=== CODE BLOCK END ===

=== CODE BLOCK ADDRESS 0x1e76 ===
  0x1e76	nop    	dword ptr [eax + eax]
  0x1e7b	jmp    	0x1e3a
  === BLOCK LINK ===
    0x1e7d
=== CODE BLOCK END ===

=== CODE BLOCK ADDRESS 0x1e7d ===
  0x1e7d	dec    	eax
  0x1e7e	mov    	ecx, dword ptr [esp + 0x30]
  0x1e82	dec    	esp
  0x1e83	lea    	eax, [ebp - 0x70]
  0x1e86	inc    	ecx
  === BLOCK LINK ===
    0x1e87
=== CODE BLOCK END ===

=== CODE BLOCK ADDRESS 0x1e87 ===
  0x1e87	mov    	edi, 0x1000
  0x1e8c	dec    	eax
  0x1e8d	mov    	dword ptr [esp + 0x20], esi
  0x1e91	inc    	ebp
  0x1e92	mov    	ecx, edi
  === BLOCK LINK ===
    0x1e94
=== CODE BLOCK END ===

=== CODE BLOCK ADDRESS 0x1e94 ===
  0x1e94	mov    	edx, 1
  0x1e99	dec    	eax
  0x1e9a	call   	dword ptr [0x24a8]
  === BLOCK LINK ===
    0x1ea0
=== CODE BLOCK END ===

=== CODE BLOCK ADDRESS 0x1ea0 ===
  0x1ea0	nop    	dword ptr [eax + eax]
  0x1ea5	test   	eax, eax
  0x1ea7	js     	0x1e6d
  === BLOCK LINK ===
    0x1ea9
=== CODE BLOCK END ===

=== CODE BLOCK ADDRESS 0x1ea9 ===
  0x1ea9	dec    	eax
  0x1eaa	mov    	edx, dword ptr [ebx + 8]
  0x1ead	mov    	ecx, 0x40002728
  0x1eb2	call   	0x2558
  === BLOCK LINK ===
    0x1eb7
=== CODE BLOCK END ===

=== CODE BLOCK ADDRESS 0x1eb7 ===
  0x1eb7	dec    	eax
  0x1eb8	lea    	edx, [ebp - 0x58]
  0x1ebb	mov    	ecx, 0x4000272c
  0x1ec0	call   	0x2558
  === BLOCK LINK ===
    0x1ec5
=== CODE BLOCK END ===

=== CODE BLOCK ADDRESS 0x1ec5 ===
  0x1ec5	dec    	eax
  0x1ec6	mov    	eax, dword ptr [ebp - 0x60]
  0x1ec9	cmp    	eax, 1
  0x1ecc	jne    	0x1ed5
  === BLOCK LINK ===
    0x1ece
=== CODE BLOCK END ===

=== CODE BLOCK ADDRESS 0x1ece ===
  0x1ece	mov    	ecx, 0x40002729
  0x1ed3	jmp    	0x1eeb
  === BLOCK LINK ===
    0x1ed5
=== CODE BLOCK END ===

=== CODE BLOCK ADDRESS 0x1ed5 ===
  0x1ed5	cmp    	eax, 2
  0x1ed8	jne    	0x1ee1
  === BLOCK LINK ===
    0x1eda
=== CODE BLOCK END ===

=== CODE BLOCK ADDRESS 0x1eda ===
  0x1eda	mov    	ecx, 0x4000272a
  0x1edf	jmp    	0x1eeb
  === BLOCK LINK ===
    0x1ee1
=== CODE BLOCK END ===

=== CODE BLOCK ADDRESS 0x1ee1 ===
  0x1ee1	cmp    	eax, 3
  0x1ee4	jne    	0x1ef0
  === BLOCK LINK ===
    0x1ee6
=== CODE BLOCK END ===

=== CODE BLOCK ADDRESS 0x1ee6 ===
  0x1ee6	mov    	ecx, 0x4000272b
  0x1eeb	call   	0x2558
  === BLOCK LINK ===
    0x1ef0
=== CODE BLOCK END ===

=== CODE BLOCK ADDRESS 0x1ef0 ===
  0x1ef0	dec    	eax
  0x1ef1	mov    	ecx, dword ptr [esp + 0x30]
  0x1ef5	dec    	esp
  0x1ef6	lea    	eax, [esp + 0x58]
  0x1efa	inc    	ecx
  === BLOCK LINK ===
    0x1efb
=== CODE BLOCK END ===

=== CODE BLOCK ADDRESS 0x1efb ===
  0x1efb	mov    	ecx, 0x20
  0x1f00	dec    	eax
  0x1f01	mov    	dword ptr [esp + 0x20], esi
  0x1f05	inc    	ecx
  0x1f06	lea    	edx, [ecx - 0x1d]
  === BLOCK LINK ===
    0x1f09
=== CODE BLOCK END ===

=== CODE BLOCK ADDRESS 0x1f09 ===
  0x1f09	dec    	eax
  0x1f0a	call   	dword ptr [0x2438]
  === BLOCK LINK ===
    0x1f10
=== CODE BLOCK END ===

=== CODE BLOCK ADDRESS 0x1f10 ===
  0x1f10	nop    	dword ptr [eax + eax]
  0x1f15	cmp    	eax, 0xc019005f
  0x1f1a	je     	0x1fa1
  === BLOCK LINK ===
    0x1f20
=== CODE BLOCK END ===

=== CODE BLOCK ADDRESS 0x1f20 ===
  0x1f20	test   	eax, eax
  0x1f22	js     	0x1e6d
  === BLOCK LINK ===
    0x1f28
=== CODE BLOCK END ===

=== CODE BLOCK ADDRESS 0x1f28 ===
  0x1f28	dec    	eax
  0x1f29	lea    	edx, [esp + 0x38]
  0x1f2d	dec    	eax
  0x1f2e	lea    	ecx, [esp + 0x58]
  0x1f32	dec    	eax
  === BLOCK LINK ===
    0x1f33
=== CODE BLOCK END ===

=== CODE BLOCK ADDRESS 0x1f33 ===
  0x1f33	call   	dword ptr [0x241f]
  === BLOCK LINK ===
    0x1f39
=== CODE BLOCK END ===

=== CODE BLOCK ADDRESS 0x1f39 ===
  0x1f39	nop    	dword ptr [eax + eax]
  0x1f3e	dec    	eax
  0x1f3f	mov    	edx, dword ptr [esp + 0x40]
  0x1f43	mov    	ecx, 0x40002724
  0x1f48	call   	0x2558
  === BLOCK LINK ===
    0x1f4d
=== CODE BLOCK END ===

=== CODE BLOCK ADDRESS 0x1f4d ===
  0x1f4d	dec    	eax
  0x1f4e	lea    	edx, [esp + 0x38]
  0x1f52	dec    	eax
  0x1f53	lea    	ecx, [esp + 0x68]
  0x1f57	dec    	eax
  === BLOCK LINK ===
    0x1f58
=== CODE BLOCK END ===

=== CODE BLOCK ADDRESS 0x1f58 ===
  0x1f58	call   	dword ptr [0x23fa]
  === BLOCK LINK ===
    0x1f5e
=== CODE BLOCK END ===

=== CODE BLOCK ADDRESS 0x1f5e ===
  0x1f5e	nop    	dword ptr [eax + eax]
  0x1f63	dec    	eax
  0x1f64	mov    	edx, dword ptr [esp + 0x40]
  0x1f68	mov    	ecx, 0x4000271d
  0x1f6d	call   	0x2558
  === BLOCK LINK ===
    0x1f72
=== CODE BLOCK END ===

=== CODE BLOCK ADDRESS 0x1f72 ===
  0x1f72	inc    	ecx
  0x1f73	mov    	eax, 0x10
  0x1f78	dec    	eax
  0x1f79	lea    	edx, [esp + 0x48]
  0x1f7d	dec    	eax
  === BLOCK LINK ===
    0x1f7e
=== CODE BLOCK END ===

=== CODE BLOCK ADDRESS 0x1f7e ===
  0x1f7e	lea    	ecx, [esp + 0x68]
  0x1f82	dec    	eax
  0x1f83	call   	dword ptr [0x21e7]
  === BLOCK LINK ===
    0x1f89
=== CODE BLOCK END ===

=== CODE BLOCK ADDRESS 0x1f89 ===
  0x1f89	nop    	dword ptr [eax + eax]
  0x1f8e	dec    	eax
  0x1f8f	cmp    	eax, 0x10
  0x1f92	jne    	0x1fa1
  === BLOCK LINK ===
    0x1f94
=== CODE BLOCK END ===

=== CODE BLOCK ADDRESS 0x1f94 ===
  0x1f94	dec    	eax
  0x1f95	lea    	edx, [esp + 0x58]
  0x1f99	dec    	ecx
  0x1f9a	mov    	ecx, esi
  0x1f9c	call   	0x1c24
  === BLOCK LINK ===
    0x1fa1
=== CODE BLOCK END ===

=== CODE BLOCK ADDRESS 0x1fa1 ===
  0x1fa1	dec    	eax
  0x1fa2	mov    	ecx, dword ptr [esp + 0x30]
  0x1fa6	dec    	esp
  0x1fa7	lea    	eax, [ebp - 0x70]
  0x1faa	inc    	ebp
  === BLOCK LINK ===
    0x1fab
=== CODE BLOCK END ===

=== CODE BLOCK ADDRESS 0x1fab ===
  0x1fab	mov    	ecx, edi
  0x1fad	dec    	eax
  0x1fae	mov    	dword ptr [esp + 0x20], esi
  0x1fb2	mov    	edx, 2
  0x1fb7	dec    	eax
  === BLOCK LINK ===
    0x1fb8
=== CODE BLOCK END ===

=== CODE BLOCK ADDRESS 0x1fb8 ===
  0x1fb8	call   	dword ptr [0x238a]
  === BLOCK LINK ===
    0x1fbe
=== CODE BLOCK END ===

=== CODE BLOCK ADDRESS 0x1fbe ===
  0x1fbe	nop    	dword ptr [eax + eax]
  0x1fc3	test   	eax, eax
  0x1fc5	js     	0x1e6d
  === BLOCK LINK ===
    0x1fcb
=== CODE BLOCK END ===

=== CODE BLOCK ADDRESS 0x1fcb ===
  0x1fcb	cmp    	dword ptr [ebp - 0x70], esi
  0x1fce	jbe    	0x2061
  === BLOCK LINK ===
    0x1fd4
=== CODE BLOCK END ===

=== CODE BLOCK ADDRESS 0x1fd4 ===
  0x1fd4	mov    	ebx, esi
  0x1fd6	dec    	esp
  0x1fd7	lea    	edi, [ebp - 0x6c]
  0x1fda	dec    	eax
  0x1fdb	shl    	ebx, 5
  === BLOCK LINK ===
    0x1fde
=== CODE BLOCK END ===

=== CODE BLOCK ADDRESS 0x1fde ===
  0x1fde	dec    	eax
  0x1fdf	lea    	edx, [esp + 0x38]
  0x1fe3	dec    	esp
  0x1fe4	add    	edi, ebx
  0x1fe6	dec    	ecx
  === BLOCK LINK ===
    0x1fe7
=== CODE BLOCK END ===

=== CODE BLOCK ADDRESS 0x1fe7 ===
  0x1fe7	mov    	ecx, edi
  0x1fe9	dec    	eax
  0x1fea	call   	dword ptr [0x2368]
  === BLOCK LINK ===
    0x1ff0
=== CODE BLOCK END ===

=== CODE BLOCK ADDRESS 0x1ff0 ===
  0x1ff0	nop    	dword ptr [eax + eax]
  0x1ff5	dec    	eax
  0x1ff6	mov    	edx, dword ptr [esp + 0x40]
  0x1ffa	mov    	ecx, 0x40002725
  0x1fff	call   	0x2558
  === BLOCK LINK ===
    0x2004
=== CODE BLOCK END ===

=== CODE BLOCK ADDRESS 0x2004 ===
  0x2004	dec    	eax
  0x2005	lea    	ecx, [ebp - 0x5c]
  0x2008	dec    	eax
  0x2009	add    	ecx, ebx
  0x200b	dec    	eax
  === BLOCK LINK ===
    0x200c
=== CODE BLOCK END ===

=== CODE BLOCK ADDRESS 0x200c ===
  0x200c	lea    	edx, [esp + 0x38]
  0x2010	dec    	eax
  0x2011	call   	dword ptr [0x2341]
  === BLOCK LINK ===
    0x2017
=== CODE BLOCK END ===

=== CODE BLOCK ADDRESS 0x2017 ===
  0x2017	nop    	dword ptr [eax + eax]
  0x201c	dec    	eax
  0x201d	mov    	edx, dword ptr [esp + 0x40]
  0x2021	mov    	ecx, 0x4000271e
  0x2026	call   	0x2558
  === BLOCK LINK ===
    0x202b
=== CODE BLOCK END ===

=== CODE BLOCK ADDRESS 0x202b ===
  0x202b	inc    	ecx
  0x202c	mov    	eax, 0x10
  0x2031	dec    	eax
  0x2032	lea    	edx, [esp + 0x48]
  0x2036	dec    	ecx
  === BLOCK LINK ===
    0x2037
=== CODE BLOCK END ===

=== CODE BLOCK ADDRESS 0x2037 ===
  0x2037	mov    	ecx, edi
  0x2039	dec    	eax
  0x203a	call   	dword ptr [0x2130]
  === BLOCK LINK ===
    0x2040
=== CODE BLOCK END ===

=== CODE BLOCK ADDRESS 0x2040 ===
  0x2040	nop    	dword ptr [eax + eax]
  0x2045	dec    	eax
  0x2046	cmp    	eax, 0x10
  0x2049	jne    	0x2056
  === BLOCK LINK ===
    0x204b
=== CODE BLOCK END ===

=== CODE BLOCK ADDRESS 0x204b ===
  0x204b	dec    	ecx
  0x204c	mov    	edx, edi
  0x204e	dec    	ecx
  0x204f	mov    	ecx, esi
  0x2051	call   	0x1c24
  === BLOCK LINK ===
    0x2056
=== CODE BLOCK END ===

=== CODE BLOCK ADDRESS 0x2056 ===
  0x2056	inc    	esi
  0x2058	cmp    	esi, dword ptr [ebp - 0x70]
  0x205b	jb     	0x1fd4
  === BLOCK LINK ===
    0x2061
=== CODE BLOCK END ===

=== CODE BLOCK ADDRESS 0x2061 ===
  0x2061	dec    	eax
  0x2062	mov    	ecx, dword ptr [esp + 0x30]
  0x2066	dec    	eax
  0x2067	call   	dword ptr [0x20fb]
  === BLOCK LINK ===
    0x206d
=== CODE BLOCK END ===

=== CODE BLOCK ADDRESS 0x206d ===
  0x206d	nop    	dword ptr [eax + eax]
  0x2072	dec    	ecx
  0x2073	mov    	ecx, esi
  0x2075	dec    	eax
  0x2076	call   	dword ptr [0x20ec]
  === BLOCK LINK ===
    0x207c
=== CODE BLOCK END ===

=== CODE BLOCK ADDRESS 0x207c ===
  0x207c	nop    	dword ptr [eax + eax]
  0x2081	xor    	eax, eax
  0x2083	jmp    	0x2094
  === BLOCK LINK ===
    0x2085
=== CODE BLOCK END ===

=== CODE BLOCK ADDRESS 0x2085 ===
  0x2085	mov    	ecx, 0x40002714
  0x208a	call   	0x2558
  === BLOCK LINK ===
    0x208f
=== CODE BLOCK END ===

=== CODE BLOCK ADDRESS 0x208f ===
  0x208f	mov    	eax, 1
  0x2094	dec    	eax
  0x2095	mov    	ecx, dword ptr [ebp + 0xf90]
  0x209b	dec    	eax
  0x209c	xor    	ecx, esp
  === BLOCK LINK ===
    0x209e
=== CODE BLOCK END ===

=== CODE BLOCK ADDRESS 0x209e ===
  0x209e	call   	0x29b0
  === BLOCK LINK ===
    0x20a3
=== CODE BLOCK END ===

=== CODE BLOCK ADDRESS 0x20a3 ===
  0x20a3	dec    	esp
  0x20a4	lea    	ebx, [esp + 0x10a0]
  0x20ab	dec    	ecx
  0x20ac	mov    	ebx, dword ptr [ebx + 0x20]
  0x20af	dec    	ecx
  === BLOCK LINK ===
    0x20b0
=== CODE BLOCK END ===

=== CODE BLOCK ADDRESS 0x20b0 ===
  0x20b0	mov    	esi, dword ptr [ebx + 0x30]
  0x20b3	dec    	ecx
  0x20b4	mov    	esp, ebx
  0x20b6	inc    	ecx
  0x20b7	pop    	edi
  === BLOCK LINK ===
    0x20b8
=== CODE BLOCK END ===

=== CODE BLOCK ADDRESS 0x20b8 ===
  0x20b8	inc    	ecx
  0x20b9	pop    	esi
  0x20ba	pop    	ebp
  0x20bb	ret    	
  0x20bc	int3   	
  === BLOCK LINK ===
    0x20bd
=== CODE BLOCK END ===

=== CODE BLOCK ADDRESS 0x20bd ===
  0x20bd	int3   	
  0x20be	int3   	
  0x20bf	int3   	
  0x20c0	int3   	
  0x20c1	int3   	
  === BLOCK LINK ===
    0x20c2
=== CODE BLOCK END ===

=== CODE BLOCK ADDRESS 0x20c2 ===
  0x20c2	int3   	
  0x20c3	int3   	
  0x20c4	int3   	
  0x20c5	int3   	
  0x20c6	int3   	
  === BLOCK LINK ===
    0x20c7
=== CODE BLOCK END ===

=== CODE BLOCK ADDRESS 0x20c7 ===
  0x20c7	int3   	
  0x20c8	int3   	
  0x20c9	int3   	
  0x20ca	int3   	
  0x20cb	int3   	
  === BLOCK LINK ===
    0x20cc
=== CODE BLOCK END ===

=== CODE BLOCK ADDRESS 0x20cc ===
  0x20cc	int3   	
  0x20cd	int3   	
  0x20ce	int3   	
  0x20cf	int3   	
  0x20d0	dec    	eax
  === BLOCK LINK ===
    0x20d1
=== CODE BLOCK END ===

=== CODE BLOCK ADDRESS 0x20d1 ===
  0x20d1	sub    	esp, 0x28
  0x20d4	mov    	ecx, 0x4000272d
  0x20d9	call   	0x2558
  === BLOCK LINK ===
    0x20de
=== CODE BLOCK END ===

=== CODE BLOCK ADDRESS 0x20de ===
  0x20de	xor    	eax, eax
  0x20e0	dec    	eax
  0x20e1	add    	esp, 0x28
  0x20e4	ret    	
  0x20e5	int3   	
  === BLOCK LINK ===
    0x20e6
=== CODE BLOCK END ===

=== CODE BLOCK ADDRESS 0x20e6 ===
  0x20e6	int3   	
  0x20e7	int3   	
  0x20e8	int3   	
  0x20e9	int3   	
  0x20ea	int3   	
  === BLOCK LINK ===
    0x20eb
=== CODE BLOCK END ===

=== CODE BLOCK ADDRESS 0x20eb ===
  0x20eb	int3   	
  0x20ec	int3   	
  0x20ed	int3   	
  0x20ee	int3   	
  0x20ef	int3   	
  === BLOCK LINK ===
    0x20f0
=== CODE BLOCK END ===

=== CODE BLOCK ADDRESS 0x20f0 ===
  0x20f0	dec    	eax
  0x20f1	mov    	dword ptr [esp + 8], ebx
  0x20f5	dec    	eax
  0x20f6	mov    	dword ptr [esp + 0x18], esi
  0x20fa	push   	edi
  === BLOCK LINK ===
    0x20fb
=== CODE BLOCK END ===

=== CODE BLOCK ADDRESS 0x20fb ===
  0x20fb	mov    	eax, 0x1070
  0x2100	call   	0x2f70
  === BLOCK LINK ===
    0x2105
=== CODE BLOCK END ===

=== CODE BLOCK ADDRESS 0x2105 ===
  0x2105	dec    	eax
  0x2106	sub    	esp, eax
  0x2108	dec    	eax
  0x2109	mov    	eax, dword ptr [0x4039]
  0x210f	dec    	eax
  === BLOCK LINK ===
    0x2110
=== CODE BLOCK END ===

=== CODE BLOCK ADDRESS 0x2110 ===
  0x2110	xor    	eax, esp
  0x2112	dec    	eax
  0x2113	mov    	dword ptr [esp + 0x1060], eax
  0x211a	mov    	esi, 1
  0x211f	dec    	eax
  === BLOCK LINK ===
    0x2120
=== CODE BLOCK END ===

=== CODE BLOCK ADDRESS 0x2120 ===
  0x2120	mov    	edi, edx
  0x2122	cmp    	ecx, esi
  0x2124	je     	0x2137
  === BLOCK LINK ===
    0x2126
=== CODE BLOCK END ===

=== CODE BLOCK ADDRESS 0x2126 ===
  0x2126	mov    	ecx, 0x4000272e
  0x212b	call   	0x2558
  === BLOCK LINK ===
    0x2130
=== CODE BLOCK END ===

=== CODE BLOCK ADDRESS 0x2130 ===
  0x2130	mov    	eax, esi
  0x2132	jmp    	0x2248
  === BLOCK LINK ===
    0x2137
=== CODE BLOCK END ===

=== CODE BLOCK ADDRESS 0x2137 ===
  0x2137	dec    	eax
  0x2138	mov    	ecx, dword ptr [edi]
  0x213a	dec    	eax
  0x213b	lea    	edx, [esp + 0x40]
  0x213f	dec    	eax
  === BLOCK LINK ===
    0x2140
=== CODE BLOCK END ===

=== CODE BLOCK ADDRESS 0x2140 ===
  0x2140	call   	dword ptr [0x20da]
  === BLOCK LINK ===
    0x2146
=== CODE BLOCK END ===

=== CODE BLOCK ADDRESS 0x2146 ===
  0x2146	nop    	dword ptr [eax + eax]
  0x214b	test   	eax, eax
  0x214d	je     	0x215e
  === BLOCK LINK ===
    0x214f
=== CODE BLOCK END ===

=== CODE BLOCK ADDRESS 0x214f ===
  0x214f	dec    	eax
  0x2150	mov    	edx, dword ptr [edi]
  0x2152	mov    	ecx, 0x4000271a
  0x2157	call   	0x2558
  === BLOCK LINK ===
    0x215c
=== CODE BLOCK END ===

=== CODE BLOCK ADDRESS 0x215c ===
  0x215c	jmp    	0x2126
  === BLOCK LINK ===
    0x215e
=== CODE BLOCK END ===

=== CODE BLOCK ADDRESS 0x215e ===
  0x215e	inc    	ebp
  0x215f	xor    	eax, eax
  0x2161	dec    	eax
  0x2162	lea    	ecx, [esp + 0x40]
  0x2166	mov    	edx, 0x20001
  === BLOCK LINK ===
    0x216b
=== CODE BLOCK END ===

=== CODE BLOCK ADDRESS 0x216b ===
  0x216b	dec    	eax
  0x216c	call   	dword ptr [0x20be]
  === BLOCK LINK ===
    0x2172
=== CODE BLOCK END ===

=== CODE BLOCK ADDRESS 0x2172 ===
  0x2172	nop    	dword ptr [eax + eax]
  0x2177	dec    	eax
  0x2178	mov    	ebx, eax
  0x217a	dec    	eax
  0x217b	cmp    	eax, -1
  === BLOCK LINK ===
    0x217e
=== CODE BLOCK END ===

=== CODE BLOCK ADDRESS 0x217e ===
  0x217e	jne    	0x2195
  === BLOCK LINK ===
    0x2180
=== CODE BLOCK END ===

=== CODE BLOCK ADDRESS 0x2180 ===
  0x2180	dec    	eax
  0x2181	call   	dword ptr [0x1fd9]
  === BLOCK LINK ===
    0x2187
=== CODE BLOCK END ===

=== CODE BLOCK ADDRESS 0x2187 ===
  0x2187	nop    	dword ptr [eax + eax]
  0x218c	mov    	ecx, eax
  0x218e	call   	0x23e8
  === BLOCK LINK ===
    0x2193
=== CODE BLOCK END ===

=== CODE BLOCK ADDRESS 0x2193 ===
  0x2193	jmp    	0x2130
  === BLOCK LINK ===
    0x2195
=== CODE BLOCK END ===

=== CODE BLOCK ADDRESS 0x2195 ===
  0x2195	dec    	eax
  0x2196	and    	dword ptr [esp + 0x20], 0
  0x219b	dec    	esp
  0x219c	lea    	eax, [esp + 0x60]
  0x21a0	inc    	ecx
  === BLOCK LINK ===
    0x21a1
=== CODE BLOCK END ===

=== CODE BLOCK ADDRESS 0x21a1 ===
  0x21a1	mov    	ecx, 0x1000
  0x21a6	mov    	edx, 2
  0x21ab	dec    	eax
  0x21ac	mov    	ecx, ebx
  0x21ae	dec    	eax
  === BLOCK LINK ===
    0x21af
=== CODE BLOCK END ===

=== CODE BLOCK ADDRESS 0x21af ===
  0x21af	call   	dword ptr [0x2183]
  === BLOCK LINK ===
    0x21b5
=== CODE BLOCK END ===

=== CODE BLOCK ADDRESS 0x21b5 ===
  0x21b5	nop    	dword ptr [eax + eax]
  0x21ba	test   	eax, eax
  0x21bc	jns    	0x21ce
  === BLOCK LINK ===
    0x21be
=== CODE BLOCK END ===

=== CODE BLOCK ADDRESS 0x21be ===
  0x21be	mov    	ecx, eax
  0x21c0	dec    	eax
  0x21c1	call   	dword ptr [0x2199]
  === BLOCK LINK ===
    0x21c7
=== CODE BLOCK END ===

=== CODE BLOCK ADDRESS 0x21c7 ===
  0x21c7	nop    	dword ptr [eax + eax]
  0x21cc	jmp    	0x218c
  === BLOCK LINK ===
    0x21ce
=== CODE BLOCK END ===

=== CODE BLOCK ADDRESS 0x21ce ===
  0x21ce	dec    	eax
  0x21cf	mov    	edx, dword ptr [edi]
  0x21d1	mov    	ecx, 0x40002727
  0x21d6	call   	0x2558
  === BLOCK LINK ===
    0x21db
=== CODE BLOCK END ===

=== CODE BLOCK ADDRESS 0x21db ===
  0x21db	dec    	eax
  0x21dc	lea    	edx, [esp + 0x64]
  0x21e0	mov    	ecx, 0x40002726
  0x21e5	call   	0x2558
  === BLOCK LINK ===
    0x21ea
=== CODE BLOCK END ===

=== CODE BLOCK ADDRESS 0x21ea ===
  0x21ea	dec    	eax
  0x21eb	and    	dword ptr [esp + 0x20], 0
  0x21f0	dec    	esp
  0x21f1	lea    	eax, [esp + 0x50]
  0x21f5	inc    	ecx
  === BLOCK LINK ===
    0x21f6
=== CODE BLOCK END ===

=== CODE BLOCK ADDRESS 0x21f6 ===
  0x21f6	mov    	ecx, 0x10
  0x21fb	dec    	eax
  0x21fc	mov    	ecx, ebx
  0x21fe	inc    	ecx
  0x21ff	lea    	edx, [ecx - 0xb]
  === BLOCK LINK ===
    0x2202
=== CODE BLOCK END ===

=== CODE BLOCK ADDRESS 0x2202 ===
  0x2202	dec    	eax
  0x2203	call   	dword ptr [0x212f]
  === BLOCK LINK ===
    0x2209
=== CODE BLOCK END ===

=== CODE BLOCK ADDRESS 0x2209 ===
  0x2209	nop    	dword ptr [eax + eax]
  0x220e	test   	eax, eax
  0x2210	js     	0x21be
  === BLOCK LINK ===
    0x2212
=== CODE BLOCK END ===

=== CODE BLOCK ADDRESS 0x2212 ===
  0x2212	dec    	eax
  0x2213	lea    	edx, [esp + 0x30]
  0x2217	dec    	eax
  0x2218	lea    	ecx, [esp + 0x50]
  0x221c	dec    	eax
  === BLOCK LINK ===
    0x221d
=== CODE BLOCK END ===

=== CODE BLOCK ADDRESS 0x221d ===
  0x221d	call   	dword ptr [0x2135]
  === BLOCK LINK ===
    0x2223
=== CODE BLOCK END ===

=== CODE BLOCK ADDRESS 0x2223 ===
  0x2223	nop    	dword ptr [eax + eax]
  0x2228	dec    	eax
  0x2229	mov    	edx, dword ptr [esp + 0x38]
  0x222d	mov    	ecx, 0x4000271b
  0x2232	call   	0x2558
  === BLOCK LINK ===
    0x2237
=== CODE BLOCK END ===

=== CODE BLOCK ADDRESS 0x2237 ===
  0x2237	dec    	eax
  0x2238	mov    	ecx, ebx
  0x223a	dec    	eax
  0x223b	call   	dword ptr [0x1f27]
  === BLOCK LINK ===
    0x2241
=== CODE BLOCK END ===

=== CODE BLOCK ADDRESS 0x2241 ===
  0x2241	nop    	dword ptr [eax + eax]
  0x2246	xor    	eax, eax
  0x2248	dec    	eax
  0x2249	mov    	ecx, dword ptr [esp + 0x1060]
  0x2250	dec    	eax
  === BLOCK LINK ===
    0x2251
=== CODE BLOCK END ===

=== CODE BLOCK ADDRESS 0x2251 ===
  0x2251	xor    	ecx, esp
  0x2253	call   	0x29b0
  === BLOCK LINK ===
    0x2258
=== CODE BLOCK END ===

=== CODE BLOCK ADDRESS 0x2258 ===
  0x2258	dec    	esp
  0x2259	lea    	ebx, [esp + 0x1070]
  0x2260	dec    	ecx
  0x2261	mov    	ebx, dword ptr [ebx + 0x10]
  0x2264	dec    	ecx
  === BLOCK LINK ===
    0x2265
=== CODE BLOCK END ===

=== CODE BLOCK ADDRESS 0x2265 ===
  0x2265	mov    	esi, dword ptr [ebx + 0x20]
  0x2268	dec    	ecx
  0x2269	mov    	esp, ebx
  0x226b	pop    	edi
  0x226c	ret    	
  === BLOCK LINK ===
    0x226d
=== CODE BLOCK END ===

=== CODE BLOCK ADDRESS 0x1256 ===
  0x1256	mov    	ecx, 0x40002710
  0x125b	call   	0x2558
  === BLOCK LINK ===
    0x1260
=== CODE BLOCK END ===

=== CODE BLOCK ADDRESS 0x226d ===
  0x226d	int3   	
  0x226e	int3   	
  0x226f	int3   	
  0x2270	int3   	
  0x2271	int3   	
  === BLOCK LINK ===
    0x2272
=== CODE BLOCK END ===

=== CODE BLOCK ADDRESS 0x2272 ===
  0x2272	int3   	
  0x2273	int3   	
  0x2274	dec    	eax
  0x2275	mov    	dword ptr [esp + 8], ebx
  0x2279	dec    	eax
  === BLOCK LINK ===
    0x227a
=== CODE BLOCK END ===

=== CODE BLOCK ADDRESS 0x227a ===
  0x227a	mov    	dword ptr [esp + 0x20], ebp
  0x227e	push   	esi
  0x227f	push   	edi
  0x2280	inc    	ecx
  0x2281	push   	esp
  === BLOCK LINK ===
    0x2282
=== CODE BLOCK END ===

=== CODE BLOCK ADDRESS 0x2282 ===
  0x2282	inc    	ecx
  0x2283	push   	esi
  0x2284	inc    	ecx
  0x2285	push   	edi
  0x2286	dec    	eax
  === BLOCK LINK ===
    0x2287
=== CODE BLOCK END ===

=== CODE BLOCK ADDRESS 0x2287 ===
  0x2287	sub    	esp, 0x40
  0x228a	dec    	eax
  0x228b	or     	ebx, 0xffffffff
  0x228e	dec    	eax
  0x228f	mov    	esi, ecx
  === BLOCK LINK ===
    0x2291
=== CODE BLOCK END ===

=== CODE BLOCK ADDRESS 0x2291 ===
  0x2291	inc    	ebp
  0x2292	xor    	esp, esp
  0x2294	dec    	eax
  0x2295	inc    	ebx
  0x2297	inc    	sp
  === BLOCK LINK ===
    0x2299
=== CODE BLOCK END ===

=== CODE BLOCK ADDRESS 0x2299 ===
  0x2299	cmp    	dword ptr [ecx + ebx*2], esp
  0x229c	jne    	0x2294
  === BLOCK LINK ===
    0x229e
=== CODE BLOCK END ===

=== CODE BLOCK ADDRESS 0x229e ===
  0x229e	mov    	ecx, 0xfffffff5
  0x22a3	dec    	eax
  0x22a4	call   	dword ptr [0x1ece]
  === BLOCK LINK ===
    0x22aa
=== CODE BLOCK END ===

=== CODE BLOCK ADDRESS 0x22aa ===
  0x22aa	nop    	dword ptr [eax + eax]
  0x22af	dec    	eax
  0x22b0	mov    	edi, eax
  0x22b2	dec    	eax
  0x22b3	test   	eax, eax
  === BLOCK LINK ===
    0x22b5
=== CODE BLOCK END ===

=== CODE BLOCK ADDRESS 0x22b5 ===
  0x22b5	je     	0x23c6
  === BLOCK LINK ===
    0x22bb
=== CODE BLOCK END ===

=== CODE BLOCK ADDRESS 0x22bb ===
  0x22bb	dec    	eax
  0x22bc	mov    	ecx, eax
  0x22be	dec    	eax
  0x22bf	call   	dword ptr [0x1ebb]
  === BLOCK LINK ===
    0x22c5
=== CODE BLOCK END ===

=== CODE BLOCK ADDRESS 0x22c5 ===
  0x22c5	nop    	dword ptr [eax + eax]
  0x22ca	cmp    	eax, 2
  0x22cd	jne    	0x230e
  === BLOCK LINK ===
    0x22cf
=== CODE BLOCK END ===

=== CODE BLOCK ADDRESS 0x22cf ===
  0x22cf	dec    	eax
  0x22d0	lea    	edx, [esp + 0x80]
  0x22d7	dec    	eax
  0x22d8	mov    	ecx, edi
  0x22da	dec    	eax
  === BLOCK LINK ===
    0x22db
=== CODE BLOCK END ===

=== CODE BLOCK ADDRESS 0x22db ===
  0x22db	call   	dword ptr [0x1ea7]
  === BLOCK LINK ===
    0x22e1
=== CODE BLOCK END ===

=== CODE BLOCK ADDRESS 0x22e1 ===
  0x22e1	nop    	dword ptr [eax + eax]
  0x22e6	test   	eax, eax
  0x22e8	je     	0x230e
  === BLOCK LINK ===
    0x22ea
=== CODE BLOCK END ===

=== CODE BLOCK ADDRESS 0x22ea ===
  0x22ea	dec    	esp
  0x22eb	lea    	ecx, [esp + 0x78]
  0x22ef	dec    	esp
  0x22f0	mov    	dword ptr [esp + 0x20], esp
  0x22f4	inc    	esp
  === BLOCK LINK ===
    0x22f5
=== CODE BLOCK END ===

=== CODE BLOCK ADDRESS 0x22f5 ===
  0x22f5	mov    	eax, ebx
  0x22f7	dec    	eax
  0x22f8	mov    	edx, esi
  0x22fa	dec    	eax
  0x22fb	mov    	ecx, edi
  === BLOCK LINK ===
    0x22fd
=== CODE BLOCK END ===

=== CODE BLOCK ADDRESS 0x22fd ===
  0x22fd	dec    	eax
  0x22fe	call   	dword ptr [0x1e8c]
  === BLOCK LINK ===
    0x2304
=== CODE BLOCK END ===

=== CODE BLOCK ADDRESS 0x2304 ===
  0x2304	nop    	dword ptr [eax + eax]
  0x2309	jmp    	0x23c6
  === BLOCK LINK ===
    0x230e
=== CODE BLOCK END ===

=== CODE BLOCK ADDRESS 0x230e ===
  0x230e	dec    	eax
  0x230f	call   	dword ptr [0x1e8b]
  === BLOCK LINK ===
    0x2315
=== CODE BLOCK END ===

=== CODE BLOCK ADDRESS 0x2315 ===
  0x2315	nop    	dword ptr [eax + eax]
  0x231a	dec    	esp
  0x231b	mov    	dword ptr [esp + 0x38], esp
  0x231f	inc    	esp
  0x2320	mov    	ecx, ebx
  === BLOCK LINK ===
    0x2322
=== CODE BLOCK END ===

=== CODE BLOCK ADDRESS 0x2322 ===
  0x2322	dec    	esp
  0x2323	mov    	dword ptr [esp + 0x30], esp
  0x2327	mov    	ecx, eax
  0x2329	inc    	esp
  0x232a	mov    	dword ptr [esp + 0x28], esp
  === BLOCK LINK ===
    0x232e
=== CODE BLOCK END ===

=== CODE BLOCK ADDRESS 0x232e ===
  0x232e	dec    	esp
  0x232f	mov    	eax, esi
  0x2331	xor    	edx, edx
  0x2333	dec    	esp
  0x2334	mov    	dword ptr [esp + 0x20], esp
  === BLOCK LINK ===
    0x2338
=== CODE BLOCK END ===

=== CODE BLOCK ADDRESS 0x2338 ===
  0x2338	dec    	eax
  0x2339	call   	dword ptr [0x1e59]
  === BLOCK LINK ===
    0x233f
=== CODE BLOCK END ===

=== CODE BLOCK ADDRESS 0x233f ===
  0x233f	nop    	dword ptr [eax + eax]
  0x2344	inc    	esp
  0x2345	mov    	esi, eax
  0x2347	inc    	esp
  0x2348	lea    	edi, [eax + 1]
  === BLOCK LINK ===
    0x234b
=== CODE BLOCK END ===

=== CODE BLOCK ADDRESS 0x234b ===
  0x234b	dec    	ecx
  0x234c	arpl   	di, cx
  0x234e	dec    	eax
  0x234f	call   	dword ptr [0x1f73]
  === BLOCK LINK ===
    0x2355
=== CODE BLOCK END ===

=== CODE BLOCK ADDRESS 0x2355 ===
  0x2355	nop    	dword ptr [eax + eax]
  0x235a	dec    	eax
  0x235b	mov    	ebp, eax
  0x235d	dec    	eax
  0x235e	test   	eax, eax
  === BLOCK LINK ===
    0x2360
=== CODE BLOCK END ===

=== CODE BLOCK ADDRESS 0x2360 ===
  0x2360	je     	0x23c6
  === BLOCK LINK ===
    0x2362
=== CODE BLOCK END ===

=== CODE BLOCK ADDRESS 0x2362 ===
  0x2362	dec    	eax
  0x2363	call   	dword ptr [0x1e37]
  === BLOCK LINK ===
    0x2369
=== CODE BLOCK END ===

=== CODE BLOCK ADDRESS 0x2369 ===
  0x2369	nop    	dword ptr [eax + eax]
  0x236e	dec    	esp
  0x236f	mov    	dword ptr [esp + 0x38], esp
  0x2373	inc    	esp
  0x2374	mov    	ecx, ebx
  === BLOCK LINK ===
    0x2376
=== CODE BLOCK END ===

=== CODE BLOCK ADDRESS 0x2376 ===
  0x2376	dec    	esp
  0x2377	mov    	dword ptr [esp + 0x30], esp
  0x237b	mov    	ecx, eax
  0x237d	inc    	esp
  0x237e	mov    	dword ptr [esp + 0x28], edi
  === BLOCK LINK ===
    0x2382
=== CODE BLOCK END ===

=== CODE BLOCK ADDRESS 0x2382 ===
  0x2382	dec    	esp
  0x2383	mov    	eax, esi
  0x2385	xor    	edx, edx
  0x2387	dec    	eax
  0x2388	mov    	dword ptr [esp + 0x20], ebp
  === BLOCK LINK ===
    0x238c
=== CODE BLOCK END ===

=== CODE BLOCK ADDRESS 0x238c ===
  0x238c	dec    	eax
  0x238d	call   	dword ptr [0x1e05]
  === BLOCK LINK ===
    0x2393
=== CODE BLOCK END ===

=== CODE BLOCK ADDRESS 0x2393 ===
  0x2393	nop    	dword ptr [eax + eax]
  0x2398	dec    	esp
  0x2399	lea    	ecx, [esp + 0x78]
  0x239d	dec    	esp
  0x239e	mov    	dword ptr [esp + 0x20], esp
  === BLOCK LINK ===
    0x23a2
=== CODE BLOCK END ===

=== CODE BLOCK ADDRESS 0x23a2 ===
  0x23a2	inc    	ebp
  0x23a3	mov    	eax, esi
  0x23a5	dec    	eax
  0x23a6	mov    	edx, ebp
  0x23a8	dec    	eax
  === BLOCK LINK ===
    0x23a9
=== CODE BLOCK END ===

=== CODE BLOCK ADDRESS 0x23a9 ===
  0x23a9	mov    	ecx, edi
  0x23ab	dec    	eax
  0x23ac	call   	dword ptr [0x1df6]
  === BLOCK LINK ===
    0x23b2
=== CODE BLOCK END ===

=== CODE BLOCK ADDRESS 0x23b2 ===
  0x23b2	nop    	dword ptr [eax + eax]
  0x23b7	dec    	eax
  0x23b8	mov    	ecx, ebp
  0x23ba	dec    	eax
  0x23bb	call   	dword ptr [0x1f0f]
  === BLOCK LINK ===
    0x23c1
=== CODE BLOCK END ===

=== CODE BLOCK ADDRESS 0x23c1 ===
  0x23c1	nop    	dword ptr [eax + eax]
  0x23c6	dec    	esp
  0x23c7	lea    	ebx, [esp + 0x40]
  0x23cb	dec    	ecx
  0x23cc	mov    	ebx, dword ptr [ebx + 0x30]
  === BLOCK LINK ===
    0x23cf
=== CODE BLOCK END ===

=== CODE BLOCK ADDRESS 0x23cf ===
  0x23cf	dec    	ecx
  0x23d0	mov    	ebp, dword ptr [ebx + 0x48]
  0x23d3	dec    	ecx
  0x23d4	mov    	esp, ebx
  0x23d6	inc    	ecx
  === BLOCK LINK ===
    0x23d7
=== CODE BLOCK END ===

=== CODE BLOCK ADDRESS 0x23d7 ===
  0x23d7	pop    	edi
  0x23d8	inc    	ecx
  0x23d9	pop    	esi
  0x23da	inc    	ecx
  0x23db	pop    	esp
  === BLOCK LINK ===
    0x23dc
=== CODE BLOCK END ===

=== CODE BLOCK ADDRESS 0x23dc ===
  0x23dc	pop    	edi
  0x23dd	pop    	esi
  0x23de	ret    	
  0x23df	int3   	
  0x23e0	int3   	
  === BLOCK LINK ===
    0x23e1
=== CODE BLOCK END ===

=== CODE BLOCK ADDRESS 0x23e1 ===
  0x23e1	int3   	
  0x23e2	int3   	
  0x23e3	int3   	
  0x23e4	int3   	
  0x23e5	int3   	
  === BLOCK LINK ===
    0x23e6
=== CODE BLOCK END ===

=== CODE BLOCK ADDRESS 0x23e6 ===
  0x23e6	int3   	
  0x23e7	int3   	
  === BLOCK LINK ===
    0x23e8
=== CODE BLOCK END ===

=== CODE BLOCK ADDRESS 0x23ef ===
  0x23ef	dec    	ecx
  0x23f0	mov    	dword ptr [ebx + 0x10], edx
  0x23f3	dec    	ebp
  0x23f4	mov    	dword ptr [ebx + 0x18], eax
  0x23f7	dec    	ebp
  === BLOCK LINK ===
    0x23f8
=== CODE BLOCK END ===

=== CODE BLOCK ADDRESS 0x23f8 ===
  0x23f8	mov    	dword ptr [ebx + 0x20], ecx
  0x23fb	push   	ebp
  0x23fc	push   	edi
  0x23fd	dec    	eax
  0x23fe	mov    	ebp, esp
  === BLOCK LINK ===
    0x2400
=== CODE BLOCK END ===

=== CODE BLOCK ADDRESS 0x2400 ===
  0x2400	dec    	eax
  0x2401	sub    	esp, 0x58
  0x2404	dec    	ecx
  0x2405	and    	dword ptr [ebx - 0x38], 0
  0x2409	dec    	eax
  === BLOCK LINK ===
    0x240a
=== CODE BLOCK END ===

=== CODE BLOCK ADDRESS 0x240a ===
  0x240a	lea    	eax, [ebp + 0x20]
  0x240d	and    	dword ptr [esp + 0x28], 0
  0x2412	mov    	edi, 0x900
  0x2417	dec    	eax
  0x2418	mov    	dword ptr [ebp - 0x10], eax
  === BLOCK LINK ===
    0x241b
=== CODE BLOCK END ===

=== CODE BLOCK ADDRESS 0x241b ===
  0x241b	inc    	ebp
  0x241c	xor    	ecx, ecx
  0x241e	dec    	eax
  0x241f	lea    	eax, [ebp - 0x18]
  0x2422	xor    	edx, edx
  === BLOCK LINK ===
    0x2424
=== CODE BLOCK END ===

=== CODE BLOCK ADDRESS 0x2424 ===
  0x2424	inc    	ecx
  0x2425	mov    	eax, 0x40002711
  0x242a	dec    	ecx
  0x242b	mov    	dword ptr [ebx - 0x48], eax
  0x242e	mov    	ecx, edi
  === BLOCK LINK ===
    0x2430
=== CODE BLOCK END ===

=== CODE BLOCK ADDRESS 0x2430 ===
  0x2430	dec    	eax
  0x2431	call   	dword ptr [0x1d79]
  === BLOCK LINK ===
    0x2437
=== CODE BLOCK END ===

=== CODE BLOCK ADDRESS 0x2437 ===
  0x2437	nop    	dword ptr [eax + eax]
  0x243c	test   	eax, eax
  0x243e	je     	0x2459
  === BLOCK LINK ===
    0x2440
=== CODE BLOCK END ===

=== CODE BLOCK ADDRESS 0x2440 ===
  0x2440	dec    	eax
  0x2441	mov    	ecx, dword ptr [ebp - 0x18]
  0x2444	call   	0x2274
  === BLOCK LINK ===
    0x2449
=== CODE BLOCK END ===

=== CODE BLOCK ADDRESS 0x2449 ===
  0x2449	dec    	eax
  0x244a	mov    	ecx, dword ptr [ebp - 0x18]
  0x244d	dec    	eax
  0x244e	call   	dword ptr [0x1d64]
  === BLOCK LINK ===
    0x2454
=== CODE BLOCK END ===

=== CODE BLOCK ADDRESS 0x2454 ===
  0x2454	nop    	dword ptr [eax + eax]
  0x2459	inc    	esp
  0x245a	mov    	eax, dword ptr [ebp + 0x18]
  0x245d	dec    	eax
  0x245e	lea    	eax, [ebp - 0x10]
  === BLOCK LINK ===
    0x2461
=== CODE BLOCK END ===

=== CODE BLOCK ADDRESS 0x2461 ===
  0x2461	dec    	eax
  0x2462	mov    	dword ptr [esp + 0x30], eax
  0x2466	inc    	ecx
  0x2467	cmp    	eax, 0x40002710
  0x246d	mov    	ecx, 0x1100
  === BLOCK LINK ===
    0x2472
=== CODE BLOCK END ===

=== CODE BLOCK ADDRESS 0x2472 ===
  0x2472	dec    	eax
  0x2473	lea    	eax, [ebp - 0x18]
  0x2476	cmovge  	ecx, edi
  0x2479	and    	dword ptr [esp + 0x28], 0
  0x247e	inc    	ebp
  === BLOCK LINK ===
    0x247f
=== CODE BLOCK END ===

=== CODE BLOCK ADDRESS 0x247f ===
  0x247f	xor    	ecx, ecx
  0x2481	dec    	eax
  0x2482	mov    	dword ptr [esp + 0x20], eax
  0x2486	xor    	edx, edx
  0x2488	dec    	eax
  === BLOCK LINK ===
    0x2489
=== CODE BLOCK END ===

=== CODE BLOCK ADDRESS 0x2489 ===
  0x2489	call   	dword ptr [0x1d21]
  === BLOCK LINK ===
    0x248f
=== CODE BLOCK END ===

=== CODE BLOCK ADDRESS 0x248f ===
  0x248f	nop    	dword ptr [eax + eax]
  0x2494	test   	eax, eax
  0x2496	jne    	0x24f2
  === BLOCK LINK ===
    0x2498
=== CODE BLOCK END ===

=== CODE BLOCK ADDRESS 0x2498 ===
  0x2498	dec    	eax
  0x2499	mov    	eax, dword ptr [0x3cc1]
  0x249f	dec    	eax
  0x24a0	cmp    	eax, -1
  0x24a3	jne    	0x24bf
  === BLOCK LINK ===
    0x24a5
=== CODE BLOCK END ===

=== CODE BLOCK ADDRESS 0x24a5 ===
  0x24a5	dec    	eax
  0x24a6	lea    	ecx, [0x201c]
  0x24ac	dec    	eax
  0x24ad	call   	dword ptr [0x1d0d]
  === BLOCK LINK ===
    0x24b3
=== CODE BLOCK END ===

=== CODE BLOCK ADDRESS 0x24b3 ===
  0x24b3	nop    	dword ptr [eax + eax]
  0x24b8	dec    	eax
  0x24b9	mov    	dword ptr [0x3ca1], eax
  0x24bf	inc    	esp
  0x24c0	mov    	eax, dword ptr [ebp + 0x18]
  === BLOCK LINK ===
    0x24c3
=== CODE BLOCK END ===

=== CODE BLOCK ADDRESS 0x24c3 ===
  0x24c3	dec    	eax
  0x24c4	lea    	edx, [ebp - 0x10]
  0x24c7	dec    	eax
  0x24c8	mov    	dword ptr [esp + 0x30], edx
  0x24cc	inc    	ebp
  === BLOCK LINK ===
    0x24cd
=== CODE BLOCK END ===

=== CODE BLOCK ADDRESS 0x24cd ===
  0x24cd	xor    	ecx, ecx
  0x24cf	and    	dword ptr [esp + 0x28], 0
  0x24d4	dec    	eax
  0x24d5	lea    	edx, [ebp - 0x18]
  0x24d8	dec    	eax
  === BLOCK LINK ===
    0x24d9
=== CODE BLOCK END ===

=== CODE BLOCK ADDRESS 0x24d9 ===
  0x24d9	mov    	dword ptr [esp + 0x20], edx
  0x24dd	mov    	ecx, edi
  0x24df	dec    	eax
  0x24e0	mov    	edx, eax
  0x24e2	dec    	eax
  === BLOCK LINK ===
    0x24e3
=== CODE BLOCK END ===

=== CODE BLOCK ADDRESS 0x24e3 ===
  0x24e3	call   	dword ptr [0x1cc7]
  === BLOCK LINK ===
    0x24e9
=== CODE BLOCK END ===

=== CODE BLOCK ADDRESS 0x24e9 ===
  0x24e9	nop    	dword ptr [eax + eax]
  0x24ee	test   	eax, eax
  0x24f0	je     	0x2525
  === BLOCK LINK ===
    0x24f2
=== CODE BLOCK END ===

=== CODE BLOCK ADDRESS 0x24f2 ===
  0x24f2	dec    	eax
  0x24f3	lea    	ecx, [0x1fbf]
  0x24f9	call   	0x2274
  === BLOCK LINK ===
    0x24fe
=== CODE BLOCK END ===

=== CODE BLOCK ADDRESS 0x24fe ===
  0x24fe	dec    	eax
  0x24ff	mov    	ecx, dword ptr [ebp - 0x18]
  0x2502	call   	0x2274
  === BLOCK LINK ===
    0x2507
=== CODE BLOCK END ===

=== CODE BLOCK ADDRESS 0x2507 ===
  0x2507	dec    	eax
  0x2508	lea    	ecx, [0x1fae]
  0x250e	call   	0x2274
  === BLOCK LINK ===
    0x2513
=== CODE BLOCK END ===

=== CODE BLOCK ADDRESS 0x2513 ===
  0x2513	dec    	eax
  0x2514	mov    	ecx, dword ptr [ebp - 0x18]
  0x2517	dec    	eax
  0x2518	call   	dword ptr [0x1c9a]
  === BLOCK LINK ===
    0x251e
=== CODE BLOCK END ===

=== CODE BLOCK ADDRESS 0x251e ===
  0x251e	nop    	dword ptr [eax + eax]
  0x2523	jmp    	0x254a
  === BLOCK LINK ===
    0x2525
=== CODE BLOCK END ===

=== CODE BLOCK ADDRESS 0x2525 ===
  0x2525	dec    	eax
  0x2526	call   	dword ptr [0x1c34]
  === BLOCK LINK ===
    0x252c
=== CODE BLOCK END ===

=== CODE BLOCK ADDRESS 0x252c ===
  0x252c	nop    	dword ptr [eax + eax]
  0x2531	mov    	edx, dword ptr [ebp + 0x18]
  0x2534	dec    	eax
  0x2535	lea    	ecx, [0x1fa5]
  0x253b	inc    	esp
  === BLOCK LINK ===
    0x253c
=== CODE BLOCK END ===

=== CODE BLOCK ADDRESS 0x253c ===
  0x253c	mov    	eax, eax
  0x253e	dec    	eax
  0x253f	call   	dword ptr [0x1d93]
  === BLOCK LINK ===
    0x2545
=== CODE BLOCK END ===

=== CODE BLOCK ADDRESS 0x2545 ===
  0x2545	nop    	dword ptr [eax + eax]
  0x254a	dec    	eax
  0x254b	add    	esp, 0x58
  0x254e	pop    	edi
  0x254f	pop    	ebp
  === BLOCK LINK ===
    0x2550
=== CODE BLOCK END ===

=== CODE BLOCK ADDRESS 0x2550 ===
  0x2550	ret    	
  0x2551	int3   	
  0x2552	int3   	
  0x2553	int3   	
  0x2554	int3   	
  === BLOCK LINK ===
    0x2555
=== CODE BLOCK END ===

=== CODE BLOCK ADDRESS 0x2555 ===
  0x2555	int3   	
  0x2556	int3   	
  0x2557	int3   	
  0x2558	mov    	dword ptr [esp + 8], ecx
  0x255c	dec    	esp
  === BLOCK LINK ===
    0x255d
=== CODE BLOCK END ===

=== CODE BLOCK ADDRESS 0x255d ===
  0x255d	mov    	ebx, esp
  0x255f	dec    	ecx
  0x2560	mov    	dword ptr [ebx + 0x10], edx
  0x2563	dec    	ebp
  0x2564	mov    	dword ptr [ebx + 0x18], eax
  === BLOCK LINK ===
    0x2567
=== CODE BLOCK END ===

=== CODE BLOCK ADDRESS 0x2567 ===
  0x2567	dec    	ebp
  0x2568	mov    	dword ptr [ebx + 0x20], ecx
  0x256b	push   	ebp
  0x256c	dec    	eax
  0x256d	mov    	ebp, esp
  === BLOCK LINK ===
    0x256f
=== CODE BLOCK END ===

=== CODE BLOCK ADDRESS 0x256f ===
  0x256f	dec    	eax
  0x2570	sub    	esp, 0x50
  0x2573	dec    	eax
  0x2574	lea    	eax, [ebp + 0x18]
  0x2577	inc    	esp
  === BLOCK LINK ===
    0x2578
=== CODE BLOCK END ===

=== CODE BLOCK ADDRESS 0x2578 ===
  0x2578	mov    	eax, ecx
  0x257a	dec    	eax
  0x257b	mov    	dword ptr [ebp - 8], eax
  0x257e	inc    	ebp
  0x257f	xor    	ecx, ecx
  === BLOCK LINK ===
    0x2581
=== CODE BLOCK END ===

=== CODE BLOCK ADDRESS 0x2581 ===
  0x2581	dec    	eax
  0x2582	lea    	eax, [ebp - 8]
  0x2585	xor    	edx, edx
  0x2587	dec    	ecx
  0x2588	mov    	dword ptr [ebx - 0x28], eax
  === BLOCK LINK ===
    0x258b
=== CODE BLOCK END ===

=== CODE BLOCK ADDRESS 0x258b ===
  0x258b	mov    	ecx, 0x900
  0x2590	and    	dword ptr [esp + 0x28], 0
  0x2595	dec    	eax
  0x2596	lea    	eax, [ebp - 0x10]
  0x2599	dec    	ecx
  === BLOCK LINK ===
    0x259a
=== CODE BLOCK END ===

=== CODE BLOCK ADDRESS 0x259a ===
  0x259a	mov    	dword ptr [ebx - 0x38], eax
  0x259d	dec    	eax
  0x259e	call   	dword ptr [0x1c0c]
  === BLOCK LINK ===
    0x25a4
=== CODE BLOCK END ===

=== CODE BLOCK ADDRESS 0x25a4 ===
  0x25a4	nop    	dword ptr [eax + eax]
  0x25a9	test   	eax, eax
  0x25ab	je     	0x25b3
  === BLOCK LINK ===
    0x25ad
=== CODE BLOCK END ===

=== CODE BLOCK ADDRESS 0x25ad ===
  0x25ad	dec    	eax
  0x25ae	mov    	ecx, dword ptr [ebp - 0x10]
  0x25b1	jmp    	0x262c
  === BLOCK LINK ===
    0x25b3
=== CODE BLOCK END ===

=== CODE BLOCK ADDRESS 0x25b3 ===
  0x25b3	dec    	eax
  0x25b4	mov    	eax, dword ptr [0x3ba6]
  0x25ba	dec    	eax
  0x25bb	cmp    	eax, -1
  0x25be	jne    	0x25da
  === BLOCK LINK ===
    0x25c0
=== CODE BLOCK END ===

=== CODE BLOCK ADDRESS 0x25c0 ===
  0x25c0	dec    	eax
  0x25c1	lea    	ecx, [0x1f01]
  0x25c7	dec    	eax
  0x25c8	call   	dword ptr [0x1bf2]
  === BLOCK LINK ===
    0x25ce
=== CODE BLOCK END ===

=== CODE BLOCK ADDRESS 0x25ce ===
  0x25ce	nop    	dword ptr [eax + eax]
  0x25d3	dec    	eax
  0x25d4	mov    	dword ptr [0x3b86], eax
  0x25da	inc    	esp
  0x25db	mov    	eax, dword ptr [ebp + 0x10]
  === BLOCK LINK ===
    0x25de
=== CODE BLOCK END ===

=== CODE BLOCK ADDRESS 0x25de ===
  0x25de	dec    	eax
  0x25df	lea    	edx, [ebp - 8]
  0x25e2	dec    	eax
  0x25e3	mov    	dword ptr [esp + 0x30], edx
  0x25e7	inc    	ebp
  === BLOCK LINK ===
    0x25e8
=== CODE BLOCK END ===

=== CODE BLOCK ADDRESS 0x25e8 ===
  0x25e8	xor    	ecx, ecx
  0x25ea	and    	dword ptr [esp + 0x28], 0
  0x25ef	dec    	eax
  0x25f0	lea    	edx, [ebp - 0x10]
  0x25f3	dec    	eax
  === BLOCK LINK ===
    0x25f4
=== CODE BLOCK END ===

=== CODE BLOCK ADDRESS 0x25f4 ===
  0x25f4	mov    	dword ptr [esp + 0x20], edx
  0x25f8	mov    	ecx, 0x900
  0x25fd	dec    	eax
  0x25fe	mov    	edx, eax
  0x2600	dec    	eax
  === BLOCK LINK ===
    0x2601
=== CODE BLOCK END ===

=== CODE BLOCK ADDRESS 0x2601 ===
  0x2601	call   	dword ptr [0x1ba9]
  === BLOCK LINK ===
    0x2607
=== CODE BLOCK END ===

=== CODE BLOCK ADDRESS 0x2607 ===
  0x2607	nop    	dword ptr [eax + eax]
  0x260c	test   	eax, eax
  0x260e	je     	0x2643
  === BLOCK LINK ===
    0x2610
=== CODE BLOCK END ===

=== CODE BLOCK ADDRESS 0x2610 ===
  0x2610	dec    	eax
  0x2611	lea    	ecx, [0x1ea1]
  0x2617	call   	0x2274
  === BLOCK LINK ===
    0x261c
=== CODE BLOCK END ===

=== CODE BLOCK ADDRESS 0x261c ===
  0x261c	dec    	eax
  0x261d	mov    	ecx, dword ptr [ebp - 0x10]
  0x2620	call   	0x2274
  === BLOCK LINK ===
    0x2625
=== CODE BLOCK END ===

=== CODE BLOCK ADDRESS 0x2625 ===
  0x2625	dec    	eax
  0x2626	lea    	ecx, [0x1e90]
  0x262c	call   	0x2274
  === BLOCK LINK ===
    0x2631
=== CODE BLOCK END ===

=== CODE BLOCK ADDRESS 0x2631 ===
  0x2631	dec    	eax
  0x2632	mov    	ecx, dword ptr [ebp - 0x10]
  0x2635	dec    	eax
  0x2636	call   	dword ptr [0x1b7c]
  === BLOCK LINK ===
    0x263c
=== CODE BLOCK END ===

=== CODE BLOCK ADDRESS 0x263c ===
  0x263c	nop    	dword ptr [eax + eax]
  0x2641	jmp    	0x2668
  === BLOCK LINK ===
    0x2643
=== CODE BLOCK END ===

=== CODE BLOCK ADDRESS 0x2643 ===
  0x2643	dec    	eax
  0x2644	call   	dword ptr [0x1b16]
  === BLOCK LINK ===
    0x264a
=== CODE BLOCK END ===

=== CODE BLOCK ADDRESS 0x264a ===
  0x264a	nop    	dword ptr [eax + eax]
  0x264f	mov    	edx, dword ptr [ebp + 0x10]
  0x2652	dec    	eax
  0x2653	lea    	ecx, [0x1e87]
  0x2659	inc    	esp
  === BLOCK LINK ===
    0x265a
=== CODE BLOCK END ===

=== CODE BLOCK ADDRESS 0x265a ===
  0x265a	mov    	eax, eax
  0x265c	dec    	eax
  0x265d	call   	dword ptr [0x1c75]
  === BLOCK LINK ===
    0x2663
=== CODE BLOCK END ===

=== CODE BLOCK ADDRESS 0x2663 ===
  0x2663	nop    	dword ptr [eax + eax]
  0x2668	dec    	eax
  0x2669	add    	esp, 0x50
  0x266c	pop    	ebp
  0x266d	ret    	
  === BLOCK LINK ===
    0x266e
=== CODE BLOCK END ===

=== CODE BLOCK ADDRESS 0x266e ===
  0x266e	int3   	
  0x266f	int3   	
  0x2670	int3   	
  0x2671	int3   	
  0x2672	int3   	
  === BLOCK LINK ===
    0x2673
=== CODE BLOCK END ===

=== CODE BLOCK ADDRESS 0x2673 ===
  0x2673	int3   	
  0x2674	int3   	
  0x2675	int3   	
  0x2676	int3   	
  0x2677	int3   	
  === BLOCK LINK ===
    0x2678
=== CODE BLOCK END ===

=== CODE BLOCK ADDRESS 0x2678 ===
  0x2678	int3   	
  0x2679	int3   	
  0x267a	int3   	
  0x267b	int3   	
  0x267c	int3   	
  === BLOCK LINK ===
    0x267d
=== CODE BLOCK END ===

=== CODE BLOCK ADDRESS 0x267d ===
  0x267d	int3   	
  0x267e	int3   	
  0x267f	int3   	
  0x2680	dec    	eax
  0x2681	sub    	esp, 0x28
  === BLOCK LINK ===
    0x2684
=== CODE BLOCK END ===

=== CODE BLOCK ADDRESS 0x2684 ===
  0x2684	mov    	eax, 0x5a4d
  0x2689	cmp    	word ptr [0xffffd970], ax
  0x2690	je     	0x2696
  === BLOCK LINK ===
    0x2692
=== CODE BLOCK END ===

=== CODE BLOCK ADDRESS 0x2692 ===
  0x2692	xor    	eax, eax
  0x2694	jmp    	0x26e9
  === BLOCK LINK ===
    0x2696
=== CODE BLOCK END ===

=== CODE BLOCK ADDRESS 0x2696 ===
  0x2696	dec    	eax
  0x2697	arpl   	word ptr [0xffffd99f], cx
  0x269d	dec    	eax
  0x269e	lea    	eax, [0xffffd95c]
  0x26a4	dec    	eax
  === BLOCK LINK ===
    0x26a5
=== CODE BLOCK END ===

=== CODE BLOCK ADDRESS 0x26a5 ===
  0x26a5	add    	ecx, eax
  0x26a7	cmp    	dword ptr [ecx], 0x4550
  0x26ad	jne    	0x2692
  === BLOCK LINK ===
    0x26af
=== CODE BLOCK END ===

=== CODE BLOCK ADDRESS 0x26af ===
  0x26af	mov    	eax, 0x10b
  0x26b4	cmp    	word ptr [ecx + 0x18], ax
  0x26b8	je     	0x26d8
  === BLOCK LINK ===
    0x26ba
=== CODE BLOCK END ===

=== CODE BLOCK ADDRESS 0x26ba ===
  0x26ba	mov    	eax, 0x20b
  0x26bf	cmp    	word ptr [ecx + 0x18], ax
  0x26c3	jne    	0x2692
  === BLOCK LINK ===
    0x26c5
=== CODE BLOCK END ===

=== CODE BLOCK ADDRESS 0x26c5 ===
  0x26c5	xor    	eax, eax
  0x26c7	cmp    	dword ptr [ecx + 0x84], 0xe
  0x26ce	jbe    	0x26e9
  === BLOCK LINK ===
    0x26d0
=== CODE BLOCK END ===

=== CODE BLOCK ADDRESS 0x26d0 ===
  0x26d0	cmp    	dword ptr [ecx + 0xf8], eax
  0x26d6	jmp    	0x26e6
  === BLOCK LINK ===
    0x26d8
=== CODE BLOCK END ===

=== CODE BLOCK ADDRESS 0x26d8 ===
  0x26d8	xor    	eax, eax
  0x26da	cmp    	dword ptr [ecx + 0x74], 0xe
  0x26de	jbe    	0x26e9
  === BLOCK LINK ===
    0x26e0
=== CODE BLOCK END ===

=== CODE BLOCK ADDRESS 0x26e0 ===
  0x26e0	cmp    	dword ptr [ecx + 0xe8], eax
  0x26e6	setne  	al
  0x26e9	mov    	ecx, 1
  0x26ee	mov    	dword ptr [0x3a9c], eax
  0x26f4	call   	0x2aa8
  === BLOCK LINK ===
    0x26f9
=== CODE BLOCK END ===

=== CODE BLOCK ADDRESS 0x26f9 ===
  0x26f9	mov    	ecx, eax
  0x26fb	call   	dword ptr [0x1b9f]
  === BLOCK LINK ===
    0x2701
=== CODE BLOCK END ===

=== CODE BLOCK ADDRESS 0x2701 ===
  0x2701	dec    	eax
  0x2702	mov    	ecx, dword ptr [0x1b80]
  0x2708	dec    	eax
  0x2709	or     	eax, 0xffffffff
  0x270c	dec    	eax
  === BLOCK LINK ===
    0x270d
=== CODE BLOCK END ===

=== CODE BLOCK ADDRESS 0x270d ===
  0x270d	mov    	dword ptr [0x400d], eax
  0x2713	dec    	eax
  0x2714	mov    	dword ptr [0x400e], eax
  0x271a	mov    	eax, dword ptr [0x3a84]
  0x2720	mov    	dword ptr [ecx], eax
  === BLOCK LINK ===
    0x2722
=== CODE BLOCK END ===

=== CODE BLOCK ADDRESS 0x2722 ===
  0x2722	dec    	eax
  0x2723	mov    	ecx, dword ptr [0x1b67]
  0x2729	mov    	eax, dword ptr [0x3a69]
  0x272f	mov    	dword ptr [ecx], eax
  0x2731	call   	0x2b00
  === BLOCK LINK ===
    0x2736
=== CODE BLOCK END ===

=== CODE BLOCK ADDRESS 0x2736 ===
  0x2736	cmp    	dword ptr [0x3a03], 0
  0x273d	jne    	0x274c
  === BLOCK LINK ===
    0x273f
=== CODE BLOCK END ===

=== CODE BLOCK ADDRESS 0x273f ===
  0x273f	dec    	eax
  0x2740	lea    	ecx, [0x3ba]
  0x2746	call   	dword ptr [0x1b2c]
  === BLOCK LINK ===
    0x274c
=== CODE BLOCK END ===

=== CODE BLOCK ADDRESS 0x274c ===
  0x274c	xor    	eax, eax
  0x274e	dec    	eax
  0x274f	add    	esp, 0x28
  0x2752	ret    	
  0x2753	int3   	
  === BLOCK LINK ===
    0x2754
=== CODE BLOCK END ===

=== CODE BLOCK ADDRESS 0x2754 ===
  0x2754	int3   	
  0x2755	int3   	
  0x2756	int3   	
  0x2757	int3   	
  0x2758	int3   	
  === BLOCK LINK ===
    0x2759
=== CODE BLOCK END ===

=== CODE BLOCK ADDRESS 0x2759 ===
  0x2759	int3   	
  0x275a	int3   	
  0x275b	int3   	
  0x275c	int3   	
  0x275d	int3   	
  === BLOCK LINK ===
    0x275e
=== CODE BLOCK END ===

=== CODE BLOCK ADDRESS 0x275e ===
  0x275e	int3   	
  0x275f	int3   	
  0x2760	dec    	eax
  0x2761	sub    	esp, 0x38
  0x2764	mov    	eax, dword ptr [0x3a36]
  === BLOCK LINK ===
    0x276a
=== CODE BLOCK END ===

=== CODE BLOCK ADDRESS 0x276a ===
  0x276a	dec    	esp
  0x276b	lea    	eax, [0x3a17]
  0x2771	inc    	esp
  0x2772	mov    	ecx, dword ptr [0x3a24]
  0x2778	dec    	eax
  === BLOCK LINK ===
    0x2779
=== CODE BLOCK END ===

=== CODE BLOCK ADDRESS 0x2779 ===
  0x2779	lea    	edx, [0x3a01]
  0x277f	mov    	dword ptr [0x3a0f], eax
  0x2785	dec    	eax
  0x2786	lea    	ecx, [0x39ec]
  0x278c	dec    	eax
  === BLOCK LINK ===
    0x278d
=== CODE BLOCK END ===

=== CODE BLOCK ADDRESS 0x278d ===
  0x278d	lea    	eax, [0x3a01]
  0x2793	dec    	eax
  0x2794	mov    	dword ptr [esp + 0x20], eax
  0x2798	call   	dword ptr [0x1b0a]
  === BLOCK LINK ===
    0x279e
=== CODE BLOCK END ===

=== CODE BLOCK ADDRESS 0x279e ===
  0x279e	mov    	dword ptr [0x39d8], eax
  0x27a4	dec    	eax
  0x27a5	add    	esp, 0x38
  0x27a8	ret    	
  0x27a9	int3   	
  === BLOCK LINK ===
    0x27aa
=== CODE BLOCK END ===

=== CODE BLOCK ADDRESS 0x12f1 ===
  0x12f1	dec    	eax
  0x12f2	mov    	ecx, dword ptr [ebp + 0xa0]
  0x12f8	dec    	eax
  0x12f9	xor    	ecx, esp
  === BLOCK LINK ===
    0x12fb
=== CODE BLOCK END ===

=== CODE BLOCK ADDRESS 0x27aa ===
  0x27aa	int3   	
  0x27ab	int3   	
  0x27ac	int3   	
  0x27ad	int3   	
  0x27ae	int3   	
  === BLOCK LINK ===
    0x27af
=== CODE BLOCK END ===

=== CODE BLOCK ADDRESS 0x27af ===
  0x27af	int3   	
  0x27b0	dec    	eax
  0x27b1	mov    	dword ptr [esp + 8], ebx
  0x27b5	dec    	eax
  0x27b6	mov    	dword ptr [esp + 0x10], esi
  === BLOCK LINK ===
    0x27ba
=== CODE BLOCK END ===

=== CODE BLOCK ADDRESS 0x27ba ===
  0x27ba	dec    	eax
  0x27bb	mov    	dword ptr [esp + 0x18], edi
  0x27bf	inc    	ecx
  0x27c0	push   	edi
  0x27c1	dec    	eax
  === BLOCK LINK ===
    0x27c2
=== CODE BLOCK END ===

=== CODE BLOCK ADDRESS 0x27c2 ===
  0x27c2	sub    	esp, 0x30
  0x27c5	dec    	eax
  0x27c7	mov    	eax, dword ptr [0x30]
  0x27ce	dec    	eax
  0x27cf	mov    	ebx, dword ptr [eax + 8]
  === BLOCK LINK ===
    0x27d2
=== CODE BLOCK END ===

=== CODE BLOCK ADDRESS 0x27d2 ===
  0x27d2	xor    	esi, esi
  0x27d4	xor    	eax, eax
  0x27d6	.byte  	0xf0
  0x27d7	dec    	eax
  0x27d8	cmpxchg  	dword ptr [0x3f51], ebx
  === BLOCK LINK ===
    0x27df
=== CODE BLOCK END ===

=== CODE BLOCK ADDRESS 0x27df ===
  0x27df	je     	0x27fc
  === BLOCK LINK ===
    0x27e1
=== CODE BLOCK END ===

=== CODE BLOCK ADDRESS 0x27e1 ===
  0x27e1	dec    	eax
  0x27e2	cmp    	eax, ebx
  0x27e4	jne    	0x27ef
  === BLOCK LINK ===
    0x27e6
=== CODE BLOCK END ===

=== CODE BLOCK ADDRESS 0x27e6 ===
  0x27e6	mov    	ebx, 1
  0x27eb	mov    	esi, ebx
  0x27ed	jmp    	0x2801
  === BLOCK LINK ===
    0x27ef
=== CODE BLOCK END ===

=== CODE BLOCK ADDRESS 0x27ef ===
  0x27ef	mov    	ecx, 0x3e8
  0x27f4	call   	dword ptr [0x1a0e]
  === BLOCK LINK ===
    0x27fa
=== CODE BLOCK END ===

=== CODE BLOCK ADDRESS 0x27fa ===
  0x27fa	jmp    	0x27d4
  === BLOCK LINK ===
    0x27fc
=== CODE BLOCK END ===

=== CODE BLOCK ADDRESS 0x27fc ===
  0x27fc	mov    	ebx, 1
  0x2801	mov    	eax, dword ptr [0x3f31]
  0x2807	cmp    	eax, ebx
  0x2809	jne    	0x2817
  === BLOCK LINK ===
    0x280b
=== CODE BLOCK END ===

=== CODE BLOCK ADDRESS 0x280b ===
  0x280b	mov    	ecx, 0x1f
  0x2810	call   	0x2af3
  === BLOCK LINK ===
    0x2815
=== CODE BLOCK END ===

=== CODE BLOCK ADDRESS 0x2815 ===
  0x2815	jmp    	0x287c
  === BLOCK LINK ===
    0x2817
=== CODE BLOCK END ===

=== CODE BLOCK ADDRESS 0x2817 ===
  0x2817	mov    	eax, dword ptr [0x3f1b]
  0x281d	test   	eax, eax
  0x281f	jne    	0x2876
  === BLOCK LINK ===
    0x2821
=== CODE BLOCK END ===

=== CODE BLOCK ADDRESS 0x2821 ===
  0x2821	mov    	dword ptr [0x3f11], ebx
  0x2827	dec    	esp
  0x2828	lea    	edi, [0x1b92]
  0x282e	dec    	eax
  0x282f	lea    	edi, [0x1b73]
  === BLOCK LINK ===
    0x2835
=== CODE BLOCK END ===

=== CODE BLOCK ADDRESS 0x2835 ===
  0x2835	dec    	eax
  0x2836	mov    	dword ptr [esp + 0x28], edi
  0x283a	mov    	dword ptr [esp + 0x20], eax
  0x283e	dec    	ecx
  0x283f	cmp    	edi, edi
  === BLOCK LINK ===
    0x2841
=== CODE BLOCK END ===

=== CODE BLOCK ADDRESS 0x2841 ===
  0x2841	jae    	0x2868
  === BLOCK LINK ===
    0x2843
=== CODE BLOCK END ===

=== CODE BLOCK ADDRESS 0x2843 ===
  0x2843	test   	eax, eax
  0x2845	jne    	0x286c
  === BLOCK LINK ===
    0x2847
=== CODE BLOCK END ===

=== CODE BLOCK ADDRESS 0x2847 ===
  0x2847	dec    	eax
  0x2848	cmp    	dword ptr [edi], 0
  0x284b	je     	0x285d
  === BLOCK LINK ===
    0x284d
=== CODE BLOCK END ===

=== CODE BLOCK ADDRESS 0x284d ===
  0x284d	dec    	eax
  0x284e	mov    	eax, dword ptr [edi]
  0x2850	dec    	eax
  0x2851	mov    	ecx, dword ptr [0x1b31]
  0x2857	call   	ecx
  === BLOCK LINK ===
    0x2859
=== CODE BLOCK END ===

=== CODE BLOCK ADDRESS 0x2859 ===
  0x2859	mov    	dword ptr [esp + 0x20], eax
  0x285d	dec    	eax
  0x285e	add    	edi, 8
  0x2861	dec    	eax
  0x2862	mov    	dword ptr [esp + 0x28], edi
  === BLOCK LINK ===
    0x2866
=== CODE BLOCK END ===

=== CODE BLOCK ADDRESS 0x2866 ===
  0x2866	jmp    	0x283e
  === BLOCK LINK ===
    0x2868
=== CODE BLOCK END ===

=== CODE BLOCK ADDRESS 0x2868 ===
  0x2868	test   	eax, eax
  0x286a	je     	0x287c
  === BLOCK LINK ===
    0x286c
=== CODE BLOCK END ===

=== CODE BLOCK ADDRESS 0x286c ===
  0x286c	mov    	eax, 0xff
  0x2871	jmp    	0x2958
  === BLOCK LINK ===
    0x2876
=== CODE BLOCK END ===

=== CODE BLOCK ADDRESS 0x2876 ===
  0x2876	mov    	dword ptr [0x38f8], ebx
  0x287c	mov    	eax, dword ptr [0x3eb6]
  0x2882	cmp    	eax, ebx
  0x2884	jne    	0x28a3
  === BLOCK LINK ===
    0x2886
=== CODE BLOCK END ===

=== CODE BLOCK ADDRESS 0x2886 ===
  0x2886	dec    	eax
  0x2887	lea    	edx, [0x1b13]
  0x288d	dec    	eax
  0x288e	lea    	ecx, [0x1afc]
  0x2894	call   	0x2cce
  === BLOCK LINK ===
    0x2899
=== CODE BLOCK END ===

=== CODE BLOCK ADDRESS 0x2899 ===
  0x2899	mov    	dword ptr [0x3e95], 2
  0x28a3	test   	esi, esi
  0x28a5	jne    	0x28b0
  === BLOCK LINK ===
    0x28a7
=== CODE BLOCK END ===

=== CODE BLOCK ADDRESS 0x28a7 ===
  0x28a7	xor    	eax, eax
  0x28a9	dec    	eax
  0x28aa	xchg   	dword ptr [0x3e80], eax
  0x28b0	dec    	eax
  0x28b1	cmp    	dword ptr [0x3e88], 0
  === BLOCK LINK ===
    0x28b8
=== CODE BLOCK END ===

=== CODE BLOCK ADDRESS 0x28b8 ===
  0x28b8	je     	0x28e4
  === BLOCK LINK ===
    0x28ba
=== CODE BLOCK END ===

=== CODE BLOCK ADDRESS 0x28ba ===
  0x28ba	dec    	eax
  0x28bb	lea    	ecx, [0x3e7f]
  0x28c1	call   	0x2b60
  === BLOCK LINK ===
    0x28c6
=== CODE BLOCK END ===

=== CODE BLOCK ADDRESS 0x28c6 ===
  0x28c6	test   	eax, eax
  0x28c8	je     	0x28e4
  === BLOCK LINK ===
    0x28ca
=== CODE BLOCK END ===

=== CODE BLOCK ADDRESS 0x28ca ===
  0x28ca	inc    	ebp
  0x28cb	xor    	eax, eax
  0x28cd	inc    	ecx
  0x28ce	lea    	edx, [eax + 2]
  0x28d1	xor    	ecx, ecx
  === BLOCK LINK ===
    0x28d3
=== CODE BLOCK END ===

=== CODE BLOCK ADDRESS 0x28d3 ===
  0x28d3	dec    	eax
  0x28d4	mov    	eax, dword ptr [0x3e66]
  0x28da	dec    	esp
  0x28db	mov    	ecx, dword ptr [0x1aa7]
  0x28e1	inc    	ecx
  === BLOCK LINK ===
    0x28e2
=== CODE BLOCK END ===

=== CODE BLOCK ADDRESS 0x28e2 ===
  0x28e2	call   	ecx
  === BLOCK LINK ===
    0x28e4
=== CODE BLOCK END ===

=== CODE BLOCK ADDRESS 0x28e4 ===
  0x28e4	dec    	esp
  0x28e5	mov    	eax, dword ptr [0x389d]
  0x28eb	dec    	eax
  0x28ec	mov    	edx, dword ptr [0x388e]
  0x28f2	mov    	ecx, dword ptr [0x3880]
  === BLOCK LINK ===
    0x28f8
=== CODE BLOCK END ===

=== CODE BLOCK ADDRESS 0x28f8 ===
  0x28f8	call   	0x110c
  === BLOCK LINK ===
    0x28fd
=== CODE BLOCK END ===

=== CODE BLOCK ADDRESS 0x28fd ===
  0x28fd	mov    	dword ptr [0x386d], eax
  0x2903	cmp    	dword ptr [0x3886], 0
  0x290a	jne    	0x2914
  === BLOCK LINK ===
    0x290c
=== CODE BLOCK END ===

=== CODE BLOCK ADDRESS 0x290c ===
  0x290c	mov    	ecx, eax
  0x290e	call   	dword ptr [0x19e4]
  === BLOCK LINK ===
    0x2914
=== CODE BLOCK END ===

=== CODE BLOCK ADDRESS 0x2914 ===
  0x2914	cmp    	dword ptr [0x3859], 0
  0x291b	jne    	0x2929
  === BLOCK LINK ===
    0x291d
=== CODE BLOCK END ===

=== CODE BLOCK ADDRESS 0x291d ===
  0x291d	call   	dword ptr [0x194d]
  === BLOCK LINK ===
    0x2923
=== CODE BLOCK END ===

=== CODE BLOCK ADDRESS 0x2923 ===
  0x2923	mov    	eax, dword ptr [0x3847]
  0x2929	jmp    	0x2958
  === BLOCK LINK ===
    0x292b
=== CODE BLOCK END ===

=== CODE BLOCK ADDRESS 0x292b ===
  0x292b	mov    	dword ptr [0x383f], eax
  0x2931	cmp    	dword ptr [0x3858], 0
  0x2938	jne    	0x2943
  === BLOCK LINK ===
    0x293a
=== CODE BLOCK END ===

=== CODE BLOCK ADDRESS 0x293a ===
  0x293a	mov    	ecx, eax
  0x293c	call   	dword ptr [0x19ae]
  === BLOCK LINK ===
    0x2942
=== CODE BLOCK END ===

=== CODE BLOCK ADDRESS 0x2942 ===
  0x2942	int3   	
  0x2943	cmp    	dword ptr [0x382a], 0
  0x294a	jne    	0x2958
  === BLOCK LINK ===
    0x294c
=== CODE BLOCK END ===

=== CODE BLOCK ADDRESS 0x294c ===
  0x294c	call   	dword ptr [0x191e]
  === BLOCK LINK ===
    0x2952
=== CODE BLOCK END ===

=== CODE BLOCK ADDRESS 0x2952 ===
  0x2952	mov    	eax, dword ptr [0x3818]
  0x2958	dec    	eax
  0x2959	mov    	ebx, dword ptr [esp + 0x40]
  0x295d	dec    	eax
  0x295e	mov    	esi, dword ptr [esp + 0x48]
  === BLOCK LINK ===
    0x2962
=== CODE BLOCK END ===

=== CODE BLOCK ADDRESS 0x2962 ===
  0x2962	dec    	eax
  0x2963	mov    	edi, dword ptr [esp + 0x50]
  0x2967	dec    	eax
  0x2968	add    	esp, 0x30
  0x296b	inc    	ecx
  === BLOCK LINK ===
    0x296c
=== CODE BLOCK END ===

=== CODE BLOCK ADDRESS 0x296c ===
  0x296c	pop    	edi
  0x296d	ret    	
  0x296e	int3   	
  0x296f	int3   	
  0x2970	int3   	
  === BLOCK LINK ===
    0x2971
=== CODE BLOCK END ===

=== CODE BLOCK ADDRESS 0x2971 ===
  0x2971	int3   	
  0x2972	int3   	
  0x2973	int3   	
  0x2974	int3   	
  0x2975	int3   	
  === BLOCK LINK ===
    0x2976
=== CODE BLOCK END ===

=== CODE BLOCK ADDRESS 0x2976 ===
  0x2976	int3   	
  0x2977	int3   	
  0x2978	int3   	
  0x2979	int3   	
  0x297a	int3   	
  === BLOCK LINK ===
    0x297b
=== CODE BLOCK END ===

=== CODE BLOCK ADDRESS 0x297b ===
  0x297b	int3   	
  0x297c	int3   	
  0x297d	int3   	
  0x297e	int3   	
  0x297f	int3   	
  === BLOCK LINK ===
    0x2980
=== CODE BLOCK END ===

=== CODE BLOCK ADDRESS 0x2980 ===
  0x2980	dec    	eax
  0x2981	sub    	esp, 0x28
  0x2984	call   	0x2bf4
  === BLOCK LINK ===
    0x2989
=== CODE BLOCK END ===

=== CODE BLOCK ADDRESS 0x2989 ===
  0x2989	dec    	eax
  0x298a	add    	esp, 0x28
  0x298d	jmp    	0x27b0
  === BLOCK LINK ===
    0x2992
=== CODE BLOCK END ===

=== CODE BLOCK ADDRESS 0x2992 ===
  0x2992	int3   	
  0x2993	int3   	
  0x2994	int3   	
  0x2995	int3   	
  0x2996	int3   	
  === BLOCK LINK ===
    0x2997
=== CODE BLOCK END ===

=== CODE BLOCK ADDRESS 0x2997 ===
  0x2997	int3   	
  0x2998	int3   	
  0x2999	int3   	
  0x299a	int3   	
  0x299b	int3   	
  === BLOCK LINK ===
    0x299c
=== CODE BLOCK END ===

=== CODE BLOCK ADDRESS 0x299c ===
  0x299c	int3   	
  0x299d	int3   	
  0x299e	int3   	
  0x299f	int3   	
  0x29a0	int3   	
  === BLOCK LINK ===
    0x29a1
=== CODE BLOCK END ===

=== CODE BLOCK ADDRESS 0x29a1 ===
  0x29a1	int3   	
  0x29a2	int3   	
  0x29a3	int3   	
  0x29a4	int3   	
  0x29a5	int3   	
  === BLOCK LINK ===
    0x29a6
=== CODE BLOCK END ===

=== CODE BLOCK ADDRESS 0x29a6 ===
  0x29a6	nop    	word ptr [eax + eax]
  === BLOCK LINK ===
    0x29b0
=== CODE BLOCK END ===

=== CODE BLOCK ADDRESS 0x29b9 ===
  0x29b9	dec    	eax
  0x29ba	rol    	ecx, 0x10
  0x29bd	test   	cx, 0xffff
  0x29c2	jne    	0x29c5
  === BLOCK LINK ===
    0x29c4
=== CODE BLOCK END ===

=== CODE BLOCK ADDRESS 0x29c4 ===
  0x29c4	ret    	
  0x29c5	dec    	eax
  0x29c6	ror    	ecx, 0x10
  0x29c9	jmp    	0x2d30
  === BLOCK LINK ===
    0x29ce
=== CODE BLOCK END ===

=== CODE BLOCK ADDRESS 0x29ce ===
  0x29ce	int3   	
  0x29cf	int3   	
  0x29d0	int3   	
  0x29d1	int3   	
  0x29d2	int3   	
  === BLOCK LINK ===
    0x29d3
=== CODE BLOCK END ===

=== CODE BLOCK ADDRESS 0x29d3 ===
  0x29d3	int3   	
  0x29d4	jmp    	dword ptr [0x18e6]
  === BLOCK LINK ===
    0x29da
=== CODE BLOCK END ===

=== CODE BLOCK ADDRESS 0x29da ===
  0x29da	int3   	
  0x29db	int3   	
  0x29dc	int3   	
  0x29dd	int3   	
  0x29de	int3   	
  === BLOCK LINK ===
    0x29df
=== CODE BLOCK END ===

=== CODE BLOCK ADDRESS 0x29df ===
  0x29df	int3   	
  0x29e0	dec    	eax
  0x29e1	sub    	esp, 0x28
  0x29e4	dec    	eax
  0x29e5	mov    	eax, dword ptr [ecx]
  === BLOCK LINK ===
    0x29e7
=== CODE BLOCK END ===

=== CODE BLOCK ADDRESS 0x29e7 ===
  0x29e7	cmp    	dword ptr [eax], 0xe06d7363
  0x29ed	jne    	0x2a12
  === BLOCK LINK ===
    0x29ef
=== CODE BLOCK END ===

=== CODE BLOCK ADDRESS 0x29ef ===
  0x29ef	cmp    	dword ptr [eax + 0x18], 4
  0x29f3	jne    	0x2a12
  === BLOCK LINK ===
    0x29f5
=== CODE BLOCK END ===

=== CODE BLOCK ADDRESS 0x29f5 ===
  0x29f5	mov    	ecx, dword ptr [eax + 0x20]
  0x29f8	lea    	eax, [ecx - 0x19930520]
  0x29fe	cmp    	eax, 2
  0x2a01	jbe    	0x2a0b
  === BLOCK LINK ===
    0x2a03
=== CODE BLOCK END ===

=== CODE BLOCK ADDRESS 0x2a03 ===
  0x2a03	cmp    	ecx, 0x1994000
  0x2a09	jne    	0x2a12
  === BLOCK LINK ===
    0x2a0b
=== CODE BLOCK END ===

=== CODE BLOCK ADDRESS 0x2a0b ===
  0x2a0b	call   	dword ptr [0x1887]
  === BLOCK LINK ===
    0x2a11
=== CODE BLOCK END ===

=== CODE BLOCK ADDRESS 0x2a11 ===
  0x2a11	int3   	
  0x2a12	xor    	eax, eax
  0x2a14	dec    	eax
  0x2a15	add    	esp, 0x28
  0x2a18	ret    	
  === BLOCK LINK ===
    0x2a19
=== CODE BLOCK END ===

=== CODE BLOCK ADDRESS 0x2a19 ===
  0x2a19	int3   	
  0x2a1a	int3   	
  0x2a1b	int3   	
  0x2a1c	int3   	
  0x2a1d	int3   	
  === BLOCK LINK ===
    0x2a1e
=== CODE BLOCK END ===

=== CODE BLOCK ADDRESS 0x2a1e ===
  0x2a1e	int3   	
  0x2a1f	int3   	
  0x2a20	dec    	eax
  0x2a21	sub    	esp, 0x28
  0x2a24	dec    	eax
  === BLOCK LINK ===
    0x2a25
=== CODE BLOCK END ===

=== CODE BLOCK ADDRESS 0x2a25 ===
  0x2a25	lea    	ecx, [0xffffffb5]
  0x2a2b	call   	dword ptr [0x17cf]
  === BLOCK LINK ===
    0x2a31
=== CODE BLOCK END ===

=== CODE BLOCK ADDRESS 0x2a31 ===
  0x2a31	xor    	eax, eax
  0x2a33	dec    	eax
  0x2a34	add    	esp, 0x28
  0x2a37	ret    	
  0x2a38	int3   	
  === BLOCK LINK ===
    0x2a39
=== CODE BLOCK END ===

=== CODE BLOCK ADDRESS 0x2a39 ===
  0x2a39	int3   	
  0x2a3a	int3   	
  0x2a3b	int3   	
  0x2a3c	int3   	
  0x2a3d	int3   	
  === BLOCK LINK ===
    0x2a3e
=== CODE BLOCK END ===

=== CODE BLOCK ADDRESS 0x2a3e ===
  0x2a3e	jmp    	dword ptr [0x18a4]
  === BLOCK LINK ===
    0x2a44
=== CODE BLOCK END ===

=== CODE BLOCK ADDRESS 0x2a44 ===
  0x2a44	int3   	
  0x2a45	int3   	
  0x2a46	int3   	
  0x2a47	int3   	
  0x2a48	int3   	
  === BLOCK LINK ===
    0x2a49
=== CODE BLOCK END ===

=== CODE BLOCK ADDRESS 0x2a49 ===
  0x2a49	int3   	
  0x2a4a	int3   	
  0x2a4b	int3   	
  0x2a4c	dec    	eax
  0x2a4d	sub    	esp, 0x18
  === BLOCK LINK ===
    0x2a50
=== CODE BLOCK END ===

=== CODE BLOCK ADDRESS 0x2a50 ===
  0x2a50	xor    	edx, edx
  0x2a52	dec    	eax
  0x2a53	lea    	eax, [ecx - 1]
  0x2a56	dec    	eax
  0x2a57	cmp    	eax, -3
  === BLOCK LINK ===
    0x2a5a
=== CODE BLOCK END ===

=== CODE BLOCK ADDRESS 0x2a5a ===
  0x2a5a	ja     	0x2a98
  === BLOCK LINK ===
    0x2a5c
=== CODE BLOCK END ===

=== CODE BLOCK ADDRESS 0x2a5c ===
  0x2a5c	mov    	eax, 0x5a4d
  0x2a61	cmp    	word ptr [ecx], ax
  0x2a64	jne    	0x2a90
  === BLOCK LINK ===
    0x2a66
=== CODE BLOCK END ===

=== CODE BLOCK ADDRESS 0x2a66 ===
  0x2a66	cmp    	dword ptr [ecx + 0x3c], edx
  0x2a69	jl     	0x2a90
  === BLOCK LINK ===
    0x2a6b
=== CODE BLOCK END ===

=== CODE BLOCK ADDRESS 0x2a6b ===
  0x2a6b	cmp    	dword ptr [ecx + 0x3c], 0x10000000
  0x2a72	jae    	0x2a90
  === BLOCK LINK ===
    0x2a74
=== CODE BLOCK END ===

=== CODE BLOCK ADDRESS 0x2a74 ===
  0x2a74	dec    	eax
  0x2a75	arpl   	word ptr [ecx + 0x3c], ax
  0x2a78	dec    	eax
  0x2a79	add    	eax, ecx
  0x2a7b	dec    	eax
  === BLOCK LINK ===
    0x2a7c
=== CODE BLOCK END ===

=== CODE BLOCK ADDRESS 0x2a7c ===
  0x2a7c	mov    	dword ptr [esp], eax
  0x2a7f	cmp    	dword ptr [eax], 0x4550
  0x2a85	dec    	eax
  0x2a86	cmovne  	eax, edx
  0x2a89	dec    	eax
  === BLOCK LINK ===
    0x2a8a
=== CODE BLOCK END ===

=== CODE BLOCK ADDRESS 0x2a8a ===
  0x2a8a	mov    	edx, eax
  0x2a8c	dec    	eax
  0x2a8d	mov    	dword ptr [esp], eax
  0x2a90	jmp    	0x2a98
  === BLOCK LINK ===
    0x2a92
=== CODE BLOCK END ===

=== CODE BLOCK ADDRESS 0x2a92 ===
  0x2a92	xor    	edx, edx
  0x2a94	dec    	eax
  0x2a95	mov    	dword ptr [esp], edx
  0x2a98	dec    	eax
  0x2a99	mov    	eax, edx
  === BLOCK LINK ===
    0x2a9b
=== CODE BLOCK END ===

=== CODE BLOCK ADDRESS 0x2a9b ===
  0x2a9b	dec    	eax
  0x2a9c	add    	esp, 0x18
  0x2a9f	ret    	
  0x2aa0	int3   	
  0x2aa1	int3   	
  === BLOCK LINK ===
    0x2aa2
=== CODE BLOCK END ===

=== CODE BLOCK ADDRESS 0x2aa2 ===
  0x2aa2	int3   	
  0x2aa3	int3   	
  0x2aa4	int3   	
  0x2aa5	int3   	
  0x2aa6	int3   	
  === BLOCK LINK ===
    0x2aa7
=== CODE BLOCK END ===

=== CODE BLOCK ADDRESS 0x2aa7 ===
  0x2aa7	int3   	
  0x2aa8	inc    	eax
  0x2aa9	push   	ebx
  0x2aaa	dec    	eax
  0x2aab	sub    	esp, 0x20
  === BLOCK LINK ===
    0x2aae
=== CODE BLOCK END ===

=== CODE BLOCK ADDRESS 0x2aae ===
  0x2aae	mov    	ebx, ecx
  0x2ab0	xor    	ecx, ecx
  0x2ab2	call   	dword ptr [0x1708]
  === BLOCK LINK ===
    0x2ab8
=== CODE BLOCK END ===

=== CODE BLOCK ADDRESS 0x2ab8 ===
  0x2ab8	dec    	eax
  0x2ab9	test   	eax, eax
  0x2abb	je     	0x2ae5
  === BLOCK LINK ===
    0x2abd
=== CODE BLOCK END ===

=== CODE BLOCK ADDRESS 0x2abd ===
  0x2abd	dec    	eax
  0x2abe	mov    	ecx, eax
  0x2ac0	call   	0x2a4c
  === BLOCK LINK ===
    0x2ac5
=== CODE BLOCK END ===

=== CODE BLOCK ADDRESS 0x2ac5 ===
  0x2ac5	dec    	eax
  0x2ac6	test   	eax, eax
  0x2ac8	je     	0x2ae5
  === BLOCK LINK ===
    0x2aca
=== CODE BLOCK END ===

=== CODE BLOCK ADDRESS 0x2aca ===
  0x2aca	mov    	ecx, 2
  0x2acf	cmp    	word ptr [eax + 0x5c], cx
  0x2ad3	jne    	0x2ad9
  === BLOCK LINK ===
    0x2ad5
=== CODE BLOCK END ===

=== CODE BLOCK ADDRESS 0x2ad5 ===
  0x2ad5	mov    	eax, ecx
  0x2ad7	jmp    	0x2ae7
  === BLOCK LINK ===
    0x2ad9
=== CODE BLOCK END ===

=== CODE BLOCK ADDRESS 0x2ad9 ===
  0x2ad9	cmp    	word ptr [eax + 0x5c], 3
  0x2ade	mov    	eax, 1
  0x2ae3	je     	0x2ae7
  === BLOCK LINK ===
    0x2ae5
=== CODE BLOCK END ===

=== CODE BLOCK ADDRESS 0x2ae5 ===
  0x2ae5	mov    	eax, ebx
  0x2ae7	dec    	eax
  0x2ae8	add    	esp, 0x20
  0x2aeb	pop    	ebx
  0x2aec	ret    	
  === BLOCK LINK ===
    0x2aed
=== CODE BLOCK END ===

=== CODE BLOCK ADDRESS 0x2aed ===
  0x2aed	int3   	
  0x2aee	int3   	
  0x2aef	int3   	
  0x2af0	int3   	
  0x2af1	int3   	
  === BLOCK LINK ===
    0x2af2
=== CODE BLOCK END ===

=== CODE BLOCK ADDRESS 0x2af2 ===
  0x2af2	int3   	
  0x2af3	jmp    	dword ptr [0x17e7]
  === BLOCK LINK ===
    0x2af9
=== CODE BLOCK END ===

=== CODE BLOCK ADDRESS 0x2af9 ===
  0x2af9	int3   	
  0x2afa	int3   	
  0x2afb	int3   	
  0x2afc	int3   	
  0x2afd	int3   	
  === BLOCK LINK ===
    0x2afe
=== CODE BLOCK END ===

=== CODE BLOCK ADDRESS 0x2afe ===
  0x2afe	int3   	
  0x2aff	int3   	
  0x2b00	xor    	eax, eax
  0x2b02	ret    	
  0x2b03	int3   	
  === BLOCK LINK ===
    0x2b04
=== CODE BLOCK END ===

=== CODE BLOCK ADDRESS 0x2b04 ===
  0x2b04	int3   	
  0x2b05	int3   	
  0x2b06	int3   	
  0x2b07	int3   	
  0x2b08	int3   	
  === BLOCK LINK ===
    0x2b09
=== CODE BLOCK END ===

=== CODE BLOCK ADDRESS 0x2b09 ===
  0x2b09	int3   	
  0x2b0a	int3   	
  0x2b0b	int3   	
  0x2b0c	int3   	
  0x2b0d	int3   	
  === BLOCK LINK ===
    0x2b0e
=== CODE BLOCK END ===

=== CODE BLOCK ADDRESS 0x2b0e ===
  0x2b0e	int3   	
  0x2b0f	int3   	
  0x2b10	dec    	esp
  0x2b11	arpl   	word ptr [ecx + 0x3c], ax
  0x2b14	inc    	ebp
  === BLOCK LINK ===
    0x2b15
=== CODE BLOCK END ===

=== CODE BLOCK ADDRESS 0x2b15 ===
  0x2b15	xor    	ecx, ecx
  0x2b17	dec    	esp
  0x2b18	add    	eax, ecx
  0x2b1a	dec    	esp
  0x2b1b	mov    	edx, edx
  === BLOCK LINK ===
    0x2b1d
=== CODE BLOCK END ===

=== CODE BLOCK ADDRESS 0x2b1d ===
  0x2b1d	inc    	ecx
  0x2b1e	movzx  	eax, word ptr [eax + 0x14]
  0x2b22	inc    	ebp
  0x2b23	movzx  	ebx, word ptr [eax + 6]
  0x2b27	dec    	eax
  === BLOCK LINK ===
    0x2b28
=== CODE BLOCK END ===

=== CODE BLOCK ADDRESS 0x2b28 ===
  0x2b28	add    	eax, 0x18
  0x2b2b	dec    	ecx
  0x2b2c	add    	eax, eax
  0x2b2e	inc    	ebp
  0x2b2f	test   	ebx, ebx
  === BLOCK LINK ===
    0x2b31
=== CODE BLOCK END ===

=== CODE BLOCK ADDRESS 0x2b31 ===
  0x2b31	je     	0x2b51
  === BLOCK LINK ===
    0x2b33
=== CODE BLOCK END ===

=== CODE BLOCK ADDRESS 0x2b33 ===
  0x2b33	mov    	edx, dword ptr [eax + 0xc]
  0x2b36	dec    	esp
  0x2b37	cmp    	edx, edx
  0x2b39	jb     	0x2b45
  === BLOCK LINK ===
    0x2b3b
=== CODE BLOCK END ===

=== CODE BLOCK ADDRESS 0x2b3b ===
  0x2b3b	mov    	ecx, dword ptr [eax + 8]
  0x2b3e	add    	ecx, edx
  0x2b40	dec    	esp
  0x2b41	cmp    	edx, ecx
  0x2b43	jb     	0x2b53
  === BLOCK LINK ===
    0x2b45
=== CODE BLOCK END ===

=== CODE BLOCK ADDRESS 0x2b45 ===
  0x2b45	inc    	ecx
  0x2b46	inc    	ecx
  0x2b48	dec    	eax
  0x2b49	add    	eax, 0x28
  0x2b4c	inc    	ebp
  === BLOCK LINK ===
    0x2b4d
=== CODE BLOCK END ===

=== CODE BLOCK ADDRESS 0x2b4d ===
  0x2b4d	cmp    	ecx, ebx
  0x2b4f	jb     	0x2b33
  === BLOCK LINK ===
    0x2b51
=== CODE BLOCK END ===

=== CODE BLOCK ADDRESS 0x2b51 ===
  0x2b51	xor    	eax, eax
  0x2b53	ret    	
  0x2b54	int3   	
  0x2b55	int3   	
  0x2b56	int3   	
  === BLOCK LINK ===
    0x2b57
=== CODE BLOCK END ===

=== CODE BLOCK ADDRESS 0x2b57 ===
  0x2b57	int3   	
  0x2b58	int3   	
  0x2b59	int3   	
  0x2b5a	int3   	
  0x2b5b	int3   	
  === BLOCK LINK ===
    0x2b5c
=== CODE BLOCK END ===

=== CODE BLOCK ADDRESS 0x2b5c ===
  0x2b5c	int3   	
  0x2b5d	int3   	
  0x2b5e	int3   	
  0x2b5f	int3   	
  0x2b60	dec    	eax
  === BLOCK LINK ===
    0x2b61
=== CODE BLOCK END ===

=== CODE BLOCK ADDRESS 0x2b61 ===
  0x2b61	mov    	dword ptr [esp + 8], ebx
  0x2b65	push   	edi
  0x2b66	dec    	eax
  0x2b67	sub    	esp, 0x20
  0x2b6a	dec    	eax
  === BLOCK LINK ===
    0x2b6b
=== CODE BLOCK END ===

=== CODE BLOCK ADDRESS 0x2b6b ===
  0x2b6b	mov    	ebx, ecx
  0x2b6d	dec    	eax
  0x2b6e	lea    	edi, [0xffffd48c]
  0x2b74	dec    	eax
  0x2b75	mov    	ecx, edi
  === BLOCK LINK ===
    0x2b77
=== CODE BLOCK END ===

=== CODE BLOCK ADDRESS 0x2b77 ===
  0x2b77	call   	0x2bc0
  === BLOCK LINK ===
    0x2b7c
=== CODE BLOCK END ===

=== CODE BLOCK ADDRESS 0x2b7c ===
  0x2b7c	test   	eax, eax
  0x2b7e	je     	0x2ba2
  === BLOCK LINK ===
    0x2b80
=== CODE BLOCK END ===

=== CODE BLOCK ADDRESS 0x2b80 ===
  0x2b80	dec    	eax
  0x2b81	sub    	ebx, edi
  0x2b83	dec    	eax
  0x2b84	mov    	edx, ebx
  0x2b86	dec    	eax
  === BLOCK LINK ===
    0x2b87
=== CODE BLOCK END ===

=== CODE BLOCK ADDRESS 0x2b87 ===
  0x2b87	mov    	ecx, edi
  0x2b89	call   	0x2b10
  === BLOCK LINK ===
    0x2b8e
=== CODE BLOCK END ===

=== CODE BLOCK ADDRESS 0x2b8e ===
  0x2b8e	dec    	eax
  0x2b8f	test   	eax, eax
  0x2b91	je     	0x2ba2
  === BLOCK LINK ===
    0x2b93
=== CODE BLOCK END ===

=== CODE BLOCK ADDRESS 0x2b93 ===
  0x2b93	mov    	eax, dword ptr [eax + 0x24]
  0x2b96	shr    	eax, 0x1f
  0x2b99	not    	eax
  0x2b9b	and    	eax, 1
  0x2b9e	jmp    	0x2ba2
  === BLOCK LINK ===
    0x2ba0
=== CODE BLOCK END ===

=== CODE BLOCK ADDRESS 0x2ba0 ===
  0x2ba0	xor    	eax, eax
  0x2ba2	dec    	eax
  0x2ba3	mov    	ebx, dword ptr [esp + 0x30]
  0x2ba7	dec    	eax
  0x2ba8	add    	esp, 0x20
  === BLOCK LINK ===
    0x2bab
=== CODE BLOCK END ===

=== CODE BLOCK ADDRESS 0x2bab ===
  0x2bab	pop    	edi
  0x2bac	ret    	
  0x2bad	int3   	
  0x2bae	int3   	
  0x2baf	int3   	
  === BLOCK LINK ===
    0x2bb0
=== CODE BLOCK END ===

=== CODE BLOCK ADDRESS 0x2bb0 ===
  0x2bb0	int3   	
  0x2bb1	int3   	
  0x2bb2	int3   	
  0x2bb3	int3   	
  0x2bb4	int3   	
  === BLOCK LINK ===
    0x2bb5
=== CODE BLOCK END ===

=== CODE BLOCK ADDRESS 0x2bb5 ===
  0x2bb5	int3   	
  0x2bb6	int3   	
  0x2bb7	int3   	
  0x2bb8	int3   	
  0x2bb9	int3   	
  === BLOCK LINK ===
    0x2bba
=== CODE BLOCK END ===

=== CODE BLOCK ADDRESS 0x2bba ===
  0x2bba	int3   	
  0x2bbb	int3   	
  0x2bbc	int3   	
  0x2bbd	int3   	
  0x2bbe	int3   	
  === BLOCK LINK ===
    0x2bbf
=== CODE BLOCK END ===

=== CODE BLOCK ADDRESS 0x2bbf ===
  0x2bbf	int3   	
  0x2bc0	mov    	eax, 0x5a4d
  0x2bc5	cmp    	word ptr [ecx], ax
  0x2bc8	jne    	0x2bea
  === BLOCK LINK ===
    0x2bca
=== CODE BLOCK END ===

=== CODE BLOCK ADDRESS 0x2bca ===
  0x2bca	dec    	eax
  0x2bcb	arpl   	word ptr [ecx + 0x3c], ax
  0x2bce	dec    	eax
  0x2bcf	add    	eax, ecx
  0x2bd1	cmp    	dword ptr [eax], 0x4550
  === BLOCK LINK ===
    0x2bd7
=== CODE BLOCK END ===

=== CODE BLOCK ADDRESS 0x2bd7 ===
  0x2bd7	jne    	0x2bea
  === BLOCK LINK ===
    0x2bd9
=== CODE BLOCK END ===

=== CODE BLOCK ADDRESS 0x2bd9 ===
  0x2bd9	mov    	ecx, 0x20b
  0x2bde	cmp    	word ptr [eax + 0x18], cx
  0x2be2	jne    	0x2bea
  === BLOCK LINK ===
    0x2be4
=== CODE BLOCK END ===

=== CODE BLOCK ADDRESS 0x2be4 ===
  0x2be4	mov    	eax, 1
  0x2be9	ret    	
  0x2bea	xor    	eax, eax
  0x2bec	ret    	
  0x2bed	int3   	
  === BLOCK LINK ===
    0x2bee
=== CODE BLOCK END ===

=== CODE BLOCK ADDRESS 0x29b0 ===
  0x29b0	dec    	eax
  0x29b1	cmp    	ecx, dword ptr [0x3791]
  0x29b7	jne    	0x29c9
  === BLOCK LINK ===
    0x29b9
=== CODE BLOCK END ===

=== CODE BLOCK ADDRESS 0x2bee ===
  0x2bee	int3   	
  0x2bef	int3   	
  0x2bf0	int3   	
  0x2bf1	int3   	
  0x2bf2	int3   	
  === BLOCK LINK ===
    0x2bf3
=== CODE BLOCK END ===

=== CODE BLOCK ADDRESS 0x2bf3 ===
  0x2bf3	int3   	
  0x2bf4	dec    	eax
  0x2bf5	mov    	dword ptr [esp + 0x20], ebx
  0x2bf9	push   	ebp
  0x2bfa	dec    	eax
  === BLOCK LINK ===
    0x2bfb
=== CODE BLOCK END ===

=== CODE BLOCK ADDRESS 0x2bfb ===
  0x2bfb	mov    	ebp, esp
  0x2bfd	dec    	eax
  0x2bfe	sub    	esp, 0x20
  0x2c01	dec    	eax
  0x2c02	and    	dword ptr [ebp + 0x18], 0
  === BLOCK LINK ===
    0x2c06
=== CODE BLOCK END ===

=== CODE BLOCK ADDRESS 0x2c06 ===
  0x2c06	dec    	eax
  0x2c07	mov    	ebx, 0x2ddfa232
  0x2c0c	cdq    	
  0x2c0d	sub    	eax, dword ptr [eax]
  0x2c0f	add    	byte ptr [eax - 0x75], cl
  === BLOCK LINK ===
    0x2c12
=== CODE BLOCK END ===

=== CODE BLOCK ADDRESS 0x2c12 ===
  0x2c12	add    	eax, 0x3531
  0x2c17	dec    	eax
  0x2c18	cmp    	eax, ebx
  0x2c1a	jne    	0x2cb3
  === BLOCK LINK ===
    0x2c20
=== CODE BLOCK END ===

=== CODE BLOCK ADDRESS 0x2c20 ===
  0x2c20	dec    	eax
  0x2c21	lea    	ecx, [ebp + 0x18]
  0x2c24	call   	dword ptr [0x15b6]
  === BLOCK LINK ===
    0x2c2a
=== CODE BLOCK END ===

=== CODE BLOCK ADDRESS 0x2c2a ===
  0x2c2a	dec    	eax
  0x2c2b	mov    	eax, dword ptr [ebp + 0x18]
  0x2c2e	dec    	eax
  0x2c2f	mov    	dword ptr [ebp + 0x10], eax
  0x2c32	call   	dword ptr [0x15b8]
  === BLOCK LINK ===
    0x2c38
=== CODE BLOCK END ===

=== CODE BLOCK ADDRESS 0x2c38 ===
  0x2c38	mov    	eax, eax
  0x2c3a	dec    	eax
  0x2c3b	xor    	dword ptr [ebp + 0x10], eax
  0x2c3e	call   	dword ptr [0x15a4]
  === BLOCK LINK ===
    0x2c44
=== CODE BLOCK END ===

=== CODE BLOCK ADDRESS 0x2c44 ===
  0x2c44	mov    	eax, eax
  0x2c46	dec    	eax
  0x2c47	xor    	dword ptr [ebp + 0x10], eax
  0x2c4a	call   	dword ptr [0x1588]
  === BLOCK LINK ===
    0x2c50
=== CODE BLOCK END ===

=== CODE BLOCK ADDRESS 0x2c50 ===
  0x2c50	mov    	eax, eax
  0x2c52	dec    	eax
  0x2c53	shl    	eax, 0x18
  0x2c56	dec    	eax
  0x2c57	xor    	dword ptr [ebp + 0x10], eax
  === BLOCK LINK ===
    0x2c5a
=== CODE BLOCK END ===

=== CODE BLOCK ADDRESS 0x2c5a ===
  0x2c5a	call   	dword ptr [0x1578]
  === BLOCK LINK ===
    0x2c60
=== CODE BLOCK END ===

=== CODE BLOCK ADDRESS 0x2c60 ===
  0x2c60	mov    	eax, eax
  0x2c62	dec    	eax
  0x2c63	lea    	ecx, [ebp + 0x10]
  0x2c66	dec    	eax
  0x2c67	xor    	eax, dword ptr [ebp + 0x10]
  === BLOCK LINK ===
    0x2c6a
=== CODE BLOCK END ===

=== CODE BLOCK ADDRESS 0x2c6a ===
  0x2c6a	dec    	eax
  0x2c6b	xor    	eax, ecx
  0x2c6d	dec    	eax
  0x2c6e	lea    	ecx, [ebp + 0x20]
  0x2c71	dec    	eax
  === BLOCK LINK ===
    0x2c72
=== CODE BLOCK END ===

=== CODE BLOCK ADDRESS 0x2c72 ===
  0x2c72	mov    	dword ptr [ebp + 0x10], eax
  0x2c75	call   	dword ptr [0x157d]
  === BLOCK LINK ===
    0x2c7b
=== CODE BLOCK END ===

=== CODE BLOCK ADDRESS 0x2c7b ===
  0x2c7b	mov    	eax, dword ptr [ebp + 0x20]
  0x2c7e	dec    	eax
  0x2c7f	mov    	ecx, 0xffffffff
  0x2c84	.byte  	0xff
  0x2c85	inc    	dword ptr [eax]
  === BLOCK LINK ===
    0x2c87
=== CODE BLOCK END ===

=== CODE BLOCK ADDRESS 0x2c87 ===
  0x2c87	add    	byte ptr [eax - 0x3f], cl
  0x2c8a	loopne  	0x2cac
  === BLOCK LINK ===
    0x2c8c
=== CODE BLOCK END ===

=== CODE BLOCK ADDRESS 0x2c8c ===
  0x2c8c	dec    	eax
  0x2c8d	xor    	eax, dword ptr [ebp + 0x20]
  0x2c90	dec    	eax
  0x2c91	xor    	eax, dword ptr [ebp + 0x10]
  0x2c94	dec    	eax
  === BLOCK LINK ===
    0x2c95
=== CODE BLOCK END ===

=== CODE BLOCK ADDRESS 0x2c95 ===
  0x2c95	and    	eax, ecx
  0x2c97	dec    	eax
  0x2c98	mov    	ecx, eax
  0x2c9a	dec    	eax
  0x2c9b	cmp    	eax, ebx
  === BLOCK LINK ===
    0x2c9d
=== CODE BLOCK END ===

=== CODE BLOCK ADDRESS 0x2c9d ===
  0x2c9d	jne    	0x2cac
  === BLOCK LINK ===
    0x2c9f
=== CODE BLOCK END ===

=== CODE BLOCK ADDRESS 0x2c9f ===
  0x2c9f	dec    	eax
  0x2ca0	mov    	eax, 0x2ddfa233
  0x2ca5	cdq    	
  0x2ca6	sub    	eax, dword ptr [eax]
  0x2ca8	add    	byte ptr [eax - 0x75], cl
  === BLOCK LINK ===
    0x2cab
=== CODE BLOCK END ===

=== CODE BLOCK ADDRESS 0x2cab ===
  0x2cab	enter  	-0x76b8, 0xd
  0x2caf	xchg   	eax, ebp
  0x2cb0	xor    	al, 0
  0x2cb2	add    	byte ptr [eax - 0x75], cl
  0x2cb5	pop    	esp
  === BLOCK LINK ===
    0x2cb6
=== CODE BLOCK END ===

=== CODE BLOCK ADDRESS 0x2cb6 ===
  0x2cb6	and    	al, 0x48
  0x2cb8	dec    	eax
  0x2cb9	not    	eax
  0x2cbb	dec    	eax
  0x2cbc	mov    	dword ptr [0x348e], eax
  === BLOCK LINK ===
    0x2cc2
=== CODE BLOCK END ===

=== CODE BLOCK ADDRESS 0x2cc2 ===
  0x2cc2	dec    	eax
  0x2cc3	add    	esp, 0x20
  0x2cc6	pop    	ebp
  0x2cc7	ret    	
  0x2cc8	int3   	
  === BLOCK LINK ===
    0x2cc9
=== CODE BLOCK END ===

=== CODE BLOCK ADDRESS 0x2f70 ===
=== CODE BLOCK END ===

=== CODE BLOCK ADDRESS 0x2cc9 ===
  0x2cc9	int3   	
  0x2cca	int3   	
  0x2ccb	int3   	
  0x2ccc	int3   	
  0x2ccd	int3   	
  === BLOCK LINK ===
    0x2cce
=== CODE BLOCK END ===

=== CODE BLOCK ADDRESS 0x2cce ===
  0x2cce	jmp    	dword ptr [0x15ac]
  === BLOCK LINK ===
    0x2cd4
=== CODE BLOCK END ===

=== CODE BLOCK ADDRESS 0x2cd4 ===
  0x2cd4	int3   	
  0x2cd5	int3   	
  0x2cd6	int3   	
  0x2cd7	int3   	
  0x2cd8	int3   	
  === BLOCK LINK ===
    0x2cd9
=== CODE BLOCK END ===

=== CODE BLOCK ADDRESS 0x2cd9 ===
  0x2cd9	int3   	
  0x2cda	int3   	
  0x2cdb	int3   	
  0x2cdc	int3   	
  0x2cdd	int3   	
  === BLOCK LINK ===
    0x2cde
=== CODE BLOCK END ===

=== CODE BLOCK ADDRESS 0x2cde ===
  0x2cde	int3   	
  0x2cdf	int3   	
  0x2ce0	ret    	0
  0x2ce3	int3   	
  0x2ce4	int3   	
  === BLOCK LINK ===
    0x2ce5
=== CODE BLOCK END ===

=== CODE BLOCK ADDRESS 0x2ce5 ===
  0x2ce5	int3   	
  0x2ce6	int3   	
  0x2ce7	int3   	
  0x2ce8	int3   	
  0x2ce9	int3   	
  === BLOCK LINK ===
    0x2cea
=== CODE BLOCK END ===

=== CODE BLOCK ADDRESS 0x2cea ===
  0x2cea	int3   	
  0x2ceb	int3   	
  0x2cec	inc    	eax
  0x2ced	push   	ebx
  0x2cee	dec    	eax
  === BLOCK LINK ===
    0x2cef
=== CODE BLOCK END ===

=== CODE BLOCK ADDRESS 0x2cef ===
  0x2cef	sub    	esp, 0x20
  0x2cf2	dec    	eax
  0x2cf3	mov    	ebx, ecx
  0x2cf5	xor    	ecx, ecx
  0x2cf7	call   	dword ptr [0x1503]
  === BLOCK LINK ===
    0x2cfd
=== CODE BLOCK END ===

=== CODE BLOCK ADDRESS 0x2cfd ===
  0x2cfd	dec    	eax
  0x2cfe	mov    	ecx, ebx
  0x2d00	call   	dword ptr [0x14ca]
  === BLOCK LINK ===
    0x2d06
=== CODE BLOCK END ===

=== CODE BLOCK ADDRESS 0x2d06 ===
  0x2d06	call   	dword ptr [0x14bc]
  === BLOCK LINK ===
    0x2d0c
=== CODE BLOCK END ===

=== CODE BLOCK ADDRESS 0x2d0c ===
  0x2d0c	dec    	eax
  0x2d0d	mov    	ecx, eax
  0x2d0f	mov    	edx, 0xc0000409
  0x2d14	dec    	eax
  0x2d15	add    	esp, 0x20
  === BLOCK LINK ===
    0x2d18
=== CODE BLOCK END ===

=== CODE BLOCK ADDRESS 0x2d18 ===
  0x2d18	pop    	ebx
  0x2d19	dec    	eax
  0x2d1a	jmp    	dword ptr [0x14f0]
  === BLOCK LINK ===
    0x2d20
=== CODE BLOCK END ===

=== CODE BLOCK ADDRESS 0x2d20 ===
  0x2d20	int3   	
  0x2d21	int3   	
  0x2d22	int3   	
  0x2d23	int3   	
  0x2d24	int3   	
  === BLOCK LINK ===
    0x2d25
=== CODE BLOCK END ===

=== CODE BLOCK ADDRESS 0x2d25 ===
  0x2d25	int3   	
  0x2d26	int3   	
  0x2d27	int3   	
  0x2d28	int3   	
  0x2d29	int3   	
  === BLOCK LINK ===
    0x2d2a
=== CODE BLOCK END ===

=== CODE BLOCK ADDRESS 0x2d2a ===
  0x2d2a	int3   	
  0x2d2b	int3   	
  0x2d2c	int3   	
  0x2d2d	int3   	
  0x2d2e	int3   	
  === BLOCK LINK ===
    0x2d2f
=== CODE BLOCK END ===

=== CODE BLOCK ADDRESS 0x2d2f ===
  0x2d2f	int3   	
  0x2d30	dec    	eax
  0x2d31	mov    	dword ptr [esp + 8], ecx
  0x2d35	dec    	eax
  0x2d36	sub    	esp, 0x88
  === BLOCK LINK ===
    0x2d3c
=== CODE BLOCK END ===

=== CODE BLOCK ADDRESS 0x2d3c ===
  0x2d3c	dec    	eax
  0x2d3d	lea    	ecx, [0x350d]
  0x2d43	call   	dword ptr [0x15cf]
  === BLOCK LINK ===
    0x2d49
=== CODE BLOCK END ===

=== CODE BLOCK ADDRESS 0x2d49 ===
  0x2d49	dec    	eax
  0x2d4a	mov    	eax, dword ptr [0x35f8]
  0x2d50	dec    	eax
  0x2d51	mov    	dword ptr [esp + 0x48], eax
  0x2d55	inc    	ebp
  === BLOCK LINK ===
    0x2d56
=== CODE BLOCK END ===

=== CODE BLOCK ADDRESS 0x2d56 ===
  0x2d56	xor    	eax, eax
  0x2d58	dec    	eax
  0x2d59	lea    	edx, [esp + 0x50]
  0x2d5d	dec    	eax
  0x2d5e	mov    	ecx, dword ptr [esp + 0x48]
  === BLOCK LINK ===
    0x2d62
=== CODE BLOCK END ===

=== CODE BLOCK ADDRESS 0x2d62 ===
  0x2d62	call   	dword ptr [0x15a8]
  === BLOCK LINK ===
    0x2d68
=== CODE BLOCK END ===

=== CODE BLOCK ADDRESS 0x2d68 ===
  0x2d68	dec    	eax
  0x2d69	mov    	dword ptr [esp + 0x40], eax
  0x2d6d	dec    	eax
  0x2d6e	cmp    	dword ptr [esp + 0x40], 0
  0x2d73	je     	0x2db7
  === BLOCK LINK ===
    0x2d75
=== CODE BLOCK END ===

=== CODE BLOCK ADDRESS 0x2d75 ===
  0x2d75	dec    	eax
  0x2d76	mov    	dword ptr [esp + 0x38], 0
  0x2d7e	dec    	eax
  0x2d7f	lea    	eax, [esp + 0x58]
  0x2d83	dec    	eax
  === BLOCK LINK ===
    0x2d84
=== CODE BLOCK END ===

=== CODE BLOCK ADDRESS 0x2d84 ===
  0x2d84	mov    	dword ptr [esp + 0x30], eax
  0x2d88	dec    	eax
  0x2d89	lea    	eax, [esp + 0x60]
  0x2d8d	dec    	eax
  0x2d8e	mov    	dword ptr [esp + 0x28], eax
  === BLOCK LINK ===
    0x2d92
=== CODE BLOCK END ===

=== CODE BLOCK ADDRESS 0x2d92 ===
  0x2d92	dec    	eax
  0x2d93	lea    	eax, [0x34b7]
  0x2d99	dec    	eax
  0x2d9a	mov    	dword ptr [esp + 0x20], eax
  0x2d9e	dec    	esp
  === BLOCK LINK ===
    0x2d9f
=== CODE BLOCK END ===

=== CODE BLOCK ADDRESS 0x2d9f ===
  0x2d9f	mov    	ecx, dword ptr [esp + 0x40]
  0x2da3	dec    	esp
  0x2da4	mov    	eax, dword ptr [esp + 0x48]
  0x2da8	dec    	eax
  0x2da9	mov    	edx, dword ptr [esp + 0x50]
  === BLOCK LINK ===
    0x2dad
=== CODE BLOCK END ===

=== CODE BLOCK ADDRESS 0x2dad ===
  0x2dad	xor    	ecx, ecx
  0x2daf	call   	dword ptr [0x1553]
  === BLOCK LINK ===
    0x2db5
=== CODE BLOCK END ===

=== CODE BLOCK ADDRESS 0x2db5 ===
  0x2db5	jmp    	0x2dda
  === BLOCK LINK ===
    0x2db7
=== CODE BLOCK END ===

=== CODE BLOCK ADDRESS 0x2db7 ===
  0x2db7	dec    	eax
  0x2db8	mov    	eax, dword ptr [0x352a]
  0x2dbe	dec    	eax
  0x2dbf	mov    	eax, dword ptr [eax]
  0x2dc1	dec    	eax
  === BLOCK LINK ===
    0x2dc2
=== CODE BLOCK END ===

=== CODE BLOCK ADDRESS 0x2dc2 ===
  0x2dc2	mov    	dword ptr [0x3580], eax
  0x2dc8	dec    	eax
  0x2dc9	mov    	eax, dword ptr [0x3519]
  0x2dcf	dec    	eax
  0x2dd0	add    	eax, 8
  === BLOCK LINK ===
    0x2dd3
=== CODE BLOCK END ===

=== CODE BLOCK ADDRESS 0x2dd3 ===
  0x2dd3	dec    	eax
  0x2dd4	mov    	dword ptr [0x350e], eax
  0x2dda	dec    	eax
  0x2ddb	mov    	eax, dword ptr [0x3567]
  0x2de1	dec    	eax
  === BLOCK LINK ===
    0x2de2
=== CODE BLOCK END ===

=== CODE BLOCK ADDRESS 0x2de2 ===
  0x2de2	mov    	dword ptr [0x33d8], eax
  0x2de8	dec    	eax
  0x2de9	mov    	eax, dword ptr [esp + 0x90]
  0x2df0	dec    	eax
  0x2df1	mov    	dword ptr [0x34d9], eax
  === BLOCK LINK ===
    0x2df7
=== CODE BLOCK END ===

=== CODE BLOCK ADDRESS 0x2df7 ===
  0x2df7	mov    	dword ptr [0x33af], 0xc0000409
  0x2e01	mov    	dword ptr [0x33a9], 1
  0x2e0b	mov    	dword ptr [0x33b3], 3
  0x2e15	mov    	eax, 8
  0x2e1a	dec    	eax
  === BLOCK LINK ===
    0x2e1b
=== CODE BLOCK END ===

=== CODE BLOCK ADDRESS 0x2e1b ===
  0x2e1b	imul   	eax, eax, 0
  0x2e1e	dec    	eax
  0x2e1f	lea    	ecx, [0x33ab]
  0x2e25	dec    	eax
  0x2e26	mov    	dword ptr [ecx + eax], 2
  === BLOCK LINK ===
    0x2e2d
=== CODE BLOCK END ===

=== CODE BLOCK ADDRESS 0x2e2d ===
  0x2e2d	mov    	eax, 8
  0x2e32	dec    	eax
  0x2e33	imul   	eax, eax, 1
  0x2e36	dec    	eax
  0x2e37	lea    	ecx, [0x3393]
  === BLOCK LINK ===
    0x2e3d
=== CODE BLOCK END ===

=== CODE BLOCK ADDRESS 0x2e3d ===
  0x2e3d	dec    	eax
  0x2e3e	mov    	edx, dword ptr [0x3304]
  0x2e44	dec    	eax
  0x2e45	mov    	dword ptr [ecx + eax], edx
  0x2e48	mov    	eax, 8
  === BLOCK LINK ===
    0x2e4d
=== CODE BLOCK END ===

=== CODE BLOCK ADDRESS 0x2e4d ===
  0x2e4d	dec    	eax
  0x2e4e	imul   	eax, eax, 2
  0x2e51	dec    	eax
  0x2e52	lea    	ecx, [0x3378]
  0x2e58	dec    	eax
  === BLOCK LINK ===
    0x2e59
=== CODE BLOCK END ===

=== CODE BLOCK ADDRESS 0x2e59 ===
  0x2e59	mov    	edx, dword ptr [0x32f1]
  0x2e5f	dec    	eax
  0x2e60	mov    	dword ptr [ecx + eax], edx
  0x2e63	mov    	eax, 8
  0x2e68	dec    	eax
  === BLOCK LINK ===
    0x2e69
=== CODE BLOCK END ===

=== CODE BLOCK ADDRESS 0x2e69 ===
  0x2e69	imul   	eax, eax, 0
  0x2e6c	dec    	eax
  0x2e6d	mov    	ecx, dword ptr [0x32d5]
  0x2e73	dec    	eax
  0x2e74	mov    	dword ptr [esp + eax + 0x68], ecx
  === BLOCK LINK ===
    0x2e78
=== CODE BLOCK END ===

=== CODE BLOCK ADDRESS 0x2e78 ===
  0x2e78	mov    	eax, 8
  0x2e7d	dec    	eax
  0x2e7e	imul   	eax, eax, 1
  0x2e81	dec    	eax
  0x2e82	mov    	ecx, dword ptr [0x32c8]
  === BLOCK LINK ===
    0x2e88
=== CODE BLOCK END ===

=== CODE BLOCK ADDRESS 0x2e88 ===
  0x2e88	dec    	eax
  0x2e89	mov    	dword ptr [esp + eax + 0x68], ecx
  0x2e8d	dec    	eax
  0x2e8e	lea    	ecx, [0x116c]
  0x2e94	call   	0x2cec
  === BLOCK LINK ===
    0x2e99
=== CODE BLOCK END ===

=== CODE BLOCK ADDRESS 0x2e99 ===
  0x2e99	dec    	eax
  0x2e9a	add    	esp, 0x88
  0x2ea0	ret    	
  0x2ea1	int3   	
  0x2ea2	int3   	
  === BLOCK LINK ===
    0x2ea3
=== CODE BLOCK END ===

=== CODE BLOCK ADDRESS 0x2ea3 ===
  0x2ea3	int3   	
  0x2ea4	int3   	
  0x2ea5	int3   	
  0x2ea6	int3   	
  0x2ea7	int3   	
  === BLOCK LINK ===
    0x2ea8
=== CODE BLOCK END ===

=== CODE BLOCK ADDRESS 0x2ea8 ===
  0x2ea8	int3   	
  0x2ea9	int3   	
  0x2eaa	int3   	
  0x2eab	int3   	
  0x2eac	int3   	
  === BLOCK LINK ===
    0x2ead
=== CODE BLOCK END ===

=== CODE BLOCK ADDRESS 0x2ead ===
  0x2ead	int3   	
  0x2eae	int3   	
  0x2eaf	int3   	
  0x2eb0	int3   	
  0x2eb1	int3   	
  === BLOCK LINK ===
    0x2eb2
=== CODE BLOCK END ===

=== CODE BLOCK ADDRESS 0x2eb2 ===
  0x2eb2	int3   	
  0x2eb3	int3   	
  0x2eb4	int3   	
  0x2eb5	int3   	
  0x2eb6	int3   	
  === BLOCK LINK ===
    0x2eb7
=== CODE BLOCK END ===

=== CODE BLOCK ADDRESS 0x2eb7 ===
  0x2eb7	int3   	
  0x2eb8	dec    	eax
  0x2eb9	sub    	esp, 0x28
  0x2ebc	dec    	ebp
  0x2ebd	mov    	eax, dword ptr [ecx + 0x38]
  === BLOCK LINK ===
    0x2ec0
=== CODE BLOCK END ===

=== CODE BLOCK ADDRESS 0x2ec0 ===
  0x2ec0	dec    	eax
  0x2ec1	mov    	ecx, edx
  0x2ec3	dec    	ecx
  0x2ec4	mov    	edx, ecx
  0x2ec6	call   	0x2edc
  === BLOCK LINK ===
    0x2ecb
=== CODE BLOCK END ===

=== CODE BLOCK ADDRESS 0x2ecb ===
  0x2ecb	mov    	eax, 1
  0x2ed0	dec    	eax
  0x2ed1	add    	esp, 0x28
  0x2ed4	ret    	
  0x2ed5	int3   	
  === BLOCK LINK ===
    0x2ed6
=== CODE BLOCK END ===

=== CODE BLOCK ADDRESS 0x2ed6 ===
  0x2ed6	int3   	
  0x2ed7	int3   	
  0x2ed8	int3   	
  0x2ed9	int3   	
  0x2eda	int3   	
  === BLOCK LINK ===
    0x2edb
=== CODE BLOCK END ===

=== CODE BLOCK ADDRESS 0x2edb ===
  0x2edb	int3   	
  0x2edc	inc    	eax
  0x2edd	push   	ebx
  0x2ede	inc    	ebp
  0x2edf	mov    	ebx, dword ptr [eax]
  === BLOCK LINK ===
    0x2ee1
=== CODE BLOCK END ===

=== CODE BLOCK ADDRESS 0x2ee1 ===
  0x2ee1	dec    	eax
  0x2ee2	mov    	ebx, edx
  0x2ee4	inc    	ecx
  0x2ee5	and    	ebx, 0xfffffff8
  0x2ee8	dec    	esp
  === BLOCK LINK ===
    0x2ee9
=== CODE BLOCK END ===

=== CODE BLOCK ADDRESS 0x2ee9 ===
  0x2ee9	mov    	ecx, ecx
  0x2eeb	inc    	ecx
  0x2eec	test   	byte ptr [eax], 4
  0x2eef	dec    	esp
  0x2ef0	mov    	edx, ecx
  === BLOCK LINK ===
    0x2ef2
=== CODE BLOCK END ===

=== CODE BLOCK ADDRESS 0x2ef2 ===
  0x2ef2	je     	0x2f07
  === BLOCK LINK ===
    0x2ef4
=== CODE BLOCK END ===

=== CODE BLOCK ADDRESS 0x2ef4 ===
  0x2ef4	inc    	ecx
  0x2ef5	mov    	eax, dword ptr [eax + 8]
  0x2ef8	dec    	ebp
  0x2ef9	arpl   	word ptr [eax + 4], dx
  0x2efc	neg    	eax
  === BLOCK LINK ===
    0x2efe
=== CODE BLOCK END ===

=== CODE BLOCK ADDRESS 0x2efe ===
  0x2efe	dec    	esp
  0x2eff	add    	edx, ecx
  0x2f01	dec    	eax
  0x2f02	arpl   	ax, cx
  0x2f04	dec    	esp
  === BLOCK LINK ===
    0x2f05
=== CODE BLOCK END ===

=== CODE BLOCK ADDRESS 0x2f05 ===
  0x2f05	and    	edx, ecx
  0x2f07	dec    	ecx
  0x2f08	arpl   	bx, ax
  0x2f0a	dec    	edx
  0x2f0b	mov    	edx, dword ptr [eax + edx]
  === BLOCK LINK ===
    0x2f0e
=== CODE BLOCK END ===

=== CODE BLOCK ADDRESS 0x2f0e ===
  0x2f0e	dec    	eax
  0x2f0f	mov    	eax, dword ptr [ebx + 0x10]
  0x2f12	mov    	ecx, dword ptr [eax + 8]
  0x2f15	dec    	eax
  0x2f16	mov    	eax, dword ptr [ebx + 8]
  === BLOCK LINK ===
    0x2f19
=== CODE BLOCK END ===

=== CODE BLOCK ADDRESS 0x2f19 ===
  0x2f19	test   	byte ptr [ecx + eax + 3], 0xf
  0x2f1e	je     	0x2f2b
  === BLOCK LINK ===
    0x2f20
=== CODE BLOCK END ===

=== CODE BLOCK ADDRESS 0x2f20 ===
  0x2f20	movzx  	eax, byte ptr [ecx + eax + 3]
  0x2f25	and    	eax, 0xfffffff0
  0x2f28	dec    	esp
  0x2f29	add    	ecx, eax
  0x2f2b	dec    	esp
  === BLOCK LINK ===
    0x2f2c
=== CODE BLOCK END ===

=== CODE BLOCK ADDRESS 0x2f2c ===
  0x2f2c	xor    	ecx, edx
  0x2f2e	dec    	ecx
  0x2f2f	mov    	ecx, ecx
  0x2f31	pop    	ebx
  0x2f32	jmp    	0x29b0
  === BLOCK LINK ===
    0x2f37
=== CODE BLOCK END ===

=== CODE BLOCK ADDRESS 0x2f37 ===
  0x2f37	int3   	
  0x2f38	int3   	
  0x2f39	int3   	
  0x2f3a	int3   	
  0x2f3b	int3   	
  === BLOCK LINK ===
    0x2f3c
=== CODE BLOCK END ===

=== CODE BLOCK ADDRESS 0x2f3c ===
  0x2f3c	int3   	
  0x2f3d	int3   	
  0x2f3e	int3   	
  0x2f3f	int3   	
  0x2f40	int3   	
  === BLOCK LINK ===
    0x2f41
=== CODE BLOCK END ===

=== CODE BLOCK ADDRESS 0x2f41 ===
  0x2f41	int3   	
  0x2f42	int3   	
  0x2f43	int3   	
  0x2f44	int3   	
  0x2f45	int3   	
  === BLOCK LINK ===
    0x2f46
=== CODE BLOCK END ===

=== CODE BLOCK ADDRESS 0x2f46 ===
  0x2f46	nop    	word ptr [eax + eax]
  0x2f50	jmp    	eax
  === BLOCK LINK ===
    0x2f52
=== CODE BLOCK END ===

=== CODE BLOCK ADDRESS 0x2f52 ===
  0x2f52	int3   	
  0x2f53	int3   	
  0x2f54	int3   	
  0x2f55	int3   	
  0x2f56	int3   	
  === BLOCK LINK ===
    0x2f57
=== CODE BLOCK END ===

=== CODE BLOCK ADDRESS 0x2f57 ===
  0x2f57	int3   	
  0x2f58	int3   	
  0x2f59	int3   	
  0x2f5a	int3   	
  0x2f5b	int3   	
  === BLOCK LINK ===
    0x2f5c
=== CODE BLOCK END ===

=== CODE BLOCK ADDRESS 0x2f5c ===
  0x2f5c	int3   	
  0x2f5d	int3   	
  0x2f5e	int3   	
  0x2f5f	int3   	
  0x2f60	int3   	
  === BLOCK LINK ===
    0x2f61
=== CODE BLOCK END ===

=== CODE BLOCK ADDRESS 0x2f61 ===
  0x2f61	int3   	
  0x2f62	int3   	
  0x2f63	int3   	
  0x2f64	int3   	
  0x2f65	int3   	
  === BLOCK LINK ===
    0x2f66
=== CODE BLOCK END ===

=== CODE BLOCK ADDRESS 0x2f66 ===
  0x2f66	nop    	word ptr [eax + eax]
  0x2f70	dec    	eax
  0x2f71	sub    	esp, 0x10
  0x2f74	dec    	esp
  0x2f75	mov    	dword ptr [esp], edx
  === BLOCK LINK ===
    0x2f78
=== CODE BLOCK END ===

=== CODE BLOCK ADDRESS 0x2f78 ===
  0x2f78	dec    	esp
  0x2f79	mov    	dword ptr [esp + 8], ebx
  0x2f7d	dec    	ebp
  0x2f7e	xor    	ebx, ebx
  0x2f80	dec    	esp
  === BLOCK LINK ===
    0x2f81
=== CODE BLOCK END ===

=== CODE BLOCK ADDRESS 0x2f81 ===
  0x2f81	lea    	edx, [esp + 0x18]
  0x2f85	dec    	esp
  0x2f86	sub    	edx, eax
  0x2f88	dec    	ebp
  0x2f89	cmovb  	edx, ebx
  === BLOCK LINK ===
    0x2f8c
=== CODE BLOCK END ===

=== CODE BLOCK ADDRESS 0x2f8c ===
  0x2f8c	dec    	esp
  0x2f8e	mov    	ebx, dword ptr [0x10]
  0x2f95	dec    	ebp
  0x2f96	cmp    	edx, ebx
  0x2f98	jae    	0x2faf
  === BLOCK LINK ===
    0x2f9a
=== CODE BLOCK END ===

=== CODE BLOCK ADDRESS 0x2f9a ===
  0x2f9a	inc    	cx
  0x2f9c	and    	edx, 0x8d4df000
  0x2fa2	wait   	
  0x2fa3	add    	al, dh
  0x2fa5	.byte  	0xff
  === BLOCK LINK ===
    0x2fa6
=== CODE BLOCK END ===

=== CODE BLOCK ADDRESS 0x2fa6 ===
  0x2fa6	inc    	dword ptr [ebp - 0x7c]
  0x2fa9	sbb    	ecx, dword ptr [ebp + 0x3b]
  0x2fac	sal    	dword ptr [edx - 0xf], cl
  0x2faf	dec    	esp
  0x2fb0	mov    	edx, dword ptr [esp]
  === BLOCK LINK ===
    0x2fb3
=== CODE BLOCK END ===

=== CODE BLOCK ADDRESS 0x2fb3 ===
  0x2fb3	dec    	esp
  0x2fb4	mov    	ebx, dword ptr [esp + 8]
  0x2fb8	dec    	eax
  0x2fb9	add    	esp, 0x10
  0x2fbc	ret    	
  === BLOCK LINK ===
    0x2fbd
=== CODE BLOCK END ===

=== CODE BLOCK ADDRESS 0x14dc ===
  0x14dc	dec    	eax
  0x14dd	mov    	ecx, dword ptr [ebp + 0xf90]
  0x14e3	dec    	eax
  0x14e4	xor    	ecx, esp
  === BLOCK LINK ===
    0x14e6
=== CODE BLOCK END ===

=== CODE BLOCK ADDRESS 0x2fbd ===
  0x2fbd	int3   	
  0x2fbe	int3   	
  0x2fbf	int3   	
  0x2fc0	int3   	
  0x2fc1	int3   	
  === BLOCK LINK ===
    0x2fc2
=== CODE BLOCK END ===

=== CODE BLOCK ADDRESS 0x2fc2 ===
  0x2fc2	int3   	
  0x2fc3	inc    	eax
  0x2fc4	push   	ebp
  0x2fc5	dec    	eax
  0x2fc6	sub    	esp, 0x20
  === BLOCK LINK ===
    0x2fc9
=== CODE BLOCK END ===

=== CODE BLOCK ADDRESS 0x2fc9 ===
  0x2fc9	dec    	eax
  0x2fca	mov    	ebp, edx
  0x2fcc	dec    	eax
  0x2fcd	mov    	eax, dword ptr [ecx]
  0x2fcf	dec    	eax
  === BLOCK LINK ===
    0x2fd0
=== CODE BLOCK END ===

=== CODE BLOCK ADDRESS 0x2fd0 ===
  0x2fd0	mov    	edx, ecx
  0x2fd2	mov    	ecx, dword ptr [eax]
  0x2fd4	call   	0x2a3e
  === BLOCK LINK ===
    0x2fd9
=== CODE BLOCK END ===

=== CODE BLOCK ADDRESS 0x2fd9 ===
  0x2fd9	nop    	
  0x2fda	dec    	eax
  0x2fdb	add    	esp, 0x20
  0x2fde	pop    	ebp
  0x2fdf	ret    	
  === BLOCK LINK ===
    0x2fe0
=== CODE BLOCK END ===

=== CODE BLOCK ADDRESS 0x2fe0 ===
  0x2fe0	int3   	
  0x2fe1	int3   	
  0x2fe2	int3   	
  0x2fe3	int3   	
  0x2fe4	int3   	
  === BLOCK LINK ===
    0x2fe5
=== CODE BLOCK END ===

=== CODE BLOCK ADDRESS 0x2fe5 ===
  0x2fe5	int3   	
  0x2fe6	int3   	
  0x2fe7	int3   	
  0x2fe8	int3   	
  0x2fe9	int3   	
  === BLOCK LINK ===
    0x2fea
=== CODE BLOCK END ===

=== CODE BLOCK ADDRESS 0x2fea ===
  0x2fea	int3   	
  0x2feb	int3   	
  0x2fec	int3   	
  0x2fed	int3   	
  0x2fee	int3   	
  === BLOCK LINK ===
    0x2fef
=== CODE BLOCK END ===

=== CODE BLOCK ADDRESS 0x2fef ===
  0x2fef	int3   	
  0x2ff0	inc    	eax
  0x2ff1	push   	ebp
  0x2ff2	dec    	eax
  0x2ff3	sub    	esp, 0x20
  === BLOCK LINK ===
    0x2ff6
=== CODE BLOCK END ===

=== CODE BLOCK ADDRESS 0x2ff6 ===
  0x2ff6	dec    	eax
  0x2ff7	mov    	ebp, edx
  0x2ff9	dec    	eax
  0x2ffa	mov    	eax, dword ptr [ecx]
  0x2ffc	xor    	ecx, ecx
  === BLOCK LINK ===
    0x2ffe
=== CODE BLOCK END ===

=== CODE BLOCK ADDRESS 0x2ffe ===
  0x2ffe	cmp    	dword ptr [eax], 0xc0000005
  0x3004	sete   	cl
  0x3007	mov    	eax, ecx
  0x3009	dec    	eax
  0x300a	add    	esp, 0x20
  === BLOCK LINK ===
    0x300d
=== CODE BLOCK END ===

=== CODE BLOCK ADDRESS 0x300d ===
  0x300d	pop    	ebp
  0x300e	ret    	
  0x300f	int3   	
  0x3010	add    	byte ptr [eax], al
  0x3012	add    	byte ptr [eax], al
  === BLOCK LINK ===
    0x3014
=== CODE BLOCK END ===

=== CODE BLOCK ADDRESS 0x23e8 ===
  0x23e8	mov    	dword ptr [esp + 8], ecx
  0x23ec	dec    	esp
  0x23ed	mov    	ebx, esp
  === BLOCK LINK ===
    0x23ef
=== CODE BLOCK END ===

=== CODE BLOCK ADDRESS 0x3014 ===
  0x3014	add    	byte ptr [eax], al
  0x3016	add    	byte ptr [eax], al
  0x3018	add    	byte ptr [eax], al
  0x301a	add    	byte ptr [eax], al
  0x301c	add    	byte ptr [eax], al
  === BLOCK LINK ===
    0x301e
=== CODE BLOCK END ===

=== CODE BLOCK ADDRESS 0x301e ===
  0x301e	add    	byte ptr [eax], al
  0x3020	add    	byte ptr [eax], al
  0x3022	add    	byte ptr [eax], al
  0x3024	add    	byte ptr [eax], al
  0x3026	add    	byte ptr [eax], al
  === BLOCK LINK ===
    0x3028
=== CODE BLOCK END ===

=== CODE BLOCK ADDRESS 0x3028 ===
  0x3028	add    	byte ptr [eax], al
  0x302a	add    	byte ptr [eax], al
  0x302c	add    	byte ptr [eax], al
  0x302e	add    	byte ptr [eax], al
  0x3030	add    	byte ptr [eax], al
  === BLOCK LINK ===
    0x3032
=== CODE BLOCK END ===

=== CODE BLOCK ADDRESS 0x3032 ===
  0x3032	add    	byte ptr [eax], al
  0x3034	add    	byte ptr [eax], al
  0x3036	add    	byte ptr [eax], al
  0x3038	add    	byte ptr [eax], al
  0x303a	add    	byte ptr [eax], al
  === BLOCK LINK ===
    0x303c
=== CODE BLOCK END ===

=== CODE BLOCK ADDRESS 0x303c ===
  0x303c	add    	byte ptr [eax], al
  0x303e	add    	byte ptr [eax], al
  0x3040	add    	byte ptr [eax], al
  0x3042	add    	byte ptr [eax], al
  0x3044	add    	byte ptr [eax], al
  === BLOCK LINK ===
    0x3046
=== CODE BLOCK END ===

=== CODE BLOCK ADDRESS 0x3046 ===
  0x3046	add    	byte ptr [eax], al
  0x3048	add    	byte ptr [eax], al
  0x304a	add    	byte ptr [eax], al
  0x304c	add    	byte ptr [eax], al
  0x304e	add    	byte ptr [eax], al
  === BLOCK LINK ===
    0x3050
=== CODE BLOCK END ===

=== CODE BLOCK ADDRESS 0x3050 ===
  0x3050	add    	byte ptr [eax], al
  0x3052	add    	byte ptr [eax], al
  0x3054	add    	byte ptr [eax], al
  0x3056	add    	byte ptr [eax], al
  0x3058	add    	byte ptr [eax], al
  === BLOCK LINK ===
    0x305a
=== CODE BLOCK END ===

=== CODE BLOCK ADDRESS 0x305a ===
  0x305a	add    	byte ptr [eax], al
  0x305c	add    	byte ptr [eax], al
  0x305e	add    	byte ptr [eax], al
  0x3060	add    	byte ptr [eax], al
  0x3062	add    	byte ptr [eax], al
  === BLOCK LINK ===
    0x3064
=== CODE BLOCK END ===

=== CODE BLOCK ADDRESS 0x3064 ===
  0x3064	add    	byte ptr [eax], al
  0x3066	add    	byte ptr [eax], al
  0x3068	add    	byte ptr [eax], al
  0x306a	add    	byte ptr [eax], al
  0x306c	add    	byte ptr [eax], al
  === BLOCK LINK ===
    0x306e
=== CODE BLOCK END ===

=== CODE BLOCK ADDRESS 0x306e ===
  0x306e	add    	byte ptr [eax], al
  0x3070	add    	byte ptr [eax], al
  0x3072	add    	byte ptr [eax], al
  0x3074	add    	byte ptr [eax], al
  0x3076	add    	byte ptr [eax], al
  === BLOCK LINK ===
    0x3078
=== CODE BLOCK END ===

=== CODE BLOCK ADDRESS 0x3078 ===
  0x3078	add    	byte ptr [eax], al
  0x307a	add    	byte ptr [eax], al
  0x307c	add    	byte ptr [eax], al
  0x307e	add    	byte ptr [eax], al
  0x3080	add    	byte ptr [eax], al
  === BLOCK LINK ===
    0x3082
=== CODE BLOCK END ===

=== CODE BLOCK ADDRESS 0x3082 ===
  0x3082	add    	byte ptr [eax], al
  0x3084	add    	byte ptr [eax], al
  0x3086	add    	byte ptr [eax], al
  0x3088	add    	byte ptr [eax], al
  0x308a	add    	byte ptr [eax], al
  === BLOCK LINK ===
    0x308c
=== CODE BLOCK END ===

=== CODE BLOCK ADDRESS 0x308c ===
  0x308c	add    	byte ptr [eax], al
  0x308e	add    	byte ptr [eax], al
  0x3090	add    	byte ptr [eax], al
  0x3092	add    	byte ptr [eax], al
  0x3094	add    	byte ptr [eax], al
  === BLOCK LINK ===
    0x3096
=== CODE BLOCK END ===

=== CODE BLOCK ADDRESS 0x3096 ===
  0x3096	add    	byte ptr [eax], al
  0x3098	add    	byte ptr [eax], al
  0x309a	add    	byte ptr [eax], al
  0x309c	add    	byte ptr [eax], al
  0x309e	add    	byte ptr [eax], al
  === BLOCK LINK ===
    0x30a0
=== CODE BLOCK END ===

=== CODE BLOCK ADDRESS 0x30a0 ===
  0x30a0	add    	byte ptr [eax], al
  0x30a2	add    	byte ptr [eax], al
  0x30a4	add    	byte ptr [eax], al
  0x30a6	add    	byte ptr [eax], al
  0x30a8	add    	byte ptr [eax], al
  === BLOCK LINK ===
    0x30aa
=== CODE BLOCK END ===

=== CODE BLOCK ADDRESS 0x30aa ===
  0x30aa	add    	byte ptr [eax], al
  0x30ac	add    	byte ptr [eax], al
  0x30ae	add    	byte ptr [eax], al
  0x30b0	add    	byte ptr [eax], al
  0x30b2	add    	byte ptr [eax], al
  === BLOCK LINK ===
    0x30b4
=== CODE BLOCK END ===

=== CODE BLOCK ADDRESS 0x30b4 ===
  0x30b4	add    	byte ptr [eax], al
  0x30b6	add    	byte ptr [eax], al
  0x30b8	add    	byte ptr [eax], al
  0x30ba	add    	byte ptr [eax], al
  0x30bc	add    	byte ptr [eax], al
  === BLOCK LINK ===
    0x30be
=== CODE BLOCK END ===

=== CODE BLOCK ADDRESS 0x30be ===
  0x30be	add    	byte ptr [eax], al
  0x30c0	add    	byte ptr [eax], al
  0x30c2	add    	byte ptr [eax], al
  0x30c4	add    	byte ptr [eax], al
  0x30c6	add    	byte ptr [eax], al
  === BLOCK LINK ===
    0x30c8
=== CODE BLOCK END ===

=== CODE BLOCK ADDRESS 0x30c8 ===
  0x30c8	add    	byte ptr [eax], al
  0x30ca	add    	byte ptr [eax], al
  0x30cc	add    	byte ptr [eax], al
  0x30ce	add    	byte ptr [eax], al
  0x30d0	add    	byte ptr [eax], al
  === BLOCK LINK ===
    0x30d2
=== CODE BLOCK END ===

=== CODE BLOCK ADDRESS 0x30d2 ===
  0x30d2	add    	byte ptr [eax], al
  0x30d4	add    	byte ptr [eax], al
  0x30d6	add    	byte ptr [eax], al
  0x30d8	add    	byte ptr [eax], al
  0x30da	add    	byte ptr [eax], al
  === BLOCK LINK ===
    0x30dc
=== CODE BLOCK END ===

=== CODE BLOCK ADDRESS 0x30dc ===
  0x30dc	add    	byte ptr [eax], al
  0x30de	add    	byte ptr [eax], al
  0x30e0	add    	byte ptr [eax], al
  0x30e2	add    	byte ptr [eax], al
  0x30e4	add    	byte ptr [eax], al
  === BLOCK LINK ===
    0x30e6
=== CODE BLOCK END ===

=== CODE BLOCK ADDRESS 0x30e6 ===
  0x30e6	add    	byte ptr [eax], al
  0x30e8	add    	byte ptr [eax], al
  0x30ea	add    	byte ptr [eax], al
  0x30ec	add    	byte ptr [eax], al
  0x30ee	add    	byte ptr [eax], al
  === BLOCK LINK ===
    0x30f0
=== CODE BLOCK END ===

=== CODE BLOCK ADDRESS 0x30f0 ===
  0x30f0	add    	byte ptr [eax], al
  0x30f2	add    	byte ptr [eax], al
  0x30f4	add    	byte ptr [eax], al
  0x30f6	add    	byte ptr [eax], al
  0x30f8	add    	byte ptr [eax], al
  === BLOCK LINK ===
    0x30fa
=== CODE BLOCK END ===

=== CODE BLOCK ADDRESS 0x30fa ===
  0x30fa	add    	byte ptr [eax], al
  0x30fc	add    	byte ptr [eax], al
  0x30fe	add    	byte ptr [eax], al
  0x3100	add    	byte ptr [eax], al
  0x3102	add    	byte ptr [eax], al
  === BLOCK LINK ===
    0x3104
=== CODE BLOCK END ===

=== CODE BLOCK ADDRESS 0x3104 ===
  0x3104	add    	byte ptr [eax], al
  0x3106	add    	byte ptr [eax], al
  0x3108	add    	byte ptr [eax], al
  0x310a	add    	byte ptr [eax], al
  0x310c	add    	byte ptr [eax], al
  === BLOCK LINK ===
    0x310e
=== CODE BLOCK END ===

=== CODE BLOCK ADDRESS 0x310e ===
  0x310e	add    	byte ptr [eax], al
  0x3110	add    	byte ptr [eax], al
  0x3112	add    	byte ptr [eax], al
  0x3114	add    	byte ptr [eax], al
  0x3116	add    	byte ptr [eax], al
  === BLOCK LINK ===
    0x3118
=== CODE BLOCK END ===

=== CODE BLOCK ADDRESS 0x3118 ===
  0x3118	add    	byte ptr [eax], al
  0x311a	add    	byte ptr [eax], al
  0x311c	add    	byte ptr [eax], al
  0x311e	add    	byte ptr [eax], al
  0x3120	add    	byte ptr [eax], al
  === BLOCK LINK ===
    0x3122
=== CODE BLOCK END ===

=== CODE BLOCK ADDRESS 0x3122 ===
  0x3122	add    	byte ptr [eax], al
  0x3124	add    	byte ptr [eax], al
  0x3126	add    	byte ptr [eax], al
  0x3128	add    	byte ptr [eax], al
  0x312a	add    	byte ptr [eax], al
  === BLOCK LINK ===
    0x312c
=== CODE BLOCK END ===

=== CODE BLOCK ADDRESS 0x312c ===
  0x312c	add    	byte ptr [eax], al
  0x312e	add    	byte ptr [eax], al
  0x3130	add    	byte ptr [eax], al
  0x3132	add    	byte ptr [eax], al
  0x3134	add    	byte ptr [eax], al
  === BLOCK LINK ===
    0x3136
=== CODE BLOCK END ===

=== CODE BLOCK ADDRESS 0x3136 ===
  0x3136	add    	byte ptr [eax], al
  0x3138	add    	byte ptr [eax], al
  0x313a	add    	byte ptr [eax], al
  0x313c	add    	byte ptr [eax], al
  0x313e	add    	byte ptr [eax], al
  === BLOCK LINK ===
    0x3140
=== CODE BLOCK END ===

=== CODE BLOCK ADDRESS 0x3140 ===
  0x3140	add    	byte ptr [eax], al
  0x3142	add    	byte ptr [eax], al
  0x3144	add    	byte ptr [eax], al
  0x3146	add    	byte ptr [eax], al
  0x3148	add    	byte ptr [eax], al
  === BLOCK LINK ===
    0x314a
=== CODE BLOCK END ===

=== CODE BLOCK ADDRESS 0x314a ===
  0x314a	add    	byte ptr [eax], al
  0x314c	add    	byte ptr [eax], al
  0x314e	add    	byte ptr [eax], al
  0x3150	add    	byte ptr [eax], al
  0x3152	add    	byte ptr [eax], al
  === BLOCK LINK ===
    0x3154
=== CODE BLOCK END ===

=== CODE BLOCK ADDRESS 0x3154 ===
  0x3154	add    	byte ptr [eax], al
  0x3156	add    	byte ptr [eax], al
  0x3158	add    	byte ptr [eax], al
  0x315a	add    	byte ptr [eax], al
  0x315c	add    	byte ptr [eax], al
  === BLOCK LINK ===
    0x315e
=== CODE BLOCK END ===

=== CODE BLOCK ADDRESS 0x315e ===
  0x315e	add    	byte ptr [eax], al
  0x3160	add    	byte ptr [eax], al
  0x3162	add    	byte ptr [eax], al
  0x3164	add    	byte ptr [eax], al
  0x3166	add    	byte ptr [eax], al
  === BLOCK LINK ===
    0x3168
=== CODE BLOCK END ===

=== CODE BLOCK ADDRESS 0x3168 ===
  0x3168	add    	byte ptr [eax], al
  0x316a	add    	byte ptr [eax], al
  0x316c	add    	byte ptr [eax], al
  0x316e	add    	byte ptr [eax], al
  0x3170	add    	byte ptr [eax], al
  === BLOCK LINK ===
    0x3172
=== CODE BLOCK END ===

=== CODE BLOCK ADDRESS 0x3172 ===
  0x3172	add    	byte ptr [eax], al
  0x3174	add    	byte ptr [eax], al
  0x3176	add    	byte ptr [eax], al
  0x3178	add    	byte ptr [eax], al
  0x317a	add    	byte ptr [eax], al
  === BLOCK LINK ===
    0x317c
=== CODE BLOCK END ===

=== CODE BLOCK ADDRESS 0x317c ===
  0x317c	add    	byte ptr [eax], al
  0x317e	add    	byte ptr [eax], al
  0x3180	add    	byte ptr [eax], al
  0x3182	add    	byte ptr [eax], al
  0x3184	add    	byte ptr [eax], al
  === BLOCK LINK ===
    0x3186
=== CODE BLOCK END ===

=== CODE BLOCK ADDRESS 0x3186 ===
  0x3186	add    	byte ptr [eax], al
  0x3188	add    	byte ptr [eax], al
  0x318a	add    	byte ptr [eax], al
  0x318c	add    	byte ptr [eax], al
  0x318e	add    	byte ptr [eax], al
  === BLOCK LINK ===
    0x3190
=== CODE BLOCK END ===

=== CODE BLOCK ADDRESS 0x3190 ===
  0x3190	add    	byte ptr [eax], al
  0x3192	add    	byte ptr [eax], al
  0x3194	add    	byte ptr [eax], al
  0x3196	add    	byte ptr [eax], al
  0x3198	add    	byte ptr [eax], al
  === BLOCK LINK ===
    0x319a
=== CODE BLOCK END ===

=== CODE BLOCK ADDRESS 0x319a ===
  0x319a	add    	byte ptr [eax], al
  0x319c	add    	byte ptr [eax], al
  0x319e	add    	byte ptr [eax], al
  0x31a0	add    	byte ptr [eax], al
  0x31a2	add    	byte ptr [eax], al
  === BLOCK LINK ===
    0x31a4
=== CODE BLOCK END ===

=== CODE BLOCK ADDRESS 0x31a4 ===
  0x31a4	add    	byte ptr [eax], al
  0x31a6	add    	byte ptr [eax], al
  0x31a8	add    	byte ptr [eax], al
  0x31aa	add    	byte ptr [eax], al
  0x31ac	add    	byte ptr [eax], al
  === BLOCK LINK ===
    0x31ae
=== CODE BLOCK END ===

=== CODE BLOCK ADDRESS 0x31ae ===
  0x31ae	add    	byte ptr [eax], al
  0x31b0	add    	byte ptr [eax], al
  0x31b2	add    	byte ptr [eax], al
  0x31b4	add    	byte ptr [eax], al
  0x31b6	add    	byte ptr [eax], al
  === BLOCK LINK ===
    0x31b8
=== CODE BLOCK END ===

=== CODE BLOCK ADDRESS 0x31b8 ===
  0x31b8	add    	byte ptr [eax], al
  0x31ba	add    	byte ptr [eax], al
  0x31bc	add    	byte ptr [eax], al
  0x31be	add    	byte ptr [eax], al
  0x31c0	add    	byte ptr [eax], al
  === BLOCK LINK ===
    0x31c2
=== CODE BLOCK END ===

=== CODE BLOCK ADDRESS 0x31c2 ===
  0x31c2	add    	byte ptr [eax], al
  0x31c4	add    	byte ptr [eax], al
  0x31c6	add    	byte ptr [eax], al
  0x31c8	add    	byte ptr [eax], al
  0x31ca	add    	byte ptr [eax], al
  === BLOCK LINK ===
    0x31cc
=== CODE BLOCK END ===

=== CODE BLOCK ADDRESS 0x31cc ===
  0x31cc	add    	byte ptr [eax], al
  0x31ce	add    	byte ptr [eax], al
  0x31d0	add    	byte ptr [eax], al
  0x31d2	add    	byte ptr [eax], al
  0x31d4	add    	byte ptr [eax], al
  === BLOCK LINK ===
    0x31d6
=== CODE BLOCK END ===

=== CODE BLOCK ADDRESS 0x31d6 ===
  0x31d6	add    	byte ptr [eax], al
  0x31d8	add    	byte ptr [eax], al
  0x31da	add    	byte ptr [eax], al
  0x31dc	add    	byte ptr [eax], al
  0x31de	add    	byte ptr [eax], al
  === BLOCK LINK ===
    0x31e0
=== CODE BLOCK END ===

=== CODE BLOCK ADDRESS 0x31e0 ===
  0x31e0	add    	byte ptr [eax], al
  0x31e2	add    	byte ptr [eax], al
  0x31e4	add    	byte ptr [eax], al
  0x31e6	add    	byte ptr [eax], al
  0x31e8	add    	byte ptr [eax], al
  === BLOCK LINK ===
    0x31ea
=== CODE BLOCK END ===

=== CODE BLOCK ADDRESS 0x31ea ===
  0x31ea	add    	byte ptr [eax], al
  0x31ec	add    	byte ptr [eax], al
  0x31ee	add    	byte ptr [eax], al
  0x31f0	add    	byte ptr [eax], al
  0x31f2	add    	byte ptr [eax], al
  === BLOCK LINK ===
    0x31f4
=== CODE BLOCK END ===

=== CODE BLOCK ADDRESS 0x31f4 ===
  0x31f4	add    	byte ptr [eax], al
  0x31f6	add    	byte ptr [eax], al
  0x31f8	add    	byte ptr [eax], al
  0x31fa	add    	byte ptr [eax], al
  0x31fc	add    	byte ptr [eax], al
  === BLOCK LINK ===
    0x31fe
=== CODE BLOCK END ===

=== CODE BLOCK ADDRESS 0x31fe ===
=== CODE BLOCK END ===

=== DATA BLOCK ADDRESS 0x4000 ===
  0x4000	b0 61 00 40 01 00 00 00 50 62 00 40 01 00 00 00 	0a0@0000Pb0@0000
  0x4010	18 01 00 00 00 00 00 00 00 00 00 00 00 00 00 00 	0000000000000000
  0x4020	00 00 00 00 00 00 00 00 00 00 00 00 00 00 00 00 	0000000000000000
  0x4030	00 00 00 00 00 00 00 00 00 00 00 00 00 00 00 00 	0000000000000000
  0x4040	00 00 00 00 00 00 00 00 00 00 00 00 00 00 00 00 	0000000000000000
  0x4050	00 00 00 00 00 00 00 00 00 00 00 00 00 00 00 00 	0000000000000000
  0x4060	00 00 00 00 00 00 00 00 48 61 00 40 01 00 00 00 	00000000Ha0@0000
  0x4070	00 00 00 00 00 00 00 00 00 00 00 00 00 00 00 00 	0000000000000000
  0x4080	80 43 00 40 01 00 00 00 88 43 00 40 01 00 00 00 	0C0@00000C0@0000
  0x4090	c8 43 00 40 01 00 00 00 13 00 00 00 00 00 00 00 	0C0@000000000000
  0x40a0	00 75 01 00 00 00 00 00 00 00 00 00 00 00 00 00 	0u00000000000000
  0x40b0	00 00 00 00 00 00 00 00 00 00 00 00 00 00 00 00 	0000000000000000
  0x40c0	00 00 00 00 00 00 00 00 00 00 00 00 00 00 00 00 	0000000000000000
  0x40d0	00 00 00 00 00 00 00 00 00 00 00 00 00 00 00 00 	0000000000000000
  0x40e0	00 00 00 00 00 00 00 00 00 00 00 00 00 00 00 00 	0000000000000000
  0x40f0	00 00 00 00 00 00 00 00 00 00 00 00 00 00 00 00 	0000000000000000
  0x4100	00 00 00 00 00 00 00 00 00 00 00 00 00 00 00 00 	0000000000000000
  0x4110	00 00 00 00 00 00 00 00 00 00 00 00 00 00 00 00 	0000000000000000
  0x4120	00 00 00 00 00 00 00 00 b8 4c 00 00 00 00 00 00 	000000000L000000
  0x4130	d4 4c 00 00 00 00 00 00 ec 4c 00 00 00 00 00 00 	0L0000000L000000
  0x4140	00 00 00 00 00 00 00 00 04 4d 00 00 00 00 00 00 	000000000M000000
  0x4150	1a 4d 00 00 00 00 00 00 30 4d 00 00 00 00 00 00 	0M0000000M000000
  0x4160	40 4d 00 00 00 00 00 00 50 4d 00 00 00 00 00 00 	@M000000PM000000
  0x4170	5e 4d 00 00 00 00 00 00 72 4d 00 00 00 00 00 00 	^M000000rM000000
  0x4180	82 4d 00 00 00 00 00 00 90 4d 00 00 00 00 00 00 	0M0000000M000000
  0x4190	a2 4d 00 00 00 00 00 00 b2 4d 00 00 00 00 00 00 	0M0000000M000000
  0x41a0	c8 4d 00 00 00 00 00 00 de 4d 00 00 00 00 00 00 	0M0000000M000000
  0x41b0	ea 4d 00 00 00 00 00 00 fc 4d 00 00 00 00 00 00 	0M0000000M000000
  0x41c0	08 4e 00 00 00 00 00 00 1c 4e 00 00 00 00 00 00 	0N0000000N000000
  0x41d0	16 52 00 00 00 00 00 00 06 52 00 00 00 00 00 00 	0R0000000R000000
  0x41e0	ec 51 00 00 00 00 00 00 d6 51 00 00 00 00 00 00 	0Q0000000Q000000
  0x41f0	c0 51 00 00 00 00 00 00 a6 51 00 00 00 00 00 00 	0Q0000000Q000000
  0x4200	88 51 00 00 00 00 00 00 80 51 00 00 00 00 00 00 	0Q0000000Q000000
  0x4210	32 52 00 00 00 00 00 00 00 00 00 00 00 00 00 00 	2R00000000000000
  0x4220	50 51 00 00 00 00 00 00 00 00 00 00 00 00 00 00 	PQ00000000000000
  0x4230	ae 50 00 00 00 00 00 00 cc 50 00 00 00 00 00 00 	0P0000000P000000
  0x4240	e2 50 00 00 00 00 00 00 30 51 00 00 00 00 00 00 	0P0000000Q000000
  0x4250	1a 51 00 00 00 00 00 00 08 51 00 00 00 00 00 00 	0Q0000000Q000000
  0x4260	f4 50 00 00 00 00 00 00 00 00 00 00 00 00 00 00 	0P00000000000000
  0x4270	da 4e 00 00 00 00 00 00 e4 4e 00 00 00 00 00 00 	0N0000000N000000
  0x4280	f8 4e 00 00 00 00 00 00 04 4f 00 00 00 00 00 00 	0N0000000O000000
  0x4290	0e 4f 00 00 00 00 00 00 26 4f 00 00 00 00 00 00 	0O000000&O000000
  0x42a0	c0 4e 00 00 00 00 00 00 ae 4e 00 00 00 00 00 00 	0N0000000N000000
  0x42b0	3e 4e 00 00 00 00 00 00 4a 4e 00 00 00 00 00 00 	>N000000JN000000
  0x42c0	56 4e 00 00 00 00 00 00 6e 4e 00 00 00 00 00 00 	VN000000nN000000
  0x42d0	78 4e 00 00 00 00 00 00 80 4e 00 00 00 00 00 00 	xN0000000N000000
  0x42e0	a0 4e 00 00 00 00 00 00 92 4e 00 00 00 00 00 00 	0N0000000N000000
  0x42f0	d2 4e 00 00 00 00 00 00 8a 4e 00 00 00 00 00 00 	0N0000000N000000
  0x4300	00 00 00 00 00 00 00 00 90 50 00 00 00 00 00 00 	000000000P000000
  0x4310	76 50 00 00 00 00 00 00 62 50 00 00 00 00 00 00 	vP000000bP000000
  0x4320	42 50 00 00 00 00 00 00 2e 50 00 00 00 00 00 00 	BP000000.P000000
  0x4330	16 50 00 00 00 00 00 00 ee 4f 00 00 00 00 00 00 	0P0000000O000000
  0x4340	d2 4f 00 00 00 00 00 00 9a 4f 00 00 00 00 00 00 	0O0000000O000000
  0x4350	86 4f 00 00 00 00 00 00 72 4f 00 00 00 00 00 00 	0O000000rO000000
  0x4360	5a 4f 00 00 00 00 00 00 3a 4f 00 00 00 00 00 00 	ZO000000:O000000
  0x4370	ba 4f 00 00 00 00 00 00 00 00 00 00 00 00 00 00 	0O00000000000000
  0x4380	e0 2c 00 40 01 00 00 00 50 2f 00 40 01 00 00 00 	0,0@0000P/0@0000
  0x4390	00 00 00 00 00 00 00 00 60 27 00 40 01 00 00 00 	00000000`'0@0000
  0x43a0	00 00 00 00 00 00 00 00 00 00 00 00 00 00 00 00 	0000000000000000
  0x43b0	80 26 00 40 01 00 00 00 20 2a 00 40 01 00 00 00 	0&0@0000 *0@0000
  0x43c0	00 00 00 00 00 00 00 00 60 10 00 00 20 13 00 00 	00000000`000 000
  0x43d0	20 15 00 00 b0 16 00 00 d0 16 00 00 80 18 00 00 	 000000000000000
  0x43e0	30 1a 00 00 30 1b 00 00 90 1d 00 00 d0 20 00 00 	0000000000000 00
  0x43f0	f0 20 00 00 80 26 00 00 60 27 00 00 80 29 00 00 	0 000&00`'000)00
  0x4400	e0 29 00 00 20 2a 00 00 00 2b 00 00 e0 2c 00 00 	0)00 *000+000,00
  0x4410	30 2d 00 00 00 00 00 00 00 00 00 00 00 00 00 00 	0-00000000000000
  0x4420	3f 00 00 00 00 00 00 00 68 00 65 00 6c 00 70 00 	?0000000h0e0l0p0
  0x4430	00 00 00 00 00 00 00 00 63 00 6f 00 6d 00 6d 00 	00000000c0o0m0m0
  0x4440	69 00 74 00 00 00 00 00 72 00 6f 00 6c 00 6c 00 	i0t00000r0o0l0l0
  0x4450	62 00 61 00 63 00 6b 00 00 00 00 00 00 00 00 00 	b0a0c0k000000000
  0x4460	6c 00 69 00 73 00 74 00 00 00 00 00 00 00 00 00 	l0i0s0t000000000
  0x4470	69 00 6e 00 66 00 6f 00 00 00 00 00 00 00 00 00 	i0n0f0o000000000
  0x4480	66 00 6f 00 72 00 63 00 65 00 00 00 00 00 00 00 	f0o0r0c0e0000000
  0x4490	66 00 6f 00 72 00 67 00 65 00 74 00 00 00 00 00 	f0o0r0g0e0t00000
  0x44a0	74 00 78 00 00 00 00 00 54 00 6d 00 00 00 00 00 	t0x00000T0m00000
  0x44b0	2e 4f 43 50 00 00 00 00 20 00 00 00 0d 00 0a 00 	.OCP0000 0000000
  0x44c0	00 00 00 00 00 00 00 00 4e 00 54 00 44 00 4c 00 	00000000N0T0D0L0
  0x44d0	4c 00 00 00 00 00 00 00 00 00 00 00 00 00 00 00 	L000000000000000
  0x44e0	55 00 6e 00 61 00 62 00 6c 00 65 00 20 00 74 00 	U0n0a0b0l0e0 0t0
  0x44f0	6f 00 20 00 66 00 6f 00 72 00 6d 00 61 00 74 00 	o0 0f0o0r0m0a0t0
  0x4500	20 00 6d 00 65 00 73 00 73 00 61 00 67 00 65 00 	 0m0e0s0s0a0g0e0
  0x4510	20 00 66 00 6f 00 72 00 20 00 69 00 64 00 20 00 	 0f0o0r0 0i0d0 0
  0x4520	25 00 78 00 20 00 2d 00 20 00 25 00 78 00 0a 00 	%0x0 0-0 0%0x000
  0x4530	00 00 00 00 00 00 00 00 00 00 00 00 00 00 00 00 	0000000000000000
  0x4540	00 00 00 00 bc 64 bb 56 00 00 00 00 02 00 00 00 	00000d0V00000000
  0x4550	24 00 00 00 94 45 00 00 94 2b 00 00 00 00 00 00 	$0000E000+000000
  0x4560	bc 64 bb 56 00 00 00 00 0d 00 00 00 04 02 00 00 	0d0V000000000000
  0x4570	b8 45 00 00 b8 2b 00 00 00 00 00 00 bc 64 bb 56 	0E000+0000000d0V
  0x4580	00 00 00 00 10 00 00 00 24 00 00 00 bc 47 00 00 	00000000$0000G00
  0x4590	bc 2d 00 00 52 53 44 53 00 50 c4 c1 dc 30 84 09 	0-00RSDS0P000000
  0x45a0	f7 fb 8e fe 6b 50 27 46 01 00 00 00 6b 74 6d 75 	0000kP'F0000ktmu
  0x45b0	74 69 6c 2e 70 64 62 00 47 43 54 4c 00 10 00 00 	til.pdb0GCTL0000
  0x45c0	40 1f 00 00 2e 74 65 78 74 24 6d 6e 00 00 00 00 	@000.text$mn0000
  0x45d0	40 2f 00 00 80 00 00 00 2e 74 65 78 74 24 6d 6e 	@/000000.text$mn
  0x45e0	24 30 30 00 c0 2f 00 00 50 00 00 00 2e 74 65 78 	$0000/00P000.tex
  0x45f0	74 24 78 00 00 40 00 00 28 01 00 00 2e 72 64 61 	t$x00@00(000.rda
  0x4600	74 61 24 62 72 63 00 00 28 41 00 00 58 02 00 00 	ta$brc00(A00X000
  0x4610	2e 69 64 61 74 61 24 35 00 00 00 00 80 43 00 00 	.idata$500000C00
  0x4620	10 00 00 00 2e 30 30 63 66 67 00 00 90 43 00 00 	0000.00cfg000C00
  0x4630	08 00 00 00 2e 43 52 54 24 58 43 41 00 00 00 00 	0000.CRT$XCA0000
  0x4640	98 43 00 00 08 00 00 00 2e 43 52 54 24 58 43 41 	0C000000.CRT$XCA
  0x4650	41 00 00 00 a0 43 00 00 08 00 00 00 2e 43 52 54 	A0000C000000.CRT
  0x4660	24 58 43 5a 00 00 00 00 a8 43 00 00 08 00 00 00 	$XCZ00000C000000
  0x4670	2e 43 52 54 24 58 49 41 00 00 00 00 b0 43 00 00 	.CRT$XIA00000C00
  0x4680	08 00 00 00 2e 43 52 54 24 58 49 41 41 00 00 00 	0000.CRT$XIAA000
  0x4690	b8 43 00 00 08 00 00 00 2e 43 52 54 24 58 49 59 	0C000000.CRT$XIY
  0x46a0	00 00 00 00 c0 43 00 00 08 00 00 00 2e 43 52 54 	00000C000000.CRT
  0x46b0	24 58 49 5a 00 00 00 00 c8 43 00 00 58 00 00 00 	$XIZ00000C00X000
  0x46c0	2e 67 66 69 64 73 00 00 20 44 00 00 74 01 00 00 	.gfids00 D00t000
  0x46d0	2e 72 64 61 74 61 00 00 94 45 00 00 4c 02 00 00 	.rdata000E00L000
  0x46e0	2e 72 64 61 74 61 24 7a 7a 7a 64 62 67 00 00 00 	.rdata$zzzdbg000
  0x46f0	e0 47 00 00 f4 01 00 00 2e 78 64 61 74 61 00 00 	0G000000.xdata00
  0x4700	d4 49 00 00 78 00 00 00 2e 69 64 61 74 61 24 32 	0I00x000.idata$2
  0x4710	00 00 00 00 4c 4a 00 00 14 00 00 00 2e 69 64 61 	0000LJ000000.ida
  0x4720	74 61 24 33 00 00 00 00 60 4a 00 00 58 02 00 00 	ta$30000`J00X000
  0x4730	2e 69 64 61 74 61 24 34 00 00 00 00 b8 4c 00 00 	.idata$400000L00
  0x4740	8e 05 00 00 2e 69 64 61 74 61 24 36 00 00 00 00 	0000.idata$60000
  0x4750	00 60 00 00 40 01 00 00 2e 64 61 74 61 24 62 72 	0`00@000.data$br
  0x4760	63 00 00 00 40 61 00 00 30 00 00 00 2e 64 61 74 	c000@a000000.dat
  0x4770	61 00 00 00 70 61 00 00 60 06 00 00 2e 62 73 73 	a000pa00`000.bss
  0x4780	00 00 00 00 00 70 00 00 bc 01 00 00 2e 70 64 61 	00000p000000.pda
  0x4790	74 61 00 00 00 80 00 00 f0 00 00 00 2e 72 73 72 	ta0000000000.rsr
  0x47a0	63 24 30 31 00 00 00 00 f0 80 00 00 38 07 00 00 	c$01000000008000
  0x47b0	2e 72 73 72 63 24 30 32 00 00 00 00 20 00 00 00 	.rsrc$020000 000
  0x47c0	00 50 c4 c1 dc 30 84 09 f7 fb 8e fe 6b 50 27 46 	0P0000000000kP'F
  0x47d0	39 f5 38 43 52 92 93 32 70 d9 b4 56 bc 64 bb 56 	908CR002p00V0d0V
  0x47e0	01 0a 04 00 0a 34 06 00 0a 32 06 70 01 0f 06 00 	00000400020p0000
  0x47f0	0f 64 07 00 0f 34 06 00 0f 32 0b 70 19 2c 09 00 	0d000400020p0,00
  0x4800	1b 34 3e 00 1b 01 36 00 0c f0 0a e0 08 70 07 60 	04>0006000000p0`
  0x4810	06 50 00 00 b8 2e 00 00 a0 01 00 00 19 2c 05 00 	0P000.0000000,00
  0x4820	1b 34 16 02 1b 01 14 02 06 50 00 00 b8 2e 00 00 	040000000P000.00
  0x4830	90 10 00 00 19 28 03 00 17 01 12 02 02 50 00 00 	00000(0000000P00
  0x4840	b8 2e 00 00 80 10 00 00 01 04 01 00 04 42 00 00 	0.00000000000B00
  0x4850	19 1e 06 00 0f 64 10 00 0f 34 0e 00 0f b2 0b 70 	00000d000400000p
  0x4860	b8 2e 00 00 50 00 00 00 19 2c 05 00 1b 34 14 02 	0.00P0000,000400
  0x4870	1b 01 10 02 06 50 00 00 b8 2e 00 00 70 10 00 00 	00000P000.00p000
  0x4880	19 15 02 00 06 92 02 30 b8 2e 00 00 40 00 00 00 	000000000.00@000
  0x4890	19 20 05 00 12 34 16 00 12 01 12 00 06 50 00 00 	0 00040000000P00
  0x48a0	b8 2e 00 00 80 00 00 00 19 35 09 00 24 64 1a 02 	0.0000000500$d00
  0x48b0	24 34 18 02 24 01 14 02 0f f0 0d e0 0b 50 00 00 	$400$00000000P00
  0x48c0	b8 2e 00 00 90 10 00 00 19 2a 07 00 18 64 12 02 	0.0000000*000d00
  0x48d0	18 34 10 02 18 01 0e 02 0b 70 00 00 b8 2e 00 00 	040000000p000.00
  0x48e0	60 10 00 00 01 16 0a 00 16 54 11 00 16 34 0e 00 	`00000000T000400
  0x48f0	16 72 12 f0 10 e0 0e c0 0c 70 0b 60 01 1c 03 00 	0r0000000p0`0000
  0x4900	1c a2 15 70 14 50 00 00 01 1b 02 00 1b 92 14 50 	000p0P000000000P
  0x4910	01 04 01 00 04 62 00 00 09 15 08 00 15 74 0a 00 	00000b0000000t00
  0x4920	15 64 09 00 15 34 08 00 15 52 11 f0 d4 29 00 00 	0d0004000R000)00
  0x4930	01 00 00 00 c5 27 00 00 2b 29 00 00 c3 2f 00 00 	00000'00+)000/00
  0x4940	2b 29 00 00 01 06 02 00 06 32 02 50 00 00 00 00 	+)000000020P0000
  0x4950	01 00 00 00 09 04 01 00 04 22 00 00 d4 29 00 00 	000000000"000)00
  0x4960	01 00 00 00 5c 2a 00 00 92 2a 00 00 01 00 00 00 	00000*000*000000
  0x4970	92 2a 00 00 01 06 02 00 06 32 02 30 09 0a 04 00 	0*00000002000000
  0x4980	0a 34 06 00 0a 32 06 70 d4 29 00 00 01 00 00 00 	0400020p0)000000
  0x4990	6d 2b 00 00 a0 2b 00 00 f0 2f 00 00 a0 2b 00 00 	m+000+000/000+00
  0x49a0	01 0d 04 00 0d 34 09 00 0d 32 06 50 01 0c 02 00 	00000400020P0000
  0x49b0	0c 01 11 00 00 00 00 00 01 00 00 00 01 02 01 00 	0000000000000000
  0x49c0	02 30 00 00 00 00 00 00 02 04 03 00 01 16 00 06 	0000000000000000
  0x49d0	04 12 00 00 60 4a 00 00 00 00 00 00 00 00 00 00 	0000`J0000000000
  0x49e0	f6 4c 00 00 28 41 00 00 80 4a 00 00 00 00 00 00 	0L00(A000J000000
  0x49f0	00 00 00 00 30 4e 00 00 48 41 00 00 a8 4b 00 00 	00000N00HA000K00
  0x4a00	00 00 00 00 00 00 00 00 1a 4f 00 00 70 42 00 00 	000000000O00pB00
  0x4a10	40 4c 00 00 00 00 00 00 00 00 00 00 a4 50 00 00 	@L00000000000P00
  0x4a20	08 43 00 00 68 4b 00 00 00 00 00 00 00 00 00 00 	0C00hK0000000000
  0x4a30	44 51 00 00 30 42 00 00 58 4b 00 00 00 00 00 00 	DQ000B00XK000000
  0x4a40	00 00 00 00 60 51 00 00 20 42 00 00 00 00 00 00 	0000`Q00 B000000
  0x4a50	00 00 00 00 00 00 00 00 00 00 00 00 00 00 00 00 	0000000000000000
  0x4a60	b8 4c 00 00 00 00 00 00 d4 4c 00 00 00 00 00 00 	0L0000000L000000
  0x4a70	ec 4c 00 00 00 00 00 00 00 00 00 00 00 00 00 00 	0L00000000000000
  0x4a80	04 4d 00 00 00 00 00 00 1a 4d 00 00 00 00 00 00 	0M0000000M000000
  0x4a90	30 4d 00 00 00 00 00 00 40 4d 00 00 00 00 00 00 	0M000000@M000000
  0x4aa0	50 4d 00 00 00 00 00 00 5e 4d 00 00 00 00 00 00 	PM000000^M000000
  0x4ab0	72 4d 00 00 00 00 00 00 82 4d 00 00 00 00 00 00 	rM0000000M000000
  0x4ac0	90 4d 00 00 00 00 00 00 a2 4d 00 00 00 00 00 00 	0M0000000M000000
  0x4ad0	b2 4d 00 00 00 00 00 00 c8 4d 00 00 00 00 00 00 	0M0000000M000000
  0x4ae0	de 4d 00 00 00 00 00 00 ea 4d 00 00 00 00 00 00 	0M0000000M000000
  0x4af0	fc 4d 00 00 00 00 00 00 08 4e 00 00 00 00 00 00 	0M0000000N000000
  0x4b00	1c 4e 00 00 00 00 00 00 16 52 00 00 00 00 00 00 	0N0000000R000000
  0x4b10	06 52 00 00 00 00 00 00 ec 51 00 00 00 00 00 00 	0R0000000Q000000
  0x4b20	d6 51 00 00 00 00 00 00 c0 51 00 00 00 00 00 00 	0Q0000000Q000000
  0x4b30	a6 51 00 00 00 00 00 00 88 51 00 00 00 00 00 00 	0Q0000000Q000000
  0x4b40	80 51 00 00 00 00 00 00 32 52 00 00 00 00 00 00 	0Q0000002R000000
  0x4b50	00 00 00 00 00 00 00 00 50 51 00 00 00 00 00 00 	00000000PQ000000
  0x4b60	00 00 00 00 00 00 00 00 ae 50 00 00 00 00 00 00 	000000000P000000
  0x4b70	cc 50 00 00 00 00 00 00 e2 50 00 00 00 00 00 00 	0P0000000P000000
  0x4b80	30 51 00 00 00 00 00 00 1a 51 00 00 00 00 00 00 	0Q0000000Q000000
  0x4b90	08 51 00 00 00 00 00 00 f4 50 00 00 00 00 00 00 	0Q0000000P000000
  0x4ba0	00 00 00 00 00 00 00 00 da 4e 00 00 00 00 00 00 	000000000N000000
  0x4bb0	e4 4e 00 00 00 00 00 00 f8 4e 00 00 00 00 00 00 	0N0000000N000000
  0x4bc0	04 4f 00 00 00 00 00 00 0e 4f 00 00 00 00 00 00 	0O0000000O000000
  0x4bd0	26 4f 00 00 00 00 00 00 c0 4e 00 00 00 00 00 00 	&O0000000N000000
  0x4be0	ae 4e 00 00 00 00 00 00 3e 4e 00 00 00 00 00 00 	0N000000>N000000
  0x4bf0	4a 4e 00 00 00 00 00 00 56 4e 00 00 00 00 00 00 	JN000000VN000000
  0x4c00	6e 4e 00 00 00 00 00 00 78 4e 00 00 00 00 00 00 	nN000000xN000000
  0x4c10	80 4e 00 00 00 00 00 00 a0 4e 00 00 00 00 00 00 	0N0000000N000000
  0x4c20	92 4e 00 00 00 00 00 00 d2 4e 00 00 00 00 00 00 	0N0000000N000000
  0x4c30	8a 4e 00 00 00 00 00 00 00 00 00 00 00 00 00 00 	0N00000000000000
  0x4c40	90 50 00 00 00 00 00 00 76 50 00 00 00 00 00 00 	0P000000vP000000
  0x4c50	62 50 00 00 00 00 00 00 42 50 00 00 00 00 00 00 	bP000000BP000000
  0x4c60	2e 50 00 00 00 00 00 00 16 50 00 00 00 00 00 00 	.P0000000P000000
  0x4c70	ee 4f 00 00 00 00 00 00 d2 4f 00 00 00 00 00 00 	0O0000000O000000
  0x4c80	9a 4f 00 00 00 00 00 00 86 4f 00 00 00 00 00 00 	0O0000000O000000
  0x4c90	72 4f 00 00 00 00 00 00 5a 4f 00 00 00 00 00 00 	rO000000ZO000000
  0x4ca0	3a 4f 00 00 00 00 00 00 ba 4f 00 00 00 00 00 00 	:O0000000O000000
  0x4cb0	00 00 00 00 00 00 00 00 20 00 41 6c 6c 6f 63 61 	00000000 0Alloca
  0x4cc0	74 65 41 6e 64 49 6e 69 74 69 61 6c 69 7a 65 53 	teAndInitializeS
  0x4cd0	69 64 00 00 5f 00 43 68 65 63 6b 54 6f 6b 65 6e 	id00_0CheckToken
  0x4ce0	4d 65 6d 62 65 72 73 68 69 70 00 00 34 01 46 72 	Membership0040Fr
  0x4cf0	65 65 53 69 64 00 41 44 56 41 50 49 33 32 2e 64 	eeSid0ADVAPI32.d
  0x4d00	6c 6c 00 00 72 05 53 65 74 54 68 72 65 61 64 55 	ll00r0SetThreadU
  0x4d10	49 4c 61 6e 67 75 61 67 65 00 58 03 48 65 61 70 	ILanguage0X0Heap
  0x4d20	53 65 74 49 6e 66 6f 72 6d 61 74 69 6f 6e 00 00 	SetInformation00
  0x4d30	26 03 47 65 74 56 65 72 73 69 6f 6e 45 78 57 00 	&0GetVersionExW0
  0x4d40	69 02 47 65 74 4c 61 73 74 45 72 72 6f 72 00 00 	i0GetLastError00
  0x4d50	88 00 43 6c 6f 73 65 48 61 6e 64 6c 65 00 d6 04 	00CloseHandle000
  0x4d60	52 74 6c 43 6f 6d 70 61 72 65 4d 65 6d 6f 72 79 	RtlCompareMemory
  0x4d70	00 00 db 02 47 65 74 53 74 64 48 61 6e 64 6c 65 	0000GetStdHandle
  0x4d80	00 00 57 02 47 65 74 46 69 6c 65 54 79 70 65 00 	00W0GetFileType0
  0x4d90	04 02 47 65 74 43 6f 6e 73 6f 6c 65 4d 6f 64 65 	00GetConsoleMode
  0x4da0	00 00 22 06 57 72 69 74 65 43 6f 6e 73 6f 6c 65 	00"0WriteConsole
  0x4db0	57 00 0f 06 57 69 64 65 43 68 61 72 54 6f 4d 75 	W000WideCharToMu
  0x4dc0	6c 74 69 42 79 74 65 00 08 02 47 65 74 43 6f 6e 	ltiByte000GetCon
  0x4dd0	73 6f 6c 65 4f 75 74 70 75 74 43 50 00 00 23 06 	soleOutputCP00#0
  0x4de0	57 72 69 74 65 46 69 6c 65 00 af 01 46 6f 72 6d 	WriteFile000Form
  0x4df0	61 74 4d 65 73 73 61 67 65 57 00 00 d5 03 4c 6f 	atMessageW0000Lo
  0x4e00	63 61 6c 46 72 65 65 00 80 02 47 65 74 4d 6f 64 	calFree000GetMod
  0x4e10	75 6c 65 48 61 6e 64 6c 65 57 00 00 1f 02 47 65 	uleHandleW0000Ge
  0x4e20	74 43 75 72 72 65 6e 74 50 72 6f 63 65 73 73 00 	tCurrentProcess0
  0x4e30	4b 45 52 4e 45 4c 33 32 2e 64 6c 6c 00 00 8a 03 	KERNEL32.dll0000
  0x4e40	5f 77 63 73 69 63 6d 70 00 00 b1 04 73 65 74 6c 	_wcsicmp0000setl
  0x4e50	6f 63 61 6c 65 00 57 00 5f 5f 43 5f 73 70 65 63 	ocale0W0__C_spec
  0x4e60	69 66 69 63 5f 68 61 6e 64 6c 65 72 00 00 86 04 	ific_handler0000
  0x4e70	6d 61 6c 6c 6f 63 00 00 4c 04 66 72 65 65 00 00 	malloc00L0free00
  0x4e80	20 05 77 70 72 69 6e 74 66 00 32 04 65 78 69 74 	 0wprintf020exit
  0x4e90	00 00 55 00 5f 58 63 70 74 46 69 6c 74 65 72 00 	00U0_XcptFilter0
  0x4ea0	ae 00 5f 61 6d 73 67 5f 65 78 69 74 00 00 9d 00 	00_amsg_exit0000
  0x4eb0	5f 5f 77 67 65 74 6d 61 69 6e 61 72 67 73 00 00 	__wgetmainargs00
  0x4ec0	8e 00 5f 5f 73 65 74 5f 61 70 70 5f 74 79 70 65 	00__set_app_type
  0x4ed0	00 00 0e 01 5f 65 78 69 74 00 c1 00 5f 63 65 78 	0000_exit000_cex
  0x4ee0	69 74 00 00 90 00 5f 5f 73 65 74 75 73 65 72 6d 	it0000__setuserm
  0x4ef0	61 74 68 65 72 72 00 00 7d 01 5f 69 6e 69 74 74 	atherr00}0_initt
  0x4f00	65 72 6d 00 27 01 5f 66 6d 6f 64 65 00 00 d2 00 	erm0'0_fmode0000
  0x4f10	5f 63 6f 6d 6d 6f 64 65 00 00 6d 73 76 63 72 74 	_commode00msvcrt
  0x4f20	2e 64 6c 6c 00 00 2f 00 3f 74 65 72 6d 69 6e 61 	.dll00/0?termina
  0x4f30	74 65 40 40 59 41 58 58 5a 00 56 01 4e 74 45 6e 	te@@YAXXZ0V0NtEn
  0x4f40	75 6d 65 72 61 74 65 54 72 61 6e 73 61 63 74 69 	umerateTransacti
  0x4f50	6f 6e 4f 62 6a 65 63 74 00 00 fd 04 52 74 6c 4e 	onObject0000RtlN
  0x4f60	74 53 74 61 74 75 73 54 6f 44 6f 73 45 72 72 6f 	tStatusToDosErro
  0x4f70	72 00 cc 05 52 74 6c 53 74 72 69 6e 67 46 72 6f 	r000RtlStringFro
  0x4f80	6d 47 55 49 44 00 b8 01 4e 74 4f 70 65 6e 54 72 	mGUID000NtOpenTr
  0x4f90	61 6e 73 61 63 74 69 6f 6e 00 e0 01 4e 74 51 75 	ansaction000NtQu
  0x4fa0	65 72 79 49 6e 66 6f 72 6d 61 74 69 6f 6e 54 72 	eryInformationTr
  0x4fb0	61 6e 73 61 63 74 69 6f 6e 00 fc 03 52 74 6c 46 	ansaction000RtlF
  0x4fc0	72 65 65 55 6e 69 63 6f 64 65 53 74 72 69 6e 67 	reeUnicodeString
  0x4fd0	00 00 b9 01 4e 74 4f 70 65 6e 54 72 61 6e 73 61 	0000NtOpenTransa
  0x4fe0	63 74 69 6f 6e 4d 61 6e 61 67 65 72 00 00 e1 01 	ctionManager0000
  0x4ff0	4e 74 51 75 65 72 79 49 6e 66 6f 72 6d 61 74 69 	NtQueryInformati
  0x5000	6f 6e 54 72 61 6e 73 61 63 74 69 6f 6e 4d 61 6e 	onTransactionMan
  0x5010	61 67 65 72 00 00 af 01 4e 74 4f 70 65 6e 52 65 	ager0000NtOpenRe
  0x5020	73 6f 75 72 63 65 4d 61 6e 61 67 65 72 00 9c 01 	sourceManager000
  0x5030	4e 74 4f 70 65 6e 45 6e 6c 69 73 74 6d 65 6e 74 	NtOpenEnlistment
  0x5040	00 00 d8 01 4e 74 51 75 65 72 79 49 6e 66 6f 72 	0000NtQueryInfor
  0x5050	6d 61 74 69 6f 6e 45 6e 6c 69 73 74 6d 65 6e 74 	mationEnlistment
  0x5060	00 00 f2 02 52 74 6c 43 61 70 74 75 72 65 43 6f 	0000RtlCaptureCo
  0x5070	6e 74 65 78 74 00 e8 04 52 74 6c 4c 6f 6f 6b 75 	ntext000RtlLooku
  0x5080	70 46 75 6e 63 74 69 6f 6e 45 6e 74 72 79 00 00 	pFunctionEntry00
  0x5090	27 06 52 74 6c 56 69 72 74 75 61 6c 55 6e 77 69 	'0RtlVirtualUnwi
  0x50a0	6e 64 00 00 6e 74 64 6c 6c 2e 64 6c 6c 00 14 00 	nd00ntdll.dll000
  0x50b0	4f 70 65 6e 54 72 61 6e 73 61 63 74 69 6f 6e 4d 	OpenTransactionM
  0x50c0	61 6e 61 67 65 72 42 79 49 64 00 00 11 00 4f 70 	anagerById0000Op
  0x50d0	65 6e 52 65 73 6f 75 72 63 65 4d 61 6e 61 67 65 	enResourceManage
  0x50e0	72 00 10 00 4f 70 65 6e 45 6e 6c 69 73 74 6d 65 	r000OpenEnlistme
  0x50f0	6e 74 00 00 1f 00 52 65 63 6f 76 65 72 45 6e 6c 	nt0000RecoverEnl
  0x5100	69 73 74 6d 65 6e 74 00 00 00 43 6f 6d 6d 69 74 	istment000Commit
  0x5110	43 6f 6d 70 6c 65 74 65 00 00 24 00 52 6f 6c 6c 	Complete00$0Roll
  0x5120	62 61 63 6b 45 6e 6c 69 73 74 6d 65 6e 74 00 00 	backEnlistment00
  0x5130	01 00 43 6f 6d 6d 69 74 45 6e 6c 69 73 74 6d 65 	00CommitEnlistme
  0x5140	6e 74 00 00 6b 74 6d 77 33 32 2e 64 6c 6c 00 00 	nt00ktmw32.dll00
  0x5150	4e 00 49 49 44 46 72 6f 6d 53 74 72 69 6e 67 00 	N0IIDFromString0
  0x5160	61 70 69 2d 6d 73 2d 77 69 6e 2d 63 6f 72 65 2d 	api-ms-win-core-
  0x5170	63 6f 6d 2d 6c 31 2d 31 2d 30 2e 64 6c 6c 00 00 	com-l1-1-0.dll00
  0x5180	8d 05 53 6c 65 65 70 00 7d 05 53 65 74 55 6e 68 	00Sleep0}0SetUnh
  0x5190	61 6e 64 6c 65 64 45 78 63 65 70 74 69 6f 6e 46 	andledExceptionF
  0x51a0	69 6c 74 65 72 00 51 04 51 75 65 72 79 50 65 72 	ilter0Q0QueryPer
  0x51b0	66 6f 72 6d 61 6e 63 65 43 6f 75 6e 74 65 72 00 	formanceCounter0
  0x51c0	20 02 47 65 74 43 75 72 72 65 6e 74 50 72 6f 63 	 0GetCurrentProc
  0x51d0	65 73 73 49 64 00 24 02 47 65 74 43 75 72 72 65 	essId0$0GetCurre
  0x51e0	6e 74 54 68 72 65 61 64 49 64 00 00 f2 02 47 65 	ntThreadId0000Ge
  0x51f0	74 53 79 73 74 65 6d 54 69 6d 65 41 73 46 69 6c 	tSystemTimeAsFil
  0x5200	65 54 69 6d 65 00 10 03 47 65 74 54 69 63 6b 43 	eTime000GetTickC
  0x5210	6f 75 6e 74 00 00 be 05 55 6e 68 61 6e 64 6c 65 	ount0000Unhandle
  0x5220	64 45 78 63 65 70 74 69 6f 6e 46 69 6c 74 65 72 	dExceptionFilter
  0x5230	00 00 9c 05 54 65 72 6d 69 6e 61 74 65 50 72 6f 	0000TerminatePro
  0x5240	63 65 73 73 00 00 00 00 00 00 00 00 00 00 00 00 	cess000000000000
  0x5250	00 00 00 00 00 00 00 00 00 00 00 00 00 00 00 00 	0000000000000000
  0x5260	00 00 00 00 00 00 00 00 00 00 00 00 00 00 00 00 	0000000000000000
  0x5270	00 00 00 00 00 00 00 00 00 00 00 00 00 00 00 00 	0000000000000000
  0x5280	00 00 00 00 00 00 00 00 00 00 00 00 00 00 00 00 	0000000000000000
  0x5290	00 00 00 00 00 00 00 00 00 00 00 00 00 00 00 00 	0000000000000000
  0x52a0	00 00 00 00 00 00 00 00 00 00 00 00 00 00 00 00 	0000000000000000
  0x52b0	00 00 00 00 00 00 00 00 00 00 00 00 00 00 00 00 	0000000000000000
  0x52c0	00 00 00 00 00 00 00 00 00 00 00 00 00 00 00 00 	0000000000000000
  0x52d0	00 00 00 00 00 00 00 00 00 00 00 00 00 00 00 00 	0000000000000000
  0x52e0	00 00 00 00 00 00 00 00 00 00 00 00 00 00 00 00 	0000000000000000
  0x52f0	00 00 00 00 00 00 00 00 00 00 00 00 00 00 00 00 	0000000000000000
  0x5300	00 00 00 00 00 00 00 00 00 00 00 00 00 00 00 00 	0000000000000000
  0x5310	00 00 00 00 00 00 00 00 00 00 00 00 00 00 00 00 	0000000000000000
  0x5320	00 00 00 00 00 00 00 00 00 00 00 00 00 00 00 00 	0000000000000000
  0x5330	00 00 00 00 00 00 00 00 00 00 00 00 00 00 00 00 	0000000000000000
  0x5340	00 00 00 00 00 00 00 00 00 00 00 00 00 00 00 00 	0000000000000000
  0x5350	00 00 00 00 00 00 00 00 00 00 00 00 00 00 00 00 	0000000000000000
  0x5360	00 00 00 00 00 00 00 00 00 00 00 00 00 00 00 00 	0000000000000000
  0x5370	00 00 00 00 00 00 00 00 00 00 00 00 00 00 00 00 	0000000000000000
  0x5380	00 00 00 00 00 00 00 00 00 00 00 00 00 00 00 00 	0000000000000000
  0x5390	00 00 00 00 00 00 00 00 00 00 00 00 00 00 00 00 	0000000000000000
  0x53a0	00 00 00 00 00 00 00 00 00 00 00 00 00 00 00 00 	0000000000000000
  0x53b0	00 00 00 00 00 00 00 00 00 00 00 00 00 00 00 00 	0000000000000000
  0x53c0	00 00 00 00 00 00 00 00 00 00 00 00 00 00 00 00 	0000000000000000
  0x53d0	00 00 00 00 00 00 00 00 00 00 00 00 00 00 00 00 	0000000000000000
  0x53e0	00 00 00 00 00 00 00 00 00 00 00 00 00 00 00 00 	0000000000000000
  0x53f0	00 00 00 00 00 00 00 00 00 00 00 00 00 00 00 00 	0000000000000000
=== DATA BLOCK END ===

=== DATA BLOCK ADDRESS 0x6000 ===
  0x6000	20 44 00 40 01 00 00 00 d0 20 00 40 01 00 00 00 	 D0@00000 0@0000
  0x6010	28 44 00 40 01 00 00 00 d0 20 00 40 01 00 00 00 	(D0@00000 0@0000
  0x6020	60 44 00 40 01 00 00 00 20 15 00 40 01 00 00 00 	`D0@0000 00@0000
  0x6030	70 44 00 40 01 00 00 00 f0 20 00 40 01 00 00 00 	pD0@00000 0@0000
  0x6040	00 00 00 00 00 00 00 00 00 00 00 00 00 00 00 00 	0000000000000000
  0x6050	20 44 00 40 01 00 00 00 80 18 00 40 01 00 00 00 	 D0@0000000@0000
  0x6060	28 44 00 40 01 00 00 00 80 18 00 40 01 00 00 00 	(D0@0000000@0000
  0x6070	60 44 00 40 01 00 00 00 20 13 00 40 01 00 00 00 	`D0@0000 00@0000
  0x6080	70 44 00 40 01 00 00 00 90 1d 00 40 01 00 00 00 	pD0@0000000@0000
  0x6090	80 44 00 40 01 00 00 00 60 10 00 40 01 00 00 00 	0D0@0000`00@0000
  0x60a0	90 44 00 40 01 00 00 00 d0 16 00 40 01 00 00 00 	0D0@0000000@0000
  0x60b0	00 00 00 00 00 00 00 00 00 00 00 00 00 00 00 00 	0000000000000000
  0x60c0	20 44 00 40 01 00 00 00 b0 16 00 40 01 00 00 00 	 D0@0000000@0000
  0x60d0	28 44 00 40 01 00 00 00 b0 16 00 40 01 00 00 00 	(D0@0000000@0000
  0x60e0	38 44 00 40 01 00 00 00 30 1b 00 40 01 00 00 00 	8D0@0000000@0000
  0x60f0	48 44 00 40 01 00 00 00 30 1a 00 40 01 00 00 00 	HD0@0000000@0000
  0x6100	00 00 00 00 00 00 00 00 00 00 00 00 00 00 00 00 	0000000000000000
  0x6110	a0 44 00 40 01 00 00 00 50 60 00 40 01 00 00 00 	0D0@0000P`0@0000
  0x6120	a8 44 00 40 01 00 00 00 00 60 00 40 01 00 00 00 	0D0@00000`0@0000
  0x6130	00 00 00 00 00 00 00 00 00 00 00 00 00 00 00 00 	0000000000000000
  0x6140	01 00 00 00 00 00 00 00 32 a2 df 2d 99 2b 00 00 	00000000200-0+00
  0x6150	cd 5d 20 d2 66 d4 ff ff 00 00 00 00 00 00 00 00 	0] 0f00000000000
  0x6160	ff ff ff ff ff ff ff ff 00 00 00 00 00 00 00 00 	0000000000000000
  0x6170	00 00 00 00 00 00 00 00 00 00 00 00 00 00 00 00 	0000000000000000
  0x6180	00 00 00 00 00 00 00 00 00 00 00 00 00 00 00 00 	0000000000000000
  0x6190	00 00 00 00 00 00 00 00 00 00 00 00 00 00 00 00 	0000000000000000
  0x61a0	00 00 00 00 00 00 00 00 00 00 00 00 00 00 00 00 	0000000000000000
  0x61b0	00 00 00 00 00 00 00 00 00 00 00 00 00 00 00 00 	0000000000000000
  0x61c0	00 00 00 00 00 00 00 00 00 00 00 00 00 00 00 00 	0000000000000000
  0x61d0	00 00 00 00 00 00 00 00 00 00 00 00 00 00 00 00 	0000000000000000
  0x61e0	00 00 00 00 00 00 00 00 00 00 00 00 00 00 00 00 	0000000000000000
  0x61f0	00 00 00 00 00 00 00 00 00 00 00 00 00 00 00 00 	0000000000000000
=== DATA BLOCK END ===

=== DATA BLOCK ADDRESS 0x7000 ===
  0x7000	08 10 00 00 50 10 00 00 e0 47 00 00 60 10 00 00 	0000P0000G00`000
  0x7010	05 11 00 00 ec 47 00 00 0c 11 00 00 18 13 00 00 	00000G0000000000
  0x7020	fc 47 00 00 20 13 00 00 10 15 00 00 1c 48 00 00 	0G00 00000000H00
  0x7030	20 15 00 00 9d 16 00 00 34 48 00 00 b0 16 00 00 	 00000004H000000
  0x7040	c6 16 00 00 48 48 00 00 d0 16 00 00 70 18 00 00 	0000HH000000p000
  0x7050	50 48 00 00 80 18 00 00 96 18 00 00 48 48 00 00 	PH0000000000HH00
  0x7060	9c 18 00 00 2a 1a 00 00 68 48 00 00 30 1a 00 00 	0000*000hH000000
  0x7070	1b 1b 00 00 80 48 00 00 30 1b 00 00 1b 1c 00 00 	00000H0000000000
  0x7080	80 48 00 00 24 1c 00 00 80 1d 00 00 90 48 00 00 	0H00$00000000H00
  0x7090	90 1d 00 00 bd 20 00 00 a8 48 00 00 d0 20 00 00 	00000 000H000 00
  0x70a0	e6 20 00 00 48 48 00 00 f0 20 00 00 6e 22 00 00 	0 00HH000 00n"00
  0x70b0	c8 48 00 00 74 22 00 00 e0 23 00 00 e4 48 00 00 	0H00t"000#000H00
  0x70c0	e8 23 00 00 52 25 00 00 fc 48 00 00 58 25 00 00 	0#00R%000H00X%00
  0x70d0	6f 26 00 00 08 49 00 00 80 26 00 00 53 27 00 00 	o&000I000&00S'00
  0x70e0	48 48 00 00 60 27 00 00 a9 27 00 00 10 49 00 00 	HH00`'000'000I00
  0x70f0	b0 27 00 00 6e 29 00 00 18 49 00 00 80 29 00 00 	0'00n)000I000)00
  0x7100	92 29 00 00 48 48 00 00 b0 29 00 00 ce 29 00 00 	0)00HH000)000)00
  0x7110	50 49 00 00 e0 29 00 00 19 2a 00 00 48 48 00 00 	PI000)000*00HH00
  0x7120	20 2a 00 00 38 2a 00 00 48 48 00 00 4c 2a 00 00 	 *008*00HH00L*00
  0x7130	a0 2a 00 00 54 49 00 00 a8 2a 00 00 ed 2a 00 00 	0*00TI000*000*00
  0x7140	74 49 00 00 60 2b 00 00 ad 2b 00 00 7c 49 00 00 	tI00`+000+00|I00
  0x7150	f4 2b 00 00 c8 2c 00 00 a0 49 00 00 ec 2c 00 00 	0+000,000I000,00
  0x7160	20 2d 00 00 74 49 00 00 30 2d 00 00 a1 2e 00 00 	 -00tI000-000.00
  0x7170	ac 49 00 00 b8 2e 00 00 d5 2e 00 00 48 48 00 00 	0I000.000.00HH00
  0x7180	dc 2e 00 00 37 2f 00 00 bc 49 00 00 50 2f 00 00 	0.007/000I00P/00
  0x7190	52 2f 00 00 b8 49 00 00 70 2f 00 00 bd 2f 00 00 	R/000I00p/000/00
  0x71a0	c8 49 00 00 c3 2f 00 00 e1 2f 00 00 44 49 00 00 	0I000/000/00DI00
  0x71b0	f0 2f 00 00 10 30 00 00 44 49 00 00 00 00 00 00 	0/000000DI000000
  0x71c0	00 00 00 00 00 00 00 00 00 00 00 00 00 00 00 00 	0000000000000000
  0x71d0	00 00 00 00 00 00 00 00 00 00 00 00 00 00 00 00 	0000000000000000
  0x71e0	00 00 00 00 00 00 00 00 00 00 00 00 00 00 00 00 	0000000000000000
  0x71f0	00 00 00 00 00 00 00 00 00 00 00 00 00 00 00 00 	0000000000000000
=== DATA BLOCK END ===
