===== Assembly blocks =====

=== CODE BLOCK ADDRESS 0x1000 ===
  0x1000	int3   	
  0x1001	int3   	
  0x1002	int3   	
  0x1003	int3   	
  0x1004	int3   	
  === BLOCK LINK ===
    0x1005
=== CODE BLOCK END ===

=== CODE BLOCK ADDRESS 0x1005 ===
  0x1005	int3   	
  0x1006	int3   	
  0x1007	int3   	
  === BLOCK LINK ===
    0x1008
=== CODE BLOCK END ===

=== CODE BLOCK ADDRESS 0x100a ===
  0x100a	push   	ebx
  0x100b	push   	esi
  0x100c	push   	edi
  0x100d	inc    	ecx
  0x100e	push   	esp
  === BLOCK LINK ===
    0x100f
=== CODE BLOCK END ===

=== CODE BLOCK ADDRESS 0x100f ===
  0x100f	inc    	ecx
  0x1010	push   	ebp
  0x1011	inc    	ecx
  0x1012	push   	esi
  0x1013	inc    	ecx
  === BLOCK LINK ===
    0x1014
=== CODE BLOCK END ===

=== CODE BLOCK ADDRESS 0x1014 ===
  0x1014	push   	edi
  0x1015	dec    	eax
  0x1016	lea    	ebp, [esp - 0x1b8]
  0x101d	dec    	eax
  0x101e	sub    	esp, 0x2b8
  === BLOCK LINK ===
    0x1024
=== CODE BLOCK END ===

=== CODE BLOCK ADDRESS 0x1024 ===
  0x1024	dec    	eax
  0x1025	mov    	eax, dword ptr [0x3fdd]
  0x102b	dec    	eax
  0x102c	xor    	eax, esp
  0x102e	dec    	eax
  === BLOCK LINK ===
    0x102f
=== CODE BLOCK END ===

=== CODE BLOCK ADDRESS 0x102f ===
  0x102f	mov    	dword ptr [ebp + 0x1a0], eax
  0x1035	dec    	ebp
  0x1036	mov    	esi, eax
  0x1038	inc    	esp
  0x1039	mov    	ebp, edx
  === BLOCK LINK ===
    0x103b
=== CODE BLOCK END ===

=== CODE BLOCK ADDRESS 0x103b ===
  0x103b	dec    	esp
  0x103c	mov    	esp, ecx
  0x103e	xor    	edx, edx
  0x1040	inc    	ecx
  0x1041	mov    	eax, 0x208
  === BLOCK LINK ===
    0x1046
=== CODE BLOCK END ===

=== CODE BLOCK ADDRESS 0x1046 ===
  0x1046	dec    	eax
  0x1047	lea    	ecx, [ebp - 0x70]
  0x104a	dec    	ebp
  0x104b	mov    	edi, ecx
  0x104d	xor    	edi, edi
  === BLOCK LINK ===
    0x104f
=== CODE BLOCK END ===

=== CODE BLOCK ADDRESS 0x104f ===
  0x104f	call   	0x2629
  === BLOCK LINK ===
    0x1054
    0x2629
=== CODE BLOCK END ===

=== CODE BLOCK ADDRESS 0x1054 ===
  0x1054	dec    	eax
  0x1055	lea    	ecx, [esp + 0x48]
  0x1059	xor    	esi, esi
  0x105b	mov    	ebx, 0x80004005
  0x1060	dec    	eax
  === BLOCK LINK ===
    0x1061
=== CODE BLOCK END ===

=== CODE BLOCK ADDRESS 0x1061 ===
  0x1061	call   	dword ptr [0x21e1]
  === BLOCK LINK ===
    0x1067
=== CODE BLOCK END ===

=== CODE BLOCK ADDRESS 0x1067 ===
  0x1067	nop    	dword ptr [eax + eax]
  0x106c	dec    	eax
  0x106d	lea    	edx, [ebp - 0x70]
  0x1070	mov    	ecx, 0x104
  0x1075	dec    	eax
  === BLOCK LINK ===
    0x1076
=== CODE BLOCK END ===

=== CODE BLOCK ADDRESS 0x1076 ===
  0x1076	call   	dword ptr [0x20ac]
  === BLOCK LINK ===
    0x107c
=== CODE BLOCK END ===

=== CODE BLOCK ADDRESS 0x107c ===
  0x107c	nop    	dword ptr [eax + eax]
  0x1081	test   	eax, eax
  0x1083	je     	0x11fc
  === BLOCK LINK ===
    0x1089
    0x11fc
=== CODE BLOCK END ===

=== CODE BLOCK ADDRESS 0x1089 ===
  0x1089	dec    	ebp
  0x108a	mov    	ecx, esi
  0x108c	dec    	eax
  0x108d	lea    	edx, [0x233d]
  0x1093	inc    	ebp
  === BLOCK LINK ===
    0x1094
=== CODE BLOCK END ===

=== CODE BLOCK ADDRESS 0x1094 ===
  0x1094	xor    	eax, eax
  0x1096	dec    	eax
  0x1097	lea    	ecx, [ebp - 0x70]
  0x109a	dec    	eax
  0x109b	call   	dword ptr [0x208f]
  === BLOCK LINK ===
    0x10a1
=== CODE BLOCK END ===

=== CODE BLOCK ADDRESS 0x10a1 ===
  0x10a1	nop    	dword ptr [eax + eax]
  0x10a6	test   	eax, eax
  0x10a8	je     	0x11fc
  === BLOCK LINK ===
    0x10ae
    0x11fc
=== CODE BLOCK END ===

=== CODE BLOCK ADDRESS 0x10ae ===
  0x10ae	dec    	ecx
  0x10af	mov    	ecx, esi
  0x10b1	dec    	eax
  0x10b2	call   	dword ptr [0x21b0]
  === BLOCK LINK ===
    0x10b8
=== CODE BLOCK END ===

=== CODE BLOCK ADDRESS 0x10b8 ===
  0x10b8	nop    	dword ptr [eax + eax]
  0x10bd	dec    	eax
  0x10be	lea    	edx, [0x2314]
  0x10c4	dec    	ecx
  0x10c5	mov    	ecx, esi
  === BLOCK LINK ===
    0x10c7
=== CODE BLOCK END ===

=== CODE BLOCK ADDRESS 0x10c7 ===
  0x10c7	dec    	eax
  0x10c8	call   	dword ptr [0x21a2]
  === BLOCK LINK ===
    0x10ce
=== CODE BLOCK END ===

=== CODE BLOCK ADDRESS 0x10ce ===
  0x10ce	nop    	dword ptr [eax + eax]
  0x10d3	test   	eax, eax
  0x10d5	je     	0x11fc
  === BLOCK LINK ===
    0x10db
    0x11fc
=== CODE BLOCK END ===

=== CODE BLOCK ADDRESS 0x10db ===
  0x10db	dec    	eax
  0x10dc	and    	dword ptr [esp + 0x30], esi
  0x10e0	inc    	esp
  0x10e1	lea    	eax, [edi + 3]
  0x10e4	mov    	dword ptr [esp + 0x28], 0x80
  === BLOCK LINK ===
    0x10ec
=== CODE BLOCK END ===

=== CODE BLOCK ADDRESS 0x10ec ===
  0x10ec	inc    	ebp
  0x10ed	xor    	ecx, ecx
  0x10ef	mov    	edx, 0x40000000
  0x10f4	mov    	dword ptr [esp + 0x20], 2
  0x10fc	dec    	ecx
  === BLOCK LINK ===
    0x10fd
=== CODE BLOCK END ===

=== CODE BLOCK ADDRESS 0x10fd ===
  0x10fd	mov    	ecx, esi
  0x10ff	dec    	eax
  0x1100	call   	dword ptr [0x2032]
  === BLOCK LINK ===
    0x1106
=== CODE BLOCK END ===

=== CODE BLOCK ADDRESS 0x1106 ===
  0x1106	nop    	dword ptr [eax + eax]
  0x110b	dec    	eax
  0x110c	mov    	esi, eax
  0x110e	dec    	eax
  0x110f	cmp    	eax, -1
  === BLOCK LINK ===
    0x1112
=== CODE BLOCK END ===

=== CODE BLOCK ADDRESS 0x1112 ===
  0x1112	je     	0x121f
  === BLOCK LINK ===
    0x1118
    0x121f
=== CODE BLOCK END ===

=== CODE BLOCK ADDRESS 0x1118 ===
  0x1118	dec    	eax
  0x1119	and    	dword ptr [esp + 0x20], edi
  0x111d	dec    	esp
  0x111e	lea    	ecx, [esp + 0x60]
  0x1122	inc    	ebp
  === BLOCK LINK ===
    0x1123
=== CODE BLOCK END ===

=== CODE BLOCK ADDRESS 0x1123 ===
  0x1123	mov    	eax, ebp
  0x1125	dec    	ecx
  0x1126	mov    	edx, esp
  0x1128	dec    	eax
  0x1129	mov    	ecx, eax
  === BLOCK LINK ===
    0x112b
=== CODE BLOCK END ===

=== CODE BLOCK ADDRESS 0x112b ===
  0x112b	dec    	eax
  0x112c	call   	dword ptr [0x200e]
  === BLOCK LINK ===
    0x1132
=== CODE BLOCK END ===

=== CODE BLOCK ADDRESS 0x1132 ===
  0x1132	nop    	dword ptr [eax + eax]
  0x1137	test   	eax, eax
  0x1139	je     	0x11f6
  === BLOCK LINK ===
    0x113f
    0x11f6
=== CODE BLOCK END ===

=== CODE BLOCK ADDRESS 0x113f ===
  0x113f	dec    	eax
  0x1140	mov    	ecx, esi
  0x1142	dec    	eax
  0x1143	call   	dword ptr [0x1fff]
  === BLOCK LINK ===
    0x1149
=== CODE BLOCK END ===

=== CODE BLOCK ADDRESS 0x1149 ===
  0x1149	nop    	dword ptr [eax + eax]
  0x114e	dec    	ecx
  0x114f	mov    	ecx, esi
  0x1151	dec    	eax
  0x1152	or     	esi, 0xffffffff
  === BLOCK LINK ===
    0x1155
=== CODE BLOCK END ===

=== CODE BLOCK ADDRESS 0x1155 ===
  0x1155	dec    	eax
  0x1156	call   	dword ptr [0x20dc]
  === BLOCK LINK ===
    0x115c
=== CODE BLOCK END ===

=== CODE BLOCK ADDRESS 0x115c ===
  0x115c	nop    	dword ptr [eax + eax]
  0x1161	dec    	eax
  0x1162	mov    	ecx, eax
  0x1164	dec    	eax
  0x1165	mov    	edi, eax
  === BLOCK LINK ===
    0x1167
=== CODE BLOCK END ===

=== CODE BLOCK ADDRESS 0x1167 ===
  0x1167	dec    	eax
  0x1168	call   	dword ptr [0x20c2]
  === BLOCK LINK ===
    0x116e
=== CODE BLOCK END ===

=== CODE BLOCK ADDRESS 0x116e ===
  0x116e	nop    	dword ptr [eax + eax]
  0x1173	test   	eax, eax
  0x1175	jne    	0x1181
  === BLOCK LINK ===
    0x1177
    0x1181
=== CODE BLOCK END ===

=== CODE BLOCK ADDRESS 0x1177 ===
  0x1177	mov    	ebx, 0x8007000e
  0x117c	jmp    	0x120b
  === BLOCK LINK ===
    0x1181
    0x120b
=== CODE BLOCK END ===

=== CODE BLOCK ADDRESS 0x1181 ===
  0x1181	dec    	eax
  0x1182	lea    	ecx, [esp + 0x48]
  0x1186	dec    	eax
  0x1187	call   	dword ptr [0x20b3]
  === BLOCK LINK ===
    0x118d
=== CODE BLOCK END ===

=== CODE BLOCK ADDRESS 0x118d ===
  0x118d	nop    	dword ptr [eax + eax]
  0x1192	mov    	eax, 8
  0x1197	dec    	eax
  0x1198	mov    	ecx, edi
  0x119a	mov    	word ptr [esp + 0x48], ax
  === BLOCK LINK ===
    0x119f
=== CODE BLOCK END ===

=== CODE BLOCK ADDRESS 0x119f ===
  0x119f	dec    	eax
  0x11a0	call   	dword ptr [0x2092]
  === BLOCK LINK ===
    0x11a6
=== CODE BLOCK END ===

=== CODE BLOCK ADDRESS 0x11a6 ===
  0x11a6	nop    	dword ptr [eax + eax]
  0x11ab	dec    	eax
  0x11ac	mov    	dword ptr [esp + 0x50], eax
  0x11b0	dec    	eax
  0x11b1	test   	eax, eax
  === BLOCK LINK ===
    0x11b3
=== CODE BLOCK END ===

=== CODE BLOCK ADDRESS 0x11b3 ===
  0x11b3	jne    	0x11be
  === BLOCK LINK ===
    0x11b5
    0x11be
=== CODE BLOCK END ===

=== CODE BLOCK ADDRESS 0x11b5 ===
  0x11b5	dec    	eax
  0x11b6	test   	edi, edi
  0x11b8	jne    	0x1256
  === BLOCK LINK ===
    0x11be
    0x1256
=== CODE BLOCK END ===

=== CODE BLOCK ADDRESS 0x11be ===
  0x11be	dec    	ecx
  0x11bf	mov    	eax, dword ptr [edi]
  0x11c1	dec    	esp
  0x11c2	lea    	eax, [esp + 0x40]
  0x11c6	movups  	xmm0, xmmword ptr [esp + 0x48]
  === BLOCK LINK ===
    0x11cb
=== CODE BLOCK END ===

=== CODE BLOCK ADDRESS 0x11cb ===
  0x11cb	dec    	eax
  0x11cc	lea    	edx, [esp + 0x70]
  0x11d0	dec    	ecx
  0x11d1	mov    	ecx, edi
  0x11d3	movsd  	xmm1, qword ptr [esp + 0x58]
  === BLOCK LINK ===
    0x11d9
=== CODE BLOCK END ===

=== CODE BLOCK ADDRESS 0x11d9 ===
  0x11d9	dec    	eax
  0x11da	mov    	eax, dword ptr [eax + 0x1d0]
  0x11e0	movaps  	xmmword ptr [esp + 0x70], xmm0
  0x11e5	movsd  	qword ptr [ebp - 0x80], xmm1
  0x11ea	call   	dword ptr [0x2170]
  === BLOCK LINK ===
    0x11f0
=== CODE BLOCK END ===

=== CODE BLOCK ADDRESS 0x11f0 ===
  0x11f0	test   	eax, eax
  0x11f2	jne    	0x120b
  === BLOCK LINK ===
    0x11f4
    0x120b
=== CODE BLOCK END ===

=== CODE BLOCK ADDRESS 0x11f4 ===
  0x11f4	xor    	ebx, ebx
  === BLOCK LINK ===
    0x11f6
    0x120b
=== CODE BLOCK END ===

=== CODE BLOCK ADDRESS 0x11fc ===
  0x11fc	dec    	eax
  0x11fd	mov    	ecx, esi
  0x11ff	dec    	eax
  0x1200	call   	dword ptr [0x1f42]
  === BLOCK LINK ===
    0x1206
=== CODE BLOCK END ===

=== CODE BLOCK ADDRESS 0x1206 ===
  0x1206	nop    	dword ptr [eax + eax]
  === BLOCK LINK ===
    0x120b
    0x121f
=== CODE BLOCK END ===

=== CODE BLOCK ADDRESS 0x1210 ===
  0x1210	dec    	eax
  0x1211	mov    	ecx, edi
  0x1213	dec    	eax
  0x1214	call   	dword ptr [0x200e]
  === BLOCK LINK ===
    0x121a
=== CODE BLOCK END ===

=== CODE BLOCK ADDRESS 0x121a ===
  0x121a	nop    	dword ptr [eax + eax]
  === BLOCK LINK ===
    0x121f
=== CODE BLOCK END ===

=== CODE BLOCK ADDRESS 0x122b ===
  0x122b	nop    	dword ptr [eax + eax]
  0x1230	mov    	eax, ebx
  0x1232	dec    	eax
  0x1233	mov    	ecx, dword ptr [ebp + 0x1a0]
  0x1239	dec    	eax
  === BLOCK LINK ===
    0x123a
=== CODE BLOCK END ===

=== CODE BLOCK ADDRESS 0x123a ===
  0x123a	xor    	ecx, esp
  0x123c	call   	0x2080
  === BLOCK LINK ===
    0x1241
    0x2080
=== CODE BLOCK END ===

=== CODE BLOCK ADDRESS 0x1241 ===
  0x1241	dec    	eax
  0x1242	add    	esp, 0x2b8
  0x1248	inc    	ecx
  0x1249	pop    	edi
  0x124a	inc    	ecx
  === BLOCK LINK ===
    0x124b
=== CODE BLOCK END ===

=== CODE BLOCK ADDRESS 0x124b ===
  0x124b	pop    	esi
  0x124c	inc    	ecx
  0x124d	pop    	ebp
  0x124e	inc    	ecx
  0x124f	pop    	esp
  === BLOCK LINK ===
    0x1250
=== CODE BLOCK END ===

=== CODE BLOCK ADDRESS 0x1250 ===
  0x1250	pop    	edi
  0x1251	pop    	esi
  0x1252	pop    	ebx
  0x1253	pop    	ebp
  0x1254	ret    	
  === BLOCK LINK ===
    0x1255
=== CODE BLOCK END ===

=== CODE BLOCK ADDRESS 0x2629 ===
=== CODE BLOCK END ===

=== CODE BLOCK ADDRESS 0x1255 ===
  0x1255	int3   	
  === BLOCK LINK ===
    0x1256
=== CODE BLOCK END ===

=== CODE BLOCK ADDRESS 0x1269 ===
  0x1269	call   	0x1c84
  === BLOCK LINK ===
    0x126e
    0x1c84
=== CODE BLOCK END ===

=== CODE BLOCK ADDRESS 0x126e ===
  0x126e	int3   	
  0x126f	int3   	
  0x1270	int3   	
  0x1271	int3   	
  0x1272	int3   	
  === BLOCK LINK ===
    0x1273
=== CODE BLOCK END ===

=== CODE BLOCK ADDRESS 0x1273 ===
  0x1273	int3   	
  0x1274	int3   	
  0x1275	int3   	
  0x1276	int3   	
  0x1277	int3   	
  === BLOCK LINK ===
    0x1278
=== CODE BLOCK END ===

=== CODE BLOCK ADDRESS 0x1278 ===
  0x1278	dec    	eax
  0x1279	mov    	dword ptr [esp + 8], ebx
  0x127d	dec    	eax
  0x127e	mov    	dword ptr [esp + 0x10], ebp
  0x1282	dec    	eax
  === BLOCK LINK ===
    0x1283
=== CODE BLOCK END ===

=== CODE BLOCK ADDRESS 0x1283 ===
  0x1283	mov    	dword ptr [esp + 0x18], esi
  0x1287	push   	edi
  0x1288	inc    	ecx
  0x1289	push   	esp
  0x128a	inc    	ecx
  === BLOCK LINK ===
    0x128b
=== CODE BLOCK END ===

=== CODE BLOCK ADDRESS 0x128b ===
  0x128b	push   	ebp
  0x128c	inc    	ecx
  0x128d	push   	esi
  0x128e	inc    	ecx
  0x128f	push   	edi
  === BLOCK LINK ===
    0x1290
=== CODE BLOCK END ===

=== CODE BLOCK ADDRESS 0x1290 ===
  0x1290	dec    	eax
  0x1291	sub    	esp, 0x20
  0x1294	xor    	ecx, ecx
  0x1296	dec    	ebp
  0x1297	mov    	esp, eax
  === BLOCK LINK ===
    0x1299
=== CODE BLOCK END ===

=== CODE BLOCK ADDRESS 0x1299 ===
  0x1299	dec    	esp
  0x129a	mov    	ebp, edx
  0x129c	mov    	ebx, 0x80004005
  0x12a1	dec    	eax
  0x12a2	call   	dword ptr [0x1ec0]
  === BLOCK LINK ===
    0x12a8
=== CODE BLOCK END ===

=== CODE BLOCK ADDRESS 0x12a8 ===
  0x12a8	nop    	dword ptr [eax + eax]
  0x12ad	xor    	ebp, ebp
  0x12af	dec    	eax
  0x12b0	mov    	esi, eax
  0x12b2	dec    	eax
  === BLOCK LINK ===
    0x12b3
=== CODE BLOCK END ===

=== CODE BLOCK ADDRESS 0x12b3 ===
  0x12b3	test   	eax, eax
  0x12b5	jne    	0x12d6
  === BLOCK LINK ===
    0x12b7
    0x12d6
=== CODE BLOCK END ===

=== CODE BLOCK ADDRESS 0x12b7 ===
  0x12b7	dec    	eax
  0x12b8	call   	dword ptr [0x1eb2]
  === BLOCK LINK ===
    0x12be
=== CODE BLOCK END ===

=== CODE BLOCK ADDRESS 0x12be ===
  0x12be	nop    	dword ptr [eax + eax]
  0x12c3	movzx  	ebx, ax
  0x12c6	or     	ebx, 0x80070000
  0x12cc	test   	eax, eax
  0x12ce	cmovle  	ebx, eax
  === BLOCK LINK ===
    0x12d1
=== CODE BLOCK END ===

=== CODE BLOCK ADDRESS 0x12d1 ===
  0x12d1	jmp    	0x13d2
  === BLOCK LINK ===
    0x12d6
    0x13d2
=== CODE BLOCK END ===

=== CODE BLOCK ADDRESS 0x12d6 ===
  0x12d6	mov    	edx, 0x65
  0x12db	xor    	ecx, ecx
  0x12dd	inc    	esp
  0x12de	lea    	eax, [edx - 0x5b]
  0x12e1	dec    	eax
  === BLOCK LINK ===
    0x12e2
=== CODE BLOCK END ===

=== CODE BLOCK ADDRESS 0x12e2 ===
  0x12e2	call   	dword ptr [0x1e90]
  === BLOCK LINK ===
    0x12e8
=== CODE BLOCK END ===

=== CODE BLOCK ADDRESS 0x12e8 ===
  0x12e8	nop    	dword ptr [eax + eax]
  0x12ed	dec    	eax
  0x12ee	mov    	edi, eax
  0x12f0	dec    	eax
  0x12f1	test   	eax, eax
  === BLOCK LINK ===
    0x12f3
=== CODE BLOCK END ===

=== CODE BLOCK ADDRESS 0x12f3 ===
  0x12f3	je     	0x12b7
  === BLOCK LINK ===
    0x12f5
    0x12b7
=== CODE BLOCK END ===

=== CODE BLOCK ADDRESS 0x12f5 ===
  0x12f5	dec    	eax
  0x12f6	mov    	edx, eax
  0x12f8	dec    	eax
  0x12f9	mov    	ecx, esi
  0x12fb	dec    	eax
  === BLOCK LINK ===
    0x12fc
=== CODE BLOCK END ===

=== CODE BLOCK ADDRESS 0x12fc ===
  0x12fc	call   	dword ptr [0x1e7e]
  === BLOCK LINK ===
    0x1302
=== CODE BLOCK END ===

=== CODE BLOCK ADDRESS 0x1302 ===
  0x1302	nop    	dword ptr [eax + eax]
  0x1307	inc    	esp
  0x1308	mov    	esi, eax
  0x130a	test   	eax, eax
  0x130c	je     	0x12b7
  === BLOCK LINK ===
    0x130e
    0x12b7
=== CODE BLOCK END ===

=== CODE BLOCK ADDRESS 0x130e ===
  0x130e	dec    	eax
  0x130f	call   	dword ptr [0x1e4b]
  === BLOCK LINK ===
    0x1315
=== CODE BLOCK END ===

=== CODE BLOCK ADDRESS 0x1315 ===
  0x1315	nop    	dword ptr [eax + eax]
  0x131a	inc    	ebp
  0x131b	mov    	eax, esi
  0x131d	mov    	edx, 8
  0x1322	dec    	eax
  === BLOCK LINK ===
    0x1323
=== CODE BLOCK END ===

=== CODE BLOCK ADDRESS 0x1323 ===
  0x1323	mov    	ecx, eax
  0x1325	dec    	eax
  0x1326	call   	dword ptr [0x1e5c]
  === BLOCK LINK ===
    0x132c
=== CODE BLOCK END ===

=== CODE BLOCK ADDRESS 0x132c ===
  0x132c	nop    	dword ptr [eax + eax]
  0x1331	dec    	eax
  0x1332	mov    	ebp, eax
  0x1334	dec    	eax
  0x1335	test   	eax, eax
  === BLOCK LINK ===
    0x1337
=== CODE BLOCK END ===

=== CODE BLOCK ADDRESS 0x1337 ===
  0x1337	jne    	0x1343
  === BLOCK LINK ===
    0x1339
    0x1343
=== CODE BLOCK END ===

=== CODE BLOCK ADDRESS 0x1339 ===
  0x1339	mov    	ebx, 0x8007000e
  0x133e	jmp    	0x13d2
  === BLOCK LINK ===
    0x1343
    0x13d2
=== CODE BLOCK END ===

=== CODE BLOCK ADDRESS 0x1343 ===
  0x1343	dec    	eax
  0x1344	mov    	edx, edi
  0x1346	dec    	eax
  0x1347	mov    	ecx, esi
  0x1349	dec    	eax
  === BLOCK LINK ===
    0x134a
=== CODE BLOCK END ===

=== CODE BLOCK ADDRESS 0x134a ===
  0x134a	call   	dword ptr [0x1e40]
  === BLOCK LINK ===
    0x1350
=== CODE BLOCK END ===

=== CODE BLOCK ADDRESS 0x1350 ===
  0x1350	nop    	dword ptr [eax + eax]
  0x1355	xor    	edi, edi
  0x1357	dec    	eax
  0x1358	test   	eax, eax
  0x135a	jne    	0x1378
  === BLOCK LINK ===
    0x135c
    0x1378
=== CODE BLOCK END ===

=== CODE BLOCK ADDRESS 0x135c ===
  0x135c	dec    	eax
  0x135d	call   	dword ptr [0x1e0d]
  === BLOCK LINK ===
    0x1363
=== CODE BLOCK END ===

=== CODE BLOCK ADDRESS 0x1363 ===
  0x1363	nop    	dword ptr [eax + eax]
  0x1368	movzx  	ebx, ax
  0x136b	or     	ebx, 0x80070000
  0x1371	test   	eax, eax
  0x1373	cmovle  	ebx, eax
  === BLOCK LINK ===
    0x1376
=== CODE BLOCK END ===

=== CODE BLOCK ADDRESS 0x1376 ===
  0x1376	jmp    	0x13b2
  === BLOCK LINK ===
    0x1378
    0x13b2
=== CODE BLOCK END ===

=== CODE BLOCK ADDRESS 0x1378 ===
  0x1378	dec    	eax
  0x1379	mov    	ecx, eax
  0x137b	dec    	eax
  0x137c	call   	dword ptr [0x1e16]
  === BLOCK LINK ===
    0x1382
=== CODE BLOCK END ===

=== CODE BLOCK ADDRESS 0x1382 ===
  0x1382	nop    	dword ptr [eax + eax]
  0x1387	dec    	eax
  0x1388	test   	eax, eax
  0x138a	je     	0x13b2
  === BLOCK LINK ===
    0x138c
    0x13b2
=== CODE BLOCK END ===

=== CODE BLOCK ADDRESS 0x138c ===
  0x138c	dec    	ebp
  0x138d	mov    	eax, esi
  0x138f	dec    	eax
  0x1390	mov    	edx, eax
  0x1392	dec    	eax
  === BLOCK LINK ===
    0x1393
=== CODE BLOCK END ===

=== CODE BLOCK ADDRESS 0x1393 ===
  0x1393	mov    	ecx, ebp
  0x1395	call   	0x261d
  === BLOCK LINK ===
    0x139a
    0x261d
=== CODE BLOCK END ===

=== CODE BLOCK ADDRESS 0x139a ===
  0x139a	dec    	ebp
  0x139b	mov    	ecx, esp
  0x139d	dec    	ebp
  0x139e	mov    	eax, ebp
  0x13a0	inc    	ecx
  === BLOCK LINK ===
    0x13a1
=== CODE BLOCK END ===

=== CODE BLOCK ADDRESS 0x13a1 ===
  0x13a1	mov    	edx, esi
  0x13a3	dec    	eax
  0x13a4	mov    	ecx, ebp
  0x13a6	call   	0x1008
  === BLOCK LINK ===
    0x13ab
    0x1008
=== CODE BLOCK END ===

=== CODE BLOCK ADDRESS 0x13ab ===
  0x13ab	test   	eax, eax
  0x13ad	mov    	ebx, eax
  0x13af	cmovns  	ebx, edi
  === BLOCK LINK ===
    0x13b2
=== CODE BLOCK END ===

=== CODE BLOCK ADDRESS 0x13b9 ===
  0x13b9	nop    	dword ptr [eax + eax]
  0x13be	dec    	esp
  0x13bf	mov    	eax, ebp
  0x13c1	xor    	edx, edx
  0x13c3	dec    	eax
  === BLOCK LINK ===
    0x13c4
=== CODE BLOCK END ===

=== CODE BLOCK ADDRESS 0x13c4 ===
  0x13c4	mov    	ecx, eax
  0x13c6	dec    	eax
  0x13c7	call   	dword ptr [0x1d8b]
  === BLOCK LINK ===
    0x13cd
=== CODE BLOCK END ===

=== CODE BLOCK ADDRESS 0x13cd ===
  0x13cd	nop    	dword ptr [eax + eax]
  === BLOCK LINK ===
    0x13d2
=== CODE BLOCK END ===

=== CODE BLOCK ADDRESS 0x13da ===
  0x13da	mov    	ebx, dword ptr [esp + 0x50]
  0x13de	dec    	eax
  0x13df	mov    	esi, dword ptr [esp + 0x60]
  0x13e3	dec    	eax
  0x13e4	add    	esp, 0x20
  === BLOCK LINK ===
    0x13e7
=== CODE BLOCK END ===

=== CODE BLOCK ADDRESS 0x13e7 ===
  0x13e7	inc    	ecx
  0x13e8	pop    	edi
  0x13e9	inc    	ecx
  0x13ea	pop    	esi
  0x13eb	inc    	ecx
  === BLOCK LINK ===
    0x13ec
=== CODE BLOCK END ===

=== CODE BLOCK ADDRESS 0x13ec ===
  0x13ec	pop    	ebp
  0x13ed	inc    	ecx
  0x13ee	pop    	esp
  0x13ef	pop    	edi
  0x13f0	ret    	
  === BLOCK LINK ===
    0x13f1
=== CODE BLOCK END ===

=== CODE BLOCK ADDRESS 0x13f1 ===
  0x13f1	int3   	
  0x13f2	int3   	
  0x13f3	int3   	
  0x13f4	int3   	
  0x13f5	int3   	
  === BLOCK LINK ===
    0x13f6
=== CODE BLOCK END ===

=== CODE BLOCK ADDRESS 0x13f6 ===
  0x13f6	int3   	
  0x13f7	int3   	
  0x13f8	dec    	eax
  0x13f9	mov    	dword ptr [esp + 8], ebx
  0x13fd	dec    	eax
  === BLOCK LINK ===
    0x13fe
=== CODE BLOCK END ===

=== CODE BLOCK ADDRESS 0x13fe ===
  0x13fe	mov    	dword ptr [esp + 0x10], esi
  0x1402	dec    	eax
  0x1403	mov    	dword ptr [esp + 0x18], edi
  0x1407	push   	ebp
  0x1408	inc    	ecx
  === BLOCK LINK ===
    0x1409
=== CODE BLOCK END ===

=== CODE BLOCK ADDRESS 0x1409 ===
  0x1409	push   	esp
  0x140a	inc    	ecx
  0x140b	push   	esi
  0x140c	dec    	eax
  0x140d	mov    	ebp, esp
  === BLOCK LINK ===
    0x140f
=== CODE BLOCK END ===

=== CODE BLOCK ADDRESS 0x140f ===
  0x140f	dec    	eax
  0x1410	sub    	esp, 0x60
  0x1413	dec    	eax
  0x1414	mov    	ebx, ecx
  0x1416	dec    	ecx
  === BLOCK LINK ===
    0x1417
=== CODE BLOCK END ===

=== CODE BLOCK ADDRESS 0x1417 ===
  0x1417	mov    	esi, eax
  0x1419	dec    	eax
  0x141a	lea    	ecx, [ebp - 0x40]
  0x141d	dec    	esp
  0x141e	mov    	esi, edx
  === BLOCK LINK ===
    0x1420
=== CODE BLOCK END ===

=== CODE BLOCK ADDRESS 0x1420 ===
  0x1420	dec    	eax
  0x1421	call   	dword ptr [0x1e21]
  === BLOCK LINK ===
    0x1427
=== CODE BLOCK END ===

=== CODE BLOCK ADDRESS 0x1427 ===
  0x1427	nop    	dword ptr [eax + eax]
  0x142c	dec    	eax
  0x142d	and    	dword ptr [ebp + 0x38], 0
  0x1431	dec    	eax
  0x1432	lea    	ecx, [0x1fb8]
  === BLOCK LINK ===
    0x1438
=== CODE BLOCK END ===

=== CODE BLOCK ADDRESS 0x1438 ===
  0x1438	dec    	eax
  0x1439	call   	dword ptr [0x1df9]
  === BLOCK LINK ===
    0x143f
=== CODE BLOCK END ===

=== CODE BLOCK ADDRESS 0x143f ===
  0x143f	nop    	dword ptr [eax + eax]
  0x1444	dec    	eax
  0x1445	mov    	ecx, eax
  0x1447	dec    	eax
  0x1448	mov    	edi, eax
  === BLOCK LINK ===
    0x144a
=== CODE BLOCK END ===

=== CODE BLOCK ADDRESS 0x144a ===
  0x144a	dec    	eax
  0x144b	call   	dword ptr [0x1ddf]
  === BLOCK LINK ===
    0x1451
=== CODE BLOCK END ===

=== CODE BLOCK ADDRESS 0x1451 ===
  0x1451	nop    	dword ptr [eax + eax]
  0x1456	test   	eax, eax
  0x1458	jne    	0x1464
  === BLOCK LINK ===
    0x145a
    0x1464
=== CODE BLOCK END ===

=== CODE BLOCK ADDRESS 0x145a ===
  0x145a	mov    	ebx, 0x8007000e
  0x145f	jmp    	0x15f5
  === BLOCK LINK ===
    0x1464
=== CODE BLOCK END ===

=== CODE BLOCK ADDRESS 0x1464 ===
  0x1464	dec    	eax
  0x1465	mov    	eax, dword ptr [esi]
  0x1467	dec    	esp
  0x1468	lea    	eax, [ebp + 0x38]
  0x146b	dec    	eax
  === BLOCK LINK ===
    0x146c
=== CODE BLOCK END ===

=== CODE BLOCK ADDRESS 0x146c ===
  0x146c	mov    	edx, edi
  0x146e	dec    	eax
  0x146f	mov    	ecx, esi
  0x1471	dec    	eax
  0x1472	mov    	eax, dword ptr [eax + 0x128]
  === BLOCK LINK ===
    0x1478
=== CODE BLOCK END ===

=== CODE BLOCK ADDRESS 0x1478 ===
  0x1478	call   	dword ptr [0x1ee2]
  === BLOCK LINK ===
    0x147e
=== CODE BLOCK END ===

=== CODE BLOCK ADDRESS 0x147e ===
  0x147e	test   	eax, eax
  0x1480	jne    	0x15f0
  === BLOCK LINK ===
    0x1486
=== CODE BLOCK END ===

=== CODE BLOCK ADDRESS 0x1486 ===
  0x1486	dec    	eax
  0x1487	cmp    	dword ptr [ebp + 0x38], 0
  0x148b	je     	0x15f0
  === BLOCK LINK ===
    0x1491
=== CODE BLOCK END ===

=== CODE BLOCK ADDRESS 0x1491 ===
  0x1491	dec    	eax
  0x1492	lea    	ecx, [ebp - 0x40]
  0x1495	dec    	eax
  0x1496	call   	dword ptr [0x1da4]
  === BLOCK LINK ===
    0x149c
=== CODE BLOCK END ===

=== CODE BLOCK ADDRESS 0x149c ===
  0x149c	nop    	dword ptr [eax + eax]
  0x14a1	inc    	ecx
  0x14a2	mov    	esp, 8
  0x14a7	dec    	eax
  0x14a8	mov    	ecx, ebx
  === BLOCK LINK ===
    0x14aa
=== CODE BLOCK END ===

=== CODE BLOCK ADDRESS 0x14aa ===
  0x14aa	inc    	sp
  0x14ac	mov    	dword ptr [ebp - 0x40], esp
  0x14af	dec    	eax
  0x14b0	call   	dword ptr [0x1d82]
  === BLOCK LINK ===
    0x14b6
=== CODE BLOCK END ===

=== CODE BLOCK ADDRESS 0x14b6 ===
  0x14b6	nop    	dword ptr [eax + eax]
  0x14bb	dec    	eax
  0x14bc	mov    	dword ptr [ebp - 0x38], eax
  0x14bf	dec    	eax
  0x14c0	test   	eax, eax
  === BLOCK LINK ===
    0x14c2
=== CODE BLOCK END ===

=== CODE BLOCK ADDRESS 0x14c2 ===
  0x14c2	jne    	0x14cd
  === BLOCK LINK ===
    0x14c4
=== CODE BLOCK END ===

=== CODE BLOCK ADDRESS 0x14c4 ===
  0x14c4	dec    	eax
  0x14c5	test   	ebx, ebx
  0x14c7	jne    	0x1668
  === BLOCK LINK ===
    0x14cd
=== CODE BLOCK END ===

=== CODE BLOCK ADDRESS 0x14cd ===
  0x14cd	dec    	eax
  0x14ce	mov    	ecx, dword ptr [ebp + 0x38]
  0x14d1	dec    	eax
  0x14d2	lea    	edx, [ebp - 0x20]
  0x14d5	movups  	xmm0, xmmword ptr [ebp - 0x40]
  === BLOCK LINK ===
    0x14d9
=== CODE BLOCK END ===

=== CODE BLOCK ADDRESS 0x14d9 ===
  0x14d9	movsd  	xmm1, qword ptr [ebp - 0x30]
  0x14de	dec    	eax
  0x14df	mov    	eax, dword ptr [ecx]
  0x14e1	movaps  	xmmword ptr [ebp - 0x20], xmm0
  0x14e5	movsd  	qword ptr [ebp - 0x10], xmm1
  === BLOCK LINK ===
    0x14ea
=== CODE BLOCK END ===

=== CODE BLOCK ADDRESS 0x14ea ===
  0x14ea	dec    	eax
  0x14eb	mov    	eax, dword ptr [eax + 0xf8]
  0x14f1	call   	dword ptr [0x1e69]
  === BLOCK LINK ===
    0x14f7
=== CODE BLOCK END ===

=== CODE BLOCK ADDRESS 0x14f7 ===
  0x14f7	mov    	ebx, eax
  0x14f9	test   	eax, eax
  0x14fb	js     	0x15f5
  === BLOCK LINK ===
    0x1501
=== CODE BLOCK END ===

=== CODE BLOCK ADDRESS 0x1501 ===
  0x1501	dec    	ebp
  0x1502	test   	esi, esi
  0x1504	je     	0x15ec
  === BLOCK LINK ===
    0x150a
=== CODE BLOCK END ===

=== CODE BLOCK ADDRESS 0x150a ===
  0x150a	dec    	eax
  0x150b	test   	edi, edi
  0x150d	je     	0x151e
  === BLOCK LINK ===
    0x150f
=== CODE BLOCK END ===

=== CODE BLOCK ADDRESS 0x150f ===
  0x150f	dec    	eax
  0x1510	mov    	ecx, edi
  0x1512	dec    	eax
  0x1513	call   	dword ptr [0x1d0f]
  === BLOCK LINK ===
    0x1519
=== CODE BLOCK END ===

=== CODE BLOCK ADDRESS 0x1519 ===
  0x1519	nop    	dword ptr [eax + eax]
  0x151e	dec    	eax
  0x151f	mov    	ecx, dword ptr [ebp + 0x38]
  0x1522	dec    	eax
  0x1523	test   	ecx, ecx
  === BLOCK LINK ===
    0x1525
=== CODE BLOCK END ===

=== CODE BLOCK ADDRESS 0x1525 ===
  0x1525	je     	0x1539
  === BLOCK LINK ===
    0x1527
=== CODE BLOCK END ===

=== CODE BLOCK ADDRESS 0x1527 ===
  0x1527	dec    	eax
  0x1528	mov    	eax, dword ptr [ecx]
  0x152a	dec    	eax
  0x152b	mov    	eax, dword ptr [eax + 0x10]
  0x152e	call   	dword ptr [0x1e2c]
  === BLOCK LINK ===
    0x1534
=== CODE BLOCK END ===

=== CODE BLOCK ADDRESS 0x1534 ===
  0x1534	dec    	eax
  0x1535	and    	dword ptr [ebp + 0x38], 0
  0x1539	dec    	eax
  0x153a	lea    	ecx, [0x1f20]
  0x1540	dec    	eax
  === BLOCK LINK ===
    0x1541
=== CODE BLOCK END ===

=== CODE BLOCK ADDRESS 0x1541 ===
  0x1541	call   	dword ptr [0x1cf1]
  === BLOCK LINK ===
    0x1547
=== CODE BLOCK END ===

=== CODE BLOCK ADDRESS 0x1547 ===
  0x1547	nop    	dword ptr [eax + eax]
  0x154c	dec    	eax
  0x154d	mov    	ecx, eax
  0x154f	dec    	eax
  0x1550	mov    	edi, eax
  === BLOCK LINK ===
    0x1552
=== CODE BLOCK END ===

=== CODE BLOCK ADDRESS 0x1552 ===
  0x1552	dec    	eax
  0x1553	call   	dword ptr [0x1cd7]
  === BLOCK LINK ===
    0x1559
=== CODE BLOCK END ===

=== CODE BLOCK ADDRESS 0x1559 ===
  0x1559	nop    	dword ptr [eax + eax]
  0x155e	test   	eax, eax
  0x1560	je     	0x145a
  === BLOCK LINK ===
    0x1566
=== CODE BLOCK END ===

=== CODE BLOCK ADDRESS 0x1566 ===
  0x1566	dec    	eax
  0x1567	mov    	eax, dword ptr [esi]
  0x1569	dec    	esp
  0x156a	lea    	eax, [ebp + 0x38]
  0x156d	dec    	eax
  === BLOCK LINK ===
    0x156e
=== CODE BLOCK END ===

=== CODE BLOCK ADDRESS 0x156e ===
  0x156e	mov    	edx, edi
  0x1570	dec    	eax
  0x1571	mov    	ecx, esi
  0x1573	dec    	eax
  0x1574	mov    	eax, dword ptr [eax + 0x128]
  === BLOCK LINK ===
    0x157a
=== CODE BLOCK END ===

=== CODE BLOCK ADDRESS 0x157a ===
  0x157a	call   	dword ptr [0x1de0]
  === BLOCK LINK ===
    0x1580
=== CODE BLOCK END ===

=== CODE BLOCK ADDRESS 0x1580 ===
  0x1580	test   	eax, eax
  0x1582	jne    	0x15f0
  === BLOCK LINK ===
    0x1584
=== CODE BLOCK END ===

=== CODE BLOCK ADDRESS 0x1584 ===
  0x1584	dec    	eax
  0x1585	cmp    	dword ptr [ebp + 0x38], 0
  0x1589	je     	0x15f0
  === BLOCK LINK ===
    0x158b
=== CODE BLOCK END ===

=== CODE BLOCK ADDRESS 0x158b ===
  0x158b	dec    	eax
  0x158c	lea    	ecx, [ebp - 0x40]
  0x158f	dec    	eax
  0x1590	call   	dword ptr [0x1caa]
  === BLOCK LINK ===
    0x1596
=== CODE BLOCK END ===

=== CODE BLOCK ADDRESS 0x1596 ===
  0x1596	nop    	dword ptr [eax + eax]
  0x159b	dec    	ecx
  0x159c	mov    	ecx, esi
  0x159e	inc    	sp
  0x15a0	mov    	dword ptr [ebp - 0x40], esp
  === BLOCK LINK ===
    0x15a3
=== CODE BLOCK END ===

=== CODE BLOCK ADDRESS 0x15a3 ===
  0x15a3	dec    	eax
  0x15a4	call   	dword ptr [0x1c8e]
  === BLOCK LINK ===
    0x15aa
=== CODE BLOCK END ===

=== CODE BLOCK ADDRESS 0x15aa ===
  0x15aa	nop    	dword ptr [eax + eax]
  0x15af	dec    	eax
  0x15b0	mov    	dword ptr [ebp - 0x38], eax
  0x15b3	dec    	eax
  0x15b4	test   	eax, eax
  === BLOCK LINK ===
    0x15b6
=== CODE BLOCK END ===

=== CODE BLOCK ADDRESS 0x15b6 ===
  0x15b6	je     	0x1651
  === BLOCK LINK ===
    0x15bc
=== CODE BLOCK END ===

=== CODE BLOCK ADDRESS 0x15bc ===
  0x15bc	dec    	eax
  0x15bd	mov    	ecx, dword ptr [ebp + 0x38]
  0x15c0	dec    	eax
  0x15c1	lea    	edx, [ebp - 0x20]
  0x15c4	movups  	xmm0, xmmword ptr [ebp - 0x40]
  === BLOCK LINK ===
    0x15c8
=== CODE BLOCK END ===

=== CODE BLOCK ADDRESS 0x15c8 ===
  0x15c8	movsd  	xmm1, qword ptr [ebp - 0x30]
  0x15cd	dec    	eax
  0x15ce	mov    	eax, dword ptr [ecx]
  0x15d0	movaps  	xmmword ptr [ebp - 0x20], xmm0
  0x15d4	movsd  	qword ptr [ebp - 0x10], xmm1
  === BLOCK LINK ===
    0x15d9
=== CODE BLOCK END ===

=== CODE BLOCK ADDRESS 0x15d9 ===
  0x15d9	dec    	eax
  0x15da	mov    	eax, dword ptr [eax + 0xf8]
  0x15e0	call   	dword ptr [0x1d7a]
  === BLOCK LINK ===
    0x15e6
=== CODE BLOCK END ===

=== CODE BLOCK ADDRESS 0x15e6 ===
  0x15e6	mov    	ebx, eax
  0x15e8	test   	eax, eax
  0x15ea	js     	0x15f5
  === BLOCK LINK ===
    0x15ec
=== CODE BLOCK END ===

=== CODE BLOCK ADDRESS 0x15ec ===
  0x15ec	xor    	ebx, ebx
  0x15ee	jmp    	0x15f5
  === BLOCK LINK ===
    0x15f0
=== CODE BLOCK END ===

=== CODE BLOCK ADDRESS 0x15f0 ===
  0x15f0	mov    	ebx, 0x80004005
  0x15f5	dec    	eax
  0x15f6	test   	edi, edi
  0x15f8	je     	0x1609
  === BLOCK LINK ===
    0x15fa
=== CODE BLOCK END ===

=== CODE BLOCK ADDRESS 0x15fa ===
  0x15fa	dec    	eax
  0x15fb	mov    	ecx, edi
  0x15fd	dec    	eax
  0x15fe	call   	dword ptr [0x1c24]
  === BLOCK LINK ===
    0x1604
=== CODE BLOCK END ===

=== CODE BLOCK ADDRESS 0x1604 ===
  0x1604	nop    	dword ptr [eax + eax]
  0x1609	dec    	eax
  0x160a	mov    	ecx, dword ptr [ebp + 0x38]
  0x160d	dec    	eax
  0x160e	test   	ecx, ecx
  === BLOCK LINK ===
    0x1610
=== CODE BLOCK END ===

=== CODE BLOCK ADDRESS 0x1610 ===
  0x1610	je     	0x1624
  === BLOCK LINK ===
    0x1612
=== CODE BLOCK END ===

=== CODE BLOCK ADDRESS 0x1612 ===
  0x1612	dec    	eax
  0x1613	mov    	eax, dword ptr [ecx]
  0x1615	dec    	eax
  0x1616	mov    	eax, dword ptr [eax + 0x10]
  0x1619	call   	dword ptr [0x1d41]
  === BLOCK LINK ===
    0x161f
=== CODE BLOCK END ===

=== CODE BLOCK ADDRESS 0x161f ===
  0x161f	dec    	eax
  0x1620	and    	dword ptr [ebp + 0x38], 0
  0x1624	dec    	eax
  0x1625	lea    	ecx, [ebp - 0x40]
  0x1628	dec    	eax
  === BLOCK LINK ===
    0x1629
=== CODE BLOCK END ===

=== CODE BLOCK ADDRESS 0x1629 ===
  0x1629	call   	dword ptr [0x1c11]
  === BLOCK LINK ===
    0x162f
=== CODE BLOCK END ===

=== CODE BLOCK ADDRESS 0x162f ===
  0x162f	nop    	dword ptr [eax + eax]
  0x1634	dec    	esp
  0x1635	lea    	ebx, [esp + 0x60]
  0x1639	mov    	eax, ebx
  0x163b	dec    	ecx
  === BLOCK LINK ===
    0x163c
=== CODE BLOCK END ===

=== CODE BLOCK ADDRESS 0x163c ===
  0x163c	mov    	ebx, dword ptr [ebx + 0x20]
  0x163f	dec    	ecx
  0x1640	mov    	esi, dword ptr [ebx + 0x28]
  0x1643	dec    	ecx
  0x1644	mov    	edi, dword ptr [ebx + 0x30]
  === BLOCK LINK ===
    0x1647
=== CODE BLOCK END ===

=== CODE BLOCK ADDRESS 0x1647 ===
  0x1647	dec    	ecx
  0x1648	mov    	esp, ebx
  0x164a	inc    	ecx
  0x164b	pop    	esi
  0x164c	inc    	ecx
  === BLOCK LINK ===
    0x164d
=== CODE BLOCK END ===

=== CODE BLOCK ADDRESS 0x164d ===
  0x164d	pop    	esp
  0x164e	pop    	ebp
  0x164f	ret    	
  0x1650	int3   	
  0x1651	mov    	eax, 0xa
  === BLOCK LINK ===
    0x1656
=== CODE BLOCK END ===

=== CODE BLOCK ADDRESS 0x1656 ===
  0x1656	mov    	ebx, 0x8007000e
  0x165b	mov    	word ptr [ebp - 0x40], ax
  0x165f	mov    	dword ptr [ebp - 0x38], ebx
  0x1662	call   	0x1c84
  === BLOCK LINK ===
    0x1667
=== CODE BLOCK END ===

=== CODE BLOCK ADDRESS 0x1667 ===
  0x1667	int3   	
  0x1668	mov    	eax, 0xa
  0x166d	mov    	ebx, 0x8007000e
  0x1672	mov    	word ptr [ebp - 0x40], ax
  0x1676	mov    	dword ptr [ebp - 0x38], ebx
  === BLOCK LINK ===
    0x1679
=== CODE BLOCK END ===

=== CODE BLOCK ADDRESS 0x1679 ===
  0x1679	call   	0x1c84
  === BLOCK LINK ===
    0x167e
=== CODE BLOCK END ===

=== CODE BLOCK ADDRESS 0x167e ===
  0x167e	int3   	
  0x167f	int3   	
  0x1680	int3   	
  0x1681	int3   	
  0x1682	int3   	
  === BLOCK LINK ===
    0x1683
=== CODE BLOCK END ===

=== CODE BLOCK ADDRESS 0x1683 ===
  0x1683	int3   	
  0x1684	int3   	
  0x1685	int3   	
  0x1686	int3   	
  0x1687	int3   	
  === BLOCK LINK ===
    0x1688
=== CODE BLOCK END ===

=== CODE BLOCK ADDRESS 0x1688 ===
  0x1688	dec    	eax
  0x1689	mov    	eax, esp
  0x168b	dec    	eax
  0x168c	mov    	dword ptr [eax + 8], ebx
  0x168f	dec    	eax
  === BLOCK LINK ===
    0x1690
=== CODE BLOCK END ===

=== CODE BLOCK ADDRESS 0x1690 ===
  0x1690	mov    	dword ptr [eax + 0x10], esi
  0x1693	dec    	eax
  0x1694	mov    	dword ptr [eax + 0x18], edi
  0x1697	dec    	esp
  0x1698	mov    	dword ptr [eax + 0x20], esi
  === BLOCK LINK ===
    0x169b
=== CODE BLOCK END ===

=== CODE BLOCK ADDRESS 0x169b ===
  0x169b	push   	ebp
  0x169c	dec    	eax
  0x169d	mov    	ebp, esp
  0x169f	dec    	eax
  0x16a0	sub    	esp, 0x60
  === BLOCK LINK ===
    0x16a3
=== CODE BLOCK END ===

=== CODE BLOCK ADDRESS 0x16a3 ===
  0x16a3	dec    	eax
  0x16a4	mov    	esi, ecx
  0x16a6	dec    	eax
  0x16a7	mov    	ebx, edx
  0x16a9	dec    	eax
  === BLOCK LINK ===
    0x16aa
=== CODE BLOCK END ===

=== CODE BLOCK ADDRESS 0x16aa ===
  0x16aa	lea    	ecx, [ebp - 0x40]
  0x16ad	dec    	eax
  0x16ae	call   	dword ptr [0x1b94]
  === BLOCK LINK ===
    0x16b4
=== CODE BLOCK END ===

=== CODE BLOCK ADDRESS 0x16b4 ===
  0x16b4	nop    	dword ptr [eax + eax]
  0x16b9	dec    	eax
  0x16ba	mov    	ecx, ebx
  0x16bc	dec    	eax
  0x16bd	call   	dword ptr [0x1b75]
  === BLOCK LINK ===
    0x16c3
=== CODE BLOCK END ===

=== CODE BLOCK ADDRESS 0x16c3 ===
  0x16c3	nop    	dword ptr [eax + eax]
  0x16c8	dec    	eax
  0x16c9	mov    	ecx, eax
  0x16cb	dec    	eax
  0x16cc	mov    	edi, eax
  === BLOCK LINK ===
    0x16ce
=== CODE BLOCK END ===

=== CODE BLOCK ADDRESS 0x16ce ===
  0x16ce	dec    	eax
  0x16cf	call   	dword ptr [0x1b5b]
  === BLOCK LINK ===
    0x16d5
=== CODE BLOCK END ===

=== CODE BLOCK ADDRESS 0x16d5 ===
  0x16d5	nop    	dword ptr [eax + eax]
  0x16da	inc    	ebp
  0x16db	xor    	esi, esi
  0x16dd	test   	eax, eax
  0x16df	jne    	0x16e8
  === BLOCK LINK ===
    0x16e1
=== CODE BLOCK END ===

=== CODE BLOCK ADDRESS 0x16e1 ===
  0x16e1	mov    	ebx, 0x8007000e
  0x16e6	jmp    	0x1753
  === BLOCK LINK ===
    0x16e8
=== CODE BLOCK END ===

=== CODE BLOCK ADDRESS 0x16e8 ===
  0x16e8	dec    	eax
  0x16e9	lea    	ecx, [ebp - 0x40]
  0x16ec	dec    	eax
  0x16ed	call   	dword ptr [0x1b4d]
  === BLOCK LINK ===
    0x16f3
=== CODE BLOCK END ===

=== CODE BLOCK ADDRESS 0x16f3 ===
  0x16f3	nop    	dword ptr [eax + eax]
  0x16f8	mov    	eax, 8
  0x16fd	dec    	eax
  0x16fe	mov    	ecx, edi
  0x1700	mov    	word ptr [ebp - 0x40], ax
  === BLOCK LINK ===
    0x1704
=== CODE BLOCK END ===

=== CODE BLOCK ADDRESS 0x1704 ===
  0x1704	dec    	eax
  0x1705	call   	dword ptr [0x1b2d]
  === BLOCK LINK ===
    0x170b
=== CODE BLOCK END ===

=== CODE BLOCK ADDRESS 0x170b ===
  0x170b	nop    	dword ptr [eax + eax]
  0x1710	dec    	eax
  0x1711	mov    	dword ptr [ebp - 0x38], eax
  0x1714	dec    	eax
  0x1715	test   	eax, eax
  === BLOCK LINK ===
    0x1717
=== CODE BLOCK END ===

=== CODE BLOCK ADDRESS 0x1717 ===
  0x1717	jne    	0x1722
  === BLOCK LINK ===
    0x1719
=== CODE BLOCK END ===

=== CODE BLOCK ADDRESS 0x1719 ===
  0x1719	dec    	eax
  0x171a	test   	edi, edi
  0x171c	jne    	0x17a4
  === BLOCK LINK ===
    0x1722
=== CODE BLOCK END ===

=== CODE BLOCK ADDRESS 0x1722 ===
  0x1722	dec    	eax
  0x1723	mov    	eax, dword ptr [esi]
  0x1725	dec    	eax
  0x1726	lea    	edx, [ebp - 0x20]
  0x1729	movups  	xmm0, xmmword ptr [ebp - 0x40]
  === BLOCK LINK ===
    0x172d
=== CODE BLOCK END ===

=== CODE BLOCK ADDRESS 0x172d ===
  0x172d	dec    	eax
  0x172e	mov    	ecx, esi
  0x1730	movsd  	xmm1, qword ptr [ebp - 0x30]
  0x1735	dec    	eax
  0x1736	mov    	eax, dword ptr [eax + 0x210]
  === BLOCK LINK ===
    0x173c
=== CODE BLOCK END ===

=== CODE BLOCK ADDRESS 0x173c ===
  0x173c	movaps  	xmmword ptr [ebp - 0x20], xmm0
  0x1740	movsd  	qword ptr [ebp - 0x10], xmm1
  0x1745	call   	dword ptr [0x1c15]
  === BLOCK LINK ===
    0x174b
=== CODE BLOCK END ===

=== CODE BLOCK ADDRESS 0x174b ===
  0x174b	test   	eax, eax
  0x174d	mov    	ebx, eax
  0x174f	inc    	ecx
  0x1750	cmovns  	ebx, esi
  0x1753	dec    	eax
  === BLOCK LINK ===
    0x1754
=== CODE BLOCK END ===

=== CODE BLOCK ADDRESS 0x1754 ===
  0x1754	test   	edi, edi
  0x1756	je     	0x1767
  === BLOCK LINK ===
    0x1758
=== CODE BLOCK END ===

=== CODE BLOCK ADDRESS 0x1758 ===
  0x1758	dec    	eax
  0x1759	mov    	ecx, edi
  0x175b	dec    	eax
  0x175c	call   	dword ptr [0x1ac6]
  === BLOCK LINK ===
    0x1762
=== CODE BLOCK END ===

=== CODE BLOCK ADDRESS 0x1762 ===
  0x1762	nop    	dword ptr [eax + eax]
  0x1767	dec    	eax
  0x1768	lea    	ecx, [ebp - 0x40]
  0x176b	dec    	eax
  0x176c	call   	dword ptr [0x1ace]
  === BLOCK LINK ===
    0x1772
=== CODE BLOCK END ===

=== CODE BLOCK ADDRESS 0x1772 ===
  0x1772	nop    	dword ptr [eax + eax]
  0x1777	dec    	eax
  0x1778	lea    	ecx, [ebp - 0x40]
  0x177b	dec    	eax
  0x177c	call   	dword ptr [0x1abe]
  === BLOCK LINK ===
    0x1782
=== CODE BLOCK END ===

=== CODE BLOCK ADDRESS 0x1782 ===
  0x1782	nop    	dword ptr [eax + eax]
  0x1787	dec    	esp
  0x1788	lea    	ebx, [esp + 0x60]
  0x178c	mov    	eax, ebx
  0x178e	dec    	ecx
  === BLOCK LINK ===
    0x178f
=== CODE BLOCK END ===

=== CODE BLOCK ADDRESS 0x178f ===
  0x178f	mov    	ebx, dword ptr [ebx + 0x10]
  0x1792	dec    	ecx
  0x1793	mov    	esi, dword ptr [ebx + 0x18]
  0x1796	dec    	ecx
  0x1797	mov    	edi, dword ptr [ebx + 0x20]
  === BLOCK LINK ===
    0x179a
=== CODE BLOCK END ===

=== CODE BLOCK ADDRESS 0x179a ===
  0x179a	dec    	ebp
  0x179b	mov    	esi, dword ptr [ebx + 0x28]
  0x179e	dec    	ecx
  0x179f	mov    	esp, ebx
  0x17a1	pop    	ebp
  === BLOCK LINK ===
    0x17a2
=== CODE BLOCK END ===

=== CODE BLOCK ADDRESS 0x17a2 ===
  0x17a2	ret    	
  0x17a3	int3   	
  0x17a4	mov    	eax, 0xa
  0x17a9	mov    	ebx, 0x8007000e
  0x17ae	mov    	word ptr [ebp - 0x40], ax
  === BLOCK LINK ===
    0x17b2
=== CODE BLOCK END ===

=== CODE BLOCK ADDRESS 0x17b2 ===
  0x17b2	mov    	dword ptr [ebp - 0x38], ebx
  0x17b5	call   	0x1c84
  === BLOCK LINK ===
    0x17ba
=== CODE BLOCK END ===

=== CODE BLOCK ADDRESS 0x17ba ===
  0x17ba	int3   	
  0x17bb	int3   	
  0x17bc	int3   	
  0x17bd	int3   	
  0x17be	int3   	
  === BLOCK LINK ===
    0x17bf
=== CODE BLOCK END ===

=== CODE BLOCK ADDRESS 0x17bf ===
  0x17bf	int3   	
  0x17c0	int3   	
  0x17c1	int3   	
  0x17c2	int3   	
  0x17c3	int3   	
  === BLOCK LINK ===
    0x17c4
=== CODE BLOCK END ===

=== CODE BLOCK ADDRESS 0x17c4 ===
  0x17c4	dec    	esp
  0x17c5	mov    	ebx, esp
  0x17c7	dec    	ecx
  0x17c8	mov    	dword ptr [ebx + 8], ebx
  0x17cb	dec    	ecx
  === BLOCK LINK ===
    0x17cc
=== CODE BLOCK END ===

=== CODE BLOCK ADDRESS 0x17cc ===
  0x17cc	mov    	dword ptr [ebx + 0x10], ebp
  0x17cf	push   	esi
  0x17d0	push   	edi
  0x17d1	inc    	ecx
  0x17d2	push   	esi
  === BLOCK LINK ===
    0x17d3
=== CODE BLOCK END ===

=== CODE BLOCK ADDRESS 0x17d3 ===
  0x17d3	dec    	eax
  0x17d4	sub    	esp, 0x30
  0x17d7	inc    	ebp
  0x17d8	xor    	esi, esi
  0x17da	dec    	ecx
  === BLOCK LINK ===
    0x17db
=== CODE BLOCK END ===

=== CODE BLOCK ADDRESS 0x17db ===
  0x17db	lea    	eax, [ebx + 0x20]
  0x17de	dec    	ecx
  0x17df	mov    	edi, eax
  0x17e1	dec    	ebp
  0x17e2	mov    	dword ptr [ebx + 0x20], esi
  === BLOCK LINK ===
    0x17e5
=== CODE BLOCK END ===

=== CODE BLOCK ADDRESS 0x17e5 ===
  0x17e5	dec    	eax
  0x17e6	mov    	esi, edx
  0x17e8	dec    	ecx
  0x17e9	mov    	dword ptr [ebx - 0x28], eax
  0x17ec	dec    	eax
  === BLOCK LINK ===
    0x17ed
=== CODE BLOCK END ===

=== CODE BLOCK ADDRESS 0x17ed ===
  0x17ed	mov    	ebp, ecx
  0x17ef	dec    	esp
  0x17f0	lea    	ecx, [0x1dc2]
  0x17f6	inc    	ebp
  0x17f7	lea    	eax, [esi + 0x17]
  === BLOCK LINK ===
    0x17fa
=== CODE BLOCK END ===

=== CODE BLOCK ADDRESS 0x17fa ===
  0x17fa	xor    	edx, edx
  0x17fc	dec    	eax
  0x17fd	lea    	ecx, [0x1dc5]
  0x1803	dec    	eax
  0x1804	call   	dword ptr [0x1a76]
  === BLOCK LINK ===
    0x180a
=== CODE BLOCK END ===

=== CODE BLOCK ADDRESS 0x180a ===
  0x180a	nop    	dword ptr [eax + eax]
  0x180f	mov    	ebx, eax
  0x1811	test   	eax, eax
  0x1813	js     	0x186a
  === BLOCK LINK ===
    0x1815
=== CODE BLOCK END ===

=== CODE BLOCK ADDRESS 0x1815 ===
  0x1815	dec    	eax
  0x1816	mov    	ecx, dword ptr [esp + 0x68]
  0x181a	xor    	edx, edx
  0x181c	dec    	eax
  0x181d	mov    	eax, dword ptr [ecx]
  === BLOCK LINK ===
    0x181f
=== CODE BLOCK END ===

=== CODE BLOCK ADDRESS 0x181f ===
  0x181f	dec    	eax
  0x1820	mov    	eax, dword ptr [eax + 0x1f8]
  0x1826	call   	dword ptr [0x1b34]
  === BLOCK LINK ===
    0x182c
=== CODE BLOCK END ===

=== CODE BLOCK ADDRESS 0x182c ===
  0x182c	dec    	esp
  0x182d	mov    	eax, dword ptr [esp + 0x68]
  0x1831	dec    	eax
  0x1832	mov    	edx, edi
  0x1834	call   	0x1278
  === BLOCK LINK ===
    0x1839
=== CODE BLOCK END ===

=== CODE BLOCK ADDRESS 0x1839 ===
  0x1839	mov    	ebx, eax
  0x183b	test   	eax, eax
  0x183d	js     	0x186a
  === BLOCK LINK ===
    0x183f
=== CODE BLOCK END ===

=== CODE BLOCK ADDRESS 0x183f ===
  0x183f	dec    	esp
  0x1840	mov    	eax, dword ptr [esp + 0x68]
  0x1844	dec    	eax
  0x1845	mov    	edx, esi
  0x1847	dec    	eax
  === BLOCK LINK ===
    0x1848
=== CODE BLOCK END ===

=== CODE BLOCK ADDRESS 0x1848 ===
  0x1848	mov    	ecx, ebp
  0x184a	call   	0x13f8
  === BLOCK LINK ===
    0x184f
=== CODE BLOCK END ===

=== CODE BLOCK ADDRESS 0x184f ===
  0x184f	mov    	ebx, eax
  0x1851	test   	eax, eax
  0x1853	js     	0x186a
  === BLOCK LINK ===
    0x1855
=== CODE BLOCK END ===

=== CODE BLOCK ADDRESS 0x1855 ===
  0x1855	dec    	eax
  0x1856	mov    	ecx, dword ptr [esp + 0x68]
  0x185a	dec    	eax
  0x185b	mov    	edx, edi
  0x185d	call   	0x1688
  === BLOCK LINK ===
    0x1862
=== CODE BLOCK END ===

=== CODE BLOCK ADDRESS 0x1862 ===
  0x1862	test   	eax, eax
  0x1864	mov    	ebx, eax
  0x1866	inc    	ecx
  0x1867	cmovns  	ebx, esi
  0x186a	dec    	eax
  === BLOCK LINK ===
    0x186b
=== CODE BLOCK END ===

=== CODE BLOCK ADDRESS 0x186b ===
  0x186b	mov    	ecx, dword ptr [esp + 0x68]
  0x186f	dec    	eax
  0x1870	test   	ecx, ecx
  0x1872	je     	0x189d
  === BLOCK LINK ===
    0x1874
=== CODE BLOCK END ===

=== CODE BLOCK ADDRESS 0x1874 ===
  0x1874	dec    	esp
  0x1875	mov    	dword ptr [esp + 0x68], esi
  0x1879	dec    	eax
  0x187a	mov    	eax, dword ptr [ecx]
  0x187c	dec    	eax
  === BLOCK LINK ===
    0x187d
=== CODE BLOCK END ===

=== CODE BLOCK ADDRESS 0x187d ===
  0x187d	mov    	eax, dword ptr [eax + 0x10]
  0x1880	call   	dword ptr [0x1ada]
  === BLOCK LINK ===
    0x1886
=== CODE BLOCK END ===

=== CODE BLOCK ADDRESS 0x1886 ===
  0x1886	dec    	eax
  0x1887	mov    	ecx, dword ptr [esp + 0x68]
  0x188b	dec    	eax
  0x188c	test   	ecx, ecx
  0x188e	je     	0x189d
  === BLOCK LINK ===
    0x1890
=== CODE BLOCK END ===

=== CODE BLOCK ADDRESS 0x1890 ===
  0x1890	dec    	eax
  0x1891	mov    	eax, dword ptr [ecx]
  0x1893	dec    	eax
  0x1894	mov    	eax, dword ptr [eax + 0x10]
  0x1897	call   	dword ptr [0x1ac3]
  === BLOCK LINK ===
    0x189d
=== CODE BLOCK END ===

=== CODE BLOCK ADDRESS 0x189d ===
  0x189d	dec    	eax
  0x189e	mov    	ebp, dword ptr [esp + 0x58]
  0x18a2	mov    	eax, ebx
  0x18a4	dec    	eax
  0x18a5	mov    	ebx, dword ptr [esp + 0x50]
  === BLOCK LINK ===
    0x18a9
=== CODE BLOCK END ===

=== CODE BLOCK ADDRESS 0x18a9 ===
  0x18a9	dec    	eax
  0x18aa	add    	esp, 0x30
  0x18ad	inc    	ecx
  0x18ae	pop    	esi
  0x18af	pop    	edi
  === BLOCK LINK ===
    0x18b0
=== CODE BLOCK END ===

=== CODE BLOCK ADDRESS 0x18b0 ===
  0x18b0	pop    	esi
  0x18b1	ret    	
  0x18b2	int3   	
  0x18b3	int3   	
  0x18b4	int3   	
  === BLOCK LINK ===
    0x18b5
=== CODE BLOCK END ===

=== CODE BLOCK ADDRESS 0x121f ===
  0x121f	dec    	eax
  0x1220	lea    	ecx, [esp + 0x48]
  0x1224	dec    	eax
  0x1225	call   	dword ptr [0x2015]
  === BLOCK LINK ===
    0x122b
=== CODE BLOCK END ===

=== CODE BLOCK ADDRESS 0x18b5 ===
  0x18b5	int3   	
  0x18b6	int3   	
  0x18b7	int3   	
  0x18b8	int3   	
  0x18b9	int3   	
  === BLOCK LINK ===
    0x18ba
=== CODE BLOCK END ===

=== CODE BLOCK ADDRESS 0x18ba ===
  0x18ba	int3   	
  0x18bb	int3   	
  0x18bc	dec    	eax
  0x18bd	mov    	dword ptr [esp + 0x18], ebx
  0x18c1	push   	ebp
  === BLOCK LINK ===
    0x18c2
=== CODE BLOCK END ===

=== CODE BLOCK ADDRESS 0x18c2 ===
  0x18c2	push   	esi
  0x18c3	push   	edi
  0x18c4	dec    	eax
  0x18c5	lea    	ebp, [esp - 0x410]
  0x18cc	dec    	eax
  === BLOCK LINK ===
    0x18cd
=== CODE BLOCK END ===

=== CODE BLOCK ADDRESS 0x18cd ===
  0x18cd	sub    	esp, 0x510
  0x18d3	dec    	eax
  0x18d4	mov    	eax, dword ptr [0x372e]
  0x18da	dec    	eax
  0x18db	xor    	eax, esp
  === BLOCK LINK ===
    0x18dd
=== CODE BLOCK END ===

=== CODE BLOCK ADDRESS 0x18dd ===
  0x18dd	dec    	eax
  0x18de	mov    	dword ptr [ebp + 0x400], eax
  0x18e4	dec    	eax
  0x18e5	mov    	edi, edx
  0x18e7	dec    	eax
  === BLOCK LINK ===
    0x18e8
=== CODE BLOCK END ===

=== CODE BLOCK ADDRESS 0x18e8 ===
  0x18e8	mov    	esi, ecx
  0x18ea	dec    	eax
  0x18eb	lea    	edx, [ebp - 0x20]
  0x18ee	inc    	ecx
  0x18ef	mov    	eax, 0x104
  === BLOCK LINK ===
    0x18f4
=== CODE BLOCK END ===

=== CODE BLOCK ADDRESS 0x18f4 ===
  0x18f4	dec    	eax
  0x18f5	lea    	ecx, [0x1c05]
  0x18fb	mov    	ebx, 0x80004005
  0x1900	dec    	eax
  0x1901	call   	dword ptr [0x1899]
  === BLOCK LINK ===
    0x1907
=== CODE BLOCK END ===

=== CODE BLOCK ADDRESS 0x1907 ===
  0x1907	nop    	dword ptr [eax + eax]
  0x190c	test   	eax, eax
  0x190e	je     	0x19dc
  === BLOCK LINK ===
    0x1914
=== CODE BLOCK END ===

=== CODE BLOCK ADDRESS 0x1914 ===
  0x1914	dec    	eax
  0x1915	lea    	eax, [ebp - 0x20]
  0x1918	dec    	eax
  0x1919	mov    	dword ptr [esp + 0x28], esi
  0x191d	dec    	esp
  === BLOCK LINK ===
    0x191e
=== CODE BLOCK END ===

=== CODE BLOCK ADDRESS 0x191e ===
  0x191e	mov    	ecx, edi
  0x1920	dec    	eax
  0x1921	mov    	dword ptr [esp + 0x20], eax
  0x1925	dec    	esp
  0x1926	lea    	eax, [0x1c34]
  === BLOCK LINK ===
    0x192c
=== CODE BLOCK END ===

=== CODE BLOCK ADDRESS 0x192c ===
  0x192c	mov    	edx, 0x104
  0x1931	dec    	eax
  0x1932	lea    	ecx, [ebp + 0x1f0]
  0x1938	call   	0x1be4
  === BLOCK LINK ===
    0x193d
=== CODE BLOCK END ===

=== CODE BLOCK ADDRESS 0x193d ===
  0x193d	mov    	ebx, eax
  0x193f	test   	eax, eax
  0x1941	js     	0x19dc
  === BLOCK LINK ===
    0x1947
=== CODE BLOCK END ===

=== CODE BLOCK ADDRESS 0x1947 ===
  0x1947	xor    	edx, edx
  0x1949	dec    	eax
  0x194a	lea    	ecx, [esp + 0x74]
  0x194e	inc    	esp
  0x194f	lea    	eax, [edx + 0x64]
  === BLOCK LINK ===
    0x1952
=== CODE BLOCK END ===

=== CODE BLOCK ADDRESS 0x1952 ===
  0x1952	call   	0x2629
  === BLOCK LINK ===
    0x1957
=== CODE BLOCK END ===

=== CODE BLOCK ADDRESS 0x1957 ===
  0x1957	xor    	eax, eax
  0x1959	mov    	dword ptr [esp + 0x70], 0x68
  0x1961	dec    	eax
  0x1962	mov    	dword ptr [esp + 0x60], eax
  0x1966	dec    	eax
  === BLOCK LINK ===
    0x1967
=== CODE BLOCK END ===

=== CODE BLOCK ADDRESS 0x1967 ===
  0x1967	lea    	edx, [ebp + 0x1f0]
  0x196d	dec    	eax
  0x196e	lea    	eax, [esp + 0x50]
  0x1972	xorps  	xmm0, xmm0
  0x1975	dec    	eax
  === BLOCK LINK ===
    0x1976
=== CODE BLOCK END ===

=== CODE BLOCK ADDRESS 0x1976 ===
  0x1976	mov    	dword ptr [esp + 0x48], eax
  0x197a	inc    	ebp
  0x197b	xor    	ecx, ecx
  0x197d	dec    	eax
  0x197e	lea    	eax, [esp + 0x70]
  === BLOCK LINK ===
    0x1982
=== CODE BLOCK END ===

=== CODE BLOCK ADDRESS 0x1982 ===
  0x1982	inc    	ebp
  0x1983	xor    	eax, eax
  0x1985	dec    	eax
  0x1986	mov    	dword ptr [esp + 0x40], eax
  0x198a	dec    	eax
  === BLOCK LINK ===
    0x198b
=== CODE BLOCK END ===

=== CODE BLOCK ADDRESS 0x198b ===
  0x198b	mov    	ecx, edi
  0x198d	dec    	eax
  0x198e	and    	dword ptr [esp + 0x38], 0
  0x1993	dec    	eax
  0x1994	and    	dword ptr [esp + 0x30], 0
  === BLOCK LINK ===
    0x1999
=== CODE BLOCK END ===

=== CODE BLOCK ADDRESS 0x1999 ===
  0x1999	and    	dword ptr [esp + 0x28], 0
  0x199e	and    	dword ptr [esp + 0x20], 0
  0x19a3	movups  	xmmword ptr [esp + 0x50], xmm0
  0x19a8	dec    	eax
  0x19a9	call   	dword ptr [0x17f9]
  === BLOCK LINK ===
    0x19af
=== CODE BLOCK END ===

=== CODE BLOCK ADDRESS 0x19af ===
  0x19af	nop    	dword ptr [eax + eax]
  0x19b4	test   	eax, eax
  0x19b6	je     	0x19dc
  === BLOCK LINK ===
    0x19b8
=== CODE BLOCK END ===

=== CODE BLOCK ADDRESS 0x19b8 ===
  0x19b8	dec    	eax
  0x19b9	mov    	ecx, dword ptr [esp + 0x50]
  0x19bd	dec    	eax
  0x19be	call   	dword ptr [0x1784]
  === BLOCK LINK ===
    0x19c4
=== CODE BLOCK END ===

=== CODE BLOCK ADDRESS 0x19c4 ===
  0x19c4	nop    	dword ptr [eax + eax]
  0x19c9	dec    	eax
  0x19ca	mov    	ecx, dword ptr [esp + 0x58]
  0x19ce	dec    	eax
  0x19cf	call   	dword ptr [0x1773]
  === BLOCK LINK ===
    0x19d5
=== CODE BLOCK END ===

=== CODE BLOCK ADDRESS 0x19d5 ===
  0x19d5	nop    	dword ptr [eax + eax]
  0x19da	xor    	ebx, ebx
  0x19dc	mov    	eax, ebx
  0x19de	dec    	eax
  0x19df	mov    	ecx, dword ptr [ebp + 0x400]
  === BLOCK LINK ===
    0x19e5
=== CODE BLOCK END ===

=== CODE BLOCK ADDRESS 0x19e5 ===
  0x19e5	dec    	eax
  0x19e6	xor    	ecx, esp
  0x19e8	call   	0x2080
  === BLOCK LINK ===
    0x19ed
=== CODE BLOCK END ===

=== CODE BLOCK ADDRESS 0x19ed ===
  0x19ed	dec    	eax
  0x19ee	mov    	ebx, dword ptr [esp + 0x540]
  0x19f5	dec    	eax
  0x19f6	add    	esp, 0x510
  0x19fc	pop    	edi
  === BLOCK LINK ===
    0x19fd
=== CODE BLOCK END ===

=== CODE BLOCK ADDRESS 0x19fd ===
  0x19fd	pop    	esi
  0x19fe	pop    	ebp
  0x19ff	ret    	
  0x1a00	int3   	
  0x1a01	int3   	
  === BLOCK LINK ===
    0x1a02
=== CODE BLOCK END ===

=== CODE BLOCK ADDRESS 0x11f6 ===
  0x11f6	dec    	eax
  0x11f7	cmp    	esi, -1
  0x11fa	je     	0x120b
  === BLOCK LINK ===
    0x11fc
=== CODE BLOCK END ===

=== CODE BLOCK ADDRESS 0x1a02 ===
  0x1a02	int3   	
  0x1a03	int3   	
  0x1a04	int3   	
  0x1a05	int3   	
  0x1a06	int3   	
  === BLOCK LINK ===
    0x1a07
=== CODE BLOCK END ===

=== CODE BLOCK ADDRESS 0x1a07 ===
  0x1a07	int3   	
  0x1a08	dec    	eax
  0x1a09	mov    	dword ptr [esp + 8], ebx
  0x1a0d	dec    	eax
  0x1a0e	mov    	dword ptr [esp + 0x10], ebp
  === BLOCK LINK ===
    0x1a12
=== CODE BLOCK END ===

=== CODE BLOCK ADDRESS 0x1a12 ===
  0x1a12	push   	esi
  0x1a13	push   	edi
  0x1a14	inc    	ecx
  0x1a15	push   	esi
  0x1a16	dec    	eax
  === BLOCK LINK ===
    0x1a17
=== CODE BLOCK END ===

=== CODE BLOCK ADDRESS 0x1a17 ===
  0x1a17	sub    	esp, 0x460
  0x1a1d	dec    	eax
  0x1a1e	mov    	eax, dword ptr [0x35e4]
  0x1a24	dec    	eax
  0x1a25	xor    	eax, esp
  === BLOCK LINK ===
    0x1a27
=== CODE BLOCK END ===

=== CODE BLOCK ADDRESS 0x1a27 ===
  0x1a27	dec    	eax
  0x1a28	mov    	dword ptr [esp + 0x450], eax
  0x1a2f	dec    	ecx
  0x1a30	mov    	ebx, eax
  0x1a32	inc    	ebp
  === BLOCK LINK ===
    0x1a33
=== CODE BLOCK END ===

=== CODE BLOCK ADDRESS 0x1a33 ===
  0x1a33	xor    	esi, esi
  0x1a35	mov    	ebp, 1
  0x1a3a	inc    	esp
  0x1a3b	mov    	dword ptr [esp + 0x20], esi
  0x1a3f	mov    	edx, ebp
  === BLOCK LINK ===
    0x1a41
=== CODE BLOCK END ===

=== CODE BLOCK ADDRESS 0x1a41 ===
  0x1a41	inc    	ebp
  0x1a42	xor    	ecx, ecx
  0x1a44	inc    	ebp
  0x1a45	xor    	eax, eax
  0x1a47	xor    	ecx, ecx
  === BLOCK LINK ===
    0x1a49
=== CODE BLOCK END ===

=== CODE BLOCK ADDRESS 0x1a49 ===
  0x1a49	inc    	ecx
  0x1a4a	mov    	edi, esi
  0x1a4c	dec    	eax
  0x1a4d	call   	dword ptr [0x175d]
  === BLOCK LINK ===
    0x1a53
=== CODE BLOCK END ===

=== CODE BLOCK ADDRESS 0x1a53 ===
  0x1a53	nop    	dword ptr [eax + eax]
  0x1a58	dec    	eax
  0x1a59	test   	ebx, ebx
  0x1a5b	je     	0x1bb0
  === BLOCK LINK ===
    0x1a61
=== CODE BLOCK END ===

=== CODE BLOCK ADDRESS 0x1a61 ===
  0x1a61	inc    	sp
  0x1a63	cmp    	esi, dword ptr [ebx]
  0x1a65	je     	0x1bb0
  === BLOCK LINK ===
    0x1a6b
=== CODE BLOCK END ===

=== CODE BLOCK ADDRESS 0x1a6b ===
  0x1a6b	dec    	eax
  0x1a6c	lea    	edx, [esp + 0x20]
  0x1a70	dec    	eax
  0x1a71	mov    	ecx, ebx
  0x1a73	dec    	eax
  === BLOCK LINK ===
    0x1a74
=== CODE BLOCK END ===

=== CODE BLOCK ADDRESS 0x1a74 ===
  0x1a74	call   	dword ptr [0x17de]
  === BLOCK LINK ===
    0x1a7a
=== CODE BLOCK END ===

=== CODE BLOCK ADDRESS 0x1a7a ===
  0x1a7a	nop    	dword ptr [eax + eax]
  0x1a7f	dec    	eax
  0x1a80	mov    	ebx, eax
  0x1a82	dec    	eax
  0x1a83	test   	eax, eax
  === BLOCK LINK ===
    0x1a85
=== CODE BLOCK END ===

=== CODE BLOCK ADDRESS 0x1a85 ===
  0x1a85	je     	0x1bb0
  === BLOCK LINK ===
    0x1a8b
=== CODE BLOCK END ===

=== CODE BLOCK ADDRESS 0x1a8b ===
  0x1a8b	cmp    	dword ptr [esp + 0x20], ebp
  0x1a8f	jl     	0x1ba1
  === BLOCK LINK ===
    0x1a95
=== CODE BLOCK END ===

=== CODE BLOCK ADDRESS 0x1a95 ===
  0x1a95	dec    	eax
  0x1a96	mov    	esi, dword ptr [eax]
  0x1a98	dec    	eax
  0x1a99	test   	esi, esi
  0x1a9b	je     	0x1ba1
  === BLOCK LINK ===
    0x1aa1
=== CODE BLOCK END ===

=== CODE BLOCK ADDRESS 0x1aa1 ===
  0x1aa1	inc    	sp
  0x1aa3	cmp    	dword ptr [esi], esi
  0x1aa5	je     	0x1ba1
  === BLOCK LINK ===
    0x1aab
=== CODE BLOCK END ===

=== CODE BLOCK ADDRESS 0x1aab ===
  0x1aab	lea    	edx, [ebp + 1]
  0x1aae	cmp    	dword ptr [esp + 0x20], edx
  0x1ab2	jne    	0x1acb
  === BLOCK LINK ===
    0x1ab4
=== CODE BLOCK END ===

=== CODE BLOCK ADDRESS 0x1ab4 ===
  0x1ab4	dec    	eax
  0x1ab5	mov    	edi, dword ptr [eax + 8]
  0x1ab8	dec    	eax
  0x1ab9	test   	edi, edi
  0x1abb	je     	0x1ba1
  === BLOCK LINK ===
    0x1ac1
=== CODE BLOCK END ===

=== CODE BLOCK ADDRESS 0x1ac1 ===
  0x1ac1	inc    	sp
  0x1ac3	cmp    	dword ptr [edi], esi
  0x1ac5	je     	0x1ba1
  === BLOCK LINK ===
    0x1acb
=== CODE BLOCK END ===

=== CODE BLOCK ADDRESS 0x1acb ===
  0x1acb	xor    	ecx, ecx
  0x1acd	dec    	eax
  0x1ace	call   	dword ptr [0x17b4]
  === BLOCK LINK ===
    0x1ad4
=== CODE BLOCK END ===

=== CODE BLOCK ADDRESS 0x1ad4 ===
  0x1ad4	nop    	dword ptr [eax + eax]
  0x1ad9	test   	eax, eax
  0x1adb	js     	0x1ba1
  === BLOCK LINK ===
    0x1ae1
=== CODE BLOCK END ===

=== CODE BLOCK ADDRESS 0x1ae1 ===
  0x1ae1	dec    	esp
  0x1ae2	lea    	eax, [esp + 0x30]
  0x1ae6	dec    	eax
  0x1ae7	mov    	edx, edi
  0x1ae9	dec    	eax
  === BLOCK LINK ===
    0x1aea
=== CODE BLOCK END ===

=== CODE BLOCK ADDRESS 0x1aea ===
  0x1aea	mov    	ecx, esi
  0x1aec	call   	0x17c4
  === BLOCK LINK ===
    0x1af1
=== CODE BLOCK END ===

=== CODE BLOCK ADDRESS 0x1af1 ===
  0x1af1	test   	eax, eax
  0x1af3	js     	0x1b95
  === BLOCK LINK ===
    0x1af9
=== CODE BLOCK END ===

=== CODE BLOCK ADDRESS 0x1af9 ===
  0x1af9	inc    	ecx
  0x1afa	mov    	eax, 0x104
  0x1aff	dec    	eax
  0x1b00	lea    	edx, [esp + 0x240]
  0x1b07	dec    	eax
  === BLOCK LINK ===
    0x1b08
=== CODE BLOCK END ===

=== CODE BLOCK ADDRESS 0x1b08 ===
  0x1b08	lea    	ecx, [0x19ba]
  0x1b0e	dec    	eax
  0x1b0f	call   	dword ptr [0x168b]
  === BLOCK LINK ===
    0x1b15
=== CODE BLOCK END ===

=== CODE BLOCK ADDRESS 0x1b15 ===
  0x1b15	nop    	dword ptr [eax + eax]
  0x1b1a	test   	eax, eax
  0x1b1c	je     	0x1b95
  === BLOCK LINK ===
    0x1b1e
=== CODE BLOCK END ===

=== CODE BLOCK ADDRESS 0x1b1e ===
  0x1b1e	dec    	eax
  0x1b1f	lea    	edx, [esp + 0x240]
  0x1b26	dec    	eax
  0x1b27	lea    	ecx, [esp + 0x30]
  0x1b2b	call   	0x18bc
  === BLOCK LINK ===
    0x1b30
=== CODE BLOCK END ===

=== CODE BLOCK ADDRESS 0x1b30 ===
  0x1b30	test   	eax, eax
  0x1b32	js     	0x1b95
  === BLOCK LINK ===
    0x1b34
=== CODE BLOCK END ===

=== CODE BLOCK ADDRESS 0x1b34 ===
  0x1b34	mov    	edi, 4
  0x1b39	dec    	eax
  0x1b3a	lea    	ecx, [esp + 0x30]
  0x1b3e	inc    	esp
  0x1b3f	mov    	eax, edi
  === BLOCK LINK ===
    0x1b41
=== CODE BLOCK END ===

=== CODE BLOCK ADDRESS 0x1b41 ===
  0x1b41	xor    	edx, edx
  0x1b43	dec    	eax
  0x1b44	call   	dword ptr [0x166e]
  === BLOCK LINK ===
    0x1b4a
=== CODE BLOCK END ===

=== CODE BLOCK ADDRESS 0x1b4a ===
  0x1b4a	nop    	dword ptr [eax + eax]
  0x1b4f	dec    	eax
  0x1b50	lea    	ecx, [esp + 0x30]
  0x1b54	dec    	eax
  0x1b55	call   	dword ptr [0x170d]
  === BLOCK LINK ===
    0x1b5b
=== CODE BLOCK END ===

=== CODE BLOCK ADDRESS 0x1b5b ===
  0x1b5b	nop    	dword ptr [eax + eax]
  0x1b60	dec    	eax
  0x1b61	lea    	edx, [0x1a41]
  0x1b67	dec    	eax
  0x1b68	lea    	ecx, [esp + 0x30]
  === BLOCK LINK ===
    0x1b6c
=== CODE BLOCK END ===

=== CODE BLOCK ADDRESS 0x1b6c ===
  0x1b6c	dec    	eax
  0x1b6d	call   	dword ptr [0x16fd]
  === BLOCK LINK ===
    0x1b73
=== CODE BLOCK END ===

=== CODE BLOCK ADDRESS 0x1b73 ===
  0x1b73	nop    	dword ptr [eax + eax]
  0x1b78	test   	eax, eax
  0x1b7a	je     	0x1b95
  === BLOCK LINK ===
    0x1b7c
=== CODE BLOCK END ===

=== CODE BLOCK ADDRESS 0x1b7c ===
  0x1b7c	inc    	esp
  0x1b7d	mov    	eax, edi
  0x1b7f	dec    	eax
  0x1b80	lea    	ecx, [esp + 0x30]
  0x1b84	xor    	edx, edx
  === BLOCK LINK ===
    0x1b86
=== CODE BLOCK END ===

=== CODE BLOCK ADDRESS 0x1b86 ===
  0x1b86	dec    	eax
  0x1b87	call   	dword ptr [0x162b]
  === BLOCK LINK ===
    0x1b8d
=== CODE BLOCK END ===

=== CODE BLOCK ADDRESS 0x1b8d ===
  0x1b8d	nop    	dword ptr [eax + eax]
  0x1b92	inc    	ecx
  0x1b93	mov    	ebp, esi
  0x1b95	dec    	eax
  0x1b96	call   	dword ptr [0x16f4]
  === BLOCK LINK ===
    0x1b9c
=== CODE BLOCK END ===

=== CODE BLOCK ADDRESS 0x1b9c ===
  0x1b9c	nop    	dword ptr [eax + eax]
  0x1ba1	dec    	eax
  0x1ba2	mov    	ecx, ebx
  0x1ba4	dec    	eax
  0x1ba5	call   	dword ptr [0x1615]
  === BLOCK LINK ===
    0x1bab
=== CODE BLOCK END ===

=== CODE BLOCK ADDRESS 0x1bab ===
  0x1bab	nop    	dword ptr [eax + eax]
  0x1bb0	mov    	eax, ebp
  0x1bb2	dec    	eax
  0x1bb3	mov    	ecx, dword ptr [esp + 0x450]
  0x1bba	dec    	eax
  === BLOCK LINK ===
    0x1bbb
=== CODE BLOCK END ===

=== CODE BLOCK ADDRESS 0x1bbb ===
  0x1bbb	xor    	ecx, esp
  0x1bbd	call   	0x2080
  === BLOCK LINK ===
    0x1bc2
=== CODE BLOCK END ===

=== CODE BLOCK ADDRESS 0x1bc2 ===
  0x1bc2	dec    	esp
  0x1bc3	lea    	ebx, [esp + 0x460]
  0x1bca	dec    	ecx
  0x1bcb	mov    	ebx, dword ptr [ebx + 0x20]
  0x1bce	dec    	ecx
  === BLOCK LINK ===
    0x1bcf
=== CODE BLOCK END ===

=== CODE BLOCK ADDRESS 0x1bcf ===
  0x1bcf	mov    	ebp, dword ptr [ebx + 0x28]
  0x1bd2	dec    	ecx
  0x1bd3	mov    	esp, ebx
  0x1bd5	inc    	ecx
  0x1bd6	pop    	esi
  === BLOCK LINK ===
    0x1bd7
=== CODE BLOCK END ===

=== CODE BLOCK ADDRESS 0x1bd7 ===
  0x1bd7	pop    	edi
  0x1bd8	pop    	esi
  0x1bd9	ret    	
  0x1bda	int3   	
  0x1bdb	int3   	
  === BLOCK LINK ===
    0x1bdc
=== CODE BLOCK END ===

=== CODE BLOCK ADDRESS 0x1bdc ===
  0x1bdc	int3   	
  0x1bdd	int3   	
  0x1bde	int3   	
  0x1bdf	int3   	
  0x1be0	int3   	
  === BLOCK LINK ===
    0x1be1
=== CODE BLOCK END ===

=== CODE BLOCK ADDRESS 0x1be1 ===
  0x1be1	int3   	
  0x1be2	int3   	
  0x1be3	int3   	
  0x1be4	dec    	esp
  0x1be5	mov    	dword ptr [esp + 0x18], eax
  === BLOCK LINK ===
    0x1be9
=== CODE BLOCK END ===

=== CODE BLOCK ADDRESS 0x1be9 ===
  0x1be9	dec    	esp
  0x1bea	mov    	dword ptr [esp + 0x20], ecx
  0x1bee	push   	ebx
  0x1bef	push   	ebp
  0x1bf0	push   	esi
  === BLOCK LINK ===
    0x1bf1
=== CODE BLOCK END ===

=== CODE BLOCK ADDRESS 0x1bf1 ===
  0x1bf1	push   	edi
  0x1bf2	dec    	eax
  0x1bf3	sub    	esp, 0x28
  0x1bf6	xor    	ebp, ebp
  0x1bf8	dec    	eax
  === BLOCK LINK ===
    0x1bf9
=== CODE BLOCK END ===

=== CODE BLOCK ADDRESS 0x1bf9 ===
  0x1bf9	lea    	eax, [edx - 1]
  0x1bfc	dec    	eax
  0x1bfd	cmp    	eax, 0x7ffffffe
  0x1c02	dec    	eax
  0x1c03	mov    	esi, ecx
  === BLOCK LINK ===
    0x1c05
=== CODE BLOCK END ===

=== CODE BLOCK ADDRESS 0x1c05 ===
  0x1c05	mov    	edi, ebp
  0x1c07	mov    	ecx, 0x80070057
  0x1c0c	cmova  	edi, ecx
  0x1c0f	test   	edi, edi
  0x1c11	js     	0x1c4e
  === BLOCK LINK ===
    0x1c13
=== CODE BLOCK END ===

=== CODE BLOCK ADDRESS 0x1c13 ===
  0x1c13	dec    	eax
  0x1c14	lea    	ebx, [edx - 1]
  0x1c17	dec    	eax
  0x1c18	mov    	ecx, esi
  0x1c1a	dec    	eax
  === BLOCK LINK ===
    0x1c1b
=== CODE BLOCK END ===

=== CODE BLOCK ADDRESS 0x1c1b ===
  0x1c1b	mov    	edx, ebx
  0x1c1d	dec    	esp
  0x1c1e	lea    	ecx, [esp + 0x68]
  0x1c22	mov    	edi, ebp
  0x1c24	dec    	eax
  === BLOCK LINK ===
    0x1c25
=== CODE BLOCK END ===

=== CODE BLOCK ADDRESS 0x1c25 ===
  0x1c25	call   	dword ptr [0x16e5]
  === BLOCK LINK ===
    0x1c2b
=== CODE BLOCK END ===

=== CODE BLOCK ADDRESS 0x1c2b ===
  0x1c2b	nop    	dword ptr [eax + eax]
  0x1c30	test   	eax, eax
  0x1c32	js     	0x1c43
  === BLOCK LINK ===
    0x1c34
=== CODE BLOCK END ===

=== CODE BLOCK ADDRESS 0x1c34 ===
  0x1c34	dec    	eax
  0x1c35	cwde   	
  0x1c36	dec    	eax
  0x1c37	cmp    	eax, ebx
  0x1c39	ja     	0x1c43
  === BLOCK LINK ===
    0x1c3b
=== CODE BLOCK END ===

=== CODE BLOCK ADDRESS 0x1c3b ===
  0x1c3b	jne    	0x1c56
  === BLOCK LINK ===
    0x1c3d
=== CODE BLOCK END ===

=== CODE BLOCK ADDRESS 0x1c3d ===
  0x1c3d	mov    	word ptr [esi + ebx*2], bp
  0x1c41	jmp    	0x1c56
  === BLOCK LINK ===
    0x1c43
=== CODE BLOCK END ===

=== CODE BLOCK ADDRESS 0x1c43 ===
  0x1c43	mov    	word ptr [esi + ebx*2], bp
  0x1c47	mov    	edi, 0x8007007a
  0x1c4c	jmp    	0x1c56
  === BLOCK LINK ===
    0x1c4e
=== CODE BLOCK END ===

=== CODE BLOCK ADDRESS 0x1c4e ===
  0x1c4e	dec    	eax
  0x1c4f	test   	edx, edx
  0x1c51	je     	0x1c56
  === BLOCK LINK ===
    0x1c53
=== CODE BLOCK END ===

=== CODE BLOCK ADDRESS 0x1c53 ===
  0x1c53	mov    	word ptr [esi], bp
  0x1c56	mov    	eax, edi
  0x1c58	dec    	eax
  0x1c59	add    	esp, 0x28
  0x1c5c	pop    	edi
  === BLOCK LINK ===
    0x1c5d
=== CODE BLOCK END ===

=== CODE BLOCK ADDRESS 0x1c5d ===
  0x1c5d	pop    	esi
  0x1c5e	pop    	ebp
  0x1c5f	pop    	ebx
  0x1c60	ret    	
  0x1c61	int3   	
  === BLOCK LINK ===
    0x1c62
=== CODE BLOCK END ===

=== CODE BLOCK ADDRESS 0x120b ===
  0x120b	dec    	eax
  0x120c	test   	edi, edi
  0x120e	je     	0x121f
  === BLOCK LINK ===
    0x1210
=== CODE BLOCK END ===

=== CODE BLOCK ADDRESS 0x1c62 ===
  0x1c62	int3   	
  0x1c63	int3   	
  0x1c64	int3   	
  0x1c65	int3   	
  0x1c66	int3   	
  === BLOCK LINK ===
    0x1c67
=== CODE BLOCK END ===

=== CODE BLOCK ADDRESS 0x1c67 ===
  0x1c67	int3   	
  0x1c68	inc    	ebp
  0x1c69	xor    	ecx, ecx
  0x1c6b	inc    	ebp
  0x1c6c	xor    	eax, eax
  === BLOCK LINK ===
    0x1c6e
=== CODE BLOCK END ===

=== CODE BLOCK ADDRESS 0x1c6e ===
  0x1c6e	inc    	ecx
  0x1c6f	lea    	edx, [ecx + 1]
  0x1c72	dec    	eax
  0x1c73	jmp    	dword ptr [0x14d7]
  === BLOCK LINK ===
    0x1c79
=== CODE BLOCK END ===

=== CODE BLOCK ADDRESS 0x1c79 ===
  0x1c79	int3   	
  0x1c7a	int3   	
  0x1c7b	int3   	
  0x1c7c	int3   	
  0x1c7d	int3   	
  === BLOCK LINK ===
    0x1c7e
=== CODE BLOCK END ===

=== CODE BLOCK ADDRESS 0x1c7e ===
  0x1c7e	int3   	
  0x1c7f	int3   	
  0x1c80	int3   	
  0x1c81	int3   	
  0x1c82	int3   	
  === BLOCK LINK ===
    0x1c83
=== CODE BLOCK END ===

=== CODE BLOCK ADDRESS 0x1c83 ===
  0x1c83	int3   	
  === BLOCK LINK ===
    0x1c84
=== CODE BLOCK END ===

=== CODE BLOCK ADDRESS 0x1c92 ===
  0x1c92	int3   	
  0x1c93	int3   	
  0x1c94	int3   	
  0x1c95	int3   	
  0x1c96	int3   	
  === BLOCK LINK ===
    0x1c97
=== CODE BLOCK END ===

=== CODE BLOCK ADDRESS 0x1c97 ===
  0x1c97	int3   	
  0x1c98	int3   	
  0x1c99	int3   	
  0x1c9a	int3   	
  0x1c9b	int3   	
  === BLOCK LINK ===
    0x1c9c
=== CODE BLOCK END ===

=== CODE BLOCK ADDRESS 0x1c9c ===
  0x1c9c	jmp    	0x20a4
  === BLOCK LINK ===
    0x1ca1
=== CODE BLOCK END ===

=== CODE BLOCK ADDRESS 0x1ca1 ===
  0x1ca1	int3   	
  0x1ca2	int3   	
  0x1ca3	int3   	
  0x1ca4	int3   	
  0x1ca5	int3   	
  === BLOCK LINK ===
    0x1ca6
=== CODE BLOCK END ===

=== CODE BLOCK ADDRESS 0x1ca6 ===
  0x1ca6	int3   	
  0x1ca7	int3   	
  0x1ca8	int3   	
  0x1ca9	int3   	
  0x1caa	int3   	
  === BLOCK LINK ===
    0x1cab
=== CODE BLOCK END ===

=== CODE BLOCK ADDRESS 0x1cab ===
  0x1cab	int3   	
  0x1cac	int3   	
  0x1cad	int3   	
  0x1cae	int3   	
  0x1caf	int3   	
  === BLOCK LINK ===
    0x1cb0
=== CODE BLOCK END ===

=== CODE BLOCK ADDRESS 0x1cb0 ===
  0x1cb0	dec    	eax
  0x1cb1	sub    	esp, 0x28
  0x1cb4	mov    	eax, 0x5a4d
  0x1cb9	cmp    	word ptr [0xffffe340], ax
  0x1cc0	je     	0x1cc6
  === BLOCK LINK ===
    0x1cc2
=== CODE BLOCK END ===

=== CODE BLOCK ADDRESS 0x1cc2 ===
  0x1cc2	xor    	eax, eax
  0x1cc4	jmp    	0x1d19
  === BLOCK LINK ===
    0x1cc6
=== CODE BLOCK END ===

=== CODE BLOCK ADDRESS 0x1cc6 ===
  0x1cc6	dec    	eax
  0x1cc7	arpl   	word ptr [0xffffe36f], cx
  0x1ccd	dec    	eax
  0x1cce	lea    	eax, [0xffffe32c]
  0x1cd4	dec    	eax
  === BLOCK LINK ===
    0x1cd5
=== CODE BLOCK END ===

=== CODE BLOCK ADDRESS 0x1cd5 ===
  0x1cd5	add    	ecx, eax
  0x1cd7	cmp    	dword ptr [ecx], 0x4550
  0x1cdd	jne    	0x1cc2
  === BLOCK LINK ===
    0x1cdf
=== CODE BLOCK END ===

=== CODE BLOCK ADDRESS 0x1cdf ===
  0x1cdf	mov    	eax, 0x10b
  0x1ce4	cmp    	word ptr [ecx + 0x18], ax
  0x1ce8	je     	0x1d08
  === BLOCK LINK ===
    0x1cea
=== CODE BLOCK END ===

=== CODE BLOCK ADDRESS 0x1cea ===
  0x1cea	mov    	eax, 0x20b
  0x1cef	cmp    	word ptr [ecx + 0x18], ax
  0x1cf3	jne    	0x1cc2
  === BLOCK LINK ===
    0x1cf5
=== CODE BLOCK END ===

=== CODE BLOCK ADDRESS 0x1cf5 ===
  0x1cf5	xor    	eax, eax
  0x1cf7	cmp    	dword ptr [ecx + 0x84], 0xe
  0x1cfe	jbe    	0x1d19
  === BLOCK LINK ===
    0x1d00
=== CODE BLOCK END ===

=== CODE BLOCK ADDRESS 0x1d00 ===
  0x1d00	cmp    	dword ptr [ecx + 0xf8], eax
  0x1d06	jmp    	0x1d16
  === BLOCK LINK ===
    0x1d08
=== CODE BLOCK END ===

=== CODE BLOCK ADDRESS 0x1d08 ===
  0x1d08	xor    	eax, eax
  0x1d0a	cmp    	dword ptr [ecx + 0x74], 0xe
  0x1d0e	jbe    	0x1d19
  === BLOCK LINK ===
    0x1d10
=== CODE BLOCK END ===

=== CODE BLOCK ADDRESS 0x1d10 ===
  0x1d10	cmp    	dword ptr [ecx + 0xe8], eax
  0x1d16	setne  	al
  0x1d19	mov    	ecx, 2
  0x1d1e	mov    	dword ptr [0x331c], eax
  0x1d24	call   	0x2178
  === BLOCK LINK ===
    0x1d29
=== CODE BLOCK END ===

=== CODE BLOCK ADDRESS 0x1d29 ===
  0x1d29	mov    	ecx, eax
  0x1d2b	call   	dword ptr [0x158f]
  === BLOCK LINK ===
    0x1d31
=== CODE BLOCK END ===

=== CODE BLOCK ADDRESS 0x1d31 ===
  0x1d31	dec    	eax
  0x1d32	mov    	ecx, dword ptr [0x15e8]
  0x1d38	dec    	eax
  0x1d39	or     	eax, 0xffffffff
  0x1d3c	dec    	eax
  === BLOCK LINK ===
    0x1d3d
=== CODE BLOCK END ===

=== CODE BLOCK ADDRESS 0x1d3d ===
  0x1d3d	mov    	dword ptr [0x3895], eax
  0x1d43	dec    	eax
  0x1d44	mov    	dword ptr [0x3896], eax
  0x1d4a	mov    	eax, dword ptr [0x3304]
  0x1d50	mov    	dword ptr [ecx], eax
  === BLOCK LINK ===
    0x1d52
=== CODE BLOCK END ===

=== CODE BLOCK ADDRESS 0x1d52 ===
  0x1d52	dec    	eax
  0x1d53	mov    	ecx, dword ptr [0x1547]
  0x1d59	mov    	eax, dword ptr [0x32e9]
  0x1d5f	mov    	dword ptr [ecx], eax
  0x1d61	call   	0x21d0
  === BLOCK LINK ===
    0x1d66
=== CODE BLOCK END ===

=== CODE BLOCK ADDRESS 0x1d66 ===
  0x1d66	cmp    	dword ptr [0x3293], 0
  0x1d6d	jne    	0x1d7c
  === BLOCK LINK ===
    0x1d6f
=== CODE BLOCK END ===

=== CODE BLOCK ADDRESS 0x1d6f ===
  0x1d6f	dec    	eax
  0x1d70	lea    	ecx, [0x45a]
  0x1d76	call   	dword ptr [0x152c]
  === BLOCK LINK ===
    0x1d7c
=== CODE BLOCK END ===

=== CODE BLOCK ADDRESS 0x1d7c ===
  0x1d7c	xor    	eax, eax
  0x1d7e	dec    	eax
  0x1d7f	add    	esp, 0x28
  0x1d82	ret    	
  0x1d83	int3   	
  === BLOCK LINK ===
    0x1d84
=== CODE BLOCK END ===

=== CODE BLOCK ADDRESS 0x1d84 ===
  0x1d84	int3   	
  0x1d85	int3   	
  0x1d86	int3   	
  0x1d87	int3   	
  0x1d88	int3   	
  === BLOCK LINK ===
    0x1d89
=== CODE BLOCK END ===

=== CODE BLOCK ADDRESS 0x1d89 ===
  0x1d89	int3   	
  0x1d8a	int3   	
  0x1d8b	int3   	
  0x1d8c	int3   	
  0x1d8d	int3   	
  === BLOCK LINK ===
    0x1d8e
=== CODE BLOCK END ===

=== CODE BLOCK ADDRESS 0x1d8e ===
  0x1d8e	int3   	
  0x1d8f	int3   	
  0x1d90	dec    	eax
  0x1d91	sub    	esp, 0x38
  0x1d94	mov    	eax, dword ptr [0x32b6]
  === BLOCK LINK ===
    0x1d9a
=== CODE BLOCK END ===

=== CODE BLOCK ADDRESS 0x1d9a ===
  0x1d9a	dec    	esp
  0x1d9b	lea    	eax, [0x3297]
  0x1da1	inc    	esp
  0x1da2	mov    	ecx, dword ptr [0x32a4]
  0x1da8	dec    	eax
  === BLOCK LINK ===
    0x1da9
=== CODE BLOCK END ===

=== CODE BLOCK ADDRESS 0x1da9 ===
  0x1da9	lea    	edx, [0x3281]
  0x1daf	mov    	dword ptr [0x328f], eax
  0x1db5	dec    	eax
  0x1db6	lea    	ecx, [0x326c]
  0x1dbc	dec    	eax
  === BLOCK LINK ===
    0x1dbd
=== CODE BLOCK END ===

=== CODE BLOCK ADDRESS 0x1dbd ===
  0x1dbd	lea    	eax, [0x3281]
  0x1dc3	dec    	eax
  0x1dc4	mov    	dword ptr [esp + 0x20], eax
  0x1dc8	call   	dword ptr [0x1522]
  === BLOCK LINK ===
    0x1dce
=== CODE BLOCK END ===

=== CODE BLOCK ADDRESS 0x1dce ===
  0x1dce	mov    	dword ptr [0x3258], eax
  0x1dd4	dec    	eax
  0x1dd5	add    	esp, 0x38
  0x1dd8	ret    	
  0x1dd9	int3   	
  === BLOCK LINK ===
    0x1dda
=== CODE BLOCK END ===

=== CODE BLOCK ADDRESS 0x1256 ===
  0x1256	mov    	eax, 0xa
  0x125b	mov    	ebx, 0x8007000e
  0x1260	mov    	word ptr [esp + 0x48], ax
  0x1265	mov    	dword ptr [esp + 0x50], ebx
  === BLOCK LINK ===
    0x1269
=== CODE BLOCK END ===

=== CODE BLOCK ADDRESS 0x1dda ===
  0x1dda	int3   	
  0x1ddb	int3   	
  0x1ddc	int3   	
  0x1ddd	int3   	
  0x1dde	int3   	
  === BLOCK LINK ===
    0x1ddf
=== CODE BLOCK END ===

=== CODE BLOCK ADDRESS 0x1ddf ===
  0x1ddf	int3   	
  0x1de0	dec    	eax
  0x1de1	mov    	eax, esp
  0x1de3	dec    	eax
  0x1de4	mov    	dword ptr [eax + 8], ebx
  === BLOCK LINK ===
    0x1de7
=== CODE BLOCK END ===

=== CODE BLOCK ADDRESS 0x1de7 ===
  0x1de7	dec    	eax
  0x1de8	mov    	dword ptr [eax + 0x10], esi
  0x1deb	dec    	eax
  0x1dec	mov    	dword ptr [eax + 0x18], edi
  0x1def	dec    	esp
  === BLOCK LINK ===
    0x1df0
=== CODE BLOCK END ===

=== CODE BLOCK ADDRESS 0x1df0 ===
  0x1df0	mov    	dword ptr [eax + 0x20], esi
  0x1df3	inc    	ecx
  0x1df4	push   	edi
  0x1df5	dec    	eax
  0x1df6	sub    	esp, 0xb0
  === BLOCK LINK ===
    0x1dfc
=== CODE BLOCK END ===

=== CODE BLOCK ADDRESS 0x1dfc ===
  0x1dfc	inc    	ebp
  0x1dfd	xor    	esi, esi
  0x1dff	inc    	esp
  0x1e00	mov    	dword ptr [esp + 0x20], esi
  0x1e04	dec    	eax
  === BLOCK LINK ===
    0x1e05
=== CODE BLOCK END ===

=== CODE BLOCK ADDRESS 0x1e05 ===
  0x1e05	lea    	ecx, [eax - 0x78]
  0x1e08	call   	dword ptr [0x13da]
  === BLOCK LINK ===
    0x1e0e
=== CODE BLOCK END ===

=== CODE BLOCK ADDRESS 0x1e0e ===
  0x1e0e	nop    	
  0x1e0f	dec    	eax
  0x1e11	mov    	eax, dword ptr [0x30]
  0x1e18	dec    	eax
  0x1e19	mov    	ebx, dword ptr [eax + 8]
  === BLOCK LINK ===
    0x1e1c
=== CODE BLOCK END ===

=== CODE BLOCK ADDRESS 0x1e1c ===
  0x1e1c	inc    	ecx
  0x1e1d	mov    	esi, esi
  0x1e1f	xor    	eax, eax
  0x1e21	.byte  	0xf0
  0x1e22	dec    	eax
  === BLOCK LINK ===
    0x1e23
=== CODE BLOCK END ===

=== CODE BLOCK ADDRESS 0x1e23 ===
  0x1e23	cmpxchg  	dword ptr [0x37be], ebx
  0x1e2a	je     	0x1e47
  === BLOCK LINK ===
    0x1e2c
=== CODE BLOCK END ===

=== CODE BLOCK ADDRESS 0x1e2c ===
  0x1e2c	dec    	eax
  0x1e2d	cmp    	eax, ebx
  0x1e2f	jne    	0x1e3a
  === BLOCK LINK ===
    0x1e31
=== CODE BLOCK END ===

=== CODE BLOCK ADDRESS 0x1e31 ===
  0x1e31	mov    	ebx, 1
  0x1e36	mov    	esi, ebx
  0x1e38	jmp    	0x1e4c
  === BLOCK LINK ===
    0x1e3a
=== CODE BLOCK END ===

=== CODE BLOCK ADDRESS 0x1e3a ===
  0x1e3a	mov    	ecx, 0x3e8
  0x1e3f	call   	dword ptr [0x13ab]
  === BLOCK LINK ===
    0x1e45
=== CODE BLOCK END ===

=== CODE BLOCK ADDRESS 0x1e45 ===
  0x1e45	jmp    	0x1e1f
  === BLOCK LINK ===
    0x1e47
=== CODE BLOCK END ===

=== CODE BLOCK ADDRESS 0x1e47 ===
  0x1e47	mov    	ebx, 1
  0x1e4c	mov    	eax, dword ptr [0x379e]
  0x1e52	cmp    	eax, ebx
  0x1e54	jne    	0x1e64
  === BLOCK LINK ===
    0x1e56
=== CODE BLOCK END ===

=== CODE BLOCK ADDRESS 0x1e56 ===
  0x1e56	mov    	edi, 0x1f
  0x1e5b	mov    	ecx, edi
  0x1e5d	call   	0x21c3
  === BLOCK LINK ===
    0x1e62
=== CODE BLOCK END ===

=== CODE BLOCK ADDRESS 0x1e62 ===
  0x1e62	jmp    	0x1ed0
  === BLOCK LINK ===
    0x1e64
=== CODE BLOCK END ===

=== CODE BLOCK ADDRESS 0x1e64 ===
  0x1e64	mov    	eax, dword ptr [0x3786]
  0x1e6a	test   	eax, eax
  0x1e6c	jne    	0x1ec5
  === BLOCK LINK ===
    0x1e6e
=== CODE BLOCK END ===

=== CODE BLOCK ADDRESS 0x1e6e ===
  0x1e6e	mov    	dword ptr [0x377c], ebx
  0x1e74	dec    	esp
  0x1e75	lea    	edi, [0x151d]
  0x1e7b	dec    	eax
  0x1e7c	lea    	edi, [0x14fe]
  === BLOCK LINK ===
    0x1e82
=== CODE BLOCK END ===

=== CODE BLOCK ADDRESS 0x1e82 ===
  0x1e82	dec    	eax
  0x1e83	mov    	dword ptr [esp + 0x30], edi
  0x1e87	inc    	ecx
  0x1e88	mov    	eax, esi
  0x1e8a	mov    	dword ptr [esp + 0x24], eax
  === BLOCK LINK ===
    0x1e8e
=== CODE BLOCK END ===

=== CODE BLOCK ADDRESS 0x1e8e ===
  0x1e8e	dec    	ecx
  0x1e8f	cmp    	edi, edi
  0x1e91	jae    	0x1eb7
  === BLOCK LINK ===
    0x1e93
=== CODE BLOCK END ===

=== CODE BLOCK ADDRESS 0x1e93 ===
  0x1e93	test   	eax, eax
  0x1e95	jne    	0x1ebb
  === BLOCK LINK ===
    0x1e97
=== CODE BLOCK END ===

=== CODE BLOCK ADDRESS 0x1e97 ===
  0x1e97	dec    	esp
  0x1e98	cmp    	dword ptr [edi], esi
  0x1e9a	je     	0x1eac
  === BLOCK LINK ===
    0x1e9c
=== CODE BLOCK END ===

=== CODE BLOCK ADDRESS 0x1e9c ===
  0x1e9c	dec    	eax
  0x1e9d	mov    	eax, dword ptr [edi]
  0x1e9f	dec    	eax
  0x1ea0	mov    	ecx, dword ptr [0x14ba]
  0x1ea6	call   	ecx
  === BLOCK LINK ===
    0x1ea8
=== CODE BLOCK END ===

=== CODE BLOCK ADDRESS 0x1ea8 ===
  0x1ea8	mov    	dword ptr [esp + 0x24], eax
  0x1eac	dec    	eax
  0x1ead	add    	edi, 8
  0x1eb0	dec    	eax
  0x1eb1	mov    	dword ptr [esp + 0x30], edi
  === BLOCK LINK ===
    0x1eb5
=== CODE BLOCK END ===

=== CODE BLOCK ADDRESS 0x1eb5 ===
  0x1eb5	jmp    	0x1e8e
  === BLOCK LINK ===
    0x1eb7
=== CODE BLOCK END ===

=== CODE BLOCK ADDRESS 0x1eb7 ===
  0x1eb7	test   	eax, eax
  0x1eb9	je     	0x1ecb
  === BLOCK LINK ===
    0x1ebb
=== CODE BLOCK END ===

=== CODE BLOCK ADDRESS 0x1ebb ===
  0x1ebb	mov    	eax, 0xff
  0x1ec0	jmp    	0x2026
  === BLOCK LINK ===
    0x1ec5
=== CODE BLOCK END ===

=== CODE BLOCK ADDRESS 0x1ec5 ===
  0x1ec5	mov    	dword ptr [0x3159], ebx
  0x1ecb	mov    	edi, 0x1f
  0x1ed0	mov    	eax, dword ptr [0x371a]
  0x1ed6	cmp    	eax, ebx
  0x1ed8	jne    	0x1ef7
  === BLOCK LINK ===
    0x1eda
=== CODE BLOCK END ===

=== CODE BLOCK ADDRESS 0x1eda ===
  0x1eda	dec    	eax
  0x1edb	lea    	edx, [0x1497]
  0x1ee1	dec    	eax
  0x1ee2	lea    	ecx, [0x1480]
  0x1ee8	call   	0x239e
  === BLOCK LINK ===
    0x1eed
=== CODE BLOCK END ===

=== CODE BLOCK ADDRESS 0x1eed ===
  0x1eed	mov    	dword ptr [0x36f9], 2
  0x1ef7	test   	esi, esi
  0x1ef9	jne    	0x1f05
  === BLOCK LINK ===
    0x1efb
=== CODE BLOCK END ===

=== CODE BLOCK ADDRESS 0x1efb ===
  0x1efb	dec    	ecx
  0x1efc	mov    	eax, esi
  0x1efe	dec    	eax
  0x1eff	xchg   	dword ptr [0x36e3], eax
  0x1f05	dec    	esp
  === BLOCK LINK ===
    0x1f06
=== CODE BLOCK END ===

=== CODE BLOCK ADDRESS 0x1f06 ===
  0x1f06	cmp    	dword ptr [0x36ec], esi
  0x1f0c	je     	0x1f38
  === BLOCK LINK ===
    0x1f0e
=== CODE BLOCK END ===

=== CODE BLOCK ADDRESS 0x1f0e ===
  0x1f0e	dec    	eax
  0x1f0f	lea    	ecx, [0x36e3]
  0x1f15	call   	0x2230
  === BLOCK LINK ===
    0x1f1a
=== CODE BLOCK END ===

=== CODE BLOCK ADDRESS 0x1f1a ===
  0x1f1a	test   	eax, eax
  0x1f1c	je     	0x1f38
  === BLOCK LINK ===
    0x1f1e
=== CODE BLOCK END ===

=== CODE BLOCK ADDRESS 0x1f1e ===
  0x1f1e	inc    	ebp
  0x1f1f	xor    	eax, eax
  0x1f21	inc    	ecx
  0x1f22	lea    	edx, [eax + 2]
  0x1f25	xor    	ecx, ecx
  === BLOCK LINK ===
    0x1f27
=== CODE BLOCK END ===

=== CODE BLOCK ADDRESS 0x1f27 ===
  0x1f27	dec    	eax
  0x1f28	mov    	eax, dword ptr [0x36ca]
  0x1f2e	dec    	esp
  0x1f2f	mov    	ecx, dword ptr [0x142b]
  0x1f35	inc    	ecx
  === BLOCK LINK ===
    0x1f36
=== CODE BLOCK END ===

=== CODE BLOCK ADDRESS 0x1f36 ===
  0x1f36	call   	ecx
  === BLOCK LINK ===
    0x1f38
=== CODE BLOCK END ===

=== CODE BLOCK ADDRESS 0x1f38 ===
  0x1f38	dec    	eax
  0x1f39	mov    	eax, dword ptr [0x13a9]
  0x1f3f	dec    	eax
  0x1f40	mov    	ecx, dword ptr [eax]
  0x1f42	dec    	eax
  === BLOCK LINK ===
    0x1f43
=== CODE BLOCK END ===

=== CODE BLOCK ADDRESS 0x1f43 ===
  0x1f43	test   	ecx, ecx
  0x1f45	jne    	0x1f51
  === BLOCK LINK ===
    0x1f47
=== CODE BLOCK END ===

=== CODE BLOCK ADDRESS 0x1f47 ===
  0x1f47	mov    	eax, 0xff
  0x1f4c	jmp    	0x2026
  === BLOCK LINK ===
    0x1f51
=== CODE BLOCK END ===

=== CODE BLOCK ADDRESS 0x1f51 ===
  0x1f51	dec    	eax
  0x1f52	mov    	dword ptr [esp + 0x28], ecx
  0x1f56	mov    	edx, dword ptr [esp + 0x20]
  0x1f5a	movzx  	eax, word ptr [ecx]
  0x1f5d	cmp    	ax, 0x20
  === BLOCK LINK ===
    0x1f61
=== CODE BLOCK END ===

=== CODE BLOCK ADDRESS 0x1f61 ===
  0x1f61	ja     	0x1fd7
  === BLOCK LINK ===
    0x1f63
=== CODE BLOCK END ===

=== CODE BLOCK ADDRESS 0x1f63 ===
  0x1f63	test   	ax, ax
  0x1f66	je     	0x1f6c
  === BLOCK LINK ===
    0x1f68
=== CODE BLOCK END ===

=== CODE BLOCK ADDRESS 0x1f68 ===
  0x1f68	test   	edx, edx
  0x1f6a	jne    	0x1fd7
  === BLOCK LINK ===
    0x1f6c
=== CODE BLOCK END ===

=== CODE BLOCK ADDRESS 0x1f6c ===
  0x1f6c	sub    	ax, bx
  0x1f6f	cmp    	ax, di
  0x1f72	ja     	0x1f82
  === BLOCK LINK ===
    0x1f74
=== CODE BLOCK END ===

=== CODE BLOCK ADDRESS 0x1f74 ===
  0x1f74	dec    	eax
  0x1f75	add    	ecx, 2
  0x1f78	dec    	eax
  0x1f79	mov    	dword ptr [esp + 0x28], ecx
  0x1f7d	movzx  	eax, word ptr [ecx]
  === BLOCK LINK ===
    0x1f80
=== CODE BLOCK END ===

=== CODE BLOCK ADDRESS 0x1f80 ===
  0x1f80	jmp    	0x1f6c
  === BLOCK LINK ===
    0x1f82
=== CODE BLOCK END ===

=== CODE BLOCK ADDRESS 0x1f82 ===
  0x1f82	test   	byte ptr [esp + 0x7c], bl
  0x1f86	movzx  	eax, word ptr [esp + 0x80]
  0x1f8e	inc    	ecx
  0x1f8f	mov    	ecx, 0xa
  0x1f94	inc    	esp
  === BLOCK LINK ===
    0x1f95
=== CODE BLOCK END ===

=== CODE BLOCK ADDRESS 0x1f95 ===
  0x1f95	cmovne  	ecx, eax
  0x1f98	dec    	esp
  0x1f99	mov    	eax, ecx
  0x1f9b	xor    	edx, edx
  0x1f9d	dec    	eax
  === BLOCK LINK ===
    0x1f9e
=== CODE BLOCK END ===

=== CODE BLOCK ADDRESS 0x1f9e ===
  0x1f9e	lea    	ecx, [0xffffe05c]
  0x1fa4	call   	0x1a08
  === BLOCK LINK ===
    0x1fa9
=== CODE BLOCK END ===

=== CODE BLOCK ADDRESS 0x1fa9 ===
  0x1fa9	mov    	dword ptr [0x3071], eax
  0x1faf	inc    	esp
  0x1fb0	cmp    	dword ptr [0x308a], esi
  0x1fb6	jne    	0x1fc0
  === BLOCK LINK ===
    0x1fb8
=== CODE BLOCK END ===

=== CODE BLOCK ADDRESS 0x1fb8 ===
  0x1fb8	mov    	ecx, eax
  0x1fba	call   	dword ptr [0x1308]
  === BLOCK LINK ===
    0x1fc0
=== CODE BLOCK END ===

=== CODE BLOCK ADDRESS 0x1fc0 ===
  0x1fc0	inc    	esp
  0x1fc1	cmp    	dword ptr [0x305d], esi
  0x1fc7	jne    	0x1fd5
  === BLOCK LINK ===
    0x1fc9
=== CODE BLOCK END ===

=== CODE BLOCK ADDRESS 0x1fc9 ===
  0x1fc9	call   	dword ptr [0x1309]
  === BLOCK LINK ===
    0x1fcf
=== CODE BLOCK END ===

=== CODE BLOCK ADDRESS 0x1fcf ===
  0x1fcf	mov    	eax, dword ptr [0x304b]
  0x1fd5	jmp    	0x2026
  === BLOCK LINK ===
    0x1fd7
=== CODE BLOCK END ===

=== CODE BLOCK ADDRESS 0x1fd7 ===
  0x1fd7	cmp    	ax, 0x22
  0x1fdb	jne    	0x1feb
  === BLOCK LINK ===
    0x1fdd
=== CODE BLOCK END ===

=== CODE BLOCK ADDRESS 0x1fdd ===
  0x1fdd	inc    	ecx
  0x1fde	mov    	eax, esi
  0x1fe0	test   	edx, edx
  0x1fe2	sete   	al
  0x1fe5	mov    	edx, eax
  === BLOCK LINK ===
    0x1fe7
=== CODE BLOCK END ===

=== CODE BLOCK ADDRESS 0x1fe7 ===
  0x1fe7	mov    	dword ptr [esp + 0x20], eax
  0x1feb	dec    	eax
  0x1fec	add    	ecx, 2
  0x1fef	dec    	eax
  0x1ff0	mov    	dword ptr [esp + 0x28], ecx
  === BLOCK LINK ===
    0x1ff4
=== CODE BLOCK END ===

=== CODE BLOCK ADDRESS 0x1ff4 ===
  0x1ff4	jmp    	0x1f5a
  === BLOCK LINK ===
    0x1ff9
=== CODE BLOCK END ===

=== CODE BLOCK ADDRESS 0x1ff9 ===
  0x1ff9	mov    	dword ptr [0x3021], eax
  0x1fff	cmp    	dword ptr [0x303a], 0
  0x2006	jne    	0x2011
  === BLOCK LINK ===
    0x2008
=== CODE BLOCK END ===

=== CODE BLOCK ADDRESS 0x2008 ===
  0x2008	mov    	ecx, eax
  0x200a	call   	dword ptr [0x12c0]
  === BLOCK LINK ===
    0x2010
=== CODE BLOCK END ===

=== CODE BLOCK ADDRESS 0x2010 ===
  0x2010	int3   	
  0x2011	cmp    	dword ptr [0x300c], 0
  0x2018	jne    	0x2026
  === BLOCK LINK ===
    0x201a
=== CODE BLOCK END ===

=== CODE BLOCK ADDRESS 0x201a ===
  0x201a	call   	dword ptr [0x12b8]
  === BLOCK LINK ===
    0x2020
=== CODE BLOCK END ===

=== CODE BLOCK ADDRESS 0x2020 ===
  0x2020	mov    	eax, dword ptr [0x2ffa]
  0x2026	dec    	esp
  0x2027	lea    	ebx, [esp + 0xb0]
  0x202e	dec    	ecx
  0x202f	mov    	ebx, dword ptr [ebx + 0x10]
  === BLOCK LINK ===
    0x2032
=== CODE BLOCK END ===

=== CODE BLOCK ADDRESS 0x2032 ===
  0x2032	dec    	ecx
  0x2033	mov    	esi, dword ptr [ebx + 0x18]
  0x2036	dec    	ecx
  0x2037	mov    	edi, dword ptr [ebx + 0x20]
  0x203a	dec    	ebp
  === BLOCK LINK ===
    0x203b
=== CODE BLOCK END ===

=== CODE BLOCK ADDRESS 0x203b ===
  0x203b	mov    	esi, dword ptr [ebx + 0x28]
  0x203e	dec    	ecx
  0x203f	mov    	esp, ebx
  0x2041	inc    	ecx
  0x2042	pop    	edi
  === BLOCK LINK ===
    0x2043
=== CODE BLOCK END ===

=== CODE BLOCK ADDRESS 0x2043 ===
  0x2043	ret    	
  0x2044	int3   	
  0x2045	int3   	
  0x2046	int3   	
  0x2047	int3   	
  === BLOCK LINK ===
    0x2048
=== CODE BLOCK END ===

=== CODE BLOCK ADDRESS 0x2048 ===
  0x2048	int3   	
  0x2049	int3   	
  0x204a	int3   	
  0x204b	int3   	
  0x204c	int3   	
  === BLOCK LINK ===
    0x204d
=== CODE BLOCK END ===

=== CODE BLOCK ADDRESS 0x204d ===
  0x204d	int3   	
  0x204e	int3   	
  0x204f	int3   	
  0x2050	dec    	eax
  0x2051	sub    	esp, 0x28
  === BLOCK LINK ===
    0x2054
=== CODE BLOCK END ===

=== CODE BLOCK ADDRESS 0x2054 ===
  0x2054	call   	0x22c4
  === BLOCK LINK ===
    0x2059
=== CODE BLOCK END ===

=== CODE BLOCK ADDRESS 0x2059 ===
  0x2059	dec    	eax
  0x205a	add    	esp, 0x28
  0x205d	jmp    	0x1de0
  === BLOCK LINK ===
    0x2062
=== CODE BLOCK END ===

=== CODE BLOCK ADDRESS 0x2062 ===
  0x2062	int3   	
  0x2063	int3   	
  0x2064	int3   	
  0x2065	int3   	
  0x2066	int3   	
  === BLOCK LINK ===
    0x2067
=== CODE BLOCK END ===

=== CODE BLOCK ADDRESS 0x2067 ===
  0x2067	int3   	
  0x2068	int3   	
  0x2069	int3   	
  0x206a	int3   	
  0x206b	int3   	
  === BLOCK LINK ===
    0x206c
=== CODE BLOCK END ===

=== CODE BLOCK ADDRESS 0x206c ===
  0x206c	int3   	
  0x206d	int3   	
  0x206e	int3   	
  0x206f	int3   	
  0x2070	int3   	
  === BLOCK LINK ===
    0x2071
=== CODE BLOCK END ===

=== CODE BLOCK ADDRESS 0x2071 ===
  0x2071	int3   	
  0x2072	int3   	
  0x2073	int3   	
  0x2074	int3   	
  0x2075	int3   	
  === BLOCK LINK ===
    0x2076
=== CODE BLOCK END ===

=== CODE BLOCK ADDRESS 0x2076 ===
  0x2076	nop    	word ptr [eax + eax]
  === BLOCK LINK ===
    0x2080
=== CODE BLOCK END ===

=== CODE BLOCK ADDRESS 0x2089 ===
  0x2089	dec    	eax
  0x208a	rol    	ecx, 0x10
  0x208d	test   	cx, 0xffff
  0x2092	jne    	0x2095
  === BLOCK LINK ===
    0x2094
=== CODE BLOCK END ===

=== CODE BLOCK ADDRESS 0x2094 ===
  0x2094	ret    	
  0x2095	dec    	eax
  0x2096	ror    	ecx, 0x10
  0x2099	jmp    	0x2410
  === BLOCK LINK ===
    0x209e
=== CODE BLOCK END ===

=== CODE BLOCK ADDRESS 0x209e ===
  0x209e	int3   	
  0x209f	int3   	
  0x20a0	int3   	
  0x20a1	int3   	
  0x20a2	int3   	
  === BLOCK LINK ===
    0x20a3
=== CODE BLOCK END ===

=== CODE BLOCK ADDRESS 0x20a3 ===
  0x20a3	int3   	
  0x20a4	jmp    	dword ptr [0x125e]
  === BLOCK LINK ===
    0x20aa
=== CODE BLOCK END ===

=== CODE BLOCK ADDRESS 0x20aa ===
  0x20aa	int3   	
  0x20ab	int3   	
  0x20ac	int3   	
  0x20ad	int3   	
  0x20ae	int3   	
  === BLOCK LINK ===
    0x20af
=== CODE BLOCK END ===

=== CODE BLOCK ADDRESS 0x20af ===
  0x20af	int3   	
  0x20b0	dec    	eax
  0x20b1	sub    	esp, 0x28
  0x20b4	dec    	eax
  0x20b5	mov    	eax, dword ptr [ecx]
  === BLOCK LINK ===
    0x20b7
=== CODE BLOCK END ===

=== CODE BLOCK ADDRESS 0x20b7 ===
  0x20b7	cmp    	dword ptr [eax], 0xe06d7363
  0x20bd	jne    	0x20e2
  === BLOCK LINK ===
    0x20bf
=== CODE BLOCK END ===

=== CODE BLOCK ADDRESS 0x20bf ===
  0x20bf	cmp    	dword ptr [eax + 0x18], 4
  0x20c3	jne    	0x20e2
  === BLOCK LINK ===
    0x20c5
=== CODE BLOCK END ===

=== CODE BLOCK ADDRESS 0x20c5 ===
  0x20c5	mov    	ecx, dword ptr [eax + 0x20]
  0x20c8	lea    	eax, [ecx - 0x19930520]
  0x20ce	cmp    	eax, 2
  0x20d1	jbe    	0x20db
  === BLOCK LINK ===
    0x20d3
=== CODE BLOCK END ===

=== CODE BLOCK ADDRESS 0x20d3 ===
  0x20d3	cmp    	ecx, 0x1994000
  0x20d9	jne    	0x20e2
  === BLOCK LINK ===
    0x20db
=== CODE BLOCK END ===

=== CODE BLOCK ADDRESS 0x20db ===
  0x20db	call   	dword ptr [0x11cf]
  === BLOCK LINK ===
    0x20e1
=== CODE BLOCK END ===

=== CODE BLOCK ADDRESS 0x20e1 ===
  0x20e1	int3   	
  0x20e2	xor    	eax, eax
  0x20e4	dec    	eax
  0x20e5	add    	esp, 0x28
  0x20e8	ret    	
  === BLOCK LINK ===
    0x20e9
=== CODE BLOCK END ===

=== CODE BLOCK ADDRESS 0x20e9 ===
  0x20e9	int3   	
  0x20ea	int3   	
  0x20eb	int3   	
  0x20ec	int3   	
  0x20ed	int3   	
  === BLOCK LINK ===
    0x20ee
=== CODE BLOCK END ===

=== CODE BLOCK ADDRESS 0x20ee ===
  0x20ee	int3   	
  0x20ef	int3   	
  0x20f0	dec    	eax
  0x20f1	sub    	esp, 0x28
  0x20f4	dec    	eax
  === BLOCK LINK ===
    0x20f5
=== CODE BLOCK END ===

=== CODE BLOCK ADDRESS 0x20f5 ===
  0x20f5	lea    	ecx, [0xffffffb5]
  0x20fb	call   	dword ptr [0x10df]
  === BLOCK LINK ===
    0x2101
=== CODE BLOCK END ===

=== CODE BLOCK ADDRESS 0x2101 ===
  0x2101	xor    	eax, eax
  0x2103	dec    	eax
  0x2104	add    	esp, 0x28
  0x2107	ret    	
  0x2108	int3   	
  === BLOCK LINK ===
    0x2109
=== CODE BLOCK END ===

=== CODE BLOCK ADDRESS 0x2080 ===
  0x2080	dec    	eax
  0x2081	cmp    	ecx, dword ptr [0x2f81]
  0x2087	jne    	0x2099
  === BLOCK LINK ===
    0x2089
=== CODE BLOCK END ===

=== CODE BLOCK ADDRESS 0x2109 ===
  0x2109	int3   	
  0x210a	int3   	
  0x210b	int3   	
  0x210c	int3   	
  0x210d	int3   	
  === BLOCK LINK ===
    0x210e
=== CODE BLOCK END ===

=== CODE BLOCK ADDRESS 0x210e ===
  0x210e	jmp    	dword ptr [0x11ec]
  === BLOCK LINK ===
    0x2114
=== CODE BLOCK END ===

=== CODE BLOCK ADDRESS 0x2114 ===
  0x2114	int3   	
  0x2115	int3   	
  0x2116	int3   	
  0x2117	int3   	
  0x2118	int3   	
  === BLOCK LINK ===
    0x2119
=== CODE BLOCK END ===

=== CODE BLOCK ADDRESS 0x2119 ===
  0x2119	int3   	
  0x211a	int3   	
  0x211b	int3   	
  0x211c	dec    	eax
  0x211d	sub    	esp, 0x18
  === BLOCK LINK ===
    0x2120
=== CODE BLOCK END ===

=== CODE BLOCK ADDRESS 0x2120 ===
  0x2120	xor    	edx, edx
  0x2122	dec    	eax
  0x2123	lea    	eax, [ecx - 1]
  0x2126	dec    	eax
  0x2127	cmp    	eax, -3
  === BLOCK LINK ===
    0x212a
=== CODE BLOCK END ===

=== CODE BLOCK ADDRESS 0x212a ===
  0x212a	ja     	0x2168
  === BLOCK LINK ===
    0x212c
=== CODE BLOCK END ===

=== CODE BLOCK ADDRESS 0x212c ===
  0x212c	mov    	eax, 0x5a4d
  0x2131	cmp    	word ptr [ecx], ax
  0x2134	jne    	0x2160
  === BLOCK LINK ===
    0x2136
=== CODE BLOCK END ===

=== CODE BLOCK ADDRESS 0x2136 ===
  0x2136	cmp    	dword ptr [ecx + 0x3c], edx
  0x2139	jl     	0x2160
  === BLOCK LINK ===
    0x213b
=== CODE BLOCK END ===

=== CODE BLOCK ADDRESS 0x213b ===
  0x213b	cmp    	dword ptr [ecx + 0x3c], 0x10000000
  0x2142	jae    	0x2160
  === BLOCK LINK ===
    0x2144
=== CODE BLOCK END ===

=== CODE BLOCK ADDRESS 0x2144 ===
  0x2144	dec    	eax
  0x2145	arpl   	word ptr [ecx + 0x3c], ax
  0x2148	dec    	eax
  0x2149	add    	eax, ecx
  0x214b	dec    	eax
  === BLOCK LINK ===
    0x214c
=== CODE BLOCK END ===

=== CODE BLOCK ADDRESS 0x214c ===
  0x214c	mov    	dword ptr [esp], eax
  0x214f	cmp    	dword ptr [eax], 0x4550
  0x2155	dec    	eax
  0x2156	cmovne  	eax, edx
  0x2159	dec    	eax
  === BLOCK LINK ===
    0x215a
=== CODE BLOCK END ===

=== CODE BLOCK ADDRESS 0x215a ===
  0x215a	mov    	edx, eax
  0x215c	dec    	eax
  0x215d	mov    	dword ptr [esp], eax
  0x2160	jmp    	0x2168
  === BLOCK LINK ===
    0x2162
=== CODE BLOCK END ===

=== CODE BLOCK ADDRESS 0x2162 ===
  0x2162	xor    	edx, edx
  0x2164	dec    	eax
  0x2165	mov    	dword ptr [esp], edx
  0x2168	dec    	eax
  0x2169	mov    	eax, edx
  === BLOCK LINK ===
    0x216b
=== CODE BLOCK END ===

=== CODE BLOCK ADDRESS 0x216b ===
  0x216b	dec    	eax
  0x216c	add    	esp, 0x18
  0x216f	ret    	
  0x2170	int3   	
  0x2171	int3   	
  === BLOCK LINK ===
    0x2172
=== CODE BLOCK END ===

=== CODE BLOCK ADDRESS 0x1c84 ===
  0x1c84	dec    	eax
  0x1c85	sub    	esp, 0x28
  0x1c88	mov    	ecx, 0xc0000017
  0x1c8d	call   	0x1c68
  === BLOCK LINK ===
    0x1c92
=== CODE BLOCK END ===

=== CODE BLOCK ADDRESS 0x2172 ===
  0x2172	int3   	
  0x2173	int3   	
  0x2174	int3   	
  0x2175	int3   	
  0x2176	int3   	
  === BLOCK LINK ===
    0x2177
=== CODE BLOCK END ===

=== CODE BLOCK ADDRESS 0x2177 ===
  0x2177	int3   	
  0x2178	inc    	eax
  0x2179	push   	ebx
  0x217a	dec    	eax
  0x217b	sub    	esp, 0x20
  === BLOCK LINK ===
    0x217e
=== CODE BLOCK END ===

=== CODE BLOCK ADDRESS 0x217e ===
  0x217e	mov    	ebx, ecx
  0x2180	xor    	ecx, ecx
  0x2182	call   	dword ptr [0xfe0]
  === BLOCK LINK ===
    0x2188
=== CODE BLOCK END ===

=== CODE BLOCK ADDRESS 0x2188 ===
  0x2188	dec    	eax
  0x2189	test   	eax, eax
  0x218b	je     	0x21b5
  === BLOCK LINK ===
    0x218d
=== CODE BLOCK END ===

=== CODE BLOCK ADDRESS 0x218d ===
  0x218d	dec    	eax
  0x218e	mov    	ecx, eax
  0x2190	call   	0x211c
  === BLOCK LINK ===
    0x2195
=== CODE BLOCK END ===

=== CODE BLOCK ADDRESS 0x2195 ===
  0x2195	dec    	eax
  0x2196	test   	eax, eax
  0x2198	je     	0x21b5
  === BLOCK LINK ===
    0x219a
=== CODE BLOCK END ===

=== CODE BLOCK ADDRESS 0x219a ===
  0x219a	mov    	ecx, 2
  0x219f	cmp    	word ptr [eax + 0x5c], cx
  0x21a3	jne    	0x21a9
  === BLOCK LINK ===
    0x21a5
=== CODE BLOCK END ===

=== CODE BLOCK ADDRESS 0x21a5 ===
  0x21a5	mov    	eax, ecx
  0x21a7	jmp    	0x21b7
  === BLOCK LINK ===
    0x21a9
=== CODE BLOCK END ===

=== CODE BLOCK ADDRESS 0x21a9 ===
  0x21a9	cmp    	word ptr [eax + 0x5c], 3
  0x21ae	mov    	eax, 1
  0x21b3	je     	0x21b7
  === BLOCK LINK ===
    0x21b5
=== CODE BLOCK END ===

=== CODE BLOCK ADDRESS 0x21b5 ===
  0x21b5	mov    	eax, ebx
  0x21b7	dec    	eax
  0x21b8	add    	esp, 0x20
  0x21bb	pop    	ebx
  0x21bc	ret    	
  === BLOCK LINK ===
    0x21bd
=== CODE BLOCK END ===

=== CODE BLOCK ADDRESS 0x21bd ===
  0x21bd	int3   	
  0x21be	int3   	
  0x21bf	int3   	
  0x21c0	int3   	
  0x21c1	int3   	
  === BLOCK LINK ===
    0x21c2
=== CODE BLOCK END ===

=== CODE BLOCK ADDRESS 0x21c2 ===
  0x21c2	int3   	
  0x21c3	jmp    	dword ptr [0x112f]
  === BLOCK LINK ===
    0x21c9
=== CODE BLOCK END ===

=== CODE BLOCK ADDRESS 0x21c9 ===
  0x21c9	int3   	
  0x21ca	int3   	
  0x21cb	int3   	
  0x21cc	int3   	
  0x21cd	int3   	
  === BLOCK LINK ===
    0x21ce
=== CODE BLOCK END ===

=== CODE BLOCK ADDRESS 0x21ce ===
  0x21ce	int3   	
  0x21cf	int3   	
  0x21d0	xor    	eax, eax
  0x21d2	ret    	
  0x21d3	int3   	
  === BLOCK LINK ===
    0x21d4
=== CODE BLOCK END ===

=== CODE BLOCK ADDRESS 0x13d2 ===
  0x13d2	dec    	eax
  0x13d3	mov    	ebp, dword ptr [esp + 0x58]
  0x13d7	mov    	eax, ebx
  0x13d9	dec    	eax
  === BLOCK LINK ===
    0x13da
=== CODE BLOCK END ===

=== CODE BLOCK ADDRESS 0x21d4 ===
  0x21d4	int3   	
  0x21d5	int3   	
  0x21d6	int3   	
  0x21d7	int3   	
  0x21d8	int3   	
  === BLOCK LINK ===
    0x21d9
=== CODE BLOCK END ===

=== CODE BLOCK ADDRESS 0x21d9 ===
  0x21d9	int3   	
  0x21da	int3   	
  0x21db	int3   	
  0x21dc	int3   	
  0x21dd	int3   	
  === BLOCK LINK ===
    0x21de
=== CODE BLOCK END ===

=== CODE BLOCK ADDRESS 0x21de ===
  0x21de	int3   	
  0x21df	int3   	
  0x21e0	dec    	esp
  0x21e1	arpl   	word ptr [ecx + 0x3c], ax
  0x21e4	inc    	ebp
  === BLOCK LINK ===
    0x21e5
=== CODE BLOCK END ===

=== CODE BLOCK ADDRESS 0x21e5 ===
  0x21e5	xor    	ecx, ecx
  0x21e7	dec    	esp
  0x21e8	add    	eax, ecx
  0x21ea	dec    	esp
  0x21eb	mov    	edx, edx
  === BLOCK LINK ===
    0x21ed
=== CODE BLOCK END ===

=== CODE BLOCK ADDRESS 0x21ed ===
  0x21ed	inc    	ecx
  0x21ee	movzx  	eax, word ptr [eax + 0x14]
  0x21f2	inc    	ebp
  0x21f3	movzx  	ebx, word ptr [eax + 6]
  0x21f7	dec    	eax
  === BLOCK LINK ===
    0x21f8
=== CODE BLOCK END ===

=== CODE BLOCK ADDRESS 0x21f8 ===
  0x21f8	add    	eax, 0x18
  0x21fb	dec    	ecx
  0x21fc	add    	eax, eax
  0x21fe	inc    	ebp
  0x21ff	test   	ebx, ebx
  === BLOCK LINK ===
    0x2201
=== CODE BLOCK END ===

=== CODE BLOCK ADDRESS 0x2201 ===
  0x2201	je     	0x2221
  === BLOCK LINK ===
    0x2203
=== CODE BLOCK END ===

=== CODE BLOCK ADDRESS 0x2203 ===
  0x2203	mov    	edx, dword ptr [eax + 0xc]
  0x2206	dec    	esp
  0x2207	cmp    	edx, edx
  0x2209	jb     	0x2215
  === BLOCK LINK ===
    0x220b
=== CODE BLOCK END ===

=== CODE BLOCK ADDRESS 0x220b ===
  0x220b	mov    	ecx, dword ptr [eax + 8]
  0x220e	add    	ecx, edx
  0x2210	dec    	esp
  0x2211	cmp    	edx, ecx
  0x2213	jb     	0x2223
  === BLOCK LINK ===
    0x2215
=== CODE BLOCK END ===

=== CODE BLOCK ADDRESS 0x2215 ===
  0x2215	inc    	ecx
  0x2216	inc    	ecx
  0x2218	dec    	eax
  0x2219	add    	eax, 0x28
  0x221c	inc    	ebp
  === BLOCK LINK ===
    0x221d
=== CODE BLOCK END ===

=== CODE BLOCK ADDRESS 0x221d ===
  0x221d	cmp    	ecx, ebx
  0x221f	jb     	0x2203
  === BLOCK LINK ===
    0x2221
=== CODE BLOCK END ===

=== CODE BLOCK ADDRESS 0x2221 ===
  0x2221	xor    	eax, eax
  0x2223	ret    	
  0x2224	int3   	
  0x2225	int3   	
  0x2226	int3   	
  === BLOCK LINK ===
    0x2227
=== CODE BLOCK END ===

=== CODE BLOCK ADDRESS 0x2227 ===
  0x2227	int3   	
  0x2228	int3   	
  0x2229	int3   	
  0x222a	int3   	
  0x222b	int3   	
  === BLOCK LINK ===
    0x222c
=== CODE BLOCK END ===

=== CODE BLOCK ADDRESS 0x222c ===
  0x222c	int3   	
  0x222d	int3   	
  0x222e	int3   	
  0x222f	int3   	
  0x2230	dec    	eax
  === BLOCK LINK ===
    0x2231
=== CODE BLOCK END ===

=== CODE BLOCK ADDRESS 0x2231 ===
  0x2231	mov    	dword ptr [esp + 8], ebx
  0x2235	push   	edi
  0x2236	dec    	eax
  0x2237	sub    	esp, 0x20
  0x223a	dec    	eax
  === BLOCK LINK ===
    0x223b
=== CODE BLOCK END ===

=== CODE BLOCK ADDRESS 0x223b ===
  0x223b	mov    	ebx, ecx
  0x223d	dec    	eax
  0x223e	lea    	edi, [0xffffddbc]
  0x2244	dec    	eax
  0x2245	mov    	ecx, edi
  === BLOCK LINK ===
    0x2247
=== CODE BLOCK END ===

=== CODE BLOCK ADDRESS 0x2247 ===
  0x2247	call   	0x2290
  === BLOCK LINK ===
    0x224c
=== CODE BLOCK END ===

=== CODE BLOCK ADDRESS 0x224c ===
  0x224c	test   	eax, eax
  0x224e	je     	0x2272
  === BLOCK LINK ===
    0x2250
=== CODE BLOCK END ===

=== CODE BLOCK ADDRESS 0x2250 ===
  0x2250	dec    	eax
  0x2251	sub    	ebx, edi
  0x2253	dec    	eax
  0x2254	mov    	edx, ebx
  0x2256	dec    	eax
  === BLOCK LINK ===
    0x2257
=== CODE BLOCK END ===

=== CODE BLOCK ADDRESS 0x2257 ===
  0x2257	mov    	ecx, edi
  0x2259	call   	0x21e0
  === BLOCK LINK ===
    0x225e
=== CODE BLOCK END ===

=== CODE BLOCK ADDRESS 0x225e ===
  0x225e	dec    	eax
  0x225f	test   	eax, eax
  0x2261	je     	0x2272
  === BLOCK LINK ===
    0x2263
=== CODE BLOCK END ===

=== CODE BLOCK ADDRESS 0x2263 ===
  0x2263	mov    	eax, dword ptr [eax + 0x24]
  0x2266	shr    	eax, 0x1f
  0x2269	not    	eax
  0x226b	and    	eax, 1
  0x226e	jmp    	0x2272
  === BLOCK LINK ===
    0x2270
=== CODE BLOCK END ===

=== CODE BLOCK ADDRESS 0x2270 ===
  0x2270	xor    	eax, eax
  0x2272	dec    	eax
  0x2273	mov    	ebx, dword ptr [esp + 0x30]
  0x2277	dec    	eax
  0x2278	add    	esp, 0x20
  === BLOCK LINK ===
    0x227b
=== CODE BLOCK END ===

=== CODE BLOCK ADDRESS 0x227b ===
  0x227b	pop    	edi
  0x227c	ret    	
  0x227d	int3   	
  0x227e	int3   	
  0x227f	int3   	
  === BLOCK LINK ===
    0x2280
=== CODE BLOCK END ===

=== CODE BLOCK ADDRESS 0x2280 ===
  0x2280	int3   	
  0x2281	int3   	
  0x2282	int3   	
  0x2283	int3   	
  0x2284	int3   	
  === BLOCK LINK ===
    0x2285
=== CODE BLOCK END ===

=== CODE BLOCK ADDRESS 0x2285 ===
  0x2285	int3   	
  0x2286	int3   	
  0x2287	int3   	
  0x2288	int3   	
  0x2289	int3   	
  === BLOCK LINK ===
    0x228a
=== CODE BLOCK END ===

=== CODE BLOCK ADDRESS 0x228a ===
  0x228a	int3   	
  0x228b	int3   	
  0x228c	int3   	
  0x228d	int3   	
  0x228e	int3   	
  === BLOCK LINK ===
    0x228f
=== CODE BLOCK END ===

=== CODE BLOCK ADDRESS 0x228f ===
  0x228f	int3   	
  0x2290	mov    	eax, 0x5a4d
  0x2295	cmp    	word ptr [ecx], ax
  0x2298	jne    	0x22ba
  === BLOCK LINK ===
    0x229a
=== CODE BLOCK END ===

=== CODE BLOCK ADDRESS 0x229a ===
  0x229a	dec    	eax
  0x229b	arpl   	word ptr [ecx + 0x3c], ax
  0x229e	dec    	eax
  0x229f	add    	eax, ecx
  0x22a1	cmp    	dword ptr [eax], 0x4550
  === BLOCK LINK ===
    0x22a7
=== CODE BLOCK END ===

=== CODE BLOCK ADDRESS 0x22a7 ===
  0x22a7	jne    	0x22ba
  === BLOCK LINK ===
    0x22a9
=== CODE BLOCK END ===

=== CODE BLOCK ADDRESS 0x22a9 ===
  0x22a9	mov    	ecx, 0x20b
  0x22ae	cmp    	word ptr [eax + 0x18], cx
  0x22b2	jne    	0x22ba
  === BLOCK LINK ===
    0x22b4
=== CODE BLOCK END ===

=== CODE BLOCK ADDRESS 0x22b4 ===
  0x22b4	mov    	eax, 1
  0x22b9	ret    	
  0x22ba	xor    	eax, eax
  0x22bc	ret    	
  0x22bd	int3   	
  === BLOCK LINK ===
    0x22be
=== CODE BLOCK END ===

=== CODE BLOCK ADDRESS 0x22be ===
  0x22be	int3   	
  0x22bf	int3   	
  0x22c0	int3   	
  0x22c1	int3   	
  0x22c2	int3   	
  === BLOCK LINK ===
    0x22c3
=== CODE BLOCK END ===

=== CODE BLOCK ADDRESS 0x22c3 ===
  0x22c3	int3   	
  0x22c4	dec    	eax
  0x22c5	mov    	dword ptr [esp + 0x20], ebx
  0x22c9	push   	ebp
  0x22ca	dec    	eax
  === BLOCK LINK ===
    0x22cb
=== CODE BLOCK END ===

=== CODE BLOCK ADDRESS 0x22cb ===
  0x22cb	mov    	ebp, esp
  0x22cd	dec    	eax
  0x22ce	sub    	esp, 0x20
  0x22d1	dec    	eax
  0x22d2	and    	dword ptr [ebp + 0x18], 0
  === BLOCK LINK ===
    0x22d6
=== CODE BLOCK END ===

=== CODE BLOCK ADDRESS 0x22d6 ===
  0x22d6	dec    	eax
  0x22d7	mov    	ebx, 0x2ddfa232
  0x22dc	cdq    	
  0x22dd	sub    	eax, dword ptr [eax]
  0x22df	add    	byte ptr [eax - 0x75], cl
  === BLOCK LINK ===
    0x22e2
=== CODE BLOCK END ===

=== CODE BLOCK ADDRESS 0x22e2 ===
  0x22e2	add    	eax, 0x2d21
  0x22e7	dec    	eax
  0x22e8	cmp    	eax, ebx
  0x22ea	jne    	0x2383
  === BLOCK LINK ===
    0x22f0
=== CODE BLOCK END ===

=== CODE BLOCK ADDRESS 0x22f0 ===
  0x22f0	dec    	eax
  0x22f1	lea    	ecx, [ebp + 0x18]
  0x22f4	call   	dword ptr [0xf1e]
  === BLOCK LINK ===
    0x22fa
=== CODE BLOCK END ===

=== CODE BLOCK ADDRESS 0x22fa ===
  0x22fa	dec    	eax
  0x22fb	mov    	eax, dword ptr [ebp + 0x18]
  0x22fe	dec    	eax
  0x22ff	mov    	dword ptr [ebp + 0x10], eax
  0x2302	call   	dword ptr [0xec8]
  === BLOCK LINK ===
    0x2308
=== CODE BLOCK END ===

=== CODE BLOCK ADDRESS 0x2308 ===
  0x2308	mov    	eax, eax
  0x230a	dec    	eax
  0x230b	xor    	dword ptr [ebp + 0x10], eax
  0x230e	call   	dword ptr [0xeb4]
  === BLOCK LINK ===
    0x2314
=== CODE BLOCK END ===

=== CODE BLOCK ADDRESS 0x2314 ===
  0x2314	mov    	eax, eax
  0x2316	dec    	eax
  0x2317	xor    	dword ptr [ebp + 0x10], eax
  0x231a	call   	dword ptr [0xed8]
  === BLOCK LINK ===
    0x2320
=== CODE BLOCK END ===

=== CODE BLOCK ADDRESS 0x2320 ===
  0x2320	mov    	eax, eax
  0x2322	dec    	eax
  0x2323	shl    	eax, 0x18
  0x2326	dec    	eax
  0x2327	xor    	dword ptr [ebp + 0x10], eax
  === BLOCK LINK ===
    0x232a
=== CODE BLOCK END ===

=== CODE BLOCK ADDRESS 0x232a ===
  0x232a	call   	dword ptr [0xec8]
  === BLOCK LINK ===
    0x2330
=== CODE BLOCK END ===

=== CODE BLOCK ADDRESS 0x2330 ===
  0x2330	mov    	eax, eax
  0x2332	dec    	eax
  0x2333	lea    	ecx, [ebp + 0x10]
  0x2336	dec    	eax
  0x2337	xor    	eax, dword ptr [ebp + 0x10]
  === BLOCK LINK ===
    0x233a
=== CODE BLOCK END ===

=== CODE BLOCK ADDRESS 0x233a ===
  0x233a	dec    	eax
  0x233b	xor    	eax, ecx
  0x233d	dec    	eax
  0x233e	lea    	ecx, [ebp + 0x20]
  0x2341	dec    	eax
  === BLOCK LINK ===
    0x2342
=== CODE BLOCK END ===

=== CODE BLOCK ADDRESS 0x2342 ===
  0x2342	mov    	dword ptr [ebp + 0x10], eax
  0x2345	call   	dword ptr [0xe8d]
  === BLOCK LINK ===
    0x234b
=== CODE BLOCK END ===

=== CODE BLOCK ADDRESS 0x234b ===
  0x234b	mov    	eax, dword ptr [ebp + 0x20]
  0x234e	dec    	eax
  0x234f	mov    	ecx, 0xffffffff
  0x2354	.byte  	0xff
  0x2355	inc    	dword ptr [eax]
  === BLOCK LINK ===
    0x2357
=== CODE BLOCK END ===

=== CODE BLOCK ADDRESS 0x2357 ===
  0x2357	add    	byte ptr [eax - 0x3f], cl
  0x235a	loopne  	0x237c
  === BLOCK LINK ===
    0x235c
=== CODE BLOCK END ===

=== CODE BLOCK ADDRESS 0x235c ===
  0x235c	dec    	eax
  0x235d	xor    	eax, dword ptr [ebp + 0x20]
  0x2360	dec    	eax
  0x2361	xor    	eax, dword ptr [ebp + 0x10]
  0x2364	dec    	eax
  === BLOCK LINK ===
    0x2365
=== CODE BLOCK END ===

=== CODE BLOCK ADDRESS 0x2365 ===
  0x2365	and    	eax, ecx
  0x2367	dec    	eax
  0x2368	mov    	ecx, eax
  0x236a	dec    	eax
  0x236b	cmp    	eax, ebx
  === BLOCK LINK ===
    0x236d
=== CODE BLOCK END ===

=== CODE BLOCK ADDRESS 0x236d ===
  0x236d	jne    	0x237c
  === BLOCK LINK ===
    0x236f
=== CODE BLOCK END ===

=== CODE BLOCK ADDRESS 0x236f ===
  0x236f	dec    	eax
  0x2370	mov    	eax, 0x2ddfa233
  0x2375	cdq    	
  0x2376	sub    	eax, dword ptr [eax]
  0x2378	add    	byte ptr [eax - 0x75], cl
  === BLOCK LINK ===
    0x237b
=== CODE BLOCK END ===

=== CODE BLOCK ADDRESS 0x237b ===
  0x237b	enter  	-0x76b8, 0xd
  0x237f	test   	dword ptr [eax + eax], ebp
  0x2382	add    	byte ptr [eax - 0x75], cl
  0x2385	pop    	esp
  0x2386	and    	al, 0x48
  === BLOCK LINK ===
    0x2388
=== CODE BLOCK END ===

=== CODE BLOCK ADDRESS 0x2388 ===
  0x2388	dec    	eax
  0x2389	not    	eax
  0x238b	dec    	eax
  0x238c	mov    	dword ptr [0x2c7e], eax
  0x2392	dec    	eax
  === BLOCK LINK ===
    0x2393
=== CODE BLOCK END ===

=== CODE BLOCK ADDRESS 0x2393 ===
  0x2393	add    	esp, 0x20
  0x2396	pop    	ebp
  0x2397	ret    	
  0x2398	int3   	
  0x2399	int3   	
  === BLOCK LINK ===
    0x239a
=== CODE BLOCK END ===

=== CODE BLOCK ADDRESS 0x239a ===
  0x239a	int3   	
  0x239b	int3   	
  0x239c	int3   	
  0x239d	int3   	
  0x239e	jmp    	dword ptr [0xf74]
  === BLOCK LINK ===
    0x23a4
=== CODE BLOCK END ===

=== CODE BLOCK ADDRESS 0x23a4 ===
  0x23a4	int3   	
  0x23a5	int3   	
  0x23a6	int3   	
  0x23a7	int3   	
  0x23a8	int3   	
  === BLOCK LINK ===
    0x23a9
=== CODE BLOCK END ===

=== CODE BLOCK ADDRESS 0x23a9 ===
  0x23a9	int3   	
  0x23aa	jmp    	dword ptr [0xf08]
  === BLOCK LINK ===
    0x23b0
=== CODE BLOCK END ===

=== CODE BLOCK ADDRESS 0x23b0 ===
  0x23b0	int3   	
  0x23b1	int3   	
  0x23b2	int3   	
  0x23b3	int3   	
  0x23b4	int3   	
  === BLOCK LINK ===
    0x23b5
=== CODE BLOCK END ===

=== CODE BLOCK ADDRESS 0x23b5 ===
  0x23b5	int3   	
  0x23b6	int3   	
  0x23b7	int3   	
  0x23b8	int3   	
  0x23b9	int3   	
  === BLOCK LINK ===
    0x23ba
=== CODE BLOCK END ===

=== CODE BLOCK ADDRESS 0x23ba ===
  0x23ba	int3   	
  0x23bb	int3   	
  0x23bc	int3   	
  0x23bd	int3   	
  0x23be	int3   	
  === BLOCK LINK ===
    0x23bf
=== CODE BLOCK END ===

=== CODE BLOCK ADDRESS 0x23bf ===
  0x23bf	int3   	
  0x23c0	ret    	0
  0x23c3	int3   	
  0x23c4	int3   	
  0x23c5	int3   	
  === BLOCK LINK ===
    0x23c6
=== CODE BLOCK END ===

=== CODE BLOCK ADDRESS 0x13b2 ===
  0x13b2	dec    	eax
  0x13b3	call   	dword ptr [0x1da7]
  === BLOCK LINK ===
    0x13b9
=== CODE BLOCK END ===

=== CODE BLOCK ADDRESS 0x23c6 ===
  0x23c6	int3   	
  0x23c7	int3   	
  0x23c8	int3   	
  0x23c9	int3   	
  0x23ca	int3   	
  === BLOCK LINK ===
    0x23cb
=== CODE BLOCK END ===

=== CODE BLOCK ADDRESS 0x23cb ===
  0x23cb	int3   	
  0x23cc	inc    	eax
  0x23cd	push   	ebx
  0x23ce	dec    	eax
  0x23cf	sub    	esp, 0x20
  === BLOCK LINK ===
    0x23d2
=== CODE BLOCK END ===

=== CODE BLOCK ADDRESS 0x23d2 ===
  0x23d2	dec    	eax
  0x23d3	mov    	ebx, ecx
  0x23d5	xor    	ecx, ecx
  0x23d7	call   	dword ptr [0xe03]
  === BLOCK LINK ===
    0x23dd
=== CODE BLOCK END ===

=== CODE BLOCK ADDRESS 0x23dd ===
  0x23dd	dec    	eax
  0x23de	mov    	ecx, ebx
  0x23e0	call   	dword ptr [0xe1a]
  === BLOCK LINK ===
    0x23e6
=== CODE BLOCK END ===

=== CODE BLOCK ADDRESS 0x23e6 ===
  0x23e6	call   	dword ptr [0xe1c]
  === BLOCK LINK ===
    0x23ec
=== CODE BLOCK END ===

=== CODE BLOCK ADDRESS 0x23ec ===
  0x23ec	dec    	eax
  0x23ed	mov    	ecx, eax
  0x23ef	mov    	edx, 0xc0000409
  0x23f4	dec    	eax
  0x23f5	add    	esp, 0x20
  === BLOCK LINK ===
    0x23f8
=== CODE BLOCK END ===

=== CODE BLOCK ADDRESS 0x23f8 ===
  0x23f8	pop    	ebx
  0x23f9	dec    	eax
  0x23fa	jmp    	dword ptr [0xe10]
  === BLOCK LINK ===
    0x2400
=== CODE BLOCK END ===

=== CODE BLOCK ADDRESS 0x2400 ===
  0x2400	int3   	
  0x2401	int3   	
  0x2402	int3   	
  0x2403	int3   	
  0x2404	int3   	
  === BLOCK LINK ===
    0x2405
=== CODE BLOCK END ===

=== CODE BLOCK ADDRESS 0x2405 ===
  0x2405	int3   	
  0x2406	int3   	
  0x2407	int3   	
  0x2408	int3   	
  0x2409	int3   	
  === BLOCK LINK ===
    0x240a
=== CODE BLOCK END ===

=== CODE BLOCK ADDRESS 0x240a ===
  0x240a	int3   	
  0x240b	int3   	
  0x240c	int3   	
  0x240d	int3   	
  0x240e	int3   	
  === BLOCK LINK ===
    0x240f
=== CODE BLOCK END ===

=== CODE BLOCK ADDRESS 0x240f ===
  0x240f	int3   	
  0x2410	dec    	eax
  0x2411	mov    	dword ptr [esp + 8], ecx
  0x2415	dec    	eax
  0x2416	sub    	esp, 0x88
  === BLOCK LINK ===
    0x241c
=== CODE BLOCK END ===

=== CODE BLOCK ADDRESS 0x241c ===
  0x241c	dec    	eax
  0x241d	lea    	ecx, [0x2cdd]
  0x2423	call   	dword ptr [0xf0f]
  === BLOCK LINK ===
    0x2429
=== CODE BLOCK END ===

=== CODE BLOCK ADDRESS 0x2429 ===
  0x2429	dec    	eax
  0x242a	mov    	eax, dword ptr [0x2dc8]
  0x2430	dec    	eax
  0x2431	mov    	dword ptr [esp + 0x48], eax
  0x2435	inc    	ebp
  === BLOCK LINK ===
    0x2436
=== CODE BLOCK END ===

=== CODE BLOCK ADDRESS 0x2436 ===
  0x2436	xor    	eax, eax
  0x2438	dec    	eax
  0x2439	lea    	edx, [esp + 0x50]
  0x243d	dec    	eax
  0x243e	mov    	ecx, dword ptr [esp + 0x48]
  === BLOCK LINK ===
    0x2442
=== CODE BLOCK END ===

=== CODE BLOCK ADDRESS 0x2442 ===
  0x2442	call   	dword ptr [0xef8]
  === BLOCK LINK ===
    0x2448
=== CODE BLOCK END ===

=== CODE BLOCK ADDRESS 0x2448 ===
  0x2448	dec    	eax
  0x2449	mov    	dword ptr [esp + 0x40], eax
  0x244d	dec    	eax
  0x244e	cmp    	dword ptr [esp + 0x40], 0
  0x2453	je     	0x2497
  === BLOCK LINK ===
    0x2455
=== CODE BLOCK END ===

=== CODE BLOCK ADDRESS 0x2455 ===
  0x2455	dec    	eax
  0x2456	mov    	dword ptr [esp + 0x38], 0
  0x245e	dec    	eax
  0x245f	lea    	eax, [esp + 0x58]
  0x2463	dec    	eax
  === BLOCK LINK ===
    0x2464
=== CODE BLOCK END ===

=== CODE BLOCK ADDRESS 0x2464 ===
  0x2464	mov    	dword ptr [esp + 0x30], eax
  0x2468	dec    	eax
  0x2469	lea    	eax, [esp + 0x60]
  0x246d	dec    	eax
  0x246e	mov    	dword ptr [esp + 0x28], eax
  === BLOCK LINK ===
    0x2472
=== CODE BLOCK END ===

=== CODE BLOCK ADDRESS 0x2472 ===
  0x2472	dec    	eax
  0x2473	lea    	eax, [0x2c87]
  0x2479	dec    	eax
  0x247a	mov    	dword ptr [esp + 0x20], eax
  0x247e	dec    	esp
  === BLOCK LINK ===
    0x247f
=== CODE BLOCK END ===

=== CODE BLOCK ADDRESS 0x247f ===
  0x247f	mov    	ecx, dword ptr [esp + 0x40]
  0x2483	dec    	esp
  0x2484	mov    	eax, dword ptr [esp + 0x48]
  0x2488	dec    	eax
  0x2489	mov    	edx, dword ptr [esp + 0x50]
  === BLOCK LINK ===
    0x248d
=== CODE BLOCK END ===

=== CODE BLOCK ADDRESS 0x248d ===
  0x248d	xor    	ecx, ecx
  0x248f	call   	dword ptr [0xeb3]
  === BLOCK LINK ===
    0x2495
=== CODE BLOCK END ===

=== CODE BLOCK ADDRESS 0x2495 ===
  0x2495	jmp    	0x24ba
  === BLOCK LINK ===
    0x2497
=== CODE BLOCK END ===

=== CODE BLOCK ADDRESS 0x2497 ===
  0x2497	dec    	eax
  0x2498	mov    	eax, dword ptr [0x2cfa]
  0x249e	dec    	eax
  0x249f	mov    	eax, dword ptr [eax]
  0x24a1	dec    	eax
  === BLOCK LINK ===
    0x24a2
=== CODE BLOCK END ===

=== CODE BLOCK ADDRESS 0x24a2 ===
  0x24a2	mov    	dword ptr [0x2d50], eax
  0x24a8	dec    	eax
  0x24a9	mov    	eax, dword ptr [0x2ce9]
  0x24af	dec    	eax
  0x24b0	add    	eax, 8
  === BLOCK LINK ===
    0x24b3
=== CODE BLOCK END ===

=== CODE BLOCK ADDRESS 0x24b3 ===
  0x24b3	dec    	eax
  0x24b4	mov    	dword ptr [0x2cde], eax
  0x24ba	dec    	eax
  0x24bb	mov    	eax, dword ptr [0x2d37]
  0x24c1	dec    	eax
  === BLOCK LINK ===
    0x24c2
=== CODE BLOCK END ===

=== CODE BLOCK ADDRESS 0x24c2 ===
  0x24c2	mov    	dword ptr [0x2ba8], eax
  0x24c8	dec    	eax
  0x24c9	mov    	eax, dword ptr [esp + 0x90]
  0x24d0	dec    	eax
  0x24d1	mov    	dword ptr [0x2ca9], eax
  === BLOCK LINK ===
    0x24d7
=== CODE BLOCK END ===

=== CODE BLOCK ADDRESS 0x24d7 ===
  0x24d7	mov    	dword ptr [0x2b7f], 0xc0000409
  0x24e1	mov    	dword ptr [0x2b79], 1
  0x24eb	mov    	dword ptr [0x2b83], 3
  0x24f5	mov    	eax, 8
  0x24fa	dec    	eax
  === BLOCK LINK ===
    0x24fb
=== CODE BLOCK END ===

=== CODE BLOCK ADDRESS 0x24fb ===
  0x24fb	imul   	eax, eax, 0
  0x24fe	dec    	eax
  0x24ff	lea    	ecx, [0x2b7b]
  0x2505	dec    	eax
  0x2506	mov    	dword ptr [ecx + eax], 2
  === BLOCK LINK ===
    0x250d
=== CODE BLOCK END ===

=== CODE BLOCK ADDRESS 0x250d ===
  0x250d	mov    	eax, 8
  0x2512	dec    	eax
  0x2513	imul   	eax, eax, 1
  0x2516	dec    	eax
  0x2517	lea    	ecx, [0x2b63]
  === BLOCK LINK ===
    0x251d
=== CODE BLOCK END ===

=== CODE BLOCK ADDRESS 0x251d ===
  0x251d	dec    	eax
  0x251e	mov    	edx, dword ptr [0x2ae4]
  0x2524	dec    	eax
  0x2525	mov    	dword ptr [ecx + eax], edx
  0x2528	mov    	eax, 8
  === BLOCK LINK ===
    0x252d
=== CODE BLOCK END ===

=== CODE BLOCK ADDRESS 0x252d ===
  0x252d	dec    	eax
  0x252e	imul   	eax, eax, 2
  0x2531	dec    	eax
  0x2532	lea    	ecx, [0x2b48]
  0x2538	dec    	eax
  === BLOCK LINK ===
    0x2539
=== CODE BLOCK END ===

=== CODE BLOCK ADDRESS 0x2539 ===
  0x2539	mov    	edx, dword ptr [0x2ad1]
  0x253f	dec    	eax
  0x2540	mov    	dword ptr [ecx + eax], edx
  0x2543	mov    	eax, 8
  0x2548	dec    	eax
  === BLOCK LINK ===
    0x2549
=== CODE BLOCK END ===

=== CODE BLOCK ADDRESS 0x2549 ===
  0x2549	imul   	eax, eax, 0
  0x254c	dec    	eax
  0x254d	mov    	ecx, dword ptr [0x2ab5]
  0x2553	dec    	eax
  0x2554	mov    	dword ptr [esp + eax + 0x68], ecx
  === BLOCK LINK ===
    0x2558
=== CODE BLOCK END ===

=== CODE BLOCK ADDRESS 0x2558 ===
  0x2558	mov    	eax, 8
  0x255d	dec    	eax
  0x255e	imul   	eax, eax, 1
  0x2561	dec    	eax
  0x2562	mov    	ecx, dword ptr [0x2aa8]
  === BLOCK LINK ===
    0x2568
=== CODE BLOCK END ===

=== CODE BLOCK ADDRESS 0x2568 ===
  0x2568	dec    	eax
  0x2569	mov    	dword ptr [esp + eax + 0x68], ecx
  0x256d	dec    	eax
  0x256e	lea    	ecx, [0xa8c]
  0x2574	call   	0x23cc
  === BLOCK LINK ===
    0x2579
=== CODE BLOCK END ===

=== CODE BLOCK ADDRESS 0x2579 ===
  0x2579	dec    	eax
  0x257a	add    	esp, 0x88
  0x2580	ret    	
  0x2581	int3   	
  0x2582	int3   	
  === BLOCK LINK ===
    0x2583
=== CODE BLOCK END ===

=== CODE BLOCK ADDRESS 0x2583 ===
  0x2583	int3   	
  0x2584	int3   	
  0x2585	int3   	
  0x2586	int3   	
  0x2587	int3   	
  === BLOCK LINK ===
    0x2588
=== CODE BLOCK END ===

=== CODE BLOCK ADDRESS 0x2588 ===
  0x2588	int3   	
  0x2589	int3   	
  0x258a	int3   	
  0x258b	int3   	
  0x258c	int3   	
  === BLOCK LINK ===
    0x258d
=== CODE BLOCK END ===

=== CODE BLOCK ADDRESS 0x258d ===
  0x258d	int3   	
  0x258e	int3   	
  0x258f	int3   	
  0x2590	int3   	
  0x2591	int3   	
  === BLOCK LINK ===
    0x2592
=== CODE BLOCK END ===

=== CODE BLOCK ADDRESS 0x2592 ===
  0x2592	int3   	
  0x2593	int3   	
  0x2594	int3   	
  0x2595	int3   	
  0x2596	int3   	
  === BLOCK LINK ===
    0x2597
=== CODE BLOCK END ===

=== CODE BLOCK ADDRESS 0x2597 ===
  0x2597	int3   	
  0x2598	dec    	eax
  0x2599	sub    	esp, 0x28
  0x259c	dec    	ebp
  0x259d	mov    	eax, dword ptr [ecx + 0x38]
  === BLOCK LINK ===
    0x25a0
=== CODE BLOCK END ===

=== CODE BLOCK ADDRESS 0x25a0 ===
  0x25a0	dec    	eax
  0x25a1	mov    	ecx, edx
  0x25a3	dec    	ecx
  0x25a4	mov    	edx, ecx
  0x25a6	call   	0x25bc
  === BLOCK LINK ===
    0x25ab
=== CODE BLOCK END ===

=== CODE BLOCK ADDRESS 0x25ab ===
  0x25ab	mov    	eax, 1
  0x25b0	dec    	eax
  0x25b1	add    	esp, 0x28
  0x25b4	ret    	
  0x25b5	int3   	
  === BLOCK LINK ===
    0x25b6
=== CODE BLOCK END ===

=== CODE BLOCK ADDRESS 0x261d ===
=== CODE BLOCK END ===

=== CODE BLOCK ADDRESS 0x25b6 ===
  0x25b6	int3   	
  0x25b7	int3   	
  0x25b8	int3   	
  0x25b9	int3   	
  0x25ba	int3   	
  === BLOCK LINK ===
    0x25bb
=== CODE BLOCK END ===

=== CODE BLOCK ADDRESS 0x25bb ===
  0x25bb	int3   	
  0x25bc	inc    	eax
  0x25bd	push   	ebx
  0x25be	inc    	ebp
  0x25bf	mov    	ebx, dword ptr [eax]
  === BLOCK LINK ===
    0x25c1
=== CODE BLOCK END ===

=== CODE BLOCK ADDRESS 0x25c1 ===
  0x25c1	dec    	eax
  0x25c2	mov    	ebx, edx
  0x25c4	inc    	ecx
  0x25c5	and    	ebx, 0xfffffff8
  0x25c8	dec    	esp
  === BLOCK LINK ===
    0x25c9
=== CODE BLOCK END ===

=== CODE BLOCK ADDRESS 0x25c9 ===
  0x25c9	mov    	ecx, ecx
  0x25cb	inc    	ecx
  0x25cc	test   	byte ptr [eax], 4
  0x25cf	dec    	esp
  0x25d0	mov    	edx, ecx
  === BLOCK LINK ===
    0x25d2
=== CODE BLOCK END ===

=== CODE BLOCK ADDRESS 0x25d2 ===
  0x25d2	je     	0x25e7
  === BLOCK LINK ===
    0x25d4
=== CODE BLOCK END ===

=== CODE BLOCK ADDRESS 0x25d4 ===
  0x25d4	inc    	ecx
  0x25d5	mov    	eax, dword ptr [eax + 8]
  0x25d8	dec    	ebp
  0x25d9	arpl   	word ptr [eax + 4], dx
  0x25dc	neg    	eax
  === BLOCK LINK ===
    0x25de
=== CODE BLOCK END ===

=== CODE BLOCK ADDRESS 0x25de ===
  0x25de	dec    	esp
  0x25df	add    	edx, ecx
  0x25e1	dec    	eax
  0x25e2	arpl   	ax, cx
  0x25e4	dec    	esp
  === BLOCK LINK ===
    0x25e5
=== CODE BLOCK END ===

=== CODE BLOCK ADDRESS 0x25e5 ===
  0x25e5	and    	edx, ecx
  0x25e7	dec    	ecx
  0x25e8	arpl   	bx, ax
  0x25ea	dec    	edx
  0x25eb	mov    	edx, dword ptr [eax + edx]
  === BLOCK LINK ===
    0x25ee
=== CODE BLOCK END ===

=== CODE BLOCK ADDRESS 0x25ee ===
  0x25ee	dec    	eax
  0x25ef	mov    	eax, dword ptr [ebx + 0x10]
  0x25f2	mov    	ecx, dword ptr [eax + 8]
  0x25f5	dec    	eax
  0x25f6	mov    	eax, dword ptr [ebx + 8]
  === BLOCK LINK ===
    0x25f9
=== CODE BLOCK END ===

=== CODE BLOCK ADDRESS 0x25f9 ===
  0x25f9	test   	byte ptr [ecx + eax + 3], 0xf
  0x25fe	je     	0x260b
  === BLOCK LINK ===
    0x2600
=== CODE BLOCK END ===

=== CODE BLOCK ADDRESS 0x2600 ===
  0x2600	movzx  	eax, byte ptr [ecx + eax + 3]
  0x2605	and    	eax, 0xfffffff0
  0x2608	dec    	esp
  0x2609	add    	ecx, eax
  0x260b	dec    	esp
  === BLOCK LINK ===
    0x260c
=== CODE BLOCK END ===

=== CODE BLOCK ADDRESS 0x260c ===
  0x260c	xor    	ecx, edx
  0x260e	dec    	ecx
  0x260f	mov    	ecx, ecx
  0x2611	pop    	ebx
  0x2612	jmp    	0x2080
  === BLOCK LINK ===
    0x2617
=== CODE BLOCK END ===

=== CODE BLOCK ADDRESS 0x2617 ===
  0x2617	int3   	
  0x2618	int3   	
  0x2619	int3   	
  0x261a	int3   	
  0x261b	int3   	
  === BLOCK LINK ===
    0x261c
=== CODE BLOCK END ===

=== CODE BLOCK ADDRESS 0x261c ===
  0x261c	int3   	
  0x261d	jmp    	dword ptr [0xcbd]
  === BLOCK LINK ===
    0x2623
=== CODE BLOCK END ===

=== CODE BLOCK ADDRESS 0x2623 ===
  0x2623	int3   	
  0x2624	int3   	
  0x2625	int3   	
  0x2626	int3   	
  0x2627	int3   	
  === BLOCK LINK ===
    0x2628
=== CODE BLOCK END ===

=== CODE BLOCK ADDRESS 0x2628 ===
  0x2628	int3   	
  0x2629	jmp    	dword ptr [0xcf9]
  === BLOCK LINK ===
    0x262f
=== CODE BLOCK END ===

=== CODE BLOCK ADDRESS 0x262f ===
  0x262f	int3   	
  0x2630	int3   	
  0x2631	int3   	
  0x2632	int3   	
  0x2633	int3   	
  === BLOCK LINK ===
    0x2634
=== CODE BLOCK END ===

=== CODE BLOCK ADDRESS 0x2634 ===
  0x2634	int3   	
  0x2635	int3   	
  0x2636	nop    	word ptr [eax + eax]
  0x2640	jmp    	eax
  === BLOCK LINK ===
    0x2642
=== CODE BLOCK END ===

=== CODE BLOCK ADDRESS 0x2642 ===
  0x2642	int3   	
  0x2643	int3   	
  0x2644	int3   	
  0x2645	int3   	
  0x2646	int3   	
  === BLOCK LINK ===
    0x2647
=== CODE BLOCK END ===

=== CODE BLOCK ADDRESS 0x2647 ===
  0x2647	int3   	
  0x2648	int3   	
  0x2649	int3   	
  0x264a	int3   	
  0x264b	int3   	
  === BLOCK LINK ===
    0x264c
=== CODE BLOCK END ===

=== CODE BLOCK ADDRESS 0x264c ===
  0x264c	int3   	
  0x264d	int3   	
  0x264e	int3   	
  0x264f	int3   	
  0x2650	inc    	eax
  === BLOCK LINK ===
    0x2651
=== CODE BLOCK END ===

=== CODE BLOCK ADDRESS 0x2651 ===
  0x2651	push   	ebp
  0x2652	dec    	eax
  0x2653	sub    	esp, 0x20
  0x2656	dec    	eax
  0x2657	mov    	ebp, edx
  === BLOCK LINK ===
    0x2659
=== CODE BLOCK END ===

=== CODE BLOCK ADDRESS 0x2659 ===
  0x2659	dec    	eax
  0x265a	mov    	eax, dword ptr [ecx]
  0x265c	dec    	eax
  0x265d	mov    	edx, ecx
  0x265f	mov    	ecx, dword ptr [eax]
  === BLOCK LINK ===
    0x2661
=== CODE BLOCK END ===

=== CODE BLOCK ADDRESS 0x2661 ===
  0x2661	call   	0x210e
  === BLOCK LINK ===
    0x2666
=== CODE BLOCK END ===

=== CODE BLOCK ADDRESS 0x2666 ===
  0x2666	nop    	
  0x2667	dec    	eax
  0x2668	add    	esp, 0x20
  0x266b	pop    	ebp
  0x266c	ret    	
  === BLOCK LINK ===
    0x266d
=== CODE BLOCK END ===

=== CODE BLOCK ADDRESS 0x1008 ===
  0x1008	inc    	eax
  0x1009	push   	ebp
  === BLOCK LINK ===
    0x100a
=== CODE BLOCK END ===

=== CODE BLOCK ADDRESS 0x266d ===
  0x266d	int3   	
  0x266e	int3   	
  0x266f	int3   	
  0x2670	int3   	
  0x2671	int3   	
  === BLOCK LINK ===
    0x2672
=== CODE BLOCK END ===

=== CODE BLOCK ADDRESS 0x2672 ===
  0x2672	int3   	
  0x2673	int3   	
  0x2674	int3   	
  0x2675	int3   	
  0x2676	int3   	
  === BLOCK LINK ===
    0x2677
=== CODE BLOCK END ===

=== CODE BLOCK ADDRESS 0x2677 ===
  0x2677	int3   	
  0x2678	int3   	
  0x2679	int3   	
  0x267a	int3   	
  0x267b	int3   	
  === BLOCK LINK ===
    0x267c
=== CODE BLOCK END ===

=== CODE BLOCK ADDRESS 0x267c ===
  0x267c	int3   	
  0x267d	int3   	
  0x267e	int3   	
  0x267f	int3   	
  0x2680	inc    	eax
  === BLOCK LINK ===
    0x2681
=== CODE BLOCK END ===

=== CODE BLOCK ADDRESS 0x2681 ===
  0x2681	push   	ebp
  0x2682	dec    	eax
  0x2683	sub    	esp, 0x20
  0x2686	dec    	eax
  0x2687	mov    	ebp, edx
  === BLOCK LINK ===
    0x2689
=== CODE BLOCK END ===

=== CODE BLOCK ADDRESS 0x2689 ===
  0x2689	dec    	eax
  0x268a	mov    	eax, dword ptr [ecx]
  0x268c	xor    	ecx, ecx
  0x268e	cmp    	dword ptr [eax], 0xc0000005
  0x2694	sete   	cl
  === BLOCK LINK ===
    0x2697
=== CODE BLOCK END ===

=== CODE BLOCK ADDRESS 0x2697 ===
  0x2697	mov    	eax, ecx
  0x2699	dec    	eax
  0x269a	add    	esp, 0x20
  0x269d	pop    	ebp
  0x269e	ret    	
  === BLOCK LINK ===
    0x269f
=== CODE BLOCK END ===

=== CODE BLOCK ADDRESS 0x269f ===
  0x269f	int3   	
  0x26a0	add    	byte ptr [eax], al
  0x26a2	add    	byte ptr [eax], al
  0x26a4	add    	byte ptr [eax], al
  0x26a6	add    	byte ptr [eax], al
  === BLOCK LINK ===
    0x26a8
=== CODE BLOCK END ===

=== CODE BLOCK ADDRESS 0x26a8 ===
  0x26a8	add    	byte ptr [eax], al
  0x26aa	add    	byte ptr [eax], al
  0x26ac	add    	byte ptr [eax], al
  0x26ae	add    	byte ptr [eax], al
  0x26b0	add    	byte ptr [eax], al
  === BLOCK LINK ===
    0x26b2
=== CODE BLOCK END ===

=== CODE BLOCK ADDRESS 0x26b2 ===
  0x26b2	add    	byte ptr [eax], al
  0x26b4	add    	byte ptr [eax], al
  0x26b6	add    	byte ptr [eax], al
  0x26b8	add    	byte ptr [eax], al
  0x26ba	add    	byte ptr [eax], al
  === BLOCK LINK ===
    0x26bc
=== CODE BLOCK END ===

=== CODE BLOCK ADDRESS 0x26bc ===
  0x26bc	add    	byte ptr [eax], al
  0x26be	add    	byte ptr [eax], al
  0x26c0	add    	byte ptr [eax], al
  0x26c2	add    	byte ptr [eax], al
  0x26c4	add    	byte ptr [eax], al
  === BLOCK LINK ===
    0x26c6
=== CODE BLOCK END ===

=== CODE BLOCK ADDRESS 0x26c6 ===
  0x26c6	add    	byte ptr [eax], al
  0x26c8	add    	byte ptr [eax], al
  0x26ca	add    	byte ptr [eax], al
  0x26cc	add    	byte ptr [eax], al
  0x26ce	add    	byte ptr [eax], al
  === BLOCK LINK ===
    0x26d0
=== CODE BLOCK END ===

=== CODE BLOCK ADDRESS 0x26d0 ===
  0x26d0	add    	byte ptr [eax], al
  0x26d2	add    	byte ptr [eax], al
  0x26d4	add    	byte ptr [eax], al
  0x26d6	add    	byte ptr [eax], al
  0x26d8	add    	byte ptr [eax], al
  === BLOCK LINK ===
    0x26da
=== CODE BLOCK END ===

=== CODE BLOCK ADDRESS 0x26da ===
  0x26da	add    	byte ptr [eax], al
  0x26dc	add    	byte ptr [eax], al
  0x26de	add    	byte ptr [eax], al
  0x26e0	add    	byte ptr [eax], al
  0x26e2	add    	byte ptr [eax], al
  === BLOCK LINK ===
    0x26e4
=== CODE BLOCK END ===

=== CODE BLOCK ADDRESS 0x26e4 ===
  0x26e4	add    	byte ptr [eax], al
  0x26e6	add    	byte ptr [eax], al
  0x26e8	add    	byte ptr [eax], al
  0x26ea	add    	byte ptr [eax], al
  0x26ec	add    	byte ptr [eax], al
  === BLOCK LINK ===
    0x26ee
=== CODE BLOCK END ===

=== CODE BLOCK ADDRESS 0x26ee ===
  0x26ee	add    	byte ptr [eax], al
  0x26f0	add    	byte ptr [eax], al
  0x26f2	add    	byte ptr [eax], al
  0x26f4	add    	byte ptr [eax], al
  0x26f6	add    	byte ptr [eax], al
  === BLOCK LINK ===
    0x26f8
=== CODE BLOCK END ===

=== CODE BLOCK ADDRESS 0x26f8 ===
  0x26f8	add    	byte ptr [eax], al
  0x26fa	add    	byte ptr [eax], al
  0x26fc	add    	byte ptr [eax], al
  0x26fe	add    	byte ptr [eax], al
  0x2700	add    	byte ptr [eax], al
  === BLOCK LINK ===
    0x2702
=== CODE BLOCK END ===

=== CODE BLOCK ADDRESS 0x2702 ===
  0x2702	add    	byte ptr [eax], al
  0x2704	add    	byte ptr [eax], al
  0x2706	add    	byte ptr [eax], al
  0x2708	add    	byte ptr [eax], al
  0x270a	add    	byte ptr [eax], al
  === BLOCK LINK ===
    0x270c
=== CODE BLOCK END ===

=== CODE BLOCK ADDRESS 0x270c ===
  0x270c	add    	byte ptr [eax], al
  0x270e	add    	byte ptr [eax], al
  0x2710	add    	byte ptr [eax], al
  0x2712	add    	byte ptr [eax], al
  0x2714	add    	byte ptr [eax], al
  === BLOCK LINK ===
    0x2716
=== CODE BLOCK END ===

=== CODE BLOCK ADDRESS 0x2716 ===
  0x2716	add    	byte ptr [eax], al
  0x2718	add    	byte ptr [eax], al
  0x271a	add    	byte ptr [eax], al
  0x271c	add    	byte ptr [eax], al
  0x271e	add    	byte ptr [eax], al
  === BLOCK LINK ===
    0x2720
=== CODE BLOCK END ===

=== CODE BLOCK ADDRESS 0x2720 ===
  0x2720	add    	byte ptr [eax], al
  0x2722	add    	byte ptr [eax], al
  0x2724	add    	byte ptr [eax], al
  0x2726	add    	byte ptr [eax], al
  0x2728	add    	byte ptr [eax], al
  === BLOCK LINK ===
    0x272a
=== CODE BLOCK END ===

=== CODE BLOCK ADDRESS 0x272a ===
  0x272a	add    	byte ptr [eax], al
  0x272c	add    	byte ptr [eax], al
  0x272e	add    	byte ptr [eax], al
  0x2730	add    	byte ptr [eax], al
  0x2732	add    	byte ptr [eax], al
  === BLOCK LINK ===
    0x2734
=== CODE BLOCK END ===

=== CODE BLOCK ADDRESS 0x2734 ===
  0x2734	add    	byte ptr [eax], al
  0x2736	add    	byte ptr [eax], al
  0x2738	add    	byte ptr [eax], al
  0x273a	add    	byte ptr [eax], al
  0x273c	add    	byte ptr [eax], al
  === BLOCK LINK ===
    0x273e
=== CODE BLOCK END ===

=== CODE BLOCK ADDRESS 0x273e ===
  0x273e	add    	byte ptr [eax], al
  0x2740	add    	byte ptr [eax], al
  0x2742	add    	byte ptr [eax], al
  0x2744	add    	byte ptr [eax], al
  0x2746	add    	byte ptr [eax], al
  === BLOCK LINK ===
    0x2748
=== CODE BLOCK END ===

=== CODE BLOCK ADDRESS 0x2748 ===
  0x2748	add    	byte ptr [eax], al
  0x274a	add    	byte ptr [eax], al
  0x274c	add    	byte ptr [eax], al
  0x274e	add    	byte ptr [eax], al
  0x2750	add    	byte ptr [eax], al
  === BLOCK LINK ===
    0x2752
=== CODE BLOCK END ===

=== CODE BLOCK ADDRESS 0x2752 ===
  0x2752	add    	byte ptr [eax], al
  0x2754	add    	byte ptr [eax], al
  0x2756	add    	byte ptr [eax], al
  0x2758	add    	byte ptr [eax], al
  0x275a	add    	byte ptr [eax], al
  === BLOCK LINK ===
    0x275c
=== CODE BLOCK END ===

=== CODE BLOCK ADDRESS 0x275c ===
  0x275c	add    	byte ptr [eax], al
  0x275e	add    	byte ptr [eax], al
  0x2760	add    	byte ptr [eax], al
  0x2762	add    	byte ptr [eax], al
  0x2764	add    	byte ptr [eax], al
  === BLOCK LINK ===
    0x2766
=== CODE BLOCK END ===

=== CODE BLOCK ADDRESS 0x2766 ===
  0x2766	add    	byte ptr [eax], al
  0x2768	add    	byte ptr [eax], al
  0x276a	add    	byte ptr [eax], al
  0x276c	add    	byte ptr [eax], al
  0x276e	add    	byte ptr [eax], al
  === BLOCK LINK ===
    0x2770
=== CODE BLOCK END ===

=== CODE BLOCK ADDRESS 0x2770 ===
  0x2770	add    	byte ptr [eax], al
  0x2772	add    	byte ptr [eax], al
  0x2774	add    	byte ptr [eax], al
  0x2776	add    	byte ptr [eax], al
  0x2778	add    	byte ptr [eax], al
  === BLOCK LINK ===
    0x277a
=== CODE BLOCK END ===

=== CODE BLOCK ADDRESS 0x277a ===
  0x277a	add    	byte ptr [eax], al
  0x277c	add    	byte ptr [eax], al
  0x277e	add    	byte ptr [eax], al
  0x2780	add    	byte ptr [eax], al
  0x2782	add    	byte ptr [eax], al
  === BLOCK LINK ===
    0x2784
=== CODE BLOCK END ===

=== CODE BLOCK ADDRESS 0x2784 ===
  0x2784	add    	byte ptr [eax], al
  0x2786	add    	byte ptr [eax], al
  0x2788	add    	byte ptr [eax], al
  0x278a	add    	byte ptr [eax], al
  0x278c	add    	byte ptr [eax], al
  === BLOCK LINK ===
    0x278e
=== CODE BLOCK END ===

=== CODE BLOCK ADDRESS 0x278e ===
  0x278e	add    	byte ptr [eax], al
  0x2790	add    	byte ptr [eax], al
  0x2792	add    	byte ptr [eax], al
  0x2794	add    	byte ptr [eax], al
  0x2796	add    	byte ptr [eax], al
  === BLOCK LINK ===
    0x2798
=== CODE BLOCK END ===

=== CODE BLOCK ADDRESS 0x2798 ===
  0x2798	add    	byte ptr [eax], al
  0x279a	add    	byte ptr [eax], al
  0x279c	add    	byte ptr [eax], al
  0x279e	add    	byte ptr [eax], al
  0x27a0	add    	byte ptr [eax], al
  === BLOCK LINK ===
    0x27a2
=== CODE BLOCK END ===

=== CODE BLOCK ADDRESS 0x27a2 ===
  0x27a2	add    	byte ptr [eax], al
  0x27a4	add    	byte ptr [eax], al
  0x27a6	add    	byte ptr [eax], al
  0x27a8	add    	byte ptr [eax], al
  0x27aa	add    	byte ptr [eax], al
  === BLOCK LINK ===
    0x27ac
=== CODE BLOCK END ===

=== CODE BLOCK ADDRESS 0x27ac ===
  0x27ac	add    	byte ptr [eax], al
  0x27ae	add    	byte ptr [eax], al
  0x27b0	add    	byte ptr [eax], al
  0x27b2	add    	byte ptr [eax], al
  0x27b4	add    	byte ptr [eax], al
  === BLOCK LINK ===
    0x27b6
=== CODE BLOCK END ===

=== CODE BLOCK ADDRESS 0x27b6 ===
  0x27b6	add    	byte ptr [eax], al
  0x27b8	add    	byte ptr [eax], al
  0x27ba	add    	byte ptr [eax], al
  0x27bc	add    	byte ptr [eax], al
  0x27be	add    	byte ptr [eax], al
  === BLOCK LINK ===
    0x27c0
=== CODE BLOCK END ===

=== CODE BLOCK ADDRESS 0x27c0 ===
  0x27c0	add    	byte ptr [eax], al
  0x27c2	add    	byte ptr [eax], al
  0x27c4	add    	byte ptr [eax], al
  0x27c6	add    	byte ptr [eax], al
  0x27c8	add    	byte ptr [eax], al
  === BLOCK LINK ===
    0x27ca
=== CODE BLOCK END ===

=== CODE BLOCK ADDRESS 0x27ca ===
  0x27ca	add    	byte ptr [eax], al
  0x27cc	add    	byte ptr [eax], al
  0x27ce	add    	byte ptr [eax], al
  0x27d0	add    	byte ptr [eax], al
  0x27d2	add    	byte ptr [eax], al
  === BLOCK LINK ===
    0x27d4
=== CODE BLOCK END ===

=== CODE BLOCK ADDRESS 0x27d4 ===
  0x27d4	add    	byte ptr [eax], al
  0x27d6	add    	byte ptr [eax], al
  0x27d8	add    	byte ptr [eax], al
  0x27da	add    	byte ptr [eax], al
  0x27dc	add    	byte ptr [eax], al
  === BLOCK LINK ===
    0x27de
=== CODE BLOCK END ===

=== CODE BLOCK ADDRESS 0x27de ===
  0x27de	add    	byte ptr [eax], al
  0x27e0	add    	byte ptr [eax], al
  0x27e2	add    	byte ptr [eax], al
  0x27e4	add    	byte ptr [eax], al
  0x27e6	add    	byte ptr [eax], al
  === BLOCK LINK ===
    0x27e8
=== CODE BLOCK END ===

=== CODE BLOCK ADDRESS 0x27e8 ===
  0x27e8	add    	byte ptr [eax], al
  0x27ea	add    	byte ptr [eax], al
  0x27ec	add    	byte ptr [eax], al
  0x27ee	add    	byte ptr [eax], al
  0x27f0	add    	byte ptr [eax], al
  === BLOCK LINK ===
    0x27f2
=== CODE BLOCK END ===

=== CODE BLOCK ADDRESS 0x27f2 ===
  0x27f2	add    	byte ptr [eax], al
  0x27f4	add    	byte ptr [eax], al
  0x27f6	add    	byte ptr [eax], al
  0x27f8	add    	byte ptr [eax], al
  0x27fa	add    	byte ptr [eax], al
  === BLOCK LINK ===
    0x27fc
=== CODE BLOCK END ===

=== CODE BLOCK ADDRESS 0x27fc ===
  0x27fc	add    	byte ptr [eax], al
=== CODE BLOCK END ===

=== DATA BLOCK ADDRESS 0x3000 ===
  0x3000	60 50 00 40 01 00 00 00 00 51 00 40 01 00 00 00 	`P0@00000Q0@0000
  0x3010	18 01 00 00 00 00 00 00 00 00 00 00 00 00 00 00 	0000000000000000
  0x3020	00 00 00 00 00 00 00 00 00 00 00 00 00 00 00 00 	0000000000000000
  0x3030	00 00 00 00 00 00 00 00 00 00 00 00 00 00 00 00 	0000000000000000
  0x3040	00 00 00 00 00 00 00 00 00 00 00 00 00 00 00 00 	0000000000000000
  0x3050	00 00 00 00 00 00 00 00 00 00 00 00 00 00 00 00 	0000000000000000
  0x3060	00 00 00 00 00 00 00 00 08 50 00 40 01 00 00 00 	000000000P0@0000
  0x3070	00 00 00 00 00 00 00 00 00 00 00 00 00 00 00 00 	0000000000000000
  0x3080	58 33 00 40 01 00 00 00 60 33 00 40 01 00 00 00 	X30@0000`30@0000
  0x3090	ac 33 00 40 01 00 00 00 08 00 00 00 00 00 00 00 	030@000000000000
  0x30a0	00 75 41 00 00 00 00 00 00 00 00 00 00 00 00 00 	0uA0000000000000
  0x30b0	00 00 00 00 00 00 00 00 00 00 00 00 00 00 00 00 	0000000000000000
  0x30c0	00 00 00 00 00 00 00 00 00 00 00 00 00 00 00 00 	0000000000000000
  0x30d0	00 00 00 00 00 00 00 00 00 00 00 00 00 00 00 00 	0000000000000000
  0x30e0	00 00 00 00 00 00 00 00 00 00 00 00 00 00 00 00 	0000000000000000
  0x30f0	00 00 00 00 00 00 00 00 00 00 00 00 00 00 00 00 	0000000000000000
  0x3100	00 00 00 00 00 00 00 00 00 00 00 00 00 00 00 00 	0000000000000000
  0x3110	00 00 00 00 00 00 00 00 a0 33 00 40 01 00 00 00 	00000000030@0000
  0x3120	03 00 00 00 00 00 00 00 e0 3c 00 00 00 00 00 00 	000000000<000000
  0x3130	f0 3c 00 00 00 00 00 00 04 3d 00 00 00 00 00 00 	0<0000000=000000
  0x3140	12 3d 00 00 00 00 00 00 1e 3d 00 00 00 00 00 00 	0=0000000=000000
  0x3150	2c 3d 00 00 00 00 00 00 3e 3d 00 00 00 00 00 00 	,=000000>=000000
  0x3160	4a 3d 00 00 00 00 00 00 5c 3d 00 00 00 00 00 00 	J=0000000=000000
  0x3170	70 3d 00 00 00 00 00 00 80 3d 00 00 00 00 00 00 	p=0000000=000000
  0x3180	90 3d 00 00 00 00 00 00 a2 3d 00 00 00 00 00 00 	0=0000000=000000
  0x3190	ae 3d 00 00 00 00 00 00 be 3d 00 00 00 00 00 00 	0=0000000=000000
  0x31a0	ce 3d 00 00 00 00 00 00 ea 3d 00 00 00 00 00 00 	0=0000000=000000
  0x31b0	fc 3d 00 00 00 00 00 00 12 3e 00 00 00 00 00 00 	0=0000000>000000
  0x31c0	20 3e 00 00 00 00 00 00 96 40 00 00 00 00 00 00 	 >0000000@000000
  0x31d0	80 40 00 00 00 00 00 00 66 40 00 00 00 00 00 00 	0@000000f@000000
  0x31e0	48 40 00 00 00 00 00 00 36 40 00 00 00 00 00 00 	H@0000006@000000
  0x31f0	2e 40 00 00 00 00 00 00 c6 40 00 00 00 00 00 00 	.@0000000@000000
  0x3200	d6 40 00 00 00 00 00 00 f2 40 00 00 00 00 00 00 	0@0000000@000000
  0x3210	06 41 00 00 00 00 00 00 ac 40 00 00 00 00 00 00 	0A0000000@000000
  0x3220	00 00 00 00 00 00 00 00 06 00 00 00 00 00 00 80 	0000000000000000
  0x3230	07 00 00 00 00 00 00 80 02 00 00 00 00 00 00 80 	0000000000000000
  0x3240	09 00 00 00 00 00 00 80 08 00 00 00 00 00 00 80 	0000000000000000
  0x3250	00 00 00 00 00 00 00 00 7c 3f 00 00 00 00 00 00 	00000000|?000000
  0x3260	00 00 00 00 00 00 00 00 9e 3f 00 00 00 00 00 00 	000000000?000000
  0x3270	b6 3f 00 00 00 00 00 00 00 00 00 00 00 00 00 00 	0?00000000000000
  0x3280	fa 3f 00 00 00 00 00 00 d6 3f 00 00 00 00 00 00 	0?0000000?000000
  0x3290	e8 3f 00 00 00 00 00 00 00 00 00 00 00 00 00 00 	0?00000000000000
  0x32a0	f6 3e 00 00 00 00 00 00 aa 3e 00 00 00 00 00 00 	0>0000000>000000
  0x32b0	0e 3f 00 00 00 00 00 00 ca 3e 00 00 00 00 00 00 	0?0000000>000000
  0x32c0	7e 3e 00 00 00 00 00 00 90 3e 00 00 00 00 00 00 	~>0000000>000000
  0x32d0	98 3e 00 00 00 00 00 00 a0 3e 00 00 00 00 00 00 	0>0000000>000000
  0x32e0	1a 41 00 00 00 00 00 00 e2 3e 00 00 00 00 00 00 	0A0000000>000000
  0x32f0	6c 3e 00 00 00 00 00 00 5e 3e 00 00 00 00 00 00 	l>000000^>000000
  0x3300	50 3e 00 00 00 00 00 00 48 3e 00 00 00 00 00 00 	P>000000H>000000
  0x3310	3a 3e 00 00 00 00 00 00 be 3e 00 00 00 00 00 00 	:>0000000>000000
  0x3320	ec 3e 00 00 00 00 00 00 24 41 00 00 00 00 00 00 	0>000000$A000000
  0x3330	00 00 00 00 00 00 00 00 22 3f 00 00 00 00 00 00 	00000000"?000000
  0x3340	36 3f 00 00 00 00 00 00 50 3f 00 00 00 00 00 00 	6?000000P?000000
  0x3350	00 00 00 00 00 00 00 00 c0 23 00 40 01 00 00 00 	000000000#0@0000
  0x3360	40 26 00 40 01 00 00 00 00 00 00 00 00 00 00 00 	@&0@000000000000
  0x3370	90 1d 00 40 01 00 00 00 00 00 00 00 00 00 00 00 	000@000000000000
  0x3380	00 00 00 00 00 00 00 00 b0 1c 00 40 01 00 00 00 	00000000000@0000
  0x3390	f0 20 00 40 01 00 00 00 00 00 00 00 00 00 00 00 	0 0@000000000000
  0x33a0	f9 1f 00 00 62 21 00 00 70 22 00 00 b0 1c 00 00 	0000b!00p"000000
  0x33b0	90 1d 00 00 50 20 00 00 b0 20 00 00 f0 20 00 00 	0000P 000 000 00
  0x33c0	d0 21 00 00 c0 23 00 00 10 24 00 00 00 00 00 00 	0!000#000$000000
  0x33d0	50 00 43 00 57 00 00 00 2e 00 78 00 6d 00 6c 00 	P0C0W000.0x0m0l0
  0x33e0	00 00 00 00 00 00 00 00 00 00 00 00 00 00 00 00 	0000000000000000
  0x33f0	2f 00 41 00 6e 00 73 00 77 00 65 00 72 00 73 00 	/0A0n0s0w0e0r0s0
  0x3400	2f 00 49 00 6e 00 74 00 65 00 72 00 61 00 63 00 	/0I0n0t0e0r0a0c0
  0x3410	74 00 69 00 6f 00 6e 00 5b 00 40 00 49 00 44 00 	t0i0o0n0[0@0I0D0
  0x3420	3d 00 27 00 49 00 54 00 5f 00 42 00 72 00 6f 00 	=0'0I0T0_0B0r0o0
  0x3430	77 00 73 00 65 00 46 00 6f 00 72 00 46 00 69 00 	w0s0e0F0o0r0F0i0
  0x3440	6c 00 65 00 27 00 5d 00 2f 00 56 00 61 00 6c 00 	l0e0'0]0/0V0a0l0
  0x3450	75 00 65 00 00 00 00 00 00 00 00 00 00 00 00 00 	u0e0000000000000
  0x3460	2f 00 41 00 6e 00 73 00 77 00 65 00 72 00 73 00 	/0A0n0s0w0e0r0s0
  0x3470	2f 00 49 00 6e 00 74 00 65 00 72 00 61 00 63 00 	/0I0n0t0e0r0a0c0
  0x3480	74 00 69 00 6f 00 6e 00 5b 00 40 00 49 00 44 00 	t0i0o0n0[0@0I0D0
  0x3490	3d 00 27 00 49 00 54 00 5f 00 4c 00 61 00 75 00 	=0'0I0T0_0L0a0u0
  0x34a0	6e 00 63 00 68 00 4d 00 65 00 74 00 68 00 6f 00 	n0c0h0M0e0t0h0o0
  0x34b0	64 00 27 00 5d 00 2f 00 56 00 61 00 6c 00 75 00 	d0'0]0/0V0a0l0u0
  0x34c0	65 00 00 00 00 00 00 00 25 00 77 00 69 00 6e 00 	e0000000%0w0i0n0
  0x34d0	64 00 69 00 72 00 25 00 5c 00 53 00 79 00 73 00 	d0i0r0%000S0y0s0
  0x34e0	74 00 65 00 6d 00 33 00 32 00 5c 00 6d 00 73 00 	t0e0m0302000m0s0
  0x34f0	64 00 74 00 2e 00 65 00 78 00 65 00 00 00 00 00 	d0t0.0e0x0e00000
  0x3500	25 00 77 00 69 00 6e 00 64 00 69 00 72 00 25 00 	%0w0i0n0d0i0r0%0
  0x3510	5c 00 64 00 69 00 61 00 67 00 6e 00 6f 00 73 00 	00d0i0a0g0n0o0s0
  0x3520	74 00 69 00 63 00 73 00 5c 00 69 00 6e 00 64 00 	t0i0c0s000i0n0d0
  0x3530	65 00 78 00 5c 00 50 00 43 00 57 00 44 00 69 00 	e0x000P0C0W0D0i0
  0x3540	61 00 67 00 6e 00 6f 00 73 00 74 00 69 00 63 00 	a0g0n0o0s0t0i0c0
  0x3550	2e 00 78 00 6d 00 6c 00 00 00 00 00 00 00 00 00 	.0x0m0l000000000
  0x3560	25 00 6c 00 73 00 20 00 2d 00 70 00 61 00 74 00 	%0l0s0 0-0p0a0t0
  0x3570	68 00 20 00 25 00 6c 00 73 00 20 00 2d 00 61 00 	h0 0%0l0s0 0-0a0
  0x3580	66 00 20 00 25 00 6c 00 73 00 20 00 2f 00 73 00 	f0 0%0l0s0 0/0s0
  0x3590	6b 00 69 00 70 00 20 00 54 00 52 00 55 00 45 00 	k0i0p0 0T0R0U0E0
  0x35a0	00 00 00 00 00 00 00 00 2e 00 74 00 6d 00 70 00 	00000000.0t0m0p0
  0x35b0	00 00 00 00 00 00 00 00 81 bf 33 29 36 7b d2 11 	00000000003)6{00
  0x35c0	b2 0e 00 c0 4f 98 3e 60 05 6a d9 88 92 f1 d4 11 	0000O0>`0j000000
  0x35d0	a6 5f 00 40 96 32 51 e5 00 00 00 00 00 00 00 00 	0_0@02Q000000000
  0x35e0	00 00 00 00 2a 20 66 ae 00 00 00 00 02 00 00 00 	0000* f000000000
  0x35f0	23 00 00 00 34 36 00 00 34 22 00 00 00 00 00 00 	#00046004"000000
  0x3600	2a 20 66 ae 00 00 00 00 0d 00 00 00 04 02 00 00 	* f0000000000000
  0x3610	58 36 00 00 58 22 00 00 00 00 00 00 2a 20 66 ae 	X600X"000000* f0
  0x3620	00 00 00 00 10 00 00 00 24 00 00 00 5c 38 00 00 	00000000$0000800
  0x3630	5c 24 00 00 52 53 44 53 2f 59 f8 be 16 92 0d d8 	0$00RSDS/Y000000
  0x3640	a1 f8 be a2 04 0b 43 80 01 00 00 00 70 63 77 72 	000000C00000pcwr
  0x3650	75 6e 2e 70 64 62 00 00 47 43 54 4c 00 10 00 00 	un.pdb00GCTL0000
  0x3660	30 16 00 00 2e 74 65 78 74 24 6d 6e 00 00 00 00 	0000.text$mn0000
  0x3670	30 26 00 00 20 00 00 00 2e 74 65 78 74 24 6d 6e 	0&00 000.text$mn
  0x3680	24 30 30 00 50 26 00 00 50 00 00 00 2e 74 65 78 	$000P&00P000.tex
  0x3690	74 24 78 00 00 30 00 00 28 01 00 00 2e 72 64 61 	t$x00000(000.rda
  0x36a0	74 61 24 62 72 63 00 00 28 31 00 00 30 02 00 00 	ta$brc00(1000000
  0x36b0	2e 69 64 61 74 61 24 35 00 00 00 00 58 33 00 00 	.idata$50000X300
  0x36c0	10 00 00 00 2e 30 30 63 66 67 00 00 68 33 00 00 	0000.00cfg00h300
  0x36d0	08 00 00 00 2e 43 52 54 24 58 43 41 00 00 00 00 	0000.CRT$XCA0000
  0x36e0	70 33 00 00 08 00 00 00 2e 43 52 54 24 58 43 41 	p3000000.CRT$XCA
  0x36f0	41 00 00 00 78 33 00 00 08 00 00 00 2e 43 52 54 	A000x3000000.CRT
  0x3700	24 58 43 5a 00 00 00 00 80 33 00 00 08 00 00 00 	$XCZ000003000000
  0x3710	2e 43 52 54 24 58 49 41 00 00 00 00 88 33 00 00 	.CRT$XIA00000300
  0x3720	08 00 00 00 2e 43 52 54 24 58 49 41 41 00 00 00 	0000.CRT$XIAA000
  0x3730	90 33 00 00 08 00 00 00 2e 43 52 54 24 58 49 59 	03000000.CRT$XIY
  0x3740	00 00 00 00 98 33 00 00 08 00 00 00 2e 43 52 54 	000003000000.CRT
  0x3750	24 58 49 5a 00 00 00 00 a0 33 00 00 0c 00 00 00 	$XIZ000003000000
  0x3760	2e 67 65 68 63 6f 6e 74 00 00 00 00 ac 33 00 00 	.gehcont00000300
  0x3770	24 00 00 00 2e 67 66 69 64 73 00 00 d0 33 00 00 	$000.gfids000300
  0x3780	64 02 00 00 2e 72 64 61 74 61 00 00 34 36 00 00 	d000.rdata004600
  0x3790	4c 02 00 00 2e 72 64 61 74 61 24 7a 7a 7a 64 62 	L000.rdata$zzzdb
  0x37a0	67 00 00 00 80 38 00 00 90 01 00 00 2e 78 64 61 	g00008000000.xda
  0x37b0	74 61 00 00 10 3a 00 00 8c 00 00 00 2e 69 64 61 	ta000:000000.ida
  0x37c0	74 61 24 32 00 00 00 00 9c 3a 00 00 14 00 00 00 	ta$200000:000000
  0x37d0	2e 69 64 61 74 61 24 33 00 00 00 00 b0 3a 00 00 	.idata$300000:00
  0x37e0	30 02 00 00 2e 69 64 61 74 61 24 34 00 00 00 00 	0000.idata$40000
  0x37f0	e0 3c 00 00 4e 04 00 00 2e 69 64 61 74 61 24 36 	0<00N000.idata$6
  0x3800	00 00 00 00 00 50 00 00 20 00 00 00 2e 64 61 74 	00000P00 000.dat
  0x3810	61 00 00 00 20 50 00 00 60 06 00 00 2e 62 73 73 	a000 P00`000.bss
  0x3820	00 00 00 00 00 60 00 00 44 01 00 00 2e 70 64 61 	00000`00D000.pda
  0x3830	74 61 00 00 00 70 00 00 f0 00 00 00 2e 72 73 72 	ta000p000000.rsr
  0x3840	63 24 30 31 00 00 00 00 f0 70 00 00 58 09 00 00 	c$0100000p00X000
  0x3850	2e 72 73 72 63 24 30 32 00 00 00 00 20 00 00 00 	.rsrc$020000 000
  0x3860	2f 59 f8 be 16 92 0d d8 a1 f8 be a2 04 0b 43 80 	/Y000000000000C0
  0x3870	ee b5 2b 18 b6 7c e4 13 7b 15 39 7e 2a 20 66 ae 	00+00|00{09~* f0
  0x3880	19 2d 0a 00 1c 01 57 00 0d f0 0b e0 09 d0 07 c0 	0-0000W000000000
  0x3890	05 70 04 60 03 30 02 50 98 25 00 00 a0 02 00 00 	0p0`000P0%000000
  0x38a0	01 1c 0c 00 1c 64 0c 00 1c 54 0b 00 1c 34 0a 00 	00000d000T000400
  0x38b0	1c 32 18 f0 16 e0 14 d0 12 c0 10 70 01 1b 0a 00 	02000000000p0000
  0x38c0	1b 74 12 00 1b 64 11 00 1b 34 10 00 1b b2 14 e0 	0t000d0004000000
  0x38d0	12 c0 10 50 01 1b 0a 00 1b e4 11 00 1b 74 10 00 	000P000000000t00
  0x38e0	1b 64 0f 00 1b 34 0e 00 1b b2 14 50 01 13 08 00 	0d000400000P0000
  0x38f0	13 54 0b 00 13 34 0a 00 13 52 0f e0 0d 70 0c 60 	0T0004000R000p0`
  0x3900	19 28 07 00 17 34 a8 00 17 01 a2 00 08 70 07 60 	0(00040000000p0`
  0x3910	06 50 00 00 98 25 00 00 00 05 00 00 19 27 09 00 	0P000%0000000'00
  0x3920	15 54 91 00 15 34 90 00 15 01 8c 00 0e e0 0c 70 	0T0004000000000p
  0x3930	0b 60 00 00 98 25 00 00 50 04 00 00 01 12 05 00 	0`000%00P0000000
  0x3940	12 42 0e 70 0d 60 0c 50 0b 30 00 00 01 04 01 00 	0B0p0`0P00000000
  0x3950	04 42 00 00 01 04 01 00 04 62 00 00 09 1c 0b 00 	0B0000000b000000
  0x3960	1c e4 1b 00 1c 74 1a 00 1c 64 19 00 1c 34 18 00 	00000t000d000400
  0x3970	1c 01 16 00 15 f0 00 00 aa 23 00 00 01 00 00 00 	000000000#000000
  0x3980	0f 1e 00 00 f9 1f 00 00 50 26 00 00 f9 1f 00 00 	00000000P&000000
  0x3990	01 06 02 00 06 32 02 50 01 00 00 00 09 04 01 00 	0000020P00000000
  0x39a0	04 22 00 00 aa 23 00 00 01 00 00 00 2c 21 00 00 	0"000#000000,!00
  0x39b0	62 21 00 00 01 00 00 00 62 21 00 00 01 06 02 00 	b!000000b!000000
  0x39c0	06 32 02 30 09 0a 04 00 0a 34 06 00 0a 32 06 70 	020000000400020p
  0x39d0	aa 23 00 00 01 00 00 00 3d 22 00 00 70 22 00 00 	0#000000="00p"00
  0x39e0	80 26 00 00 70 22 00 00 01 0d 04 00 0d 34 09 00 	0&00p"0000000400
  0x39f0	0d 32 06 50 01 0c 02 00 0c 01 11 00 00 00 00 00 	020P000000000000
  0x3a00	01 00 00 00 01 02 01 00 02 30 00 00 00 00 00 00 	0000000000000000
  0x3a10	b0 3a 00 00 00 00 00 00 00 00 00 00 2c 3e 00 00 	0:0000000000,>00
  0x3a20	28 31 00 00 28 3c 00 00 00 00 00 00 00 00 00 00 	(100(<0000000000
  0x3a30	02 3f 00 00 a0 32 00 00 c0 3c 00 00 00 00 00 00 	0?0002000<000000
  0x3a40	00 00 00 00 64 3f 00 00 38 33 00 00 b0 3b 00 00 	0000d?0083000;00
  0x3a50	00 00 00 00 00 00 00 00 6e 3f 00 00 28 32 00 00 	00000000n?00(200
  0x3a60	e0 3b 00 00 00 00 00 00 00 00 00 00 92 3f 00 00 	0;00000000000?00
  0x3a70	58 32 00 00 f0 3b 00 00 00 00 00 00 00 00 00 00 	X2000;0000000000
  0x3a80	ca 3f 00 00 68 32 00 00 08 3c 00 00 00 00 00 00 	0?00h2000<000000
  0x3a90	00 00 00 00 0e 40 00 00 80 32 00 00 00 00 00 00 	00000@0002000000
  0x3aa0	00 00 00 00 00 00 00 00 00 00 00 00 00 00 00 00 	0000000000000000
  0x3ab0	e0 3c 00 00 00 00 00 00 f0 3c 00 00 00 00 00 00 	0<0000000<000000
  0x3ac0	04 3d 00 00 00 00 00 00 12 3d 00 00 00 00 00 00 	0=0000000=000000
  0x3ad0	1e 3d 00 00 00 00 00 00 2c 3d 00 00 00 00 00 00 	0=000000,=000000
  0x3ae0	3e 3d 00 00 00 00 00 00 4a 3d 00 00 00 00 00 00 	>=000000J=000000
  0x3af0	5c 3d 00 00 00 00 00 00 70 3d 00 00 00 00 00 00 	0=000000p=000000
  0x3b00	80 3d 00 00 00 00 00 00 90 3d 00 00 00 00 00 00 	0=0000000=000000
  0x3b10	a2 3d 00 00 00 00 00 00 ae 3d 00 00 00 00 00 00 	0=0000000=000000
  0x3b20	be 3d 00 00 00 00 00 00 ce 3d 00 00 00 00 00 00 	0=0000000=000000
  0x3b30	ea 3d 00 00 00 00 00 00 fc 3d 00 00 00 00 00 00 	0=0000000=000000
  0x3b40	12 3e 00 00 00 00 00 00 20 3e 00 00 00 00 00 00 	0>000000 >000000
  0x3b50	96 40 00 00 00 00 00 00 80 40 00 00 00 00 00 00 	0@0000000@000000
  0x3b60	66 40 00 00 00 00 00 00 48 40 00 00 00 00 00 00 	f@000000H@000000
  0x3b70	36 40 00 00 00 00 00 00 2e 40 00 00 00 00 00 00 	6@000000.@000000
  0x3b80	c6 40 00 00 00 00 00 00 d6 40 00 00 00 00 00 00 	0@0000000@000000
  0x3b90	f2 40 00 00 00 00 00 00 06 41 00 00 00 00 00 00 	0@0000000A000000
  0x3ba0	ac 40 00 00 00 00 00 00 00 00 00 00 00 00 00 00 	0@00000000000000
  0x3bb0	06 00 00 00 00 00 00 80 07 00 00 00 00 00 00 80 	0000000000000000
  0x3bc0	02 00 00 00 00 00 00 80 09 00 00 00 00 00 00 80 	0000000000000000
  0x3bd0	08 00 00 00 00 00 00 80 00 00 00 00 00 00 00 00 	0000000000000000
  0x3be0	7c 3f 00 00 00 00 00 00 00 00 00 00 00 00 00 00 	|?00000000000000
  0x3bf0	9e 3f 00 00 00 00 00 00 b6 3f 00 00 00 00 00 00 	0?0000000?000000
  0x3c00	00 00 00 00 00 00 00 00 fa 3f 00 00 00 00 00 00 	000000000?000000
  0x3c10	d6 3f 00 00 00 00 00 00 e8 3f 00 00 00 00 00 00 	0?0000000?000000
  0x3c20	00 00 00 00 00 00 00 00 f6 3e 00 00 00 00 00 00 	000000000>000000
  0x3c30	aa 3e 00 00 00 00 00 00 0e 3f 00 00 00 00 00 00 	0>0000000?000000
  0x3c40	ca 3e 00 00 00 00 00 00 7e 3e 00 00 00 00 00 00 	0>000000~>000000
  0x3c50	90 3e 00 00 00 00 00 00 98 3e 00 00 00 00 00 00 	0>0000000>000000
  0x3c60	a0 3e 00 00 00 00 00 00 1a 41 00 00 00 00 00 00 	0>0000000A000000
  0x3c70	e2 3e 00 00 00 00 00 00 6c 3e 00 00 00 00 00 00 	0>000000l>000000
  0x3c80	5e 3e 00 00 00 00 00 00 50 3e 00 00 00 00 00 00 	^>000000P>000000
  0x3c90	48 3e 00 00 00 00 00 00 3a 3e 00 00 00 00 00 00 	H>000000:>000000
  0x3ca0	be 3e 00 00 00 00 00 00 ec 3e 00 00 00 00 00 00 	0>0000000>000000
  0x3cb0	24 41 00 00 00 00 00 00 00 00 00 00 00 00 00 00 	$A00000000000000
  0x3cc0	22 3f 00 00 00 00 00 00 36 3f 00 00 00 00 00 00 	"?0000006?000000
  0x3cd0	50 3f 00 00 00 00 00 00 00 00 00 00 00 00 00 00 	P?00000000000000
  0x3ce0	00 03 47 65 74 54 65 6d 70 50 61 74 68 57 00 00 	00GetTempPathW00
  0x3cf0	fe 02 47 65 74 54 65 6d 70 46 69 6c 65 4e 61 6d 	00GetTempFileNam
  0x3d00	65 57 00 00 ce 00 43 72 65 61 74 65 46 69 6c 65 	eW0000CreateFile
  0x3d10	57 00 25 06 57 72 69 74 65 46 69 6c 65 00 89 00 	W0%0WriteFile000
  0x3d20	43 6c 6f 73 65 48 61 6e 64 6c 65 00 68 04 52 61 	CloseHandle0h0Ra
  0x3d30	69 73 65 45 78 63 65 70 74 69 6f 6e 00 00 55 03 	iseException00U0
  0x3d40	48 65 61 70 46 72 65 65 00 00 be 02 47 65 74 50 	HeapFree0000GetP
  0x3d50	72 6f 63 65 73 73 48 65 61 70 00 00 81 02 47 65 	rocessHeap0000Ge
  0x3d60	74 4d 6f 64 75 6c 65 48 61 6e 64 6c 65 57 00 00 	tModuleHandleW00
  0x3d70	6a 02 47 65 74 4c 61 73 74 45 72 72 6f 72 00 00 	j0GetLastError00
  0x3d80	9f 01 46 69 6e 64 52 65 73 6f 75 72 63 65 57 00 	00FindResourceW0
  0x3d90	8e 05 53 69 7a 65 6f 66 52 65 73 6f 75 72 63 65 	00SizeofResource
  0x3da0	00 00 51 03 48 65 61 70 41 6c 6c 6f 63 00 ce 03 	00Q0HeapAlloc000
  0x3db0	4c 6f 61 64 52 65 73 6f 75 72 63 65 00 00 e2 03 	LoadResource0000
  0x3dc0	4c 6f 63 6b 52 65 73 6f 75 72 63 65 00 00 6b 01 	LockResource00k0
  0x3dd0	45 78 70 61 6e 64 45 6e 76 69 72 6f 6e 6d 65 6e 	ExpandEnvironmen
  0x3de0	74 53 74 72 69 6e 67 73 57 00 e8 00 43 72 65 61 	tStringsW000Crea
  0x3df0	74 65 50 72 6f 63 65 73 73 57 00 00 59 03 48 65 	teProcessW00Y0He
  0x3e00	61 70 53 65 74 49 6e 66 6f 72 6d 61 74 69 6f 6e 	apSetInformation
  0x3e10	00 00 ef 03 4d 6f 76 65 46 69 6c 65 45 78 57 00 	0000MoveFileExW0
  0x3e20	d6 03 4c 6f 63 61 6c 46 72 65 65 00 4b 45 52 4e 	00LocalFree0KERN
  0x3e30	45 4c 33 32 2e 64 6c 6c 00 00 69 03 5f 76 73 6e 	EL32.dll00i0_vsn
  0x3e40	77 70 72 69 6e 74 66 00 4c 04 66 72 65 65 00 00 	wprintf0L0free00
  0x3e50	55 00 5f 58 63 70 74 46 69 6c 74 65 72 00 ae 00 	U0_XcptFilter000
  0x3e60	5f 61 6d 73 67 5f 65 78 69 74 00 00 9d 00 5f 5f 	_amsg_exit0000__
  0x3e70	77 67 65 74 6d 61 69 6e 61 72 67 73 00 00 8e 00 	wgetmainargs0000
  0x3e80	5f 5f 73 65 74 5f 61 70 70 5f 74 79 70 65 00 00 	__set_app_type00
  0x3e90	32 04 65 78 69 74 00 00 0e 01 5f 65 78 69 74 00 	20exit0000_exit0
  0x3ea0	c1 00 5f 63 65 78 69 74 00 00 90 00 5f 5f 73 65 	00_cexit0000__se
  0x3eb0	74 75 73 65 72 6d 61 74 68 65 72 72 00 00 7d 01 	tusermatherr00}0
  0x3ec0	5f 69 6e 69 74 74 65 72 6d 00 57 00 5f 5f 43 5f 	_initterm0W0__C_
  0x3ed0	73 70 65 63 69 66 69 63 5f 68 61 6e 64 6c 65 72 	specific_handler
  0x3ee0	00 00 82 03 5f 77 63 6d 64 6c 6e 00 27 01 5f 66 	0000_wcmdln0'0_f
  0x3ef0	6d 6f 64 65 00 00 d2 00 5f 63 6f 6d 6d 6f 64 65 	mode0000_commode
  0x3f00	00 00 6d 73 76 63 72 74 2e 64 6c 6c 00 00 2f 00 	00msvcrt.dll00/0
  0x3f10	3f 74 65 72 6d 69 6e 61 74 65 40 40 59 41 58 58 	?terminate@@YAXX
  0x3f20	5a 00 f3 02 52 74 6c 43 61 70 74 75 72 65 43 6f 	Z000RtlCaptureCo
  0x3f30	6e 74 65 78 74 00 ea 04 52 74 6c 4c 6f 6f 6b 75 	ntext000RtlLooku
  0x3f40	70 46 75 6e 63 74 69 6f 6e 45 6e 74 72 79 00 00 	pFunctionEntry00
  0x3f50	29 06 52 74 6c 56 69 72 74 75 61 6c 55 6e 77 69 	)0RtlVirtualUnwi
  0x3f60	6e 64 00 00 6e 74 64 6c 6c 2e 64 6c 6c 00 4f 4c 	nd00ntdll.dll0OL
  0x3f70	45 41 55 54 33 32 2e 64 6c 6c 00 00 09 00 43 6f 	EAUT32.dll0000Co
  0x3f80	6d 6d 61 6e 64 4c 69 6e 65 54 6f 41 72 67 76 57 	mmandLineToArgvW
  0x3f90	00 00 53 48 45 4c 4c 33 32 2e 64 6c 6c 00 8d 00 	00SHELL32.dll000
  0x3fa0	50 61 74 68 52 65 6d 6f 76 65 45 78 74 65 6e 73 	PathRemoveExtens
  0x3fb0	69 6f 6e 57 00 00 35 00 50 61 74 68 41 64 64 45 	ionW0050PathAddE
  0x3fc0	78 74 65 6e 73 69 6f 6e 57 00 53 48 4c 57 41 50 	xtensionW0SHLWAP
  0x3fd0	49 2e 64 6c 6c 00 28 00 43 6f 49 6e 69 74 69 61 	I.dll0(0CoInitia
  0x3fe0	6c 69 7a 65 45 78 00 00 46 00 43 6f 55 6e 69 6e 	lizeEx00F0CoUnin
  0x3ff0	69 74 69 61 6c 69 7a 65 00 00 09 00 43 6f 43 72 	itialize0000CoCr
  0x4000	65 61 74 65 49 6e 73 74 61 6e 63 65 00 00 61 70 	eateInstance00ap
  0x4010	69 2d 6d 73 2d 77 69 6e 2d 63 6f 72 65 2d 63 6f 	i-ms-win-core-co
  0x4020	6d 2d 6c 31 2d 31 2d 30 2e 64 6c 6c 00 00 8f 05 	m-l1-1-0.dll0000
  0x4030	53 6c 65 65 70 00 da 02 47 65 74 53 74 61 72 74 	Sleep000GetStart
  0x4040	75 70 49 6e 66 6f 57 00 7f 05 53 65 74 55 6e 68 	upInfoW000SetUnh
  0x4050	61 6e 64 6c 65 64 45 78 63 65 70 74 69 6f 6e 46 	andledExceptionF
  0x4060	69 6c 74 65 72 00 52 04 51 75 65 72 79 50 65 72 	ilter0R0QueryPer
  0x4070	66 6f 72 6d 61 6e 63 65 43 6f 75 6e 74 65 72 00 	formanceCounter0
  0x4080	21 02 47 65 74 43 75 72 72 65 6e 74 50 72 6f 63 	!0GetCurrentProc
  0x4090	65 73 73 49 64 00 25 02 47 65 74 43 75 72 72 65 	essId0%0GetCurre
  0x40a0	6e 74 54 68 72 65 61 64 49 64 00 00 f3 02 47 65 	ntThreadId0000Ge
  0x40b0	74 53 79 73 74 65 6d 54 69 6d 65 41 73 46 69 6c 	tSystemTimeAsFil
  0x40c0	65 54 69 6d 65 00 11 03 47 65 74 54 69 63 6b 43 	eTime000GetTickC
  0x40d0	6f 75 6e 74 00 00 c0 05 55 6e 68 61 6e 64 6c 65 	ount0000Unhandle
  0x40e0	64 45 78 63 65 70 74 69 6f 6e 46 69 6c 74 65 72 	dExceptionFilter
  0x40f0	00 00 20 02 47 65 74 43 75 72 72 65 6e 74 50 72 	00 0GetCurrentPr
  0x4100	6f 63 65 73 73 00 9e 05 54 65 72 6d 69 6e 61 74 	ocess000Terminat
  0x4110	65 50 72 6f 63 65 73 73 00 00 92 04 6d 65 6d 63 	eProcess0000memc
  0x4120	70 79 00 00 96 04 6d 65 6d 73 65 74 00 00 00 00 	py0000memset0000
  0x4130	00 00 00 00 00 00 00 00 00 00 00 00 00 00 00 00 	0000000000000000
  0x4140	00 00 00 00 00 00 00 00 00 00 00 00 00 00 00 00 	0000000000000000
  0x4150	00 00 00 00 00 00 00 00 00 00 00 00 00 00 00 00 	0000000000000000
  0x4160	00 00 00 00 00 00 00 00 00 00 00 00 00 00 00 00 	0000000000000000
  0x4170	00 00 00 00 00 00 00 00 00 00 00 00 00 00 00 00 	0000000000000000
  0x4180	00 00 00 00 00 00 00 00 00 00 00 00 00 00 00 00 	0000000000000000
  0x4190	00 00 00 00 00 00 00 00 00 00 00 00 00 00 00 00 	0000000000000000
  0x41a0	00 00 00 00 00 00 00 00 00 00 00 00 00 00 00 00 	0000000000000000
  0x41b0	00 00 00 00 00 00 00 00 00 00 00 00 00 00 00 00 	0000000000000000
  0x41c0	00 00 00 00 00 00 00 00 00 00 00 00 00 00 00 00 	0000000000000000
  0x41d0	00 00 00 00 00 00 00 00 00 00 00 00 00 00 00 00 	0000000000000000
  0x41e0	00 00 00 00 00 00 00 00 00 00 00 00 00 00 00 00 	0000000000000000
  0x41f0	00 00 00 00 00 00 00 00 00 00 00 00 00 00 00 00 	0000000000000000
=== DATA BLOCK END ===

=== DATA BLOCK ADDRESS 0x5000 ===
  0x5000	01 00 00 00 00 00 00 00 32 a2 df 2d 99 2b 00 00 	00000000200-0+00
  0x5010	cd 5d 20 d2 66 d4 ff ff 00 00 00 00 00 00 00 00 	0] 0f00000000000
  0x5020	00 00 00 00 00 00 00 00 00 00 00 00 00 00 00 00 	0000000000000000
  0x5030	00 00 00 00 00 00 00 00 00 00 00 00 00 00 00 00 	0000000000000000
  0x5040	00 00 00 00 00 00 00 00 00 00 00 00 00 00 00 00 	0000000000000000
  0x5050	00 00 00 00 00 00 00 00 00 00 00 00 00 00 00 00 	0000000000000000
  0x5060	00 00 00 00 00 00 00 00 00 00 00 00 00 00 00 00 	0000000000000000
  0x5070	00 00 00 00 00 00 00 00 00 00 00 00 00 00 00 00 	0000000000000000
  0x5080	00 00 00 00 00 00 00 00 00 00 00 00 00 00 00 00 	0000000000000000
  0x5090	00 00 00 00 00 00 00 00 00 00 00 00 00 00 00 00 	0000000000000000
  0x50a0	00 00 00 00 00 00 00 00 00 00 00 00 00 00 00 00 	0000000000000000
  0x50b0	00 00 00 00 00 00 00 00 00 00 00 00 00 00 00 00 	0000000000000000
  0x50c0	00 00 00 00 00 00 00 00 00 00 00 00 00 00 00 00 	0000000000000000
  0x50d0	00 00 00 00 00 00 00 00 00 00 00 00 00 00 00 00 	0000000000000000
  0x50e0	00 00 00 00 00 00 00 00 00 00 00 00 00 00 00 00 	0000000000000000
  0x50f0	00 00 00 00 00 00 00 00 00 00 00 00 00 00 00 00 	0000000000000000
  0x5100	00 00 00 00 00 00 00 00 00 00 00 00 00 00 00 00 	0000000000000000
  0x5110	00 00 00 00 00 00 00 00 00 00 00 00 00 00 00 00 	0000000000000000
  0x5120	00 00 00 00 00 00 00 00 00 00 00 00 00 00 00 00 	0000000000000000
  0x5130	00 00 00 00 00 00 00 00 00 00 00 00 00 00 00 00 	0000000000000000
  0x5140	00 00 00 00 00 00 00 00 00 00 00 00 00 00 00 00 	0000000000000000
  0x5150	00 00 00 00 00 00 00 00 00 00 00 00 00 00 00 00 	0000000000000000
  0x5160	00 00 00 00 00 00 00 00 00 00 00 00 00 00 00 00 	0000000000000000
  0x5170	00 00 00 00 00 00 00 00 00 00 00 00 00 00 00 00 	0000000000000000
  0x5180	00 00 00 00 00 00 00 00 00 00 00 00 00 00 00 00 	0000000000000000
  0x5190	00 00 00 00 00 00 00 00 00 00 00 00 00 00 00 00 	0000000000000000
  0x51a0	00 00 00 00 00 00 00 00 00 00 00 00 00 00 00 00 	0000000000000000
  0x51b0	00 00 00 00 00 00 00 00 00 00 00 00 00 00 00 00 	0000000000000000
  0x51c0	00 00 00 00 00 00 00 00 00 00 00 00 00 00 00 00 	0000000000000000
  0x51d0	00 00 00 00 00 00 00 00 00 00 00 00 00 00 00 00 	0000000000000000
  0x51e0	00 00 00 00 00 00 00 00 00 00 00 00 00 00 00 00 	0000000000000000
  0x51f0	00 00 00 00 00 00 00 00 00 00 00 00 00 00 00 00 	0000000000000000
=== DATA BLOCK END ===

=== DATA BLOCK ADDRESS 0x6000 ===
  0x6000	08 10 00 00 6f 12 00 00 80 38 00 00 78 12 00 00 	0000o0000800x000
  0x6010	f2 13 00 00 a0 38 00 00 f8 13 00 00 7f 16 00 00 	0000080000000000
  0x6020	bc 38 00 00 88 16 00 00 bb 17 00 00 d4 38 00 00 	0800000000000800
  0x6030	c4 17 00 00 b3 18 00 00 ec 38 00 00 bc 18 00 00 	0000000008000000
  0x6040	01 1a 00 00 00 39 00 00 08 1a 00 00 db 1b 00 00 	0000090000000000
  0x6050	1c 39 00 00 e4 1b 00 00 62 1c 00 00 3c 39 00 00 	09000000b000<900
  0x6060	84 1c 00 00 93 1c 00 00 4c 39 00 00 b0 1c 00 00 	00000000L9000000
  0x6070	83 1d 00 00 4c 39 00 00 90 1d 00 00 d9 1d 00 00 	0000L90000000000
  0x6080	54 39 00 00 e0 1d 00 00 44 20 00 00 5c 39 00 00 	T9000000D 000900
  0x6090	50 20 00 00 62 20 00 00 4c 39 00 00 80 20 00 00 	P 00b 00L9000 00
  0x60a0	9e 20 00 00 98 39 00 00 b0 20 00 00 e9 20 00 00 	0 0009000 000 00
  0x60b0	4c 39 00 00 f0 20 00 00 08 21 00 00 4c 39 00 00 	L9000 000!00L900
  0x60c0	1c 21 00 00 70 21 00 00 9c 39 00 00 78 21 00 00 	0!00p!000900x!00
  0x60d0	bd 21 00 00 bc 39 00 00 30 22 00 00 7d 22 00 00 	0!0009000"00}"00
  0x60e0	c4 39 00 00 c4 22 00 00 98 23 00 00 e8 39 00 00 	09000"000#000900
  0x60f0	cc 23 00 00 00 24 00 00 bc 39 00 00 10 24 00 00 	0#000$0009000$00
  0x6100	81 25 00 00 f4 39 00 00 98 25 00 00 b5 25 00 00 	0%0009000%000%00
  0x6110	4c 39 00 00 bc 25 00 00 17 26 00 00 04 3a 00 00 	L9000%000&000:00
  0x6120	40 26 00 00 42 26 00 00 00 3a 00 00 50 26 00 00 	@&00B&000:00P&00
  0x6130	6e 26 00 00 90 39 00 00 80 26 00 00 a0 26 00 00 	n&0009000&000&00
  0x6140	90 39 00 00 00 00 00 00 00 00 00 00 00 00 00 00 	0900000000000000
  0x6150	00 00 00 00 00 00 00 00 00 00 00 00 00 00 00 00 	0000000000000000
  0x6160	00 00 00 00 00 00 00 00 00 00 00 00 00 00 00 00 	0000000000000000
  0x6170	00 00 00 00 00 00 00 00 00 00 00 00 00 00 00 00 	0000000000000000
  0x6180	00 00 00 00 00 00 00 00 00 00 00 00 00 00 00 00 	0000000000000000
  0x6190	00 00 00 00 00 00 00 00 00 00 00 00 00 00 00 00 	0000000000000000
  0x61a0	00 00 00 00 00 00 00 00 00 00 00 00 00 00 00 00 	0000000000000000
  0x61b0	00 00 00 00 00 00 00 00 00 00 00 00 00 00 00 00 	0000000000000000
  0x61c0	00 00 00 00 00 00 00 00 00 00 00 00 00 00 00 00 	0000000000000000
  0x61d0	00 00 00 00 00 00 00 00 00 00 00 00 00 00 00 00 	0000000000000000
  0x61e0	00 00 00 00 00 00 00 00 00 00 00 00 00 00 00 00 	0000000000000000
  0x61f0	00 00 00 00 00 00 00 00 00 00 00 00 00 00 00 00 	0000000000000000
=== DATA BLOCK END ===
