===== Assembly blocks =====

=== CODE BLOCK ADDRESS 0x1000 ===
  0x1000	int3   	
  0x1001	int3   	
  0x1002	int3   	
  0x1003	int3   	
  0x1004	int3   	
  === BLOCK LINK ===
    0x1005
=== CODE BLOCK END ===

=== CODE BLOCK ADDRESS 0x1005 ===
  0x1005	int3   	
  0x1006	int3   	
  0x1007	int3   	
  0x1008	dec    	eax
  0x1009	mov    	eax, esp
  === BLOCK LINK ===
    0x100b
=== CODE BLOCK END ===

=== CODE BLOCK ADDRESS 0x100b ===
  0x100b	dec    	eax
  0x100c	mov    	dword ptr [eax + 8], ebx
  0x100f	dec    	eax
  0x1010	mov    	dword ptr [eax + 0x10], ebp
  0x1013	dec    	eax
  === BLOCK LINK ===
    0x1014
=== CODE BLOCK END ===

=== CODE BLOCK ADDRESS 0x1014 ===
  0x1014	mov    	dword ptr [eax + 0x18], esi
  0x1017	dec    	eax
  0x1018	mov    	dword ptr [eax + 0x20], edi
  0x101b	inc    	ecx
  0x101c	push   	esi
  === BLOCK LINK ===
    0x101d
=== CODE BLOCK END ===

=== CODE BLOCK ADDRESS 0x101d ===
  0x101d	dec    	eax
  0x101e	sub    	esp, 0x280
  0x1024	dec    	eax
  0x1025	mov    	eax, dword ptr [0x4fdd]
  0x102b	dec    	eax
  === BLOCK LINK ===
    0x102c
=== CODE BLOCK END ===

=== CODE BLOCK ADDRESS 0x102c ===
  0x102c	xor    	eax, esp
  0x102e	dec    	eax
  0x102f	mov    	dword ptr [esp + 0x270], eax
  0x1036	mov    	ebp, 0x104
  0x103b	dec    	eax
  === BLOCK LINK ===
    0x103c
=== CODE BLOCK END ===

=== CODE BLOCK ADDRESS 0x103c ===
  0x103c	lea    	ecx, [esp + 0x20]
  0x1040	mov    	edx, ebp
  0x1042	dec    	eax
  0x1043	lea    	edi, [esp + 0x20]
  0x1047	dec    	eax
  === BLOCK LINK ===
    0x1048
=== CODE BLOCK END ===

=== CODE BLOCK ADDRESS 0x1048 ===
  0x1048	call   	dword ptr [0x3242]
  === BLOCK LINK ===
    0x104e
=== CODE BLOCK END ===

=== CODE BLOCK ADDRESS 0x104e ===
  0x104e	nop    	dword ptr [eax + eax]
  0x1053	inc    	ebp
  0x1054	xor    	esi, esi
  0x1056	mov    	esi, eax
  0x1058	inc    	ecx
  === BLOCK LINK ===
    0x1059
=== CODE BLOCK END ===

=== CODE BLOCK ADDRESS 0x1059 ===
  0x1059	lea    	ebx, [esi + 2]
  0x105c	test   	eax, eax
  0x105e	je     	0x10a3
  === BLOCK LINK ===
    0x1060
    0x10a3
=== CODE BLOCK END ===

=== CODE BLOCK ADDRESS 0x1060 ===
  0x1060	cmp    	eax, ebp
  0x1062	jb     	0x1108
  === BLOCK LINK ===
    0x1068
    0x1108
=== CODE BLOCK END ===

=== CODE BLOCK ADDRESS 0x1068 ===
  0x1068	lea    	ebp, [eax + 0x1d]
  0x106b	mov    	eax, ebx
  0x106d	mov    	ecx, ebp
  0x106f	dec    	eax
  0x1070	mul    	ecx
  === BLOCK LINK ===
    0x1072
=== CODE BLOCK END ===

=== CODE BLOCK ADDRESS 0x1072 ===
  0x1072	dec    	eax
  0x1073	lea    	ecx, [ebx - 3]
  0x1076	dec    	eax
  0x1077	cmovo  	eax, ecx
  0x107a	dec    	eax
  === BLOCK LINK ===
    0x107b
=== CODE BLOCK END ===

=== CODE BLOCK ADDRESS 0x107b ===
  0x107b	mov    	ecx, eax
  0x107d	call   	0x2884
  === BLOCK LINK ===
    0x1082
    0x2884
=== CODE BLOCK END ===

=== CODE BLOCK ADDRESS 0x1082 ===
  0x1082	mov    	edx, esi
  0x1084	dec    	eax
  0x1085	mov    	ecx, eax
  0x1087	dec    	eax
  0x1088	mov    	edi, eax
  === BLOCK LINK ===
    0x108a
=== CODE BLOCK END ===

=== CODE BLOCK ADDRESS 0x108a ===
  0x108a	dec    	eax
  0x108b	call   	dword ptr [0x31ff]
  === BLOCK LINK ===
    0x1091
=== CODE BLOCK END ===

=== CODE BLOCK ADDRESS 0x1091 ===
  0x1091	nop    	dword ptr [eax + eax]
  0x1096	test   	eax, eax
  0x1098	je     	0x10a3
  === BLOCK LINK ===
    0x109a
    0x10a3
=== CODE BLOCK END ===

=== CODE BLOCK ADDRESS 0x109a ===
  0x109a	cmp    	eax, esi
  0x109c	jbe    	0x110d
  === BLOCK LINK ===
    0x109e
    0x110d
=== CODE BLOCK END ===

=== CODE BLOCK ADDRESS 0x109e ===
  0x109e	mov    	ebx, 0x7a
  === BLOCK LINK ===
    0x10a3
=== CODE BLOCK END ===

=== CODE BLOCK ADDRESS 0x10ad ===
  0x10ad	je     	0x10c5
  === BLOCK LINK ===
    0x10af
    0x10c5
=== CODE BLOCK END ===

=== CODE BLOCK ADDRESS 0x10af ===
  0x10af	dec    	eax
  0x10b0	mov    	ecx, eax
  0x10b2	dec    	eax
  0x10b3	call   	dword ptr [0x30d7]
  === BLOCK LINK ===
    0x10b9
=== CODE BLOCK END ===

=== CODE BLOCK ADDRESS 0x10b9 ===
  0x10b9	nop    	dword ptr [eax + eax]
  0x10be	dec    	esp
  0x10bf	mov    	dword ptr [0x552b], esi
  === BLOCK LINK ===
    0x10c5
=== CODE BLOCK END ===

=== CODE BLOCK ADDRESS 0x10ca ===
  0x10ca	dec    	eax
  0x10cb	cmp    	edi, eax
  0x10cd	je     	0x10d7
  === BLOCK LINK ===
    0x10cf
    0x10d7
=== CODE BLOCK END ===

=== CODE BLOCK ADDRESS 0x10cf ===
  0x10cf	dec    	eax
  0x10d0	mov    	ecx, edi
  0x10d2	call   	0x28c4
  === BLOCK LINK ===
    0x10d7
    0x28c4
=== CODE BLOCK END ===

=== CODE BLOCK ADDRESS 0x10d7 ===
  0x10d7	mov    	eax, ebx
  0x10d9	dec    	eax
  0x10da	mov    	ecx, dword ptr [esp + 0x270]
  0x10e1	dec    	eax
  0x10e2	xor    	ecx, esp
  === BLOCK LINK ===
    0x10e4
=== CODE BLOCK END ===

=== CODE BLOCK ADDRESS 0x10e4 ===
  0x10e4	call   	0x2c00
  === BLOCK LINK ===
    0x10e9
    0x2c00
=== CODE BLOCK END ===

=== CODE BLOCK ADDRESS 0x10e9 ===
  0x10e9	dec    	esp
  0x10ea	lea    	ebx, [esp + 0x280]
  0x10f1	dec    	ecx
  0x10f2	mov    	ebx, dword ptr [ebx + 0x10]
  0x10f5	dec    	ecx
  === BLOCK LINK ===
    0x10f6
=== CODE BLOCK END ===

=== CODE BLOCK ADDRESS 0x10f6 ===
  0x10f6	mov    	ebp, dword ptr [ebx + 0x18]
  0x10f9	dec    	ecx
  0x10fa	mov    	esi, dword ptr [ebx + 0x20]
  0x10fd	dec    	ecx
  0x10fe	mov    	edi, dword ptr [ebx + 0x28]
  === BLOCK LINK ===
    0x1101
=== CODE BLOCK END ===

=== CODE BLOCK ADDRESS 0x1101 ===
  0x1101	dec    	ecx
  0x1102	mov    	esp, ebx
  0x1104	inc    	ecx
  0x1105	pop    	esi
  0x1106	ret    	
  === BLOCK LINK ===
    0x1107
=== CODE BLOCK END ===

=== CODE BLOCK ADDRESS 0x10a3 ===
  0x10a3	dec    	eax
  0x10a4	mov    	eax, dword ptr [0x5546]
  0x10aa	dec    	eax
  0x10ab	test   	eax, eax
  === BLOCK LINK ===
    0x10ad
=== CODE BLOCK END ===

=== CODE BLOCK ADDRESS 0x1107 ===
  0x1107	int3   	
  === BLOCK LINK ===
    0x1108
=== CODE BLOCK END ===

=== CODE BLOCK ADDRESS 0x1111 ===
  0x1111	mov    	ecx, esi
  0x1113	inc    	ecx
  0x1114	mov    	eax, 0x80070057
  0x1119	dec    	ecx
  0x111a	lea    	eax, [ecx - 1]
  === BLOCK LINK ===
    0x111d
=== CODE BLOCK END ===

=== CODE BLOCK ADDRESS 0x111d ===
  0x111d	dec    	eax
  0x111e	cmp    	eax, 0x7ffffffe
  0x1123	inc    	ecx
  0x1124	cmova  	ecx, eax
  0x1127	test   	ecx, ecx
  === BLOCK LINK ===
    0x1129
=== CODE BLOCK END ===

=== CODE BLOCK ADDRESS 0x1129 ===
  0x1129	js     	0x1157
  === BLOCK LINK ===
    0x112b
    0x1157
=== CODE BLOCK END ===

=== CODE BLOCK ADDRESS 0x112b ===
  0x112b	inc    	ecx
  0x112c	mov    	eax, ecx
  0x112e	dec    	eax
  0x112f	mov    	edx, edi
  0x1131	inc    	ecx
  === BLOCK LINK ===
    0x1132
=== CODE BLOCK END ===

=== CODE BLOCK ADDRESS 0x1132 ===
  0x1132	mov    	ecx, esi
  0x1134	test   	ebp, ebp
  0x1136	je     	0x1154
  === BLOCK LINK ===
    0x1138
    0x1154
=== CODE BLOCK END ===

=== CODE BLOCK ADDRESS 0x1138 ===
  0x1138	inc    	sp
  0x113a	cmp    	dword ptr [edx], esi
  0x113c	je     	0x1147
  === BLOCK LINK ===
    0x113e
    0x1147
=== CODE BLOCK END ===

=== CODE BLOCK ADDRESS 0x113e ===
  0x113e	dec    	eax
  0x113f	add    	edx, ebx
  0x1141	dec    	eax
  0x1142	sub    	eax, 1
  0x1145	jne    	0x1138
  === BLOCK LINK ===
    0x1147
    0x1138
=== CODE BLOCK END ===

=== CODE BLOCK ADDRESS 0x1147 ===
  0x1147	dec    	eax
  0x1148	test   	eax, eax
  0x114a	je     	0x1154
  === BLOCK LINK ===
    0x114c
    0x1154
=== CODE BLOCK END ===

=== CODE BLOCK ADDRESS 0x114c ===
  0x114c	dec    	ecx
  0x114d	mov    	edx, ecx
  0x114f	dec    	eax
  0x1150	sub    	edx, eax
  0x1152	jmp    	0x115a
  === BLOCK LINK ===
    0x1154
    0x115a
=== CODE BLOCK END ===

=== CODE BLOCK ADDRESS 0x1154 ===
  0x1154	inc    	ecx
  0x1155	mov    	ecx, eax
  === BLOCK LINK ===
    0x1157
=== CODE BLOCK END ===

=== CODE BLOCK ADDRESS 0x115c ===
  0x115c	js     	0x109e
  === BLOCK LINK ===
    0x1162
    0x109e
=== CODE BLOCK END ===

=== CODE BLOCK ADDRESS 0x1162 ===
  0x1162	dec    	ebp
  0x1163	mov    	eax, ecx
  0x1165	dec    	eax
  0x1166	lea    	ecx, [edi + edx*2]
  0x1169	inc    	ebp
  === BLOCK LINK ===
    0x116a
=== CODE BLOCK END ===

=== CODE BLOCK ADDRESS 0x116a ===
  0x116a	mov    	edx, esi
  0x116c	dec    	esp
  0x116d	sub    	eax, edx
  0x116f	je     	0x11ad
  === BLOCK LINK ===
    0x1171
    0x11ad
=== CODE BLOCK END ===

=== CODE BLOCK ADDRESS 0x1171 ===
  0x1171	dec    	ecx
  0x1172	mov    	eax, eax
  0x1174	dec    	ecx
  0x1175	sub    	eax, ecx
  0x1177	dec    	esp
  === BLOCK LINK ===
    0x1178
=== CODE BLOCK END ===

=== CODE BLOCK ADDRESS 0x1178 ===
  0x1178	lea    	ecx, [edx + 0x7ffffffe]
  0x117e	dec    	esp
  0x117f	add    	ecx, eax
  0x1181	dec    	eax
  0x1182	lea    	edx, [0x3290]
  === BLOCK LINK ===
    0x1188
=== CODE BLOCK END ===

=== CODE BLOCK ADDRESS 0x1188 ===
  0x1188	dec    	eax
  0x1189	sub    	edx, ecx
  === BLOCK LINK ===
    0x118b
=== CODE BLOCK END ===

=== CODE BLOCK ADDRESS 0x1190 ===
  0x1190	movzx  	eax, word ptr [edx + ecx]
  0x1194	test   	ax, ax
  0x1197	je     	0x11a8
  === BLOCK LINK ===
    0x1199
    0x11a8
=== CODE BLOCK END ===

=== CODE BLOCK ADDRESS 0x1199 ===
  0x1199	mov    	word ptr [ecx], ax
  0x119c	dec    	ecx
  0x119d	dec    	ecx
  0x119f	dec    	eax
  0x11a0	add    	ecx, ebx
  === BLOCK LINK ===
    0x11a2
=== CODE BLOCK END ===

=== CODE BLOCK ADDRESS 0x11a2 ===
  0x11a2	dec    	ecx
  0x11a3	sub    	eax, 1
  0x11a6	jne    	0x118b
  === BLOCK LINK ===
    0x11a8
    0x118b
=== CODE BLOCK END ===

=== CODE BLOCK ADDRESS 0x11a8 ===
  0x11a8	dec    	ebp
  0x11a9	test   	eax, eax
  0x11ab	jne    	0x11b6
  === BLOCK LINK ===
    0x11ad
    0x11b6
=== CODE BLOCK END ===

=== CODE BLOCK ADDRESS 0x11ad ===
  0x11ad	dec    	eax
  0x11ae	sub    	ecx, ebx
  0x11b0	inc    	ecx
  0x11b1	mov    	edx, 0x8007007a
  0x11b6	inc    	sp
  === BLOCK LINK ===
    0x11b8
=== CODE BLOCK END ===

=== CODE BLOCK ADDRESS 0x11b8 ===
  0x11b8	mov    	dword ptr [ecx], esi
  0x11ba	inc    	ebp
  0x11bb	test   	edx, edx
  0x11bd	js     	0x109e
  === BLOCK LINK ===
    0x11c3
    0x109e
=== CODE BLOCK END ===

=== CODE BLOCK ADDRESS 0x11c3 ===
  0x11c3	dec    	eax
  0x11c4	mov    	ecx, edi
  0x11c6	dec    	eax
  0x11c7	call   	dword ptr [0x2feb]
  === BLOCK LINK ===
    0x11cd
=== CODE BLOCK END ===

=== CODE BLOCK ADDRESS 0x11cd ===
  0x11cd	nop    	dword ptr [eax + eax]
  0x11d2	dec    	eax
  0x11d3	mov    	dword ptr [0x5417], eax
  0x11d9	dec    	eax
  0x11da	test   	eax, eax
  === BLOCK LINK ===
    0x11dc
=== CODE BLOCK END ===

=== CODE BLOCK ADDRESS 0x11dc ===
  0x11dc	jne    	0x11ee
  === BLOCK LINK ===
    0x11de
    0x11ee
=== CODE BLOCK END ===

=== CODE BLOCK ADDRESS 0x11de ===
  0x11de	dec    	eax
  0x11df	call   	dword ptr [0x2f73]
  === BLOCK LINK ===
    0x11e5
=== CODE BLOCK END ===

=== CODE BLOCK ADDRESS 0x11e5 ===
  0x11e5	nop    	dword ptr [eax + eax]
  0x11ea	mov    	ebx, eax
  0x11ec	jmp    	0x11f1
  === BLOCK LINK ===
    0x11ee
    0x11f1
=== CODE BLOCK END ===

=== CODE BLOCK ADDRESS 0x11ee ===
  0x11ee	inc    	ecx
  0x11ef	mov    	ebx, esi
  === BLOCK LINK ===
    0x11f1
    0x10c5
=== CODE BLOCK END ===

=== CODE BLOCK ADDRESS 0x11f9 ===
  0x11f9	jmp    	0x10a3
  === BLOCK LINK ===
    0x11fe
    0x10a3
=== CODE BLOCK END ===

=== CODE BLOCK ADDRESS 0x11fe ===
  0x11fe	int3   	
  0x11ff	int3   	
  0x1200	int3   	
  0x1201	int3   	
  0x1202	int3   	
  === BLOCK LINK ===
    0x1203
=== CODE BLOCK END ===

=== CODE BLOCK ADDRESS 0x1203 ===
  0x1203	int3   	
  0x1204	inc    	eax
  0x1205	push   	ebx
  0x1206	dec    	eax
  0x1207	sub    	esp, 0x40
  === BLOCK LINK ===
    0x120a
=== CODE BLOCK END ===

=== CODE BLOCK ADDRESS 0x120a ===
  0x120a	xor    	ebx, ebx
  0x120c	dec    	eax
  0x120d	lea    	eax, [esp + 0x58]
  0x1211	dec    	eax
  0x1212	mov    	dword ptr [esp + 0x30], ebx
  === BLOCK LINK ===
    0x1216
=== CODE BLOCK END ===

=== CODE BLOCK ADDRESS 0x1216 ===
  0x1216	inc    	esp
  0x1217	mov    	eax, ecx
  0x1219	mov    	dword ptr [esp + 0x28], ebx
  0x121d	inc    	ecx
  0x121e	mov    	ecx, 0x400
  === BLOCK LINK ===
    0x1223
=== CODE BLOCK END ===

=== CODE BLOCK ADDRESS 0x1223 ===
  0x1223	xor    	edx, edx
  0x1225	dec    	eax
  0x1226	mov    	dword ptr [esp + 0x20], eax
  0x122a	mov    	ecx, 0x1100
  0x122f	dec    	eax
  === BLOCK LINK ===
    0x1230
=== CODE BLOCK END ===

=== CODE BLOCK ADDRESS 0x1230 ===
  0x1230	call   	dword ptr [0x2f92]
  === BLOCK LINK ===
    0x1236
=== CODE BLOCK END ===

=== CODE BLOCK ADDRESS 0x1236 ===
  0x1236	nop    	dword ptr [eax + eax]
  0x123b	test   	eax, eax
  0x123d	je     	0x127d
  === BLOCK LINK ===
    0x123f
    0x127d
=== CODE BLOCK END ===

=== CODE BLOCK ADDRESS 0x123f ===
  0x123f	dec    	eax
  0x1240	mov    	ecx, dword ptr [esp + 0x58]
  0x1244	lea    	edx, [ebx + 0xd]
  0x1247	dec    	eax
  0x1248	call   	dword ptr [0x30fa]
  === BLOCK LINK ===
    0x124e
=== CODE BLOCK END ===

=== CODE BLOCK ADDRESS 0x124e ===
  0x124e	nop    	dword ptr [eax + eax]
  0x1253	dec    	eax
  0x1254	test   	eax, eax
  0x1256	je     	0x125b
  === BLOCK LINK ===
    0x1258
    0x125b
=== CODE BLOCK END ===

=== CODE BLOCK ADDRESS 0x1258 ===
  0x1258	mov    	word ptr [eax], bx
  === BLOCK LINK ===
    0x125b
=== CODE BLOCK END ===

=== CODE BLOCK ADDRESS 0x1267 ===
  0x1267	nop    	dword ptr [eax + eax]
  0x126c	dec    	eax
  0x126d	mov    	ecx, dword ptr [esp + 0x58]
  0x1271	dec    	eax
  0x1272	call   	dword ptr [0x2f08]
  === BLOCK LINK ===
    0x1278
=== CODE BLOCK END ===

=== CODE BLOCK ADDRESS 0x1278 ===
  0x1278	nop    	dword ptr [eax + eax]
  === BLOCK LINK ===
    0x127d
=== CODE BLOCK END ===

=== CODE BLOCK ADDRESS 0x1108 ===
  0x1108	mov    	ebp, 0x121
  === BLOCK LINK ===
    0x110d
=== CODE BLOCK END ===

=== CODE BLOCK ADDRESS 0x1283 ===
  0x1283	int3   	
  0x1284	int3   	
  0x1285	int3   	
  0x1286	int3   	
  0x1287	int3   	
  === BLOCK LINK ===
    0x1288
=== CODE BLOCK END ===

=== CODE BLOCK ADDRESS 0x1288 ===
  0x1288	int3   	
  0x1289	int3   	
  0x128a	int3   	
  0x128b	int3   	
  0x128c	dec    	eax
  === BLOCK LINK ===
    0x128d
=== CODE BLOCK END ===

=== CODE BLOCK ADDRESS 0x128d ===
  0x128d	sub    	esp, 0x48
  0x1290	dec    	esp
  0x1291	mov    	dword ptr [esp + 0x30], eax
  0x1295	dec    	eax
  0x1296	lea    	eax, [esp + 0x68]
  === BLOCK LINK ===
    0x129a
=== CODE BLOCK END ===

=== CODE BLOCK ADDRESS 0x129a ===
  0x129a	mov    	dword ptr [esp + 0x28], edx
  0x129e	inc    	esp
  0x129f	mov    	eax, ecx
  0x12a1	dec    	eax
  0x12a2	mov    	edx, dword ptr [0x5348]
  === BLOCK LINK ===
    0x12a8
=== CODE BLOCK END ===

=== CODE BLOCK ADDRESS 0x12a8 ===
  0x12a8	mov    	ecx, 0x2900
  0x12ad	inc    	ebp
  0x12ae	xor    	ecx, ecx
  0x12b0	dec    	eax
  0x12b1	mov    	dword ptr [esp + 0x20], eax
  === BLOCK LINK ===
    0x12b5
=== CODE BLOCK END ===

=== CODE BLOCK ADDRESS 0x12b5 ===
  0x12b5	dec    	eax
  0x12b6	call   	dword ptr [0x2f0c]
  === BLOCK LINK ===
    0x12bc
=== CODE BLOCK END ===

=== CODE BLOCK ADDRESS 0x12bc ===
  0x12bc	nop    	dword ptr [eax + eax]
  0x12c1	test   	eax, eax
  0x12c3	je     	0x12e7
  === BLOCK LINK ===
    0x12c5
    0x12e7
=== CODE BLOCK END ===

=== CODE BLOCK ADDRESS 0x12c5 ===
  0x12c5	dec    	eax
  0x12c6	mov    	ecx, dword ptr [esp + 0x68]
  0x12ca	dec    	eax
  0x12cb	call   	dword ptr [0x3017]
  === BLOCK LINK ===
    0x12d1
=== CODE BLOCK END ===

=== CODE BLOCK ADDRESS 0x12d1 ===
  0x12d1	nop    	dword ptr [eax + eax]
  0x12d6	dec    	eax
  0x12d7	mov    	ecx, dword ptr [esp + 0x68]
  0x12db	dec    	eax
  0x12dc	call   	dword ptr [0x2e9e]
  === BLOCK LINK ===
    0x12e2
=== CODE BLOCK END ===

=== CODE BLOCK ADDRESS 0x12e2 ===
  0x12e2	nop    	dword ptr [eax + eax]
  === BLOCK LINK ===
    0x12e7
=== CODE BLOCK END ===

=== CODE BLOCK ADDRESS 0x2884 ===
=== CODE BLOCK END ===

=== CODE BLOCK ADDRESS 0x12ed ===
  0x12ed	int3   	
  0x12ee	int3   	
  0x12ef	int3   	
  0x12f0	int3   	
  0x12f1	int3   	
  === BLOCK LINK ===
    0x12f2
=== CODE BLOCK END ===

=== CODE BLOCK ADDRESS 0x12f2 ===
  0x12f2	int3   	
  0x12f3	int3   	
  0x12f4	inc    	eax
  0x12f5	push   	ebx
  0x12f6	dec    	eax
  === BLOCK LINK ===
    0x12f7
=== CODE BLOCK END ===

=== CODE BLOCK ADDRESS 0x12f7 ===
  0x12f7	sub    	esp, 0x140
  0x12fd	dec    	eax
  0x12fe	mov    	eax, dword ptr [0x4d04]
  0x1304	dec    	eax
  0x1305	xor    	eax, esp
  === BLOCK LINK ===
    0x1307
=== CODE BLOCK END ===

=== CODE BLOCK ADDRESS 0x1307 ===
  0x1307	dec    	eax
  0x1308	mov    	dword ptr [esp + 0x130], eax
  0x130f	mov    	ebx, edx
  0x1311	inc    	ebp
  0x1312	xor    	eax, eax
  === BLOCK LINK ===
    0x1314
=== CODE BLOCK END ===

=== CODE BLOCK ADDRESS 0x1314 ===
  0x1314	xor    	edx, edx
  0x1316	call   	0x128c
  === BLOCK LINK ===
    0x131b
    0x128c
=== CODE BLOCK END ===

=== CODE BLOCK ADDRESS 0x131b ===
  0x131b	cmp    	ebx, 0x800710d5
  0x1321	jne    	0x132a
  === BLOCK LINK ===
    0x1323
    0x132a
=== CODE BLOCK END ===

=== CODE BLOCK ADDRESS 0x1323 ===
  0x1323	mov    	ecx, 0xc2e
  0x1328	jmp    	0x1346
  === BLOCK LINK ===
    0x132a
    0x1346
=== CODE BLOCK END ===

=== CODE BLOCK ADDRESS 0x132a ===
  0x132a	cmp    	ebx, 0x80070005
  0x1330	jne    	0x1339
  === BLOCK LINK ===
    0x1332
=== CODE BLOCK END ===

=== CODE BLOCK ADDRESS 0x1332 ===
  0x1332	mov    	ecx, 0xc31
  0x1337	jmp    	0x1346
  === BLOCK LINK ===
    0x1339
=== CODE BLOCK END ===

=== CODE BLOCK ADDRESS 0x1339 ===
  0x1339	cmp    	ebx, 0x80070426
  0x133f	jne    	0x1352
  === BLOCK LINK ===
    0x1341
=== CODE BLOCK END ===

=== CODE BLOCK ADDRESS 0x1341 ===
  0x1341	mov    	ecx, 0xc3a
  === BLOCK LINK ===
    0x1346
=== CODE BLOCK END ===

=== CODE BLOCK ADDRESS 0x1350 ===
  0x1350	jmp    	0x13a3
  === BLOCK LINK ===
    0x1352
=== CODE BLOCK END ===

=== CODE BLOCK ADDRESS 0x1352 ===
  0x1352	test   	ebx, ebx
  0x1354	jns    	0x1367
  === BLOCK LINK ===
    0x1356
=== CODE BLOCK END ===

=== CODE BLOCK ADDRESS 0x1356 ===
  0x1356	mov    	eax, ebx
  0x1358	movzx  	ecx, bx
  0x135b	and    	eax, 0x1fff0000
  0x1360	cmp    	eax, 0x70000
  0x1365	je     	0x1369
  === BLOCK LINK ===
    0x1367
=== CODE BLOCK END ===

=== CODE BLOCK ADDRESS 0x1367 ===
  0x1367	mov    	ecx, ebx
  0x1369	call   	0x1204
  === BLOCK LINK ===
    0x136e
=== CODE BLOCK END ===

=== CODE BLOCK ADDRESS 0x136e ===
  0x136e	inc    	esp
  0x136f	mov    	ecx, ebx
  0x1371	mov    	dword ptr [esp + 0x20], ebx
  0x1375	dec    	esp
  0x1376	lea    	eax, [0x30dc]
  === BLOCK LINK ===
    0x137c
=== CODE BLOCK END ===

=== CODE BLOCK ADDRESS 0x137c ===
  0x137c	mov    	edx, 0x80
  0x1381	dec    	eax
  0x1382	lea    	ecx, [esp + 0x30]
  0x1386	dec    	eax
  0x1387	call   	dword ptr [0x2fc3]
  === BLOCK LINK ===
    0x138d
=== CODE BLOCK END ===

=== CODE BLOCK ADDRESS 0x138d ===
  0x138d	nop    	dword ptr [eax + eax]
  0x1392	dec    	eax
  0x1393	lea    	ecx, [esp + 0x30]
  0x1397	dec    	eax
  0x1398	call   	dword ptr [0x2f4a]
  === BLOCK LINK ===
    0x139e
=== CODE BLOCK END ===

=== CODE BLOCK ADDRESS 0x139e ===
  0x139e	nop    	dword ptr [eax + eax]
  0x13a3	dec    	eax
  0x13a4	mov    	ecx, dword ptr [esp + 0x130]
  0x13ab	dec    	eax
  0x13ac	xor    	ecx, esp
  === BLOCK LINK ===
    0x13ae
=== CODE BLOCK END ===

=== CODE BLOCK ADDRESS 0x13ae ===
  0x13ae	call   	0x2c00
  === BLOCK LINK ===
    0x13b3
=== CODE BLOCK END ===

=== CODE BLOCK ADDRESS 0x13b3 ===
  0x13b3	dec    	eax
  0x13b4	add    	esp, 0x140
  0x13ba	pop    	ebx
  0x13bb	ret    	
  0x13bc	int3   	
  === BLOCK LINK ===
    0x13bd
=== CODE BLOCK END ===

=== CODE BLOCK ADDRESS 0x13bd ===
  0x13bd	int3   	
  0x13be	int3   	
  0x13bf	int3   	
  0x13c0	int3   	
  0x13c1	int3   	
  === BLOCK LINK ===
    0x13c2
=== CODE BLOCK END ===

=== CODE BLOCK ADDRESS 0x13c2 ===
  0x13c2	int3   	
  0x13c3	int3   	
  0x13c4	inc    	eax
  0x13c5	push   	ebx
  0x13c6	dec    	eax
  === BLOCK LINK ===
    0x13c7
=== CODE BLOCK END ===

=== CODE BLOCK ADDRESS 0x13c7 ===
  0x13c7	sub    	esp, 0x40
  0x13ca	dec    	eax
  0x13cb	mov    	edx, dword ptr [0x521f]
  0x13d1	dec    	eax
  0x13d2	lea    	eax, [esp + 0x58]
  === BLOCK LINK ===
    0x13d6
=== CODE BLOCK END ===

=== CODE BLOCK ADDRESS 0x13d6 ===
  0x13d6	xor    	ebx, ebx
  0x13d8	inc    	esp
  0x13d9	mov    	eax, ecx
  0x13db	dec    	eax
  0x13dc	mov    	dword ptr [esp + 0x30], ebx
  === BLOCK LINK ===
    0x13e0
=== CODE BLOCK END ===

=== CODE BLOCK ADDRESS 0x13e0 ===
  0x13e0	inc    	ebp
  0x13e1	xor    	ecx, ecx
  0x13e3	mov    	dword ptr [esp + 0x28], ebx
  0x13e7	mov    	ecx, 0x900
  0x13ec	dec    	eax
  === BLOCK LINK ===
    0x13ed
=== CODE BLOCK END ===

=== CODE BLOCK ADDRESS 0x13ed ===
  0x13ed	mov    	dword ptr [esp + 0x20], eax
  0x13f1	dec    	eax
  0x13f2	call   	dword ptr [0x2dd0]
  === BLOCK LINK ===
    0x13f8
=== CODE BLOCK END ===

=== CODE BLOCK ADDRESS 0x13f8 ===
  0x13f8	nop    	dword ptr [eax + eax]
  0x13fd	test   	eax, eax
  0x13ff	je     	0x1424
  === BLOCK LINK ===
    0x1401
=== CODE BLOCK END ===

=== CODE BLOCK ADDRESS 0x1401 ===
  0x1401	dec    	eax
  0x1402	mov    	ecx, dword ptr [esp + 0x58]
  0x1406	lea    	edx, [ebx + 0xd]
  0x1409	dec    	eax
  0x140a	call   	dword ptr [0x2f38]
  === BLOCK LINK ===
    0x1410
=== CODE BLOCK END ===

=== CODE BLOCK ADDRESS 0x1410 ===
  0x1410	nop    	dword ptr [eax + eax]
  0x1415	dec    	eax
  0x1416	test   	eax, eax
  0x1418	je     	0x141d
  === BLOCK LINK ===
    0x141a
=== CODE BLOCK END ===

=== CODE BLOCK ADDRESS 0x141a ===
  0x141a	mov    	word ptr [eax], bx
  0x141d	dec    	eax
  0x141e	mov    	eax, dword ptr [esp + 0x58]
  0x1422	jmp    	0x1426
  === BLOCK LINK ===
    0x1424
=== CODE BLOCK END ===

=== CODE BLOCK ADDRESS 0x1424 ===
  0x1424	xor    	eax, eax
  0x1426	dec    	eax
  0x1427	add    	esp, 0x40
  0x142a	pop    	ebx
  0x142b	ret    	
  === BLOCK LINK ===
    0x142c
=== CODE BLOCK END ===

=== CODE BLOCK ADDRESS 0x110d ===
  0x110d	inc    	esp
  0x110e	mov    	ecx, ebp
  0x1110	inc    	ecx
  === BLOCK LINK ===
    0x1111
=== CODE BLOCK END ===

=== CODE BLOCK ADDRESS 0x142c ===
  0x142c	int3   	
  0x142d	int3   	
  0x142e	int3   	
  0x142f	int3   	
  0x1430	int3   	
  === BLOCK LINK ===
    0x1431
=== CODE BLOCK END ===

=== CODE BLOCK ADDRESS 0x1431 ===
  0x1431	int3   	
  0x1432	int3   	
  0x1433	int3   	
  0x1434	dec    	esp
  0x1435	mov    	dword ptr [esp + 0x18], eax
  === BLOCK LINK ===
    0x1439
=== CODE BLOCK END ===

=== CODE BLOCK ADDRESS 0x1439 ===
  0x1439	push   	ebx
  0x143a	push   	ebp
  0x143b	push   	esi
  0x143c	push   	edi
  0x143d	inc    	ecx
  === BLOCK LINK ===
    0x143e
=== CODE BLOCK END ===

=== CODE BLOCK ADDRESS 0x143e ===
  0x143e	push   	esp
  0x143f	inc    	ecx
  0x1440	push   	ebp
  0x1441	inc    	ecx
  0x1442	push   	esi
  === BLOCK LINK ===
    0x1443
=== CODE BLOCK END ===

=== CODE BLOCK ADDRESS 0x1443 ===
  0x1443	inc    	ecx
  0x1444	push   	edi
  0x1445	dec    	eax
  0x1446	sub    	esp, 0x38
  0x1449	xor    	ebp, ebp
  === BLOCK LINK ===
    0x144b
=== CODE BLOCK END ===

=== CODE BLOCK ADDRESS 0x144b ===
  0x144b	lea    	esi, [edx + edx*2]
  0x144e	dec    	ecx
  0x144f	mov    	eax, eax
  0x1451	dec    	esp
  0x1452	mov    	ebp, ecx
  === BLOCK LINK ===
    0x1454
=== CODE BLOCK END ===

=== CODE BLOCK ADDRESS 0x1454 ===
  0x1454	dec    	eax
  0x1455	neg    	eax
  0x1457	inc    	ebp
  0x1458	sbb    	esp, esp
  0x145a	shl    	esi, 4
  === BLOCK LINK ===
    0x145d
=== CODE BLOCK END ===

=== CODE BLOCK ADDRESS 0x145d ===
  0x145d	inc    	ebp
  0x145e	and    	esp, ecx
  0x1460	inc    	esp
  0x1461	mov    	dword ptr [esp + 0x98], esp
  0x1468	test   	edx, edx
  === BLOCK LINK ===
    0x146a
=== CODE BLOCK END ===

=== CODE BLOCK ADDRESS 0x146a ===
  0x146a	je     	0x1566
  === BLOCK LINK ===
    0x1470
=== CODE BLOCK END ===

=== CODE BLOCK ADDRESS 0x1470 ===
  0x1470	inc    	ebp
  0x1471	mov    	edx, esp
  0x1473	dec    	esp
  0x1474	lea    	edi, [ecx + 4]
  0x1477	mov    	eax, edx
  === BLOCK LINK ===
    0x1479
=== CODE BLOCK END ===

=== CODE BLOCK ADDRESS 0x1479 ===
  0x1479	dec    	ebp
  0x147a	lea    	esp, [eax + 8]
  0x147d	dec    	esp
  0x147e	mov    	dword ptr [esp + 0x20], edx
  0x1482	dec    	eax
  === BLOCK LINK ===
    0x1483
=== CODE BLOCK END ===

=== CODE BLOCK ADDRESS 0x1483 ===
  0x1483	mov    	dword ptr [esp + 0x80], eax
  0x148a	inc    	ecx
  0x148b	mov    	eax, dword ptr [edi - 4]
  0x148e	dec    	ecx
  0x148f	add    	eax, ebp
  === BLOCK LINK ===
    0x1491
=== CODE BLOCK END ===

=== CODE BLOCK ADDRESS 0x1491 ===
  0x1491	dec    	eax
  0x1492	or     	edx, 0xffffffff
  0x1495	dec    	eax
  0x1496	inc    	edx
  0x1498	cmp    	word ptr [eax + edx*2], bp
  === BLOCK LINK ===
    0x149c
=== CODE BLOCK END ===

=== CODE BLOCK ADDRESS 0x149c ===
  0x149c	jne    	0x1495
  === BLOCK LINK ===
    0x149e
=== CODE BLOCK END ===

=== CODE BLOCK ADDRESS 0x149e ===
  0x149e	inc    	ecx
  0x149f	mov    	eax, dword ptr [edi]
  0x14a1	inc    	edx
  0x14a3	dec    	ecx
  0x14a4	add    	eax, ebp
  === BLOCK LINK ===
    0x14a6
=== CODE BLOCK END ===

=== CODE BLOCK ADDRESS 0x14a6 ===
  0x14a6	dec    	ecx
  0x14a7	or     	esi, 0xffffffff
  0x14aa	dec    	ecx
  0x14ab	inc    	esi
  0x14ad	inc    	dx
  === BLOCK LINK ===
    0x14af
=== CODE BLOCK END ===

=== CODE BLOCK ADDRESS 0x14af ===
  0x14af	cmp    	dword ptr [eax + esi*2], ebp
  0x14b2	jne    	0x14aa
  === BLOCK LINK ===
    0x14b4
=== CODE BLOCK END ===

=== CODE BLOCK ADDRESS 0x14b4 ===
  0x14b4	inc    	ecx
  0x14b5	inc    	esi
  0x14b7	inc    	ecx
  0x14b8	lea    	eax, [esi + edx]
  0x14bb	dec    	eax
  === BLOCK LINK ===
    0x14bc
=== CODE BLOCK END ===

=== CODE BLOCK ADDRESS 0x14bc ===
  0x14bc	lea    	ecx, [esi + eax*2]
  0x14bf	mov    	dword ptr [esp + 0x88], eax
  0x14c6	dec    	esp
  0x14c7	cmp    	edx, ecx
  0x14c9	jb     	0x153d
  === BLOCK LINK ===
    0x14cb
=== CODE BLOCK END ===

=== CODE BLOCK ADDRESS 0x14cb ===
  0x14cb	inc    	ecx
  0x14cc	movups  	xmm0, xmmword ptr [edi + 4]
  0x14d0	dec    	eax
  0x14d1	lea    	edi, [edx + edx]
  0x14d4	dec    	edx
  === BLOCK LINK ===
    0x14d5
=== CODE BLOCK END ===

=== CODE BLOCK ADDRESS 0x14d5 ===
  0x14d5	lea    	ebx, [esi + eax]
  0x14d8	dec    	esp
  0x14d9	mov    	eax, edi
  0x14db	inc    	ecx
  0x14dc	movups  	xmmword ptr [esp + 8], xmm0
  === BLOCK LINK ===
    0x14e1
=== CODE BLOCK END ===

=== CODE BLOCK ADDRESS 0x14e1 ===
  0x14e1	dec    	eax
  0x14e2	mov    	ecx, ebx
  0x14e4	inc    	ecx
  0x14e6	movups  	xmm1, xmmword ptr [edi + 0x14]
  0x14ea	inc    	ecx
  === BLOCK LINK ===
    0x14ec
=== CODE BLOCK END ===

=== CODE BLOCK ADDRESS 0x14ec ===
  0x14ec	movups  	xmmword ptr [esp + 0x18], xmm1
  0x14f1	inc    	ecx
  0x14f2	mov    	eax, dword ptr [edi + 0x1c]
  0x14f5	inc    	ecx
  0x14f6	mov    	dword ptr [esp + 0x20], eax
  === BLOCK LINK ===
    0x14fa
=== CODE BLOCK END ===

=== CODE BLOCK ADDRESS 0x14fa ===
  0x14fa	inc    	ecx
  0x14fb	mov    	edx, dword ptr [edi - 4]
  0x14fe	dec    	ecx
  0x14ff	add    	edx, ebp
  0x1501	call   	0x31c6
  === BLOCK LINK ===
    0x1506
=== CODE BLOCK END ===

=== CODE BLOCK ADDRESS 0x1506 ===
  0x1506	dec    	ecx
  0x1507	mov    	dword ptr [esp - 8], ebx
  0x150b	inc    	ecx
  0x150c	mov    	edx, dword ptr [edi]
  0x150e	mov    	ebx, esi
  === BLOCK LINK ===
    0x1510
=== CODE BLOCK END ===

=== CODE BLOCK ADDRESS 0x1510 ===
  0x1510	dec    	ecx
  0x1511	add    	edx, ebp
  0x1513	dec    	eax
  0x1514	add    	ebx, edi
  0x1516	inc    	ebp
  === BLOCK LINK ===
    0x1517
=== CODE BLOCK END ===

=== CODE BLOCK ADDRESS 0x1517 ===
  0x1517	mov    	eax, esi
  0x1519	dec    	eax
  0x151a	add    	ebx, dword ptr [esp + 0x90]
  0x1521	dec    	ebp
  0x1522	add    	eax, eax
  === BLOCK LINK ===
    0x1524
=== CODE BLOCK END ===

=== CODE BLOCK ADDRESS 0x1524 ===
  0x1524	dec    	eax
  0x1525	mov    	ecx, ebx
  0x1527	call   	0x31c6
  === BLOCK LINK ===
    0x152c
=== CODE BLOCK END ===

=== CODE BLOCK ADDRESS 0x152c ===
  0x152c	dec    	esp
  0x152d	mov    	eax, dword ptr [esp + 0x90]
  0x1534	dec    	esp
  0x1535	mov    	edx, dword ptr [esp + 0x20]
  0x1539	dec    	ecx
  === BLOCK LINK ===
    0x153a
=== CODE BLOCK END ===

=== CODE BLOCK ADDRESS 0x153a ===
  0x153a	mov    	dword ptr [esp], ebx
  0x153d	mov    	eax, dword ptr [esp + 0x88]
  0x1544	dec    	ecx
  0x1545	add    	edi, 0x24
  0x1548	dec    	ecx
  === BLOCK LINK ===
    0x1549
=== CODE BLOCK END ===

=== CODE BLOCK ADDRESS 0x1549 ===
  0x1549	add    	esp, 0x30
  0x154c	dec    	eax
  0x154d	sub    	dword ptr [esp + 0x80], 1
  0x1555	lea    	esi, [esi + eax*2]
  0x1558	jne    	0x148a
  === BLOCK LINK ===
    0x155e
=== CODE BLOCK END ===

=== CODE BLOCK ADDRESS 0x155e ===
  0x155e	inc    	esp
  0x155f	mov    	esp, dword ptr [esp + 0x98]
  0x1566	inc    	esp
  0x1567	cmp    	esp, esi
  0x1569	jae    	0x157a
  === BLOCK LINK ===
    0x156b
=== CODE BLOCK END ===

=== CODE BLOCK ADDRESS 0x156b ===
  0x156b	dec    	eax
  0x156c	mov    	eax, dword ptr [esp + 0xa0]
  0x1573	mov    	ebp, 0x8007007a
  0x1578	mov    	dword ptr [eax], esi
  0x157a	mov    	eax, ebp
  === BLOCK LINK ===
    0x157c
=== CODE BLOCK END ===

=== CODE BLOCK ADDRESS 0x157c ===
  0x157c	dec    	eax
  0x157d	add    	esp, 0x38
  0x1580	inc    	ecx
  0x1581	pop    	edi
  0x1582	inc    	ecx
  === BLOCK LINK ===
    0x1583
=== CODE BLOCK END ===

=== CODE BLOCK ADDRESS 0x1583 ===
  0x1583	pop    	esi
  0x1584	inc    	ecx
  0x1585	pop    	ebp
  0x1586	inc    	ecx
  0x1587	pop    	esp
  === BLOCK LINK ===
    0x1588
=== CODE BLOCK END ===

=== CODE BLOCK ADDRESS 0x1588 ===
  0x1588	pop    	edi
  0x1589	pop    	esi
  0x158a	pop    	ebp
  0x158b	pop    	ebx
  0x158c	ret    	
  === BLOCK LINK ===
    0x158d
=== CODE BLOCK END ===

=== CODE BLOCK ADDRESS 0x10c5 ===
  0x10c5	dec    	eax
  0x10c6	lea    	eax, [esp + 0x20]
  === BLOCK LINK ===
    0x10ca
=== CODE BLOCK END ===

=== CODE BLOCK ADDRESS 0x158d ===
  0x158d	int3   	
  0x158e	int3   	
  0x158f	int3   	
  0x1590	int3   	
  0x1591	int3   	
  === BLOCK LINK ===
    0x1592
=== CODE BLOCK END ===

=== CODE BLOCK ADDRESS 0x1592 ===
  0x1592	int3   	
  0x1593	int3   	
  0x1594	mov    	dword ptr [esp + 8], ecx
  0x1598	push   	ebx
  0x1599	dec    	eax
  === BLOCK LINK ===
    0x159a
=== CODE BLOCK END ===

=== CODE BLOCK ADDRESS 0x159a ===
  0x159a	sub    	esp, 0x30
  0x159d	dec    	eax
  0x159e	lea    	eax, [esp + 0x48]
  0x15a2	inc    	ecx
  0x15a3	mov    	ecx, 0x20006
  === BLOCK LINK ===
    0x15a8
=== CODE BLOCK END ===

=== CODE BLOCK ADDRESS 0x15a8 ===
  0x15a8	inc    	ebp
  0x15a9	xor    	eax, eax
  0x15ab	dec    	eax
  0x15ac	mov    	dword ptr [esp + 0x20], eax
  0x15b0	dec    	eax
  === BLOCK LINK ===
    0x15b1
=== CODE BLOCK END ===

=== CODE BLOCK ADDRESS 0x15b1 ===
  0x15b1	lea    	edx, [0x2eb9]
  0x15b7	dec    	eax
  0x15b8	mov    	ecx, 0x80000002
  0x15be	dec    	eax
  0x15bf	call   	dword ptr [0x2c73]
  === BLOCK LINK ===
    0x15c5
=== CODE BLOCK END ===

=== CODE BLOCK ADDRESS 0x15c5 ===
  0x15c5	nop    	dword ptr [eax + eax]
  0x15ca	mov    	ebx, eax
  0x15cc	test   	eax, eax
  0x15ce	jne    	0x1659
  === BLOCK LINK ===
    0x15d4
=== CODE BLOCK END ===

=== CODE BLOCK ADDRESS 0x15d4 ===
  0x15d4	dec    	eax
  0x15d5	mov    	ecx, dword ptr [esp + 0x48]
  0x15d9	dec    	eax
  0x15da	call   	dword ptr [0x2c60]
  === BLOCK LINK ===
    0x15e0
=== CODE BLOCK END ===

=== CODE BLOCK ADDRESS 0x15e0 ===
  0x15e0	nop    	dword ptr [eax + eax]
  0x15e5	dec    	eax
  0x15e6	lea    	eax, [esp + 0x48]
  0x15ea	inc    	ecx
  0x15eb	mov    	ecx, 0x20006
  === BLOCK LINK ===
    0x15f0
=== CODE BLOCK END ===

=== CODE BLOCK ADDRESS 0x15f0 ===
  0x15f0	inc    	ebp
  0x15f1	xor    	eax, eax
  0x15f3	dec    	eax
  0x15f4	mov    	dword ptr [esp + 0x20], eax
  0x15f8	dec    	eax
  === BLOCK LINK ===
    0x15f9
=== CODE BLOCK END ===

=== CODE BLOCK ADDRESS 0x15f9 ===
  0x15f9	lea    	edx, [0x2ec9]
  0x15ff	dec    	eax
  0x1600	mov    	ecx, 0x80000002
  0x1606	dec    	eax
  0x1607	call   	dword ptr [0x2c2b]
  === BLOCK LINK ===
    0x160d
=== CODE BLOCK END ===

=== CODE BLOCK ADDRESS 0x160d ===
  0x160d	nop    	dword ptr [eax + eax]
  0x1612	mov    	ebx, eax
  0x1614	test   	eax, eax
  0x1616	jne    	0x1659
  === BLOCK LINK ===
    0x1618
=== CODE BLOCK END ===

=== CODE BLOCK ADDRESS 0x1618 ===
  0x1618	dec    	eax
  0x1619	mov    	ecx, dword ptr [esp + 0x48]
  0x161d	inc    	esp
  0x161e	lea    	ecx, [eax + 4]
  0x1621	dec    	eax
  === BLOCK LINK ===
    0x1622
=== CODE BLOCK END ===

=== CODE BLOCK ADDRESS 0x1622 ===
  0x1622	lea    	eax, [esp + 0x40]
  0x1626	inc    	esp
  0x1627	mov    	dword ptr [esp + 0x28], ecx
  0x162b	inc    	ebp
  0x162c	xor    	eax, eax
  === BLOCK LINK ===
    0x162e
=== CODE BLOCK END ===

=== CODE BLOCK ADDRESS 0x162e ===
  0x162e	dec    	eax
  0x162f	mov    	dword ptr [esp + 0x20], eax
  0x1633	dec    	eax
  0x1634	lea    	edx, [0x2ec6]
  0x163a	dec    	eax
  === BLOCK LINK ===
    0x163b
=== CODE BLOCK END ===

=== CODE BLOCK ADDRESS 0x163b ===
  0x163b	call   	dword ptr [0x2be7]
  === BLOCK LINK ===
    0x1641
=== CODE BLOCK END ===

=== CODE BLOCK ADDRESS 0x1641 ===
  0x1641	nop    	dword ptr [eax + eax]
  0x1646	dec    	eax
  0x1647	mov    	ecx, dword ptr [esp + 0x48]
  0x164b	mov    	ebx, eax
  0x164d	dec    	eax
  === BLOCK LINK ===
    0x164e
=== CODE BLOCK END ===

=== CODE BLOCK ADDRESS 0x164e ===
  0x164e	call   	dword ptr [0x2bec]
  === BLOCK LINK ===
    0x1654
=== CODE BLOCK END ===

=== CODE BLOCK ADDRESS 0x1654 ===
  0x1654	nop    	dword ptr [eax + eax]
  0x1659	movzx  	eax, bx
  0x165c	or     	eax, 0x80070000
  0x1661	test   	ebx, ebx
  0x1663	cmovle  	eax, ebx
  === BLOCK LINK ===
    0x1666
=== CODE BLOCK END ===

=== CODE BLOCK ADDRESS 0x1666 ===
  0x1666	dec    	eax
  0x1667	add    	esp, 0x30
  0x166a	pop    	ebx
  0x166b	ret    	
  0x166c	int3   	
  === BLOCK LINK ===
    0x166d
=== CODE BLOCK END ===

=== CODE BLOCK ADDRESS 0x166d ===
  0x166d	int3   	
  0x166e	int3   	
  0x166f	int3   	
  0x1670	int3   	
  0x1671	int3   	
  === BLOCK LINK ===
    0x1672
=== CODE BLOCK END ===

=== CODE BLOCK ADDRESS 0x1672 ===
  0x1672	int3   	
  0x1673	int3   	
  0x1674	dec    	eax
  0x1675	mov    	dword ptr [esp + 8], ebx
  0x1679	push   	edi
  === BLOCK LINK ===
    0x167a
=== CODE BLOCK END ===

=== CODE BLOCK ADDRESS 0x167a ===
  0x167a	dec    	eax
  0x167b	sub    	esp, 0x20
  0x167e	dec    	eax
  0x167f	mov    	ebx, edx
  0x1681	dec    	eax
  === BLOCK LINK ===
    0x1682
=== CODE BLOCK END ===

=== CODE BLOCK ADDRESS 0x1682 ===
  0x1682	mov    	edi, ecx
  0x1684	dec    	eax
  0x1685	test   	edx, edx
  0x1687	je     	0x16b4
  === BLOCK LINK ===
    0x1689
=== CODE BLOCK END ===

=== CODE BLOCK ADDRESS 0x1689 ===
  0x1689	movzx  	ecx, byte ptr [ecx]
  0x168c	dec    	eax
  0x168d	call   	dword ptr [0x2c7d]
  === BLOCK LINK ===
    0x1693
=== CODE BLOCK END ===

=== CODE BLOCK ADDRESS 0x1693 ===
  0x1693	nop    	dword ptr [eax + eax]
  0x1698	test   	eax, eax
  0x169a	je     	0x16b4
  === BLOCK LINK ===
    0x169c
=== CODE BLOCK END ===

=== CODE BLOCK ADDRESS 0x169c ===
  0x169c	dec    	eax
  0x169d	mov    	ecx, edi
  0x169f	dec    	eax
  0x16a0	call   	dword ptr [0x2c9a]
  === BLOCK LINK ===
    0x16a6
=== CODE BLOCK END ===

=== CODE BLOCK ADDRESS 0x16a6 ===
  0x16a6	nop    	dword ptr [eax + eax]
  0x16ab	mov    	dword ptr [ebx], eax
  0x16ad	mov    	eax, 1
  0x16b2	jmp    	0x16b6
  === BLOCK LINK ===
    0x16b4
=== CODE BLOCK END ===

=== CODE BLOCK ADDRESS 0x16b4 ===
  0x16b4	xor    	eax, eax
  0x16b6	dec    	eax
  0x16b7	mov    	ebx, dword ptr [esp + 0x30]
  0x16bb	dec    	eax
  0x16bc	add    	esp, 0x20
  === BLOCK LINK ===
    0x16bf
=== CODE BLOCK END ===

=== CODE BLOCK ADDRESS 0x16bf ===
  0x16bf	pop    	edi
  0x16c0	ret    	
  0x16c1	int3   	
  0x16c2	int3   	
  0x16c3	int3   	
  === BLOCK LINK ===
    0x16c4
=== CODE BLOCK END ===

=== CODE BLOCK ADDRESS 0x28c4 ===
  0x28c4	jmp    	0x2c3c
  === BLOCK LINK ===
    0x28c9
=== CODE BLOCK END ===

=== CODE BLOCK ADDRESS 0x16c4 ===
  0x16c4	int3   	
  0x16c5	int3   	
  0x16c6	int3   	
  0x16c7	int3   	
  0x16c8	inc    	eax
  === BLOCK LINK ===
    0x16c9
=== CODE BLOCK END ===

=== CODE BLOCK ADDRESS 0x16c9 ===
  0x16c9	push   	ebp
  0x16ca	push   	ebx
  0x16cb	dec    	eax
  0x16cc	mov    	ebp, esp
  0x16ce	dec    	eax
  === BLOCK LINK ===
    0x16cf
=== CODE BLOCK END ===

=== CODE BLOCK ADDRESS 0x16cf ===
  0x16cf	sub    	esp, 0x38
  0x16d2	xor    	ebx, ebx
  0x16d4	mov    	dword ptr [ebp + 0x28], 4
  0x16db	dec    	eax
  0x16dc	lea    	eax, [ebp + 0x30]
  === BLOCK LINK ===
    0x16df
=== CODE BLOCK END ===

=== CODE BLOCK ADDRESS 0x16df ===
  0x16df	dec    	eax
  0x16e0	mov    	dword ptr [ebp + 0x30], ebx
  0x16e3	inc    	ecx
  0x16e4	mov    	ecx, 0x20019
  0x16e9	mov    	dword ptr [ebp + 0x20], ebx
  === BLOCK LINK ===
    0x16ec
=== CODE BLOCK END ===

=== CODE BLOCK ADDRESS 0x16ec ===
  0x16ec	inc    	ebp
  0x16ed	xor    	eax, eax
  0x16ef	mov    	dword ptr [ebp + 0x18], ebx
  0x16f2	dec    	eax
  0x16f3	lea    	edx, [0x2e27]
  === BLOCK LINK ===
    0x16f9
=== CODE BLOCK END ===

=== CODE BLOCK ADDRESS 0x16f9 ===
  0x16f9	dec    	eax
  0x16fa	mov    	dword ptr [esp + 0x20], eax
  0x16fe	dec    	eax
  0x16ff	mov    	ecx, 0x80000002
  0x1705	dec    	eax
  === BLOCK LINK ===
    0x1706
=== CODE BLOCK END ===

=== CODE BLOCK ADDRESS 0x1706 ===
  0x1706	call   	dword ptr [0x2b2c]
  === BLOCK LINK ===
    0x170c
=== CODE BLOCK END ===

=== CODE BLOCK ADDRESS 0x170c ===
  0x170c	nop    	dword ptr [eax + eax]
  0x1711	test   	eax, eax
  0x1713	jne    	0x1769
  === BLOCK LINK ===
    0x1715
=== CODE BLOCK END ===

=== CODE BLOCK ADDRESS 0x1715 ===
  0x1715	dec    	eax
  0x1716	mov    	ecx, dword ptr [ebp + 0x30]
  0x1719	dec    	eax
  0x171a	lea    	eax, [ebp + 0x28]
  0x171d	dec    	eax
  === BLOCK LINK ===
    0x171e
=== CODE BLOCK END ===

=== CODE BLOCK ADDRESS 0x171e ===
  0x171e	mov    	dword ptr [esp + 0x28], eax
  0x1722	dec    	esp
  0x1723	lea    	ecx, [ebp + 0x18]
  0x1726	dec    	eax
  0x1727	lea    	eax, [ebp + 0x20]
  === BLOCK LINK ===
    0x172a
=== CODE BLOCK END ===

=== CODE BLOCK ADDRESS 0x172a ===
  0x172a	inc    	ebp
  0x172b	xor    	eax, eax
  0x172d	dec    	eax
  0x172e	lea    	edx, [0x2e54]
  0x1734	dec    	eax
  === BLOCK LINK ===
    0x1735
=== CODE BLOCK END ===

=== CODE BLOCK ADDRESS 0x1735 ===
  0x1735	mov    	dword ptr [esp + 0x20], eax
  0x1739	dec    	eax
  0x173a	call   	dword ptr [0x2af0]
  === BLOCK LINK ===
    0x1740
=== CODE BLOCK END ===

=== CODE BLOCK ADDRESS 0x1740 ===
  0x1740	nop    	dword ptr [eax + eax]
  0x1745	test   	eax, eax
  0x1747	jne    	0x1759
  === BLOCK LINK ===
    0x1749
=== CODE BLOCK END ===

=== CODE BLOCK ADDRESS 0x1749 ===
  0x1749	cmp    	dword ptr [ebp + 0x18], 4
  0x174d	jne    	0x1759
  === BLOCK LINK ===
    0x174f
=== CODE BLOCK END ===

=== CODE BLOCK ADDRESS 0x174f ===
  0x174f	cmp    	dword ptr [ebp + 0x20], 6
  0x1753	lea    	eax, [ebx + 1]
  0x1756	cmovae  	ebx, eax
  0x1759	dec    	eax
  0x175a	mov    	ecx, dword ptr [ebp + 0x30]
  === BLOCK LINK ===
    0x175d
=== CODE BLOCK END ===

=== CODE BLOCK ADDRESS 0x175d ===
  0x175d	dec    	eax
  0x175e	call   	dword ptr [0x2adc]
  === BLOCK LINK ===
    0x1764
=== CODE BLOCK END ===

=== CODE BLOCK ADDRESS 0x1764 ===
  0x1764	nop    	dword ptr [eax + eax]
  0x1769	mov    	eax, ebx
  0x176b	dec    	eax
  0x176c	add    	esp, 0x38
  0x176f	pop    	ebx
  === BLOCK LINK ===
    0x1770
=== CODE BLOCK END ===

=== CODE BLOCK ADDRESS 0x1770 ===
  0x1770	pop    	ebp
  0x1771	ret    	
  0x1772	int3   	
  0x1773	int3   	
  0x1774	int3   	
  === BLOCK LINK ===
    0x1775
=== CODE BLOCK END ===

=== CODE BLOCK ADDRESS 0x2c00 ===
=== CODE BLOCK END ===

=== CODE BLOCK ADDRESS 0x1775 ===
  0x1775	int3   	
  0x1776	int3   	
  0x1777	int3   	
  0x1778	int3   	
  0x1779	int3   	
  === BLOCK LINK ===
    0x177a
=== CODE BLOCK END ===

=== CODE BLOCK ADDRESS 0x177a ===
  0x177a	int3   	
  0x177b	int3   	
  0x177c	dec    	eax
  0x177d	mov    	eax, esp
  0x177f	dec    	eax
  === BLOCK LINK ===
    0x1780
=== CODE BLOCK END ===

=== CODE BLOCK ADDRESS 0x1780 ===
  0x1780	mov    	dword ptr [eax + 8], ebx
  0x1783	dec    	eax
  0x1784	mov    	dword ptr [eax + 0x10], esi
  0x1787	dec    	eax
  0x1788	mov    	dword ptr [eax + 0x18], edi
  === BLOCK LINK ===
    0x178b
=== CODE BLOCK END ===

=== CODE BLOCK ADDRESS 0x178b ===
  0x178b	push   	ebp
  0x178c	inc    	ecx
  0x178d	push   	esp
  0x178e	inc    	ecx
  0x178f	push   	ebp
  === BLOCK LINK ===
    0x1790
=== CODE BLOCK END ===

=== CODE BLOCK ADDRESS 0x1790 ===
  0x1790	inc    	ecx
  0x1791	push   	esi
  0x1792	inc    	ecx
  0x1793	push   	edi
  0x1794	dec    	eax
  === BLOCK LINK ===
    0x1795
=== CODE BLOCK END ===

=== CODE BLOCK ADDRESS 0x1795 ===
  0x1795	lea    	ebp, [eax - 0x408]
  0x179b	dec    	eax
  0x179c	sub    	esp, 0x4e0
  0x17a2	dec    	eax
  0x17a3	mov    	eax, dword ptr [0x485f]
  === BLOCK LINK ===
    0x17a9
=== CODE BLOCK END ===

=== CODE BLOCK ADDRESS 0x17a9 ===
  0x17a9	dec    	eax
  0x17aa	xor    	eax, esp
  0x17ac	dec    	eax
  0x17ad	mov    	dword ptr [ebp + 0x3d0], eax
  0x17b3	inc    	esp
  === BLOCK LINK ===
    0x17b4
=== CODE BLOCK END ===

=== CODE BLOCK ADDRESS 0x17b4 ===
  0x17b4	mov    	ebp, ecx
  0x17b6	inc    	ebp
  0x17b7	xor    	edi, edi
  0x17b9	dec    	eax
  0x17ba	lea    	ecx, [0x2de8]
  === BLOCK LINK ===
    0x17c0
=== CODE BLOCK END ===

=== CODE BLOCK ADDRESS 0x17c0 ===
  0x17c0	inc    	ecx
  0x17c1	mov    	ebx, edi
  0x17c3	dec    	eax
  0x17c4	call   	dword ptr [0x29ee]
  === BLOCK LINK ===
    0x17ca
=== CODE BLOCK END ===

=== CODE BLOCK ADDRESS 0x17ca ===
  0x17ca	nop    	dword ptr [eax + eax]
  0x17cf	dec    	esp
  0x17d0	mov    	esi, eax
  0x17d2	dec    	eax
  0x17d3	test   	eax, eax
  === BLOCK LINK ===
    0x17d5
=== CODE BLOCK END ===

=== CODE BLOCK ADDRESS 0x17d5 ===
  0x17d5	je     	0x1aa5
  === BLOCK LINK ===
    0x17db
=== CODE BLOCK END ===

=== CODE BLOCK ADDRESS 0x17db ===
  0x17db	dec    	eax
  0x17dc	lea    	edx, [0x2de6]
  0x17e2	dec    	eax
  0x17e3	mov    	ecx, eax
  0x17e5	dec    	eax
  === BLOCK LINK ===
    0x17e6
=== CODE BLOCK END ===

=== CODE BLOCK ADDRESS 0x17e6 ===
  0x17e6	call   	dword ptr [0x29bc]
  === BLOCK LINK ===
    0x17ec
=== CODE BLOCK END ===

=== CODE BLOCK ADDRESS 0x17ec ===
  0x17ec	nop    	dword ptr [eax + eax]
  0x17f1	dec    	eax
  0x17f2	mov    	dword ptr [esp + 0x48], eax
  0x17f6	dec    	eax
  0x17f7	test   	eax, eax
  === BLOCK LINK ===
    0x17f9
=== CODE BLOCK END ===

=== CODE BLOCK ADDRESS 0x17f9 ===
  0x17f9	je     	0x1a96
  === BLOCK LINK ===
    0x17ff
=== CODE BLOCK END ===

=== CODE BLOCK ADDRESS 0x17ff ===
  0x17ff	inc    	ecx
  0x1800	mov    	eax, 0x104
  0x1805	dec    	eax
  0x1806	lea    	edx, [esp + 0x70]
  0x180a	xor    	ecx, ecx
  === BLOCK LINK ===
    0x180c
=== CODE BLOCK END ===

=== CODE BLOCK ADDRESS 0x180c ===
  0x180c	dec    	eax
  0x180d	call   	dword ptr [0x298d]
  === BLOCK LINK ===
    0x1813
=== CODE BLOCK END ===

=== CODE BLOCK ADDRESS 0x1813 ===
  0x1813	nop    	dword ptr [eax + eax]
  0x1818	mov    	edi, 0x80070000
  0x181d	test   	eax, eax
  0x181f	jne    	0x183f
  === BLOCK LINK ===
    0x1821
=== CODE BLOCK END ===

=== CODE BLOCK ADDRESS 0x1821 ===
  0x1821	dec    	eax
  0x1822	call   	dword ptr [0x2930]
  === BLOCK LINK ===
    0x1828
=== CODE BLOCK END ===

=== CODE BLOCK ADDRESS 0x1828 ===
  0x1828	nop    	dword ptr [eax + eax]
  0x182d	movzx  	ebx, ax
  0x1830	or     	ebx, edi
  0x1832	test   	eax, eax
  0x1834	cmovle  	ebx, eax
  === BLOCK LINK ===
    0x1837
=== CODE BLOCK END ===

=== CODE BLOCK ADDRESS 0x1837 ===
  0x1837	test   	ebx, ebx
  0x1839	js     	0x1a96
  === BLOCK LINK ===
    0x183f
=== CODE BLOCK END ===

=== CODE BLOCK ADDRESS 0x183f ===
  0x183f	xor    	edx, edx
  0x1841	xor    	ecx, ecx
  0x1843	inc    	esp
  0x1844	lea    	eax, [edx + 1]
  0x1847	dec    	eax
  === BLOCK LINK ===
    0x1848
=== CODE BLOCK END ===

=== CODE BLOCK ADDRESS 0x1848 ===
  0x1848	call   	dword ptr [0x2a6a]
  === BLOCK LINK ===
    0x184e
=== CODE BLOCK END ===

=== CODE BLOCK ADDRESS 0x184e ===
  0x184e	nop    	dword ptr [eax + eax]
  0x1853	dec    	eax
  0x1854	mov    	esi, eax
  0x1856	dec    	eax
  0x1857	test   	eax, eax
  === BLOCK LINK ===
    0x1859
=== CODE BLOCK END ===

=== CODE BLOCK ADDRESS 0x1859 ===
  0x1859	jne    	0x1876
  === BLOCK LINK ===
    0x185b
=== CODE BLOCK END ===

=== CODE BLOCK ADDRESS 0x185b ===
  0x185b	dec    	eax
  0x185c	call   	dword ptr [0x28f6]
  === BLOCK LINK ===
    0x1862
=== CODE BLOCK END ===

=== CODE BLOCK ADDRESS 0x1862 ===
  0x1862	nop    	dword ptr [eax + eax]
  0x1867	movzx  	ebx, ax
  0x186a	or     	ebx, edi
  0x186c	test   	eax, eax
  0x186e	cmovle  	ebx, eax
  === BLOCK LINK ===
    0x1871
=== CODE BLOCK END ===

=== CODE BLOCK ADDRESS 0x1871 ===
  0x1871	jmp    	0x1a96
  === BLOCK LINK ===
    0x1876
=== CODE BLOCK END ===

=== CODE BLOCK ADDRESS 0x1876 ===
  0x1876	call   	0x16c8
  === BLOCK LINK ===
    0x187b
=== CODE BLOCK END ===

=== CODE BLOCK ADDRESS 0x187b ===
  0x187b	dec    	esp
  0x187c	lea    	ecx, [esp + 0x70]
  0x1880	inc    	esp
  0x1881	mov    	esp, eax
  0x1883	dec    	eax
  === BLOCK LINK ===
    0x1884
=== CODE BLOCK END ===

=== CODE BLOCK ADDRESS 0x1884 ===
  0x1884	lea    	ecx, [ebp + 0x180]
  0x188a	mov    	edx, 0x124
  0x188f	dec    	esp
  0x1890	lea    	eax, [0x2d4a]
  0x1896	test   	eax, eax
  === BLOCK LINK ===
    0x1898
=== CODE BLOCK END ===

=== CODE BLOCK ADDRESS 0x1898 ===
  0x1898	jne    	0x18a1
  === BLOCK LINK ===
    0x189a
=== CODE BLOCK END ===

=== CODE BLOCK ADDRESS 0x189a ===
  0x189a	dec    	esp
  0x189b	lea    	eax, [0x2d6f]
  0x18a1	dec    	eax
  0x18a2	call   	dword ptr [0x2aa8]
  === BLOCK LINK ===
    0x18a8
=== CODE BLOCK END ===

=== CODE BLOCK ADDRESS 0x18a8 ===
  0x18a8	nop    	dword ptr [eax + eax]
  0x18ad	mov    	dword ptr [esp + 0x20], 0x15180
  0x18b5	dec    	eax
  0x18b6	lea    	eax, [ebp + 0x180]
  0x18bc	dec    	eax
  === BLOCK LINK ===
    0x18bd
=== CODE BLOCK END ===

=== CODE BLOCK ADDRESS 0x18bd ===
  0x18bd	mov    	dword ptr [esp + 0x30], eax
  0x18c1	dec    	eax
  0x18c2	lea    	eax, [0x2b48]
  0x18c8	dec    	eax
  0x18c9	mov    	dword ptr [esp + 0x28], eax
  === BLOCK LINK ===
    0x18cd
=== CODE BLOCK END ===

=== CODE BLOCK ADDRESS 0x18cd ===
  0x18cd	dec    	eax
  0x18ce	lea    	eax, [esp + 0x50]
  0x18d2	dec    	eax
  0x18d3	mov    	dword ptr [esp + 0x40], eax
  0x18d7	mov    	edi, 3
  === BLOCK LINK ===
    0x18dc
=== CODE BLOCK END ===

=== CODE BLOCK ADDRESS 0x18dc ===
  0x18dc	mov    	dword ptr [esp + 0x38], edi
  0x18e0	inc    	ebp
  0x18e1	test   	ebp, ebp
  0x18e3	je     	0x1902
  === BLOCK LINK ===
    0x18e5
=== CODE BLOCK END ===

=== CODE BLOCK ADDRESS 0x18e5 ===
  0x18e5	lea    	eax, [edi - 2]
  0x18e8	mov    	dword ptr [esp + 0x50], edi
  0x18ec	mov    	dword ptr [esp + 0x54], eax
  0x18f0	mov    	dword ptr [esp + 0x5c], eax
  0x18f4	mov    	dword ptr [esp + 0x64], eax
  === BLOCK LINK ===
    0x18f8
=== CODE BLOCK END ===

=== CODE BLOCK ADDRESS 0x18f8 ===
  0x18f8	mov    	dword ptr [esp + 0x58], edi
  0x18fc	mov    	dword ptr [esp + 0x60], edi
  0x1900	jmp    	0x1911
  === BLOCK LINK ===
    0x1902
=== CODE BLOCK END ===

=== CODE BLOCK ADDRESS 0x1902 ===
  0x1902	dec    	esp
  0x1903	mov    	dword ptr [esp + 0x50], edi
  0x1907	dec    	esp
  0x1908	mov    	dword ptr [esp + 0x58], edi
  0x190c	dec    	esp
  === BLOCK LINK ===
    0x190d
=== CODE BLOCK END ===

=== CODE BLOCK ADDRESS 0x190d ===
  0x190d	mov    	dword ptr [esp + 0x60], edi
  0x1911	inc    	ecx
  0x1912	mov    	eax, 2
  0x1917	dec    	eax
  0x1918	lea    	edx, [0x2d1a]
  === BLOCK LINK ===
    0x191e
=== CODE BLOCK END ===

=== CODE BLOCK ADDRESS 0x191e ===
  0x191e	dec    	eax
  0x191f	mov    	ecx, esi
  0x1921	dec    	eax
  0x1922	call   	dword ptr [0x2998]
  === BLOCK LINK ===
    0x1928
=== CODE BLOCK END ===

=== CODE BLOCK ADDRESS 0x1928 ===
  0x1928	nop    	dword ptr [eax + eax]
  0x192d	dec    	esp
  0x192e	mov    	edi, eax
  0x1930	dec    	eax
  0x1931	test   	eax, eax
  === BLOCK LINK ===
    0x1933
=== CODE BLOCK END ===

=== CODE BLOCK ADDRESS 0x1933 ===
  0x1933	je     	0x197f
  === BLOCK LINK ===
    0x1935
=== CODE BLOCK END ===

=== CODE BLOCK ADDRESS 0x1935 ===
  0x1935	dec    	eax
  0x1936	mov    	ecx, eax
  0x1938	dec    	esp
  0x1939	lea    	eax, [esp + 0x20]
  0x193d	dec    	eax
  === BLOCK LINK ===
    0x193e
=== CODE BLOCK END ===

=== CODE BLOCK ADDRESS 0x193e ===
  0x193e	mov    	eax, dword ptr [esp + 0x48]
  0x1942	mov    	edx, 2
  0x1947	call   	dword ptr [0x2a53]
  === BLOCK LINK ===
    0x194d
=== CODE BLOCK END ===

=== CODE BLOCK ADDRESS 0x194d ===
  0x194d	test   	eax, eax
  0x194f	jne    	0x196b
  === BLOCK LINK ===
    0x1951
=== CODE BLOCK END ===

=== CODE BLOCK ADDRESS 0x1951 ===
  0x1951	dec    	eax
  0x1952	call   	dword ptr [0x2800]
  === BLOCK LINK ===
    0x1958
=== CODE BLOCK END ===

=== CODE BLOCK ADDRESS 0x1958 ===
  0x1958	nop    	dword ptr [eax + eax]
  0x195d	movzx  	ebx, ax
  0x1960	or     	ebx, 0x80070000
  0x1966	test   	eax, eax
  0x1968	cmovle  	ebx, eax
  === BLOCK LINK ===
    0x196b
=== CODE BLOCK END ===

=== CODE BLOCK ADDRESS 0x196b ===
  0x196b	dec    	ecx
  0x196c	mov    	ecx, edi
  0x196e	dec    	eax
  0x196f	call   	dword ptr [0x293b]
  === BLOCK LINK ===
    0x1975
=== CODE BLOCK END ===

=== CODE BLOCK ADDRESS 0x1975 ===
  0x1975	nop    	dword ptr [eax + eax]
  0x197a	inc    	ebp
  0x197b	xor    	edi, edi
  0x197d	jmp    	0x199c
  === BLOCK LINK ===
    0x197f
=== CODE BLOCK END ===

=== CODE BLOCK ADDRESS 0x197f ===
  0x197f	dec    	eax
  0x1980	call   	dword ptr [0x27d2]
  === BLOCK LINK ===
    0x1986
=== CODE BLOCK END ===

=== CODE BLOCK ADDRESS 0x1986 ===
  0x1986	nop    	dword ptr [eax + eax]
  0x198b	movzx  	ebx, ax
  0x198e	inc    	ebp
  0x198f	xor    	edi, edi
  0x1991	or     	ebx, 0x80070000
  === BLOCK LINK ===
    0x1997
=== CODE BLOCK END ===

=== CODE BLOCK ADDRESS 0x1997 ===
  0x1997	test   	eax, eax
  0x1999	cmovle  	ebx, eax
  0x199c	inc    	ebp
  0x199d	test   	esp, esp
  0x199f	je     	0x1a87
  === BLOCK LINK ===
    0x19a5
=== CODE BLOCK END ===

=== CODE BLOCK ADDRESS 0x19a5 ===
  0x19a5	dec    	esp
  0x19a6	mov    	dword ptr [esp + 0x30], edi
  0x19aa	dec    	eax
  0x19ab	lea    	eax, [0x2a5f]
  0x19b1	dec    	eax
  === BLOCK LINK ===
    0x19b2
=== CODE BLOCK END ===

=== CODE BLOCK ADDRESS 0x19b2 ===
  0x19b2	mov    	dword ptr [esp + 0x28], eax
  0x19b6	dec    	eax
  0x19b7	lea    	eax, [esp + 0x50]
  0x19bb	dec    	eax
  0x19bc	mov    	dword ptr [esp + 0x40], eax
  === BLOCK LINK ===
    0x19c0
=== CODE BLOCK END ===

=== CODE BLOCK ADDRESS 0x19c0 ===
  0x19c0	mov    	dword ptr [esp + 0x20], 0x15180
  0x19c8	mov    	dword ptr [esp + 0x38], edi
  0x19cc	inc    	ebp
  0x19cd	test   	ebp, ebp
  0x19cf	je     	0x19f0
  === BLOCK LINK ===
    0x19d1
=== CODE BLOCK END ===

=== CODE BLOCK ADDRESS 0x19d1 ===
  0x19d1	mov    	eax, 1
  0x19d6	mov    	dword ptr [esp + 0x50], eax
  0x19da	mov    	dword ptr [esp + 0x54], eax
  0x19de	mov    	dword ptr [esp + 0x58], eax
  0x19e2	mov    	dword ptr [esp + 0x5c], eax
  === BLOCK LINK ===
    0x19e6
=== CODE BLOCK END ===

=== CODE BLOCK ADDRESS 0x19e6 ===
  0x19e6	mov    	dword ptr [esp + 0x60], eax
  0x19ea	mov    	dword ptr [esp + 0x64], eax
  0x19ee	jmp    	0x1a02
  === BLOCK LINK ===
    0x19f0
=== CODE BLOCK END ===

=== CODE BLOCK ADDRESS 0x19f0 ===
  0x19f0	dec    	eax
  0x19f1	and    	dword ptr [esp + 0x50], 0
  0x19f6	dec    	eax
  0x19f7	and    	dword ptr [esp + 0x58], 0
  0x19fc	dec    	eax
  === BLOCK LINK ===
    0x19fd
=== CODE BLOCK END ===

=== CODE BLOCK ADDRESS 0x19fd ===
  0x19fd	and    	dword ptr [esp + 0x60], 0
  0x1a02	inc    	ecx
  0x1a03	mov    	eax, 0x12
  0x1a08	dec    	eax
  0x1a09	lea    	edx, [0x2c41]
  === BLOCK LINK ===
    0x1a0f
=== CODE BLOCK END ===

=== CODE BLOCK ADDRESS 0x1a0f ===
  0x1a0f	dec    	eax
  0x1a10	mov    	ecx, esi
  0x1a12	dec    	eax
  0x1a13	call   	dword ptr [0x28a7]
  === BLOCK LINK ===
    0x1a19
=== CODE BLOCK END ===

=== CODE BLOCK ADDRESS 0x1a19 ===
  0x1a19	nop    	dword ptr [eax + eax]
  0x1a1e	dec    	eax
  0x1a1f	mov    	edi, eax
  0x1a21	dec    	eax
  0x1a22	test   	eax, eax
  === BLOCK LINK ===
    0x1a24
=== CODE BLOCK END ===

=== CODE BLOCK ADDRESS 0x1a24 ===
  0x1a24	je     	0x1a6d
  === BLOCK LINK ===
    0x1a26
=== CODE BLOCK END ===

=== CODE BLOCK ADDRESS 0x1a26 ===
  0x1a26	dec    	eax
  0x1a27	mov    	ecx, eax
  0x1a29	dec    	esp
  0x1a2a	lea    	eax, [esp + 0x20]
  0x1a2e	dec    	eax
  === BLOCK LINK ===
    0x1a2f
=== CODE BLOCK END ===

=== CODE BLOCK ADDRESS 0x1a2f ===
  0x1a2f	mov    	eax, dword ptr [esp + 0x48]
  0x1a33	mov    	edx, 2
  0x1a38	call   	dword ptr [0x2962]
  === BLOCK LINK ===
    0x1a3e
=== CODE BLOCK END ===

=== CODE BLOCK ADDRESS 0x1a3e ===
  0x1a3e	test   	eax, eax
  0x1a40	jne    	0x1a5c
  === BLOCK LINK ===
    0x1a42
=== CODE BLOCK END ===

=== CODE BLOCK ADDRESS 0x1a42 ===
  0x1a42	dec    	eax
  0x1a43	call   	dword ptr [0x270f]
  === BLOCK LINK ===
    0x1a49
=== CODE BLOCK END ===

=== CODE BLOCK ADDRESS 0x1a49 ===
  0x1a49	nop    	dword ptr [eax + eax]
  0x1a4e	movzx  	ebx, ax
  0x1a51	or     	ebx, 0x80070000
  0x1a57	test   	eax, eax
  0x1a59	cmovle  	ebx, eax
  === BLOCK LINK ===
    0x1a5c
=== CODE BLOCK END ===

=== CODE BLOCK ADDRESS 0x1a5c ===
  0x1a5c	dec    	eax
  0x1a5d	mov    	ecx, edi
  0x1a5f	dec    	eax
  0x1a60	call   	dword ptr [0x284a]
  === BLOCK LINK ===
    0x1a66
=== CODE BLOCK END ===

=== CODE BLOCK ADDRESS 0x1a66 ===
  0x1a66	nop    	dword ptr [eax + eax]
  0x1a6b	jmp    	0x1a87
  === BLOCK LINK ===
    0x1a6d
=== CODE BLOCK END ===

=== CODE BLOCK ADDRESS 0x1a6d ===
  0x1a6d	dec    	eax
  0x1a6e	call   	dword ptr [0x26e4]
  === BLOCK LINK ===
    0x1a74
=== CODE BLOCK END ===

=== CODE BLOCK ADDRESS 0x1a74 ===
  0x1a74	nop    	dword ptr [eax + eax]
  0x1a79	movzx  	ebx, ax
  0x1a7c	or     	ebx, 0x80070000
  0x1a82	test   	eax, eax
  0x1a84	cmovle  	ebx, eax
  === BLOCK LINK ===
    0x1a87
=== CODE BLOCK END ===

=== CODE BLOCK ADDRESS 0x1a87 ===
  0x1a87	dec    	eax
  0x1a88	mov    	ecx, esi
  0x1a8a	dec    	eax
  0x1a8b	call   	dword ptr [0x281f]
  === BLOCK LINK ===
    0x1a91
=== CODE BLOCK END ===

=== CODE BLOCK ADDRESS 0x1a91 ===
  0x1a91	nop    	dword ptr [eax + eax]
  0x1a96	dec    	ecx
  0x1a97	mov    	ecx, esi
  0x1a99	dec    	eax
  0x1a9a	call   	dword ptr [0x26f0]
  === BLOCK LINK ===
    0x1aa0
=== CODE BLOCK END ===

=== CODE BLOCK ADDRESS 0x1aa0 ===
  0x1aa0	nop    	dword ptr [eax + eax]
  0x1aa5	mov    	eax, ebx
  0x1aa7	dec    	eax
  0x1aa8	mov    	ecx, dword ptr [ebp + 0x3d0]
  0x1aae	dec    	eax
  === BLOCK LINK ===
    0x1aaf
=== CODE BLOCK END ===

=== CODE BLOCK ADDRESS 0x1aaf ===
  0x1aaf	xor    	ecx, esp
  0x1ab1	call   	0x2c00
  === BLOCK LINK ===
    0x1ab6
=== CODE BLOCK END ===

=== CODE BLOCK ADDRESS 0x1ab6 ===
  0x1ab6	dec    	esp
  0x1ab7	lea    	ebx, [esp + 0x4e0]
  0x1abe	dec    	ecx
  0x1abf	mov    	ebx, dword ptr [ebx + 0x30]
  0x1ac2	dec    	ecx
  === BLOCK LINK ===
    0x1ac3
=== CODE BLOCK END ===

=== CODE BLOCK ADDRESS 0x1ac3 ===
  0x1ac3	mov    	esi, dword ptr [ebx + 0x38]
  0x1ac6	dec    	ecx
  0x1ac7	mov    	edi, dword ptr [ebx + 0x40]
  0x1aca	dec    	ecx
  0x1acb	mov    	esp, ebx
  === BLOCK LINK ===
    0x1acd
=== CODE BLOCK END ===

=== CODE BLOCK ADDRESS 0x1acd ===
  0x1acd	inc    	ecx
  0x1ace	pop    	edi
  0x1acf	inc    	ecx
  0x1ad0	pop    	esi
  0x1ad1	inc    	ecx
  === BLOCK LINK ===
    0x1ad2
=== CODE BLOCK END ===

=== CODE BLOCK ADDRESS 0x1ad2 ===
  0x1ad2	pop    	ebp
  0x1ad3	inc    	ecx
  0x1ad4	pop    	esp
  0x1ad5	pop    	ebp
  0x1ad6	ret    	
  === BLOCK LINK ===
    0x1ad7
=== CODE BLOCK END ===

=== CODE BLOCK ADDRESS 0x1157 ===
  0x1157	dec    	ecx
  0x1158	mov    	edx, esi
  0x115a	test   	ecx, ecx
  === BLOCK LINK ===
    0x115c
=== CODE BLOCK END ===

=== CODE BLOCK ADDRESS 0x1ad7 ===
  0x1ad7	int3   	
  0x1ad8	int3   	
  0x1ad9	int3   	
  0x1ada	int3   	
  0x1adb	int3   	
  === BLOCK LINK ===
    0x1adc
=== CODE BLOCK END ===

=== CODE BLOCK ADDRESS 0x1adc ===
  0x1adc	int3   	
  0x1add	int3   	
  0x1ade	int3   	
  0x1adf	int3   	
  0x1ae0	dec    	eax
  === BLOCK LINK ===
    0x1ae1
=== CODE BLOCK END ===

=== CODE BLOCK ADDRESS 0x1ae1 ===
  0x1ae1	mov    	eax, esp
  0x1ae3	dec    	eax
  0x1ae4	mov    	dword ptr [eax + 8], ebx
  0x1ae7	dec    	eax
  0x1ae8	mov    	dword ptr [eax + 0x18], esi
  === BLOCK LINK ===
    0x1aeb
=== CODE BLOCK END ===

=== CODE BLOCK ADDRESS 0x1aeb ===
  0x1aeb	dec    	eax
  0x1aec	mov    	dword ptr [eax + 0x20], edi
  0x1aef	push   	ebp
  0x1af0	inc    	ecx
  0x1af1	push   	esp
  === BLOCK LINK ===
    0x1af2
=== CODE BLOCK END ===

=== CODE BLOCK ADDRESS 0x1af2 ===
  0x1af2	inc    	ecx
  0x1af3	push   	ebp
  0x1af4	inc    	ecx
  0x1af5	push   	esi
  0x1af6	inc    	ecx
  === BLOCK LINK ===
    0x1af7
=== CODE BLOCK END ===

=== CODE BLOCK ADDRESS 0x1af7 ===
  0x1af7	push   	edi
  0x1af8	dec    	eax
  0x1af9	lea    	ebp, [eax - 0x20c8]
  0x1aff	mov    	eax, 0x21a0
  0x1b04	call   	0x3200
  === BLOCK LINK ===
    0x1b09
=== CODE BLOCK END ===

=== CODE BLOCK ADDRESS 0x1b09 ===
  0x1b09	dec    	eax
  0x1b0a	sub    	esp, eax
  0x1b0c	dec    	eax
  0x1b0d	mov    	eax, dword ptr [0x44f5]
  0x1b13	dec    	eax
  === BLOCK LINK ===
    0x1b14
=== CODE BLOCK END ===

=== CODE BLOCK ADDRESS 0x1b14 ===
  0x1b14	xor    	eax, esp
  0x1b16	dec    	eax
  0x1b17	mov    	dword ptr [ebp + 0x2090], eax
  0x1b1d	xor    	eax, eax
  0x1b1f	dec    	eax
  === BLOCK LINK ===
    0x1b20
=== CODE BLOCK END ===

=== CODE BLOCK ADDRESS 0x1b20 ===
  0x1b20	mov    	dword ptr [esp + 0x70], edx
  0x1b24	and    	dword ptr [esp + 0x50], eax
  0x1b28	dec    	esp
  0x1b29	lea    	esi, [0x2b31]
  0x1b2f	xor    	ebx, ebx
  === BLOCK LINK ===
    0x1b31
=== CODE BLOCK END ===

=== CODE BLOCK ADDRESS 0x1b31 ===
  0x1b31	mov    	dword ptr [esp + 0x30], ecx
  0x1b35	and    	dword ptr [esp + 0x60], ebx
  0x1b39	mov    	edi, 0xea60
  0x1b3e	inc    	ecx
  0x1b3f	mov    	ebp, 0x4e20
  === BLOCK LINK ===
    0x1b44
=== CODE BLOCK END ===

=== CODE BLOCK ADDRESS 0x1b44 ===
  0x1b44	mov    	dword ptr [esp + 0x34], edi
  0x1b48	xor    	esi, esi
  0x1b4a	inc    	esp
  0x1b4b	mov    	dword ptr [esp + 0x40], ebp
  0x1b4f	lea    	ecx, [ebx + 1]
  === BLOCK LINK ===
    0x1b52
=== CODE BLOCK END ===

=== CODE BLOCK ADDRESS 0x1b52 ===
  0x1b52	mov    	dword ptr [esp + 0x44], edi
  0x1b56	dec    	ecx
  0x1b57	mov    	edx, esi
  0x1b59	mov    	dword ptr [esp + 0x54], 1
  0x1b61	inc    	ebp
  === BLOCK LINK ===
    0x1b62
=== CODE BLOCK END ===

=== CODE BLOCK ADDRESS 0x1b62 ===
  0x1b62	xor    	edi, edi
  0x1b64	mov    	dword ptr [esp + 0x5c], 1
  0x1b6c	inc    	ebp
  0x1b6d	xor    	esp, esp
  0x1b6f	mov    	dword ptr [esp + 0x4c], eax
  === BLOCK LINK ===
    0x1b73
=== CODE BLOCK END ===

=== CODE BLOCK ADDRESS 0x1b73 ===
  0x1b73	dec    	eax
  0x1b74	mov    	dword ptr [esp + 0x68], esi
  0x1b78	mov    	dword ptr [esp + 0x38], eax
  0x1b7c	dec    	eax
  0x1b7d	call   	dword ptr [0x27ad]
  === BLOCK LINK ===
    0x1b83
=== CODE BLOCK END ===

=== CODE BLOCK ADDRESS 0x1b83 ===
  0x1b83	nop    	dword ptr [eax + eax]
  0x1b88	dec    	ecx
  0x1b89	mov    	edx, esi
  0x1b8b	lea    	ecx, [ebx + 3]
  0x1b8e	dec    	eax
  === BLOCK LINK ===
    0x1b8f
=== CODE BLOCK END ===

=== CODE BLOCK ADDRESS 0x1b8f ===
  0x1b8f	call   	dword ptr [0x279b]
  === BLOCK LINK ===
    0x1b95
=== CODE BLOCK END ===

=== CODE BLOCK ADDRESS 0x1b95 ===
  0x1b95	nop    	dword ptr [eax + eax]
  0x1b9a	dec    	ecx
  0x1b9b	mov    	edx, esi
  0x1b9d	lea    	ecx, [ebx + 4]
  0x1ba0	dec    	eax
  === BLOCK LINK ===
    0x1ba1
=== CODE BLOCK END ===

=== CODE BLOCK ADDRESS 0x1ba1 ===
  0x1ba1	call   	dword ptr [0x2789]
  === BLOCK LINK ===
    0x1ba7
=== CODE BLOCK END ===

=== CODE BLOCK ADDRESS 0x1ba7 ===
  0x1ba7	nop    	dword ptr [eax + eax]
  0x1bac	dec    	ecx
  0x1bad	mov    	edx, esi
  0x1baf	lea    	ecx, [ebx + 5]
  0x1bb2	dec    	eax
  === BLOCK LINK ===
    0x1bb3
=== CODE BLOCK END ===

=== CODE BLOCK ADDRESS 0x1bb3 ===
  0x1bb3	call   	dword ptr [0x2777]
  === BLOCK LINK ===
    0x1bb9
=== CODE BLOCK END ===

=== CODE BLOCK ADDRESS 0x1bb9 ===
  0x1bb9	nop    	dword ptr [eax + eax]
  0x1bbe	dec    	eax
  0x1bbf	call   	dword ptr [0x2583]
  === BLOCK LINK ===
    0x1bc5
=== CODE BLOCK END ===

=== CODE BLOCK ADDRESS 0x1bc5 ===
  0x1bc5	nop    	dword ptr [eax + eax]
  0x1bca	inc    	esp
  0x1bcb	mov    	ecx, eax
  0x1bcd	dec    	esp
  0x1bce	lea    	eax, [0x2a9c]
  === BLOCK LINK ===
    0x1bd4
=== CODE BLOCK END ===

=== CODE BLOCK ADDRESS 0x1bd4 ===
  0x1bd4	lea    	edx, [ebx + 0xc]
  0x1bd7	dec    	eax
  0x1bd8	lea    	ecx, [ebp - 0x10]
  0x1bdb	dec    	eax
  0x1bdc	call   	dword ptr [0x276e]
  === BLOCK LINK ===
    0x1be2
=== CODE BLOCK END ===

=== CODE BLOCK ADDRESS 0x1be2 ===
  0x1be2	nop    	dword ptr [eax + eax]
  0x1be7	dec    	eax
  0x1be8	lea    	edx, [ebp - 0x10]
  0x1beb	lea    	ecx, [ebx + 2]
  0x1bee	dec    	eax
  === BLOCK LINK ===
    0x1bef
=== CODE BLOCK END ===

=== CODE BLOCK ADDRESS 0x1bef ===
  0x1bef	call   	dword ptr [0x273b]
  === BLOCK LINK ===
    0x1bf5
=== CODE BLOCK END ===

=== CODE BLOCK ADDRESS 0x1bf5 ===
  0x1bf5	nop    	dword ptr [eax + eax]
  0x1bfa	xor    	ecx, ecx
  0x1bfc	dec    	eax
  0x1bfd	call   	dword ptr [0x25cd]
  === BLOCK LINK ===
    0x1c03
=== CODE BLOCK END ===

=== CODE BLOCK ADDRESS 0x1c03 ===
  0x1c03	nop    	dword ptr [eax + eax]
  0x1c08	call   	0x1008
  === BLOCK LINK ===
    0x1c0d
=== CODE BLOCK END ===

=== CODE BLOCK ADDRESS 0x1c0d ===
  0x1c0d	inc    	esp
  0x1c0e	mov    	esi, eax
  0x1c10	test   	eax, eax
  0x1c12	jne    	0x282a
  === BLOCK LINK ===
    0x1c18
=== CODE BLOCK END ===

=== CODE BLOCK ADDRESS 0x1c18 ===
  0x1c18	dec    	eax
  0x1c19	lea    	ecx, [0x2a59]
  0x1c1f	dec    	eax
  0x1c20	call   	dword ptr [0x26c2]
  === BLOCK LINK ===
    0x1c26
=== CODE BLOCK END ===

=== CODE BLOCK ADDRESS 0x1c26 ===
  0x1c26	nop    	dword ptr [eax + eax]
  0x1c2b	cmp    	dword ptr [esp + 0x30], 1
  0x1c30	mov    	dword ptr [esp + 0x58], 1
  0x1c38	jle    	0x2183
  === BLOCK LINK ===
    0x1c3e
=== CODE BLOCK END ===

=== CODE BLOCK ADDRESS 0x1c3e ===
  0x1c3e	dec    	eax
  0x1c3f	mov    	esi, dword ptr [esp + 0x70]
  0x1c43	mov    	ecx, dword ptr [esp + 0x30]
  0x1c47	dec    	eax
  0x1c48	add    	esi, 8
  === BLOCK LINK ===
    0x1c4b
=== CODE BLOCK END ===

=== CODE BLOCK ADDRESS 0x1c4b ===
  0x1c4b	dec    	esp
  0x1c4c	mov    	eax, dword ptr [esi]
  0x1c4e	inc    	ecx
  0x1c4f	mov    	al, byte ptr [eax]
  0x1c51	sub    	al, 0x2d
  === BLOCK LINK ===
    0x1c53
=== CODE BLOCK END ===

=== CODE BLOCK ADDRESS 0x1c53 ===
  0x1c53	test   	al, 0xfd
  0x1c55	je     	0x1c61
  === BLOCK LINK ===
    0x1c57
=== CODE BLOCK END ===

=== CODE BLOCK ADDRESS 0x1c57 ===
  0x1c57	dec    	esp
  0x1c58	mov    	dword ptr [esp + 0x68], eax
  0x1c5c	jmp    	0x2168
  === BLOCK LINK ===
    0x1c61
=== CODE BLOCK END ===

=== CODE BLOCK ADDRESS 0x1c61 ===
  0x1c61	or     	dword ptr [esp + 0x28], 0xffffffff
  0x1c66	dec    	eax
  0x1c67	lea    	eax, [0x2a0f]
  0x1c6d	inc    	ecx
  0x1c6e	or     	ecx, 0xffffffff
  === BLOCK LINK ===
    0x1c71
=== CODE BLOCK END ===

=== CODE BLOCK ADDRESS 0x1c71 ===
  0x1c71	dec    	eax
  0x1c72	mov    	dword ptr [esp + 0x20], eax
  0x1c76	dec    	ecx
  0x1c77	inc    	eax
  0x1c79	inc    	ecx
  === BLOCK LINK ===
    0x1c7a
=== CODE BLOCK END ===

=== CODE BLOCK ADDRESS 0x1c7a ===
  0x1c7a	lea    	edx, [ecx + 2]
  0x1c7d	lea    	ecx, [edx + 0x7e]
  0x1c80	dec    	eax
  0x1c81	call   	dword ptr [0x2559]
  === BLOCK LINK ===
    0x1c87
=== CODE BLOCK END ===

=== CODE BLOCK ADDRESS 0x1c87 ===
  0x1c87	nop    	dword ptr [eax + eax]
  0x1c8c	mov    	ecx, 2
  0x1c91	cmp    	eax, ecx
  0x1c93	jne    	0x1d06
  === BLOCK LINK ===
    0x1c95
=== CODE BLOCK END ===

=== CODE BLOCK ADDRESS 0x1c95 ===
  0x1c95	mov    	ecx, 1
  0x1c9a	call   	0x1594
  === BLOCK LINK ===
    0x1c9f
=== CODE BLOCK END ===

=== CODE BLOCK ADDRESS 0x1c9f ===
  0x1c9f	mov    	ebx, eax
  0x1ca1	test   	eax, eax
  0x1ca3	jns    	0x1ced
  === BLOCK LINK ===
    0x1ca5
=== CODE BLOCK END ===

=== CODE BLOCK ADDRESS 0x1ca5 ===
  0x1ca5	mov    	edi, ebx
  0x1ca7	and    	edi, 0x1fff0000
  0x1cad	cmp    	ebx, 0x80070005
  0x1cb3	jne    	0x1cc6
  === BLOCK LINK ===
    0x1cb5
=== CODE BLOCK END ===

=== CODE BLOCK ADDRESS 0x1cb5 ===
  0x1cb5	inc    	ebp
  0x1cb6	xor    	eax, eax
  0x1cb8	xor    	edx, edx
  0x1cba	mov    	ecx, 0xc31
  0x1cbf	call   	0x128c
  === BLOCK LINK ===
    0x1cc4
=== CODE BLOCK END ===

=== CODE BLOCK ADDRESS 0x1cc4 ===
  0x1cc4	jmp    	0x1cd8
  === BLOCK LINK ===
    0x1cc6
=== CODE BLOCK END ===

=== CODE BLOCK ADDRESS 0x1cc6 ===
  0x1cc6	movzx  	ecx, bx
  0x1cc9	cmp    	edi, 0x70000
  0x1ccf	je     	0x1cd3
  === BLOCK LINK ===
    0x1cd1
=== CODE BLOCK END ===

=== CODE BLOCK ADDRESS 0x1cd1 ===
  0x1cd1	mov    	ecx, ebx
  0x1cd3	call   	0x1204
  === BLOCK LINK ===
    0x1cd8
=== CODE BLOCK END ===

=== CODE BLOCK ADDRESS 0x1cd8 ===
  0x1cd8	inc    	esp
  0x1cd9	movzx  	esi, bx
  0x1cdc	cmp    	edi, 0x70000
  0x1ce2	je     	0x1ce7
  === BLOCK LINK ===
    0x1ce4
=== CODE BLOCK END ===

=== CODE BLOCK ADDRESS 0x1ce4 ===
  0x1ce4	inc    	esp
  0x1ce5	mov    	esi, ebx
  0x1ce7	mov    	edi, dword ptr [esp + 0x34]
  0x1ceb	jmp    	0x1cfc
  === BLOCK LINK ===
    0x1ced
=== CODE BLOCK END ===

=== CODE BLOCK ADDRESS 0x1ced ===
  0x1ced	mov    	ecx, 0xc2d
  0x1cf2	inc    	ebp
  0x1cf3	xor    	eax, eax
  0x1cf5	xor    	edx, edx
  0x1cf7	call   	0x128c
  === BLOCK LINK ===
    0x1cfc
=== CODE BLOCK END ===

=== CODE BLOCK ADDRESS 0x1cfc ===
  0x1cfc	mov    	ebx, 1
  0x1d01	jmp    	0x2164
  === BLOCK LINK ===
    0x1d06
=== CODE BLOCK END ===

=== CODE BLOCK ADDRESS 0x1d06 ===
  0x1d06	dec    	esp
  0x1d07	mov    	eax, dword ptr [esi]
  0x1d09	dec    	eax
  0x1d0a	lea    	eax, [0x2978]
  0x1d10	inc    	ecx
  === BLOCK LINK ===
    0x1d11
=== CODE BLOCK END ===

=== CODE BLOCK ADDRESS 0x1d11 ===
  0x1d11	or     	ecx, 0xffffffff
  0x1d14	dec    	ecx
  0x1d15	inc    	eax
  0x1d17	inc    	esp
  0x1d18	mov    	dword ptr [esp + 0x28], ecx
  === BLOCK LINK ===
    0x1d1c
=== CODE BLOCK END ===

=== CODE BLOCK ADDRESS 0x1d1c ===
  0x1d1c	dec    	eax
  0x1d1d	mov    	dword ptr [esp + 0x20], eax
  0x1d21	inc    	ecx
  0x1d22	lea    	edx, [ecx + 2]
  0x1d25	lea    	ecx, [edx + 0x7e]
  === BLOCK LINK ===
    0x1d28
=== CODE BLOCK END ===

=== CODE BLOCK ADDRESS 0x1d28 ===
  0x1d28	dec    	eax
  0x1d29	call   	dword ptr [0x24b1]
  === BLOCK LINK ===
    0x1d2f
=== CODE BLOCK END ===

=== CODE BLOCK ADDRESS 0x1d2f ===
  0x1d2f	nop    	dword ptr [eax + eax]
  0x1d34	mov    	ecx, 2
  0x1d39	cmp    	eax, ecx
  0x1d3b	jne    	0x1d55
  === BLOCK LINK ===
    0x1d3d
=== CODE BLOCK END ===

=== CODE BLOCK ADDRESS 0x1d3d ===
  0x1d3d	xor    	ecx, ecx
  0x1d3f	call   	0x1594
  === BLOCK LINK ===
    0x1d44
=== CODE BLOCK END ===

=== CODE BLOCK ADDRESS 0x1d44 ===
  0x1d44	mov    	ebx, eax
  0x1d46	test   	eax, eax
  0x1d48	js     	0x1ca5
  === BLOCK LINK ===
    0x1d4e
=== CODE BLOCK END ===

=== CODE BLOCK ADDRESS 0x1d4e ===
  0x1d4e	mov    	ecx, 0xc2c
  0x1d53	jmp    	0x1cf2
  === BLOCK LINK ===
    0x1d55
=== CODE BLOCK END ===

=== CODE BLOCK ADDRESS 0x1d55 ===
  0x1d55	dec    	eax
  0x1d56	mov    	ecx, dword ptr [esi]
  0x1d58	dec    	eax
  0x1d59	lea    	edx, [0x2931]
  0x1d5f	dec    	eax
  === BLOCK LINK ===
    0x1d60
=== CODE BLOCK END ===

=== CODE BLOCK ADDRESS 0x1d60 ===
  0x1d60	inc    	ecx
  0x1d62	inc    	ecx
  0x1d63	mov    	eax, 3
  0x1d68	dec    	eax
  0x1d69	call   	dword ptr [0x25e9]
  === BLOCK LINK ===
    0x1d6f
=== CODE BLOCK END ===

=== CODE BLOCK ADDRESS 0x1d6f ===
  0x1d6f	nop    	dword ptr [eax + eax]
  0x1d74	test   	eax, eax
  0x1d76	je     	0x2267
  === BLOCK LINK ===
    0x1d7c
=== CODE BLOCK END ===

=== CODE BLOCK ADDRESS 0x1d7c ===
  0x1d7c	dec    	eax
  0x1d7d	mov    	ecx, dword ptr [esi]
  0x1d7f	dec    	eax
  0x1d80	lea    	edx, [0x290e]
  0x1d86	dec    	eax
  === BLOCK LINK ===
    0x1d87
=== CODE BLOCK END ===

=== CODE BLOCK ADDRESS 0x1d87 ===
  0x1d87	inc    	ecx
  0x1d89	inc    	ecx
  0x1d8a	mov    	eax, 5
  0x1d8f	dec    	eax
  0x1d90	call   	dword ptr [0x25c2]
  === BLOCK LINK ===
    0x1d96
=== CODE BLOCK END ===

=== CODE BLOCK ADDRESS 0x1d96 ===
  0x1d96	nop    	dword ptr [eax + eax]
  0x1d9b	test   	eax, eax
  0x1d9d	je     	0x2263
  === BLOCK LINK ===
    0x1da3
=== CODE BLOCK END ===

=== CODE BLOCK ADDRESS 0x1da3 ===
  0x1da3	dec    	eax
  0x1da4	mov    	ecx, dword ptr [esi]
  0x1da6	dec    	eax
  0x1da7	lea    	edx, [0x28f3]
  0x1dad	dec    	eax
  === BLOCK LINK ===
    0x1dae
=== CODE BLOCK END ===

=== CODE BLOCK ADDRESS 0x1dae ===
  0x1dae	inc    	ecx
  0x1db0	inc    	ecx
  0x1db1	mov    	eax, 0xc
  0x1db6	dec    	eax
  0x1db7	call   	dword ptr [0x259b]
  === BLOCK LINK ===
    0x1dbd
=== CODE BLOCK END ===

=== CODE BLOCK ADDRESS 0x1dbd ===
  0x1dbd	nop    	dword ptr [eax + eax]
  0x1dc2	dec    	eax
  0x1dc3	mov    	ecx, dword ptr [esi]
  0x1dc5	test   	eax, eax
  0x1dc7	jne    	0x1df8
  === BLOCK LINK ===
    0x1dc9
=== CODE BLOCK END ===

=== CODE BLOCK ADDRESS 0x1dc9 ===
  0x1dc9	dec    	eax
  0x1dca	add    	ecx, 0xd
  0x1dcd	je     	0x1ddf
  === BLOCK LINK ===
    0x1dcf
=== CODE BLOCK END ===

=== CODE BLOCK ADDRESS 0x1dcf ===
  0x1dcf	dec    	eax
  0x1dd0	lea    	edx, [esp + 0x34]
  0x1dd4	call   	0x1674
  === BLOCK LINK ===
    0x1dd9
=== CODE BLOCK END ===

=== CODE BLOCK ADDRESS 0x1dd9 ===
  0x1dd9	mov    	edi, dword ptr [esp + 0x34]
  0x1ddd	jmp    	0x1de1
  === BLOCK LINK ===
    0x1ddf
=== CODE BLOCK END ===

=== CODE BLOCK ADDRESS 0x1ddf ===
  0x1ddf	xor    	eax, eax
  0x1de1	test   	eax, eax
  0x1de3	je     	0x2249
  === BLOCK LINK ===
    0x1de9
=== CODE BLOCK END ===

=== CODE BLOCK ADDRESS 0x1de9 ===
  0x1de9	imul   	edi, edi, 0x3e8
  0x1def	mov    	dword ptr [esp + 0x34], edi
  0x1df3	jmp    	0x2164
  === BLOCK LINK ===
    0x1df8
=== CODE BLOCK END ===

=== CODE BLOCK ADDRESS 0x1df8 ===
  0x1df8	dec    	eax
  0x1df9	inc    	ecx
  0x1dfb	dec    	eax
  0x1dfc	lea    	edx, [0x28ae]
  0x1e02	inc    	ecx
  === BLOCK LINK ===
    0x1e03
=== CODE BLOCK END ===

=== CODE BLOCK ADDRESS 0x1e03 ===
  0x1e03	mov    	eax, 8
  0x1e08	dec    	eax
  0x1e09	call   	dword ptr [0x2549]
  === BLOCK LINK ===
    0x1e0f
=== CODE BLOCK END ===

=== CODE BLOCK ADDRESS 0x1e0f ===
  0x1e0f	nop    	dword ptr [eax + eax]
  0x1e14	dec    	eax
  0x1e15	mov    	ecx, dword ptr [esi]
  0x1e17	test   	eax, eax
  0x1e19	jne    	0x1e51
  === BLOCK LINK ===
    0x1e1b
=== CODE BLOCK END ===

=== CODE BLOCK ADDRESS 0x1e1b ===
  0x1e1b	dec    	eax
  0x1e1c	add    	ecx, 9
  0x1e1f	je     	0x1e31
  === BLOCK LINK ===
    0x1e21
=== CODE BLOCK END ===

=== CODE BLOCK ADDRESS 0x1e21 ===
  0x1e21	dec    	eax
  0x1e22	lea    	edx, [esp + 0x34]
  0x1e26	call   	0x1674
  === BLOCK LINK ===
    0x1e2b
=== CODE BLOCK END ===

=== CODE BLOCK ADDRESS 0x1e2b ===
  0x1e2b	mov    	edi, dword ptr [esp + 0x34]
  0x1e2f	jmp    	0x1e33
  === BLOCK LINK ===
    0x1e31
=== CODE BLOCK END ===

=== CODE BLOCK ADDRESS 0x1e31 ===
  0x1e31	xor    	eax, eax
  0x1e33	test   	eax, eax
  0x1e35	je     	0x2249
  === BLOCK LINK ===
    0x1e3b
=== CODE BLOCK END ===

=== CODE BLOCK ADDRESS 0x1e3b ===
  0x1e3b	imul   	edi, edi, 0x3e8
  0x1e41	mov    	dword ptr [esp + 0x34], edi
  0x1e45	inc    	esp
  0x1e46	mov    	ebp, edi
  0x1e48	mov    	dword ptr [esp + 0x40], edi
  === BLOCK LINK ===
    0x1e4c
=== CODE BLOCK END ===

=== CODE BLOCK ADDRESS 0x1e4c ===
  0x1e4c	jmp    	0x2164
  === BLOCK LINK ===
    0x1e51
=== CODE BLOCK END ===

=== CODE BLOCK ADDRESS 0x1e51 ===
  0x1e51	dec    	eax
  0x1e52	inc    	ecx
  0x1e54	dec    	eax
  0x1e55	lea    	edx, [0x2865]
  0x1e5b	inc    	ecx
  === BLOCK LINK ===
    0x1e5c
=== CODE BLOCK END ===

=== CODE BLOCK ADDRESS 0x1e5c ===
  0x1e5c	mov    	eax, 0xd
  0x1e61	dec    	eax
  0x1e62	call   	dword ptr [0x24f0]
  === BLOCK LINK ===
    0x1e68
=== CODE BLOCK END ===

=== CODE BLOCK ADDRESS 0x1e68 ===
  0x1e68	nop    	dword ptr [eax + eax]
  0x1e6d	dec    	eax
  0x1e6e	mov    	ecx, dword ptr [esi]
  0x1e70	test   	eax, eax
  0x1e72	jne    	0x1ea1
  === BLOCK LINK ===
    0x1e74
=== CODE BLOCK END ===

=== CODE BLOCK ADDRESS 0x1e74 ===
  0x1e74	dec    	eax
  0x1e75	add    	ecx, 0xe
  0x1e78	je     	0x1e86
  === BLOCK LINK ===
    0x1e7a
=== CODE BLOCK END ===

=== CODE BLOCK ADDRESS 0x1e7a ===
  0x1e7a	dec    	eax
  0x1e7b	lea    	edx, [esp + 0x44]
  0x1e7f	call   	0x1674
  === BLOCK LINK ===
    0x1e84
=== CODE BLOCK END ===

=== CODE BLOCK ADDRESS 0x1e84 ===
  0x1e84	jmp    	0x1e88
  === BLOCK LINK ===
    0x1e86
=== CODE BLOCK END ===

=== CODE BLOCK ADDRESS 0x1e86 ===
  0x1e86	xor    	eax, eax
  0x1e88	test   	eax, eax
  0x1e8a	je     	0x2249
  === BLOCK LINK ===
    0x1e90
=== CODE BLOCK END ===

=== CODE BLOCK ADDRESS 0x1e90 ===
  0x1e90	imul   	eax, dword ptr [esp + 0x44], 0x3e8
  0x1e98	mov    	dword ptr [esp + 0x44], eax
  0x1e9c	jmp    	0x2164
  === BLOCK LINK ===
    0x1ea1
=== CODE BLOCK END ===

=== CODE BLOCK ADDRESS 0x1ea1 ===
  0x1ea1	dec    	eax
  0x1ea2	inc    	ecx
  0x1ea4	dec    	eax
  0x1ea5	lea    	edx, [0x2825]
  0x1eab	inc    	ecx
  === BLOCK LINK ===
    0x1eac
=== CODE BLOCK END ===

=== CODE BLOCK ADDRESS 0x1eac ===
  0x1eac	mov    	eax, 0xf
  0x1eb1	dec    	eax
  0x1eb2	call   	dword ptr [0x24a0]
  === BLOCK LINK ===
    0x1eb8
=== CODE BLOCK END ===

=== CODE BLOCK ADDRESS 0x1eb8 ===
  0x1eb8	nop    	dword ptr [eax + eax]
  0x1ebd	dec    	eax
  0x1ebe	mov    	ecx, dword ptr [esi]
  0x1ec0	test   	eax, eax
  0x1ec2	jne    	0x1ef6
  === BLOCK LINK ===
    0x1ec4
=== CODE BLOCK END ===

=== CODE BLOCK ADDRESS 0x1ec4 ===
  0x1ec4	dec    	eax
  0x1ec5	add    	ecx, 0x10
  0x1ec8	je     	0x1edb
  === BLOCK LINK ===
    0x1eca
=== CODE BLOCK END ===

=== CODE BLOCK ADDRESS 0x1eca ===
  0x1eca	dec    	eax
  0x1ecb	lea    	edx, [esp + 0x40]
  0x1ecf	call   	0x1674
  === BLOCK LINK ===
    0x1ed4
=== CODE BLOCK END ===

=== CODE BLOCK ADDRESS 0x1ed4 ===
  0x1ed4	inc    	esp
  0x1ed5	mov    	ebp, dword ptr [esp + 0x40]
  0x1ed9	jmp    	0x1edd
  === BLOCK LINK ===
    0x1edb
=== CODE BLOCK END ===

=== CODE BLOCK ADDRESS 0x1edb ===
  0x1edb	xor    	eax, eax
  0x1edd	test   	eax, eax
  0x1edf	je     	0x2249
  === BLOCK LINK ===
    0x1ee5
=== CODE BLOCK END ===

=== CODE BLOCK ADDRESS 0x1ee5 ===
  0x1ee5	inc    	ebp
  0x1ee6	imul   	ebp, ebp, 0x3e8
  0x1eec	inc    	esp
  0x1eed	mov    	dword ptr [esp + 0x40], ebp
  0x1ef1	jmp    	0x2164
  === BLOCK LINK ===
    0x1ef6
=== CODE BLOCK END ===

=== CODE BLOCK ADDRESS 0x1ef6 ===
  0x1ef6	dec    	eax
  0x1ef7	inc    	ecx
  0x1ef9	dec    	eax
  0x1efa	lea    	edx, [0x27e0]
  0x1f00	inc    	ecx
  === BLOCK LINK ===
    0x1f01
=== CODE BLOCK END ===

=== CODE BLOCK ADDRESS 0x1f01 ===
  0x1f01	mov    	eax, 5
  0x1f06	dec    	eax
  0x1f07	call   	dword ptr [0x244b]
  === BLOCK LINK ===
    0x1f0d
=== CODE BLOCK END ===

=== CODE BLOCK ADDRESS 0x1f0d ===
  0x1f0d	nop    	dword ptr [eax + eax]
  0x1f12	dec    	esp
  0x1f13	mov    	eax, dword ptr [esi]
  0x1f15	test   	eax, eax
  0x1f17	jne    	0x1f3a
  === BLOCK LINK ===
    0x1f19
=== CODE BLOCK END ===

=== CODE BLOCK ADDRESS 0x1f19 ===
  0x1f19	dec    	ecx
  0x1f1a	lea    	ecx, [eax + 6]
  0x1f1d	dec    	eax
  0x1f1e	call   	dword ptr [0x241c]
  === BLOCK LINK ===
    0x1f24
=== CODE BLOCK END ===

=== CODE BLOCK ADDRESS 0x1f24 ===
  0x1f24	nop    	dword ptr [eax + eax]
  0x1f29	cmp    	eax, 0x32
  0x1f2c	jbe    	0x2164
  === BLOCK LINK ===
    0x1f32
=== CODE BLOCK END ===

=== CODE BLOCK ADDRESS 0x1f32 ===
  0x1f32	inc    	ebp
  0x1f33	xor    	esi, esi
  0x1f35	jmp    	0x282a
  === BLOCK LINK ===
    0x1f3a
=== CODE BLOCK END ===

=== CODE BLOCK ADDRESS 0x1f3a ===
  0x1f3a	or     	ecx, 0xffffffff
  0x1f3d	dec    	eax
  0x1f3e	lea    	eax, [0x27a4]
  0x1f44	mov    	dword ptr [esp + 0x28], ecx
  0x1f48	inc    	esp
  === BLOCK LINK ===
    0x1f49
=== CODE BLOCK END ===

=== CODE BLOCK ADDRESS 0x1f49 ===
  0x1f49	mov    	ecx, ecx
  0x1f4b	dec    	ecx
  0x1f4c	inc    	eax
  0x1f4e	dec    	eax
  0x1f4f	mov    	dword ptr [esp + 0x20], eax
  === BLOCK LINK ===
    0x1f53
=== CODE BLOCK END ===

=== CODE BLOCK ADDRESS 0x1f53 ===
  0x1f53	lea    	edx, [ecx + 2]
  0x1f56	lea    	ecx, [edx + 0x7e]
  0x1f59	dec    	eax
  0x1f5a	call   	dword ptr [0x2280]
  === BLOCK LINK ===
    0x1f60
=== CODE BLOCK END ===

=== CODE BLOCK ADDRESS 0x1f60 ===
  0x1f60	nop    	dword ptr [eax + eax]
  0x1f65	mov    	edx, 2
  0x1f6a	cmp    	eax, edx
  0x1f6c	jne    	0x1f8d
  === BLOCK LINK ===
    0x1f6e
=== CODE BLOCK END ===

=== CODE BLOCK ADDRESS 0x1f6e ===
  0x1f6e	inc    	esp
  0x1f6f	cmp    	dword ptr [esp + 0x4c], esp
  0x1f73	jne    	0x2164
  === BLOCK LINK ===
    0x1f79
=== CODE BLOCK END ===

=== CODE BLOCK ADDRESS 0x1f79 ===
  0x1f79	inc    	esp
  0x1f7a	cmp    	edi, edx
  0x1f7c	lea    	eax, [edx - 1]
  0x1f7f	lea    	ecx, [edx + 2]
  0x1f82	cmove  	eax, ecx
  === BLOCK LINK ===
    0x1f85
=== CODE BLOCK END ===

=== CODE BLOCK ADDRESS 0x1f85 ===
  0x1f85	inc    	esp
  0x1f86	mov    	edi, eax
  0x1f88	jmp    	0x2164
  === BLOCK LINK ===
    0x1f8d
=== CODE BLOCK END ===

=== CODE BLOCK ADDRESS 0x1f8d ===
  0x1f8d	dec    	esp
  0x1f8e	mov    	eax, dword ptr [esi]
  0x1f90	dec    	eax
  0x1f91	lea    	eax, [0x2759]
  0x1f97	or     	ecx, 0xffffffff
  === BLOCK LINK ===
    0x1f9a
=== CODE BLOCK END ===

=== CODE BLOCK ADDRESS 0x1f9a ===
  0x1f9a	dec    	ecx
  0x1f9b	inc    	eax
  0x1f9d	mov    	dword ptr [esp + 0x28], ecx
  0x1fa1	inc    	esp
  0x1fa2	mov    	ecx, ecx
  === BLOCK LINK ===
    0x1fa4
=== CODE BLOCK END ===

=== CODE BLOCK ADDRESS 0x1fa4 ===
  0x1fa4	dec    	eax
  0x1fa5	mov    	dword ptr [esp + 0x20], eax
  0x1fa9	lea    	edx, [ecx + 2]
  0x1fac	lea    	ecx, [edx + 0x7e]
  0x1faf	dec    	eax
  === BLOCK LINK ===
    0x1fb0
=== CODE BLOCK END ===

=== CODE BLOCK ADDRESS 0x1fb0 ===
  0x1fb0	call   	dword ptr [0x222a]
  === BLOCK LINK ===
    0x1fb6
=== CODE BLOCK END ===

=== CODE BLOCK ADDRESS 0x1fb6 ===
  0x1fb6	nop    	dword ptr [eax + eax]
  0x1fbb	mov    	edx, 2
  0x1fc0	cmp    	eax, edx
  0x1fc2	jne    	0x1fd0
  === BLOCK LINK ===
    0x1fc4
=== CODE BLOCK END ===

=== CODE BLOCK ADDRESS 0x1fc4 ===
  0x1fc4	inc    	ecx
  0x1fc5	cmp    	edi, 1
  0x1fc8	lea    	eax, [edx + 2]
  0x1fcb	cmovne  	eax, edx
  0x1fce	jmp    	0x1f85
  === BLOCK LINK ===
    0x1fd0
=== CODE BLOCK END ===

=== CODE BLOCK ADDRESS 0x1fd0 ===
  0x1fd0	dec    	esp
  0x1fd1	mov    	eax, dword ptr [esi]
  0x1fd3	dec    	eax
  0x1fd4	lea    	eax, [0x271e]
  0x1fda	or     	ecx, 0xffffffff
  === BLOCK LINK ===
    0x1fdd
=== CODE BLOCK END ===

=== CODE BLOCK ADDRESS 0x1fdd ===
  0x1fdd	dec    	ecx
  0x1fde	inc    	eax
  0x1fe0	mov    	dword ptr [esp + 0x28], ecx
  0x1fe4	inc    	esp
  0x1fe5	mov    	ecx, ecx
  === BLOCK LINK ===
    0x1fe7
=== CODE BLOCK END ===

=== CODE BLOCK ADDRESS 0x1fe7 ===
  0x1fe7	dec    	eax
  0x1fe8	mov    	dword ptr [esp + 0x20], eax
  0x1fec	lea    	edx, [ecx + 2]
  0x1fef	lea    	ecx, [edx + 0x7e]
  0x1ff2	dec    	eax
  === BLOCK LINK ===
    0x1ff3
=== CODE BLOCK END ===

=== CODE BLOCK ADDRESS 0x1ff3 ===
  0x1ff3	call   	dword ptr [0x21e7]
  === BLOCK LINK ===
    0x1ff9
=== CODE BLOCK END ===

=== CODE BLOCK ADDRESS 0x1ff9 ===
  0x1ff9	nop    	dword ptr [eax + eax]
  0x1ffe	mov    	ecx, 2
  0x2003	cmp    	eax, ecx
  0x2005	jne    	0x2018
  === BLOCK LINK ===
    0x2007
=== CODE BLOCK END ===

=== CODE BLOCK ADDRESS 0x2007 ===
  0x2007	inc    	esp
  0x2008	lea    	edi, [ecx + 1]
  0x200b	mov    	dword ptr [esp + 0x4c], 1
  0x2013	jmp    	0x2164
  === BLOCK LINK ===
    0x2018
=== CODE BLOCK END ===

=== CODE BLOCK ADDRESS 0x2018 ===
  0x2018	dec    	esp
  0x2019	mov    	eax, dword ptr [esi]
  0x201b	dec    	eax
  0x201c	lea    	eax, [0x26de]
  0x2022	or     	ecx, 0xffffffff
  === BLOCK LINK ===
    0x2025
=== CODE BLOCK END ===

=== CODE BLOCK ADDRESS 0x2025 ===
  0x2025	dec    	ecx
  0x2026	inc    	eax
  0x2028	mov    	dword ptr [esp + 0x28], ecx
  0x202c	inc    	esp
  0x202d	mov    	ecx, ecx
  === BLOCK LINK ===
    0x202f
=== CODE BLOCK END ===

=== CODE BLOCK ADDRESS 0x202f ===
  0x202f	dec    	eax
  0x2030	mov    	dword ptr [esp + 0x20], eax
  0x2034	lea    	edx, [ecx + 2]
  0x2037	lea    	ecx, [edx + 0x7e]
  0x203a	dec    	eax
  === BLOCK LINK ===
    0x203b
=== CODE BLOCK END ===

=== CODE BLOCK ADDRESS 0x203b ===
  0x203b	call   	dword ptr [0x219f]
  === BLOCK LINK ===
    0x2041
=== CODE BLOCK END ===

=== CODE BLOCK ADDRESS 0x2041 ===
  0x2041	nop    	dword ptr [eax + eax]
  0x2046	mov    	ecx, 2
  0x204b	cmp    	eax, ecx
  0x204d	jne    	0x2055
  === BLOCK LINK ===
    0x204f
=== CODE BLOCK END ===

=== CODE BLOCK ADDRESS 0x204f ===
  0x204f	inc    	esp
  0x2050	lea    	edi, [ecx + 3]
  0x2053	jmp    	0x200b
  === BLOCK LINK ===
    0x2055
=== CODE BLOCK END ===

=== CODE BLOCK ADDRESS 0x2055 ===
  0x2055	dec    	esp
  0x2056	mov    	eax, dword ptr [esi]
  0x2058	dec    	eax
  0x2059	lea    	eax, [0x26a9]
  0x205f	or     	ecx, 0xffffffff
  === BLOCK LINK ===
    0x2062
=== CODE BLOCK END ===

=== CODE BLOCK ADDRESS 0x2062 ===
  0x2062	dec    	ecx
  0x2063	inc    	eax
  0x2065	mov    	dword ptr [esp + 0x28], ecx
  0x2069	inc    	esp
  0x206a	mov    	ecx, ecx
  === BLOCK LINK ===
    0x206c
=== CODE BLOCK END ===

=== CODE BLOCK ADDRESS 0x206c ===
  0x206c	dec    	eax
  0x206d	mov    	dword ptr [esp + 0x20], eax
  0x2071	lea    	edx, [ecx + 2]
  0x2074	lea    	ecx, [edx + 0x7e]
  0x2077	dec    	eax
  === BLOCK LINK ===
    0x2078
=== CODE BLOCK END ===

=== CODE BLOCK ADDRESS 0x2078 ===
  0x2078	call   	dword ptr [0x2162]
  === BLOCK LINK ===
    0x207e
=== CODE BLOCK END ===

=== CODE BLOCK ADDRESS 0x207e ===
  0x207e	nop    	dword ptr [eax + eax]
  0x2083	mov    	ecx, 2
  0x2088	cmp    	eax, ecx
  0x208a	jne    	0x2095
  === BLOCK LINK ===
    0x208c
=== CODE BLOCK END ===

=== CODE BLOCK ADDRESS 0x208c ===
  0x208c	inc    	esp
  0x208d	lea    	edi, [ecx + 2]
  0x2090	jmp    	0x200b
  === BLOCK LINK ===
    0x2095
=== CODE BLOCK END ===

=== CODE BLOCK ADDRESS 0x2095 ===
  0x2095	dec    	esp
  0x2096	mov    	eax, dword ptr [esi]
  0x2098	dec    	eax
  0x2099	lea    	eax, [0x2671]
  0x209f	or     	ecx, 0xffffffff
  === BLOCK LINK ===
    0x20a2
=== CODE BLOCK END ===

=== CODE BLOCK ADDRESS 0x20a2 ===
  0x20a2	dec    	ecx
  0x20a3	inc    	eax
  0x20a5	mov    	dword ptr [esp + 0x28], ecx
  0x20a9	inc    	esp
  0x20aa	mov    	ecx, ecx
  === BLOCK LINK ===
    0x20ac
=== CODE BLOCK END ===

=== CODE BLOCK ADDRESS 0x20ac ===
  0x20ac	dec    	eax
  0x20ad	mov    	dword ptr [esp + 0x20], eax
  0x20b1	lea    	edx, [ecx + 2]
  0x20b4	lea    	ecx, [edx + 0x7e]
  0x20b7	dec    	eax
  === BLOCK LINK ===
    0x20b8
=== CODE BLOCK END ===

=== CODE BLOCK ADDRESS 0x20b8 ===
  0x20b8	call   	dword ptr [0x2122]
  === BLOCK LINK ===
    0x20be
=== CODE BLOCK END ===

=== CODE BLOCK ADDRESS 0x20be ===
  0x20be	nop    	dword ptr [eax + eax]
  0x20c3	mov    	ecx, 2
  0x20c8	cmp    	eax, ecx
  0x20ca	jne    	0x20d9
  === BLOCK LINK ===
    0x20cc
=== CODE BLOCK END ===

=== CODE BLOCK ADDRESS 0x20cc ===
  0x20cc	mov    	dword ptr [esp + 0x50], 1
  0x20d4	jmp    	0x2164
  === BLOCK LINK ===
    0x20d9
=== CODE BLOCK END ===

=== CODE BLOCK ADDRESS 0x20d9 ===
  0x20d9	dec    	esp
  0x20da	mov    	eax, dword ptr [esi]
  0x20dc	dec    	eax
  0x20dd	lea    	eax, [0x2635]
  0x20e3	or     	ecx, 0xffffffff
  === BLOCK LINK ===
    0x20e6
=== CODE BLOCK END ===

=== CODE BLOCK ADDRESS 0x20e6 ===
  0x20e6	dec    	ecx
  0x20e7	inc    	eax
  0x20e9	mov    	dword ptr [esp + 0x28], ecx
  0x20ed	inc    	esp
  0x20ee	mov    	ecx, ecx
  === BLOCK LINK ===
    0x20f0
=== CODE BLOCK END ===

=== CODE BLOCK ADDRESS 0x20f0 ===
  0x20f0	dec    	eax
  0x20f1	mov    	dword ptr [esp + 0x20], eax
  0x20f5	lea    	edx, [ecx + 2]
  0x20f8	lea    	ecx, [edx + 0x7e]
  0x20fb	dec    	eax
  === BLOCK LINK ===
    0x20fc
=== CODE BLOCK END ===

=== CODE BLOCK ADDRESS 0x20fc ===
  0x20fc	call   	dword ptr [0x20de]
  === BLOCK LINK ===
    0x2102
=== CODE BLOCK END ===

=== CODE BLOCK ADDRESS 0x2102 ===
  0x2102	nop    	dword ptr [eax + eax]
  0x2107	mov    	ecx, 2
  0x210c	cmp    	eax, ecx
  0x210e	jne    	0x211f
  === BLOCK LINK ===
    0x2110
=== CODE BLOCK END ===

=== CODE BLOCK ADDRESS 0x2110 ===
  0x2110	inc    	esp
  0x2111	and    	dword ptr [esp + 0x54], esp
  0x2115	mov    	dword ptr [esp + 0x60], 1
  0x211d	jmp    	0x2164
  === BLOCK LINK ===
    0x211f
=== CODE BLOCK END ===

=== CODE BLOCK ADDRESS 0x211f ===
  0x211f	dec    	esp
  0x2120	mov    	eax, dword ptr [esi]
  0x2122	dec    	eax
  0x2123	lea    	eax, [0x25ff]
  0x2129	or     	ecx, 0xffffffff
  === BLOCK LINK ===
    0x212c
=== CODE BLOCK END ===

=== CODE BLOCK ADDRESS 0x212c ===
  0x212c	dec    	ecx
  0x212d	inc    	eax
  0x212f	mov    	dword ptr [esp + 0x28], ecx
  0x2133	inc    	esp
  0x2134	mov    	ecx, ecx
  === BLOCK LINK ===
    0x2136
=== CODE BLOCK END ===

=== CODE BLOCK ADDRESS 0x2136 ===
  0x2136	dec    	eax
  0x2137	mov    	dword ptr [esp + 0x20], eax
  0x213b	lea    	edx, [ecx + 2]
  0x213e	lea    	ecx, [edx + 0x7e]
  0x2141	dec    	eax
  === BLOCK LINK ===
    0x2142
=== CODE BLOCK END ===

=== CODE BLOCK ADDRESS 0x2142 ===
  0x2142	call   	dword ptr [0x2098]
  === BLOCK LINK ===
    0x2148
=== CODE BLOCK END ===

=== CODE BLOCK ADDRESS 0x2148 ===
  0x2148	nop    	dword ptr [eax + eax]
  0x214d	mov    	ecx, 2
  0x2152	cmp    	eax, ecx
  0x2154	jne    	0x21f3
  === BLOCK LINK ===
    0x215a
=== CODE BLOCK END ===

=== CODE BLOCK ADDRESS 0x215a ===
  0x215a	inc    	esp
  0x215b	and    	dword ptr [esp + 0x54], esp
  0x215f	inc    	esp
  0x2160	and    	dword ptr [esp + 0x5c], esp
  0x2164	mov    	ecx, dword ptr [esp + 0x30]
  === BLOCK LINK ===
    0x2168
=== CODE BLOCK END ===

=== CODE BLOCK ADDRESS 0x2168 ===
  0x2168	mov    	eax, dword ptr [esp + 0x58]
  0x216c	dec    	eax
  0x216d	add    	esi, 8
  0x2170	inc    	eax
  0x2172	mov    	dword ptr [esp + 0x58], eax
  === BLOCK LINK ===
    0x2176
=== CODE BLOCK END ===

=== CODE BLOCK ADDRESS 0x2176 ===
  0x2176	cmp    	eax, ecx
  0x2178	jl     	0x1c4b
  === BLOCK LINK ===
    0x217e
=== CODE BLOCK END ===

=== CODE BLOCK ADDRESS 0x217e ===
  0x217e	dec    	eax
  0x217f	mov    	esi, dword ptr [esp + 0x68]
  0x2183	mov    	edi, dword ptr [esp + 0x50]
  0x2187	inc    	ebp
  0x2188	test   	edi, edi
  === BLOCK LINK ===
    0x218a
=== CODE BLOCK END ===

=== CODE BLOCK ADDRESS 0x218a ===
  0x218a	jne    	0x2199
  === BLOCK LINK ===
    0x218c
=== CODE BLOCK END ===

=== CODE BLOCK ADDRESS 0x218c ===
  0x218c	test   	ebx, ebx
  0x218e	jne    	0x2199
  === BLOCK LINK ===
    0x2190
=== CODE BLOCK END ===

=== CODE BLOCK ADDRESS 0x2190 ===
  0x2190	test   	edi, edi
  0x2192	lea    	eax, [ebx + 4]
  0x2195	inc    	esp
  0x2196	cmove  	edi, eax
  0x2199	xorps  	xmm0, xmm0
  === BLOCK LINK ===
    0x219c
=== CODE BLOCK END ===

=== CODE BLOCK ADDRESS 0x219c ===
  0x219c	movups  	xmmword ptr [ebp - 0x70], xmm0
  0x21a0	movups  	xmmword ptr [ebp - 0x60], xmm0
  0x21a4	dec    	eax
  0x21a5	test   	esi, esi
  0x21a7	je     	0x22b5
  === BLOCK LINK ===
    0x21ad
=== CODE BLOCK END ===

=== CODE BLOCK ADDRESS 0x21ad ===
  0x21ad	inc    	ecx
  0x21ae	or     	ecx, 0xffffffff
  0x21b1	mov    	dword ptr [esp + 0x28], 0x40
  0x21b9	dec    	eax
  0x21ba	lea    	eax, [ebp + 0x10]
  === BLOCK LINK ===
    0x21bd
=== CODE BLOCK END ===

=== CODE BLOCK ADDRESS 0x21bd ===
  0x21bd	dec    	esp
  0x21be	mov    	eax, esi
  0x21c0	xor    	ecx, ecx
  0x21c2	dec    	eax
  0x21c3	mov    	dword ptr [esp + 0x20], eax
  === BLOCK LINK ===
    0x21c7
=== CODE BLOCK END ===

=== CODE BLOCK ADDRESS 0x21c7 ===
  0x21c7	inc    	ecx
  0x21c8	lea    	edx, [ecx + 2]
  0x21cb	dec    	eax
  0x21cc	call   	dword ptr [0x209e]
  === BLOCK LINK ===
    0x21d2
=== CODE BLOCK END ===

=== CODE BLOCK ADDRESS 0x21d2 ===
  0x21d2	nop    	dword ptr [eax + eax]
  0x21d7	test   	eax, eax
  0x21d9	jne    	0x22ad
  === BLOCK LINK ===
    0x21df
=== CODE BLOCK END ===

=== CODE BLOCK ADDRESS 0x21df ===
  0x21df	dec    	eax
  0x21e0	call   	dword ptr [0x1f72]
  === BLOCK LINK ===
    0x21e6
=== CODE BLOCK END ===

=== CODE BLOCK ADDRESS 0x21e6 ===
  0x21e6	nop    	dword ptr [eax + eax]
  0x21eb	inc    	esp
  0x21ec	mov    	esi, eax
  0x21ee	jmp    	0x282a
  === BLOCK LINK ===
    0x21f3
=== CODE BLOCK END ===

=== CODE BLOCK ADDRESS 0x21f3 ===
  0x21f3	dec    	eax
  0x21f4	arpl   	word ptr [esp + 0x58], ax
  0x21f8	or     	ecx, 0xffffffff
  0x21fb	dec    	esp
  0x21fc	mov    	eax, dword ptr [esp + 0x70]
  === BLOCK LINK ===
    0x2200
=== CODE BLOCK END ===

=== CODE BLOCK ADDRESS 0x2200 ===
  0x2200	inc    	esp
  0x2201	mov    	ecx, ecx
  0x2203	mov    	dword ptr [esp + 0x28], ecx
  0x2207	lea    	edx, [ecx + 2]
  0x220a	dec    	ebp
  === BLOCK LINK ===
    0x220b
=== CODE BLOCK END ===

=== CODE BLOCK ADDRESS 0x220b ===
  0x220b	mov    	eax, dword ptr [eax + eax*8]
  0x220e	lea    	ecx, [edx + 0x7e]
  0x2211	dec    	eax
  0x2212	lea    	eax, [0x2518]
  0x2218	dec    	ecx
  === BLOCK LINK ===
    0x2219
=== CODE BLOCK END ===

=== CODE BLOCK ADDRESS 0x2219 ===
  0x2219	inc    	eax
  0x221b	dec    	eax
  0x221c	mov    	dword ptr [esp + 0x20], eax
  0x2220	dec    	eax
  0x2221	call   	dword ptr [0x1fb9]
  === BLOCK LINK ===
    0x2227
=== CODE BLOCK END ===

=== CODE BLOCK ADDRESS 0x2227 ===
  0x2227	nop    	dword ptr [eax + eax]
  0x222c	mov    	ecx, 2
  0x2231	cmp    	eax, ecx
  0x2233	jne    	0x2249
  === BLOCK LINK ===
    0x2235
=== CODE BLOCK END ===

=== CODE BLOCK ADDRESS 0x2235 ===
  0x2235	inc    	ebp
  0x2236	xor    	eax, eax
  0x2238	xor    	edx, edx
  0x223a	mov    	ecx, 0xc1d
  0x223f	call   	0x128c
  === BLOCK LINK ===
    0x2244
=== CODE BLOCK END ===

=== CODE BLOCK ADDRESS 0x2244 ===
  0x2244	jmp    	0x1f32
  === BLOCK LINK ===
    0x2249
=== CODE BLOCK END ===

=== CODE BLOCK ADDRESS 0x2249 ===
  0x2249	inc    	ebp
  0x224a	xor    	eax, eax
  0x224c	xor    	edx, edx
  0x224e	mov    	ecx, 0xc1d
  0x2253	call   	0x128c
  === BLOCK LINK ===
    0x2258
=== CODE BLOCK END ===

=== CODE BLOCK ADDRESS 0x2258 ===
  0x2258	inc    	ecx
  0x2259	mov    	esi, 0x57
  0x225e	jmp    	0x282a
  === BLOCK LINK ===
    0x2263
=== CODE BLOCK END ===

=== CODE BLOCK ADDRESS 0x2263 ===
  0x2263	xor    	ecx, ecx
  0x2265	jmp    	0x226c
  === BLOCK LINK ===
    0x2267
=== CODE BLOCK END ===

=== CODE BLOCK ADDRESS 0x2267 ===
  0x2267	mov    	ecx, 1
  0x226c	call   	0x177c
  === BLOCK LINK ===
    0x2271
=== CODE BLOCK END ===

=== CODE BLOCK ADDRESS 0x2271 ===
  0x2271	mov    	esi, eax
  0x2273	test   	eax, eax
  0x2275	jns    	0x282a
  === BLOCK LINK ===
    0x227b
=== CODE BLOCK END ===

=== CODE BLOCK ADDRESS 0x227b ===
  0x227b	mov    	edi, eax
  0x227d	movzx  	ebx, si
  0x2280	sar    	edi, 0x10
  0x2283	mov    	ecx, esi
  0x2285	mov    	eax, edi
  === BLOCK LINK ===
    0x2287
=== CODE BLOCK END ===

=== CODE BLOCK ADDRESS 0x2287 ===
  0x2287	inc    	ecx
  0x2288	mov    	esi, 0x1fff
  0x228d	inc    	ecx
  0x228e	and    	eax, esi
  0x2290	cmp    	eax, 7
  === BLOCK LINK ===
    0x2293
=== CODE BLOCK END ===

=== CODE BLOCK ADDRESS 0x2293 ===
  0x2293	cmove  	ecx, ebx
  0x2296	call   	0x1204
  === BLOCK LINK ===
    0x229b
=== CODE BLOCK END ===

=== CODE BLOCK ADDRESS 0x229b ===
  0x229b	inc    	ecx
  0x229c	and    	edi, esi
  0x229e	inc    	esp
  0x229f	mov    	esi, esi
  0x22a1	cmp    	edi, 7
  === BLOCK LINK ===
    0x22a4
=== CODE BLOCK END ===

=== CODE BLOCK ADDRESS 0x22a4 ===
  0x22a4	inc    	esp
  0x22a5	cmove  	esi, ebx
  0x22a8	jmp    	0x282a
  === BLOCK LINK ===
    0x22ad
=== CODE BLOCK END ===

=== CODE BLOCK ADDRESS 0x22ad ===
  0x22ad	dec    	eax
  0x22ae	lea    	eax, [ebp + 0x10]
  0x22b1	dec    	eax
  0x22b2	mov    	dword ptr [ebp - 0x68], eax
  0x22b5	xor    	esi, esi
  === BLOCK LINK ===
    0x22b7
=== CODE BLOCK END ===

=== CODE BLOCK ADDRESS 0x22b7 ===
  0x22b7	test   	ebx, ebx
  0x22b9	cmove  	esi, edi
  0x22bc	inc    	ebp
  0x22bd	xor    	ebp, ebp
  0x22bf	test   	ebx, ebx
  === BLOCK LINK ===
    0x22c1
=== CODE BLOCK END ===

=== CODE BLOCK ADDRESS 0x22c1 ===
  0x22c1	inc    	ebp
  0x22c2	cmove  	ebp, edi
  0x22c5	inc    	ebp
  0x22c6	test   	ebp, ebp
  0x22c8	jne    	0x22d2
  === BLOCK LINK ===
    0x22ca
=== CODE BLOCK END ===

=== CODE BLOCK ADDRESS 0x22ca ===
  0x22ca	test   	esi, esi
  0x22cc	je     	0x282a
  === BLOCK LINK ===
    0x22d2
=== CODE BLOCK END ===

=== CODE BLOCK ADDRESS 0x22d2 ===
  0x22d2	dec    	esp
  0x22d3	and    	dword ptr [ebp - 0x80], esp
  0x22d6	dec    	eax
  0x22d7	lea    	eax, [0x246b]
  0x22dd	inc    	esp
  === BLOCK LINK ===
    0x22de
=== CODE BLOCK END ===

=== CODE BLOCK ADDRESS 0x22de ===
  0x22de	and    	dword ptr [ebp - 0x78], esp
  0x22e1	xor    	edx, edx
  0x22e3	xor    	ecx, ecx
  0x22e5	dec    	eax
  0x22e6	mov    	dword ptr [esp + 0x78], eax
  === BLOCK LINK ===
    0x22ea
=== CODE BLOCK END ===

=== CODE BLOCK ADDRESS 0x22ea ===
  0x22ea	dec    	eax
  0x22eb	call   	dword ptr [0x1e47]
  === BLOCK LINK ===
    0x22f1
=== CODE BLOCK END ===

=== CODE BLOCK ADDRESS 0x22f1 ===
  0x22f1	nop    	dword ptr [eax + eax]
  0x22f6	test   	eax, eax
  0x22f8	js     	0x282a
  === BLOCK LINK ===
    0x22fe
=== CODE BLOCK END ===

=== CODE BLOCK ADDRESS 0x22fe ===
  0x22fe	inc    	ecx
  0x22ff	mov    	edi, 1
  0x2304	dec    	eax
  0x2305	lea    	eax, [esp + 0x78]
  0x2309	dec    	eax
  === BLOCK LINK ===
    0x230a
=== CODE BLOCK END ===

=== CODE BLOCK ADDRESS 0x230a ===
  0x230a	mov    	dword ptr [esp + 0x28], eax
  0x230e	dec    	esp
  0x230f	lea    	ecx, [ebp - 0x70]
  0x2312	xor    	edx, edx
  0x2314	inc    	esp
  === BLOCK LINK ===
    0x2315
=== CODE BLOCK END ===

=== CODE BLOCK ADDRESS 0x2315 ===
  0x2315	mov    	dword ptr [esp + 0x20], edi
  0x2319	dec    	eax
  0x231a	lea    	ecx, [0x2418]
  0x2320	inc    	ebp
  0x2321	lea    	eax, [edi + 0x14]
  === BLOCK LINK ===
    0x2324
=== CODE BLOCK END ===

=== CODE BLOCK ADDRESS 0x2324 ===
  0x2324	dec    	eax
  0x2325	call   	dword ptr [0x1dfd]
  === BLOCK LINK ===
    0x232b
=== CODE BLOCK END ===

=== CODE BLOCK ADDRESS 0x232b ===
  0x232b	nop    	dword ptr [eax + eax]
  0x2330	mov    	ebx, eax
  0x2332	test   	eax, eax
  0x2334	js     	0x27d0
  === BLOCK LINK ===
    0x233a
=== CODE BLOCK END ===

=== CODE BLOCK ADDRESS 0x233a ===
  0x233a	mov    	ebx, dword ptr [ebp - 0x78]
  0x233d	test   	ebx, ebx
  0x233f	js     	0x27d0
  === BLOCK LINK ===
    0x2345
=== CODE BLOCK END ===

=== CODE BLOCK ADDRESS 0x2345 ===
  0x2345	dec    	eax
  0x2346	mov    	edi, dword ptr [ebp - 0x80]
  0x2349	inc    	ecx
  0x234a	mov    	ecx, ebp
  0x234c	inc    	ecx
  === BLOCK LINK ===
    0x234d
=== CODE BLOCK END ===

=== CODE BLOCK ADDRESS 0x234d ===
  0x234d	sub    	ecx, edi
  0x234f	je     	0x24a2
  === BLOCK LINK ===
    0x2355
=== CODE BLOCK END ===

=== CODE BLOCK ADDRESS 0x2355 ===
  0x2355	inc    	ecx
  0x2356	sub    	ecx, edi
  0x2358	je     	0x2466
  === BLOCK LINK ===
    0x235e
=== CODE BLOCK END ===

=== CODE BLOCK ADDRESS 0x235e ===
  0x235e	inc    	ecx
  0x235f	sub    	ecx, edi
  0x2361	je     	0x242a
  === BLOCK LINK ===
    0x2367
=== CODE BLOCK END ===

=== CODE BLOCK ADDRESS 0x2367 ===
  0x2367	inc    	ecx
  0x2368	sub    	ecx, edi
  0x236a	je     	0x23ae
  === BLOCK LINK ===
    0x236c
=== CODE BLOCK END ===

=== CODE BLOCK ADDRESS 0x236c ===
  0x236c	inc    	ecx
  0x236d	cmp    	ecx, edi
  0x236f	jne    	0x24ed
  === BLOCK LINK ===
    0x2375
=== CODE BLOCK END ===

=== CODE BLOCK ADDRESS 0x2375 ===
  0x2375	inc    	ebp
  0x2376	xor    	eax, eax
  0x2378	xor    	edx, edx
  0x237a	mov    	ecx, 0xc30
  0x237f	call   	0x128c
  === BLOCK LINK ===
    0x2384
=== CODE BLOCK END ===

=== CODE BLOCK ADDRESS 0x2384 ===
  0x2384	dec    	eax
  0x2385	mov    	eax, dword ptr [edi]
  0x2387	dec    	eax
  0x2388	mov    	ecx, edi
  0x238a	dec    	eax
  === BLOCK LINK ===
    0x238b
=== CODE BLOCK END ===

=== CODE BLOCK ADDRESS 0x238b ===
  0x238b	mov    	eax, dword ptr [eax + 0x58]
  0x238e	call   	dword ptr [0x200c]
  === BLOCK LINK ===
    0x2394
=== CODE BLOCK END ===

=== CODE BLOCK ADDRESS 0x2394 ===
  0x2394	mov    	ebx, eax
  0x2396	test   	eax, eax
  0x2398	js     	0x23a4
  === BLOCK LINK ===
    0x239a
=== CODE BLOCK END ===

=== CODE BLOCK ADDRESS 0x239a ===
  0x239a	mov    	ecx, 0xc2f
  0x239f	jmp    	0x24d0
  === BLOCK LINK ===
    0x23a4
=== CODE BLOCK END ===

=== CODE BLOCK ADDRESS 0x23a4 ===
  0x23a4	mov    	ecx, 0xc36
  0x23a9	jmp    	0x24e1
  === BLOCK LINK ===
    0x23ae
=== CODE BLOCK END ===

=== CODE BLOCK ADDRESS 0x23ae ===
  0x23ae	inc    	ebp
  0x23af	xor    	eax, eax
  0x23b1	xor    	edx, edx
  0x23b3	mov    	ecx, 0xc38
  0x23b8	call   	0x128c
  === BLOCK LINK ===
    0x23bd
=== CODE BLOCK END ===

=== CODE BLOCK ADDRESS 0x23bd ===
  0x23bd	dec    	eax
  0x23be	mov    	eax, dword ptr [edi]
  0x23c0	dec    	eax
  0x23c1	mov    	ecx, edi
  0x23c3	inc    	esp
  === BLOCK LINK ===
    0x23c4
=== CODE BLOCK END ===

=== CODE BLOCK ADDRESS 0x23c4 ===
  0x23c4	mov    	eax, dword ptr [esp + 0x54]
  0x23c8	mov    	edx, dword ptr [esp + 0x40]
  0x23cc	dec    	eax
  0x23cd	mov    	eax, dword ptr [eax + 0x38]
  0x23d0	call   	dword ptr [0x1fca]
  === BLOCK LINK ===
    0x23d6
=== CODE BLOCK END ===

=== CODE BLOCK ADDRESS 0x23d6 ===
  0x23d6	mov    	ebx, eax
  0x23d8	test   	eax, eax
  0x23da	js     	0x241e
  === BLOCK LINK ===
    0x23dc
=== CODE BLOCK END ===

=== CODE BLOCK ADDRESS 0x23dc ===
  0x23dc	inc    	ebp
  0x23dd	xor    	eax, eax
  0x23df	xor    	edx, edx
  0x23e1	mov    	ecx, 0xc28
  0x23e6	call   	0x128c
  === BLOCK LINK ===
    0x23eb
=== CODE BLOCK END ===

=== CODE BLOCK ADDRESS 0x23eb ===
  0x23eb	inc    	ebp
  0x23ec	xor    	eax, eax
  0x23ee	xor    	edx, edx
  0x23f0	mov    	ecx, 0xc37
  0x23f5	call   	0x128c
  === BLOCK LINK ===
    0x23fa
=== CODE BLOCK END ===

=== CODE BLOCK ADDRESS 0x23fa ===
  0x23fa	dec    	eax
  0x23fb	mov    	eax, dword ptr [edi]
  0x23fd	dec    	eax
  0x23fe	mov    	ecx, edi
  0x2400	mov    	edx, dword ptr [esp + 0x44]
  === BLOCK LINK ===
    0x2404
=== CODE BLOCK END ===

=== CODE BLOCK ADDRESS 0x2404 ===
  0x2404	dec    	eax
  0x2405	mov    	eax, dword ptr [eax + 0x40]
  0x2408	call   	dword ptr [0x1f92]
  === BLOCK LINK ===
    0x240e
=== CODE BLOCK END ===

=== CODE BLOCK ADDRESS 0x240e ===
  0x240e	mov    	ebx, eax
  0x2410	test   	eax, eax
  0x2412	js     	0x241e
  === BLOCK LINK ===
    0x2414
=== CODE BLOCK END ===

=== CODE BLOCK ADDRESS 0x2414 ===
  0x2414	mov    	ecx, 0xc2a
  0x2419	jmp    	0x24d0
  === BLOCK LINK ===
    0x241e
=== CODE BLOCK END ===

=== CODE BLOCK ADDRESS 0x241e ===
  0x241e	mov    	edx, ebx
  0x2420	mov    	ecx, 0xc34
  0x2425	jmp    	0x24e3
  === BLOCK LINK ===
    0x242a
=== CODE BLOCK END ===

=== CODE BLOCK ADDRESS 0x242a ===
  0x242a	inc    	ebp
  0x242b	xor    	eax, eax
  0x242d	xor    	edx, edx
  0x242f	mov    	ecx, 0xc39
  0x2434	call   	0x128c
  === BLOCK LINK ===
    0x2439
=== CODE BLOCK END ===

=== CODE BLOCK ADDRESS 0x2439 ===
  0x2439	dec    	eax
  0x243a	mov    	eax, dword ptr [edi]
  0x243c	dec    	eax
  0x243d	mov    	ecx, edi
  0x243f	inc    	esp
  === BLOCK LINK ===
    0x2440
=== CODE BLOCK END ===

=== CODE BLOCK ADDRESS 0x2440 ===
  0x2440	mov    	eax, dword ptr [esp + 0x5c]
  0x2444	mov    	edx, dword ptr [esp + 0x40]
  0x2448	dec    	eax
  0x2449	mov    	eax, dword ptr [eax + 0x48]
  0x244c	call   	dword ptr [0x1f4e]
  === BLOCK LINK ===
    0x2452
=== CODE BLOCK END ===

=== CODE BLOCK ADDRESS 0x2452 ===
  0x2452	mov    	ebx, eax
  0x2454	test   	eax, eax
  0x2456	js     	0x245f
  === BLOCK LINK ===
    0x2458
=== CODE BLOCK END ===

=== CODE BLOCK ADDRESS 0x2458 ===
  0x2458	mov    	ecx, 0xc29
  0x245d	jmp    	0x24d0
  === BLOCK LINK ===
    0x245f
=== CODE BLOCK END ===

=== CODE BLOCK ADDRESS 0x245f ===
  0x245f	mov    	ecx, 0xc35
  0x2464	jmp    	0x24e1
  === BLOCK LINK ===
    0x2466
=== CODE BLOCK END ===

=== CODE BLOCK ADDRESS 0x2466 ===
  0x2466	inc    	ebp
  0x2467	xor    	eax, eax
  0x2469	xor    	edx, edx
  0x246b	mov    	ecx, 0xc38
  0x2470	call   	0x128c
  === BLOCK LINK ===
    0x2475
=== CODE BLOCK END ===

=== CODE BLOCK ADDRESS 0x2475 ===
  0x2475	dec    	eax
  0x2476	mov    	eax, dword ptr [edi]
  0x2478	dec    	eax
  0x2479	mov    	ecx, edi
  0x247b	inc    	esp
  === BLOCK LINK ===
    0x247c
=== CODE BLOCK END ===

=== CODE BLOCK ADDRESS 0x247c ===
  0x247c	mov    	eax, dword ptr [esp + 0x54]
  0x2480	mov    	edx, dword ptr [esp + 0x34]
  0x2484	dec    	eax
  0x2485	mov    	eax, dword ptr [eax + 0x38]
  0x2488	call   	dword ptr [0x1f12]
  === BLOCK LINK ===
    0x248e
=== CODE BLOCK END ===

=== CODE BLOCK ADDRESS 0x248e ===
  0x248e	mov    	ebx, eax
  0x2490	test   	eax, eax
  0x2492	js     	0x249b
  === BLOCK LINK ===
    0x2494
=== CODE BLOCK END ===

=== CODE BLOCK ADDRESS 0x2494 ===
  0x2494	mov    	ecx, 0xc28
  0x2499	jmp    	0x24d0
  === BLOCK LINK ===
    0x249b
=== CODE BLOCK END ===

=== CODE BLOCK ADDRESS 0x249b ===
  0x249b	mov    	ecx, 0xc33
  0x24a0	jmp    	0x24e1
  === BLOCK LINK ===
    0x24a2
=== CODE BLOCK END ===

=== CODE BLOCK ADDRESS 0x24a2 ===
  0x24a2	inc    	ebp
  0x24a3	xor    	eax, eax
  0x24a5	xor    	edx, edx
  0x24a7	mov    	ecx, 0xc37
  0x24ac	call   	0x128c
  === BLOCK LINK ===
    0x24b1
=== CODE BLOCK END ===

=== CODE BLOCK ADDRESS 0x24b1 ===
  0x24b1	dec    	eax
  0x24b2	mov    	eax, dword ptr [edi]
  0x24b4	dec    	eax
  0x24b5	mov    	ecx, edi
  0x24b7	mov    	edx, dword ptr [esp + 0x44]
  === BLOCK LINK ===
    0x24bb
=== CODE BLOCK END ===

=== CODE BLOCK ADDRESS 0x24bb ===
  0x24bb	dec    	eax
  0x24bc	mov    	eax, dword ptr [eax + 0x40]
  0x24bf	call   	dword ptr [0x1edb]
  === BLOCK LINK ===
    0x24c5
=== CODE BLOCK END ===

=== CODE BLOCK ADDRESS 0x24c5 ===
  0x24c5	mov    	ebx, eax
  0x24c7	test   	eax, eax
  0x24c9	js     	0x24dc
  === BLOCK LINK ===
    0x24cb
=== CODE BLOCK END ===

=== CODE BLOCK ADDRESS 0x24cb ===
  0x24cb	mov    	ecx, 0xc27
  0x24d0	inc    	ebp
  0x24d1	xor    	eax, eax
  0x24d3	xor    	edx, edx
  0x24d5	call   	0x128c
  === BLOCK LINK ===
    0x24da
=== CODE BLOCK END ===

=== CODE BLOCK ADDRESS 0x24da ===
  0x24da	jmp    	0x24ed
  === BLOCK LINK ===
    0x24dc
=== CODE BLOCK END ===

=== CODE BLOCK ADDRESS 0x24dc ===
  0x24dc	mov    	ecx, 0xc32
  0x24e1	mov    	edx, eax
  0x24e3	call   	0x12f4
  === BLOCK LINK ===
    0x24e8
=== CODE BLOCK END ===

=== CODE BLOCK ADDRESS 0x24e8 ===
  0x24e8	inc    	esp
  0x24e9	mov    	dword ptr [esp + 0x38], edi
  0x24ed	test   	esi, esi
  0x24ef	je     	0x2706
  === BLOCK LINK ===
    0x24f5
=== CODE BLOCK END ===

=== CODE BLOCK ADDRESS 0x24f5 ===
  0x24f5	xor    	eax, eax
  0x24f7	dec    	eax
  0x24f8	lea    	ecx, [esp + 0x48]
  0x24fc	mov    	dword ptr [esp + 0x38], eax
  0x2500	dec    	esp
  === BLOCK LINK ===
    0x2501
=== CODE BLOCK END ===

=== CODE BLOCK ADDRESS 0x2501 ===
  0x2501	lea    	ecx, [esp + 0x3c]
  0x2505	dec    	eax
  0x2506	mov    	eax, dword ptr [edi]
  0x2508	dec    	esp
  0x2509	lea    	eax, [ebp + 0x90]
  === BLOCK LINK ===
    0x250f
=== CODE BLOCK END ===

=== CODE BLOCK ADDRESS 0x250f ===
  0x250f	dec    	eax
  0x2510	mov    	dword ptr [esp + 0x20], ecx
  0x2514	mov    	edx, 0x1000
  0x2519	dec    	eax
  0x251a	mov    	ecx, edi
  === BLOCK LINK ===
    0x251c
=== CODE BLOCK END ===

=== CODE BLOCK ADDRESS 0x251c ===
  0x251c	xor    	esi, esi
  0x251e	dec    	eax
  0x251f	mov    	eax, dword ptr [eax + 0x50]
  0x2522	call   	dword ptr [0x1e78]
  === BLOCK LINK ===
    0x2528
=== CODE BLOCK END ===

=== CODE BLOCK ADDRESS 0x2528 ===
  0x2528	mov    	ebx, eax
  0x252a	inc    	ecx
  0x252b	mov    	edi, 0x8007007a
  0x2530	test   	eax, eax
  0x2532	jns    	0x2586
  === BLOCK LINK ===
    0x2534
=== CODE BLOCK END ===

=== CODE BLOCK ADDRESS 0x2534 ===
  0x2534	inc    	ecx
  0x2535	cmp    	eax, edi
  0x2537	jne    	0x258d
  === BLOCK LINK ===
    0x2539
=== CODE BLOCK END ===

=== CODE BLOCK ADDRESS 0x2539 ===
  0x2539	mov    	edx, dword ptr [esp + 0x3c]
  0x253d	xor    	ecx, ecx
  0x253f	dec    	eax
  0x2540	call   	dword ptr [0x1c32]
  === BLOCK LINK ===
    0x2546
=== CODE BLOCK END ===

=== CODE BLOCK ADDRESS 0x2546 ===
  0x2546	nop    	dword ptr [eax + eax]
  0x254b	dec    	eax
  0x254c	mov    	esi, eax
  0x254e	dec    	eax
  0x254f	test   	eax, eax
  === BLOCK LINK ===
    0x2551
=== CODE BLOCK END ===

=== CODE BLOCK ADDRESS 0x2551 ===
  0x2551	jne    	0x255c
  === BLOCK LINK ===
    0x2553
=== CODE BLOCK END ===

=== CODE BLOCK ADDRESS 0x2553 ===
  0x2553	inc    	ecx
  0x2554	lea    	ebx, [edi - 0x72]
  0x2557	jmp    	0x270a
  === BLOCK LINK ===
    0x255c
=== CODE BLOCK END ===

=== CODE BLOCK ADDRESS 0x255c ===
  0x255c	dec    	eax
  0x255d	mov    	eax, dword ptr [edi]
  0x255f	dec    	eax
  0x2560	lea    	ecx, [esp + 0x48]
  0x2564	mov    	edx, dword ptr [esp + 0x3c]
  === BLOCK LINK ===
    0x2568
=== CODE BLOCK END ===

=== CODE BLOCK ADDRESS 0x2568 ===
  0x2568	dec    	esp
  0x2569	lea    	ecx, [esp + 0x3c]
  0x256d	dec    	eax
  0x256e	mov    	dword ptr [esp + 0x20], ecx
  0x2572	dec    	esp
  === BLOCK LINK ===
    0x2573
=== CODE BLOCK END ===

=== CODE BLOCK ADDRESS 0x2573 ===
  0x2573	mov    	eax, esi
  0x2575	dec    	eax
  0x2576	mov    	ecx, edi
  0x2578	dec    	eax
  0x2579	mov    	eax, dword ptr [eax + 0x50]
  === BLOCK LINK ===
    0x257c
=== CODE BLOCK END ===

=== CODE BLOCK ADDRESS 0x257c ===
  0x257c	call   	dword ptr [0x1e1e]
  === BLOCK LINK ===
    0x2582
=== CODE BLOCK END ===

=== CODE BLOCK ADDRESS 0x2582 ===
  0x2582	mov    	ebx, eax
  0x2584	jmp    	0x258d
  === BLOCK LINK ===
    0x2586
=== CODE BLOCK END ===

=== CODE BLOCK ADDRESS 0x2586 ===
  0x2586	dec    	eax
  0x2587	lea    	esi, [ebp + 0x90]
  0x258d	test   	ebx, ebx
  0x258f	js     	0x26c6
  === BLOCK LINK ===
    0x2595
=== CODE BLOCK END ===

=== CODE BLOCK ADDRESS 0x2595 ===
  0x2595	mov    	edx, dword ptr [esp + 0x48]
  0x2599	dec    	eax
  0x259a	lea    	eax, [esp + 0x3c]
  0x259e	inc    	ecx
  0x259f	mov    	ecx, 0x1000
  === BLOCK LINK ===
    0x25a4
=== CODE BLOCK END ===

=== CODE BLOCK ADDRESS 0x25a4 ===
  0x25a4	dec    	eax
  0x25a5	mov    	dword ptr [esp + 0x20], eax
  0x25a9	dec    	esp
  0x25aa	lea    	eax, [ebp + 0x1090]
  0x25b0	dec    	eax
  === BLOCK LINK ===
    0x25b1
=== CODE BLOCK END ===

=== CODE BLOCK ADDRESS 0x25b1 ===
  0x25b1	mov    	ecx, esi
  0x25b3	call   	0x1434
  === BLOCK LINK ===
    0x25b8
=== CODE BLOCK END ===

=== CODE BLOCK ADDRESS 0x25b8 ===
  0x25b8	mov    	ebx, eax
  0x25ba	test   	eax, eax
  0x25bc	jns    	0x2609
  === BLOCK LINK ===
    0x25be
=== CODE BLOCK END ===

=== CODE BLOCK ADDRESS 0x25be ===
  0x25be	inc    	ecx
  0x25bf	cmp    	eax, edi
  0x25c1	jne    	0x2610
  === BLOCK LINK ===
    0x25c3
=== CODE BLOCK END ===

=== CODE BLOCK ADDRESS 0x25c3 ===
  0x25c3	mov    	edx, dword ptr [esp + 0x3c]
  0x25c7	xor    	ecx, ecx
  0x25c9	dec    	eax
  0x25ca	call   	dword ptr [0x1ba8]
  === BLOCK LINK ===
    0x25d0
=== CODE BLOCK END ===

=== CODE BLOCK ADDRESS 0x25d0 ===
  0x25d0	nop    	dword ptr [eax + eax]
  0x25d5	dec    	esp
  0x25d6	mov    	esp, eax
  0x25d8	dec    	eax
  0x25d9	test   	eax, eax
  === BLOCK LINK ===
    0x25db
=== CODE BLOCK END ===

=== CODE BLOCK ADDRESS 0x25db ===
  0x25db	jne    	0x25e7
  === BLOCK LINK ===
    0x25dd
=== CODE BLOCK END ===

=== CODE BLOCK ADDRESS 0x25dd ===
  0x25dd	mov    	ebx, 0x80070008
  0x25e2	jmp    	0x26c6
  === BLOCK LINK ===
    0x25e7
=== CODE BLOCK END ===

=== CODE BLOCK ADDRESS 0x25e7 ===
  0x25e7	inc    	esp
  0x25e8	mov    	ecx, dword ptr [esp + 0x3c]
  0x25ec	dec    	eax
  0x25ed	lea    	eax, [esp + 0x3c]
  0x25f1	mov    	edx, dword ptr [esp + 0x48]
  === BLOCK LINK ===
    0x25f5
=== CODE BLOCK END ===

=== CODE BLOCK ADDRESS 0x25f5 ===
  0x25f5	dec    	ebp
  0x25f6	mov    	eax, esp
  0x25f8	dec    	eax
  0x25f9	mov    	ecx, esi
  0x25fb	dec    	eax
  === BLOCK LINK ===
    0x25fc
=== CODE BLOCK END ===

=== CODE BLOCK ADDRESS 0x25fc ===
  0x25fc	mov    	dword ptr [esp + 0x20], eax
  0x2600	call   	0x1434
  === BLOCK LINK ===
    0x2605
=== CODE BLOCK END ===

=== CODE BLOCK ADDRESS 0x2605 ===
  0x2605	mov    	ebx, eax
  0x2607	jmp    	0x2610
  === BLOCK LINK ===
    0x2609
=== CODE BLOCK END ===

=== CODE BLOCK ADDRESS 0x2609 ===
  0x2609	dec    	esp
  0x260a	lea    	esp, [ebp + 0x1090]
  0x2610	test   	ebx, ebx
  0x2612	js     	0x26c6
  === BLOCK LINK ===
    0x2618
=== CODE BLOCK END ===

=== CODE BLOCK ADDRESS 0x2618 ===
  0x2618	inc    	ebp
  0x2619	xor    	edi, edi
  0x261b	inc    	esp
  0x261c	cmp    	dword ptr [esp + 0x48], edi
  0x2620	jbe    	0x26c6
  === BLOCK LINK ===
    0x2626
=== CODE BLOCK END ===

=== CODE BLOCK ADDRESS 0x2626 ===
  0x2626	dec    	ebx
  0x2627	lea    	ecx, [edi + edi*2]
  0x262a	dec    	eax
  0x262b	add    	ecx, ecx
  0x262d	dec    	ecx
  === BLOCK LINK ===
    0x262e
=== CODE BLOCK END ===

=== CODE BLOCK ADDRESS 0x262e ===
  0x262e	mov    	eax, dword ptr [esp + ecx*8 + 8]
  0x2632	dec    	eax
  0x2633	mov    	dword ptr [ebp - 0x50], eax
  0x2636	dec    	ecx
  0x2637	mov    	eax, dword ptr [esp + ecx*8]
  === BLOCK LINK ===
    0x263a
=== CODE BLOCK END ===

=== CODE BLOCK ADDRESS 0x263a ===
  0x263a	dec    	eax
  0x263b	mov    	dword ptr [ebp - 0x48], eax
  0x263e	inc    	ecx
  0x263f	mov    	edx, dword ptr [esp + ecx*8 + 0x14]
  0x2643	sub    	edx, 1
  === BLOCK LINK ===
    0x2646
=== CODE BLOCK END ===

=== CODE BLOCK ADDRESS 0x2646 ===
  0x2646	je     	0x2697
  === BLOCK LINK ===
    0x2648
=== CODE BLOCK END ===

=== CODE BLOCK ADDRESS 0x2648 ===
  0x2648	sub    	edx, 1
  0x264b	je     	0x2690
  === BLOCK LINK ===
    0x264d
=== CODE BLOCK END ===

=== CODE BLOCK ADDRESS 0x264d ===
  0x264d	sub    	edx, 1
  0x2650	je     	0x2689
  === BLOCK LINK ===
    0x2652
=== CODE BLOCK END ===

=== CODE BLOCK ADDRESS 0x2652 ===
  0x2652	sub    	edx, 1
  0x2655	je     	0x2682
  === BLOCK LINK ===
    0x2657
=== CODE BLOCK END ===

=== CODE BLOCK ADDRESS 0x2657 ===
  0x2657	sub    	edx, 1
  0x265a	je     	0x267b
  === BLOCK LINK ===
    0x265c
=== CODE BLOCK END ===

=== CODE BLOCK ADDRESS 0x265c ===
  0x265c	sub    	edx, 1
  0x265f	je     	0x2674
  === BLOCK LINK ===
    0x2661
=== CODE BLOCK END ===

=== CODE BLOCK ADDRESS 0x2661 ===
  0x2661	cmp    	edx, 1
  0x2664	je     	0x266d
  === BLOCK LINK ===
    0x2666
=== CODE BLOCK END ===

=== CODE BLOCK ADDRESS 0x2666 ===
  0x2666	mov    	ecx, 0xc25
  0x266b	jmp    	0x269c
  === BLOCK LINK ===
    0x266d
=== CODE BLOCK END ===

=== CODE BLOCK ADDRESS 0x266d ===
  0x266d	mov    	ecx, 0xc24
  0x2672	jmp    	0x269c
  === BLOCK LINK ===
    0x2674
=== CODE BLOCK END ===

=== CODE BLOCK ADDRESS 0x2674 ===
  0x2674	mov    	ecx, 0xc23
  0x2679	jmp    	0x269c
  === BLOCK LINK ===
    0x267b
=== CODE BLOCK END ===

=== CODE BLOCK ADDRESS 0x267b ===
  0x267b	mov    	ecx, 0xc22
  0x2680	jmp    	0x269c
  === BLOCK LINK ===
    0x2682
=== CODE BLOCK END ===

=== CODE BLOCK ADDRESS 0x2682 ===
  0x2682	mov    	ecx, 0xc21
  0x2687	jmp    	0x269c
  === BLOCK LINK ===
    0x2689
=== CODE BLOCK END ===

=== CODE BLOCK ADDRESS 0x2689 ===
  0x2689	mov    	ecx, 0xc20
  0x268e	jmp    	0x269c
  === BLOCK LINK ===
    0x2690
=== CODE BLOCK END ===

=== CODE BLOCK ADDRESS 0x2690 ===
  0x2690	mov    	ecx, 0xc26
  0x2695	jmp    	0x269c
  === BLOCK LINK ===
    0x2697
=== CODE BLOCK END ===

=== CODE BLOCK ADDRESS 0x2697 ===
  0x2697	mov    	ecx, 0xc1f
  0x269c	call   	0x13c4
  === BLOCK LINK ===
    0x26a1
=== CODE BLOCK END ===

=== CODE BLOCK ADDRESS 0x26a1 ===
  0x26a1	dec    	esp
  0x26a2	lea    	eax, [ebp - 0x50]
  0x26a5	dec    	eax
  0x26a6	mov    	dword ptr [ebp - 0x40], eax
  0x26a9	mov    	edx, 3
  === BLOCK LINK ===
    0x26ae
=== CODE BLOCK END ===

=== CODE BLOCK ADDRESS 0x26ae ===
  0x26ae	mov    	ecx, 0xc1e
  0x26b3	call   	0x128c
  === BLOCK LINK ===
    0x26b8
=== CODE BLOCK END ===

=== CODE BLOCK ADDRESS 0x26b8 ===
  0x26b8	inc    	ecx
  0x26b9	inc    	edi
  0x26bb	inc    	esp
  0x26bc	cmp    	edi, dword ptr [esp + 0x48]
  0x26c0	jb     	0x2626
  === BLOCK LINK ===
    0x26c6
=== CODE BLOCK END ===

=== CODE BLOCK ADDRESS 0x26c6 ===
  0x26c6	dec    	eax
  0x26c7	test   	esi, esi
  0x26c9	je     	0x26e6
  === BLOCK LINK ===
    0x26cb
=== CODE BLOCK END ===

=== CODE BLOCK ADDRESS 0x26cb ===
  0x26cb	dec    	eax
  0x26cc	lea    	eax, [ebp + 0x90]
  0x26d2	dec    	eax
  0x26d3	cmp    	esi, eax
  0x26d5	je     	0x26e6
  === BLOCK LINK ===
    0x26d7
=== CODE BLOCK END ===

=== CODE BLOCK ADDRESS 0x26d7 ===
  0x26d7	dec    	eax
  0x26d8	mov    	ecx, esi
  0x26da	dec    	eax
  0x26db	call   	dword ptr [0x1a9f]
  === BLOCK LINK ===
    0x26e1
=== CODE BLOCK END ===

=== CODE BLOCK ADDRESS 0x26e1 ===
  0x26e1	nop    	dword ptr [eax + eax]
  0x26e6	dec    	ebp
  0x26e7	test   	esp, esp
  0x26e9	je     	0x2706
  === BLOCK LINK ===
    0x26eb
=== CODE BLOCK END ===

=== CODE BLOCK ADDRESS 0x26eb ===
  0x26eb	dec    	eax
  0x26ec	lea    	eax, [ebp + 0x1090]
  0x26f2	dec    	esp
  0x26f3	cmp    	esp, eax
  0x26f5	je     	0x2706
  === BLOCK LINK ===
    0x26f7
=== CODE BLOCK END ===

=== CODE BLOCK ADDRESS 0x26f7 ===
  0x26f7	dec    	ecx
  0x26f8	mov    	ecx, esp
  0x26fa	dec    	eax
  0x26fb	call   	dword ptr [0x1a7f]
  === BLOCK LINK ===
    0x2701
=== CODE BLOCK END ===

=== CODE BLOCK ADDRESS 0x2701 ===
  0x2701	nop    	dword ptr [eax + eax]
  0x2706	test   	ebx, ebx
  0x2708	jns    	0x275b
  === BLOCK LINK ===
    0x270a
=== CODE BLOCK END ===

=== CODE BLOCK ADDRESS 0x270a ===
  0x270a	cmp    	dword ptr [esp + 0x60], 0
  0x270f	je     	0x275b
  === BLOCK LINK ===
    0x2711
=== CODE BLOCK END ===

=== CODE BLOCK ADDRESS 0x2711 ===
  0x2711	inc    	ecx
  0x2712	lea    	eax, [ebp - 2]
  0x2715	test   	eax, 0xfffffffd
  0x271a	jne    	0x275b
  === BLOCK LINK ===
    0x271c
=== CODE BLOCK END ===

=== CODE BLOCK ADDRESS 0x271c ===
  0x271c	inc    	ebp
  0x271d	xor    	eax, eax
  0x271f	xor    	edx, edx
  0x2721	mov    	ecx, 0xc2b
  0x2726	xor    	esi, esi
  === BLOCK LINK ===
    0x2728
=== CODE BLOCK END ===

=== CODE BLOCK ADDRESS 0x2728 ===
  0x2728	call   	0x128c
  === BLOCK LINK ===
    0x272d
=== CODE BLOCK END ===

=== CODE BLOCK ADDRESS 0x272d ===
  0x272d	dec    	eax
  0x272e	mov    	eax, dword ptr [edi]
  0x2730	xor    	edx, edx
  0x2732	inc    	esp
  0x2733	mov    	eax, dword ptr [esp + 0x5c]
  === BLOCK LINK ===
    0x2737
=== CODE BLOCK END ===

=== CODE BLOCK ADDRESS 0x2737 ===
  0x2737	dec    	eax
  0x2738	mov    	ecx, edi
  0x273a	dec    	eax
  0x273b	mov    	eax, dword ptr [eax + 0x48]
  0x273e	call   	dword ptr [0x1c5c]
  === BLOCK LINK ===
    0x2744
=== CODE BLOCK END ===

=== CODE BLOCK ADDRESS 0x2744 ===
  0x2744	mov    	ebx, eax
  0x2746	test   	eax, eax
  0x2748	js     	0x275f
  === BLOCK LINK ===
    0x274a
=== CODE BLOCK END ===

=== CODE BLOCK ADDRESS 0x274a ===
  0x274a	inc    	ebp
  0x274b	xor    	eax, eax
  0x274d	xor    	edx, edx
  0x274f	mov    	ecx, 0xc29
  0x2754	call   	0x128c
  === BLOCK LINK ===
    0x2759
=== CODE BLOCK END ===

=== CODE BLOCK ADDRESS 0x2759 ===
  0x2759	jmp    	0x275f
  === BLOCK LINK ===
    0x275b
=== CODE BLOCK END ===

=== CODE BLOCK ADDRESS 0x275b ===
  0x275b	mov    	esi, dword ptr [esp + 0x38]
  0x275f	dec    	eax
  0x2760	mov    	eax, dword ptr [edi]
  0x2762	dec    	eax
  0x2763	mov    	ecx, edi
  === BLOCK LINK ===
    0x2765
=== CODE BLOCK END ===

=== CODE BLOCK ADDRESS 0x2765 ===
  0x2765	dec    	eax
  0x2766	mov    	eax, dword ptr [eax + 0x10]
  0x2769	call   	dword ptr [0x1c31]
  === BLOCK LINK ===
    0x276f
=== CODE BLOCK END ===

=== CODE BLOCK ADDRESS 0x276f ===
  0x276f	test   	ebx, ebx
  0x2771	jns    	0x281e
  === BLOCK LINK ===
    0x2777
=== CODE BLOCK END ===

=== CODE BLOCK ADDRESS 0x2777 ===
  0x2777	test   	esi, esi
  0x2779	jne    	0x27ba
  === BLOCK LINK ===
    0x277b
=== CODE BLOCK END ===

=== CODE BLOCK ADDRESS 0x277b ===
  0x277b	cmp    	ebx, 0x800710d5
  0x2781	jne    	0x2794
  === BLOCK LINK ===
    0x2783
=== CODE BLOCK END ===

=== CODE BLOCK ADDRESS 0x2783 ===
  0x2783	mov    	ecx, 0xc2e
  0x2788	inc    	ebp
  0x2789	xor    	eax, eax
  0x278b	xor    	edx, edx
  0x278d	call   	0x128c
  === BLOCK LINK ===
    0x2792
=== CODE BLOCK END ===

=== CODE BLOCK ADDRESS 0x2792 ===
  0x2792	jmp    	0x27ba
  === BLOCK LINK ===
    0x2794
=== CODE BLOCK END ===

=== CODE BLOCK ADDRESS 0x2794 ===
  0x2794	cmp    	ebx, 0x80070005
  0x279a	jne    	0x27a3
  === BLOCK LINK ===
    0x279c
=== CODE BLOCK END ===

=== CODE BLOCK ADDRESS 0x279c ===
  0x279c	mov    	ecx, 0xc31
  0x27a1	jmp    	0x2788
  === BLOCK LINK ===
    0x27a3
=== CODE BLOCK END ===

=== CODE BLOCK ADDRESS 0x27a3 ===
  0x27a3	mov    	eax, ebx
  0x27a5	movzx  	ecx, bx
  0x27a8	and    	eax, 0x1fff0000
  0x27ad	cmp    	eax, 0x70000
  0x27b2	cmovne  	ecx, ebx
  === BLOCK LINK ===
    0x27b5
=== CODE BLOCK END ===

=== CODE BLOCK ADDRESS 0x27b5 ===
  0x27b5	call   	0x1204
  === BLOCK LINK ===
    0x27ba
=== CODE BLOCK END ===

=== CODE BLOCK ADDRESS 0x27ba ===
  0x27ba	mov    	eax, ebx
  0x27bc	inc    	esp
  0x27bd	movzx  	esi, bx
  0x27c0	and    	eax, 0x1fff0000
  0x27c5	cmp    	eax, 0x70000
  === BLOCK LINK ===
    0x27ca
=== CODE BLOCK END ===

=== CODE BLOCK ADDRESS 0x27ca ===
  0x27ca	inc    	esp
  0x27cb	cmovne  	esi, ebx
  0x27ce	jmp    	0x281e
  === BLOCK LINK ===
    0x27d0
=== CODE BLOCK END ===

=== CODE BLOCK ADDRESS 0x27d0 ===
  0x27d0	cmp    	ebx, 0x80070005
  0x27d6	jne    	0x27e9
  === BLOCK LINK ===
    0x27d8
=== CODE BLOCK END ===

=== CODE BLOCK ADDRESS 0x27d8 ===
  0x27d8	inc    	ebp
  0x27d9	xor    	eax, eax
  0x27db	xor    	edx, edx
  0x27dd	mov    	ecx, 0xc31
  0x27e2	call   	0x128c
  === BLOCK LINK ===
    0x27e7
=== CODE BLOCK END ===

=== CODE BLOCK ADDRESS 0x27e7 ===
  0x27e7	jmp    	0x2809
  === BLOCK LINK ===
    0x27e9
=== CODE BLOCK END ===

=== CODE BLOCK ADDRESS 0x27e9 ===
  0x27e9	test   	ebx, ebx
  0x27eb	jns    	0x27fe
  === BLOCK LINK ===
    0x27ed
=== CODE BLOCK END ===

=== CODE BLOCK ADDRESS 0x27ed ===
  0x27ed	mov    	eax, ebx
  0x27ef	movzx  	ecx, bx
  0x27f2	and    	eax, 0x1fff0000
  0x27f7	cmp    	eax, 0x70000
  0x27fc	je     	0x2800
  === BLOCK LINK ===
    0x27fe
=== CODE BLOCK END ===

=== CODE BLOCK ADDRESS 0x27fe ===
  0x27fe	mov    	ecx, ebx
  0x2800	call   	0x1204
  === BLOCK LINK ===
    0x2805
=== CODE BLOCK END ===

=== CODE BLOCK ADDRESS 0x2805 ===
  0x2805	test   	ebx, ebx
  0x2807	jns    	0x281b
  === BLOCK LINK ===
    0x2809
=== CODE BLOCK END ===

=== CODE BLOCK ADDRESS 0x2809 ===
  0x2809	mov    	eax, ebx
  0x280b	inc    	esp
  0x280c	movzx  	esi, bx
  0x280f	and    	eax, 0x1fff0000
  0x2814	cmp    	eax, 0x70000
  === BLOCK LINK ===
    0x2819
=== CODE BLOCK END ===

=== CODE BLOCK ADDRESS 0x2819 ===
  0x2819	je     	0x281e
  === BLOCK LINK ===
    0x281b
=== CODE BLOCK END ===

=== CODE BLOCK ADDRESS 0x281b ===
  0x281b	inc    	esp
  0x281c	mov    	esi, ebx
  0x281e	dec    	eax
  0x281f	call   	dword ptr [0x190b]
  === BLOCK LINK ===
    0x2825
=== CODE BLOCK END ===

=== CODE BLOCK ADDRESS 0x2825 ===
  0x2825	nop    	dword ptr [eax + eax]
  0x282a	dec    	eax
  0x282b	mov    	ecx, dword ptr [0x3dbf]
  0x2831	dec    	eax
  0x2832	test   	ecx, ecx
  === BLOCK LINK ===
    0x2834
=== CODE BLOCK END ===

=== CODE BLOCK ADDRESS 0x2834 ===
  0x2834	je     	0x284a
  === BLOCK LINK ===
    0x2836
=== CODE BLOCK END ===

=== CODE BLOCK ADDRESS 0x2836 ===
  0x2836	dec    	eax
  0x2837	call   	dword ptr [0x1953]
  === BLOCK LINK ===
    0x283d
=== CODE BLOCK END ===

=== CODE BLOCK ADDRESS 0x283d ===
  0x283d	nop    	dword ptr [eax + eax]
  0x2842	dec    	eax
  0x2843	and    	dword ptr [0x3da6], 0
  0x284a	inc    	ecx
  0x284b	mov    	eax, esi
  === BLOCK LINK ===
    0x284d
=== CODE BLOCK END ===

=== CODE BLOCK ADDRESS 0x284d ===
  0x284d	dec    	eax
  0x284e	mov    	ecx, dword ptr [ebp + 0x2090]
  0x2854	dec    	eax
  0x2855	xor    	ecx, esp
  0x2857	call   	0x2c00
  === BLOCK LINK ===
    0x285c
=== CODE BLOCK END ===

=== CODE BLOCK ADDRESS 0x285c ===
  0x285c	dec    	esp
  0x285d	lea    	ebx, [esp + 0x21a0]
  0x2864	dec    	ecx
  0x2865	mov    	ebx, dword ptr [ebx + 0x30]
  0x2868	dec    	ecx
  === BLOCK LINK ===
    0x2869
=== CODE BLOCK END ===

=== CODE BLOCK ADDRESS 0x2869 ===
  0x2869	mov    	esi, dword ptr [ebx + 0x40]
  0x286c	dec    	ecx
  0x286d	mov    	edi, dword ptr [ebx + 0x48]
  0x2870	dec    	ecx
  0x2871	mov    	esp, ebx
  === BLOCK LINK ===
    0x2873
=== CODE BLOCK END ===

=== CODE BLOCK ADDRESS 0x2873 ===
  0x2873	inc    	ecx
  0x2874	pop    	edi
  0x2875	inc    	ecx
  0x2876	pop    	esi
  0x2877	inc    	ecx
  === BLOCK LINK ===
    0x2878
=== CODE BLOCK END ===

=== CODE BLOCK ADDRESS 0x2878 ===
  0x2878	pop    	ebp
  0x2879	inc    	ecx
  0x287a	pop    	esp
  0x287b	pop    	ebp
  0x287c	ret    	
  === BLOCK LINK ===
    0x287d
=== CODE BLOCK END ===

=== CODE BLOCK ADDRESS 0x287d ===
  0x287d	int3   	
  0x287e	int3   	
  0x287f	int3   	
  0x2880	int3   	
  0x2881	int3   	
  === BLOCK LINK ===
    0x2882
=== CODE BLOCK END ===

=== CODE BLOCK ADDRESS 0x2882 ===
  0x2882	int3   	
  0x2883	int3   	
  0x2884	dec    	eax
  0x2885	mov    	dword ptr [esp + 8], ebx
  0x2889	push   	edi
  === BLOCK LINK ===
    0x288a
=== CODE BLOCK END ===

=== CODE BLOCK ADDRESS 0x288a ===
  0x288a	dec    	eax
  0x288b	sub    	esp, 0x20
  0x288e	dec    	eax
  0x288f	mov    	edi, ecx
  0x2891	jmp    	0x28a2
  === BLOCK LINK ===
    0x2893
=== CODE BLOCK END ===

=== CODE BLOCK ADDRESS 0x2893 ===
  0x2893	dec    	eax
  0x2894	mov    	ecx, edi
  0x2896	call   	0x2c30
  === BLOCK LINK ===
    0x289b
=== CODE BLOCK END ===

=== CODE BLOCK ADDRESS 0x289b ===
  0x289b	test   	eax, eax
  0x289d	je     	0x28af
  === BLOCK LINK ===
    0x289f
=== CODE BLOCK END ===

=== CODE BLOCK ADDRESS 0x289f ===
  0x289f	dec    	eax
  0x28a0	mov    	ecx, edi
  0x28a2	call   	0x2c24
  === BLOCK LINK ===
    0x28a7
=== CODE BLOCK END ===

=== CODE BLOCK ADDRESS 0x28a7 ===
  0x28a7	dec    	eax
  0x28a8	mov    	ebx, eax
  0x28aa	dec    	eax
  0x28ab	test   	eax, eax
  0x28ad	je     	0x2893
  === BLOCK LINK ===
    0x28af
=== CODE BLOCK END ===

=== CODE BLOCK ADDRESS 0x28af ===
  0x28af	dec    	eax
  0x28b0	mov    	eax, ebx
  0x28b2	dec    	eax
  0x28b3	mov    	ebx, dword ptr [esp + 0x30]
  0x28b7	dec    	eax
  === BLOCK LINK ===
    0x28b8
=== CODE BLOCK END ===

=== CODE BLOCK ADDRESS 0x28b8 ===
  0x28b8	add    	esp, 0x20
  0x28bb	pop    	edi
  0x28bc	ret    	
  0x28bd	int3   	
  0x28be	int3   	
  === BLOCK LINK ===
    0x28bf
=== CODE BLOCK END ===

=== CODE BLOCK ADDRESS 0x28bf ===
  0x28bf	int3   	
  0x28c0	int3   	
  0x28c1	int3   	
  0x28c2	int3   	
  0x28c3	int3   	
  === BLOCK LINK ===
    0x28c4
=== CODE BLOCK END ===

=== CODE BLOCK ADDRESS 0x28c9 ===
  0x28c9	int3   	
  0x28ca	int3   	
  0x28cb	int3   	
  0x28cc	int3   	
  0x28cd	int3   	
  === BLOCK LINK ===
    0x28ce
=== CODE BLOCK END ===

=== CODE BLOCK ADDRESS 0x28ce ===
  0x28ce	int3   	
  0x28cf	int3   	
  0x28d0	dec    	eax
  0x28d1	sub    	esp, 0x28
  0x28d4	mov    	eax, 0x5a4d
  === BLOCK LINK ===
    0x28d9
=== CODE BLOCK END ===

=== CODE BLOCK ADDRESS 0x28d9 ===
  0x28d9	cmp    	word ptr [0xffffd720], ax
  0x28e0	je     	0x28e6
  === BLOCK LINK ===
    0x28e2
=== CODE BLOCK END ===

=== CODE BLOCK ADDRESS 0x28e2 ===
  0x28e2	xor    	eax, eax
  0x28e4	jmp    	0x2939
  === BLOCK LINK ===
    0x28e6
=== CODE BLOCK END ===

=== CODE BLOCK ADDRESS 0x28e6 ===
  0x28e6	dec    	eax
  0x28e7	arpl   	word ptr [0xffffd74f], cx
  0x28ed	dec    	eax
  0x28ee	lea    	eax, [0xffffd70c]
  0x28f4	dec    	eax
  === BLOCK LINK ===
    0x28f5
=== CODE BLOCK END ===

=== CODE BLOCK ADDRESS 0x28f5 ===
  0x28f5	add    	ecx, eax
  0x28f7	cmp    	dword ptr [ecx], 0x4550
  0x28fd	jne    	0x28e2
  === BLOCK LINK ===
    0x28ff
=== CODE BLOCK END ===

=== CODE BLOCK ADDRESS 0x28ff ===
  0x28ff	mov    	eax, 0x10b
  0x2904	cmp    	word ptr [ecx + 0x18], ax
  0x2908	je     	0x2928
  === BLOCK LINK ===
    0x290a
=== CODE BLOCK END ===

=== CODE BLOCK ADDRESS 0x290a ===
  0x290a	mov    	eax, 0x20b
  0x290f	cmp    	word ptr [ecx + 0x18], ax
  0x2913	jne    	0x28e2
  === BLOCK LINK ===
    0x2915
=== CODE BLOCK END ===

=== CODE BLOCK ADDRESS 0x2915 ===
  0x2915	xor    	eax, eax
  0x2917	cmp    	dword ptr [ecx + 0x84], 0xe
  0x291e	jbe    	0x2939
  === BLOCK LINK ===
    0x2920
=== CODE BLOCK END ===

=== CODE BLOCK ADDRESS 0x2920 ===
  0x2920	cmp    	dword ptr [ecx + 0xf8], eax
  0x2926	jmp    	0x2936
  === BLOCK LINK ===
    0x2928
=== CODE BLOCK END ===

=== CODE BLOCK ADDRESS 0x2928 ===
  0x2928	xor    	eax, eax
  0x292a	cmp    	dword ptr [ecx + 0x74], 0xe
  0x292e	jbe    	0x2939
  === BLOCK LINK ===
    0x2930
=== CODE BLOCK END ===

=== CODE BLOCK ADDRESS 0x2930 ===
  0x2930	cmp    	dword ptr [ecx + 0xe8], eax
  0x2936	setne  	al
  0x2939	mov    	ecx, 1
  0x293e	mov    	dword ptr [0x371c], eax
  0x2944	call   	0x2d18
  === BLOCK LINK ===
    0x2949
=== CODE BLOCK END ===

=== CODE BLOCK ADDRESS 0x2949 ===
  0x2949	mov    	ecx, eax
  0x294b	call   	dword ptr [0x19e7]
  === BLOCK LINK ===
    0x2951
=== CODE BLOCK END ===

=== CODE BLOCK ADDRESS 0x2951 ===
  0x2951	dec    	eax
  0x2952	mov    	ecx, dword ptr [0x1a20]
  0x2958	dec    	eax
  0x2959	or     	eax, 0xffffffff
  0x295c	dec    	eax
  === BLOCK LINK ===
    0x295d
=== CODE BLOCK END ===

=== CODE BLOCK ADDRESS 0x295d ===
  0x295d	mov    	dword ptr [0x3c95], eax
  0x2963	dec    	eax
  0x2964	mov    	dword ptr [0x3c96], eax
  0x296a	mov    	eax, dword ptr [0x3704]
  0x2970	mov    	dword ptr [ecx], eax
  === BLOCK LINK ===
    0x2972
=== CODE BLOCK END ===

=== CODE BLOCK ADDRESS 0x2972 ===
  0x2972	dec    	eax
  0x2973	mov    	ecx, dword ptr [0x19f7]
  0x2979	mov    	eax, dword ptr [0x36e9]
  0x297f	mov    	dword ptr [ecx], eax
  0x2981	call   	0x2d70
  === BLOCK LINK ===
    0x2986
=== CODE BLOCK END ===

=== CODE BLOCK ADDRESS 0x2986 ===
  0x2986	cmp    	dword ptr [0x3673], 0
  0x298d	jne    	0x299c
  === BLOCK LINK ===
    0x298f
=== CODE BLOCK END ===

=== CODE BLOCK ADDRESS 0x298f ===
  0x298f	dec    	eax
  0x2990	lea    	ecx, [0x3da]
  0x2996	call   	dword ptr [0x197c]
  === BLOCK LINK ===
    0x299c
=== CODE BLOCK END ===

=== CODE BLOCK ADDRESS 0x299c ===
  0x299c	xor    	eax, eax
  0x299e	dec    	eax
  0x299f	add    	esp, 0x28
  0x29a2	ret    	
  0x29a3	int3   	
  === BLOCK LINK ===
    0x29a4
=== CODE BLOCK END ===

=== CODE BLOCK ADDRESS 0x29a4 ===
  0x29a4	int3   	
  0x29a5	int3   	
  0x29a6	int3   	
  0x29a7	int3   	
  0x29a8	int3   	
  === BLOCK LINK ===
    0x29a9
=== CODE BLOCK END ===

=== CODE BLOCK ADDRESS 0x29a9 ===
  0x29a9	int3   	
  0x29aa	int3   	
  0x29ab	int3   	
  0x29ac	int3   	
  0x29ad	int3   	
  === BLOCK LINK ===
    0x29ae
=== CODE BLOCK END ===

=== CODE BLOCK ADDRESS 0x29ae ===
  0x29ae	int3   	
  0x29af	int3   	
  0x29b0	dec    	eax
  0x29b1	sub    	esp, 0x38
  0x29b4	mov    	eax, dword ptr [0x36b6]
  === BLOCK LINK ===
    0x29ba
=== CODE BLOCK END ===

=== CODE BLOCK ADDRESS 0x29ba ===
  0x29ba	dec    	esp
  0x29bb	lea    	eax, [0x3697]
  0x29c1	inc    	esp
  0x29c2	mov    	ecx, dword ptr [0x36a4]
  0x29c8	dec    	eax
  === BLOCK LINK ===
    0x29c9
=== CODE BLOCK END ===

=== CODE BLOCK ADDRESS 0x29c9 ===
  0x29c9	lea    	edx, [0x3681]
  0x29cf	mov    	dword ptr [0x368f], eax
  0x29d5	dec    	eax
  0x29d6	lea    	ecx, [0x366c]
  0x29dc	dec    	eax
  === BLOCK LINK ===
    0x29dd
=== CODE BLOCK END ===

=== CODE BLOCK ADDRESS 0x29dd ===
  0x29dd	lea    	eax, [0x3681]
  0x29e3	dec    	eax
  0x29e4	mov    	dword ptr [esp + 0x20], eax
  0x29e8	call   	dword ptr [0x18e2]
  === BLOCK LINK ===
    0x29ee
=== CODE BLOCK END ===

=== CODE BLOCK ADDRESS 0x29ee ===
  0x29ee	mov    	dword ptr [0x3658], eax
  0x29f4	dec    	eax
  0x29f5	add    	esp, 0x38
  0x29f8	ret    	
  0x29f9	int3   	
  === BLOCK LINK ===
    0x29fa
=== CODE BLOCK END ===

=== CODE BLOCK ADDRESS 0x29fa ===
  0x29fa	int3   	
  0x29fb	int3   	
  0x29fc	int3   	
  0x29fd	int3   	
  0x29fe	int3   	
  === BLOCK LINK ===
    0x29ff
=== CODE BLOCK END ===

=== CODE BLOCK ADDRESS 0x29ff ===
  0x29ff	int3   	
  0x2a00	dec    	eax
  0x2a01	mov    	dword ptr [esp + 8], ebx
  0x2a05	dec    	eax
  0x2a06	mov    	dword ptr [esp + 0x10], esi
  === BLOCK LINK ===
    0x2a0a
=== CODE BLOCK END ===

=== CODE BLOCK ADDRESS 0x2a0a ===
  0x2a0a	dec    	eax
  0x2a0b	mov    	dword ptr [esp + 0x18], edi
  0x2a0f	inc    	ecx
  0x2a10	push   	edi
  0x2a11	dec    	eax
  === BLOCK LINK ===
    0x2a12
=== CODE BLOCK END ===

=== CODE BLOCK ADDRESS 0x2a12 ===
  0x2a12	sub    	esp, 0x30
  0x2a15	dec    	eax
  0x2a17	mov    	eax, dword ptr [0x30]
  0x2a1e	dec    	eax
  0x2a1f	mov    	ebx, dword ptr [eax + 8]
  === BLOCK LINK ===
    0x2a22
=== CODE BLOCK END ===

=== CODE BLOCK ADDRESS 0x2a22 ===
  0x2a22	xor    	esi, esi
  0x2a24	xor    	eax, eax
  0x2a26	.byte  	0xf0
  0x2a27	dec    	eax
  0x2a28	cmpxchg  	dword ptr [0x3bd9], ebx
  === BLOCK LINK ===
    0x2a2f
=== CODE BLOCK END ===

=== CODE BLOCK ADDRESS 0x2a2f ===
  0x2a2f	je     	0x2a4c
  === BLOCK LINK ===
    0x2a31
=== CODE BLOCK END ===

=== CODE BLOCK ADDRESS 0x2a31 ===
  0x2a31	dec    	eax
  0x2a32	cmp    	eax, ebx
  0x2a34	jne    	0x2a3f
  === BLOCK LINK ===
    0x2a36
=== CODE BLOCK END ===

=== CODE BLOCK ADDRESS 0x2a36 ===
  0x2a36	mov    	ebx, 1
  0x2a3b	mov    	esi, ebx
  0x2a3d	jmp    	0x2a51
  === BLOCK LINK ===
    0x2a3f
=== CODE BLOCK END ===

=== CODE BLOCK ADDRESS 0x2a3f ===
  0x2a3f	mov    	ecx, 0x3e8
  0x2a44	call   	dword ptr [0x1836]
  === BLOCK LINK ===
    0x2a4a
=== CODE BLOCK END ===

=== CODE BLOCK ADDRESS 0x2a4a ===
  0x2a4a	jmp    	0x2a24
  === BLOCK LINK ===
    0x2a4c
=== CODE BLOCK END ===

=== CODE BLOCK ADDRESS 0x2a4c ===
  0x2a4c	mov    	ebx, 1
  0x2a51	mov    	eax, dword ptr [0x3bb9]
  0x2a57	cmp    	eax, ebx
  0x2a59	jne    	0x2a67
  === BLOCK LINK ===
    0x2a5b
=== CODE BLOCK END ===

=== CODE BLOCK ADDRESS 0x2a5b ===
  0x2a5b	mov    	ecx, 0x1f
  0x2a60	call   	0x2d63
  === BLOCK LINK ===
    0x2a65
=== CODE BLOCK END ===

=== CODE BLOCK ADDRESS 0x2a65 ===
  0x2a65	jmp    	0x2acc
  === BLOCK LINK ===
    0x2a67
=== CODE BLOCK END ===

=== CODE BLOCK ADDRESS 0x2a67 ===
  0x2a67	mov    	eax, dword ptr [0x3ba3]
  0x2a6d	test   	eax, eax
  0x2a6f	jne    	0x2ac6
  === BLOCK LINK ===
    0x2a71
=== CODE BLOCK END ===

=== CODE BLOCK ADDRESS 0x2a71 ===
  0x2a71	mov    	dword ptr [0x3b99], ebx
  0x2a77	dec    	esp
  0x2a78	lea    	edi, [0x195a]
  0x2a7e	dec    	eax
  0x2a7f	lea    	edi, [0x193b]
  === BLOCK LINK ===
    0x2a85
=== CODE BLOCK END ===

=== CODE BLOCK ADDRESS 0x2a85 ===
  0x2a85	dec    	eax
  0x2a86	mov    	dword ptr [esp + 0x28], edi
  0x2a8a	mov    	dword ptr [esp + 0x20], eax
  0x2a8e	dec    	ecx
  0x2a8f	cmp    	edi, edi
  === BLOCK LINK ===
    0x2a91
=== CODE BLOCK END ===

=== CODE BLOCK ADDRESS 0x2a91 ===
  0x2a91	jae    	0x2ab8
  === BLOCK LINK ===
    0x2a93
=== CODE BLOCK END ===

=== CODE BLOCK ADDRESS 0x2a93 ===
  0x2a93	test   	eax, eax
  0x2a95	jne    	0x2abc
  === BLOCK LINK ===
    0x2a97
=== CODE BLOCK END ===

=== CODE BLOCK ADDRESS 0x2a97 ===
  0x2a97	dec    	eax
  0x2a98	cmp    	dword ptr [edi], 0
  0x2a9b	je     	0x2aad
  === BLOCK LINK ===
    0x2a9d
=== CODE BLOCK END ===

=== CODE BLOCK ADDRESS 0x2a9d ===
  0x2a9d	dec    	eax
  0x2a9e	mov    	eax, dword ptr [edi]
  0x2aa0	dec    	eax
  0x2aa1	mov    	ecx, dword ptr [0x18f9]
  0x2aa7	call   	ecx
  === BLOCK LINK ===
    0x2aa9
=== CODE BLOCK END ===

=== CODE BLOCK ADDRESS 0x2aa9 ===
  0x2aa9	mov    	dword ptr [esp + 0x20], eax
  0x2aad	dec    	eax
  0x2aae	add    	edi, 8
  0x2ab1	dec    	eax
  0x2ab2	mov    	dword ptr [esp + 0x28], edi
  === BLOCK LINK ===
    0x2ab6
=== CODE BLOCK END ===

=== CODE BLOCK ADDRESS 0x2ab6 ===
  0x2ab6	jmp    	0x2a8e
  === BLOCK LINK ===
    0x2ab8
=== CODE BLOCK END ===

=== CODE BLOCK ADDRESS 0x2ab8 ===
  0x2ab8	test   	eax, eax
  0x2aba	je     	0x2acc
  === BLOCK LINK ===
    0x2abc
=== CODE BLOCK END ===

=== CODE BLOCK ADDRESS 0x2abc ===
  0x2abc	mov    	eax, 0xff
  0x2ac1	jmp    	0x2ba8
  === BLOCK LINK ===
    0x2ac6
=== CODE BLOCK END ===

=== CODE BLOCK ADDRESS 0x2ac6 ===
  0x2ac6	mov    	dword ptr [0x3578], ebx
  0x2acc	mov    	eax, dword ptr [0x3b3e]
  0x2ad2	cmp    	eax, ebx
  0x2ad4	jne    	0x2af3
  === BLOCK LINK ===
    0x2ad6
=== CODE BLOCK END ===

=== CODE BLOCK ADDRESS 0x2ad6 ===
  0x2ad6	dec    	eax
  0x2ad7	lea    	edx, [0x18db]
  0x2add	dec    	eax
  0x2ade	lea    	ecx, [0x18c4]
  0x2ae4	call   	0x2f3e
  === BLOCK LINK ===
    0x2ae9
=== CODE BLOCK END ===

=== CODE BLOCK ADDRESS 0x2ae9 ===
  0x2ae9	mov    	dword ptr [0x3b1d], 2
  0x2af3	test   	esi, esi
  0x2af5	jne    	0x2b00
  === BLOCK LINK ===
    0x2af7
=== CODE BLOCK END ===

=== CODE BLOCK ADDRESS 0x2af7 ===
  0x2af7	xor    	eax, eax
  0x2af9	dec    	eax
  0x2afa	xchg   	dword ptr [0x3b08], eax
  0x2b00	dec    	eax
  0x2b01	cmp    	dword ptr [0x3b10], 0
  === BLOCK LINK ===
    0x2b08
=== CODE BLOCK END ===

=== CODE BLOCK ADDRESS 0x2b08 ===
  0x2b08	je     	0x2b34
  === BLOCK LINK ===
    0x2b0a
=== CODE BLOCK END ===

=== CODE BLOCK ADDRESS 0x2b0a ===
  0x2b0a	dec    	eax
  0x2b0b	lea    	ecx, [0x3b07]
  0x2b11	call   	0x2dd0
  === BLOCK LINK ===
    0x2b16
=== CODE BLOCK END ===

=== CODE BLOCK ADDRESS 0x2b16 ===
  0x2b16	test   	eax, eax
  0x2b18	je     	0x2b34
  === BLOCK LINK ===
    0x2b1a
=== CODE BLOCK END ===

=== CODE BLOCK ADDRESS 0x2b1a ===
  0x2b1a	inc    	ebp
  0x2b1b	xor    	eax, eax
  0x2b1d	inc    	ecx
  0x2b1e	lea    	edx, [eax + 2]
  0x2b21	xor    	ecx, ecx
  === BLOCK LINK ===
    0x2b23
=== CODE BLOCK END ===

=== CODE BLOCK ADDRESS 0x2b23 ===
  0x2b23	dec    	eax
  0x2b24	mov    	eax, dword ptr [0x3aee]
  0x2b2a	dec    	esp
  0x2b2b	mov    	ecx, dword ptr [0x186f]
  0x2b31	inc    	ecx
  === BLOCK LINK ===
    0x2b32
=== CODE BLOCK END ===

=== CODE BLOCK ADDRESS 0x2b32 ===
  0x2b32	call   	ecx
  === BLOCK LINK ===
    0x2b34
=== CODE BLOCK END ===

=== CODE BLOCK ADDRESS 0x2b34 ===
  0x2b34	dec    	esp
  0x2b35	mov    	eax, dword ptr [0x351d]
  0x2b3b	dec    	eax
  0x2b3c	mov    	edx, dword ptr [0x350e]
  0x2b42	mov    	ecx, dword ptr [0x3500]
  === BLOCK LINK ===
    0x2b48
=== CODE BLOCK END ===

=== CODE BLOCK ADDRESS 0x2b48 ===
  0x2b48	call   	0x1ae0
  === BLOCK LINK ===
    0x2b4d
=== CODE BLOCK END ===

=== CODE BLOCK ADDRESS 0x2b4d ===
  0x2b4d	mov    	dword ptr [0x34ed], eax
  0x2b53	cmp    	dword ptr [0x3506], 0
  0x2b5a	jne    	0x2b64
  === BLOCK LINK ===
    0x2b5c
=== CODE BLOCK END ===

=== CODE BLOCK ADDRESS 0x2b5c ===
  0x2b5c	mov    	ecx, eax
  0x2b5e	call   	dword ptr [0x1794]
  === BLOCK LINK ===
    0x2b64
=== CODE BLOCK END ===

=== CODE BLOCK ADDRESS 0x2b64 ===
  0x2b64	cmp    	dword ptr [0x34d9], 0
  0x2b6b	jne    	0x2b79
  === BLOCK LINK ===
    0x2b6d
=== CODE BLOCK END ===

=== CODE BLOCK ADDRESS 0x2b6d ===
  0x2b6d	call   	dword ptr [0x1795]
  === BLOCK LINK ===
    0x2b73
=== CODE BLOCK END ===

=== CODE BLOCK ADDRESS 0x2b73 ===
  0x2b73	mov    	eax, dword ptr [0x34c7]
  0x2b79	jmp    	0x2ba8
  === BLOCK LINK ===
    0x2b7b
=== CODE BLOCK END ===

=== CODE BLOCK ADDRESS 0x2b7b ===
  0x2b7b	mov    	dword ptr [0x34bf], eax
  0x2b81	cmp    	dword ptr [0x34d8], 0
  0x2b88	jne    	0x2b93
  === BLOCK LINK ===
    0x2b8a
=== CODE BLOCK END ===

=== CODE BLOCK ADDRESS 0x2b8a ===
  0x2b8a	mov    	ecx, eax
  0x2b8c	call   	dword ptr [0x176e]
  === BLOCK LINK ===
    0x2b92
=== CODE BLOCK END ===

=== CODE BLOCK ADDRESS 0x2b92 ===
  0x2b92	int3   	
  0x2b93	cmp    	dword ptr [0x34aa], 0
  0x2b9a	jne    	0x2ba8
  === BLOCK LINK ===
    0x2b9c
=== CODE BLOCK END ===

=== CODE BLOCK ADDRESS 0x2b9c ===
  0x2b9c	call   	dword ptr [0x1766]
  === BLOCK LINK ===
    0x2ba2
=== CODE BLOCK END ===

=== CODE BLOCK ADDRESS 0x2ba2 ===
  0x2ba2	mov    	eax, dword ptr [0x3498]
  0x2ba8	dec    	eax
  0x2ba9	mov    	ebx, dword ptr [esp + 0x40]
  0x2bad	dec    	eax
  0x2bae	mov    	esi, dword ptr [esp + 0x48]
  === BLOCK LINK ===
    0x2bb2
=== CODE BLOCK END ===

=== CODE BLOCK ADDRESS 0x2bb2 ===
  0x2bb2	dec    	eax
  0x2bb3	mov    	edi, dword ptr [esp + 0x50]
  0x2bb7	dec    	eax
  0x2bb8	add    	esp, 0x30
  0x2bbb	inc    	ecx
  === BLOCK LINK ===
    0x2bbc
=== CODE BLOCK END ===

=== CODE BLOCK ADDRESS 0x2bbc ===
  0x2bbc	pop    	edi
  0x2bbd	ret    	
  0x2bbe	int3   	
  0x2bbf	int3   	
  0x2bc0	int3   	
  === BLOCK LINK ===
    0x2bc1
=== CODE BLOCK END ===

=== CODE BLOCK ADDRESS 0x115a ===
=== CODE BLOCK END ===

=== CODE BLOCK ADDRESS 0x2bc1 ===
  0x2bc1	int3   	
  0x2bc2	int3   	
  0x2bc3	int3   	
  0x2bc4	int3   	
  0x2bc5	int3   	
  === BLOCK LINK ===
    0x2bc6
=== CODE BLOCK END ===

=== CODE BLOCK ADDRESS 0x2bc6 ===
  0x2bc6	int3   	
  0x2bc7	int3   	
  0x2bc8	int3   	
  0x2bc9	int3   	
  0x2bca	int3   	
  === BLOCK LINK ===
    0x2bcb
=== CODE BLOCK END ===

=== CODE BLOCK ADDRESS 0x2bcb ===
  0x2bcb	int3   	
  0x2bcc	int3   	
  0x2bcd	int3   	
  0x2bce	int3   	
  0x2bcf	int3   	
  === BLOCK LINK ===
    0x2bd0
=== CODE BLOCK END ===

=== CODE BLOCK ADDRESS 0x2bd0 ===
  0x2bd0	dec    	eax
  0x2bd1	sub    	esp, 0x28
  0x2bd4	call   	0x2e64
  === BLOCK LINK ===
    0x2bd9
=== CODE BLOCK END ===

=== CODE BLOCK ADDRESS 0x2bd9 ===
  0x2bd9	dec    	eax
  0x2bda	add    	esp, 0x28
  0x2bdd	jmp    	0x2a00
  === BLOCK LINK ===
    0x2be2
=== CODE BLOCK END ===

=== CODE BLOCK ADDRESS 0x2be2 ===
  0x2be2	int3   	
  0x2be3	int3   	
  0x2be4	int3   	
  0x2be5	int3   	
  0x2be6	int3   	
  === BLOCK LINK ===
    0x2be7
=== CODE BLOCK END ===

=== CODE BLOCK ADDRESS 0x2be7 ===
  0x2be7	int3   	
  0x2be8	int3   	
  0x2be9	int3   	
  0x2bea	int3   	
  0x2beb	int3   	
  === BLOCK LINK ===
    0x2bec
=== CODE BLOCK END ===

=== CODE BLOCK ADDRESS 0x2bec ===
  0x2bec	int3   	
  0x2bed	int3   	
  0x2bee	int3   	
  0x2bef	int3   	
  0x2bf0	int3   	
  === BLOCK LINK ===
    0x2bf1
=== CODE BLOCK END ===

=== CODE BLOCK ADDRESS 0x2bf1 ===
  0x2bf1	int3   	
  0x2bf2	int3   	
  0x2bf3	int3   	
  0x2bf4	int3   	
  0x2bf5	int3   	
  === BLOCK LINK ===
    0x2bf6
=== CODE BLOCK END ===

=== CODE BLOCK ADDRESS 0x2bf6 ===
  0x2bf6	nop    	word ptr [eax + eax]
  0x2c00	dec    	eax
  0x2c01	cmp    	ecx, dword ptr [0x3401]
  0x2c07	jne    	0x2c19
  === BLOCK LINK ===
    0x2c09
=== CODE BLOCK END ===

=== CODE BLOCK ADDRESS 0x2c09 ===
  0x2c09	dec    	eax
  0x2c0a	rol    	ecx, 0x10
  0x2c0d	test   	cx, 0xffff
  0x2c12	jne    	0x2c15
  === BLOCK LINK ===
    0x2c14
=== CODE BLOCK END ===

=== CODE BLOCK ADDRESS 0x2c14 ===
  0x2c14	ret    	
  0x2c15	dec    	eax
  0x2c16	ror    	ecx, 0x10
  0x2c19	jmp    	0x2fb0
  === BLOCK LINK ===
    0x2c1e
=== CODE BLOCK END ===

=== CODE BLOCK ADDRESS 0x2c1e ===
  0x2c1e	int3   	
  0x2c1f	int3   	
  0x2c20	int3   	
  0x2c21	int3   	
  0x2c22	int3   	
  === BLOCK LINK ===
    0x2c23
=== CODE BLOCK END ===

=== CODE BLOCK ADDRESS 0x2c23 ===
  0x2c23	int3   	
  0x2c24	jmp    	dword ptr [0x16ae]
  === BLOCK LINK ===
    0x2c2a
=== CODE BLOCK END ===

=== CODE BLOCK ADDRESS 0x2c2a ===
  0x2c2a	int3   	
  0x2c2b	int3   	
  0x2c2c	int3   	
  0x2c2d	int3   	
  0x2c2e	int3   	
  === BLOCK LINK ===
    0x2c2f
=== CODE BLOCK END ===

=== CODE BLOCK ADDRESS 0x2c2f ===
  0x2c2f	int3   	
  0x2c30	jmp    	dword ptr [0x16aa]
  === BLOCK LINK ===
    0x2c36
=== CODE BLOCK END ===

=== CODE BLOCK ADDRESS 0x2c36 ===
  0x2c36	int3   	
  0x2c37	int3   	
  0x2c38	int3   	
  0x2c39	int3   	
  0x2c3a	int3   	
  === BLOCK LINK ===
    0x2c3b
=== CODE BLOCK END ===

=== CODE BLOCK ADDRESS 0x2c3b ===
  0x2c3b	int3   	
  0x2c3c	jmp    	dword ptr [0x171e]
  === BLOCK LINK ===
    0x2c42
=== CODE BLOCK END ===

=== CODE BLOCK ADDRESS 0x2c42 ===
  0x2c42	int3   	
  0x2c43	int3   	
  0x2c44	int3   	
  0x2c45	int3   	
  0x2c46	int3   	
  === BLOCK LINK ===
    0x2c47
=== CODE BLOCK END ===

=== CODE BLOCK ADDRESS 0x2c47 ===
  0x2c47	int3   	
  0x2c48	int3   	
  0x2c49	int3   	
  0x2c4a	int3   	
  0x2c4b	int3   	
  === BLOCK LINK ===
    0x2c4c
=== CODE BLOCK END ===

=== CODE BLOCK ADDRESS 0x2c4c ===
  0x2c4c	int3   	
  0x2c4d	int3   	
  0x2c4e	int3   	
  0x2c4f	int3   	
  0x2c50	dec    	eax
  === BLOCK LINK ===
    0x2c51
=== CODE BLOCK END ===

=== CODE BLOCK ADDRESS 0x2c51 ===
  0x2c51	sub    	esp, 0x28
  0x2c54	dec    	eax
  0x2c55	mov    	eax, dword ptr [ecx]
  0x2c57	cmp    	dword ptr [eax], 0xe06d7363
  0x2c5d	jne    	0x2c82
  === BLOCK LINK ===
    0x2c5f
=== CODE BLOCK END ===

=== CODE BLOCK ADDRESS 0x2c5f ===
  0x2c5f	cmp    	dword ptr [eax + 0x18], 4
  0x2c63	jne    	0x2c82
  === BLOCK LINK ===
    0x2c65
=== CODE BLOCK END ===

=== CODE BLOCK ADDRESS 0x2c65 ===
  0x2c65	mov    	ecx, dword ptr [eax + 0x20]
  0x2c68	lea    	eax, [ecx - 0x19930520]
  0x2c6e	cmp    	eax, 2
  0x2c71	jbe    	0x2c7b
  === BLOCK LINK ===
    0x2c73
=== CODE BLOCK END ===

=== CODE BLOCK ADDRESS 0x2c73 ===
  0x2c73	cmp    	ecx, 0x1994000
  0x2c79	jne    	0x2c82
  === BLOCK LINK ===
    0x2c7b
=== CODE BLOCK END ===

=== CODE BLOCK ADDRESS 0x2c7b ===
  0x2c7b	call   	dword ptr [0x16e7]
  === BLOCK LINK ===
    0x2c81
=== CODE BLOCK END ===

=== CODE BLOCK ADDRESS 0x2c81 ===
  0x2c81	int3   	
  0x2c82	xor    	eax, eax
  0x2c84	dec    	eax
  0x2c85	add    	esp, 0x28
  0x2c88	ret    	
  === BLOCK LINK ===
    0x2c89
=== CODE BLOCK END ===

=== CODE BLOCK ADDRESS 0x2c89 ===
  0x2c89	int3   	
  0x2c8a	int3   	
  0x2c8b	int3   	
  0x2c8c	int3   	
  0x2c8d	int3   	
  === BLOCK LINK ===
    0x2c8e
=== CODE BLOCK END ===

=== CODE BLOCK ADDRESS 0x2c8e ===
  0x2c8e	int3   	
  0x2c8f	int3   	
  0x2c90	dec    	eax
  0x2c91	sub    	esp, 0x28
  0x2c94	dec    	eax
  === BLOCK LINK ===
    0x2c95
=== CODE BLOCK END ===

=== CODE BLOCK ADDRESS 0x2c95 ===
  0x2c95	lea    	ecx, [0xffffffb5]
  0x2c9b	call   	dword ptr [0x14bf]
  === BLOCK LINK ===
    0x2ca1
=== CODE BLOCK END ===

=== CODE BLOCK ADDRESS 0x2ca1 ===
  0x2ca1	xor    	eax, eax
  0x2ca3	dec    	eax
  0x2ca4	add    	esp, 0x28
  0x2ca7	ret    	
  0x2ca8	int3   	
  === BLOCK LINK ===
    0x2ca9
=== CODE BLOCK END ===

=== CODE BLOCK ADDRESS 0x2ca9 ===
  0x2ca9	int3   	
  0x2caa	int3   	
  0x2cab	int3   	
  0x2cac	int3   	
  0x2cad	int3   	
  === BLOCK LINK ===
    0x2cae
=== CODE BLOCK END ===

=== CODE BLOCK ADDRESS 0x2cae ===
  0x2cae	jmp    	dword ptr [0x166c]
  === BLOCK LINK ===
    0x2cb4
=== CODE BLOCK END ===

=== CODE BLOCK ADDRESS 0x2cb4 ===
  0x2cb4	int3   	
  0x2cb5	int3   	
  0x2cb6	int3   	
  0x2cb7	int3   	
  0x2cb8	int3   	
  === BLOCK LINK ===
    0x2cb9
=== CODE BLOCK END ===

=== CODE BLOCK ADDRESS 0x2cb9 ===
  0x2cb9	int3   	
  0x2cba	int3   	
  0x2cbb	int3   	
  0x2cbc	dec    	eax
  0x2cbd	sub    	esp, 0x18
  === BLOCK LINK ===
    0x2cc0
=== CODE BLOCK END ===

=== CODE BLOCK ADDRESS 0x2cc0 ===
  0x2cc0	xor    	edx, edx
  0x2cc2	dec    	eax
  0x2cc3	lea    	eax, [ecx - 1]
  0x2cc6	dec    	eax
  0x2cc7	cmp    	eax, -3
  === BLOCK LINK ===
    0x2cca
=== CODE BLOCK END ===

=== CODE BLOCK ADDRESS 0x2cca ===
  0x2cca	ja     	0x2d08
  === BLOCK LINK ===
    0x2ccc
=== CODE BLOCK END ===

=== CODE BLOCK ADDRESS 0x2ccc ===
  0x2ccc	mov    	eax, 0x5a4d
  0x2cd1	cmp    	word ptr [ecx], ax
  0x2cd4	jne    	0x2d00
  === BLOCK LINK ===
    0x2cd6
=== CODE BLOCK END ===

=== CODE BLOCK ADDRESS 0x2cd6 ===
  0x2cd6	cmp    	dword ptr [ecx + 0x3c], edx
  0x2cd9	jl     	0x2d00
  === BLOCK LINK ===
    0x2cdb
=== CODE BLOCK END ===

=== CODE BLOCK ADDRESS 0x2cdb ===
  0x2cdb	cmp    	dword ptr [ecx + 0x3c], 0x10000000
  0x2ce2	jae    	0x2d00
  === BLOCK LINK ===
    0x2ce4
=== CODE BLOCK END ===

=== CODE BLOCK ADDRESS 0x2ce4 ===
  0x2ce4	dec    	eax
  0x2ce5	arpl   	word ptr [ecx + 0x3c], ax
  0x2ce8	dec    	eax
  0x2ce9	add    	eax, ecx
  0x2ceb	dec    	eax
  === BLOCK LINK ===
    0x2cec
=== CODE BLOCK END ===

=== CODE BLOCK ADDRESS 0x2cec ===
  0x2cec	mov    	dword ptr [esp], eax
  0x2cef	cmp    	dword ptr [eax], 0x4550
  0x2cf5	dec    	eax
  0x2cf6	cmovne  	eax, edx
  0x2cf9	dec    	eax
  === BLOCK LINK ===
    0x2cfa
=== CODE BLOCK END ===

=== CODE BLOCK ADDRESS 0x2cfa ===
  0x2cfa	mov    	edx, eax
  0x2cfc	dec    	eax
  0x2cfd	mov    	dword ptr [esp], eax
  0x2d00	jmp    	0x2d08
  === BLOCK LINK ===
    0x2d02
=== CODE BLOCK END ===

=== CODE BLOCK ADDRESS 0x2d02 ===
  0x2d02	xor    	edx, edx
  0x2d04	dec    	eax
  0x2d05	mov    	dword ptr [esp], edx
  0x2d08	dec    	eax
  0x2d09	mov    	eax, edx
  === BLOCK LINK ===
    0x2d0b
=== CODE BLOCK END ===

=== CODE BLOCK ADDRESS 0x2d0b ===
  0x2d0b	dec    	eax
  0x2d0c	add    	esp, 0x18
  0x2d0f	ret    	
  0x2d10	int3   	
  0x2d11	int3   	
  === BLOCK LINK ===
    0x2d12
=== CODE BLOCK END ===

=== CODE BLOCK ADDRESS 0x2d12 ===
  0x2d12	int3   	
  0x2d13	int3   	
  0x2d14	int3   	
  0x2d15	int3   	
  0x2d16	int3   	
  === BLOCK LINK ===
    0x2d17
=== CODE BLOCK END ===

=== CODE BLOCK ADDRESS 0x2d17 ===
  0x2d17	int3   	
  0x2d18	inc    	eax
  0x2d19	push   	ebx
  0x2d1a	dec    	eax
  0x2d1b	sub    	esp, 0x20
  === BLOCK LINK ===
    0x2d1e
=== CODE BLOCK END ===

=== CODE BLOCK ADDRESS 0x2d1e ===
  0x2d1e	mov    	ebx, ecx
  0x2d20	xor    	ecx, ecx
  0x2d22	call   	dword ptr [0x1470]
  === BLOCK LINK ===
    0x2d28
=== CODE BLOCK END ===

=== CODE BLOCK ADDRESS 0x2d28 ===
  0x2d28	dec    	eax
  0x2d29	test   	eax, eax
  0x2d2b	je     	0x2d55
  === BLOCK LINK ===
    0x2d2d
=== CODE BLOCK END ===

=== CODE BLOCK ADDRESS 0x2d2d ===
  0x2d2d	dec    	eax
  0x2d2e	mov    	ecx, eax
  0x2d30	call   	0x2cbc
  === BLOCK LINK ===
    0x2d35
=== CODE BLOCK END ===

=== CODE BLOCK ADDRESS 0x2d35 ===
  0x2d35	dec    	eax
  0x2d36	test   	eax, eax
  0x2d38	je     	0x2d55
  === BLOCK LINK ===
    0x2d3a
=== CODE BLOCK END ===

=== CODE BLOCK ADDRESS 0x2d3a ===
  0x2d3a	mov    	ecx, 2
  0x2d3f	cmp    	word ptr [eax + 0x5c], cx
  0x2d43	jne    	0x2d49
  === BLOCK LINK ===
    0x2d45
=== CODE BLOCK END ===

=== CODE BLOCK ADDRESS 0x2d45 ===
  0x2d45	mov    	eax, ecx
  0x2d47	jmp    	0x2d57
  === BLOCK LINK ===
    0x2d49
=== CODE BLOCK END ===

=== CODE BLOCK ADDRESS 0x2d49 ===
  0x2d49	cmp    	word ptr [eax + 0x5c], 3
  0x2d4e	mov    	eax, 1
  0x2d53	je     	0x2d57
  === BLOCK LINK ===
    0x2d55
=== CODE BLOCK END ===

=== CODE BLOCK ADDRESS 0x2d55 ===
  0x2d55	mov    	eax, ebx
  0x2d57	dec    	eax
  0x2d58	add    	esp, 0x20
  0x2d5b	pop    	ebx
  0x2d5c	ret    	
  === BLOCK LINK ===
    0x2d5d
=== CODE BLOCK END ===

=== CODE BLOCK ADDRESS 0x118b ===
  0x118b	dec    	ebp
  0x118c	test   	ecx, ecx
  0x118e	je     	0x11a8
  === BLOCK LINK ===
    0x1190
    0x11a8
=== CODE BLOCK END ===

=== CODE BLOCK ADDRESS 0x2d5d ===
  0x2d5d	int3   	
  0x2d5e	int3   	
  0x2d5f	int3   	
  0x2d60	int3   	
  0x2d61	int3   	
  === BLOCK LINK ===
    0x2d62
=== CODE BLOCK END ===

=== CODE BLOCK ADDRESS 0x2d62 ===
  0x2d62	int3   	
  0x2d63	jmp    	dword ptr [0x1587]
  === BLOCK LINK ===
    0x2d69
=== CODE BLOCK END ===

=== CODE BLOCK ADDRESS 0x2d69 ===
  0x2d69	int3   	
  0x2d6a	int3   	
  0x2d6b	int3   	
  0x2d6c	int3   	
  0x2d6d	int3   	
  === BLOCK LINK ===
    0x2d6e
=== CODE BLOCK END ===

=== CODE BLOCK ADDRESS 0x2d6e ===
  0x2d6e	int3   	
  0x2d6f	int3   	
  0x2d70	xor    	eax, eax
  0x2d72	ret    	
  0x2d73	int3   	
  === BLOCK LINK ===
    0x2d74
=== CODE BLOCK END ===

=== CODE BLOCK ADDRESS 0x11b6 ===
=== CODE BLOCK END ===

=== CODE BLOCK ADDRESS 0x2d74 ===
  0x2d74	int3   	
  0x2d75	int3   	
  0x2d76	int3   	
  0x2d77	int3   	
  0x2d78	int3   	
  === BLOCK LINK ===
    0x2d79
=== CODE BLOCK END ===

=== CODE BLOCK ADDRESS 0x2d79 ===
  0x2d79	int3   	
  0x2d7a	int3   	
  0x2d7b	int3   	
  0x2d7c	int3   	
  0x2d7d	int3   	
  === BLOCK LINK ===
    0x2d7e
=== CODE BLOCK END ===

=== CODE BLOCK ADDRESS 0x2d7e ===
  0x2d7e	int3   	
  0x2d7f	int3   	
  0x2d80	dec    	esp
  0x2d81	arpl   	word ptr [ecx + 0x3c], ax
  0x2d84	inc    	ebp
  === BLOCK LINK ===
    0x2d85
=== CODE BLOCK END ===

=== CODE BLOCK ADDRESS 0x2d85 ===
  0x2d85	xor    	ecx, ecx
  0x2d87	dec    	esp
  0x2d88	add    	eax, ecx
  0x2d8a	dec    	esp
  0x2d8b	mov    	edx, edx
  === BLOCK LINK ===
    0x2d8d
=== CODE BLOCK END ===

=== CODE BLOCK ADDRESS 0x2d8d ===
  0x2d8d	inc    	ecx
  0x2d8e	movzx  	eax, word ptr [eax + 0x14]
  0x2d92	inc    	ebp
  0x2d93	movzx  	ebx, word ptr [eax + 6]
  0x2d97	dec    	eax
  === BLOCK LINK ===
    0x2d98
=== CODE BLOCK END ===

=== CODE BLOCK ADDRESS 0x2d98 ===
  0x2d98	add    	eax, 0x18
  0x2d9b	dec    	ecx
  0x2d9c	add    	eax, eax
  0x2d9e	inc    	ebp
  0x2d9f	test   	ebx, ebx
  === BLOCK LINK ===
    0x2da1
=== CODE BLOCK END ===

=== CODE BLOCK ADDRESS 0x2da1 ===
  0x2da1	je     	0x2dc1
  === BLOCK LINK ===
    0x2da3
=== CODE BLOCK END ===

=== CODE BLOCK ADDRESS 0x2da3 ===
  0x2da3	mov    	edx, dword ptr [eax + 0xc]
  0x2da6	dec    	esp
  0x2da7	cmp    	edx, edx
  0x2da9	jb     	0x2db5
  === BLOCK LINK ===
    0x2dab
=== CODE BLOCK END ===

=== CODE BLOCK ADDRESS 0x2dab ===
  0x2dab	mov    	ecx, dword ptr [eax + 8]
  0x2dae	add    	ecx, edx
  0x2db0	dec    	esp
  0x2db1	cmp    	edx, ecx
  0x2db3	jb     	0x2dc3
  === BLOCK LINK ===
    0x2db5
=== CODE BLOCK END ===

=== CODE BLOCK ADDRESS 0x2db5 ===
  0x2db5	inc    	ecx
  0x2db6	inc    	ecx
  0x2db8	dec    	eax
  0x2db9	add    	eax, 0x28
  0x2dbc	inc    	ebp
  === BLOCK LINK ===
    0x2dbd
=== CODE BLOCK END ===

=== CODE BLOCK ADDRESS 0x2dbd ===
  0x2dbd	cmp    	ecx, ebx
  0x2dbf	jb     	0x2da3
  === BLOCK LINK ===
    0x2dc1
=== CODE BLOCK END ===

=== CODE BLOCK ADDRESS 0x2dc1 ===
  0x2dc1	xor    	eax, eax
  0x2dc3	ret    	
  0x2dc4	int3   	
  0x2dc5	int3   	
  0x2dc6	int3   	
  === BLOCK LINK ===
    0x2dc7
=== CODE BLOCK END ===

=== CODE BLOCK ADDRESS 0x2dc7 ===
  0x2dc7	int3   	
  0x2dc8	int3   	
  0x2dc9	int3   	
  0x2dca	int3   	
  0x2dcb	int3   	
  === BLOCK LINK ===
    0x2dcc
=== CODE BLOCK END ===

=== CODE BLOCK ADDRESS 0x2dcc ===
  0x2dcc	int3   	
  0x2dcd	int3   	
  0x2dce	int3   	
  0x2dcf	int3   	
  0x2dd0	dec    	eax
  === BLOCK LINK ===
    0x2dd1
=== CODE BLOCK END ===

=== CODE BLOCK ADDRESS 0x2dd1 ===
  0x2dd1	mov    	dword ptr [esp + 8], ebx
  0x2dd5	push   	edi
  0x2dd6	dec    	eax
  0x2dd7	sub    	esp, 0x20
  0x2dda	dec    	eax
  === BLOCK LINK ===
    0x2ddb
=== CODE BLOCK END ===

=== CODE BLOCK ADDRESS 0x2ddb ===
  0x2ddb	mov    	ebx, ecx
  0x2ddd	dec    	eax
  0x2dde	lea    	edi, [0xffffd21c]
  0x2de4	dec    	eax
  0x2de5	mov    	ecx, edi
  === BLOCK LINK ===
    0x2de7
=== CODE BLOCK END ===

=== CODE BLOCK ADDRESS 0x2de7 ===
  0x2de7	call   	0x2e30
  === BLOCK LINK ===
    0x2dec
=== CODE BLOCK END ===

=== CODE BLOCK ADDRESS 0x2dec ===
  0x2dec	test   	eax, eax
  0x2dee	je     	0x2e12
  === BLOCK LINK ===
    0x2df0
=== CODE BLOCK END ===

=== CODE BLOCK ADDRESS 0x2df0 ===
  0x2df0	dec    	eax
  0x2df1	sub    	ebx, edi
  0x2df3	dec    	eax
  0x2df4	mov    	edx, ebx
  0x2df6	dec    	eax
  === BLOCK LINK ===
    0x2df7
=== CODE BLOCK END ===

=== CODE BLOCK ADDRESS 0x2df7 ===
  0x2df7	mov    	ecx, edi
  0x2df9	call   	0x2d80
  === BLOCK LINK ===
    0x2dfe
=== CODE BLOCK END ===

=== CODE BLOCK ADDRESS 0x2dfe ===
  0x2dfe	dec    	eax
  0x2dff	test   	eax, eax
  0x2e01	je     	0x2e12
  === BLOCK LINK ===
    0x2e03
=== CODE BLOCK END ===

=== CODE BLOCK ADDRESS 0x2e03 ===
  0x2e03	mov    	eax, dword ptr [eax + 0x24]
  0x2e06	shr    	eax, 0x1f
  0x2e09	not    	eax
  0x2e0b	and    	eax, 1
  0x2e0e	jmp    	0x2e12
  === BLOCK LINK ===
    0x2e10
=== CODE BLOCK END ===

=== CODE BLOCK ADDRESS 0x2e10 ===
  0x2e10	xor    	eax, eax
  0x2e12	dec    	eax
  0x2e13	mov    	ebx, dword ptr [esp + 0x30]
  0x2e17	dec    	eax
  0x2e18	add    	esp, 0x20
  === BLOCK LINK ===
    0x2e1b
=== CODE BLOCK END ===

=== CODE BLOCK ADDRESS 0x2e1b ===
  0x2e1b	pop    	edi
  0x2e1c	ret    	
  0x2e1d	int3   	
  0x2e1e	int3   	
  0x2e1f	int3   	
  === BLOCK LINK ===
    0x2e20
=== CODE BLOCK END ===

=== CODE BLOCK ADDRESS 0x2e20 ===
  0x2e20	int3   	
  0x2e21	int3   	
  0x2e22	int3   	
  0x2e23	int3   	
  0x2e24	int3   	
  === BLOCK LINK ===
    0x2e25
=== CODE BLOCK END ===

=== CODE BLOCK ADDRESS 0x2e25 ===
  0x2e25	int3   	
  0x2e26	int3   	
  0x2e27	int3   	
  0x2e28	int3   	
  0x2e29	int3   	
  === BLOCK LINK ===
    0x2e2a
=== CODE BLOCK END ===

=== CODE BLOCK ADDRESS 0x2e2a ===
  0x2e2a	int3   	
  0x2e2b	int3   	
  0x2e2c	int3   	
  0x2e2d	int3   	
  0x2e2e	int3   	
  === BLOCK LINK ===
    0x2e2f
=== CODE BLOCK END ===

=== CODE BLOCK ADDRESS 0x2e2f ===
  0x2e2f	int3   	
  0x2e30	mov    	eax, 0x5a4d
  0x2e35	cmp    	word ptr [ecx], ax
  0x2e38	jne    	0x2e5a
  === BLOCK LINK ===
    0x2e3a
=== CODE BLOCK END ===

=== CODE BLOCK ADDRESS 0x2e3a ===
  0x2e3a	dec    	eax
  0x2e3b	arpl   	word ptr [ecx + 0x3c], ax
  0x2e3e	dec    	eax
  0x2e3f	add    	eax, ecx
  0x2e41	cmp    	dword ptr [eax], 0x4550
  === BLOCK LINK ===
    0x2e47
=== CODE BLOCK END ===

=== CODE BLOCK ADDRESS 0x2e47 ===
  0x2e47	jne    	0x2e5a
  === BLOCK LINK ===
    0x2e49
=== CODE BLOCK END ===

=== CODE BLOCK ADDRESS 0x2e49 ===
  0x2e49	mov    	ecx, 0x20b
  0x2e4e	cmp    	word ptr [eax + 0x18], cx
  0x2e52	jne    	0x2e5a
  === BLOCK LINK ===
    0x2e54
=== CODE BLOCK END ===

=== CODE BLOCK ADDRESS 0x2e54 ===
  0x2e54	mov    	eax, 1
  0x2e59	ret    	
  0x2e5a	xor    	eax, eax
  0x2e5c	ret    	
  0x2e5d	int3   	
  === BLOCK LINK ===
    0x2e5e
=== CODE BLOCK END ===

=== CODE BLOCK ADDRESS 0x11f1 ===
  0x11f1	test   	ebx, ebx
  0x11f3	je     	0x10c5
  === BLOCK LINK ===
    0x11f9
=== CODE BLOCK END ===

=== CODE BLOCK ADDRESS 0x2e5e ===
  0x2e5e	int3   	
  0x2e5f	int3   	
  0x2e60	int3   	
  0x2e61	int3   	
  0x2e62	int3   	
  === BLOCK LINK ===
    0x2e63
=== CODE BLOCK END ===

=== CODE BLOCK ADDRESS 0x2e63 ===
  0x2e63	int3   	
  0x2e64	dec    	eax
  0x2e65	mov    	dword ptr [esp + 0x20], ebx
  0x2e69	push   	ebp
  0x2e6a	dec    	eax
  === BLOCK LINK ===
    0x2e6b
=== CODE BLOCK END ===

=== CODE BLOCK ADDRESS 0x2e6b ===
  0x2e6b	mov    	ebp, esp
  0x2e6d	dec    	eax
  0x2e6e	sub    	esp, 0x20
  0x2e71	dec    	eax
  0x2e72	and    	dword ptr [ebp + 0x18], 0
  === BLOCK LINK ===
    0x2e76
=== CODE BLOCK END ===

=== CODE BLOCK ADDRESS 0x2e76 ===
  0x2e76	dec    	eax
  0x2e77	mov    	ebx, 0x2ddfa232
  0x2e7c	cdq    	
  0x2e7d	sub    	eax, dword ptr [eax]
  0x2e7f	add    	byte ptr [eax - 0x75], cl
  === BLOCK LINK ===
    0x2e82
=== CODE BLOCK END ===

=== CODE BLOCK ADDRESS 0x2e82 ===
  0x2e82	add    	eax, 0x3181
  0x2e87	dec    	eax
  0x2e88	cmp    	eax, ebx
  0x2e8a	jne    	0x2f23
  === BLOCK LINK ===
    0x2e90
=== CODE BLOCK END ===

=== CODE BLOCK ADDRESS 0x2e90 ===
  0x2e90	dec    	eax
  0x2e91	lea    	ecx, [ebp + 0x18]
  0x2e94	call   	dword ptr [0x13fe]
  === BLOCK LINK ===
    0x2e9a
=== CODE BLOCK END ===

=== CODE BLOCK ADDRESS 0x2e9a ===
  0x2e9a	dec    	eax
  0x2e9b	mov    	eax, dword ptr [ebp + 0x18]
  0x2e9e	dec    	eax
  0x2e9f	mov    	dword ptr [ebp + 0x10], eax
  0x2ea2	call   	dword ptr [0x1360]
  === BLOCK LINK ===
    0x2ea8
=== CODE BLOCK END ===

=== CODE BLOCK ADDRESS 0x2ea8 ===
  0x2ea8	mov    	eax, eax
  0x2eaa	dec    	eax
  0x2eab	xor    	dword ptr [ebp + 0x10], eax
  0x2eae	call   	dword ptr [0x1344]
  === BLOCK LINK ===
    0x2eb4
=== CODE BLOCK END ===

=== CODE BLOCK ADDRESS 0x2eb4 ===
  0x2eb4	mov    	eax, eax
  0x2eb6	dec    	eax
  0x2eb7	xor    	dword ptr [ebp + 0x10], eax
  0x2eba	call   	dword ptr [0x13e0]
  === BLOCK LINK ===
    0x2ec0
=== CODE BLOCK END ===

=== CODE BLOCK ADDRESS 0x2ec0 ===
  0x2ec0	mov    	eax, eax
  0x2ec2	dec    	eax
  0x2ec3	shl    	eax, 0x18
  0x2ec6	dec    	eax
  0x2ec7	xor    	dword ptr [ebp + 0x10], eax
  === BLOCK LINK ===
    0x2eca
=== CODE BLOCK END ===

=== CODE BLOCK ADDRESS 0x2eca ===
  0x2eca	call   	dword ptr [0x13d0]
  === BLOCK LINK ===
    0x2ed0
=== CODE BLOCK END ===

=== CODE BLOCK ADDRESS 0x2ed0 ===
  0x2ed0	mov    	eax, eax
  0x2ed2	dec    	eax
  0x2ed3	lea    	ecx, [ebp + 0x10]
  0x2ed6	dec    	eax
  0x2ed7	xor    	eax, dword ptr [ebp + 0x10]
  === BLOCK LINK ===
    0x2eda
=== CODE BLOCK END ===

=== CODE BLOCK ADDRESS 0x2eda ===
  0x2eda	dec    	eax
  0x2edb	xor    	eax, ecx
  0x2edd	dec    	eax
  0x2ede	lea    	ecx, [ebp + 0x20]
  0x2ee1	dec    	eax
  === BLOCK LINK ===
    0x2ee2
=== CODE BLOCK END ===

=== CODE BLOCK ADDRESS 0x2ee2 ===
  0x2ee2	mov    	dword ptr [ebp + 0x10], eax
  0x2ee5	call   	dword ptr [0x132d]
  === BLOCK LINK ===
    0x2eeb
=== CODE BLOCK END ===

=== CODE BLOCK ADDRESS 0x2eeb ===
  0x2eeb	mov    	eax, dword ptr [ebp + 0x20]
  0x2eee	dec    	eax
  0x2eef	mov    	ecx, 0xffffffff
  0x2ef4	.byte  	0xff
  0x2ef5	inc    	dword ptr [eax]
  === BLOCK LINK ===
    0x2ef7
=== CODE BLOCK END ===

=== CODE BLOCK ADDRESS 0x2ef7 ===
  0x2ef7	add    	byte ptr [eax - 0x3f], cl
  0x2efa	loopne  	0x2f1c
  === BLOCK LINK ===
    0x2efc
=== CODE BLOCK END ===

=== CODE BLOCK ADDRESS 0x2efc ===
  0x2efc	dec    	eax
  0x2efd	xor    	eax, dword ptr [ebp + 0x20]
  0x2f00	dec    	eax
  0x2f01	xor    	eax, dword ptr [ebp + 0x10]
  0x2f04	dec    	eax
  === BLOCK LINK ===
    0x2f05
=== CODE BLOCK END ===

=== CODE BLOCK ADDRESS 0x2f05 ===
  0x2f05	and    	eax, ecx
  0x2f07	dec    	eax
  0x2f08	mov    	ecx, eax
  0x2f0a	dec    	eax
  0x2f0b	cmp    	eax, ebx
  === BLOCK LINK ===
    0x2f0d
=== CODE BLOCK END ===

=== CODE BLOCK ADDRESS 0x2f0d ===
  0x2f0d	jne    	0x2f1c
  === BLOCK LINK ===
    0x2f0f
=== CODE BLOCK END ===

=== CODE BLOCK ADDRESS 0x2f0f ===
  0x2f0f	dec    	eax
  0x2f10	mov    	eax, 0x2ddfa233
  0x2f15	cdq    	
  0x2f16	sub    	eax, dword ptr [eax]
  0x2f18	add    	byte ptr [eax - 0x75], cl
  === BLOCK LINK ===
    0x2f1b
=== CODE BLOCK END ===

=== CODE BLOCK ADDRESS 0x2f1b ===
  0x2f1b	enter  	-0x76b8, 0xd
  0x2f1f	in     	eax, 0x30
  0x2f21	add    	byte ptr [eax], al
  0x2f23	dec    	eax
  0x2f24	mov    	ebx, dword ptr [esp + 0x48]
  === BLOCK LINK ===
    0x2f28
=== CODE BLOCK END ===

=== CODE BLOCK ADDRESS 0x2f28 ===
  0x2f28	dec    	eax
  0x2f29	not    	eax
  0x2f2b	dec    	eax
  0x2f2c	mov    	dword ptr [0x30de], eax
  0x2f32	dec    	eax
  === BLOCK LINK ===
    0x2f33
=== CODE BLOCK END ===

=== CODE BLOCK ADDRESS 0x2f33 ===
  0x2f33	add    	esp, 0x20
  0x2f36	pop    	ebp
  0x2f37	ret    	
  0x2f38	int3   	
  0x2f39	int3   	
  === BLOCK LINK ===
    0x2f3a
=== CODE BLOCK END ===

=== CODE BLOCK ADDRESS 0x2f3a ===
  0x2f3a	int3   	
  0x2f3b	int3   	
  0x2f3c	int3   	
  0x2f3d	int3   	
  0x2f3e	jmp    	dword ptr [0x13e4]
  === BLOCK LINK ===
    0x2f44
=== CODE BLOCK END ===

=== CODE BLOCK ADDRESS 0x2f44 ===
  0x2f44	int3   	
  0x2f45	int3   	
  0x2f46	int3   	
  0x2f47	int3   	
  0x2f48	int3   	
  === BLOCK LINK ===
    0x2f49
=== CODE BLOCK END ===

=== CODE BLOCK ADDRESS 0x2f49 ===
  0x2f49	int3   	
  0x2f4a	jmp    	dword ptr [0x1430]
  === BLOCK LINK ===
    0x2f50
=== CODE BLOCK END ===

=== CODE BLOCK ADDRESS 0x2f50 ===
  0x2f50	int3   	
  0x2f51	int3   	
  0x2f52	int3   	
  0x2f53	int3   	
  0x2f54	int3   	
  === BLOCK LINK ===
    0x2f55
=== CODE BLOCK END ===

=== CODE BLOCK ADDRESS 0x2f55 ===
  0x2f55	int3   	
  0x2f56	int3   	
  0x2f57	int3   	
  0x2f58	int3   	
  0x2f59	int3   	
  === BLOCK LINK ===
    0x2f5a
=== CODE BLOCK END ===

=== CODE BLOCK ADDRESS 0x2f5a ===
  0x2f5a	int3   	
  0x2f5b	int3   	
  0x2f5c	int3   	
  0x2f5d	int3   	
  0x2f5e	int3   	
  === BLOCK LINK ===
    0x2f5f
=== CODE BLOCK END ===

=== CODE BLOCK ADDRESS 0x2f5f ===
  0x2f5f	int3   	
  0x2f60	ret    	0
  0x2f63	int3   	
  0x2f64	int3   	
  0x2f65	int3   	
  === BLOCK LINK ===
    0x2f66
=== CODE BLOCK END ===

=== CODE BLOCK ADDRESS 0x127d ===
  0x127d	dec    	eax
  0x127e	add    	esp, 0x40
  0x1281	pop    	ebx
  0x1282	ret    	
  === BLOCK LINK ===
    0x1283
=== CODE BLOCK END ===

=== CODE BLOCK ADDRESS 0x2f66 ===
  0x2f66	int3   	
  0x2f67	int3   	
  0x2f68	int3   	
  0x2f69	int3   	
  0x2f6a	int3   	
  === BLOCK LINK ===
    0x2f6b
=== CODE BLOCK END ===

=== CODE BLOCK ADDRESS 0x2f6b ===
  0x2f6b	int3   	
  0x2f6c	inc    	eax
  0x2f6d	push   	ebx
  0x2f6e	dec    	eax
  0x2f6f	sub    	esp, 0x20
  === BLOCK LINK ===
    0x2f72
=== CODE BLOCK END ===

=== CODE BLOCK ADDRESS 0x2f72 ===
  0x2f72	dec    	eax
  0x2f73	mov    	ebx, ecx
  0x2f75	xor    	ecx, ecx
  0x2f77	call   	dword ptr [0x11e3]
  === BLOCK LINK ===
    0x2f7d
=== CODE BLOCK END ===

=== CODE BLOCK ADDRESS 0x2f7d ===
  0x2f7d	dec    	eax
  0x2f7e	mov    	ecx, ebx
  0x2f80	call   	dword ptr [0x11e2]
  === BLOCK LINK ===
    0x2f86
=== CODE BLOCK END ===

=== CODE BLOCK ADDRESS 0x2f86 ===
  0x2f86	call   	dword ptr [0x1264]
  === BLOCK LINK ===
    0x2f8c
=== CODE BLOCK END ===

=== CODE BLOCK ADDRESS 0x2f8c ===
  0x2f8c	dec    	eax
  0x2f8d	mov    	ecx, eax
  0x2f8f	mov    	edx, 0xc0000409
  0x2f94	dec    	eax
  0x2f95	add    	esp, 0x20
  === BLOCK LINK ===
    0x2f98
=== CODE BLOCK END ===

=== CODE BLOCK ADDRESS 0x2f98 ===
  0x2f98	pop    	ebx
  0x2f99	dec    	eax
  0x2f9a	jmp    	dword ptr [0x1260]
  === BLOCK LINK ===
    0x2fa0
=== CODE BLOCK END ===

=== CODE BLOCK ADDRESS 0x2fa0 ===
  0x2fa0	int3   	
  0x2fa1	int3   	
  0x2fa2	int3   	
  0x2fa3	int3   	
  0x2fa4	int3   	
  === BLOCK LINK ===
    0x2fa5
=== CODE BLOCK END ===

=== CODE BLOCK ADDRESS 0x2fa5 ===
  0x2fa5	int3   	
  0x2fa6	int3   	
  0x2fa7	int3   	
  0x2fa8	int3   	
  0x2fa9	int3   	
  === BLOCK LINK ===
    0x2faa
=== CODE BLOCK END ===

=== CODE BLOCK ADDRESS 0x2faa ===
  0x2faa	int3   	
  0x2fab	int3   	
  0x2fac	int3   	
  0x2fad	int3   	
  0x2fae	int3   	
  === BLOCK LINK ===
    0x2faf
=== CODE BLOCK END ===

=== CODE BLOCK ADDRESS 0x2faf ===
  0x2faf	int3   	
  0x2fb0	dec    	eax
  0x2fb1	mov    	dword ptr [esp + 8], ecx
  0x2fb5	dec    	eax
  0x2fb6	sub    	esp, 0x88
  === BLOCK LINK ===
    0x2fbc
=== CODE BLOCK END ===

=== CODE BLOCK ADDRESS 0x2fbc ===
  0x2fbc	dec    	eax
  0x2fbd	lea    	ecx, [0x315d]
  0x2fc3	call   	dword ptr [0x1297]
  === BLOCK LINK ===
    0x2fc9
=== CODE BLOCK END ===

=== CODE BLOCK ADDRESS 0x2fc9 ===
  0x2fc9	dec    	eax
  0x2fca	mov    	eax, dword ptr [0x3248]
  0x2fd0	dec    	eax
  0x2fd1	mov    	dword ptr [esp + 0x48], eax
  0x2fd5	inc    	ebp
  === BLOCK LINK ===
    0x2fd6
=== CODE BLOCK END ===

=== CODE BLOCK ADDRESS 0x2fd6 ===
  0x2fd6	xor    	eax, eax
  0x2fd8	dec    	eax
  0x2fd9	lea    	edx, [esp + 0x50]
  0x2fdd	dec    	eax
  0x2fde	mov    	ecx, dword ptr [esp + 0x48]
  === BLOCK LINK ===
    0x2fe2
=== CODE BLOCK END ===

=== CODE BLOCK ADDRESS 0x2fe2 ===
  0x2fe2	call   	dword ptr [0x1268]
  === BLOCK LINK ===
    0x2fe8
=== CODE BLOCK END ===

=== CODE BLOCK ADDRESS 0x2fe8 ===
  0x2fe8	dec    	eax
  0x2fe9	mov    	dword ptr [esp + 0x40], eax
  0x2fed	dec    	eax
  0x2fee	cmp    	dword ptr [esp + 0x40], 0
  0x2ff3	je     	0x3037
  === BLOCK LINK ===
    0x2ff5
=== CODE BLOCK END ===

=== CODE BLOCK ADDRESS 0x2ff5 ===
  0x2ff5	dec    	eax
  0x2ff6	mov    	dword ptr [esp + 0x38], 0
  0x2ffe	dec    	eax
  0x2fff	lea    	eax, [esp + 0x58]
  0x3003	dec    	eax
  === BLOCK LINK ===
    0x3004
=== CODE BLOCK END ===

=== CODE BLOCK ADDRESS 0x3004 ===
  0x3004	mov    	dword ptr [esp + 0x30], eax
  0x3008	dec    	eax
  0x3009	lea    	eax, [esp + 0x60]
  0x300d	dec    	eax
  0x300e	mov    	dword ptr [esp + 0x28], eax
  === BLOCK LINK ===
    0x3012
=== CODE BLOCK END ===

=== CODE BLOCK ADDRESS 0x3012 ===
  0x3012	dec    	eax
  0x3013	lea    	eax, [0x3107]
  0x3019	dec    	eax
  0x301a	mov    	dword ptr [esp + 0x20], eax
  0x301e	dec    	esp
  === BLOCK LINK ===
    0x301f
=== CODE BLOCK END ===

=== CODE BLOCK ADDRESS 0x301f ===
  0x301f	mov    	ecx, dword ptr [esp + 0x40]
  0x3023	dec    	esp
  0x3024	mov    	eax, dword ptr [esp + 0x48]
  0x3028	dec    	eax
  0x3029	mov    	edx, dword ptr [esp + 0x50]
  === BLOCK LINK ===
    0x302d
=== CODE BLOCK END ===

=== CODE BLOCK ADDRESS 0x302d ===
  0x302d	xor    	ecx, ecx
  0x302f	call   	dword ptr [0x1223]
  === BLOCK LINK ===
    0x3035
=== CODE BLOCK END ===

=== CODE BLOCK ADDRESS 0x3035 ===
  0x3035	jmp    	0x305a
  === BLOCK LINK ===
    0x3037
=== CODE BLOCK END ===

=== CODE BLOCK ADDRESS 0x3037 ===
  0x3037	dec    	eax
  0x3038	mov    	eax, dword ptr [0x317a]
  0x303e	dec    	eax
  0x303f	mov    	eax, dword ptr [eax]
  0x3041	dec    	eax
  === BLOCK LINK ===
    0x3042
=== CODE BLOCK END ===

=== CODE BLOCK ADDRESS 0x3042 ===
  0x3042	mov    	dword ptr [0x31d0], eax
  0x3048	dec    	eax
  0x3049	mov    	eax, dword ptr [0x3169]
  0x304f	dec    	eax
  0x3050	add    	eax, 8
  === BLOCK LINK ===
    0x3053
=== CODE BLOCK END ===

=== CODE BLOCK ADDRESS 0x3053 ===
  0x3053	dec    	eax
  0x3054	mov    	dword ptr [0x315e], eax
  0x305a	dec    	eax
  0x305b	mov    	eax, dword ptr [0x31b7]
  0x3061	dec    	eax
  === BLOCK LINK ===
    0x3062
=== CODE BLOCK END ===

=== CODE BLOCK ADDRESS 0x3062 ===
  0x3062	mov    	dword ptr [0x3028], eax
  0x3068	dec    	eax
  0x3069	mov    	eax, dword ptr [esp + 0x90]
  0x3070	dec    	eax
  0x3071	mov    	dword ptr [0x3129], eax
  === BLOCK LINK ===
    0x3077
=== CODE BLOCK END ===

=== CODE BLOCK ADDRESS 0x3077 ===
  0x3077	mov    	dword ptr [0x2fff], 0xc0000409
  0x3081	mov    	dword ptr [0x2ff9], 1
  0x308b	mov    	dword ptr [0x3003], 3
  0x3095	mov    	eax, 8
  0x309a	dec    	eax
  === BLOCK LINK ===
    0x309b
=== CODE BLOCK END ===

=== CODE BLOCK ADDRESS 0x309b ===
  0x309b	imul   	eax, eax, 0
  0x309e	dec    	eax
  0x309f	lea    	ecx, [0x2ffb]
  0x30a5	dec    	eax
  0x30a6	mov    	dword ptr [ecx + eax], 2
  === BLOCK LINK ===
    0x30ad
=== CODE BLOCK END ===

=== CODE BLOCK ADDRESS 0x30ad ===
  0x30ad	mov    	eax, 8
  0x30b2	dec    	eax
  0x30b3	imul   	eax, eax, 1
  0x30b6	dec    	eax
  0x30b7	lea    	ecx, [0x2fe3]
  === BLOCK LINK ===
    0x30bd
=== CODE BLOCK END ===

=== CODE BLOCK ADDRESS 0x30bd ===
  0x30bd	dec    	eax
  0x30be	mov    	edx, dword ptr [0x2f44]
  0x30c4	dec    	eax
  0x30c5	mov    	dword ptr [ecx + eax], edx
  0x30c8	mov    	eax, 8
  === BLOCK LINK ===
    0x30cd
=== CODE BLOCK END ===

=== CODE BLOCK ADDRESS 0x30cd ===
  0x30cd	dec    	eax
  0x30ce	imul   	eax, eax, 2
  0x30d1	dec    	eax
  0x30d2	lea    	ecx, [0x2fc8]
  0x30d8	dec    	eax
  === BLOCK LINK ===
    0x30d9
=== CODE BLOCK END ===

=== CODE BLOCK ADDRESS 0x30d9 ===
  0x30d9	mov    	edx, dword ptr [0x2f31]
  0x30df	dec    	eax
  0x30e0	mov    	dword ptr [ecx + eax], edx
  0x30e3	mov    	eax, 8
  0x30e8	dec    	eax
  === BLOCK LINK ===
    0x30e9
=== CODE BLOCK END ===

=== CODE BLOCK ADDRESS 0x30e9 ===
  0x30e9	imul   	eax, eax, 0
  0x30ec	dec    	eax
  0x30ed	mov    	ecx, dword ptr [0x2f15]
  0x30f3	dec    	eax
  0x30f4	mov    	dword ptr [esp + eax + 0x68], ecx
  === BLOCK LINK ===
    0x30f8
=== CODE BLOCK END ===

=== CODE BLOCK ADDRESS 0x30f8 ===
  0x30f8	mov    	eax, 8
  0x30fd	dec    	eax
  0x30fe	imul   	eax, eax, 1
  0x3101	dec    	eax
  0x3102	mov    	ecx, dword ptr [0x2f08]
  === BLOCK LINK ===
    0x3108
=== CODE BLOCK END ===

=== CODE BLOCK ADDRESS 0x3108 ===
  0x3108	dec    	eax
  0x3109	mov    	dword ptr [esp + eax + 0x68], ecx
  0x310d	dec    	eax
  0x310e	lea    	ecx, [0xeec]
  0x3114	call   	0x2f6c
  === BLOCK LINK ===
    0x3119
=== CODE BLOCK END ===

=== CODE BLOCK ADDRESS 0x3119 ===
  0x3119	dec    	eax
  0x311a	add    	esp, 0x88
  0x3120	ret    	
  0x3121	int3   	
  0x3122	int3   	
  === BLOCK LINK ===
    0x3123
=== CODE BLOCK END ===

=== CODE BLOCK ADDRESS 0x125b ===
  0x125b	dec    	eax
  0x125c	mov    	ecx, dword ptr [esp + 0x58]
  0x1260	dec    	eax
  0x1261	call   	dword ptr [0x3081]
  === BLOCK LINK ===
    0x1267
=== CODE BLOCK END ===

=== CODE BLOCK ADDRESS 0x3123 ===
  0x3123	int3   	
  0x3124	int3   	
  0x3125	int3   	
  0x3126	int3   	
  0x3127	int3   	
  === BLOCK LINK ===
    0x3128
=== CODE BLOCK END ===

=== CODE BLOCK ADDRESS 0x3128 ===
  0x3128	int3   	
  0x3129	int3   	
  0x312a	int3   	
  0x312b	int3   	
  0x312c	int3   	
  === BLOCK LINK ===
    0x312d
=== CODE BLOCK END ===

=== CODE BLOCK ADDRESS 0x312d ===
  0x312d	int3   	
  0x312e	int3   	
  0x312f	int3   	
  0x3130	int3   	
  0x3131	int3   	
  === BLOCK LINK ===
    0x3132
=== CODE BLOCK END ===

=== CODE BLOCK ADDRESS 0x3132 ===
  0x3132	int3   	
  0x3133	int3   	
  0x3134	int3   	
  0x3135	int3   	
  0x3136	int3   	
  === BLOCK LINK ===
    0x3137
=== CODE BLOCK END ===

=== CODE BLOCK ADDRESS 0x3137 ===
  0x3137	int3   	
  0x3138	dec    	eax
  0x3139	sub    	esp, 0x28
  0x313c	dec    	ebp
  0x313d	mov    	eax, dword ptr [ecx + 0x38]
  === BLOCK LINK ===
    0x3140
=== CODE BLOCK END ===

=== CODE BLOCK ADDRESS 0x3140 ===
  0x3140	dec    	eax
  0x3141	mov    	ecx, edx
  0x3143	dec    	ecx
  0x3144	mov    	edx, ecx
  0x3146	call   	0x315c
  === BLOCK LINK ===
    0x314b
=== CODE BLOCK END ===

=== CODE BLOCK ADDRESS 0x314b ===
  0x314b	mov    	eax, 1
  0x3150	dec    	eax
  0x3151	add    	esp, 0x28
  0x3154	ret    	
  0x3155	int3   	
  === BLOCK LINK ===
    0x3156
=== CODE BLOCK END ===

=== CODE BLOCK ADDRESS 0x12e7 ===
  0x12e7	dec    	eax
  0x12e8	add    	esp, 0x48
  0x12eb	ret    	
  0x12ec	int3   	
  === BLOCK LINK ===
    0x12ed
=== CODE BLOCK END ===

=== CODE BLOCK ADDRESS 0x3156 ===
  0x3156	int3   	
  0x3157	int3   	
  0x3158	int3   	
  0x3159	int3   	
  0x315a	int3   	
  === BLOCK LINK ===
    0x315b
=== CODE BLOCK END ===

=== CODE BLOCK ADDRESS 0x315b ===
  0x315b	int3   	
  0x315c	inc    	eax
  0x315d	push   	ebx
  0x315e	inc    	ebp
  0x315f	mov    	ebx, dword ptr [eax]
  === BLOCK LINK ===
    0x3161
=== CODE BLOCK END ===

=== CODE BLOCK ADDRESS 0x3161 ===
  0x3161	dec    	eax
  0x3162	mov    	ebx, edx
  0x3164	inc    	ecx
  0x3165	and    	ebx, 0xfffffff8
  0x3168	dec    	esp
  === BLOCK LINK ===
    0x3169
=== CODE BLOCK END ===

=== CODE BLOCK ADDRESS 0x3169 ===
  0x3169	mov    	ecx, ecx
  0x316b	inc    	ecx
  0x316c	test   	byte ptr [eax], 4
  0x316f	dec    	esp
  0x3170	mov    	edx, ecx
  === BLOCK LINK ===
    0x3172
=== CODE BLOCK END ===

=== CODE BLOCK ADDRESS 0x3172 ===
  0x3172	je     	0x3187
  === BLOCK LINK ===
    0x3174
=== CODE BLOCK END ===

=== CODE BLOCK ADDRESS 0x3174 ===
  0x3174	inc    	ecx
  0x3175	mov    	eax, dword ptr [eax + 8]
  0x3178	dec    	ebp
  0x3179	arpl   	word ptr [eax + 4], dx
  0x317c	neg    	eax
  === BLOCK LINK ===
    0x317e
=== CODE BLOCK END ===

=== CODE BLOCK ADDRESS 0x317e ===
  0x317e	dec    	esp
  0x317f	add    	edx, ecx
  0x3181	dec    	eax
  0x3182	arpl   	ax, cx
  0x3184	dec    	esp
  === BLOCK LINK ===
    0x3185
=== CODE BLOCK END ===

=== CODE BLOCK ADDRESS 0x3185 ===
  0x3185	and    	edx, ecx
  0x3187	dec    	ecx
  0x3188	arpl   	bx, ax
  0x318a	dec    	edx
  0x318b	mov    	edx, dword ptr [eax + edx]
  === BLOCK LINK ===
    0x318e
=== CODE BLOCK END ===

=== CODE BLOCK ADDRESS 0x318e ===
  0x318e	dec    	eax
  0x318f	mov    	eax, dword ptr [ebx + 0x10]
  0x3192	mov    	ecx, dword ptr [eax + 8]
  0x3195	dec    	eax
  0x3196	mov    	eax, dword ptr [ebx + 8]
  === BLOCK LINK ===
    0x3199
=== CODE BLOCK END ===

=== CODE BLOCK ADDRESS 0x3199 ===
  0x3199	test   	byte ptr [ecx + eax + 3], 0xf
  0x319e	je     	0x31ab
  === BLOCK LINK ===
    0x31a0
=== CODE BLOCK END ===

=== CODE BLOCK ADDRESS 0x31a0 ===
  0x31a0	movzx  	eax, byte ptr [ecx + eax + 3]
  0x31a5	and    	eax, 0xfffffff0
  0x31a8	dec    	esp
  0x31a9	add    	ecx, eax
  0x31ab	dec    	esp
  === BLOCK LINK ===
    0x31ac
=== CODE BLOCK END ===

=== CODE BLOCK ADDRESS 0x31ac ===
  0x31ac	xor    	ecx, edx
  0x31ae	dec    	ecx
  0x31af	mov    	ecx, ecx
  0x31b1	pop    	ebx
  0x31b2	jmp    	0x2c00
  === BLOCK LINK ===
    0x31b7
=== CODE BLOCK END ===

=== CODE BLOCK ADDRESS 0x31b7 ===
  0x31b7	int3   	
  0x31b8	int3   	
  0x31b9	int3   	
  0x31ba	int3   	
  0x31bb	int3   	
  === BLOCK LINK ===
    0x31bc
=== CODE BLOCK END ===

=== CODE BLOCK ADDRESS 0x31bc ===
  0x31bc	int3   	
  0x31bd	int3   	
  0x31be	int3   	
  0x31bf	int3   	
  0x31c0	int3   	
  === BLOCK LINK ===
    0x31c1
=== CODE BLOCK END ===

=== CODE BLOCK ADDRESS 0x31c1 ===
  0x31c1	int3   	
  0x31c2	int3   	
  0x31c3	int3   	
  0x31c4	int3   	
  0x31c5	int3   	
  === BLOCK LINK ===
    0x31c6
=== CODE BLOCK END ===

=== CODE BLOCK ADDRESS 0x31c6 ===
  0x31c6	jmp    	dword ptr [0x11bc]
  === BLOCK LINK ===
    0x31cc
=== CODE BLOCK END ===

=== CODE BLOCK ADDRESS 0x31cc ===
  0x31cc	int3   	
  0x31cd	int3   	
  0x31ce	int3   	
  0x31cf	int3   	
  0x31d0	int3   	
  === BLOCK LINK ===
    0x31d1
=== CODE BLOCK END ===

=== CODE BLOCK ADDRESS 0x31d1 ===
  0x31d1	int3   	
  0x31d2	int3   	
  0x31d3	int3   	
  0x31d4	int3   	
  0x31d5	int3   	
  === BLOCK LINK ===
    0x31d6
=== CODE BLOCK END ===

=== CODE BLOCK ADDRESS 0x31d6 ===
  0x31d6	nop    	word ptr [eax + eax]
  0x31e0	jmp    	eax
  === BLOCK LINK ===
    0x31e2
=== CODE BLOCK END ===

=== CODE BLOCK ADDRESS 0x31e2 ===
  0x31e2	int3   	
  0x31e3	int3   	
  0x31e4	int3   	
  0x31e5	int3   	
  0x31e6	int3   	
  === BLOCK LINK ===
    0x31e7
=== CODE BLOCK END ===

=== CODE BLOCK ADDRESS 0x31e7 ===
  0x31e7	int3   	
  0x31e8	int3   	
  0x31e9	int3   	
  0x31ea	int3   	
  0x31eb	int3   	
  === BLOCK LINK ===
    0x31ec
=== CODE BLOCK END ===

=== CODE BLOCK ADDRESS 0x31ec ===
  0x31ec	int3   	
  0x31ed	int3   	
  0x31ee	int3   	
  0x31ef	int3   	
  0x31f0	int3   	
  === BLOCK LINK ===
    0x31f1
=== CODE BLOCK END ===

=== CODE BLOCK ADDRESS 0x31f1 ===
  0x31f1	int3   	
  0x31f2	int3   	
  0x31f3	int3   	
  0x31f4	int3   	
  0x31f5	int3   	
  === BLOCK LINK ===
    0x31f6
=== CODE BLOCK END ===

=== CODE BLOCK ADDRESS 0x31f6 ===
  0x31f6	nop    	word ptr [eax + eax]
  0x3200	dec    	eax
  0x3201	sub    	esp, 0x10
  0x3204	dec    	esp
  0x3205	mov    	dword ptr [esp], edx
  === BLOCK LINK ===
    0x3208
=== CODE BLOCK END ===

=== CODE BLOCK ADDRESS 0x3208 ===
  0x3208	dec    	esp
  0x3209	mov    	dword ptr [esp + 8], ebx
  0x320d	dec    	ebp
  0x320e	xor    	ebx, ebx
  0x3210	dec    	esp
  === BLOCK LINK ===
    0x3211
=== CODE BLOCK END ===

=== CODE BLOCK ADDRESS 0x3211 ===
  0x3211	lea    	edx, [esp + 0x18]
  0x3215	dec    	esp
  0x3216	sub    	edx, eax
  0x3218	dec    	ebp
  0x3219	cmovb  	edx, ebx
  === BLOCK LINK ===
    0x321c
=== CODE BLOCK END ===

=== CODE BLOCK ADDRESS 0x321c ===
  0x321c	dec    	esp
  0x321e	mov    	ebx, dword ptr [0x10]
  0x3225	dec    	ebp
  0x3226	cmp    	edx, ebx
  0x3228	jae    	0x323f
  === BLOCK LINK ===
    0x322a
=== CODE BLOCK END ===

=== CODE BLOCK ADDRESS 0x322a ===
  0x322a	inc    	cx
  0x322c	and    	edx, 0x8d4df000
  0x3232	wait   	
  0x3233	add    	al, dh
  0x3235	.byte  	0xff
  === BLOCK LINK ===
    0x3236
=== CODE BLOCK END ===

=== CODE BLOCK ADDRESS 0x3236 ===
  0x3236	inc    	dword ptr [ebp - 0x7c]
  0x3239	sbb    	ecx, dword ptr [ebp + 0x3b]
  0x323c	sal    	dword ptr [edx - 0xf], cl
  0x323f	dec    	esp
  0x3240	mov    	edx, dword ptr [esp]
  === BLOCK LINK ===
    0x3243
=== CODE BLOCK END ===

=== CODE BLOCK ADDRESS 0x3243 ===
  0x3243	dec    	esp
  0x3244	mov    	ebx, dword ptr [esp + 8]
  0x3248	dec    	eax
  0x3249	add    	esp, 0x10
  0x324c	ret    	
  === BLOCK LINK ===
    0x324d
=== CODE BLOCK END ===

=== CODE BLOCK ADDRESS 0x128c ===
=== CODE BLOCK END ===

=== CODE BLOCK ADDRESS 0x324d ===
  0x324d	int3   	
  0x324e	int3   	
  0x324f	int3   	
  0x3250	int3   	
  0x3251	int3   	
  === BLOCK LINK ===
    0x3252
=== CODE BLOCK END ===

=== CODE BLOCK ADDRESS 0x3252 ===
  0x3252	int3   	
  0x3253	inc    	eax
  0x3254	push   	ebp
  0x3255	dec    	eax
  0x3256	sub    	esp, 0x20
  === BLOCK LINK ===
    0x3259
=== CODE BLOCK END ===

=== CODE BLOCK ADDRESS 0x3259 ===
  0x3259	dec    	eax
  0x325a	mov    	ebp, edx
  0x325c	dec    	eax
  0x325d	mov    	eax, dword ptr [ecx]
  0x325f	dec    	eax
  === BLOCK LINK ===
    0x3260
=== CODE BLOCK END ===

=== CODE BLOCK ADDRESS 0x3260 ===
  0x3260	mov    	edx, ecx
  0x3262	mov    	ecx, dword ptr [eax]
  0x3264	call   	0x2cae
  === BLOCK LINK ===
    0x3269
=== CODE BLOCK END ===

=== CODE BLOCK ADDRESS 0x3269 ===
  0x3269	nop    	
  0x326a	dec    	eax
  0x326b	add    	esp, 0x20
  0x326e	pop    	ebp
  0x326f	ret    	
  === BLOCK LINK ===
    0x3270
=== CODE BLOCK END ===

=== CODE BLOCK ADDRESS 0x3270 ===
  0x3270	int3   	
  0x3271	int3   	
  0x3272	int3   	
  0x3273	int3   	
  0x3274	int3   	
  === BLOCK LINK ===
    0x3275
=== CODE BLOCK END ===

=== CODE BLOCK ADDRESS 0x3275 ===
  0x3275	int3   	
  0x3276	int3   	
  0x3277	int3   	
  0x3278	int3   	
  0x3279	int3   	
  === BLOCK LINK ===
    0x327a
=== CODE BLOCK END ===

=== CODE BLOCK ADDRESS 0x327a ===
  0x327a	int3   	
  0x327b	int3   	
  0x327c	int3   	
  0x327d	int3   	
  0x327e	int3   	
  === BLOCK LINK ===
    0x327f
=== CODE BLOCK END ===

=== CODE BLOCK ADDRESS 0x327f ===
  0x327f	int3   	
  0x3280	inc    	eax
  0x3281	push   	ebp
  0x3282	dec    	eax
  0x3283	sub    	esp, 0x20
  === BLOCK LINK ===
    0x3286
=== CODE BLOCK END ===

=== CODE BLOCK ADDRESS 0x3286 ===
  0x3286	dec    	eax
  0x3287	mov    	ebp, edx
  0x3289	dec    	eax
  0x328a	mov    	eax, dword ptr [ecx]
  0x328c	xor    	ecx, ecx
  === BLOCK LINK ===
    0x328e
=== CODE BLOCK END ===

=== CODE BLOCK ADDRESS 0x328e ===
  0x328e	cmp    	dword ptr [eax], 0xc0000005
  0x3294	sete   	cl
  0x3297	mov    	eax, ecx
  0x3299	dec    	eax
  0x329a	add    	esp, 0x20
  === BLOCK LINK ===
    0x329d
=== CODE BLOCK END ===

=== CODE BLOCK ADDRESS 0x329d ===
  0x329d	pop    	ebp
  0x329e	ret    	
  0x329f	int3   	
  0x32a0	add    	byte ptr [eax], al
  0x32a2	add    	byte ptr [eax], al
  === BLOCK LINK ===
    0x32a4
=== CODE BLOCK END ===

=== CODE BLOCK ADDRESS 0x1346 ===
  0x1346	inc    	ebp
  0x1347	xor    	eax, eax
  0x1349	xor    	edx, edx
  0x134b	call   	0x128c
  === BLOCK LINK ===
    0x1350
=== CODE BLOCK END ===

=== CODE BLOCK ADDRESS 0x32a4 ===
  0x32a4	add    	byte ptr [eax], al
  0x32a6	add    	byte ptr [eax], al
  0x32a8	add    	byte ptr [eax], al
  0x32aa	add    	byte ptr [eax], al
  0x32ac	add    	byte ptr [eax], al
  === BLOCK LINK ===
    0x32ae
=== CODE BLOCK END ===

=== CODE BLOCK ADDRESS 0x32ae ===
  0x32ae	add    	byte ptr [eax], al
  0x32b0	add    	byte ptr [eax], al
  0x32b2	add    	byte ptr [eax], al
  0x32b4	add    	byte ptr [eax], al
  0x32b6	add    	byte ptr [eax], al
  === BLOCK LINK ===
    0x32b8
=== CODE BLOCK END ===

=== CODE BLOCK ADDRESS 0x32b8 ===
  0x32b8	add    	byte ptr [eax], al
  0x32ba	add    	byte ptr [eax], al
  0x32bc	add    	byte ptr [eax], al
  0x32be	add    	byte ptr [eax], al
  0x32c0	add    	byte ptr [eax], al
  === BLOCK LINK ===
    0x32c2
=== CODE BLOCK END ===

=== CODE BLOCK ADDRESS 0x32c2 ===
  0x32c2	add    	byte ptr [eax], al
  0x32c4	add    	byte ptr [eax], al
  0x32c6	add    	byte ptr [eax], al
  0x32c8	add    	byte ptr [eax], al
  0x32ca	add    	byte ptr [eax], al
  === BLOCK LINK ===
    0x32cc
=== CODE BLOCK END ===

=== CODE BLOCK ADDRESS 0x32cc ===
  0x32cc	add    	byte ptr [eax], al
  0x32ce	add    	byte ptr [eax], al
  0x32d0	add    	byte ptr [eax], al
  0x32d2	add    	byte ptr [eax], al
  0x32d4	add    	byte ptr [eax], al
  === BLOCK LINK ===
    0x32d6
=== CODE BLOCK END ===

=== CODE BLOCK ADDRESS 0x32d6 ===
  0x32d6	add    	byte ptr [eax], al
  0x32d8	add    	byte ptr [eax], al
  0x32da	add    	byte ptr [eax], al
  0x32dc	add    	byte ptr [eax], al
  0x32de	add    	byte ptr [eax], al
  === BLOCK LINK ===
    0x32e0
=== CODE BLOCK END ===

=== CODE BLOCK ADDRESS 0x32e0 ===
  0x32e0	add    	byte ptr [eax], al
  0x32e2	add    	byte ptr [eax], al
  0x32e4	add    	byte ptr [eax], al
  0x32e6	add    	byte ptr [eax], al
  0x32e8	add    	byte ptr [eax], al
  === BLOCK LINK ===
    0x32ea
=== CODE BLOCK END ===

=== CODE BLOCK ADDRESS 0x32ea ===
  0x32ea	add    	byte ptr [eax], al
  0x32ec	add    	byte ptr [eax], al
  0x32ee	add    	byte ptr [eax], al
  0x32f0	add    	byte ptr [eax], al
  0x32f2	add    	byte ptr [eax], al
  === BLOCK LINK ===
    0x32f4
=== CODE BLOCK END ===

=== CODE BLOCK ADDRESS 0x32f4 ===
  0x32f4	add    	byte ptr [eax], al
  0x32f6	add    	byte ptr [eax], al
  0x32f8	add    	byte ptr [eax], al
  0x32fa	add    	byte ptr [eax], al
  0x32fc	add    	byte ptr [eax], al
  === BLOCK LINK ===
    0x32fe
=== CODE BLOCK END ===

=== CODE BLOCK ADDRESS 0x32fe ===
  0x32fe	add    	byte ptr [eax], al
  0x3300	add    	byte ptr [eax], al
  0x3302	add    	byte ptr [eax], al
  0x3304	add    	byte ptr [eax], al
  0x3306	add    	byte ptr [eax], al
  === BLOCK LINK ===
    0x3308
=== CODE BLOCK END ===

=== CODE BLOCK ADDRESS 0x3308 ===
  0x3308	add    	byte ptr [eax], al
  0x330a	add    	byte ptr [eax], al
  0x330c	add    	byte ptr [eax], al
  0x330e	add    	byte ptr [eax], al
  0x3310	add    	byte ptr [eax], al
  === BLOCK LINK ===
    0x3312
=== CODE BLOCK END ===

=== CODE BLOCK ADDRESS 0x3312 ===
  0x3312	add    	byte ptr [eax], al
  0x3314	add    	byte ptr [eax], al
  0x3316	add    	byte ptr [eax], al
  0x3318	add    	byte ptr [eax], al
  0x331a	add    	byte ptr [eax], al
  === BLOCK LINK ===
    0x331c
=== CODE BLOCK END ===

=== CODE BLOCK ADDRESS 0x331c ===
  0x331c	add    	byte ptr [eax], al
  0x331e	add    	byte ptr [eax], al
  0x3320	add    	byte ptr [eax], al
  0x3322	add    	byte ptr [eax], al
  0x3324	add    	byte ptr [eax], al
  === BLOCK LINK ===
    0x3326
=== CODE BLOCK END ===

=== CODE BLOCK ADDRESS 0x3326 ===
  0x3326	add    	byte ptr [eax], al
  0x3328	add    	byte ptr [eax], al
  0x332a	add    	byte ptr [eax], al
  0x332c	add    	byte ptr [eax], al
  0x332e	add    	byte ptr [eax], al
  === BLOCK LINK ===
    0x3330
=== CODE BLOCK END ===

=== CODE BLOCK ADDRESS 0x3330 ===
  0x3330	add    	byte ptr [eax], al
  0x3332	add    	byte ptr [eax], al
  0x3334	add    	byte ptr [eax], al
  0x3336	add    	byte ptr [eax], al
  0x3338	add    	byte ptr [eax], al
  === BLOCK LINK ===
    0x333a
=== CODE BLOCK END ===

=== CODE BLOCK ADDRESS 0x333a ===
  0x333a	add    	byte ptr [eax], al
  0x333c	add    	byte ptr [eax], al
  0x333e	add    	byte ptr [eax], al
  0x3340	add    	byte ptr [eax], al
  0x3342	add    	byte ptr [eax], al
  === BLOCK LINK ===
    0x3344
=== CODE BLOCK END ===

=== CODE BLOCK ADDRESS 0x3344 ===
  0x3344	add    	byte ptr [eax], al
  0x3346	add    	byte ptr [eax], al
  0x3348	add    	byte ptr [eax], al
  0x334a	add    	byte ptr [eax], al
  0x334c	add    	byte ptr [eax], al
  === BLOCK LINK ===
    0x334e
=== CODE BLOCK END ===

=== CODE BLOCK ADDRESS 0x334e ===
  0x334e	add    	byte ptr [eax], al
  0x3350	add    	byte ptr [eax], al
  0x3352	add    	byte ptr [eax], al
  0x3354	add    	byte ptr [eax], al
  0x3356	add    	byte ptr [eax], al
  === BLOCK LINK ===
    0x3358
=== CODE BLOCK END ===

=== CODE BLOCK ADDRESS 0x3358 ===
  0x3358	add    	byte ptr [eax], al
  0x335a	add    	byte ptr [eax], al
  0x335c	add    	byte ptr [eax], al
  0x335e	add    	byte ptr [eax], al
  0x3360	add    	byte ptr [eax], al
  === BLOCK LINK ===
    0x3362
=== CODE BLOCK END ===

=== CODE BLOCK ADDRESS 0x3362 ===
  0x3362	add    	byte ptr [eax], al
  0x3364	add    	byte ptr [eax], al
  0x3366	add    	byte ptr [eax], al
  0x3368	add    	byte ptr [eax], al
  0x336a	add    	byte ptr [eax], al
  === BLOCK LINK ===
    0x336c
=== CODE BLOCK END ===

=== CODE BLOCK ADDRESS 0x336c ===
  0x336c	add    	byte ptr [eax], al
  0x336e	add    	byte ptr [eax], al
  0x3370	add    	byte ptr [eax], al
  0x3372	add    	byte ptr [eax], al
  0x3374	add    	byte ptr [eax], al
  === BLOCK LINK ===
    0x3376
=== CODE BLOCK END ===

=== CODE BLOCK ADDRESS 0x3376 ===
  0x3376	add    	byte ptr [eax], al
  0x3378	add    	byte ptr [eax], al
  0x337a	add    	byte ptr [eax], al
  0x337c	add    	byte ptr [eax], al
  0x337e	add    	byte ptr [eax], al
  === BLOCK LINK ===
    0x3380
=== CODE BLOCK END ===

=== CODE BLOCK ADDRESS 0x3380 ===
  0x3380	add    	byte ptr [eax], al
  0x3382	add    	byte ptr [eax], al
  0x3384	add    	byte ptr [eax], al
  0x3386	add    	byte ptr [eax], al
  0x3388	add    	byte ptr [eax], al
  === BLOCK LINK ===
    0x338a
=== CODE BLOCK END ===

=== CODE BLOCK ADDRESS 0x338a ===
  0x338a	add    	byte ptr [eax], al
  0x338c	add    	byte ptr [eax], al
  0x338e	add    	byte ptr [eax], al
  0x3390	add    	byte ptr [eax], al
  0x3392	add    	byte ptr [eax], al
  === BLOCK LINK ===
    0x3394
=== CODE BLOCK END ===

=== CODE BLOCK ADDRESS 0x3394 ===
  0x3394	add    	byte ptr [eax], al
  0x3396	add    	byte ptr [eax], al
  0x3398	add    	byte ptr [eax], al
  0x339a	add    	byte ptr [eax], al
  0x339c	add    	byte ptr [eax], al
  === BLOCK LINK ===
    0x339e
=== CODE BLOCK END ===

=== CODE BLOCK ADDRESS 0x339e ===
  0x339e	add    	byte ptr [eax], al
  0x33a0	add    	byte ptr [eax], al
  0x33a2	add    	byte ptr [eax], al
  0x33a4	add    	byte ptr [eax], al
  0x33a6	add    	byte ptr [eax], al
  === BLOCK LINK ===
    0x33a8
=== CODE BLOCK END ===

=== CODE BLOCK ADDRESS 0x33a8 ===
  0x33a8	add    	byte ptr [eax], al
  0x33aa	add    	byte ptr [eax], al
  0x33ac	add    	byte ptr [eax], al
  0x33ae	add    	byte ptr [eax], al
  0x33b0	add    	byte ptr [eax], al
  === BLOCK LINK ===
    0x33b2
=== CODE BLOCK END ===

=== CODE BLOCK ADDRESS 0x33b2 ===
  0x33b2	add    	byte ptr [eax], al
  0x33b4	add    	byte ptr [eax], al
  0x33b6	add    	byte ptr [eax], al
  0x33b8	add    	byte ptr [eax], al
  0x33ba	add    	byte ptr [eax], al
  === BLOCK LINK ===
    0x33bc
=== CODE BLOCK END ===

=== CODE BLOCK ADDRESS 0x33bc ===
  0x33bc	add    	byte ptr [eax], al
  0x33be	add    	byte ptr [eax], al
  0x33c0	add    	byte ptr [eax], al
  0x33c2	add    	byte ptr [eax], al
  0x33c4	add    	byte ptr [eax], al
  === BLOCK LINK ===
    0x33c6
=== CODE BLOCK END ===

=== CODE BLOCK ADDRESS 0x33c6 ===
  0x33c6	add    	byte ptr [eax], al
  0x33c8	add    	byte ptr [eax], al
  0x33ca	add    	byte ptr [eax], al
  0x33cc	add    	byte ptr [eax], al
  0x33ce	add    	byte ptr [eax], al
  === BLOCK LINK ===
    0x33d0
=== CODE BLOCK END ===

=== CODE BLOCK ADDRESS 0x33d0 ===
  0x33d0	add    	byte ptr [eax], al
  0x33d2	add    	byte ptr [eax], al
  0x33d4	add    	byte ptr [eax], al
  0x33d6	add    	byte ptr [eax], al
  0x33d8	add    	byte ptr [eax], al
  === BLOCK LINK ===
    0x33da
=== CODE BLOCK END ===

=== CODE BLOCK ADDRESS 0x33da ===
  0x33da	add    	byte ptr [eax], al
  0x33dc	add    	byte ptr [eax], al
  0x33de	add    	byte ptr [eax], al
  0x33e0	add    	byte ptr [eax], al
  0x33e2	add    	byte ptr [eax], al
  === BLOCK LINK ===
    0x33e4
=== CODE BLOCK END ===

=== CODE BLOCK ADDRESS 0x33e4 ===
  0x33e4	add    	byte ptr [eax], al
  0x33e6	add    	byte ptr [eax], al
  0x33e8	add    	byte ptr [eax], al
  0x33ea	add    	byte ptr [eax], al
  0x33ec	add    	byte ptr [eax], al
  === BLOCK LINK ===
    0x33ee
=== CODE BLOCK END ===

=== CODE BLOCK ADDRESS 0x33ee ===
  0x33ee	add    	byte ptr [eax], al
  0x33f0	add    	byte ptr [eax], al
  0x33f2	add    	byte ptr [eax], al
  0x33f4	add    	byte ptr [eax], al
  0x33f6	add    	byte ptr [eax], al
  === BLOCK LINK ===
    0x33f8
=== CODE BLOCK END ===

=== CODE BLOCK ADDRESS 0x33f8 ===
  0x33f8	add    	byte ptr [eax], al
  0x33fa	add    	byte ptr [eax], al
  0x33fc	add    	byte ptr [eax], al
=== CODE BLOCK END ===

=== DATA BLOCK ADDRESS 0x4000 ===
  0x4000	80 60 00 40 01 00 00 00 20 61 00 40 01 00 00 00 	0`0@0000 a0@0000
  0x4010	18 01 00 00 00 00 00 00 00 00 00 00 00 00 00 00 	0000000000000000
  0x4020	00 00 00 00 00 00 00 00 00 00 00 00 00 00 00 00 	0000000000000000
  0x4030	00 00 00 00 00 00 00 00 00 00 00 00 00 00 00 00 	0000000000000000
  0x4040	00 00 00 00 00 00 00 00 00 00 00 00 00 00 00 00 	0000000000000000
  0x4050	00 00 00 00 00 00 00 00 00 00 00 00 00 00 00 00 	0000000000000000
  0x4060	00 00 00 00 00 00 00 00 08 60 00 40 01 00 00 00 	000000000`0@0000
  0x4070	00 00 00 00 00 00 00 00 00 00 00 00 00 00 00 00 	0000000000000000
  0x4080	98 43 00 40 01 00 00 00 a0 43 00 40 01 00 00 00 	0C0@00000C0@0000
  0x4090	ec 43 00 40 01 00 00 00 08 00 00 00 00 00 00 00 	0C0@000000000000
  0x40a0	00 75 41 00 00 00 00 00 00 00 00 00 00 00 00 00 	0uA0000000000000
  0x40b0	00 00 00 00 00 00 00 00 00 00 00 00 00 00 00 00 	0000000000000000
  0x40c0	00 00 00 00 00 00 00 00 00 00 00 00 00 00 00 00 	0000000000000000
  0x40d0	00 00 00 00 00 00 00 00 00 00 00 00 00 00 00 00 	0000000000000000
  0x40e0	00 00 00 00 00 00 00 00 00 00 00 00 00 00 00 00 	0000000000000000
  0x40f0	00 00 00 00 00 00 00 00 00 00 00 00 00 00 00 00 	0000000000000000
  0x4100	00 00 00 00 00 00 00 00 00 00 00 00 00 00 00 00 	0000000000000000
  0x4110	00 00 00 00 00 00 00 00 e0 43 00 40 01 00 00 00 	000000000C0@0000
  0x4120	03 00 00 00 00 00 00 00 a2 51 00 00 00 00 00 00 	000000000Q000000
  0x4130	ec 50 00 00 00 00 00 00 0c 52 00 00 00 00 00 00 	0P0000000R000000
  0x4140	00 00 00 00 00 00 00 00 c6 50 00 00 00 00 00 00 	000000000P000000
  0x4150	00 00 00 00 00 00 00 00 82 51 00 00 00 00 00 00 	000000000Q000000
  0x4160	52 52 00 00 00 00 00 00 36 53 00 00 00 00 00 00 	RR0000006S000000
  0x4170	00 00 00 00 00 00 00 00 3a 51 00 00 00 00 00 00 	00000000:Q000000
  0x4180	f2 51 00 00 00 00 00 00 00 00 00 00 00 00 00 00 	0Q00000000000000
  0x4190	fe 51 00 00 00 00 00 00 70 52 00 00 00 00 00 00 	0Q000000pR000000
  0x41a0	fe 50 00 00 00 00 00 00 e0 51 00 00 00 00 00 00 	0P0000000Q000000
  0x41b0	00 00 00 00 00 00 00 00 92 51 00 00 00 00 00 00 	000000000Q000000
  0x41c0	00 00 00 00 00 00 00 00 70 51 00 00 00 00 00 00 	00000000pQ000000
  0x41d0	14 51 00 00 00 00 00 00 00 00 00 00 00 00 00 00 	0Q00000000000000
  0x41e0	ae 55 00 00 00 00 00 00 00 00 00 00 00 00 00 00 	0U00000000000000
  0x41f0	52 53 00 00 00 00 00 00 b4 52 00 00 00 00 00 00 	RS0000000R000000
  0x4200	66 53 00 00 00 00 00 00 9e 52 00 00 00 00 00 00 	fS0000000R000000
  0x4210	00 00 00 00 00 00 00 00 84 52 00 00 00 00 00 00 	000000000R000000
  0x4220	00 00 00 00 00 00 00 00 48 51 00 00 00 00 00 00 	00000000HQ000000
  0x4230	b2 50 00 00 00 00 00 00 2a 51 00 00 00 00 00 00 	0P000000*Q000000
  0x4240	1e 52 00 00 00 00 00 00 00 00 00 00 00 00 00 00 	0R00000000000000
  0x4250	08 53 00 00 00 00 00 00 22 53 00 00 00 00 00 00 	0S000000"S000000
  0x4260	f4 52 00 00 00 00 00 00 00 00 00 00 00 00 00 00 	0R00000000000000
  0x4270	5a 51 00 00 00 00 00 00 00 00 00 00 00 00 00 00 	ZQ00000000000000
  0x4280	4a 52 00 00 00 00 00 00 00 00 00 00 00 00 00 00 	JR00000000000000
  0x4290	2c 52 00 00 00 00 00 00 ca 52 00 00 00 00 00 00 	,R0000000R000000
  0x42a0	e4 52 00 00 00 00 00 00 00 00 00 00 00 00 00 00 	0R00000000000000
  0x42b0	ca 51 00 00 00 00 00 00 b8 51 00 00 00 00 00 00 	0Q0000000Q000000
  0x42c0	dc 50 00 00 00 00 00 00 00 00 00 00 00 00 00 00 	0P00000000000000
  0x42d0	08 50 00 00 00 00 00 00 ce 4f 00 00 00 00 00 00 	0P0000000O000000
  0x42e0	d8 4f 00 00 00 00 00 00 80 4f 00 00 00 00 00 00 	0O0000000O000000
  0x42f0	fa 4f 00 00 00 00 00 00 2a 50 00 00 00 00 00 00 	0O000000*P000000
  0x4300	32 50 00 00 00 00 00 00 3a 50 00 00 00 00 00 00 	2P000000:P000000
  0x4310	c4 4f 00 00 00 00 00 00 44 50 00 00 00 00 00 00 	0O000000DP000000
  0x4320	ec 4f 00 00 00 00 00 00 58 50 00 00 00 00 00 00 	0O000000XP000000
  0x4330	b6 4f 00 00 00 00 00 00 18 50 00 00 00 00 00 00 	0O0000000P000000
  0x4340	ae 4f 00 00 00 00 00 00 a4 4f 00 00 00 00 00 00 	0O0000000O000000
  0x4350	96 4f 00 00 00 00 00 00 8a 4f 00 00 00 00 00 00 	0O0000000O000000
  0x4360	e4 4f 00 00 00 00 00 00 9e 50 00 00 00 00 00 00 	0O0000000P000000
  0x4370	86 50 00 00 00 00 00 00 7c 50 00 00 00 00 00 00 	0P000000|P000000
  0x4380	64 50 00 00 00 00 00 00 f2 55 00 00 00 00 00 00 	dP0000000U000000
  0x4390	00 00 00 00 00 00 00 00 60 2f 00 40 01 00 00 00 	00000000`/0@0000
  0x43a0	e0 31 00 40 01 00 00 00 00 00 00 00 00 00 00 00 	010@000000000000
  0x43b0	b0 29 00 40 01 00 00 00 00 00 00 00 00 00 00 00 	0)0@000000000000
  0x43c0	00 00 00 00 00 00 00 00 d0 28 00 40 01 00 00 00 	000000000(0@0000
  0x43d0	90 2c 00 40 01 00 00 00 00 00 00 00 00 00 00 00 	0,0@000000000000
  0x43e0	7b 2b 00 00 02 2d 00 00 10 2e 00 00 d0 28 00 00 	{+000-000.000(00
  0x43f0	b0 29 00 00 d0 2b 00 00 50 2c 00 00 90 2c 00 00 	0)000+00P,000,00
  0x4400	70 2d 00 00 60 2f 00 00 b0 2f 00 00 00 00 00 00 	p-00`/000/000000
  0x4410	00 00 00 00 00 00 00 00 5c 00 53 00 59 00 53 00 	0000000000S0Y0S0
  0x4420	54 00 45 00 4d 00 33 00 32 00 5c 00 49 00 4e 00 	T0E0M0302000I0N0
  0x4430	45 00 54 00 53 00 52 00 56 00 5c 00 69 00 69 00 	E0T0S0R0V000i0i0
  0x4440	73 00 72 00 65 00 73 00 2e 00 64 00 6c 00 6c 00 	s0r0e0s0.0d0l0l0
  0x4450	00 00 00 00 00 00 00 00 20 00 28 00 25 00 75 00 	00000000 0(0%0u0
  0x4460	2c 00 20 00 25 00 78 00 29 00 0a 00 00 00 00 00 	,0 0%0x0)0000000
  0x4470	53 00 59 00 53 00 54 00 45 00 4d 00 5c 00 43 00 	S0Y0S0T0E0M000C0
  0x4480	75 00 72 00 72 00 65 00 6e 00 74 00 43 00 6f 00 	u0r0r0e0n0t0C0o0
  0x4490	6e 00 74 00 72 00 6f 00 6c 00 53 00 65 00 74 00 	n0t0r0o0l0S0e0t0
  0x44a0	5c 00 53 00 65 00 72 00 76 00 69 00 63 00 65 00 	00S0e0r0v0i0c0e0
  0x44b0	73 00 5c 00 49 00 49 00 53 00 41 00 44 00 4d 00 	s000I0I0S0A0D0M0
  0x44c0	49 00 4e 00 00 00 00 00 53 00 4f 00 46 00 54 00 	I0N00000S0O0F0T0
  0x44d0	57 00 41 00 52 00 45 00 5c 00 4d 00 69 00 63 00 	W0A0R0E000M0i0c0
  0x44e0	72 00 6f 00 73 00 6f 00 66 00 74 00 5c 00 49 00 	r0o0s0o0f0t000I0
  0x44f0	4e 00 65 00 74 00 53 00 74 00 70 00 00 00 00 00 	N0e0t0S0t0p00000
  0x4500	45 00 6e 00 61 00 62 00 6c 00 65 00 52 00 65 00 	E0n0a0b0l0e0R0e0
  0x4510	73 00 74 00 61 00 72 00 74 00 00 00 00 00 00 00 	s0t0a0r0t0000000
  0x4520	53 00 79 00 73 00 74 00 65 00 6d 00 5c 00 43 00 	S0y0s0t0e0m000C0
  0x4530	75 00 72 00 72 00 65 00 6e 00 74 00 43 00 6f 00 	u0r0r0e0n0t0C0o0
  0x4540	6e 00 74 00 72 00 6f 00 6c 00 53 00 65 00 74 00 	n0t0r0o0l0S0e0t0
  0x4550	5c 00 53 00 65 00 72 00 76 00 69 00 63 00 65 00 	00S0e0r0v0i0c0e0
  0x4560	73 00 5c 00 57 00 33 00 53 00 56 00 43 00 5c 00 	s000W030S0V0C000
  0x4570	50 00 61 00 72 00 61 00 6d 00 65 00 74 00 65 00 	P0a0r0a0m0e0t0e0
  0x4580	72 00 73 00 00 00 00 00 4d 00 61 00 6a 00 6f 00 	r0s00000M0a0j0o0
  0x4590	72 00 56 00 65 00 72 00 73 00 69 00 6f 00 6e 00 	r0V0e0r0s0i0o0n0
  0x45a0	00 00 00 00 00 00 00 00 41 00 44 00 56 00 41 00 	00000000A0D0V0A0
  0x45b0	50 00 49 00 33 00 32 00 2e 00 44 00 4c 00 4c 00 	P0I03020.0D0L0L0
  0x45c0	00 00 00 00 00 00 00 00 43 68 61 6e 67 65 53 65 	00000000ChangeSe
  0x45d0	72 76 69 63 65 43 6f 6e 66 69 67 32 57 00 00 00 	rviceConfig2W000
  0x45e0	22 00 25 00 73 00 22 00 20 00 2f 00 73 00 74 00 	"0%0s0"0 0/0s0t0
  0x45f0	61 00 72 00 74 00 20 00 2f 00 66 00 61 00 69 00 	a0r0t0 0/0f0a0i0
  0x4600	6c 00 3d 00 25 00 25 00 31 00 25 00 25 00 00 00 	l0=0%0%010%0%000
  0x4610	22 00 25 00 73 00 22 00 20 00 2f 00 66 00 61 00 	"0%0s0"0 0/0f0a0
  0x4620	69 00 6c 00 3d 00 25 00 25 00 31 00 25 00 25 00 	i0l0=0%0%010%0%0
  0x4630	00 00 00 00 00 00 00 00 49 00 49 00 53 00 41 00 	00000000I0I0S0A0
  0x4640	44 00 4d 00 49 00 4e 00 00 00 00 00 00 00 00 00 	D0M0I0N000000000
  0x4650	57 00 33 00 53 00 56 00 43 00 00 00 00 00 00 00 	W030S0V0C0000000
  0x4660	2e 00 4f 00 43 00 50 00 00 00 00 00 00 00 00 00 	.0O0C0P000000000
  0x4670	2e 00 25 00 64 00 00 00 0a 00 00 00 45 4e 41 42 	.0%0d0000000ENAB
  0x4680	4c 45 00 00 00 00 00 00 44 49 53 41 42 4c 45 00 	LE000000DISABLE0
  0x4690	53 43 4d 00 4e 4f 53 43 4d 00 00 00 00 00 00 00 	SCM0NOSCM0000000
  0x46a0	53 54 4f 50 54 49 4d 45 4f 55 54 3a 00 00 00 00 	STOPTIMEOUT:0000
  0x46b0	54 49 4d 45 4f 55 54 3a 00 00 00 00 00 00 00 00 	TIMEOUT:00000000
  0x46c0	53 54 41 52 54 54 49 4d 45 4f 55 54 3a 00 00 00 	STARTTIMEOUT:000
  0x46d0	52 45 53 54 41 52 54 54 49 4d 45 4f 55 54 3a 00 	RESTARTTIMEOUT:0
  0x46e0	66 61 69 6c 3d 00 00 00 53 54 41 52 54 00 00 00 	fail=000START000
  0x46f0	53 54 4f 50 00 00 00 00 52 45 42 4f 4f 54 00 00 	STOP0000REBOOT00
  0x4700	4b 49 4c 4c 00 00 00 00 52 45 53 54 41 52 54 00 	KILL0000RESTART0
  0x4710	53 54 41 54 55 53 00 00 52 45 42 4f 4f 54 4f 4e 	STATUS00REBOOTON
  0x4720	45 52 52 4f 52 00 00 00 4e 4f 46 4f 52 43 45 00 	ERROR000NOFORCE0
  0x4730	48 45 4c 50 00 00 00 00 21 86 fb e8 8f 58 d2 11 	HELP0000!0000X00
  0x4740	9d 61 00 c0 4f 79 c5 fe 20 86 fb e8 8f 58 d2 11 	0a00Oy00 0000X00
  0x4750	9d 61 00 c0 4f 79 c5 fe 00 00 00 00 00 00 00 00 	0a00Oy0000000000
  0x4760	00 00 00 00 06 57 3e 51 00 00 00 00 02 00 00 00 	00000W>Q00000000
  0x4770	25 00 00 00 b4 47 00 00 b4 2f 00 00 00 00 00 00 	%0000G000/000000
  0x4780	06 57 3e 51 00 00 00 00 0d 00 00 00 04 02 00 00 	0W>Q000000000000
  0x4790	dc 47 00 00 dc 2f 00 00 00 00 00 00 06 57 3e 51 	0G000/0000000W>Q
  0x47a0	00 00 00 00 10 00 00 00 24 00 00 00 e0 49 00 00 	00000000$0000I00
  0x47b0	e0 31 00 00 52 53 44 53 f1 59 6b dd 5a 86 cc 4e 	0100RSDS0Yk0Z00N
  0x47c0	63 d6 22 fa b2 ad d8 40 01 00 00 00 69 69 73 72 	c0"0000@0000iisr
  0x47d0	65 73 65 74 2e 70 64 62 00 00 00 00 47 43 54 4c 	eset.pdb0000GCTL
  0x47e0	00 10 00 00 d0 21 00 00 2e 74 65 78 74 24 6d 6e 	00000!00.text$mn
  0x47f0	00 00 00 00 d0 31 00 00 80 00 00 00 2e 74 65 78 	000001000000.tex
  0x4800	74 24 6d 6e 24 30 30 00 50 32 00 00 50 00 00 00 	t$mn$000P200P000
  0x4810	2e 74 65 78 74 24 78 00 00 40 00 00 28 01 00 00 	.text$x00@00(000
  0x4820	2e 72 64 61 74 61 24 62 72 63 00 00 28 41 00 00 	.rdata$brc00(A00
  0x4830	70 02 00 00 2e 69 64 61 74 61 24 35 00 00 00 00 	p000.idata$50000
  0x4840	98 43 00 00 10 00 00 00 2e 30 30 63 66 67 00 00 	0C000000.00cfg00
  0x4850	a8 43 00 00 08 00 00 00 2e 43 52 54 24 58 43 41 	0C000000.CRT$XCA
  0x4860	00 00 00 00 b0 43 00 00 08 00 00 00 2e 43 52 54 	00000C000000.CRT
  0x4870	24 58 43 41 41 00 00 00 b8 43 00 00 08 00 00 00 	$XCAA0000C000000
  0x4880	2e 43 52 54 24 58 43 5a 00 00 00 00 c0 43 00 00 	.CRT$XCZ00000C00
  0x4890	08 00 00 00 2e 43 52 54 24 58 49 41 00 00 00 00 	0000.CRT$XIA0000
  0x48a0	c8 43 00 00 08 00 00 00 2e 43 52 54 24 58 49 41 	0C000000.CRT$XIA
  0x48b0	41 00 00 00 d0 43 00 00 08 00 00 00 2e 43 52 54 	A0000C000000.CRT
  0x48c0	24 58 49 59 00 00 00 00 d8 43 00 00 08 00 00 00 	$XIY00000C000000
  0x48d0	2e 43 52 54 24 58 49 5a 00 00 00 00 e0 43 00 00 	.CRT$XIZ00000C00
  0x48e0	0c 00 00 00 2e 67 65 68 63 6f 6e 74 00 00 00 00 	0000.gehcont0000
  0x48f0	ec 43 00 00 24 00 00 00 2e 67 66 69 64 73 00 00 	0C00$000.gfids00
  0x4900	10 44 00 00 a4 03 00 00 2e 72 64 61 74 61 00 00 	0D000000.rdata00
  0x4910	b4 47 00 00 54 02 00 00 2e 72 64 61 74 61 24 7a 	0G00T000.rdata$z
  0x4920	7a 7a 64 62 67 00 00 00 08 4a 00 00 9c 01 00 00 	zzdbg0000J000000
  0x4930	2e 78 64 61 74 61 00 00 a4 4b 00 00 54 01 00 00 	.xdata000K00T000
  0x4940	2e 69 64 61 74 61 24 32 00 00 00 00 f8 4c 00 00 	.idata$200000L00
  0x4950	18 00 00 00 2e 69 64 61 74 61 24 33 00 00 00 00 	0000.idata$30000
  0x4960	10 4d 00 00 70 02 00 00 2e 69 64 61 74 61 24 34 	0M00p000.idata$4
  0x4970	00 00 00 00 80 4f 00 00 7c 06 00 00 2e 69 64 61 	00000O00|000.ida
  0x4980	74 61 24 36 00 00 00 00 00 60 00 00 40 00 00 00 	ta$600000`00@000
  0x4990	2e 64 61 74 61 00 00 00 40 60 00 00 60 06 00 00 	.data000@`00`000
  0x49a0	2e 62 73 73 00 00 00 00 00 70 00 00 74 01 00 00 	.bss00000p00t000
  0x49b0	2e 70 64 61 74 61 00 00 00 80 00 00 a0 00 00 00 	.pdata0000000000
  0x49c0	2e 72 73 72 63 24 30 31 00 00 00 00 a0 80 00 00 	.rsrc$0100000000
  0x49d0	58 06 00 00 2e 72 73 72 63 24 30 32 00 00 00 00 	X000.rsrc$020000
  0x49e0	20 00 00 00 f1 59 6b dd 5a 86 cc 4e 63 d6 22 fa 	 0000Yk0Z00Nc0"0
  0x49f0	b2 ad d8 40 d9 f3 e4 de f3 38 84 2c c5 70 46 ca 	000@0000080,0pF0
  0x4a00	06 57 3e 51 00 00 00 00 19 2e 0b 00 1c 74 55 00 	0W>Q00000.000tU0
  0x4a10	1c 64 54 00 1c 54 53 00 1c 34 52 00 1c 01 50 00 	0dT00TS004R000P0
  0x4a20	15 e0 00 00 38 31 00 00 70 02 00 00 01 06 02 00 	00008100p0000000
  0x4a30	06 72 02 30 01 04 01 00 04 82 00 00 19 1b 03 00 	0r00000000000000
  0x4a40	09 01 28 00 02 30 00 00 38 31 00 00 30 01 00 00 	00(0000081000000
  0x4a50	01 15 09 00 15 62 11 f0 0f e0 0d d0 0b c0 09 70 	00000b000000000p
  0x4a60	08 60 07 50 06 30 00 00 01 09 02 00 09 52 05 30 	0`0P000000000R00
  0x4a70	01 0a 04 00 0a 34 06 00 0a 32 06 70 01 0a 03 00 	00000400020p0000
  0x4a80	0a 62 03 30 02 50 00 00 19 37 0d 00 26 74 a4 00 	0b000P000700&t00
  0x4a90	26 64 a3 00 26 34 a2 00 26 01 9c 00 18 f0 16 e0 	&d00&400&0000000
  0x4aa0	14 d0 12 c0 10 50 00 00 38 31 00 00 d0 04 00 00 	00000P0081000000
  0x4ab0	19 3d 0d 00 2c 74 3d 04 2c 64 3c 04 2c 34 3a 04 	0=00,t=0,d<0,4:0
  0x4ac0	2c 01 34 04 18 f0 16 e0 14 d0 12 c0 10 50 00 00 	,040000000000P00
  0x4ad0	38 31 00 00 90 21 00 00 01 04 01 00 04 42 00 00 	81000!0000000B00
  0x4ae0	01 04 01 00 04 62 00 00 09 15 08 00 15 74 0a 00 	00000b0000000t00
  0x4af0	15 64 09 00 15 34 08 00 15 52 11 f0 4a 2f 00 00 	0d0004000R00J/00
  0x4b00	01 00 00 00 15 2a 00 00 7b 2b 00 00 53 32 00 00 	00000*00{+00S200
  0x4b10	7b 2b 00 00 01 06 02 00 06 32 02 50 00 00 00 00 	{+000000020P0000
  0x4b20	01 00 00 00 09 04 01 00 04 22 00 00 4a 2f 00 00 	000000000"00J/00
  0x4b30	01 00 00 00 cc 2c 00 00 02 2d 00 00 01 00 00 00 	00000,000-000000
  0x4b40	02 2d 00 00 01 06 02 00 06 32 02 30 09 0a 04 00 	0-00000002000000
  0x4b50	0a 34 06 00 0a 32 06 70 4a 2f 00 00 01 00 00 00 	0400020pJ/000000
  0x4b60	dd 2d 00 00 10 2e 00 00 80 32 00 00 10 2e 00 00 	0-000.0002000.00
  0x4b70	01 0d 04 00 0d 34 09 00 0d 32 06 50 01 0c 02 00 	00000400020P0000
  0x4b80	0c 01 11 00 00 00 00 00 01 00 00 00 01 02 01 00 	0000000000000000
  0x4b90	02 30 00 00 00 00 00 00 02 04 03 00 01 16 00 06 	0000000000000000
  0x4ba0	04 12 00 00 b8 4e 00 00 00 00 00 00 00 00 00 00 	00000N0000000000
  0x4bb0	92 50 00 00 d0 42 00 00 10 4e 00 00 00 00 00 00 	0P000B000N000000
  0x4bc0	00 00 00 00 7a 53 00 00 28 42 00 00 30 4d 00 00 	0000zS00(B000M00
  0x4bd0	00 00 00 00 00 00 00 00 9e 53 00 00 48 41 00 00 	000000000S00HA00
  0x4be0	98 4e 00 00 00 00 00 00 00 00 00 00 c2 53 00 00 	0N00000000000S00
  0x4bf0	b0 42 00 00 10 4d 00 00 00 00 00 00 00 00 00 00 	0B000M0000000000
  0x4c00	ec 53 00 00 28 41 00 00 78 4d 00 00 00 00 00 00 	0S00(A00xM000000
  0x4c10	00 00 00 00 0c 54 00 00 90 41 00 00 b0 4d 00 00 	00000T000A000M00
  0x4c20	00 00 00 00 00 00 00 00 36 54 00 00 c8 41 00 00 	000000006T000A00
  0x4c30	60 4d 00 00 00 00 00 00 00 00 00 00 5e 54 00 00 	`M0000000000^T00
  0x4c40	78 41 00 00 58 4e 00 00 00 00 00 00 00 00 00 00 	xA00XN0000000000
  0x4c50	7e 54 00 00 70 42 00 00 40 4d 00 00 00 00 00 00 	~T00pB00@M000000
  0x4c60	00 00 00 00 a0 54 00 00 58 41 00 00 a0 4d 00 00 	00000T00XA000M00
  0x4c70	00 00 00 00 00 00 00 00 ca 54 00 00 b8 41 00 00 	000000000T000A00
  0x4c80	78 4e 00 00 00 00 00 00 00 00 00 00 f4 54 00 00 	xN00000000000T00
  0x4c90	90 42 00 00 68 4e 00 00 00 00 00 00 00 00 00 00 	0B00hN0000000000
  0x4ca0	18 55 00 00 80 42 00 00 00 4e 00 00 00 00 00 00 	0U000B000N000000
  0x4cb0	00 00 00 00 3a 55 00 00 18 42 00 00 d8 4d 00 00 	0000:U000B000M00
  0x4cc0	00 00 00 00 00 00 00 00 5e 55 00 00 f0 41 00 00 	00000000^U000A00
  0x4cd0	38 4e 00 00 00 00 00 00 00 00 00 00 88 55 00 00 	8N00000000000U00
  0x4ce0	50 42 00 00 c8 4d 00 00 00 00 00 00 00 00 00 00 	PB000M0000000000
  0x4cf0	c0 55 00 00 e0 41 00 00 00 00 00 00 00 00 00 00 	0U000A0000000000
  0x4d00	00 00 00 00 00 00 00 00 00 00 00 00 00 00 00 00 	0000000000000000
  0x4d10	a2 51 00 00 00 00 00 00 ec 50 00 00 00 00 00 00 	0Q0000000P000000
  0x4d20	0c 52 00 00 00 00 00 00 00 00 00 00 00 00 00 00 	0R00000000000000
  0x4d30	c6 50 00 00 00 00 00 00 00 00 00 00 00 00 00 00 	0P00000000000000
  0x4d40	82 51 00 00 00 00 00 00 52 52 00 00 00 00 00 00 	0Q000000RR000000
  0x4d50	36 53 00 00 00 00 00 00 00 00 00 00 00 00 00 00 	6S00000000000000
  0x4d60	3a 51 00 00 00 00 00 00 f2 51 00 00 00 00 00 00 	:Q0000000Q000000
  0x4d70	00 00 00 00 00 00 00 00 fe 51 00 00 00 00 00 00 	000000000Q000000
  0x4d80	70 52 00 00 00 00 00 00 fe 50 00 00 00 00 00 00 	pR0000000P000000
  0x4d90	e0 51 00 00 00 00 00 00 00 00 00 00 00 00 00 00 	0Q00000000000000
  0x4da0	92 51 00 00 00 00 00 00 00 00 00 00 00 00 00 00 	0Q00000000000000
  0x4db0	70 51 00 00 00 00 00 00 14 51 00 00 00 00 00 00 	pQ0000000Q000000
  0x4dc0	00 00 00 00 00 00 00 00 ae 55 00 00 00 00 00 00 	000000000U000000
  0x4dd0	00 00 00 00 00 00 00 00 52 53 00 00 00 00 00 00 	00000000RS000000
  0x4de0	b4 52 00 00 00 00 00 00 66 53 00 00 00 00 00 00 	0R000000fS000000
  0x4df0	9e 52 00 00 00 00 00 00 00 00 00 00 00 00 00 00 	0R00000000000000
  0x4e00	84 52 00 00 00 00 00 00 00 00 00 00 00 00 00 00 	0R00000000000000
  0x4e10	48 51 00 00 00 00 00 00 b2 50 00 00 00 00 00 00 	HQ0000000P000000
  0x4e20	2a 51 00 00 00 00 00 00 1e 52 00 00 00 00 00 00 	*Q0000000R000000
  0x4e30	00 00 00 00 00 00 00 00 08 53 00 00 00 00 00 00 	000000000S000000
  0x4e40	22 53 00 00 00 00 00 00 f4 52 00 00 00 00 00 00 	"S0000000R000000
  0x4e50	00 00 00 00 00 00 00 00 5a 51 00 00 00 00 00 00 	00000000ZQ000000
  0x4e60	00 00 00 00 00 00 00 00 4a 52 00 00 00 00 00 00 	00000000JR000000
  0x4e70	00 00 00 00 00 00 00 00 2c 52 00 00 00 00 00 00 	00000000,R000000
  0x4e80	ca 52 00 00 00 00 00 00 e4 52 00 00 00 00 00 00 	0R0000000R000000
  0x4e90	00 00 00 00 00 00 00 00 ca 51 00 00 00 00 00 00 	000000000Q000000
  0x4ea0	b8 51 00 00 00 00 00 00 dc 50 00 00 00 00 00 00 	0Q0000000P000000
  0x4eb0	00 00 00 00 00 00 00 00 08 50 00 00 00 00 00 00 	000000000P000000
  0x4ec0	ce 4f 00 00 00 00 00 00 d8 4f 00 00 00 00 00 00 	0O0000000O000000
  0x4ed0	80 4f 00 00 00 00 00 00 fa 4f 00 00 00 00 00 00 	0O0000000O000000
  0x4ee0	2a 50 00 00 00 00 00 00 32 50 00 00 00 00 00 00 	*P0000002P000000
  0x4ef0	3a 50 00 00 00 00 00 00 c4 4f 00 00 00 00 00 00 	:P0000000O000000
  0x4f00	44 50 00 00 00 00 00 00 ec 4f 00 00 00 00 00 00 	DP0000000O000000
  0x4f10	58 50 00 00 00 00 00 00 b6 4f 00 00 00 00 00 00 	XP0000000O000000
  0x4f20	18 50 00 00 00 00 00 00 ae 4f 00 00 00 00 00 00 	0P0000000O000000
  0x4f30	a4 4f 00 00 00 00 00 00 96 4f 00 00 00 00 00 00 	0O0000000O000000
  0x4f40	8a 4f 00 00 00 00 00 00 e4 4f 00 00 00 00 00 00 	0O0000000O000000
  0x4f50	9e 50 00 00 00 00 00 00 86 50 00 00 00 00 00 00 	0P0000000P000000
  0x4f60	7c 50 00 00 00 00 00 00 64 50 00 00 00 00 00 00 	|P000000dP000000
  0x4f70	f2 55 00 00 00 00 00 00 00 00 00 00 00 00 00 00 	0U00000000000000
  0x4f80	20 05 77 70 72 69 6e 74 66 00 04 03 5f 73 74 72 	 0wprintf000_str
  0x4f90	6e 69 63 6d 70 00 dc 04 73 77 70 72 69 6e 74 66 	nicmp000swprintf
  0x4fa0	5f 73 00 00 01 05 77 63 73 63 68 72 00 00 20 04 	_s0000wcschr00 0
  0x4fb0	61 74 6f 69 00 00 ea 03 5f 77 73 65 74 6c 6f 63 	atoi0000_wsetloc
  0x4fc0	61 6c 65 00 66 04 69 73 64 69 67 69 74 00 86 04 	ale0f0isdigit000
  0x4fd0	6d 61 6c 6c 6f 63 00 00 bf 00 5f 63 61 6c 6c 6e 	malloc0000_calln
  0x4fe0	65 77 68 00 4c 04 66 72 65 65 00 00 55 00 5f 58 	ewh0L0free00U0_X
  0x4ff0	63 70 74 46 69 6c 74 65 72 00 ae 00 5f 61 6d 73 	cptFilter000_ams
  0x5000	67 5f 65 78 69 74 00 00 7f 00 5f 5f 67 65 74 6d 	g_exit0000__getm
  0x5010	61 69 6e 61 72 67 73 00 8e 00 5f 5f 73 65 74 5f 	ainargs000__set_
  0x5020	61 70 70 5f 74 79 70 65 00 00 32 04 65 78 69 74 	app_type0020exit
  0x5030	00 00 0e 01 5f 65 78 69 74 00 c1 00 5f 63 65 78 	0000_exit000_cex
  0x5040	69 74 00 00 90 00 5f 5f 73 65 74 75 73 65 72 6d 	it0000__setuserm
  0x5050	61 74 68 65 72 72 00 00 7d 01 5f 69 6e 69 74 74 	atherr00}0_initt
  0x5060	65 72 6d 00 57 00 5f 5f 43 5f 73 70 65 63 69 66 	erm0W0__C_specif
  0x5070	69 63 5f 68 61 6e 64 6c 65 72 00 00 27 01 5f 66 	ic_handler00'0_f
  0x5080	6d 6f 64 65 00 00 d2 00 5f 63 6f 6d 6d 6f 64 65 	mode0000_commode
  0x5090	00 00 6d 73 76 63 72 74 2e 64 6c 6c 00 00 2f 00 	00msvcrt.dll00/0
  0x50a0	3f 74 65 72 6d 69 6e 61 74 65 40 40 59 41 58 58 	?terminate@@YAXX
  0x50b0	5a 00 25 00 52 65 67 51 75 65 72 79 56 61 6c 75 	Z0%0RegQueryValu
  0x50c0	65 45 78 57 00 00 07 00 47 65 74 43 6f 6e 73 6f 	eExW0000GetConso
  0x50d0	6c 65 4f 75 74 70 75 74 43 50 00 00 05 00 4f 70 	leOutputCP0000Op
  0x50e0	65 6e 53 65 72 76 69 63 65 57 00 00 46 00 43 6f 	enServiceW00F0Co
  0x50f0	55 6e 69 6e 69 74 69 61 6c 69 7a 65 00 00 10 00 	Uninitialize0000
  0x5100	47 65 74 4d 6f 64 75 6c 65 46 69 6c 65 4e 61 6d 	GetModuleFileNam
  0x5110	65 57 00 00 3f 00 53 65 74 54 68 72 65 61 64 55 	eW00?0SetThreadU
  0x5120	49 4c 61 6e 67 75 61 67 65 00 1e 00 52 65 67 4f 	ILanguage000RegO
  0x5130	70 65 6e 4b 65 79 45 78 57 00 02 00 4c 6f 63 61 	penKeyExW000Loca
  0x5140	6c 41 6c 6c 6f 63 00 00 2e 00 52 65 67 53 65 74 	lAlloc00.0RegSet
  0x5150	56 61 6c 75 65 45 78 57 00 00 06 00 4d 75 6c 74 	ValueExW0000Mult
  0x5160	69 42 79 74 65 54 6f 57 69 64 65 43 68 61 72 00 	iByteToWideChar0
  0x5170	09 00 46 6f 72 6d 61 74 4d 65 73 73 61 67 65 57 	00FormatMessageW
  0x5180	00 00 05 00 47 65 74 4c 61 73 74 45 72 72 6f 72 	0000GetLastError
  0x5190	00 00 19 00 4c 6f 61 64 4c 69 62 72 61 72 79 57 	0000LoadLibraryW
  0x51a0	00 00 0a 00 43 6f 43 72 65 61 74 65 49 6e 73 74 	0000CoCreateInst
  0x51b0	61 6e 63 65 45 78 00 00 04 00 4f 70 65 6e 53 43 	anceEx0000OpenSC
  0x51c0	4d 61 6e 61 67 65 72 57 00 00 00 00 43 6c 6f 73 	ManagerW0000Clos
  0x51d0	65 53 65 72 76 69 63 65 48 61 6e 64 6c 65 00 00 	eServiceHandle00
  0x51e0	15 00 47 65 74 50 72 6f 63 41 64 64 72 65 73 73 	00GetProcAddress
  0x51f0	00 00 03 00 4c 6f 63 61 6c 46 72 65 65 00 0c 00 	0000LocalFree000
  0x5200	46 72 65 65 4c 69 62 72 61 72 79 00 28 00 43 6f 	FreeLibrary0(0Co
  0x5210	49 6e 69 74 69 61 6c 69 7a 65 45 78 00 00 00 00 	InitializeEx0000
  0x5220	52 65 67 43 6c 6f 73 65 4b 65 79 00 19 00 47 65 	RegCloseKey000Ge
  0x5230	74 53 79 73 74 65 6d 57 69 6e 64 6f 77 73 44 69 	tSystemWindowsDi
  0x5240	72 65 63 74 6f 72 79 57 00 00 2d 00 53 6c 65 65 	rectoryW00-0Slee
  0x5250	70 00 0f 00 53 65 74 55 6e 68 61 6e 64 6c 65 64 	p000SetUnhandled
  0x5260	45 78 63 65 70 74 69 6f 6e 46 69 6c 74 65 72 00 	ExceptionFilter0
  0x5270	14 00 47 65 74 4d 6f 64 75 6c 65 48 61 6e 64 6c 	00GetModuleHandl
  0x5280	65 57 00 00 00 00 51 75 65 72 79 50 65 72 66 6f 	eW0000QueryPerfo
  0x5290	72 6d 61 6e 63 65 43 6f 75 6e 74 65 72 00 0d 00 	rmanceCounter000
  0x52a0	47 65 74 43 75 72 72 65 6e 74 50 72 6f 63 65 73 	GetCurrentProces
  0x52b0	73 49 64 00 11 00 47 65 74 43 75 72 72 65 6e 74 	sId000GetCurrent
  0x52c0	54 68 72 65 61 64 49 64 00 00 16 00 47 65 74 53 	ThreadId0000GetS
  0x52d0	79 73 74 65 6d 54 69 6d 65 41 73 46 69 6c 65 54 	ystemTimeAsFileT
  0x52e0	69 6d 65 00 1a 00 47 65 74 54 69 63 6b 43 6f 75 	ime000GetTickCou
  0x52f0	6e 74 00 00 02 00 52 74 6c 43 61 70 74 75 72 65 	nt0000RtlCapture
  0x5300	43 6f 6e 74 65 78 74 00 0a 00 52 74 6c 4c 6f 6f 	Context000RtlLoo
  0x5310	6b 75 70 46 75 6e 63 74 69 6f 6e 45 6e 74 72 79 	kupFunctionEntry
  0x5320	00 00 10 00 52 74 6c 56 69 72 74 75 61 6c 55 6e 	0000RtlVirtualUn
  0x5330	77 69 6e 64 00 00 11 00 55 6e 68 61 6e 64 6c 65 	wind0000Unhandle
  0x5340	64 45 78 63 65 70 74 69 6f 6e 46 69 6c 74 65 72 	dExceptionFilter
  0x5350	00 00 0c 00 47 65 74 43 75 72 72 65 6e 74 50 72 	0000GetCurrentPr
  0x5360	6f 63 65 73 73 00 4f 00 54 65 72 6d 69 6e 61 74 	ocess0O0Terminat
  0x5370	65 50 72 6f 63 65 73 73 00 00 61 70 69 2d 6d 73 	eProcess00api-ms
  0x5380	2d 77 69 6e 2d 63 6f 72 65 2d 72 65 67 69 73 74 	-win-core-regist
  0x5390	72 79 2d 6c 31 2d 31 2d 30 2e 64 6c 6c 00 61 70 	ry-l1-1-0.dll0ap
  0x53a0	69 2d 6d 73 2d 77 69 6e 2d 63 6f 72 65 2d 63 6f 	i-ms-win-core-co
  0x53b0	6e 73 6f 6c 65 2d 6c 31 2d 31 2d 30 2e 64 6c 6c 	nsole-l1-1-0.dll
  0x53c0	00 00 61 70 69 2d 6d 73 2d 77 69 6e 2d 73 65 72 	00api-ms-win-ser
  0x53d0	76 69 63 65 2d 6d 61 6e 61 67 65 6d 65 6e 74 2d 	vice-management-
  0x53e0	6c 31 2d 31 2d 30 2e 64 6c 6c 00 00 61 70 69 2d 	l1-1-0.dll00api-
  0x53f0	6d 73 2d 77 69 6e 2d 63 6f 72 65 2d 63 6f 6d 2d 	ms-win-core-com-
  0x5400	6c 31 2d 31 2d 30 2e 64 6c 6c 00 00 61 70 69 2d 	l1-1-0.dll00api-
  0x5410	6d 73 2d 77 69 6e 2d 63 6f 72 65 2d 6c 69 62 72 	ms-win-core-libr
  0x5420	61 72 79 6c 6f 61 64 65 72 2d 6c 31 2d 32 2d 30 	aryloader-l1-2-0
  0x5430	2e 64 6c 6c 00 00 61 70 69 2d 6d 73 2d 77 69 6e 	.dll00api-ms-win
  0x5440	2d 63 6f 72 65 2d 6c 6f 63 61 6c 69 7a 61 74 69 	-core-localizati
  0x5450	6f 6e 2d 6c 31 2d 32 2d 30 2e 64 6c 6c 00 61 70 	on-l1-2-0.dll0ap
  0x5460	69 2d 6d 73 2d 77 69 6e 2d 63 6f 72 65 2d 68 65 	i-ms-win-core-he
  0x5470	61 70 2d 6c 32 2d 31 2d 30 2e 64 6c 6c 00 61 70 	ap-l2-1-0.dll0ap
  0x5480	69 2d 6d 73 2d 77 69 6e 2d 63 6f 72 65 2d 73 74 	i-ms-win-core-st
  0x5490	72 69 6e 67 2d 6c 31 2d 31 2d 30 2e 64 6c 6c 00 	ring-l1-1-0.dll0
  0x54a0	61 70 69 2d 6d 73 2d 77 69 6e 2d 63 6f 72 65 2d 	api-ms-win-core-
  0x54b0	65 72 72 6f 72 68 61 6e 64 6c 69 6e 67 2d 6c 31 	errorhandling-l1
  0x54c0	2d 31 2d 30 2e 64 6c 6c 00 00 61 70 69 2d 6d 73 	-1-0.dll00api-ms
  0x54d0	2d 77 69 6e 2d 63 6f 72 65 2d 6c 69 62 72 61 72 	-win-core-librar
  0x54e0	79 6c 6f 61 64 65 72 2d 6c 31 2d 32 2d 31 2e 64 	yloader-l1-2-1.d
  0x54f0	6c 6c 00 00 61 70 69 2d 6d 73 2d 77 69 6e 2d 63 	ll00api-ms-win-c
  0x5500	6f 72 65 2d 73 79 73 69 6e 66 6f 2d 6c 31 2d 31 	ore-sysinfo-l1-1
  0x5510	2d 30 2e 64 6c 6c 00 00 61 70 69 2d 6d 73 2d 77 	-0.dll00api-ms-w
  0x5520	69 6e 2d 63 6f 72 65 2d 73 79 6e 63 68 2d 6c 31 	in-core-synch-l1
  0x5530	2d 32 2d 30 2e 64 6c 6c 00 00 61 70 69 2d 6d 73 	-2-0.dll00api-ms
  0x5540	2d 77 69 6e 2d 63 6f 72 65 2d 70 72 6f 66 69 6c 	-win-core-profil
  0x5550	65 2d 6c 31 2d 31 2d 30 2e 64 6c 6c 00 00 61 70 	e-l1-1-0.dll00ap
  0x5560	69 2d 6d 73 2d 77 69 6e 2d 63 6f 72 65 2d 70 72 	i-ms-win-core-pr
  0x5570	6f 63 65 73 73 74 68 72 65 61 64 73 2d 6c 31 2d 	ocessthreads-l1-
  0x5580	31 2d 30 2e 64 6c 6c 00 61 70 69 2d 6d 73 2d 77 	1-0.dll0api-ms-w
  0x5590	69 6e 2d 63 6f 72 65 2d 72 74 6c 73 75 70 70 6f 	in-core-rtlsuppo
  0x55a0	72 74 2d 6c 31 2d 31 2d 30 2e 64 6c 6c 00 00 00 	rt-l1-1-0.dll000
  0x55b0	43 6f 6d 70 61 72 65 53 74 72 69 6e 67 41 00 00 	CompareStringA00
  0x55c0	61 70 69 2d 6d 73 2d 77 69 6e 2d 63 6f 72 65 2d 	api-ms-win-core-
  0x55d0	6c 6f 63 61 6c 69 7a 61 74 69 6f 6e 2d 6f 62 73 	localization-obs
  0x55e0	6f 6c 65 74 65 2d 6c 31 2d 32 2d 30 2e 64 6c 6c 	olete-l1-2-0.dll
  0x55f0	00 00 92 04 6d 65 6d 63 70 79 00 00 00 00 00 00 	0000memcpy000000
=== DATA BLOCK END ===

=== DATA BLOCK ADDRESS 0x6000 ===
  0x6000	01 00 00 00 00 00 00 00 32 a2 df 2d 99 2b 00 00 	00000000200-0+00
  0x6010	cd 5d 20 d2 66 d4 ff ff 00 00 00 00 00 00 00 00 	0] 0f00000000000
  0x6020	00 00 00 00 00 00 00 00 00 00 00 00 00 00 00 00 	0000000000000000
  0x6030	00 00 00 00 00 00 00 00 00 00 00 00 00 00 00 00 	0000000000000000
  0x6040	00 00 00 00 00 00 00 00 00 00 00 00 00 00 00 00 	0000000000000000
  0x6050	00 00 00 00 00 00 00 00 00 00 00 00 00 00 00 00 	0000000000000000
  0x6060	00 00 00 00 00 00 00 00 00 00 00 00 00 00 00 00 	0000000000000000
  0x6070	00 00 00 00 00 00 00 00 00 00 00 00 00 00 00 00 	0000000000000000
  0x6080	00 00 00 00 00 00 00 00 00 00 00 00 00 00 00 00 	0000000000000000
  0x6090	00 00 00 00 00 00 00 00 00 00 00 00 00 00 00 00 	0000000000000000
  0x60a0	00 00 00 00 00 00 00 00 00 00 00 00 00 00 00 00 	0000000000000000
  0x60b0	00 00 00 00 00 00 00 00 00 00 00 00 00 00 00 00 	0000000000000000
  0x60c0	00 00 00 00 00 00 00 00 00 00 00 00 00 00 00 00 	0000000000000000
  0x60d0	00 00 00 00 00 00 00 00 00 00 00 00 00 00 00 00 	0000000000000000
  0x60e0	00 00 00 00 00 00 00 00 00 00 00 00 00 00 00 00 	0000000000000000
  0x60f0	00 00 00 00 00 00 00 00 00 00 00 00 00 00 00 00 	0000000000000000
  0x6100	00 00 00 00 00 00 00 00 00 00 00 00 00 00 00 00 	0000000000000000
  0x6110	00 00 00 00 00 00 00 00 00 00 00 00 00 00 00 00 	0000000000000000
  0x6120	00 00 00 00 00 00 00 00 00 00 00 00 00 00 00 00 	0000000000000000
  0x6130	00 00 00 00 00 00 00 00 00 00 00 00 00 00 00 00 	0000000000000000
  0x6140	00 00 00 00 00 00 00 00 00 00 00 00 00 00 00 00 	0000000000000000
  0x6150	00 00 00 00 00 00 00 00 00 00 00 00 00 00 00 00 	0000000000000000
  0x6160	00 00 00 00 00 00 00 00 00 00 00 00 00 00 00 00 	0000000000000000
  0x6170	00 00 00 00 00 00 00 00 00 00 00 00 00 00 00 00 	0000000000000000
  0x6180	00 00 00 00 00 00 00 00 00 00 00 00 00 00 00 00 	0000000000000000
  0x6190	00 00 00 00 00 00 00 00 00 00 00 00 00 00 00 00 	0000000000000000
  0x61a0	00 00 00 00 00 00 00 00 00 00 00 00 00 00 00 00 	0000000000000000
  0x61b0	00 00 00 00 00 00 00 00 00 00 00 00 00 00 00 00 	0000000000000000
  0x61c0	00 00 00 00 00 00 00 00 00 00 00 00 00 00 00 00 	0000000000000000
  0x61d0	00 00 00 00 00 00 00 00 00 00 00 00 00 00 00 00 	0000000000000000
  0x61e0	00 00 00 00 00 00 00 00 00 00 00 00 00 00 00 00 	0000000000000000
  0x61f0	00 00 00 00 00 00 00 00 00 00 00 00 00 00 00 00 	0000000000000000
=== DATA BLOCK END ===

=== DATA BLOCK ADDRESS 0x7000 ===
  0x7000	08 10 00 00 fe 11 00 00 08 4a 00 00 04 12 00 00 	000000000J000000
  0x7010	84 12 00 00 2c 4a 00 00 8c 12 00 00 ed 12 00 00 	0000,J0000000000
  0x7020	34 4a 00 00 f4 12 00 00 bd 13 00 00 3c 4a 00 00 	4J0000000000<J00
  0x7030	c4 13 00 00 2d 14 00 00 2c 4a 00 00 34 14 00 00 	0000-000,J004000
  0x7040	8e 15 00 00 50 4a 00 00 94 15 00 00 6d 16 00 00 	0000PJ000000m000
  0x7050	68 4a 00 00 74 16 00 00 c2 16 00 00 70 4a 00 00 	hJ00t0000000pJ00
  0x7060	c8 16 00 00 73 17 00 00 7c 4a 00 00 7c 17 00 00 	0000s000|J00|000
  0x7070	d8 1a 00 00 88 4a 00 00 e0 1a 00 00 7e 28 00 00 	00000J000000~(00
  0x7080	b0 4a 00 00 84 28 00 00 bd 28 00 00 70 4a 00 00 	0J000(000(00pJ00
  0x7090	d0 28 00 00 a3 29 00 00 d8 4a 00 00 b0 29 00 00 	0(000)000J000)00
  0x70a0	f9 29 00 00 e0 4a 00 00 00 2a 00 00 be 2b 00 00 	0)000J000*000+00
  0x70b0	e8 4a 00 00 d0 2b 00 00 e2 2b 00 00 d8 4a 00 00 	0J000+000+000J00
  0x70c0	00 2c 00 00 1e 2c 00 00 20 4b 00 00 50 2c 00 00 	0,000,00 K00P,00
  0x70d0	89 2c 00 00 d8 4a 00 00 90 2c 00 00 a8 2c 00 00 	0,000J000,000,00
  0x70e0	d8 4a 00 00 bc 2c 00 00 10 2d 00 00 24 4b 00 00 	0J000,000-00$K00
  0x70f0	18 2d 00 00 5d 2d 00 00 44 4b 00 00 d0 2d 00 00 	0-00]-00DK000-00
  0x7100	1d 2e 00 00 4c 4b 00 00 64 2e 00 00 38 2f 00 00 	0.00LK00d.008/00
  0x7110	70 4b 00 00 6c 2f 00 00 a0 2f 00 00 44 4b 00 00 	pK00l/000/00DK00
  0x7120	b0 2f 00 00 21 31 00 00 7c 4b 00 00 38 31 00 00 	0/00!100|K008100
  0x7130	55 31 00 00 d8 4a 00 00 5c 31 00 00 b7 31 00 00 	U1000J0001000100
  0x7140	8c 4b 00 00 e0 31 00 00 e2 31 00 00 88 4b 00 00 	0K00010001000K00
  0x7150	00 32 00 00 4d 32 00 00 98 4b 00 00 53 32 00 00 	0200M2000K00S200
  0x7160	71 32 00 00 14 4b 00 00 80 32 00 00 a0 32 00 00 	q2000K0002000200
  0x7170	14 4b 00 00 00 00 00 00 00 00 00 00 00 00 00 00 	0K00000000000000
  0x7180	00 00 00 00 00 00 00 00 00 00 00 00 00 00 00 00 	0000000000000000
  0x7190	00 00 00 00 00 00 00 00 00 00 00 00 00 00 00 00 	0000000000000000
  0x71a0	00 00 00 00 00 00 00 00 00 00 00 00 00 00 00 00 	0000000000000000
  0x71b0	00 00 00 00 00 00 00 00 00 00 00 00 00 00 00 00 	0000000000000000
  0x71c0	00 00 00 00 00 00 00 00 00 00 00 00 00 00 00 00 	0000000000000000
  0x71d0	00 00 00 00 00 00 00 00 00 00 00 00 00 00 00 00 	0000000000000000
  0x71e0	00 00 00 00 00 00 00 00 00 00 00 00 00 00 00 00 	0000000000000000
  0x71f0	00 00 00 00 00 00 00 00 00 00 00 00 00 00 00 00 	0000000000000000
=== DATA BLOCK END ===
