===== Assembly blocks =====

=== CODE BLOCK ADDRESS 0x1000 ===
  0x1000	int3   	
  0x1001	int3   	
  0x1002	int3   	
  0x1003	int3   	
  0x1004	int3   	
  === BLOCK LINK ===
    0x1005
=== CODE BLOCK END ===

=== CODE BLOCK ADDRESS 0x1005 ===
  0x1005	int3   	
  0x1006	int3   	
  0x1007	int3   	
  === BLOCK LINK ===
    0x1008
=== CODE BLOCK END ===

=== CODE BLOCK ADDRESS 0x100a ===
  0x100a	dec    	eax
  0x100b	sub    	esp, 0x250
  0x1011	dec    	eax
  0x1012	mov    	eax, dword ptr [0x4fe8]
  0x1018	dec    	eax
  === BLOCK LINK ===
    0x1019
=== CODE BLOCK END ===

=== CODE BLOCK ADDRESS 0x1019 ===
  0x1019	xor    	eax, esp
  0x101b	dec    	eax
  0x101c	mov    	dword ptr [esp + 0x240], eax
  0x1023	dec    	eax
  0x1024	and    	dword ptr [esp + 0x30], 0
  === BLOCK LINK ===
    0x1029
=== CODE BLOCK END ===

=== CODE BLOCK ADDRESS 0x1029 ===
  0x1029	dec    	eax
  0x102a	lea    	eax, [esp + 0x40]
  0x102e	mov    	ebx, ecx
  0x1030	mov    	dword ptr [esp + 0x28], 0x100
  0x1038	inc    	esp
  === BLOCK LINK ===
    0x1039
=== CODE BLOCK END ===

=== CODE BLOCK ADDRESS 0x1039 ===
  0x1039	mov    	eax, ecx
  0x103b	dec    	eax
  0x103c	mov    	dword ptr [esp + 0x20], eax
  0x1040	mov    	ecx, 0x1200
  0x1045	inc    	ebp
  === BLOCK LINK ===
    0x1046
=== CODE BLOCK END ===

=== CODE BLOCK ADDRESS 0x1046 ===
  0x1046	xor    	ecx, ecx
  0x1048	xor    	edx, edx
  0x104a	dec    	eax
  0x104b	call   	dword ptr [0x2187]
  === BLOCK LINK ===
    0x1051
=== CODE BLOCK END ===

=== CODE BLOCK ADDRESS 0x1051 ===
  0x1051	nop    	dword ptr [eax + eax]
  0x1056	mov    	ecx, 2
  0x105b	test   	eax, eax
  0x105d	je     	0x107d
  === BLOCK LINK ===
    0x105f
    0x107d
=== CODE BLOCK END ===

=== CODE BLOCK ADDRESS 0x105f ===
  0x105f	call   	0x2a66
  === BLOCK LINK ===
    0x1064
    0x2a66
=== CODE BLOCK END ===

=== CODE BLOCK ADDRESS 0x1064 ===
  0x1064	dec    	eax
  0x1065	mov    	ecx, eax
  0x1067	dec    	esp
  0x1068	lea    	ecx, [esp + 0x40]
  0x106c	inc    	esp
  === BLOCK LINK ===
    0x106d
=== CODE BLOCK END ===

=== CODE BLOCK ADDRESS 0x106d ===
  0x106d	mov    	eax, ebx
  0x106f	dec    	eax
  0x1070	lea    	edx, [0x330a]
  0x1076	call   	0x2b88
  === BLOCK LINK ===
    0x107b
    0x2b88
=== CODE BLOCK END ===

=== CODE BLOCK ADDRESS 0x107b ===
  0x107b	jmp    	0x1094
  === BLOCK LINK ===
    0x107d
    0x1094
=== CODE BLOCK END ===

=== CODE BLOCK ADDRESS 0x107d ===
  0x107d	call   	0x2a66
  === BLOCK LINK ===
    0x1082
    0x2a66
=== CODE BLOCK END ===

=== CODE BLOCK ADDRESS 0x1082 ===
  0x1082	dec    	eax
  0x1083	mov    	ecx, eax
  0x1085	dec    	eax
  0x1086	lea    	edx, [0x3304]
  0x108c	inc    	esp
  === BLOCK LINK ===
    0x108d
=== CODE BLOCK END ===

=== CODE BLOCK ADDRESS 0x108d ===
  0x108d	mov    	eax, ebx
  0x108f	call   	0x2b88
  === BLOCK LINK ===
    0x1094
    0x2b88
=== CODE BLOCK END ===

=== CODE BLOCK ADDRESS 0x1094 ===
  0x1094	dec    	eax
  0x1095	mov    	ecx, dword ptr [esp + 0x240]
  0x109c	dec    	eax
  0x109d	xor    	ecx, esp
  0x109f	call   	0x2000
  === BLOCK LINK ===
    0x10a4
    0x2000
=== CODE BLOCK END ===

=== CODE BLOCK ADDRESS 0x10a4 ===
  0x10a4	dec    	eax
  0x10a5	add    	esp, 0x250
  0x10ab	pop    	ebx
  0x10ac	ret    	
  0x10ad	int3   	
  === BLOCK LINK ===
    0x10ae
=== CODE BLOCK END ===

=== CODE BLOCK ADDRESS 0x10ae ===
  0x10ae	int3   	
  0x10af	int3   	
  0x10b0	int3   	
  0x10b1	int3   	
  0x10b2	int3   	
  === BLOCK LINK ===
    0x10b3
=== CODE BLOCK END ===

=== CODE BLOCK ADDRESS 0x10b3 ===
  0x10b3	int3   	
  0x10b4	dec    	eax
  0x10b5	mov    	eax, esp
  0x10b7	dec    	eax
  0x10b8	mov    	dword ptr [eax + 8], ebx
  === BLOCK LINK ===
    0x10bb
=== CODE BLOCK END ===

=== CODE BLOCK ADDRESS 0x10bb ===
  0x10bb	dec    	eax
  0x10bc	mov    	dword ptr [eax + 0x18], esi
  0x10bf	dec    	eax
  0x10c0	mov    	dword ptr [eax + 0x20], edi
  0x10c3	push   	ebp
  === BLOCK LINK ===
    0x10c4
=== CODE BLOCK END ===

=== CODE BLOCK ADDRESS 0x10c4 ===
  0x10c4	inc    	ecx
  0x10c5	push   	esp
  0x10c6	inc    	ecx
  0x10c7	push   	ebp
  0x10c8	inc    	ecx
  === BLOCK LINK ===
    0x10c9
=== CODE BLOCK END ===

=== CODE BLOCK ADDRESS 0x10c9 ===
  0x10c9	push   	esi
  0x10ca	inc    	ecx
  0x10cb	push   	edi
  0x10cc	dec    	eax
  0x10cd	lea    	ebp, [eax - 0x378]
  === BLOCK LINK ===
    0x10d3
=== CODE BLOCK END ===

=== CODE BLOCK ADDRESS 0x10d3 ===
  0x10d3	dec    	eax
  0x10d4	sub    	esp, 0x450
  0x10da	dec    	eax
  0x10db	mov    	eax, dword ptr [0x4f1f]
  0x10e1	dec    	eax
  === BLOCK LINK ===
    0x10e2
=== CODE BLOCK END ===

=== CODE BLOCK ADDRESS 0x10e2 ===
  0x10e2	xor    	eax, esp
  0x10e4	dec    	eax
  0x10e5	mov    	dword ptr [ebp + 0x340], eax
  0x10eb	dec    	eax
  0x10ec	mov    	ebx, edx
  === BLOCK LINK ===
    0x10ee
=== CODE BLOCK END ===

=== CODE BLOCK ADDRESS 0x10ee ===
  0x10ee	inc    	esp
  0x10ef	mov    	ebp, ecx
  0x10f1	inc    	ebp
  0x10f2	xor    	esp, esp
  0x10f4	dec    	eax
  === BLOCK LINK ===
    0x10f5
=== CODE BLOCK END ===

=== CODE BLOCK ADDRESS 0x10f5 ===
  0x10f5	lea    	ecx, [esp + 0x60]
  0x10f9	xorps  	xmm0, xmm0
  0x10fc	inc    	esp
  0x10fd	mov    	dword ptr [esp + 0x30], esp
  0x1101	xorps  	xmm1, xmm1
  === BLOCK LINK ===
    0x1104
=== CODE BLOCK END ===

=== CODE BLOCK ADDRESS 0x1104 ===
  0x1104	xor    	edx, edx
  0x1106	inc    	ecx
  0x1107	mov    	eax, 0x198
  0x110c	inc    	ecx
  0x110d	mov    	esi, esp
  === BLOCK LINK ===
    0x110f
=== CODE BLOCK END ===

=== CODE BLOCK ADDRESS 0x110f ===
  0x110f	movups  	xmmword ptr [esp + 0x38], xmm0
  0x1114	movups  	xmmword ptr [esp + 0x48], xmm1
  0x1119	call   	0x2b7a
  === BLOCK LINK ===
    0x111e
    0x2b7a
=== CODE BLOCK END ===

=== CODE BLOCK ADDRESS 0x111e ===
  0x111e	inc    	ebp
  0x111f	lea    	edi, [esp + 1]
  0x1123	inc    	ecx
  0x1124	lea    	edi, [esp + 0x57]
  0x1128	inc    	ebp
  === BLOCK LINK ===
    0x1129
=== CODE BLOCK END ===

=== CODE BLOCK ADDRESS 0x1129 ===
  0x1129	cmp    	ebp, edi
  0x112b	jne    	0x1152
  === BLOCK LINK ===
    0x112d
    0x1152
=== CODE BLOCK END ===

=== CODE BLOCK ADDRESS 0x112d ===
  0x112d	lea    	ecx, [edi - 0x55]
  0x1130	mov    	esi, edi
  0x1132	call   	0x2a66
  === BLOCK LINK ===
    0x1137
    0x2a66
=== CODE BLOCK END ===

=== CODE BLOCK ADDRESS 0x1137 ===
  0x1137	dec    	eax
  0x1138	mov    	ecx, eax
  0x113a	dec    	eax
  0x113b	lea    	edx, [0x327f]
  0x1141	call   	0x2b88
  === BLOCK LINK ===
    0x1146
    0x2b88
=== CODE BLOCK END ===

=== CODE BLOCK ADDRESS 0x1146 ===
  0x1146	mov    	ecx, edi
  0x1148	call   	0x1008
  === BLOCK LINK ===
    0x114d
    0x1008
=== CODE BLOCK END ===

=== CODE BLOCK ADDRESS 0x114d ===
  0x114d	jmp    	0x177a
  === BLOCK LINK ===
    0x1152
    0x177a
=== CODE BLOCK END ===

=== CODE BLOCK ADDRESS 0x1152 ===
  0x1152	inc    	ecx
  0x1153	mov    	esi, 2
  0x1158	inc    	ebp
  0x1159	cmp    	ebp, esi
  0x115b	je     	0x1763
  === BLOCK LINK ===
    0x1161
    0x1763
=== CODE BLOCK END ===

=== CODE BLOCK ADDRESS 0x1161 ===
  0x1161	dec    	eax
  0x1162	mov    	ecx, dword ptr [ebx + 8]
  0x1165	dec    	eax
  0x1166	lea    	edx, [0x3298]
  0x116c	dec    	eax
  === BLOCK LINK ===
    0x116d
=== CODE BLOCK END ===

=== CODE BLOCK ADDRESS 0x116d ===
  0x116d	call   	dword ptr [0x2175]
  === BLOCK LINK ===
    0x1173
=== CODE BLOCK END ===

=== CODE BLOCK ADDRESS 0x1173 ===
  0x1173	nop    	dword ptr [eax + eax]
  0x1178	test   	eax, eax
  0x117a	je     	0x1763
  === BLOCK LINK ===
    0x1180
    0x1763
=== CODE BLOCK END ===

=== CODE BLOCK ADDRESS 0x1180 ===
  0x1180	dec    	eax
  0x1181	mov    	ecx, dword ptr [ebx + 8]
  0x1184	dec    	eax
  0x1185	lea    	edx, [0x3281]
  0x118b	dec    	eax
  === BLOCK LINK ===
    0x118c
=== CODE BLOCK END ===

=== CODE BLOCK ADDRESS 0x118c ===
  0x118c	call   	dword ptr [0x2156]
  === BLOCK LINK ===
    0x1192
=== CODE BLOCK END ===

=== CODE BLOCK ADDRESS 0x1192 ===
  0x1192	nop    	dword ptr [eax + eax]
  0x1197	test   	eax, eax
  0x1199	je     	0x1763
  === BLOCK LINK ===
    0x119f
    0x1763
=== CODE BLOCK END ===

=== CODE BLOCK ADDRESS 0x119f ===
  0x119f	dec    	eax
  0x11a0	mov    	ecx, dword ptr [ebx + 8]
  0x11a3	dec    	eax
  0x11a4	lea    	edx, [0x3266]
  0x11aa	dec    	eax
  === BLOCK LINK ===
    0x11ab
=== CODE BLOCK END ===

=== CODE BLOCK ADDRESS 0x11ab ===
  0x11ab	call   	dword ptr [0x2137]
  === BLOCK LINK ===
    0x11b1
=== CODE BLOCK END ===

=== CODE BLOCK ADDRESS 0x11b1 ===
  0x11b1	nop    	dword ptr [eax + eax]
  0x11b6	test   	eax, eax
  0x11b8	je     	0x1763
  === BLOCK LINK ===
    0x11be
    0x1763
=== CODE BLOCK END ===

=== CODE BLOCK ADDRESS 0x11be ===
  0x11be	dec    	eax
  0x11bf	mov    	ecx, dword ptr [ebx + 8]
  0x11c2	dec    	eax
  0x11c3	lea    	edx, [0x3257]
  0x11c9	dec    	eax
  === BLOCK LINK ===
    0x11ca
=== CODE BLOCK END ===

=== CODE BLOCK ADDRESS 0x11ca ===
  0x11ca	call   	dword ptr [0x2118]
  === BLOCK LINK ===
    0x11d0
=== CODE BLOCK END ===

=== CODE BLOCK ADDRESS 0x11d0 ===
  0x11d0	nop    	dword ptr [eax + eax]
  0x11d5	test   	eax, eax
  0x11d7	je     	0x1763
  === BLOCK LINK ===
    0x11dd
    0x1763
=== CODE BLOCK END ===

=== CODE BLOCK ADDRESS 0x11dd ===
  0x11dd	mov    	ecx, 0x202
  0x11e2	dec    	eax
  0x11e3	lea    	edx, [esp + 0x60]
  0x11e7	dec    	eax
  0x11e8	call   	dword ptr [0x1f3a]
  === BLOCK LINK ===
    0x11ee
=== CODE BLOCK END ===

=== CODE BLOCK ADDRESS 0x11ee ===
  0x11ee	nop    	dword ptr [eax + eax]
  0x11f3	mov    	esi, eax
  0x11f5	test   	eax, eax
  0x11f7	je     	0x121c
  === BLOCK LINK ===
    0x11f9
    0x121c
=== CODE BLOCK END ===

=== CODE BLOCK ADDRESS 0x11f9 ===
  0x11f9	inc    	ecx
  0x11fa	mov    	ecx, esi
  0x11fc	call   	0x2a66
  === BLOCK LINK ===
    0x1201
    0x2a66
=== CODE BLOCK END ===

=== CODE BLOCK ADDRESS 0x1201 ===
  0x1201	dec    	eax
  0x1202	mov    	ecx, eax
  0x1204	dec    	eax
  0x1205	lea    	edx, [0x3225]
  0x120b	call   	0x2b88
  === BLOCK LINK ===
    0x1210
    0x2b88
=== CODE BLOCK END ===

=== CODE BLOCK ADDRESS 0x1210 ===
  0x1210	mov    	ecx, esi
  0x1212	call   	0x1008
  === BLOCK LINK ===
    0x1217
    0x1008
=== CODE BLOCK END ===

=== CODE BLOCK ADDRESS 0x1217 ===
  0x1217	jmp    	0x1776
  === BLOCK LINK ===
    0x121c
    0x1776
=== CODE BLOCK END ===

=== CODE BLOCK ADDRESS 0x121c ===
  0x121c	inc    	esp
  0x121d	mov    	byte ptr [0x5445], ah
  0x1223	inc    	ebp
  0x1224	cmp    	ebp, edi
  0x1226	jle    	0x1654
  === BLOCK LINK ===
    0x122c
    0x1654
=== CODE BLOCK END ===

=== CODE BLOCK ADDRESS 0x122c ===
  0x122c	dec    	ebp
  0x122d	arpl   	di, sp
  0x122f	dec    	eax
  0x1230	lea    	edx, [0x3252]
  0x1236	dec    	edx
  === BLOCK LINK ===
    0x1237
=== CODE BLOCK END ===

=== CODE BLOCK ADDRESS 0x1237 ===
  0x1237	mov    	ecx, dword ptr [ebx]
  0x123a	dec    	eax
  0x123b	call   	dword ptr [0x20a7]
  === BLOCK LINK ===
    0x1241
=== CODE BLOCK END ===

=== CODE BLOCK ADDRESS 0x1241 ===
  0x1241	nop    	dword ptr [eax + eax]
  0x1246	test   	eax, eax
  0x1248	jne    	0x1256
  === BLOCK LINK ===
    0x124a
    0x1256
=== CODE BLOCK END ===

=== CODE BLOCK ADDRESS 0x124a ===
  0x124a	mov    	byte ptr [0x5417], 1
  0x1251	jmp    	0x156c
  === BLOCK LINK ===
    0x1256
    0x156c
=== CODE BLOCK END ===

=== CODE BLOCK ADDRESS 0x1256 ===
  0x1256	dec    	edx
  0x1257	mov    	ecx, dword ptr [ebx]
  0x125a	dec    	eax
  0x125b	lea    	edx, [0x322f]
  0x1261	dec    	eax
  === BLOCK LINK ===
    0x1262
=== CODE BLOCK END ===

=== CODE BLOCK ADDRESS 0x1262 ===
  0x1262	call   	dword ptr [0x2080]
  === BLOCK LINK ===
    0x1268
=== CODE BLOCK END ===

=== CODE BLOCK ADDRESS 0x1268 ===
  0x1268	nop    	dword ptr [eax + eax]
  0x126d	test   	eax, eax
  0x126f	jne    	0x1280
  === BLOCK LINK ===
    0x1271
    0x1280
=== CODE BLOCK END ===

=== CODE BLOCK ADDRESS 0x1271 ===
  0x1271	inc    	ebp
  0x1272	xor    	esp, esp
  0x1274	inc    	esp
  0x1275	mov    	byte ptr [0x53ed], ah
  0x127b	jmp    	0x156f
  === BLOCK LINK ===
    0x1280
    0x156f
=== CODE BLOCK END ===

=== CODE BLOCK ADDRESS 0x1280 ===
  0x1280	dec    	edx
  0x1281	mov    	ecx, dword ptr [ebx]
  0x1284	dec    	eax
  0x1285	lea    	edx, [0x320d]
  0x128b	dec    	eax
  === BLOCK LINK ===
    0x128c
=== CODE BLOCK END ===

=== CODE BLOCK ADDRESS 0x128c ===
  0x128c	call   	dword ptr [0x2056]
  === BLOCK LINK ===
    0x1292
=== CODE BLOCK END ===

=== CODE BLOCK ADDRESS 0x1292 ===
  0x1292	nop    	dword ptr [eax + eax]
  0x1297	test   	eax, eax
  0x1299	jne    	0x12e9
  === BLOCK LINK ===
    0x129b
    0x12e9
=== CODE BLOCK END ===

=== CODE BLOCK ADDRESS 0x129b ===
  0x129b	dec    	eax
  0x129c	lea    	eax, [esp + 0x30]
  0x12a0	mov    	dword ptr [esp + 0x30], 0x10
  0x12a8	inc    	ecx
  0x12a9	inc    	edi
  === BLOCK LINK ===
    0x12ab
=== CODE BLOCK END ===

=== CODE BLOCK ADDRESS 0x12ab ===
  0x12ab	dec    	eax
  0x12ac	mov    	dword ptr [esp + 0x20], eax
  0x12b0	dec    	ebp
  0x12b1	arpl   	di, sp
  0x12b3	dec    	esp
  === BLOCK LINK ===
    0x12b4
=== CODE BLOCK END ===

=== CODE BLOCK ADDRESS 0x12b4 ===
  0x12b4	lea    	ecx, [esp + 0x38]
  0x12b8	inc    	ebp
  0x12b9	xor    	eax, eax
  0x12bb	inc    	ecx
  0x12bc	mov    	edx, esi
  === BLOCK LINK ===
    0x12be
=== CODE BLOCK END ===

=== CODE BLOCK ADDRESS 0x12be ===
  0x12be	dec    	edx
  0x12bf	mov    	ecx, dword ptr [ebx]
  0x12c2	dec    	eax
  0x12c3	call   	dword ptr [0x1e6f]
  === BLOCK LINK ===
    0x12c9
=== CODE BLOCK END ===

=== CODE BLOCK ADDRESS 0x12c9 ===
  0x12c9	nop    	dword ptr [eax + eax]
  0x12ce	cmp    	eax, -1
  0x12d1	je     	0x15db
  === BLOCK LINK ===
    0x12d7
    0x15db
=== CODE BLOCK END ===

=== CODE BLOCK ADDRESS 0x12d7 ===
  0x12d7	movups  	xmm0, xmmword ptr [esp + 0x38]
  0x12dc	movdqu  	xmmword ptr [0x536c], xmm0
  0x12e4	jmp    	0x156c
  === BLOCK LINK ===
    0x12e9
    0x156c
=== CODE BLOCK END ===

=== CODE BLOCK ADDRESS 0x12e9 ===
  0x12e9	dec    	edx
  0x12ea	mov    	ecx, dword ptr [ebx]
  0x12ed	dec    	eax
  0x12ee	lea    	edx, [0x3224]
  0x12f4	dec    	eax
  === BLOCK LINK ===
    0x12f5
=== CODE BLOCK END ===

=== CODE BLOCK ADDRESS 0x12f5 ===
  0x12f5	call   	dword ptr [0x1fed]
  === BLOCK LINK ===
    0x12fb
=== CODE BLOCK END ===

=== CODE BLOCK ADDRESS 0x12fb ===
  0x12fb	nop    	dword ptr [eax + eax]
  0x1300	test   	eax, eax
  0x1302	jne    	0x134a
  === BLOCK LINK ===
    0x1304
    0x134a
=== CODE BLOCK END ===

=== CODE BLOCK ADDRESS 0x1304 ===
  0x1304	inc    	ecx
  0x1305	inc    	edi
  0x1307	dec    	ebp
  0x1308	arpl   	di, sp
  0x130a	dec    	edx
  === BLOCK LINK ===
    0x130b
=== CODE BLOCK END ===

=== CODE BLOCK ADDRESS 0x130b ===
  0x130b	mov    	ecx, dword ptr [ebx]
  0x130e	dec    	eax
  0x130f	call   	dword ptr [0x1ff3]
  === BLOCK LINK ===
    0x1315
=== CODE BLOCK END ===

=== CODE BLOCK ADDRESS 0x1315 ===
  0x1315	nop    	dword ptr [eax + eax]
  0x131a	mov    	dword ptr [0x5344], eax
  0x1320	test   	eax, eax
  0x1322	jne    	0x156c
  === BLOCK LINK ===
    0x1328
    0x156c
=== CODE BLOCK END ===

=== CODE BLOCK ADDRESS 0x1328 ===
  0x1328	inc    	ecx
  0x1329	mov    	ecx, esi
  0x132b	mov    	esi, edi
  0x132d	call   	0x2a66
  === BLOCK LINK ===
    0x1332
    0x2a66
=== CODE BLOCK END ===

=== CODE BLOCK ADDRESS 0x1332 ===
  0x1332	dec    	eax
  0x1333	lea    	edx, [0x31f7]
  === BLOCK LINK ===
    0x1339
=== CODE BLOCK END ===

=== CODE BLOCK ADDRESS 0x133e ===
  0x133e	mov    	ecx, eax
  0x1340	call   	0x2b88
  === BLOCK LINK ===
    0x1345
    0x2b88
=== CODE BLOCK END ===

=== CODE BLOCK ADDRESS 0x1345 ===
  0x1345	jmp    	0x1146
  === BLOCK LINK ===
    0x134a
    0x1146
=== CODE BLOCK END ===

=== CODE BLOCK ADDRESS 0x134a ===
  0x134a	dec    	edx
  0x134b	mov    	ecx, dword ptr [ebx]
  0x134e	dec    	eax
  0x134f	lea    	edx, [0x3243]
  0x1355	dec    	eax
  === BLOCK LINK ===
    0x1356
=== CODE BLOCK END ===

=== CODE BLOCK ADDRESS 0x1356 ===
  0x1356	call   	dword ptr [0x1f8c]
  === BLOCK LINK ===
    0x135c
=== CODE BLOCK END ===

=== CODE BLOCK ADDRESS 0x135c ===
  0x135c	nop    	dword ptr [eax + eax]
  0x1361	test   	eax, eax
  0x1363	jne    	0x13b3
  === BLOCK LINK ===
    0x1365
    0x13b3
=== CODE BLOCK END ===

=== CODE BLOCK ADDRESS 0x1365 ===
  0x1365	dec    	eax
  0x1366	lea    	eax, [esp + 0x30]
  0x136a	mov    	dword ptr [esp + 0x30], 0x10
  0x1372	inc    	ecx
  0x1373	inc    	edi
  === BLOCK LINK ===
    0x1375
=== CODE BLOCK END ===

=== CODE BLOCK ADDRESS 0x1375 ===
  0x1375	dec    	eax
  0x1376	mov    	dword ptr [esp + 0x20], eax
  0x137a	dec    	ebp
  0x137b	arpl   	di, sp
  0x137d	dec    	esp
  === BLOCK LINK ===
    0x137e
=== CODE BLOCK END ===

=== CODE BLOCK ADDRESS 0x137e ===
  0x137e	lea    	ecx, [esp + 0x48]
  0x1382	inc    	ebp
  0x1383	xor    	eax, eax
  0x1385	inc    	ecx
  0x1386	mov    	edx, esi
  === BLOCK LINK ===
    0x1388
=== CODE BLOCK END ===

=== CODE BLOCK ADDRESS 0x1388 ===
  0x1388	dec    	edx
  0x1389	mov    	ecx, dword ptr [ebx]
  0x138c	dec    	eax
  0x138d	call   	dword ptr [0x1da5]
  === BLOCK LINK ===
    0x1393
=== CODE BLOCK END ===

=== CODE BLOCK ADDRESS 0x1393 ===
  0x1393	nop    	dword ptr [eax + eax]
  0x1398	cmp    	eax, -1
  0x139b	je     	0x1609
  === BLOCK LINK ===
    0x13a1
    0x1609
=== CODE BLOCK END ===

=== CODE BLOCK ADDRESS 0x13a1 ===
  0x13a1	movups  	xmm0, xmmword ptr [esp + 0x48]
  0x13a6	movdqu  	xmmword ptr [0x5292], xmm0
  0x13ae	jmp    	0x156c
  === BLOCK LINK ===
    0x13b3
    0x156c
=== CODE BLOCK END ===

=== CODE BLOCK ADDRESS 0x13b3 ===
  0x13b3	dec    	edx
  0x13b4	mov    	ecx, dword ptr [ebx]
  0x13b7	dec    	eax
  0x13b8	lea    	edx, [0x325a]
  0x13be	dec    	eax
  === BLOCK LINK ===
    0x13bf
=== CODE BLOCK END ===

=== CODE BLOCK ADDRESS 0x13bf ===
  0x13bf	call   	dword ptr [0x1f23]
  === BLOCK LINK ===
    0x13c5
=== CODE BLOCK END ===

=== CODE BLOCK ADDRESS 0x13c5 ===
  0x13c5	nop    	dword ptr [eax + eax]
  0x13ca	test   	eax, eax
  0x13cc	jne    	0x1408
  === BLOCK LINK ===
    0x13ce
    0x1408
=== CODE BLOCK END ===

=== CODE BLOCK ADDRESS 0x13ce ===
  0x13ce	inc    	ecx
  0x13cf	inc    	edi
  0x13d1	dec    	ebp
  0x13d2	arpl   	di, sp
  0x13d4	dec    	edx
  === BLOCK LINK ===
    0x13d5
=== CODE BLOCK END ===

=== CODE BLOCK ADDRESS 0x13d5 ===
  0x13d5	mov    	ecx, dword ptr [ebx]
  0x13d8	dec    	eax
  0x13d9	call   	dword ptr [0x1f29]
  === BLOCK LINK ===
    0x13df
=== CODE BLOCK END ===

=== CODE BLOCK ADDRESS 0x13df ===
  0x13df	nop    	dword ptr [eax + eax]
  0x13e4	mov    	dword ptr [0x5276], eax
  0x13ea	test   	eax, eax
  0x13ec	jne    	0x156c
  === BLOCK LINK ===
    0x13f2
    0x156c
=== CODE BLOCK END ===

=== CODE BLOCK ADDRESS 0x13f2 ===
  0x13f2	inc    	ecx
  0x13f3	mov    	ecx, esi
  0x13f5	mov    	esi, edi
  0x13f7	call   	0x2a66
  === BLOCK LINK ===
    0x13fc
    0x2a66
=== CODE BLOCK END ===

=== CODE BLOCK ADDRESS 0x13fc ===
  0x13fc	dec    	eax
  0x13fd	lea    	edx, [0x322d]
  0x1403	jmp    	0x1339
  === BLOCK LINK ===
    0x1408
    0x1339
=== CODE BLOCK END ===

=== CODE BLOCK ADDRESS 0x1408 ===
  0x1408	dec    	edx
  0x1409	mov    	ecx, dword ptr [ebx]
  0x140c	dec    	eax
  0x140d	lea    	edx, [0x3285]
  0x1413	dec    	eax
  === BLOCK LINK ===
    0x1414
=== CODE BLOCK END ===

=== CODE BLOCK ADDRESS 0x1414 ===
  0x1414	call   	dword ptr [0x1ece]
  === BLOCK LINK ===
    0x141a
=== CODE BLOCK END ===

=== CODE BLOCK ADDRESS 0x141a ===
  0x141a	nop    	dword ptr [eax + eax]
  0x141f	test   	eax, eax
  0x1421	jne    	0x145d
  === BLOCK LINK ===
    0x1423
    0x145d
=== CODE BLOCK END ===

=== CODE BLOCK ADDRESS 0x1423 ===
  0x1423	inc    	ecx
  0x1424	inc    	edi
  0x1426	dec    	ebp
  0x1427	arpl   	di, sp
  0x1429	dec    	edx
  === BLOCK LINK ===
    0x142a
=== CODE BLOCK END ===

=== CODE BLOCK ADDRESS 0x142a ===
  0x142a	mov    	ecx, dword ptr [ebx]
  0x142d	dec    	eax
  0x142e	call   	dword ptr [0x1ed4]
  === BLOCK LINK ===
    0x1434
=== CODE BLOCK END ===

=== CODE BLOCK ADDRESS 0x1434 ===
  0x1434	nop    	dword ptr [eax + eax]
  0x1439	mov    	dword ptr [0x522d], eax
  0x143f	test   	eax, eax
  0x1441	jne    	0x156c
  === BLOCK LINK ===
    0x1447
    0x156c
=== CODE BLOCK END ===

=== CODE BLOCK ADDRESS 0x1447 ===
  0x1447	inc    	ecx
  0x1448	mov    	ecx, esi
  0x144a	mov    	esi, edi
  0x144c	call   	0x2a66
  === BLOCK LINK ===
    0x1451
    0x2a66
=== CODE BLOCK END ===

=== CODE BLOCK ADDRESS 0x1451 ===
  0x1451	dec    	eax
  0x1452	lea    	edx, [0x3248]
  0x1458	jmp    	0x1339
  === BLOCK LINK ===
    0x145d
    0x1339
=== CODE BLOCK END ===

=== CODE BLOCK ADDRESS 0x145d ===
  0x145d	dec    	edx
  0x145e	mov    	ecx, dword ptr [ebx]
  0x1461	dec    	eax
  0x1462	lea    	edx, [0x3290]
  0x1468	dec    	eax
  === BLOCK LINK ===
    0x1469
=== CODE BLOCK END ===

=== CODE BLOCK ADDRESS 0x1469 ===
  0x1469	call   	dword ptr [0x1e79]
  === BLOCK LINK ===
    0x146f
=== CODE BLOCK END ===

=== CODE BLOCK ADDRESS 0x146f ===
  0x146f	nop    	dword ptr [eax + eax]
  0x1474	test   	eax, eax
  0x1476	jne    	0x14cc
  === BLOCK LINK ===
    0x1478
=== CODE BLOCK END ===

=== CODE BLOCK ADDRESS 0x1478 ===
  0x1478	inc    	ecx
  0x1479	inc    	edi
  0x147b	dec    	eax
  0x147c	lea    	ecx, [ebp + 0x130]
  0x1482	dec    	ebp
  === BLOCK LINK ===
    0x1483
=== CODE BLOCK END ===

=== CODE BLOCK ADDRESS 0x1483 ===
  0x1483	arpl   	di, sp
  0x1485	inc    	ecx
  0x1486	mov    	eax, 0x104
  0x148b	dec    	edx
  0x148c	mov    	edx, dword ptr [ebx]
  === BLOCK LINK ===
    0x148f
=== CODE BLOCK END ===

=== CODE BLOCK ADDRESS 0x148f ===
  0x148f	dec    	eax
  0x1490	call   	dword ptr [0x1e62]
  === BLOCK LINK ===
    0x1496
=== CODE BLOCK END ===

=== CODE BLOCK ADDRESS 0x1496 ===
  0x1496	nop    	dword ptr [eax + eax]
  0x149b	dec    	eax
  0x149c	test   	eax, eax
  0x149e	je     	0x1628
  === BLOCK LINK ===
    0x14a4
=== CODE BLOCK END ===

=== CODE BLOCK ADDRESS 0x14a4 ===
  0x14a4	dec    	ecx
  0x14a5	or     	ecx, 0xffffffff
  0x14a8	dec    	esp
  0x14a9	lea    	eax, [ebp + 0x130]
  0x14af	mov    	edx, 0x104
  === BLOCK LINK ===
    0x14b4
=== CODE BLOCK END ===

=== CODE BLOCK ADDRESS 0x14b4 ===
  0x14b4	dec    	eax
  0x14b5	lea    	ecx, [0x51b5]
  0x14bb	dec    	eax
  0x14bc	call   	dword ptr [0x1e76]
  === BLOCK LINK ===
    0x14c2
=== CODE BLOCK END ===

=== CODE BLOCK ADDRESS 0x14c2 ===
  0x14c2	nop    	dword ptr [eax + eax]
  0x14c7	jmp    	0x156c
  === BLOCK LINK ===
    0x14cc
=== CODE BLOCK END ===

=== CODE BLOCK ADDRESS 0x14cc ===
  0x14cc	dec    	edx
  0x14cd	mov    	ecx, dword ptr [ebx]
  0x14d0	dec    	eax
  0x14d1	lea    	edx, [0x3299]
  0x14d7	dec    	eax
  === BLOCK LINK ===
    0x14d8
=== CODE BLOCK END ===

=== CODE BLOCK ADDRESS 0x14d8 ===
  0x14d8	call   	dword ptr [0x1e0a]
  === BLOCK LINK ===
    0x14de
=== CODE BLOCK END ===

=== CODE BLOCK ADDRESS 0x14de ===
  0x14de	nop    	dword ptr [eax + eax]
  0x14e3	test   	eax, eax
  0x14e5	jne    	0x14f0
  === BLOCK LINK ===
    0x14e7
=== CODE BLOCK END ===

=== CODE BLOCK ADDRESS 0x14e7 ===
  0x14e7	mov    	byte ptr [0x513e], 1
  0x14ee	jmp    	0x156c
  === BLOCK LINK ===
    0x14f0
=== CODE BLOCK END ===

=== CODE BLOCK ADDRESS 0x14f0 ===
  0x14f0	dec    	edx
  0x14f1	mov    	ecx, dword ptr [ebx]
  0x14f4	dec    	eax
  0x14f5	lea    	edx, [0x327d]
  0x14fb	dec    	eax
  === BLOCK LINK ===
    0x14fc
=== CODE BLOCK END ===

=== CODE BLOCK ADDRESS 0x14fc ===
  0x14fc	call   	dword ptr [0x1de6]
  === BLOCK LINK ===
    0x1502
=== CODE BLOCK END ===

=== CODE BLOCK ADDRESS 0x1502 ===
  0x1502	nop    	dword ptr [eax + eax]
  0x1507	test   	eax, eax
  0x1509	jne    	0x1514
  === BLOCK LINK ===
    0x150b
=== CODE BLOCK END ===

=== CODE BLOCK ADDRESS 0x150b ===
  0x150b	mov    	byte ptr [0x511b], 1
  0x1512	jmp    	0x156c
  === BLOCK LINK ===
    0x1514
=== CODE BLOCK END ===

=== CODE BLOCK ADDRESS 0x1514 ===
  0x1514	dec    	edx
  0x1515	mov    	ecx, dword ptr [ebx]
  0x1518	dec    	eax
  0x1519	lea    	edx, [0x3261]
  0x151f	dec    	eax
  === BLOCK LINK ===
    0x1520
=== CODE BLOCK END ===

=== CODE BLOCK ADDRESS 0x1520 ===
  0x1520	call   	dword ptr [0x1dc2]
  === BLOCK LINK ===
    0x1526
=== CODE BLOCK END ===

=== CODE BLOCK ADDRESS 0x1526 ===
  0x1526	nop    	dword ptr [eax + eax]
  0x152b	inc    	ebp
  0x152c	xor    	esp, esp
  0x152e	test   	eax, eax
  0x1530	jne    	0x156f
  === BLOCK LINK ===
    0x1532
=== CODE BLOCK END ===

=== CODE BLOCK ADDRESS 0x1532 ===
  0x1532	inc    	ecx
  0x1533	inc    	edi
  0x1535	dec    	eax
  0x1536	lea    	edx, [0x325c]
  0x153c	dec    	ebp
  === BLOCK LINK ===
    0x153d
=== CODE BLOCK END ===

=== CODE BLOCK ADDRESS 0x153d ===
  0x153d	arpl   	di, sp
  0x153f	dec    	edx
  0x1540	mov    	ecx, dword ptr [ebx]
  0x1543	dec    	eax
  0x1544	call   	dword ptr [0x1d9e]
  === BLOCK LINK ===
    0x154a
=== CODE BLOCK END ===

=== CODE BLOCK ADDRESS 0x154a ===
  0x154a	nop    	dword ptr [eax + eax]
  0x154f	test   	eax, eax
  0x1551	jne    	0x163e
  === BLOCK LINK ===
    0x1557
=== CODE BLOCK END ===

=== CODE BLOCK ADDRESS 0x1557 ===
  0x1557	dec    	edx
  0x1558	mov    	eax, dword ptr [ebx]
  0x155b	dec    	eax
  0x155c	mov    	dword ptr [0x5316], eax
  0x1562	mov    	dword ptr [0x50c4], 0x220418
  === BLOCK LINK ===
    0x156c
=== CODE BLOCK END ===

=== CODE BLOCK ADDRESS 0x156c ===
  0x156c	inc    	ebp
  0x156d	xor    	esp, esp
  === BLOCK LINK ===
    0x156f
=== CODE BLOCK END ===

=== CODE BLOCK ADDRESS 0x1573 ===
  0x1573	cmp    	edi, ebp
  0x1575	jl     	0x122c
  === BLOCK LINK ===
    0x157b
=== CODE BLOCK END ===

=== CODE BLOCK ADDRESS 0x157b ===
  0x157b	inc    	esp
  0x157c	cmp    	byte ptr [0x50e6], ah
  0x1582	je     	0x1654
  === BLOCK LINK ===
    0x1588
=== CODE BLOCK END ===

=== CODE BLOCK ADDRESS 0x1588 ===
  0x1588	inc    	ecx
  0x1589	mov    	ecx, 0x16
  0x158e	dec    	esp
  0x158f	lea    	eax, [ebp + 0x100]
  0x1595	dec    	eax
  === BLOCK LINK ===
    0x1596
=== CODE BLOCK END ===

=== CODE BLOCK ADDRESS 0x1596 ===
  0x1596	lea    	edx, [0x50b8]
  0x159c	inc    	ecx
  0x159d	mov    	ecx, esi
  0x159f	dec    	eax
  0x15a0	call   	dword ptr [0x1ba2]
  === BLOCK LINK ===
    0x15a6
=== CODE BLOCK END ===

=== CODE BLOCK ADDRESS 0x15a6 ===
  0x15a6	nop    	dword ptr [eax + eax]
  0x15ab	dec    	eax
  0x15ac	test   	eax, eax
  0x15ae	je     	0x15c7
  === BLOCK LINK ===
    0x15b0
=== CODE BLOCK END ===

=== CODE BLOCK ADDRESS 0x15b0 ===
  0x15b0	inc    	esp
  0x15b1	cmp    	dword ptr [0x50ad], esp
  0x15b7	je     	0x15c7
  === BLOCK LINK ===
    0x15b9
=== CODE BLOCK END ===

=== CODE BLOCK ADDRESS 0x15b9 ===
  0x15b9	inc    	sp
  0x15bb	cmp    	dword ptr [0x5091], esp
  0x15c1	jne    	0x16cf
  === BLOCK LINK ===
    0x15c7
=== CODE BLOCK END ===

=== CODE BLOCK ADDRESS 0x15c7 ===
  0x15c7	inc    	ecx
  0x15c8	mov    	ecx, esi
  0x15ca	call   	0x2a66
  === BLOCK LINK ===
    0x15cf
=== CODE BLOCK END ===

=== CODE BLOCK ADDRESS 0x15cf ===
  0x15cf	dec    	eax
  0x15d0	lea    	edx, [0x322a]
  0x15d6	jmp    	0x16c5
  === BLOCK LINK ===
    0x15db
=== CODE BLOCK END ===

=== CODE BLOCK ADDRESS 0x15db ===
  0x15db	dec    	eax
  0x15dc	call   	dword ptr [0x1b5e]
  === BLOCK LINK ===
    0x15e2
=== CODE BLOCK END ===

=== CODE BLOCK ADDRESS 0x15e2 ===
  0x15e2	nop    	dword ptr [eax + eax]
  0x15e7	inc    	ecx
  0x15e8	mov    	ecx, esi
  0x15ea	mov    	esi, eax
  0x15ec	call   	0x2a66
  === BLOCK LINK ===
    0x15f1
=== CODE BLOCK END ===

=== CODE BLOCK ADDRESS 0x15f1 ===
  0x15f1	dec    	eax
  0x15f2	lea    	edx, [0x2eb8]
  0x15f8	dec    	esi
  0x15f9	mov    	eax, dword ptr [ebx]
  0x15fc	dec    	eax
  === BLOCK LINK ===
    0x15fd
=== CODE BLOCK END ===

=== CODE BLOCK ADDRESS 0x15fd ===
  0x15fd	mov    	ecx, eax
  0x15ff	call   	0x2b88
  === BLOCK LINK ===
    0x1604
=== CODE BLOCK END ===

=== CODE BLOCK ADDRESS 0x1604 ===
  0x1604	jmp    	0x1210
  === BLOCK LINK ===
    0x1609
=== CODE BLOCK END ===

=== CODE BLOCK ADDRESS 0x1609 ===
  0x1609	dec    	eax
  0x160a	call   	dword ptr [0x1b30]
  === BLOCK LINK ===
    0x1610
=== CODE BLOCK END ===

=== CODE BLOCK ADDRESS 0x1610 ===
  0x1610	nop    	dword ptr [eax + eax]
  0x1615	inc    	ecx
  0x1616	mov    	ecx, esi
  0x1618	mov    	esi, eax
  0x161a	call   	0x2a66
  === BLOCK LINK ===
    0x161f
=== CODE BLOCK END ===

=== CODE BLOCK ADDRESS 0x161f ===
  0x161f	dec    	eax
  0x1620	lea    	edx, [0x2f8a]
  0x1626	jmp    	0x15f8
  === BLOCK LINK ===
    0x1628
=== CODE BLOCK END ===

=== CODE BLOCK ADDRESS 0x1628 ===
  0x1628	inc    	ecx
  0x1629	mov    	ecx, esi
  0x162b	mov    	esi, edi
  0x162d	call   	0x2a66
  === BLOCK LINK ===
    0x1632
=== CODE BLOCK END ===

=== CODE BLOCK ADDRESS 0x1632 ===
  0x1632	dec    	eax
  0x1633	lea    	edx, [0x30e7]
  0x1639	jmp    	0x1339
  === BLOCK LINK ===
    0x163e
=== CODE BLOCK END ===

=== CODE BLOCK ADDRESS 0x163e ===
  0x163e	inc    	ecx
  0x163f	mov    	ecx, esi
  0x1641	mov    	esi, edi
  0x1643	call   	0x2a66
  === BLOCK LINK ===
    0x1648
=== CODE BLOCK END ===

=== CODE BLOCK ADDRESS 0x1648 ===
  0x1648	dec    	eax
  0x1649	lea    	edx, [0x3161]
  0x164f	jmp    	0x1339
  === BLOCK LINK ===
    0x1654
=== CODE BLOCK END ===

=== CODE BLOCK ADDRESS 0x1654 ===
  0x1654	mov    	ebx, 0x16
  0x1659	dec    	esp
  0x165a	lea    	eax, [ebp + 0x100]
  0x1660	inc    	esp
  0x1661	mov    	ecx, ebx
  === BLOCK LINK ===
    0x1663
=== CODE BLOCK END ===

=== CODE BLOCK ADDRESS 0x1663 ===
  0x1663	dec    	eax
  0x1664	lea    	edx, [0x4fea]
  0x166a	inc    	ecx
  0x166b	mov    	ecx, esi
  0x166d	dec    	eax
  === BLOCK LINK ===
    0x166e
=== CODE BLOCK END ===

=== CODE BLOCK ADDRESS 0x166e ===
  0x166e	call   	dword ptr [0x1ad4]
  === BLOCK LINK ===
    0x1674
=== CODE BLOCK END ===

=== CODE BLOCK ADDRESS 0x1674 ===
  0x1674	nop    	dword ptr [eax + eax]
  0x1679	dec    	eax
  0x167a	test   	eax, eax
  0x167c	je     	0x16b6
  === BLOCK LINK ===
    0x167e
=== CODE BLOCK END ===

=== CODE BLOCK ADDRESS 0x167e ===
  0x167e	inc    	sp
  0x1680	cmp    	dword ptr [0x4fcc], esp
  0x1686	je     	0x16b6
  === BLOCK LINK ===
    0x1688
=== CODE BLOCK END ===

=== CODE BLOCK ADDRESS 0x1688 ===
  0x1688	inc    	esp
  0x1689	mov    	ecx, ebx
  0x168b	dec    	esp
  0x168c	lea    	eax, [ebp + 0x100]
  0x1692	dec    	eax
  === BLOCK LINK ===
    0x1693
=== CODE BLOCK END ===

=== CODE BLOCK ADDRESS 0x1693 ===
  0x1693	lea    	edx, [0x4fab]
  0x1699	inc    	ecx
  0x169a	mov    	ecx, esi
  0x169c	dec    	eax
  0x169d	call   	dword ptr [0x1aa5]
  === BLOCK LINK ===
    0x16a3
=== CODE BLOCK END ===

=== CODE BLOCK ADDRESS 0x16a3 ===
  0x16a3	nop    	dword ptr [eax + eax]
  0x16a8	dec    	eax
  0x16a9	test   	eax, eax
  0x16ab	je     	0x16b6
  === BLOCK LINK ===
    0x16ad
=== CODE BLOCK END ===

=== CODE BLOCK ADDRESS 0x16ad ===
  0x16ad	inc    	esp
  0x16ae	cmp    	dword ptr [0x4fac], esp
  0x16b4	jne    	0x16cf
  === BLOCK LINK ===
    0x16b6
=== CODE BLOCK END ===

=== CODE BLOCK ADDRESS 0x16b6 ===
  0x16b6	inc    	ecx
  0x16b7	mov    	ecx, esi
  0x16b9	call   	0x2a66
  === BLOCK LINK ===
    0x16be
=== CODE BLOCK END ===

=== CODE BLOCK ADDRESS 0x16be ===
  0x16be	dec    	eax
  0x16bf	lea    	edx, [0x31db]
  0x16c5	dec    	eax
  0x16c6	mov    	ecx, eax
  0x16c8	call   	0x2b88
  === BLOCK LINK ===
    0x16cd
=== CODE BLOCK END ===

=== CODE BLOCK ADDRESS 0x16cd ===
  0x16cd	mov    	esi, edi
  0x16cf	inc    	esp
  0x16d0	cmp    	dword ptr [0x4f5a], esp
  0x16d6	jne    	0x16f6
  === BLOCK LINK ===
    0x16d8
=== CODE BLOCK END ===

=== CODE BLOCK ADDRESS 0x16d8 ===
  0x16d8	inc    	ecx
  0x16d9	mov    	ecx, esi
  0x16db	call   	0x2a66
  === BLOCK LINK ===
    0x16e0
=== CODE BLOCK END ===

=== CODE BLOCK ADDRESS 0x16e0 ===
  0x16e0	dec    	eax
  0x16e1	mov    	ecx, eax
  0x16e3	dec    	eax
  0x16e4	lea    	edx, [0x326e]
  0x16ea	call   	0x2b88
  === BLOCK LINK ===
    0x16ef
=== CODE BLOCK END ===

=== CODE BLOCK ADDRESS 0x16ef ===
  0x16ef	mov    	esi, edi
  0x16f1	jmp    	0x177a
  === BLOCK LINK ===
    0x16f6
=== CODE BLOCK END ===

=== CODE BLOCK ADDRESS 0x16f6 ===
  0x16f6	dec    	eax
  0x16f7	or     	ebx, 0xffffffff
  0x16fa	dec    	esp
  0x16fb	lea    	edi, [0x4f6f]
  0x1701	dec    	eax
  === BLOCK LINK ===
    0x1702
=== CODE BLOCK END ===

=== CODE BLOCK ADDRESS 0x1702 ===
  0x1702	mov    	eax, ebx
  0x1704	dec    	eax
  0x1705	inc    	eax
  0x1707	inc    	bp
  0x1709	cmp    	dword ptr [edi + eax*2], esp
  === BLOCK LINK ===
    0x170c
=== CODE BLOCK END ===

=== CODE BLOCK ADDRESS 0x170c ===
  0x170c	jne    	0x1704
  === BLOCK LINK ===
    0x170e
=== CODE BLOCK END ===

=== CODE BLOCK ADDRESS 0x170e ===
  0x170e	dec    	eax
  0x170f	test   	eax, eax
  0x1711	jne    	0x1776
  === BLOCK LINK ===
    0x1713
=== CODE BLOCK END ===

=== CODE BLOCK ADDRESS 0x1713 ===
  0x1713	dec    	eax
  0x1714	lea    	ecx, [0x3276]
  0x171a	dec    	eax
  0x171b	call   	dword ptr [0x1c07]
  === BLOCK LINK ===
    0x1721
=== CODE BLOCK END ===

=== CODE BLOCK ADDRESS 0x1721 ===
  0x1721	nop    	dword ptr [eax + eax]
  0x1726	inc    	ecx
  0x1727	mov    	esi, 0x104
  0x172c	dec    	esp
  0x172d	lea    	eax, [0x326d]
  === BLOCK LINK ===
    0x1733
=== CODE BLOCK END ===

=== CODE BLOCK ADDRESS 0x1733 ===
  0x1733	dec    	esp
  0x1734	mov    	ecx, eax
  0x1736	dec    	eax
  0x1737	lea    	ecx, [ebp + 0x130]
  0x173d	inc    	ecx
  === BLOCK LINK ===
    0x173e
=== CODE BLOCK END ===

=== CODE BLOCK ADDRESS 0x173e ===
  0x173e	mov    	edx, esi
  0x1740	call   	0x2c28
  === BLOCK LINK ===
    0x1745
=== CODE BLOCK END ===

=== CODE BLOCK ADDRESS 0x1745 ===
  0x1745	dec    	esp
  0x1746	mov    	ecx, ebx
  0x1748	dec    	esp
  0x1749	lea    	eax, [ebp + 0x130]
  0x174f	inc    	ecx
  === BLOCK LINK ===
    0x1750
=== CODE BLOCK END ===

=== CODE BLOCK ADDRESS 0x1750 ===
  0x1750	mov    	edx, esi
  0x1752	dec    	ecx
  0x1753	mov    	ecx, edi
  0x1755	dec    	eax
  0x1756	call   	dword ptr [0x1bdc]
  === BLOCK LINK ===
    0x175c
=== CODE BLOCK END ===

=== CODE BLOCK ADDRESS 0x175c ===
  0x175c	nop    	dword ptr [eax + eax]
  0x1761	jmp    	0x1776
  === BLOCK LINK ===
    0x1763
=== CODE BLOCK END ===

=== CODE BLOCK ADDRESS 0x1763 ===
  0x1763	dec    	eax
  0x1764	lea    	ecx, [0x1d36]
  0x176a	inc    	esp
  0x176b	mov    	byte ptr [0x4ebd], bh
  0x1771	call   	0x2bd4
  === BLOCK LINK ===
    0x1776
=== CODE BLOCK END ===

=== CODE BLOCK ADDRESS 0x1776 ===
  0x1776	cmp    	esi, edi
  0x1778	jne    	0x1786
  === BLOCK LINK ===
    0x177a
=== CODE BLOCK END ===

=== CODE BLOCK ADDRESS 0x177a ===
  0x177a	dec    	eax
  0x177b	lea    	ecx, [0x1d1f]
  0x1781	call   	0x2bd4
  === BLOCK LINK ===
    0x1786
=== CODE BLOCK END ===

=== CODE BLOCK ADDRESS 0x1786 ===
  0x1786	dec    	eax
  0x1787	call   	dword ptr [0x19a3]
  === BLOCK LINK ===
    0x178d
=== CODE BLOCK END ===

=== CODE BLOCK ADDRESS 0x178d ===
  0x178d	nop    	dword ptr [eax + eax]
  0x1792	mov    	eax, esi
  0x1794	dec    	eax
  0x1795	mov    	ecx, dword ptr [ebp + 0x340]
  0x179b	dec    	eax
  === BLOCK LINK ===
    0x179c
=== CODE BLOCK END ===

=== CODE BLOCK ADDRESS 0x179c ===
  0x179c	xor    	ecx, esp
  0x179e	call   	0x2000
  === BLOCK LINK ===
    0x17a3
=== CODE BLOCK END ===

=== CODE BLOCK ADDRESS 0x17a3 ===
  0x17a3	dec    	esp
  0x17a4	lea    	ebx, [esp + 0x450]
  0x17ab	dec    	ecx
  0x17ac	mov    	ebx, dword ptr [ebx + 0x30]
  0x17af	dec    	ecx
  === BLOCK LINK ===
    0x17b0
=== CODE BLOCK END ===

=== CODE BLOCK ADDRESS 0x17b0 ===
  0x17b0	mov    	esi, dword ptr [ebx + 0x40]
  0x17b3	dec    	ecx
  0x17b4	mov    	edi, dword ptr [ebx + 0x48]
  0x17b7	dec    	ecx
  0x17b8	mov    	esp, ebx
  === BLOCK LINK ===
    0x17ba
=== CODE BLOCK END ===

=== CODE BLOCK ADDRESS 0x17ba ===
  0x17ba	inc    	ecx
  0x17bb	pop    	edi
  0x17bc	inc    	ecx
  0x17bd	pop    	esi
  0x17be	inc    	ecx
  === BLOCK LINK ===
    0x17bf
=== CODE BLOCK END ===

=== CODE BLOCK ADDRESS 0x17bf ===
  0x17bf	pop    	ebp
  0x17c0	inc    	ecx
  0x17c1	pop    	esp
  0x17c2	pop    	ebp
  0x17c3	ret    	
  === BLOCK LINK ===
    0x17c4
=== CODE BLOCK END ===

=== CODE BLOCK ADDRESS 0x2a66 ===
=== CODE BLOCK END ===

=== CODE BLOCK ADDRESS 0x17c4 ===
  0x17c4	int3   	
  0x17c5	int3   	
  0x17c6	int3   	
  0x17c7	int3   	
  0x17c8	int3   	
  === BLOCK LINK ===
    0x17c9
=== CODE BLOCK END ===

=== CODE BLOCK ADDRESS 0x17c9 ===
  0x17c9	int3   	
  0x17ca	int3   	
  0x17cb	int3   	
  0x17cc	inc    	eax
  0x17cd	push   	ebx
  === BLOCK LINK ===
    0x17ce
=== CODE BLOCK END ===

=== CODE BLOCK ADDRESS 0x17ce ===
  0x17ce	dec    	eax
  0x17cf	sub    	esp, 0x240
  0x17d5	dec    	eax
  0x17d6	mov    	eax, dword ptr [0x4824]
  0x17dc	dec    	eax
  === BLOCK LINK ===
    0x17dd
=== CODE BLOCK END ===

=== CODE BLOCK ADDRESS 0x17dd ===
  0x17dd	xor    	eax, esp
  0x17df	dec    	eax
  0x17e0	mov    	dword ptr [esp + 0x230], eax
  0x17e7	dec    	eax
  0x17e8	mov    	edx, ecx
  === BLOCK LINK ===
    0x17ea
=== CODE BLOCK END ===

=== CODE BLOCK ADDRESS 0x17ea ===
  0x17ea	dec    	esp
  0x17eb	lea    	eax, [0x31df]
  0x17f1	dec    	eax
  0x17f2	lea    	ecx, [esp + 0x20]
  0x17f6	dec    	eax
  === BLOCK LINK ===
    0x17f7
=== CODE BLOCK END ===

=== CODE BLOCK ADDRESS 0x17f7 ===
  0x17f7	call   	dword ptr [0x1af3]
  === BLOCK LINK ===
    0x17fd
=== CODE BLOCK END ===

=== CODE BLOCK ADDRESS 0x17fd ===
  0x17fd	nop    	dword ptr [eax + eax]
  0x1802	dec    	esp
  0x1803	mov    	eax, dword ptr [esp + 0x20]
  0x1807	dec    	ebp
  0x1808	test   	eax, eax
  === BLOCK LINK ===
    0x180a
=== CODE BLOCK END ===

=== CODE BLOCK ADDRESS 0x180a ===
  0x180a	jne    	0x181c
  === BLOCK LINK ===
    0x180c
=== CODE BLOCK END ===

=== CODE BLOCK ADDRESS 0x180c ===
  0x180c	dec    	eax
  0x180d	call   	dword ptr [0x195d]
  === BLOCK LINK ===
    0x1813
=== CODE BLOCK END ===

=== CODE BLOCK ADDRESS 0x1813 ===
  0x1813	nop    	dword ptr [eax + eax]
  0x1818	mov    	ebx, eax
  0x181a	jmp    	0x1864
  === BLOCK LINK ===
    0x181c
=== CODE BLOCK END ===

=== CODE BLOCK ADDRESS 0x181c ===
  0x181c	mov    	ebx, 0x100
  0x1821	jmp    	0x1839
  === BLOCK LINK ===
    0x1823
=== CODE BLOCK END ===

=== CODE BLOCK ADDRESS 0x1823 ===
  0x1823	dec    	eax
  0x1824	lea    	edx, [esp + 0x30]
  0x1828	dec    	eax
  0x1829	lea    	ecx, [0x31a5]
  0x182f	call   	0x2bd4
  === BLOCK LINK ===
    0x1834
=== CODE BLOCK END ===

=== CODE BLOCK ADDRESS 0x1834 ===
  0x1834	dec    	esp
  0x1835	mov    	eax, dword ptr [esp + 0x20]
  0x1839	mov    	edx, ebx
  0x183b	dec    	eax
  0x183c	lea    	ecx, [esp + 0x30]
  === BLOCK LINK ===
    0x1840
=== CODE BLOCK END ===

=== CODE BLOCK ADDRESS 0x1840 ===
  0x1840	dec    	eax
  0x1841	call   	dword ptr [0x1ad9]
  === BLOCK LINK ===
    0x1847
=== CODE BLOCK END ===

=== CODE BLOCK ADDRESS 0x1847 ===
  0x1847	nop    	dword ptr [eax + eax]
  0x184c	dec    	eax
  0x184d	test   	eax, eax
  0x184f	jne    	0x1823
  === BLOCK LINK ===
    0x1851
=== CODE BLOCK END ===

=== CODE BLOCK ADDRESS 0x1851 ===
  0x1851	dec    	eax
  0x1852	mov    	ecx, dword ptr [esp + 0x20]
  0x1856	dec    	eax
  0x1857	call   	dword ptr [0x1abb]
  === BLOCK LINK ===
    0x185d
=== CODE BLOCK END ===

=== CODE BLOCK ADDRESS 0x185d ===
  0x185d	nop    	dword ptr [eax + eax]
  0x1862	xor    	ebx, ebx
  0x1864	test   	ebx, ebx
  0x1866	je     	0x1888
  === BLOCK LINK ===
    0x1868
=== CODE BLOCK END ===

=== CODE BLOCK ADDRESS 0x1868 ===
  0x1868	mov    	ecx, 2
  0x186d	call   	0x2a66
  === BLOCK LINK ===
    0x1872
=== CODE BLOCK END ===

=== CODE BLOCK ADDRESS 0x1872 ===
  0x1872	dec    	eax
  0x1873	mov    	ecx, eax
  0x1875	dec    	eax
  0x1876	lea    	edx, [0x3164]
  0x187c	call   	0x2b88
  === BLOCK LINK ===
    0x1881
=== CODE BLOCK END ===

=== CODE BLOCK ADDRESS 0x1881 ===
  0x1881	mov    	ecx, ebx
  0x1883	call   	0x1008
  === BLOCK LINK ===
    0x1888
=== CODE BLOCK END ===

=== CODE BLOCK ADDRESS 0x1888 ===
  0x1888	mov    	eax, ebx
  0x188a	dec    	eax
  0x188b	mov    	ecx, dword ptr [esp + 0x230]
  0x1892	dec    	eax
  0x1893	xor    	ecx, esp
  === BLOCK LINK ===
    0x1895
=== CODE BLOCK END ===

=== CODE BLOCK ADDRESS 0x1895 ===
  0x1895	call   	0x2000
  === BLOCK LINK ===
    0x189a
=== CODE BLOCK END ===

=== CODE BLOCK ADDRESS 0x189a ===
  0x189a	dec    	eax
  0x189b	add    	esp, 0x240
  0x18a1	pop    	ebx
  0x18a2	ret    	
  0x18a3	int3   	
  === BLOCK LINK ===
    0x18a4
=== CODE BLOCK END ===

=== CODE BLOCK ADDRESS 0x2b88 ===
=== CODE BLOCK END ===

=== CODE BLOCK ADDRESS 0x18a4 ===
  0x18a4	int3   	
  0x18a5	int3   	
  0x18a6	int3   	
  0x18a7	int3   	
  0x18a8	int3   	
  === BLOCK LINK ===
    0x18a9
=== CODE BLOCK END ===

=== CODE BLOCK ADDRESS 0x18a9 ===
  0x18a9	int3   	
  0x18aa	int3   	
  0x18ab	int3   	
  0x18ac	dec    	eax
  0x18ad	mov    	dword ptr [esp + 8], ebx
  === BLOCK LINK ===
    0x18b1
=== CODE BLOCK END ===

=== CODE BLOCK ADDRESS 0x18b1 ===
  0x18b1	push   	edi
  0x18b2	dec    	eax
  0x18b3	sub    	esp, 0x20
  0x18b6	xor    	ebx, ebx
  0x18b8	dec    	eax
  === BLOCK LINK ===
    0x18b9
=== CODE BLOCK END ===

=== CODE BLOCK ADDRESS 0x18b9 ===
  0x18b9	lea    	edx, [0x3161]
  0x18bf	xor    	ecx, ecx
  0x18c1	inc    	esp
  0x18c2	lea    	eax, [ebx + 1]
  0x18c5	dec    	eax
  === BLOCK LINK ===
    0x18c6
=== CODE BLOCK END ===

=== CODE BLOCK ADDRESS 0x18c6 ===
  0x18c6	call   	dword ptr [0x1aec]
  === BLOCK LINK ===
    0x18cc
=== CODE BLOCK END ===

=== CODE BLOCK ADDRESS 0x18cc ===
  0x18cc	nop    	dword ptr [eax + eax]
  0x18d1	dec    	eax
  0x18d2	mov    	edi, eax
  0x18d4	dec    	eax
  0x18d5	test   	eax, eax
  === BLOCK LINK ===
    0x18d7
=== CODE BLOCK END ===

=== CODE BLOCK ADDRESS 0x18d7 ===
  0x18d7	je     	0x1905
  === BLOCK LINK ===
    0x18d9
=== CODE BLOCK END ===

=== CODE BLOCK ADDRESS 0x18d9 ===
  0x18d9	inc    	esp
  0x18da	lea    	eax, [ebx + 0x30]
  0x18dd	dec    	eax
  0x18de	mov    	ecx, eax
  0x18e0	dec    	eax
  === BLOCK LINK ===
    0x18e1
=== CODE BLOCK END ===

=== CODE BLOCK ADDRESS 0x18e1 ===
  0x18e1	lea    	edx, [0x3159]
  0x18e7	dec    	eax
  0x18e8	call   	dword ptr [0x1ac2]
  === BLOCK LINK ===
    0x18ee
=== CODE BLOCK END ===

=== CODE BLOCK ADDRESS 0x18ee ===
  0x18ee	nop    	dword ptr [eax + eax]
  0x18f3	dec    	eax
  0x18f4	mov    	ebx, eax
  0x18f6	dec    	eax
  0x18f7	mov    	ecx, edi
  === BLOCK LINK ===
    0x18f9
=== CODE BLOCK END ===

=== CODE BLOCK ADDRESS 0x18f9 ===
  0x18f9	dec    	eax
  0x18fa	call   	dword ptr [0x1ac0]
  === BLOCK LINK ===
    0x1900
=== CODE BLOCK END ===

=== CODE BLOCK ADDRESS 0x1900 ===
  0x1900	nop    	dword ptr [eax + eax]
  0x1905	dec    	eax
  0x1906	mov    	eax, ebx
  0x1908	dec    	eax
  0x1909	mov    	ebx, dword ptr [esp + 0x30]
  === BLOCK LINK ===
    0x190d
=== CODE BLOCK END ===

=== CODE BLOCK ADDRESS 0x190d ===
  0x190d	dec    	eax
  0x190e	add    	esp, 0x20
  0x1911	pop    	edi
  0x1912	ret    	
  0x1913	int3   	
  === BLOCK LINK ===
    0x1914
=== CODE BLOCK END ===

=== CODE BLOCK ADDRESS 0x1914 ===
  0x1914	int3   	
  0x1915	int3   	
  0x1916	int3   	
  0x1917	int3   	
  0x1918	int3   	
  === BLOCK LINK ===
    0x1919
=== CODE BLOCK END ===

=== CODE BLOCK ADDRESS 0x1919 ===
  0x1919	int3   	
  0x191a	int3   	
  0x191b	int3   	
  0x191c	dec    	eax
  0x191d	mov    	dword ptr [esp + 8], ebx
  === BLOCK LINK ===
    0x1921
=== CODE BLOCK END ===

=== CODE BLOCK ADDRESS 0x1921 ===
  0x1921	dec    	eax
  0x1922	mov    	dword ptr [esp + 0x18], edi
  0x1926	inc    	ecx
  0x1927	push   	esi
  0x1928	dec    	eax
  === BLOCK LINK ===
    0x1929
=== CODE BLOCK END ===

=== CODE BLOCK ADDRESS 0x1929 ===
  0x1929	sub    	esp, 0x70
  0x192c	dec    	eax
  0x192d	mov    	eax, dword ptr [0x46cd]
  0x1933	dec    	eax
  0x1934	xor    	eax, esp
  === BLOCK LINK ===
    0x1936
=== CODE BLOCK END ===

=== CODE BLOCK ADDRESS 0x1936 ===
  0x1936	dec    	eax
  0x1937	mov    	dword ptr [esp + 0x68], eax
  0x193b	and    	dword ptr [esp + 0x40], 0
  0x1940	mov    	ebx, ecx
  0x1942	mov    	ecx, 1
  === BLOCK LINK ===
    0x1947
=== CODE BLOCK END ===

=== CODE BLOCK ADDRESS 0x1947 ===
  0x1947	dec    	eax
  0x1948	mov    	edi, edx
  0x194a	call   	0x2a66
  === BLOCK LINK ===
    0x194f
=== CODE BLOCK END ===

=== CODE BLOCK ADDRESS 0x194f ===
  0x194f	dec    	eax
  0x1950	mov    	ecx, eax
  0x1952	dec    	eax
  0x1953	call   	dword ptr [0x1947]
  === BLOCK LINK ===
    0x1959
=== CODE BLOCK END ===

=== CODE BLOCK ADDRESS 0x1959 ===
  0x1959	nop    	dword ptr [eax + eax]
  0x195e	mov    	ecx, eax
  0x1960	mov    	edx, 0x40000
  0x1965	dec    	eax
  0x1966	call   	dword ptr [0x1974]
  === BLOCK LINK ===
    0x196c
=== CODE BLOCK END ===

=== CODE BLOCK ADDRESS 0x196c ===
  0x196c	nop    	dword ptr [eax + eax]
  0x1971	inc    	ecx
  0x1972	mov    	esi, 2
  0x1977	inc    	ecx
  0x1978	mov    	ecx, esi
  === BLOCK LINK ===
    0x197a
=== CODE BLOCK END ===

=== CODE BLOCK ADDRESS 0x197a ===
  0x197a	call   	0x2a66
  === BLOCK LINK ===
    0x197f
=== CODE BLOCK END ===

=== CODE BLOCK ADDRESS 0x197f ===
  0x197f	dec    	eax
  0x1980	mov    	ecx, eax
  0x1982	dec    	eax
  0x1983	call   	dword ptr [0x1917]
  === BLOCK LINK ===
    0x1989
=== CODE BLOCK END ===

=== CODE BLOCK ADDRESS 0x1989 ===
  0x1989	nop    	dword ptr [eax + eax]
  0x198e	mov    	ecx, eax
  0x1990	mov    	edx, 0x40000
  0x1995	dec    	eax
  0x1996	call   	dword ptr [0x1944]
  === BLOCK LINK ===
    0x199c
=== CODE BLOCK END ===

=== CODE BLOCK ADDRESS 0x199c ===
  0x199c	nop    	dword ptr [eax + eax]
  0x19a1	dec    	eax
  0x19a2	mov    	edx, edi
  0x19a4	mov    	ecx, ebx
  0x19a6	call   	0x10b4
  === BLOCK LINK ===
    0x19ab
=== CODE BLOCK END ===

=== CODE BLOCK ADDRESS 0x19ab ===
  0x19ab	test   	eax, eax
  0x19ad	jne    	0x1be1
  === BLOCK LINK ===
    0x19b3
=== CODE BLOCK END ===

=== CODE BLOCK ADDRESS 0x19b3 ===
  0x19b3	cmp    	byte ptr [0x4c75], al
  0x19b9	jne    	0x1be1
  === BLOCK LINK ===
    0x19bf
=== CODE BLOCK END ===

=== CODE BLOCK ADDRESS 0x19bf ===
  0x19bf	cmp    	byte ptr [0x4ca3], al
  0x19c5	je     	0x19df
  === BLOCK LINK ===
    0x19c7
=== CODE BLOCK END ===

=== CODE BLOCK ADDRESS 0x19c7 ===
  0x19c7	inc    	ecx
  0x19c8	mov    	ecx, esi
  0x19ca	call   	0x2a66
  === BLOCK LINK ===
    0x19cf
=== CODE BLOCK END ===

=== CODE BLOCK ADDRESS 0x19cf ===
  0x19cf	inc    	esp
  0x19d0	mov    	ecx, dword ptr [0x4c8e]
  0x19d6	dec    	eax
  0x19d7	lea    	edx, [0x3123]
  0x19dd	jmp    	0x1a11
  === BLOCK LINK ===
    0x19df
=== CODE BLOCK END ===

=== CODE BLOCK ADDRESS 0x19df ===
  0x19df	cmp    	byte ptr [0x4c46], 0
  0x19e6	jne    	0x19fb
  === BLOCK LINK ===
    0x19e8
=== CODE BLOCK END ===

=== CODE BLOCK ADDRESS 0x19e8 ===
  0x19e8	dec    	eax
  0x19e9	lea    	ecx, [0x4c81]
  0x19ef	dec    	eax
  0x19f0	call   	dword ptr [0x190a]
  === BLOCK LINK ===
    0x19f6
=== CODE BLOCK END ===

=== CODE BLOCK ADDRESS 0x19f6 ===
  0x19f6	nop    	dword ptr [eax + eax]
  0x19fb	inc    	ecx
  0x19fc	mov    	ecx, esi
  0x19fe	call   	0x2a66
  === BLOCK LINK ===
    0x1a03
=== CODE BLOCK END ===

=== CODE BLOCK ADDRESS 0x1a03 ===
  0x1a03	inc    	esp
  0x1a04	mov    	ecx, dword ptr [0x4c56]
  0x1a0a	dec    	eax
  0x1a0b	lea    	edx, [0x315f]
  0x1a11	dec    	esp
  === BLOCK LINK ===
    0x1a12
=== CODE BLOCK END ===

=== CODE BLOCK ADDRESS 0x1a12 ===
  0x1a12	mov    	eax, dword ptr [0x4e60]
  0x1a18	dec    	eax
  0x1a19	mov    	ecx, eax
  0x1a1b	call   	0x2b88
  === BLOCK LINK ===
    0x1a20
=== CODE BLOCK END ===

=== CODE BLOCK ADDRESS 0x1a20 ===
  0x1a20	call   	0x18ac
  === BLOCK LINK ===
    0x1a25
=== CODE BLOCK END ===

=== CODE BLOCK ADDRESS 0x1a25 ===
  0x1a25	dec    	eax
  0x1a26	mov    	edi, eax
  0x1a28	dec    	eax
  0x1a29	test   	eax, eax
  0x1a2b	jne    	0x1a3d
  === BLOCK LINK ===
    0x1a2d
=== CODE BLOCK END ===

=== CODE BLOCK ADDRESS 0x1a2d ===
  0x1a2d	dec    	eax
  0x1a2e	call   	dword ptr [0x173c]
  === BLOCK LINK ===
    0x1a34
=== CODE BLOCK END ===

=== CODE BLOCK ADDRESS 0x1a34 ===
  0x1a34	nop    	dword ptr [eax + eax]
  0x1a39	mov    	ebx, eax
  0x1a3b	jmp    	0x1a7b
  === BLOCK LINK ===
    0x1a3d
=== CODE BLOCK END ===

=== CODE BLOCK ADDRESS 0x1a3d ===
  0x1a3d	inc    	ebp
  0x1a3e	xor    	eax, eax
  0x1a40	xor    	edx, edx
  0x1a42	dec    	eax
  0x1a43	mov    	ecx, edi
  === BLOCK LINK ===
    0x1a45
=== CODE BLOCK END ===

=== CODE BLOCK ADDRESS 0x1a45 ===
  0x1a45	dec    	eax
  0x1a46	call   	dword ptr [0x197c]
  === BLOCK LINK ===
    0x1a4c
=== CODE BLOCK END ===

=== CODE BLOCK ADDRESS 0x1a4c ===
  0x1a4c	nop    	dword ptr [eax + eax]
  0x1a51	test   	eax, eax
  0x1a53	jne    	0x1a6a
  === BLOCK LINK ===
    0x1a55
=== CODE BLOCK END ===

=== CODE BLOCK ADDRESS 0x1a55 ===
  0x1a55	dec    	eax
  0x1a56	call   	dword ptr [0x1714]
  === BLOCK LINK ===
    0x1a5c
=== CODE BLOCK END ===

=== CODE BLOCK ADDRESS 0x1a5c ===
  0x1a5c	nop    	dword ptr [eax + eax]
  0x1a61	mov    	ebx, eax
  0x1a63	cmp    	eax, 0x420
  0x1a68	jne    	0x1a6c
  === BLOCK LINK ===
    0x1a6a
=== CODE BLOCK END ===

=== CODE BLOCK ADDRESS 0x1a6a ===
  0x1a6a	xor    	ebx, ebx
  0x1a6c	dec    	eax
  0x1a6d	mov    	ecx, edi
  0x1a6f	dec    	eax
  0x1a70	call   	dword ptr [0x194a]
  === BLOCK LINK ===
    0x1a76
=== CODE BLOCK END ===

=== CODE BLOCK ADDRESS 0x1a76 ===
  0x1a76	nop    	dword ptr [eax + eax]
  0x1a7b	test   	ebx, ebx
  0x1a7d	je     	0x1a9d
  === BLOCK LINK ===
    0x1a7f
=== CODE BLOCK END ===

=== CODE BLOCK ADDRESS 0x1a7f ===
  0x1a7f	inc    	ecx
  0x1a80	mov    	ecx, esi
  0x1a82	call   	0x2a66
  === BLOCK LINK ===
    0x1a87
=== CODE BLOCK END ===

=== CODE BLOCK ADDRESS 0x1a87 ===
  0x1a87	dec    	eax
  0x1a88	mov    	ecx, eax
  0x1a8a	dec    	eax
  0x1a8b	lea    	edx, [0x2fbf]
  0x1a91	call   	0x2b88
  === BLOCK LINK ===
    0x1a96
=== CODE BLOCK END ===

=== CODE BLOCK ADDRESS 0x1a96 ===
  0x1a96	mov    	ecx, ebx
  0x1a98	jmp    	0x1b55
  === BLOCK LINK ===
    0x1a9d
=== CODE BLOCK END ===

=== CODE BLOCK ADDRESS 0x1a9d ===
  0x1a9d	dec    	eax
  0x1a9e	and    	dword ptr [esp + 0x30], 0
  0x1aa3	dec    	eax
  0x1aa4	lea    	ecx, [0x3136]
  0x1aaa	mov    	dword ptr [esp + 0x28], 0x80
  === BLOCK LINK ===
    0x1ab2
=== CODE BLOCK END ===

=== CODE BLOCK ADDRESS 0x1ab2 ===
  0x1ab2	inc    	ebp
  0x1ab3	xor    	ecx, ecx
  0x1ab5	inc    	ebp
  0x1ab6	xor    	eax, eax
  0x1ab8	mov    	dword ptr [esp + 0x20], 3
  === BLOCK LINK ===
    0x1ac0
=== CODE BLOCK END ===

=== CODE BLOCK ADDRESS 0x1ac0 ===
  0x1ac0	mov    	edx, 0xc0000000
  0x1ac5	dec    	eax
  0x1ac6	call   	dword ptr [0x16bc]
  === BLOCK LINK ===
    0x1acc
=== CODE BLOCK END ===

=== CODE BLOCK ADDRESS 0x1acc ===
  0x1acc	nop    	dword ptr [eax + eax]
  0x1ad1	dec    	eax
  0x1ad2	mov    	dword ptr [0x4550], eax
  0x1ad8	dec    	eax
  0x1ad9	cmp    	eax, -1
  === BLOCK LINK ===
    0x1adc
=== CODE BLOCK END ===

=== CODE BLOCK ADDRESS 0x1adc ===
  0x1adc	jne    	0x1aef
  === BLOCK LINK ===
    0x1ade
=== CODE BLOCK END ===

=== CODE BLOCK ADDRESS 0x1ade ===
  0x1ade	dec    	eax
  0x1adf	call   	dword ptr [0x168b]
  === BLOCK LINK ===
    0x1ae5
=== CODE BLOCK END ===

=== CODE BLOCK ADDRESS 0x1ae5 ===
  0x1ae5	nop    	dword ptr [eax + eax]
  0x1aea	jmp    	0x1be1
  === BLOCK LINK ===
    0x1aef
=== CODE BLOCK END ===

=== CODE BLOCK ADDRESS 0x1aef ===
  0x1aef	dec    	eax
  0x1af0	and    	dword ptr [esp + 0x38], 0
  0x1af5	dec    	eax
  0x1af6	lea    	ecx, [esp + 0x40]
  0x1afa	mov    	edx, dword ptr [0x4b30]
  === BLOCK LINK ===
    0x1b00
=== CODE BLOCK END ===

=== CODE BLOCK ADDRESS 0x1b00 ===
  0x1b00	dec    	esp
  0x1b01	lea    	eax, [0x4b39]
  0x1b07	dec    	eax
  0x1b08	mov    	dword ptr [esp + 0x30], ecx
  0x1b0c	inc    	ecx
  === BLOCK LINK ===
    0x1b0d
=== CODE BLOCK END ===

=== CODE BLOCK ADDRESS 0x1b0d ===
  0x1b0d	mov    	ecx, 0x238
  0x1b12	and    	dword ptr [esp + 0x28], 0
  0x1b17	dec    	eax
  0x1b18	mov    	ecx, eax
  0x1b1a	dec    	eax
  === BLOCK LINK ===
    0x1b1b
=== CODE BLOCK END ===

=== CODE BLOCK ADDRESS 0x1b1b ===
  0x1b1b	and    	dword ptr [esp + 0x20], 0
  0x1b20	dec    	eax
  0x1b21	call   	dword ptr [0x1691]
  === BLOCK LINK ===
    0x1b27
=== CODE BLOCK END ===

=== CODE BLOCK ADDRESS 0x1b27 ===
  0x1b27	nop    	dword ptr [eax + eax]
  0x1b2c	inc    	ecx
  0x1b2d	mov    	ecx, esi
  0x1b2f	test   	eax, eax
  0x1b31	jne    	0x1b5f
  === BLOCK LINK ===
    0x1b33
=== CODE BLOCK END ===

=== CODE BLOCK ADDRESS 0x1b33 ===
  0x1b33	call   	0x2a66
  === BLOCK LINK ===
    0x1b38
=== CODE BLOCK END ===

=== CODE BLOCK ADDRESS 0x1b38 ===
  0x1b38	dec    	eax
  0x1b39	mov    	ecx, eax
  0x1b3b	dec    	eax
  0x1b3c	lea    	edx, [0x30b6]
  0x1b42	call   	0x2b88
  === BLOCK LINK ===
    0x1b47
=== CODE BLOCK END ===

=== CODE BLOCK ADDRESS 0x1b47 ===
  0x1b47	dec    	eax
  0x1b48	call   	dword ptr [0x1622]
  === BLOCK LINK ===
    0x1b4e
=== CODE BLOCK END ===

=== CODE BLOCK ADDRESS 0x1b4e ===
  0x1b4e	nop    	dword ptr [eax + eax]
  0x1b53	mov    	ecx, eax
  0x1b55	call   	0x1008
  === BLOCK LINK ===
    0x1b5a
=== CODE BLOCK END ===

=== CODE BLOCK ADDRESS 0x1b5a ===
  0x1b5a	jmp    	0x1be1
  === BLOCK LINK ===
    0x1b5f
=== CODE BLOCK END ===

=== CODE BLOCK ADDRESS 0x1b5f ===
  0x1b5f	cmp    	byte ptr [0x4b02], 0
  0x1b66	je     	0x1b8c
  === BLOCK LINK ===
    0x1b68
=== CODE BLOCK END ===

=== CODE BLOCK ADDRESS 0x1b68 ===
  0x1b68	call   	0x2a66
  === BLOCK LINK ===
    0x1b6d
=== CODE BLOCK END ===

=== CODE BLOCK ADDRESS 0x1b6d ===
  0x1b6d	inc    	esp
  0x1b6e	mov    	ecx, dword ptr [0x4af0]
  0x1b74	dec    	eax
  0x1b75	lea    	edx, [0x30b5]
  0x1b7b	dec    	esp
  === BLOCK LINK ===
    0x1b7c
=== CODE BLOCK END ===

=== CODE BLOCK ADDRESS 0x1b7c ===
  0x1b7c	mov    	eax, dword ptr [0x4cf6]
  0x1b82	dec    	eax
  0x1b83	mov    	ecx, eax
  0x1b85	call   	0x2b88
  === BLOCK LINK ===
    0x1b8a
=== CODE BLOCK END ===

=== CODE BLOCK ADDRESS 0x1b8a ===
  0x1b8a	jmp    	0x1be1
  === BLOCK LINK ===
    0x1b8c
=== CODE BLOCK END ===

=== CODE BLOCK ADDRESS 0x1b8c ===
  0x1b8c	call   	0x2a66
  === BLOCK LINK ===
    0x1b91
=== CODE BLOCK END ===

=== CODE BLOCK ADDRESS 0x1b91 ===
  0x1b91	inc    	esp
  0x1b92	mov    	ecx, dword ptr [0x4ac8]
  0x1b98	dec    	eax
  0x1b99	lea    	edx, [0x3101]
  0x1b9f	dec    	esp
  === BLOCK LINK ===
    0x1ba0
=== CODE BLOCK END ===

=== CODE BLOCK ADDRESS 0x1ba0 ===
  0x1ba0	mov    	eax, dword ptr [0x4cd2]
  0x1ba6	dec    	eax
  0x1ba7	mov    	ecx, eax
  0x1ba9	call   	0x2b88
  === BLOCK LINK ===
    0x1bae
=== CODE BLOCK END ===

=== CODE BLOCK ADDRESS 0x1bae ===
  0x1bae	inc    	ecx
  0x1baf	mov    	ecx, esi
  0x1bb1	call   	0x2a66
  === BLOCK LINK ===
    0x1bb6
=== CODE BLOCK END ===

=== CODE BLOCK ADDRESS 0x1bb6 ===
  0x1bb6	dec    	eax
  0x1bb7	mov    	ecx, eax
  0x1bb9	dec    	esp
  0x1bba	lea    	eax, [0x4ab0]
  0x1bc0	dec    	eax
  === BLOCK LINK ===
    0x1bc1
=== CODE BLOCK END ===

=== CODE BLOCK ADDRESS 0x1bc1 ===
  0x1bc1	lea    	edx, [0x3149]
  0x1bc7	call   	0x2b88
  === BLOCK LINK ===
    0x1bcc
=== CODE BLOCK END ===

=== CODE BLOCK ADDRESS 0x1bcc ===
  0x1bcc	cmp    	byte ptr [0x4a5a], 0
  0x1bd3	je     	0x1be1
  === BLOCK LINK ===
    0x1bd5
=== CODE BLOCK END ===

=== CODE BLOCK ADDRESS 0x1bd5 ===
  0x1bd5	dec    	eax
  0x1bd6	lea    	ecx, [0x4a94]
  0x1bdc	call   	0x17cc
  === BLOCK LINK ===
    0x1be1
=== CODE BLOCK END ===

=== CODE BLOCK ADDRESS 0x1be1 ===
  0x1be1	dec    	eax
  0x1be2	mov    	ecx, dword ptr [0x4440]
  0x1be8	dec    	eax
  0x1be9	cmp    	ecx, -1
  0x1bec	je     	0x1c02
  === BLOCK LINK ===
    0x1bee
=== CODE BLOCK END ===

=== CODE BLOCK ADDRESS 0x1bee ===
  0x1bee	dec    	eax
  0x1bef	call   	dword ptr [0x15a3]
  === BLOCK LINK ===
    0x1bf5
=== CODE BLOCK END ===

=== CODE BLOCK ADDRESS 0x1bf5 ===
  0x1bf5	nop    	dword ptr [eax + eax]
  0x1bfa	dec    	eax
  0x1bfb	or     	dword ptr [0x4426], 0xffffffff
  0x1c02	call   	0x18ac
  === BLOCK LINK ===
    0x1c07
=== CODE BLOCK END ===

=== CODE BLOCK ADDRESS 0x1c07 ===
  0x1c07	dec    	eax
  0x1c08	mov    	edi, eax
  0x1c0a	dec    	eax
  0x1c0b	test   	eax, eax
  0x1c0d	jne    	0x1c1f
  === BLOCK LINK ===
    0x1c0f
=== CODE BLOCK END ===

=== CODE BLOCK ADDRESS 0x1c0f ===
  0x1c0f	dec    	eax
  0x1c10	call   	dword ptr [0x155a]
  === BLOCK LINK ===
    0x1c16
=== CODE BLOCK END ===

=== CODE BLOCK ADDRESS 0x1c16 ===
  0x1c16	nop    	dword ptr [eax + eax]
  0x1c1b	mov    	ebx, eax
  0x1c1d	jmp    	0x1c62
  === BLOCK LINK ===
    0x1c1f
=== CODE BLOCK END ===

=== CODE BLOCK ADDRESS 0x1c1f ===
  0x1c1f	dec    	esp
  0x1c20	lea    	eax, [esp + 0x48]
  0x1c24	mov    	edx, 1
  0x1c29	dec    	eax
  0x1c2a	mov    	ecx, edi
  === BLOCK LINK ===
    0x1c2c
=== CODE BLOCK END ===

=== CODE BLOCK ADDRESS 0x1c2c ===
  0x1c2c	dec    	eax
  0x1c2d	call   	dword ptr [0x17a5]
  === BLOCK LINK ===
    0x1c33
=== CODE BLOCK END ===

=== CODE BLOCK ADDRESS 0x1c33 ===
  0x1c33	nop    	dword ptr [eax + eax]
  0x1c38	test   	eax, eax
  0x1c3a	jne    	0x1c51
  === BLOCK LINK ===
    0x1c3c
=== CODE BLOCK END ===

=== CODE BLOCK ADDRESS 0x1c3c ===
  0x1c3c	dec    	eax
  0x1c3d	call   	dword ptr [0x152d]
  === BLOCK LINK ===
    0x1c43
=== CODE BLOCK END ===

=== CODE BLOCK ADDRESS 0x1c43 ===
  0x1c43	nop    	dword ptr [eax + eax]
  0x1c48	mov    	ebx, eax
  0x1c4a	cmp    	eax, 0x426
  0x1c4f	jne    	0x1c53
  === BLOCK LINK ===
    0x1c51
=== CODE BLOCK END ===

=== CODE BLOCK ADDRESS 0x1c51 ===
  0x1c51	xor    	ebx, ebx
  0x1c53	dec    	eax
  0x1c54	mov    	ecx, edi
  0x1c56	dec    	eax
  0x1c57	call   	dword ptr [0x1763]
  === BLOCK LINK ===
    0x1c5d
=== CODE BLOCK END ===

=== CODE BLOCK ADDRESS 0x1c5d ===
  0x1c5d	nop    	dword ptr [eax + eax]
  0x1c62	test   	ebx, ebx
  0x1c64	je     	0x1c84
  === BLOCK LINK ===
    0x1c66
=== CODE BLOCK END ===

=== CODE BLOCK ADDRESS 0x1c66 ===
  0x1c66	inc    	ecx
  0x1c67	mov    	ecx, esi
  0x1c69	call   	0x2a66
  === BLOCK LINK ===
    0x1c6e
=== CODE BLOCK END ===

=== CODE BLOCK ADDRESS 0x1c6e ===
  0x1c6e	dec    	eax
  0x1c6f	mov    	ecx, eax
  0x1c71	dec    	eax
  0x1c72	lea    	edx, [0x2e38]
  0x1c78	call   	0x2b88
  === BLOCK LINK ===
    0x1c7d
=== CODE BLOCK END ===

=== CODE BLOCK ADDRESS 0x1c7d ===
  0x1c7d	mov    	ecx, ebx
  0x1c7f	call   	0x1008
  === BLOCK LINK ===
    0x1c84
=== CODE BLOCK END ===

=== CODE BLOCK ADDRESS 0x1c84 ===
  0x1c84	mov    	eax, ebx
  0x1c86	dec    	eax
  0x1c87	mov    	ecx, dword ptr [esp + 0x68]
  0x1c8b	dec    	eax
  0x1c8c	xor    	ecx, esp
  === BLOCK LINK ===
    0x1c8e
=== CODE BLOCK END ===

=== CODE BLOCK ADDRESS 0x1c8e ===
  0x1c8e	call   	0x2000
  === BLOCK LINK ===
    0x1c93
=== CODE BLOCK END ===

=== CODE BLOCK ADDRESS 0x1c93 ===
  0x1c93	dec    	esp
  0x1c94	lea    	ebx, [esp + 0x70]
  0x1c98	dec    	ecx
  0x1c99	mov    	ebx, dword ptr [ebx + 0x10]
  0x1c9c	dec    	ecx
  === BLOCK LINK ===
    0x1c9d
=== CODE BLOCK END ===

=== CODE BLOCK ADDRESS 0x1c9d ===
  0x1c9d	mov    	edi, dword ptr [ebx + 0x20]
  0x1ca0	dec    	ecx
  0x1ca1	mov    	esp, ebx
  0x1ca3	inc    	ecx
  0x1ca4	pop    	esi
  === BLOCK LINK ===
    0x1ca5
=== CODE BLOCK END ===

=== CODE BLOCK ADDRESS 0x1ca5 ===
  0x1ca5	ret    	
  0x1ca6	int3   	
  0x1ca7	int3   	
  0x1ca8	int3   	
  0x1ca9	int3   	
  === BLOCK LINK ===
    0x1caa
=== CODE BLOCK END ===

=== CODE BLOCK ADDRESS 0x1caa ===
  0x1caa	int3   	
  0x1cab	int3   	
  0x1cac	int3   	
  0x1cad	int3   	
  0x1cae	int3   	
  === BLOCK LINK ===
    0x1caf
=== CODE BLOCK END ===

=== CODE BLOCK ADDRESS 0x1caf ===
  0x1caf	int3   	
  0x1cb0	dec    	eax
  0x1cb1	sub    	esp, 0x28
  0x1cb4	call   	0x1ccc
  === BLOCK LINK ===
    0x1cb9
=== CODE BLOCK END ===

=== CODE BLOCK ADDRESS 0x1cb9 ===
  0x1cb9	dec    	eax
  0x1cba	or     	dword ptr [eax], 0x20
  0x1cbd	xor    	eax, eax
  0x1cbf	dec    	eax
  0x1cc0	add    	esp, 0x28
  === BLOCK LINK ===
    0x1cc3
=== CODE BLOCK END ===

=== CODE BLOCK ADDRESS 0x1cc3 ===
  0x1cc3	ret    	
  0x1cc4	int3   	
  0x1cc5	int3   	
  0x1cc6	int3   	
  0x1cc7	int3   	
  === BLOCK LINK ===
    0x1cc8
=== CODE BLOCK END ===

=== CODE BLOCK ADDRESS 0x1cc8 ===
  0x1cc8	int3   	
  0x1cc9	int3   	
  0x1cca	int3   	
  0x1ccb	int3   	
  0x1ccc	dec    	eax
  === BLOCK LINK ===
    0x1ccd
=== CODE BLOCK END ===

=== CODE BLOCK ADDRESS 0x1ccd ===
  0x1ccd	lea    	eax, [0x435d]
  0x1cd3	ret    	
  0x1cd4	int3   	
  0x1cd5	int3   	
  0x1cd6	int3   	
  === BLOCK LINK ===
    0x1cd7
=== CODE BLOCK END ===

=== CODE BLOCK ADDRESS 0x2000 ===
=== CODE BLOCK END ===

=== CODE BLOCK ADDRESS 0x1cd7 ===
  0x1cd7	int3   	
  0x1cd8	int3   	
  0x1cd9	int3   	
  0x1cda	int3   	
  0x1cdb	int3   	
  === BLOCK LINK ===
    0x1cdc
=== CODE BLOCK END ===

=== CODE BLOCK ADDRESS 0x1cdc ===
  0x1cdc	int3   	
  0x1cdd	int3   	
  0x1cde	int3   	
  0x1cdf	int3   	
  0x1ce0	dec    	eax
  === BLOCK LINK ===
    0x1ce1
=== CODE BLOCK END ===

=== CODE BLOCK ADDRESS 0x1ce1 ===
  0x1ce1	sub    	esp, 0x28
  0x1ce4	call   	0x1ccc
  === BLOCK LINK ===
    0x1ce9
=== CODE BLOCK END ===

=== CODE BLOCK ADDRESS 0x1ce9 ===
  0x1ce9	dec    	eax
  0x1cea	or     	dword ptr [eax], 4
  0x1ced	call   	0x1d04
  === BLOCK LINK ===
    0x1cf2
=== CODE BLOCK END ===

=== CODE BLOCK ADDRESS 0x1cf2 ===
  0x1cf2	dec    	eax
  0x1cf3	or     	dword ptr [eax], 2
  0x1cf6	xor    	eax, eax
  0x1cf8	dec    	eax
  0x1cf9	add    	esp, 0x28
  === BLOCK LINK ===
    0x1cfc
=== CODE BLOCK END ===

=== CODE BLOCK ADDRESS 0x1cfc ===
  0x1cfc	ret    	
  0x1cfd	int3   	
  0x1cfe	int3   	
  0x1cff	int3   	
  0x1d00	int3   	
  === BLOCK LINK ===
    0x1d01
=== CODE BLOCK END ===

=== CODE BLOCK ADDRESS 0x2b7a ===
=== CODE BLOCK END ===

=== CODE BLOCK ADDRESS 0x1d01 ===
  0x1d01	int3   	
  0x1d02	int3   	
  0x1d03	int3   	
  0x1d04	dec    	eax
  0x1d05	lea    	eax, [0x432d]
  === BLOCK LINK ===
    0x1d0b
=== CODE BLOCK END ===

=== CODE BLOCK ADDRESS 0x1d0b ===
  0x1d0b	ret    	
  0x1d0c	int3   	
  0x1d0d	int3   	
  0x1d0e	int3   	
  0x1d0f	int3   	
  === BLOCK LINK ===
    0x1d10
=== CODE BLOCK END ===

=== CODE BLOCK ADDRESS 0x1d10 ===
  0x1d10	int3   	
  0x1d11	int3   	
  0x1d12	int3   	
  0x1d13	int3   	
  0x1d14	int3   	
  === BLOCK LINK ===
    0x1d15
=== CODE BLOCK END ===

=== CODE BLOCK ADDRESS 0x1d15 ===
  0x1d15	int3   	
  0x1d16	int3   	
  0x1d17	int3   	
  0x1d18	int3   	
  0x1d19	int3   	
  === BLOCK LINK ===
    0x1d1a
=== CODE BLOCK END ===

=== CODE BLOCK ADDRESS 0x1d1a ===
  0x1d1a	int3   	
  0x1d1b	int3   	
  0x1d1c	int3   	
  0x1d1d	int3   	
  0x1d1e	int3   	
  === BLOCK LINK ===
    0x1d1f
=== CODE BLOCK END ===

=== CODE BLOCK ADDRESS 0x1d1f ===
  0x1d1f	int3   	
  0x1d20	dec    	eax
  0x1d21	sub    	esp, 0x28
  0x1d24	call   	0x1ccc
  === BLOCK LINK ===
    0x1d29
=== CODE BLOCK END ===

=== CODE BLOCK ADDRESS 0x1d29 ===
  0x1d29	dec    	eax
  0x1d2a	or     	dword ptr [eax], 0x18
  0x1d2d	call   	0x1d04
  === BLOCK LINK ===
    0x1d32
=== CODE BLOCK END ===

=== CODE BLOCK ADDRESS 0x1d32 ===
  0x1d32	dec    	eax
  0x1d33	or     	dword ptr [eax], 4
  0x1d36	xor    	eax, eax
  0x1d38	dec    	eax
  0x1d39	add    	esp, 0x28
  === BLOCK LINK ===
    0x1d3c
=== CODE BLOCK END ===

=== CODE BLOCK ADDRESS 0x1d3c ===
  0x1d3c	ret    	
  0x1d3d	int3   	
  0x1d3e	int3   	
  0x1d3f	int3   	
  0x1d40	int3   	
  === BLOCK LINK ===
    0x1d41
=== CODE BLOCK END ===

=== CODE BLOCK ADDRESS 0x1d41 ===
  0x1d41	int3   	
  0x1d42	int3   	
  0x1d43	int3   	
  0x1d44	int3   	
  0x1d45	int3   	
  === BLOCK LINK ===
    0x1d46
=== CODE BLOCK END ===

=== CODE BLOCK ADDRESS 0x1d46 ===
  0x1d46	int3   	
  0x1d47	int3   	
  0x1d48	int3   	
  0x1d49	int3   	
  0x1d4a	int3   	
  === BLOCK LINK ===
    0x1d4b
=== CODE BLOCK END ===

=== CODE BLOCK ADDRESS 0x1d4b ===
  0x1d4b	int3   	
  0x1d4c	int3   	
  0x1d4d	int3   	
  0x1d4e	int3   	
  0x1d4f	int3   	
  === BLOCK LINK ===
    0x1d50
=== CODE BLOCK END ===

=== CODE BLOCK ADDRESS 0x1d50 ===
  0x1d50	inc    	eax
  0x1d51	push   	ebx
  0x1d52	dec    	eax
  0x1d53	sub    	esp, 0x20
  0x1d56	mov    	ecx, 1
  === BLOCK LINK ===
    0x1d5b
=== CODE BLOCK END ===

=== CODE BLOCK ADDRESS 0x1d5b ===
  0x1d5b	call   	0x2b32
  === BLOCK LINK ===
    0x1d60
=== CODE BLOCK END ===

=== CODE BLOCK ADDRESS 0x1d60 ===
  0x1d60	call   	0x23b0
  === BLOCK LINK ===
    0x1d65
=== CODE BLOCK END ===

=== CODE BLOCK ADDRESS 0x1d65 ===
  0x1d65	mov    	ecx, eax
  0x1d67	call   	0x2b3e
  === BLOCK LINK ===
    0x1d6c
=== CODE BLOCK END ===

=== CODE BLOCK ADDRESS 0x1d6c ===
  0x1d6c	call   	0x23a4
  === BLOCK LINK ===
    0x1d71
=== CODE BLOCK END ===

=== CODE BLOCK ADDRESS 0x1d71 ===
  0x1d71	mov    	ebx, eax
  0x1d73	call   	0x2a8a
  === BLOCK LINK ===
    0x1d78
=== CODE BLOCK END ===

=== CODE BLOCK ADDRESS 0x1d78 ===
  0x1d78	mov    	ecx, 1
  0x1d7d	mov    	dword ptr [eax], ebx
  0x1d7f	call   	0x20b8
  === BLOCK LINK ===
    0x1d84
=== CODE BLOCK END ===

=== CODE BLOCK ADDRESS 0x1d84 ===
  0x1d84	test   	al, al
  0x1d86	je     	0x1de6
  === BLOCK LINK ===
    0x1d88
=== CODE BLOCK END ===

=== CODE BLOCK ADDRESS 0x1d88 ===
  0x1d88	call   	0x2650
  === BLOCK LINK ===
    0x1d8d
=== CODE BLOCK END ===

=== CODE BLOCK ADDRESS 0x1d8d ===
  0x1d8d	dec    	eax
  0x1d8e	lea    	ecx, [0x90c]
  0x1d94	call   	0x22c4
  === BLOCK LINK ===
    0x1d99
=== CODE BLOCK END ===

=== CODE BLOCK ADDRESS 0x1d99 ===
  0x1d99	call   	0x2398
  === BLOCK LINK ===
    0x1d9e
=== CODE BLOCK END ===

=== CODE BLOCK ADDRESS 0x1d9e ===
  0x1d9e	mov    	ecx, eax
  0x1da0	call   	0x2ad2
  === BLOCK LINK ===
    0x1da5
=== CODE BLOCK END ===

=== CODE BLOCK ADDRESS 0x1da5 ===
  0x1da5	test   	eax, eax
  0x1da7	jne    	0x1de6
  === BLOCK LINK ===
    0x1da9
=== CODE BLOCK END ===

=== CODE BLOCK ADDRESS 0x1da9 ===
  0x1da9	call   	0x23bc
  === BLOCK LINK ===
    0x1dae
=== CODE BLOCK END ===

=== CODE BLOCK ADDRESS 0x1dae ===
  0x1dae	call   	0x23e0
  === BLOCK LINK ===
    0x1db3
=== CODE BLOCK END ===

=== CODE BLOCK ADDRESS 0x1db3 ===
  0x1db3	call   	0x23e0
  === BLOCK LINK ===
    0x1db8
=== CODE BLOCK END ===

=== CODE BLOCK ADDRESS 0x1db8 ===
  0x1db8	call   	0x23a4
  === BLOCK LINK ===
    0x1dbd
=== CODE BLOCK END ===

=== CODE BLOCK ADDRESS 0x1dbd ===
  0x1dbd	mov    	ecx, eax
  0x1dbf	call   	0x2ac6
  === BLOCK LINK ===
    0x1dc4
=== CODE BLOCK END ===

=== CODE BLOCK ADDRESS 0x1dc4 ===
  0x1dc4	call   	0x23d0
  === BLOCK LINK ===
    0x1dc9
=== CODE BLOCK END ===

=== CODE BLOCK ADDRESS 0x1dc9 ===
  0x1dc9	test   	al, al
  0x1dcb	je     	0x1dd2
  === BLOCK LINK ===
    0x1dcd
=== CODE BLOCK END ===

=== CODE BLOCK ADDRESS 0x1dcd ===
  0x1dcd	call   	0x2b0e
  === BLOCK LINK ===
    0x1dd2
=== CODE BLOCK END ===

=== CODE BLOCK ADDRESS 0x1dd2 ===
  0x1dd2	call   	0x23a4
  === BLOCK LINK ===
    0x1dd7
=== CODE BLOCK END ===

=== CODE BLOCK ADDRESS 0x1dd7 ===
  0x1dd7	call   	0x2594
  === BLOCK LINK ===
    0x1ddc
=== CODE BLOCK END ===

=== CODE BLOCK ADDRESS 0x1ddc ===
  0x1ddc	test   	eax, eax
  0x1dde	jne    	0x1de6
  === BLOCK LINK ===
    0x1de0
=== CODE BLOCK END ===

=== CODE BLOCK ADDRESS 0x1de0 ===
  0x1de0	dec    	eax
  0x1de1	add    	esp, 0x20
  0x1de4	pop    	ebx
  0x1de5	ret    	
  0x1de6	mov    	ecx, 7
  === BLOCK LINK ===
    0x1deb
=== CODE BLOCK END ===

=== CODE BLOCK ADDRESS 0x1deb ===
  0x1deb	call   	0x2440
  === BLOCK LINK ===
    0x1df0
=== CODE BLOCK END ===

=== CODE BLOCK ADDRESS 0x1df0 ===
  0x1df0	int3   	
  0x1df1	int3   	
  0x1df2	int3   	
  0x1df3	int3   	
  0x1df4	int3   	
  === BLOCK LINK ===
    0x1df5
=== CODE BLOCK END ===

=== CODE BLOCK ADDRESS 0x1df5 ===
  0x1df5	int3   	
  0x1df6	int3   	
  0x1df7	int3   	
  0x1df8	int3   	
  0x1df9	int3   	
  === BLOCK LINK ===
    0x1dfa
=== CODE BLOCK END ===

=== CODE BLOCK ADDRESS 0x1dfa ===
  0x1dfa	int3   	
  0x1dfb	int3   	
  0x1dfc	int3   	
  0x1dfd	int3   	
  0x1dfe	int3   	
  === BLOCK LINK ===
    0x1dff
=== CODE BLOCK END ===

=== CODE BLOCK ADDRESS 0x1dff ===
  0x1dff	int3   	
  0x1e00	dec    	eax
  0x1e01	sub    	esp, 0x28
  0x1e04	call   	0x23ec
  === BLOCK LINK ===
    0x1e09
=== CODE BLOCK END ===

=== CODE BLOCK ADDRESS 0x1e09 ===
  0x1e09	xor    	eax, eax
  0x1e0b	dec    	eax
  0x1e0c	add    	esp, 0x28
  0x1e0f	ret    	
  0x1e10	int3   	
  === BLOCK LINK ===
    0x1e11
=== CODE BLOCK END ===

=== CODE BLOCK ADDRESS 0x1008 ===
  0x1008	inc    	eax
  0x1009	push   	ebx
  === BLOCK LINK ===
    0x100a
=== CODE BLOCK END ===

=== CODE BLOCK ADDRESS 0x1e11 ===
  0x1e11	int3   	
  0x1e12	int3   	
  0x1e13	int3   	
  0x1e14	int3   	
  0x1e15	int3   	
  === BLOCK LINK ===
    0x1e16
=== CODE BLOCK END ===

=== CODE BLOCK ADDRESS 0x1e16 ===
  0x1e16	int3   	
  0x1e17	int3   	
  0x1e18	int3   	
  0x1e19	int3   	
  0x1e1a	int3   	
  === BLOCK LINK ===
    0x1e1b
=== CODE BLOCK END ===

=== CODE BLOCK ADDRESS 0x1e1b ===
  0x1e1b	int3   	
  0x1e1c	int3   	
  0x1e1d	int3   	
  0x1e1e	int3   	
  0x1e1f	int3   	
  === BLOCK LINK ===
    0x1e20
=== CODE BLOCK END ===

=== CODE BLOCK ADDRESS 0x1e20 ===
  0x1e20	dec    	eax
  0x1e21	sub    	esp, 0x28
  0x1e24	call   	0x25f8
  === BLOCK LINK ===
    0x1e29
=== CODE BLOCK END ===

=== CODE BLOCK ADDRESS 0x1e29 ===
  0x1e29	call   	0x23a4
  === BLOCK LINK ===
    0x1e2e
=== CODE BLOCK END ===

=== CODE BLOCK ADDRESS 0x1e2e ===
  0x1e2e	mov    	ecx, eax
  0x1e30	dec    	eax
  0x1e31	add    	esp, 0x28
  0x1e34	jmp    	0x2b4a
  === BLOCK LINK ===
    0x1e39
=== CODE BLOCK END ===

=== CODE BLOCK ADDRESS 0x1e39 ===
  0x1e39	int3   	
  0x1e3a	int3   	
  0x1e3b	int3   	
  0x1e3c	int3   	
  0x1e3d	int3   	
  === BLOCK LINK ===
    0x1e3e
=== CODE BLOCK END ===

=== CODE BLOCK ADDRESS 0x1e3e ===
  0x1e3e	int3   	
  0x1e3f	int3   	
  0x1e40	dec    	eax
  0x1e41	mov    	dword ptr [esp + 8], ebx
  0x1e45	dec    	eax
  === BLOCK LINK ===
    0x1e46
=== CODE BLOCK END ===

=== CODE BLOCK ADDRESS 0x1e46 ===
  0x1e46	mov    	dword ptr [esp + 0x10], esi
  0x1e4a	push   	edi
  0x1e4b	dec    	eax
  0x1e4c	sub    	esp, 0x30
  0x1e4f	mov    	ecx, 1
  === BLOCK LINK ===
    0x1e54
=== CODE BLOCK END ===

=== CODE BLOCK ADDRESS 0x1e54 ===
  0x1e54	call   	0x2068
  === BLOCK LINK ===
    0x1e59
=== CODE BLOCK END ===

=== CODE BLOCK ADDRESS 0x1e59 ===
  0x1e59	test   	al, al
  0x1e5b	je     	0x1f97
  === BLOCK LINK ===
    0x1e61
=== CODE BLOCK END ===

=== CODE BLOCK ADDRESS 0x1e61 ===
  0x1e61	inc    	eax
  0x1e62	xor    	dh, dh
  0x1e64	inc    	eax
  0x1e65	mov    	byte ptr [esp + 0x20], dh
  0x1e69	call   	0x2028
  === BLOCK LINK ===
    0x1e6e
=== CODE BLOCK END ===

=== CODE BLOCK ADDRESS 0x1e6e ===
  0x1e6e	mov    	bl, al
  0x1e70	mov    	ecx, dword ptr [0x41ca]
  0x1e76	cmp    	ecx, 1
  0x1e79	je     	0x1fa2
  === BLOCK LINK ===
    0x1e7f
=== CODE BLOCK END ===

=== CODE BLOCK ADDRESS 0x1e7f ===
  0x1e7f	test   	ecx, ecx
  0x1e81	jne    	0x1ecd
  === BLOCK LINK ===
    0x1e83
=== CODE BLOCK END ===

=== CODE BLOCK ADDRESS 0x1e83 ===
  0x1e83	mov    	dword ptr [0x41b3], 1
  0x1e8d	dec    	eax
  0x1e8e	lea    	edx, [0x15ac]
  0x1e94	dec    	eax
  0x1e95	lea    	ecx, [0x1575]
  === BLOCK LINK ===
    0x1e9b
=== CODE BLOCK END ===

=== CODE BLOCK ADDRESS 0x1e9b ===
  0x1e9b	call   	0x2a42
  === BLOCK LINK ===
    0x1ea0
=== CODE BLOCK END ===

=== CODE BLOCK ADDRESS 0x1ea0 ===
  0x1ea0	test   	eax, eax
  0x1ea2	je     	0x1eae
  === BLOCK LINK ===
    0x1ea4
=== CODE BLOCK END ===

=== CODE BLOCK ADDRESS 0x1ea4 ===
  0x1ea4	mov    	eax, 0xff
  0x1ea9	jmp    	0x1f87
  === BLOCK LINK ===
    0x1eae
=== CODE BLOCK END ===

=== CODE BLOCK ADDRESS 0x1eae ===
  0x1eae	dec    	eax
  0x1eaf	lea    	edx, [0x1553]
  0x1eb5	dec    	eax
  0x1eb6	lea    	ecx, [0x153c]
  0x1ebc	call   	0x2a36
  === BLOCK LINK ===
    0x1ec1
=== CODE BLOCK END ===

=== CODE BLOCK ADDRESS 0x1ec1 ===
  0x1ec1	mov    	dword ptr [0x4175], 2
  0x1ecb	jmp    	0x1ed5
  === BLOCK LINK ===
    0x1ecd
=== CODE BLOCK END ===

=== CODE BLOCK ADDRESS 0x1ecd ===
  0x1ecd	inc    	eax
  0x1ece	mov    	dh, 1
  0x1ed0	inc    	eax
  0x1ed1	mov    	byte ptr [esp + 0x20], dh
  0x1ed5	mov    	cl, bl
  === BLOCK LINK ===
    0x1ed7
=== CODE BLOCK END ===

=== CODE BLOCK ADDRESS 0x1ed7 ===
  0x1ed7	call   	0x2210
  === BLOCK LINK ===
    0x1edc
=== CODE BLOCK END ===

=== CODE BLOCK ADDRESS 0x1edc ===
  0x1edc	call   	0x2410
  === BLOCK LINK ===
    0x1ee1
=== CODE BLOCK END ===

=== CODE BLOCK ADDRESS 0x1ee1 ===
  0x1ee1	dec    	eax
  0x1ee2	mov    	ebx, eax
  0x1ee4	dec    	eax
  0x1ee5	cmp    	dword ptr [eax], 0
  0x1ee8	je     	0x1f08
  === BLOCK LINK ===
    0x1eea
=== CODE BLOCK END ===

=== CODE BLOCK ADDRESS 0x1eea ===
  0x1eea	dec    	eax
  0x1eeb	mov    	ecx, eax
  0x1eed	call   	0x2170
  === BLOCK LINK ===
    0x1ef2
=== CODE BLOCK END ===

=== CODE BLOCK ADDRESS 0x1ef2 ===
  0x1ef2	test   	al, al
  0x1ef4	je     	0x1f08
  === BLOCK LINK ===
    0x1ef6
=== CODE BLOCK END ===

=== CODE BLOCK ADDRESS 0x1ef6 ===
  0x1ef6	inc    	ebp
  0x1ef7	xor    	eax, eax
  0x1ef9	inc    	ecx
  0x1efa	lea    	edx, [eax + 2]
  0x1efd	xor    	ecx, ecx
  === BLOCK LINK ===
    0x1eff
=== CODE BLOCK END ===

=== CODE BLOCK ADDRESS 0x1eff ===
  0x1eff	dec    	eax
  0x1f00	mov    	eax, dword ptr [ebx]
  0x1f02	call   	dword ptr [0x14e8]
  === BLOCK LINK ===
    0x1f08
=== CODE BLOCK END ===

=== CODE BLOCK ADDRESS 0x1f08 ===
  0x1f08	call   	0x2420
  === BLOCK LINK ===
    0x1f0d
=== CODE BLOCK END ===

=== CODE BLOCK ADDRESS 0x1f0d ===
  0x1f0d	dec    	eax
  0x1f0e	mov    	ebx, eax
  0x1f10	dec    	eax
  0x1f11	cmp    	dword ptr [eax], 0
  0x1f14	je     	0x1f2a
  === BLOCK LINK ===
    0x1f16
=== CODE BLOCK END ===

=== CODE BLOCK ADDRESS 0x1f16 ===
  0x1f16	dec    	eax
  0x1f17	mov    	ecx, eax
  0x1f19	call   	0x2170
  === BLOCK LINK ===
    0x1f1e
=== CODE BLOCK END ===

=== CODE BLOCK ADDRESS 0x1f1e ===
  0x1f1e	test   	al, al
  0x1f20	je     	0x1f2a
  === BLOCK LINK ===
    0x1f22
=== CODE BLOCK END ===

=== CODE BLOCK ADDRESS 0x1f22 ===
  0x1f22	dec    	eax
  0x1f23	mov    	ecx, dword ptr [ebx]
  0x1f25	call   	0x2a5a
  === BLOCK LINK ===
    0x1f2a
=== CODE BLOCK END ===

=== CODE BLOCK ADDRESS 0x1f2a ===
  0x1f2a	call   	0x2af6
  === BLOCK LINK ===
    0x1f2f
=== CODE BLOCK END ===

=== CODE BLOCK ADDRESS 0x1f2f ===
  0x1f2f	dec    	eax
  0x1f30	mov    	edi, eax
  0x1f32	call   	0x2a7e
  === BLOCK LINK ===
    0x1f37
=== CODE BLOCK END ===

=== CODE BLOCK ADDRESS 0x1f37 ===
  0x1f37	dec    	eax
  0x1f38	mov    	ebx, dword ptr [eax]
  0x1f3a	call   	0x2a72
  === BLOCK LINK ===
    0x1f3f
=== CODE BLOCK END ===

=== CODE BLOCK ADDRESS 0x1f3f ===
  0x1f3f	dec    	esp
  0x1f40	mov    	eax, edi
  0x1f42	dec    	eax
  0x1f43	mov    	edx, ebx
  0x1f45	mov    	ecx, dword ptr [eax]
  === BLOCK LINK ===
    0x1f47
=== CODE BLOCK END ===

=== CODE BLOCK ADDRESS 0x1f47 ===
  0x1f47	call   	0x191c
  === BLOCK LINK ===
    0x1f4c
=== CODE BLOCK END ===

=== CODE BLOCK ADDRESS 0x1f4c ===
  0x1f4c	mov    	ebx, eax
  0x1f4e	call   	0x25a0
  === BLOCK LINK ===
    0x1f53
=== CODE BLOCK END ===

=== CODE BLOCK ADDRESS 0x1f53 ===
  0x1f53	test   	al, al
  0x1f55	je     	0x1fac
  === BLOCK LINK ===
    0x1f57
=== CODE BLOCK END ===

=== CODE BLOCK ADDRESS 0x1f57 ===
  0x1f57	inc    	eax
  0x1f58	test   	dh, dh
  0x1f5a	jne    	0x1f61
  === BLOCK LINK ===
    0x1f5c
=== CODE BLOCK END ===

=== CODE BLOCK ADDRESS 0x1f5c ===
  0x1f5c	call   	0x2aba
  === BLOCK LINK ===
    0x1f61
=== CODE BLOCK END ===

=== CODE BLOCK ADDRESS 0x1f61 ===
  0x1f61	xor    	edx, edx
  0x1f63	mov    	cl, 1
  0x1f65	call   	0x223c
  === BLOCK LINK ===
    0x1f6a
=== CODE BLOCK END ===

=== CODE BLOCK ADDRESS 0x1f6a ===
  0x1f6a	mov    	eax, ebx
  0x1f6c	jmp    	0x1f87
  === BLOCK LINK ===
    0x1f6e
=== CODE BLOCK END ===

=== CODE BLOCK ADDRESS 0x1f6e ===
  0x1f6e	mov    	ebx, eax
  0x1f70	call   	0x25a0
  === BLOCK LINK ===
    0x1f75
=== CODE BLOCK END ===

=== CODE BLOCK ADDRESS 0x1f75 ===
  0x1f75	test   	al, al
  0x1f77	je     	0x1fb4
  === BLOCK LINK ===
    0x1f79
=== CODE BLOCK END ===

=== CODE BLOCK ADDRESS 0x1f79 ===
  0x1f79	cmp    	byte ptr [esp + 0x20], 0
  0x1f7e	jne    	0x1f85
  === BLOCK LINK ===
    0x1f80
=== CODE BLOCK END ===

=== CODE BLOCK ADDRESS 0x1f80 ===
  0x1f80	call   	0x2a4e
  === BLOCK LINK ===
    0x1f85
=== CODE BLOCK END ===

=== CODE BLOCK ADDRESS 0x1f85 ===
  0x1f85	mov    	eax, ebx
  0x1f87	dec    	eax
  0x1f88	mov    	ebx, dword ptr [esp + 0x40]
  0x1f8c	dec    	eax
  0x1f8d	mov    	esi, dword ptr [esp + 0x48]
  === BLOCK LINK ===
    0x1f91
=== CODE BLOCK END ===

=== CODE BLOCK ADDRESS 0x1f91 ===
  0x1f91	dec    	eax
  0x1f92	add    	esp, 0x30
  0x1f95	pop    	edi
  0x1f96	ret    	
  0x1f97	mov    	ecx, 7
  === BLOCK LINK ===
    0x1f9c
=== CODE BLOCK END ===

=== CODE BLOCK ADDRESS 0x1f9c ===
  0x1f9c	call   	0x2440
  === BLOCK LINK ===
    0x1fa1
=== CODE BLOCK END ===

=== CODE BLOCK ADDRESS 0x1fa1 ===
  0x1fa1	nop    	
  0x1fa2	mov    	ecx, 7
  0x1fa7	call   	0x2440
  === BLOCK LINK ===
    0x1fac
=== CODE BLOCK END ===

=== CODE BLOCK ADDRESS 0x1fac ===
  0x1fac	mov    	ecx, ebx
  0x1fae	call   	0x2b56
  === BLOCK LINK ===
    0x1fb3
=== CODE BLOCK END ===

=== CODE BLOCK ADDRESS 0x1fb3 ===
  0x1fb3	nop    	
  0x1fb4	mov    	ecx, ebx
  0x1fb6	call   	0x2aea
  === BLOCK LINK ===
    0x1fbb
=== CODE BLOCK END ===

=== CODE BLOCK ADDRESS 0x1fbb ===
  0x1fbb	nop    	
  0x1fbc	int3   	
  0x1fbd	int3   	
  0x1fbe	int3   	
  0x1fbf	int3   	
  === BLOCK LINK ===
    0x1fc0
=== CODE BLOCK END ===

=== CODE BLOCK ADDRESS 0x1fc0 ===
  0x1fc0	int3   	
  0x1fc1	int3   	
  0x1fc2	int3   	
  0x1fc3	int3   	
  0x1fc4	int3   	
  === BLOCK LINK ===
    0x1fc5
=== CODE BLOCK END ===

=== CODE BLOCK ADDRESS 0x1fc5 ===
  0x1fc5	int3   	
  0x1fc6	int3   	
  0x1fc7	int3   	
  0x1fc8	int3   	
  0x1fc9	int3   	
  === BLOCK LINK ===
    0x1fca
=== CODE BLOCK END ===

=== CODE BLOCK ADDRESS 0x1fca ===
  0x1fca	int3   	
  0x1fcb	int3   	
  0x1fcc	int3   	
  0x1fcd	int3   	
  0x1fce	int3   	
  === BLOCK LINK ===
    0x1fcf
=== CODE BLOCK END ===

=== CODE BLOCK ADDRESS 0x1fcf ===
  0x1fcf	int3   	
  0x1fd0	dec    	eax
  0x1fd1	sub    	esp, 0x28
  0x1fd4	call   	0x22e4
  === BLOCK LINK ===
    0x1fd9
=== CODE BLOCK END ===

=== CODE BLOCK ADDRESS 0x1fd9 ===
  0x1fd9	dec    	eax
  0x1fda	add    	esp, 0x28
  0x1fdd	jmp    	0x1e40
  === BLOCK LINK ===
    0x1fe2
=== CODE BLOCK END ===

=== CODE BLOCK ADDRESS 0x1fe2 ===
  0x1fe2	int3   	
  0x1fe3	int3   	
  0x1fe4	int3   	
  0x1fe5	int3   	
  0x1fe6	int3   	
  === BLOCK LINK ===
    0x1fe7
=== CODE BLOCK END ===

=== CODE BLOCK ADDRESS 0x1fe7 ===
  0x1fe7	int3   	
  0x1fe8	int3   	
  0x1fe9	int3   	
  0x1fea	int3   	
  0x1feb	int3   	
  === BLOCK LINK ===
    0x1fec
=== CODE BLOCK END ===

=== CODE BLOCK ADDRESS 0x1fec ===
  0x1fec	int3   	
  0x1fed	int3   	
  0x1fee	int3   	
  0x1fef	int3   	
  0x1ff0	int3   	
  === BLOCK LINK ===
    0x1ff1
=== CODE BLOCK END ===

=== CODE BLOCK ADDRESS 0x1ff1 ===
  0x1ff1	int3   	
  0x1ff2	int3   	
  0x1ff3	int3   	
  0x1ff4	int3   	
  0x1ff5	int3   	
  === BLOCK LINK ===
    0x1ff6
=== CODE BLOCK END ===

=== CODE BLOCK ADDRESS 0x1ff6 ===
  0x1ff6	nop    	word ptr [eax + eax]
  0x2000	dec    	eax
  0x2001	cmp    	ecx, dword ptr [0x3ff9]
  0x2007	bnd jne  	0x201c
  0x200a	dec    	eax
  === BLOCK LINK ===
    0x200b
=== CODE BLOCK END ===

=== CODE BLOCK ADDRESS 0x200b ===
  0x200b	rol    	ecx, 0x10
  0x200e	test   	cx, 0xffff
  0x2013	bnd jne  	0x2018
  0x2016	bnd ret  	
  0x2018	dec    	eax
  === BLOCK LINK ===
    0x2019
=== CODE BLOCK END ===

=== CODE BLOCK ADDRESS 0x2019 ===
  0x2019	ror    	ecx, 0x10
  0x201c	jmp    	0x2750
  === BLOCK LINK ===
    0x2021
=== CODE BLOCK END ===

=== CODE BLOCK ADDRESS 0x2021 ===
  0x2021	int3   	
  0x2022	int3   	
  0x2023	int3   	
  0x2024	int3   	
  0x2025	int3   	
  === BLOCK LINK ===
    0x2026
=== CODE BLOCK END ===

=== CODE BLOCK ADDRESS 0x2026 ===
  0x2026	int3   	
  0x2027	int3   	
  0x2028	dec    	eax
  0x2029	sub    	esp, 0x28
  0x202c	call   	0x2a24
  === BLOCK LINK ===
    0x2031
=== CODE BLOCK END ===

=== CODE BLOCK ADDRESS 0x2031 ===
  0x2031	test   	eax, eax
  0x2033	je     	0x2056
  === BLOCK LINK ===
    0x2035
=== CODE BLOCK END ===

=== CODE BLOCK ADDRESS 0x2035 ===
  0x2035	dec    	eax
  0x2037	mov    	eax, dword ptr [0x30]
  0x203e	dec    	eax
  0x203f	mov    	ecx, dword ptr [eax + 8]
  0x2042	jmp    	0x2049
  === BLOCK LINK ===
    0x2044
=== CODE BLOCK END ===

=== CODE BLOCK ADDRESS 0x2044 ===
  0x2044	dec    	eax
  0x2045	cmp    	ecx, eax
  0x2047	je     	0x205d
  === BLOCK LINK ===
    0x2049
=== CODE BLOCK END ===

=== CODE BLOCK ADDRESS 0x2049 ===
  0x2049	xor    	eax, eax
  0x204b	.byte  	0xf0
  0x204c	dec    	eax
  0x204d	cmpxchg  	dword ptr [0x3ff4], ecx
  0x2054	jne    	0x2044
  === BLOCK LINK ===
    0x2056
=== CODE BLOCK END ===

=== CODE BLOCK ADDRESS 0x2056 ===
  0x2056	xor    	al, al
  0x2058	dec    	eax
  0x2059	add    	esp, 0x28
  0x205c	ret    	
  0x205d	mov    	al, 1
  === BLOCK LINK ===
    0x205f
=== CODE BLOCK END ===

=== CODE BLOCK ADDRESS 0x205f ===
  0x205f	jmp    	0x2058
  === BLOCK LINK ===
    0x2061
=== CODE BLOCK END ===

=== CODE BLOCK ADDRESS 0x2061 ===
  0x2061	int3   	
  0x2062	int3   	
  0x2063	int3   	
  0x2064	int3   	
  0x2065	int3   	
  === BLOCK LINK ===
    0x2066
=== CODE BLOCK END ===

=== CODE BLOCK ADDRESS 0x2066 ===
  0x2066	int3   	
  0x2067	int3   	
  0x2068	inc    	eax
  0x2069	push   	ebx
  0x206a	dec    	eax
  === BLOCK LINK ===
    0x206b
=== CODE BLOCK END ===

=== CODE BLOCK ADDRESS 0x206b ===
  0x206b	sub    	esp, 0x20
  0x206e	movzx  	eax, byte ptr [0x400c]
  0x2075	test   	ecx, ecx
  0x2077	mov    	ebx, 1
  0x207c	cmove  	eax, ebx
  === BLOCK LINK ===
    0x207f
=== CODE BLOCK END ===

=== CODE BLOCK ADDRESS 0x207f ===
  0x207f	mov    	byte ptr [0x3ffc], al
  0x2085	call   	0x28a0
  === BLOCK LINK ===
    0x208a
=== CODE BLOCK END ===

=== CODE BLOCK ADDRESS 0x208a ===
  0x208a	call   	0x23d0
  === BLOCK LINK ===
    0x208f
=== CODE BLOCK END ===

=== CODE BLOCK ADDRESS 0x208f ===
  0x208f	test   	al, al
  0x2091	jne    	0x2097
  === BLOCK LINK ===
    0x2093
=== CODE BLOCK END ===

=== CODE BLOCK ADDRESS 0x2093 ===
  0x2093	xor    	al, al
  0x2095	jmp    	0x20ab
  === BLOCK LINK ===
    0x2097
=== CODE BLOCK END ===

=== CODE BLOCK ADDRESS 0x2097 ===
  0x2097	call   	0x23d0
  === BLOCK LINK ===
    0x209c
=== CODE BLOCK END ===

=== CODE BLOCK ADDRESS 0x209c ===
  0x209c	test   	al, al
  0x209e	jne    	0x20a9
  === BLOCK LINK ===
    0x20a0
=== CODE BLOCK END ===

=== CODE BLOCK ADDRESS 0x20a0 ===
  0x20a0	xor    	ecx, ecx
  0x20a2	call   	0x23d0
  === BLOCK LINK ===
    0x20a7
=== CODE BLOCK END ===

=== CODE BLOCK ADDRESS 0x20a7 ===
  0x20a7	jmp    	0x2093
  === BLOCK LINK ===
    0x20a9
=== CODE BLOCK END ===

=== CODE BLOCK ADDRESS 0x20a9 ===
  0x20a9	mov    	al, bl
  0x20ab	dec    	eax
  0x20ac	add    	esp, 0x20
  0x20af	pop    	ebx
  0x20b0	ret    	
  === BLOCK LINK ===
    0x20b1
=== CODE BLOCK END ===

=== CODE BLOCK ADDRESS 0x20b1 ===
  0x20b1	int3   	
  0x20b2	int3   	
  0x20b3	int3   	
  0x20b4	int3   	
  0x20b5	int3   	
  === BLOCK LINK ===
    0x20b6
=== CODE BLOCK END ===

=== CODE BLOCK ADDRESS 0x20b6 ===
  0x20b6	int3   	
  0x20b7	int3   	
  0x20b8	inc    	eax
  0x20b9	push   	ebx
  0x20ba	dec    	eax
  === BLOCK LINK ===
    0x20bb
=== CODE BLOCK END ===

=== CODE BLOCK ADDRESS 0x20bb ===
  0x20bb	sub    	esp, 0x20
  0x20be	cmp    	byte ptr [0x3fbb], 0
  0x20c5	mov    	ebx, ecx
  0x20c7	jne    	0x2155
  === BLOCK LINK ===
    0x20cd
=== CODE BLOCK END ===

=== CODE BLOCK ADDRESS 0x20cd ===
  0x20cd	cmp    	ecx, 1
  0x20d0	ja     	0x215d
  === BLOCK LINK ===
    0x20d6
=== CODE BLOCK END ===

=== CODE BLOCK ADDRESS 0x20d6 ===
  0x20d6	call   	0x2a24
  === BLOCK LINK ===
    0x20db
=== CODE BLOCK END ===

=== CODE BLOCK ADDRESS 0x20db ===
  0x20db	test   	eax, eax
  0x20dd	je     	0x2107
  === BLOCK LINK ===
    0x20df
=== CODE BLOCK END ===

=== CODE BLOCK ADDRESS 0x20df ===
  0x20df	test   	ebx, ebx
  0x20e1	jne    	0x2107
  === BLOCK LINK ===
    0x20e3
=== CODE BLOCK END ===

=== CODE BLOCK ADDRESS 0x20e3 ===
  0x20e3	dec    	eax
  0x20e4	lea    	ecx, [0x3f66]
  0x20ea	call   	0x2b02
  === BLOCK LINK ===
    0x20ef
=== CODE BLOCK END ===

=== CODE BLOCK ADDRESS 0x20ef ===
  0x20ef	test   	eax, eax
  0x20f1	jne    	0x2103
  === BLOCK LINK ===
    0x20f3
=== CODE BLOCK END ===

=== CODE BLOCK ADDRESS 0x20f3 ===
  0x20f3	dec    	eax
  0x20f4	lea    	ecx, [0x3f6e]
  0x20fa	call   	0x2b02
  === BLOCK LINK ===
    0x20ff
=== CODE BLOCK END ===

=== CODE BLOCK ADDRESS 0x20ff ===
  0x20ff	test   	eax, eax
  0x2101	je     	0x214e
  === BLOCK LINK ===
    0x2103
=== CODE BLOCK END ===

=== CODE BLOCK ADDRESS 0x2103 ===
  0x2103	xor    	al, al
  0x2105	jmp    	0x2157
  === BLOCK LINK ===
    0x2107
=== CODE BLOCK END ===

=== CODE BLOCK ADDRESS 0x2107 ===
  0x2107	dec    	eax
  0x2108	mov    	edx, dword ptr [0x3ef2]
  0x210e	mov    	ecx, 0x40
  0x2113	mov    	eax, edx
  0x2115	and    	eax, 0x3f
  === BLOCK LINK ===
    0x2118
=== CODE BLOCK END ===

=== CODE BLOCK ADDRESS 0x2118 ===
  0x2118	sub    	ecx, eax
  0x211a	dec    	eax
  0x211b	or     	eax, 0xffffffff
  0x211e	dec    	eax
  0x211f	ror    	eax, cl
  === BLOCK LINK ===
    0x2121
=== CODE BLOCK END ===

=== CODE BLOCK ADDRESS 0x2121 ===
  0x2121	dec    	eax
  0x2122	xor    	eax, edx
  0x2124	dec    	eax
  0x2125	mov    	dword ptr [0x3f25], eax
  0x212b	dec    	eax
  === BLOCK LINK ===
    0x212c
=== CODE BLOCK END ===

=== CODE BLOCK ADDRESS 0x212c ===
  0x212c	mov    	dword ptr [0x3f26], eax
  0x2132	dec    	eax
  0x2133	mov    	dword ptr [0x3f27], eax
  0x2139	dec    	eax
  0x213a	mov    	dword ptr [0x3f28], eax
  === BLOCK LINK ===
    0x2140
=== CODE BLOCK END ===

=== CODE BLOCK ADDRESS 0x2140 ===
  0x2140	dec    	eax
  0x2141	mov    	dword ptr [0x3f29], eax
  0x2147	dec    	eax
  0x2148	mov    	dword ptr [0x3f2a], eax
  0x214e	mov    	byte ptr [0x3f2b], 1
  === BLOCK LINK ===
    0x2155
=== CODE BLOCK END ===

=== CODE BLOCK ADDRESS 0x2155 ===
  0x2155	mov    	al, 1
  0x2157	dec    	eax
  0x2158	add    	esp, 0x20
  0x215b	pop    	ebx
  0x215c	ret    	
  === BLOCK LINK ===
    0x215d
=== CODE BLOCK END ===

=== CODE BLOCK ADDRESS 0x215d ===
  0x215d	mov    	ecx, 5
  0x2162	call   	0x2440
  === BLOCK LINK ===
    0x2167
=== CODE BLOCK END ===

=== CODE BLOCK ADDRESS 0x2167 ===
  0x2167	int3   	
  0x2168	int3   	
  0x2169	int3   	
  0x216a	int3   	
  0x216b	int3   	
  === BLOCK LINK ===
    0x216c
=== CODE BLOCK END ===

=== CODE BLOCK ADDRESS 0x216c ===
  0x216c	int3   	
  0x216d	int3   	
  0x216e	int3   	
  0x216f	int3   	
  0x2170	dec    	eax
  === BLOCK LINK ===
    0x2171
=== CODE BLOCK END ===

=== CODE BLOCK ADDRESS 0x2171 ===
  0x2171	sub    	esp, 0x18
  0x2174	dec    	esp
  0x2175	mov    	eax, ecx
  0x2177	mov    	eax, 0x5a4d
  0x217c	cmp    	word ptr [0xffffde7d], ax
  === BLOCK LINK ===
    0x2183
=== CODE BLOCK END ===

=== CODE BLOCK ADDRESS 0x2183 ===
  0x2183	jne    	0x21fd
  === BLOCK LINK ===
    0x2185
=== CODE BLOCK END ===

=== CODE BLOCK ADDRESS 0x2185 ===
  0x2185	dec    	eax
  0x2186	arpl   	word ptr [0xffffdeb0], cx
  0x218c	dec    	eax
  0x218d	lea    	edx, [0xffffde6d]
  0x2193	dec    	eax
  === BLOCK LINK ===
    0x2194
=== CODE BLOCK END ===

=== CODE BLOCK ADDRESS 0x2194 ===
  0x2194	add    	ecx, edx
  0x2196	cmp    	dword ptr [ecx], 0x4550
  0x219c	jne    	0x21fd
  === BLOCK LINK ===
    0x219e
=== CODE BLOCK END ===

=== CODE BLOCK ADDRESS 0x219e ===
  0x219e	mov    	eax, 0x20b
  0x21a3	cmp    	word ptr [ecx + 0x18], ax
  0x21a7	jne    	0x21fd
  === BLOCK LINK ===
    0x21a9
=== CODE BLOCK END ===

=== CODE BLOCK ADDRESS 0x21a9 ===
  0x21a9	dec    	esp
  0x21aa	sub    	eax, edx
  0x21ac	movzx  	eax, word ptr [ecx + 0x14]
  0x21b0	dec    	eax
  0x21b1	lea    	edx, [ecx + 0x18]
  === BLOCK LINK ===
    0x21b4
=== CODE BLOCK END ===

=== CODE BLOCK ADDRESS 0x21b4 ===
  0x21b4	dec    	eax
  0x21b5	add    	edx, eax
  0x21b7	movzx  	eax, word ptr [ecx + 6]
  0x21bb	dec    	eax
  0x21bc	lea    	ecx, [eax + eax*4]
  === BLOCK LINK ===
    0x21bf
=== CODE BLOCK END ===

=== CODE BLOCK ADDRESS 0x21bf ===
  0x21bf	dec    	esp
  0x21c0	lea    	ecx, [edx + ecx*8]
  0x21c3	dec    	eax
  0x21c4	mov    	dword ptr [esp], edx
  0x21c7	dec    	ecx
  === BLOCK LINK ===
    0x21c8
=== CODE BLOCK END ===

=== CODE BLOCK ADDRESS 0x21c8 ===
  0x21c8	cmp    	edx, ecx
  0x21ca	je     	0x21e4
  === BLOCK LINK ===
    0x21cc
=== CODE BLOCK END ===

=== CODE BLOCK ADDRESS 0x21cc ===
  0x21cc	mov    	ecx, dword ptr [edx + 0xc]
  0x21cf	dec    	esp
  0x21d0	cmp    	eax, ecx
  0x21d2	jb     	0x21de
  === BLOCK LINK ===
    0x21d4
=== CODE BLOCK END ===

=== CODE BLOCK ADDRESS 0x21d4 ===
  0x21d4	mov    	eax, dword ptr [edx + 8]
  0x21d7	add    	eax, ecx
  0x21d9	dec    	esp
  0x21da	cmp    	eax, eax
  0x21dc	jb     	0x21e6
  === BLOCK LINK ===
    0x21de
=== CODE BLOCK END ===

=== CODE BLOCK ADDRESS 0x21de ===
  0x21de	dec    	eax
  0x21df	add    	edx, 0x28
  0x21e2	jmp    	0x21c3
  === BLOCK LINK ===
    0x21e4
=== CODE BLOCK END ===

=== CODE BLOCK ADDRESS 0x21e4 ===
  0x21e4	xor    	edx, edx
  0x21e6	dec    	eax
  0x21e7	test   	edx, edx
  0x21e9	jne    	0x21ef
  === BLOCK LINK ===
    0x21eb
=== CODE BLOCK END ===

=== CODE BLOCK ADDRESS 0x21eb ===
  0x21eb	xor    	al, al
  0x21ed	jmp    	0x2203
  === BLOCK LINK ===
    0x21ef
=== CODE BLOCK END ===

=== CODE BLOCK ADDRESS 0x21ef ===
  0x21ef	cmp    	dword ptr [edx + 0x24], 0
  0x21f3	jge    	0x21f9
  === BLOCK LINK ===
    0x21f5
=== CODE BLOCK END ===

=== CODE BLOCK ADDRESS 0x21f5 ===
  0x21f5	xor    	al, al
  0x21f7	jmp    	0x2203
  === BLOCK LINK ===
    0x21f9
=== CODE BLOCK END ===

=== CODE BLOCK ADDRESS 0x21f9 ===
  0x21f9	mov    	al, 1
  0x21fb	jmp    	0x2203
  === BLOCK LINK ===
    0x21fd
=== CODE BLOCK END ===

=== CODE BLOCK ADDRESS 0x21fd ===
  0x21fd	xor    	al, al
  0x21ff	jmp    	0x2203
  === BLOCK LINK ===
    0x2201
=== CODE BLOCK END ===

=== CODE BLOCK ADDRESS 0x2201 ===
  0x2201	xor    	al, al
  0x2203	dec    	eax
  0x2204	add    	esp, 0x18
  0x2207	ret    	
  0x2208	int3   	
  === BLOCK LINK ===
    0x2209
=== CODE BLOCK END ===

=== CODE BLOCK ADDRESS 0x2209 ===
  0x2209	int3   	
  0x220a	int3   	
  0x220b	int3   	
  0x220c	int3   	
  0x220d	int3   	
  === BLOCK LINK ===
    0x220e
=== CODE BLOCK END ===

=== CODE BLOCK ADDRESS 0x220e ===
  0x220e	int3   	
  0x220f	int3   	
  0x2210	inc    	eax
  0x2211	push   	ebx
  0x2212	dec    	eax
  === BLOCK LINK ===
    0x2213
=== CODE BLOCK END ===

=== CODE BLOCK ADDRESS 0x2213 ===
  0x2213	sub    	esp, 0x20
  0x2216	mov    	bl, cl
  0x2218	call   	0x2a24
  === BLOCK LINK ===
    0x221d
=== CODE BLOCK END ===

=== CODE BLOCK ADDRESS 0x221d ===
  0x221d	xor    	edx, edx
  0x221f	test   	eax, eax
  0x2221	je     	0x222e
  === BLOCK LINK ===
    0x2223
=== CODE BLOCK END ===

=== CODE BLOCK ADDRESS 0x2223 ===
  0x2223	test   	bl, bl
  0x2225	jne    	0x222e
  === BLOCK LINK ===
    0x2227
=== CODE BLOCK END ===

=== CODE BLOCK ADDRESS 0x2227 ===
  0x2227	dec    	eax
  0x2228	xchg   	dword ptr [0x3e1a], edx
  0x222e	dec    	eax
  0x222f	add    	esp, 0x20
  0x2232	pop    	ebx
  === BLOCK LINK ===
    0x2233
=== CODE BLOCK END ===

=== CODE BLOCK ADDRESS 0x2233 ===
  0x2233	ret    	
  0x2234	int3   	
  0x2235	int3   	
  0x2236	int3   	
  0x2237	int3   	
  === BLOCK LINK ===
    0x2238
=== CODE BLOCK END ===

=== CODE BLOCK ADDRESS 0x2238 ===
  0x2238	int3   	
  0x2239	int3   	
  0x223a	int3   	
  0x223b	int3   	
  0x223c	inc    	eax
  === BLOCK LINK ===
    0x223d
=== CODE BLOCK END ===

=== CODE BLOCK ADDRESS 0x223d ===
  0x223d	push   	ebx
  0x223e	dec    	eax
  0x223f	sub    	esp, 0x20
  0x2242	cmp    	byte ptr [0x3e38], 0
  0x2249	mov    	bl, cl
  === BLOCK LINK ===
    0x224b
=== CODE BLOCK END ===

=== CODE BLOCK ADDRESS 0x224b ===
  0x224b	je     	0x2251
  === BLOCK LINK ===
    0x224d
=== CODE BLOCK END ===

=== CODE BLOCK ADDRESS 0x224d ===
  0x224d	test   	dl, dl
  0x224f	jne    	0x225d
  === BLOCK LINK ===
    0x2251
=== CODE BLOCK END ===

=== CODE BLOCK ADDRESS 0x2251 ===
  0x2251	call   	0x23d0
  === BLOCK LINK ===
    0x2256
=== CODE BLOCK END ===

=== CODE BLOCK ADDRESS 0x2256 ===
  0x2256	mov    	cl, bl
  0x2258	call   	0x23d0
  === BLOCK LINK ===
    0x225d
=== CODE BLOCK END ===

=== CODE BLOCK ADDRESS 0x225d ===
  0x225d	mov    	al, 1
  0x225f	dec    	eax
  0x2260	add    	esp, 0x20
  0x2263	pop    	ebx
  0x2264	ret    	
  === BLOCK LINK ===
    0x2265
=== CODE BLOCK END ===

=== CODE BLOCK ADDRESS 0x2265 ===
  0x2265	int3   	
  0x2266	int3   	
  0x2267	int3   	
  0x2268	int3   	
  0x2269	int3   	
  === BLOCK LINK ===
    0x226a
=== CODE BLOCK END ===

=== CODE BLOCK ADDRESS 0x226a ===
  0x226a	int3   	
  0x226b	int3   	
  0x226c	inc    	eax
  0x226d	push   	ebx
  0x226e	dec    	eax
  === BLOCK LINK ===
    0x226f
=== CODE BLOCK END ===

=== CODE BLOCK ADDRESS 0x226f ===
  0x226f	sub    	esp, 0x20
  0x2272	dec    	eax
  0x2273	mov    	edx, dword ptr [0x3d87]
  0x2279	dec    	eax
  0x227a	mov    	ebx, ecx
  === BLOCK LINK ===
    0x227c
=== CODE BLOCK END ===

=== CODE BLOCK ADDRESS 0x227c ===
  0x227c	mov    	ecx, edx
  0x227e	dec    	eax
  0x227f	xor    	edx, dword ptr [0x3dcb]
  0x2285	and    	ecx, 0x3f
  0x2288	dec    	eax
  === BLOCK LINK ===
    0x2289
=== CODE BLOCK END ===

=== CODE BLOCK ADDRESS 0x2289 ===
  0x2289	ror    	edx, cl
  0x228b	dec    	eax
  0x228c	cmp    	edx, -1
  0x228f	jne    	0x229b
  === BLOCK LINK ===
    0x2291
=== CODE BLOCK END ===

=== CODE BLOCK ADDRESS 0x2291 ===
  0x2291	dec    	eax
  0x2292	mov    	ecx, ebx
  0x2294	call   	0x2ade
  === BLOCK LINK ===
    0x2299
=== CODE BLOCK END ===

=== CODE BLOCK ADDRESS 0x2299 ===
  0x2299	jmp    	0x22aa
  === BLOCK LINK ===
    0x229b
=== CODE BLOCK END ===

=== CODE BLOCK ADDRESS 0x229b ===
  0x229b	dec    	eax
  0x229c	mov    	edx, ebx
  0x229e	dec    	eax
  0x229f	lea    	ecx, [0x3dab]
  0x22a5	call   	0x2b1a
  === BLOCK LINK ===
    0x22aa
=== CODE BLOCK END ===

=== CODE BLOCK ADDRESS 0x22aa ===
  0x22aa	xor    	ecx, ecx
  0x22ac	test   	eax, eax
  0x22ae	dec    	eax
  0x22af	cmove  	ecx, ebx
  0x22b2	dec    	eax
  === BLOCK LINK ===
    0x22b3
=== CODE BLOCK END ===

=== CODE BLOCK ADDRESS 0x22b3 ===
  0x22b3	mov    	eax, ecx
  0x22b5	dec    	eax
  0x22b6	add    	esp, 0x20
  0x22b9	pop    	ebx
  0x22ba	ret    	
  === BLOCK LINK ===
    0x22bb
=== CODE BLOCK END ===

=== CODE BLOCK ADDRESS 0x22bb ===
  0x22bb	int3   	
  0x22bc	int3   	
  0x22bd	int3   	
  0x22be	int3   	
  0x22bf	int3   	
  === BLOCK LINK ===
    0x22c0
=== CODE BLOCK END ===

=== CODE BLOCK ADDRESS 0x22c0 ===
  0x22c0	int3   	
  0x22c1	int3   	
  0x22c2	int3   	
  0x22c3	int3   	
  0x22c4	dec    	eax
  === BLOCK LINK ===
    0x22c5
=== CODE BLOCK END ===

=== CODE BLOCK ADDRESS 0x22c5 ===
  0x22c5	sub    	esp, 0x28
  0x22c8	call   	0x226c
  === BLOCK LINK ===
    0x22cd
=== CODE BLOCK END ===

=== CODE BLOCK ADDRESS 0x22cd ===
  0x22cd	dec    	eax
  0x22ce	neg    	eax
  0x22d0	sbb    	eax, eax
  0x22d2	neg    	eax
  0x22d4	dec    	eax
  === BLOCK LINK ===
    0x22d6
=== CODE BLOCK END ===

=== CODE BLOCK ADDRESS 0x22d6 ===
  0x22d6	dec    	eax
  0x22d7	add    	esp, 0x28
  0x22da	ret    	
  0x22db	int3   	
  0x22dc	int3   	
  === BLOCK LINK ===
    0x22dd
=== CODE BLOCK END ===

=== CODE BLOCK ADDRESS 0x22dd ===
  0x22dd	int3   	
  0x22de	int3   	
  0x22df	int3   	
  0x22e0	int3   	
  0x22e1	int3   	
  === BLOCK LINK ===
    0x22e2
=== CODE BLOCK END ===

=== CODE BLOCK ADDRESS 0x22e2 ===
  0x22e2	int3   	
  0x22e3	int3   	
  0x22e4	dec    	eax
  0x22e5	mov    	dword ptr [esp + 0x20], ebx
  0x22e9	push   	ebp
  === BLOCK LINK ===
    0x22ea
=== CODE BLOCK END ===

=== CODE BLOCK ADDRESS 0x22ea ===
  0x22ea	dec    	eax
  0x22eb	mov    	ebp, esp
  0x22ed	dec    	eax
  0x22ee	sub    	esp, 0x20
  0x22f1	dec    	eax
  === BLOCK LINK ===
    0x22f2
=== CODE BLOCK END ===

=== CODE BLOCK ADDRESS 0x22f2 ===
  0x22f2	mov    	eax, dword ptr [0x3d08]
  0x22f8	dec    	eax
  0x22f9	mov    	ebx, 0x2ddfa232
  0x22fe	cdq    	
  0x22ff	sub    	eax, dword ptr [eax]
  === BLOCK LINK ===
    0x2301
=== CODE BLOCK END ===

=== CODE BLOCK ADDRESS 0x2301 ===
  0x2301	add    	byte ptr [eax + 0x3b], cl
  0x2304	ret    	
  0x2305	jne    	0x237b
  === BLOCK LINK ===
    0x2307
=== CODE BLOCK END ===

=== CODE BLOCK ADDRESS 0x2307 ===
  0x2307	dec    	eax
  0x2308	and    	dword ptr [ebp + 0x18], 0
  0x230c	dec    	eax
  0x230d	lea    	ecx, [ebp + 0x18]
  0x2310	call   	dword ptr [0xf3a]
  === BLOCK LINK ===
    0x2316
=== CODE BLOCK END ===

=== CODE BLOCK ADDRESS 0x2316 ===
  0x2316	dec    	eax
  0x2317	mov    	eax, dword ptr [ebp + 0x18]
  0x231a	dec    	eax
  0x231b	mov    	dword ptr [ebp + 0x10], eax
  0x231e	call   	dword ptr [0xed4]
  === BLOCK LINK ===
    0x2324
=== CODE BLOCK END ===

=== CODE BLOCK ADDRESS 0x2324 ===
  0x2324	mov    	eax, eax
  0x2326	dec    	eax
  0x2327	xor    	dword ptr [ebp + 0x10], eax
  0x232a	call   	dword ptr [0xec0]
  === BLOCK LINK ===
    0x2330
=== CODE BLOCK END ===

=== CODE BLOCK ADDRESS 0x2330 ===
  0x2330	mov    	eax, eax
  0x2332	dec    	eax
  0x2333	lea    	ecx, [ebp + 0x20]
  0x2336	dec    	eax
  0x2337	xor    	dword ptr [ebp + 0x10], eax
  === BLOCK LINK ===
    0x233a
=== CODE BLOCK END ===

=== CODE BLOCK ADDRESS 0x233a ===
  0x233a	call   	dword ptr [0xee0]
  === BLOCK LINK ===
    0x2340
=== CODE BLOCK END ===

=== CODE BLOCK ADDRESS 0x2340 ===
  0x2340	mov    	eax, dword ptr [ebp + 0x20]
  0x2343	dec    	eax
  0x2344	lea    	ecx, [ebp + 0x10]
  0x2347	dec    	eax
  0x2348	shl    	eax, 0x20
  === BLOCK LINK ===
    0x234b
=== CODE BLOCK END ===

=== CODE BLOCK ADDRESS 0x234b ===
  0x234b	dec    	eax
  0x234c	xor    	eax, dword ptr [ebp + 0x20]
  0x234f	dec    	eax
  0x2350	xor    	eax, dword ptr [ebp + 0x10]
  0x2353	dec    	eax
  === BLOCK LINK ===
    0x2354
=== CODE BLOCK END ===

=== CODE BLOCK ADDRESS 0x2354 ===
  0x2354	xor    	eax, ecx
  0x2356	dec    	eax
  0x2357	mov    	ecx, 0xffffffff
  0x235c	.byte  	0xff
  0x235d	inc    	dword ptr [eax]
  === BLOCK LINK ===
    0x235f
=== CODE BLOCK END ===

=== CODE BLOCK ADDRESS 0x235f ===
  0x235f	add    	byte ptr [eax + 0x23], cl
  0x2362	ror    	dword ptr [eax - 0x47], 0x33
  0x2366	mov    	byte ptr [0x2b992ddf], al
  0x236b	add    	byte ptr [eax], al
  0x236d	dec    	eax
  === BLOCK LINK ===
    0x236e
=== CODE BLOCK END ===

=== CODE BLOCK ADDRESS 0x236e ===
  0x236e	cmp    	eax, ebx
  0x2370	dec    	eax
  0x2371	cmove  	eax, ecx
  0x2374	dec    	eax
  0x2375	mov    	dword ptr [0x3c85], eax
  === BLOCK LINK ===
    0x237b
=== CODE BLOCK END ===

=== CODE BLOCK ADDRESS 0x237b ===
  0x237b	dec    	eax
  0x237c	mov    	ebx, dword ptr [esp + 0x48]
  0x2380	dec    	eax
  0x2381	not    	eax
  0x2383	dec    	eax
  === BLOCK LINK ===
    0x2384
=== CODE BLOCK END ===

=== CODE BLOCK ADDRESS 0x2384 ===
  0x2384	mov    	dword ptr [0x3c7e], eax
  0x238a	dec    	eax
  0x238b	add    	esp, 0x20
  0x238e	pop    	ebp
  0x238f	ret    	
  === BLOCK LINK ===
    0x2390
=== CODE BLOCK END ===

=== CODE BLOCK ADDRESS 0x2390 ===
  0x2390	int3   	
  0x2391	int3   	
  0x2392	int3   	
  0x2393	int3   	
  0x2394	int3   	
  === BLOCK LINK ===
    0x2395
=== CODE BLOCK END ===

=== CODE BLOCK ADDRESS 0x2395 ===
  0x2395	int3   	
  0x2396	int3   	
  0x2397	int3   	
  0x2398	mov    	eax, 1
  0x239d	ret    	
  === BLOCK LINK ===
    0x239e
=== CODE BLOCK END ===

=== CODE BLOCK ADDRESS 0x239e ===
  0x239e	int3   	
  0x239f	int3   	
  0x23a0	int3   	
  0x23a1	int3   	
  0x23a2	int3   	
  === BLOCK LINK ===
    0x23a3
=== CODE BLOCK END ===

=== CODE BLOCK ADDRESS 0x23a3 ===
  0x23a3	int3   	
  0x23a4	xor    	eax, eax
  0x23a6	ret    	
  0x23a7	int3   	
  0x23a8	int3   	
  === BLOCK LINK ===
    0x23a9
=== CODE BLOCK END ===

=== CODE BLOCK ADDRESS 0x23a9 ===
  0x23a9	int3   	
  0x23aa	int3   	
  0x23ab	int3   	
  0x23ac	int3   	
  0x23ad	int3   	
  === BLOCK LINK ===
    0x23ae
=== CODE BLOCK END ===

=== CODE BLOCK ADDRESS 0x23ae ===
  0x23ae	int3   	
  0x23af	int3   	
  0x23b0	mov    	eax, 0x4000
  0x23b5	ret    	
  0x23b6	int3   	
  === BLOCK LINK ===
    0x23b7
=== CODE BLOCK END ===

=== CODE BLOCK ADDRESS 0x23b7 ===
  0x23b7	int3   	
  0x23b8	int3   	
  0x23b9	int3   	
  0x23ba	int3   	
  0x23bb	int3   	
  === BLOCK LINK ===
    0x23bc
=== CODE BLOCK END ===

=== CODE BLOCK ADDRESS 0x23bc ===
  0x23bc	dec    	eax
  0x23bd	lea    	ecx, [0x3ccd]
  0x23c3	dec    	eax
  0x23c4	jmp    	dword ptr [0xdde]
  === BLOCK LINK ===
    0x23ca
=== CODE BLOCK END ===

=== CODE BLOCK ADDRESS 0x23ca ===
  0x23ca	int3   	
  0x23cb	int3   	
  0x23cc	int3   	
  0x23cd	int3   	
  0x23ce	int3   	
  === BLOCK LINK ===
    0x23cf
=== CODE BLOCK END ===

=== CODE BLOCK ADDRESS 0x23cf ===
  0x23cf	int3   	
  0x23d0	mov    	al, 1
  0x23d2	ret    	
  0x23d3	int3   	
  0x23d4	int3   	
  === BLOCK LINK ===
    0x23d5
=== CODE BLOCK END ===

=== CODE BLOCK ADDRESS 0x23d5 ===
  0x23d5	int3   	
  0x23d6	int3   	
  0x23d7	int3   	
  0x23d8	int3   	
  0x23d9	int3   	
  === BLOCK LINK ===
    0x23da
=== CODE BLOCK END ===

=== CODE BLOCK ADDRESS 0x23da ===
  0x23da	int3   	
  0x23db	int3   	
  0x23dc	int3   	
  0x23dd	int3   	
  0x23de	int3   	
  === BLOCK LINK ===
    0x23df
=== CODE BLOCK END ===

=== CODE BLOCK ADDRESS 0x23df ===
  0x23df	int3   	
  0x23e0	ret    	0
  0x23e3	int3   	
  0x23e4	int3   	
  0x23e5	int3   	
  === BLOCK LINK ===
    0x23e6
=== CODE BLOCK END ===

=== CODE BLOCK ADDRESS 0x156f ===
  0x156f	inc    	ecx
  0x1570	inc    	edi
  0x1572	inc    	ebp
  === BLOCK LINK ===
    0x1573
=== CODE BLOCK END ===

=== CODE BLOCK ADDRESS 0x23e6 ===
  0x23e6	int3   	
  0x23e7	int3   	
  0x23e8	int3   	
  0x23e9	int3   	
  0x23ea	int3   	
  === BLOCK LINK ===
    0x23eb
=== CODE BLOCK END ===

=== CODE BLOCK ADDRESS 0x23eb ===
  0x23eb	int3   	
  0x23ec	dec    	eax
  0x23ed	sub    	esp, 0x28
  0x23f0	call   	0x1ccc
  === BLOCK LINK ===
    0x23f5
=== CODE BLOCK END ===

=== CODE BLOCK ADDRESS 0x23f5 ===
  0x23f5	dec    	eax
  0x23f6	or     	dword ptr [eax], 4
  0x23f9	call   	0x1d04
  === BLOCK LINK ===
    0x23fe
=== CODE BLOCK END ===

=== CODE BLOCK ADDRESS 0x23fe ===
  0x23fe	dec    	eax
  0x23ff	or     	dword ptr [eax], 2
  0x2402	dec    	eax
  0x2403	add    	esp, 0x28
  0x2406	ret    	
  === BLOCK LINK ===
    0x2407
=== CODE BLOCK END ===

=== CODE BLOCK ADDRESS 0x2407 ===
  0x2407	int3   	
  0x2408	int3   	
  0x2409	int3   	
  0x240a	int3   	
  0x240b	int3   	
  === BLOCK LINK ===
    0x240c
=== CODE BLOCK END ===

=== CODE BLOCK ADDRESS 0x240c ===
  0x240c	int3   	
  0x240d	int3   	
  0x240e	int3   	
  0x240f	int3   	
  0x2410	dec    	eax
  === BLOCK LINK ===
    0x2411
=== CODE BLOCK END ===

=== CODE BLOCK ADDRESS 0x2411 ===
  0x2411	lea    	eax, [0x4471]
  0x2417	ret    	
  0x2418	int3   	
  0x2419	int3   	
  0x241a	int3   	
  === BLOCK LINK ===
    0x241b
=== CODE BLOCK END ===

=== CODE BLOCK ADDRESS 0x241b ===
  0x241b	int3   	
  0x241c	int3   	
  0x241d	int3   	
  0x241e	int3   	
  0x241f	int3   	
  === BLOCK LINK ===
    0x2420
=== CODE BLOCK END ===

=== CODE BLOCK ADDRESS 0x2420 ===
  0x2420	dec    	eax
  0x2421	lea    	eax, [0x4459]
  0x2427	ret    	
  0x2428	int3   	
  0x2429	int3   	
  === BLOCK LINK ===
    0x242a
=== CODE BLOCK END ===

=== CODE BLOCK ADDRESS 0x242a ===
  0x242a	int3   	
  0x242b	int3   	
  0x242c	int3   	
  0x242d	int3   	
  0x242e	int3   	
  === BLOCK LINK ===
    0x242f
=== CODE BLOCK END ===

=== CODE BLOCK ADDRESS 0x242f ===
  0x242f	int3   	
  0x2430	and    	dword ptr [0x3c69], 0
  0x2437	ret    	
  0x2438	int3   	
  0x2439	int3   	
  === BLOCK LINK ===
    0x243a
=== CODE BLOCK END ===

=== CODE BLOCK ADDRESS 0x243a ===
  0x243a	int3   	
  0x243b	int3   	
  0x243c	int3   	
  0x243d	int3   	
  0x243e	int3   	
  === BLOCK LINK ===
    0x243f
=== CODE BLOCK END ===

=== CODE BLOCK ADDRESS 0x243f ===
  0x243f	int3   	
  0x2440	dec    	eax
  0x2441	mov    	dword ptr [esp + 8], ebx
  0x2445	push   	ebp
  0x2446	dec    	eax
  === BLOCK LINK ===
    0x2447
=== CODE BLOCK END ===

=== CODE BLOCK ADDRESS 0x2447 ===
  0x2447	lea    	ebp, [esp - 0x4c0]
  0x244e	dec    	eax
  0x244f	sub    	esp, 0x5c0
  0x2455	mov    	ebx, ecx
  0x2457	mov    	ecx, 0x17
  === BLOCK LINK ===
    0x245c
=== CODE BLOCK END ===

=== CODE BLOCK ADDRESS 0x245c ===
  0x245c	call   	dword ptr [0xdae]
  === BLOCK LINK ===
    0x2462
=== CODE BLOCK END ===

=== CODE BLOCK ADDRESS 0x2462 ===
  0x2462	test   	eax, eax
  0x2464	je     	0x246a
  === BLOCK LINK ===
    0x2466
=== CODE BLOCK END ===

=== CODE BLOCK ADDRESS 0x2466 ===
  0x2466	mov    	ecx, ebx
  0x2468	int    	0x29
  0x246a	mov    	ecx, 3
  0x246f	call   	0x2430
  === BLOCK LINK ===
    0x2474
=== CODE BLOCK END ===

=== CODE BLOCK ADDRESS 0x2474 ===
  0x2474	xor    	edx, edx
  0x2476	dec    	eax
  0x2477	lea    	ecx, [ebp - 0x10]
  0x247a	inc    	ecx
  0x247b	mov    	eax, 0x4d0
  === BLOCK LINK ===
    0x2480
=== CODE BLOCK END ===

=== CODE BLOCK ADDRESS 0x2480 ===
  0x2480	call   	0x2b7a
  === BLOCK LINK ===
    0x2485
=== CODE BLOCK END ===

=== CODE BLOCK ADDRESS 0x2485 ===
  0x2485	dec    	eax
  0x2486	lea    	ecx, [ebp - 0x10]
  0x2489	call   	dword ptr [0xda1]
  === BLOCK LINK ===
    0x248f
=== CODE BLOCK END ===

=== CODE BLOCK ADDRESS 0x248f ===
  0x248f	dec    	eax
  0x2490	mov    	ebx, dword ptr [ebp + 0xe8]
  0x2496	dec    	eax
  0x2497	lea    	edx, [ebp + 0x4d8]
  0x249d	dec    	eax
  === BLOCK LINK ===
    0x249e
=== CODE BLOCK END ===

=== CODE BLOCK ADDRESS 0x249e ===
  0x249e	mov    	ecx, ebx
  0x24a0	inc    	ebp
  0x24a1	xor    	eax, eax
  0x24a3	call   	dword ptr [0xd8f]
  === BLOCK LINK ===
    0x24a9
=== CODE BLOCK END ===

=== CODE BLOCK ADDRESS 0x24a9 ===
  0x24a9	dec    	eax
  0x24aa	test   	eax, eax
  0x24ac	je     	0x24ea
  === BLOCK LINK ===
    0x24ae
=== CODE BLOCK END ===

=== CODE BLOCK ADDRESS 0x24ae ===
  0x24ae	dec    	eax
  0x24af	and    	dword ptr [esp + 0x38], 0
  0x24b4	dec    	eax
  0x24b5	lea    	ecx, [ebp + 0x4e0]
  0x24bb	dec    	eax
  === BLOCK LINK ===
    0x24bc
=== CODE BLOCK END ===

=== CODE BLOCK ADDRESS 0x24bc ===
  0x24bc	mov    	edx, dword ptr [ebp + 0x4d8]
  0x24c2	dec    	esp
  0x24c3	mov    	ecx, eax
  0x24c5	dec    	eax
  0x24c6	mov    	dword ptr [esp + 0x30], ecx
  === BLOCK LINK ===
    0x24ca
=== CODE BLOCK END ===

=== CODE BLOCK ADDRESS 0x24ca ===
  0x24ca	dec    	esp
  0x24cb	mov    	eax, ebx
  0x24cd	dec    	eax
  0x24ce	lea    	ecx, [ebp + 0x4e8]
  0x24d4	dec    	eax
  === BLOCK LINK ===
    0x24d5
=== CODE BLOCK END ===

=== CODE BLOCK ADDRESS 0x24d5 ===
  0x24d5	mov    	dword ptr [esp + 0x28], ecx
  0x24d9	dec    	eax
  0x24da	lea    	ecx, [ebp - 0x10]
  0x24dd	dec    	eax
  0x24de	mov    	dword ptr [esp + 0x20], ecx
  === BLOCK LINK ===
    0x24e2
=== CODE BLOCK END ===

=== CODE BLOCK ADDRESS 0x24e2 ===
  0x24e2	xor    	ecx, ecx
  0x24e4	call   	dword ptr [0xd56]
  === BLOCK LINK ===
    0x24ea
=== CODE BLOCK END ===

=== CODE BLOCK ADDRESS 0x24ea ===
  0x24ea	dec    	eax
  0x24eb	mov    	eax, dword ptr [ebp + 0x4c8]
  0x24f1	dec    	eax
  0x24f2	lea    	ecx, [esp + 0x50]
  0x24f6	dec    	eax
  === BLOCK LINK ===
    0x24f7
=== CODE BLOCK END ===

=== CODE BLOCK ADDRESS 0x24f7 ===
  0x24f7	mov    	dword ptr [ebp + 0xe8], eax
  0x24fd	xor    	edx, edx
  0x24ff	dec    	eax
  0x2500	lea    	eax, [ebp + 0x4c8]
  0x2506	inc    	ecx
  === BLOCK LINK ===
    0x2507
=== CODE BLOCK END ===

=== CODE BLOCK ADDRESS 0x2507 ===
  0x2507	mov    	eax, 0x98
  0x250c	dec    	eax
  0x250d	add    	eax, 8
  0x2510	dec    	eax
  0x2511	mov    	dword ptr [ebp + 0x88], eax
  === BLOCK LINK ===
    0x2517
=== CODE BLOCK END ===

=== CODE BLOCK ADDRESS 0x2517 ===
  0x2517	call   	0x2b7a
  === BLOCK LINK ===
    0x251c
=== CODE BLOCK END ===

=== CODE BLOCK ADDRESS 0x251c ===
  0x251c	dec    	eax
  0x251d	mov    	eax, dword ptr [ebp + 0x4c8]
  0x2523	dec    	eax
  0x2524	mov    	dword ptr [esp + 0x60], eax
  0x2528	mov    	dword ptr [esp + 0x50], 0x40000015
  === BLOCK LINK ===
    0x2530
=== CODE BLOCK END ===

=== CODE BLOCK ADDRESS 0x2530 ===
  0x2530	mov    	dword ptr [esp + 0x54], 1
  0x2538	call   	dword ptr [0xc1a]
  === BLOCK LINK ===
    0x253e
=== CODE BLOCK END ===

=== CODE BLOCK ADDRESS 0x253e ===
  0x253e	cmp    	eax, 1
  0x2541	dec    	eax
  0x2542	lea    	eax, [esp + 0x50]
  0x2546	dec    	eax
  0x2547	mov    	dword ptr [esp + 0x40], eax
  === BLOCK LINK ===
    0x254b
=== CODE BLOCK END ===

=== CODE BLOCK ADDRESS 0x254b ===
  0x254b	dec    	eax
  0x254c	lea    	eax, [ebp - 0x10]
  0x254f	sete   	bl
  0x2552	dec    	eax
  0x2553	mov    	dword ptr [esp + 0x48], eax
  === BLOCK LINK ===
    0x2557
=== CODE BLOCK END ===

=== CODE BLOCK ADDRESS 0x2557 ===
  0x2557	xor    	ecx, ecx
  0x2559	call   	dword ptr [0xc09]
  === BLOCK LINK ===
    0x255f
=== CODE BLOCK END ===

=== CODE BLOCK ADDRESS 0x255f ===
  0x255f	dec    	eax
  0x2560	lea    	ecx, [esp + 0x40]
  0x2564	call   	dword ptr [0xc0e]
  === BLOCK LINK ===
    0x256a
=== CODE BLOCK END ===

=== CODE BLOCK ADDRESS 0x256a ===
  0x256a	test   	eax, eax
  0x256c	jne    	0x257a
  === BLOCK LINK ===
    0x256e
=== CODE BLOCK END ===

=== CODE BLOCK ADDRESS 0x256e ===
  0x256e	test   	bl, bl
  0x2570	jne    	0x257a
  === BLOCK LINK ===
    0x2572
=== CODE BLOCK END ===

=== CODE BLOCK ADDRESS 0x2572 ===
  0x2572	lea    	ecx, [eax + 3]
  0x2575	call   	0x2430
  === BLOCK LINK ===
    0x257a
=== CODE BLOCK END ===

=== CODE BLOCK ADDRESS 0x257a ===
  0x257a	dec    	eax
  0x257b	mov    	ebx, dword ptr [esp + 0x5d0]
  0x2582	dec    	eax
  0x2583	add    	esp, 0x5c0
  0x2589	pop    	ebp
  === BLOCK LINK ===
    0x258a
=== CODE BLOCK END ===

=== CODE BLOCK ADDRESS 0x258a ===
  0x258a	ret    	
  0x258b	int3   	
  0x258c	int3   	
  0x258d	int3   	
  0x258e	int3   	
  === BLOCK LINK ===
    0x258f
=== CODE BLOCK END ===

=== CODE BLOCK ADDRESS 0x258f ===
  0x258f	int3   	
  0x2590	int3   	
  0x2591	int3   	
  0x2592	int3   	
  0x2593	int3   	
  === BLOCK LINK ===
    0x2594
=== CODE BLOCK END ===

=== CODE BLOCK ADDRESS 0x2594 ===
  0x2594	jmp    	0x23a4
  === BLOCK LINK ===
    0x2599
=== CODE BLOCK END ===

=== CODE BLOCK ADDRESS 0x2599 ===
  0x2599	int3   	
  0x259a	int3   	
  0x259b	int3   	
  0x259c	int3   	
  0x259d	int3   	
  === BLOCK LINK ===
    0x259e
=== CODE BLOCK END ===

=== CODE BLOCK ADDRESS 0x259e ===
  0x259e	int3   	
  0x259f	int3   	
  0x25a0	dec    	eax
  0x25a1	sub    	esp, 0x28
  0x25a4	xor    	ecx, ecx
  === BLOCK LINK ===
    0x25a6
=== CODE BLOCK END ===

=== CODE BLOCK ADDRESS 0x25a6 ===
  0x25a6	call   	dword ptr [0xc1c]
  === BLOCK LINK ===
    0x25ac
=== CODE BLOCK END ===

=== CODE BLOCK ADDRESS 0x25ac ===
  0x25ac	dec    	eax
  0x25ad	test   	eax, eax
  0x25af	je     	0x25eb
  === BLOCK LINK ===
    0x25b1
=== CODE BLOCK END ===

=== CODE BLOCK ADDRESS 0x25b1 ===
  0x25b1	mov    	ecx, 0x5a4d
  0x25b6	cmp    	word ptr [eax], cx
  0x25b9	jne    	0x25eb
  === BLOCK LINK ===
    0x25bb
=== CODE BLOCK END ===

=== CODE BLOCK ADDRESS 0x25bb ===
  0x25bb	dec    	eax
  0x25bc	arpl   	word ptr [eax + 0x3c], cx
  0x25bf	dec    	eax
  0x25c0	add    	ecx, eax
  0x25c2	cmp    	dword ptr [ecx], 0x4550
  === BLOCK LINK ===
    0x25c8
=== CODE BLOCK END ===

=== CODE BLOCK ADDRESS 0x25c8 ===
  0x25c8	jne    	0x25eb
  === BLOCK LINK ===
    0x25ca
=== CODE BLOCK END ===

=== CODE BLOCK ADDRESS 0x25ca ===
  0x25ca	mov    	eax, 0x20b
  0x25cf	cmp    	word ptr [ecx + 0x18], ax
  0x25d3	jne    	0x25eb
  === BLOCK LINK ===
    0x25d5
=== CODE BLOCK END ===

=== CODE BLOCK ADDRESS 0x25d5 ===
  0x25d5	cmp    	dword ptr [ecx + 0x84], 0xe
  0x25dc	jbe    	0x25eb
  === BLOCK LINK ===
    0x25de
=== CODE BLOCK END ===

=== CODE BLOCK ADDRESS 0x25de ===
  0x25de	cmp    	dword ptr [ecx + 0xf8], 0
  0x25e5	je     	0x25eb
  === BLOCK LINK ===
    0x25e7
=== CODE BLOCK END ===

=== CODE BLOCK ADDRESS 0x25e7 ===
  0x25e7	mov    	al, 1
  0x25e9	jmp    	0x25ed
  === BLOCK LINK ===
    0x25eb
=== CODE BLOCK END ===

=== CODE BLOCK ADDRESS 0x25eb ===
  0x25eb	xor    	al, al
  0x25ed	dec    	eax
  0x25ee	add    	esp, 0x28
  0x25f1	ret    	
  0x25f2	int3   	
  === BLOCK LINK ===
    0x25f3
=== CODE BLOCK END ===

=== CODE BLOCK ADDRESS 0x25f3 ===
  0x25f3	int3   	
  0x25f4	int3   	
  0x25f5	int3   	
  0x25f6	int3   	
  0x25f7	int3   	
  === BLOCK LINK ===
    0x25f8
=== CODE BLOCK END ===

=== CODE BLOCK ADDRESS 0x25f8 ===
  0x25f8	dec    	eax
  0x25f9	lea    	ecx, [0x11]
  0x25ff	dec    	eax
  0x2600	jmp    	dword ptr [0xb62]
  === BLOCK LINK ===
    0x2606
=== CODE BLOCK END ===

=== CODE BLOCK ADDRESS 0x2606 ===
  0x2606	int3   	
  0x2607	int3   	
  0x2608	int3   	
  0x2609	int3   	
  0x260a	int3   	
  === BLOCK LINK ===
    0x260b
=== CODE BLOCK END ===

=== CODE BLOCK ADDRESS 0x260b ===
  0x260b	int3   	
  0x260c	int3   	
  0x260d	int3   	
  0x260e	int3   	
  0x260f	int3   	
  === BLOCK LINK ===
    0x2610
=== CODE BLOCK END ===

=== CODE BLOCK ADDRESS 0x2610 ===
  0x2610	dec    	eax
  0x2611	sub    	esp, 0x28
  0x2614	dec    	eax
  0x2615	mov    	eax, dword ptr [ecx]
  0x2617	cmp    	dword ptr [eax], 0xe06d7363
  === BLOCK LINK ===
    0x261d
=== CODE BLOCK END ===

=== CODE BLOCK ADDRESS 0x261d ===
  0x261d	jne    	0x263b
  === BLOCK LINK ===
    0x261f
=== CODE BLOCK END ===

=== CODE BLOCK ADDRESS 0x261f ===
  0x261f	cmp    	dword ptr [eax + 0x18], 4
  0x2623	jne    	0x263b
  === BLOCK LINK ===
    0x2625
=== CODE BLOCK END ===

=== CODE BLOCK ADDRESS 0x2625 ===
  0x2625	mov    	ecx, dword ptr [eax + 0x20]
  0x2628	lea    	eax, [ecx - 0x19930520]
  0x262e	cmp    	eax, 2
  0x2631	jbe    	0x2642
  === BLOCK LINK ===
    0x2633
=== CODE BLOCK END ===

=== CODE BLOCK ADDRESS 0x2633 ===
  0x2633	cmp    	ecx, 0x1994000
  0x2639	je     	0x2642
  === BLOCK LINK ===
    0x263b
=== CODE BLOCK END ===

=== CODE BLOCK ADDRESS 0x263b ===
  0x263b	xor    	eax, eax
  0x263d	dec    	eax
  0x263e	add    	esp, 0x28
  0x2641	ret    	
  0x2642	call   	0x2b62
  === BLOCK LINK ===
    0x2647
=== CODE BLOCK END ===

=== CODE BLOCK ADDRESS 0x2647 ===
  0x2647	int3   	
  0x2648	int3   	
  0x2649	int3   	
  0x264a	int3   	
  0x264b	int3   	
  === BLOCK LINK ===
    0x264c
=== CODE BLOCK END ===

=== CODE BLOCK ADDRESS 0x264c ===
  0x264c	int3   	
  0x264d	int3   	
  0x264e	int3   	
  0x264f	int3   	
  0x2650	dec    	eax
  === BLOCK LINK ===
    0x2651
=== CODE BLOCK END ===

=== CODE BLOCK ADDRESS 0x2651 ===
  0x2651	mov    	dword ptr [esp + 8], ebx
  0x2655	push   	edi
  0x2656	dec    	eax
  0x2657	sub    	esp, 0x20
  0x265a	dec    	eax
  === BLOCK LINK ===
    0x265b
=== CODE BLOCK END ===

=== CODE BLOCK ADDRESS 0x265b ===
  0x265b	lea    	ebx, [0x2a37]
  0x2661	dec    	eax
  0x2662	lea    	edi, [0x2a30]
  0x2668	jmp    	0x267c
  === BLOCK LINK ===
    0x266a
=== CODE BLOCK END ===

=== CODE BLOCK ADDRESS 0x266a ===
  0x266a	dec    	eax
  0x266b	mov    	eax, dword ptr [ebx]
  0x266d	dec    	eax
  0x266e	test   	eax, eax
  0x2670	je     	0x2678
  === BLOCK LINK ===
    0x2672
=== CODE BLOCK END ===

=== CODE BLOCK ADDRESS 0x2672 ===
  0x2672	call   	dword ptr [0xd78]
  === BLOCK LINK ===
    0x2678
=== CODE BLOCK END ===

=== CODE BLOCK ADDRESS 0x2678 ===
  0x2678	dec    	eax
  0x2679	add    	ebx, 8
  0x267c	dec    	eax
  0x267d	cmp    	ebx, edi
  0x267f	jb     	0x266a
  === BLOCK LINK ===
    0x2681
=== CODE BLOCK END ===

=== CODE BLOCK ADDRESS 0x2681 ===
  0x2681	dec    	eax
  0x2682	mov    	ebx, dword ptr [esp + 0x30]
  0x2686	dec    	eax
  0x2687	add    	esp, 0x20
  0x268a	pop    	edi
  === BLOCK LINK ===
    0x268b
=== CODE BLOCK END ===

=== CODE BLOCK ADDRESS 0x268b ===
  0x268b	ret    	
  0x268c	int3   	
  0x268d	int3   	
  0x268e	int3   	
  0x268f	int3   	
  === BLOCK LINK ===
    0x2690
=== CODE BLOCK END ===

=== CODE BLOCK ADDRESS 0x2690 ===
  0x2690	int3   	
  0x2691	int3   	
  0x2692	int3   	
  0x2693	int3   	
  0x2694	int3   	
  === BLOCK LINK ===
    0x2695
=== CODE BLOCK END ===

=== CODE BLOCK ADDRESS 0x2695 ===
  0x2695	int3   	
  0x2696	int3   	
  0x2697	int3   	
  0x2698	int3   	
  0x2699	int3   	
  === BLOCK LINK ===
    0x269a
=== CODE BLOCK END ===

=== CODE BLOCK ADDRESS 0x269a ===
  0x269a	int3   	
  0x269b	int3   	
  0x269c	int3   	
  0x269d	int3   	
  0x269e	int3   	
  === BLOCK LINK ===
    0x269f
=== CODE BLOCK END ===

=== CODE BLOCK ADDRESS 0x269f ===
  0x269f	int3   	
  0x26a0	dec    	eax
  0x26a1	mov    	dword ptr [esp + 8], ebx
  0x26a5	push   	edi
  0x26a6	dec    	eax
  === BLOCK LINK ===
    0x26a7
=== CODE BLOCK END ===

=== CODE BLOCK ADDRESS 0x26a7 ===
  0x26a7	sub    	esp, 0x20
  0x26aa	dec    	eax
  0x26ab	lea    	ebx, [0x29f7]
  0x26b1	dec    	eax
  0x26b2	lea    	edi, [0x29f0]
  === BLOCK LINK ===
    0x26b8
=== CODE BLOCK END ===

=== CODE BLOCK ADDRESS 0x26b8 ===
  0x26b8	jmp    	0x26cc
  === BLOCK LINK ===
    0x26ba
=== CODE BLOCK END ===

=== CODE BLOCK ADDRESS 0x26ba ===
  0x26ba	dec    	eax
  0x26bb	mov    	eax, dword ptr [ebx]
  0x26bd	dec    	eax
  0x26be	test   	eax, eax
  0x26c0	je     	0x26c8
  === BLOCK LINK ===
    0x26c2
=== CODE BLOCK END ===

=== CODE BLOCK ADDRESS 0x26c2 ===
  0x26c2	call   	dword ptr [0xd28]
  === BLOCK LINK ===
    0x26c8
=== CODE BLOCK END ===

=== CODE BLOCK ADDRESS 0x26c8 ===
  0x26c8	dec    	eax
  0x26c9	add    	ebx, 8
  0x26cc	dec    	eax
  0x26cd	cmp    	ebx, edi
  0x26cf	jb     	0x26ba
  === BLOCK LINK ===
    0x26d1
=== CODE BLOCK END ===

=== CODE BLOCK ADDRESS 0x26d1 ===
  0x26d1	dec    	eax
  0x26d2	mov    	ebx, dword ptr [esp + 0x30]
  0x26d6	dec    	eax
  0x26d7	add    	esp, 0x20
  0x26da	pop    	edi
  === BLOCK LINK ===
    0x26db
=== CODE BLOCK END ===

=== CODE BLOCK ADDRESS 0x26db ===
  0x26db	ret    	
  0x26dc	int3   	
  0x26dd	int3   	
  0x26de	int3   	
  0x26df	int3   	
  === BLOCK LINK ===
    0x26e0
=== CODE BLOCK END ===

=== CODE BLOCK ADDRESS 0x26e0 ===
  0x26e0	int3   	
  0x26e1	int3   	
  0x26e2	int3   	
  0x26e3	int3   	
  0x26e4	inc    	eax
  === BLOCK LINK ===
    0x26e5
=== CODE BLOCK END ===

=== CODE BLOCK ADDRESS 0x26e5 ===
  0x26e5	push   	ebx
  0x26e6	dec    	eax
  0x26e7	sub    	esp, 0x20
  0x26ea	dec    	eax
  0x26eb	mov    	ebx, ecx
  === BLOCK LINK ===
    0x26ed
=== CODE BLOCK END ===

=== CODE BLOCK ADDRESS 0x26ed ===
  0x26ed	call   	dword ptr [0xa65]
  === BLOCK LINK ===
    0x26f3
=== CODE BLOCK END ===

=== CODE BLOCK ADDRESS 0x26f3 ===
  0x26f3	mov    	ecx, 1
  0x26f8	mov    	dword ptr [0x3f22], eax
  0x26fe	call   	0x2430
  === BLOCK LINK ===
    0x2703
=== CODE BLOCK END ===

=== CODE BLOCK ADDRESS 0x2703 ===
  0x2703	xor    	ecx, ecx
  0x2705	call   	dword ptr [0xa5d]
  === BLOCK LINK ===
    0x270b
=== CODE BLOCK END ===

=== CODE BLOCK ADDRESS 0x270b ===
  0x270b	dec    	eax
  0x270c	mov    	ecx, ebx
  0x270e	call   	dword ptr [0xa64]
  === BLOCK LINK ===
    0x2714
=== CODE BLOCK END ===

=== CODE BLOCK ADDRESS 0x2714 ===
  0x2714	cmp    	dword ptr [0x3f05], 0
  0x271b	jne    	0x2727
  === BLOCK LINK ===
    0x271d
=== CODE BLOCK END ===

=== CODE BLOCK ADDRESS 0x271d ===
  0x271d	mov    	ecx, 1
  0x2722	call   	0x2430
  === BLOCK LINK ===
    0x2727
=== CODE BLOCK END ===

=== CODE BLOCK ADDRESS 0x2727 ===
  0x2727	call   	dword ptr [0xabb]
  === BLOCK LINK ===
    0x272d
=== CODE BLOCK END ===

=== CODE BLOCK ADDRESS 0x272d ===
  0x272d	dec    	eax
  0x272e	mov    	ecx, eax
  0x2730	mov    	edx, 0xc0000409
  0x2735	dec    	eax
  0x2736	add    	esp, 0x20
  === BLOCK LINK ===
    0x2739
=== CODE BLOCK END ===

=== CODE BLOCK ADDRESS 0x2739 ===
  0x2739	pop    	ebx
  0x273a	dec    	eax
  0x273b	jmp    	dword ptr [0xabf]
  === BLOCK LINK ===
    0x2741
=== CODE BLOCK END ===

=== CODE BLOCK ADDRESS 0x2741 ===
  0x2741	int3   	
  0x2742	int3   	
  0x2743	int3   	
  0x2744	int3   	
  0x2745	int3   	
  === BLOCK LINK ===
    0x2746
=== CODE BLOCK END ===

=== CODE BLOCK ADDRESS 0x2746 ===
  0x2746	int3   	
  0x2747	int3   	
  0x2748	int3   	
  0x2749	int3   	
  0x274a	int3   	
  === BLOCK LINK ===
    0x274b
=== CODE BLOCK END ===

=== CODE BLOCK ADDRESS 0x274b ===
  0x274b	int3   	
  0x274c	int3   	
  0x274d	int3   	
  0x274e	int3   	
  0x274f	int3   	
  === BLOCK LINK ===
    0x2750
=== CODE BLOCK END ===

=== CODE BLOCK ADDRESS 0x2750 ===
  0x2750	dec    	eax
  0x2751	mov    	dword ptr [esp + 8], ecx
  0x2755	dec    	eax
  0x2756	sub    	esp, 0x38
  0x2759	mov    	ecx, 0x17
  === BLOCK LINK ===
    0x275e
=== CODE BLOCK END ===

=== CODE BLOCK ADDRESS 0x275e ===
  0x275e	call   	dword ptr [0xaac]
  === BLOCK LINK ===
    0x2764
=== CODE BLOCK END ===

=== CODE BLOCK ADDRESS 0x2764 ===
  0x2764	test   	eax, eax
  0x2766	je     	0x276f
  === BLOCK LINK ===
    0x2768
=== CODE BLOCK END ===

=== CODE BLOCK ADDRESS 0x2768 ===
  0x2768	mov    	ecx, 2
  0x276d	int    	0x29
  0x276f	dec    	eax
  0x2770	lea    	ecx, [0x39da]
  0x2776	call   	0x2828
  === BLOCK LINK ===
    0x277b
=== CODE BLOCK END ===

=== CODE BLOCK ADDRESS 0x277b ===
  0x277b	dec    	eax
  0x277c	mov    	eax, dword ptr [esp + 0x38]
  0x2780	dec    	eax
  0x2781	mov    	dword ptr [0x3ac1], eax
  0x2787	dec    	eax
  === BLOCK LINK ===
    0x2788
=== CODE BLOCK END ===

=== CODE BLOCK ADDRESS 0x2788 ===
  0x2788	lea    	eax, [esp + 0x38]
  0x278c	dec    	eax
  0x278d	add    	eax, 8
  0x2790	dec    	eax
  0x2791	mov    	dword ptr [0x3a51], eax
  === BLOCK LINK ===
    0x2797
=== CODE BLOCK END ===

=== CODE BLOCK ADDRESS 0x2797 ===
  0x2797	dec    	eax
  0x2798	mov    	eax, dword ptr [0x3aaa]
  0x279e	dec    	eax
  0x279f	mov    	dword ptr [0x391b], eax
  0x27a5	dec    	eax
  === BLOCK LINK ===
    0x27a6
=== CODE BLOCK END ===

=== CODE BLOCK ADDRESS 0x27a6 ===
  0x27a6	mov    	eax, dword ptr [esp + 0x40]
  0x27aa	dec    	eax
  0x27ab	mov    	dword ptr [0x3a1f], eax
  0x27b1	mov    	dword ptr [0x38f5], 0xc0000409
  0x27bb	mov    	dword ptr [0x38ef], 1
  === BLOCK LINK ===
    0x27c5
=== CODE BLOCK END ===

=== CODE BLOCK ADDRESS 0x27c5 ===
  0x27c5	mov    	dword ptr [0x38f9], 1
  0x27cf	mov    	eax, 8
  0x27d4	dec    	eax
  0x27d5	imul   	eax, eax, 0
  0x27d8	dec    	eax
  === BLOCK LINK ===
    0x27d9
=== CODE BLOCK END ===

=== CODE BLOCK ADDRESS 0x27d9 ===
  0x27d9	lea    	ecx, [0x38f1]
  0x27df	dec    	eax
  0x27e0	mov    	dword ptr [ecx + eax], 2
  0x27e7	mov    	eax, 8
  0x27ec	dec    	eax
  === BLOCK LINK ===
    0x27ed
=== CODE BLOCK END ===

=== CODE BLOCK ADDRESS 0x27ed ===
  0x27ed	imul   	eax, eax, 0
  0x27f0	dec    	eax
  0x27f1	mov    	ecx, dword ptr [0x3809]
  0x27f7	dec    	eax
  0x27f8	mov    	dword ptr [esp + eax + 0x20], ecx
  === BLOCK LINK ===
    0x27fc
=== CODE BLOCK END ===

=== CODE BLOCK ADDRESS 0x27fc ===
  0x27fc	mov    	eax, 8
  0x2801	dec    	eax
  0x2802	imul   	eax, eax, 1
  0x2805	dec    	eax
  0x2806	mov    	ecx, dword ptr [0x37fc]
  === BLOCK LINK ===
    0x280c
=== CODE BLOCK END ===

=== CODE BLOCK ADDRESS 0x280c ===
  0x280c	dec    	eax
  0x280d	mov    	dword ptr [esp + eax + 0x20], ecx
  0x2811	dec    	eax
  0x2812	lea    	ecx, [0x7e8]
  0x2818	call   	0x26e4
  === BLOCK LINK ===
    0x281d
=== CODE BLOCK END ===

=== CODE BLOCK ADDRESS 0x281d ===
  0x281d	dec    	eax
  0x281e	add    	esp, 0x38
  0x2821	ret    	
  0x2822	int3   	
  0x2823	int3   	
  === BLOCK LINK ===
    0x2824
=== CODE BLOCK END ===

=== CODE BLOCK ADDRESS 0x2824 ===
  0x2824	int3   	
  0x2825	int3   	
  0x2826	int3   	
  0x2827	int3   	
  0x2828	inc    	eax
  === BLOCK LINK ===
    0x2829
=== CODE BLOCK END ===

=== CODE BLOCK ADDRESS 0x2829 ===
  0x2829	push   	ebx
  0x282a	push   	esi
  0x282b	push   	edi
  0x282c	dec    	eax
  0x282d	sub    	esp, 0x40
  === BLOCK LINK ===
    0x2830
=== CODE BLOCK END ===

=== CODE BLOCK ADDRESS 0x2830 ===
  0x2830	dec    	eax
  0x2831	mov    	ebx, ecx
  0x2833	call   	dword ptr [0x9f7]
  === BLOCK LINK ===
    0x2839
=== CODE BLOCK END ===

=== CODE BLOCK ADDRESS 0x2839 ===
  0x2839	dec    	eax
  0x283a	mov    	esi, dword ptr [ebx + 0xf8]
  0x2840	xor    	edi, edi
  0x2842	inc    	ebp
  0x2843	xor    	eax, eax
  === BLOCK LINK ===
    0x2845
=== CODE BLOCK END ===

=== CODE BLOCK ADDRESS 0x2845 ===
  0x2845	dec    	eax
  0x2846	lea    	edx, [esp + 0x60]
  0x284a	dec    	eax
  0x284b	mov    	ecx, esi
  0x284d	call   	dword ptr [0x9e5]
  === BLOCK LINK ===
    0x2853
=== CODE BLOCK END ===

=== CODE BLOCK ADDRESS 0x2853 ===
  0x2853	dec    	eax
  0x2854	test   	eax, eax
  0x2856	je     	0x2891
  === BLOCK LINK ===
    0x2858
=== CODE BLOCK END ===

=== CODE BLOCK ADDRESS 0x2858 ===
  0x2858	dec    	eax
  0x2859	and    	dword ptr [esp + 0x38], 0
  0x285e	dec    	eax
  0x285f	lea    	ecx, [esp + 0x68]
  0x2863	dec    	eax
  === BLOCK LINK ===
    0x2864
=== CODE BLOCK END ===

=== CODE BLOCK ADDRESS 0x2864 ===
  0x2864	mov    	edx, dword ptr [esp + 0x60]
  0x2868	dec    	esp
  0x2869	mov    	ecx, eax
  0x286b	dec    	eax
  0x286c	mov    	dword ptr [esp + 0x30], ecx
  === BLOCK LINK ===
    0x2870
=== CODE BLOCK END ===

=== CODE BLOCK ADDRESS 0x2870 ===
  0x2870	dec    	esp
  0x2871	mov    	eax, esi
  0x2873	dec    	eax
  0x2874	lea    	ecx, [esp + 0x70]
  0x2878	dec    	eax
  === BLOCK LINK ===
    0x2879
=== CODE BLOCK END ===

=== CODE BLOCK ADDRESS 0x2879 ===
  0x2879	mov    	dword ptr [esp + 0x28], ecx
  0x287d	xor    	ecx, ecx
  0x287f	dec    	eax
  0x2880	mov    	dword ptr [esp + 0x20], ebx
  0x2884	call   	dword ptr [0x9b6]
  === BLOCK LINK ===
    0x288a
=== CODE BLOCK END ===

=== CODE BLOCK ADDRESS 0x288a ===
  0x288a	inc    	edi
  0x288c	cmp    	edi, 2
  0x288f	jl     	0x2842
  === BLOCK LINK ===
    0x2891
=== CODE BLOCK END ===

=== CODE BLOCK ADDRESS 0x2891 ===
  0x2891	dec    	eax
  0x2892	add    	esp, 0x40
  0x2895	pop    	edi
  0x2896	pop    	esi
  0x2897	pop    	ebx
  === BLOCK LINK ===
    0x2898
=== CODE BLOCK END ===

=== CODE BLOCK ADDRESS 0x2898 ===
  0x2898	ret    	
  0x2899	int3   	
  0x289a	int3   	
  0x289b	int3   	
  0x289c	int3   	
  === BLOCK LINK ===
    0x289d
=== CODE BLOCK END ===

=== CODE BLOCK ADDRESS 0x289d ===
  0x289d	int3   	
  0x289e	int3   	
  0x289f	int3   	
  0x28a0	dec    	eax
  0x28a1	mov    	dword ptr [esp + 0x10], ebx
  === BLOCK LINK ===
    0x28a5
=== CODE BLOCK END ===

=== CODE BLOCK ADDRESS 0x28a5 ===
  0x28a5	dec    	eax
  0x28a6	mov    	dword ptr [esp + 0x18], esi
  0x28aa	push   	edi
  0x28ab	dec    	eax
  0x28ac	sub    	esp, 0x10
  === BLOCK LINK ===
    0x28af
=== CODE BLOCK END ===

=== CODE BLOCK ADDRESS 0x28af ===
  0x28af	xor    	eax, eax
  0x28b1	mov    	dword ptr [0x3759], 2
  0x28bb	xor    	ecx, ecx
  0x28bd	mov    	dword ptr [0x3749], 1
  0x28c7	cpuid  	
  === BLOCK LINK ===
    0x28c9
=== CODE BLOCK END ===

=== CODE BLOCK ADDRESS 0x28c9 ===
  0x28c9	inc    	esp
  0x28ca	mov    	eax, ecx
  0x28cc	xor    	edi, edi
  0x28ce	inc    	esp
  0x28cf	mov    	ecx, ebx
  === BLOCK LINK ===
    0x28d1
=== CODE BLOCK END ===

=== CODE BLOCK ADDRESS 0x28d1 ===
  0x28d1	inc    	ecx
  0x28d2	xor    	eax, 0x6c65746e
  0x28d8	inc    	ecx
  0x28d9	xor    	ecx, 0x756e6547
  0x28df	inc    	esp
  === BLOCK LINK ===
    0x28e0
=== CODE BLOCK END ===

=== CODE BLOCK ADDRESS 0x28e0 ===
  0x28e0	mov    	edx, edx
  0x28e2	mov    	esi, eax
  0x28e4	xor    	ecx, ecx
  0x28e6	lea    	eax, [edi + 1]
  0x28e9	inc    	ebp
  === BLOCK LINK ===
    0x28ea
=== CODE BLOCK END ===

=== CODE BLOCK ADDRESS 0x28ea ===
  0x28ea	or     	ecx, eax
  0x28ec	cpuid  	
  0x28ee	inc    	ecx
  0x28ef	xor    	edx, 0x49656e69
  0x28f5	mov    	dword ptr [esp], eax
  === BLOCK LINK ===
    0x28f8
=== CODE BLOCK END ===

=== CODE BLOCK ADDRESS 0x28f8 ===
  0x28f8	inc    	ebp
  0x28f9	or     	ecx, edx
  0x28fb	mov    	dword ptr [esp + 4], ebx
  0x28ff	inc    	esp
  0x2900	mov    	ebx, ecx
  === BLOCK LINK ===
    0x2902
=== CODE BLOCK END ===

=== CODE BLOCK ADDRESS 0x2902 ===
  0x2902	mov    	dword ptr [esp + 8], ecx
  0x2906	mov    	dword ptr [esp + 0xc], edx
  0x290a	jne    	0x295c
  === BLOCK LINK ===
    0x290c
=== CODE BLOCK END ===

=== CODE BLOCK ADDRESS 0x290c ===
  0x290c	dec    	eax
  0x290d	or     	dword ptr [0x3704], 0xffffffff
  0x2914	and    	eax, 0xfff3ff0
  0x2919	cmp    	eax, 0x106c0
  0x291e	je     	0x2948
  === BLOCK LINK ===
    0x2920
=== CODE BLOCK END ===

=== CODE BLOCK ADDRESS 0x2920 ===
  0x2920	cmp    	eax, 0x20660
  0x2925	je     	0x2948
  === BLOCK LINK ===
    0x2927
=== CODE BLOCK END ===

=== CODE BLOCK ADDRESS 0x2927 ===
  0x2927	cmp    	eax, 0x20670
  0x292c	je     	0x2948
  === BLOCK LINK ===
    0x292e
=== CODE BLOCK END ===

=== CODE BLOCK ADDRESS 0x292e ===
  0x292e	add    	eax, 0xfffcf9b0
  0x2933	cmp    	eax, 0x20
  0x2936	ja     	0x295c
  === BLOCK LINK ===
    0x2938
=== CODE BLOCK END ===

=== CODE BLOCK ADDRESS 0x2938 ===
  0x2938	dec    	eax
  0x2939	mov    	ecx, 0x10001
  0x293e	add    	dword ptr [eax], eax
  0x2940	add    	byte ptr [eax], al
  0x2942	dec    	eax
  === BLOCK LINK ===
    0x2943
=== CODE BLOCK END ===

=== CODE BLOCK ADDRESS 0x2943 ===
  0x2943	bt     	ecx, eax
  0x2946	jae    	0x295c
  === BLOCK LINK ===
    0x2948
=== CODE BLOCK END ===

=== CODE BLOCK ADDRESS 0x2948 ===
  0x2948	inc    	esp
  0x2949	mov    	eax, dword ptr [0x3cd5]
  0x294f	inc    	ecx
  0x2950	or     	eax, 1
  0x2953	inc    	esp
  === BLOCK LINK ===
    0x2954
=== CODE BLOCK END ===

=== CODE BLOCK ADDRESS 0x2954 ===
  0x2954	mov    	dword ptr [0x3cca], eax
  0x295a	jmp    	0x2963
  === BLOCK LINK ===
    0x295c
=== CODE BLOCK END ===

=== CODE BLOCK ADDRESS 0x295c ===
  0x295c	inc    	esp
  0x295d	mov    	eax, dword ptr [0x3cc1]
  0x2963	mov    	eax, 7
  0x2968	cmp    	esi, eax
  0x296a	jl     	0x2992
  === BLOCK LINK ===
    0x296c
=== CODE BLOCK END ===

=== CODE BLOCK ADDRESS 0x296c ===
  0x296c	xor    	ecx, ecx
  0x296e	cpuid  	
  0x2970	mov    	dword ptr [esp], eax
  0x2973	mov    	edi, ebx
  0x2975	mov    	dword ptr [esp + 4], ebx
  === BLOCK LINK ===
    0x2979
=== CODE BLOCK END ===

=== CODE BLOCK ADDRESS 0x2979 ===
  0x2979	mov    	dword ptr [esp + 8], ecx
  0x297d	mov    	dword ptr [esp + 0xc], edx
  0x2981	bt     	ebx, 9
  0x2985	jae    	0x2992
  === BLOCK LINK ===
    0x2987
=== CODE BLOCK END ===

=== CODE BLOCK ADDRESS 0x2987 ===
  0x2987	inc    	ecx
  0x2988	or     	eax, 2
  0x298b	inc    	esp
  0x298c	mov    	dword ptr [0x3c92], eax
  0x2992	inc    	ecx
  === BLOCK LINK ===
    0x2993
=== CODE BLOCK END ===

=== CODE BLOCK ADDRESS 0x2993 ===
  0x2993	bt     	ebx, 0x14
  0x2997	jae    	0x2a09
  === BLOCK LINK ===
    0x2999
=== CODE BLOCK END ===

=== CODE BLOCK ADDRESS 0x2999 ===
  0x2999	mov    	dword ptr [0x366d], 2
  0x29a3	mov    	dword ptr [0x3667], 6
  0x29ad	inc    	ecx
  0x29ae	bt     	ebx, 0x1b
  0x29b2	jae    	0x2a09
  === BLOCK LINK ===
    0x29b4
=== CODE BLOCK END ===

=== CODE BLOCK ADDRESS 0x29b4 ===
  0x29b4	inc    	ecx
  0x29b5	bt     	ebx, 0x1c
  0x29b9	jae    	0x2a09
  === BLOCK LINK ===
    0x29bb
=== CODE BLOCK END ===

=== CODE BLOCK ADDRESS 0x29bb ===
  0x29bb	xor    	ecx, ecx
  0x29bd	xgetbv  	
  0x29c0	dec    	eax
  0x29c1	shl    	edx, 0x20
  0x29c4	dec    	eax
  === BLOCK LINK ===
    0x29c5
=== CODE BLOCK END ===

=== CODE BLOCK ADDRESS 0x29c5 ===
  0x29c5	or     	edx, eax
  0x29c7	dec    	eax
  0x29c8	mov    	dword ptr [esp + 0x20], edx
  0x29cc	dec    	eax
  0x29cd	mov    	eax, dword ptr [esp + 0x20]
  === BLOCK LINK ===
    0x29d1
=== CODE BLOCK END ===

=== CODE BLOCK ADDRESS 0x29d1 ===
  0x29d1	and    	al, 6
  0x29d3	cmp    	al, 6
  0x29d5	jne    	0x2a09
  === BLOCK LINK ===
    0x29d7
=== CODE BLOCK END ===

=== CODE BLOCK ADDRESS 0x29d7 ===
  0x29d7	mov    	eax, dword ptr [0x3637]
  0x29dd	or     	eax, 8
  0x29e0	mov    	dword ptr [0x3626], 3
  0x29ea	mov    	dword ptr [0x3624], eax
  0x29f0	inc    	eax
  === BLOCK LINK ===
    0x29f1
=== CODE BLOCK END ===

=== CODE BLOCK ADDRESS 0x29f1 ===
  0x29f1	test   	bh, 0x20
  0x29f4	je     	0x2a09
  === BLOCK LINK ===
    0x29f6
=== CODE BLOCK END ===

=== CODE BLOCK ADDRESS 0x29f6 ===
  0x29f6	or     	eax, 0x20
  0x29f9	mov    	dword ptr [0x360d], 5
  0x2a03	mov    	dword ptr [0x360b], eax
  0x2a09	dec    	eax
  0x2a0a	mov    	ebx, dword ptr [esp + 0x28]
  === BLOCK LINK ===
    0x2a0e
=== CODE BLOCK END ===

=== CODE BLOCK ADDRESS 0x2a0e ===
  0x2a0e	xor    	eax, eax
  0x2a10	dec    	eax
  0x2a11	mov    	esi, dword ptr [esp + 0x30]
  0x2a15	dec    	eax
  0x2a16	add    	esp, 0x10
  === BLOCK LINK ===
    0x2a19
=== CODE BLOCK END ===

=== CODE BLOCK ADDRESS 0x2a19 ===
  0x2a19	pop    	edi
  0x2a1a	ret    	
  0x2a1b	int3   	
  0x2a1c	int3   	
  0x2a1d	int3   	
  === BLOCK LINK ===
    0x2a1e
=== CODE BLOCK END ===

=== CODE BLOCK ADDRESS 0x2a1e ===
  0x2a1e	int3   	
  0x2a1f	int3   	
  0x2a20	int3   	
  0x2a21	int3   	
  0x2a22	int3   	
  === BLOCK LINK ===
    0x2a23
=== CODE BLOCK END ===

=== CODE BLOCK ADDRESS 0x2a23 ===
  0x2a23	int3   	
  0x2a24	xor    	eax, eax
  0x2a26	cmp    	dword ptr [0x35f4], eax
  0x2a2c	setne  	al
  0x2a2f	ret    	
  === BLOCK LINK ===
    0x2a30
=== CODE BLOCK END ===

=== CODE BLOCK ADDRESS 0x2a30 ===
  0x2a30	int3   	
  0x2a31	int3   	
  0x2a32	int3   	
  0x2a33	int3   	
  0x2a34	int3   	
  === BLOCK LINK ===
    0x2a35
=== CODE BLOCK END ===

=== CODE BLOCK ADDRESS 0x2a35 ===
  0x2a35	int3   	
  0x2a36	jmp    	dword ptr [0x954]
  === BLOCK LINK ===
    0x2a3c
=== CODE BLOCK END ===

=== CODE BLOCK ADDRESS 0x2a3c ===
  0x2a3c	int3   	
  0x2a3d	int3   	
  0x2a3e	int3   	
  0x2a3f	int3   	
  0x2a40	int3   	
  === BLOCK LINK ===
    0x2a41
=== CODE BLOCK END ===

=== CODE BLOCK ADDRESS 0x2a41 ===
  0x2a41	int3   	
  0x2a42	jmp    	dword ptr [0x930]
  === BLOCK LINK ===
    0x2a48
=== CODE BLOCK END ===

=== CODE BLOCK ADDRESS 0x2a48 ===
  0x2a48	int3   	
  0x2a49	int3   	
  0x2a4a	int3   	
  0x2a4b	int3   	
  0x2a4c	int3   	
  === BLOCK LINK ===
    0x2a4d
=== CODE BLOCK END ===

=== CODE BLOCK ADDRESS 0x2a4d ===
  0x2a4d	int3   	
  0x2a4e	jmp    	dword ptr [0x92c]
  === BLOCK LINK ===
    0x2a54
=== CODE BLOCK END ===

=== CODE BLOCK ADDRESS 0x2a54 ===
  0x2a54	int3   	
  0x2a55	int3   	
  0x2a56	int3   	
  0x2a57	int3   	
  0x2a58	int3   	
  === BLOCK LINK ===
    0x2a59
=== CODE BLOCK END ===

=== CODE BLOCK ADDRESS 0x2a59 ===
  0x2a59	int3   	
  0x2a5a	jmp    	dword ptr [0x928]
  === BLOCK LINK ===
    0x2a60
=== CODE BLOCK END ===

=== CODE BLOCK ADDRESS 0x2a60 ===
  0x2a60	int3   	
  0x2a61	int3   	
  0x2a62	int3   	
  0x2a63	int3   	
  0x2a64	int3   	
  === BLOCK LINK ===
    0x2a65
=== CODE BLOCK END ===

=== CODE BLOCK ADDRESS 0x2a65 ===
  0x2a65	int3   	
  0x2a66	jmp    	dword ptr [0x8f4]
  === BLOCK LINK ===
    0x2a6c
=== CODE BLOCK END ===

=== CODE BLOCK ADDRESS 0x2a6c ===
  0x2a6c	int3   	
  0x2a6d	int3   	
  0x2a6e	int3   	
  0x2a6f	int3   	
  0x2a70	int3   	
  === BLOCK LINK ===
    0x2a71
=== CODE BLOCK END ===

=== CODE BLOCK ADDRESS 0x2a71 ===
  0x2a71	int3   	
  0x2a72	jmp    	dword ptr [0x8e0]
  === BLOCK LINK ===
    0x2a78
=== CODE BLOCK END ===

=== CODE BLOCK ADDRESS 0x2a78 ===
  0x2a78	int3   	
  0x2a79	int3   	
  0x2a7a	int3   	
  0x2a7b	int3   	
  0x2a7c	int3   	
  === BLOCK LINK ===
    0x2a7d
=== CODE BLOCK END ===

=== CODE BLOCK ADDRESS 0x2a7d ===
  0x2a7d	int3   	
  0x2a7e	jmp    	dword ptr [0x8cc]
  === BLOCK LINK ===
    0x2a84
=== CODE BLOCK END ===

=== CODE BLOCK ADDRESS 0x2a84 ===
  0x2a84	int3   	
  0x2a85	int3   	
  0x2a86	int3   	
  0x2a87	int3   	
  0x2a88	int3   	
  === BLOCK LINK ===
    0x2a89
=== CODE BLOCK END ===

=== CODE BLOCK ADDRESS 0x2a89 ===
  0x2a89	int3   	
  0x2a8a	jmp    	dword ptr [0x8b8]
  === BLOCK LINK ===
    0x2a90
=== CODE BLOCK END ===

=== CODE BLOCK ADDRESS 0x2a90 ===
  0x2a90	int3   	
  0x2a91	int3   	
  0x2a92	int3   	
  0x2a93	int3   	
  0x2a94	int3   	
  === BLOCK LINK ===
    0x2a95
=== CODE BLOCK END ===

=== CODE BLOCK ADDRESS 0x2a95 ===
  0x2a95	int3   	
  0x2a96	jmp    	dword ptr [0x7c4]
  === BLOCK LINK ===
    0x2a9c
=== CODE BLOCK END ===

=== CODE BLOCK ADDRESS 0x2a9c ===
  0x2a9c	int3   	
  0x2a9d	int3   	
  0x2a9e	int3   	
  0x2a9f	int3   	
  0x2aa0	int3   	
  === BLOCK LINK ===
    0x2aa1
=== CODE BLOCK END ===

=== CODE BLOCK ADDRESS 0x2aa1 ===
  0x2aa1	int3   	
  0x2aa2	jmp    	dword ptr [0x7c0]
  === BLOCK LINK ===
    0x2aa8
=== CODE BLOCK END ===

=== CODE BLOCK ADDRESS 0x2aa8 ===
  0x2aa8	int3   	
  0x2aa9	int3   	
  0x2aaa	int3   	
  0x2aab	int3   	
  0x2aac	int3   	
  === BLOCK LINK ===
    0x2aad
=== CODE BLOCK END ===

=== CODE BLOCK ADDRESS 0x2aad ===
  0x2aad	int3   	
  0x2aae	jmp    	dword ptr [0x7bc]
  === BLOCK LINK ===
    0x2ab4
=== CODE BLOCK END ===

=== CODE BLOCK ADDRESS 0x2ab4 ===
  0x2ab4	int3   	
  0x2ab5	int3   	
  0x2ab6	int3   	
  0x2ab7	int3   	
  0x2ab8	int3   	
  === BLOCK LINK ===
    0x2ab9
=== CODE BLOCK END ===

=== CODE BLOCK ADDRESS 0x2ab9 ===
  0x2ab9	int3   	
  0x2aba	jmp    	dword ptr [0x7b8]
  === BLOCK LINK ===
    0x2ac0
=== CODE BLOCK END ===

=== CODE BLOCK ADDRESS 0x2ac0 ===
  0x2ac0	int3   	
  0x2ac1	int3   	
  0x2ac2	int3   	
  0x2ac3	int3   	
  0x2ac4	int3   	
  === BLOCK LINK ===
    0x2ac5
=== CODE BLOCK END ===

=== CODE BLOCK ADDRESS 0x2ac5 ===
  0x2ac5	int3   	
  0x2ac6	jmp    	dword ptr [0x7b4]
  === BLOCK LINK ===
    0x2acc
=== CODE BLOCK END ===

=== CODE BLOCK ADDRESS 0x2acc ===
  0x2acc	int3   	
  0x2acd	int3   	
  0x2ace	int3   	
  0x2acf	int3   	
  0x2ad0	int3   	
  === BLOCK LINK ===
    0x2ad1
=== CODE BLOCK END ===

=== CODE BLOCK ADDRESS 0x2ad1 ===
  0x2ad1	int3   	
  0x2ad2	jmp    	dword ptr [0x7b0]
  === BLOCK LINK ===
    0x2ad8
=== CODE BLOCK END ===

=== CODE BLOCK ADDRESS 0x2ad8 ===
  0x2ad8	int3   	
  0x2ad9	int3   	
  0x2ada	int3   	
  0x2adb	int3   	
  0x2adc	int3   	
  === BLOCK LINK ===
    0x2add
=== CODE BLOCK END ===

=== CODE BLOCK ADDRESS 0x2add ===
  0x2add	int3   	
  0x2ade	jmp    	dword ptr [0x7ac]
  === BLOCK LINK ===
    0x2ae4
=== CODE BLOCK END ===

=== CODE BLOCK ADDRESS 0x2ae4 ===
  0x2ae4	int3   	
  0x2ae5	int3   	
  0x2ae6	int3   	
  0x2ae7	int3   	
  0x2ae8	int3   	
  === BLOCK LINK ===
    0x2ae9
=== CODE BLOCK END ===

=== CODE BLOCK ADDRESS 0x2ae9 ===
  0x2ae9	int3   	
  0x2aea	jmp    	dword ptr [0x7a8]
  === BLOCK LINK ===
    0x2af0
=== CODE BLOCK END ===

=== CODE BLOCK ADDRESS 0x2af0 ===
  0x2af0	int3   	
  0x2af1	int3   	
  0x2af2	int3   	
  0x2af3	int3   	
  0x2af4	int3   	
  === BLOCK LINK ===
    0x2af5
=== CODE BLOCK END ===

=== CODE BLOCK ADDRESS 0x2af5 ===
  0x2af5	int3   	
  0x2af6	jmp    	dword ptr [0x7ac]
  === BLOCK LINK ===
    0x2afc
=== CODE BLOCK END ===

=== CODE BLOCK ADDRESS 0x2afc ===
  0x2afc	int3   	
  0x2afd	int3   	
  0x2afe	int3   	
  0x2aff	int3   	
  0x2b00	int3   	
  === BLOCK LINK ===
    0x2b01
=== CODE BLOCK END ===

=== CODE BLOCK ADDRESS 0x2b01 ===
  0x2b01	int3   	
  0x2b02	jmp    	dword ptr [0x7a8]
  === BLOCK LINK ===
    0x2b08
=== CODE BLOCK END ===

=== CODE BLOCK ADDRESS 0x2b08 ===
  0x2b08	int3   	
  0x2b09	int3   	
  0x2b0a	int3   	
  0x2b0b	int3   	
  0x2b0c	int3   	
  === BLOCK LINK ===
    0x2b0d
=== CODE BLOCK END ===

=== CODE BLOCK ADDRESS 0x2b0d ===
  0x2b0d	int3   	
  0x2b0e	jmp    	dword ptr [0x7a4]
  === BLOCK LINK ===
    0x2b14
=== CODE BLOCK END ===

=== CODE BLOCK ADDRESS 0x2b14 ===
  0x2b14	int3   	
  0x2b15	int3   	
  0x2b16	int3   	
  0x2b17	int3   	
  0x2b18	int3   	
  === BLOCK LINK ===
    0x2b19
=== CODE BLOCK END ===

=== CODE BLOCK ADDRESS 0x2b19 ===
  0x2b19	int3   	
  0x2b1a	jmp    	dword ptr [0x7a0]
  === BLOCK LINK ===
    0x2b20
=== CODE BLOCK END ===

=== CODE BLOCK ADDRESS 0x2b20 ===
  0x2b20	int3   	
  0x2b21	int3   	
  0x2b22	int3   	
  0x2b23	int3   	
  0x2b24	int3   	
  === BLOCK LINK ===
    0x2b25
=== CODE BLOCK END ===

=== CODE BLOCK ADDRESS 0x2b25 ===
  0x2b25	int3   	
  0x2b26	jmp    	dword ptr [0x79c]
  === BLOCK LINK ===
    0x2b2c
=== CODE BLOCK END ===

=== CODE BLOCK ADDRESS 0x2b2c ===
  0x2b2c	int3   	
  0x2b2d	int3   	
  0x2b2e	int3   	
  0x2b2f	int3   	
  0x2b30	int3   	
  === BLOCK LINK ===
    0x2b31
=== CODE BLOCK END ===

=== CODE BLOCK ADDRESS 0x2b31 ===
  0x2b31	int3   	
  0x2b32	jmp    	dword ptr [0x798]
  === BLOCK LINK ===
    0x2b38
=== CODE BLOCK END ===

=== CODE BLOCK ADDRESS 0x2b38 ===
  0x2b38	int3   	
  0x2b39	int3   	
  0x2b3a	int3   	
  0x2b3b	int3   	
  0x2b3c	int3   	
  === BLOCK LINK ===
    0x2b3d
=== CODE BLOCK END ===

=== CODE BLOCK ADDRESS 0x2b3d ===
  0x2b3d	int3   	
  0x2b3e	jmp    	dword ptr [0x794]
  === BLOCK LINK ===
    0x2b44
=== CODE BLOCK END ===

=== CODE BLOCK ADDRESS 0x2b44 ===
  0x2b44	int3   	
  0x2b45	int3   	
  0x2b46	int3   	
  0x2b47	int3   	
  0x2b48	int3   	
  === BLOCK LINK ===
    0x2b49
=== CODE BLOCK END ===

=== CODE BLOCK ADDRESS 0x2b49 ===
  0x2b49	int3   	
  0x2b4a	jmp    	dword ptr [0x818]
  === BLOCK LINK ===
    0x2b50
=== CODE BLOCK END ===

=== CODE BLOCK ADDRESS 0x2b50 ===
  0x2b50	int3   	
  0x2b51	int3   	
  0x2b52	int3   	
  0x2b53	int3   	
  0x2b54	int3   	
  === BLOCK LINK ===
    0x2b55
=== CODE BLOCK END ===

=== CODE BLOCK ADDRESS 0x2b55 ===
  0x2b55	int3   	
  0x2b56	jmp    	dword ptr [0x7b4]
  === BLOCK LINK ===
    0x2b5c
=== CODE BLOCK END ===

=== CODE BLOCK ADDRESS 0x2b5c ===
  0x2b5c	int3   	
  0x2b5d	int3   	
  0x2b5e	int3   	
  0x2b5f	int3   	
  0x2b60	int3   	
  === BLOCK LINK ===
    0x2b61
=== CODE BLOCK END ===

=== CODE BLOCK ADDRESS 0x2b61 ===
  0x2b61	int3   	
  0x2b62	jmp    	dword ptr [0x7c8]
  === BLOCK LINK ===
    0x2b68
=== CODE BLOCK END ===

=== CODE BLOCK ADDRESS 0x2b68 ===
  0x2b68	int3   	
  0x2b69	int3   	
  0x2b6a	int3   	
  0x2b6b	int3   	
  0x2b6c	int3   	
  === BLOCK LINK ===
    0x2b6d
=== CODE BLOCK END ===

=== CODE BLOCK ADDRESS 0x2b6d ===
  0x2b6d	int3   	
  0x2b6e	jmp    	dword ptr [0x7cc]
  === BLOCK LINK ===
    0x2b74
=== CODE BLOCK END ===

=== CODE BLOCK ADDRESS 0x2b74 ===
  0x2b74	int3   	
  0x2b75	int3   	
  0x2b76	int3   	
  0x2b77	int3   	
  0x2b78	int3   	
  === BLOCK LINK ===
    0x2b79
=== CODE BLOCK END ===

=== CODE BLOCK ADDRESS 0x2b79 ===
  0x2b79	int3   	
  0x2b7a	jmp    	dword ptr [0x820]
  === BLOCK LINK ===
    0x2b80
=== CODE BLOCK END ===

=== CODE BLOCK ADDRESS 0x2b80 ===
  0x2b80	int3   	
  0x2b81	int3   	
  0x2b82	int3   	
  0x2b83	int3   	
  0x2b84	int3   	
  === BLOCK LINK ===
    0x2b85
=== CODE BLOCK END ===

=== CODE BLOCK ADDRESS 0x2b85 ===
  0x2b85	int3   	
  0x2b86	int3   	
  0x2b87	int3   	
  0x2b88	dec    	eax
  0x2b89	mov    	eax, esp
  === BLOCK LINK ===
    0x2b8b
=== CODE BLOCK END ===

=== CODE BLOCK ADDRESS 0x2b8b ===
  0x2b8b	dec    	eax
  0x2b8c	mov    	dword ptr [eax + 0x10], edx
  0x2b8f	dec    	esp
  0x2b90	mov    	dword ptr [eax + 0x18], eax
  0x2b93	dec    	esp
  === BLOCK LINK ===
    0x2b94
=== CODE BLOCK END ===

=== CODE BLOCK ADDRESS 0x2b94 ===
  0x2b94	mov    	dword ptr [eax + 0x20], ecx
  0x2b97	push   	ebx
  0x2b98	push   	esi
  0x2b99	push   	edi
  0x2b9a	dec    	eax
  === BLOCK LINK ===
    0x2b9b
=== CODE BLOCK END ===

=== CODE BLOCK ADDRESS 0x2b9b ===
  0x2b9b	sub    	esp, 0x30
  0x2b9e	dec    	eax
  0x2b9f	mov    	edi, edx
  0x2ba1	dec    	eax
  0x2ba2	lea    	esi, [eax + 0x18]
  === BLOCK LINK ===
    0x2ba5
=== CODE BLOCK END ===

=== CODE BLOCK ADDRESS 0x2ba5 ===
  0x2ba5	dec    	eax
  0x2ba6	mov    	ebx, ecx
  0x2ba8	call   	0x1ccc
  === BLOCK LINK ===
    0x2bad
=== CODE BLOCK END ===

=== CODE BLOCK ADDRESS 0x2bad ===
  0x2bad	inc    	ebp
  0x2bae	xor    	ecx, ecx
  0x2bb0	dec    	eax
  0x2bb1	mov    	dword ptr [esp + 0x20], esi
  0x2bb5	dec    	esp
  === BLOCK LINK ===
    0x2bb6
=== CODE BLOCK END ===

=== CODE BLOCK ADDRESS 0x2bb6 ===
  0x2bb6	mov    	eax, edi
  0x2bb8	dec    	eax
  0x2bb9	mov    	edx, ebx
  0x2bbb	dec    	eax
  0x2bbc	mov    	ecx, dword ptr [eax]
  === BLOCK LINK ===
    0x2bbe
=== CODE BLOCK END ===

=== CODE BLOCK ADDRESS 0x2bbe ===
  0x2bbe	call   	0x2aa2
  === BLOCK LINK ===
    0x2bc3
=== CODE BLOCK END ===

=== CODE BLOCK ADDRESS 0x2bc3 ===
  0x2bc3	dec    	eax
  0x2bc4	add    	esp, 0x30
  0x2bc7	pop    	edi
  0x2bc8	pop    	esi
  0x2bc9	pop    	ebx
  === BLOCK LINK ===
    0x2bca
=== CODE BLOCK END ===

=== CODE BLOCK ADDRESS 0x2bca ===
  0x2bca	ret    	
  0x2bcb	int3   	
  0x2bcc	int3   	
  0x2bcd	int3   	
  0x2bce	int3   	
  === BLOCK LINK ===
    0x2bcf
=== CODE BLOCK END ===

=== CODE BLOCK ADDRESS 0x2bcf ===
  0x2bcf	int3   	
  0x2bd0	int3   	
  0x2bd1	int3   	
  0x2bd2	int3   	
  0x2bd3	int3   	
  === BLOCK LINK ===
    0x2bd4
=== CODE BLOCK END ===

=== CODE BLOCK ADDRESS 0x2bd4 ===
  0x2bd4	dec    	eax
  0x2bd5	mov    	eax, esp
  0x2bd7	dec    	eax
  0x2bd8	mov    	dword ptr [eax + 8], ecx
  0x2bdb	dec    	eax
  === BLOCK LINK ===
    0x2bdc
=== CODE BLOCK END ===

=== CODE BLOCK ADDRESS 0x2bdc ===
  0x2bdc	mov    	dword ptr [eax + 0x10], edx
  0x2bdf	dec    	esp
  0x2be0	mov    	dword ptr [eax + 0x18], eax
  0x2be3	dec    	esp
  0x2be4	mov    	dword ptr [eax + 0x20], ecx
  === BLOCK LINK ===
    0x2be7
=== CODE BLOCK END ===

=== CODE BLOCK ADDRESS 0x2be7 ===
  0x2be7	push   	ebx
  0x2be8	push   	edi
  0x2be9	dec    	eax
  0x2bea	sub    	esp, 0x38
  0x2bed	mov    	ecx, 1
  === BLOCK LINK ===
    0x2bf2
=== CODE BLOCK END ===

=== CODE BLOCK ADDRESS 0x2bf2 ===
  0x2bf2	dec    	eax
  0x2bf3	lea    	edi, [eax + 0x10]
  0x2bf6	call   	0x2a66
  === BLOCK LINK ===
    0x2bfb
=== CODE BLOCK END ===

=== CODE BLOCK ADDRESS 0x2bfb ===
  0x2bfb	dec    	eax
  0x2bfc	mov    	ebx, eax
  0x2bfe	call   	0x1ccc
  === BLOCK LINK ===
    0x2c03
=== CODE BLOCK END ===

=== CODE BLOCK ADDRESS 0x2c03 ===
  0x2c03	dec    	esp
  0x2c04	mov    	eax, dword ptr [esp + 0x50]
  0x2c08	inc    	ebp
  0x2c09	xor    	ecx, ecx
  0x2c0b	dec    	eax
  === BLOCK LINK ===
    0x2c0c
=== CODE BLOCK END ===

=== CODE BLOCK ADDRESS 0x2c0c ===
  0x2c0c	mov    	edx, ebx
  0x2c0e	dec    	eax
  0x2c0f	mov    	dword ptr [esp + 0x20], edi
  0x2c13	dec    	eax
  0x2c14	mov    	ecx, dword ptr [eax]
  === BLOCK LINK ===
    0x2c16
=== CODE BLOCK END ===

=== CODE BLOCK ADDRESS 0x2c16 ===
  0x2c16	call   	0x2a96
  === BLOCK LINK ===
    0x2c1b
=== CODE BLOCK END ===

=== CODE BLOCK ADDRESS 0x2c1b ===
  0x2c1b	dec    	eax
  0x2c1c	add    	esp, 0x38
  0x2c1f	pop    	edi
  0x2c20	pop    	ebx
  0x2c21	ret    	
  === BLOCK LINK ===
    0x2c22
=== CODE BLOCK END ===

=== CODE BLOCK ADDRESS 0x1339 ===
  0x1339	dec    	esi
  0x133a	mov    	eax, dword ptr [ebx]
  0x133d	dec    	eax
  === BLOCK LINK ===
    0x133e
=== CODE BLOCK END ===

=== CODE BLOCK ADDRESS 0x2c22 ===
  0x2c22	int3   	
  0x2c23	int3   	
  0x2c24	int3   	
  0x2c25	int3   	
  0x2c26	int3   	
  === BLOCK LINK ===
    0x2c27
=== CODE BLOCK END ===

=== CODE BLOCK ADDRESS 0x2c27 ===
  0x2c27	int3   	
  0x2c28	dec    	esp
  0x2c29	mov    	dword ptr [esp + 0x18], eax
  0x2c2d	dec    	esp
  0x2c2e	mov    	dword ptr [esp + 0x20], ecx
  === BLOCK LINK ===
    0x2c32
=== CODE BLOCK END ===

=== CODE BLOCK ADDRESS 0x2c32 ===
  0x2c32	push   	ebx
  0x2c33	push   	ebp
  0x2c34	push   	esi
  0x2c35	push   	edi
  0x2c36	dec    	eax
  === BLOCK LINK ===
    0x2c37
=== CODE BLOCK END ===

=== CODE BLOCK ADDRESS 0x2c37 ===
  0x2c37	sub    	esp, 0x38
  0x2c3a	dec    	ecx
  0x2c3b	mov    	esi, eax
  0x2c3d	dec    	eax
  0x2c3e	lea    	ebp, [esp + 0x78]
  === BLOCK LINK ===
    0x2c42
=== CODE BLOCK END ===

=== CODE BLOCK ADDRESS 0x2c42 ===
  0x2c42	dec    	eax
  0x2c43	mov    	ebx, edx
  0x2c45	dec    	eax
  0x2c46	mov    	edi, ecx
  0x2c48	call   	0x1ccc
  === BLOCK LINK ===
    0x2c4d
=== CODE BLOCK END ===

=== CODE BLOCK ADDRESS 0x2c4d ===
  0x2c4d	dec    	eax
  0x2c4e	mov    	dword ptr [esp + 0x28], ebp
  0x2c52	dec    	esp
  0x2c53	mov    	ecx, esi
  0x2c55	dec    	eax
  === BLOCK LINK ===
    0x2c56
=== CODE BLOCK END ===

=== CODE BLOCK ADDRESS 0x2c56 ===
  0x2c56	and    	dword ptr [esp + 0x20], 0
  0x2c5b	dec    	esp
  0x2c5c	mov    	eax, ebx
  0x2c5e	dec    	eax
  0x2c5f	mov    	edx, edi
  === BLOCK LINK ===
    0x2c61
=== CODE BLOCK END ===

=== CODE BLOCK ADDRESS 0x2c61 ===
  0x2c61	dec    	eax
  0x2c62	mov    	ecx, dword ptr [eax]
  0x2c64	call   	0x2aae
  === BLOCK LINK ===
    0x2c69
=== CODE BLOCK END ===

=== CODE BLOCK ADDRESS 0x2c69 ===
  0x2c69	or     	ecx, 0xffffffff
  0x2c6c	test   	eax, eax
  0x2c6e	cmovs  	eax, ecx
  0x2c71	dec    	eax
  0x2c72	add    	esp, 0x38
  === BLOCK LINK ===
    0x2c75
=== CODE BLOCK END ===

=== CODE BLOCK ADDRESS 0x2c75 ===
  0x2c75	pop    	edi
  0x2c76	pop    	esi
  0x2c77	pop    	ebp
  0x2c78	pop    	ebx
  0x2c79	ret    	
  === BLOCK LINK ===
    0x2c7a
=== CODE BLOCK END ===

=== CODE BLOCK ADDRESS 0x2c7a ===
  0x2c7a	int3   	
  0x2c7b	int3   	
  0x2c7c	int3   	
  0x2c7d	int3   	
  0x2c7e	int3   	
  === BLOCK LINK ===
    0x2c7f
=== CODE BLOCK END ===

=== CODE BLOCK ADDRESS 0x2c7f ===
  0x2c7f	int3   	
  0x2c80	dec    	eax
  0x2c81	sub    	esp, 0x28
  0x2c84	dec    	ebp
  0x2c85	mov    	eax, dword ptr [ecx + 0x38]
  === BLOCK LINK ===
    0x2c88
=== CODE BLOCK END ===

=== CODE BLOCK ADDRESS 0x2c88 ===
  0x2c88	dec    	eax
  0x2c89	mov    	ecx, edx
  0x2c8b	dec    	ecx
  0x2c8c	mov    	edx, ecx
  0x2c8e	call   	0x2ca4
  === BLOCK LINK ===
    0x2c93
=== CODE BLOCK END ===

=== CODE BLOCK ADDRESS 0x2c93 ===
  0x2c93	mov    	eax, 1
  0x2c98	dec    	eax
  0x2c99	add    	esp, 0x28
  0x2c9c	ret    	
  0x2c9d	int3   	
  === BLOCK LINK ===
    0x2c9e
=== CODE BLOCK END ===

=== CODE BLOCK ADDRESS 0x2c9e ===
  0x2c9e	int3   	
  0x2c9f	int3   	
  0x2ca0	int3   	
  0x2ca1	int3   	
  0x2ca2	int3   	
  === BLOCK LINK ===
    0x2ca3
=== CODE BLOCK END ===

=== CODE BLOCK ADDRESS 0x2ca3 ===
  0x2ca3	int3   	
  0x2ca4	inc    	eax
  0x2ca5	push   	ebx
  0x2ca6	inc    	ebp
  0x2ca7	mov    	ebx, dword ptr [eax]
  === BLOCK LINK ===
    0x2ca9
=== CODE BLOCK END ===

=== CODE BLOCK ADDRESS 0x2ca9 ===
  0x2ca9	dec    	eax
  0x2caa	mov    	ebx, edx
  0x2cac	inc    	ecx
  0x2cad	and    	ebx, 0xfffffff8
  0x2cb0	dec    	esp
  === BLOCK LINK ===
    0x2cb1
=== CODE BLOCK END ===

=== CODE BLOCK ADDRESS 0x2cb1 ===
  0x2cb1	mov    	ecx, ecx
  0x2cb3	inc    	ecx
  0x2cb4	test   	byte ptr [eax], 4
  0x2cb7	dec    	esp
  0x2cb8	mov    	edx, ecx
  === BLOCK LINK ===
    0x2cba
=== CODE BLOCK END ===

=== CODE BLOCK ADDRESS 0x2cba ===
  0x2cba	je     	0x2ccf
  === BLOCK LINK ===
    0x2cbc
=== CODE BLOCK END ===

=== CODE BLOCK ADDRESS 0x2cbc ===
  0x2cbc	inc    	ecx
  0x2cbd	mov    	eax, dword ptr [eax + 8]
  0x2cc0	dec    	ebp
  0x2cc1	arpl   	word ptr [eax + 4], dx
  0x2cc4	neg    	eax
  === BLOCK LINK ===
    0x2cc6
=== CODE BLOCK END ===

=== CODE BLOCK ADDRESS 0x2cc6 ===
  0x2cc6	dec    	esp
  0x2cc7	add    	edx, ecx
  0x2cc9	dec    	eax
  0x2cca	arpl   	ax, cx
  0x2ccc	dec    	esp
  === BLOCK LINK ===
    0x2ccd
=== CODE BLOCK END ===

=== CODE BLOCK ADDRESS 0x2ccd ===
  0x2ccd	and    	edx, ecx
  0x2ccf	dec    	ecx
  0x2cd0	arpl   	bx, ax
  0x2cd2	dec    	edx
  0x2cd3	mov    	edx, dword ptr [eax + edx]
  === BLOCK LINK ===
    0x2cd6
=== CODE BLOCK END ===

=== CODE BLOCK ADDRESS 0x2cd6 ===
  0x2cd6	dec    	eax
  0x2cd7	mov    	eax, dword ptr [ebx + 0x10]
  0x2cda	mov    	ecx, dword ptr [eax + 8]
  0x2cdd	dec    	eax
  0x2cde	mov    	eax, dword ptr [ebx + 8]
  === BLOCK LINK ===
    0x2ce1
=== CODE BLOCK END ===

=== CODE BLOCK ADDRESS 0x2ce1 ===
  0x2ce1	test   	byte ptr [ecx + eax + 3], 0xf
  0x2ce6	je     	0x2cf3
  === BLOCK LINK ===
    0x2ce8
=== CODE BLOCK END ===

=== CODE BLOCK ADDRESS 0x2ce8 ===
  0x2ce8	movzx  	eax, byte ptr [ecx + eax + 3]
  0x2ced	and    	eax, 0xfffffff0
  0x2cf0	dec    	esp
  0x2cf1	add    	ecx, eax
  0x2cf3	dec    	esp
  === BLOCK LINK ===
    0x2cf4
=== CODE BLOCK END ===

=== CODE BLOCK ADDRESS 0x2cf4 ===
  0x2cf4	xor    	ecx, edx
  0x2cf6	dec    	ecx
  0x2cf7	mov    	ecx, ecx
  0x2cf9	pop    	ebx
  0x2cfa	jmp    	0x2000
  === BLOCK LINK ===
    0x2cff
=== CODE BLOCK END ===

=== CODE BLOCK ADDRESS 0x2cff ===
  0x2cff	int3   	
  0x2d00	int3   	
  0x2d01	int3   	
  0x2d02	int3   	
  0x2d03	int3   	
  === BLOCK LINK ===
    0x2d04
=== CODE BLOCK END ===

=== CODE BLOCK ADDRESS 0x2d04 ===
  0x2d04	int3   	
  0x2d05	int3   	
  0x2d06	nop    	word ptr [eax + eax]
  0x2d10	jmp    	eax
  === BLOCK LINK ===
    0x2d12
=== CODE BLOCK END ===

=== CODE BLOCK ADDRESS 0x2d12 ===
  0x2d12	int3   	
  0x2d13	int3   	
  0x2d14	int3   	
  0x2d15	int3   	
  0x2d16	int3   	
  === BLOCK LINK ===
    0x2d17
=== CODE BLOCK END ===

=== CODE BLOCK ADDRESS 0x2d17 ===
  0x2d17	int3   	
  0x2d18	inc    	eax
  0x2d19	push   	ebp
  0x2d1a	dec    	eax
  0x2d1b	sub    	esp, 0x20
  === BLOCK LINK ===
    0x2d1e
=== CODE BLOCK END ===

=== CODE BLOCK ADDRESS 0x2d1e ===
  0x2d1e	dec    	eax
  0x2d1f	mov    	ebp, edx
  0x2d21	dec    	eax
  0x2d22	mov    	eax, dword ptr [ecx]
  0x2d24	dec    	eax
  === BLOCK LINK ===
    0x2d25
=== CODE BLOCK END ===

=== CODE BLOCK ADDRESS 0x2d25 ===
  0x2d25	mov    	edx, ecx
  0x2d27	mov    	ecx, dword ptr [eax]
  0x2d29	call   	0x2b26
  === BLOCK LINK ===
    0x2d2e
=== CODE BLOCK END ===

=== CODE BLOCK ADDRESS 0x2d2e ===
  0x2d2e	nop    	
  0x2d2f	dec    	eax
  0x2d30	add    	esp, 0x20
  0x2d33	pop    	ebp
  0x2d34	ret    	
  === BLOCK LINK ===
    0x2d35
=== CODE BLOCK END ===

=== CODE BLOCK ADDRESS 0x2d35 ===
  0x2d35	int3   	
  0x2d36	int3   	
  0x2d37	int3   	
  0x2d38	int3   	
  0x2d39	int3   	
  === BLOCK LINK ===
    0x2d3a
=== CODE BLOCK END ===

=== CODE BLOCK ADDRESS 0x2d3a ===
  0x2d3a	int3   	
  0x2d3b	int3   	
  0x2d3c	inc    	eax
  0x2d3d	push   	ebp
  0x2d3e	dec    	eax
  === BLOCK LINK ===
    0x2d3f
=== CODE BLOCK END ===

=== CODE BLOCK ADDRESS 0x2d3f ===
  0x2d3f	mov    	ebp, edx
  0x2d41	dec    	eax
  0x2d42	mov    	eax, dword ptr [ecx]
  0x2d44	xor    	ecx, ecx
  0x2d46	cmp    	dword ptr [eax], 0xc0000005
  === BLOCK LINK ===
    0x2d4c
=== CODE BLOCK END ===

=== CODE BLOCK ADDRESS 0x2d4c ===
  0x2d4c	sete   	cl
  0x2d4f	mov    	eax, ecx
  0x2d51	pop    	ebp
  0x2d52	ret    	
  0x2d53	int3   	
  === BLOCK LINK ===
    0x2d54
=== CODE BLOCK END ===

=== CODE BLOCK ADDRESS 0x2d54 ===
  0x2d54	add    	byte ptr [eax], al
  0x2d56	add    	byte ptr [eax], al
  0x2d58	add    	byte ptr [eax], al
  0x2d5a	add    	byte ptr [eax], al
  0x2d5c	add    	byte ptr [eax], al
  === BLOCK LINK ===
    0x2d5e
=== CODE BLOCK END ===

=== CODE BLOCK ADDRESS 0x2d5e ===
  0x2d5e	add    	byte ptr [eax], al
  0x2d60	add    	byte ptr [eax], al
  0x2d62	add    	byte ptr [eax], al
  0x2d64	add    	byte ptr [eax], al
  0x2d66	add    	byte ptr [eax], al
  === BLOCK LINK ===
    0x2d68
=== CODE BLOCK END ===

=== CODE BLOCK ADDRESS 0x2d68 ===
  0x2d68	add    	byte ptr [eax], al
  0x2d6a	add    	byte ptr [eax], al
  0x2d6c	add    	byte ptr [eax], al
  0x2d6e	add    	byte ptr [eax], al
  0x2d70	add    	byte ptr [eax], al
  === BLOCK LINK ===
    0x2d72
=== CODE BLOCK END ===

=== CODE BLOCK ADDRESS 0x2d72 ===
  0x2d72	add    	byte ptr [eax], al
  0x2d74	add    	byte ptr [eax], al
  0x2d76	add    	byte ptr [eax], al
  0x2d78	add    	byte ptr [eax], al
  0x2d7a	add    	byte ptr [eax], al
  === BLOCK LINK ===
    0x2d7c
=== CODE BLOCK END ===

=== CODE BLOCK ADDRESS 0x2d7c ===
  0x2d7c	add    	byte ptr [eax], al
  0x2d7e	add    	byte ptr [eax], al
  0x2d80	add    	byte ptr [eax], al
  0x2d82	add    	byte ptr [eax], al
  0x2d84	add    	byte ptr [eax], al
  === BLOCK LINK ===
    0x2d86
=== CODE BLOCK END ===

=== CODE BLOCK ADDRESS 0x2d86 ===
  0x2d86	add    	byte ptr [eax], al
  0x2d88	add    	byte ptr [eax], al
  0x2d8a	add    	byte ptr [eax], al
  0x2d8c	add    	byte ptr [eax], al
  0x2d8e	add    	byte ptr [eax], al
  === BLOCK LINK ===
    0x2d90
=== CODE BLOCK END ===

=== CODE BLOCK ADDRESS 0x2d90 ===
  0x2d90	add    	byte ptr [eax], al
  0x2d92	add    	byte ptr [eax], al
  0x2d94	add    	byte ptr [eax], al
  0x2d96	add    	byte ptr [eax], al
  0x2d98	add    	byte ptr [eax], al
  === BLOCK LINK ===
    0x2d9a
=== CODE BLOCK END ===

=== CODE BLOCK ADDRESS 0x2d9a ===
  0x2d9a	add    	byte ptr [eax], al
  0x2d9c	add    	byte ptr [eax], al
  0x2d9e	add    	byte ptr [eax], al
  0x2da0	add    	byte ptr [eax], al
  0x2da2	add    	byte ptr [eax], al
  === BLOCK LINK ===
    0x2da4
=== CODE BLOCK END ===

=== CODE BLOCK ADDRESS 0x2da4 ===
  0x2da4	add    	byte ptr [eax], al
  0x2da6	add    	byte ptr [eax], al
  0x2da8	add    	byte ptr [eax], al
  0x2daa	add    	byte ptr [eax], al
  0x2dac	add    	byte ptr [eax], al
  === BLOCK LINK ===
    0x2dae
=== CODE BLOCK END ===

=== CODE BLOCK ADDRESS 0x2dae ===
  0x2dae	add    	byte ptr [eax], al
  0x2db0	add    	byte ptr [eax], al
  0x2db2	add    	byte ptr [eax], al
  0x2db4	add    	byte ptr [eax], al
  0x2db6	add    	byte ptr [eax], al
  === BLOCK LINK ===
    0x2db8
=== CODE BLOCK END ===

=== CODE BLOCK ADDRESS 0x2db8 ===
  0x2db8	add    	byte ptr [eax], al
  0x2dba	add    	byte ptr [eax], al
  0x2dbc	add    	byte ptr [eax], al
  0x2dbe	add    	byte ptr [eax], al
  0x2dc0	add    	byte ptr [eax], al
  === BLOCK LINK ===
    0x2dc2
=== CODE BLOCK END ===

=== CODE BLOCK ADDRESS 0x2dc2 ===
  0x2dc2	add    	byte ptr [eax], al
  0x2dc4	add    	byte ptr [eax], al
  0x2dc6	add    	byte ptr [eax], al
  0x2dc8	add    	byte ptr [eax], al
  0x2dca	add    	byte ptr [eax], al
  === BLOCK LINK ===
    0x2dcc
=== CODE BLOCK END ===

=== CODE BLOCK ADDRESS 0x2dcc ===
  0x2dcc	add    	byte ptr [eax], al
  0x2dce	add    	byte ptr [eax], al
  0x2dd0	add    	byte ptr [eax], al
  0x2dd2	add    	byte ptr [eax], al
  0x2dd4	add    	byte ptr [eax], al
  === BLOCK LINK ===
    0x2dd6
=== CODE BLOCK END ===

=== CODE BLOCK ADDRESS 0x2dd6 ===
  0x2dd6	add    	byte ptr [eax], al
  0x2dd8	add    	byte ptr [eax], al
  0x2dda	add    	byte ptr [eax], al
  0x2ddc	add    	byte ptr [eax], al
  0x2dde	add    	byte ptr [eax], al
  === BLOCK LINK ===
    0x2de0
=== CODE BLOCK END ===

=== CODE BLOCK ADDRESS 0x2de0 ===
  0x2de0	add    	byte ptr [eax], al
  0x2de2	add    	byte ptr [eax], al
  0x2de4	add    	byte ptr [eax], al
  0x2de6	add    	byte ptr [eax], al
  0x2de8	add    	byte ptr [eax], al
  === BLOCK LINK ===
    0x2dea
=== CODE BLOCK END ===

=== CODE BLOCK ADDRESS 0x2dea ===
  0x2dea	add    	byte ptr [eax], al
  0x2dec	add    	byte ptr [eax], al
  0x2dee	add    	byte ptr [eax], al
  0x2df0	add    	byte ptr [eax], al
  0x2df2	add    	byte ptr [eax], al
  === BLOCK LINK ===
    0x2df4
=== CODE BLOCK END ===

=== CODE BLOCK ADDRESS 0x2df4 ===
  0x2df4	add    	byte ptr [eax], al
  0x2df6	add    	byte ptr [eax], al
  0x2df8	add    	byte ptr [eax], al
  0x2dfa	add    	byte ptr [eax], al
  0x2dfc	add    	byte ptr [eax], al
  === BLOCK LINK ===
    0x2dfe
=== CODE BLOCK END ===

=== CODE BLOCK ADDRESS 0x2dfe ===
=== CODE BLOCK END ===

=== DATA BLOCK ADDRESS 0x3000 ===
  0x3000	b0 60 00 40 01 00 00 00 50 61 00 40 01 00 00 00 	0`0@0000Pa0@0000
  0x3010	18 01 00 00 00 00 00 00 00 00 00 00 00 00 00 00 	0000000000000000
  0x3020	00 00 00 00 00 00 00 00 00 00 00 00 00 00 00 00 	0000000000000000
  0x3030	00 00 00 00 00 00 00 00 00 00 00 00 00 00 00 00 	0000000000000000
  0x3040	00 00 00 00 00 00 00 00 00 00 00 00 00 00 00 00 	0000000000000000
  0x3050	00 00 00 00 00 00 00 00 00 00 00 00 00 00 00 00 	0000000000000000
  0x3060	00 00 00 00 00 00 00 00 00 60 00 40 01 00 00 00 	000000000`0@0000
  0x3070	00 00 00 00 00 00 00 00 00 00 00 00 00 00 00 00 	0000000000000000
  0x3080	e8 33 00 40 01 00 00 00 f0 33 00 40 01 00 00 00 	030@0000030@0000
  0x3090	68 34 00 40 01 00 00 00 0b 00 00 00 00 00 00 00 	h40@000000000000
  0x30a0	00 75 01 00 00 00 00 00 00 00 00 00 00 00 00 00 	0u00000000000000
  0x30b0	00 00 00 00 00 00 00 00 00 00 00 00 00 00 00 00 	0000000000000000
  0x30c0	00 00 00 00 00 00 00 00 00 00 00 00 00 00 00 00 	0000000000000000
  0x30d0	00 00 00 00 00 00 00 00 00 00 00 00 00 00 00 00 	0000000000000000
  0x30e0	00 00 00 00 00 00 00 00 00 00 00 00 00 00 00 00 	0000000000000000
  0x30f0	00 00 00 00 00 00 00 00 00 00 00 00 00 00 00 00 	0000000000000000
  0x3100	00 00 00 00 00 00 00 00 00 00 00 00 00 00 00 00 	0000000000000000
  0x3110	00 00 00 00 00 00 00 00 00 00 00 00 00 00 00 00 	0000000000000000
  0x3120	00 00 00 00 00 00 00 00 73 00 00 00 00 00 00 80 	00000000s0000000
  0x3130	74 00 00 00 00 00 00 80 e6 59 00 00 00 00 00 00 	t00000000Y000000
  0x3140	6f 00 00 00 00 00 00 80 fc 59 00 00 00 00 00 00 	o00000000Y000000
  0x3150	00 00 00 00 00 00 00 00 58 5b 00 00 00 00 00 00 	00000000X[000000
  0x3160	00 00 00 00 00 00 00 00 88 5b 00 00 00 00 00 00 	000000000[000000
  0x3170	08 5a 00 00 00 00 00 00 6c 5b 00 00 00 00 00 00 	0Z000000l[000000
  0x3180	00 00 00 00 00 00 00 00 72 5a 00 00 00 00 00 00 	00000000rZ000000
  0x3190	00 00 00 00 00 00 00 00 92 5a 00 00 00 00 00 00 	000000000Z000000
  0x31a0	00 00 00 00 00 00 00 00 00 5b 00 00 00 00 00 00 	000000000[000000
  0x31b0	00 00 00 00 00 00 00 00 80 5a 00 00 00 00 00 00 	000000000Z000000
  0x31c0	00 00 00 00 00 00 00 00 c2 5b 00 00 00 00 00 00 	000000000[000000
  0x31d0	00 00 00 00 00 00 00 00 d4 59 00 00 00 00 00 00 	000000000Y000000
  0x31e0	00 00 00 00 00 00 00 00 d6 5b 00 00 00 00 00 00 	000000000[000000
  0x31f0	ba 5a 00 00 00 00 00 00 d0 5a 00 00 00 00 00 00 	0Z0000000Z000000
  0x3200	ea 5b 00 00 00 00 00 00 00 00 00 00 00 00 00 00 	0[00000000000000
  0x3210	a6 5b 00 00 00 00 00 00 00 00 00 00 00 00 00 00 	0[00000000000000
  0x3220	a0 5a 00 00 00 00 00 00 00 00 00 00 00 00 00 00 	0Z00000000000000
  0x3230	16 5b 00 00 00 00 00 00 2a 5b 00 00 00 00 00 00 	0[000000*[000000
  0x3240	44 5b 00 00 00 00 00 00 00 00 00 00 00 00 00 00 	D[00000000000000
  0x3250	e6 5a 00 00 00 00 00 00 00 00 00 00 00 00 00 00 	0Z00000000000000
  0x3260	2e 57 00 00 00 00 00 00 4c 57 00 00 00 00 00 00 	.W000000LW000000
  0x3270	6c 57 00 00 00 00 00 00 8c 57 00 00 00 00 00 00 	lW0000000W000000
  0x3280	98 57 00 00 00 00 00 00 b2 57 00 00 00 00 00 00 	0W0000000W000000
  0x3290	cc 57 00 00 00 00 00 00 de 57 00 00 00 00 00 00 	0W0000000W000000
  0x32a0	ea 57 00 00 00 00 00 00 f8 57 00 00 00 00 00 00 	0W0000000W000000
  0x32b0	1c 58 00 00 00 00 00 00 3a 58 00 00 00 00 00 00 	0X000000:X000000
  0x32c0	5c 58 00 00 00 00 00 00 7c 58 00 00 00 00 00 00 	0X000000|X000000
  0x32d0	92 58 00 00 00 00 00 00 a6 58 00 00 00 00 00 00 	0X0000000X000000
  0x32e0	ca 58 00 00 00 00 00 00 d8 58 00 00 00 00 00 00 	0X0000000X000000
  0x32f0	e6 58 00 00 00 00 00 00 f6 58 00 00 00 00 00 00 	0X0000000X000000
  0x3300	06 59 00 00 00 00 00 00 14 59 00 00 00 00 00 00 	0Y0000000Y000000
  0x3310	20 59 00 00 00 00 00 00 2a 59 00 00 00 00 00 00 	 Y000000*Y000000
  0x3320	36 59 00 00 00 00 00 00 42 59 00 00 00 00 00 00 	6Y000000BY000000
  0x3330	4e 59 00 00 00 00 00 00 5e 59 00 00 00 00 00 00 	NY000000^Y000000
  0x3340	6e 59 00 00 00 00 00 00 1c 57 00 00 00 00 00 00 	nY0000000W000000
  0x3350	0a 57 00 00 00 00 00 00 fa 56 00 00 00 00 00 00 	0W0000000V000000
  0x3360	e4 56 00 00 00 00 00 00 b6 58 00 00 00 00 00 00 	0V0000000X000000
  0x3370	00 00 00 00 00 00 00 00 7c 56 00 00 00 00 00 00 	00000000|V000000
  0x3380	8a 56 00 00 00 00 00 00 94 56 00 00 00 00 00 00 	0V0000000V000000
  0x3390	70 56 00 00 00 00 00 00 00 00 00 00 00 00 00 00 	pV00000000000000
  0x33a0	86 59 00 00 00 00 00 00 00 00 00 00 00 00 00 00 	0Y00000000000000
  0x33b0	2a 5a 00 00 00 00 00 00 18 5a 00 00 00 00 00 00 	*Z0000000Z000000
  0x33c0	3a 5a 00 00 00 00 00 00 50 5a 00 00 00 00 00 00 	:Z000000PZ000000
  0x33d0	00 00 00 00 00 00 00 00 60 5a 00 00 00 00 00 00 	00000000`Z000000
  0x33e0	00 00 00 00 00 00 00 00 e0 23 00 40 01 00 00 00 	000000000#0@0000
  0x33f0	10 2d 00 40 01 00 00 00 00 00 00 00 00 00 00 00 	0-0@000000000000
  0x3400	20 1e 00 40 01 00 00 00 00 00 00 00 00 00 00 00 	 00@000000000000
  0x3410	00 00 00 00 00 00 00 00 50 1d 00 40 01 00 00 00 	00000000P00@0000
  0x3420	00 1e 00 40 01 00 00 00 b0 1c 00 40 01 00 00 00 	000@0000000@0000
  0x3430	e0 1c 00 40 01 00 00 00 20 1d 00 40 01 00 00 00 	000@0000 00@0000
  0x3440	00 00 00 00 00 00 00 00 00 00 00 00 00 00 00 00 	0000000000000000
  0x3450	00 00 00 00 00 00 00 00 00 00 00 00 00 00 00 00 	0000000000000000
  0x3460	00 00 00 00 00 00 00 00 b0 1c 00 00 e0 1c 00 00 	0000000000000000
  0x3470	20 1d 00 00 50 1d 00 00 00 1e 00 00 20 1e 00 00 	 000P0000000 000
  0x3480	d0 1f 00 00 e0 23 00 00 10 26 00 00 a0 26 00 00 	00000#000&000&00
  0x3490	50 27 00 00 00 00 00 00 00 00 00 00 00 00 00 00 	P'00000000000000
  0x34a0	4e 00 44 00 4b 00 50 00 69 00 6e 00 67 00 20 00 	N0D0K0P0i0n0g0 0
  0x34b0	63 00 61 00 6e 00 20 00 72 00 75 00 6e 00 20 00 	c0a0n0 0r0u0n0 0
  0x34c0	6f 00 6e 00 20 00 61 00 20 00 73 00 79 00 73 00 	o0n0 0a0 0s0y0s0
  0x34d0	74 00 65 00 6d 00 20 00 61 00 73 00 20 00 53 00 	t0e0m0 0a0s0 0S0
  0x34e0	65 00 72 00 76 00 65 00 72 00 20 00 6f 00 72 00 	e0r0v0e0r0 0o0r0
  0x34f0	20 00 43 00 6c 00 69 00 65 00 6e 00 74 00 2e 00 	 0C0l0i0e0n0t0.0
  0x3500	0a 00 52 00 75 00 6e 00 20 00 61 00 73 00 20 00 	00R0u0n0 0a0s0 0
  0x3510	61 00 20 00 53 00 65 00 72 00 76 00 65 00 72 00 	a0 0S0e0r0v0e0r0
  0x3520	3a 00 0a 00 09 00 20 00 2d 00 53 00 20 00 2d 00 	:00000 0-0S0 0-0
  0x3530	2d 00 20 00 53 00 70 00 65 00 63 00 69 00 66 00 	-0 0S0p0e0c0i0f0
  0x3540	79 00 20 00 74 00 68 00 61 00 74 00 20 00 74 00 	y0 0t0h0a0t0 0t0
  0x3550	68 00 65 00 20 00 73 00 79 00 73 00 74 00 65 00 	h0e0 0s0y0s0t0e0
  0x3560	6d 00 20 00 77 00 69 00 6c 00 6c 00 20 00 62 00 	m0 0w0i0l0l0 0b0
  0x3570	65 00 20 00 61 00 20 00 53 00 65 00 72 00 76 00 	e0 0a0 0S0e0r0v0
  0x3580	65 00 72 00 2e 00 0a 00 09 00 20 00 2d 00 53 00 	e0r0.00000 0-0S0
  0x3590	65 00 72 00 76 00 65 00 72 00 41 00 64 00 64 00 	e0r0v0e0r0A0d0d0
  0x35a0	72 00 20 00 3c 00 53 00 65 00 72 00 76 00 65 00 	r0 0<0S0e0r0v0e0
  0x35b0	72 00 49 00 50 00 41 00 64 00 64 00 72 00 65 00 	r0I0P0A0d0d0r0e0
  0x35c0	73 00 73 00 3e 00 3a 00 3c 00 53 00 65 00 72 00 	s0s0>0:0<0S0e0r0
  0x35d0	76 00 65 00 72 00 50 00 6f 00 72 00 74 00 3e 00 	v0e0r0P0o0r0t0>0
  0x35e0	20 00 2d 00 2d 00 20 00 53 00 70 00 65 00 63 00 	 0-0-0 0S0p0e0c0
  0x35f0	69 00 66 00 79 00 20 00 69 00 70 00 20 00 61 00 	i0f0y0 0i0p0 0a0
  0x3600	64 00 64 00 72 00 65 00 73 00 73 00 20 00 6f 00 	d0d0r0e0s0s0 0o0
  0x3610	66 00 20 00 74 00 68 00 65 00 20 00 73 00 65 00 	f0 0t0h0e0 0s0e0
  0x3620	72 00 76 00 65 00 72 00 20 00 61 00 6e 00 64 00 	r0v0e0r0 0a0n0d0
  0x3630	20 00 74 00 68 00 65 00 20 00 70 00 6f 00 72 00 	 0t0h0e0 0p0o0r0
  0x3640	74 00 20 00 6f 00 6e 00 20 00 77 00 68 00 69 00 	t0 0o0n0 0w0h0i0
  0x3650	63 00 68 00 20 00 74 00 6f 00 20 00 6c 00 69 00 	c0h0 0t0o0 0l0i0
  0x3660	73 00 74 00 65 00 6e 00 20 00 69 00 6e 00 20 00 	s0t0e0n0 0i0n0 0
  0x3670	66 00 6f 00 72 00 6d 00 61 00 74 00 20 00 6f 00 	f0o0r0m0a0t0 0o0
  0x3680	66 00 20 00 69 00 70 00 53 00 65 00 72 00 76 00 	f0 0i0p0S0e0r0v0
  0x3690	65 00 72 00 3a 00 70 00 6f 00 72 00 74 00 53 00 	e0r0:0p0o0r0t0S0
  0x36a0	65 00 72 00 76 00 65 00 72 00 2e 00 0a 00 09 00 	e0r0v0e0r0.00000
  0x36b0	20 00 2d 00 53 00 65 00 72 00 76 00 65 00 72 00 	 0-0S0e0r0v0e0r0
  0x36c0	49 00 66 00 20 00 3c 00 53 00 65 00 72 00 76 00 	I0f0 0<0S0e0r0v0
  0x36d0	65 00 72 00 49 00 6e 00 74 00 65 00 72 00 66 00 	e0r0I0n0t0e0r0f0
  0x36e0	61 00 63 00 65 00 49 00 6e 00 64 00 65 00 78 00 	a0c0e0I0n0d0e0x0
  0x36f0	3e 00 20 00 2d 00 2d 00 20 00 53 00 70 00 65 00 	>0 0-0-0 0S0p0e0
  0x3700	63 00 69 00 66 00 79 00 20 00 74 00 68 00 65 00 	c0i0f0y0 0t0h0e0
  0x3710	20 00 69 00 6e 00 74 00 65 00 72 00 66 00 61 00 	 0i0n0t0e0r0f0a0
  0x3720	63 00 65 00 20 00 69 00 6e 00 64 00 65 00 78 00 	c0e0 0i0n0d0e0x0
  0x3730	20 00 66 00 6f 00 72 00 20 00 74 00 68 00 65 00 	 0f0o0r0 0t0h0e0
  0x3740	20 00 73 00 65 00 72 00 76 00 65 00 72 00 2e 00 	 0s0e0r0v0e0r0.0
  0x3750	0a 00 09 00 20 00 2d 00 54 00 65 00 73 00 74 00 	0000 0-0T0e0s0t0
  0x3760	54 00 79 00 70 00 65 00 20 00 3c 00 54 00 65 00 	T0y0p0e0 0<0T0e0
  0x3770	73 00 74 00 54 00 79 00 70 00 65 00 3e 00 20 00 	s0t0T0y0p0e0>0 0
  0x3780	2d 00 2d 00 20 00 53 00 70 00 65 00 63 00 69 00 	-0-0 0S0p0e0c0i0
  0x3790	66 00 79 00 20 00 74 00 68 00 65 00 20 00 74 00 	f0y0 0t0h0e0 0t0
  0x37a0	79 00 70 00 65 00 20 00 6f 00 66 00 20 00 74 00 	y0p0e0 0o0f0 0t0
  0x37b0	65 00 73 00 74 00 20 00 74 00 6f 00 20 00 72 00 	e0s0t0 0t0o0 0r0
  0x37c0	75 00 6e 00 2e 00 0a 00 09 00 20 00 2d 00 57 00 	u0n0.00000 0-0W0
  0x37d0	20 00 3c 00 54 00 69 00 6d 00 65 00 6f 00 75 00 	 0<0T0i0m0e0o0u0
  0x37e0	74 00 3e 00 20 00 2d 00 2d 00 20 00 53 00 70 00 	t0>0 0-0-0 0S0p0
  0x37f0	65 00 63 00 69 00 66 00 79 00 20 00 74 00 68 00 	e0c0i0f0y0 0t0h0
  0x3800	65 00 20 00 74 00 69 00 6d 00 65 00 6f 00 75 00 	e0 0t0i0m0e0o0u0
  0x3810	74 00 20 00 6f 00 66 00 20 00 53 00 65 00 72 00 	t0 0o0f0 0S0e0r0
  0x3820	76 00 65 00 72 00 20 00 4c 00 69 00 73 00 74 00 	v0e0r0 0L0i0s0t0
  0x3830	65 00 6e 00 20 00 73 00 6f 00 63 00 6b 00 65 00 	e0n0 0s0o0c0k0e0
  0x3840	74 00 2c 00 20 00 69 00 6e 00 20 00 73 00 65 00 	t0,0 0i0n0 0s0e0
  0x3850	63 00 6f 00 6e 00 64 00 73 00 2e 00 20 00 49 00 	c0o0n0d0s0.0 0I0
  0x3860	66 00 20 00 74 00 68 00 69 00 73 00 20 00 70 00 	f0 0t0h0i0s0 0p0
  0x3870	61 00 72 00 61 00 6d 00 65 00 74 00 65 00 72 00 	a0r0a0m0e0t0e0r0
  0x3880	20 00 69 00 73 00 20 00 6e 00 6f 00 74 00 20 00 	 0i0s0 0n0o0t0 0
  0x3890	73 00 70 00 65 00 63 00 69 00 66 00 69 00 65 00 	s0p0e0c0i0f0i0e0
  0x38a0	64 00 2c 00 20 00 77 00 69 00 6c 00 6c 00 20 00 	d0,0 0w0i0l0l0 0
  0x38b0	77 00 61 00 69 00 74 00 20 00 69 00 6e 00 66 00 	w0a0i0t0 0i0n0f0
  0x38c0	69 00 6e 00 69 00 74 00 65 00 6c 00 79 00 2e 00 	i0n0i0t0e0l0y0.0
  0x38d0	0a 00 0a 00 52 00 75 00 6e 00 20 00 61 00 73 00 	0000R0u0n0 0a0s0
  0x38e0	20 00 61 00 20 00 43 00 6c 00 69 00 65 00 6e 00 	 0a0 0C0l0i0e0n0
  0x38f0	74 00 3a 00 0a 00 09 00 20 00 2d 00 43 00 20 00 	t0:00000 0-0C0 0
  0x3900	2d 00 2d 00 20 00 53 00 70 00 65 00 63 00 69 00 	-0-0 0S0p0e0c0i0
  0x3910	66 00 79 00 20 00 74 00 68 00 61 00 74 00 20 00 	f0y0 0t0h0a0t0 0
  0x3920	74 00 68 00 65 00 20 00 73 00 79 00 73 00 74 00 	t0h0e0 0s0y0s0t0
  0x3930	65 00 6d 00 20 00 77 00 69 00 6c 00 6c 00 20 00 	e0m0 0w0i0l0l0 0
  0x3940	62 00 65 00 20 00 61 00 20 00 43 00 6c 00 69 00 	b0e0 0a0 0C0l0i0
  0x3950	65 00 6e 00 74 00 2e 00 0a 00 09 00 20 00 2d 00 	e0n0t0.00000 0-0
  0x3960	53 00 65 00 72 00 76 00 65 00 72 00 41 00 64 00 	S0e0r0v0e0r0A0d0
  0x3970	64 00 72 00 20 00 3c 00 53 00 65 00 72 00 76 00 	d0r0 0<0S0e0r0v0
  0x3980	65 00 72 00 49 00 50 00 41 00 64 00 64 00 72 00 	e0r0I0P0A0d0d0r0
  0x3990	65 00 73 00 73 00 3e 00 3a 00 3c 00 53 00 65 00 	e0s0s0>0:0<0S0e0
  0x39a0	72 00 76 00 65 00 72 00 50 00 6f 00 72 00 74 00 	r0v0e0r0P0o0r0t0
  0x39b0	3e 00 20 00 2d 00 2d 00 20 00 53 00 70 00 65 00 	>0 0-0-0 0S0p0e0
  0x39c0	63 00 69 00 66 00 79 00 20 00 69 00 70 00 20 00 	c0i0f0y0 0i0p0 0
  0x39d0	61 00 64 00 64 00 72 00 65 00 73 00 73 00 20 00 	a0d0d0r0e0s0s0 0
  0x39e0	6f 00 66 00 20 00 74 00 68 00 65 00 20 00 73 00 	o0f0 0t0h0e0 0s0
  0x39f0	65 00 72 00 76 00 65 00 72 00 20 00 61 00 6e 00 	e0r0v0e0r0 0a0n0
  0x3a00	64 00 20 00 74 00 68 00 65 00 20 00 70 00 6f 00 	d0 0t0h0e0 0p0o0
  0x3a10	72 00 74 00 20 00 6f 00 6e 00 20 00 77 00 68 00 	r0t0 0o0n0 0w0h0
  0x3a20	69 00 63 00 68 00 20 00 74 00 6f 00 20 00 6c 00 	i0c0h0 0t0o0 0l0
  0x3a30	69 00 73 00 74 00 65 00 6e 00 20 00 69 00 6e 00 	i0s0t0e0n0 0i0n0
  0x3a40	20 00 66 00 6f 00 72 00 6d 00 61 00 74 00 20 00 	 0f0o0r0m0a0t0 0
  0x3a50	6f 00 66 00 20 00 69 00 70 00 53 00 65 00 72 00 	o0f0 0i0p0S0e0r0
  0x3a60	76 00 65 00 72 00 3a 00 70 00 6f 00 72 00 74 00 	v0e0r0:0p0o0r0t0
  0x3a70	53 00 65 00 72 00 76 00 65 00 72 00 2e 00 0a 00 	S0e0r0v0e0r0.000
  0x3a80	09 00 20 00 2d 00 43 00 6c 00 69 00 65 00 6e 00 	00 0-0C0l0i0e0n0
  0x3a90	74 00 41 00 64 00 64 00 72 00 20 00 3c 00 43 00 	t0A0d0d0r0 0<0C0
  0x3aa0	6c 00 69 00 65 00 6e 00 74 00 49 00 50 00 41 00 	l0i0e0n0t0I0P0A0
  0x3ab0	64 00 64 00 72 00 65 00 73 00 73 00 3e 00 20 00 	d0d0r0e0s0s0>0 0
  0x3ac0	2d 00 2d 00 20 00 53 00 70 00 65 00 63 00 69 00 	-0-0 0S0p0e0c0i0
  0x3ad0	66 00 79 00 20 00 74 00 68 00 65 00 20 00 69 00 	f0y0 0t0h0e0 0i0
  0x3ae0	70 00 20 00 61 00 64 00 64 00 72 00 65 00 73 00 	p0 0a0d0d0r0e0s0
  0x3af0	73 00 20 00 6f 00 66 00 20 00 74 00 68 00 65 00 	s0 0o0f0 0t0h0e0
  0x3b00	20 00 43 00 6c 00 69 00 65 00 6e 00 74 00 2e 00 	 0C0l0i0e0n0t0.0
  0x3b10	0a 00 09 00 20 00 2d 00 43 00 6c 00 69 00 65 00 	0000 0-0C0l0i0e0
  0x3b20	6e 00 74 00 49 00 66 00 20 00 3c 00 43 00 6c 00 	n0t0I0f0 0<0C0l0
  0x3b30	69 00 65 00 6e 00 74 00 49 00 6e 00 74 00 65 00 	i0e0n0t0I0n0t0e0
  0x3b40	72 00 66 00 61 00 63 00 65 00 49 00 6e 00 64 00 	r0f0a0c0e0I0n0d0
  0x3b50	65 00 78 00 3e 00 20 00 2d 00 2d 00 20 00 53 00 	e0x0>0 0-0-0 0S0
  0x3b60	70 00 65 00 63 00 69 00 66 00 79 00 20 00 74 00 	p0e0c0i0f0y0 0t0
  0x3b70	68 00 65 00 20 00 69 00 6e 00 74 00 65 00 72 00 	h0e0 0i0n0t0e0r0
  0x3b80	66 00 61 00 63 00 65 00 20 00 69 00 6e 00 64 00 	f0a0c0e0 0i0n0d0
  0x3b90	65 00 78 00 20 00 66 00 6f 00 72 00 20 00 74 00 	e0x0 0f0o0r0 0t0
  0x3ba0	68 00 65 00 20 00 43 00 6c 00 69 00 65 00 6e 00 	h0e0 0C0l0i0e0n0
  0x3bb0	74 00 2e 00 0a 00 09 00 20 00 2d 00 4c 00 6f 00 	t0.00000 0-0L0o0
  0x3bc0	67 00 46 00 69 00 6c 00 65 00 6e 00 61 00 6d 00 	g0F0i0l0e0n0a0m0
  0x3bd0	65 00 20 00 3c 00 4c 00 6f 00 67 00 46 00 69 00 	e0 0<0L0o0g0F0i0
  0x3be0	6c 00 65 00 4e 00 61 00 6d 00 65 00 3e 00 20 00 	l0e0N0a0m0e0>0 0
  0x3bf0	2d 00 2d 00 20 00 53 00 70 00 65 00 63 00 69 00 	-0-0 0S0p0e0c0i0
  0x3c00	66 00 79 00 20 00 4e 00 44 00 4b 00 50 00 69 00 	f0y0 0N0D0K0P0i0
  0x3c10	6e 00 67 00 20 00 74 00 65 00 73 00 74 00 20 00 	n0g0 0t0e0s0t0 0
  0x3c20	72 00 65 00 73 00 75 00 6c 00 74 00 73 00 20 00 	r0e0s0u0l0t0s0 0
  0x3c30	6c 00 6f 00 67 00 20 00 66 00 69 00 6c 00 65 00 	l0o0g0 0f0i0l0e0
  0x3c40	20 00 6e 00 61 00 6d 00 65 00 2c 00 20 00 72 00 	 0n0a0m0e0,0 0r0
  0x3c50	65 00 6c 00 61 00 74 00 69 00 76 00 65 00 20 00 	e0l0a0t0i0v0e0 0
  0x3c60	70 00 61 00 74 00 68 00 20 00 6f 00 72 00 20 00 	p0a0t0h0 0o0r0 0
  0x3c70	66 00 75 00 6c 00 6c 00 20 00 70 00 61 00 74 00 	f0u0l0l0 0p0a0t0
  0x3c80	68 00 2e 00 0a 00 09 00 20 00 20 00 20 00 20 00 	h0.00000 0 0 0 0
  0x3c90	20 00 20 00 20 00 20 00 20 00 20 00 20 00 20 00 	 0 0 0 0 0 0 0 0
  0x3ca0	20 00 20 00 20 00 20 00 20 00 20 00 20 00 20 00 	 0 0 0 0 0 0 0 0
  0x3cb0	20 00 20 00 20 00 20 00 20 00 20 00 20 00 20 00 	 0 0 0 0 0 0 0 0
  0x3cc0	20 00 20 00 20 00 28 00 44 00 65 00 66 00 61 00 	 0 0 0(0D0e0f0a0
  0x3cd0	75 00 6c 00 74 00 3a 00 20 00 5b 00 73 00 79 00 	u0l0t0:0 0[0s0y0
  0x3ce0	73 00 74 00 65 00 6d 00 64 00 72 00 69 00 76 00 	s0t0e0m0d0r0i0v0
  0x3cf0	65 00 5d 00 5c 00 4e 00 44 00 4b 00 50 00 69 00 	e0]000N0D0K0P0i0
  0x3d00	6e 00 67 00 52 00 65 00 73 00 75 00 6c 00 74 00 	n0g0R0e0s0u0l0t0
  0x3d10	73 00 2e 00 6c 00 6f 00 67 00 29 00 2e 00 20 00 	s0.0l0o0g0)0.0 0
  0x3d20	4f 00 6e 00 20 00 63 00 6c 00 69 00 65 00 6e 00 	O0n0 0c0l0i0e0n0
  0x3d30	74 00 20 00 73 00 69 00 64 00 65 00 20 00 6f 00 	t0 0s0i0d0e0 0o0
  0x3d40	6e 00 6c 00 79 00 2e 00 0a 00 09 00 20 00 2d 00 	n0l0y0.00000 0-0
  0x3d50	41 00 20 00 2d 00 2d 00 20 00 53 00 70 00 65 00 	A0 0-0-0 0S0p0e0
  0x3d60	63 00 69 00 66 00 79 00 20 00 74 00 68 00 61 00 	c0i0f0y0 0t0h0a0
  0x3d70	74 00 20 00 61 00 74 00 20 00 63 00 6c 00 69 00 	t0 0a0t0 0c0l0i0
  0x3d80	65 00 6e 00 74 00 20 00 73 00 69 00 64 00 65 00 	e0n0t0 0s0i0d0e0
  0x3d90	20 00 4e 00 44 00 4b 00 50 00 69 00 6e 00 67 00 	 0N0D0K0P0i0n0g0
  0x3da0	20 00 74 00 65 00 73 00 74 00 20 00 72 00 65 00 	 0t0e0s0t0 0r0e0
  0x3db0	73 00 75 00 6c 00 74 00 73 00 20 00 73 00 68 00 	s0u0l0t0s0 0s0h0
  0x3dc0	6f 00 75 00 6c 00 64 00 20 00 62 00 65 00 20 00 	o0u0l0d0 0b0e0 0
  0x3dd0	61 00 70 00 70 00 65 00 6e 00 64 00 65 00 64 00 	a0p0p0e0n0d0e0d0
  0x3de0	20 00 74 00 6f 00 20 00 74 00 68 00 65 00 20 00 	 0t0o0 0t0h0e0 0
  0x3df0	6c 00 6f 00 67 00 20 00 66 00 69 00 6c 00 65 00 	l0o0g0 0f0i0l0e0
  0x3e00	20 00 69 00 66 00 20 00 69 00 74 00 20 00 61 00 	 0i0f0 0i0t0 0a0
  0x3e10	6c 00 72 00 65 00 61 00 64 00 79 00 20 00 65 00 	l0r0e0a0d0y0 0e0
  0x3e20	78 00 69 00 73 00 74 00 73 00 2e 00 0a 00 09 00 	x0i0s0t0s0.00000
  0x3e30	20 00 2d 00 56 00 20 00 2d 00 2d 00 20 00 53 00 	 0-0V0 0-0-0 0S0
  0x3e40	70 00 65 00 63 00 69 00 66 00 79 00 20 00 74 00 	p0e0c0i0f0y0 0t0
  0x3e50	68 00 61 00 74 00 20 00 61 00 74 00 20 00 63 00 	h0a0t0 0a0t0 0c0
  0x3e60	6c 00 69 00 65 00 6e 00 74 00 20 00 73 00 69 00 	l0i0e0n0t0 0s0i0
  0x3e70	64 00 65 00 20 00 4e 00 44 00 4b 00 50 00 69 00 	d0e0 0N0D0K0P0i0
  0x3e80	6e 00 67 00 20 00 74 00 65 00 73 00 74 00 20 00 	n0g0 0t0e0s0t0 0
  0x3e90	72 00 65 00 73 00 75 00 6c 00 74 00 73 00 20 00 	r0e0s0u0l0t0s0 0
  0x3ea0	73 00 68 00 6f 00 75 00 6c 00 64 00 20 00 62 00 	s0h0o0u0l0d0 0b0
  0x3eb0	65 00 20 00 70 00 72 00 69 00 6e 00 74 00 65 00 	e0 0p0r0i0n0t0e0
  0x3ec0	64 00 20 00 6f 00 75 00 74 00 20 00 6f 00 6e 00 	d0 0o0u0t0 0o0n0
  0x3ed0	20 00 73 00 63 00 72 00 65 00 65 00 6e 00 20 00 	 0s0c0r0e0e0n0 0
  0x3ee0	65 00 78 00 63 00 65 00 70 00 74 00 20 00 62 00 	e0x0c0e0p0t0 0b0
  0x3ef0	65 00 69 00 6e 00 67 00 20 00 73 00 74 00 6f 00 	e0i0n0g0 0s0t0o0
  0x3f00	72 00 65 00 64 00 20 00 69 00 6e 00 20 00 61 00 	r0e0d0 0i0n0 0a0
  0x3f10	20 00 6c 00 6f 00 67 00 20 00 66 00 69 00 6c 00 	 0l0o0g0 0f0i0l0
  0x3f20	65 00 2e 00 0a 00 09 00 20 00 2d 00 54 00 65 00 	e0.00000 0-0T0e0
  0x3f30	73 00 74 00 54 00 79 00 70 00 65 00 20 00 3c 00 	s0t0T0y0p0e0 0<0
  0x3f40	54 00 65 00 73 00 74 00 54 00 79 00 70 00 65 00 	T0e0s0t0T0y0p0e0
  0x3f50	3e 00 20 00 2d 00 2d 00 20 00 53 00 70 00 65 00 	>0 0-0-0 0S0p0e0
  0x3f60	63 00 69 00 66 00 79 00 20 00 74 00 68 00 65 00 	c0i0f0y0 0t0h0e0
  0x3f70	20 00 74 00 79 00 70 00 65 00 20 00 6f 00 66 00 	 0t0y0p0e0 0o0f0
  0x3f80	20 00 74 00 65 00 73 00 74 00 20 00 74 00 6f 00 	 0t0e0s0t0 0t0o0
  0x3f90	20 00 72 00 75 00 6e 00 2e 00 0a 00 0a 00 54 00 	 0r0u0n0.00000T0
  0x3fa0	65 00 73 00 74 00 54 00 79 00 70 00 65 00 20 00 	e0s0t0T0y0p0e0 0
  0x3fb0	4f 00 70 00 74 00 69 00 6f 00 6e 00 73 00 3a 00 	O0p0t0i0o0n0s0:0
  0x3fc0	20 00 28 00 53 00 65 00 72 00 76 00 65 00 72 00 	 0(0S0e0r0v0e0r0
  0x3fd0	20 00 61 00 6e 00 64 00 20 00 43 00 6c 00 69 00 	 0a0n0d0 0C0l0i0
  0x3fe0	65 00 6e 00 74 00 20 00 6d 00 75 00 73 00 74 00 	e0n0t0 0m0u0s0t0
  0x3ff0	20 00 62 00 65 00 20 00 77 00 69 00 74 00 68 00 	 0b0e0 0w0i0t0h0
  0x4000	20 00 73 00 61 00 6d 00 65 00 20 00 54 00 65 00 	 0s0a0m0e0 0T0e0
  0x4010	73 00 74 00 54 00 79 00 70 00 65 00 29 00 0a 00 	s0t0T0y0p0e0)000
  0x4020	09 00 20 00 72 00 70 00 69 00 6e 00 67 00 20 00 	00 0r0p0i0n0g0 0
  0x4030	2d 00 2d 00 20 00 54 00 65 00 73 00 74 00 73 00 	-0-0 0T0e0s0t0s0
  0x4040	20 00 52 00 44 00 4d 00 41 00 20 00 63 00 6f 00 	 0R0D0M0A0 0c0o0
  0x4050	6e 00 6e 00 65 00 63 00 74 00 69 00 76 00 69 00 	n0n0e0c0t0i0v0i0
  0x4060	74 00 79 00 20 00 77 00 69 00 74 00 68 00 20 00 	t0y0 0w0i0t0h0 0
  0x4070	53 00 65 00 6e 00 64 00 2f 00 52 00 65 00 63 00 	S0e0n0d0/0R0e0c0
  0x4080	65 00 69 00 76 00 65 00 20 00 74 00 72 00 61 00 	e0i0v0e0 0t0r0a0
  0x4090	6e 00 73 00 66 00 65 00 72 00 73 00 20 00 61 00 	n0s0f0e0r0s0 0a0
  0x40a0	6e 00 64 00 20 00 6c 00 6f 00 67 00 73 00 20 00 	n0d0 0l0o0g0s0 0
  0x40b0	74 00 68 00 65 00 20 00 73 00 74 00 61 00 74 00 	t0h0e0 0s0t0a0t0
  0x40c0	75 00 73 00 20 00 6f 00 66 00 20 00 65 00 61 00 	u0s0 0o0f0 0e0a0
  0x40d0	63 00 68 00 20 00 6f 00 66 00 20 00 74 00 68 00 	c0h0 0o0f0 0t0h0
  0x40e0	65 00 6d 00 2e 00 0a 00 0a 00 09 00 20 00 52 00 	e0m0.0000000 0R0
  0x40f0	65 00 61 00 64 00 2f 00 57 00 72 00 69 00 74 00 	e0a0d0/0W0r0i0t0
  0x4100	65 00 20 00 74 00 65 00 73 00 74 00 73 00 20 00 	e0 0t0e0s0t0s0 0
  0x4110	77 00 69 00 6c 00 6c 00 20 00 62 00 65 00 20 00 	w0i0l0l0 0b0e0 0
  0x4120	69 00 6e 00 20 00 66 00 75 00 74 00 75 00 72 00 	i0n0 0f0u0t0u0r0
  0x4130	65 00 20 00 76 00 65 00 72 00 73 00 69 00 6f 00 	e0 0v0e0r0s0i0o0
  0x4140	6e 00 21 00 21 00 21 00 20 00 0a 00 0a 00 55 00 	n0!0!0!0 00000U0
  0x4150	73 00 61 00 67 00 65 00 20 00 53 00 61 00 6d 00 	s0a0g0e0 0S0a0m0
  0x4160	70 00 6c 00 65 00 3a 00 0a 00 09 00 20 00 41 00 	p0l0e0:00000 0A0
  0x4170	73 00 20 00 61 00 20 00 53 00 65 00 72 00 76 00 	s0 0a0 0S0e0r0v0
  0x4180	65 00 72 00 3a 00 0a 00 09 00 20 00 20 00 20 00 	e0r0:00000 0 0 0
  0x4190	20 00 20 00 20 00 20 00 20 00 20 00 20 00 20 00 	 0 0 0 0 0 0 0 0
  0x41a0	20 00 20 00 4e 00 44 00 4b 00 50 00 69 00 6e 00 	 0 0N0D0K0P0i0n0
  0x41b0	67 00 20 00 2d 00 53 00 20 00 2d 00 53 00 65 00 	g0 0-0S0 0-0S0e0
  0x41c0	72 00 76 00 65 00 72 00 41 00 64 00 64 00 72 00 	r0v0e0r0A0d0d0r0
  0x41d0	20 00 31 00 30 00 2e 00 31 00 30 00 2e 00 31 00 	 01000.01000.010
  0x41e0	30 00 2e 00 31 00 30 00 3a 00 35 00 35 00 35 00 	00.01000:0505050
  0x41f0	35 00 35 00 20 00 2d 00 53 00 65 00 72 00 76 00 	5050 0-0S0e0r0v0
  0x4200	65 00 72 00 49 00 66 00 20 00 33 00 20 00 2d 00 	e0r0I0f0 030 0-0
  0x4210	54 00 65 00 73 00 74 00 54 00 79 00 70 00 65 00 	T0e0s0t0T0y0p0e0
  0x4220	20 00 72 00 70 00 69 00 6e 00 67 00 20 00 2d 00 	 0r0p0i0n0g0 0-0
  0x4230	57 00 20 00 36 00 30 00 20 00 0a 00 09 00 20 00 	W0 06000 00000 0
  0x4240	41 00 73 00 20 00 61 00 20 00 43 00 6c 00 69 00 	A0s0 0a0 0C0l0i0
  0x4250	65 00 6e 00 74 00 3a 00 0a 00 09 00 20 00 20 00 	e0n0t0:00000 0 0
  0x4260	20 00 20 00 20 00 20 00 20 00 20 00 20 00 20 00 	 0 0 0 0 0 0 0 0
  0x4270	20 00 20 00 20 00 4e 00 44 00 4b 00 50 00 69 00 	 0 0 0N0D0K0P0i0
  0x4280	6e 00 67 00 20 00 2d 00 43 00 20 00 2d 00 53 00 	n0g0 0-0C0 0-0S0
  0x4290	65 00 72 00 76 00 65 00 72 00 41 00 64 00 64 00 	e0r0v0e0r0A0d0d0
  0x42a0	72 00 20 00 31 00 30 00 2e 00 31 00 30 00 2e 00 	r0 01000.01000.0
  0x42b0	31 00 30 00 2e 00 31 00 30 00 3a 00 35 00 35 00 	1000.01000:05050
  0x42c0	35 00 35 00 35 00 20 00 2d 00 43 00 6c 00 69 00 	505050 0-0C0l0i0
  0x42d0	65 00 6e 00 74 00 41 00 64 00 64 00 72 00 20 00 	e0n0t0A0d0d0r0 0
  0x42e0	31 00 30 00 2e 00 31 00 30 00 2e 00 31 00 30 00 	1000.01000.01000
  0x42f0	2e 00 31 00 31 00 20 00 2d 00 43 00 6c 00 69 00 	.01010 0-0C0l0i0
  0x4300	65 00 6e 00 74 00 49 00 66 00 20 00 34 00 20 00 	e0n0t0I0f0 040 0
  0x4310	2d 00 54 00 65 00 73 00 74 00 54 00 79 00 70 00 	-0T0e0s0t0T0y0p0
  0x4320	65 00 20 00 72 00 70 00 69 00 6e 00 67 00 20 00 	e0 0r0p0i0n0g0 0
  0x4330	2d 00 4c 00 6f 00 67 00 46 00 69 00 6c 00 65 00 	-0L0o0g0F0i0l0e0
  0x4340	6e 00 61 00 6d 00 65 00 20 00 2e 00 5c 00 4e 00 	n0a0m0e0 0.000N0
  0x4350	44 00 4b 00 50 00 69 00 6e 00 67 00 52 00 65 00 	D0K0P0i0n0g0R0e0
  0x4360	73 00 75 00 6c 00 74 00 73 00 2e 00 6c 00 6f 00 	s0u0l0t0s0.0l0o0
  0x4370	67 00 20 00 2d 00 56 00 20 00 0a 00 00 00 00 00 	g0 0-0V0 0000000
  0x4380	25 00 64 00 3a 00 20 00 25 00 73 00 0a 00 00 00 	%0d0:0 0%0s00000
  0x4390	25 00 64 00 3a 00 20 00 55 00 6e 00 6b 00 6e 00 	%0d0:0 0U0n0k0n0
  0x43a0	6f 00 77 00 6e 00 20 00 45 00 72 00 72 00 6f 00 	o0w0n0 0E0r0r0o0
  0x43b0	72 00 0a 00 00 00 00 00 00 00 00 00 00 00 00 00 	r000000000000000
  0x43c0	0a 00 45 00 72 00 72 00 6f 00 72 00 3a 00 20 00 	00E0r0r0o0r0:0 0
  0x43d0	4e 00 6f 00 20 00 70 00 61 00 72 00 61 00 6d 00 	N0o0 0p0a0r0a0m0
  0x43e0	65 00 74 00 65 00 72 00 73 00 20 00 73 00 70 00 	e0t0e0r0s0 0s0p0
  0x43f0	65 00 63 00 69 00 66 00 69 00 65 00 64 00 2e 00 	e0c0i0f0i0e0d0.0
  0x4400	0a 00 00 00 2d 00 3f 00 00 00 00 00 3f 00 00 00 	0000-0?00000?000
  0x4410	2d 00 48 00 65 00 6c 00 70 00 00 00 00 00 00 00 	-0H0e0l0p0000000
  0x4420	48 00 65 00 6c 00 70 00 00 00 00 00 00 00 00 00 	H0e0l0p000000000
  0x4430	0a 00 45 00 72 00 72 00 6f 00 72 00 3a 00 20 00 	00E0r0r0o0r0:0 0
  0x4440	43 00 61 00 6e 00 6e 00 6f 00 74 00 20 00 69 00 	C0a0n0n0o0t0 0i0
  0x4450	6e 00 69 00 74 00 69 00 61 00 6c 00 69 00 7a 00 	n0i0t0i0a0l0i0z0
  0x4460	65 00 20 00 57 00 69 00 6e 00 73 00 6f 00 63 00 	e0 0W0i0n0s0o0c0
  0x4470	6b 00 20 00 6c 00 69 00 62 00 72 00 61 00 72 00 	k0 0l0i0b0r0a0r0
  0x4480	79 00 2e 00 0a 00 00 00 2d 00 53 00 00 00 00 00 	y0.00000-0S00000
  0x4490	2d 00 43 00 00 00 00 00 2d 00 53 00 65 00 72 00 	-0C00000-0S0e0r0
  0x44a0	76 00 65 00 72 00 41 00 64 00 64 00 72 00 00 00 	v0e0r0A0d0d0r000
  0x44b0	0a 00 45 00 72 00 72 00 6f 00 72 00 3a 00 20 00 	00E0r0r0o0r0:0 0
  0x44c0	25 00 73 00 20 00 69 00 73 00 20 00 6e 00 6f 00 	%0s0 0i0s0 0n0o0
  0x44d0	74 00 20 00 61 00 20 00 76 00 61 00 6c 00 69 00 	t0 0a0 0v0a0l0i0
  0x44e0	64 00 20 00 57 00 69 00 6e 00 53 00 6f 00 63 00 	d0 0W0i0n0S0o0c0
  0x44f0	6b 00 20 00 53 00 65 00 72 00 76 00 65 00 72 00 	k0 0S0e0r0v0e0r0
  0x4500	20 00 41 00 64 00 64 00 72 00 65 00 73 00 73 00 	 0A0d0d0r0e0s0s0
  0x4510	2e 00 0a 00 00 00 00 00 2d 00 53 00 65 00 72 00 	.0000000-0S0e0r0
  0x4520	76 00 65 00 72 00 49 00 66 00 00 00 00 00 00 00 	v0e0r0I0f0000000
  0x4530	0a 00 45 00 72 00 72 00 6f 00 72 00 3a 00 20 00 	00E0r0r0o0r0:0 0
  0x4540	25 00 73 00 20 00 69 00 73 00 20 00 6e 00 6f 00 	%0s0 0i0s0 0n0o0
  0x4550	74 00 20 00 61 00 20 00 76 00 61 00 6c 00 69 00 	t0 0a0 0v0a0l0i0
  0x4560	64 00 20 00 53 00 65 00 72 00 76 00 65 00 72 00 	d0 0S0e0r0v0e0r0
  0x4570	20 00 69 00 6e 00 74 00 65 00 72 00 66 00 61 00 	 0i0n0t0e0r0f0a0
  0x4580	63 00 65 00 20 00 69 00 6e 00 64 00 65 00 78 00 	c0e0 0i0n0d0e0x0
  0x4590	2e 00 0a 00 00 00 00 00 2d 00 43 00 6c 00 69 00 	.0000000-0C0l0i0
  0x45a0	65 00 6e 00 74 00 41 00 64 00 64 00 72 00 00 00 	e0n0t0A0d0d0r000
  0x45b0	0a 00 45 00 72 00 72 00 6f 00 72 00 3a 00 20 00 	00E0r0r0o0r0:0 0
  0x45c0	25 00 73 00 20 00 69 00 73 00 20 00 6e 00 6f 00 	%0s0 0i0s0 0n0o0
  0x45d0	74 00 20 00 61 00 20 00 76 00 61 00 6c 00 69 00 	t0 0a0 0v0a0l0i0
  0x45e0	64 00 20 00 57 00 69 00 6e 00 53 00 6f 00 63 00 	d0 0W0i0n0S0o0c0
  0x45f0	6b 00 20 00 43 00 6c 00 69 00 65 00 6e 00 74 00 	k0 0C0l0i0e0n0t0
  0x4600	20 00 41 00 64 00 64 00 72 00 65 00 73 00 73 00 	 0A0d0d0r0e0s0s0
  0x4610	2e 00 0a 00 00 00 00 00 2d 00 43 00 6c 00 69 00 	.0000000-0C0l0i0
  0x4620	65 00 6e 00 74 00 49 00 66 00 00 00 00 00 00 00 	e0n0t0I0f0000000
  0x4630	0a 00 45 00 72 00 72 00 6f 00 72 00 3a 00 20 00 	00E0r0r0o0r0:0 0
  0x4640	25 00 73 00 20 00 69 00 73 00 20 00 6e 00 6f 00 	%0s0 0i0s0 0n0o0
  0x4650	74 00 20 00 61 00 20 00 76 00 61 00 6c 00 69 00 	t0 0a0 0v0a0l0i0
  0x4660	64 00 20 00 43 00 6c 00 69 00 65 00 6e 00 74 00 	d0 0C0l0i0e0n0t0
  0x4670	20 00 69 00 6e 00 74 00 65 00 72 00 66 00 61 00 	 0i0n0t0e0r0f0a0
  0x4680	63 00 65 00 20 00 69 00 6e 00 64 00 65 00 78 00 	c0e0 0i0n0d0e0x0
  0x4690	2e 00 0a 00 00 00 00 00 2d 00 57 00 00 00 00 00 	.0000000-0W00000
  0x46a0	0a 00 45 00 72 00 72 00 6f 00 72 00 3a 00 20 00 	00E0r0r0o0r0:0 0
  0x46b0	25 00 73 00 20 00 69 00 73 00 20 00 6e 00 6f 00 	%0s0 0i0s0 0n0o0
  0x46c0	74 00 20 00 61 00 20 00 76 00 61 00 6c 00 69 00 	t0 0a0 0v0a0l0i0
  0x46d0	64 00 20 00 74 00 69 00 6d 00 65 00 6f 00 75 00 	d0 0t0i0m0e0o0u0
  0x46e0	74 00 20 00 76 00 61 00 6c 00 75 00 65 00 2e 00 	t0 0v0a0l0u0e0.0
  0x46f0	0a 00 00 00 00 00 00 00 2d 00 4c 00 6f 00 67 00 	00000000-0L0o0g0
  0x4700	46 00 69 00 6c 00 65 00 6e 00 61 00 6d 00 65 00 	F0i0l0e0n0a0m0e0
  0x4710	00 00 00 00 00 00 00 00 00 00 00 00 00 00 00 00 	0000000000000000
  0x4720	0a 00 45 00 72 00 72 00 6f 00 72 00 3a 00 20 00 	00E0r0r0o0r0:0 0
  0x4730	25 00 73 00 20 00 69 00 73 00 20 00 6e 00 6f 00 	%0s0 0i0s0 0n0o0
  0x4740	74 00 20 00 61 00 20 00 76 00 61 00 6c 00 69 00 	t0 0a0 0v0a0l0i0
  0x4750	64 00 20 00 4c 00 6f 00 67 00 46 00 69 00 6c 00 	d0 0L0o0g0F0i0l0
  0x4760	65 00 6e 00 61 00 6d 00 65 00 2e 00 0a 00 00 00 	e0n0a0m0e0.00000
  0x4770	2d 00 41 00 00 00 00 00 2d 00 56 00 00 00 00 00 	-0A00000-0V00000
  0x4780	2d 00 54 00 65 00 73 00 74 00 54 00 79 00 70 00 	-0T0e0s0t0T0y0p0
  0x4790	65 00 00 00 00 00 00 00 72 00 70 00 69 00 6e 00 	e0000000r0p0i0n0
  0x47a0	67 00 00 00 00 00 00 00 00 00 00 00 00 00 00 00 	g000000000000000
  0x47b0	0a 00 45 00 72 00 72 00 6f 00 72 00 3a 00 20 00 	00E0r0r0o0r0:0 0
  0x47c0	25 00 73 00 20 00 69 00 73 00 20 00 6e 00 6f 00 	%0s0 0i0s0 0n0o0
  0x47d0	74 00 20 00 61 00 20 00 76 00 61 00 6c 00 69 00 	t0 0a0 0v0a0l0i0
  0x47e0	64 00 20 00 54 00 65 00 73 00 74 00 54 00 79 00 	d0 0T0e0s0t0T0y0
  0x47f0	70 00 65 00 2e 00 0a 00 00 00 00 00 00 00 00 00 	p0e0.00000000000
  0x4800	0a 00 45 00 72 00 72 00 6f 00 72 00 3a 00 20 00 	00E0r0r0o0r0:0 0
  0x4810	4d 00 69 00 73 00 73 00 69 00 6e 00 67 00 20 00 	M0i0s0s0i0n0g0 0
  0x4820	53 00 65 00 72 00 76 00 65 00 72 00 20 00 49 00 	S0e0r0v0e0r0 0I0
  0x4830	70 00 20 00 41 00 64 00 64 00 72 00 65 00 73 00 	p0 0A0d0d0r0e0s0
  0x4840	73 00 2c 00 20 00 53 00 65 00 72 00 76 00 65 00 	s0,0 0S0e0r0v0e0
  0x4850	72 00 20 00 50 00 6f 00 72 00 74 00 2c 00 20 00 	r0 0P0o0r0t0,0 0
  0x4860	6f 00 72 00 20 00 53 00 65 00 72 00 76 00 65 00 	o0r0 0S0e0r0v0e0
  0x4870	72 00 20 00 49 00 6e 00 74 00 65 00 72 00 66 00 	r0 0I0n0t0e0r0f0
  0x4880	61 00 63 00 65 00 20 00 49 00 6e 00 64 00 65 00 	a0c0e0 0I0n0d0e0
  0x4890	78 00 2e 00 0a 00 0a 00 00 00 00 00 00 00 00 00 	x0.0000000000000
  0x48a0	0a 00 45 00 72 00 72 00 6f 00 72 00 3a 00 20 00 	00E0r0r0o0r0:0 0
  0x48b0	4d 00 69 00 73 00 73 00 69 00 6e 00 67 00 20 00 	M0i0s0s0i0n0g0 0
  0x48c0	53 00 65 00 72 00 76 00 65 00 72 00 2f 00 43 00 	S0e0r0v0e0r0/0C0
  0x48d0	6c 00 69 00 65 00 6e 00 74 00 20 00 49 00 70 00 	l0i0e0n0t0 0I0p0
  0x48e0	20 00 41 00 64 00 64 00 72 00 65 00 73 00 73 00 	 0A0d0d0r0e0s0s0
  0x48f0	2c 00 20 00 53 00 65 00 72 00 76 00 65 00 72 00 	,0 0S0e0r0v0e0r0
  0x4900	20 00 50 00 6f 00 72 00 74 00 2c 00 20 00 6f 00 	 0P0o0r0t0,0 0o0
  0x4910	72 00 20 00 53 00 65 00 72 00 76 00 65 00 72 00 	r0 0S0e0r0v0e0r0
  0x4920	2f 00 43 00 6c 00 69 00 65 00 6e 00 74 00 20 00 	/0C0l0i0e0n0t0 0
  0x4930	49 00 6e 00 74 00 65 00 72 00 66 00 61 00 63 00 	I0n0t0e0r0f0a0c0
  0x4940	65 00 20 00 49 00 6e 00 64 00 65 00 78 00 2e 00 	e0 0I0n0d0e0x0.0
  0x4950	0a 00 0a 00 00 00 00 00 0a 00 45 00 72 00 72 00 	0000000000E0r0r0
  0x4960	6f 00 72 00 3a 00 20 00 4d 00 69 00 73 00 73 00 	o0r0:0 0M0i0s0s0
  0x4970	69 00 6e 00 67 00 20 00 54 00 65 00 73 00 74 00 	i0n0g0 0T0e0s0t0
  0x4980	54 00 79 00 70 00 65 00 2e 00 0a 00 0a 00 00 00 	T0y0p0e0.0000000
  0x4990	73 79 73 74 65 6d 64 72 69 76 65 00 00 00 00 00 	systemdrive00000
  0x49a0	25 00 68 00 73 00 5c 00 4e 00 44 00 4b 00 50 00 	%0h0s000N0D0K0P0
  0x49b0	69 00 6e 00 67 00 52 00 65 00 73 00 75 00 6c 00 	i0n0g0R0e0s0u0l0
  0x49c0	74 00 73 00 2e 00 6c 00 6f 00 67 00 00 00 00 00 	t0s0.0l0o0g00000
  0x49d0	72 00 00 00 25 00 73 00 00 00 00 00 00 00 00 00 	r000%0s000000000
  0x49e0	0a 00 45 00 72 00 72 00 6f 00 72 00 3a 00 20 00 	00E0r0r0o0r0:0 0
  0x49f0	50 00 72 00 69 00 6e 00 74 00 20 00 72 00 65 00 	P0r0i0n0t0 0r0e0
  0x4a00	73 00 75 00 6c 00 74 00 73 00 20 00 66 00 61 00 	s0u0l0t0s0 0f0a0
  0x4a10	69 00 6c 00 65 00 64 00 2e 00 0a 00 00 00 00 00 	i0l0e0d0.0000000
  0x4a20	53 00 65 00 72 00 76 00 69 00 63 00 65 00 73 00 	S0e0r0v0i0c0e0s0
  0x4a30	41 00 63 00 74 00 69 00 76 00 65 00 00 00 00 00 	A0c0t0i0v0e00000
  0x4a40	4e 00 44 00 4b 00 50 00 69 00 6e 00 67 00 00 00 	N0D0K0P0i0n0g000
  0x4a50	0a 00 45 00 72 00 72 00 6f 00 72 00 3a 00 20 00 	00E0r0r0o0r0:0 0
  0x4a60	55 00 6e 00 61 00 62 00 6c 00 65 00 20 00 74 00 	U0n0a0b0l0e0 0t0
  0x4a70	6f 00 20 00 73 00 74 00 61 00 72 00 74 00 20 00 	o0 0s0t0a0r0t0 0
  0x4a80	4e 00 44 00 4b 00 50 00 69 00 6e 00 67 00 20 00 	N0D0K0P0i0n0g0 0
  0x4a90	64 00 72 00 69 00 76 00 65 00 72 00 2e 00 0a 00 	d0r0i0v0e0r0.000
  0x4aa0	00 00 00 00 00 00 00 00 00 00 00 00 00 00 00 00 	0000000000000000
  0x4ab0	0a 00 45 00 72 00 72 00 6f 00 72 00 3a 00 20 00 	00E0r0r0o0r0:0 0
  0x4ac0	55 00 6e 00 61 00 62 00 6c 00 65 00 20 00 74 00 	U0n0a0b0l0e0 0t0
  0x4ad0	6f 00 20 00 73 00 74 00 6f 00 70 00 20 00 4e 00 	o0 0s0t0o0p0 0N0
  0x4ae0	44 00 4b 00 50 00 69 00 6e 00 67 00 20 00 64 00 	D0K0P0i0n0g0 0d0
  0x4af0	72 00 69 00 76 00 65 00 72 00 2e 00 0a 00 00 00 	r0i0v0e0r0.00000
  0x4b00	0a 00 4e 00 44 00 4b 00 50 00 69 00 6e 00 67 00 	00N0D0K0P0i0n0g0
  0x4b10	20 00 53 00 65 00 72 00 76 00 65 00 72 00 20 00 	 0S0e0r0v0e0r0 0
  0x4b20	73 00 74 00 61 00 72 00 74 00 73 00 20 00 74 00 	s0t0a0r0t0s0 0t0
  0x4b30	65 00 73 00 74 00 20 00 28 00 25 00 73 00 29 00 	e0s0t0 0(0%0s0)0
  0x4b40	20 00 6f 00 6e 00 20 00 69 00 6e 00 74 00 65 00 	 0o0n0 0i0n0t0e0
  0x4b50	72 00 66 00 61 00 63 00 65 00 20 00 25 00 6c 00 	r0f0a0c0e0 0%0l0
  0x4b60	75 00 20 00 2e 00 2e 00 2e 00 0a 00 00 00 00 00 	u0 0.0.0.0000000
  0x4b70	0a 00 4e 00 44 00 4b 00 50 00 69 00 6e 00 67 00 	00N0D0K0P0i0n0g0
  0x4b80	20 00 43 00 6c 00 69 00 65 00 6e 00 74 00 20 00 	 0C0l0i0e0n0t0 0
  0x4b90	73 00 74 00 61 00 72 00 74 00 73 00 20 00 74 00 	s0t0a0r0t0s0 0t0
  0x4ba0	65 00 73 00 74 00 20 00 28 00 25 00 73 00 29 00 	e0s0t0 0(0%0s0)0
  0x4bb0	20 00 6f 00 6e 00 20 00 69 00 6e 00 74 00 65 00 	 0o0n0 0i0n0t0e0
  0x4bc0	72 00 66 00 61 00 63 00 65 00 20 00 25 00 6c 00 	r0f0a0c0e0 0%0l0
  0x4bd0	75 00 20 00 2e 00 2e 00 2e 00 0a 00 00 00 00 00 	u0 0.0.0.0000000
  0x4be0	5c 00 5c 00 2e 00 5c 00 4e 00 44 00 4b 00 50 00 	0000.000N0D0K0P0
  0x4bf0	69 00 6e 00 67 00 00 00 0a 00 4e 00 44 00 4b 00 	i0n0g00000N0D0K0
  0x4c00	50 00 69 00 6e 00 67 00 20 00 74 00 65 00 73 00 	P0i0n0g0 0t0e0s0
  0x4c10	74 00 20 00 66 00 61 00 69 00 6c 00 65 00 64 00 	t0 0f0a0i0l0e0d0
  0x4c20	2e 00 0a 00 00 00 00 00 00 00 00 00 00 00 00 00 	.000000000000000
  0x4c30	0a 00 4e 00 44 00 4b 00 50 00 69 00 6e 00 67 00 	00N0D0K0P0i0n0g0
  0x4c40	20 00 53 00 65 00 72 00 76 00 65 00 72 00 20 00 	 0S0e0r0v0e0r0 0
  0x4c50	63 00 6f 00 6d 00 70 00 6c 00 65 00 74 00 65 00 	c0o0m0p0l0e0t0e0
  0x4c60	73 00 20 00 74 00 65 00 73 00 74 00 20 00 28 00 	s0 0t0e0s0t0 0(0
  0x4c70	25 00 73 00 29 00 20 00 6f 00 6e 00 20 00 69 00 	%0s0)0 0o0n0 0i0
  0x4c80	6e 00 74 00 65 00 72 00 66 00 61 00 63 00 65 00 	n0t0e0r0f0a0c0e0
  0x4c90	20 00 25 00 64 00 2e 00 0a 00 00 00 00 00 00 00 	 0%0d0.000000000
  0x4ca0	0a 00 4e 00 44 00 4b 00 50 00 69 00 6e 00 67 00 	00N0D0K0P0i0n0g0
  0x4cb0	20 00 43 00 6c 00 69 00 65 00 6e 00 74 00 20 00 	 0C0l0i0e0n0t0 0
  0x4cc0	63 00 6f 00 6d 00 70 00 6c 00 65 00 74 00 65 00 	c0o0m0p0l0e0t0e0
  0x4cd0	73 00 20 00 74 00 65 00 73 00 74 00 20 00 28 00 	s0 0t0e0s0t0 0(0
  0x4ce0	25 00 73 00 29 00 20 00 6f 00 6e 00 20 00 69 00 	%0s0)0 0o0n0 0i0
  0x4cf0	6e 00 74 00 65 00 72 00 66 00 61 00 63 00 65 00 	n0t0e0r0f0a0c0e0
  0x4d00	20 00 25 00 64 00 2e 00 0a 00 00 00 00 00 00 00 	 0%0d0.000000000
  0x4d10	0a 00 52 00 65 00 73 00 75 00 6c 00 74 00 73 00 	00R0e0s0u0l0t0s0
  0x4d20	20 00 73 00 61 00 76 00 65 00 64 00 20 00 69 00 	 0s0a0v0e0d0 0i0
  0x4d30	6e 00 20 00 6c 00 6f 00 67 00 3a 00 20 00 25 00 	n0 0l0o0g0:0 0%0
  0x4d40	73 00 0a 00 0a 00 00 00 00 00 00 00 00 00 00 00 	s000000000000000
  0x4d50	00 00 00 00 33 a8 e8 22 00 00 00 00 02 00 00 00 	0000300"00000000
  0x4d60	24 00 00 00 a4 4d 00 00 a4 3f 00 00 00 00 00 00 	$0000M000?000000
  0x4d70	33 a8 e8 22 00 00 00 00 0d 00 00 00 a4 02 00 00 	300"000000000000
  0x4d80	c8 4d 00 00 c8 3f 00 00 00 00 00 00 33 a8 e8 22 	0M000?000000300"
  0x4d90	00 00 00 00 10 00 00 00 24 00 00 00 6c 50 00 00 	00000000$000lP00
  0x4da0	6c 42 00 00 52 53 44 53 58 34 7f 8b ba e3 ae 76 	lB00RSDSX400000v
  0x4db0	3e 59 e3 ba 0b 89 d3 77 01 00 00 00 4e 44 4b 50 	>Y00000w0000NDKP
  0x4dc0	69 6e 67 2e 70 64 62 00 47 43 54 4c 00 10 00 00 	ing.pdb0GCTL0000
  0x4dd0	00 1d 00 00 2e 74 65 78 74 24 6d 6e 00 00 00 00 	0000.text$mn0000
  0x4de0	00 2d 00 00 12 00 00 00 2e 74 65 78 74 24 6d 6e 	0-000000.text$mn
  0x4df0	24 30 30 00 12 2d 00 00 42 00 00 00 2e 74 65 78 	$0000-00B000.tex
  0x4e00	74 24 78 00 00 30 00 00 28 01 00 00 2e 72 64 61 	t$x00000(000.rda
  0x4e10	74 61 24 62 72 63 00 00 28 31 00 00 c0 02 00 00 	ta$brc00(1000000
  0x4e20	2e 69 64 61 74 61 24 35 00 00 00 00 e8 33 00 00 	.idata$500000300
  0x4e30	10 00 00 00 2e 30 30 63 66 67 00 00 f8 33 00 00 	0000.00cfg000300
  0x4e40	08 00 00 00 2e 43 52 54 24 58 43 41 00 00 00 00 	0000.CRT$XCA0000
  0x4e50	00 34 00 00 08 00 00 00 2e 43 52 54 24 58 43 41 	04000000.CRT$XCA
  0x4e60	41 00 00 00 08 34 00 00 08 00 00 00 2e 43 52 54 	A00004000000.CRT
  0x4e70	24 58 43 5a 00 00 00 00 10 34 00 00 08 00 00 00 	$XCZ000004000000
  0x4e80	2e 43 52 54 24 58 49 41 00 00 00 00 18 34 00 00 	.CRT$XIA00000400
  0x4e90	08 00 00 00 2e 43 52 54 24 58 49 41 41 00 00 00 	0000.CRT$XIAA000
  0x4ea0	20 34 00 00 08 00 00 00 2e 43 52 54 24 58 49 41 	 4000000.CRT$XIA
  0x4eb0	43 00 00 00 28 34 00 00 18 00 00 00 2e 43 52 54 	C000(4000000.CRT
  0x4ec0	24 58 49 43 00 00 00 00 40 34 00 00 08 00 00 00 	$XIC0000@4000000
  0x4ed0	2e 43 52 54 24 58 49 5a 00 00 00 00 48 34 00 00 	.CRT$XIZ0000H400
  0x4ee0	08 00 00 00 2e 43 52 54 24 58 50 41 00 00 00 00 	0000.CRT$XPA0000
  0x4ef0	50 34 00 00 08 00 00 00 2e 43 52 54 24 58 50 5a 	P4000000.CRT$XPZ
  0x4f00	00 00 00 00 58 34 00 00 08 00 00 00 2e 43 52 54 	0000X4000000.CRT
  0x4f10	24 58 54 41 00 00 00 00 60 34 00 00 08 00 00 00 	$XTA0000`4000000
  0x4f20	2e 43 52 54 24 58 54 5a 00 00 00 00 68 34 00 00 	.CRT$XTZ0000h400
  0x4f30	38 00 00 00 2e 67 66 69 64 73 00 00 a0 34 00 00 	8000.gfids000400
  0x4f40	04 19 00 00 2e 72 64 61 74 61 00 00 a4 4d 00 00 	0000.rdata000M00
  0x4f50	ec 02 00 00 2e 72 64 61 74 61 24 7a 7a 7a 64 62 	0000.rdata$zzzdb
  0x4f60	67 00 00 00 90 50 00 00 08 00 00 00 2e 72 74 63 	g0000P000000.rtc
  0x4f70	24 49 41 41 00 00 00 00 98 50 00 00 08 00 00 00 	$IAA00000P000000
  0x4f80	2e 72 74 63 24 49 5a 5a 00 00 00 00 a0 50 00 00 	.rtc$IZZ00000P00
  0x4f90	08 00 00 00 2e 72 74 63 24 54 41 41 00 00 00 00 	0000.rtc$TAA0000
  0x4fa0	a8 50 00 00 08 00 00 00 2e 72 74 63 24 54 5a 5a 	0P000000.rtc$TZZ
  0x4fb0	00 00 00 00 b0 50 00 00 6c 01 00 00 2e 78 64 61 	00000P00l000.xda
  0x4fc0	74 61 00 00 1c 52 00 00 7c 01 00 00 2e 69 64 61 	ta000R00|000.ida
  0x4fd0	74 61 24 32 00 00 00 00 98 53 00 00 18 00 00 00 	ta$200000S000000
  0x4fe0	2e 69 64 61 74 61 24 33 00 00 00 00 b0 53 00 00 	.idata$300000S00
  0x4ff0	c0 02 00 00 2e 69 64 61 74 61 24 34 00 00 00 00 	0000.idata$40000
  0x5000	70 56 00 00 d2 07 00 00 2e 69 64 61 74 61 24 36 	pV000000.idata$6
  0x5010	00 00 00 00 00 60 00 00 30 00 00 00 2e 64 61 74 	00000`000000.dat
  0x5020	61 00 00 00 30 60 00 00 e0 08 00 00 2e 62 73 73 	a0000`000000.bss
  0x5030	00 00 00 00 00 70 00 00 ec 01 00 00 2e 70 64 61 	00000p000000.pda
  0x5040	74 61 00 00 00 80 00 00 60 00 00 00 2e 72 73 72 	ta000000`000.rsr
  0x5050	63 24 30 31 00 00 00 00 60 80 00 00 90 03 00 00 	c$010000`0000000
  0x5060	2e 72 73 72 63 24 30 32 00 00 00 00 20 00 00 00 	.rsrc$020000 000
  0x5070	58 34 7f 8b ba e3 ae 76 3e 59 e3 ba 0b 89 d3 77 	X400000v>Y00000w
  0x5080	87 07 be b1 dd 26 7e a0 75 ea 16 38 33 a8 e8 22 	00000&~0u008300"
  0x5090	00 00 00 00 00 00 00 00 00 00 00 00 00 00 00 00 	0000000000000000
  0x50a0	00 00 00 00 00 00 00 00 00 00 00 00 00 00 00 00 	0000000000000000
  0x50b0	19 1b 03 00 09 01 4a 00 02 30 00 00 80 2c 00 00 	000000J000000,00
  0x50c0	40 02 00 00 19 37 0d 00 26 74 93 00 26 64 92 00 	@0000700&t00&d00
  0x50d0	26 34 90 00 26 01 8a 00 18 f0 16 e0 14 d0 12 c0 	&400&00000000000
  0x50e0	10 50 00 00 80 2c 00 00 40 04 00 00 19 1b 03 00 	0P000,00@0000000
  0x50f0	09 01 48 00 02 30 00 00 80 2c 00 00 30 02 00 00 	00H000000,000000
  0x5100	01 0a 04 00 0a 34 06 00 0a 32 06 70 19 1f 06 00 	00000400020p0000
  0x5110	10 74 12 00 10 34 10 00 10 d2 0c e0 80 2c 00 00 	0t00040000000,00
  0x5120	68 00 00 00 01 04 01 00 04 42 00 00 01 06 02 00 	h00000000B000000
  0x5130	06 32 02 30 09 0f 06 00 0f 64 09 00 0f 34 08 00 	020000000d000400
  0x5140	0f 52 0b 70 6e 2b 00 00 02 00 00 00 69 1e 00 00 	0R0pn+000000i000
  0x5150	6e 1f 00 00 18 2d 00 00 6e 1f 00 00 a2 1f 00 00 	n0000-00n0000000
  0x5160	b4 1f 00 00 18 2d 00 00 6e 1f 00 00 01 06 02 00 	00000-00n0000000
  0x5170	06 32 02 50 00 00 00 00 01 00 00 00 09 04 01 00 	020P000000000000
  0x5180	04 22 00 00 6e 2b 00 00 01 00 00 00 77 21 00 00 	0"00n+000000w!00
  0x5190	01 22 00 00 3c 2d 00 00 01 22 00 00 01 02 01 00 	0"00<-000"000000
  0x51a0	02 50 00 00 01 0d 04 00 0d 34 09 00 0d 32 06 50 	0P0000000400020P
  0x51b0	01 15 05 00 15 34 ba 00 15 01 b8 00 06 50 00 00 	0000040000000P00
  0x51c0	01 09 01 00 09 62 00 00 01 08 04 00 08 72 04 70 	00000b0000000r0p
  0x51d0	03 60 02 30 01 0f 06 00 0f 64 06 00 0f 34 05 00 	0`0000000d000400
  0x51e0	0f 12 0b 70 00 00 00 00 01 00 00 00 01 16 04 00 	000p000000000000
  0x51f0	16 52 12 70 11 60 10 30 01 19 03 00 19 62 15 70 	0R0p0`0000000b0p
  0x5200	14 30 00 00 01 12 05 00 12 62 0e 70 0d 60 0c 50 	000000000b0p0`0P
  0x5210	0b 30 00 00 01 02 01 00 02 30 00 00 00 56 00 00 	0000000000000V00
  0x5220	00 00 00 00 00 00 00 00 c2 56 00 00 78 33 00 00 	000000000V00x300
  0x5230	e8 54 00 00 00 00 00 00 00 00 00 00 90 59 00 00 	0T00000000000Y00
  0x5240	60 32 00 00 28 56 00 00 00 00 00 00 00 00 00 00 	`200(V0000000000
  0x5250	b2 59 00 00 a0 33 00 00 60 54 00 00 00 00 00 00 	0Y000300`T000000
  0x5260	00 00 00 00 fe 5b 00 00 d8 31 00 00 b0 53 00 00 	00000[0001000S00
  0x5270	00 00 00 00 00 00 00 00 26 5c 00 00 28 31 00 00 	00000000&000(100
  0x5280	f0 53 00 00 00 00 00 00 00 00 00 00 32 5c 00 00 	0S00000000002000
  0x5290	68 31 00 00 38 56 00 00 00 00 00 00 00 00 00 00 	h1008V0000000000
  0x52a0	5c 5c 00 00 b0 33 00 00 60 56 00 00 00 00 00 00 	00000300`V000000
  0x52b0	00 00 00 00 86 5c 00 00 d8 33 00 00 10 54 00 00 	0000000003000T00
  0x52c0	00 00 00 00 00 00 00 00 ac 5c 00 00 88 31 00 00 	0000000000000100
  0x52d0	40 54 00 00 00 00 00 00 00 00 00 00 cc 5c 00 00 	@T00000000000000
  0x52e0	b8 31 00 00 20 54 00 00 00 00 00 00 00 00 00 00 	0100 T0000000000
  0x52f0	ea 5c 00 00 98 31 00 00 a8 54 00 00 00 00 00 00 	000001000T000000
  0x5300	00 00 00 00 0c 5d 00 00 20 32 00 00 70 54 00 00 	00000]00 200pT00
  0x5310	00 00 00 00 00 00 00 00 30 5d 00 00 e8 31 00 00 	000000000]000100
  0x5320	d8 54 00 00 00 00 00 00 00 00 00 00 5a 5d 00 00 	0T0000000000Z]00
  0x5330	50 32 00 00 30 54 00 00 00 00 00 00 00 00 00 00 	P2000T0000000000
  0x5340	7e 5d 00 00 a8 31 00 00 b8 54 00 00 00 00 00 00 	~]0001000T000000
  0x5350	00 00 00 00 a6 5d 00 00 30 32 00 00 e0 53 00 00 	00000]0002000S00
  0x5360	00 00 00 00 00 00 00 00 cc 5d 00 00 58 31 00 00 	000000000]00X100
  0x5370	98 54 00 00 00 00 00 00 00 00 00 00 ee 5d 00 00 	0T00000000000]00
  0x5380	10 32 00 00 50 54 00 00 00 00 00 00 00 00 00 00 	0200PT0000000000
  0x5390	18 5e 00 00 c8 31 00 00 00 00 00 00 00 00 00 00 	0^00010000000000
  0x53a0	00 00 00 00 00 00 00 00 00 00 00 00 00 00 00 00 	0000000000000000
  0x53b0	73 00 00 00 00 00 00 80 74 00 00 00 00 00 00 80 	s0000000t0000000
  0x53c0	e6 59 00 00 00 00 00 00 6f 00 00 00 00 00 00 80 	0Y000000o0000000
  0x53d0	fc 59 00 00 00 00 00 00 00 00 00 00 00 00 00 00 	0Y00000000000000
  0x53e0	58 5b 00 00 00 00 00 00 00 00 00 00 00 00 00 00 	X[00000000000000
  0x53f0	88 5b 00 00 00 00 00 00 08 5a 00 00 00 00 00 00 	0[0000000Z000000
  0x5400	6c 5b 00 00 00 00 00 00 00 00 00 00 00 00 00 00 	l[00000000000000
  0x5410	72 5a 00 00 00 00 00 00 00 00 00 00 00 00 00 00 	rZ00000000000000
  0x5420	92 5a 00 00 00 00 00 00 00 00 00 00 00 00 00 00 	0Z00000000000000
  0x5430	00 5b 00 00 00 00 00 00 00 00 00 00 00 00 00 00 	0[00000000000000
  0x5440	80 5a 00 00 00 00 00 00 00 00 00 00 00 00 00 00 	0Z00000000000000
  0x5450	c2 5b 00 00 00 00 00 00 00 00 00 00 00 00 00 00 	0[00000000000000
  0x5460	d4 59 00 00 00 00 00 00 00 00 00 00 00 00 00 00 	0Y00000000000000
  0x5470	d6 5b 00 00 00 00 00 00 ba 5a 00 00 00 00 00 00 	0[0000000Z000000
  0x5480	d0 5a 00 00 00 00 00 00 ea 5b 00 00 00 00 00 00 	0Z0000000[000000
  0x5490	00 00 00 00 00 00 00 00 a6 5b 00 00 00 00 00 00 	000000000[000000
  0x54a0	00 00 00 00 00 00 00 00 a0 5a 00 00 00 00 00 00 	000000000Z000000
  0x54b0	00 00 00 00 00 00 00 00 16 5b 00 00 00 00 00 00 	000000000[000000
  0x54c0	2a 5b 00 00 00 00 00 00 44 5b 00 00 00 00 00 00 	*[000000D[000000
  0x54d0	00 00 00 00 00 00 00 00 e6 5a 00 00 00 00 00 00 	000000000Z000000
  0x54e0	00 00 00 00 00 00 00 00 2e 57 00 00 00 00 00 00 	00000000.W000000
  0x54f0	4c 57 00 00 00 00 00 00 6c 57 00 00 00 00 00 00 	LW000000lW000000
  0x5500	8c 57 00 00 00 00 00 00 98 57 00 00 00 00 00 00 	0W0000000W000000
  0x5510	b2 57 00 00 00 00 00 00 cc 57 00 00 00 00 00 00 	0W0000000W000000
  0x5520	de 57 00 00 00 00 00 00 ea 57 00 00 00 00 00 00 	0W0000000W000000
  0x5530	f8 57 00 00 00 00 00 00 1c 58 00 00 00 00 00 00 	0W0000000X000000
  0x5540	3a 58 00 00 00 00 00 00 5c 58 00 00 00 00 00 00 	:X0000000X000000
  0x5550	7c 58 00 00 00 00 00 00 92 58 00 00 00 00 00 00 	|X0000000X000000
  0x5560	a6 58 00 00 00 00 00 00 ca 58 00 00 00 00 00 00 	0X0000000X000000
  0x5570	d8 58 00 00 00 00 00 00 e6 58 00 00 00 00 00 00 	0X0000000X000000
  0x5580	f6 58 00 00 00 00 00 00 06 59 00 00 00 00 00 00 	0X0000000Y000000
  0x5590	14 59 00 00 00 00 00 00 20 59 00 00 00 00 00 00 	0Y000000 Y000000
  0x55a0	2a 59 00 00 00 00 00 00 36 59 00 00 00 00 00 00 	*Y0000006Y000000
  0x55b0	42 59 00 00 00 00 00 00 4e 59 00 00 00 00 00 00 	BY000000NY000000
  0x55c0	5e 59 00 00 00 00 00 00 6e 59 00 00 00 00 00 00 	^Y000000nY000000
  0x55d0	1c 57 00 00 00 00 00 00 0a 57 00 00 00 00 00 00 	0W0000000W000000
  0x55e0	fa 56 00 00 00 00 00 00 e4 56 00 00 00 00 00 00 	0V0000000V000000
  0x55f0	b6 58 00 00 00 00 00 00 00 00 00 00 00 00 00 00 	0X00000000000000
  0x5600	7c 56 00 00 00 00 00 00 8a 56 00 00 00 00 00 00 	|V0000000V000000
  0x5610	94 56 00 00 00 00 00 00 70 56 00 00 00 00 00 00 	0V000000pV000000
  0x5620	00 00 00 00 00 00 00 00 86 59 00 00 00 00 00 00 	000000000Y000000
  0x5630	00 00 00 00 00 00 00 00 2a 5a 00 00 00 00 00 00 	00000000*Z000000
  0x5640	18 5a 00 00 00 00 00 00 3a 5a 00 00 00 00 00 00 	0Z000000:Z000000
  0x5650	50 5a 00 00 00 00 00 00 00 00 00 00 00 00 00 00 	PZ00000000000000
  0x5660	60 5a 00 00 00 00 00 00 00 00 00 00 00 00 00 00 	`Z00000000000000
  0x5670	36 00 5f 69 6e 69 74 74 65 72 6d 00 37 00 5f 69 	60_initterm070_i
  0x5680	6e 69 74 74 65 72 6d 5f 65 00 15 00 5f 63 5f 65 	nitterm_e000_c_e
  0x5690	78 69 74 00 3d 00 5f 72 65 67 69 73 74 65 72 5f 	xit0=0_register_
  0x56a0	74 68 72 65 61 64 5f 6c 6f 63 61 6c 5f 65 78 65 	thread_local_exe
  0x56b0	5f 61 74 65 78 69 74 5f 63 61 6c 6c 62 61 63 6b 	_atexit_callback
  0x56c0	00 00 61 70 69 2d 6d 73 2d 77 69 6e 2d 63 72 74 	00api-ms-win-crt
  0x56d0	2d 72 75 6e 74 69 6d 65 2d 6c 31 2d 31 2d 30 2e 	-runtime-l1-1-0.
  0x56e0	64 6c 6c 00 43 00 5f 6f 5f 5f 5f 61 63 72 74 5f 	dll0C0_o___acrt_
  0x56f0	69 6f 62 5f 66 75 6e 63 00 00 4f 00 5f 6f 5f 5f 	iob_func00O0_o__
  0x5700	5f 70 5f 5f 5f 61 72 67 63 00 51 00 5f 6f 5f 5f 	_p___argc0Q0_o__
  0x5710	5f 70 5f 5f 5f 77 61 72 67 76 00 00 53 00 5f 6f 	_p___wargv00S0_o
  0x5720	5f 5f 5f 70 5f 5f 63 6f 6d 6d 6f 64 65 00 66 00 	___p__commode0f0
  0x5730	5f 6f 5f 5f 5f 73 74 64 69 6f 5f 63 6f 6d 6d 6f 	_o___stdio_commo
  0x5740	6e 5f 76 66 77 70 72 69 6e 74 66 00 68 00 5f 6f 	n_vfwprintf0h0_o
  0x5750	5f 5f 5f 73 74 64 69 6f 5f 63 6f 6d 6d 6f 6e 5f 	___stdio_common_
  0x5760	76 66 77 70 72 69 6e 74 66 5f 73 00 72 00 5f 6f 	vfwprintf_s0r0_o
  0x5770	5f 5f 5f 73 74 64 69 6f 5f 63 6f 6d 6d 6f 6e 5f 	___stdio_common_
  0x5780	76 73 77 70 72 69 6e 74 66 5f 73 00 93 00 5f 6f 	vswprintf_s000_o
  0x5790	5f 5f 63 65 78 69 74 00 9f 00 5f 6f 5f 5f 63 6f 	__cexit000_o__co
  0x57a0	6e 66 69 67 74 68 72 65 61 64 6c 6f 63 61 6c 65 	nfigthreadlocale
  0x57b0	00 00 a1 00 5f 6f 5f 5f 63 6f 6e 66 69 67 75 72 	0000_o__configur
  0x57c0	65 5f 77 69 64 65 5f 61 72 67 76 00 a7 00 5f 6f 	e_wide_argv000_o
  0x57d0	5f 5f 63 72 74 5f 61 74 65 78 69 74 00 00 c7 00 	__crt_atexit0000
  0x57e0	5f 6f 5f 5f 65 78 69 74 00 00 de 00 5f 6f 5f 5f 	_o__exit0000_o__
  0x57f0	66 69 6c 65 6e 6f 00 00 0f 01 5f 6f 5f 5f 67 65 	fileno0000_o__ge
  0x5800	74 5f 69 6e 69 74 69 61 6c 5f 77 69 64 65 5f 65 	t_initial_wide_e
  0x5810	6e 76 69 72 6f 6e 6d 65 6e 74 00 00 3d 01 5f 6f 	nvironment00=0_o
  0x5820	5f 5f 69 6e 69 74 69 61 6c 69 7a 65 5f 6f 6e 65 	__initialize_one
  0x5830	78 69 74 5f 74 61 62 6c 65 00 3e 01 5f 6f 5f 5f 	xit_table0>0_o__
  0x5840	69 6e 69 74 69 61 6c 69 7a 65 5f 77 69 64 65 5f 	initialize_wide_
  0x5850	65 6e 76 69 72 6f 6e 6d 65 6e 74 00 51 02 5f 6f 	environment0Q0_o
  0x5860	5f 5f 72 65 67 69 73 74 65 72 5f 6f 6e 65 78 69 	__register_onexi
  0x5870	74 5f 66 75 6e 63 74 69 6f 6e 00 00 5a 02 5f 6f 	t_function00Z0_o
  0x5880	5f 5f 73 65 68 5f 66 69 6c 74 65 72 5f 65 78 65 	__seh_filter_exe
  0x5890	00 00 5c 02 5f 6f 5f 5f 73 65 74 5f 61 70 70 5f 	0000_o__set_app_
  0x58a0	74 79 70 65 00 00 5f 02 5f 6f 5f 5f 73 65 74 5f 	type00_0_o__set_
  0x58b0	66 6d 6f 64 65 00 62 02 5f 6f 5f 5f 73 65 74 5f 	fmode0b0_o__set_
  0x58c0	6e 65 77 5f 6d 6f 64 65 00 00 66 02 5f 6f 5f 5f 	new_mode00f0_o__
  0x58d0	73 65 74 6d 6f 64 65 00 cd 02 5f 6f 5f 5f 77 63 	setmode000_o__wc
  0x58e0	73 69 63 6d 70 00 06 03 5f 6f 5f 5f 77 66 6f 70 	sicmp000_o__wfop
  0x58f0	65 6e 5f 73 00 00 0a 03 5f 6f 5f 5f 77 66 75 6c 	en_s0000_o__wful
  0x5900	6c 70 61 74 68 00 18 03 5f 6f 5f 5f 77 72 65 6d 	lpath000_o__wrem
  0x5910	6f 76 65 00 33 03 5f 6f 5f 5f 77 74 6f 69 00 00 	ove030_o__wtoi00
  0x5920	6d 03 5f 6f 5f 65 78 69 74 00 74 03 5f 6f 5f 66 	m0_o_exit0t0_o_f
  0x5930	63 6c 6f 73 65 00 7c 03 5f 6f 5f 66 67 65 74 77 	close0|0_o_fgetw
  0x5940	73 00 96 03 5f 6f 5f 67 65 74 65 6e 76 00 35 04 	s000_o_getenv050
  0x5950	5f 6f 5f 74 65 72 6d 69 6e 61 74 65 00 00 49 04 	_o_terminate00I0
  0x5960	5f 6f 5f 77 63 73 6e 63 70 79 5f 73 00 00 0c 00 	_o_wcsncpy_s0000
  0x5970	5f 5f 43 5f 73 70 65 63 69 66 69 63 5f 68 61 6e 	__C_specific_han
  0x5980	64 6c 65 72 00 00 83 00 6d 65 6d 73 65 74 00 00 	dler0000memset00
  0x5990	61 70 69 2d 6d 73 2d 77 69 6e 2d 63 72 74 2d 70 	api-ms-win-crt-p
  0x59a0	72 69 76 61 74 65 2d 6c 31 2d 31 2d 30 2e 64 6c 	rivate-l1-1-0.dl
  0x59b0	6c 00 61 70 69 2d 6d 73 2d 77 69 6e 2d 63 72 74 	l0api-ms-win-crt
  0x59c0	2d 73 74 72 69 6e 67 2d 6c 31 2d 31 2d 30 2e 64 	-string-l1-1-0.d
  0x59d0	6c 6c 00 00 09 00 46 6f 72 6d 61 74 4d 65 73 73 	ll0000FormatMess
  0x59e0	61 67 65 57 00 00 5a 00 57 53 41 53 74 72 69 6e 	ageW00Z0WSAStrin
  0x59f0	67 54 6f 41 64 64 72 65 73 73 57 00 0a 00 49 6e 	gToAddressW000In
  0x5a00	65 74 4e 74 6f 70 57 00 05 00 47 65 74 4c 61 73 	etNtopW000GetLas
  0x5a10	74 45 72 72 6f 72 00 00 04 00 4f 70 65 6e 53 43 	tError0000OpenSC
  0x5a20	4d 61 6e 61 67 65 72 57 00 00 05 00 4f 70 65 6e 	ManagerW0000Open
  0x5a30	53 65 72 76 69 63 65 57 00 00 00 00 43 6c 6f 73 	ServiceW0000Clos
  0x5a40	65 53 65 72 76 69 63 65 48 61 6e 64 6c 65 00 00 	eServiceHandle00
  0x5a50	06 00 53 74 61 72 74 53 65 72 76 69 63 65 57 00 	00StartServiceW0
  0x5a60	02 00 43 6f 6e 74 72 6f 6c 53 65 72 76 69 63 65 	00ControlService
  0x5a70	00 00 06 00 43 72 65 61 74 65 46 69 6c 65 57 00 	0000CreateFileW0
  0x5a80	04 00 44 65 76 69 63 65 49 6f 43 6f 6e 74 72 6f 	00DeviceIoContro
  0x5a90	6c 00 00 00 43 6c 6f 73 65 48 61 6e 64 6c 65 00 	l000CloseHandle0
  0x5aa0	00 00 51 75 65 72 79 50 65 72 66 6f 72 6d 61 6e 	00QueryPerforman
  0x5ab0	63 65 43 6f 75 6e 74 65 72 00 0d 00 47 65 74 43 	ceCounter000GetC
  0x5ac0	75 72 72 65 6e 74 50 72 6f 63 65 73 73 49 64 00 	urrentProcessId0
  0x5ad0	11 00 47 65 74 43 75 72 72 65 6e 74 54 68 72 65 	00GetCurrentThre
  0x5ae0	61 64 49 64 00 00 16 00 47 65 74 53 79 73 74 65 	adId0000GetSyste
  0x5af0	6d 54 69 6d 65 41 73 46 69 6c 65 54 69 6d 65 00 	mTimeAsFileTime0
  0x5b00	00 00 49 6e 69 74 69 61 6c 69 7a 65 53 4c 69 73 	00InitializeSLis
  0x5b10	74 48 65 61 64 00 02 00 52 74 6c 43 61 70 74 75 	tHead000RtlCaptu
  0x5b20	72 65 43 6f 6e 74 65 78 74 00 0a 00 52 74 6c 4c 	reContext000RtlL
  0x5b30	6f 6f 6b 75 70 46 75 6e 63 74 69 6f 6e 45 6e 74 	ookupFunctionEnt
  0x5b40	72 79 00 00 10 00 52 74 6c 56 69 72 74 75 61 6c 	ry0000RtlVirtual
  0x5b50	55 6e 77 69 6e 64 00 00 05 00 49 73 44 65 62 75 	Unwind0000IsDebu
  0x5b60	67 67 65 72 50 72 65 73 65 6e 74 00 11 00 55 6e 	ggerPresent000Un
  0x5b70	68 61 6e 64 6c 65 64 45 78 63 65 70 74 69 6f 6e 	handledException
  0x5b80	46 69 6c 74 65 72 00 00 0f 00 53 65 74 55 6e 68 	Filter0000SetUnh
  0x5b90	61 6e 64 6c 65 64 45 78 63 65 70 74 69 6f 6e 46 	andledExceptionF
  0x5ba0	69 6c 74 65 72 00 2f 00 49 73 50 72 6f 63 65 73 	ilter0/0IsProces
  0x5bb0	73 6f 72 46 65 61 74 75 72 65 50 72 65 73 65 6e 	sorFeaturePresen
  0x5bc0	74 00 14 00 47 65 74 4d 6f 64 75 6c 65 48 61 6e 	t000GetModuleHan
  0x5bd0	64 6c 65 57 00 00 0c 00 47 65 74 43 75 72 72 65 	dleW0000GetCurre
  0x5be0	6e 74 50 72 6f 63 65 73 73 00 4e 00 54 65 72 6d 	ntProcess0N0Term
  0x5bf0	69 6e 61 74 65 50 72 6f 63 65 73 73 00 00 61 70 	inateProcess00ap
  0x5c00	69 2d 6d 73 2d 77 69 6e 2d 63 6f 72 65 2d 6c 6f 	i-ms-win-core-lo
  0x5c10	63 61 6c 69 7a 61 74 69 6f 6e 2d 6c 31 2d 32 2d 	calization-l1-2-
  0x5c20	30 2e 64 6c 6c 00 57 53 32 5f 33 32 2e 64 6c 6c 	0.dll0WS2_32.dll
  0x5c30	00 00 61 70 69 2d 6d 73 2d 77 69 6e 2d 63 6f 72 	00api-ms-win-cor
  0x5c40	65 2d 65 72 72 6f 72 68 61 6e 64 6c 69 6e 67 2d 	e-errorhandling-
  0x5c50	6c 31 2d 31 2d 30 2e 64 6c 6c 00 00 61 70 69 2d 	l1-1-0.dll00api-
  0x5c60	6d 73 2d 77 69 6e 2d 73 65 72 76 69 63 65 2d 6d 	ms-win-service-m
  0x5c70	61 6e 61 67 65 6d 65 6e 74 2d 6c 31 2d 31 2d 30 	anagement-l1-1-0
  0x5c80	2e 64 6c 6c 00 00 61 70 69 2d 6d 73 2d 77 69 6e 	.dll00api-ms-win
  0x5c90	2d 73 65 72 76 69 63 65 2d 77 69 6e 73 76 63 2d 	-service-winsvc-
  0x5ca0	6c 31 2d 31 2d 30 2e 64 6c 6c 00 00 61 70 69 2d 	l1-1-0.dll00api-
  0x5cb0	6d 73 2d 77 69 6e 2d 63 6f 72 65 2d 66 69 6c 65 	ms-win-core-file
  0x5cc0	2d 6c 31 2d 31 2d 30 2e 64 6c 6c 00 61 70 69 2d 	-l1-1-0.dll0api-
  0x5cd0	6d 73 2d 77 69 6e 2d 63 6f 72 65 2d 69 6f 2d 6c 	ms-win-core-io-l
  0x5ce0	31 2d 31 2d 30 2e 64 6c 6c 00 61 70 69 2d 6d 73 	1-1-0.dll0api-ms
  0x5cf0	2d 77 69 6e 2d 63 6f 72 65 2d 68 61 6e 64 6c 65 	-win-core-handle
  0x5d00	2d 6c 31 2d 31 2d 30 2e 64 6c 6c 00 61 70 69 2d 	-l1-1-0.dll0api-
  0x5d10	6d 73 2d 77 69 6e 2d 63 6f 72 65 2d 70 72 6f 66 	ms-win-core-prof
  0x5d20	69 6c 65 2d 6c 31 2d 31 2d 30 2e 64 6c 6c 00 00 	ile-l1-1-0.dll00
  0x5d30	61 70 69 2d 6d 73 2d 77 69 6e 2d 63 6f 72 65 2d 	api-ms-win-core-
  0x5d40	70 72 6f 63 65 73 73 74 68 72 65 61 64 73 2d 6c 	processthreads-l
  0x5d50	31 2d 31 2d 30 2e 64 6c 6c 00 61 70 69 2d 6d 73 	1-1-0.dll0api-ms
  0x5d60	2d 77 69 6e 2d 63 6f 72 65 2d 73 79 73 69 6e 66 	-win-core-sysinf
  0x5d70	6f 2d 6c 31 2d 31 2d 30 2e 64 6c 6c 00 00 61 70 	o-l1-1-0.dll00ap
  0x5d80	69 2d 6d 73 2d 77 69 6e 2d 63 6f 72 65 2d 69 6e 	i-ms-win-core-in
  0x5d90	74 65 72 6c 6f 63 6b 65 64 2d 6c 31 2d 31 2d 30 	terlocked-l1-1-0
  0x5da0	2e 64 6c 6c 00 00 61 70 69 2d 6d 73 2d 77 69 6e 	.dll00api-ms-win
  0x5db0	2d 63 6f 72 65 2d 72 74 6c 73 75 70 70 6f 72 74 	-core-rtlsupport
  0x5dc0	2d 6c 31 2d 31 2d 30 2e 64 6c 6c 00 61 70 69 2d 	-l1-1-0.dll0api-
  0x5dd0	6d 73 2d 77 69 6e 2d 63 6f 72 65 2d 64 65 62 75 	ms-win-core-debu
  0x5de0	67 2d 6c 31 2d 31 2d 30 2e 64 6c 6c 00 00 61 70 	g-l1-1-0.dll00ap
  0x5df0	69 2d 6d 73 2d 77 69 6e 2d 63 6f 72 65 2d 70 72 	i-ms-win-core-pr
  0x5e00	6f 63 65 73 73 74 68 72 65 61 64 73 2d 6c 31 2d 	ocessthreads-l1-
  0x5e10	31 2d 31 2e 64 6c 6c 00 61 70 69 2d 6d 73 2d 77 	1-1.dll0api-ms-w
  0x5e20	69 6e 2d 63 6f 72 65 2d 6c 69 62 72 61 72 79 6c 	in-core-libraryl
  0x5e30	6f 61 64 65 72 2d 6c 31 2d 32 2d 30 2e 64 6c 6c 	oader-l1-2-0.dll
  0x5e40	00 00 00 00 00 00 00 00 00 00 00 00 00 00 00 00 	0000000000000000
  0x5e50	00 00 00 00 00 00 00 00 00 00 00 00 00 00 00 00 	0000000000000000
  0x5e60	00 00 00 00 00 00 00 00 00 00 00 00 00 00 00 00 	0000000000000000
  0x5e70	00 00 00 00 00 00 00 00 00 00 00 00 00 00 00 00 	0000000000000000
  0x5e80	00 00 00 00 00 00 00 00 00 00 00 00 00 00 00 00 	0000000000000000
  0x5e90	00 00 00 00 00 00 00 00 00 00 00 00 00 00 00 00 	0000000000000000
  0x5ea0	00 00 00 00 00 00 00 00 00 00 00 00 00 00 00 00 	0000000000000000
  0x5eb0	00 00 00 00 00 00 00 00 00 00 00 00 00 00 00 00 	0000000000000000
  0x5ec0	00 00 00 00 00 00 00 00 00 00 00 00 00 00 00 00 	0000000000000000
  0x5ed0	00 00 00 00 00 00 00 00 00 00 00 00 00 00 00 00 	0000000000000000
  0x5ee0	00 00 00 00 00 00 00 00 00 00 00 00 00 00 00 00 	0000000000000000
  0x5ef0	00 00 00 00 00 00 00 00 00 00 00 00 00 00 00 00 	0000000000000000
  0x5f00	00 00 00 00 00 00 00 00 00 00 00 00 00 00 00 00 	0000000000000000
  0x5f10	00 00 00 00 00 00 00 00 00 00 00 00 00 00 00 00 	0000000000000000
  0x5f20	00 00 00 00 00 00 00 00 00 00 00 00 00 00 00 00 	0000000000000000
  0x5f30	00 00 00 00 00 00 00 00 00 00 00 00 00 00 00 00 	0000000000000000
  0x5f40	00 00 00 00 00 00 00 00 00 00 00 00 00 00 00 00 	0000000000000000
  0x5f50	00 00 00 00 00 00 00 00 00 00 00 00 00 00 00 00 	0000000000000000
  0x5f60	00 00 00 00 00 00 00 00 00 00 00 00 00 00 00 00 	0000000000000000
  0x5f70	00 00 00 00 00 00 00 00 00 00 00 00 00 00 00 00 	0000000000000000
  0x5f80	00 00 00 00 00 00 00 00 00 00 00 00 00 00 00 00 	0000000000000000
  0x5f90	00 00 00 00 00 00 00 00 00 00 00 00 00 00 00 00 	0000000000000000
  0x5fa0	00 00 00 00 00 00 00 00 00 00 00 00 00 00 00 00 	0000000000000000
  0x5fb0	00 00 00 00 00 00 00 00 00 00 00 00 00 00 00 00 	0000000000000000
  0x5fc0	00 00 00 00 00 00 00 00 00 00 00 00 00 00 00 00 	0000000000000000
  0x5fd0	00 00 00 00 00 00 00 00 00 00 00 00 00 00 00 00 	0000000000000000
  0x5fe0	00 00 00 00 00 00 00 00 00 00 00 00 00 00 00 00 	0000000000000000
  0x5ff0	00 00 00 00 00 00 00 00 00 00 00 00 00 00 00 00 	0000000000000000
=== DATA BLOCK END ===

=== DATA BLOCK ADDRESS 0x6000 ===
  0x6000	32 a2 df 2d 99 2b 00 00 cd 5d 20 d2 66 d4 ff ff 	200-0+000] 0f000
  0x6010	01 00 00 00 02 00 00 00 2f 20 00 00 00 00 00 00 	00000000/ 000000
  0x6020	01 00 00 00 00 00 00 00 ff ff ff ff ff ff ff ff 	0000000000000000
  0x6030	00 00 00 00 00 00 00 00 00 00 00 00 00 00 00 00 	0000000000000000
  0x6040	00 00 00 00 00 00 00 00 00 00 00 00 00 00 00 00 	0000000000000000
  0x6050	00 00 00 00 00 00 00 00 00 00 00 00 00 00 00 00 	0000000000000000
  0x6060	00 00 00 00 00 00 00 00 00 00 00 00 00 00 00 00 	0000000000000000
  0x6070	00 00 00 00 00 00 00 00 00 00 00 00 00 00 00 00 	0000000000000000
  0x6080	00 00 00 00 00 00 00 00 00 00 00 00 00 00 00 00 	0000000000000000
  0x6090	00 00 00 00 00 00 00 00 00 00 00 00 00 00 00 00 	0000000000000000
  0x60a0	00 00 00 00 00 00 00 00 00 00 00 00 00 00 00 00 	0000000000000000
  0x60b0	00 00 00 00 00 00 00 00 00 00 00 00 00 00 00 00 	0000000000000000
  0x60c0	00 00 00 00 00 00 00 00 00 00 00 00 00 00 00 00 	0000000000000000
  0x60d0	00 00 00 00 00 00 00 00 00 00 00 00 00 00 00 00 	0000000000000000
  0x60e0	00 00 00 00 00 00 00 00 00 00 00 00 00 00 00 00 	0000000000000000
  0x60f0	00 00 00 00 00 00 00 00 00 00 00 00 00 00 00 00 	0000000000000000
  0x6100	00 00 00 00 00 00 00 00 00 00 00 00 00 00 00 00 	0000000000000000
  0x6110	00 00 00 00 00 00 00 00 00 00 00 00 00 00 00 00 	0000000000000000
  0x6120	00 00 00 00 00 00 00 00 00 00 00 00 00 00 00 00 	0000000000000000
  0x6130	00 00 00 00 00 00 00 00 00 00 00 00 00 00 00 00 	0000000000000000
  0x6140	00 00 00 00 00 00 00 00 00 00 00 00 00 00 00 00 	0000000000000000
  0x6150	00 00 00 00 00 00 00 00 00 00 00 00 00 00 00 00 	0000000000000000
  0x6160	00 00 00 00 00 00 00 00 00 00 00 00 00 00 00 00 	0000000000000000
  0x6170	00 00 00 00 00 00 00 00 00 00 00 00 00 00 00 00 	0000000000000000
  0x6180	00 00 00 00 00 00 00 00 00 00 00 00 00 00 00 00 	0000000000000000
  0x6190	00 00 00 00 00 00 00 00 00 00 00 00 00 00 00 00 	0000000000000000
  0x61a0	00 00 00 00 00 00 00 00 00 00 00 00 00 00 00 00 	0000000000000000
  0x61b0	00 00 00 00 00 00 00 00 00 00 00 00 00 00 00 00 	0000000000000000
  0x61c0	00 00 00 00 00 00 00 00 00 00 00 00 00 00 00 00 	0000000000000000
  0x61d0	00 00 00 00 00 00 00 00 00 00 00 00 00 00 00 00 	0000000000000000
  0x61e0	00 00 00 00 00 00 00 00 00 00 00 00 00 00 00 00 	0000000000000000
  0x61f0	00 00 00 00 00 00 00 00 00 00 00 00 00 00 00 00 	0000000000000000
=== DATA BLOCK END ===

=== DATA BLOCK ADDRESS 0x7000 ===
  0x7000	08 10 00 00 ae 10 00 00 b0 50 00 00 b4 10 00 00 	000000000P000000
  0x7010	c5 17 00 00 c4 50 00 00 cc 17 00 00 a4 18 00 00 	00000P0000000000
  0x7020	ec 50 00 00 ac 18 00 00 14 19 00 00 00 51 00 00 	0P00000000000Q00
  0x7030	1c 19 00 00 a7 1c 00 00 0c 51 00 00 b0 1c 00 00 	000000000Q000000
  0x7040	c4 1c 00 00 24 51 00 00 e0 1c 00 00 fd 1c 00 00 	0000$Q0000000000
  0x7050	24 51 00 00 20 1d 00 00 3d 1d 00 00 24 51 00 00 	$Q00 000=000$Q00
  0x7060	50 1d 00 00 f1 1d 00 00 2c 51 00 00 00 1e 00 00 	P0000000,Q000000
  0x7070	10 1e 00 00 24 51 00 00 20 1e 00 00 39 1e 00 00 	0000$Q00 0009000
  0x7080	24 51 00 00 40 1e 00 00 bc 1f 00 00 34 51 00 00 	$Q00@00000004Q00
  0x7090	d0 1f 00 00 e2 1f 00 00 24 51 00 00 00 20 00 00 	00000000$Q000 00
  0x70a0	21 20 00 00 78 51 00 00 28 20 00 00 61 20 00 00 	! 00xQ00( 00a 00
  0x70b0	24 51 00 00 68 20 00 00 b1 20 00 00 2c 51 00 00 	$Q00h 000 00,Q00
  0x70c0	b8 20 00 00 68 21 00 00 2c 51 00 00 70 21 00 00 	0 00h!00,Q00p!00
  0x70d0	08 22 00 00 7c 51 00 00 10 22 00 00 34 22 00 00 	0"00|Q000"004"00
  0x70e0	2c 51 00 00 3c 22 00 00 65 22 00 00 2c 51 00 00 	,Q00<"00e"00,Q00
  0x70f0	6c 22 00 00 bb 22 00 00 2c 51 00 00 c4 22 00 00 	l"000"00,Q000"00
  0x7100	db 22 00 00 24 51 00 00 e4 22 00 00 90 23 00 00 	0"00$Q000"000#00
  0x7110	a4 51 00 00 ec 23 00 00 07 24 00 00 24 51 00 00 	0Q000#000$00$Q00
  0x7120	40 24 00 00 8b 25 00 00 b0 51 00 00 a0 25 00 00 	@$000%000Q000%00
  0x7130	f2 25 00 00 24 51 00 00 10 26 00 00 48 26 00 00 	0%00$Q000&00H&00
  0x7140	24 51 00 00 50 26 00 00 8c 26 00 00 00 51 00 00 	$Q00P&000&000Q00
  0x7150	a0 26 00 00 dc 26 00 00 00 51 00 00 e4 26 00 00 	0&000&000Q000&00
  0x7160	41 27 00 00 2c 51 00 00 50 27 00 00 22 28 00 00 	A'00,Q00P'00"(00
  0x7170	c0 51 00 00 28 28 00 00 99 28 00 00 c8 51 00 00 	0Q00((000(000Q00
  0x7180	a0 28 00 00 1b 2a 00 00 d4 51 00 00 88 2b 00 00 	0(000*000Q000+00
  0x7190	cb 2b 00 00 ec 51 00 00 d4 2b 00 00 22 2c 00 00 	0+000Q000+00",00
  0x71a0	f8 51 00 00 28 2c 00 00 7a 2c 00 00 04 52 00 00 	0Q00(,00z,000R00
  0x71b0	80 2c 00 00 9d 2c 00 00 24 51 00 00 a4 2c 00 00 	0,000,00$Q000,00
  0x71c0	ff 2c 00 00 14 52 00 00 10 2d 00 00 12 2d 00 00 	0,000R000-000-00
  0x71d0	e8 51 00 00 18 2d 00 00 36 2d 00 00 6c 51 00 00 	0Q000-006-00lQ00
  0x71e0	3c 2d 00 00 54 2d 00 00 9c 51 00 00 00 00 00 00 	<-00T-000Q000000
  0x71f0	00 00 00 00 00 00 00 00 00 00 00 00 00 00 00 00 	0000000000000000
=== DATA BLOCK END ===
