===== Assembly blocks =====

=== CODE BLOCK ADDRESS 0x1000 ===
  0x1000	int3   	
  0x1001	int3   	
  0x1002	int3   	
  0x1003	int3   	
  0x1004	int3   	
  === BLOCK LINK ===
    0x1005
=== CODE BLOCK END ===

=== CODE BLOCK ADDRESS 0x1005 ===
  0x1005	int3   	
  0x1006	int3   	
  0x1007	int3   	
  === BLOCK LINK ===
    0x1008
=== CODE BLOCK END ===

=== CODE BLOCK ADDRESS 0x100b ===
  0x100b	dec    	eax
  0x100c	mov    	dword ptr [eax + 8], ebx
  0x100f	dec    	eax
  0x1010	mov    	dword ptr [eax + 0x10], ebp
  0x1013	dec    	eax
  === BLOCK LINK ===
    0x1014
=== CODE BLOCK END ===

=== CODE BLOCK ADDRESS 0x1014 ===
  0x1014	mov    	dword ptr [eax + 0x18], esi
  0x1017	dec    	eax
  0x1018	mov    	dword ptr [eax + 0x20], edi
  0x101b	inc    	ecx
  0x101c	push   	esi
  === BLOCK LINK ===
    0x101d
=== CODE BLOCK END ===

=== CODE BLOCK ADDRESS 0x101d ===
  0x101d	dec    	eax
  0x101e	sub    	esp, 0x30
  0x1021	dec    	esp
  0x1022	mov    	esi, ecx
  0x1024	dec    	ecx
  === BLOCK LINK ===
    0x1025
=== CODE BLOCK END ===

=== CODE BLOCK ADDRESS 0x1025 ===
  0x1025	mov    	esi, eax
  0x1027	dec    	eax
  0x1028	lea    	ecx, [0x33c2]
  0x102e	dec    	eax
  0x102f	mov    	ebp, edx
  === BLOCK LINK ===
    0x1031
=== CODE BLOCK END ===

=== CODE BLOCK ADDRESS 0x1031 ===
  0x1031	xor    	ebx, ebx
  0x1033	dec    	eax
  0x1034	call   	dword ptr [0x315e]
  === BLOCK LINK ===
    0x103a
=== CODE BLOCK END ===

=== CODE BLOCK ADDRESS 0x103a ===
  0x103a	nop    	dword ptr [eax + eax]
  0x103f	dec    	eax
  0x1040	mov    	edi, eax
  0x1042	dec    	eax
  0x1043	test   	eax, eax
  === BLOCK LINK ===
    0x1045
=== CODE BLOCK END ===

=== CODE BLOCK ADDRESS 0x1045 ===
  0x1045	jne    	0x1057
  === BLOCK LINK ===
    0x1047
    0x1057
=== CODE BLOCK END ===

=== CODE BLOCK ADDRESS 0x1047 ===
  0x1047	dec    	eax
  0x1048	call   	dword ptr [0x3152]
  === BLOCK LINK ===
    0x104e
=== CODE BLOCK END ===

=== CODE BLOCK ADDRESS 0x104e ===
  0x104e	nop    	dword ptr [eax + eax]
  0x1053	mov    	ebx, eax
  0x1055	jmp    	0x10a2
  === BLOCK LINK ===
    0x1057
    0x10a2
=== CODE BLOCK END ===

=== CODE BLOCK ADDRESS 0x1057 ===
  0x1057	dec    	eax
  0x1058	lea    	edx, [0x33aa]
  0x105e	dec    	eax
  0x105f	mov    	ecx, edi
  0x1061	dec    	eax
  === BLOCK LINK ===
    0x1062
=== CODE BLOCK END ===

=== CODE BLOCK ADDRESS 0x1062 ===
  0x1062	call   	dword ptr [0x3120]
  === BLOCK LINK ===
    0x1068
=== CODE BLOCK END ===

=== CODE BLOCK ADDRESS 0x1068 ===
  0x1068	nop    	dword ptr [eax + eax]
  0x106d	dec    	eax
  0x106e	test   	eax, eax
  0x1070	jne    	0x1082
  === BLOCK LINK ===
    0x1072
    0x1082
=== CODE BLOCK END ===

=== CODE BLOCK ADDRESS 0x1072 ===
  0x1072	dec    	eax
  0x1073	call   	dword ptr [0x3127]
  === BLOCK LINK ===
    0x1079
=== CODE BLOCK END ===

=== CODE BLOCK ADDRESS 0x1079 ===
  0x1079	nop    	dword ptr [eax + eax]
  0x107e	mov    	ebx, eax
  0x1080	jmp    	0x1093
  === BLOCK LINK ===
    0x1082
    0x1093
=== CODE BLOCK END ===

=== CODE BLOCK ADDRESS 0x1082 ===
  0x1082	dec    	esp
  0x1083	mov    	ecx, esi
  0x1085	dec    	esp
  0x1086	mov    	eax, ebp
  0x1088	dec    	ecx
  === BLOCK LINK ===
    0x1089
=== CODE BLOCK END ===

=== CODE BLOCK ADDRESS 0x1089 ===
  0x1089	mov    	edx, esi
  0x108b	xor    	ecx, ecx
  0x108d	call   	dword ptr [0x32dd]
  === BLOCK LINK ===
    0x1093
=== CODE BLOCK END ===

=== CODE BLOCK ADDRESS 0x1093 ===
  0x1093	dec    	eax
  0x1094	mov    	ecx, edi
  0x1096	dec    	eax
  0x1097	call   	dword ptr [0x30db]
  === BLOCK LINK ===
    0x109d
=== CODE BLOCK END ===

=== CODE BLOCK ADDRESS 0x109d ===
  0x109d	nop    	dword ptr [eax + eax]
  === BLOCK LINK ===
    0x10a2
=== CODE BLOCK END ===

=== CODE BLOCK ADDRESS 0x10aa ===
  0x10aa	mov    	ebx, dword ptr [esp + 0x40]
  0x10ae	dec    	eax
  0x10af	mov    	esi, dword ptr [esp + 0x50]
  0x10b3	dec    	eax
  0x10b4	mov    	edi, dword ptr [esp + 0x58]
  === BLOCK LINK ===
    0x10b8
=== CODE BLOCK END ===

=== CODE BLOCK ADDRESS 0x10b8 ===
  0x10b8	dec    	eax
  0x10b9	add    	esp, 0x30
  0x10bc	inc    	ecx
  0x10bd	pop    	esi
  0x10be	ret    	
  === BLOCK LINK ===
    0x10bf
=== CODE BLOCK END ===

=== CODE BLOCK ADDRESS 0x10bf ===
  0x10bf	int3   	
  0x10c0	int3   	
  0x10c1	int3   	
  0x10c2	int3   	
  0x10c3	int3   	
  === BLOCK LINK ===
    0x10c4
=== CODE BLOCK END ===

=== CODE BLOCK ADDRESS 0x10c4 ===
  0x10c4	int3   	
  0x10c5	int3   	
  0x10c6	int3   	
  0x10c7	int3   	
  0x10c8	dec    	eax
  === BLOCK LINK ===
    0x10c9
=== CODE BLOCK END ===

=== CODE BLOCK ADDRESS 0x10c9 ===
  0x10c9	mov    	dword ptr [esp + 8], ebx
  0x10cd	push   	edi
  0x10ce	dec    	eax
  0x10cf	sub    	esp, 0x20
  0x10d2	dec    	eax
  === BLOCK LINK ===
    0x10d3
=== CODE BLOCK END ===

=== CODE BLOCK ADDRESS 0x10d3 ===
  0x10d3	mov    	ebx, ecx
  0x10d5	dec    	eax
  0x10d6	lea    	ecx, [0x3314]
  0x10dc	dec    	eax
  0x10dd	call   	dword ptr [0x30b5]
  === BLOCK LINK ===
    0x10e3
=== CODE BLOCK END ===

=== CODE BLOCK ADDRESS 0x10e3 ===
  0x10e3	nop    	dword ptr [eax + eax]
  0x10e8	dec    	eax
  0x10e9	mov    	edi, eax
  0x10eb	dec    	eax
  0x10ec	test   	eax, eax
  === BLOCK LINK ===
    0x10ee
=== CODE BLOCK END ===

=== CODE BLOCK ADDRESS 0x10ee ===
  0x10ee	jne    	0x1100
  === BLOCK LINK ===
    0x10f0
    0x1100
=== CODE BLOCK END ===

=== CODE BLOCK ADDRESS 0x10f0 ===
  0x10f0	dec    	eax
  0x10f1	call   	dword ptr [0x30a9]
  === BLOCK LINK ===
    0x10f7
=== CODE BLOCK END ===

=== CODE BLOCK ADDRESS 0x10f7 ===
  0x10f7	nop    	dword ptr [eax + eax]
  0x10fc	mov    	ebx, eax
  0x10fe	jmp    	0x1145
  === BLOCK LINK ===
    0x1100
    0x1145
=== CODE BLOCK END ===

=== CODE BLOCK ADDRESS 0x1100 ===
  0x1100	dec    	eax
  0x1101	lea    	edx, [0x3321]
  0x1107	dec    	eax
  0x1108	mov    	ecx, edi
  0x110a	dec    	eax
  === BLOCK LINK ===
    0x110b
=== CODE BLOCK END ===

=== CODE BLOCK ADDRESS 0x110b ===
  0x110b	call   	dword ptr [0x3077]
  === BLOCK LINK ===
    0x1111
=== CODE BLOCK END ===

=== CODE BLOCK ADDRESS 0x1111 ===
  0x1111	nop    	dword ptr [eax + eax]
  0x1116	dec    	eax
  0x1117	test   	eax, eax
  0x1119	jne    	0x1129
  === BLOCK LINK ===
    0x111b
    0x1129
=== CODE BLOCK END ===

=== CODE BLOCK ADDRESS 0x111b ===
  0x111b	dec    	eax
  0x111c	call   	dword ptr [0x307e]
  === BLOCK LINK ===
    0x1122
=== CODE BLOCK END ===

=== CODE BLOCK ADDRESS 0x1122 ===
  0x1122	nop    	dword ptr [eax + eax]
  0x1127	jmp    	0x1134
  === BLOCK LINK ===
    0x1129
    0x1134
=== CODE BLOCK END ===

=== CODE BLOCK ADDRESS 0x1129 ===
  0x1129	dec    	eax
  0x112a	mov    	edx, ebx
  0x112c	xor    	ecx, ecx
  0x112e	call   	dword ptr [0x323c]
  === BLOCK LINK ===
    0x1134
=== CODE BLOCK END ===

=== CODE BLOCK ADDRESS 0x1134 ===
  0x1134	mov    	ebx, eax
  0x1136	dec    	eax
  0x1137	mov    	ecx, edi
  0x1139	dec    	eax
  0x113a	call   	dword ptr [0x3038]
  === BLOCK LINK ===
    0x1140
=== CODE BLOCK END ===

=== CODE BLOCK ADDRESS 0x1140 ===
  0x1140	nop    	dword ptr [eax + eax]
  === BLOCK LINK ===
    0x1145
=== CODE BLOCK END ===

=== CODE BLOCK ADDRESS 0x114d ===
  0x114d	add    	esp, 0x20
  0x1150	pop    	edi
  0x1151	ret    	
  0x1152	int3   	
  0x1153	int3   	
  === BLOCK LINK ===
    0x1154
=== CODE BLOCK END ===

=== CODE BLOCK ADDRESS 0x10a2 ===
  0x10a2	dec    	eax
  0x10a3	mov    	ebp, dword ptr [esp + 0x48]
  0x10a7	mov    	eax, ebx
  0x10a9	dec    	eax
  === BLOCK LINK ===
    0x10aa
=== CODE BLOCK END ===

=== CODE BLOCK ADDRESS 0x1154 ===
  0x1154	int3   	
  0x1155	int3   	
  0x1156	int3   	
  0x1157	int3   	
  0x1158	int3   	
  === BLOCK LINK ===
    0x1159
=== CODE BLOCK END ===

=== CODE BLOCK ADDRESS 0x1159 ===
  0x1159	int3   	
  0x115a	int3   	
  0x115b	int3   	
  0x115c	dec    	eax
  0x115d	mov    	dword ptr [esp + 8], ebx
  === BLOCK LINK ===
    0x1161
=== CODE BLOCK END ===

=== CODE BLOCK ADDRESS 0x1161 ===
  0x1161	dec    	eax
  0x1162	mov    	dword ptr [esp + 0x10], esi
  0x1166	push   	edi
  0x1167	dec    	eax
  0x1168	sub    	esp, 0x50
  === BLOCK LINK ===
    0x116b
=== CODE BLOCK END ===

=== CODE BLOCK ADDRESS 0x116b ===
  0x116b	xor    	edi, edi
  0x116d	mov    	dword ptr [esp + 0x24], edi
  0x1171	inc    	ebp
  0x1172	xor    	ecx, ecx
  0x1174	inc    	ebp
  === BLOCK LINK ===
    0x1175
=== CODE BLOCK END ===

=== CODE BLOCK ADDRESS 0x1175 ===
  0x1175	xor    	eax, eax
  0x1177	lea    	esi, [edi + 1]
  0x117a	mov    	edx, esi
  0x117c	xor    	ecx, ecx
  0x117e	dec    	eax
  === BLOCK LINK ===
    0x117f
=== CODE BLOCK END ===

=== CODE BLOCK ADDRESS 0x117f ===
  0x117f	call   	dword ptr [0x300b]
  === BLOCK LINK ===
    0x1185
=== CODE BLOCK END ===

=== CODE BLOCK ADDRESS 0x1185 ===
  0x1185	nop    	dword ptr [eax + eax]
  0x118a	mov    	ebx, edi
  0x118c	dec    	eax
  0x118d	lea    	ecx, [esp + 0x30]
  0x1191	call   	0x1360
  === BLOCK LINK ===
    0x1196
    0x1360
=== CODE BLOCK END ===

=== CODE BLOCK ADDRESS 0x1196 ===
  0x1196	test   	eax, eax
  0x1198	je     	0x1336
  === BLOCK LINK ===
    0x119e
    0x1336
=== CODE BLOCK END ===

=== CODE BLOCK ADDRESS 0x119e ===
  0x119e	mov    	eax, dword ptr [0x5458]
  0x11a4	add    	eax, esi
  0x11a6	mov    	dword ptr [0x5450], eax
  0x11ac	cmp    	eax, esi
  0x11ae	jne    	0x11e6
  === BLOCK LINK ===
    0x11b0
    0x11e6
=== CODE BLOCK END ===

=== CODE BLOCK ADDRESS 0x11b0 ===
  0x11b0	mov    	ebx, esi
  0x11b2	dec    	eax
  0x11b3	call   	dword ptr [0x2fb7]
  === BLOCK LINK ===
    0x11b9
=== CODE BLOCK END ===

=== CODE BLOCK ADDRESS 0x11b9 ===
  0x11b9	nop    	dword ptr [eax + eax]
  0x11be	dec    	eax
  0x11bf	mov    	dword ptr [0x54b3], eax
  0x11c5	dec    	eax
  0x11c6	test   	eax, eax
  === BLOCK LINK ===
    0x11c8
=== CODE BLOCK END ===

=== CODE BLOCK ADDRESS 0x11c8 ===
  0x11c8	je     	0x11e6
  === BLOCK LINK ===
    0x11ca
    0x11e6
=== CODE BLOCK END ===

=== CODE BLOCK ADDRESS 0x11ca ===
  0x11ca	mov    	dword ptr [0x54b0], esi
  0x11d0	call   	0x1980
  === BLOCK LINK ===
    0x11d5
    0x1980
=== CODE BLOCK END ===

=== CODE BLOCK ADDRESS 0x11d5 ===
  0x11d5	mov    	ecx, dword ptr [0x541d]
  0x11db	test   	eax, eax
  0x11dd	cmovne  	ecx, esi
  0x11e0	mov    	dword ptr [0x5412], ecx
  0x11e6	test   	ebx, ebx
  === BLOCK LINK ===
    0x11e8
=== CODE BLOCK END ===

=== CODE BLOCK ADDRESS 0x11e8 ===
  0x11e8	je     	0x1220
  === BLOCK LINK ===
    0x11ea
    0x1220
=== CODE BLOCK END ===

=== CODE BLOCK ADDRESS 0x11ea ===
  0x11ea	cmp    	dword ptr [0x5408], edi
  0x11f0	jne    	0x1220
  === BLOCK LINK ===
    0x11f2
    0x1220
=== CODE BLOCK END ===

=== CODE BLOCK ADDRESS 0x11f2 ===
  0x11f2	dec    	esp
  0x11f3	mov    	eax, dword ptr [0x53f7]
  0x11f9	dec    	ebp
  0x11fa	test   	eax, eax
  0x11fc	je     	0x121a
  === BLOCK LINK ===
    0x11fe
    0x121a
=== CODE BLOCK END ===

=== CODE BLOCK ADDRESS 0x11fe ===
  0x11fe	xor    	edx, edx
  0x1200	dec    	eax
  0x1201	mov    	ecx, dword ptr [0x5471]
  0x1207	dec    	eax
  0x1208	call   	dword ptr [0x2f5a]
  === BLOCK LINK ===
    0x120e
=== CODE BLOCK END ===

=== CODE BLOCK ADDRESS 0x120e ===
  0x120e	nop    	dword ptr [eax + eax]
  0x1213	dec    	eax
  0x1214	mov    	dword ptr [0x53d6], edi
  === BLOCK LINK ===
    0x121a
=== CODE BLOCK END ===

=== CODE BLOCK ADDRESS 0x1221 ===
  0x1221	lea    	eax, [esp + 0x30]
  0x1225	.byte  	0xf0
  0x1226	dec    	eax
  0x1227	cmpxchg  	dword ptr [0x53b2], edi
  0x122e	dec    	eax
  === BLOCK LINK ===
    0x122f
=== CODE BLOCK END ===

=== CODE BLOCK ADDRESS 0x122f ===
  0x122f	lea    	ecx, [esp + 0x30]
  0x1233	dec    	eax
  0x1234	cmp    	eax, ecx
  0x1236	je     	0x1245
  === BLOCK LINK ===
    0x1238
    0x1245
=== CODE BLOCK END ===

=== CODE BLOCK ADDRESS 0x1238 ===
  0x1238	dec    	eax
  0x1239	mov    	edx, eax
  0x123b	dec    	eax
  0x123c	lea    	ecx, [esp + 0x30]
  0x1240	call   	0x1414
  === BLOCK LINK ===
    0x1245
    0x1414
=== CODE BLOCK END ===

=== CODE BLOCK ADDRESS 0x1245 ===
  0x1245	cmp    	dword ptr [0x53ad], edi
  0x124b	je     	0x1336
  === BLOCK LINK ===
    0x1251
    0x1336
=== CODE BLOCK END ===

=== CODE BLOCK ADDRESS 0x1251 ===
  0x1251	call   	0x1b4c
  === BLOCK LINK ===
    0x1256
    0x1b4c
=== CODE BLOCK END ===

=== CODE BLOCK ADDRESS 0x1256 ===
  0x1256	test   	eax, eax
  0x1258	jne    	0x1262
  === BLOCK LINK ===
    0x125a
    0x1262
=== CODE BLOCK END ===

=== CODE BLOCK ADDRESS 0x125a ===
  0x125a	lea    	ebx, [eax + 5]
  0x125d	jmp    	0x1344
  === BLOCK LINK ===
    0x1262
    0x1344
=== CODE BLOCK END ===

=== CODE BLOCK ADDRESS 0x1262 ===
  0x1262	dec    	eax
  0x1263	call   	dword ptr [0x2f3f]
  === BLOCK LINK ===
    0x1269
=== CODE BLOCK END ===

=== CODE BLOCK ADDRESS 0x1269 ===
  0x1269	nop    	dword ptr [eax + eax]
  0x126e	dec    	eax
  0x126f	test   	eax, eax
  0x1271	jne    	0x127d
  === BLOCK LINK ===
    0x1273
    0x127d
=== CODE BLOCK END ===

=== CODE BLOCK ADDRESS 0x1273 ===
  0x1273	mov    	ebx, 0x57
  0x1278	jmp    	0x1344
  === BLOCK LINK ===
    0x127d
    0x1344
=== CODE BLOCK END ===

=== CODE BLOCK ADDRESS 0x127d ===
  0x127d	dec    	eax
  0x127e	lea    	edx, [esp + 0x28]
  0x1282	dec    	eax
  0x1283	mov    	ecx, eax
  0x1285	dec    	eax
  === BLOCK LINK ===
    0x1286
=== CODE BLOCK END ===

=== CODE BLOCK ADDRESS 0x1286 ===
  0x1286	call   	dword ptr [0x2fcc]
  === BLOCK LINK ===
    0x128c
=== CODE BLOCK END ===

=== CODE BLOCK ADDRESS 0x128c ===
  0x128c	nop    	dword ptr [eax + eax]
  0x1291	dec    	eax
  0x1292	mov    	edi, eax
  0x1294	cmp    	dword ptr [esp + 0x28], 2
  0x1299	jl     	0x1273
  === BLOCK LINK ===
    0x129b
    0x1273
=== CODE BLOCK END ===

=== CODE BLOCK ADDRESS 0x129b ===
  0x129b	dec    	esp
  0x129c	lea    	eax, [esp + 0x24]
  0x12a0	dec    	eax
  0x12a1	lea    	edx, [0x3199]
  0x12a7	dec    	eax
  === BLOCK LINK ===
    0x12a8
=== CODE BLOCK END ===

=== CODE BLOCK ADDRESS 0x12a8 ===
  0x12a8	mov    	ecx, dword ptr [eax + 8]
  0x12ab	dec    	eax
  0x12ac	call   	dword ptr [0x3036]
  === BLOCK LINK ===
    0x12b2
=== CODE BLOCK END ===

=== CODE BLOCK ADDRESS 0x12b2 ===
  0x12b2	nop    	dword ptr [eax + eax]
  0x12b7	cmp    	eax, esi
  0x12b9	jne    	0x1273
  === BLOCK LINK ===
    0x12bb
    0x1273
=== CODE BLOCK END ===

=== CODE BLOCK ADDRESS 0x12bb ===
  0x12bb	cmp    	dword ptr [esp + 0x24], 2
  0x12c0	je     	0x12f1
  === BLOCK LINK ===
    0x12c2
    0x12f1
=== CODE BLOCK END ===

=== CODE BLOCK ADDRESS 0x12c2 ===
  0x12c2	cmp    	dword ptr [esp + 0x24], 4
  0x12c7	je     	0x12d4
  === BLOCK LINK ===
    0x12c9
    0x12d4
=== CODE BLOCK END ===

=== CODE BLOCK ADDRESS 0x12c9 ===
  0x12c9	mov    	ebx, 0x57
  0x12ce	mov    	dword ptr [esp + 0x20], ebx
  0x12d2	jmp    	0x131e
  === BLOCK LINK ===
    0x12d4
    0x131e
=== CODE BLOCK END ===

=== CODE BLOCK ADDRESS 0x12d4 ===
  0x12d4	cmp    	dword ptr [esp + 0x28], 3
  0x12d9	je     	0x12e6
  === BLOCK LINK ===
    0x12db
    0x12e6
=== CODE BLOCK END ===

=== CODE BLOCK ADDRESS 0x12db ===
  0x12db	mov    	ebx, 0x57
  0x12e0	mov    	dword ptr [esp + 0x20], ebx
  0x12e4	jmp    	0x1344
  === BLOCK LINK ===
    0x12e6
    0x1344
=== CODE BLOCK END ===

=== CODE BLOCK ADDRESS 0x12e6 ===
  0x12e6	dec    	eax
  0x12e7	mov    	ecx, dword ptr [edi + 0x10]
  0x12ea	call   	0x10c8
  === BLOCK LINK ===
    0x12ef
    0x10c8
=== CODE BLOCK END ===

=== CODE BLOCK ADDRESS 0x12ef ===
  0x12ef	jmp    	0x1318
  === BLOCK LINK ===
    0x12f1
    0x1318
=== CODE BLOCK END ===

=== CODE BLOCK ADDRESS 0x12f1 ===
  0x12f1	mov    	ebx, 5
  0x12f6	cmp    	dword ptr [esp + 0x28], ebx
  0x12fa	je     	0x1307
  === BLOCK LINK ===
    0x12fc
    0x1307
=== CODE BLOCK END ===

=== CODE BLOCK ADDRESS 0x12fc ===
  0x12fc	mov    	ebx, 0x57
  0x1301	mov    	dword ptr [esp + 0x20], ebx
  0x1305	jmp    	0x1344
  === BLOCK LINK ===
    0x1307
    0x1344
=== CODE BLOCK END ===

=== CODE BLOCK ADDRESS 0x1307 ===
  0x1307	dec    	esp
  0x1308	mov    	eax, dword ptr [edi + 0x20]
  0x130b	dec    	eax
  0x130c	mov    	edx, dword ptr [edi + 0x18]
  0x130f	dec    	eax
  === BLOCK LINK ===
    0x1310
=== CODE BLOCK END ===

=== CODE BLOCK ADDRESS 0x1310 ===
  0x1310	mov    	ecx, dword ptr [edi + 0x10]
  0x1313	call   	0x1008
  === BLOCK LINK ===
    0x1318
    0x1008
=== CODE BLOCK END ===

=== CODE BLOCK ADDRESS 0x1318 ===
  0x1318	mov    	dword ptr [esp + 0x20], eax
  0x131c	mov    	ebx, eax
  0x131e	jmp    	0x1344
  === BLOCK LINK ===
    0x1320
    0x1344
=== CODE BLOCK END ===

=== CODE BLOCK ADDRESS 0x1320 ===
  0x1320	mov    	ecx, eax
  0x1322	dec    	eax
  0x1323	call   	dword ptr [0x3027]
  === BLOCK LINK ===
    0x1329
=== CODE BLOCK END ===

=== CODE BLOCK ADDRESS 0x1329 ===
  0x1329	nop    	dword ptr [eax + eax]
  0x132e	mov    	ebx, eax
  0x1330	mov    	dword ptr [esp + 0x20], eax
  0x1334	jmp    	0x1344
  === BLOCK LINK ===
    0x1336
    0x1344
=== CODE BLOCK END ===

=== CODE BLOCK ADDRESS 0x1336 ===
  0x1336	dec    	eax
  0x1337	call   	dword ptr [0x2e63]
  === BLOCK LINK ===
    0x133d
=== CODE BLOCK END ===

=== CODE BLOCK ADDRESS 0x133d ===
  0x133d	nop    	dword ptr [eax + eax]
  0x1342	mov    	ebx, eax
  0x1344	call   	0x1878
  === BLOCK LINK ===
    0x1349
    0x1878
=== CODE BLOCK END ===

=== CODE BLOCK ADDRESS 0x1349 ===
  0x1349	mov    	ecx, ebx
  0x134b	dec    	eax
  0x134c	call   	dword ptr [0x2e2e]
  === BLOCK LINK ===
    0x1352
=== CODE BLOCK END ===

=== CODE BLOCK ADDRESS 0x1352 ===
  0x1352	nop    	dword ptr [eax + eax]
  0x1357	nop    	
  0x1358	int3   	
  0x1359	int3   	
  0x135a	int3   	
  === BLOCK LINK ===
    0x135b
=== CODE BLOCK END ===

=== CODE BLOCK ADDRESS 0x135b ===
  0x135b	int3   	
  0x135c	int3   	
  0x135d	int3   	
  0x135e	int3   	
  0x135f	int3   	
  === BLOCK LINK ===
    0x1360
=== CODE BLOCK END ===

=== CODE BLOCK ADDRESS 0x1360 ===
  0x1360	dec    	eax
  0x1361	mov    	dword ptr [esp + 8], ebx
  0x1365	push   	edi
  0x1366	dec    	eax
  0x1367	sub    	esp, 0x20
  === BLOCK LINK ===
    0x136a
=== CODE BLOCK END ===

=== CODE BLOCK ADDRESS 0x136a ===
  0x136a	dec    	eax
  0x136b	and    	dword ptr [ecx + 0x10], 0
  0x136f	dec    	eax
  0x1370	mov    	ebx, ecx
  0x1372	dec    	eax
  === BLOCK LINK ===
    0x1373
=== CODE BLOCK END ===

=== CODE BLOCK ADDRESS 0x1373 ===
  0x1373	and    	dword ptr [ecx + 8], 0
  0x1377	dec    	eax
  0x1378	and    	dword ptr [ecx], 0
  0x137b	xor    	eax, eax
  0x137d	.byte  	0xf0
  === BLOCK LINK ===
    0x137e
=== CODE BLOCK END ===

=== CODE BLOCK ADDRESS 0x137e ===
  0x137e	dec    	eax
  0x137f	cmpxchg  	dword ptr [0x525a], ebx
  0x1386	je     	0x13fd
  === BLOCK LINK ===
    0x1388
    0x13fd
=== CODE BLOCK END ===

=== CODE BLOCK ADDRESS 0x1388 ===
  0x1388	inc    	ebp
  0x1389	xor    	ecx, ecx
  0x138b	inc    	ebp
  0x138c	xor    	eax, eax
  0x138e	xor    	edx, edx
  === BLOCK LINK ===
    0x1390
=== CODE BLOCK END ===

=== CODE BLOCK ADDRESS 0x1390 ===
  0x1390	xor    	ecx, ecx
  0x1392	dec    	eax
  0x1393	call   	dword ptr [0x2e77]
  === BLOCK LINK ===
    0x1399
=== CODE BLOCK END ===

=== CODE BLOCK ADDRESS 0x1399 ===
  0x1399	nop    	dword ptr [eax + eax]
  0x139e	dec    	eax
  0x139f	mov    	dword ptr [ebx], eax
  0x13a1	dec    	eax
  0x13a2	test   	eax, eax
  === BLOCK LINK ===
    0x13a4
=== CODE BLOCK END ===

=== CODE BLOCK ADDRESS 0x13a4 ===
  0x13a4	je     	0x13f9
  === BLOCK LINK ===
    0x13a6
    0x13f9
=== CODE BLOCK END ===

=== CODE BLOCK ADDRESS 0x13a6 ===
  0x13a6	dec    	eax
  0x13a7	mov    	ecx, dword ptr [0x5233]
  0x13ad	dec    	eax
  0x13ae	mov    	dword ptr [ebx + 8], ecx
  0x13b1	dec    	eax
  === BLOCK LINK ===
    0x13b2
=== CODE BLOCK END ===

=== CODE BLOCK ADDRESS 0x13b2 ===
  0x13b2	mov    	eax, ecx
  0x13b4	.byte  	0xf0
  0x13b5	dec    	eax
  0x13b6	cmpxchg  	dword ptr [0x5223], ebx
  0x13bd	dec    	eax
  === BLOCK LINK ===
    0x13be
=== CODE BLOCK END ===

=== CODE BLOCK ADDRESS 0x13be ===
  0x13be	cmp    	ecx, eax
  0x13c0	jne    	0x13a6
  === BLOCK LINK ===
    0x13c2
    0x13a6
=== CODE BLOCK END ===

=== CODE BLOCK ADDRESS 0x13c2 ===
  0x13c2	dec    	eax
  0x13c3	test   	ecx, ecx
  0x13c5	je     	0x13e0
  === BLOCK LINK ===
    0x13c7
    0x13e0
=== CODE BLOCK END ===

=== CODE BLOCK ADDRESS 0x13c7 ===
  0x13c7	dec    	eax
  0x13c8	mov    	ecx, dword ptr [ebx]
  0x13ca	inc    	ebp
  0x13cb	xor    	eax, eax
  0x13cd	or     	edx, 0xffffffff
  === BLOCK LINK ===
    0x13d0
=== CODE BLOCK END ===

=== CODE BLOCK ADDRESS 0x13d0 ===
  0x13d0	dec    	eax
  0x13d1	call   	dword ptr [0x2e41]
  === BLOCK LINK ===
    0x13d7
=== CODE BLOCK END ===

=== CODE BLOCK ADDRESS 0x13d7 ===
  0x13d7	nop    	dword ptr [eax + eax]
  0x13dc	mov    	edi, eax
  0x13de	jmp    	0x13e2
  === BLOCK LINK ===
    0x13e0
=== CODE BLOCK END ===

=== CODE BLOCK ADDRESS 0x13e0 ===
  0x13e0	xor    	edi, edi
  0x13e2	dec    	eax
  0x13e3	mov    	ecx, dword ptr [ebx]
  0x13e5	dec    	eax
  0x13e6	call   	dword ptr [0x2e34]
  === BLOCK LINK ===
    0x13ec
=== CODE BLOCK END ===

=== CODE BLOCK ADDRESS 0x13ec ===
  0x13ec	nop    	dword ptr [eax + eax]
  0x13f1	dec    	eax
  0x13f2	and    	dword ptr [ebx], 0
  0x13f5	test   	edi, edi
  0x13f7	je     	0x13fd
  === BLOCK LINK ===
    0x13f9
=== CODE BLOCK END ===

=== CODE BLOCK ADDRESS 0x13f9 ===
  0x13f9	xor    	eax, eax
  0x13fb	jmp    	0x1402
  === BLOCK LINK ===
    0x13fd
=== CODE BLOCK END ===

=== CODE BLOCK ADDRESS 0x13fd ===
  0x13fd	mov    	eax, 1
  0x1402	dec    	eax
  0x1403	mov    	ebx, dword ptr [esp + 0x30]
  0x1407	dec    	eax
  0x1408	add    	esp, 0x20
  === BLOCK LINK ===
    0x140b
=== CODE BLOCK END ===

=== CODE BLOCK ADDRESS 0x140b ===
  0x140b	pop    	edi
  0x140c	ret    	
  0x140d	int3   	
  0x140e	int3   	
  0x140f	int3   	
  === BLOCK LINK ===
    0x1410
=== CODE BLOCK END ===

=== CODE BLOCK ADDRESS 0x1410 ===
  0x1410	int3   	
  0x1411	int3   	
  0x1412	int3   	
  0x1413	int3   	
  0x1414	dec    	esp
  === BLOCK LINK ===
    0x1415
=== CODE BLOCK END ===

=== CODE BLOCK ADDRESS 0x1415 ===
  0x1415	mov    	eax, ecx
  0x1417	dec    	eax
  0x1418	mov    	ecx, dword ptr [ecx + 0x10]
  0x141b	dec    	eax
  0x141c	test   	ecx, ecx
  === BLOCK LINK ===
    0x141e
=== CODE BLOCK END ===

=== CODE BLOCK ADDRESS 0x141e ===
  0x141e	jne    	0x143a
  === BLOCK LINK ===
    0x1420
=== CODE BLOCK END ===

=== CODE BLOCK ADDRESS 0x1420 ===
  0x1420	dec    	ecx
  0x1421	cmp    	edx, eax
  0x1423	je     	0x143a
  === BLOCK LINK ===
    0x1425
=== CODE BLOCK END ===

=== CODE BLOCK ADDRESS 0x1425 ===
  0x1425	dec    	eax
  0x1426	mov    	eax, dword ptr [edx + 8]
  0x1429	dec    	eax
  0x142a	mov    	dword ptr [eax + 0x10], edx
  0x142d	dec    	eax
  === BLOCK LINK ===
    0x142e
=== CODE BLOCK END ===

=== CODE BLOCK ADDRESS 0x142e ===
  0x142e	mov    	edx, dword ptr [edx + 8]
  0x1431	dec    	ecx
  0x1432	cmp    	edx, eax
  0x1434	jne    	0x1425
  === BLOCK LINK ===
    0x1436
=== CODE BLOCK END ===

=== CODE BLOCK ADDRESS 0x1436 ===
  0x1436	dec    	ecx
  0x1437	mov    	ecx, dword ptr [eax + 0x10]
  0x143a	dec    	eax
  0x143b	and    	dword ptr [ecx + 8], 0
  0x143f	dec    	eax
  === BLOCK LINK ===
    0x1440
=== CODE BLOCK END ===

=== CODE BLOCK ADDRESS 0x1440 ===
  0x1440	mov    	ecx, dword ptr [ecx]
  0x1442	dec    	eax
  0x1443	jmp    	dword ptr [0x2ddf]
  === BLOCK LINK ===
    0x1449
=== CODE BLOCK END ===

=== CODE BLOCK ADDRESS 0x1449 ===
  0x1449	int3   	
  0x144a	int3   	
  0x144b	int3   	
  0x144c	int3   	
  0x144d	int3   	
  === BLOCK LINK ===
    0x144e
=== CODE BLOCK END ===

=== CODE BLOCK ADDRESS 0x144e ===
  0x144e	int3   	
  0x144f	int3   	
  0x1450	int3   	
  0x1451	int3   	
  0x1452	int3   	
  === BLOCK LINK ===
    0x1453
=== CODE BLOCK END ===

=== CODE BLOCK ADDRESS 0x1453 ===
  0x1453	int3   	
  0x1454	dec    	eax
  0x1455	mov    	dword ptr [esp + 0x18], ebx
  0x1459	dec    	eax
  0x145a	mov    	dword ptr [esp + 0x20], esi
  === BLOCK LINK ===
    0x145e
=== CODE BLOCK END ===

=== CODE BLOCK ADDRESS 0x145e ===
  0x145e	push   	edi
  0x145f	dec    	eax
  0x1460	sub    	esp, 0x260
  0x1466	dec    	eax
  0x1467	mov    	eax, dword ptr [0x4b9b]
  === BLOCK LINK ===
    0x146d
=== CODE BLOCK END ===

=== CODE BLOCK ADDRESS 0x146d ===
  0x146d	dec    	eax
  0x146e	xor    	eax, esp
  0x1470	dec    	eax
  0x1471	mov    	dword ptr [esp + 0x250], eax
  0x1478	and    	dword ptr [esp + 0x30], 0
  === BLOCK LINK ===
    0x147d
=== CODE BLOCK END ===

=== CODE BLOCK ADDRESS 0x147d ===
  0x147d	dec    	eax
  0x147e	mov    	ebx, edx
  0x1480	dec    	eax
  0x1481	mov    	esi, ecx
  0x1483	dec    	eax
  === BLOCK LINK ===
    0x1484
=== CODE BLOCK END ===

=== CODE BLOCK ADDRESS 0x1484 ===
  0x1484	mov    	dword ptr [esp + 0x20], ecx
  0x1488	dec    	eax
  0x1489	lea    	edx, [0x2fc1]
  0x148f	mov    	dword ptr [esp + 0x34], 0x208
  0x1497	dec    	eax
  === BLOCK LINK ===
    0x1498
=== CODE BLOCK END ===

=== CODE BLOCK ADDRESS 0x1498 ===
  0x1498	mov    	ecx, 0x80000002
  0x149e	inc    	ecx
  0x149f	mov    	ecx, 1
  0x14a4	call   	0x1d6c
  === BLOCK LINK ===
    0x14a9
=== CODE BLOCK END ===

=== CODE BLOCK ADDRESS 0x14a9 ===
  0x14a9	mov    	edi, eax
  0x14ab	test   	eax, eax
  0x14ad	jne    	0x1504
  === BLOCK LINK ===
    0x14af
=== CODE BLOCK END ===

=== CODE BLOCK ADDRESS 0x14af ===
  0x14af	dec    	eax
  0x14b0	test   	ebx, ebx
  0x14b2	je     	0x1504
  === BLOCK LINK ===
    0x14b4
=== CODE BLOCK END ===

=== CODE BLOCK ADDRESS 0x14b4 ===
  0x14b4	dec    	eax
  0x14b5	mov    	ecx, dword ptr [esi]
  0x14b7	dec    	eax
  0x14b8	lea    	eax, [esp + 0x34]
  0x14bc	dec    	esp
  === BLOCK LINK ===
    0x14bd
=== CODE BLOCK END ===

=== CODE BLOCK ADDRESS 0x14bd ===
  0x14bd	lea    	ecx, [esp + 0x40]
  0x14c1	dec    	eax
  0x14c2	mov    	dword ptr [esp + 0x20], eax
  0x14c6	dec    	esp
  0x14c7	lea    	eax, [esp + 0x30]
  === BLOCK LINK ===
    0x14cb
=== CODE BLOCK END ===

=== CODE BLOCK ADDRESS 0x14cb ===
  0x14cb	dec    	eax
  0x14cc	lea    	edx, [0x2fde]
  0x14d2	call   	0x1e64
  === BLOCK LINK ===
    0x14d7
=== CODE BLOCK END ===

=== CODE BLOCK ADDRESS 0x14d7 ===
  0x14d7	test   	eax, eax
  0x14d9	jne    	0x1500
  === BLOCK LINK ===
    0x14db
=== CODE BLOCK END ===

=== CODE BLOCK ADDRESS 0x14db ===
  0x14db	cmp    	dword ptr [esp + 0x30], 1
  0x14e0	jne    	0x1500
  === BLOCK LINK ===
    0x14e2
=== CODE BLOCK END ===

=== CODE BLOCK ADDRESS 0x14e2 ===
  0x14e2	inc    	esp
  0x14e3	lea    	ecx, [edi + 1]
  0x14e6	dec    	eax
  0x14e7	mov    	dword ptr [esp + 0x20], ebx
  0x14eb	dec    	eax
  === BLOCK LINK ===
    0x14ec
=== CODE BLOCK END ===

=== CODE BLOCK ADDRESS 0x14ec ===
  0x14ec	lea    	edx, [esp + 0x40]
  0x14f0	dec    	eax
  0x14f1	mov    	ecx, 0x80000002
  0x14f7	call   	0x1d6c
  === BLOCK LINK ===
    0x14fc
=== CODE BLOCK END ===

=== CODE BLOCK ADDRESS 0x14fc ===
  0x14fc	test   	eax, eax
  0x14fe	je     	0x1504
  === BLOCK LINK ===
    0x1500
=== CODE BLOCK END ===

=== CODE BLOCK ADDRESS 0x1500 ===
  0x1500	dec    	eax
  0x1501	and    	dword ptr [ebx], 0
  0x1504	mov    	eax, edi
  0x1506	dec    	eax
  0x1507	mov    	ecx, dword ptr [esp + 0x250]
  === BLOCK LINK ===
    0x150e
=== CODE BLOCK END ===

=== CODE BLOCK ADDRESS 0x150e ===
  0x150e	dec    	eax
  0x150f	xor    	ecx, esp
  0x1511	call   	0x2b40
  === BLOCK LINK ===
    0x1516
=== CODE BLOCK END ===

=== CODE BLOCK ADDRESS 0x1516 ===
  0x1516	dec    	esp
  0x1517	lea    	ebx, [esp + 0x260]
  0x151e	dec    	ecx
  0x151f	mov    	ebx, dword ptr [ebx + 0x20]
  0x1522	dec    	ecx
  === BLOCK LINK ===
    0x1523
=== CODE BLOCK END ===

=== CODE BLOCK ADDRESS 0x1523 ===
  0x1523	mov    	esi, dword ptr [ebx + 0x28]
  0x1526	dec    	ecx
  0x1527	mov    	esp, ebx
  0x1529	pop    	edi
  0x152a	ret    	
  === BLOCK LINK ===
    0x152b
=== CODE BLOCK END ===

=== CODE BLOCK ADDRESS 0x152b ===
  0x152b	int3   	
  0x152c	int3   	
  0x152d	int3   	
  0x152e	int3   	
  0x152f	int3   	
  === BLOCK LINK ===
    0x1530
=== CODE BLOCK END ===

=== CODE BLOCK ADDRESS 0x1530 ===
  0x1530	int3   	
  0x1531	int3   	
  0x1532	int3   	
  0x1533	int3   	
  0x1534	dec    	esp
  === BLOCK LINK ===
    0x1535
=== CODE BLOCK END ===

=== CODE BLOCK ADDRESS 0x1535 ===
  0x1535	mov    	ebx, esp
  0x1537	dec    	ecx
  0x1538	mov    	dword ptr [ebx + 8], ebx
  0x153b	dec    	ecx
  0x153c	mov    	dword ptr [ebx + 0x18], ebp
  === BLOCK LINK ===
    0x153f
=== CODE BLOCK END ===

=== CODE BLOCK ADDRESS 0x153f ===
  0x153f	dec    	ecx
  0x1540	mov    	dword ptr [ebx + 0x20], esi
  0x1543	push   	edi
  0x1544	dec    	eax
  0x1545	sub    	esp, 0x30
  === BLOCK LINK ===
    0x1548
=== CODE BLOCK END ===

=== CODE BLOCK ADDRESS 0x1548 ===
  0x1548	xor    	ebx, ebx
  0x154a	dec    	ecx
  0x154b	mov    	edi, ecx
  0x154d	and    	dword ptr [esp + 0x48], ebx
  0x1551	dec    	ecx
  === BLOCK LINK ===
    0x1552
=== CODE BLOCK END ===

=== CODE BLOCK ADDRESS 0x1552 ===
  0x1552	mov    	esi, eax
  0x1554	dec    	eax
  0x1555	mov    	eax, edx
  0x1557	dec    	eax
  0x1558	mov    	ebp, ecx
  === BLOCK LINK ===
    0x155a
=== CODE BLOCK END ===

=== CODE BLOCK ADDRESS 0x155a ===
  0x155a	dec    	eax
  0x155b	test   	edx, edx
  0x155d	je     	0x1584
  === BLOCK LINK ===
    0x155f
=== CODE BLOCK END ===

=== CODE BLOCK ADDRESS 0x155f ===
  0x155f	dec    	ebp
  0x1560	mov    	dword ptr [ebx - 0x18], ecx
  0x1563	dec    	eax
  0x1564	lea    	edx, [0x2f66]
  0x156a	dec    	ebp
  === BLOCK LINK ===
    0x156b
=== CODE BLOCK END ===

=== CODE BLOCK ADDRESS 0x156b ===
  0x156b	mov    	ecx, eax
  0x156d	dec    	eax
  0x156e	mov    	ecx, eax
  0x1570	dec    	ebp
  0x1571	lea    	eax, [ebx + 0x10]
  === BLOCK LINK ===
    0x1574
=== CODE BLOCK END ===

=== CODE BLOCK ADDRESS 0x1574 ===
  0x1574	call   	0x1e64
  === BLOCK LINK ===
    0x1579
=== CODE BLOCK END ===

=== CODE BLOCK ADDRESS 0x1579 ===
  0x1579	test   	eax, eax
  0x157b	jne    	0x1584
  === BLOCK LINK ===
    0x157d
=== CODE BLOCK END ===

=== CODE BLOCK ADDRESS 0x157d ===
  0x157d	cmp    	dword ptr [esp + 0x48], 1
  0x1582	je     	0x15b9
  === BLOCK LINK ===
    0x1584
=== CODE BLOCK END ===

=== CODE BLOCK ADDRESS 0x1584 ===
  0x1584	mov    	eax, dword ptr [esp + 0x60]
  0x1588	dec    	esp
  0x1589	lea    	eax, [esp + 0x48]
  0x158d	dec    	esp
  0x158e	mov    	ecx, esi
  === BLOCK LINK ===
    0x1590
=== CODE BLOCK END ===

=== CODE BLOCK ADDRESS 0x1590 ===
  0x1590	mov    	dword ptr [edi], eax
  0x1592	dec    	eax
  0x1593	lea    	edx, [0x2f37]
  0x1599	dec    	eax
  0x159a	mov    	dword ptr [esp + 0x20], edi
  === BLOCK LINK ===
    0x159e
=== CODE BLOCK END ===

=== CODE BLOCK ADDRESS 0x159e ===
  0x159e	dec    	eax
  0x159f	mov    	ecx, ebp
  0x15a1	call   	0x1e64
  === BLOCK LINK ===
    0x15a6
=== CODE BLOCK END ===

=== CODE BLOCK ADDRESS 0x15a6 ===
  0x15a6	mov    	ebx, eax
  0x15a8	test   	eax, eax
  0x15aa	jne    	0x15b9
  === BLOCK LINK ===
    0x15ac
=== CODE BLOCK END ===

=== CODE BLOCK ADDRESS 0x15ac ===
  0x15ac	cmp    	dword ptr [esp + 0x48], 1
  0x15b1	mov    	eax, 0x65d
  0x15b6	cmovne  	ebx, eax
  0x15b9	dec    	eax
  0x15ba	mov    	ebp, dword ptr [esp + 0x50]
  === BLOCK LINK ===
    0x15be
=== CODE BLOCK END ===

=== CODE BLOCK ADDRESS 0x15be ===
  0x15be	mov    	eax, ebx
  0x15c0	dec    	eax
  0x15c1	mov    	ebx, dword ptr [esp + 0x40]
  0x15c5	dec    	eax
  0x15c6	mov    	esi, dword ptr [esp + 0x58]
  === BLOCK LINK ===
    0x15ca
=== CODE BLOCK END ===

=== CODE BLOCK ADDRESS 0x15ca ===
  0x15ca	dec    	eax
  0x15cb	add    	esp, 0x30
  0x15ce	pop    	edi
  0x15cf	ret    	
  0x15d0	int3   	
  === BLOCK LINK ===
    0x15d1
=== CODE BLOCK END ===

=== CODE BLOCK ADDRESS 0x15d1 ===
  0x15d1	int3   	
  0x15d2	int3   	
  0x15d3	int3   	
  0x15d4	int3   	
  0x15d5	int3   	
  === BLOCK LINK ===
    0x15d6
=== CODE BLOCK END ===

=== CODE BLOCK ADDRESS 0x15d6 ===
  0x15d6	int3   	
  0x15d7	int3   	
  0x15d8	dec    	eax
  0x15d9	mov    	eax, esp
  0x15db	dec    	eax
  === BLOCK LINK ===
    0x15dc
=== CODE BLOCK END ===

=== CODE BLOCK ADDRESS 0x15dc ===
  0x15dc	mov    	dword ptr [eax + 8], ebx
  0x15df	dec    	eax
  0x15e0	mov    	dword ptr [eax + 0x10], edi
  0x15e3	dec    	esp
  0x15e4	mov    	dword ptr [eax + 0x18], esi
  === BLOCK LINK ===
    0x15e7
=== CODE BLOCK END ===

=== CODE BLOCK ADDRESS 0x15e7 ===
  0x15e7	push   	ebp
  0x15e8	dec    	eax
  0x15e9	lea    	ebp, [eax - 0x388]
  0x15ef	dec    	eax
  0x15f0	sub    	esp, 0x480
  === BLOCK LINK ===
    0x15f6
=== CODE BLOCK END ===

=== CODE BLOCK ADDRESS 0x15f6 ===
  0x15f6	dec    	eax
  0x15f7	mov    	eax, dword ptr [0x4a0b]
  0x15fd	dec    	eax
  0x15fe	xor    	eax, esp
  0x1600	dec    	eax
  === BLOCK LINK ===
    0x1601
=== CODE BLOCK END ===

=== CODE BLOCK ADDRESS 0x1601 ===
  0x1601	mov    	dword ptr [ebp + 0x370], eax
  0x1607	xor    	ebx, ebx
  0x1609	mov    	dword ptr [esp + 0x40], 0x208
  0x1611	dec    	eax
  0x1612	lea    	edx, [esp + 0x38]
  === BLOCK LINK ===
    0x1616
=== CODE BLOCK END ===

=== CODE BLOCK ADDRESS 0x1616 ===
  0x1616	dec    	eax
  0x1617	mov    	dword ptr [esp + 0x30], ebx
  0x161b	dec    	eax
  0x161c	lea    	ecx, [esp + 0x30]
  0x1620	dec    	eax
  === BLOCK LINK ===
    0x1621
=== CODE BLOCK END ===

=== CODE BLOCK ADDRESS 0x1621 ===
  0x1621	mov    	dword ptr [esp + 0x38], ebx
  0x1625	call   	0x1454
  === BLOCK LINK ===
    0x162a
=== CODE BLOCK END ===

=== CODE BLOCK ADDRESS 0x162a ===
  0x162a	mov    	edi, eax
  0x162c	test   	eax, eax
  0x162e	jne    	0x16c9
  === BLOCK LINK ===
    0x1634
=== CODE BLOCK END ===

=== CODE BLOCK ADDRESS 0x1634 ===
  0x1634	dec    	eax
  0x1635	cmp    	dword ptr [esp + 0x30], ebx
  0x1639	jne    	0x1640
  === BLOCK LINK ===
    0x163b
=== CODE BLOCK END ===

=== CODE BLOCK ADDRESS 0x163b ===
  0x163b	lea    	edi, [ebx + 0x57]
  0x163e	jmp    	0x1665
  === BLOCK LINK ===
    0x1640
=== CODE BLOCK END ===

=== CODE BLOCK ADDRESS 0x1640 ===
  0x1640	dec    	eax
  0x1641	mov    	edx, dword ptr [esp + 0x38]
  0x1645	dec    	esp
  0x1646	lea    	ecx, [esp + 0x40]
  0x164a	dec    	eax
  === BLOCK LINK ===
    0x164b
=== CODE BLOCK END ===

=== CODE BLOCK ADDRESS 0x164b ===
  0x164b	mov    	ecx, dword ptr [esp + 0x30]
  0x164f	dec    	esp
  0x1650	lea    	eax, [ebp + 0x160]
  0x1656	mov    	dword ptr [esp + 0x20], 0x208
  0x165e	call   	0x1534
  === BLOCK LINK ===
    0x1663
=== CODE BLOCK END ===

=== CODE BLOCK ADDRESS 0x1663 ===
  0x1663	mov    	edi, eax
  0x1665	test   	edi, edi
  0x1667	jne    	0x169b
  === BLOCK LINK ===
    0x1669
=== CODE BLOCK END ===

=== CODE BLOCK ADDRESS 0x1669 ===
  0x1669	mov    	edi, 0x104
  0x166e	dec    	eax
  0x166f	lea    	edx, [esp + 0x50]
  0x1673	inc    	esp
  0x1674	mov    	eax, edi
  === BLOCK LINK ===
    0x1676
=== CODE BLOCK END ===

=== CODE BLOCK ADDRESS 0x1676 ===
  0x1676	dec    	eax
  0x1677	lea    	ecx, [ebp + 0x160]
  0x167d	dec    	eax
  0x167e	call   	dword ptr [0x2bac]
  === BLOCK LINK ===
    0x1684
=== CODE BLOCK END ===

=== CODE BLOCK ADDRESS 0x1684 ===
  0x1684	nop    	dword ptr [eax + eax]
  0x1689	test   	eax, eax
  0x168b	jne    	0x1707
  === BLOCK LINK ===
    0x168d
=== CODE BLOCK END ===

=== CODE BLOCK ADDRESS 0x168d ===
  0x168d	dec    	eax
  0x168e	call   	dword ptr [0x2b0c]
  === BLOCK LINK ===
    0x1694
=== CODE BLOCK END ===

=== CODE BLOCK ADDRESS 0x1694 ===
  0x1694	nop    	dword ptr [eax + eax]
  0x1699	mov    	edi, eax
  0x169b	dec    	eax
  0x169c	cmp    	dword ptr [esp + 0x30], ebx
  0x16a0	je     	0x16b2
  === BLOCK LINK ===
    0x16a2
=== CODE BLOCK END ===

=== CODE BLOCK ADDRESS 0x16a2 ===
  0x16a2	mov    	ecx, dword ptr [esp + 0x30]
  0x16a6	dec    	eax
  0x16a7	call   	dword ptr [0x2c8b]
  === BLOCK LINK ===
    0x16ad
=== CODE BLOCK END ===

=== CODE BLOCK ADDRESS 0x16ad ===
  0x16ad	nop    	dword ptr [eax + eax]
  0x16b2	dec    	eax
  0x16b3	cmp    	dword ptr [esp + 0x38], ebx
  0x16b7	je     	0x16c9
  === BLOCK LINK ===
    0x16b9
=== CODE BLOCK END ===

=== CODE BLOCK ADDRESS 0x16b9 ===
  0x16b9	mov    	ecx, dword ptr [esp + 0x38]
  0x16bd	dec    	eax
  0x16be	call   	dword ptr [0x2c74]
  === BLOCK LINK ===
    0x16c4
=== CODE BLOCK END ===

=== CODE BLOCK ADDRESS 0x16c4 ===
  0x16c4	nop    	dword ptr [eax + eax]
  0x16c9	mov    	ecx, edi
  0x16cb	dec    	eax
  0x16cc	call   	dword ptr [0x2b66]
  === BLOCK LINK ===
    0x16d2
=== CODE BLOCK END ===

=== CODE BLOCK ADDRESS 0x16d2 ===
  0x16d2	nop    	dword ptr [eax + eax]
  0x16d7	test   	edi, edi
  0x16d9	sete   	bl
  0x16dc	mov    	eax, ebx
  0x16de	dec    	eax
  === BLOCK LINK ===
    0x16df
=== CODE BLOCK END ===

=== CODE BLOCK ADDRESS 0x16df ===
  0x16df	mov    	ecx, dword ptr [ebp + 0x370]
  0x16e5	dec    	eax
  0x16e6	xor    	ecx, esp
  0x16e8	call   	0x2b40
  === BLOCK LINK ===
    0x16ed
=== CODE BLOCK END ===

=== CODE BLOCK ADDRESS 0x16ed ===
  0x16ed	dec    	esp
  0x16ee	lea    	ebx, [esp + 0x480]
  0x16f5	dec    	ecx
  0x16f6	mov    	ebx, dword ptr [ebx + 0x10]
  0x16f9	dec    	ecx
  === BLOCK LINK ===
    0x16fa
=== CODE BLOCK END ===

=== CODE BLOCK ADDRESS 0x16fa ===
  0x16fa	mov    	edi, dword ptr [ebx + 0x18]
  0x16fd	dec    	ebp
  0x16fe	mov    	esi, dword ptr [ebx + 0x20]
  0x1701	dec    	ecx
  0x1702	mov    	esp, ebx
  === BLOCK LINK ===
    0x1704
=== CODE BLOCK END ===

=== CODE BLOCK ADDRESS 0x1704 ===
  0x1704	pop    	ebp
  0x1705	ret    	
  0x1706	int3   	
  0x1707	cmp    	eax, edi
  0x1709	jbe    	0x1712
  === BLOCK LINK ===
    0x170b
=== CODE BLOCK END ===

=== CODE BLOCK ADDRESS 0x1145 ===
  0x1145	mov    	eax, ebx
  0x1147	dec    	eax
  0x1148	mov    	ebx, dword ptr [esp + 0x30]
  0x114c	dec    	eax
  === BLOCK LINK ===
    0x114d
=== CODE BLOCK END ===

=== CODE BLOCK ADDRESS 0x170b ===
  0x170b	mov    	edi, 0x7a
  0x1710	jmp    	0x169b
  === BLOCK LINK ===
    0x1712
=== CODE BLOCK END ===

=== CODE BLOCK ADDRESS 0x1712 ===
  0x1712	dec    	eax
  0x1713	lea    	eax, [esp + 0x50]
  0x1717	dec    	ecx
  0x1718	or     	esi, 0xffffffff
  0x171b	dec    	ecx
  === BLOCK LINK ===
    0x171c
=== CODE BLOCK END ===

=== CODE BLOCK ADDRESS 0x171c ===
  0x171c	inc    	esi
  0x171e	inc    	dx
  0x1720	cmp    	dword ptr [eax + esi*2], ebx
  0x1723	jne    	0x171b
  === BLOCK LINK ===
    0x1725
=== CODE BLOCK END ===

=== CODE BLOCK ADDRESS 0x1725 ===
  0x1725	inc    	esp
  0x1726	mov    	eax, edi
  0x1728	dec    	eax
  0x1729	lea    	edx, [0x2db1]
  0x172f	dec    	eax
  === BLOCK LINK ===
    0x1730
=== CODE BLOCK END ===

=== CODE BLOCK ADDRESS 0x1730 ===
  0x1730	lea    	ecx, [esp + 0x50]
  0x1734	call   	0x2064
  === BLOCK LINK ===
    0x1739
=== CODE BLOCK END ===

=== CODE BLOCK ADDRESS 0x1739 ===
  0x1739	test   	eax, eax
  0x173b	je     	0x168d
  === BLOCK LINK ===
    0x1741
=== CODE BLOCK END ===

=== CODE BLOCK ADDRESS 0x1741 ===
  0x1741	dec    	eax
  0x1742	lea    	ecx, [esp + 0x50]
  0x1746	call   	0x22e4
  === BLOCK LINK ===
    0x174b
=== CODE BLOCK END ===

=== CODE BLOCK ADDRESS 0x174b ===
  0x174b	mov    	edi, eax
  0x174d	test   	eax, eax
  0x174f	jne    	0x169b
  === BLOCK LINK ===
    0x1755
=== CODE BLOCK END ===

=== CODE BLOCK ADDRESS 0x1755 ===
  0x1755	inc    	ecx
  0x1756	mov    	eax, esi
  0x1758	dec    	eax
  0x1759	add    	eax, eax
  0x175b	dec    	eax
  === BLOCK LINK ===
    0x175c
=== CODE BLOCK END ===

=== CODE BLOCK ADDRESS 0x175c ===
  0x175c	cmp    	eax, 0x208
  0x1761	jae    	0x1794
  === BLOCK LINK ===
    0x1763
=== CODE BLOCK END ===

=== CODE BLOCK ADDRESS 0x1763 ===
  0x1763	lea    	edx, [edi + 1]
  0x1766	mov    	word ptr [esp + eax + 0x50], bx
  0x176b	dec    	eax
  0x176c	lea    	ecx, [esp + 0x50]
  0x1770	call   	0x2518
  === BLOCK LINK ===
    0x1775
=== CODE BLOCK END ===

=== CODE BLOCK ADDRESS 0x1775 ===
  0x1775	test   	eax, eax
  0x1777	je     	0x168d
  === BLOCK LINK ===
    0x177d
=== CODE BLOCK END ===

=== CODE BLOCK ADDRESS 0x177d ===
  0x177d	dec    	eax
  0x177e	lea    	ecx, [esp + 0x50]
  0x1782	call   	0x2688
  === BLOCK LINK ===
    0x1787
=== CODE BLOCK END ===

=== CODE BLOCK ADDRESS 0x1787 ===
  0x1787	test   	eax, eax
  0x1789	jne    	0x169b
  === BLOCK LINK ===
    0x178f
=== CODE BLOCK END ===

=== CODE BLOCK ADDRESS 0x178f ===
  0x178f	jmp    	0x168d
  === BLOCK LINK ===
    0x1794
=== CODE BLOCK END ===

=== CODE BLOCK ADDRESS 0x1794 ===
  0x1794	call   	0x3038
  === BLOCK LINK ===
    0x1799
=== CODE BLOCK END ===

=== CODE BLOCK ADDRESS 0x1799 ===
  0x1799	int3   	
  0x179a	int3   	
  0x179b	int3   	
  0x179c	int3   	
  0x179d	int3   	
  === BLOCK LINK ===
    0x179e
=== CODE BLOCK END ===

=== CODE BLOCK ADDRESS 0x179e ===
  0x179e	int3   	
  0x179f	int3   	
  0x17a0	dec    	eax
  0x17a1	mov    	dword ptr [esp + 8], ebx
  0x17a5	dec    	eax
  === BLOCK LINK ===
    0x17a6
=== CODE BLOCK END ===

=== CODE BLOCK ADDRESS 0x17a6 ===
  0x17a6	mov    	dword ptr [esp + 0x18], esi
  0x17aa	push   	edi
  0x17ab	dec    	eax
  0x17ac	sub    	esp, 0x240
  0x17b2	dec    	eax
  === BLOCK LINK ===
    0x17b3
=== CODE BLOCK END ===

=== CODE BLOCK ADDRESS 0x17b3 ===
  0x17b3	mov    	eax, dword ptr [0x484f]
  0x17b9	dec    	eax
  0x17ba	xor    	eax, esp
  0x17bc	dec    	eax
  0x17bd	mov    	dword ptr [esp + 0x230], eax
  === BLOCK LINK ===
    0x17c4
=== CODE BLOCK END ===

=== CODE BLOCK ADDRESS 0x17c4 ===
  0x17c4	xor    	edi, edi
  0x17c6	mov    	esi, edx
  0x17c8	mov    	ebx, edi
  0x17ca	dec    	eax
  0x17cb	test   	ecx, ecx
  === BLOCK LINK ===
    0x17cd
=== CODE BLOCK END ===

=== CODE BLOCK ADDRESS 0x17cd ===
  0x17cd	jne    	0x17d6
  === BLOCK LINK ===
    0x17cf
=== CODE BLOCK END ===

=== CODE BLOCK ADDRESS 0x17cf ===
  0x17cf	mov    	ebx, 0x57
  0x17d4	jmp    	0x1833
  === BLOCK LINK ===
    0x17d6
=== CODE BLOCK END ===

=== CODE BLOCK ADDRESS 0x17d6 ===
  0x17d6	dec    	esp
  0x17d7	mov    	eax, ecx
  0x17d9	mov    	edx, 0x104
  0x17de	dec    	eax
  0x17df	lea    	ecx, [esp + 0x20]
  === BLOCK LINK ===
    0x17e3
=== CODE BLOCK END ===

=== CODE BLOCK ADDRESS 0x17e3 ===
  0x17e3	call   	0x1ac0
  === BLOCK LINK ===
    0x17e8
=== CODE BLOCK END ===

=== CODE BLOCK ADDRESS 0x17e8 ===
  0x17e8	test   	eax, eax
  0x17ea	js     	0x17cf
  === BLOCK LINK ===
    0x17ec
=== CODE BLOCK END ===

=== CODE BLOCK ADDRESS 0x17ec ===
  0x17ec	inc    	ecx
  0x17ed	mov    	eax, 0x104
  0x17f2	dec    	eax
  0x17f3	lea    	edx, [0x2d0f]
  0x17f9	dec    	eax
  === BLOCK LINK ===
    0x17fa
=== CODE BLOCK END ===

=== CODE BLOCK ADDRESS 0x17fa ===
  0x17fa	lea    	ecx, [esp + 0x20]
  0x17fe	call   	0x2064
  === BLOCK LINK ===
    0x1803
=== CODE BLOCK END ===

=== CODE BLOCK ADDRESS 0x1803 ===
  0x1803	test   	eax, eax
  0x1805	je     	0x1825
  === BLOCK LINK ===
    0x1807
=== CODE BLOCK END ===

=== CODE BLOCK ADDRESS 0x1807 ===
  0x1807	mov    	edx, esi
  0x1809	dec    	eax
  0x180a	lea    	ecx, [esp + 0x20]
  0x180e	call   	0x2518
  === BLOCK LINK ===
    0x1813
=== CODE BLOCK END ===

=== CODE BLOCK ADDRESS 0x1813 ===
  0x1813	test   	eax, eax
  0x1815	je     	0x1825
  === BLOCK LINK ===
    0x1817
=== CODE BLOCK END ===

=== CODE BLOCK ADDRESS 0x1817 ===
  0x1817	dec    	eax
  0x1818	lea    	ecx, [esp + 0x20]
  0x181c	call   	0x2688
  === BLOCK LINK ===
    0x1821
=== CODE BLOCK END ===

=== CODE BLOCK ADDRESS 0x1821 ===
  0x1821	test   	eax, eax
  0x1823	jne    	0x1833
  === BLOCK LINK ===
    0x1825
=== CODE BLOCK END ===

=== CODE BLOCK ADDRESS 0x1825 ===
  0x1825	dec    	eax
  0x1826	call   	dword ptr [0x2974]
  === BLOCK LINK ===
    0x182c
=== CODE BLOCK END ===

=== CODE BLOCK ADDRESS 0x182c ===
  0x182c	nop    	dword ptr [eax + eax]
  0x1831	mov    	ebx, eax
  0x1833	mov    	ecx, ebx
  0x1835	dec    	eax
  0x1836	call   	dword ptr [0x29fc]
  === BLOCK LINK ===
    0x183c
=== CODE BLOCK END ===

=== CODE BLOCK ADDRESS 0x183c ===
  0x183c	nop    	dword ptr [eax + eax]
  0x1841	test   	ebx, ebx
  0x1843	inc    	eax
  0x1844	sete   	bh
  0x1847	mov    	eax, edi
  === BLOCK LINK ===
    0x1849
=== CODE BLOCK END ===

=== CODE BLOCK ADDRESS 0x1849 ===
  0x1849	dec    	eax
  0x184a	mov    	ecx, dword ptr [esp + 0x230]
  0x1851	dec    	eax
  0x1852	xor    	ecx, esp
  0x1854	call   	0x2b40
  === BLOCK LINK ===
    0x1859
=== CODE BLOCK END ===

=== CODE BLOCK ADDRESS 0x1859 ===
  0x1859	dec    	esp
  0x185a	lea    	ebx, [esp + 0x240]
  0x1861	dec    	ecx
  0x1862	mov    	ebx, dword ptr [ebx + 0x10]
  0x1865	dec    	ecx
  === BLOCK LINK ===
    0x1866
=== CODE BLOCK END ===

=== CODE BLOCK ADDRESS 0x1866 ===
  0x1866	mov    	esi, dword ptr [ebx + 0x20]
  0x1869	dec    	ecx
  0x186a	mov    	esp, ebx
  0x186c	pop    	edi
  0x186d	ret    	
  === BLOCK LINK ===
    0x186e
=== CODE BLOCK END ===

=== CODE BLOCK ADDRESS 0x186e ===
  0x186e	int3   	
  0x186f	int3   	
  0x1870	int3   	
  0x1871	int3   	
  0x1872	int3   	
  === BLOCK LINK ===
    0x1873
=== CODE BLOCK END ===

=== CODE BLOCK ADDRESS 0x1873 ===
  0x1873	int3   	
  0x1874	int3   	
  0x1875	int3   	
  0x1876	int3   	
  0x1877	int3   	
  === BLOCK LINK ===
    0x1878
=== CODE BLOCK END ===

=== CODE BLOCK ADDRESS 0x1878 ===
  0x1878	inc    	eax
  0x1879	push   	ebx
  0x187a	dec    	eax
  0x187b	sub    	esp, 0x40
  0x187e	xor    	ebx, ebx
  === BLOCK LINK ===
    0x1880
=== CODE BLOCK END ===

=== CODE BLOCK ADDRESS 0x1880 ===
  0x1880	cmp    	dword ptr [0x4d72], ebx
  0x1886	je     	0x196e
  === BLOCK LINK ===
    0x188c
=== CODE BLOCK END ===

=== CODE BLOCK ADDRESS 0x188c ===
  0x188c	dec    	eax
  0x188d	lea    	ecx, [esp + 0x20]
  0x1891	call   	0x1360
  === BLOCK LINK ===
    0x1896
=== CODE BLOCK END ===

=== CODE BLOCK ADDRESS 0x1896 ===
  0x1896	test   	eax, eax
  0x1898	je     	0x196e
  === BLOCK LINK ===
    0x189e
=== CODE BLOCK END ===

=== CODE BLOCK ADDRESS 0x189e ===
  0x189e	sub    	dword ptr [0x4d57], 1
  0x18a5	jne    	0x1942
  === BLOCK LINK ===
    0x18ab
=== CODE BLOCK END ===

=== CODE BLOCK ADDRESS 0x18ab ===
  0x18ab	cmp    	dword ptr [0x4d37], ebx
  0x18b1	je     	0x190e
  === BLOCK LINK ===
    0x18b3
=== CODE BLOCK END ===

=== CODE BLOCK ADDRESS 0x18b3 ===
  0x18b3	call   	0x25f8
  === BLOCK LINK ===
    0x18b8
=== CODE BLOCK END ===

=== CODE BLOCK ADDRESS 0x18b8 ===
  0x18b8	dec    	esp
  0x18b9	mov    	eax, dword ptr [0x4d81]
  0x18bf	dec    	ebp
  0x18c0	test   	eax, eax
  0x18c2	je     	0x18e0
  === BLOCK LINK ===
    0x18c4
=== CODE BLOCK END ===

=== CODE BLOCK ADDRESS 0x18c4 ===
  0x18c4	dec    	eax
  0x18c5	mov    	ecx, dword ptr [0x4dad]
  0x18cb	xor    	edx, edx
  0x18cd	dec    	eax
  0x18ce	call   	dword ptr [0x2894]
  === BLOCK LINK ===
    0x18d4
=== CODE BLOCK END ===

=== CODE BLOCK ADDRESS 0x18d4 ===
  0x18d4	nop    	dword ptr [eax + eax]
  0x18d9	dec    	eax
  0x18da	mov    	dword ptr [0x4d60], ebx
  0x18e0	dec    	esp
  0x18e1	mov    	eax, dword ptr [0x4d29]
  === BLOCK LINK ===
    0x18e7
=== CODE BLOCK END ===

=== CODE BLOCK ADDRESS 0x18e7 ===
  0x18e7	dec    	ebp
  0x18e8	test   	eax, eax
  0x18ea	je     	0x1908
  === BLOCK LINK ===
    0x18ec
=== CODE BLOCK END ===

=== CODE BLOCK ADDRESS 0x18ec ===
  0x18ec	dec    	eax
  0x18ed	mov    	ecx, dword ptr [0x4d85]
  0x18f3	xor    	edx, edx
  0x18f5	dec    	eax
  0x18f6	call   	dword ptr [0x286c]
  === BLOCK LINK ===
    0x18fc
=== CODE BLOCK END ===

=== CODE BLOCK ADDRESS 0x18fc ===
  0x18fc	nop    	dword ptr [eax + eax]
  0x1901	dec    	eax
  0x1902	mov    	dword ptr [0x4d08], ebx
  0x1908	mov    	dword ptr [0x4cda], ebx
  0x190e	dec    	esp
  === BLOCK LINK ===
    0x190f
=== CODE BLOCK END ===

=== CODE BLOCK ADDRESS 0x190f ===
  0x190f	mov    	eax, dword ptr [0x4cdb]
  0x1915	dec    	ebp
  0x1916	test   	eax, eax
  0x1918	je     	0x1936
  === BLOCK LINK ===
    0x191a
=== CODE BLOCK END ===

=== CODE BLOCK ADDRESS 0x191a ===
  0x191a	dec    	eax
  0x191b	mov    	ecx, dword ptr [0x4d57]
  0x1921	xor    	edx, edx
  0x1923	dec    	eax
  0x1924	call   	dword ptr [0x283e]
  === BLOCK LINK ===
    0x192a
=== CODE BLOCK END ===

=== CODE BLOCK ADDRESS 0x192a ===
  0x192a	nop    	dword ptr [eax + eax]
  0x192f	dec    	eax
  0x1930	mov    	dword ptr [0x4cba], ebx
  0x1936	mov    	dword ptr [0x4d44], ebx
  0x193c	mov    	dword ptr [0x4cb6], ebx
  === BLOCK LINK ===
    0x1942
=== CODE BLOCK END ===

=== CODE BLOCK ADDRESS 0x1942 ===
  0x1942	dec    	eax
  0x1943	lea    	eax, [esp + 0x20]
  0x1947	.byte  	0xf0
  0x1948	dec    	eax
  0x1949	cmpxchg  	dword ptr [0x4c90], ebx
  === BLOCK LINK ===
    0x1950
=== CODE BLOCK END ===

=== CODE BLOCK ADDRESS 0x1950 ===
  0x1950	dec    	eax
  0x1951	lea    	ecx, [esp + 0x20]
  0x1955	dec    	eax
  0x1956	cmp    	eax, ecx
  0x1958	je     	0x1967
  === BLOCK LINK ===
    0x195a
=== CODE BLOCK END ===

=== CODE BLOCK ADDRESS 0x195a ===
  0x195a	dec    	eax
  0x195b	mov    	edx, eax
  0x195d	dec    	eax
  0x195e	lea    	ecx, [esp + 0x20]
  0x1962	call   	0x1414
  === BLOCK LINK ===
    0x1967
=== CODE BLOCK END ===

=== CODE BLOCK ADDRESS 0x1967 ===
  0x1967	mov    	eax, 1
  0x196c	jmp    	0x1970
  === BLOCK LINK ===
    0x196e
=== CODE BLOCK END ===

=== CODE BLOCK ADDRESS 0x196e ===
  0x196e	xor    	eax, eax
  0x1970	dec    	eax
  0x1971	add    	esp, 0x40
  0x1974	pop    	ebx
  0x1975	ret    	
  === BLOCK LINK ===
    0x1976
=== CODE BLOCK END ===

=== CODE BLOCK ADDRESS 0x1976 ===
  0x1976	int3   	
  0x1977	int3   	
  0x1978	int3   	
  0x1979	int3   	
  0x197a	int3   	
  === BLOCK LINK ===
    0x197b
=== CODE BLOCK END ===

=== CODE BLOCK ADDRESS 0x197b ===
  0x197b	int3   	
  0x197c	int3   	
  0x197d	int3   	
  0x197e	int3   	
  0x197f	int3   	
  === BLOCK LINK ===
    0x1980
=== CODE BLOCK END ===

=== CODE BLOCK ADDRESS 0x1980 ===
  0x1980	inc    	eax
  0x1981	push   	ebx
  0x1982	dec    	eax
  0x1983	sub    	esp, 0x280
  0x1989	dec    	eax
  === BLOCK LINK ===
    0x198a
=== CODE BLOCK END ===

=== CODE BLOCK ADDRESS 0x198a ===
  0x198a	mov    	eax, dword ptr [0x4678]
  0x1990	dec    	eax
  0x1991	xor    	eax, esp
  0x1993	dec    	eax
  0x1994	mov    	dword ptr [esp + 0x270], eax
  === BLOCK LINK ===
    0x199b
=== CODE BLOCK END ===

=== CODE BLOCK ADDRESS 0x199b ===
  0x199b	dec    	esp
  0x199c	mov    	eax, dword ptr [0x4c4e]
  0x19a2	xor    	ebx, ebx
  0x19a4	dec    	ebp
  0x19a5	test   	eax, eax
  === BLOCK LINK ===
    0x19a7
=== CODE BLOCK END ===

=== CODE BLOCK ADDRESS 0x19a7 ===
  0x19a7	je     	0x19c5
  === BLOCK LINK ===
    0x19a9
=== CODE BLOCK END ===

=== CODE BLOCK ADDRESS 0x19a9 ===
  0x19a9	dec    	eax
  0x19aa	mov    	ecx, dword ptr [0x4cc8]
  0x19b0	xor    	edx, edx
  0x19b2	dec    	eax
  0x19b3	call   	dword ptr [0x27af]
  === BLOCK LINK ===
    0x19b9
=== CODE BLOCK END ===

=== CODE BLOCK ADDRESS 0x19b9 ===
  0x19b9	nop    	dword ptr [eax + eax]
  0x19be	dec    	eax
  0x19bf	mov    	dword ptr [0x4c2b], ebx
  0x19c5	mov    	edx, 0x104
  0x19ca	mov    	dword ptr [0x464c], 1
  === BLOCK LINK ===
    0x19d4
=== CODE BLOCK END ===

=== CODE BLOCK ADDRESS 0x19d4 ===
  0x19d4	dec    	eax
  0x19d5	lea    	ecx, [esp + 0x20]
  0x19d9	dec    	eax
  0x19da	call   	dword ptr [0x2860]
  === BLOCK LINK ===
    0x19e0
=== CODE BLOCK END ===

=== CODE BLOCK ADDRESS 0x19e0 ===
  0x19e0	nop    	dword ptr [eax + eax]
  0x19e5	dec    	eax
  0x19e7	cmp    	eax, 0x103
  0x19ec	ja     	0x1a3d
  === BLOCK LINK ===
    0x19ee
=== CODE BLOCK END ===

=== CODE BLOCK ADDRESS 0x19ee ===
  0x19ee	dec    	eax
  0x19ef	lea    	ecx, [esp + 0x20]
  0x19f3	call   	0x1fc0
  === BLOCK LINK ===
    0x19f8
=== CODE BLOCK END ===

=== CODE BLOCK ADDRESS 0x19f8 ===
  0x19f8	dec    	eax
  0x19f9	mov    	dword ptr [0x4bf1], eax
  0x19ff	dec    	eax
  0x1a00	test   	eax, eax
  0x1a02	je     	0x1a3d
  === BLOCK LINK ===
    0x1a04
=== CODE BLOCK END ===

=== CODE BLOCK ADDRESS 0x1a04 ===
  0x1a04	cmp    	dword ptr [0x4bde], ebx
  0x1a0a	je     	0x1a38
  === BLOCK LINK ===
    0x1a0c
=== CODE BLOCK END ===

=== CODE BLOCK ADDRESS 0x1a0c ===
  0x1a0c	mov    	edx, dword ptr [0x460e]
  0x1a12	test   	edx, edx
  0x1a14	je     	0x1a2c
  === BLOCK LINK ===
    0x1a16
=== CODE BLOCK END ===

=== CODE BLOCK ADDRESS 0x1a16 ===
  0x1a16	call   	0x15d8
  === BLOCK LINK ===
    0x1a1b
=== CODE BLOCK END ===

=== CODE BLOCK ADDRESS 0x1a1b ===
  0x1a1b	test   	eax, eax
  0x1a1d	jne    	0x1a38
  === BLOCK LINK ===
    0x1a1f
=== CODE BLOCK END ===

=== CODE BLOCK ADDRESS 0x1a1f ===
  0x1a1f	dec    	eax
  0x1a20	mov    	eax, dword ptr [0x4bca]
  0x1a26	mov    	edx, dword ptr [0x45f4]
  0x1a2c	dec    	eax
  0x1a2d	mov    	ecx, eax
  === BLOCK LINK ===
    0x1a2f
=== CODE BLOCK END ===

=== CODE BLOCK ADDRESS 0x1a2f ===
  0x1a2f	call   	0x17a0
  === BLOCK LINK ===
    0x1a34
=== CODE BLOCK END ===

=== CODE BLOCK ADDRESS 0x1a34 ===
  0x1a34	test   	eax, eax
  0x1a36	je     	0x1a3d
  === BLOCK LINK ===
    0x1a38
=== CODE BLOCK END ===

=== CODE BLOCK ADDRESS 0x1a38 ===
  0x1a38	mov    	ebx, 1
  0x1a3d	mov    	eax, ebx
  0x1a3f	dec    	eax
  0x1a40	mov    	ecx, dword ptr [esp + 0x270]
  0x1a47	dec    	eax
  === BLOCK LINK ===
    0x1a48
=== CODE BLOCK END ===

=== CODE BLOCK ADDRESS 0x1a48 ===
  0x1a48	xor    	ecx, esp
  0x1a4a	call   	0x2b40
  === BLOCK LINK ===
    0x1a4f
=== CODE BLOCK END ===

=== CODE BLOCK ADDRESS 0x1a4f ===
  0x1a4f	dec    	eax
  0x1a50	add    	esp, 0x280
  0x1a56	pop    	ebx
  0x1a57	ret    	
  0x1a58	int3   	
  === BLOCK LINK ===
    0x1a59
=== CODE BLOCK END ===

=== CODE BLOCK ADDRESS 0x1a59 ===
  0x1a59	int3   	
  0x1a5a	int3   	
  0x1a5b	int3   	
  0x1a5c	int3   	
  0x1a5d	int3   	
  === BLOCK LINK ===
    0x1a5e
=== CODE BLOCK END ===

=== CODE BLOCK ADDRESS 0x1a5e ===
  0x1a5e	int3   	
  0x1a5f	int3   	
  0x1a60	dec    	eax
  0x1a61	sub    	esp, 0x28
  0x1a64	cmp    	ecx, 0xc00000fd
  === BLOCK LINK ===
    0x1a6a
=== CODE BLOCK END ===

=== CODE BLOCK ADDRESS 0x1a6a ===
  0x1a6a	jne    	0x1a9a
  === BLOCK LINK ===
    0x1a6c
=== CODE BLOCK END ===

=== CODE BLOCK ADDRESS 0x1a6c ===
  0x1a6c	dec    	eax
  0x1a6d	call   	dword ptr [0x2805]
  === BLOCK LINK ===
    0x1a73
=== CODE BLOCK END ===

=== CODE BLOCK ADDRESS 0x1a73 ===
  0x1a73	nop    	dword ptr [eax + eax]
  0x1a78	test   	eax, eax
  0x1a7a	jne    	0x1ab1
  === BLOCK LINK ===
    0x1a7c
=== CODE BLOCK END ===

=== CODE BLOCK ADDRESS 0x1a7c ===
  0x1a7c	inc    	ebp
  0x1a7d	xor    	ecx, ecx
  0x1a7f	lea    	edx, [eax + 1]
  0x1a82	inc    	ebp
  0x1a83	xor    	eax, eax
  === BLOCK LINK ===
    0x1a85
=== CODE BLOCK END ===

=== CODE BLOCK ADDRESS 0x1a85 ===
  0x1a85	mov    	ecx, 0xe0000300
  0x1a8a	dec    	eax
  0x1a8b	add    	esp, 0x28
  0x1a8e	dec    	eax
  0x1a8f	jmp    	dword ptr [0x27b3]
  === BLOCK LINK ===
    0x1a95
=== CODE BLOCK END ===

=== CODE BLOCK ADDRESS 0x1a95 ===
  0x1a95	int3   	
  0x1a96	int3   	
  0x1a97	int3   	
  0x1a98	int3   	
  0x1a99	int3   	
  === BLOCK LINK ===
    0x1a9a
=== CODE BLOCK END ===

=== CODE BLOCK ADDRESS 0x1a9a ===
  0x1a9a	lea    	eax, [ecx + 0x3ffffffb]
  0x1aa0	cmp    	eax, 1
  0x1aa3	jbe    	0x1ab1
  === BLOCK LINK ===
    0x1aa5
=== CODE BLOCK END ===

=== CODE BLOCK ADDRESS 0x1aa5 ===
  0x1aa5	dec    	eax
  0x1aa6	call   	dword ptr [0x28a4]
  === BLOCK LINK ===
    0x1aac
=== CODE BLOCK END ===

=== CODE BLOCK ADDRESS 0x1aac ===
  0x1aac	nop    	dword ptr [eax + eax]
  0x1ab1	dec    	eax
  0x1ab2	add    	esp, 0x28
  0x1ab5	ret    	
  0x1ab6	int3   	
  === BLOCK LINK ===
    0x1ab7
=== CODE BLOCK END ===

=== CODE BLOCK ADDRESS 0x1ab7 ===
  0x1ab7	int3   	
  0x1ab8	int3   	
  0x1ab9	int3   	
  0x1aba	int3   	
  0x1abb	int3   	
  === BLOCK LINK ===
    0x1abc
=== CODE BLOCK END ===

=== CODE BLOCK ADDRESS 0x1abc ===
  0x1abc	int3   	
  0x1abd	int3   	
  0x1abe	int3   	
  0x1abf	int3   	
  0x1ac0	dec    	eax
  === BLOCK LINK ===
    0x1ac1
=== CODE BLOCK END ===

=== CODE BLOCK ADDRESS 0x1ac1 ===
  0x1ac1	mov    	dword ptr [esp + 8], ebx
  0x1ac5	xor    	ebx, ebx
  0x1ac7	dec    	eax
  0x1ac8	lea    	eax, [edx - 1]
  0x1acb	inc    	ecx
  === BLOCK LINK ===
    0x1acc
=== CODE BLOCK END ===

=== CODE BLOCK ADDRESS 0x1acc ===
  0x1acc	mov    	edx, 0x7ffffffe
  0x1ad1	inc    	esp
  0x1ad2	mov    	ecx, ebx
  0x1ad4	dec    	ecx
  0x1ad5	cmp    	eax, edx
  === BLOCK LINK ===
    0x1ad7
=== CODE BLOCK END ===

=== CODE BLOCK ADDRESS 0x1ad7 ===
  0x1ad7	inc    	ecx
  0x1ad8	mov    	ebx, 0x80070057
  0x1add	inc    	ebp
  0x1ade	cmova  	ecx, ebx
  0x1ae1	inc    	ebp
  === BLOCK LINK ===
    0x1ae2
=== CODE BLOCK END ===

=== CODE BLOCK ADDRESS 0x1ae2 ===
  0x1ae2	test   	ecx, ecx
  0x1ae4	js     	0x1b31
  === BLOCK LINK ===
    0x1ae6
=== CODE BLOCK END ===

=== CODE BLOCK ADDRESS 0x1ae6 ===
  0x1ae6	dec    	eax
  0x1ae7	test   	edx, edx
  0x1ae9	je     	0x1b11
  === BLOCK LINK ===
    0x1aeb
=== CODE BLOCK END ===

=== CODE BLOCK ADDRESS 0x1aeb ===
  0x1aeb	dec    	esp
  0x1aec	sub    	edx, edx
  0x1aee	dec    	esp
  0x1aef	sub    	eax, ecx
  0x1af1	dec    	ecx
  === BLOCK LINK ===
    0x1af2
=== CODE BLOCK END ===

=== CODE BLOCK ADDRESS 0x1af2 ===
  0x1af2	lea    	eax, [edx + edx]
  0x1af5	dec    	eax
  0x1af6	test   	eax, eax
  0x1af8	je     	0x1b11
  === BLOCK LINK ===
    0x1afa
=== CODE BLOCK END ===

=== CODE BLOCK ADDRESS 0x1afa ===
  0x1afa	inc    	ecx
  0x1afb	movzx  	eax, word ptr [eax + ecx]
  0x1aff	test   	ax, ax
  0x1b02	je     	0x1b11
  === BLOCK LINK ===
    0x1b04
=== CODE BLOCK END ===

=== CODE BLOCK ADDRESS 0x1b04 ===
  0x1b04	mov    	word ptr [ecx], ax
  0x1b07	dec    	eax
  0x1b08	add    	ecx, 2
  0x1b0b	dec    	eax
  0x1b0c	sub    	edx, 1
  === BLOCK LINK ===
    0x1b0f
=== CODE BLOCK END ===

=== CODE BLOCK ADDRESS 0x1b0f ===
  0x1b0f	jne    	0x1af1
  === BLOCK LINK ===
    0x1b11
=== CODE BLOCK END ===

=== CODE BLOCK ADDRESS 0x1b11 ===
  0x1b11	dec    	eax
  0x1b12	test   	edx, edx
  0x1b14	dec    	eax
  0x1b15	lea    	eax, [ecx - 2]
  0x1b18	dec    	eax
  === BLOCK LINK ===
    0x1b19
=== CODE BLOCK END ===

=== CODE BLOCK ADDRESS 0x1b19 ===
  0x1b19	cmovne  	eax, ecx
  0x1b1c	dec    	eax
  0x1b1d	neg    	edx
  0x1b1f	inc    	ebp
  0x1b20	sbb    	ecx, ecx
  === BLOCK LINK ===
    0x1b22
=== CODE BLOCK END ===

=== CODE BLOCK ADDRESS 0x1b22 ===
  0x1b22	inc    	ecx
  0x1b23	not    	ecx
  0x1b25	inc    	ecx
  0x1b26	and    	ecx, 0x8007007a
  0x1b2c	mov    	word ptr [eax], bx
  === BLOCK LINK ===
    0x1b2f
=== CODE BLOCK END ===

=== CODE BLOCK ADDRESS 0x1b2f ===
  0x1b2f	jmp    	0x1b39
  === BLOCK LINK ===
    0x1b31
=== CODE BLOCK END ===

=== CODE BLOCK ADDRESS 0x1b31 ===
  0x1b31	dec    	eax
  0x1b32	test   	edx, edx
  0x1b34	je     	0x1b39
  === BLOCK LINK ===
    0x1b36
=== CODE BLOCK END ===

=== CODE BLOCK ADDRESS 0x1b36 ===
  0x1b36	mov    	word ptr [ecx], bx
  0x1b39	dec    	eax
  0x1b3a	mov    	ebx, dword ptr [esp + 8]
  0x1b3e	inc    	ecx
  0x1b3f	mov    	eax, ecx
  === BLOCK LINK ===
    0x1b41
=== CODE BLOCK END ===

=== CODE BLOCK ADDRESS 0x1b41 ===
  0x1b41	ret    	
  0x1b42	int3   	
  0x1b43	int3   	
  0x1b44	int3   	
  0x1b45	int3   	
  === BLOCK LINK ===
    0x1b46
=== CODE BLOCK END ===

=== CODE BLOCK ADDRESS 0x11e6 ===
=== CODE BLOCK END ===

=== CODE BLOCK ADDRESS 0x1b46 ===
  0x1b46	int3   	
  0x1b47	int3   	
  0x1b48	int3   	
  0x1b49	int3   	
  0x1b4a	int3   	
  === BLOCK LINK ===
    0x1b4b
=== CODE BLOCK END ===

=== CODE BLOCK ADDRESS 0x1b4b ===
  0x1b4b	int3   	
  === BLOCK LINK ===
    0x1b4c
=== CODE BLOCK END ===

=== CODE BLOCK ADDRESS 0x1b56 ===
  0x1b56	dec    	eax
  0x1b57	mov    	dword ptr [esp + 0x18], edi
  0x1b5b	push   	ebp
  0x1b5c	dec    	eax
  0x1b5d	mov    	ebp, esp
  === BLOCK LINK ===
    0x1b5f
=== CODE BLOCK END ===

=== CODE BLOCK ADDRESS 0x1b5f ===
  0x1b5f	dec    	eax
  0x1b60	sub    	esp, 0x80
  0x1b66	dec    	eax
  0x1b67	mov    	eax, dword ptr [0x449b]
  0x1b6d	dec    	eax
  === BLOCK LINK ===
    0x1b6e
=== CODE BLOCK END ===

=== CODE BLOCK ADDRESS 0x1b6e ===
  0x1b6e	xor    	eax, esp
  0x1b70	dec    	eax
  0x1b71	mov    	dword ptr [ebp - 8], eax
  0x1b74	xor    	ebx, ebx
  0x1b76	mov    	word ptr [ebp - 0xc], 0x500
  === BLOCK LINK ===
    0x1b7c
=== CODE BLOCK END ===

=== CODE BLOCK ADDRESS 0x1b7c ===
  0x1b7c	xor    	ecx, ecx
  0x1b7e	mov    	dword ptr [ebp - 0x20], ebx
  0x1b81	mov    	dword ptr [ebp - 0x10], ebx
  0x1b84	dec    	eax
  0x1b85	mov    	dword ptr [ebp - 0x18], ebx
  === BLOCK LINK ===
    0x1b88
=== CODE BLOCK END ===

=== CODE BLOCK ADDRESS 0x1b88 ===
  0x1b88	dec    	eax
  0x1b89	call   	dword ptr [0x26a9]
  === BLOCK LINK ===
    0x1b8f
=== CODE BLOCK END ===

=== CODE BLOCK ADDRESS 0x1b8f ===
  0x1b8f	nop    	dword ptr [eax + eax]
  0x1b94	dec    	eax
  0x1b95	lea    	eax, [ebp - 0x18]
  0x1b98	inc    	ecx
  0x1b99	mov    	ecx, 0x220
  === BLOCK LINK ===
    0x1b9e
=== CODE BLOCK END ===

=== CODE BLOCK ADDRESS 0x1b9e ===
  0x1b9e	dec    	eax
  0x1b9f	mov    	dword ptr [esp + 0x50], eax
  0x1ba3	inc    	esp
  0x1ba4	lea    	eax, [ebx + 0x20]
  0x1ba7	mov    	dword ptr [esp + 0x48], ebx
  === BLOCK LINK ===
    0x1bab
=== CODE BLOCK END ===

=== CODE BLOCK ADDRESS 0x1bab ===
  0x1bab	dec    	eax
  0x1bac	lea    	ecx, [ebp - 0x10]
  0x1baf	mov    	dword ptr [esp + 0x40], ebx
  0x1bb3	mov    	dl, 2
  0x1bb5	mov    	dword ptr [esp + 0x38], ebx
  === BLOCK LINK ===
    0x1bb9
=== CODE BLOCK END ===

=== CODE BLOCK ADDRESS 0x1bb9 ===
  0x1bb9	mov    	dword ptr [esp + 0x30], ebx
  0x1bbd	mov    	dword ptr [esp + 0x28], ebx
  0x1bc1	mov    	dword ptr [esp + 0x20], ebx
  0x1bc5	dec    	eax
  0x1bc6	call   	dword ptr [0x256c]
  === BLOCK LINK ===
    0x1bcc
=== CODE BLOCK END ===

=== CODE BLOCK ADDRESS 0x1bcc ===
  0x1bcc	nop    	dword ptr [eax + eax]
  0x1bd1	mov    	esi, 0x507
  0x1bd6	test   	eax, eax
  0x1bd8	jne    	0x1bf1
  === BLOCK LINK ===
    0x1bda
=== CODE BLOCK END ===

=== CODE BLOCK ADDRESS 0x1bda ===
  0x1bda	dec    	eax
  0x1bdb	call   	dword ptr [0x25bf]
  === BLOCK LINK ===
    0x1be1
=== CODE BLOCK END ===

=== CODE BLOCK ADDRESS 0x1be1 ===
  0x1be1	nop    	dword ptr [eax + eax]
  0x1be6	test   	eax, eax
  0x1be8	mov    	edi, eax
  0x1bea	cmove  	edi, esi
  0x1bed	test   	edi, edi
  === BLOCK LINK ===
    0x1bef
=== CODE BLOCK END ===

=== CODE BLOCK ADDRESS 0x1bef ===
  0x1bef	jne    	0x1c3f
  === BLOCK LINK ===
    0x1bf1
=== CODE BLOCK END ===

=== CODE BLOCK ADDRESS 0x1bf1 ===
  0x1bf1	xor    	ecx, ecx
  0x1bf3	dec    	eax
  0x1bf4	call   	dword ptr [0x263e]
  === BLOCK LINK ===
    0x1bfa
=== CODE BLOCK END ===

=== CODE BLOCK ADDRESS 0x1bfa ===
  0x1bfa	nop    	dword ptr [eax + eax]
  0x1bff	dec    	eax
  0x1c00	mov    	edx, dword ptr [ebp - 0x18]
  0x1c03	dec    	esp
  0x1c04	lea    	eax, [ebp - 0x20]
  === BLOCK LINK ===
    0x1c07
=== CODE BLOCK END ===

=== CODE BLOCK ADDRESS 0x1c07 ===
  0x1c07	xor    	ecx, ecx
  0x1c09	dec    	eax
  0x1c0a	call   	dword ptr [0x2520]
  === BLOCK LINK ===
    0x1c10
=== CODE BLOCK END ===

=== CODE BLOCK ADDRESS 0x1c10 ===
  0x1c10	nop    	dword ptr [eax + eax]
  0x1c15	test   	eax, eax
  0x1c17	je     	0x1c1d
  === BLOCK LINK ===
    0x1c19
=== CODE BLOCK END ===

=== CODE BLOCK ADDRESS 0x1c19 ===
  0x1c19	mov    	edi, ebx
  0x1c1b	jmp    	0x1c34
  === BLOCK LINK ===
    0x1c1d
=== CODE BLOCK END ===

=== CODE BLOCK ADDRESS 0x1c1d ===
  0x1c1d	dec    	eax
  0x1c1e	call   	dword ptr [0x257c]
  === BLOCK LINK ===
    0x1c24
=== CODE BLOCK END ===

=== CODE BLOCK ADDRESS 0x1c24 ===
  0x1c24	nop    	dword ptr [eax + eax]
  0x1c29	test   	eax, eax
  0x1c2b	mov    	edi, eax
  0x1c2d	cmove  	edi, esi
  0x1c30	test   	edi, edi
  === BLOCK LINK ===
    0x1c32
=== CODE BLOCK END ===

=== CODE BLOCK ADDRESS 0x1c32 ===
  0x1c32	jne    	0x1c3f
  === BLOCK LINK ===
    0x1c34
=== CODE BLOCK END ===

=== CODE BLOCK ADDRESS 0x1c34 ===
  0x1c34	cmp    	dword ptr [ebp - 0x20], ebx
  0x1c37	mov    	eax, 0x529
  0x1c3c	cmove  	edi, eax
  0x1c3f	dec    	eax
  0x1c40	mov    	ecx, dword ptr [ebp - 0x18]
  === BLOCK LINK ===
    0x1c43
=== CODE BLOCK END ===

=== CODE BLOCK ADDRESS 0x1c43 ===
  0x1c43	dec    	eax
  0x1c44	test   	ecx, ecx
  0x1c46	je     	0x1c54
  === BLOCK LINK ===
    0x1c48
=== CODE BLOCK END ===

=== CODE BLOCK ADDRESS 0x1c48 ===
  0x1c48	dec    	eax
  0x1c49	call   	dword ptr [0x24d9]
  === BLOCK LINK ===
    0x1c4f
=== CODE BLOCK END ===

=== CODE BLOCK ADDRESS 0x1c4f ===
  0x1c4f	nop    	dword ptr [eax + eax]
  0x1c54	mov    	ecx, edi
  0x1c56	dec    	eax
  0x1c57	call   	dword ptr [0x25db]
  === BLOCK LINK ===
    0x1c5d
=== CODE BLOCK END ===

=== CODE BLOCK ADDRESS 0x1c5d ===
  0x1c5d	nop    	dword ptr [eax + eax]
  0x1c62	test   	edi, edi
  0x1c64	sete   	bl
  0x1c67	mov    	eax, ebx
  0x1c69	dec    	eax
  === BLOCK LINK ===
    0x1c6a
=== CODE BLOCK END ===

=== CODE BLOCK ADDRESS 0x1c6a ===
  0x1c6a	mov    	ecx, dword ptr [ebp - 8]
  0x1c6d	dec    	eax
  0x1c6e	xor    	ecx, esp
  0x1c70	call   	0x2b40
  === BLOCK LINK ===
    0x1c75
=== CODE BLOCK END ===

=== CODE BLOCK ADDRESS 0x1c75 ===
  0x1c75	dec    	esp
  0x1c76	lea    	ebx, [esp + 0x80]
  0x1c7d	dec    	ecx
  0x1c7e	mov    	ebx, dword ptr [ebx + 0x10]
  0x1c81	dec    	ecx
  === BLOCK LINK ===
    0x1c82
=== CODE BLOCK END ===

=== CODE BLOCK ADDRESS 0x1c82 ===
  0x1c82	mov    	esi, dword ptr [ebx + 0x18]
  0x1c85	dec    	ecx
  0x1c86	mov    	edi, dword ptr [ebx + 0x20]
  0x1c89	dec    	ecx
  0x1c8a	mov    	esp, ebx
  === BLOCK LINK ===
    0x1c8c
=== CODE BLOCK END ===

=== CODE BLOCK ADDRESS 0x1c8c ===
  0x1c8c	pop    	ebp
  0x1c8d	ret    	
  0x1c8e	int3   	
  0x1c8f	int3   	
  0x1c90	int3   	
  === BLOCK LINK ===
    0x1c91
=== CODE BLOCK END ===

=== CODE BLOCK ADDRESS 0x1c91 ===
  0x1c91	int3   	
  0x1c92	int3   	
  0x1c93	int3   	
  0x1c94	int3   	
  0x1c95	int3   	
  === BLOCK LINK ===
    0x1c96
=== CODE BLOCK END ===

=== CODE BLOCK ADDRESS 0x1c96 ===
  0x1c96	int3   	
  0x1c97	int3   	
  0x1c98	inc    	eax
  0x1c99	push   	ebx
  0x1c9a	dec    	eax
  === BLOCK LINK ===
    0x1c9b
=== CODE BLOCK END ===

=== CODE BLOCK ADDRESS 0x1c9b ===
  0x1c9b	sub    	esp, 0x40
  0x1c9e	xorps  	xmm0, xmm0
  0x1ca1	dec    	eax
  0x1ca2	mov    	ebx, edx
  0x1ca4	movups  	xmmword ptr [esp + 0x30], xmm0
  === BLOCK LINK ===
    0x1ca9
=== CODE BLOCK END ===

=== CODE BLOCK ADDRESS 0x1ca9 ===
  0x1ca9	dec    	eax
  0x1caa	cmp    	ecx, 0x80000002
  0x1cb0	jne    	0x1cbb
  === BLOCK LINK ===
    0x1cb2
=== CODE BLOCK END ===

=== CODE BLOCK ADDRESS 0x1cb2 ===
  0x1cb2	dec    	eax
  0x1cb3	lea    	edx, [0x2857]
  0x1cb9	jmp    	0x1d26
  === BLOCK LINK ===
    0x1cbb
=== CODE BLOCK END ===

=== CODE BLOCK ADDRESS 0x1cbb ===
  0x1cbb	dec    	eax
  0x1cbc	cmp    	ecx, 0x80000000
  0x1cc2	jne    	0x1ccd
  === BLOCK LINK ===
    0x1cc4
=== CODE BLOCK END ===

=== CODE BLOCK ADDRESS 0x1cc4 ===
  0x1cc4	dec    	eax
  0x1cc5	lea    	edx, [0x2875]
  0x1ccb	jmp    	0x1d26
  === BLOCK LINK ===
    0x1ccd
=== CODE BLOCK END ===

=== CODE BLOCK ADDRESS 0x1ccd ===
  0x1ccd	dec    	eax
  0x1cce	cmp    	ecx, 0x80000003
  0x1cd4	jne    	0x1cdf
  === BLOCK LINK ===
    0x1cd6
=== CODE BLOCK END ===

=== CODE BLOCK ADDRESS 0x1cd6 ===
  0x1cd6	dec    	eax
  0x1cd7	lea    	edx, [0x28ab]
  0x1cdd	jmp    	0x1d26
  === BLOCK LINK ===
    0x1cdf
=== CODE BLOCK END ===

=== CODE BLOCK ADDRESS 0x1cdf ===
  0x1cdf	dec    	eax
  0x1ce0	cmp    	ecx, 0x80000005
  0x1ce6	jne    	0x1cf1
  === BLOCK LINK ===
    0x1ce8
=== CODE BLOCK END ===

=== CODE BLOCK ADDRESS 0x1ce8 ===
  0x1ce8	dec    	eax
  0x1ce9	lea    	edx, [0x28c1]
  0x1cef	jmp    	0x1d26
  === BLOCK LINK ===
    0x1cf1
=== CODE BLOCK END ===

=== CODE BLOCK ADDRESS 0x1cf1 ===
  0x1cf1	dec    	eax
  0x1cf2	cmp    	ecx, 0x80000001
  0x1cf8	jne    	0x1d3d
  === BLOCK LINK ===
    0x1cfa
=== CODE BLOCK END ===

=== CODE BLOCK ADDRESS 0x1cfa ===
  0x1cfa	dec    	eax
  0x1cfb	lea    	ecx, [esp + 0x30]
  0x1cff	dec    	eax
  0x1d00	call   	dword ptr [0x2622]
  === BLOCK LINK ===
    0x1d06
=== CODE BLOCK END ===

=== CODE BLOCK ADDRESS 0x1d06 ===
  0x1d06	nop    	dword ptr [eax + eax]
  0x1d0b	test   	eax, eax
  0x1d0d	jns    	0x1d21
  === BLOCK LINK ===
    0x1d0f
=== CODE BLOCK END ===

=== CODE BLOCK ADDRESS 0x1d0f ===
  0x1d0f	mov    	ecx, eax
  0x1d11	dec    	eax
  0x1d12	call   	dword ptr [0x2638]
  === BLOCK LINK ===
    0x1d18
=== CODE BLOCK END ===

=== CODE BLOCK ADDRESS 0x1d18 ===
  0x1d18	nop    	dword ptr [eax + eax]
  0x1d1d	mov    	ebx, eax
  0x1d1f	jmp    	0x1d42
  === BLOCK LINK ===
    0x1d21
=== CODE BLOCK END ===

=== CODE BLOCK ADDRESS 0x1d21 ===
  0x1d21	dec    	eax
  0x1d22	mov    	edx, dword ptr [esp + 0x38]
  0x1d26	inc    	ecx
  0x1d27	mov    	ecx, 0x2000000
  0x1d2c	dec    	eax
  === BLOCK LINK ===
    0x1d2d
=== CODE BLOCK END ===

=== CODE BLOCK ADDRESS 0x1d2d ===
  0x1d2d	mov    	dword ptr [esp + 0x20], ebx
  0x1d31	inc    	ebp
  0x1d32	xor    	eax, eax
  0x1d34	xor    	ecx, ecx
  0x1d36	call   	0x1d6c
  === BLOCK LINK ===
    0x1d3b
=== CODE BLOCK END ===

=== CODE BLOCK ADDRESS 0x1d3b ===
  0x1d3b	jmp    	0x1d1d
  === BLOCK LINK ===
    0x1d3d
=== CODE BLOCK END ===

=== CODE BLOCK ADDRESS 0x1d3d ===
  0x1d3d	mov    	ebx, 0x32
  0x1d42	dec    	eax
  0x1d43	cmp    	dword ptr [esp + 0x38], 0
  0x1d48	je     	0x1d5b
  === BLOCK LINK ===
    0x1d4a
=== CODE BLOCK END ===

=== CODE BLOCK ADDRESS 0x1d4a ===
  0x1d4a	dec    	eax
  0x1d4b	lea    	ecx, [esp + 0x30]
  0x1d4f	dec    	eax
  0x1d50	call   	dword ptr [0x25da]
  === BLOCK LINK ===
    0x1d56
=== CODE BLOCK END ===

=== CODE BLOCK ADDRESS 0x1d56 ===
  0x1d56	nop    	dword ptr [eax + eax]
  0x1d5b	mov    	eax, ebx
  0x1d5d	dec    	eax
  0x1d5e	add    	esp, 0x40
  0x1d61	pop    	ebx
  === BLOCK LINK ===
    0x1d62
=== CODE BLOCK END ===

=== CODE BLOCK ADDRESS 0x1d62 ===
  0x1d62	ret    	
  0x1d63	int3   	
  0x1d64	int3   	
  0x1d65	int3   	
  0x1d66	int3   	
  === BLOCK LINK ===
    0x1d67
=== CODE BLOCK END ===

=== CODE BLOCK ADDRESS 0x1d67 ===
  0x1d67	int3   	
  0x1d68	int3   	
  0x1d69	int3   	
  0x1d6a	int3   	
  0x1d6b	int3   	
  === BLOCK LINK ===
    0x1d6c
=== CODE BLOCK END ===

=== CODE BLOCK ADDRESS 0x1d6c ===
  0x1d6c	dec    	eax
  0x1d6d	mov    	dword ptr [esp + 0x10], ebx
  0x1d71	dec    	eax
  0x1d72	mov    	dword ptr [esp + 0x18], esi
  0x1d76	dec    	eax
  === BLOCK LINK ===
    0x1d77
=== CODE BLOCK END ===

=== CODE BLOCK ADDRESS 0x1d77 ===
  0x1d77	mov    	dword ptr [esp + 0x20], edi
  0x1d7b	push   	ebp
  0x1d7c	inc    	ecx
  0x1d7d	push   	esi
  0x1d7e	inc    	ecx
  === BLOCK LINK ===
    0x1d7f
=== CODE BLOCK END ===

=== CODE BLOCK ADDRESS 0x1d7f ===
  0x1d7f	push   	edi
  0x1d80	dec    	eax
  0x1d81	mov    	ebp, esp
  0x1d83	dec    	eax
  0x1d84	sub    	esp, 0x70
  === BLOCK LINK ===
    0x1d87
=== CODE BLOCK END ===

=== CODE BLOCK ADDRESS 0x1d87 ===
  0x1d87	xor    	ebx, ebx
  0x1d89	mov    	eax, 0x80000000
  0x1d8e	dec    	eax
  0x1d8f	add    	eax, ecx
  0x1d91	dec    	eax
  === BLOCK LINK ===
    0x1d92
=== CODE BLOCK END ===

=== CODE BLOCK ADDRESS 0x1d92 ===
  0x1d92	mov    	dword ptr [ebp + 0x20], ebx
  0x1d95	xor    	edi, edi
  0x1d97	inc    	ebp
  0x1d98	mov    	esi, ecx
  0x1d9a	dec    	esp
  === BLOCK LINK ===
    0x1d9b
=== CODE BLOCK END ===

=== CODE BLOCK ADDRESS 0x1d9b ===
  0x1d9b	mov    	edi, edx
  0x1d9d	dec    	eax
  0x1d9e	mov    	esi, ecx
  0x1da0	dec    	eax
  0x1da1	cmp    	eax, 7
  === BLOCK LINK ===
    0x1da4
=== CODE BLOCK END ===

=== CODE BLOCK ADDRESS 0x1da4 ===
  0x1da4	ja     	0x1db9
  === BLOCK LINK ===
    0x1da6
=== CODE BLOCK END ===

=== CODE BLOCK ADDRESS 0x1da6 ===
  0x1da6	dec    	eax
  0x1da7	lea    	edx, [ebp + 0x20]
  0x1daa	call   	0x1c98
  === BLOCK LINK ===
    0x1daf
=== CODE BLOCK END ===

=== CODE BLOCK ADDRESS 0x1daf ===
  0x1daf	dec    	eax
  0x1db0	mov    	ebx, dword ptr [ebp + 0x20]
  0x1db3	mov    	edi, eax
  0x1db5	test   	eax, eax
  0x1db7	jne    	0x1e2d
  === BLOCK LINK ===
    0x1db9
=== CODE BLOCK END ===

=== CODE BLOCK ADDRESS 0x1db9 ===
  0x1db9	dec    	ecx
  0x1dba	mov    	edx, edi
  0x1dbc	dec    	eax
  0x1dbd	lea    	ecx, [ebp - 0x48]
  0x1dc0	dec    	eax
  === BLOCK LINK ===
    0x1dc1
=== CODE BLOCK END ===

=== CODE BLOCK ADDRESS 0x1dc1 ===
  0x1dc1	call   	dword ptr [0x2579]
  === BLOCK LINK ===
    0x1dc7
=== CODE BLOCK END ===

=== CODE BLOCK ADDRESS 0x1dc7 ===
  0x1dc7	nop    	dword ptr [eax + eax]
  0x1dcc	dec    	eax
  0x1dcd	lea    	eax, [ebp - 0x48]
  0x1dd0	mov    	dword ptr [ebp - 0x38], 0x30
  0x1dd7	xorps  	xmm0, xmm0
  === BLOCK LINK ===
    0x1dda
=== CODE BLOCK END ===

=== CODE BLOCK ADDRESS 0x1dda ===
  0x1dda	mov    	dword ptr [ebp - 0x20], 0x40
  0x1de1	dec    	eax
  0x1de2	test   	ebx, ebx
  0x1de4	dec    	eax
  0x1de5	mov    	dword ptr [ebp - 0x28], eax
  === BLOCK LINK ===
    0x1de8
=== CODE BLOCK END ===

=== CODE BLOCK ADDRESS 0x1de8 ===
  0x1de8	dec    	esp
  0x1de9	lea    	eax, [ebp - 0x38]
  0x1dec	inc    	ecx
  0x1ded	mov    	edx, esi
  0x1def	dec    	eax
  === BLOCK LINK ===
    0x1df0
=== CODE BLOCK END ===

=== CODE BLOCK ADDRESS 0x1df0 ===
  0x1df0	cmovne  	esi, ebx
  0x1df3	dec    	eax
  0x1df4	lea    	ecx, [ebp - 0x50]
  0x1df7	dec    	eax
  0x1df8	mov    	dword ptr [ebp - 0x30], esi
  === BLOCK LINK ===
    0x1dfb
=== CODE BLOCK END ===

=== CODE BLOCK ADDRESS 0x1dfb ===
  0x1dfb	movdqu  	xmmword ptr [ebp - 0x18], xmm0
  0x1e00	dec    	eax
  0x1e01	call   	dword ptr [0x2541]
  === BLOCK LINK ===
    0x1e07
=== CODE BLOCK END ===

=== CODE BLOCK ADDRESS 0x1e07 ===
  0x1e07	nop    	dword ptr [eax + eax]
  0x1e0c	test   	eax, eax
  0x1e0e	jns    	0x1e22
  === BLOCK LINK ===
    0x1e10
=== CODE BLOCK END ===

=== CODE BLOCK ADDRESS 0x1e10 ===
  0x1e10	mov    	ecx, eax
  0x1e12	dec    	eax
  0x1e13	call   	dword ptr [0x2537]
  === BLOCK LINK ===
    0x1e19
=== CODE BLOCK END ===

=== CODE BLOCK ADDRESS 0x1e19 ===
  0x1e19	nop    	dword ptr [eax + eax]
  0x1e1e	mov    	edi, eax
  0x1e20	jmp    	0x1e2d
  === BLOCK LINK ===
    0x1e22
=== CODE BLOCK END ===

=== CODE BLOCK ADDRESS 0x1e22 ===
  0x1e22	dec    	eax
  0x1e23	mov    	eax, dword ptr [ebp + 0x40]
  0x1e26	dec    	eax
  0x1e27	arpl   	word ptr [ebp - 0x50], cx
  0x1e2a	dec    	eax
  === BLOCK LINK ===
    0x1e2b
=== CODE BLOCK END ===

=== CODE BLOCK ADDRESS 0x1e2b ===
  0x1e2b	mov    	dword ptr [eax], ecx
  0x1e2d	dec    	eax
  0x1e2e	test   	ebx, ebx
  0x1e30	je     	0x1e40
  === BLOCK LINK ===
    0x1e32
=== CODE BLOCK END ===

=== CODE BLOCK ADDRESS 0x1e32 ===
  0x1e32	mov    	ecx, ebx
  0x1e34	dec    	eax
  0x1e35	call   	dword ptr [0x24fd]
  === BLOCK LINK ===
    0x1e3b
=== CODE BLOCK END ===

=== CODE BLOCK ADDRESS 0x1e3b ===
  0x1e3b	nop    	dword ptr [eax + eax]
  0x1e40	dec    	esp
  0x1e41	lea    	ebx, [esp + 0x70]
  0x1e45	mov    	eax, edi
  0x1e47	dec    	ecx
  === BLOCK LINK ===
    0x1e48
=== CODE BLOCK END ===

=== CODE BLOCK ADDRESS 0x1e48 ===
  0x1e48	mov    	ebx, dword ptr [ebx + 0x28]
  0x1e4b	dec    	ecx
  0x1e4c	mov    	esi, dword ptr [ebx + 0x30]
  0x1e4f	dec    	ecx
  0x1e50	mov    	edi, dword ptr [ebx + 0x38]
  === BLOCK LINK ===
    0x1e53
=== CODE BLOCK END ===

=== CODE BLOCK ADDRESS 0x1e53 ===
  0x1e53	dec    	ecx
  0x1e54	mov    	esp, ebx
  0x1e56	inc    	ecx
  0x1e57	pop    	edi
  0x1e58	inc    	ecx
  === BLOCK LINK ===
    0x1e59
=== CODE BLOCK END ===

=== CODE BLOCK ADDRESS 0x1e59 ===
  0x1e59	pop    	esi
  0x1e5a	pop    	ebp
  0x1e5b	ret    	
  0x1e5c	int3   	
  0x1e5d	int3   	
  === BLOCK LINK ===
    0x1e5e
=== CODE BLOCK END ===

=== CODE BLOCK ADDRESS 0x1220 ===
=== CODE BLOCK END ===

=== CODE BLOCK ADDRESS 0x1e5e ===
  0x1e5e	int3   	
  0x1e5f	int3   	
  0x1e60	int3   	
  0x1e61	int3   	
  0x1e62	int3   	
  === BLOCK LINK ===
    0x1e63
=== CODE BLOCK END ===

=== CODE BLOCK ADDRESS 0x1e63 ===
  0x1e63	int3   	
  0x1e64	inc    	eax
  0x1e65	push   	ebx
  0x1e66	push   	ebp
  0x1e67	push   	esi
  === BLOCK LINK ===
    0x1e68
=== CODE BLOCK END ===

=== CODE BLOCK ADDRESS 0x1e68 ===
  0x1e68	push   	edi
  0x1e69	inc    	ecx
  0x1e6a	push   	esp
  0x1e6b	inc    	ecx
  0x1e6c	push   	ebp
  === BLOCK LINK ===
    0x1e6d
=== CODE BLOCK END ===

=== CODE BLOCK ADDRESS 0x1e6d ===
  0x1e6d	inc    	ecx
  0x1e6e	push   	esi
  0x1e6f	inc    	ecx
  0x1e70	push   	edi
  0x1e71	dec    	eax
  === BLOCK LINK ===
    0x1e72
=== CODE BLOCK END ===

=== CODE BLOCK ADDRESS 0x1e72 ===
  0x1e72	sub    	esp, 0x68
  0x1e75	dec    	eax
  0x1e76	mov    	eax, dword ptr [0x418c]
  0x1e7c	dec    	eax
  0x1e7d	xor    	eax, esp
  === BLOCK LINK ===
    0x1e7f
=== CODE BLOCK END ===

=== CODE BLOCK ADDRESS 0x1e7f ===
  0x1e7f	dec    	eax
  0x1e80	mov    	dword ptr [esp + 0x58], eax
  0x1e84	dec    	esp
  0x1e85	mov    	esi, dword ptr [esp + 0xd0]
  0x1e8c	xor    	edi, edi
  === BLOCK LINK ===
    0x1e8e
=== CODE BLOCK END ===

=== CODE BLOCK ADDRESS 0x1e8e ===
  0x1e8e	dec    	ecx
  0x1e8f	mov    	ebp, ecx
  0x1e91	dec    	ebp
  0x1e92	mov    	edi, eax
  0x1e94	dec    	esp
  === BLOCK LINK ===
    0x1e95
=== CODE BLOCK END ===

=== CODE BLOCK ADDRESS 0x1e95 ===
  0x1e95	mov    	ebp, edx
  0x1e97	dec    	esp
  0x1e98	mov    	esp, ecx
  0x1e9a	dec    	ebp
  0x1e9b	test   	ecx, ecx
  === BLOCK LINK ===
    0x1e9d
=== CODE BLOCK END ===

=== CODE BLOCK ADDRESS 0x1e9d ===
  0x1e9d	je     	0x1ecd
  === BLOCK LINK ===
    0x1e9f
=== CODE BLOCK END ===

=== CODE BLOCK ADDRESS 0x1e9f ===
  0x1e9f	inc    	ecx
  0x1ea0	mov    	esi, dword ptr [esi]
  0x1ea2	xor    	edx, edx
  0x1ea4	dec    	eax
  0x1ea5	mov    	ecx, dword ptr [0x47cd]
  === BLOCK LINK ===
    0x1eab
=== CODE BLOCK END ===

=== CODE BLOCK ADDRESS 0x1eab ===
  0x1eab	add    	esi, 0xf
  0x1eae	inc    	esp
  0x1eaf	mov    	eax, esi
  0x1eb1	dec    	eax
  0x1eb2	call   	dword ptr [0x22a8]
  === BLOCK LINK ===
    0x1eb8
=== CODE BLOCK END ===

=== CODE BLOCK ADDRESS 0x1eb8 ===
  0x1eb8	nop    	dword ptr [eax + eax]
  0x1ebd	dec    	eax
  0x1ebe	mov    	ebx, eax
  0x1ec0	dec    	eax
  0x1ec1	test   	eax, eax
  === BLOCK LINK ===
    0x1ec3
=== CODE BLOCK END ===

=== CODE BLOCK ADDRESS 0x1ec3 ===
  0x1ec3	jne    	0x1ed7
  === BLOCK LINK ===
    0x1ec5
=== CODE BLOCK END ===

=== CODE BLOCK ADDRESS 0x1ec5 ===
  0x1ec5	lea    	edi, [eax + 0xe]
  0x1ec8	jmp    	0x1f96
  === BLOCK LINK ===
    0x1ecd
=== CODE BLOCK END ===

=== CODE BLOCK ADDRESS 0x1ecd ===
  0x1ecd	dec    	eax
  0x1ece	lea    	ebx, [esp + 0x48]
  0x1ed2	mov    	esi, 0x10
  0x1ed7	dec    	ecx
  0x1ed8	mov    	edx, ebp
  === BLOCK LINK ===
    0x1eda
=== CODE BLOCK END ===

=== CODE BLOCK ADDRESS 0x1eda ===
  0x1eda	dec    	eax
  0x1edb	lea    	ecx, [esp + 0x38]
  0x1edf	dec    	eax
  0x1ee0	call   	dword ptr [0x245a]
  === BLOCK LINK ===
    0x1ee6
=== CODE BLOCK END ===

=== CODE BLOCK ADDRESS 0x1ee6 ===
  0x1ee6	nop    	dword ptr [eax + eax]
  0x1eeb	dec    	eax
  0x1eec	lea    	eax, [esp + 0x30]
  0x1ef0	inc    	ecx
  0x1ef1	mov    	ecx, esp
  === BLOCK LINK ===
    0x1ef3
=== CODE BLOCK END ===

=== CODE BLOCK ADDRESS 0x1ef3 ===
  0x1ef3	dec    	eax
  0x1ef4	mov    	dword ptr [esp + 0x28], eax
  0x1ef8	dec    	eax
  0x1ef9	lea    	edx, [esp + 0x38]
  0x1efd	dec    	esp
  === BLOCK LINK ===
    0x1efe
=== CODE BLOCK END ===

=== CODE BLOCK ADDRESS 0x1efe ===
  0x1efe	mov    	ecx, ebx
  0x1f00	mov    	dword ptr [esp + 0x20], esi
  0x1f04	inc    	ecx
  0x1f05	mov    	eax, 2
  0x1f0a	dec    	eax
  === BLOCK LINK ===
    0x1f0b
=== CODE BLOCK END ===

=== CODE BLOCK ADDRESS 0x1f0b ===
  0x1f0b	call   	dword ptr [0x2447]
  === BLOCK LINK ===
    0x1f11
=== CODE BLOCK END ===

=== CODE BLOCK ADDRESS 0x1f11 ===
  0x1f11	nop    	dword ptr [eax + eax]
  0x1f16	mov    	edx, 0x80000000
  0x1f1b	mov    	ecx, eax
  0x1f1d	add    	eax, edx
  0x1f1f	test   	edx, eax
  === BLOCK LINK ===
    0x1f21
=== CODE BLOCK END ===

=== CODE BLOCK ADDRESS 0x1f21 ===
  0x1f21	jne    	0x1f3b
  === BLOCK LINK ===
    0x1f23
=== CODE BLOCK END ===

=== CODE BLOCK ADDRESS 0x1f23 ===
  0x1f23	cmp    	ecx, 0x80000005
  0x1f29	je     	0x1f3b
  === BLOCK LINK ===
    0x1f2b
=== CODE BLOCK END ===

=== CODE BLOCK ADDRESS 0x1f2b ===
  0x1f2b	dec    	eax
  0x1f2c	call   	dword ptr [0x241e]
  === BLOCK LINK ===
    0x1f32
=== CODE BLOCK END ===

=== CODE BLOCK ADDRESS 0x1f32 ===
  0x1f32	nop    	dword ptr [eax + eax]
  0x1f37	mov    	edi, eax
  0x1f39	jmp    	0x1f6f
  === BLOCK LINK ===
    0x1f3b
=== CODE BLOCK END ===

=== CODE BLOCK ADDRESS 0x1f3b ===
  0x1f3b	dec    	eax
  0x1f3c	test   	ebp, ebp
  0x1f3e	je     	0x1f5e
  === BLOCK LINK ===
    0x1f40
=== CODE BLOCK END ===

=== CODE BLOCK ADDRESS 0x1f40 ===
  0x1f40	mov    	eax, dword ptr [ebx + 8]
  0x1f43	inc    	ecx
  0x1f44	cmp    	dword ptr [esi], eax
  0x1f46	jb     	0x1f59
  === BLOCK LINK ===
    0x1f48
=== CODE BLOCK END ===

=== CODE BLOCK ADDRESS 0x1f48 ===
  0x1f48	inc    	esp
  0x1f49	mov    	eax, eax
  0x1f4b	dec    	eax
  0x1f4c	lea    	edx, [ebx + 0xc]
  0x1f4f	dec    	eax
  === BLOCK LINK ===
    0x1f50
=== CODE BLOCK END ===

=== CODE BLOCK ADDRESS 0x1f50 ===
  0x1f50	mov    	ecx, ebp
  0x1f52	call   	0x31bd
  === BLOCK LINK ===
    0x1f57
=== CODE BLOCK END ===

=== CODE BLOCK ADDRESS 0x1f57 ===
  0x1f57	jmp    	0x1f5e
  === BLOCK LINK ===
    0x1f59
=== CODE BLOCK END ===

=== CODE BLOCK ADDRESS 0x1f59 ===
  0x1f59	mov    	edi, 0x7a
  0x1f5e	mov    	eax, dword ptr [ebx + 8]
  0x1f61	inc    	ecx
  0x1f62	mov    	dword ptr [esi], eax
  0x1f64	dec    	ebp
  === BLOCK LINK ===
    0x1f65
=== CODE BLOCK END ===

=== CODE BLOCK ADDRESS 0x1f65 ===
  0x1f65	test   	edi, edi
  0x1f67	je     	0x1f6f
  === BLOCK LINK ===
    0x1f69
=== CODE BLOCK END ===

=== CODE BLOCK ADDRESS 0x1f69 ===
  0x1f69	mov    	eax, dword ptr [ebx + 4]
  0x1f6c	inc    	ecx
  0x1f6d	mov    	dword ptr [edi], eax
  0x1f6f	dec    	eax
  0x1f70	test   	ebx, ebx
  === BLOCK LINK ===
    0x1f72
=== CODE BLOCK END ===

=== CODE BLOCK ADDRESS 0x1f72 ===
  0x1f72	je     	0x1f96
  === BLOCK LINK ===
    0x1f74
=== CODE BLOCK END ===

=== CODE BLOCK ADDRESS 0x1f74 ===
  0x1f74	dec    	eax
  0x1f75	lea    	eax, [esp + 0x48]
  0x1f79	dec    	eax
  0x1f7a	cmp    	ebx, eax
  0x1f7c	je     	0x1f96
  === BLOCK LINK ===
    0x1f7e
=== CODE BLOCK END ===

=== CODE BLOCK ADDRESS 0x1f7e ===
  0x1f7e	dec    	eax
  0x1f7f	mov    	ecx, dword ptr [0x46f3]
  0x1f85	dec    	esp
  0x1f86	mov    	eax, ebx
  0x1f88	xor    	edx, edx
  === BLOCK LINK ===
    0x1f8a
=== CODE BLOCK END ===

=== CODE BLOCK ADDRESS 0x1f8a ===
  0x1f8a	dec    	eax
  0x1f8b	call   	dword ptr [0x21d7]
  === BLOCK LINK ===
    0x1f91
=== CODE BLOCK END ===

=== CODE BLOCK ADDRESS 0x1f91 ===
  0x1f91	nop    	dword ptr [eax + eax]
  0x1f96	mov    	eax, edi
  0x1f98	dec    	eax
  0x1f99	mov    	ecx, dword ptr [esp + 0x58]
  0x1f9d	dec    	eax
  === BLOCK LINK ===
    0x1f9e
=== CODE BLOCK END ===

=== CODE BLOCK ADDRESS 0x1f9e ===
  0x1f9e	xor    	ecx, esp
  0x1fa0	call   	0x2b40
  === BLOCK LINK ===
    0x1fa5
=== CODE BLOCK END ===

=== CODE BLOCK ADDRESS 0x1fa5 ===
  0x1fa5	dec    	eax
  0x1fa6	add    	esp, 0x68
  0x1fa9	inc    	ecx
  0x1faa	pop    	edi
  0x1fab	inc    	ecx
  === BLOCK LINK ===
    0x1fac
=== CODE BLOCK END ===

=== CODE BLOCK ADDRESS 0x1fac ===
  0x1fac	pop    	esi
  0x1fad	inc    	ecx
  0x1fae	pop    	ebp
  0x1faf	inc    	ecx
  0x1fb0	pop    	esp
  === BLOCK LINK ===
    0x1fb1
=== CODE BLOCK END ===

=== CODE BLOCK ADDRESS 0x1fb1 ===
  0x1fb1	pop    	edi
  0x1fb2	pop    	esi
  0x1fb3	pop    	ebp
  0x1fb4	pop    	ebx
  0x1fb5	ret    	
  === BLOCK LINK ===
    0x1fb6
=== CODE BLOCK END ===

=== CODE BLOCK ADDRESS 0x1fb6 ===
  0x1fb6	int3   	
  0x1fb7	int3   	
  0x1fb8	int3   	
  0x1fb9	int3   	
  0x1fba	int3   	
  === BLOCK LINK ===
    0x1fbb
=== CODE BLOCK END ===

=== CODE BLOCK ADDRESS 0x1fbb ===
  0x1fbb	int3   	
  0x1fbc	int3   	
  0x1fbd	int3   	
  0x1fbe	int3   	
  0x1fbf	int3   	
  === BLOCK LINK ===
    0x1fc0
=== CODE BLOCK END ===

=== CODE BLOCK ADDRESS 0x1fc0 ===
  0x1fc0	dec    	eax
  0x1fc1	mov    	dword ptr [esp + 8], ebx
  0x1fc5	dec    	eax
  0x1fc6	mov    	dword ptr [esp + 0x10], ebp
  0x1fca	dec    	eax
  === BLOCK LINK ===
    0x1fcb
=== CODE BLOCK END ===

=== CODE BLOCK ADDRESS 0x1fcb ===
  0x1fcb	mov    	dword ptr [esp + 0x18], esi
  0x1fcf	push   	edi
  0x1fd0	dec    	eax
  0x1fd1	sub    	esp, 0x20
  0x1fd4	dec    	eax
  === BLOCK LINK ===
    0x1fd5
=== CODE BLOCK END ===

=== CODE BLOCK ADDRESS 0x1fd5 ===
  0x1fd5	or     	eax, 0xffffffff
  0x1fd8	dec    	eax
  0x1fd9	mov    	edi, ecx
  0x1fdb	xor    	ebp, ebp
  0x1fdd	dec    	eax
  === BLOCK LINK ===
    0x1fde
=== CODE BLOCK END ===

=== CODE BLOCK ADDRESS 0x1fde ===
  0x1fde	inc    	eax
  0x1fe0	cmp    	word ptr [ecx + eax*2], bp
  0x1fe4	jne    	0x1fdd
  === BLOCK LINK ===
    0x1fe6
=== CODE BLOCK END ===

=== CODE BLOCK ADDRESS 0x1fe6 ===
  0x1fe6	inc    	eax
  0x1fe8	mov    	ecx, 0xffffffff
  0x1fed	mov    	esi, eax
  0x1fef	dec    	eax
  0x1ff0	add    	eax, eax
  === BLOCK LINK ===
    0x1ff2
=== CODE BLOCK END ===

=== CODE BLOCK ADDRESS 0x1ff2 ===
  0x1ff2	dec    	eax
  0x1ff3	cmp    	eax, ecx
  0x1ff5	ja     	0x2040
  === BLOCK LINK ===
    0x1ff7
=== CODE BLOCK END ===

=== CODE BLOCK ADDRESS 0x1ff7 ===
  0x1ff7	dec    	eax
  0x1ff8	mov    	ecx, dword ptr [0x467a]
  0x1ffe	xor    	edx, edx
  0x2000	inc    	esp
  0x2001	mov    	eax, eax
  === BLOCK LINK ===
    0x2003
=== CODE BLOCK END ===

=== CODE BLOCK ADDRESS 0x2003 ===
  0x2003	dec    	eax
  0x2004	call   	dword ptr [0x2156]
  === BLOCK LINK ===
    0x200a
=== CODE BLOCK END ===

=== CODE BLOCK ADDRESS 0x200a ===
  0x200a	nop    	dword ptr [eax + eax]
  0x200f	dec    	eax
  0x2010	mov    	ebx, eax
  0x2012	dec    	eax
  0x2013	test   	eax, eax
  === BLOCK LINK ===
    0x2015
=== CODE BLOCK END ===

=== CODE BLOCK ADDRESS 0x2015 ===
  0x2015	je     	0x2043
  === BLOCK LINK ===
    0x2017
=== CODE BLOCK END ===

=== CODE BLOCK ADDRESS 0x2017 ===
  0x2017	dec    	esp
  0x2018	mov    	eax, edi
  0x201a	mov    	edx, esi
  0x201c	dec    	eax
  0x201d	mov    	ecx, eax
  === BLOCK LINK ===
    0x201f
=== CODE BLOCK END ===

=== CODE BLOCK ADDRESS 0x201f ===
  0x201f	call   	0x1ac0
  === BLOCK LINK ===
    0x2024
=== CODE BLOCK END ===

=== CODE BLOCK ADDRESS 0x2024 ===
  0x2024	test   	eax, eax
  0x2026	jns    	0x2043
  === BLOCK LINK ===
    0x2028
=== CODE BLOCK END ===

=== CODE BLOCK ADDRESS 0x2028 ===
  0x2028	dec    	eax
  0x2029	mov    	ecx, dword ptr [0x4649]
  0x202f	dec    	esp
  0x2030	mov    	eax, ebx
  0x2032	xor    	edx, edx
  === BLOCK LINK ===
    0x2034
=== CODE BLOCK END ===

=== CODE BLOCK ADDRESS 0x2034 ===
  0x2034	dec    	eax
  0x2035	call   	dword ptr [0x212d]
  === BLOCK LINK ===
    0x203b
=== CODE BLOCK END ===

=== CODE BLOCK ADDRESS 0x203b ===
  0x203b	nop    	dword ptr [eax + eax]
  0x2040	dec    	eax
  0x2041	mov    	ebx, ebp
  0x2043	dec    	eax
  0x2044	mov    	ebp, dword ptr [esp + 0x38]
  === BLOCK LINK ===
    0x2048
=== CODE BLOCK END ===

=== CODE BLOCK ADDRESS 0x2048 ===
  0x2048	dec    	eax
  0x2049	mov    	eax, ebx
  0x204b	dec    	eax
  0x204c	mov    	ebx, dword ptr [esp + 0x30]
  0x2050	dec    	eax
  === BLOCK LINK ===
    0x2051
=== CODE BLOCK END ===

=== CODE BLOCK ADDRESS 0x2051 ===
  0x2051	mov    	esi, dword ptr [esp + 0x40]
  0x2055	dec    	eax
  0x2056	add    	esp, 0x20
  0x2059	pop    	edi
  0x205a	ret    	
  === BLOCK LINK ===
    0x205b
=== CODE BLOCK END ===

=== CODE BLOCK ADDRESS 0x121a ===
  0x121a	mov    	dword ptr [0x5460], edi
  0x1220	dec    	eax
  === BLOCK LINK ===
    0x1221
=== CODE BLOCK END ===

=== CODE BLOCK ADDRESS 0x205b ===
  0x205b	int3   	
  0x205c	int3   	
  0x205d	int3   	
  0x205e	int3   	
  0x205f	int3   	
  === BLOCK LINK ===
    0x2060
=== CODE BLOCK END ===

=== CODE BLOCK ADDRESS 0x2060 ===
  0x2060	int3   	
  0x2061	int3   	
  0x2062	int3   	
  0x2063	int3   	
  0x2064	dec    	eax
  === BLOCK LINK ===
    0x2065
=== CODE BLOCK END ===

=== CODE BLOCK ADDRESS 0x2065 ===
  0x2065	mov    	dword ptr [esp + 8], ebx
  0x2069	dec    	eax
  0x206a	mov    	dword ptr [esp + 0x10], esi
  0x206e	dec    	eax
  0x206f	mov    	dword ptr [esp + 0x18], edi
  === BLOCK LINK ===
    0x2073
=== CODE BLOCK END ===

=== CODE BLOCK ADDRESS 0x2073 ===
  0x2073	inc    	ecx
  0x2074	push   	esi
  0x2075	dec    	eax
  0x2076	sub    	esp, 0x20
  0x2079	xor    	ebx, ebx
  === BLOCK LINK ===
    0x207b
=== CODE BLOCK END ===

=== CODE BLOCK ADDRESS 0x207b ===
  0x207b	inc    	ecx
  0x207c	mov    	esi, eax
  0x207e	dec    	ecx
  0x207f	or     	eax, 0xffffffff
  0x2082	dec    	esp
  === BLOCK LINK ===
    0x2083
=== CODE BLOCK END ===

=== CODE BLOCK ADDRESS 0x2083 ===
  0x2083	mov    	edx, edx
  0x2085	dec    	ebp
  0x2086	mov    	ecx, eax
  0x2088	dec    	esp
  0x2089	mov    	esi, ecx
  === BLOCK LINK ===
    0x208b
=== CODE BLOCK END ===

=== CODE BLOCK ADDRESS 0x208b ===
  0x208b	mov    	edi, ebx
  0x208d	dec    	ecx
  0x208e	inc    	ecx
  0x2090	inc    	dx
  0x2092	cmp    	dword ptr [ecx + ecx*2], ebx
  === BLOCK LINK ===
    0x2095
=== CODE BLOCK END ===

=== CODE BLOCK ADDRESS 0x2095 ===
  0x2095	jne    	0x208d
  === BLOCK LINK ===
    0x2097
=== CODE BLOCK END ===

=== CODE BLOCK ADDRESS 0x2097 ===
  0x2097	dec    	ecx
  0x2098	inc    	eax
  0x209a	inc    	dx
  0x209c	cmp    	dword ptr [edx + eax*2], ebx
  0x209f	jne    	0x2097
  === BLOCK LINK ===
    0x20a1
=== CODE BLOCK END ===

=== CODE BLOCK ADDRESS 0x20a1 ===
  0x20a1	or     	edx, 0xffffffff
  0x20a4	inc    	ecx
  0x20a5	mov    	ebx, 0x5c
  0x20aa	inc    	ebp
  0x20ab	test   	ecx, ecx
  === BLOCK LINK ===
    0x20ad
=== CODE BLOCK END ===

=== CODE BLOCK ADDRESS 0x20ad ===
  0x20ad	je     	0x20c5
  === BLOCK LINK ===
    0x20af
=== CODE BLOCK END ===

=== CODE BLOCK ADDRESS 0x20af ===
  0x20af	inc    	ecx
  0x20b0	mov    	eax, ecx
  0x20b2	inc    	sp
  0x20b4	cmp    	dword ptr [ecx + eax*2 - 2], ebx
  0x20b8	je     	0x20c2
  === BLOCK LINK ===
    0x20ba
=== CODE BLOCK END ===

=== CODE BLOCK ADDRESS 0x20ba ===
  0x20ba	cmp    	word ptr [ecx + eax*2 - 2], 0x2f
  0x20c0	jne    	0x20c5
  === BLOCK LINK ===
    0x20c2
=== CODE BLOCK END ===

=== CODE BLOCK ADDRESS 0x20c2 ===
  0x20c2	inc    	esp
  0x20c3	add    	ecx, edx
  0x20c5	inc    	bp
  0x20c7	cmp    	dword ptr [edx], ebx
  0x20c9	je     	0x20d6
  === BLOCK LINK ===
    0x20cb
=== CODE BLOCK END ===

=== CODE BLOCK ADDRESS 0x20cb ===
  0x20cb	inc    	cx
  0x20cd	cmp    	dword ptr [edx], 0x2f
  0x20d0	je     	0x20d6
  === BLOCK LINK ===
    0x20d2
=== CODE BLOCK END ===

=== CODE BLOCK ADDRESS 0x20d2 ===
  0x20d2	mov    	ecx, ebx
  0x20d4	jmp    	0x20de
  === BLOCK LINK ===
    0x20d6
=== CODE BLOCK END ===

=== CODE BLOCK ADDRESS 0x20d6 ===
  0x20d6	mov    	ecx, 1
  0x20db	inc    	esp
  0x20dc	add    	eax, edx
  0x20de	inc    	ecx
  0x20df	lea    	eax, [ecx + 2]
  === BLOCK LINK ===
    0x20e2
=== CODE BLOCK END ===

=== CODE BLOCK ADDRESS 0x20e2 ===
  0x20e2	inc    	ecx
  0x20e3	add    	eax, eax
  0x20e5	cmp    	eax, esi
  0x20e7	ja     	0x2132
  === BLOCK LINK ===
    0x20e9
=== CODE BLOCK END ===

=== CODE BLOCK ADDRESS 0x20e9 ===
  0x20e9	test   	ecx, ecx
  0x20eb	jne    	0x20fd
  === BLOCK LINK ===
    0x20ed
=== CODE BLOCK END ===

=== CODE BLOCK ADDRESS 0x20ed ===
  0x20ed	inc    	esp
  0x20ee	cmp    	ecx, esi
  0x20f0	jae    	0x2102
  === BLOCK LINK ===
    0x20f2
=== CODE BLOCK END ===

=== CODE BLOCK ADDRESS 0x20f2 ===
  0x20f2	inc    	ecx
  0x20f3	mov    	eax, ecx
  0x20f5	inc    	ecx
  0x20f6	inc    	ecx
  0x20f8	inc    	bp
  === BLOCK LINK ===
    0x20fa
=== CODE BLOCK END ===

=== CODE BLOCK ADDRESS 0x20fa ===
  0x20fa	mov    	dword ptr [esi + eax*2], ebx
  0x20fd	inc    	esp
  0x20fe	cmp    	ecx, esi
  0x2100	jb     	0x2109
  === BLOCK LINK ===
    0x2102
=== CODE BLOCK END ===

=== CODE BLOCK ADDRESS 0x2102 ===
  0x2102	mov    	edi, 0xce
  0x2107	jmp    	0x2124
  === BLOCK LINK ===
    0x2109
=== CODE BLOCK END ===

=== CODE BLOCK ADDRESS 0x2109 ===
  0x2109	inc    	ecx
  0x210a	mov    	eax, ecx
  0x210c	mov    	edx, esi
  0x210e	inc    	ecx
  0x210f	sub    	edx, ecx
  === BLOCK LINK ===
    0x2111
=== CODE BLOCK END ===

=== CODE BLOCK ADDRESS 0x2111 ===
  0x2111	dec    	ebp
  0x2112	mov    	eax, edx
  0x2114	dec    	ecx
  0x2115	lea    	ecx, [esi + eax*2]
  0x2118	call   	0x1ac0
  === BLOCK LINK ===
    0x211d
=== CODE BLOCK END ===

=== CODE BLOCK ADDRESS 0x211d ===
  0x211d	test   	eax, eax
  0x211f	jns    	0x2124
  === BLOCK LINK ===
    0x2121
=== CODE BLOCK END ===

=== CODE BLOCK ADDRESS 0x2121 ===
  0x2121	movzx  	edi, ax
  0x2124	test   	esi, esi
  0x2126	je     	0x2137
  === BLOCK LINK ===
    0x2128
=== CODE BLOCK END ===

=== CODE BLOCK ADDRESS 0x2128 ===
  0x2128	lea    	eax, [esi - 1]
  0x212b	inc    	cx
  0x212d	mov    	dword ptr [esi + eax*2], ebx
  0x2130	jmp    	0x2137
  === BLOCK LINK ===
    0x2132
=== CODE BLOCK END ===

=== CODE BLOCK ADDRESS 0x2132 ===
  0x2132	mov    	edi, 0xce
  0x2137	test   	edi, edi
  0x2139	je     	0x214b
  === BLOCK LINK ===
    0x213b
=== CODE BLOCK END ===

=== CODE BLOCK ADDRESS 0x213b ===
  0x213b	mov    	ecx, edi
  0x213d	dec    	eax
  0x213e	call   	dword ptr [0x20f4]
  === BLOCK LINK ===
    0x2144
=== CODE BLOCK END ===

=== CODE BLOCK ADDRESS 0x2144 ===
  0x2144	nop    	dword ptr [eax + eax]
  0x2149	test   	edi, edi
  0x214b	dec    	eax
  0x214c	mov    	esi, dword ptr [esp + 0x38]
  0x2150	sete   	bl
  === BLOCK LINK ===
    0x2153
=== CODE BLOCK END ===

=== CODE BLOCK ADDRESS 0x2153 ===
  0x2153	dec    	eax
  0x2154	mov    	edi, dword ptr [esp + 0x40]
  0x2158	mov    	eax, ebx
  0x215a	dec    	eax
  0x215b	mov    	ebx, dword ptr [esp + 0x30]
  === BLOCK LINK ===
    0x215f
=== CODE BLOCK END ===

=== CODE BLOCK ADDRESS 0x215f ===
  0x215f	dec    	eax
  0x2160	add    	esp, 0x20
  0x2163	inc    	ecx
  0x2164	pop    	esi
  0x2165	ret    	
  === BLOCK LINK ===
    0x2166
=== CODE BLOCK END ===

=== CODE BLOCK ADDRESS 0x2166 ===
  0x2166	int3   	
  0x2167	int3   	
  0x2168	int3   	
  0x2169	int3   	
  0x216a	int3   	
  === BLOCK LINK ===
    0x216b
=== CODE BLOCK END ===

=== CODE BLOCK ADDRESS 0x216b ===
  0x216b	int3   	
  0x216c	int3   	
  0x216d	int3   	
  0x216e	int3   	
  0x216f	int3   	
  === BLOCK LINK ===
    0x2170
=== CODE BLOCK END ===

=== CODE BLOCK ADDRESS 0x2170 ===
  0x2170	dec    	esp
  0x2171	mov    	dword ptr [esp + 0x18], eax
  0x2175	push   	ebx
  0x2176	push   	esi
  0x2177	push   	edi
  === BLOCK LINK ===
    0x2178
=== CODE BLOCK END ===

=== CODE BLOCK ADDRESS 0x2178 ===
  0x2178	inc    	ecx
  0x2179	push   	esp
  0x217a	inc    	ecx
  0x217b	push   	ebp
  0x217c	inc    	ecx
  === BLOCK LINK ===
    0x217d
=== CODE BLOCK END ===

=== CODE BLOCK ADDRESS 0x217d ===
  0x217d	push   	esi
  0x217e	inc    	ecx
  0x217f	push   	edi
  0x2180	dec    	eax
  0x2181	sub    	esp, 0x40
  === BLOCK LINK ===
    0x2184
=== CODE BLOCK END ===

=== CODE BLOCK ADDRESS 0x2184 ===
  0x2184	dec    	ecx
  0x2185	mov    	edi, eax
  0x2187	dec    	eax
  0x2188	mov    	esi, edx
  0x218a	dec    	esp
  === BLOCK LINK ===
    0x218b
=== CODE BLOCK END ===

=== CODE BLOCK ADDRESS 0x218b ===
  0x218b	mov    	edi, ecx
  0x218d	xor    	ebx, ebx
  0x218f	dec    	eax
  0x2190	test   	ecx, ecx
  0x2192	jne    	0x21c7
  === BLOCK LINK ===
    0x2194
=== CODE BLOCK END ===

=== CODE BLOCK ADDRESS 0x2194 ===
  0x2194	dec    	eax
  0x2195	test   	edx, edx
  0x2197	jne    	0x21c7
  === BLOCK LINK ===
    0x2199
=== CODE BLOCK END ===

=== CODE BLOCK ADDRESS 0x2199 ===
  0x2199	inc    	esp
  0x219a	lea    	eax, [ecx + 2]
  0x219d	dec    	eax
  0x219e	mov    	ecx, dword ptr [0x44d4]
  0x21a4	dec    	eax
  === BLOCK LINK ===
    0x21a5
=== CODE BLOCK END ===

=== CODE BLOCK ADDRESS 0x21a5 ===
  0x21a5	call   	dword ptr [0x1fb5]
  === BLOCK LINK ===
    0x21ab
=== CODE BLOCK END ===

=== CODE BLOCK ADDRESS 0x21ab ===
  0x21ab	nop    	dword ptr [eax + eax]
  0x21b0	dec    	eax
  0x21b1	mov    	dword ptr [edi], eax
  0x21b3	dec    	eax
  0x21b4	test   	eax, eax
  === BLOCK LINK ===
    0x21b6
=== CODE BLOCK END ===

=== CODE BLOCK ADDRESS 0x21b6 ===
  0x21b6	je     	0x22c8
  === BLOCK LINK ===
    0x21bc
=== CODE BLOCK END ===

=== CODE BLOCK ADDRESS 0x21bc ===
  0x21bc	mov    	word ptr [eax], bx
  0x21bf	lea    	eax, [ebx + 1]
  0x21c2	jmp    	0x22ca
  === BLOCK LINK ===
    0x21c7
=== CODE BLOCK END ===

=== CODE BLOCK ADDRESS 0x21c7 ===
  0x21c7	dec    	ebp
  0x21c8	test   	edi, edi
  0x21ca	jne    	0x21ee
  === BLOCK LINK ===
    0x21cc
=== CODE BLOCK END ===

=== CODE BLOCK ADDRESS 0x21cc ===
  0x21cc	dec    	eax
  0x21cd	test   	esi, esi
  0x21cf	jne    	0x21d6
  === BLOCK LINK ===
    0x21d1
=== CODE BLOCK END ===

=== CODE BLOCK ADDRESS 0x21d1 ===
  0x21d1	dec    	eax
  0x21d2	mov    	eax, ebx
  0x21d4	jmp    	0x21de
  === BLOCK LINK ===
    0x21d6
=== CODE BLOCK END ===

=== CODE BLOCK ADDRESS 0x21d6 ===
  0x21d6	dec    	eax
  0x21d7	mov    	ecx, esi
  0x21d9	call   	0x1fc0
  === BLOCK LINK ===
    0x21de
=== CODE BLOCK END ===

=== CODE BLOCK ADDRESS 0x21de ===
  0x21de	dec    	eax
  0x21df	mov    	dword ptr [edi], eax
  0x21e1	dec    	eax
  0x21e2	test   	eax, eax
  0x21e4	setne  	bl
  === BLOCK LINK ===
    0x21e7
=== CODE BLOCK END ===

=== CODE BLOCK ADDRESS 0x21e7 ===
  0x21e7	mov    	eax, ebx
  0x21e9	jmp    	0x22ca
  === BLOCK LINK ===
    0x21ee
=== CODE BLOCK END ===

=== CODE BLOCK ADDRESS 0x21ee ===
  0x21ee	dec    	eax
  0x21ef	test   	esi, esi
  0x21f1	je     	0x21d9
  === BLOCK LINK ===
    0x21f3
=== CODE BLOCK END ===

=== CODE BLOCK ADDRESS 0x21f3 ===
  0x21f3	dec    	eax
  0x21f4	or     	eax, 0xffffffff
  0x21f7	dec    	eax
  0x21f8	mov    	ecx, eax
  0x21fa	dec    	eax
  === BLOCK LINK ===
    0x21fb
=== CODE BLOCK END ===

=== CODE BLOCK ADDRESS 0x21fb ===
  0x21fb	inc    	ecx
  0x21fd	inc    	cx
  0x21ff	cmp    	dword ptr [edi + ecx*2], ebx
  0x2202	jne    	0x21fa
  === BLOCK LINK ===
    0x2204
=== CODE BLOCK END ===

=== CODE BLOCK ADDRESS 0x2204 ===
  0x2204	dec    	eax
  0x2205	inc    	eax
  0x2207	cmp    	word ptr [edx + eax*2], bx
  0x220b	jne    	0x2204
  === BLOCK LINK ===
    0x220d
=== CODE BLOCK END ===

=== CODE BLOCK ADDRESS 0x220d ===
  0x220d	inc    	esp
  0x220e	lea    	esp, [eax + 2]
  0x2211	inc    	esp
  0x2212	add    	esp, ecx
  0x2214	inc    	ebp
  === BLOCK LINK ===
    0x2215
=== CODE BLOCK END ===

=== CODE BLOCK ADDRESS 0x2215 ===
  0x2215	mov    	ebp, esp
  0x2217	dec    	edx
  0x2218	lea    	eax, [0]
  0x221f	mov    	ecx, 0xffffffff
  0x2224	dec    	eax
  === BLOCK LINK ===
    0x2225
=== CODE BLOCK END ===

=== CODE BLOCK ADDRESS 0x2225 ===
  0x2225	cmp    	eax, ecx
  0x2227	ja     	0x22c5
  === BLOCK LINK ===
    0x222d
=== CODE BLOCK END ===

=== CODE BLOCK ADDRESS 0x222d ===
  0x222d	mov    	dword ptr [esp + 0x80], eax
  0x2234	inc    	esp
  0x2235	mov    	eax, eax
  0x2237	xor    	edx, edx
  0x2239	dec    	eax
  === BLOCK LINK ===
    0x223a
=== CODE BLOCK END ===

=== CODE BLOCK ADDRESS 0x223a ===
  0x223a	mov    	ecx, dword ptr [0x4438]
  0x2240	dec    	eax
  0x2241	call   	dword ptr [0x1f19]
  === BLOCK LINK ===
    0x2247
=== CODE BLOCK END ===

=== CODE BLOCK ADDRESS 0x2247 ===
  0x2247	nop    	dword ptr [eax + eax]
  0x224c	dec    	esp
  0x224d	mov    	esi, eax
  0x224f	dec    	eax
  0x2250	mov    	dword ptr [esp + 0x98], eax
  === BLOCK LINK ===
    0x2257
=== CODE BLOCK END ===

=== CODE BLOCK ADDRESS 0x2257 ===
  0x2257	dec    	eax
  0x2258	test   	eax, eax
  0x225a	je     	0x22c5
  === BLOCK LINK ===
    0x225c
=== CODE BLOCK END ===

=== CODE BLOCK ADDRESS 0x225c ===
  0x225c	dec    	ebp
  0x225d	mov    	eax, edi
  0x225f	inc    	ecx
  0x2260	mov    	edx, ebp
  0x2262	dec    	eax
  === BLOCK LINK ===
    0x2263
=== CODE BLOCK END ===

=== CODE BLOCK ADDRESS 0x2263 ===
  0x2263	mov    	ecx, eax
  0x2265	call   	0x1ac0
  === BLOCK LINK ===
    0x226a
=== CODE BLOCK END ===

=== CODE BLOCK ADDRESS 0x226a ===
  0x226a	inc    	ebp
  0x226b	mov    	eax, esp
  0x226d	dec    	eax
  0x226e	mov    	edx, esi
  0x2270	dec    	ecx
  === BLOCK LINK ===
    0x2271
=== CODE BLOCK END ===

=== CODE BLOCK ADDRESS 0x2271 ===
  0x2271	mov    	ecx, esi
  0x2273	call   	0x2064
  === BLOCK LINK ===
    0x2278
=== CODE BLOCK END ===

=== CODE BLOCK ADDRESS 0x2278 ===
  0x2278	mov    	esi, eax
  0x227a	mov    	dword ptr [esp + 0x2c], eax
  0x227e	jmp    	0x229f
  === BLOCK LINK ===
    0x2280
=== CODE BLOCK END ===

=== CODE BLOCK ADDRESS 0x2280 ===
  0x2280	mov    	ecx, eax
  0x2282	call   	0x1a60
  === BLOCK LINK ===
    0x2287
=== CODE BLOCK END ===

=== CODE BLOCK ADDRESS 0x2287 ===
  0x2287	xor    	esi, esi
  0x2289	mov    	dword ptr [esp + 0x2c], esi
  0x228d	xor    	ebx, ebx
  0x228f	dec    	eax
  0x2290	mov    	edi, dword ptr [esp + 0x90]
  === BLOCK LINK ===
    0x2297
=== CODE BLOCK END ===

=== CODE BLOCK ADDRESS 0x2297 ===
  0x2297	dec    	esp
  0x2298	mov    	esi, dword ptr [esp + 0x98]
  0x229f	test   	esi, esi
  0x22a1	jne    	0x22be
  === BLOCK LINK ===
    0x22a3
=== CODE BLOCK END ===

=== CODE BLOCK ADDRESS 0x22a3 ===
  0x22a3	dec    	ebp
  0x22a4	mov    	eax, esi
  0x22a6	xor    	edx, edx
  0x22a8	dec    	eax
  0x22a9	mov    	ecx, dword ptr [0x43c9]
  === BLOCK LINK ===
    0x22af
=== CODE BLOCK END ===

=== CODE BLOCK ADDRESS 0x22af ===
  0x22af	dec    	eax
  0x22b0	call   	dword ptr [0x1eb2]
  === BLOCK LINK ===
    0x22b6
=== CODE BLOCK END ===

=== CODE BLOCK ADDRESS 0x22b6 ===
  0x22b6	nop    	dword ptr [eax + eax]
  0x22bb	dec    	esp
  0x22bc	mov    	esi, ebx
  0x22be	dec    	esp
  0x22bf	mov    	dword ptr [edi], esi
  === BLOCK LINK ===
    0x22c1
=== CODE BLOCK END ===

=== CODE BLOCK ADDRESS 0x22c1 ===
  0x22c1	mov    	eax, esi
  0x22c3	jmp    	0x22ca
  === BLOCK LINK ===
    0x22c5
=== CODE BLOCK END ===

=== CODE BLOCK ADDRESS 0x22c5 ===
  0x22c5	dec    	eax
  0x22c6	mov    	dword ptr [edi], ebx
  0x22c8	xor    	eax, eax
  0x22ca	dec    	eax
  0x22cb	add    	esp, 0x40
  === BLOCK LINK ===
    0x22ce
=== CODE BLOCK END ===

=== CODE BLOCK ADDRESS 0x22ce ===
  0x22ce	inc    	ecx
  0x22cf	pop    	edi
  0x22d0	inc    	ecx
  0x22d1	pop    	esi
  0x22d2	inc    	ecx
  === BLOCK LINK ===
    0x22d3
=== CODE BLOCK END ===

=== CODE BLOCK ADDRESS 0x22d3 ===
  0x22d3	pop    	ebp
  0x22d4	inc    	ecx
  0x22d5	pop    	esp
  0x22d6	pop    	edi
  0x22d7	pop    	esi
  === BLOCK LINK ===
    0x22d8
=== CODE BLOCK END ===

=== CODE BLOCK ADDRESS 0x22d8 ===
  0x22d8	pop    	ebx
  0x22d9	ret    	
  0x22da	int3   	
  0x22db	int3   	
  0x22dc	int3   	
  === BLOCK LINK ===
    0x22dd
=== CODE BLOCK END ===

=== CODE BLOCK ADDRESS 0x1414 ===
=== CODE BLOCK END ===

=== CODE BLOCK ADDRESS 0x22dd ===
  0x22dd	int3   	
  0x22de	int3   	
  0x22df	int3   	
  0x22e0	int3   	
  0x22e1	int3   	
  === BLOCK LINK ===
    0x22e2
=== CODE BLOCK END ===

=== CODE BLOCK ADDRESS 0x22e2 ===
  0x22e2	int3   	
  0x22e3	int3   	
  0x22e4	dec    	eax
  0x22e5	mov    	dword ptr [esp + 0x10], ebx
  0x22e9	dec    	eax
  === BLOCK LINK ===
    0x22ea
=== CODE BLOCK END ===

=== CODE BLOCK ADDRESS 0x22ea ===
  0x22ea	mov    	dword ptr [esp + 0x18], esi
  0x22ee	push   	ebp
  0x22ef	push   	edi
  0x22f0	inc    	ecx
  0x22f1	push   	esp
  === BLOCK LINK ===
    0x22f2
=== CODE BLOCK END ===

=== CODE BLOCK ADDRESS 0x22f2 ===
  0x22f2	inc    	ecx
  0x22f3	push   	esi
  0x22f4	inc    	ecx
  0x22f5	push   	edi
  0x22f6	dec    	eax
  === BLOCK LINK ===
    0x22f7
=== CODE BLOCK END ===

=== CODE BLOCK ADDRESS 0x22f7 ===
  0x22f7	lea    	ebp, [esp - 0x150]
  0x22fe	dec    	eax
  0x22ff	sub    	esp, 0x250
  0x2305	dec    	eax
  0x2306	mov    	eax, dword ptr [0x3cfc]
  === BLOCK LINK ===
    0x230c
=== CODE BLOCK END ===

=== CODE BLOCK ADDRESS 0x230c ===
  0x230c	dec    	eax
  0x230d	xor    	eax, esp
  0x230f	dec    	eax
  0x2310	mov    	dword ptr [ebp + 0x140], eax
  0x2316	mov    	ebx, 0x104
  === BLOCK LINK ===
    0x231b
=== CODE BLOCK END ===

=== CODE BLOCK ADDRESS 0x231b ===
  0x231b	dec    	esp
  0x231c	lea    	ecx, [esp + 0x20]
  0x2320	inc    	ebp
  0x2321	xor    	edi, edi
  0x2323	dec    	esp
  === BLOCK LINK ===
    0x2324
=== CODE BLOCK END ===

=== CODE BLOCK ADDRESS 0x2324 ===
  0x2324	lea    	eax, [esp + 0x30]
  0x2328	mov    	edx, ebx
  0x232a	inc    	ecx
  0x232b	mov    	esi, edi
  0x232d	dec    	eax
  === BLOCK LINK ===
    0x232e
=== CODE BLOCK END ===

=== CODE BLOCK ADDRESS 0x232e ===
  0x232e	call   	dword ptr [0x1e24]
  === BLOCK LINK ===
    0x2334
=== CODE BLOCK END ===

=== CODE BLOCK ADDRESS 0x2334 ===
  0x2334	nop    	dword ptr [eax + eax]
  0x2339	cmp    	eax, ebx
  0x233b	jae    	0x2496
  === BLOCK LINK ===
    0x2341
=== CODE BLOCK END ===

=== CODE BLOCK ADDRESS 0x2341 ===
  0x2341	test   	eax, eax
  0x2343	jne    	0x2356
  === BLOCK LINK ===
    0x2345
=== CODE BLOCK END ===

=== CODE BLOCK ADDRESS 0x2345 ===
  0x2345	dec    	eax
  0x2346	call   	dword ptr [0x1e54]
  === BLOCK LINK ===
    0x234c
=== CODE BLOCK END ===

=== CODE BLOCK ADDRESS 0x234c ===
  0x234c	nop    	dword ptr [eax + eax]
  0x2351	jmp    	0x249b
  === BLOCK LINK ===
    0x2356
=== CODE BLOCK END ===

=== CODE BLOCK ADDRESS 0x2356 ===
  0x2356	dec    	eax
  0x2357	mov    	eax, dword ptr [esp + 0x20]
  0x235b	dec    	eax
  0x235c	test   	eax, eax
  0x235e	je     	0x2496
  === BLOCK LINK ===
    0x2364
=== CODE BLOCK END ===

=== CODE BLOCK ADDRESS 0x2364 ===
  0x2364	dec    	eax
  0x2365	lea    	ecx, [esp + 0x30]
  0x2369	dec    	eax
  0x236a	cmp    	eax, ecx
  0x236c	je     	0x2496
  === BLOCK LINK ===
    0x2372
=== CODE BLOCK END ===

=== CODE BLOCK ADDRESS 0x2372 ===
  0x2372	inc    	sp
  0x2374	mov    	dword ptr [eax], edi
  0x2376	inc    	ecx
  0x2377	mov    	esp, 0x5c
  0x237c	movzx  	ecx, word ptr [esp + 0x30]
  === BLOCK LINK ===
    0x2381
=== CODE BLOCK END ===

=== CODE BLOCK ADDRESS 0x2381 ===
  0x2381	lea    	eax, [ecx - 0x41]
  0x2384	cmp    	ax, 0x19
  0x2388	jbe    	0x2393
  === BLOCK LINK ===
    0x238a
=== CODE BLOCK END ===

=== CODE BLOCK ADDRESS 0x238a ===
  0x238a	lea    	eax, [ecx - 0x61]
  0x238d	cmp    	ax, 0x19
  0x2391	ja     	0x23ac
  === BLOCK LINK ===
    0x2393
=== CODE BLOCK END ===

=== CODE BLOCK ADDRESS 0x2393 ===
  0x2393	cmp    	word ptr [esp + 0x32], 0x3a
  0x2399	jne    	0x23ac
  === BLOCK LINK ===
    0x239b
=== CODE BLOCK END ===

=== CODE BLOCK ADDRESS 0x239b ===
  0x239b	inc    	sp
  0x239d	cmp    	dword ptr [esp + 0x34], esp
  0x23a1	jne    	0x2496
  === BLOCK LINK ===
    0x23a7
=== CODE BLOCK END ===

=== CODE BLOCK ADDRESS 0x23a7 ===
  0x23a7	dec    	eax
  0x23a8	lea    	esi, [esp + 0x34]
  0x23ac	inc    	cx
  0x23ae	cmp    	ecx, esp
  0x23b0	jne    	0x23f6
  === BLOCK LINK ===
    0x23b2
=== CODE BLOCK END ===

=== CODE BLOCK ADDRESS 0x23b2 ===
  0x23b2	inc    	sp
  0x23b4	cmp    	dword ptr [esp + 0x32], esp
  0x23b8	jne    	0x23f6
  === BLOCK LINK ===
    0x23ba
=== CODE BLOCK END ===

=== CODE BLOCK ADDRESS 0x23ba ===
  0x23ba	inc    	ecx
  0x23bb	mov    	edx, esp
  0x23bd	dec    	eax
  0x23be	lea    	ecx, [esp + 0x34]
  0x23c2	dec    	eax
  === BLOCK LINK ===
    0x23c3
=== CODE BLOCK END ===

=== CODE BLOCK ADDRESS 0x23c3 ===
  0x23c3	call   	dword ptr [0x1ea7]
  === BLOCK LINK ===
    0x23c9
=== CODE BLOCK END ===

=== CODE BLOCK ADDRESS 0x23c9 ===
  0x23c9	nop    	dword ptr [eax + eax]
  0x23ce	dec    	eax
  0x23cf	test   	eax, eax
  0x23d1	je     	0x2496
  === BLOCK LINK ===
    0x23d7
=== CODE BLOCK END ===

=== CODE BLOCK ADDRESS 0x23d7 ===
  0x23d7	inc    	ecx
  0x23d8	mov    	edx, esp
  0x23da	dec    	eax
  0x23db	lea    	ecx, [eax + 2]
  0x23de	dec    	eax
  === BLOCK LINK ===
    0x23df
=== CODE BLOCK END ===

=== CODE BLOCK ADDRESS 0x23df ===
  0x23df	call   	dword ptr [0x1e8b]
  === BLOCK LINK ===
    0x23e5
=== CODE BLOCK END ===

=== CODE BLOCK ADDRESS 0x23e5 ===
  0x23e5	nop    	dword ptr [eax + eax]
  0x23ea	dec    	eax
  0x23eb	mov    	esi, eax
  0x23ed	dec    	eax
  0x23ee	test   	eax, eax
  === BLOCK LINK ===
    0x23f0
=== CODE BLOCK END ===

=== CODE BLOCK ADDRESS 0x23f0 ===
  0x23f0	je     	0x2496
  === BLOCK LINK ===
    0x23f6
=== CODE BLOCK END ===

=== CODE BLOCK ADDRESS 0x23f6 ===
  0x23f6	dec    	eax
  0x23f7	lea    	ecx, [esp + 0x30]
  0x23fb	dec    	eax
  0x23fc	call   	dword ptr [0x1d4e]
  === BLOCK LINK ===
    0x2402
=== CODE BLOCK END ===

=== CODE BLOCK ADDRESS 0x2402 ===
  0x2402	nop    	dword ptr [eax + eax]
  0x2407	cmp    	eax, -1
  0x240a	je     	0x241b
  === BLOCK LINK ===
    0x240c
=== CODE BLOCK END ===

=== CODE BLOCK ADDRESS 0x240c ===
  0x240c	test   	al, 0x10
  0x240e	je     	0x24cb
  === BLOCK LINK ===
    0x2414
=== CODE BLOCK END ===

=== CODE BLOCK ADDRESS 0x2414 ===
  0x2414	xor    	eax, eax
  0x2416	jmp    	0x249b
  === BLOCK LINK ===
    0x241b
=== CODE BLOCK END ===

=== CODE BLOCK ADDRESS 0x241b ===
  0x241b	dec    	eax
  0x241c	mov    	edi, dword ptr [esp + 0x20]
  0x2420	dec    	eax
  0x2421	lea    	eax, [esp + 0x30]
  0x2425	dec    	eax
  === BLOCK LINK ===
    0x2426
=== CODE BLOCK END ===

=== CODE BLOCK ADDRESS 0x2426 ===
  0x2426	cmp    	edi, eax
  0x2428	jne    	0x2431
  === BLOCK LINK ===
    0x242a
=== CODE BLOCK END ===

=== CODE BLOCK ADDRESS 0x242a ===
  0x242a	dec    	eax
  0x242b	lea    	edi, [esp + 0x30]
  0x242f	jmp    	0x2435
  === BLOCK LINK ===
    0x2431
=== CODE BLOCK END ===

=== CODE BLOCK ADDRESS 0x2431 ===
  0x2431	dec    	eax
  0x2432	add    	edi, -2
  0x2435	dec    	eax
  0x2436	cmp    	edi, esi
  0x2438	je     	0x2496
  === BLOCK LINK ===
    0x243a
=== CODE BLOCK END ===

=== CODE BLOCK ADDRESS 0x243a ===
  0x243a	inc    	sp
  0x243c	cmp    	dword ptr [edi], esp
  0x243e	jne    	0x2496
  === BLOCK LINK ===
    0x2440
=== CODE BLOCK END ===

=== CODE BLOCK ADDRESS 0x2440 ===
  0x2440	dec    	eax
  0x2441	cmp    	edi, esi
  0x2443	jbe    	0x2496
  === BLOCK LINK ===
    0x2445
=== CODE BLOCK END ===

=== CODE BLOCK ADDRESS 0x2445 ===
  0x2445	inc    	ecx
  0x2446	mov    	edx, esp
  0x2448	inc    	sp
  0x244a	mov    	dword ptr [edi], edi
  0x244c	dec    	eax
  === BLOCK LINK ===
    0x244d
=== CODE BLOCK END ===

=== CODE BLOCK ADDRESS 0x244d ===
  0x244d	lea    	ecx, [esp + 0x30]
  0x2451	dec    	eax
  0x2452	call   	dword ptr [0x1e10]
  === BLOCK LINK ===
    0x2458
=== CODE BLOCK END ===

=== CODE BLOCK ADDRESS 0x2458 ===
  0x2458	nop    	dword ptr [eax + eax]
  0x245d	dec    	esp
  0x245e	mov    	esi, eax
  0x2460	dec    	eax
  0x2461	test   	eax, eax
  === BLOCK LINK ===
    0x2463
=== CODE BLOCK END ===

=== CODE BLOCK ADDRESS 0x2463 ===
  0x2463	je     	0x2496
  === BLOCK LINK ===
    0x2465
=== CODE BLOCK END ===

=== CODE BLOCK ADDRESS 0x2465 ===
  0x2465	movzx  	ebx, word ptr [eax + 2]
  0x2469	dec    	eax
  0x246a	lea    	ecx, [esp + 0x30]
  0x246e	inc    	sp
  0x2470	mov    	dword ptr [eax + 2], edi
  === BLOCK LINK ===
    0x2473
=== CODE BLOCK END ===

=== CODE BLOCK ADDRESS 0x2473 ===
  0x2473	dec    	eax
  0x2474	call   	dword ptr [0x1cd6]
  === BLOCK LINK ===
    0x247a
=== CODE BLOCK END ===

=== CODE BLOCK ADDRESS 0x247a ===
  0x247a	nop    	dword ptr [eax + eax]
  0x247f	inc    	cx
  0x2481	mov    	dword ptr [esi + 2], ebx
  0x2484	cmp    	eax, -1
  0x2487	jne    	0x24c7
  === BLOCK LINK ===
    0x2489
=== CODE BLOCK END ===

=== CODE BLOCK ADDRESS 0x2489 ===
  0x2489	dec    	ecx
  0x248a	mov    	edi, esi
  0x248c	dec    	esp
  0x248d	cmp    	esi, esi
  0x248f	ja     	0x2445
  === BLOCK LINK ===
    0x2491
=== CODE BLOCK END ===

=== CODE BLOCK ADDRESS 0x2491 ===
  0x2491	dec    	eax
  0x2492	cmp    	edi, esi
  0x2494	ja     	0x24f3
  === BLOCK LINK ===
    0x2496
=== CODE BLOCK END ===

=== CODE BLOCK ADDRESS 0x2496 ===
  0x2496	mov    	eax, 0x7b
  0x249b	dec    	eax
  0x249c	mov    	ecx, dword ptr [ebp + 0x140]
  0x24a2	dec    	eax
  0x24a3	xor    	ecx, esp
  === BLOCK LINK ===
    0x24a5
=== CODE BLOCK END ===

=== CODE BLOCK ADDRESS 0x24a5 ===
  0x24a5	call   	0x2b40
  === BLOCK LINK ===
    0x24aa
=== CODE BLOCK END ===

=== CODE BLOCK ADDRESS 0x24aa ===
  0x24aa	dec    	esp
  0x24ab	lea    	ebx, [esp + 0x250]
  0x24b2	dec    	ecx
  0x24b3	mov    	ebx, dword ptr [ebx + 0x38]
  0x24b6	dec    	ecx
  === BLOCK LINK ===
    0x24b7
=== CODE BLOCK END ===

=== CODE BLOCK ADDRESS 0x24b7 ===
  0x24b7	mov    	esi, dword ptr [ebx + 0x40]
  0x24ba	dec    	ecx
  0x24bb	mov    	esp, ebx
  0x24bd	inc    	ecx
  0x24be	pop    	edi
  === BLOCK LINK ===
    0x24bf
=== CODE BLOCK END ===

=== CODE BLOCK ADDRESS 0x24bf ===
  0x24bf	inc    	ecx
  0x24c0	pop    	esi
  0x24c1	inc    	ecx
  0x24c2	pop    	esp
  0x24c3	pop    	edi
  === BLOCK LINK ===
    0x24c4
=== CODE BLOCK END ===

=== CODE BLOCK ADDRESS 0x24c4 ===
  0x24c4	pop    	ebp
  0x24c5	ret    	
  0x24c6	int3   	
  0x24c7	test   	al, 0x10
  0x24c9	jne    	0x2491
  === BLOCK LINK ===
    0x24cb
=== CODE BLOCK END ===

=== CODE BLOCK ADDRESS 0x24cb ===
  0x24cb	mov    	eax, 0x10b
  0x24d0	jmp    	0x249b
  === BLOCK LINK ===
    0x24d2
=== CODE BLOCK END ===

=== CODE BLOCK ADDRESS 0x24d2 ===
  0x24d2	inc    	sp
  0x24d4	cmp    	dword ptr [edi + 2], edi
  0x24d7	je     	0x2414
  === BLOCK LINK ===
    0x24dd
=== CODE BLOCK END ===

=== CODE BLOCK ADDRESS 0x24dd ===
  0x24dd	inc    	sp
  0x24df	mov    	dword ptr [edi], esp
  0x24e1	dec    	eax
  0x24e2	or     	eax, 0xffffffff
  0x24e5	dec    	eax
  === BLOCK LINK ===
    0x24e6
=== CODE BLOCK END ===

=== CODE BLOCK ADDRESS 0x24e6 ===
  0x24e6	inc    	eax
  0x24e8	inc    	sp
  0x24ea	cmp    	dword ptr [edi + eax*2], edi
  0x24ed	jne    	0x24e5
  === BLOCK LINK ===
    0x24ef
=== CODE BLOCK END ===

=== CODE BLOCK ADDRESS 0x24ef ===
  0x24ef	dec    	eax
  0x24f0	lea    	edi, [edi + eax*2]
  0x24f3	xor    	edx, edx
  0x24f5	dec    	eax
  0x24f6	lea    	ecx, [esp + 0x30]
  === BLOCK LINK ===
    0x24fa
=== CODE BLOCK END ===

=== CODE BLOCK ADDRESS 0x24fa ===
  0x24fa	dec    	eax
  0x24fb	call   	dword ptr [0x1c47]
  === BLOCK LINK ===
    0x2501
=== CODE BLOCK END ===

=== CODE BLOCK ADDRESS 0x2501 ===
  0x2501	nop    	dword ptr [eax + eax]
  0x2506	test   	eax, eax
  0x2508	jne    	0x24d2
  === BLOCK LINK ===
    0x250a
=== CODE BLOCK END ===

=== CODE BLOCK ADDRESS 0x250a ===
  0x250a	jmp    	0x2345
  === BLOCK LINK ===
    0x250f
=== CODE BLOCK END ===

=== CODE BLOCK ADDRESS 0x250f ===
  0x250f	int3   	
  0x2510	int3   	
  0x2511	int3   	
  0x2512	int3   	
  0x2513	int3   	
  === BLOCK LINK ===
    0x2514
=== CODE BLOCK END ===

=== CODE BLOCK ADDRESS 0x2514 ===
  0x2514	int3   	
  0x2515	int3   	
  0x2516	int3   	
  0x2517	int3   	
  0x2518	dec    	eax
  === BLOCK LINK ===
    0x2519
=== CODE BLOCK END ===

=== CODE BLOCK ADDRESS 0x2519 ===
  0x2519	mov    	dword ptr [esp + 8], ebx
  0x251d	dec    	eax
  0x251e	mov    	dword ptr [esp + 0x10], esi
  0x2522	push   	edi
  0x2523	dec    	eax
  === BLOCK LINK ===
    0x2524
=== CODE BLOCK END ===

=== CODE BLOCK ADDRESS 0x2524 ===
  0x2524	sub    	esp, 0x20
  0x2527	mov    	eax, edx
  0x2529	dec    	eax
  0x252a	lea    	edi, [0x1fb0]
  0x2530	dec    	eax
  === BLOCK LINK ===
    0x2531
=== CODE BLOCK END ===

=== CODE BLOCK ADDRESS 0x2531 ===
  0x2531	mov    	esi, ecx
  0x2533	dec    	esp
  0x2534	lea    	eax, [esp + 0x40]
  0x2538	dec    	eax
  0x2539	lea    	ecx, [0x2129]
  === BLOCK LINK ===
    0x253f
=== CODE BLOCK END ===

=== CODE BLOCK ADDRESS 0x253f ===
  0x253f	xor    	ebx, ebx
  0x2541	test   	edx, edx
  0x2543	dec    	eax
  0x2544	lea    	edx, [0x20f6]
  0x254a	dec    	eax
  === BLOCK LINK ===
    0x254b
=== CODE BLOCK END ===

=== CODE BLOCK ADDRESS 0x254b ===
  0x254b	cmove  	edi, ecx
  0x254e	test   	eax, eax
  0x2550	dec    	eax
  0x2551	cmove  	edx, ecx
  0x2554	dec    	eax
  === BLOCK LINK ===
    0x2555
=== CODE BLOCK END ===

=== CODE BLOCK ADDRESS 0x2555 ===
  0x2555	mov    	ecx, esi
  0x2557	call   	0x2170
  === BLOCK LINK ===
    0x255c
=== CODE BLOCK END ===

=== CODE BLOCK ADDRESS 0x255c ===
  0x255c	test   	eax, eax
  0x255e	je     	0x258d
  === BLOCK LINK ===
    0x2560
=== CODE BLOCK END ===

=== CODE BLOCK ADDRESS 0x2560 ===
  0x2560	dec    	esp
  0x2561	mov    	eax, dword ptr [0x40a9]
  0x2567	dec    	eax
  0x2568	mov    	ebx, dword ptr [esp + 0x40]
  0x256c	dec    	ebp
  === BLOCK LINK ===
    0x256d
=== CODE BLOCK END ===

=== CODE BLOCK ADDRESS 0x256d ===
  0x256d	test   	eax, eax
  0x256f	je     	0x2586
  === BLOCK LINK ===
    0x2571
=== CODE BLOCK END ===

=== CODE BLOCK ADDRESS 0x2571 ===
  0x2571	dec    	eax
  0x2572	mov    	ecx, dword ptr [0x4100]
  0x2578	xor    	edx, edx
  0x257a	dec    	eax
  0x257b	call   	dword ptr [0x1be7]
  === BLOCK LINK ===
    0x2581
=== CODE BLOCK END ===

=== CODE BLOCK ADDRESS 0x2581 ===
  0x2581	nop    	dword ptr [eax + eax]
  0x2586	dec    	eax
  0x2587	mov    	dword ptr [0x4083], ebx
  0x258d	dec    	esp
  0x258e	lea    	eax, [esp + 0x40]
  === BLOCK LINK ===
    0x2592
=== CODE BLOCK END ===

=== CODE BLOCK ADDRESS 0x2592 ===
  0x2592	dec    	eax
  0x2593	mov    	edx, edi
  0x2595	dec    	eax
  0x2596	mov    	ecx, esi
  0x2598	call   	0x2170
  === BLOCK LINK ===
    0x259d
=== CODE BLOCK END ===

=== CODE BLOCK ADDRESS 0x259d ===
  0x259d	test   	eax, eax
  0x259f	je     	0x25ce
  === BLOCK LINK ===
    0x25a1
=== CODE BLOCK END ===

=== CODE BLOCK ADDRESS 0x25a1 ===
  0x25a1	dec    	esp
  0x25a2	mov    	eax, dword ptr [0x4098]
  0x25a8	dec    	eax
  0x25a9	mov    	ebx, dword ptr [esp + 0x40]
  0x25ad	dec    	ebp
  === BLOCK LINK ===
    0x25ae
=== CODE BLOCK END ===

=== CODE BLOCK ADDRESS 0x25ae ===
  0x25ae	test   	eax, eax
  0x25b0	je     	0x25c7
  === BLOCK LINK ===
    0x25b2
=== CODE BLOCK END ===

=== CODE BLOCK ADDRESS 0x25b2 ===
  0x25b2	dec    	eax
  0x25b3	mov    	ecx, dword ptr [0x40bf]
  0x25b9	xor    	edx, edx
  0x25bb	dec    	eax
  0x25bc	call   	dword ptr [0x1ba6]
  === BLOCK LINK ===
    0x25c2
=== CODE BLOCK END ===

=== CODE BLOCK ADDRESS 0x25c2 ===
  0x25c2	nop    	dword ptr [eax + eax]
  0x25c7	dec    	eax
  0x25c8	mov    	dword ptr [0x4072], ebx
  0x25ce	dec    	eax
  0x25cf	test   	ebx, ebx
  === BLOCK LINK ===
    0x25d1
=== CODE BLOCK END ===

=== CODE BLOCK ADDRESS 0x25d1 ===
  0x25d1	je     	0x25db
  === BLOCK LINK ===
    0x25d3
=== CODE BLOCK END ===

=== CODE BLOCK ADDRESS 0x25d3 ===
  0x25d3	dec    	eax
  0x25d4	mov    	ecx, ebx
  0x25d6	call   	0x22e4
  === BLOCK LINK ===
    0x25db
=== CODE BLOCK END ===

=== CODE BLOCK ADDRESS 0x25db ===
  0x25db	dec    	eax
  0x25dc	mov    	ebx, dword ptr [esp + 0x30]
  0x25e0	mov    	eax, 1
  0x25e5	dec    	eax
  0x25e6	mov    	esi, dword ptr [esp + 0x38]
  === BLOCK LINK ===
    0x25ea
=== CODE BLOCK END ===

=== CODE BLOCK ADDRESS 0x25ea ===
  0x25ea	dec    	eax
  0x25eb	add    	esp, 0x20
  0x25ee	pop    	edi
  0x25ef	ret    	
  0x25f0	int3   	
  === BLOCK LINK ===
    0x25f1
=== CODE BLOCK END ===

=== CODE BLOCK ADDRESS 0x1b4c ===
  0x1b4c	dec    	eax
  0x1b4d	mov    	dword ptr [esp + 8], ebx
  0x1b51	dec    	eax
  0x1b52	mov    	dword ptr [esp + 0x10], esi
  === BLOCK LINK ===
    0x1b56
=== CODE BLOCK END ===

=== CODE BLOCK ADDRESS 0x25f1 ===
  0x25f1	int3   	
  0x25f2	int3   	
  0x25f3	int3   	
  0x25f4	int3   	
  0x25f5	int3   	
  === BLOCK LINK ===
    0x25f6
=== CODE BLOCK END ===

=== CODE BLOCK ADDRESS 0x25f6 ===
  0x25f6	int3   	
  0x25f7	int3   	
  0x25f8	dec    	eax
  0x25f9	sub    	esp, 0x28
  0x25fc	dec    	esp
  === BLOCK LINK ===
    0x25fd
=== CODE BLOCK END ===

=== CODE BLOCK ADDRESS 0x25fd ===
  0x25fd	mov    	eax, dword ptr [0x406d]
  0x2603	dec    	ebp
  0x2604	test   	eax, eax
  0x2606	je     	0x2625
  === BLOCK LINK ===
    0x2608
=== CODE BLOCK END ===

=== CODE BLOCK ADDRESS 0x2608 ===
  0x2608	dec    	eax
  0x2609	mov    	ecx, dword ptr [0x4069]
  0x260f	xor    	edx, edx
  0x2611	dec    	eax
  0x2612	call   	dword ptr [0x1b50]
  === BLOCK LINK ===
    0x2618
=== CODE BLOCK END ===

=== CODE BLOCK ADDRESS 0x2618 ===
  0x2618	nop    	dword ptr [eax + eax]
  0x261d	dec    	eax
  0x261e	and    	dword ptr [0x404b], 0
  0x2625	dec    	esp
  0x2626	mov    	eax, dword ptr [0x403c]
  === BLOCK LINK ===
    0x262c
=== CODE BLOCK END ===

=== CODE BLOCK ADDRESS 0x262c ===
  0x262c	dec    	ebp
  0x262d	test   	eax, eax
  0x262f	je     	0x264e
  === BLOCK LINK ===
    0x2631
=== CODE BLOCK END ===

=== CODE BLOCK ADDRESS 0x2631 ===
  0x2631	dec    	eax
  0x2632	mov    	ecx, dword ptr [0x4040]
  0x2638	xor    	edx, edx
  0x263a	dec    	eax
  0x263b	call   	dword ptr [0x1b27]
  === BLOCK LINK ===
    0x2641
=== CODE BLOCK END ===

=== CODE BLOCK ADDRESS 0x2641 ===
  0x2641	nop    	dword ptr [eax + eax]
  0x2646	dec    	eax
  0x2647	and    	dword ptr [0x401a], 0
  0x264e	dec    	esp
  0x264f	mov    	eax, dword ptr [0x400b]
  === BLOCK LINK ===
    0x2655
=== CODE BLOCK END ===

=== CODE BLOCK ADDRESS 0x2655 ===
  0x2655	dec    	ebp
  0x2656	test   	eax, eax
  0x2658	je     	0x2677
  === BLOCK LINK ===
    0x265a
=== CODE BLOCK END ===

=== CODE BLOCK ADDRESS 0x265a ===
  0x265a	dec    	eax
  0x265b	mov    	ecx, dword ptr [0x4017]
  0x2661	xor    	edx, edx
  0x2663	dec    	eax
  0x2664	call   	dword ptr [0x1afe]
  === BLOCK LINK ===
    0x266a
=== CODE BLOCK END ===

=== CODE BLOCK ADDRESS 0x266a ===
  0x266a	nop    	dword ptr [eax + eax]
  0x266f	dec    	eax
  0x2670	and    	dword ptr [0x3fe9], 0
  0x2677	mov    	eax, 1
  0x267c	dec    	eax
  === BLOCK LINK ===
    0x267d
=== CODE BLOCK END ===

=== CODE BLOCK ADDRESS 0x267d ===
  0x267d	add    	esp, 0x28
  0x2680	ret    	
  0x2681	int3   	
  0x2682	int3   	
  0x2683	int3   	
  === BLOCK LINK ===
    0x2684
=== CODE BLOCK END ===

=== CODE BLOCK ADDRESS 0x2684 ===
  0x2684	int3   	
  0x2685	int3   	
  0x2686	int3   	
  0x2687	int3   	
  0x2688	dec    	eax
  === BLOCK LINK ===
    0x2689
=== CODE BLOCK END ===

=== CODE BLOCK ADDRESS 0x2689 ===
  0x2689	mov    	dword ptr [esp + 8], ebx
  0x268d	push   	edi
  0x268e	dec    	eax
  0x268f	sub    	esp, 0x20
  0x2692	dec    	esp
  === BLOCK LINK ===
    0x2693
=== CODE BLOCK END ===

=== CODE BLOCK ADDRESS 0x2693 ===
  0x2693	mov    	eax, dword ptr [0x3fd7]
  0x2699	dec    	eax
  0x269a	mov    	edi, ecx
  0x269c	dec    	ebp
  0x269d	test   	eax, eax
  === BLOCK LINK ===
    0x269f
=== CODE BLOCK END ===

=== CODE BLOCK ADDRESS 0x269f ===
  0x269f	je     	0x26be
  === BLOCK LINK ===
    0x26a1
=== CODE BLOCK END ===

=== CODE BLOCK ADDRESS 0x26a1 ===
  0x26a1	dec    	eax
  0x26a2	mov    	ecx, dword ptr [0x3fd0]
  0x26a8	xor    	edx, edx
  0x26aa	dec    	eax
  0x26ab	call   	dword ptr [0x1ab7]
  === BLOCK LINK ===
    0x26b1
=== CODE BLOCK END ===

=== CODE BLOCK ADDRESS 0x26b1 ===
  0x26b1	nop    	dword ptr [eax + eax]
  0x26b6	dec    	eax
  0x26b7	and    	dword ptr [0x3fb2], 0
  0x26be	dec    	esp
  0x26bf	lea    	eax, [0x3fab]
  === BLOCK LINK ===
    0x26c5
=== CODE BLOCK END ===

=== CODE BLOCK ADDRESS 0x26c5 ===
  0x26c5	dec    	eax
  0x26c6	mov    	ecx, edi
  0x26c8	dec    	eax
  0x26c9	lea    	edx, [0x1fc9]
  0x26cf	call   	0x2170
  === BLOCK LINK ===
    0x26d4
=== CODE BLOCK END ===

=== CODE BLOCK ADDRESS 0x26d4 ===
  0x26d4	mov    	ebx, eax
  0x26d6	test   	eax, eax
  0x26d8	je     	0x2768
  === BLOCK LINK ===
    0x26de
=== CODE BLOCK END ===

=== CODE BLOCK ADDRESS 0x26de ===
  0x26de	dec    	esp
  0x26df	mov    	eax, dword ptr [0x3f83]
  0x26e5	dec    	ebp
  0x26e6	test   	eax, eax
  0x26e8	je     	0x2707
  === BLOCK LINK ===
    0x26ea
=== CODE BLOCK END ===

=== CODE BLOCK ADDRESS 0x26ea ===
  0x26ea	dec    	eax
  0x26eb	mov    	ecx, dword ptr [0x3f87]
  0x26f1	xor    	edx, edx
  0x26f3	dec    	eax
  0x26f4	call   	dword ptr [0x1a6e]
  === BLOCK LINK ===
    0x26fa
=== CODE BLOCK END ===

=== CODE BLOCK ADDRESS 0x26fa ===
  0x26fa	nop    	dword ptr [eax + eax]
  0x26ff	dec    	eax
  0x2700	and    	dword ptr [0x3f61], 0
  0x2707	dec    	esp
  0x2708	lea    	eax, [0x3f5a]
  === BLOCK LINK ===
    0x270e
=== CODE BLOCK END ===

=== CODE BLOCK ADDRESS 0x270e ===
  0x270e	dec    	eax
  0x270f	mov    	ecx, edi
  0x2711	dec    	eax
  0x2712	lea    	edx, [0x1fa0]
  0x2718	call   	0x2170
  === BLOCK LINK ===
    0x271d
=== CODE BLOCK END ===

=== CODE BLOCK ADDRESS 0x271d ===
  0x271d	mov    	ebx, eax
  0x271f	test   	eax, eax
  0x2721	je     	0x2768
  === BLOCK LINK ===
    0x2723
=== CODE BLOCK END ===

=== CODE BLOCK ADDRESS 0x2723 ===
  0x2723	dec    	esp
  0x2724	mov    	eax, dword ptr [0x3f36]
  0x272a	dec    	ebp
  0x272b	test   	eax, eax
  0x272d	je     	0x274c
  === BLOCK LINK ===
    0x272f
=== CODE BLOCK END ===

=== CODE BLOCK ADDRESS 0x272f ===
  0x272f	dec    	eax
  0x2730	mov    	ecx, dword ptr [0x3f42]
  0x2736	xor    	edx, edx
  0x2738	dec    	eax
  0x2739	call   	dword ptr [0x1a29]
  === BLOCK LINK ===
    0x273f
=== CODE BLOCK END ===

=== CODE BLOCK ADDRESS 0x273f ===
  0x273f	nop    	dword ptr [eax + eax]
  0x2744	dec    	eax
  0x2745	and    	dword ptr [0x3f14], 0
  0x274c	dec    	esp
  0x274d	lea    	eax, [0x3f0d]
  === BLOCK LINK ===
    0x2753
=== CODE BLOCK END ===

=== CODE BLOCK ADDRESS 0x2753 ===
  0x2753	dec    	eax
  0x2754	mov    	ecx, edi
  0x2756	dec    	eax
  0x2757	lea    	edx, [0x1f7b]
  0x275d	call   	0x2170
  === BLOCK LINK ===
    0x2762
=== CODE BLOCK END ===

=== CODE BLOCK ADDRESS 0x2762 ===
  0x2762	mov    	ebx, eax
  0x2764	test   	eax, eax
  0x2766	jne    	0x276d
  === BLOCK LINK ===
    0x2768
=== CODE BLOCK END ===

=== CODE BLOCK ADDRESS 0x2768 ===
  0x2768	call   	0x25f8
  === BLOCK LINK ===
    0x276d
=== CODE BLOCK END ===

=== CODE BLOCK ADDRESS 0x276d ===
  0x276d	mov    	eax, ebx
  0x276f	dec    	eax
  0x2770	mov    	ebx, dword ptr [esp + 0x30]
  0x2774	dec    	eax
  0x2775	add    	esp, 0x20
  === BLOCK LINK ===
    0x2778
=== CODE BLOCK END ===

=== CODE BLOCK ADDRESS 0x2778 ===
  0x2778	pop    	edi
  0x2779	ret    	
  0x277a	int3   	
  0x277b	int3   	
  0x277c	int3   	
  === BLOCK LINK ===
    0x277d
=== CODE BLOCK END ===

=== CODE BLOCK ADDRESS 0x1344 ===
=== CODE BLOCK END ===

=== CODE BLOCK ADDRESS 0x277d ===
  0x277d	int3   	
  0x277e	int3   	
  0x277f	int3   	
  0x2780	int3   	
  0x2781	int3   	
  === BLOCK LINK ===
    0x2782
=== CODE BLOCK END ===

=== CODE BLOCK ADDRESS 0x2782 ===
  0x2782	int3   	
  0x2783	int3   	
  0x2784	int3   	
  0x2785	int3   	
  0x2786	int3   	
  === BLOCK LINK ===
    0x2787
=== CODE BLOCK END ===

=== CODE BLOCK ADDRESS 0x2787 ===
  0x2787	int3   	
  0x2788	int3   	
  0x2789	int3   	
  0x278a	int3   	
  0x278b	int3   	
  === BLOCK LINK ===
    0x278c
=== CODE BLOCK END ===

=== CODE BLOCK ADDRESS 0x278c ===
  0x278c	int3   	
  0x278d	int3   	
  0x278e	int3   	
  0x278f	int3   	
  0x2790	dec    	eax
  === BLOCK LINK ===
    0x2791
=== CODE BLOCK END ===

=== CODE BLOCK ADDRESS 0x2791 ===
  0x2791	sub    	esp, 0x28
  0x2794	mov    	eax, 0x5a4d
  0x2799	cmp    	word ptr [0xffffd860], ax
  0x27a0	je     	0x27a6
  === BLOCK LINK ===
    0x27a2
=== CODE BLOCK END ===

=== CODE BLOCK ADDRESS 0x27a2 ===
  0x27a2	xor    	eax, eax
  0x27a4	jmp    	0x27f9
  === BLOCK LINK ===
    0x27a6
=== CODE BLOCK END ===

=== CODE BLOCK ADDRESS 0x27a6 ===
  0x27a6	dec    	eax
  0x27a7	arpl   	word ptr [0xffffd88f], cx
  0x27ad	dec    	eax
  0x27ae	lea    	eax, [0xffffd84c]
  0x27b4	dec    	eax
  === BLOCK LINK ===
    0x27b5
=== CODE BLOCK END ===

=== CODE BLOCK ADDRESS 0x27b5 ===
  0x27b5	add    	ecx, eax
  0x27b7	cmp    	dword ptr [ecx], 0x4550
  0x27bd	jne    	0x27a2
  === BLOCK LINK ===
    0x27bf
=== CODE BLOCK END ===

=== CODE BLOCK ADDRESS 0x27bf ===
  0x27bf	mov    	eax, 0x10b
  0x27c4	cmp    	word ptr [ecx + 0x18], ax
  0x27c8	je     	0x27e8
  === BLOCK LINK ===
    0x27ca
=== CODE BLOCK END ===

=== CODE BLOCK ADDRESS 0x27ca ===
  0x27ca	mov    	eax, 0x20b
  0x27cf	cmp    	word ptr [ecx + 0x18], ax
  0x27d3	jne    	0x27a2
  === BLOCK LINK ===
    0x27d5
=== CODE BLOCK END ===

=== CODE BLOCK ADDRESS 0x27d5 ===
  0x27d5	xor    	eax, eax
  0x27d7	cmp    	dword ptr [ecx + 0x84], 0xe
  0x27de	jbe    	0x27f9
  === BLOCK LINK ===
    0x27e0
=== CODE BLOCK END ===

=== CODE BLOCK ADDRESS 0x27e0 ===
  0x27e0	cmp    	dword ptr [ecx + 0xf8], eax
  0x27e6	jmp    	0x27f6
  === BLOCK LINK ===
    0x27e8
=== CODE BLOCK END ===

=== CODE BLOCK ADDRESS 0x27e8 ===
  0x27e8	xor    	eax, eax
  0x27ea	cmp    	dword ptr [ecx + 0x74], 0xe
  0x27ee	jbe    	0x27f9
  === BLOCK LINK ===
    0x27f0
=== CODE BLOCK END ===

=== CODE BLOCK ADDRESS 0x27f0 ===
  0x27f0	cmp    	dword ptr [ecx + 0xe8], eax
  0x27f6	setne  	al
  0x27f9	mov    	ecx, 2
  0x27fe	mov    	dword ptr [0x384c], eax
  0x2804	call   	0x2c38
  === BLOCK LINK ===
    0x2809
=== CODE BLOCK END ===

=== CODE BLOCK ADDRESS 0x2809 ===
  0x2809	mov    	ecx, eax
  0x280b	call   	dword ptr [0x1ab7]
  === BLOCK LINK ===
    0x2811
=== CODE BLOCK END ===

=== CODE BLOCK ADDRESS 0x2811 ===
  0x2811	dec    	eax
  0x2812	mov    	ecx, dword ptr [0x1ae0]
  0x2818	dec    	eax
  0x2819	or     	eax, 0xffffffff
  0x281c	dec    	eax
  === BLOCK LINK ===
    0x281d
=== CODE BLOCK END ===

=== CODE BLOCK ADDRESS 0x281d ===
  0x281d	mov    	dword ptr [0x3e65], eax
  0x2823	dec    	eax
  0x2824	mov    	dword ptr [0x3e66], eax
  0x282a	mov    	eax, dword ptr [0x3834]
  0x2830	mov    	dword ptr [ecx], eax
  === BLOCK LINK ===
    0x2832
=== CODE BLOCK END ===

=== CODE BLOCK ADDRESS 0x2832 ===
  0x2832	dec    	eax
  0x2833	mov    	ecx, dword ptr [0x1a4f]
  0x2839	mov    	eax, dword ptr [0x3819]
  0x283f	mov    	dword ptr [ecx], eax
  0x2841	call   	0x2c90
  === BLOCK LINK ===
    0x2846
=== CODE BLOCK END ===

=== CODE BLOCK ADDRESS 0x2846 ===
  0x2846	cmp    	dword ptr [0x37b3], 0
  0x284d	jne    	0x285c
  === BLOCK LINK ===
    0x284f
=== CODE BLOCK END ===

=== CODE BLOCK ADDRESS 0x284f ===
  0x284f	dec    	eax
  0x2850	lea    	ecx, [0x43a]
  0x2856	call   	dword ptr [0x1a44]
  === BLOCK LINK ===
    0x285c
=== CODE BLOCK END ===

=== CODE BLOCK ADDRESS 0x285c ===
  0x285c	xor    	eax, eax
  0x285e	dec    	eax
  0x285f	add    	esp, 0x28
  0x2862	ret    	
  0x2863	int3   	
  === BLOCK LINK ===
    0x2864
=== CODE BLOCK END ===

=== CODE BLOCK ADDRESS 0x2864 ===
  0x2864	int3   	
  0x2865	int3   	
  0x2866	int3   	
  0x2867	int3   	
  0x2868	int3   	
  === BLOCK LINK ===
    0x2869
=== CODE BLOCK END ===

=== CODE BLOCK ADDRESS 0x2869 ===
  0x2869	int3   	
  0x286a	int3   	
  0x286b	int3   	
  0x286c	int3   	
  0x286d	int3   	
  === BLOCK LINK ===
    0x286e
=== CODE BLOCK END ===

=== CODE BLOCK ADDRESS 0x286e ===
  0x286e	int3   	
  0x286f	int3   	
  0x2870	dec    	eax
  0x2871	sub    	esp, 0x38
  0x2874	mov    	eax, dword ptr [0x37e6]
  === BLOCK LINK ===
    0x287a
=== CODE BLOCK END ===

=== CODE BLOCK ADDRESS 0x287a ===
  0x287a	dec    	esp
  0x287b	lea    	eax, [0x37c7]
  0x2881	inc    	esp
  0x2882	mov    	ecx, dword ptr [0x37d4]
  0x2888	dec    	eax
  === BLOCK LINK ===
    0x2889
=== CODE BLOCK END ===

=== CODE BLOCK ADDRESS 0x2889 ===
  0x2889	lea    	edx, [0x37b1]
  0x288f	mov    	dword ptr [0x37bf], eax
  0x2895	dec    	eax
  0x2896	lea    	ecx, [0x379c]
  0x289c	dec    	eax
  === BLOCK LINK ===
    0x289d
=== CODE BLOCK END ===

=== CODE BLOCK ADDRESS 0x289d ===
  0x289d	lea    	eax, [0x37b1]
  0x28a3	dec    	eax
  0x28a4	mov    	dword ptr [esp + 0x20], eax
  0x28a8	call   	dword ptr [0x1a22]
  === BLOCK LINK ===
    0x28ae
=== CODE BLOCK END ===

=== CODE BLOCK ADDRESS 0x28ae ===
  0x28ae	mov    	dword ptr [0x3788], eax
  0x28b4	dec    	eax
  0x28b5	add    	esp, 0x38
  0x28b8	ret    	
  0x28b9	int3   	
  === BLOCK LINK ===
    0x28ba
=== CODE BLOCK END ===

=== CODE BLOCK ADDRESS 0x28ba ===
  0x28ba	int3   	
  0x28bb	int3   	
  0x28bc	int3   	
  0x28bd	int3   	
  0x28be	int3   	
  === BLOCK LINK ===
    0x28bf
=== CODE BLOCK END ===

=== CODE BLOCK ADDRESS 0x28bf ===
  0x28bf	int3   	
  0x28c0	dec    	eax
  0x28c1	sub    	esp, 0x28
  0x28c4	call   	0x2d84
  === BLOCK LINK ===
    0x28c9
=== CODE BLOCK END ===

=== CODE BLOCK ADDRESS 0x28c9 ===
  0x28c9	dec    	eax
  0x28ca	add    	esp, 0x28
  0x28cd	jmp    	0x28d8
  === BLOCK LINK ===
    0x28d2
=== CODE BLOCK END ===

=== CODE BLOCK ADDRESS 0x28d2 ===
  0x28d2	int3   	
  0x28d3	int3   	
  0x28d4	int3   	
  0x28d5	int3   	
  0x28d6	int3   	
  === BLOCK LINK ===
    0x28d7
=== CODE BLOCK END ===

=== CODE BLOCK ADDRESS 0x28d7 ===
  0x28d7	int3   	
  0x28d8	dec    	eax
  0x28d9	mov    	dword ptr [esp + 8], ebx
  0x28dd	dec    	eax
  0x28de	mov    	dword ptr [esp + 0x10], edi
  === BLOCK LINK ===
    0x28e2
=== CODE BLOCK END ===

=== CODE BLOCK ADDRESS 0x28e2 ===
  0x28e2	inc    	ecx
  0x28e3	push   	esi
  0x28e4	dec    	eax
  0x28e5	sub    	esp, 0xb0
  0x28eb	and    	dword ptr [esp + 0x20], 0
  === BLOCK LINK ===
    0x28f0
=== CODE BLOCK END ===

=== CODE BLOCK ADDRESS 0x28f0 ===
  0x28f0	dec    	eax
  0x28f1	lea    	ecx, [esp + 0x40]
  0x28f5	call   	dword ptr [0x18bd]
  === BLOCK LINK ===
    0x28fb
=== CODE BLOCK END ===

=== CODE BLOCK ADDRESS 0x28fb ===
  0x28fb	nop    	
  0x28fc	dec    	eax
  0x28fe	mov    	eax, dword ptr [0x30]
  0x2905	dec    	eax
  0x2906	mov    	ebx, dword ptr [eax + 8]
  === BLOCK LINK ===
    0x2909
=== CODE BLOCK END ===

=== CODE BLOCK ADDRESS 0x2909 ===
  0x2909	xor    	edi, edi
  0x290b	xor    	eax, eax
  0x290d	.byte  	0xf0
  0x290e	dec    	eax
  0x290f	cmpxchg  	dword ptr [0x3d82], ebx
  === BLOCK LINK ===
    0x2916
=== CODE BLOCK END ===

=== CODE BLOCK ADDRESS 0x2916 ===
  0x2916	je     	0x2922
  === BLOCK LINK ===
    0x2918
=== CODE BLOCK END ===

=== CODE BLOCK ADDRESS 0x2918 ===
  0x2918	dec    	eax
  0x2919	cmp    	eax, ebx
  0x291b	jne    	0x2937
  === BLOCK LINK ===
    0x291d
=== CODE BLOCK END ===

=== CODE BLOCK ADDRESS 0x291d ===
  0x291d	mov    	edi, 1
  0x2922	mov    	eax, dword ptr [0x3d78]
  0x2928	cmp    	eax, 1
  0x292b	jne    	0x2944
  === BLOCK LINK ===
    0x292d
=== CODE BLOCK END ===

=== CODE BLOCK ADDRESS 0x292d ===
  0x292d	lea    	ecx, [eax + 0x1e]
  0x2930	call   	0x2c83
  === BLOCK LINK ===
    0x2935
=== CODE BLOCK END ===

=== CODE BLOCK ADDRESS 0x2935 ===
  0x2935	jmp    	0x29b1
  === BLOCK LINK ===
    0x2937
=== CODE BLOCK END ===

=== CODE BLOCK ADDRESS 0x2937 ===
  0x2937	mov    	ecx, 0x3e8
  0x293c	call   	dword ptr [0x186e]
  === BLOCK LINK ===
    0x2942
=== CODE BLOCK END ===

=== CODE BLOCK ADDRESS 0x2942 ===
  0x2942	jmp    	0x290b
  === BLOCK LINK ===
    0x2944
=== CODE BLOCK END ===

=== CODE BLOCK ADDRESS 0x2944 ===
  0x2944	mov    	eax, dword ptr [0x3d56]
  0x294a	test   	eax, eax
  0x294c	jne    	0x29a7
  === BLOCK LINK ===
    0x294e
=== CODE BLOCK END ===

=== CODE BLOCK ADDRESS 0x294e ===
  0x294e	mov    	dword ptr [0x3d48], 1
  0x2958	dec    	esp
  0x2959	lea    	esi, [0x1a49]
  0x295f	dec    	eax
  0x2960	lea    	ebx, [0x1a2a]
  === BLOCK LINK ===
    0x2966
=== CODE BLOCK END ===

=== CODE BLOCK ADDRESS 0x2966 ===
  0x2966	dec    	eax
  0x2967	mov    	dword ptr [esp + 0x30], ebx
  0x296b	mov    	dword ptr [esp + 0x24], eax
  0x296f	dec    	ecx
  0x2970	cmp    	ebx, esi
  === BLOCK LINK ===
    0x2972
=== CODE BLOCK END ===

=== CODE BLOCK ADDRESS 0x2972 ===
  0x2972	jae    	0x2999
  === BLOCK LINK ===
    0x2974
=== CODE BLOCK END ===

=== CODE BLOCK ADDRESS 0x2974 ===
  0x2974	test   	eax, eax
  0x2976	jne    	0x299d
  === BLOCK LINK ===
    0x2978
=== CODE BLOCK END ===

=== CODE BLOCK ADDRESS 0x2978 ===
  0x2978	dec    	eax
  0x2979	cmp    	dword ptr [ebx], 0
  0x297c	je     	0x298e
  === BLOCK LINK ===
    0x297e
=== CODE BLOCK END ===

=== CODE BLOCK ADDRESS 0x297e ===
  0x297e	dec    	eax
  0x297f	mov    	eax, dword ptr [ebx]
  0x2981	dec    	eax
  0x2982	mov    	ecx, dword ptr [0x19e8]
  0x2988	call   	ecx
  === BLOCK LINK ===
    0x298a
=== CODE BLOCK END ===

=== CODE BLOCK ADDRESS 0x298a ===
  0x298a	mov    	dword ptr [esp + 0x24], eax
  0x298e	dec    	eax
  0x298f	add    	ebx, 8
  0x2992	dec    	eax
  0x2993	mov    	dword ptr [esp + 0x30], ebx
  === BLOCK LINK ===
    0x2997
=== CODE BLOCK END ===

=== CODE BLOCK ADDRESS 0x2997 ===
  0x2997	jmp    	0x296f
  === BLOCK LINK ===
    0x2999
=== CODE BLOCK END ===

=== CODE BLOCK ADDRESS 0x2999 ===
  0x2999	test   	eax, eax
  0x299b	je     	0x29b1
  === BLOCK LINK ===
    0x299d
=== CODE BLOCK END ===

=== CODE BLOCK ADDRESS 0x299d ===
  0x299d	mov    	eax, 0xff
  0x29a2	jmp    	0x2b04
  === BLOCK LINK ===
    0x29a7
=== CODE BLOCK END ===

=== CODE BLOCK ADDRESS 0x29a7 ===
  0x29a7	mov    	dword ptr [0x3683], 1
  0x29b1	mov    	eax, dword ptr [0x3ce9]
  0x29b7	cmp    	eax, 1
  0x29ba	jne    	0x29d9
  === BLOCK LINK ===
    0x29bc
=== CODE BLOCK END ===

=== CODE BLOCK ADDRESS 0x29bc ===
  0x29bc	dec    	eax
  0x29bd	lea    	edx, [0x19c5]
  0x29c3	dec    	eax
  0x29c4	lea    	ecx, [0x19ae]
  0x29ca	call   	0x2e5e
  === BLOCK LINK ===
    0x29cf
=== CODE BLOCK END ===

=== CODE BLOCK ADDRESS 0x29cf ===
  0x29cf	mov    	dword ptr [0x3cc7], 2
  0x29d9	test   	edi, edi
  0x29db	jne    	0x29e6
  === BLOCK LINK ===
    0x29dd
=== CODE BLOCK END ===

=== CODE BLOCK ADDRESS 0x29dd ===
  0x29dd	xor    	eax, eax
  0x29df	dec    	eax
  0x29e0	xchg   	dword ptr [0x3cb2], eax
  0x29e6	dec    	eax
  0x29e7	cmp    	dword ptr [0x3cba], 0
  === BLOCK LINK ===
    0x29ee
=== CODE BLOCK END ===

=== CODE BLOCK ADDRESS 0x29ee ===
  0x29ee	je     	0x2a1a
  === BLOCK LINK ===
    0x29f0
=== CODE BLOCK END ===

=== CODE BLOCK ADDRESS 0x29f0 ===
  0x29f0	dec    	eax
  0x29f1	lea    	ecx, [0x3cb1]
  0x29f7	call   	0x2cf0
  === BLOCK LINK ===
    0x29fc
=== CODE BLOCK END ===

=== CODE BLOCK ADDRESS 0x29fc ===
  0x29fc	test   	eax, eax
  0x29fe	je     	0x2a1a
  === BLOCK LINK ===
    0x2a00
=== CODE BLOCK END ===

=== CODE BLOCK ADDRESS 0x2a00 ===
  0x2a00	inc    	ebp
  0x2a01	xor    	eax, eax
  0x2a03	inc    	ecx
  0x2a04	lea    	edx, [eax + 2]
  0x2a07	xor    	ecx, ecx
  === BLOCK LINK ===
    0x2a09
=== CODE BLOCK END ===

=== CODE BLOCK ADDRESS 0x2a09 ===
  0x2a09	dec    	eax
  0x2a0a	mov    	eax, dword ptr [0x3c98]
  0x2a10	dec    	esp
  0x2a11	mov    	ecx, dword ptr [0x1959]
  0x2a17	inc    	ecx
  === BLOCK LINK ===
    0x2a18
=== CODE BLOCK END ===

=== CODE BLOCK ADDRESS 0x2a18 ===
  0x2a18	call   	ecx
  === BLOCK LINK ===
    0x2a1a
=== CODE BLOCK END ===

=== CODE BLOCK ADDRESS 0x2a1a ===
  0x2a1a	dec    	eax
  0x2a1b	mov    	eax, dword ptr [0x186f]
  0x2a21	dec    	eax
  0x2a22	mov    	ebx, dword ptr [eax]
  0x2a24	dec    	eax
  === BLOCK LINK ===
    0x2a25
=== CODE BLOCK END ===

=== CODE BLOCK ADDRESS 0x2a25 ===
  0x2a25	mov    	dword ptr [esp + 0x28], ebx
  0x2a29	mov    	edi, dword ptr [esp + 0x20]
  0x2a2d	movzx  	ecx, byte ptr [ebx]
  0x2a30	cmp    	cl, 0x20
  0x2a33	ja     	0x2aa6
  === BLOCK LINK ===
    0x2a35
=== CODE BLOCK END ===

=== CODE BLOCK ADDRESS 0x2a35 ===
  0x2a35	test   	cl, cl
  0x2a37	je     	0x2a3d
  === BLOCK LINK ===
    0x2a39
=== CODE BLOCK END ===

=== CODE BLOCK ADDRESS 0x2a39 ===
  0x2a39	test   	edi, edi
  0x2a3b	jne    	0x2aa6
  === BLOCK LINK ===
    0x2a3d
=== CODE BLOCK END ===

=== CODE BLOCK ADDRESS 0x2a3d ===
  0x2a3d	dec    	cl
  0x2a3f	cmp    	cl, 0x1f
  0x2a42	ja     	0x2a50
  === BLOCK LINK ===
    0x2a44
=== CODE BLOCK END ===

=== CODE BLOCK ADDRESS 0x2a44 ===
  0x2a44	dec    	eax
  0x2a45	inc    	ebx
  0x2a47	dec    	eax
  0x2a48	mov    	dword ptr [esp + 0x28], ebx
  0x2a4c	mov    	cl, byte ptr [ebx]
  === BLOCK LINK ===
    0x2a4e
=== CODE BLOCK END ===

=== CODE BLOCK ADDRESS 0x2a4e ===
  0x2a4e	jmp    	0x2a3d
  === BLOCK LINK ===
    0x2a50
=== CODE BLOCK END ===

=== CODE BLOCK ADDRESS 0x2a50 ===
  0x2a50	test   	byte ptr [esp + 0x7c], 1
  0x2a55	movzx  	eax, word ptr [esp + 0x80]
  0x2a5d	inc    	ecx
  0x2a5e	mov    	ecx, 0xa
  0x2a63	inc    	esp
  === BLOCK LINK ===
    0x2a64
=== CODE BLOCK END ===

=== CODE BLOCK ADDRESS 0x2a64 ===
  0x2a64	cmovne  	ecx, eax
  0x2a67	dec    	esp
  0x2a68	mov    	eax, ebx
  0x2a6a	xor    	edx, edx
  0x2a6c	dec    	eax
  === BLOCK LINK ===
    0x2a6d
=== CODE BLOCK END ===

=== CODE BLOCK ADDRESS 0x2a6d ===
  0x2a6d	lea    	ecx, [0xffffd58d]
  0x2a73	call   	0x115c
  === BLOCK LINK ===
    0x2a78
=== CODE BLOCK END ===

=== CODE BLOCK ADDRESS 0x2a78 ===
  0x2a78	mov    	dword ptr [0x35b2], eax
  0x2a7e	cmp    	dword ptr [0x35cb], 0
  0x2a85	jne    	0x2a8f
  === BLOCK LINK ===
    0x2a87
=== CODE BLOCK END ===

=== CODE BLOCK ADDRESS 0x2a87 ===
  0x2a87	mov    	ecx, eax
  0x2a89	call   	dword ptr [0x1831]
  === BLOCK LINK ===
    0x2a8f
=== CODE BLOCK END ===

=== CODE BLOCK ADDRESS 0x2a8f ===
  0x2a8f	cmp    	dword ptr [0x359e], 0
  0x2a96	jne    	0x2aa4
  === BLOCK LINK ===
    0x2a98
=== CODE BLOCK END ===

=== CODE BLOCK ADDRESS 0x2a98 ===
  0x2a98	call   	dword ptr [0x1812]
  === BLOCK LINK ===
    0x2a9e
=== CODE BLOCK END ===

=== CODE BLOCK ADDRESS 0x2a9e ===
  0x2a9e	mov    	eax, dword ptr [0x358c]
  0x2aa4	jmp    	0x2b04
  === BLOCK LINK ===
    0x2aa6
=== CODE BLOCK END ===

=== CODE BLOCK ADDRESS 0x2aa6 ===
  0x2aa6	cmp    	cl, 0x22
  0x2aa9	jne    	0x2ab8
  === BLOCK LINK ===
    0x2aab
=== CODE BLOCK END ===

=== CODE BLOCK ADDRESS 0x2aab ===
  0x2aab	xor    	eax, eax
  0x2aad	test   	edi, edi
  0x2aaf	sete   	al
  0x2ab2	mov    	edi, eax
  0x2ab4	mov    	dword ptr [esp + 0x20], eax
  === BLOCK LINK ===
    0x2ab8
=== CODE BLOCK END ===

=== CODE BLOCK ADDRESS 0x2ab8 ===
  0x2ab8	call   	dword ptr [0x17ea]
  === BLOCK LINK ===
    0x2abe
=== CODE BLOCK END ===

=== CODE BLOCK ADDRESS 0x2abe ===
  0x2abe	test   	eax, eax
  0x2ac0	je     	0x2aca
  === BLOCK LINK ===
    0x2ac2
=== CODE BLOCK END ===

=== CODE BLOCK ADDRESS 0x2ac2 ===
  0x2ac2	dec    	eax
  0x2ac3	inc    	ebx
  0x2ac5	dec    	eax
  0x2ac6	mov    	dword ptr [esp + 0x28], ebx
  0x2aca	dec    	eax
  === BLOCK LINK ===
    0x2acb
=== CODE BLOCK END ===

=== CODE BLOCK ADDRESS 0x2acb ===
  0x2acb	inc    	ebx
  0x2acd	dec    	eax
  0x2ace	mov    	dword ptr [esp + 0x28], ebx
  0x2ad2	jmp    	0x2a2d
  === BLOCK LINK ===
    0x2ad7
=== CODE BLOCK END ===

=== CODE BLOCK ADDRESS 0x2ad7 ===
  0x2ad7	mov    	dword ptr [0x3553], eax
  0x2add	cmp    	dword ptr [0x356c], 0
  0x2ae4	jne    	0x2aef
  === BLOCK LINK ===
    0x2ae6
=== CODE BLOCK END ===

=== CODE BLOCK ADDRESS 0x2ae6 ===
  0x2ae6	mov    	ecx, eax
  0x2ae8	call   	dword ptr [0x17ca]
  === BLOCK LINK ===
    0x2aee
=== CODE BLOCK END ===

=== CODE BLOCK ADDRESS 0x2aee ===
  0x2aee	int3   	
  0x2aef	cmp    	dword ptr [0x353e], 0
  0x2af6	jne    	0x2b04
  === BLOCK LINK ===
    0x2af8
=== CODE BLOCK END ===

=== CODE BLOCK ADDRESS 0x2af8 ===
  0x2af8	call   	dword ptr [0x17b2]
  === BLOCK LINK ===
    0x2afe
=== CODE BLOCK END ===

=== CODE BLOCK ADDRESS 0x2afe ===
  0x2afe	mov    	eax, dword ptr [0x352c]
  0x2b04	dec    	esp
  0x2b05	lea    	ebx, [esp + 0xb0]
  0x2b0c	dec    	ecx
  0x2b0d	mov    	ebx, dword ptr [ebx + 0x10]
  === BLOCK LINK ===
    0x2b10
=== CODE BLOCK END ===

=== CODE BLOCK ADDRESS 0x2b10 ===
  0x2b10	dec    	ecx
  0x2b11	mov    	edi, dword ptr [ebx + 0x18]
  0x2b14	dec    	ecx
  0x2b15	mov    	esp, ebx
  0x2b17	inc    	ecx
  === BLOCK LINK ===
    0x2b18
=== CODE BLOCK END ===

=== CODE BLOCK ADDRESS 0x2b18 ===
  0x2b18	pop    	esi
  0x2b19	ret    	
  0x2b1a	int3   	
  0x2b1b	int3   	
  0x2b1c	int3   	
  === BLOCK LINK ===
    0x2b1d
=== CODE BLOCK END ===

=== CODE BLOCK ADDRESS 0x2b1d ===
  0x2b1d	int3   	
  0x2b1e	int3   	
  0x2b1f	int3   	
  0x2b20	jmp    	dword ptr [0x17ca]
  === BLOCK LINK ===
    0x2b26
=== CODE BLOCK END ===

=== CODE BLOCK ADDRESS 0x2b26 ===
  0x2b26	int3   	
  0x2b27	int3   	
  0x2b28	int3   	
  0x2b29	int3   	
  0x2b2a	int3   	
  === BLOCK LINK ===
    0x2b2b
=== CODE BLOCK END ===

=== CODE BLOCK ADDRESS 0x2b2b ===
  0x2b2b	int3   	
  0x2b2c	int3   	
  0x2b2d	int3   	
  0x2b2e	int3   	
  0x2b2f	int3   	
  === BLOCK LINK ===
    0x2b30
=== CODE BLOCK END ===

=== CODE BLOCK ADDRESS 0x2b30 ===
  0x2b30	int3   	
  0x2b31	int3   	
  0x2b32	int3   	
  0x2b33	int3   	
  0x2b34	int3   	
  === BLOCK LINK ===
    0x2b35
=== CODE BLOCK END ===

=== CODE BLOCK ADDRESS 0x2b35 ===
  0x2b35	int3   	
  0x2b36	nop    	word ptr [eax + eax]
  0x2b40	dec    	eax
  0x2b41	cmp    	ecx, dword ptr [0x34c1]
  0x2b47	jne    	0x2b59
  === BLOCK LINK ===
    0x2b49
=== CODE BLOCK END ===

=== CODE BLOCK ADDRESS 0x2b49 ===
  0x2b49	dec    	eax
  0x2b4a	rol    	ecx, 0x10
  0x2b4d	test   	cx, 0xffff
  0x2b52	jne    	0x2b55
  === BLOCK LINK ===
    0x2b54
=== CODE BLOCK END ===

=== CODE BLOCK ADDRESS 0x2b54 ===
  0x2b54	ret    	
  0x2b55	dec    	eax
  0x2b56	ror    	ecx, 0x10
  0x2b59	jmp    	0x2ec0
  === BLOCK LINK ===
    0x2b5e
=== CODE BLOCK END ===

=== CODE BLOCK ADDRESS 0x2b5e ===
  0x2b5e	int3   	
  0x2b5f	int3   	
  0x2b60	int3   	
  0x2b61	int3   	
  0x2b62	int3   	
  === BLOCK LINK ===
    0x2b63
=== CODE BLOCK END ===

=== CODE BLOCK ADDRESS 0x2b63 ===
  0x2b63	int3   	
  0x2b64	int3   	
  0x2b65	int3   	
  0x2b66	int3   	
  0x2b67	int3   	
  === BLOCK LINK ===
    0x2b68
=== CODE BLOCK END ===

=== CODE BLOCK ADDRESS 0x2b68 ===
  0x2b68	int3   	
  0x2b69	int3   	
  0x2b6a	int3   	
  0x2b6b	int3   	
  0x2b6c	int3   	
  === BLOCK LINK ===
    0x2b6d
=== CODE BLOCK END ===

=== CODE BLOCK ADDRESS 0x2b6d ===
  0x2b6d	int3   	
  0x2b6e	int3   	
  0x2b6f	int3   	
  0x2b70	dec    	eax
  0x2b71	sub    	esp, 0x28
  === BLOCK LINK ===
    0x2b74
=== CODE BLOCK END ===

=== CODE BLOCK ADDRESS 0x2b74 ===
  0x2b74	dec    	eax
  0x2b75	mov    	eax, dword ptr [ecx]
  0x2b77	cmp    	dword ptr [eax], 0xe06d7363
  0x2b7d	jne    	0x2ba2
  === BLOCK LINK ===
    0x2b7f
=== CODE BLOCK END ===

=== CODE BLOCK ADDRESS 0x2b7f ===
  0x2b7f	cmp    	dword ptr [eax + 0x18], 4
  0x2b83	jne    	0x2ba2
  === BLOCK LINK ===
    0x2b85
=== CODE BLOCK END ===

=== CODE BLOCK ADDRESS 0x2b85 ===
  0x2b85	mov    	ecx, dword ptr [eax + 0x20]
  0x2b88	lea    	eax, [ecx - 0x19930520]
  0x2b8e	cmp    	eax, 2
  0x2b91	jbe    	0x2b9b
  === BLOCK LINK ===
    0x2b93
=== CODE BLOCK END ===

=== CODE BLOCK ADDRESS 0x2b93 ===
  0x2b93	cmp    	ecx, 0x1994000
  0x2b99	jne    	0x2ba2
  === BLOCK LINK ===
    0x2b9b
=== CODE BLOCK END ===

=== CODE BLOCK ADDRESS 0x2b9b ===
  0x2b9b	call   	dword ptr [0x16df]
  === BLOCK LINK ===
    0x2ba1
=== CODE BLOCK END ===

=== CODE BLOCK ADDRESS 0x2ba1 ===
  0x2ba1	int3   	
  0x2ba2	xor    	eax, eax
  0x2ba4	dec    	eax
  0x2ba5	add    	esp, 0x28
  0x2ba8	ret    	
  === BLOCK LINK ===
    0x2ba9
=== CODE BLOCK END ===

=== CODE BLOCK ADDRESS 0x2ba9 ===
  0x2ba9	int3   	
  0x2baa	int3   	
  0x2bab	int3   	
  0x2bac	int3   	
  0x2bad	int3   	
  === BLOCK LINK ===
    0x2bae
=== CODE BLOCK END ===

=== CODE BLOCK ADDRESS 0x2bae ===
  0x2bae	int3   	
  0x2baf	int3   	
  0x2bb0	dec    	eax
  0x2bb1	sub    	esp, 0x28
  0x2bb4	dec    	eax
  === BLOCK LINK ===
    0x2bb5
=== CODE BLOCK END ===

=== CODE BLOCK ADDRESS 0x2bb5 ===
  0x2bb5	lea    	ecx, [0xffffffb5]
  0x2bbb	call   	dword ptr [0x15ff]
  === BLOCK LINK ===
    0x2bc1
=== CODE BLOCK END ===

=== CODE BLOCK ADDRESS 0x2bc1 ===
  0x2bc1	xor    	eax, eax
  0x2bc3	dec    	eax
  0x2bc4	add    	esp, 0x28
  0x2bc7	ret    	
  0x2bc8	int3   	
  === BLOCK LINK ===
    0x2bc9
=== CODE BLOCK END ===

=== CODE BLOCK ADDRESS 0x2bc9 ===
  0x2bc9	int3   	
  0x2bca	int3   	
  0x2bcb	int3   	
  0x2bcc	int3   	
  0x2bcd	int3   	
  === BLOCK LINK ===
    0x2bce
=== CODE BLOCK END ===

=== CODE BLOCK ADDRESS 0x2bce ===
  0x2bce	jmp    	dword ptr [0x170c]
  === BLOCK LINK ===
    0x2bd4
=== CODE BLOCK END ===

=== CODE BLOCK ADDRESS 0x2bd4 ===
  0x2bd4	int3   	
  0x2bd5	int3   	
  0x2bd6	int3   	
  0x2bd7	int3   	
  0x2bd8	int3   	
  === BLOCK LINK ===
    0x2bd9
=== CODE BLOCK END ===

=== CODE BLOCK ADDRESS 0x2bd9 ===
  0x2bd9	int3   	
  0x2bda	int3   	
  0x2bdb	int3   	
  0x2bdc	dec    	eax
  0x2bdd	sub    	esp, 0x18
  === BLOCK LINK ===
    0x2be0
=== CODE BLOCK END ===

=== CODE BLOCK ADDRESS 0x2be0 ===
  0x2be0	xor    	edx, edx
  0x2be2	dec    	eax
  0x2be3	lea    	eax, [ecx - 1]
  0x2be6	dec    	eax
  0x2be7	cmp    	eax, -3
  === BLOCK LINK ===
    0x2bea
=== CODE BLOCK END ===

=== CODE BLOCK ADDRESS 0x2bea ===
  0x2bea	ja     	0x2c28
  === BLOCK LINK ===
    0x2bec
=== CODE BLOCK END ===

=== CODE BLOCK ADDRESS 0x2bec ===
  0x2bec	mov    	eax, 0x5a4d
  0x2bf1	cmp    	word ptr [ecx], ax
  0x2bf4	jne    	0x2c20
  === BLOCK LINK ===
    0x2bf6
=== CODE BLOCK END ===

=== CODE BLOCK ADDRESS 0x2bf6 ===
  0x2bf6	cmp    	dword ptr [ecx + 0x3c], edx
  0x2bf9	jl     	0x2c20
  === BLOCK LINK ===
    0x2bfb
=== CODE BLOCK END ===

=== CODE BLOCK ADDRESS 0x2bfb ===
  0x2bfb	cmp    	dword ptr [ecx + 0x3c], 0x10000000
  0x2c02	jae    	0x2c20
  === BLOCK LINK ===
    0x2c04
=== CODE BLOCK END ===

=== CODE BLOCK ADDRESS 0x2c04 ===
  0x2c04	dec    	eax
  0x2c05	arpl   	word ptr [ecx + 0x3c], ax
  0x2c08	dec    	eax
  0x2c09	add    	eax, ecx
  0x2c0b	dec    	eax
  === BLOCK LINK ===
    0x2c0c
=== CODE BLOCK END ===

=== CODE BLOCK ADDRESS 0x2c0c ===
  0x2c0c	mov    	dword ptr [esp], eax
  0x2c0f	cmp    	dword ptr [eax], 0x4550
  0x2c15	dec    	eax
  0x2c16	cmovne  	eax, edx
  0x2c19	dec    	eax
  === BLOCK LINK ===
    0x2c1a
=== CODE BLOCK END ===

=== CODE BLOCK ADDRESS 0x2c1a ===
  0x2c1a	mov    	edx, eax
  0x2c1c	dec    	eax
  0x2c1d	mov    	dword ptr [esp], eax
  0x2c20	jmp    	0x2c28
  === BLOCK LINK ===
    0x2c22
=== CODE BLOCK END ===

=== CODE BLOCK ADDRESS 0x2c22 ===
  0x2c22	xor    	edx, edx
  0x2c24	dec    	eax
  0x2c25	mov    	dword ptr [esp], edx
  0x2c28	dec    	eax
  0x2c29	mov    	eax, edx
  === BLOCK LINK ===
    0x2c2b
=== CODE BLOCK END ===

=== CODE BLOCK ADDRESS 0x2c2b ===
  0x2c2b	dec    	eax
  0x2c2c	add    	esp, 0x18
  0x2c2f	ret    	
  0x2c30	int3   	
  0x2c31	int3   	
  === BLOCK LINK ===
    0x2c32
=== CODE BLOCK END ===

=== CODE BLOCK ADDRESS 0x131e ===
=== CODE BLOCK END ===

=== CODE BLOCK ADDRESS 0x2c32 ===
  0x2c32	int3   	
  0x2c33	int3   	
  0x2c34	int3   	
  0x2c35	int3   	
  0x2c36	int3   	
  === BLOCK LINK ===
    0x2c37
=== CODE BLOCK END ===

=== CODE BLOCK ADDRESS 0x2c37 ===
  0x2c37	int3   	
  0x2c38	inc    	eax
  0x2c39	push   	ebx
  0x2c3a	dec    	eax
  0x2c3b	sub    	esp, 0x20
  === BLOCK LINK ===
    0x2c3e
=== CODE BLOCK END ===

=== CODE BLOCK ADDRESS 0x2c3e ===
  0x2c3e	mov    	ebx, ecx
  0x2c40	xor    	ecx, ecx
  0x2c42	call   	dword ptr [0x1580]
  === BLOCK LINK ===
    0x2c48
=== CODE BLOCK END ===

=== CODE BLOCK ADDRESS 0x2c48 ===
  0x2c48	dec    	eax
  0x2c49	test   	eax, eax
  0x2c4b	je     	0x2c75
  === BLOCK LINK ===
    0x2c4d
=== CODE BLOCK END ===

=== CODE BLOCK ADDRESS 0x2c4d ===
  0x2c4d	dec    	eax
  0x2c4e	mov    	ecx, eax
  0x2c50	call   	0x2bdc
  === BLOCK LINK ===
    0x2c55
=== CODE BLOCK END ===

=== CODE BLOCK ADDRESS 0x2c55 ===
  0x2c55	dec    	eax
  0x2c56	test   	eax, eax
  0x2c58	je     	0x2c75
  === BLOCK LINK ===
    0x2c5a
=== CODE BLOCK END ===

=== CODE BLOCK ADDRESS 0x2c5a ===
  0x2c5a	mov    	ecx, 2
  0x2c5f	cmp    	word ptr [eax + 0x5c], cx
  0x2c63	jne    	0x2c69
  === BLOCK LINK ===
    0x2c65
=== CODE BLOCK END ===

=== CODE BLOCK ADDRESS 0x2c65 ===
  0x2c65	mov    	eax, ecx
  0x2c67	jmp    	0x2c77
  === BLOCK LINK ===
    0x2c69
=== CODE BLOCK END ===

=== CODE BLOCK ADDRESS 0x2c69 ===
  0x2c69	cmp    	word ptr [eax + 0x5c], 3
  0x2c6e	mov    	eax, 1
  0x2c73	je     	0x2c77
  === BLOCK LINK ===
    0x2c75
=== CODE BLOCK END ===

=== CODE BLOCK ADDRESS 0x2c75 ===
  0x2c75	mov    	eax, ebx
  0x2c77	dec    	eax
  0x2c78	add    	esp, 0x20
  0x2c7b	pop    	ebx
  0x2c7c	ret    	
  === BLOCK LINK ===
    0x2c7d
=== CODE BLOCK END ===

=== CODE BLOCK ADDRESS 0x2c7d ===
  0x2c7d	int3   	
  0x2c7e	int3   	
  0x2c7f	int3   	
  0x2c80	int3   	
  0x2c81	int3   	
  === BLOCK LINK ===
    0x2c82
=== CODE BLOCK END ===

=== CODE BLOCK ADDRESS 0x2c82 ===
  0x2c82	int3   	
  0x2c83	jmp    	dword ptr [0x164f]
  === BLOCK LINK ===
    0x2c89
=== CODE BLOCK END ===

=== CODE BLOCK ADDRESS 0x2c89 ===
  0x2c89	int3   	
  0x2c8a	int3   	
  0x2c8b	int3   	
  0x2c8c	int3   	
  0x2c8d	int3   	
  === BLOCK LINK ===
    0x2c8e
=== CODE BLOCK END ===

=== CODE BLOCK ADDRESS 0x2c8e ===
  0x2c8e	int3   	
  0x2c8f	int3   	
  0x2c90	xor    	eax, eax
  0x2c92	ret    	
  0x2c93	int3   	
  === BLOCK LINK ===
    0x2c94
=== CODE BLOCK END ===

=== CODE BLOCK ADDRESS 0x2c94 ===
  0x2c94	int3   	
  0x2c95	int3   	
  0x2c96	int3   	
  0x2c97	int3   	
  0x2c98	int3   	
  === BLOCK LINK ===
    0x2c99
=== CODE BLOCK END ===

=== CODE BLOCK ADDRESS 0x2c99 ===
  0x2c99	int3   	
  0x2c9a	int3   	
  0x2c9b	int3   	
  0x2c9c	int3   	
  0x2c9d	int3   	
  === BLOCK LINK ===
    0x2c9e
=== CODE BLOCK END ===

=== CODE BLOCK ADDRESS 0x2c9e ===
  0x2c9e	int3   	
  0x2c9f	int3   	
  0x2ca0	dec    	esp
  0x2ca1	arpl   	word ptr [ecx + 0x3c], ax
  0x2ca4	inc    	ebp
  === BLOCK LINK ===
    0x2ca5
=== CODE BLOCK END ===

=== CODE BLOCK ADDRESS 0x2ca5 ===
  0x2ca5	xor    	ecx, ecx
  0x2ca7	dec    	esp
  0x2ca8	add    	eax, ecx
  0x2caa	dec    	esp
  0x2cab	mov    	edx, edx
  === BLOCK LINK ===
    0x2cad
=== CODE BLOCK END ===

=== CODE BLOCK ADDRESS 0x2cad ===
  0x2cad	inc    	ecx
  0x2cae	movzx  	eax, word ptr [eax + 0x14]
  0x2cb2	inc    	ebp
  0x2cb3	movzx  	ebx, word ptr [eax + 6]
  0x2cb7	dec    	eax
  === BLOCK LINK ===
    0x2cb8
=== CODE BLOCK END ===

=== CODE BLOCK ADDRESS 0x2cb8 ===
  0x2cb8	add    	eax, 0x18
  0x2cbb	dec    	ecx
  0x2cbc	add    	eax, eax
  0x2cbe	inc    	ebp
  0x2cbf	test   	ebx, ebx
  === BLOCK LINK ===
    0x2cc1
=== CODE BLOCK END ===

=== CODE BLOCK ADDRESS 0x2cc1 ===
  0x2cc1	je     	0x2ce1
  === BLOCK LINK ===
    0x2cc3
=== CODE BLOCK END ===

=== CODE BLOCK ADDRESS 0x2cc3 ===
  0x2cc3	mov    	edx, dword ptr [eax + 0xc]
  0x2cc6	dec    	esp
  0x2cc7	cmp    	edx, edx
  0x2cc9	jb     	0x2cd5
  === BLOCK LINK ===
    0x2ccb
=== CODE BLOCK END ===

=== CODE BLOCK ADDRESS 0x2ccb ===
  0x2ccb	mov    	ecx, dword ptr [eax + 8]
  0x2cce	add    	ecx, edx
  0x2cd0	dec    	esp
  0x2cd1	cmp    	edx, ecx
  0x2cd3	jb     	0x2ce3
  === BLOCK LINK ===
    0x2cd5
=== CODE BLOCK END ===

=== CODE BLOCK ADDRESS 0x2cd5 ===
  0x2cd5	inc    	ecx
  0x2cd6	inc    	ecx
  0x2cd8	dec    	eax
  0x2cd9	add    	eax, 0x28
  0x2cdc	inc    	ebp
  === BLOCK LINK ===
    0x2cdd
=== CODE BLOCK END ===

=== CODE BLOCK ADDRESS 0x2cdd ===
  0x2cdd	cmp    	ecx, ebx
  0x2cdf	jb     	0x2cc3
  === BLOCK LINK ===
    0x2ce1
=== CODE BLOCK END ===

=== CODE BLOCK ADDRESS 0x2ce1 ===
  0x2ce1	xor    	eax, eax
  0x2ce3	ret    	
  0x2ce4	int3   	
  0x2ce5	int3   	
  0x2ce6	int3   	
  === BLOCK LINK ===
    0x2ce7
=== CODE BLOCK END ===

=== CODE BLOCK ADDRESS 0x10c8 ===
=== CODE BLOCK END ===

=== CODE BLOCK ADDRESS 0x2ce7 ===
  0x2ce7	int3   	
  0x2ce8	int3   	
  0x2ce9	int3   	
  0x2cea	int3   	
  0x2ceb	int3   	
  === BLOCK LINK ===
    0x2cec
=== CODE BLOCK END ===

=== CODE BLOCK ADDRESS 0x2cec ===
  0x2cec	int3   	
  0x2ced	int3   	
  0x2cee	int3   	
  0x2cef	int3   	
  0x2cf0	dec    	eax
  === BLOCK LINK ===
    0x2cf1
=== CODE BLOCK END ===

=== CODE BLOCK ADDRESS 0x2cf1 ===
  0x2cf1	mov    	dword ptr [esp + 8], ebx
  0x2cf5	push   	edi
  0x2cf6	dec    	eax
  0x2cf7	sub    	esp, 0x20
  0x2cfa	dec    	eax
  === BLOCK LINK ===
    0x2cfb
=== CODE BLOCK END ===

=== CODE BLOCK ADDRESS 0x2cfb ===
  0x2cfb	mov    	ebx, ecx
  0x2cfd	dec    	eax
  0x2cfe	lea    	edi, [0xffffd2fc]
  0x2d04	dec    	eax
  0x2d05	mov    	ecx, edi
  === BLOCK LINK ===
    0x2d07
=== CODE BLOCK END ===

=== CODE BLOCK ADDRESS 0x2d07 ===
  0x2d07	call   	0x2d50
  === BLOCK LINK ===
    0x2d0c
=== CODE BLOCK END ===

=== CODE BLOCK ADDRESS 0x2d0c ===
  0x2d0c	test   	eax, eax
  0x2d0e	je     	0x2d32
  === BLOCK LINK ===
    0x2d10
=== CODE BLOCK END ===

=== CODE BLOCK ADDRESS 0x2d10 ===
  0x2d10	dec    	eax
  0x2d11	sub    	ebx, edi
  0x2d13	dec    	eax
  0x2d14	mov    	edx, ebx
  0x2d16	dec    	eax
  === BLOCK LINK ===
    0x2d17
=== CODE BLOCK END ===

=== CODE BLOCK ADDRESS 0x2d17 ===
  0x2d17	mov    	ecx, edi
  0x2d19	call   	0x2ca0
  === BLOCK LINK ===
    0x2d1e
=== CODE BLOCK END ===

=== CODE BLOCK ADDRESS 0x2d1e ===
  0x2d1e	dec    	eax
  0x2d1f	test   	eax, eax
  0x2d21	je     	0x2d32
  === BLOCK LINK ===
    0x2d23
=== CODE BLOCK END ===

=== CODE BLOCK ADDRESS 0x2d23 ===
  0x2d23	mov    	eax, dword ptr [eax + 0x24]
  0x2d26	shr    	eax, 0x1f
  0x2d29	not    	eax
  0x2d2b	and    	eax, 1
  0x2d2e	jmp    	0x2d32
  === BLOCK LINK ===
    0x2d30
=== CODE BLOCK END ===

=== CODE BLOCK ADDRESS 0x2d30 ===
  0x2d30	xor    	eax, eax
  0x2d32	dec    	eax
  0x2d33	mov    	ebx, dword ptr [esp + 0x30]
  0x2d37	dec    	eax
  0x2d38	add    	esp, 0x20
  === BLOCK LINK ===
    0x2d3b
=== CODE BLOCK END ===

=== CODE BLOCK ADDRESS 0x2d3b ===
  0x2d3b	pop    	edi
  0x2d3c	ret    	
  0x2d3d	int3   	
  0x2d3e	int3   	
  0x2d3f	int3   	
  === BLOCK LINK ===
    0x2d40
=== CODE BLOCK END ===

=== CODE BLOCK ADDRESS 0x2d40 ===
  0x2d40	int3   	
  0x2d41	int3   	
  0x2d42	int3   	
  0x2d43	int3   	
  0x2d44	int3   	
  === BLOCK LINK ===
    0x2d45
=== CODE BLOCK END ===

=== CODE BLOCK ADDRESS 0x2d45 ===
  0x2d45	int3   	
  0x2d46	int3   	
  0x2d47	int3   	
  0x2d48	int3   	
  0x2d49	int3   	
  === BLOCK LINK ===
    0x2d4a
=== CODE BLOCK END ===

=== CODE BLOCK ADDRESS 0x2d4a ===
  0x2d4a	int3   	
  0x2d4b	int3   	
  0x2d4c	int3   	
  0x2d4d	int3   	
  0x2d4e	int3   	
  === BLOCK LINK ===
    0x2d4f
=== CODE BLOCK END ===

=== CODE BLOCK ADDRESS 0x2d4f ===
  0x2d4f	int3   	
  0x2d50	mov    	eax, 0x5a4d
  0x2d55	cmp    	word ptr [ecx], ax
  0x2d58	jne    	0x2d7a
  === BLOCK LINK ===
    0x2d5a
=== CODE BLOCK END ===

=== CODE BLOCK ADDRESS 0x2d5a ===
  0x2d5a	dec    	eax
  0x2d5b	arpl   	word ptr [ecx + 0x3c], ax
  0x2d5e	dec    	eax
  0x2d5f	add    	eax, ecx
  0x2d61	cmp    	dword ptr [eax], 0x4550
  === BLOCK LINK ===
    0x2d67
=== CODE BLOCK END ===

=== CODE BLOCK ADDRESS 0x2d67 ===
  0x2d67	jne    	0x2d7a
  === BLOCK LINK ===
    0x2d69
=== CODE BLOCK END ===

=== CODE BLOCK ADDRESS 0x2d69 ===
  0x2d69	mov    	ecx, 0x20b
  0x2d6e	cmp    	word ptr [eax + 0x18], cx
  0x2d72	jne    	0x2d7a
  === BLOCK LINK ===
    0x2d74
=== CODE BLOCK END ===

=== CODE BLOCK ADDRESS 0x2d74 ===
  0x2d74	mov    	eax, 1
  0x2d79	ret    	
  0x2d7a	xor    	eax, eax
  0x2d7c	ret    	
  0x2d7d	int3   	
  === BLOCK LINK ===
    0x2d7e
=== CODE BLOCK END ===

=== CODE BLOCK ADDRESS 0x2d7e ===
  0x2d7e	int3   	
  0x2d7f	int3   	
  0x2d80	int3   	
  0x2d81	int3   	
  0x2d82	int3   	
  === BLOCK LINK ===
    0x2d83
=== CODE BLOCK END ===

=== CODE BLOCK ADDRESS 0x2d83 ===
  0x2d83	int3   	
  0x2d84	dec    	eax
  0x2d85	mov    	dword ptr [esp + 0x20], ebx
  0x2d89	push   	ebp
  0x2d8a	dec    	eax
  === BLOCK LINK ===
    0x2d8b
=== CODE BLOCK END ===

=== CODE BLOCK ADDRESS 0x2d8b ===
  0x2d8b	mov    	ebp, esp
  0x2d8d	dec    	eax
  0x2d8e	sub    	esp, 0x20
  0x2d91	dec    	eax
  0x2d92	and    	dword ptr [ebp + 0x18], 0
  === BLOCK LINK ===
    0x2d96
=== CODE BLOCK END ===

=== CODE BLOCK ADDRESS 0x2d96 ===
  0x2d96	dec    	eax
  0x2d97	mov    	ebx, 0x2ddfa232
  0x2d9c	cdq    	
  0x2d9d	sub    	eax, dword ptr [eax]
  0x2d9f	add    	byte ptr [eax - 0x75], cl
  === BLOCK LINK ===
    0x2da2
=== CODE BLOCK END ===

=== CODE BLOCK ADDRESS 0x2da2 ===
  0x2da2	add    	eax, 0x3261
  0x2da7	dec    	eax
  0x2da8	cmp    	eax, ebx
  0x2daa	jne    	0x2e43
  === BLOCK LINK ===
    0x2db0
=== CODE BLOCK END ===

=== CODE BLOCK ADDRESS 0x2db0 ===
  0x2db0	dec    	eax
  0x2db1	lea    	ecx, [ebp + 0x18]
  0x2db4	call   	dword ptr [0x142e]
  === BLOCK LINK ===
    0x2dba
=== CODE BLOCK END ===

=== CODE BLOCK ADDRESS 0x2dba ===
  0x2dba	dec    	eax
  0x2dbb	mov    	eax, dword ptr [ebp + 0x18]
  0x2dbe	dec    	eax
  0x2dbf	mov    	dword ptr [ebp + 0x10], eax
  0x2dc2	call   	dword ptr [0x1410]
  === BLOCK LINK ===
    0x2dc8
=== CODE BLOCK END ===

=== CODE BLOCK ADDRESS 0x2dc8 ===
  0x2dc8	mov    	eax, eax
  0x2dca	dec    	eax
  0x2dcb	xor    	dword ptr [ebp + 0x10], eax
  0x2dce	call   	dword ptr [0x140c]
  === BLOCK LINK ===
    0x2dd4
=== CODE BLOCK END ===

=== CODE BLOCK ADDRESS 0x2dd4 ===
  0x2dd4	mov    	eax, eax
  0x2dd6	dec    	eax
  0x2dd7	xor    	dword ptr [ebp + 0x10], eax
  0x2dda	call   	dword ptr [0x1410]
  === BLOCK LINK ===
    0x2de0
=== CODE BLOCK END ===

=== CODE BLOCK ADDRESS 0x2de0 ===
  0x2de0	mov    	eax, eax
  0x2de2	dec    	eax
  0x2de3	shl    	eax, 0x18
  0x2de6	dec    	eax
  0x2de7	xor    	dword ptr [ebp + 0x10], eax
  === BLOCK LINK ===
    0x2dea
=== CODE BLOCK END ===

=== CODE BLOCK ADDRESS 0x2dea ===
  0x2dea	call   	dword ptr [0x1400]
  === BLOCK LINK ===
    0x2df0
=== CODE BLOCK END ===

=== CODE BLOCK ADDRESS 0x2df0 ===
  0x2df0	mov    	eax, eax
  0x2df2	dec    	eax
  0x2df3	lea    	ecx, [ebp + 0x10]
  0x2df6	dec    	eax
  0x2df7	xor    	eax, dword ptr [ebp + 0x10]
  === BLOCK LINK ===
    0x2dfa
=== CODE BLOCK END ===

=== CODE BLOCK ADDRESS 0x2dfa ===
  0x2dfa	dec    	eax
  0x2dfb	xor    	eax, ecx
  0x2dfd	dec    	eax
  0x2dfe	lea    	ecx, [ebp + 0x20]
  0x2e01	dec    	eax
  === BLOCK LINK ===
    0x2e02
=== CODE BLOCK END ===

=== CODE BLOCK ADDRESS 0x2e02 ===
  0x2e02	mov    	dword ptr [ebp + 0x10], eax
  0x2e05	call   	dword ptr [0x13c5]
  === BLOCK LINK ===
    0x2e0b
=== CODE BLOCK END ===

=== CODE BLOCK ADDRESS 0x2e0b ===
  0x2e0b	mov    	eax, dword ptr [ebp + 0x20]
  0x2e0e	dec    	eax
  0x2e0f	mov    	ecx, 0xffffffff
  0x2e14	.byte  	0xff
  0x2e15	inc    	dword ptr [eax]
  === BLOCK LINK ===
    0x2e17
=== CODE BLOCK END ===

=== CODE BLOCK ADDRESS 0x2e17 ===
  0x2e17	add    	byte ptr [eax - 0x3f], cl
  0x2e1a	loopne  	0x2e3c
  === BLOCK LINK ===
    0x2e1c
=== CODE BLOCK END ===

=== CODE BLOCK ADDRESS 0x2e1c ===
  0x2e1c	dec    	eax
  0x2e1d	xor    	eax, dword ptr [ebp + 0x20]
  0x2e20	dec    	eax
  0x2e21	xor    	eax, dword ptr [ebp + 0x10]
  0x2e24	dec    	eax
  === BLOCK LINK ===
    0x2e25
=== CODE BLOCK END ===

=== CODE BLOCK ADDRESS 0x2e25 ===
  0x2e25	and    	eax, ecx
  0x2e27	dec    	eax
  0x2e28	mov    	ecx, eax
  0x2e2a	dec    	eax
  0x2e2b	cmp    	eax, ebx
  === BLOCK LINK ===
    0x2e2d
=== CODE BLOCK END ===

=== CODE BLOCK ADDRESS 0x2e2d ===
  0x2e2d	jne    	0x2e3c
  === BLOCK LINK ===
    0x2e2f
=== CODE BLOCK END ===

=== CODE BLOCK ADDRESS 0x2e2f ===
  0x2e2f	dec    	eax
  0x2e30	mov    	eax, 0x2ddfa233
  0x2e35	cdq    	
  0x2e36	sub    	eax, dword ptr [eax]
  0x2e38	add    	byte ptr [eax - 0x75], cl
  === BLOCK LINK ===
    0x2e3b
=== CODE BLOCK END ===

=== CODE BLOCK ADDRESS 0x2e3b ===
  0x2e3b	enter  	-0x76b8, 0xd
  0x2e3f	lds    	esi, ptr [ecx]
  0x2e41	add    	byte ptr [eax], al
  0x2e43	dec    	eax
  0x2e44	mov    	ebx, dword ptr [esp + 0x48]
  === BLOCK LINK ===
    0x2e48
=== CODE BLOCK END ===

=== CODE BLOCK ADDRESS 0x2e48 ===
  0x2e48	dec    	eax
  0x2e49	not    	eax
  0x2e4b	dec    	eax
  0x2e4c	mov    	dword ptr [0x31be], eax
  0x2e52	dec    	eax
  === BLOCK LINK ===
    0x2e53
=== CODE BLOCK END ===

=== CODE BLOCK ADDRESS 0x2e53 ===
  0x2e53	add    	esp, 0x20
  0x2e56	pop    	ebp
  0x2e57	ret    	
  0x2e58	int3   	
  0x2e59	int3   	
  === BLOCK LINK ===
    0x2e5a
=== CODE BLOCK END ===

=== CODE BLOCK ADDRESS 0x1008 ===
  0x1008	dec    	eax
  0x1009	mov    	eax, esp
  === BLOCK LINK ===
    0x100b
=== CODE BLOCK END ===

=== CODE BLOCK ADDRESS 0x2e5a ===
  0x2e5a	int3   	
  0x2e5b	int3   	
  0x2e5c	int3   	
  0x2e5d	int3   	
  0x2e5e	jmp    	dword ptr [0x1434]
  === BLOCK LINK ===
    0x2e64
=== CODE BLOCK END ===

=== CODE BLOCK ADDRESS 0x2e64 ===
  0x2e64	int3   	
  0x2e65	int3   	
  0x2e66	int3   	
  0x2e67	int3   	
  0x2e68	int3   	
  === BLOCK LINK ===
    0x2e69
=== CODE BLOCK END ===

=== CODE BLOCK ADDRESS 0x2e69 ===
  0x2e69	int3   	
  0x2e6a	int3   	
  0x2e6b	int3   	
  0x2e6c	int3   	
  0x2e6d	int3   	
  === BLOCK LINK ===
    0x2e6e
=== CODE BLOCK END ===

=== CODE BLOCK ADDRESS 0x2e6e ===
  0x2e6e	int3   	
  0x2e6f	int3   	
  0x2e70	ret    	0
  0x2e73	int3   	
  0x2e74	int3   	
  === BLOCK LINK ===
    0x2e75
=== CODE BLOCK END ===

=== CODE BLOCK ADDRESS 0x2e75 ===
  0x2e75	int3   	
  0x2e76	int3   	
  0x2e77	int3   	
  0x2e78	int3   	
  0x2e79	int3   	
  === BLOCK LINK ===
    0x2e7a
=== CODE BLOCK END ===

=== CODE BLOCK ADDRESS 0x2e7a ===
  0x2e7a	int3   	
  0x2e7b	int3   	
  0x2e7c	inc    	eax
  0x2e7d	push   	ebx
  0x2e7e	dec    	eax
  === BLOCK LINK ===
    0x2e7f
=== CODE BLOCK END ===

=== CODE BLOCK ADDRESS 0x2e7f ===
  0x2e7f	sub    	esp, 0x20
  0x2e82	dec    	eax
  0x2e83	mov    	ebx, ecx
  0x2e85	xor    	ecx, ecx
  0x2e87	call   	dword ptr [0x1333]
  === BLOCK LINK ===
    0x2e8d
=== CODE BLOCK END ===

=== CODE BLOCK ADDRESS 0x2e8d ===
  0x2e8d	dec    	eax
  0x2e8e	mov    	ecx, ebx
  0x2e90	call   	dword ptr [0x1362]
  === BLOCK LINK ===
    0x2e96
=== CODE BLOCK END ===

=== CODE BLOCK ADDRESS 0x2e96 ===
  0x2e96	call   	dword ptr [0x1364]
  === BLOCK LINK ===
    0x2e9c
=== CODE BLOCK END ===

=== CODE BLOCK ADDRESS 0x2e9c ===
  0x2e9c	dec    	eax
  0x2e9d	mov    	ecx, eax
  0x2e9f	mov    	edx, 0xc0000409
  0x2ea4	dec    	eax
  0x2ea5	add    	esp, 0x20
  === BLOCK LINK ===
    0x2ea8
=== CODE BLOCK END ===

=== CODE BLOCK ADDRESS 0x2ea8 ===
  0x2ea8	pop    	ebx
  0x2ea9	dec    	eax
  0x2eaa	jmp    	dword ptr [0x1358]
  === BLOCK LINK ===
    0x2eb0
=== CODE BLOCK END ===

=== CODE BLOCK ADDRESS 0x2eb0 ===
  0x2eb0	int3   	
  0x2eb1	int3   	
  0x2eb2	int3   	
  0x2eb3	int3   	
  0x2eb4	int3   	
  === BLOCK LINK ===
    0x2eb5
=== CODE BLOCK END ===

=== CODE BLOCK ADDRESS 0x2eb5 ===
  0x2eb5	int3   	
  0x2eb6	int3   	
  0x2eb7	int3   	
  0x2eb8	int3   	
  0x2eb9	int3   	
  === BLOCK LINK ===
    0x2eba
=== CODE BLOCK END ===

=== CODE BLOCK ADDRESS 0x2eba ===
  0x2eba	int3   	
  0x2ebb	int3   	
  0x2ebc	int3   	
  0x2ebd	int3   	
  0x2ebe	int3   	
  === BLOCK LINK ===
    0x2ebf
=== CODE BLOCK END ===

=== CODE BLOCK ADDRESS 0x2ebf ===
  0x2ebf	int3   	
  0x2ec0	dec    	eax
  0x2ec1	mov    	dword ptr [esp + 8], ecx
  0x2ec5	dec    	eax
  0x2ec6	sub    	esp, 0x88
  === BLOCK LINK ===
    0x2ecc
=== CODE BLOCK END ===

=== CODE BLOCK ADDRESS 0x2ecc ===
  0x2ecc	dec    	eax
  0x2ecd	lea    	ecx, [0x323d]
  0x2ed3	call   	dword ptr [0x1437]
  === BLOCK LINK ===
    0x2ed9
=== CODE BLOCK END ===

=== CODE BLOCK ADDRESS 0x2ed9 ===
  0x2ed9	dec    	eax
  0x2eda	mov    	eax, dword ptr [0x3328]
  0x2ee0	dec    	eax
  0x2ee1	mov    	dword ptr [esp + 0x48], eax
  0x2ee5	inc    	ebp
  === BLOCK LINK ===
    0x2ee6
=== CODE BLOCK END ===

=== CODE BLOCK ADDRESS 0x2ee6 ===
  0x2ee6	xor    	eax, eax
  0x2ee8	dec    	eax
  0x2ee9	lea    	edx, [esp + 0x50]
  0x2eed	dec    	eax
  0x2eee	mov    	ecx, dword ptr [esp + 0x48]
  === BLOCK LINK ===
    0x2ef2
=== CODE BLOCK END ===

=== CODE BLOCK ADDRESS 0x2ef2 ===
  0x2ef2	call   	dword ptr [0x1420]
  === BLOCK LINK ===
    0x2ef8
=== CODE BLOCK END ===

=== CODE BLOCK ADDRESS 0x2ef8 ===
  0x2ef8	dec    	eax
  0x2ef9	mov    	dword ptr [esp + 0x40], eax
  0x2efd	dec    	eax
  0x2efe	cmp    	dword ptr [esp + 0x40], 0
  0x2f03	je     	0x2f47
  === BLOCK LINK ===
    0x2f05
=== CODE BLOCK END ===

=== CODE BLOCK ADDRESS 0x2f05 ===
  0x2f05	dec    	eax
  0x2f06	mov    	dword ptr [esp + 0x38], 0
  0x2f0e	dec    	eax
  0x2f0f	lea    	eax, [esp + 0x58]
  0x2f13	dec    	eax
  === BLOCK LINK ===
    0x2f14
=== CODE BLOCK END ===

=== CODE BLOCK ADDRESS 0x2f14 ===
  0x2f14	mov    	dword ptr [esp + 0x30], eax
  0x2f18	dec    	eax
  0x2f19	lea    	eax, [esp + 0x60]
  0x2f1d	dec    	eax
  0x2f1e	mov    	dword ptr [esp + 0x28], eax
  === BLOCK LINK ===
    0x2f22
=== CODE BLOCK END ===

=== CODE BLOCK ADDRESS 0x2f22 ===
  0x2f22	dec    	eax
  0x2f23	lea    	eax, [0x31e7]
  0x2f29	dec    	eax
  0x2f2a	mov    	dword ptr [esp + 0x20], eax
  0x2f2e	dec    	esp
  === BLOCK LINK ===
    0x2f2f
=== CODE BLOCK END ===

=== CODE BLOCK ADDRESS 0x2f2f ===
  0x2f2f	mov    	ecx, dword ptr [esp + 0x40]
  0x2f33	dec    	esp
  0x2f34	mov    	eax, dword ptr [esp + 0x48]
  0x2f38	dec    	eax
  0x2f39	mov    	edx, dword ptr [esp + 0x50]
  === BLOCK LINK ===
    0x2f3d
=== CODE BLOCK END ===

=== CODE BLOCK ADDRESS 0x2f3d ===
  0x2f3d	xor    	ecx, ecx
  0x2f3f	call   	dword ptr [0x13db]
  === BLOCK LINK ===
    0x2f45
=== CODE BLOCK END ===

=== CODE BLOCK ADDRESS 0x2f45 ===
  0x2f45	jmp    	0x2f6a
  === BLOCK LINK ===
    0x2f47
=== CODE BLOCK END ===

=== CODE BLOCK ADDRESS 0x2f47 ===
  0x2f47	dec    	eax
  0x2f48	mov    	eax, dword ptr [0x325a]
  0x2f4e	dec    	eax
  0x2f4f	mov    	eax, dword ptr [eax]
  0x2f51	dec    	eax
  === BLOCK LINK ===
    0x2f52
=== CODE BLOCK END ===

=== CODE BLOCK ADDRESS 0x2f52 ===
  0x2f52	mov    	dword ptr [0x32b0], eax
  0x2f58	dec    	eax
  0x2f59	mov    	eax, dword ptr [0x3249]
  0x2f5f	dec    	eax
  0x2f60	add    	eax, 8
  === BLOCK LINK ===
    0x2f63
=== CODE BLOCK END ===

=== CODE BLOCK ADDRESS 0x2f63 ===
  0x2f63	dec    	eax
  0x2f64	mov    	dword ptr [0x323e], eax
  0x2f6a	dec    	eax
  0x2f6b	mov    	eax, dword ptr [0x3297]
  0x2f71	dec    	eax
  === BLOCK LINK ===
    0x2f72
=== CODE BLOCK END ===

=== CODE BLOCK ADDRESS 0x2f72 ===
  0x2f72	mov    	dword ptr [0x3108], eax
  0x2f78	dec    	eax
  0x2f79	mov    	eax, dword ptr [esp + 0x90]
  0x2f80	dec    	eax
  0x2f81	mov    	dword ptr [0x3209], eax
  === BLOCK LINK ===
    0x2f87
=== CODE BLOCK END ===

=== CODE BLOCK ADDRESS 0x2f87 ===
  0x2f87	mov    	dword ptr [0x30df], 0xc0000409
  0x2f91	mov    	dword ptr [0x30d9], 1
  0x2f9b	mov    	dword ptr [0x30e3], 3
  0x2fa5	mov    	eax, 8
  0x2faa	dec    	eax
  === BLOCK LINK ===
    0x2fab
=== CODE BLOCK END ===

=== CODE BLOCK ADDRESS 0x2fab ===
  0x2fab	imul   	eax, eax, 0
  0x2fae	dec    	eax
  0x2faf	lea    	ecx, [0x30db]
  0x2fb5	dec    	eax
  0x2fb6	mov    	dword ptr [ecx + eax], 2
  === BLOCK LINK ===
    0x2fbd
=== CODE BLOCK END ===

=== CODE BLOCK ADDRESS 0x2fbd ===
  0x2fbd	mov    	eax, 8
  0x2fc2	dec    	eax
  0x2fc3	imul   	eax, eax, 1
  0x2fc6	dec    	eax
  0x2fc7	lea    	ecx, [0x30c3]
  === BLOCK LINK ===
    0x2fcd
=== CODE BLOCK END ===

=== CODE BLOCK ADDRESS 0x2fcd ===
  0x2fcd	dec    	eax
  0x2fce	mov    	edx, dword ptr [0x3034]
  0x2fd4	dec    	eax
  0x2fd5	mov    	dword ptr [ecx + eax], edx
  0x2fd8	mov    	eax, 8
  === BLOCK LINK ===
    0x2fdd
=== CODE BLOCK END ===

=== CODE BLOCK ADDRESS 0x2fdd ===
  0x2fdd	dec    	eax
  0x2fde	imul   	eax, eax, 2
  0x2fe1	dec    	eax
  0x2fe2	lea    	ecx, [0x30a8]
  0x2fe8	dec    	eax
  === BLOCK LINK ===
    0x2fe9
=== CODE BLOCK END ===

=== CODE BLOCK ADDRESS 0x2fe9 ===
  0x2fe9	mov    	edx, dword ptr [0x3021]
  0x2fef	dec    	eax
  0x2ff0	mov    	dword ptr [ecx + eax], edx
  0x2ff3	mov    	eax, 8
  0x2ff8	dec    	eax
  === BLOCK LINK ===
    0x2ff9
=== CODE BLOCK END ===

=== CODE BLOCK ADDRESS 0x2ff9 ===
  0x2ff9	imul   	eax, eax, 0
  0x2ffc	dec    	eax
  0x2ffd	mov    	ecx, dword ptr [0x3005]
  0x3003	dec    	eax
  0x3004	mov    	dword ptr [esp + eax + 0x68], ecx
  === BLOCK LINK ===
    0x3008
=== CODE BLOCK END ===

=== CODE BLOCK ADDRESS 0x3008 ===
  0x3008	mov    	eax, 8
  0x300d	dec    	eax
  0x300e	imul   	eax, eax, 1
  0x3011	dec    	eax
  0x3012	mov    	ecx, dword ptr [0x2ff8]
  === BLOCK LINK ===
    0x3018
=== CODE BLOCK END ===

=== CODE BLOCK ADDRESS 0x3018 ===
  0x3018	dec    	eax
  0x3019	mov    	dword ptr [esp + eax + 0x68], ecx
  0x301d	dec    	eax
  0x301e	lea    	ecx, [0xfdc]
  0x3024	call   	0x2e7c
  === BLOCK LINK ===
    0x3029
=== CODE BLOCK END ===

=== CODE BLOCK ADDRESS 0x3029 ===
  0x3029	dec    	eax
  0x302a	add    	esp, 0x88
  0x3030	ret    	
  0x3031	int3   	
  0x3032	int3   	
  === BLOCK LINK ===
    0x3033
=== CODE BLOCK END ===

=== CODE BLOCK ADDRESS 0x3033 ===
  0x3033	int3   	
  0x3034	int3   	
  0x3035	int3   	
  0x3036	int3   	
  0x3037	int3   	
  === BLOCK LINK ===
    0x3038
=== CODE BLOCK END ===

=== CODE BLOCK ADDRESS 0x3038 ===
  0x3038	dec    	eax
  0x3039	sub    	esp, 0x78
  0x303c	dec    	eax
  0x303d	lea    	ecx, [0x30cd]
  0x3043	call   	dword ptr [0x12c7]
  === BLOCK LINK ===
    0x3049
=== CODE BLOCK END ===

=== CODE BLOCK ADDRESS 0x3049 ===
  0x3049	dec    	eax
  0x304a	mov    	eax, dword ptr [0x31b8]
  0x3050	dec    	eax
  0x3051	mov    	dword ptr [esp + 0x48], eax
  0x3055	inc    	ebp
  === BLOCK LINK ===
    0x3056
=== CODE BLOCK END ===

=== CODE BLOCK ADDRESS 0x3056 ===
  0x3056	xor    	eax, eax
  0x3058	dec    	eax
  0x3059	lea    	edx, [esp + 0x50]
  0x305d	dec    	eax
  0x305e	mov    	ecx, dword ptr [esp + 0x48]
  === BLOCK LINK ===
    0x3062
=== CODE BLOCK END ===

=== CODE BLOCK ADDRESS 0x3062 ===
  0x3062	call   	dword ptr [0x12b0]
  === BLOCK LINK ===
    0x3068
=== CODE BLOCK END ===

=== CODE BLOCK ADDRESS 0x3068 ===
  0x3068	dec    	eax
  0x3069	mov    	dword ptr [esp + 0x40], eax
  0x306d	dec    	eax
  0x306e	cmp    	dword ptr [esp + 0x40], 0
  0x3073	je     	0x30b7
  === BLOCK LINK ===
    0x3075
=== CODE BLOCK END ===

=== CODE BLOCK ADDRESS 0x3075 ===
  0x3075	dec    	eax
  0x3076	mov    	dword ptr [esp + 0x38], 0
  0x307e	dec    	eax
  0x307f	lea    	eax, [esp + 0x58]
  0x3083	dec    	eax
  === BLOCK LINK ===
    0x3084
=== CODE BLOCK END ===

=== CODE BLOCK ADDRESS 0x3084 ===
  0x3084	mov    	dword ptr [esp + 0x30], eax
  0x3088	dec    	eax
  0x3089	lea    	eax, [esp + 0x60]
  0x308d	dec    	eax
  0x308e	mov    	dword ptr [esp + 0x28], eax
  === BLOCK LINK ===
    0x3092
=== CODE BLOCK END ===

=== CODE BLOCK ADDRESS 0x3092 ===
  0x3092	dec    	eax
  0x3093	lea    	eax, [0x3077]
  0x3099	dec    	eax
  0x309a	mov    	dword ptr [esp + 0x20], eax
  0x309e	dec    	esp
  === BLOCK LINK ===
    0x309f
=== CODE BLOCK END ===

=== CODE BLOCK ADDRESS 0x309f ===
  0x309f	mov    	ecx, dword ptr [esp + 0x40]
  0x30a3	dec    	esp
  0x30a4	mov    	eax, dword ptr [esp + 0x48]
  0x30a8	dec    	eax
  0x30a9	mov    	edx, dword ptr [esp + 0x50]
  === BLOCK LINK ===
    0x30ad
=== CODE BLOCK END ===

=== CODE BLOCK ADDRESS 0x30ad ===
  0x30ad	xor    	ecx, ecx
  0x30af	call   	dword ptr [0x126b]
  === BLOCK LINK ===
    0x30b5
=== CODE BLOCK END ===

=== CODE BLOCK ADDRESS 0x30b5 ===
  0x30b5	jmp    	0x30da
  === BLOCK LINK ===
    0x30b7
=== CODE BLOCK END ===

=== CODE BLOCK ADDRESS 0x30b7 ===
  0x30b7	dec    	eax
  0x30b8	mov    	eax, dword ptr [0x30ea]
  0x30be	dec    	eax
  0x30bf	mov    	eax, dword ptr [eax]
  0x30c1	dec    	eax
  === BLOCK LINK ===
    0x30c2
=== CODE BLOCK END ===

=== CODE BLOCK ADDRESS 0x30c2 ===
  0x30c2	mov    	dword ptr [0x3140], eax
  0x30c8	dec    	eax
  0x30c9	mov    	eax, dword ptr [0x30d9]
  0x30cf	dec    	eax
  0x30d0	add    	eax, 8
  === BLOCK LINK ===
    0x30d3
=== CODE BLOCK END ===

=== CODE BLOCK ADDRESS 0x30d3 ===
  0x30d3	dec    	eax
  0x30d4	mov    	dword ptr [0x30ce], eax
  0x30da	dec    	eax
  0x30db	mov    	eax, dword ptr [0x3127]
  0x30e1	dec    	eax
  === BLOCK LINK ===
    0x30e2
=== CODE BLOCK END ===

=== CODE BLOCK ADDRESS 0x30e2 ===
  0x30e2	mov    	dword ptr [0x2f98], eax
  0x30e8	mov    	dword ptr [0x2f7e], 0xc0000409
  0x30f2	mov    	dword ptr [0x2f78], 1
  0x30fc	mov    	dword ptr [0x2f82], 1
  0x3106	mov    	eax, 8
  === BLOCK LINK ===
    0x310b
=== CODE BLOCK END ===

=== CODE BLOCK ADDRESS 0x310b ===
  0x310b	dec    	eax
  0x310c	imul   	eax, eax, 0
  0x310f	dec    	eax
  0x3110	lea    	ecx, [0x2f7a]
  0x3116	dec    	eax
  === BLOCK LINK ===
    0x3117
=== CODE BLOCK END ===

=== CODE BLOCK ADDRESS 0x3117 ===
  0x3117	mov    	dword ptr [ecx + eax], 8
  0x311e	dec    	eax
  0x311f	lea    	ecx, [0xedb]
  0x3125	call   	0x2e7c
  === BLOCK LINK ===
    0x312a
=== CODE BLOCK END ===

=== CODE BLOCK ADDRESS 0x312a ===
  0x312a	dec    	eax
  0x312b	add    	esp, 0x78
  0x312e	ret    	
  0x312f	int3   	
  0x3130	int3   	
  === BLOCK LINK ===
    0x3131
=== CODE BLOCK END ===

=== CODE BLOCK ADDRESS 0x3131 ===
  0x3131	int3   	
  0x3132	int3   	
  0x3133	int3   	
  0x3134	int3   	
  0x3135	int3   	
  === BLOCK LINK ===
    0x3136
=== CODE BLOCK END ===

=== CODE BLOCK ADDRESS 0x3136 ===
  0x3136	int3   	
  0x3137	int3   	
  0x3138	dec    	eax
  0x3139	sub    	esp, 0x28
  0x313c	dec    	ebp
  === BLOCK LINK ===
    0x313d
=== CODE BLOCK END ===

=== CODE BLOCK ADDRESS 0x313d ===
  0x313d	mov    	eax, dword ptr [ecx + 0x38]
  0x3140	dec    	eax
  0x3141	mov    	ecx, edx
  0x3143	dec    	ecx
  0x3144	mov    	edx, ecx
  === BLOCK LINK ===
    0x3146
=== CODE BLOCK END ===

=== CODE BLOCK ADDRESS 0x3146 ===
  0x3146	call   	0x315c
  === BLOCK LINK ===
    0x314b
=== CODE BLOCK END ===

=== CODE BLOCK ADDRESS 0x314b ===
  0x314b	mov    	eax, 1
  0x3150	dec    	eax
  0x3151	add    	esp, 0x28
  0x3154	ret    	
  0x3155	int3   	
  === BLOCK LINK ===
    0x3156
=== CODE BLOCK END ===

=== CODE BLOCK ADDRESS 0x3156 ===
  0x3156	int3   	
  0x3157	int3   	
  0x3158	int3   	
  0x3159	int3   	
  0x315a	int3   	
  === BLOCK LINK ===
    0x315b
=== CODE BLOCK END ===

=== CODE BLOCK ADDRESS 0x315b ===
  0x315b	int3   	
  0x315c	inc    	eax
  0x315d	push   	ebx
  0x315e	inc    	ebp
  0x315f	mov    	ebx, dword ptr [eax]
  === BLOCK LINK ===
    0x3161
=== CODE BLOCK END ===

=== CODE BLOCK ADDRESS 0x3161 ===
  0x3161	dec    	eax
  0x3162	mov    	ebx, edx
  0x3164	inc    	ecx
  0x3165	and    	ebx, 0xfffffff8
  0x3168	dec    	esp
  === BLOCK LINK ===
    0x3169
=== CODE BLOCK END ===

=== CODE BLOCK ADDRESS 0x3169 ===
  0x3169	mov    	ecx, ecx
  0x316b	inc    	ecx
  0x316c	test   	byte ptr [eax], 4
  0x316f	dec    	esp
  0x3170	mov    	edx, ecx
  === BLOCK LINK ===
    0x3172
=== CODE BLOCK END ===

=== CODE BLOCK ADDRESS 0x3172 ===
  0x3172	je     	0x3187
  === BLOCK LINK ===
    0x3174
=== CODE BLOCK END ===

=== CODE BLOCK ADDRESS 0x3174 ===
  0x3174	inc    	ecx
  0x3175	mov    	eax, dword ptr [eax + 8]
  0x3178	dec    	ebp
  0x3179	arpl   	word ptr [eax + 4], dx
  0x317c	neg    	eax
  === BLOCK LINK ===
    0x317e
=== CODE BLOCK END ===

=== CODE BLOCK ADDRESS 0x317e ===
  0x317e	dec    	esp
  0x317f	add    	edx, ecx
  0x3181	dec    	eax
  0x3182	arpl   	ax, cx
  0x3184	dec    	esp
  === BLOCK LINK ===
    0x3185
=== CODE BLOCK END ===

=== CODE BLOCK ADDRESS 0x3185 ===
  0x3185	and    	edx, ecx
  0x3187	dec    	ecx
  0x3188	arpl   	bx, ax
  0x318a	dec    	edx
  0x318b	mov    	edx, dword ptr [eax + edx]
  === BLOCK LINK ===
    0x318e
=== CODE BLOCK END ===

=== CODE BLOCK ADDRESS 0x318e ===
  0x318e	dec    	eax
  0x318f	mov    	eax, dword ptr [ebx + 0x10]
  0x3192	mov    	ecx, dword ptr [eax + 8]
  0x3195	dec    	eax
  0x3196	mov    	eax, dword ptr [ebx + 8]
  === BLOCK LINK ===
    0x3199
=== CODE BLOCK END ===

=== CODE BLOCK ADDRESS 0x3199 ===
  0x3199	test   	byte ptr [ecx + eax + 3], 0xf
  0x319e	je     	0x31ab
  === BLOCK LINK ===
    0x31a0
=== CODE BLOCK END ===

=== CODE BLOCK ADDRESS 0x31a0 ===
  0x31a0	movzx  	eax, byte ptr [ecx + eax + 3]
  0x31a5	and    	eax, 0xfffffff0
  0x31a8	dec    	esp
  0x31a9	add    	ecx, eax
  0x31ab	dec    	esp
  === BLOCK LINK ===
    0x31ac
=== CODE BLOCK END ===

=== CODE BLOCK ADDRESS 0x31ac ===
  0x31ac	xor    	ecx, edx
  0x31ae	dec    	ecx
  0x31af	mov    	ecx, ecx
  0x31b1	pop    	ebx
  0x31b2	jmp    	0x2b40
  === BLOCK LINK ===
    0x31b7
=== CODE BLOCK END ===

=== CODE BLOCK ADDRESS 0x31b7 ===
  0x31b7	int3   	
  0x31b8	int3   	
  0x31b9	int3   	
  0x31ba	int3   	
  0x31bb	int3   	
  === BLOCK LINK ===
    0x31bc
=== CODE BLOCK END ===

=== CODE BLOCK ADDRESS 0x31bc ===
  0x31bc	int3   	
  0x31bd	jmp    	dword ptr [0x113d]
  === BLOCK LINK ===
    0x31c3
=== CODE BLOCK END ===

=== CODE BLOCK ADDRESS 0x31c3 ===
  0x31c3	int3   	
  0x31c4	int3   	
  0x31c5	int3   	
  0x31c6	int3   	
  0x31c7	int3   	
  === BLOCK LINK ===
    0x31c8
=== CODE BLOCK END ===

=== CODE BLOCK ADDRESS 0x31c8 ===
  0x31c8	int3   	
  0x31c9	int3   	
  0x31ca	int3   	
  0x31cb	int3   	
  0x31cc	int3   	
  === BLOCK LINK ===
    0x31cd
=== CODE BLOCK END ===

=== CODE BLOCK ADDRESS 0x31cd ===
  0x31cd	int3   	
  0x31ce	int3   	
  0x31cf	int3   	
  0x31d0	int3   	
  0x31d1	int3   	
  === BLOCK LINK ===
    0x31d2
=== CODE BLOCK END ===

=== CODE BLOCK ADDRESS 0x31d2 ===
  0x31d2	int3   	
  0x31d3	int3   	
  0x31d4	int3   	
  0x31d5	int3   	
  0x31d6	nop    	word ptr [eax + eax]
  === BLOCK LINK ===
    0x31e0
=== CODE BLOCK END ===

=== CODE BLOCK ADDRESS 0x31e0 ===
  0x31e0	jmp    	eax
  === BLOCK LINK ===
    0x31e2
=== CODE BLOCK END ===

=== CODE BLOCK ADDRESS 0x31e2 ===
  0x31e2	int3   	
  0x31e3	int3   	
  0x31e4	int3   	
  0x31e5	int3   	
  0x31e6	int3   	
  === BLOCK LINK ===
    0x31e7
=== CODE BLOCK END ===

=== CODE BLOCK ADDRESS 0x31e7 ===
  0x31e7	int3   	
  0x31e8	int3   	
  0x31e9	int3   	
  0x31ea	int3   	
  0x31eb	int3   	
  === BLOCK LINK ===
    0x31ec
=== CODE BLOCK END ===

=== CODE BLOCK ADDRESS 0x31ec ===
  0x31ec	int3   	
  0x31ed	int3   	
  0x31ee	int3   	
  0x31ef	int3   	
  0x31f0	inc    	eax
  === BLOCK LINK ===
    0x31f1
=== CODE BLOCK END ===

=== CODE BLOCK ADDRESS 0x31f1 ===
  0x31f1	push   	ebp
  0x31f2	dec    	eax
  0x31f3	sub    	esp, 0x20
  0x31f6	dec    	eax
  0x31f7	mov    	ebp, edx
  === BLOCK LINK ===
    0x31f9
=== CODE BLOCK END ===

=== CODE BLOCK ADDRESS 0x31f9 ===
  0x31f9	dec    	eax
  0x31fa	mov    	dword ptr [ebp + 0x38], ecx
  0x31fd	dec    	eax
  0x31fe	mov    	eax, dword ptr [ecx]
  0x3200	mov    	ecx, dword ptr [eax]
  === BLOCK LINK ===
    0x3202
=== CODE BLOCK END ===

=== CODE BLOCK ADDRESS 0x3202 ===
  0x3202	mov    	dword ptr [ebp + 0x30], ecx
  0x3205	mov    	dword ptr [ebp + 0x20], ecx
  0x3208	mov    	eax, dword ptr [ebp + 0x20]
  0x320b	cmp    	eax, 0xe0000300
  0x3210	je     	0x3225
  === BLOCK LINK ===
    0x3212
=== CODE BLOCK END ===

=== CODE BLOCK ADDRESS 0x3212 ===
  0x3212	mov    	eax, dword ptr [ebp + 0x20]
  0x3215	cmp    	eax, 0xc0000194
  0x321a	je     	0x3225
  === BLOCK LINK ===
    0x321c
=== CODE BLOCK END ===

=== CODE BLOCK ADDRESS 0x321c ===
  0x321c	mov    	dword ptr [ebp + 0x28], 1
  0x3223	jmp    	0x322c
  === BLOCK LINK ===
    0x3225
=== CODE BLOCK END ===

=== CODE BLOCK ADDRESS 0x3225 ===
  0x3225	mov    	dword ptr [ebp + 0x28], 0
  0x322c	mov    	eax, dword ptr [ebp + 0x28]
  0x322f	dec    	eax
  0x3230	add    	esp, 0x20
  0x3233	pop    	ebp
  === BLOCK LINK ===
    0x3234
=== CODE BLOCK END ===

=== CODE BLOCK ADDRESS 0x3234 ===
  0x3234	ret    	
  0x3235	int3   	
  0x3236	int3   	
  0x3237	int3   	
  0x3238	int3   	
  === BLOCK LINK ===
    0x3239
=== CODE BLOCK END ===

=== CODE BLOCK ADDRESS 0x3239 ===
  0x3239	int3   	
  0x323a	int3   	
  0x323b	int3   	
  0x323c	inc    	eax
  0x323d	push   	ebp
  === BLOCK LINK ===
    0x323e
=== CODE BLOCK END ===

=== CODE BLOCK ADDRESS 0x323e ===
  0x323e	dec    	eax
  0x323f	sub    	esp, 0x20
  0x3242	dec    	eax
  0x3243	mov    	ebp, edx
  0x3245	dec    	eax
  === BLOCK LINK ===
    0x3246
=== CODE BLOCK END ===

=== CODE BLOCK ADDRESS 0x3246 ===
  0x3246	mov    	eax, dword ptr [ecx]
  0x3248	dec    	eax
  0x3249	mov    	edx, ecx
  0x324b	mov    	ecx, dword ptr [eax]
  0x324d	call   	0x2bce
  === BLOCK LINK ===
    0x3252
=== CODE BLOCK END ===

=== CODE BLOCK ADDRESS 0x3252 ===
  0x3252	nop    	
  0x3253	dec    	eax
  0x3254	add    	esp, 0x20
  0x3257	pop    	ebp
  0x3258	ret    	
  === BLOCK LINK ===
    0x3259
=== CODE BLOCK END ===

=== CODE BLOCK ADDRESS 0x3259 ===
  0x3259	int3   	
  0x325a	int3   	
  0x325b	int3   	
  0x325c	int3   	
  0x325d	int3   	
  === BLOCK LINK ===
    0x325e
=== CODE BLOCK END ===

=== CODE BLOCK ADDRESS 0x325e ===
  0x325e	int3   	
  0x325f	int3   	
  0x3260	inc    	eax
  0x3261	push   	ebp
  0x3262	dec    	eax
  === BLOCK LINK ===
    0x3263
=== CODE BLOCK END ===

=== CODE BLOCK ADDRESS 0x3263 ===
  0x3263	sub    	esp, 0x20
  0x3266	dec    	eax
  0x3267	mov    	ebp, edx
  0x3269	dec    	eax
  0x326a	mov    	eax, dword ptr [ecx]
  === BLOCK LINK ===
    0x326c
=== CODE BLOCK END ===

=== CODE BLOCK ADDRESS 0x326c ===
  0x326c	xor    	ecx, ecx
  0x326e	cmp    	dword ptr [eax], 0xc0000005
  0x3274	sete   	cl
  0x3277	mov    	eax, ecx
  0x3279	dec    	eax
  === BLOCK LINK ===
    0x327a
=== CODE BLOCK END ===

=== CODE BLOCK ADDRESS 0x327a ===
  0x327a	add    	esp, 0x20
  0x327d	pop    	ebp
  0x327e	ret    	
  0x327f	int3   	
  0x3280	add    	byte ptr [eax], al
  === BLOCK LINK ===
    0x3282
=== CODE BLOCK END ===

=== CODE BLOCK ADDRESS 0x3282 ===
  0x3282	add    	byte ptr [eax], al
  0x3284	add    	byte ptr [eax], al
  0x3286	add    	byte ptr [eax], al
  0x3288	add    	byte ptr [eax], al
  0x328a	add    	byte ptr [eax], al
  === BLOCK LINK ===
    0x328c
=== CODE BLOCK END ===

=== CODE BLOCK ADDRESS 0x328c ===
  0x328c	add    	byte ptr [eax], al
  0x328e	add    	byte ptr [eax], al
  0x3290	add    	byte ptr [eax], al
  0x3292	add    	byte ptr [eax], al
  0x3294	add    	byte ptr [eax], al
  === BLOCK LINK ===
    0x3296
=== CODE BLOCK END ===

=== CODE BLOCK ADDRESS 0x3296 ===
  0x3296	add    	byte ptr [eax], al
  0x3298	add    	byte ptr [eax], al
  0x329a	add    	byte ptr [eax], al
  0x329c	add    	byte ptr [eax], al
  0x329e	add    	byte ptr [eax], al
  === BLOCK LINK ===
    0x32a0
=== CODE BLOCK END ===

=== CODE BLOCK ADDRESS 0x32a0 ===
  0x32a0	add    	byte ptr [eax], al
  0x32a2	add    	byte ptr [eax], al
  0x32a4	add    	byte ptr [eax], al
  0x32a6	add    	byte ptr [eax], al
  0x32a8	add    	byte ptr [eax], al
  === BLOCK LINK ===
    0x32aa
=== CODE BLOCK END ===

=== CODE BLOCK ADDRESS 0x32aa ===
  0x32aa	add    	byte ptr [eax], al
  0x32ac	add    	byte ptr [eax], al
  0x32ae	add    	byte ptr [eax], al
  0x32b0	add    	byte ptr [eax], al
  0x32b2	add    	byte ptr [eax], al
  === BLOCK LINK ===
    0x32b4
=== CODE BLOCK END ===

=== CODE BLOCK ADDRESS 0x32b4 ===
  0x32b4	add    	byte ptr [eax], al
  0x32b6	add    	byte ptr [eax], al
  0x32b8	add    	byte ptr [eax], al
  0x32ba	add    	byte ptr [eax], al
  0x32bc	add    	byte ptr [eax], al
  === BLOCK LINK ===
    0x32be
=== CODE BLOCK END ===

=== CODE BLOCK ADDRESS 0x32be ===
  0x32be	add    	byte ptr [eax], al
  0x32c0	add    	byte ptr [eax], al
  0x32c2	add    	byte ptr [eax], al
  0x32c4	add    	byte ptr [eax], al
  0x32c6	add    	byte ptr [eax], al
  === BLOCK LINK ===
    0x32c8
=== CODE BLOCK END ===

=== CODE BLOCK ADDRESS 0x32c8 ===
  0x32c8	add    	byte ptr [eax], al
  0x32ca	add    	byte ptr [eax], al
  0x32cc	add    	byte ptr [eax], al
  0x32ce	add    	byte ptr [eax], al
  0x32d0	add    	byte ptr [eax], al
  === BLOCK LINK ===
    0x32d2
=== CODE BLOCK END ===

=== CODE BLOCK ADDRESS 0x32d2 ===
  0x32d2	add    	byte ptr [eax], al
  0x32d4	add    	byte ptr [eax], al
  0x32d6	add    	byte ptr [eax], al
  0x32d8	add    	byte ptr [eax], al
  0x32da	add    	byte ptr [eax], al
  === BLOCK LINK ===
    0x32dc
=== CODE BLOCK END ===

=== CODE BLOCK ADDRESS 0x32dc ===
  0x32dc	add    	byte ptr [eax], al
  0x32de	add    	byte ptr [eax], al
  0x32e0	add    	byte ptr [eax], al
  0x32e2	add    	byte ptr [eax], al
  0x32e4	add    	byte ptr [eax], al
  === BLOCK LINK ===
    0x32e6
=== CODE BLOCK END ===

=== CODE BLOCK ADDRESS 0x32e6 ===
  0x32e6	add    	byte ptr [eax], al
  0x32e8	add    	byte ptr [eax], al
  0x32ea	add    	byte ptr [eax], al
  0x32ec	add    	byte ptr [eax], al
  0x32ee	add    	byte ptr [eax], al
  === BLOCK LINK ===
    0x32f0
=== CODE BLOCK END ===

=== CODE BLOCK ADDRESS 0x32f0 ===
  0x32f0	add    	byte ptr [eax], al
  0x32f2	add    	byte ptr [eax], al
  0x32f4	add    	byte ptr [eax], al
  0x32f6	add    	byte ptr [eax], al
  0x32f8	add    	byte ptr [eax], al
  === BLOCK LINK ===
    0x32fa
=== CODE BLOCK END ===

=== CODE BLOCK ADDRESS 0x32fa ===
  0x32fa	add    	byte ptr [eax], al
  0x32fc	add    	byte ptr [eax], al
  0x32fe	add    	byte ptr [eax], al
  0x3300	add    	byte ptr [eax], al
  0x3302	add    	byte ptr [eax], al
  === BLOCK LINK ===
    0x3304
=== CODE BLOCK END ===

=== CODE BLOCK ADDRESS 0x3304 ===
  0x3304	add    	byte ptr [eax], al
  0x3306	add    	byte ptr [eax], al
  0x3308	add    	byte ptr [eax], al
  0x330a	add    	byte ptr [eax], al
  0x330c	add    	byte ptr [eax], al
  === BLOCK LINK ===
    0x330e
=== CODE BLOCK END ===

=== CODE BLOCK ADDRESS 0x330e ===
  0x330e	add    	byte ptr [eax], al
  0x3310	add    	byte ptr [eax], al
  0x3312	add    	byte ptr [eax], al
  0x3314	add    	byte ptr [eax], al
  0x3316	add    	byte ptr [eax], al
  === BLOCK LINK ===
    0x3318
=== CODE BLOCK END ===

=== CODE BLOCK ADDRESS 0x3318 ===
  0x3318	add    	byte ptr [eax], al
  0x331a	add    	byte ptr [eax], al
  0x331c	add    	byte ptr [eax], al
  0x331e	add    	byte ptr [eax], al
  0x3320	add    	byte ptr [eax], al
  === BLOCK LINK ===
    0x3322
=== CODE BLOCK END ===

=== CODE BLOCK ADDRESS 0x3322 ===
  0x3322	add    	byte ptr [eax], al
  0x3324	add    	byte ptr [eax], al
  0x3326	add    	byte ptr [eax], al
  0x3328	add    	byte ptr [eax], al
  0x332a	add    	byte ptr [eax], al
  === BLOCK LINK ===
    0x332c
=== CODE BLOCK END ===

=== CODE BLOCK ADDRESS 0x332c ===
  0x332c	add    	byte ptr [eax], al
  0x332e	add    	byte ptr [eax], al
  0x3330	add    	byte ptr [eax], al
  0x3332	add    	byte ptr [eax], al
  0x3334	add    	byte ptr [eax], al
  === BLOCK LINK ===
    0x3336
=== CODE BLOCK END ===

=== CODE BLOCK ADDRESS 0x3336 ===
  0x3336	add    	byte ptr [eax], al
  0x3338	add    	byte ptr [eax], al
  0x333a	add    	byte ptr [eax], al
  0x333c	add    	byte ptr [eax], al
  0x333e	add    	byte ptr [eax], al
  === BLOCK LINK ===
    0x3340
=== CODE BLOCK END ===

=== CODE BLOCK ADDRESS 0x3340 ===
  0x3340	add    	byte ptr [eax], al
  0x3342	add    	byte ptr [eax], al
  0x3344	add    	byte ptr [eax], al
  0x3346	add    	byte ptr [eax], al
  0x3348	add    	byte ptr [eax], al
  === BLOCK LINK ===
    0x334a
=== CODE BLOCK END ===

=== CODE BLOCK ADDRESS 0x334a ===
  0x334a	add    	byte ptr [eax], al
  0x334c	add    	byte ptr [eax], al
  0x334e	add    	byte ptr [eax], al
  0x3350	add    	byte ptr [eax], al
  0x3352	add    	byte ptr [eax], al
  === BLOCK LINK ===
    0x3354
=== CODE BLOCK END ===

=== CODE BLOCK ADDRESS 0x3354 ===
  0x3354	add    	byte ptr [eax], al
  0x3356	add    	byte ptr [eax], al
  0x3358	add    	byte ptr [eax], al
  0x335a	add    	byte ptr [eax], al
  0x335c	add    	byte ptr [eax], al
  === BLOCK LINK ===
    0x335e
=== CODE BLOCK END ===

=== CODE BLOCK ADDRESS 0x335e ===
  0x335e	add    	byte ptr [eax], al
  0x3360	add    	byte ptr [eax], al
  0x3362	add    	byte ptr [eax], al
  0x3364	add    	byte ptr [eax], al
  0x3366	add    	byte ptr [eax], al
  === BLOCK LINK ===
    0x3368
=== CODE BLOCK END ===

=== CODE BLOCK ADDRESS 0x3368 ===
  0x3368	add    	byte ptr [eax], al
  0x336a	add    	byte ptr [eax], al
  0x336c	add    	byte ptr [eax], al
  0x336e	add    	byte ptr [eax], al
  0x3370	add    	byte ptr [eax], al
  === BLOCK LINK ===
    0x3372
=== CODE BLOCK END ===

=== CODE BLOCK ADDRESS 0x3372 ===
  0x3372	add    	byte ptr [eax], al
  0x3374	add    	byte ptr [eax], al
  0x3376	add    	byte ptr [eax], al
  0x3378	add    	byte ptr [eax], al
  0x337a	add    	byte ptr [eax], al
  === BLOCK LINK ===
    0x337c
=== CODE BLOCK END ===

=== CODE BLOCK ADDRESS 0x337c ===
  0x337c	add    	byte ptr [eax], al
  0x337e	add    	byte ptr [eax], al
  0x3380	add    	byte ptr [eax], al
  0x3382	add    	byte ptr [eax], al
  0x3384	add    	byte ptr [eax], al
  === BLOCK LINK ===
    0x3386
=== CODE BLOCK END ===

=== CODE BLOCK ADDRESS 0x3386 ===
  0x3386	add    	byte ptr [eax], al
  0x3388	add    	byte ptr [eax], al
  0x338a	add    	byte ptr [eax], al
  0x338c	add    	byte ptr [eax], al
  0x338e	add    	byte ptr [eax], al
  === BLOCK LINK ===
    0x3390
=== CODE BLOCK END ===

=== CODE BLOCK ADDRESS 0x3390 ===
  0x3390	add    	byte ptr [eax], al
  0x3392	add    	byte ptr [eax], al
  0x3394	add    	byte ptr [eax], al
  0x3396	add    	byte ptr [eax], al
  0x3398	add    	byte ptr [eax], al
  === BLOCK LINK ===
    0x339a
=== CODE BLOCK END ===

=== CODE BLOCK ADDRESS 0x339a ===
  0x339a	add    	byte ptr [eax], al
  0x339c	add    	byte ptr [eax], al
  0x339e	add    	byte ptr [eax], al
  0x33a0	add    	byte ptr [eax], al
  0x33a2	add    	byte ptr [eax], al
  === BLOCK LINK ===
    0x33a4
=== CODE BLOCK END ===

=== CODE BLOCK ADDRESS 0x33a4 ===
  0x33a4	add    	byte ptr [eax], al
  0x33a6	add    	byte ptr [eax], al
  0x33a8	add    	byte ptr [eax], al
  0x33aa	add    	byte ptr [eax], al
  0x33ac	add    	byte ptr [eax], al
  === BLOCK LINK ===
    0x33ae
=== CODE BLOCK END ===

=== CODE BLOCK ADDRESS 0x33ae ===
  0x33ae	add    	byte ptr [eax], al
  0x33b0	add    	byte ptr [eax], al
  0x33b2	add    	byte ptr [eax], al
  0x33b4	add    	byte ptr [eax], al
  0x33b6	add    	byte ptr [eax], al
  === BLOCK LINK ===
    0x33b8
=== CODE BLOCK END ===

=== CODE BLOCK ADDRESS 0x33b8 ===
  0x33b8	add    	byte ptr [eax], al
  0x33ba	add    	byte ptr [eax], al
  0x33bc	add    	byte ptr [eax], al
  0x33be	add    	byte ptr [eax], al
  0x33c0	add    	byte ptr [eax], al
  === BLOCK LINK ===
    0x33c2
=== CODE BLOCK END ===

=== CODE BLOCK ADDRESS 0x33c2 ===
  0x33c2	add    	byte ptr [eax], al
  0x33c4	add    	byte ptr [eax], al
  0x33c6	add    	byte ptr [eax], al
  0x33c8	add    	byte ptr [eax], al
  0x33ca	add    	byte ptr [eax], al
  === BLOCK LINK ===
    0x33cc
=== CODE BLOCK END ===

=== CODE BLOCK ADDRESS 0x33cc ===
  0x33cc	add    	byte ptr [eax], al
  0x33ce	add    	byte ptr [eax], al
  0x33d0	add    	byte ptr [eax], al
  0x33d2	add    	byte ptr [eax], al
  0x33d4	add    	byte ptr [eax], al
  === BLOCK LINK ===
    0x33d6
=== CODE BLOCK END ===

=== CODE BLOCK ADDRESS 0x33d6 ===
  0x33d6	add    	byte ptr [eax], al
  0x33d8	add    	byte ptr [eax], al
  0x33da	add    	byte ptr [eax], al
  0x33dc	add    	byte ptr [eax], al
  0x33de	add    	byte ptr [eax], al
  === BLOCK LINK ===
    0x33e0
=== CODE BLOCK END ===

=== CODE BLOCK ADDRESS 0x33e0 ===
  0x33e0	add    	byte ptr [eax], al
  0x33e2	add    	byte ptr [eax], al
  0x33e4	add    	byte ptr [eax], al
  0x33e6	add    	byte ptr [eax], al
  0x33e8	add    	byte ptr [eax], al
  === BLOCK LINK ===
    0x33ea
=== CODE BLOCK END ===

=== CODE BLOCK ADDRESS 0x33ea ===
  0x33ea	add    	byte ptr [eax], al
  0x33ec	add    	byte ptr [eax], al
  0x33ee	add    	byte ptr [eax], al
  0x33f0	add    	byte ptr [eax], al
  0x33f2	add    	byte ptr [eax], al
  === BLOCK LINK ===
    0x33f4
=== CODE BLOCK END ===

=== CODE BLOCK ADDRESS 0x33f4 ===
  0x33f4	add    	byte ptr [eax], al
  0x33f6	add    	byte ptr [eax], al
  0x33f8	add    	byte ptr [eax], al
  0x33fa	add    	byte ptr [eax], al
  0x33fc	add    	byte ptr [eax], al
  === BLOCK LINK ===
    0x33fe
=== CODE BLOCK END ===

=== CODE BLOCK ADDRESS 0x33fe ===
=== CODE BLOCK END ===

=== DATA BLOCK ADDRESS 0x4000 ===
  0x4000	70 60 00 40 01 00 00 00 10 61 00 40 01 00 00 00 	p`0@00000a0@0000
  0x4010	18 01 00 00 00 00 00 00 00 00 00 00 00 00 00 00 	0000000000000000
  0x4020	00 00 00 00 00 00 00 00 00 00 00 00 00 00 00 00 	0000000000000000
  0x4030	00 00 00 00 00 00 00 00 00 00 00 00 00 00 00 00 	0000000000000000
  0x4040	00 00 00 00 00 00 00 00 00 00 00 00 00 00 00 00 	0000000000000000
  0x4050	00 00 00 00 00 00 00 00 00 00 00 00 00 00 00 00 	0000000000000000
  0x4060	00 00 00 00 00 00 00 00 08 60 00 40 01 00 00 00 	000000000`0@0000
  0x4070	00 00 00 00 00 00 00 00 00 00 00 00 00 00 00 00 	0000000000000000
  0x4080	68 43 00 40 01 00 00 00 70 43 00 40 01 00 00 00 	hC0@0000pC0@0000
  0x4090	c4 43 00 40 01 00 00 00 08 00 00 00 00 00 00 00 	0C0@000000000000
  0x40a0	00 75 41 00 00 00 00 00 00 00 00 00 00 00 00 00 	0uA0000000000000
  0x40b0	00 00 00 00 00 00 00 00 00 00 00 00 00 00 00 00 	0000000000000000
  0x40c0	00 00 00 00 00 00 00 00 00 00 00 00 00 00 00 00 	0000000000000000
  0x40d0	00 00 00 00 00 00 00 00 00 00 00 00 00 00 00 00 	0000000000000000
  0x40e0	00 00 00 00 00 00 00 00 00 00 00 00 00 00 00 00 	0000000000000000
  0x40f0	00 00 00 00 00 00 00 00 00 00 00 00 00 00 00 00 	0000000000000000
  0x4100	00 00 00 00 00 00 00 00 00 00 00 00 00 00 00 00 	0000000000000000
  0x4110	00 00 00 00 00 00 00 00 b0 43 00 40 01 00 00 00 	000000000C0@0000
  0x4120	05 00 00 00 00 00 00 00 fe 50 00 00 00 00 00 00 	000000000P000000
  0x4130	e6 50 00 00 00 00 00 00 ca 50 00 00 00 00 00 00 	0P0000000P000000
  0x4140	00 00 00 00 00 00 00 00 de 52 00 00 00 00 00 00 	000000000R000000
  0x4150	c8 52 00 00 00 00 00 00 b4 52 00 00 00 00 00 00 	0R0000000R000000
  0x4160	f2 52 00 00 00 00 00 00 fe 52 00 00 00 00 00 00 	0R0000000R000000
  0x4170	0a 53 00 00 00 00 00 00 40 4f 00 00 00 00 00 00 	0S000000@O000000
  0x4180	32 4f 00 00 00 00 00 00 20 4f 00 00 00 00 00 00 	2O000000 O000000
  0x4190	0a 4f 00 00 00 00 00 00 fa 4e 00 00 00 00 00 00 	0O0000000N000000
  0x41a0	ea 4e 00 00 00 00 00 00 d8 4e 00 00 00 00 00 00 	0N0000000N000000
  0x41b0	16 51 00 00 00 00 00 00 1e 51 00 00 00 00 00 00 	0Q0000000Q000000
  0x41c0	30 51 00 00 00 00 00 00 4e 51 00 00 00 00 00 00 	0Q000000NQ000000
  0x41d0	62 51 00 00 00 00 00 00 7c 51 00 00 00 00 00 00 	bQ000000|Q000000
  0x41e0	92 51 00 00 00 00 00 00 a8 51 00 00 00 00 00 00 	0Q0000000Q000000
  0x41f0	c2 51 00 00 00 00 00 00 d2 51 00 00 00 00 00 00 	0Q0000000Q000000
  0x4200	ee 51 00 00 00 00 00 00 02 52 00 00 00 00 00 00 	0Q0000000R000000
  0x4210	16 52 00 00 00 00 00 00 26 52 00 00 00 00 00 00 	0R000000&R000000
  0x4220	3e 52 00 00 00 00 00 00 4c 52 00 00 00 00 00 00 	>R000000LR000000
  0x4230	58 52 00 00 00 00 00 00 74 52 00 00 00 00 00 00 	XR000000tR000000
  0x4240	84 52 00 00 00 00 00 00 a2 52 00 00 00 00 00 00 	0R0000000R000000
  0x4250	00 00 00 00 00 00 00 00 a8 50 00 00 00 00 00 00 	000000000P000000
  0x4260	00 00 00 00 00 00 00 00 36 53 00 00 00 00 00 00 	000000006S000000
  0x4270	2c 53 00 00 00 00 00 00 1c 53 00 00 00 00 00 00 	,S0000000S000000
  0x4280	30 50 00 00 00 00 00 00 18 50 00 00 00 00 00 00 	0P0000000P000000
  0x4290	04 50 00 00 00 00 00 00 f8 4f 00 00 00 00 00 00 	0P0000000O000000
  0x42a0	e4 4f 00 00 00 00 00 00 d6 4f 00 00 00 00 00 00 	0O0000000O000000
  0x42b0	cc 4f 00 00 00 00 00 00 c4 4f 00 00 00 00 00 00 	0O0000000O000000
  0x42c0	bc 4f 00 00 00 00 00 00 aa 4f 00 00 00 00 00 00 	0O0000000O000000
  0x42d0	9a 4f 00 00 00 00 00 00 8c 4f 00 00 00 00 00 00 	0O0000000O000000
  0x42e0	7e 4f 00 00 00 00 00 00 74 4f 00 00 00 00 00 00 	~O000000tO000000
  0x42f0	5c 4f 00 00 00 00 00 00 0e 50 00 00 00 00 00 00 	0O0000000P000000
  0x4300	b6 53 00 00 00 00 00 00 00 00 00 00 00 00 00 00 	0S00000000000000
  0x4310	5c 50 00 00 00 00 00 00 70 50 00 00 00 00 00 00 	0P000000pP000000
  0x4320	8a 50 00 00 00 00 00 00 40 53 00 00 00 00 00 00 	0P000000@S000000
  0x4330	5e 53 00 00 00 00 00 00 76 53 00 00 00 00 00 00 	^S000000vS000000
  0x4340	80 53 00 00 00 00 00 00 98 53 00 00 00 00 00 00 	0S0000000S000000
  0x4350	44 50 00 00 00 00 00 00 a4 53 00 00 00 00 00 00 	DP0000000S000000
  0x4360	00 00 00 00 00 00 00 00 70 2e 00 40 01 00 00 00 	00000000p.0@0000
  0x4370	e0 31 00 40 01 00 00 00 00 00 00 00 00 00 00 00 	010@000000000000
  0x4380	70 28 00 40 01 00 00 00 00 00 00 00 00 00 00 00 	p(0@000000000000
  0x4390	00 00 00 00 00 00 00 00 90 27 00 40 01 00 00 00 	000000000'0@0000
  0x43a0	b0 2b 00 40 01 00 00 00 00 00 00 00 00 00 00 00 	0+0@000000000000
  0x43b0	20 13 00 00 80 22 00 00 d7 2a 00 00 22 2c 00 00 	 0000"000*00",00
  0x43c0	30 2d 00 00 90 27 00 00 70 28 00 00 c0 28 00 00 	0-000'00p(000(00
  0x43d0	70 2b 00 00 b0 2b 00 00 90 2c 00 00 70 2e 00 00 	p+000+000,00p.00
  0x43e0	c0 2e 00 00 00 00 00 00 00 00 00 00 00 00 00 00 	0.00000000000000
  0x43f0	6e 00 65 00 77 00 64 00 65 00 76 00 2e 00 64 00 	n0e0w0d0e0v0.0d0
  0x4400	6c 00 6c 00 00 00 00 00 70 44 69 44 6f 44 65 76 	l0l00000pDiDoDev
  0x4410	69 63 65 49 6e 73 74 61 6c 6c 41 73 41 64 6d 69 	iceInstallAsAdmi
  0x4420	6e 00 00 00 00 00 00 00 70 44 69 44 6f 4e 75 6c 	n0000000pDiDoNul
  0x4430	6c 44 72 69 76 65 72 49 6e 73 74 61 6c 6c 00 00 	lDriverInstall00
  0x4440	25 00 6c 00 78 00 00 00 00 00 00 00 00 00 00 00 	%0l0x00000000000
  0x4450	53 00 6f 00 66 00 74 00 77 00 61 00 72 00 65 00 	S0o0f0t0w0a0r0e0
  0x4460	5c 00 4d 00 69 00 63 00 72 00 6f 00 73 00 6f 00 	00M0i0c0r0o0s0o0
  0x4470	66 00 74 00 5c 00 57 00 69 00 6e 00 64 00 6f 00 	f0t000W0i0n0d0o0
  0x4480	77 00 73 00 5c 00 43 00 75 00 72 00 72 00 65 00 	w0s000C0u0r0r0e0
  0x4490	6e 00 74 00 56 00 65 00 72 00 73 00 69 00 6f 00 	n0t0V0e0r0s0i0o0
  0x44a0	6e 00 5c 00 53 00 65 00 74 00 75 00 70 00 00 00 	n000S0e0t0u0p000
  0x44b0	53 00 65 00 74 00 75 00 70 00 4f 00 76 00 65 00 	S0e0t0u0p0O0v0e0
  0x44c0	72 00 72 00 69 00 64 00 65 00 00 00 00 00 00 00 	r0r0i0d0e0000000
  0x44d0	4c 00 6f 00 67 00 50 00 61 00 74 00 68 00 00 00 	L0o0g0P0a0t0h000
  0x44e0	73 00 65 00 74 00 75 00 70 00 61 00 70 00 69 00 	s0e0t0u0p0a0p0i0
  0x44f0	2e 00 64 00 65 00 76 00 2e 00 6c 00 6f 00 67 00 	.0d0e0v0.0l0o0g0
  0x4500	00 00 00 00 00 00 00 00 49 00 4e 00 46 00 00 00 	00000000I0N0F000
  0x4510	5c 00 52 00 45 00 47 00 49 00 53 00 54 00 52 00 	00R0E0G0I0S0T0R0
  0x4520	59 00 5c 00 4d 00 41 00 43 00 48 00 49 00 4e 00 	Y000M0A0C0H0I0N0
  0x4530	45 00 00 00 00 00 00 00 00 00 00 00 00 00 00 00 	E000000000000000
  0x4540	5c 00 52 00 45 00 47 00 49 00 53 00 54 00 52 00 	00R0E0G0I0S0T0R0
  0x4550	59 00 5c 00 4d 00 41 00 43 00 48 00 49 00 4e 00 	Y000M0A0C0H0I0N0
  0x4560	45 00 5c 00 53 00 4f 00 46 00 54 00 57 00 41 00 	E000S0O0F0T0W0A0
  0x4570	52 00 45 00 5c 00 43 00 6c 00 61 00 73 00 73 00 	R0E000C0l0a0s0s0
  0x4580	65 00 73 00 00 00 00 00 5c 00 52 00 45 00 47 00 	e0s0000000R0E0G0
  0x4590	49 00 53 00 54 00 52 00 59 00 5c 00 55 00 53 00 	I0S0T0R0Y000U0S0
  0x45a0	45 00 52 00 00 00 00 00 00 00 00 00 00 00 00 00 	E0R0000000000000
  0x45b0	5c 00 52 00 45 00 47 00 49 00 53 00 54 00 52 00 	00R0E0G0I0S0T0R0
  0x45c0	59 00 5c 00 4d 00 41 00 43 00 48 00 49 00 4e 00 	Y000M0A0C0H0I0N0
  0x45d0	45 00 5c 00 53 00 59 00 53 00 54 00 45 00 4d 00 	E000S0Y0S0T0E0M0
  0x45e0	5c 00 43 00 75 00 72 00 72 00 65 00 6e 00 74 00 	00C0u0r0r0e0n0t0
  0x45f0	43 00 6f 00 6e 00 74 00 72 00 6f 00 6c 00 53 00 	C0o0n0t0r0o0l0S0
  0x4600	65 00 74 00 5c 00 48 00 61 00 72 00 64 00 77 00 	e0t000H0a0r0d0w0
  0x4610	61 00 72 00 65 00 20 00 50 00 72 00 6f 00 66 00 	a0r0e0 0P0r0o0f0
  0x4620	69 00 6c 00 65 00 73 00 5c 00 43 00 75 00 72 00 	i0l0e0s000C0u0r0
  0x4630	72 00 65 00 6e 00 74 00 00 00 00 00 00 00 00 00 	r0e0n0t000000000
  0x4640	73 00 65 00 74 00 75 00 70 00 61 00 70 00 69 00 	s0e0t0u0p0a0p0i0
  0x4650	2e 00 61 00 70 00 70 00 2e 00 6c 00 6f 00 67 00 	.0a0p0p0.0l0o0g0
  0x4660	00 00 00 00 00 00 00 00 73 00 65 00 74 00 75 00 	00000000s0e0t0u0
  0x4670	70 00 61 00 70 00 69 00 2e 00 6f 00 66 00 66 00 	p0a0p0i0.0o0f0f0
  0x4680	6c 00 69 00 6e 00 65 00 2e 00 6c 00 6f 00 67 00 	l0i0n0e0.0l0o0g0
  0x4690	00 00 00 00 00 00 00 00 73 00 65 00 74 00 75 00 	00000000s0e0t0u0
  0x46a0	70 00 61 00 70 00 69 00 2e 00 65 00 76 00 31 00 	p0a0p0i0.0e0v010
  0x46b0	00 00 00 00 00 00 00 00 73 00 65 00 74 00 75 00 	00000000s0e0t0u0
  0x46c0	70 00 61 00 70 00 69 00 2e 00 65 00 76 00 32 00 	p0a0p0i0.0e0v020
  0x46d0	00 00 00 00 00 00 00 00 73 00 65 00 74 00 75 00 	00000000s0e0t0u0
  0x46e0	70 00 61 00 70 00 69 00 2e 00 65 00 76 00 33 00 	p0a0p0i0.0e0v030
  0x46f0	00 00 00 00 00 00 00 00 00 00 00 00 00 00 00 00 	0000000000000000
  0x4700	00 00 00 00 2a aa e2 2b 00 00 00 00 02 00 00 00 	0000*00+00000000
  0x4710	24 00 00 00 54 47 00 00 54 2f 00 00 00 00 00 00 	$000TG00T/000000
  0x4720	2a aa e2 2b 00 00 00 00 0d 00 00 00 04 02 00 00 	*00+000000000000
  0x4730	78 47 00 00 78 2f 00 00 00 00 00 00 2a aa e2 2b 	xG00x/000000*00+
  0x4740	00 00 00 00 10 00 00 00 24 00 00 00 7c 49 00 00 	00000000$000|I00
  0x4750	7c 31 00 00 52 53 44 53 e7 f0 f8 05 36 4e b3 aa 	|100RSDS00006N00
  0x4760	09 5b b2 0d ba c0 31 21 01 00 00 00 4e 44 41 64 	0[00001!0000NDAd
  0x4770	6d 69 6e 2e 70 64 62 00 47 43 54 4c 00 10 00 00 	min.pdb0GCTL0000
  0x4780	d0 21 00 00 2e 74 65 78 74 24 6d 6e 00 00 00 00 	0!00.text$mn0000
  0x4790	d0 31 00 00 20 00 00 00 2e 74 65 78 74 24 6d 6e 	0100 000.text$mn
  0x47a0	24 30 30 00 f0 31 00 00 90 00 00 00 2e 74 65 78 	$00001000000.tex
  0x47b0	74 24 78 00 00 40 00 00 28 01 00 00 2e 72 64 61 	t$x00@00(000.rda
  0x47c0	74 61 24 62 72 63 00 00 28 41 00 00 40 02 00 00 	ta$brc00(A00@000
  0x47d0	2e 69 64 61 74 61 24 35 00 00 00 00 68 43 00 00 	.idata$50000hC00
  0x47e0	10 00 00 00 2e 30 30 63 66 67 00 00 78 43 00 00 	0000.00cfg00xC00
  0x47f0	08 00 00 00 2e 43 52 54 24 58 43 41 00 00 00 00 	0000.CRT$XCA0000
  0x4800	80 43 00 00 08 00 00 00 2e 43 52 54 24 58 43 41 	0C000000.CRT$XCA
  0x4810	41 00 00 00 88 43 00 00 08 00 00 00 2e 43 52 54 	A0000C000000.CRT
  0x4820	24 58 43 5a 00 00 00 00 90 43 00 00 08 00 00 00 	$XCZ00000C000000
  0x4830	2e 43 52 54 24 58 49 41 00 00 00 00 98 43 00 00 	.CRT$XIA00000C00
  0x4840	08 00 00 00 2e 43 52 54 24 58 49 41 41 00 00 00 	0000.CRT$XIAA000
  0x4850	a0 43 00 00 08 00 00 00 2e 43 52 54 24 58 49 59 	0C000000.CRT$XIY
  0x4860	00 00 00 00 a8 43 00 00 08 00 00 00 2e 43 52 54 	00000C000000.CRT
  0x4870	24 58 49 5a 00 00 00 00 b0 43 00 00 14 00 00 00 	$XIZ00000C000000
  0x4880	2e 67 65 68 63 6f 6e 74 00 00 00 00 c4 43 00 00 	.gehcont00000C00
  0x4890	2c 00 00 00 2e 67 66 69 64 73 00 00 f0 43 00 00 	,000.gfids000C00
  0x48a0	64 03 00 00 2e 72 64 61 74 61 00 00 54 47 00 00 	d000.rdata00TG00
  0x48b0	4c 02 00 00 2e 72 64 61 74 61 24 7a 7a 7a 64 62 	L000.rdata$zzzdb
  0x48c0	67 00 00 00 a0 49 00 00 7c 02 00 00 2e 78 64 61 	g0000I00|000.xda
  0x48d0	74 61 00 00 1c 4c 00 00 64 00 00 00 2e 69 64 61 	ta000L00d000.ida
  0x48e0	74 61 24 32 00 00 00 00 80 4c 00 00 18 00 00 00 	ta$200000L000000
  0x48f0	2e 69 64 61 74 61 24 33 00 00 00 00 98 4c 00 00 	.idata$300000L00
  0x4900	40 02 00 00 2e 69 64 61 74 61 24 34 00 00 00 00 	@000.idata$40000
  0x4910	d8 4e 00 00 e8 04 00 00 2e 69 64 61 74 61 24 36 	0N000000.idata$6
  0x4920	00 00 00 00 00 60 00 00 30 00 00 00 2e 64 61 74 	00000`000000.dat
  0x4930	61 00 00 00 30 60 00 00 08 07 00 00 2e 62 73 73 	a0000`000000.bss
  0x4940	00 00 00 00 00 70 00 00 04 02 00 00 2e 70 64 61 	00000p000000.pda
  0x4950	74 61 00 00 00 80 00 00 d0 02 00 00 2e 72 73 72 	ta0000000000.rsr
  0x4960	63 24 30 31 00 00 00 00 d0 82 00 00 10 c9 00 00 	c$01000000000000
  0x4970	2e 72 73 72 63 24 30 32 00 00 00 00 20 00 00 00 	.rsrc$020000 000
  0x4980	e7 f0 f8 05 36 4e b3 aa 09 5b b2 0d ba c0 31 21 	00006N000[00001!
  0x4990	a6 5c b6 60 36 29 ed 52 ea b2 9c 2f 2a aa e2 2b 	000`6)0R000/*00+
  0x49a0	01 19 0a 00 19 74 0b 00 19 64 0a 00 19 54 09 00 	00000t000d000T00
  0x49b0	19 34 08 00 19 52 15 e0 01 0a 04 00 0a 34 06 00 	04000R0000000400
  0x49c0	0a 32 06 70 09 0f 06 00 0f 64 0d 00 0f 34 0c 00 	020p00000d000400
  0x49d0	0f 92 0b 70 20 2b 00 00 01 00 00 00 bb 12 00 00 	000p +0000000000
  0x49e0	20 13 00 00 01 00 00 00 20 13 00 00 19 24 07 00 	 0000000 0000$00
  0x49f0	12 64 51 00 12 34 50 00 12 01 4c 00 0b 70 00 00 	0dQ004P000L00p00
  0x4a00	38 31 00 00 50 02 00 00 01 14 08 00 14 64 0b 00 	8100P00000000d00
  0x4a10	14 54 0a 00 14 34 08 00 14 52 10 70 19 2f 09 00 	0T0004000R0p0/00
  0x4a20	1e e4 94 00 1e 74 93 00 1e 34 92 00 1e 01 90 00 	00000t0004000000
  0x4a30	10 50 00 00 38 31 00 00 70 04 00 00 19 24 07 00 	0P008100p0000$00
  0x4a40	12 64 4c 00 12 34 4a 00 12 01 48 00 0b 70 00 00 	0dL004J000H00p00
  0x4a50	38 31 00 00 30 02 00 00 01 06 02 00 06 72 02 30 	8100000000000r00
  0x4a60	19 1b 03 00 09 01 50 00 02 30 00 00 38 31 00 00 	000000P000008100
  0x4a70	70 02 00 00 01 04 01 00 04 42 00 00 01 05 02 00 	p00000000B000000
  0x4a80	05 34 01 00 19 28 08 00 1a 74 14 00 1a 64 13 00 	04000(000t000d00
  0x4a90	1a 34 12 00 1a f2 10 50 38 31 00 00 78 00 00 00 	0400000P8100x000
  0x4aa0	01 1b 0a 00 1b 74 15 00 1b 64 14 00 1b 34 13 00 	00000t000d000400
  0x4ab0	1b d2 14 f0 12 e0 10 50 19 20 09 00 11 c2 0d f0 	0000000P0 000000
  0x4ac0	0b e0 09 d0 07 c0 05 70 04 60 03 50 02 30 00 00 	0000000p0`0P0000
  0x4ad0	38 31 00 00 58 00 00 00 01 14 08 00 14 64 08 00 	8100X00000000d00
  0x4ae0	14 54 07 00 14 34 06 00 14 32 10 70 01 15 08 00 	0T000400020p0000
  0x4af0	15 74 08 00 15 64 07 00 15 34 06 00 15 32 11 e0 	0t000d0004000200
  0x4b00	09 14 08 00 14 72 10 f0 0e e0 0c d0 0a c0 08 70 	00000r000000000p
  0x4b10	07 60 06 30 20 2b 00 00 01 00 00 00 5c 22 00 00 	0`00 +0000000"00
  0x4b20	80 22 00 00 f0 31 00 00 80 22 00 00 01 06 02 00 	0"0001000"000000
  0x4b30	06 32 02 50 19 32 0b 00 21 64 52 00 21 34 51 00 	020P0200!dR0!4Q0
  0x4b40	21 01 4a 00 12 f0 10 e0 0e c0 0c 70 0b 50 00 00 	!0J00000000p0P00
  0x4b50	38 31 00 00 40 02 00 00 01 0f 06 00 0f 64 07 00 	8100@00000000d00
  0x4b60	0f 34 06 00 0f 32 0b 70 01 04 01 00 04 62 00 00 	0400020p00000b00
  0x4b70	09 13 07 00 13 74 19 00 13 34 18 00 13 01 16 00 	00000t0004000000
  0x4b80	0c e0 00 00 20 2b 00 00 01 00 00 00 fc 28 00 00 	0000 +0000000(00
  0x4b90	d7 2a 00 00 3c 32 00 00 d7 2a 00 00 00 00 00 00 	0*00<2000*000000
  0x4ba0	01 00 00 00 09 04 01 00 04 22 00 00 20 2b 00 00 	000000000"00 +00
  0x4bb0	01 00 00 00 ec 2b 00 00 22 2c 00 00 01 00 00 00 	00000+00",000000
  0x4bc0	22 2c 00 00 01 06 02 00 06 32 02 30 09 0a 04 00 	",00000002000000
  0x4bd0	0a 34 06 00 0a 32 06 70 20 2b 00 00 01 00 00 00 	0400020p +000000
  0x4be0	fd 2c 00 00 30 2d 00 00 60 32 00 00 30 2d 00 00 	0,000-00`2000-00
  0x4bf0	01 0d 04 00 0d 34 09 00 0d 32 06 50 01 04 01 00 	00000400020P0000
  0x4c00	04 e2 00 00 01 0c 02 00 0c 01 11 00 00 00 00 00 	0000000000000000
  0x4c10	01 00 00 00 01 02 01 00 02 30 00 00 b8 4c 00 00 	0000000000000L00
  0x4c20	00 00 00 00 00 00 00 00 4e 4f 00 00 48 41 00 00 	00000000NO00HA00
  0x4c30	d8 4d 00 00 00 00 00 00 00 00 00 00 24 50 00 00 	0M0000000000$P00
  0x4c40	68 42 00 00 80 4e 00 00 00 00 00 00 00 00 00 00 	hB000N0000000000
  0x4c50	9e 50 00 00 10 43 00 00 c8 4d 00 00 00 00 00 00 	0P000C000M000000
  0x4c60	00 00 00 00 be 50 00 00 58 42 00 00 98 4c 00 00 	00000P00XB000L00
  0x4c70	00 00 00 00 00 00 00 00 08 51 00 00 28 41 00 00 	000000000Q00(A00
  0x4c80	00 00 00 00 00 00 00 00 00 00 00 00 00 00 00 00 	0000000000000000
  0x4c90	00 00 00 00 00 00 00 00 fe 50 00 00 00 00 00 00 	000000000P000000
  0x4ca0	e6 50 00 00 00 00 00 00 ca 50 00 00 00 00 00 00 	0P0000000P000000
  0x4cb0	00 00 00 00 00 00 00 00 de 52 00 00 00 00 00 00 	000000000R000000
  0x4cc0	c8 52 00 00 00 00 00 00 b4 52 00 00 00 00 00 00 	0R0000000R000000
  0x4cd0	f2 52 00 00 00 00 00 00 fe 52 00 00 00 00 00 00 	0R0000000R000000
  0x4ce0	0a 53 00 00 00 00 00 00 40 4f 00 00 00 00 00 00 	0S000000@O000000
  0x4cf0	32 4f 00 00 00 00 00 00 20 4f 00 00 00 00 00 00 	2O000000 O000000
  0x4d00	0a 4f 00 00 00 00 00 00 fa 4e 00 00 00 00 00 00 	0O0000000N000000
  0x4d10	ea 4e 00 00 00 00 00 00 d8 4e 00 00 00 00 00 00 	0N0000000N000000
  0x4d20	16 51 00 00 00 00 00 00 1e 51 00 00 00 00 00 00 	0Q0000000Q000000
  0x4d30	30 51 00 00 00 00 00 00 4e 51 00 00 00 00 00 00 	0Q000000NQ000000
  0x4d40	62 51 00 00 00 00 00 00 7c 51 00 00 00 00 00 00 	bQ000000|Q000000
  0x4d50	92 51 00 00 00 00 00 00 a8 51 00 00 00 00 00 00 	0Q0000000Q000000
  0x4d60	c2 51 00 00 00 00 00 00 d2 51 00 00 00 00 00 00 	0Q0000000Q000000
  0x4d70	ee 51 00 00 00 00 00 00 02 52 00 00 00 00 00 00 	0Q0000000R000000
  0x4d80	16 52 00 00 00 00 00 00 26 52 00 00 00 00 00 00 	0R000000&R000000
  0x4d90	3e 52 00 00 00 00 00 00 4c 52 00 00 00 00 00 00 	>R000000LR000000
  0x4da0	58 52 00 00 00 00 00 00 74 52 00 00 00 00 00 00 	XR000000tR000000
  0x4db0	84 52 00 00 00 00 00 00 a2 52 00 00 00 00 00 00 	0R0000000R000000
  0x4dc0	00 00 00 00 00 00 00 00 a8 50 00 00 00 00 00 00 	000000000P000000
  0x4dd0	00 00 00 00 00 00 00 00 36 53 00 00 00 00 00 00 	000000006S000000
  0x4de0	2c 53 00 00 00 00 00 00 1c 53 00 00 00 00 00 00 	,S0000000S000000
  0x4df0	30 50 00 00 00 00 00 00 18 50 00 00 00 00 00 00 	0P0000000P000000
  0x4e00	04 50 00 00 00 00 00 00 f8 4f 00 00 00 00 00 00 	0P0000000O000000
  0x4e10	e4 4f 00 00 00 00 00 00 d6 4f 00 00 00 00 00 00 	0O0000000O000000
  0x4e20	cc 4f 00 00 00 00 00 00 c4 4f 00 00 00 00 00 00 	0O0000000O000000
  0x4e30	bc 4f 00 00 00 00 00 00 aa 4f 00 00 00 00 00 00 	0O0000000O000000
  0x4e40	9a 4f 00 00 00 00 00 00 8c 4f 00 00 00 00 00 00 	0O0000000O000000
  0x4e50	7e 4f 00 00 00 00 00 00 74 4f 00 00 00 00 00 00 	~O000000tO000000
  0x4e60	5c 4f 00 00 00 00 00 00 0e 50 00 00 00 00 00 00 	0O0000000P000000
  0x4e70	b6 53 00 00 00 00 00 00 00 00 00 00 00 00 00 00 	0S00000000000000
  0x4e80	5c 50 00 00 00 00 00 00 70 50 00 00 00 00 00 00 	0P000000pP000000
  0x4e90	8a 50 00 00 00 00 00 00 40 53 00 00 00 00 00 00 	0P000000@S000000
  0x4ea0	5e 53 00 00 00 00 00 00 76 53 00 00 00 00 00 00 	^S000000vS000000
  0x4eb0	80 53 00 00 00 00 00 00 98 53 00 00 00 00 00 00 	0S0000000S000000
  0x4ec0	44 50 00 00 00 00 00 00 a4 53 00 00 00 00 00 00 	DP0000000S000000
  0x4ed0	00 00 00 00 00 00 00 00 e0 01 47 65 74 43 6f 6d 	0000000000GetCom
  0x4ee0	6d 61 6e 64 4c 69 6e 65 57 00 6a 02 47 65 74 4c 	mandLineW0j0GetL
  0x4ef0	61 73 74 45 72 72 6f 72 00 00 cd 03 4c 6f 61 64 	astError0000Load
  0x4f00	4c 69 62 72 61 72 79 57 00 00 5b 03 48 65 61 70 	LibraryW00[0Heap
  0x4f10	53 65 74 49 6e 66 6f 72 6d 61 74 69 6f 6e 00 00 	SetInformation00
  0x4f20	b8 02 47 65 74 50 72 6f 63 41 64 64 72 65 73 73 	00GetProcAddress
  0x4f30	00 00 67 01 45 78 69 74 50 72 6f 63 65 73 73 00 	00g0ExitProcess0
  0x4f40	b4 01 46 72 65 65 4c 69 62 72 61 72 79 00 4b 45 	00FreeLibrary0KE
  0x4f50	52 4e 45 4c 33 32 2e 64 6c 6c 00 00 57 00 5f 5f 	RNEL32.dll00W0__
  0x4f60	43 5f 73 70 65 63 69 66 69 63 5f 68 61 6e 64 6c 	C_specific_handl
  0x4f70	65 72 00 00 dd 04 73 77 73 63 61 6e 66 00 55 00 	er0000swscanf0U0
  0x4f80	5f 58 63 70 74 46 69 6c 74 65 72 00 ae 00 5f 61 	_XcptFilter000_a
  0x4f90	6d 73 67 5f 65 78 69 74 00 00 7f 00 5f 5f 67 65 	msg_exit0000__ge
  0x4fa0	74 6d 61 69 6e 61 72 67 73 00 8e 00 5f 5f 73 65 	tmainargs000__se
  0x4fb0	74 5f 61 70 70 5f 74 79 70 65 00 00 32 04 65 78 	t_app_type0020ex
  0x4fc0	69 74 00 00 0e 01 5f 65 78 69 74 00 c1 00 5f 63 	it0000_exit000_c
  0x4fd0	65 78 69 74 00 00 99 01 5f 69 73 6d 62 62 6c 65 	exit0000_ismbble
  0x4fe0	61 64 00 00 90 00 5f 5f 73 65 74 75 73 65 72 6d 	ad0000__setuserm
  0x4ff0	61 74 68 65 72 72 00 00 7d 01 5f 69 6e 69 74 74 	atherr00}0_initt
  0x5000	65 72 6d 00 a2 00 5f 61 63 6d 64 6c 6e 00 27 01 	erm000_acmdln0'0
  0x5010	5f 66 6d 6f 64 65 00 00 d2 00 5f 63 6f 6d 6d 6f 	_fmode0000_commo
  0x5020	64 65 00 00 6d 73 76 63 72 74 2e 64 6c 6c 00 00 	de00msvcrt.dll00
  0x5030	2f 00 3f 74 65 72 6d 69 6e 61 74 65 40 40 59 41 	/0?terminate@@YA
  0x5040	58 58 5a 00 ff 04 52 74 6c 4e 74 53 74 61 74 75 	XXZ000RtlNtStatu
  0x5050	73 54 6f 44 6f 73 45 72 72 6f 72 00 f3 02 52 74 	sToDosError000Rt
  0x5060	6c 43 61 70 74 75 72 65 43 6f 6e 74 65 78 74 00 	lCaptureContext0
  0x5070	ea 04 52 74 6c 4c 6f 6f 6b 75 70 46 75 6e 63 74 	00RtlLookupFunct
  0x5080	69 6f 6e 45 6e 74 72 79 00 00 29 06 52 74 6c 56 	ionEntry00)0RtlV
  0x5090	69 72 74 75 61 6c 55 6e 77 69 6e 64 00 00 6e 74 	irtualUnwind00nt
  0x50a0	64 6c 6c 2e 64 6c 6c 00 09 00 43 6f 6d 6d 61 6e 	dll.dll000Comman
  0x50b0	64 4c 69 6e 65 54 6f 41 72 67 76 57 00 00 53 48 	dLineToArgvW00SH
  0x50c0	45 4c 4c 33 32 2e 64 6c 6c 00 20 00 41 6c 6c 6f 	ELL32.dll0 0Allo
  0x50d0	63 61 74 65 41 6e 64 49 6e 69 74 69 61 6c 69 7a 	cateAndInitializ
  0x50e0	65 53 69 64 00 00 5f 00 43 68 65 63 6b 54 6f 6b 	eSid00_0CheckTok
  0x50f0	65 6e 4d 65 6d 62 65 72 73 68 69 70 00 00 34 01 	enMembership0040
  0x5100	46 72 65 65 53 69 64 00 41 44 56 41 50 49 33 32 	FreeSid0ADVAPI32
  0x5110	2e 64 6c 6c 00 00 91 05 53 6c 65 65 70 00 da 02 	.dll0000Sleep000
  0x5120	47 65 74 53 74 61 72 74 75 70 49 6e 66 6f 57 00 	GetStartupInfoW0
  0x5130	81 05 53 65 74 55 6e 68 61 6e 64 6c 65 64 45 78 	00SetUnhandledEx
  0x5140	63 65 70 74 69 6f 6e 46 69 6c 74 65 72 00 81 02 	ceptionFilter000
  0x5150	47 65 74 4d 6f 64 75 6c 65 48 61 6e 64 6c 65 57 	GetModuleHandleW
  0x5160	00 00 54 04 51 75 65 72 79 50 65 72 66 6f 72 6d 	00T0QueryPerform
  0x5170	61 6e 63 65 43 6f 75 6e 74 65 72 00 21 02 47 65 	anceCounter0!0Ge
  0x5180	74 43 75 72 72 65 6e 74 50 72 6f 63 65 73 73 49 	tCurrentProcessI
  0x5190	64 00 25 02 47 65 74 43 75 72 72 65 6e 74 54 68 	d0%0GetCurrentTh
  0x51a0	72 65 61 64 49 64 00 00 f3 02 47 65 74 53 79 73 	readId0000GetSys
  0x51b0	74 65 6d 54 69 6d 65 41 73 46 69 6c 65 54 69 6d 	temTimeAsFileTim
  0x51c0	65 00 13 03 47 65 74 54 69 63 6b 43 6f 75 6e 74 	e000GetTickCount
  0x51d0	00 00 c2 05 55 6e 68 61 6e 64 6c 65 64 45 78 63 	0000UnhandledExc
  0x51e0	65 70 74 69 6f 6e 46 69 6c 74 65 72 00 00 20 02 	eptionFilter00 0
  0x51f0	47 65 74 43 75 72 72 65 6e 74 50 72 6f 63 65 73 	GetCurrentProces
  0x5200	73 00 a0 05 54 65 72 6d 69 6e 61 74 65 50 72 6f 	s000TerminatePro
  0x5210	63 65 73 73 00 00 c2 00 43 72 65 61 74 65 45 76 	cess0000CreateEv
  0x5220	65 6e 74 57 00 00 ed 05 57 61 69 74 46 6f 72 53 	entW0000WaitForS
  0x5230	69 6e 67 6c 65 4f 62 6a 65 63 74 45 78 00 89 00 	ingleObjectEx000
  0x5240	43 6c 6f 73 65 48 61 6e 64 6c 65 00 28 05 53 65 	CloseHandle0(0Se
  0x5250	74 45 76 65 6e 74 00 00 6b 01 45 78 70 61 6e 64 	tEvent00k0Expand
  0x5260	45 6e 76 69 72 6f 6e 6d 65 6e 74 53 74 72 69 6e 	EnvironmentStrin
  0x5270	67 73 57 00 43 05 53 65 74 4c 61 73 74 45 72 72 	gsW0C0SetLastErr
  0x5280	6f 72 00 00 f7 02 47 65 74 53 79 73 74 65 6d 57 	or0000GetSystemW
  0x5290	69 6e 64 6f 77 73 44 69 72 65 63 74 6f 72 79 57 	indowsDirectoryW
  0x52a0	00 00 6a 04 52 61 69 73 65 45 78 63 65 70 74 69 	00j0RaiseExcepti
  0x52b0	6f 6e 00 00 63 02 47 65 74 46 75 6c 6c 50 61 74 	on00c0GetFullPat
  0x52c0	68 4e 61 6d 65 57 00 00 4f 02 47 65 74 46 69 6c 	hNameW00O0GetFil
  0x52d0	65 41 74 74 72 69 62 75 74 65 73 57 00 00 bd 00 	eAttributesW0000
  0x52e0	43 72 65 61 74 65 44 69 72 65 63 74 6f 72 79 57 	CreateDirectoryW
  0x52f0	00 00 53 03 48 65 61 70 41 6c 6c 6f 63 00 57 03 	00S0HeapAlloc0W0
  0x5300	48 65 61 70 46 72 65 65 00 00 be 02 47 65 74 50 	HeapFree0000GetP
  0x5310	72 6f 63 65 73 73 48 65 61 70 00 00 a8 02 5f 72 	rocessHeap0000_r
  0x5320	65 73 65 74 73 74 6b 6f 66 6c 77 00 01 05 77 63 	esetstkoflw000wc
  0x5330	73 63 68 72 00 00 10 05 77 63 73 72 63 68 72 00 	schr0000wcsrchr0
  0x5340	f0 03 52 74 6c 46 6f 72 6d 61 74 43 75 72 72 65 	00RtlFormatCurre
  0x5350	6e 74 55 73 65 72 4b 65 79 50 61 74 68 00 fd 03 	ntUserKeyPath000
  0x5360	52 74 6c 46 72 65 65 55 6e 69 63 6f 64 65 53 74 	RtlFreeUnicodeSt
  0x5370	72 69 6e 67 00 00 fd 00 4e 74 43 6c 6f 73 65 00 	ring0000NtClose0
  0x5380	70 04 52 74 6c 49 6e 69 74 55 6e 69 63 6f 64 65 	p0RtlInitUnicode
  0x5390	53 74 72 69 6e 67 00 00 a3 01 4e 74 4f 70 65 6e 	String0000NtOpen
  0x53a0	4b 65 79 00 fe 01 4e 74 51 75 65 72 79 56 61 6c 	Key000NtQueryVal
  0x53b0	75 65 4b 65 79 00 92 04 6d 65 6d 63 70 79 00 00 	ueKey000memcpy00
  0x53c0	00 00 00 00 00 00 00 00 00 00 00 00 00 00 00 00 	0000000000000000
  0x53d0	00 00 00 00 00 00 00 00 00 00 00 00 00 00 00 00 	0000000000000000
  0x53e0	00 00 00 00 00 00 00 00 00 00 00 00 00 00 00 00 	0000000000000000
  0x53f0	00 00 00 00 00 00 00 00 00 00 00 00 00 00 00 00 	0000000000000000
=== DATA BLOCK END ===

=== DATA BLOCK ADDRESS 0x6000 ===
  0x6000	01 00 00 00 00 00 00 00 32 a2 df 2d 99 2b 00 00 	00000000200-0+00
  0x6010	cd 5d 20 d2 66 d4 ff ff 00 00 00 00 00 00 00 00 	0] 0f00000000000
  0x6020	01 00 00 00 00 00 00 00 00 00 00 00 00 00 00 00 	0000000000000000
  0x6030	00 00 00 00 00 00 00 00 00 00 00 00 00 00 00 00 	0000000000000000
  0x6040	00 00 00 00 00 00 00 00 00 00 00 00 00 00 00 00 	0000000000000000
  0x6050	00 00 00 00 00 00 00 00 00 00 00 00 00 00 00 00 	0000000000000000
  0x6060	00 00 00 00 00 00 00 00 00 00 00 00 00 00 00 00 	0000000000000000
  0x6070	00 00 00 00 00 00 00 00 00 00 00 00 00 00 00 00 	0000000000000000
  0x6080	00 00 00 00 00 00 00 00 00 00 00 00 00 00 00 00 	0000000000000000
  0x6090	00 00 00 00 00 00 00 00 00 00 00 00 00 00 00 00 	0000000000000000
  0x60a0	00 00 00 00 00 00 00 00 00 00 00 00 00 00 00 00 	0000000000000000
  0x60b0	00 00 00 00 00 00 00 00 00 00 00 00 00 00 00 00 	0000000000000000
  0x60c0	00 00 00 00 00 00 00 00 00 00 00 00 00 00 00 00 	0000000000000000
  0x60d0	00 00 00 00 00 00 00 00 00 00 00 00 00 00 00 00 	0000000000000000
  0x60e0	00 00 00 00 00 00 00 00 00 00 00 00 00 00 00 00 	0000000000000000
  0x60f0	00 00 00 00 00 00 00 00 00 00 00 00 00 00 00 00 	0000000000000000
  0x6100	00 00 00 00 00 00 00 00 00 00 00 00 00 00 00 00 	0000000000000000
  0x6110	00 00 00 00 00 00 00 00 00 00 00 00 00 00 00 00 	0000000000000000
  0x6120	00 00 00 00 00 00 00 00 00 00 00 00 00 00 00 00 	0000000000000000
  0x6130	00 00 00 00 00 00 00 00 00 00 00 00 00 00 00 00 	0000000000000000
  0x6140	00 00 00 00 00 00 00 00 00 00 00 00 00 00 00 00 	0000000000000000
  0x6150	00 00 00 00 00 00 00 00 00 00 00 00 00 00 00 00 	0000000000000000
  0x6160	00 00 00 00 00 00 00 00 00 00 00 00 00 00 00 00 	0000000000000000
  0x6170	00 00 00 00 00 00 00 00 00 00 00 00 00 00 00 00 	0000000000000000
  0x6180	00 00 00 00 00 00 00 00 00 00 00 00 00 00 00 00 	0000000000000000
  0x6190	00 00 00 00 00 00 00 00 00 00 00 00 00 00 00 00 	0000000000000000
  0x61a0	00 00 00 00 00 00 00 00 00 00 00 00 00 00 00 00 	0000000000000000
  0x61b0	00 00 00 00 00 00 00 00 00 00 00 00 00 00 00 00 	0000000000000000
  0x61c0	00 00 00 00 00 00 00 00 00 00 00 00 00 00 00 00 	0000000000000000
  0x61d0	00 00 00 00 00 00 00 00 00 00 00 00 00 00 00 00 	0000000000000000
  0x61e0	00 00 00 00 00 00 00 00 00 00 00 00 00 00 00 00 	0000000000000000
  0x61f0	00 00 00 00 00 00 00 00 00 00 00 00 00 00 00 00 	0000000000000000
=== DATA BLOCK END ===

=== DATA BLOCK ADDRESS 0x7000 ===
  0x7000	08 10 00 00 c0 10 00 00 a0 49 00 00 c8 10 00 00 	000000000I000000
  0x7010	53 11 00 00 b8 49 00 00 5c 11 00 00 58 13 00 00 	S0000I000000X000
  0x7020	c4 49 00 00 60 13 00 00 0e 14 00 00 b8 49 00 00 	0I00`00000000I00
  0x7030	54 14 00 00 2c 15 00 00 ec 49 00 00 34 15 00 00 	T000,0000I004000
  0x7040	d1 15 00 00 08 4a 00 00 d8 15 00 00 9a 17 00 00 	00000J0000000000
  0x7050	1c 4a 00 00 a0 17 00 00 6f 18 00 00 3c 4a 00 00 	0J000000o000<J00
  0x7060	78 18 00 00 77 19 00 00 58 4a 00 00 80 19 00 00 	x000w000XJ000000
  0x7070	59 1a 00 00 60 4a 00 00 60 1a 00 00 b7 1a 00 00 	Y000`J00`0000000
  0x7080	74 4a 00 00 c0 1a 00 00 43 1b 00 00 7c 4a 00 00 	tJ000000C000|J00
  0x7090	4c 1b 00 00 8f 1c 00 00 84 4a 00 00 98 1c 00 00 	L00000000J000000
  0x70a0	64 1d 00 00 58 4a 00 00 6c 1d 00 00 5d 1e 00 00 	d000XJ00l000]000
  0x70b0	a0 4a 00 00 64 1e 00 00 b7 1f 00 00 b8 4a 00 00 	0J00d00000000J00
  0x70c0	c0 1f 00 00 5c 20 00 00 d8 4a 00 00 64 20 00 00 	00000 000J00d 00
  0x70d0	67 21 00 00 ec 4a 00 00 70 21 00 00 db 22 00 00 	g!000J00p!000"00
  0x70e0	00 4b 00 00 e4 22 00 00 0f 25 00 00 34 4b 00 00 	0K000"000%004K00
  0x70f0	18 25 00 00 f1 25 00 00 58 4b 00 00 f8 25 00 00 	0%000%00XK000%00
  0x7100	82 26 00 00 74 4a 00 00 88 26 00 00 7b 27 00 00 	0&00tJ000&00{'00
  0x7110	b8 49 00 00 90 27 00 00 63 28 00 00 74 4a 00 00 	0I000'00c(00tJ00
  0x7120	70 28 00 00 b9 28 00 00 68 4b 00 00 c0 28 00 00 	p(000(00hK000(00
  0x7130	d2 28 00 00 74 4a 00 00 d8 28 00 00 1a 2b 00 00 	0(00tJ000(000+00
  0x7140	70 4b 00 00 40 2b 00 00 5e 2b 00 00 a0 4b 00 00 	pK00@+00^+000K00
  0x7150	70 2b 00 00 a9 2b 00 00 74 4a 00 00 b0 2b 00 00 	p+000+00tJ000+00
  0x7160	c8 2b 00 00 74 4a 00 00 dc 2b 00 00 30 2c 00 00 	0+00tJ000+000,00
  0x7170	a4 4b 00 00 38 2c 00 00 7d 2c 00 00 c4 4b 00 00 	0K008,00},000K00
  0x7180	f0 2c 00 00 3d 2d 00 00 cc 4b 00 00 84 2d 00 00 	0,00=-000K000-00
  0x7190	58 2e 00 00 f0 4b 00 00 7c 2e 00 00 b0 2e 00 00 	X.000K00|.000.00
  0x71a0	c4 4b 00 00 c0 2e 00 00 31 30 00 00 04 4c 00 00 	0K000.0010000L00
  0x71b0	38 30 00 00 2f 31 00 00 fc 4b 00 00 38 31 00 00 	8000/1000K008100
  0x71c0	55 31 00 00 74 4a 00 00 5c 31 00 00 b7 31 00 00 	U100tJ0001000100
  0x71d0	14 4c 00 00 e0 31 00 00 e2 31 00 00 10 4c 00 00 	0L00010001000L00
  0x71e0	f0 31 00 00 36 32 00 00 2c 4b 00 00 3c 32 00 00 	01006200,K00<200
  0x71f0	5a 32 00 00 2c 4b 00 00 60 32 00 00 80 32 00 00 	Z200,K00`2000200
  0x7200	2c 4b 00 00 00 00 00 00 00 00 00 00 00 00 00 00 	,K00000000000000
  0x7210	00 00 00 00 00 00 00 00 00 00 00 00 00 00 00 00 	0000000000000000
  0x7220	00 00 00 00 00 00 00 00 00 00 00 00 00 00 00 00 	0000000000000000
  0x7230	00 00 00 00 00 00 00 00 00 00 00 00 00 00 00 00 	0000000000000000
  0x7240	00 00 00 00 00 00 00 00 00 00 00 00 00 00 00 00 	0000000000000000
  0x7250	00 00 00 00 00 00 00 00 00 00 00 00 00 00 00 00 	0000000000000000
  0x7260	00 00 00 00 00 00 00 00 00 00 00 00 00 00 00 00 	0000000000000000
  0x7270	00 00 00 00 00 00 00 00 00 00 00 00 00 00 00 00 	0000000000000000
  0x7280	00 00 00 00 00 00 00 00 00 00 00 00 00 00 00 00 	0000000000000000
  0x7290	00 00 00 00 00 00 00 00 00 00 00 00 00 00 00 00 	0000000000000000
  0x72a0	00 00 00 00 00 00 00 00 00 00 00 00 00 00 00 00 	0000000000000000
  0x72b0	00 00 00 00 00 00 00 00 00 00 00 00 00 00 00 00 	0000000000000000
  0x72c0	00 00 00 00 00 00 00 00 00 00 00 00 00 00 00 00 	0000000000000000
  0x72d0	00 00 00 00 00 00 00 00 00 00 00 00 00 00 00 00 	0000000000000000
  0x72e0	00 00 00 00 00 00 00 00 00 00 00 00 00 00 00 00 	0000000000000000
  0x72f0	00 00 00 00 00 00 00 00 00 00 00 00 00 00 00 00 	0000000000000000
  0x7300	00 00 00 00 00 00 00 00 00 00 00 00 00 00 00 00 	0000000000000000
  0x7310	00 00 00 00 00 00 00 00 00 00 00 00 00 00 00 00 	0000000000000000
  0x7320	00 00 00 00 00 00 00 00 00 00 00 00 00 00 00 00 	0000000000000000
  0x7330	00 00 00 00 00 00 00 00 00 00 00 00 00 00 00 00 	0000000000000000
  0x7340	00 00 00 00 00 00 00 00 00 00 00 00 00 00 00 00 	0000000000000000
  0x7350	00 00 00 00 00 00 00 00 00 00 00 00 00 00 00 00 	0000000000000000
  0x7360	00 00 00 00 00 00 00 00 00 00 00 00 00 00 00 00 	0000000000000000
  0x7370	00 00 00 00 00 00 00 00 00 00 00 00 00 00 00 00 	0000000000000000
  0x7380	00 00 00 00 00 00 00 00 00 00 00 00 00 00 00 00 	0000000000000000
  0x7390	00 00 00 00 00 00 00 00 00 00 00 00 00 00 00 00 	0000000000000000
  0x73a0	00 00 00 00 00 00 00 00 00 00 00 00 00 00 00 00 	0000000000000000
  0x73b0	00 00 00 00 00 00 00 00 00 00 00 00 00 00 00 00 	0000000000000000
  0x73c0	00 00 00 00 00 00 00 00 00 00 00 00 00 00 00 00 	0000000000000000
  0x73d0	00 00 00 00 00 00 00 00 00 00 00 00 00 00 00 00 	0000000000000000
  0x73e0	00 00 00 00 00 00 00 00 00 00 00 00 00 00 00 00 	0000000000000000
  0x73f0	00 00 00 00 00 00 00 00 00 00 00 00 00 00 00 00 	0000000000000000
=== DATA BLOCK END ===
