===== Assembly blocks =====

=== CODE BLOCK ADDRESS 0x1000 ===
  0x1000	int3   	
  0x1001	int3   	
  0x1002	int3   	
  0x1003	int3   	
  0x1004	int3   	
  === BLOCK LINK ===
    0x1005
=== CODE BLOCK END ===

=== CODE BLOCK ADDRESS 0x1005 ===
  0x1005	int3   	
  0x1006	int3   	
  0x1007	int3   	
  0x1008	int3   	
  0x1009	int3   	
  === BLOCK LINK ===
    0x100a
=== CODE BLOCK END ===

=== CODE BLOCK ADDRESS 0x100a ===
  0x100a	int3   	
  0x100b	int3   	
  0x100c	int3   	
  0x100d	int3   	
  0x100e	int3   	
  === BLOCK LINK ===
    0x100f
=== CODE BLOCK END ===

=== CODE BLOCK ADDRESS 0x100f ===
  0x100f	int3   	
  0x1010	dec    	eax
  0x1011	lea    	ecx, [0x1049]
  0x1017	jmp    	0x1d0c
  === BLOCK LINK ===
    0x101c
    0x1d0c
=== CODE BLOCK END ===

=== CODE BLOCK ADDRESS 0x101c ===
  0x101c	int3   	
  0x101d	int3   	
  0x101e	int3   	
  0x101f	int3   	
  0x1020	int3   	
  === BLOCK LINK ===
    0x1021
=== CODE BLOCK END ===

=== CODE BLOCK ADDRESS 0x1021 ===
  0x1021	int3   	
  0x1022	int3   	
  0x1023	int3   	
  0x1024	dec    	eax
  0x1025	mov    	dword ptr [esp + 8], ebx
  === BLOCK LINK ===
    0x1029
=== CODE BLOCK END ===

=== CODE BLOCK ADDRESS 0x1029 ===
  0x1029	dec    	eax
  0x102a	mov    	dword ptr [esp + 0x10], esi
  0x102e	push   	edi
  0x102f	dec    	eax
  0x1030	sub    	esp, 0x30
  === BLOCK LINK ===
    0x1033
=== CODE BLOCK END ===

=== CODE BLOCK ADDRESS 0x1033 ===
  0x1033	dec    	eax
  0x1034	mov    	esi, edx
  0x1036	dec    	esp
  0x1037	lea    	eax, [0x2453]
  0x103d	xor    	edx, edx
  === BLOCK LINK ===
    0x103f
=== CODE BLOCK END ===

=== CODE BLOCK ADDRESS 0x103f ===
  0x103f	xor    	ecx, ecx
  0x1041	xor    	ebx, ebx
  0x1043	dec    	eax
  0x1044	call   	dword ptr [0x2176]
  === BLOCK LINK ===
    0x104a
=== CODE BLOCK END ===

=== CODE BLOCK ADDRESS 0x104a ===
  0x104a	nop    	dword ptr [eax + eax]
  0x104f	dec    	eax
  0x1050	test   	eax, eax
  0x1052	mov    	edi, ebx
  0x1054	dec    	eax
  === BLOCK LINK ===
    0x1055
=== CODE BLOCK END ===

=== CODE BLOCK ADDRESS 0x1055 ===
  0x1055	cmovne  	edi, eax
  0x1058	dec    	eax
  0x1059	call   	dword ptr [0x20d9]
  === BLOCK LINK ===
    0x105f
=== CODE BLOCK END ===

=== CODE BLOCK ADDRESS 0x105f ===
  0x105f	nop    	dword ptr [eax + eax]
  0x1064	cmp    	eax, 0xb7
  0x1069	jne    	0x1097
  === BLOCK LINK ===
    0x106b
    0x1097
=== CODE BLOCK END ===

=== CODE BLOCK ADDRESS 0x106b ===
  0x106b	call   	0x1124
  === BLOCK LINK ===
    0x1070
    0x1124
=== CODE BLOCK END ===

=== CODE BLOCK ADDRESS 0x1070 ===
  0x1070	dec    	eax
  0x1071	mov    	ecx, eax
  0x1073	dec    	esp
  0x1074	lea    	ecx, [0x22e6]
  0x107a	dec    	eax
  === BLOCK LINK ===
    0x107b
=== CODE BLOCK END ===

=== CODE BLOCK ADDRESS 0x107b ===
  0x107b	mov    	eax, dword ptr [esi]
  0x107d	inc    	esp
  0x107e	lea    	eax, [ebx + 0x26]
  0x1081	dec    	eax
  0x1082	lea    	edx, [0x2370]
  === BLOCK LINK ===
    0x1088
=== CODE BLOCK END ===

=== CODE BLOCK ADDRESS 0x1088 ===
  0x1088	dec    	eax
  0x1089	mov    	dword ptr [esp + 0x20], eax
  0x108d	call   	0x1484
  === BLOCK LINK ===
    0x1092
    0x1484
=== CODE BLOCK END ===

=== CODE BLOCK ADDRESS 0x1092 ===
  0x1092	lea    	esi, [ebx + 1]
  0x1095	jmp    	0x10a9
  === BLOCK LINK ===
    0x1097
    0x10a9
=== CODE BLOCK END ===

=== CODE BLOCK ADDRESS 0x1097 ===
  0x1097	dec    	eax
  0x1098	call   	dword ptr [0x218a]
  === BLOCK LINK ===
    0x109e
=== CODE BLOCK END ===

=== CODE BLOCK ADDRESS 0x109e ===
  0x109e	nop    	dword ptr [eax + eax]
  0x10a3	mov    	esi, eax
  0x10a5	test   	eax, eax
  0x10a7	jns    	0x10d0
  === BLOCK LINK ===
    0x10a9
    0x10d0
=== CODE BLOCK END ===

=== CODE BLOCK ADDRESS 0x10a9 ===
  0x10a9	call   	0x1124
  === BLOCK LINK ===
    0x10ae
    0x1124
=== CODE BLOCK END ===

=== CODE BLOCK ADDRESS 0x10ae ===
  0x10ae	dec    	eax
  0x10af	mov    	ecx, eax
  0x10b1	mov    	dword ptr [esp + 0x20], esi
  0x10b5	dec    	esp
  0x10b6	lea    	ecx, [0x23bc]
  === BLOCK LINK ===
    0x10bc
=== CODE BLOCK END ===

=== CODE BLOCK ADDRESS 0x10bc ===
  0x10bc	inc    	ecx
  0x10bd	mov    	eax, 0x34
  0x10c2	dec    	eax
  0x10c3	lea    	edx, [0x232f]
  0x10c9	call   	0x1484
  === BLOCK LINK ===
    0x10ce
    0x1484
=== CODE BLOCK END ===

=== CODE BLOCK ADDRESS 0x10ce ===
  0x10ce	jmp    	0x10f1
  === BLOCK LINK ===
    0x10d0
    0x10f1
=== CODE BLOCK END ===

=== CODE BLOCK ADDRESS 0x10d0 ===
  0x10d0	call   	0x1124
  === BLOCK LINK ===
    0x10d5
    0x1124
=== CODE BLOCK END ===

=== CODE BLOCK ADDRESS 0x10d5 ===
  0x10d5	dec    	eax
  0x10d6	mov    	ecx, eax
  0x10d8	dec    	esp
  0x10d9	lea    	ecx, [0x2331]
  0x10df	inc    	ecx
  === BLOCK LINK ===
    0x10e0
=== CODE BLOCK END ===

=== CODE BLOCK ADDRESS 0x10e0 ===
  0x10e0	mov    	eax, 0x2e
  0x10e5	dec    	eax
  0x10e6	lea    	edx, [0x230c]
  0x10ec	call   	0x1548
  === BLOCK LINK ===
    0x10f1
    0x1548
=== CODE BLOCK END ===

=== CODE BLOCK ADDRESS 0x10f1 ===
  0x10f1	test   	esi, esi
  0x10f3	cmovns  	esi, ebx
  0x10f6	dec    	eax
  0x10f7	test   	edi, edi
  0x10f9	je     	0x110a
  === BLOCK LINK ===
    0x10fb
    0x110a
=== CODE BLOCK END ===

=== CODE BLOCK ADDRESS 0x10fb ===
  0x10fb	dec    	eax
  0x10fc	mov    	ecx, edi
  0x10fe	dec    	eax
  0x10ff	call   	dword ptr [0x2043]
  === BLOCK LINK ===
    0x1105
=== CODE BLOCK END ===

=== CODE BLOCK ADDRESS 0x1105 ===
  0x1105	nop    	dword ptr [eax + eax]
  === BLOCK LINK ===
    0x110a
=== CODE BLOCK END ===

=== CODE BLOCK ADDRESS 0x1112 ===
  0x1112	mov    	esi, dword ptr [esp + 0x48]
  0x1116	dec    	eax
  0x1117	add    	esp, 0x30
  0x111a	pop    	edi
  0x111b	ret    	
  === BLOCK LINK ===
    0x111c
=== CODE BLOCK END ===

=== CODE BLOCK ADDRESS 0x1d0c ===
=== CODE BLOCK END ===

=== CODE BLOCK ADDRESS 0x111c ===
  0x111c	int3   	
  0x111d	int3   	
  0x111e	int3   	
  0x111f	int3   	
  0x1120	int3   	
  === BLOCK LINK ===
    0x1121
=== CODE BLOCK END ===

=== CODE BLOCK ADDRESS 0x1121 ===
  0x1121	int3   	
  0x1122	int3   	
  0x1123	int3   	
  === BLOCK LINK ===
    0x1124
=== CODE BLOCK END ===

=== CODE BLOCK ADDRESS 0x1127 ===
  0x1127	dec    	eax
  0x1128	mov    	dword ptr [eax + 8], ecx
  0x112b	push   	ebx
  0x112c	dec    	eax
  0x112d	sub    	esp, 0x20
  === BLOCK LINK ===
    0x1130
=== CODE BLOCK END ===

=== CODE BLOCK ADDRESS 0x1130 ===
  0x1130	dec    	eax
  0x1131	and    	dword ptr [eax + 0x10], 0
  0x1135	dec    	esp
  0x1136	lea    	ecx, [eax + 0x10]
  0x1139	dec    	esp
  === BLOCK LINK ===
    0x113a
=== CODE BLOCK END ===

=== CODE BLOCK ADDRESS 0x113a ===
  0x113a	lea    	eax, [eax + 8]
  0x113d	xor    	edx, edx
  0x113f	dec    	eax
  0x1140	lea    	ecx, [0x4502]
  0x1146	dec    	eax
  === BLOCK LINK ===
    0x1147
=== CODE BLOCK END ===

=== CODE BLOCK ADDRESS 0x1147 ===
  0x1147	call   	dword ptr [0x2083]
  === BLOCK LINK ===
    0x114d
=== CODE BLOCK END ===

=== CODE BLOCK ADDRESS 0x114d ===
  0x114d	nop    	dword ptr [eax + eax]
  0x1152	dec    	eax
  0x1153	mov    	ebx, dword ptr [esp + 0x38]
  0x1157	dec    	eax
  0x1158	test   	ebx, ebx
  === BLOCK LINK ===
    0x115a
=== CODE BLOCK END ===

=== CODE BLOCK ADDRESS 0x115a ===
  0x115a	jne    	0x119c
  === BLOCK LINK ===
    0x115c
    0x119c
=== CODE BLOCK END ===

=== CODE BLOCK ADDRESS 0x115c ===
  0x115c	and    	dword ptr [0x44ee], ebx
  0x1162	call   	0x1320
  === BLOCK LINK ===
    0x1167
    0x1320
=== CODE BLOCK END ===

=== CODE BLOCK ADDRESS 0x1167 ===
  0x1167	mov    	edx, dword ptr [0x44e3]
  0x116d	inc    	esp
  0x116e	lea    	eax, [ebx + 1]
  0x1171	test   	eax, eax
  0x1173	dec    	eax
  === BLOCK LINK ===
    0x1174
=== CODE BLOCK END ===

=== CODE BLOCK ADDRESS 0x1174 ===
  0x1174	lea    	ebx, [0x44d6]
  0x117a	dec    	eax
  0x117b	lea    	ecx, [0x44c7]
  0x1181	inc    	ecx
  0x1182	cmove  	edx, eax
  === BLOCK LINK ===
    0x1185
=== CODE BLOCK END ===

=== CODE BLOCK ADDRESS 0x1185 ===
  0x1185	dec    	esp
  0x1186	mov    	eax, ebx
  0x1188	mov    	dword ptr [0x44c2], edx
  0x118e	xor    	edx, edx
  0x1190	dec    	eax
  === BLOCK LINK ===
    0x1191
=== CODE BLOCK END ===

=== CODE BLOCK ADDRESS 0x1191 ===
  0x1191	call   	dword ptr [0x2049]
  === BLOCK LINK ===
    0x1197
=== CODE BLOCK END ===

=== CODE BLOCK ADDRESS 0x1197 ===
  0x1197	nop    	dword ptr [eax + eax]
  === BLOCK LINK ===
    0x119c
=== CODE BLOCK END ===

=== CODE BLOCK ADDRESS 0x11a3 ===
  0x11a3	pop    	ebx
  0x11a4	ret    	
  0x11a5	int3   	
  0x11a6	int3   	
  0x11a7	int3   	
  === BLOCK LINK ===
    0x11a8
=== CODE BLOCK END ===

=== CODE BLOCK ADDRESS 0x11a8 ===
  0x11a8	int3   	
  0x11a9	int3   	
  0x11aa	int3   	
  0x11ab	int3   	
  0x11ac	int3   	
  === BLOCK LINK ===
    0x11ad
=== CODE BLOCK END ===

=== CODE BLOCK ADDRESS 0x11ad ===
  0x11ad	int3   	
  0x11ae	int3   	
  0x11af	int3   	
  0x11b0	inc    	eax
  0x11b1	push   	ebx
  === BLOCK LINK ===
    0x11b2
=== CODE BLOCK END ===

=== CODE BLOCK ADDRESS 0x11b2 ===
  0x11b2	dec    	eax
  0x11b3	sub    	esp, 0x20
  0x11b6	dec    	esp
  0x11b7	mov    	edx, dword ptr [esp + 0x60]
  0x11bb	xor    	ebx, ebx
  === BLOCK LINK ===
    0x11bd
=== CODE BLOCK END ===

=== CODE BLOCK ADDRESS 0x11bd ===
  0x11bd	dec    	ebp
  0x11be	test   	edx, edx
  0x11c0	je     	0x12ae
  === BLOCK LINK ===
    0x11c6
    0x12ae
=== CODE BLOCK END ===

=== CODE BLOCK ADDRESS 0x11c6 ===
  0x11c6	test   	edx, edx
  0x11c8	je     	0x1273
  === BLOCK LINK ===
    0x11ce
    0x1273
=== CODE BLOCK END ===

=== CODE BLOCK ADDRESS 0x11ce ===
  0x11ce	cmp    	edx, 1
  0x11d1	jne    	0x12ae
  === BLOCK LINK ===
    0x11d7
    0x12ae
=== CODE BLOCK END ===

=== CODE BLOCK ADDRESS 0x11d7 ===
  0x11d7	dec    	eax
  0x11d8	mov    	eax, dword ptr [esp + 0x50]
  0x11dc	inc    	ebp
  0x11dd	mov    	byte ptr [edx + 0x28], al
  0x11e0	inc    	esp
  === BLOCK LINK ===
    0x11e1
=== CODE BLOCK END ===

=== CODE BLOCK ADDRESS 0x11e1 ===
  0x11e1	mov    	eax, ebx
  0x11e3	dec    	ecx
  0x11e4	mov    	dword ptr [edx + 0x18], eax
  0x11e7	dec    	ebp
  0x11e8	mov    	dword ptr [edx + 0x10], ecx
  === BLOCK LINK ===
    0x11eb
=== CODE BLOCK END ===

=== CODE BLOCK ADDRESS 0x11eb ===
  0x11eb	inc    	ecx
  0x11ec	mov    	dword ptr [edx + 0x24], edx
  0x11ef	inc    	cx
  0x11f1	cmp    	ebx, dword ptr [edx + 0x2a]
  0x11f4	jae    	0x12ae
  === BLOCK LINK ===
    0x11fa
    0x12ae
=== CODE BLOCK END ===

=== CODE BLOCK ADDRESS 0x11fa ===
  0x11fa	dec    	ecx
  0x11fb	mov    	eax, dword ptr [edx + 0x40]
  0x11fe	inc    	ecx
  0x11ff	mov    	cl, byte ptr [edx + 0x28]
  0x1202	inc    	ebp
  === BLOCK LINK ===
    0x1203
=== CODE BLOCK END ===

=== CODE BLOCK ADDRESS 0x1203 ===
  0x1203	mov    	ecx, eax
  0x1205	inc    	ecx
  0x1206	cmp    	byte ptr [ecx + eax], cl
  0x1209	jbe    	0x120f
  === BLOCK LINK ===
    0x120b
    0x120f
=== CODE BLOCK END ===

=== CODE BLOCK ADDRESS 0x120b ===
  0x120b	test   	cl, cl
  0x120d	jne    	0x122f
  === BLOCK LINK ===
    0x120f
    0x122f
=== CODE BLOCK END ===

=== CODE BLOCK ADDRESS 0x120f ===
  0x120f	dec    	ecx
  0x1210	mov    	eax, dword ptr [edx + 0x38]
  0x1213	dec    	edx
  0x1214	mov    	ecx, dword ptr [eax + ecx*8]
  0x1217	dec    	eax
  === BLOCK LINK ===
    0x1218
=== CODE BLOCK END ===

=== CODE BLOCK ADDRESS 0x1218 ===
  0x1218	test   	ecx, ecx
  0x121a	je     	0x1234
  === BLOCK LINK ===
    0x121c
    0x1234
=== CODE BLOCK END ===

=== CODE BLOCK ADDRESS 0x121c ===
  0x121c	dec    	ecx
  0x121d	test   	dword ptr [edx + 0x10], ecx
  0x1220	je     	0x122f
  === BLOCK LINK ===
    0x1222
    0x122f
=== CODE BLOCK END ===

=== CODE BLOCK ADDRESS 0x1222 ===
  0x1222	dec    	ecx
  0x1223	mov    	eax, dword ptr [edx + 0x18]
  0x1226	dec    	eax
  0x1227	and    	eax, ecx
  0x1229	dec    	ecx
  === BLOCK LINK ===
    0x122a
=== CODE BLOCK END ===

=== CODE BLOCK ADDRESS 0x122a ===
  0x122a	cmp    	eax, dword ptr [edx + 0x18]
  0x122d	je     	0x1234
  === BLOCK LINK ===
    0x122f
    0x1234
=== CODE BLOCK END ===

=== CODE BLOCK ADDRESS 0x122f ===
  0x122f	inc    	esp
  0x1230	mov    	bl, bl
  0x1232	jmp    	0x1237
  === BLOCK LINK ===
    0x1234
    0x1237
=== CODE BLOCK END ===

=== CODE BLOCK ADDRESS 0x1234 ===
  0x1234	inc    	ecx
  0x1235	mov    	bl, 1
  === BLOCK LINK ===
    0x1237
=== CODE BLOCK END ===

=== CODE BLOCK ADDRESS 0x123c ===
  0x123c	mov    	ecx, eax
  0x123e	and    	ecx, 0x1f
  0x1241	dec    	ecx
  0x1242	shr    	ecx, 5
  0x1245	mov    	edx, 1
  === BLOCK LINK ===
    0x124a
=== CODE BLOCK END ===

=== CODE BLOCK ADDRESS 0x124a ===
  0x124a	shl    	edx, cl
  0x124c	dec    	edx
  0x124d	lea    	ecx, [eax + ecx*4]
  0x1250	inc    	ebp
  0x1251	test   	bl, bl
  === BLOCK LINK ===
    0x1253
=== CODE BLOCK END ===

=== CODE BLOCK ADDRESS 0x1253 ===
  0x1253	je     	0x1259
  === BLOCK LINK ===
    0x1255
    0x1259
=== CODE BLOCK END ===

=== CODE BLOCK ADDRESS 0x1255 ===
  0x1255	or     	edx, dword ptr [ecx]
  0x1257	jmp    	0x125d
  === BLOCK LINK ===
    0x1259
    0x125d
=== CODE BLOCK END ===

=== CODE BLOCK ADDRESS 0x1259 ===
  0x1259	not    	edx
  0x125b	and    	edx, dword ptr [ecx]
  === BLOCK LINK ===
    0x125d
=== CODE BLOCK END ===

=== CODE BLOCK ADDRESS 0x1262 ===
  0x1262	inc    	ecx
  0x1263	movzx  	eax, word ptr [edx + 0x2a]
  0x1267	inc    	esp
  0x1268	cmp    	eax, eax
  0x126a	jb     	0x11fa
  === BLOCK LINK ===
    0x126c
    0x11fa
=== CODE BLOCK END ===

=== CODE BLOCK ADDRESS 0x126c ===
  0x126c	dec    	eax
  0x126d	add    	esp, 0x20
  0x1270	pop    	ebx
  0x1271	ret    	
  0x1272	int3   	
  === BLOCK LINK ===
    0x1273
=== CODE BLOCK END ===

=== CODE BLOCK ADDRESS 0x1124 ===
  0x1124	dec    	eax
  0x1125	mov    	eax, esp
  === BLOCK LINK ===
    0x1127
=== CODE BLOCK END ===

=== CODE BLOCK ADDRESS 0x1273 ===
  0x1273	inc    	ecx
  0x1274	mov    	dword ptr [edx + 0x24], ebx
  0x1277	inc    	ecx
  0x1278	mov    	byte ptr [edx + 0x28], bl
  0x127b	dec    	ecx
  === BLOCK LINK ===
    0x127c
=== CODE BLOCK END ===

=== CODE BLOCK ADDRESS 0x127c ===
  0x127c	mov    	dword ptr [edx + 0x10], ebx
  0x127f	dec    	ecx
  0x1280	mov    	dword ptr [edx + 0x18], ebx
  0x1283	inc    	cx
  0x1285	cmp    	dword ptr [edx + 0x2a], ebx
  === BLOCK LINK ===
    0x1288
=== CODE BLOCK END ===

=== CODE BLOCK ADDRESS 0x1288 ===
  0x1288	jbe    	0x12ae
  === BLOCK LINK ===
    0x128a
    0x12ae
=== CODE BLOCK END ===

=== CODE BLOCK ADDRESS 0x128a ===
  0x128a	inc    	ecx
  0x128b	movzx  	eax, word ptr [edx + 0x2a]
  0x128f	dec    	ecx
  0x1290	mov    	ecx, dword ptr [edx + 0x30]
  0x1293	dec    	eax
  === BLOCK LINK ===
    0x1295
=== CODE BLOCK END ===

=== CODE BLOCK ADDRESS 0x1295 ===
  0x1295	cdq    	
  0x1296	and    	edx, 0x1f
  0x1299	add    	eax, edx
  0x129b	xor    	edx, edx
  0x129d	sar    	eax, 5
  === BLOCK LINK ===
    0x12a0
=== CODE BLOCK END ===

=== CODE BLOCK ADDRESS 0x12a0 ===
  0x12a0	inc    	eax
  0x12a2	dec    	esp
  0x12a3	arpl   	ax, ax
  0x12a5	dec    	ecx
  0x12a6	shl    	eax, 2
  === BLOCK LINK ===
    0x12a9
=== CODE BLOCK END ===

=== CODE BLOCK ADDRESS 0x12a9 ===
  0x12a9	call   	0x1fad
  === BLOCK LINK ===
    0x12ae
    0x1fad
=== CODE BLOCK END ===

=== CODE BLOCK ADDRESS 0x12ae ===
  0x12ae	dec    	eax
  0x12af	add    	esp, 0x20
  0x12b2	pop    	ebx
  0x12b3	ret    	
  0x12b4	int3   	
  === BLOCK LINK ===
    0x12b5
=== CODE BLOCK END ===

=== CODE BLOCK ADDRESS 0x1484 ===
=== CODE BLOCK END ===

=== CODE BLOCK ADDRESS 0x12b5 ===
  0x12b5	int3   	
  0x12b6	int3   	
  0x12b7	int3   	
  0x12b8	int3   	
  0x12b9	int3   	
  === BLOCK LINK ===
    0x12ba
=== CODE BLOCK END ===

=== CODE BLOCK ADDRESS 0x12ba ===
  0x12ba	int3   	
  0x12bb	int3   	
  0x12bc	dec    	eax
  0x12bd	sub    	esp, 0x38
  0x12c0	dec    	esp
  === BLOCK LINK ===
    0x12c1
=== CODE BLOCK END ===

=== CODE BLOCK ADDRESS 0x12c1 ===
  0x12c1	mov    	eax, dword ptr [0x3d41]
  0x12c7	xor    	eax, eax
  0x12c9	dec    	eax
  0x12ca	mov    	ecx, dword ptr [esp + 0x60]
  0x12ce	dec    	ebp
  === BLOCK LINK ===
    0x12cf
=== CODE BLOCK END ===

=== CODE BLOCK ADDRESS 0x12cf ===
  0x12cf	test   	eax, eax
  0x12d1	jne    	0x12db
  === BLOCK LINK ===
    0x12d3
    0x12db
=== CODE BLOCK END ===

=== CODE BLOCK ADDRESS 0x12d3 ===
  0x12d3	dec    	eax
  0x12d4	mov    	dword ptr [ecx], eax
  0x12d6	inc    	esp
  0x12d7	mov    	eax, eax
  0x12d9	jmp    	0x12e7
  === BLOCK LINK ===
    0x12db
    0x12e7
=== CODE BLOCK END ===

=== CODE BLOCK ADDRESS 0x12db ===
  0x12db	dec    	esp
  0x12dc	mov    	dword ptr [ecx], eax
  0x12de	mov    	eax, 2
  0x12e3	inc    	ebp
  0x12e4	movzx  	eax, word ptr [eax]
  === BLOCK LINK ===
    0x12e7
=== CODE BLOCK END ===

=== CODE BLOCK ADDRESS 0x12e7 ===
  0x12e7	inc    	esp
  0x12e8	mov    	dword ptr [ecx + 8], eax
  0x12eb	inc    	ebp
  0x12ec	xor    	ecx, ecx
  0x12ee	dec    	eax
  === BLOCK LINK ===
    0x12ef
=== CODE BLOCK END ===

=== CODE BLOCK ADDRESS 0x12ef ===
  0x12ef	mov    	dword ptr [esp + 0x28], ecx
  0x12f3	inc    	ebp
  0x12f4	xor    	eax, eax
  0x12f6	mov    	dword ptr [ecx + 0xc], eax
  0x12f9	dec    	eax
  === BLOCK LINK ===
    0x12fa
=== CODE BLOCK END ===

=== CODE BLOCK ADDRESS 0x12fa ===
  0x12fa	mov    	ecx, dword ptr [0x3d00]
  0x1300	mov    	dword ptr [esp + 0x20], 5
  0x1308	dec    	eax
  0x1309	call   	dword ptr [0x1f09]
  === BLOCK LINK ===
    0x130f
=== CODE BLOCK END ===

=== CODE BLOCK ADDRESS 0x130f ===
  0x130f	nop    	dword ptr [eax + eax]
  0x1314	dec    	eax
  0x1315	add    	esp, 0x38
  0x1318	ret    	
  0x1319	int3   	
  === BLOCK LINK ===
    0x131a
=== CODE BLOCK END ===

=== CODE BLOCK ADDRESS 0x131a ===
  0x131a	int3   	
  0x131b	int3   	
  0x131c	int3   	
  0x131d	int3   	
  0x131e	int3   	
  === BLOCK LINK ===
    0x131f
=== CODE BLOCK END ===

=== CODE BLOCK ADDRESS 0x131f ===
  0x131f	int3   	
  === BLOCK LINK ===
    0x1320
=== CODE BLOCK END ===

=== CODE BLOCK ADDRESS 0x1327 ===
  0x1327	cmp    	dword ptr [0x3cd3], eax
  0x132d	jne    	0x1353
  === BLOCK LINK ===
    0x132f
    0x1353
=== CODE BLOCK END ===

=== CODE BLOCK ADDRESS 0x132f ===
  0x132f	dec    	esp
  0x1330	lea    	eax, [0x3cca]
  0x1336	dec    	ebp
  0x1337	mov    	ecx, eax
  0x1339	dec    	eax
  === BLOCK LINK ===
    0x133a
=== CODE BLOCK END ===

=== CODE BLOCK ADDRESS 0x133a ===
  0x133a	lea    	edx, [0xfffffe70]
  0x1340	dec    	eax
  0x1341	lea    	ecx, [0x2219]
  0x1347	dec    	eax
  0x1348	call   	dword ptr [0x1ec2]
  === BLOCK LINK ===
    0x134e
=== CODE BLOCK END ===

=== CODE BLOCK ADDRESS 0x134e ===
  0x134e	nop    	dword ptr [eax + eax]
  === BLOCK LINK ===
    0x1353
=== CODE BLOCK END ===

=== CODE BLOCK ADDRESS 0x1359 ===
  0x1359	int3   	
  0x135a	int3   	
  0x135b	int3   	
  0x135c	int3   	
  0x135d	int3   	
  === BLOCK LINK ===
    0x135e
=== CODE BLOCK END ===

=== CODE BLOCK ADDRESS 0x135e ===
  0x135e	int3   	
  0x135f	int3   	
  0x1360	dec    	eax
  0x1361	sub    	esp, 0x28
  0x1364	dec    	eax
  === BLOCK LINK ===
    0x1365
=== CODE BLOCK END ===

=== CODE BLOCK ADDRESS 0x1365 ===
  0x1365	mov    	ecx, dword ptr [0x3c95]
  0x136b	dec    	eax
  0x136c	test   	ecx, ecx
  0x136e	jne    	0x1374
  === BLOCK LINK ===
    0x1370
    0x1374
=== CODE BLOCK END ===

=== CODE BLOCK ADDRESS 0x1370 ===
  0x1370	xor    	eax, eax
  0x1372	jmp    	0x1388
  === BLOCK LINK ===
    0x1374
=== CODE BLOCK END ===

=== CODE BLOCK ADDRESS 0x1374 ===
  0x1374	dec    	eax
  0x1375	call   	dword ptr [0x1e8d]
  === BLOCK LINK ===
    0x137b
=== CODE BLOCK END ===

=== CODE BLOCK ADDRESS 0x137b ===
  0x137b	nop    	dword ptr [eax + eax]
  0x1380	dec    	eax
  0x1381	and    	dword ptr [0x3c78], 0
  0x1388	dec    	eax
  0x1389	add    	esp, 0x28
  === BLOCK LINK ===
    0x138c
=== CODE BLOCK END ===

=== CODE BLOCK ADDRESS 0x138c ===
  0x138c	ret    	
  0x138d	int3   	
  0x138e	int3   	
  0x138f	int3   	
  0x1390	int3   	
  === BLOCK LINK ===
    0x1391
=== CODE BLOCK END ===

=== CODE BLOCK ADDRESS 0x1391 ===
  0x1391	int3   	
  0x1392	int3   	
  0x1393	int3   	
  0x1394	dec    	eax
  0x1395	mov    	dword ptr [esp + 8], ebx
  === BLOCK LINK ===
    0x1399
=== CODE BLOCK END ===

=== CODE BLOCK ADDRESS 0x1399 ===
  0x1399	inc    	esp
  0x139a	mov    	dword ptr [esp + 0x20], ecx
  0x139e	push   	ebp
  0x139f	dec    	eax
  0x13a0	lea    	ebp, [esp - 0x47]
  === BLOCK LINK ===
    0x13a4
=== CODE BLOCK END ===

=== CODE BLOCK ADDRESS 0x13a4 ===
  0x13a4	dec    	eax
  0x13a5	sub    	esp, 0x90
  0x13ab	dec    	eax
  0x13ac	mov    	eax, dword ptr [0x3ca6]
  0x13b2	dec    	eax
  === BLOCK LINK ===
    0x13b3
=== CODE BLOCK END ===

=== CODE BLOCK ADDRESS 0x13b3 ===
  0x13b3	xor    	eax, esp
  0x13b5	dec    	eax
  0x13b6	mov    	dword ptr [ebp + 0x37], eax
  0x13b9	dec    	eax
  0x13ba	or     	ecx, 0xffffffff
  === BLOCK LINK ===
    0x13bd
=== CODE BLOCK END ===

=== CODE BLOCK ADDRESS 0x13bd ===
  0x13bd	xor    	ebx, ebx
  0x13bf	dec    	esp
  0x13c0	mov    	ebx, edx
  0x13c2	mov    	edx, 0xa
  0x13c7	dec    	ebp
  === BLOCK LINK ===
    0x13c8
=== CODE BLOCK END ===

=== CODE BLOCK ADDRESS 0x13c8 ===
  0x13c8	test   	eax, eax
  0x13ca	je     	0x13e3
  === BLOCK LINK ===
    0x13cc
=== CODE BLOCK END ===

=== CODE BLOCK ADDRESS 0x13cc ===
  0x13cc	dec    	eax
  0x13cd	mov    	eax, ecx
  0x13cf	dec    	eax
  0x13d0	inc    	eax
  0x13d2	inc    	cx
  === BLOCK LINK ===
    0x13d4
=== CODE BLOCK END ===

=== CODE BLOCK ADDRESS 0x13d4 ===
  0x13d4	cmp    	dword ptr [eax + eax*2], ebx
  0x13d7	jne    	0x13cf
  === BLOCK LINK ===
    0x13d9
=== CODE BLOCK END ===

=== CODE BLOCK ADDRESS 0x13d9 ===
  0x13d9	inc    	esp
  0x13da	lea    	ecx, [eax*2 + 2]
  0x13e1	jmp    	0x13e6
  === BLOCK LINK ===
    0x13e3
=== CODE BLOCK END ===

=== CODE BLOCK ADDRESS 0x13e3 ===
  0x13e3	inc    	esp
  0x13e4	mov    	ecx, edx
  0x13e6	dec    	ebp
  0x13e7	test   	eax, eax
  0x13e9	inc    	esp
  === BLOCK LINK ===
    0x13ea
=== CODE BLOCK END ===

=== CODE BLOCK ADDRESS 0x13ea ===
  0x13ea	mov    	dword ptr [ebp - 1], ecx
  0x13ed	dec    	esp
  0x13ee	lea    	edx, [0x20fc]
  0x13f4	mov    	dword ptr [ebp + 3], ebx
  0x13f7	dec    	ecx
  === BLOCK LINK ===
    0x13f8
=== CODE BLOCK END ===

=== CODE BLOCK ADDRESS 0x13f8 ===
  0x13f8	mov    	eax, edx
  0x13fa	dec    	eax
  0x13fb	mov    	dword ptr [ebp + 0xf], 4
  0x1402	dec    	ecx
  0x1403	cmovne  	eax, eax
  === BLOCK LINK ===
    0x1406
=== CODE BLOCK END ===

=== CODE BLOCK ADDRESS 0x1406 ===
  0x1406	dec    	eax
  0x1407	mov    	dword ptr [ebp + 0x1f], 4
  0x140e	dec    	eax
  0x140f	mov    	dword ptr [ebp - 9], eax
  0x1412	dec    	eax
  === BLOCK LINK ===
    0x1413
=== CODE BLOCK END ===

=== CODE BLOCK ADDRESS 0x1413 ===
  0x1413	lea    	eax, [ebp + 0x6f]
  0x1416	dec    	eax
  0x1417	mov    	dword ptr [ebp + 7], eax
  0x141a	dec    	eax
  0x141b	lea    	eax, [ebp + 0x77]
  === BLOCK LINK ===
    0x141e
=== CODE BLOCK END ===

=== CODE BLOCK ADDRESS 0x141e ===
  0x141e	dec    	eax
  0x141f	mov    	dword ptr [ebp + 0x17], eax
  0x1422	dec    	eax
  0x1423	mov    	eax, dword ptr [ebp + 0x7f]
  0x1426	dec    	eax
  === BLOCK LINK ===
    0x1427
=== CODE BLOCK END ===

=== CODE BLOCK ADDRESS 0x1427 ===
  0x1427	test   	eax, eax
  0x1429	je     	0x143e
  === BLOCK LINK ===
    0x142b
=== CODE BLOCK END ===

=== CODE BLOCK ADDRESS 0x142b ===
  0x142b	dec    	eax
  0x142c	inc    	ecx
  0x142e	cmp    	word ptr [eax + ecx*2], bx
  0x1432	jne    	0x142b
  === BLOCK LINK ===
    0x1434
=== CODE BLOCK END ===

=== CODE BLOCK ADDRESS 0x1434 ===
  0x1434	lea    	edx, [ecx*2 + 2]
  0x143b	dec    	eax
  0x143c	test   	eax, eax
  0x143e	dec    	esp
  0x143f	cmovne  	edx, eax
  === BLOCK LINK ===
    0x1442
=== CODE BLOCK END ===

=== CODE BLOCK ADDRESS 0x1442 ===
  0x1442	mov    	dword ptr [ebp + 0x2f], edx
  0x1445	dec    	eax
  0x1446	lea    	eax, [ebp - 0x19]
  0x1449	dec    	esp
  0x144a	mov    	dword ptr [ebp + 0x27], edx
  === BLOCK LINK ===
    0x144d
=== CODE BLOCK END ===

=== CODE BLOCK ADDRESS 0x144d ===
  0x144d	dec    	ecx
  0x144e	mov    	edx, ebx
  0x1450	dec    	eax
  0x1451	mov    	dword ptr [esp + 0x20], eax
  0x1455	mov    	dword ptr [ebp + 0x33], ebx
  === BLOCK LINK ===
    0x1458
=== CODE BLOCK END ===

=== CODE BLOCK ADDRESS 0x1458 ===
  0x1458	call   	0x12bc
  === BLOCK LINK ===
    0x145d
=== CODE BLOCK END ===

=== CODE BLOCK ADDRESS 0x145d ===
  0x145d	dec    	eax
  0x145e	mov    	ecx, dword ptr [ebp + 0x37]
  0x1461	dec    	eax
  0x1462	xor    	ecx, esp
  0x1464	call   	0x1940
  === BLOCK LINK ===
    0x1469
=== CODE BLOCK END ===

=== CODE BLOCK ADDRESS 0x1469 ===
  0x1469	dec    	eax
  0x146a	mov    	ebx, dword ptr [esp + 0xa0]
  0x1471	dec    	eax
  0x1472	add    	esp, 0x90
  0x1478	pop    	ebp
  === BLOCK LINK ===
    0x1479
=== CODE BLOCK END ===

=== CODE BLOCK ADDRESS 0x1479 ===
  0x1479	ret    	
  0x147a	int3   	
  0x147b	int3   	
  0x147c	int3   	
  0x147d	int3   	
  === BLOCK LINK ===
    0x147e
=== CODE BLOCK END ===

=== CODE BLOCK ADDRESS 0x147e ===
  0x147e	int3   	
  0x147f	int3   	
  0x1480	int3   	
  0x1481	int3   	
  0x1482	int3   	
  === BLOCK LINK ===
    0x1483
=== CODE BLOCK END ===

=== CODE BLOCK ADDRESS 0x1483 ===
  0x1483	int3   	
  0x1484	dec    	esp
  0x1485	mov    	dword ptr [esp + 0x20], ecx
  0x1489	push   	ebx
  0x148a	push   	ebp
  === BLOCK LINK ===
    0x148b
=== CODE BLOCK END ===

=== CODE BLOCK ADDRESS 0x148b ===
  0x148b	push   	esi
  0x148c	push   	edi
  0x148d	dec    	eax
  0x148e	sub    	esp, 0x448
  0x1494	dec    	eax
  === BLOCK LINK ===
    0x1495
=== CODE BLOCK END ===

=== CODE BLOCK ADDRESS 0x1495 ===
  0x1495	mov    	eax, dword ptr [0x3bbd]
  0x149b	dec    	eax
  0x149c	xor    	eax, esp
  0x149e	dec    	eax
  0x149f	mov    	dword ptr [esp + 0x430], eax
  === BLOCK LINK ===
    0x14a6
=== CODE BLOCK END ===

=== CODE BLOCK ADDRESS 0x14a6 ===
  0x14a6	xor    	ebp, ebp
  0x14a8	dec    	ecx
  0x14a9	mov    	ebx, ecx
  0x14ab	inc    	ecx
  0x14ac	mov    	esi, eax
  === BLOCK LINK ===
    0x14ae
=== CODE BLOCK END ===

=== CODE BLOCK ADDRESS 0x14ae ===
  0x14ae	dec    	eax
  0x14af	mov    	edi, edx
  0x14b1	cmp    	dword ptr [ecx], ebp
  0x14b3	je     	0x1525
  === BLOCK LINK ===
    0x14b5
=== CODE BLOCK END ===

=== CODE BLOCK ADDRESS 0x14b5 ===
  0x14b5	xor    	edx, edx
  0x14b7	dec    	eax
  0x14b8	lea    	ecx, [esp + 0x30]
  0x14bc	inc    	ecx
  0x14bd	mov    	eax, 0x400
  === BLOCK LINK ===
    0x14c2
=== CODE BLOCK END ===

=== CODE BLOCK ADDRESS 0x14c2 ===
  0x14c2	call   	0x1fad
  === BLOCK LINK ===
    0x14c7
=== CODE BLOCK END ===

=== CODE BLOCK ADDRESS 0x14c7 ===
  0x14c7	dec    	esp
  0x14c8	lea    	ecx, [esp + 0x490]
  0x14cf	dec    	esp
  0x14d0	mov    	eax, ebx
  0x14d2	mov    	edx, 0x1ff
  === BLOCK LINK ===
    0x14d7
=== CODE BLOCK END ===

=== CODE BLOCK ADDRESS 0x14d7 ===
  0x14d7	dec    	eax
  0x14d8	lea    	ecx, [esp + 0x30]
  0x14dc	dec    	eax
  0x14dd	call   	dword ptr [0x1da5]
  === BLOCK LINK ===
    0x14e3
=== CODE BLOCK END ===

=== CODE BLOCK ADDRESS 0x14e3 ===
  0x14e3	nop    	dword ptr [eax + eax]
  0x14e8	test   	byte ptr [0x4151], 2
  0x14ef	mov    	word ptr [esp + 0x42e], bp
  0x14f7	je     	0x1525
  === BLOCK LINK ===
    0x14f9
=== CODE BLOCK END ===

=== CODE BLOCK ADDRESS 0x14f9 ===
  0x14f9	dec    	eax
  0x14fa	call   	dword ptr [0x1c80]
  === BLOCK LINK ===
    0x1500
=== CODE BLOCK END ===

=== CODE BLOCK ADDRESS 0x1500 ===
  0x1500	nop    	dword ptr [eax + eax]
  0x1505	dec    	eax
  0x1506	lea    	ecx, [esp + 0x30]
  0x150a	inc    	esp
  0x150b	mov    	ecx, esi
  === BLOCK LINK ===
    0x150d
=== CODE BLOCK END ===

=== CODE BLOCK ADDRESS 0x150d ===
  0x150d	dec    	eax
  0x150e	mov    	dword ptr [esp + 0x28], ecx
  0x1512	dec    	eax
  0x1513	lea    	edx, [0x2037]
  0x1519	dec    	esp
  === BLOCK LINK ===
    0x151a
=== CODE BLOCK END ===

=== CODE BLOCK ADDRESS 0x151a ===
  0x151a	mov    	eax, edi
  0x151c	mov    	dword ptr [esp + 0x20], eax
  0x1520	call   	0x1394
  === BLOCK LINK ===
    0x1525
=== CODE BLOCK END ===

=== CODE BLOCK ADDRESS 0x1525 ===
  0x1525	dec    	eax
  0x1526	mov    	ecx, dword ptr [esp + 0x430]
  0x152d	dec    	eax
  0x152e	xor    	ecx, esp
  0x1530	call   	0x1940
  === BLOCK LINK ===
    0x1535
=== CODE BLOCK END ===

=== CODE BLOCK ADDRESS 0x1535 ===
  0x1535	dec    	eax
  0x1536	add    	esp, 0x448
  0x153c	pop    	edi
  0x153d	pop    	esi
  0x153e	pop    	ebp
  === BLOCK LINK ===
    0x153f
=== CODE BLOCK END ===

=== CODE BLOCK ADDRESS 0x153f ===
  0x153f	pop    	ebx
  0x1540	ret    	
  0x1541	int3   	
  0x1542	int3   	
  0x1543	int3   	
  === BLOCK LINK ===
    0x1544
=== CODE BLOCK END ===

=== CODE BLOCK ADDRESS 0x1544 ===
  0x1544	int3   	
  0x1545	int3   	
  0x1546	int3   	
  0x1547	int3   	
  0x1548	dec    	esp
  === BLOCK LINK ===
    0x1549
=== CODE BLOCK END ===

=== CODE BLOCK ADDRESS 0x1549 ===
  0x1549	mov    	dword ptr [esp + 0x20], ecx
  0x154d	push   	ebx
  0x154e	push   	ebp
  0x154f	push   	esi
  0x1550	push   	edi
  === BLOCK LINK ===
    0x1551
=== CODE BLOCK END ===

=== CODE BLOCK ADDRESS 0x1551 ===
  0x1551	dec    	eax
  0x1552	sub    	esp, 0x448
  0x1558	dec    	eax
  0x1559	mov    	eax, dword ptr [0x3af9]
  0x155f	dec    	eax
  === BLOCK LINK ===
    0x1560
=== CODE BLOCK END ===

=== CODE BLOCK ADDRESS 0x1560 ===
  0x1560	xor    	eax, esp
  0x1562	dec    	eax
  0x1563	mov    	dword ptr [esp + 0x430], eax
  0x156a	xor    	ebp, ebp
  0x156c	dec    	ecx
  === BLOCK LINK ===
    0x156d
=== CODE BLOCK END ===

=== CODE BLOCK ADDRESS 0x156d ===
  0x156d	mov    	ebx, ecx
  0x156f	inc    	ecx
  0x1570	mov    	esi, eax
  0x1572	dec    	eax
  0x1573	mov    	edi, edx
  === BLOCK LINK ===
    0x1575
=== CODE BLOCK END ===

=== CODE BLOCK ADDRESS 0x1575 ===
  0x1575	cmp    	dword ptr [ecx], ebp
  0x1577	je     	0x15e9
  === BLOCK LINK ===
    0x1579
=== CODE BLOCK END ===

=== CODE BLOCK ADDRESS 0x1579 ===
  0x1579	xor    	edx, edx
  0x157b	dec    	eax
  0x157c	lea    	ecx, [esp + 0x30]
  0x1580	inc    	ecx
  0x1581	mov    	eax, 0x400
  === BLOCK LINK ===
    0x1586
=== CODE BLOCK END ===

=== CODE BLOCK ADDRESS 0x1586 ===
  0x1586	call   	0x1fad
  === BLOCK LINK ===
    0x158b
=== CODE BLOCK END ===

=== CODE BLOCK ADDRESS 0x158b ===
  0x158b	dec    	esp
  0x158c	lea    	ecx, [esp + 0x490]
  0x1593	dec    	esp
  0x1594	mov    	eax, ebx
  0x1596	mov    	edx, 0x1ff
  === BLOCK LINK ===
    0x159b
=== CODE BLOCK END ===

=== CODE BLOCK ADDRESS 0x159b ===
  0x159b	dec    	eax
  0x159c	lea    	ecx, [esp + 0x30]
  0x15a0	dec    	eax
  0x15a1	call   	dword ptr [0x1ce1]
  === BLOCK LINK ===
    0x15a7
=== CODE BLOCK END ===

=== CODE BLOCK ADDRESS 0x15a7 ===
  0x15a7	nop    	dword ptr [eax + eax]
  0x15ac	test   	byte ptr [0x408d], 8
  0x15b3	mov    	word ptr [esp + 0x42e], bp
  0x15bb	je     	0x15e9
  === BLOCK LINK ===
    0x15bd
=== CODE BLOCK END ===

=== CODE BLOCK ADDRESS 0x15bd ===
  0x15bd	dec    	eax
  0x15be	call   	dword ptr [0x1bbc]
  === BLOCK LINK ===
    0x15c4
=== CODE BLOCK END ===

=== CODE BLOCK ADDRESS 0x15c4 ===
  0x15c4	nop    	dword ptr [eax + eax]
  0x15c9	dec    	eax
  0x15ca	lea    	ecx, [esp + 0x30]
  0x15ce	inc    	esp
  0x15cf	mov    	ecx, esi
  === BLOCK LINK ===
    0x15d1
=== CODE BLOCK END ===

=== CODE BLOCK ADDRESS 0x15d1 ===
  0x15d1	dec    	eax
  0x15d2	mov    	dword ptr [esp + 0x28], ecx
  0x15d6	dec    	eax
  0x15d7	lea    	edx, [0x1f63]
  0x15dd	dec    	esp
  === BLOCK LINK ===
    0x15de
=== CODE BLOCK END ===

=== CODE BLOCK ADDRESS 0x15de ===
  0x15de	mov    	eax, edi
  0x15e0	mov    	dword ptr [esp + 0x20], eax
  0x15e4	call   	0x1394
  === BLOCK LINK ===
    0x15e9
=== CODE BLOCK END ===

=== CODE BLOCK ADDRESS 0x15e9 ===
  0x15e9	dec    	eax
  0x15ea	mov    	ecx, dword ptr [esp + 0x430]
  0x15f1	dec    	eax
  0x15f2	xor    	ecx, esp
  0x15f4	call   	0x1940
  === BLOCK LINK ===
    0x15f9
=== CODE BLOCK END ===

=== CODE BLOCK ADDRESS 0x15f9 ===
  0x15f9	dec    	eax
  0x15fa	add    	esp, 0x448
  0x1600	pop    	edi
  0x1601	pop    	esi
  0x1602	pop    	ebp
  === BLOCK LINK ===
    0x1603
=== CODE BLOCK END ===

=== CODE BLOCK ADDRESS 0x1603 ===
  0x1603	pop    	ebx
  0x1604	ret    	
  0x1605	int3   	
  0x1606	int3   	
  0x1607	int3   	
  === BLOCK LINK ===
    0x1608
=== CODE BLOCK END ===

=== CODE BLOCK ADDRESS 0x1608 ===
  0x1608	int3   	
  0x1609	int3   	
  0x160a	int3   	
  0x160b	int3   	
  0x160c	int3   	
  === BLOCK LINK ===
    0x160d
=== CODE BLOCK END ===

=== CODE BLOCK ADDRESS 0x160d ===
  0x160d	int3   	
  0x160e	int3   	
  0x160f	int3   	
  0x1610	dec    	eax
  0x1611	sub    	esp, 0x28
  === BLOCK LINK ===
    0x1614
=== CODE BLOCK END ===

=== CODE BLOCK ADDRESS 0x1614 ===
  0x1614	mov    	eax, 0x5a4d
  0x1619	cmp    	word ptr [0xffffe9e0], ax
  0x1620	je     	0x1626
  === BLOCK LINK ===
    0x1622
=== CODE BLOCK END ===

=== CODE BLOCK ADDRESS 0x1622 ===
  0x1622	xor    	eax, eax
  0x1624	jmp    	0x1679
  === BLOCK LINK ===
    0x1626
=== CODE BLOCK END ===

=== CODE BLOCK ADDRESS 0x1626 ===
  0x1626	dec    	eax
  0x1627	arpl   	word ptr [0xffffea0f], cx
  0x162d	dec    	eax
  0x162e	lea    	eax, [0xffffe9cc]
  0x1634	dec    	eax
  === BLOCK LINK ===
    0x1635
=== CODE BLOCK END ===

=== CODE BLOCK ADDRESS 0x1635 ===
  0x1635	add    	ecx, eax
  0x1637	cmp    	dword ptr [ecx], 0x4550
  0x163d	jne    	0x1622
  === BLOCK LINK ===
    0x163f
=== CODE BLOCK END ===

=== CODE BLOCK ADDRESS 0x163f ===
  0x163f	mov    	eax, 0x10b
  0x1644	cmp    	word ptr [ecx + 0x18], ax
  0x1648	je     	0x1668
  === BLOCK LINK ===
    0x164a
=== CODE BLOCK END ===

=== CODE BLOCK ADDRESS 0x164a ===
  0x164a	mov    	eax, 0x20b
  0x164f	cmp    	word ptr [ecx + 0x18], ax
  0x1653	jne    	0x1622
  === BLOCK LINK ===
    0x1655
=== CODE BLOCK END ===

=== CODE BLOCK ADDRESS 0x1655 ===
  0x1655	xor    	eax, eax
  0x1657	cmp    	dword ptr [ecx + 0x84], 0xe
  0x165e	jbe    	0x1679
  === BLOCK LINK ===
    0x1660
=== CODE BLOCK END ===

=== CODE BLOCK ADDRESS 0x1660 ===
  0x1660	cmp    	dword ptr [ecx + 0xf8], eax
  0x1666	jmp    	0x1676
  === BLOCK LINK ===
    0x1668
=== CODE BLOCK END ===

=== CODE BLOCK ADDRESS 0x1668 ===
  0x1668	xor    	eax, eax
  0x166a	cmp    	dword ptr [ecx + 0x74], 0xe
  0x166e	jbe    	0x1679
  === BLOCK LINK ===
    0x1670
=== CODE BLOCK END ===

=== CODE BLOCK ADDRESS 0x1670 ===
  0x1670	cmp    	dword ptr [ecx + 0xe8], eax
  0x1676	setne  	al
  0x1679	mov    	ecx, 1
  0x167e	mov    	dword ptr [0x3a1c], eax
  0x1684	call   	0x1a38
  === BLOCK LINK ===
    0x1689
=== CODE BLOCK END ===

=== CODE BLOCK ADDRESS 0x1689 ===
  0x1689	mov    	ecx, eax
  0x168b	call   	dword ptr [0x1bbf]
  === BLOCK LINK ===
    0x1691
=== CODE BLOCK END ===

=== CODE BLOCK ADDRESS 0x1691 ===
  0x1691	dec    	eax
  0x1692	mov    	ecx, dword ptr [0x1bd0]
  0x1698	dec    	eax
  0x1699	or     	eax, 0xffffffff
  0x169c	dec    	eax
  === BLOCK LINK ===
    0x169d
=== CODE BLOCK END ===

=== CODE BLOCK ADDRESS 0x169d ===
  0x169d	mov    	dword ptr [0x3fb5], eax
  0x16a3	dec    	eax
  0x16a4	mov    	dword ptr [0x3fb6], eax
  0x16aa	mov    	eax, dword ptr [0x3a04]
  0x16b0	mov    	dword ptr [ecx], eax
  === BLOCK LINK ===
    0x16b2
=== CODE BLOCK END ===

=== CODE BLOCK ADDRESS 0x16b2 ===
  0x16b2	dec    	eax
  0x16b3	mov    	ecx, dword ptr [0x1bb7]
  0x16b9	mov    	eax, dword ptr [0x39e9]
  0x16bf	mov    	dword ptr [ecx], eax
  0x16c1	call   	0x1a90
  === BLOCK LINK ===
    0x16c6
=== CODE BLOCK END ===

=== CODE BLOCK ADDRESS 0x16c6 ===
  0x16c6	cmp    	dword ptr [0x3983], 0
  0x16cd	jne    	0x16dc
  === BLOCK LINK ===
    0x16cf
=== CODE BLOCK END ===

=== CODE BLOCK ADDRESS 0x16cf ===
  0x16cf	dec    	eax
  0x16d0	lea    	ecx, [0x3ba]
  0x16d6	call   	dword ptr [0x1bdc]
  === BLOCK LINK ===
    0x16dc
=== CODE BLOCK END ===

=== CODE BLOCK ADDRESS 0x16dc ===
  0x16dc	xor    	eax, eax
  0x16de	dec    	eax
  0x16df	add    	esp, 0x28
  0x16e2	ret    	
  0x16e3	int3   	
  === BLOCK LINK ===
    0x16e4
=== CODE BLOCK END ===

=== CODE BLOCK ADDRESS 0x1548 ===
=== CODE BLOCK END ===

=== CODE BLOCK ADDRESS 0x16e4 ===
  0x16e4	int3   	
  0x16e5	int3   	
  0x16e6	int3   	
  0x16e7	int3   	
  0x16e8	int3   	
  === BLOCK LINK ===
    0x16e9
=== CODE BLOCK END ===

=== CODE BLOCK ADDRESS 0x16e9 ===
  0x16e9	int3   	
  0x16ea	int3   	
  0x16eb	int3   	
  0x16ec	int3   	
  0x16ed	int3   	
  === BLOCK LINK ===
    0x16ee
=== CODE BLOCK END ===

=== CODE BLOCK ADDRESS 0x16ee ===
  0x16ee	int3   	
  0x16ef	int3   	
  0x16f0	dec    	eax
  0x16f1	sub    	esp, 0x38
  0x16f4	mov    	eax, dword ptr [0x39b6]
  === BLOCK LINK ===
    0x16fa
=== CODE BLOCK END ===

=== CODE BLOCK ADDRESS 0x16fa ===
  0x16fa	dec    	esp
  0x16fb	lea    	eax, [0x3997]
  0x1701	inc    	esp
  0x1702	mov    	ecx, dword ptr [0x39a4]
  0x1708	dec    	eax
  === BLOCK LINK ===
    0x1709
=== CODE BLOCK END ===

=== CODE BLOCK ADDRESS 0x1709 ===
  0x1709	lea    	edx, [0x3981]
  0x170f	mov    	dword ptr [0x398f], eax
  0x1715	dec    	eax
  0x1716	lea    	ecx, [0x396c]
  0x171c	dec    	eax
  === BLOCK LINK ===
    0x171d
=== CODE BLOCK END ===

=== CODE BLOCK ADDRESS 0x171d ===
  0x171d	lea    	eax, [0x3981]
  0x1723	dec    	eax
  0x1724	mov    	dword ptr [esp + 0x20], eax
  0x1728	call   	dword ptr [0x1b32]
  === BLOCK LINK ===
    0x172e
=== CODE BLOCK END ===

=== CODE BLOCK ADDRESS 0x172e ===
  0x172e	mov    	dword ptr [0x3958], eax
  0x1734	dec    	eax
  0x1735	add    	esp, 0x38
  0x1738	ret    	
  0x1739	int3   	
  === BLOCK LINK ===
    0x173a
=== CODE BLOCK END ===

=== CODE BLOCK ADDRESS 0x110a ===
  0x110a	dec    	eax
  0x110b	mov    	ebx, dword ptr [esp + 0x40]
  0x110f	mov    	eax, esi
  0x1111	dec    	eax
  === BLOCK LINK ===
    0x1112
=== CODE BLOCK END ===

=== CODE BLOCK ADDRESS 0x173a ===
  0x173a	int3   	
  0x173b	int3   	
  0x173c	int3   	
  0x173d	int3   	
  0x173e	int3   	
  === BLOCK LINK ===
    0x173f
=== CODE BLOCK END ===

=== CODE BLOCK ADDRESS 0x173f ===
  0x173f	int3   	
  0x1740	dec    	eax
  0x1741	mov    	dword ptr [esp + 8], ebx
  0x1745	dec    	eax
  0x1746	mov    	dword ptr [esp + 0x10], esi
  === BLOCK LINK ===
    0x174a
=== CODE BLOCK END ===

=== CODE BLOCK ADDRESS 0x174a ===
  0x174a	dec    	eax
  0x174b	mov    	dword ptr [esp + 0x18], edi
  0x174f	inc    	ecx
  0x1750	push   	edi
  0x1751	dec    	eax
  === BLOCK LINK ===
    0x1752
=== CODE BLOCK END ===

=== CODE BLOCK ADDRESS 0x1752 ===
  0x1752	sub    	esp, 0x30
  0x1755	dec    	eax
  0x1757	mov    	eax, dword ptr [0x30]
  0x175e	dec    	eax
  0x175f	mov    	ebx, dword ptr [eax + 8]
  === BLOCK LINK ===
    0x1762
=== CODE BLOCK END ===

=== CODE BLOCK ADDRESS 0x1762 ===
  0x1762	xor    	esi, esi
  0x1764	xor    	eax, eax
  0x1766	.byte  	0xf0
  0x1767	dec    	eax
  0x1768	cmpxchg  	dword ptr [0x3ef9], ebx
  === BLOCK LINK ===
    0x176f
=== CODE BLOCK END ===

=== CODE BLOCK ADDRESS 0x176f ===
  0x176f	je     	0x178c
  === BLOCK LINK ===
    0x1771
=== CODE BLOCK END ===

=== CODE BLOCK ADDRESS 0x1771 ===
  0x1771	dec    	eax
  0x1772	cmp    	eax, ebx
  0x1774	jne    	0x177f
  === BLOCK LINK ===
    0x1776
=== CODE BLOCK END ===

=== CODE BLOCK ADDRESS 0x1776 ===
  0x1776	mov    	ebx, 1
  0x177b	mov    	esi, ebx
  0x177d	jmp    	0x1791
  === BLOCK LINK ===
    0x177f
=== CODE BLOCK END ===

=== CODE BLOCK ADDRESS 0x177f ===
  0x177f	mov    	ecx, 0x3e8
  0x1784	call   	dword ptr [0x1a4e]
  === BLOCK LINK ===
    0x178a
=== CODE BLOCK END ===

=== CODE BLOCK ADDRESS 0x178a ===
  0x178a	jmp    	0x1764
  === BLOCK LINK ===
    0x178c
=== CODE BLOCK END ===

=== CODE BLOCK ADDRESS 0x178c ===
  0x178c	mov    	ebx, 1
  0x1791	mov    	eax, dword ptr [0x3ed9]
  0x1797	cmp    	eax, ebx
  0x1799	jne    	0x17a7
  === BLOCK LINK ===
    0x179b
=== CODE BLOCK END ===

=== CODE BLOCK ADDRESS 0x179b ===
  0x179b	mov    	ecx, 0x1f
  0x17a0	call   	0x1a83
  === BLOCK LINK ===
    0x17a5
=== CODE BLOCK END ===

=== CODE BLOCK ADDRESS 0x17a5 ===
  0x17a5	jmp    	0x180c
  === BLOCK LINK ===
    0x17a7
=== CODE BLOCK END ===

=== CODE BLOCK ADDRESS 0x17a7 ===
  0x17a7	mov    	eax, dword ptr [0x3ec3]
  0x17ad	test   	eax, eax
  0x17af	jne    	0x1806
  === BLOCK LINK ===
    0x17b1
=== CODE BLOCK END ===

=== CODE BLOCK ADDRESS 0x17b1 ===
  0x17b1	mov    	dword ptr [0x3eb9], ebx
  0x17b7	dec    	esp
  0x17b8	lea    	edi, [0x1b62]
  0x17be	dec    	eax
  0x17bf	lea    	edi, [0x1b43]
  === BLOCK LINK ===
    0x17c5
=== CODE BLOCK END ===

=== CODE BLOCK ADDRESS 0x17c5 ===
  0x17c5	dec    	eax
  0x17c6	mov    	dword ptr [esp + 0x28], edi
  0x17ca	mov    	dword ptr [esp + 0x20], eax
  0x17ce	dec    	ecx
  0x17cf	cmp    	edi, edi
  === BLOCK LINK ===
    0x17d1
=== CODE BLOCK END ===

=== CODE BLOCK ADDRESS 0x17d1 ===
  0x17d1	jae    	0x17f8
  === BLOCK LINK ===
    0x17d3
=== CODE BLOCK END ===

=== CODE BLOCK ADDRESS 0x17d3 ===
  0x17d3	test   	eax, eax
  0x17d5	jne    	0x17fc
  === BLOCK LINK ===
    0x17d7
=== CODE BLOCK END ===

=== CODE BLOCK ADDRESS 0x17d7 ===
  0x17d7	dec    	eax
  0x17d8	cmp    	dword ptr [edi], 0
  0x17db	je     	0x17ed
  === BLOCK LINK ===
    0x17dd
=== CODE BLOCK END ===

=== CODE BLOCK ADDRESS 0x17dd ===
  0x17dd	dec    	eax
  0x17de	mov    	eax, dword ptr [edi]
  0x17e0	dec    	eax
  0x17e1	mov    	ecx, dword ptr [0x1af9]
  0x17e7	call   	ecx
  === BLOCK LINK ===
    0x17e9
=== CODE BLOCK END ===

=== CODE BLOCK ADDRESS 0x17e9 ===
  0x17e9	mov    	dword ptr [esp + 0x20], eax
  0x17ed	dec    	eax
  0x17ee	add    	edi, 8
  0x17f1	dec    	eax
  0x17f2	mov    	dword ptr [esp + 0x28], edi
  === BLOCK LINK ===
    0x17f6
=== CODE BLOCK END ===

=== CODE BLOCK ADDRESS 0x17f6 ===
  0x17f6	jmp    	0x17ce
  === BLOCK LINK ===
    0x17f8
=== CODE BLOCK END ===

=== CODE BLOCK ADDRESS 0x17f8 ===
  0x17f8	test   	eax, eax
  0x17fa	je     	0x180c
  === BLOCK LINK ===
    0x17fc
=== CODE BLOCK END ===

=== CODE BLOCK ADDRESS 0x17fc ===
  0x17fc	mov    	eax, 0xff
  0x1801	jmp    	0x18e8
  === BLOCK LINK ===
    0x1806
=== CODE BLOCK END ===

=== CODE BLOCK ADDRESS 0x1806 ===
  0x1806	mov    	dword ptr [0x3878], ebx
  0x180c	mov    	eax, dword ptr [0x3e5e]
  0x1812	cmp    	eax, ebx
  0x1814	jne    	0x1833
  === BLOCK LINK ===
    0x1816
=== CODE BLOCK END ===

=== CODE BLOCK ADDRESS 0x1816 ===
  0x1816	dec    	eax
  0x1817	lea    	edx, [0x1ae3]
  0x181d	dec    	eax
  0x181e	lea    	ecx, [0x1ac4]
  0x1824	call   	0x1c5e
  === BLOCK LINK ===
    0x1829
=== CODE BLOCK END ===

=== CODE BLOCK ADDRESS 0x1829 ===
  0x1829	mov    	dword ptr [0x3e3d], 2
  0x1833	test   	esi, esi
  0x1835	jne    	0x1840
  === BLOCK LINK ===
    0x1837
=== CODE BLOCK END ===

=== CODE BLOCK ADDRESS 0x1837 ===
  0x1837	xor    	eax, eax
  0x1839	dec    	eax
  0x183a	xchg   	dword ptr [0x3e28], eax
  0x1840	dec    	eax
  0x1841	cmp    	dword ptr [0x3e30], 0
  === BLOCK LINK ===
    0x1848
=== CODE BLOCK END ===

=== CODE BLOCK ADDRESS 0x1848 ===
  0x1848	je     	0x1874
  === BLOCK LINK ===
    0x184a
=== CODE BLOCK END ===

=== CODE BLOCK ADDRESS 0x184a ===
  0x184a	dec    	eax
  0x184b	lea    	ecx, [0x3e27]
  0x1851	call   	0x1af0
  === BLOCK LINK ===
    0x1856
=== CODE BLOCK END ===

=== CODE BLOCK ADDRESS 0x1856 ===
  0x1856	test   	eax, eax
  0x1858	je     	0x1874
  === BLOCK LINK ===
    0x185a
=== CODE BLOCK END ===

=== CODE BLOCK ADDRESS 0x185a ===
  0x185a	inc    	ebp
  0x185b	xor    	eax, eax
  0x185d	inc    	ecx
  0x185e	lea    	edx, [eax + 2]
  0x1861	xor    	ecx, ecx
  === BLOCK LINK ===
    0x1863
=== CODE BLOCK END ===

=== CODE BLOCK ADDRESS 0x1863 ===
  0x1863	dec    	eax
  0x1864	mov    	eax, dword ptr [0x3e0e]
  0x186a	dec    	esp
  0x186b	mov    	ecx, dword ptr [0x1a6f]
  0x1871	inc    	ecx
  === BLOCK LINK ===
    0x1872
=== CODE BLOCK END ===

=== CODE BLOCK ADDRESS 0x1872 ===
  0x1872	call   	ecx
  === BLOCK LINK ===
    0x1874
=== CODE BLOCK END ===

=== CODE BLOCK ADDRESS 0x1874 ===
  0x1874	dec    	esp
  0x1875	mov    	eax, dword ptr [0x381d]
  0x187b	dec    	eax
  0x187c	mov    	edx, dword ptr [0x380e]
  0x1882	mov    	ecx, dword ptr [0x3800]
  === BLOCK LINK ===
    0x1888
=== CODE BLOCK END ===

=== CODE BLOCK ADDRESS 0x1888 ===
  0x1888	call   	0x1024
  === BLOCK LINK ===
    0x188d
=== CODE BLOCK END ===

=== CODE BLOCK ADDRESS 0x188d ===
  0x188d	mov    	dword ptr [0x37ed], eax
  0x1893	cmp    	dword ptr [0x3806], 0
  0x189a	jne    	0x18a4
  === BLOCK LINK ===
    0x189c
=== CODE BLOCK END ===

=== CODE BLOCK ADDRESS 0x189c ===
  0x189c	mov    	ecx, eax
  0x189e	call   	dword ptr [0x19a4]
  === BLOCK LINK ===
    0x18a4
=== CODE BLOCK END ===

=== CODE BLOCK ADDRESS 0x18a4 ===
  0x18a4	cmp    	dword ptr [0x37d9], 0
  0x18ab	jne    	0x18b9
  === BLOCK LINK ===
    0x18ad
=== CODE BLOCK END ===

=== CODE BLOCK ADDRESS 0x18ad ===
  0x18ad	call   	dword ptr [0x19c5]
  === BLOCK LINK ===
    0x18b3
=== CODE BLOCK END ===

=== CODE BLOCK ADDRESS 0x18b3 ===
  0x18b3	mov    	eax, dword ptr [0x37c7]
  0x18b9	jmp    	0x18e8
  === BLOCK LINK ===
    0x18bb
=== CODE BLOCK END ===

=== CODE BLOCK ADDRESS 0x18bb ===
  0x18bb	mov    	dword ptr [0x37bf], eax
  0x18c1	cmp    	dword ptr [0x37d8], 0
  0x18c8	jne    	0x18d3
  === BLOCK LINK ===
    0x18ca
=== CODE BLOCK END ===

=== CODE BLOCK ADDRESS 0x18ca ===
  0x18ca	mov    	ecx, eax
  0x18cc	call   	dword ptr [0x196e]
  === BLOCK LINK ===
    0x18d2
=== CODE BLOCK END ===

=== CODE BLOCK ADDRESS 0x18d2 ===
  0x18d2	int3   	
  0x18d3	cmp    	dword ptr [0x37aa], 0
  0x18da	jne    	0x18e8
  === BLOCK LINK ===
    0x18dc
=== CODE BLOCK END ===

=== CODE BLOCK ADDRESS 0x18dc ===
  0x18dc	call   	dword ptr [0x1996]
  === BLOCK LINK ===
    0x18e2
=== CODE BLOCK END ===

=== CODE BLOCK ADDRESS 0x18e2 ===
  0x18e2	mov    	eax, dword ptr [0x3798]
  0x18e8	dec    	eax
  0x18e9	mov    	ebx, dword ptr [esp + 0x40]
  0x18ed	dec    	eax
  0x18ee	mov    	esi, dword ptr [esp + 0x48]
  === BLOCK LINK ===
    0x18f2
=== CODE BLOCK END ===

=== CODE BLOCK ADDRESS 0x18f2 ===
  0x18f2	dec    	eax
  0x18f3	mov    	edi, dword ptr [esp + 0x50]
  0x18f7	dec    	eax
  0x18f8	add    	esp, 0x30
  0x18fb	inc    	ecx
  === BLOCK LINK ===
    0x18fc
=== CODE BLOCK END ===

=== CODE BLOCK ADDRESS 0x18fc ===
  0x18fc	pop    	edi
  0x18fd	ret    	
  0x18fe	int3   	
  0x18ff	int3   	
  0x1900	int3   	
  === BLOCK LINK ===
    0x1901
=== CODE BLOCK END ===

=== CODE BLOCK ADDRESS 0x119c ===
  0x119c	dec    	eax
  0x119d	mov    	eax, ebx
  0x119f	dec    	eax
  0x11a0	add    	esp, 0x20
  === BLOCK LINK ===
    0x11a3
=== CODE BLOCK END ===

=== CODE BLOCK ADDRESS 0x1901 ===
  0x1901	int3   	
  0x1902	int3   	
  0x1903	int3   	
  0x1904	int3   	
  0x1905	int3   	
  === BLOCK LINK ===
    0x1906
=== CODE BLOCK END ===

=== CODE BLOCK ADDRESS 0x1906 ===
  0x1906	int3   	
  0x1907	int3   	
  0x1908	int3   	
  0x1909	int3   	
  0x190a	int3   	
  === BLOCK LINK ===
    0x190b
=== CODE BLOCK END ===

=== CODE BLOCK ADDRESS 0x190b ===
  0x190b	int3   	
  0x190c	int3   	
  0x190d	int3   	
  0x190e	int3   	
  0x190f	int3   	
  === BLOCK LINK ===
    0x1910
=== CODE BLOCK END ===

=== CODE BLOCK ADDRESS 0x1910 ===
  0x1910	dec    	eax
  0x1911	sub    	esp, 0x28
  0x1914	call   	0x1b84
  === BLOCK LINK ===
    0x1919
=== CODE BLOCK END ===

=== CODE BLOCK ADDRESS 0x1919 ===
  0x1919	dec    	eax
  0x191a	add    	esp, 0x28
  0x191d	jmp    	0x1740
  === BLOCK LINK ===
    0x1922
=== CODE BLOCK END ===

=== CODE BLOCK ADDRESS 0x1922 ===
  0x1922	int3   	
  0x1923	int3   	
  0x1924	int3   	
  0x1925	int3   	
  0x1926	int3   	
  === BLOCK LINK ===
    0x1927
=== CODE BLOCK END ===

=== CODE BLOCK ADDRESS 0x1927 ===
  0x1927	int3   	
  0x1928	int3   	
  0x1929	int3   	
  0x192a	int3   	
  0x192b	int3   	
  === BLOCK LINK ===
    0x192c
=== CODE BLOCK END ===

=== CODE BLOCK ADDRESS 0x192c ===
  0x192c	int3   	
  0x192d	int3   	
  0x192e	int3   	
  0x192f	int3   	
  0x1930	int3   	
  === BLOCK LINK ===
    0x1931
=== CODE BLOCK END ===

=== CODE BLOCK ADDRESS 0x1931 ===
  0x1931	int3   	
  0x1932	int3   	
  0x1933	int3   	
  0x1934	int3   	
  0x1935	int3   	
  === BLOCK LINK ===
    0x1936
=== CODE BLOCK END ===

=== CODE BLOCK ADDRESS 0x1936 ===
  0x1936	nop    	word ptr [eax + eax]
  0x1940	dec    	eax
  0x1941	cmp    	ecx, dword ptr [0x3711]
  0x1947	jne    	0x1959
  === BLOCK LINK ===
    0x1949
=== CODE BLOCK END ===

=== CODE BLOCK ADDRESS 0x1949 ===
  0x1949	dec    	eax
  0x194a	rol    	ecx, 0x10
  0x194d	test   	cx, 0xffff
  0x1952	jne    	0x1955
  === BLOCK LINK ===
    0x1954
=== CODE BLOCK END ===

=== CODE BLOCK ADDRESS 0x1954 ===
  0x1954	ret    	
  0x1955	dec    	eax
  0x1956	ror    	ecx, 0x10
  0x1959	jmp    	0x1d80
  === BLOCK LINK ===
    0x195e
=== CODE BLOCK END ===

=== CODE BLOCK ADDRESS 0x1320 ===
  0x1320	dec    	eax
  0x1321	sub    	esp, 0x28
  0x1324	xor    	eax, eax
  0x1326	dec    	eax
  === BLOCK LINK ===
    0x1327
=== CODE BLOCK END ===

=== CODE BLOCK ADDRESS 0x195e ===
  0x195e	int3   	
  0x195f	int3   	
  0x1960	int3   	
  0x1961	int3   	
  0x1962	int3   	
  === BLOCK LINK ===
    0x1963
=== CODE BLOCK END ===

=== CODE BLOCK ADDRESS 0x1963 ===
  0x1963	int3   	
  0x1964	int3   	
  0x1965	int3   	
  0x1966	int3   	
  0x1967	int3   	
  === BLOCK LINK ===
    0x1968
=== CODE BLOCK END ===

=== CODE BLOCK ADDRESS 0x1968 ===
  0x1968	int3   	
  0x1969	int3   	
  0x196a	int3   	
  0x196b	int3   	
  0x196c	int3   	
  === BLOCK LINK ===
    0x196d
=== CODE BLOCK END ===

=== CODE BLOCK ADDRESS 0x196d ===
  0x196d	int3   	
  0x196e	int3   	
  0x196f	int3   	
  0x1970	dec    	eax
  0x1971	sub    	esp, 0x28
  === BLOCK LINK ===
    0x1974
=== CODE BLOCK END ===

=== CODE BLOCK ADDRESS 0x1974 ===
  0x1974	dec    	eax
  0x1975	mov    	eax, dword ptr [ecx]
  0x1977	cmp    	dword ptr [eax], 0xe06d7363
  0x197d	jne    	0x19a2
  === BLOCK LINK ===
    0x197f
=== CODE BLOCK END ===

=== CODE BLOCK ADDRESS 0x197f ===
  0x197f	cmp    	dword ptr [eax + 0x18], 4
  0x1983	jne    	0x19a2
  === BLOCK LINK ===
    0x1985
=== CODE BLOCK END ===

=== CODE BLOCK ADDRESS 0x1985 ===
  0x1985	mov    	ecx, dword ptr [eax + 0x20]
  0x1988	lea    	eax, [ecx - 0x19930520]
  0x198e	cmp    	eax, 2
  0x1991	jbe    	0x199b
  === BLOCK LINK ===
    0x1993
=== CODE BLOCK END ===

=== CODE BLOCK ADDRESS 0x1993 ===
  0x1993	cmp    	ecx, 0x1994000
  0x1999	jne    	0x19a2
  === BLOCK LINK ===
    0x199b
=== CODE BLOCK END ===

=== CODE BLOCK ADDRESS 0x199b ===
  0x199b	call   	dword ptr [0x18ef]
  === BLOCK LINK ===
    0x19a1
=== CODE BLOCK END ===

=== CODE BLOCK ADDRESS 0x19a1 ===
  0x19a1	int3   	
  0x19a2	xor    	eax, eax
  0x19a4	dec    	eax
  0x19a5	add    	esp, 0x28
  0x19a8	ret    	
  === BLOCK LINK ===
    0x19a9
=== CODE BLOCK END ===

=== CODE BLOCK ADDRESS 0x19a9 ===
  0x19a9	int3   	
  0x19aa	int3   	
  0x19ab	int3   	
  0x19ac	int3   	
  0x19ad	int3   	
  === BLOCK LINK ===
    0x19ae
=== CODE BLOCK END ===

=== CODE BLOCK ADDRESS 0x19ae ===
  0x19ae	int3   	
  0x19af	int3   	
  0x19b0	dec    	eax
  0x19b1	sub    	esp, 0x28
  0x19b4	dec    	eax
  === BLOCK LINK ===
    0x19b5
=== CODE BLOCK END ===

=== CODE BLOCK ADDRESS 0x19b5 ===
  0x19b5	lea    	ecx, [0xffffffb5]
  0x19bb	call   	dword ptr [0x176f]
  === BLOCK LINK ===
    0x19c1
=== CODE BLOCK END ===

=== CODE BLOCK ADDRESS 0x19c1 ===
  0x19c1	xor    	eax, eax
  0x19c3	dec    	eax
  0x19c4	add    	esp, 0x28
  0x19c7	ret    	
  0x19c8	int3   	
  === BLOCK LINK ===
    0x19c9
=== CODE BLOCK END ===

=== CODE BLOCK ADDRESS 0x19c9 ===
  0x19c9	int3   	
  0x19ca	int3   	
  0x19cb	int3   	
  0x19cc	int3   	
  0x19cd	int3   	
  === BLOCK LINK ===
    0x19ce
=== CODE BLOCK END ===

=== CODE BLOCK ADDRESS 0x19ce ===
  0x19ce	jmp    	dword ptr [0x1864]
  === BLOCK LINK ===
    0x19d4
=== CODE BLOCK END ===

=== CODE BLOCK ADDRESS 0x19d4 ===
  0x19d4	int3   	
  0x19d5	int3   	
  0x19d6	int3   	
  0x19d7	int3   	
  0x19d8	int3   	
  === BLOCK LINK ===
    0x19d9
=== CODE BLOCK END ===

=== CODE BLOCK ADDRESS 0x19d9 ===
  0x19d9	int3   	
  0x19da	int3   	
  0x19db	int3   	
  0x19dc	dec    	eax
  0x19dd	sub    	esp, 0x18
  === BLOCK LINK ===
    0x19e0
=== CODE BLOCK END ===

=== CODE BLOCK ADDRESS 0x19e0 ===
  0x19e0	xor    	edx, edx
  0x19e2	dec    	eax
  0x19e3	lea    	eax, [ecx - 1]
  0x19e6	dec    	eax
  0x19e7	cmp    	eax, -3
  === BLOCK LINK ===
    0x19ea
=== CODE BLOCK END ===

=== CODE BLOCK ADDRESS 0x19ea ===
  0x19ea	ja     	0x1a28
  === BLOCK LINK ===
    0x19ec
=== CODE BLOCK END ===

=== CODE BLOCK ADDRESS 0x19ec ===
  0x19ec	mov    	eax, 0x5a4d
  0x19f1	cmp    	word ptr [ecx], ax
  0x19f4	jne    	0x1a20
  === BLOCK LINK ===
    0x19f6
=== CODE BLOCK END ===

=== CODE BLOCK ADDRESS 0x19f6 ===
  0x19f6	cmp    	dword ptr [ecx + 0x3c], edx
  0x19f9	jl     	0x1a20
  === BLOCK LINK ===
    0x19fb
=== CODE BLOCK END ===

=== CODE BLOCK ADDRESS 0x19fb ===
  0x19fb	cmp    	dword ptr [ecx + 0x3c], 0x10000000
  0x1a02	jae    	0x1a20
  === BLOCK LINK ===
    0x1a04
=== CODE BLOCK END ===

=== CODE BLOCK ADDRESS 0x1a04 ===
  0x1a04	dec    	eax
  0x1a05	arpl   	word ptr [ecx + 0x3c], ax
  0x1a08	dec    	eax
  0x1a09	add    	eax, ecx
  0x1a0b	dec    	eax
  === BLOCK LINK ===
    0x1a0c
=== CODE BLOCK END ===

=== CODE BLOCK ADDRESS 0x1a0c ===
  0x1a0c	mov    	dword ptr [esp], eax
  0x1a0f	cmp    	dword ptr [eax], 0x4550
  0x1a15	dec    	eax
  0x1a16	cmovne  	eax, edx
  0x1a19	dec    	eax
  === BLOCK LINK ===
    0x1a1a
=== CODE BLOCK END ===

=== CODE BLOCK ADDRESS 0x1a1a ===
  0x1a1a	mov    	edx, eax
  0x1a1c	dec    	eax
  0x1a1d	mov    	dword ptr [esp], eax
  0x1a20	jmp    	0x1a28
  === BLOCK LINK ===
    0x1a22
=== CODE BLOCK END ===

=== CODE BLOCK ADDRESS 0x1a22 ===
  0x1a22	xor    	edx, edx
  0x1a24	dec    	eax
  0x1a25	mov    	dword ptr [esp], edx
  0x1a28	dec    	eax
  0x1a29	mov    	eax, edx
  === BLOCK LINK ===
    0x1a2b
=== CODE BLOCK END ===

=== CODE BLOCK ADDRESS 0x1a2b ===
  0x1a2b	dec    	eax
  0x1a2c	add    	esp, 0x18
  0x1a2f	ret    	
  0x1a30	int3   	
  0x1a31	int3   	
  === BLOCK LINK ===
    0x1a32
=== CODE BLOCK END ===

=== CODE BLOCK ADDRESS 0x1a32 ===
  0x1a32	int3   	
  0x1a33	int3   	
  0x1a34	int3   	
  0x1a35	int3   	
  0x1a36	int3   	
  === BLOCK LINK ===
    0x1a37
=== CODE BLOCK END ===

=== CODE BLOCK ADDRESS 0x1a37 ===
  0x1a37	int3   	
  0x1a38	inc    	eax
  0x1a39	push   	ebx
  0x1a3a	dec    	eax
  0x1a3b	sub    	esp, 0x20
  === BLOCK LINK ===
    0x1a3e
=== CODE BLOCK END ===

=== CODE BLOCK ADDRESS 0x1a3e ===
  0x1a3e	mov    	ebx, ecx
  0x1a40	xor    	ecx, ecx
  0x1a42	call   	dword ptr [0x1710]
  === BLOCK LINK ===
    0x1a48
=== CODE BLOCK END ===

=== CODE BLOCK ADDRESS 0x1a48 ===
  0x1a48	dec    	eax
  0x1a49	test   	eax, eax
  0x1a4b	je     	0x1a75
  === BLOCK LINK ===
    0x1a4d
=== CODE BLOCK END ===

=== CODE BLOCK ADDRESS 0x1a4d ===
  0x1a4d	dec    	eax
  0x1a4e	mov    	ecx, eax
  0x1a50	call   	0x19dc
  === BLOCK LINK ===
    0x1a55
=== CODE BLOCK END ===

=== CODE BLOCK ADDRESS 0x1a55 ===
  0x1a55	dec    	eax
  0x1a56	test   	eax, eax
  0x1a58	je     	0x1a75
  === BLOCK LINK ===
    0x1a5a
=== CODE BLOCK END ===

=== CODE BLOCK ADDRESS 0x1a5a ===
  0x1a5a	mov    	ecx, 2
  0x1a5f	cmp    	word ptr [eax + 0x5c], cx
  0x1a63	jne    	0x1a69
  === BLOCK LINK ===
    0x1a65
=== CODE BLOCK END ===

=== CODE BLOCK ADDRESS 0x1a65 ===
  0x1a65	mov    	eax, ecx
  0x1a67	jmp    	0x1a77
  === BLOCK LINK ===
    0x1a69
=== CODE BLOCK END ===

=== CODE BLOCK ADDRESS 0x1a69 ===
  0x1a69	cmp    	word ptr [eax + 0x5c], 3
  0x1a6e	mov    	eax, 1
  0x1a73	je     	0x1a77
  === BLOCK LINK ===
    0x1a75
=== CODE BLOCK END ===

=== CODE BLOCK ADDRESS 0x1a75 ===
  0x1a75	mov    	eax, ebx
  0x1a77	dec    	eax
  0x1a78	add    	esp, 0x20
  0x1a7b	pop    	ebx
  0x1a7c	ret    	
  === BLOCK LINK ===
    0x1a7d
=== CODE BLOCK END ===

=== CODE BLOCK ADDRESS 0x1a7d ===
  0x1a7d	int3   	
  0x1a7e	int3   	
  0x1a7f	int3   	
  0x1a80	int3   	
  0x1a81	int3   	
  === BLOCK LINK ===
    0x1a82
=== CODE BLOCK END ===

=== CODE BLOCK ADDRESS 0x1a82 ===
  0x1a82	int3   	
  0x1a83	jmp    	dword ptr [0x181f]
  === BLOCK LINK ===
    0x1a89
=== CODE BLOCK END ===

=== CODE BLOCK ADDRESS 0x1a89 ===
  0x1a89	int3   	
  0x1a8a	int3   	
  0x1a8b	int3   	
  0x1a8c	int3   	
  0x1a8d	int3   	
  === BLOCK LINK ===
    0x1a8e
=== CODE BLOCK END ===

=== CODE BLOCK ADDRESS 0x1a8e ===
  0x1a8e	int3   	
  0x1a8f	int3   	
  0x1a90	xor    	eax, eax
  0x1a92	ret    	
  0x1a93	int3   	
  === BLOCK LINK ===
    0x1a94
=== CODE BLOCK END ===

=== CODE BLOCK ADDRESS 0x1a94 ===
  0x1a94	int3   	
  0x1a95	int3   	
  0x1a96	int3   	
  0x1a97	int3   	
  0x1a98	int3   	
  === BLOCK LINK ===
    0x1a99
=== CODE BLOCK END ===

=== CODE BLOCK ADDRESS 0x1a99 ===
  0x1a99	int3   	
  0x1a9a	int3   	
  0x1a9b	int3   	
  0x1a9c	int3   	
  0x1a9d	int3   	
  === BLOCK LINK ===
    0x1a9e
=== CODE BLOCK END ===

=== CODE BLOCK ADDRESS 0x1a9e ===
  0x1a9e	int3   	
  0x1a9f	int3   	
  0x1aa0	dec    	esp
  0x1aa1	arpl   	word ptr [ecx + 0x3c], ax
  0x1aa4	inc    	ebp
  === BLOCK LINK ===
    0x1aa5
=== CODE BLOCK END ===

=== CODE BLOCK ADDRESS 0x1aa5 ===
  0x1aa5	xor    	ecx, ecx
  0x1aa7	dec    	esp
  0x1aa8	add    	eax, ecx
  0x1aaa	dec    	esp
  0x1aab	mov    	edx, edx
  === BLOCK LINK ===
    0x1aad
=== CODE BLOCK END ===

=== CODE BLOCK ADDRESS 0x1aad ===
  0x1aad	inc    	ecx
  0x1aae	movzx  	eax, word ptr [eax + 0x14]
  0x1ab2	inc    	ebp
  0x1ab3	movzx  	ebx, word ptr [eax + 6]
  0x1ab7	dec    	eax
  === BLOCK LINK ===
    0x1ab8
=== CODE BLOCK END ===

=== CODE BLOCK ADDRESS 0x1ab8 ===
  0x1ab8	add    	eax, 0x18
  0x1abb	dec    	ecx
  0x1abc	add    	eax, eax
  0x1abe	inc    	ebp
  0x1abf	test   	ebx, ebx
  === BLOCK LINK ===
    0x1ac1
=== CODE BLOCK END ===

=== CODE BLOCK ADDRESS 0x1ac1 ===
  0x1ac1	je     	0x1ae1
  === BLOCK LINK ===
    0x1ac3
=== CODE BLOCK END ===

=== CODE BLOCK ADDRESS 0x1ac3 ===
  0x1ac3	mov    	edx, dword ptr [eax + 0xc]
  0x1ac6	dec    	esp
  0x1ac7	cmp    	edx, edx
  0x1ac9	jb     	0x1ad5
  === BLOCK LINK ===
    0x1acb
=== CODE BLOCK END ===

=== CODE BLOCK ADDRESS 0x1acb ===
  0x1acb	mov    	ecx, dword ptr [eax + 8]
  0x1ace	add    	ecx, edx
  0x1ad0	dec    	esp
  0x1ad1	cmp    	edx, ecx
  0x1ad3	jb     	0x1ae3
  === BLOCK LINK ===
    0x1ad5
=== CODE BLOCK END ===

=== CODE BLOCK ADDRESS 0x1ad5 ===
  0x1ad5	inc    	ecx
  0x1ad6	inc    	ecx
  0x1ad8	dec    	eax
  0x1ad9	add    	eax, 0x28
  0x1adc	inc    	ebp
  === BLOCK LINK ===
    0x1add
=== CODE BLOCK END ===

=== CODE BLOCK ADDRESS 0x1add ===
  0x1add	cmp    	ecx, ebx
  0x1adf	jb     	0x1ac3
  === BLOCK LINK ===
    0x1ae1
=== CODE BLOCK END ===

=== CODE BLOCK ADDRESS 0x1ae1 ===
  0x1ae1	xor    	eax, eax
  0x1ae3	ret    	
  0x1ae4	int3   	
  0x1ae5	int3   	
  0x1ae6	int3   	
  === BLOCK LINK ===
    0x1ae7
=== CODE BLOCK END ===

=== CODE BLOCK ADDRESS 0x1ae7 ===
  0x1ae7	int3   	
  0x1ae8	int3   	
  0x1ae9	int3   	
  0x1aea	int3   	
  0x1aeb	int3   	
  === BLOCK LINK ===
    0x1aec
=== CODE BLOCK END ===

=== CODE BLOCK ADDRESS 0x1aec ===
  0x1aec	int3   	
  0x1aed	int3   	
  0x1aee	int3   	
  0x1aef	int3   	
  0x1af0	dec    	eax
  === BLOCK LINK ===
    0x1af1
=== CODE BLOCK END ===

=== CODE BLOCK ADDRESS 0x1af1 ===
  0x1af1	mov    	dword ptr [esp + 8], ebx
  0x1af5	push   	edi
  0x1af6	dec    	eax
  0x1af7	sub    	esp, 0x20
  0x1afa	dec    	eax
  === BLOCK LINK ===
    0x1afb
=== CODE BLOCK END ===

=== CODE BLOCK ADDRESS 0x1afb ===
  0x1afb	mov    	ebx, ecx
  0x1afd	dec    	eax
  0x1afe	lea    	edi, [0xffffe4fc]
  0x1b04	dec    	eax
  0x1b05	mov    	ecx, edi
  === BLOCK LINK ===
    0x1b07
=== CODE BLOCK END ===

=== CODE BLOCK ADDRESS 0x1b07 ===
  0x1b07	call   	0x1b50
  === BLOCK LINK ===
    0x1b0c
=== CODE BLOCK END ===

=== CODE BLOCK ADDRESS 0x1b0c ===
  0x1b0c	test   	eax, eax
  0x1b0e	je     	0x1b32
  === BLOCK LINK ===
    0x1b10
=== CODE BLOCK END ===

=== CODE BLOCK ADDRESS 0x1b10 ===
  0x1b10	dec    	eax
  0x1b11	sub    	ebx, edi
  0x1b13	dec    	eax
  0x1b14	mov    	edx, ebx
  0x1b16	dec    	eax
  === BLOCK LINK ===
    0x1b17
=== CODE BLOCK END ===

=== CODE BLOCK ADDRESS 0x1b17 ===
  0x1b17	mov    	ecx, edi
  0x1b19	call   	0x1aa0
  === BLOCK LINK ===
    0x1b1e
=== CODE BLOCK END ===

=== CODE BLOCK ADDRESS 0x1b1e ===
  0x1b1e	dec    	eax
  0x1b1f	test   	eax, eax
  0x1b21	je     	0x1b32
  === BLOCK LINK ===
    0x1b23
=== CODE BLOCK END ===

=== CODE BLOCK ADDRESS 0x1b23 ===
  0x1b23	mov    	eax, dword ptr [eax + 0x24]
  0x1b26	shr    	eax, 0x1f
  0x1b29	not    	eax
  0x1b2b	and    	eax, 1
  0x1b2e	jmp    	0x1b32
  === BLOCK LINK ===
    0x1b30
=== CODE BLOCK END ===

=== CODE BLOCK ADDRESS 0x1b30 ===
  0x1b30	xor    	eax, eax
  0x1b32	dec    	eax
  0x1b33	mov    	ebx, dword ptr [esp + 0x30]
  0x1b37	dec    	eax
  0x1b38	add    	esp, 0x20
  === BLOCK LINK ===
    0x1b3b
=== CODE BLOCK END ===

=== CODE BLOCK ADDRESS 0x1b3b ===
  0x1b3b	pop    	edi
  0x1b3c	ret    	
  0x1b3d	int3   	
  0x1b3e	int3   	
  0x1b3f	int3   	
  === BLOCK LINK ===
    0x1b40
=== CODE BLOCK END ===

=== CODE BLOCK ADDRESS 0x1b40 ===
  0x1b40	int3   	
  0x1b41	int3   	
  0x1b42	int3   	
  0x1b43	int3   	
  0x1b44	int3   	
  === BLOCK LINK ===
    0x1b45
=== CODE BLOCK END ===

=== CODE BLOCK ADDRESS 0x1b45 ===
  0x1b45	int3   	
  0x1b46	int3   	
  0x1b47	int3   	
  0x1b48	int3   	
  0x1b49	int3   	
  === BLOCK LINK ===
    0x1b4a
=== CODE BLOCK END ===

=== CODE BLOCK ADDRESS 0x1b4a ===
  0x1b4a	int3   	
  0x1b4b	int3   	
  0x1b4c	int3   	
  0x1b4d	int3   	
  0x1b4e	int3   	
  === BLOCK LINK ===
    0x1b4f
=== CODE BLOCK END ===

=== CODE BLOCK ADDRESS 0x1b4f ===
  0x1b4f	int3   	
  0x1b50	mov    	eax, 0x5a4d
  0x1b55	cmp    	word ptr [ecx], ax
  0x1b58	jne    	0x1b7a
  === BLOCK LINK ===
    0x1b5a
=== CODE BLOCK END ===

=== CODE BLOCK ADDRESS 0x1b5a ===
  0x1b5a	dec    	eax
  0x1b5b	arpl   	word ptr [ecx + 0x3c], ax
  0x1b5e	dec    	eax
  0x1b5f	add    	eax, ecx
  0x1b61	cmp    	dword ptr [eax], 0x4550
  === BLOCK LINK ===
    0x1b67
=== CODE BLOCK END ===

=== CODE BLOCK ADDRESS 0x1b67 ===
  0x1b67	jne    	0x1b7a
  === BLOCK LINK ===
    0x1b69
=== CODE BLOCK END ===

=== CODE BLOCK ADDRESS 0x1b69 ===
  0x1b69	mov    	ecx, 0x20b
  0x1b6e	cmp    	word ptr [eax + 0x18], cx
  0x1b72	jne    	0x1b7a
  === BLOCK LINK ===
    0x1b74
=== CODE BLOCK END ===

=== CODE BLOCK ADDRESS 0x1b74 ===
  0x1b74	mov    	eax, 1
  0x1b79	ret    	
  0x1b7a	xor    	eax, eax
  0x1b7c	ret    	
  0x1b7d	int3   	
  === BLOCK LINK ===
    0x1b7e
=== CODE BLOCK END ===

=== CODE BLOCK ADDRESS 0x1b7e ===
  0x1b7e	int3   	
  0x1b7f	int3   	
  0x1b80	int3   	
  0x1b81	int3   	
  0x1b82	int3   	
  === BLOCK LINK ===
    0x1b83
=== CODE BLOCK END ===

=== CODE BLOCK ADDRESS 0x1b83 ===
  0x1b83	int3   	
  0x1b84	dec    	eax
  0x1b85	mov    	dword ptr [esp + 0x20], ebx
  0x1b89	push   	ebp
  0x1b8a	dec    	eax
  === BLOCK LINK ===
    0x1b8b
=== CODE BLOCK END ===

=== CODE BLOCK ADDRESS 0x1b8b ===
  0x1b8b	mov    	ebp, esp
  0x1b8d	dec    	eax
  0x1b8e	sub    	esp, 0x20
  0x1b91	dec    	eax
  0x1b92	and    	dword ptr [ebp + 0x18], 0
  === BLOCK LINK ===
    0x1b96
=== CODE BLOCK END ===

=== CODE BLOCK ADDRESS 0x1b96 ===
  0x1b96	dec    	eax
  0x1b97	mov    	ebx, 0x2ddfa232
  0x1b9c	cdq    	
  0x1b9d	sub    	eax, dword ptr [eax]
  0x1b9f	add    	byte ptr [eax - 0x75], cl
  === BLOCK LINK ===
    0x1ba2
=== CODE BLOCK END ===

=== CODE BLOCK ADDRESS 0x1ba2 ===
  0x1ba2	add    	eax, 0x34b1
  0x1ba7	dec    	eax
  0x1ba8	cmp    	eax, ebx
  0x1baa	jne    	0x1c43
  === BLOCK LINK ===
    0x1bb0
=== CODE BLOCK END ===

=== CODE BLOCK ADDRESS 0x1bb0 ===
  0x1bb0	dec    	eax
  0x1bb1	lea    	ecx, [ebp + 0x18]
  0x1bb4	call   	dword ptr [0x163e]
  === BLOCK LINK ===
    0x1bba
=== CODE BLOCK END ===

=== CODE BLOCK ADDRESS 0x1bba ===
  0x1bba	dec    	eax
  0x1bbb	mov    	eax, dword ptr [ebp + 0x18]
  0x1bbe	dec    	eax
  0x1bbf	mov    	dword ptr [ebp + 0x10], eax
  0x1bc2	call   	dword ptr [0x15b0]
  === BLOCK LINK ===
    0x1bc8
=== CODE BLOCK END ===

=== CODE BLOCK ADDRESS 0x1bc8 ===
  0x1bc8	mov    	eax, eax
  0x1bca	dec    	eax
  0x1bcb	xor    	dword ptr [ebp + 0x10], eax
  0x1bce	call   	dword ptr [0x15ac]
  === BLOCK LINK ===
    0x1bd4
=== CODE BLOCK END ===

=== CODE BLOCK ADDRESS 0x1bd4 ===
  0x1bd4	mov    	eax, eax
  0x1bd6	dec    	eax
  0x1bd7	xor    	dword ptr [ebp + 0x10], eax
  0x1bda	call   	dword ptr [0x1610]
  === BLOCK LINK ===
    0x1be0
=== CODE BLOCK END ===

=== CODE BLOCK ADDRESS 0x1be0 ===
  0x1be0	mov    	eax, eax
  0x1be2	dec    	eax
  0x1be3	shl    	eax, 0x18
  0x1be6	dec    	eax
  0x1be7	xor    	dword ptr [ebp + 0x10], eax
  === BLOCK LINK ===
    0x1bea
=== CODE BLOCK END ===

=== CODE BLOCK ADDRESS 0x1bea ===
  0x1bea	call   	dword ptr [0x1600]
  === BLOCK LINK ===
    0x1bf0
=== CODE BLOCK END ===

=== CODE BLOCK ADDRESS 0x1bf0 ===
  0x1bf0	mov    	eax, eax
  0x1bf2	dec    	eax
  0x1bf3	lea    	ecx, [ebp + 0x10]
  0x1bf6	dec    	eax
  0x1bf7	xor    	eax, dword ptr [ebp + 0x10]
  === BLOCK LINK ===
    0x1bfa
=== CODE BLOCK END ===

=== CODE BLOCK ADDRESS 0x1bfa ===
  0x1bfa	dec    	eax
  0x1bfb	xor    	eax, ecx
  0x1bfd	dec    	eax
  0x1bfe	lea    	ecx, [ebp + 0x20]
  0x1c01	dec    	eax
  === BLOCK LINK ===
    0x1c02
=== CODE BLOCK END ===

=== CODE BLOCK ADDRESS 0x1c02 ===
  0x1c02	mov    	dword ptr [ebp + 0x10], eax
  0x1c05	call   	dword ptr [0x1585]
  === BLOCK LINK ===
    0x1c0b
=== CODE BLOCK END ===

=== CODE BLOCK ADDRESS 0x1c0b ===
  0x1c0b	mov    	eax, dword ptr [ebp + 0x20]
  0x1c0e	dec    	eax
  0x1c0f	mov    	ecx, 0xffffffff
  0x1c14	.byte  	0xff
  0x1c15	inc    	dword ptr [eax]
  === BLOCK LINK ===
    0x1c17
=== CODE BLOCK END ===

=== CODE BLOCK ADDRESS 0x1c17 ===
  0x1c17	add    	byte ptr [eax - 0x3f], cl
  0x1c1a	loopne  	0x1c3c
  === BLOCK LINK ===
    0x1c1c
=== CODE BLOCK END ===

=== CODE BLOCK ADDRESS 0x1c1c ===
  0x1c1c	dec    	eax
  0x1c1d	xor    	eax, dword ptr [ebp + 0x20]
  0x1c20	dec    	eax
  0x1c21	xor    	eax, dword ptr [ebp + 0x10]
  0x1c24	dec    	eax
  === BLOCK LINK ===
    0x1c25
=== CODE BLOCK END ===

=== CODE BLOCK ADDRESS 0x1c25 ===
  0x1c25	and    	eax, ecx
  0x1c27	dec    	eax
  0x1c28	mov    	ecx, eax
  0x1c2a	dec    	eax
  0x1c2b	cmp    	eax, ebx
  === BLOCK LINK ===
    0x1c2d
=== CODE BLOCK END ===

=== CODE BLOCK ADDRESS 0x1c2d ===
  0x1c2d	jne    	0x1c3c
  === BLOCK LINK ===
    0x1c2f
=== CODE BLOCK END ===

=== CODE BLOCK ADDRESS 0x1c2f ===
  0x1c2f	dec    	eax
  0x1c30	mov    	eax, 0x2ddfa233
  0x1c35	cdq    	
  0x1c36	sub    	eax, dword ptr [eax]
  0x1c38	add    	byte ptr [eax - 0x75], cl
  === BLOCK LINK ===
    0x1c3b
=== CODE BLOCK END ===

=== CODE BLOCK ADDRESS 0x1c3b ===
  0x1c3b	enter  	-0x76b8, 0xd
  0x1c3f	adc    	eax, 0x48000034
  0x1c44	mov    	ebx, dword ptr [esp + 0x48]
  0x1c48	dec    	eax
  0x1c49	not    	eax
  === BLOCK LINK ===
    0x1c4b
=== CODE BLOCK END ===

=== CODE BLOCK ADDRESS 0x1c4b ===
  0x1c4b	dec    	eax
  0x1c4c	mov    	dword ptr [0x340e], eax
  0x1c52	dec    	eax
  0x1c53	add    	esp, 0x20
  0x1c56	pop    	ebp
  === BLOCK LINK ===
    0x1c57
=== CODE BLOCK END ===

=== CODE BLOCK ADDRESS 0x1c57 ===
  0x1c57	ret    	
  0x1c58	int3   	
  0x1c59	int3   	
  0x1c5a	int3   	
  0x1c5b	int3   	
  === BLOCK LINK ===
    0x1c5c
=== CODE BLOCK END ===

=== CODE BLOCK ADDRESS 0x1237 ===
  0x1237	dec    	ecx
  0x1238	mov    	eax, dword ptr [edx + 0x30]
  0x123b	inc    	ecx
  === BLOCK LINK ===
    0x123c
=== CODE BLOCK END ===

=== CODE BLOCK ADDRESS 0x1c5c ===
  0x1c5c	int3   	
  0x1c5d	int3   	
  0x1c5e	jmp    	dword ptr [0x15f4]
  === BLOCK LINK ===
    0x1c64
=== CODE BLOCK END ===

=== CODE BLOCK ADDRESS 0x1c64 ===
  0x1c64	int3   	
  0x1c65	int3   	
  0x1c66	int3   	
  0x1c67	int3   	
  0x1c68	int3   	
  === BLOCK LINK ===
    0x1c69
=== CODE BLOCK END ===

=== CODE BLOCK ADDRESS 0x1c69 ===
  0x1c69	int3   	
  0x1c6a	jmp    	dword ptr [0x1610]
  === BLOCK LINK ===
    0x1c70
=== CODE BLOCK END ===

=== CODE BLOCK ADDRESS 0x1c70 ===
  0x1c70	int3   	
  0x1c71	int3   	
  0x1c72	int3   	
  0x1c73	int3   	
  0x1c74	int3   	
  === BLOCK LINK ===
    0x1c75
=== CODE BLOCK END ===

=== CODE BLOCK ADDRESS 0x1c75 ===
  0x1c75	int3   	
  0x1c76	int3   	
  0x1c77	int3   	
  0x1c78	inc    	eax
  0x1c79	push   	ebx
  === BLOCK LINK ===
    0x1c7a
=== CODE BLOCK END ===

=== CODE BLOCK ADDRESS 0x1c7a ===
  0x1c7a	dec    	eax
  0x1c7b	sub    	esp, 0x20
  0x1c7e	dec    	eax
  0x1c7f	mov    	ebx, ecx
  0x1c81	dec    	eax
  === BLOCK LINK ===
    0x1c82
=== CODE BLOCK END ===

=== CODE BLOCK ADDRESS 0x1c82 ===
  0x1c82	mov    	eax, dword ptr [0x39d8]
  0x1c88	dec    	eax
  0x1c89	mov    	dword ptr [esp + 0x38], eax
  0x1c8d	dec    	eax
  0x1c8e	cmp    	eax, -1
  === BLOCK LINK ===
    0x1c91
=== CODE BLOCK END ===

=== CODE BLOCK ADDRESS 0x1c91 ===
  0x1c91	jne    	0x1ca6
  === BLOCK LINK ===
    0x1c93
=== CODE BLOCK END ===

=== CODE BLOCK ADDRESS 0x1c93 ===
  0x1c93	dec    	eax
  0x1c94	mov    	eax, dword ptr [0x1616]
  0x1c9a	call   	dword ptr [0x1640]
  === BLOCK LINK ===
    0x1ca0
=== CODE BLOCK END ===

=== CODE BLOCK ADDRESS 0x1ca0 ===
  0x1ca0	dec    	eax
  0x1ca1	add    	esp, 0x20
  0x1ca4	pop    	ebx
  0x1ca5	ret    	
  0x1ca6	mov    	ecx, 8
  === BLOCK LINK ===
    0x1cab
=== CODE BLOCK END ===

=== CODE BLOCK ADDRESS 0x1cab ===
  0x1cab	call   	0x1ef7
  === BLOCK LINK ===
    0x1cb0
=== CODE BLOCK END ===

=== CODE BLOCK ADDRESS 0x1cb0 ===
  0x1cb0	nop    	
  0x1cb1	dec    	eax
  0x1cb2	mov    	eax, dword ptr [0x39a8]
  0x1cb8	dec    	eax
  0x1cb9	mov    	dword ptr [esp + 0x38], eax
  === BLOCK LINK ===
    0x1cbd
=== CODE BLOCK END ===

=== CODE BLOCK ADDRESS 0x1cbd ===
  0x1cbd	dec    	eax
  0x1cbe	mov    	eax, dword ptr [0x3994]
  0x1cc4	dec    	eax
  0x1cc5	mov    	dword ptr [esp + 0x40], eax
  0x1cc9	dec    	esp
  === BLOCK LINK ===
    0x1cca
=== CODE BLOCK END ===

=== CODE BLOCK ADDRESS 0x1cca ===
  0x1cca	lea    	eax, [esp + 0x40]
  0x1cce	dec    	eax
  0x1ccf	lea    	edx, [esp + 0x38]
  0x1cd3	dec    	eax
  0x1cd4	mov    	ecx, ebx
  === BLOCK LINK ===
    0x1cd6
=== CODE BLOCK END ===

=== CODE BLOCK ADDRESS 0x1cd6 ===
  0x1cd6	call   	0x1f0f
  === BLOCK LINK ===
    0x1cdb
=== CODE BLOCK END ===

=== CODE BLOCK ADDRESS 0x1cdb ===
  0x1cdb	dec    	eax
  0x1cdc	mov    	ebx, eax
  0x1cde	dec    	eax
  0x1cdf	mov    	edx, dword ptr [esp + 0x38]
  0x1ce3	dec    	eax
  === BLOCK LINK ===
    0x1ce4
=== CODE BLOCK END ===

=== CODE BLOCK ADDRESS 0x1ce4 ===
  0x1ce4	mov    	dword ptr [0x3976], edx
  0x1cea	dec    	eax
  0x1ceb	mov    	edx, dword ptr [esp + 0x40]
  0x1cef	dec    	eax
  0x1cf0	mov    	dword ptr [0x3962], edx
  === BLOCK LINK ===
    0x1cf6
=== CODE BLOCK END ===

=== CODE BLOCK ADDRESS 0x1cf6 ===
  0x1cf6	mov    	ecx, 8
  0x1cfb	call   	0x1f03
  === BLOCK LINK ===
    0x1d00
=== CODE BLOCK END ===

=== CODE BLOCK ADDRESS 0x1d00 ===
  0x1d00	dec    	eax
  0x1d01	mov    	eax, ebx
  0x1d03	jmp    	0x1ca0
  === BLOCK LINK ===
    0x1d05
=== CODE BLOCK END ===

=== CODE BLOCK ADDRESS 0x1d05 ===
  0x1d05	int3   	
  0x1d06	int3   	
  0x1d07	int3   	
  0x1d08	int3   	
  0x1d09	int3   	
  === BLOCK LINK ===
    0x1d0a
=== CODE BLOCK END ===

=== CODE BLOCK ADDRESS 0x1d0a ===
  0x1d0a	int3   	
  0x1d0b	int3   	
  0x1d0c	dec    	eax
  0x1d0d	sub    	esp, 0x28
  0x1d10	call   	0x1c78
  === BLOCK LINK ===
    0x1d15
=== CODE BLOCK END ===

=== CODE BLOCK ADDRESS 0x1d15 ===
  0x1d15	dec    	eax
  0x1d16	neg    	eax
  0x1d18	sbb    	eax, eax
  0x1d1a	neg    	eax
  0x1d1c	dec    	eax
  === BLOCK LINK ===
    0x1d1e
=== CODE BLOCK END ===

=== CODE BLOCK ADDRESS 0x1d1e ===
  0x1d1e	dec    	eax
  0x1d1f	add    	esp, 0x28
  0x1d22	ret    	
  0x1d23	int3   	
  0x1d24	int3   	
  === BLOCK LINK ===
    0x1d25
=== CODE BLOCK END ===

=== CODE BLOCK ADDRESS 0x125d ===
  0x125d	mov    	dword ptr [ecx], edx
  0x125f	inc    	ecx
  0x1260	inc    	eax
  === BLOCK LINK ===
    0x1262
=== CODE BLOCK END ===

=== CODE BLOCK ADDRESS 0x1d25 ===
  0x1d25	int3   	
  0x1d26	int3   	
  0x1d27	int3   	
  0x1d28	int3   	
  0x1d29	int3   	
  === BLOCK LINK ===
    0x1d2a
=== CODE BLOCK END ===

=== CODE BLOCK ADDRESS 0x1d2a ===
  0x1d2a	int3   	
  0x1d2b	int3   	
  0x1d2c	int3   	
  0x1d2d	int3   	
  0x1d2e	int3   	
  === BLOCK LINK ===
    0x1d2f
=== CODE BLOCK END ===

=== CODE BLOCK ADDRESS 0x1d2f ===
  0x1d2f	int3   	
  0x1d30	ret    	0
  0x1d33	int3   	
  0x1d34	int3   	
  0x1d35	int3   	
  === BLOCK LINK ===
    0x1d36
=== CODE BLOCK END ===

=== CODE BLOCK ADDRESS 0x1d36 ===
  0x1d36	int3   	
  0x1d37	int3   	
  0x1d38	int3   	
  0x1d39	int3   	
  0x1d3a	int3   	
  === BLOCK LINK ===
    0x1d3b
=== CODE BLOCK END ===

=== CODE BLOCK ADDRESS 0x1d3b ===
  0x1d3b	int3   	
  0x1d3c	inc    	eax
  0x1d3d	push   	ebx
  0x1d3e	dec    	eax
  0x1d3f	sub    	esp, 0x20
  === BLOCK LINK ===
    0x1d42
=== CODE BLOCK END ===

=== CODE BLOCK ADDRESS 0x1d42 ===
  0x1d42	dec    	eax
  0x1d43	mov    	ebx, ecx
  0x1d45	xor    	ecx, ecx
  0x1d47	call   	dword ptr [0x13e3]
  === BLOCK LINK ===
    0x1d4d
=== CODE BLOCK END ===

=== CODE BLOCK ADDRESS 0x1d4d ===
  0x1d4d	dec    	eax
  0x1d4e	mov    	ecx, ebx
  0x1d50	call   	dword ptr [0x13d2]
  === BLOCK LINK ===
    0x1d56
=== CODE BLOCK END ===

=== CODE BLOCK ADDRESS 0x1d56 ===
  0x1d56	call   	dword ptr [0x140c]
  === BLOCK LINK ===
    0x1d5c
=== CODE BLOCK END ===

=== CODE BLOCK ADDRESS 0x1d5c ===
  0x1d5c	dec    	eax
  0x1d5d	mov    	ecx, eax
  0x1d5f	mov    	edx, 0xc0000409
  0x1d64	dec    	eax
  0x1d65	add    	esp, 0x20
  === BLOCK LINK ===
    0x1d68
=== CODE BLOCK END ===

=== CODE BLOCK ADDRESS 0x1d68 ===
  0x1d68	pop    	ebx
  0x1d69	dec    	eax
  0x1d6a	jmp    	dword ptr [0x1400]
  === BLOCK LINK ===
    0x1d70
=== CODE BLOCK END ===

=== CODE BLOCK ADDRESS 0x1d70 ===
  0x1d70	int3   	
  0x1d71	int3   	
  0x1d72	int3   	
  0x1d73	int3   	
  0x1d74	int3   	
  === BLOCK LINK ===
    0x1d75
=== CODE BLOCK END ===

=== CODE BLOCK ADDRESS 0x1d75 ===
  0x1d75	int3   	
  0x1d76	int3   	
  0x1d77	int3   	
  0x1d78	int3   	
  0x1d79	int3   	
  === BLOCK LINK ===
    0x1d7a
=== CODE BLOCK END ===

=== CODE BLOCK ADDRESS 0x1d7a ===
  0x1d7a	int3   	
  0x1d7b	int3   	
  0x1d7c	int3   	
  0x1d7d	int3   	
  0x1d7e	int3   	
  === BLOCK LINK ===
    0x1d7f
=== CODE BLOCK END ===

=== CODE BLOCK ADDRESS 0x1d7f ===
  0x1d7f	int3   	
  0x1d80	dec    	eax
  0x1d81	mov    	dword ptr [esp + 8], ecx
  0x1d85	dec    	eax
  0x1d86	sub    	esp, 0x88
  === BLOCK LINK ===
    0x1d8c
=== CODE BLOCK END ===

=== CODE BLOCK ADDRESS 0x1d8c ===
  0x1d8c	dec    	eax
  0x1d8d	lea    	ecx, [0x33cd]
  0x1d93	call   	dword ptr [0x1407]
  === BLOCK LINK ===
    0x1d99
=== CODE BLOCK END ===

=== CODE BLOCK ADDRESS 0x1d99 ===
  0x1d99	dec    	eax
  0x1d9a	mov    	eax, dword ptr [0x34b8]
  0x1da0	dec    	eax
  0x1da1	mov    	dword ptr [esp + 0x48], eax
  0x1da5	inc    	ebp
  === BLOCK LINK ===
    0x1da6
=== CODE BLOCK END ===

=== CODE BLOCK ADDRESS 0x1da6 ===
  0x1da6	xor    	eax, eax
  0x1da8	dec    	eax
  0x1da9	lea    	edx, [esp + 0x50]
  0x1dad	dec    	eax
  0x1dae	mov    	ecx, dword ptr [esp + 0x48]
  === BLOCK LINK ===
    0x1db2
=== CODE BLOCK END ===

=== CODE BLOCK ADDRESS 0x1db2 ===
  0x1db2	call   	dword ptr [0x13f8]
  === BLOCK LINK ===
    0x1db8
=== CODE BLOCK END ===

=== CODE BLOCK ADDRESS 0x1db8 ===
  0x1db8	dec    	eax
  0x1db9	mov    	dword ptr [esp + 0x40], eax
  0x1dbd	dec    	eax
  0x1dbe	cmp    	dword ptr [esp + 0x40], 0
  0x1dc3	je     	0x1e07
  === BLOCK LINK ===
    0x1dc5
=== CODE BLOCK END ===

=== CODE BLOCK ADDRESS 0x1dc5 ===
  0x1dc5	dec    	eax
  0x1dc6	mov    	dword ptr [esp + 0x38], 0
  0x1dce	dec    	eax
  0x1dcf	lea    	eax, [esp + 0x58]
  0x1dd3	dec    	eax
  === BLOCK LINK ===
    0x1dd4
=== CODE BLOCK END ===

=== CODE BLOCK ADDRESS 0x1dd4 ===
  0x1dd4	mov    	dword ptr [esp + 0x30], eax
  0x1dd8	dec    	eax
  0x1dd9	lea    	eax, [esp + 0x60]
  0x1ddd	dec    	eax
  0x1dde	mov    	dword ptr [esp + 0x28], eax
  === BLOCK LINK ===
    0x1de2
=== CODE BLOCK END ===

=== CODE BLOCK ADDRESS 0x1de2 ===
  0x1de2	dec    	eax
  0x1de3	lea    	eax, [0x3377]
  0x1de9	dec    	eax
  0x1dea	mov    	dword ptr [esp + 0x20], eax
  0x1dee	dec    	esp
  === BLOCK LINK ===
    0x1def
=== CODE BLOCK END ===

=== CODE BLOCK ADDRESS 0x1def ===
  0x1def	mov    	ecx, dword ptr [esp + 0x40]
  0x1df3	dec    	esp
  0x1df4	mov    	eax, dword ptr [esp + 0x48]
  0x1df8	dec    	eax
  0x1df9	mov    	edx, dword ptr [esp + 0x50]
  === BLOCK LINK ===
    0x1dfd
=== CODE BLOCK END ===

=== CODE BLOCK ADDRESS 0x1dfd ===
  0x1dfd	xor    	ecx, ecx
  0x1dff	call   	dword ptr [0x13a3]
  === BLOCK LINK ===
    0x1e05
=== CODE BLOCK END ===

=== CODE BLOCK ADDRESS 0x1e05 ===
  0x1e05	jmp    	0x1e2a
  === BLOCK LINK ===
    0x1e07
=== CODE BLOCK END ===

=== CODE BLOCK ADDRESS 0x1e07 ===
  0x1e07	dec    	eax
  0x1e08	mov    	eax, dword ptr [0x33ea]
  0x1e0e	dec    	eax
  0x1e0f	mov    	eax, dword ptr [eax]
  0x1e11	dec    	eax
  === BLOCK LINK ===
    0x1e12
=== CODE BLOCK END ===

=== CODE BLOCK ADDRESS 0x1e12 ===
  0x1e12	mov    	dword ptr [0x3440], eax
  0x1e18	dec    	eax
  0x1e19	mov    	eax, dword ptr [0x33d9]
  0x1e1f	dec    	eax
  0x1e20	add    	eax, 8
  === BLOCK LINK ===
    0x1e23
=== CODE BLOCK END ===

=== CODE BLOCK ADDRESS 0x1e23 ===
  0x1e23	dec    	eax
  0x1e24	mov    	dword ptr [0x33ce], eax
  0x1e2a	dec    	eax
  0x1e2b	mov    	eax, dword ptr [0x3427]
  0x1e31	dec    	eax
  === BLOCK LINK ===
    0x1e32
=== CODE BLOCK END ===

=== CODE BLOCK ADDRESS 0x1e32 ===
  0x1e32	mov    	dword ptr [0x3298], eax
  0x1e38	dec    	eax
  0x1e39	mov    	eax, dword ptr [esp + 0x90]
  0x1e40	dec    	eax
  0x1e41	mov    	dword ptr [0x3399], eax
  === BLOCK LINK ===
    0x1e47
=== CODE BLOCK END ===

=== CODE BLOCK ADDRESS 0x1e47 ===
  0x1e47	mov    	dword ptr [0x326f], 0xc0000409
  0x1e51	mov    	dword ptr [0x3269], 1
  0x1e5b	mov    	dword ptr [0x3273], 3
  0x1e65	mov    	eax, 8
  0x1e6a	dec    	eax
  === BLOCK LINK ===
    0x1e6b
=== CODE BLOCK END ===

=== CODE BLOCK ADDRESS 0x1e6b ===
  0x1e6b	imul   	eax, eax, 0
  0x1e6e	dec    	eax
  0x1e6f	lea    	ecx, [0x326b]
  0x1e75	dec    	eax
  0x1e76	mov    	dword ptr [ecx + eax], 2
  === BLOCK LINK ===
    0x1e7d
=== CODE BLOCK END ===

=== CODE BLOCK ADDRESS 0x1e7d ===
  0x1e7d	mov    	eax, 8
  0x1e82	dec    	eax
  0x1e83	imul   	eax, eax, 1
  0x1e86	dec    	eax
  0x1e87	lea    	ecx, [0x3253]
  === BLOCK LINK ===
    0x1e8d
=== CODE BLOCK END ===

=== CODE BLOCK ADDRESS 0x1e8d ===
  0x1e8d	dec    	eax
  0x1e8e	mov    	edx, dword ptr [0x31c4]
  0x1e94	dec    	eax
  0x1e95	mov    	dword ptr [ecx + eax], edx
  0x1e98	mov    	eax, 8
  === BLOCK LINK ===
    0x1e9d
=== CODE BLOCK END ===

=== CODE BLOCK ADDRESS 0x1e9d ===
  0x1e9d	dec    	eax
  0x1e9e	imul   	eax, eax, 2
  0x1ea1	dec    	eax
  0x1ea2	lea    	ecx, [0x3238]
  0x1ea8	dec    	eax
  === BLOCK LINK ===
    0x1ea9
=== CODE BLOCK END ===

=== CODE BLOCK ADDRESS 0x1ea9 ===
  0x1ea9	mov    	edx, dword ptr [0x31b1]
  0x1eaf	dec    	eax
  0x1eb0	mov    	dword ptr [ecx + eax], edx
  0x1eb3	mov    	eax, 8
  0x1eb8	dec    	eax
  === BLOCK LINK ===
    0x1eb9
=== CODE BLOCK END ===

=== CODE BLOCK ADDRESS 0x1eb9 ===
  0x1eb9	imul   	eax, eax, 0
  0x1ebc	dec    	eax
  0x1ebd	mov    	ecx, dword ptr [0x3195]
  0x1ec3	dec    	eax
  0x1ec4	mov    	dword ptr [esp + eax + 0x68], ecx
  === BLOCK LINK ===
    0x1ec8
=== CODE BLOCK END ===

=== CODE BLOCK ADDRESS 0x1ec8 ===
  0x1ec8	mov    	eax, 8
  0x1ecd	dec    	eax
  0x1ece	imul   	eax, eax, 1
  0x1ed1	dec    	eax
  0x1ed2	mov    	ecx, dword ptr [0x3188]
  === BLOCK LINK ===
    0x1ed8
=== CODE BLOCK END ===

=== CODE BLOCK ADDRESS 0x1ed8 ===
  0x1ed8	dec    	eax
  0x1ed9	mov    	dword ptr [esp + eax + 0x68], ecx
  0x1edd	dec    	eax
  0x1ede	lea    	ecx, [0x111c]
  0x1ee4	call   	0x1d3c
  === BLOCK LINK ===
    0x1ee9
=== CODE BLOCK END ===

=== CODE BLOCK ADDRESS 0x1ee9 ===
  0x1ee9	dec    	eax
  0x1eea	add    	esp, 0x88
  0x1ef0	ret    	
  0x1ef1	int3   	
  0x1ef2	int3   	
  === BLOCK LINK ===
    0x1ef3
=== CODE BLOCK END ===

=== CODE BLOCK ADDRESS 0x1ef3 ===
  0x1ef3	int3   	
  0x1ef4	int3   	
  0x1ef5	int3   	
  0x1ef6	int3   	
  0x1ef7	jmp    	dword ptr [0x139b]
  === BLOCK LINK ===
    0x1efd
=== CODE BLOCK END ===

=== CODE BLOCK ADDRESS 0x1efd ===
  0x1efd	int3   	
  0x1efe	int3   	
  0x1eff	int3   	
  0x1f00	int3   	
  0x1f01	int3   	
  === BLOCK LINK ===
    0x1f02
=== CODE BLOCK END ===

=== CODE BLOCK ADDRESS 0x1f02 ===
  0x1f02	int3   	
  0x1f03	jmp    	dword ptr [0x1397]
  === BLOCK LINK ===
    0x1f09
=== CODE BLOCK END ===

=== CODE BLOCK ADDRESS 0x1f09 ===
  0x1f09	int3   	
  0x1f0a	int3   	
  0x1f0b	int3   	
  0x1f0c	int3   	
  0x1f0d	int3   	
  === BLOCK LINK ===
    0x1f0e
=== CODE BLOCK END ===

=== CODE BLOCK ADDRESS 0x1f0e ===
  0x1f0e	int3   	
  0x1f0f	jmp    	dword ptr [0x13ab]
  === BLOCK LINK ===
    0x1f15
=== CODE BLOCK END ===

=== CODE BLOCK ADDRESS 0x1f15 ===
  0x1f15	int3   	
  0x1f16	int3   	
  0x1f17	int3   	
  0x1f18	int3   	
  0x1f19	int3   	
  === BLOCK LINK ===
    0x1f1a
=== CODE BLOCK END ===

=== CODE BLOCK ADDRESS 0x1f1a ===
  0x1f1a	int3   	
  0x1f1b	int3   	
  0x1f1c	int3   	
  0x1f1d	int3   	
  0x1f1e	int3   	
  === BLOCK LINK ===
    0x1f1f
=== CODE BLOCK END ===

=== CODE BLOCK ADDRESS 0x1f1f ===
  0x1f1f	int3   	
  0x1f20	int3   	
  0x1f21	int3   	
  0x1f22	int3   	
  0x1f23	int3   	
  === BLOCK LINK ===
    0x1f24
=== CODE BLOCK END ===

=== CODE BLOCK ADDRESS 0x1f24 ===
  0x1f24	int3   	
  0x1f25	int3   	
  0x1f26	int3   	
  0x1f27	int3   	
  0x1f28	dec    	eax
  === BLOCK LINK ===
    0x1f29
=== CODE BLOCK END ===

=== CODE BLOCK ADDRESS 0x1f29 ===
  0x1f29	sub    	esp, 0x28
  0x1f2c	dec    	ebp
  0x1f2d	mov    	eax, dword ptr [ecx + 0x38]
  0x1f30	dec    	eax
  0x1f31	mov    	ecx, edx
  === BLOCK LINK ===
    0x1f33
=== CODE BLOCK END ===

=== CODE BLOCK ADDRESS 0x1f33 ===
  0x1f33	dec    	ecx
  0x1f34	mov    	edx, ecx
  0x1f36	call   	0x1f4c
  === BLOCK LINK ===
    0x1f3b
=== CODE BLOCK END ===

=== CODE BLOCK ADDRESS 0x1f3b ===
  0x1f3b	mov    	eax, 1
  0x1f40	dec    	eax
  0x1f41	add    	esp, 0x28
  0x1f44	ret    	
  0x1f45	int3   	
  === BLOCK LINK ===
    0x1f46
=== CODE BLOCK END ===

=== CODE BLOCK ADDRESS 0x1fad ===
=== CODE BLOCK END ===

=== CODE BLOCK ADDRESS 0x1f46 ===
  0x1f46	int3   	
  0x1f47	int3   	
  0x1f48	int3   	
  0x1f49	int3   	
  0x1f4a	int3   	
  === BLOCK LINK ===
    0x1f4b
=== CODE BLOCK END ===

=== CODE BLOCK ADDRESS 0x1f4b ===
  0x1f4b	int3   	
  0x1f4c	inc    	eax
  0x1f4d	push   	ebx
  0x1f4e	inc    	ebp
  0x1f4f	mov    	ebx, dword ptr [eax]
  === BLOCK LINK ===
    0x1f51
=== CODE BLOCK END ===

=== CODE BLOCK ADDRESS 0x1f51 ===
  0x1f51	dec    	eax
  0x1f52	mov    	ebx, edx
  0x1f54	inc    	ecx
  0x1f55	and    	ebx, 0xfffffff8
  0x1f58	dec    	esp
  === BLOCK LINK ===
    0x1f59
=== CODE BLOCK END ===

=== CODE BLOCK ADDRESS 0x1f59 ===
  0x1f59	mov    	ecx, ecx
  0x1f5b	inc    	ecx
  0x1f5c	test   	byte ptr [eax], 4
  0x1f5f	dec    	esp
  0x1f60	mov    	edx, ecx
  === BLOCK LINK ===
    0x1f62
=== CODE BLOCK END ===

=== CODE BLOCK ADDRESS 0x1f62 ===
  0x1f62	je     	0x1f77
  === BLOCK LINK ===
    0x1f64
=== CODE BLOCK END ===

=== CODE BLOCK ADDRESS 0x1f64 ===
  0x1f64	inc    	ecx
  0x1f65	mov    	eax, dword ptr [eax + 8]
  0x1f68	dec    	ebp
  0x1f69	arpl   	word ptr [eax + 4], dx
  0x1f6c	neg    	eax
  === BLOCK LINK ===
    0x1f6e
=== CODE BLOCK END ===

=== CODE BLOCK ADDRESS 0x1f6e ===
  0x1f6e	dec    	esp
  0x1f6f	add    	edx, ecx
  0x1f71	dec    	eax
  0x1f72	arpl   	ax, cx
  0x1f74	dec    	esp
  === BLOCK LINK ===
    0x1f75
=== CODE BLOCK END ===

=== CODE BLOCK ADDRESS 0x1f75 ===
  0x1f75	and    	edx, ecx
  0x1f77	dec    	ecx
  0x1f78	arpl   	bx, ax
  0x1f7a	dec    	edx
  0x1f7b	mov    	edx, dword ptr [eax + edx]
  === BLOCK LINK ===
    0x1f7e
=== CODE BLOCK END ===

=== CODE BLOCK ADDRESS 0x1f7e ===
  0x1f7e	dec    	eax
  0x1f7f	mov    	eax, dword ptr [ebx + 0x10]
  0x1f82	mov    	ecx, dword ptr [eax + 8]
  0x1f85	dec    	eax
  0x1f86	mov    	eax, dword ptr [ebx + 8]
  === BLOCK LINK ===
    0x1f89
=== CODE BLOCK END ===

=== CODE BLOCK ADDRESS 0x1f89 ===
  0x1f89	test   	byte ptr [ecx + eax + 3], 0xf
  0x1f8e	je     	0x1f9b
  === BLOCK LINK ===
    0x1f90
=== CODE BLOCK END ===

=== CODE BLOCK ADDRESS 0x1f90 ===
  0x1f90	movzx  	eax, byte ptr [ecx + eax + 3]
  0x1f95	and    	eax, 0xfffffff0
  0x1f98	dec    	esp
  0x1f99	add    	ecx, eax
  0x1f9b	dec    	esp
  === BLOCK LINK ===
    0x1f9c
=== CODE BLOCK END ===

=== CODE BLOCK ADDRESS 0x1f9c ===
  0x1f9c	xor    	ecx, edx
  0x1f9e	dec    	ecx
  0x1f9f	mov    	ecx, ecx
  0x1fa1	pop    	ebx
  0x1fa2	jmp    	0x1940
  === BLOCK LINK ===
    0x1fa7
=== CODE BLOCK END ===

=== CODE BLOCK ADDRESS 0x1fa7 ===
  0x1fa7	int3   	
  0x1fa8	int3   	
  0x1fa9	int3   	
  0x1faa	int3   	
  0x1fab	int3   	
  === BLOCK LINK ===
    0x1fac
=== CODE BLOCK END ===

=== CODE BLOCK ADDRESS 0x1fac ===
  0x1fac	int3   	
  0x1fad	jmp    	dword ptr [0x1315]
  === BLOCK LINK ===
    0x1fb3
=== CODE BLOCK END ===

=== CODE BLOCK ADDRESS 0x1fb3 ===
  0x1fb3	int3   	
  0x1fb4	int3   	
  0x1fb5	int3   	
  0x1fb6	int3   	
  0x1fb7	int3   	
  === BLOCK LINK ===
    0x1fb8
=== CODE BLOCK END ===

=== CODE BLOCK ADDRESS 0x1fb8 ===
  0x1fb8	int3   	
  0x1fb9	int3   	
  0x1fba	int3   	
  0x1fbb	int3   	
  0x1fbc	int3   	
  === BLOCK LINK ===
    0x1fbd
=== CODE BLOCK END ===

=== CODE BLOCK ADDRESS 0x1fbd ===
  0x1fbd	int3   	
  0x1fbe	int3   	
  0x1fbf	int3   	
  0x1fc0	int3   	
  0x1fc1	int3   	
  === BLOCK LINK ===
    0x1fc2
=== CODE BLOCK END ===

=== CODE BLOCK ADDRESS 0x1fc2 ===
  0x1fc2	int3   	
  0x1fc3	int3   	
  0x1fc4	int3   	
  0x1fc5	int3   	
  0x1fc6	nop    	word ptr [eax + eax]
  === BLOCK LINK ===
    0x1fd0
=== CODE BLOCK END ===

=== CODE BLOCK ADDRESS 0x1fd0 ===
  0x1fd0	jmp    	eax
  === BLOCK LINK ===
    0x1fd2
=== CODE BLOCK END ===

=== CODE BLOCK ADDRESS 0x1fd2 ===
  0x1fd2	int3   	
  0x1fd3	int3   	
  0x1fd4	int3   	
  0x1fd5	int3   	
  0x1fd6	int3   	
  === BLOCK LINK ===
    0x1fd7
=== CODE BLOCK END ===

=== CODE BLOCK ADDRESS 0x1fd7 ===
  0x1fd7	int3   	
  0x1fd8	int3   	
  0x1fd9	int3   	
  0x1fda	int3   	
  0x1fdb	int3   	
  === BLOCK LINK ===
    0x1fdc
=== CODE BLOCK END ===

=== CODE BLOCK ADDRESS 0x1fdc ===
  0x1fdc	int3   	
  0x1fdd	int3   	
  0x1fde	int3   	
  0x1fdf	int3   	
  0x1fe0	inc    	eax
  === BLOCK LINK ===
    0x1fe1
=== CODE BLOCK END ===

=== CODE BLOCK ADDRESS 0x1fe1 ===
  0x1fe1	push   	ebp
  0x1fe2	dec    	eax
  0x1fe3	sub    	esp, 0x20
  0x1fe6	dec    	eax
  0x1fe7	mov    	ebp, edx
  === BLOCK LINK ===
    0x1fe9
=== CODE BLOCK END ===

=== CODE BLOCK ADDRESS 0x1fe9 ===
  0x1fe9	dec    	eax
  0x1fea	mov    	eax, dword ptr [ecx]
  0x1fec	dec    	eax
  0x1fed	mov    	edx, ecx
  0x1fef	mov    	ecx, dword ptr [eax]
  === BLOCK LINK ===
    0x1ff1
=== CODE BLOCK END ===

=== CODE BLOCK ADDRESS 0x1ff1 ===
  0x1ff1	call   	0x19ce
  === BLOCK LINK ===
    0x1ff6
=== CODE BLOCK END ===

=== CODE BLOCK ADDRESS 0x1ff6 ===
  0x1ff6	nop    	
  0x1ff7	dec    	eax
  0x1ff8	add    	esp, 0x20
  0x1ffb	pop    	ebp
  0x1ffc	ret    	
  === BLOCK LINK ===
    0x1ffd
=== CODE BLOCK END ===

=== CODE BLOCK ADDRESS 0x1ffd ===
  0x1ffd	int3   	
  0x1ffe	int3   	
  0x1fff	int3   	
  0x2000	int3   	
  0x2001	int3   	
  === BLOCK LINK ===
    0x2002
=== CODE BLOCK END ===

=== CODE BLOCK ADDRESS 0x2002 ===
  0x2002	int3   	
  0x2003	int3   	
  0x2004	int3   	
  0x2005	int3   	
  0x2006	int3   	
  === BLOCK LINK ===
    0x2007
=== CODE BLOCK END ===

=== CODE BLOCK ADDRESS 0x2007 ===
  0x2007	int3   	
  0x2008	int3   	
  0x2009	int3   	
  0x200a	int3   	
  0x200b	int3   	
  === BLOCK LINK ===
    0x200c
=== CODE BLOCK END ===

=== CODE BLOCK ADDRESS 0x200c ===
  0x200c	int3   	
  0x200d	int3   	
  0x200e	int3   	
  0x200f	int3   	
  0x2010	inc    	eax
  === BLOCK LINK ===
    0x2011
=== CODE BLOCK END ===

=== CODE BLOCK ADDRESS 0x2011 ===
  0x2011	push   	ebp
  0x2012	dec    	eax
  0x2013	sub    	esp, 0x20
  0x2016	dec    	eax
  0x2017	mov    	ebp, edx
  === BLOCK LINK ===
    0x2019
=== CODE BLOCK END ===

=== CODE BLOCK ADDRESS 0x2019 ===
  0x2019	dec    	eax
  0x201a	mov    	eax, dword ptr [ecx]
  0x201c	xor    	ecx, ecx
  0x201e	cmp    	dword ptr [eax], 0xc0000005
  0x2024	sete   	cl
  === BLOCK LINK ===
    0x2027
=== CODE BLOCK END ===

=== CODE BLOCK ADDRESS 0x2027 ===
  0x2027	mov    	eax, ecx
  0x2029	dec    	eax
  0x202a	add    	esp, 0x20
  0x202d	pop    	ebp
  0x202e	ret    	
  === BLOCK LINK ===
    0x202f
=== CODE BLOCK END ===

=== CODE BLOCK ADDRESS 0x202f ===
  0x202f	int3   	
  0x2030	int3   	
  0x2031	int3   	
  0x2032	int3   	
  0x2033	int3   	
  === BLOCK LINK ===
    0x2034
=== CODE BLOCK END ===

=== CODE BLOCK ADDRESS 0x2034 ===
  0x2034	int3   	
  0x2035	int3   	
  0x2036	inc    	eax
  0x2037	push   	ebp
  0x2038	dec    	eax
  === BLOCK LINK ===
    0x2039
=== CODE BLOCK END ===

=== CODE BLOCK ADDRESS 0x2039 ===
  0x2039	sub    	esp, 0x20
  0x203c	dec    	eax
  0x203d	mov    	ebp, edx
  0x203f	mov    	ecx, 8
  0x2044	call   	0x1f03
  === BLOCK LINK ===
    0x2049
=== CODE BLOCK END ===

=== CODE BLOCK ADDRESS 0x2049 ===
  0x2049	nop    	
  0x204a	dec    	eax
  0x204b	add    	esp, 0x20
  0x204e	pop    	ebp
  0x204f	ret    	
  === BLOCK LINK ===
    0x2050
=== CODE BLOCK END ===

=== CODE BLOCK ADDRESS 0x1353 ===
  0x1353	dec    	eax
  0x1354	add    	esp, 0x28
  0x1357	ret    	
  0x1358	int3   	
  === BLOCK LINK ===
    0x1359
=== CODE BLOCK END ===

=== CODE BLOCK ADDRESS 0x2050 ===
  0x2050	int3   	
  0x2051	int3   	
  0x2052	int3   	
  0x2053	int3   	
  0x2054	int3   	
  === BLOCK LINK ===
    0x2055
=== CODE BLOCK END ===

=== CODE BLOCK ADDRESS 0x2055 ===
  0x2055	int3   	
  0x2056	int3   	
  0x2057	int3   	
  0x2058	int3   	
  0x2059	int3   	
  === BLOCK LINK ===
    0x205a
=== CODE BLOCK END ===

=== CODE BLOCK ADDRESS 0x205a ===
  0x205a	int3   	
  0x205b	int3   	
  0x205c	int3   	
  0x205d	int3   	
  0x205e	int3   	
  === BLOCK LINK ===
    0x205f
=== CODE BLOCK END ===

=== CODE BLOCK ADDRESS 0x205f ===
  0x205f	int3   	
  0x2060	inc    	eax
  0x2061	push   	ebx
  0x2062	dec    	eax
  0x2063	sub    	esp, 0x20
  === BLOCK LINK ===
    0x2066
=== CODE BLOCK END ===

=== CODE BLOCK ADDRESS 0x2066 ===
  0x2066	dec    	eax
  0x2067	and    	dword ptr [esp + 0x38], 0
  0x206c	dec    	esp
  0x206d	lea    	ecx, [esp + 0x38]
  0x2071	dec    	esp
  === BLOCK LINK ===
    0x2072
=== CODE BLOCK END ===

=== CODE BLOCK ADDRESS 0x2072 ===
  0x2072	lea    	eax, [esp + 0x30]
  0x2076	xor    	edx, edx
  0x2078	dec    	eax
  0x2079	lea    	ecx, [0x35c9]
  0x207f	dec    	eax
  === BLOCK LINK ===
    0x2080
=== CODE BLOCK END ===

=== CODE BLOCK ADDRESS 0x2080 ===
  0x2080	call   	dword ptr [0x114a]
  === BLOCK LINK ===
    0x2086
=== CODE BLOCK END ===

=== CODE BLOCK ADDRESS 0x2086 ===
  0x2086	nop    	dword ptr [eax + eax]
  0x208b	dec    	eax
  0x208c	mov    	ebx, dword ptr [esp + 0x38]
  0x2090	dec    	eax
  0x2091	test   	ebx, ebx
  === BLOCK LINK ===
    0x2093
=== CODE BLOCK END ===

=== CODE BLOCK ADDRESS 0x2093 ===
  0x2093	jne    	0x20b2
  === BLOCK LINK ===
    0x2095
=== CODE BLOCK END ===

=== CODE BLOCK ADDRESS 0x2095 ===
  0x2095	inc    	ebp
  0x2096	xor    	eax, eax
  0x2098	dec    	eax
  0x2099	lea    	ecx, [0x35a9]
  0x209f	xor    	edx, edx
  === BLOCK LINK ===
    0x20a1
=== CODE BLOCK END ===

=== CODE BLOCK ADDRESS 0x20a1 ===
  0x20a1	dec    	eax
  0x20a2	add    	esp, 0x20
  0x20a5	pop    	ebx
  0x20a6	dec    	eax
  0x20a7	jmp    	dword ptr [0x1133]
  === BLOCK LINK ===
    0x20ad
=== CODE BLOCK END ===

=== CODE BLOCK ADDRESS 0x20ad ===
  0x20ad	int3   	
  0x20ae	int3   	
  0x20af	int3   	
  0x20b0	int3   	
  0x20b1	int3   	
  === BLOCK LINK ===
    0x20b2
=== CODE BLOCK END ===

=== CODE BLOCK ADDRESS 0x20b2 ===
  0x20b2	cmp    	dword ptr [ebx], 0
  0x20b5	je     	0x20bf
  === BLOCK LINK ===
    0x20b7
=== CODE BLOCK END ===

=== CODE BLOCK ADDRESS 0x20b7 ===
  0x20b7	call   	0x1360
  === BLOCK LINK ===
    0x20bc
=== CODE BLOCK END ===

=== CODE BLOCK ADDRESS 0x20bc ===
  0x20bc	and    	dword ptr [ebx], 0
  0x20bf	dec    	eax
  0x20c0	add    	esp, 0x20
  0x20c3	pop    	ebx
  0x20c4	ret    	
  === BLOCK LINK ===
    0x20c5
=== CODE BLOCK END ===

=== CODE BLOCK ADDRESS 0x20c5 ===
  0x20c5	int3   	
  0x20c6	add    	byte ptr [eax], al
  0x20c8	add    	byte ptr [eax], al
  0x20ca	add    	byte ptr [eax], al
  0x20cc	add    	byte ptr [eax], al
  === BLOCK LINK ===
    0x20ce
=== CODE BLOCK END ===

=== CODE BLOCK ADDRESS 0x20ce ===
  0x20ce	add    	byte ptr [eax], al
  0x20d0	add    	byte ptr [eax], al
  0x20d2	add    	byte ptr [eax], al
  0x20d4	add    	byte ptr [eax], al
  0x20d6	add    	byte ptr [eax], al
  === BLOCK LINK ===
    0x20d8
=== CODE BLOCK END ===

=== CODE BLOCK ADDRESS 0x20d8 ===
  0x20d8	add    	byte ptr [eax], al
  0x20da	add    	byte ptr [eax], al
  0x20dc	add    	byte ptr [eax], al
  0x20de	add    	byte ptr [eax], al
  0x20e0	add    	byte ptr [eax], al
  === BLOCK LINK ===
    0x20e2
=== CODE BLOCK END ===

=== CODE BLOCK ADDRESS 0x20e2 ===
  0x20e2	add    	byte ptr [eax], al
  0x20e4	add    	byte ptr [eax], al
  0x20e6	add    	byte ptr [eax], al
  0x20e8	add    	byte ptr [eax], al
  0x20ea	add    	byte ptr [eax], al
  === BLOCK LINK ===
    0x20ec
=== CODE BLOCK END ===

=== CODE BLOCK ADDRESS 0x20ec ===
  0x20ec	add    	byte ptr [eax], al
  0x20ee	add    	byte ptr [eax], al
  0x20f0	add    	byte ptr [eax], al
  0x20f2	add    	byte ptr [eax], al
  0x20f4	add    	byte ptr [eax], al
  === BLOCK LINK ===
    0x20f6
=== CODE BLOCK END ===

=== CODE BLOCK ADDRESS 0x20f6 ===
  0x20f6	add    	byte ptr [eax], al
  0x20f8	add    	byte ptr [eax], al
  0x20fa	add    	byte ptr [eax], al
  0x20fc	add    	byte ptr [eax], al
  0x20fe	add    	byte ptr [eax], al
  === BLOCK LINK ===
    0x2100
=== CODE BLOCK END ===

=== CODE BLOCK ADDRESS 0x2100 ===
  0x2100	add    	byte ptr [eax], al
  0x2102	add    	byte ptr [eax], al
  0x2104	add    	byte ptr [eax], al
  0x2106	add    	byte ptr [eax], al
  0x2108	add    	byte ptr [eax], al
  === BLOCK LINK ===
    0x210a
=== CODE BLOCK END ===

=== CODE BLOCK ADDRESS 0x210a ===
  0x210a	add    	byte ptr [eax], al
  0x210c	add    	byte ptr [eax], al
  0x210e	add    	byte ptr [eax], al
  0x2110	add    	byte ptr [eax], al
  0x2112	add    	byte ptr [eax], al
  === BLOCK LINK ===
    0x2114
=== CODE BLOCK END ===

=== CODE BLOCK ADDRESS 0x2114 ===
  0x2114	add    	byte ptr [eax], al
  0x2116	add    	byte ptr [eax], al
  0x2118	add    	byte ptr [eax], al
  0x211a	add    	byte ptr [eax], al
  0x211c	add    	byte ptr [eax], al
  === BLOCK LINK ===
    0x211e
=== CODE BLOCK END ===

=== CODE BLOCK ADDRESS 0x211e ===
  0x211e	add    	byte ptr [eax], al
  0x2120	add    	byte ptr [eax], al
  0x2122	add    	byte ptr [eax], al
  0x2124	add    	byte ptr [eax], al
  0x2126	add    	byte ptr [eax], al
  === BLOCK LINK ===
    0x2128
=== CODE BLOCK END ===

=== CODE BLOCK ADDRESS 0x2128 ===
  0x2128	add    	byte ptr [eax], al
  0x212a	add    	byte ptr [eax], al
  0x212c	add    	byte ptr [eax], al
  0x212e	add    	byte ptr [eax], al
  0x2130	add    	byte ptr [eax], al
  === BLOCK LINK ===
    0x2132
=== CODE BLOCK END ===

=== CODE BLOCK ADDRESS 0x2132 ===
  0x2132	add    	byte ptr [eax], al
  0x2134	add    	byte ptr [eax], al
  0x2136	add    	byte ptr [eax], al
  0x2138	add    	byte ptr [eax], al
  0x213a	add    	byte ptr [eax], al
  === BLOCK LINK ===
    0x213c
=== CODE BLOCK END ===

=== CODE BLOCK ADDRESS 0x213c ===
  0x213c	add    	byte ptr [eax], al
  0x213e	add    	byte ptr [eax], al
  0x2140	add    	byte ptr [eax], al
  0x2142	add    	byte ptr [eax], al
  0x2144	add    	byte ptr [eax], al
  === BLOCK LINK ===
    0x2146
=== CODE BLOCK END ===

=== CODE BLOCK ADDRESS 0x2146 ===
  0x2146	add    	byte ptr [eax], al
  0x2148	add    	byte ptr [eax], al
  0x214a	add    	byte ptr [eax], al
  0x214c	add    	byte ptr [eax], al
  0x214e	add    	byte ptr [eax], al
  === BLOCK LINK ===
    0x2150
=== CODE BLOCK END ===

=== CODE BLOCK ADDRESS 0x2150 ===
  0x2150	add    	byte ptr [eax], al
  0x2152	add    	byte ptr [eax], al
  0x2154	add    	byte ptr [eax], al
  0x2156	add    	byte ptr [eax], al
  0x2158	add    	byte ptr [eax], al
  === BLOCK LINK ===
    0x215a
=== CODE BLOCK END ===

=== CODE BLOCK ADDRESS 0x215a ===
  0x215a	add    	byte ptr [eax], al
  0x215c	add    	byte ptr [eax], al
  0x215e	add    	byte ptr [eax], al
  0x2160	add    	byte ptr [eax], al
  0x2162	add    	byte ptr [eax], al
  === BLOCK LINK ===
    0x2164
=== CODE BLOCK END ===

=== CODE BLOCK ADDRESS 0x2164 ===
  0x2164	add    	byte ptr [eax], al
  0x2166	add    	byte ptr [eax], al
  0x2168	add    	byte ptr [eax], al
  0x216a	add    	byte ptr [eax], al
  0x216c	add    	byte ptr [eax], al
  === BLOCK LINK ===
    0x216e
=== CODE BLOCK END ===

=== CODE BLOCK ADDRESS 0x216e ===
  0x216e	add    	byte ptr [eax], al
  0x2170	add    	byte ptr [eax], al
  0x2172	add    	byte ptr [eax], al
  0x2174	add    	byte ptr [eax], al
  0x2176	add    	byte ptr [eax], al
  === BLOCK LINK ===
    0x2178
=== CODE BLOCK END ===

=== CODE BLOCK ADDRESS 0x2178 ===
  0x2178	add    	byte ptr [eax], al
  0x217a	add    	byte ptr [eax], al
  0x217c	add    	byte ptr [eax], al
  0x217e	add    	byte ptr [eax], al
  0x2180	add    	byte ptr [eax], al
  === BLOCK LINK ===
    0x2182
=== CODE BLOCK END ===

=== CODE BLOCK ADDRESS 0x2182 ===
  0x2182	add    	byte ptr [eax], al
  0x2184	add    	byte ptr [eax], al
  0x2186	add    	byte ptr [eax], al
  0x2188	add    	byte ptr [eax], al
  0x218a	add    	byte ptr [eax], al
  === BLOCK LINK ===
    0x218c
=== CODE BLOCK END ===

=== CODE BLOCK ADDRESS 0x218c ===
  0x218c	add    	byte ptr [eax], al
  0x218e	add    	byte ptr [eax], al
  0x2190	add    	byte ptr [eax], al
  0x2192	add    	byte ptr [eax], al
  0x2194	add    	byte ptr [eax], al
  === BLOCK LINK ===
    0x2196
=== CODE BLOCK END ===

=== CODE BLOCK ADDRESS 0x2196 ===
  0x2196	add    	byte ptr [eax], al
  0x2198	add    	byte ptr [eax], al
  0x219a	add    	byte ptr [eax], al
  0x219c	add    	byte ptr [eax], al
  0x219e	add    	byte ptr [eax], al
  === BLOCK LINK ===
    0x21a0
=== CODE BLOCK END ===

=== CODE BLOCK ADDRESS 0x21a0 ===
  0x21a0	add    	byte ptr [eax], al
  0x21a2	add    	byte ptr [eax], al
  0x21a4	add    	byte ptr [eax], al
  0x21a6	add    	byte ptr [eax], al
  0x21a8	add    	byte ptr [eax], al
  === BLOCK LINK ===
    0x21aa
=== CODE BLOCK END ===

=== CODE BLOCK ADDRESS 0x21aa ===
  0x21aa	add    	byte ptr [eax], al
  0x21ac	add    	byte ptr [eax], al
  0x21ae	add    	byte ptr [eax], al
  0x21b0	add    	byte ptr [eax], al
  0x21b2	add    	byte ptr [eax], al
  === BLOCK LINK ===
    0x21b4
=== CODE BLOCK END ===

=== CODE BLOCK ADDRESS 0x21b4 ===
  0x21b4	add    	byte ptr [eax], al
  0x21b6	add    	byte ptr [eax], al
  0x21b8	add    	byte ptr [eax], al
  0x21ba	add    	byte ptr [eax], al
  0x21bc	add    	byte ptr [eax], al
  === BLOCK LINK ===
    0x21be
=== CODE BLOCK END ===

=== CODE BLOCK ADDRESS 0x21be ===
  0x21be	add    	byte ptr [eax], al
  0x21c0	add    	byte ptr [eax], al
  0x21c2	add    	byte ptr [eax], al
  0x21c4	add    	byte ptr [eax], al
  0x21c6	add    	byte ptr [eax], al
  === BLOCK LINK ===
    0x21c8
=== CODE BLOCK END ===

=== CODE BLOCK ADDRESS 0x21c8 ===
  0x21c8	add    	byte ptr [eax], al
  0x21ca	add    	byte ptr [eax], al
  0x21cc	add    	byte ptr [eax], al
  0x21ce	add    	byte ptr [eax], al
  0x21d0	add    	byte ptr [eax], al
  === BLOCK LINK ===
    0x21d2
=== CODE BLOCK END ===

=== CODE BLOCK ADDRESS 0x21d2 ===
  0x21d2	add    	byte ptr [eax], al
  0x21d4	add    	byte ptr [eax], al
  0x21d6	add    	byte ptr [eax], al
  0x21d8	add    	byte ptr [eax], al
  0x21da	add    	byte ptr [eax], al
  === BLOCK LINK ===
    0x21dc
=== CODE BLOCK END ===

=== CODE BLOCK ADDRESS 0x21dc ===
  0x21dc	add    	byte ptr [eax], al
  0x21de	add    	byte ptr [eax], al
  0x21e0	add    	byte ptr [eax], al
  0x21e2	add    	byte ptr [eax], al
  0x21e4	add    	byte ptr [eax], al
  === BLOCK LINK ===
    0x21e6
=== CODE BLOCK END ===

=== CODE BLOCK ADDRESS 0x21e6 ===
  0x21e6	add    	byte ptr [eax], al
  0x21e8	add    	byte ptr [eax], al
  0x21ea	add    	byte ptr [eax], al
  0x21ec	add    	byte ptr [eax], al
  0x21ee	add    	byte ptr [eax], al
  === BLOCK LINK ===
    0x21f0
=== CODE BLOCK END ===

=== CODE BLOCK ADDRESS 0x21f0 ===
  0x21f0	add    	byte ptr [eax], al
  0x21f2	add    	byte ptr [eax], al
  0x21f4	add    	byte ptr [eax], al
  0x21f6	add    	byte ptr [eax], al
  0x21f8	add    	byte ptr [eax], al
  === BLOCK LINK ===
    0x21fa
=== CODE BLOCK END ===

=== CODE BLOCK ADDRESS 0x21fa ===
  0x21fa	add    	byte ptr [eax], al
  0x21fc	add    	byte ptr [eax], al
=== CODE BLOCK END ===

=== DATA BLOCK ADDRESS 0x3000 ===
  0x3000	c0 50 00 40 01 00 00 00 60 51 00 40 01 00 00 00 	0P0@0000`Q0@0000
  0x3010	18 01 00 00 00 00 00 00 00 00 00 00 00 00 00 00 	0000000000000000
  0x3020	00 00 00 00 00 00 00 00 00 00 00 00 00 00 00 00 	0000000000000000
  0x3030	00 00 00 00 00 00 00 00 00 00 00 00 00 00 00 00 	0000000000000000
  0x3040	00 00 00 00 00 00 00 00 00 00 00 00 00 00 00 00 	0000000000000000
  0x3050	00 00 00 00 00 00 00 00 00 00 00 00 00 00 00 00 	0000000000000000
  0x3060	00 00 00 00 00 00 00 00 58 50 00 40 01 00 00 00 	00000000XP0@0000
  0x3070	00 00 00 00 00 00 00 00 00 00 00 00 00 00 00 00 	0000000000000000
  0x3080	d8 32 00 40 01 00 00 00 e0 32 00 40 01 00 00 00 	020@0000020@0000
  0x3090	28 33 00 40 01 00 00 00 0b 00 00 00 00 00 00 00 	(30@000000000000
  0x30a0	00 75 01 00 00 00 00 00 00 00 00 00 00 00 00 00 	0u00000000000000
  0x30b0	54 33 00 40 01 00 00 00 01 00 00 00 00 00 00 00 	T30@000000000000
  0x30c0	00 00 00 00 00 00 00 00 00 00 00 00 00 00 00 00 	0000000000000000
  0x30d0	00 00 00 00 00 00 00 00 00 00 00 00 00 00 00 00 	0000000000000000
  0x30e0	00 00 00 00 00 00 00 00 00 00 00 00 00 00 00 00 	0000000000000000
  0x30f0	00 00 00 00 00 00 00 00 00 00 00 00 00 00 00 00 	0000000000000000
  0x3100	00 00 00 00 00 00 00 00 00 00 00 00 00 00 00 00 	0000000000000000
  0x3110	00 00 00 00 00 00 00 00 00 00 00 00 00 00 00 00 	0000000000000000
  0x3120	00 00 00 00 00 00 00 00 7a 3e 00 00 00 00 00 00 	00000000z>000000
  0x3130	96 3d 00 00 00 00 00 00 5c 3d 00 00 00 00 00 00 	0=0000000=000000
  0x3140	00 00 00 00 00 00 00 00 80 3d 00 00 00 00 00 00 	000000000=000000
  0x3150	00 00 00 00 00 00 00 00 b4 3d 00 00 00 00 00 00 	000000000=000000
  0x3160	00 00 00 00 00 00 00 00 96 3e 00 00 00 00 00 00 	000000000>000000
  0x3170	aa 3e 00 00 00 00 00 00 e2 3d 00 00 00 00 00 00 	0>0000000=000000
  0x3180	f8 3d 00 00 00 00 00 00 00 00 00 00 00 00 00 00 	0=00000000000000
  0x3190	c8 3d 00 00 00 00 00 00 00 00 00 00 00 00 00 00 	0=00000000000000
  0x31a0	38 3e 00 00 00 00 00 00 66 3e 00 00 00 00 00 00 	8>000000f>000000
  0x31b0	4c 3e 00 00 00 00 00 00 00 00 00 00 00 00 00 00 	L>00000000000000
  0x31c0	4c 3d 00 00 00 00 00 00 00 00 00 00 00 00 00 00 	L=00000000000000
  0x31d0	32 3d 00 00 00 00 00 00 8e 3d 00 00 00 00 00 00 	2=0000000=000000
  0x31e0	6c 3d 00 00 00 00 00 00 00 00 00 00 00 00 00 00 	l=00000000000000
  0x31f0	28 3e 00 00 00 00 00 00 0e 3e 00 00 00 00 00 00 	(>0000000>000000
  0x3200	00 00 00 00 00 00 00 00 6a 40 00 00 00 00 00 00 	00000000j@000000
  0x3210	5a 40 00 00 00 00 00 00 44 40 00 00 00 00 00 00 	Z@000000D@000000
  0x3220	00 00 00 00 00 00 00 00 10 40 00 00 00 00 00 00 	000000000@000000
  0x3230	00 00 00 00 00 00 00 00 40 3c 00 00 00 00 00 00 	00000000@<000000
  0x3240	88 3c 00 00 00 00 00 00 80 3c 00 00 00 00 00 00 	0<0000000<000000
  0x3250	6e 3c 00 00 00 00 00 00 ae 3c 00 00 00 00 00 00 	n<0000000<000000
  0x3260	5c 3c 00 00 00 00 00 00 d2 3c 00 00 00 00 00 00 	0<0000000<000000
  0x3270	dc 3c 00 00 00 00 00 00 90 3c 00 00 00 00 00 00 	0<0000000<000000
  0x3280	ba 3c 00 00 00 00 00 00 36 40 00 00 00 00 00 00 	0<0000006@000000
  0x3290	e8 3c 00 00 00 00 00 00 08 3d 00 00 00 00 00 00 	0<0000000=000000
  0x32a0	10 3d 00 00 00 00 00 00 4e 3c 00 00 00 00 00 00 	0=000000N<000000
  0x32b0	28 3d 00 00 00 00 00 00 9a 3c 00 00 00 00 00 00 	(=0000000<000000
  0x32c0	1a 3d 00 00 00 00 00 00 a4 40 00 00 00 00 00 00 	0=0000000@000000
  0x32d0	00 00 00 00 00 00 00 00 30 1d 00 40 01 00 00 00 	00000000000@0000
  0x32e0	d0 1f 00 40 01 00 00 00 00 00 00 00 00 00 00 00 	000@000000000000
  0x32f0	f0 16 00 40 01 00 00 00 10 10 00 40 01 00 00 00 	000@0000000@0000
  0x3300	00 00 00 00 00 00 00 00 00 00 00 00 00 00 00 00 	0000000000000000
  0x3310	10 16 00 40 01 00 00 00 b0 19 00 40 01 00 00 00 	000@0000000@0000
  0x3320	00 00 00 00 00 00 00 00 10 10 00 00 b0 11 00 00 	0000000000000000
  0x3330	10 16 00 00 f0 16 00 00 10 19 00 00 70 19 00 00 	000000000000p000
  0x3340	b0 19 00 00 90 1a 00 00 30 1d 00 00 80 1d 00 00 	0000000000000000
  0x3350	60 20 00 00 b0 32 00 00 00 00 00 00 00 00 00 00 	` 00020000000000
  0x3360	41 00 6e 00 20 00 69 00 6e 00 73 00 74 00 61 00 	A0n0 0i0n0s0t0a0
  0x3370	6e 00 63 00 65 00 20 00 6f 00 66 00 20 00 25 00 	n0c0e0 0o0f0 0%0
  0x3380	73 00 20 00 69 00 73 00 20 00 61 00 6c 00 72 00 	s0 0i0s0 0a0l0r0
  0x3390	65 00 61 00 64 00 79 00 20 00 72 00 75 00 6e 00 	e0a0d0y0 0r0u0n0
  0x33a0	6e 00 69 00 6e 00 67 00 2e 00 20 00 54 00 68 00 	n0i0n0g0.0 0T0h0
  0x33b0	69 00 73 00 20 00 69 00 6e 00 73 00 74 00 61 00 	i0s0 0i0n0s0t0a0
  0x33c0	6e 00 63 00 65 00 20 00 77 00 69 00 6c 00 6c 00 	n0c0e0 0w0i0l0l0
  0x33d0	20 00 65 00 78 00 69 00 74 00 20 00 69 00 6d 00 	 0e0x0i0t0 0i0m0
  0x33e0	6d 00 65 00 64 00 69 00 61 00 74 00 65 00 6c 00 	m0e0d0i0a0t0e0l0
  0x33f0	79 00 2e 00 00 00 00 00 77 00 6d 00 61 00 69 00 	y0.00000w0m0a0i0
  0x3400	6e 00 00 00 00 00 00 00 00 00 00 00 00 00 00 00 	n000000000000000
  0x3410	53 00 75 00 63 00 63 00 65 00 73 00 73 00 66 00 	S0u0c0c0e0s0s0f0
  0x3420	75 00 6c 00 6c 00 79 00 20 00 72 00 65 00 71 00 	u0l0l0y0 0r0e0q0
  0x3430	75 00 65 00 73 00 74 00 65 00 64 00 20 00 74 00 	u0e0s0t0e0d0 0t0
  0x3440	6f 00 20 00 63 00 6c 00 65 00 61 00 6e 00 75 00 	o0 0c0l0e0a0n0u0
  0x3450	70 00 20 00 65 00 78 00 70 00 69 00 72 00 65 00 	p0 0e0x0p0i0r0e0
  0x3460	64 00 20 00 74 00 6f 00 6b 00 65 00 6e 00 73 00 	d0 0t0o0k0e0n0s0
  0x3470	2e 00 00 00 00 00 00 00 68 00 72 00 3d 00 30 00 	.0000000h0r0=000
  0x3480	78 00 25 00 78 00 2e 00 00 00 00 00 00 00 00 00 	x0%0x0.000000000
  0x3490	47 00 6c 00 6f 00 62 00 61 00 6c 00 5c 00 7b 00 	G0l0o0b0a0l000{0
  0x34a0	42 00 38 00 31 00 37 00 42 00 35 00 37 00 45 00 	B0801070B05070E0
  0x34b0	2d 00 35 00 30 00 31 00 33 00 2d 00 34 00 62 00 	-050001030-040b0
  0x34c0	33 00 35 00 2d 00 42 00 44 00 37 00 34 00 2d 00 	3050-0B0D07040-0
  0x34d0	32 00 34 00 42 00 33 00 43 00 32 00 32 00 35 00 	2040B030C0202050
  0x34e0	45 00 44 00 36 00 45 00 7d 00 00 00 00 00 00 00 	E0D060E0}0000000
  0x34f0	4e 00 55 00 4c 00 4c 00 00 00 00 00 01 02 03 04 	N0U0L0L000000000
  0x3500	05 04 05 00 00 00 00 00 00 00 80 00 00 00 00 00 	0000000000000000
  0x3510	01 00 00 00 00 00 00 00 00 00 10 00 00 00 00 00 	0000000000000000
  0x3520	00 00 40 00 00 00 00 00 00 00 40 00 00 00 00 00 	00@0000000@00000
  0x3530	00 00 20 00 00 00 00 00 02 00 00 00 00 00 00 00 	00 0000000000000
  0x3540	a2 0f 00 00 04 00 00 00 00 00 40 00 00 00 00 00 	0000000000@00000
  0x3550	d2 07 00 00 02 00 00 00 01 00 00 00 00 00 00 00 	0000000000000000
  0x3560	04 b2 e8 68 04 36 df 46 a2 58 6d b3 b5 f5 e0 03 	000h060F0Xm00000
  0x3570	00 00 00 00 fe 4e f3 16 00 00 00 00 02 00 00 00 	00000N0000000000
  0x3580	29 00 00 00 c4 35 00 00 c4 1b 00 00 00 00 00 00 	)000050000000000
  0x3590	fe 4e f3 16 00 00 00 00 0d 00 00 00 50 02 00 00 	0N0000000000P000
  0x35a0	f0 35 00 00 f0 1b 00 00 00 00 00 00 fe 4e f3 16 	0500000000000N00
  0x35b0	00 00 00 00 10 00 00 00 24 00 00 00 40 38 00 00 	00000000$000@800
  0x35c0	40 1e 00 00 52 53 44 53 18 e5 be da c9 84 00 21 	@000RSDS0000000!
  0x35d0	b3 5b 90 3c 56 a9 2e ba 01 00 00 00 64 73 74 6f 	0[0<V0.00000dsto
  0x35e0	6b 65 6e 63 6c 65 61 6e 2e 70 64 62 00 00 00 00 	kenclean.pdb0000
  0x35f0	47 43 54 4c 00 10 00 00 20 00 00 00 2e 74 65 78 	GCTL0000 000.tex
  0x3600	74 24 64 69 00 00 00 00 20 10 00 00 a0 0f 00 00 	t$di0000 0000000
  0x3610	2e 74 65 78 74 24 6d 6e 00 00 00 00 c0 1f 00 00 	.text$mn00000000
  0x3620	20 00 00 00 2e 74 65 78 74 24 6d 6e 24 30 30 00 	 000.text$mn$000
  0x3630	e0 1f 00 00 80 00 00 00 2e 74 65 78 74 24 78 00 	00000000.text$x0
  0x3640	60 20 00 00 66 00 00 00 2e 74 65 78 74 24 79 64 	` 00f000.text$yd
  0x3650	00 00 00 00 00 30 00 00 28 01 00 00 2e 72 64 61 	00000000(000.rda
  0x3660	74 61 24 62 72 63 00 00 28 31 00 00 b0 01 00 00 	ta$brc00(1000000
  0x3670	2e 69 64 61 74 61 24 35 00 00 00 00 d8 32 00 00 	.idata$500000200
  0x3680	10 00 00 00 2e 30 30 63 66 67 00 00 e8 32 00 00 	0000.00cfg000200
  0x3690	08 00 00 00 2e 43 52 54 24 58 43 41 00 00 00 00 	0000.CRT$XCA0000
  0x36a0	f0 32 00 00 08 00 00 00 2e 43 52 54 24 58 43 41 	02000000.CRT$XCA
  0x36b0	41 00 00 00 f8 32 00 00 08 00 00 00 2e 43 52 54 	A00002000000.CRT
  0x36c0	24 58 43 55 00 00 00 00 00 33 00 00 08 00 00 00 	$XCU000003000000
  0x36d0	2e 43 52 54 24 58 43 5a 00 00 00 00 08 33 00 00 	.CRT$XCZ00000300
  0x36e0	08 00 00 00 2e 43 52 54 24 58 49 41 00 00 00 00 	0000.CRT$XIA0000
  0x36f0	10 33 00 00 08 00 00 00 2e 43 52 54 24 58 49 41 	03000000.CRT$XIA
  0x3700	41 00 00 00 18 33 00 00 08 00 00 00 2e 43 52 54 	A00003000000.CRT
  0x3710	24 58 49 59 00 00 00 00 20 33 00 00 08 00 00 00 	$XIY0000 3000000
  0x3720	2e 43 52 54 24 58 49 5a 00 00 00 00 28 33 00 00 	.CRT$XIZ0000(300
  0x3730	2c 00 00 00 2e 67 66 69 64 73 00 00 54 33 00 00 	,000.gfids00T300
  0x3740	0c 00 00 00 2e 67 69 61 74 73 00 00 60 33 00 00 	0000.giats00`300
  0x3750	64 02 00 00 2e 72 64 61 74 61 00 00 c4 35 00 00 	d000.rdata000500
  0x3760	a4 02 00 00 2e 72 64 61 74 61 24 7a 7a 7a 64 62 	0000.rdata$zzzdb
  0x3770	67 00 00 00 68 38 00 00 24 01 00 00 2e 78 64 61 	g000h800$000.xda
  0x3780	74 61 00 00 8c 39 00 00 f0 00 00 00 2e 69 64 61 	ta0009000000.ida
  0x3790	74 61 24 32 00 00 00 00 7c 3a 00 00 14 00 00 00 	ta$20000|:000000
  0x37a0	2e 69 64 61 74 61 24 33 00 00 00 00 90 3a 00 00 	.idata$300000:00
  0x37b0	b0 01 00 00 2e 69 64 61 74 61 24 34 00 00 00 00 	0000.idata$40000
  0x37c0	40 3c 00 00 6e 04 00 00 2e 69 64 61 74 61 24 36 	@<00n000.idata$6
  0x37d0	00 00 00 00 00 50 00 00 50 00 00 00 2e 64 61 74 	00000P00P000.dat
  0x37e0	61 24 62 72 63 00 00 00 50 50 00 00 30 00 00 00 	a$brc000PP000000
  0x37f0	2e 64 61 74 61 00 00 00 80 50 00 00 80 06 00 00 	.data0000P000000
  0x3800	2e 62 73 73 00 00 00 00 00 60 00 00 74 01 00 00 	.bss00000`00t000
  0x3810	2e 70 64 61 74 61 00 00 00 70 00 00 60 00 00 00 	.pdata000p00`000
  0x3820	2e 72 73 72 63 24 30 31 00 00 00 00 60 70 00 00 	.rsrc$010000`p00
  0x3830	00 04 00 00 2e 72 73 72 63 24 30 32 00 00 00 00 	0000.rsrc$020000
  0x3840	20 00 00 00 18 e5 be da c9 84 00 21 b3 5b 90 3c 	 0000000000!0[0<
  0x3850	56 a9 2e ba c3 20 6e 5d 25 b0 7c d5 c3 c2 54 a4 	V0.00 n]%0|000T0
  0x3860	fe 4e f3 16 00 00 00 00 01 0f 06 00 0f 64 09 00 	0N00000000000d00
  0x3870	0f 34 08 00 0f 52 0b 70 01 0c 02 00 0c 32 08 30 	04000R0p00000200
  0x3880	01 06 02 00 06 32 02 30 01 04 01 00 04 62 00 00 	0000020000000b00
  0x3890	01 04 01 00 04 42 00 00 19 25 05 00 17 34 14 00 	00000B000%000400
  0x38a0	17 01 12 00 0b 50 00 00 28 1f 00 00 80 00 00 00 	00000P00(0000000
  0x38b0	19 22 06 00 10 01 89 00 09 70 08 60 07 50 06 30 	0"0000000p0`0P00
  0x38c0	28 1f 00 00 30 04 00 00 09 15 08 00 15 74 0a 00 	(000000000000t00
  0x38d0	15 64 09 00 15 34 08 00 15 52 11 f0 6a 1c 00 00 	0d0004000R00j000
  0x38e0	01 00 00 00 55 17 00 00 bb 18 00 00 e0 1f 00 00 	0000U00000000000
  0x38f0	bb 18 00 00 01 06 02 00 06 32 02 50 00 00 00 00 	00000000020P0000
  0x3900	01 00 00 00 09 04 01 00 04 22 00 00 6a 1c 00 00 	000000000"00j000
  0x3910	01 00 00 00 ec 19 00 00 22 1a 00 00 01 00 00 00 	00000000"0000000
  0x3920	22 1a 00 00 09 0a 04 00 0a 34 06 00 0a 32 06 70 	"00000000400020p
  0x3930	6a 1c 00 00 01 00 00 00 fd 1a 00 00 30 1b 00 00 	j000000000000000
  0x3940	10 20 00 00 30 1b 00 00 01 0d 04 00 0d 34 09 00 	0 00000000000400
  0x3950	0d 32 06 50 11 06 02 00 06 32 02 30 6a 1c 00 00 	020P00000200j000
  0x3960	01 00 00 00 b1 1c 00 00 f6 1c 00 00 36 20 00 00 	0000000000006 00
  0x3970	00 00 00 00 01 0c 02 00 0c 01 11 00 00 00 00 00 	0000000000000000
  0x3980	01 00 00 00 01 02 01 00 02 30 00 00 a0 3b 00 00 	0000000000000;00
  0x3990	00 00 00 00 00 00 00 00 fc 3c 00 00 38 32 00 00 	000000000<008200
  0x39a0	38 3b 00 00 00 00 00 00 00 00 00 00 be 3e 00 00 	8;00000000000>00
  0x39b0	d0 31 00 00 28 3b 00 00 00 00 00 00 00 00 00 00 	0100(;0000000000
  0x39c0	e0 3e 00 00 c0 31 00 00 90 3a 00 00 00 00 00 00 	0>0001000:000000
  0x39d0	00 00 00 00 02 3f 00 00 28 31 00 00 b0 3a 00 00 	00000?00(1000:00
  0x39e0	00 00 00 00 00 00 00 00 2c 3f 00 00 48 31 00 00 	00000000,?00H100
  0x39f0	c0 3a 00 00 00 00 00 00 00 00 00 00 4e 3f 00 00 	0:0000000000N?00
  0x3a00	58 31 00 00 f8 3a 00 00 00 00 00 00 00 00 00 00 	X1000:0000000000
  0x3a10	78 3f 00 00 90 31 00 00 d0 3a 00 00 00 00 00 00 	x?0001000:000000
  0x3a20	00 00 00 00 9c 3f 00 00 68 31 00 00 58 3b 00 00 	00000?00h100X;00
  0x3a30	00 00 00 00 00 00 00 00 c6 3f 00 00 f0 31 00 00 	000000000?000100
  0x3a40	08 3b 00 00 00 00 00 00 00 00 00 00 ea 3f 00 00 	0;00000000000?00
  0x3a50	a0 31 00 00 90 3b 00 00 00 00 00 00 00 00 00 00 	01000;0000000000
  0x3a60	28 40 00 00 28 32 00 00 70 3b 00 00 00 00 00 00 	(@00(200p;000000
  0x3a70	00 00 00 00 7c 40 00 00 08 32 00 00 00 00 00 00 	0000|@0002000000
  0x3a80	00 00 00 00 00 00 00 00 00 00 00 00 00 00 00 00 	0000000000000000
  0x3a90	7a 3e 00 00 00 00 00 00 96 3d 00 00 00 00 00 00 	z>0000000=000000
  0x3aa0	5c 3d 00 00 00 00 00 00 00 00 00 00 00 00 00 00 	0=00000000000000
  0x3ab0	80 3d 00 00 00 00 00 00 00 00 00 00 00 00 00 00 	0=00000000000000
  0x3ac0	b4 3d 00 00 00 00 00 00 00 00 00 00 00 00 00 00 	0=00000000000000
  0x3ad0	96 3e 00 00 00 00 00 00 aa 3e 00 00 00 00 00 00 	0>0000000>000000
  0x3ae0	e2 3d 00 00 00 00 00 00 f8 3d 00 00 00 00 00 00 	0=0000000=000000
  0x3af0	00 00 00 00 00 00 00 00 c8 3d 00 00 00 00 00 00 	000000000=000000
  0x3b00	00 00 00 00 00 00 00 00 38 3e 00 00 00 00 00 00 	000000008>000000
  0x3b10	66 3e 00 00 00 00 00 00 4c 3e 00 00 00 00 00 00 	f>000000L>000000
  0x3b20	00 00 00 00 00 00 00 00 4c 3d 00 00 00 00 00 00 	00000000L=000000
  0x3b30	00 00 00 00 00 00 00 00 32 3d 00 00 00 00 00 00 	000000002=000000
  0x3b40	8e 3d 00 00 00 00 00 00 6c 3d 00 00 00 00 00 00 	0=000000l=000000
  0x3b50	00 00 00 00 00 00 00 00 28 3e 00 00 00 00 00 00 	00000000(>000000
  0x3b60	0e 3e 00 00 00 00 00 00 00 00 00 00 00 00 00 00 	0>00000000000000
  0x3b70	6a 40 00 00 00 00 00 00 5a 40 00 00 00 00 00 00 	j@000000Z@000000
  0x3b80	44 40 00 00 00 00 00 00 00 00 00 00 00 00 00 00 	D@00000000000000
  0x3b90	10 40 00 00 00 00 00 00 00 00 00 00 00 00 00 00 	0@00000000000000
  0x3ba0	40 3c 00 00 00 00 00 00 88 3c 00 00 00 00 00 00 	@<0000000<000000
  0x3bb0	80 3c 00 00 00 00 00 00 6e 3c 00 00 00 00 00 00 	0<000000n<000000
  0x3bc0	ae 3c 00 00 00 00 00 00 5c 3c 00 00 00 00 00 00 	0<0000000<000000
  0x3bd0	d2 3c 00 00 00 00 00 00 dc 3c 00 00 00 00 00 00 	0<0000000<000000
  0x3be0	90 3c 00 00 00 00 00 00 ba 3c 00 00 00 00 00 00 	0<0000000<000000
  0x3bf0	36 40 00 00 00 00 00 00 e8 3c 00 00 00 00 00 00 	6@0000000<000000
  0x3c00	08 3d 00 00 00 00 00 00 10 3d 00 00 00 00 00 00 	0=0000000=000000
  0x3c10	4e 3c 00 00 00 00 00 00 28 3d 00 00 00 00 00 00 	N<000000(=000000
  0x3c20	9a 3c 00 00 00 00 00 00 1a 3d 00 00 00 00 00 00 	0<0000000=000000
  0x3c30	a4 40 00 00 00 00 00 00 00 00 00 00 00 00 00 00 	0@00000000000000
  0x3c40	55 00 5f 58 63 70 74 46 69 6c 74 65 72 00 ae 00 	U0_XcptFilter000
  0x3c50	5f 61 6d 73 67 5f 65 78 69 74 00 00 9d 00 5f 5f 	_amsg_exit0000__
  0x3c60	77 67 65 74 6d 61 69 6e 61 72 67 73 00 00 8e 00 	wgetmainargs0000
  0x3c70	5f 5f 73 65 74 5f 61 70 70 5f 74 79 70 65 00 00 	__set_app_type00
  0x3c80	32 04 65 78 69 74 00 00 0e 01 5f 65 78 69 74 00 	20exit0000_exit0
  0x3c90	c1 00 5f 63 65 78 69 74 00 00 90 00 5f 5f 73 65 	00_cexit0000__se
  0x3ca0	74 75 73 65 72 6d 61 74 68 65 72 72 00 00 7d 01 	tusermatherr00}0
  0x3cb0	5f 69 6e 69 74 74 65 72 6d 00 57 00 5f 5f 43 5f 	_initterm0W0__C_
  0x3cc0	73 70 65 63 69 66 69 63 5f 68 61 6e 64 6c 65 72 	specific_handler
  0x3cd0	00 00 27 01 5f 66 6d 6f 64 65 00 00 d2 00 5f 63 	00'0_fmode0000_c
  0x3ce0	6f 6d 6d 6f 64 65 00 00 2f 00 3f 74 65 72 6d 69 	ommode00/0?termi
  0x3cf0	6e 61 74 65 40 40 59 41 58 58 5a 00 6d 73 76 63 	nate@@YAXXZ0msvc
  0x3d00	72 74 2e 64 6c 6c 00 00 e6 01 5f 6c 6f 63 6b 00 	rt.dll0000_lock0
  0x3d10	41 03 5f 75 6e 6c 6f 63 6b 00 7b 00 5f 5f 64 6c 	A0_unlock0{0__dl
  0x3d20	6c 6f 6e 65 78 69 74 00 90 02 5f 6f 6e 65 78 69 	lonexit000_onexi
  0x3d30	74 00 13 00 49 6e 69 74 4f 6e 63 65 42 65 67 69 	t000InitOnceBegi
  0x3d40	6e 49 6e 69 74 69 61 6c 69 7a 65 00 0a 00 43 72 	nInitialize000Cr
  0x3d50	65 61 74 65 4d 75 74 65 78 57 00 00 05 00 47 65 	eateMutexW0000Ge
  0x3d60	74 4c 61 73 74 45 72 72 6f 72 00 00 14 00 49 6e 	tLastError0000In
  0x3d70	69 74 4f 6e 63 65 43 6f 6d 70 6c 65 74 65 00 00 	itOnceComplete00
  0x3d80	00 00 43 6c 6f 73 65 48 61 6e 64 6c 65 00 2d 00 	00CloseHandle0-0
  0x3d90	53 6c 65 65 70 00 0f 00 53 65 74 55 6e 68 61 6e 	Sleep000SetUnhan
  0x3da0	64 6c 65 64 45 78 63 65 70 74 69 6f 6e 46 69 6c 	dledExceptionFil
  0x3db0	74 65 72 00 14 00 47 65 74 4d 6f 64 75 6c 65 48 	ter000GetModuleH
  0x3dc0	61 6e 64 6c 65 57 00 00 00 00 51 75 65 72 79 50 	andleW0000QueryP
  0x3dd0	65 72 66 6f 72 6d 61 6e 63 65 43 6f 75 6e 74 65 	erformanceCounte
  0x3de0	72 00 0d 00 47 65 74 43 75 72 72 65 6e 74 50 72 	r000GetCurrentPr
  0x3df0	6f 63 65 73 73 49 64 00 11 00 47 65 74 43 75 72 	ocessId000GetCur
  0x3e00	72 65 6e 74 54 68 72 65 61 64 49 64 00 00 16 00 	rentThreadId0000
  0x3e10	47 65 74 53 79 73 74 65 6d 54 69 6d 65 41 73 46 	GetSystemTimeAsF
  0x3e20	69 6c 65 54 69 6d 65 00 1a 00 47 65 74 54 69 63 	ileTime000GetTic
  0x3e30	6b 43 6f 75 6e 74 00 00 f3 02 52 74 6c 43 61 70 	kCount0000RtlCap
  0x3e40	74 75 72 65 43 6f 6e 74 65 78 74 00 e9 04 52 74 	tureContext000Rt
  0x3e50	6c 4c 6f 6f 6b 75 70 46 75 6e 63 74 69 6f 6e 45 	lLookupFunctionE
  0x3e60	6e 74 72 79 00 00 28 06 52 74 6c 56 69 72 74 75 	ntry00(0RtlVirtu
  0x3e70	61 6c 55 6e 77 69 6e 64 00 00 11 00 55 6e 68 61 	alUnwind0000Unha
  0x3e80	6e 64 6c 65 64 45 78 63 65 70 74 69 6f 6e 46 69 	ndledExceptionFi
  0x3e90	6c 74 65 72 00 00 0c 00 47 65 74 43 75 72 72 65 	lter0000GetCurre
  0x3ea0	6e 74 50 72 6f 63 65 73 73 00 4e 00 54 65 72 6d 	ntProcess0N0Term
  0x3eb0	69 6e 61 74 65 50 72 6f 63 65 73 73 00 00 61 70 	inateProcess00ap
  0x3ec0	69 2d 6d 73 2d 77 69 6e 2d 63 6f 72 65 2d 73 79 	i-ms-win-core-sy
  0x3ed0	6e 63 68 2d 6c 31 2d 32 2d 30 2e 64 6c 6c 00 00 	nch-l1-2-0.dll00
  0x3ee0	61 70 69 2d 6d 73 2d 77 69 6e 2d 63 6f 72 65 2d 	api-ms-win-core-
  0x3ef0	73 79 6e 63 68 2d 6c 31 2d 31 2d 30 2e 64 6c 6c 	synch-l1-1-0.dll
  0x3f00	00 00 61 70 69 2d 6d 73 2d 77 69 6e 2d 63 6f 72 	00api-ms-win-cor
  0x3f10	65 2d 65 72 72 6f 72 68 61 6e 64 6c 69 6e 67 2d 	e-errorhandling-
  0x3f20	6c 31 2d 31 2d 30 2e 64 6c 6c 00 00 61 70 69 2d 	l1-1-0.dll00api-
  0x3f30	6d 73 2d 77 69 6e 2d 63 6f 72 65 2d 68 61 6e 64 	ms-win-core-hand
  0x3f40	6c 65 2d 6c 31 2d 31 2d 30 2e 64 6c 6c 00 61 70 	le-l1-1-0.dll0ap
  0x3f50	69 2d 6d 73 2d 77 69 6e 2d 63 6f 72 65 2d 6c 69 	i-ms-win-core-li
  0x3f60	62 72 61 72 79 6c 6f 61 64 65 72 2d 6c 31 2d 32 	braryloader-l1-2
  0x3f70	2d 30 2e 64 6c 6c 00 00 61 70 69 2d 6d 73 2d 77 	-0.dll00api-ms-w
  0x3f80	69 6e 2d 63 6f 72 65 2d 70 72 6f 66 69 6c 65 2d 	in-core-profile-
  0x3f90	6c 31 2d 31 2d 30 2e 64 6c 6c 00 00 61 70 69 2d 	l1-1-0.dll00api-
  0x3fa0	6d 73 2d 77 69 6e 2d 63 6f 72 65 2d 70 72 6f 63 	ms-win-core-proc
  0x3fb0	65 73 73 74 68 72 65 61 64 73 2d 6c 31 2d 31 2d 	essthreads-l1-1-
  0x3fc0	30 2e 64 6c 6c 00 61 70 69 2d 6d 73 2d 77 69 6e 	0.dll0api-ms-win
  0x3fd0	2d 63 6f 72 65 2d 73 79 73 69 6e 66 6f 2d 6c 31 	-core-sysinfo-l1
  0x3fe0	2d 31 2d 30 2e 64 6c 6c 00 00 61 70 69 2d 6d 73 	-1-0.dll00api-ms
  0x3ff0	2d 77 69 6e 2d 63 6f 72 65 2d 72 74 6c 73 75 70 	-win-core-rtlsup
  0x4000	70 6f 72 74 2d 6c 31 2d 31 2d 30 2e 64 6c 6c 00 	port-l1-1-0.dll0
  0x4010	07 00 44 53 52 65 6d 6f 76 65 45 78 70 69 72 65 	00DSRemoveExpire
  0x4020	64 54 6f 6b 65 6e 73 00 64 73 63 6c 69 65 6e 74 	dTokens0dsclient
  0x4030	2e 64 6c 6c 00 00 69 03 5f 76 73 6e 77 70 72 69 	.dll00i0_vsnwpri
  0x4040	6e 74 66 00 09 00 45 76 65 6e 74 57 72 69 74 65 	ntf000EventWrite
  0x4050	54 72 61 6e 73 66 65 72 00 00 03 00 45 76 65 6e 	Transfer0000Even
  0x4060	74 52 65 67 69 73 74 65 72 00 05 00 45 76 65 6e 	tRegister000Even
  0x4070	74 55 6e 72 65 67 69 73 74 65 72 00 61 70 69 2d 	tUnregister0api-
  0x4080	6d 73 2d 77 69 6e 2d 65 76 65 6e 74 69 6e 67 2d 	ms-win-eventing-
  0x4090	70 72 6f 76 69 64 65 72 2d 6c 31 2d 31 2d 30 2e 	provider-l1-1-0.
  0x40a0	64 6c 6c 00 96 04 6d 65 6d 73 65 74 00 00 00 00 	dll000memset0000
  0x40b0	00 00 00 00 00 00 00 00 00 00 00 00 00 00 00 00 	0000000000000000
  0x40c0	00 00 00 00 00 00 00 00 00 00 00 00 00 00 00 00 	0000000000000000
  0x40d0	00 00 00 00 00 00 00 00 00 00 00 00 00 00 00 00 	0000000000000000
  0x40e0	00 00 00 00 00 00 00 00 00 00 00 00 00 00 00 00 	0000000000000000
  0x40f0	00 00 00 00 00 00 00 00 00 00 00 00 00 00 00 00 	0000000000000000
  0x4100	00 00 00 00 00 00 00 00 00 00 00 00 00 00 00 00 	0000000000000000
  0x4110	00 00 00 00 00 00 00 00 00 00 00 00 00 00 00 00 	0000000000000000
  0x4120	00 00 00 00 00 00 00 00 00 00 00 00 00 00 00 00 	0000000000000000
  0x4130	00 00 00 00 00 00 00 00 00 00 00 00 00 00 00 00 	0000000000000000
  0x4140	00 00 00 00 00 00 00 00 00 00 00 00 00 00 00 00 	0000000000000000
  0x4150	00 00 00 00 00 00 00 00 00 00 00 00 00 00 00 00 	0000000000000000
  0x4160	00 00 00 00 00 00 00 00 00 00 00 00 00 00 00 00 	0000000000000000
  0x4170	00 00 00 00 00 00 00 00 00 00 00 00 00 00 00 00 	0000000000000000
  0x4180	00 00 00 00 00 00 00 00 00 00 00 00 00 00 00 00 	0000000000000000
  0x4190	00 00 00 00 00 00 00 00 00 00 00 00 00 00 00 00 	0000000000000000
  0x41a0	00 00 00 00 00 00 00 00 00 00 00 00 00 00 00 00 	0000000000000000
  0x41b0	00 00 00 00 00 00 00 00 00 00 00 00 00 00 00 00 	0000000000000000
  0x41c0	00 00 00 00 00 00 00 00 00 00 00 00 00 00 00 00 	0000000000000000
  0x41d0	00 00 00 00 00 00 00 00 00 00 00 00 00 00 00 00 	0000000000000000
  0x41e0	00 00 00 00 00 00 00 00 00 00 00 00 00 00 00 00 	0000000000000000
  0x41f0	00 00 00 00 00 00 00 00 00 00 00 00 00 00 00 00 	0000000000000000
=== DATA BLOCK END ===

=== DATA BLOCK ADDRESS 0x5000 ===
  0x5000	00 00 00 00 00 00 00 00 00 00 00 00 00 00 00 00 	0000000000000000
  0x5010	00 00 00 00 00 00 00 00 00 00 00 00 00 00 00 00 	0000000000000000
  0x5020	00 00 00 00 00 00 00 00 00 00 07 00 00 00 00 00 	0000000000000000
  0x5030	40 56 00 40 01 00 00 00 08 35 00 40 01 00 00 00 	@V0@0000050@0000
  0x5040	fc 34 00 40 01 00 00 00 00 00 00 00 00 00 00 00 	040@000000000000
  0x5050	01 00 00 00 00 00 00 00 32 a2 df 2d 99 2b 00 00 	00000000200-0+00
  0x5060	cd 5d 20 d2 66 d4 ff ff 00 00 00 00 00 00 00 00 	0] 0f00000000000
  0x5070	00 00 00 00 00 00 00 00 00 00 00 00 00 00 00 00 	0000000000000000
  0x5080	00 00 00 00 00 00 00 00 00 00 00 00 00 00 00 00 	0000000000000000
  0x5090	00 00 00 00 00 00 00 00 00 00 00 00 00 00 00 00 	0000000000000000
  0x50a0	00 00 00 00 00 00 00 00 00 00 00 00 00 00 00 00 	0000000000000000
  0x50b0	00 00 00 00 00 00 00 00 00 00 00 00 00 00 00 00 	0000000000000000
  0x50c0	00 00 00 00 00 00 00 00 00 00 00 00 00 00 00 00 	0000000000000000
  0x50d0	00 00 00 00 00 00 00 00 00 00 00 00 00 00 00 00 	0000000000000000
  0x50e0	00 00 00 00 00 00 00 00 00 00 00 00 00 00 00 00 	0000000000000000
  0x50f0	00 00 00 00 00 00 00 00 00 00 00 00 00 00 00 00 	0000000000000000
  0x5100	00 00 00 00 00 00 00 00 00 00 00 00 00 00 00 00 	0000000000000000
  0x5110	00 00 00 00 00 00 00 00 00 00 00 00 00 00 00 00 	0000000000000000
  0x5120	00 00 00 00 00 00 00 00 00 00 00 00 00 00 00 00 	0000000000000000
  0x5130	00 00 00 00 00 00 00 00 00 00 00 00 00 00 00 00 	0000000000000000
  0x5140	00 00 00 00 00 00 00 00 00 00 00 00 00 00 00 00 	0000000000000000
  0x5150	00 00 00 00 00 00 00 00 00 00 00 00 00 00 00 00 	0000000000000000
  0x5160	00 00 00 00 00 00 00 00 00 00 00 00 00 00 00 00 	0000000000000000
  0x5170	00 00 00 00 00 00 00 00 00 00 00 00 00 00 00 00 	0000000000000000
  0x5180	00 00 00 00 00 00 00 00 00 00 00 00 00 00 00 00 	0000000000000000
  0x5190	00 00 00 00 00 00 00 00 00 00 00 00 00 00 00 00 	0000000000000000
  0x51a0	00 00 00 00 00 00 00 00 00 00 00 00 00 00 00 00 	0000000000000000
  0x51b0	00 00 00 00 00 00 00 00 00 00 00 00 00 00 00 00 	0000000000000000
  0x51c0	00 00 00 00 00 00 00 00 00 00 00 00 00 00 00 00 	0000000000000000
  0x51d0	00 00 00 00 00 00 00 00 00 00 00 00 00 00 00 00 	0000000000000000
  0x51e0	00 00 00 00 00 00 00 00 00 00 00 00 00 00 00 00 	0000000000000000
  0x51f0	00 00 00 00 00 00 00 00 00 00 00 00 00 00 00 00 	0000000000000000
=== DATA BLOCK END ===

=== DATA BLOCK ADDRESS 0x6000 ===
  0x6000	24 10 00 00 1d 11 00 00 68 38 00 00 24 11 00 00 	$0000000h800$000
  0x6010	a6 11 00 00 78 38 00 00 b0 11 00 00 b5 12 00 00 	0000x80000000000
  0x6020	80 38 00 00 bc 12 00 00 1a 13 00 00 88 38 00 00 	0800000000000800
  0x6030	20 13 00 00 59 13 00 00 90 38 00 00 60 13 00 00 	 000Y0000800`000
  0x6040	8e 13 00 00 90 38 00 00 94 13 00 00 7b 14 00 00 	000008000000{000
  0x6050	98 38 00 00 84 14 00 00 42 15 00 00 b0 38 00 00 	08000000B0000800
  0x6060	48 15 00 00 06 16 00 00 b0 38 00 00 10 16 00 00 	H000000008000000
  0x6070	e3 16 00 00 90 38 00 00 f0 16 00 00 39 17 00 00 	0000080000009000
  0x6080	88 38 00 00 40 17 00 00 fe 18 00 00 c8 38 00 00 	0800@00000000800
  0x6090	10 19 00 00 22 19 00 00 90 38 00 00 40 19 00 00 	0000"0000800@000
  0x60a0	5e 19 00 00 00 39 00 00 70 19 00 00 a9 19 00 00 	^0000900p0000000
  0x60b0	90 38 00 00 b0 19 00 00 c8 19 00 00 90 38 00 00 	0800000000000800
  0x60c0	dc 19 00 00 30 1a 00 00 04 39 00 00 38 1a 00 00 	0000000009008000
  0x60d0	7d 1a 00 00 80 38 00 00 f0 1a 00 00 3d 1b 00 00 	}00008000000=000
  0x60e0	24 39 00 00 84 1b 00 00 58 1c 00 00 48 39 00 00 	$9000000X000H900
  0x60f0	78 1c 00 00 05 1d 00 00 54 39 00 00 0c 1d 00 00 	x0000000T9000000
  0x6100	23 1d 00 00 90 38 00 00 3c 1d 00 00 70 1d 00 00 	#0000800<000p000
  0x6110	80 38 00 00 80 1d 00 00 f1 1e 00 00 74 39 00 00 	080000000000t900
  0x6120	28 1f 00 00 45 1f 00 00 90 38 00 00 4c 1f 00 00 	(000E0000800L000
  0x6130	a7 1f 00 00 84 39 00 00 d0 1f 00 00 d2 1f 00 00 	0000090000000000
  0x6140	80 39 00 00 e0 1f 00 00 fe 1f 00 00 f4 38 00 00 	0900000000000800
  0x6150	10 20 00 00 30 20 00 00 f4 38 00 00 36 20 00 00 	0 000 0008006 00
  0x6160	51 20 00 00 f4 38 00 00 60 20 00 00 c6 20 00 00 	Q 000800` 000 00
  0x6170	80 38 00 00 00 00 00 00 00 00 00 00 00 00 00 00 	0800000000000000
  0x6180	00 00 00 00 00 00 00 00 00 00 00 00 00 00 00 00 	0000000000000000
  0x6190	00 00 00 00 00 00 00 00 00 00 00 00 00 00 00 00 	0000000000000000
  0x61a0	00 00 00 00 00 00 00 00 00 00 00 00 00 00 00 00 	0000000000000000
  0x61b0	00 00 00 00 00 00 00 00 00 00 00 00 00 00 00 00 	0000000000000000
  0x61c0	00 00 00 00 00 00 00 00 00 00 00 00 00 00 00 00 	0000000000000000
  0x61d0	00 00 00 00 00 00 00 00 00 00 00 00 00 00 00 00 	0000000000000000
  0x61e0	00 00 00 00 00 00 00 00 00 00 00 00 00 00 00 00 	0000000000000000
  0x61f0	00 00 00 00 00 00 00 00 00 00 00 00 00 00 00 00 	0000000000000000
=== DATA BLOCK END ===
