===== Assembly blocks =====

=== CODE BLOCK ADDRESS 0x1000 ===
  0x1000	int3   	
  0x1001	int3   	
  0x1002	int3   	
  0x1003	int3   	
  0x1004	int3   	
  === BLOCK LINK ===
    0x1005
=== CODE BLOCK END ===

=== CODE BLOCK ADDRESS 0x1005 ===
  0x1005	int3   	
  0x1006	int3   	
  0x1007	int3   	
  0x1008	dec    	eax
  0x1009	mov    	dword ptr [esp + 8], ebx
  === BLOCK LINK ===
    0x100d
=== CODE BLOCK END ===

=== CODE BLOCK ADDRESS 0x100d ===
  0x100d	dec    	eax
  0x100e	mov    	dword ptr [esp + 0x10], esi
  0x1012	push   	edi
  0x1013	dec    	eax
  0x1014	sub    	esp, 0x240
  === BLOCK LINK ===
    0x101a
=== CODE BLOCK END ===

=== CODE BLOCK ADDRESS 0x101a ===
  0x101a	dec    	eax
  0x101b	mov    	eax, dword ptr [0x3fe7]
  0x1021	dec    	eax
  0x1022	xor    	eax, esp
  0x1024	dec    	eax
  === BLOCK LINK ===
    0x1025
=== CODE BLOCK END ===

=== CODE BLOCK ADDRESS 0x1025 ===
  0x1025	mov    	dword ptr [esp + 0x230], eax
  0x102c	inc    	ebp
  0x102d	xor    	ecx, ecx
  0x102f	dec    	eax
  0x1030	mov    	edi, edx
  === BLOCK LINK ===
    0x1032
=== CODE BLOCK END ===

=== CODE BLOCK ADDRESS 0x1032 ===
  0x1032	mov    	ebx, ecx
  0x1034	inc    	ebp
  0x1035	xor    	eax, eax
  0x1037	xor    	ecx, ecx
  0x1039	inc    	ecx
  === BLOCK LINK ===
    0x103a
=== CODE BLOCK END ===

=== CODE BLOCK ADDRESS 0x103a ===
  0x103a	lea    	esi, [ecx + 1]
  0x103d	mov    	edx, esi
  0x103f	dec    	eax
  0x1040	call   	dword ptr [0x214a]
  === BLOCK LINK ===
    0x1046
=== CODE BLOCK END ===

=== CODE BLOCK ADDRESS 0x1046 ===
  0x1046	nop    	dword ptr [eax + eax]
  0x104b	xor    	ecx, ecx
  0x104d	dec    	eax
  0x104e	call   	dword ptr [0x217c]
  === BLOCK LINK ===
    0x1054
=== CODE BLOCK END ===

=== CODE BLOCK ADDRESS 0x1054 ===
  0x1054	nop    	dword ptr [eax + eax]
  0x1059	mov    	ecx, esi
  0x105b	call   	0x2158
  === BLOCK LINK ===
    0x1060
    0x2158
=== CODE BLOCK END ===

=== CODE BLOCK ADDRESS 0x1060 ===
  0x1060	dec    	eax
  0x1061	mov    	ecx, eax
  0x1063	call   	0x12d8
  === BLOCK LINK ===
    0x1068
    0x12d8
=== CODE BLOCK END ===

=== CODE BLOCK ADDRESS 0x1068 ===
  0x1068	lea    	ecx, [esi + 1]
  0x106b	call   	0x2158
  === BLOCK LINK ===
    0x1070
    0x2158
=== CODE BLOCK END ===

=== CODE BLOCK ADDRESS 0x1070 ===
  0x1070	dec    	eax
  0x1071	mov    	ecx, eax
  0x1073	call   	0x12d8
  === BLOCK LINK ===
    0x1078
    0x12d8
=== CODE BLOCK END ===

=== CODE BLOCK ADDRESS 0x1078 ===
  0x1078	mov    	ecx, 0x101
  0x107d	dec    	eax
  0x107e	lea    	edx, [0x457c]
  0x1084	dec    	eax
  0x1085	call   	dword ptr [0x20ad]
  === BLOCK LINK ===
    0x108b
=== CODE BLOCK END ===

=== CODE BLOCK ADDRESS 0x108b ===
  0x108b	nop    	dword ptr [eax + eax]
  0x1090	test   	eax, eax
  0x1092	je     	0x10a0
  === BLOCK LINK ===
    0x1094
    0x10a0
=== CODE BLOCK END ===

=== CODE BLOCK ADDRESS 0x1094 ===
  0x1094	mov    	edx, eax
  0x1096	mov    	ecx, 0x2713
  0x109b	call   	0x182c
  === BLOCK LINK ===
    0x10a0
    0x182c
=== CODE BLOCK END ===

=== CODE BLOCK ADDRESS 0x10a0 ===
  0x10a0	cmp    	ebx, esi
  0x10a2	jle    	0x110b
  === BLOCK LINK ===
    0x10a4
    0x110b
=== CODE BLOCK END ===

=== CODE BLOCK ADDRESS 0x10a4 ===
  0x10a4	dec    	eax
  0x10a5	mov    	edx, dword ptr [edi + 8]
  0x10a8	inc    	ecx
  0x10a9	mov    	eax, 0xfffd
  0x10ae	movzx  	eax, word ptr [edx]
  === BLOCK LINK ===
    0x10b1
=== CODE BLOCK END ===

=== CODE BLOCK ADDRESS 0x10b1 ===
  0x10b1	sub    	ax, 0x2d
  0x10b5	inc    	cx
  0x10b7	test   	eax, eax
  0x10b9	jne    	0x10e5
  === BLOCK LINK ===
    0x10bb
    0x10e5
=== CODE BLOCK END ===

=== CODE BLOCK ADDRESS 0x10bb ===
  0x10bb	cmp    	word ptr [edx + 2], 0x3f
  0x10c0	jne    	0x10e5
  === BLOCK LINK ===
    0x10c2
    0x10e5
=== CODE BLOCK END ===

=== CODE BLOCK ADDRESS 0x10c2 ===
  0x10c2	mov    	ecx, esi
  0x10c4	call   	0x2158
  === BLOCK LINK ===
    0x10c9
    0x2158
=== CODE BLOCK END ===

=== CODE BLOCK ADDRESS 0x10c9 ===
  0x10c9	dec    	eax
  0x10ca	mov    	ecx, eax
  0x10cc	mov    	edx, 0x2710
  0x10d1	call   	0x17a8
  === BLOCK LINK ===
    0x10d6
    0x17a8
=== CODE BLOCK END ===

=== CODE BLOCK ADDRESS 0x10d6 ===
  0x10d6	mov    	ecx, esi
  0x10d8	dec    	eax
  0x10d9	call   	dword ptr [0x2261]
  === BLOCK LINK ===
    0x10df
=== CODE BLOCK END ===

=== CODE BLOCK ADDRESS 0x10df ===
  0x10df	nop    	dword ptr [eax + eax]
  0x10e4	int3   	
  === BLOCK LINK ===
    0x10e5
    0x2158
=== CODE BLOCK END ===

=== CODE BLOCK ADDRESS 0x10ef ===
  0x10ef	dec    	eax
  0x10f0	mov    	ecx, eax
  0x10f2	mov    	edx, 0x2714
  0x10f7	call   	0x17a8
  === BLOCK LINK ===
    0x10fc
    0x17a8
=== CODE BLOCK END ===

=== CODE BLOCK ADDRESS 0x10fc ===
  0x10fc	mov    	ecx, esi
  0x10fe	dec    	eax
  0x10ff	call   	dword ptr [0x223b]
  === BLOCK LINK ===
    0x1105
=== CODE BLOCK END ===

=== CODE BLOCK ADDRESS 0x1105 ===
  0x1105	nop    	dword ptr [eax + eax]
  0x110a	int3   	
  === BLOCK LINK ===
    0x110b
=== CODE BLOCK END ===

=== CODE BLOCK ADDRESS 0x1115 ===
  0x1115	dec    	eax
  0x1116	call   	dword ptr [0x2024]
  === BLOCK LINK ===
    0x111c
=== CODE BLOCK END ===

=== CODE BLOCK ADDRESS 0x111c ===
  0x111c	nop    	dword ptr [eax + eax]
  0x1121	test   	eax, eax
  0x1123	jns    	0x114c
  === BLOCK LINK ===
    0x1125
    0x114c
=== CODE BLOCK END ===

=== CODE BLOCK ADDRESS 0x1125 ===
  0x1125	dec    	eax
  0x1126	call   	dword ptr [0x2034]
  === BLOCK LINK ===
    0x112c
=== CODE BLOCK END ===

=== CODE BLOCK ADDRESS 0x112c ===
  0x112c	nop    	dword ptr [eax + eax]
  0x1131	mov    	edx, eax
  0x1133	mov    	ecx, 0x2712
  0x1138	call   	0x182c
  === BLOCK LINK ===
    0x113d
    0x182c
=== CODE BLOCK END ===

=== CODE BLOCK ADDRESS 0x113d ===
  0x113d	mov    	ecx, esi
  0x113f	dec    	eax
  0x1140	call   	dword ptr [0x21fa]
  === BLOCK LINK ===
    0x1146
=== CODE BLOCK END ===

=== CODE BLOCK ADDRESS 0x1146 ===
  0x1146	nop    	dword ptr [eax + eax]
  0x114b	int3   	
  === BLOCK LINK ===
    0x114c
    0x2158
=== CODE BLOCK END ===

=== CODE BLOCK ADDRESS 0x1153 ===
  0x1153	dec    	eax
  0x1154	mov    	ecx, eax
  0x1156	dec    	eax
  0x1157	lea    	edx, [esp + 0x20]
  0x115b	call   	0x1478
  === BLOCK LINK ===
    0x1160
    0x1478
=== CODE BLOCK END ===

=== CODE BLOCK ADDRESS 0x1160 ===
  0x1160	mov    	ecx, esi
  0x1162	call   	0x2158
  === BLOCK LINK ===
    0x1167
    0x2158
=== CODE BLOCK END ===

=== CODE BLOCK ADDRESS 0x1167 ===
  0x1167	dec    	eax
  0x1168	mov    	ecx, eax
  0x116a	dec    	eax
  0x116b	lea    	edx, [0x224f]
  0x1171	call   	0x1478
  === BLOCK LINK ===
    0x1176
    0x1478
=== CODE BLOCK END ===

=== CODE BLOCK ADDRESS 0x1176 ===
  0x1176	xor    	ecx, ecx
  0x1178	dec    	eax
  0x1179	call   	dword ptr [0x21c1]
  === BLOCK LINK ===
    0x117f
=== CODE BLOCK END ===

=== CODE BLOCK ADDRESS 0x117f ===
  0x117f	nop    	dword ptr [eax + eax]
  0x1184	int3   	
  0x1185	int3   	
  0x1186	int3   	
  0x1187	int3   	
  === BLOCK LINK ===
    0x1188
=== CODE BLOCK END ===

=== CODE BLOCK ADDRESS 0x1188 ===
  0x1188	int3   	
  0x1189	int3   	
  0x118a	int3   	
  0x118b	int3   	
  0x118c	dec    	eax
  === BLOCK LINK ===
    0x118d
=== CODE BLOCK END ===

=== CODE BLOCK ADDRESS 0x118d ===
  0x118d	mov    	dword ptr [esp + 8], ebx
  0x1191	dec    	eax
  0x1192	mov    	dword ptr [esp + 0x10], ebp
  0x1196	dec    	eax
  0x1197	mov    	dword ptr [esp + 0x20], esi
  === BLOCK LINK ===
    0x119b
=== CODE BLOCK END ===

=== CODE BLOCK ADDRESS 0x119b ===
  0x119b	push   	edi
  0x119c	dec    	eax
  0x119d	sub    	esp, 0x20
  0x11a0	dec    	eax
  0x11a1	mov    	esi, ecx
  === BLOCK LINK ===
    0x11a3
=== CODE BLOCK END ===

=== CODE BLOCK ADDRESS 0x11a3 ===
  0x11a3	dec    	eax
  0x11a4	mov    	ebp, edx
  0x11a6	dec    	eax
  0x11a7	mov    	ecx, edx
  0x11a9	dec    	eax
  === BLOCK LINK ===
    0x11aa
=== CODE BLOCK END ===

=== CODE BLOCK ADDRESS 0x11aa ===
  0x11aa	call   	dword ptr [0x1fd0]
  === BLOCK LINK ===
    0x11b0
=== CODE BLOCK END ===

=== CODE BLOCK ADDRESS 0x11b0 ===
  0x11b0	nop    	dword ptr [eax + eax]
  0x11b5	xor    	ebx, ebx
  0x11b7	mov    	edi, eax
  0x11b9	test   	eax, eax
  0x11bb	jne    	0x11db
  === BLOCK LINK ===
    0x11bd
    0x11db
=== CODE BLOCK END ===

=== CODE BLOCK ADDRESS 0x11bd ===
  0x11bd	dec    	eax
  0x11be	call   	dword ptr [0x1f9c]
  === BLOCK LINK ===
    0x11c4
=== CODE BLOCK END ===

=== CODE BLOCK ADDRESS 0x11c4 ===
  0x11c4	nop    	dword ptr [eax + eax]
  0x11c9	test   	eax, eax
  0x11cb	je     	0x11db
  === BLOCK LINK ===
    0x11cd
    0x11db
=== CODE BLOCK END ===

=== CODE BLOCK ADDRESS 0x11cd ===
  0x11cd	dec    	eax
  0x11ce	call   	dword ptr [0x1f8c]
  === BLOCK LINK ===
    0x11d4
=== CODE BLOCK END ===

=== CODE BLOCK ADDRESS 0x11d4 ===
  0x11d4	nop    	dword ptr [eax + eax]
  0x11d9	jmp    	0x1216
  === BLOCK LINK ===
    0x11db
    0x1216
=== CODE BLOCK END ===

=== CODE BLOCK ADDRESS 0x11db ===
  0x11db	btr    	edi, 0xf
  0x11df	cmp    	edi, 2
  0x11e2	jne    	0x1212
  === BLOCK LINK ===
    0x11e4
    0x1212
=== CODE BLOCK END ===

=== CODE BLOCK ADDRESS 0x11e4 ===
  0x11e4	dec    	eax
  0x11e5	lea    	edx, [esp + 0x40]
  0x11e9	dec    	eax
  0x11ea	mov    	ecx, ebp
  0x11ec	dec    	eax
  === BLOCK LINK ===
    0x11ed
=== CODE BLOCK END ===

=== CODE BLOCK ADDRESS 0x11ed ===
  0x11ed	call   	dword ptr [0x1f5d]
  === BLOCK LINK ===
    0x11f3
=== CODE BLOCK END ===

=== CODE BLOCK ADDRESS 0x11f3 ===
  0x11f3	nop    	dword ptr [eax + eax]
  0x11f8	test   	eax, eax
  0x11fa	jne    	0x120d
  === BLOCK LINK ===
    0x11fc
    0x120d
=== CODE BLOCK END ===

=== CODE BLOCK ADDRESS 0x11fc ===
  0x11fc	dec    	eax
  0x11fd	call   	dword ptr [0x1f5d]
  === BLOCK LINK ===
    0x1203
=== CODE BLOCK END ===

=== CODE BLOCK ADDRESS 0x1203 ===
  0x1203	nop    	dword ptr [eax + eax]
  0x1208	cmp    	eax, 6
  0x120b	je     	0x1212
  === BLOCK LINK ===
    0x120d
    0x1212
=== CODE BLOCK END ===

=== CODE BLOCK ADDRESS 0x120d ===
  0x120d	mov    	ebx, 1
  === BLOCK LINK ===
    0x1212
=== CODE BLOCK END ===

=== CODE BLOCK ADDRESS 0x121b ===
  0x121b	dec    	eax
  0x121c	mov    	ebp, dword ptr [esp + 0x38]
  0x1220	dec    	eax
  0x1221	mov    	esi, dword ptr [esp + 0x48]
  0x1225	dec    	eax
  === BLOCK LINK ===
    0x1226
=== CODE BLOCK END ===

=== CODE BLOCK ADDRESS 0x1226 ===
  0x1226	add    	esp, 0x20
  0x1229	pop    	edi
  0x122a	ret    	
  0x122b	int3   	
  0x122c	int3   	
  === BLOCK LINK ===
    0x122d
=== CODE BLOCK END ===

=== CODE BLOCK ADDRESS 0x2158 ===
=== CODE BLOCK END ===

=== CODE BLOCK ADDRESS 0x122d ===
  0x122d	int3   	
  0x122e	int3   	
  0x122f	int3   	
  0x1230	int3   	
  0x1231	int3   	
  === BLOCK LINK ===
    0x1232
=== CODE BLOCK END ===

=== CODE BLOCK ADDRESS 0x1232 ===
  0x1232	int3   	
  0x1233	int3   	
  0x1234	dec    	eax
  0x1235	mov    	dword ptr [esp + 0x18], ebx
  0x1239	push   	edi
  === BLOCK LINK ===
    0x123a
=== CODE BLOCK END ===

=== CODE BLOCK ADDRESS 0x123a ===
  0x123a	dec    	eax
  0x123b	sub    	esp, 0x20
  0x123e	dec    	eax
  0x123f	mov    	ebx, edx
  0x1241	dec    	eax
  === BLOCK LINK ===
    0x1242
=== CODE BLOCK END ===

=== CODE BLOCK ADDRESS 0x1242 ===
  0x1242	mov    	edi, ecx
  0x1244	inc    	ecx
  0x1245	cmp    	eax, 0x4f
  0x1248	jae    	0x12c3
  === BLOCK LINK ===
    0x124a
    0x12c3
=== CODE BLOCK END ===

=== CODE BLOCK ADDRESS 0x124a ===
  0x124a	dec    	eax
  0x124b	lea    	edx, [0x2197]
  0x1251	dec    	eax
  0x1252	mov    	ecx, ebx
  0x1254	dec    	eax
  === BLOCK LINK ===
    0x1255
=== CODE BLOCK END ===

=== CODE BLOCK ADDRESS 0x1255 ===
  0x1255	call   	dword ptr [0x2045]
  === BLOCK LINK ===
    0x125b
=== CODE BLOCK END ===

=== CODE BLOCK ADDRESS 0x125b ===
  0x125b	nop    	dword ptr [eax + eax]
  0x1260	test   	eax, eax
  0x1262	jne    	0x126b
  === BLOCK LINK ===
    0x1264
    0x126b
=== CODE BLOCK END ===

=== CODE BLOCK ADDRESS 0x1264 ===
  0x1264	mov    	eax, 1
  0x1269	jmp    	0x12c5
  === BLOCK LINK ===
    0x126b
=== CODE BLOCK END ===

=== CODE BLOCK ADDRESS 0x126b ===
  0x126b	dec    	eax
  0x126c	lea    	edx, [0x2186]
  0x1272	dec    	eax
  0x1273	mov    	ecx, ebx
  0x1275	dec    	eax
  === BLOCK LINK ===
    0x1276
=== CODE BLOCK END ===

=== CODE BLOCK ADDRESS 0x1276 ===
  0x1276	call   	dword ptr [0x2024]
  === BLOCK LINK ===
    0x127c
=== CODE BLOCK END ===

=== CODE BLOCK ADDRESS 0x127c ===
  0x127c	nop    	dword ptr [eax + eax]
  0x1281	test   	eax, eax
  0x1283	jne    	0x1289
  === BLOCK LINK ===
    0x1285
=== CODE BLOCK END ===

=== CODE BLOCK ADDRESS 0x1285 ===
  0x1285	and    	dword ptr [edi], eax
  0x1287	jmp    	0x12c3
  === BLOCK LINK ===
    0x1289
=== CODE BLOCK END ===

=== CODE BLOCK ADDRESS 0x1289 ===
  0x1289	dec    	eax
  0x128a	lea    	edx, [0x2178]
  0x1290	dec    	eax
  0x1291	mov    	ecx, ebx
  0x1293	dec    	eax
  === BLOCK LINK ===
    0x1294
=== CODE BLOCK END ===

=== CODE BLOCK ADDRESS 0x1294 ===
  0x1294	call   	dword ptr [0x2006]
  === BLOCK LINK ===
    0x129a
=== CODE BLOCK END ===

=== CODE BLOCK ADDRESS 0x129a ===
  0x129a	nop    	dword ptr [eax + eax]
  0x129f	test   	eax, eax
  0x12a1	je     	0x12bd
  === BLOCK LINK ===
    0x12a3
=== CODE BLOCK END ===

=== CODE BLOCK ADDRESS 0x12a3 ===
  0x12a3	dec    	eax
  0x12a4	lea    	edx, [0x216e]
  0x12aa	dec    	eax
  0x12ab	mov    	ecx, ebx
  0x12ad	dec    	eax
  === BLOCK LINK ===
    0x12ae
=== CODE BLOCK END ===

=== CODE BLOCK ADDRESS 0x12ae ===
  0x12ae	call   	dword ptr [0x1fec]
  === BLOCK LINK ===
    0x12b4
=== CODE BLOCK END ===

=== CODE BLOCK ADDRESS 0x12b4 ===
  0x12b4	nop    	dword ptr [eax + eax]
  0x12b9	test   	eax, eax
  0x12bb	jne    	0x12c3
  === BLOCK LINK ===
    0x12bd
=== CODE BLOCK END ===

=== CODE BLOCK ADDRESS 0x12bd ===
  0x12bd	mov    	dword ptr [edi], 0xfde9
  === BLOCK LINK ===
    0x12c3
=== CODE BLOCK END ===

=== CODE BLOCK ADDRESS 0x12cb ===
  0x12cb	add    	esp, 0x20
  0x12ce	pop    	edi
  0x12cf	ret    	
  0x12d0	int3   	
  0x12d1	int3   	
  === BLOCK LINK ===
    0x12d2
=== CODE BLOCK END ===

=== CODE BLOCK ADDRESS 0x12d8 ===
=== CODE BLOCK END ===

=== CODE BLOCK ADDRESS 0x12d2 ===
  0x12d2	int3   	
  0x12d3	int3   	
  0x12d4	int3   	
  0x12d5	int3   	
  0x12d6	int3   	
  === BLOCK LINK ===
    0x12d7
=== CODE BLOCK END ===

=== CODE BLOCK ADDRESS 0x12d7 ===
  0x12d7	int3   	
  0x12d8	inc    	eax
  0x12d9	push   	ebx
  0x12da	dec    	eax
  0x12db	sub    	esp, 0xe0
  === BLOCK LINK ===
    0x12e1
=== CODE BLOCK END ===

=== CODE BLOCK ADDRESS 0x12e1 ===
  0x12e1	dec    	eax
  0x12e2	mov    	eax, dword ptr [0x3d20]
  0x12e8	dec    	eax
  0x12e9	xor    	eax, esp
  0x12eb	dec    	eax
  === BLOCK LINK ===
    0x12ec
=== CODE BLOCK END ===

=== CODE BLOCK ADDRESS 0x12ec ===
  0x12ec	mov    	dword ptr [esp + 0xd0], eax
  0x12f3	dec    	eax
  0x12f4	mov    	ebx, ecx
  0x12f6	dec    	eax
  0x12f7	call   	dword ptr [0x1fc3]
  === BLOCK LINK ===
    0x12fd
=== CODE BLOCK END ===

=== CODE BLOCK ADDRESS 0x12fd ===
  0x12fd	nop    	dword ptr [eax + eax]
  0x1302	mov    	ecx, eax
  0x1304	dec    	eax
  0x1305	call   	dword ptr [0x1f8d]
  === BLOCK LINK ===
    0x130b
=== CODE BLOCK END ===

=== CODE BLOCK ADDRESS 0x130b ===
  0x130b	nop    	dword ptr [eax + eax]
  0x1310	dec    	eax
  0x1311	cmp    	eax, -1
  0x1314	je     	0x1456
  === BLOCK LINK ===
    0x131a
=== CODE BLOCK END ===

=== CODE BLOCK ADDRESS 0x131a ===
  0x131a	dec    	eax
  0x131b	mov    	edx, eax
  0x131d	dec    	eax
  0x131e	lea    	ecx, [esp + 0x20]
  0x1322	call   	0x118c
  === BLOCK LINK ===
    0x1327
=== CODE BLOCK END ===

=== CODE BLOCK ADDRESS 0x1327 ===
  0x1327	test   	eax, eax
  0x1329	jne    	0x1456
  === BLOCK LINK ===
    0x132f
=== CODE BLOCK END ===

=== CODE BLOCK ADDRESS 0x132f ===
  0x132f	cmp    	dword ptr [esp + 0x20], eax
  0x1333	jne    	0x1456
  === BLOCK LINK ===
    0x1339
=== CODE BLOCK END ===

=== CODE BLOCK ADDRESS 0x1339 ===
  0x1339	inc    	esp
  0x133a	lea    	eax, [eax + 0x50]
  0x133d	dec    	eax
  0x133e	lea    	edx, [esp + 0x30]
  0x1342	dec    	eax
  === BLOCK LINK ===
    0x1343
=== CODE BLOCK END ===

=== CODE BLOCK ADDRESS 0x1343 ===
  0x1343	lea    	ecx, [0x207f]
  0x1349	dec    	eax
  0x134a	call   	dword ptr [0x1e90]
  === BLOCK LINK ===
    0x1350
=== CODE BLOCK END ===

=== CODE BLOCK ADDRESS 0x1350 ===
  0x1350	nop    	dword ptr [eax + eax]
  0x1355	mov    	ecx, 1
  0x135a	mov    	dword ptr [esp + 0x20], ecx
  0x135e	test   	eax, eax
  0x1360	je     	0x137a
  === BLOCK LINK ===
    0x1362
=== CODE BLOCK END ===

=== CODE BLOCK ADDRESS 0x1362 ===
  0x1362	inc    	esp
  0x1363	mov    	eax, eax
  0x1365	dec    	eax
  0x1366	lea    	edx, [esp + 0x30]
  0x136a	dec    	eax
  === BLOCK LINK ===
    0x136b
=== CODE BLOCK END ===

=== CODE BLOCK ADDRESS 0x136b ===
  0x136b	lea    	ecx, [esp + 0x20]
  0x136f	call   	0x1234
  === BLOCK LINK ===
    0x1374
=== CODE BLOCK END ===

=== CODE BLOCK ADDRESS 0x1374 ===
  0x1374	mov    	ecx, dword ptr [esp + 0x20]
  0x1378	jmp    	0x137c
  === BLOCK LINK ===
    0x137a
=== CODE BLOCK END ===

=== CODE BLOCK ADDRESS 0x137a ===
  0x137a	xor    	eax, eax
  0x137c	test   	eax, eax
  0x137e	je     	0x13e2
  === BLOCK LINK ===
    0x1380
=== CODE BLOCK END ===

=== CODE BLOCK ADDRESS 0x1380 ===
  0x1380	dec    	eax
  0x1381	lea    	edx, [esp + 0x28]
  0x1385	dec    	eax
  0x1386	mov    	ecx, ebx
  0x1388	dec    	eax
  === BLOCK LINK ===
    0x1389
=== CODE BLOCK END ===

=== CODE BLOCK ADDRESS 0x1389 ===
  0x1389	call   	dword ptr [0x1f49]
  === BLOCK LINK ===
    0x138f
=== CODE BLOCK END ===

=== CODE BLOCK ADDRESS 0x138f ===
  0x138f	nop    	dword ptr [eax + eax]
  0x1394	test   	eax, eax
  0x1396	jne    	0x1456
  === BLOCK LINK ===
    0x139c
=== CODE BLOCK END ===

=== CODE BLOCK ADDRESS 0x139c ===
  0x139c	dec    	eax
  0x139d	cmp    	dword ptr [esp + 0x28], 0
  0x13a2	jne    	0x1456
  === BLOCK LINK ===
    0x13a8
=== CODE BLOCK END ===

=== CODE BLOCK ADDRESS 0x13a8 ===
  0x13a8	dec    	eax
  0x13a9	mov    	ecx, ebx
  0x13ab	dec    	eax
  0x13ac	call   	dword ptr [0x1f0e]
  === BLOCK LINK ===
    0x13b2
=== CODE BLOCK END ===

=== CODE BLOCK ADDRESS 0x13b2 ===
  0x13b2	nop    	dword ptr [eax + eax]
  0x13b7	mov    	ecx, eax
  0x13b9	mov    	edx, 0x20000
  0x13be	dec    	eax
  0x13bf	call   	dword ptr [0x1eeb]
  === BLOCK LINK ===
    0x13c5
=== CODE BLOCK END ===

=== CODE BLOCK ADDRESS 0x13c5 ===
  0x13c5	nop    	dword ptr [eax + eax]
  0x13ca	dec    	eax
  0x13cb	lea    	edx, [0x2053]
  0x13d1	dec    	eax
  0x13d2	mov    	ecx, ebx
  === BLOCK LINK ===
    0x13d4
=== CODE BLOCK END ===

=== CODE BLOCK ADDRESS 0x13d4 ===
  0x13d4	dec    	eax
  0x13d5	call   	dword ptr [0x1f05]
  === BLOCK LINK ===
    0x13db
=== CODE BLOCK END ===

=== CODE BLOCK ADDRESS 0x13db ===
  0x13db	nop    	dword ptr [eax + eax]
  0x13e0	jmp    	0x1456
  === BLOCK LINK ===
    0x13e2
=== CODE BLOCK END ===

=== CODE BLOCK ADDRESS 0x13e2 ===
  0x13e2	cmp    	ecx, 0xfde9
  0x13e8	jne    	0x1456
  === BLOCK LINK ===
    0x13ea
=== CODE BLOCK END ===

=== CODE BLOCK ADDRESS 0x13ea ===
  0x13ea	dec    	eax
  0x13eb	lea    	edx, [esp + 0x28]
  0x13ef	dec    	eax
  0x13f0	mov    	ecx, ebx
  0x13f2	dec    	eax
  === BLOCK LINK ===
    0x13f3
=== CODE BLOCK END ===

=== CODE BLOCK ADDRESS 0x13f3 ===
  0x13f3	call   	dword ptr [0x1edf]
  === BLOCK LINK ===
    0x13f9
=== CODE BLOCK END ===

=== CODE BLOCK ADDRESS 0x13f9 ===
  0x13f9	nop    	dword ptr [eax + eax]
  0x13fe	test   	eax, eax
  0x1400	jne    	0x1456
  === BLOCK LINK ===
    0x1402
=== CODE BLOCK END ===

=== CODE BLOCK ADDRESS 0x1402 ===
  0x1402	dec    	eax
  0x1403	cmp    	dword ptr [esp + 0x28], 0
  0x1408	jne    	0x1456
  === BLOCK LINK ===
    0x140a
=== CODE BLOCK END ===

=== CODE BLOCK ADDRESS 0x140a ===
  0x140a	dec    	eax
  0x140b	mov    	ecx, ebx
  0x140d	dec    	eax
  0x140e	call   	dword ptr [0x1eac]
  === BLOCK LINK ===
    0x1414
=== CODE BLOCK END ===

=== CODE BLOCK ADDRESS 0x1414 ===
  0x1414	nop    	dword ptr [eax + eax]
  0x1419	mov    	ecx, eax
  0x141b	mov    	edx, 0x8000
  0x1420	dec    	eax
  0x1421	call   	dword ptr [0x1e89]
  === BLOCK LINK ===
    0x1427
=== CODE BLOCK END ===

=== CODE BLOCK ADDRESS 0x1427 ===
  0x1427	nop    	dword ptr [eax + eax]
  0x142c	dec    	eax
  0x142d	mov    	ecx, ebx
  0x142f	dec    	eax
  0x1430	call   	dword ptr [0x1e8a]
  === BLOCK LINK ===
    0x1436
=== CODE BLOCK END ===

=== CODE BLOCK ADDRESS 0x1436 ===
  0x1436	nop    	dword ptr [eax + eax]
  0x143b	inc    	ecx
  0x143c	mov    	eax, 3
  0x1441	dec    	eax
  0x1442	lea    	edx, [0x1fe0]
  === BLOCK LINK ===
    0x1448
=== CODE BLOCK END ===

=== CODE BLOCK ADDRESS 0x1448 ===
  0x1448	mov    	ecx, eax
  0x144a	dec    	eax
  0x144b	call   	dword ptr [0x1e67]
  === BLOCK LINK ===
    0x1451
=== CODE BLOCK END ===

=== CODE BLOCK ADDRESS 0x1451 ===
  0x1451	nop    	dword ptr [eax + eax]
  0x1456	dec    	eax
  0x1457	mov    	ecx, dword ptr [esp + 0xd0]
  0x145e	dec    	eax
  0x145f	xor    	ecx, esp
  === BLOCK LINK ===
    0x1461
=== CODE BLOCK END ===

=== CODE BLOCK ADDRESS 0x1461 ===
  0x1461	call   	0x1c40
  === BLOCK LINK ===
    0x1466
=== CODE BLOCK END ===

=== CODE BLOCK ADDRESS 0x1466 ===
  0x1466	dec    	eax
  0x1467	add    	esp, 0xe0
  0x146d	pop    	ebx
  0x146e	ret    	
  0x146f	int3   	
  === BLOCK LINK ===
    0x1470
=== CODE BLOCK END ===

=== CODE BLOCK ADDRESS 0x1470 ===
  0x1470	int3   	
  0x1471	int3   	
  0x1472	int3   	
  0x1473	int3   	
  0x1474	int3   	
  === BLOCK LINK ===
    0x1475
=== CODE BLOCK END ===

=== CODE BLOCK ADDRESS 0x1475 ===
  0x1475	int3   	
  0x1476	int3   	
  0x1477	int3   	
  === BLOCK LINK ===
    0x1478
=== CODE BLOCK END ===

=== CODE BLOCK ADDRESS 0x147d ===
  0x147d	dec    	eax
  0x147e	mov    	dword ptr [esp + 0x20], ebp
  0x1482	push   	esi
  0x1483	push   	edi
  0x1484	inc    	ecx
  === BLOCK LINK ===
    0x1485
=== CODE BLOCK END ===

=== CODE BLOCK ADDRESS 0x1485 ===
  0x1485	push   	esp
  0x1486	inc    	ecx
  0x1487	push   	esi
  0x1488	inc    	ecx
  0x1489	push   	edi
  === BLOCK LINK ===
    0x148a
=== CODE BLOCK END ===

=== CODE BLOCK ADDRESS 0x148a ===
  0x148a	dec    	eax
  0x148b	sub    	esp, 0x100
  0x1491	dec    	eax
  0x1492	mov    	eax, dword ptr [0x3b70]
  0x1498	dec    	eax
  === BLOCK LINK ===
    0x1499
=== CODE BLOCK END ===

=== CODE BLOCK ADDRESS 0x1499 ===
  0x1499	xor    	eax, esp
  0x149b	dec    	eax
  0x149c	mov    	dword ptr [esp + 0xf0], eax
  0x14a3	inc    	ebp
  0x14a4	xor    	esi, esi
  === BLOCK LINK ===
    0x14a6
=== CODE BLOCK END ===

=== CODE BLOCK ADDRESS 0x14a6 ===
  0x14a6	dec    	esp
  0x14a7	mov    	edi, edx
  0x14a9	dec    	eax
  0x14aa	mov    	edi, ecx
  0x14ac	xor    	esi, esi
  === BLOCK LINK ===
    0x14ae
=== CODE BLOCK END ===

=== CODE BLOCK ADDRESS 0x14ae ===
  0x14ae	inc    	ebp
  0x14af	lea    	esp, [esi + 1]
  0x14b2	inc    	ecx
  0x14b3	mov    	ebx, esp
  0x14b5	mov    	dword ptr [esp + 0x40], ebx
  === BLOCK LINK ===
    0x14b9
=== CODE BLOCK END ===

=== CODE BLOCK ADDRESS 0x14b9 ===
  0x14b9	dec    	eax
  0x14ba	call   	dword ptr [0x1de8]
  === BLOCK LINK ===
    0x14c0
=== CODE BLOCK END ===

=== CODE BLOCK ADDRESS 0x14c0 ===
  0x14c0	nop    	dword ptr [eax + eax]
  0x14c5	dec    	eax
  0x14c6	mov    	ecx, edi
  0x14c8	dec    	eax
  0x14c9	call   	dword ptr [0x1df1]
  === BLOCK LINK ===
    0x14cf
=== CODE BLOCK END ===

=== CODE BLOCK ADDRESS 0x14cf ===
  0x14cf	nop    	dword ptr [eax + eax]
  0x14d4	mov    	ecx, eax
  0x14d6	dec    	eax
  0x14d7	call   	dword ptr [0x1dbb]
  === BLOCK LINK ===
    0x14dd
=== CODE BLOCK END ===

=== CODE BLOCK ADDRESS 0x14dd ===
  0x14dd	nop    	dword ptr [eax + eax]
  0x14e2	dec    	eax
  0x14e3	cmp    	eax, -1
  0x14e6	je     	0x1501
  === BLOCK LINK ===
    0x14e8
=== CODE BLOCK END ===

=== CODE BLOCK ADDRESS 0x14e8 ===
  0x14e8	dec    	eax
  0x14e9	mov    	edx, eax
  0x14eb	dec    	eax
  0x14ec	lea    	ecx, [esp + 0x40]
  0x14f0	call   	0x118c
  === BLOCK LINK ===
    0x14f5
=== CODE BLOCK END ===

=== CODE BLOCK ADDRESS 0x14f5 ===
  0x14f5	mov    	ebx, dword ptr [esp + 0x40]
  0x14f9	test   	eax, eax
  0x14fb	jne    	0x1501
  === BLOCK LINK ===
    0x14fd
=== CODE BLOCK END ===

=== CODE BLOCK ADDRESS 0x14fd ===
  0x14fd	test   	ebx, ebx
  0x14ff	je     	0x1526
  === BLOCK LINK ===
    0x1501
=== CODE BLOCK END ===

=== CODE BLOCK ADDRESS 0x1501 ===
  0x1501	dec    	eax
  0x1502	mov    	ecx, edi
  0x1504	dec    	eax
  0x1505	call   	dword ptr [0x1db5]
  === BLOCK LINK ===
    0x150b
=== CODE BLOCK END ===

=== CODE BLOCK ADDRESS 0x150b ===
  0x150b	nop    	dword ptr [eax + eax]
  0x1510	mov    	ecx, eax
  0x1512	mov    	edx, 0x20000
  0x1517	dec    	eax
  0x1518	call   	dword ptr [0x1d92]
  === BLOCK LINK ===
    0x151e
=== CODE BLOCK END ===

=== CODE BLOCK ADDRESS 0x151e ===
  0x151e	nop    	dword ptr [eax + eax]
  0x1523	inc    	esp
  0x1524	mov    	esi, eax
  0x1526	inc    	ecx
  0x1527	mov    	eax, 0x50
  === BLOCK LINK ===
    0x152c
=== CODE BLOCK END ===

=== CODE BLOCK ADDRESS 0x152c ===
  0x152c	dec    	eax
  0x152d	lea    	edx, [esp + 0x50]
  0x1531	dec    	eax
  0x1532	lea    	ecx, [0x1e90]
  0x1538	dec    	eax
  === BLOCK LINK ===
    0x1539
=== CODE BLOCK END ===

=== CODE BLOCK ADDRESS 0x1539 ===
  0x1539	call   	dword ptr [0x1ca1]
  === BLOCK LINK ===
    0x153f
=== CODE BLOCK END ===

=== CODE BLOCK ADDRESS 0x153f ===
  0x153f	nop    	dword ptr [eax + eax]
  0x1544	inc    	esp
  0x1545	mov    	dword ptr [esp + 0x40], esp
  0x1549	test   	eax, eax
  0x154b	je     	0x1568
  === BLOCK LINK ===
    0x154d
=== CODE BLOCK END ===

=== CODE BLOCK ADDRESS 0x154d ===
  0x154d	inc    	esp
  0x154e	mov    	eax, eax
  0x1550	dec    	eax
  0x1551	lea    	edx, [esp + 0x50]
  0x1555	dec    	eax
  === BLOCK LINK ===
    0x1556
=== CODE BLOCK END ===

=== CODE BLOCK ADDRESS 0x1556 ===
  0x1556	lea    	ecx, [esp + 0x40]
  0x155a	call   	0x1234
  === BLOCK LINK ===
    0x155f
=== CODE BLOCK END ===

=== CODE BLOCK ADDRESS 0x155f ===
  0x155f	inc    	esp
  0x1560	mov    	esp, dword ptr [esp + 0x40]
  0x1564	mov    	ebp, eax
  0x1566	jmp    	0x156a
  === BLOCK LINK ===
    0x1568
=== CODE BLOCK END ===

=== CODE BLOCK ADDRESS 0x1568 ===
  0x1568	xor    	ebp, ebp
  0x156a	test   	ebx, ebx
  0x156c	jne    	0x1679
  === BLOCK LINK ===
    0x1572
=== CODE BLOCK END ===

=== CODE BLOCK ADDRESS 0x1572 ===
  0x1572	lea    	edx, [ebx + 0xd]
  0x1575	dec    	ecx
  0x1576	mov    	ecx, edi
  0x1578	dec    	eax
  0x1579	call   	dword ptr [0x1d51]
  === BLOCK LINK ===
    0x157f
=== CODE BLOCK END ===

=== CODE BLOCK ADDRESS 0x157f ===
  0x157f	nop    	dword ptr [eax + eax]
  0x1584	dec    	eax
  0x1585	mov    	ecx, edi
  0x1587	dec    	eax
  0x1588	test   	eax, eax
  === BLOCK LINK ===
    0x158a
=== CODE BLOCK END ===

=== CODE BLOCK ADDRESS 0x158a ===
  0x158a	je     	0x159f
  === BLOCK LINK ===
    0x158c
=== CODE BLOCK END ===

=== CODE BLOCK ADDRESS 0x158c ===
  0x158c	dec    	eax
  0x158d	call   	dword ptr [0x1d2d]
  === BLOCK LINK ===
    0x1593
=== CODE BLOCK END ===

=== CODE BLOCK ADDRESS 0x1593 ===
  0x1593	nop    	dword ptr [eax + eax]
  0x1598	mov    	edx, 0x8000
  0x159d	jmp    	0x15bd
  === BLOCK LINK ===
    0x159f
=== CODE BLOCK END ===

=== CODE BLOCK ADDRESS 0x159f ===
  0x159f	mov    	eax, ebp
  0x15a1	neg    	eax
  0x15a3	sbb    	ebx, ebx
  0x15a5	and    	ebx, 0x1c000
  0x15ab	dec    	eax
  === BLOCK LINK ===
    0x15ac
=== CODE BLOCK END ===

=== CODE BLOCK ADDRESS 0x15ac ===
  0x15ac	call   	dword ptr [0x1d0e]
  === BLOCK LINK ===
    0x15b2
=== CODE BLOCK END ===

=== CODE BLOCK ADDRESS 0x15b2 ===
  0x15b2	nop    	dword ptr [eax + eax]
  0x15b7	lea    	edx, [ebx + 0x4000]
  0x15bd	mov    	ecx, eax
  0x15bf	dec    	eax
  0x15c0	call   	dword ptr [0x1cea]
  === BLOCK LINK ===
    0x15c6
=== CODE BLOCK END ===

=== CODE BLOCK ADDRESS 0x15c6 ===
  0x15c6	nop    	dword ptr [eax + eax]
  0x15cb	inc    	esp
  0x15cc	mov    	esi, eax
  0x15ce	test   	ebp, ebp
  0x15d0	jne    	0x1679
  === BLOCK LINK ===
    0x15d6
=== CODE BLOCK END ===

=== CODE BLOCK ADDRESS 0x15d6 ===
  0x15d6	dec    	eax
  0x15d7	and    	dword ptr [esp + 0x38], esi
  0x15db	inc    	ecx
  0x15dc	or     	ecx, 0xffffffff
  0x15df	dec    	eax
  === BLOCK LINK ===
    0x15e0
=== CODE BLOCK END ===

=== CODE BLOCK ADDRESS 0x15e0 ===
  0x15e0	and    	dword ptr [esp + 0x30], esi
  0x15e4	dec    	ebp
  0x15e5	mov    	eax, edi
  0x15e7	and    	dword ptr [esp + 0x28], esi
  0x15eb	xor    	edx, edx
  === BLOCK LINK ===
    0x15ed
=== CODE BLOCK END ===

=== CODE BLOCK ADDRESS 0x15ed ===
  0x15ed	dec    	eax
  0x15ee	and    	dword ptr [esp + 0x20], esi
  0x15f2	inc    	ecx
  0x15f3	mov    	ecx, esp
  0x15f5	dec    	eax
  === BLOCK LINK ===
    0x15f6
=== CODE BLOCK END ===

=== CODE BLOCK ADDRESS 0x15f6 ===
  0x15f6	call   	dword ptr [0x1c4c]
  === BLOCK LINK ===
    0x15fc
=== CODE BLOCK END ===

=== CODE BLOCK ADDRESS 0x15fc ===
  0x15fc	nop    	dword ptr [eax + eax]
  0x1601	dec    	eax
  0x1602	arpl   	ax, bx
  0x1604	test   	eax, eax
  0x1606	je     	0x1692
  === BLOCK LINK ===
    0x160c
=== CODE BLOCK END ===

=== CODE BLOCK ADDRESS 0x160c ===
  0x160c	dec    	eax
  0x160d	mov    	edx, ebx
  0x160f	lea    	ecx, [ebp + 0x40]
  0x1612	dec    	eax
  0x1613	call   	dword ptr [0x1b8f]
  === BLOCK LINK ===
    0x1619
=== CODE BLOCK END ===

=== CODE BLOCK ADDRESS 0x1619 ===
  0x1619	nop    	dword ptr [eax + eax]
  0x161e	dec    	eax
  0x161f	mov    	esi, eax
  0x1621	dec    	eax
  0x1622	test   	eax, eax
  === BLOCK LINK ===
    0x1624
=== CODE BLOCK END ===

=== CODE BLOCK ADDRESS 0x1624 ===
  0x1624	je     	0x1692
  === BLOCK LINK ===
    0x1626
=== CODE BLOCK END ===

=== CODE BLOCK ADDRESS 0x1626 ===
  0x1626	dec    	eax
  0x1627	and    	dword ptr [esp + 0x38], 0
  0x162c	inc    	ecx
  0x162d	or     	ecx, 0xffffffff
  0x1630	dec    	eax
  === BLOCK LINK ===
    0x1631
=== CODE BLOCK END ===

=== CODE BLOCK ADDRESS 0x1631 ===
  0x1631	and    	dword ptr [esp + 0x30], 0
  0x1636	dec    	ebp
  0x1637	mov    	eax, edi
  0x1639	mov    	dword ptr [esp + 0x28], ebx
  0x163d	xor    	edx, edx
  === BLOCK LINK ===
    0x163f
=== CODE BLOCK END ===

=== CODE BLOCK ADDRESS 0x163f ===
  0x163f	inc    	ecx
  0x1640	mov    	ecx, esp
  0x1642	dec    	eax
  0x1643	mov    	dword ptr [esp + 0x20], eax
  0x1647	dec    	eax
  === BLOCK LINK ===
    0x1648
=== CODE BLOCK END ===

=== CODE BLOCK ADDRESS 0x1648 ===
  0x1648	call   	dword ptr [0x1bfa]
  === BLOCK LINK ===
    0x164e
=== CODE BLOCK END ===

=== CODE BLOCK ADDRESS 0x164e ===
  0x164e	nop    	dword ptr [eax + eax]
  0x1653	dec    	eax
  0x1654	mov    	ecx, edi
  0x1656	dec    	eax
  0x1657	call   	dword ptr [0x1c63]
  === BLOCK LINK ===
    0x165d
=== CODE BLOCK END ===

=== CODE BLOCK ADDRESS 0x165d ===
  0x165d	nop    	dword ptr [eax + eax]
  0x1662	inc    	esp
  0x1663	lea    	eax, [ebx - 1]
  0x1666	dec    	eax
  0x1667	mov    	edx, esi
  === BLOCK LINK ===
    0x1669
=== CODE BLOCK END ===

=== CODE BLOCK ADDRESS 0x1669 ===
  0x1669	mov    	ecx, eax
  0x166b	dec    	eax
  0x166c	call   	dword ptr [0x1c46]
  === BLOCK LINK ===
    0x1672
=== CODE BLOCK END ===

=== CODE BLOCK ADDRESS 0x1672 ===
  0x1672	nop    	dword ptr [eax + eax]
  0x1677	jmp    	0x1692
  === BLOCK LINK ===
    0x1679
=== CODE BLOCK END ===

=== CODE BLOCK ADDRESS 0x1679 ===
  0x1679	dec    	ebp
  0x167a	mov    	eax, edi
  0x167c	dec    	eax
  0x167d	lea    	edx, [0x1dad]
  0x1683	dec    	eax
  === BLOCK LINK ===
    0x1684
=== CODE BLOCK END ===

=== CODE BLOCK ADDRESS 0x1684 ===
  0x1684	mov    	ecx, edi
  0x1686	dec    	eax
  0x1687	call   	dword ptr [0x1c53]
  === BLOCK LINK ===
    0x168d
=== CODE BLOCK END ===

=== CODE BLOCK ADDRESS 0x168d ===
  0x168d	nop    	dword ptr [eax + eax]
  0x1692	dec    	eax
  0x1693	mov    	ecx, edi
  0x1695	dec    	eax
  0x1696	call   	dword ptr [0x1c0c]
  === BLOCK LINK ===
    0x169c
=== CODE BLOCK END ===

=== CODE BLOCK ADDRESS 0x169c ===
  0x169c	nop    	dword ptr [eax + eax]
  0x16a1	dec    	eax
  0x16a2	mov    	ecx, edi
  0x16a4	dec    	eax
  0x16a5	call   	dword ptr [0x1c15]
  === BLOCK LINK ===
    0x16ab
=== CODE BLOCK END ===

=== CODE BLOCK ADDRESS 0x16ab ===
  0x16ab	nop    	dword ptr [eax + eax]
  0x16b0	mov    	ecx, eax
  0x16b2	inc    	ecx
  0x16b3	mov    	edx, esi
  0x16b5	dec    	eax
  === BLOCK LINK ===
    0x16b6
=== CODE BLOCK END ===

=== CODE BLOCK ADDRESS 0x16b6 ===
  0x16b6	call   	dword ptr [0x1bf4]
  === BLOCK LINK ===
    0x16bc
=== CODE BLOCK END ===

=== CODE BLOCK ADDRESS 0x16bc ===
  0x16bc	nop    	dword ptr [eax + eax]
  0x16c1	dec    	eax
  0x16c2	test   	esi, esi
  0x16c4	je     	0x16d5
  === BLOCK LINK ===
    0x16c6
=== CODE BLOCK END ===

=== CODE BLOCK ADDRESS 0x16c6 ===
  0x16c6	dec    	eax
  0x16c7	mov    	ecx, esi
  0x16c9	dec    	eax
  0x16ca	call   	dword ptr [0x1ad0]
  === BLOCK LINK ===
    0x16d0
=== CODE BLOCK END ===

=== CODE BLOCK ADDRESS 0x16d0 ===
  0x16d0	nop    	dword ptr [eax + eax]
  0x16d5	dec    	eax
  0x16d6	mov    	ecx, dword ptr [esp + 0xf0]
  0x16dd	dec    	eax
  0x16de	xor    	ecx, esp
  === BLOCK LINK ===
    0x16e0
=== CODE BLOCK END ===

=== CODE BLOCK ADDRESS 0x16e0 ===
  0x16e0	call   	0x1c40
  === BLOCK LINK ===
    0x16e5
=== CODE BLOCK END ===

=== CODE BLOCK ADDRESS 0x16e5 ===
  0x16e5	dec    	esp
  0x16e6	lea    	ebx, [esp + 0x100]
  0x16ed	dec    	ecx
  0x16ee	mov    	ebx, dword ptr [ebx + 0x40]
  0x16f1	dec    	ecx
  === BLOCK LINK ===
    0x16f2
=== CODE BLOCK END ===

=== CODE BLOCK ADDRESS 0x16f2 ===
  0x16f2	mov    	ebp, dword ptr [ebx + 0x48]
  0x16f5	dec    	ecx
  0x16f6	mov    	esp, ebx
  0x16f8	inc    	ecx
  0x16f9	pop    	edi
  === BLOCK LINK ===
    0x16fa
=== CODE BLOCK END ===

=== CODE BLOCK ADDRESS 0x16fa ===
  0x16fa	inc    	ecx
  0x16fb	pop    	esi
  0x16fc	inc    	ecx
  0x16fd	pop    	esp
  0x16fe	pop    	edi
  === BLOCK LINK ===
    0x16ff
=== CODE BLOCK END ===

=== CODE BLOCK ADDRESS 0x16ff ===
  0x16ff	pop    	esi
  0x1700	ret    	
  0x1701	int3   	
  0x1702	int3   	
  0x1703	int3   	
  === BLOCK LINK ===
    0x1704
=== CODE BLOCK END ===

=== CODE BLOCK ADDRESS 0x1704 ===
  0x1704	int3   	
  0x1705	int3   	
  0x1706	int3   	
  0x1707	int3   	
  0x1708	dec    	eax
  === BLOCK LINK ===
    0x1709
=== CODE BLOCK END ===

=== CODE BLOCK ADDRESS 0x1709 ===
  0x1709	mov    	eax, esp
  0x170b	dec    	eax
  0x170c	mov    	dword ptr [eax + 0x10], edx
  0x170f	dec    	esp
  0x1710	mov    	dword ptr [eax + 0x18], eax
  === BLOCK LINK ===
    0x1713
=== CODE BLOCK END ===

=== CODE BLOCK ADDRESS 0x1713 ===
  0x1713	dec    	esp
  0x1714	mov    	dword ptr [eax + 0x20], ecx
  0x1717	push   	ebx
  0x1718	push   	ebp
  0x1719	push   	esi
  === BLOCK LINK ===
    0x171a
=== CODE BLOCK END ===

=== CODE BLOCK ADDRESS 0x171a ===
  0x171a	push   	edi
  0x171b	inc    	ecx
  0x171c	push   	esi
  0x171d	dec    	eax
  0x171e	sub    	esp, 0x20
  === BLOCK LINK ===
    0x1721
=== CODE BLOCK END ===

=== CODE BLOCK ADDRESS 0x1721 ===
  0x1721	dec    	eax
  0x1722	mov    	edi, edx
  0x1724	dec    	esp
  0x1725	lea    	esi, [eax + 0x18]
  0x1728	dec    	eax
  === BLOCK LINK ===
    0x1729
=== CODE BLOCK END ===

=== CODE BLOCK ADDRESS 0x1729 ===
  0x1729	mov    	ebp, ecx
  0x172b	dec    	ecx
  0x172c	mov    	edx, esi
  0x172e	dec    	eax
  0x172f	mov    	ecx, edi
  === BLOCK LINK ===
    0x1731
=== CODE BLOCK END ===

=== CODE BLOCK ADDRESS 0x1731 ===
  0x1731	dec    	eax
  0x1732	call   	dword ptr [0x1b90]
  === BLOCK LINK ===
    0x1738
=== CODE BLOCK END ===

=== CODE BLOCK ADDRESS 0x1738 ===
  0x1738	nop    	dword ptr [eax + eax]
  0x173d	cmp    	eax, 1
  0x1740	jl     	0x1796
  === BLOCK LINK ===
    0x1742
=== CODE BLOCK END ===

=== CODE BLOCK ADDRESS 0x1742 ===
  0x1742	inc    	eax
  0x1744	mov    	ecx, 0x40
  0x1749	dec    	eax
  0x174a	arpl   	ax, si
  0x174c	dec    	eax
  === BLOCK LINK ===
    0x174d
=== CODE BLOCK END ===

=== CODE BLOCK ADDRESS 0x174d ===
  0x174d	lea    	edx, [esi + esi]
  0x1750	dec    	eax
  0x1751	call   	dword ptr [0x1a51]
  === BLOCK LINK ===
    0x1757
=== CODE BLOCK END ===

=== CODE BLOCK ADDRESS 0x1757 ===
  0x1757	nop    	dword ptr [eax + eax]
  0x175c	dec    	eax
  0x175d	mov    	ebx, eax
  0x175f	dec    	eax
  0x1760	test   	eax, eax
  === BLOCK LINK ===
    0x1762
=== CODE BLOCK END ===

=== CODE BLOCK ADDRESS 0x1762 ===
  0x1762	je     	0x1796
  === BLOCK LINK ===
    0x1764
=== CODE BLOCK END ===

=== CODE BLOCK ADDRESS 0x1764 ===
  0x1764	dec    	ebp
  0x1765	mov    	ecx, esi
  0x1767	dec    	esp
  0x1768	mov    	eax, edi
  0x176a	dec    	eax
  === BLOCK LINK ===
    0x176b
=== CODE BLOCK END ===

=== CODE BLOCK ADDRESS 0x176b ===
  0x176b	mov    	edx, esi
  0x176d	dec    	eax
  0x176e	mov    	ecx, eax
  0x1770	dec    	eax
  0x1771	call   	dword ptr [0x1b99]
  === BLOCK LINK ===
    0x1777
=== CODE BLOCK END ===

=== CODE BLOCK ADDRESS 0x1777 ===
  0x1777	nop    	dword ptr [eax + eax]
  0x177c	dec    	eax
  0x177d	mov    	edx, ebx
  0x177f	dec    	eax
  0x1780	mov    	ecx, ebp
  === BLOCK LINK ===
    0x1782
=== CODE BLOCK END ===

=== CODE BLOCK ADDRESS 0x1782 ===
  0x1782	call   	0x1478
  === BLOCK LINK ===
    0x1787
=== CODE BLOCK END ===

=== CODE BLOCK ADDRESS 0x1787 ===
  0x1787	dec    	eax
  0x1788	mov    	ecx, ebx
  0x178a	dec    	eax
  0x178b	call   	dword ptr [0x1a0f]
  === BLOCK LINK ===
    0x1791
=== CODE BLOCK END ===

=== CODE BLOCK ADDRESS 0x1791 ===
  0x1791	nop    	dword ptr [eax + eax]
  0x1796	dec    	eax
  0x1797	add    	esp, 0x20
  0x179a	inc    	ecx
  0x179b	pop    	esi
  === BLOCK LINK ===
    0x179c
=== CODE BLOCK END ===

=== CODE BLOCK ADDRESS 0x179c ===
  0x179c	pop    	edi
  0x179d	pop    	esi
  0x179e	pop    	ebp
  0x179f	pop    	ebx
  0x17a0	ret    	
  === BLOCK LINK ===
    0x17a1
=== CODE BLOCK END ===

=== CODE BLOCK ADDRESS 0x17a1 ===
  0x17a1	int3   	
  0x17a2	int3   	
  0x17a3	int3   	
  0x17a4	int3   	
  0x17a5	int3   	
  === BLOCK LINK ===
    0x17a6
=== CODE BLOCK END ===

=== CODE BLOCK ADDRESS 0x17a6 ===
  0x17a6	int3   	
  0x17a7	int3   	
  === BLOCK LINK ===
    0x17a8
=== CODE BLOCK END ===

=== CODE BLOCK ADDRESS 0x17af ===
  0x17af	dec    	ebp
  0x17b0	mov    	dword ptr [ebx + 0x18], eax
  0x17b3	dec    	ebp
  0x17b4	mov    	dword ptr [ebx + 0x20], ecx
  0x17b7	push   	ebx
  === BLOCK LINK ===
    0x17b8
=== CODE BLOCK END ===

=== CODE BLOCK ADDRESS 0x17b8 ===
  0x17b8	dec    	eax
  0x17b9	sub    	esp, 0x50
  0x17bc	dec    	ecx
  0x17bd	lea    	eax, [ebx + 0x18]
  0x17c0	dec    	eax
  === BLOCK LINK ===
    0x17c1
=== CODE BLOCK END ===

=== CODE BLOCK ADDRESS 0x17c1 ===
  0x17c1	mov    	ebx, ecx
  0x17c3	dec    	ecx
  0x17c4	mov    	dword ptr [ebx - 0x10], eax
  0x17c7	inc    	esp
  0x17c8	mov    	eax, edx
  === BLOCK LINK ===
    0x17ca
=== CODE BLOCK END ===

=== CODE BLOCK ADDRESS 0x17ca ===
  0x17ca	dec    	eax
  0x17cb	mov    	edx, dword ptr [0x3dff]
  0x17d1	dec    	ecx
  0x17d2	lea    	eax, [ebx - 0x10]
  0x17d5	dec    	ecx
  === BLOCK LINK ===
    0x17d6
=== CODE BLOCK END ===

=== CODE BLOCK ADDRESS 0x17d6 ===
  0x17d6	mov    	dword ptr [ebx - 0x28], eax
  0x17d9	inc    	ebp
  0x17da	xor    	ecx, ecx
  0x17dc	and    	dword ptr [esp + 0x28], 0
  0x17e1	dec    	ecx
  === BLOCK LINK ===
    0x17e2
=== CODE BLOCK END ===

=== CODE BLOCK ADDRESS 0x17e2 ===
  0x17e2	lea    	eax, [ebx - 0x18]
  0x17e5	mov    	ecx, 0x900
  0x17ea	dec    	ecx
  0x17eb	mov    	dword ptr [ebx - 0x38], eax
  0x17ee	dec    	eax
  === BLOCK LINK ===
    0x17ef
=== CODE BLOCK END ===

=== CODE BLOCK ADDRESS 0x17ef ===
  0x17ef	call   	dword ptr [0x19d3]
  === BLOCK LINK ===
    0x17f5
=== CODE BLOCK END ===

=== CODE BLOCK ADDRESS 0x17f5 ===
  0x17f5	nop    	dword ptr [eax + eax]
  0x17fa	test   	eax, eax
  0x17fc	je     	0x181c
  === BLOCK LINK ===
    0x17fe
=== CODE BLOCK END ===

=== CODE BLOCK ADDRESS 0x17fe ===
  0x17fe	dec    	eax
  0x17ff	mov    	edx, dword ptr [esp + 0x40]
  0x1803	dec    	eax
  0x1804	mov    	ecx, ebx
  0x1806	call   	0x1478
  === BLOCK LINK ===
    0x180b
=== CODE BLOCK END ===

=== CODE BLOCK ADDRESS 0x180b ===
  0x180b	dec    	eax
  0x180c	mov    	ecx, dword ptr [esp + 0x40]
  0x1810	dec    	eax
  0x1811	call   	dword ptr [0x1989]
  === BLOCK LINK ===
    0x1817
=== CODE BLOCK END ===

=== CODE BLOCK ADDRESS 0x1817 ===
  0x1817	nop    	dword ptr [eax + eax]
  0x181c	dec    	eax
  0x181d	add    	esp, 0x50
  0x1820	pop    	ebx
  0x1821	ret    	
  === BLOCK LINK ===
    0x1822
=== CODE BLOCK END ===

=== CODE BLOCK ADDRESS 0x182c ===
  0x182c	inc    	eax
  0x182d	push   	ebx
  0x182e	dec    	eax
  0x182f	sub    	esp, 0x40
  0x1832	dec    	eax
  === BLOCK LINK ===
    0x1833
=== CODE BLOCK END ===

=== CODE BLOCK ADDRESS 0x1822 ===
  0x1822	int3   	
  0x1823	int3   	
  0x1824	int3   	
  0x1825	int3   	
  0x1826	int3   	
  === BLOCK LINK ===
    0x1827
=== CODE BLOCK END ===

=== CODE BLOCK ADDRESS 0x1827 ===
  0x1827	int3   	
  0x1828	int3   	
  0x1829	int3   	
  0x182a	int3   	
  0x182b	int3   	
  === BLOCK LINK ===
    0x182c
=== CODE BLOCK END ===

=== CODE BLOCK ADDRESS 0x1833 ===
  0x1833	and    	dword ptr [esp + 0x30], 0
  0x1838	dec    	eax
  0x1839	lea    	eax, [esp + 0x60]
  0x183d	and    	dword ptr [esp + 0x28], 0
  0x1842	mov    	ebx, edx
  === BLOCK LINK ===
    0x1844
=== CODE BLOCK END ===

=== CODE BLOCK ADDRESS 0x1844 ===
  0x1844	dec    	eax
  0x1845	mov    	edx, dword ptr [0x3d85]
  0x184b	inc    	esp
  0x184c	mov    	eax, ecx
  0x184e	mov    	ecx, 0x900
  === BLOCK LINK ===
    0x1853
=== CODE BLOCK END ===

=== CODE BLOCK ADDRESS 0x1853 ===
  0x1853	dec    	eax
  0x1854	mov    	dword ptr [esp + 0x20], eax
  0x1858	inc    	ebp
  0x1859	xor    	ecx, ecx
  0x185b	dec    	eax
  === BLOCK LINK ===
    0x185c
=== CODE BLOCK END ===

=== CODE BLOCK ADDRESS 0x185c ===
  0x185c	call   	dword ptr [0x1966]
  === BLOCK LINK ===
    0x1862
=== CODE BLOCK END ===

=== CODE BLOCK ADDRESS 0x1862 ===
  0x1862	nop    	dword ptr [eax + eax]
  0x1867	test   	eax, eax
  0x1869	je     	0x18f7
  === BLOCK LINK ===
    0x186f
=== CODE BLOCK END ===

=== CODE BLOCK ADDRESS 0x186f ===
  0x186f	mov    	ecx, 2
  0x1874	call   	0x2158
  === BLOCK LINK ===
    0x1879
=== CODE BLOCK END ===

=== CODE BLOCK ADDRESS 0x1879 ===
  0x1879	dec    	esp
  0x187a	mov    	eax, dword ptr [esp + 0x60]
  0x187e	dec    	eax
  0x187f	lea    	edx, [0x1bb3]
  0x1885	dec    	eax
  === BLOCK LINK ===
    0x1886
=== CODE BLOCK END ===

=== CODE BLOCK ADDRESS 0x1886 ===
  0x1886	mov    	ecx, eax
  0x1888	call   	0x1708
  === BLOCK LINK ===
    0x188d
=== CODE BLOCK END ===

=== CODE BLOCK ADDRESS 0x188d ===
  0x188d	dec    	eax
  0x188e	mov    	ecx, dword ptr [esp + 0x60]
  0x1892	dec    	eax
  0x1893	call   	dword ptr [0x1907]
  === BLOCK LINK ===
    0x1899
=== CODE BLOCK END ===

=== CODE BLOCK ADDRESS 0x1899 ===
  0x1899	nop    	dword ptr [eax + eax]
  0x189e	mov    	ecx, ebx
  0x18a0	dec    	eax
  0x18a1	call   	dword ptr [0x1881]
  === BLOCK LINK ===
    0x18a7
=== CODE BLOCK END ===

=== CODE BLOCK ADDRESS 0x18a7 ===
  0x18a7	nop    	dword ptr [eax + eax]
  0x18ac	dec    	eax
  0x18ad	mov    	dword ptr [esp + 0x60], eax
  0x18b1	dec    	eax
  0x18b2	test   	eax, eax
  === BLOCK LINK ===
    0x18b4
=== CODE BLOCK END ===

=== CODE BLOCK ADDRESS 0x18b4 ===
  0x18b4	je     	0x18de
  === BLOCK LINK ===
    0x18b6
=== CODE BLOCK END ===

=== CODE BLOCK ADDRESS 0x18b6 ===
  0x18b6	mov    	ecx, 2
  0x18bb	call   	0x2158
  === BLOCK LINK ===
    0x18c0
=== CODE BLOCK END ===

=== CODE BLOCK ADDRESS 0x18c0 ===
  0x18c0	dec    	eax
  0x18c1	mov    	edx, dword ptr [esp + 0x60]
  0x18c5	dec    	eax
  0x18c6	mov    	ecx, eax
  0x18c8	call   	0x1478
  === BLOCK LINK ===
    0x18cd
=== CODE BLOCK END ===

=== CODE BLOCK ADDRESS 0x18cd ===
  0x18cd	dec    	eax
  0x18ce	mov    	ecx, dword ptr [esp + 0x60]
  0x18d2	dec    	eax
  0x18d3	call   	dword ptr [0x18c7]
  === BLOCK LINK ===
    0x18d9
=== CODE BLOCK END ===

=== CODE BLOCK ADDRESS 0x18d9 ===
  0x18d9	nop    	dword ptr [eax + eax]
  0x18de	mov    	ecx, 2
  0x18e3	call   	0x2158
  === BLOCK LINK ===
    0x18e8
=== CODE BLOCK END ===

=== CODE BLOCK ADDRESS 0x18e8 ===
  0x18e8	dec    	eax
  0x18e9	mov    	ecx, eax
  0x18eb	dec    	eax
  0x18ec	lea    	edx, [0x1ace]
  0x18f2	call   	0x1478
  === BLOCK LINK ===
    0x18f7
=== CODE BLOCK END ===

=== CODE BLOCK ADDRESS 0x18f7 ===
  0x18f7	dec    	eax
  0x18f8	add    	esp, 0x40
  0x18fb	pop    	ebx
  0x18fc	ret    	
  0x18fd	int3   	
  === BLOCK LINK ===
    0x18fe
=== CODE BLOCK END ===

=== CODE BLOCK ADDRESS 0x110b ===
  0x110b	mov    	edx, 0x101
  0x1110	dec    	eax
  0x1111	lea    	ecx, [esp + 0x20]
  === BLOCK LINK ===
    0x1115
=== CODE BLOCK END ===

=== CODE BLOCK ADDRESS 0x18fe ===
  0x18fe	int3   	
  0x18ff	int3   	
  0x1900	int3   	
  0x1901	int3   	
  0x1902	int3   	
  === BLOCK LINK ===
    0x1903
=== CODE BLOCK END ===

=== CODE BLOCK ADDRESS 0x1903 ===
  0x1903	int3   	
  0x1904	int3   	
  0x1905	int3   	
  0x1906	int3   	
  0x1907	int3   	
  === BLOCK LINK ===
    0x1908
=== CODE BLOCK END ===

=== CODE BLOCK ADDRESS 0x1908 ===
  0x1908	int3   	
  0x1909	int3   	
  0x190a	int3   	
  0x190b	int3   	
  0x190c	int3   	
  === BLOCK LINK ===
    0x190d
=== CODE BLOCK END ===

=== CODE BLOCK ADDRESS 0x190d ===
  0x190d	int3   	
  0x190e	int3   	
  0x190f	int3   	
  0x1910	dec    	eax
  0x1911	sub    	esp, 0x28
  === BLOCK LINK ===
    0x1914
=== CODE BLOCK END ===

=== CODE BLOCK ADDRESS 0x1914 ===
  0x1914	mov    	eax, 0x5a4d
  0x1919	cmp    	word ptr [0xffffe6e0], ax
  0x1920	je     	0x1926
  === BLOCK LINK ===
    0x1922
=== CODE BLOCK END ===

=== CODE BLOCK ADDRESS 0x1922 ===
  0x1922	xor    	eax, eax
  0x1924	jmp    	0x1979
  === BLOCK LINK ===
    0x1926
=== CODE BLOCK END ===

=== CODE BLOCK ADDRESS 0x1926 ===
  0x1926	dec    	eax
  0x1927	arpl   	word ptr [0xffffe70f], cx
  0x192d	dec    	eax
  0x192e	lea    	eax, [0xffffe6cc]
  0x1934	dec    	eax
  === BLOCK LINK ===
    0x1935
=== CODE BLOCK END ===

=== CODE BLOCK ADDRESS 0x1935 ===
  0x1935	add    	ecx, eax
  0x1937	cmp    	dword ptr [ecx], 0x4550
  0x193d	jne    	0x1922
  === BLOCK LINK ===
    0x193f
=== CODE BLOCK END ===

=== CODE BLOCK ADDRESS 0x193f ===
  0x193f	mov    	eax, 0x10b
  0x1944	cmp    	word ptr [ecx + 0x18], ax
  0x1948	je     	0x1968
  === BLOCK LINK ===
    0x194a
=== CODE BLOCK END ===

=== CODE BLOCK ADDRESS 0x194a ===
  0x194a	mov    	eax, 0x20b
  0x194f	cmp    	word ptr [ecx + 0x18], ax
  0x1953	jne    	0x1922
  === BLOCK LINK ===
    0x1955
=== CODE BLOCK END ===

=== CODE BLOCK ADDRESS 0x1955 ===
  0x1955	xor    	eax, eax
  0x1957	cmp    	dword ptr [ecx + 0x84], 0xe
  0x195e	jbe    	0x1979
  === BLOCK LINK ===
    0x1960
=== CODE BLOCK END ===

=== CODE BLOCK ADDRESS 0x1960 ===
  0x1960	cmp    	dword ptr [ecx + 0xf8], eax
  0x1966	jmp    	0x1976
  === BLOCK LINK ===
    0x1968
=== CODE BLOCK END ===

=== CODE BLOCK ADDRESS 0x1968 ===
  0x1968	xor    	eax, eax
  0x196a	cmp    	dword ptr [ecx + 0x74], 0xe
  0x196e	jbe    	0x1979
  === BLOCK LINK ===
    0x1970
=== CODE BLOCK END ===

=== CODE BLOCK ADDRESS 0x1970 ===
  0x1970	cmp    	dword ptr [ecx + 0xe8], eax
  0x1976	setne  	al
  0x1979	mov    	ecx, 1
  0x197e	mov    	dword ptr [0x36bc], eax
  0x1984	call   	0x1d38
  === BLOCK LINK ===
    0x1989
=== CODE BLOCK END ===

=== CODE BLOCK ADDRESS 0x1989 ===
  0x1989	mov    	ecx, eax
  0x198b	call   	dword ptr [0x198f]
  === BLOCK LINK ===
    0x1991
=== CODE BLOCK END ===

=== CODE BLOCK ADDRESS 0x1991 ===
  0x1991	dec    	eax
  0x1992	mov    	ecx, dword ptr [0x1950]
  0x1998	dec    	eax
  0x1999	or     	eax, 0xffffffff
  0x199c	dec    	eax
  === BLOCK LINK ===
    0x199d
=== CODE BLOCK END ===

=== CODE BLOCK ADDRESS 0x199d ===
  0x199d	mov    	dword ptr [0x3c35], eax
  0x19a3	dec    	eax
  0x19a4	mov    	dword ptr [0x3c36], eax
  0x19aa	mov    	eax, dword ptr [0x36a4]
  0x19b0	mov    	dword ptr [ecx], eax
  === BLOCK LINK ===
    0x19b2
=== CODE BLOCK END ===

=== CODE BLOCK ADDRESS 0x19b2 ===
  0x19b2	dec    	eax
  0x19b3	mov    	ecx, dword ptr [0x18c7]
  0x19b9	mov    	eax, dword ptr [0x3689]
  0x19bf	mov    	dword ptr [ecx], eax
  0x19c1	call   	0x1d90
  === BLOCK LINK ===
    0x19c6
=== CODE BLOCK END ===

=== CODE BLOCK ADDRESS 0x19c6 ===
  0x19c6	cmp    	dword ptr [0x3633], 0
  0x19cd	jne    	0x19dc
  === BLOCK LINK ===
    0x19cf
=== CODE BLOCK END ===

=== CODE BLOCK ADDRESS 0x19cf ===
  0x19cf	dec    	eax
  0x19d0	lea    	ecx, [0x3ba]
  0x19d6	call   	dword ptr [0x1924]
  === BLOCK LINK ===
    0x19dc
=== CODE BLOCK END ===

=== CODE BLOCK ADDRESS 0x19dc ===
  0x19dc	xor    	eax, eax
  0x19de	dec    	eax
  0x19df	add    	esp, 0x28
  0x19e2	ret    	
  0x19e3	int3   	
  === BLOCK LINK ===
    0x19e4
=== CODE BLOCK END ===

=== CODE BLOCK ADDRESS 0x10e5 ===
  0x10e5	mov    	ecx, 2
  0x10ea	call   	0x2158
  === BLOCK LINK ===
    0x10ef
=== CODE BLOCK END ===

=== CODE BLOCK ADDRESS 0x19e4 ===
  0x19e4	int3   	
  0x19e5	int3   	
  0x19e6	int3   	
  0x19e7	int3   	
  0x19e8	int3   	
  === BLOCK LINK ===
    0x19e9
=== CODE BLOCK END ===

=== CODE BLOCK ADDRESS 0x19e9 ===
  0x19e9	int3   	
  0x19ea	int3   	
  0x19eb	int3   	
  0x19ec	int3   	
  0x19ed	int3   	
  === BLOCK LINK ===
    0x19ee
=== CODE BLOCK END ===

=== CODE BLOCK ADDRESS 0x19ee ===
  0x19ee	int3   	
  0x19ef	int3   	
  0x19f0	dec    	eax
  0x19f1	sub    	esp, 0x38
  0x19f4	mov    	eax, dword ptr [0x3656]
  === BLOCK LINK ===
    0x19fa
=== CODE BLOCK END ===

=== CODE BLOCK ADDRESS 0x19fa ===
  0x19fa	dec    	esp
  0x19fb	lea    	eax, [0x3637]
  0x1a01	inc    	esp
  0x1a02	mov    	ecx, dword ptr [0x3644]
  0x1a08	dec    	eax
  === BLOCK LINK ===
    0x1a09
=== CODE BLOCK END ===

=== CODE BLOCK ADDRESS 0x1a09 ===
  0x1a09	lea    	edx, [0x3621]
  0x1a0f	mov    	dword ptr [0x362f], eax
  0x1a15	dec    	eax
  0x1a16	lea    	ecx, [0x360c]
  0x1a1c	dec    	eax
  === BLOCK LINK ===
    0x1a1d
=== CODE BLOCK END ===

=== CODE BLOCK ADDRESS 0x1a1d ===
  0x1a1d	lea    	eax, [0x3621]
  0x1a23	dec    	eax
  0x1a24	mov    	dword ptr [esp + 0x20], eax
  0x1a28	call   	dword ptr [0x18fa]
  === BLOCK LINK ===
    0x1a2e
=== CODE BLOCK END ===

=== CODE BLOCK ADDRESS 0x1a2e ===
  0x1a2e	mov    	dword ptr [0x35f8], eax
  0x1a34	dec    	eax
  0x1a35	add    	esp, 0x38
  0x1a38	ret    	
  0x1a39	int3   	
  === BLOCK LINK ===
    0x1a3a
=== CODE BLOCK END ===

=== CODE BLOCK ADDRESS 0x1a3a ===
  0x1a3a	int3   	
  0x1a3b	int3   	
  0x1a3c	int3   	
  0x1a3d	int3   	
  0x1a3e	int3   	
  === BLOCK LINK ===
    0x1a3f
=== CODE BLOCK END ===

=== CODE BLOCK ADDRESS 0x1a3f ===
  0x1a3f	int3   	
  0x1a40	dec    	eax
  0x1a41	mov    	dword ptr [esp + 8], ebx
  0x1a45	dec    	eax
  0x1a46	mov    	dword ptr [esp + 0x10], esi
  === BLOCK LINK ===
    0x1a4a
=== CODE BLOCK END ===

=== CODE BLOCK ADDRESS 0x1a4a ===
  0x1a4a	dec    	eax
  0x1a4b	mov    	dword ptr [esp + 0x18], edi
  0x1a4f	inc    	ecx
  0x1a50	push   	edi
  0x1a51	dec    	eax
  === BLOCK LINK ===
    0x1a52
=== CODE BLOCK END ===

=== CODE BLOCK ADDRESS 0x1a52 ===
  0x1a52	sub    	esp, 0x30
  0x1a55	dec    	eax
  0x1a57	mov    	eax, dword ptr [0x30]
  0x1a5e	dec    	eax
  0x1a5f	mov    	ebx, dword ptr [eax + 8]
  === BLOCK LINK ===
    0x1a62
=== CODE BLOCK END ===

=== CODE BLOCK ADDRESS 0x1a62 ===
  0x1a62	xor    	esi, esi
  0x1a64	xor    	eax, eax
  0x1a66	.byte  	0xf0
  0x1a67	dec    	eax
  0x1a68	cmpxchg  	dword ptr [0x3b79], ebx
  === BLOCK LINK ===
    0x1a6f
=== CODE BLOCK END ===

=== CODE BLOCK ADDRESS 0x1a6f ===
  0x1a6f	je     	0x1a8c
  === BLOCK LINK ===
    0x1a71
=== CODE BLOCK END ===

=== CODE BLOCK ADDRESS 0x1a71 ===
  0x1a71	dec    	eax
  0x1a72	cmp    	eax, ebx
  0x1a74	jne    	0x1a7f
  === BLOCK LINK ===
    0x1a76
=== CODE BLOCK END ===

=== CODE BLOCK ADDRESS 0x1a76 ===
  0x1a76	mov    	ebx, 1
  0x1a7b	mov    	esi, ebx
  0x1a7d	jmp    	0x1a91
  === BLOCK LINK ===
    0x1a7f
=== CODE BLOCK END ===

=== CODE BLOCK ADDRESS 0x1a7f ===
  0x1a7f	mov    	ecx, 0x3e8
  0x1a84	call   	dword ptr [0x17ce]
  === BLOCK LINK ===
    0x1a8a
=== CODE BLOCK END ===

=== CODE BLOCK ADDRESS 0x1a8a ===
  0x1a8a	jmp    	0x1a64
  === BLOCK LINK ===
    0x1a8c
=== CODE BLOCK END ===

=== CODE BLOCK ADDRESS 0x1a8c ===
  0x1a8c	mov    	ebx, 1
  0x1a91	mov    	eax, dword ptr [0x3b59]
  0x1a97	cmp    	eax, ebx
  0x1a99	jne    	0x1aa7
  === BLOCK LINK ===
    0x1a9b
=== CODE BLOCK END ===

=== CODE BLOCK ADDRESS 0x1a9b ===
  0x1a9b	mov    	ecx, 0x1f
  0x1aa0	call   	0x1d83
  === BLOCK LINK ===
    0x1aa5
=== CODE BLOCK END ===

=== CODE BLOCK ADDRESS 0x1aa5 ===
  0x1aa5	jmp    	0x1b0c
  === BLOCK LINK ===
    0x1aa7
=== CODE BLOCK END ===

=== CODE BLOCK ADDRESS 0x1aa7 ===
  0x1aa7	mov    	eax, dword ptr [0x3b43]
  0x1aad	test   	eax, eax
  0x1aaf	jne    	0x1b06
  === BLOCK LINK ===
    0x1ab1
=== CODE BLOCK END ===

=== CODE BLOCK ADDRESS 0x1ab1 ===
  0x1ab1	mov    	dword ptr [0x3b39], ebx
  0x1ab7	dec    	esp
  0x1ab8	lea    	edi, [0x18d2]
  0x1abe	dec    	eax
  0x1abf	lea    	edi, [0x18b3]
  === BLOCK LINK ===
    0x1ac5
=== CODE BLOCK END ===

=== CODE BLOCK ADDRESS 0x1ac5 ===
  0x1ac5	dec    	eax
  0x1ac6	mov    	dword ptr [esp + 0x28], edi
  0x1aca	mov    	dword ptr [esp + 0x20], eax
  0x1ace	dec    	ecx
  0x1acf	cmp    	edi, edi
  === BLOCK LINK ===
    0x1ad1
=== CODE BLOCK END ===

=== CODE BLOCK ADDRESS 0x1ad1 ===
  0x1ad1	jae    	0x1af8
  === BLOCK LINK ===
    0x1ad3
=== CODE BLOCK END ===

=== CODE BLOCK ADDRESS 0x1ad3 ===
  0x1ad3	test   	eax, eax
  0x1ad5	jne    	0x1afc
  === BLOCK LINK ===
    0x1ad7
=== CODE BLOCK END ===

=== CODE BLOCK ADDRESS 0x1ad7 ===
  0x1ad7	dec    	eax
  0x1ad8	cmp    	dword ptr [edi], 0
  0x1adb	je     	0x1aed
  === BLOCK LINK ===
    0x1add
=== CODE BLOCK END ===

=== CODE BLOCK ADDRESS 0x1add ===
  0x1add	dec    	eax
  0x1ade	mov    	eax, dword ptr [edi]
  0x1ae0	dec    	eax
  0x1ae1	mov    	ecx, dword ptr [0x1871]
  0x1ae7	call   	ecx
  === BLOCK LINK ===
    0x1ae9
=== CODE BLOCK END ===

=== CODE BLOCK ADDRESS 0x1ae9 ===
  0x1ae9	mov    	dword ptr [esp + 0x20], eax
  0x1aed	dec    	eax
  0x1aee	add    	edi, 8
  0x1af1	dec    	eax
  0x1af2	mov    	dword ptr [esp + 0x28], edi
  === BLOCK LINK ===
    0x1af6
=== CODE BLOCK END ===

=== CODE BLOCK ADDRESS 0x1af6 ===
  0x1af6	jmp    	0x1ace
  === BLOCK LINK ===
    0x1af8
=== CODE BLOCK END ===

=== CODE BLOCK ADDRESS 0x1af8 ===
  0x1af8	test   	eax, eax
  0x1afa	je     	0x1b0c
  === BLOCK LINK ===
    0x1afc
=== CODE BLOCK END ===

=== CODE BLOCK ADDRESS 0x1afc ===
  0x1afc	mov    	eax, 0xff
  0x1b01	jmp    	0x1be8
  === BLOCK LINK ===
    0x1b06
=== CODE BLOCK END ===

=== CODE BLOCK ADDRESS 0x1b06 ===
  0x1b06	mov    	dword ptr [0x3518], ebx
  0x1b0c	mov    	eax, dword ptr [0x3ade]
  0x1b12	cmp    	eax, ebx
  0x1b14	jne    	0x1b33
  === BLOCK LINK ===
    0x1b16
=== CODE BLOCK END ===

=== CODE BLOCK ADDRESS 0x1b16 ===
  0x1b16	dec    	eax
  0x1b17	lea    	edx, [0x1853]
  0x1b1d	dec    	eax
  0x1b1e	lea    	ecx, [0x183c]
  0x1b24	call   	0x1f5e
  === BLOCK LINK ===
    0x1b29
=== CODE BLOCK END ===

=== CODE BLOCK ADDRESS 0x1b29 ===
  0x1b29	mov    	dword ptr [0x3abd], 2
  0x1b33	test   	esi, esi
  0x1b35	jne    	0x1b40
  === BLOCK LINK ===
    0x1b37
=== CODE BLOCK END ===

=== CODE BLOCK ADDRESS 0x1b37 ===
  0x1b37	xor    	eax, eax
  0x1b39	dec    	eax
  0x1b3a	xchg   	dword ptr [0x3aa8], eax
  0x1b40	dec    	eax
  0x1b41	cmp    	dword ptr [0x3ab0], 0
  === BLOCK LINK ===
    0x1b48
=== CODE BLOCK END ===

=== CODE BLOCK ADDRESS 0x1b48 ===
  0x1b48	je     	0x1b74
  === BLOCK LINK ===
    0x1b4a
=== CODE BLOCK END ===

=== CODE BLOCK ADDRESS 0x1b4a ===
  0x1b4a	dec    	eax
  0x1b4b	lea    	ecx, [0x3aa7]
  0x1b51	call   	0x1df0
  === BLOCK LINK ===
    0x1b56
=== CODE BLOCK END ===

=== CODE BLOCK ADDRESS 0x1b56 ===
  0x1b56	test   	eax, eax
  0x1b58	je     	0x1b74
  === BLOCK LINK ===
    0x1b5a
=== CODE BLOCK END ===

=== CODE BLOCK ADDRESS 0x1b5a ===
  0x1b5a	inc    	ebp
  0x1b5b	xor    	eax, eax
  0x1b5d	inc    	ecx
  0x1b5e	lea    	edx, [eax + 2]
  0x1b61	xor    	ecx, ecx
  === BLOCK LINK ===
    0x1b63
=== CODE BLOCK END ===

=== CODE BLOCK ADDRESS 0x1b63 ===
  0x1b63	dec    	eax
  0x1b64	mov    	eax, dword ptr [0x3a8e]
  0x1b6a	dec    	esp
  0x1b6b	mov    	ecx, dword ptr [0x17e7]
  0x1b71	inc    	ecx
  === BLOCK LINK ===
    0x1b72
=== CODE BLOCK END ===

=== CODE BLOCK ADDRESS 0x1b72 ===
  0x1b72	call   	ecx
  === BLOCK LINK ===
    0x1b74
=== CODE BLOCK END ===

=== CODE BLOCK ADDRESS 0x1b74 ===
  0x1b74	dec    	esp
  0x1b75	mov    	eax, dword ptr [0x34bd]
  0x1b7b	dec    	eax
  0x1b7c	mov    	edx, dword ptr [0x34ae]
  0x1b82	mov    	ecx, dword ptr [0x34a0]
  === BLOCK LINK ===
    0x1b88
=== CODE BLOCK END ===

=== CODE BLOCK ADDRESS 0x1b88 ===
  0x1b88	call   	0x1008
  === BLOCK LINK ===
    0x1b8d
=== CODE BLOCK END ===

=== CODE BLOCK ADDRESS 0x1b8d ===
  0x1b8d	mov    	dword ptr [0x348d], eax
  0x1b93	cmp    	dword ptr [0x34a6], 0
  0x1b9a	jne    	0x1ba4
  === BLOCK LINK ===
    0x1b9c
=== CODE BLOCK END ===

=== CODE BLOCK ADDRESS 0x1b9c ===
  0x1b9c	mov    	ecx, eax
  0x1b9e	call   	dword ptr [0x179c]
  === BLOCK LINK ===
    0x1ba4
=== CODE BLOCK END ===

=== CODE BLOCK ADDRESS 0x1ba4 ===
  0x1ba4	cmp    	dword ptr [0x3479], 0
  0x1bab	jne    	0x1bb9
  === BLOCK LINK ===
    0x1bad
=== CODE BLOCK END ===

=== CODE BLOCK ADDRESS 0x1bad ===
  0x1bad	call   	dword ptr [0x1755]
  === BLOCK LINK ===
    0x1bb3
=== CODE BLOCK END ===

=== CODE BLOCK ADDRESS 0x1bb3 ===
  0x1bb3	mov    	eax, dword ptr [0x3467]
  0x1bb9	jmp    	0x1be8
  === BLOCK LINK ===
    0x1bbb
=== CODE BLOCK END ===

=== CODE BLOCK ADDRESS 0x1bbb ===
  0x1bbb	mov    	dword ptr [0x345f], eax
  0x1bc1	cmp    	dword ptr [0x3478], 0
  0x1bc8	jne    	0x1bd3
  === BLOCK LINK ===
    0x1bca
=== CODE BLOCK END ===

=== CODE BLOCK ADDRESS 0x1bca ===
  0x1bca	mov    	ecx, eax
  0x1bcc	call   	dword ptr [0x1746]
  === BLOCK LINK ===
    0x1bd2
=== CODE BLOCK END ===

=== CODE BLOCK ADDRESS 0x1bd2 ===
  0x1bd2	int3   	
  0x1bd3	cmp    	dword ptr [0x344a], 0
  0x1bda	jne    	0x1be8
  === BLOCK LINK ===
    0x1bdc
=== CODE BLOCK END ===

=== CODE BLOCK ADDRESS 0x1bdc ===
  0x1bdc	call   	dword ptr [0x1726]
  === BLOCK LINK ===
    0x1be2
=== CODE BLOCK END ===

=== CODE BLOCK ADDRESS 0x1be2 ===
  0x1be2	mov    	eax, dword ptr [0x3438]
  0x1be8	dec    	eax
  0x1be9	mov    	ebx, dword ptr [esp + 0x40]
  0x1bed	dec    	eax
  0x1bee	mov    	esi, dword ptr [esp + 0x48]
  === BLOCK LINK ===
    0x1bf2
=== CODE BLOCK END ===

=== CODE BLOCK ADDRESS 0x1bf2 ===
  0x1bf2	dec    	eax
  0x1bf3	mov    	edi, dword ptr [esp + 0x50]
  0x1bf7	dec    	eax
  0x1bf8	add    	esp, 0x30
  0x1bfb	inc    	ecx
  === BLOCK LINK ===
    0x1bfc
=== CODE BLOCK END ===

=== CODE BLOCK ADDRESS 0x1bfc ===
  0x1bfc	pop    	edi
  0x1bfd	ret    	
  0x1bfe	int3   	
  0x1bff	int3   	
  0x1c00	int3   	
  === BLOCK LINK ===
    0x1c01
=== CODE BLOCK END ===

=== CODE BLOCK ADDRESS 0x1c01 ===
  0x1c01	int3   	
  0x1c02	int3   	
  0x1c03	int3   	
  0x1c04	int3   	
  0x1c05	int3   	
  === BLOCK LINK ===
    0x1c06
=== CODE BLOCK END ===

=== CODE BLOCK ADDRESS 0x1c06 ===
  0x1c06	int3   	
  0x1c07	int3   	
  0x1c08	int3   	
  0x1c09	int3   	
  0x1c0a	int3   	
  === BLOCK LINK ===
    0x1c0b
=== CODE BLOCK END ===

=== CODE BLOCK ADDRESS 0x1c0b ===
  0x1c0b	int3   	
  0x1c0c	int3   	
  0x1c0d	int3   	
  0x1c0e	int3   	
  0x1c0f	int3   	
  === BLOCK LINK ===
    0x1c10
=== CODE BLOCK END ===

=== CODE BLOCK ADDRESS 0x1c10 ===
  0x1c10	dec    	eax
  0x1c11	sub    	esp, 0x28
  0x1c14	call   	0x1e84
  === BLOCK LINK ===
    0x1c19
=== CODE BLOCK END ===

=== CODE BLOCK ADDRESS 0x1c19 ===
  0x1c19	dec    	eax
  0x1c1a	add    	esp, 0x28
  0x1c1d	jmp    	0x1a40
  === BLOCK LINK ===
    0x1c22
=== CODE BLOCK END ===

=== CODE BLOCK ADDRESS 0x1c22 ===
  0x1c22	int3   	
  0x1c23	int3   	
  0x1c24	int3   	
  0x1c25	int3   	
  0x1c26	int3   	
  === BLOCK LINK ===
    0x1c27
=== CODE BLOCK END ===

=== CODE BLOCK ADDRESS 0x1c27 ===
  0x1c27	int3   	
  0x1c28	int3   	
  0x1c29	int3   	
  0x1c2a	int3   	
  0x1c2b	int3   	
  === BLOCK LINK ===
    0x1c2c
=== CODE BLOCK END ===

=== CODE BLOCK ADDRESS 0x1c2c ===
  0x1c2c	int3   	
  0x1c2d	int3   	
  0x1c2e	int3   	
  0x1c2f	int3   	
  0x1c30	int3   	
  === BLOCK LINK ===
    0x1c31
=== CODE BLOCK END ===

=== CODE BLOCK ADDRESS 0x1c31 ===
  0x1c31	int3   	
  0x1c32	int3   	
  0x1c33	int3   	
  0x1c34	int3   	
  0x1c35	int3   	
  === BLOCK LINK ===
    0x1c36
=== CODE BLOCK END ===

=== CODE BLOCK ADDRESS 0x1c36 ===
  0x1c36	nop    	word ptr [eax + eax]
  0x1c40	dec    	eax
  0x1c41	cmp    	ecx, dword ptr [0x33c1]
  0x1c47	jne    	0x1c59
  === BLOCK LINK ===
    0x1c49
=== CODE BLOCK END ===

=== CODE BLOCK ADDRESS 0x1c49 ===
  0x1c49	dec    	eax
  0x1c4a	rol    	ecx, 0x10
  0x1c4d	test   	cx, 0xffff
  0x1c52	jne    	0x1c55
  === BLOCK LINK ===
    0x1c54
=== CODE BLOCK END ===

=== CODE BLOCK ADDRESS 0x1c54 ===
  0x1c54	ret    	
  0x1c55	dec    	eax
  0x1c56	ror    	ecx, 0x10
  0x1c59	jmp    	0x1fd0
  === BLOCK LINK ===
    0x1c5e
=== CODE BLOCK END ===

=== CODE BLOCK ADDRESS 0x17a8 ===
  0x17a8	mov    	dword ptr [esp + 0x10], edx
  0x17ac	dec    	esp
  0x17ad	mov    	ebx, esp
  === BLOCK LINK ===
    0x17af
=== CODE BLOCK END ===

=== CODE BLOCK ADDRESS 0x1c5e ===
  0x1c5e	int3   	
  0x1c5f	int3   	
  0x1c60	int3   	
  0x1c61	int3   	
  0x1c62	int3   	
  === BLOCK LINK ===
    0x1c63
=== CODE BLOCK END ===

=== CODE BLOCK ADDRESS 0x1c63 ===
  0x1c63	int3   	
  0x1c64	int3   	
  0x1c65	int3   	
  0x1c66	int3   	
  0x1c67	int3   	
  === BLOCK LINK ===
    0x1c68
=== CODE BLOCK END ===

=== CODE BLOCK ADDRESS 0x1c68 ===
  0x1c68	int3   	
  0x1c69	int3   	
  0x1c6a	int3   	
  0x1c6b	int3   	
  0x1c6c	int3   	
  === BLOCK LINK ===
    0x1c6d
=== CODE BLOCK END ===

=== CODE BLOCK ADDRESS 0x1c6d ===
  0x1c6d	int3   	
  0x1c6e	int3   	
  0x1c6f	int3   	
  0x1c70	dec    	eax
  0x1c71	sub    	esp, 0x28
  === BLOCK LINK ===
    0x1c74
=== CODE BLOCK END ===

=== CODE BLOCK ADDRESS 0x1c74 ===
  0x1c74	dec    	eax
  0x1c75	mov    	eax, dword ptr [ecx]
  0x1c77	cmp    	dword ptr [eax], 0xe06d7363
  0x1c7d	jne    	0x1ca2
  === BLOCK LINK ===
    0x1c7f
=== CODE BLOCK END ===

=== CODE BLOCK ADDRESS 0x1c7f ===
  0x1c7f	cmp    	dword ptr [eax + 0x18], 4
  0x1c83	jne    	0x1ca2
  === BLOCK LINK ===
    0x1c85
=== CODE BLOCK END ===

=== CODE BLOCK ADDRESS 0x1c85 ===
  0x1c85	mov    	ecx, dword ptr [eax + 0x20]
  0x1c88	lea    	eax, [ecx - 0x19930520]
  0x1c8e	cmp    	eax, 2
  0x1c91	jbe    	0x1c9b
  === BLOCK LINK ===
    0x1c93
=== CODE BLOCK END ===

=== CODE BLOCK ADDRESS 0x1c93 ===
  0x1c93	cmp    	ecx, 0x1994000
  0x1c99	jne    	0x1ca2
  === BLOCK LINK ===
    0x1c9b
=== CODE BLOCK END ===

=== CODE BLOCK ADDRESS 0x1c9b ===
  0x1c9b	call   	dword ptr [0x15e7]
  === BLOCK LINK ===
    0x1ca1
=== CODE BLOCK END ===

=== CODE BLOCK ADDRESS 0x1ca1 ===
  0x1ca1	int3   	
  0x1ca2	xor    	eax, eax
  0x1ca4	dec    	eax
  0x1ca5	add    	esp, 0x28
  0x1ca8	ret    	
  === BLOCK LINK ===
    0x1ca9
=== CODE BLOCK END ===

=== CODE BLOCK ADDRESS 0x1ca9 ===
  0x1ca9	int3   	
  0x1caa	int3   	
  0x1cab	int3   	
  0x1cac	int3   	
  0x1cad	int3   	
  === BLOCK LINK ===
    0x1cae
=== CODE BLOCK END ===

=== CODE BLOCK ADDRESS 0x1cae ===
  0x1cae	int3   	
  0x1caf	int3   	
  0x1cb0	dec    	eax
  0x1cb1	sub    	esp, 0x28
  0x1cb4	dec    	eax
  === BLOCK LINK ===
    0x1cb5
=== CODE BLOCK END ===

=== CODE BLOCK ADDRESS 0x1cb5 ===
  0x1cb5	lea    	ecx, [0xffffffb5]
  0x1cbb	call   	dword ptr [0x14af]
  === BLOCK LINK ===
    0x1cc1
=== CODE BLOCK END ===

=== CODE BLOCK ADDRESS 0x1cc1 ===
  0x1cc1	xor    	eax, eax
  0x1cc3	dec    	eax
  0x1cc4	add    	esp, 0x28
  0x1cc7	ret    	
  0x1cc8	int3   	
  === BLOCK LINK ===
    0x1cc9
=== CODE BLOCK END ===

=== CODE BLOCK ADDRESS 0x1cc9 ===
  0x1cc9	int3   	
  0x1cca	int3   	
  0x1ccb	int3   	
  0x1ccc	int3   	
  0x1ccd	int3   	
  === BLOCK LINK ===
    0x1cce
=== CODE BLOCK END ===

=== CODE BLOCK ADDRESS 0x1cce ===
  0x1cce	jmp    	dword ptr [0x1664]
  === BLOCK LINK ===
    0x1cd4
=== CODE BLOCK END ===

=== CODE BLOCK ADDRESS 0x1cd4 ===
  0x1cd4	int3   	
  0x1cd5	int3   	
  0x1cd6	int3   	
  0x1cd7	int3   	
  0x1cd8	int3   	
  === BLOCK LINK ===
    0x1cd9
=== CODE BLOCK END ===

=== CODE BLOCK ADDRESS 0x1cd9 ===
  0x1cd9	int3   	
  0x1cda	int3   	
  0x1cdb	int3   	
  0x1cdc	dec    	eax
  0x1cdd	sub    	esp, 0x18
  === BLOCK LINK ===
    0x1ce0
=== CODE BLOCK END ===

=== CODE BLOCK ADDRESS 0x1ce0 ===
  0x1ce0	xor    	edx, edx
  0x1ce2	dec    	eax
  0x1ce3	lea    	eax, [ecx - 1]
  0x1ce6	dec    	eax
  0x1ce7	cmp    	eax, -3
  === BLOCK LINK ===
    0x1cea
=== CODE BLOCK END ===

=== CODE BLOCK ADDRESS 0x1cea ===
  0x1cea	ja     	0x1d28
  === BLOCK LINK ===
    0x1cec
=== CODE BLOCK END ===

=== CODE BLOCK ADDRESS 0x1cec ===
  0x1cec	mov    	eax, 0x5a4d
  0x1cf1	cmp    	word ptr [ecx], ax
  0x1cf4	jne    	0x1d20
  === BLOCK LINK ===
    0x1cf6
=== CODE BLOCK END ===

=== CODE BLOCK ADDRESS 0x1cf6 ===
  0x1cf6	cmp    	dword ptr [ecx + 0x3c], edx
  0x1cf9	jl     	0x1d20
  === BLOCK LINK ===
    0x1cfb
=== CODE BLOCK END ===

=== CODE BLOCK ADDRESS 0x1cfb ===
  0x1cfb	cmp    	dword ptr [ecx + 0x3c], 0x10000000
  0x1d02	jae    	0x1d20
  === BLOCK LINK ===
    0x1d04
=== CODE BLOCK END ===

=== CODE BLOCK ADDRESS 0x1d04 ===
  0x1d04	dec    	eax
  0x1d05	arpl   	word ptr [ecx + 0x3c], ax
  0x1d08	dec    	eax
  0x1d09	add    	eax, ecx
  0x1d0b	dec    	eax
  === BLOCK LINK ===
    0x1d0c
=== CODE BLOCK END ===

=== CODE BLOCK ADDRESS 0x1d0c ===
  0x1d0c	mov    	dword ptr [esp], eax
  0x1d0f	cmp    	dword ptr [eax], 0x4550
  0x1d15	dec    	eax
  0x1d16	cmovne  	eax, edx
  0x1d19	dec    	eax
  === BLOCK LINK ===
    0x1d1a
=== CODE BLOCK END ===

=== CODE BLOCK ADDRESS 0x1d1a ===
  0x1d1a	mov    	edx, eax
  0x1d1c	dec    	eax
  0x1d1d	mov    	dword ptr [esp], eax
  0x1d20	jmp    	0x1d28
  === BLOCK LINK ===
    0x1d22
=== CODE BLOCK END ===

=== CODE BLOCK ADDRESS 0x1d22 ===
  0x1d22	xor    	edx, edx
  0x1d24	dec    	eax
  0x1d25	mov    	dword ptr [esp], edx
  0x1d28	dec    	eax
  0x1d29	mov    	eax, edx
  === BLOCK LINK ===
    0x1d2b
=== CODE BLOCK END ===

=== CODE BLOCK ADDRESS 0x1d2b ===
  0x1d2b	dec    	eax
  0x1d2c	add    	esp, 0x18
  0x1d2f	ret    	
  0x1d30	int3   	
  0x1d31	int3   	
  === BLOCK LINK ===
    0x1d32
=== CODE BLOCK END ===

=== CODE BLOCK ADDRESS 0x114c ===
  0x114c	mov    	ecx, esi
  0x114e	call   	0x2158
  === BLOCK LINK ===
    0x1153
=== CODE BLOCK END ===

=== CODE BLOCK ADDRESS 0x1d32 ===
  0x1d32	int3   	
  0x1d33	int3   	
  0x1d34	int3   	
  0x1d35	int3   	
  0x1d36	int3   	
  === BLOCK LINK ===
    0x1d37
=== CODE BLOCK END ===

=== CODE BLOCK ADDRESS 0x1d37 ===
  0x1d37	int3   	
  0x1d38	inc    	eax
  0x1d39	push   	ebx
  0x1d3a	dec    	eax
  0x1d3b	sub    	esp, 0x20
  === BLOCK LINK ===
    0x1d3e
=== CODE BLOCK END ===

=== CODE BLOCK ADDRESS 0x1d3e ===
  0x1d3e	mov    	ebx, ecx
  0x1d40	xor    	ecx, ecx
  0x1d42	call   	dword ptr [0x1470]
  === BLOCK LINK ===
    0x1d48
=== CODE BLOCK END ===

=== CODE BLOCK ADDRESS 0x1d48 ===
  0x1d48	dec    	eax
  0x1d49	test   	eax, eax
  0x1d4b	je     	0x1d75
  === BLOCK LINK ===
    0x1d4d
=== CODE BLOCK END ===

=== CODE BLOCK ADDRESS 0x1d4d ===
  0x1d4d	dec    	eax
  0x1d4e	mov    	ecx, eax
  0x1d50	call   	0x1cdc
  === BLOCK LINK ===
    0x1d55
=== CODE BLOCK END ===

=== CODE BLOCK ADDRESS 0x1d55 ===
  0x1d55	dec    	eax
  0x1d56	test   	eax, eax
  0x1d58	je     	0x1d75
  === BLOCK LINK ===
    0x1d5a
=== CODE BLOCK END ===

=== CODE BLOCK ADDRESS 0x1d5a ===
  0x1d5a	mov    	ecx, 2
  0x1d5f	cmp    	word ptr [eax + 0x5c], cx
  0x1d63	jne    	0x1d69
  === BLOCK LINK ===
    0x1d65
=== CODE BLOCK END ===

=== CODE BLOCK ADDRESS 0x1d65 ===
  0x1d65	mov    	eax, ecx
  0x1d67	jmp    	0x1d77
  === BLOCK LINK ===
    0x1d69
=== CODE BLOCK END ===

=== CODE BLOCK ADDRESS 0x1d69 ===
  0x1d69	cmp    	word ptr [eax + 0x5c], 3
  0x1d6e	mov    	eax, 1
  0x1d73	je     	0x1d77
  === BLOCK LINK ===
    0x1d75
=== CODE BLOCK END ===

=== CODE BLOCK ADDRESS 0x1d75 ===
  0x1d75	mov    	eax, ebx
  0x1d77	dec    	eax
  0x1d78	add    	esp, 0x20
  0x1d7b	pop    	ebx
  0x1d7c	ret    	
  === BLOCK LINK ===
    0x1d7d
=== CODE BLOCK END ===

=== CODE BLOCK ADDRESS 0x1d7d ===
  0x1d7d	int3   	
  0x1d7e	int3   	
  0x1d7f	int3   	
  0x1d80	int3   	
  0x1d81	int3   	
  === BLOCK LINK ===
    0x1d82
=== CODE BLOCK END ===

=== CODE BLOCK ADDRESS 0x1d82 ===
  0x1d82	int3   	
  0x1d83	jmp    	dword ptr [0x15a7]
  === BLOCK LINK ===
    0x1d89
=== CODE BLOCK END ===

=== CODE BLOCK ADDRESS 0x1d89 ===
  0x1d89	int3   	
  0x1d8a	int3   	
  0x1d8b	int3   	
  0x1d8c	int3   	
  0x1d8d	int3   	
  === BLOCK LINK ===
    0x1d8e
=== CODE BLOCK END ===

=== CODE BLOCK ADDRESS 0x1d8e ===
  0x1d8e	int3   	
  0x1d8f	int3   	
  0x1d90	xor    	eax, eax
  0x1d92	ret    	
  0x1d93	int3   	
  === BLOCK LINK ===
    0x1d94
=== CODE BLOCK END ===

=== CODE BLOCK ADDRESS 0x1d94 ===
  0x1d94	int3   	
  0x1d95	int3   	
  0x1d96	int3   	
  0x1d97	int3   	
  0x1d98	int3   	
  === BLOCK LINK ===
    0x1d99
=== CODE BLOCK END ===

=== CODE BLOCK ADDRESS 0x1d99 ===
  0x1d99	int3   	
  0x1d9a	int3   	
  0x1d9b	int3   	
  0x1d9c	int3   	
  0x1d9d	int3   	
  === BLOCK LINK ===
    0x1d9e
=== CODE BLOCK END ===

=== CODE BLOCK ADDRESS 0x1d9e ===
  0x1d9e	int3   	
  0x1d9f	int3   	
  0x1da0	dec    	esp
  0x1da1	arpl   	word ptr [ecx + 0x3c], ax
  0x1da4	inc    	ebp
  === BLOCK LINK ===
    0x1da5
=== CODE BLOCK END ===

=== CODE BLOCK ADDRESS 0x1da5 ===
  0x1da5	xor    	ecx, ecx
  0x1da7	dec    	esp
  0x1da8	add    	eax, ecx
  0x1daa	dec    	esp
  0x1dab	mov    	edx, edx
  === BLOCK LINK ===
    0x1dad
=== CODE BLOCK END ===

=== CODE BLOCK ADDRESS 0x1dad ===
  0x1dad	inc    	ecx
  0x1dae	movzx  	eax, word ptr [eax + 0x14]
  0x1db2	inc    	ebp
  0x1db3	movzx  	ebx, word ptr [eax + 6]
  0x1db7	dec    	eax
  === BLOCK LINK ===
    0x1db8
=== CODE BLOCK END ===

=== CODE BLOCK ADDRESS 0x1db8 ===
  0x1db8	add    	eax, 0x18
  0x1dbb	dec    	ecx
  0x1dbc	add    	eax, eax
  0x1dbe	inc    	ebp
  0x1dbf	test   	ebx, ebx
  === BLOCK LINK ===
    0x1dc1
=== CODE BLOCK END ===

=== CODE BLOCK ADDRESS 0x1dc1 ===
  0x1dc1	je     	0x1de1
  === BLOCK LINK ===
    0x1dc3
=== CODE BLOCK END ===

=== CODE BLOCK ADDRESS 0x1dc3 ===
  0x1dc3	mov    	edx, dword ptr [eax + 0xc]
  0x1dc6	dec    	esp
  0x1dc7	cmp    	edx, edx
  0x1dc9	jb     	0x1dd5
  === BLOCK LINK ===
    0x1dcb
=== CODE BLOCK END ===

=== CODE BLOCK ADDRESS 0x1dcb ===
  0x1dcb	mov    	ecx, dword ptr [eax + 8]
  0x1dce	add    	ecx, edx
  0x1dd0	dec    	esp
  0x1dd1	cmp    	edx, ecx
  0x1dd3	jb     	0x1de3
  === BLOCK LINK ===
    0x1dd5
=== CODE BLOCK END ===

=== CODE BLOCK ADDRESS 0x1dd5 ===
  0x1dd5	inc    	ecx
  0x1dd6	inc    	ecx
  0x1dd8	dec    	eax
  0x1dd9	add    	eax, 0x28
  0x1ddc	inc    	ebp
  === BLOCK LINK ===
    0x1ddd
=== CODE BLOCK END ===

=== CODE BLOCK ADDRESS 0x1ddd ===
  0x1ddd	cmp    	ecx, ebx
  0x1ddf	jb     	0x1dc3
  === BLOCK LINK ===
    0x1de1
=== CODE BLOCK END ===

=== CODE BLOCK ADDRESS 0x1de1 ===
  0x1de1	xor    	eax, eax
  0x1de3	ret    	
  0x1de4	int3   	
  0x1de5	int3   	
  0x1de6	int3   	
  === BLOCK LINK ===
    0x1de7
=== CODE BLOCK END ===

=== CODE BLOCK ADDRESS 0x1478 ===
  0x1478	dec    	eax
  0x1479	mov    	dword ptr [esp + 0x18], ebx
  === BLOCK LINK ===
    0x147d
=== CODE BLOCK END ===

=== CODE BLOCK ADDRESS 0x1de7 ===
  0x1de7	int3   	
  0x1de8	int3   	
  0x1de9	int3   	
  0x1dea	int3   	
  0x1deb	int3   	
  === BLOCK LINK ===
    0x1dec
=== CODE BLOCK END ===

=== CODE BLOCK ADDRESS 0x1dec ===
  0x1dec	int3   	
  0x1ded	int3   	
  0x1dee	int3   	
  0x1def	int3   	
  0x1df0	dec    	eax
  === BLOCK LINK ===
    0x1df1
=== CODE BLOCK END ===

=== CODE BLOCK ADDRESS 0x1df1 ===
  0x1df1	mov    	dword ptr [esp + 8], ebx
  0x1df5	push   	edi
  0x1df6	dec    	eax
  0x1df7	sub    	esp, 0x20
  0x1dfa	dec    	eax
  === BLOCK LINK ===
    0x1dfb
=== CODE BLOCK END ===

=== CODE BLOCK ADDRESS 0x1dfb ===
  0x1dfb	mov    	ebx, ecx
  0x1dfd	dec    	eax
  0x1dfe	lea    	edi, [0xffffe1fc]
  0x1e04	dec    	eax
  0x1e05	mov    	ecx, edi
  === BLOCK LINK ===
    0x1e07
=== CODE BLOCK END ===

=== CODE BLOCK ADDRESS 0x1e07 ===
  0x1e07	call   	0x1e50
  === BLOCK LINK ===
    0x1e0c
=== CODE BLOCK END ===

=== CODE BLOCK ADDRESS 0x1e0c ===
  0x1e0c	test   	eax, eax
  0x1e0e	je     	0x1e32
  === BLOCK LINK ===
    0x1e10
=== CODE BLOCK END ===

=== CODE BLOCK ADDRESS 0x1e10 ===
  0x1e10	dec    	eax
  0x1e11	sub    	ebx, edi
  0x1e13	dec    	eax
  0x1e14	mov    	edx, ebx
  0x1e16	dec    	eax
  === BLOCK LINK ===
    0x1e17
=== CODE BLOCK END ===

=== CODE BLOCK ADDRESS 0x1e17 ===
  0x1e17	mov    	ecx, edi
  0x1e19	call   	0x1da0
  === BLOCK LINK ===
    0x1e1e
=== CODE BLOCK END ===

=== CODE BLOCK ADDRESS 0x1e1e ===
  0x1e1e	dec    	eax
  0x1e1f	test   	eax, eax
  0x1e21	je     	0x1e32
  === BLOCK LINK ===
    0x1e23
=== CODE BLOCK END ===

=== CODE BLOCK ADDRESS 0x1e23 ===
  0x1e23	mov    	eax, dword ptr [eax + 0x24]
  0x1e26	shr    	eax, 0x1f
  0x1e29	not    	eax
  0x1e2b	and    	eax, 1
  0x1e2e	jmp    	0x1e32
  === BLOCK LINK ===
    0x1e30
=== CODE BLOCK END ===

=== CODE BLOCK ADDRESS 0x1e30 ===
  0x1e30	xor    	eax, eax
  0x1e32	dec    	eax
  0x1e33	mov    	ebx, dword ptr [esp + 0x30]
  0x1e37	dec    	eax
  0x1e38	add    	esp, 0x20
  === BLOCK LINK ===
    0x1e3b
=== CODE BLOCK END ===

=== CODE BLOCK ADDRESS 0x1e3b ===
  0x1e3b	pop    	edi
  0x1e3c	ret    	
  0x1e3d	int3   	
  0x1e3e	int3   	
  0x1e3f	int3   	
  === BLOCK LINK ===
    0x1e40
=== CODE BLOCK END ===

=== CODE BLOCK ADDRESS 0x1e40 ===
  0x1e40	int3   	
  0x1e41	int3   	
  0x1e42	int3   	
  0x1e43	int3   	
  0x1e44	int3   	
  === BLOCK LINK ===
    0x1e45
=== CODE BLOCK END ===

=== CODE BLOCK ADDRESS 0x1e45 ===
  0x1e45	int3   	
  0x1e46	int3   	
  0x1e47	int3   	
  0x1e48	int3   	
  0x1e49	int3   	
  === BLOCK LINK ===
    0x1e4a
=== CODE BLOCK END ===

=== CODE BLOCK ADDRESS 0x1e4a ===
  0x1e4a	int3   	
  0x1e4b	int3   	
  0x1e4c	int3   	
  0x1e4d	int3   	
  0x1e4e	int3   	
  === BLOCK LINK ===
    0x1e4f
=== CODE BLOCK END ===

=== CODE BLOCK ADDRESS 0x1e4f ===
  0x1e4f	int3   	
  0x1e50	mov    	eax, 0x5a4d
  0x1e55	cmp    	word ptr [ecx], ax
  0x1e58	jne    	0x1e7a
  === BLOCK LINK ===
    0x1e5a
=== CODE BLOCK END ===

=== CODE BLOCK ADDRESS 0x1e5a ===
  0x1e5a	dec    	eax
  0x1e5b	arpl   	word ptr [ecx + 0x3c], ax
  0x1e5e	dec    	eax
  0x1e5f	add    	eax, ecx
  0x1e61	cmp    	dword ptr [eax], 0x4550
  === BLOCK LINK ===
    0x1e67
=== CODE BLOCK END ===

=== CODE BLOCK ADDRESS 0x1e67 ===
  0x1e67	jne    	0x1e7a
  === BLOCK LINK ===
    0x1e69
=== CODE BLOCK END ===

=== CODE BLOCK ADDRESS 0x1e69 ===
  0x1e69	mov    	ecx, 0x20b
  0x1e6e	cmp    	word ptr [eax + 0x18], cx
  0x1e72	jne    	0x1e7a
  === BLOCK LINK ===
    0x1e74
=== CODE BLOCK END ===

=== CODE BLOCK ADDRESS 0x1e74 ===
  0x1e74	mov    	eax, 1
  0x1e79	ret    	
  0x1e7a	xor    	eax, eax
  0x1e7c	ret    	
  0x1e7d	int3   	
  === BLOCK LINK ===
    0x1e7e
=== CODE BLOCK END ===

=== CODE BLOCK ADDRESS 0x1e7e ===
  0x1e7e	int3   	
  0x1e7f	int3   	
  0x1e80	int3   	
  0x1e81	int3   	
  0x1e82	int3   	
  === BLOCK LINK ===
    0x1e83
=== CODE BLOCK END ===

=== CODE BLOCK ADDRESS 0x1e83 ===
  0x1e83	int3   	
  0x1e84	dec    	eax
  0x1e85	mov    	dword ptr [esp + 0x20], ebx
  0x1e89	push   	ebp
  0x1e8a	dec    	eax
  === BLOCK LINK ===
    0x1e8b
=== CODE BLOCK END ===

=== CODE BLOCK ADDRESS 0x1e8b ===
  0x1e8b	mov    	ebp, esp
  0x1e8d	dec    	eax
  0x1e8e	sub    	esp, 0x20
  0x1e91	dec    	eax
  0x1e92	and    	dword ptr [ebp + 0x18], 0
  === BLOCK LINK ===
    0x1e96
=== CODE BLOCK END ===

=== CODE BLOCK ADDRESS 0x1e96 ===
  0x1e96	dec    	eax
  0x1e97	mov    	ebx, 0x2ddfa232
  0x1e9c	cdq    	
  0x1e9d	sub    	eax, dword ptr [eax]
  0x1e9f	add    	byte ptr [eax - 0x75], cl
  === BLOCK LINK ===
    0x1ea2
=== CODE BLOCK END ===

=== CODE BLOCK ADDRESS 0x1ea2 ===
  0x1ea2	add    	eax, 0x3161
  0x1ea7	dec    	eax
  0x1ea8	cmp    	eax, ebx
  0x1eaa	jne    	0x1f43
  === BLOCK LINK ===
    0x1eb0
=== CODE BLOCK END ===

=== CODE BLOCK ADDRESS 0x1eb0 ===
  0x1eb0	dec    	eax
  0x1eb1	lea    	ecx, [ebp + 0x18]
  0x1eb4	call   	dword ptr [0x13b6]
  === BLOCK LINK ===
    0x1eba
=== CODE BLOCK END ===

=== CODE BLOCK ADDRESS 0x1eba ===
  0x1eba	dec    	eax
  0x1ebb	mov    	eax, dword ptr [ebp + 0x18]
  0x1ebe	dec    	eax
  0x1ebf	mov    	dword ptr [ebp + 0x10], eax
  0x1ec2	call   	dword ptr [0x1330]
  === BLOCK LINK ===
    0x1ec8
=== CODE BLOCK END ===

=== CODE BLOCK ADDRESS 0x1ec8 ===
  0x1ec8	mov    	eax, eax
  0x1eca	dec    	eax
  0x1ecb	xor    	dword ptr [ebp + 0x10], eax
  0x1ece	call   	dword ptr [0x132c]
  === BLOCK LINK ===
    0x1ed4
=== CODE BLOCK END ===

=== CODE BLOCK ADDRESS 0x1ed4 ===
  0x1ed4	mov    	eax, eax
  0x1ed6	dec    	eax
  0x1ed7	xor    	dword ptr [ebp + 0x10], eax
  0x1eda	call   	dword ptr [0x1388]
  === BLOCK LINK ===
    0x1ee0
=== CODE BLOCK END ===

=== CODE BLOCK ADDRESS 0x1ee0 ===
  0x1ee0	mov    	eax, eax
  0x1ee2	dec    	eax
  0x1ee3	shl    	eax, 0x18
  0x1ee6	dec    	eax
  0x1ee7	xor    	dword ptr [ebp + 0x10], eax
  === BLOCK LINK ===
    0x1eea
=== CODE BLOCK END ===

=== CODE BLOCK ADDRESS 0x1eea ===
  0x1eea	call   	dword ptr [0x1378]
  === BLOCK LINK ===
    0x1ef0
=== CODE BLOCK END ===

=== CODE BLOCK ADDRESS 0x1ef0 ===
  0x1ef0	mov    	eax, eax
  0x1ef2	dec    	eax
  0x1ef3	lea    	ecx, [ebp + 0x10]
  0x1ef6	dec    	eax
  0x1ef7	xor    	eax, dword ptr [ebp + 0x10]
  === BLOCK LINK ===
    0x1efa
=== CODE BLOCK END ===

=== CODE BLOCK ADDRESS 0x1efa ===
  0x1efa	dec    	eax
  0x1efb	xor    	eax, ecx
  0x1efd	dec    	eax
  0x1efe	lea    	ecx, [ebp + 0x20]
  0x1f01	dec    	eax
  === BLOCK LINK ===
    0x1f02
=== CODE BLOCK END ===

=== CODE BLOCK ADDRESS 0x1f02 ===
  0x1f02	mov    	dword ptr [ebp + 0x10], eax
  0x1f05	call   	dword ptr [0x130d]
  === BLOCK LINK ===
    0x1f0b
=== CODE BLOCK END ===

=== CODE BLOCK ADDRESS 0x1f0b ===
  0x1f0b	mov    	eax, dword ptr [ebp + 0x20]
  0x1f0e	dec    	eax
  0x1f0f	mov    	ecx, 0xffffffff
  0x1f14	.byte  	0xff
  0x1f15	inc    	dword ptr [eax]
  === BLOCK LINK ===
    0x1f17
=== CODE BLOCK END ===

=== CODE BLOCK ADDRESS 0x1f17 ===
  0x1f17	add    	byte ptr [eax - 0x3f], cl
  0x1f1a	loopne  	0x1f3c
  === BLOCK LINK ===
    0x1f1c
=== CODE BLOCK END ===

=== CODE BLOCK ADDRESS 0x1f1c ===
  0x1f1c	dec    	eax
  0x1f1d	xor    	eax, dword ptr [ebp + 0x20]
  0x1f20	dec    	eax
  0x1f21	xor    	eax, dword ptr [ebp + 0x10]
  0x1f24	dec    	eax
  === BLOCK LINK ===
    0x1f25
=== CODE BLOCK END ===

=== CODE BLOCK ADDRESS 0x1f25 ===
  0x1f25	and    	eax, ecx
  0x1f27	dec    	eax
  0x1f28	mov    	ecx, eax
  0x1f2a	dec    	eax
  0x1f2b	cmp    	eax, ebx
  === BLOCK LINK ===
    0x1f2d
=== CODE BLOCK END ===

=== CODE BLOCK ADDRESS 0x1f2d ===
  0x1f2d	jne    	0x1f3c
  === BLOCK LINK ===
    0x1f2f
=== CODE BLOCK END ===

=== CODE BLOCK ADDRESS 0x1f2f ===
  0x1f2f	dec    	eax
  0x1f30	mov    	eax, 0x2ddfa233
  0x1f35	cdq    	
  0x1f36	sub    	eax, dword ptr [eax]
  0x1f38	add    	byte ptr [eax - 0x75], cl
  === BLOCK LINK ===
    0x1f3b
=== CODE BLOCK END ===

=== CODE BLOCK ADDRESS 0x1f3b ===
  0x1f3b	enter  	-0x76b8, 0xd
  0x1f3f	lds    	esi, ptr [eax]
  0x1f41	add    	byte ptr [eax], al
  0x1f43	dec    	eax
  0x1f44	mov    	ebx, dword ptr [esp + 0x48]
  === BLOCK LINK ===
    0x1f48
=== CODE BLOCK END ===

=== CODE BLOCK ADDRESS 0x1f48 ===
  0x1f48	dec    	eax
  0x1f49	not    	eax
  0x1f4b	dec    	eax
  0x1f4c	mov    	dword ptr [0x30be], eax
  0x1f52	dec    	eax
  === BLOCK LINK ===
    0x1f53
=== CODE BLOCK END ===

=== CODE BLOCK ADDRESS 0x1f53 ===
  0x1f53	add    	esp, 0x20
  0x1f56	pop    	ebp
  0x1f57	ret    	
  0x1f58	int3   	
  0x1f59	int3   	
  === BLOCK LINK ===
    0x1f5a
=== CODE BLOCK END ===

=== CODE BLOCK ADDRESS 0x1f5a ===
  0x1f5a	int3   	
  0x1f5b	int3   	
  0x1f5c	int3   	
  0x1f5d	int3   	
  0x1f5e	jmp    	dword ptr [0x1394]
  === BLOCK LINK ===
    0x1f64
=== CODE BLOCK END ===

=== CODE BLOCK ADDRESS 0x1f64 ===
  0x1f64	int3   	
  0x1f65	int3   	
  0x1f66	int3   	
  0x1f67	int3   	
  0x1f68	int3   	
  === BLOCK LINK ===
    0x1f69
=== CODE BLOCK END ===

=== CODE BLOCK ADDRESS 0x1f69 ===
  0x1f69	int3   	
  0x1f6a	jmp    	dword ptr [0x1380]
  === BLOCK LINK ===
    0x1f70
=== CODE BLOCK END ===

=== CODE BLOCK ADDRESS 0x1f70 ===
  0x1f70	int3   	
  0x1f71	int3   	
  0x1f72	int3   	
  0x1f73	int3   	
  0x1f74	int3   	
  === BLOCK LINK ===
    0x1f75
=== CODE BLOCK END ===

=== CODE BLOCK ADDRESS 0x1f75 ===
  0x1f75	int3   	
  0x1f76	int3   	
  0x1f77	int3   	
  0x1f78	int3   	
  0x1f79	int3   	
  === BLOCK LINK ===
    0x1f7a
=== CODE BLOCK END ===

=== CODE BLOCK ADDRESS 0x1f7a ===
  0x1f7a	int3   	
  0x1f7b	int3   	
  0x1f7c	int3   	
  0x1f7d	int3   	
  0x1f7e	int3   	
  === BLOCK LINK ===
    0x1f7f
=== CODE BLOCK END ===

=== CODE BLOCK ADDRESS 0x1f7f ===
  0x1f7f	int3   	
  0x1f80	ret    	0
  0x1f83	int3   	
  0x1f84	int3   	
  0x1f85	int3   	
  === BLOCK LINK ===
    0x1f86
=== CODE BLOCK END ===

=== CODE BLOCK ADDRESS 0x1216 ===
  0x1216	dec    	eax
  0x1217	mov    	ebx, dword ptr [esp + 0x30]
  === BLOCK LINK ===
    0x121b
=== CODE BLOCK END ===

=== CODE BLOCK ADDRESS 0x1f86 ===
  0x1f86	int3   	
  0x1f87	int3   	
  0x1f88	int3   	
  0x1f89	int3   	
  0x1f8a	int3   	
  === BLOCK LINK ===
    0x1f8b
=== CODE BLOCK END ===

=== CODE BLOCK ADDRESS 0x1f8b ===
  0x1f8b	int3   	
  0x1f8c	inc    	eax
  0x1f8d	push   	ebx
  0x1f8e	dec    	eax
  0x1f8f	sub    	esp, 0x20
  === BLOCK LINK ===
    0x1f92
=== CODE BLOCK END ===

=== CODE BLOCK ADDRESS 0x1f92 ===
  0x1f92	dec    	eax
  0x1f93	mov    	ebx, ecx
  0x1f95	xor    	ecx, ecx
  0x1f97	call   	dword ptr [0x11d3]
  === BLOCK LINK ===
    0x1f9d
=== CODE BLOCK END ===

=== CODE BLOCK ADDRESS 0x1f9d ===
  0x1f9d	dec    	eax
  0x1f9e	mov    	ecx, ebx
  0x1fa0	call   	dword ptr [0x11c2]
  === BLOCK LINK ===
    0x1fa6
=== CODE BLOCK END ===

=== CODE BLOCK ADDRESS 0x1fa6 ===
  0x1fa6	call   	dword ptr [0x1244]
  === BLOCK LINK ===
    0x1fac
=== CODE BLOCK END ===

=== CODE BLOCK ADDRESS 0x1fac ===
  0x1fac	dec    	eax
  0x1fad	mov    	ecx, eax
  0x1faf	mov    	edx, 0xc0000409
  0x1fb4	dec    	eax
  0x1fb5	add    	esp, 0x20
  === BLOCK LINK ===
    0x1fb8
=== CODE BLOCK END ===

=== CODE BLOCK ADDRESS 0x1fb8 ===
  0x1fb8	pop    	ebx
  0x1fb9	dec    	eax
  0x1fba	jmp    	dword ptr [0x1248]
  === BLOCK LINK ===
    0x1fc0
=== CODE BLOCK END ===

=== CODE BLOCK ADDRESS 0x1fc0 ===
  0x1fc0	int3   	
  0x1fc1	int3   	
  0x1fc2	int3   	
  0x1fc3	int3   	
  0x1fc4	int3   	
  === BLOCK LINK ===
    0x1fc5
=== CODE BLOCK END ===

=== CODE BLOCK ADDRESS 0x1fc5 ===
  0x1fc5	int3   	
  0x1fc6	int3   	
  0x1fc7	int3   	
  0x1fc8	int3   	
  0x1fc9	int3   	
  === BLOCK LINK ===
    0x1fca
=== CODE BLOCK END ===

=== CODE BLOCK ADDRESS 0x1fca ===
  0x1fca	int3   	
  0x1fcb	int3   	
  0x1fcc	int3   	
  0x1fcd	int3   	
  0x1fce	int3   	
  === BLOCK LINK ===
    0x1fcf
=== CODE BLOCK END ===

=== CODE BLOCK ADDRESS 0x1fcf ===
  0x1fcf	int3   	
  0x1fd0	dec    	eax
  0x1fd1	mov    	dword ptr [esp + 8], ecx
  0x1fd5	dec    	eax
  0x1fd6	sub    	esp, 0x88
  === BLOCK LINK ===
    0x1fdc
=== CODE BLOCK END ===

=== CODE BLOCK ADDRESS 0x1fdc ===
  0x1fdc	dec    	eax
  0x1fdd	lea    	ecx, [0x311d]
  0x1fe3	call   	dword ptr [0x124f]
  === BLOCK LINK ===
    0x1fe9
=== CODE BLOCK END ===

=== CODE BLOCK ADDRESS 0x1fe9 ===
  0x1fe9	dec    	eax
  0x1fea	mov    	eax, dword ptr [0x3208]
  0x1ff0	dec    	eax
  0x1ff1	mov    	dword ptr [esp + 0x48], eax
  0x1ff5	inc    	ebp
  === BLOCK LINK ===
    0x1ff6
=== CODE BLOCK END ===

=== CODE BLOCK ADDRESS 0x1ff6 ===
  0x1ff6	xor    	eax, eax
  0x1ff8	dec    	eax
  0x1ff9	lea    	edx, [esp + 0x50]
  0x1ffd	dec    	eax
  0x1ffe	mov    	ecx, dword ptr [esp + 0x48]
  === BLOCK LINK ===
    0x2002
=== CODE BLOCK END ===

=== CODE BLOCK ADDRESS 0x2002 ===
  0x2002	call   	dword ptr [0x1228]
  === BLOCK LINK ===
    0x2008
=== CODE BLOCK END ===

=== CODE BLOCK ADDRESS 0x2008 ===
  0x2008	dec    	eax
  0x2009	mov    	dword ptr [esp + 0x40], eax
  0x200d	dec    	eax
  0x200e	cmp    	dword ptr [esp + 0x40], 0
  0x2013	je     	0x2057
  === BLOCK LINK ===
    0x2015
=== CODE BLOCK END ===

=== CODE BLOCK ADDRESS 0x2015 ===
  0x2015	dec    	eax
  0x2016	mov    	dword ptr [esp + 0x38], 0
  0x201e	dec    	eax
  0x201f	lea    	eax, [esp + 0x58]
  0x2023	dec    	eax
  === BLOCK LINK ===
    0x2024
=== CODE BLOCK END ===

=== CODE BLOCK ADDRESS 0x2024 ===
  0x2024	mov    	dword ptr [esp + 0x30], eax
  0x2028	dec    	eax
  0x2029	lea    	eax, [esp + 0x60]
  0x202d	dec    	eax
  0x202e	mov    	dword ptr [esp + 0x28], eax
  === BLOCK LINK ===
    0x2032
=== CODE BLOCK END ===

=== CODE BLOCK ADDRESS 0x2032 ===
  0x2032	dec    	eax
  0x2033	lea    	eax, [0x30c7]
  0x2039	dec    	eax
  0x203a	mov    	dword ptr [esp + 0x20], eax
  0x203e	dec    	esp
  === BLOCK LINK ===
    0x203f
=== CODE BLOCK END ===

=== CODE BLOCK ADDRESS 0x203f ===
  0x203f	mov    	ecx, dword ptr [esp + 0x40]
  0x2043	dec    	esp
  0x2044	mov    	eax, dword ptr [esp + 0x48]
  0x2048	dec    	eax
  0x2049	mov    	edx, dword ptr [esp + 0x50]
  === BLOCK LINK ===
    0x204d
=== CODE BLOCK END ===

=== CODE BLOCK ADDRESS 0x204d ===
  0x204d	xor    	ecx, ecx
  0x204f	call   	dword ptr [0x11d3]
  === BLOCK LINK ===
    0x2055
=== CODE BLOCK END ===

=== CODE BLOCK ADDRESS 0x2055 ===
  0x2055	jmp    	0x207a
  === BLOCK LINK ===
    0x2057
=== CODE BLOCK END ===

=== CODE BLOCK ADDRESS 0x2057 ===
  0x2057	dec    	eax
  0x2058	mov    	eax, dword ptr [0x313a]
  0x205e	dec    	eax
  0x205f	mov    	eax, dword ptr [eax]
  0x2061	dec    	eax
  === BLOCK LINK ===
    0x2062
=== CODE BLOCK END ===

=== CODE BLOCK ADDRESS 0x2062 ===
  0x2062	mov    	dword ptr [0x3190], eax
  0x2068	dec    	eax
  0x2069	mov    	eax, dword ptr [0x3129]
  0x206f	dec    	eax
  0x2070	add    	eax, 8
  === BLOCK LINK ===
    0x2073
=== CODE BLOCK END ===

=== CODE BLOCK ADDRESS 0x2073 ===
  0x2073	dec    	eax
  0x2074	mov    	dword ptr [0x311e], eax
  0x207a	dec    	eax
  0x207b	mov    	eax, dword ptr [0x3177]
  0x2081	dec    	eax
  === BLOCK LINK ===
    0x2082
=== CODE BLOCK END ===

=== CODE BLOCK ADDRESS 0x2082 ===
  0x2082	mov    	dword ptr [0x2fe8], eax
  0x2088	dec    	eax
  0x2089	mov    	eax, dword ptr [esp + 0x90]
  0x2090	dec    	eax
  0x2091	mov    	dword ptr [0x30e9], eax
  === BLOCK LINK ===
    0x2097
=== CODE BLOCK END ===

=== CODE BLOCK ADDRESS 0x2097 ===
  0x2097	mov    	dword ptr [0x2fbf], 0xc0000409
  0x20a1	mov    	dword ptr [0x2fb9], 1
  0x20ab	mov    	dword ptr [0x2fc3], 3
  0x20b5	mov    	eax, 8
  0x20ba	dec    	eax
  === BLOCK LINK ===
    0x20bb
=== CODE BLOCK END ===

=== CODE BLOCK ADDRESS 0x20bb ===
  0x20bb	imul   	eax, eax, 0
  0x20be	dec    	eax
  0x20bf	lea    	ecx, [0x2fbb]
  0x20c5	dec    	eax
  0x20c6	mov    	dword ptr [ecx + eax], 2
  === BLOCK LINK ===
    0x20cd
=== CODE BLOCK END ===

=== CODE BLOCK ADDRESS 0x20cd ===
  0x20cd	mov    	eax, 8
  0x20d2	dec    	eax
  0x20d3	imul   	eax, eax, 1
  0x20d6	dec    	eax
  0x20d7	lea    	ecx, [0x2fa3]
  === BLOCK LINK ===
    0x20dd
=== CODE BLOCK END ===

=== CODE BLOCK ADDRESS 0x20dd ===
  0x20dd	dec    	eax
  0x20de	mov    	edx, dword ptr [0x2f24]
  0x20e4	dec    	eax
  0x20e5	mov    	dword ptr [ecx + eax], edx
  0x20e8	mov    	eax, 8
  === BLOCK LINK ===
    0x20ed
=== CODE BLOCK END ===

=== CODE BLOCK ADDRESS 0x20ed ===
  0x20ed	dec    	eax
  0x20ee	imul   	eax, eax, 2
  0x20f1	dec    	eax
  0x20f2	lea    	ecx, [0x2f88]
  0x20f8	dec    	eax
  === BLOCK LINK ===
    0x20f9
=== CODE BLOCK END ===

=== CODE BLOCK ADDRESS 0x20f9 ===
  0x20f9	mov    	edx, dword ptr [0x2f11]
  0x20ff	dec    	eax
  0x2100	mov    	dword ptr [ecx + eax], edx
  0x2103	mov    	eax, 8
  0x2108	dec    	eax
  === BLOCK LINK ===
    0x2109
=== CODE BLOCK END ===

=== CODE BLOCK ADDRESS 0x2109 ===
  0x2109	imul   	eax, eax, 0
  0x210c	dec    	eax
  0x210d	mov    	ecx, dword ptr [0x2ef5]
  0x2113	dec    	eax
  0x2114	mov    	dword ptr [esp + eax + 0x68], ecx
  === BLOCK LINK ===
    0x2118
=== CODE BLOCK END ===

=== CODE BLOCK ADDRESS 0x2118 ===
  0x2118	mov    	eax, 8
  0x211d	dec    	eax
  0x211e	imul   	eax, eax, 1
  0x2121	dec    	eax
  0x2122	mov    	ecx, dword ptr [0x2ee8]
  === BLOCK LINK ===
    0x2128
=== CODE BLOCK END ===

=== CODE BLOCK ADDRESS 0x2128 ===
  0x2128	dec    	eax
  0x2129	mov    	dword ptr [esp + eax + 0x68], ecx
  0x212d	dec    	eax
  0x212e	lea    	ecx, [0xecc]
  0x2134	call   	0x1f8c
  === BLOCK LINK ===
    0x2139
=== CODE BLOCK END ===

=== CODE BLOCK ADDRESS 0x2139 ===
  0x2139	dec    	eax
  0x213a	add    	esp, 0x88
  0x2140	ret    	
  0x2141	int3   	
  0x2142	int3   	
  === BLOCK LINK ===
    0x2143
=== CODE BLOCK END ===

=== CODE BLOCK ADDRESS 0x1212 ===
  0x1212	mov    	dword ptr [esi], ebx
  0x1214	xor    	eax, eax
  === BLOCK LINK ===
    0x1216
=== CODE BLOCK END ===

=== CODE BLOCK ADDRESS 0x2143 ===
  0x2143	int3   	
  0x2144	int3   	
  0x2145	int3   	
  0x2146	int3   	
  0x2147	int3   	
  === BLOCK LINK ===
    0x2148
=== CODE BLOCK END ===

=== CODE BLOCK ADDRESS 0x2148 ===
  0x2148	int3   	
  0x2149	int3   	
  0x214a	int3   	
  0x214b	int3   	
  0x214c	int3   	
  === BLOCK LINK ===
    0x214d
=== CODE BLOCK END ===

=== CODE BLOCK ADDRESS 0x214d ===
  0x214d	int3   	
  0x214e	int3   	
  0x214f	int3   	
  0x2150	int3   	
  0x2151	int3   	
  === BLOCK LINK ===
    0x2152
=== CODE BLOCK END ===

=== CODE BLOCK ADDRESS 0x2152 ===
  0x2152	int3   	
  0x2153	int3   	
  0x2154	int3   	
  0x2155	int3   	
  0x2156	int3   	
  === BLOCK LINK ===
    0x2157
=== CODE BLOCK END ===

=== CODE BLOCK ADDRESS 0x2157 ===
  0x2157	int3   	
  0x2158	inc    	eax
  0x2159	push   	ebx
  0x215a	dec    	eax
  0x215b	sub    	esp, 0x20
  === BLOCK LINK ===
    0x215e
=== CODE BLOCK END ===

=== CODE BLOCK ADDRESS 0x215e ===
  0x215e	mov    	ebx, ecx
  0x2160	call   	0x217c
  === BLOCK LINK ===
    0x2165
=== CODE BLOCK END ===

=== CODE BLOCK ADDRESS 0x2165 ===
  0x2165	dec    	eax
  0x2166	lea    	edx, [ebx + ebx*2]
  0x2169	dec    	eax
  0x216a	shl    	edx, 4
  0x216d	dec    	eax
  === BLOCK LINK ===
    0x216e
=== CODE BLOCK END ===

=== CODE BLOCK ADDRESS 0x216e ===
  0x216e	add    	eax, edx
  0x2170	dec    	eax
  0x2171	add    	esp, 0x20
  0x2174	pop    	ebx
  0x2175	ret    	
  === BLOCK LINK ===
    0x2176
=== CODE BLOCK END ===

=== CODE BLOCK ADDRESS 0x2176 ===
  0x2176	int3   	
  0x2177	int3   	
  0x2178	int3   	
  0x2179	int3   	
  0x217a	int3   	
  === BLOCK LINK ===
    0x217b
=== CODE BLOCK END ===

=== CODE BLOCK ADDRESS 0x217b ===
  0x217b	int3   	
  0x217c	jmp    	dword ptr [0x110e]
  === BLOCK LINK ===
    0x2182
=== CODE BLOCK END ===

=== CODE BLOCK ADDRESS 0x2182 ===
  0x2182	int3   	
  0x2183	int3   	
  0x2184	int3   	
  0x2185	int3   	
  0x2186	int3   	
  === BLOCK LINK ===
    0x2187
=== CODE BLOCK END ===

=== CODE BLOCK ADDRESS 0x2187 ===
  0x2187	int3   	
  0x2188	dec    	eax
  0x2189	sub    	esp, 0x28
  0x218c	dec    	ebp
  0x218d	mov    	eax, dword ptr [ecx + 0x38]
  === BLOCK LINK ===
    0x2190
=== CODE BLOCK END ===

=== CODE BLOCK ADDRESS 0x2190 ===
  0x2190	dec    	eax
  0x2191	mov    	ecx, edx
  0x2193	dec    	ecx
  0x2194	mov    	edx, ecx
  0x2196	call   	0x21ac
  === BLOCK LINK ===
    0x219b
=== CODE BLOCK END ===

=== CODE BLOCK ADDRESS 0x219b ===
  0x219b	mov    	eax, 1
  0x21a0	dec    	eax
  0x21a1	add    	esp, 0x28
  0x21a4	ret    	
  0x21a5	int3   	
  === BLOCK LINK ===
    0x21a6
=== CODE BLOCK END ===

=== CODE BLOCK ADDRESS 0x21a6 ===
  0x21a6	int3   	
  0x21a7	int3   	
  0x21a8	int3   	
  0x21a9	int3   	
  0x21aa	int3   	
  === BLOCK LINK ===
    0x21ab
=== CODE BLOCK END ===

=== CODE BLOCK ADDRESS 0x21ab ===
  0x21ab	int3   	
  0x21ac	inc    	eax
  0x21ad	push   	ebx
  0x21ae	inc    	ebp
  0x21af	mov    	ebx, dword ptr [eax]
  === BLOCK LINK ===
    0x21b1
=== CODE BLOCK END ===

=== CODE BLOCK ADDRESS 0x21b1 ===
  0x21b1	dec    	eax
  0x21b2	mov    	ebx, edx
  0x21b4	inc    	ecx
  0x21b5	and    	ebx, 0xfffffff8
  0x21b8	dec    	esp
  === BLOCK LINK ===
    0x21b9
=== CODE BLOCK END ===

=== CODE BLOCK ADDRESS 0x21b9 ===
  0x21b9	mov    	ecx, ecx
  0x21bb	inc    	ecx
  0x21bc	test   	byte ptr [eax], 4
  0x21bf	dec    	esp
  0x21c0	mov    	edx, ecx
  === BLOCK LINK ===
    0x21c2
=== CODE BLOCK END ===

=== CODE BLOCK ADDRESS 0x21c2 ===
  0x21c2	je     	0x21d7
  === BLOCK LINK ===
    0x21c4
=== CODE BLOCK END ===

=== CODE BLOCK ADDRESS 0x21c4 ===
  0x21c4	inc    	ecx
  0x21c5	mov    	eax, dword ptr [eax + 8]
  0x21c8	dec    	ebp
  0x21c9	arpl   	word ptr [eax + 4], dx
  0x21cc	neg    	eax
  === BLOCK LINK ===
    0x21ce
=== CODE BLOCK END ===

=== CODE BLOCK ADDRESS 0x21ce ===
  0x21ce	dec    	esp
  0x21cf	add    	edx, ecx
  0x21d1	dec    	eax
  0x21d2	arpl   	ax, cx
  0x21d4	dec    	esp
  === BLOCK LINK ===
    0x21d5
=== CODE BLOCK END ===

=== CODE BLOCK ADDRESS 0x21d5 ===
  0x21d5	and    	edx, ecx
  0x21d7	dec    	ecx
  0x21d8	arpl   	bx, ax
  0x21da	dec    	edx
  0x21db	mov    	edx, dword ptr [eax + edx]
  === BLOCK LINK ===
    0x21de
=== CODE BLOCK END ===

=== CODE BLOCK ADDRESS 0x21de ===
  0x21de	dec    	eax
  0x21df	mov    	eax, dword ptr [ebx + 0x10]
  0x21e2	mov    	ecx, dword ptr [eax + 8]
  0x21e5	dec    	eax
  0x21e6	mov    	eax, dword ptr [ebx + 8]
  === BLOCK LINK ===
    0x21e9
=== CODE BLOCK END ===

=== CODE BLOCK ADDRESS 0x21e9 ===
  0x21e9	test   	byte ptr [ecx + eax + 3], 0xf
  0x21ee	je     	0x21fb
  === BLOCK LINK ===
    0x21f0
=== CODE BLOCK END ===

=== CODE BLOCK ADDRESS 0x21f0 ===
  0x21f0	movzx  	eax, byte ptr [ecx + eax + 3]
  0x21f5	and    	eax, 0xfffffff0
  0x21f8	dec    	esp
  0x21f9	add    	ecx, eax
  0x21fb	dec    	esp
  === BLOCK LINK ===
    0x21fc
=== CODE BLOCK END ===

=== CODE BLOCK ADDRESS 0x21fc ===
  0x21fc	xor    	ecx, edx
  0x21fe	dec    	ecx
  0x21ff	mov    	ecx, ecx
  0x2201	pop    	ebx
  0x2202	jmp    	0x1c40
  === BLOCK LINK ===
    0x2207
=== CODE BLOCK END ===

=== CODE BLOCK ADDRESS 0x2207 ===
  0x2207	int3   	
  0x2208	int3   	
  0x2209	int3   	
  0x220a	int3   	
  0x220b	int3   	
  === BLOCK LINK ===
    0x220c
=== CODE BLOCK END ===

=== CODE BLOCK ADDRESS 0x220c ===
  0x220c	int3   	
  0x220d	int3   	
  0x220e	int3   	
  0x220f	int3   	
  0x2210	int3   	
  === BLOCK LINK ===
    0x2211
=== CODE BLOCK END ===

=== CODE BLOCK ADDRESS 0x2211 ===
  0x2211	int3   	
  0x2212	int3   	
  0x2213	int3   	
  0x2214	int3   	
  0x2215	int3   	
  === BLOCK LINK ===
    0x2216
=== CODE BLOCK END ===

=== CODE BLOCK ADDRESS 0x2216 ===
  0x2216	nop    	word ptr [eax + eax]
  0x2220	jmp    	eax
  === BLOCK LINK ===
    0x2222
=== CODE BLOCK END ===

=== CODE BLOCK ADDRESS 0x2222 ===
  0x2222	int3   	
  0x2223	int3   	
  0x2224	int3   	
  0x2225	int3   	
  0x2226	int3   	
  === BLOCK LINK ===
    0x2227
=== CODE BLOCK END ===

=== CODE BLOCK ADDRESS 0x2227 ===
  0x2227	int3   	
  0x2228	int3   	
  0x2229	int3   	
  0x222a	int3   	
  0x222b	int3   	
  === BLOCK LINK ===
    0x222c
=== CODE BLOCK END ===

=== CODE BLOCK ADDRESS 0x222c ===
  0x222c	int3   	
  0x222d	int3   	
  0x222e	int3   	
  0x222f	int3   	
  0x2230	inc    	eax
  === BLOCK LINK ===
    0x2231
=== CODE BLOCK END ===

=== CODE BLOCK ADDRESS 0x2231 ===
  0x2231	push   	ebp
  0x2232	dec    	eax
  0x2233	sub    	esp, 0x20
  0x2236	dec    	eax
  0x2237	mov    	ebp, edx
  === BLOCK LINK ===
    0x2239
=== CODE BLOCK END ===

=== CODE BLOCK ADDRESS 0x2239 ===
  0x2239	dec    	eax
  0x223a	mov    	eax, dword ptr [ecx]
  0x223c	dec    	eax
  0x223d	mov    	edx, ecx
  0x223f	mov    	ecx, dword ptr [eax]
  === BLOCK LINK ===
    0x2241
=== CODE BLOCK END ===

=== CODE BLOCK ADDRESS 0x2241 ===
  0x2241	call   	0x1cce
  === BLOCK LINK ===
    0x2246
=== CODE BLOCK END ===

=== CODE BLOCK ADDRESS 0x2246 ===
  0x2246	nop    	
  0x2247	dec    	eax
  0x2248	add    	esp, 0x20
  0x224b	pop    	ebp
  0x224c	ret    	
  === BLOCK LINK ===
    0x224d
=== CODE BLOCK END ===

=== CODE BLOCK ADDRESS 0x12c3 ===
  0x12c3	xor    	eax, eax
  0x12c5	dec    	eax
  0x12c6	mov    	ebx, dword ptr [esp + 0x40]
  0x12ca	dec    	eax
  === BLOCK LINK ===
    0x12cb
=== CODE BLOCK END ===

=== CODE BLOCK ADDRESS 0x224d ===
  0x224d	int3   	
  0x224e	int3   	
  0x224f	int3   	
  0x2250	int3   	
  0x2251	int3   	
  === BLOCK LINK ===
    0x2252
=== CODE BLOCK END ===

=== CODE BLOCK ADDRESS 0x2252 ===
  0x2252	int3   	
  0x2253	int3   	
  0x2254	int3   	
  0x2255	int3   	
  0x2256	int3   	
  === BLOCK LINK ===
    0x2257
=== CODE BLOCK END ===

=== CODE BLOCK ADDRESS 0x2257 ===
  0x2257	int3   	
  0x2258	int3   	
  0x2259	int3   	
  0x225a	int3   	
  0x225b	int3   	
  === BLOCK LINK ===
    0x225c
=== CODE BLOCK END ===

=== CODE BLOCK ADDRESS 0x225c ===
  0x225c	int3   	
  0x225d	int3   	
  0x225e	int3   	
  0x225f	int3   	
  0x2260	inc    	eax
  === BLOCK LINK ===
    0x2261
=== CODE BLOCK END ===

=== CODE BLOCK ADDRESS 0x2261 ===
  0x2261	push   	ebp
  0x2262	dec    	eax
  0x2263	sub    	esp, 0x20
  0x2266	dec    	eax
  0x2267	mov    	ebp, edx
  === BLOCK LINK ===
    0x2269
=== CODE BLOCK END ===

=== CODE BLOCK ADDRESS 0x2269 ===
  0x2269	dec    	eax
  0x226a	mov    	eax, dword ptr [ecx]
  0x226c	xor    	ecx, ecx
  0x226e	cmp    	dword ptr [eax], 0xc0000005
  0x2274	sete   	cl
  === BLOCK LINK ===
    0x2277
=== CODE BLOCK END ===

=== CODE BLOCK ADDRESS 0x2277 ===
  0x2277	mov    	eax, ecx
  0x2279	dec    	eax
  0x227a	add    	esp, 0x20
  0x227d	pop    	ebp
  0x227e	ret    	
  === BLOCK LINK ===
    0x227f
=== CODE BLOCK END ===

=== CODE BLOCK ADDRESS 0x227f ===
  0x227f	int3   	
  0x2280	add    	byte ptr [eax], al
  0x2282	add    	byte ptr [eax], al
  0x2284	add    	byte ptr [eax], al
  0x2286	add    	byte ptr [eax], al
  === BLOCK LINK ===
    0x2288
=== CODE BLOCK END ===

=== CODE BLOCK ADDRESS 0x2288 ===
  0x2288	add    	byte ptr [eax], al
  0x228a	add    	byte ptr [eax], al
  0x228c	add    	byte ptr [eax], al
  0x228e	add    	byte ptr [eax], al
  0x2290	add    	byte ptr [eax], al
  === BLOCK LINK ===
    0x2292
=== CODE BLOCK END ===

=== CODE BLOCK ADDRESS 0x2292 ===
  0x2292	add    	byte ptr [eax], al
  0x2294	add    	byte ptr [eax], al
  0x2296	add    	byte ptr [eax], al
  0x2298	add    	byte ptr [eax], al
  0x229a	add    	byte ptr [eax], al
  === BLOCK LINK ===
    0x229c
=== CODE BLOCK END ===

=== CODE BLOCK ADDRESS 0x229c ===
  0x229c	add    	byte ptr [eax], al
  0x229e	add    	byte ptr [eax], al
  0x22a0	add    	byte ptr [eax], al
  0x22a2	add    	byte ptr [eax], al
  0x22a4	add    	byte ptr [eax], al
  === BLOCK LINK ===
    0x22a6
=== CODE BLOCK END ===

=== CODE BLOCK ADDRESS 0x22a6 ===
  0x22a6	add    	byte ptr [eax], al
  0x22a8	add    	byte ptr [eax], al
  0x22aa	add    	byte ptr [eax], al
  0x22ac	add    	byte ptr [eax], al
  0x22ae	add    	byte ptr [eax], al
  === BLOCK LINK ===
    0x22b0
=== CODE BLOCK END ===

=== CODE BLOCK ADDRESS 0x22b0 ===
  0x22b0	add    	byte ptr [eax], al
  0x22b2	add    	byte ptr [eax], al
  0x22b4	add    	byte ptr [eax], al
  0x22b6	add    	byte ptr [eax], al
  0x22b8	add    	byte ptr [eax], al
  === BLOCK LINK ===
    0x22ba
=== CODE BLOCK END ===

=== CODE BLOCK ADDRESS 0x22ba ===
  0x22ba	add    	byte ptr [eax], al
  0x22bc	add    	byte ptr [eax], al
  0x22be	add    	byte ptr [eax], al
  0x22c0	add    	byte ptr [eax], al
  0x22c2	add    	byte ptr [eax], al
  === BLOCK LINK ===
    0x22c4
=== CODE BLOCK END ===

=== CODE BLOCK ADDRESS 0x22c4 ===
  0x22c4	add    	byte ptr [eax], al
  0x22c6	add    	byte ptr [eax], al
  0x22c8	add    	byte ptr [eax], al
  0x22ca	add    	byte ptr [eax], al
  0x22cc	add    	byte ptr [eax], al
  === BLOCK LINK ===
    0x22ce
=== CODE BLOCK END ===

=== CODE BLOCK ADDRESS 0x22ce ===
  0x22ce	add    	byte ptr [eax], al
  0x22d0	add    	byte ptr [eax], al
  0x22d2	add    	byte ptr [eax], al
  0x22d4	add    	byte ptr [eax], al
  0x22d6	add    	byte ptr [eax], al
  === BLOCK LINK ===
    0x22d8
=== CODE BLOCK END ===

=== CODE BLOCK ADDRESS 0x22d8 ===
  0x22d8	add    	byte ptr [eax], al
  0x22da	add    	byte ptr [eax], al
  0x22dc	add    	byte ptr [eax], al
  0x22de	add    	byte ptr [eax], al
  0x22e0	add    	byte ptr [eax], al
  === BLOCK LINK ===
    0x22e2
=== CODE BLOCK END ===

=== CODE BLOCK ADDRESS 0x22e2 ===
  0x22e2	add    	byte ptr [eax], al
  0x22e4	add    	byte ptr [eax], al
  0x22e6	add    	byte ptr [eax], al
  0x22e8	add    	byte ptr [eax], al
  0x22ea	add    	byte ptr [eax], al
  === BLOCK LINK ===
    0x22ec
=== CODE BLOCK END ===

=== CODE BLOCK ADDRESS 0x22ec ===
  0x22ec	add    	byte ptr [eax], al
  0x22ee	add    	byte ptr [eax], al
  0x22f0	add    	byte ptr [eax], al
  0x22f2	add    	byte ptr [eax], al
  0x22f4	add    	byte ptr [eax], al
  === BLOCK LINK ===
    0x22f6
=== CODE BLOCK END ===

=== CODE BLOCK ADDRESS 0x22f6 ===
  0x22f6	add    	byte ptr [eax], al
  0x22f8	add    	byte ptr [eax], al
  0x22fa	add    	byte ptr [eax], al
  0x22fc	add    	byte ptr [eax], al
  0x22fe	add    	byte ptr [eax], al
  === BLOCK LINK ===
    0x2300
=== CODE BLOCK END ===

=== CODE BLOCK ADDRESS 0x2300 ===
  0x2300	add    	byte ptr [eax], al
  0x2302	add    	byte ptr [eax], al
  0x2304	add    	byte ptr [eax], al
  0x2306	add    	byte ptr [eax], al
  0x2308	add    	byte ptr [eax], al
  === BLOCK LINK ===
    0x230a
=== CODE BLOCK END ===

=== CODE BLOCK ADDRESS 0x230a ===
  0x230a	add    	byte ptr [eax], al
  0x230c	add    	byte ptr [eax], al
  0x230e	add    	byte ptr [eax], al
  0x2310	add    	byte ptr [eax], al
  0x2312	add    	byte ptr [eax], al
  === BLOCK LINK ===
    0x2314
=== CODE BLOCK END ===

=== CODE BLOCK ADDRESS 0x2314 ===
  0x2314	add    	byte ptr [eax], al
  0x2316	add    	byte ptr [eax], al
  0x2318	add    	byte ptr [eax], al
  0x231a	add    	byte ptr [eax], al
  0x231c	add    	byte ptr [eax], al
  === BLOCK LINK ===
    0x231e
=== CODE BLOCK END ===

=== CODE BLOCK ADDRESS 0x231e ===
  0x231e	add    	byte ptr [eax], al
  0x2320	add    	byte ptr [eax], al
  0x2322	add    	byte ptr [eax], al
  0x2324	add    	byte ptr [eax], al
  0x2326	add    	byte ptr [eax], al
  === BLOCK LINK ===
    0x2328
=== CODE BLOCK END ===

=== CODE BLOCK ADDRESS 0x2328 ===
  0x2328	add    	byte ptr [eax], al
  0x232a	add    	byte ptr [eax], al
  0x232c	add    	byte ptr [eax], al
  0x232e	add    	byte ptr [eax], al
  0x2330	add    	byte ptr [eax], al
  === BLOCK LINK ===
    0x2332
=== CODE BLOCK END ===

=== CODE BLOCK ADDRESS 0x2332 ===
  0x2332	add    	byte ptr [eax], al
  0x2334	add    	byte ptr [eax], al
  0x2336	add    	byte ptr [eax], al
  0x2338	add    	byte ptr [eax], al
  0x233a	add    	byte ptr [eax], al
  === BLOCK LINK ===
    0x233c
=== CODE BLOCK END ===

=== CODE BLOCK ADDRESS 0x233c ===
  0x233c	add    	byte ptr [eax], al
  0x233e	add    	byte ptr [eax], al
  0x2340	add    	byte ptr [eax], al
  0x2342	add    	byte ptr [eax], al
  0x2344	add    	byte ptr [eax], al
  === BLOCK LINK ===
    0x2346
=== CODE BLOCK END ===

=== CODE BLOCK ADDRESS 0x2346 ===
  0x2346	add    	byte ptr [eax], al
  0x2348	add    	byte ptr [eax], al
  0x234a	add    	byte ptr [eax], al
  0x234c	add    	byte ptr [eax], al
  0x234e	add    	byte ptr [eax], al
  === BLOCK LINK ===
    0x2350
=== CODE BLOCK END ===

=== CODE BLOCK ADDRESS 0x2350 ===
  0x2350	add    	byte ptr [eax], al
  0x2352	add    	byte ptr [eax], al
  0x2354	add    	byte ptr [eax], al
  0x2356	add    	byte ptr [eax], al
  0x2358	add    	byte ptr [eax], al
  === BLOCK LINK ===
    0x235a
=== CODE BLOCK END ===

=== CODE BLOCK ADDRESS 0x235a ===
  0x235a	add    	byte ptr [eax], al
  0x235c	add    	byte ptr [eax], al
  0x235e	add    	byte ptr [eax], al
  0x2360	add    	byte ptr [eax], al
  0x2362	add    	byte ptr [eax], al
  === BLOCK LINK ===
    0x2364
=== CODE BLOCK END ===

=== CODE BLOCK ADDRESS 0x2364 ===
  0x2364	add    	byte ptr [eax], al
  0x2366	add    	byte ptr [eax], al
  0x2368	add    	byte ptr [eax], al
  0x236a	add    	byte ptr [eax], al
  0x236c	add    	byte ptr [eax], al
  === BLOCK LINK ===
    0x236e
=== CODE BLOCK END ===

=== CODE BLOCK ADDRESS 0x236e ===
  0x236e	add    	byte ptr [eax], al
  0x2370	add    	byte ptr [eax], al
  0x2372	add    	byte ptr [eax], al
  0x2374	add    	byte ptr [eax], al
  0x2376	add    	byte ptr [eax], al
  === BLOCK LINK ===
    0x2378
=== CODE BLOCK END ===

=== CODE BLOCK ADDRESS 0x2378 ===
  0x2378	add    	byte ptr [eax], al
  0x237a	add    	byte ptr [eax], al
  0x237c	add    	byte ptr [eax], al
  0x237e	add    	byte ptr [eax], al
  0x2380	add    	byte ptr [eax], al
  === BLOCK LINK ===
    0x2382
=== CODE BLOCK END ===

=== CODE BLOCK ADDRESS 0x2382 ===
  0x2382	add    	byte ptr [eax], al
  0x2384	add    	byte ptr [eax], al
  0x2386	add    	byte ptr [eax], al
  0x2388	add    	byte ptr [eax], al
  0x238a	add    	byte ptr [eax], al
  === BLOCK LINK ===
    0x238c
=== CODE BLOCK END ===

=== CODE BLOCK ADDRESS 0x238c ===
  0x238c	add    	byte ptr [eax], al
  0x238e	add    	byte ptr [eax], al
  0x2390	add    	byte ptr [eax], al
  0x2392	add    	byte ptr [eax], al
  0x2394	add    	byte ptr [eax], al
  === BLOCK LINK ===
    0x2396
=== CODE BLOCK END ===

=== CODE BLOCK ADDRESS 0x2396 ===
  0x2396	add    	byte ptr [eax], al
  0x2398	add    	byte ptr [eax], al
  0x239a	add    	byte ptr [eax], al
  0x239c	add    	byte ptr [eax], al
  0x239e	add    	byte ptr [eax], al
  === BLOCK LINK ===
    0x23a0
=== CODE BLOCK END ===

=== CODE BLOCK ADDRESS 0x23a0 ===
  0x23a0	add    	byte ptr [eax], al
  0x23a2	add    	byte ptr [eax], al
  0x23a4	add    	byte ptr [eax], al
  0x23a6	add    	byte ptr [eax], al
  0x23a8	add    	byte ptr [eax], al
  === BLOCK LINK ===
    0x23aa
=== CODE BLOCK END ===

=== CODE BLOCK ADDRESS 0x23aa ===
  0x23aa	add    	byte ptr [eax], al
  0x23ac	add    	byte ptr [eax], al
  0x23ae	add    	byte ptr [eax], al
  0x23b0	add    	byte ptr [eax], al
  0x23b2	add    	byte ptr [eax], al
  === BLOCK LINK ===
    0x23b4
=== CODE BLOCK END ===

=== CODE BLOCK ADDRESS 0x23b4 ===
  0x23b4	add    	byte ptr [eax], al
  0x23b6	add    	byte ptr [eax], al
  0x23b8	add    	byte ptr [eax], al
  0x23ba	add    	byte ptr [eax], al
  0x23bc	add    	byte ptr [eax], al
  === BLOCK LINK ===
    0x23be
=== CODE BLOCK END ===

=== CODE BLOCK ADDRESS 0x23be ===
  0x23be	add    	byte ptr [eax], al
  0x23c0	add    	byte ptr [eax], al
  0x23c2	add    	byte ptr [eax], al
  0x23c4	add    	byte ptr [eax], al
  0x23c6	add    	byte ptr [eax], al
  === BLOCK LINK ===
    0x23c8
=== CODE BLOCK END ===

=== CODE BLOCK ADDRESS 0x23c8 ===
  0x23c8	add    	byte ptr [eax], al
  0x23ca	add    	byte ptr [eax], al
  0x23cc	add    	byte ptr [eax], al
  0x23ce	add    	byte ptr [eax], al
  0x23d0	add    	byte ptr [eax], al
  === BLOCK LINK ===
    0x23d2
=== CODE BLOCK END ===

=== CODE BLOCK ADDRESS 0x23d2 ===
  0x23d2	add    	byte ptr [eax], al
  0x23d4	add    	byte ptr [eax], al
  0x23d6	add    	byte ptr [eax], al
  0x23d8	add    	byte ptr [eax], al
  0x23da	add    	byte ptr [eax], al
  === BLOCK LINK ===
    0x23dc
=== CODE BLOCK END ===

=== CODE BLOCK ADDRESS 0x23dc ===
  0x23dc	add    	byte ptr [eax], al
  0x23de	add    	byte ptr [eax], al
  0x23e0	add    	byte ptr [eax], al
  0x23e2	add    	byte ptr [eax], al
  0x23e4	add    	byte ptr [eax], al
  === BLOCK LINK ===
    0x23e6
=== CODE BLOCK END ===

=== CODE BLOCK ADDRESS 0x23e6 ===
  0x23e6	add    	byte ptr [eax], al
  0x23e8	add    	byte ptr [eax], al
  0x23ea	add    	byte ptr [eax], al
  0x23ec	add    	byte ptr [eax], al
  0x23ee	add    	byte ptr [eax], al
  === BLOCK LINK ===
    0x23f0
=== CODE BLOCK END ===

=== CODE BLOCK ADDRESS 0x23f0 ===
  0x23f0	add    	byte ptr [eax], al
  0x23f2	add    	byte ptr [eax], al
  0x23f4	add    	byte ptr [eax], al
  0x23f6	add    	byte ptr [eax], al
  0x23f8	add    	byte ptr [eax], al
  === BLOCK LINK ===
    0x23fa
=== CODE BLOCK END ===

=== CODE BLOCK ADDRESS 0x23fa ===
  0x23fa	add    	byte ptr [eax], al
  0x23fc	add    	byte ptr [eax], al
=== CODE BLOCK END ===

=== DATA BLOCK ADDRESS 0x3000 ===
  0x3000	60 50 00 40 01 00 00 00 00 51 00 40 01 00 00 00 	`P0@00000Q0@0000
  0x3010	18 01 00 00 00 00 00 00 00 00 00 00 00 00 00 00 	0000000000000000
  0x3020	00 00 00 00 00 00 00 00 00 00 00 00 00 00 00 00 	0000000000000000
  0x3030	00 00 00 00 00 00 00 00 00 00 00 00 00 00 00 00 	0000000000000000
  0x3040	00 00 00 00 00 00 00 00 00 00 00 00 00 00 00 00 	0000000000000000
  0x3050	00 00 00 00 00 00 00 00 00 00 00 00 00 00 00 00 	0000000000000000
  0x3060	00 00 00 00 00 00 00 00 08 50 00 40 01 00 00 00 	000000000P0@0000
  0x3070	00 00 00 00 00 00 00 00 00 00 00 00 00 00 00 00 	0000000000000000
  0x3080	50 33 00 40 01 00 00 00 58 33 00 40 01 00 00 00 	P30@0000X30@0000
  0x3090	98 33 00 40 01 00 00 00 08 00 00 00 00 00 00 00 	030@000000000000
  0x30a0	00 75 01 00 00 00 00 00 00 00 00 00 00 00 00 00 	0u00000000000000
  0x30b0	00 00 00 00 00 00 00 00 00 00 00 00 00 00 00 00 	0000000000000000
  0x30c0	00 00 00 00 00 00 00 00 00 00 00 00 00 00 00 00 	0000000000000000
  0x30d0	00 00 00 00 00 00 00 00 00 00 00 00 00 00 00 00 	0000000000000000
  0x30e0	00 00 00 00 00 00 00 00 00 00 00 00 00 00 00 00 	0000000000000000
  0x30f0	00 00 00 00 00 00 00 00 00 00 00 00 00 00 00 00 	0000000000000000
  0x3100	00 00 00 00 00 00 00 00 00 00 00 00 00 00 00 00 	0000000000000000
  0x3110	00 00 00 00 00 00 00 00 00 00 00 00 00 00 00 00 	0000000000000000
  0x3120	00 00 00 00 00 00 00 00 44 40 00 00 00 00 00 00 	00000000D@000000
  0x3130	00 00 00 00 00 00 00 00 73 00 00 00 00 00 00 80 	00000000s0000000
  0x3140	ae 3c 00 00 00 00 00 00 00 00 00 00 00 00 00 00 	0<00000000000000
  0x3150	20 40 00 00 00 00 00 00 00 00 00 00 00 00 00 00 	 @00000000000000
  0x3160	9e 3c 00 00 00 00 00 00 c0 3d 00 00 00 00 00 00 	0<0000000=000000
  0x3170	dc 3c 00 00 00 00 00 00 00 00 00 00 00 00 00 00 	0<00000000000000
  0x3180	80 40 00 00 00 00 00 00 00 00 00 00 00 00 00 00 	0@00000000000000
  0x3190	be 3c 00 00 00 00 00 00 00 00 00 00 00 00 00 00 	0<00000000000000
  0x31a0	5e 40 00 00 00 00 00 00 12 40 00 00 00 00 00 00 	^@0000000@000000
  0x31b0	00 00 00 00 00 00 00 00 fa 3c 00 00 00 00 00 00 	000000000<000000
  0x31c0	00 00 00 00 00 00 00 00 32 40 00 00 00 00 00 00 	000000002@000000
  0x31d0	88 3c 00 00 00 00 00 00 00 00 00 00 00 00 00 00 	0<00000000000000
  0x31e0	f8 3f 00 00 00 00 00 00 00 00 00 00 00 00 00 00 	0?00000000000000
  0x31f0	dc 3d 00 00 00 00 00 00 28 3d 00 00 00 00 00 00 	0=000000(=000000
  0x3200	3e 3d 00 00 00 00 00 00 f0 3d 00 00 00 00 00 00 	>=0000000=000000
  0x3210	00 00 00 00 00 00 00 00 0e 3d 00 00 00 00 00 00 	000000000=000000
  0x3220	00 00 00 00 00 00 00 00 ac 3d 00 00 00 00 00 00 	000000000=000000
  0x3230	92 3d 00 00 00 00 00 00 7e 3d 00 00 00 00 00 00 	0=000000~=000000
  0x3240	00 00 00 00 00 00 00 00 6a 40 00 00 00 00 00 00 	00000000j@000000
  0x3250	00 00 00 00 00 00 00 00 d4 3c 00 00 00 00 00 00 	000000000<000000
  0x3260	00 00 00 00 00 00 00 00 6e 3d 00 00 00 00 00 00 	00000000n=000000
  0x3270	54 3d 00 00 00 00 00 00 00 00 00 00 00 00 00 00 	T=00000000000000
  0x3280	5c 3c 00 00 00 00 00 00 74 3c 00 00 00 00 00 00 	0<000000t<000000
  0x3290	66 3f 00 00 00 00 00 00 74 3f 00 00 00 00 00 00 	f?000000t?000000
  0x32a0	86 3f 00 00 00 00 00 00 92 3f 00 00 00 00 00 00 	0?0000000?000000
  0x32b0	aa 3f 00 00 00 00 00 00 b6 3f 00 00 00 00 00 00 	0?0000000?000000
  0x32c0	c0 3f 00 00 00 00 00 00 ca 3f 00 00 00 00 00 00 	0?0000000?000000
  0x32d0	d8 3f 00 00 00 00 00 00 e2 3f 00 00 00 00 00 00 	0?0000000?000000
  0x32e0	ec 3f 00 00 00 00 00 00 52 3c 00 00 00 00 00 00 	0?000000R<000000
  0x32f0	3a 3c 00 00 00 00 00 00 2e 3c 00 00 00 00 00 00 	:<000000.<000000
  0x3300	1a 3c 00 00 00 00 00 00 10 3c 00 00 00 00 00 00 	0<0000000<000000
  0x3310	9c 3f 00 00 00 00 00 00 08 3c 00 00 00 00 00 00 	0?0000000<000000
  0x3320	f6 3b 00 00 00 00 00 00 e4 3b 00 00 00 00 00 00 	0;0000000;000000
  0x3330	d6 3b 00 00 00 00 00 00 c8 3b 00 00 00 00 00 00 	0;0000000;000000
  0x3340	c0 3b 00 00 00 00 00 00 00 00 00 00 00 00 00 00 	0;00000000000000
  0x3350	80 1f 00 40 01 00 00 00 20 22 00 40 01 00 00 00 	000@0000 "0@0000
  0x3360	00 00 00 00 00 00 00 00 f0 19 00 40 01 00 00 00 	00000000000@0000
  0x3370	00 00 00 00 00 00 00 00 00 00 00 00 00 00 00 00 	0000000000000000
  0x3380	10 19 00 40 01 00 00 00 b0 1c 00 40 01 00 00 00 	000@0000000@0000
  0x3390	00 00 00 00 00 00 00 00 10 19 00 00 f0 19 00 00 	0000000000000000
  0x33a0	10 1c 00 00 70 1c 00 00 b0 1c 00 00 90 1d 00 00 	0000p00000000000
  0x33b0	80 1f 00 00 d0 1f 00 00 00 00 00 00 00 00 00 00 	0000000000000000
  0x33c0	0a 00 00 00 00 00 00 00 4f 00 75 00 74 00 70 00 	00000000O0u0t0p0
  0x33d0	75 00 74 00 45 00 6e 00 63 00 6f 00 64 00 69 00 	u0t0E0n0c0o0d0i0
  0x33e0	6e 00 67 00 00 00 00 00 55 00 6e 00 69 00 63 00 	n0g00000U0n0i0c0
  0x33f0	6f 00 64 00 65 00 00 00 41 00 6e 00 73 00 69 00 	o0d0e000A0n0s0i0
  0x3400	00 00 00 00 00 00 00 00 55 00 54 00 46 00 38 00 	00000000U0T0F080
  0x3410	00 00 00 00 00 00 00 00 55 00 54 00 46 00 2d 00 	00000000U0T0F0-0
  0x3420	38 00 00 00 ff fe 00 00 ef bb bf 00 00 00 00 00 	8000000000000000
  0x3430	25 00 6c 00 73 00 00 00 3e 00 20 00 25 00 6c 00 	%0l0s000>0 0%0l0
  0x3440	73 00 3a 00 00 00 00 00 00 00 00 00 00 00 00 00 	s0:0000000000000
  0x3450	00 00 00 00 29 b9 c2 ef 00 00 00 00 02 00 00 00 	0000)00000000000
  0x3460	25 00 00 00 a4 34 00 00 a4 1c 00 00 00 00 00 00 	%000040000000000
  0x3470	29 b9 c2 ef 00 00 00 00 0d 00 00 00 f0 01 00 00 	)000000000000000
  0x3480	cc 34 00 00 cc 1c 00 00 00 00 00 00 29 b9 c2 ef 	040000000000)000
  0x3490	00 00 00 00 10 00 00 00 24 00 00 00 bc 36 00 00 	00000000$0000600
  0x34a0	bc 1e 00 00 52 53 44 53 fb 5b e4 e9 1e dc 1e 6d 	0000RSDS0[00000m
  0x34b0	6c cf 3c cb c4 3e 47 98 01 00 00 00 68 6f 73 74 	l0<00>G00000host
  0x34c0	6e 61 6d 65 2e 70 64 62 00 00 00 00 47 43 54 4c 	name.pdb0000GCTL
  0x34d0	00 10 00 00 10 12 00 00 2e 74 65 78 74 24 6d 6e 	00000000.text$mn
  0x34e0	00 00 00 00 10 22 00 00 20 00 00 00 2e 74 65 78 	00000"00 000.tex
  0x34f0	74 24 6d 6e 24 30 30 00 30 22 00 00 50 00 00 00 	t$mn$0000"00P000
  0x3500	2e 74 65 78 74 24 78 00 00 30 00 00 28 01 00 00 	.text$x00000(000
  0x3510	2e 72 64 61 74 61 24 62 72 63 00 00 28 31 00 00 	.rdata$brc00(100
  0x3520	28 02 00 00 2e 69 64 61 74 61 24 35 00 00 00 00 	(000.idata$50000
  0x3530	50 33 00 00 10 00 00 00 2e 30 30 63 66 67 00 00 	P3000000.00cfg00
  0x3540	60 33 00 00 08 00 00 00 2e 43 52 54 24 58 43 41 	`3000000.CRT$XCA
  0x3550	00 00 00 00 68 33 00 00 08 00 00 00 2e 43 52 54 	0000h3000000.CRT
  0x3560	24 58 43 41 41 00 00 00 70 33 00 00 08 00 00 00 	$XCAA000p3000000
  0x3570	2e 43 52 54 24 58 43 5a 00 00 00 00 78 33 00 00 	.CRT$XCZ0000x300
  0x3580	08 00 00 00 2e 43 52 54 24 58 49 41 00 00 00 00 	0000.CRT$XIA0000
  0x3590	80 33 00 00 08 00 00 00 2e 43 52 54 24 58 49 41 	03000000.CRT$XIA
  0x35a0	41 00 00 00 88 33 00 00 08 00 00 00 2e 43 52 54 	A00003000000.CRT
  0x35b0	24 58 49 59 00 00 00 00 90 33 00 00 08 00 00 00 	$XIY000003000000
  0x35c0	2e 43 52 54 24 58 49 5a 00 00 00 00 98 33 00 00 	.CRT$XIZ00000300
  0x35d0	28 00 00 00 2e 67 66 69 64 73 00 00 c0 33 00 00 	(000.gfids000300
  0x35e0	e4 00 00 00 2e 72 64 61 74 61 00 00 a4 34 00 00 	0000.rdata000400
  0x35f0	3c 02 00 00 2e 72 64 61 74 61 24 7a 7a 7a 64 62 	<000.rdata$zzzdb
  0x3600	67 00 00 00 e0 36 00 00 4c 01 00 00 2e 78 64 61 	g0000600L000.xda
  0x3610	74 61 00 00 2c 38 00 00 54 01 00 00 2e 69 64 61 	ta00,800T000.ida
  0x3620	74 61 24 32 00 00 00 00 80 39 00 00 18 00 00 00 	ta$2000009000000
  0x3630	2e 69 64 61 74 61 24 33 00 00 00 00 98 39 00 00 	.idata$300000900
  0x3640	28 02 00 00 2e 69 64 61 74 61 24 34 00 00 00 00 	(000.idata$40000
  0x3650	c0 3b 00 00 8e 05 00 00 2e 69 64 61 74 61 24 36 	0;000000.idata$6
  0x3660	00 00 00 00 00 50 00 00 20 00 00 00 2e 64 61 74 	00000P00 000.dat
  0x3670	61 00 00 00 20 50 00 00 f8 07 00 00 2e 62 73 73 	a000 P000000.bss
  0x3680	00 00 00 00 00 60 00 00 44 01 00 00 2e 70 64 61 	00000`00D000.pda
  0x3690	74 61 00 00 00 70 00 00 f0 00 00 00 2e 72 73 72 	ta000p000000.rsr
  0x36a0	63 24 30 31 00 00 00 00 f0 70 00 00 38 07 00 00 	c$0100000p008000
  0x36b0	2e 72 73 72 63 24 30 32 00 00 00 00 20 00 00 00 	.rsrc$020000 000
  0x36c0	fb 5b e4 e9 1e dc 1e 6d 6c cf 3c cb c4 3e 47 98 	0[00000ml0<00>G0
  0x36d0	0d 95 6d 19 57 cd 50 a5 ee 6e 4a 83 29 b9 c2 ef 	00m0W0P00nJ0)000
  0x36e0	19 24 07 00 12 64 4b 00 12 34 4a 00 12 01 48 00 	0$000dK004J000H0
  0x36f0	0b 70 00 00 88 21 00 00 30 02 00 00 01 14 08 00 	0p000!0000000000
  0x3700	14 64 09 00 14 54 07 00 14 34 06 00 14 32 10 70 	0d000T000400020p
  0x3710	01 0a 04 00 0a 34 08 00 0a 32 06 70 19 1b 03 00 	00000400020p0000
  0x3720	09 01 1c 00 02 30 00 00 88 21 00 00 d0 00 00 00 	000000000!000000
  0x3730	19 2b 0b 00 19 54 29 00 19 34 28 00 19 01 20 00 	0+000T)004(000 0
  0x3740	12 f0 10 e0 0e c0 0c 70 0b 60 00 00 88 21 00 00 	0000000p0`000!00
  0x3750	f0 00 00 00 01 19 06 00 19 32 15 e0 13 70 12 60 	0000000002000p0`
  0x3760	11 50 10 30 01 14 02 00 14 92 10 30 01 06 02 00 	0P00000000000000
  0x3770	06 72 02 30 01 04 01 00 04 42 00 00 01 04 01 00 	0r0000000B000000
  0x3780	04 62 00 00 09 15 08 00 15 74 0a 00 15 64 09 00 	0b0000000t000d00
  0x3790	15 34 08 00 15 52 11 f0 6a 1f 00 00 01 00 00 00 	04000R00j0000000
  0x37a0	55 1a 00 00 bb 1b 00 00 30 22 00 00 bb 1b 00 00 	U00000000"000000
  0x37b0	01 06 02 00 06 32 02 50 01 00 00 00 09 04 01 00 	0000020P00000000
  0x37c0	04 22 00 00 6a 1f 00 00 01 00 00 00 ec 1c 00 00 	0"00j00000000000
  0x37d0	22 1d 00 00 01 00 00 00 22 1d 00 00 01 06 02 00 	"0000000"0000000
  0x37e0	06 32 02 30 09 0a 04 00 0a 34 06 00 0a 32 06 70 	020000000400020p
  0x37f0	6a 1f 00 00 01 00 00 00 fd 1d 00 00 30 1e 00 00 	j000000000000000
  0x3800	60 22 00 00 30 1e 00 00 01 0d 04 00 0d 34 09 00 	`"00000000000400
  0x3810	0d 32 06 50 01 0c 02 00 0c 01 11 00 00 00 00 00 	020P000000000000
  0x3820	01 00 00 00 01 02 01 00 02 30 00 00 f0 3a 00 00 	0000000000000:00
  0x3830	00 00 00 00 00 00 00 00 68 3c 00 00 80 32 00 00 	00000000h<000200
  0x3840	38 3a 00 00 00 00 00 00 00 00 00 00 04 3e 00 00 	8:00000000000>00
  0x3850	c8 31 00 00 d0 39 00 00 00 00 00 00 00 00 00 00 	0100090000000000
  0x3860	2c 3e 00 00 60 31 00 00 a8 39 00 00 00 00 00 00 	,>00`10009000000
  0x3870	00 00 00 00 56 3e 00 00 38 31 00 00 00 3a 00 00 	0000V>0081000:00
  0x3880	00 00 00 00 00 00 00 00 62 3e 00 00 90 31 00 00 	00000000b>000100
  0x3890	c8 3a 00 00 00 00 00 00 00 00 00 00 82 3e 00 00 	0:00000000000>00
  0x38a0	58 32 00 00 28 3a 00 00 00 00 00 00 00 00 00 00 	X200(:0000000000
  0x38b0	a4 3e 00 00 b8 31 00 00 88 3a 00 00 00 00 00 00 	0>0001000:000000
  0x38c0	00 00 00 00 ce 3e 00 00 18 32 00 00 60 3a 00 00 	00000>000200`:00
  0x38d0	00 00 00 00 00 00 00 00 f2 3e 00 00 f0 31 00 00 	000000000>000100
  0x38e0	d8 3a 00 00 00 00 00 00 00 00 00 00 1c 3f 00 00 	0:00000000000?00
  0x38f0	68 32 00 00 98 3a 00 00 00 00 00 00 00 00 00 00 	h2000:0000000000
  0x3900	40 3f 00 00 28 32 00 00 50 3a 00 00 00 00 00 00 	@?00(200P:000000
  0x3910	00 00 00 00 8e 40 00 00 e0 31 00 00 10 3a 00 00 	00000@0001000:00
  0x3920	00 00 00 00 00 00 00 00 bc 40 00 00 a0 31 00 00 	000000000@000100
  0x3930	c0 39 00 00 00 00 00 00 00 00 00 00 dc 40 00 00 	0900000000000@00
  0x3940	50 31 00 00 98 39 00 00 00 00 00 00 00 00 00 00 	P100090000000000
  0x3950	00 41 00 00 28 31 00 00 b8 3a 00 00 00 00 00 00 	0A00(1000:000000
  0x3960	00 00 00 00 0c 41 00 00 48 32 00 00 f0 39 00 00 	00000A00H2000900
  0x3970	00 00 00 00 00 00 00 00 2e 41 00 00 80 31 00 00 	00000000.A000100
  0x3980	00 00 00 00 00 00 00 00 00 00 00 00 00 00 00 00 	0000000000000000
  0x3990	00 00 00 00 00 00 00 00 44 40 00 00 00 00 00 00 	00000000D@000000
  0x39a0	00 00 00 00 00 00 00 00 73 00 00 00 00 00 00 80 	00000000s0000000
  0x39b0	ae 3c 00 00 00 00 00 00 00 00 00 00 00 00 00 00 	0<00000000000000
  0x39c0	20 40 00 00 00 00 00 00 00 00 00 00 00 00 00 00 	 @00000000000000
  0x39d0	9e 3c 00 00 00 00 00 00 c0 3d 00 00 00 00 00 00 	0<0000000=000000
  0x39e0	dc 3c 00 00 00 00 00 00 00 00 00 00 00 00 00 00 	0<00000000000000
  0x39f0	80 40 00 00 00 00 00 00 00 00 00 00 00 00 00 00 	0@00000000000000
  0x3a00	be 3c 00 00 00 00 00 00 00 00 00 00 00 00 00 00 	0<00000000000000
  0x3a10	5e 40 00 00 00 00 00 00 12 40 00 00 00 00 00 00 	^@0000000@000000
  0x3a20	00 00 00 00 00 00 00 00 fa 3c 00 00 00 00 00 00 	000000000<000000
  0x3a30	00 00 00 00 00 00 00 00 32 40 00 00 00 00 00 00 	000000002@000000
  0x3a40	88 3c 00 00 00 00 00 00 00 00 00 00 00 00 00 00 	0<00000000000000
  0x3a50	f8 3f 00 00 00 00 00 00 00 00 00 00 00 00 00 00 	0?00000000000000
  0x3a60	dc 3d 00 00 00 00 00 00 28 3d 00 00 00 00 00 00 	0=000000(=000000
  0x3a70	3e 3d 00 00 00 00 00 00 f0 3d 00 00 00 00 00 00 	>=0000000=000000
  0x3a80	00 00 00 00 00 00 00 00 0e 3d 00 00 00 00 00 00 	000000000=000000
  0x3a90	00 00 00 00 00 00 00 00 ac 3d 00 00 00 00 00 00 	000000000=000000
  0x3aa0	92 3d 00 00 00 00 00 00 7e 3d 00 00 00 00 00 00 	0=000000~=000000
  0x3ab0	00 00 00 00 00 00 00 00 6a 40 00 00 00 00 00 00 	00000000j@000000
  0x3ac0	00 00 00 00 00 00 00 00 d4 3c 00 00 00 00 00 00 	000000000<000000
  0x3ad0	00 00 00 00 00 00 00 00 6e 3d 00 00 00 00 00 00 	00000000n=000000
  0x3ae0	54 3d 00 00 00 00 00 00 00 00 00 00 00 00 00 00 	T=00000000000000
  0x3af0	5c 3c 00 00 00 00 00 00 74 3c 00 00 00 00 00 00 	0<000000t<000000
  0x3b00	66 3f 00 00 00 00 00 00 74 3f 00 00 00 00 00 00 	f?000000t?000000
  0x3b10	86 3f 00 00 00 00 00 00 92 3f 00 00 00 00 00 00 	0?0000000?000000
  0x3b20	aa 3f 00 00 00 00 00 00 b6 3f 00 00 00 00 00 00 	0?0000000?000000
  0x3b30	c0 3f 00 00 00 00 00 00 ca 3f 00 00 00 00 00 00 	0?0000000?000000
  0x3b40	d8 3f 00 00 00 00 00 00 e2 3f 00 00 00 00 00 00 	0?0000000?000000
  0x3b50	ec 3f 00 00 00 00 00 00 52 3c 00 00 00 00 00 00 	0?000000R<000000
  0x3b60	3a 3c 00 00 00 00 00 00 2e 3c 00 00 00 00 00 00 	:<000000.<000000
  0x3b70	1a 3c 00 00 00 00 00 00 10 3c 00 00 00 00 00 00 	0<0000000<000000
  0x3b80	9c 3f 00 00 00 00 00 00 08 3c 00 00 00 00 00 00 	0?0000000<000000
  0x3b90	f6 3b 00 00 00 00 00 00 e4 3b 00 00 00 00 00 00 	0;0000000;000000
  0x3ba0	d6 3b 00 00 00 00 00 00 c8 3b 00 00 00 00 00 00 	0;0000000;000000
  0x3bb0	c0 3b 00 00 00 00 00 00 00 00 00 00 00 00 00 00 	0;00000000000000
  0x3bc0	32 04 65 78 69 74 00 00 55 00 5f 58 63 70 74 46 	20exit00U0_XcptF
  0x3bd0	69 6c 74 65 72 00 ae 00 5f 61 6d 73 67 5f 65 78 	ilter000_amsg_ex
  0x3be0	69 74 00 00 9d 00 5f 5f 77 67 65 74 6d 61 69 6e 	it0000__wgetmain
  0x3bf0	61 72 67 73 00 00 8e 00 5f 5f 73 65 74 5f 61 70 	args0000__set_ap
  0x3c00	70 5f 74 79 70 65 00 00 0e 01 5f 65 78 69 74 00 	p_type0000_exit0
  0x3c10	c1 00 5f 63 65 78 69 74 00 00 90 00 5f 5f 73 65 	00_cexit0000__se
  0x3c20	74 75 73 65 72 6d 61 74 68 65 72 72 00 00 7d 01 	tusermatherr00}0
  0x3c30	5f 69 6e 69 74 74 65 72 6d 00 57 00 5f 5f 43 5f 	_initterm0W0__C_
  0x3c40	73 70 65 63 69 66 69 63 5f 68 61 6e 64 6c 65 72 	specific_handler
  0x3c50	00 00 27 01 5f 66 6d 6f 64 65 00 00 d2 00 5f 63 	00'0_fmode0000_c
  0x3c60	6f 6d 6d 6f 64 65 00 00 6d 73 76 63 72 74 2e 64 	ommode00msvcrt.d
  0x3c70	6c 6c 00 00 2f 00 3f 74 65 72 6d 69 6e 61 74 65 	ll00/0?terminate
  0x3c80	40 40 59 41 58 58 5a 00 3f 00 53 65 74 54 68 72 	@@YAXXZ0?0SetThr
  0x3c90	65 61 64 55 49 4c 61 6e 67 75 61 67 65 00 05 00 	eadUILanguage000
  0x3ca0	47 65 74 4c 61 73 74 45 72 72 6f 72 00 00 08 00 	GetLastError0000
  0x3cb0	47 65 74 48 6f 73 74 4e 61 6d 65 57 00 00 0a 00 	GetHostNameW0000
  0x3cc0	48 65 61 70 53 65 74 49 6e 66 6f 72 6d 61 74 69 	HeapSetInformati
  0x3cd0	6f 6e 00 00 2d 00 53 6c 65 65 70 00 0f 00 53 65 	on00-0Sleep000Se
  0x3ce0	74 55 6e 68 61 6e 64 6c 65 64 45 78 63 65 70 74 	tUnhandledExcept
  0x3cf0	69 6f 6e 46 69 6c 74 65 72 00 14 00 47 65 74 4d 	ionFilter000GetM
  0x3d00	6f 64 75 6c 65 48 61 6e 64 6c 65 57 00 00 00 00 	oduleHandleW0000
  0x3d10	51 75 65 72 79 50 65 72 66 6f 72 6d 61 6e 63 65 	QueryPerformance
  0x3d20	43 6f 75 6e 74 65 72 00 0d 00 47 65 74 43 75 72 	Counter000GetCur
  0x3d30	72 65 6e 74 50 72 6f 63 65 73 73 49 64 00 11 00 	rentProcessId000
  0x3d40	47 65 74 43 75 72 72 65 6e 74 54 68 72 65 61 64 	GetCurrentThread
  0x3d50	49 64 00 00 16 00 47 65 74 53 79 73 74 65 6d 54 	Id0000GetSystemT
  0x3d60	69 6d 65 41 73 46 69 6c 65 54 69 6d 65 00 1a 00 	imeAsFileTime000
  0x3d70	47 65 74 54 69 63 6b 43 6f 75 6e 74 00 00 02 00 	GetTickCount0000
  0x3d80	52 74 6c 43 61 70 74 75 72 65 43 6f 6e 74 65 78 	RtlCaptureContex
  0x3d90	74 00 0a 00 52 74 6c 4c 6f 6f 6b 75 70 46 75 6e 	t000RtlLookupFun
  0x3da0	63 74 69 6f 6e 45 6e 74 72 79 00 00 10 00 52 74 	ctionEntry0000Rt
  0x3db0	6c 56 69 72 74 75 61 6c 55 6e 77 69 6e 64 00 00 	lVirtualUnwind00
  0x3dc0	11 00 55 6e 68 61 6e 64 6c 65 64 45 78 63 65 70 	00UnhandledExcep
  0x3dd0	74 69 6f 6e 46 69 6c 74 65 72 00 00 0c 00 47 65 	tionFilter0000Ge
  0x3de0	74 43 75 72 72 65 6e 74 50 72 6f 63 65 73 73 00 	tCurrentProcess0
  0x3df0	4e 00 54 65 72 6d 69 6e 61 74 65 50 72 6f 63 65 	N0TerminateProce
  0x3e00	73 73 00 00 61 70 69 2d 6d 73 2d 77 69 6e 2d 63 	ss00api-ms-win-c
  0x3e10	6f 72 65 2d 6c 6f 63 61 6c 69 7a 61 74 69 6f 6e 	ore-localization
  0x3e20	2d 6c 31 2d 32 2d 30 2e 64 6c 6c 00 61 70 69 2d 	-l1-2-0.dll0api-
  0x3e30	6d 73 2d 77 69 6e 2d 63 6f 72 65 2d 65 72 72 6f 	ms-win-core-erro
  0x3e40	72 68 61 6e 64 6c 69 6e 67 2d 6c 31 2d 31 2d 30 	rhandling-l1-1-0
  0x3e50	2e 64 6c 6c 00 00 57 53 32 5f 33 32 2e 64 6c 6c 	.dll00WS2_32.dll
  0x3e60	00 00 61 70 69 2d 6d 73 2d 77 69 6e 2d 63 6f 72 	00api-ms-win-cor
  0x3e70	65 2d 68 65 61 70 2d 6c 31 2d 31 2d 30 2e 64 6c 	e-heap-l1-1-0.dl
  0x3e80	6c 00 61 70 69 2d 6d 73 2d 77 69 6e 2d 63 6f 72 	l0api-ms-win-cor
  0x3e90	65 2d 73 79 6e 63 68 2d 6c 31 2d 32 2d 30 2e 64 	e-synch-l1-2-0.d
  0x3ea0	6c 6c 00 00 61 70 69 2d 6d 73 2d 77 69 6e 2d 63 	ll00api-ms-win-c
  0x3eb0	6f 72 65 2d 6c 69 62 72 61 72 79 6c 6f 61 64 65 	ore-libraryloade
  0x3ec0	72 2d 6c 31 2d 32 2d 30 2e 64 6c 6c 00 00 61 70 	r-l1-2-0.dll00ap
  0x3ed0	69 2d 6d 73 2d 77 69 6e 2d 63 6f 72 65 2d 70 72 	i-ms-win-core-pr
  0x3ee0	6f 66 69 6c 65 2d 6c 31 2d 31 2d 30 2e 64 6c 6c 	ofile-l1-1-0.dll
  0x3ef0	00 00 61 70 69 2d 6d 73 2d 77 69 6e 2d 63 6f 72 	00api-ms-win-cor
  0x3f00	65 2d 70 72 6f 63 65 73 73 74 68 72 65 61 64 73 	e-processthreads
  0x3f10	2d 6c 31 2d 31 2d 30 2e 64 6c 6c 00 61 70 69 2d 	-l1-1-0.dll0api-
  0x3f20	6d 73 2d 77 69 6e 2d 63 6f 72 65 2d 73 79 73 69 	ms-win-core-sysi
  0x3f30	6e 66 6f 2d 6c 31 2d 31 2d 30 2e 64 6c 6c 00 00 	nfo-l1-1-0.dll00
  0x3f40	61 70 69 2d 6d 73 2d 77 69 6e 2d 63 6f 72 65 2d 	api-ms-win-core-
  0x3f50	72 74 6c 73 75 70 70 6f 72 74 2d 6c 31 2d 31 2d 	rtlsupport-l1-1-
  0x3f60	30 2e 64 6c 6c 00 81 00 5f 5f 69 6f 62 5f 66 75 	0.dll000__iob_fu
  0x3f70	6e 63 00 00 55 01 5f 67 65 74 5f 6f 73 66 68 61 	nc00U0_get_osfha
  0x3f80	6e 64 6c 65 00 00 8a 03 5f 77 63 73 69 63 6d 70 	ndle0000_wcsicmp
  0x3f90	00 00 39 04 66 66 6c 75 73 68 00 00 fa 04 76 73 	0090fflush0000vs
  0x3fa0	77 70 72 69 6e 74 66 5f 73 00 c8 02 5f 73 65 74 	wprintf_s000_set
  0x3fb0	6d 6f 64 65 00 00 e4 03 5f 77 72 69 74 65 00 00 	mode0000_write00
  0x3fc0	1b 01 5f 66 69 6c 65 6e 6f 00 60 03 5f 76 73 63 	00_fileno0`0_vsc
  0x3fd0	77 70 72 69 6e 74 66 00 01 05 77 63 73 63 68 72 	wprintf000wcschr
  0x3fe0	00 00 3b 04 66 67 65 74 70 6f 73 00 55 04 66 77 	00;0fgetpos0U0fw
  0x3ff0	70 72 69 6e 74 66 00 00 0b 00 47 65 74 45 6e 76 	printf0000GetEnv
  0x4000	69 72 6f 6e 6d 65 6e 74 56 61 72 69 61 62 6c 65 	ironmentVariable
  0x4010	57 00 08 00 4c 6f 63 61 6c 41 6c 6c 6f 63 00 00 	W000LocalAlloc00
  0x4020	06 00 47 65 74 43 6f 6e 73 6f 6c 65 4d 6f 64 65 	00GetConsoleMode
  0x4030	00 00 09 00 46 6f 72 6d 61 74 4d 65 73 73 61 67 	0000FormatMessag
  0x4040	65 57 00 00 0a 00 47 65 74 53 6f 63 6b 65 74 45 	eW0000GetSocketE
  0x4050	72 72 6f 72 4d 65 73 73 61 67 65 57 00 00 0a 00 	rrorMessageW0000
  0x4060	4c 6f 63 61 6c 46 72 65 65 00 07 00 57 69 64 65 	LocalFree000Wide
  0x4070	43 68 61 72 54 6f 4d 75 6c 74 69 42 79 74 65 00 	CharToMultiByte0
  0x4080	31 00 47 65 74 46 69 6c 65 54 79 70 65 00 61 70 	10GetFileType0ap
  0x4090	69 2d 6d 73 2d 77 69 6e 2d 63 6f 72 65 2d 70 72 	i-ms-win-core-pr
  0x40a0	6f 63 65 73 73 65 6e 76 69 72 6f 6e 6d 65 6e 74 	ocessenvironment
  0x40b0	2d 6c 31 2d 31 2d 30 2e 64 6c 6c 00 61 70 69 2d 	-l1-1-0.dll0api-
  0x40c0	6d 73 2d 77 69 6e 2d 63 6f 72 65 2d 68 65 61 70 	ms-win-core-heap
  0x40d0	2d 6c 32 2d 31 2d 30 2e 64 6c 6c 00 61 70 69 2d 	-l2-1-0.dll0api-
  0x40e0	6d 73 2d 77 69 6e 2d 63 6f 72 65 2d 63 6f 6e 73 	ms-win-core-cons
  0x40f0	6f 6c 65 2d 6c 31 2d 31 2d 30 2e 64 6c 6c 00 00 	ole-l1-1-0.dll00
  0x4100	4d 53 57 53 4f 43 4b 2e 64 6c 6c 00 61 70 69 2d 	MSWSOCK.dll0api-
  0x4110	6d 73 2d 77 69 6e 2d 63 6f 72 65 2d 73 74 72 69 	ms-win-core-stri
  0x4120	6e 67 2d 6c 31 2d 31 2d 30 2e 64 6c 6c 00 61 70 	ng-l1-1-0.dll0ap
  0x4130	69 2d 6d 73 2d 77 69 6e 2d 63 6f 72 65 2d 66 69 	i-ms-win-core-fi
  0x4140	6c 65 2d 6c 31 2d 31 2d 30 2e 64 6c 6c 00 00 00 	le-l1-1-0.dll000
  0x4150	00 00 00 00 00 00 00 00 00 00 00 00 00 00 00 00 	0000000000000000
  0x4160	00 00 00 00 00 00 00 00 00 00 00 00 00 00 00 00 	0000000000000000
  0x4170	00 00 00 00 00 00 00 00 00 00 00 00 00 00 00 00 	0000000000000000
  0x4180	00 00 00 00 00 00 00 00 00 00 00 00 00 00 00 00 	0000000000000000
  0x4190	00 00 00 00 00 00 00 00 00 00 00 00 00 00 00 00 	0000000000000000
  0x41a0	00 00 00 00 00 00 00 00 00 00 00 00 00 00 00 00 	0000000000000000
  0x41b0	00 00 00 00 00 00 00 00 00 00 00 00 00 00 00 00 	0000000000000000
  0x41c0	00 00 00 00 00 00 00 00 00 00 00 00 00 00 00 00 	0000000000000000
  0x41d0	00 00 00 00 00 00 00 00 00 00 00 00 00 00 00 00 	0000000000000000
  0x41e0	00 00 00 00 00 00 00 00 00 00 00 00 00 00 00 00 	0000000000000000
  0x41f0	00 00 00 00 00 00 00 00 00 00 00 00 00 00 00 00 	0000000000000000
=== DATA BLOCK END ===

=== DATA BLOCK ADDRESS 0x5000 ===
  0x5000	01 00 00 00 00 00 00 00 32 a2 df 2d 99 2b 00 00 	00000000200-0+00
  0x5010	cd 5d 20 d2 66 d4 ff ff 00 00 00 00 00 00 00 00 	0] 0f00000000000
  0x5020	00 00 00 00 00 00 00 00 00 00 00 00 00 00 00 00 	0000000000000000
  0x5030	00 00 00 00 00 00 00 00 00 00 00 00 00 00 00 00 	0000000000000000
  0x5040	00 00 00 00 00 00 00 00 00 00 00 00 00 00 00 00 	0000000000000000
  0x5050	00 00 00 00 00 00 00 00 00 00 00 00 00 00 00 00 	0000000000000000
  0x5060	00 00 00 00 00 00 00 00 00 00 00 00 00 00 00 00 	0000000000000000
  0x5070	00 00 00 00 00 00 00 00 00 00 00 00 00 00 00 00 	0000000000000000
  0x5080	00 00 00 00 00 00 00 00 00 00 00 00 00 00 00 00 	0000000000000000
  0x5090	00 00 00 00 00 00 00 00 00 00 00 00 00 00 00 00 	0000000000000000
  0x50a0	00 00 00 00 00 00 00 00 00 00 00 00 00 00 00 00 	0000000000000000
  0x50b0	00 00 00 00 00 00 00 00 00 00 00 00 00 00 00 00 	0000000000000000
  0x50c0	00 00 00 00 00 00 00 00 00 00 00 00 00 00 00 00 	0000000000000000
  0x50d0	00 00 00 00 00 00 00 00 00 00 00 00 00 00 00 00 	0000000000000000
  0x50e0	00 00 00 00 00 00 00 00 00 00 00 00 00 00 00 00 	0000000000000000
  0x50f0	00 00 00 00 00 00 00 00 00 00 00 00 00 00 00 00 	0000000000000000
  0x5100	00 00 00 00 00 00 00 00 00 00 00 00 00 00 00 00 	0000000000000000
  0x5110	00 00 00 00 00 00 00 00 00 00 00 00 00 00 00 00 	0000000000000000
  0x5120	00 00 00 00 00 00 00 00 00 00 00 00 00 00 00 00 	0000000000000000
  0x5130	00 00 00 00 00 00 00 00 00 00 00 00 00 00 00 00 	0000000000000000
  0x5140	00 00 00 00 00 00 00 00 00 00 00 00 00 00 00 00 	0000000000000000
  0x5150	00 00 00 00 00 00 00 00 00 00 00 00 00 00 00 00 	0000000000000000
  0x5160	00 00 00 00 00 00 00 00 00 00 00 00 00 00 00 00 	0000000000000000
  0x5170	00 00 00 00 00 00 00 00 00 00 00 00 00 00 00 00 	0000000000000000
  0x5180	00 00 00 00 00 00 00 00 00 00 00 00 00 00 00 00 	0000000000000000
  0x5190	00 00 00 00 00 00 00 00 00 00 00 00 00 00 00 00 	0000000000000000
  0x51a0	00 00 00 00 00 00 00 00 00 00 00 00 00 00 00 00 	0000000000000000
  0x51b0	00 00 00 00 00 00 00 00 00 00 00 00 00 00 00 00 	0000000000000000
  0x51c0	00 00 00 00 00 00 00 00 00 00 00 00 00 00 00 00 	0000000000000000
  0x51d0	00 00 00 00 00 00 00 00 00 00 00 00 00 00 00 00 	0000000000000000
  0x51e0	00 00 00 00 00 00 00 00 00 00 00 00 00 00 00 00 	0000000000000000
  0x51f0	00 00 00 00 00 00 00 00 00 00 00 00 00 00 00 00 	0000000000000000
=== DATA BLOCK END ===

=== DATA BLOCK ADDRESS 0x6000 ===
  0x6000	08 10 00 00 85 11 00 00 e0 36 00 00 8c 11 00 00 	0000000006000000
  0x6010	2c 12 00 00 fc 36 00 00 34 12 00 00 d1 12 00 00 	,000060040000000
  0x6020	10 37 00 00 d8 12 00 00 70 14 00 00 1c 37 00 00 	07000000p0000700
  0x6030	78 14 00 00 02 17 00 00 30 37 00 00 08 17 00 00 	x000000007000000
  0x6040	a2 17 00 00 54 37 00 00 a8 17 00 00 23 18 00 00 	0000T7000000#000
  0x6050	64 37 00 00 2c 18 00 00 fe 18 00 00 6c 37 00 00 	d700,0000000l700
  0x6060	10 19 00 00 e3 19 00 00 74 37 00 00 f0 19 00 00 	00000000t7000000
  0x6070	39 1a 00 00 7c 37 00 00 40 1a 00 00 fe 1b 00 00 	9000|700@0000000
  0x6080	84 37 00 00 10 1c 00 00 22 1c 00 00 74 37 00 00 	07000000"000t700
  0x6090	40 1c 00 00 5e 1c 00 00 b8 37 00 00 70 1c 00 00 	@000^0000700p000
  0x60a0	a9 1c 00 00 74 37 00 00 b0 1c 00 00 c8 1c 00 00 	0000t70000000000
  0x60b0	74 37 00 00 dc 1c 00 00 30 1d 00 00 bc 37 00 00 	t700000000000700
  0x60c0	38 1d 00 00 7d 1d 00 00 dc 37 00 00 f0 1d 00 00 	8000}00007000000
  0x60d0	3d 1e 00 00 e4 37 00 00 84 1e 00 00 58 1f 00 00 	=00007000000X000
  0x60e0	08 38 00 00 8c 1f 00 00 c0 1f 00 00 dc 37 00 00 	0800000000000700
  0x60f0	d0 1f 00 00 41 21 00 00 14 38 00 00 58 21 00 00 	0000A!000800X!00
  0x6100	76 21 00 00 dc 37 00 00 88 21 00 00 a5 21 00 00 	v!0007000!000!00
  0x6110	74 37 00 00 ac 21 00 00 07 22 00 00 24 38 00 00 	t7000!000"00$800
  0x6120	20 22 00 00 22 22 00 00 20 38 00 00 30 22 00 00 	 "00""00 8000"00
  0x6130	4e 22 00 00 b0 37 00 00 60 22 00 00 80 22 00 00 	N"000700`"000"00
  0x6140	b0 37 00 00 00 00 00 00 00 00 00 00 00 00 00 00 	0700000000000000
  0x6150	00 00 00 00 00 00 00 00 00 00 00 00 00 00 00 00 	0000000000000000
  0x6160	00 00 00 00 00 00 00 00 00 00 00 00 00 00 00 00 	0000000000000000
  0x6170	00 00 00 00 00 00 00 00 00 00 00 00 00 00 00 00 	0000000000000000
  0x6180	00 00 00 00 00 00 00 00 00 00 00 00 00 00 00 00 	0000000000000000
  0x6190	00 00 00 00 00 00 00 00 00 00 00 00 00 00 00 00 	0000000000000000
  0x61a0	00 00 00 00 00 00 00 00 00 00 00 00 00 00 00 00 	0000000000000000
  0x61b0	00 00 00 00 00 00 00 00 00 00 00 00 00 00 00 00 	0000000000000000
  0x61c0	00 00 00 00 00 00 00 00 00 00 00 00 00 00 00 00 	0000000000000000
  0x61d0	00 00 00 00 00 00 00 00 00 00 00 00 00 00 00 00 	0000000000000000
  0x61e0	00 00 00 00 00 00 00 00 00 00 00 00 00 00 00 00 	0000000000000000
  0x61f0	00 00 00 00 00 00 00 00 00 00 00 00 00 00 00 00 	0000000000000000
=== DATA BLOCK END ===
