===== Assembly blocks =====

=== CODE BLOCK ADDRESS 0x1000 ===
  0x1000	int3   	
  0x1001	int3   	
  0x1002	int3   	
  0x1003	int3   	
  0x1004	int3   	
  === BLOCK LINK ===
    0x1005
=== CODE BLOCK END ===

=== CODE BLOCK ADDRESS 0x1005 ===
  0x1005	int3   	
  0x1006	int3   	
  0x1007	int3   	
  0x1008	int3   	
  0x1009	int3   	
  === BLOCK LINK ===
    0x100a
=== CODE BLOCK END ===

=== CODE BLOCK ADDRESS 0x100a ===
  0x100a	int3   	
  0x100b	int3   	
  0x100c	int3   	
  0x100d	int3   	
  0x100e	int3   	
  === BLOCK LINK ===
    0x100f
=== CODE BLOCK END ===

=== CODE BLOCK ADDRESS 0x100f ===
  0x100f	int3   	
  0x1010	dec    	eax
  0x1011	mov    	dword ptr [esp + 0x20], ebx
  0x1015	push   	ebp
  0x1016	push   	esi
  === BLOCK LINK ===
    0x1017
=== CODE BLOCK END ===

=== CODE BLOCK ADDRESS 0x1017 ===
  0x1017	push   	edi
  0x1018	inc    	ecx
  0x1019	push   	esp
  0x101a	inc    	ecx
  0x101b	push   	esi
  === BLOCK LINK ===
    0x101c
=== CODE BLOCK END ===

=== CODE BLOCK ADDRESS 0x101c ===
  0x101c	dec    	eax
  0x101d	lea    	ebp, [esp - 0x190]
  0x1024	dec    	eax
  0x1025	sub    	esp, 0x290
  0x102b	dec    	eax
  === BLOCK LINK ===
    0x102c
=== CODE BLOCK END ===

=== CODE BLOCK ADDRESS 0x102c ===
  0x102c	mov    	eax, dword ptr [0xd256]
  0x1032	dec    	eax
  0x1033	xor    	eax, esp
  0x1035	dec    	eax
  0x1036	mov    	dword ptr [ebp + 0x180], eax
  === BLOCK LINK ===
    0x103c
=== CODE BLOCK END ===

=== CODE BLOCK ADDRESS 0x103c ===
  0x103c	mov    	eax, dword ptr [0xaafe]
  0x1042	dec    	esp
  0x1043	mov    	esi, edx
  0x1045	mov    	dword ptr [esp + 0x60], eax
  0x1049	mov    	esi, ecx
  === BLOCK LINK ===
    0x104b
=== CODE BLOCK END ===

=== CODE BLOCK ADDRESS 0x104b ===
  0x104b	movzx  	eax, byte ptr [0xaaf2]
  0x1052	inc    	ebp
  0x1053	xor    	esp, esp
  0x1055	mov    	byte ptr [esp + 0x64], al
  0x1059	inc    	ebp
  === BLOCK LINK ===
    0x105a
=== CODE BLOCK END ===

=== CODE BLOCK ADDRESS 0x105a ===
  0x105a	xor    	ecx, ecx
  0x105c	xor    	eax, eax
  0x105e	mov    	dword ptr [esp + 0x40], ecx
  0x1062	inc    	ebp
  0x1063	xor    	eax, eax
  === BLOCK LINK ===
    0x1065
=== CODE BLOCK END ===

=== CODE BLOCK ADDRESS 0x1065 ===
  0x1065	mov    	dword ptr [esp + 0x65], eax
  0x1069	xor    	ecx, ecx
  0x106b	mov    	word ptr [esp + 0x69], ax
  0x1070	inc    	ecx
  0x1071	movzx  	edi, sp
  === BLOCK LINK ===
    0x1074
=== CODE BLOCK END ===

=== CODE BLOCK ADDRESS 0x1074 ===
  0x1074	mov    	byte ptr [esp + 0x6b], al
  0x1078	lea    	edx, [eax + 1]
  0x107b	dec    	eax
  0x107c	call   	dword ptr [0xa216]
  === BLOCK LINK ===
    0x1082
=== CODE BLOCK END ===

=== CODE BLOCK ADDRESS 0x1082 ===
  0x1082	nop    	dword ptr [eax + eax]
  0x1087	test   	eax, eax
  0x1089	je     	0x3300
  === BLOCK LINK ===
    0x108f
    0x3300
=== CODE BLOCK END ===

=== CODE BLOCK ADDRESS 0x108f ===
  0x108f	mov    	dword ptr [0x1662b], esi
  0x1095	dec    	esp
  0x1096	mov    	dword ptr [0x16414], esi
  0x109c	dec    	eax
  0x109d	call   	dword ptr [0xa14d]
  === BLOCK LINK ===
    0x10a3
=== CODE BLOCK END ===

=== CODE BLOCK ADDRESS 0x10a3 ===
  0x10a3	nop    	dword ptr [eax + eax]
  0x10a8	mov    	ecx, eax
  0x10aa	dec    	eax
  0x10ab	lea    	edx, [0x152cf]
  0x10b1	mov    	ebx, eax
  === BLOCK LINK ===
    0x10b3
=== CODE BLOCK END ===

=== CODE BLOCK ADDRESS 0x10b3 ===
  0x10b3	dec    	eax
  0x10b4	call   	dword ptr [0xa236]
  === BLOCK LINK ===
    0x10ba
=== CODE BLOCK END ===

=== CODE BLOCK ADDRESS 0x10ba ===
  0x10ba	nop    	dword ptr [eax + eax]
  0x10bf	xor    	ecx, ecx
  0x10c1	dec    	eax
  0x10c2	call   	dword ptr [0xa230]
  === BLOCK LINK ===
    0x10c8
=== CODE BLOCK END ===

=== CODE BLOCK ADDRESS 0x10c8 ===
  0x10c8	nop    	dword ptr [eax + eax]
  0x10cd	test   	ebx, ebx
  0x10cf	je     	0x10f1
  === BLOCK LINK ===
    0x10d1
    0x10f1
=== CODE BLOCK END ===

=== CODE BLOCK ADDRESS 0x10d1 ===
  0x10d1	inc    	esp
  0x10d2	mov    	ecx, ebx
  0x10d4	dec    	esp
  0x10d5	lea    	eax, [0xa5d5]
  0x10db	mov    	edx, 0xc
  === BLOCK LINK ===
    0x10e0
=== CODE BLOCK END ===

=== CODE BLOCK ADDRESS 0x10e0 ===
  0x10e0	dec    	eax
  0x10e1	lea    	ecx, [esp + 0x60]
  0x10e5	dec    	eax
  0x10e6	call   	dword ptr [0xa344]
  === BLOCK LINK ===
    0x10ec
=== CODE BLOCK END ===

=== CODE BLOCK ADDRESS 0x10ec ===
  0x10ec	nop    	dword ptr [eax + eax]
  === BLOCK LINK ===
    0x10f1
=== CODE BLOCK END ===

=== CODE BLOCK ADDRESS 0x10f9 ===
  0x10f9	call   	dword ptr [0xa479]
  === BLOCK LINK ===
    0x10ff
=== CODE BLOCK END ===

=== CODE BLOCK ADDRESS 0x10ff ===
  0x10ff	nop    	dword ptr [eax + eax]
  0x1104	mov    	ecx, 0xfffffff5
  0x1109	dec    	eax
  0x110a	call   	dword ptr [0xa200]
  === BLOCK LINK ===
    0x1110
=== CODE BLOCK END ===

=== CODE BLOCK ADDRESS 0x1110 ===
  0x1110	nop    	dword ptr [eax + eax]
  0x1115	dec    	eax
  0x1116	mov    	dword ptr [0x12254], eax
  0x111c	dec    	eax
  0x111d	cmp    	eax, -1
  === BLOCK LINK ===
    0x1120
=== CODE BLOCK END ===

=== CODE BLOCK ADDRESS 0x1120 ===
  0x1120	je     	0x336d
  === BLOCK LINK ===
    0x1126
    0x336d
=== CODE BLOCK END ===

=== CODE BLOCK ADDRESS 0x1126 ===
  0x1126	mov    	ecx, 0xfffffff4
  0x112b	dec    	eax
  0x112c	call   	dword ptr [0xa1de]
  === BLOCK LINK ===
    0x1132
=== CODE BLOCK END ===

=== CODE BLOCK ADDRESS 0x1132 ===
  0x1132	nop    	dword ptr [eax + eax]
  0x1137	dec    	eax
  0x1138	mov    	dword ptr [0x1222a], eax
  0x113e	dec    	eax
  0x113f	cmp    	eax, -1
  === BLOCK LINK ===
    0x1142
=== CODE BLOCK END ===

=== CODE BLOCK ADDRESS 0x1142 ===
  0x1142	je     	0x338d
  === BLOCK LINK ===
    0x1148
    0x338d
=== CODE BLOCK END ===

=== CODE BLOCK ADDRESS 0x1148 ===
  0x1148	dec    	eax
  0x1149	call   	dword ptr [0xa1b9]
  === BLOCK LINK ===
    0x114f
=== CODE BLOCK END ===

=== CODE BLOCK ADDRESS 0x114f ===
  0x114f	nop    	dword ptr [eax + eax]
  0x1154	inc    	ecx
  0x1155	mov    	eax, 0x104
  0x115a	dec    	eax
  0x115b	lea    	edx, [esp + 0x70]
  === BLOCK LINK ===
    0x115f
=== CODE BLOCK END ===

=== CODE BLOCK ADDRESS 0x115f ===
  0x115f	xor    	ecx, ecx
  0x1161	dec    	eax
  0x1162	mov    	ebx, eax
  0x1164	dec    	eax
  0x1165	call   	dword ptr [0xa16d]
  === BLOCK LINK ===
    0x116b
=== CODE BLOCK END ===

=== CODE BLOCK ADDRESS 0x116b ===
  0x116b	nop    	dword ptr [eax + eax]
  0x1170	cmp    	word ptr [ebx], di
  0x1173	je     	0x33ad
  === BLOCK LINK ===
    0x1179
    0x33ad
=== CODE BLOCK END ===

=== CODE BLOCK ADDRESS 0x1179 ===
  0x1179	dec    	eax
  0x117a	lea    	eax, [esp + 0x58]
  0x117e	inc    	esp
  0x117f	mov    	dword ptr [esp + 0x28], esp
  0x1183	dec    	esp
  === BLOCK LINK ===
    0x1184
=== CODE BLOCK END ===

=== CODE BLOCK ADDRESS 0x1184 ===
  0x1184	lea    	ecx, [esp + 0x40]
  0x1188	dec    	eax
  0x1189	mov    	dword ptr [esp + 0x20], eax
  0x118d	inc    	ebp
  0x118e	xor    	eax, eax
  === BLOCK LINK ===
    0x1190
=== CODE BLOCK END ===

=== CODE BLOCK ADDRESS 0x1190 ===
  0x1190	xor    	edx, edx
  0x1192	dec    	eax
  0x1193	mov    	ecx, ebx
  0x1195	call   	0x13e0
  === BLOCK LINK ===
    0x119a
    0x13e0
=== CODE BLOCK END ===

=== CODE BLOCK ADDRESS 0x119a ===
  0x119a	dec    	eax
  0x119b	arpl   	word ptr [esp + 0x58], ax
  0x119f	mov    	edx, dword ptr [esp + 0x40]
  0x11a3	dec    	eax
  0x11a4	mov    	ecx, eax
  === BLOCK LINK ===
    0x11a6
=== CODE BLOCK END ===

=== CODE BLOCK ADDRESS 0x11a6 ===
  0x11a6	dec    	eax
  0x11a7	not    	ecx
  0x11a9	dec    	eax
  0x11aa	shr    	ecx, 3
  0x11ad	inc    	esp
  === BLOCK LINK ===
    0x11ae
=== CODE BLOCK END ===

=== CODE BLOCK ADDRESS 0x11ae ===
  0x11ae	lea    	esi, [eax + edx*8]
  0x11b1	dec    	eax
  0x11b2	cmp    	edx, ecx
  0x11b4	jae    	0x33c8
  === BLOCK LINK ===
    0x11ba
    0x33c8
=== CODE BLOCK END ===

=== CODE BLOCK ADDRESS 0x11ba ===
  0x11ba	dec    	eax
  0x11bc	mov    	ecx, dword ptr [0x60]
  0x11c3	xor    	edx, edx
  0x11c5	dec    	ebp
  0x11c6	arpl   	si, ax
  === BLOCK LINK ===
    0x11c8
=== CODE BLOCK END ===

=== CODE BLOCK ADDRESS 0x11c8 ===
  0x11c8	dec    	eax
  0x11c9	mov    	ecx, dword ptr [ecx + 0x30]
  0x11cc	dec    	eax
  0x11cd	call   	dword ptr [0xa3fd]
  === BLOCK LINK ===
    0x11d3
=== CODE BLOCK END ===

=== CODE BLOCK ADDRESS 0x11d3 ===
  0x11d3	nop    	dword ptr [eax + eax]
  0x11d8	dec    	eax
  0x11d9	mov    	esi, eax
  0x11db	dec    	eax
  0x11dc	test   	eax, eax
  === BLOCK LINK ===
    0x11de
=== CODE BLOCK END ===

=== CODE BLOCK ADDRESS 0x11de ===
  0x11de	je     	0x33b7
  === BLOCK LINK ===
    0x11e4
    0x33b7
=== CODE BLOCK END ===

=== CODE BLOCK ADDRESS 0x11e4 ===
  0x11e4	dec    	eax
  0x11e5	arpl   	word ptr [esp + 0x40], ax
  0x11e9	dec    	esp
  0x11ea	lea    	ecx, [esp + 0x40]
  0x11ee	dec    	esp
  === BLOCK LINK ===
    0x11ef
=== CODE BLOCK END ===

=== CODE BLOCK ADDRESS 0x11ef ===
  0x11ef	mov    	dword ptr [esp + 0x2c8], ebp
  0x11f6	dec    	eax
  0x11f7	mov    	edx, esi
  0x11f9	inc    	esp
  0x11fa	mov    	dword ptr [esp + 0x28], esi
  === BLOCK LINK ===
    0x11fe
=== CODE BLOCK END ===

=== CODE BLOCK ADDRESS 0x11fe ===
  0x11fe	dec    	eax
  0x11ff	mov    	ecx, ebx
  0x1201	dec    	esp
  0x1202	mov    	dword ptr [esp + 0x2d0], edi
  0x1209	dec    	esp
  === BLOCK LINK ===
    0x120a
=== CODE BLOCK END ===

=== CODE BLOCK ADDRESS 0x120a ===
  0x120a	lea    	eax, [esi + eax*8]
  0x120d	dec    	eax
  0x120e	lea    	eax, [esp + 0x58]
  0x1212	dec    	eax
  0x1213	mov    	dword ptr [esp + 0x20], eax
  === BLOCK LINK ===
    0x1217
=== CODE BLOCK END ===

=== CODE BLOCK ADDRESS 0x1217 ===
  0x1217	call   	0x13e0
  === BLOCK LINK ===
    0x121c
    0x13e0
=== CODE BLOCK END ===

=== CODE BLOCK ADDRESS 0x121c ===
  0x121c	dec    	eax
  0x121d	lea    	eax, [esi + 8]
  0x1220	inc    	ebp
  0x1221	movzx  	edi, sp
  0x1224	mov    	esi, dword ptr [esp + 0x40]
  === BLOCK LINK ===
    0x1228
=== CODE BLOCK END ===

=== CODE BLOCK ADDRESS 0x1228 ===
  0x1228	inc    	ecx
  0x1229	movzx  	ebx, sp
  0x122c	dec    	eax
  0x122d	mov    	dword ptr [0x15165], eax
  0x1233	sub    	esi, 1
  === BLOCK LINK ===
    0x1236
=== CODE BLOCK END ===

=== CODE BLOCK ADDRESS 0x1236 ===
  0x1236	je     	0x1285
  === BLOCK LINK ===
    0x1238
    0x1285
=== CODE BLOCK END ===

=== CODE BLOCK ADDRESS 0x1238 ===
  0x1238	dec    	esp
  0x1239	lea    	ebp, [0xffffedc1]
  === BLOCK LINK ===
    0x123f
=== CODE BLOCK END ===

=== CODE BLOCK ADDRESS 0x1247 ===
  0x1247	cmp    	word ptr [edx], 0x2f
  0x124b	je     	0x33e4
  === BLOCK LINK ===
    0x1251
    0x33e4
=== CODE BLOCK END ===

=== CODE BLOCK ADDRESS 0x1251 ===
  0x1251	cmp    	bx, cx
  0x1254	jge    	0x34cd
  === BLOCK LINK ===
    0x125a
    0x34cd
=== CODE BLOCK END ===

=== CODE BLOCK ADDRESS 0x125a ===
  0x125a	dec    	eax
  0x125b	movsx  	ecx, bx
  0x125e	inc    	bx
  0x1261	dec    	ecx
  0x1262	mov    	dword ptr [ebp + ecx*8 + 0x16cb0], edx
  === BLOCK LINK ===
    0x1269
=== CODE BLOCK END ===

=== CODE BLOCK ADDRESS 0x1269 ===
  0x1269	inc    	cx
  0x126b	mov    	dword ptr [ebp + ecx*2 + 0x174c0], edi
  0x1272	dec    	eax
  0x1273	add    	eax, 8
  0x1276	inc    	di
  === BLOCK LINK ===
    0x1279
=== CODE BLOCK END ===

=== CODE BLOCK ADDRESS 0x1279 ===
  0x1279	dec    	eax
  0x127a	mov    	dword ptr [0x15118], eax
  0x1280	sub    	esi, 1
  0x1283	jne    	0x123f
  === BLOCK LINK ===
    0x1285
    0x123f
=== CODE BLOCK END ===

=== CODE BLOCK ADDRESS 0x1285 ===
  0x1285	dec    	eax
  0x1286	lea    	edx, [esp + 0x48]
  0x128a	mov    	ecx, 0x18
  0x128f	dec    	eax
  0x1290	call   	dword ptr [0xa32a]
  === BLOCK LINK ===
    0x1296
=== CODE BLOCK END ===

=== CODE BLOCK ADDRESS 0x1296 ===
  0x1296	nop    	dword ptr [eax + eax]
  0x129b	test   	eax, eax
  0x129d	jne    	0x34e4
  === BLOCK LINK ===
    0x12a3
    0x34e4
=== CODE BLOCK END ===

=== CODE BLOCK ADDRESS 0x12a3 ===
  0x12a3	dec    	eax
  0x12a4	mov    	eax, dword ptr [esp + 0x48]
  0x12a8	dec    	eax
  0x12a9	lea    	ecx, [0x120d1]
  0x12af	dec    	eax
  === BLOCK LINK ===
    0x12b0
=== CODE BLOCK END ===

=== CODE BLOCK ADDRESS 0x12b0 ===
  0x12b0	mov    	dword ptr [eax], ecx
  0x12b2	dec    	eax
  0x12b3	mov    	eax, dword ptr [esp + 0x48]
  0x12b7	dec    	eax
  0x12b8	mov    	ecx, dword ptr [0x151b2]
  === BLOCK LINK ===
    0x12be
=== CODE BLOCK END ===

=== CODE BLOCK ADDRESS 0x12be ===
  0x12be	mov    	dword ptr [eax + 0x10], 0x2000
  0x12c5	dec    	eax
  0x12c6	mov    	eax, dword ptr [esp + 0x48]
  0x12ca	inc    	esp
  0x12cb	mov    	dword ptr [eax + 0x14], esp
  === BLOCK LINK ===
    0x12ce
=== CODE BLOCK END ===

=== CODE BLOCK ADDRESS 0x12ce ===
  0x12ce	dec    	eax
  0x12cf	mov    	eax, dword ptr [esp + 0x48]
  0x12d3	dec    	esp
  0x12d4	mov    	dword ptr [eax + 8], esp
  0x12d7	dec    	eax
  === BLOCK LINK ===
    0x12d8
=== CODE BLOCK END ===

=== CODE BLOCK ADDRESS 0x12d8 ===
  0x12d8	test   	ecx, ecx
  0x12da	jne    	0x34f8
  === BLOCK LINK ===
    0x12e0
    0x34f8
=== CODE BLOCK END ===

=== CODE BLOCK ADDRESS 0x12e0 ===
  0x12e0	dec    	eax
  0x12e1	mov    	eax, dword ptr [esp + 0x48]
  0x12e5	dec    	eax
  0x12e6	mov    	dword ptr [0x15184], eax
  0x12ec	dec    	eax
  === BLOCK LINK ===
    0x12ed
=== CODE BLOCK END ===

=== CODE BLOCK ADDRESS 0x12ed ===
  0x12ed	lea    	edx, [esp + 0x50]
  0x12f1	mov    	ecx, 0x18
  0x12f6	dec    	eax
  0x12f7	call   	dword ptr [0xa2c3]
  === BLOCK LINK ===
    0x12fd
=== CODE BLOCK END ===

=== CODE BLOCK ADDRESS 0x12fd ===
  0x12fd	nop    	dword ptr [eax + eax]
  0x1302	test   	eax, eax
  0x1304	jne    	0x351b
  === BLOCK LINK ===
    0x130a
    0x351b
=== CODE BLOCK END ===

=== CODE BLOCK ADDRESS 0x130a ===
  0x130a	dec    	eax
  0x130b	mov    	eax, dword ptr [esp + 0x50]
  0x130f	dec    	eax
  0x1310	lea    	ecx, [0x1406a]
  0x1316	dec    	eax
  === BLOCK LINK ===
    0x1317
=== CODE BLOCK END ===

=== CODE BLOCK ADDRESS 0x1317 ===
  0x1317	mov    	dword ptr [eax], ecx
  0x1319	dec    	eax
  0x131a	mov    	eax, dword ptr [esp + 0x50]
  0x131e	dec    	eax
  0x131f	mov    	ecx, dword ptr [0x1514b]
  === BLOCK LINK ===
    0x1325
=== CODE BLOCK END ===

=== CODE BLOCK ADDRESS 0x1325 ===
  0x1325	mov    	dword ptr [eax + 0x10], 0x1000
  0x132c	dec    	eax
  0x132d	mov    	eax, dword ptr [esp + 0x50]
  0x1331	inc    	esp
  0x1332	mov    	dword ptr [eax + 0x14], esp
  === BLOCK LINK ===
    0x1335
=== CODE BLOCK END ===

=== CODE BLOCK ADDRESS 0x1335 ===
  0x1335	dec    	eax
  0x1336	mov    	eax, dword ptr [esp + 0x50]
  0x133a	dec    	esp
  0x133b	mov    	dword ptr [eax + 8], esp
  0x133e	dec    	eax
  === BLOCK LINK ===
    0x133f
=== CODE BLOCK END ===

=== CODE BLOCK ADDRESS 0x133f ===
  0x133f	test   	ecx, ecx
  0x1341	je     	0x352f
  === BLOCK LINK ===
    0x1347
    0x352f
=== CODE BLOCK END ===

=== CODE BLOCK ADDRESS 0x1347 ===
  0x1347	dec    	eax
  0x1348	mov    	eax, dword ptr [ecx + 8]
  0x134b	dec    	eax
  0x134c	test   	eax, eax
  0x134e	jne    	0x3540
  === BLOCK LINK ===
    0x1354
    0x3540
=== CODE BLOCK END ===

=== CODE BLOCK ADDRESS 0x1354 ===
  0x1354	dec    	eax
  0x1355	mov    	eax, dword ptr [esp + 0x50]
  0x1359	dec    	eax
  0x135a	mov    	dword ptr [ecx + 8], eax
  0x135d	xor    	ecx, ecx
  === BLOCK LINK ===
    0x135f
=== CODE BLOCK END ===

=== CODE BLOCK ADDRESS 0x135f ===
  0x135f	call   	0x2f08
  === BLOCK LINK ===
    0x1364
    0x2f08
=== CODE BLOCK END ===

=== CODE BLOCK ADDRESS 0x1364 ===
  0x1364	dec    	eax
  0x1365	mov    	ecx, eax
  0x1367	dec    	eax
  0x1368	call   	dword ptr [0xa152]
  === BLOCK LINK ===
    0x136e
=== CODE BLOCK END ===

=== CODE BLOCK ADDRESS 0x136e ===
  0x136e	nop    	dword ptr [eax + eax]
  0x1373	mov    	ecx, eax
  0x1375	mov    	edx, 0x4000
  0x137a	dec    	eax
  0x137b	call   	dword ptr [0xa15f]
  === BLOCK LINK ===
    0x1381
=== CODE BLOCK END ===

=== CODE BLOCK ADDRESS 0x1381 ===
  0x1381	nop    	dword ptr [eax + eax]
  0x1386	dec    	eax
  0x1387	lea    	ecx, [0xd913]
  0x138d	dec    	eax
  0x138e	mov    	dword ptr [0xd904], ecx
  === BLOCK LINK ===
    0x1394
=== CODE BLOCK END ===

=== CODE BLOCK ADDRESS 0x1394 ===
  0x1394	dec    	eax
  0x1395	mov    	dword ptr [0xdfbd], ecx
  0x139b	call   	0x1af0
  === BLOCK LINK ===
    0x13a0
    0x1af0
=== CODE BLOCK END ===

=== CODE BLOCK ADDRESS 0x13a0 ===
  0x13a0	mov    	eax, dword ptr [0xd902]
  0x13a6	dec    	eax
  0x13a7	lea    	edx, [0xdb73]
  0x13ad	mov    	dword ptr [0x16325], eax
  0x13b3	inc    	ebp
  === BLOCK LINK ===
    0x13b4
=== CODE BLOCK END ===

=== CODE BLOCK ADDRESS 0x13b4 ===
  0x13b4	xor    	eax, eax
  0x13b6	dec    	eax
  0x13b7	mov    	eax, dword ptr [0xd8e3]
  0x13bd	xor    	ecx, ecx
  0x13bf	dec    	eax
  === BLOCK LINK ===
    0x13c0
=== CODE BLOCK END ===

=== CODE BLOCK ADDRESS 0x13c0 ===
  0x13c0	mov    	dword ptr [0x1630a], eax
  0x13c6	call   	0x15e0
  === BLOCK LINK ===
    0x13cb
    0x15e0
=== CODE BLOCK END ===

=== CODE BLOCK ADDRESS 0x13cb ===
  0x13cb	xor    	ecx, ecx
  0x13cd	call   	0x8378
  === BLOCK LINK ===
    0x13d2
    0x8378
=== CODE BLOCK END ===

=== CODE BLOCK ADDRESS 0x13d2 ===
  0x13d2	int3   	
  0x13d3	int3   	
  0x13d4	int3   	
  0x13d5	int3   	
  0x13d6	int3   	
  === BLOCK LINK ===
    0x13d7
=== CODE BLOCK END ===

=== CODE BLOCK ADDRESS 0x13d7 ===
  0x13d7	int3   	
  0x13d8	int3   	
  0x13d9	int3   	
  0x13da	int3   	
  0x13db	int3   	
  === BLOCK LINK ===
    0x13dc
=== CODE BLOCK END ===

=== CODE BLOCK ADDRESS 0x13dc ===
  0x13dc	int3   	
  0x13dd	int3   	
  0x13de	int3   	
  0x13df	int3   	
  0x13e0	dec    	eax
  === BLOCK LINK ===
    0x13e1
=== CODE BLOCK END ===

=== CODE BLOCK ADDRESS 0x13e1 ===
  0x13e1	mov    	dword ptr [esp + 8], ebx
  0x13e5	dec    	eax
  0x13e6	mov    	dword ptr [esp + 0x10], ebp
  0x13ea	dec    	eax
  0x13eb	mov    	dword ptr [esp + 0x18], esi
  === BLOCK LINK ===
    0x13ef
=== CODE BLOCK END ===

=== CODE BLOCK ADDRESS 0x13ef ===
  0x13ef	dec    	eax
  0x13f0	mov    	dword ptr [esp + 0x20], edi
  0x13f4	inc    	ecx
  0x13f5	push   	esi
  0x13f6	inc    	ecx
  === BLOCK LINK ===
    0x13f7
=== CODE BLOCK END ===

=== CODE BLOCK ADDRESS 0x13f7 ===
  0x13f7	push   	edi
  0x13f8	dec    	eax
  0x13f9	arpl   	word ptr [esp + 0x40], si
  0x13fd	inc    	ebp
  0x13fe	xor    	edi, edi
  === BLOCK LINK ===
    0x1400
=== CODE BLOCK END ===

=== CODE BLOCK ADDRESS 0x1400 ===
  0x1400	dec    	esp
  0x1401	mov    	edx, dword ptr [esp + 0x38]
  0x1405	dec    	ecx
  0x1406	mov    	edi, ecx
  0x1408	dec    	eax
  === BLOCK LINK ===
    0x1409
=== CODE BLOCK END ===

=== CODE BLOCK ADDRESS 0x1409 ===
  0x1409	shr    	esi, 3
  0x140c	dec    	eax
  0x140d	mov    	ebx, edx
  0x140f	dec    	eax
  0x1410	dec    	esi
  === BLOCK LINK ===
    0x1412
=== CODE BLOCK END ===

=== CODE BLOCK ADDRESS 0x1412 ===
  0x1412	inc    	ecx
  0x1413	mov    	dword ptr [ecx], 1
  0x1419	inc    	ebp
  0x141a	mov    	dword ptr [edx], edi
  0x141c	dec    	eax
  === BLOCK LINK ===
    0x141d
=== CODE BLOCK END ===

=== CODE BLOCK ADDRESS 0x141d ===
  0x141d	lea    	esi, [edx + esi*8]
  0x1420	dec    	eax
  0x1421	test   	edx, edx
  0x1423	je     	0x1431
  === BLOCK LINK ===
    0x1425
    0x1431
=== CODE BLOCK END ===

=== CODE BLOCK ADDRESS 0x1425 ===
  0x1425	dec    	eax
  0x1426	cmp    	edx, esi
  0x1428	jae    	0x1431
  === BLOCK LINK ===
    0x142a
    0x1431
=== CODE BLOCK END ===

=== CODE BLOCK ADDRESS 0x142a ===
  0x142a	dec    	esp
  0x142b	mov    	dword ptr [edx], eax
  0x142d	dec    	eax
  0x142e	add    	ebx, 8
  0x1431	cmp    	word ptr [ecx], 0x22
  === BLOCK LINK ===
    0x1435
=== CODE BLOCK END ===

=== CODE BLOCK ADDRESS 0x1435 ===
  0x1435	je     	0x1581
  === BLOCK LINK ===
    0x143b
    0x1581
=== CODE BLOCK END ===

=== CODE BLOCK ADDRESS 0x143b ===
  0x143b	inc    	ecx
  0x143c	add    	dword ptr [edx], 2
  0x143f	dec    	eax
  0x1440	mov    	edx, ecx
  0x1442	dec    	ebp
  === BLOCK LINK ===
    0x1443
=== CODE BLOCK END ===

=== CODE BLOCK ADDRESS 0x1443 ===
  0x1443	test   	eax, eax
  0x1445	je     	0x1452
  === BLOCK LINK ===
    0x1447
    0x1452
=== CODE BLOCK END ===

=== CODE BLOCK ADDRESS 0x1447 ===
  0x1447	movzx  	eax, word ptr [ecx]
  0x144a	inc    	cx
  0x144c	mov    	dword ptr [eax], eax
  0x144e	dec    	ecx
  0x144f	add    	eax, 2
  === BLOCK LINK ===
    0x1452
=== CODE BLOCK END ===

=== CODE BLOCK ADDRESS 0x1452 ===
  0x1452	movzx  	eax, word ptr [ecx]
  0x1455	dec    	eax
  0x1456	add    	ecx, 2
  0x1459	cmp    	ax, 0x20
  0x145d	ja     	0x143b
  === BLOCK LINK ===
    0x145f
    0x143b
=== CODE BLOCK END ===

=== CODE BLOCK ADDRESS 0x145f ===
  0x145f	test   	ax, ax
  0x1462	je     	0x3552
  === BLOCK LINK ===
    0x1468
    0x3552
=== CODE BLOCK END ===

=== CODE BLOCK ADDRESS 0x1468 ===
  0x1468	dec    	ebp
  0x1469	test   	eax, eax
  0x146b	je     	0x1486
  === BLOCK LINK ===
    0x146d
    0x1486
=== CODE BLOCK END ===

=== CODE BLOCK ADDRESS 0x146d ===
  0x146d	inc    	bp
  0x146f	mov    	dword ptr [eax - 2], edi
  0x1472	jmp    	0x1486
  === BLOCK LINK ===
    0x1474
    0x1486
=== CODE BLOCK END ===

=== CODE BLOCK ADDRESS 0x1474 ===
  0x1474	inc    	bp
  0x1476	mov    	dword ptr [eax], edi
  0x1478	dec    	ecx
  0x1479	add    	eax, 2
  0x147c	cmp    	word ptr [ecx], 0x22
  === BLOCK LINK ===
    0x1480
=== CODE BLOCK END ===

=== CODE BLOCK ADDRESS 0x1480 ===
  0x1480	jne    	0x1486
  === BLOCK LINK ===
    0x1482
    0x1486
=== CODE BLOCK END ===

=== CODE BLOCK ADDRESS 0x1482 ===
  0x1482	dec    	eax
  0x1483	add    	ecx, 2
  === BLOCK LINK ===
    0x1486
=== CODE BLOCK END ===

=== CODE BLOCK ADDRESS 0x148e ===
  0x148e	inc    	ecx
  0x148f	mov    	esi, 0x5c
  === BLOCK LINK ===
    0x1494
=== CODE BLOCK END ===

=== CODE BLOCK ADDRESS 0x14a0 ===
  0x14a0	cmp    	ax, 0x20
  0x14a4	je     	0x155f
  === BLOCK LINK ===
    0x14aa
    0x155f
=== CODE BLOCK END ===

=== CODE BLOCK ADDRESS 0x14aa ===
  0x14aa	cmp    	ax, 9
  0x14ae	je     	0x155f
  === BLOCK LINK ===
    0x14b4
    0x155f
=== CODE BLOCK END ===

=== CODE BLOCK ADDRESS 0x14b4 ===
  0x14b4	test   	ax, ax
  0x14b7	je     	0x1545
  === BLOCK LINK ===
    0x14bd
    0x1545
=== CODE BLOCK END ===

=== CODE BLOCK ADDRESS 0x14bd ===
  0x14bd	dec    	eax
  0x14be	test   	ebx, ebx
  0x14c0	jne    	0x156c
  === BLOCK LINK ===
    0x14c6
    0x156c
=== CODE BLOCK END ===

=== CODE BLOCK ADDRESS 0x14c6 ===
  0x14c6	inc    	dword ptr [edi]
  0x14c8	nop    	dword ptr [eax + eax]
  === BLOCK LINK ===
    0x14d0
=== CODE BLOCK END ===

=== CODE BLOCK ADDRESS 0x14d9 ===
  0x14d9	inc    	ebp
  0x14da	movzx  	ecx, di
  0x14dd	inc    	cx
  0x14df	cmp    	eax, esi
  0x14e1	je     	0x355a
  === BLOCK LINK ===
    0x14e7
    0x355a
=== CODE BLOCK END ===

=== CODE BLOCK ADDRESS 0x14e7 ===
  0x14e7	cmp    	ax, 0x22
  0x14eb	je     	0x3571
  === BLOCK LINK ===
    0x14f1
    0x3571
=== CODE BLOCK END ===

=== CODE BLOCK ADDRESS 0x14f1 ===
  0x14f1	inc    	bp
  0x14f3	test   	ecx, ecx
  0x14f5	jne    	0x35a1
  === BLOCK LINK ===
    0x14fb
    0x35a1
=== CODE BLOCK END ===

=== CODE BLOCK ADDRESS 0x14fb ===
  0x14fb	movzx  	eax, word ptr [ecx]
  0x14fe	test   	ax, ax
  0x1501	je     	0x152f
  === BLOCK LINK ===
    0x1503
    0x152f
=== CODE BLOCK END ===

=== CODE BLOCK ADDRESS 0x1503 ===
  0x1503	test   	edx, edx
  0x1505	jne    	0x1513
  === BLOCK LINK ===
    0x1507
    0x1513
=== CODE BLOCK END ===

=== CODE BLOCK ADDRESS 0x1507 ===
  0x1507	cmp    	ax, 0x20
  0x150b	je     	0x152f
  === BLOCK LINK ===
    0x150d
    0x152f
=== CODE BLOCK END ===

=== CODE BLOCK ADDRESS 0x150d ===
  0x150d	cmp    	ax, 9
  0x1511	je     	0x152f
  === BLOCK LINK ===
    0x1513
    0x152f
=== CODE BLOCK END ===

=== CODE BLOCK ADDRESS 0x1513 ===
  0x1513	inc    	ebp
  0x1514	test   	ebx, ebx
  0x1516	je     	0x1529
  === BLOCK LINK ===
    0x1518
    0x1529
=== CODE BLOCK END ===

=== CODE BLOCK ADDRESS 0x1518 ===
  0x1518	dec    	ebp
  0x1519	test   	eax, eax
  0x151b	je     	0x1525
  === BLOCK LINK ===
    0x151d
    0x1525
=== CODE BLOCK END ===

=== CODE BLOCK ADDRESS 0x151d ===
  0x151d	inc    	cx
  0x151f	mov    	dword ptr [eax], eax
  0x1521	dec    	ecx
  0x1522	add    	eax, 2
  0x1525	inc    	ecx
  === BLOCK LINK ===
    0x1526
=== CODE BLOCK END ===

=== CODE BLOCK ADDRESS 0x1526 ===
  0x1526	add    	dword ptr [edx], 2
  === BLOCK LINK ===
    0x1529
    0x14d0
=== CODE BLOCK END ===

=== CODE BLOCK ADDRESS 0x152f ===
  0x152f	dec    	ebp
  0x1530	test   	eax, eax
  0x1532	je     	0x153c
  === BLOCK LINK ===
    0x1534
    0x153c
=== CODE BLOCK END ===

=== CODE BLOCK ADDRESS 0x1534 ===
  0x1534	inc    	bp
  0x1536	mov    	dword ptr [eax], edi
  0x1538	dec    	ecx
  0x1539	add    	eax, 2
  0x153c	inc    	ecx
  === BLOCK LINK ===
    0x153d
=== CODE BLOCK END ===

=== CODE BLOCK ADDRESS 0x153d ===
  0x153d	add    	dword ptr [edx], 2
  0x1540	jmp    	0x1494
  === BLOCK LINK ===
    0x1545
    0x1494
=== CODE BLOCK END ===

=== CODE BLOCK ADDRESS 0x1545 ===
  0x1545	dec    	eax
  0x1546	mov    	ebx, dword ptr [esp + 0x18]
  0x154a	dec    	eax
  0x154b	mov    	ebp, dword ptr [esp + 0x20]
  0x154f	dec    	eax
  === BLOCK LINK ===
    0x1550
=== CODE BLOCK END ===

=== CODE BLOCK ADDRESS 0x1550 ===
  0x1550	mov    	esi, dword ptr [esp + 0x28]
  0x1554	dec    	eax
  0x1555	mov    	edi, dword ptr [esp + 0x30]
  0x1559	inc    	ecx
  0x155a	pop    	edi
  === BLOCK LINK ===
    0x155b
=== CODE BLOCK END ===

=== CODE BLOCK ADDRESS 0x155b ===
  0x155b	inc    	ecx
  0x155c	pop    	esi
  0x155d	ret    	
  0x155e	int3   	
  0x155f	movzx  	eax, word ptr [ecx + 2]
  === BLOCK LINK ===
    0x1563
=== CODE BLOCK END ===

=== CODE BLOCK ADDRESS 0x3300 ===
=== CODE BLOCK END ===

=== CODE BLOCK ADDRESS 0x1563 ===
  0x1563	dec    	eax
  0x1564	add    	ecx, 2
  0x1567	jmp    	0x14a0
  === BLOCK LINK ===
    0x156c
    0x14a0
=== CODE BLOCK END ===

=== CODE BLOCK ADDRESS 0x156c ===
  0x156c	dec    	eax
  0x156d	cmp    	ebx, esi
  0x156f	jae    	0x14c6
  === BLOCK LINK ===
    0x1575
    0x14c6
=== CODE BLOCK END ===

=== CODE BLOCK ADDRESS 0x1575 ===
  0x1575	dec    	esp
  0x1576	mov    	dword ptr [ebx], eax
  0x1578	dec    	eax
  0x1579	add    	ebx, 8
  0x157c	jmp    	0x14c6
  === BLOCK LINK ===
    0x1581
    0x14c6
=== CODE BLOCK END ===

=== CODE BLOCK ADDRESS 0x1581 ===
  0x1581	movzx  	edx, word ptr [ecx + 2]
  0x1585	dec    	eax
  0x1586	add    	ecx, 2
  0x1589	inc    	ecx
  0x158a	mov    	eax, edi
  === BLOCK LINK ===
    0x158c
=== CODE BLOCK END ===

=== CODE BLOCK ADDRESS 0x158c ===
  0x158c	cmp    	dx, 0x22
  0x1590	je     	0x15bb
  === BLOCK LINK ===
    0x1592
    0x15bb
=== CODE BLOCK END ===

=== CODE BLOCK ADDRESS 0x1592 ===
  0x1592	test   	dx, dx
  0x1595	je     	0x15bb
  === BLOCK LINK ===
    0x1597
    0x15bb
=== CODE BLOCK END ===

=== CODE BLOCK ADDRESS 0x1597 ===
  0x1597	inc    	ecx
  0x1598	mov    	eax, dword ptr [edx]
  0x159a	add    	eax, 2
  0x159d	inc    	ecx
  0x159e	mov    	dword ptr [edx], eax
  === BLOCK LINK ===
    0x15a0
=== CODE BLOCK END ===

=== CODE BLOCK ADDRESS 0x15a0 ===
  0x15a0	dec    	ebp
  0x15a1	test   	eax, eax
  0x15a3	je     	0x15ad
  === BLOCK LINK ===
    0x15a5
    0x15ad
=== CODE BLOCK END ===

=== CODE BLOCK ADDRESS 0x15a5 ===
  0x15a5	inc    	cx
  0x15a7	mov    	dword ptr [eax], edx
  0x15a9	dec    	ecx
  0x15aa	add    	eax, 2
  0x15ad	movzx  	edx, word ptr [ecx + 2]
  === BLOCK LINK ===
    0x15b1
=== CODE BLOCK END ===

=== CODE BLOCK ADDRESS 0x15b1 ===
  0x15b1	dec    	eax
  0x15b2	add    	ecx, 2
  0x15b5	cmp    	dx, 0x22
  0x15b9	jne    	0x1592
  === BLOCK LINK ===
    0x15bb
    0x1592
=== CODE BLOCK END ===

=== CODE BLOCK ADDRESS 0x15bb ===
  0x15bb	add    	eax, 2
  0x15be	inc    	ecx
  0x15bf	mov    	dword ptr [edx], eax
  0x15c1	dec    	ebp
  0x15c2	test   	eax, eax
  === BLOCK LINK ===
    0x15c4
=== CODE BLOCK END ===

=== CODE BLOCK ADDRESS 0x15c4 ===
  0x15c4	je     	0x147c
  === BLOCK LINK ===
    0x15ca
    0x147c
=== CODE BLOCK END ===

=== CODE BLOCK ADDRESS 0x15ca ===
  0x15ca	jmp    	0x1474
  === BLOCK LINK ===
    0x15cf
    0x1474
=== CODE BLOCK END ===

=== CODE BLOCK ADDRESS 0x15cf ===
  0x15cf	int3   	
  0x15d0	int3   	
  0x15d1	int3   	
  0x15d2	int3   	
  0x15d3	int3   	
  === BLOCK LINK ===
    0x15d4
=== CODE BLOCK END ===

=== CODE BLOCK ADDRESS 0x15d4 ===
  0x15d4	int3   	
  0x15d5	int3   	
  0x15d6	int3   	
  0x15d7	int3   	
  0x15d8	int3   	
  === BLOCK LINK ===
    0x15d9
=== CODE BLOCK END ===

=== CODE BLOCK ADDRESS 0x15d9 ===
  0x15d9	int3   	
  0x15da	int3   	
  0x15db	int3   	
  0x15dc	int3   	
  0x15dd	int3   	
  === BLOCK LINK ===
    0x15de
=== CODE BLOCK END ===

=== CODE BLOCK ADDRESS 0x15de ===
  0x15de	int3   	
  0x15df	int3   	
  === BLOCK LINK ===
    0x15e0
=== CODE BLOCK END ===

=== CODE BLOCK ADDRESS 0x15e6 ===
  0x15e6	push   	esi
  0x15e7	push   	edi
  0x15e8	inc    	ecx
  0x15e9	push   	esp
  0x15ea	inc    	ecx
  === BLOCK LINK ===
    0x15eb
=== CODE BLOCK END ===

=== CODE BLOCK ADDRESS 0x15eb ===
  0x15eb	push   	ebp
  0x15ec	inc    	ecx
  0x15ed	push   	esi
  0x15ee	inc    	ecx
  0x15ef	push   	edi
  === BLOCK LINK ===
    0x15f0
=== CODE BLOCK END ===

=== CODE BLOCK ADDRESS 0x15f0 ===
  0x15f0	dec    	eax
  0x15f1	sub    	esp, 0xe0
  0x15f7	dec    	ecx
  0x15f8	arpl   	ax, bx
  0x15fa	dec    	esp
  === BLOCK LINK ===
    0x15fb
=== CODE BLOCK END ===

=== CODE BLOCK ADDRESS 0x15fb ===
  0x15fb	lea    	ecx, [0xffffe9ff]
  0x1601	dec    	eax
  0x1602	mov    	edi, edx
  0x1604	mov    	ebp, ecx
  0x1606	inc    	esp
  === BLOCK LINK ===
    0x1607
=== CODE BLOCK END ===

=== CODE BLOCK ADDRESS 0x1607 ===
  0x1607	mov    	ebp, ebx
  0x1609	dec    	esp
  0x160a	mov    	esi, edx
  0x160c	dec    	esp
  0x160d	mov    	esp, ebx
  === BLOCK LINK ===
    0x160f
=== CODE BLOCK END ===

=== CODE BLOCK ADDRESS 0x160f ===
  0x160f	dec    	esp
  0x1610	mov    	edi, ebx
  0x1612	dec    	ecx
  0x1613	mov    	dword ptr [ecx + ebx*8 + 0xede0], 1
  0x161e	dec    	esp
  === BLOCK LINK ===
    0x161f
=== CODE BLOCK END ===

=== CODE BLOCK ADDRESS 0x161f ===
  0x161f	lea    	eax, [0xd7bb]
  0x1625	dec    	eax
  0x1626	lea    	edx, [0xdd20]
  0x162c	dec    	eax
  0x162d	arpl   	bp, cx
  === BLOCK LINK ===
    0x162f
=== CODE BLOCK END ===

=== CODE BLOCK ADDRESS 0x162f ===
  0x162f	dec    	eax
  0x1630	lea    	esi, [ecx + ecx]
  0x1633	inc    	edx
  0x1634	movzx  	eax, word ptr [esi + ecx + 0xbc50]
  0x163c	cmp    	eax, 1
  === BLOCK LINK ===
    0x163f
=== CODE BLOCK END ===

=== CODE BLOCK ADDRESS 0x163f ===
  0x163f	je     	0x16ba
  === BLOCK LINK ===
    0x1641
    0x16ba
=== CODE BLOCK END ===

=== CODE BLOCK ADDRESS 0x1641 ===
  0x1641	cmp    	eax, 3
  0x1644	je     	0x1718
  === BLOCK LINK ===
    0x164a
    0x1718
=== CODE BLOCK END ===

=== CODE BLOCK ADDRESS 0x164a ===
  0x164a	cmp    	eax, 2
  0x164d	jne    	0x17a9
  === BLOCK LINK ===
    0x1653
    0x17a9
=== CODE BLOCK END ===

=== CODE BLOCK ADDRESS 0x1653 ===
  0x1653	cmp    	ebx, 0x27
  0x1656	jae    	0x38a0
  === BLOCK LINK ===
    0x165c
    0x38a0
=== CODE BLOCK END ===

=== CODE BLOCK ADDRESS 0x165c ===
  0x165c	test   	ebx, ebx
  0x165e	js     	0x170a
  === BLOCK LINK ===
    0x1664
    0x170a
=== CODE BLOCK END ===

=== CODE BLOCK ADDRESS 0x1664 ===
  0x1664	inc    	edx
  0x1665	movsx  	ecx, word ptr [esi + ecx + 0xbb50]
  0x166d	inc    	esp
  0x166e	mov    	eax, ebx
  0x1670	dec    	eax
  === BLOCK LINK ===
    0x1671
=== CODE BLOCK END ===

=== CODE BLOCK ADDRESS 0x1671 ===
  0x1671	mov    	edx, edi
  0x1673	call   	0x15e0
  === BLOCK LINK ===
    0x1678
    0x15e0
=== CODE BLOCK END ===

=== CODE BLOCK ADDRESS 0x1678 ===
  0x1678	dec    	eax
  0x1679	arpl   	bx, cx
  0x167b	dec    	esp
  0x167c	lea    	ecx, [0xffffe97e]
  0x1682	dec    	ecx
  === BLOCK LINK ===
    0x1683
=== CODE BLOCK END ===

=== CODE BLOCK ADDRESS 0x1683 ===
  0x1683	mov    	dword ptr [ecx + ecx*8 + 0xede0], eax
  0x168a	dec    	eax
  0x168b	test   	eax, eax
  0x168d	jne    	0x38b2
  === BLOCK LINK ===
    0x1693
    0x38b2
=== CODE BLOCK END ===

=== CODE BLOCK ADDRESS 0x1693 ===
  0x1693	dec    	ecx
  0x1694	cmp    	edi, esi
  0x1696	jne    	0x17f7
  === BLOCK LINK ===
    0x169c
    0x17f7
=== CODE BLOCK END ===

=== CODE BLOCK ADDRESS 0x169c ===
  0x169c	xor    	eax, eax
  0x169e	dec    	eax
  0x169f	mov    	ebx, dword ptr [esp + 0x130]
  0x16a6	dec    	eax
  0x16a7	add    	esp, 0xe0
  === BLOCK LINK ===
    0x16ad
=== CODE BLOCK END ===

=== CODE BLOCK ADDRESS 0x16ad ===
  0x16ad	inc    	ecx
  0x16ae	pop    	edi
  0x16af	inc    	ecx
  0x16b0	pop    	esi
  0x16b1	inc    	ecx
  === BLOCK LINK ===
    0x16b2
=== CODE BLOCK END ===

=== CODE BLOCK ADDRESS 0x16b2 ===
  0x16b2	pop    	ebp
  0x16b3	inc    	ecx
  0x16b4	pop    	esp
  0x16b5	pop    	edi
  0x16b6	pop    	esi
  === BLOCK LINK ===
    0x16b7
=== CODE BLOCK END ===

=== CODE BLOCK ADDRESS 0x16b7 ===
  0x16b7	pop    	ebp
  0x16b8	ret    	
  0x16b9	int3   	
  === BLOCK LINK ===
    0x16ba
=== CODE BLOCK END ===

=== CODE BLOCK ADDRESS 0x10f1 ===
  0x10f1	dec    	eax
  0x10f2	lea    	edx, [esp + 0x60]
  0x10f6	xor    	ecx, ecx
  0x10f8	dec    	eax
  === BLOCK LINK ===
    0x10f9
=== CODE BLOCK END ===

=== CODE BLOCK ADDRESS 0x16c3 ===
  0x16c3	cmp    	ax, 3
  0x16c7	je     	0x186e
  === BLOCK LINK ===
    0x16cd
    0x186e
=== CODE BLOCK END ===

=== CODE BLOCK ADDRESS 0x16cd ===
  0x16cd	cmp    	ax, 4
  0x16d1	je     	0x186e
  === BLOCK LINK ===
    0x16d7
    0x186e
=== CODE BLOCK END ===

=== CODE BLOCK ADDRESS 0x16d7 ===
  0x16d7	dec    	eax
  0x16d8	cmp    	edi, edx
  0x16da	jae    	0x38e6
  === BLOCK LINK ===
    0x16e0
    0x38e6
=== CODE BLOCK END ===

=== CODE BLOCK ADDRESS 0x16e0 ===
  0x16e0	inc    	edx
  0x16e1	movsx  	eax, word ptr [esi + ecx + 0xbb50]
  0x16e9	dec    	eax
  0x16ea	lea    	ecx, [0xd5b0]
  0x16f0	mov    	dword ptr [edi], eax
  === BLOCK LINK ===
    0x16f2
=== CODE BLOCK END ===

=== CODE BLOCK ADDRESS 0x16f2 ===
  0x16f2	dec    	eax
  0x16f3	mov    	eax, dword ptr [0xd59f]
  0x16f9	dec    	eax
  0x16fa	sub    	eax, ecx
  0x16fc	mov    	dword ptr [edi + 4], ebx
  === BLOCK LINK ===
    0x16ff
=== CODE BLOCK END ===

=== CODE BLOCK ADDRESS 0x16ff ===
  0x16ff	dec    	eax
  0x1700	sar    	eax, 4
  0x1703	mov    	dword ptr [edi + 8], eax
  0x1706	dec    	eax
  0x1707	add    	edi, 0xc
  === BLOCK LINK ===
    0x170a
=== CODE BLOCK END ===

=== CODE BLOCK ADDRESS 0x170a ===
  0x170a	inc    	ebp
  0x170c	dec    	esp
  0x170d	lea    	ecx, [0xffffe8ed]
  0x1713	jmp    	0x161e
  === BLOCK LINK ===
    0x1718
    0x161e
=== CODE BLOCK END ===

=== CODE BLOCK ADDRESS 0x1718 ===
  0x1718	cmp    	ebx, 0x28
  0x171b	jae    	0x38b9
  === BLOCK LINK ===
    0x1721
    0x38b9
=== CODE BLOCK END ===

=== CODE BLOCK ADDRESS 0x1721 ===
  0x1721	cmp    	ebx, 0x27
  0x1724	jae    	0x173e
  === BLOCK LINK ===
    0x1726
    0x173e
=== CODE BLOCK END ===

=== CODE BLOCK ADDRESS 0x1726 ===
  0x1726	test   	ebx, ebx
  0x1728	js     	0x173e
  === BLOCK LINK ===
    0x172a
    0x173e
=== CODE BLOCK END ===

=== CODE BLOCK ADDRESS 0x172a ===
  0x172a	dec    	eax
  0x172b	mov    	eax, dword ptr [0x15f9f]
  0x1731	dec    	eax
  0x1732	arpl   	bx, cx
  0x1734	inc    	ebx
  === BLOCK LINK ===
    0x1736
=== CODE BLOCK END ===

=== CODE BLOCK ADDRESS 0x1736 ===
  0x1736	dec    	ecx
  0x1737	mov    	dword ptr [ecx + ecx*8 + 0xede0], eax
  === BLOCK LINK ===
    0x173e
=== CODE BLOCK END ===

=== CODE BLOCK ADDRESS 0x174e ===
  0x174e	jne    	0x1693
  === BLOCK LINK ===
    0x1754
    0x1693
=== CODE BLOCK END ===

=== CODE BLOCK ADDRESS 0x1754 ===
  0x1754	dec    	eax
  0x1755	mov    	esi, dword ptr [0xd53d]
  0x175b	dec    	eax
  0x175c	add    	esi, 0x10
  0x175f	dec    	eax
  === BLOCK LINK ===
    0x1760
=== CODE BLOCK END ===

=== CODE BLOCK ADDRESS 0x1760 ===
  0x1760	mov    	dword ptr [0xd532], esi
  0x1766	dec    	ecx
  0x1767	cmp    	esi, eax
  0x1769	jae    	0x3625
  === BLOCK LINK ===
    0x176f
    0x3625
=== CODE BLOCK END ===

=== CODE BLOCK ADDRESS 0x176f ===
  0x176f	dec    	eax
  0x1770	cmp    	esi, dword ptr [0xdbe2]
  0x1776	jbe    	0x1788
  === BLOCK LINK ===
    0x1778
    0x1788
=== CODE BLOCK END ===

=== CODE BLOCK ADDRESS 0x1778 ===
  0x1778	dec    	eax
  0x1779	mov    	ecx, esi
  0x177b	call   	0x1af0
  === BLOCK LINK ===
    0x1780
    0x1af0
=== CODE BLOCK END ===

=== CODE BLOCK ADDRESS 0x1780 ===
  0x1780	dec    	eax
  0x1781	add    	dword ptr [0xdbd0], 0x10
  === BLOCK LINK ===
    0x1788
=== CODE BLOCK END ===

=== CODE BLOCK ADDRESS 0x1792 ===
  0x1792	mov    	dword ptr [0x15f40], eax
  0x1798	inc    	ebp
  0x179a	dec    	eax
  0x179b	mov    	eax, dword ptr [esi]
  0x179d	dec    	eax
  === BLOCK LINK ===
    0x179e
=== CODE BLOCK END ===

=== CODE BLOCK ADDRESS 0x179e ===
  0x179e	mov    	dword ptr [0x15f2c], eax
  0x17a4	jmp    	0x161e
  === BLOCK LINK ===
    0x17a9
    0x161e
=== CODE BLOCK END ===

=== CODE BLOCK ADDRESS 0x17a9 ===
  0x17a9	add    	eax, -4
  0x17ac	cmp    	eax, 7
  0x17af	ja     	0x170a
  === BLOCK LINK ===
    0x17b5
    0x170a
=== CODE BLOCK END ===

=== CODE BLOCK ADDRESS 0x17b5 ===
  0x17b5	dec    	eax
  0x17b6	cwde   	
  0x17b7	inc    	ecx
  0x17b8	mov    	ecx, dword ptr [ecx + eax*4 + 0x1ac0]
  0x17bf	dec    	ecx
  === BLOCK LINK ===
    0x17c0
=== CODE BLOCK END ===

=== CODE BLOCK ADDRESS 0x17c0 ===
  0x17c0	add    	ecx, ecx
  0x17c2	jmp    	ecx
  === BLOCK LINK ===
    0x17c4
=== CODE BLOCK END ===

=== CODE BLOCK ADDRESS 0x17c4 ===
  0x17c4	int3   	
  0x17c5	int3   	
  0x17c6	int3   	
  0x17c7	int3   	
  0x17c8	inc    	edx
  === BLOCK LINK ===
    0x17c9
=== CODE BLOCK END ===

=== CODE BLOCK ADDRESS 0x17c9 ===
  0x17c9	movsx  	eax, word ptr [esi + ecx + 0xbb50]
  0x17d1	test   	eax, eax
  0x17d3	jne    	0x1852
  === BLOCK LINK ===
    0x17d5
    0x1852
=== CODE BLOCK END ===

=== CODE BLOCK ADDRESS 0x17d5 ===
  0x17d5	dec    	eax
  0x17d6	lea    	edx, [0xc8d4]
  0x17dc	call   	0x2560
  === BLOCK LINK ===
    0x17e1
    0x2560
=== CODE BLOCK END ===

=== CODE BLOCK ADDRESS 0x17e1 ===
  0x17e1	dec    	esp
  0x17e2	lea    	ecx, [0xffffe818]
  0x17e8	mov    	ecx, eax
  0x17ea	test   	ecx, ecx
  0x17ec	jne    	0x170a
  === BLOCK LINK ===
    0x17f2
    0x170a
=== CODE BLOCK END ===

=== CODE BLOCK ADDRESS 0x17f2 ===
  0x17f2	jmp    	0x1693
  === BLOCK LINK ===
    0x17f7
    0x1693
=== CODE BLOCK END ===

=== CODE BLOCK ADDRESS 0x17f7 ===
  0x17f7	dec    	eax
  0x17f8	arpl   	word ptr [edi - 4], cx
  0x17fb	dec    	eax
  0x17fc	lea    	eax, [0xd49e]
  0x1802	mov    	ebx, dword ptr [edi - 8]
  === BLOCK LINK ===
    0x1805
=== CODE BLOCK END ===

=== CODE BLOCK ADDRESS 0x1805 ===
  0x1805	mov    	ebp, dword ptr [edi - 0xc]
  0x1808	dec    	eax
  0x1809	shl    	ecx, 4
  0x180c	dec    	eax
  0x180d	add    	ecx, eax
  === BLOCK LINK ===
    0x180f
=== CODE BLOCK END ===

=== CODE BLOCK ADDRESS 0x180f ===
  0x180f	dec    	eax
  0x1810	sub    	edi, 0xc
  0x1813	dec    	eax
  0x1814	mov    	dword ptr [0xd47e], ecx
  0x181a	mov    	eax, dword ptr [ecx + 8]
  === BLOCK LINK ===
    0x181d
=== CODE BLOCK END ===

=== CODE BLOCK ADDRESS 0x181d ===
  0x181d	mov    	dword ptr [0x15eb5], eax
  0x1823	dec    	eax
  0x1824	mov    	eax, dword ptr [ecx]
  0x1826	dec    	eax
  0x1827	mov    	dword ptr [0x15ea3], eax
  === BLOCK LINK ===
    0x182d
=== CODE BLOCK END ===

=== CODE BLOCK ADDRESS 0x182d ===
  0x182d	jmp    	0x161e
  === BLOCK LINK ===
    0x1832
    0x161e
=== CODE BLOCK END ===

=== CODE BLOCK ADDRESS 0x1832 ===
  0x1832	inc    	edx
  0x1833	movsx  	eax, word ptr [esi + ecx + 0xbb50]
  0x183b	test   	eax, eax
  0x183d	jne    	0x1889
  === BLOCK LINK ===
    0x183f
    0x1889
=== CODE BLOCK END ===

=== CODE BLOCK ADDRESS 0x183f ===
  0x183f	call   	0x1ba0
  === BLOCK LINK ===
    0x1844
    0x1ba0
=== CODE BLOCK END ===

=== CODE BLOCK ADDRESS 0x1844 ===
  0x1844	inc    	ebp
  0x1846	dec    	esp
  0x1847	lea    	ecx, [0xffffe7b3]
  0x184d	jmp    	0x161e
  === BLOCK LINK ===
    0x1852
    0x161e
=== CODE BLOCK END ===

=== CODE BLOCK ADDRESS 0x1852 ===
  0x1852	cmp    	eax, 1
  0x1855	jne    	0x3637
  === BLOCK LINK ===
    0x185b
    0x3637
=== CODE BLOCK END ===

=== CODE BLOCK ADDRESS 0x185b ===
  0x185b	dec    	eax
  0x185c	cmp    	dword ptr [0x1714d], 0
  0x1863	je     	0x170a
  === BLOCK LINK ===
    0x1869
    0x170a
=== CODE BLOCK END ===

=== CODE BLOCK ADDRESS 0x1869 ===
  0x1869	jmp    	0x1693
  === BLOCK LINK ===
    0x186e
    0x1693
=== CODE BLOCK END ===

=== CODE BLOCK ADDRESS 0x186e ===
  0x186e	movzx  	eax, word ptr [0x15e63]
  0x1875	inc    	cx
  0x1877	cmp    	dword ptr [ecx + ecx*2 + 0xbb52], eax
  0x187e	je     	0x16d7
  === BLOCK LINK ===
    0x1884
    0x16d7
=== CODE BLOCK END ===

=== CODE BLOCK ADDRESS 0x1884 ===
  0x1884	jmp    	0x38d8
  === BLOCK LINK ===
    0x1889
    0x38d8
=== CODE BLOCK END ===

=== CODE BLOCK ADDRESS 0x1889 ===
  0x1889	cmp    	eax, 0xd
  0x188c	jne    	0x3779
  === BLOCK LINK ===
    0x1892
    0x3779
=== CODE BLOCK END ===

=== CODE BLOCK ADDRESS 0x1892 ===
  0x1892	xorps  	xmm0, xmm0
  0x1895	mov    	dword ptr [esp + 0x120], 0
  0x18a0	xor    	eax, eax
  0x18a2	mov    	dword ptr [esp + 0x70], 0x68
  0x18aa	movups  	xmmword ptr [esp + 0x74], xmm0
  === BLOCK LINK ===
    0x18af
=== CODE BLOCK END ===

=== CODE BLOCK ADDRESS 0x18af ===
  0x18af	mov    	dword ptr [esp + 0xd4], eax
  0x18b6	movups  	xmmword ptr [esp + 0x84], xmm0
  0x18be	movups  	xmmword ptr [esp + 0x94], xmm0
  0x18c6	movups  	xmmword ptr [esp + 0xa4], xmm0
  0x18ce	movups  	xmmword ptr [esp + 0xb4], xmm0
  === BLOCK LINK ===
    0x18d6
=== CODE BLOCK END ===

=== CODE BLOCK ADDRESS 0x18d6 ===
  0x18d6	movups  	xmmword ptr [esp + 0xc4], xmm0
  0x18de	dec    	eax
  0x18df	call   	dword ptr [0x9a23]
  === BLOCK LINK ===
    0x18e5
=== CODE BLOCK END ===

=== CODE BLOCK ADDRESS 0x18e5 ===
  0x18e5	nop    	dword ptr [eax + eax]
  0x18ea	dec    	eax
  0x18eb	mov    	ecx, eax
  0x18ed	mov    	edx, 0x20
  0x18f2	dec    	eax
  === BLOCK LINK ===
    0x18f3
=== CODE BLOCK END ===

=== CODE BLOCK ADDRESS 0x18f3 ===
  0x18f3	mov    	edi, eax
  0x18f5	dec    	eax
  0x18f6	call   	dword ptr [0x9b2c]
  === BLOCK LINK ===
    0x18fc
=== CODE BLOCK END ===

=== CODE BLOCK ADDRESS 0x18fc ===
  0x18fc	nop    	dword ptr [eax + eax]
  0x1901	dec    	eax
  0x1902	mov    	esi, eax
  0x1904	dec    	eax
  0x1905	mov    	ebx, 0xffffffff
  === BLOCK LINK ===
    0x190b
=== CODE BLOCK END ===

=== CODE BLOCK ADDRESS 0x190b ===
  0x190b	nop    	dword ptr [eax + eax]
  === BLOCK LINK ===
    0x1910
    0x1910
=== CODE BLOCK END ===

=== CODE BLOCK ADDRESS 0x191a ===
  0x191a	add    	ebx, 0x10a
  0x1920	dec    	eax
  0x1921	lea    	edx, [esp + 0x128]
  0x1928	lea    	ecx, [ebx + ebx]
  0x192b	dec    	eax
  === BLOCK LINK ===
    0x192c
=== CODE BLOCK END ===

=== CODE BLOCK ADDRESS 0x192c ===
  0x192c	call   	dword ptr [0x9c8e]
  === BLOCK LINK ===
    0x1932
=== CODE BLOCK END ===

=== CODE BLOCK ADDRESS 0x1932 ===
  0x1932	nop    	dword ptr [eax + eax]
  0x1937	test   	eax, eax
  0x1939	jne    	0x3904
  === BLOCK LINK ===
    0x193f
    0x3904
=== CODE BLOCK END ===

=== CODE BLOCK ADDRESS 0x193f ===
  0x193f	dec    	eax
  0x1940	mov    	ecx, dword ptr [esp + 0x128]
  0x1947	mov    	edx, 0x104
  0x194c	dec    	eax
  0x194d	call   	dword ptr [0x9aa5]
  === BLOCK LINK ===
    0x1953
=== CODE BLOCK END ===

=== CODE BLOCK ADDRESS 0x1953 ===
  0x1953	nop    	dword ptr [eax + eax]
  0x1958	mov    	ecx, eax
  0x195a	test   	eax, eax
  0x195c	je     	0x3918
  === BLOCK LINK ===
    0x1962
    0x3918
=== CODE BLOCK END ===

=== CODE BLOCK ADDRESS 0x1962 ===
  0x1962	dec    	eax
  0x1963	mov    	eax, dword ptr [esp + 0x128]
  0x196a	dec    	esp
  0x196b	lea    	eax, [0x9e97]
  0x1971	mov    	edx, ebx
  === BLOCK LINK ===
    0x1973
=== CODE BLOCK END ===

=== CODE BLOCK ADDRESS 0x1973 ===
  0x1973	sub    	edx, ecx
  0x1975	dec    	eax
  0x1976	lea    	ecx, [eax + ecx*2]
  0x1979	dec    	eax
  0x197a	call   	dword ptr [0x9bc0]
  === BLOCK LINK ===
    0x1980
=== CODE BLOCK END ===

=== CODE BLOCK ADDRESS 0x1980 ===
  0x1980	nop    	dword ptr [eax + eax]
  0x1985	dec    	eax
  0x1986	test   	esi, esi
  0x1988	je     	0x19a4
  === BLOCK LINK ===
    0x198a
    0x19a4
=== CODE BLOCK END ===

=== CODE BLOCK ADDRESS 0x198a ===
  0x198a	dec    	eax
  0x198b	mov    	ecx, dword ptr [esp + 0x128]
  0x1992	dec    	esp
  0x1993	mov    	eax, esi
  0x1995	dec    	eax
  === BLOCK LINK ===
    0x1996
=== CODE BLOCK END ===

=== CODE BLOCK ADDRESS 0x1996 ===
  0x1996	arpl   	bx, dx
  0x1998	dec    	eax
  0x1999	call   	dword ptr [0x9b99]
  === BLOCK LINK ===
    0x199f
=== CODE BLOCK END ===

=== CODE BLOCK ADDRESS 0x199f ===
  0x199f	nop    	dword ptr [eax + eax]
  === BLOCK LINK ===
    0x19a4
=== CODE BLOCK END ===

=== CODE BLOCK ADDRESS 0x19b1 ===
  0x19b1	dec    	eax
  0x19b2	mov    	dword ptr [esp + 0x48], eax
  0x19b6	inc    	ebp
  0x19b7	xor    	ecx, ecx
  0x19b9	dec    	eax
  === BLOCK LINK ===
    0x19ba
=== CODE BLOCK END ===

=== CODE BLOCK ADDRESS 0x19ba ===
  0x19ba	lea    	eax, [esp + 0x70]
  0x19be	inc    	ebp
  0x19bf	xor    	eax, eax
  0x19c1	dec    	eax
  0x19c2	mov    	dword ptr [esp + 0x40], eax
  === BLOCK LINK ===
    0x19c6
=== CODE BLOCK END ===

=== CODE BLOCK ADDRESS 0x19c6 ===
  0x19c6	xor    	ecx, ecx
  0x19c8	dec    	eax
  0x19c9	mov    	dword ptr [esp + 0x38], 0
  0x19d1	dec    	eax
  0x19d2	mov    	dword ptr [esp + 0x30], 0
  === BLOCK LINK ===
    0x19da
=== CODE BLOCK END ===

=== CODE BLOCK ADDRESS 0x19da ===
  0x19da	mov    	dword ptr [esp + 0x28], 0x20
  0x19e2	mov    	dword ptr [esp + 0x20], 1
  0x19ea	dec    	eax
  0x19eb	call   	dword ptr [0x9947]
  === BLOCK LINK ===
    0x19f1
=== CODE BLOCK END ===

=== CODE BLOCK ADDRESS 0x19f1 ===
  0x19f1	nop    	dword ptr [eax + eax]
  0x19f6	test   	eax, eax
  0x19f8	je     	0x3938
  === BLOCK LINK ===
    0x19fe
    0x3938
=== CODE BLOCK END ===

=== CODE BLOCK ADDRESS 0x19fe ===
  0x19fe	dec    	eax
  0x19ff	mov    	ecx, dword ptr [esp + 0x58]
  0x1a03	dec    	eax
  0x1a04	call   	dword ptr [0x987e]
  === BLOCK LINK ===
    0x1a0a
=== CODE BLOCK END ===

=== CODE BLOCK ADDRESS 0x1a0a ===
  0x1a0a	nop    	dword ptr [eax + eax]
  0x1a0f	dec    	eax
  0x1a10	mov    	ecx, dword ptr [esp + 0x50]
  0x1a14	mov    	edx, 0xffffffff
  0x1a19	dec    	eax
  === BLOCK LINK ===
    0x1a1a
=== CODE BLOCK END ===

=== CODE BLOCK ADDRESS 0x1a1a ===
  0x1a1a	call   	dword ptr [0x99b8]
  === BLOCK LINK ===
    0x1a20
=== CODE BLOCK END ===

=== CODE BLOCK ADDRESS 0x1a20 ===
  0x1a20	nop    	dword ptr [eax + eax]
  0x1a25	dec    	eax
  0x1a26	mov    	ecx, dword ptr [esp + 0x50]
  0x1a2a	dec    	eax
  0x1a2b	lea    	edx, [esp + 0x120]
  === BLOCK LINK ===
    0x1a32
=== CODE BLOCK END ===

=== CODE BLOCK ADDRESS 0x1a32 ===
  0x1a32	dec    	eax
  0x1a33	call   	dword ptr [0x990f]
  === BLOCK LINK ===
    0x1a39
=== CODE BLOCK END ===

=== CODE BLOCK ADDRESS 0x1a39 ===
  0x1a39	nop    	dword ptr [eax + eax]
  0x1a3e	dec    	eax
  0x1a3f	mov    	ecx, dword ptr [esp + 0x50]
  0x1a43	dec    	eax
  0x1a44	call   	dword ptr [0x983e]
  === BLOCK LINK ===
    0x1a4a
=== CODE BLOCK END ===

=== CODE BLOCK ADDRESS 0x1a4a ===
  0x1a4a	nop    	dword ptr [eax + eax]
  0x1a4f	mov    	ebx, dword ptr [esp + 0x120]
  0x1a56	call   	0x2330
  === BLOCK LINK ===
    0x1a5b
    0x2330
=== CODE BLOCK END ===

=== CODE BLOCK ADDRESS 0x1a5b ===
  0x1a5b	mov    	ecx, ebx
  0x1a5d	dec    	eax
  0x1a5e	call   	dword ptr [0x99bc]
  === BLOCK LINK ===
    0x1a64
=== CODE BLOCK END ===

=== CODE BLOCK ADDRESS 0x1a64 ===
  0x1a64	nop    	dword ptr [eax + eax]
  0x1a69	int3   	
  0x1a6a	cmp    	ebx, 0x28
  0x1a6d	jae    	0x3606
  === BLOCK LINK ===
    0x1a73
    0x3606
=== CODE BLOCK END ===

=== CODE BLOCK ADDRESS 0x1a73 ===
  0x1a73	cmp    	ebx, 0x27
  0x1a76	jae    	0x1a90
  === BLOCK LINK ===
    0x1a78
    0x1a90
=== CODE BLOCK END ===

=== CODE BLOCK ADDRESS 0x1a78 ===
  0x1a78	test   	ebx, ebx
  0x1a7a	js     	0x1a90
  === BLOCK LINK ===
    0x1a7c
    0x1a90
=== CODE BLOCK END ===

=== CODE BLOCK ADDRESS 0x1a7c ===
  0x1a7c	dec    	eax
  0x1a7d	mov    	eax, dword ptr [0x15c4d]
  0x1a83	dec    	eax
  0x1a84	arpl   	bx, cx
  0x1a86	inc    	ebx
  === BLOCK LINK ===
    0x1a88
=== CODE BLOCK END ===

=== CODE BLOCK ADDRESS 0x1a88 ===
  0x1a88	dec    	ecx
  0x1a89	mov    	dword ptr [ecx + ecx*8 + 0xede0], eax
  === BLOCK LINK ===
    0x1a90
    0x1693
=== CODE BLOCK END ===

=== CODE BLOCK ADDRESS 0x1a9d ===
  0x1a9d	dec    	eax
  0x1a9e	mov    	esi, dword ptr [0xd1f4]
  0x1aa4	dec    	eax
  0x1aa5	add    	esi, 0x10
  0x1aa8	dec    	eax
  === BLOCK LINK ===
    0x1aa9
=== CODE BLOCK END ===

=== CODE BLOCK ADDRESS 0x1aa9 ===
  0x1aa9	mov    	dword ptr [0xd1e9], esi
  0x1aaf	dec    	ecx
  0x1ab0	cmp    	esi, eax
  0x1ab2	jb     	0x176f
  === BLOCK LINK ===
    0x1ab8
=== CODE BLOCK END ===

=== CODE BLOCK ADDRESS 0x1ab8 ===
  0x1ab8	jmp    	0x3625
  === BLOCK LINK ===
    0x1abd
=== CODE BLOCK END ===

=== CODE BLOCK ADDRESS 0x1abd ===
  0x1abd	nop    	dword ptr [eax]
  0x1ac0	ret    	0x35
  0x1ac3	add    	al, cl
  0x1ac5	pop    	ss
  0x1ac6	add    	byte ptr [eax], al
  === BLOCK LINK ===
    0x1ac8
=== CODE BLOCK END ===

=== CODE BLOCK ADDRESS 0x336d ===
  0x336d	dec    	eax
  0x336e	call   	dword ptr [0x7ee4]
  === BLOCK LINK ===
    0x3374
=== CODE BLOCK END ===

=== CODE BLOCK ADDRESS 0x1ac8 ===
  0x1ac8	xor    	bl, byte ptr [eax]
  0x1aca	add    	byte ptr [eax], al
  0x1acc	cmp    	byte ptr [eax], 0
  0x1acf	add    	byte ptr [edx], cl
  0x1ad1	pop    	ss
  === BLOCK LINK ===
    0x1ad2
=== CODE BLOCK END ===

=== CODE BLOCK ADDRESS 0x1ad2 ===
  0x1ad2	add    	byte ptr [eax], al
  0x1ad4	or     	dl, byte ptr [edi]
  0x1ad6	add    	byte ptr [eax], al
  0x1ad8	push   	0x1a
  0x1ada	add    	byte ptr [eax], al
  === BLOCK LINK ===
    0x1adc
=== CODE BLOCK END ===

=== CODE BLOCK ADDRESS 0x1adc ===
  0x1adc	fdiv   	qword ptr [0xcccc0000]
  0x1ae2	int3   	
  0x1ae3	int3   	
  0x1ae4	int3   	
  0x1ae5	int3   	
  === BLOCK LINK ===
    0x1ae6
=== CODE BLOCK END ===

=== CODE BLOCK ADDRESS 0x1ae6 ===
  0x1ae6	int3   	
  0x1ae7	int3   	
  0x1ae8	int3   	
  0x1ae9	int3   	
  0x1aea	int3   	
  === BLOCK LINK ===
    0x1aeb
=== CODE BLOCK END ===

=== CODE BLOCK ADDRESS 0x1aeb ===
  0x1aeb	int3   	
  0x1aec	int3   	
  0x1aed	int3   	
  0x1aee	int3   	
  0x1aef	int3   	
  === BLOCK LINK ===
    0x1af0
=== CODE BLOCK END ===

=== CODE BLOCK ADDRESS 0x1af0 ===
  0x1af0	inc    	eax
  0x1af1	push   	ebx
  0x1af2	dec    	eax
  0x1af3	sub    	esp, 0x20
  0x1af6	dec    	eax
  === BLOCK LINK ===
    0x1af7
=== CODE BLOCK END ===

=== CODE BLOCK ADDRESS 0x1af7 ===
  0x1af7	arpl   	word ptr [0x15df3], dx
  0x1afd	dec    	eax
  0x1afe	mov    	ebx, ecx
  0x1b00	dec    	eax
  0x1b01	lea    	ecx, [0x151a9]
  === BLOCK LINK ===
    0x1b07
=== CODE BLOCK END ===

=== CODE BLOCK ADDRESS 0x1b07 ===
  0x1b07	dec    	eax
  0x1b08	mov    	ecx, dword ptr [ecx + edx*8]
  0x1b0b	dec    	eax
  0x1b0c	mov    	dword ptr [ebx], ecx
  0x1b0e	dec    	eax
  === BLOCK LINK ===
    0x1b0f
=== CODE BLOCK END ===

=== CODE BLOCK ADDRESS 0x1b0f ===
  0x1b0f	test   	ecx, ecx
  0x1b11	je     	0x1b6b
  === BLOCK LINK ===
    0x1b13
=== CODE BLOCK END ===

=== CODE BLOCK ADDRESS 0x1b13 ===
  0x1b13	inc    	edx
  0x1b15	dec    	eax
  0x1b16	mov    	dword ptr [esp + 0x30], edi
  0x1b1a	dec    	eax
  0x1b1b	cmp    	dword ptr [0xc4e6], 0
  === BLOCK LINK ===
    0x1b22
=== CODE BLOCK END ===

=== CODE BLOCK ADDRESS 0x1b22 ===
  0x1b22	dec    	eax
  0x1b23	lea    	edi, [0xc4d7]
  0x1b29	mov    	dword ptr [0x15dc1], edx
  0x1b2f	je     	0x1b53
  === BLOCK LINK ===
    0x1b31
=== CODE BLOCK END ===

=== CODE BLOCK ADDRESS 0x1b31 ===
  0x1b31	dec    	eax
  0x1b32	mov    	edx, dword ptr [ebx]
  0x1b34	dec    	eax
  0x1b35	mov    	ecx, dword ptr [edi + 8]
  0x1b38	dec    	eax
  === BLOCK LINK ===
    0x1b39
=== CODE BLOCK END ===

=== CODE BLOCK ADDRESS 0x1b39 ===
  0x1b39	call   	dword ptr [0x98f9]
  === BLOCK LINK ===
    0x1b3f
=== CODE BLOCK END ===

=== CODE BLOCK ADDRESS 0x1b3f ===
  0x1b3f	nop    	dword ptr [eax + eax]
  0x1b44	test   	eax, eax
  0x1b46	je     	0x1b7e
  === BLOCK LINK ===
    0x1b48
=== CODE BLOCK END ===

=== CODE BLOCK ADDRESS 0x1b48 ===
  0x1b48	dec    	eax
  0x1b49	add    	edi, 0x10
  0x1b4c	dec    	eax
  0x1b4d	cmp    	dword ptr [edi + 8], 0
  0x1b51	jne    	0x1b31
  === BLOCK LINK ===
    0x1b53
=== CODE BLOCK END ===

=== CODE BLOCK ADDRESS 0x1b53 ===
  0x1b53	dec    	eax
  0x1b54	mov    	edi, dword ptr [esp + 0x30]
  0x1b58	mov    	eax, 0xfffffffe
  0x1b5d	mov    	dword ptr [ebx + 8], 0xfffffffe
  0x1b64	dec    	eax
  === BLOCK LINK ===
    0x1b65
=== CODE BLOCK END ===

=== CODE BLOCK ADDRESS 0x1b65 ===
  0x1b65	add    	esp, 0x20
  0x1b68	pop    	ebx
  0x1b69	ret    	
  0x1b6a	int3   	
  0x1b6b	mov    	dword ptr [ebx + 8], 0xffffffff
  === BLOCK LINK ===
    0x1b72
=== CODE BLOCK END ===

=== CODE BLOCK ADDRESS 0x338d ===
=== CODE BLOCK END ===

=== CODE BLOCK ADDRESS 0x1b72 ===
  0x1b72	mov    	eax, 0xffffffff
  0x1b77	dec    	eax
  0x1b78	add    	esp, 0x20
  0x1b7b	pop    	ebx
  0x1b7c	ret    	
  === BLOCK LINK ===
    0x1b7d
=== CODE BLOCK END ===

=== CODE BLOCK ADDRESS 0x33ad ===
=== CODE BLOCK END ===

=== CODE BLOCK ADDRESS 0x1b7d ===
  0x1b7d	int3   	
  0x1b7e	mov    	eax, dword ptr [edi]
  0x1b80	dec    	eax
  0x1b81	mov    	edi, dword ptr [esp + 0x30]
  0x1b85	mov    	dword ptr [ebx + 8], eax
  === BLOCK LINK ===
    0x1b88
=== CODE BLOCK END ===

=== CODE BLOCK ADDRESS 0x1b88 ===
  0x1b88	dec    	eax
  0x1b89	add    	esp, 0x20
  0x1b8c	pop    	ebx
  0x1b8d	ret    	
  0x1b8e	int3   	
  === BLOCK LINK ===
    0x1b8f
=== CODE BLOCK END ===

=== CODE BLOCK ADDRESS 0x13e0 ===
=== CODE BLOCK END ===

=== CODE BLOCK ADDRESS 0x1b8f ===
  0x1b8f	int3   	
  0x1b90	int3   	
  0x1b91	int3   	
  0x1b92	int3   	
  0x1b93	int3   	
  === BLOCK LINK ===
    0x1b94
=== CODE BLOCK END ===

=== CODE BLOCK ADDRESS 0x1b94 ===
  0x1b94	int3   	
  0x1b95	int3   	
  0x1b96	int3   	
  0x1b97	int3   	
  0x1b98	int3   	
  === BLOCK LINK ===
    0x1b99
=== CODE BLOCK END ===

=== CODE BLOCK ADDRESS 0x1b99 ===
  0x1b99	int3   	
  0x1b9a	int3   	
  0x1b9b	int3   	
  0x1b9c	int3   	
  0x1b9d	int3   	
  === BLOCK LINK ===
    0x1b9e
=== CODE BLOCK END ===

=== CODE BLOCK ADDRESS 0x1b9e ===
  0x1b9e	int3   	
  0x1b9f	int3   	
  === BLOCK LINK ===
    0x1ba0
=== CODE BLOCK END ===

=== CODE BLOCK ADDRESS 0x1ba3 ===
  0x1ba3	push   	esi
  0x1ba4	dec    	eax
  0x1ba5	lea    	ebp, [esp - 0x288]
  0x1bac	dec    	eax
  0x1bad	sub    	esp, 0x388
  === BLOCK LINK ===
    0x1bb3
=== CODE BLOCK END ===

=== CODE BLOCK ADDRESS 0x1bb3 ===
  0x1bb3	dec    	eax
  0x1bb4	mov    	eax, dword ptr [0xc6ce]
  0x1bba	dec    	eax
  0x1bbb	xor    	eax, esp
  0x1bbd	dec    	eax
  === BLOCK LINK ===
    0x1bbe
=== CODE BLOCK END ===

=== CODE BLOCK ADDRESS 0x1bbe ===
  0x1bbe	mov    	dword ptr [ebp + 0x260], eax
  0x1bc4	inc    	ebp
  0x1bc5	xor    	esi, esi
  0x1bc7	mov    	dword ptr [esp + 0x40], 0x200
  0x1bcf	dec    	eax
  === BLOCK LINK ===
    0x1bd0
=== CODE BLOCK END ===

=== CODE BLOCK ADDRESS 0x1bd0 ===
  0x1bd0	lea    	edx, [esp + 0x50]
  0x1bd4	dec    	esp
  0x1bd5	mov    	dword ptr [esp + 0x70], esi
  0x1bd9	mov    	ecx, 0x200
  0x1bde	mov    	dword ptr [esp + 0x48], 1
  === BLOCK LINK ===
    0x1be6
=== CODE BLOCK END ===

=== CODE BLOCK ADDRESS 0x1be6 ===
  0x1be6	dec    	eax
  0x1be7	call   	dword ptr [0x99d3]
  === BLOCK LINK ===
    0x1bed
=== CODE BLOCK END ===

=== CODE BLOCK ADDRESS 0x1bed ===
  0x1bed	nop    	dword ptr [eax + eax]
  0x1bf2	test   	eax, eax
  0x1bf4	jne    	0x39ca
  === BLOCK LINK ===
    0x1bfa
=== CODE BLOCK END ===

=== CODE BLOCK ADDRESS 0x1bfa ===
  0x1bfa	dec    	eax
  0x1bfb	lea    	eax, [esp + 0x60]
  0x1bff	dec    	eax
  0x1c00	mov    	dword ptr [esp + 0x3a0], ebx
  0x1c07	inc    	ebp
  === BLOCK LINK ===
    0x1c08
=== CODE BLOCK END ===

=== CODE BLOCK ADDRESS 0x1c08 ===
  0x1c08	lea    	ecx, [esi + 1]
  0x1c0b	dec    	eax
  0x1c0c	mov    	dword ptr [esp + 0x20], eax
  0x1c10	inc    	ebp
  0x1c11	xor    	eax, eax
  === BLOCK LINK ===
    0x1c13
=== CODE BLOCK END ===

=== CODE BLOCK ADDRESS 0x1c13 ===
  0x1c13	dec    	esp
  0x1c14	mov    	dword ptr [esp + 0x370], edi
  0x1c1b	dec    	eax
  0x1c1c	lea    	edx, [0x9b5e]
  0x1c22	dec    	eax
  === BLOCK LINK ===
    0x1c23
=== CODE BLOCK END ===

=== CODE BLOCK ADDRESS 0x1c23 ===
  0x1c23	mov    	ecx, 0x80000002
  0x1c29	dec    	eax
  0x1c2a	call   	dword ptr [0x9738]
  === BLOCK LINK ===
    0x1c30
=== CODE BLOCK END ===

=== CODE BLOCK ADDRESS 0x1c30 ===
  0x1c30	nop    	dword ptr [eax + eax]
  0x1c35	dec    	esp
  0x1c36	lea    	edi, [0x9d38]
  0x1c3c	test   	eax, eax
  0x1c3e	jne    	0x39de
  === BLOCK LINK ===
    0x1c44
=== CODE BLOCK END ===

=== CODE BLOCK ADDRESS 0x1c44 ===
  0x1c44	dec    	eax
  0x1c45	mov    	ecx, dword ptr [esp + 0x60]
  0x1c49	dec    	eax
  0x1c4a	lea    	eax, [esp + 0x40]
  0x1c4e	dec    	eax
  === BLOCK LINK ===
    0x1c4f
=== CODE BLOCK END ===

=== CODE BLOCK ADDRESS 0x1c4f ===
  0x1c4f	mov    	dword ptr [esp + 0x28], eax
  0x1c53	dec    	esp
  0x1c54	lea    	ecx, [esp + 0x48]
  0x1c58	dec    	eax
  0x1c59	mov    	eax, dword ptr [esp + 0x50]
  === BLOCK LINK ===
    0x1c5d
=== CODE BLOCK END ===

=== CODE BLOCK ADDRESS 0x1c5d ===
  0x1c5d	dec    	eax
  0x1c5e	lea    	edx, [0x9b04]
  0x1c64	inc    	ebp
  0x1c65	xor    	eax, eax
  0x1c67	dec    	eax
  === BLOCK LINK ===
    0x1c68
=== CODE BLOCK END ===

=== CODE BLOCK ADDRESS 0x1c68 ===
  0x1c68	mov    	dword ptr [esp + 0x20], eax
  0x1c6c	dec    	eax
  0x1c6d	call   	dword ptr [0x9705]
  === BLOCK LINK ===
    0x1c73
=== CODE BLOCK END ===

=== CODE BLOCK ADDRESS 0x1c73 ===
  0x1c73	nop    	dword ptr [eax + eax]
  0x1c78	mov    	ebx, eax
  0x1c7a	cmp    	eax, 0xea
  0x1c7f	je     	0x39fb
  === BLOCK LINK ===
    0x1c85
=== CODE BLOCK END ===

=== CODE BLOCK ADDRESS 0x1c85 ===
  0x1c85	dec    	eax
  0x1c86	mov    	ecx, dword ptr [esp + 0x60]
  0x1c8a	dec    	eax
  0x1c8b	call   	dword ptr [0x96ef]
  === BLOCK LINK ===
    0x1c91
=== CODE BLOCK END ===

=== CODE BLOCK ADDRESS 0x1c91 ===
  0x1c91	nop    	dword ptr [eax + eax]
  0x1c96	test   	ebx, ebx
  0x1c98	jne    	0x39de
  === BLOCK LINK ===
    0x1c9e
=== CODE BLOCK END ===

=== CODE BLOCK ADDRESS 0x1c9e ===
  0x1c9e	dec    	eax
  0x1c9f	mov    	eax, dword ptr [esp + 0x50]
  0x1ca3	dec    	eax
  0x1ca4	mov    	dword ptr [0x15a1e], eax
  0x1caa	dec    	eax
  === BLOCK LINK ===
    0x1cab
=== CODE BLOCK END ===

=== CODE BLOCK ADDRESS 0x1cab ===
  0x1cab	test   	eax, eax
  0x1cad	je     	0x39ef
  === BLOCK LINK ===
    0x1cb3
=== CODE BLOCK END ===

=== CODE BLOCK ADDRESS 0x1cb3 ===
  0x1cb3	dec    	eax
  0x1cb4	mov    	dword ptr [esp + 0x3a8], esi
  0x1cbb	dec    	eax
  0x1cbc	lea    	edx, [esp + 0x70]
  0x1cc0	mov    	esi, 0x40
  === BLOCK LINK ===
    0x1cc5
=== CODE BLOCK END ===

=== CODE BLOCK ADDRESS 0x1cc5 ===
  0x1cc5	dec    	eax
  0x1cc6	mov    	dword ptr [esp + 0x3b0], edi
  0x1ccd	mov    	ecx, 0xc00
  0x1cd2	mov    	dword ptr [esp + 0x60], esi
  0x1cd6	inc    	ecx
  === BLOCK LINK ===
    0x1cd7
=== CODE BLOCK END ===

=== CODE BLOCK ADDRESS 0x1cd7 ===
  0x1cd7	mov    	edi, esi
  0x1cd9	inc    	esp
  0x1cda	mov    	dword ptr [esp + 0x48], esi
  0x1cde	dec    	eax
  0x1cdf	call   	dword ptr [0x98db]
  === BLOCK LINK ===
    0x1ce5
=== CODE BLOCK END ===

=== CODE BLOCK ADDRESS 0x1ce5 ===
  0x1ce5	nop    	dword ptr [eax + eax]
  0x1cea	test   	eax, eax
  0x1cec	jne    	0x3a76
  === BLOCK LINK ===
    0x1cf2
=== CODE BLOCK END ===

=== CODE BLOCK ADDRESS 0x1cf2 ===
  0x1cf2	dec    	eax
  0x1cf3	lea    	edx, [esp + 0x50]
  0x1cf7	mov    	dword ptr [esp + 0x58], 0x1000
  0x1cff	mov    	ecx, 0x1000
  0x1d04	dec    	eax
  === BLOCK LINK ===
    0x1d05
=== CODE BLOCK END ===

=== CODE BLOCK ADDRESS 0x1d05 ===
  0x1d05	call   	dword ptr [0x98b5]
  === BLOCK LINK ===
    0x1d0b
=== CODE BLOCK END ===

=== CODE BLOCK ADDRESS 0x1d0b ===
  0x1d0b	nop    	dword ptr [eax + eax]
  0x1d10	xor    	edx, edx
  0x1d12	test   	eax, eax
  0x1d14	jne    	0x3a8a
  === BLOCK LINK ===
    0x1d1a
=== CODE BLOCK END ===

=== CODE BLOCK ADDRESS 0x1d1a ===
  0x1d1a	dec    	eax
  0x1d1b	lea    	eax, [esp + 0x68]
  0x1d1f	inc    	ebp
  0x1d20	xor    	ecx, ecx
  0x1d22	inc    	ebp
  === BLOCK LINK ===
    0x1d23
=== CODE BLOCK END ===

=== CODE BLOCK ADDRESS 0x1d23 ===
  0x1d23	xor    	eax, eax
  0x1d25	dec    	eax
  0x1d26	mov    	dword ptr [esp + 0x20], eax
  0x1d2a	lea    	ecx, [esi - 0x3f]
  0x1d2d	dec    	eax
  === BLOCK LINK ===
    0x1d2e
=== CODE BLOCK END ===

=== CODE BLOCK ADDRESS 0x1d2e ===
  0x1d2e	call   	dword ptr [0x945c]
  === BLOCK LINK ===
    0x1d34
=== CODE BLOCK END ===

=== CODE BLOCK ADDRESS 0x1d34 ===
  0x1d34	nop    	dword ptr [eax + eax]
  0x1d39	mov    	ebx, eax
  0x1d3b	test   	eax, eax
  0x1d3d	jne    	0x3ba8
  === BLOCK LINK ===
    0x1d43
=== CODE BLOCK END ===

=== CODE BLOCK ADDRESS 0x1d43 ===
  0x1d43	dec    	esp
  0x1d44	mov    	eax, dword ptr [esp + 0x50]
  0x1d48	dec    	esp
  0x1d49	lea    	ecx, [esp + 0x58]
  0x1d4d	dec    	eax
  === BLOCK LINK ===
    0x1d4e
=== CODE BLOCK END ===

=== CODE BLOCK ADDRESS 0x1d4e ===
  0x1d4e	mov    	ecx, dword ptr [esp + 0x68]
  0x1d52	dec    	eax
  0x1d53	lea    	edx, [esp + 0x40]
  0x1d57	mov    	dword ptr [esp + 0x40], 0xffffffff
  0x1d5f	dec    	eax
  === BLOCK LINK ===
    0x1d60
=== CODE BLOCK END ===

=== CODE BLOCK ADDRESS 0x1d60 ===
  0x1d60	call   	dword ptr [0x9442]
  === BLOCK LINK ===
    0x1d66
=== CODE BLOCK END ===

=== CODE BLOCK ADDRESS 0x1d66 ===
  0x1d66	nop    	dword ptr [eax + eax]
  0x1d6b	mov    	ebx, eax
  0x1d6d	test   	eax, eax
  0x1d6f	je     	0x1d7c
  === BLOCK LINK ===
    0x1d71
=== CODE BLOCK END ===

=== CODE BLOCK ADDRESS 0x1d71 ===
  0x1d71	cmp    	eax, 0x103
  0x1d76	jne    	0x3ba8
  === BLOCK LINK ===
    0x1d7c
=== CODE BLOCK END ===

=== CODE BLOCK ADDRESS 0x1d7c ===
  0x1d7c	mov    	ecx, dword ptr [esp + 0x40]
  0x1d80	lea    	eax, [ecx + edi]
  0x1d83	cmp    	eax, esi
  0x1d85	jae    	0x3a9c
  === BLOCK LINK ===
    0x1d8b
=== CODE BLOCK END ===

=== CODE BLOCK ADDRESS 0x1d8b ===
  0x1d8b	mov    	eax, edi
  0x1d8d	inc    	ebp
  0x1d8e	mov    	eax, esi
  0x1d90	dec    	eax
  0x1d91	lea    	edx, [eax + eax*2]
  === BLOCK LINK ===
    0x1d94
=== CODE BLOCK END ===

=== CODE BLOCK ADDRESS 0x1d94 ===
  0x1d94	dec    	eax
  0x1d95	shl    	edx, 4
  0x1d98	dec    	eax
  0x1d99	add    	edx, dword ptr [esp + 0x70]
  0x1d9d	test   	ecx, ecx
  === BLOCK LINK ===
    0x1d9f
=== CODE BLOCK END ===

=== CODE BLOCK ADDRESS 0x1d9f ===
  0x1d9f	jne    	0x3ad0
  === BLOCK LINK ===
    0x1da5
=== CODE BLOCK END ===

=== CODE BLOCK ADDRESS 0x1da5 ===
  0x1da5	test   	ebx, ebx
  0x1da7	je     	0x3b6c
  === BLOCK LINK ===
    0x1dad
=== CODE BLOCK END ===

=== CODE BLOCK ADDRESS 0x1dad ===
  0x1dad	dec    	eax
  0x1dae	mov    	ecx, dword ptr [esp + 0x68]
  0x1db2	dec    	eax
  0x1db3	call   	dword ptr [0x93e7]
  === BLOCK LINK ===
    0x1db9
=== CODE BLOCK END ===

=== CODE BLOCK ADDRESS 0x1db9 ===
  0x1db9	nop    	dword ptr [eax + eax]
  0x1dbe	mov    	dword ptr [esp + 0x48], edi
  0x1dc2	dec    	esp
  0x1dc3	lea    	eax, [esp + 0x60]
  0x1dc7	dec    	eax
  === BLOCK LINK ===
    0x1dc8
=== CODE BLOCK END ===

=== CODE BLOCK ADDRESS 0x1dc8 ===
  0x1dc8	lea    	edx, [esp + 0x70]
  0x1dcc	dec    	eax
  0x1dcd	lea    	ecx, [esp + 0x48]
  0x1dd1	call   	0x2450
  === BLOCK LINK ===
    0x1dd6
=== CODE BLOCK END ===

=== CODE BLOCK ADDRESS 0x1dd6 ===
  0x1dd6	test   	eax, eax
  0x1dd8	jne    	0x3bc4
  === BLOCK LINK ===
    0x1dde
=== CODE BLOCK END ===

=== CODE BLOCK ADDRESS 0x1dde ===
  0x1dde	dec    	eax
  0x1ddf	mov    	ebx, dword ptr [esp + 0x70]
  0x1de3	dec    	eax
  0x1de4	lea    	eax, [esp + 0x60]
  0x1de8	dec    	esp
  === BLOCK LINK ===
    0x1de9
=== CODE BLOCK END ===

=== CODE BLOCK ADDRESS 0x1de9 ===
  0x1de9	mov    	dword ptr [esp + 0x30], esi
  0x1ded	dec    	esp
  0x1dee	lea    	eax, [esp + 0x68]
  0x1df2	dec    	eax
  0x1df3	mov    	dword ptr [esp + 0x28], eax
  === BLOCK LINK ===
    0x1df7
=== CODE BLOCK END ===

=== CODE BLOCK ADDRESS 0x1df7 ===
  0x1df7	inc    	ecx
  0x1df8	mov    	ecx, 0xffffffff
  0x1dfd	dec    	eax
  0x1dfe	lea    	eax, [esp + 0x40]
  0x1e02	dec    	esp
  === BLOCK LINK ===
    0x1e03
=== CODE BLOCK END ===

=== CODE BLOCK ADDRESS 0x1e03 ===
  0x1e03	mov    	dword ptr [esp + 0x380], esp
  0x1e0a	mov    	edx, 1
  0x1e0f	dec    	eax
  0x1e10	mov    	dword ptr [esp + 0x20], eax
  0x1e14	xor    	ecx, ecx
  === BLOCK LINK ===
    0x1e16
=== CODE BLOCK END ===

=== CODE BLOCK ADDRESS 0x1e16 ===
  0x1e16	dec    	esp
  0x1e17	mov    	dword ptr [esp + 0x378], ebp
  0x1e1e	dec    	eax
  0x1e1f	call   	dword ptr [0x97eb]
  === BLOCK LINK ===
    0x1e25
=== CODE BLOCK END ===

=== CODE BLOCK ADDRESS 0x1e25 ===
  0x1e25	nop    	dword ptr [eax + eax]
  0x1e2a	mov    	edi, dword ptr [esp + 0x48]
  0x1e2e	test   	eax, eax
  0x1e30	jne    	0x1e3d
  === BLOCK LINK ===
    0x1e32
=== CODE BLOCK END ===

=== CODE BLOCK ADDRESS 0x1e32 ===
  0x1e32	inc    	esp
  0x1e33	cmp    	dword ptr [esp + 0x40], esi
  0x1e37	jne    	0x3bd8
  === BLOCK LINK ===
    0x1e3d
=== CODE BLOCK END ===

=== CODE BLOCK ADDRESS 0x1e3d ===
  0x1e3d	dec    	eax
  0x1e3e	lea    	eax, [esp + 0x68]
  0x1e42	dec    	esp
  0x1e43	mov    	dword ptr [esp + 0x68], esi
  0x1e47	inc    	ecx
  === BLOCK LINK ===
    0x1e48
=== CODE BLOCK END ===

=== CODE BLOCK ADDRESS 0x1e48 ===
  0x1e48	mov    	ecx, 1
  0x1e4d	dec    	eax
  0x1e4e	mov    	dword ptr [esp + 0x20], eax
  0x1e52	inc    	ebp
  0x1e53	xor    	eax, eax
  === BLOCK LINK ===
    0x1e55
=== CODE BLOCK END ===

=== CODE BLOCK ADDRESS 0x1e55 ===
  0x1e55	mov    	dword ptr [esp + 0x40], 1
  0x1e5d	dec    	eax
  0x1e5e	lea    	edx, [0x986c]
  0x1e64	mov    	dword ptr [esp + 0x60], 0xe
  0x1e6c	dec    	eax
  === BLOCK LINK ===
    0x1e6d
=== CODE BLOCK END ===

=== CODE BLOCK ADDRESS 0x1e6d ===
  0x1e6d	mov    	ecx, 0x80000001
  0x1e73	dec    	eax
  0x1e74	call   	dword ptr [0x94ee]
  === BLOCK LINK ===
    0x1e7a
=== CODE BLOCK END ===

=== CODE BLOCK ADDRESS 0x1e7a ===
  0x1e7a	nop    	dword ptr [eax + eax]
  0x1e7f	test   	eax, eax
  0x1e81	je     	0x3c9a
  === BLOCK LINK ===
    0x1e87
=== CODE BLOCK END ===

=== CODE BLOCK ADDRESS 0x1e87 ===
  0x1e87	mov    	ebx, 0xe5c
  0x1e8c	dec    	eax
  0x1e8d	mov    	edx, dword ptr [0x15a55]
  0x1e93	dec    	esp
  0x1e94	lea    	ebp, [0x15846]
  === BLOCK LINK ===
    0x1e9a
=== CODE BLOCK END ===

=== CODE BLOCK ADDRESS 0x1e9a ===
  0x1e9a	dec    	esp
  0x1e9b	mov    	edi, dword ptr [0x114cf]
  0x1ea1	dec    	eax
  0x1ea2	lea    	esi, [0x9810]
  0x1ea8	inc    	sp
  === BLOCK LINK ===
    0x1eaa
=== CODE BLOCK END ===

=== CODE BLOCK ADDRESS 0x1eaa ===
  0x1eaa	mov    	dword ptr [0x15a50], esi
  0x1eb0	dec    	eax
  0x1eb1	test   	edx, edx
  0x1eb3	jne    	0x3d1a
  === BLOCK LINK ===
    0x1eb9
=== CODE BLOCK END ===

=== CODE BLOCK ADDRESS 0x1eb9 ===
  0x1eb9	dec    	esp
  0x1eba	mov    	eax, esi
  0x1ebc	mov    	edx, 0x104
  0x1ec1	dec    	ecx
  0x1ec2	mov    	ecx, ebp
  === BLOCK LINK ===
    0x1ec4
=== CODE BLOCK END ===

=== CODE BLOCK ADDRESS 0x1ec4 ===
  0x1ec4	dec    	eax
  0x1ec5	call   	dword ptr [0x9675]
  === BLOCK LINK ===
    0x1ecb
=== CODE BLOCK END ===

=== CODE BLOCK ADDRESS 0x1ecb ===
  0x1ecb	nop    	dword ptr [eax + eax]
  0x1ed0	xor    	edx, edx
  0x1ed2	dec    	eax
  0x1ed3	mov    	ecx, esi
  0x1ed5	inc    	esp
  === BLOCK LINK ===
    0x1ed6
=== CODE BLOCK END ===

=== CODE BLOCK ADDRESS 0x1ed6 ===
  0x1ed6	lea    	eax, [edx + 0x20]
  0x1ed9	dec    	eax
  0x1eda	call   	dword ptr [0x93e8]
  === BLOCK LINK ===
    0x1ee0
=== CODE BLOCK END ===

=== CODE BLOCK ADDRESS 0x1ee0 ===
  0x1ee0	nop    	dword ptr [eax + eax]
  0x1ee5	dec    	eax
  0x1ee6	mov    	dword ptr [0x159fc], eax
  0x1eec	dec    	eax
  0x1eed	mov    	edx, eax
  === BLOCK LINK ===
    0x1eef
=== CODE BLOCK END ===

=== CODE BLOCK ADDRESS 0x1eef ===
  0x1eef	dec    	eax
  0x1ef0	test   	eax, eax
  0x1ef2	je     	0x3dd2
  === BLOCK LINK ===
    0x1ef8
=== CODE BLOCK END ===

=== CODE BLOCK ADDRESS 0x1ef8 ===
  0x1ef8	dec    	esp
  0x1ef9	lea    	esp, [0x14521]
  0x1eff	inc    	ebp
  0x1f00	xor    	ecx, ecx
  0x1f02	dec    	esp
  === BLOCK LINK ===
    0x1f03
=== CODE BLOCK END ===

=== CODE BLOCK ADDRESS 0x1f03 ===
  0x1f03	mov    	dword ptr [esp + 0x30], esp
  0x1f07	dec    	esp
  0x1f08	lea    	esi, [0x159f2]
  0x1f0e	mov    	dword ptr [esp + 0x28], 0x800
  0x1f16	inc    	esp
  === BLOCK LINK ===
    0x1f17
=== CODE BLOCK END ===

=== CODE BLOCK ADDRESS 0x1f17 ===
  0x1f17	mov    	eax, ebx
  0x1f19	mov    	ecx, 0x2a00
  0x1f1e	dec    	esp
  0x1f1f	mov    	dword ptr [esp + 0x20], esi
  0x1f23	dec    	eax
  === BLOCK LINK ===
    0x1f24
=== CODE BLOCK END ===

=== CODE BLOCK ADDRESS 0x1f24 ===
  0x1f24	call   	dword ptr [0x93be]
  === BLOCK LINK ===
    0x1f2a
=== CODE BLOCK END ===

=== CODE BLOCK ADDRESS 0x1f2a ===
  0x1f2a	nop    	dword ptr [eax + eax]
  0x1f2f	test   	eax, eax
  0x1f31	je     	0x3d54
  === BLOCK LINK ===
    0x1f37
=== CODE BLOCK END ===

=== CODE BLOCK ADDRESS 0x1f37 ===
  0x1f37	dec    	eax
  0x1f38	mov    	esi, 0xffffffff
  0x1f3e	dec    	ecx
  0x1f3f	mov    	ebx, esi
  0x1f41	dec    	eax
  === BLOCK LINK ===
    0x1f42
=== CODE BLOCK END ===

=== CODE BLOCK ADDRESS 0x1f42 ===
  0x1f42	mov    	eax, esi
  0x1f44	dec    	eax
  0x1f45	inc    	eax
  0x1f47	inc    	cx
  0x1f49	cmp    	dword ptr [esi + eax*2], 0
  === BLOCK LINK ===
    0x1f4d
=== CODE BLOCK END ===

=== CODE BLOCK ADDRESS 0x1f4d ===
  0x1f4d	jne    	0x1f44
  === BLOCK LINK ===
    0x1f4f
=== CODE BLOCK END ===

=== CODE BLOCK ADDRESS 0x1f4f ===
  0x1f4f	dec    	ecx
  0x1f50	mov    	ecx, edi
  0x1f52	mov    	dword ptr [esp + 0x58], eax
  0x1f56	dec    	eax
  0x1f57	call   	dword ptr [0x9313]
  === BLOCK LINK ===
    0x1f5d
=== CODE BLOCK END ===

=== CODE BLOCK ADDRESS 0x1f5d ===
  0x1f5d	nop    	dword ptr [eax + eax]
  0x1f62	btr    	eax, 0xf
  0x1f66	cmp    	eax, 2
  0x1f69	je     	0x3dec
  === BLOCK LINK ===
    0x1f6f
=== CODE BLOCK END ===

=== CODE BLOCK ADDRESS 0x1f6f ===
  0x1f6f	mov    	edx, dword ptr [esp + 0x58]
  0x1f73	xor    	ecx, ecx
  0x1f75	dec    	eax
  0x1f76	add    	edx, edx
  0x1f78	dec    	eax
  === BLOCK LINK ===
    0x1f79
=== CODE BLOCK END ===

=== CODE BLOCK ADDRESS 0x1f79 ===
  0x1f79	call   	dword ptr [0x9331]
  === BLOCK LINK ===
    0x1f7f
=== CODE BLOCK END ===

=== CODE BLOCK ADDRESS 0x1f7f ===
  0x1f7f	nop    	dword ptr [eax + eax]
  0x1f84	dec    	eax
  0x1f85	mov    	edi, eax
  0x1f87	dec    	eax
  0x1f88	test   	eax, eax
  === BLOCK LINK ===
    0x1f8a
=== CODE BLOCK END ===

=== CODE BLOCK ADDRESS 0x1f8a ===
  0x1f8a	je     	0x1ff6
  === BLOCK LINK ===
    0x1f8c
=== CODE BLOCK END ===

=== CODE BLOCK ADDRESS 0x1f8c ===
  0x1f8c	inc    	esp
  0x1f8d	mov    	ecx, dword ptr [esp + 0x58]
  0x1f91	xor    	eax, eax
  0x1f93	dec    	eax
  0x1f94	mov    	dword ptr [esp + 0x38], eax
  === BLOCK LINK ===
    0x1f98
=== CODE BLOCK END ===

=== CODE BLOCK ADDRESS 0x1f98 ===
  0x1f98	dec    	ebp
  0x1f99	mov    	eax, esi
  0x1f9b	dec    	eax
  0x1f9c	mov    	dword ptr [esp + 0x30], eax
  0x1fa0	xor    	edx, edx
  === BLOCK LINK ===
    0x1fa2
=== CODE BLOCK END ===

=== CODE BLOCK ADDRESS 0x1fa2 ===
  0x1fa2	inc    	ebx
  0x1fa3	lea    	ecx, [ecx + ecx]
  0x1fa6	mov    	dword ptr [esp + 0x28], ecx
  0x1faa	lea    	ecx, [eax + 1]
  0x1fad	dec    	eax
  === BLOCK LINK ===
    0x1fae
=== CODE BLOCK END ===

=== CODE BLOCK ADDRESS 0x1fae ===
  0x1fae	mov    	dword ptr [esp + 0x20], edi
  0x1fb2	dec    	eax
  0x1fb3	call   	dword ptr [0x940f]
  === BLOCK LINK ===
    0x1fb9
=== CODE BLOCK END ===

=== CODE BLOCK ADDRESS 0x1fb9 ===
  0x1fb9	nop    	dword ptr [eax + eax]
  0x1fbe	mov    	dword ptr [esp + 0x58], eax
  0x1fc2	test   	eax, eax
  0x1fc4	je     	0x1fe7
  === BLOCK LINK ===
    0x1fc6
=== CODE BLOCK END ===

=== CODE BLOCK ADDRESS 0x1fc6 ===
  0x1fc6	xor    	ecx, ecx
  0x1fc8	dec    	esp
  0x1fc9	lea    	ecx, [esp + 0x58]
  0x1fcd	dec    	eax
  0x1fce	mov    	dword ptr [esp + 0x20], ecx
  === BLOCK LINK ===
    0x1fd2
=== CODE BLOCK END ===

=== CODE BLOCK ADDRESS 0x1fd2 ===
  0x1fd2	inc    	esp
  0x1fd3	mov    	eax, eax
  0x1fd5	dec    	ecx
  0x1fd6	mov    	ecx, edi
  0x1fd8	dec    	eax
  === BLOCK LINK ===
    0x1fd9
=== CODE BLOCK END ===

=== CODE BLOCK ADDRESS 0x1fd9 ===
  0x1fd9	mov    	edx, edi
  0x1fdb	dec    	eax
  0x1fdc	call   	dword ptr [0x9286]
  === BLOCK LINK ===
    0x1fe2
=== CODE BLOCK END ===

=== CODE BLOCK ADDRESS 0x1fe2 ===
  0x1fe2	nop    	dword ptr [eax + eax]
  0x1fe7	dec    	eax
  0x1fe8	mov    	ecx, edi
  0x1fea	dec    	eax
  0x1feb	call   	dword ptr [0x92b7]
  === BLOCK LINK ===
    0x1ff1
=== CODE BLOCK END ===

=== CODE BLOCK ADDRESS 0x1ff1 ===
  0x1ff1	nop    	dword ptr [eax + eax]
  0x1ff6	mov    	edi, dword ptr [esp + 0x48]
  0x1ffa	movzx  	eax, word ptr [0x158ff]
  0x2001	test   	ax, ax
  0x2004	je     	0x3e31
  === BLOCK LINK ===
    0x200a
=== CODE BLOCK END ===

=== CODE BLOCK ADDRESS 0x200a ===
  0x200a	nop    	word ptr [eax + eax]
  0x2010	cmp    	ax, 0xa
  0x2014	je     	0x2028
  === BLOCK LINK ===
    0x2016
=== CODE BLOCK END ===

=== CODE BLOCK ADDRESS 0x2016 ===
  0x2016	movzx  	eax, word ptr [ebx + 2]
  0x201a	dec    	eax
  0x201b	add    	ebx, 2
  0x201e	test   	ax, ax
  0x2021	jne    	0x2010
  === BLOCK LINK ===
    0x2023
=== CODE BLOCK END ===

=== CODE BLOCK ADDRESS 0x2023 ===
  0x2023	jmp    	0x3e31
  === BLOCK LINK ===
    0x2028
=== CODE BLOCK END ===

=== CODE BLOCK ADDRESS 0x2028 ===
  0x2028	dec    	ecx
  0x2029	mov    	ecx, edi
  0x202b	mov    	dword ptr [esp + 0x48], 2
  0x2033	dec    	eax
  0x2034	call   	dword ptr [0x9236]
  === BLOCK LINK ===
    0x203a
=== CODE BLOCK END ===

=== CODE BLOCK ADDRESS 0x203a ===
  0x203a	nop    	dword ptr [eax + eax]
  0x203f	btr    	eax, 0xf
  0x2043	cmp    	eax, 2
  0x2046	je     	0x3e40
  === BLOCK LINK ===
    0x204c
=== CODE BLOCK END ===

=== CODE BLOCK ADDRESS 0x204c ===
  0x204c	mov    	edx, dword ptr [esp + 0x48]
  0x2050	xor    	ecx, ecx
  0x2052	dec    	eax
  0x2053	add    	edx, edx
  0x2055	dec    	eax
  === BLOCK LINK ===
    0x2056
=== CODE BLOCK END ===

=== CODE BLOCK ADDRESS 0x2056 ===
  0x2056	call   	dword ptr [0x9254]
  === BLOCK LINK ===
    0x205c
=== CODE BLOCK END ===

=== CODE BLOCK ADDRESS 0x205c ===
  0x205c	nop    	dword ptr [eax + eax]
  0x2061	dec    	eax
  0x2062	mov    	ebx, eax
  0x2064	dec    	eax
  0x2065	test   	eax, eax
  === BLOCK LINK ===
    0x2067
=== CODE BLOCK END ===

=== CODE BLOCK ADDRESS 0x2067 ===
  0x2067	je     	0x20d7
  === BLOCK LINK ===
    0x2069
=== CODE BLOCK END ===

=== CODE BLOCK ADDRESS 0x2069 ===
  0x2069	inc    	esp
  0x206a	mov    	ecx, dword ptr [esp + 0x48]
  0x206e	dec    	esp
  0x206f	lea    	eax, [0x9653]
  0x2075	xor    	eax, eax
  === BLOCK LINK ===
    0x2077
=== CODE BLOCK END ===

=== CODE BLOCK ADDRESS 0x2077 ===
  0x2077	xor    	edx, edx
  0x2079	dec    	eax
  0x207a	mov    	dword ptr [esp + 0x38], eax
  0x207e	dec    	eax
  0x207f	mov    	dword ptr [esp + 0x30], eax
  === BLOCK LINK ===
    0x2083
=== CODE BLOCK END ===

=== CODE BLOCK ADDRESS 0x2083 ===
  0x2083	inc    	ebx
  0x2084	lea    	ecx, [ecx + ecx]
  0x2087	mov    	dword ptr [esp + 0x28], ecx
  0x208b	lea    	ecx, [eax + 1]
  0x208e	dec    	eax
  === BLOCK LINK ===
    0x208f
=== CODE BLOCK END ===

=== CODE BLOCK ADDRESS 0x208f ===
  0x208f	mov    	dword ptr [esp + 0x20], ebx
  0x2093	dec    	eax
  0x2094	call   	dword ptr [0x932e]
  === BLOCK LINK ===
    0x209a
=== CODE BLOCK END ===

=== CODE BLOCK ADDRESS 0x209a ===
  0x209a	nop    	dword ptr [eax + eax]
  0x209f	mov    	dword ptr [esp + 0x48], eax
  0x20a3	test   	eax, eax
  0x20a5	je     	0x20c8
  === BLOCK LINK ===
    0x20a7
=== CODE BLOCK END ===

=== CODE BLOCK ADDRESS 0x20a7 ===
  0x20a7	xor    	ecx, ecx
  0x20a9	dec    	esp
  0x20aa	lea    	ecx, [esp + 0x48]
  0x20ae	dec    	eax
  0x20af	mov    	dword ptr [esp + 0x20], ecx
  === BLOCK LINK ===
    0x20b3
=== CODE BLOCK END ===

=== CODE BLOCK ADDRESS 0x20b3 ===
  0x20b3	inc    	esp
  0x20b4	mov    	eax, eax
  0x20b6	dec    	ecx
  0x20b7	mov    	ecx, edi
  0x20b9	dec    	eax
  === BLOCK LINK ===
    0x20ba
=== CODE BLOCK END ===

=== CODE BLOCK ADDRESS 0x20ba ===
  0x20ba	mov    	edx, ebx
  0x20bc	dec    	eax
  0x20bd	call   	dword ptr [0x91a5]
  === BLOCK LINK ===
    0x20c3
=== CODE BLOCK END ===

=== CODE BLOCK ADDRESS 0x20c3 ===
  0x20c3	nop    	dword ptr [eax + eax]
  0x20c8	dec    	eax
  0x20c9	mov    	ecx, ebx
  0x20cb	dec    	eax
  0x20cc	call   	dword ptr [0x91d6]
  === BLOCK LINK ===
    0x20d2
=== CODE BLOCK END ===

=== CODE BLOCK ADDRESS 0x20d2 ===
  0x20d2	nop    	dword ptr [eax + eax]
  0x20d7	xor    	ebx, ebx
  0x20d9	test   	edi, edi
  0x20db	jne    	0x406a
  === BLOCK LINK ===
    0x20e1
=== CODE BLOCK END ===

=== CODE BLOCK ADDRESS 0x20e1 ===
  0x20e1	dec    	eax
  0x20e2	mov    	edx, dword ptr [0x15800]
  0x20e8	dec    	eax
  0x20e9	lea    	edi, [0x95c9]
  0x20ef	dec    	esp
  === BLOCK LINK ===
    0x20f0
=== CODE BLOCK END ===

=== CODE BLOCK ADDRESS 0x20f0 ===
  0x20f0	mov    	edi, dword ptr [0x1127a]
  0x20f6	mov    	word ptr [0x15803], bx
  0x20fd	dec    	eax
  0x20fe	test   	edx, edx
  0x2100	je     	0x3e98
  === BLOCK LINK ===
    0x2106
=== CODE BLOCK END ===

=== CODE BLOCK ADDRESS 0x2106 ===
  0x2106	dec    	esp
  0x2107	mov    	eax, ebx
  0x2109	nop    	dword ptr [eax]
  0x2110	inc    	edi
  0x2111	movzx  	ecx, word ptr [ebp + eax*2]
  === BLOCK LINK ===
    0x2116
=== CODE BLOCK END ===

=== CODE BLOCK ADDRESS 0x2116 ===
  0x2116	dec    	ecx
  0x2117	inc    	eax
  0x2119	inc    	edx
  0x211a	movzx  	eax, word ptr [edi + eax*2 - 2]
  0x211f	inc    	esp
  === BLOCK LINK ===
    0x2120
=== CODE BLOCK END ===

=== CODE BLOCK ADDRESS 0x2120 ===
  0x2120	sub    	ecx, eax
  0x2122	jne    	0x212a
  === BLOCK LINK ===
    0x2124
=== CODE BLOCK END ===

=== CODE BLOCK ADDRESS 0x2124 ===
  0x2124	dec    	ecx
  0x2125	cmp    	eax, 7
  0x2128	jne    	0x2110
  === BLOCK LINK ===
    0x212a
=== CODE BLOCK END ===

=== CODE BLOCK ADDRESS 0x212a ===
  0x212a	inc    	ebp
  0x212b	test   	ecx, ecx
  0x212d	jne    	0x3e89
  === BLOCK LINK ===
    0x2133
=== CODE BLOCK END ===

=== CODE BLOCK ADDRESS 0x2133 ===
  0x2133	dec    	esp
  0x2134	mov    	dword ptr [esp + 0x30], esp
  0x2138	inc    	ebp
  0x2139	xor    	ecx, ecx
  0x213b	mov    	dword ptr [esp + 0x28], 0x800
  === BLOCK LINK ===
    0x2143
=== CODE BLOCK END ===

=== CODE BLOCK ADDRESS 0x2143 ===
  0x2143	mov    	ecx, 0x2a00
  0x2148	inc    	ecx
  0x2149	mov    	eax, 0xe63
  0x214e	dec    	esp
  0x214f	mov    	dword ptr [esp + 0x20], esi
  === BLOCK LINK ===
    0x2153
=== CODE BLOCK END ===

=== CODE BLOCK ADDRESS 0x2153 ===
  0x2153	dec    	eax
  0x2154	call   	dword ptr [0x918e]
  === BLOCK LINK ===
    0x215a
=== CODE BLOCK END ===

=== CODE BLOCK ADDRESS 0x215a ===
  0x215a	nop    	dword ptr [eax + eax]
  0x215f	inc    	ebp
  0x2160	xor    	ebp, ebp
  0x2162	test   	eax, eax
  0x2164	je     	0x3edc
  === BLOCK LINK ===
    0x216a
=== CODE BLOCK END ===

=== CODE BLOCK ADDRESS 0x216a ===
  0x216a	dec    	ecx
  0x216b	mov    	ebx, esi
  0x216d	nop    	dword ptr [eax]
  0x2170	dec    	eax
  0x2171	inc    	esi
  === BLOCK LINK ===
    0x2173
=== CODE BLOCK END ===

=== CODE BLOCK ADDRESS 0x2173 ===
  0x2173	inc    	cx
  0x2175	cmp    	dword ptr [esi + esi*2], 0
  0x2179	jne    	0x2170
  === BLOCK LINK ===
    0x217b
=== CODE BLOCK END ===

=== CODE BLOCK ADDRESS 0x217b ===
  0x217b	dec    	ecx
  0x217c	mov    	ecx, edi
  0x217e	mov    	dword ptr [esp + 0x40], esi
  0x2182	dec    	eax
  0x2183	call   	dword ptr [0x90e7]
  === BLOCK LINK ===
    0x2189
=== CODE BLOCK END ===

=== CODE BLOCK ADDRESS 0x2189 ===
  0x2189	nop    	dword ptr [eax + eax]
  0x218e	btr    	eax, 0xf
  0x2192	cmp    	eax, 2
  0x2195	je     	0x3f66
  === BLOCK LINK ===
    0x219b
=== CODE BLOCK END ===

=== CODE BLOCK ADDRESS 0x219b ===
  0x219b	mov    	edx, dword ptr [esp + 0x40]
  0x219f	xor    	ecx, ecx
  0x21a1	dec    	eax
  0x21a2	add    	edx, edx
  0x21a4	dec    	eax
  === BLOCK LINK ===
    0x21a5
=== CODE BLOCK END ===

=== CODE BLOCK ADDRESS 0x21a5 ===
  0x21a5	call   	dword ptr [0x9105]
  === BLOCK LINK ===
    0x21ab
=== CODE BLOCK END ===

=== CODE BLOCK ADDRESS 0x21ab ===
  0x21ab	nop    	dword ptr [eax + eax]
  0x21b0	dec    	eax
  0x21b1	mov    	edi, eax
  0x21b3	dec    	eax
  0x21b4	test   	eax, eax
  === BLOCK LINK ===
    0x21b6
=== CODE BLOCK END ===

=== CODE BLOCK ADDRESS 0x21b6 ===
  0x21b6	je     	0x221e
  === BLOCK LINK ===
    0x21b8
=== CODE BLOCK END ===

=== CODE BLOCK ADDRESS 0x21b8 ===
  0x21b8	inc    	esp
  0x21b9	mov    	ecx, dword ptr [esp + 0x40]
  0x21bd	xor    	edx, edx
  0x21bf	dec    	esp
  0x21c0	mov    	dword ptr [esp + 0x38], ebp
  === BLOCK LINK ===
    0x21c4
=== CODE BLOCK END ===

=== CODE BLOCK ADDRESS 0x21c4 ===
  0x21c4	dec    	ebp
  0x21c5	mov    	eax, esi
  0x21c7	dec    	esp
  0x21c8	mov    	dword ptr [esp + 0x30], ebp
  0x21cc	inc    	ebx
  === BLOCK LINK ===
    0x21cd
=== CODE BLOCK END ===

=== CODE BLOCK ADDRESS 0x21cd ===
  0x21cd	lea    	ecx, [ecx + ecx]
  0x21d0	mov    	dword ptr [esp + 0x28], ecx
  0x21d4	lea    	ecx, [edx + 1]
  0x21d7	dec    	eax
  0x21d8	mov    	dword ptr [esp + 0x20], eax
  === BLOCK LINK ===
    0x21dc
=== CODE BLOCK END ===

=== CODE BLOCK ADDRESS 0x21dc ===
  0x21dc	dec    	eax
  0x21dd	call   	dword ptr [0x91e5]
  === BLOCK LINK ===
    0x21e3
=== CODE BLOCK END ===

=== CODE BLOCK ADDRESS 0x21e3 ===
  0x21e3	nop    	dword ptr [eax + eax]
  0x21e8	mov    	dword ptr [esp + 0x40], eax
  0x21ec	test   	eax, eax
  0x21ee	je     	0x220f
  === BLOCK LINK ===
    0x21f0
=== CODE BLOCK END ===

=== CODE BLOCK ADDRESS 0x21f0 ===
  0x21f0	dec    	esp
  0x21f1	lea    	ecx, [esp + 0x40]
  0x21f5	dec    	esp
  0x21f6	mov    	dword ptr [esp + 0x20], ebp
  0x21fa	inc    	esp
  === BLOCK LINK ===
    0x21fb
=== CODE BLOCK END ===

=== CODE BLOCK ADDRESS 0x21fb ===
  0x21fb	mov    	eax, eax
  0x21fd	dec    	eax
  0x21fe	mov    	edx, edi
  0x2200	dec    	ecx
  0x2201	mov    	ecx, edi
  === BLOCK LINK ===
    0x2203
=== CODE BLOCK END ===

=== CODE BLOCK ADDRESS 0x2203 ===
  0x2203	dec    	eax
  0x2204	call   	dword ptr [0x905e]
  === BLOCK LINK ===
    0x220a
=== CODE BLOCK END ===

=== CODE BLOCK ADDRESS 0x220a ===
  0x220a	nop    	dword ptr [eax + eax]
  0x220f	dec    	eax
  0x2210	mov    	ecx, edi
  0x2212	dec    	eax
  0x2213	call   	dword ptr [0x908f]
  === BLOCK LINK ===
    0x2219
=== CODE BLOCK END ===

=== CODE BLOCK ADDRESS 0x2219 ===
  0x2219	nop    	dword ptr [eax + eax]
  0x221e	dec    	eax
  0x221f	lea    	edi, [0x9493]
  0x2225	movzx  	eax, word ptr [0x156d4]
  0x222c	test   	ax, ax
  === BLOCK LINK ===
    0x222f
=== CODE BLOCK END ===

=== CODE BLOCK ADDRESS 0x222f ===
  0x222f	je     	0x3fa9
  === BLOCK LINK ===
    0x2235
=== CODE BLOCK END ===

=== CODE BLOCK ADDRESS 0x2235 ===
  0x2235	cmp    	ax, 0xa
  0x2239	je     	0x224d
  === BLOCK LINK ===
    0x223b
=== CODE BLOCK END ===

=== CODE BLOCK ADDRESS 0x223b ===
  0x223b	movzx  	eax, word ptr [ebx + 2]
  0x223f	dec    	eax
  0x2240	add    	ebx, 2
  0x2243	test   	ax, ax
  0x2246	jne    	0x2235
  === BLOCK LINK ===
    0x2248
=== CODE BLOCK END ===

=== CODE BLOCK ADDRESS 0x2248 ===
  0x2248	jmp    	0x3fa9
  === BLOCK LINK ===
    0x224d
=== CODE BLOCK END ===

=== CODE BLOCK ADDRESS 0x224d ===
  0x224d	dec    	ecx
  0x224e	mov    	ecx, edi
  0x2250	mov    	dword ptr [esp + 0x40], 2
  0x2258	dec    	eax
  0x2259	call   	dword ptr [0x9011]
  === BLOCK LINK ===
    0x225f
=== CODE BLOCK END ===

=== CODE BLOCK ADDRESS 0x225f ===
  0x225f	nop    	dword ptr [eax + eax]
  0x2264	btr    	eax, 0xf
  0x2268	cmp    	eax, 2
  0x226b	je     	0x3fb8
  === BLOCK LINK ===
    0x2271
=== CODE BLOCK END ===

=== CODE BLOCK ADDRESS 0x2271 ===
  0x2271	mov    	edx, dword ptr [esp + 0x40]
  0x2275	xor    	ecx, ecx
  0x2277	dec    	eax
  0x2278	add    	edx, edx
  0x227a	dec    	eax
  === BLOCK LINK ===
    0x227b
=== CODE BLOCK END ===

=== CODE BLOCK ADDRESS 0x227b ===
  0x227b	call   	dword ptr [0x902f]
  === BLOCK LINK ===
    0x2281
=== CODE BLOCK END ===

=== CODE BLOCK ADDRESS 0x2281 ===
  0x2281	nop    	dword ptr [eax + eax]
  0x2286	dec    	eax
  0x2287	mov    	ebx, eax
  0x2289	dec    	eax
  0x228a	test   	eax, eax
  === BLOCK LINK ===
    0x228c
=== CODE BLOCK END ===

=== CODE BLOCK ADDRESS 0x228c ===
  0x228c	je     	0x22f8
  === BLOCK LINK ===
    0x228e
=== CODE BLOCK END ===

=== CODE BLOCK ADDRESS 0x228e ===
  0x228e	inc    	esp
  0x228f	mov    	ecx, dword ptr [esp + 0x40]
  0x2293	dec    	esp
  0x2294	lea    	eax, [0x942e]
  0x229a	dec    	esp
  === BLOCK LINK ===
    0x229b
=== CODE BLOCK END ===

=== CODE BLOCK ADDRESS 0x229b ===
  0x229b	mov    	dword ptr [esp + 0x38], ebp
  0x229f	xor    	edx, edx
  0x22a1	dec    	esp
  0x22a2	mov    	dword ptr [esp + 0x30], ebp
  0x22a6	inc    	ebx
  === BLOCK LINK ===
    0x22a7
=== CODE BLOCK END ===

=== CODE BLOCK ADDRESS 0x22a7 ===
  0x22a7	lea    	ecx, [ecx + ecx]
  0x22aa	mov    	dword ptr [esp + 0x28], ecx
  0x22ae	lea    	ecx, [edx + 1]
  0x22b1	dec    	eax
  0x22b2	mov    	dword ptr [esp + 0x20], eax
  === BLOCK LINK ===
    0x22b6
=== CODE BLOCK END ===

=== CODE BLOCK ADDRESS 0x22b6 ===
  0x22b6	dec    	eax
  0x22b7	call   	dword ptr [0x910b]
  === BLOCK LINK ===
    0x22bd
=== CODE BLOCK END ===

=== CODE BLOCK ADDRESS 0x22bd ===
  0x22bd	nop    	dword ptr [eax + eax]
  0x22c2	mov    	dword ptr [esp + 0x40], eax
  0x22c6	test   	eax, eax
  0x22c8	je     	0x22e9
  === BLOCK LINK ===
    0x22ca
=== CODE BLOCK END ===

=== CODE BLOCK ADDRESS 0x22ca ===
  0x22ca	dec    	esp
  0x22cb	lea    	ecx, [esp + 0x40]
  0x22cf	dec    	esp
  0x22d0	mov    	dword ptr [esp + 0x20], ebp
  0x22d4	inc    	esp
  === BLOCK LINK ===
    0x22d5
=== CODE BLOCK END ===

=== CODE BLOCK ADDRESS 0x22d5 ===
  0x22d5	mov    	eax, eax
  0x22d7	dec    	eax
  0x22d8	mov    	edx, ebx
  0x22da	dec    	ecx
  0x22db	mov    	ecx, edi
  === BLOCK LINK ===
    0x22dd
=== CODE BLOCK END ===

=== CODE BLOCK ADDRESS 0x22dd ===
  0x22dd	dec    	eax
  0x22de	call   	dword ptr [0x8f84]
  === BLOCK LINK ===
    0x22e4
=== CODE BLOCK END ===

=== CODE BLOCK ADDRESS 0x22e4 ===
  0x22e4	nop    	dword ptr [eax + eax]
  0x22e9	dec    	eax
  0x22ea	mov    	ecx, ebx
  0x22ec	dec    	eax
  0x22ed	call   	dword ptr [0x8fb5]
  === BLOCK LINK ===
    0x22f3
=== CODE BLOCK END ===

=== CODE BLOCK ADDRESS 0x22f3 ===
  0x22f3	nop    	dword ptr [eax + eax]
  0x22f8	mov    	ecx, dword ptr [0x16eb2]
  0x22fe	lea    	eax, [ecx - 0x834]
  0x2304	cmp    	eax, 0xed7
  0x2309	jbe    	0x3fff
  === BLOCK LINK ===
    0x230f
=== CODE BLOCK END ===

=== CODE BLOCK ADDRESS 0x230f ===
  0x230f	call   	0x2330
  === BLOCK LINK ===
    0x2314
=== CODE BLOCK END ===

=== CODE BLOCK ADDRESS 0x2314 ===
  0x2314	xor    	ecx, ecx
  0x2316	dec    	eax
  0x2317	call   	dword ptr [0x9103]
  === BLOCK LINK ===
    0x231d
=== CODE BLOCK END ===

=== CODE BLOCK ADDRESS 0x231d ===
  0x231d	nop    	dword ptr [eax + eax]
  0x2322	int3   	
  0x2323	int3   	
  0x2324	int3   	
  0x2325	int3   	
  === BLOCK LINK ===
    0x2326
=== CODE BLOCK END ===

=== CODE BLOCK ADDRESS 0x2326 ===
  0x2326	int3   	
  0x2327	int3   	
  0x2328	int3   	
  0x2329	int3   	
  0x232a	int3   	
  === BLOCK LINK ===
    0x232b
=== CODE BLOCK END ===

=== CODE BLOCK ADDRESS 0x232b ===
  0x232b	int3   	
  0x232c	int3   	
  0x232d	int3   	
  0x232e	int3   	
  0x232f	int3   	
  === BLOCK LINK ===
    0x2330
=== CODE BLOCK END ===

=== CODE BLOCK ADDRESS 0x2330 ===
  0x2330	dec    	eax
  0x2331	mov    	dword ptr [esp + 8], ebx
  0x2335	push   	edi
  0x2336	dec    	eax
  0x2337	sub    	esp, 0x20
  === BLOCK LINK ===
    0x233a
=== CODE BLOCK END ===

=== CODE BLOCK ADDRESS 0x233a ===
  0x233a	dec    	eax
  0x233b	mov    	edi, dword ptr [0x1412f]
  0x2341	dec    	eax
  0x2342	test   	edi, edi
  0x2344	je     	0x2379
  === BLOCK LINK ===
    0x2346
=== CODE BLOCK END ===

=== CODE BLOCK ADDRESS 0x2346 ===
  0x2346	inc    	esp
  0x2347	mov    	eax, dword ptr [edi + 0x10]
  0x234a	xor    	edx, edx
  0x234c	dec    	eax
  0x234d	mov    	ecx, dword ptr [edi]
  === BLOCK LINK ===
    0x234f
=== CODE BLOCK END ===

=== CODE BLOCK ADDRESS 0x234f ===
  0x234f	call   	0x321a
  === BLOCK LINK ===
    0x2354
=== CODE BLOCK END ===

=== CODE BLOCK ADDRESS 0x2354 ===
  0x2354	cmp    	dword ptr [edi + 0x14], 0
  0x2358	dec    	eax
  0x2359	mov    	ebx, dword ptr [edi + 8]
  0x235c	jne    	0x4556
  === BLOCK LINK ===
    0x2362
=== CODE BLOCK END ===

=== CODE BLOCK ADDRESS 0x2362 ===
  0x2362	dec    	eax
  0x2363	mov    	ecx, edi
  0x2365	dec    	eax
  0x2366	call   	dword ptr [0x924c]
  === BLOCK LINK ===
    0x236c
=== CODE BLOCK END ===

=== CODE BLOCK ADDRESS 0x236c ===
  0x236c	nop    	dword ptr [eax + eax]
  0x2371	dec    	eax
  0x2372	mov    	edi, ebx
  0x2374	dec    	eax
  0x2375	test   	ebx, ebx
  === BLOCK LINK ===
    0x2377
=== CODE BLOCK END ===

=== CODE BLOCK ADDRESS 0x2377 ===
  0x2377	jne    	0x2346
  === BLOCK LINK ===
    0x2379
=== CODE BLOCK END ===

=== CODE BLOCK ADDRESS 0x2379 ===
  0x2379	xor    	edx, edx
  0x237b	dec    	esp
  0x237c	lea    	eax, [0x1492e]
  0x2382	dec    	eax
  0x2383	mov    	dword ptr [0x140e7], edx
  === BLOCK LINK ===
    0x2389
=== CODE BLOCK END ===

=== CODE BLOCK ADDRESS 0x2389 ===
  0x2389	dec    	eax
  0x238a	lea    	ebx, [edx - 1]
  0x238d	dec    	ecx
  0x238e	mov    	edi, dword ptr [eax]
  0x2390	dec    	eax
  === BLOCK LINK ===
    0x2391
=== CODE BLOCK END ===

=== CODE BLOCK ADDRESS 0x2391 ===
  0x2391	test   	edi, edi
  0x2393	je     	0x23c5
  === BLOCK LINK ===
    0x2395
=== CODE BLOCK END ===

=== CODE BLOCK ADDRESS 0x2395 ===
  0x2395	dec    	eax
  0x2396	mov    	eax, ebx
  0x2398	nop    	dword ptr [eax + eax]
  0x23a0	dec    	eax
  0x23a1	inc    	eax
  === BLOCK LINK ===
    0x23a3
=== CODE BLOCK END ===

=== CODE BLOCK ADDRESS 0x23a3 ===
  0x23a3	cmp    	word ptr [edi + eax*2], 0
  0x23a8	jne    	0x23a0
  === BLOCK LINK ===
    0x23aa
=== CODE BLOCK END ===

=== CODE BLOCK ADDRESS 0x23aa ===
  0x23aa	test   	eax, eax
  0x23ac	je     	0x23b7
  === BLOCK LINK ===
    0x23ae
=== CODE BLOCK END ===

=== CODE BLOCK ADDRESS 0x23ae ===
  0x23ae	mov    	ecx, eax
  0x23b0	dec    	eax
  0x23b1	add    	ecx, ecx
  0x23b3	xor    	eax, eax
  0x23b5	rep stosb  	byte ptr es:[edi], al
  === BLOCK LINK ===
    0x23b7
=== CODE BLOCK END ===

=== CODE BLOCK ADDRESS 0x23b7 ===
  0x23b7	inc    	edx
  0x23b9	dec    	ecx
  0x23ba	add    	eax, 8
  0x23bd	cmp    	edx, 0x100
  0x23c3	jb     	0x238d
  === BLOCK LINK ===
    0x23c5
=== CODE BLOCK END ===

=== CODE BLOCK ADDRESS 0x23c5 ===
  0x23c5	mov    	ecx, dword ptr [0x152f5]
  0x23cb	cmp    	ecx, 1
  0x23ce	jbe    	0x240d
  === BLOCK LINK ===
    0x23d0
=== CODE BLOCK END ===

=== CODE BLOCK ADDRESS 0x23d0 ===
  0x23d0	dec    	eax
  0x23d1	mov    	edx, dword ptr [0x150d9]
  0x23d7	inc    	esp
  0x23d8	lea    	eax, [ecx - 1]
  0x23db	dec    	eax
  === BLOCK LINK ===
    0x23dc
=== CODE BLOCK END ===

=== CODE BLOCK ADDRESS 0x23dc ===
  0x23dc	add    	edx, 8
  0x23df	dec    	eax
  0x23e0	mov    	edi, dword ptr [edx]
  0x23e2	dec    	eax
  0x23e3	test   	edi, edi
  === BLOCK LINK ===
    0x23e5
=== CODE BLOCK END ===

=== CODE BLOCK ADDRESS 0x23e5 ===
  0x23e5	je     	0x2403
  === BLOCK LINK ===
    0x23e7
=== CODE BLOCK END ===

=== CODE BLOCK ADDRESS 0x23e7 ===
  0x23e7	dec    	eax
  0x23e8	mov    	eax, ebx
  0x23ea	nop    	word ptr [eax + eax]
  0x23f0	dec    	eax
  0x23f1	inc    	eax
  === BLOCK LINK ===
    0x23f3
=== CODE BLOCK END ===

=== CODE BLOCK ADDRESS 0x23f3 ===
  0x23f3	cmp    	byte ptr [edi + eax], 0
  0x23f7	jne    	0x23f0
  === BLOCK LINK ===
    0x23f9
=== CODE BLOCK END ===

=== CODE BLOCK ADDRESS 0x23f9 ===
  0x23f9	test   	eax, eax
  0x23fb	je     	0x2403
  === BLOCK LINK ===
    0x23fd
=== CODE BLOCK END ===

=== CODE BLOCK ADDRESS 0x23fd ===
  0x23fd	mov    	ecx, eax
  0x23ff	xor    	eax, eax
  0x2401	rep stosb  	byte ptr es:[edi], al
  0x2403	dec    	eax
  0x2404	add    	edx, 8
  === BLOCK LINK ===
    0x2407
=== CODE BLOCK END ===

=== CODE BLOCK ADDRESS 0x2407 ===
  0x2407	dec    	ecx
  0x2408	sub    	eax, 1
  0x240b	jne    	0x23df
  === BLOCK LINK ===
    0x240d
=== CODE BLOCK END ===

=== CODE BLOCK ADDRESS 0x240d ===
  0x240d	dec    	eax
  0x240e	call   	dword ptr [0x8ef4]
  === BLOCK LINK ===
    0x2414
=== CODE BLOCK END ===

=== CODE BLOCK ADDRESS 0x2414 ===
  0x2414	nop    	dword ptr [eax + eax]
  0x2419	dec    	eax
  0x241a	test   	eax, eax
  0x241c	je     	0x243a
  === BLOCK LINK ===
    0x241e
=== CODE BLOCK END ===

=== CODE BLOCK ADDRESS 0x241e ===
  0x241e	nop    	
  0x2420	dec    	eax
  0x2421	inc    	ebx
  0x2423	cmp    	word ptr [eax + ebx*2], 0
  0x2428	jne    	0x2420
  === BLOCK LINK ===
    0x242a
=== CODE BLOCK END ===

=== CODE BLOCK ADDRESS 0x242a ===
  0x242a	test   	ebx, ebx
  0x242c	je     	0x243a
  === BLOCK LINK ===
    0x242e
=== CODE BLOCK END ===

=== CODE BLOCK ADDRESS 0x242e ===
  0x242e	dec    	eax
  0x242f	mov    	edi, eax
  0x2431	mov    	ecx, ebx
  0x2433	dec    	eax
  0x2434	add    	ecx, ecx
  === BLOCK LINK ===
    0x2436
=== CODE BLOCK END ===

=== CODE BLOCK ADDRESS 0x2436 ===
  0x2436	xor    	eax, eax
  0x2438	rep stosb  	byte ptr es:[edi], al
  0x243a	dec    	eax
  0x243b	mov    	ebx, dword ptr [esp + 0x30]
  0x243f	dec    	eax
  === BLOCK LINK ===
    0x2440
=== CODE BLOCK END ===

=== CODE BLOCK ADDRESS 0x2440 ===
  0x2440	add    	esp, 0x20
  0x2443	pop    	edi
  0x2444	ret    	
  0x2445	int3   	
  0x2446	int3   	
  === BLOCK LINK ===
    0x2447
=== CODE BLOCK END ===

=== CODE BLOCK ADDRESS 0x33c8 ===
=== CODE BLOCK END ===

=== CODE BLOCK ADDRESS 0x2447 ===
  0x2447	int3   	
  0x2448	int3   	
  0x2449	int3   	
  0x244a	int3   	
  0x244b	int3   	
  === BLOCK LINK ===
    0x244c
=== CODE BLOCK END ===

=== CODE BLOCK ADDRESS 0x244c ===
  0x244c	int3   	
  0x244d	int3   	
  0x244e	int3   	
  0x244f	int3   	
  0x2450	inc    	eax
  === BLOCK LINK ===
    0x2451
=== CODE BLOCK END ===

=== CODE BLOCK ADDRESS 0x2451 ===
  0x2451	push   	esi
  0x2452	push   	edi
  0x2453	inc    	ecx
  0x2454	push   	esi
  0x2455	inc    	ecx
  === BLOCK LINK ===
    0x2456
=== CODE BLOCK END ===

=== CODE BLOCK ADDRESS 0x2456 ===
  0x2456	push   	edi
  0x2457	dec    	eax
  0x2458	sub    	esp, 0x68
  0x245b	mov    	esi, dword ptr [ecx]
  0x245d	dec    	esp
  === BLOCK LINK ===
    0x245e
=== CODE BLOCK END ===

=== CODE BLOCK ADDRESS 0x245e ===
  0x245e	mov    	esi, edx
  0x2460	dec    	eax
  0x2461	mov    	edi, ecx
  0x2463	mov    	dword ptr [esp + 0x30], 0x1000
  0x246b	dec    	eax
  === BLOCK LINK ===
    0x246c
=== CODE BLOCK END ===

=== CODE BLOCK ADDRESS 0x246c ===
  0x246c	lea    	edx, [esp + 0x38]
  0x2470	mov    	ecx, 0x1000
  0x2475	dec    	ebp
  0x2476	mov    	edi, eax
  0x2478	dec    	eax
  === BLOCK LINK ===
    0x2479
=== CODE BLOCK END ===

=== CODE BLOCK ADDRESS 0x2479 ===
  0x2479	call   	dword ptr [0x9141]
  === BLOCK LINK ===
    0x247f
=== CODE BLOCK END ===

=== CODE BLOCK ADDRESS 0x247f ===
  0x247f	nop    	dword ptr [eax + eax]
  0x2484	xor    	edx, edx
  0x2486	test   	eax, eax
  0x2488	jne    	0x456c
  === BLOCK LINK ===
    0x248e
=== CODE BLOCK END ===

=== CODE BLOCK ADDRESS 0x248e ===
  0x248e	dec    	eax
  0x248f	lea    	eax, [esp + 0x40]
  0x2493	dec    	eax
  0x2494	mov    	dword ptr [esp + 0x98], ebx
  0x249b	inc    	ebp
  === BLOCK LINK ===
    0x249c
=== CODE BLOCK END ===

=== CODE BLOCK ADDRESS 0x249c ===
  0x249c	xor    	ecx, ecx
  0x249e	dec    	eax
  0x249f	mov    	dword ptr [esp + 0x20], eax
  0x24a3	inc    	ebp
  0x24a4	xor    	eax, eax
  === BLOCK LINK ===
    0x24a6
=== CODE BLOCK END ===

=== CODE BLOCK ADDRESS 0x24a6 ===
  0x24a6	lea    	ecx, [edx + 3]
  0x24a9	dec    	eax
  0x24aa	call   	dword ptr [0x8ce0]
  === BLOCK LINK ===
    0x24b0
=== CODE BLOCK END ===

=== CODE BLOCK ADDRESS 0x24b0 ===
  0x24b0	nop    	dword ptr [eax + eax]
  0x24b5	mov    	ebx, eax
  0x24b7	test   	eax, eax
  0x24b9	jne    	0x457e
  === BLOCK LINK ===
    0x24bf
=== CODE BLOCK END ===

=== CODE BLOCK ADDRESS 0x24bf ===
  0x24bf	dec    	eax
  0x24c0	mov    	dword ptr [esp + 0x60], ebp
  0x24c4	dec    	esp
  0x24c5	mov    	dword ptr [esp + 0x58], esp
  0x24c9	dec    	esp
  === BLOCK LINK ===
    0x24ca
=== CODE BLOCK END ===

=== CODE BLOCK ADDRESS 0x24ca ===
  0x24ca	mov    	dword ptr [esp + 0x50], ebp
  0x24ce	dec    	esp
  0x24cf	mov    	eax, dword ptr [esp + 0x38]
  0x24d3	dec    	esp
  0x24d4	lea    	ecx, [esp + 0x30]
  === BLOCK LINK ===
    0x24d8
=== CODE BLOCK END ===

=== CODE BLOCK ADDRESS 0x24d8 ===
  0x24d8	dec    	eax
  0x24d9	mov    	ecx, dword ptr [esp + 0x40]
  0x24dd	dec    	eax
  0x24de	lea    	edx, [esp + 0x90]
  0x24e5	mov    	dword ptr [esp + 0x90], 0xffffffff
  === BLOCK LINK ===
    0x24f0
=== CODE BLOCK END ===

=== CODE BLOCK ADDRESS 0x24f0 ===
  0x24f0	dec    	eax
  0x24f1	call   	dword ptr [0x8cb1]
  === BLOCK LINK ===
    0x24f7
=== CODE BLOCK END ===

=== CODE BLOCK ADDRESS 0x24f7 ===
  0x24f7	nop    	dword ptr [eax + eax]
  0x24fc	mov    	ebx, eax
  0x24fe	test   	eax, eax
  0x2500	je     	0x2509
  === BLOCK LINK ===
    0x2502
=== CODE BLOCK END ===

=== CODE BLOCK ADDRESS 0x2502 ===
  0x2502	cmp    	eax, 0x103
  0x2507	jne    	0x252f
  === BLOCK LINK ===
    0x2509
=== CODE BLOCK END ===

=== CODE BLOCK ADDRESS 0x2509 ===
  0x2509	mov    	ecx, dword ptr [esp + 0x90]
  0x2510	lea    	eax, [ecx - 1]
  0x2513	cmp    	eax, -3
  0x2516	jbe    	0x4596
  === BLOCK LINK ===
    0x251c
=== CODE BLOCK END ===

=== CODE BLOCK ADDRESS 0x251c ===
  0x251c	dec    	eax
  0x251d	mov    	ecx, dword ptr [esp + 0x40]
  0x2521	dec    	eax
  0x2522	call   	dword ptr [0x8c78]
  === BLOCK LINK ===
    0x2528
=== CODE BLOCK END ===

=== CODE BLOCK ADDRESS 0x2528 ===
  0x2528	nop    	dword ptr [eax + eax]
  0x252d	xor    	eax, eax
  0x252f	dec    	esp
  0x2530	mov    	esp, dword ptr [esp + 0x58]
  0x2534	dec    	eax
  === BLOCK LINK ===
    0x2535
=== CODE BLOCK END ===

=== CODE BLOCK ADDRESS 0x2535 ===
  0x2535	mov    	ebp, dword ptr [esp + 0x60]
  0x2539	dec    	esp
  0x253a	mov    	ebp, dword ptr [esp + 0x50]
  0x253e	dec    	eax
  0x253f	mov    	ebx, dword ptr [esp + 0x98]
  === BLOCK LINK ===
    0x2546
=== CODE BLOCK END ===

=== CODE BLOCK ADDRESS 0x2546 ===
  0x2546	dec    	eax
  0x2547	add    	esp, 0x68
  0x254a	inc    	ecx
  0x254b	pop    	edi
  0x254c	inc    	ecx
  === BLOCK LINK ===
    0x254d
=== CODE BLOCK END ===

=== CODE BLOCK ADDRESS 0x254d ===
  0x254d	pop    	esi
  0x254e	pop    	edi
  0x254f	pop    	esi
  0x2550	ret    	
  0x2551	int3   	
  === BLOCK LINK ===
    0x2552
=== CODE BLOCK END ===

=== CODE BLOCK ADDRESS 0x33b7 ===
  0x33b7	mov    	ecx, 8
  0x33bc	dec    	eax
  0x33bd	call   	dword ptr [0x7e85]
  === BLOCK LINK ===
    0x33c3
=== CODE BLOCK END ===

=== CODE BLOCK ADDRESS 0x2552 ===
  0x2552	int3   	
  0x2553	int3   	
  0x2554	int3   	
  0x2555	int3   	
  0x2556	int3   	
  === BLOCK LINK ===
    0x2557
=== CODE BLOCK END ===

=== CODE BLOCK ADDRESS 0x2557 ===
  0x2557	int3   	
  0x2558	int3   	
  0x2559	int3   	
  0x255a	int3   	
  0x255b	int3   	
  === BLOCK LINK ===
    0x255c
=== CODE BLOCK END ===

=== CODE BLOCK ADDRESS 0x255c ===
  0x255c	int3   	
  0x255d	int3   	
  0x255e	int3   	
  0x255f	int3   	
  0x2560	dec    	eax
  === BLOCK LINK ===
    0x2561
=== CODE BLOCK END ===

=== CODE BLOCK ADDRESS 0x2561 ===
  0x2561	mov    	dword ptr [esp + 8], ebx
  0x2565	dec    	eax
  0x2566	mov    	dword ptr [esp + 0x10], ebp
  0x256a	dec    	eax
  0x256b	mov    	dword ptr [esp + 0x20], esi
  === BLOCK LINK ===
    0x256f
=== CODE BLOCK END ===

=== CODE BLOCK ADDRESS 0x256f ===
  0x256f	push   	edi
  0x2570	inc    	ecx
  0x2571	push   	esp
  0x2572	inc    	ecx
  0x2573	push   	ebp
  === BLOCK LINK ===
    0x2574
=== CODE BLOCK END ===

=== CODE BLOCK ADDRESS 0x2574 ===
  0x2574	inc    	ecx
  0x2575	push   	esi
  0x2576	inc    	ecx
  0x2577	push   	edi
  0x2578	dec    	eax
  === BLOCK LINK ===
    0x2579
=== CODE BLOCK END ===

=== CODE BLOCK ADDRESS 0x2579 ===
  0x2579	sub    	esp, 0x20
  0x257c	dec    	eax
  0x257d	mov    	eax, dword ptr [0x1642d]
  0x2583	inc    	ebp
  0x2584	xor    	esp, esp
  === BLOCK LINK ===
    0x2586
=== CODE BLOCK END ===

=== CODE BLOCK ADDRESS 0x2586 ===
  0x2586	dec    	eax
  0x2587	mov    	ebx, edx
  0x2589	inc    	ecx
  0x258a	mov    	edi, esp
  0x258c	inc    	ecx
  === BLOCK LINK ===
    0x258d
=== CODE BLOCK END ===

=== CODE BLOCK ADDRESS 0x258d ===
  0x258d	movzx  	esi, sp
  0x2590	dec    	eax
  0x2591	test   	eax, eax
  0x2593	jne    	0x4732
  === BLOCK LINK ===
    0x2599
=== CODE BLOCK END ===

=== CODE BLOCK ADDRESS 0x2599 ===
  0x2599	dec    	eax
  0x259a	mov    	ebx, dword ptr [esp + 0x50]
  0x259e	mov    	eax, 1
  0x25a3	dec    	eax
  0x25a4	mov    	ebp, dword ptr [esp + 0x58]
  === BLOCK LINK ===
    0x25a8
=== CODE BLOCK END ===

=== CODE BLOCK ADDRESS 0x25a8 ===
  0x25a8	dec    	eax
  0x25a9	mov    	esi, dword ptr [esp + 0x68]
  0x25ad	dec    	eax
  0x25ae	add    	esp, 0x20
  0x25b1	inc    	ecx
  === BLOCK LINK ===
    0x25b2
=== CODE BLOCK END ===

=== CODE BLOCK ADDRESS 0x25b2 ===
  0x25b2	pop    	edi
  0x25b3	inc    	ecx
  0x25b4	pop    	esi
  0x25b5	inc    	ecx
  0x25b6	pop    	ebp
  === BLOCK LINK ===
    0x25b7
=== CODE BLOCK END ===

=== CODE BLOCK ADDRESS 0x25b7 ===
  0x25b7	inc    	ecx
  0x25b8	pop    	esp
  0x25b9	pop    	edi
  0x25ba	ret    	
  0x25bb	int3   	
  === BLOCK LINK ===
    0x25bc
=== CODE BLOCK END ===

=== CODE BLOCK ADDRESS 0x25bc ===
  0x25bc	int3   	
  0x25bd	int3   	
  0x25be	int3   	
  0x25bf	int3   	
  0x25c0	int3   	
  === BLOCK LINK ===
    0x25c1
=== CODE BLOCK END ===

=== CODE BLOCK ADDRESS 0x25c1 ===
  0x25c1	int3   	
  0x25c2	int3   	
  0x25c3	int3   	
  0x25c4	int3   	
  0x25c5	int3   	
  === BLOCK LINK ===
    0x25c6
=== CODE BLOCK END ===

=== CODE BLOCK ADDRESS 0x25c6 ===
  0x25c6	int3   	
  0x25c7	int3   	
  0x25c8	int3   	
  0x25c9	int3   	
  0x25ca	int3   	
  === BLOCK LINK ===
    0x25cb
=== CODE BLOCK END ===

=== CODE BLOCK ADDRESS 0x25cb ===
  0x25cb	int3   	
  0x25cc	int3   	
  0x25cd	int3   	
  0x25ce	int3   	
  0x25cf	int3   	
  === BLOCK LINK ===
    0x25d0
=== CODE BLOCK END ===

=== CODE BLOCK ADDRESS 0x25d0 ===
  0x25d0	dec    	eax
  0x25d1	sub    	esp, 0x28
  0x25d4	mov    	eax, 0x5a4d
  0x25d9	cmp    	word ptr [0xffffda20], ax
  0x25e0	je     	0x25e6
  === BLOCK LINK ===
    0x25e2
=== CODE BLOCK END ===

=== CODE BLOCK ADDRESS 0x25e2 ===
  0x25e2	xor    	eax, eax
  0x25e4	jmp    	0x2639
  === BLOCK LINK ===
    0x25e6
=== CODE BLOCK END ===

=== CODE BLOCK ADDRESS 0x25e6 ===
  0x25e6	dec    	eax
  0x25e7	arpl   	word ptr [0xffffda4f], cx
  0x25ed	dec    	eax
  0x25ee	lea    	eax, [0xffffda0c]
  0x25f4	dec    	eax
  === BLOCK LINK ===
    0x25f5
=== CODE BLOCK END ===

=== CODE BLOCK ADDRESS 0x25f5 ===
  0x25f5	add    	ecx, eax
  0x25f7	cmp    	dword ptr [ecx], 0x4550
  0x25fd	jne    	0x25e2
  === BLOCK LINK ===
    0x25ff
=== CODE BLOCK END ===

=== CODE BLOCK ADDRESS 0x25ff ===
  0x25ff	mov    	eax, 0x10b
  0x2604	cmp    	word ptr [ecx + 0x18], ax
  0x2608	je     	0x2628
  === BLOCK LINK ===
    0x260a
=== CODE BLOCK END ===

=== CODE BLOCK ADDRESS 0x260a ===
  0x260a	mov    	eax, 0x20b
  0x260f	cmp    	word ptr [ecx + 0x18], ax
  0x2613	jne    	0x25e2
  === BLOCK LINK ===
    0x2615
=== CODE BLOCK END ===

=== CODE BLOCK ADDRESS 0x2615 ===
  0x2615	xor    	eax, eax
  0x2617	cmp    	dword ptr [ecx + 0x84], 0xe
  0x261e	jbe    	0x2639
  === BLOCK LINK ===
    0x2620
=== CODE BLOCK END ===

=== CODE BLOCK ADDRESS 0x2620 ===
  0x2620	cmp    	dword ptr [ecx + 0xf8], eax
  0x2626	jmp    	0x2636
  === BLOCK LINK ===
    0x2628
=== CODE BLOCK END ===

=== CODE BLOCK ADDRESS 0x2628 ===
  0x2628	xor    	eax, eax
  0x262a	cmp    	dword ptr [ecx + 0x74], 0xe
  0x262e	jbe    	0x2639
  === BLOCK LINK ===
    0x2630
=== CODE BLOCK END ===

=== CODE BLOCK ADDRESS 0x2630 ===
  0x2630	cmp    	dword ptr [ecx + 0xe8], eax
  0x2636	setne  	al
  0x2639	mov    	ecx, 1
  0x263e	mov    	dword ptr [0xc01c], eax
  0x2644	call   	0x2ca8
  === BLOCK LINK ===
    0x2649
=== CODE BLOCK END ===

=== CODE BLOCK ADDRESS 0x2649 ===
  0x2649	mov    	ecx, eax
  0x264b	call   	dword ptr [0x8ed7]
  === BLOCK LINK ===
    0x2651
=== CODE BLOCK END ===

=== CODE BLOCK ADDRESS 0x2651 ===
  0x2651	dec    	eax
  0x2652	mov    	ecx, dword ptr [0x8ea0]
  0x2658	dec    	eax
  0x2659	or     	eax, 0xffffffff
  0x265c	dec    	eax
  === BLOCK LINK ===
    0x265d
=== CODE BLOCK END ===

=== CODE BLOCK ADDRESS 0x265d ===
  0x265d	mov    	dword ptr [0xc5ad], eax
  0x2663	dec    	eax
  0x2664	mov    	dword ptr [0xc5ae], eax
  0x266a	mov    	eax, dword ptr [0xc57c]
  0x2670	mov    	dword ptr [ecx], eax
  === BLOCK LINK ===
    0x2672
=== CODE BLOCK END ===

=== CODE BLOCK ADDRESS 0x2672 ===
  0x2672	dec    	eax
  0x2673	mov    	ecx, dword ptr [0x8e77]
  0x2679	mov    	eax, dword ptr [0xc561]
  0x267f	mov    	dword ptr [ecx], eax
  0x2681	call   	0x2d00
  === BLOCK LINK ===
    0x2686
=== CODE BLOCK END ===

=== CODE BLOCK ADDRESS 0x2686 ===
  0x2686	cmp    	dword ptr [0xbbf3], 0
  0x268d	jne    	0x269c
  === BLOCK LINK ===
    0x268f
=== CODE BLOCK END ===

=== CODE BLOCK ADDRESS 0x268f ===
  0x268f	dec    	eax
  0x2690	lea    	ecx, [0x66a]
  0x2696	call   	dword ptr [0x8e74]
  === BLOCK LINK ===
    0x269c
=== CODE BLOCK END ===

=== CODE BLOCK ADDRESS 0x269c ===
  0x269c	xor    	eax, eax
  0x269e	dec    	eax
  0x269f	add    	esp, 0x28
  0x26a2	ret    	
  0x26a3	int3   	
  === BLOCK LINK ===
    0x26a4
=== CODE BLOCK END ===

=== CODE BLOCK ADDRESS 0x26a4 ===
  0x26a4	int3   	
  0x26a5	int3   	
  0x26a6	int3   	
  0x26a7	int3   	
  0x26a8	int3   	
  === BLOCK LINK ===
    0x26a9
=== CODE BLOCK END ===

=== CODE BLOCK ADDRESS 0x26a9 ===
  0x26a9	int3   	
  0x26aa	int3   	
  0x26ab	int3   	
  0x26ac	int3   	
  0x26ad	int3   	
  === BLOCK LINK ===
    0x26ae
=== CODE BLOCK END ===

=== CODE BLOCK ADDRESS 0x26ae ===
  0x26ae	int3   	
  0x26af	int3   	
  0x26b0	dec    	eax
  0x26b1	sub    	esp, 0x38
  0x26b4	mov    	eax, dword ptr [0xc52e]
  === BLOCK LINK ===
    0x26ba
=== CODE BLOCK END ===

=== CODE BLOCK ADDRESS 0x26ba ===
  0x26ba	dec    	esp
  0x26bb	lea    	eax, [0xbf97]
  0x26c1	inc    	esp
  0x26c2	mov    	ecx, dword ptr [0xc51c]
  0x26c8	dec    	eax
  === BLOCK LINK ===
    0x26c9
=== CODE BLOCK END ===

=== CODE BLOCK ADDRESS 0x26c9 ===
  0x26c9	lea    	edx, [0xbf81]
  0x26cf	mov    	dword ptr [0xbf8f], eax
  0x26d5	dec    	eax
  0x26d6	lea    	ecx, [0xbf6c]
  0x26dc	dec    	eax
  === BLOCK LINK ===
    0x26dd
=== CODE BLOCK END ===

=== CODE BLOCK ADDRESS 0x26dd ===
  0x26dd	lea    	eax, [0xbf81]
  0x26e3	dec    	eax
  0x26e4	mov    	dword ptr [esp + 0x20], eax
  0x26e8	call   	dword ptr [0x8e42]
  === BLOCK LINK ===
    0x26ee
=== CODE BLOCK END ===

=== CODE BLOCK ADDRESS 0x26ee ===
  0x26ee	mov    	dword ptr [0xbf58], eax
  0x26f4	dec    	eax
  0x26f5	add    	esp, 0x38
  0x26f8	ret    	
  0x26f9	int3   	
  === BLOCK LINK ===
    0x26fa
=== CODE BLOCK END ===

=== CODE BLOCK ADDRESS 0x33e4 ===
=== CODE BLOCK END ===

=== CODE BLOCK ADDRESS 0x26fa ===
  0x26fa	int3   	
  0x26fb	int3   	
  0x26fc	int3   	
  0x26fd	int3   	
  0x26fe	int3   	
  === BLOCK LINK ===
    0x26ff
=== CODE BLOCK END ===

=== CODE BLOCK ADDRESS 0x26ff ===
  0x26ff	int3   	
  0x2700	dec    	eax
  0x2701	mov    	dword ptr [esp + 8], ebx
  0x2705	dec    	eax
  0x2706	mov    	dword ptr [esp + 0x10], esi
  === BLOCK LINK ===
    0x270a
=== CODE BLOCK END ===

=== CODE BLOCK ADDRESS 0x270a ===
  0x270a	dec    	eax
  0x270b	mov    	dword ptr [esp + 0x18], edi
  0x270f	inc    	ecx
  0x2710	push   	edi
  0x2711	dec    	eax
  === BLOCK LINK ===
    0x2712
=== CODE BLOCK END ===

=== CODE BLOCK ADDRESS 0x2712 ===
  0x2712	sub    	esp, 0x30
  0x2715	dec    	eax
  0x2717	mov    	eax, dword ptr [0x30]
  0x271e	dec    	eax
  0x271f	mov    	ebx, dword ptr [eax + 8]
  === BLOCK LINK ===
    0x2722
=== CODE BLOCK END ===

=== CODE BLOCK ADDRESS 0x2722 ===
  0x2722	xor    	esi, esi
  0x2724	xor    	eax, eax
  0x2726	.byte  	0xf0
  0x2727	dec    	eax
  0x2728	cmpxchg  	dword ptr [0xc4f1], ebx
  === BLOCK LINK ===
    0x272f
=== CODE BLOCK END ===

=== CODE BLOCK ADDRESS 0x272f ===
  0x272f	je     	0x274c
  === BLOCK LINK ===
    0x2731
=== CODE BLOCK END ===

=== CODE BLOCK ADDRESS 0x2731 ===
  0x2731	dec    	eax
  0x2732	cmp    	eax, ebx
  0x2734	jne    	0x273f
  === BLOCK LINK ===
    0x2736
=== CODE BLOCK END ===

=== CODE BLOCK ADDRESS 0x2736 ===
  0x2736	mov    	ebx, 1
  0x273b	mov    	esi, ebx
  0x273d	jmp    	0x2751
  === BLOCK LINK ===
    0x273f
=== CODE BLOCK END ===

=== CODE BLOCK ADDRESS 0x273f ===
  0x273f	mov    	ecx, 0x3e8
  0x2744	call   	dword ptr [0x8c9e]
  === BLOCK LINK ===
    0x274a
=== CODE BLOCK END ===

=== CODE BLOCK ADDRESS 0x274a ===
  0x274a	jmp    	0x2724
  === BLOCK LINK ===
    0x274c
=== CODE BLOCK END ===

=== CODE BLOCK ADDRESS 0x274c ===
  0x274c	mov    	ebx, 1
  0x2751	mov    	eax, dword ptr [0xc4d1]
  0x2757	cmp    	eax, ebx
  0x2759	jne    	0x2767
  === BLOCK LINK ===
    0x275b
=== CODE BLOCK END ===

=== CODE BLOCK ADDRESS 0x275b ===
  0x275b	mov    	ecx, 0x1f
  0x2760	call   	0x2cf3
  === BLOCK LINK ===
    0x2765
=== CODE BLOCK END ===

=== CODE BLOCK ADDRESS 0x2765 ===
  0x2765	jmp    	0x27cc
  === BLOCK LINK ===
    0x2767
=== CODE BLOCK END ===

=== CODE BLOCK ADDRESS 0x2767 ===
  0x2767	mov    	eax, dword ptr [0xc4bb]
  0x276d	test   	eax, eax
  0x276f	jne    	0x27c6
  === BLOCK LINK ===
    0x2771
=== CODE BLOCK END ===

=== CODE BLOCK ADDRESS 0x2771 ===
  0x2771	mov    	dword ptr [0xc4b1], ebx
  0x2777	dec    	esp
  0x2778	lea    	edi, [0x8ef2]
  0x277e	dec    	eax
  0x277f	lea    	edi, [0x8ed3]
  === BLOCK LINK ===
    0x2785
=== CODE BLOCK END ===

=== CODE BLOCK ADDRESS 0x2785 ===
  0x2785	dec    	eax
  0x2786	mov    	dword ptr [esp + 0x28], edi
  0x278a	mov    	dword ptr [esp + 0x20], eax
  0x278e	dec    	ecx
  0x278f	cmp    	edi, edi
  === BLOCK LINK ===
    0x2791
=== CODE BLOCK END ===

=== CODE BLOCK ADDRESS 0x2791 ===
  0x2791	jae    	0x27b8
  === BLOCK LINK ===
    0x2793
=== CODE BLOCK END ===

=== CODE BLOCK ADDRESS 0x2793 ===
  0x2793	test   	eax, eax
  0x2795	jne    	0x27bc
  === BLOCK LINK ===
    0x2797
=== CODE BLOCK END ===

=== CODE BLOCK ADDRESS 0x2797 ===
  0x2797	dec    	eax
  0x2798	cmp    	dword ptr [edi], 0
  0x279b	je     	0x27ad
  === BLOCK LINK ===
    0x279d
=== CODE BLOCK END ===

=== CODE BLOCK ADDRESS 0x279d ===
  0x279d	dec    	eax
  0x279e	mov    	eax, dword ptr [edi]
  0x27a0	dec    	eax
  0x27a1	mov    	ecx, dword ptr [0x8e91]
  0x27a7	call   	ecx
  === BLOCK LINK ===
    0x27a9
=== CODE BLOCK END ===

=== CODE BLOCK ADDRESS 0x27a9 ===
  0x27a9	mov    	dword ptr [esp + 0x20], eax
  0x27ad	dec    	eax
  0x27ae	add    	edi, 8
  0x27b1	dec    	eax
  0x27b2	mov    	dword ptr [esp + 0x28], edi
  === BLOCK LINK ===
    0x27b6
=== CODE BLOCK END ===

=== CODE BLOCK ADDRESS 0x27b6 ===
  0x27b6	jmp    	0x278e
  === BLOCK LINK ===
    0x27b8
=== CODE BLOCK END ===

=== CODE BLOCK ADDRESS 0x27b8 ===
  0x27b8	test   	eax, eax
  0x27ba	je     	0x27cc
  === BLOCK LINK ===
    0x27bc
=== CODE BLOCK END ===

=== CODE BLOCK ADDRESS 0x27bc ===
  0x27bc	mov    	eax, 0xff
  0x27c1	jmp    	0x28a8
  === BLOCK LINK ===
    0x27c6
=== CODE BLOCK END ===

=== CODE BLOCK ADDRESS 0x27c6 ===
  0x27c6	mov    	dword ptr [0xbe78], ebx
  0x27cc	mov    	eax, dword ptr [0xc456]
  0x27d2	cmp    	eax, ebx
  0x27d4	jne    	0x27f3
  === BLOCK LINK ===
    0x27d6
=== CODE BLOCK END ===

=== CODE BLOCK ADDRESS 0x27d6 ===
  0x27d6	dec    	eax
  0x27d7	lea    	edx, [0x8e73]
  0x27dd	dec    	eax
  0x27de	lea    	ecx, [0x8e5c]
  0x27e4	call   	0x2ece
  === BLOCK LINK ===
    0x27e9
=== CODE BLOCK END ===

=== CODE BLOCK ADDRESS 0x27e9 ===
  0x27e9	mov    	dword ptr [0xc435], 2
  0x27f3	test   	esi, esi
  0x27f5	jne    	0x2800
  === BLOCK LINK ===
    0x27f7
=== CODE BLOCK END ===

=== CODE BLOCK ADDRESS 0x27f7 ===
  0x27f7	xor    	eax, eax
  0x27f9	dec    	eax
  0x27fa	xchg   	dword ptr [0xc420], eax
  0x2800	dec    	eax
  0x2801	cmp    	dword ptr [0xc428], 0
  === BLOCK LINK ===
    0x2808
=== CODE BLOCK END ===

=== CODE BLOCK ADDRESS 0x2808 ===
  0x2808	je     	0x2834
  === BLOCK LINK ===
    0x280a
=== CODE BLOCK END ===

=== CODE BLOCK ADDRESS 0x280a ===
  0x280a	dec    	eax
  0x280b	lea    	ecx, [0xc41f]
  0x2811	call   	0x2d60
  === BLOCK LINK ===
    0x2816
=== CODE BLOCK END ===

=== CODE BLOCK ADDRESS 0x2816 ===
  0x2816	test   	eax, eax
  0x2818	je     	0x2834
  === BLOCK LINK ===
    0x281a
=== CODE BLOCK END ===

=== CODE BLOCK ADDRESS 0x281a ===
  0x281a	inc    	ebp
  0x281b	xor    	eax, eax
  0x281d	inc    	ecx
  0x281e	lea    	edx, [eax + 2]
  0x2821	xor    	ecx, ecx
  === BLOCK LINK ===
    0x2823
=== CODE BLOCK END ===

=== CODE BLOCK ADDRESS 0x2823 ===
  0x2823	dec    	eax
  0x2824	mov    	eax, dword ptr [0xc406]
  0x282a	dec    	esp
  0x282b	mov    	ecx, dword ptr [0x8e07]
  0x2831	inc    	ecx
  === BLOCK LINK ===
    0x2832
=== CODE BLOCK END ===

=== CODE BLOCK ADDRESS 0x2832 ===
  0x2832	call   	ecx
  === BLOCK LINK ===
    0x2834
=== CODE BLOCK END ===

=== CODE BLOCK ADDRESS 0x2834 ===
  0x2834	dec    	esp
  0x2835	mov    	eax, dword ptr [0xbe1d]
  0x283b	dec    	eax
  0x283c	mov    	edx, dword ptr [0xbe0e]
  0x2842	mov    	ecx, dword ptr [0xbe00]
  === BLOCK LINK ===
    0x2848
=== CODE BLOCK END ===

=== CODE BLOCK ADDRESS 0x2848 ===
  0x2848	call   	0x1010
  === BLOCK LINK ===
    0x284d
=== CODE BLOCK END ===

=== CODE BLOCK ADDRESS 0x284d ===
  0x284d	mov    	dword ptr [0xbded], eax
  0x2853	cmp    	dword ptr [0xbe06], 0
  0x285a	jne    	0x2864
  === BLOCK LINK ===
    0x285c
=== CODE BLOCK END ===

=== CODE BLOCK ADDRESS 0x285c ===
  0x285c	mov    	ecx, eax
  0x285e	call   	dword ptr [0x8bbc]
  === BLOCK LINK ===
    0x2864
=== CODE BLOCK END ===

=== CODE BLOCK ADDRESS 0x2864 ===
  0x2864	cmp    	dword ptr [0xbdd9], 0
  0x286b	jne    	0x2879
  === BLOCK LINK ===
    0x286d
=== CODE BLOCK END ===

=== CODE BLOCK ADDRESS 0x286d ===
  0x286d	call   	dword ptr [0x8ca5]
  === BLOCK LINK ===
    0x2873
=== CODE BLOCK END ===

=== CODE BLOCK ADDRESS 0x2873 ===
  0x2873	mov    	eax, dword ptr [0xbdc7]
  0x2879	jmp    	0x28a8
  === BLOCK LINK ===
    0x287b
=== CODE BLOCK END ===

=== CODE BLOCK ADDRESS 0x287b ===
  0x287b	mov    	dword ptr [0xbdbf], eax
  0x2881	cmp    	dword ptr [0xbdd8], 0
  0x2888	jne    	0x2893
  === BLOCK LINK ===
    0x288a
=== CODE BLOCK END ===

=== CODE BLOCK ADDRESS 0x288a ===
  0x288a	mov    	ecx, eax
  0x288c	call   	dword ptr [0x8c8e]
  === BLOCK LINK ===
    0x2892
=== CODE BLOCK END ===

=== CODE BLOCK ADDRESS 0x2892 ===
  0x2892	int3   	
  0x2893	cmp    	dword ptr [0xbdaa], 0
  0x289a	jne    	0x28a8
  === BLOCK LINK ===
    0x289c
=== CODE BLOCK END ===

=== CODE BLOCK ADDRESS 0x289c ===
  0x289c	call   	dword ptr [0x8c76]
  === BLOCK LINK ===
    0x28a2
=== CODE BLOCK END ===

=== CODE BLOCK ADDRESS 0x28a2 ===
  0x28a2	mov    	eax, dword ptr [0xbd98]
  0x28a8	dec    	eax
  0x28a9	mov    	ebx, dword ptr [esp + 0x40]
  0x28ad	dec    	eax
  0x28ae	mov    	esi, dword ptr [esp + 0x48]
  === BLOCK LINK ===
    0x28b2
=== CODE BLOCK END ===

=== CODE BLOCK ADDRESS 0x28b2 ===
  0x28b2	dec    	eax
  0x28b3	mov    	edi, dword ptr [esp + 0x50]
  0x28b7	dec    	eax
  0x28b8	add    	esp, 0x30
  0x28bb	inc    	ecx
  === BLOCK LINK ===
    0x28bc
=== CODE BLOCK END ===

=== CODE BLOCK ADDRESS 0x28bc ===
  0x28bc	pop    	edi
  0x28bd	ret    	
  0x28be	int3   	
  0x28bf	int3   	
  0x28c0	int3   	
  === BLOCK LINK ===
    0x28c1
=== CODE BLOCK END ===

=== CODE BLOCK ADDRESS 0x34cd ===
=== CODE BLOCK END ===

=== CODE BLOCK ADDRESS 0x28c1 ===
  0x28c1	int3   	
  0x28c2	int3   	
  0x28c3	int3   	
  0x28c4	int3   	
  0x28c5	int3   	
  === BLOCK LINK ===
    0x28c6
=== CODE BLOCK END ===

=== CODE BLOCK ADDRESS 0x28c6 ===
  0x28c6	int3   	
  0x28c7	int3   	
  0x28c8	int3   	
  0x28c9	int3   	
  0x28ca	int3   	
  === BLOCK LINK ===
    0x28cb
=== CODE BLOCK END ===

=== CODE BLOCK ADDRESS 0x28cb ===
  0x28cb	int3   	
  0x28cc	int3   	
  0x28cd	int3   	
  0x28ce	int3   	
  0x28cf	int3   	
  === BLOCK LINK ===
    0x28d0
=== CODE BLOCK END ===

=== CODE BLOCK ADDRESS 0x28d0 ===
  0x28d0	dec    	eax
  0x28d1	sub    	esp, 0x28
  0x28d4	call   	0x2df4
  === BLOCK LINK ===
    0x28d9
=== CODE BLOCK END ===

=== CODE BLOCK ADDRESS 0x28d9 ===
  0x28d9	dec    	eax
  0x28da	add    	esp, 0x28
  0x28dd	jmp    	0x2700
  === BLOCK LINK ===
    0x28e2
=== CODE BLOCK END ===

=== CODE BLOCK ADDRESS 0x28e2 ===
  0x28e2	int3   	
  0x28e3	int3   	
  0x28e4	int3   	
  0x28e5	int3   	
  0x28e6	int3   	
  === BLOCK LINK ===
    0x28e7
=== CODE BLOCK END ===

=== CODE BLOCK ADDRESS 0x28e7 ===
  0x28e7	int3   	
  0x28e8	int3   	
  0x28e9	int3   	
  0x28ea	int3   	
  0x28eb	int3   	
  === BLOCK LINK ===
    0x28ec
=== CODE BLOCK END ===

=== CODE BLOCK ADDRESS 0x28ec ===
  0x28ec	int3   	
  0x28ed	int3   	
  0x28ee	int3   	
  0x28ef	int3   	
  0x28f0	int3   	
  === BLOCK LINK ===
    0x28f1
=== CODE BLOCK END ===

=== CODE BLOCK ADDRESS 0x28f1 ===
  0x28f1	int3   	
  0x28f2	int3   	
  0x28f3	int3   	
  0x28f4	int3   	
  0x28f5	int3   	
  === BLOCK LINK ===
    0x28f6
=== CODE BLOCK END ===

=== CODE BLOCK ADDRESS 0x28f6 ===
  0x28f6	nop    	word ptr [eax + eax]
  0x2900	dec    	eax
  0x2901	cmp    	ecx, dword ptr [0xb981]
  0x2907	jne    	0x2919
  === BLOCK LINK ===
    0x2909
=== CODE BLOCK END ===

=== CODE BLOCK ADDRESS 0x2909 ===
  0x2909	dec    	eax
  0x290a	rol    	ecx, 0x10
  0x290d	test   	cx, 0xffff
  0x2912	jne    	0x2915
  === BLOCK LINK ===
    0x2914
=== CODE BLOCK END ===

=== CODE BLOCK ADDRESS 0x2914 ===
  0x2914	ret    	
  0x2915	dec    	eax
  0x2916	ror    	ecx, 0x10
  0x2919	jmp    	0x2960
  === BLOCK LINK ===
    0x291e
=== CODE BLOCK END ===

=== CODE BLOCK ADDRESS 0x123f ===
  0x123f	dec    	eax
  0x1240	mov    	edx, dword ptr [eax]
  0x1242	mov    	ecx, 0x100
  === BLOCK LINK ===
    0x1247
=== CODE BLOCK END ===

=== CODE BLOCK ADDRESS 0x291e ===
  0x291e	int3   	
  0x291f	int3   	
  0x2920	int3   	
  0x2921	int3   	
  0x2922	int3   	
  === BLOCK LINK ===
    0x2923
=== CODE BLOCK END ===

=== CODE BLOCK ADDRESS 0x2923 ===
  0x2923	int3   	
  0x2924	inc    	eax
  0x2925	push   	ebx
  0x2926	dec    	eax
  0x2927	sub    	esp, 0x20
  === BLOCK LINK ===
    0x292a
=== CODE BLOCK END ===

=== CODE BLOCK ADDRESS 0x292a ===
  0x292a	dec    	eax
  0x292b	mov    	ebx, ecx
  0x292d	xor    	ecx, ecx
  0x292f	call   	dword ptr [0x890b]
  === BLOCK LINK ===
    0x2935
=== CODE BLOCK END ===

=== CODE BLOCK ADDRESS 0x2935 ===
  0x2935	dec    	eax
  0x2936	mov    	ecx, ebx
  0x2938	call   	dword ptr [0x8912]
  === BLOCK LINK ===
    0x293e
=== CODE BLOCK END ===

=== CODE BLOCK ADDRESS 0x293e ===
  0x293e	call   	dword ptr [0x89ec]
  === BLOCK LINK ===
    0x2944
=== CODE BLOCK END ===

=== CODE BLOCK ADDRESS 0x2944 ===
  0x2944	dec    	eax
  0x2945	mov    	ecx, eax
  0x2947	mov    	edx, 0xc0000409
  0x294c	dec    	eax
  0x294d	add    	esp, 0x20
  === BLOCK LINK ===
    0x2950
=== CODE BLOCK END ===

=== CODE BLOCK ADDRESS 0x2950 ===
  0x2950	pop    	ebx
  0x2951	dec    	eax
  0x2952	jmp    	dword ptr [0x89e8]
  === BLOCK LINK ===
    0x2958
=== CODE BLOCK END ===

=== CODE BLOCK ADDRESS 0x2958 ===
  0x2958	int3   	
  0x2959	int3   	
  0x295a	int3   	
  0x295b	int3   	
  0x295c	int3   	
  === BLOCK LINK ===
    0x295d
=== CODE BLOCK END ===

=== CODE BLOCK ADDRESS 0x295d ===
  0x295d	int3   	
  0x295e	int3   	
  0x295f	int3   	
  0x2960	dec    	eax
  0x2961	mov    	dword ptr [esp + 8], ecx
  === BLOCK LINK ===
    0x2965
=== CODE BLOCK END ===

=== CODE BLOCK ADDRESS 0x2965 ===
  0x2965	dec    	eax
  0x2966	sub    	esp, 0x88
  0x296c	dec    	eax
  0x296d	lea    	ecx, [0xbd9d]
  0x2973	call   	dword ptr [0x8a2f]
  === BLOCK LINK ===
    0x2979
=== CODE BLOCK END ===

=== CODE BLOCK ADDRESS 0x2979 ===
  0x2979	dec    	eax
  0x297a	mov    	eax, dword ptr [0xbe88]
  0x2980	dec    	eax
  0x2981	mov    	dword ptr [esp + 0x48], eax
  0x2985	inc    	ebp
  === BLOCK LINK ===
    0x2986
=== CODE BLOCK END ===

=== CODE BLOCK ADDRESS 0x2986 ===
  0x2986	xor    	eax, eax
  0x2988	dec    	eax
  0x2989	lea    	edx, [esp + 0x50]
  0x298d	dec    	eax
  0x298e	mov    	ecx, dword ptr [esp + 0x48]
  === BLOCK LINK ===
    0x2992
=== CODE BLOCK END ===

=== CODE BLOCK ADDRESS 0x2992 ===
  0x2992	call   	dword ptr [0x8a18]
  === BLOCK LINK ===
    0x2998
=== CODE BLOCK END ===

=== CODE BLOCK ADDRESS 0x2998 ===
  0x2998	dec    	eax
  0x2999	mov    	dword ptr [esp + 0x40], eax
  0x299d	dec    	eax
  0x299e	cmp    	dword ptr [esp + 0x40], 0
  0x29a3	je     	0x29e7
  === BLOCK LINK ===
    0x29a5
=== CODE BLOCK END ===

=== CODE BLOCK ADDRESS 0x29a5 ===
  0x29a5	dec    	eax
  0x29a6	mov    	dword ptr [esp + 0x38], 0
  0x29ae	dec    	eax
  0x29af	lea    	eax, [esp + 0x58]
  0x29b3	dec    	eax
  === BLOCK LINK ===
    0x29b4
=== CODE BLOCK END ===

=== CODE BLOCK ADDRESS 0x29b4 ===
  0x29b4	mov    	dword ptr [esp + 0x30], eax
  0x29b8	dec    	eax
  0x29b9	lea    	eax, [esp + 0x60]
  0x29bd	dec    	eax
  0x29be	mov    	dword ptr [esp + 0x28], eax
  === BLOCK LINK ===
    0x29c2
=== CODE BLOCK END ===

=== CODE BLOCK ADDRESS 0x29c2 ===
  0x29c2	dec    	eax
  0x29c3	lea    	eax, [0xbd47]
  0x29c9	dec    	eax
  0x29ca	mov    	dword ptr [esp + 0x20], eax
  0x29ce	dec    	esp
  === BLOCK LINK ===
    0x29cf
=== CODE BLOCK END ===

=== CODE BLOCK ADDRESS 0x29cf ===
  0x29cf	mov    	ecx, dword ptr [esp + 0x40]
  0x29d3	dec    	esp
  0x29d4	mov    	eax, dword ptr [esp + 0x48]
  0x29d8	dec    	eax
  0x29d9	mov    	edx, dword ptr [esp + 0x50]
  === BLOCK LINK ===
    0x29dd
=== CODE BLOCK END ===

=== CODE BLOCK ADDRESS 0x29dd ===
  0x29dd	xor    	ecx, ecx
  0x29df	call   	dword ptr [0x89d3]
  === BLOCK LINK ===
    0x29e5
=== CODE BLOCK END ===

=== CODE BLOCK ADDRESS 0x29e5 ===
  0x29e5	jmp    	0x2a0a
  === BLOCK LINK ===
    0x29e7
=== CODE BLOCK END ===

=== CODE BLOCK ADDRESS 0x29e7 ===
  0x29e7	dec    	eax
  0x29e8	mov    	eax, dword ptr [0xbdba]
  0x29ee	dec    	eax
  0x29ef	mov    	eax, dword ptr [eax]
  0x29f1	dec    	eax
  === BLOCK LINK ===
    0x29f2
=== CODE BLOCK END ===

=== CODE BLOCK ADDRESS 0x29f2 ===
  0x29f2	mov    	dword ptr [0xbe10], eax
  0x29f8	dec    	eax
  0x29f9	mov    	eax, dword ptr [0xbda9]
  0x29ff	dec    	eax
  0x2a00	add    	eax, 8
  === BLOCK LINK ===
    0x2a03
=== CODE BLOCK END ===

=== CODE BLOCK ADDRESS 0x2a03 ===
  0x2a03	dec    	eax
  0x2a04	mov    	dword ptr [0xbd9e], eax
  0x2a0a	dec    	eax
  0x2a0b	mov    	eax, dword ptr [0xbdf7]
  0x2a11	dec    	eax
  === BLOCK LINK ===
    0x2a12
=== CODE BLOCK END ===

=== CODE BLOCK ADDRESS 0x2a12 ===
  0x2a12	mov    	dword ptr [0xbc68], eax
  0x2a18	dec    	eax
  0x2a19	mov    	eax, dword ptr [esp + 0x90]
  0x2a20	dec    	eax
  0x2a21	mov    	dword ptr [0xbd69], eax
  === BLOCK LINK ===
    0x2a27
=== CODE BLOCK END ===

=== CODE BLOCK ADDRESS 0x2a27 ===
  0x2a27	mov    	dword ptr [0xbc3f], 0xc0000409
  0x2a31	mov    	dword ptr [0xbc39], 1
  0x2a3b	mov    	dword ptr [0xbc43], 3
  0x2a45	mov    	eax, 8
  0x2a4a	dec    	eax
  === BLOCK LINK ===
    0x2a4b
=== CODE BLOCK END ===

=== CODE BLOCK ADDRESS 0x2a4b ===
  0x2a4b	imul   	eax, eax, 0
  0x2a4e	dec    	eax
  0x2a4f	lea    	ecx, [0xbc3b]
  0x2a55	dec    	eax
  0x2a56	mov    	dword ptr [ecx + eax], 2
  === BLOCK LINK ===
    0x2a5d
=== CODE BLOCK END ===

=== CODE BLOCK ADDRESS 0x2a5d ===
  0x2a5d	mov    	eax, 8
  0x2a62	dec    	eax
  0x2a63	imul   	eax, eax, 1
  0x2a66	dec    	eax
  0x2a67	lea    	ecx, [0xbc23]
  === BLOCK LINK ===
    0x2a6d
=== CODE BLOCK END ===

=== CODE BLOCK ADDRESS 0x2a6d ===
  0x2a6d	dec    	eax
  0x2a6e	mov    	edx, dword ptr [0xb814]
  0x2a74	dec    	eax
  0x2a75	mov    	dword ptr [ecx + eax], edx
  0x2a78	mov    	eax, 8
  === BLOCK LINK ===
    0x2a7d
=== CODE BLOCK END ===

=== CODE BLOCK ADDRESS 0x2a7d ===
  0x2a7d	dec    	eax
  0x2a7e	imul   	eax, eax, 2
  0x2a81	dec    	eax
  0x2a82	lea    	ecx, [0xbc08]
  0x2a88	dec    	eax
  === BLOCK LINK ===
    0x2a89
=== CODE BLOCK END ===

=== CODE BLOCK ADDRESS 0x2a89 ===
  0x2a89	mov    	edx, dword ptr [0xb801]
  0x2a8f	dec    	eax
  0x2a90	mov    	dword ptr [ecx + eax], edx
  0x2a93	mov    	eax, 8
  0x2a98	dec    	eax
  === BLOCK LINK ===
    0x2a99
=== CODE BLOCK END ===

=== CODE BLOCK ADDRESS 0x2a99 ===
  0x2a99	imul   	eax, eax, 0
  0x2a9c	dec    	eax
  0x2a9d	mov    	ecx, dword ptr [0xb7e5]
  0x2aa3	dec    	eax
  0x2aa4	mov    	dword ptr [esp + eax + 0x68], ecx
  === BLOCK LINK ===
    0x2aa8
=== CODE BLOCK END ===

=== CODE BLOCK ADDRESS 0x2aa8 ===
  0x2aa8	mov    	eax, 8
  0x2aad	dec    	eax
  0x2aae	imul   	eax, eax, 1
  0x2ab1	dec    	eax
  0x2ab2	mov    	ecx, dword ptr [0xb7d8]
  === BLOCK LINK ===
    0x2ab8
=== CODE BLOCK END ===

=== CODE BLOCK ADDRESS 0x2ab8 ===
  0x2ab8	dec    	eax
  0x2ab9	mov    	dword ptr [esp + eax + 0x68], ecx
  0x2abd	dec    	eax
  0x2abe	lea    	ecx, [0x853c]
  0x2ac4	call   	0x2924
  === BLOCK LINK ===
    0x2ac9
=== CODE BLOCK END ===

=== CODE BLOCK ADDRESS 0x2ac9 ===
  0x2ac9	dec    	eax
  0x2aca	add    	esp, 0x88
  0x2ad0	ret    	
  0x2ad1	int3   	
  0x2ad2	int3   	
  === BLOCK LINK ===
    0x2ad3
=== CODE BLOCK END ===

=== CODE BLOCK ADDRESS 0x34e4 ===
=== CODE BLOCK END ===

=== CODE BLOCK ADDRESS 0x2ad3 ===
  0x2ad3	int3   	
  0x2ad4	int3   	
  0x2ad5	int3   	
  0x2ad6	int3   	
  0x2ad7	int3   	
  === BLOCK LINK ===
    0x2ad8
=== CODE BLOCK END ===

=== CODE BLOCK ADDRESS 0x2ad8 ===
  0x2ad8	dec    	eax
  0x2ad9	sub    	esp, 0x78
  0x2adc	dec    	eax
  0x2add	lea    	ecx, [0xbc2d]
  0x2ae3	call   	dword ptr [0x88bf]
  === BLOCK LINK ===
    0x2ae9
=== CODE BLOCK END ===

=== CODE BLOCK ADDRESS 0x2ae9 ===
  0x2ae9	dec    	eax
  0x2aea	mov    	eax, dword ptr [0xbd18]
  0x2af0	dec    	eax
  0x2af1	mov    	dword ptr [esp + 0x48], eax
  0x2af5	inc    	ebp
  === BLOCK LINK ===
    0x2af6
=== CODE BLOCK END ===

=== CODE BLOCK ADDRESS 0x2af6 ===
  0x2af6	xor    	eax, eax
  0x2af8	dec    	eax
  0x2af9	lea    	edx, [esp + 0x50]
  0x2afd	dec    	eax
  0x2afe	mov    	ecx, dword ptr [esp + 0x48]
  === BLOCK LINK ===
    0x2b02
=== CODE BLOCK END ===

=== CODE BLOCK ADDRESS 0x2b02 ===
  0x2b02	call   	dword ptr [0x88a8]
  === BLOCK LINK ===
    0x2b08
=== CODE BLOCK END ===

=== CODE BLOCK ADDRESS 0x2b08 ===
  0x2b08	dec    	eax
  0x2b09	mov    	dword ptr [esp + 0x40], eax
  0x2b0d	dec    	eax
  0x2b0e	cmp    	dword ptr [esp + 0x40], 0
  0x2b13	je     	0x2b57
  === BLOCK LINK ===
    0x2b15
=== CODE BLOCK END ===

=== CODE BLOCK ADDRESS 0x2b15 ===
  0x2b15	dec    	eax
  0x2b16	mov    	dword ptr [esp + 0x38], 0
  0x2b1e	dec    	eax
  0x2b1f	lea    	eax, [esp + 0x58]
  0x2b23	dec    	eax
  === BLOCK LINK ===
    0x2b24
=== CODE BLOCK END ===

=== CODE BLOCK ADDRESS 0x2b24 ===
  0x2b24	mov    	dword ptr [esp + 0x30], eax
  0x2b28	dec    	eax
  0x2b29	lea    	eax, [esp + 0x60]
  0x2b2d	dec    	eax
  0x2b2e	mov    	dword ptr [esp + 0x28], eax
  === BLOCK LINK ===
    0x2b32
=== CODE BLOCK END ===

=== CODE BLOCK ADDRESS 0x2b32 ===
  0x2b32	dec    	eax
  0x2b33	lea    	eax, [0xbbd7]
  0x2b39	dec    	eax
  0x2b3a	mov    	dword ptr [esp + 0x20], eax
  0x2b3e	dec    	esp
  === BLOCK LINK ===
    0x2b3f
=== CODE BLOCK END ===

=== CODE BLOCK ADDRESS 0x2b3f ===
  0x2b3f	mov    	ecx, dword ptr [esp + 0x40]
  0x2b43	dec    	esp
  0x2b44	mov    	eax, dword ptr [esp + 0x48]
  0x2b48	dec    	eax
  0x2b49	mov    	edx, dword ptr [esp + 0x50]
  === BLOCK LINK ===
    0x2b4d
=== CODE BLOCK END ===

=== CODE BLOCK ADDRESS 0x2b4d ===
  0x2b4d	xor    	ecx, ecx
  0x2b4f	call   	dword ptr [0x8863]
  === BLOCK LINK ===
    0x2b55
=== CODE BLOCK END ===

=== CODE BLOCK ADDRESS 0x2b55 ===
  0x2b55	jmp    	0x2b7a
  === BLOCK LINK ===
    0x2b57
=== CODE BLOCK END ===

=== CODE BLOCK ADDRESS 0x2b57 ===
  0x2b57	dec    	eax
  0x2b58	mov    	eax, dword ptr [0xbc4a]
  0x2b5e	dec    	eax
  0x2b5f	mov    	eax, dword ptr [eax]
  0x2b61	dec    	eax
  === BLOCK LINK ===
    0x2b62
=== CODE BLOCK END ===

=== CODE BLOCK ADDRESS 0x2b62 ===
  0x2b62	mov    	dword ptr [0xbca0], eax
  0x2b68	dec    	eax
  0x2b69	mov    	eax, dword ptr [0xbc39]
  0x2b6f	dec    	eax
  0x2b70	add    	eax, 8
  === BLOCK LINK ===
    0x2b73
=== CODE BLOCK END ===

=== CODE BLOCK ADDRESS 0x2b73 ===
  0x2b73	dec    	eax
  0x2b74	mov    	dword ptr [0xbc2e], eax
  0x2b7a	dec    	eax
  0x2b7b	mov    	eax, dword ptr [0xbc87]
  0x2b81	dec    	eax
  === BLOCK LINK ===
    0x2b82
=== CODE BLOCK END ===

=== CODE BLOCK ADDRESS 0x2b82 ===
  0x2b82	mov    	dword ptr [0xbaf8], eax
  0x2b88	mov    	dword ptr [0xbade], 0xc0000409
  0x2b92	mov    	dword ptr [0xbad8], 1
  0x2b9c	mov    	dword ptr [0xbae2], 1
  0x2ba6	mov    	eax, 8
  === BLOCK LINK ===
    0x2bab
=== CODE BLOCK END ===

=== CODE BLOCK ADDRESS 0x2bab ===
  0x2bab	dec    	eax
  0x2bac	imul   	eax, eax, 0
  0x2baf	dec    	eax
  0x2bb0	lea    	ecx, [0xbada]
  0x2bb6	dec    	eax
  === BLOCK LINK ===
    0x2bb7
=== CODE BLOCK END ===

=== CODE BLOCK ADDRESS 0x2bb7 ===
  0x2bb7	mov    	dword ptr [ecx + eax], 8
  0x2bbe	dec    	eax
  0x2bbf	lea    	ecx, [0x843b]
  0x2bc5	call   	0x2924
  === BLOCK LINK ===
    0x2bca
=== CODE BLOCK END ===

=== CODE BLOCK ADDRESS 0x2bca ===
  0x2bca	dec    	eax
  0x2bcb	add    	esp, 0x78
  0x2bce	ret    	
  0x2bcf	int3   	
  0x2bd0	int3   	
  === BLOCK LINK ===
    0x2bd1
=== CODE BLOCK END ===

=== CODE BLOCK ADDRESS 0x34f8 ===
=== CODE BLOCK END ===

=== CODE BLOCK ADDRESS 0x2bd1 ===
  0x2bd1	int3   	
  0x2bd2	int3   	
  0x2bd3	int3   	
  0x2bd4	int3   	
  0x2bd5	int3   	
  === BLOCK LINK ===
    0x2bd6
=== CODE BLOCK END ===

=== CODE BLOCK ADDRESS 0x2bd6 ===
  0x2bd6	int3   	
  0x2bd7	int3   	
  0x2bd8	int3   	
  0x2bd9	int3   	
  0x2bda	int3   	
  === BLOCK LINK ===
    0x2bdb
=== CODE BLOCK END ===

=== CODE BLOCK ADDRESS 0x2bdb ===
  0x2bdb	int3   	
  0x2bdc	int3   	
  0x2bdd	int3   	
  0x2bde	int3   	
  0x2bdf	int3   	
  === BLOCK LINK ===
    0x2be0
=== CODE BLOCK END ===

=== CODE BLOCK ADDRESS 0x2be0 ===
  0x2be0	dec    	eax
  0x2be1	sub    	esp, 0x28
  0x2be4	dec    	eax
  0x2be5	mov    	eax, dword ptr [ecx]
  0x2be7	cmp    	dword ptr [eax], 0xe06d7363
  === BLOCK LINK ===
    0x2bed
=== CODE BLOCK END ===

=== CODE BLOCK ADDRESS 0x2bed ===
  0x2bed	jne    	0x2c12
  === BLOCK LINK ===
    0x2bef
=== CODE BLOCK END ===

=== CODE BLOCK ADDRESS 0x2bef ===
  0x2bef	cmp    	dword ptr [eax + 0x18], 4
  0x2bf3	jne    	0x2c12
  === BLOCK LINK ===
    0x2bf5
=== CODE BLOCK END ===

=== CODE BLOCK ADDRESS 0x2bf5 ===
  0x2bf5	mov    	ecx, dword ptr [eax + 0x20]
  0x2bf8	lea    	eax, [ecx - 0x19930520]
  0x2bfe	cmp    	eax, 2
  0x2c01	jbe    	0x2c0b
  === BLOCK LINK ===
    0x2c03
=== CODE BLOCK END ===

=== CODE BLOCK ADDRESS 0x2c03 ===
  0x2c03	cmp    	ecx, 0x1994000
  0x2c09	jne    	0x2c12
  === BLOCK LINK ===
    0x2c0b
=== CODE BLOCK END ===

=== CODE BLOCK ADDRESS 0x2c0b ===
  0x2c0b	call   	dword ptr [0x88d7]
  === BLOCK LINK ===
    0x2c11
=== CODE BLOCK END ===

=== CODE BLOCK ADDRESS 0x2c11 ===
  0x2c11	int3   	
  0x2c12	xor    	eax, eax
  0x2c14	dec    	eax
  0x2c15	add    	esp, 0x28
  0x2c18	ret    	
  === BLOCK LINK ===
    0x2c19
=== CODE BLOCK END ===

=== CODE BLOCK ADDRESS 0x351b ===
  0x351b	xor    	edx, edx
  0x351d	mov    	ecx, eax
  0x351f	call   	0x7ea4
  === BLOCK LINK ===
    0x3524
=== CODE BLOCK END ===

=== CODE BLOCK ADDRESS 0x2c19 ===
  0x2c19	int3   	
  0x2c1a	int3   	
  0x2c1b	int3   	
  0x2c1c	int3   	
  0x2c1d	int3   	
  === BLOCK LINK ===
    0x2c1e
=== CODE BLOCK END ===

=== CODE BLOCK ADDRESS 0x2c1e ===
  0x2c1e	int3   	
  0x2c1f	int3   	
  0x2c20	dec    	eax
  0x2c21	sub    	esp, 0x28
  0x2c24	dec    	eax
  === BLOCK LINK ===
    0x2c25
=== CODE BLOCK END ===

=== CODE BLOCK ADDRESS 0x2c25 ===
  0x2c25	lea    	ecx, [0xffffffb5]
  0x2c2b	call   	dword ptr [0x860f]
  === BLOCK LINK ===
    0x2c31
=== CODE BLOCK END ===

=== CODE BLOCK ADDRESS 0x2c31 ===
  0x2c31	xor    	eax, eax
  0x2c33	dec    	eax
  0x2c34	add    	esp, 0x28
  0x2c37	ret    	
  0x2c38	int3   	
  === BLOCK LINK ===
    0x2c39
=== CODE BLOCK END ===

=== CODE BLOCK ADDRESS 0x352f ===
=== CODE BLOCK END ===

=== CODE BLOCK ADDRESS 0x2c39 ===
  0x2c39	int3   	
  0x2c3a	int3   	
  0x2c3b	int3   	
  0x2c3c	int3   	
  0x2c3d	int3   	
  === BLOCK LINK ===
    0x2c3e
=== CODE BLOCK END ===

=== CODE BLOCK ADDRESS 0x2c3e ===
  0x2c3e	jmp    	dword ptr [0x886c]
  === BLOCK LINK ===
    0x2c44
=== CODE BLOCK END ===

=== CODE BLOCK ADDRESS 0x2c44 ===
  0x2c44	int3   	
  0x2c45	int3   	
  0x2c46	int3   	
  0x2c47	int3   	
  0x2c48	int3   	
  === BLOCK LINK ===
    0x2c49
=== CODE BLOCK END ===

=== CODE BLOCK ADDRESS 0x2c49 ===
  0x2c49	int3   	
  0x2c4a	int3   	
  0x2c4b	int3   	
  0x2c4c	dec    	eax
  0x2c4d	sub    	esp, 0x18
  === BLOCK LINK ===
    0x2c50
=== CODE BLOCK END ===

=== CODE BLOCK ADDRESS 0x2c50 ===
  0x2c50	xor    	edx, edx
  0x2c52	dec    	eax
  0x2c53	lea    	eax, [ecx - 1]
  0x2c56	dec    	eax
  0x2c57	cmp    	eax, -3
  === BLOCK LINK ===
    0x2c5a
=== CODE BLOCK END ===

=== CODE BLOCK ADDRESS 0x2c5a ===
  0x2c5a	ja     	0x2c98
  === BLOCK LINK ===
    0x2c5c
=== CODE BLOCK END ===

=== CODE BLOCK ADDRESS 0x2c5c ===
  0x2c5c	mov    	eax, 0x5a4d
  0x2c61	cmp    	word ptr [ecx], ax
  0x2c64	jne    	0x2c90
  === BLOCK LINK ===
    0x2c66
=== CODE BLOCK END ===

=== CODE BLOCK ADDRESS 0x2c66 ===
  0x2c66	cmp    	dword ptr [ecx + 0x3c], edx
  0x2c69	jl     	0x2c90
  === BLOCK LINK ===
    0x2c6b
=== CODE BLOCK END ===

=== CODE BLOCK ADDRESS 0x2c6b ===
  0x2c6b	cmp    	dword ptr [ecx + 0x3c], 0x10000000
  0x2c72	jae    	0x2c90
  === BLOCK LINK ===
    0x2c74
=== CODE BLOCK END ===

=== CODE BLOCK ADDRESS 0x2c74 ===
  0x2c74	dec    	eax
  0x2c75	arpl   	word ptr [ecx + 0x3c], ax
  0x2c78	dec    	eax
  0x2c79	add    	eax, ecx
  0x2c7b	dec    	eax
  === BLOCK LINK ===
    0x2c7c
=== CODE BLOCK END ===

=== CODE BLOCK ADDRESS 0x2c7c ===
  0x2c7c	mov    	dword ptr [esp], eax
  0x2c7f	cmp    	dword ptr [eax], 0x4550
  0x2c85	dec    	eax
  0x2c86	cmovne  	eax, edx
  0x2c89	dec    	eax
  === BLOCK LINK ===
    0x2c8a
=== CODE BLOCK END ===

=== CODE BLOCK ADDRESS 0x2c8a ===
  0x2c8a	mov    	edx, eax
  0x2c8c	dec    	eax
  0x2c8d	mov    	dword ptr [esp], eax
  0x2c90	jmp    	0x2c98
  === BLOCK LINK ===
    0x2c92
=== CODE BLOCK END ===

=== CODE BLOCK ADDRESS 0x2c92 ===
  0x2c92	xor    	edx, edx
  0x2c94	dec    	eax
  0x2c95	mov    	dword ptr [esp], edx
  0x2c98	dec    	eax
  0x2c99	mov    	eax, edx
  === BLOCK LINK ===
    0x2c9b
=== CODE BLOCK END ===

=== CODE BLOCK ADDRESS 0x2c9b ===
  0x2c9b	dec    	eax
  0x2c9c	add    	esp, 0x18
  0x2c9f	ret    	
  0x2ca0	int3   	
  0x2ca1	int3   	
  === BLOCK LINK ===
    0x2ca2
=== CODE BLOCK END ===

=== CODE BLOCK ADDRESS 0x3540 ===
  0x3540	dec    	eax
  0x3541	mov    	ecx, eax
  0x3543	dec    	eax
  0x3544	mov    	eax, dword ptr [eax + 8]
  0x3547	dec    	eax
  === BLOCK LINK ===
    0x3548
=== CODE BLOCK END ===

=== CODE BLOCK ADDRESS 0x2ca2 ===
  0x2ca2	int3   	
  0x2ca3	int3   	
  0x2ca4	int3   	
  0x2ca5	int3   	
  0x2ca6	int3   	
  === BLOCK LINK ===
    0x2ca7
=== CODE BLOCK END ===

=== CODE BLOCK ADDRESS 0x2ca7 ===
  0x2ca7	int3   	
  0x2ca8	inc    	eax
  0x2ca9	push   	ebx
  0x2caa	dec    	eax
  0x2cab	sub    	esp, 0x20
  === BLOCK LINK ===
    0x2cae
=== CODE BLOCK END ===

=== CODE BLOCK ADDRESS 0x2cae ===
  0x2cae	mov    	ebx, ecx
  0x2cb0	xor    	ecx, ecx
  0x2cb2	call   	dword ptr [0x8608]
  === BLOCK LINK ===
    0x2cb8
=== CODE BLOCK END ===

=== CODE BLOCK ADDRESS 0x2cb8 ===
  0x2cb8	dec    	eax
  0x2cb9	test   	eax, eax
  0x2cbb	je     	0x2ce5
  === BLOCK LINK ===
    0x2cbd
=== CODE BLOCK END ===

=== CODE BLOCK ADDRESS 0x2cbd ===
  0x2cbd	dec    	eax
  0x2cbe	mov    	ecx, eax
  0x2cc0	call   	0x2c4c
  === BLOCK LINK ===
    0x2cc5
=== CODE BLOCK END ===

=== CODE BLOCK ADDRESS 0x2cc5 ===
  0x2cc5	dec    	eax
  0x2cc6	test   	eax, eax
  0x2cc8	je     	0x2ce5
  === BLOCK LINK ===
    0x2cca
=== CODE BLOCK END ===

=== CODE BLOCK ADDRESS 0x2cca ===
  0x2cca	mov    	ecx, 2
  0x2ccf	cmp    	word ptr [eax + 0x5c], cx
  0x2cd3	jne    	0x2cd9
  === BLOCK LINK ===
    0x2cd5
=== CODE BLOCK END ===

=== CODE BLOCK ADDRESS 0x2cd5 ===
  0x2cd5	mov    	eax, ecx
  0x2cd7	jmp    	0x2ce7
  === BLOCK LINK ===
    0x2cd9
=== CODE BLOCK END ===

=== CODE BLOCK ADDRESS 0x2cd9 ===
  0x2cd9	cmp    	word ptr [eax + 0x5c], 3
  0x2cde	mov    	eax, 1
  0x2ce3	je     	0x2ce7
  === BLOCK LINK ===
    0x2ce5
=== CODE BLOCK END ===

=== CODE BLOCK ADDRESS 0x2ce5 ===
  0x2ce5	mov    	eax, ebx
  0x2ce7	dec    	eax
  0x2ce8	add    	esp, 0x20
  0x2ceb	pop    	ebx
  0x2cec	ret    	
  === BLOCK LINK ===
    0x2ced
=== CODE BLOCK END ===

=== CODE BLOCK ADDRESS 0x2f08 ===
=== CODE BLOCK END ===

=== CODE BLOCK ADDRESS 0x2ced ===
  0x2ced	int3   	
  0x2cee	int3   	
  0x2cef	int3   	
  0x2cf0	int3   	
  0x2cf1	int3   	
  === BLOCK LINK ===
    0x2cf2
=== CODE BLOCK END ===

=== CODE BLOCK ADDRESS 0x2cf2 ===
  0x2cf2	int3   	
  0x2cf3	jmp    	dword ptr [0x8887]
  === BLOCK LINK ===
    0x2cf9
=== CODE BLOCK END ===

=== CODE BLOCK ADDRESS 0x2cf9 ===
  0x2cf9	int3   	
  0x2cfa	int3   	
  0x2cfb	int3   	
  0x2cfc	int3   	
  0x2cfd	int3   	
  === BLOCK LINK ===
    0x2cfe
=== CODE BLOCK END ===

=== CODE BLOCK ADDRESS 0x2cfe ===
  0x2cfe	int3   	
  0x2cff	int3   	
  0x2d00	xor    	eax, eax
  0x2d02	ret    	
  0x2d03	int3   	
  === BLOCK LINK ===
    0x2d04
=== CODE BLOCK END ===

=== CODE BLOCK ADDRESS 0x2d04 ===
  0x2d04	int3   	
  0x2d05	int3   	
  0x2d06	int3   	
  0x2d07	int3   	
  0x2d08	int3   	
  === BLOCK LINK ===
    0x2d09
=== CODE BLOCK END ===

=== CODE BLOCK ADDRESS 0x2d09 ===
  0x2d09	int3   	
  0x2d0a	int3   	
  0x2d0b	int3   	
  0x2d0c	int3   	
  0x2d0d	int3   	
  === BLOCK LINK ===
    0x2d0e
=== CODE BLOCK END ===

=== CODE BLOCK ADDRESS 0x2d0e ===
  0x2d0e	int3   	
  0x2d0f	int3   	
  0x2d10	dec    	esp
  0x2d11	arpl   	word ptr [ecx + 0x3c], ax
  0x2d14	inc    	ebp
  === BLOCK LINK ===
    0x2d15
=== CODE BLOCK END ===

=== CODE BLOCK ADDRESS 0x2d15 ===
  0x2d15	xor    	ecx, ecx
  0x2d17	dec    	esp
  0x2d18	add    	eax, ecx
  0x2d1a	dec    	esp
  0x2d1b	mov    	edx, edx
  === BLOCK LINK ===
    0x2d1d
=== CODE BLOCK END ===

=== CODE BLOCK ADDRESS 0x2d1d ===
  0x2d1d	inc    	ecx
  0x2d1e	movzx  	eax, word ptr [eax + 0x14]
  0x2d22	inc    	ebp
  0x2d23	movzx  	ebx, word ptr [eax + 6]
  0x2d27	dec    	eax
  === BLOCK LINK ===
    0x2d28
=== CODE BLOCK END ===

=== CODE BLOCK ADDRESS 0x2d28 ===
  0x2d28	add    	eax, 0x18
  0x2d2b	dec    	ecx
  0x2d2c	add    	eax, eax
  0x2d2e	inc    	ebp
  0x2d2f	test   	ebx, ebx
  === BLOCK LINK ===
    0x2d31
=== CODE BLOCK END ===

=== CODE BLOCK ADDRESS 0x2d31 ===
  0x2d31	je     	0x2d51
  === BLOCK LINK ===
    0x2d33
=== CODE BLOCK END ===

=== CODE BLOCK ADDRESS 0x2d33 ===
  0x2d33	mov    	edx, dword ptr [eax + 0xc]
  0x2d36	dec    	esp
  0x2d37	cmp    	edx, edx
  0x2d39	jb     	0x2d45
  === BLOCK LINK ===
    0x2d3b
=== CODE BLOCK END ===

=== CODE BLOCK ADDRESS 0x2d3b ===
  0x2d3b	mov    	ecx, dword ptr [eax + 8]
  0x2d3e	add    	ecx, edx
  0x2d40	dec    	esp
  0x2d41	cmp    	edx, ecx
  0x2d43	jb     	0x2d53
  === BLOCK LINK ===
    0x2d45
=== CODE BLOCK END ===

=== CODE BLOCK ADDRESS 0x2d45 ===
  0x2d45	inc    	ecx
  0x2d46	inc    	ecx
  0x2d48	dec    	eax
  0x2d49	add    	eax, 0x28
  0x2d4c	inc    	ebp
  === BLOCK LINK ===
    0x2d4d
=== CODE BLOCK END ===

=== CODE BLOCK ADDRESS 0x2d4d ===
  0x2d4d	cmp    	ecx, ebx
  0x2d4f	jb     	0x2d33
  === BLOCK LINK ===
    0x2d51
=== CODE BLOCK END ===

=== CODE BLOCK ADDRESS 0x2d51 ===
  0x2d51	xor    	eax, eax
  0x2d53	ret    	
  0x2d54	int3   	
  0x2d55	int3   	
  0x2d56	int3   	
  === BLOCK LINK ===
    0x2d57
=== CODE BLOCK END ===

=== CODE BLOCK ADDRESS 0x15e0 ===
  0x15e0	dec    	eax
  0x15e1	mov    	dword ptr [esp + 0x18], ebx
  0x15e5	push   	ebp
  === BLOCK LINK ===
    0x15e6
=== CODE BLOCK END ===

=== CODE BLOCK ADDRESS 0x2d57 ===
  0x2d57	int3   	
  0x2d58	int3   	
  0x2d59	int3   	
  0x2d5a	int3   	
  0x2d5b	int3   	
  === BLOCK LINK ===
    0x2d5c
=== CODE BLOCK END ===

=== CODE BLOCK ADDRESS 0x2d5c ===
  0x2d5c	int3   	
  0x2d5d	int3   	
  0x2d5e	int3   	
  0x2d5f	int3   	
  0x2d60	dec    	eax
  === BLOCK LINK ===
    0x2d61
=== CODE BLOCK END ===

=== CODE BLOCK ADDRESS 0x2d61 ===
  0x2d61	mov    	dword ptr [esp + 8], ebx
  0x2d65	push   	edi
  0x2d66	dec    	eax
  0x2d67	sub    	esp, 0x20
  0x2d6a	dec    	eax
  === BLOCK LINK ===
    0x2d6b
=== CODE BLOCK END ===

=== CODE BLOCK ADDRESS 0x2d6b ===
  0x2d6b	mov    	ebx, ecx
  0x2d6d	dec    	eax
  0x2d6e	lea    	edi, [0xffffd28c]
  0x2d74	dec    	eax
  0x2d75	mov    	ecx, edi
  === BLOCK LINK ===
    0x2d77
=== CODE BLOCK END ===

=== CODE BLOCK ADDRESS 0x2d77 ===
  0x2d77	call   	0x2dc0
  === BLOCK LINK ===
    0x2d7c
=== CODE BLOCK END ===

=== CODE BLOCK ADDRESS 0x2d7c ===
  0x2d7c	test   	eax, eax
  0x2d7e	je     	0x2da2
  === BLOCK LINK ===
    0x2d80
=== CODE BLOCK END ===

=== CODE BLOCK ADDRESS 0x2d80 ===
  0x2d80	dec    	eax
  0x2d81	sub    	ebx, edi
  0x2d83	dec    	eax
  0x2d84	mov    	edx, ebx
  0x2d86	dec    	eax
  === BLOCK LINK ===
    0x2d87
=== CODE BLOCK END ===

=== CODE BLOCK ADDRESS 0x2d87 ===
  0x2d87	mov    	ecx, edi
  0x2d89	call   	0x2d10
  === BLOCK LINK ===
    0x2d8e
=== CODE BLOCK END ===

=== CODE BLOCK ADDRESS 0x2d8e ===
  0x2d8e	dec    	eax
  0x2d8f	test   	eax, eax
  0x2d91	je     	0x2da2
  === BLOCK LINK ===
    0x2d93
=== CODE BLOCK END ===

=== CODE BLOCK ADDRESS 0x2d93 ===
  0x2d93	mov    	eax, dword ptr [eax + 0x24]
  0x2d96	shr    	eax, 0x1f
  0x2d99	not    	eax
  0x2d9b	and    	eax, 1
  0x2d9e	jmp    	0x2da2
  === BLOCK LINK ===
    0x2da0
=== CODE BLOCK END ===

=== CODE BLOCK ADDRESS 0x2da0 ===
  0x2da0	xor    	eax, eax
  0x2da2	dec    	eax
  0x2da3	mov    	ebx, dword ptr [esp + 0x30]
  0x2da7	dec    	eax
  0x2da8	add    	esp, 0x20
  === BLOCK LINK ===
    0x2dab
=== CODE BLOCK END ===

=== CODE BLOCK ADDRESS 0x2dab ===
  0x2dab	pop    	edi
  0x2dac	ret    	
  0x2dad	int3   	
  0x2dae	int3   	
  0x2daf	int3   	
  === BLOCK LINK ===
    0x2db0
=== CODE BLOCK END ===

=== CODE BLOCK ADDRESS 0x8378 ===
=== CODE BLOCK END ===

=== CODE BLOCK ADDRESS 0x2db0 ===
  0x2db0	int3   	
  0x2db1	int3   	
  0x2db2	int3   	
  0x2db3	int3   	
  0x2db4	int3   	
  === BLOCK LINK ===
    0x2db5
=== CODE BLOCK END ===

=== CODE BLOCK ADDRESS 0x2db5 ===
  0x2db5	int3   	
  0x2db6	int3   	
  0x2db7	int3   	
  0x2db8	int3   	
  0x2db9	int3   	
  === BLOCK LINK ===
    0x2dba
=== CODE BLOCK END ===

=== CODE BLOCK ADDRESS 0x2dba ===
  0x2dba	int3   	
  0x2dbb	int3   	
  0x2dbc	int3   	
  0x2dbd	int3   	
  0x2dbe	int3   	
  === BLOCK LINK ===
    0x2dbf
=== CODE BLOCK END ===

=== CODE BLOCK ADDRESS 0x2dbf ===
  0x2dbf	int3   	
  0x2dc0	mov    	eax, 0x5a4d
  0x2dc5	cmp    	word ptr [ecx], ax
  0x2dc8	jne    	0x2dea
  === BLOCK LINK ===
    0x2dca
=== CODE BLOCK END ===

=== CODE BLOCK ADDRESS 0x2dca ===
  0x2dca	dec    	eax
  0x2dcb	arpl   	word ptr [ecx + 0x3c], ax
  0x2dce	dec    	eax
  0x2dcf	add    	eax, ecx
  0x2dd1	cmp    	dword ptr [eax], 0x4550
  === BLOCK LINK ===
    0x2dd7
=== CODE BLOCK END ===

=== CODE BLOCK ADDRESS 0x2dd7 ===
  0x2dd7	jne    	0x2dea
  === BLOCK LINK ===
    0x2dd9
=== CODE BLOCK END ===

=== CODE BLOCK ADDRESS 0x2dd9 ===
  0x2dd9	mov    	ecx, 0x20b
  0x2dde	cmp    	word ptr [eax + 0x18], cx
  0x2de2	jne    	0x2dea
  === BLOCK LINK ===
    0x2de4
=== CODE BLOCK END ===

=== CODE BLOCK ADDRESS 0x2de4 ===
  0x2de4	mov    	eax, 1
  0x2de9	ret    	
  0x2dea	xor    	eax, eax
  0x2dec	ret    	
  0x2ded	int3   	
  === BLOCK LINK ===
    0x2dee
=== CODE BLOCK END ===

=== CODE BLOCK ADDRESS 0x1431 ===
=== CODE BLOCK END ===

=== CODE BLOCK ADDRESS 0x2dee ===
  0x2dee	int3   	
  0x2def	int3   	
  0x2df0	int3   	
  0x2df1	int3   	
  0x2df2	int3   	
  === BLOCK LINK ===
    0x2df3
=== CODE BLOCK END ===

=== CODE BLOCK ADDRESS 0x2df3 ===
  0x2df3	int3   	
  0x2df4	dec    	eax
  0x2df5	mov    	dword ptr [esp + 0x20], ebx
  0x2df9	push   	ebp
  0x2dfa	dec    	eax
  === BLOCK LINK ===
    0x2dfb
=== CODE BLOCK END ===

=== CODE BLOCK ADDRESS 0x2dfb ===
  0x2dfb	mov    	ebp, esp
  0x2dfd	dec    	eax
  0x2dfe	sub    	esp, 0x20
  0x2e01	dec    	eax
  0x2e02	and    	dword ptr [ebp + 0x18], 0
  === BLOCK LINK ===
    0x2e06
=== CODE BLOCK END ===

=== CODE BLOCK ADDRESS 0x2e06 ===
  0x2e06	dec    	eax
  0x2e07	mov    	ebx, 0x2ddfa232
  0x2e0c	cdq    	
  0x2e0d	sub    	eax, dword ptr [eax]
  0x2e0f	add    	byte ptr [eax - 0x75], cl
  === BLOCK LINK ===
    0x2e12
=== CODE BLOCK END ===

=== CODE BLOCK ADDRESS 0x2e12 ===
  0x2e12	add    	eax, 0xb471
  0x2e17	dec    	eax
  0x2e18	cmp    	eax, ebx
  0x2e1a	jne    	0x2eb3
  === BLOCK LINK ===
    0x2e20
=== CODE BLOCK END ===

=== CODE BLOCK ADDRESS 0x2e20 ===
  0x2e20	dec    	eax
  0x2e21	lea    	ecx, [ebp + 0x18]
  0x2e24	call   	dword ptr [0x85de]
  === BLOCK LINK ===
    0x2e2a
=== CODE BLOCK END ===

=== CODE BLOCK ADDRESS 0x2e2a ===
  0x2e2a	dec    	eax
  0x2e2b	mov    	eax, dword ptr [ebp + 0x18]
  0x2e2e	dec    	eax
  0x2e2f	mov    	dword ptr [ebp + 0x10], eax
  0x2e32	call   	dword ptr [0x84e8]
  === BLOCK LINK ===
    0x2e38
=== CODE BLOCK END ===

=== CODE BLOCK ADDRESS 0x2e38 ===
  0x2e38	mov    	eax, eax
  0x2e3a	dec    	eax
  0x2e3b	xor    	dword ptr [ebp + 0x10], eax
  0x2e3e	call   	dword ptr [0x84e4]
  === BLOCK LINK ===
    0x2e44
=== CODE BLOCK END ===

=== CODE BLOCK ADDRESS 0x2e44 ===
  0x2e44	mov    	eax, eax
  0x2e46	dec    	eax
  0x2e47	xor    	dword ptr [ebp + 0x10], eax
  0x2e4a	call   	dword ptr [0x85b0]
  === BLOCK LINK ===
    0x2e50
=== CODE BLOCK END ===

=== CODE BLOCK ADDRESS 0x2e50 ===
  0x2e50	mov    	eax, eax
  0x2e52	dec    	eax
  0x2e53	shl    	eax, 0x18
  0x2e56	dec    	eax
  0x2e57	xor    	dword ptr [ebp + 0x10], eax
  === BLOCK LINK ===
    0x2e5a
=== CODE BLOCK END ===

=== CODE BLOCK ADDRESS 0x2e5a ===
  0x2e5a	call   	dword ptr [0x85a0]
  === BLOCK LINK ===
    0x2e60
=== CODE BLOCK END ===

=== CODE BLOCK ADDRESS 0x2e60 ===
  0x2e60	mov    	eax, eax
  0x2e62	dec    	eax
  0x2e63	lea    	ecx, [ebp + 0x10]
  0x2e66	dec    	eax
  0x2e67	xor    	eax, dword ptr [ebp + 0x10]
  === BLOCK LINK ===
    0x2e6a
=== CODE BLOCK END ===

=== CODE BLOCK ADDRESS 0x2e6a ===
  0x2e6a	dec    	eax
  0x2e6b	xor    	eax, ecx
  0x2e6d	dec    	eax
  0x2e6e	lea    	ecx, [ebp + 0x20]
  0x2e71	dec    	eax
  === BLOCK LINK ===
    0x2e72
=== CODE BLOCK END ===

=== CODE BLOCK ADDRESS 0x2e72 ===
  0x2e72	mov    	dword ptr [ebp + 0x10], eax
  0x2e75	call   	dword ptr [0x84dd]
  === BLOCK LINK ===
    0x2e7b
=== CODE BLOCK END ===

=== CODE BLOCK ADDRESS 0x2e7b ===
  0x2e7b	mov    	eax, dword ptr [ebp + 0x20]
  0x2e7e	dec    	eax
  0x2e7f	mov    	ecx, 0xffffffff
  0x2e84	.byte  	0xff
  0x2e85	inc    	dword ptr [eax]
  === BLOCK LINK ===
    0x2e87
=== CODE BLOCK END ===

=== CODE BLOCK ADDRESS 0x2e87 ===
  0x2e87	add    	byte ptr [eax - 0x3f], cl
  0x2e8a	loopne  	0x2eac
  === BLOCK LINK ===
    0x2e8c
=== CODE BLOCK END ===

=== CODE BLOCK ADDRESS 0x2e8c ===
  0x2e8c	dec    	eax
  0x2e8d	xor    	eax, dword ptr [ebp + 0x20]
  0x2e90	dec    	eax
  0x2e91	xor    	eax, dword ptr [ebp + 0x10]
  0x2e94	dec    	eax
  === BLOCK LINK ===
    0x2e95
=== CODE BLOCK END ===

=== CODE BLOCK ADDRESS 0x2e95 ===
  0x2e95	and    	eax, ecx
  0x2e97	dec    	eax
  0x2e98	mov    	ecx, eax
  0x2e9a	dec    	eax
  0x2e9b	cmp    	eax, ebx
  === BLOCK LINK ===
    0x2e9d
=== CODE BLOCK END ===

=== CODE BLOCK ADDRESS 0x2e9d ===
  0x2e9d	jne    	0x2eac
  === BLOCK LINK ===
    0x2e9f
=== CODE BLOCK END ===

=== CODE BLOCK ADDRESS 0x2e9f ===
  0x2e9f	dec    	eax
  0x2ea0	mov    	eax, 0x2ddfa233
  0x2ea5	cdq    	
  0x2ea6	sub    	eax, dword ptr [eax]
  0x2ea8	add    	byte ptr [eax - 0x75], cl
  === BLOCK LINK ===
    0x2eab
=== CODE BLOCK END ===

=== CODE BLOCK ADDRESS 0x2eab ===
  0x2eab	enter  	-0x76b8, 0xd
  0x2eaf	aad    	0xb3
  0x2eb1	add    	byte ptr [eax], al
  0x2eb3	dec    	eax
  0x2eb4	mov    	ebx, dword ptr [esp + 0x48]
  === BLOCK LINK ===
    0x2eb8
=== CODE BLOCK END ===

=== CODE BLOCK ADDRESS 0x2eb8 ===
  0x2eb8	dec    	eax
  0x2eb9	not    	eax
  0x2ebb	dec    	eax
  0x2ebc	mov    	dword ptr [0xb3ce], eax
  0x2ec2	dec    	eax
  === BLOCK LINK ===
    0x2ec3
=== CODE BLOCK END ===

=== CODE BLOCK ADDRESS 0x2ec3 ===
  0x2ec3	add    	esp, 0x20
  0x2ec6	pop    	ebp
  0x2ec7	ret    	
  0x2ec8	int3   	
  0x2ec9	int3   	
  === BLOCK LINK ===
    0x2eca
=== CODE BLOCK END ===

=== CODE BLOCK ADDRESS 0x2eca ===
  0x2eca	int3   	
  0x2ecb	int3   	
  0x2ecc	int3   	
  0x2ecd	int3   	
  0x2ece	jmp    	dword ptr [0x8634]
  === BLOCK LINK ===
    0x2ed4
=== CODE BLOCK END ===

=== CODE BLOCK ADDRESS 0x2ed4 ===
  0x2ed4	int3   	
  0x2ed5	int3   	
  0x2ed6	int3   	
  0x2ed7	int3   	
  0x2ed8	int3   	
  === BLOCK LINK ===
    0x2ed9
=== CODE BLOCK END ===

=== CODE BLOCK ADDRESS 0x2ed9 ===
  0x2ed9	int3   	
  0x2eda	jmp    	dword ptr [0x8620]
  === BLOCK LINK ===
    0x2ee0
=== CODE BLOCK END ===

=== CODE BLOCK ADDRESS 0x2ee0 ===
  0x2ee0	int3   	
  0x2ee1	int3   	
  0x2ee2	int3   	
  0x2ee3	int3   	
  0x2ee4	int3   	
  === BLOCK LINK ===
    0x2ee5
=== CODE BLOCK END ===

=== CODE BLOCK ADDRESS 0x2ee5 ===
  0x2ee5	int3   	
  0x2ee6	int3   	
  0x2ee7	int3   	
  0x2ee8	int3   	
  0x2ee9	int3   	
  === BLOCK LINK ===
    0x2eea
=== CODE BLOCK END ===

=== CODE BLOCK ADDRESS 0x2eea ===
  0x2eea	int3   	
  0x2eeb	int3   	
  0x2eec	int3   	
  0x2eed	int3   	
  0x2eee	int3   	
  === BLOCK LINK ===
    0x2eef
=== CODE BLOCK END ===

=== CODE BLOCK ADDRESS 0x2eef ===
  0x2eef	int3   	
  0x2ef0	ret    	0
  0x2ef3	int3   	
  0x2ef4	int3   	
  0x2ef5	int3   	
  === BLOCK LINK ===
    0x2ef6
=== CODE BLOCK END ===

=== CODE BLOCK ADDRESS 0x2ef6 ===
  0x2ef6	int3   	
  0x2ef7	int3   	
  0x2ef8	int3   	
  0x2ef9	int3   	
  0x2efa	int3   	
  === BLOCK LINK ===
    0x2efb
=== CODE BLOCK END ===

=== CODE BLOCK ADDRESS 0x2efb ===
  0x2efb	int3   	
  0x2efc	int3   	
  0x2efd	int3   	
  0x2efe	int3   	
  0x2eff	int3   	
  === BLOCK LINK ===
    0x2f00
=== CODE BLOCK END ===

=== CODE BLOCK ADDRESS 0x2f00 ===
  0x2f00	int3   	
  0x2f01	int3   	
  0x2f02	int3   	
  0x2f03	int3   	
  0x2f04	int3   	
  === BLOCK LINK ===
    0x2f05
=== CODE BLOCK END ===

=== CODE BLOCK ADDRESS 0x2f05 ===
  0x2f05	int3   	
  0x2f06	int3   	
  0x2f07	int3   	
  0x2f08	inc    	eax
  0x2f09	push   	ebx
  === BLOCK LINK ===
    0x2f0a
=== CODE BLOCK END ===

=== CODE BLOCK ADDRESS 0x2f0a ===
  0x2f0a	dec    	eax
  0x2f0b	sub    	esp, 0x20
  0x2f0e	mov    	ebx, ecx
  0x2f10	call   	0x30fc
  === BLOCK LINK ===
    0x2f15
=== CODE BLOCK END ===

=== CODE BLOCK ADDRESS 0x2f15 ===
  0x2f15	dec    	eax
  0x2f16	lea    	edx, [ebx + ebx*2]
  0x2f19	dec    	eax
  0x2f1a	shl    	edx, 4
  0x2f1d	dec    	eax
  === BLOCK LINK ===
    0x2f1e
=== CODE BLOCK END ===

=== CODE BLOCK ADDRESS 0x2f1e ===
  0x2f1e	add    	eax, edx
  0x2f20	dec    	eax
  0x2f21	add    	esp, 0x20
  0x2f24	pop    	ebx
  0x2f25	ret    	
  === BLOCK LINK ===
    0x2f26
=== CODE BLOCK END ===

=== CODE BLOCK ADDRESS 0x2f26 ===
  0x2f26	int3   	
  0x2f27	int3   	
  0x2f28	int3   	
  0x2f29	int3   	
  0x2f2a	int3   	
  === BLOCK LINK ===
    0x2f2b
=== CODE BLOCK END ===

=== CODE BLOCK ADDRESS 0x2f2b ===
  0x2f2b	int3   	
  0x2f2c	dec    	eax
  0x2f2d	sub    	esp, 0x28
  0x2f30	mov    	ecx, dword ptr [0xbcba]
  0x2f36	cmp    	ecx, 1
  === BLOCK LINK ===
    0x2f39
=== CODE BLOCK END ===

=== CODE BLOCK ADDRESS 0x2f39 ===
  0x2f39	jne    	0x2f3f
  === BLOCK LINK ===
    0x2f3b
=== CODE BLOCK END ===

=== CODE BLOCK ADDRESS 0x2f3b ===
  0x2f3b	mov    	al, cl
  0x2f3d	jmp    	0x2f75
  === BLOCK LINK ===
    0x2f3f
=== CODE BLOCK END ===

=== CODE BLOCK ADDRESS 0x2f3f ===
  0x2f3f	cmp    	ecx, 2
  0x2f42	je     	0x2f73
  === BLOCK LINK ===
    0x2f44
=== CODE BLOCK END ===

=== CODE BLOCK ADDRESS 0x2f44 ===
  0x2f44	dec    	eax
  0x2f45	lea    	edx, [esp + 0x30]
  0x2f49	mov    	byte ptr [esp + 0x30], 0
  0x2f4e	dec    	eax
  0x2f4f	lea    	ecx, [0x80bb]
  === BLOCK LINK ===
    0x2f55
=== CODE BLOCK END ===

=== CODE BLOCK ADDRESS 0x2f55 ===
  0x2f55	call   	0x3010
  === BLOCK LINK ===
    0x2f5a
=== CODE BLOCK END ===

=== CODE BLOCK ADDRESS 0x2f5a ===
  0x2f5a	test   	eax, eax
  0x2f5c	js     	0x2f73
  === BLOCK LINK ===
    0x2f5e
=== CODE BLOCK END ===

=== CODE BLOCK ADDRESS 0x2f5e ===
  0x2f5e	mov    	al, byte ptr [esp + 0x30]
  0x2f62	mov    	cl, al
  0x2f64	neg    	cl
  0x2f66	sbb    	edx, edx
  0x2f68	add    	edx, 2
  === BLOCK LINK ===
    0x2f6b
=== CODE BLOCK END ===

=== CODE BLOCK ADDRESS 0x2f6b ===
  0x2f6b	mov    	dword ptr [0xbc7f], edx
  0x2f71	jmp    	0x2f75
  === BLOCK LINK ===
    0x2f73
=== CODE BLOCK END ===

=== CODE BLOCK ADDRESS 0x2f73 ===
  0x2f73	xor    	al, al
  0x2f75	dec    	eax
  0x2f76	add    	esp, 0x28
  0x2f79	ret    	
  0x2f7a	int3   	
  === BLOCK LINK ===
    0x2f7b
=== CODE BLOCK END ===

=== CODE BLOCK ADDRESS 0x3552 ===
=== CODE BLOCK END ===

=== CODE BLOCK ADDRESS 0x2f7b ===
  0x2f7b	int3   	
  0x2f7c	int3   	
  0x2f7d	int3   	
  0x2f7e	int3   	
  0x2f7f	int3   	
  === BLOCK LINK ===
    0x2f80
=== CODE BLOCK END ===

=== CODE BLOCK ADDRESS 0x2f80 ===
  0x2f80	dec    	eax
  0x2f81	lea    	eax, [0x18079]
  0x2f87	jmp    	0x2f8c
  === BLOCK LINK ===
    0x2f8c
=== CODE BLOCK END ===

=== CODE BLOCK ADDRESS 0x2f8c ===
  0x2f8c	dec    	eax
  0x2f8d	mov    	dword ptr [esp + 8], ecx
  0x2f91	dec    	eax
  0x2f92	mov    	dword ptr [esp + 0x10], edx
  0x2f96	dec    	esp
  === BLOCK LINK ===
    0x2f97
=== CODE BLOCK END ===

=== CODE BLOCK ADDRESS 0x2f97 ===
  0x2f97	mov    	dword ptr [esp + 0x18], eax
  0x2f9b	dec    	esp
  0x2f9c	mov    	dword ptr [esp + 0x20], ecx
  0x2fa0	dec    	eax
  0x2fa1	sub    	esp, 0x68
  === BLOCK LINK ===
    0x2fa4
=== CODE BLOCK END ===

=== CODE BLOCK ADDRESS 0x2fa4 ===
  0x2fa4	movdqa  	xmmword ptr [esp + 0x20], xmm0
  0x2faa	movdqa  	xmmword ptr [esp + 0x30], xmm1
  0x2fb0	movdqa  	xmmword ptr [esp + 0x40], xmm2
  0x2fb6	movdqa  	xmmword ptr [esp + 0x50], xmm3
  0x2fbc	dec    	eax
  === BLOCK LINK ===
    0x2fbd
=== CODE BLOCK END ===

=== CODE BLOCK ADDRESS 0x2fbd ===
  0x2fbd	mov    	edx, eax
  0x2fbf	dec    	eax
  0x2fc0	lea    	ecx, [0x9c96]
  0x2fc6	call   	0xa990
  === BLOCK LINK ===
    0x2fcb
=== CODE BLOCK END ===

=== CODE BLOCK ADDRESS 0x2fcb ===
  0x2fcb	movdqa  	xmm0, xmmword ptr [esp + 0x20]
  0x2fd1	movdqa  	xmm1, xmmword ptr [esp + 0x30]
  0x2fd7	movdqa  	xmm2, xmmword ptr [esp + 0x40]
  0x2fdd	movdqa  	xmm3, xmmword ptr [esp + 0x50]
  0x2fe3	dec    	eax
  === BLOCK LINK ===
    0x2fe4
=== CODE BLOCK END ===

=== CODE BLOCK ADDRESS 0x2fe4 ===
  0x2fe4	mov    	ecx, dword ptr [esp + 0x70]
  0x2fe8	dec    	eax
  0x2fe9	mov    	edx, dword ptr [esp + 0x78]
  0x2fed	dec    	esp
  0x2fee	mov    	eax, dword ptr [esp + 0x80]
  === BLOCK LINK ===
    0x2ff5
=== CODE BLOCK END ===

=== CODE BLOCK ADDRESS 0x2ff5 ===
  0x2ff5	dec    	esp
  0x2ff6	mov    	ecx, dword ptr [esp + 0x88]
  0x2ffd	dec    	eax
  0x2ffe	add    	esp, 0x68
  0x3001	jmp    	0x3003
  === BLOCK LINK ===
    0x3003
=== CODE BLOCK END ===

=== CODE BLOCK ADDRESS 0x3003 ===
  0x3003	jmp    	eax
  === BLOCK LINK ===
    0x3005
=== CODE BLOCK END ===

=== CODE BLOCK ADDRESS 0x3005 ===
  0x3005	int3   	
  0x3006	int3   	
  0x3007	int3   	
  0x3008	int3   	
  0x3009	int3   	
  === BLOCK LINK ===
    0x300a
=== CODE BLOCK END ===

=== CODE BLOCK ADDRESS 0x300a ===
  0x300a	int3   	
  0x300b	int3   	
  0x300c	int3   	
  0x300d	int3   	
  0x300e	int3   	
  === BLOCK LINK ===
    0x300f
=== CODE BLOCK END ===

=== CODE BLOCK ADDRESS 0x300f ===
  0x300f	int3   	
  0x3010	jmp    	dword ptr [0x81aa]
  === BLOCK LINK ===
    0x3016
=== CODE BLOCK END ===

=== CODE BLOCK ADDRESS 0x3016 ===
  0x3016	int3   	
  0x3017	int3   	
  0x3018	int3   	
  0x3019	int3   	
  0x301a	int3   	
  === BLOCK LINK ===
    0x301b
=== CODE BLOCK END ===

=== CODE BLOCK ADDRESS 0x301b ===
  0x301b	int3   	
  0x301c	dec    	eax
  0x301d	lea    	eax, [0x17fed]
  0x3023	jmp    	0x3028
  === BLOCK LINK ===
    0x3028
=== CODE BLOCK END ===

=== CODE BLOCK ADDRESS 0x3028 ===
  0x3028	dec    	eax
  0x3029	mov    	dword ptr [esp + 8], ecx
  0x302d	dec    	eax
  0x302e	mov    	dword ptr [esp + 0x10], edx
  0x3032	dec    	esp
  === BLOCK LINK ===
    0x3033
=== CODE BLOCK END ===

=== CODE BLOCK ADDRESS 0x3033 ===
  0x3033	mov    	dword ptr [esp + 0x18], eax
  0x3037	dec    	esp
  0x3038	mov    	dword ptr [esp + 0x20], ecx
  0x303c	dec    	eax
  0x303d	sub    	esp, 0x68
  === BLOCK LINK ===
    0x3040
=== CODE BLOCK END ===

=== CODE BLOCK ADDRESS 0x3040 ===
  0x3040	movdqa  	xmmword ptr [esp + 0x20], xmm0
  0x3046	movdqa  	xmmword ptr [esp + 0x30], xmm1
  0x304c	movdqa  	xmmword ptr [esp + 0x40], xmm2
  0x3052	movdqa  	xmmword ptr [esp + 0x50], xmm3
  0x3058	dec    	eax
  === BLOCK LINK ===
    0x3059
=== CODE BLOCK END ===

=== CODE BLOCK ADDRESS 0x3059 ===
  0x3059	mov    	edx, eax
  0x305b	dec    	eax
  0x305c	lea    	ecx, [0x9c1a]
  0x3062	call   	0xa990
  === BLOCK LINK ===
    0x3067
=== CODE BLOCK END ===

=== CODE BLOCK ADDRESS 0x3067 ===
  0x3067	movdqa  	xmm0, xmmword ptr [esp + 0x20]
  0x306d	movdqa  	xmm1, xmmword ptr [esp + 0x30]
  0x3073	movdqa  	xmm2, xmmword ptr [esp + 0x40]
  0x3079	movdqa  	xmm3, xmmword ptr [esp + 0x50]
  0x307f	dec    	eax
  === BLOCK LINK ===
    0x3080
=== CODE BLOCK END ===

=== CODE BLOCK ADDRESS 0x3080 ===
  0x3080	mov    	ecx, dword ptr [esp + 0x70]
  0x3084	dec    	eax
  0x3085	mov    	edx, dword ptr [esp + 0x78]
  0x3089	dec    	esp
  0x308a	mov    	eax, dword ptr [esp + 0x80]
  === BLOCK LINK ===
    0x3091
=== CODE BLOCK END ===

=== CODE BLOCK ADDRESS 0x3091 ===
  0x3091	dec    	esp
  0x3092	mov    	ecx, dword ptr [esp + 0x88]
  0x3099	dec    	eax
  0x309a	add    	esp, 0x68
  0x309d	jmp    	0x309f
  === BLOCK LINK ===
    0x309f
=== CODE BLOCK END ===

=== CODE BLOCK ADDRESS 0x309f ===
  0x309f	jmp    	eax
  === BLOCK LINK ===
    0x30a1
=== CODE BLOCK END ===

=== CODE BLOCK ADDRESS 0x30a1 ===
  0x30a1	int3   	
  0x30a2	int3   	
  0x30a3	int3   	
  0x30a4	int3   	
  0x30a5	int3   	
  === BLOCK LINK ===
    0x30a6
=== CODE BLOCK END ===

=== CODE BLOCK ADDRESS 0x30a6 ===
  0x30a6	int3   	
  0x30a7	int3   	
  0x30a8	dec    	eax
  0x30a9	sub    	esp, 0x28
  0x30ac	mov    	ecx, dword ptr [0xbb56]
  === BLOCK LINK ===
    0x30b2
=== CODE BLOCK END ===

=== CODE BLOCK ADDRESS 0x30b2 ===
  0x30b2	cmp    	ecx, 1
  0x30b5	jne    	0x30bb
  === BLOCK LINK ===
    0x30b7
=== CODE BLOCK END ===

=== CODE BLOCK ADDRESS 0x30b7 ===
  0x30b7	mov    	al, cl
  0x30b9	jmp    	0x30f1
  === BLOCK LINK ===
    0x30bb
=== CODE BLOCK END ===

=== CODE BLOCK ADDRESS 0x30bb ===
  0x30bb	cmp    	ecx, 2
  0x30be	je     	0x30ef
  === BLOCK LINK ===
    0x30c0
=== CODE BLOCK END ===

=== CODE BLOCK ADDRESS 0x30c0 ===
  0x30c0	dec    	eax
  0x30c1	lea    	edx, [esp + 0x30]
  0x30c5	mov    	byte ptr [esp + 0x30], 0
  0x30ca	dec    	eax
  0x30cb	lea    	ecx, [0x7f5f]
  === BLOCK LINK ===
    0x30d1
=== CODE BLOCK END ===

=== CODE BLOCK ADDRESS 0x30d1 ===
  0x30d1	call   	0x3010
  === BLOCK LINK ===
    0x30d6
=== CODE BLOCK END ===

=== CODE BLOCK ADDRESS 0x30d6 ===
  0x30d6	test   	eax, eax
  0x30d8	js     	0x30ef
  === BLOCK LINK ===
    0x30da
=== CODE BLOCK END ===

=== CODE BLOCK ADDRESS 0x30da ===
  0x30da	mov    	al, byte ptr [esp + 0x30]
  0x30de	mov    	cl, al
  0x30e0	neg    	cl
  0x30e2	sbb    	edx, edx
  0x30e4	add    	edx, 2
  === BLOCK LINK ===
    0x30e7
=== CODE BLOCK END ===

=== CODE BLOCK ADDRESS 0x30e7 ===
  0x30e7	mov    	dword ptr [0xbb1b], edx
  0x30ed	jmp    	0x30f1
  === BLOCK LINK ===
    0x30ef
=== CODE BLOCK END ===

=== CODE BLOCK ADDRESS 0x30ef ===
  0x30ef	xor    	al, al
  0x30f1	dec    	eax
  0x30f2	add    	esp, 0x28
  0x30f5	ret    	
  0x30f6	int3   	
  === BLOCK LINK ===
    0x30f7
=== CODE BLOCK END ===

=== CODE BLOCK ADDRESS 0x1486 ===
  0x1486	inc    	ecx
  0x1487	mov    	edx, edi
  0x1489	mov    	ebp, 0xffff
  === BLOCK LINK ===
    0x148e
=== CODE BLOCK END ===

=== CODE BLOCK ADDRESS 0x30f7 ===
  0x30f7	int3   	
  0x30f8	int3   	
  0x30f9	int3   	
  0x30fa	int3   	
  0x30fb	int3   	
  === BLOCK LINK ===
    0x30fc
=== CODE BLOCK END ===

=== CODE BLOCK ADDRESS 0x30fc ===
  0x30fc	jmp    	dword ptr [0x846e]
  === BLOCK LINK ===
    0x3102
=== CODE BLOCK END ===

=== CODE BLOCK ADDRESS 0x3102 ===
  0x3102	int3   	
  0x3103	int3   	
  0x3104	int3   	
  0x3105	int3   	
  0x3106	int3   	
  === BLOCK LINK ===
    0x3107
=== CODE BLOCK END ===

=== CODE BLOCK ADDRESS 0x3107 ===
  0x3107	int3   	
  0x3108	inc    	eax
  0x3109	push   	ebx
  0x310a	dec    	eax
  0x310b	sub    	esp, 0x20
  === BLOCK LINK ===
    0x310e
=== CODE BLOCK END ===

=== CODE BLOCK ADDRESS 0x310e ===
  0x310e	mov    	ebx, ecx
  0x3110	call   	0x2330
  === BLOCK LINK ===
    0x3115
=== CODE BLOCK END ===

=== CODE BLOCK ADDRESS 0x3115 ===
  0x3115	mov    	ecx, ebx
  0x3117	dec    	eax
  0x3118	call   	dword ptr [0x8302]
  === BLOCK LINK ===
    0x311e
=== CODE BLOCK END ===

=== CODE BLOCK ADDRESS 0x311e ===
  0x311e	nop    	dword ptr [eax + eax]
  0x3123	int3   	
  0x3124	int3   	
  0x3125	int3   	
  0x3126	int3   	
  === BLOCK LINK ===
    0x3127
=== CODE BLOCK END ===

=== CODE BLOCK ADDRESS 0x3127 ===
  0x3127	int3   	
  0x3128	int3   	
  0x3129	int3   	
  0x312a	int3   	
  0x312b	int3   	
  === BLOCK LINK ===
    0x312c
=== CODE BLOCK END ===

=== CODE BLOCK ADDRESS 0x312c ===
  0x312c	dec    	eax
  0x312d	sub    	esp, 0x28
  0x3130	xor    	edx, edx
  0x3132	call   	0x7ea4
  === BLOCK LINK ===
    0x3137
=== CODE BLOCK END ===

=== CODE BLOCK ADDRESS 0x3137 ===
  0x3137	mov    	ecx, 2
  0x313c	call   	0x8378
  === BLOCK LINK ===
    0x3141
=== CODE BLOCK END ===

=== CODE BLOCK ADDRESS 0x3141 ===
  0x3141	int3   	
  0x3142	int3   	
  0x3143	int3   	
  0x3144	int3   	
  0x3145	int3   	
  === BLOCK LINK ===
    0x3146
=== CODE BLOCK END ===

=== CODE BLOCK ADDRESS 0x3146 ===
  0x3146	int3   	
  0x3147	int3   	
  0x3148	dec    	eax
  0x3149	sub    	esp, 0x28
  0x314c	dec    	eax
  === BLOCK LINK ===
    0x314d
=== CODE BLOCK END ===

=== CODE BLOCK ADDRESS 0x314d ===
  0x314d	mov    	dword ptr [0x132cd], edx
  0x3153	mov    	edx, 1
  0x3158	call   	0x7ea4
  === BLOCK LINK ===
    0x315d
=== CODE BLOCK END ===

=== CODE BLOCK ADDRESS 0x315d ===
  0x315d	mov    	ecx, 2
  0x3162	call   	0x8378
  === BLOCK LINK ===
    0x3167
=== CODE BLOCK END ===

=== CODE BLOCK ADDRESS 0x3167 ===
  0x3167	int3   	
  0x3168	int3   	
  0x3169	int3   	
  0x316a	int3   	
  0x316b	int3   	
  === BLOCK LINK ===
    0x316c
=== CODE BLOCK END ===

=== CODE BLOCK ADDRESS 0x316c ===
  0x316c	int3   	
  0x316d	int3   	
  0x316e	int3   	
  0x316f	int3   	
  0x3170	dec    	eax
  === BLOCK LINK ===
    0x3171
=== CODE BLOCK END ===

=== CODE BLOCK ADDRESS 0x3171 ===
  0x3171	sub    	esp, 0x28
  0x3174	dec    	ebp
  0x3175	mov    	eax, dword ptr [ecx + 0x38]
  0x3178	dec    	eax
  0x3179	mov    	ecx, edx
  === BLOCK LINK ===
    0x317b
=== CODE BLOCK END ===

=== CODE BLOCK ADDRESS 0x317b ===
  0x317b	dec    	ecx
  0x317c	mov    	edx, ecx
  0x317e	call   	0x3194
  === BLOCK LINK ===
    0x3183
=== CODE BLOCK END ===

=== CODE BLOCK ADDRESS 0x3183 ===
  0x3183	mov    	eax, 1
  0x3188	dec    	eax
  0x3189	add    	esp, 0x28
  0x318c	ret    	
  0x318d	int3   	
  === BLOCK LINK ===
    0x318e
=== CODE BLOCK END ===

=== CODE BLOCK ADDRESS 0x318e ===
  0x318e	int3   	
  0x318f	int3   	
  0x3190	int3   	
  0x3191	int3   	
  0x3192	int3   	
  === BLOCK LINK ===
    0x3193
=== CODE BLOCK END ===

=== CODE BLOCK ADDRESS 0x3193 ===
  0x3193	int3   	
  0x3194	inc    	eax
  0x3195	push   	ebx
  0x3196	inc    	ebp
  0x3197	mov    	ebx, dword ptr [eax]
  === BLOCK LINK ===
    0x3199
=== CODE BLOCK END ===

=== CODE BLOCK ADDRESS 0x3199 ===
  0x3199	dec    	eax
  0x319a	mov    	ebx, edx
  0x319c	inc    	ecx
  0x319d	and    	ebx, 0xfffffff8
  0x31a0	dec    	esp
  === BLOCK LINK ===
    0x31a1
=== CODE BLOCK END ===

=== CODE BLOCK ADDRESS 0x31a1 ===
  0x31a1	mov    	ecx, ecx
  0x31a3	inc    	ecx
  0x31a4	test   	byte ptr [eax], 4
  0x31a7	dec    	esp
  0x31a8	mov    	edx, ecx
  === BLOCK LINK ===
    0x31aa
=== CODE BLOCK END ===

=== CODE BLOCK ADDRESS 0x31aa ===
  0x31aa	je     	0x31bf
  === BLOCK LINK ===
    0x31ac
=== CODE BLOCK END ===

=== CODE BLOCK ADDRESS 0x31ac ===
  0x31ac	inc    	ecx
  0x31ad	mov    	eax, dword ptr [eax + 8]
  0x31b0	dec    	ebp
  0x31b1	arpl   	word ptr [eax + 4], dx
  0x31b4	neg    	eax
  === BLOCK LINK ===
    0x31b6
=== CODE BLOCK END ===

=== CODE BLOCK ADDRESS 0x31b6 ===
  0x31b6	dec    	esp
  0x31b7	add    	edx, ecx
  0x31b9	dec    	eax
  0x31ba	arpl   	ax, cx
  0x31bc	dec    	esp
  === BLOCK LINK ===
    0x31bd
=== CODE BLOCK END ===

=== CODE BLOCK ADDRESS 0x31bd ===
  0x31bd	and    	edx, ecx
  0x31bf	dec    	ecx
  0x31c0	arpl   	bx, ax
  0x31c2	dec    	edx
  0x31c3	mov    	edx, dword ptr [eax + edx]
  === BLOCK LINK ===
    0x31c6
=== CODE BLOCK END ===

=== CODE BLOCK ADDRESS 0x31c6 ===
  0x31c6	dec    	eax
  0x31c7	mov    	eax, dword ptr [ebx + 0x10]
  0x31ca	mov    	ecx, dword ptr [eax + 8]
  0x31cd	dec    	eax
  0x31ce	mov    	eax, dword ptr [ebx + 8]
  === BLOCK LINK ===
    0x31d1
=== CODE BLOCK END ===

=== CODE BLOCK ADDRESS 0x31d1 ===
  0x31d1	test   	byte ptr [ecx + eax + 3], 0xf
  0x31d6	je     	0x31e3
  === BLOCK LINK ===
    0x31d8
=== CODE BLOCK END ===

=== CODE BLOCK ADDRESS 0x31d8 ===
  0x31d8	movzx  	eax, byte ptr [ecx + eax + 3]
  0x31dd	and    	eax, 0xfffffff0
  0x31e0	dec    	esp
  0x31e1	add    	ecx, eax
  0x31e3	dec    	esp
  === BLOCK LINK ===
    0x31e4
=== CODE BLOCK END ===

=== CODE BLOCK ADDRESS 0x31e4 ===
  0x31e4	xor    	ecx, edx
  0x31e6	dec    	ecx
  0x31e7	mov    	ecx, ecx
  0x31e9	pop    	ebx
  0x31ea	jmp    	0x2900
  === BLOCK LINK ===
    0x31ef
=== CODE BLOCK END ===

=== CODE BLOCK ADDRESS 0x31ef ===
  0x31ef	int3   	
  0x31f0	int3   	
  0x31f1	int3   	
  0x31f2	int3   	
  0x31f3	int3   	
  === BLOCK LINK ===
    0x31f4
=== CODE BLOCK END ===

=== CODE BLOCK ADDRESS 0x31f4 ===
  0x31f4	int3   	
  0x31f5	int3   	
  0x31f6	jmp    	dword ptr [0x8254]
  === BLOCK LINK ===
    0x31fc
=== CODE BLOCK END ===

=== CODE BLOCK ADDRESS 0x31fc ===
  0x31fc	int3   	
  0x31fd	int3   	
  0x31fe	int3   	
  0x31ff	int3   	
  0x3200	int3   	
  === BLOCK LINK ===
    0x3201
=== CODE BLOCK END ===

=== CODE BLOCK ADDRESS 0x3201 ===
  0x3201	int3   	
  0x3202	jmp    	dword ptr [0x8258]
  === BLOCK LINK ===
    0x3208
=== CODE BLOCK END ===

=== CODE BLOCK ADDRESS 0x3208 ===
  0x3208	int3   	
  0x3209	int3   	
  0x320a	int3   	
  0x320b	int3   	
  0x320c	int3   	
  === BLOCK LINK ===
    0x320d
=== CODE BLOCK END ===

=== CODE BLOCK ADDRESS 0x320d ===
  0x320d	int3   	
  0x320e	jmp    	dword ptr [0x8264]
  === BLOCK LINK ===
    0x3214
=== CODE BLOCK END ===

=== CODE BLOCK ADDRESS 0x3214 ===
  0x3214	int3   	
  0x3215	int3   	
  0x3216	int3   	
  0x3217	int3   	
  0x3218	int3   	
  === BLOCK LINK ===
    0x3219
=== CODE BLOCK END ===

=== CODE BLOCK ADDRESS 0x3219 ===
  0x3219	int3   	
  0x321a	jmp    	dword ptr [0x8298]
  === BLOCK LINK ===
    0x3220
=== CODE BLOCK END ===

=== CODE BLOCK ADDRESS 0x3220 ===
  0x3220	int3   	
  0x3221	int3   	
  0x3222	int3   	
  0x3223	int3   	
  0x3224	int3   	
  === BLOCK LINK ===
    0x3225
=== CODE BLOCK END ===

=== CODE BLOCK ADDRESS 0x3225 ===
  0x3225	int3   	
  0x3226	jmp    	dword ptr [0x835c]
  === BLOCK LINK ===
    0x322c
=== CODE BLOCK END ===

=== CODE BLOCK ADDRESS 0x322c ===
  0x322c	int3   	
  0x322d	int3   	
  0x322e	int3   	
  0x322f	int3   	
  0x3230	int3   	
  === BLOCK LINK ===
    0x3231
=== CODE BLOCK END ===

=== CODE BLOCK ADDRESS 0x3231 ===
  0x3231	int3   	
  0x3232	int3   	
  0x3233	int3   	
  0x3234	int3   	
  0x3235	int3   	
  === BLOCK LINK ===
    0x3236
=== CODE BLOCK END ===

=== CODE BLOCK ADDRESS 0x3236 ===
  0x3236	nop    	word ptr [eax + eax]
  0x3240	jmp    	eax
  === BLOCK LINK ===
    0x3242
=== CODE BLOCK END ===

=== CODE BLOCK ADDRESS 0x3242 ===
  0x3242	int3   	
  0x3243	int3   	
  0x3244	int3   	
  0x3245	int3   	
  0x3246	int3   	
  === BLOCK LINK ===
    0x3247
=== CODE BLOCK END ===

=== CODE BLOCK ADDRESS 0x3247 ===
  0x3247	int3   	
  0x3248	int3   	
  0x3249	int3   	
  0x324a	int3   	
  0x324b	int3   	
  === BLOCK LINK ===
    0x324c
=== CODE BLOCK END ===

=== CODE BLOCK ADDRESS 0x324c ===
  0x324c	int3   	
  0x324d	int3   	
  0x324e	int3   	
  0x324f	int3   	
  0x3250	int3   	
  === BLOCK LINK ===
    0x3251
=== CODE BLOCK END ===

=== CODE BLOCK ADDRESS 0x3251 ===
  0x3251	int3   	
  0x3252	int3   	
  0x3253	int3   	
  0x3254	int3   	
  0x3255	int3   	
  === BLOCK LINK ===
    0x3256
=== CODE BLOCK END ===

=== CODE BLOCK ADDRESS 0x3256 ===
  0x3256	nop    	word ptr [eax + eax]
  0x3260	dec    	eax
  0x3261	sub    	esp, 0x10
  0x3264	dec    	esp
  0x3265	mov    	dword ptr [esp], edx
  === BLOCK LINK ===
    0x3268
=== CODE BLOCK END ===

=== CODE BLOCK ADDRESS 0x3268 ===
  0x3268	dec    	esp
  0x3269	mov    	dword ptr [esp + 8], ebx
  0x326d	dec    	ebp
  0x326e	xor    	ebx, ebx
  0x3270	dec    	esp
  === BLOCK LINK ===
    0x3271
=== CODE BLOCK END ===

=== CODE BLOCK ADDRESS 0x3271 ===
  0x3271	lea    	edx, [esp + 0x18]
  0x3275	dec    	esp
  0x3276	sub    	edx, eax
  0x3278	dec    	ebp
  0x3279	cmovb  	edx, ebx
  === BLOCK LINK ===
    0x327c
=== CODE BLOCK END ===

=== CODE BLOCK ADDRESS 0x327c ===
  0x327c	dec    	esp
  0x327e	mov    	ebx, dword ptr [0x10]
  0x3285	dec    	ebp
  0x3286	cmp    	edx, ebx
  0x3288	jae    	0x329f
  === BLOCK LINK ===
    0x328a
=== CODE BLOCK END ===

=== CODE BLOCK ADDRESS 0x328a ===
  0x328a	inc    	cx
  0x328c	and    	edx, 0x8d4df000
  0x3292	wait   	
  0x3293	add    	al, dh
  0x3295	.byte  	0xff
  === BLOCK LINK ===
    0x3296
=== CODE BLOCK END ===

=== CODE BLOCK ADDRESS 0x3296 ===
  0x3296	inc    	dword ptr [ebp - 0x7c]
  0x3299	sbb    	ecx, dword ptr [ebp + 0x3b]
  0x329c	sal    	dword ptr [edx - 0xf], cl
  0x329f	dec    	esp
  0x32a0	mov    	edx, dword ptr [esp]
  === BLOCK LINK ===
    0x32a3
=== CODE BLOCK END ===

=== CODE BLOCK ADDRESS 0x32a3 ===
  0x32a3	dec    	esp
  0x32a4	mov    	ebx, dword ptr [esp + 8]
  0x32a8	dec    	eax
  0x32a9	add    	esp, 0x10
  0x32ac	ret    	
  === BLOCK LINK ===
    0x32ad
=== CODE BLOCK END ===

=== CODE BLOCK ADDRESS 0x32ad ===
  0x32ad	int3   	
  0x32ae	int3   	
  0x32af	int3   	
  0x32b0	int3   	
  0x32b1	int3   	
  === BLOCK LINK ===
    0x32b2
=== CODE BLOCK END ===

=== CODE BLOCK ADDRESS 0x32b2 ===
  0x32b2	int3   	
  0x32b3	inc    	eax
  0x32b4	push   	ebp
  0x32b5	dec    	eax
  0x32b6	sub    	esp, 0x20
  === BLOCK LINK ===
    0x32b9
=== CODE BLOCK END ===

=== CODE BLOCK ADDRESS 0x32b9 ===
  0x32b9	dec    	eax
  0x32ba	mov    	ebp, edx
  0x32bc	dec    	eax
  0x32bd	mov    	eax, dword ptr [ecx]
  0x32bf	dec    	eax
  === BLOCK LINK ===
    0x32c0
=== CODE BLOCK END ===

=== CODE BLOCK ADDRESS 0x32c0 ===
  0x32c0	mov    	edx, ecx
  0x32c2	mov    	ecx, dword ptr [eax]
  0x32c4	call   	0x2c3e
  === BLOCK LINK ===
    0x32c9
=== CODE BLOCK END ===

=== CODE BLOCK ADDRESS 0x32c9 ===
  0x32c9	nop    	
  0x32ca	dec    	eax
  0x32cb	add    	esp, 0x20
  0x32ce	pop    	ebp
  0x32cf	ret    	
  === BLOCK LINK ===
    0x32d0
=== CODE BLOCK END ===

=== CODE BLOCK ADDRESS 0x32d0 ===
  0x32d0	int3   	
  0x32d1	int3   	
  0x32d2	int3   	
  0x32d3	int3   	
  0x32d4	int3   	
  === BLOCK LINK ===
    0x32d5
=== CODE BLOCK END ===

=== CODE BLOCK ADDRESS 0x32d5 ===
  0x32d5	int3   	
  0x32d6	int3   	
  0x32d7	int3   	
  0x32d8	int3   	
  0x32d9	int3   	
  === BLOCK LINK ===
    0x32da
=== CODE BLOCK END ===

=== CODE BLOCK ADDRESS 0x32da ===
  0x32da	int3   	
  0x32db	int3   	
  0x32dc	int3   	
  0x32dd	int3   	
  0x32de	int3   	
  === BLOCK LINK ===
    0x32df
=== CODE BLOCK END ===

=== CODE BLOCK ADDRESS 0x32df ===
  0x32df	int3   	
  0x32e0	inc    	eax
  0x32e1	push   	ebp
  0x32e2	dec    	eax
  0x32e3	sub    	esp, 0x20
  === BLOCK LINK ===
    0x32e6
=== CODE BLOCK END ===

=== CODE BLOCK ADDRESS 0x32e6 ===
  0x32e6	dec    	eax
  0x32e7	mov    	ebp, edx
  0x32e9	dec    	eax
  0x32ea	mov    	eax, dword ptr [ecx]
  0x32ec	xor    	ecx, ecx
  === BLOCK LINK ===
    0x32ee
=== CODE BLOCK END ===

=== CODE BLOCK ADDRESS 0x32ee ===
  0x32ee	cmp    	dword ptr [eax], 0xc0000005
  0x32f4	sete   	cl
  0x32f7	mov    	eax, ecx
  0x32f9	dec    	eax
  0x32fa	add    	esp, 0x20
  === BLOCK LINK ===
    0x32fd
=== CODE BLOCK END ===

=== CODE BLOCK ADDRESS 0x32fd ===
  0x32fd	pop    	ebp
  0x32fe	ret    	
  0x32ff	int3   	
  0x3300	dec    	eax
  0x3301	call   	dword ptr [0x7f51]
  === BLOCK LINK ===
    0x3307
=== CODE BLOCK END ===

=== CODE BLOCK ADDRESS 0x155f ===
=== CODE BLOCK END ===

=== CODE BLOCK ADDRESS 0x3307 ===
  0x3307	nop    	dword ptr [eax + eax]
  0x330c	dec    	eax
  0x330d	mov    	ebx, dword ptr [0x1005d]
  0x3313	dec    	eax
  0x3314	lea    	ecx, [esp + 0x5c]
  === BLOCK LINK ===
    0x3318
=== CODE BLOCK END ===

=== CODE BLOCK ADDRESS 0x3318 ===
  0x3318	dec    	eax
  0x3319	mov    	dword ptr [esp + 0x30], ecx
  0x331d	dec    	esp
  0x331e	lea    	eax, [0x145dc]
  0x3324	dec    	eax
  === BLOCK LINK ===
    0x3325
=== CODE BLOCK END ===

=== CODE BLOCK ADDRESS 0x3325 ===
  0x3325	lea    	ecx, [0x838d]
  0x332b	inc    	ecx
  0x332c	mov    	ecx, 0x800
  0x3331	dec    	eax
  0x3332	mov    	dword ptr [esp + 0x28], ecx
  === BLOCK LINK ===
    0x3336
=== CODE BLOCK END ===

=== CODE BLOCK ADDRESS 0x3336 ===
  0x3336	xor    	edx, edx
  0x3338	dec    	eax
  0x3339	lea    	ecx, [0x130e1]
  0x333f	mov    	dword ptr [esp + 0x20], eax
  0x3343	call   	0xa030
  === BLOCK LINK ===
    0x3348
=== CODE BLOCK END ===

=== CODE BLOCK ADDRESS 0x3348 ===
  0x3348	test   	eax, eax
  0x334a	dec    	eax
  0x334b	lea    	edx, [0x145af]
  0x3351	inc    	ecx
  0x3352	mov    	eax, 1
  === BLOCK LINK ===
    0x3357
=== CODE BLOCK END ===

=== CODE BLOCK ADDRESS 0x3357 ===
  0x3357	dec    	eax
  0x3358	cmovne  	ebx, dword ptr [0x10009]
  0x335f	dec    	eax
  0x3360	mov    	ecx, ebx
  0x3362	call   	0xa244
  === BLOCK LINK ===
    0x3367
=== CODE BLOCK END ===

=== CODE BLOCK ADDRESS 0x3367 ===
  0x3367	nop    	
  0x3368	jmp    	0x108f
  === BLOCK LINK ===
    0x336d
=== CODE BLOCK END ===

=== CODE BLOCK ADDRESS 0x3374 ===
  0x3374	nop    	dword ptr [eax + eax]
  0x3379	mov    	ecx, eax
  0x337b	xor    	edx, edx
  0x337d	call   	0x7ea4
  === BLOCK LINK ===
    0x3382
=== CODE BLOCK END ===

=== CODE BLOCK ADDRESS 0x3382 ===
  0x3382	mov    	ecx, 2
  0x3387	call   	0x8378
  === BLOCK LINK ===
    0x338c
=== CODE BLOCK END ===

=== CODE BLOCK ADDRESS 0x338c ===
  0x338c	int3   	
  0x338d	dec    	eax
  0x338e	call   	dword ptr [0x7ec4]
  === BLOCK LINK ===
    0x3394
=== CODE BLOCK END ===

=== CODE BLOCK ADDRESS 0x3394 ===
  0x3394	nop    	dword ptr [eax + eax]
  0x3399	mov    	ecx, eax
  0x339b	xor    	edx, edx
  0x339d	call   	0x7ea4
  === BLOCK LINK ===
    0x33a2
=== CODE BLOCK END ===

=== CODE BLOCK ADDRESS 0x33a2 ===
  0x33a2	mov    	ecx, 2
  0x33a7	call   	0x8378
  === BLOCK LINK ===
    0x33ac
=== CODE BLOCK END ===

=== CODE BLOCK ADDRESS 0x33ac ===
  0x33ac	int3   	
  0x33ad	dec    	eax
  0x33ae	lea    	ebx, [esp + 0x70]
  0x33b2	jmp    	0x1179
  === BLOCK LINK ===
    0x33b7
=== CODE BLOCK END ===

=== CODE BLOCK ADDRESS 0x33c3 ===
  0x33c3	nop    	dword ptr [eax + eax]
  0x33c8	xor    	edx, edx
  0x33ca	dec    	esp
  0x33cb	mov    	dword ptr [0x12fc7], esp
  0x33d1	lea    	ecx, [edx + 8]
  === BLOCK LINK ===
    0x33d4
=== CODE BLOCK END ===

=== CODE BLOCK ADDRESS 0x33d4 ===
  0x33d4	call   	0x7ea4
  === BLOCK LINK ===
    0x33d9
=== CODE BLOCK END ===

=== CODE BLOCK ADDRESS 0x33d9 ===
  0x33d9	mov    	ecx, 2
  0x33de	call   	0x8378
  === BLOCK LINK ===
    0x33e3
=== CODE BLOCK END ===

=== CODE BLOCK ADDRESS 0x33e3 ===
  0x33e3	int3   	
  0x33e4	dec    	eax
  0x33e5	mov    	ecx, 0xffffffff
  0x33eb	dec    	eax
  0x33ec	inc    	ecx
  === BLOCK LINK ===
    0x33ee
=== CODE BLOCK END ===

=== CODE BLOCK ADDRESS 0x33ee ===
  0x33ee	inc    	sp
  0x33f0	cmp    	dword ptr [edx + ecx*2], esp
  0x33f3	jne    	0x33eb
  === BLOCK LINK ===
    0x33f5
=== CODE BLOCK END ===

=== CODE BLOCK ADDRESS 0x33f5 ===
  0x33f5	cmp    	cx, 1
  0x33f9	jle    	0x348a
  === BLOCK LINK ===
    0x33ff
=== CODE BLOCK END ===

=== CODE BLOCK ADDRESS 0x33ff ===
  0x33ff	dec    	esp
  0x3400	movsx  	esi, cx
  0x3403	dec    	eax
  0x3404	lea    	ecx, [0xb17e]
  0x340a	dec    	ebp
  === BLOCK LINK ===
    0x340b
=== CODE BLOCK END ===

=== CODE BLOCK ADDRESS 0x340b ===
  0x340b	mov    	eax, esi
  0x340d	dec    	eax
  0x340e	call   	dword ptr [0x8004]
  === BLOCK LINK ===
    0x3414
=== CODE BLOCK END ===

=== CODE BLOCK ADDRESS 0x3414 ===
  0x3414	nop    	dword ptr [eax + eax]
  0x3419	test   	eax, eax
  0x341b	jne    	0x3440
  === BLOCK LINK ===
    0x341d
=== CODE BLOCK END ===

=== CODE BLOCK ADDRESS 0x341d ===
  0x341d	cmp    	dword ptr [0x15d9c], 2
  0x3424	je     	0x34b6
  === BLOCK LINK ===
    0x342a
=== CODE BLOCK END ===

=== CODE BLOCK ADDRESS 0x342a ===
  0x342a	dec    	eax
  0x342b	mov    	eax, dword ptr [0x12f67]
  0x3431	mov    	dword ptr [0x15d85], 1
  0x343b	jmp    	0x1272
  === BLOCK LINK ===
    0x3440
=== CODE BLOCK END ===

=== CODE BLOCK ADDRESS 0x3440 ===
  0x3440	dec    	eax
  0x3441	mov    	edx, dword ptr [0x12f51]
  0x3447	dec    	eax
  0x3448	lea    	ecx, [0xb132]
  0x344e	dec    	ebp
  === BLOCK LINK ===
    0x344f
=== CODE BLOCK END ===

=== CODE BLOCK ADDRESS 0x344f ===
  0x344f	mov    	eax, esi
  0x3451	dec    	eax
  0x3452	mov    	edx, dword ptr [edx]
  0x3454	dec    	eax
  0x3455	call   	dword ptr [0x7fbd]
  === BLOCK LINK ===
    0x345b
=== CODE BLOCK END ===

=== CODE BLOCK ADDRESS 0x345b ===
  0x345b	nop    	dword ptr [eax + eax]
  0x3460	test   	eax, eax
  0x3462	jne    	0x3483
  === BLOCK LINK ===
    0x3464
=== CODE BLOCK END ===

=== CODE BLOCK ADDRESS 0x3464 ===
  0x3464	cmp    	dword ptr [0x15d55], 1
  0x346b	je     	0x34b6
  === BLOCK LINK ===
    0x346d
=== CODE BLOCK END ===

=== CODE BLOCK ADDRESS 0x346d ===
  0x346d	dec    	eax
  0x346e	mov    	eax, dword ptr [0x12f24]
  0x3474	mov    	dword ptr [0x15d42], 2
  0x347e	jmp    	0x1272
  === BLOCK LINK ===
    0x3483
=== CODE BLOCK END ===

=== CODE BLOCK ADDRESS 0x3483 ===
  0x3483	dec    	eax
  0x3484	mov    	eax, dword ptr [0x12f0e]
  0x348a	mov    	ecx, 0x100
  0x348f	inc    	sp
  0x3491	cmp    	edi, ecx
  === BLOCK LINK ===
    0x3493
=== CODE BLOCK END ===

=== CODE BLOCK ADDRESS 0x3493 ===
  0x3493	jge    	0x34cd
  === BLOCK LINK ===
    0x3495
=== CODE BLOCK END ===

=== CODE BLOCK ADDRESS 0x3495 ===
  0x3495	dec    	eax
  0x3496	mov    	ecx, dword ptr [eax]
  0x3498	dec    	ecx
  0x3499	movsx  	edx, di
  0x349c	inc    	cx
  === BLOCK LINK ===
    0x349e
=== CODE BLOCK END ===

=== CODE BLOCK ADDRESS 0x349e ===
  0x349e	inc    	edi
  0x34a0	dec    	ecx
  0x34a1	mov    	dword ptr [ebp + edx*8 + 0x189b0], ecx
  0x34a8	inc    	cx
  0x34aa	mov    	dword ptr [ebp + edx*2 + 0x191d0], edi
  === BLOCK LINK ===
    0x34b1
=== CODE BLOCK END ===

=== CODE BLOCK ADDRESS 0x34b1 ===
  0x34b1	jmp    	0x1272
  === BLOCK LINK ===
    0x34b6
=== CODE BLOCK END ===

=== CODE BLOCK ADDRESS 0x34b6 ===
  0x34b6	xor    	edx, edx
  0x34b8	mov    	ecx, 0xdb6
  0x34bd	call   	0x7ea4
  === BLOCK LINK ===
    0x34c2
=== CODE BLOCK END ===

=== CODE BLOCK ADDRESS 0x34c2 ===
  0x34c2	mov    	ecx, 2
  0x34c7	call   	0x8378
  === BLOCK LINK ===
    0x34cc
=== CODE BLOCK END ===

=== CODE BLOCK ADDRESS 0x34cc ===
  0x34cc	int3   	
  0x34cd	xor    	edx, edx
  0x34cf	mov    	ecx, 0xdaf
  0x34d4	call   	0x7ea4
  === BLOCK LINK ===
    0x34d9
=== CODE BLOCK END ===

=== CODE BLOCK ADDRESS 0x34d9 ===
  0x34d9	mov    	ecx, 2
  0x34de	call   	0x8378
  === BLOCK LINK ===
    0x34e3
=== CODE BLOCK END ===

=== CODE BLOCK ADDRESS 0x34e3 ===
  0x34e3	int3   	
  0x34e4	xor    	edx, edx
  0x34e6	mov    	ecx, eax
  0x34e8	call   	0x7ea4
  === BLOCK LINK ===
    0x34ed
=== CODE BLOCK END ===

=== CODE BLOCK ADDRESS 0x34ed ===
  0x34ed	mov    	ecx, 2
  0x34f2	call   	0x8378
  === BLOCK LINK ===
    0x34f7
=== CODE BLOCK END ===

=== CODE BLOCK ADDRESS 0x34f7 ===
  0x34f7	int3   	
  0x34f8	dec    	eax
  0x34f9	mov    	eax, dword ptr [ecx + 8]
  0x34fc	dec    	eax
  0x34fd	test   	eax, eax
  === BLOCK LINK ===
    0x34ff
=== CODE BLOCK END ===

=== CODE BLOCK ADDRESS 0x34ff ===
  0x34ff	je     	0x350d
  === BLOCK LINK ===
    0x3501
=== CODE BLOCK END ===

=== CODE BLOCK ADDRESS 0x3501 ===
  0x3501	dec    	eax
  0x3502	mov    	ecx, eax
  0x3504	dec    	eax
  0x3505	mov    	eax, dword ptr [eax + 8]
  0x3508	dec    	eax
  === BLOCK LINK ===
    0x3509
=== CODE BLOCK END ===

=== CODE BLOCK ADDRESS 0x3509 ===
  0x3509	test   	eax, eax
  0x350b	jne    	0x3501
  === BLOCK LINK ===
    0x350d
=== CODE BLOCK END ===

=== CODE BLOCK ADDRESS 0x350d ===
  0x350d	dec    	eax
  0x350e	mov    	eax, dword ptr [esp + 0x48]
  0x3512	dec    	eax
  0x3513	mov    	dword ptr [ecx + 8], eax
  0x3516	jmp    	0x12ec
  === BLOCK LINK ===
    0x351b
=== CODE BLOCK END ===

=== CODE BLOCK ADDRESS 0x3524 ===
  0x3524	mov    	ecx, 2
  0x3529	call   	0x8378
  === BLOCK LINK ===
    0x352e
=== CODE BLOCK END ===

=== CODE BLOCK ADDRESS 0x352e ===
  0x352e	int3   	
  0x352f	dec    	eax
  0x3530	mov    	eax, dword ptr [esp + 0x50]
  0x3534	dec    	eax
  0x3535	mov    	dword ptr [0x12f35], eax
  === BLOCK LINK ===
    0x353b
=== CODE BLOCK END ===

=== CODE BLOCK ADDRESS 0x353b ===
  0x353b	jmp    	0x135d
  === BLOCK LINK ===
    0x3540
=== CODE BLOCK END ===

=== CODE BLOCK ADDRESS 0x3548 ===
  0x3548	test   	eax, eax
  0x354a	jne    	0x3540
  === BLOCK LINK ===
    0x354c
=== CODE BLOCK END ===

=== CODE BLOCK ADDRESS 0x354c ===
  0x354c	jmp    	0x1354
  === BLOCK LINK ===
    0x3551
=== CODE BLOCK END ===

=== CODE BLOCK ADDRESS 0x3551 ===
  0x3551	int3   	
  0x3552	dec    	eax
  0x3553	mov    	ecx, edx
  0x3555	jmp    	0x1486
  === BLOCK LINK ===
    0x355a
=== CODE BLOCK END ===

=== CODE BLOCK ADDRESS 0x355a ===
  0x355a	movzx  	eax, word ptr [ecx + 2]
  0x355e	dec    	eax
  0x355f	add    	ecx, 2
  0x3562	inc    	cx
  0x3564	inc    	ecx
  === BLOCK LINK ===
    0x3566
=== CODE BLOCK END ===

=== CODE BLOCK ADDRESS 0x3566 ===
  0x3566	inc    	cx
  0x3568	cmp    	eax, esi
  0x356a	je     	0x355a
  === BLOCK LINK ===
    0x356c
=== CODE BLOCK END ===

=== CODE BLOCK ADDRESS 0x356c ===
  0x356c	jmp    	0x14e7
  === BLOCK LINK ===
    0x3571
=== CODE BLOCK END ===

=== CODE BLOCK ADDRESS 0x3571 ===
  0x3571	inc    	ebp
  0x3572	test   	bl, cl
  0x3574	jne    	0x3598
  === BLOCK LINK ===
    0x3576
=== CODE BLOCK END ===

=== CODE BLOCK ADDRESS 0x3576 ===
  0x3576	inc    	ebp
  0x3577	mov    	ebx, edi
  0x3579	test   	edx, edx
  0x357b	je     	0x3593
  === BLOCK LINK ===
    0x357d
=== CODE BLOCK END ===

=== CODE BLOCK ADDRESS 0x357d ===
  0x357d	cmp    	word ptr [ecx + 2], 0x22
  0x3582	dec    	eax
  0x3583	lea    	eax, [ecx + 2]
  0x3586	inc    	ecx
  0x3587	mov    	edx, edi
  === BLOCK LINK ===
    0x3589
=== CODE BLOCK END ===

=== CODE BLOCK ADDRESS 0x3589 ===
  0x3589	dec    	eax
  0x358a	cmove  	ecx, eax
  0x358d	inc    	ecx
  0x358e	sete   	bl
  0x3591	jmp    	0x3598
  === BLOCK LINK ===
    0x3593
=== CODE BLOCK END ===

=== CODE BLOCK ADDRESS 0x3593 ===
  0x3593	mov    	edx, 1
  0x3598	inc    	cx
  0x359a	shr    	ecx, 1
  0x359c	jmp    	0x14f1
  === BLOCK LINK ===
    0x35a1
=== CODE BLOCK END ===

=== CODE BLOCK ADDRESS 0x35a1 ===
  0x35a1	inc    	sp
  0x35a3	add    	ecx, ebp
  0x35a5	dec    	ebp
  0x35a6	test   	eax, eax
  0x35a8	je     	0x35b2
  === BLOCK LINK ===
    0x35aa
=== CODE BLOCK END ===

=== CODE BLOCK ADDRESS 0x35aa ===
  0x35aa	inc    	bp
  0x35ac	mov    	dword ptr [eax], esi
  0x35ae	dec    	ecx
  0x35af	add    	eax, 2
  0x35b2	inc    	ecx
  === BLOCK LINK ===
    0x35b3
=== CODE BLOCK END ===

=== CODE BLOCK ADDRESS 0x35b3 ===
  0x35b3	add    	dword ptr [edx], 2
  0x35b6	inc    	bp
  0x35b8	test   	ecx, ecx
  0x35ba	jne    	0x35a1
  === BLOCK LINK ===
    0x35bc
=== CODE BLOCK END ===

=== CODE BLOCK ADDRESS 0x35bc ===
  0x35bc	jmp    	0x14fb
  === BLOCK LINK ===
    0x35c1
=== CODE BLOCK END ===

=== CODE BLOCK ADDRESS 0x35c1 ===
  0x35c1	int3   	
  0x35c2	inc    	edx
  0x35c3	movsx  	eax, word ptr [esi + ecx + 0xbb50]
  0x35cb	cmp    	dword ptr [0x14107], eax
  0x35d1	jne    	0x1693
  === BLOCK LINK ===
    0x35d7
=== CODE BLOCK END ===

=== CODE BLOCK ADDRESS 0x35d7 ===
  0x35d7	jmp    	0x170a
  === BLOCK LINK ===
    0x35dc
=== CODE BLOCK END ===

=== CODE BLOCK ADDRESS 0x35dc ===
  0x35dc	dec    	edx
  0x35dd	movsx  	ecx, word ptr [esi + ecx + 0xbb50]
  0x35e5	dec    	ecx
  0x35e6	mov    	ecx, dword ptr [ecx + ecx*8 + 0xb158]
  0x35ed	call   	0x8b38
  === BLOCK LINK ===
    0x35f2
=== CODE BLOCK END ===

=== CODE BLOCK ADDRESS 0x35f2 ===
  0x35f2	test   	eax, eax
  0x35f4	jne    	0x170a
  === BLOCK LINK ===
    0x35fa
=== CODE BLOCK END ===

=== CODE BLOCK ADDRESS 0x35fa ===
  0x35fa	dec    	esp
  0x35fb	lea    	ecx, [0xffffc9ff]
  0x3601	jmp    	0x1693
  === BLOCK LINK ===
    0x3606
=== CODE BLOCK END ===

=== CODE BLOCK ADDRESS 0x3606 ===
  0x3606	dec    	eax
  0x3607	lea    	ecx, [0x8463]
  0x360d	call   	0x86c8
  === BLOCK LINK ===
    0x3612
=== CODE BLOCK END ===

=== CODE BLOCK ADDRESS 0x3612 ===
  0x3612	dec    	esp
  0x3613	lea    	ecx, [0xffffc9e7]
  0x3619	dec    	esp
  0x361a	lea    	eax, [0xb7c0]
  0x3620	jmp    	0x1a73
  === BLOCK LINK ===
    0x3625
=== CODE BLOCK END ===

=== CODE BLOCK ADDRESS 0x3625 ===
  0x3625	dec    	eax
  0x3626	lea    	ecx, [0x8444]
  0x362c	call   	0x86c8
  === BLOCK LINK ===
    0x3631
=== CODE BLOCK END ===

=== CODE BLOCK ADDRESS 0x3631 ===
  0x3631	nop    	
  0x3632	jmp    	0x176f
  === BLOCK LINK ===
    0x3637
=== CODE BLOCK END ===

=== CODE BLOCK ADDRESS 0x3637 ===
  0x3637	sub    	eax, 2
  0x363a	cmp    	eax, 0xd
  0x363d	ja     	0x1693
  === BLOCK LINK ===
    0x3643
=== CODE BLOCK END ===

=== CODE BLOCK ADDRESS 0x3643 ===
  0x3643	dec    	eax
  0x3644	cwde   	
  0x3645	inc    	ecx
  0x3646	mov    	ecx, dword ptr [ecx + eax*4 + 0x395a]
  0x364d	dec    	ecx
  === BLOCK LINK ===
    0x364e
=== CODE BLOCK END ===

=== CODE BLOCK ADDRESS 0x364e ===
  0x364e	add    	ecx, ecx
  0x3650	jmp    	ecx
  === BLOCK LINK ===
    0x3652
=== CODE BLOCK END ===

=== CODE BLOCK ADDRESS 0x3652 ===
  0x3652	int3   	
  0x3653	int3   	
  0x3654	int3   	
  0x3655	int3   	
  0x3656	dec    	eax
  === BLOCK LINK ===
    0x3657
=== CODE BLOCK END ===

=== CODE BLOCK ADDRESS 0x3657 ===
  0x3657	lea    	edx, [0xa9d3]
  0x365d	jmp    	0x17dc
  === BLOCK LINK ===
    0x3662
=== CODE BLOCK END ===

=== CODE BLOCK ADDRESS 0x3662 ===
  0x3662	call   	0x8b8c
  === BLOCK LINK ===
    0x3667
=== CODE BLOCK END ===

=== CODE BLOCK ADDRESS 0x3667 ===
  0x3667	nop    	
  0x3668	jmp    	0x17e8
  === BLOCK LINK ===
    0x366d
=== CODE BLOCK END ===

=== CODE BLOCK ADDRESS 0x366d ===
  0x366d	dec    	ebx
  0x366e	mov    	ecx, dword ptr [ecx + edi*8 + 0xede0]
  0x3675	call   	0x877c
  === BLOCK LINK ===
    0x367a
=== CODE BLOCK END ===

=== CODE BLOCK ADDRESS 0x367a ===
  0x367a	test   	eax, eax
  0x367c	jne    	0x170a
  === BLOCK LINK ===
    0x3682
=== CODE BLOCK END ===

=== CODE BLOCK ADDRESS 0x3682 ===
  0x3682	dec    	esp
  0x3683	lea    	ecx, [0xffffc977]
  0x3689	dec    	ebx
  0x368a	mov    	ecx, dword ptr [ecx + edi*8 + 0xede0]
  0x3691	call   	0x8a78
  === BLOCK LINK ===
    0x3696
=== CODE BLOCK END ===

=== CODE BLOCK ADDRESS 0x3696 ===
  0x3696	test   	eax, eax
  0x3698	je     	0x1693
  === BLOCK LINK ===
    0x369e
=== CODE BLOCK END ===

=== CODE BLOCK ADDRESS 0x369e ===
  0x369e	jmp    	0x170a
  === BLOCK LINK ===
    0x36a3
=== CODE BLOCK END ===

=== CODE BLOCK ADDRESS 0x36a3 ===
  0x36a3	dec    	ebx
  0x36a4	mov    	ecx, dword ptr [ecx + edi*8 + 0xede0]
  0x36ab	call   	0x877c
  === BLOCK LINK ===
    0x36b0
=== CODE BLOCK END ===

=== CODE BLOCK ADDRESS 0x36b0 ===
  0x36b0	nop    	
  0x36b1	jmp    	0x17e1
  === BLOCK LINK ===
    0x36b6
=== CODE BLOCK END ===

=== CODE BLOCK ADDRESS 0x36b6 ===
  0x36b6	dec    	ebx
  0x36b7	mov    	ecx, dword ptr [ecx + edi*8 + 0xede0]
  0x36be	call   	0x89c4
  === BLOCK LINK ===
    0x36c3
=== CODE BLOCK END ===

=== CODE BLOCK ADDRESS 0x36c3 ===
  0x36c3	nop    	
  0x36c4	jmp    	0x17e1
  === BLOCK LINK ===
    0x36c9
=== CODE BLOCK END ===

=== CODE BLOCK ADDRESS 0x36c9 ===
  0x36c9	dec    	ebx
  0x36ca	mov    	ecx, dword ptr [ecx + edi*8 + 0xede0]
  0x36d1	inc    	ebp
  0x36d2	xor    	eax, eax
  0x36d4	inc    	ecx
  === BLOCK LINK ===
    0x36d5
=== CODE BLOCK END ===

=== CODE BLOCK ADDRESS 0x36d5 ===
  0x36d5	lea    	edx, [eax + 9]
  0x36d8	dec    	eax
  0x36d9	call   	dword ptr [0x7eb9]
  === BLOCK LINK ===
    0x36df
=== CODE BLOCK END ===

=== CODE BLOCK ADDRESS 0x36df ===
  0x36df	nop    	dword ptr [eax + eax]
  0x36e4	test   	eax, eax
  0x36e6	jne    	0x35fa
  === BLOCK LINK ===
    0x36ec
=== CODE BLOCK END ===

=== CODE BLOCK ADDRESS 0x36ec ===
  0x36ec	jmp    	0x170a
  === BLOCK LINK ===
    0x36f1
=== CODE BLOCK END ===

=== CODE BLOCK ADDRESS 0x36f1 ===
  0x36f1	dec    	ebx
  0x36f2	mov    	ecx, dword ptr [ecx + edi*8 + 0xede0]
  0x36f9	call   	0x8a48
  === BLOCK LINK ===
    0x36fe
=== CODE BLOCK END ===

=== CODE BLOCK ADDRESS 0x36fe ===
  0x36fe	nop    	
  0x36ff	jmp    	0x17e1
  === BLOCK LINK ===
    0x3704
=== CODE BLOCK END ===

=== CODE BLOCK ADDRESS 0x3704 ===
  0x3704	dec    	ebx
  0x3705	mov    	ecx, dword ptr [ecx + edi*8 + 0xede0]
  0x370c	call   	0x8898
  === BLOCK LINK ===
    0x3711
=== CODE BLOCK END ===

=== CODE BLOCK ADDRESS 0x3711 ===
  0x3711	nop    	
  0x3712	jmp    	0x17e1
  === BLOCK LINK ===
    0x3717
=== CODE BLOCK END ===

=== CODE BLOCK ADDRESS 0x3717 ===
  0x3717	dec    	ebx
  0x3718	mov    	ecx, dword ptr [ecx + edi*8 + 0xede0]
  0x371f	call   	0x8848
  === BLOCK LINK ===
    0x3724
=== CODE BLOCK END ===

=== CODE BLOCK ADDRESS 0x3724 ===
  0x3724	nop    	
  0x3725	jmp    	0x17e1
  === BLOCK LINK ===
    0x372a
=== CODE BLOCK END ===

=== CODE BLOCK ADDRESS 0x372a ===
  0x372a	dec    	ebx
  0x372b	mov    	ecx, dword ptr [ecx + edi*8 + 0xede0]
  0x3732	call   	0x877c
  === BLOCK LINK ===
    0x3737
=== CODE BLOCK END ===

=== CODE BLOCK ADDRESS 0x3737 ===
  0x3737	dec    	esp
  0x3738	lea    	ecx, [0xffffc8c2]
  0x373e	test   	eax, eax
  0x3740	jne    	0x1693
  === BLOCK LINK ===
    0x3746
=== CODE BLOCK END ===

=== CODE BLOCK ADDRESS 0x3746 ===
  0x3746	dec    	ebx
  0x3747	mov    	ecx, dword ptr [ecx + edi*8 + 0xede0]
  0x374e	call   	0x8a78
  === BLOCK LINK ===
    0x3753
=== CODE BLOCK END ===

=== CODE BLOCK ADDRESS 0x3753 ===
  0x3753	test   	eax, eax
  0x3755	jne    	0x1693
  === BLOCK LINK ===
    0x375b
=== CODE BLOCK END ===

=== CODE BLOCK ADDRESS 0x375b ===
  0x375b	jmp    	0x170a
  === BLOCK LINK ===
    0x3760
=== CODE BLOCK END ===

=== CODE BLOCK ADDRESS 0x3760 ===
  0x3760	dec    	ebx
  0x3761	mov    	ecx, dword ptr [ecx + edi*8 + 0xede0]
  0x3768	call   	0x8a78
  === BLOCK LINK ===
    0x376d
=== CODE BLOCK END ===

=== CODE BLOCK ADDRESS 0x376d ===
  0x376d	xor    	ecx, ecx
  0x376f	test   	eax, eax
  0x3771	sete   	cl
  0x3774	jmp    	0x17ea
  === BLOCK LINK ===
    0x3779
=== CODE BLOCK END ===

=== CODE BLOCK ADDRESS 0x3779 ===
  0x3779	dec    	eax
  0x377b	cmp    	eax, 0xd
  0x377e	ja     	0x170a
  === BLOCK LINK ===
    0x3784
=== CODE BLOCK END ===

=== CODE BLOCK ADDRESS 0x3784 ===
  0x3784	dec    	eax
  0x3785	cwde   	
  0x3786	inc    	ecx
  0x3787	mov    	ecx, dword ptr [ecx + eax*4 + 0x3992]
  0x378e	dec    	ecx
  === BLOCK LINK ===
    0x378f
=== CODE BLOCK END ===

=== CODE BLOCK ADDRESS 0x378f ===
  0x378f	add    	ecx, ecx
  0x3791	jmp    	ecx
  === BLOCK LINK ===
    0x3793
=== CODE BLOCK END ===

=== CODE BLOCK ADDRESS 0x3793 ===
  0x3793	int3   	
  0x3794	int3   	
  0x3795	int3   	
  0x3796	int3   	
  0x3797	call   	0x6e44
  === BLOCK LINK ===
    0x379c
=== CODE BLOCK END ===

=== CODE BLOCK ADDRESS 0x379c ===
  0x379c	nop    	
  0x379d	jmp    	0x170a
  === BLOCK LINK ===
    0x37a2
=== CODE BLOCK END ===

=== CODE BLOCK ADDRESS 0x37a2 ===
  0x37a2	dec    	ebx
  0x37a3	mov    	ecx, dword ptr [ecx + edi*8 + 0xede8]
  0x37aa	call   	0x67b4
  === BLOCK LINK ===
    0x37af
=== CODE BLOCK END ===

=== CODE BLOCK ADDRESS 0x37af ===
  0x37af	nop    	
  0x37b0	jmp    	0x170a
  === BLOCK LINK ===
    0x37b5
=== CODE BLOCK END ===

=== CODE BLOCK ADDRESS 0x37b5 ===
  0x37b5	dec    	ebx
  0x37b6	mov    	ecx, dword ptr [ecx + edi*8 + 0xede8]
  0x37bd	call   	0x6f84
  === BLOCK LINK ===
    0x37c2
=== CODE BLOCK END ===

=== CODE BLOCK ADDRESS 0x37c2 ===
  0x37c2	nop    	
  0x37c3	jmp    	0x170a
  === BLOCK LINK ===
    0x37c8
=== CODE BLOCK END ===

=== CODE BLOCK ADDRESS 0x37c8 ===
  0x37c8	dec    	edi
  0x37c9	mov    	eax, dword ptr [ecx + edi*8 + 0xedf0]
  0x37d0	xor    	ecx, ecx
  0x37d2	dec    	ebx
  0x37d3	mov    	edx, dword ptr [ecx + edi*8 + 0xede8]
  === BLOCK LINK ===
    0x37da
=== CODE BLOCK END ===

=== CODE BLOCK ADDRESS 0x37da ===
  0x37da	mov    	dword ptr [esp + 0x20], 1
  0x37e2	call   	0x5c08
  === BLOCK LINK ===
    0x37e7
=== CODE BLOCK END ===

=== CODE BLOCK ADDRESS 0x37e7 ===
  0x37e7	nop    	
  0x37e8	jmp    	0x170a
  === BLOCK LINK ===
    0x37ed
=== CODE BLOCK END ===

=== CODE BLOCK ADDRESS 0x37ed ===
  0x37ed	dec    	ebx
  0x37ee	mov    	ecx, dword ptr [ecx + edi*8 + 0xede8]
  0x37f5	call   	0x6d60
  === BLOCK LINK ===
    0x37fa
=== CODE BLOCK END ===

=== CODE BLOCK ADDRESS 0x37fa ===
  0x37fa	nop    	
  0x37fb	jmp    	0x170a
  === BLOCK LINK ===
    0x3800
=== CODE BLOCK END ===

=== CODE BLOCK ADDRESS 0x3800 ===
  0x3800	dec    	ebx
  0x3801	mov    	ecx, dword ptr [ecx + edi*8 + 0xede8]
  0x3808	xor    	edx, edx
  0x380a	call   	0x64cc
  === BLOCK LINK ===
    0x380f
=== CODE BLOCK END ===

=== CODE BLOCK ADDRESS 0x380f ===
  0x380f	nop    	
  0x3810	jmp    	0x170a
  === BLOCK LINK ===
    0x3815
=== CODE BLOCK END ===

=== CODE BLOCK ADDRESS 0x3815 ===
  0x3815	dec    	ebx
  0x3816	mov    	edx, dword ptr [ecx + edi*8 + 0xedf0]
  0x381d	dec    	ebx
  0x381e	mov    	ecx, dword ptr [ecx + edi*8 + 0xede8]
  0x3825	call   	0x64cc
  === BLOCK LINK ===
    0x382a
=== CODE BLOCK END ===

=== CODE BLOCK ADDRESS 0x382a ===
  0x382a	nop    	
  0x382b	jmp    	0x170a
  === BLOCK LINK ===
    0x3830
=== CODE BLOCK END ===

=== CODE BLOCK ADDRESS 0x3830 ===
  0x3830	dec    	edi
  0x3831	mov    	eax, dword ptr [ecx + edi*8 + 0xedf8]
  0x3838	jmp    	0x383d
  === BLOCK LINK ===
    0x383a
=== CODE BLOCK END ===

=== CODE BLOCK ADDRESS 0x383a ===
  0x383a	inc    	ebp
  0x383b	xor    	eax, eax
  0x383d	dec    	ebx
  0x383e	mov    	edx, dword ptr [ecx + edi*8 + 0xedf0]
  0x3845	dec    	ebx
  === BLOCK LINK ===
    0x3846
=== CODE BLOCK END ===

=== CODE BLOCK ADDRESS 0x3846 ===
  0x3846	mov    	ecx, dword ptr [ecx + edi*8 + 0xede8]
  0x384d	mov    	dword ptr [esp + 0x20], 1
  0x3855	call   	0x5c08
  === BLOCK LINK ===
    0x385a
=== CODE BLOCK END ===

=== CODE BLOCK ADDRESS 0x385a ===
  0x385a	nop    	
  0x385b	jmp    	0x170a
  === BLOCK LINK ===
    0x3860
=== CODE BLOCK END ===

=== CODE BLOCK ADDRESS 0x3860 ===
  0x3860	xor    	ecx, ecx
  0x3862	call   	0x7264
  === BLOCK LINK ===
    0x3867
=== CODE BLOCK END ===

=== CODE BLOCK ADDRESS 0x3867 ===
  0x3867	nop    	
  0x3868	jmp    	0x170a
  === BLOCK LINK ===
    0x386d
=== CODE BLOCK END ===

=== CODE BLOCK ADDRESS 0x386d ===
  0x386d	dec    	ebx
  0x386e	mov    	ecx, dword ptr [ecx + edi*8 + 0xede8]
  0x3875	call   	0x7264
  === BLOCK LINK ===
    0x387a
=== CODE BLOCK END ===

=== CODE BLOCK ADDRESS 0x387a ===
  0x387a	nop    	
  0x387b	jmp    	0x170a
  === BLOCK LINK ===
    0x3880
=== CODE BLOCK END ===

=== CODE BLOCK ADDRESS 0x3880 ===
  0x3880	inc    	ecx
  0x3881	cmp    	ebp, 0x28
  0x3884	jae    	0x170a
  === BLOCK LINK ===
    0x388a
=== CODE BLOCK END ===

=== CODE BLOCK ADDRESS 0x388a ===
  0x388a	inc    	ebp
  0x388b	test   	esp, esp
  0x388d	js     	0x170a
  === BLOCK LINK ===
    0x3893
=== CODE BLOCK END ===

=== CODE BLOCK ADDRESS 0x3893 ===
  0x3893	dec    	ebx
  0x3894	mov    	eax, dword ptr [ecx + 0xede0]
  0x389b	jmp    	0x169e
  === BLOCK LINK ===
    0x38a0
=== CODE BLOCK END ===

=== CODE BLOCK ADDRESS 0x38a0 ===
  0x38a0	dec    	eax
  0x38a1	lea    	ecx, [0x81c9]
  0x38a7	call   	0x86c8
  === BLOCK LINK ===
    0x38ac
=== CODE BLOCK END ===

=== CODE BLOCK ADDRESS 0x38ac ===
  0x38ac	nop    	
  0x38ad	jmp    	0x170a
  === BLOCK LINK ===
    0x38b2
=== CODE BLOCK END ===

=== CODE BLOCK ADDRESS 0x38b2 ===
  0x38b2	inc    	ebx
  0x38b4	jmp    	0x170a
  === BLOCK LINK ===
    0x38b9
=== CODE BLOCK END ===

=== CODE BLOCK ADDRESS 0x38b9 ===
  0x38b9	dec    	eax
  0x38ba	lea    	ecx, [0x81b0]
  0x38c0	call   	0x86c8
  === BLOCK LINK ===
    0x38c5
=== CODE BLOCK END ===

=== CODE BLOCK ADDRESS 0x38c5 ===
  0x38c5	dec    	esp
  0x38c6	lea    	ecx, [0xffffc734]
  0x38cc	dec    	esp
  0x38cd	lea    	eax, [0xb50d]
  0x38d3	jmp    	0x1721
  === BLOCK LINK ===
    0x38d8
=== CODE BLOCK END ===

=== CODE BLOCK ADDRESS 0x38d8 ===
  0x38d8	inc    	edx
  0x38d9	movsx  	ebp, word ptr [esi + ecx + 0xbb50]
  0x38e1	jmp    	0x162c
  === BLOCK LINK ===
    0x38e6
=== CODE BLOCK END ===

=== CODE BLOCK ADDRESS 0x38e6 ===
  0x38e6	dec    	eax
  0x38e7	lea    	ecx, [0x8183]
  0x38ed	call   	0x86c8
  === BLOCK LINK ===
    0x38f2
=== CODE BLOCK END ===

=== CODE BLOCK ADDRESS 0x38f2 ===
  0x38f2	dec    	esp
  0x38f3	lea    	ecx, [0xffffc707]
  0x38f9	jmp    	0x16e0
  === BLOCK LINK ===
    0x38fe
=== CODE BLOCK END ===

=== CODE BLOCK ADDRESS 0x38fe ===
  0x38fe	call   	0x4aa0
  === BLOCK LINK ===
    0x3903
=== CODE BLOCK END ===

=== CODE BLOCK ADDRESS 0x3903 ===
  0x3903	int3   	
  === BLOCK LINK ===
    0x3904
=== CODE BLOCK END ===

=== CODE BLOCK ADDRESS 0x390d ===
  0x390d	mov    	ecx, 2
  0x3912	call   	0x8378
  === BLOCK LINK ===
    0x3917
=== CODE BLOCK END ===

=== CODE BLOCK ADDRESS 0x3917 ===
  0x3917	int3   	
  === BLOCK LINK ===
    0x3918
=== CODE BLOCK END ===

=== CODE BLOCK ADDRESS 0x391f ===
  0x391f	nop    	dword ptr [eax + eax]
  0x3924	mov    	ecx, eax
  0x3926	xor    	edx, edx
  0x3928	call   	0x7ea4
  === BLOCK LINK ===
    0x392d
=== CODE BLOCK END ===

=== CODE BLOCK ADDRESS 0x392d ===
  0x392d	mov    	ecx, 2
  0x3932	call   	0x8378
  === BLOCK LINK ===
    0x3937
=== CODE BLOCK END ===

=== CODE BLOCK ADDRESS 0x3937 ===
  0x3937	int3   	
  === BLOCK LINK ===
    0x3938
=== CODE BLOCK END ===

=== CODE BLOCK ADDRESS 0x393f ===
  0x393f	nop    	dword ptr [eax + eax]
  0x3944	mov    	ecx, eax
  0x3946	xor    	edx, edx
  0x3948	call   	0x7ea4
  === BLOCK LINK ===
    0x394d
=== CODE BLOCK END ===

=== CODE BLOCK ADDRESS 0x394d ===
  0x394d	mov    	ecx, 2
  0x3952	call   	0x8378
  === BLOCK LINK ===
    0x3957
=== CODE BLOCK END ===

=== CODE BLOCK ADDRESS 0x3957 ===
  0x3957	int3   	
  0x3958	nop    	
  0x395a	bound  	esi, qword ptr [esi]
  0x395c	add    	byte ptr [eax], al
  0x395e	bound  	esi, qword ptr [esi]
  === BLOCK LINK ===
    0x3960
=== CODE BLOCK END ===

=== CODE BLOCK ADDRESS 0x3960 ===
  0x3960	add    	byte ptr [eax], al
  0x3962	pop    	ebx
  0x3963	sbb    	byte ptr [eax], al
  0x3965	add    	byte ptr [edx + 0x36], ah
  0x3968	add    	byte ptr [eax], al
  === BLOCK LINK ===
    0x396a
=== CODE BLOCK END ===

=== CODE BLOCK ADDRESS 0x396a ===
  0x396a	push   	esi
  0x396b	add    	byte ptr ss:[eax], al
  0x396e	insd   	dword ptr es:[edi], dx
  0x396f	add    	byte ptr ss:[eax], al
  0x3972	mov    	dword ptr [0xb6000036], eax
  === BLOCK LINK ===
    0x3977
=== CODE BLOCK END ===

=== CODE BLOCK ADDRESS 0x3977 ===
  0x3977	add    	byte ptr ss:[eax], al
  0x397a	leave  	
  0x397b	add    	byte ptr ss:[eax], al
  0x397e	int1   	
  0x397f	add    	byte ptr ss:[eax], al
  === BLOCK LINK ===
    0x3982
=== CODE BLOCK END ===

=== CODE BLOCK ADDRESS 0x3982 ===
  0x3982	add    	al, 0x37
  0x3984	add    	byte ptr [eax], al
  0x3986	pop    	ss
  0x3987	aaa    	
  0x3988	add    	byte ptr [eax], al
  === BLOCK LINK ===
    0x398a
=== CODE BLOCK END ===

=== CODE BLOCK ADDRESS 0x398a ===
  0x398a	sub    	dh, byte ptr [edi]
  0x398c	add    	byte ptr [eax], al
  0x398e	pushal  	
  0x398f	aaa    	
  0x3990	add    	byte ptr [eax], al
  === BLOCK LINK ===
    0x3992
=== CODE BLOCK END ===

=== CODE BLOCK ADDRESS 0x3992 ===
  0x3992	xchg   	eax, edi
  0x3993	aaa    	
  0x3994	add    	byte ptr [eax], al
  0x3996	mov    	byte ptr [0xb5000037], al
  0x399b	aaa    	
  === BLOCK LINK ===
    0x399c
=== CODE BLOCK END ===

=== CODE BLOCK ADDRESS 0x399c ===
  0x399c	add    	byte ptr [eax], al
  0x399e	enter  	0x37, 0
  0x39a2	in     	eax, dx
  0x39a3	aaa    	
  0x39a4	add    	byte ptr [eax], al
  === BLOCK LINK ===
    0x39a6
=== CODE BLOCK END ===

=== CODE BLOCK ADDRESS 0x39a6 ===
  0x39a6	mov    	byte ptr [0x37], al
  0x39ab	cmp    	byte ptr [eax], al
  0x39ad	add    	byte ptr [0x30000038], dl
  0x39b3	cmp    	byte ptr [eax], al
  0x39b5	add    	byte ptr [edx], bh
  === BLOCK LINK ===
    0x39b7
=== CODE BLOCK END ===

=== CODE BLOCK ADDRESS 0x39b7 ===
  0x39b7	cmp    	byte ptr [eax], al
  0x39b9	add    	byte ptr [eax + 0x38], ah
  0x39bc	add    	byte ptr [eax], al
  0x39be	insd   	dword ptr es:[edi], dx
  0x39bf	cmp    	byte ptr [eax], al
  === BLOCK LINK ===
    0x39c1
=== CODE BLOCK END ===

=== CODE BLOCK ADDRESS 0x39c1 ===
  0x39c1	add    	byte ptr [edx], cl
  0x39c3	pop    	ss
  0x39c4	add    	byte ptr [eax], al
  0x39c6	.byte  	0xfe
  0x39c7	cmp    	byte ptr [eax], al
  === BLOCK LINK ===
    0x39c9
=== CODE BLOCK END ===

=== CODE BLOCK ADDRESS 0x39c9 ===
  0x39c9	add    	byte ptr [ebx], dh
  0x39cb	ror    	byte ptr [ebx + 0x44d1e8c8], cl
  0x39d1	add    	byte ptr [eax], al
  0x39d3	mov    	ecx, 2
  0x39d8	call   	0x8378
  === BLOCK LINK ===
    0x39dd
=== CODE BLOCK END ===

=== CODE BLOCK ADDRESS 0x39dd ===
  0x39dd	int3   	
  0x39de	dec    	eax
  0x39df	mov    	ecx, dword ptr [esp + 0x50]
  0x39e3	dec    	eax
  0x39e4	call   	dword ptr [0x7bce]
  === BLOCK LINK ===
    0x39ea
=== CODE BLOCK END ===

=== CODE BLOCK ADDRESS 0x39ea ===
  0x39ea	nop    	dword ptr [eax + eax]
  0x39ef	dec    	esp
  0x39f0	mov    	dword ptr [0x13cd2], edi
  0x39f6	jmp    	0x1cb3
  === BLOCK LINK ===
    0x39fb
=== CODE BLOCK END ===

=== CODE BLOCK ADDRESS 0x39fb ===
  0x39fb	mov    	edx, dword ptr [esp + 0x40]
  0x39ff	dec    	esp
  0x3a00	lea    	eax, [esp + 0x50]
  0x3a04	dec    	eax
  0x3a05	mov    	ecx, dword ptr [esp + 0x50]
  === BLOCK LINK ===
    0x3a09
=== CODE BLOCK END ===

=== CODE BLOCK ADDRESS 0x3a09 ===
  0x3a09	dec    	eax
  0x3a0a	call   	dword ptr [0x7ba0]
  === BLOCK LINK ===
    0x3a10
=== CODE BLOCK END ===

=== CODE BLOCK ADDRESS 0x3a10 ===
  0x3a10	nop    	dword ptr [eax + eax]
  0x3a15	dec    	eax
  0x3a16	mov    	ecx, dword ptr [esp + 0x60]
  0x3a1a	mov    	ebx, eax
  0x3a1c	test   	eax, eax
  === BLOCK LINK ===
    0x3a1e
=== CODE BLOCK END ===

=== CODE BLOCK ADDRESS 0x3a1e ===
  0x3a1e	je     	0x3a40
  === BLOCK LINK ===
    0x3a20
=== CODE BLOCK END ===

=== CODE BLOCK ADDRESS 0x3a20 ===
  0x3a20	dec    	eax
  0x3a21	call   	dword ptr [0x7959]
  === BLOCK LINK ===
    0x3a27
=== CODE BLOCK END ===

=== CODE BLOCK ADDRESS 0x3a27 ===
  0x3a27	nop    	dword ptr [eax + eax]
  0x3a2c	xor    	edx, edx
  0x3a2e	mov    	ecx, ebx
  0x3a30	call   	0x7ea4
  === BLOCK LINK ===
    0x3a35
=== CODE BLOCK END ===

=== CODE BLOCK ADDRESS 0x3a35 ===
  0x3a35	mov    	ecx, 2
  0x3a3a	call   	0x8378
  === BLOCK LINK ===
    0x3a3f
=== CODE BLOCK END ===

=== CODE BLOCK ADDRESS 0x3a3f ===
  0x3a3f	int3   	
  0x3a40	dec    	eax
  0x3a41	lea    	eax, [esp + 0x40]
  0x3a45	inc    	ebp
  0x3a46	xor    	eax, eax
  === BLOCK LINK ===
    0x3a48
=== CODE BLOCK END ===

=== CODE BLOCK ADDRESS 0x3a48 ===
  0x3a48	dec    	eax
  0x3a49	mov    	dword ptr [esp + 0x28], eax
  0x3a4d	dec    	esp
  0x3a4e	lea    	ecx, [esp + 0x48]
  0x3a52	dec    	eax
  === BLOCK LINK ===
    0x3a53
=== CODE BLOCK END ===

=== CODE BLOCK ADDRESS 0x3a53 ===
  0x3a53	mov    	eax, dword ptr [esp + 0x50]
  0x3a57	dec    	eax
  0x3a58	lea    	edx, [0x7d0a]
  0x3a5e	dec    	eax
  0x3a5f	mov    	dword ptr [esp + 0x20], eax
  === BLOCK LINK ===
    0x3a63
=== CODE BLOCK END ===

=== CODE BLOCK ADDRESS 0x3a63 ===
  0x3a63	dec    	eax
  0x3a64	call   	dword ptr [0x790e]
  === BLOCK LINK ===
    0x3a6a
=== CODE BLOCK END ===

=== CODE BLOCK ADDRESS 0x3a6a ===
  0x3a6a	nop    	dword ptr [eax + eax]
  0x3a6f	mov    	ebx, eax
  0x3a71	jmp    	0x1c85
  === BLOCK LINK ===
    0x3a76
=== CODE BLOCK END ===

=== CODE BLOCK ADDRESS 0x3a76 ===
  0x3a76	xor    	edx, edx
  0x3a78	mov    	ecx, eax
  0x3a7a	call   	0x7ea4
  === BLOCK LINK ===
    0x3a7f
=== CODE BLOCK END ===

=== CODE BLOCK ADDRESS 0x3a7f ===
  0x3a7f	mov    	ecx, 2
  0x3a84	call   	0x8378
  === BLOCK LINK ===
    0x3a89
=== CODE BLOCK END ===

=== CODE BLOCK ADDRESS 0x3a89 ===
  0x3a89	int3   	
  0x3a8a	mov    	ecx, eax
  0x3a8c	call   	0x7ea4
  === BLOCK LINK ===
    0x3a91
=== CODE BLOCK END ===

=== CODE BLOCK ADDRESS 0x3a91 ===
  0x3a91	mov    	ecx, 2
  0x3a96	call   	0x8378
  === BLOCK LINK ===
    0x3a9b
=== CODE BLOCK END ===

=== CODE BLOCK ADDRESS 0x3a9b ===
  0x3a9b	int3   	
  0x3a9c	dec    	eax
  0x3a9d	mov    	ecx, dword ptr [esp + 0x70]
  0x3aa1	lea    	esi, [eax + 0x40]
  0x3aa4	lea    	edx, [esi + esi*2]
  === BLOCK LINK ===
    0x3aa7
=== CODE BLOCK END ===

=== CODE BLOCK ADDRESS 0x3aa7 ===
  0x3aa7	mov    	dword ptr [esp + 0x60], esi
  0x3aab	shl    	edx, 4
  0x3aae	dec    	esp
  0x3aaf	lea    	eax, [esp + 0x70]
  0x3ab3	dec    	eax
  === BLOCK LINK ===
    0x3ab4
=== CODE BLOCK END ===

=== CODE BLOCK ADDRESS 0x3ab4 ===
  0x3ab4	call   	dword ptr [0x7af6]
  === BLOCK LINK ===
    0x3aba
=== CODE BLOCK END ===

=== CODE BLOCK ADDRESS 0x3aba ===
  0x3aba	nop    	dword ptr [eax + eax]
  0x3abf	test   	eax, eax
  0x3ac1	jne    	0x3ba6
  === BLOCK LINK ===
    0x3ac7
=== CODE BLOCK END ===

=== CODE BLOCK ADDRESS 0x3ac7 ===
  0x3ac7	mov    	ecx, dword ptr [esp + 0x40]
  0x3acb	jmp    	0x1d8b
  === BLOCK LINK ===
    0x3ad0
=== CODE BLOCK END ===

=== CODE BLOCK ADDRESS 0x3ad0 ===
  0x3ad0	dec    	esp
  0x3ad1	mov    	ecx, dword ptr [esp + 0x50]
  0x3ad5	dec    	ecx
  0x3ad6	add    	ecx, 0x18
  0x3ad9	dec    	ecx
  === BLOCK LINK ===
    0x3ada
=== CODE BLOCK END ===

=== CODE BLOCK ADDRESS 0x3ada ===
  0x3ada	mov    	eax, dword ptr [ecx - 8]
  0x3add	dec    	ecx
  0x3ade	mov    	ecx, edi
  0x3ae0	dec    	esp
  0x3ae1	mov    	ebx, dword ptr [0x13be1]
  === BLOCK LINK ===
    0x3ae7
=== CODE BLOCK END ===

=== CODE BLOCK ADDRESS 0x3ae7 ===
  0x3ae7	dec    	eax
  0x3ae8	test   	eax, eax
  0x3aea	dec    	eax
  0x3aeb	cmovne  	ecx, eax
  0x3aee	dec    	eax
  === BLOCK LINK ===
    0x3aef
=== CODE BLOCK END ===

=== CODE BLOCK ADDRESS 0x3aef ===
  0x3aef	mov    	dword ptr [edx], ecx
  0x3af1	dec    	ecx
  0x3af2	mov    	ecx, edi
  0x3af4	dec    	ecx
  0x3af5	mov    	eax, dword ptr [ecx]
  === BLOCK LINK ===
    0x3af7
=== CODE BLOCK END ===

=== CODE BLOCK ADDRESS 0x3af7 ===
  0x3af7	dec    	eax
  0x3af8	test   	eax, eax
  0x3afa	dec    	eax
  0x3afb	cmovne  	ecx, eax
  0x3afe	dec    	eax
  === BLOCK LINK ===
    0x3aff
=== CODE BLOCK END ===

=== CODE BLOCK ADDRESS 0x3aff ===
  0x3aff	mov    	dword ptr [edx + 8], ecx
  0x3b02	dec    	ecx
  0x3b03	mov    	ecx, edi
  0x3b05	dec    	ecx
  0x3b06	mov    	eax, dword ptr [ecx + 0x10]
  === BLOCK LINK ===
    0x3b09
=== CODE BLOCK END ===

=== CODE BLOCK ADDRESS 0x3b09 ===
  0x3b09	dec    	eax
  0x3b0a	test   	eax, eax
  0x3b0c	dec    	eax
  0x3b0d	cmovne  	ecx, eax
  0x3b10	dec    	eax
  === BLOCK LINK ===
    0x3b11
=== CODE BLOCK END ===

=== CODE BLOCK ADDRESS 0x3b11 ===
  0x3b11	mov    	dword ptr [edx + 0x10], ecx
  0x3b14	inc    	ecx
  0x3b15	mov    	eax, dword ptr [ecx - 0x14]
  0x3b18	mov    	dword ptr [edx + 0x18], eax
  0x3b1b	dec    	ecx
  === BLOCK LINK ===
    0x3b1c
=== CODE BLOCK END ===

=== CODE BLOCK ADDRESS 0x3b1c ===
  0x3b1c	mov    	eax, dword ptr [ecx + 0x10]
  0x3b1f	dec    	esp
  0x3b20	sub    	ebx, eax
  0x3b22	inc    	esp
  0x3b23	movzx  	edx, word ptr [eax]
  === BLOCK LINK ===
    0x3b26
=== CODE BLOCK END ===

=== CODE BLOCK ADDRESS 0x3b26 ===
  0x3b26	inc    	edx
  0x3b27	movzx  	ecx, word ptr [eax + ebx]
  0x3b2b	inc    	esp
  0x3b2c	sub    	edx, ecx
  0x3b2e	jne    	0x3b38
  === BLOCK LINK ===
    0x3b30
=== CODE BLOCK END ===

=== CODE BLOCK ADDRESS 0x3b30 ===
  0x3b30	dec    	eax
  0x3b31	add    	eax, 2
  0x3b34	test   	ecx, ecx
  0x3b36	jne    	0x3b22
  === BLOCK LINK ===
    0x3b38
=== CODE BLOCK END ===

=== CODE BLOCK ADDRESS 0x3b38 ===
  0x3b38	inc    	ebp
  0x3b39	test   	edx, edx
  0x3b3b	mov    	dword ptr [edx + 0x1c], 0xffffffff
  0x3b42	inc    	ecx
  0x3b43	mov    	eax, esi
  === BLOCK LINK ===
    0x3b45
=== CODE BLOCK END ===

=== CODE BLOCK ADDRESS 0x3b45 ===
  0x3b45	dec    	esp
  0x3b46	mov    	dword ptr [edx + 0x20], esi
  0x3b49	sete   	al
  0x3b4c	inc    	ecx
  0x3b4d	inc    	eax
  === BLOCK LINK ===
    0x3b4f
=== CODE BLOCK END ===

=== CODE BLOCK ADDRESS 0x3b4f ===
  0x3b4f	mov    	dword ptr [edx + 0x28], eax
  0x3b52	inc    	edi
  0x3b54	dec    	eax
  0x3b55	add    	edx, 0x30
  0x3b58	dec    	ecx
  === BLOCK LINK ===
    0x3b59
=== CODE BLOCK END ===

=== CODE BLOCK ADDRESS 0x3b59 ===
  0x3b59	add    	ecx, 0x30
  0x3b5c	inc    	esp
  0x3b5d	cmp    	eax, dword ptr [esp + 0x40]
  0x3b61	jb     	0x3ad9
  === BLOCK LINK ===
    0x3b67
=== CODE BLOCK END ===

=== CODE BLOCK ADDRESS 0x3b67 ===
  0x3b67	jmp    	0x1da5
  === BLOCK LINK ===
    0x3b6c
=== CODE BLOCK END ===

=== CODE BLOCK ADDRESS 0x3b6c ===
  0x3b6c	dec    	eax
  0x3b6d	lea    	edx, [esp + 0x50]
  0x3b71	mov    	dword ptr [esp + 0x58], 0x1000
  0x3b79	mov    	ecx, 0x1000
  0x3b7e	dec    	eax
  === BLOCK LINK ===
    0x3b7f
=== CODE BLOCK END ===

=== CODE BLOCK ADDRESS 0x3b7f ===
  0x3b7f	call   	dword ptr [0x7a3b]
  === BLOCK LINK ===
    0x3b85
=== CODE BLOCK END ===

=== CODE BLOCK ADDRESS 0x3b85 ===
  0x3b85	nop    	dword ptr [eax + eax]
  0x3b8a	test   	eax, eax
  0x3b8c	je     	0x1d43
  === BLOCK LINK ===
    0x3b92
=== CODE BLOCK END ===

=== CODE BLOCK ADDRESS 0x3b92 ===
  0x3b92	xor    	edx, edx
  0x3b94	mov    	ecx, eax
  0x3b96	call   	0x7ea4
  === BLOCK LINK ===
    0x3b9b
=== CODE BLOCK END ===

=== CODE BLOCK ADDRESS 0x3b9b ===
  0x3b9b	mov    	ecx, 2
  0x3ba0	call   	0x8378
  === BLOCK LINK ===
    0x3ba5
=== CODE BLOCK END ===

=== CODE BLOCK ADDRESS 0x3ba5 ===
  0x3ba5	int3   	
  0x3ba6	mov    	ebx, eax
  0x3ba8	test   	ebx, ebx
  0x3baa	je     	0x1dc2
  === BLOCK LINK ===
    0x3bb0
=== CODE BLOCK END ===

=== CODE BLOCK ADDRESS 0x3bb0 ===
  0x3bb0	xor    	edx, edx
  0x3bb2	mov    	ecx, ebx
  0x3bb4	call   	0x7ea4
  === BLOCK LINK ===
    0x3bb9
=== CODE BLOCK END ===

=== CODE BLOCK ADDRESS 0x3bb9 ===
  0x3bb9	mov    	ecx, 2
  0x3bbe	call   	0x8378
  === BLOCK LINK ===
    0x3bc3
=== CODE BLOCK END ===

=== CODE BLOCK ADDRESS 0x3bc3 ===
  0x3bc3	int3   	
  0x3bc4	xor    	edx, edx
  0x3bc6	mov    	ecx, eax
  0x3bc8	call   	0x7ea4
  === BLOCK LINK ===
    0x3bcd
=== CODE BLOCK END ===

=== CODE BLOCK ADDRESS 0x3bcd ===
  0x3bcd	mov    	ecx, 2
  0x3bd2	call   	0x8378
  === BLOCK LINK ===
    0x3bd7
=== CODE BLOCK END ===

=== CODE BLOCK ADDRESS 0x3bd7 ===
  0x3bd7	int3   	
  0x3bd8	test   	edi, edi
  0x3bda	je     	0x3c83
  === BLOCK LINK ===
    0x3be0
=== CODE BLOCK END ===

=== CODE BLOCK ADDRESS 0x3be0 ===
  0x3be0	dec    	eax
  0x3be1	add    	ebx, 8
  0x3be4	dec    	esp
  0x3be5	mov    	edi, edi
  0x3be7	cmp    	dword ptr [ebx + 0x20], 0
  === BLOCK LINK ===
    0x3beb
=== CODE BLOCK END ===

=== CODE BLOCK ADDRESS 0x3beb ===
  0x3beb	je     	0x3c71
  === BLOCK LINK ===
    0x3bf1
=== CODE BLOCK END ===

=== CODE BLOCK ADDRESS 0x3bf1 ===
  0x3bf1	cmp    	dword ptr [esp + 0x40], 0
  0x3bf6	dec    	eax
  0x3bf7	mov    	edi, dword ptr [esp + 0x68]
  0x3bfb	jbe    	0x3c6e
  === BLOCK LINK ===
    0x3bfd
=== CODE BLOCK END ===

=== CODE BLOCK ADDRESS 0x3bfd ===
  0x3bfd	dec    	eax
  0x3bfe	mov    	esi, dword ptr [edi]
  0x3c00	dec    	esp
  0x3c01	mov    	esp, dword ptr [edi + 8]
  0x3c04	dec    	eax
  === BLOCK LINK ===
    0x3c05
=== CODE BLOCK END ===

=== CODE BLOCK ADDRESS 0x3c05 ===
  0x3c05	test   	esi, esi
  0x3c07	je     	0x3c2c
  === BLOCK LINK ===
    0x3c09
=== CODE BLOCK END ===

=== CODE BLOCK ADDRESS 0x3c09 ===
  0x3c09	cmp    	word ptr [esi], 0
  0x3c0d	je     	0x3c2c
  === BLOCK LINK ===
    0x3c0f
=== CODE BLOCK END ===

=== CODE BLOCK ADDRESS 0x3c0f ===
  0x3c0f	dec    	eax
  0x3c10	mov    	ecx, dword ptr [ebx - 8]
  0x3c13	dec    	eax
  0x3c14	mov    	edx, esi
  0x3c16	dec    	eax
  === BLOCK LINK ===
    0x3c17
=== CODE BLOCK END ===

=== CODE BLOCK ADDRESS 0x3c17 ===
  0x3c17	call   	dword ptr [0x781b]
  === BLOCK LINK ===
    0x3c1d
=== CODE BLOCK END ===

=== CODE BLOCK ADDRESS 0x3c1d ===
  0x3c1d	nop    	dword ptr [eax + eax]
  0x3c22	test   	eax, eax
  0x3c24	je     	0x3c5c
  === BLOCK LINK ===
    0x3c26
=== CODE BLOCK END ===

=== CODE BLOCK ADDRESS 0x3c26 ===
  0x3c26	cmp    	word ptr [esi], 0
  0x3c2a	jne    	0x3c4c
  === BLOCK LINK ===
    0x3c2c
=== CODE BLOCK END ===

=== CODE BLOCK ADDRESS 0x3c2c ===
  0x3c2c	dec    	eax
  0x3c2d	mov    	eax, dword ptr [ebx - 8]
  0x3c30	cmp    	word ptr [eax], 0
  0x3c34	jne    	0x3c4c
  === BLOCK LINK ===
    0x3c36
=== CODE BLOCK END ===

=== CODE BLOCK ADDRESS 0x3c36 ===
  0x3c36	dec    	eax
  0x3c37	mov    	ecx, dword ptr [ebx]
  0x3c39	dec    	ecx
  0x3c3a	mov    	edx, esp
  0x3c3c	dec    	eax
  === BLOCK LINK ===
    0x3c3d
=== CODE BLOCK END ===

=== CODE BLOCK ADDRESS 0x3c3d ===
  0x3c3d	call   	dword ptr [0x77f5]
  === BLOCK LINK ===
    0x3c43
=== CODE BLOCK END ===

=== CODE BLOCK ADDRESS 0x3c43 ===
  0x3c43	nop    	dword ptr [eax + eax]
  0x3c48	test   	eax, eax
  0x3c4a	je     	0x3c5c
  === BLOCK LINK ===
    0x3c4c
=== CODE BLOCK END ===

=== CODE BLOCK ADDRESS 0x3c4c ===
  0x3c4c	inc    	ecx
  0x3c4d	inc    	esi
  0x3c4f	dec    	eax
  0x3c50	add    	edi, 0x28
  0x3c53	inc    	esp
  === BLOCK LINK ===
    0x3c54
=== CODE BLOCK END ===

=== CODE BLOCK ADDRESS 0x3c54 ===
  0x3c54	cmp    	esi, dword ptr [esp + 0x40]
  0x3c58	jb     	0x3bfd
  === BLOCK LINK ===
    0x3c5a
=== CODE BLOCK END ===

=== CODE BLOCK ADDRESS 0x3c5a ===
  0x3c5a	jmp    	0x3c6e
  === BLOCK LINK ===
    0x3c5c
=== CODE BLOCK END ===

=== CODE BLOCK ADDRESS 0x3c5c ===
  0x3c5c	mov    	eax, dword ptr [edi + 0x24]
  0x3c5f	mov    	dword ptr [ebx + 0x1c], eax
  0x3c62	mov    	eax, dword ptr [edi + 0x20]
  0x3c65	mov    	dword ptr [ebx + 0x18], eax
  0x3c68	mov    	eax, dword ptr [edi + 0x18]
  === BLOCK LINK ===
    0x3c6b
=== CODE BLOCK END ===

=== CODE BLOCK ADDRESS 0x3c6b ===
  0x3c6b	mov    	dword ptr [ebx + 0x14], eax
  0x3c6e	inc    	ebp
  0x3c6f	xor    	esi, esi
  0x3c71	dec    	eax
  0x3c72	add    	ebx, 0x30
  === BLOCK LINK ===
    0x3c75
=== CODE BLOCK END ===

=== CODE BLOCK ADDRESS 0x3c75 ===
  0x3c75	dec    	ecx
  0x3c76	sub    	edi, 1
  0x3c79	jne    	0x3be7
  === BLOCK LINK ===
    0x3c7f
=== CODE BLOCK END ===

=== CODE BLOCK ADDRESS 0x3c7f ===
  0x3c7f	mov    	edi, dword ptr [esp + 0x48]
  0x3c83	dec    	eax
  0x3c84	mov    	ecx, dword ptr [esp + 0x68]
  0x3c88	dec    	eax
  0x3c89	call   	dword ptr [0x7929]
  === BLOCK LINK ===
    0x3c8f
=== CODE BLOCK END ===

=== CODE BLOCK ADDRESS 0x3c8f ===
  0x3c8f	nop    	dword ptr [eax + eax]
  0x3c94	nop    	
  0x3c95	jmp    	0x1e3d
  === BLOCK LINK ===
    0x3c9a
=== CODE BLOCK END ===

=== CODE BLOCK ADDRESS 0x3c9a ===
  0x3c9a	dec    	eax
  0x3c9b	mov    	ecx, dword ptr [esp + 0x68]
  0x3c9f	dec    	eax
  0x3ca0	lea    	eax, [esp + 0x60]
  0x3ca4	dec    	eax
  === BLOCK LINK ===
    0x3ca5
=== CODE BLOCK END ===

=== CODE BLOCK ADDRESS 0x3ca5 ===
  0x3ca5	mov    	dword ptr [esp + 0x28], eax
  0x3ca9	dec    	esp
  0x3caa	lea    	ecx, [esp + 0x40]
  0x3cae	dec    	eax
  0x3caf	lea    	eax, [ebp - 0x50]
  === BLOCK LINK ===
    0x3cb2
=== CODE BLOCK END ===

=== CODE BLOCK ADDRESS 0x3cb2 ===
  0x3cb2	inc    	ebp
  0x3cb3	xor    	eax, eax
  0x3cb5	dec    	eax
  0x3cb6	lea    	edx, [0x7ccc]
  0x3cbc	dec    	eax
  === BLOCK LINK ===
    0x3cbd
=== CODE BLOCK END ===

=== CODE BLOCK ADDRESS 0x3cbd ===
  0x3cbd	mov    	dword ptr [esp + 0x20], eax
  0x3cc1	dec    	eax
  0x3cc2	call   	dword ptr [0x76b0]
  === BLOCK LINK ===
    0x3cc8
=== CODE BLOCK END ===

=== CODE BLOCK ADDRESS 0x3cc8 ===
  0x3cc8	nop    	dword ptr [eax + eax]
  0x3ccd	test   	eax, eax
  0x3ccf	jne    	0x3cf2
  === BLOCK LINK ===
    0x3cd1
=== CODE BLOCK END ===

=== CODE BLOCK ADDRESS 0x3cd1 ===
  0x3cd1	dec    	eax
  0x3cd2	lea    	edx, [0x7ca8]
  0x3cd8	dec    	eax
  0x3cd9	lea    	ecx, [ebp - 0x50]
  0x3cdc	dec    	eax
  === BLOCK LINK ===
    0x3cdd
=== CODE BLOCK END ===

=== CODE BLOCK ADDRESS 0x3cdd ===
  0x3cdd	call   	dword ptr [0x7755]
  === BLOCK LINK ===
    0x3ce3
=== CODE BLOCK END ===

=== CODE BLOCK ADDRESS 0x3ce3 ===
  0x3ce3	nop    	dword ptr [eax + eax]
  0x3ce8	test   	eax, eax
  0x3cea	inc    	ecx
  0x3ceb	mov    	ebx, esi
  0x3ced	sete   	bl
  === BLOCK LINK ===
    0x3cf0
=== CODE BLOCK END ===

=== CODE BLOCK ADDRESS 0x3cf0 ===
  0x3cf0	jmp    	0x3cf7
  === BLOCK LINK ===
    0x3cf2
=== CODE BLOCK END ===

=== CODE BLOCK ADDRESS 0x3cf2 ===
  0x3cf2	mov    	ebx, 1
  0x3cf7	dec    	eax
  0x3cf8	mov    	ecx, dword ptr [esp + 0x68]
  0x3cfc	dec    	eax
  0x3cfd	call   	dword ptr [0x767d]
  === BLOCK LINK ===
    0x3d03
=== CODE BLOCK END ===

=== CODE BLOCK ADDRESS 0x3d03 ===
  0x3d03	nop    	dword ptr [eax + eax]
  0x3d08	test   	ebx, ebx
  0x3d0a	mov    	ebx, 0xe5d
  0x3d0f	je     	0x1e8c
  === BLOCK LINK ===
    0x3d15
=== CODE BLOCK END ===

=== CODE BLOCK ADDRESS 0x3d15 ===
  0x3d15	jmp    	0x1e87
  === BLOCK LINK ===
    0x3d1a
=== CODE BLOCK END ===

=== CODE BLOCK ADDRESS 0x3d1a ===
  0x3d1a	dec    	ecx
  0x3d1b	mov    	ecx, esi
  0x3d1d	inc    	ebp
  0x3d1e	movzx  	eax, word ptr [ebp + ecx*2]
  0x3d23	dec    	eax
  === BLOCK LINK ===
    0x3d24
=== CODE BLOCK END ===

=== CODE BLOCK ADDRESS 0x3d24 ===
  0x3d24	inc    	ecx
  0x3d26	movzx  	eax, word ptr [esi + ecx*2 - 2]
  0x3d2b	inc    	esp
  0x3d2c	sub    	eax, eax
  0x3d2e	jne    	0x3d36
  === BLOCK LINK ===
    0x3d30
=== CODE BLOCK END ===

=== CODE BLOCK ADDRESS 0x3d30 ===
  0x3d30	dec    	eax
  0x3d31	cmp    	ecx, 7
  0x3d34	jne    	0x3d1d
  === BLOCK LINK ===
    0x3d36
=== CODE BLOCK END ===

=== CODE BLOCK ADDRESS 0x3d36 ===
  0x3d36	inc    	ebp
  0x3d37	test   	eax, eax
  0x3d39	je     	0x1ef8
  === BLOCK LINK ===
    0x3d3f
=== CODE BLOCK END ===

=== CODE BLOCK ADDRESS 0x3d3f ===
  0x3d3f	dec    	eax
  0x3d40	mov    	ecx, edx
  0x3d42	dec    	eax
  0x3d43	call   	dword ptr [0x7587]
  === BLOCK LINK ===
    0x3d49
=== CODE BLOCK END ===

=== CODE BLOCK ADDRESS 0x3d49 ===
  0x3d49	nop    	dword ptr [eax + eax]
  0x3d4e	nop    	
  0x3d4f	jmp    	0x1eb9
  === BLOCK LINK ===
    0x3d54
=== CODE BLOCK END ===

=== CODE BLOCK ADDRESS 0x3d54 ===
  0x3d54	xor    	ecx, ecx
  0x3d56	mov    	word ptr [0x13ba3], cx
  0x3d5d	dec    	eax
  0x3d5e	call   	dword ptr [0x74f4]
  === BLOCK LINK ===
    0x3d64
=== CODE BLOCK END ===

=== CODE BLOCK ADDRESS 0x3d64 ===
  0x3d64	nop    	dword ptr [eax + eax]
  0x3d69	cmp    	eax, 0x13d
  0x3d6e	jne    	0x3dc8
  === BLOCK LINK ===
    0x3d70
=== CODE BLOCK END ===

=== CODE BLOCK ADDRESS 0x3d70 ===
  0x3d70	inc    	ecx
  0x3d71	mov    	eax, 0x10
  0x3d76	dec    	eax
  0x3d77	lea    	edx, [ebp - 0x40]
  0x3d7a	mov    	ecx, ebx
  === BLOCK LINK ===
    0x3d7c
=== CODE BLOCK END ===

=== CODE BLOCK ADDRESS 0x3d7c ===
  0x3d7c	dec    	eax
  0x3d7d	call   	dword ptr [0x76bd]
  === BLOCK LINK ===
    0x3d83
=== CODE BLOCK END ===

=== CODE BLOCK ADDRESS 0x3d83 ===
  0x3d83	nop    	dword ptr [eax + eax]
  0x3d88	dec    	eax
  0x3d89	mov    	edx, dword ptr [0x13b59]
  0x3d8f	dec    	eax
  0x3d90	lea    	eax, [ebp - 0x40]
  === BLOCK LINK ===
    0x3d93
=== CODE BLOCK END ===

=== CODE BLOCK ADDRESS 0x3d93 ===
  0x3d93	dec    	esp
  0x3d94	mov    	dword ptr [esp + 0x30], esp
  0x3d98	inc    	ebp
  0x3d99	xor    	ecx, ecx
  0x3d9b	mov    	dword ptr [esp + 0x28], 0x800
  === BLOCK LINK ===
    0x3da3
=== CODE BLOCK END ===

=== CODE BLOCK ADDRESS 0x3da3 ===
  0x3da3	inc    	ecx
  0x3da4	mov    	eax, 0x13d
  0x3da9	mov    	ecx, 0x3000
  0x3dae	dec    	eax
  0x3daf	mov    	dword ptr [0x1266b], eax
  === BLOCK LINK ===
    0x3db5
=== CODE BLOCK END ===

=== CODE BLOCK ADDRESS 0x3db5 ===
  0x3db5	dec    	esp
  0x3db6	mov    	dword ptr [esp + 0x20], esi
  0x3dba	dec    	eax
  0x3dbb	call   	dword ptr [0x7527]
  === BLOCK LINK ===
    0x3dc1
=== CODE BLOCK END ===

=== CODE BLOCK ADDRESS 0x3dc1 ===
  0x3dc1	nop    	dword ptr [eax + eax]
  0x3dc6	jmp    	0x3de0
  === BLOCK LINK ===
    0x3dc8
=== CODE BLOCK END ===

=== CODE BLOCK ADDRESS 0x3dc8 ===
  0x3dc8	test   	eax, eax
  0x3dca	je     	0x1f37
  === BLOCK LINK ===
    0x3dd0
=== CODE BLOCK END ===

=== CODE BLOCK ADDRESS 0x3dd0 ===
  0x3dd0	jmp    	0x3de0
  === BLOCK LINK ===
    0x3dd2
=== CODE BLOCK END ===

=== CODE BLOCK ADDRESS 0x3dd2 ===
  0x3dd2	dec    	esp
  0x3dd3	lea    	esp, [0x12647]
  0x3dd9	dec    	esp
  0x3dda	lea    	esi, [0x13b20]
  0x3de0	dec    	esp
  === BLOCK LINK ===
    0x3de1
=== CODE BLOCK END ===

=== CODE BLOCK ADDRESS 0x3de1 ===
  0x3de1	mov    	edi, dword ptr [0xf581]
  0x3de7	jmp    	0x1f37
  === BLOCK LINK ===
    0x3dec
=== CODE BLOCK END ===

=== CODE BLOCK ADDRESS 0x3dec ===
  0x3dec	dec    	eax
  0x3ded	lea    	edx, [esp + 0x50]
  0x3df1	dec    	ecx
  0x3df2	mov    	ecx, edi
  0x3df4	dec    	eax
  === BLOCK LINK ===
    0x3df5
=== CODE BLOCK END ===

=== CODE BLOCK ADDRESS 0x3df5 ===
  0x3df5	call   	dword ptr [0x73e5]
  === BLOCK LINK ===
    0x3dfb
=== CODE BLOCK END ===

=== CODE BLOCK ADDRESS 0x3dfb ===
  0x3dfb	nop    	dword ptr [eax + eax]
  0x3e00	test   	eax, eax
  0x3e02	je     	0x1f6f
  === BLOCK LINK ===
    0x3e08
=== CODE BLOCK END ===

=== CODE BLOCK ADDRESS 0x3e08 ===
  0x3e08	inc    	esp
  0x3e09	mov    	eax, dword ptr [esp + 0x58]
  0x3e0d	dec    	esp
  0x3e0e	lea    	ecx, [esp + 0x58]
  0x3e12	xor    	eax, eax
  === BLOCK LINK ===
    0x3e14
=== CODE BLOCK END ===

=== CODE BLOCK ADDRESS 0x3e14 ===
  0x3e14	dec    	ecx
  0x3e15	mov    	edx, esi
  0x3e17	dec    	ecx
  0x3e18	mov    	ecx, edi
  0x3e1a	dec    	eax
  === BLOCK LINK ===
    0x3e1b
=== CODE BLOCK END ===

=== CODE BLOCK ADDRESS 0x3e1b ===
  0x3e1b	mov    	dword ptr [esp + 0x20], eax
  0x3e1f	dec    	eax
  0x3e20	call   	dword ptr [0x73aa]
  === BLOCK LINK ===
    0x3e26
=== CODE BLOCK END ===

=== CODE BLOCK ADDRESS 0x3e26 ===
  0x3e26	nop    	dword ptr [eax + eax]
  0x3e2b	nop    	
  0x3e2c	jmp    	0x1ffa
  === BLOCK LINK ===
    0x3e31
=== CODE BLOCK END ===

=== CODE BLOCK ADDRESS 0x3e31 ===
  0x3e31	cmp    	ax, 0xa
  0x3e35	jne    	0x20d7
  === BLOCK LINK ===
    0x3e3b
=== CODE BLOCK END ===

=== CODE BLOCK ADDRESS 0x3e3b ===
  0x3e3b	jmp    	0x2028
  === BLOCK LINK ===
    0x3e40
=== CODE BLOCK END ===

=== CODE BLOCK ADDRESS 0x3e40 ===
  0x3e40	dec    	eax
  0x3e41	lea    	edx, [esp + 0x50]
  0x3e45	dec    	ecx
  0x3e46	mov    	ecx, edi
  0x3e48	dec    	eax
  === BLOCK LINK ===
    0x3e49
=== CODE BLOCK END ===

=== CODE BLOCK ADDRESS 0x3e49 ===
  0x3e49	call   	dword ptr [0x7391]
  === BLOCK LINK ===
    0x3e4f
=== CODE BLOCK END ===

=== CODE BLOCK ADDRESS 0x3e4f ===
  0x3e4f	nop    	dword ptr [eax + eax]
  0x3e54	test   	eax, eax
  0x3e56	je     	0x204c
  === BLOCK LINK ===
    0x3e5c
=== CODE BLOCK END ===

=== CODE BLOCK ADDRESS 0x3e5c ===
  0x3e5c	inc    	esp
  0x3e5d	mov    	eax, dword ptr [esp + 0x48]
  0x3e61	dec    	esp
  0x3e62	lea    	ecx, [esp + 0x48]
  0x3e66	xor    	ebx, ebx
  === BLOCK LINK ===
    0x3e68
=== CODE BLOCK END ===

=== CODE BLOCK ADDRESS 0x3e68 ===
  0x3e68	dec    	eax
  0x3e69	lea    	edx, [0x7859]
  0x3e6f	dec    	ecx
  0x3e70	mov    	ecx, edi
  0x3e72	dec    	eax
  === BLOCK LINK ===
    0x3e73
=== CODE BLOCK END ===

=== CODE BLOCK ADDRESS 0x3e73 ===
  0x3e73	mov    	dword ptr [esp + 0x20], ebx
  0x3e77	dec    	eax
  0x3e78	call   	dword ptr [0x7352]
  === BLOCK LINK ===
    0x3e7e
=== CODE BLOCK END ===

=== CODE BLOCK ADDRESS 0x3e7e ===
  0x3e7e	nop    	dword ptr [eax + eax]
  0x3e83	nop    	
  0x3e84	jmp    	0x20d9
  === BLOCK LINK ===
    0x3e89
=== CODE BLOCK END ===

=== CODE BLOCK ADDRESS 0x3e89 ===
  0x3e89	dec    	eax
  0x3e8a	mov    	ecx, edx
  0x3e8c	dec    	eax
  0x3e8d	call   	dword ptr [0x743d]
  === BLOCK LINK ===
    0x3e93
=== CODE BLOCK END ===

=== CODE BLOCK ADDRESS 0x3e93 ===
  0x3e93	nop    	dword ptr [eax + eax]
  0x3e98	dec    	esp
  0x3e99	mov    	eax, edi
  0x3e9b	mov    	edx, 0x104
  0x3ea0	dec    	ecx
  === BLOCK LINK ===
    0x3ea1
=== CODE BLOCK END ===

=== CODE BLOCK ADDRESS 0x3ea1 ===
  0x3ea1	mov    	ecx, ebp
  0x3ea3	dec    	eax
  0x3ea4	call   	dword ptr [0x7696]
  === BLOCK LINK ===
    0x3eaa
=== CODE BLOCK END ===

=== CODE BLOCK ADDRESS 0x3eaa ===
  0x3eaa	nop    	dword ptr [eax + eax]
  0x3eaf	xor    	edx, edx
  0x3eb1	dec    	eax
  0x3eb2	mov    	ecx, edi
  0x3eb4	inc    	esp
  === BLOCK LINK ===
    0x3eb5
=== CODE BLOCK END ===

=== CODE BLOCK ADDRESS 0x3eb5 ===
  0x3eb5	lea    	eax, [edx + 0x20]
  0x3eb8	dec    	eax
  0x3eb9	call   	dword ptr [0x7409]
  === BLOCK LINK ===
    0x3ebf
=== CODE BLOCK END ===

=== CODE BLOCK ADDRESS 0x3ebf ===
  0x3ebf	nop    	dword ptr [eax + eax]
  0x3ec4	dec    	eax
  0x3ec5	mov    	dword ptr [0x13a1d], eax
  0x3ecb	dec    	eax
  0x3ecc	mov    	edx, eax
  === BLOCK LINK ===
    0x3ece
=== CODE BLOCK END ===

=== CODE BLOCK ADDRESS 0x3ece ===
  0x3ece	dec    	eax
  0x3ecf	test   	eax, eax
  0x3ed1	jne    	0x2133
  === BLOCK LINK ===
    0x3ed7
=== CODE BLOCK END ===

=== CODE BLOCK ADDRESS 0x3ed7 ===
  0x3ed7	inc    	ebp
  0x3ed8	xor    	ebp, ebp
  0x3eda	jmp    	0x3f5a
  === BLOCK LINK ===
    0x3edc
=== CODE BLOCK END ===

=== CODE BLOCK ADDRESS 0x3edc ===
  0x3edc	inc    	sp
  0x3ede	mov    	dword ptr [0x13a1c], ebp
  0x3ee4	dec    	eax
  0x3ee5	call   	dword ptr [0x736d]
  === BLOCK LINK ===
    0x3eeb
=== CODE BLOCK END ===

=== CODE BLOCK ADDRESS 0x3eeb ===
  0x3eeb	nop    	dword ptr [eax + eax]
  0x3ef0	cmp    	eax, 0x13d
  0x3ef5	jne    	0x3f52
  === BLOCK LINK ===
    0x3ef7
=== CODE BLOCK END ===

=== CODE BLOCK ADDRESS 0x3ef7 ===
  0x3ef7	inc    	ecx
  0x3ef8	mov    	eax, 0x10
  0x3efd	dec    	eax
  0x3efe	lea    	edx, [ebp - 0x40]
  0x3f01	mov    	ecx, 0xe63
  === BLOCK LINK ===
    0x3f06
=== CODE BLOCK END ===

=== CODE BLOCK ADDRESS 0x3f06 ===
  0x3f06	dec    	eax
  0x3f07	call   	dword ptr [0x7533]
  === BLOCK LINK ===
    0x3f0d
=== CODE BLOCK END ===

=== CODE BLOCK ADDRESS 0x3f0d ===
  0x3f0d	nop    	dword ptr [eax + eax]
  0x3f12	dec    	eax
  0x3f13	mov    	edx, dword ptr [0x139cf]
  0x3f19	dec    	eax
  0x3f1a	lea    	eax, [ebp - 0x40]
  === BLOCK LINK ===
    0x3f1d
=== CODE BLOCK END ===

=== CODE BLOCK ADDRESS 0x3f1d ===
  0x3f1d	dec    	esp
  0x3f1e	mov    	dword ptr [esp + 0x30], esp
  0x3f22	inc    	ebp
  0x3f23	xor    	ecx, ecx
  0x3f25	mov    	dword ptr [esp + 0x28], 0x800
  === BLOCK LINK ===
    0x3f2d
=== CODE BLOCK END ===

=== CODE BLOCK ADDRESS 0x3f2d ===
  0x3f2d	inc    	ecx
  0x3f2e	mov    	eax, 0x13d
  0x3f33	mov    	ecx, 0x3000
  0x3f38	dec    	eax
  0x3f39	mov    	dword ptr [0x124e1], eax
  === BLOCK LINK ===
    0x3f3f
=== CODE BLOCK END ===

=== CODE BLOCK ADDRESS 0x3f3f ===
  0x3f3f	dec    	esp
  0x3f40	mov    	dword ptr [esp + 0x20], esi
  0x3f44	dec    	eax
  0x3f45	call   	dword ptr [0x739d]
  === BLOCK LINK ===
    0x3f4b
=== CODE BLOCK END ===

=== CODE BLOCK ADDRESS 0x3f4b ===
  0x3f4b	nop    	dword ptr [eax + eax]
  0x3f50	jmp    	0x3f5a
  === BLOCK LINK ===
    0x3f52
=== CODE BLOCK END ===

=== CODE BLOCK ADDRESS 0x3f52 ===
  0x3f52	test   	eax, eax
  0x3f54	je     	0x216a
  === BLOCK LINK ===
    0x3f5a
=== CODE BLOCK END ===

=== CODE BLOCK ADDRESS 0x3f5a ===
  0x3f5a	dec    	esp
  0x3f5b	mov    	edi, dword ptr [0xf407]
  0x3f61	jmp    	0x216a
  === BLOCK LINK ===
    0x3f66
=== CODE BLOCK END ===

=== CODE BLOCK ADDRESS 0x3f66 ===
  0x3f66	dec    	eax
  0x3f67	lea    	edx, [esp + 0x50]
  0x3f6b	dec    	ecx
  0x3f6c	mov    	ecx, edi
  0x3f6e	dec    	eax
  === BLOCK LINK ===
    0x3f6f
=== CODE BLOCK END ===

=== CODE BLOCK ADDRESS 0x3f6f ===
  0x3f6f	call   	dword ptr [0x726b]
  === BLOCK LINK ===
    0x3f75
=== CODE BLOCK END ===

=== CODE BLOCK ADDRESS 0x3f75 ===
  0x3f75	nop    	dword ptr [eax + eax]
  0x3f7a	test   	eax, eax
  0x3f7c	je     	0x219b
  === BLOCK LINK ===
    0x3f82
=== CODE BLOCK END ===

=== CODE BLOCK ADDRESS 0x3f82 ===
  0x3f82	inc    	esp
  0x3f83	mov    	eax, dword ptr [esp + 0x40]
  0x3f87	dec    	esp
  0x3f88	lea    	ecx, [esp + 0x40]
  0x3f8c	dec    	ecx
  === BLOCK LINK ===
    0x3f8d
=== CODE BLOCK END ===

=== CODE BLOCK ADDRESS 0x3f8d ===
  0x3f8d	mov    	edx, esi
  0x3f8f	dec    	esp
  0x3f90	mov    	dword ptr [esp + 0x20], ebp
  0x3f94	dec    	ecx
  0x3f95	mov    	ecx, edi
  === BLOCK LINK ===
    0x3f97
=== CODE BLOCK END ===

=== CODE BLOCK ADDRESS 0x3f97 ===
  0x3f97	dec    	eax
  0x3f98	call   	dword ptr [0x7232]
  === BLOCK LINK ===
    0x3f9e
=== CODE BLOCK END ===

=== CODE BLOCK ADDRESS 0x3f9e ===
  0x3f9e	nop    	dword ptr [eax + eax]
  0x3fa3	nop    	
  0x3fa4	jmp    	0x2225
  === BLOCK LINK ===
    0x3fa9
=== CODE BLOCK END ===

=== CODE BLOCK ADDRESS 0x3fa9 ===
  0x3fa9	cmp    	ax, 0xa
  0x3fad	jne    	0x22f8
  === BLOCK LINK ===
    0x3fb3
=== CODE BLOCK END ===

=== CODE BLOCK ADDRESS 0x3fb3 ===
  0x3fb3	jmp    	0x224d
  === BLOCK LINK ===
    0x3fb8
=== CODE BLOCK END ===

=== CODE BLOCK ADDRESS 0x3fb8 ===
  0x3fb8	dec    	eax
  0x3fb9	lea    	edx, [esp + 0x50]
  0x3fbd	dec    	ecx
  0x3fbe	mov    	ecx, edi
  0x3fc0	dec    	eax
  === BLOCK LINK ===
    0x3fc1
=== CODE BLOCK END ===

=== CODE BLOCK ADDRESS 0x3fc1 ===
  0x3fc1	call   	dword ptr [0x7219]
  === BLOCK LINK ===
    0x3fc7
=== CODE BLOCK END ===

=== CODE BLOCK ADDRESS 0x3fc7 ===
  0x3fc7	nop    	dword ptr [eax + eax]
  0x3fcc	test   	eax, eax
  0x3fce	je     	0x2271
  === BLOCK LINK ===
    0x3fd4
=== CODE BLOCK END ===

=== CODE BLOCK ADDRESS 0x3fd4 ===
  0x3fd4	inc    	esp
  0x3fd5	mov    	eax, dword ptr [esp + 0x40]
  0x3fd9	dec    	esp
  0x3fda	lea    	ecx, [esp + 0x40]
  0x3fde	dec    	eax
  === BLOCK LINK ===
    0x3fdf
=== CODE BLOCK END ===

=== CODE BLOCK ADDRESS 0x3fdf ===
  0x3fdf	lea    	edx, [0x76e3]
  0x3fe5	dec    	esp
  0x3fe6	mov    	dword ptr [esp + 0x20], ebp
  0x3fea	dec    	ecx
  0x3feb	mov    	ecx, edi
  === BLOCK LINK ===
    0x3fed
=== CODE BLOCK END ===

=== CODE BLOCK ADDRESS 0x3fed ===
  0x3fed	dec    	eax
  0x3fee	call   	dword ptr [0x71dc]
  === BLOCK LINK ===
    0x3ff4
=== CODE BLOCK END ===

=== CODE BLOCK ADDRESS 0x3ff4 ===
  0x3ff4	nop    	dword ptr [eax + eax]
  0x3ff9	nop    	
  0x3ffa	jmp    	0x22f8
  === BLOCK LINK ===
    0x3fff
=== CODE BLOCK END ===

=== CODE BLOCK ADDRESS 0x3fff ===
  0x3fff	inc    	ecx
  0x4000	mov    	eax, 0xa
  0x4005	dec    	eax
  0x4006	lea    	edx, [ebp - 0x40]
  0x4009	dec    	eax
  === BLOCK LINK ===
    0x400a
=== CODE BLOCK END ===

=== CODE BLOCK ADDRESS 0x400a ===
  0x400a	call   	dword ptr [0x7430]
  === BLOCK LINK ===
    0x4010
=== CODE BLOCK END ===

=== CODE BLOCK ADDRESS 0x4010 ===
  0x4010	nop    	dword ptr [eax + eax]
  0x4015	dec    	eax
  0x4016	mov    	dword ptr [0x12404], eax
  0x401c	inc    	ecx
  0x401d	mov    	ecx, 0x800
  === BLOCK LINK ===
    0x4022
=== CODE BLOCK END ===

=== CODE BLOCK ADDRESS 0x4022 ===
  0x4022	dec    	eax
  0x4023	lea    	eax, [esp + 0x50]
  0x4027	dec    	ebp
  0x4028	mov    	eax, esi
  0x402a	dec    	eax
  === BLOCK LINK ===
    0x402b
=== CODE BLOCK END ===

=== CODE BLOCK ADDRESS 0x402b ===
  0x402b	mov    	dword ptr [esp + 0x30], eax
  0x402f	mov    	edx, 1
  0x4034	dec    	eax
  0x4035	mov    	dword ptr [esp + 0x28], edi
  0x4039	dec    	ecx
  === BLOCK LINK ===
    0x403a
=== CODE BLOCK END ===

=== CODE BLOCK ADDRESS 0x403a ===
  0x403a	mov    	ecx, esp
  0x403c	mov    	dword ptr [esp + 0x20], 0xdba
  0x4044	call   	0xa030
  === BLOCK LINK ===
    0x4049
=== CODE BLOCK END ===

=== CODE BLOCK ADDRESS 0x4049 ===
  0x4049	test   	eax, eax
  0x404b	jne    	0x230f
  === BLOCK LINK ===
    0x4051
=== CODE BLOCK END ===

=== CODE BLOCK ADDRESS 0x4051 ===
  0x4051	dec    	eax
  0x4052	mov    	ecx, dword ptr [0xf310]
  0x4058	inc    	esp
  0x4059	lea    	eax, [eax + 1]
  0x405c	dec    	ecx
  === BLOCK LINK ===
    0x405d
=== CODE BLOCK END ===

=== CODE BLOCK ADDRESS 0x405d ===
  0x405d	mov    	edx, esi
  0x405f	call   	0xa244
  === BLOCK LINK ===
    0x4064
=== CODE BLOCK END ===

=== CODE BLOCK ADDRESS 0x4064 ===
  0x4064	nop    	
  0x4065	jmp    	0x230f
  === BLOCK LINK ===
    0x406a
=== CODE BLOCK END ===

=== CODE BLOCK ADDRESS 0x406a ===
  0x406a	dec    	esp
  0x406b	mov    	edx, dword ptr [esp + 0x70]
  0x406f	mov    	ecx, ebx
  0x4071	test   	edi, edi
  0x4073	je     	0x409a
  === BLOCK LINK ===
    0x4075
=== CODE BLOCK END ===

=== CODE BLOCK ADDRESS 0x4075 ===
  0x4075	dec    	ecx
  0x4076	lea    	eax, [edx + 0x1c]
  0x4079	cmp    	dword ptr [eax + 0xc], 0
  0x407d	je     	0x409a
  === BLOCK LINK ===
    0x407f
=== CODE BLOCK END ===

=== CODE BLOCK ADDRESS 0x407f ===
  0x407f	cmp    	dword ptr [eax], 0
  0x4082	jne    	0x409a
  === BLOCK LINK ===
    0x4084
=== CODE BLOCK END ===

=== CODE BLOCK ADDRESS 0x4084 ===
  0x4084	cmp    	dword ptr [eax + 8], 0
  0x4088	jne    	0x409a
  === BLOCK LINK ===
    0x408a
=== CODE BLOCK END ===

=== CODE BLOCK ADDRESS 0x408a ===
  0x408a	cmp    	dword ptr [eax + 4], 0
  0x408e	jne    	0x409a
  === BLOCK LINK ===
    0x4090
=== CODE BLOCK END ===

=== CODE BLOCK ADDRESS 0x4090 ===
  0x4090	inc    	ecx
  0x4092	dec    	eax
  0x4093	add    	eax, 0x30
  0x4096	cmp    	ecx, edi
  0x4098	jb     	0x4079
  === BLOCK LINK ===
    0x409a
=== CODE BLOCK END ===

=== CODE BLOCK ADDRESS 0x409a ===
  0x409a	cmp    	ecx, edi
  0x409c	jne    	0x40a4
  === BLOCK LINK ===
    0x409e
=== CODE BLOCK END ===

=== CODE BLOCK ADDRESS 0x409e ===
  0x409e	call   	0x7e30
  === BLOCK LINK ===
    0x40a3
=== CODE BLOCK END ===

=== CODE BLOCK ADDRESS 0x40a3 ===
  0x40a3	int3   	
  0x40a4	inc    	esp
  0x40a5	mov    	ebp, edi
  0x40a7	dec    	esp
  0x40a8	lea    	ecx, [0xd32]
  === BLOCK LINK ===
    0x40ae
=== CODE BLOCK END ===

=== CODE BLOCK ADDRESS 0x40ae ===
  0x40ae	inc    	ecx
  0x40af	mov    	eax, 0x30
  0x40b4	mov    	edx, edi
  0x40b6	dec    	ecx
  0x40b7	mov    	ecx, edx
  === BLOCK LINK ===
    0x40b9
=== CODE BLOCK END ===

=== CODE BLOCK ADDRESS 0x40b9 ===
  0x40b9	dec    	esp
  0x40ba	mov    	dword ptr [esp + 0x60], ebp
  0x40be	dec    	eax
  0x40bf	call   	dword ptr [0x73bb]
  === BLOCK LINK ===
    0x40c5
=== CODE BLOCK END ===

=== CODE BLOCK ADDRESS 0x40c5 ===
  0x40c5	nop    	dword ptr [eax + eax]
  0x40ca	mov    	ecx, 7
  0x40cf	dec    	esp
  0x40d0	lea    	eax, [esp + 0x50]
  0x40d4	dec    	eax
  === BLOCK LINK ===
    0x40d5
=== CODE BLOCK END ===

=== CODE BLOCK ADDRESS 0x40d5 ===
  0x40d5	lea    	edx, [0xa375]
  0x40db	call   	0x7fc0
  === BLOCK LINK ===
    0x40e0
=== CODE BLOCK END ===

=== CODE BLOCK ADDRESS 0x40e0 ===
  0x40e0	xor    	edx, edx
  0x40e2	dec    	eax
  0x40e3	lea    	ecx, [0x75df]
  0x40e9	call   	0x86c8
  === BLOCK LINK ===
    0x40ee
=== CODE BLOCK END ===

=== CODE BLOCK ADDRESS 0x40ee ===
  0x40ee	dec    	eax
  0x40ef	mov    	ebx, dword ptr [0xf27b]
  0x40f5	dec    	eax
  0x40f6	lea    	eax, [esp + 0x50]
  0x40fa	dec    	eax
  === BLOCK LINK ===
    0x40fb
=== CODE BLOCK END ===

=== CODE BLOCK ADDRESS 0x40fb ===
  0x40fb	mov    	dword ptr [esp + 0x30], eax
  0x40ff	inc    	ecx
  0x4100	mov    	ecx, 0x800
  0x4105	dec    	eax
  0x4106	lea    	eax, [0x75ac]
  === BLOCK LINK ===
    0x410c
=== CODE BLOCK END ===

=== CODE BLOCK ADDRESS 0x410c ===
  0x410c	dec    	ebp
  0x410d	mov    	eax, esi
  0x410f	dec    	eax
  0x4110	mov    	dword ptr [esp + 0x28], eax
  0x4114	xor    	edx, edx
  === BLOCK LINK ===
    0x4116
=== CODE BLOCK END ===

=== CODE BLOCK ADDRESS 0x4116 ===
  0x4116	dec    	ecx
  0x4117	mov    	ecx, esp
  0x4119	mov    	dword ptr [esp + 0x20], 0x126a
  0x4121	call   	0xa030
  === BLOCK LINK ===
    0x4126
=== CODE BLOCK END ===

=== CODE BLOCK ADDRESS 0x4126 ===
  0x4126	test   	eax, eax
  0x4128	inc    	ecx
  0x4129	mov    	eax, 1
  0x412e	dec    	ecx
  0x412f	mov    	edx, esi
  === BLOCK LINK ===
    0x4131
=== CODE BLOCK END ===

=== CODE BLOCK ADDRESS 0x4131 ===
  0x4131	dec    	eax
  0x4132	cmovne  	ebx, dword ptr [0xf22f]
  0x4139	dec    	eax
  0x413a	mov    	ecx, ebx
  0x413c	call   	0xa244
  === BLOCK LINK ===
    0x4141
=== CODE BLOCK END ===

=== CODE BLOCK ADDRESS 0x4141 ===
  0x4141	xor    	edx, edx
  0x4143	dec    	eax
  0x4144	lea    	ecx, [0x7876]
  0x414a	call   	0x86c8
  === BLOCK LINK ===
    0x414f
=== CODE BLOCK END ===

=== CODE BLOCK ADDRESS 0x414f ===
  0x414f	test   	edi, edi
  0x4151	je     	0x448f
  === BLOCK LINK ===
    0x4157
=== CODE BLOCK END ===

=== CODE BLOCK ADDRESS 0x4157 ===
  0x4157	dec    	esp
  0x4158	mov    	edi, dword ptr [esp + 0x70]
  0x415c	dec    	eax
  0x415d	lea    	edx, [0xffffbe9d]
  0x4163	dec    	ecx
  === BLOCK LINK ===
    0x4164
=== CODE BLOCK END ===

=== CODE BLOCK ADDRESS 0x4164 ===
  0x4164	add    	edi, 0x24
  0x4167	dec    	esp
  0x4168	lea    	esi, [0x7806]
  0x416e	inc    	ecx
  0x416f	mov    	eax, dword ptr [edi - 8]
  === BLOCK LINK ===
    0x4172
=== CODE BLOCK END ===

=== CODE BLOCK ADDRESS 0x4172 ===
  0x4172	cmp    	eax, 0xfffe
  0x4177	ja     	0x41e7
  === BLOCK LINK ===
    0x4179
=== CODE BLOCK END ===

=== CODE BLOCK ADDRESS 0x4179 ===
  0x4179	je     	0x41de
  === BLOCK LINK ===
    0x417b
=== CODE BLOCK END ===

=== CODE BLOCK ADDRESS 0x417b ===
  0x417b	cmp    	eax, 5
  0x417e	ja     	0x41e7
  === BLOCK LINK ===
    0x4180
=== CODE BLOCK END ===

=== CODE BLOCK ADDRESS 0x4180 ===
  0x4180	mov    	ecx, dword ptr [edx + eax*4 + 0x453e]
  0x4187	dec    	eax
  0x4188	add    	ecx, edx
  0x418a	jmp    	ecx
  === BLOCK LINK ===
    0x418c
=== CODE BLOCK END ===

=== CODE BLOCK ADDRESS 0x418c ===
  0x418c	int3   	
  0x418d	int3   	
  0x418e	int3   	
  0x418f	int3   	
  0x4190	inc    	ecx
  === BLOCK LINK ===
    0x4191
=== CODE BLOCK END ===

=== CODE BLOCK ADDRESS 0x4191 ===
  0x4191	cmp    	dword ptr [edi], 0
  0x4194	jne    	0x41a8
  === BLOCK LINK ===
    0x4196
=== CODE BLOCK END ===

=== CODE BLOCK ADDRESS 0x4196 ===
  0x4196	inc    	ecx
  0x4197	cmp    	dword ptr [edi - 4], 0
  0x419b	jne    	0x41a8
  === BLOCK LINK ===
    0x419d
=== CODE BLOCK END ===

=== CODE BLOCK ADDRESS 0x419d ===
  0x419d	inc    	ecx
  0x419e	cmp    	dword ptr [edi + 4], 0
  0x41a2	jne    	0x446e
  === BLOCK LINK ===
    0x41a8
=== CODE BLOCK END ===

=== CODE BLOCK ADDRESS 0x41a8 ===
  0x41a8	dec    	esp
  0x41a9	mov    	esp, dword ptr [0xa2a9]
  0x41af	jmp    	0x41ea
  === BLOCK LINK ===
    0x41b1
=== CODE BLOCK END ===

=== CODE BLOCK ADDRESS 0x41b1 ===
  0x41b1	dec    	esp
  0x41b2	mov    	esp, dword ptr [0xa2b0]
  0x41b8	jmp    	0x41ea
  === BLOCK LINK ===
    0x41ba
=== CODE BLOCK END ===

=== CODE BLOCK ADDRESS 0x41ba ===
  0x41ba	dec    	esp
  0x41bb	mov    	esp, dword ptr [0xa2b7]
  0x41c1	jmp    	0x41ea
  === BLOCK LINK ===
    0x41c3
=== CODE BLOCK END ===

=== CODE BLOCK ADDRESS 0x41c3 ===
  0x41c3	dec    	esp
  0x41c4	mov    	esp, dword ptr [0xa2be]
  0x41ca	jmp    	0x41ea
  === BLOCK LINK ===
    0x41cc
=== CODE BLOCK END ===

=== CODE BLOCK ADDRESS 0x41cc ===
  0x41cc	dec    	esp
  0x41cd	mov    	esp, dword ptr [0xa2c5]
  0x41d3	jmp    	0x41ea
  === BLOCK LINK ===
    0x41d5
=== CODE BLOCK END ===

=== CODE BLOCK ADDRESS 0x41d5 ===
  0x41d5	dec    	esp
  0x41d6	mov    	esp, dword ptr [0xa2cc]
  0x41dc	jmp    	0x41ea
  === BLOCK LINK ===
    0x41de
=== CODE BLOCK END ===

=== CODE BLOCK ADDRESS 0x41de ===
  0x41de	dec    	esp
  0x41df	mov    	esp, dword ptr [0xa2d3]
  0x41e5	jmp    	0x41ea
  === BLOCK LINK ===
    0x41e7
=== CODE BLOCK END ===

=== CODE BLOCK ADDRESS 0x41e7 ===
  0x41e7	dec    	ebp
  0x41e8	mov    	esp, esi
  0x41ea	dec    	ecx
  0x41eb	mov    	edx, dword ptr [edi - 0x1c]
  0x41ee	dec    	eax
  === BLOCK LINK ===
    0x41ef
=== CODE BLOCK END ===

=== CODE BLOCK ADDRESS 0x41ef ===
  0x41ef	mov    	eax, esi
  0x41f1	dec    	eax
  0x41f2	inc    	eax
  0x41f4	cmp    	word ptr [edx + eax*2], 0
  0x41f9	jne    	0x41f1
  === BLOCK LINK ===
    0x41fb
=== CODE BLOCK END ===

=== CODE BLOCK ADDRESS 0x41fb ===
  0x41fb	dec    	eax
  0x41fc	cmp    	eax, 0x19
  0x41ff	ja     	0x426b
  === BLOCK LINK ===
    0x4201
=== CODE BLOCK END ===

=== CODE BLOCK ADDRESS 0x4201 ===
  0x4201	inc    	ecx
  0x4202	mov    	ecx, 0x105
  0x4207	dec    	esp
  0x4208	lea    	eax, [ebp + 0x50]
  0x420b	mov    	ecx, 0x19
  === BLOCK LINK ===
    0x4210
=== CODE BLOCK END ===

=== CODE BLOCK ADDRESS 0x4210 ===
  0x4210	call   	0x8438
  === BLOCK LINK ===
    0x4215
=== CODE BLOCK END ===

=== CODE BLOCK ADDRESS 0x4215 ===
  0x4215	dec    	ecx
  0x4216	mov    	edx, dword ptr [edi - 0x24]
  0x4219	dec    	esp
  0x421a	lea    	eax, [ebp + 0x10]
  0x421d	inc    	ecx
  === BLOCK LINK ===
    0x421e
=== CODE BLOCK END ===

=== CODE BLOCK ADDRESS 0x421e ===
  0x421e	mov    	ecx, 0xa
  0x4223	dec    	eax
  0x4224	mov    	edi, eax
  0x4226	inc    	ecx
  0x4227	lea    	ecx, [ecx - 1]
  === BLOCK LINK ===
    0x422a
=== CODE BLOCK END ===

=== CODE BLOCK ADDRESS 0x422a ===
  0x422a	call   	0x8438
  === BLOCK LINK ===
    0x422f
=== CODE BLOCK END ===

=== CODE BLOCK ADDRESS 0x422f ===
  0x422f	inc    	ecx
  0x4230	mov    	ecx, 0xd
  0x4235	dec    	esp
  0x4236	lea    	eax, [ebp + 0x28]
  0x4239	dec    	ecx
  === BLOCK LINK ===
    0x423a
=== CODE BLOCK END ===

=== CODE BLOCK ADDRESS 0x423a ===
  0x423a	mov    	edx, esp
  0x423c	dec    	eax
  0x423d	mov    	ebx, eax
  0x423f	inc    	ecx
  0x4240	lea    	ecx, [ecx - 1]
  === BLOCK LINK ===
    0x4243
=== CODE BLOCK END ===

=== CODE BLOCK ADDRESS 0x4243 ===
  0x4243	call   	0x8438
  === BLOCK LINK ===
    0x4248
=== CODE BLOCK END ===

=== CODE BLOCK ADDRESS 0x4248 ===
  0x4248	dec    	ecx
  0x4249	mov    	ecx, dword ptr [edi - 0x14]
  0x424c	dec    	eax
  0x424d	mov    	edx, eax
  0x424f	dec    	eax
  === BLOCK LINK ===
    0x4250
=== CODE BLOCK END ===

=== CODE BLOCK ADDRESS 0x4250 ===
  0x4250	mov    	dword ptr [esp + 0x20], ecx
  0x4254	dec    	esp
  0x4255	mov    	ecx, edi
  0x4257	dec    	eax
  0x4258	lea    	ecx, [0x7b42]
  === BLOCK LINK ===
    0x425e
=== CODE BLOCK END ===

=== CODE BLOCK ADDRESS 0x425e ===
  0x425e	dec    	esp
  0x425f	mov    	eax, ebx
  0x4261	call   	0x86c8
  === BLOCK LINK ===
    0x4266
=== CODE BLOCK END ===

=== CODE BLOCK ADDRESS 0x4266 ===
  0x4266	jmp    	0x4467
  === BLOCK LINK ===
    0x426b
=== CODE BLOCK END ===

=== CODE BLOCK ADDRESS 0x426b ===
  0x426b	dec    	esp
  0x426c	mov    	dword ptr [esp + 0x30], esi
  0x4270	dec    	esp
  0x4271	lea    	ecx, [0x7c31]
  0x4277	mov    	dword ptr [esp + 0x28], 0x19
  === BLOCK LINK ===
    0x427f
=== CODE BLOCK END ===

=== CODE BLOCK ADDRESS 0x427f ===
  0x427f	dec    	eax
  0x4280	lea    	ecx, [ebp - 0x40]
  0x4283	dec    	esp
  0x4284	mov    	eax, esi
  0x4286	mov    	dword ptr [esp + 0x20], 0x19
  === BLOCK LINK ===
    0x428e
=== CODE BLOCK END ===

=== CODE BLOCK ADDRESS 0x428e ===
  0x428e	mov    	edx, 0x19
  0x4293	dec    	eax
  0x4294	call   	dword ptr [0x72ce]
  === BLOCK LINK ===
    0x429a
=== CODE BLOCK END ===

=== CODE BLOCK ADDRESS 0x429a ===
  0x429a	nop    	dword ptr [eax + eax]
  0x429f	dec    	eax
  0x42a0	arpl   	ax, bx
  0x42a2	test   	eax, eax
  0x42a4	jne    	0x42af
  === BLOCK LINK ===
    0x42a6
=== CODE BLOCK END ===

=== CODE BLOCK ADDRESS 0x42a6 ===
  0x42a6	xor    	edi, edi
  0x42a8	dec    	eax
  0x42a9	mov    	dword ptr [esp + 0x68], edi
  0x42ad	jmp    	0x42e8
  === BLOCK LINK ===
    0x42af
=== CODE BLOCK END ===

=== CODE BLOCK ADDRESS 0x42af ===
  0x42af	dec    	eax
  0x42b0	lea    	ecx, [ebp - 0x40]
  0x42b3	call   	0x8620
  === BLOCK LINK ===
    0x42b8
=== CODE BLOCK END ===

=== CODE BLOCK ADDRESS 0x42b8 ===
  0x42b8	xor    	edi, edi
  0x42ba	cmp    	eax, 0x19
  0x42bd	jbe    	0x42df
  === BLOCK LINK ===
    0x42bf
=== CODE BLOCK END ===

=== CODE BLOCK ADDRESS 0x42bf ===
  0x42bf	dec    	eax
  0x42c0	mov    	eax, ebx
  0x42c2	dec    	eax
  0x42c3	lea    	ebx, [ebp - 0x40]
  0x42c6	dec    	eax
  === BLOCK LINK ===
    0x42c7
=== CODE BLOCK END ===

=== CODE BLOCK ADDRESS 0x42c7 ===
  0x42c7	lea    	ebx, [ebx + eax*2]
  0x42ca	dec    	eax
  0x42cb	lea    	ebx, [ebx - 2]
  0x42ce	dec    	eax
  0x42cf	lea    	ecx, [ebp - 0x40]
  === BLOCK LINK ===
    0x42d2
=== CODE BLOCK END ===

=== CODE BLOCK ADDRESS 0x42d2 ===
  0x42d2	mov    	word ptr [ebx], di
  0x42d5	call   	0x8620
  === BLOCK LINK ===
    0x42da
=== CODE BLOCK END ===

=== CODE BLOCK ADDRESS 0x42da ===
  0x42da	cmp    	eax, 0x19
  0x42dd	ja     	0x42ca
  === BLOCK LINK ===
    0x42df
=== CODE BLOCK END ===

=== CODE BLOCK ADDRESS 0x42df ===
  0x42df	dec    	eax
  0x42e0	lea    	eax, [ebp - 0x40]
  0x42e3	dec    	eax
  0x42e4	mov    	dword ptr [esp + 0x68], eax
  0x42e8	dec    	esp
  === BLOCK LINK ===
    0x42e9
=== CODE BLOCK END ===

=== CODE BLOCK ADDRESS 0x42e9 ===
  0x42e9	mov    	dword ptr [esp + 0x30], esi
  0x42ed	dec    	esp
  0x42ee	lea    	ecx, [0x7bb4]
  0x42f4	mov    	dword ptr [esp + 0x28], 9
  0x42fc	dec    	eax
  === BLOCK LINK ===
    0x42fd
=== CODE BLOCK END ===

=== CODE BLOCK ADDRESS 0x42fd ===
  0x42fd	lea    	ecx, [esp + 0x78]
  0x4301	dec    	esp
  0x4302	mov    	eax, esi
  0x4304	mov    	dword ptr [esp + 0x20], 9
  0x430c	mov    	edx, 0xa
  === BLOCK LINK ===
    0x4311
=== CODE BLOCK END ===

=== CODE BLOCK ADDRESS 0x4311 ===
  0x4311	dec    	eax
  0x4312	call   	dword ptr [0x7250]
  === BLOCK LINK ===
    0x4318
=== CODE BLOCK END ===

=== CODE BLOCK ADDRESS 0x4318 ===
  0x4318	nop    	dword ptr [eax + eax]
  0x431d	dec    	eax
  0x431e	arpl   	ax, bx
  0x4320	test   	eax, eax
  0x4322	jne    	0x432b
  === BLOCK LINK ===
    0x4324
=== CODE BLOCK END ===

=== CODE BLOCK ADDRESS 0x4324 ===
  0x4324	dec    	eax
  0x4325	mov    	dword ptr [esp + 0x50], edi
  0x4329	jmp    	0x4366
  === BLOCK LINK ===
    0x432b
=== CODE BLOCK END ===

=== CODE BLOCK ADDRESS 0x432b ===
  0x432b	dec    	eax
  0x432c	lea    	ecx, [esp + 0x78]
  0x4330	call   	0x8620
  === BLOCK LINK ===
    0x4335
=== CODE BLOCK END ===

=== CODE BLOCK ADDRESS 0x4335 ===
  0x4335	cmp    	eax, 9
  0x4338	jbe    	0x435c
  === BLOCK LINK ===
    0x433a
=== CODE BLOCK END ===

=== CODE BLOCK ADDRESS 0x433a ===
  0x433a	dec    	eax
  0x433b	mov    	eax, ebx
  0x433d	dec    	eax
  0x433e	lea    	ebx, [esp + 0x78]
  0x4342	dec    	eax
  === BLOCK LINK ===
    0x4343
=== CODE BLOCK END ===

=== CODE BLOCK ADDRESS 0x4343 ===
  0x4343	lea    	ebx, [ebx + eax*2]
  0x4346	dec    	eax
  0x4347	lea    	ebx, [ebx - 2]
  0x434a	dec    	eax
  0x434b	lea    	ecx, [esp + 0x78]
  === BLOCK LINK ===
    0x434f
=== CODE BLOCK END ===

=== CODE BLOCK ADDRESS 0x434f ===
  0x434f	mov    	word ptr [ebx], di
  0x4352	call   	0x8620
  === BLOCK LINK ===
    0x4357
=== CODE BLOCK END ===

=== CODE BLOCK ADDRESS 0x4357 ===
  0x4357	cmp    	eax, 9
  0x435a	ja     	0x4346
  === BLOCK LINK ===
    0x435c
=== CODE BLOCK END ===

=== CODE BLOCK ADDRESS 0x435c ===
  0x435c	dec    	eax
  0x435d	lea    	eax, [esp + 0x78]
  0x4361	dec    	eax
  0x4362	mov    	dword ptr [esp + 0x50], eax
  0x4366	dec    	esp
  === BLOCK LINK ===
    0x4367
=== CODE BLOCK END ===

=== CODE BLOCK ADDRESS 0x4367 ===
  0x4367	mov    	dword ptr [esp + 0x30], esi
  0x436b	dec    	esp
  0x436c	lea    	ecx, [0x7b36]
  0x4372	mov    	dword ptr [esp + 0x28], 0xc
  0x437a	dec    	eax
  === BLOCK LINK ===
    0x437b
=== CODE BLOCK END ===

=== CODE BLOCK ADDRESS 0x437b ===
  0x437b	lea    	ecx, [ebp - 0x70]
  0x437e	dec    	esp
  0x437f	mov    	eax, esi
  0x4381	mov    	dword ptr [esp + 0x20], 0xc
  0x4389	mov    	edx, 0xd
  === BLOCK LINK ===
    0x438e
=== CODE BLOCK END ===

=== CODE BLOCK ADDRESS 0x438e ===
  0x438e	dec    	eax
  0x438f	call   	dword ptr [0x71d3]
  === BLOCK LINK ===
    0x4395
=== CODE BLOCK END ===

=== CODE BLOCK ADDRESS 0x4395 ===
  0x4395	nop    	dword ptr [eax + eax]
  0x439a	dec    	eax
  0x439b	arpl   	ax, bx
  0x439d	test   	eax, eax
  0x439f	jne    	0x43a6
  === BLOCK LINK ===
    0x43a1
=== CODE BLOCK END ===

=== CODE BLOCK ADDRESS 0x43a1 ===
  0x43a1	dec    	esp
  0x43a2	mov    	ebp, edi
  0x43a4	jmp    	0x43d8
  === BLOCK LINK ===
    0x43a6
=== CODE BLOCK END ===

=== CODE BLOCK ADDRESS 0x43a6 ===
  0x43a6	dec    	eax
  0x43a7	lea    	ecx, [ebp - 0x70]
  0x43aa	call   	0x8620
  === BLOCK LINK ===
    0x43af
=== CODE BLOCK END ===

=== CODE BLOCK ADDRESS 0x43af ===
  0x43af	cmp    	eax, 0xc
  0x43b2	jbe    	0x43d4
  === BLOCK LINK ===
    0x43b4
=== CODE BLOCK END ===

=== CODE BLOCK ADDRESS 0x43b4 ===
  0x43b4	dec    	eax
  0x43b5	mov    	eax, ebx
  0x43b7	dec    	eax
  0x43b8	lea    	ebx, [ebp - 0x70]
  0x43bb	dec    	eax
  === BLOCK LINK ===
    0x43bc
=== CODE BLOCK END ===

=== CODE BLOCK ADDRESS 0x43bc ===
  0x43bc	lea    	ebx, [ebx + eax*2]
  0x43bf	dec    	eax
  0x43c0	lea    	ebx, [ebx - 2]
  0x43c3	dec    	eax
  0x43c4	lea    	ecx, [ebp - 0x70]
  === BLOCK LINK ===
    0x43c7
=== CODE BLOCK END ===

=== CODE BLOCK ADDRESS 0x43c7 ===
  0x43c7	mov    	word ptr [ebx], di
  0x43ca	call   	0x8620
  === BLOCK LINK ===
    0x43cf
=== CODE BLOCK END ===

=== CODE BLOCK ADDRESS 0x43cf ===
  0x43cf	cmp    	eax, 0xc
  0x43d2	ja     	0x43bf
  === BLOCK LINK ===
    0x43d4
=== CODE BLOCK END ===

=== CODE BLOCK ADDRESS 0x43d4 ===
  0x43d4	dec    	esp
  0x43d5	lea    	ebp, [ebp - 0x70]
  0x43d8	dec    	ecx
  0x43d9	mov    	edx, dword ptr [edi - 0x1c]
  0x43dc	dec    	eax
  === BLOCK LINK ===
    0x43dd
=== CODE BLOCK END ===

=== CODE BLOCK ADDRESS 0x43dd ===
  0x43dd	mov    	ecx, esi
  0x43df	dec    	eax
  0x43e0	inc    	ecx
  0x43e2	cmp    	word ptr [edx + ecx*2], 0
  0x43e7	jne    	0x43df
  === BLOCK LINK ===
    0x43e9
=== CODE BLOCK END ===

=== CODE BLOCK ADDRESS 0x43e9 ===
  0x43e9	inc    	ecx
  0x43ea	mov    	ecx, 0x105
  0x43ef	dec    	esp
  0x43f0	lea    	eax, [ebp + 0x50]
  0x43f3	call   	0x8438
  === BLOCK LINK ===
    0x43f8
=== CODE BLOCK END ===

=== CODE BLOCK ADDRESS 0x43f8 ===
  0x43f8	dec    	ecx
  0x43f9	mov    	edx, dword ptr [edi - 0x24]
  0x43fc	dec    	esp
  0x43fd	lea    	eax, [ebp + 0x10]
  0x4400	inc    	ecx
  === BLOCK LINK ===
    0x4401
=== CODE BLOCK END ===

=== CODE BLOCK ADDRESS 0x4401 ===
  0x4401	mov    	ecx, 0xa
  0x4406	dec    	eax
  0x4407	mov    	edi, eax
  0x4409	inc    	ecx
  0x440a	lea    	ecx, [ecx - 1]
  === BLOCK LINK ===
    0x440d
=== CODE BLOCK END ===

=== CODE BLOCK ADDRESS 0x440d ===
  0x440d	call   	0x8438
  === BLOCK LINK ===
    0x4412
=== CODE BLOCK END ===

=== CODE BLOCK ADDRESS 0x4412 ===
  0x4412	inc    	ecx
  0x4413	mov    	ecx, 0xd
  0x4418	dec    	esp
  0x4419	lea    	eax, [ebp + 0x28]
  0x441c	dec    	ecx
  === BLOCK LINK ===
    0x441d
=== CODE BLOCK END ===

=== CODE BLOCK ADDRESS 0x441d ===
  0x441d	mov    	edx, esp
  0x441f	dec    	eax
  0x4420	mov    	ebx, eax
  0x4422	inc    	ecx
  0x4423	lea    	ecx, [ecx - 1]
  === BLOCK LINK ===
    0x4426
=== CODE BLOCK END ===

=== CODE BLOCK ADDRESS 0x4426 ===
  0x4426	call   	0x8438
  === BLOCK LINK ===
    0x442b
=== CODE BLOCK END ===

=== CODE BLOCK ADDRESS 0x442b ===
  0x442b	dec    	ecx
  0x442c	mov    	ecx, dword ptr [edi - 0x14]
  0x442f	dec    	eax
  0x4430	mov    	edx, eax
  0x4432	dec    	eax
  === BLOCK LINK ===
    0x4433
=== CODE BLOCK END ===

=== CODE BLOCK ADDRESS 0x4433 ===
  0x4433	mov    	eax, dword ptr [esp + 0x68]
  0x4437	dec    	esp
  0x4438	mov    	ecx, edi
  0x443a	dec    	eax
  0x443b	mov    	dword ptr [esp + 0x38], ecx
  === BLOCK LINK ===
    0x443f
=== CODE BLOCK END ===

=== CODE BLOCK ADDRESS 0x443f ===
  0x443f	dec    	esp
  0x4440	mov    	eax, ebx
  0x4442	dec    	eax
  0x4443	mov    	dword ptr [esp + 0x30], eax
  0x4447	dec    	eax
  === BLOCK LINK ===
    0x4448
=== CODE BLOCK END ===

=== CODE BLOCK ADDRESS 0x4448 ===
  0x4448	lea    	ecx, [0x7982]
  0x444e	dec    	eax
  0x444f	mov    	eax, dword ptr [esp + 0x50]
  0x4453	dec    	eax
  0x4454	mov    	dword ptr [esp + 0x28], eax
  === BLOCK LINK ===
    0x4458
=== CODE BLOCK END ===

=== CODE BLOCK ADDRESS 0x4458 ===
  0x4458	dec    	esp
  0x4459	mov    	dword ptr [esp + 0x20], ebp
  0x445d	call   	0x86c8
  === BLOCK LINK ===
    0x4462
=== CODE BLOCK END ===

=== CODE BLOCK ADDRESS 0x4462 ===
  0x4462	dec    	esp
  0x4463	mov    	ebp, dword ptr [esp + 0x60]
  0x4467	dec    	eax
  0x4468	lea    	edx, [0xffffbb92]
  0x446e	dec    	ecx
  === BLOCK LINK ===
    0x446f
=== CODE BLOCK END ===

=== CODE BLOCK ADDRESS 0x446f ===
  0x446f	add    	edi, 0x30
  0x4472	dec    	ecx
  0x4473	sub    	ebp, 1
  0x4476	dec    	esp
  0x4477	mov    	dword ptr [esp + 0x60], ebp
  === BLOCK LINK ===
    0x447b
=== CODE BLOCK END ===

=== CODE BLOCK ADDRESS 0x447b ===
  0x447b	jne    	0x416e
  === BLOCK LINK ===
    0x4481
=== CODE BLOCK END ===

=== CODE BLOCK ADDRESS 0x4481 ===
  0x4481	dec    	esp
  0x4482	lea    	esi, [0x13478]
  0x4488	dec    	esp
  0x4489	lea    	esp, [0x11f91]
  0x448f	dec    	eax
  === BLOCK LINK ===
    0x4490
=== CODE BLOCK END ===

=== CODE BLOCK ADDRESS 0x4490 ===
  0x4490	mov    	ecx, dword ptr [esp + 0x70]
  0x4494	dec    	eax
  0x4495	call   	dword ptr [0x711d]
  === BLOCK LINK ===
    0x449b
=== CODE BLOCK END ===

=== CODE BLOCK ADDRESS 0x449b ===
  0x449b	nop    	dword ptr [eax + eax]
  0x44a0	dec    	eax
  0x44a1	mov    	ebx, dword ptr [0xeec9]
  0x44a7	dec    	eax
  0x44a8	lea    	eax, [esp + 0x50]
  === BLOCK LINK ===
    0x44ac
=== CODE BLOCK END ===

=== CODE BLOCK ADDRESS 0x44ac ===
  0x44ac	dec    	eax
  0x44ad	mov    	dword ptr [esp + 0x30], eax
  0x44b1	inc    	ecx
  0x44b2	mov    	ecx, 0x800
  0x44b7	dec    	eax
  === BLOCK LINK ===
    0x44b8
=== CODE BLOCK END ===

=== CODE BLOCK ADDRESS 0x44b8 ===
  0x44b8	lea    	eax, [0x71fa]
  0x44be	dec    	ebp
  0x44bf	mov    	eax, esi
  0x44c1	dec    	eax
  0x44c2	mov    	dword ptr [esp + 0x28], eax
  === BLOCK LINK ===
    0x44c6
=== CODE BLOCK END ===

=== CODE BLOCK ADDRESS 0x44c6 ===
  0x44c6	xor    	edx, edx
  0x44c8	dec    	ecx
  0x44c9	mov    	ecx, esp
  0x44cb	mov    	dword ptr [esp + 0x20], 0xdac
  0x44d3	call   	0xa030
  === BLOCK LINK ===
    0x44d8
=== CODE BLOCK END ===

=== CODE BLOCK ADDRESS 0x44d8 ===
  0x44d8	test   	eax, eax
  0x44da	inc    	ecx
  0x44db	mov    	eax, 1
  0x44e0	dec    	ecx
  0x44e1	mov    	edx, esi
  === BLOCK LINK ===
    0x44e3
=== CODE BLOCK END ===

=== CODE BLOCK ADDRESS 0x44e3 ===
  0x44e3	dec    	eax
  0x44e4	cmovne  	ebx, dword ptr [0xee7d]
  0x44eb	dec    	eax
  0x44ec	mov    	ecx, ebx
  0x44ee	call   	0xa244
  === BLOCK LINK ===
    0x44f3
=== CODE BLOCK END ===

=== CODE BLOCK ADDRESS 0x44f3 ===
  0x44f3	dec    	esp
  0x44f4	mov    	ebp, dword ptr [esp + 0x378]
  0x44fb	dec    	esp
  0x44fc	mov    	esp, dword ptr [esp + 0x380]
  0x4503	dec    	eax
  === BLOCK LINK ===
    0x4504
=== CODE BLOCK END ===

=== CODE BLOCK ADDRESS 0x4504 ===
  0x4504	mov    	edi, dword ptr [esp + 0x3b0]
  0x450b	dec    	eax
  0x450c	mov    	esi, dword ptr [esp + 0x3a8]
  0x4513	dec    	eax
  0x4514	mov    	ebx, dword ptr [esp + 0x3a0]
  === BLOCK LINK ===
    0x451b
=== CODE BLOCK END ===

=== CODE BLOCK ADDRESS 0x451b ===
  0x451b	dec    	esp
  0x451c	mov    	edi, dword ptr [esp + 0x370]
  0x4523	dec    	eax
  0x4524	mov    	ecx, dword ptr [ebp + 0x260]
  0x452a	dec    	eax
  === BLOCK LINK ===
    0x452b
=== CODE BLOCK END ===

=== CODE BLOCK ADDRESS 0x452b ===
  0x452b	xor    	ecx, esp
  0x452d	call   	0x2900
  === BLOCK LINK ===
    0x4532
=== CODE BLOCK END ===

=== CODE BLOCK ADDRESS 0x4532 ===
  0x4532	dec    	eax
  0x4533	add    	esp, 0x388
  0x4539	inc    	ecx
  0x453a	pop    	esi
  0x453b	pop    	ebp
  === BLOCK LINK ===
    0x453c
=== CODE BLOCK END ===

=== CODE BLOCK ADDRESS 0x453c ===
  0x453c	ret    	
  0x453d	int3   	
  0x453e	nop    	
  0x453f	inc    	ecx
  0x4540	add    	byte ptr [eax], al
  === BLOCK LINK ===
    0x4542
=== CODE BLOCK END ===

=== CODE BLOCK ADDRESS 0x4542 ===
  0x4542	mov    	cl, 0x41
  0x4544	add    	byte ptr [eax], al
  0x4546	mov    	edx, 0xc3000041
  0x454b	inc    	ecx
  0x454c	add    	byte ptr [eax], al
  === BLOCK LINK ===
    0x454e
=== CODE BLOCK END ===

=== CODE BLOCK ADDRESS 0x454e ===
  0x454e	int3   	
  0x454f	inc    	ecx
  0x4550	add    	byte ptr [eax], al
  0x4552	aad    	0x41
  0x4554	add    	byte ptr [eax], al
  === BLOCK LINK ===
    0x4556
=== CODE BLOCK END ===

=== CODE BLOCK ADDRESS 0x4556 ===
  0x4556	dec    	eax
  0x4557	mov    	ecx, dword ptr [edi]
  0x4559	dec    	eax
  0x455a	call   	dword ptr [0x7058]
  === BLOCK LINK ===
    0x4560
=== CODE BLOCK END ===

=== CODE BLOCK ADDRESS 0x4560 ===
  0x4560	nop    	dword ptr [eax + eax]
  0x4565	nop    	
  0x4566	jmp    	0x2362
  === BLOCK LINK ===
    0x456b
=== CODE BLOCK END ===

=== CODE BLOCK ADDRESS 0x456b ===
  0x456b	int3   	
  0x456c	mov    	ecx, eax
  0x456e	call   	0x7ea4
  === BLOCK LINK ===
    0x4573
=== CODE BLOCK END ===

=== CODE BLOCK ADDRESS 0x4573 ===
  0x4573	mov    	ecx, 2
  0x4578	call   	0x8378
  === BLOCK LINK ===
    0x457d
=== CODE BLOCK END ===

=== CODE BLOCK ADDRESS 0x457d ===
  0x457d	int3   	
  0x457e	dec    	eax
  0x457f	mov    	ecx, dword ptr [esp + 0x38]
  0x4583	dec    	eax
  0x4584	call   	dword ptr [0x702e]
  === BLOCK LINK ===
    0x458a
=== CODE BLOCK END ===

=== CODE BLOCK ADDRESS 0x458a ===
  0x458a	nop    	dword ptr [eax + eax]
  0x458f	mov    	eax, ebx
  0x4591	jmp    	0x253e
  === BLOCK LINK ===
    0x4596
=== CODE BLOCK END ===

=== CODE BLOCK ADDRESS 0x4596 ===
  0x4596	mov    	dword ptr [esp + 0xa8], 0
  0x45a1	test   	ecx, ecx
  0x45a3	je     	0x46d5
  === BLOCK LINK ===
    0x45a9
=== CODE BLOCK END ===

=== CODE BLOCK ADDRESS 0x45a9 ===
  0x45a9	dec    	esp
  0x45aa	mov    	esp, dword ptr [esp + 0x38]
  0x45ae	dec    	ecx
  0x45af	add    	esp, 0x10
  0x45b2	dec    	ebp
  === BLOCK LINK ===
    0x45b3
=== CODE BLOCK END ===

=== CODE BLOCK ADDRESS 0x45b3 ===
  0x45b3	mov    	ebp, dword ptr [esi]
  0x45b5	xor    	ebp, ebp
  0x45b7	test   	esi, esi
  0x45b9	je     	0x4610
  === BLOCK LINK ===
    0x45bb
=== CODE BLOCK END ===

=== CODE BLOCK ADDRESS 0x45bb ===
  0x45bb	dec    	ecx
  0x45bc	mov    	edx, dword ptr [ebp]
  0x45bf	dec    	eax
  0x45c0	test   	edx, edx
  0x45c2	je     	0x471f
  === BLOCK LINK ===
    0x45c8
=== CODE BLOCK END ===

=== CODE BLOCK ADDRESS 0x45c8 ===
  0x45c8	dec    	ecx
  0x45c9	mov    	eax, dword ptr [esp]
  0x45cc	dec    	eax
  0x45cd	test   	eax, eax
  0x45cf	je     	0x471f
  === BLOCK LINK ===
    0x45d5
=== CODE BLOCK END ===

=== CODE BLOCK ADDRESS 0x45d5 ===
  0x45d5	cmp    	word ptr [edx], 0
  0x45d9	je     	0x4715
  === BLOCK LINK ===
    0x45df
=== CODE BLOCK END ===

=== CODE BLOCK ADDRESS 0x45df ===
  0x45df	dec    	ecx
  0x45e0	mov    	eax, 0xffffffff
  0x45e6	dec    	ecx
  0x45e7	inc    	eax
  0x45e9	inc    	dx
  === BLOCK LINK ===
    0x45eb
=== CODE BLOCK END ===

=== CODE BLOCK ADDRESS 0x45eb ===
  0x45eb	cmp    	dword ptr [edx + eax*2], 0
  0x45ef	jne    	0x45e6
  === BLOCK LINK ===
    0x45f1
=== CODE BLOCK END ===

=== CODE BLOCK ADDRESS 0x45f1 ===
  0x45f1	dec    	eax
  0x45f2	mov    	ecx, eax
  0x45f4	dec    	eax
  0x45f5	call   	dword ptr [0x6e1d]
  === BLOCK LINK ===
    0x45fb
=== CODE BLOCK END ===

=== CODE BLOCK ADDRESS 0x45fb ===
  0x45fb	nop    	dword ptr [eax + eax]
  0x4600	test   	eax, eax
  0x4602	jne    	0x471f
  === BLOCK LINK ===
    0x4608
=== CODE BLOCK END ===

=== CODE BLOCK ADDRESS 0x4608 ===
  0x4608	cmp    	ebp, esi
  0x460a	jb     	0x46b4
  === BLOCK LINK ===
    0x4610
=== CODE BLOCK END ===

=== CODE BLOCK ADDRESS 0x4610 ===
  0x4610	inc    	ecx
  0x4611	mov    	eax, dword ptr [edi]
  0x4613	cmp    	dword ptr [edi], eax
  0x4615	jb     	0x463d
  === BLOCK LINK ===
    0x4617
=== CODE BLOCK END ===

=== CODE BLOCK ADDRESS 0x4617 ===
  0x4617	dec    	ecx
  0x4618	mov    	ecx, dword ptr [esi]
  0x461a	add    	eax, 0x40
  0x461d	dec    	ebp
  0x461e	mov    	eax, esi
  === BLOCK LINK ===
    0x4620
=== CODE BLOCK END ===

=== CODE BLOCK ADDRESS 0x4620 ===
  0x4620	inc    	ecx
  0x4621	mov    	dword ptr [edi], eax
  0x4623	lea    	edx, [eax + eax*2]
  0x4626	shl    	edx, 4
  0x4629	dec    	eax
  === BLOCK LINK ===
    0x462a
=== CODE BLOCK END ===

=== CODE BLOCK ADDRESS 0x462a ===
  0x462a	call   	dword ptr [0x6f80]
  === BLOCK LINK ===
    0x4630
=== CODE BLOCK END ===

=== CODE BLOCK ADDRESS 0x4630 ===
  0x4630	nop    	dword ptr [eax + eax]
  0x4635	test   	eax, eax
  0x4637	jne    	0x252f
  === BLOCK LINK ===
    0x463d
=== CODE BLOCK END ===

=== CODE BLOCK ADDRESS 0x463d ===
  0x463d	mov    	eax, dword ptr [edi]
  0x463f	dec    	eax
  0x4640	lea    	ecx, [0x732e]
  0x4646	dec    	eax
  0x4647	lea    	edx, [0x7327]
  === BLOCK LINK ===
    0x464d
=== CODE BLOCK END ===

=== CODE BLOCK ADDRESS 0x464d ===
  0x464d	dec    	esp
  0x464e	lea    	eax, [eax + eax*2]
  0x4651	dec    	ecx
  0x4652	mov    	eax, dword ptr [esp]
  0x4655	dec    	ecx
  === BLOCK LINK ===
    0x4656
=== CODE BLOCK END ===

=== CODE BLOCK ADDRESS 0x4656 ===
  0x4656	shl    	eax, 4
  0x4659	dec    	ebp
  0x465a	add    	eax, dword ptr [esi]
  0x465c	dec    	eax
  0x465d	test   	eax, eax
  === BLOCK LINK ===
    0x465f
=== CODE BLOCK END ===

=== CODE BLOCK ADDRESS 0x465f ===
  0x465f	dec    	eax
  0x4660	cmovne  	ecx, eax
  0x4663	dec    	ecx
  0x4664	mov    	dword ptr [eax], ecx
  0x4666	dec    	ecx
  === BLOCK LINK ===
    0x4667
=== CODE BLOCK END ===

=== CODE BLOCK ADDRESS 0x4667 ===
  0x4667	mov    	eax, dword ptr [esp + 8]
  0x466b	dec    	eax
  0x466c	test   	eax, eax
  0x466e	dec    	eax
  0x466f	cmovne  	edx, eax
  === BLOCK LINK ===
    0x4672
=== CODE BLOCK END ===

=== CODE BLOCK ADDRESS 0x4672 ===
  0x4672	dec    	ecx
  0x4673	mov    	dword ptr [eax + 8], edx
  0x4676	dec    	eax
  0x4677	lea    	edx, [0x72f7]
  0x467d	dec    	ecx
  === BLOCK LINK ===
    0x467e
=== CODE BLOCK END ===

=== CODE BLOCK ADDRESS 0x467e ===
  0x467e	mov    	eax, dword ptr [esp + 0x18]
  0x4682	dec    	eax
  0x4683	test   	eax, eax
  0x4685	dec    	eax
  0x4686	cmovne  	edx, eax
  === BLOCK LINK ===
    0x4689
=== CODE BLOCK END ===

=== CODE BLOCK ADDRESS 0x4689 ===
  0x4689	dec    	ecx
  0x468a	mov    	dword ptr [eax + 0x10], edx
  0x468d	inc    	ecx
  0x468e	mov    	eax, dword ptr [esp - 0xc]
  0x4692	inc    	ecx
  === BLOCK LINK ===
    0x4693
=== CODE BLOCK END ===

=== CODE BLOCK ADDRESS 0x4693 ===
  0x4693	mov    	dword ptr [eax + 0x18], eax
  0x4696	dec    	ecx
  0x4697	mov    	dword ptr [eax + 0x24], 0
  0x469e	dec    	ecx
  0x469f	mov    	dword ptr [eax + 0x1c], 0xfffe
  === BLOCK LINK ===
    0x46a6
=== CODE BLOCK END ===

=== CODE BLOCK ADDRESS 0x46a6 ===
  0x46a6	dec    	eax
  0x46a7	call   	dword ptr [0x6dab]
  === BLOCK LINK ===
    0x46ad
=== CODE BLOCK END ===

=== CODE BLOCK ADDRESS 0x46ad ===
  0x46ad	nop    	dword ptr [eax + eax]
  0x46b2	inc    	dword ptr [edi]
  0x46b4	mov    	edx, dword ptr [esp + 0xa8]
  0x46bb	dec    	ecx
  0x46bc	add    	esp, 0x30
  === BLOCK LINK ===
    0x46bf
=== CODE BLOCK END ===

=== CODE BLOCK ADDRESS 0x46bf ===
  0x46bf	inc    	edx
  0x46c1	mov    	dword ptr [esp + 0xa8], edx
  0x46c8	cmp    	edx, dword ptr [esp + 0x90]
  0x46cf	jb     	0x45b2
  === BLOCK LINK ===
    0x46d5
=== CODE BLOCK END ===

=== CODE BLOCK ADDRESS 0x46d5 ===
  0x46d5	test   	ebx, ebx
  0x46d7	jne    	0x251c
  === BLOCK LINK ===
    0x46dd
=== CODE BLOCK END ===

=== CODE BLOCK ADDRESS 0x46dd ===
  0x46dd	dec    	eax
  0x46de	lea    	edx, [esp + 0x38]
  0x46e2	mov    	dword ptr [esp + 0x30], 0x1000
  0x46ea	mov    	ecx, 0x1000
  0x46ef	dec    	eax
  === BLOCK LINK ===
    0x46f0
=== CODE BLOCK END ===

=== CODE BLOCK ADDRESS 0x46f0 ===
  0x46f0	call   	dword ptr [0x6eca]
  === BLOCK LINK ===
    0x46f6
=== CODE BLOCK END ===

=== CODE BLOCK ADDRESS 0x46f6 ===
  0x46f6	nop    	dword ptr [eax + eax]
  0x46fb	test   	eax, eax
  0x46fd	je     	0x24ce
  === BLOCK LINK ===
    0x4703
=== CODE BLOCK END ===

=== CODE BLOCK ADDRESS 0x4703 ===
  0x4703	xor    	edx, edx
  0x4705	mov    	ecx, eax
  0x4707	call   	0x7ea4
  === BLOCK LINK ===
    0x470c
=== CODE BLOCK END ===

=== CODE BLOCK ADDRESS 0x470c ===
  0x470c	lea    	ecx, [ebx + 2]
  0x470f	call   	0x8378
  === BLOCK LINK ===
    0x4714
=== CODE BLOCK END ===

=== CODE BLOCK ADDRESS 0x4714 ===
  0x4714	int3   	
  0x4715	cmp    	word ptr [eax], 0
  0x4719	je     	0x4608
  === BLOCK LINK ===
    0x471f
=== CODE BLOCK END ===

=== CODE BLOCK ADDRESS 0x471f ===
  0x471f	inc    	ebp
  0x4721	dec    	ecx
  0x4722	add    	ebp, 0x30
  0x4725	cmp    	ebp, esi
  0x4727	jb     	0x45bb
  === BLOCK LINK ===
    0x472d
=== CODE BLOCK END ===

=== CODE BLOCK ADDRESS 0x472d ===
  0x472d	jmp    	0x4610
  === BLOCK LINK ===
    0x4732
=== CODE BLOCK END ===

=== CODE BLOCK ADDRESS 0x4732 ===
  0x4732	dec    	eax
  0x4733	lea    	ebp, [0x14277]
  0x4739	dec    	ebp
  0x473a	mov    	edi, esp
  0x473c	dec    	eax
  === BLOCK LINK ===
    0x473d
=== CODE BLOCK END ===

=== CODE BLOCK ADDRESS 0x473d ===
  0x473d	mov    	dword ptr [esp + 0x60], ebp
  0x4741	inc    	ecx
  0x4742	mov    	ebp, 0x3a
  0x4747	dec    	eax
  0x4748	mov    	ecx, eax
  === BLOCK LINK ===
    0x474a
=== CODE BLOCK END ===

=== CODE BLOCK ADDRESS 0x474a ===
  0x474a	inc    	ecx
  0x474b	mov    	edx, ebp
  0x474d	dec    	eax
  0x474e	call   	dword ptr [0x6cd4]
  === BLOCK LINK ===
    0x4754
=== CODE BLOCK END ===

=== CODE BLOCK ADDRESS 0x4754 ===
  0x4754	nop    	dword ptr [eax + eax]
  0x4759	dec    	esp
  0x475a	mov    	esi, eax
  0x475c	dec    	eax
  0x475d	test   	eax, eax
  === BLOCK LINK ===
    0x475f
=== CODE BLOCK END ===

=== CODE BLOCK ADDRESS 0x475f ===
  0x475f	je     	0x4765
  === BLOCK LINK ===
    0x4761
=== CODE BLOCK END ===

=== CODE BLOCK ADDRESS 0x4761 ===
  0x4761	inc    	sp
  0x4763	mov    	dword ptr [eax], esp
  0x4765	dec    	eax
  0x4766	mov    	ecx, dword ptr [ebp]
  0x4769	dec    	eax
  === BLOCK LINK ===
    0x476a
=== CODE BLOCK END ===

=== CODE BLOCK ADDRESS 0x476a ===
  0x476a	call   	dword ptr [0x6ce8]
  === BLOCK LINK ===
    0x4770
=== CODE BLOCK END ===

=== CODE BLOCK ADDRESS 0x4770 ===
  0x4770	nop    	dword ptr [eax + eax]
  0x4775	dec    	ebp
  0x4776	test   	esi, esi
  0x4778	je     	0x477e
  === BLOCK LINK ===
    0x477a
=== CODE BLOCK END ===

=== CODE BLOCK ADDRESS 0x477a ===
  0x477a	inc    	bp
  0x477c	mov    	dword ptr [esi], ebp
  0x477e	xor    	eax, eax
  0x4780	inc    	ebp
  0x4781	movzx  	ebp, sp
  === BLOCK LINK ===
    0x4784
=== CODE BLOCK END ===

=== CODE BLOCK ADDRESS 0x4784 ===
  0x4784	movzx  	ebp, ax
  0x4787	dec    	eax
  0x4788	cmp    	dword ptr [ebx], eax
  0x478a	je     	0x496a
  === BLOCK LINK ===
    0x4790
=== CODE BLOCK END ===

=== CODE BLOCK ADDRESS 0x4790 ===
  0x4790	call   	0x957c
  === BLOCK LINK ===
    0x4795
=== CODE BLOCK END ===

=== CODE BLOCK ADDRESS 0x4795 ===
  0x4795	test   	eax, eax
  0x4797	je     	0x47c6
  === BLOCK LINK ===
    0x4799
=== CODE BLOCK END ===

=== CODE BLOCK ADDRESS 0x4799 ===
  0x4799	movzx  	eax, bp
  0x479c	dec    	esp
  0x479d	lea    	eax, [0x9c15]
  0x47a3	dec    	eax
  0x47a4	lea    	ecx, [eax + eax*2]
  === BLOCK LINK ===
    0x47a7
=== CODE BLOCK END ===

=== CODE BLOCK ADDRESS 0x47a7 ===
  0x47a7	dec    	eax
  0x47a8	mov    	eax, dword ptr [ebx + ecx*8]
  0x47ab	dec    	esp
  0x47ac	sub    	eax, eax
  0x47ae	movzx  	ecx, word ptr [eax]
  === BLOCK LINK ===
    0x47b1
=== CODE BLOCK END ===

=== CODE BLOCK ADDRESS 0x47b1 ===
  0x47b1	inc    	edx
  0x47b2	movzx  	edx, word ptr [eax + eax]
  0x47b6	sub    	ecx, edx
  0x47b8	jne    	0x47c2
  === BLOCK LINK ===
    0x47ba
=== CODE BLOCK END ===

=== CODE BLOCK ADDRESS 0x47ba ===
  0x47ba	dec    	eax
  0x47bb	add    	eax, 2
  0x47be	test   	edx, edx
  0x47c0	jne    	0x47ae
  === BLOCK LINK ===
    0x47c2
=== CODE BLOCK END ===

=== CODE BLOCK ADDRESS 0x47c2 ===
  0x47c2	test   	ecx, ecx
  0x47c4	je     	0x47f1
  === BLOCK LINK ===
    0x47c6
=== CODE BLOCK END ===

=== CODE BLOCK ADDRESS 0x47c6 ===
  0x47c6	movzx  	eax, bp
  0x47c9	dec    	eax
  0x47ca	lea    	ecx, [eax + eax*2]
  0x47cd	dec    	eax
  0x47ce	mov    	eax, dword ptr [esp + 0x60]
  === BLOCK LINK ===
    0x47d2
=== CODE BLOCK END ===

=== CODE BLOCK ADDRESS 0x47d2 ===
  0x47d2	dec    	eax
  0x47d3	mov    	ecx, dword ptr [ebx + ecx*8]
  0x47d6	dec    	eax
  0x47d7	mov    	edx, dword ptr [eax]
  0x47d9	call   	0x8bb0
  === BLOCK LINK ===
    0x47de
=== CODE BLOCK END ===

=== CODE BLOCK ADDRESS 0x47de ===
  0x47de	mov    	edi, eax
  0x47e0	test   	eax, eax
  0x47e2	je     	0x483c
  === BLOCK LINK ===
    0x47e4
=== CODE BLOCK END ===

=== CODE BLOCK ADDRESS 0x47e4 ===
  0x47e4	cmp    	eax, 1
  0x47e7	jne    	0x47f1
  === BLOCK LINK ===
    0x47e9
=== CODE BLOCK END ===

=== CODE BLOCK ADDRESS 0x47e9 ===
  0x47e9	inc    	cx
  0x47eb	inc    	esp
  0x47ed	inc    	esp
  0x47ee	movzx  	ebp, bp
  0x47f1	inc    	bp
  === BLOCK LINK ===
    0x47f4
=== CODE BLOCK END ===

=== CODE BLOCK ADDRESS 0x47f4 ===
  0x47f4	movzx  	ecx, bp
  0x47f7	dec    	eax
  0x47f8	lea    	edx, [ecx + ecx*2]
  0x47fb	dec    	eax
  0x47fc	cmp    	dword ptr [ebx + edx*8], 0
  === BLOCK LINK ===
    0x4800
=== CODE BLOCK END ===

=== CODE BLOCK ADDRESS 0x4800 ===
  0x4800	jne    	0x4790
  === BLOCK LINK ===
    0x4802
=== CODE BLOCK END ===

=== CODE BLOCK ADDRESS 0x4802 ===
  0x4802	inc    	bp
  0x4804	test   	esp, esp
  0x4806	je     	0x496a
  === BLOCK LINK ===
    0x480c
=== CODE BLOCK END ===

=== CODE BLOCK ADDRESS 0x480c ===
  0x480c	inc    	cx
  0x480e	cmp    	esp, 1
  0x4811	jbe    	0x4840
  === BLOCK LINK ===
    0x4813
=== CODE BLOCK END ===

=== CODE BLOCK ADDRESS 0x4813 ===
  0x4813	dec    	eax
  0x4814	lea    	eax, [0x14196]
  0x481a	mov    	edx, 1
  0x481f	dec    	edx
  0x4820	mov    	eax, dword ptr [eax + edi*8]
  === BLOCK LINK ===
    0x4823
=== CODE BLOCK END ===

=== CODE BLOCK ADDRESS 0x4823 ===
  0x4823	mov    	ecx, 0xdb3
  0x4828	dec    	eax
  0x4829	mov    	dword ptr [0x11bf1], eax
  0x482f	call   	0x7ea4
  === BLOCK LINK ===
    0x4834
=== CODE BLOCK END ===

=== CODE BLOCK ADDRESS 0x4834 ===
  0x4834	xor    	edx, edx
  0x4836	call   	0x9a0c
  === BLOCK LINK ===
    0x483b
=== CODE BLOCK END ===

=== CODE BLOCK ADDRESS 0x483b ===
  0x483b	int3   	
  0x483c	inc    	esp
  0x483d	movzx  	ebp, bp
  0x4840	inc    	ecx
  0x4841	movzx  	eax, bp
  === BLOCK LINK ===
    0x4844
=== CODE BLOCK END ===

=== CODE BLOCK ADDRESS 0x4844 ===
  0x4844	dec    	eax
  0x4845	lea    	ecx, [eax + eax*2]
  0x4848	mov    	eax, dword ptr [ebx + ecx*8 + 0x10]
  0x484c	test   	eax, eax
  0x484e	je     	0x486e
  === BLOCK LINK ===
    0x4850
=== CODE BLOCK END ===

=== CODE BLOCK ADDRESS 0x4850 ===
  0x4850	cmp    	eax, 2
  0x4853	jne    	0x4887
  === BLOCK LINK ===
    0x4855
=== CODE BLOCK END ===

=== CODE BLOCK ADDRESS 0x4855 ===
  0x4855	dec    	ebp
  0x4856	test   	esi, esi
  0x4858	jne    	0x4887
  === BLOCK LINK ===
    0x485a
=== CODE BLOCK END ===

=== CODE BLOCK ADDRESS 0x485a ===
  0x485a	xor    	edx, edx
  0x485c	mov    	ecx, 0xdb1
  0x4861	call   	0x7ea4
  === BLOCK LINK ===
    0x4866
=== CODE BLOCK END ===

=== CODE BLOCK ADDRESS 0x4866 ===
  0x4866	xor    	edx, edx
  0x4868	call   	0x9a0c
  === BLOCK LINK ===
    0x486d
=== CODE BLOCK END ===

=== CODE BLOCK ADDRESS 0x486d ===
  0x486d	int3   	
  0x486e	dec    	ebp
  0x486f	test   	esi, esi
  0x4871	je     	0x4887
  === BLOCK LINK ===
    0x4873
=== CODE BLOCK END ===

=== CODE BLOCK ADDRESS 0x4873 ===
  0x4873	xor    	edx, edx
  0x4875	mov    	ecx, 0xdb1
  0x487a	call   	0x7ea4
  === BLOCK LINK ===
    0x487f
=== CODE BLOCK END ===

=== CODE BLOCK ADDRESS 0x487f ===
  0x487f	xor    	edx, edx
  0x4881	call   	0x9a0c
  === BLOCK LINK ===
    0x4886
=== CODE BLOCK END ===

=== CODE BLOCK ADDRESS 0x4886 ===
  0x4886	int3   	
  0x4887	test   	edi, edi
  0x4889	jne    	0x4897
  === BLOCK LINK ===
    0x488b
=== CODE BLOCK END ===

=== CODE BLOCK ADDRESS 0x488b ===
  0x488b	dec    	eax
  0x488c	cmp    	dword ptr [ebx + ecx*8 + 8], 0
  0x4891	je     	0x4927
  === BLOCK LINK ===
    0x4897
=== CODE BLOCK END ===

=== CODE BLOCK ADDRESS 0x4897 ===
  0x4897	dec    	eax
  0x4898	mov    	ebp, dword ptr [ebx + ecx*8 + 8]
  0x489c	dec    	eax
  0x489d	test   	ebp, ebp
  0x489f	jne    	0x48a5
  === BLOCK LINK ===
    0x48a1
=== CODE BLOCK END ===

=== CODE BLOCK ADDRESS 0x48a1 ===
  0x48a1	dec    	eax
  0x48a2	mov    	ebp, dword ptr [ebx + ecx*8]
  0x48a5	dec    	eax
  0x48a6	mov    	eax, 0xffffffff
  0x48ac	dec    	eax
  === BLOCK LINK ===
    0x48ad
=== CODE BLOCK END ===

=== CODE BLOCK ADDRESS 0x48ad ===
  0x48ad	inc    	eax
  0x48af	cmp    	word ptr [ebp + eax*2], 0
  0x48b5	jne    	0x48ac
  === BLOCK LINK ===
    0x48b7
=== CODE BLOCK END ===

=== CODE BLOCK ADDRESS 0x48b7 ===
  0x48b7	dec    	ebp
  0x48b8	test   	esi, esi
  0x48ba	je     	0x48d0
  === BLOCK LINK ===
    0x48bc
=== CODE BLOCK END ===

=== CODE BLOCK ADDRESS 0x48bc ===
  0x48bc	dec    	eax
  0x48bd	mov    	ecx, 0xffffffff
  0x48c3	dec    	eax
  0x48c4	inc    	ecx
  0x48c6	inc    	cx
  === BLOCK LINK ===
    0x48c8
=== CODE BLOCK END ===

=== CODE BLOCK ADDRESS 0x48c8 ===
  0x48c8	cmp    	dword ptr [esi + ecx*2], 0
  0x48cc	jne    	0x48c3
  === BLOCK LINK ===
    0x48ce
=== CODE BLOCK END ===

=== CODE BLOCK ADDRESS 0x48ce ===
  0x48ce	add    	eax, ecx
  0x48d0	inc    	eax
  0x48d2	mov    	edx, 2
  0x48d7	dec    	esp
  0x48d8	arpl   	ax, di
  === BLOCK LINK ===
    0x48da
=== CODE BLOCK END ===

=== CODE BLOCK ADDRESS 0x48da ===
  0x48da	dec    	ecx
  0x48db	mov    	ecx, edi
  0x48dd	dec    	eax
  0x48de	call   	dword ptr [0x6bec]
  === BLOCK LINK ===
    0x48e4
=== CODE BLOCK END ===

=== CODE BLOCK ADDRESS 0x48e4 ===
  0x48e4	nop    	dword ptr [eax + eax]
  0x48e9	dec    	esp
  0x48ea	mov    	esp, dword ptr [esp + 0x60]
  0x48ee	dec    	ecx
  0x48ef	mov    	dword ptr [esp], eax
  === BLOCK LINK ===
    0x48f2
=== CODE BLOCK END ===

=== CODE BLOCK ADDRESS 0x48f2 ===
  0x48f2	dec    	eax
  0x48f3	test   	eax, eax
  0x48f5	je     	0x4953
  === BLOCK LINK ===
    0x48f7
=== CODE BLOCK END ===

=== CODE BLOCK ADDRESS 0x48f7 ===
  0x48f7	dec    	esp
  0x48f8	mov    	eax, ebp
  0x48fa	dec    	ecx
  0x48fb	mov    	edx, edi
  0x48fd	dec    	eax
  === BLOCK LINK ===
    0x48fe
=== CODE BLOCK END ===

=== CODE BLOCK ADDRESS 0x48fe ===
  0x48fe	mov    	ecx, eax
  0x4900	dec    	eax
  0x4901	call   	dword ptr [0x6c39]
  === BLOCK LINK ===
    0x4907
=== CODE BLOCK END ===

=== CODE BLOCK ADDRESS 0x4907 ===
  0x4907	nop    	dword ptr [eax + eax]
  0x490c	dec    	ebp
  0x490d	test   	esi, esi
  0x490f	je     	0x4927
  === BLOCK LINK ===
    0x4911
=== CODE BLOCK END ===

=== CODE BLOCK ADDRESS 0x4911 ===
  0x4911	dec    	ecx
  0x4912	mov    	ecx, dword ptr [esp]
  0x4915	dec    	ebp
  0x4916	mov    	eax, esi
  0x4918	dec    	ecx
  === BLOCK LINK ===
    0x4919
=== CODE BLOCK END ===

=== CODE BLOCK ADDRESS 0x4919 ===
  0x4919	mov    	edx, edi
  0x491b	dec    	eax
  0x491c	call   	dword ptr [0x6c16]
  === BLOCK LINK ===
    0x4922
=== CODE BLOCK END ===

=== CODE BLOCK ADDRESS 0x4922 ===
  0x4922	nop    	dword ptr [eax + eax]
  0x4927	inc    	si
  0x492a	dec    	eax
  0x492b	lea    	eax, [0x1407f]
  0x4931	inc    	esp
  === BLOCK LINK ===
    0x4932
=== CODE BLOCK END ===

=== CODE BLOCK ADDRESS 0x4932 ===
  0x4932	movzx  	edi, si
  0x4935	dec    	edx
  0x4936	lea    	ebp, [eax + edi*8]
  0x4939	dec    	edx
  0x493a	mov    	eax, dword ptr [eax + edi*8]
  === BLOCK LINK ===
    0x493d
=== CODE BLOCK END ===

=== CODE BLOCK ADDRESS 0x493d ===
  0x493d	dec    	eax
  0x493e	mov    	dword ptr [esp + 0x60], ebp
  0x4942	dec    	eax
  0x4943	test   	eax, eax
  0x4945	je     	0x2599
  === BLOCK LINK ===
    0x494b
=== CODE BLOCK END ===

=== CODE BLOCK ADDRESS 0x494b ===
  0x494b	inc    	ebp
  0x494c	xor    	esp, esp
  0x494e	jmp    	0x4741
  === BLOCK LINK ===
    0x4953
=== CODE BLOCK END ===

=== CODE BLOCK ADDRESS 0x4953 ===
  0x4953	xor    	edx, edx
  0x4955	mov    	ecx, 0x85c
  0x495a	call   	0x7ea4
  === BLOCK LINK ===
    0x495f
=== CODE BLOCK END ===

=== CODE BLOCK ADDRESS 0x495f ===
  0x495f	mov    	ecx, 2
  0x4964	call   	0x8378
  === BLOCK LINK ===
    0x4969
=== CODE BLOCK END ===

=== CODE BLOCK ADDRESS 0x4969 ===
  0x4969	int3   	
  0x496a	dec    	eax
  0x496b	lea    	eax, [0x1403f]
  0x4971	dec    	esi
  0x4972	mov    	ecx, dword ptr [eax + edi*8]
  === BLOCK LINK ===
    0x4975
=== CODE BLOCK END ===

=== CODE BLOCK ADDRESS 0x4975 ===
  0x4975	dec    	eax
  0x4976	lea    	eax, [0x9c1c]
  0x497c	dec    	ebp
  0x497d	mov    	eax, ecx
  0x497f	dec    	esp
  === BLOCK LINK ===
    0x4980
=== CODE BLOCK END ===

=== CODE BLOCK ADDRESS 0x4980 ===
  0x4980	sub    	eax, eax
  0x4982	movzx  	ecx, word ptr [eax]
  0x4985	inc    	edx
  0x4986	movzx  	edx, word ptr [eax + eax]
  0x498a	sub    	ecx, edx
  === BLOCK LINK ===
    0x498c
=== CODE BLOCK END ===

=== CODE BLOCK ADDRESS 0x498c ===
  0x498c	jne    	0x4996
  === BLOCK LINK ===
    0x498e
=== CODE BLOCK END ===

=== CODE BLOCK ADDRESS 0x498e ===
  0x498e	dec    	eax
  0x498f	add    	eax, 2
  0x4992	test   	edx, edx
  0x4994	jne    	0x4982
  === BLOCK LINK ===
    0x4996
=== CODE BLOCK END ===

=== CODE BLOCK ADDRESS 0x4996 ===
  0x4996	test   	ecx, ecx
  0x4998	jne    	0x49a3
  === BLOCK LINK ===
    0x499a
=== CODE BLOCK END ===

=== CODE BLOCK ADDRESS 0x499a ===
  0x499a	lea    	edx, [ecx + 1]
  0x499d	call   	0x9a0c
  === BLOCK LINK ===
    0x49a2
=== CODE BLOCK END ===

=== CODE BLOCK ADDRESS 0x49a2 ===
  0x49a2	int3   	
  0x49a3	dec    	eax
  0x49a4	lea    	eax, [0x9bfa]
  0x49aa	dec    	ecx
  0x49ab	mov    	edx, ecx
  === BLOCK LINK ===
    0x49ad
=== CODE BLOCK END ===

=== CODE BLOCK ADDRESS 0x49ad ===
  0x49ad	dec    	eax
  0x49ae	sub    	edx, eax
  0x49b0	movzx  	ecx, word ptr [eax]
  0x49b3	inc    	esp
  0x49b4	movzx  	eax, word ptr [eax + edx]
  === BLOCK LINK ===
    0x49b8
=== CODE BLOCK END ===

=== CODE BLOCK ADDRESS 0x49b8 ===
  0x49b8	inc    	ecx
  0x49b9	sub    	ecx, eax
  0x49bb	jne    	0x49c6
  === BLOCK LINK ===
    0x49bd
=== CODE BLOCK END ===

=== CODE BLOCK ADDRESS 0x49bd ===
  0x49bd	dec    	eax
  0x49be	add    	eax, 2
  0x49c1	inc    	ebp
  0x49c2	test   	eax, eax
  0x49c4	jne    	0x49b0
  === BLOCK LINK ===
    0x49c6
=== CODE BLOCK END ===

=== CODE BLOCK ADDRESS 0x49c6 ===
  0x49c6	test   	ecx, ecx
  0x49c8	jne    	0x49d2
  === BLOCK LINK ===
    0x49ca
=== CODE BLOCK END ===

=== CODE BLOCK ADDRESS 0x49ca ===
  0x49ca	xor    	edx, edx
  0x49cc	call   	0x9a0c
  === BLOCK LINK ===
    0x49d1
=== CODE BLOCK END ===

=== CODE BLOCK ADDRESS 0x49d1 ===
  0x49d1	int3   	
  0x49d2	mov    	edx, 1
  0x49d7	dec    	esp
  0x49d8	mov    	dword ptr [0x11a42], ecx
  0x49de	mov    	ecx, 0xdb2
  === BLOCK LINK ===
    0x49e3
=== CODE BLOCK END ===

=== CODE BLOCK ADDRESS 0x49e3 ===
  0x49e3	call   	0x7ea4
  === BLOCK LINK ===
    0x49e8
=== CODE BLOCK END ===

=== CODE BLOCK ADDRESS 0x49e8 ===
  0x49e8	xor    	edx, edx
  0x49ea	call   	0x9a0c
  === BLOCK LINK ===
    0x49ef
=== CODE BLOCK END ===

=== CODE BLOCK ADDRESS 0x49ef ===
  0x49ef	int3   	
  0x49f0	int3   	
  0x49f1	int3   	
  0x49f2	int3   	
  0x49f3	int3   	
  === BLOCK LINK ===
    0x49f4
=== CODE BLOCK END ===

=== CODE BLOCK ADDRESS 0x49f4 ===
  0x49f4	int3   	
  0x49f5	int3   	
  0x49f6	int3   	
  0x49f7	int3   	
  0x49f8	dec    	eax
  === BLOCK LINK ===
    0x49f9
=== CODE BLOCK END ===

=== CODE BLOCK ADDRESS 0x49f9 ===
  0x49f9	mov    	dword ptr [esp + 8], ebx
  0x49fd	push   	edi
  0x49fe	dec    	eax
  0x49ff	sub    	esp, 0x20
  0x4a02	mov    	ebx, edx
  === BLOCK LINK ===
    0x4a04
=== CODE BLOCK END ===

=== CODE BLOCK ADDRESS 0x4a04 ===
  0x4a04	dec    	eax
  0x4a05	mov    	edi, ecx
  0x4a07	dec    	eax
  0x4a08	lea    	edx, [esp + 0x48]
  0x4a0c	mov    	ecx, 0x18
  === BLOCK LINK ===
    0x4a11
=== CODE BLOCK END ===

=== CODE BLOCK ADDRESS 0x4a11 ===
  0x4a11	dec    	eax
  0x4a12	call   	dword ptr [0x6ba8]
  === BLOCK LINK ===
    0x4a18
=== CODE BLOCK END ===

=== CODE BLOCK ADDRESS 0x4a18 ===
  0x4a18	nop    	dword ptr [eax + eax]
  0x4a1d	test   	eax, eax
  0x4a1f	je     	0x4a35
  === BLOCK LINK ===
    0x4a21
=== CODE BLOCK END ===

=== CODE BLOCK ADDRESS 0x4a21 ===
  0x4a21	xor    	edx, edx
  0x4a23	mov    	ecx, eax
  0x4a25	call   	0x7ea4
  === BLOCK LINK ===
    0x4a2a
=== CODE BLOCK END ===

=== CODE BLOCK ADDRESS 0x4a2a ===
  0x4a2a	mov    	ecx, 2
  0x4a2f	call   	0x8378
  === BLOCK LINK ===
    0x4a34
=== CODE BLOCK END ===

=== CODE BLOCK ADDRESS 0x4a34 ===
  0x4a34	int3   	
  0x4a35	dec    	eax
  0x4a36	mov    	eax, dword ptr [esp + 0x48]
  0x4a3a	dec    	eax
  0x4a3b	mov    	ecx, dword ptr [0x11a2f]
  === BLOCK LINK ===
    0x4a41
=== CODE BLOCK END ===

=== CODE BLOCK ADDRESS 0x4a41 ===
  0x4a41	dec    	eax
  0x4a42	mov    	dword ptr [eax], edi
  0x4a44	dec    	eax
  0x4a45	mov    	eax, dword ptr [esp + 0x48]
  0x4a49	mov    	dword ptr [eax + 0x10], ebx
  === BLOCK LINK ===
    0x4a4c
=== CODE BLOCK END ===

=== CODE BLOCK ADDRESS 0x4a4c ===
  0x4a4c	dec    	eax
  0x4a4d	mov    	eax, dword ptr [esp + 0x48]
  0x4a51	and    	dword ptr [eax + 0x14], 0
  0x4a55	dec    	eax
  0x4a56	mov    	eax, dword ptr [esp + 0x48]
  === BLOCK LINK ===
    0x4a5a
=== CODE BLOCK END ===

=== CODE BLOCK ADDRESS 0x4a5a ===
  0x4a5a	dec    	eax
  0x4a5b	and    	dword ptr [eax + 8], 0
  0x4a5f	dec    	eax
  0x4a60	test   	ecx, ecx
  0x4a62	jne    	0x4a72
  === BLOCK LINK ===
    0x4a64
=== CODE BLOCK END ===

=== CODE BLOCK ADDRESS 0x4a64 ===
  0x4a64	dec    	eax
  0x4a65	mov    	eax, dword ptr [esp + 0x48]
  0x4a69	dec    	eax
  0x4a6a	mov    	dword ptr [0x11a00], eax
  0x4a70	jmp    	0x4a8d
  === BLOCK LINK ===
    0x4a72
=== CODE BLOCK END ===

=== CODE BLOCK ADDRESS 0x4a72 ===
  0x4a72	dec    	eax
  0x4a73	mov    	eax, dword ptr [ecx + 8]
  0x4a76	jmp    	0x4a7f
  === BLOCK LINK ===
    0x4a78
=== CODE BLOCK END ===

=== CODE BLOCK ADDRESS 0x4a78 ===
  0x4a78	dec    	eax
  0x4a79	mov    	ecx, eax
  0x4a7b	dec    	eax
  0x4a7c	mov    	eax, dword ptr [eax + 8]
  0x4a7f	dec    	eax
  === BLOCK LINK ===
    0x4a80
=== CODE BLOCK END ===

=== CODE BLOCK ADDRESS 0x4a80 ===
  0x4a80	test   	eax, eax
  0x4a82	jne    	0x4a78
  === BLOCK LINK ===
    0x4a84
=== CODE BLOCK END ===

=== CODE BLOCK ADDRESS 0x4a84 ===
  0x4a84	dec    	eax
  0x4a85	mov    	eax, dword ptr [esp + 0x48]
  0x4a89	dec    	eax
  0x4a8a	mov    	dword ptr [ecx + 8], eax
  0x4a8d	dec    	eax
  === BLOCK LINK ===
    0x4a8e
=== CODE BLOCK END ===

=== CODE BLOCK ADDRESS 0x4a8e ===
  0x4a8e	mov    	ebx, dword ptr [esp + 0x30]
  0x4a92	dec    	eax
  0x4a93	add    	esp, 0x20
  0x4a96	pop    	edi
  0x4a97	ret    	
  === BLOCK LINK ===
    0x4a98
=== CODE BLOCK END ===

=== CODE BLOCK ADDRESS 0x4a98 ===
  0x4a98	int3   	
  0x4a99	int3   	
  0x4a9a	int3   	
  0x4a9b	int3   	
  0x4a9c	int3   	
  === BLOCK LINK ===
    0x4a9d
=== CODE BLOCK END ===

=== CODE BLOCK ADDRESS 0x4a9d ===
  0x4a9d	int3   	
  0x4a9e	int3   	
  0x4a9f	int3   	
  0x4aa0	dec    	eax
  0x4aa1	mov    	dword ptr [esp + 0x18], ebx
  === BLOCK LINK ===
    0x4aa5
=== CODE BLOCK END ===

=== CODE BLOCK ADDRESS 0x4aa5 ===
  0x4aa5	dec    	eax
  0x4aa6	mov    	dword ptr [esp + 0x20], esi
  0x4aaa	push   	ebp
  0x4aab	push   	edi
  0x4aac	inc    	ecx
  === BLOCK LINK ===
    0x4aad
=== CODE BLOCK END ===

=== CODE BLOCK ADDRESS 0x4aad ===
  0x4aad	push   	esi
  0x4aae	dec    	eax
  0x4aaf	lea    	ebp, [esp - 0x47]
  0x4ab3	dec    	eax
  0x4ab4	sub    	esp, 0xe0
  === BLOCK LINK ===
    0x4aba
=== CODE BLOCK END ===

=== CODE BLOCK ADDRESS 0x4aba ===
  0x4aba	inc    	ebp
  0x4abb	xor    	esi, esi
  0x4abd	dec    	eax
  0x4abe	lea    	ecx, [ebp - 0x25]
  0x4ac1	xor    	edx, edx
  === BLOCK LINK ===
    0x4ac3
=== CODE BLOCK END ===

=== CODE BLOCK ADDRESS 0x4ac3 ===
  0x4ac3	inc    	esp
  0x4ac4	mov    	dword ptr [ebp + 0x67], esi
  0x4ac7	inc    	ebp
  0x4ac8	lea    	eax, [esi + 0x64]
  0x4acb	call   	0x321a
  === BLOCK LINK ===
    0x4ad0
=== CODE BLOCK END ===

=== CODE BLOCK ADDRESS 0x4ad0 ===
  0x4ad0	mov    	dword ptr [ebp - 0x29], 0x68
  0x4ad7	dec    	eax
  0x4ad8	call   	dword ptr [0x682a]
  === BLOCK LINK ===
    0x4ade
=== CODE BLOCK END ===

=== CODE BLOCK ADDRESS 0x4ade ===
  0x4ade	nop    	dword ptr [eax + eax]
  0x4ae3	dec    	eax
  0x4ae4	mov    	ecx, eax
  0x4ae6	inc    	ecx
  0x4ae7	lea    	edx, [esi + 0x20]
  === BLOCK LINK ===
    0x4aea
=== CODE BLOCK END ===

=== CODE BLOCK ADDRESS 0x4aea ===
  0x4aea	dec    	eax
  0x4aeb	mov    	edi, eax
  0x4aed	dec    	eax
  0x4aee	call   	dword ptr [0x6934]
  === BLOCK LINK ===
    0x4af4
=== CODE BLOCK END ===

=== CODE BLOCK ADDRESS 0x4af4 ===
  0x4af4	nop    	dword ptr [eax + eax]
  0x4af9	dec    	eax
  0x4afa	mov    	esi, eax
  0x4afc	dec    	eax
  0x4afd	or     	ebx, 0xffffffff
  === BLOCK LINK ===
    0x4b00
=== CODE BLOCK END ===

=== CODE BLOCK ADDRESS 0x4b00 ===
  0x4b00	dec    	eax
  0x4b01	inc    	ebx
  0x4b03	inc    	sp
  0x4b05	cmp    	dword ptr [edi + ebx*2], esi
  0x4b08	jne    	0x4b00
  === BLOCK LINK ===
    0x4b0a
=== CODE BLOCK END ===

=== CODE BLOCK ADDRESS 0x4b0a ===
  0x4b0a	add    	ebx, 0x10a
  0x4b10	dec    	eax
  0x4b11	lea    	edx, [ebp + 0x6f]
  0x4b14	lea    	ecx, [ebx + ebx]
  0x4b17	dec    	eax
  === BLOCK LINK ===
    0x4b18
=== CODE BLOCK END ===

=== CODE BLOCK ADDRESS 0x4b18 ===
  0x4b18	call   	dword ptr [0x6aa2]
  === BLOCK LINK ===
    0x4b1e
=== CODE BLOCK END ===

=== CODE BLOCK ADDRESS 0x4b1e ===
  0x4b1e	nop    	dword ptr [eax + eax]
  0x4b23	test   	eax, eax
  0x4b25	je     	0x4b3b
  === BLOCK LINK ===
    0x4b27
=== CODE BLOCK END ===

=== CODE BLOCK ADDRESS 0x4b27 ===
  0x4b27	xor    	edx, edx
  0x4b29	mov    	ecx, eax
  0x4b2b	call   	0x7ea4
  === BLOCK LINK ===
    0x4b30
=== CODE BLOCK END ===

=== CODE BLOCK ADDRESS 0x4b30 ===
  0x4b30	mov    	ecx, 2
  0x4b35	call   	0x8378
  === BLOCK LINK ===
    0x4b3a
=== CODE BLOCK END ===

=== CODE BLOCK ADDRESS 0x4b3a ===
  0x4b3a	int3   	
  0x4b3b	dec    	eax
  0x4b3c	mov    	ecx, dword ptr [ebp + 0x6f]
  0x4b3f	mov    	edx, 0x104
  0x4b44	dec    	eax
  === BLOCK LINK ===
    0x4b45
=== CODE BLOCK END ===

=== CODE BLOCK ADDRESS 0x4b45 ===
  0x4b45	call   	dword ptr [0x68ad]
  === BLOCK LINK ===
    0x4b4b
=== CODE BLOCK END ===

=== CODE BLOCK ADDRESS 0x4b4b ===
  0x4b4b	nop    	dword ptr [eax + eax]
  0x4b50	mov    	ecx, eax
  0x4b52	test   	eax, eax
  0x4b54	jne    	0x4b76
  === BLOCK LINK ===
    0x4b56
=== CODE BLOCK END ===

=== CODE BLOCK ADDRESS 0x4b56 ===
  0x4b56	dec    	eax
  0x4b57	call   	dword ptr [0x66fb]
  === BLOCK LINK ===
    0x4b5d
=== CODE BLOCK END ===

=== CODE BLOCK ADDRESS 0x4b5d ===
  0x4b5d	nop    	dword ptr [eax + eax]
  0x4b62	mov    	ecx, eax
  0x4b64	xor    	edx, edx
  0x4b66	call   	0x7ea4
  === BLOCK LINK ===
    0x4b6b
=== CODE BLOCK END ===

=== CODE BLOCK ADDRESS 0x4b6b ===
  0x4b6b	mov    	ecx, 2
  0x4b70	call   	0x8378
  === BLOCK LINK ===
    0x4b75
=== CODE BLOCK END ===

=== CODE BLOCK ADDRESS 0x4b75 ===
  0x4b75	int3   	
  0x4b76	dec    	eax
  0x4b77	mov    	eax, dword ptr [ebp + 0x6f]
  0x4b7a	dec    	esp
  0x4b7b	lea    	eax, [0x6c87]
  === BLOCK LINK ===
    0x4b81
=== CODE BLOCK END ===

=== CODE BLOCK ADDRESS 0x4b81 ===
  0x4b81	mov    	edx, ebx
  0x4b83	sub    	edx, ecx
  0x4b85	dec    	eax
  0x4b86	lea    	ecx, [eax + ecx*2]
  0x4b89	dec    	eax
  === BLOCK LINK ===
    0x4b8a
=== CODE BLOCK END ===

=== CODE BLOCK ADDRESS 0x4b8a ===
  0x4b8a	call   	dword ptr [0x69b0]
  === BLOCK LINK ===
    0x4b90
=== CODE BLOCK END ===

=== CODE BLOCK ADDRESS 0x4b90 ===
  0x4b90	nop    	dword ptr [eax + eax]
  0x4b95	dec    	eax
  0x4b96	test   	esi, esi
  0x4b98	je     	0x4bb0
  === BLOCK LINK ===
    0x4b9a
=== CODE BLOCK END ===

=== CODE BLOCK ADDRESS 0x4b9a ===
  0x4b9a	dec    	eax
  0x4b9b	mov    	ecx, dword ptr [ebp + 0x6f]
  0x4b9e	dec    	esp
  0x4b9f	mov    	eax, esi
  0x4ba1	dec    	eax
  === BLOCK LINK ===
    0x4ba2
=== CODE BLOCK END ===

=== CODE BLOCK ADDRESS 0x4ba2 ===
  0x4ba2	arpl   	bx, dx
  0x4ba4	dec    	eax
  0x4ba5	call   	dword ptr [0x698d]
  === BLOCK LINK ===
    0x4bab
=== CODE BLOCK END ===

=== CODE BLOCK ADDRESS 0x4bab ===
  0x4bab	nop    	dword ptr [eax + eax]
  0x4bb0	dec    	eax
  0x4bb1	mov    	edx, dword ptr [ebp + 0x6f]
  0x4bb4	dec    	eax
  0x4bb5	lea    	eax, [ebp - 0x49]
  === BLOCK LINK ===
    0x4bb8
=== CODE BLOCK END ===

=== CODE BLOCK ADDRESS 0x4bb8 ===
  0x4bb8	dec    	eax
  0x4bb9	mov    	dword ptr [esp + 0x48], eax
  0x4bbd	inc    	ebp
  0x4bbe	xor    	ecx, ecx
  0x4bc0	dec    	eax
  === BLOCK LINK ===
    0x4bc1
=== CODE BLOCK END ===

=== CODE BLOCK ADDRESS 0x4bc1 ===
  0x4bc1	lea    	eax, [ebp - 0x29]
  0x4bc4	inc    	ebp
  0x4bc5	xor    	eax, eax
  0x4bc7	dec    	eax
  0x4bc8	mov    	dword ptr [esp + 0x40], eax
  === BLOCK LINK ===
    0x4bcc
=== CODE BLOCK END ===

=== CODE BLOCK ADDRESS 0x4bcc ===
  0x4bcc	xor    	ecx, ecx
  0x4bce	dec    	esp
  0x4bcf	mov    	dword ptr [esp + 0x38], esi
  0x4bd3	dec    	esp
  0x4bd4	mov    	dword ptr [esp + 0x30], esi
  === BLOCK LINK ===
    0x4bd8
=== CODE BLOCK END ===

=== CODE BLOCK ADDRESS 0x4bd8 ===
  0x4bd8	mov    	dword ptr [esp + 0x28], 0x20
  0x4be0	mov    	dword ptr [esp + 0x20], 1
  0x4be8	dec    	eax
  0x4be9	call   	dword ptr [0x6749]
  === BLOCK LINK ===
    0x4bef
=== CODE BLOCK END ===

=== CODE BLOCK ADDRESS 0x4bef ===
  0x4bef	nop    	dword ptr [eax + eax]
  0x4bf4	test   	eax, eax
  0x4bf6	jne    	0x4c18
  === BLOCK LINK ===
    0x4bf8
=== CODE BLOCK END ===

=== CODE BLOCK ADDRESS 0x4bf8 ===
  0x4bf8	dec    	eax
  0x4bf9	call   	dword ptr [0x6659]
  === BLOCK LINK ===
    0x4bff
=== CODE BLOCK END ===

=== CODE BLOCK ADDRESS 0x4bff ===
  0x4bff	nop    	dword ptr [eax + eax]
  0x4c04	mov    	ecx, eax
  0x4c06	xor    	edx, edx
  0x4c08	call   	0x7ea4
  === BLOCK LINK ===
    0x4c0d
=== CODE BLOCK END ===

=== CODE BLOCK ADDRESS 0x4c0d ===
  0x4c0d	mov    	ecx, 2
  0x4c12	call   	0x8378
  === BLOCK LINK ===
    0x4c17
=== CODE BLOCK END ===

=== CODE BLOCK ADDRESS 0x4c17 ===
  0x4c17	int3   	
  0x4c18	dec    	eax
  0x4c19	mov    	ecx, dword ptr [ebp - 0x41]
  0x4c1c	dec    	eax
  0x4c1d	call   	dword ptr [0x6665]
  === BLOCK LINK ===
    0x4c23
=== CODE BLOCK END ===

=== CODE BLOCK ADDRESS 0x4c23 ===
  0x4c23	nop    	dword ptr [eax + eax]
  0x4c28	dec    	eax
  0x4c29	mov    	ecx, dword ptr [ebp - 0x49]
  0x4c2c	or     	edx, 0xffffffff
  0x4c2f	dec    	eax
  === BLOCK LINK ===
    0x4c30
=== CODE BLOCK END ===

=== CODE BLOCK ADDRESS 0x4c30 ===
  0x4c30	call   	dword ptr [0x67a2]
  === BLOCK LINK ===
    0x4c36
=== CODE BLOCK END ===

=== CODE BLOCK ADDRESS 0x4c36 ===
  0x4c36	nop    	dword ptr [eax + eax]
  0x4c3b	dec    	eax
  0x4c3c	mov    	ecx, dword ptr [ebp - 0x49]
  0x4c3f	dec    	eax
  0x4c40	lea    	edx, [ebp + 0x67]
  === BLOCK LINK ===
    0x4c43
=== CODE BLOCK END ===

=== CODE BLOCK ADDRESS 0x4c43 ===
  0x4c43	dec    	eax
  0x4c44	call   	dword ptr [0x66fe]
  === BLOCK LINK ===
    0x4c4a
=== CODE BLOCK END ===

=== CODE BLOCK ADDRESS 0x4c4a ===
  0x4c4a	nop    	dword ptr [eax + eax]
  0x4c4f	dec    	eax
  0x4c50	mov    	ecx, dword ptr [ebp - 0x49]
  0x4c53	dec    	eax
  0x4c54	call   	dword ptr [0x662e]
  === BLOCK LINK ===
    0x4c5a
=== CODE BLOCK END ===

=== CODE BLOCK ADDRESS 0x4c5a ===
  0x4c5a	nop    	dword ptr [eax + eax]
  0x4c5f	mov    	ebx, dword ptr [ebp + 0x67]
  0x4c62	call   	0x2330
  === BLOCK LINK ===
    0x4c67
=== CODE BLOCK END ===

=== CODE BLOCK ADDRESS 0x4c67 ===
  0x4c67	mov    	ecx, ebx
  0x4c69	dec    	eax
  0x4c6a	call   	dword ptr [0x67b0]
  === BLOCK LINK ===
    0x4c70
=== CODE BLOCK END ===

=== CODE BLOCK ADDRESS 0x4c70 ===
  0x4c70	nop    	dword ptr [eax + eax]
  0x4c75	int3   	
  0x4c76	int3   	
  0x4c77	int3   	
  0x4c78	int3   	
  === BLOCK LINK ===
    0x4c79
=== CODE BLOCK END ===

=== CODE BLOCK ADDRESS 0x4c79 ===
  0x4c79	int3   	
  0x4c7a	int3   	
  0x4c7b	int3   	
  0x4c7c	dec    	eax
  0x4c7d	mov    	dword ptr [esp + 0x18], ebx
  === BLOCK LINK ===
    0x4c81
=== CODE BLOCK END ===

=== CODE BLOCK ADDRESS 0x4c81 ===
  0x4c81	push   	edi
  0x4c82	dec    	eax
  0x4c83	sub    	esp, 0x250
  0x4c89	dec    	eax
  0x4c8a	mov    	eax, dword ptr [0x95f8]
  === BLOCK LINK ===
    0x4c90
=== CODE BLOCK END ===

=== CODE BLOCK ADDRESS 0x4c90 ===
  0x4c90	dec    	eax
  0x4c91	xor    	eax, esp
  0x4c93	dec    	eax
  0x4c94	mov    	dword ptr [esp + 0x240], eax
  0x4c9b	mov    	dword ptr [esp + 0x20], 0x104
  === BLOCK LINK ===
    0x4ca3
=== CODE BLOCK END ===

=== CODE BLOCK ADDRESS 0x4ca3 ===
  0x4ca3	dec    	eax
  0x4ca4	mov    	ebx, edx
  0x4ca6	dec    	eax
  0x4ca7	mov    	edi, ecx
  0x4ca9	dec    	eax
  === BLOCK LINK ===
    0x4caa
=== CODE BLOCK END ===

=== CODE BLOCK ADDRESS 0x4caa ===
  0x4caa	test   	ecx, ecx
  0x4cac	je     	0x4db0
  === BLOCK LINK ===
    0x4cb2
=== CODE BLOCK END ===

=== CODE BLOCK ADDRESS 0x4cb2 ===
  0x4cb2	dec    	esp
  0x4cb3	lea    	eax, [esp + 0x20]
  0x4cb7	dec    	eax
  0x4cb8	lea    	edx, [esp + 0x30]
  0x4cbc	dec    	eax
  === BLOCK LINK ===
    0x4cbd
=== CODE BLOCK END ===

=== CODE BLOCK ADDRESS 0x4cbd ===
  0x4cbd	call   	dword ptr [0x64bd]
  === BLOCK LINK ===
    0x4cc3
=== CODE BLOCK END ===

=== CODE BLOCK ADDRESS 0x4cc3 ===
  0x4cc3	nop    	dword ptr [eax + eax]
  0x4cc8	test   	eax, eax
  0x4cca	jne    	0x4ce1
  === BLOCK LINK ===
    0x4ccc
=== CODE BLOCK END ===

=== CODE BLOCK ADDRESS 0x4ccc ===
  0x4ccc	xor    	edx, edx
  0x4cce	lea    	ecx, [eax + 0x55]
  0x4cd1	call   	0x7ea4
  === BLOCK LINK ===
    0x4cd6
=== CODE BLOCK END ===

=== CODE BLOCK ADDRESS 0x4cd6 ===
  0x4cd6	mov    	ecx, 2
  0x4cdb	call   	0x8378
  === BLOCK LINK ===
    0x4ce0
=== CODE BLOCK END ===

=== CODE BLOCK ADDRESS 0x4ce0 ===
  0x4ce0	int3   	
  0x4ce1	cmp    	eax, 0x4b1
  0x4ce6	jne    	0x4da9
  === BLOCK LINK ===
    0x4cec
=== CODE BLOCK END ===

=== CODE BLOCK ADDRESS 0x4cec ===
  0x4cec	dec    	eax
  0x4ced	mov    	edx, ebx
  0x4cef	dec    	eax
  0x4cf0	lea    	ecx, [esp + 0x30]
  0x4cf4	dec    	eax
  === BLOCK LINK ===
    0x4cf5
=== CODE BLOCK END ===

=== CODE BLOCK ADDRESS 0x4cf5 ===
  0x4cf5	call   	dword ptr [0x673d]
  === BLOCK LINK ===
    0x4cfb
=== CODE BLOCK END ===

=== CODE BLOCK ADDRESS 0x4cfb ===
  0x4cfb	nop    	dword ptr [eax + eax]
  0x4d00	test   	eax, eax
  0x4d02	je     	0x4db0
  === BLOCK LINK ===
    0x4d08
=== CODE BLOCK END ===

=== CODE BLOCK ADDRESS 0x4d08 ===
  0x4d08	mov    	eax, dword ptr [0x144b2]
  0x4d0e	mov    	ebx, 2
  0x4d13	cmp    	eax, ebx
  0x4d15	jne    	0x4d3e
  === BLOCK LINK ===
    0x4d17
=== CODE BLOCK END ===

=== CODE BLOCK ADDRESS 0x4d17 ===
  0x4d17	dec    	eax
  0x4d18	lea    	eax, [esp + 0x30]
  0x4d1c	dec    	eax
  0x4d1d	mov    	dword ptr [0x116fd], edi
  0x4d23	mov    	edx, ebx
  === BLOCK LINK ===
    0x4d25
=== CODE BLOCK END ===

=== CODE BLOCK ADDRESS 0x4d25 ===
  0x4d25	dec    	eax
  0x4d26	mov    	dword ptr [0x116fc], eax
  0x4d2c	mov    	ecx, 0xe6f
  0x4d31	call   	0x7ea4
  === BLOCK LINK ===
    0x4d36
=== CODE BLOCK END ===

=== CODE BLOCK ADDRESS 0x4d36 ===
  0x4d36	mov    	ecx, ebx
  0x4d38	call   	0x8378
  === BLOCK LINK ===
    0x4d3d
=== CODE BLOCK END ===

=== CODE BLOCK ADDRESS 0x4d3d ===
  0x4d3d	int3   	
  0x4d3e	test   	eax, eax
  0x4d40	jne    	0x4d7b
  === BLOCK LINK ===
    0x4d42
=== CODE BLOCK END ===

=== CODE BLOCK ADDRESS 0x4d42 ===
  0x4d42	dec    	eax
  0x4d43	lea    	eax, [esp + 0x30]
  0x4d47	dec    	eax
  0x4d48	mov    	dword ptr [0x116d2], edi
  0x4d4e	inc    	ecx
  === BLOCK LINK ===
    0x4d4f
=== CODE BLOCK END ===

=== CODE BLOCK ADDRESS 0x4d4f ===
  0x4d4f	mov    	ecx, 1
  0x4d54	dec    	eax
  0x4d55	mov    	dword ptr [0x116cd], eax
  0x4d5b	inc    	ecx
  0x4d5c	mov    	eax, 0x14a1
  === BLOCK LINK ===
    0x4d61
=== CODE BLOCK END ===

=== CODE BLOCK ADDRESS 0x4d61 ===
  0x4d61	dec    	eax
  0x4d62	lea    	ecx, [0x116b8]
  0x4d68	mov    	edx, ebx
  0x4d6a	call   	0x9228
  === BLOCK LINK ===
    0x4d6f
=== CODE BLOCK END ===

=== CODE BLOCK ADDRESS 0x4d6f ===
  0x4d6f	test   	eax, eax
  0x4d71	jne    	0x4d7b
  === BLOCK LINK ===
    0x4d73
=== CODE BLOCK END ===

=== CODE BLOCK ADDRESS 0x4d73 ===
  0x4d73	mov    	ecx, ebx
  0x4d75	call   	0x8378
  === BLOCK LINK ===
    0x4d7a
=== CODE BLOCK END ===

=== CODE BLOCK ADDRESS 0x4d7a ===
  0x4d7a	int3   	
  0x4d7b	inc    	ebp
  0x4d7c	xor    	eax, eax
  0x4d7e	dec    	eax
  0x4d7f	mov    	ecx, edi
  === BLOCK LINK ===
    0x4d81
=== CODE BLOCK END ===

=== CODE BLOCK ADDRESS 0x4d81 ===
  0x4d81	inc    	ecx
  0x4d82	lea    	edx, [eax + 1]
  0x4d85	dec    	eax
  0x4d86	call   	dword ptr [0x640c]
  === BLOCK LINK ===
    0x4d8c
=== CODE BLOCK END ===

=== CODE BLOCK ADDRESS 0x4d8c ===
  0x4d8c	nop    	dword ptr [eax + eax]
  0x4d91	test   	eax, eax
  0x4d93	je     	0x4da9
  === BLOCK LINK ===
    0x4d95
=== CODE BLOCK END ===

=== CODE BLOCK ADDRESS 0x4d95 ===
  0x4d95	xor    	edx, edx
  0x4d97	mov    	ecx, 0xe5e
  0x4d9c	call   	0x7ea4
  === BLOCK LINK ===
    0x4da1
=== CODE BLOCK END ===

=== CODE BLOCK ADDRESS 0x4da1 ===
  0x4da1	mov    	ecx, ebx
  0x4da3	call   	0x8378
  === BLOCK LINK ===
    0x4da8
=== CODE BLOCK END ===

=== CODE BLOCK ADDRESS 0x4da8 ===
  0x4da8	int3   	
  0x4da9	mov    	eax, 1
  0x4dae	jmp    	0x4db2
  === BLOCK LINK ===
    0x4db0
=== CODE BLOCK END ===

=== CODE BLOCK ADDRESS 0x4db0 ===
  0x4db0	xor    	eax, eax
  0x4db2	dec    	eax
  0x4db3	mov    	ecx, dword ptr [esp + 0x240]
  0x4dba	dec    	eax
  0x4dbb	xor    	ecx, esp
  === BLOCK LINK ===
    0x4dbd
=== CODE BLOCK END ===

=== CODE BLOCK ADDRESS 0x4dbd ===
  0x4dbd	call   	0x2900
  === BLOCK LINK ===
    0x4dc2
=== CODE BLOCK END ===

=== CODE BLOCK ADDRESS 0x4dc2 ===
  0x4dc2	dec    	eax
  0x4dc3	mov    	ebx, dword ptr [esp + 0x270]
  0x4dca	dec    	eax
  0x4dcb	add    	esp, 0x250
  0x4dd1	pop    	edi
  === BLOCK LINK ===
    0x4dd2
=== CODE BLOCK END ===

=== CODE BLOCK ADDRESS 0x4dd2 ===
  0x4dd2	ret    	
  0x4dd3	int3   	
  0x4dd4	int3   	
  0x4dd5	int3   	
  0x4dd6	int3   	
  === BLOCK LINK ===
    0x4dd7
=== CODE BLOCK END ===

=== CODE BLOCK ADDRESS 0x4dd7 ===
  0x4dd7	int3   	
  0x4dd8	int3   	
  0x4dd9	int3   	
  0x4dda	int3   	
  0x4ddb	int3   	
  === BLOCK LINK ===
    0x4ddc
=== CODE BLOCK END ===

=== CODE BLOCK ADDRESS 0x4ddc ===
  0x4ddc	int3   	
  0x4ddd	int3   	
  0x4dde	int3   	
  0x4ddf	int3   	
  0x4de0	dec    	esp
  === BLOCK LINK ===
    0x4de1
=== CODE BLOCK END ===

=== CODE BLOCK ADDRESS 0x4de1 ===
  0x4de1	mov    	ecx, dword ptr [ecx]
  0x4de3	dec    	esp
  0x4de4	mov    	eax, ecx
  0x4de6	dec    	esp
  0x4de7	mov    	edx, dword ptr [edx]
  === BLOCK LINK ===
    0x4de9
=== CODE BLOCK END ===

=== CODE BLOCK ADDRESS 0x4de9 ===
  0x4de9	inc    	ecx
  0x4dea	movzx  	eax, word ptr [ecx]
  0x4ded	test   	ax, ax
  0x4df0	je     	0x4dfe
  === BLOCK LINK ===
    0x4df2
=== CODE BLOCK END ===

=== CODE BLOCK ADDRESS 0x4df2 ===
  0x4df2	inc    	cx
  0x4df4	cmp    	dword ptr [edx], 0
  0x4df7	jne    	0x4e05
  === BLOCK LINK ===
    0x4df9
=== CODE BLOCK END ===

=== CODE BLOCK ADDRESS 0x4df9 ===
  0x4df9	or     	eax, 0xffffffff
  0x4dfc	ret    	
  0x4dfd	int3   	
  0x4dfe	inc    	cx
  0x4e00	cmp    	dword ptr [edx], 0
  === BLOCK LINK ===
    0x4e03
=== CODE BLOCK END ===

=== CODE BLOCK ADDRESS 0x4e03 ===
  0x4e03	je     	0x4e11
  === BLOCK LINK ===
    0x4e05
=== CODE BLOCK END ===

=== CODE BLOCK ADDRESS 0x4e05 ===
  0x4e05	test   	ax, ax
  0x4e08	jne    	0x4e11
  === BLOCK LINK ===
    0x4e0a
=== CODE BLOCK END ===

=== CODE BLOCK ADDRESS 0x4e0a ===
  0x4e0a	mov    	eax, 1
  0x4e0f	ret    	
  0x4e10	int3   	
  0x4e11	mov    	ecx, dword ptr [edx + 0x18]
  0x4e14	inc    	ecx
  === BLOCK LINK ===
    0x4e15
=== CODE BLOCK END ===

=== CODE BLOCK ADDRESS 0x4e15 ===
  0x4e15	cmp    	dword ptr [eax + 0x18], ecx
  0x4e18	je     	0x4e23
  === BLOCK LINK ===
    0x4e1a
=== CODE BLOCK END ===

=== CODE BLOCK ADDRESS 0x4e1a ===
  0x4e1a	sbb    	eax, eax
  0x4e1c	and    	eax, 0xfffffffe
  0x4e1f	inc    	eax
  0x4e21	ret    	
  0x4e22	int3   	
  === BLOCK LINK ===
    0x4e23
=== CODE BLOCK END ===

=== CODE BLOCK ADDRESS 0x4e23 ===
  0x4e23	test   	ax, ax
  0x4e26	je     	0x4e30
  === BLOCK LINK ===
    0x4e28
=== CODE BLOCK END ===

=== CODE BLOCK ADDRESS 0x4e28 ===
  0x4e28	dec    	ecx
  0x4e29	mov    	edx, edx
  0x4e2b	dec    	ecx
  0x4e2c	mov    	ecx, ecx
  0x4e2e	jmp    	0x4e38
  === BLOCK LINK ===
    0x4e30
=== CODE BLOCK END ===

=== CODE BLOCK ADDRESS 0x4e30 ===
  0x4e30	dec    	eax
  0x4e31	mov    	edx, dword ptr [edx + 8]
  0x4e34	dec    	ecx
  0x4e35	mov    	ecx, dword ptr [eax + 8]
  0x4e38	dec    	eax
  === BLOCK LINK ===
    0x4e39
=== CODE BLOCK END ===

=== CODE BLOCK ADDRESS 0x4e39 ===
  0x4e39	jmp    	dword ptr [0x65f9]
  === BLOCK LINK ===
    0x4e3f
=== CODE BLOCK END ===

=== CODE BLOCK ADDRESS 0x4e3f ===
  0x4e3f	int3   	
  0x4e40	int3   	
  0x4e41	int3   	
  0x4e42	int3   	
  0x4e43	int3   	
  === BLOCK LINK ===
    0x4e44
=== CODE BLOCK END ===

=== CODE BLOCK ADDRESS 0x4e44 ===
  0x4e44	int3   	
  0x4e45	int3   	
  0x4e46	int3   	
  0x4e47	int3   	
  0x4e48	int3   	
  === BLOCK LINK ===
    0x4e49
=== CODE BLOCK END ===

=== CODE BLOCK ADDRESS 0x4e49 ===
  0x4e49	int3   	
  0x4e4a	int3   	
  0x4e4b	int3   	
  0x4e4c	inc    	eax
  0x4e4d	push   	ebp
  === BLOCK LINK ===
    0x4e4e
=== CODE BLOCK END ===

=== CODE BLOCK ADDRESS 0x4e4e ===
  0x4e4e	push   	ebx
  0x4e4f	dec    	eax
  0x4e50	mov    	ebp, esp
  0x4e52	dec    	eax
  0x4e53	sub    	esp, 0x38
  === BLOCK LINK ===
    0x4e56
=== CODE BLOCK END ===

=== CODE BLOCK ADDRESS 0x4e56 ===
  0x4e56	mov    	ecx, 0x200
  0x4e5b	dec    	eax
  0x4e5c	lea    	edx, [ebp + 0x28]
  0x4e5f	mov    	ebx, 1
  0x4e64	mov    	dword ptr [ebp + 0x18], ecx
  === BLOCK LINK ===
    0x4e67
=== CODE BLOCK END ===

=== CODE BLOCK ADDRESS 0x4e67 ===
  0x4e67	mov    	dword ptr [ebp + 0x20], ebx
  0x4e6a	dec    	eax
  0x4e6b	call   	dword ptr [0x674f]
  === BLOCK LINK ===
    0x4e71
=== CODE BLOCK END ===

=== CODE BLOCK ADDRESS 0x4e71 ===
  0x4e71	nop    	dword ptr [eax + eax]
  0x4e76	test   	eax, eax
  0x4e78	je     	0x4e8c
  === BLOCK LINK ===
    0x4e7a
=== CODE BLOCK END ===

=== CODE BLOCK ADDRESS 0x4e7a ===
  0x4e7a	xor    	edx, edx
  0x4e7c	mov    	ecx, eax
  0x4e7e	call   	0x7ea4
  === BLOCK LINK ===
    0x4e83
=== CODE BLOCK END ===

=== CODE BLOCK ADDRESS 0x4e83 ===
  0x4e83	lea    	ecx, [ebx + 1]
  0x4e86	call   	0x8378
  === BLOCK LINK ===
    0x4e8b
=== CODE BLOCK END ===

=== CODE BLOCK ADDRESS 0x4e8b ===
  0x4e8b	int3   	
  0x4e8c	dec    	eax
  0x4e8d	lea    	eax, [ebp + 0x30]
  0x4e90	inc    	esp
  0x4e91	mov    	ecx, ebx
  === BLOCK LINK ===
    0x4e93
=== CODE BLOCK END ===

=== CODE BLOCK ADDRESS 0x4e93 ===
  0x4e93	inc    	ebp
  0x4e94	xor    	eax, eax
  0x4e96	dec    	eax
  0x4e97	mov    	dword ptr [esp + 0x20], eax
  0x4e9b	dec    	eax
  === BLOCK LINK ===
    0x4e9c
=== CODE BLOCK END ===

=== CODE BLOCK ADDRESS 0x4e9c ===
  0x4e9c	lea    	edx, [0x68de]
  0x4ea2	dec    	eax
  0x4ea3	mov    	ecx, 0x80000002
  0x4ea9	dec    	eax
  0x4eaa	call   	dword ptr [0x64b8]
  === BLOCK LINK ===
    0x4eb0
=== CODE BLOCK END ===

=== CODE BLOCK ADDRESS 0x4eb0 ===
  0x4eb0	nop    	dword ptr [eax + eax]
  0x4eb5	test   	eax, eax
  0x4eb7	je     	0x4ed0
  === BLOCK LINK ===
    0x4eb9
=== CODE BLOCK END ===

=== CODE BLOCK ADDRESS 0x4eb9 ===
  0x4eb9	dec    	eax
  0x4eba	mov    	ecx, dword ptr [ebp + 0x28]
  0x4ebd	dec    	eax
  0x4ebe	call   	dword ptr [0x66f4]
  === BLOCK LINK ===
    0x4ec4
=== CODE BLOCK END ===

=== CODE BLOCK ADDRESS 0x4ec4 ===
  0x4ec4	nop    	dword ptr [eax + eax]
  0x4ec9	xor    	eax, eax
  0x4ecb	jmp    	0x4f94
  === BLOCK LINK ===
    0x4ed0
=== CODE BLOCK END ===

=== CODE BLOCK ADDRESS 0x4ed0 ===
  0x4ed0	dec    	eax
  0x4ed1	mov    	ecx, dword ptr [ebp + 0x30]
  0x4ed4	dec    	eax
  0x4ed5	lea    	eax, [ebp + 0x18]
  0x4ed8	dec    	eax
  === BLOCK LINK ===
    0x4ed9
=== CODE BLOCK END ===

=== CODE BLOCK ADDRESS 0x4ed9 ===
  0x4ed9	mov    	dword ptr [esp + 0x28], eax
  0x4edd	dec    	esp
  0x4ede	lea    	ecx, [ebp + 0x20]
  0x4ee1	dec    	eax
  0x4ee2	mov    	eax, dword ptr [ebp + 0x28]
  === BLOCK LINK ===
    0x4ee5
=== CODE BLOCK END ===

=== CODE BLOCK ADDRESS 0x4ee5 ===
  0x4ee5	dec    	eax
  0x4ee6	lea    	edx, [0x687c]
  0x4eec	inc    	ebp
  0x4eed	xor    	eax, eax
  0x4eef	dec    	eax
  === BLOCK LINK ===
    0x4ef0
=== CODE BLOCK END ===

=== CODE BLOCK ADDRESS 0x4ef0 ===
  0x4ef0	mov    	dword ptr [esp + 0x20], eax
  0x4ef4	dec    	eax
  0x4ef5	call   	dword ptr [0x647d]
  === BLOCK LINK ===
    0x4efb
=== CODE BLOCK END ===

=== CODE BLOCK ADDRESS 0x4efb ===
  0x4efb	nop    	dword ptr [eax + eax]
  0x4f00	mov    	ebx, eax
  0x4f02	cmp    	eax, 0xea
  0x4f07	jne    	0x4f78
  === BLOCK LINK ===
    0x4f09
=== CODE BLOCK END ===

=== CODE BLOCK ADDRESS 0x4f09 ===
  0x4f09	mov    	edx, dword ptr [ebp + 0x18]
  0x4f0c	dec    	esp
  0x4f0d	lea    	eax, [ebp + 0x28]
  0x4f10	dec    	eax
  0x4f11	mov    	ecx, dword ptr [ebp + 0x28]
  === BLOCK LINK ===
    0x4f14
=== CODE BLOCK END ===

=== CODE BLOCK ADDRESS 0x4f14 ===
  0x4f14	dec    	eax
  0x4f15	call   	dword ptr [0x6695]
  === BLOCK LINK ===
    0x4f1b
=== CODE BLOCK END ===

=== CODE BLOCK ADDRESS 0x4f1b ===
  0x4f1b	nop    	dword ptr [eax + eax]
  0x4f20	dec    	eax
  0x4f21	mov    	ecx, dword ptr [ebp + 0x30]
  0x4f24	mov    	ebx, eax
  0x4f26	test   	eax, eax
  === BLOCK LINK ===
    0x4f28
=== CODE BLOCK END ===

=== CODE BLOCK ADDRESS 0x4f28 ===
  0x4f28	je     	0x4f4a
  === BLOCK LINK ===
    0x4f2a
=== CODE BLOCK END ===

=== CODE BLOCK ADDRESS 0x4f2a ===
  0x4f2a	dec    	eax
  0x4f2b	call   	dword ptr [0x644f]
  === BLOCK LINK ===
    0x4f31
=== CODE BLOCK END ===

=== CODE BLOCK ADDRESS 0x4f31 ===
  0x4f31	nop    	dword ptr [eax + eax]
  0x4f36	xor    	edx, edx
  0x4f38	mov    	ecx, ebx
  0x4f3a	call   	0x7ea4
  === BLOCK LINK ===
    0x4f3f
=== CODE BLOCK END ===

=== CODE BLOCK ADDRESS 0x4f3f ===
  0x4f3f	mov    	ecx, 2
  0x4f44	call   	0x8378
  === BLOCK LINK ===
    0x4f49
=== CODE BLOCK END ===

=== CODE BLOCK ADDRESS 0x4f49 ===
  0x4f49	int3   	
  0x4f4a	dec    	eax
  0x4f4b	lea    	eax, [ebp + 0x18]
  0x4f4e	inc    	ebp
  0x4f4f	xor    	eax, eax
  === BLOCK LINK ===
    0x4f51
=== CODE BLOCK END ===

=== CODE BLOCK ADDRESS 0x4f51 ===
  0x4f51	dec    	eax
  0x4f52	mov    	dword ptr [esp + 0x28], eax
  0x4f56	dec    	esp
  0x4f57	lea    	ecx, [ebp + 0x20]
  0x4f5a	dec    	eax
  === BLOCK LINK ===
    0x4f5b
=== CODE BLOCK END ===

=== CODE BLOCK ADDRESS 0x4f5b ===
  0x4f5b	mov    	eax, dword ptr [ebp + 0x28]
  0x4f5e	dec    	eax
  0x4f5f	lea    	edx, [0x6803]
  0x4f65	dec    	eax
  0x4f66	mov    	dword ptr [esp + 0x20], eax
  === BLOCK LINK ===
    0x4f6a
=== CODE BLOCK END ===

=== CODE BLOCK ADDRESS 0x4f6a ===
  0x4f6a	dec    	eax
  0x4f6b	call   	dword ptr [0x6407]
  === BLOCK LINK ===
    0x4f71
=== CODE BLOCK END ===

=== CODE BLOCK ADDRESS 0x4f71 ===
  0x4f71	nop    	dword ptr [eax + eax]
  0x4f76	mov    	ebx, eax
  0x4f78	dec    	eax
  0x4f79	mov    	ecx, dword ptr [ebp + 0x30]
  0x4f7c	dec    	eax
  === BLOCK LINK ===
    0x4f7d
=== CODE BLOCK END ===

=== CODE BLOCK ADDRESS 0x4f7d ===
  0x4f7d	call   	dword ptr [0x63fd]
  === BLOCK LINK ===
    0x4f83
=== CODE BLOCK END ===

=== CODE BLOCK ADDRESS 0x4f83 ===
  0x4f83	nop    	dword ptr [eax + eax]
  0x4f88	test   	ebx, ebx
  0x4f8a	jne    	0x4eb9
  === BLOCK LINK ===
    0x4f90
=== CODE BLOCK END ===

=== CODE BLOCK ADDRESS 0x4f90 ===
  0x4f90	dec    	eax
  0x4f91	mov    	eax, dword ptr [ebp + 0x28]
  0x4f94	dec    	eax
  0x4f95	add    	esp, 0x38
  0x4f98	pop    	ebx
  === BLOCK LINK ===
    0x4f99
=== CODE BLOCK END ===

=== CODE BLOCK ADDRESS 0x4f99 ===
  0x4f99	pop    	ebp
  0x4f9a	ret    	
  0x4f9b	int3   	
  0x4f9c	int3   	
  0x4f9d	int3   	
  === BLOCK LINK ===
    0x4f9e
=== CODE BLOCK END ===

=== CODE BLOCK ADDRESS 0x4f9e ===
  0x4f9e	int3   	
  0x4f9f	int3   	
  0x4fa0	int3   	
  0x4fa1	int3   	
  0x4fa2	int3   	
  === BLOCK LINK ===
    0x4fa3
=== CODE BLOCK END ===

=== CODE BLOCK ADDRESS 0x4fa3 ===
  0x4fa3	int3   	
  0x4fa4	dec    	eax
  0x4fa5	mov    	dword ptr [esp + 0x10], ebx
  0x4fa9	dec    	eax
  0x4faa	mov    	dword ptr [esp + 0x18], ebp
  === BLOCK LINK ===
    0x4fae
=== CODE BLOCK END ===

=== CODE BLOCK ADDRESS 0x4fae ===
  0x4fae	dec    	eax
  0x4faf	mov    	dword ptr [esp + 0x20], esi
  0x4fb3	push   	edi
  0x4fb4	dec    	eax
  0x4fb5	sub    	esp, 0x30
  === BLOCK LINK ===
    0x4fb8
=== CODE BLOCK END ===

=== CODE BLOCK ADDRESS 0x4fb8 ===
  0x4fb8	mov    	eax, dword ptr [ecx + 0x1c]
  0x4fbb	mov    	edx, 0x10e1
  0x4fc0	inc    	esp
  0x4fc1	mov    	eax, edx
  0x4fc3	dec    	eax
  === BLOCK LINK ===
    0x4fc4
=== CODE BLOCK END ===

=== CODE BLOCK ADDRESS 0x4fc4 ===
  0x4fc4	mov    	edi, ecx
  0x4fc6	test   	eax, eax
  0x4fc8	je     	0x4ff1
  === BLOCK LINK ===
    0x4fca
=== CODE BLOCK END ===

=== CODE BLOCK ADDRESS 0x4fca ===
  0x4fca	sub    	eax, 1
  0x4fcd	je     	0x4fe9
  === BLOCK LINK ===
    0x4fcf
=== CODE BLOCK END ===

=== CODE BLOCK ADDRESS 0x4fcf ===
  0x4fcf	sub    	eax, 1
  0x4fd2	je     	0x4fe1
  === BLOCK LINK ===
    0x4fd4
=== CODE BLOCK END ===

=== CODE BLOCK ADDRESS 0x4fd4 ===
  0x4fd4	cmp    	eax, 1
  0x4fd7	jne    	0x4ff7
  === BLOCK LINK ===
    0x4fd9
=== CODE BLOCK END ===

=== CODE BLOCK ADDRESS 0x4fd9 ===
  0x4fd9	inc    	ecx
  0x4fda	mov    	eax, 0x1269
  0x4fdf	jmp    	0x4ff7
  === BLOCK LINK ===
    0x4fe1
=== CODE BLOCK END ===

=== CODE BLOCK ADDRESS 0x4fe1 ===
  0x4fe1	inc    	ecx
  0x4fe2	mov    	eax, 0x1268
  0x4fe7	jmp    	0x4ff7
  === BLOCK LINK ===
    0x4fe9
=== CODE BLOCK END ===

=== CODE BLOCK ADDRESS 0x4fe9 ===
  0x4fe9	inc    	ecx
  0x4fea	mov    	eax, 0x1267
  0x4fef	jmp    	0x4ff7
  === BLOCK LINK ===
    0x4ff1
=== CODE BLOCK END ===

=== CODE BLOCK ADDRESS 0x4ff1 ===
  0x4ff1	inc    	ecx
  0x4ff2	mov    	eax, 0x1266
  0x4ff7	inc    	esp
  0x4ff8	mov    	dword ptr [0x9402], eax
  0x4ffe	mov    	eax, dword ptr [ecx + 0x18]
  === BLOCK LINK ===
    0x5001
=== CODE BLOCK END ===

=== CODE BLOCK ADDRESS 0x5001 ===
  0x5001	test   	eax, eax
  0x5003	je     	0x5041
  === BLOCK LINK ===
    0x5005
=== CODE BLOCK END ===

=== CODE BLOCK ADDRESS 0x5005 ===
  0x5005	sub    	eax, 1
  0x5008	je     	0x503a
  === BLOCK LINK ===
    0x500a
=== CODE BLOCK END ===

=== CODE BLOCK ADDRESS 0x500a ===
  0x500a	sub    	eax, 1
  0x500d	je     	0x5033
  === BLOCK LINK ===
    0x500f
=== CODE BLOCK END ===

=== CODE BLOCK ADDRESS 0x500f ===
  0x500f	sub    	eax, 1
  0x5012	je     	0x502c
  === BLOCK LINK ===
    0x5014
=== CODE BLOCK END ===

=== CODE BLOCK ADDRESS 0x5014 ===
  0x5014	sub    	eax, 1
  0x5017	je     	0x5025
  === BLOCK LINK ===
    0x5019
=== CODE BLOCK END ===

=== CODE BLOCK ADDRESS 0x5019 ===
  0x5019	cmp    	eax, 1
  0x501c	jne    	0x5046
  === BLOCK LINK ===
    0x501e
=== CODE BLOCK END ===

=== CODE BLOCK ADDRESS 0x501e ===
  0x501e	mov    	edx, 0x1271
  0x5023	jmp    	0x5046
  === BLOCK LINK ===
    0x5025
=== CODE BLOCK END ===

=== CODE BLOCK ADDRESS 0x5025 ===
  0x5025	mov    	edx, 0x1270
  0x502a	jmp    	0x5046
  === BLOCK LINK ===
    0x502c
=== CODE BLOCK END ===

=== CODE BLOCK ADDRESS 0x502c ===
  0x502c	mov    	edx, 0x126f
  0x5031	jmp    	0x5046
  === BLOCK LINK ===
    0x5033
=== CODE BLOCK END ===

=== CODE BLOCK ADDRESS 0x5033 ===
  0x5033	mov    	edx, 0x126e
  0x5038	jmp    	0x5046
  === BLOCK LINK ===
    0x503a
=== CODE BLOCK END ===

=== CODE BLOCK ADDRESS 0x503a ===
  0x503a	mov    	edx, 0x126d
  0x503f	jmp    	0x5046
  === BLOCK LINK ===
    0x5041
=== CODE BLOCK END ===

=== CODE BLOCK ADDRESS 0x5041 ===
  0x5041	mov    	edx, 0x126b
  0x5046	mov    	dword ptr [0x93d4], edx
  0x504c	dec    	esp
  0x504d	lea    	eax, [esp + 0x40]
  0x5051	dec    	eax
  === BLOCK LINK ===
    0x5052
=== CODE BLOCK END ===

=== CODE BLOCK ADDRESS 0x5052 ===
  0x5052	lea    	edx, [0x9378]
  0x5058	mov    	ecx, 8
  0x505d	call   	0x7fc0
  === BLOCK LINK ===
    0x5062
=== CODE BLOCK END ===

=== CODE BLOCK ADDRESS 0x5062 ===
  0x5062	mov    	ebx, dword ptr [esp + 0x40]
  0x5066	dec    	eax
  0x5067	lea    	esi, [0xa2f3]
  0x506d	dec    	eax
  0x506e	mov    	edx, dword ptr [0x9364]
  === BLOCK LINK ===
    0x5074
=== CODE BLOCK END ===

=== CODE BLOCK ADDRESS 0x5074 ===
  0x5074	add    	ebx, 5
  0x5077	mov    	ebp, 0x1000
  0x507c	mov    	ecx, ebx
  0x507e	inc    	esp
  0x507f	mov    	ecx, ebp
  === BLOCK LINK ===
    0x5081
=== CODE BLOCK END ===

=== CODE BLOCK ADDRESS 0x5081 ===
  0x5081	dec    	esp
  0x5082	mov    	eax, esi
  0x5084	call   	0x8438
  === BLOCK LINK ===
    0x5089
=== CODE BLOCK END ===

=== CODE BLOCK ADDRESS 0x5089 ===
  0x5089	dec    	eax
  0x508a	mov    	ecx, dword ptr [edi]
  0x508c	dec    	esp
  0x508d	mov    	ecx, eax
  0x508f	dec    	eax
  === BLOCK LINK ===
    0x5090
=== CODE BLOCK END ===

=== CODE BLOCK ADDRESS 0x5090 ===
  0x5090	mov    	dword ptr [esp + 0x20], ecx
  0x5094	inc    	esp
  0x5095	mov    	eax, ebx
  0x5097	dec    	eax
  0x5098	lea    	ecx, [0x6e2a]
  === BLOCK LINK ===
    0x509e
=== CODE BLOCK END ===

=== CODE BLOCK ADDRESS 0x509e ===
  0x509e	xor    	edx, edx
  0x50a0	call   	0x86c8
  === BLOCK LINK ===
    0x50a5
=== CODE BLOCK END ===

=== CODE BLOCK ADDRESS 0x50a5 ===
  0x50a5	dec    	eax
  0x50a6	mov    	edx, dword ptr [0x933c]
  0x50ac	inc    	esp
  0x50ad	mov    	ecx, ebp
  0x50af	dec    	esp
  === BLOCK LINK ===
    0x50b0
=== CODE BLOCK END ===

=== CODE BLOCK ADDRESS 0x50b0 ===
  0x50b0	mov    	eax, esi
  0x50b2	mov    	ecx, ebx
  0x50b4	call   	0x8438
  === BLOCK LINK ===
    0x50b9
=== CODE BLOCK END ===

=== CODE BLOCK ADDRESS 0x50b9 ===
  0x50b9	dec    	eax
  0x50ba	mov    	edx, dword ptr [edi + 8]
  0x50bd	dec    	eax
  0x50be	lea    	ecx, [0x6e04]
  0x50c4	dec    	eax
  === BLOCK LINK ===
    0x50c5
=== CODE BLOCK END ===

=== CODE BLOCK ADDRESS 0x50c5 ===
  0x50c5	mov    	dword ptr [esp + 0x20], edx
  0x50c9	dec    	esp
  0x50ca	mov    	ecx, eax
  0x50cc	xor    	edx, edx
  0x50ce	inc    	esp
  === BLOCK LINK ===
    0x50cf
=== CODE BLOCK END ===

=== CODE BLOCK ADDRESS 0x50cf ===
  0x50cf	mov    	eax, ebx
  0x50d1	call   	0x86c8
  === BLOCK LINK ===
    0x50d6
=== CODE BLOCK END ===

=== CODE BLOCK ADDRESS 0x50d6 ===
  0x50d6	dec    	eax
  0x50d7	mov    	edx, dword ptr [0x931b]
  0x50dd	inc    	esp
  0x50de	mov    	ecx, ebp
  0x50e0	dec    	esp
  === BLOCK LINK ===
    0x50e1
=== CODE BLOCK END ===

=== CODE BLOCK ADDRESS 0x50e1 ===
  0x50e1	mov    	eax, esi
  0x50e3	mov    	ecx, ebx
  0x50e5	call   	0x8438
  === BLOCK LINK ===
    0x50ea
=== CODE BLOCK END ===

=== CODE BLOCK ADDRESS 0x50ea ===
  0x50ea	dec    	eax
  0x50eb	mov    	ecx, dword ptr [0x9317]
  0x50f1	dec    	esp
  0x50f2	mov    	ecx, eax
  0x50f4	dec    	eax
  === BLOCK LINK ===
    0x50f5
=== CODE BLOCK END ===

=== CODE BLOCK ADDRESS 0x50f5 ===
  0x50f5	mov    	dword ptr [esp + 0x20], ecx
  0x50f9	inc    	esp
  0x50fa	mov    	eax, ebx
  0x50fc	dec    	eax
  0x50fd	lea    	ecx, [0x6de5]
  === BLOCK LINK ===
    0x5103
=== CODE BLOCK END ===

=== CODE BLOCK ADDRESS 0x5103 ===
  0x5103	xor    	edx, edx
  0x5105	call   	0x86c8
  === BLOCK LINK ===
    0x510a
=== CODE BLOCK END ===

=== CODE BLOCK ADDRESS 0x510a ===
  0x510a	dec    	eax
  0x510b	mov    	edx, dword ptr [0x9307]
  0x5111	inc    	esp
  0x5112	mov    	ecx, ebp
  0x5114	dec    	esp
  === BLOCK LINK ===
    0x5115
=== CODE BLOCK END ===

=== CODE BLOCK ADDRESS 0x5115 ===
  0x5115	mov    	eax, esi
  0x5117	mov    	ecx, ebx
  0x5119	call   	0x8438
  === BLOCK LINK ===
    0x511e
=== CODE BLOCK END ===

=== CODE BLOCK ADDRESS 0x511e ===
  0x511e	dec    	eax
  0x511f	mov    	edx, dword ptr [0x9303]
  0x5125	dec    	eax
  0x5126	lea    	ecx, [0x6dbc]
  0x512c	dec    	eax
  === BLOCK LINK ===
    0x512d
=== CODE BLOCK END ===

=== CODE BLOCK ADDRESS 0x512d ===
  0x512d	mov    	dword ptr [esp + 0x20], edx
  0x5131	dec    	esp
  0x5132	mov    	ecx, eax
  0x5134	xor    	edx, edx
  0x5136	inc    	esp
  === BLOCK LINK ===
    0x5137
=== CODE BLOCK END ===

=== CODE BLOCK ADDRESS 0x5137 ===
  0x5137	mov    	eax, ebx
  0x5139	call   	0x86c8
  === BLOCK LINK ===
    0x513e
=== CODE BLOCK END ===

=== CODE BLOCK ADDRESS 0x513e ===
  0x513e	dec    	eax
  0x513f	mov    	edx, dword ptr [0x92f3]
  0x5145	inc    	esp
  0x5146	mov    	ecx, ebp
  0x5148	dec    	esp
  === BLOCK LINK ===
    0x5149
=== CODE BLOCK END ===

=== CODE BLOCK ADDRESS 0x5149 ===
  0x5149	mov    	eax, esi
  0x514b	mov    	ecx, ebx
  0x514d	call   	0x8438
  === BLOCK LINK ===
    0x5152
=== CODE BLOCK END ===

=== CODE BLOCK ADDRESS 0x5152 ===
  0x5152	mov    	ecx, dword ptr [edi + 0x20]
  0x5155	dec    	esp
  0x5156	mov    	ecx, eax
  0x5158	mov    	dword ptr [esp + 0x20], ecx
  0x515c	inc    	esp
  === BLOCK LINK ===
    0x515d
=== CODE BLOCK END ===

=== CODE BLOCK ADDRESS 0x515d ===
  0x515d	mov    	eax, ebx
  0x515f	dec    	eax
  0x5160	lea    	ecx, [0x6da2]
  0x5166	xor    	edx, edx
  0x5168	call   	0x86c8
  === BLOCK LINK ===
    0x516d
=== CODE BLOCK END ===

=== CODE BLOCK ADDRESS 0x516d ===
  0x516d	dec    	eax
  0x516e	mov    	edx, dword ptr [0x92d4]
  0x5174	inc    	esp
  0x5175	mov    	ecx, ebp
  0x5177	dec    	esp
  === BLOCK LINK ===
    0x5178
=== CODE BLOCK END ===

=== CODE BLOCK ADDRESS 0x5178 ===
  0x5178	mov    	eax, esi
  0x517a	mov    	ecx, ebx
  0x517c	call   	0x8438
  === BLOCK LINK ===
    0x5181
=== CODE BLOCK END ===

=== CODE BLOCK ADDRESS 0x5181 ===
  0x5181	mov    	edx, dword ptr [edi + 0x24]
  0x5184	dec    	eax
  0x5185	lea    	ecx, [0x6d7d]
  0x518b	mov    	dword ptr [esp + 0x20], edx
  0x518f	dec    	esp
  === BLOCK LINK ===
    0x5190
=== CODE BLOCK END ===

=== CODE BLOCK ADDRESS 0x5190 ===
  0x5190	mov    	ecx, eax
  0x5192	xor    	edx, edx
  0x5194	inc    	esp
  0x5195	mov    	eax, ebx
  0x5197	call   	0x86c8
  === BLOCK LINK ===
    0x519c
=== CODE BLOCK END ===

=== CODE BLOCK ADDRESS 0x519c ===
  0x519c	dec    	eax
  0x519d	mov    	ebx, dword ptr [esp + 0x48]
  0x51a1	dec    	eax
  0x51a2	mov    	ebp, dword ptr [esp + 0x50]
  0x51a6	dec    	eax
  === BLOCK LINK ===
    0x51a7
=== CODE BLOCK END ===

=== CODE BLOCK ADDRESS 0x51a7 ===
  0x51a7	mov    	esi, dword ptr [esp + 0x58]
  0x51ab	dec    	eax
  0x51ac	add    	esp, 0x30
  0x51af	pop    	edi
  0x51b0	ret    	
  === BLOCK LINK ===
    0x51b1
=== CODE BLOCK END ===

=== CODE BLOCK ADDRESS 0x51b1 ===
  0x51b1	int3   	
  0x51b2	int3   	
  0x51b3	int3   	
  0x51b4	int3   	
  0x51b5	int3   	
  === BLOCK LINK ===
    0x51b6
=== CODE BLOCK END ===

=== CODE BLOCK ADDRESS 0x51b6 ===
  0x51b6	int3   	
  0x51b7	int3   	
  0x51b8	dec    	esp
  0x51b9	mov    	ebx, esp
  0x51bb	push   	ebx
  === BLOCK LINK ===
    0x51bc
=== CODE BLOCK END ===

=== CODE BLOCK ADDRESS 0x51bc ===
  0x51bc	push   	ebp
  0x51bd	push   	esi
  0x51be	push   	edi
  0x51bf	inc    	ecx
  0x51c0	push   	esp
  === BLOCK LINK ===
    0x51c1
=== CODE BLOCK END ===

=== CODE BLOCK ADDRESS 0x51c1 ===
  0x51c1	inc    	ecx
  0x51c2	push   	esi
  0x51c3	inc    	ecx
  0x51c4	push   	edi
  0x51c5	dec    	eax
  === BLOCK LINK ===
    0x51c6
=== CODE BLOCK END ===

=== CODE BLOCK ADDRESS 0x51c6 ===
  0x51c6	sub    	esp, 0x40
  0x51c9	dec    	ecx
  0x51ca	lea    	eax, [ebx + 0x18]
  0x51cd	mov    	edi, ecx
  0x51cf	inc    	ebp
  === BLOCK LINK ===
    0x51d0
=== CODE BLOCK END ===

=== CODE BLOCK ADDRESS 0x51d0 ===
  0x51d0	xor    	esp, esp
  0x51d2	dec    	ebp
  0x51d3	lea    	eax, [ebx + 0x20]
  0x51d6	dec    	ebp
  0x51d7	mov    	dword ptr [ebx - 0x48], esp
  === BLOCK LINK ===
    0x51da
=== CODE BLOCK END ===

=== CODE BLOCK ADDRESS 0x51da ===
  0x51da	dec    	eax
  0x51db	mov    	ebx, edx
  0x51dd	dec    	ecx
  0x51de	mov    	dword ptr [ebx - 0x50], eax
  0x51e1	inc    	ecx
  === BLOCK LINK ===
    0x51e2
=== CODE BLOCK END ===

=== CODE BLOCK ADDRESS 0x51e2 ===
  0x51e2	or     	ecx, 0xffffffff
  0x51e5	dec    	ecx
  0x51e6	lea    	eax, [ebx + 0x10]
  0x51e9	xor    	ecx, ecx
  0x51eb	inc    	ecx
  === BLOCK LINK ===
    0x51ec
=== CODE BLOCK END ===

=== CODE BLOCK ADDRESS 0x51ec ===
  0x51ec	lea    	edx, [esp + 1]
  0x51f0	dec    	ecx
  0x51f1	mov    	dword ptr [ebx - 0x58], eax
  0x51f4	dec    	eax
  0x51f5	call   	dword ptr [0x6415]
  === BLOCK LINK ===
    0x51fb
=== CODE BLOCK END ===

=== CODE BLOCK ADDRESS 0x51fb ===
  0x51fb	nop    	dword ptr [eax + eax]
  0x5200	test   	eax, eax
  0x5202	jne    	0x52d8
  === BLOCK LINK ===
    0x5208
=== CODE BLOCK END ===

=== CODE BLOCK ADDRESS 0x5208 ===
  0x5208	inc    	esp
  0x5209	cmp    	dword ptr [esp + 0x88], esp
  0x5210	je     	0x52d8
  === BLOCK LINK ===
    0x5216
=== CODE BLOCK END ===

=== CODE BLOCK ADDRESS 0x5216 ===
  0x5216	test   	edi, edi
  0x5218	je     	0x52c4
  === BLOCK LINK ===
    0x521e
=== CODE BLOCK END ===

=== CODE BLOCK ADDRESS 0x521e ===
  0x521e	dec    	eax
  0x521f	add    	ebx, 8
  0x5222	inc    	esp
  0x5223	mov    	esi, edi
  0x5225	inc    	esp
  === BLOCK LINK ===
    0x5226
=== CODE BLOCK END ===

=== CODE BLOCK ADDRESS 0x5226 ===
  0x5226	cmp    	dword ptr [ebx + 0x20], esp
  0x5229	je     	0x52b6
  === BLOCK LINK ===
    0x522f
=== CODE BLOCK END ===

=== CODE BLOCK ADDRESS 0x522f ===
  0x522f	inc    	ecx
  0x5230	mov    	ebp, esp
  0x5232	dec    	eax
  0x5233	mov    	edi, dword ptr [esp + 0x98]
  0x523a	inc    	esp
  === BLOCK LINK ===
    0x523b
=== CODE BLOCK END ===

=== CODE BLOCK ADDRESS 0x523b ===
  0x523b	cmp    	dword ptr [esp + 0x88], esp
  0x5242	jbe    	0x52b6
  === BLOCK LINK ===
    0x5244
=== CODE BLOCK END ===

=== CODE BLOCK ADDRESS 0x5244 ===
  0x5244	dec    	eax
  0x5245	mov    	esi, dword ptr [edi]
  0x5247	dec    	esp
  0x5248	mov    	edi, dword ptr [edi + 8]
  0x524b	dec    	eax
  === BLOCK LINK ===
    0x524c
=== CODE BLOCK END ===

=== CODE BLOCK ADDRESS 0x524c ===
  0x524c	test   	esi, esi
  0x524e	je     	0x5273
  === BLOCK LINK ===
    0x5250
=== CODE BLOCK END ===

=== CODE BLOCK ADDRESS 0x5250 ===
  0x5250	inc    	sp
  0x5252	cmp    	dword ptr [esi], esp
  0x5254	je     	0x5273
  === BLOCK LINK ===
    0x5256
=== CODE BLOCK END ===

=== CODE BLOCK ADDRESS 0x5256 ===
  0x5256	dec    	eax
  0x5257	mov    	ecx, dword ptr [ebx - 8]
  0x525a	dec    	eax
  0x525b	mov    	edx, esi
  0x525d	dec    	eax
  === BLOCK LINK ===
    0x525e
=== CODE BLOCK END ===

=== CODE BLOCK ADDRESS 0x525e ===
  0x525e	call   	dword ptr [0x61d4]
  === BLOCK LINK ===
    0x5264
=== CODE BLOCK END ===

=== CODE BLOCK ADDRESS 0x5264 ===
  0x5264	nop    	dword ptr [eax + eax]
  0x5269	test   	eax, eax
  0x526b	je     	0x52a4
  === BLOCK LINK ===
    0x526d
=== CODE BLOCK END ===

=== CODE BLOCK ADDRESS 0x526d ===
  0x526d	inc    	sp
  0x526f	cmp    	dword ptr [esi], esp
  0x5271	jne    	0x5293
  === BLOCK LINK ===
    0x5273
=== CODE BLOCK END ===

=== CODE BLOCK ADDRESS 0x5273 ===
  0x5273	dec    	eax
  0x5274	mov    	eax, dword ptr [ebx - 8]
  0x5277	inc    	sp
  0x5279	cmp    	dword ptr [eax], esp
  0x527b	jne    	0x5293
  === BLOCK LINK ===
    0x527d
=== CODE BLOCK END ===

=== CODE BLOCK ADDRESS 0x527d ===
  0x527d	dec    	eax
  0x527e	mov    	ecx, dword ptr [ebx]
  0x5280	dec    	ecx
  0x5281	mov    	edx, edi
  0x5283	dec    	eax
  === BLOCK LINK ===
    0x5284
=== CODE BLOCK END ===

=== CODE BLOCK ADDRESS 0x5284 ===
  0x5284	call   	dword ptr [0x61ae]
  === BLOCK LINK ===
    0x528a
=== CODE BLOCK END ===

=== CODE BLOCK ADDRESS 0x528a ===
  0x528a	nop    	dword ptr [eax + eax]
  0x528f	test   	eax, eax
  0x5291	je     	0x52a4
  === BLOCK LINK ===
    0x5293
=== CODE BLOCK END ===

=== CODE BLOCK ADDRESS 0x5293 ===
  0x5293	inc    	ebp
  0x5295	dec    	eax
  0x5296	add    	edi, 0x28
  0x5299	cmp    	ebp, dword ptr [esp + 0x88]
  0x52a0	jb     	0x5244
  === BLOCK LINK ===
    0x52a2
=== CODE BLOCK END ===

=== CODE BLOCK ADDRESS 0x52a2 ===
  0x52a2	jmp    	0x52b6
  === BLOCK LINK ===
    0x52a4
=== CODE BLOCK END ===

=== CODE BLOCK ADDRESS 0x52a4 ===
  0x52a4	mov    	eax, dword ptr [edi + 0x24]
  0x52a7	mov    	dword ptr [ebx + 0x1c], eax
  0x52aa	mov    	eax, dword ptr [edi + 0x20]
  0x52ad	mov    	dword ptr [ebx + 0x18], eax
  0x52b0	mov    	eax, dword ptr [edi + 0x18]
  === BLOCK LINK ===
    0x52b3
=== CODE BLOCK END ===

=== CODE BLOCK ADDRESS 0x52b3 ===
  0x52b3	mov    	dword ptr [ebx + 0x14], eax
  0x52b6	dec    	eax
  0x52b7	add    	ebx, 0x30
  0x52ba	dec    	ecx
  0x52bb	sub    	esi, 1
  === BLOCK LINK ===
    0x52be
=== CODE BLOCK END ===

=== CODE BLOCK ADDRESS 0x52be ===
  0x52be	jne    	0x5225
  === BLOCK LINK ===
    0x52c4
=== CODE BLOCK END ===

=== CODE BLOCK ADDRESS 0x52c4 ===
  0x52c4	dec    	eax
  0x52c5	mov    	ecx, dword ptr [esp + 0x98]
  0x52cc	dec    	eax
  0x52cd	call   	dword ptr [0x62e5]
  === BLOCK LINK ===
    0x52d3
=== CODE BLOCK END ===

=== CODE BLOCK ADDRESS 0x52d3 ===
  0x52d3	nop    	dword ptr [eax + eax]
  0x52d8	xor    	eax, eax
  0x52da	dec    	eax
  0x52db	add    	esp, 0x40
  0x52de	inc    	ecx
  === BLOCK LINK ===
    0x52df
=== CODE BLOCK END ===

=== CODE BLOCK ADDRESS 0x52df ===
  0x52df	pop    	edi
  0x52e0	inc    	ecx
  0x52e1	pop    	esi
  0x52e2	inc    	ecx
  0x52e3	pop    	esp
  === BLOCK LINK ===
    0x52e4
=== CODE BLOCK END ===

=== CODE BLOCK ADDRESS 0x52e4 ===
  0x52e4	pop    	edi
  0x52e5	pop    	esi
  0x52e6	pop    	ebp
  0x52e7	pop    	ebx
  0x52e8	ret    	
  === BLOCK LINK ===
    0x52e9
=== CODE BLOCK END ===

=== CODE BLOCK ADDRESS 0x52e9 ===
  0x52e9	int3   	
  0x52ea	int3   	
  0x52eb	int3   	
  0x52ec	int3   	
  0x52ed	int3   	
  === BLOCK LINK ===
    0x52ee
=== CODE BLOCK END ===

=== CODE BLOCK ADDRESS 0x52ee ===
  0x52ee	int3   	
  0x52ef	int3   	
  0x52f0	inc    	eax
  0x52f1	push   	edi
  0x52f2	dec    	eax
  === BLOCK LINK ===
    0x52f3
=== CODE BLOCK END ===

=== CODE BLOCK ADDRESS 0x52f3 ===
  0x52f3	sub    	esp, 0x90
  0x52f9	dec    	eax
  0x52fa	mov    	eax, dword ptr [0x8f88]
  0x5300	dec    	eax
  0x5301	xor    	eax, esp
  === BLOCK LINK ===
    0x5303
=== CODE BLOCK END ===

=== CODE BLOCK ADDRESS 0x5303 ===
  0x5303	dec    	eax
  0x5304	mov    	dword ptr [esp + 0x80], eax
  0x530b	dec    	esp
  0x530c	mov    	ecx, edx
  0x530e	dec    	esp
  === BLOCK LINK ===
    0x530f
=== CODE BLOCK END ===

=== CODE BLOCK ADDRESS 0x530f ===
  0x530f	mov    	edx, ecx
  0x5311	call   	0x8a78
  === BLOCK LINK ===
    0x5316
=== CODE BLOCK END ===

=== CODE BLOCK ADDRESS 0x5316 ===
  0x5316	xor    	edi, edi
  0x5318	test   	eax, eax
  0x531a	jne    	0x5324
  === BLOCK LINK ===
    0x531c
=== CODE BLOCK END ===

=== CODE BLOCK ADDRESS 0x531c ===
  0x531c	dec    	ecx
  0x531d	mov    	eax, edx
  0x531f	jmp    	0x53de
  === BLOCK LINK ===
    0x5324
=== CODE BLOCK END ===

=== CODE BLOCK ADDRESS 0x5324 ===
  0x5324	dec    	eax
  0x5325	lea    	ecx, [0x135d5]
  0x532b	mov    	edx, 0x51
  0x5330	dec    	ebp
  0x5331	mov    	eax, ecx
  === BLOCK LINK ===
    0x5333
=== CODE BLOCK END ===

=== CODE BLOCK ADDRESS 0x5333 ===
  0x5333	dec    	ebp
  0x5334	test   	ecx, ecx
  0x5336	jne    	0x533f
  === BLOCK LINK ===
    0x5338
=== CODE BLOCK END ===

=== CODE BLOCK ADDRESS 0x5338 ===
  0x5338	dec    	esp
  0x5339	lea    	eax, [0x6b21]
  0x533f	dec    	eax
  0x5340	call   	dword ptr [0x61fa]
  === BLOCK LINK ===
    0x5346
=== CODE BLOCK END ===

=== CODE BLOCK ADDRESS 0x5346 ===
  0x5346	nop    	dword ptr [eax + eax]
  0x534b	dec    	eax
  0x534c	lea    	ecx, [0x135ae]
  0x5352	dec    	eax
  0x5353	call   	dword ptr [0x5f1f]
  === BLOCK LINK ===
    0x5359
=== CODE BLOCK END ===

=== CODE BLOCK ADDRESS 0x5359 ===
  0x5359	nop    	dword ptr [eax + eax]
  0x535e	cmp    	eax, 1
  0x5361	jne    	0x53ad
  === BLOCK LINK ===
    0x5363
=== CODE BLOCK END ===

=== CODE BLOCK ADDRESS 0x5363 ===
  0x5363	dec    	esp
  0x5364	lea    	eax, [esp + 0x20]
  0x5368	mov    	dword ptr [esp + 0x20], 0x28
  0x5370	dec    	eax
  0x5371	lea    	edx, [esp + 0x30]
  === BLOCK LINK ===
    0x5375
=== CODE BLOCK END ===

=== CODE BLOCK ADDRESS 0x5375 ===
  0x5375	mov    	word ptr [0x13588], di
  0x537c	dec    	eax
  0x537d	lea    	ecx, [0x1357d]
  0x5383	dec    	eax
  0x5384	call   	dword ptr [0x5df6]
  === BLOCK LINK ===
    0x538a
=== CODE BLOCK END ===

=== CODE BLOCK ADDRESS 0x538a ===
  0x538a	nop    	dword ptr [eax + eax]
  0x538f	cmp    	eax, 0x4b1
  0x5394	je     	0x53a1
  === BLOCK LINK ===
    0x5396
=== CODE BLOCK END ===

=== CODE BLOCK ADDRESS 0x5396 ===
  0x5396	cmp    	eax, 0xea
  0x539b	je     	0x53a1
  === BLOCK LINK ===
    0x539d
=== CODE BLOCK END ===

=== CODE BLOCK ADDRESS 0x539d ===
  0x539d	test   	eax, eax
  0x539f	jne    	0x53d3
  === BLOCK LINK ===
    0x53a1
=== CODE BLOCK END ===

=== CODE BLOCK ADDRESS 0x53a1 ===
  0x53a1	mov    	eax, 0x5c
  0x53a6	mov    	word ptr [0x13557], ax
  0x53ad	movzx  	ecx, word ptr [0x1354c]
  0x53b4	mov    	edx, 0xffdf
  0x53b9	lea    	eax, [ecx - 0x41]
  === BLOCK LINK ===
    0x53bc
=== CODE BLOCK END ===

=== CODE BLOCK ADDRESS 0x53bc ===
  0x53bc	test   	dx, ax
  0x53bf	je     	0x53dc
  === BLOCK LINK ===
    0x53c1
=== CODE BLOCK END ===

=== CODE BLOCK ADDRESS 0x53c1 ===
  0x53c1	lea    	eax, [edx + 0x20]
  0x53c4	add    	cx, ax
  0x53c7	mov    	word ptr [0x13532], cx
  0x53ce	jmp    	0x534b
  === BLOCK LINK ===
    0x53d3
=== CODE BLOCK END ===

=== CODE BLOCK ADDRESS 0x53d3 ===
  0x53d3	dec    	eax
  0x53d4	lea    	eax, [0x13526]
  0x53da	jmp    	0x53de
  === BLOCK LINK ===
    0x53dc
=== CODE BLOCK END ===

=== CODE BLOCK ADDRESS 0x53dc ===
  0x53dc	xor    	eax, eax
  0x53de	dec    	eax
  0x53df	mov    	ecx, dword ptr [esp + 0x80]
  0x53e6	dec    	eax
  0x53e7	xor    	ecx, esp
  === BLOCK LINK ===
    0x53e9
=== CODE BLOCK END ===

=== CODE BLOCK ADDRESS 0x53e9 ===
  0x53e9	call   	0x2900
  === BLOCK LINK ===
    0x53ee
=== CODE BLOCK END ===

=== CODE BLOCK ADDRESS 0x53ee ===
  0x53ee	dec    	eax
  0x53ef	add    	esp, 0x90
  0x53f5	pop    	edi
  0x53f6	ret    	
  0x53f7	int3   	
  === BLOCK LINK ===
    0x53f8
=== CODE BLOCK END ===

=== CODE BLOCK ADDRESS 0x53f8 ===
  0x53f8	int3   	
  0x53f9	int3   	
  0x53fa	int3   	
  0x53fb	int3   	
  0x53fc	int3   	
  === BLOCK LINK ===
    0x53fd
=== CODE BLOCK END ===

=== CODE BLOCK ADDRESS 0x53fd ===
  0x53fd	int3   	
  0x53fe	int3   	
  0x53ff	int3   	
  0x5400	inc    	eax
  0x5401	push   	ebp
  === BLOCK LINK ===
    0x5402
=== CODE BLOCK END ===

=== CODE BLOCK ADDRESS 0x5402 ===
  0x5402	push   	ebx
  0x5403	push   	edi
  0x5404	dec    	eax
  0x5405	mov    	ebp, esp
  0x5407	dec    	eax
  === BLOCK LINK ===
    0x5408
=== CODE BLOCK END ===

=== CODE BLOCK ADDRESS 0x5408 ===
  0x5408	sub    	esp, 0x30
  0x540b	xor    	ebx, ebx
  0x540d	dec    	esp
  0x540e	lea    	eax, [ebp + 0x28]
  0x5411	xor    	edx, edx
  === BLOCK LINK ===
    0x5413
=== CODE BLOCK END ===

=== CODE BLOCK ADDRESS 0x5413 ===
  0x5413	mov    	dword ptr [ebp + 0x28], ebx
  0x5416	dec    	eax
  0x5417	mov    	edi, ecx
  0x5419	dec    	eax
  0x541a	call   	dword ptr [0x5d60]
  === BLOCK LINK ===
    0x5420
=== CODE BLOCK END ===

=== CODE BLOCK ADDRESS 0x5420 ===
  0x5420	nop    	dword ptr [eax + eax]
  0x5425	cmp    	eax, 0xea
  0x542a	je     	0x543e
  === BLOCK LINK ===
    0x542c
=== CODE BLOCK END ===

=== CODE BLOCK ADDRESS 0x542c ===
  0x542c	xor    	edx, edx
  0x542e	mov    	ecx, eax
  0x5430	call   	0x7ea4
  === BLOCK LINK ===
    0x5435
=== CODE BLOCK END ===

=== CODE BLOCK ADDRESS 0x5435 ===
  0x5435	lea    	ecx, [ebx + 2]
  0x5438	call   	0x8378
  === BLOCK LINK ===
    0x543d
=== CODE BLOCK END ===

=== CODE BLOCK ADDRESS 0x543d ===
  0x543d	int3   	
  0x543e	mov    	eax, dword ptr [ebp + 0x28]
  0x5441	dec    	eax
  0x5442	lea    	edx, [ebp + 0x38]
  0x5445	lea    	ecx, [eax + eax]
  === BLOCK LINK ===
    0x5448
=== CODE BLOCK END ===

=== CODE BLOCK ADDRESS 0x5448 ===
  0x5448	dec    	eax
  0x5449	call   	dword ptr [0x6171]
  === BLOCK LINK ===
    0x544f
=== CODE BLOCK END ===

=== CODE BLOCK ADDRESS 0x544f ===
  0x544f	nop    	dword ptr [eax + eax]
  0x5454	test   	eax, eax
  0x5456	je     	0x546c
  === BLOCK LINK ===
    0x5458
=== CODE BLOCK END ===

=== CODE BLOCK ADDRESS 0x5458 ===
  0x5458	xor    	edx, edx
  0x545a	mov    	ecx, eax
  0x545c	call   	0x7ea4
  === BLOCK LINK ===
    0x5461
=== CODE BLOCK END ===

=== CODE BLOCK ADDRESS 0x5461 ===
  0x5461	mov    	ecx, 2
  0x5466	call   	0x8378
  === BLOCK LINK ===
    0x546b
=== CODE BLOCK END ===

=== CODE BLOCK ADDRESS 0x546b ===
  0x546b	int3   	
  0x546c	dec    	eax
  0x546d	mov    	edx, dword ptr [ebp + 0x38]
  0x5470	dec    	esp
  0x5471	lea    	eax, [ebp + 0x28]
  === BLOCK LINK ===
    0x5474
=== CODE BLOCK END ===

=== CODE BLOCK ADDRESS 0x5474 ===
  0x5474	dec    	eax
  0x5475	mov    	ecx, edi
  0x5477	dec    	eax
  0x5478	call   	dword ptr [0x5d02]
  === BLOCK LINK ===
    0x547e
=== CODE BLOCK END ===

=== CODE BLOCK ADDRESS 0x547e ===
  0x547e	nop    	dword ptr [eax + eax]
  0x5483	test   	eax, eax
  0x5485	je     	0x54a2
  === BLOCK LINK ===
    0x5487
=== CODE BLOCK END ===

=== CODE BLOCK ADDRESS 0x5487 ===
  0x5487	cmp    	eax, 0x4b1
  0x548c	je     	0x54a2
  === BLOCK LINK ===
    0x548e
=== CODE BLOCK END ===

=== CODE BLOCK ADDRESS 0x548e ===
  0x548e	xor    	edx, edx
  0x5490	mov    	ecx, eax
  0x5492	call   	0x7ea4
  === BLOCK LINK ===
    0x5497
=== CODE BLOCK END ===

=== CODE BLOCK ADDRESS 0x5497 ===
  0x5497	mov    	ecx, 2
  0x549c	call   	0x8378
  === BLOCK LINK ===
    0x54a1
=== CODE BLOCK END ===

=== CODE BLOCK ADDRESS 0x54a1 ===
  0x54a1	int3   	
  0x54a2	dec    	eax
  0x54a3	or     	eax, 0xffffffff
  0x54a6	dec    	eax
  0x54a7	inc    	eax
  === BLOCK LINK ===
    0x54a9
=== CODE BLOCK END ===

=== CODE BLOCK ADDRESS 0x54a9 ===
  0x54a9	cmp    	word ptr [edi + eax*2], bx
  0x54ad	jne    	0x54a6
  === BLOCK LINK ===
    0x54af
=== CODE BLOCK END ===

=== CODE BLOCK ADDRESS 0x54af ===
  0x54af	mov    	dword ptr [ebp + 0x28], eax
  0x54b2	cmp    	eax, 2
  0x54b5	jne    	0x54e5
  === BLOCK LINK ===
    0x54b7
=== CODE BLOCK END ===

=== CODE BLOCK ADDRESS 0x54b7 ===
  0x54b7	movzx  	ecx, word ptr [edi]
  0x54ba	mov    	edx, 0x103
  0x54bf	dec    	eax
  0x54c0	call   	dword ptr [0x5f82]
  === BLOCK LINK ===
    0x54c6
=== CODE BLOCK END ===

=== CODE BLOCK ADDRESS 0x54c6 ===
  0x54c6	nop    	dword ptr [eax + eax]
  0x54cb	test   	eax, eax
  0x54cd	je     	0x54e2
  === BLOCK LINK ===
    0x54cf
=== CODE BLOCK END ===

=== CODE BLOCK ADDRESS 0x54cf ===
  0x54cf	cmp    	word ptr [edi + 2], 0x3a
  0x54d4	jne    	0x54e2
  === BLOCK LINK ===
    0x54d6
=== CODE BLOCK END ===

=== CODE BLOCK ADDRESS 0x54d6 ===
  0x54d6	mov    	dword ptr [0x8f20], 0x1266
  0x54e0	jmp    	0x551e
  === BLOCK LINK ===
    0x54e2
=== CODE BLOCK END ===

=== CODE BLOCK ADDRESS 0x54e2 ===
  0x54e2	mov    	eax, dword ptr [ebp + 0x28]
  0x54e5	inc    	ecx
  0x54e6	mov    	eax, 3
  0x54eb	inc    	ecx
  0x54ec	cmp    	eax, eax
  === BLOCK LINK ===
    0x54ee
=== CODE BLOCK END ===

=== CODE BLOCK ADDRESS 0x54ee ===
  0x54ee	jb     	0x5514
  === BLOCK LINK ===
    0x54f0
=== CODE BLOCK END ===

=== CODE BLOCK ADDRESS 0x54f0 ===
  0x54f0	dec    	eax
  0x54f1	lea    	edx, [0x6919]
  0x54f7	dec    	eax
  0x54f8	mov    	ecx, edi
  0x54fa	dec    	eax
  === BLOCK LINK ===
    0x54fb
=== CODE BLOCK END ===

=== CODE BLOCK ADDRESS 0x54fb ===
  0x54fb	call   	dword ptr [0x5f17]
  === BLOCK LINK ===
    0x5501
=== CODE BLOCK END ===

=== CODE BLOCK ADDRESS 0x5501 ===
  0x5501	nop    	dword ptr [eax + eax]
  0x5506	mov    	dword ptr [0x8ef0], 0x1267
  0x5510	test   	eax, eax
  0x5512	je     	0x551e
  === BLOCK LINK ===
    0x5514
=== CODE BLOCK END ===

=== CODE BLOCK ADDRESS 0x5514 ===
  0x5514	mov    	dword ptr [0x8ee2], 0x10e1
  0x551e	mov    	ecx, 8
  0x5523	dec    	esp
  0x5524	lea    	eax, [ebp + 0x30]
  0x5527	dec    	eax
  === BLOCK LINK ===
    0x5528
=== CODE BLOCK END ===

=== CODE BLOCK ADDRESS 0x5528 ===
  0x5528	lea    	edx, [0x8ea2]
  0x552e	call   	0x7fc0
  === BLOCK LINK ===
    0x5533
=== CODE BLOCK END ===

=== CODE BLOCK ADDRESS 0x5533 ===
  0x5533	mov    	ebx, dword ptr [ebp + 0x30]
  0x5536	dec    	esp
  0x5537	lea    	eax, [0x9e23]
  0x553d	dec    	eax
  0x553e	mov    	edx, dword ptr [0x8e94]
  === BLOCK LINK ===
    0x5544
=== CODE BLOCK END ===

=== CODE BLOCK ADDRESS 0x5544 ===
  0x5544	add    	ebx, 5
  0x5547	mov    	ecx, ebx
  0x5549	inc    	ecx
  0x554a	mov    	ecx, 0x1000
  0x554f	call   	0x8438
  === BLOCK LINK ===
    0x5554
=== CODE BLOCK END ===

=== CODE BLOCK ADDRESS 0x5554 ===
  0x5554	dec    	esp
  0x5555	mov    	ecx, eax
  0x5557	dec    	eax
  0x5558	mov    	dword ptr [esp + 0x20], edi
  0x555c	inc    	esp
  === BLOCK LINK ===
    0x555d
=== CODE BLOCK END ===

=== CODE BLOCK ADDRESS 0x555d ===
  0x555d	mov    	eax, ebx
  0x555f	dec    	eax
  0x5560	lea    	ecx, [0x6962]
  0x5566	xor    	edx, edx
  0x5568	call   	0x86c8
  === BLOCK LINK ===
    0x556d
=== CODE BLOCK END ===

=== CODE BLOCK ADDRESS 0x556d ===
  0x556d	dec    	eax
  0x556e	mov    	edx, dword ptr [0x8e74]
  0x5574	dec    	esp
  0x5575	lea    	eax, [0x9de5]
  0x557b	inc    	ecx
  === BLOCK LINK ===
    0x557c
=== CODE BLOCK END ===

=== CODE BLOCK ADDRESS 0x557c ===
  0x557c	mov    	ecx, 0x1000
  0x5581	mov    	ecx, ebx
  0x5583	call   	0x8438
  === BLOCK LINK ===
    0x5588
=== CODE BLOCK END ===

=== CODE BLOCK ADDRESS 0x5588 ===
  0x5588	dec    	eax
  0x5589	mov    	edx, dword ptr [ebp + 0x38]
  0x558c	dec    	eax
  0x558d	lea    	ecx, [0x6935]
  0x5593	dec    	eax
  === BLOCK LINK ===
    0x5594
=== CODE BLOCK END ===

=== CODE BLOCK ADDRESS 0x5594 ===
  0x5594	mov    	dword ptr [esp + 0x20], edx
  0x5598	dec    	esp
  0x5599	mov    	ecx, eax
  0x559b	xor    	edx, edx
  0x559d	inc    	esp
  === BLOCK LINK ===
    0x559e
=== CODE BLOCK END ===

=== CODE BLOCK ADDRESS 0x559e ===
  0x559e	mov    	eax, ebx
  0x55a0	call   	0x86c8
  === BLOCK LINK ===
    0x55a5
=== CODE BLOCK END ===

=== CODE BLOCK ADDRESS 0x55a5 ===
  0x55a5	dec    	eax
  0x55a6	mov    	edx, dword ptr [0x8e4c]
  0x55ac	dec    	esp
  0x55ad	lea    	eax, [0x9dad]
  0x55b3	inc    	ecx
  === BLOCK LINK ===
    0x55b4
=== CODE BLOCK END ===

=== CODE BLOCK ADDRESS 0x55b4 ===
  0x55b4	mov    	ecx, 0x1000
  0x55b9	mov    	ecx, ebx
  0x55bb	call   	0x8438
  === BLOCK LINK ===
    0x55c0
=== CODE BLOCK END ===

=== CODE BLOCK ADDRESS 0x55c0 ===
  0x55c0	dec    	eax
  0x55c1	mov    	ecx, dword ptr [0x8e41]
  0x55c7	dec    	esp
  0x55c8	mov    	ecx, eax
  0x55ca	dec    	eax
  === BLOCK LINK ===
    0x55cb
=== CODE BLOCK END ===

=== CODE BLOCK ADDRESS 0x55cb ===
  0x55cb	mov    	dword ptr [esp + 0x20], ecx
  0x55cf	inc    	esp
  0x55d0	mov    	eax, ebx
  0x55d2	dec    	eax
  0x55d3	lea    	ecx, [0x690f]
  === BLOCK LINK ===
    0x55d9
=== CODE BLOCK END ===

=== CODE BLOCK ADDRESS 0x55d9 ===
  0x55d9	xor    	edx, edx
  0x55db	call   	0x86c8
  === BLOCK LINK ===
    0x55e0
=== CODE BLOCK END ===

=== CODE BLOCK ADDRESS 0x55e0 ===
  0x55e0	dec    	eax
  0x55e1	mov    	ecx, dword ptr [ebp + 0x38]
  0x55e4	dec    	eax
  0x55e5	call   	dword ptr [0x5fcd]
  === BLOCK LINK ===
    0x55eb
=== CODE BLOCK END ===

=== CODE BLOCK ADDRESS 0x55eb ===
  0x55eb	nop    	dword ptr [eax + eax]
  0x55f0	dec    	eax
  0x55f1	add    	esp, 0x30
  0x55f4	pop    	edi
  0x55f5	pop    	ebx
  === BLOCK LINK ===
    0x55f6
=== CODE BLOCK END ===

=== CODE BLOCK ADDRESS 0x55f6 ===
  0x55f6	pop    	ebp
  0x55f7	ret    	
  0x55f8	int3   	
  0x55f9	int3   	
  0x55fa	int3   	
  === BLOCK LINK ===
    0x55fb
=== CODE BLOCK END ===

=== CODE BLOCK ADDRESS 0x1529 ===
  0x1529	dec    	eax
  0x152a	add    	ecx, 2
  0x152d	jmp    	0x14d0
  === BLOCK LINK ===
    0x152f
=== CODE BLOCK END ===

=== CODE BLOCK ADDRESS 0x55fb ===
  0x55fb	int3   	
  0x55fc	int3   	
  0x55fd	int3   	
  0x55fe	int3   	
  0x55ff	int3   	
  === BLOCK LINK ===
    0x5600
=== CODE BLOCK END ===

=== CODE BLOCK ADDRESS 0x5600 ===
  0x5600	dec    	eax
  0x5601	mov    	dword ptr [esp + 0x10], ebx
  0x5605	push   	ebp
  0x5606	push   	esi
  0x5607	push   	edi
  === BLOCK LINK ===
    0x5608
=== CODE BLOCK END ===

=== CODE BLOCK ADDRESS 0x5608 ===
  0x5608	inc    	ecx
  0x5609	push   	esi
  0x560a	inc    	ecx
  0x560b	push   	edi
  0x560c	dec    	eax
  === BLOCK LINK ===
    0x560d
=== CODE BLOCK END ===

=== CODE BLOCK ADDRESS 0x560d ===
  0x560d	mov    	ebp, esp
  0x560f	dec    	eax
  0x5610	sub    	esp, 0x40
  0x5613	dec    	esp
  0x5614	mov    	edi, ecx
  === BLOCK LINK ===
    0x5616
=== CODE BLOCK END ===

=== CODE BLOCK ADDRESS 0x5616 ===
  0x5616	inc    	ecx
  0x5617	mov    	dword ptr [eax], 0x40
  0x561d	xor    	ebx, ebx
  0x561f	dec    	ebp
  0x5620	mov    	esi, eax
  === BLOCK LINK ===
    0x5622
=== CODE BLOCK END ===

=== CODE BLOCK ADDRESS 0x5622 ===
  0x5622	and    	dword ptr [ecx], ebx
  0x5624	dec    	eax
  0x5625	mov    	esi, edx
  0x5627	mov    	ecx, 0xc00
  0x562c	dec    	eax
  === BLOCK LINK ===
    0x562d
=== CODE BLOCK END ===

=== CODE BLOCK ADDRESS 0x562d ===
  0x562d	call   	dword ptr [0x5f8d]
  === BLOCK LINK ===
    0x5633
=== CODE BLOCK END ===

=== CODE BLOCK ADDRESS 0x5633 ===
  0x5633	nop    	dword ptr [eax + eax]
  0x5638	test   	eax, eax
  0x563a	je     	0x564e
  === BLOCK LINK ===
    0x563c
=== CODE BLOCK END ===

=== CODE BLOCK ADDRESS 0x563c ===
  0x563c	xor    	edx, edx
  0x563e	mov    	ecx, eax
  0x5640	call   	0x7ea4
  === BLOCK LINK ===
    0x5645
=== CODE BLOCK END ===

=== CODE BLOCK ADDRESS 0x5645 ===
  0x5645	lea    	ecx, [ebx + 2]
  0x5648	call   	0x8378
  === BLOCK LINK ===
    0x564d
=== CODE BLOCK END ===

=== CODE BLOCK ADDRESS 0x564d ===
  0x564d	int3   	
  0x564e	dec    	eax
  0x564f	lea    	edx, [ebp + 0x48]
  0x5652	mov    	dword ptr [ebp + 0x40], 0x1000
  0x5659	mov    	ecx, 0x1000
  === BLOCK LINK ===
    0x565e
=== CODE BLOCK END ===

=== CODE BLOCK ADDRESS 0x565e ===
  0x565e	dec    	eax
  0x565f	call   	dword ptr [0x5f5b]
  === BLOCK LINK ===
    0x5665
=== CODE BLOCK END ===

=== CODE BLOCK ADDRESS 0x5665 ===
  0x5665	nop    	dword ptr [eax + eax]
  0x566a	xor    	edx, edx
  0x566c	test   	eax, eax
  0x566e	je     	0x5682
  === BLOCK LINK ===
    0x5670
=== CODE BLOCK END ===

=== CODE BLOCK ADDRESS 0x5670 ===
  0x5670	mov    	ecx, eax
  0x5672	call   	0x7ea4
  === BLOCK LINK ===
    0x5677
=== CODE BLOCK END ===

=== CODE BLOCK ADDRESS 0x5677 ===
  0x5677	mov    	ecx, 2
  0x567c	call   	0x8378
  === BLOCK LINK ===
    0x5681
=== CODE BLOCK END ===

=== CODE BLOCK ADDRESS 0x5681 ===
  0x5681	int3   	
  0x5682	inc    	ebp
  0x5683	xor    	ecx, ecx
  0x5685	dec    	eax
  0x5686	lea    	eax, [ebp - 0x10]
  === BLOCK LINK ===
    0x5689
=== CODE BLOCK END ===

=== CODE BLOCK ADDRESS 0x5689 ===
  0x5689	inc    	ebp
  0x568a	xor    	eax, eax
  0x568c	dec    	eax
  0x568d	mov    	dword ptr [esp + 0x20], eax
  0x5691	inc    	ecx
  === BLOCK LINK ===
    0x5692
=== CODE BLOCK END ===

=== CODE BLOCK ADDRESS 0x5692 ===
  0x5692	lea    	ecx, [ecx + 1]
  0x5695	dec    	eax
  0x5696	call   	dword ptr [0x5af4]
  === BLOCK LINK ===
    0x569c
=== CODE BLOCK END ===

=== CODE BLOCK ADDRESS 0x569c ===
  0x569c	nop    	dword ptr [eax + eax]
  0x56a1	test   	eax, eax
  0x56a3	jne    	0x580b
  === BLOCK LINK ===
    0x56a9
=== CODE BLOCK END ===

=== CODE BLOCK ADDRESS 0x56a9 ===
  0x56a9	dec    	esp
  0x56aa	mov    	eax, dword ptr [ebp + 0x48]
  0x56ad	dec    	esp
  0x56ae	lea    	ecx, [ebp + 0x40]
  0x56b1	dec    	eax
  === BLOCK LINK ===
    0x56b2
=== CODE BLOCK END ===

=== CODE BLOCK ADDRESS 0x56b2 ===
  0x56b2	mov    	ecx, dword ptr [ebp - 0x10]
  0x56b5	dec    	eax
  0x56b6	lea    	edx, [ebp + 0x30]
  0x56b9	or     	dword ptr [ebp + 0x30], 0xffffffff
  0x56bd	dec    	eax
  === BLOCK LINK ===
    0x56be
=== CODE BLOCK END ===

=== CODE BLOCK ADDRESS 0x56be ===
  0x56be	call   	dword ptr [0x5ae4]
  === BLOCK LINK ===
    0x56c4
=== CODE BLOCK END ===

=== CODE BLOCK ADDRESS 0x56c4 ===
  0x56c4	nop    	dword ptr [eax + eax]
  0x56c9	mov    	edi, eax
  0x56cb	test   	eax, eax
  0x56cd	je     	0x56da
  === BLOCK LINK ===
    0x56cf
=== CODE BLOCK END ===

=== CODE BLOCK ADDRESS 0x56cf ===
  0x56cf	cmp    	eax, 0x103
  0x56d4	jne    	0x580b
  === BLOCK LINK ===
    0x56da
=== CODE BLOCK END ===

=== CODE BLOCK ADDRESS 0x56da ===
  0x56da	mov    	edx, dword ptr [ebp + 0x30]
  0x56dd	lea    	ecx, [edx + ebx]
  0x56e0	inc    	ecx
  0x56e1	cmp    	ecx, dword ptr [esi]
  0x56e3	jb     	0x570e
  === BLOCK LINK ===
    0x56e5
=== CODE BLOCK END ===

=== CODE BLOCK ADDRESS 0x56e5 ===
  0x56e5	add    	ecx, 0x40
  0x56e8	dec    	esp
  0x56e9	mov    	eax, esi
  0x56eb	inc    	ecx
  0x56ec	mov    	dword ptr [esi], ecx
  === BLOCK LINK ===
    0x56ee
=== CODE BLOCK END ===

=== CODE BLOCK ADDRESS 0x56ee ===
  0x56ee	lea    	edx, [ecx + ecx*2]
  0x56f1	dec    	eax
  0x56f2	mov    	ecx, dword ptr [esi]
  0x56f4	shl    	edx, 4
  0x56f7	dec    	eax
  === BLOCK LINK ===
    0x56f8
=== CODE BLOCK END ===

=== CODE BLOCK ADDRESS 0x56f8 ===
  0x56f8	call   	dword ptr [0x5eb2]
  === BLOCK LINK ===
    0x56fe
=== CODE BLOCK END ===

=== CODE BLOCK ADDRESS 0x56fe ===
  0x56fe	nop    	dword ptr [eax + eax]
  0x5703	test   	eax, eax
  0x5705	jne    	0x580b
  === BLOCK LINK ===
    0x570b
=== CODE BLOCK END ===

=== CODE BLOCK ADDRESS 0x570b ===
  0x570b	mov    	edx, dword ptr [ebp + 0x30]
  0x570e	dec    	eax
  0x570f	lea    	ecx, [ebx + ebx*2]
  0x5712	inc    	ebp
  0x5713	xor    	edx, edx
  === BLOCK LINK ===
    0x5715
=== CODE BLOCK END ===

=== CODE BLOCK ADDRESS 0x5715 ===
  0x5715	dec    	eax
  0x5716	shl    	ecx, 4
  0x5719	dec    	eax
  0x571a	add    	ecx, dword ptr [esi]
  0x571c	test   	edx, edx
  === BLOCK LINK ===
    0x571e
=== CODE BLOCK END ===

=== CODE BLOCK ADDRESS 0x571e ===
  0x571e	je     	0x57bc
  === BLOCK LINK ===
    0x5724
=== CODE BLOCK END ===

=== CODE BLOCK ADDRESS 0x5724 ===
  0x5724	dec    	eax
  0x5725	mov    	edx, dword ptr [ebp + 0x48]
  0x5728	dec    	eax
  0x5729	add    	edx, 0x18
  0x572c	dec    	eax
  === BLOCK LINK ===
    0x572d
=== CODE BLOCK END ===

=== CODE BLOCK ADDRESS 0x572d ===
  0x572d	cmp    	dword ptr [edx - 8], 0
  0x5731	dec    	esp
  0x5732	lea    	eax, [0x623c]
  0x5738	dec    	esp
  0x5739	mov    	ebx, dword ptr [0x11f89]
  === BLOCK LINK ===
    0x573f
=== CODE BLOCK END ===

=== CODE BLOCK ADDRESS 0x573f ===
  0x573f	dec    	ecx
  0x5740	mov    	eax, eax
  0x5742	dec    	eax
  0x5743	cmovne  	eax, dword ptr [edx - 8]
  0x5747	dec    	eax
  === BLOCK LINK ===
    0x5748
=== CODE BLOCK END ===

=== CODE BLOCK ADDRESS 0x5748 ===
  0x5748	mov    	dword ptr [ecx], eax
  0x574a	dec    	ecx
  0x574b	mov    	eax, eax
  0x574d	dec    	eax
  0x574e	cmp    	dword ptr [edx], 0
  === BLOCK LINK ===
    0x5751
=== CODE BLOCK END ===

=== CODE BLOCK ADDRESS 0x5751 ===
  0x5751	dec    	eax
  0x5752	cmovne  	eax, dword ptr [edx]
  0x5755	dec    	eax
  0x5756	mov    	dword ptr [ecx + 8], eax
  0x5759	dec    	ecx
  === BLOCK LINK ===
    0x575a
=== CODE BLOCK END ===

=== CODE BLOCK ADDRESS 0x575a ===
  0x575a	mov    	eax, eax
  0x575c	dec    	eax
  0x575d	cmp    	dword ptr [edx + 0x10], 0
  0x5761	dec    	eax
  0x5762	cmovne  	eax, dword ptr [edx + 0x10]
  === BLOCK LINK ===
    0x5766
=== CODE BLOCK END ===

=== CODE BLOCK ADDRESS 0x5766 ===
  0x5766	dec    	eax
  0x5767	mov    	dword ptr [ecx + 0x10], eax
  0x576a	mov    	eax, dword ptr [edx - 0x14]
  0x576d	mov    	dword ptr [ecx + 0x18], eax
  0x5770	dec    	eax
  === BLOCK LINK ===
    0x5771
=== CODE BLOCK END ===

=== CODE BLOCK ADDRESS 0x5771 ===
  0x5771	mov    	eax, dword ptr [edx + 0x10]
  0x5774	dec    	esp
  0x5775	sub    	ebx, eax
  0x5777	inc    	esp
  0x5778	movzx  	ecx, word ptr [eax]
  === BLOCK LINK ===
    0x577b
=== CODE BLOCK END ===

=== CODE BLOCK ADDRESS 0x577b ===
  0x577b	inc    	esi
  0x577c	movzx  	eax, word ptr [eax + ebx]
  0x5780	inc    	ebp
  0x5781	sub    	ecx, eax
  0x5783	jne    	0x578e
  === BLOCK LINK ===
    0x5785
=== CODE BLOCK END ===

=== CODE BLOCK ADDRESS 0x5785 ===
  0x5785	dec    	eax
  0x5786	add    	eax, 2
  0x5789	inc    	ebp
  0x578a	test   	eax, eax
  0x578c	jne    	0x5777
  === BLOCK LINK ===
    0x578e
=== CODE BLOCK END ===

=== CODE BLOCK ADDRESS 0x578e ===
  0x578e	xor    	eax, eax
  0x5790	inc    	ebp
  0x5791	test   	ecx, ecx
  0x5793	sete   	al
  0x5796	or     	dword ptr [ecx + 0x1c], 0xffffffff
  === BLOCK LINK ===
    0x579a
=== CODE BLOCK END ===

=== CODE BLOCK ADDRESS 0x579a ===
  0x579a	and    	dword ptr [ecx + 0x24], 0
  0x579e	inc    	ecx
  0x579f	inc    	edx
  0x57a1	and    	dword ptr [ecx + 0x20], 0
  0x57a5	inc    	ebx
  === BLOCK LINK ===
    0x57a7
=== CODE BLOCK END ===

=== CODE BLOCK ADDRESS 0x57a7 ===
  0x57a7	mov    	dword ptr [ecx + 0x28], eax
  0x57aa	dec    	eax
  0x57ab	add    	edx, 0x30
  0x57ae	dec    	eax
  0x57af	add    	ecx, 0x30
  === BLOCK LINK ===
    0x57b2
=== CODE BLOCK END ===

=== CODE BLOCK ADDRESS 0x57b2 ===
  0x57b2	inc    	esp
  0x57b3	cmp    	edx, dword ptr [ebp + 0x30]
  0x57b6	jb     	0x572c
  === BLOCK LINK ===
    0x57bc
=== CODE BLOCK END ===

=== CODE BLOCK ADDRESS 0x57bc ===
  0x57bc	test   	edi, edi
  0x57be	jne    	0x57f6
  === BLOCK LINK ===
    0x57c0
=== CODE BLOCK END ===

=== CODE BLOCK ADDRESS 0x57c0 ===
  0x57c0	dec    	eax
  0x57c1	lea    	edx, [ebp + 0x48]
  0x57c4	mov    	dword ptr [ebp + 0x40], 0x1000
  0x57cb	mov    	ecx, 0x1000
  0x57d0	dec    	eax
  === BLOCK LINK ===
    0x57d1
=== CODE BLOCK END ===

=== CODE BLOCK ADDRESS 0x57d1 ===
  0x57d1	call   	dword ptr [0x5de9]
  === BLOCK LINK ===
    0x57d7
=== CODE BLOCK END ===

=== CODE BLOCK ADDRESS 0x57d7 ===
  0x57d7	nop    	dword ptr [eax + eax]
  0x57dc	test   	eax, eax
  0x57de	je     	0x56a9
  === BLOCK LINK ===
    0x57e4
=== CODE BLOCK END ===

=== CODE BLOCK ADDRESS 0x57e4 ===
  0x57e4	xor    	edx, edx
  0x57e6	mov    	ecx, eax
  0x57e8	call   	0x7ea4
  === BLOCK LINK ===
    0x57ed
=== CODE BLOCK END ===

=== CODE BLOCK ADDRESS 0x57ed ===
  0x57ed	lea    	ecx, [edi + 2]
  0x57f0	call   	0x8378
  === BLOCK LINK ===
    0x57f5
=== CODE BLOCK END ===

=== CODE BLOCK ADDRESS 0x57f5 ===
  0x57f5	int3   	
  0x57f6	dec    	eax
  0x57f7	mov    	ecx, dword ptr [ebp - 0x10]
  0x57fa	dec    	eax
  0x57fb	call   	dword ptr [0x599f]
  === BLOCK LINK ===
    0x5801
=== CODE BLOCK END ===

=== CODE BLOCK ADDRESS 0x5801 ===
  0x5801	nop    	dword ptr [eax + eax]
  0x5806	xor    	eax, eax
  0x5808	inc    	ecx
  0x5809	mov    	dword ptr [edi], ebx
  0x580b	dec    	eax
  === BLOCK LINK ===
    0x580c
=== CODE BLOCK END ===

=== CODE BLOCK ADDRESS 0x580c ===
  0x580c	mov    	ebx, dword ptr [esp + 0x78]
  0x5810	dec    	eax
  0x5811	add    	esp, 0x40
  0x5814	inc    	ecx
  0x5815	pop    	edi
  === BLOCK LINK ===
    0x5816
=== CODE BLOCK END ===

=== CODE BLOCK ADDRESS 0x5816 ===
  0x5816	inc    	ecx
  0x5817	pop    	esi
  0x5818	pop    	edi
  0x5819	pop    	esi
  0x581a	pop    	ebp
  === BLOCK LINK ===
    0x581b
=== CODE BLOCK END ===

=== CODE BLOCK ADDRESS 0x581b ===
  0x581b	ret    	
  0x581c	int3   	
  0x581d	int3   	
  0x581e	int3   	
  0x581f	int3   	
  === BLOCK LINK ===
    0x5820
=== CODE BLOCK END ===

=== CODE BLOCK ADDRESS 0x1525 ===
=== CODE BLOCK END ===

=== CODE BLOCK ADDRESS 0x5820 ===
  0x5820	int3   	
  0x5821	int3   	
  0x5822	int3   	
  0x5823	int3   	
  0x5824	dec    	esp
  === BLOCK LINK ===
    0x5825
=== CODE BLOCK END ===

=== CODE BLOCK ADDRESS 0x5825 ===
  0x5825	mov    	ebx, esp
  0x5827	dec    	ecx
  0x5828	mov    	dword ptr [ebx + 0x10], ebx
  0x582b	push   	edi
  0x582c	dec    	eax
  === BLOCK LINK ===
    0x582d
=== CODE BLOCK END ===

=== CODE BLOCK ADDRESS 0x582d ===
  0x582d	sub    	esp, 0x60
  0x5830	dec    	eax
  0x5831	mov    	eax, dword ptr [0x8a51]
  0x5837	dec    	eax
  0x5838	xor    	eax, esp
  === BLOCK LINK ===
    0x583a
=== CODE BLOCK END ===

=== CODE BLOCK ADDRESS 0x583a ===
  0x583a	dec    	eax
  0x583b	mov    	dword ptr [esp + 0x50], eax
  0x583f	xor    	ebx, ebx
  0x5841	mov    	dword ptr [esp + 0x34], 1
  0x5849	dec    	eax
  === BLOCK LINK ===
    0x584a
=== CODE BLOCK END ===

=== CODE BLOCK ADDRESS 0x584a ===
  0x584a	mov    	edi, ecx
  0x584c	dec    	ecx
  0x584d	mov    	dword ptr [ebx - 0x30], ebx
  0x5850	dec    	ecx
  0x5851	lea    	eax, [ebx - 0x30]
  === BLOCK LINK ===
    0x5854
=== CODE BLOCK END ===

=== CODE BLOCK ADDRESS 0x5854 ===
  0x5854	mov    	dword ptr [esp + 0x30], 0xe
  0x585c	inc    	ebp
  0x585d	xor    	eax, eax
  0x585f	dec    	ecx
  0x5860	mov    	dword ptr [ebx - 0x48], eax
  === BLOCK LINK ===
    0x5863
=== CODE BLOCK END ===

=== CODE BLOCK ADDRESS 0x5863 ===
  0x5863	inc    	esp
  0x5864	lea    	ecx, [ebx + 1]
  0x5867	dec    	eax
  0x5868	mov    	ecx, 0x80000001
  0x586e	dec    	eax
  === BLOCK LINK ===
    0x586f
=== CODE BLOCK END ===

=== CODE BLOCK ADDRESS 0x586f ===
  0x586f	lea    	edx, [0x5e5b]
  0x5875	dec    	eax
  0x5876	call   	dword ptr [0x5aec]
  === BLOCK LINK ===
    0x587c
=== CODE BLOCK END ===

=== CODE BLOCK ADDRESS 0x587c ===
  0x587c	nop    	dword ptr [eax + eax]
  0x5881	test   	eax, eax
  0x5883	jne    	0x58f6
  === BLOCK LINK ===
    0x5885
=== CODE BLOCK END ===

=== CODE BLOCK ADDRESS 0x5885 ===
  0x5885	dec    	eax
  0x5886	mov    	ecx, dword ptr [esp + 0x38]
  0x588a	dec    	eax
  0x588b	lea    	eax, [esp + 0x30]
  0x588f	dec    	eax
  === BLOCK LINK ===
    0x5890
=== CODE BLOCK END ===

=== CODE BLOCK ADDRESS 0x5890 ===
  0x5890	mov    	dword ptr [esp + 0x28], eax
  0x5894	dec    	esp
  0x5895	lea    	ecx, [esp + 0x34]
  0x5899	dec    	eax
  0x589a	lea    	eax, [esp + 0x40]
  === BLOCK LINK ===
    0x589e
=== CODE BLOCK END ===

=== CODE BLOCK ADDRESS 0x589e ===
  0x589e	inc    	ebp
  0x589f	xor    	eax, eax
  0x58a1	dec    	eax
  0x58a2	lea    	edx, [0x60e0]
  0x58a8	dec    	eax
  === BLOCK LINK ===
    0x58a9
=== CODE BLOCK END ===

=== CODE BLOCK ADDRESS 0x58a9 ===
  0x58a9	mov    	dword ptr [esp + 0x20], eax
  0x58ad	dec    	eax
  0x58ae	call   	dword ptr [0x5ac4]
  === BLOCK LINK ===
    0x58b4
=== CODE BLOCK END ===

=== CODE BLOCK ADDRESS 0x58b4 ===
  0x58b4	nop    	dword ptr [eax + eax]
  0x58b9	test   	eax, eax
  0x58bb	jne    	0x58dc
  === BLOCK LINK ===
    0x58bd
=== CODE BLOCK END ===

=== CODE BLOCK ADDRESS 0x58bd ===
  0x58bd	dec    	eax
  0x58be	lea    	edx, [0x60bc]
  0x58c4	dec    	eax
  0x58c5	lea    	ecx, [esp + 0x40]
  0x58c9	dec    	eax
  === BLOCK LINK ===
    0x58ca
=== CODE BLOCK END ===

=== CODE BLOCK ADDRESS 0x58ca ===
  0x58ca	call   	dword ptr [0x5b68]
  === BLOCK LINK ===
    0x58d0
=== CODE BLOCK END ===

=== CODE BLOCK ADDRESS 0x58d0 ===
  0x58d0	nop    	dword ptr [eax + eax]
  0x58d5	test   	eax, eax
  0x58d7	sete   	bl
  0x58da	jmp    	0x58e1
  === BLOCK LINK ===
    0x58dc
=== CODE BLOCK END ===

=== CODE BLOCK ADDRESS 0x58dc ===
  0x58dc	mov    	ebx, 1
  0x58e1	mov    	dword ptr [edi], ebx
  0x58e3	dec    	eax
  0x58e4	mov    	ecx, dword ptr [esp + 0x38]
  0x58e8	dec    	eax
  === BLOCK LINK ===
    0x58e9
=== CODE BLOCK END ===

=== CODE BLOCK ADDRESS 0x58e9 ===
  0x58e9	call   	dword ptr [0x5a91]
  === BLOCK LINK ===
    0x58ef
=== CODE BLOCK END ===

=== CODE BLOCK ADDRESS 0x58ef ===
  0x58ef	nop    	dword ptr [eax + eax]
  0x58f4	jmp    	0x58fc
  === BLOCK LINK ===
    0x58f6
=== CODE BLOCK END ===

=== CODE BLOCK ADDRESS 0x58f6 ===
  0x58f6	mov    	dword ptr [edi], 1
  0x58fc	dec    	eax
  0x58fd	mov    	ecx, dword ptr [esp + 0x50]
  0x5901	dec    	eax
  0x5902	xor    	ecx, esp
  === BLOCK LINK ===
    0x5904
=== CODE BLOCK END ===

=== CODE BLOCK ADDRESS 0x5904 ===
  0x5904	call   	0x2900
  === BLOCK LINK ===
    0x5909
=== CODE BLOCK END ===

=== CODE BLOCK ADDRESS 0x5909 ===
  0x5909	dec    	eax
  0x590a	mov    	ebx, dword ptr [esp + 0x78]
  0x590e	dec    	eax
  0x590f	add    	esp, 0x60
  0x5912	pop    	edi
  === BLOCK LINK ===
    0x5913
=== CODE BLOCK END ===

=== CODE BLOCK ADDRESS 0x5913 ===
  0x5913	ret    	
  0x5914	int3   	
  0x5915	int3   	
  0x5916	int3   	
  0x5917	int3   	
  === BLOCK LINK ===
    0x5918
=== CODE BLOCK END ===

=== CODE BLOCK ADDRESS 0x14d0 ===
  0x14d0	movzx  	eax, word ptr [ecx]
  0x14d3	inc    	ecx
  0x14d4	mov    	ebx, 1
  === BLOCK LINK ===
    0x14d9
=== CODE BLOCK END ===

=== CODE BLOCK ADDRESS 0x5918 ===
  0x5918	int3   	
  0x5919	int3   	
  0x591a	int3   	
  0x591b	int3   	
  0x591c	dec    	esp
  === BLOCK LINK ===
    0x591d
=== CODE BLOCK END ===

=== CODE BLOCK ADDRESS 0x591d ===
  0x591d	mov    	ebx, esp
  0x591f	push   	ebx
  0x5920	dec    	eax
  0x5921	sub    	esp, 0x50
  0x5924	dec    	ecx
  === BLOCK LINK ===
    0x5925
=== CODE BLOCK END ===

=== CODE BLOCK ADDRESS 0x5925 ===
  0x5925	lea    	eax, [ebx + 0x10]
  0x5928	mov    	ebx, ecx
  0x592a	dec    	ecx
  0x592b	mov    	dword ptr [ebx - 0x18], eax
  0x592e	dec    	eax
  === BLOCK LINK ===
    0x592f
=== CODE BLOCK END ===

=== CODE BLOCK ADDRESS 0x592f ===
  0x592f	lea    	edx, [0x5d9b]
  0x5935	dec    	ecx
  0x5936	lea    	eax, [ebx + 0x18]
  0x5939	inc    	ebp
  0x593a	xor    	ecx, ecx
  === BLOCK LINK ===
    0x593c
=== CODE BLOCK END ===

=== CODE BLOCK ADDRESS 0x593c ===
  0x593c	dec    	ecx
  0x593d	mov    	dword ptr [ebx - 0x20], eax
  0x5940	inc    	ebp
  0x5941	xor    	eax, eax
  0x5943	dec    	ecx
  === BLOCK LINK ===
    0x5944
=== CODE BLOCK END ===

=== CODE BLOCK ADDRESS 0x5944 ===
  0x5944	and    	dword ptr [ebx - 0x28], 0
  0x5948	dec    	eax
  0x5949	mov    	ecx, 0x80000001
  0x594f	mov    	dword ptr [esp + 0x28], 0xf003f
  0x5957	and    	dword ptr [esp + 0x20], 0
  === BLOCK LINK ===
    0x595c
=== CODE BLOCK END ===

=== CODE BLOCK ADDRESS 0x595c ===
  0x595c	dec    	eax
  0x595d	call   	dword ptr [0x5a25]
  === BLOCK LINK ===
    0x5963
=== CODE BLOCK END ===

=== CODE BLOCK ADDRESS 0x5963 ===
  0x5963	nop    	dword ptr [eax + eax]
  0x5968	test   	eax, eax
  0x596a	jne    	0x59cb
  === BLOCK LINK ===
    0x596c
=== CODE BLOCK END ===

=== CODE BLOCK ADDRESS 0x596c ===
  0x596c	mov    	eax, ebx
  0x596e	dec    	eax
  0x596f	lea    	edx, [0x64d3]
  0x5975	neg    	eax
  0x5977	inc    	ecx
  === BLOCK LINK ===
    0x5978
=== CODE BLOCK END ===

=== CODE BLOCK ADDRESS 0x5978 ===
  0x5978	mov    	ecx, 1
  0x597d	dec    	eax
  0x597e	lea    	eax, [0x5ffc]
  0x5984	sbb    	ecx, ecx
  0x5986	and    	ecx, 2
  === BLOCK LINK ===
    0x5989
=== CODE BLOCK END ===

=== CODE BLOCK ADDRESS 0x5989 ===
  0x5989	add    	ecx, 6
  0x598c	mov    	dword ptr [esp + 0x28], ecx
  0x5990	test   	ebx, ebx
  0x5992	dec    	eax
  0x5993	mov    	ecx, dword ptr [esp + 0x70]
  === BLOCK LINK ===
    0x5997
=== CODE BLOCK END ===

=== CODE BLOCK ADDRESS 0x5997 ===
  0x5997	dec    	eax
  0x5998	cmove  	eax, edx
  0x599b	inc    	ebp
  0x599c	xor    	eax, eax
  0x599e	dec    	eax
  === BLOCK LINK ===
    0x599f
=== CODE BLOCK END ===

=== CODE BLOCK ADDRESS 0x599f ===
  0x599f	lea    	edx, [0x5fe3]
  0x59a5	dec    	eax
  0x59a6	mov    	dword ptr [esp + 0x20], eax
  0x59aa	dec    	eax
  0x59ab	call   	dword ptr [0x59bf]
  === BLOCK LINK ===
    0x59b1
=== CODE BLOCK END ===

=== CODE BLOCK ADDRESS 0x59b1 ===
  0x59b1	nop    	dword ptr [eax + eax]
  0x59b6	dec    	eax
  0x59b7	mov    	ecx, dword ptr [esp + 0x70]
  0x59bb	mov    	ebx, eax
  0x59bd	dec    	eax
  === BLOCK LINK ===
    0x59be
=== CODE BLOCK END ===

=== CODE BLOCK ADDRESS 0x59be ===
  0x59be	call   	dword ptr [0x59bc]
  === BLOCK LINK ===
    0x59c4
=== CODE BLOCK END ===

=== CODE BLOCK ADDRESS 0x59c4 ===
  0x59c4	nop    	dword ptr [eax + eax]
  0x59c9	mov    	eax, ebx
  0x59cb	dec    	eax
  0x59cc	add    	esp, 0x50
  0x59cf	pop    	ebx
  === BLOCK LINK ===
    0x59d0
=== CODE BLOCK END ===

=== CODE BLOCK ADDRESS 0x59d0 ===
  0x59d0	ret    	
  0x59d1	int3   	
  0x59d2	int3   	
  0x59d3	int3   	
  0x59d4	int3   	
  === BLOCK LINK ===
    0x59d5
=== CODE BLOCK END ===

=== CODE BLOCK ADDRESS 0x153c ===
=== CODE BLOCK END ===

=== CODE BLOCK ADDRESS 0x59d5 ===
  0x59d5	int3   	
  0x59d6	int3   	
  0x59d7	int3   	
  0x59d8	dec    	eax
  0x59d9	sub    	esp, 0x28
  === BLOCK LINK ===
    0x59dc
=== CODE BLOCK END ===

=== CODE BLOCK ADDRESS 0x59dc ===
  0x59dc	call   	0x4e4c
  === BLOCK LINK ===
    0x59e1
=== CODE BLOCK END ===

=== CODE BLOCK ADDRESS 0x59e1 ===
  0x59e1	dec    	eax
  0x59e2	test   	eax, eax
  0x59e4	dec    	eax
  0x59e5	lea    	ecx, [0x5f89]
  0x59eb	dec    	eax
  === BLOCK LINK ===
    0x59ec
=== CODE BLOCK END ===

=== CODE BLOCK ADDRESS 0x59ec ===
  0x59ec	cmovne  	ecx, eax
  0x59ef	dec    	eax
  0x59f0	mov    	dword ptr [0x11cd2], ecx
  0x59f6	dec    	eax
  0x59f7	add    	esp, 0x28
  === BLOCK LINK ===
    0x59fa
=== CODE BLOCK END ===

=== CODE BLOCK ADDRESS 0x59fa ===
  0x59fa	ret    	
  0x59fb	int3   	
  0x59fc	int3   	
  0x59fd	int3   	
  0x59fe	int3   	
  === BLOCK LINK ===
    0x59ff
=== CODE BLOCK END ===

=== CODE BLOCK ADDRESS 0x1494 ===
  0x1494	movzx  	eax, word ptr [ecx]
  0x1497	test   	ax, ax
  0x149a	je     	0x1545
  === BLOCK LINK ===
    0x14a0
    0x1545
=== CODE BLOCK END ===

=== CODE BLOCK ADDRESS 0x59ff ===
  0x59ff	int3   	
  0x5a00	int3   	
  0x5a01	int3   	
  0x5a02	int3   	
  0x5a03	int3   	
  === BLOCK LINK ===
    0x5a04
=== CODE BLOCK END ===

=== CODE BLOCK ADDRESS 0x5a04 ===
  0x5a04	dec    	eax
  0x5a05	sub    	esp, 0x328
  0x5a0b	dec    	eax
  0x5a0c	mov    	eax, dword ptr [0x8876]
  0x5a12	dec    	eax
  === BLOCK LINK ===
    0x5a13
=== CODE BLOCK END ===

=== CODE BLOCK ADDRESS 0x5a13 ===
  0x5a13	xor    	eax, esp
  0x5a15	dec    	eax
  0x5a16	mov    	dword ptr [esp + 0x310], eax
  0x5a1d	mov    	eax, 0x4b4
  0x5a22	mov    	edx, ecx
  === BLOCK LINK ===
    0x5a24
=== CODE BLOCK END ===

=== CODE BLOCK ADDRESS 0x5a24 ===
  0x5a24	cmp    	ecx, eax
  0x5a26	ja     	0x5a78
  === BLOCK LINK ===
    0x5a28
=== CODE BLOCK END ===

=== CODE BLOCK ADDRESS 0x5a28 ===
  0x5a28	je     	0x5b6a
  === BLOCK LINK ===
    0x5a2e
=== CODE BLOCK END ===

=== CODE BLOCK ADDRESS 0x5a2e ===
  0x5a2e	mov    	eax, ecx
  0x5a30	test   	ecx, ecx
  0x5a32	je     	0x5b88
  === BLOCK LINK ===
    0x5a38
=== CODE BLOCK END ===

=== CODE BLOCK ADDRESS 0x5a38 ===
  0x5a38	sub    	eax, 0x1f
  0x5a3b	je     	0x5b6a
  === BLOCK LINK ===
    0x5a41
=== CODE BLOCK END ===

=== CODE BLOCK ADDRESS 0x5a41 ===
  0x5a41	sub    	eax, 0x38
  0x5a44	je     	0x5a6e
  === BLOCK LINK ===
    0x5a46
=== CODE BLOCK END ===

=== CODE BLOCK ADDRESS 0x5a46 ===
  0x5a46	sub    	eax, 0x53
  0x5a49	je     	0x5b6a
  === BLOCK LINK ===
    0x5a4f
=== CODE BLOCK END ===

=== CODE BLOCK ADDRESS 0x5a4f ===
  0x5a4f	sub    	eax, 0x13d
  0x5a54	je     	0x5a6e
  === BLOCK LINK ===
    0x5a56
=== CODE BLOCK END ===

=== CODE BLOCK ADDRESS 0x5a56 ===
  0x5a56	sub    	eax, 0x2ca
  0x5a5b	je     	0x5b6a
  === BLOCK LINK ===
    0x5a61
=== CODE BLOCK END ===

=== CODE BLOCK ADDRESS 0x5a61 ===
  0x5a61	cmp    	eax, 2
  0x5a64	jne    	0x5ac2
  === BLOCK LINK ===
    0x5a66
=== CODE BLOCK END ===

=== CODE BLOCK ADDRESS 0x5a66 ===
  0x5a66	lea    	ecx, [eax + 0x41]
  0x5a69	jmp    	0x5b76
  === BLOCK LINK ===
    0x5a6e
=== CODE BLOCK END ===

=== CODE BLOCK ADDRESS 0x5a6e ===
  0x5a6e	mov    	ecx, 0x57
  0x5a73	jmp    	0x5b76
  === BLOCK LINK ===
    0x5a78
=== CODE BLOCK END ===

=== CODE BLOCK ADDRESS 0x5a78 ===
  0x5a78	cmp    	edx, 0x4b6
  0x5a7e	jbe    	0x5b71
  === BLOCK LINK ===
    0x5a84
=== CODE BLOCK END ===

=== CODE BLOCK ADDRESS 0x5a84 ===
  0x5a84	cmp    	edx, 0x4b7
  0x5a8a	je     	0x5b6a
  === BLOCK LINK ===
    0x5a90
=== CODE BLOCK END ===

=== CODE BLOCK ADDRESS 0x5a90 ===
  0x5a90	cmp    	edx, 0x4b8
  0x5a96	je     	0x5add
  === BLOCK LINK ===
    0x5a98
=== CODE BLOCK END ===

=== CODE BLOCK ADDRESS 0x5a98 ===
  0x5a98	cmp    	edx, 0x4c6
  0x5a9e	je     	0x5ad3
  === BLOCK LINK ===
    0x5aa0
=== CODE BLOCK END ===

=== CODE BLOCK ADDRESS 0x5aa0 ===
  0x5aa0	cmp    	edx, 0x89a
  0x5aa6	je     	0x5ac9
  === BLOCK LINK ===
    0x5aa8
=== CODE BLOCK END ===

=== CODE BLOCK ADDRESS 0x5aa8 ===
  0x5aa8	mov    	ecx, 0x8ca
  0x5aad	cmp    	edx, ecx
  0x5aaf	je     	0x5b76
  === BLOCK LINK ===
    0x5ab5
=== CODE BLOCK END ===

=== CODE BLOCK ADDRESS 0x5ab5 ===
  0x5ab5	mov    	ecx, 0x964
  0x5aba	cmp    	edx, ecx
  0x5abc	je     	0x5b76
  === BLOCK LINK ===
    0x5ac2
=== CODE BLOCK END ===

=== CODE BLOCK ADDRESS 0x5ac2 ===
  0x5ac2	mov    	ecx, edx
  0x5ac4	jmp    	0x5b76
  === BLOCK LINK ===
    0x5ac9
=== CODE BLOCK END ===

=== CODE BLOCK ADDRESS 0x5ac9 ===
  0x5ac9	mov    	ecx, 0xebf
  0x5ace	jmp    	0x5b76
  === BLOCK LINK ===
    0x5ad3
=== CODE BLOCK END ===

=== CODE BLOCK ADDRESS 0x5ad3 ===
  0x5ad3	mov    	ecx, 0x85a
  0x5ad8	jmp    	0x5b76
  === BLOCK LINK ===
    0x5add
=== CODE BLOCK END ===

=== CODE BLOCK ADDRESS 0x5add ===
  0x5add	dec    	esp
  0x5ade	lea    	ecx, [esp + 0x90]
  0x5ae5	mov    	dword ptr [esp + 0x20], 0x40
  0x5aed	inc    	ecx
  0x5aee	mov    	eax, 0x100
  === BLOCK LINK ===
    0x5af3
=== CODE BLOCK END ===

=== CODE BLOCK ADDRESS 0x5af3 ===
  0x5af3	dec    	eax
  0x5af4	lea    	edx, [esp + 0x110]
  0x5afb	dec    	eax
  0x5afc	lea    	ecx, [esp + 0x30]
  0x5b00	dec    	eax
  === BLOCK LINK ===
    0x5b01
=== CODE BLOCK END ===

=== CODE BLOCK ADDRESS 0x5b01 ===
  0x5b01	call   	dword ptr [0x56a9]
  === BLOCK LINK ===
    0x5b07
=== CODE BLOCK END ===

=== CODE BLOCK ADDRESS 0x5b07 ===
  0x5b07	nop    	dword ptr [eax + eax]
  0x5b0c	test   	eax, eax
  0x5b0e	jne    	0x5b6a
  === BLOCK LINK ===
    0x5b10
=== CODE BLOCK END ===

=== CODE BLOCK ADDRESS 0x5b10 ===
  0x5b10	mov    	ecx, dword ptr [esp + 0x30]
  0x5b14	inc    	esp
  0x5b15	lea    	eax, [eax + 0xa]
  0x5b18	dec    	eax
  0x5b19	lea    	edx, [esp + 0x40]
  === BLOCK LINK ===
    0x5b1d
=== CODE BLOCK END ===

=== CODE BLOCK ADDRESS 0x5b1d ===
  0x5b1d	dec    	eax
  0x5b1e	call   	dword ptr [0x591c]
  === BLOCK LINK ===
    0x5b24
=== CODE BLOCK END ===

=== CODE BLOCK ADDRESS 0x5b24 ===
  0x5b24	nop    	dword ptr [eax + eax]
  0x5b29	mov    	edx, 1
  0x5b2e	mov    	ecx, 0xdae
  0x5b33	dec    	eax
  0x5b34	mov    	dword ptr [0x108e6], eax
  === BLOCK LINK ===
    0x5b3a
=== CODE BLOCK END ===

=== CODE BLOCK ADDRESS 0x5b3a ===
  0x5b3a	call   	0x7ea4
  === BLOCK LINK ===
    0x5b3f
=== CODE BLOCK END ===

=== CODE BLOCK ADDRESS 0x5b3f ===
  0x5b3f	dec    	eax
  0x5b40	lea    	edx, [esp + 0x110]
  0x5b47	dec    	eax
  0x5b48	lea    	ecx, [0x6302]
  0x5b4e	call   	0x86c8
  === BLOCK LINK ===
    0x5b53
=== CODE BLOCK END ===

=== CODE BLOCK ADDRESS 0x5b53 ===
  0x5b53	call   	0x2330
  === BLOCK LINK ===
    0x5b58
=== CODE BLOCK END ===

=== CODE BLOCK ADDRESS 0x5b58 ===
  0x5b58	mov    	ecx, 2
  0x5b5d	dec    	eax
  0x5b5e	call   	dword ptr [0x58bc]
  === BLOCK LINK ===
    0x5b64
=== CODE BLOCK END ===

=== CODE BLOCK ADDRESS 0x5b64 ===
  0x5b64	nop    	dword ptr [eax + eax]
  0x5b69	int3   	
  0x5b6a	mov    	ecx, 0x3b
  0x5b6f	jmp    	0x5b76
  === BLOCK LINK ===
    0x5b71
=== CODE BLOCK END ===

=== CODE BLOCK ADDRESS 0x5b71 ===
  0x5b71	mov    	ecx, 0xe5f
  0x5b76	xor    	edx, edx
  0x5b78	call   	0x7ea4
  === BLOCK LINK ===
    0x5b7d
=== CODE BLOCK END ===

=== CODE BLOCK ADDRESS 0x5b7d ===
  0x5b7d	mov    	ecx, 2
  0x5b82	call   	0x8378
  === BLOCK LINK ===
    0x5b87
=== CODE BLOCK END ===

=== CODE BLOCK ADDRESS 0x5b87 ===
  0x5b87	int3   	
  0x5b88	dec    	eax
  0x5b89	mov    	ecx, dword ptr [esp + 0x310]
  0x5b90	dec    	eax
  0x5b91	xor    	ecx, esp
  === BLOCK LINK ===
    0x5b93
=== CODE BLOCK END ===

=== CODE BLOCK ADDRESS 0x5b93 ===
  0x5b93	call   	0x2900
  === BLOCK LINK ===
    0x5b98
=== CODE BLOCK END ===

=== CODE BLOCK ADDRESS 0x5b98 ===
  0x5b98	dec    	eax
  0x5b99	add    	esp, 0x328
  0x5b9f	ret    	
  0x5ba0	int3   	
  0x5ba1	int3   	
  === BLOCK LINK ===
    0x5ba2
=== CODE BLOCK END ===

=== CODE BLOCK ADDRESS 0x5ba2 ===
  0x5ba2	int3   	
  0x5ba3	int3   	
  0x5ba4	int3   	
  0x5ba5	int3   	
  0x5ba6	int3   	
  === BLOCK LINK ===
    0x5ba7
=== CODE BLOCK END ===

=== CODE BLOCK ADDRESS 0x5ba7 ===
  0x5ba7	int3   	
  0x5ba8	inc    	eax
  0x5ba9	push   	ebx
  0x5baa	dec    	eax
  0x5bab	sub    	esp, 0x20
  === BLOCK LINK ===
    0x5bae
=== CODE BLOCK END ===

=== CODE BLOCK ADDRESS 0x5bae ===
  0x5bae	xor    	ebx, ebx
  0x5bb0	cmp    	word ptr [ecx], bx
  0x5bb3	je     	0x5bf7
  === BLOCK LINK ===
    0x5bb5
=== CODE BLOCK END ===

=== CODE BLOCK ADDRESS 0x5bb5 ===
  0x5bb5	cmp    	word ptr [ecx + 2], bx
  0x5bb9	je     	0x5bf7
  === BLOCK LINK ===
    0x5bbb
=== CODE BLOCK END ===

=== CODE BLOCK ADDRESS 0x5bbb ===
  0x5bbb	dec    	eax
  0x5bbc	add    	ecx, 4
  0x5bbf	dec    	eax
  0x5bc0	lea    	edx, [0x627a]
  0x5bc6	dec    	eax
  === BLOCK LINK ===
    0x5bc7
=== CODE BLOCK END ===

=== CODE BLOCK ADDRESS 0x5bc7 ===
  0x5bc7	call   	dword ptr [0x58bb]
  === BLOCK LINK ===
    0x5bcd
=== CODE BLOCK END ===

=== CODE BLOCK ADDRESS 0x5bcd ===
  0x5bcd	nop    	dword ptr [eax + eax]
  0x5bd2	dec    	eax
  0x5bd3	test   	eax, eax
  0x5bd5	je     	0x5bf7
  === BLOCK LINK ===
    0x5bd7
=== CODE BLOCK END ===

=== CODE BLOCK ADDRESS 0x5bd7 ===
  0x5bd7	dec    	eax
  0x5bd8	lea    	edx, [eax + 2]
  0x5bdb	dec    	eax
  0x5bdc	lea    	ecx, [0x62d6]
  0x5be2	dec    	eax
  === BLOCK LINK ===
    0x5be3
=== CODE BLOCK END ===

=== CODE BLOCK ADDRESS 0x5be3 ===
  0x5be3	call   	dword ptr [0x584f]
  === BLOCK LINK ===
    0x5be9
=== CODE BLOCK END ===

=== CODE BLOCK ADDRESS 0x5be9 ===
  0x5be9	nop    	dword ptr [eax + eax]
  0x5bee	test   	eax, eax
  0x5bf0	sete   	bl
  0x5bf3	mov    	eax, ebx
  0x5bf5	jmp    	0x5bf9
  === BLOCK LINK ===
    0x5bf7
=== CODE BLOCK END ===

=== CODE BLOCK ADDRESS 0x5bf7 ===
  0x5bf7	xor    	eax, eax
  0x5bf9	dec    	eax
  0x5bfa	add    	esp, 0x20
  0x5bfd	pop    	ebx
  0x5bfe	ret    	
  === BLOCK LINK ===
    0x5bff
=== CODE BLOCK END ===

=== CODE BLOCK ADDRESS 0x5bff ===
  0x5bff	int3   	
  0x5c00	int3   	
  0x5c01	int3   	
  0x5c02	int3   	
  0x5c03	int3   	
  === BLOCK LINK ===
    0x5c04
=== CODE BLOCK END ===

=== CODE BLOCK ADDRESS 0x5c04 ===
  0x5c04	int3   	
  0x5c05	int3   	
  0x5c06	int3   	
  0x5c07	int3   	
  0x5c08	dec    	eax
  === BLOCK LINK ===
    0x5c09
=== CODE BLOCK END ===

=== CODE BLOCK ADDRESS 0x5c09 ===
  0x5c09	mov    	dword ptr [esp + 0x20], ebx
  0x5c0d	push   	ebp
  0x5c0e	push   	esi
  0x5c0f	push   	edi
  0x5c10	inc    	ecx
  === BLOCK LINK ===
    0x5c11
=== CODE BLOCK END ===

=== CODE BLOCK ADDRESS 0x5c11 ===
  0x5c11	push   	esp
  0x5c12	inc    	ecx
  0x5c13	push   	ebp
  0x5c14	inc    	ecx
  0x5c15	push   	esi
  === BLOCK LINK ===
    0x5c16
=== CODE BLOCK END ===

=== CODE BLOCK ADDRESS 0x5c16 ===
  0x5c16	inc    	ecx
  0x5c17	push   	edi
  0x5c18	dec    	eax
  0x5c19	lea    	ebp, [esp - 0x20]
  0x5c1d	dec    	eax
  === BLOCK LINK ===
    0x5c1e
=== CODE BLOCK END ===

=== CODE BLOCK ADDRESS 0x5c1e ===
  0x5c1e	sub    	esp, 0x120
  0x5c24	dec    	eax
  0x5c25	mov    	eax, dword ptr [0x865d]
  0x5c2b	dec    	eax
  0x5c2c	xor    	eax, esp
  === BLOCK LINK ===
    0x5c2e
=== CODE BLOCK END ===

=== CODE BLOCK ADDRESS 0x5c2e ===
  0x5c2e	dec    	eax
  0x5c2f	mov    	dword ptr [ebp + 0x10], eax
  0x5c32	xor    	ebx, ebx
  0x5c34	dec    	eax
  0x5c35	mov    	dword ptr [ebp - 0x78], ecx
  === BLOCK LINK ===
    0x5c38
=== CODE BLOCK END ===

=== CODE BLOCK ADDRESS 0x5c38 ===
  0x5c38	mov    	dword ptr [esp + 0x64], ebx
  0x5c3c	inc    	esp
  0x5c3d	mov    	esp, ebx
  0x5c3f	mov    	dword ptr [esp + 0x50], ebx
  0x5c43	dec    	ebp
  === BLOCK LINK ===
    0x5c44
=== CODE BLOCK END ===

=== CODE BLOCK ADDRESS 0x5c44 ===
  0x5c44	mov    	edi, eax
  0x5c46	mov    	dword ptr [esp + 0x5c], ebx
  0x5c4a	dec    	esp
  0x5c4b	mov    	ebp, edx
  0x5c4d	mov    	dword ptr [esp + 0x60], ebx
  === BLOCK LINK ===
    0x5c51
=== CODE BLOCK END ===

=== CODE BLOCK ADDRESS 0x5c51 ===
  0x5c51	dec    	eax
  0x5c52	mov    	edi, ecx
  0x5c54	dec    	eax
  0x5c55	mov    	dword ptr [ebp - 0x80], ebx
  0x5c58	dec    	eax
  === BLOCK LINK ===
    0x5c59
=== CODE BLOCK END ===

=== CODE BLOCK ADDRESS 0x5c59 ===
  0x5c59	mov    	esi, ecx
  0x5c5b	mov    	dword ptr [esp + 0x74], ebx
  0x5c5f	mov    	dword ptr [esp + 0x58], ebx
  0x5c63	mov    	dword ptr [esp + 0x6c], ebx
  0x5c67	mov    	dword ptr [esp + 0x68], ebx
  === BLOCK LINK ===
    0x5c6b
=== CODE BLOCK END ===

=== CODE BLOCK ADDRESS 0x5c6b ===
  0x5c6b	mov    	dword ptr [esp + 0x70], ebx
  0x5c6f	call   	0x59d8
  === BLOCK LINK ===
    0x5c74
=== CODE BLOCK END ===

=== CODE BLOCK ADDRESS 0x5c74 ===
  0x5c74	lea    	eax, [ebx + 0x5c]
  0x5c77	dec    	esp
  0x5c78	lea    	esi, [0x10802]
  0x5c7e	dec    	ebp
  0x5c7f	test   	ebp, ebp
  === BLOCK LINK ===
    0x5c81
=== CODE BLOCK END ===

=== CODE BLOCK ADDRESS 0x5c81 ===
  0x5c81	je     	0x5ccf
  === BLOCK LINK ===
    0x5c83
=== CODE BLOCK END ===

=== CODE BLOCK ADDRESS 0x5c83 ===
  0x5c83	inc    	cx
  0x5c85	cmp    	dword ptr [ebp], eax
  0x5c88	jne    	0x5c95
  === BLOCK LINK ===
    0x5c8a
=== CODE BLOCK END ===

=== CODE BLOCK ADDRESS 0x5c8a ===
  0x5c8a	dec    	ebp
  0x5c8b	lea    	eax, [ebp + 4]
  0x5c8e	inc    	cx
  0x5c90	cmp    	dword ptr [ebp + 2], eax
  0x5c93	je     	0x5c98
  === BLOCK LINK ===
    0x5c95
=== CODE BLOCK END ===

=== CODE BLOCK ADDRESS 0x5c95 ===
  0x5c95	dec    	ebp
  0x5c96	mov    	eax, ebp
  0x5c98	inc    	ecx
  0x5c99	mov    	ecx, 0x104
  0x5c9e	dec    	ecx
  === BLOCK LINK ===
    0x5c9f
=== CODE BLOCK END ===

=== CODE BLOCK ADDRESS 0x5c9f ===
  0x5c9f	mov    	ecx, esi
  0x5ca1	inc    	ecx
  0x5ca2	lea    	edx, [ecx + 1]
  0x5ca5	dec    	eax
  0x5ca6	call   	dword ptr [0x57f4]
  === BLOCK LINK ===
    0x5cac
=== CODE BLOCK END ===

=== CODE BLOCK ADDRESS 0x5cac ===
  0x5cac	nop    	dword ptr [eax + eax]
  0x5cb1	mov    	edx, 0x5c
  0x5cb6	dec    	ecx
  0x5cb7	mov    	ecx, esi
  0x5cb9	dec    	eax
  === BLOCK LINK ===
    0x5cba
=== CODE BLOCK END ===

=== CODE BLOCK ADDRESS 0x5cba ===
  0x5cba	call   	dword ptr [0x5768]
  === BLOCK LINK ===
    0x5cc0
=== CODE BLOCK END ===

=== CODE BLOCK ADDRESS 0x5cc0 ===
  0x5cc0	nop    	dword ptr [eax + eax]
  0x5cc5	dec    	eax
  0x5cc6	test   	eax, eax
  0x5cc8	je     	0x5cd6
  === BLOCK LINK ===
    0x5cca
=== CODE BLOCK END ===

=== CODE BLOCK ADDRESS 0x5cca ===
  0x5cca	mov    	word ptr [eax], bx
  0x5ccd	jmp    	0x5cd6
  === BLOCK LINK ===
    0x5ccf
=== CODE BLOCK END ===

=== CODE BLOCK ADDRESS 0x5ccf ===
  0x5ccf	mov    	word ptr [0x107aa], bx
  0x5cd6	mov    	edx, 0x202
  0x5cdb	dec    	eax
  0x5cdc	lea    	ecx, [0x10dbe]
  0x5ce2	call   	0x49f8
  === BLOCK LINK ===
    0x5ce7
=== CODE BLOCK END ===

=== CODE BLOCK ADDRESS 0x5ce7 ===
  0x5ce7	dec    	eax
  0x5ce8	test   	edi, edi
  0x5cea	je     	0x5d27
  === BLOCK LINK ===
    0x5cec
=== CODE BLOCK END ===

=== CODE BLOCK ADDRESS 0x5cec ===
  0x5cec	movzx  	ebx, word ptr [edi]
  0x5cef	sub    	ebx, 0x3f
  0x5cf2	jne    	0x5cff
  === BLOCK LINK ===
    0x5cf4
=== CODE BLOCK END ===

=== CODE BLOCK ADDRESS 0x5cf4 ===
  0x5cf4	movzx  	ebx, word ptr [edi + 2]
  0x5cf8	xor    	eax, eax
  0x5cfa	movzx  	eax, ax
  0x5cfd	sub    	ebx, eax
  0x5cff	xor    	edx, edx
  === BLOCK LINK ===
    0x5d01
=== CODE BLOCK END ===

=== CODE BLOCK ADDRESS 0x5d01 ===
  0x5d01	dec    	eax
  0x5d02	mov    	ecx, edi
  0x5d04	call   	0x52f0
  === BLOCK LINK ===
    0x5d09
=== CODE BLOCK END ===

=== CODE BLOCK ADDRESS 0x5d09 ===
  0x5d09	dec    	eax
  0x5d0a	mov    	esi, eax
  0x5d0c	xor    	eax, eax
  0x5d0e	test   	ebx, ebx
  0x5d10	inc    	esp
  === BLOCK LINK ===
    0x5d11
=== CODE BLOCK END ===

=== CODE BLOCK ADDRESS 0x5d11 ===
  0x5d11	mov    	esi, eax
  0x5d13	inc    	ecx
  0x5d14	sete   	dh
  0x5d17	xor    	ebx, ebx
  0x5d19	inc    	esp
  === BLOCK LINK ===
    0x5d1a
=== CODE BLOCK END ===

=== CODE BLOCK ADDRESS 0x5d1a ===
  0x5d1a	mov    	dword ptr [esp + 0x74], esi
  0x5d1e	dec    	eax
  0x5d1f	test   	esi, esi
  0x5d21	je     	0x649f
  === BLOCK LINK ===
    0x5d27
=== CODE BLOCK END ===

=== CODE BLOCK ADDRESS 0x5d27 ===
  0x5d27	dec    	eax
  0x5d28	mov    	dword ptr [ebp - 0x48], ebx
  0x5d2b	dec    	eax
  0x5d2c	mov    	ecx, ebx
  0x5d2e	dec    	eax
  === BLOCK LINK ===
    0x5d2f
=== CODE BLOCK END ===

=== CODE BLOCK ADDRESS 0x5d2f ===
  0x5d2f	mov    	dword ptr [ebp - 0x58], ebx
  0x5d32	mov    	edi, 1
  0x5d37	dec    	eax
  0x5d38	test   	esi, esi
  0x5d3a	je     	0x5d8c
  === BLOCK LINK ===
    0x5d3c
=== CODE BLOCK END ===

=== CODE BLOCK ADDRESS 0x5d3c ===
  0x5d3c	inc    	ebp
  0x5d3d	xor    	eax, eax
  0x5d3f	dec    	eax
  0x5d40	lea    	edx, [esp + 0x78]
  0x5d44	dec    	eax
  === BLOCK LINK ===
    0x5d45
=== CODE BLOCK END ===

=== CODE BLOCK ADDRESS 0x5d45 ===
  0x5d45	mov    	ecx, esi
  0x5d47	dec    	eax
  0x5d48	call   	dword ptr [0x585a]
  === BLOCK LINK ===
    0x5d4e
=== CODE BLOCK END ===

=== CODE BLOCK ADDRESS 0x5d4e ===
  0x5d4e	nop    	dword ptr [eax + eax]
  0x5d53	test   	eax, eax
  0x5d55	jne    	0x643a
  === BLOCK LINK ===
    0x5d5b
=== CODE BLOCK END ===

=== CODE BLOCK ADDRESS 0x5d5b ===
  0x5d5b	mov    	eax, dword ptr [esp + 0x78]
  0x5d5f	cmp    	eax, 0x4000
  0x5d64	jne    	0x5d6b
  === BLOCK LINK ===
    0x5d66
=== CODE BLOCK END ===

=== CODE BLOCK ADDRESS 0x5d66 ===
  0x5d66	mov    	dword ptr [ebp - 0x6c], edi
  0x5d69	jmp    	0x5d82
  === BLOCK LINK ===
    0x5d6b
=== CODE BLOCK END ===

=== CODE BLOCK ADDRESS 0x5d6b ===
  0x5d6b	add    	eax, 0xffffbff0
  0x5d70	test   	eax, 0xffffffef
  0x5d75	jne    	0x643a
  === BLOCK LINK ===
    0x5d7b
=== CODE BLOCK END ===

=== CODE BLOCK ADDRESS 0x5d7b ===
  0x5d7b	mov    	dword ptr [ebp - 0x6c], 2
  0x5d82	dec    	eax
  0x5d83	mov    	ecx, dword ptr [ebp - 0x58]
  0x5d86	dec    	eax
  0x5d87	mov    	dword ptr [ebp - 0x60], esi
  === BLOCK LINK ===
    0x5d8a
=== CODE BLOCK END ===

=== CODE BLOCK ADDRESS 0x5d8a ===
  0x5d8a	jmp    	0x5d9a
  === BLOCK LINK ===
    0x5d8c
=== CODE BLOCK END ===

=== CODE BLOCK ADDRESS 0x5d8c ===
  0x5d8c	dec    	eax
  0x5d8d	lea    	eax, [0x5be1]
  0x5d93	mov    	dword ptr [ebp - 0x6c], ebx
  0x5d96	dec    	eax
  0x5d97	mov    	dword ptr [ebp - 0x60], eax
  === BLOCK LINK ===
    0x5d9a
=== CODE BLOCK END ===

=== CODE BLOCK ADDRESS 0x5d9a ===
  0x5d9a	dec    	eax
  0x5d9b	mov    	eax, dword ptr [0x12c0f]
  0x5da1	dec    	ebp
  0x5da2	test   	ebp, ebp
  0x5da4	inc    	esp
  === BLOCK LINK ===
    0x5da5
=== CODE BLOCK END ===

=== CODE BLOCK ADDRESS 0x5da5 ===
  0x5da5	movzx  	esi, bx
  0x5da8	dec    	ecx
  0x5da9	cmovne  	ecx, ebp
  0x5dac	dec    	eax
  0x5dad	mov    	dword ptr [ebp - 0x58], ecx
  === BLOCK LINK ===
    0x5db0
=== CODE BLOCK END ===

=== CODE BLOCK ADDRESS 0x5db0 ===
  0x5db0	dec    	eax
  0x5db1	test   	eax, eax
  0x5db3	je     	0x5fd7
  === BLOCK LINK ===
    0x5db9
=== CODE BLOCK END ===

=== CODE BLOCK ADDRESS 0x5db9 ===
  0x5db9	dec    	eax
  0x5dba	lea    	edi, [0x12bf0]
  0x5dc0	xor    	edx, edx
  0x5dc2	dec    	esp
  0x5dc3	lea    	ecx, [0x8567]
  === BLOCK LINK ===
    0x5dc9
=== CODE BLOCK END ===

=== CODE BLOCK ADDRESS 0x5dc9 ===
  0x5dc9	dec    	ecx
  0x5dca	or     	eax, 0xffffffff
  0x5dcd	dec    	ecx
  0x5dce	inc    	eax
  0x5dd0	inc    	bx
  === BLOCK LINK ===
    0x5dd2
=== CODE BLOCK END ===

=== CODE BLOCK ADDRESS 0x5dd2 ===
  0x5dd2	cmp    	dword ptr [ecx + eax*2], edx
  0x5dd5	jne    	0x5dcd
  === BLOCK LINK ===
    0x5dd7
=== CODE BLOCK END ===

=== CODE BLOCK ADDRESS 0x5dd7 ===
  0x5dd7	dec    	ecx
  0x5dd8	mov    	edx, ecx
  0x5dda	dec    	eax
  0x5ddb	mov    	ecx, eax
  0x5ddd	dec    	eax
  === BLOCK LINK ===
    0x5dde
=== CODE BLOCK END ===

=== CODE BLOCK ADDRESS 0x5dde ===
  0x5dde	call   	dword ptr [0x56ac]
  === BLOCK LINK ===
    0x5de4
=== CODE BLOCK END ===

=== CODE BLOCK ADDRESS 0x5de4 ===
  0x5de4	nop    	dword ptr [eax + eax]
  0x5de9	test   	eax, eax
  0x5deb	jne    	0x5e36
  === BLOCK LINK ===
    0x5ded
=== CODE BLOCK END ===

=== CODE BLOCK ADDRESS 0x5ded ===
  0x5ded	dec    	eax
  0x5dee	mov    	ecx, dword ptr [edi]
  0x5df0	mov    	dword ptr [esp + 0x64], 1
  0x5df8	call   	0x954c
  === BLOCK LINK ===
    0x5dfd
=== CODE BLOCK END ===

=== CODE BLOCK ADDRESS 0x5dfd ===
  0x5dfd	xor    	edi, edi
  0x5dff	dec    	eax
  0x5e00	test   	eax, eax
  0x5e02	je     	0x6445
  === BLOCK LINK ===
    0x5e08
=== CODE BLOCK END ===

=== CODE BLOCK ADDRESS 0x5e08 ===
  0x5e08	dec    	eax
  0x5e09	lea    	edx, [esp + 0x54]
  0x5e0d	dec    	eax
  0x5e0e	mov    	ecx, eax
  0x5e10	call   	0x9f54
  === BLOCK LINK ===
    0x5e15
=== CODE BLOCK END ===

=== CODE BLOCK ADDRESS 0x5e15 ===
  0x5e15	test   	eax, eax
  0x5e17	jne    	0x6450
  === BLOCK LINK ===
    0x5e1d
=== CODE BLOCK END ===

=== CODE BLOCK ADDRESS 0x5e1d ===
  0x5e1d	mov    	ecx, edi
  0x5e1f	lea    	eax, [edi + 1]
  0x5e22	cmp    	dword ptr [esp + 0x54], eax
  0x5e26	sete   	cl
  0x5e29	mov    	dword ptr [esp + 0x50], ecx
  === BLOCK LINK ===
    0x5e2d
=== CODE BLOCK END ===

=== CODE BLOCK ADDRESS 0x5e2d ===
  0x5e2d	mov    	dword ptr [esp + 0x5c], ecx
  0x5e31	jmp    	0x5fae
  === BLOCK LINK ===
    0x5e36
=== CODE BLOCK END ===

=== CODE BLOCK ADDRESS 0x5e36 ===
  0x5e36	dec    	ecx
  0x5e37	or     	eax, 0xffffffff
  0x5e3a	dec    	eax
  0x5e3b	lea    	eax, [0x8507]
  0x5e41	xor    	ebx, ebx
  === BLOCK LINK ===
    0x5e43
=== CODE BLOCK END ===

=== CODE BLOCK ADDRESS 0x5e43 ===
  0x5e43	dec    	ecx
  0x5e44	inc    	eax
  0x5e46	inc    	dx
  0x5e48	cmp    	dword ptr [eax + eax*2], ebx
  0x5e4b	jne    	0x5e43
  === BLOCK LINK ===
    0x5e4d
=== CODE BLOCK END ===

=== CODE BLOCK ADDRESS 0x5e4d ===
  0x5e4d	dec    	eax
  0x5e4e	mov    	ecx, dword ptr [edi]
  0x5e50	dec    	eax
  0x5e51	mov    	edx, eax
  0x5e53	dec    	eax
  === BLOCK LINK ===
    0x5e54
=== CODE BLOCK END ===

=== CODE BLOCK ADDRESS 0x5e54 ===
  0x5e54	call   	dword ptr [0x5636]
  === BLOCK LINK ===
    0x5e5a
=== CODE BLOCK END ===

=== CODE BLOCK ADDRESS 0x5e5a ===
  0x5e5a	nop    	dword ptr [eax + eax]
  0x5e5f	dec    	eax
  0x5e60	mov    	ecx, dword ptr [edi]
  0x5e62	test   	eax, eax
  0x5e64	jne    	0x5e7c
  === BLOCK LINK ===
    0x5e66
=== CODE BLOCK END ===

=== CODE BLOCK ADDRESS 0x5e66 ===
  0x5e66	call   	0x954c
  === BLOCK LINK ===
    0x5e6b
=== CODE BLOCK END ===

=== CODE BLOCK ADDRESS 0x5e6b ===
  0x5e6b	dec    	esp
  0x5e6c	mov    	esp, eax
  0x5e6e	dec    	eax
  0x5e6f	test   	eax, eax
  0x5e71	je     	0x6445
  === BLOCK LINK ===
    0x5e77
=== CODE BLOCK END ===

=== CODE BLOCK ADDRESS 0x5e77 ===
  0x5e77	jmp    	0x5fa5
  === BLOCK LINK ===
    0x5e7c
=== CODE BLOCK END ===

=== CODE BLOCK ADDRESS 0x5e7c ===
  0x5e7c	dec    	esp
  0x5e7d	lea    	ecx, [0x843d]
  0x5e83	dec    	eax
  0x5e84	mov    	eax, ecx
  0x5e86	dec    	esp
  === BLOCK LINK ===
    0x5e87
=== CODE BLOCK END ===

=== CODE BLOCK ADDRESS 0x5e87 ===
  0x5e87	sub    	ecx, ecx
  0x5e89	inc    	esp
  0x5e8a	movzx  	eax, word ptr [eax]
  0x5e8d	inc    	edx
  0x5e8e	movzx  	edx, word ptr [eax + ecx]
  === BLOCK LINK ===
    0x5e92
=== CODE BLOCK END ===

=== CODE BLOCK ADDRESS 0x5e92 ===
  0x5e92	inc    	esp
  0x5e93	sub    	eax, edx
  0x5e95	jne    	0x5e9f
  === BLOCK LINK ===
    0x5e97
=== CODE BLOCK END ===

=== CODE BLOCK ADDRESS 0x5e97 ===
  0x5e97	dec    	eax
  0x5e98	add    	eax, 2
  0x5e9b	test   	edx, edx
  0x5e9d	jne    	0x5e89
  === BLOCK LINK ===
    0x5e9f
=== CODE BLOCK END ===

=== CODE BLOCK ADDRESS 0x5e9f ===
  0x5e9f	inc    	ebp
  0x5ea0	test   	eax, eax
  0x5ea2	jne    	0x5eb1
  === BLOCK LINK ===
    0x5ea4
=== CODE BLOCK END ===

=== CODE BLOCK ADDRESS 0x5ea4 ===
  0x5ea4	mov    	dword ptr [esp + 0x60], 1
  0x5eac	jmp    	0x5fa5
  === BLOCK LINK ===
    0x5eb1
=== CODE BLOCK END ===

=== CODE BLOCK ADDRESS 0x5eb1 ===
  0x5eb1	dec    	esp
  0x5eb2	lea    	ecx, [0x84a0]
  0x5eb8	dec    	eax
  0x5eb9	mov    	eax, ecx
  0x5ebb	dec    	esp
  === BLOCK LINK ===
    0x5ebc
=== CODE BLOCK END ===

=== CODE BLOCK ADDRESS 0x5ebc ===
  0x5ebc	sub    	ecx, ecx
  0x5ebe	inc    	esp
  0x5ebf	movzx  	eax, word ptr [eax]
  0x5ec2	inc    	edx
  0x5ec3	movzx  	edx, word ptr [eax + ecx]
  === BLOCK LINK ===
    0x5ec7
=== CODE BLOCK END ===

=== CODE BLOCK ADDRESS 0x5ec7 ===
  0x5ec7	inc    	esp
  0x5ec8	sub    	eax, edx
  0x5eca	jne    	0x5ed4
  === BLOCK LINK ===
    0x5ecc
=== CODE BLOCK END ===

=== CODE BLOCK ADDRESS 0x5ecc ===
  0x5ecc	dec    	eax
  0x5ecd	add    	eax, 2
  0x5ed0	test   	edx, edx
  0x5ed2	jne    	0x5ebe
  === BLOCK LINK ===
    0x5ed4
=== CODE BLOCK END ===

=== CODE BLOCK ADDRESS 0x5ed4 ===
  0x5ed4	inc    	ebp
  0x5ed5	test   	eax, eax
  0x5ed7	jne    	0x5ee6
  === BLOCK LINK ===
    0x5ed9
=== CODE BLOCK END ===

=== CODE BLOCK ADDRESS 0x5ed9 ===
  0x5ed9	mov    	dword ptr [esp + 0x58], 1
  0x5ee1	jmp    	0x5fa5
  === BLOCK LINK ===
    0x5ee6
=== CODE BLOCK END ===

=== CODE BLOCK ADDRESS 0x5ee6 ===
  0x5ee6	dec    	esp
  0x5ee7	lea    	ecx, [0x83eb]
  0x5eed	dec    	eax
  0x5eee	mov    	eax, ecx
  0x5ef0	dec    	esp
  === BLOCK LINK ===
    0x5ef1
=== CODE BLOCK END ===

=== CODE BLOCK ADDRESS 0x5ef1 ===
  0x5ef1	sub    	ecx, ecx
  0x5ef3	inc    	esp
  0x5ef4	movzx  	eax, word ptr [eax]
  0x5ef7	inc    	edx
  0x5ef8	movzx  	edx, word ptr [eax + ecx]
  === BLOCK LINK ===
    0x5efc
=== CODE BLOCK END ===

=== CODE BLOCK ADDRESS 0x5efc ===
  0x5efc	inc    	esp
  0x5efd	sub    	eax, edx
  0x5eff	jne    	0x5f09
  === BLOCK LINK ===
    0x5f01
=== CODE BLOCK END ===

=== CODE BLOCK ADDRESS 0x5f01 ===
  0x5f01	dec    	eax
  0x5f02	add    	eax, 2
  0x5f05	test   	edx, edx
  0x5f07	jne    	0x5ef3
  === BLOCK LINK ===
    0x5f09
=== CODE BLOCK END ===

=== CODE BLOCK ADDRESS 0x5f09 ===
  0x5f09	inc    	ebp
  0x5f0a	test   	eax, eax
  0x5f0c	jne    	0x5f1b
  === BLOCK LINK ===
    0x5f0e
=== CODE BLOCK END ===

=== CODE BLOCK ADDRESS 0x5f0e ===
  0x5f0e	mov    	dword ptr [esp + 0x6c], 1
  0x5f16	jmp    	0x5fa5
  === BLOCK LINK ===
    0x5f1b
=== CODE BLOCK END ===

=== CODE BLOCK ADDRESS 0x5f1b ===
  0x5f1b	dec    	esp
  0x5f1c	lea    	ecx, [0x837e]
  0x5f22	dec    	eax
  0x5f23	mov    	eax, ecx
  0x5f25	dec    	esp
  === BLOCK LINK ===
    0x5f26
=== CODE BLOCK END ===

=== CODE BLOCK ADDRESS 0x5f26 ===
  0x5f26	sub    	ecx, ecx
  0x5f28	inc    	esp
  0x5f29	movzx  	eax, word ptr [eax]
  0x5f2c	inc    	edx
  0x5f2d	movzx  	edx, word ptr [eax + ecx]
  === BLOCK LINK ===
    0x5f31
=== CODE BLOCK END ===

=== CODE BLOCK ADDRESS 0x5f31 ===
  0x5f31	inc    	esp
  0x5f32	sub    	eax, edx
  0x5f34	jne    	0x5f3e
  === BLOCK LINK ===
    0x5f36
=== CODE BLOCK END ===

=== CODE BLOCK ADDRESS 0x5f36 ===
  0x5f36	dec    	eax
  0x5f37	add    	eax, 2
  0x5f3a	test   	edx, edx
  0x5f3c	jne    	0x5f28
  === BLOCK LINK ===
    0x5f3e
=== CODE BLOCK END ===

=== CODE BLOCK ADDRESS 0x5f3e ===
  0x5f3e	inc    	ebp
  0x5f3f	test   	eax, eax
  0x5f41	jne    	0x5f4d
  === BLOCK LINK ===
    0x5f43
=== CODE BLOCK END ===

=== CODE BLOCK ADDRESS 0x5f43 ===
  0x5f43	mov    	dword ptr [esp + 0x68], 1
  0x5f4b	jmp    	0x5fa5
  === BLOCK LINK ===
    0x5f4d
=== CODE BLOCK END ===

=== CODE BLOCK ADDRESS 0x5f4d ===
  0x5f4d	dec    	esp
  0x5f4e	lea    	ecx, [0x83ac]
  0x5f54	dec    	eax
  0x5f55	mov    	eax, ecx
  0x5f57	dec    	esp
  === BLOCK LINK ===
    0x5f58
=== CODE BLOCK END ===

=== CODE BLOCK ADDRESS 0x5f58 ===
  0x5f58	sub    	ecx, ecx
  0x5f5a	inc    	esp
  0x5f5b	movzx  	eax, word ptr [eax]
  0x5f5e	inc    	edx
  0x5f5f	movzx  	edx, word ptr [eax + ecx]
  === BLOCK LINK ===
    0x5f63
=== CODE BLOCK END ===

=== CODE BLOCK ADDRESS 0x5f63 ===
  0x5f63	inc    	esp
  0x5f64	sub    	eax, edx
  0x5f66	jne    	0x5f70
  === BLOCK LINK ===
    0x5f68
=== CODE BLOCK END ===

=== CODE BLOCK ADDRESS 0x5f68 ===
  0x5f68	dec    	eax
  0x5f69	add    	eax, 2
  0x5f6c	test   	edx, edx
  0x5f6e	jne    	0x5f5a
  === BLOCK LINK ===
    0x5f70
=== CODE BLOCK END ===

=== CODE BLOCK ADDRESS 0x5f70 ===
  0x5f70	inc    	ebp
  0x5f71	test   	eax, eax
  0x5f73	jne    	0x5f7f
  === BLOCK LINK ===
    0x5f75
=== CODE BLOCK END ===

=== CODE BLOCK ADDRESS 0x5f75 ===
  0x5f75	mov    	dword ptr [esp + 0x70], 1
  0x5f7d	jmp    	0x5fa5
  === BLOCK LINK ===
    0x5f7f
=== CODE BLOCK END ===

=== CODE BLOCK ADDRESS 0x5f7f ===
  0x5f7f	dec    	esp
  0x5f80	lea    	eax, [0x839a]
  0x5f86	dec    	esp
  0x5f87	sub    	eax, ecx
  0x5f89	movzx  	edx, word ptr [ecx]
  === BLOCK LINK ===
    0x5f8c
=== CODE BLOCK END ===

=== CODE BLOCK ADDRESS 0x5f8c ===
  0x5f8c	inc    	edx
  0x5f8d	movzx  	eax, word ptr [ecx + eax]
  0x5f91	sub    	edx, eax
  0x5f93	jne    	0x5f9d
  === BLOCK LINK ===
    0x5f95
=== CODE BLOCK END ===

=== CODE BLOCK ADDRESS 0x5f95 ===
  0x5f95	dec    	eax
  0x5f96	add    	ecx, 2
  0x5f99	test   	eax, eax
  0x5f9b	jne    	0x5f89
  === BLOCK LINK ===
    0x5f9d
=== CODE BLOCK END ===

=== CODE BLOCK ADDRESS 0x5f9d ===
  0x5f9d	test   	edx, edx
  0x5f9f	je     	0x6477
  === BLOCK LINK ===
    0x5fa5
=== CODE BLOCK END ===

=== CODE BLOCK ADDRESS 0x5fa5 ===
  0x5fa5	mov    	ecx, dword ptr [esp + 0x50]
  0x5fa9	mov    	eax, 1
  0x5fae	inc    	sp
  0x5fb0	add    	esi, eax
  0x5fb2	xor    	edx, edx
  === BLOCK LINK ===
    0x5fb4
=== CODE BLOCK END ===

=== CODE BLOCK ADDRESS 0x5fb4 ===
  0x5fb4	dec    	eax
  0x5fb5	lea    	eax, [0x129f5]
  0x5fbb	inc    	ecx
  0x5fbc	movzx  	ebx, si
  0x5fbf	dec    	eax
  === BLOCK LINK ===
    0x5fc0
=== CODE BLOCK END ===

=== CODE BLOCK ADDRESS 0x5fc0 ===
  0x5fc0	lea    	edi, [eax + ebx*8]
  0x5fc3	dec    	eax
  0x5fc4	mov    	eax, dword ptr [edi]
  0x5fc6	dec    	eax
  0x5fc7	test   	eax, eax
  === BLOCK LINK ===
    0x5fc9
=== CODE BLOCK END ===

=== CODE BLOCK ADDRESS 0x5fc9 ===
  0x5fc9	jne    	0x5dc2
  === BLOCK LINK ===
    0x5fcf
=== CODE BLOCK END ===

=== CODE BLOCK ADDRESS 0x5fcf ===
  0x5fcf	xor    	ebx, ebx
  0x5fd1	cmp    	dword ptr [esp + 0x64], ebx
  0x5fd5	jne    	0x5fe9
  === BLOCK LINK ===
    0x5fd7
=== CODE BLOCK END ===

=== CODE BLOCK ADDRESS 0x5fd7 ===
  0x5fd7	dec    	eax
  0x5fd8	lea    	ecx, [esp + 0x5c]
  0x5fdc	call   	0x5824
  === BLOCK LINK ===
    0x5fe1
=== CODE BLOCK END ===

=== CODE BLOCK ADDRESS 0x5fe1 ===
  0x5fe1	mov    	ecx, dword ptr [esp + 0x5c]
  0x5fe5	mov    	dword ptr [esp + 0x50], ecx
  0x5fe9	mov    	eax, dword ptr [esp + 0x58]
  0x5fed	dec    	ebp
  0x5fee	test   	esp, esp
  === BLOCK LINK ===
    0x5ff0
=== CODE BLOCK END ===

=== CODE BLOCK ADDRESS 0x5ff0 ===
  0x5ff0	je     	0x5ffa
  === BLOCK LINK ===
    0x5ff2
=== CODE BLOCK END ===

=== CODE BLOCK ADDRESS 0x5ff2 ===
  0x5ff2	test   	eax, eax
  0x5ff4	jne    	0x6477
  === BLOCK LINK ===
    0x5ffa
=== CODE BLOCK END ===

=== CODE BLOCK ADDRESS 0x5ffa ===
  0x5ffa	cmp    	dword ptr [esp + 0x60], ebx
  0x5ffe	je     	0x60f7
  === BLOCK LINK ===
    0x6004
=== CODE BLOCK END ===

=== CODE BLOCK ADDRESS 0x6004 ===
  0x6004	test   	eax, eax
  0x6006	jne    	0x6477
  === BLOCK LINK ===
    0x600c
=== CODE BLOCK END ===

=== CODE BLOCK ADDRESS 0x600c ===
  0x600c	dec    	eax
  0x600d	lea    	edi, [0x1067d]
  0x6013	dec    	ebp
  0x6014	test   	esp, esp
  0x6016	je     	0x6036
  === BLOCK LINK ===
    0x6018
=== CODE BLOCK END ===

=== CODE BLOCK ADDRESS 0x6018 ===
  0x6018	inc    	ecx
  0x6019	mov    	ecx, 0x201
  0x601e	dec    	ebp
  0x601f	mov    	eax, esp
  0x6021	dec    	eax
  === BLOCK LINK ===
    0x6022
=== CODE BLOCK END ===

=== CODE BLOCK ADDRESS 0x6022 ===
  0x6022	mov    	ecx, edi
  0x6024	inc    	ecx
  0x6025	lea    	edx, [ecx + 1]
  0x6028	dec    	eax
  0x6029	call   	dword ptr [0x5471]
  === BLOCK LINK ===
    0x602f
=== CODE BLOCK END ===

=== CODE BLOCK ADDRESS 0x602f ===
  0x602f	nop    	dword ptr [eax + eax]
  0x6034	jmp    	0x603d
  === BLOCK LINK ===
    0x6036
=== CODE BLOCK END ===

=== CODE BLOCK ADDRESS 0x6036 ===
  0x6036	mov    	word ptr [0x10653], bx
  0x603d	inc    	ecx
  0x603e	mov    	esi, 0x100
  0x6043	dec    	ebp
  0x6044	test   	edi, edi
  === BLOCK LINK ===
    0x6046
=== CODE BLOCK END ===

=== CODE BLOCK ADDRESS 0x6046 ===
  0x6046	je     	0x6087
  === BLOCK LINK ===
    0x6048
=== CODE BLOCK END ===

=== CODE BLOCK ADDRESS 0x6048 ===
  0x6048	inc    	cx
  0x604a	cmp    	dword ptr [edi], 0x2a
  0x604d	jne    	0x6056
  === BLOCK LINK ===
    0x604f
=== CODE BLOCK END ===

=== CODE BLOCK ADDRESS 0x604f ===
  0x604f	inc    	cx
  0x6051	cmp    	dword ptr [edi + 2], ebx
  0x6054	je     	0x6087
  === BLOCK LINK ===
    0x6056
=== CODE BLOCK END ===

=== CODE BLOCK ADDRESS 0x6056 ===
  0x6056	dec    	ecx
  0x6057	mov    	ecx, edi
  0x6059	call   	0x90a8
  === BLOCK LINK ===
    0x605e
=== CODE BLOCK END ===

=== CODE BLOCK ADDRESS 0x605e ===
  0x605e	test   	ax, ax
  0x6061	jne    	0x6466
  === BLOCK LINK ===
    0x6067
=== CODE BLOCK END ===

=== CODE BLOCK ADDRESS 0x6067 ===
  0x6067	dec    	ebp
  0x6068	mov    	ecx, esi
  0x606a	dec    	eax
  0x606b	lea    	ecx, [0x10a2f]
  0x6071	dec    	ebp
  === BLOCK LINK ===
    0x6072
=== CODE BLOCK END ===

=== CODE BLOCK ADDRESS 0x6072 ===
  0x6072	mov    	eax, edi
  0x6074	mov    	edx, 0x101
  0x6079	dec    	eax
  0x607a	call   	dword ptr [0x5420]
  === BLOCK LINK ===
    0x6080
=== CODE BLOCK END ===

=== CODE BLOCK ADDRESS 0x6080 ===
  0x6080	nop    	dword ptr [eax + eax]
  0x6085	jmp    	0x608e
  === BLOCK LINK ===
    0x6087
=== CODE BLOCK END ===

=== CODE BLOCK ADDRESS 0x6087 ===
  0x6087	mov    	word ptr [0x10a12], bx
  0x608e	call   	0x2f2c
  === BLOCK LINK ===
    0x6093
=== CODE BLOCK END ===

=== CODE BLOCK ADDRESS 0x6093 ===
  0x6093	test   	al, al
  0x6095	je     	0x60da
  === BLOCK LINK ===
    0x6097
=== CODE BLOCK END ===

=== CODE BLOCK ADDRESS 0x6097 ===
  0x6097	mov    	dword ptr [esp + 0x40], 0x102
  0x609f	dec    	eax
  0x60a0	lea    	ecx, [0x103da]
  0x60a6	dec    	eax
  0x60a7	mov    	dword ptr [esp + 0x38], ebx
  === BLOCK LINK ===
    0x60ab
=== CODE BLOCK END ===

=== CODE BLOCK ADDRESS 0x60ab ===
  0x60ab	dec    	esp
  0x60ac	mov    	ecx, edi
  0x60ae	inc    	esp
  0x60af	mov    	dword ptr [esp + 0x30], esi
  0x60b3	inc    	ebp
  === BLOCK LINK ===
    0x60b4
=== CODE BLOCK END ===

=== CODE BLOCK ADDRESS 0x60b4 ===
  0x60b4	xor    	eax, eax
  0x60b6	dec    	esp
  0x60b7	lea    	esi, [0x109e3]
  0x60bd	xor    	edx, edx
  0x60bf	dec    	esp
  === BLOCK LINK ===
    0x60c0
=== CODE BLOCK END ===

=== CODE BLOCK ADDRESS 0x60c0 ===
  0x60c0	mov    	dword ptr [esp + 0x28], esi
  0x60c4	mov    	dword ptr [esp + 0x20], 0x201
  0x60cc	dec    	eax
  0x60cd	call   	dword ptr [0x14f2d]
  === BLOCK LINK ===
    0x60d3
=== CODE BLOCK END ===

=== CODE BLOCK ADDRESS 0x60d3 ===
  0x60d3	nop    	dword ptr [eax + eax]
  0x60d8	jmp    	0x60e6
  === BLOCK LINK ===
    0x60da
=== CODE BLOCK END ===

=== CODE BLOCK ADDRESS 0x60da ===
  0x60da	mov    	eax, 0x32
  0x60df	dec    	esp
  0x60e0	lea    	esi, [0x109ba]
  0x60e6	test   	eax, eax
  0x60e8	jne    	0x646f
  === BLOCK LINK ===
    0x60ee
=== CODE BLOCK END ===

=== CODE BLOCK ADDRESS 0x60ee ===
  0x60ee	dec    	esp
  0x60ef	mov    	esp, edi
  0x60f1	mov    	ecx, dword ptr [esp + 0x50]
  0x60f5	jmp    	0x6155
  === BLOCK LINK ===
    0x60f7
=== CODE BLOCK END ===

=== CODE BLOCK ADDRESS 0x60f7 ===
  0x60f7	dec    	ebp
  0x60f8	test   	edi, edi
  0x60fa	je     	0x6151
  === BLOCK LINK ===
    0x60fc
=== CODE BLOCK END ===

=== CODE BLOCK ADDRESS 0x60fc ===
  0x60fc	test   	eax, eax
  0x60fe	jne    	0x6477
  === BLOCK LINK ===
    0x6104
=== CODE BLOCK END ===

=== CODE BLOCK ADDRESS 0x6104 ===
  0x6104	inc    	cx
  0x6106	cmp    	dword ptr [edi], 0x2a
  0x6109	jne    	0x613b
  === BLOCK LINK ===
    0x610b
=== CODE BLOCK END ===

=== CODE BLOCK ADDRESS 0x610b ===
  0x610b	inc    	cx
  0x610d	cmp    	dword ptr [edi + 2], ebx
  0x6110	jne    	0x613b
  === BLOCK LINK ===
    0x6112
=== CODE BLOCK END ===

=== CODE BLOCK ADDRESS 0x6112 ===
  0x6112	dec    	eax
  0x6113	lea    	edi, [0x10987]
  0x6119	dec    	esp
  0x611a	mov    	dword ptr [0x10300], ebp
  0x6120	dec    	esp
  === BLOCK LINK ===
    0x6121
=== CODE BLOCK END ===

=== CODE BLOCK ADDRESS 0x6121 ===
  0x6121	mov    	edi, edi
  0x6123	call   	0x8504
  === BLOCK LINK ===
    0x6128
=== CODE BLOCK END ===

=== CODE BLOCK ADDRESS 0x6128 ===
  0x6128	dec    	eax
  0x6129	mov    	ecx, edi
  0x612b	call   	0x90a8
  === BLOCK LINK ===
    0x6130
=== CODE BLOCK END ===

=== CODE BLOCK ADDRESS 0x6130 ===
  0x6130	test   	ax, ax
  0x6133	jne    	0x6482
  === BLOCK LINK ===
    0x6139
=== CODE BLOCK END ===

=== CODE BLOCK ADDRESS 0x6139 ===
  0x6139	jmp    	0x614c
  === BLOCK LINK ===
    0x613b
=== CODE BLOCK END ===

=== CODE BLOCK ADDRESS 0x613b ===
  0x613b	dec    	ecx
  0x613c	mov    	ecx, edi
  0x613e	call   	0x90a8
  === BLOCK LINK ===
    0x6143
=== CODE BLOCK END ===

=== CODE BLOCK ADDRESS 0x6143 ===
  0x6143	test   	ax, ax
  0x6146	jne    	0x648b
  === BLOCK LINK ===
    0x614c
=== CODE BLOCK END ===

=== CODE BLOCK ADDRESS 0x614c ===
  0x614c	dec    	ebp
  0x614d	mov    	esi, edi
  0x614f	jmp    	0x60f1
  === BLOCK LINK ===
    0x6151
=== CODE BLOCK END ===

=== CODE BLOCK ADDRESS 0x6151 ===
  0x6151	dec    	esp
  0x6152	mov    	esi, dword ptr [ebp - 0x80]
  0x6155	dec    	eax
  0x6156	mov    	edi, dword ptr [ebp - 0x78]
  0x6159	xor    	eax, eax
  === BLOCK LINK ===
    0x615b
=== CODE BLOCK END ===

=== CODE BLOCK ADDRESS 0x615b ===
  0x615b	test   	ecx, ecx
  0x615d	je     	0x6176
  === BLOCK LINK ===
    0x615f
=== CODE BLOCK END ===

=== CODE BLOCK ADDRESS 0x615f ===
  0x615f	dec    	ecx
  0x6160	mov    	edx, ebp
  0x6162	dec    	eax
  0x6163	mov    	ecx, esi
  0x6165	call   	0x4c7c
  === BLOCK LINK ===
    0x616a
=== CODE BLOCK END ===

=== CODE BLOCK ADDRESS 0x616a ===
  0x616a	test   	eax, eax
  0x616c	mov    	eax, 1
  0x6171	cmovne  	ebx, eax
  0x6174	xor    	eax, eax
  0x6176	dec    	ebp
  === BLOCK LINK ===
    0x6177
=== CODE BLOCK END ===

=== CODE BLOCK ADDRESS 0x6177 ===
  0x6177	test   	edi, edi
  0x6179	jne    	0x6191
  === BLOCK LINK ===
    0x617b
=== CODE BLOCK END ===

=== CODE BLOCK ADDRESS 0x617b ===
  0x617b	cmp    	dword ptr [esp + 0x60], eax
  0x617f	jne    	0x6191
  === BLOCK LINK ===
    0x6181
=== CODE BLOCK END ===

=== CODE BLOCK ADDRESS 0x6181 ===
  0x6181	or     	ebx, 0x808
  0x6187	cmp    	dword ptr [esp + 0x58], eax
  0x618b	je     	0x6191
  === BLOCK LINK ===
    0x618d
=== CODE BLOCK END ===

=== CODE BLOCK ADDRESS 0x618d ===
  0x618d	bts    	ebx, 0xc
  0x6191	cmp    	dword ptr [esp + 0x68], eax
  0x6195	je     	0x619d
  === BLOCK LINK ===
    0x6197
=== CODE BLOCK END ===

=== CODE BLOCK ADDRESS 0x6197 ===
  0x6197	bts    	ebx, 0xf
  0x619b	jmp    	0x61a7
  === BLOCK LINK ===
    0x619d
=== CODE BLOCK END ===

=== CODE BLOCK ADDRESS 0x619d ===
  0x619d	cmp    	dword ptr [esp + 0x6c], eax
  0x61a1	je     	0x61a7
  === BLOCK LINK ===
    0x61a3
=== CODE BLOCK END ===

=== CODE BLOCK ADDRESS 0x61a3 ===
  0x61a3	bts    	ebx, 0xe
  0x61a7	cmp    	dword ptr [esp + 0x70], eax
  0x61ab	je     	0x61b1
  === BLOCK LINK ===
    0x61ad
=== CODE BLOCK END ===

=== CODE BLOCK ADDRESS 0x61ad ===
  0x61ad	bts    	ebx, 0x10
  0x61b1	inc    	esp
  0x61b2	mov    	ecx, ebx
  0x61b4	dec    	eax
  0x61b5	lea    	ecx, [ebp - 0x70]
  === BLOCK LINK ===
    0x61b8
=== CODE BLOCK END ===

=== CODE BLOCK ADDRESS 0x61b8 ===
  0x61b8	dec    	ebp
  0x61b9	mov    	eax, esp
  0x61bb	dec    	ecx
  0x61bc	mov    	edx, esi
  0x61be	dec    	eax
  === BLOCK LINK ===
    0x61bf
=== CODE BLOCK END ===

=== CODE BLOCK ADDRESS 0x61bf ===
  0x61bf	call   	dword ptr [0x4fc3]
  === BLOCK LINK ===
    0x61c5
=== CODE BLOCK END ===

=== CODE BLOCK ADDRESS 0x61c5 ===
  0x61c5	nop    	dword ptr [eax + eax]
  0x61ca	mov    	ebx, eax
  0x61cc	mov    	ecx, eax
  0x61ce	test   	eax, eax
  0x61d0	je     	0x6314
  === BLOCK LINK ===
    0x61d6
=== CODE BLOCK END ===

=== CODE BLOCK ADDRESS 0x61d6 ===
  0x61d6	sub    	ecx, 5
  0x61d9	je     	0x61f2
  === BLOCK LINK ===
    0x61db
=== CODE BLOCK END ===

=== CODE BLOCK ADDRESS 0x61db ===
  0x61db	sub    	ecx, 0x3e
  0x61de	je     	0x622d
  === BLOCK LINK ===
    0x61e0
=== CODE BLOCK END ===

=== CODE BLOCK ADDRESS 0x61e0 ===
  0x61e0	sub    	ecx, 0x12
  0x61e3	je     	0x61f9
  === BLOCK LINK ===
    0x61e5
=== CODE BLOCK END ===

=== CODE BLOCK ADDRESS 0x61e5 ===
  0x61e5	sub    	ecx, 1
  0x61e8	je     	0x61f2
  === BLOCK LINK ===
    0x61ea
=== CODE BLOCK END ===

=== CODE BLOCK ADDRESS 0x61ea ===
  0x61ea	cmp    	ecx, 0x4d8
  0x61f0	jne    	0x623d
  === BLOCK LINK ===
    0x61f2
=== CODE BLOCK END ===

=== CODE BLOCK ADDRESS 0x61f2 ===
  0x61f2	mov    	ecx, ebx
  0x61f4	call   	0x5a04
  === BLOCK LINK ===
    0x61f9
=== CODE BLOCK END ===

=== CODE BLOCK ADDRESS 0x61f9 ===
  0x61f9	dec    	eax
  0x61fa	mov    	ecx, edi
  0x61fc	call   	0x8a78
  === BLOCK LINK ===
    0x6201
=== CODE BLOCK END ===

=== CODE BLOCK ADDRESS 0x6201 ===
  0x6201	test   	eax, eax
  0x6203	je     	0x64aa
  === BLOCK LINK ===
    0x6209
=== CODE BLOCK END ===

=== CODE BLOCK ADDRESS 0x6209 ===
  0x6209	mov    	eax, 0xffff
  0x620e	dec    	eax
  0x620f	lea    	ecx, [0x5763]
  0x6215	add    	word ptr [esi], ax
  0x6218	call   	0x8a78
  === BLOCK LINK ===
    0x621d
=== CODE BLOCK END ===

=== CODE BLOCK ADDRESS 0x621d ===
  0x621d	test   	eax, eax
  0x621f	jne    	0x6249
  === BLOCK LINK ===
    0x6221
=== CODE BLOCK END ===

=== CODE BLOCK ADDRESS 0x6221 ===
  0x6221	dec    	eax
  0x6222	lea    	esi, [0x5750]
  0x6228	jmp    	0x62fc
  === BLOCK LINK ===
    0x622d
=== CODE BLOCK END ===

=== CODE BLOCK ADDRESS 0x622d ===
  0x622d	dec    	ecx
  0x622e	mov    	ecx, ebp
  0x6230	call   	0x5ba8
  === BLOCK LINK ===
    0x6235
=== CODE BLOCK END ===

=== CODE BLOCK ADDRESS 0x6235 ===
  0x6235	test   	eax, eax
  0x6237	jne    	0x6494
  === BLOCK LINK ===
    0x623d
=== CODE BLOCK END ===

=== CODE BLOCK ADDRESS 0x623d ===
  0x623d	mov    	ecx, ebx
  0x623f	call   	0x5a04
  === BLOCK LINK ===
    0x6244
=== CODE BLOCK END ===

=== CODE BLOCK ADDRESS 0x6244 ===
  0x6244	jmp    	0x6300
  === BLOCK LINK ===
    0x6249
=== CODE BLOCK END ===

=== CODE BLOCK ADDRESS 0x6249 ===
  0x6249	dec    	esp
  0x624a	mov    	eax, esi
  0x624c	dec    	eax
  0x624d	lea    	ecx, [0x126ad]
  0x6253	mov    	edx, 0x51
  === BLOCK LINK ===
    0x6258
=== CODE BLOCK END ===

=== CODE BLOCK ADDRESS 0x6258 ===
  0x6258	dec    	eax
  0x6259	call   	dword ptr [0x52e1]
  === BLOCK LINK ===
    0x625f
=== CODE BLOCK END ===

=== CODE BLOCK ADDRESS 0x625f ===
  0x625f	nop    	dword ptr [eax + eax]
  0x6264	dec    	eax
  0x6265	lea    	ecx, [0x12695]
  0x626b	dec    	eax
  0x626c	call   	dword ptr [0x5006]
  === BLOCK LINK ===
    0x6272
=== CODE BLOCK END ===

=== CODE BLOCK ADDRESS 0x6272 ===
  0x6272	nop    	dword ptr [eax + eax]
  0x6277	mov    	ecx, 1
  0x627c	cmp    	eax, ecx
  0x627e	jne    	0x62cb
  === BLOCK LINK ===
    0x6280
=== CODE BLOCK END ===

=== CODE BLOCK ADDRESS 0x6280 ===
  0x6280	xor    	esi, esi
  0x6282	mov    	dword ptr [esp + 0x54], 0x28
  0x628a	dec    	esp
  0x628b	lea    	eax, [esp + 0x54]
  0x628f	mov    	word ptr [0x1266e], si
  === BLOCK LINK ===
    0x6296
=== CODE BLOCK END ===

=== CODE BLOCK ADDRESS 0x6296 ===
  0x6296	dec    	eax
  0x6297	lea    	edx, [ebp - 0x40]
  0x629a	dec    	eax
  0x629b	lea    	ecx, [0x1265f]
  0x62a1	dec    	eax
  === BLOCK LINK ===
    0x62a2
=== CODE BLOCK END ===

=== CODE BLOCK ADDRESS 0x62a2 ===
  0x62a2	call   	dword ptr [0x4ed8]
  === BLOCK LINK ===
    0x62a8
=== CODE BLOCK END ===

=== CODE BLOCK ADDRESS 0x62a8 ===
  0x62a8	nop    	dword ptr [eax + eax]
  0x62ad	cmp    	eax, 0x4b1
  0x62b2	je     	0x62bf
  === BLOCK LINK ===
    0x62b4
=== CODE BLOCK END ===

=== CODE BLOCK ADDRESS 0x62b4 ===
  0x62b4	cmp    	eax, 0xea
  0x62b9	je     	0x62bf
  === BLOCK LINK ===
    0x62bb
=== CODE BLOCK END ===

=== CODE BLOCK ADDRESS 0x62bb ===
  0x62bb	test   	eax, eax
  0x62bd	jne    	0x62f5
  === BLOCK LINK ===
    0x62bf
=== CODE BLOCK END ===

=== CODE BLOCK ADDRESS 0x62bf ===
  0x62bf	mov    	eax, 0x5c
  0x62c4	mov    	word ptr [0x12639], ax
  0x62cb	movzx  	ecx, word ptr [0x1262e]
  0x62d2	mov    	edx, 0xffdf
  0x62d7	lea    	eax, [ecx - 0x41]
  === BLOCK LINK ===
    0x62da
=== CODE BLOCK END ===

=== CODE BLOCK ADDRESS 0x62da ===
  0x62da	test   	dx, ax
  0x62dd	je     	0x649f
  === BLOCK LINK ===
    0x62e3
=== CODE BLOCK END ===

=== CODE BLOCK ADDRESS 0x62e3 ===
  0x62e3	lea    	eax, [edx + 0x20]
  0x62e6	add    	cx, ax
  0x62e9	mov    	word ptr [0x12610], cx
  0x62f0	jmp    	0x6264
  === BLOCK LINK ===
    0x62f5
=== CODE BLOCK END ===

=== CODE BLOCK ADDRESS 0x62f5 ===
  0x62f5	dec    	eax
  0x62f6	lea    	esi, [0x12604]
  0x62fc	dec    	eax
  0x62fd	mov    	dword ptr [ebp - 0x60], esi
  0x6300	cmp    	ebx, 0x55
  === BLOCK LINK ===
    0x6303
=== CODE BLOCK END ===

=== CODE BLOCK ADDRESS 0x6303 ===
  0x6303	jne    	0x6412
  === BLOCK LINK ===
    0x6309
=== CODE BLOCK END ===

=== CODE BLOCK ADDRESS 0x6309 ===
  0x6309	mov    	ecx, dword ptr [esp + 0x50]
  0x630d	xor    	ebx, ebx
  0x630f	jmp    	0x6159
  === BLOCK LINK ===
    0x6314
=== CODE BLOCK END ===

=== CODE BLOCK ADDRESS 0x6314 ===
  0x6314	inc    	ebp
  0x6315	xor    	esi, esi
  0x6317	inc    	esp
  0x6318	cmp    	dword ptr [esp + 0x64], esi
  0x631c	je     	0x632f
  === BLOCK LINK ===
    0x631e
=== CODE BLOCK END ===

=== CODE BLOCK ADDRESS 0x631e ===
  0x631e	mov    	ecx, dword ptr [esp + 0x50]
  0x6322	call   	0x591c
  === BLOCK LINK ===
    0x6327
=== CODE BLOCK END ===

=== CODE BLOCK ADDRESS 0x6327 ===
  0x6327	test   	eax, eax
  0x6329	jne    	0x64b5
  === BLOCK LINK ===
    0x632f
=== CODE BLOCK END ===

=== CODE BLOCK ADDRESS 0x632f ===
  0x632f	inc    	esp
  0x6330	cmp    	dword ptr [ebp + 0x80], esi
  0x6336	je     	0x6407
  === BLOCK LINK ===
    0x633c
=== CODE BLOCK END ===

=== CODE BLOCK ADDRESS 0x633c ===
  0x633c	dec    	eax
  0x633d	mov    	ecx, edi
  0x633f	call   	0x8a78
  === BLOCK LINK ===
    0x6344
=== CODE BLOCK END ===

=== CODE BLOCK ADDRESS 0x6344 ===
  0x6344	dec    	esp
  0x6345	lea    	esp, [0x536d]
  0x634b	inc    	ecx
  0x634c	mov    	edi, 0x800
  0x6351	dec    	eax
  === BLOCK LINK ===
    0x6352
=== CODE BLOCK END ===

=== CODE BLOCK ADDRESS 0x6352 ===
  0x6352	lea    	edi, [0x115a8]
  0x6358	test   	eax, eax
  0x635a	je     	0x63ba
  === BLOCK LINK ===
    0x635c
=== CODE BLOCK END ===

=== CODE BLOCK ADDRESS 0x635c ===
  0x635c	dec    	eax
  0x635d	mov    	ebx, dword ptr [0xd00d]
  0x6363	dec    	eax
  0x6364	lea    	eax, [esp + 0x54]
  0x6368	dec    	eax
  === BLOCK LINK ===
    0x6369
=== CODE BLOCK END ===

=== CODE BLOCK ADDRESS 0x6369 ===
  0x6369	mov    	dword ptr [esp + 0x30], eax
  0x636d	dec    	eax
  0x636e	lea    	ecx, [0x100ac]
  0x6374	dec    	esp
  0x6375	mov    	dword ptr [esp + 0x28], esp
  === BLOCK LINK ===
    0x6379
=== CODE BLOCK END ===

=== CODE BLOCK ADDRESS 0x6379 ===
  0x6379	inc    	ebp
  0x637a	mov    	ecx, edi
  0x637c	dec    	esp
  0x637d	mov    	eax, edi
  0x637f	mov    	dword ptr [esp + 0x20], 0xf4f
  === BLOCK LINK ===
    0x6387
=== CODE BLOCK END ===

=== CODE BLOCK ADDRESS 0x6387 ===
  0x6387	mov    	edx, 2
  0x638c	dec    	eax
  0x638d	mov    	dword ptr [0x1008d], esi
  0x6393	dec    	esp
  0x6394	mov    	dword ptr [0x1008e], ebp
  === BLOCK LINK ===
    0x639a
=== CODE BLOCK END ===

=== CODE BLOCK ADDRESS 0x639a ===
  0x639a	call   	0xa030
  === BLOCK LINK ===
    0x639f
=== CODE BLOCK END ===

=== CODE BLOCK ADDRESS 0x639f ===
  0x639f	test   	eax, eax
  0x63a1	inc    	ecx
  0x63a2	mov    	eax, 1
  0x63a7	dec    	eax
  0x63a8	mov    	edx, edi
  === BLOCK LINK ===
    0x63aa
=== CODE BLOCK END ===

=== CODE BLOCK ADDRESS 0x63aa ===
  0x63aa	dec    	eax
  0x63ab	cmovne  	ebx, dword ptr [0xcfb6]
  0x63b2	dec    	eax
  0x63b3	mov    	ecx, ebx
  0x63b5	call   	0xa244
  === BLOCK LINK ===
    0x63ba
=== CODE BLOCK END ===

=== CODE BLOCK ADDRESS 0x63ba ===
  0x63ba	dec    	eax
  0x63bb	mov    	ebx, dword ptr [0xcfaf]
  0x63c1	dec    	eax
  0x63c2	lea    	eax, [esp + 0x54]
  0x63c6	dec    	eax
  === BLOCK LINK ===
    0x63c7
=== CODE BLOCK END ===

=== CODE BLOCK ADDRESS 0x63c7 ===
  0x63c7	mov    	dword ptr [esp + 0x30], eax
  0x63cb	dec    	eax
  0x63cc	lea    	ecx, [0x1004e]
  0x63d2	dec    	esp
  0x63d3	mov    	dword ptr [esp + 0x28], esp
  === BLOCK LINK ===
    0x63d7
=== CODE BLOCK END ===

=== CODE BLOCK ADDRESS 0x63d7 ===
  0x63d7	inc    	ebp
  0x63d8	mov    	ecx, edi
  0x63da	dec    	esp
  0x63db	mov    	eax, edi
  0x63dd	mov    	dword ptr [esp + 0x20], 0xdac
  === BLOCK LINK ===
    0x63e5
=== CODE BLOCK END ===

=== CODE BLOCK ADDRESS 0x63e5 ===
  0x63e5	xor    	edx, edx
  0x63e7	call   	0xa030
  === BLOCK LINK ===
    0x63ec
=== CODE BLOCK END ===

=== CODE BLOCK ADDRESS 0x63ec ===
  0x63ec	test   	eax, eax
  0x63ee	inc    	ecx
  0x63ef	mov    	eax, 1
  0x63f4	dec    	eax
  0x63f5	mov    	edx, edi
  === BLOCK LINK ===
    0x63f7
=== CODE BLOCK END ===

=== CODE BLOCK ADDRESS 0x63f7 ===
  0x63f7	dec    	eax
  0x63f8	cmovne  	ebx, dword ptr [0xcf69]
  0x63ff	dec    	eax
  0x6400	mov    	ecx, ebx
  0x6402	call   	0xa244
  === BLOCK LINK ===
    0x6407
=== CODE BLOCK END ===

=== CODE BLOCK ADDRESS 0x6407 ===
  0x6407	inc    	esp
  0x6408	cmp    	dword ptr [esp + 0x74], esi
  0x640c	jne    	0x64bd
  === BLOCK LINK ===
    0x6412
=== CODE BLOCK END ===

=== CODE BLOCK ADDRESS 0x6412 ===
  0x6412	dec    	eax
  0x6413	mov    	ecx, dword ptr [ebp + 0x10]
  0x6416	dec    	eax
  0x6417	xor    	ecx, esp
  0x6419	call   	0x2900
  === BLOCK LINK ===
    0x641e
=== CODE BLOCK END ===

=== CODE BLOCK ADDRESS 0x641e ===
  0x641e	dec    	eax
  0x641f	mov    	ebx, dword ptr [esp + 0x178]
  0x6426	dec    	eax
  0x6427	add    	esp, 0x120
  0x642d	inc    	ecx
  === BLOCK LINK ===
    0x642e
=== CODE BLOCK END ===

=== CODE BLOCK ADDRESS 0x642e ===
  0x642e	pop    	edi
  0x642f	inc    	ecx
  0x6430	pop    	esi
  0x6431	inc    	ecx
  0x6432	pop    	ebp
  === BLOCK LINK ===
    0x6433
=== CODE BLOCK END ===

=== CODE BLOCK ADDRESS 0x6433 ===
  0x6433	inc    	ecx
  0x6434	pop    	esp
  0x6435	pop    	edi
  0x6436	pop    	esi
  0x6437	pop    	ebp
  === BLOCK LINK ===
    0x6438
=== CODE BLOCK END ===

=== CODE BLOCK ADDRESS 0x6438 ===
  0x6438	ret    	
  0x6439	int3   	
  0x643a	mov    	ecx, 0xe84
  0x643f	call   	0x312c
  === BLOCK LINK ===
    0x6444
=== CODE BLOCK END ===

=== CODE BLOCK ADDRESS 0x6444 ===
  0x6444	int3   	
  0x6445	mov    	ecx, 0xdb1
  0x644a	call   	0x312c
  === BLOCK LINK ===
    0x644f
=== CODE BLOCK END ===

=== CODE BLOCK ADDRESS 0x644f ===
  0x644f	int3   	
  0x6450	dec    	eax
  0x6451	lea    	eax, [0x12559]
  0x6457	mov    	ecx, 0xf70
  0x645c	dec    	eax
  === BLOCK LINK ===
    0x645d
=== CODE BLOCK END ===

=== CODE BLOCK ADDRESS 0x645d ===
  0x645d	mov    	edx, dword ptr [eax + ebx*8]
  0x6460	call   	0x3148
  === BLOCK LINK ===
    0x6465
=== CODE BLOCK END ===

=== CODE BLOCK ADDRESS 0x6465 ===
  0x6465	int3   	
  0x6466	movzx  	ecx, ax
  0x6469	call   	0x312c
  === BLOCK LINK ===
    0x646e
=== CODE BLOCK END ===

=== CODE BLOCK ADDRESS 0x646e ===
  0x646e	int3   	
  0x646f	mov    	ecx, eax
  0x6471	call   	0x312c
  === BLOCK LINK ===
    0x6476
=== CODE BLOCK END ===

=== CODE BLOCK ADDRESS 0x6476 ===
  0x6476	int3   	
  0x6477	mov    	ecx, 0xdb6
  0x647c	call   	0x312c
  === BLOCK LINK ===
    0x6481
=== CODE BLOCK END ===

=== CODE BLOCK ADDRESS 0x6481 ===
  0x6481	int3   	
  0x6482	movzx  	ecx, ax
  0x6485	call   	0x312c
  === BLOCK LINK ===
    0x648a
=== CODE BLOCK END ===

=== CODE BLOCK ADDRESS 0x648a ===
  0x648a	int3   	
  0x648b	movzx  	ecx, ax
  0x648e	call   	0x312c
  === BLOCK LINK ===
    0x6493
=== CODE BLOCK END ===

=== CODE BLOCK ADDRESS 0x6493 ===
  0x6493	int3   	
  0x6494	mov    	ecx, 0xe9f
  0x6499	call   	0x312c
  === BLOCK LINK ===
    0x649e
=== CODE BLOCK END ===

=== CODE BLOCK ADDRESS 0x649e ===
  0x649e	int3   	
  0x649f	mov    	ecx, 0xf50
  0x64a4	call   	0x312c
  === BLOCK LINK ===
    0x64a9
=== CODE BLOCK END ===

=== CODE BLOCK ADDRESS 0x64a9 ===
  0x64a9	int3   	
  0x64aa	mov    	ecx, 0x55
  0x64af	call   	0x312c
  === BLOCK LINK ===
    0x64b4
=== CODE BLOCK END ===

=== CODE BLOCK ADDRESS 0x64b4 ===
  0x64b4	int3   	
  0x64b5	mov    	ecx, eax
  0x64b7	call   	0x312c
  === BLOCK LINK ===
    0x64bc
=== CODE BLOCK END ===

=== CODE BLOCK ADDRESS 0x64bc ===
  0x64bc	int3   	
  0x64bd	movzx  	ecx, word ptr [esi]
  0x64c0	call   	0x3108
  === BLOCK LINK ===
    0x64c5
=== CODE BLOCK END ===

=== CODE BLOCK ADDRESS 0x64c5 ===
  0x64c5	int3   	
  0x64c6	int3   	
  0x64c7	int3   	
  0x64c8	int3   	
  0x64c9	int3   	
  === BLOCK LINK ===
    0x64ca
=== CODE BLOCK END ===

=== CODE BLOCK ADDRESS 0x64ca ===
  0x64ca	int3   	
  0x64cb	int3   	
  0x64cc	dec    	eax
  0x64cd	mov    	dword ptr [esp + 0x18], ebx
  0x64d1	dec    	eax
  === BLOCK LINK ===
    0x64d2
=== CODE BLOCK END ===

=== CODE BLOCK ADDRESS 0x64d2 ===
  0x64d2	mov    	dword ptr [esp + 0x20], esi
  0x64d6	push   	ebp
  0x64d7	push   	edi
  0x64d8	inc    	ecx
  0x64d9	push   	edi
  === BLOCK LINK ===
    0x64da
=== CODE BLOCK END ===

=== CODE BLOCK ADDRESS 0x64da ===
  0x64da	dec    	eax
  0x64db	lea    	ebp, [esp - 0x590]
  0x64e2	dec    	eax
  0x64e3	sub    	esp, 0x690
  0x64e9	dec    	eax
  === BLOCK LINK ===
    0x64ea
=== CODE BLOCK END ===

=== CODE BLOCK ADDRESS 0x64ea ===
  0x64ea	mov    	eax, dword ptr [0x7d98]
  0x64f0	dec    	eax
  0x64f1	xor    	eax, esp
  0x64f3	dec    	eax
  0x64f4	mov    	dword ptr [ebp + 0x580], eax
  === BLOCK LINK ===
    0x64fa
=== CODE BLOCK END ===

=== CODE BLOCK ADDRESS 0x64fa ===
  0x64fa	dec    	eax
  0x64fb	mov    	esi, edx
  0x64fd	dec    	eax
  0x64fe	mov    	edi, ecx
  0x6500	call   	0x59d8
  === BLOCK LINK ===
    0x6505
=== CODE BLOCK END ===

=== CODE BLOCK ADDRESS 0x6505 ===
  0x6505	dec    	eax
  0x6506	lea    	edx, [esp + 0x48]
  0x650a	call   	0x8c58
  === BLOCK LINK ===
    0x650f
=== CODE BLOCK END ===

=== CODE BLOCK ADDRESS 0x650f ===
  0x650f	inc    	ebp
  0x6510	xor    	edi, edi
  0x6512	test   	eax, eax
  0x6514	je     	0x6529
  === BLOCK LINK ===
    0x6516
=== CODE BLOCK END ===

=== CODE BLOCK ADDRESS 0x6516 ===
  0x6516	xor    	edx, edx
  0x6518	mov    	ecx, eax
  0x651a	call   	0x7ea4
  === BLOCK LINK ===
    0x651f
=== CODE BLOCK END ===

=== CODE BLOCK ADDRESS 0x651f ===
  0x651f	inc    	ecx
  0x6520	lea    	ecx, [edi + 2]
  0x6523	call   	0x8378
  === BLOCK LINK ===
    0x6528
=== CODE BLOCK END ===

=== CODE BLOCK ADDRESS 0x6528 ===
  0x6528	int3   	
  0x6529	dec    	eax
  0x652a	mov    	ebx, dword ptr [esp + 0x48]
  0x652e	dec    	eax
  0x652f	lea    	ecx, [ebp + 0x370]
  === BLOCK LINK ===
    0x6535
=== CODE BLOCK END ===

=== CODE BLOCK ADDRESS 0x6535 ===
  0x6535	mov    	edx, 0x101
  0x653a	dec    	esp
  0x653b	mov    	eax, dword ptr [ebx + 0x18]
  0x653e	dec    	eax
  0x653f	call   	dword ptr [0x4ffb]
  === BLOCK LINK ===
    0x6545
=== CODE BLOCK END ===

=== CODE BLOCK ADDRESS 0x6545 ===
  0x6545	nop    	dword ptr [eax + eax]
  0x654a	dec    	esp
  0x654b	lea    	eax, [0x58e7]
  0x6551	mov    	edx, 0x105
  0x6556	dec    	eax
  === BLOCK LINK ===
    0x6557
=== CODE BLOCK END ===

=== CODE BLOCK ADDRESS 0x6557 ===
  0x6557	lea    	ecx, [ebp + 0x160]
  0x655d	dec    	eax
  0x655e	call   	dword ptr [0x4fdc]
  === BLOCK LINK ===
    0x6564
=== CODE BLOCK END ===

=== CODE BLOCK ADDRESS 0x6564 ===
  0x6564	nop    	dword ptr [eax + eax]
  0x6569	dec    	esp
  0x656a	mov    	eax, dword ptr [ebx + 0x88]
  0x6570	dec    	eax
  0x6571	lea    	ecx, [ebp + 0x160]
  === BLOCK LINK ===
    0x6577
=== CODE BLOCK END ===

=== CODE BLOCK ADDRESS 0x6577 ===
  0x6577	mov    	edx, 0x105
  0x657c	dec    	eax
  0x657d	call   	dword ptr [0x4fb5]
  === BLOCK LINK ===
    0x6583
=== CODE BLOCK END ===

=== CODE BLOCK ADDRESS 0x6583 ===
  0x6583	nop    	dword ptr [eax + eax]
  0x6588	dec    	eax
  0x6589	mov    	ecx, ebx
  0x658b	dec    	eax
  0x658c	call   	dword ptr [0x5026]
  === BLOCK LINK ===
    0x6592
=== CODE BLOCK END ===

=== CODE BLOCK ADDRESS 0x6592 ===
  0x6592	nop    	dword ptr [eax + eax]
  0x6597	dec    	esp
  0x6598	lea    	ecx, [esp + 0x50]
  0x659c	inc    	ecx
  0x659d	mov    	eax, 0xb
  === BLOCK LINK ===
    0x65a2
=== CODE BLOCK END ===

=== CODE BLOCK ADDRESS 0x65a2 ===
  0x65a2	dec    	eax
  0x65a3	lea    	edx, [ebp + 0x370]
  0x65a9	dec    	eax
  0x65aa	lea    	ecx, [ebp + 0x160]
  0x65b0	dec    	eax
  === BLOCK LINK ===
    0x65b1
=== CODE BLOCK END ===

=== CODE BLOCK ADDRESS 0x65b1 ===
  0x65b1	call   	dword ptr [0x5029]
  === BLOCK LINK ===
    0x65b7
=== CODE BLOCK END ===

=== CODE BLOCK ADDRESS 0x65b7 ===
  0x65b7	nop    	dword ptr [eax + eax]
  0x65bc	test   	eax, eax
  0x65be	je     	0x65d7
  === BLOCK LINK ===
    0x65c0
=== CODE BLOCK END ===

=== CODE BLOCK ADDRESS 0x65c0 ===
  0x65c0	xor    	edx, edx
  0x65c2	mov    	ecx, 0xf4b
  0x65c7	call   	0x7ea4
  === BLOCK LINK ===
    0x65cc
=== CODE BLOCK END ===

=== CODE BLOCK ADDRESS 0x65cc ===
  0x65cc	mov    	ecx, 2
  0x65d1	call   	0x8378
  === BLOCK LINK ===
    0x65d6
=== CODE BLOCK END ===

=== CODE BLOCK ADDRESS 0x65d6 ===
  0x65d6	int3   	
  0x65d7	dec    	esp
  0x65d8	mov    	eax, dword ptr [esp + 0x50]
  0x65dc	dec    	eax
  0x65dd	lea    	ecx, [esp + 0x60]
  === BLOCK LINK ===
    0x65e1
=== CODE BLOCK END ===

=== CODE BLOCK ADDRESS 0x65e1 ===
  0x65e1	mov    	edx, 0x100
  0x65e6	dec    	ebp
  0x65e7	mov    	eax, dword ptr [eax + 0x30]
  0x65ea	dec    	eax
  0x65eb	call   	dword ptr [0x4f4f]
  === BLOCK LINK ===
    0x65f1
=== CODE BLOCK END ===

=== CODE BLOCK ADDRESS 0x65f1 ===
  0x65f1	nop    	dword ptr [eax + eax]
  0x65f6	dec    	eax
  0x65f7	mov    	ecx, dword ptr [esp + 0x50]
  0x65fb	dec    	eax
  0x65fc	call   	dword ptr [0x4fb6]
  === BLOCK LINK ===
    0x6602
=== CODE BLOCK END ===

=== CODE BLOCK ADDRESS 0x6602 ===
  0x6602	nop    	dword ptr [eax + eax]
  0x6607	inc    	sp
  0x6609	cmp    	dword ptr [esp + 0x60], edi
  0x660d	jne    	0x6626
  === BLOCK LINK ===
    0x660f
=== CODE BLOCK END ===

=== CODE BLOCK ADDRESS 0x660f ===
  0x660f	xor    	edx, edx
  0x6611	mov    	ecx, 0xf4c
  0x6616	call   	0x7ea4
  === BLOCK LINK ===
    0x661b
=== CODE BLOCK END ===

=== CODE BLOCK ADDRESS 0x661b ===
  0x661b	mov    	ecx, 2
  0x6620	call   	0x8378
  === BLOCK LINK ===
    0x6625
=== CODE BLOCK END ===

=== CODE BLOCK ADDRESS 0x6625 ===
  0x6625	int3   	
  0x6626	inc    	ebp
  0x6627	xor    	eax, eax
  0x6629	dec    	eax
  0x662a	lea    	edx, [esp + 0x40]
  === BLOCK LINK ===
    0x662e
=== CODE BLOCK END ===

=== CODE BLOCK ADDRESS 0x662e ===
  0x662e	dec    	eax
  0x662f	lea    	ecx, [esp + 0x60]
  0x6633	dec    	eax
  0x6634	call   	dword ptr [0x4f6e]
  === BLOCK LINK ===
    0x663a
=== CODE BLOCK END ===

=== CODE BLOCK ADDRESS 0x663a ===
  0x663a	nop    	dword ptr [eax + eax]
  0x663f	test   	eax, eax
  0x6641	jne    	0x6787
  === BLOCK LINK ===
    0x6647
=== CODE BLOCK END ===

=== CODE BLOCK ADDRESS 0x6647 ===
  0x6647	cmp    	dword ptr [esp + 0x40], 0x1000
  0x664f	jne    	0x6787
  === BLOCK LINK ===
    0x6655
=== CODE BLOCK END ===

=== CODE BLOCK ADDRESS 0x6655 ===
  0x6655	lea    	ebx, [eax + 0x5c]
  0x6658	mov    	edx, ebx
  0x665a	dec    	eax
  0x665b	lea    	ecx, [esp + 0x64]
  0x665f	dec    	eax
  === BLOCK LINK ===
    0x6660
=== CODE BLOCK END ===

=== CODE BLOCK ADDRESS 0x6660 ===
  0x6660	call   	dword ptr [0x4dc2]
  === BLOCK LINK ===
    0x6666
=== CODE BLOCK END ===

=== CODE BLOCK ADDRESS 0x6666 ===
  0x6666	nop    	dword ptr [eax + eax]
  0x666b	dec    	eax
  0x666c	test   	eax, eax
  0x666e	je     	0x6694
  === BLOCK LINK ===
    0x6670
=== CODE BLOCK END ===

=== CODE BLOCK ADDRESS 0x6670 ===
  0x6670	mov    	edx, ebx
  0x6672	dec    	eax
  0x6673	lea    	ecx, [eax + 2]
  0x6676	dec    	eax
  0x6677	call   	dword ptr [0x4dab]
  === BLOCK LINK ===
    0x667d
=== CODE BLOCK END ===

=== CODE BLOCK ADDRESS 0x667d ===
  0x667d	nop    	dword ptr [eax + eax]
  0x6682	dec    	eax
  0x6683	mov    	ebx, eax
  0x6685	dec    	eax
  0x6686	test   	eax, eax
  === BLOCK LINK ===
    0x6688
=== CODE BLOCK END ===

=== CODE BLOCK ADDRESS 0x6688 ===
  0x6688	je     	0x6694
  === BLOCK LINK ===
    0x668a
=== CODE BLOCK END ===

=== CODE BLOCK ADDRESS 0x668a ===
  0x668a	inc    	sp
  0x668c	mov    	dword ptr [eax], edi
  0x668e	dec    	eax
  0x668f	add    	ebx, 2
  0x6692	jmp    	0x669b
  === BLOCK LINK ===
    0x6694
=== CODE BLOCK END ===

=== CODE BLOCK ADDRESS 0x6694 ===
  0x6694	dec    	eax
  0x6695	lea    	ebx, [0x52d9]
  0x669b	dec    	eax
  0x669c	test   	edi, edi
  0x669e	je     	0x66c7
  === BLOCK LINK ===
    0x66a0
=== CODE BLOCK END ===

=== CODE BLOCK ADDRESS 0x66a0 ===
  0x66a0	xor    	edx, edx
  0x66a2	dec    	eax
  0x66a3	mov    	ecx, edi
  0x66a5	call   	0x52f0
  === BLOCK LINK ===
    0x66aa
=== CODE BLOCK END ===

=== CODE BLOCK ADDRESS 0x66aa ===
  0x66aa	dec    	eax
  0x66ab	mov    	edi, eax
  0x66ad	dec    	eax
  0x66ae	test   	eax, eax
  0x66b0	jne    	0x66c7
  === BLOCK LINK ===
    0x66b2
=== CODE BLOCK END ===

=== CODE BLOCK ADDRESS 0x66b2 ===
  0x66b2	xor    	edx, edx
  0x66b4	mov    	ecx, 0xf50
  0x66b9	call   	0x7ea4
  === BLOCK LINK ===
    0x66be
=== CODE BLOCK END ===

=== CODE BLOCK ADDRESS 0x66be ===
  0x66be	lea    	ecx, [edi + 2]
  0x66c1	call   	0x8378
  === BLOCK LINK ===
    0x66c6
=== CODE BLOCK END ===

=== CODE BLOCK ADDRESS 0x66c6 ===
  0x66c6	int3   	
  0x66c7	dec    	esp
  0x66c8	mov    	eax, esi
  0x66ca	inc    	esp
  0x66cb	mov    	dword ptr [esp + 0x20], edi
  === BLOCK LINK ===
    0x66cf
=== CODE BLOCK END ===

=== CODE BLOCK ADDRESS 0x66cf ===
  0x66cf	dec    	eax
  0x66d0	lea    	edx, [esp + 0x60]
  0x66d4	dec    	eax
  0x66d5	mov    	ecx, edi
  0x66d7	call   	0x5c08
  === BLOCK LINK ===
    0x66dc
=== CODE BLOCK END ===

=== CODE BLOCK ADDRESS 0x66dc ===
  0x66dc	dec    	eax
  0x66dd	lea    	eax, [esp + 0x60]
  0x66e1	dec    	eax
  0x66e2	mov    	dword ptr [0xfd50], ebx
  0x66e8	dec    	eax
  === BLOCK LINK ===
    0x66e9
=== CODE BLOCK END ===

=== CODE BLOCK ADDRESS 0x66e9 ===
  0x66e9	mov    	ebx, dword ptr [0xcc81]
  0x66ef	dec    	esp
  0x66f0	lea    	eax, [0x1120a]
  0x66f6	dec    	eax
  0x66f7	mov    	dword ptr [0xfd2b], eax
  === BLOCK LINK ===
    0x66fd
=== CODE BLOCK END ===

=== CODE BLOCK ADDRESS 0x66fd ===
  0x66fd	dec    	eax
  0x66fe	lea    	ecx, [0xfd1c]
  0x6704	dec    	eax
  0x6705	lea    	eax, [esp + 0x48]
  0x6709	dec    	eax
  === BLOCK LINK ===
    0x670a
=== CODE BLOCK END ===

=== CODE BLOCK ADDRESS 0x670a ===
  0x670a	mov    	dword ptr [0xfd10], edi
  0x6710	dec    	eax
  0x6711	mov    	dword ptr [esp + 0x30], eax
  0x6715	inc    	ecx
  0x6716	mov    	ecx, 0x800
  === BLOCK LINK ===
    0x671b
=== CODE BLOCK END ===

=== CODE BLOCK ADDRESS 0x671b ===
  0x671b	dec    	eax
  0x671c	lea    	eax, [0x4f96]
  0x6722	dec    	eax
  0x6723	mov    	dword ptr [0xfd07], edi
  0x6729	dec    	eax
  === BLOCK LINK ===
    0x672a
=== CODE BLOCK END ===

=== CODE BLOCK ADDRESS 0x672a ===
  0x672a	mov    	dword ptr [esp + 0x28], eax
  0x672e	mov    	edx, 4
  0x6733	mov    	dword ptr [esp + 0x20], 0xf4e
  0x673b	call   	0xa030
  === BLOCK LINK ===
    0x6740
=== CODE BLOCK END ===

=== CODE BLOCK ADDRESS 0x6740 ===
  0x6740	test   	eax, eax
  0x6742	dec    	eax
  0x6743	lea    	edx, [0x111b7]
  0x6749	inc    	ecx
  0x674a	mov    	eax, 1
  === BLOCK LINK ===
    0x674f
=== CODE BLOCK END ===

=== CODE BLOCK ADDRESS 0x674f ===
  0x674f	dec    	eax
  0x6750	cmovne  	ebx, dword ptr [0xcc11]
  0x6757	dec    	eax
  0x6758	mov    	ecx, ebx
  0x675a	call   	0xa244
  === BLOCK LINK ===
    0x675f
=== CODE BLOCK END ===

=== CODE BLOCK ADDRESS 0x675f ===
  0x675f	dec    	eax
  0x6760	mov    	ecx, dword ptr [ebp + 0x580]
  0x6766	dec    	eax
  0x6767	xor    	ecx, esp
  0x6769	call   	0x2900
  === BLOCK LINK ===
    0x676e
=== CODE BLOCK END ===

=== CODE BLOCK ADDRESS 0x676e ===
  0x676e	dec    	esp
  0x676f	lea    	ebx, [esp + 0x690]
  0x6776	dec    	ecx
  0x6777	mov    	ebx, dword ptr [ebx + 0x30]
  0x677a	dec    	ecx
  === BLOCK LINK ===
    0x677b
=== CODE BLOCK END ===

=== CODE BLOCK ADDRESS 0x677b ===
  0x677b	mov    	esi, dword ptr [ebx + 0x38]
  0x677e	dec    	ecx
  0x677f	mov    	esp, ebx
  0x6781	inc    	ecx
  0x6782	pop    	edi
  === BLOCK LINK ===
    0x6783
=== CODE BLOCK END ===

=== CODE BLOCK ADDRESS 0x6783 ===
  0x6783	pop    	edi
  0x6784	pop    	ebp
  0x6785	ret    	
  0x6786	int3   	
  0x6787	dec    	eax
  === BLOCK LINK ===
    0x6788
=== CODE BLOCK END ===

=== CODE BLOCK ADDRESS 0x6788 ===
  0x6788	lea    	eax, [esp + 0x60]
  0x678c	mov    	edx, 1
  0x6791	mov    	ecx, 0xf4d
  0x6796	dec    	eax
  0x6797	mov    	dword ptr [0xfc83], eax
  === BLOCK LINK ===
    0x679d
=== CODE BLOCK END ===

=== CODE BLOCK ADDRESS 0x679d ===
  0x679d	call   	0x7ea4
  === BLOCK LINK ===
    0x67a2
=== CODE BLOCK END ===

=== CODE BLOCK ADDRESS 0x67a2 ===
  0x67a2	mov    	ecx, 2
  0x67a7	call   	0x8378
  === BLOCK LINK ===
    0x67ac
=== CODE BLOCK END ===

=== CODE BLOCK ADDRESS 0x67ac ===
  0x67ac	int3   	
  0x67ad	int3   	
  0x67ae	int3   	
  0x67af	int3   	
  0x67b0	int3   	
  === BLOCK LINK ===
    0x67b1
=== CODE BLOCK END ===

=== CODE BLOCK ADDRESS 0x67b1 ===
  0x67b1	int3   	
  0x67b2	int3   	
  0x67b3	int3   	
  0x67b4	dec    	eax
  0x67b5	mov    	eax, esp
  === BLOCK LINK ===
    0x67b7
=== CODE BLOCK END ===

=== CODE BLOCK ADDRESS 0x67b7 ===
  0x67b7	dec    	eax
  0x67b8	mov    	dword ptr [eax + 8], ebx
  0x67bb	dec    	eax
  0x67bc	mov    	dword ptr [eax + 0x10], ebp
  0x67bf	dec    	eax
  === BLOCK LINK ===
    0x67c0
=== CODE BLOCK END ===

=== CODE BLOCK ADDRESS 0x67c0 ===
  0x67c0	mov    	dword ptr [eax + 0x20], esi
  0x67c3	inc    	esp
  0x67c4	mov    	dword ptr [eax + 0x18], eax
  0x67c7	push   	edi
  0x67c8	inc    	ecx
  === BLOCK LINK ===
    0x67c9
=== CODE BLOCK END ===

=== CODE BLOCK ADDRESS 0x67c9 ===
  0x67c9	push   	ebp
  0x67ca	inc    	ecx
  0x67cb	push   	esi
  0x67cc	dec    	eax
  0x67cd	sub    	esp, 0x40
  === BLOCK LINK ===
    0x67d0
=== CODE BLOCK END ===

=== CODE BLOCK ADDRESS 0x67d0 ===
  0x67d0	dec    	eax
  0x67d1	mov    	edi, ecx
  0x67d3	call   	0x59d8
  === BLOCK LINK ===
    0x67d8
=== CODE BLOCK END ===

=== CODE BLOCK ADDRESS 0x67d8 ===
  0x67d8	dec    	eax
  0x67d9	mov    	eax, dword ptr [0x121d1]
  0x67df	xor    	esi, esi
  0x67e1	inc    	esp
  0x67e2	movzx  	ecx, si
  === BLOCK LINK ===
    0x67e5
=== CODE BLOCK END ===

=== CODE BLOCK ADDRESS 0x67e5 ===
  0x67e5	lea    	ebp, [esi + 1]
  0x67e8	jmp    	0x681f
  === BLOCK LINK ===
    0x67ea
=== CODE BLOCK END ===

=== CODE BLOCK ADDRESS 0x67ea ===
  0x67ea	dec    	esp
  0x67eb	lea    	eax, [0x7b3f]
  0x67f1	dec    	esp
  0x67f2	sub    	eax, eax
  0x67f4	movzx  	ecx, word ptr [eax]
  === BLOCK LINK ===
    0x67f7
=== CODE BLOCK END ===

=== CODE BLOCK ADDRESS 0x67f7 ===
  0x67f7	inc    	edx
  0x67f8	movzx  	edx, word ptr [eax + eax]
  0x67fc	sub    	ecx, edx
  0x67fe	jne    	0x6808
  === BLOCK LINK ===
    0x6800
=== CODE BLOCK END ===

=== CODE BLOCK ADDRESS 0x6800 ===
  0x6800	dec    	eax
  0x6801	add    	eax, 2
  0x6804	test   	edx, edx
  0x6806	jne    	0x67f4
  === BLOCK LINK ===
    0x6808
=== CODE BLOCK END ===

=== CODE BLOCK ADDRESS 0x6808 ===
  0x6808	test   	ecx, ecx
  0x680a	je     	0x6848
  === BLOCK LINK ===
    0x680c
=== CODE BLOCK END ===

=== CODE BLOCK ADDRESS 0x680c ===
  0x680c	inc    	sp
  0x680e	add    	ecx, ebp
  0x6810	dec    	eax
  0x6811	lea    	ecx, [0x12199]
  0x6817	inc    	ecx
  === BLOCK LINK ===
    0x6818
=== CODE BLOCK END ===

=== CODE BLOCK ADDRESS 0x6818 ===
  0x6818	movzx  	eax, cx
  0x681b	dec    	eax
  0x681c	mov    	eax, dword ptr [ecx + eax*8]
  0x681f	dec    	eax
  0x6820	test   	eax, eax
  === BLOCK LINK ===
    0x6822
=== CODE BLOCK END ===

=== CODE BLOCK ADDRESS 0x6822 ===
  0x6822	jne    	0x67ea
  === BLOCK LINK ===
    0x6824
=== CODE BLOCK END ===

=== CODE BLOCK ADDRESS 0x6824 ===
  0x6824	dec    	eax
  0x6825	mov    	ecx, edi
  0x6827	call   	0x8a78
  === BLOCK LINK ===
    0x682c
=== CODE BLOCK END ===

=== CODE BLOCK ADDRESS 0x682c ===
  0x682c	dec    	esp
  0x682d	lea    	ebp, [0x4e85]
  0x6833	dec    	esp
  0x6834	lea    	esi, [0x110c6]
  0x683a	test   	eax, eax
  === BLOCK LINK ===
    0x683c
=== CODE BLOCK END ===

=== CODE BLOCK ADDRESS 0x683c ===
  0x683c	je     	0x685f
  === BLOCK LINK ===
    0x683e
=== CODE BLOCK END ===

=== CODE BLOCK ADDRESS 0x683e ===
  0x683e	call   	0x69a0
  === BLOCK LINK ===
    0x6843
=== CODE BLOCK END ===

=== CODE BLOCK ADDRESS 0x6843 ===
  0x6843	jmp    	0x6913
  === BLOCK LINK ===
    0x6848
=== CODE BLOCK END ===

=== CODE BLOCK ADDRESS 0x6848 ===
  0x6848	xor    	edx, edx
  0x684a	mov    	ecx, 0xdad
  0x684f	call   	0x7ea4
  === BLOCK LINK ===
    0x6854
=== CODE BLOCK END ===

=== CODE BLOCK ADDRESS 0x6854 ===
  0x6854	mov    	ecx, 2
  0x6859	call   	0x8378
  === BLOCK LINK ===
    0x685e
=== CODE BLOCK END ===

=== CODE BLOCK ADDRESS 0x685e ===
  0x685e	int3   	
  0x685f	inc    	ebp
  0x6860	xor    	eax, eax
  0x6862	mov    	edx, ebp
  0x6864	dec    	eax
  === BLOCK LINK ===
    0x6865
=== CODE BLOCK END ===

=== CODE BLOCK ADDRESS 0x6865 ===
  0x6865	mov    	ecx, edi
  0x6867	dec    	eax
  0x6868	call   	dword ptr [0x492a]
  === BLOCK LINK ===
    0x686e
=== CODE BLOCK END ===

=== CODE BLOCK ADDRESS 0x686e ===
  0x686e	nop    	dword ptr [eax + eax]
  0x6873	test   	eax, eax
  0x6875	je     	0x6913
  === BLOCK LINK ===
    0x687b
=== CODE BLOCK END ===

=== CODE BLOCK ADDRESS 0x687b ===
  0x687b	cmp    	eax, 0x961
  0x6880	je     	0x6889
  === BLOCK LINK ===
    0x6882
=== CODE BLOCK END ===

=== CODE BLOCK ADDRESS 0x6882 ===
  0x6882	mov    	ecx, eax
  0x6884	call   	0x5a04
  === BLOCK LINK ===
    0x6889
=== CODE BLOCK END ===

=== CODE BLOCK ADDRESS 0x6889 ===
  0x6889	dec    	eax
  0x688a	mov    	ebx, dword ptr [0xcae0]
  0x6890	dec    	eax
  0x6891	lea    	eax, [esp + 0x70]
  0x6895	dec    	eax
  === BLOCK LINK ===
    0x6896
=== CODE BLOCK END ===

=== CODE BLOCK ADDRESS 0x6896 ===
  0x6896	mov    	dword ptr [esp + 0x30], eax
  0x689a	dec    	eax
  0x689b	lea    	ecx, [0xfb7f]
  0x68a1	dec    	esp
  0x68a2	mov    	dword ptr [esp + 0x28], ebp
  === BLOCK LINK ===
    0x68a6
=== CODE BLOCK END ===

=== CODE BLOCK ADDRESS 0x68a6 ===
  0x68a6	inc    	ecx
  0x68a7	mov    	ecx, 0x800
  0x68ac	dec    	ebp
  0x68ad	mov    	eax, esi
  0x68af	mov    	dword ptr [esp + 0x20], 0xe6b
  === BLOCK LINK ===
    0x68b7
=== CODE BLOCK END ===

=== CODE BLOCK ADDRESS 0x68b7 ===
  0x68b7	mov    	edx, ebp
  0x68b9	dec    	eax
  0x68ba	mov    	dword ptr [0xfb60], edi
  0x68c0	call   	0xa030
  === BLOCK LINK ===
    0x68c5
=== CODE BLOCK END ===

=== CODE BLOCK ADDRESS 0x68c5 ===
  0x68c5	test   	eax, eax
  0x68c7	inc    	esp
  0x68c8	mov    	eax, ebp
  0x68ca	dec    	ecx
  0x68cb	mov    	edx, esi
  === BLOCK LINK ===
    0x68cd
=== CODE BLOCK END ===

=== CODE BLOCK ADDRESS 0x68cd ===
  0x68cd	dec    	eax
  0x68ce	cmovne  	ebx, dword ptr [0xca93]
  0x68d5	dec    	eax
  0x68d6	mov    	ecx, ebx
  0x68d8	call   	0xa244
  === BLOCK LINK ===
    0x68dd
=== CODE BLOCK END ===

=== CODE BLOCK ADDRESS 0x68dd ===
  0x68dd	mov    	ecx, 0x14a9
  0x68e2	call   	0x8734
  === BLOCK LINK ===
    0x68e7
=== CODE BLOCK END ===

=== CODE BLOCK ADDRESS 0x68e7 ===
  0x68e7	test   	eax, eax
  0x68e9	jne    	0x68f4
  === BLOCK LINK ===
    0x68eb
=== CODE BLOCK END ===

=== CODE BLOCK ADDRESS 0x68eb ===
  0x68eb	lea    	ecx, [eax + 2]
  0x68ee	call   	0x8378
  === BLOCK LINK ===
    0x68f3
=== CODE BLOCK END ===

=== CODE BLOCK ADDRESS 0x68f3 ===
  0x68f3	int3   	
  0x68f4	inc    	esp
  0x68f5	mov    	eax, ebp
  0x68f7	mov    	edx, ebp
  0x68f9	dec    	eax
  === BLOCK LINK ===
    0x68fa
=== CODE BLOCK END ===

=== CODE BLOCK ADDRESS 0x68fa ===
  0x68fa	mov    	ecx, edi
  0x68fc	dec    	eax
  0x68fd	call   	dword ptr [0x4895]
  === BLOCK LINK ===
    0x6903
=== CODE BLOCK END ===

=== CODE BLOCK ADDRESS 0x6903 ===
  0x6903	nop    	dword ptr [eax + eax]
  0x6908	test   	eax, eax
  0x690a	je     	0x6913
  === BLOCK LINK ===
    0x690c
=== CODE BLOCK END ===

=== CODE BLOCK ADDRESS 0x690c ===
  0x690c	mov    	ecx, eax
  0x690e	call   	0x5a04
  === BLOCK LINK ===
    0x6913
=== CODE BLOCK END ===

=== CODE BLOCK ADDRESS 0x6913 ===
  0x6913	dec    	eax
  0x6914	mov    	ecx, edi
  0x6916	call   	0x8a78
  === BLOCK LINK ===
    0x691b
=== CODE BLOCK END ===

=== CODE BLOCK ADDRESS 0x691b ===
  0x691b	dec    	eax
  0x691c	mov    	ebx, dword ptr [0xca4e]
  0x6922	dec    	eax
  0x6923	lea    	ecx, [0xfaf7]
  0x6929	test   	eax, eax
  === BLOCK LINK ===
    0x692b
=== CODE BLOCK END ===

=== CODE BLOCK ADDRESS 0x692b ===
  0x692b	inc    	ecx
  0x692c	mov    	ecx, 0x800
  0x6931	dec    	eax
  0x6932	lea    	eax, [esp + 0x70]
  0x6936	dec    	ebp
  === BLOCK LINK ===
    0x6937
=== CODE BLOCK END ===

=== CODE BLOCK ADDRESS 0x6937 ===
  0x6937	mov    	eax, esi
  0x6939	dec    	eax
  0x693a	mov    	dword ptr [esp + 0x30], eax
  0x693e	dec    	esp
  0x693f	mov    	dword ptr [esp + 0x28], ebp
  === BLOCK LINK ===
    0x6943
=== CODE BLOCK END ===

=== CODE BLOCK ADDRESS 0x6943 ===
  0x6943	je     	0x6951
  === BLOCK LINK ===
    0x6945
=== CODE BLOCK END ===

=== CODE BLOCK ADDRESS 0x6945 ===
  0x6945	mov    	dword ptr [esp + 0x20], 0xdac
  0x694d	xor    	edx, edx
  0x694f	jmp    	0x6962
  === BLOCK LINK ===
    0x6951
=== CODE BLOCK END ===

=== CODE BLOCK ADDRESS 0x6951 ===
  0x6951	dec    	eax
  0x6952	mov    	dword ptr [0xfac8], edi
  0x6958	mov    	edx, ebp
  0x695a	mov    	dword ptr [esp + 0x20], 0x122a
  0x6962	call   	0xa030
  === BLOCK LINK ===
    0x6967
=== CODE BLOCK END ===

=== CODE BLOCK ADDRESS 0x6967 ===
  0x6967	test   	eax, eax
  0x6969	inc    	esp
  0x696a	mov    	eax, ebp
  0x696c	dec    	ecx
  0x696d	mov    	edx, esi
  === BLOCK LINK ===
    0x696f
=== CODE BLOCK END ===

=== CODE BLOCK ADDRESS 0x696f ===
  0x696f	dec    	eax
  0x6970	cmovne  	ebx, dword ptr [0xc9f1]
  0x6977	dec    	eax
  0x6978	mov    	ecx, ebx
  0x697a	dec    	eax
  === BLOCK LINK ===
    0x697b
=== CODE BLOCK END ===

=== CODE BLOCK ADDRESS 0x697b ===
  0x697b	mov    	ebx, dword ptr [esp + 0x60]
  0x697f	dec    	eax
  0x6980	mov    	ebp, dword ptr [esp + 0x68]
  0x6984	dec    	eax
  0x6985	mov    	esi, dword ptr [esp + 0x78]
  === BLOCK LINK ===
    0x6989
=== CODE BLOCK END ===

=== CODE BLOCK ADDRESS 0x6989 ===
  0x6989	dec    	eax
  0x698a	add    	esp, 0x40
  0x698d	inc    	ecx
  0x698e	pop    	esi
  0x698f	inc    	ecx
  === BLOCK LINK ===
    0x6990
=== CODE BLOCK END ===

=== CODE BLOCK ADDRESS 0x6990 ===
  0x6990	pop    	ebp
  0x6991	pop    	edi
  0x6992	jmp    	0xa244
  === BLOCK LINK ===
    0x6997
=== CODE BLOCK END ===

=== CODE BLOCK ADDRESS 0x6997 ===
  0x6997	int3   	
  0x6998	int3   	
  0x6999	int3   	
  0x699a	int3   	
  0x699b	int3   	
  === BLOCK LINK ===
    0x699c
=== CODE BLOCK END ===

=== CODE BLOCK ADDRESS 0x699c ===
  0x699c	int3   	
  0x699d	int3   	
  0x699e	int3   	
  0x699f	int3   	
  0x69a0	dec    	eax
  === BLOCK LINK ===
    0x69a1
=== CODE BLOCK END ===

=== CODE BLOCK ADDRESS 0x69a1 ===
  0x69a1	mov    	dword ptr [esp + 0x20], ebx
  0x69a5	push   	ebp
  0x69a6	push   	esi
  0x69a7	push   	edi
  0x69a8	inc    	ecx
  === BLOCK LINK ===
    0x69a9
=== CODE BLOCK END ===

=== CODE BLOCK ADDRESS 0x69a9 ===
  0x69a9	push   	esp
  0x69aa	inc    	ecx
  0x69ab	push   	ebp
  0x69ac	inc    	ecx
  0x69ad	push   	esi
  === BLOCK LINK ===
    0x69ae
=== CODE BLOCK END ===

=== CODE BLOCK ADDRESS 0x69ae ===
  0x69ae	inc    	ecx
  0x69af	push   	edi
  0x69b0	dec    	eax
  0x69b1	mov    	ebp, esp
  0x69b3	dec    	eax
  === BLOCK LINK ===
    0x69b4
=== CODE BLOCK END ===

=== CODE BLOCK ADDRESS 0x69b4 ===
  0x69b4	sub    	esp, 0x40
  0x69b7	inc    	ebp
  0x69b8	xor    	esp, esp
  0x69ba	inc    	esp
  0x69bb	mov    	dword ptr [ebp + 0x40], esp
  === BLOCK LINK ===
    0x69be
=== CODE BLOCK END ===

=== CODE BLOCK ADDRESS 0x69be ===
  0x69be	inc    	esp
  0x69bf	mov    	dword ptr [ebp + 0x48], esp
  0x69c2	dec    	esp
  0x69c3	mov    	dword ptr [ebp + 0x50], esp
  0x69c6	call   	0x59d8
  === BLOCK LINK ===
    0x69cb
=== CODE BLOCK END ===

=== CODE BLOCK ADDRESS 0x69cb ===
  0x69cb	dec    	esp
  0x69cc	lea    	eax, [ebp + 0x48]
  0x69cf	dec    	eax
  0x69d0	lea    	edx, [ebp + 0x50]
  0x69d3	dec    	eax
  === BLOCK LINK ===
    0x69d4
=== CODE BLOCK END ===

=== CODE BLOCK ADDRESS 0x69d4 ===
  0x69d4	lea    	ecx, [ebp + 0x40]
  0x69d7	call   	0x5600
  === BLOCK LINK ===
    0x69dc
=== CODE BLOCK END ===

=== CODE BLOCK ADDRESS 0x69dc ===
  0x69dc	test   	eax, eax
  0x69de	je     	0x69f4
  === BLOCK LINK ===
    0x69e0
=== CODE BLOCK END ===

=== CODE BLOCK ADDRESS 0x69e0 ===
  0x69e0	xor    	edx, edx
  0x69e2	mov    	ecx, eax
  0x69e4	call   	0x7ea4
  === BLOCK LINK ===
    0x69e9
=== CODE BLOCK END ===

=== CODE BLOCK ADDRESS 0x69e9 ===
  0x69e9	inc    	ecx
  0x69ea	lea    	ecx, [esp + 2]
  0x69ee	call   	0x8378
  === BLOCK LINK ===
    0x69f3
=== CODE BLOCK END ===

=== CODE BLOCK ADDRESS 0x69f3 ===
  0x69f3	int3   	
  0x69f4	dec    	esp
  0x69f5	lea    	eax, [ebp + 0x48]
  0x69f8	dec    	eax
  0x69f9	lea    	edx, [ebp + 0x50]
  === BLOCK LINK ===
    0x69fc
=== CODE BLOCK END ===

=== CODE BLOCK ADDRESS 0x69fc ===
  0x69fc	dec    	eax
  0x69fd	lea    	ecx, [ebp + 0x40]
  0x6a00	call   	0x2450
  === BLOCK LINK ===
    0x6a05
=== CODE BLOCK END ===

=== CODE BLOCK ADDRESS 0x6a05 ===
  0x6a05	test   	eax, eax
  0x6a07	je     	0x6a1d
  === BLOCK LINK ===
    0x6a09
=== CODE BLOCK END ===

=== CODE BLOCK ADDRESS 0x6a09 ===
  0x6a09	xor    	edx, edx
  0x6a0b	mov    	ecx, eax
  0x6a0d	call   	0x7ea4
  === BLOCK LINK ===
    0x6a12
=== CODE BLOCK END ===

=== CODE BLOCK ADDRESS 0x6a12 ===
  0x6a12	mov    	ecx, 2
  0x6a17	call   	0x8378
  === BLOCK LINK ===
    0x6a1c
=== CODE BLOCK END ===

=== CODE BLOCK ADDRESS 0x6a1c ===
  0x6a1c	int3   	
  0x6a1d	mov    	edi, dword ptr [ebp + 0x40]
  0x6a20	dec    	eax
  0x6a21	mov    	edx, dword ptr [ebp + 0x50]
  0x6a24	mov    	ecx, edi
  === BLOCK LINK ===
    0x6a26
=== CODE BLOCK END ===

=== CODE BLOCK ADDRESS 0x6a26 ===
  0x6a26	call   	0x51b8
  === BLOCK LINK ===
    0x6a2b
=== CODE BLOCK END ===

=== CODE BLOCK ADDRESS 0x6a2b ===
  0x6a2b	test   	eax, eax
  0x6a2d	je     	0x6a43
  === BLOCK LINK ===
    0x6a2f
=== CODE BLOCK END ===

=== CODE BLOCK ADDRESS 0x6a2f ===
  0x6a2f	xor    	edx, edx
  0x6a31	mov    	ecx, eax
  0x6a33	call   	0x7ea4
  === BLOCK LINK ===
    0x6a38
=== CODE BLOCK END ===

=== CODE BLOCK ADDRESS 0x6a38 ===
  0x6a38	mov    	ecx, 2
  0x6a3d	call   	0x8378
  === BLOCK LINK ===
    0x6a42
=== CODE BLOCK END ===

=== CODE BLOCK ADDRESS 0x6a42 ===
  0x6a42	int3   	
  0x6a43	test   	edi, edi
  0x6a45	jne    	0x6a4d
  === BLOCK LINK ===
    0x6a47
=== CODE BLOCK END ===

=== CODE BLOCK ADDRESS 0x6a47 ===
  0x6a47	call   	0x7e30
  === BLOCK LINK ===
    0x6a4c
=== CODE BLOCK END ===

=== CODE BLOCK ADDRESS 0x6a4c ===
  0x6a4c	int3   	
  0x6a4d	dec    	eax
  0x6a4e	mov    	ecx, dword ptr [ebp + 0x50]
  0x6a51	inc    	ecx
  0x6a52	mov    	ebx, esp
  === BLOCK LINK ===
    0x6a54
=== CODE BLOCK END ===

=== CODE BLOCK ADDRESS 0x6a54 ===
  0x6a54	inc    	ecx
  0x6a55	mov    	ebp, 1
  0x6a5a	test   	edi, edi
  0x6a5c	je     	0x6a84
  === BLOCK LINK ===
    0x6a5e
=== CODE BLOCK END ===

=== CODE BLOCK ADDRESS 0x6a5e ===
  0x6a5e	dec    	eax
  0x6a5f	lea    	eax, [ecx + 0x1c]
  0x6a62	inc    	esp
  0x6a63	cmp    	dword ptr [eax + 0xc], esp
  0x6a66	je     	0x6a84
  === BLOCK LINK ===
    0x6a68
=== CODE BLOCK END ===

=== CODE BLOCK ADDRESS 0x6a68 ===
  0x6a68	inc    	esp
  0x6a69	cmp    	dword ptr [eax], esp
  0x6a6b	jne    	0x6a84
  === BLOCK LINK ===
    0x6a6d
=== CODE BLOCK END ===

=== CODE BLOCK ADDRESS 0x6a6d ===
  0x6a6d	inc    	esp
  0x6a6e	cmp    	dword ptr [eax + 8], esp
  0x6a71	jne    	0x6a84
  === BLOCK LINK ===
    0x6a73
=== CODE BLOCK END ===

=== CODE BLOCK ADDRESS 0x6a73 ===
  0x6a73	inc    	esp
  0x6a74	cmp    	dword ptr [eax + 4], esp
  0x6a77	jne    	0x6a84
  === BLOCK LINK ===
    0x6a79
=== CODE BLOCK END ===

=== CODE BLOCK ADDRESS 0x6a79 ===
  0x6a79	inc    	ecx
  0x6a7a	add    	ebx, ebp
  0x6a7c	dec    	eax
  0x6a7d	add    	eax, 0x30
  0x6a80	cmp    	ebx, edi
  === BLOCK LINK ===
    0x6a82
=== CODE BLOCK END ===

=== CODE BLOCK ADDRESS 0x6a82 ===
  0x6a82	jb     	0x6a62
  === BLOCK LINK ===
    0x6a84
=== CODE BLOCK END ===

=== CODE BLOCK ADDRESS 0x6a84 ===
  0x6a84	dec    	esp
  0x6a85	lea    	ecx, [0xffffe355]
  0x6a8b	inc    	ecx
  0x6a8c	mov    	eax, 0x30
  0x6a91	dec    	eax
  === BLOCK LINK ===
    0x6a92
=== CODE BLOCK END ===

=== CODE BLOCK ADDRESS 0x6a92 ===
  0x6a92	mov    	edx, edi
  0x6a94	dec    	esp
  0x6a95	mov    	esi, edi
  0x6a97	dec    	eax
  0x6a98	call   	dword ptr [0x49e2]
  === BLOCK LINK ===
    0x6a9e
=== CODE BLOCK END ===

=== CODE BLOCK ADDRESS 0x6a9e ===
  0x6a9e	nop    	dword ptr [eax + eax]
  0x6aa3	dec    	eax
  0x6aa4	lea    	ecx, [0x4c0e]
  0x6aaa	dec    	esp
  0x6aab	lea    	edi, [0x10e4f]
  === BLOCK LINK ===
    0x6ab1
=== CODE BLOCK END ===

=== CODE BLOCK ADDRESS 0x6ab1 ===
  0x6ab1	cmp    	ebx, edi
  0x6ab3	je     	0x6bb0
  === BLOCK LINK ===
    0x6ab9
=== CODE BLOCK END ===

=== CODE BLOCK ADDRESS 0x6ab9 ===
  0x6ab9	dec    	eax
  0x6aba	mov    	ebx, dword ptr [0xc8b0]
  0x6ac0	dec    	eax
  0x6ac1	lea    	eax, [ebp + 0x40]
  0x6ac4	dec    	eax
  === BLOCK LINK ===
    0x6ac5
=== CODE BLOCK END ===

=== CODE BLOCK ADDRESS 0x6ac5 ===
  0x6ac5	mov    	dword ptr [esp + 0x30], eax
  0x6ac9	inc    	ecx
  0x6aca	mov    	ecx, 0x800
  0x6acf	dec    	eax
  0x6ad0	mov    	dword ptr [esp + 0x28], ecx
  === BLOCK LINK ===
    0x6ad4
=== CODE BLOCK END ===

=== CODE BLOCK ADDRESS 0x6ad4 ===
  0x6ad4	dec    	ebp
  0x6ad5	mov    	eax, edi
  0x6ad7	dec    	eax
  0x6ad8	lea    	ecx, [0xf942]
  0x6ade	mov    	dword ptr [esp + 0x20], 0xe56
  === BLOCK LINK ===
    0x6ae6
=== CODE BLOCK END ===

=== CODE BLOCK ADDRESS 0x6ae6 ===
  0x6ae6	xor    	edx, edx
  0x6ae8	call   	0xa030
  === BLOCK LINK ===
    0x6aed
=== CODE BLOCK END ===

=== CODE BLOCK ADDRESS 0x6aed ===
  0x6aed	test   	eax, eax
  0x6aef	inc    	ebp
  0x6af0	mov    	eax, ebp
  0x6af2	dec    	ecx
  0x6af3	mov    	edx, edi
  === BLOCK LINK ===
    0x6af5
=== CODE BLOCK END ===

=== CODE BLOCK ADDRESS 0x6af5 ===
  0x6af5	dec    	eax
  0x6af6	cmovne  	ebx, dword ptr [0xc86b]
  0x6afd	dec    	eax
  0x6afe	mov    	ecx, ebx
  0x6b00	call   	0xa244
  === BLOCK LINK ===
    0x6b05
=== CODE BLOCK END ===

=== CODE BLOCK ADDRESS 0x6b05 ===
  0x6b05	dec    	eax
  0x6b06	mov    	ebx, dword ptr [ebp + 0x50]
  0x6b09	test   	edi, edi
  0x6b0b	je     	0x6b46
  === BLOCK LINK ===
    0x6b0d
=== CODE BLOCK END ===

=== CODE BLOCK ADDRESS 0x6b0d ===
  0x6b0d	dec    	eax
  0x6b0e	mov    	esi, edi
  0x6b10	dec    	eax
  0x6b11	mov    	edx, dword ptr [ebx]
  0x6b13	dec    	esp
  === BLOCK LINK ===
    0x6b14
=== CODE BLOCK END ===

=== CODE BLOCK ADDRESS 0x6b14 ===
  0x6b14	lea    	eax, [0x8846]
  0x6b1a	inc    	ecx
  0x6b1b	mov    	ecx, 0x1000
  0x6b20	mov    	ecx, 0xf
  0x6b25	call   	0x8438
  === BLOCK LINK ===
    0x6b2a
=== CODE BLOCK END ===

=== CODE BLOCK ADDRESS 0x6b2a ===
  0x6b2a	dec    	esp
  0x6b2b	mov    	eax, dword ptr [ebx + 8]
  0x6b2e	dec    	eax
  0x6b2f	lea    	ecx, [0x52e3]
  0x6b35	dec    	eax
  === BLOCK LINK ===
    0x6b36
=== CODE BLOCK END ===

=== CODE BLOCK ADDRESS 0x6b36 ===
  0x6b36	mov    	edx, eax
  0x6b38	call   	0x86c8
  === BLOCK LINK ===
    0x6b3d
=== CODE BLOCK END ===

=== CODE BLOCK ADDRESS 0x6b3d ===
  0x6b3d	dec    	eax
  0x6b3e	lea    	ebx, [ebx + 0x30]
  0x6b41	dec    	ecx
  0x6b42	sub    	esi, ebp
  0x6b44	jne    	0x6b10
  === BLOCK LINK ===
    0x6b46
=== CODE BLOCK END ===

=== CODE BLOCK ADDRESS 0x6b46 ===
  0x6b46	dec    	eax
  0x6b47	mov    	ebx, dword ptr [0xc823]
  0x6b4d	dec    	eax
  0x6b4e	lea    	eax, [ebp + 0x40]
  0x6b51	dec    	eax
  === BLOCK LINK ===
    0x6b52
=== CODE BLOCK END ===

=== CODE BLOCK ADDRESS 0x6b52 ===
  0x6b52	mov    	dword ptr [esp + 0x30], eax
  0x6b56	dec    	eax
  0x6b57	lea    	ecx, [0xf8c3]
  0x6b5d	dec    	eax
  0x6b5e	lea    	eax, [0x4b54]
  === BLOCK LINK ===
    0x6b64
=== CODE BLOCK END ===

=== CODE BLOCK ADDRESS 0x6b64 ===
  0x6b64	inc    	ecx
  0x6b65	mov    	ecx, 0x800
  0x6b6a	dec    	eax
  0x6b6b	mov    	dword ptr [esp + 0x28], eax
  0x6b6f	dec    	ebp
  === BLOCK LINK ===
    0x6b70
=== CODE BLOCK END ===

=== CODE BLOCK ADDRESS 0x6b70 ===
  0x6b70	mov    	eax, edi
  0x6b72	xor    	edx, edx
  0x6b74	mov    	dword ptr [esp + 0x20], 0xe57
  0x6b7c	call   	0xa030
  === BLOCK LINK ===
    0x6b81
=== CODE BLOCK END ===

=== CODE BLOCK ADDRESS 0x6b81 ===
  0x6b81	test   	eax, eax
  0x6b83	inc    	ebp
  0x6b84	mov    	eax, ebp
  0x6b86	dec    	ecx
  0x6b87	mov    	edx, edi
  === BLOCK LINK ===
    0x6b89
=== CODE BLOCK END ===

=== CODE BLOCK ADDRESS 0x6b89 ===
  0x6b89	dec    	eax
  0x6b8a	cmovne  	ebx, dword ptr [0xc7d7]
  0x6b91	dec    	eax
  0x6b92	mov    	ecx, ebx
  0x6b94	call   	0xa244
  === BLOCK LINK ===
    0x6b99
=== CODE BLOCK END ===

=== CODE BLOCK ADDRESS 0x6b99 ===
  0x6b99	mov    	ecx, 0x14a6
  0x6b9e	call   	0x8734
  === BLOCK LINK ===
    0x6ba3
=== CODE BLOCK END ===

=== CODE BLOCK ADDRESS 0x6ba3 ===
  0x6ba3	test   	eax, eax
  0x6ba5	jne    	0x6bb0
  === BLOCK LINK ===
    0x6ba7
=== CODE BLOCK END ===

=== CODE BLOCK ADDRESS 0x6ba7 ===
  0x6ba7	lea    	ecx, [eax + 2]
  0x6baa	call   	0x8378
  === BLOCK LINK ===
    0x6baf
=== CODE BLOCK END ===

=== CODE BLOCK ADDRESS 0x6baf ===
  0x6baf	int3   	
  0x6bb0	inc    	ecx
  0x6bb1	mov    	esi, esp
  0x6bb3	inc    	ebp
  0x6bb4	mov    	edi, esp
  === BLOCK LINK ===
    0x6bb6
=== CODE BLOCK END ===

=== CODE BLOCK ADDRESS 0x6bb6 ===
  0x6bb6	test   	edi, edi
  0x6bb8	je     	0x6d23
  === BLOCK LINK ===
    0x6bbe
=== CODE BLOCK END ===

=== CODE BLOCK ADDRESS 0x6bbe ===
  0x6bbe	dec    	eax
  0x6bbf	mov    	edi, dword ptr [ebp + 0x50]
  0x6bc2	dec    	eax
  0x6bc3	add    	edi, 0x24
  0x6bc6	dec    	eax
  === BLOCK LINK ===
    0x6bc7
=== CODE BLOCK END ===

=== CODE BLOCK ADDRESS 0x6bc7 ===
  0x6bc7	mov    	ecx, dword ptr [edi - 0x24]
  0x6bca	inc    	sp
  0x6bcc	cmp    	dword ptr [ecx], esp
  0x6bce	je     	0x6be6
  === BLOCK LINK ===
    0x6bd0
=== CODE BLOCK END ===

=== CODE BLOCK ADDRESS 0x6bd0 ===
  0x6bd0	inc    	ebp
  0x6bd1	xor    	eax, eax
  0x6bd3	inc    	ecx
  0x6bd4	mov    	edx, ebp
  0x6bd6	dec    	eax
  === BLOCK LINK ===
    0x6bd7
=== CODE BLOCK END ===

=== CODE BLOCK ADDRESS 0x6bd7 ===
  0x6bd7	call   	dword ptr [0x45bb]
  === BLOCK LINK ===
    0x6bdd
=== CODE BLOCK END ===

=== CODE BLOCK ADDRESS 0x6bdd ===
  0x6bdd	nop    	dword ptr [eax + eax]
  0x6be2	mov    	esi, eax
  0x6be4	jmp    	0x6c1c
  === BLOCK LINK ===
    0x6be6
=== CODE BLOCK END ===

=== CODE BLOCK ADDRESS 0x6be6 ===
  0x6be6	mov    	eax, dword ptr [edi]
  0x6be8	test   	eax, eax
  0x6bea	jne    	0x6bf2
  === BLOCK LINK ===
    0x6bec
=== CODE BLOCK END ===

=== CODE BLOCK ADDRESS 0x6bec ===
  0x6bec	inc    	esp
  0x6bed	mov    	dword ptr [edi], ebp
  0x6bef	inc    	ecx
  0x6bf0	mov    	eax, ebp
  0x6bf2	inc    	ecx
  === BLOCK LINK ===
    0x6bf3
=== CODE BLOCK END ===

=== CODE BLOCK ADDRESS 0x6bf3 ===
  0x6bf3	mov    	ebx, esp
  0x6bf5	test   	eax, eax
  0x6bf7	je     	0x6c1c
  === BLOCK LINK ===
    0x6bf9
=== CODE BLOCK END ===

=== CODE BLOCK ADDRESS 0x6bf9 ===
  0x6bf9	dec    	eax
  0x6bfa	mov    	ecx, dword ptr [edi - 0x1c]
  0x6bfd	inc    	ebp
  0x6bfe	xor    	eax, eax
  0x6c00	inc    	ecx
  === BLOCK LINK ===
    0x6c01
=== CODE BLOCK END ===

=== CODE BLOCK ADDRESS 0x6c01 ===
  0x6c01	mov    	edx, ebp
  0x6c03	dec    	eax
  0x6c04	call   	dword ptr [0x458e]
  === BLOCK LINK ===
    0x6c0a
=== CODE BLOCK END ===

=== CODE BLOCK ADDRESS 0x6c0a ===
  0x6c0a	nop    	dword ptr [eax + eax]
  0x6c0f	mov    	esi, eax
  0x6c11	test   	eax, eax
  0x6c13	jne    	0x6c24
  === BLOCK LINK ===
    0x6c15
=== CODE BLOCK END ===

=== CODE BLOCK ADDRESS 0x6c15 ===
  0x6c15	inc    	ecx
  0x6c16	add    	ebx, ebp
  0x6c18	cmp    	ebx, dword ptr [edi]
  0x6c1a	jb     	0x6bf9
  === BLOCK LINK ===
    0x6c1c
=== CODE BLOCK END ===

=== CODE BLOCK ADDRESS 0x6c1c ===
  0x6c1c	test   	esi, esi
  0x6c1e	je     	0x6d16
  === BLOCK LINK ===
    0x6c24
=== CODE BLOCK END ===

=== CODE BLOCK ADDRESS 0x6c24 ===
  0x6c24	cmp    	esi, 0x43
  0x6c27	je     	0x6d16
  === BLOCK LINK ===
    0x6c2d
=== CODE BLOCK END ===

=== CODE BLOCK ADDRESS 0x6c2d ===
  0x6c2d	cmp    	esi, 0x8ca
  0x6c33	je     	0x6d16
  === BLOCK LINK ===
    0x6c39
=== CODE BLOCK END ===

=== CODE BLOCK ADDRESS 0x6c39 ===
  0x6c39	cmp    	esi, 0x961
  0x6c3f	jne    	0x6d13
  === BLOCK LINK ===
    0x6c45
=== CODE BLOCK END ===

=== CODE BLOCK ADDRESS 0x6c45 ===
  0x6c45	dec    	eax
  0x6c46	mov    	eax, dword ptr [edi - 0x24]
  0x6c49	inc    	sp
  0x6c4b	cmp    	dword ptr [eax], esp
  0x6c4d	jne    	0x6c53
  === BLOCK LINK ===
    0x6c4f
=== CODE BLOCK END ===

=== CODE BLOCK ADDRESS 0x6c4f ===
  0x6c4f	dec    	eax
  0x6c50	mov    	eax, dword ptr [edi - 0x1c]
  0x6c53	dec    	eax
  0x6c54	mov    	ebx, dword ptr [0xc716]
  0x6c5a	dec    	esp
  === BLOCK LINK ===
    0x6c5b
=== CODE BLOCK END ===

=== CODE BLOCK ADDRESS 0x6c5b ===
  0x6c5b	lea    	eax, [0x10c9f]
  0x6c61	dec    	eax
  0x6c62	mov    	dword ptr [0xf7b8], eax
  0x6c68	dec    	eax
  0x6c69	lea    	ecx, [0xf7b1]
  === BLOCK LINK ===
    0x6c6f
=== CODE BLOCK END ===

=== CODE BLOCK ADDRESS 0x6c6f ===
  0x6c6f	dec    	eax
  0x6c70	lea    	eax, [ebp + 0x40]
  0x6c73	inc    	ecx
  0x6c74	mov    	ecx, 0x800
  0x6c79	dec    	eax
  === BLOCK LINK ===
    0x6c7a
=== CODE BLOCK END ===

=== CODE BLOCK ADDRESS 0x6c7a ===
  0x6c7a	mov    	dword ptr [esp + 0x30], eax
  0x6c7e	inc    	ecx
  0x6c7f	mov    	edx, ebp
  0x6c81	dec    	eax
  0x6c82	lea    	eax, [0x4a30]
  === BLOCK LINK ===
    0x6c88
=== CODE BLOCK END ===

=== CODE BLOCK ADDRESS 0x6c88 ===
  0x6c88	dec    	eax
  0x6c89	mov    	dword ptr [esp + 0x28], eax
  0x6c8d	mov    	dword ptr [esp + 0x20], 0xe6b
  0x6c95	call   	0xa030
  === BLOCK LINK ===
    0x6c9a
=== CODE BLOCK END ===

=== CODE BLOCK ADDRESS 0x6c9a ===
  0x6c9a	test   	eax, eax
  0x6c9c	dec    	eax
  0x6c9d	lea    	edx, [0x10c5d]
  0x6ca3	inc    	ebp
  0x6ca4	mov    	eax, ebp
  === BLOCK LINK ===
    0x6ca6
=== CODE BLOCK END ===

=== CODE BLOCK ADDRESS 0x6ca6 ===
  0x6ca6	dec    	eax
  0x6ca7	cmovne  	ebx, dword ptr [0xc6ba]
  0x6cae	dec    	eax
  0x6caf	mov    	ecx, ebx
  0x6cb1	call   	0xa244
  === BLOCK LINK ===
    0x6cb6
=== CODE BLOCK END ===

=== CODE BLOCK ADDRESS 0x6cb6 ===
  0x6cb6	mov    	ecx, 0x14a9
  0x6cbb	call   	0x8734
  === BLOCK LINK ===
    0x6cc0
=== CODE BLOCK END ===

=== CODE BLOCK ADDRESS 0x6cc0 ===
  0x6cc0	test   	eax, eax
  0x6cc2	je     	0x6d16
  === BLOCK LINK ===
    0x6cc4
=== CODE BLOCK END ===

=== CODE BLOCK ADDRESS 0x6cc4 ===
  0x6cc4	dec    	eax
  0x6cc5	mov    	ecx, dword ptr [edi - 0x24]
  0x6cc8	inc    	sp
  0x6cca	cmp    	dword ptr [ecx], esp
  0x6ccc	je     	0x6ce4
  === BLOCK LINK ===
    0x6cce
=== CODE BLOCK END ===

=== CODE BLOCK ADDRESS 0x6cce ===
  0x6cce	inc    	ebp
  0x6ccf	mov    	eax, ebp
  0x6cd1	inc    	ecx
  0x6cd2	mov    	edx, ebp
  0x6cd4	dec    	eax
  === BLOCK LINK ===
    0x6cd5
=== CODE BLOCK END ===

=== CODE BLOCK ADDRESS 0x6cd5 ===
  0x6cd5	call   	dword ptr [0x44bd]
  === BLOCK LINK ===
    0x6cdb
=== CODE BLOCK END ===

=== CODE BLOCK ADDRESS 0x6cdb ===
  0x6cdb	nop    	dword ptr [eax + eax]
  0x6ce0	mov    	esi, eax
  0x6ce2	jmp    	0x6d0f
  === BLOCK LINK ===
    0x6ce4
=== CODE BLOCK END ===

=== CODE BLOCK ADDRESS 0x6ce4 ===
  0x6ce4	inc    	ecx
  0x6ce5	mov    	ebx, esp
  0x6ce7	inc    	esp
  0x6ce8	cmp    	dword ptr [edi], esp
  0x6cea	jbe    	0x6d13
  === BLOCK LINK ===
    0x6cec
=== CODE BLOCK END ===

=== CODE BLOCK ADDRESS 0x6cec ===
  0x6cec	dec    	eax
  0x6ced	mov    	ecx, dword ptr [edi - 0x1c]
  0x6cf0	inc    	ebp
  0x6cf1	mov    	eax, ebp
  0x6cf3	inc    	ecx
  === BLOCK LINK ===
    0x6cf4
=== CODE BLOCK END ===

=== CODE BLOCK ADDRESS 0x6cf4 ===
  0x6cf4	mov    	edx, ebp
  0x6cf6	dec    	eax
  0x6cf7	call   	dword ptr [0x449b]
  === BLOCK LINK ===
    0x6cfd
=== CODE BLOCK END ===

=== CODE BLOCK ADDRESS 0x6cfd ===
  0x6cfd	nop    	dword ptr [eax + eax]
  0x6d02	mov    	esi, eax
  0x6d04	test   	eax, eax
  0x6d06	jne    	0x6d13
  === BLOCK LINK ===
    0x6d08
=== CODE BLOCK END ===

=== CODE BLOCK ADDRESS 0x6d08 ===
  0x6d08	inc    	ecx
  0x6d09	add    	ebx, ebp
  0x6d0b	cmp    	ebx, dword ptr [edi]
  0x6d0d	jb     	0x6cec
  === BLOCK LINK ===
    0x6d0f
=== CODE BLOCK END ===

=== CODE BLOCK ADDRESS 0x6d0f ===
  0x6d0f	test   	esi, esi
  0x6d11	je     	0x6d16
  === BLOCK LINK ===
    0x6d13
=== CODE BLOCK END ===

=== CODE BLOCK ADDRESS 0x6d13 ===
  0x6d13	inc    	esp
  0x6d14	mov    	edi, esi
  0x6d16	dec    	eax
  0x6d17	add    	edi, 0x30
  0x6d1a	dec    	ebp
  === BLOCK LINK ===
    0x6d1b
=== CODE BLOCK END ===

=== CODE BLOCK ADDRESS 0x6d1b ===
  0x6d1b	sub    	esi, ebp
  0x6d1d	jne    	0x6bc6
  === BLOCK LINK ===
    0x6d23
=== CODE BLOCK END ===

=== CODE BLOCK ADDRESS 0x6d23 ===
  0x6d23	dec    	eax
  0x6d24	mov    	ecx, dword ptr [ebp + 0x50]
  0x6d27	dec    	eax
  0x6d28	call   	dword ptr [0x488a]
  === BLOCK LINK ===
    0x6d2e
=== CODE BLOCK END ===

=== CODE BLOCK ADDRESS 0x6d2e ===
  0x6d2e	nop    	dword ptr [eax + eax]
  0x6d33	inc    	ebp
  0x6d34	test   	edi, edi
  0x6d36	je     	0x6d3f
  === BLOCK LINK ===
    0x6d38
=== CODE BLOCK END ===

=== CODE BLOCK ADDRESS 0x6d38 ===
  0x6d38	mov    	ecx, esi
  0x6d3a	call   	0x5a04
  === BLOCK LINK ===
    0x6d3f
=== CODE BLOCK END ===

=== CODE BLOCK ADDRESS 0x6d3f ===
  0x6d3f	dec    	eax
  0x6d40	mov    	ebx, dword ptr [esp + 0x98]
  0x6d47	dec    	eax
  0x6d48	add    	esp, 0x40
  0x6d4b	inc    	ecx
  === BLOCK LINK ===
    0x6d4c
=== CODE BLOCK END ===

=== CODE BLOCK ADDRESS 0x6d4c ===
  0x6d4c	pop    	edi
  0x6d4d	inc    	ecx
  0x6d4e	pop    	esi
  0x6d4f	inc    	ecx
  0x6d50	pop    	ebp
  === BLOCK LINK ===
    0x6d51
=== CODE BLOCK END ===

=== CODE BLOCK ADDRESS 0x6d51 ===
  0x6d51	inc    	ecx
  0x6d52	pop    	esp
  0x6d53	pop    	edi
  0x6d54	pop    	esi
  0x6d55	pop    	ebp
  === BLOCK LINK ===
    0x6d56
=== CODE BLOCK END ===

=== CODE BLOCK ADDRESS 0x6d56 ===
  0x6d56	ret    	
  0x6d57	int3   	
  0x6d58	int3   	
  0x6d59	int3   	
  0x6d5a	int3   	
  === BLOCK LINK ===
    0x6d5b
=== CODE BLOCK END ===

=== CODE BLOCK ADDRESS 0x6d5b ===
  0x6d5b	int3   	
  0x6d5c	int3   	
  0x6d5d	int3   	
  0x6d5e	int3   	
  0x6d5f	int3   	
  === BLOCK LINK ===
    0x6d60
=== CODE BLOCK END ===

=== CODE BLOCK ADDRESS 0x6d60 ===
  0x6d60	inc    	eax
  0x6d61	push   	ebx
  0x6d62	dec    	eax
  0x6d63	sub    	esp, 0x40
  0x6d66	dec    	eax
  === BLOCK LINK ===
    0x6d67
=== CODE BLOCK END ===

=== CODE BLOCK ADDRESS 0x6d67 ===
  0x6d67	and    	dword ptr [esp + 0x60], 0
  0x6d6c	dec    	eax
  0x6d6d	mov    	ebx, ecx
  0x6d6f	call   	0x8a78
  === BLOCK LINK ===
    0x6d74
=== CODE BLOCK END ===

=== CODE BLOCK ADDRESS 0x6d74 ===
  0x6d74	test   	eax, eax
  0x6d76	je     	0x6d80
  === BLOCK LINK ===
    0x6d78
=== CODE BLOCK END ===

=== CODE BLOCK ADDRESS 0x6d78 ===
  0x6d78	xor    	edx, edx
  0x6d7a	call   	0x9a0c
  === BLOCK LINK ===
    0x6d7f
=== CODE BLOCK END ===

=== CODE BLOCK ADDRESS 0x6d7f ===
  0x6d7f	int3   	
  0x6d80	call   	0x59d8
  === BLOCK LINK ===
    0x6d85
=== CODE BLOCK END ===

=== CODE BLOCK ADDRESS 0x6d85 ===
  0x6d85	dec    	esp
  0x6d86	lea    	ecx, [esp + 0x60]
  0x6d8a	inc    	ecx
  0x6d8b	mov    	eax, 1
  0x6d90	dec    	eax
  === BLOCK LINK ===
    0x6d91
=== CODE BLOCK END ===

=== CODE BLOCK ADDRESS 0x6d91 ===
  0x6d91	mov    	edx, ebx
  0x6d93	xor    	ecx, ecx
  0x6d95	dec    	eax
  0x6d96	call   	dword ptr [0x486c]
  === BLOCK LINK ===
    0x6d9c
=== CODE BLOCK END ===

=== CODE BLOCK ADDRESS 0x6d9c ===
  0x6d9c	nop    	dword ptr [eax + eax]
  0x6da1	dec    	eax
  0x6da2	mov    	ecx, dword ptr [esp + 0x60]
  0x6da6	test   	eax, eax
  0x6da8	je     	0x6dc0
  === BLOCK LINK ===
    0x6daa
=== CODE BLOCK END ===

=== CODE BLOCK ADDRESS 0x6daa ===
  0x6daa	dec    	eax
  0x6dab	call   	dword ptr [0x4807]
  === BLOCK LINK ===
    0x6db1
=== CODE BLOCK END ===

=== CODE BLOCK ADDRESS 0x6db1 ===
  0x6db1	nop    	dword ptr [eax + eax]
  0x6db6	dec    	eax
  0x6db7	mov    	ecx, ebx
  0x6db9	call   	0x5400
  === BLOCK LINK ===
    0x6dbe
=== CODE BLOCK END ===

=== CODE BLOCK ADDRESS 0x6dbe ===
  0x6dbe	jmp    	0x6dd6
  === BLOCK LINK ===
    0x6dc0
=== CODE BLOCK END ===

=== CODE BLOCK ADDRESS 0x6dc0 ===
  0x6dc0	call   	0x4fa4
  === BLOCK LINK ===
    0x6dc5
=== CODE BLOCK END ===

=== CODE BLOCK ADDRESS 0x6dc5 ===
  0x6dc5	dec    	eax
  0x6dc6	mov    	ecx, dword ptr [esp + 0x60]
  0x6dca	dec    	eax
  0x6dcb	call   	dword ptr [0x47e7]
  === BLOCK LINK ===
    0x6dd1
=== CODE BLOCK END ===

=== CODE BLOCK ADDRESS 0x6dd1 ===
  0x6dd1	nop    	dword ptr [eax + eax]
  0x6dd6	dec    	eax
  0x6dd7	mov    	ebx, dword ptr [0xc593]
  0x6ddd	dec    	eax
  0x6dde	lea    	eax, [esp + 0x58]
  === BLOCK LINK ===
    0x6de2
=== CODE BLOCK END ===

=== CODE BLOCK ADDRESS 0x6de2 ===
  0x6de2	dec    	eax
  0x6de3	mov    	dword ptr [esp + 0x30], eax
  0x6de7	dec    	esp
  0x6de8	lea    	eax, [0x10b12]
  0x6dee	dec    	eax
  === BLOCK LINK ===
    0x6def
=== CODE BLOCK END ===

=== CODE BLOCK ADDRESS 0x6def ===
  0x6def	lea    	eax, [0x48c3]
  0x6df5	inc    	ecx
  0x6df6	mov    	ecx, 0x800
  0x6dfb	dec    	eax
  0x6dfc	mov    	dword ptr [esp + 0x28], eax
  === BLOCK LINK ===
    0x6e00
=== CODE BLOCK END ===

=== CODE BLOCK ADDRESS 0x6e00 ===
  0x6e00	dec    	eax
  0x6e01	lea    	ecx, [0xf619]
  0x6e07	xor    	edx, edx
  0x6e09	mov    	dword ptr [esp + 0x20], 0xdac
  0x6e11	call   	0xa030
  === BLOCK LINK ===
    0x6e16
=== CODE BLOCK END ===

=== CODE BLOCK ADDRESS 0x6e16 ===
  0x6e16	test   	eax, eax
  0x6e18	dec    	eax
  0x6e19	lea    	edx, [0x10ae1]
  0x6e1f	inc    	ecx
  0x6e20	mov    	eax, 1
  === BLOCK LINK ===
    0x6e25
=== CODE BLOCK END ===

=== CODE BLOCK ADDRESS 0x6e25 ===
  0x6e25	dec    	eax
  0x6e26	cmovne  	ebx, dword ptr [0xc53b]
  0x6e2d	dec    	eax
  0x6e2e	mov    	ecx, ebx
  0x6e30	call   	0xa244
  === BLOCK LINK ===
    0x6e35
=== CODE BLOCK END ===

=== CODE BLOCK ADDRESS 0x6e35 ===
  0x6e35	dec    	eax
  0x6e36	add    	esp, 0x40
  0x6e39	pop    	ebx
  0x6e3a	ret    	
  0x6e3b	int3   	
  === BLOCK LINK ===
    0x6e3c
=== CODE BLOCK END ===

=== CODE BLOCK ADDRESS 0x15ad ===
=== CODE BLOCK END ===

=== CODE BLOCK ADDRESS 0x6e3c ===
  0x6e3c	int3   	
  0x6e3d	int3   	
  0x6e3e	int3   	
  0x6e3f	int3   	
  0x6e40	int3   	
  === BLOCK LINK ===
    0x6e41
=== CODE BLOCK END ===

=== CODE BLOCK ADDRESS 0x6e41 ===
  0x6e41	int3   	
  0x6e42	int3   	
  0x6e43	int3   	
  0x6e44	inc    	eax
  0x6e45	push   	ebx
  === BLOCK LINK ===
    0x6e46
=== CODE BLOCK END ===

=== CODE BLOCK ADDRESS 0x6e46 ===
  0x6e46	dec    	eax
  0x6e47	sub    	esp, 0x40
  0x6e4a	dec    	eax
  0x6e4b	mov    	ecx, dword ptr [0x11b5f]
  0x6e51	call   	0x954c
  === BLOCK LINK ===
    0x6e56
=== CODE BLOCK END ===

=== CODE BLOCK ADDRESS 0x6e56 ===
  0x6e56	dec    	esp
  0x6e57	mov    	ecx, eax
  0x6e59	dec    	eax
  0x6e5a	test   	eax, eax
  0x6e5c	jne    	0x6e75
  === BLOCK LINK ===
    0x6e5e
=== CODE BLOCK END ===

=== CODE BLOCK ADDRESS 0x6e5e ===
  0x6e5e	xor    	edx, edx
  0x6e60	mov    	ecx, 0xdb1
  0x6e65	call   	0x7ea4
  === BLOCK LINK ===
    0x6e6a
=== CODE BLOCK END ===

=== CODE BLOCK ADDRESS 0x6e6a ===
  0x6e6a	mov    	ecx, 2
  0x6e6f	call   	0x8378
  === BLOCK LINK ===
    0x6e74
=== CODE BLOCK END ===

=== CODE BLOCK ADDRESS 0x6e74 ===
  0x6e74	int3   	
  0x6e75	dec    	eax
  0x6e76	mov    	eax, dword ptr [0x11b34]
  0x6e7c	dec    	eax
  0x6e7d	lea    	edx, [0x74ad]
  === BLOCK LINK ===
    0x6e83
=== CODE BLOCK END ===

=== CODE BLOCK ADDRESS 0x6e83 ===
  0x6e83	dec    	eax
  0x6e84	sub    	edx, eax
  0x6e86	movzx  	ecx, word ptr [eax]
  0x6e89	inc    	esp
  0x6e8a	movzx  	eax, word ptr [eax + edx]
  === BLOCK LINK ===
    0x6e8e
=== CODE BLOCK END ===

=== CODE BLOCK ADDRESS 0x6e8e ===
  0x6e8e	inc    	ecx
  0x6e8f	sub    	ecx, eax
  0x6e91	jne    	0x6e9c
  === BLOCK LINK ===
    0x6e93
=== CODE BLOCK END ===

=== CODE BLOCK ADDRESS 0x6e93 ===
  0x6e93	dec    	eax
  0x6e94	add    	eax, 2
  0x6e97	inc    	ebp
  0x6e98	test   	eax, eax
  0x6e9a	jne    	0x6e86
  === BLOCK LINK ===
    0x6e9c
=== CODE BLOCK END ===

=== CODE BLOCK ADDRESS 0x6e9c ===
  0x6e9c	test   	ecx, ecx
  0x6e9e	jne    	0x6f66
  === BLOCK LINK ===
    0x6ea4
=== CODE BLOCK END ===

=== CODE BLOCK ADDRESS 0x6ea4 ===
  0x6ea4	dec    	eax
  0x6ea5	lea    	edx, [esp + 0x50]
  0x6ea9	dec    	ecx
  0x6eaa	mov    	ecx, ecx
  0x6eac	call   	0x9f54
  === BLOCK LINK ===
    0x6eb1
=== CODE BLOCK END ===

=== CODE BLOCK ADDRESS 0x6eb1 ===
  0x6eb1	test   	eax, eax
  0x6eb3	je     	0x6edd
  === BLOCK LINK ===
    0x6eb5
=== CODE BLOCK END ===

=== CODE BLOCK ADDRESS 0x6eb5 ===
  0x6eb5	dec    	eax
  0x6eb6	mov    	eax, dword ptr [0x11af4]
  0x6ebc	mov    	edx, 1
  0x6ec1	mov    	ecx, 0xf70
  0x6ec6	dec    	eax
  === BLOCK LINK ===
    0x6ec7
=== CODE BLOCK END ===

=== CODE BLOCK ADDRESS 0x6ec7 ===
  0x6ec7	mov    	dword ptr [0xf553], eax
  0x6ecd	call   	0x7ea4
  === BLOCK LINK ===
    0x6ed2
=== CODE BLOCK END ===

=== CODE BLOCK ADDRESS 0x6ed2 ===
  0x6ed2	mov    	ecx, 2
  0x6ed7	call   	0x8378
  === BLOCK LINK ===
    0x6edc
=== CODE BLOCK END ===

=== CODE BLOCK ADDRESS 0x6edc ===
  0x6edc	int3   	
  0x6edd	xor    	ecx, ecx
  0x6edf	cmp    	dword ptr [esp + 0x50], 1
  0x6ee4	sete   	cl
  0x6ee7	call   	0x591c
  === BLOCK LINK ===
    0x6eec
=== CODE BLOCK END ===

=== CODE BLOCK ADDRESS 0x6eec ===
  0x6eec	xor    	edx, edx
  0x6eee	test   	eax, eax
  0x6ef0	je     	0x6f04
  === BLOCK LINK ===
    0x6ef2
=== CODE BLOCK END ===

=== CODE BLOCK ADDRESS 0x6ef2 ===
  0x6ef2	mov    	ecx, eax
  0x6ef4	call   	0x7ea4
  === BLOCK LINK ===
    0x6ef9
=== CODE BLOCK END ===

=== CODE BLOCK ADDRESS 0x6ef9 ===
  0x6ef9	mov    	ecx, 2
  0x6efe	call   	0x8378
  === BLOCK LINK ===
    0x6f03
=== CODE BLOCK END ===

=== CODE BLOCK ADDRESS 0x6f03 ===
  0x6f03	int3   	
  0x6f04	dec    	eax
  0x6f05	mov    	ebx, dword ptr [0xc465]
  0x6f0b	dec    	eax
  0x6f0c	lea    	eax, [esp + 0x50]
  === BLOCK LINK ===
    0x6f10
=== CODE BLOCK END ===

=== CODE BLOCK ADDRESS 0x6f10 ===
  0x6f10	dec    	eax
  0x6f11	mov    	dword ptr [esp + 0x30], eax
  0x6f15	dec    	esp
  0x6f16	lea    	eax, [0x109e4]
  0x6f1c	dec    	eax
  === BLOCK LINK ===
    0x6f1d
=== CODE BLOCK END ===

=== CODE BLOCK ADDRESS 0x6f1d ===
  0x6f1d	lea    	eax, [0x4795]
  0x6f23	inc    	ecx
  0x6f24	mov    	ecx, 0x800
  0x6f29	dec    	eax
  0x6f2a	mov    	dword ptr [esp + 0x28], eax
  === BLOCK LINK ===
    0x6f2e
=== CODE BLOCK END ===

=== CODE BLOCK ADDRESS 0x6f2e ===
  0x6f2e	dec    	eax
  0x6f2f	lea    	ecx, [0xf4eb]
  0x6f35	mov    	dword ptr [esp + 0x20], 0xdac
  0x6f3d	call   	0xa030
  === BLOCK LINK ===
    0x6f42
=== CODE BLOCK END ===

=== CODE BLOCK ADDRESS 0x6f42 ===
  0x6f42	test   	eax, eax
  0x6f44	dec    	eax
  0x6f45	lea    	edx, [0x109b5]
  0x6f4b	inc    	ecx
  0x6f4c	mov    	eax, 1
  === BLOCK LINK ===
    0x6f51
=== CODE BLOCK END ===

=== CODE BLOCK ADDRESS 0x6f51 ===
  0x6f51	dec    	eax
  0x6f52	cmovne  	ebx, dword ptr [0xc40f]
  0x6f59	dec    	eax
  0x6f5a	mov    	ecx, ebx
  0x6f5c	dec    	eax
  === BLOCK LINK ===
    0x6f5d
=== CODE BLOCK END ===

=== CODE BLOCK ADDRESS 0x6f5d ===
  0x6f5d	add    	esp, 0x40
  0x6f60	pop    	ebx
  0x6f61	jmp    	0xa244
  === BLOCK LINK ===
    0x6f66
=== CODE BLOCK END ===

=== CODE BLOCK ADDRESS 0x6f66 ===
  0x6f66	xor    	edx, edx
  0x6f68	mov    	ecx, 0xdad
  0x6f6d	call   	0x7ea4
  === BLOCK LINK ===
    0x6f72
=== CODE BLOCK END ===

=== CODE BLOCK ADDRESS 0x6f72 ===
  0x6f72	mov    	ecx, 2
  0x6f77	call   	0x8378
  === BLOCK LINK ===
    0x6f7c
=== CODE BLOCK END ===

=== CODE BLOCK ADDRESS 0x6f7c ===
  0x6f7c	int3   	
  0x6f7d	int3   	
  0x6f7e	int3   	
  0x6f7f	int3   	
  0x6f80	int3   	
  === BLOCK LINK ===
    0x6f81
=== CODE BLOCK END ===

=== CODE BLOCK ADDRESS 0x6f81 ===
  0x6f81	int3   	
  0x6f82	int3   	
  0x6f83	int3   	
  0x6f84	inc    	eax
  0x6f85	push   	ebx
  === BLOCK LINK ===
    0x6f86
=== CODE BLOCK END ===

=== CODE BLOCK ADDRESS 0x6f86 ===
  0x6f86	dec    	eax
  0x6f87	sub    	esp, 0x40
  0x6f8a	dec    	eax
  0x6f8b	mov    	ebx, ecx
  0x6f8d	call   	0x59d8
  === BLOCK LINK ===
    0x6f92
=== CODE BLOCK END ===

=== CODE BLOCK ADDRESS 0x6f92 ===
  0x6f92	dec    	esp
  0x6f93	lea    	ecx, [esp + 0x60]
  0x6f97	inc    	ecx
  0x6f98	mov    	eax, 1
  0x6f9d	dec    	eax
  === BLOCK LINK ===
    0x6f9e
=== CODE BLOCK END ===

=== CODE BLOCK ADDRESS 0x6f9e ===
  0x6f9e	mov    	edx, ebx
  0x6fa0	xor    	ecx, ecx
  0x6fa2	dec    	eax
  0x6fa3	call   	dword ptr [0x465f]
  === BLOCK LINK ===
    0x6fa9
=== CODE BLOCK END ===

=== CODE BLOCK ADDRESS 0x6fa9 ===
  0x6fa9	nop    	dword ptr [eax + eax]
  0x6fae	dec    	eax
  0x6faf	mov    	ecx, dword ptr [esp + 0x60]
  0x6fb3	test   	eax, eax
  0x6fb5	je     	0x6fdd
  === BLOCK LINK ===
    0x6fb7
=== CODE BLOCK END ===

=== CODE BLOCK ADDRESS 0x6fb7 ===
  0x6fb7	dec    	eax
  0x6fb8	call   	dword ptr [0x45fa]
  === BLOCK LINK ===
    0x6fbe
=== CODE BLOCK END ===

=== CODE BLOCK ADDRESS 0x6fbe ===
  0x6fbe	nop    	dword ptr [eax + eax]
  0x6fc3	inc    	ebp
  0x6fc4	xor    	eax, eax
  0x6fc6	mov    	dword ptr [esp + 0x20], 1
  0x6fce	dec    	eax
  === BLOCK LINK ===
    0x6fcf
=== CODE BLOCK END ===

=== CODE BLOCK ADDRESS 0x6fcf ===
  0x6fcf	mov    	edx, ebx
  0x6fd1	xor    	ecx, ecx
  0x6fd3	call   	0x5c08
  === BLOCK LINK ===
    0x6fd8
=== CODE BLOCK END ===

=== CODE BLOCK ADDRESS 0x6fd8 ===
  0x6fd8	jmp    	0x7072
  === BLOCK LINK ===
    0x6fdd
=== CODE BLOCK END ===

=== CODE BLOCK ADDRESS 0x6fdd ===
  0x6fdd	cmp    	dword ptr [ecx + 0x24], 0
  0x6fe1	jne    	0x6ffd
  === BLOCK LINK ===
    0x6fe3
=== CODE BLOCK END ===

=== CODE BLOCK ADDRESS 0x6fe3 ===
  0x6fe3	cmp    	dword ptr [ecx + 0x20], 0
  0x6fe7	jne    	0x6ffd
  === BLOCK LINK ===
    0x6fe9
=== CODE BLOCK END ===

=== CODE BLOCK ADDRESS 0x6fe9 ===
  0x6fe9	and    	dword ptr [esp + 0x20], 0
  0x6fee	inc    	ebp
  0x6fef	xor    	eax, eax
  0x6ff1	dec    	eax
  0x6ff2	mov    	edx, ebx
  === BLOCK LINK ===
    0x6ff4
=== CODE BLOCK END ===

=== CODE BLOCK ADDRESS 0x6ff4 ===
  0x6ff4	xor    	ecx, ecx
  0x6ff6	call   	0x5c08
  === BLOCK LINK ===
    0x6ffb
=== CODE BLOCK END ===

=== CODE BLOCK ADDRESS 0x6ffb ===
  0x6ffb	jmp    	0x7002
  === BLOCK LINK ===
    0x6ffd
=== CODE BLOCK END ===

=== CODE BLOCK ADDRESS 0x6ffd ===
  0x6ffd	call   	0x4fa4
  === BLOCK LINK ===
    0x7002
=== CODE BLOCK END ===

=== CODE BLOCK ADDRESS 0x7002 ===
  0x7002	dec    	eax
  0x7003	mov    	ecx, dword ptr [esp + 0x60]
  0x7007	dec    	eax
  0x7008	call   	dword ptr [0x45aa]
  === BLOCK LINK ===
    0x700e
=== CODE BLOCK END ===

=== CODE BLOCK ADDRESS 0x700e ===
  0x700e	nop    	dword ptr [eax + eax]
  0x7013	dec    	eax
  0x7014	mov    	ebx, dword ptr [0xc356]
  0x701a	dec    	eax
  0x701b	lea    	eax, [esp + 0x58]
  === BLOCK LINK ===
    0x701f
=== CODE BLOCK END ===

=== CODE BLOCK ADDRESS 0x701f ===
  0x701f	dec    	eax
  0x7020	mov    	dword ptr [esp + 0x30], eax
  0x7024	dec    	esp
  0x7025	lea    	eax, [0x108d5]
  0x702b	dec    	eax
  === BLOCK LINK ===
    0x702c
=== CODE BLOCK END ===

=== CODE BLOCK ADDRESS 0x702c ===
  0x702c	lea    	eax, [0x4686]
  0x7032	inc    	ecx
  0x7033	mov    	ecx, 0x800
  0x7038	dec    	eax
  0x7039	mov    	dword ptr [esp + 0x28], eax
  === BLOCK LINK ===
    0x703d
=== CODE BLOCK END ===

=== CODE BLOCK ADDRESS 0x703d ===
  0x703d	dec    	eax
  0x703e	lea    	ecx, [0xf3dc]
  0x7044	xor    	edx, edx
  0x7046	mov    	dword ptr [esp + 0x20], 0xdac
  0x704e	call   	0xa030
  === BLOCK LINK ===
    0x7053
=== CODE BLOCK END ===

=== CODE BLOCK ADDRESS 0x7053 ===
  0x7053	test   	eax, eax
  0x7055	dec    	eax
  0x7056	lea    	edx, [0x108a4]
  0x705c	inc    	ecx
  0x705d	mov    	eax, 1
  === BLOCK LINK ===
    0x7062
=== CODE BLOCK END ===

=== CODE BLOCK ADDRESS 0x7062 ===
  0x7062	dec    	eax
  0x7063	cmovne  	ebx, dword ptr [0xc2fe]
  0x706a	dec    	eax
  0x706b	mov    	ecx, ebx
  0x706d	call   	0xa244
  === BLOCK LINK ===
    0x7072
=== CODE BLOCK END ===

=== CODE BLOCK ADDRESS 0x7072 ===
  0x7072	dec    	eax
  0x7073	add    	esp, 0x40
  0x7076	pop    	ebx
  0x7077	ret    	
  0x7078	int3   	
  === BLOCK LINK ===
    0x7079
=== CODE BLOCK END ===

=== CODE BLOCK ADDRESS 0x7079 ===
  0x7079	int3   	
  0x707a	int3   	
  0x707b	int3   	
  0x707c	int3   	
  0x707d	int3   	
  === BLOCK LINK ===
    0x707e
=== CODE BLOCK END ===

=== CODE BLOCK ADDRESS 0x707e ===
  0x707e	int3   	
  0x707f	int3   	
  0x7080	dec    	eax
  0x7081	mov    	edx, dword ptr [edx]
  0x7083	dec    	eax
  === BLOCK LINK ===
    0x7084
=== CODE BLOCK END ===

=== CODE BLOCK ADDRESS 0x7084 ===
  0x7084	mov    	ecx, dword ptr [ecx]
  0x7086	dec    	eax
  0x7087	jmp    	dword ptr [0x43ab]
  === BLOCK LINK ===
    0x708d
=== CODE BLOCK END ===

=== CODE BLOCK ADDRESS 0x708d ===
  0x708d	int3   	
  0x708e	int3   	
  0x708f	int3   	
  0x7090	int3   	
  0x7091	int3   	
  === BLOCK LINK ===
    0x7092
=== CODE BLOCK END ===

=== CODE BLOCK ADDRESS 0x7092 ===
  0x7092	int3   	
  0x7093	int3   	
  0x7094	int3   	
  0x7095	int3   	
  0x7096	int3   	
  === BLOCK LINK ===
    0x7097
=== CODE BLOCK END ===

=== CODE BLOCK ADDRESS 0x7097 ===
  0x7097	int3   	
  0x7098	dec    	esp
  0x7099	mov    	ebx, esp
  0x709b	dec    	ecx
  0x709c	mov    	dword ptr [ebx + 8], ebx
  === BLOCK LINK ===
    0x709f
=== CODE BLOCK END ===

=== CODE BLOCK ADDRESS 0x709f ===
  0x709f	inc    	ebp
  0x70a0	mov    	dword ptr [ebx + 0x18], eax
  0x70a3	dec    	ecx
  0x70a4	mov    	dword ptr [ebx + 0x10], edx
  0x70a7	push   	ebp
  === BLOCK LINK ===
    0x70a8
=== CODE BLOCK END ===

=== CODE BLOCK ADDRESS 0x70a8 ===
  0x70a8	push   	esi
  0x70a9	push   	edi
  0x70aa	inc    	ecx
  0x70ab	push   	esp
  0x70ac	inc    	ecx
  === BLOCK LINK ===
    0x70ad
=== CODE BLOCK END ===

=== CODE BLOCK ADDRESS 0x70ad ===
  0x70ad	push   	ebp
  0x70ae	inc    	ecx
  0x70af	push   	esi
  0x70b0	inc    	ecx
  0x70b1	push   	edi
  === BLOCK LINK ===
    0x70b2
=== CODE BLOCK END ===

=== CODE BLOCK ADDRESS 0x70b2 ===
  0x70b2	dec    	eax
  0x70b3	mov    	ebp, esp
  0x70b5	dec    	eax
  0x70b6	sub    	esp, 0x50
  0x70b9	inc    	ebp
  === BLOCK LINK ===
    0x70ba
=== CODE BLOCK END ===

=== CODE BLOCK ADDRESS 0x70ba ===
  0x70ba	xor    	esp, esp
  0x70bc	dec    	eax
  0x70bd	lea    	eax, [ebp + 0x58]
  0x70c0	dec    	ebp
  0x70c1	mov    	dword ptr [ebx - 0x58], esp
  === BLOCK LINK ===
    0x70c4
=== CODE BLOCK END ===

=== CODE BLOCK ADDRESS 0x70c4 ===
  0x70c4	dec    	esp
  0x70c5	lea    	eax, [ebp - 8]
  0x70c8	dec    	ecx
  0x70c9	mov    	dword ptr [ebx - 0x60], eax
  0x70cc	dec    	esp
  === BLOCK LINK ===
    0x70cd
=== CODE BLOCK END ===

=== CODE BLOCK ADDRESS 0x70cd ===
  0x70cd	mov    	ebp, ecx
  0x70cf	dec    	eax
  0x70d0	lea    	eax, [ebp + 0x48]
  0x70d3	inc    	esp
  0x70d4	mov    	dword ptr [ebp + 0x50], esp
  === BLOCK LINK ===
    0x70d7
=== CODE BLOCK END ===

=== CODE BLOCK ADDRESS 0x70d7 ===
  0x70d7	inc    	ecx
  0x70d8	or     	ecx, 0xffffffff
  0x70db	dec    	ecx
  0x70dc	mov    	dword ptr [ebx - 0x68], eax
  0x70df	xor    	edx, edx
  === BLOCK LINK ===
    0x70e1
=== CODE BLOCK END ===

=== CODE BLOCK ADDRESS 0x70e1 ===
  0x70e1	dec    	esp
  0x70e2	mov    	dword ptr [ebp - 0x10], esp
  0x70e5	xor    	ecx, ecx
  0x70e7	inc    	sp
  0x70e9	mov    	dword ptr [0xe291], esp
  === BLOCK LINK ===
    0x70ef
=== CODE BLOCK END ===

=== CODE BLOCK ADDRESS 0x70ef ===
  0x70ef	inc    	ecx
  0x70f0	mov    	edi, esp
  0x70f2	dec    	eax
  0x70f3	call   	dword ptr [0x4517]
  === BLOCK LINK ===
    0x70f9
=== CODE BLOCK END ===

=== CODE BLOCK ADDRESS 0x70f9 ===
  0x70f9	nop    	dword ptr [eax + eax]
  0x70fe	test   	eax, eax
  0x7100	jne    	0x7244
  === BLOCK LINK ===
    0x7106
=== CODE BLOCK END ===

=== CODE BLOCK ADDRESS 0x7106 ===
  0x7106	inc    	ecx
  0x7107	mov    	esi, esp
  0x7109	dec    	esp
  0x710a	mov    	edi, dword ptr [ebp - 8]
  0x710d	inc    	esp
  === BLOCK LINK ===
    0x710e
=== CODE BLOCK END ===

=== CODE BLOCK ADDRESS 0x710e ===
  0x710e	cmp    	dword ptr [ebp + 0x48], esp
  0x7111	jbe    	0x721d
  === BLOCK LINK ===
    0x7117
=== CODE BLOCK END ===

=== CODE BLOCK ADDRESS 0x7117 ===
  0x7117	dec    	eax
  0x7118	or     	ebx, 0xffffffff
  0x711b	inc    	esp
  0x711c	mov    	esp, esi
  0x711e	dec    	ecx
  === BLOCK LINK ===
    0x711f
=== CODE BLOCK END ===

=== CODE BLOCK ADDRESS 0x711f ===
  0x711f	mov    	ecx, ebp
  0x7121	dec    	ebp
  0x7122	add    	esp, esp
  0x7124	inc    	esp
  0x7125	mov    	esi, esi
  === BLOCK LINK ===
    0x7127
=== CODE BLOCK END ===

=== CODE BLOCK ADDRESS 0x7127 ===
  0x7127	dec    	ebx
  0x7128	mov    	edx, dword ptr [edi + 8]
  0x712c	dec    	eax
  0x712d	call   	dword ptr [0x4305]
  === BLOCK LINK ===
    0x7133
=== CODE BLOCK END ===

=== CODE BLOCK ADDRESS 0x7133 ===
  0x7133	nop    	dword ptr [eax + eax]
  0x7138	xor    	edx, edx
  0x713a	test   	eax, eax
  0x713c	je     	0x71e1
  === BLOCK LINK ===
    0x7142
=== CODE BLOCK END ===

=== CODE BLOCK ADDRESS 0x7142 ===
  0x7142	dec    	eax
  0x7143	mov    	ecx, dword ptr [ebp - 0x10]
  0x7146	dec    	eax
  0x7147	test   	ecx, ecx
  0x7149	jne    	0x718f
  === BLOCK LINK ===
    0x714b
=== CODE BLOCK END ===

=== CODE BLOCK ADDRESS 0x714b ===
  0x714b	dec    	eax
  0x714c	mov    	edi, ebx
  0x714e	dec    	eax
  0x714f	inc    	edi
  0x7151	inc    	cx
  === BLOCK LINK ===
    0x7153
=== CODE BLOCK END ===

=== CODE BLOCK ADDRESS 0x7153 ===
  0x7153	cmp    	dword ptr [ebp + edi*2], edx
  0x7157	jne    	0x714e
  === BLOCK LINK ===
    0x7159
=== CODE BLOCK END ===

=== CODE BLOCK ADDRESS 0x7159 ===
  0x7159	add    	edi, 3
  0x715c	dec    	eax
  0x715d	lea    	edx, [ebp - 0x10]
  0x7160	lea    	ecx, [edi + edi]
  0x7163	dec    	eax
  === BLOCK LINK ===
    0x7164
=== CODE BLOCK END ===

=== CODE BLOCK ADDRESS 0x7164 ===
  0x7164	call   	dword ptr [0x4456]
  === BLOCK LINK ===
    0x716a
=== CODE BLOCK END ===

=== CODE BLOCK ADDRESS 0x716a ===
  0x716a	nop    	dword ptr [eax + eax]
  0x716f	test   	eax, eax
  0x7171	jne    	0x7244
  === BLOCK LINK ===
    0x7177
=== CODE BLOCK END ===

=== CODE BLOCK ADDRESS 0x7177 ===
  0x7177	dec    	eax
  0x7178	mov    	eax, dword ptr [ebp - 0x10]
  0x717b	mov    	ecx, 0x5c
  0x7180	mov    	word ptr [eax + 2], cx
  0x7184	dec    	eax
  === BLOCK LINK ===
    0x7185
=== CODE BLOCK END ===

=== CODE BLOCK ADDRESS 0x7185 ===
  0x7185	mov    	eax, dword ptr [ebp - 0x10]
  0x7188	mov    	word ptr [eax], cx
  0x718b	dec    	eax
  0x718c	mov    	ecx, dword ptr [ebp - 0x10]
  0x718f	lea    	eax, [edi - 2]
  === BLOCK LINK ===
    0x7192
=== CODE BLOCK END ===

=== CODE BLOCK ADDRESS 0x7192 ===
  0x7192	dec    	eax
  0x7193	add    	ecx, 4
  0x7196	dec    	eax
  0x7197	arpl   	ax, dx
  0x7199	dec    	ebp
  === BLOCK LINK ===
    0x719a
=== CODE BLOCK END ===

=== CODE BLOCK ADDRESS 0x719a ===
  0x719a	mov    	eax, ebp
  0x719c	dec    	eax
  0x719d	call   	dword ptr [0x439d]
  === BLOCK LINK ===
    0x71a3
=== CODE BLOCK END ===

=== CODE BLOCK ADDRESS 0x71a3 ===
  0x71a3	nop    	dword ptr [eax + eax]
  0x71a8	dec    	ebx
  0x71a9	mov    	edx, dword ptr [edi + 8]
  0x71ad	dec    	eax
  0x71ae	mov    	ecx, dword ptr [ebp - 0x10]
  === BLOCK LINK ===
    0x71b1
=== CODE BLOCK END ===

=== CODE BLOCK ADDRESS 0x71b1 ===
  0x71b1	dec    	eax
  0x71b2	call   	dword ptr [0x4280]
  === BLOCK LINK ===
    0x71b8
=== CODE BLOCK END ===

=== CODE BLOCK ADDRESS 0x71b8 ===
  0x71b8	nop    	dword ptr [eax + eax]
  0x71bd	mov    	ecx, dword ptr [ebp + 0x50]
  0x71c0	inc    	ebp
  0x71c1	xor    	esp, esp
  0x71c3	test   	eax, eax
  === BLOCK LINK ===
    0x71c5
=== CODE BLOCK END ===

=== CODE BLOCK ADDRESS 0x71c5 ===
  0x71c5	inc    	ecx
  0x71c6	lea    	eax, [esp + 1]
  0x71ca	cmove  	ecx, eax
  0x71cd	mov    	dword ptr [ebp + 0x50], ecx
  0x71d0	test   	ecx, ecx
  === BLOCK LINK ===
    0x71d2
=== CODE BLOCK END ===

=== CODE BLOCK ADDRESS 0x71d2 ===
  0x71d2	jne    	0x71e4
  === BLOCK LINK ===
    0x71d4
=== CODE BLOCK END ===

=== CODE BLOCK ADDRESS 0x71d4 ===
  0x71d4	add    	esi, eax
  0x71d6	cmp    	esi, dword ptr [ebp + 0x48]
  0x71d9	jb     	0x711b
  === BLOCK LINK ===
    0x71df
=== CODE BLOCK END ===

=== CODE BLOCK ADDRESS 0x71df ===
  0x71df	jmp    	0x721d
  === BLOCK LINK ===
    0x71e1
=== CODE BLOCK END ===

=== CODE BLOCK ADDRESS 0x71e1 ===
  0x71e1	inc    	ebp
  0x71e2	xor    	esp, esp
  0x71e4	dec    	ebp
  0x71e5	add    	esi, esi
  0x71e7	dec    	edi
  === BLOCK LINK ===
    0x71e8
=== CODE BLOCK END ===

=== CODE BLOCK ADDRESS 0x71e8 ===
  0x71e8	mov    	eax, dword ptr [edi + esi*8]
  0x71eb	dec    	eax
  0x71ec	inc    	ebx
  0x71ee	inc    	bp
  0x71f0	cmp    	dword ptr [eax + ebx*2], esp
  === BLOCK LINK ===
    0x71f3
=== CODE BLOCK END ===

=== CODE BLOCK ADDRESS 0x71f3 ===
  0x71f3	jne    	0x71eb
  === BLOCK LINK ===
    0x71f5
=== CODE BLOCK END ===

=== CODE BLOCK ADDRESS 0x71f5 ===
  0x71f5	dec    	eax
  0x71f6	lea    	ecx, [0xe184]
  0x71fc	mov    	edx, 0x800
  0x7201	inc    	esp
  0x7202	lea    	ecx, [edx - 1]
  === BLOCK LINK ===
    0x7205
=== CODE BLOCK END ===

=== CODE BLOCK ADDRESS 0x7205 ===
  0x7205	dec    	eax
  0x7206	test   	ebx, ebx
  0x7208	jne    	0x7211
  === BLOCK LINK ===
    0x720a
=== CODE BLOCK END ===

=== CODE BLOCK ADDRESS 0x720a ===
  0x720a	dec    	esp
  0x720b	mov    	eax, dword ptr [0x72b7]
  0x7211	dec    	eax
  0x7212	call   	dword ptr [0x4288]
  === BLOCK LINK ===
    0x7218
=== CODE BLOCK END ===

=== CODE BLOCK ADDRESS 0x7218 ===
  0x7218	nop    	dword ptr [eax + eax]
  0x721d	dec    	eax
  0x721e	mov    	ecx, dword ptr [ebp - 8]
  0x7221	dec    	eax
  0x7222	call   	dword ptr [0x4390]
  === BLOCK LINK ===
    0x7228
=== CODE BLOCK END ===

=== CODE BLOCK ADDRESS 0x7228 ===
  0x7228	nop    	dword ptr [eax + eax]
  0x722d	dec    	eax
  0x722e	mov    	ecx, dword ptr [ebp - 0x10]
  0x7231	dec    	eax
  0x7232	test   	ecx, ecx
  === BLOCK LINK ===
    0x7234
=== CODE BLOCK END ===

=== CODE BLOCK ADDRESS 0x7234 ===
  0x7234	je     	0x7242
  === BLOCK LINK ===
    0x7236
=== CODE BLOCK END ===

=== CODE BLOCK ADDRESS 0x7236 ===
  0x7236	dec    	eax
  0x7237	call   	dword ptr [0x437b]
  === BLOCK LINK ===
    0x723d
=== CODE BLOCK END ===

=== CODE BLOCK ADDRESS 0x723d ===
  0x723d	nop    	dword ptr [eax + eax]
  0x7242	xor    	eax, eax
  0x7244	dec    	eax
  0x7245	mov    	ebx, dword ptr [esp + 0x90]
  0x724c	dec    	eax
  === BLOCK LINK ===
    0x724d
=== CODE BLOCK END ===

=== CODE BLOCK ADDRESS 0x724d ===
  0x724d	add    	esp, 0x50
  0x7250	inc    	ecx
  0x7251	pop    	edi
  0x7252	inc    	ecx
  0x7253	pop    	esi
  === BLOCK LINK ===
    0x7254
=== CODE BLOCK END ===

=== CODE BLOCK ADDRESS 0x7254 ===
  0x7254	inc    	ecx
  0x7255	pop    	ebp
  0x7256	inc    	ecx
  0x7257	pop    	esp
  0x7258	pop    	edi
  === BLOCK LINK ===
    0x7259
=== CODE BLOCK END ===

=== CODE BLOCK ADDRESS 0x7259 ===
  0x7259	pop    	esi
  0x725a	pop    	ebp
  0x725b	ret    	
  0x725c	int3   	
  0x725d	int3   	
  === BLOCK LINK ===
    0x725e
=== CODE BLOCK END ===

=== CODE BLOCK ADDRESS 0x147c ===
=== CODE BLOCK END ===

=== CODE BLOCK ADDRESS 0x725e ===
  0x725e	int3   	
  0x725f	int3   	
  0x7260	int3   	
  0x7261	int3   	
  0x7262	int3   	
  === BLOCK LINK ===
    0x7263
=== CODE BLOCK END ===

=== CODE BLOCK ADDRESS 0x7263 ===
  0x7263	int3   	
  0x7264	dec    	eax
  0x7265	mov    	dword ptr [esp + 8], ecx
  0x7269	push   	ebp
  0x726a	push   	ebx
  === BLOCK LINK ===
    0x726b
=== CODE BLOCK END ===

=== CODE BLOCK ADDRESS 0x726b ===
  0x726b	push   	esi
  0x726c	push   	edi
  0x726d	inc    	ecx
  0x726e	push   	esp
  0x726f	inc    	ecx
  === BLOCK LINK ===
    0x7270
=== CODE BLOCK END ===

=== CODE BLOCK ADDRESS 0x7270 ===
  0x7270	push   	ebp
  0x7271	inc    	ecx
  0x7272	push   	esi
  0x7273	inc    	ecx
  0x7274	push   	edi
  === BLOCK LINK ===
    0x7275
=== CODE BLOCK END ===

=== CODE BLOCK ADDRESS 0x7275 ===
  0x7275	dec    	eax
  0x7276	lea    	ebp, [esp - 0x1f]
  0x727a	dec    	eax
  0x727b	sub    	esp, 0x88
  0x7281	xor    	eax, eax
  === BLOCK LINK ===
    0x7283
=== CODE BLOCK END ===

=== CODE BLOCK ADDRESS 0x7283 ===
  0x7283	mov    	byte ptr [ebp + 0x77], 1
  0x7287	dec    	esp
  0x7288	lea    	eax, [ebp + 0xb]
  0x728b	dec    	eax
  0x728c	mov    	dword ptr [ebp - 0x19], eax
  === BLOCK LINK ===
    0x728f
=== CODE BLOCK END ===

=== CODE BLOCK ADDRESS 0x728f ===
  0x728f	dec    	eax
  0x7290	lea    	edx, [0x722a]
  0x7296	mov    	dword ptr [ebp + 0x7f], eax
  0x7299	mov    	edi, eax
  0x729b	mov    	word ptr [ebp + 7], ax
  === BLOCK LINK ===
    0x729f
=== CODE BLOCK END ===

=== CODE BLOCK ADDRESS 0x729f ===
  0x729f	lea    	ecx, [eax + 0xc]
  0x72a2	dec    	eax
  0x72a3	mov    	dword ptr [ebp - 0x29], eax
  0x72a6	inc    	esp
  0x72a7	movzx  	esp, ax
  === BLOCK LINK ===
    0x72aa
=== CODE BLOCK END ===

=== CODE BLOCK ADDRESS 0x72aa ===
  0x72aa	dec    	eax
  0x72ab	mov    	dword ptr [ebp - 1], eax
  0x72ae	mov    	ebx, eax
  0x72b0	mov    	byte ptr [ebp + 0x6f], al
  0x72b3	inc    	esp
  === BLOCK LINK ===
    0x72b4
=== CODE BLOCK END ===

=== CODE BLOCK ADDRESS 0x72b4 ===
  0x72b4	mov    	ebp, eax
  0x72b6	mov    	dword ptr [ebp - 9], eax
  0x72b9	or     	esi, 0xffffffff
  0x72bc	mov    	dword ptr [ebp - 0x21], eax
  0x72bf	inc    	esp
  === BLOCK LINK ===
    0x72c0
=== CODE BLOCK END ===

=== CODE BLOCK ADDRESS 0x72c0 ===
  0x72c0	mov    	bh, al
  0x72c2	mov    	dword ptr [ebp - 0x1d], eax
  0x72c5	mov    	dword ptr [ebp - 0x11], eax
  0x72c8	call   	0x7fc0
  === BLOCK LINK ===
    0x72cd
=== CODE BLOCK END ===

=== CODE BLOCK ADDRESS 0x72cd ===
  0x72cd	inc    	ebp
  0x72ce	xor    	ebx, ebx
  0x72d0	dec    	esp
  0x72d1	cmp    	dword ptr [0x116d9], ebx
  0x72d7	inc    	ebp
  === BLOCK LINK ===
    0x72d8
=== CODE BLOCK END ===

=== CODE BLOCK ADDRESS 0x72d8 ===
  0x72d8	mov    	esi, ebx
  0x72da	je     	0x7441
  === BLOCK LINK ===
    0x72e0
=== CODE BLOCK END ===

=== CODE BLOCK ADDRESS 0x72e0 ===
  0x72e0	dec    	eax
  0x72e1	lea    	eax, [0x116c9]
  0x72e7	inc    	ecx
  0x72e8	cmp    	esi, 1
  0x72eb	ja     	0x742a
  === BLOCK LINK ===
    0x72f1
=== CODE BLOCK END ===

=== CODE BLOCK ADDRESS 0x72f1 ===
  0x72f1	inc    	ecx
  0x72f2	mov    	ebx, esi
  0x72f4	dec    	eax
  0x72f5	mov    	ecx, dword ptr [eax + ebx*8]
  0x72f8	call   	0x954c
  === BLOCK LINK ===
    0x72fd
=== CODE BLOCK END ===

=== CODE BLOCK ADDRESS 0x72fd ===
  0x72fd	dec    	eax
  0x72fe	mov    	edx, eax
  0x7300	dec    	esp
  0x7301	lea    	edx, [0x7089]
  0x7307	dec    	eax
  === BLOCK LINK ===
    0x7308
=== CODE BLOCK END ===

=== CODE BLOCK ADDRESS 0x7308 ===
  0x7308	lea    	eax, [0x116a2]
  0x730e	dec    	eax
  0x730f	mov    	eax, dword ptr [eax + ebx*8]
  0x7312	dec    	eax
  0x7313	mov    	ecx, eax
  === BLOCK LINK ===
    0x7315
=== CODE BLOCK END ===

=== CODE BLOCK ADDRESS 0x7315 ===
  0x7315	dec    	esp
  0x7316	sub    	edx, eax
  0x7318	inc    	esp
  0x7319	movzx  	ecx, word ptr [ecx]
  0x731c	inc    	esi
  === BLOCK LINK ===
    0x731d
=== CODE BLOCK END ===

=== CODE BLOCK ADDRESS 0x731d ===
  0x731d	movzx  	eax, word ptr [ecx + edx]
  0x7321	inc    	ebp
  0x7322	sub    	ecx, eax
  0x7324	jne    	0x732f
  === BLOCK LINK ===
    0x7326
=== CODE BLOCK END ===

=== CODE BLOCK ADDRESS 0x7326 ===
  0x7326	dec    	eax
  0x7327	add    	ecx, 2
  0x732a	inc    	ebp
  0x732b	test   	eax, eax
  0x732d	jne    	0x7318
  === BLOCK LINK ===
    0x732f
=== CODE BLOCK END ===

=== CODE BLOCK ADDRESS 0x732f ===
  0x732f	inc    	ebp
  0x7330	xor    	ebx, ebx
  0x7332	inc    	ebp
  0x7333	test   	ecx, ecx
  0x7335	jne    	0x734f
  === BLOCK LINK ===
    0x7337
=== CODE BLOCK END ===

=== CODE BLOCK ADDRESS 0x7337 ===
  0x7337	mov    	al, byte ptr [ebp + 0x6f]
  0x733a	dec    	eax
  0x733b	test   	edx, edx
  0x733d	jne    	0x7346
  === BLOCK LINK ===
    0x733f
=== CODE BLOCK END ===

=== CODE BLOCK ADDRESS 0x733f ===
  0x733f	mov    	esi, 0x80000000
  0x7344	jmp    	0x73bd
  === BLOCK LINK ===
    0x7346
=== CODE BLOCK END ===

=== CODE BLOCK ADDRESS 0x7346 ===
  0x7346	dec    	eax
  0x7347	mov    	ebx, edx
  0x7349	dec    	eax
  0x734a	mov    	dword ptr [ebp - 1], edx
  0x734d	jmp    	0x73c1
  === BLOCK LINK ===
    0x734f
=== CODE BLOCK END ===

=== CODE BLOCK ADDRESS 0x734f ===
  0x734f	dec    	esp
  0x7350	lea    	edx, [0x704a]
  0x7356	dec    	eax
  0x7357	mov    	ecx, eax
  0x7359	dec    	esp
  === BLOCK LINK ===
    0x735a
=== CODE BLOCK END ===

=== CODE BLOCK ADDRESS 0x735a ===
  0x735a	sub    	edx, eax
  0x735c	inc    	esp
  0x735d	movzx  	ecx, word ptr [ecx]
  0x7360	inc    	esi
  0x7361	movzx  	eax, word ptr [ecx + edx]
  === BLOCK LINK ===
    0x7365
=== CODE BLOCK END ===

=== CODE BLOCK ADDRESS 0x7365 ===
  0x7365	inc    	ebp
  0x7366	sub    	ecx, eax
  0x7368	jne    	0x7373
  === BLOCK LINK ===
    0x736a
=== CODE BLOCK END ===

=== CODE BLOCK ADDRESS 0x736a ===
  0x736a	dec    	eax
  0x736b	add    	ecx, 2
  0x736e	inc    	ebp
  0x736f	test   	eax, eax
  0x7371	jne    	0x735c
  === BLOCK LINK ===
    0x7373
=== CODE BLOCK END ===

=== CODE BLOCK ADDRESS 0x7373 ===
  0x7373	inc    	ebp
  0x7374	test   	ecx, ecx
  0x7376	jne    	0x738f
  === BLOCK LINK ===
    0x7378
=== CODE BLOCK END ===

=== CODE BLOCK ADDRESS 0x7378 ===
  0x7378	dec    	eax
  0x7379	test   	edx, edx
  0x737b	je     	0x73ba
  === BLOCK LINK ===
    0x737d
=== CODE BLOCK END ===

=== CODE BLOCK ADDRESS 0x737d ===
  0x737d	dec    	eax
  0x737e	mov    	ebx, dword ptr [ebp - 1]
  0x7381	mov    	al, byte ptr [ebp + 0x6f]
  0x7384	inc    	sp
  0x7386	cmp    	dword ptr [edx], ebx
  === BLOCK LINK ===
    0x7388
=== CODE BLOCK END ===

=== CODE BLOCK ADDRESS 0x7388 ===
  0x7388	je     	0x73c1
  === BLOCK LINK ===
    0x738a
=== CODE BLOCK END ===

=== CODE BLOCK ADDRESS 0x738a ===
  0x738a	dec    	esp
  0x738b	mov    	ebp, edx
  0x738d	jmp    	0x73c1
  === BLOCK LINK ===
    0x738f
=== CODE BLOCK END ===

=== CODE BLOCK ADDRESS 0x738f ===
  0x738f	dec    	esp
  0x7390	lea    	ecx, [0x6fea]
  0x7396	dec    	eax
  0x7397	mov    	ecx, eax
  0x7399	dec    	esp
  === BLOCK LINK ===
    0x739a
=== CODE BLOCK END ===

=== CODE BLOCK ADDRESS 0x739a ===
  0x739a	sub    	ecx, eax
  0x739c	inc    	esp
  0x739d	movzx  	eax, word ptr [ecx]
  0x73a0	inc    	edx
  0x73a1	movzx  	edx, word ptr [ecx + ecx]
  === BLOCK LINK ===
    0x73a5
=== CODE BLOCK END ===

=== CODE BLOCK ADDRESS 0x73a5 ===
  0x73a5	inc    	esp
  0x73a6	sub    	eax, edx
  0x73a8	jne    	0x73b2
  === BLOCK LINK ===
    0x73aa
=== CODE BLOCK END ===

=== CODE BLOCK ADDRESS 0x73aa ===
  0x73aa	dec    	eax
  0x73ab	add    	ecx, 2
  0x73ae	test   	edx, edx
  0x73b0	jne    	0x739c
  === BLOCK LINK ===
    0x73b2
=== CODE BLOCK END ===

=== CODE BLOCK ADDRESS 0x73b2 ===
  0x73b2	inc    	ebp
  0x73b3	test   	eax, eax
  0x73b5	jne    	0x7401
  === BLOCK LINK ===
    0x73b7
=== CODE BLOCK END ===

=== CODE BLOCK ADDRESS 0x73b7 ===
  0x73b7	inc    	ecx
  0x73b8	mov    	bh, 1
  0x73ba	mov    	al, byte ptr [ebp + 0x6f]
  0x73bd	dec    	eax
  0x73be	mov    	ebx, dword ptr [ebp - 1]
  === BLOCK LINK ===
    0x73c1
=== CODE BLOCK END ===

=== CODE BLOCK ADDRESS 0x73c1 ===
  0x73c1	inc    	ebp
  0x73c2	test   	esi, esi
  0x73c4	je     	0x73ca
  === BLOCK LINK ===
    0x73c6
=== CODE BLOCK END ===

=== CODE BLOCK ADDRESS 0x73c6 ===
  0x73c6	test   	al, al
  0x73c8	je     	0x742a
  === BLOCK LINK ===
    0x73ca
=== CODE BLOCK END ===

=== CODE BLOCK ADDRESS 0x73ca ===
  0x73ca	inc    	ecx
  0x73cb	inc    	esi
  0x73cd	dec    	eax
  0x73ce	lea    	ecx, [0x115dc]
  0x73d4	dec    	eax
  === BLOCK LINK ===
    0x73d5
=== CODE BLOCK END ===

=== CODE BLOCK ADDRESS 0x73d5 ===
  0x73d5	lea    	eax, [0x115d5]
  0x73db	dec    	esi
  0x73dc	cmp    	dword ptr [ecx + esi*8], ebx
  0x73df	jne    	0x72e7
  === BLOCK LINK ===
    0x73e5
=== CODE BLOCK END ===

=== CODE BLOCK ADDRESS 0x73e5 ===
  0x73e5	dec    	ebp
  0x73e6	test   	ebp, ebp
  0x73e8	je     	0x7441
  === BLOCK LINK ===
    0x73ea
=== CODE BLOCK END ===

=== CODE BLOCK ADDRESS 0x73ea ===
  0x73ea	xor    	edx, edx
  0x73ec	mov    	ecx, 0xdad
  0x73f1	call   	0x7ea4
  === BLOCK LINK ===
    0x73f6
=== CODE BLOCK END ===

=== CODE BLOCK ADDRESS 0x73f6 ===
  0x73f6	mov    	ecx, 2
  0x73fb	call   	0x8378
  === BLOCK LINK ===
    0x7400
=== CODE BLOCK END ===

=== CODE BLOCK ADDRESS 0x7400 ===
  0x7400	int3   	
  0x7401	dec    	esp
  0x7402	lea    	eax, [0x6f68]
  0x7408	dec    	esp
  0x7409	sub    	eax, eax
  === BLOCK LINK ===
    0x740b
=== CODE BLOCK END ===

=== CODE BLOCK ADDRESS 0x740b ===
  0x740b	movzx  	ecx, word ptr [eax]
  0x740e	inc    	edx
  0x740f	movzx  	edx, word ptr [eax + eax]
  0x7413	sub    	ecx, edx
  0x7415	jne    	0x741f
  === BLOCK LINK ===
    0x7417
=== CODE BLOCK END ===

=== CODE BLOCK ADDRESS 0x7417 ===
  0x7417	dec    	eax
  0x7418	add    	eax, 2
  0x741b	test   	edx, edx
  0x741d	jne    	0x740b
  === BLOCK LINK ===
    0x741f
=== CODE BLOCK END ===

=== CODE BLOCK ADDRESS 0x741f ===
  0x741f	test   	ecx, ecx
  0x7421	jne    	0x73ea
  === BLOCK LINK ===
    0x7423
=== CODE BLOCK END ===

=== CODE BLOCK ADDRESS 0x7423 ===
  0x7423	mov    	al, 1
  0x7425	mov    	byte ptr [ebp + 0x6f], al
  0x7428	jmp    	0x73bd
  === BLOCK LINK ===
    0x742a
=== CODE BLOCK END ===

=== CODE BLOCK ADDRESS 0x742a ===
  0x742a	xor    	edx, edx
  0x742c	mov    	ecx, 0xdb6
  0x7431	call   	0x7ea4
  === BLOCK LINK ===
    0x7436
=== CODE BLOCK END ===

=== CODE BLOCK ADDRESS 0x7436 ===
  0x7436	mov    	ecx, 2
  0x743b	call   	0x8378
  === BLOCK LINK ===
    0x7440
=== CODE BLOCK END ===

=== CODE BLOCK ADDRESS 0x7440 ===
  0x7440	int3   	
  0x7441	dec    	eax
  0x7442	mov    	eax, dword ptr [ebp + 0x67]
  0x7445	dec    	eax
  0x7446	test   	eax, eax
  === BLOCK LINK ===
    0x7448
=== CODE BLOCK END ===

=== CODE BLOCK ADDRESS 0x7448 ===
  0x7448	jne    	0x770f
  === BLOCK LINK ===
    0x744e
=== CODE BLOCK END ===

=== CODE BLOCK ADDRESS 0x744e ===
  0x744e	dec    	eax
  0x744f	call   	dword ptr [0x3d1b]
  === BLOCK LINK ===
    0x7455
=== CODE BLOCK END ===

=== CODE BLOCK ADDRESS 0x7455 ===
  0x7455	nop    	dword ptr [eax + eax]
  0x745a	cmp    	eax, 1
  0x745d	je     	0x74da
  === BLOCK LINK ===
    0x745f
=== CODE BLOCK END ===

=== CODE BLOCK ADDRESS 0x745f ===
  0x745f	dec    	eax
  0x7460	mov    	ebx, dword ptr [0xbf0a]
  0x7466	dec    	eax
  0x7467	lea    	eax, [ebp + 0x6f]
  0x746a	dec    	eax
  === BLOCK LINK ===
    0x746b
=== CODE BLOCK END ===

=== CODE BLOCK ADDRESS 0x746b ===
  0x746b	mov    	dword ptr [esp + 0x30], eax
  0x746f	dec    	esp
  0x7470	lea    	edi, [0x4242]
  0x7476	inc    	ecx
  0x7477	mov    	esi, 0x800
  === BLOCK LINK ===
    0x747c
=== CODE BLOCK END ===

=== CODE BLOCK ADDRESS 0x747c ===
  0x747c	dec    	esp
  0x747d	mov    	dword ptr [esp + 0x28], edi
  0x7481	dec    	eax
  0x7482	lea    	edi, [0x10478]
  0x7488	mov    	dword ptr [esp + 0x20], 0x125d
  === BLOCK LINK ===
    0x7490
=== CODE BLOCK END ===

=== CODE BLOCK ADDRESS 0x7490 ===
  0x7490	inc    	ebp
  0x7491	mov    	ecx, esi
  0x7493	dec    	eax
  0x7494	lea    	ecx, [0xef86]
  0x749a	dec    	esp
  === BLOCK LINK ===
    0x749b
=== CODE BLOCK END ===

=== CODE BLOCK ADDRESS 0x749b ===
  0x749b	mov    	eax, edi
  0x749d	xor    	edx, edx
  0x749f	call   	0xa030
  === BLOCK LINK ===
    0x74a4
=== CODE BLOCK END ===

=== CODE BLOCK ADDRESS 0x74a4 ===
  0x74a4	test   	eax, eax
  0x74a6	inc    	ecx
  0x74a7	mov    	eax, 1
  0x74ac	dec    	eax
  0x74ad	mov    	edx, edi
  === BLOCK LINK ===
    0x74af
=== CODE BLOCK END ===

=== CODE BLOCK ADDRESS 0x74af ===
  0x74af	dec    	eax
  0x74b0	cmovne  	ebx, dword ptr [0xbeb1]
  0x74b7	dec    	eax
  0x74b8	mov    	ecx, ebx
  0x74ba	call   	0xa244
  === BLOCK LINK ===
    0x74bf
=== CODE BLOCK END ===

=== CODE BLOCK ADDRESS 0x74bf ===
  0x74bf	dec    	eax
  0x74c0	lea    	eax, [ebp + 0x6f]
  0x74c3	dec    	eax
  0x74c4	mov    	dword ptr [esp + 0x30], eax
  0x74c8	dec    	esp
  === BLOCK LINK ===
    0x74c9
=== CODE BLOCK END ===

=== CODE BLOCK ADDRESS 0x74c9 ===
  0x74c9	mov    	dword ptr [esp + 0x28], edi
  0x74cd	mov    	dword ptr [esp + 0x20], 0xdac
  0x74d5	jmp    	0x76c4
  === BLOCK LINK ===
    0x74da
=== CODE BLOCK END ===

=== CODE BLOCK ADDRESS 0x74da ===
  0x74da	mov    	edx, edi
  0x74dc	dec    	eax
  0x74dd	mov    	dword ptr [esp + 0x28], ebx
  0x74e1	inc    	ecx
  0x74e2	mov    	esi, 0x80000000
  === BLOCK LINK ===
    0x74e7
=== CODE BLOCK END ===

=== CODE BLOCK ADDRESS 0x74e7 ===
  0x74e7	mov    	dword ptr [esp + 0x20], esi
  0x74eb	inc    	ecx
  0x74ec	cmp    	esi, esi
  0x74ee	dec    	esp
  0x74ef	lea    	ecx, [ebp + 0x7f]
  === BLOCK LINK ===
    0x74f2
=== CODE BLOCK END ===

=== CODE BLOCK ADDRESS 0x74f2 ===
  0x74f2	dec    	esp
  0x74f3	lea    	eax, [ebp - 0x19]
  0x74f6	setne  	dl
  0x74f9	add    	edx, 0x64
  0x74fc	call   	0xa55c
  === BLOCK LINK ===
    0x7501
=== CODE BLOCK END ===

=== CODE BLOCK ADDRESS 0x7501 ===
  0x7501	mov    	ecx, eax
  0x7503	mov    	eax, 0xea
  0x7508	cmp    	ecx, eax
  0x750a	jne    	0x751f
  === BLOCK LINK ===
    0x750c
=== CODE BLOCK END ===

=== CODE BLOCK ADDRESS 0x750c ===
  0x750c	inc    	ecx
  0x750d	mov    	esp, 1
  0x7512	mov    	eax, dword ptr [ebp + 0x7f]
  0x7515	test   	eax, eax
  0x7517	jne    	0x7535
  === BLOCK LINK ===
    0x7519
=== CODE BLOCK END ===

=== CODE BLOCK ADDRESS 0x7519 ===
  0x7519	call   	0x7e30
  === BLOCK LINK ===
    0x751e
=== CODE BLOCK END ===

=== CODE BLOCK ADDRESS 0x751e ===
  0x751e	int3   	
  0x751f	test   	ecx, ecx
  0x7521	je     	0x7512
  === BLOCK LINK ===
    0x7523
=== CODE BLOCK END ===

=== CODE BLOCK ADDRESS 0x7523 ===
  0x7523	xor    	edx, edx
  0x7525	call   	0x7ea4
  === BLOCK LINK ===
    0x752a
=== CODE BLOCK END ===

=== CODE BLOCK ADDRESS 0x752a ===
  0x752a	mov    	ecx, 2
  0x752f	call   	0x8378
  === BLOCK LINK ===
    0x7534
=== CODE BLOCK END ===

=== CODE BLOCK ADDRESS 0x7534 ===
  0x7534	int3   	
  0x7535	dec    	eax
  0x7536	mov    	ecx, dword ptr [ebp - 0x19]
  0x7539	dec    	esp
  0x753a	lea    	ecx, [0xfffffb40]
  === BLOCK LINK ===
    0x7540
=== CODE BLOCK END ===

=== CODE BLOCK ADDRESS 0x7540 ===
  0x7540	inc    	ecx
  0x7541	mov    	eax, 8
  0x7546	inc    	ecx
  0x7547	cmp    	esi, esi
  0x7549	dec    	eax
  === BLOCK LINK ===
    0x754a
=== CODE BLOCK END ===

=== CODE BLOCK ADDRESS 0x754a ===
  0x754a	mov    	edx, eax
  0x754c	inc    	ebp
  0x754d	lea    	ebp, [eax + 0x18]
  0x7550	inc    	ebp
  0x7551	cmovne  	eax, ebp
  === BLOCK LINK ===
    0x7554
=== CODE BLOCK END ===

=== CODE BLOCK ADDRESS 0x7554 ===
  0x7554	dec    	eax
  0x7555	call   	dword ptr [0x3f25]
  === BLOCK LINK ===
    0x755b
=== CODE BLOCK END ===

=== CODE BLOCK ADDRESS 0x755b ===
  0x755b	nop    	dword ptr [eax + eax]
  0x7560	dec    	eax
  0x7561	mov    	ebx, dword ptr [0xbe09]
  0x7567	dec    	eax
  0x7568	lea    	eax, [ebp + 0x6f]
  === BLOCK LINK ===
    0x756b
=== CODE BLOCK END ===

=== CODE BLOCK ADDRESS 0x756b ===
  0x756b	xor    	edx, edx
  0x756d	dec    	eax
  0x756e	mov    	dword ptr [esp + 0x30], eax
  0x7572	inc    	ecx
  0x7573	cmp    	esi, esi
  === BLOCK LINK ===
    0x7575
=== CODE BLOCK END ===

=== CODE BLOCK ADDRESS 0x7575 ===
  0x7575	dec    	esp
  0x7576	lea    	edi, [0x413c]
  0x757c	inc    	ecx
  0x757d	mov    	esi, 0x800
  0x7582	dec    	esp
  === BLOCK LINK ===
    0x7583
=== CODE BLOCK END ===

=== CODE BLOCK ADDRESS 0x7583 ===
  0x7583	mov    	dword ptr [esp + 0x28], edi
  0x7587	dec    	eax
  0x7588	lea    	edi, [0x10372]
  0x758e	inc    	ebp
  0x758f	mov    	ecx, esi
  === BLOCK LINK ===
    0x7591
=== CODE BLOCK END ===

=== CODE BLOCK ADDRESS 0x7591 ===
  0x7591	dec    	eax
  0x7592	lea    	ecx, [0xee88]
  0x7598	dec    	esp
  0x7599	mov    	eax, edi
  0x759b	jne    	0x75a7
  === BLOCK LINK ===
    0x759d
=== CODE BLOCK END ===

=== CODE BLOCK ADDRESS 0x759d ===
  0x759d	mov    	dword ptr [esp + 0x20], 0x1260
  0x75a5	jmp    	0x75af
  === BLOCK LINK ===
    0x75a7
=== CODE BLOCK END ===

=== CODE BLOCK ADDRESS 0x75a7 ===
  0x75a7	mov    	dword ptr [esp + 0x20], 0x125c
  0x75af	call   	0xa030
  === BLOCK LINK ===
    0x75b4
=== CODE BLOCK END ===

=== CODE BLOCK ADDRESS 0x75b4 ===
  0x75b4	test   	eax, eax
  0x75b6	inc    	ecx
  0x75b7	mov    	eax, 1
  0x75bc	dec    	eax
  0x75bd	mov    	edx, edi
  === BLOCK LINK ===
    0x75bf
=== CODE BLOCK END ===

=== CODE BLOCK ADDRESS 0x75bf ===
  0x75bf	dec    	eax
  0x75c0	cmovne  	ebx, dword ptr [0xbda1]
  0x75c7	dec    	eax
  0x75c8	mov    	ecx, ebx
  0x75ca	call   	0xa244
  === BLOCK LINK ===
    0x75cf
=== CODE BLOCK END ===

=== CODE BLOCK ADDRESS 0x75cf ===
  0x75cf	xor    	edx, edx
  0x75d1	dec    	eax
  0x75d2	lea    	ecx, [0x43e8]
  0x75d8	call   	0x86c8
  === BLOCK LINK ===
    0x75dd
=== CODE BLOCK END ===

=== CODE BLOCK ADDRESS 0x75dd ===
  0x75dd	xor    	eax, eax
  0x75df	cmp    	esi, 0x80000000
  0x75e5	jne    	0x763a
  === BLOCK LINK ===
    0x75e7
=== CODE BLOCK END ===

=== CODE BLOCK ADDRESS 0x75e7 ===
  0x75e7	mov    	ebx, eax
  0x75e9	dec    	eax
  0x75ea	mov    	esi, dword ptr [ebp - 0x19]
  0x75ed	cmp    	dword ptr [ebp + 0x7f], eax
  0x75f0	jbe    	0x7694
  === BLOCK LINK ===
    0x75f6
=== CODE BLOCK END ===

=== CODE BLOCK ADDRESS 0x75f6 ===
  0x75f6	dec    	eax
  0x75f7	mov    	edx, dword ptr [esi]
  0x75f9	dec    	esp
  0x75fa	lea    	eax, [0x7d60]
  0x7600	inc    	ecx
  === BLOCK LINK ===
    0x7601
=== CODE BLOCK END ===

=== CODE BLOCK ADDRESS 0x7601 ===
  0x7601	mov    	ecx, 0x1000
  0x7606	mov    	ecx, 0x14
  0x760b	call   	0x8438
  === BLOCK LINK ===
    0x7610
=== CODE BLOCK END ===

=== CODE BLOCK ADDRESS 0x7610 ===
  0x7610	dec    	eax
  0x7611	mov    	edx, eax
  0x7613	dec    	eax
  0x7614	lea    	ecx, [0x484e]
  0x761a	call   	0x86c8
  === BLOCK LINK ===
    0x761f
=== CODE BLOCK END ===

=== CODE BLOCK ADDRESS 0x761f ===
  0x761f	xor    	edx, edx
  0x7621	dec    	eax
  0x7622	lea    	ecx, [0x40a0]
  0x7628	call   	0x86c8
  === BLOCK LINK ===
    0x762d
=== CODE BLOCK END ===

=== CODE BLOCK ADDRESS 0x762d ===
  0x762d	inc    	ebx
  0x762f	dec    	eax
  0x7630	lea    	esi, [esi + 8]
  0x7633	cmp    	ebx, dword ptr [ebp + 0x7f]
  0x7636	jb     	0x75f6
  === BLOCK LINK ===
    0x7638
=== CODE BLOCK END ===

=== CODE BLOCK ADDRESS 0x7638 ===
  0x7638	jmp    	0x7694
  === BLOCK LINK ===
    0x763a
=== CODE BLOCK END ===

=== CODE BLOCK ADDRESS 0x763a ===
  0x763a	mov    	esi, eax
  0x763c	dec    	eax
  0x763d	mov    	ebx, dword ptr [ebp - 0x19]
  0x7640	cmp    	dword ptr [ebp + 0x7f], eax
  0x7643	jbe    	0x7694
  === BLOCK LINK ===
    0x7645
=== CODE BLOCK END ===

=== CODE BLOCK ADDRESS 0x7645 ===
  0x7645	dec    	eax
  0x7646	mov    	edx, dword ptr [ebx]
  0x7648	dec    	esp
  0x7649	lea    	eax, [0x7d11]
  0x764f	inc    	ecx
  === BLOCK LINK ===
    0x7650
=== CODE BLOCK END ===

=== CODE BLOCK ADDRESS 0x7650 ===
  0x7650	mov    	ecx, 0x1000
  0x7655	mov    	ecx, 0x14
  0x765a	call   	0x8438
  === BLOCK LINK ===
    0x765f
=== CODE BLOCK END ===

=== CODE BLOCK ADDRESS 0x765f ===
  0x765f	dec    	eax
  0x7660	mov    	edx, eax
  0x7662	dec    	eax
  0x7663	lea    	ecx, [0x480f]
  0x7669	call   	0x86c8
  === BLOCK LINK ===
    0x766e
=== CODE BLOCK END ===

=== CODE BLOCK ADDRESS 0x766e ===
  0x766e	dec    	eax
  0x766f	mov    	edx, dword ptr [ebx + 0x18]
  0x7672	mov    	ecx, 0xffffffc8
  0x7677	call   	0xa490
  === BLOCK LINK ===
    0x767c
=== CODE BLOCK END ===

=== CODE BLOCK ADDRESS 0x767c ===
  0x767c	xor    	edx, edx
  0x767e	dec    	eax
  0x767f	lea    	ecx, [0x4043]
  0x7685	call   	0x86c8
  === BLOCK LINK ===
    0x768a
=== CODE BLOCK END ===

=== CODE BLOCK ADDRESS 0x768a ===
  0x768a	inc    	esi
  0x768c	dec    	ecx
  0x768d	add    	ebx, ebp
  0x768f	cmp    	esi, dword ptr [ebp + 0x7f]
  0x7692	jb     	0x7645
  === BLOCK LINK ===
    0x7694
=== CODE BLOCK END ===

=== CODE BLOCK ADDRESS 0x7694 ===
  0x7694	dec    	eax
  0x7695	mov    	ecx, dword ptr [ebp - 0x19]
  0x7698	dec    	eax
  0x7699	call   	dword ptr [0x3f19]
  === BLOCK LINK ===
    0x769f
=== CODE BLOCK END ===

=== CODE BLOCK ADDRESS 0x769f ===
  0x769f	nop    	dword ptr [eax + eax]
  0x76a4	inc    	bp
  0x76a6	test   	esp, esp
  0x76a8	je     	0x74bf
  === BLOCK LINK ===
    0x76ae
=== CODE BLOCK END ===

=== CODE BLOCK ADDRESS 0x76ae ===
  0x76ae	dec    	eax
  0x76af	lea    	eax, [ebp + 0x6f]
  0x76b2	dec    	eax
  0x76b3	mov    	dword ptr [esp + 0x30], eax
  0x76b7	dec    	esp
  === BLOCK LINK ===
    0x76b8
=== CODE BLOCK END ===

=== CODE BLOCK ADDRESS 0x76b8 ===
  0x76b8	mov    	dword ptr [esp + 0x28], edi
  0x76bc	mov    	dword ptr [esp + 0x20], 0xdb9
  0x76c4	dec    	eax
  0x76c5	mov    	ebx, dword ptr [0xbca5]
  0x76cb	dec    	eax
  === BLOCK LINK ===
    0x76cc
=== CODE BLOCK END ===

=== CODE BLOCK ADDRESS 0x76cc ===
  0x76cc	lea    	ecx, [0xed4e]
  0x76d2	inc    	ebp
  0x76d3	mov    	ecx, esi
  0x76d5	dec    	esp
  0x76d6	mov    	eax, edi
  === BLOCK LINK ===
    0x76d8
=== CODE BLOCK END ===

=== CODE BLOCK ADDRESS 0x76d8 ===
  0x76d8	xor    	edx, edx
  0x76da	call   	0xa030
  === BLOCK LINK ===
    0x76df
=== CODE BLOCK END ===

=== CODE BLOCK ADDRESS 0x76df ===
  0x76df	test   	eax, eax
  0x76e1	inc    	ecx
  0x76e2	mov    	eax, 1
  0x76e7	dec    	eax
  0x76e8	mov    	edx, edi
  === BLOCK LINK ===
    0x76ea
=== CODE BLOCK END ===

=== CODE BLOCK ADDRESS 0x76ea ===
  0x76ea	dec    	eax
  0x76eb	cmovne  	ebx, dword ptr [0xbc76]
  0x76f2	dec    	eax
  0x76f3	mov    	ecx, ebx
  0x76f5	call   	0xa244
  === BLOCK LINK ===
    0x76fa
=== CODE BLOCK END ===

=== CODE BLOCK ADDRESS 0x76fa ===
  0x76fa	dec    	eax
  0x76fb	add    	esp, 0x88
  0x7701	inc    	ecx
  0x7702	pop    	edi
  0x7703	inc    	ecx
  === BLOCK LINK ===
    0x7704
=== CODE BLOCK END ===

=== CODE BLOCK ADDRESS 0x7704 ===
  0x7704	pop    	esi
  0x7705	inc    	ecx
  0x7706	pop    	ebp
  0x7707	inc    	ecx
  0x7708	pop    	esp
  === BLOCK LINK ===
    0x7709
=== CODE BLOCK END ===

=== CODE BLOCK ADDRESS 0x7709 ===
  0x7709	pop    	edi
  0x770a	pop    	esi
  0x770b	pop    	ebx
  0x770c	pop    	ebp
  0x770d	ret    	
  === BLOCK LINK ===
    0x770e
=== CODE BLOCK END ===

=== CODE BLOCK ADDRESS 0x770e ===
  0x770e	int3   	
  0x770f	inc    	ecx
  0x7710	cmp    	bh, 1
  0x7713	jne    	0x7751
  === BLOCK LINK ===
    0x7715
=== CODE BLOCK END ===

=== CODE BLOCK ADDRESS 0x7715 ===
  0x7715	dec    	esp
  0x7716	mov    	dword ptr [esp + 0x30], ebx
  0x771a	dec    	eax
  0x771b	lea    	ecx, [ebp - 1]
  0x771e	dec    	eax
  === BLOCK LINK ===
    0x771f
=== CODE BLOCK END ===

=== CODE BLOCK ADDRESS 0x771f ===
  0x771f	mov    	dword ptr [esp + 0x28], ecx
  0x7723	dec    	esp
  0x7724	lea    	eax, [ebp - 0x19]
  0x7727	dec    	eax
  0x7728	lea    	ecx, [ebp + 0x7f]
  === BLOCK LINK ===
    0x772b
=== CODE BLOCK END ===

=== CODE BLOCK ADDRESS 0x772b ===
  0x772b	inc    	ecx
  0x772c	or     	ecx, 0xffffffff
  0x772f	dec    	eax
  0x7730	mov    	dword ptr [esp + 0x20], ecx
  0x7734	mov    	edx, 0x1f5
  === BLOCK LINK ===
    0x7739
=== CODE BLOCK END ===

=== CODE BLOCK ADDRESS 0x7739 ===
  0x7739	dec    	eax
  0x773a	mov    	ecx, eax
  0x773c	dec    	eax
  0x773d	call   	dword ptr [0x3eb5]
  === BLOCK LINK ===
    0x7743
=== CODE BLOCK END ===

=== CODE BLOCK ADDRESS 0x7743 ===
  0x7743	nop    	dword ptr [eax + eax]
  0x7748	mov    	edi, eax
  0x774a	inc    	ebp
  0x774b	xor    	ebx, ebx
  0x774d	dec    	eax
  === BLOCK LINK ===
    0x774e
=== CODE BLOCK END ===

=== CODE BLOCK ADDRESS 0x774e ===
  0x774e	mov    	eax, dword ptr [ebp + 0x67]
  0x7751	inc    	ebp
  0x7752	test   	bh, bh
  0x7754	je     	0x775f
  === BLOCK LINK ===
    0x7756
=== CODE BLOCK END ===

=== CODE BLOCK ADDRESS 0x7756 ===
  0x7756	test   	edi, edi
  0x7758	je     	0x779f
  === BLOCK LINK ===
    0x775a
=== CODE BLOCK END ===

=== CODE BLOCK ADDRESS 0x775a ===
  0x775a	cmp    	edi, 0x35
  0x775d	je     	0x779f
  === BLOCK LINK ===
    0x775f
=== CODE BLOCK END ===

=== CODE BLOCK ADDRESS 0x775f ===
  0x775f	dec    	esp
  0x7760	mov    	dword ptr [esp + 0x30], ebx
  0x7764	dec    	eax
  0x7765	lea    	ecx, [ebp - 1]
  0x7768	dec    	eax
  === BLOCK LINK ===
    0x7769
=== CODE BLOCK END ===

=== CODE BLOCK ADDRESS 0x7769 ===
  0x7769	mov    	dword ptr [esp + 0x28], ecx
  0x776d	dec    	esp
  0x776e	lea    	eax, [ebp - 0x19]
  0x7771	dec    	eax
  0x7772	lea    	ecx, [ebp + 0x7f]
  === BLOCK LINK ===
    0x7775
=== CODE BLOCK END ===

=== CODE BLOCK ADDRESS 0x7775 ===
  0x7775	inc    	ecx
  0x7776	or     	ecx, 0xffffffff
  0x7779	dec    	eax
  0x777a	mov    	dword ptr [esp + 0x20], ecx
  0x777e	mov    	edx, 1
  === BLOCK LINK ===
    0x7783
=== CODE BLOCK END ===

=== CODE BLOCK ADDRESS 0x7783 ===
  0x7783	dec    	eax
  0x7784	mov    	ecx, eax
  0x7786	dec    	eax
  0x7787	call   	dword ptr [0x3e6b]
  === BLOCK LINK ===
    0x778d
=== CODE BLOCK END ===

=== CODE BLOCK ADDRESS 0x778d ===
  0x778d	nop    	dword ptr [eax + eax]
  0x7792	inc    	ebp
  0x7793	xor    	ebx, ebx
  0x7795	mov    	edi, eax
  0x7797	inc    	ecx
  === BLOCK LINK ===
    0x7798
=== CODE BLOCK END ===

=== CODE BLOCK ADDRESS 0x7798 ===
  0x7798	mov    	bl, bl
  0x779a	mov    	byte ptr [ebp + 0x77], bl
  0x779d	jmp    	0x77a2
  === BLOCK LINK ===
    0x779f
=== CODE BLOCK END ===

=== CODE BLOCK ADDRESS 0x779f ===
  0x779f	mov    	bl, byte ptr [ebp + 0x77]
  0x77a2	mov    	eax, 0xea
  0x77a7	cmp    	edi, eax
  0x77a9	je     	0x77c3
  === BLOCK LINK ===
    0x77ab
=== CODE BLOCK END ===

=== CODE BLOCK ADDRESS 0x77ab ===
  0x77ab	test   	edi, edi
  0x77ad	je     	0x77c3
  === BLOCK LINK ===
    0x77af
=== CODE BLOCK END ===

=== CODE BLOCK ADDRESS 0x77af ===
  0x77af	xor    	edx, edx
  0x77b1	mov    	ecx, edi
  0x77b3	call   	0x7ea4
  === BLOCK LINK ===
    0x77b8
=== CODE BLOCK END ===

=== CODE BLOCK ADDRESS 0x77b8 ===
  0x77b8	mov    	ecx, 2
  0x77bd	call   	0x8378
  === BLOCK LINK ===
    0x77c2
=== CODE BLOCK END ===

=== CODE BLOCK ADDRESS 0x77c2 ===
  0x77c2	int3   	
  0x77c3	cmp    	edi, eax
  0x77c5	inc    	ecx
  0x77c6	mov    	ecx, ebx
  0x77c8	mov    	eax, dword ptr [ebp + 0x7f]
  === BLOCK LINK ===
    0x77cb
=== CODE BLOCK END ===

=== CODE BLOCK ADDRESS 0x77cb ===
  0x77cb	sete   	cl
  0x77ce	mov    	dword ptr [ebp + 0xb], ecx
  0x77d1	test   	eax, eax
  0x77d3	je     	0x7e24
  === BLOCK LINK ===
    0x77d9
=== CODE BLOCK END ===

=== CODE BLOCK ADDRESS 0x77d9 ===
  0x77d9	dec    	eax
  0x77da	mov    	esi, dword ptr [ebp - 0x19]
  0x77dd	inc    	ebp
  0x77de	mov    	esi, ebx
  0x77e0	inc    	esp
  === BLOCK LINK ===
    0x77e1
=== CODE BLOCK END ===

=== CODE BLOCK ADDRESS 0x77e1 ===
  0x77e1	mov    	edi, dword ptr [ebp - 0x11]
  0x77e4	inc    	esp
  0x77e5	cmp    	byte ptr [ebp + 0x6f], bl
  0x77e8	jne    	0x7811
  === BLOCK LINK ===
    0x77ea
=== CODE BLOCK END ===

=== CODE BLOCK ADDRESS 0x77ea ===
  0x77ea	dec    	eax
  0x77eb	mov    	ecx, dword ptr [esi]
  0x77ed	mov    	edx, 0x24
  0x77f2	dec    	eax
  0x77f3	call   	dword ptr [0x3caf]
  === BLOCK LINK ===
    0x77f9
=== CODE BLOCK END ===

=== CODE BLOCK ADDRESS 0x77f9 ===
  0x77f9	nop    	dword ptr [eax + eax]
  0x77fe	inc    	ebp
  0x77ff	xor    	ebx, ebx
  0x7801	dec    	eax
  0x7802	test   	eax, eax
  === BLOCK LINK ===
    0x7804
=== CODE BLOCK END ===

=== CODE BLOCK ADDRESS 0x7804 ===
  0x7804	je     	0x7811
  === BLOCK LINK ===
    0x7806
=== CODE BLOCK END ===

=== CODE BLOCK ADDRESS 0x7806 ===
  0x7806	inc    	sp
  0x7808	cmp    	dword ptr [eax + 2], ebx
  0x780b	je     	0x79c2
  === BLOCK LINK ===
    0x7811
=== CODE BLOCK END ===

=== CODE BLOCK ADDRESS 0x7811 ===
  0x7811	dec    	eax
  0x7812	mov    	ecx, dword ptr [esi]
  0x7814	call   	0x8620
  === BLOCK LINK ===
    0x7819
=== CODE BLOCK END ===

=== CODE BLOCK ADDRESS 0x7819 ===
  0x7819	inc    	esp
  0x781a	mov    	esp, dword ptr [ebp - 9]
  0x781d	inc    	ecx
  0x781e	cmp    	eax, esp
  0x7820	inc    	esp
  === BLOCK LINK ===
    0x7821
=== CODE BLOCK END ===

=== CODE BLOCK ADDRESS 0x7821 ===
  0x7821	cmovg  	esp, eax
  0x7824	mov    	eax, dword ptr [esi + 8]
  0x7827	xor    	ebx, ebx
  0x7829	inc    	esp
  0x782a	mov    	dword ptr [ebp - 9], esp
  === BLOCK LINK ===
    0x782d
=== CODE BLOCK END ===

=== CODE BLOCK ADDRESS 0x782d ===
  0x782d	and    	eax, 0x3fffffff
  0x7832	je     	0x7867
  === BLOCK LINK ===
    0x7834
=== CODE BLOCK END ===

=== CODE BLOCK ADDRESS 0x7834 ===
  0x7834	sub    	eax, 1
  0x7837	je     	0x785e
  === BLOCK LINK ===
    0x7839
=== CODE BLOCK END ===

=== CODE BLOCK ADDRESS 0x7839 ===
  0x7839	sub    	eax, 1
  0x783c	je     	0x7855
  === BLOCK LINK ===
    0x783e
=== CODE BLOCK END ===

=== CODE BLOCK ADDRESS 0x783e ===
  0x783e	cmp    	eax, 1
  0x7841	je     	0x784c
  === BLOCK LINK ===
    0x7843
=== CODE BLOCK END ===

=== CODE BLOCK ADDRESS 0x7843 ===
  0x7843	dec    	eax
  0x7844	mov    	ecx, dword ptr [0x6cde]
  0x784a	jmp    	0x786e
  === BLOCK LINK ===
    0x784c
=== CODE BLOCK END ===

=== CODE BLOCK ADDRESS 0x784c ===
  0x784c	dec    	eax
  0x784d	mov    	ecx, dword ptr [0x6cc5]
  0x7853	jmp    	0x786e
  === BLOCK LINK ===
    0x7855
=== CODE BLOCK END ===

=== CODE BLOCK ADDRESS 0x7855 ===
  0x7855	dec    	eax
  0x7856	mov    	ecx, dword ptr [0x6c9c]
  0x785c	jmp    	0x786e
  === BLOCK LINK ===
    0x785e
=== CODE BLOCK END ===

=== CODE BLOCK ADDRESS 0x785e ===
  0x785e	dec    	eax
  0x785f	mov    	ecx, dword ptr [0x6ca3]
  0x7865	jmp    	0x786e
  === BLOCK LINK ===
    0x7867
=== CODE BLOCK END ===

=== CODE BLOCK ADDRESS 0x7867 ===
  0x7867	dec    	eax
  0x7868	mov    	ecx, dword ptr [0x6c7a]
  0x786e	call   	0x8620
  === BLOCK LINK ===
    0x7873
=== CODE BLOCK END ===

=== CODE BLOCK ADDRESS 0x7873 ===
  0x7873	cmp    	eax, dword ptr [ebp - 0x21]
  0x7876	inc    	esp
  0x7877	mov    	ebp, eax
  0x7879	mov    	edi, eax
  0x787b	dec    	eax
  === BLOCK LINK ===
    0x787c
=== CODE BLOCK END ===

=== CODE BLOCK ADDRESS 0x787c ===
  0x787c	mov    	eax, dword ptr [esi]
  0x787e	inc    	esp
  0x787f	cmovle  	ebp, dword ptr [ebp - 0x21]
  0x7883	dec    	eax
  0x7884	or     	edx, 0xffffffff
  === BLOCK LINK ===
    0x7887
=== CODE BLOCK END ===

=== CODE BLOCK ADDRESS 0x7887 ===
  0x7887	dec    	eax
  0x7888	mov    	ecx, edx
  0x788a	inc    	esp
  0x788b	mov    	dword ptr [ebp - 0x21], ebp
  0x788e	dec    	eax
  === BLOCK LINK ===
    0x788f
=== CODE BLOCK END ===

=== CODE BLOCK ADDRESS 0x788f ===
  0x788f	inc    	ecx
  0x7891	cmp    	word ptr [eax + ecx*2], bx
  0x7895	jne    	0x788e
  === BLOCK LINK ===
    0x7897
=== CODE BLOCK END ===

=== CODE BLOCK ADDRESS 0x7897 ===
  0x7897	dec    	eax
  0x7898	mov    	eax, edx
  0x789a	dec    	eax
  0x789b	mov    	edx, dword ptr [ebp + 0x67]
  0x789e	dec    	eax
  === BLOCK LINK ===
    0x789f
=== CODE BLOCK END ===

=== CODE BLOCK ADDRESS 0x789f ===
  0x789f	inc    	eax
  0x78a1	cmp    	word ptr [edx + eax*2], bx
  0x78a5	jne    	0x789e
  === BLOCK LINK ===
    0x78a7
=== CODE BLOCK END ===

=== CODE BLOCK ADDRESS 0x78a7 ===
  0x78a7	lea    	ebx, [eax + 2]
  0x78aa	add    	ebx, ecx
  0x78ac	dec    	eax
  0x78ad	lea    	edx, [ebp - 0x29]
  0x78b0	lea    	ecx, [ebx + ebx]
  === BLOCK LINK ===
    0x78b3
=== CODE BLOCK END ===

=== CODE BLOCK ADDRESS 0x78b3 ===
  0x78b3	dec    	eax
  0x78b4	call   	dword ptr [0x3d06]
  === BLOCK LINK ===
    0x78ba
=== CODE BLOCK END ===

=== CODE BLOCK ADDRESS 0x78ba ===
  0x78ba	nop    	dword ptr [eax + eax]
  0x78bf	test   	eax, eax
  0x78c1	jne    	0x7e10
  === BLOCK LINK ===
    0x78c7
=== CODE BLOCK END ===

=== CODE BLOCK ADDRESS 0x78c7 ===
  0x78c7	dec    	esp
  0x78c8	mov    	eax, dword ptr [ebp + 0x67]
  0x78cb	dec    	eax
  0x78cc	mov    	ecx, dword ptr [ebp - 0x29]
  0x78cf	dec    	eax
  === BLOCK LINK ===
    0x78d0
=== CODE BLOCK END ===

=== CODE BLOCK ADDRESS 0x78d0 ===
  0x78d0	arpl   	bx, bx
  0x78d2	dec    	eax
  0x78d3	mov    	edx, ebx
  0x78d5	dec    	eax
  0x78d6	call   	dword ptr [0x3c64]
  === BLOCK LINK ===
    0x78dc
=== CODE BLOCK END ===

=== CODE BLOCK ADDRESS 0x78dc ===
  0x78dc	nop    	dword ptr [eax + eax]
  0x78e1	dec    	eax
  0x78e2	mov    	ecx, dword ptr [ebp - 0x29]
  0x78e5	dec    	esp
  0x78e6	lea    	eax, [0x459c]
  === BLOCK LINK ===
    0x78ec
=== CODE BLOCK END ===

=== CODE BLOCK ADDRESS 0x78ec ===
  0x78ec	dec    	eax
  0x78ed	mov    	edx, ebx
  0x78ef	dec    	eax
  0x78f0	call   	dword ptr [0x3c42]
  === BLOCK LINK ===
    0x78f6
=== CODE BLOCK END ===

=== CODE BLOCK ADDRESS 0x78f6 ===
  0x78f6	nop    	dword ptr [eax + eax]
  0x78fb	dec    	esp
  0x78fc	mov    	eax, dword ptr [esi]
  0x78fe	dec    	eax
  0x78ff	mov    	edx, ebx
  === BLOCK LINK ===
    0x7901
=== CODE BLOCK END ===

=== CODE BLOCK ADDRESS 0x7901 ===
  0x7901	dec    	eax
  0x7902	mov    	ecx, dword ptr [ebp - 0x29]
  0x7905	dec    	eax
  0x7906	call   	dword ptr [0x3c2c]
  === BLOCK LINK ===
    0x790c
=== CODE BLOCK END ===

=== CODE BLOCK ADDRESS 0x790c ===
  0x790c	nop    	dword ptr [eax + eax]
  0x7911	dec    	eax
  0x7912	mov    	ecx, dword ptr [ebp - 0x29]
  0x7915	call   	0x7098
  === BLOCK LINK ===
    0x791a
=== CODE BLOCK END ===

=== CODE BLOCK ADDRESS 0x791a ===
  0x791a	test   	eax, eax
  0x791c	jne    	0x7937
  === BLOCK LINK ===
    0x791e
=== CODE BLOCK END ===

=== CODE BLOCK ADDRESS 0x791e ===
  0x791e	dec    	eax
  0x791f	lea    	ecx, [0xda5b]
  0x7925	call   	0x8620
  === BLOCK LINK ===
    0x792a
=== CODE BLOCK END ===

=== CODE BLOCK ADDRESS 0x792a ===
  0x792a	mov    	edi, eax
  0x792c	mov    	eax, dword ptr [ebp - 0x1d]
  0x792f	cmp    	edi, eax
  0x7931	cmovg  	eax, edi
  0x7934	mov    	dword ptr [ebp - 0x1d], eax
  === BLOCK LINK ===
    0x7937
=== CODE BLOCK END ===

=== CODE BLOCK ADDRESS 0x7937 ===
  0x7937	dec    	eax
  0x7938	mov    	ecx, dword ptr [ebp - 0x29]
  0x793b	dec    	eax
  0x793c	call   	dword ptr [0x3c76]
  === BLOCK LINK ===
    0x7942
=== CODE BLOCK END ===

=== CODE BLOCK ADDRESS 0x7942 ===
  0x7942	nop    	dword ptr [eax + eax]
  0x7947	mov    	bl, byte ptr [ebp + 0x77]
  0x794a	inc    	ebp
  0x794b	xor    	ebx, ebx
  0x794d	dec    	esp
  === BLOCK LINK ===
    0x794e
=== CODE BLOCK END ===

=== CODE BLOCK ADDRESS 0x794e ===
  0x794e	mov    	dword ptr [ebp - 0x29], ebx
  0x7951	cmp    	bl, 1
  0x7954	jne    	0x79a3
  === BLOCK LINK ===
    0x7956
=== CODE BLOCK END ===

=== CODE BLOCK ADDRESS 0x7956 ===
  0x7956	mov    	eax, dword ptr [esi + 0x18]
  0x7959	and    	eax, 0x2030
  0x795e	je     	0x799a
  === BLOCK LINK ===
    0x7960
=== CODE BLOCK END ===

=== CODE BLOCK ADDRESS 0x7960 ===
  0x7960	cmp    	eax, 0x10
  0x7963	je     	0x7991
  === BLOCK LINK ===
    0x7965
=== CODE BLOCK END ===

=== CODE BLOCK ADDRESS 0x7965 ===
  0x7965	cmp    	eax, 0x20
  0x7968	je     	0x7988
  === BLOCK LINK ===
    0x796a
=== CODE BLOCK END ===

=== CODE BLOCK ADDRESS 0x796a ===
  0x796a	cmp    	eax, 0x30
  0x796d	je     	0x797f
  === BLOCK LINK ===
    0x796f
=== CODE BLOCK END ===

=== CODE BLOCK ADDRESS 0x796f ===
  0x796f	cmp    	eax, 0x2000
  0x7974	jne    	0x79b1
  === BLOCK LINK ===
    0x7976
=== CODE BLOCK END ===

=== CODE BLOCK ADDRESS 0x7976 ===
  0x7976	dec    	eax
  0x7977	mov    	ecx, dword ptr [0x6beb]
  0x797d	jmp    	0x79a7
  === BLOCK LINK ===
    0x797f
=== CODE BLOCK END ===

=== CODE BLOCK ADDRESS 0x797f ===
  0x797f	dec    	eax
  0x7980	mov    	ecx, dword ptr [0x6bf2]
  0x7986	jmp    	0x79a7
  === BLOCK LINK ===
    0x7988
=== CODE BLOCK END ===

=== CODE BLOCK ADDRESS 0x7988 ===
  0x7988	dec    	eax
  0x7989	mov    	ecx, dword ptr [0x6bc9]
  0x798f	jmp    	0x79a7
  === BLOCK LINK ===
    0x7991
=== CODE BLOCK END ===

=== CODE BLOCK ADDRESS 0x7991 ===
  0x7991	dec    	eax
  0x7992	mov    	ecx, dword ptr [0x6bb0]
  0x7998	jmp    	0x79a7
  === BLOCK LINK ===
    0x799a
=== CODE BLOCK END ===

=== CODE BLOCK ADDRESS 0x799a ===
  0x799a	dec    	eax
  0x799b	mov    	ecx, dword ptr [0x6b97]
  0x79a1	jmp    	0x79a7
  === BLOCK LINK ===
    0x79a3
=== CODE BLOCK END ===

=== CODE BLOCK ADDRESS 0x79a3 ===
  0x79a3	dec    	eax
  0x79a4	mov    	ecx, dword ptr [esi + 0x10]
  0x79a7	call   	0x8620
  === BLOCK LINK ===
    0x79ac
=== CODE BLOCK END ===

=== CODE BLOCK ADDRESS 0x79ac ===
  0x79ac	inc    	ebp
  0x79ad	xor    	ebx, ebx
  0x79af	mov    	edi, eax
  0x79b1	inc    	ecx
  0x79b2	cmp    	edi, edi
  === BLOCK LINK ===
    0x79b4
=== CODE BLOCK END ===

=== CODE BLOCK ADDRESS 0x79b4 ===
  0x79b4	jle    	0x79ca
  === BLOCK LINK ===
    0x79b6
=== CODE BLOCK END ===

=== CODE BLOCK ADDRESS 0x79b6 ===
  0x79b6	mov    	dword ptr [ebp - 0x11], edi
  0x79b9	inc    	esp
  0x79ba	mov    	edi, edi
  0x79bc	inc    	esp
  0x79bd	mov    	dword ptr [ebp - 0x21], ebp
  === BLOCK LINK ===
    0x79c0
=== CODE BLOCK END ===

=== CODE BLOCK ADDRESS 0x79c0 ===
  0x79c0	jmp    	0x79ca
  === BLOCK LINK ===
    0x79c2
=== CODE BLOCK END ===

=== CODE BLOCK ADDRESS 0x79c2 ===
  0x79c2	inc    	esp
  0x79c3	mov    	esp, dword ptr [ebp - 9]
  0x79c6	inc    	esp
  0x79c7	mov    	ebp, dword ptr [ebp - 0x21]
  0x79ca	movzx  	eax, bl
  === BLOCK LINK ===
    0x79cd
=== CODE BLOCK END ===

=== CODE BLOCK ADDRESS 0x79cd ===
  0x79cd	inc    	ecx
  0x79ce	inc    	esi
  0x79d0	dec    	eax
  0x79d1	lea    	esi, [esi + eax*8]
  0x79d4	dec    	eax
  === BLOCK LINK ===
    0x79d5
=== CODE BLOCK END ===

=== CODE BLOCK ADDRESS 0x79d5 ===
  0x79d5	add    	esi, 0x18
  0x79d8	inc    	esp
  0x79d9	cmp    	esi, dword ptr [ebp + 0x7f]
  0x79dc	jb     	0x77e4
  === BLOCK LINK ===
    0x79e2
=== CODE BLOCK END ===

=== CODE BLOCK ADDRESS 0x79e2 ===
  0x79e2	inc    	ebp
  0x79e3	test   	esp, esp
  0x79e5	je     	0x7e24
  === BLOCK LINK ===
    0x79eb
=== CODE BLOCK END ===

=== CODE BLOCK ADDRESS 0x79eb ===
  0x79eb	mov    	edx, dword ptr [ebp + 0x7f]
  0x79ee	dec    	esp
  0x79ef	lea    	ecx, [0xfffff68b]
  0x79f5	dec    	eax
  0x79f6	mov    	ecx, dword ptr [ebp - 0x19]
  === BLOCK LINK ===
    0x79f9
=== CODE BLOCK END ===

=== CODE BLOCK ADDRESS 0x79f9 ===
  0x79f9	movzx  	eax, bl
  0x79fc	dec    	eax
  0x79fd	lea    	eax, [eax*8 + 0x18]
  0x7a04	dec    	esp
  0x7a05	mov    	eax, eax
  === BLOCK LINK ===
    0x7a07
=== CODE BLOCK END ===

=== CODE BLOCK ADDRESS 0x7a07 ===
  0x7a07	dec    	eax
  0x7a08	mov    	dword ptr [ebp + 0xf], eax
  0x7a0b	dec    	eax
  0x7a0c	call   	dword ptr [0x3a6e]
  === BLOCK LINK ===
    0x7a12
=== CODE BLOCK END ===

=== CODE BLOCK ADDRESS 0x7a12 ===
  0x7a12	nop    	dword ptr [eax + eax]
  0x7a17	dec    	eax
  0x7a18	mov    	esi, dword ptr [ebp + 0x67]
  0x7a1b	dec    	eax
  0x7a1c	lea    	eax, [ebp - 9]
  === BLOCK LINK ===
    0x7a1f
=== CODE BLOCK END ===

=== CODE BLOCK ADDRESS 0x7a1f ===
  0x7a1f	dec    	eax
  0x7a20	mov    	ebx, dword ptr [0xb94a]
  0x7a26	dec    	esp
  0x7a27	lea    	edi, [0x3c8b]
  0x7a2d	dec    	eax
  === BLOCK LINK ===
    0x7a2e
=== CODE BLOCK END ===

=== CODE BLOCK ADDRESS 0x7a2e ===
  0x7a2e	mov    	dword ptr [esp + 0x30], eax
  0x7a32	dec    	eax
  0x7a33	lea    	edi, [0xfec7]
  0x7a39	inc    	ecx
  0x7a3a	mov    	esi, 0x800
  === BLOCK LINK ===
    0x7a3f
=== CODE BLOCK END ===

=== CODE BLOCK ADDRESS 0x7a3f ===
  0x7a3f	dec    	esp
  0x7a40	mov    	dword ptr [esp + 0x28], edi
  0x7a44	inc    	ebp
  0x7a45	mov    	ecx, esi
  0x7a47	mov    	dword ptr [esp + 0x20], 0x1119
  === BLOCK LINK ===
    0x7a4f
=== CODE BLOCK END ===

=== CODE BLOCK ADDRESS 0x7a4f ===
  0x7a4f	dec    	esp
  0x7a50	mov    	eax, edi
  0x7a52	dec    	eax
  0x7a53	mov    	dword ptr [0xe9c7], esi
  0x7a59	mov    	edx, 1
  === BLOCK LINK ===
    0x7a5e
=== CODE BLOCK END ===

=== CODE BLOCK ADDRESS 0x7a5e ===
  0x7a5e	dec    	eax
  0x7a5f	lea    	ecx, [0xe9bb]
  0x7a65	call   	0xa030
  === BLOCK LINK ===
    0x7a6a
=== CODE BLOCK END ===

=== CODE BLOCK ADDRESS 0x7a6a ===
  0x7a6a	test   	eax, eax
  0x7a6c	inc    	ecx
  0x7a6d	mov    	eax, 1
  0x7a72	dec    	eax
  0x7a73	mov    	edx, edi
  === BLOCK LINK ===
    0x7a75
=== CODE BLOCK END ===

=== CODE BLOCK ADDRESS 0x7a75 ===
  0x7a75	dec    	eax
  0x7a76	cmovne  	ebx, dword ptr [0xb8eb]
  0x7a7d	dec    	eax
  0x7a7e	mov    	ecx, ebx
  0x7a80	call   	0xa244
  === BLOCK LINK ===
    0x7a85
=== CODE BLOCK END ===

=== CODE BLOCK ADDRESS 0x7a85 ===
  0x7a85	dec    	esp
  0x7a86	lea    	eax, [ebp - 9]
  0x7a89	mov    	edx, 0x65
  0x7a8e	dec    	eax
  0x7a8f	mov    	ecx, esi
  === BLOCK LINK ===
    0x7a91
=== CODE BLOCK END ===

=== CODE BLOCK ADDRESS 0x7a91 ===
  0x7a91	dec    	eax
  0x7a92	call   	dword ptr [0x3b58]
  === BLOCK LINK ===
    0x7a98
=== CODE BLOCK END ===

=== CODE BLOCK ADDRESS 0x7a98 ===
  0x7a98	nop    	dword ptr [eax + eax]
  0x7a9d	xor    	ecx, ecx
  0x7a9f	test   	eax, eax
  0x7aa1	je     	0x7aa9
  === BLOCK LINK ===
    0x7aa3
=== CODE BLOCK END ===

=== CODE BLOCK ADDRESS 0x7aa3 ===
  0x7aa3	dec    	eax
  0x7aa4	mov    	ebx, dword ptr [ebp + 0x6f]
  0x7aa7	jmp    	0x7ac2
  === BLOCK LINK ===
    0x7aa9
=== CODE BLOCK END ===

=== CODE BLOCK ADDRESS 0x7aa9 ===
  0x7aa9	dec    	eax
  0x7aaa	mov    	eax, dword ptr [ebp - 9]
  0x7aad	movups  	xmm0, xmmword ptr [eax + 8]
  0x7ab1	movups  	xmmword ptr [eax], xmm0
  0x7ab4	movups  	xmm1, xmmword ptr [eax + 0x18]
  === BLOCK LINK ===
    0x7ab8
=== CODE BLOCK END ===

=== CODE BLOCK ADDRESS 0x7ab8 ===
  0x7ab8	movups  	xmmword ptr [eax + 0x10], xmm1
  0x7abc	dec    	eax
  0x7abd	mov    	ebx, dword ptr [ebp - 9]
  0x7ac0	mov    	eax, ecx
  0x7ac2	test   	eax, eax
  === BLOCK LINK ===
    0x7ac4
=== CODE BLOCK END ===

=== CODE BLOCK ADDRESS 0x7ac4 ===
  0x7ac4	je     	0x7ad6
  === BLOCK LINK ===
    0x7ac6
=== CODE BLOCK END ===

=== CODE BLOCK ADDRESS 0x7ac6 ===
  0x7ac6	xor    	edx, edx
  0x7ac8	dec    	eax
  0x7ac9	lea    	ecx, [0x3bf9]
  0x7acf	call   	0x86c8
  === BLOCK LINK ===
    0x7ad4
=== CODE BLOCK END ===

=== CODE BLOCK ADDRESS 0x7ad4 ===
  0x7ad4	jmp    	0x7af5
  === BLOCK LINK ===
    0x7ad6
=== CODE BLOCK END ===

=== CODE BLOCK ADDRESS 0x7ad6 ===
  0x7ad6	dec    	eax
  0x7ad7	mov    	edx, dword ptr [ebx + 0x18]
  0x7ada	dec    	eax
  0x7adb	lea    	ecx, [0x43af]
  0x7ae1	call   	0x86c8
  === BLOCK LINK ===
    0x7ae6
=== CODE BLOCK END ===

=== CODE BLOCK ADDRESS 0x7ae6 ===
  0x7ae6	dec    	eax
  0x7ae7	mov    	ecx, ebx
  0x7ae9	dec    	eax
  0x7aea	call   	dword ptr [0x3ac8]
  === BLOCK LINK ===
    0x7af0
=== CODE BLOCK END ===

=== CODE BLOCK ADDRESS 0x7af0 ===
  0x7af0	nop    	dword ptr [eax + eax]
  0x7af5	mov    	edx, 0x1288
  0x7afa	inc    	ecx
  0x7afb	mov    	ecx, esp
  0x7afd	call   	0xa2c8
  === BLOCK LINK ===
    0x7b02
=== CODE BLOCK END ===

=== CODE BLOCK ADDRESS 0x7b02 ===
  0x7b02	mov    	edx, 0x1289
  0x7b07	mov    	dword ptr [ebp - 9], eax
  0x7b0a	inc    	ecx
  0x7b0b	mov    	ecx, ebp
  0x7b0d	inc    	esp
  === BLOCK LINK ===
    0x7b0e
=== CODE BLOCK END ===

=== CODE BLOCK ADDRESS 0x7b0e ===
  0x7b0e	mov    	esp, eax
  0x7b10	call   	0xa2c8
  === BLOCK LINK ===
    0x7b15
=== CODE BLOCK END ===

=== CODE BLOCK ADDRESS 0x7b15 ===
  0x7b15	mov    	ecx, dword ptr [ebp - 0x1d]
  0x7b18	mov    	edx, 0x128a
  0x7b1d	mov    	esi, eax
  0x7b1f	mov    	dword ptr [ebp - 0x21], eax
  0x7b22	call   	0xa2c8
  === BLOCK LINK ===
    0x7b27
=== CODE BLOCK END ===

=== CODE BLOCK ADDRESS 0x7b27 ===
  0x7b27	mov    	ecx, dword ptr [ebp - 0x11]
  0x7b2a	mov    	edx, 0x128b
  0x7b2f	inc    	esp
  0x7b30	mov    	ebp, eax
  0x7b32	call   	0xa2c8
  === BLOCK LINK ===
    0x7b37
=== CODE BLOCK END ===

=== CODE BLOCK ADDRESS 0x7b37 ===
  0x7b37	xor    	edx, edx
  0x7b39	mov    	dword ptr [ebp - 0x1d], eax
  0x7b3c	dec    	eax
  0x7b3d	lea    	ecx, [0x3b85]
  0x7b43	mov    	ebx, eax
  === BLOCK LINK ===
    0x7b45
=== CODE BLOCK END ===

=== CODE BLOCK ADDRESS 0x7b45 ===
  0x7b45	call   	0x86c8
  === BLOCK LINK ===
    0x7b4a
=== CODE BLOCK END ===

=== CODE BLOCK ADDRESS 0x7b4a ===
  0x7b4a	inc    	ecx
  0x7b4b	cmp    	esp, -1
  0x7b4e	je     	0x7dfb
  === BLOCK LINK ===
    0x7b54
=== CODE BLOCK END ===

=== CODE BLOCK ADDRESS 0x7b54 ===
  0x7b54	cmp    	esi, -1
  0x7b57	je     	0x7dfb
  === BLOCK LINK ===
    0x7b5d
=== CODE BLOCK END ===

=== CODE BLOCK ADDRESS 0x7b5d ===
  0x7b5d	inc    	ecx
  0x7b5e	cmp    	ebp, -1
  0x7b61	je     	0x7dfb
  === BLOCK LINK ===
    0x7b67
=== CODE BLOCK END ===

=== CODE BLOCK ADDRESS 0x7b67 ===
  0x7b67	cmp    	ebx, -1
  0x7b6a	je     	0x7dfb
  === BLOCK LINK ===
    0x7b70
=== CODE BLOCK END ===

=== CODE BLOCK ADDRESS 0x7b70 ===
  0x7b70	xor    	edx, edx
  0x7b72	dec    	eax
  0x7b73	lea    	ecx, [0x3b4f]
  0x7b79	call   	0x86c8
  === BLOCK LINK ===
    0x7b7e
=== CODE BLOCK END ===

=== CODE BLOCK ADDRESS 0x7b7e ===
  0x7b7e	xor    	edx, edx
  0x7b80	dec    	eax
  0x7b81	lea    	ecx, [0x3e39]
  0x7b87	call   	0x86c8
  === BLOCK LINK ===
    0x7b8c
=== CODE BLOCK END ===

=== CODE BLOCK ADDRESS 0x7b8c ===
  0x7b8c	dec    	eax
  0x7b8d	mov    	esi, dword ptr [ebp - 0x19]
  0x7b90	xor    	ebx, ebx
  0x7b92	inc    	esp
  0x7b93	mov    	esp, ebx
  === BLOCK LINK ===
    0x7b95
=== CODE BLOCK END ===

=== CODE BLOCK ADDRESS 0x7b95 ===
  0x7b95	cmp    	dword ptr [ebp + 0x7f], ebx
  0x7b98	jbe    	0x7d73
  === BLOCK LINK ===
    0x7b9e
=== CODE BLOCK END ===

=== CODE BLOCK ADDRESS 0x7b9e ===
  0x7b9e	cmp    	byte ptr [ebp + 0x6f], bl
  0x7ba1	jne    	0x7bc6
  === BLOCK LINK ===
    0x7ba3
=== CODE BLOCK END ===

=== CODE BLOCK ADDRESS 0x7ba3 ===
  0x7ba3	dec    	eax
  0x7ba4	mov    	ecx, dword ptr [esi]
  0x7ba6	mov    	edx, 0x24
  0x7bab	dec    	eax
  0x7bac	call   	dword ptr [0x38f6]
  === BLOCK LINK ===
    0x7bb2
=== CODE BLOCK END ===

=== CODE BLOCK ADDRESS 0x7bb2 ===
  0x7bb2	nop    	dword ptr [eax + eax]
  0x7bb7	dec    	eax
  0x7bb8	test   	eax, eax
  0x7bba	je     	0x7bc6
  === BLOCK LINK ===
    0x7bbc
=== CODE BLOCK END ===

=== CODE BLOCK ADDRESS 0x7bbc ===
  0x7bbc	cmp    	word ptr [eax + 2], bx
  0x7bc0	je     	0x7d5e
  === BLOCK LINK ===
    0x7bc6
=== CODE BLOCK END ===

=== CODE BLOCK ADDRESS 0x7bc6 ===
  0x7bc6	dec    	eax
  0x7bc7	mov    	edx, dword ptr [esi]
  0x7bc9	mov    	ecx, dword ptr [ebp - 9]
  0x7bcc	call   	0xa490
  === BLOCK LINK ===
    0x7bd1
=== CODE BLOCK END ===

=== CODE BLOCK ADDRESS 0x7bd1 ===
  0x7bd1	mov    	eax, dword ptr [esi + 8]
  0x7bd4	and    	eax, 0x3fffffff
  0x7bd9	je     	0x7c0e
  === BLOCK LINK ===
    0x7bdb
=== CODE BLOCK END ===

=== CODE BLOCK ADDRESS 0x7bdb ===
  0x7bdb	sub    	eax, 1
  0x7bde	je     	0x7c05
  === BLOCK LINK ===
    0x7be0
=== CODE BLOCK END ===

=== CODE BLOCK ADDRESS 0x7be0 ===
  0x7be0	sub    	eax, 1
  0x7be3	je     	0x7bfc
  === BLOCK LINK ===
    0x7be5
=== CODE BLOCK END ===

=== CODE BLOCK ADDRESS 0x7be5 ===
  0x7be5	cmp    	eax, 1
  0x7be8	je     	0x7bf3
  === BLOCK LINK ===
    0x7bea
=== CODE BLOCK END ===

=== CODE BLOCK ADDRESS 0x7bea ===
  0x7bea	dec    	eax
  0x7beb	mov    	edx, dword ptr [0x6937]
  0x7bf1	jmp    	0x7c15
  === BLOCK LINK ===
    0x7bf3
=== CODE BLOCK END ===

=== CODE BLOCK ADDRESS 0x7bf3 ===
  0x7bf3	dec    	eax
  0x7bf4	mov    	edx, dword ptr [0x691e]
  0x7bfa	jmp    	0x7c15
  === BLOCK LINK ===
    0x7bfc
=== CODE BLOCK END ===

=== CODE BLOCK ADDRESS 0x7bfc ===
  0x7bfc	dec    	eax
  0x7bfd	mov    	edx, dword ptr [0x68f5]
  0x7c03	jmp    	0x7c15
  === BLOCK LINK ===
    0x7c05
=== CODE BLOCK END ===

=== CODE BLOCK ADDRESS 0x7c05 ===
  0x7c05	dec    	eax
  0x7c06	mov    	edx, dword ptr [0x68fc]
  0x7c0c	jmp    	0x7c15
  === BLOCK LINK ===
    0x7c0e
=== CODE BLOCK END ===

=== CODE BLOCK ADDRESS 0x7c0e ===
  0x7c0e	dec    	eax
  0x7c0f	mov    	edx, dword ptr [0x68d3]
  0x7c15	mov    	ecx, dword ptr [ebp - 0x21]
  0x7c18	call   	0xa490
  === BLOCK LINK ===
    0x7c1d
=== CODE BLOCK END ===

=== CODE BLOCK ADDRESS 0x7c1d ===
  0x7c1d	dec    	eax
  0x7c1e	mov    	eax, dword ptr [esi]
  0x7c20	dec    	eax
  0x7c21	or     	edx, 0xffffffff
  0x7c24	dec    	eax
  === BLOCK LINK ===
    0x7c25
=== CODE BLOCK END ===

=== CODE BLOCK ADDRESS 0x7c25 ===
  0x7c25	mov    	ecx, edx
  0x7c27	dec    	eax
  0x7c28	inc    	ecx
  0x7c2a	cmp    	word ptr [eax + ecx*2], bx
  0x7c2e	jne    	0x7c27
  === BLOCK LINK ===
    0x7c30
=== CODE BLOCK END ===

=== CODE BLOCK ADDRESS 0x7c30 ===
  0x7c30	dec    	eax
  0x7c31	mov    	eax, edx
  0x7c33	dec    	eax
  0x7c34	mov    	edx, dword ptr [ebp + 0x67]
  0x7c37	dec    	eax
  === BLOCK LINK ===
    0x7c38
=== CODE BLOCK END ===

=== CODE BLOCK ADDRESS 0x7c38 ===
  0x7c38	inc    	eax
  0x7c3a	cmp    	word ptr [edx + eax*2], bx
  0x7c3e	jne    	0x7c37
  === BLOCK LINK ===
    0x7c40
=== CODE BLOCK END ===

=== CODE BLOCK ADDRESS 0x7c40 ===
  0x7c40	lea    	ebx, [eax + 2]
  0x7c43	add    	ebx, ecx
  0x7c45	dec    	eax
  0x7c46	lea    	edx, [ebp - 0x29]
  0x7c49	lea    	ecx, [ebx + ebx]
  === BLOCK LINK ===
    0x7c4c
=== CODE BLOCK END ===

=== CODE BLOCK ADDRESS 0x7c4c ===
  0x7c4c	dec    	eax
  0x7c4d	call   	dword ptr [0x396d]
  === BLOCK LINK ===
    0x7c53
=== CODE BLOCK END ===

=== CODE BLOCK ADDRESS 0x7c53 ===
  0x7c53	nop    	dword ptr [eax + eax]
  0x7c58	test   	eax, eax
  0x7c5a	jne    	0x7de7
  === BLOCK LINK ===
    0x7c60
=== CODE BLOCK END ===

=== CODE BLOCK ADDRESS 0x7c60 ===
  0x7c60	dec    	esp
  0x7c61	mov    	eax, dword ptr [ebp + 0x67]
  0x7c64	dec    	eax
  0x7c65	mov    	ecx, dword ptr [ebp - 0x29]
  0x7c68	dec    	eax
  === BLOCK LINK ===
    0x7c69
=== CODE BLOCK END ===

=== CODE BLOCK ADDRESS 0x7c69 ===
  0x7c69	arpl   	bx, bx
  0x7c6b	dec    	eax
  0x7c6c	mov    	edx, ebx
  0x7c6e	dec    	eax
  0x7c6f	call   	dword ptr [0x38cb]
  === BLOCK LINK ===
    0x7c75
=== CODE BLOCK END ===

=== CODE BLOCK ADDRESS 0x7c75 ===
  0x7c75	nop    	dword ptr [eax + eax]
  0x7c7a	dec    	eax
  0x7c7b	mov    	ecx, dword ptr [ebp - 0x29]
  0x7c7e	dec    	esp
  0x7c7f	lea    	eax, [0x4203]
  === BLOCK LINK ===
    0x7c85
=== CODE BLOCK END ===

=== CODE BLOCK ADDRESS 0x7c85 ===
  0x7c85	dec    	eax
  0x7c86	mov    	edx, ebx
  0x7c88	dec    	eax
  0x7c89	call   	dword ptr [0x38a9]
  === BLOCK LINK ===
    0x7c8f
=== CODE BLOCK END ===

=== CODE BLOCK ADDRESS 0x7c8f ===
  0x7c8f	nop    	dword ptr [eax + eax]
  0x7c94	dec    	esp
  0x7c95	mov    	eax, dword ptr [esi]
  0x7c97	dec    	eax
  0x7c98	mov    	edx, ebx
  === BLOCK LINK ===
    0x7c9a
=== CODE BLOCK END ===

=== CODE BLOCK ADDRESS 0x7c9a ===
  0x7c9a	dec    	eax
  0x7c9b	mov    	ecx, dword ptr [ebp - 0x29]
  0x7c9e	dec    	eax
  0x7c9f	call   	dword ptr [0x3893]
  === BLOCK LINK ===
    0x7ca5
=== CODE BLOCK END ===

=== CODE BLOCK ADDRESS 0x7ca5 ===
  0x7ca5	nop    	dword ptr [eax + eax]
  0x7caa	dec    	eax
  0x7cab	mov    	ecx, dword ptr [ebp - 0x29]
  0x7cae	call   	0x7098
  === BLOCK LINK ===
    0x7cb3
=== CODE BLOCK END ===

=== CODE BLOCK ADDRESS 0x7cb3 ===
  0x7cb3	xor    	ebx, ebx
  0x7cb5	test   	eax, eax
  0x7cb7	je     	0x7cc2
  === BLOCK LINK ===
    0x7cb9
=== CODE BLOCK END ===

=== CODE BLOCK ADDRESS 0x7cb9 ===
  0x7cb9	mov    	dword ptr [ebp + 7], 1
  0x7cc0	jmp    	0x7cd1
  === BLOCK LINK ===
    0x7cc2
=== CODE BLOCK END ===

=== CODE BLOCK ADDRESS 0x7cc2 ===
  0x7cc2	dec    	eax
  0x7cc3	lea    	edx, [0xd6b7]
  0x7cc9	inc    	ecx
  0x7cca	mov    	ecx, ebp
  0x7ccc	call   	0xa490
  === BLOCK LINK ===
    0x7cd1
=== CODE BLOCK END ===

=== CODE BLOCK ADDRESS 0x7cd1 ===
  0x7cd1	dec    	eax
  0x7cd2	mov    	ecx, dword ptr [ebp - 0x29]
  0x7cd5	dec    	eax
  0x7cd6	call   	dword ptr [0x38dc]
  === BLOCK LINK ===
    0x7cdc
=== CODE BLOCK END ===

=== CODE BLOCK ADDRESS 0x7cdc ===
  0x7cdc	nop    	dword ptr [eax + eax]
  0x7ce1	cmp    	byte ptr [ebp + 0x77], 1
  0x7ce5	dec    	eax
  0x7ce6	mov    	dword ptr [ebp - 0x29], ebx
  0x7ce9	jne    	0x7d44
  === BLOCK LINK ===
    0x7ceb
=== CODE BLOCK END ===

=== CODE BLOCK ADDRESS 0x7ceb ===
  0x7ceb	mov    	eax, dword ptr [esi + 0x18]
  0x7cee	and    	eax, 0x2030
  0x7cf3	je     	0x7d2f
  === BLOCK LINK ===
    0x7cf5
=== CODE BLOCK END ===

=== CODE BLOCK ADDRESS 0x7cf5 ===
  0x7cf5	cmp    	eax, 0x10
  0x7cf8	je     	0x7d26
  === BLOCK LINK ===
    0x7cfa
=== CODE BLOCK END ===

=== CODE BLOCK ADDRESS 0x7cfa ===
  0x7cfa	cmp    	eax, 0x20
  0x7cfd	je     	0x7d1d
  === BLOCK LINK ===
    0x7cff
=== CODE BLOCK END ===

=== CODE BLOCK ADDRESS 0x7cff ===
  0x7cff	cmp    	eax, 0x30
  0x7d02	je     	0x7d14
  === BLOCK LINK ===
    0x7d04
=== CODE BLOCK END ===

=== CODE BLOCK ADDRESS 0x7d04 ===
  0x7d04	cmp    	eax, 0x2000
  0x7d09	jne    	0x7d3b
  === BLOCK LINK ===
    0x7d0b
=== CODE BLOCK END ===

=== CODE BLOCK ADDRESS 0x7d0b ===
  0x7d0b	dec    	eax
  0x7d0c	mov    	edx, dword ptr [0x6856]
  0x7d12	jmp    	0x7d36
  === BLOCK LINK ===
    0x7d14
=== CODE BLOCK END ===

=== CODE BLOCK ADDRESS 0x7d14 ===
  0x7d14	dec    	eax
  0x7d15	mov    	edx, dword ptr [0x685d]
  0x7d1b	jmp    	0x7d36
  === BLOCK LINK ===
    0x7d1d
=== CODE BLOCK END ===

=== CODE BLOCK ADDRESS 0x7d1d ===
  0x7d1d	dec    	eax
  0x7d1e	mov    	edx, dword ptr [0x6834]
  0x7d24	jmp    	0x7d36
  === BLOCK LINK ===
    0x7d26
=== CODE BLOCK END ===

=== CODE BLOCK ADDRESS 0x7d26 ===
  0x7d26	dec    	eax
  0x7d27	mov    	edx, dword ptr [0x681b]
  0x7d2d	jmp    	0x7d36
  === BLOCK LINK ===
    0x7d2f
=== CODE BLOCK END ===

=== CODE BLOCK ADDRESS 0x7d2f ===
  0x7d2f	dec    	eax
  0x7d30	mov    	edx, dword ptr [0x6802]
  0x7d36	dec    	eax
  0x7d37	test   	edx, edx
  0x7d39	jne    	0x7d48
  === BLOCK LINK ===
    0x7d3b
=== CODE BLOCK END ===

=== CODE BLOCK ADDRESS 0x7d3b ===
  0x7d3b	dec    	eax
  0x7d3c	lea    	edx, [0x3c32]
  0x7d42	jmp    	0x7d48
  === BLOCK LINK ===
    0x7d44
=== CODE BLOCK END ===

=== CODE BLOCK ADDRESS 0x7d44 ===
  0x7d44	dec    	eax
  0x7d45	mov    	edx, dword ptr [esi + 0x10]
  0x7d48	mov    	ecx, dword ptr [ebp - 0x1d]
  0x7d4b	call   	0xa490
  === BLOCK LINK ===
    0x7d50
=== CODE BLOCK END ===

=== CODE BLOCK ADDRESS 0x7d50 ===
  0x7d50	xor    	edx, edx
  0x7d52	dec    	eax
  0x7d53	lea    	ecx, [0x396f]
  0x7d59	call   	0x86c8
  === BLOCK LINK ===
    0x7d5e
=== CODE BLOCK END ===

=== CODE BLOCK ADDRESS 0x7d5e ===
  0x7d5e	dec    	eax
  0x7d5f	add    	esi, dword ptr [ebp + 0xf]
  0x7d62	inc    	ecx
  0x7d63	inc    	esp
  0x7d65	inc    	esp
  === BLOCK LINK ===
    0x7d66
=== CODE BLOCK END ===

=== CODE BLOCK ADDRESS 0x7d66 ===
  0x7d66	cmp    	esp, dword ptr [ebp + 0x7f]
  0x7d69	jb     	0x7b9e
  === BLOCK LINK ===
    0x7d6f
=== CODE BLOCK END ===

=== CODE BLOCK ADDRESS 0x7d6f ===
  0x7d6f	dec    	eax
  0x7d70	mov    	esi, dword ptr [ebp - 0x19]
  0x7d73	dec    	eax
  0x7d74	mov    	ecx, esi
  0x7d76	dec    	eax
  === BLOCK LINK ===
    0x7d77
=== CODE BLOCK END ===

=== CODE BLOCK ADDRESS 0x7d77 ===
  0x7d77	call   	dword ptr [0x383b]
  === BLOCK LINK ===
    0x7d7d
=== CODE BLOCK END ===

=== CODE BLOCK ADDRESS 0x7d7d ===
  0x7d7d	nop    	dword ptr [eax + eax]
  0x7d82	inc    	esp
  0x7d83	movzx  	esp, word ptr [ebp + 0xb]
  0x7d87	cmp    	word ptr [ebp + 7], bx
  0x7d8b	je     	0x76a4
  === BLOCK LINK ===
    0x7d91
=== CODE BLOCK END ===

=== CODE BLOCK ADDRESS 0x7d91 ===
  0x7d91	dec    	eax
  0x7d92	mov    	ebx, dword ptr [0xb5d8]
  0x7d98	dec    	eax
  0x7d99	lea    	eax, [ebp + 0x6f]
  0x7d9c	dec    	eax
  === BLOCK LINK ===
    0x7d9d
=== CODE BLOCK END ===

=== CODE BLOCK ADDRESS 0x7d9d ===
  0x7d9d	mov    	dword ptr [esp + 0x30], eax
  0x7da1	dec    	eax
  0x7da2	lea    	ecx, [0xe678]
  0x7da8	dec    	esp
  0x7da9	mov    	dword ptr [esp + 0x28], edi
  === BLOCK LINK ===
    0x7dad
=== CODE BLOCK END ===

=== CODE BLOCK ADDRESS 0x7dad ===
  0x7dad	inc    	ebp
  0x7dae	mov    	ecx, esi
  0x7db0	dec    	esp
  0x7db1	mov    	eax, edi
  0x7db3	mov    	dword ptr [esp + 0x20], 0xdb0
  === BLOCK LINK ===
    0x7dbb
=== CODE BLOCK END ===

=== CODE BLOCK ADDRESS 0x7dbb ===
  0x7dbb	xor    	edx, edx
  0x7dbd	call   	0xa030
  === BLOCK LINK ===
    0x7dc2
=== CODE BLOCK END ===

=== CODE BLOCK ADDRESS 0x7dc2 ===
  0x7dc2	test   	eax, eax
  0x7dc4	mov    	esi, 1
  0x7dc9	inc    	esp
  0x7dca	mov    	eax, esi
  0x7dcc	dec    	eax
  === BLOCK LINK ===
    0x7dcd
=== CODE BLOCK END ===

=== CODE BLOCK ADDRESS 0x7dcd ===
  0x7dcd	mov    	edx, edi
  0x7dcf	dec    	eax
  0x7dd0	cmovne  	ebx, dword ptr [0xb591]
  0x7dd7	dec    	eax
  0x7dd8	mov    	ecx, ebx
  === BLOCK LINK ===
    0x7dda
=== CODE BLOCK END ===

=== CODE BLOCK ADDRESS 0x7dda ===
  0x7dda	call   	0xa244
  === BLOCK LINK ===
    0x7ddf
=== CODE BLOCK END ===

=== CODE BLOCK ADDRESS 0x7ddf ===
  0x7ddf	mov    	ecx, esi
  0x7de1	call   	0x8378
  === BLOCK LINK ===
    0x7de6
=== CODE BLOCK END ===

=== CODE BLOCK ADDRESS 0x7de6 ===
  0x7de6	int3   	
  0x7de7	xor    	edx, edx
  0x7de9	mov    	ecx, eax
  0x7deb	call   	0x7ea4
  === BLOCK LINK ===
    0x7df0
=== CODE BLOCK END ===

=== CODE BLOCK ADDRESS 0x7df0 ===
  0x7df0	mov    	ecx, 2
  0x7df5	call   	0x8378
  === BLOCK LINK ===
    0x7dfa
=== CODE BLOCK END ===

=== CODE BLOCK ADDRESS 0x7dfa ===
  0x7dfa	int3   	
  0x7dfb	xor    	edx, edx
  0x7dfd	lea    	ecx, [edx + 0x57]
  0x7e00	call   	0x7ea4
  === BLOCK LINK ===
    0x7e05
=== CODE BLOCK END ===

=== CODE BLOCK ADDRESS 0x7e05 ===
  0x7e05	mov    	ecx, 2
  0x7e0a	call   	0x8378
  === BLOCK LINK ===
    0x7e0f
=== CODE BLOCK END ===

=== CODE BLOCK ADDRESS 0x7e0f ===
  0x7e0f	int3   	
  0x7e10	xor    	edx, edx
  0x7e12	mov    	ecx, eax
  0x7e14	call   	0x7ea4
  === BLOCK LINK ===
    0x7e19
=== CODE BLOCK END ===

=== CODE BLOCK ADDRESS 0x7e19 ===
  0x7e19	mov    	ecx, 2
  0x7e1e	call   	0x8378
  === BLOCK LINK ===
    0x7e23
=== CODE BLOCK END ===

=== CODE BLOCK ADDRESS 0x7e23 ===
  0x7e23	int3   	
  0x7e24	call   	0x7e30
  === BLOCK LINK ===
    0x7e29
=== CODE BLOCK END ===

=== CODE BLOCK ADDRESS 0x7e29 ===
  0x7e29	int3   	
  0x7e2a	int3   	
  0x7e2b	int3   	
  0x7e2c	int3   	
  0x7e2d	int3   	
  === BLOCK LINK ===
    0x7e2e
=== CODE BLOCK END ===

=== CODE BLOCK ADDRESS 0x7e2e ===
  0x7e2e	int3   	
  0x7e2f	int3   	
  0x7e30	inc    	eax
  0x7e31	push   	ebx
  0x7e32	dec    	eax
  === BLOCK LINK ===
    0x7e33
=== CODE BLOCK END ===

=== CODE BLOCK ADDRESS 0x7e33 ===
  0x7e33	sub    	esp, 0x40
  0x7e36	dec    	eax
  0x7e37	mov    	ebx, dword ptr [0xb533]
  0x7e3d	dec    	eax
  0x7e3e	lea    	eax, [esp + 0x50]
  === BLOCK LINK ===
    0x7e42
=== CODE BLOCK END ===

=== CODE BLOCK ADDRESS 0x7e42 ===
  0x7e42	dec    	eax
  0x7e43	mov    	dword ptr [esp + 0x30], eax
  0x7e47	dec    	esp
  0x7e48	lea    	eax, [0xfab2]
  0x7e4e	dec    	eax
  === BLOCK LINK ===
    0x7e4f
=== CODE BLOCK END ===

=== CODE BLOCK ADDRESS 0x7e4f ===
  0x7e4f	lea    	eax, [0x3863]
  0x7e55	inc    	ecx
  0x7e56	mov    	ecx, 0x800
  0x7e5b	dec    	eax
  0x7e5c	mov    	dword ptr [esp + 0x28], eax
  === BLOCK LINK ===
    0x7e60
=== CODE BLOCK END ===

=== CODE BLOCK ADDRESS 0x7e60 ===
  0x7e60	dec    	eax
  0x7e61	lea    	ecx, [0xe5b9]
  0x7e67	xor    	edx, edx
  0x7e69	mov    	dword ptr [esp + 0x20], 0xe63
  0x7e71	call   	0xa030
  === BLOCK LINK ===
    0x7e76
=== CODE BLOCK END ===

=== CODE BLOCK ADDRESS 0x7e76 ===
  0x7e76	test   	eax, eax
  0x7e78	dec    	eax
  0x7e79	lea    	edx, [0xfa81]
  0x7e7f	inc    	ecx
  0x7e80	mov    	eax, 1
  === BLOCK LINK ===
    0x7e85
=== CODE BLOCK END ===

=== CODE BLOCK ADDRESS 0x7e85 ===
  0x7e85	dec    	eax
  0x7e86	cmovne  	ebx, dword ptr [0xb4db]
  0x7e8d	dec    	eax
  0x7e8e	mov    	ecx, ebx
  0x7e90	call   	0xa244
  === BLOCK LINK ===
    0x7e95
=== CODE BLOCK END ===

=== CODE BLOCK ADDRESS 0x7e95 ===
  0x7e95	xor    	ecx, ecx
  0x7e97	call   	0x8378
  === BLOCK LINK ===
    0x7e9c
=== CODE BLOCK END ===

=== CODE BLOCK ADDRESS 0x7e9c ===
  0x7e9c	int3   	
  0x7e9d	int3   	
  0x7e9e	int3   	
  0x7e9f	int3   	
  0x7ea0	int3   	
  === BLOCK LINK ===
    0x7ea1
=== CODE BLOCK END ===

=== CODE BLOCK ADDRESS 0x7ea1 ===
  0x7ea1	int3   	
  0x7ea2	int3   	
  0x7ea3	int3   	
  0x7ea4	dec    	eax
  0x7ea5	mov    	dword ptr [esp + 0x18], ebx
  === BLOCK LINK ===
    0x7ea9
=== CODE BLOCK END ===

=== CODE BLOCK ADDRESS 0x7ea9 ===
  0x7ea9	push   	edi
  0x7eaa	dec    	eax
  0x7eab	sub    	esp, 0xb0
  0x7eb1	dec    	eax
  0x7eb2	mov    	eax, dword ptr [0x63d0]
  === BLOCK LINK ===
    0x7eb8
=== CODE BLOCK END ===

=== CODE BLOCK ADDRESS 0x7eb8 ===
  0x7eb8	dec    	eax
  0x7eb9	xor    	eax, esp
  0x7ebb	dec    	eax
  0x7ebc	mov    	dword ptr [esp + 0xa0], eax
  0x7ec3	xor    	edi, edi
  === BLOCK LINK ===
    0x7ec5
=== CODE BLOCK END ===

=== CODE BLOCK ADDRESS 0x7ec5 ===
  0x7ec5	mov    	dword ptr [0x112e5], ecx
  0x7ecb	lea    	eax, [ecx - 0x834]
  0x7ed1	mov    	ebx, ecx
  0x7ed3	cmp    	eax, 0xed7
  0x7ed8	jbe    	0x7f00
  === BLOCK LINK ===
    0x7eda
=== CODE BLOCK END ===

=== CODE BLOCK ADDRESS 0x7eda ===
  0x7eda	inc    	esp
  0x7edb	lea    	eax, [edi + 0xa]
  0x7ede	dec    	eax
  0x7edf	lea    	edx, [esp + 0x50]
  0x7ee3	dec    	eax
  === BLOCK LINK ===
    0x7ee4
=== CODE BLOCK END ===

=== CODE BLOCK ADDRESS 0x7ee4 ===
  0x7ee4	call   	dword ptr [0x3556]
  === BLOCK LINK ===
    0x7eea
=== CODE BLOCK END ===

=== CODE BLOCK ADDRESS 0x7eea ===
  0x7eea	nop    	dword ptr [eax + eax]
  0x7eef	lea    	edx, [edi + 1]
  0x7ef2	mov    	edi, ebx
  0x7ef4	mov    	ebx, 0xdae
  0x7ef9	dec    	eax
  === BLOCK LINK ===
    0x7efa
=== CODE BLOCK END ===

=== CODE BLOCK ADDRESS 0x7efa ===
  0x7efa	mov    	dword ptr [0xe520], eax
  0x7f00	dec    	eax
  0x7f01	lea    	eax, [esp + 0x40]
  0x7f05	inc    	ecx
  0x7f06	mov    	ecx, 0x800
  === BLOCK LINK ===
    0x7f0b
=== CODE BLOCK END ===

=== CODE BLOCK ADDRESS 0x7f0b ===
  0x7f0b	dec    	eax
  0x7f0c	mov    	dword ptr [esp + 0x30], eax
  0x7f10	dec    	eax
  0x7f11	lea    	ecx, [0xe509]
  0x7f17	dec    	eax
  === BLOCK LINK ===
    0x7f18
=== CODE BLOCK END ===

=== CODE BLOCK ADDRESS 0x7f18 ===
  0x7f18	lea    	eax, [0x379a]
  0x7f1e	dec    	eax
  0x7f1f	mov    	dword ptr [esp + 0x28], eax
  0x7f23	mov    	dword ptr [esp + 0x20], ebx
  0x7f27	dec    	eax
  === BLOCK LINK ===
    0x7f28
=== CODE BLOCK END ===

=== CODE BLOCK ADDRESS 0x7f28 ===
  0x7f28	lea    	ebx, [0xf9d2]
  0x7f2e	dec    	esp
  0x7f2f	mov    	eax, ebx
  0x7f31	call   	0xa030
  === BLOCK LINK ===
    0x7f36
=== CODE BLOCK END ===

=== CODE BLOCK ADDRESS 0x7f36 ===
  0x7f36	dec    	eax
  0x7f37	mov    	ecx, dword ptr [0xb42b]
  0x7f3d	inc    	ecx
  0x7f3e	mov    	eax, 1
  0x7f43	dec    	eax
  === BLOCK LINK ===
    0x7f44
=== CODE BLOCK END ===

=== CODE BLOCK ADDRESS 0x7f44 ===
  0x7f44	mov    	edx, ebx
  0x7f46	call   	0xa244
  === BLOCK LINK ===
    0x7f4b
=== CODE BLOCK END ===

=== CODE BLOCK ADDRESS 0x7f4b ===
  0x7f4b	test   	edi, edi
  0x7f4d	je     	0x7f98
  === BLOCK LINK ===
    0x7f4f
=== CODE BLOCK END ===

=== CODE BLOCK ADDRESS 0x7f4f ===
  0x7f4f	dec    	eax
  0x7f50	lea    	eax, [esp + 0x40]
  0x7f54	inc    	ecx
  0x7f55	mov    	ecx, 0x800
  0x7f5a	dec    	eax
  === BLOCK LINK ===
    0x7f5b
=== CODE BLOCK END ===

=== CODE BLOCK ADDRESS 0x7f5b ===
  0x7f5b	mov    	dword ptr [esp + 0x30], eax
  0x7f5f	dec    	eax
  0x7f60	lea    	ecx, [0x623a]
  0x7f66	dec    	eax
  0x7f67	lea    	eax, [0x3a3b]
  === BLOCK LINK ===
    0x7f6d
=== CODE BLOCK END ===

=== CODE BLOCK ADDRESS 0x7f6d ===
  0x7f6d	dec    	esp
  0x7f6e	mov    	eax, ebx
  0x7f70	dec    	eax
  0x7f71	mov    	dword ptr [esp + 0x28], eax
  0x7f75	mov    	edx, 9
  === BLOCK LINK ===
    0x7f7a
=== CODE BLOCK END ===

=== CODE BLOCK ADDRESS 0x7f7a ===
  0x7f7a	mov    	dword ptr [esp + 0x20], edi
  0x7f7e	call   	0xa030
  === BLOCK LINK ===
    0x7f83
=== CODE BLOCK END ===

=== CODE BLOCK ADDRESS 0x7f83 ===
  0x7f83	dec    	eax
  0x7f84	mov    	ecx, dword ptr [0xb3de]
  0x7f8a	inc    	ecx
  0x7f8b	mov    	eax, 1
  0x7f90	dec    	eax
  === BLOCK LINK ===
    0x7f91
=== CODE BLOCK END ===

=== CODE BLOCK ADDRESS 0x7f91 ===
  0x7f91	mov    	edx, ebx
  0x7f93	call   	0xa244
  === BLOCK LINK ===
    0x7f98
=== CODE BLOCK END ===

=== CODE BLOCK ADDRESS 0x7f98 ===
  0x7f98	dec    	eax
  0x7f99	mov    	ecx, dword ptr [esp + 0xa0]
  0x7fa0	dec    	eax
  0x7fa1	xor    	ecx, esp
  0x7fa3	call   	0x2900
  === BLOCK LINK ===
    0x7fa8
=== CODE BLOCK END ===

=== CODE BLOCK ADDRESS 0x7fa8 ===
  0x7fa8	dec    	eax
  0x7fa9	mov    	ebx, dword ptr [esp + 0xd0]
  0x7fb0	dec    	eax
  0x7fb1	add    	esp, 0xb0
  0x7fb7	pop    	edi
  === BLOCK LINK ===
    0x7fb8
=== CODE BLOCK END ===

=== CODE BLOCK ADDRESS 0x7fb8 ===
  0x7fb8	ret    	
  0x7fb9	int3   	
  0x7fba	int3   	
  0x7fbb	int3   	
  0x7fbc	int3   	
  === BLOCK LINK ===
    0x7fbd
=== CODE BLOCK END ===

=== CODE BLOCK ADDRESS 0x16ba ===
  0x16ba	inc    	ecx
  0x16bb	movzx  	eax, word ptr [ecx + ecx*2 + 0xbc52]
  === BLOCK LINK ===
    0x16c3
=== CODE BLOCK END ===

=== CODE BLOCK ADDRESS 0x7fbd ===
  0x7fbd	int3   	
  0x7fbe	int3   	
  0x7fbf	int3   	
  0x7fc0	dec    	eax
  0x7fc1	mov    	dword ptr [esp + 0x10], ebx
  === BLOCK LINK ===
    0x7fc5
=== CODE BLOCK END ===

=== CODE BLOCK ADDRESS 0x7fc5 ===
  0x7fc5	dec    	eax
  0x7fc6	mov    	dword ptr [esp + 0x18], esi
  0x7fca	dec    	eax
  0x7fcb	mov    	dword ptr [esp + 0x20], edi
  0x7fcf	inc    	ecx
  === BLOCK LINK ===
    0x7fd0
=== CODE BLOCK END ===

=== CODE BLOCK ADDRESS 0x7fd0 ===
  0x7fd0	push   	esi
  0x7fd1	dec    	eax
  0x7fd2	sub    	esp, 0x30
  0x7fd5	movzx  	esi, cx
  0x7fd8	xor    	edi, edi
  === BLOCK LINK ===
    0x7fda
=== CODE BLOCK END ===

=== CODE BLOCK ADDRESS 0x7fda ===
  0x7fda	dec    	eax
  0x7fdb	shl    	esi, 4
  0x7fde	dec    	ebp
  0x7fdf	mov    	esi, eax
  0x7fe1	dec    	eax
  === BLOCK LINK ===
    0x7fe2
=== CODE BLOCK END ===

=== CODE BLOCK ADDRESS 0x7fe2 ===
  0x7fe2	add    	esi, edx
  0x7fe4	dec    	eax
  0x7fe5	mov    	eax, edx
  0x7fe7	dec    	eax
  0x7fe8	cmp    	edx, esi
  === BLOCK LINK ===
    0x7fea
=== CODE BLOCK END ===

=== CODE BLOCK ADDRESS 0x7fea ===
  0x7fea	jae    	0x8075
  === BLOCK LINK ===
    0x7ff0
=== CODE BLOCK END ===

=== CODE BLOCK ADDRESS 0x7ff0 ===
  0x7ff0	dec    	eax
  0x7ff1	and    	dword ptr [eax + 8], edi
  0x7ff4	dec    	eax
  0x7ff5	add    	eax, 0x10
  0x7ff8	dec    	eax
  === BLOCK LINK ===
    0x7ff9
=== CODE BLOCK END ===

=== CODE BLOCK ADDRESS 0x7ff9 ===
  0x7ff9	cmp    	eax, esi
  0x7ffb	jb     	0x7ff0
  === BLOCK LINK ===
    0x7ffd
=== CODE BLOCK END ===

=== CODE BLOCK ADDRESS 0x7ffd ===
  0x7ffd	dec    	eax
  0x7ffe	lea    	ebx, [edx + 8]
  0x8001	mov    	ecx, 0x100
  0x8006	dec    	eax
  0x8007	call   	dword ptr [0x353b]
  === BLOCK LINK ===
    0x800d
=== CODE BLOCK END ===

=== CODE BLOCK ADDRESS 0x800d ===
  0x800d	nop    	dword ptr [eax + eax]
  0x8012	xor    	edx, edx
  0x8014	dec    	eax
  0x8015	mov    	dword ptr [ebx], eax
  0x8017	dec    	eax
  === BLOCK LINK ===
    0x8018
=== CODE BLOCK END ===

=== CODE BLOCK ADDRESS 0x8018 ===
  0x8018	test   	eax, eax
  0x801a	je     	0x80a3
  === BLOCK LINK ===
    0x8020
=== CODE BLOCK END ===

=== CODE BLOCK ADDRESS 0x8020 ===
  0x8020	dec    	eax
  0x8021	lea    	ecx, [esp + 0x40]
  0x8025	inc    	ecx
  0x8026	mov    	ecx, 0x80
  0x802b	dec    	eax
  === BLOCK LINK ===
    0x802c
=== CODE BLOCK END ===

=== CODE BLOCK ADDRESS 0x802c ===
  0x802c	mov    	dword ptr [esp + 0x28], ecx
  0x8030	dec    	esp
  0x8031	mov    	eax, eax
  0x8033	mov    	ecx, dword ptr [ebx - 8]
  0x8036	mov    	dword ptr [esp + 0x20], ecx
  === BLOCK LINK ===
    0x803a
=== CODE BLOCK END ===

=== CODE BLOCK ADDRESS 0x803a ===
  0x803a	xor    	ecx, ecx
  0x803c	call   	0xa798
  === BLOCK LINK ===
    0x8041
=== CODE BLOCK END ===

=== CODE BLOCK ADDRESS 0x8041 ===
  0x8041	test   	eax, eax
  0x8043	jne    	0x808f
  === BLOCK LINK ===
    0x8045
=== CODE BLOCK END ===

=== CODE BLOCK ADDRESS 0x8045 ===
  0x8045	dec    	eax
  0x8046	mov    	ecx, dword ptr [ebx]
  0x8048	call   	0x8620
  === BLOCK LINK ===
    0x804d
=== CODE BLOCK END ===

=== CODE BLOCK ADDRESS 0x804d ===
  0x804d	mov    	ecx, dword ptr [esp + 0x40]
  0x8051	cmp    	ecx, eax
  0x8053	ja     	0x8063
  === BLOCK LINK ===
    0x8055
=== CODE BLOCK END ===

=== CODE BLOCK ADDRESS 0x8055 ===
  0x8055	dec    	eax
  0x8056	mov    	ecx, dword ptr [ebx]
  0x8058	call   	0x8620
  === BLOCK LINK ===
    0x805d
=== CODE BLOCK END ===

=== CODE BLOCK ADDRESS 0x805d ===
  0x805d	mov    	ecx, eax
  0x805f	mov    	dword ptr [esp + 0x40], eax
  0x8063	cmp    	ecx, edi
  0x8065	cmova  	edi, ecx
  0x8068	dec    	eax
  === BLOCK LINK ===
    0x8069
=== CODE BLOCK END ===

=== CODE BLOCK ADDRESS 0x8069 ===
  0x8069	add    	ebx, 0x10
  0x806c	dec    	eax
  0x806d	lea    	eax, [ebx - 8]
  0x8070	dec    	eax
  0x8071	cmp    	eax, esi
  === BLOCK LINK ===
    0x8073
=== CODE BLOCK END ===

=== CODE BLOCK ADDRESS 0x8073 ===
  0x8073	jb     	0x8001
  === BLOCK LINK ===
    0x8075
=== CODE BLOCK END ===

=== CODE BLOCK ADDRESS 0x8075 ===
  0x8075	dec    	eax
  0x8076	mov    	ebx, dword ptr [esp + 0x48]
  0x807a	dec    	eax
  0x807b	mov    	esi, dword ptr [esp + 0x50]
  0x807f	inc    	ecx
  === BLOCK LINK ===
    0x8080
=== CODE BLOCK END ===

=== CODE BLOCK ADDRESS 0x8080 ===
  0x8080	mov    	dword ptr [esi], edi
  0x8082	dec    	eax
  0x8083	mov    	edi, dword ptr [esp + 0x58]
  0x8087	dec    	eax
  0x8088	add    	esp, 0x30
  === BLOCK LINK ===
    0x808b
=== CODE BLOCK END ===

=== CODE BLOCK ADDRESS 0x808b ===
  0x808b	inc    	ecx
  0x808c	pop    	esi
  0x808d	ret    	
  0x808e	int3   	
  0x808f	xor    	edx, edx
  === BLOCK LINK ===
    0x8091
=== CODE BLOCK END ===

=== CODE BLOCK ADDRESS 0x8091 ===
  0x8091	mov    	ecx, eax
  0x8093	call   	0x7ea4
  === BLOCK LINK ===
    0x8098
=== CODE BLOCK END ===

=== CODE BLOCK ADDRESS 0x8098 ===
  0x8098	mov    	ecx, 2
  0x809d	call   	0x8378
  === BLOCK LINK ===
    0x80a2
=== CODE BLOCK END ===

=== CODE BLOCK ADDRESS 0x80a2 ===
  0x80a2	int3   	
  0x80a3	mov    	ecx, 8
  0x80a8	call   	0x7ea4
  === BLOCK LINK ===
    0x80ad
=== CODE BLOCK END ===

=== CODE BLOCK ADDRESS 0x80ad ===
  0x80ad	mov    	ecx, 2
  0x80b2	call   	0x8378
  === BLOCK LINK ===
    0x80b7
=== CODE BLOCK END ===

=== CODE BLOCK ADDRESS 0x80b7 ===
  0x80b7	int3   	
  0x80b8	int3   	
  0x80b9	int3   	
  0x80ba	int3   	
  0x80bb	int3   	
  === BLOCK LINK ===
    0x80bc
=== CODE BLOCK END ===

=== CODE BLOCK ADDRESS 0x80bc ===
  0x80bc	int3   	
  0x80bd	int3   	
  0x80be	int3   	
  0x80bf	int3   	
  0x80c0	dec    	eax
  === BLOCK LINK ===
    0x80c1
=== CODE BLOCK END ===

=== CODE BLOCK ADDRESS 0x80c1 ===
  0x80c1	mov    	dword ptr [esp + 0x20], ebx
  0x80c5	mov    	dword ptr [esp + 0x10], edx
  0x80c9	push   	ebp
  0x80ca	push   	esi
  0x80cb	push   	edi
  === BLOCK LINK ===
    0x80cc
=== CODE BLOCK END ===

=== CODE BLOCK ADDRESS 0x80cc ===
  0x80cc	inc    	ecx
  0x80cd	push   	esp
  0x80ce	inc    	ecx
  0x80cf	push   	esi
  0x80d0	dec    	eax
  === BLOCK LINK ===
    0x80d1
=== CODE BLOCK END ===

=== CODE BLOCK ADDRESS 0x80d1 ===
  0x80d1	sub    	esp, 0x30
  0x80d4	dec    	eax
  0x80d5	mov    	ebp, ecx
  0x80d7	mov    	dword ptr [esp + 0x60], 0x17
  0x80df	dec    	eax
  === BLOCK LINK ===
    0x80e0
=== CODE BLOCK END ===

=== CODE BLOCK ADDRESS 0x80e0 ===
  0x80e0	mov    	edi, ecx
  0x80e2	inc    	ebp
  0x80e3	xor    	esi, esi
  0x80e5	mov    	ecx, 0xfffffff6
  0x80ea	inc    	ebp
  === BLOCK LINK ===
    0x80eb
=== CODE BLOCK END ===

=== CODE BLOCK ADDRESS 0x80eb ===
  0x80eb	mov    	dword ptr [eax], esi
  0x80ed	dec    	ecx
  0x80ee	mov    	esi, eax
  0x80f0	dec    	eax
  0x80f1	call   	dword ptr [0x3219]
  === BLOCK LINK ===
    0x80f7
=== CODE BLOCK END ===

=== CODE BLOCK ADDRESS 0x80f7 ===
  0x80f7	nop    	dword ptr [eax + eax]
  0x80fc	dec    	eax
  0x80fd	mov    	ecx, eax
  0x80ff	dec    	eax
  0x8100	lea    	edx, [esp + 0x60]
  === BLOCK LINK ===
    0x8104
=== CODE BLOCK END ===

=== CODE BLOCK ADDRESS 0x8104 ===
  0x8104	dec    	eax
  0x8105	call   	dword ptr [0x30d5]
  === BLOCK LINK ===
    0x810b
=== CODE BLOCK END ===

=== CODE BLOCK ADDRESS 0x810b ===
  0x810b	nop    	dword ptr [eax + eax]
  0x8110	mov    	ebx, dword ptr [esp + 0x60]
  0x8114	mov    	ecx, 0xfffffff6
  0x8119	and    	ebx, 0xfffffff9
  0x811c	dec    	eax
  === BLOCK LINK ===
    0x811d
=== CODE BLOCK END ===

=== CODE BLOCK ADDRESS 0x811d ===
  0x811d	call   	dword ptr [0x31ed]
  === BLOCK LINK ===
    0x8123
=== CODE BLOCK END ===

=== CODE BLOCK ADDRESS 0x8123 ===
  0x8123	nop    	dword ptr [eax + eax]
  0x8128	dec    	eax
  0x8129	mov    	ecx, eax
  0x812b	mov    	edx, ebx
  0x812d	dec    	eax
  === BLOCK LINK ===
    0x812e
=== CODE BLOCK END ===

=== CODE BLOCK ADDRESS 0x812e ===
  0x812e	call   	dword ptr [0x30b4]
  === BLOCK LINK ===
    0x8134
=== CODE BLOCK END ===

=== CODE BLOCK ADDRESS 0x8134 ===
  0x8134	nop    	dword ptr [eax + eax]
  0x8139	mov    	ebx, 0xffff
  0x813e	inc    	ecx
  0x813f	mov    	esp, 0x100
  0x8144	mov    	ecx, 0xfffffff6
  === BLOCK LINK ===
    0x8149
=== CODE BLOCK END ===

=== CODE BLOCK ADDRESS 0x8149 ===
  0x8149	dec    	eax
  0x814a	call   	dword ptr [0x31c0]
  === BLOCK LINK ===
    0x8150
=== CODE BLOCK END ===

=== CODE BLOCK ADDRESS 0x8150 ===
  0x8150	nop    	dword ptr [eax + eax]
  0x8155	dec    	esp
  0x8156	lea    	ecx, [esp + 0x70]
  0x815a	dec    	esp
  0x815b	mov    	dword ptr [esp + 0x20], esi
  === BLOCK LINK ===
    0x815f
=== CODE BLOCK END ===

=== CODE BLOCK ADDRESS 0x815f ===
  0x815f	dec    	eax
  0x8160	mov    	ecx, eax
  0x8162	dec    	eax
  0x8163	lea    	edx, [esp + 0x68]
  0x8167	inc    	ecx
  === BLOCK LINK ===
    0x8168
=== CODE BLOCK END ===

=== CODE BLOCK ADDRESS 0x8168 ===
  0x8168	mov    	eax, 1
  0x816d	dec    	eax
  0x816e	call   	dword ptr [0x3064]
  === BLOCK LINK ===
    0x8174
=== CODE BLOCK END ===

=== CODE BLOCK ADDRESS 0x8174 ===
  0x8174	nop    	dword ptr [eax + eax]
  0x8179	test   	eax, eax
  0x817b	je     	0x818b
  === BLOCK LINK ===
    0x817d
=== CODE BLOCK END ===

=== CODE BLOCK ADDRESS 0x817d ===
  0x817d	cmp    	dword ptr [esp + 0x70], 1
  0x8182	jne    	0x818b
  === BLOCK LINK ===
    0x8184
=== CODE BLOCK END ===

=== CODE BLOCK ADDRESS 0x8184 ===
  0x8184	movzx  	eax, word ptr [esp + 0x68]
  0x8189	jmp    	0x8192
  === BLOCK LINK ===
    0x818b
=== CODE BLOCK END ===

=== CODE BLOCK ADDRESS 0x818b ===
  0x818b	mov    	eax, ebx
  0x818d	mov    	word ptr [esp + 0x68], bx
  0x8192	cmp    	ax, 0xd
  0x8196	je     	0x81cd
  === BLOCK LINK ===
    0x8198
=== CODE BLOCK END ===

=== CODE BLOCK ADDRESS 0x8198 ===
  0x8198	cmp    	ax, bx
  0x819b	je     	0x81cd
  === BLOCK LINK ===
    0x819d
=== CODE BLOCK END ===

=== CODE BLOCK ADDRESS 0x819d ===
  0x819d	cmp    	ax, 8
  0x81a1	jne    	0x81b0
  === BLOCK LINK ===
    0x81a3
=== CODE BLOCK END ===

=== CODE BLOCK ADDRESS 0x81a3 ===
  0x81a3	dec    	eax
  0x81a4	cmp    	edi, ebp
  0x81a6	je     	0x8144
  === BLOCK LINK ===
    0x81a8
=== CODE BLOCK END ===

=== CODE BLOCK ADDRESS 0x81a8 ===
  0x81a8	dec    	eax
  0x81a9	sub    	edi, 2
  0x81ac	dec    	dword ptr [esi]
  0x81ae	jmp    	0x8144
  === BLOCK LINK ===
    0x81b0
=== CODE BLOCK END ===

=== CODE BLOCK ADDRESS 0x81b0 ===
  0x81b0	mov    	ecx, dword ptr [esi]
  0x81b2	inc    	ecx
  0x81b3	cmp    	ecx, esp
  0x81b5	mov    	word ptr [edi], ax
  0x81b8	lea    	eax, [ecx + 1]
  === BLOCK LINK ===
    0x81bb
=== CODE BLOCK END ===

=== CODE BLOCK ADDRESS 0x81bb ===
  0x81bb	mov    	dword ptr [esi], eax
  0x81bd	dec    	eax
  0x81be	lea    	eax, [edi + 2]
  0x81c1	dec    	eax
  0x81c2	cmovae  	eax, edi
  === BLOCK LINK ===
    0x81c5
=== CODE BLOCK END ===

=== CODE BLOCK ADDRESS 0x81c5 ===
  0x81c5	dec    	eax
  0x81c6	mov    	edi, eax
  0x81c8	jmp    	0x8144
  === BLOCK LINK ===
    0x81cd
=== CODE BLOCK END ===

=== CODE BLOCK ADDRESS 0x81cd ===
  0x81cd	mov    	ecx, 0xfffffff6
  0x81d2	dec    	eax
  0x81d3	call   	dword ptr [0x3137]
  === BLOCK LINK ===
    0x81d9
=== CODE BLOCK END ===

=== CODE BLOCK ADDRESS 0x81d9 ===
  0x81d9	nop    	dword ptr [eax + eax]
  0x81de	mov    	edx, dword ptr [esp + 0x60]
  0x81e2	dec    	eax
  0x81e3	mov    	ecx, eax
  0x81e5	dec    	eax
  === BLOCK LINK ===
    0x81e6
=== CODE BLOCK END ===

=== CODE BLOCK ADDRESS 0x81e6 ===
  0x81e6	call   	dword ptr [0x2ffc]
  === BLOCK LINK ===
    0x81ec
=== CODE BLOCK END ===

=== CODE BLOCK ADDRESS 0x81ec ===
  0x81ec	nop    	dword ptr [eax + eax]
  0x81f1	mov    	ecx, 0xa
  0x81f6	inc    	sp
  0x81f8	mov    	dword ptr [edi], esi
  0x81fa	dec    	eax
  === BLOCK LINK ===
    0x81fb
=== CODE BLOCK END ===

=== CODE BLOCK ADDRESS 0x81fb ===
  0x81fb	call   	dword ptr [0x3357]
  === BLOCK LINK ===
    0x8201
=== CODE BLOCK END ===

=== CODE BLOCK ADDRESS 0x8201 ===
  0x8201	nop    	dword ptr [eax + eax]
  0x8206	inc    	esp
  0x8207	cmp    	esp, dword ptr [esi]
  0x8209	dec    	eax
  0x820a	mov    	ebx, dword ptr [esp + 0x78]
  === BLOCK LINK ===
    0x820e
=== CODE BLOCK END ===

=== CODE BLOCK ADDRESS 0x820e ===
  0x820e	sbb    	eax, eax
  0x8210	and    	eax, 0x84b
  0x8215	dec    	eax
  0x8216	add    	esp, 0x30
  0x8219	inc    	ecx
  === BLOCK LINK ===
    0x821a
=== CODE BLOCK END ===

=== CODE BLOCK ADDRESS 0x821a ===
  0x821a	pop    	esi
  0x821b	inc    	ecx
  0x821c	pop    	esp
  0x821d	pop    	edi
  0x821e	pop    	esi
  === BLOCK LINK ===
    0x821f
=== CODE BLOCK END ===

=== CODE BLOCK ADDRESS 0x821f ===
  0x821f	pop    	ebp
  0x8220	ret    	
  0x8221	int3   	
  0x8222	int3   	
  0x8223	int3   	
  === BLOCK LINK ===
    0x8224
=== CODE BLOCK END ===

=== CODE BLOCK ADDRESS 0x8224 ===
  0x8224	int3   	
  0x8225	int3   	
  0x8226	int3   	
  0x8227	int3   	
  0x8228	dec    	eax
  === BLOCK LINK ===
    0x8229
=== CODE BLOCK END ===

=== CODE BLOCK ADDRESS 0x8229 ===
  0x8229	mov    	dword ptr [esp + 0x10], ebx
  0x822d	push   	ebp
  0x822e	push   	esi
  0x822f	push   	edi
  0x8230	inc    	ecx
  === BLOCK LINK ===
    0x8231
=== CODE BLOCK END ===

=== CODE BLOCK ADDRESS 0x8231 ===
  0x8231	push   	ebp
  0x8232	inc    	ecx
  0x8233	push   	edi
  0x8234	dec    	eax
  0x8235	sub    	esp, 0x60
  === BLOCK LINK ===
    0x8238
=== CODE BLOCK END ===

=== CODE BLOCK ADDRESS 0x8238 ===
  0x8238	dec    	eax
  0x8239	mov    	eax, dword ptr [0x6049]
  0x823f	dec    	eax
  0x8240	xor    	eax, esp
  0x8242	dec    	eax
  === BLOCK LINK ===
    0x8243
=== CODE BLOCK END ===

=== CODE BLOCK ADDRESS 0x8243 ===
  0x8243	mov    	dword ptr [esp + 0x50], eax
  0x8247	xor    	ebp, ebp
  0x8249	dec    	ecx
  0x824a	mov    	esi, ecx
  0x824c	dec    	ecx
  === BLOCK LINK ===
    0x824d
=== CODE BLOCK END ===

=== CODE BLOCK ADDRESS 0x824d ===
  0x824d	mov    	edi, eax
  0x824f	inc    	ecx
  0x8250	mov    	dword ptr [eax], ebp
  0x8252	dec    	eax
  0x8253	mov    	ebx, ecx
  === BLOCK LINK ===
    0x8255
=== CODE BLOCK END ===

=== CODE BLOCK ADDRESS 0x8255 ===
  0x8255	inc    	ecx
  0x8256	mov    	edi, 0xffff
  0x825b	inc    	esp
  0x825c	lea    	ebp, [ebp + 0x3b]
  0x825f	mov    	ecx, 0xfffffff6
  === BLOCK LINK ===
    0x8264
=== CODE BLOCK END ===

=== CODE BLOCK ADDRESS 0x8264 ===
  0x8264	dec    	eax
  0x8265	call   	dword ptr [0x30a5]
  === BLOCK LINK ===
    0x826b
=== CODE BLOCK END ===

=== CODE BLOCK ADDRESS 0x826b ===
  0x826b	nop    	dword ptr [eax + eax]
  0x8270	dec    	esp
  0x8271	lea    	ecx, [esp + 0x30]
  0x8275	dec    	eax
  0x8276	mov    	dword ptr [esp + 0x20], ebp
  === BLOCK LINK ===
    0x827a
=== CODE BLOCK END ===

=== CODE BLOCK ADDRESS 0x827a ===
  0x827a	dec    	eax
  0x827b	mov    	ecx, eax
  0x827d	inc    	ecx
  0x827e	mov    	eax, 1
  0x8283	dec    	eax
  === BLOCK LINK ===
    0x8284
=== CODE BLOCK END ===

=== CODE BLOCK ADDRESS 0x8284 ===
  0x8284	mov    	edx, ebx
  0x8286	dec    	eax
  0x8287	call   	dword ptr [0x2f4b]
  === BLOCK LINK ===
    0x828d
=== CODE BLOCK END ===

=== CODE BLOCK ADDRESS 0x828d ===
  0x828d	nop    	dword ptr [eax + eax]
  0x8292	test   	eax, eax
  0x8294	je     	0x8339
  === BLOCK LINK ===
    0x829a
=== CODE BLOCK END ===

=== CODE BLOCK ADDRESS 0x829a ===
  0x829a	cmp    	dword ptr [esp + 0x30], 1
  0x829f	jne    	0x8339
  === BLOCK LINK ===
    0x82a5
=== CODE BLOCK END ===

=== CODE BLOCK ADDRESS 0x82a5 ===
  0x82a5	inc    	sp
  0x82a7	cmp    	dword ptr [ebx], edi
  0x82a9	je     	0x833d
  === BLOCK LINK ===
    0x82af
=== CODE BLOCK END ===

=== CODE BLOCK ADDRESS 0x82af ===
  0x82af	cmp    	word ptr [ebx], 0xd
  0x82b3	je     	0x82d0
  === BLOCK LINK ===
    0x82b5
=== CODE BLOCK END ===

=== CODE BLOCK ADDRESS 0x82b5 ===
  0x82b5	cmp    	word ptr [ebx], 0xa
  0x82b9	je     	0x82d0
  === BLOCK LINK ===
    0x82bb
=== CODE BLOCK END ===

=== CODE BLOCK ADDRESS 0x82bb ===
  0x82bb	mov    	ecx, dword ptr [edi]
  0x82bd	inc    	ecx
  0x82be	cmp    	ecx, ebp
  0x82c0	dec    	eax
  0x82c1	sbb    	eax, eax
  === BLOCK LINK ===
    0x82c3
=== CODE BLOCK END ===

=== CODE BLOCK ADDRESS 0x82c3 ===
  0x82c3	and    	eax, 2
  0x82c6	dec    	eax
  0x82c7	add    	ebx, eax
  0x82c9	lea    	eax, [ecx + 1]
  0x82cc	mov    	dword ptr [edi], eax
  === BLOCK LINK ===
    0x82ce
=== CODE BLOCK END ===

=== CODE BLOCK ADDRESS 0x82ce ===
  0x82ce	jmp    	0x825f
  === BLOCK LINK ===
    0x82d0
=== CODE BLOCK END ===

=== CODE BLOCK ADDRESS 0x82d0 ===
  0x82d0	mov    	ecx, 0xfffffff6
  0x82d5	dec    	eax
  0x82d6	call   	dword ptr [0x3034]
  === BLOCK LINK ===
    0x82dc
=== CODE BLOCK END ===

=== CODE BLOCK ADDRESS 0x82dc ===
  0x82dc	nop    	dword ptr [eax + eax]
  0x82e1	dec    	esp
  0x82e2	lea    	ecx, [esp + 0x34]
  0x82e6	inc    	ecx
  0x82e7	mov    	eax, 1
  === BLOCK LINK ===
    0x82ec
=== CODE BLOCK END ===

=== CODE BLOCK ADDRESS 0x82ec ===
  0x82ec	dec    	eax
  0x82ed	mov    	ecx, eax
  0x82ef	dec    	eax
  0x82f0	lea    	edx, [esp + 0x38]
  0x82f4	dec    	eax
  === BLOCK LINK ===
    0x82f5
=== CODE BLOCK END ===

=== CODE BLOCK ADDRESS 0x82f5 ===
  0x82f5	call   	dword ptr [0x2f05]
  === BLOCK LINK ===
    0x82fb
=== CODE BLOCK END ===

=== CODE BLOCK ADDRESS 0x82fb ===
  0x82fb	nop    	dword ptr [eax + eax]
  0x8300	test   	eax, eax
  0x8302	je     	0x833d
  === BLOCK LINK ===
    0x8304
=== CODE BLOCK END ===

=== CODE BLOCK ADDRESS 0x8304 ===
  0x8304	mov    	ecx, 0xfffffff6
  0x8309	dec    	eax
  0x830a	call   	dword ptr [0x3000]
  === BLOCK LINK ===
    0x8310
=== CODE BLOCK END ===

=== CODE BLOCK ADDRESS 0x8310 ===
  0x8310	nop    	dword ptr [eax + eax]
  0x8315	dec    	esp
  0x8316	lea    	ecx, [esp + 0x30]
  0x831a	dec    	eax
  0x831b	mov    	dword ptr [esp + 0x20], ebp
  === BLOCK LINK ===
    0x831f
=== CODE BLOCK END ===

=== CODE BLOCK ADDRESS 0x831f ===
  0x831f	dec    	eax
  0x8320	mov    	ecx, eax
  0x8322	inc    	ecx
  0x8323	mov    	eax, 1
  0x8328	dec    	eax
  === BLOCK LINK ===
    0x8329
=== CODE BLOCK END ===

=== CODE BLOCK ADDRESS 0x8329 ===
  0x8329	mov    	edx, ebx
  0x832b	dec    	eax
  0x832c	call   	dword ptr [0x2ea6]
  === BLOCK LINK ===
    0x8332
=== CODE BLOCK END ===

=== CODE BLOCK ADDRESS 0x8332 ===
  0x8332	nop    	dword ptr [eax + eax]
  0x8337	jmp    	0x833d
  === BLOCK LINK ===
    0x8339
=== CODE BLOCK END ===

=== CODE BLOCK ADDRESS 0x8339 ===
  0x8339	inc    	sp
  0x833b	mov    	dword ptr [ebx], edi
  0x833d	movzx  	eax, word ptr [ebx]
  0x8340	mov    	word ptr [esi], ax
  0x8343	mov    	word ptr [ebx], bp
  === BLOCK LINK ===
    0x8346
=== CODE BLOCK END ===

=== CODE BLOCK ADDRESS 0x8346 ===
  0x8346	inc    	esp
  0x8347	cmp    	ebp, dword ptr [edi]
  0x8349	sbb    	eax, eax
  0x834b	and    	eax, 0x84b
  0x8350	dec    	eax
  === BLOCK LINK ===
    0x8351
=== CODE BLOCK END ===

=== CODE BLOCK ADDRESS 0x8351 ===
  0x8351	mov    	ecx, dword ptr [esp + 0x50]
  0x8355	dec    	eax
  0x8356	xor    	ecx, esp
  0x8358	call   	0x2900
  === BLOCK LINK ===
    0x835d
=== CODE BLOCK END ===

=== CODE BLOCK ADDRESS 0x835d ===
  0x835d	dec    	eax
  0x835e	mov    	ebx, dword ptr [esp + 0x98]
  0x8365	dec    	eax
  0x8366	add    	esp, 0x60
  0x8369	inc    	ecx
  === BLOCK LINK ===
    0x836a
=== CODE BLOCK END ===

=== CODE BLOCK ADDRESS 0x836a ===
  0x836a	pop    	edi
  0x836b	inc    	ecx
  0x836c	pop    	ebp
  0x836d	pop    	edi
  0x836e	pop    	esi
  === BLOCK LINK ===
    0x836f
=== CODE BLOCK END ===

=== CODE BLOCK ADDRESS 0x836f ===
  0x836f	pop    	ebp
  0x8370	ret    	
  0x8371	int3   	
  0x8372	int3   	
  0x8373	int3   	
  === BLOCK LINK ===
    0x8374
=== CODE BLOCK END ===

=== CODE BLOCK ADDRESS 0x8374 ===
  0x8374	int3   	
  0x8375	int3   	
  0x8376	int3   	
  0x8377	int3   	
  0x8378	inc    	eax
  === BLOCK LINK ===
    0x8379
=== CODE BLOCK END ===

=== CODE BLOCK ADDRESS 0x8379 ===
  0x8379	push   	ebx
  0x837a	dec    	eax
  0x837b	sub    	esp, 0xb0
  0x8381	dec    	eax
  0x8382	mov    	eax, dword ptr [0x5f00]
  === BLOCK LINK ===
    0x8388
=== CODE BLOCK END ===

=== CODE BLOCK ADDRESS 0x8388 ===
  0x8388	dec    	eax
  0x8389	xor    	eax, esp
  0x838b	dec    	eax
  0x838c	mov    	dword ptr [esp + 0xa0], eax
  0x8393	mov    	ebx, ecx
  === BLOCK LINK ===
    0x8395
=== CODE BLOCK END ===

=== CODE BLOCK ADDRESS 0x8395 ===
  0x8395	mov    	ecx, dword ptr [0x10e15]
  0x839b	lea    	eax, [ecx - 0x834]
  0x83a1	cmp    	eax, 0xed7
  0x83a6	ja     	0x841d
  === BLOCK LINK ===
    0x83a8
=== CODE BLOCK END ===

=== CODE BLOCK ADDRESS 0x83a8 ===
  0x83a8	inc    	ecx
  0x83a9	mov    	eax, 0xa
  0x83ae	dec    	eax
  0x83af	lea    	edx, [esp + 0x50]
  0x83b3	dec    	eax
  === BLOCK LINK ===
    0x83b4
=== CODE BLOCK END ===

=== CODE BLOCK ADDRESS 0x83b4 ===
  0x83b4	call   	dword ptr [0x3086]
  === BLOCK LINK ===
    0x83ba
=== CODE BLOCK END ===

=== CODE BLOCK ADDRESS 0x83ba ===
  0x83ba	nop    	dword ptr [eax + eax]
  0x83bf	dec    	eax
  0x83c0	mov    	dword ptr [0xe05a], eax
  0x83c6	inc    	ecx
  0x83c7	mov    	ecx, 0x800
  === BLOCK LINK ===
    0x83cc
=== CODE BLOCK END ===

=== CODE BLOCK ADDRESS 0x83cc ===
  0x83cc	dec    	esp
  0x83cd	lea    	eax, [0xf52d]
  0x83d3	mov    	edx, 1
  0x83d8	dec    	eax
  0x83d9	lea    	eax, [esp + 0x40]
  === BLOCK LINK ===
    0x83dd
=== CODE BLOCK END ===

=== CODE BLOCK ADDRESS 0x83dd ===
  0x83dd	dec    	eax
  0x83de	mov    	dword ptr [esp + 0x30], eax
  0x83e2	dec    	eax
  0x83e3	lea    	ecx, [0xe037]
  0x83e9	dec    	eax
  === BLOCK LINK ===
    0x83ea
=== CODE BLOCK END ===

=== CODE BLOCK ADDRESS 0x83ea ===
  0x83ea	lea    	eax, [0x32c8]
  0x83f0	dec    	eax
  0x83f1	mov    	dword ptr [esp + 0x28], eax
  0x83f5	mov    	dword ptr [esp + 0x20], 0xdba
  0x83fd	call   	0xa030
  === BLOCK LINK ===
    0x8402
=== CODE BLOCK END ===

=== CODE BLOCK ADDRESS 0x8402 ===
  0x8402	test   	eax, eax
  0x8404	jne    	0x841d
  === BLOCK LINK ===
    0x8406
=== CODE BLOCK END ===

=== CODE BLOCK ADDRESS 0x8406 ===
  0x8406	dec    	eax
  0x8407	mov    	ecx, dword ptr [0xaf5b]
  0x840d	inc    	esp
  0x840e	lea    	eax, [eax + 1]
  0x8411	dec    	eax
  === BLOCK LINK ===
    0x8412
=== CODE BLOCK END ===

=== CODE BLOCK ADDRESS 0x8412 ===
  0x8412	lea    	edx, [0xf4e8]
  0x8418	call   	0xa244
  === BLOCK LINK ===
    0x841d
=== CODE BLOCK END ===

=== CODE BLOCK ADDRESS 0x841d ===
  0x841d	call   	0x2330
  === BLOCK LINK ===
    0x8422
=== CODE BLOCK END ===

=== CODE BLOCK ADDRESS 0x8422 ===
  0x8422	mov    	ecx, ebx
  0x8424	dec    	eax
  0x8425	call   	dword ptr [0x2ff5]
  === BLOCK LINK ===
    0x842b
=== CODE BLOCK END ===

=== CODE BLOCK ADDRESS 0x842b ===
  0x842b	nop    	dword ptr [eax + eax]
  0x8430	int3   	
  0x8431	int3   	
  0x8432	int3   	
  0x8433	int3   	
  === BLOCK LINK ===
    0x8434
=== CODE BLOCK END ===

=== CODE BLOCK ADDRESS 0x8434 ===
  0x8434	int3   	
  0x8435	int3   	
  0x8436	int3   	
  0x8437	int3   	
  0x8438	dec    	esp
  === BLOCK LINK ===
    0x8439
=== CODE BLOCK END ===

=== CODE BLOCK ADDRESS 0x8439 ===
  0x8439	mov    	ebx, esp
  0x843b	dec    	ecx
  0x843c	mov    	dword ptr [ebx + 8], ebx
  0x843f	dec    	ecx
  0x8440	mov    	dword ptr [ebx + 0x10], ebp
  === BLOCK LINK ===
    0x8443
=== CODE BLOCK END ===

=== CODE BLOCK ADDRESS 0x8443 ===
  0x8443	dec    	ecx
  0x8444	mov    	dword ptr [ebx + 0x18], esi
  0x8447	push   	edi
  0x8448	inc    	ecx
  0x8449	push   	esi
  === BLOCK LINK ===
    0x844a
=== CODE BLOCK END ===

=== CODE BLOCK ADDRESS 0x844a ===
  0x844a	inc    	ecx
  0x844b	push   	edi
  0x844c	dec    	eax
  0x844d	sub    	esp, 0x40
  0x8450	dec    	esp
  === BLOCK LINK ===
    0x8451
=== CODE BLOCK END ===

=== CODE BLOCK ADDRESS 0x8451 ===
  0x8451	mov    	edx, edx
  0x8453	mov    	eax, ecx
  0x8455	cdq    	
  0x8456	dec    	ebp
  0x8457	mov    	dword ptr [ebx - 0x28], edx
  === BLOCK LINK ===
    0x845a
=== CODE BLOCK END ===

=== CODE BLOCK ADDRESS 0x845a ===
  0x845a	dec    	ecx
  0x845b	mov    	ebx, eax
  0x845d	mov    	ebp, eax
  0x845f	xor    	ebp, edx
  0x8461	inc    	esp
  === BLOCK LINK ===
    0x8462
=== CODE BLOCK END ===

=== CODE BLOCK ADDRESS 0x8462 ===
  0x8462	mov    	esi, ecx
  0x8464	sub    	ebp, edx
  0x8466	dec    	ecx
  0x8467	or     	eax, 0xffffffff
  0x846a	dec    	ecx
  === BLOCK LINK ===
    0x846b
=== CODE BLOCK END ===

=== CODE BLOCK ADDRESS 0x846b ===
  0x846b	arpl   	cx, dx
  0x846d	dec    	eax
  0x846e	mov    	ecx, ebx
  0x8470	mov    	dword ptr [esp + 0x28], ebp
  0x8474	dec    	esp
  === BLOCK LINK ===
    0x8475
=== CODE BLOCK END ===

=== CODE BLOCK ADDRESS 0x8475 ===
  0x8475	lea    	ecx, [0x3a2d]
  0x847b	mov    	dword ptr [esp + 0x20], ebp
  0x847f	dec    	eax
  0x8480	call   	dword ptr [0x30e2]
  === BLOCK LINK ===
    0x8486
=== CODE BLOCK END ===

=== CODE BLOCK ADDRESS 0x8486 ===
  0x8486	nop    	dword ptr [eax + eax]
  0x848b	inc    	ebp
  0x848c	xor    	edi, edi
  0x848e	dec    	eax
  0x848f	arpl   	ax, di
  === BLOCK LINK ===
    0x8491
=== CODE BLOCK END ===

=== CODE BLOCK ADDRESS 0x8491 ===
  0x8491	test   	eax, eax
  0x8493	jne    	0x8499
  === BLOCK LINK ===
    0x8495
=== CODE BLOCK END ===

=== CODE BLOCK ADDRESS 0x8495 ===
  0x8495	xor    	eax, eax
  0x8497	jmp    	0x84e4
  === BLOCK LINK ===
    0x8499
=== CODE BLOCK END ===

=== CODE BLOCK ADDRESS 0x8499 ===
  0x8499	dec    	eax
  0x849a	mov    	ecx, ebx
  0x849c	call   	0x8620
  === BLOCK LINK ===
    0x84a1
=== CODE BLOCK END ===

=== CODE BLOCK ADDRESS 0x84a1 ===
  0x84a1	cmp    	eax, ebp
  0x84a3	jbe    	0x84bf
  === BLOCK LINK ===
    0x84a5
=== CODE BLOCK END ===

=== CODE BLOCK ADDRESS 0x84a5 ===
  0x84a5	dec    	eax
  0x84a6	lea    	esi, [ebx + edi*2]
  0x84a9	dec    	eax
  0x84aa	lea    	esi, [esi - 2]
  0x84ad	dec    	eax
  === BLOCK LINK ===
    0x84ae
=== CODE BLOCK END ===

=== CODE BLOCK ADDRESS 0x84ae ===
  0x84ae	mov    	ecx, ebx
  0x84b0	inc    	sp
  0x84b2	mov    	dword ptr [esi], edi
  0x84b4	dec    	edi
  0x84b6	call   	0x8620
  === BLOCK LINK ===
    0x84bb
=== CODE BLOCK END ===

=== CODE BLOCK ADDRESS 0x84bb ===
  0x84bb	cmp    	eax, ebp
  0x84bd	ja     	0x84a9
  === BLOCK LINK ===
    0x84bf
=== CODE BLOCK END ===

=== CODE BLOCK ADDRESS 0x84bf ===
  0x84bf	inc    	ebp
  0x84c0	test   	esi, esi
  0x84c2	jns    	0x84e1
  === BLOCK LINK ===
    0x84c4
=== CODE BLOCK END ===

=== CODE BLOCK ADDRESS 0x84c4 ===
  0x84c4	dec    	eax
  0x84c5	arpl   	di, ax
  0x84c7	cmp    	word ptr [ebx + eax*2 - 2], 0x20
  0x84cd	je     	0x84e1
  === BLOCK LINK ===
    0x84cf
=== CODE BLOCK END ===

=== CODE BLOCK ADDRESS 0x84cf ===
  0x84cf	mov    	ecx, 0x2e
  0x84d4	mov    	dword ptr [ebx + eax*2 - 4], 0x2e002e
  0x84dc	mov    	word ptr [ebx + eax*2 - 6], cx
  0x84e1	dec    	eax
  0x84e2	mov    	eax, ebx
  === BLOCK LINK ===
    0x84e4
=== CODE BLOCK END ===

=== CODE BLOCK ADDRESS 0x84e4 ===
  0x84e4	dec    	eax
  0x84e5	mov    	ebx, dword ptr [esp + 0x60]
  0x84e9	dec    	eax
  0x84ea	mov    	ebp, dword ptr [esp + 0x68]
  0x84ee	dec    	eax
  === BLOCK LINK ===
    0x84ef
=== CODE BLOCK END ===

=== CODE BLOCK ADDRESS 0x84ef ===
  0x84ef	mov    	esi, dword ptr [esp + 0x70]
  0x84f3	dec    	eax
  0x84f4	add    	esp, 0x40
  0x84f7	inc    	ecx
  0x84f8	pop    	edi
  === BLOCK LINK ===
    0x84f9
=== CODE BLOCK END ===

=== CODE BLOCK ADDRESS 0x84f9 ===
  0x84f9	inc    	ecx
  0x84fa	pop    	esi
  0x84fb	pop    	edi
  0x84fc	ret    	
  0x84fd	int3   	
  === BLOCK LINK ===
    0x84fe
=== CODE BLOCK END ===

=== CODE BLOCK ADDRESS 0x84fe ===
  0x84fe	int3   	
  0x84ff	int3   	
  0x8500	int3   	
  0x8501	int3   	
  0x8502	int3   	
  === BLOCK LINK ===
    0x8503
=== CODE BLOCK END ===

=== CODE BLOCK ADDRESS 0x8503 ===
  0x8503	int3   	
  0x8504	dec    	eax
  0x8505	mov    	dword ptr [esp + 8], ebx
  0x8509	dec    	eax
  0x850a	mov    	dword ptr [esp + 0x10], edi
  === BLOCK LINK ===
    0x850e
=== CODE BLOCK END ===

=== CODE BLOCK ADDRESS 0x850e ===
  0x850e	inc    	ecx
  0x850f	push   	edi
  0x8510	dec    	eax
  0x8511	sub    	esp, 0x50
  0x8514	mov    	edi, 3
  === BLOCK LINK ===
    0x8519
=== CODE BLOCK END ===

=== CODE BLOCK ADDRESS 0x8519 ===
  0x8519	dec    	esp
  0x851a	lea    	edi, [0x3198]
  0x8520	dec    	eax
  0x8521	mov    	ebx, dword ptr [0xae49]
  0x8527	dec    	eax
  === BLOCK LINK ===
    0x8528
=== CODE BLOCK END ===

=== CODE BLOCK ADDRESS 0x8528 ===
  0x8528	lea    	eax, [esp + 0x40]
  0x852c	dec    	eax
  0x852d	mov    	dword ptr [esp + 0x30], eax
  0x8531	dec    	esp
  0x8532	lea    	eax, [0xf3c8]
  === BLOCK LINK ===
    0x8538
=== CODE BLOCK END ===

=== CODE BLOCK ADDRESS 0x8538 ===
  0x8538	dec    	esp
  0x8539	mov    	dword ptr [esp + 0x28], edi
  0x853d	dec    	eax
  0x853e	lea    	ecx, [0xdedc]
  0x8544	inc    	ecx
  === BLOCK LINK ===
    0x8545
=== CODE BLOCK END ===

=== CODE BLOCK ADDRESS 0x8545 ===
  0x8545	mov    	ecx, 0x800
  0x854a	mov    	dword ptr [esp + 0x20], 0x1105
  0x8552	mov    	edx, 1
  0x8557	call   	0xa030
  === BLOCK LINK ===
    0x855c
=== CODE BLOCK END ===

=== CODE BLOCK ADDRESS 0x855c ===
  0x855c	test   	eax, eax
  0x855e	dec    	eax
  0x855f	lea    	edx, [0xf39b]
  0x8565	inc    	ecx
  0x8566	mov    	eax, 1
  === BLOCK LINK ===
    0x856b
=== CODE BLOCK END ===

=== CODE BLOCK ADDRESS 0x856b ===
  0x856b	dec    	eax
  0x856c	cmovne  	ebx, dword ptr [0xadf5]
  0x8573	dec    	eax
  0x8574	mov    	ecx, ebx
  0x8576	call   	0xa244
  === BLOCK LINK ===
    0x857b
=== CODE BLOCK END ===

=== CODE BLOCK ADDRESS 0x857b ===
  0x857b	dec    	esp
  0x857c	lea    	eax, [esp + 0x44]
  0x8580	dec    	eax
  0x8581	lea    	ecx, [0xe519]
  0x8587	call   	0x80c0
  === BLOCK LINK ===
    0x858c
=== CODE BLOCK END ===

=== CODE BLOCK ADDRESS 0x858c ===
  0x858c	test   	eax, eax
  0x858e	je     	0x8606
  === BLOCK LINK ===
    0x8590
=== CODE BLOCK END ===

=== CODE BLOCK ADDRESS 0x8590 ===
  0x8590	dec    	eax
  0x8591	mov    	ebx, dword ptr [0xadd9]
  0x8597	dec    	eax
  0x8598	lea    	eax, [esp + 0x48]
  0x859c	dec    	eax
  === BLOCK LINK ===
    0x859d
=== CODE BLOCK END ===

=== CODE BLOCK ADDRESS 0x859d ===
  0x859d	mov    	dword ptr [esp + 0x30], eax
  0x85a1	dec    	esp
  0x85a2	lea    	eax, [0xf358]
  0x85a8	dec    	esp
  0x85a9	mov    	dword ptr [esp + 0x28], edi
  === BLOCK LINK ===
    0x85ad
=== CODE BLOCK END ===

=== CODE BLOCK ADDRESS 0x85ad ===
  0x85ad	dec    	eax
  0x85ae	lea    	ecx, [0xde6c]
  0x85b4	inc    	ecx
  0x85b5	mov    	ecx, 0x800
  0x85ba	mov    	dword ptr [esp + 0x20], 0xe8f
  === BLOCK LINK ===
    0x85c2
=== CODE BLOCK END ===

=== CODE BLOCK ADDRESS 0x85c2 ===
  0x85c2	xor    	edx, edx
  0x85c4	call   	0xa030
  === BLOCK LINK ===
    0x85c9
=== CODE BLOCK END ===

=== CODE BLOCK ADDRESS 0x85c9 ===
  0x85c9	test   	eax, eax
  0x85cb	dec    	eax
  0x85cc	lea    	edx, [0xf32e]
  0x85d2	inc    	ecx
  0x85d3	mov    	eax, 1
  === BLOCK LINK ===
    0x85d8
=== CODE BLOCK END ===

=== CODE BLOCK ADDRESS 0x85d8 ===
  0x85d8	dec    	eax
  0x85d9	cmovne  	ebx, dword ptr [0xad88]
  0x85e0	dec    	eax
  0x85e1	mov    	ecx, ebx
  0x85e3	call   	0xa244
  === BLOCK LINK ===
    0x85e8
=== CODE BLOCK END ===

=== CODE BLOCK ADDRESS 0x85e8 ===
  0x85e8	sub    	edi, 1
  0x85eb	jne    	0x8520
  === BLOCK LINK ===
    0x85f1
=== CODE BLOCK END ===

=== CODE BLOCK ADDRESS 0x85f1 ===
  0x85f1	xor    	edx, edx
  0x85f3	mov    	ecx, 0xe96
  0x85f8	call   	0x7ea4
  === BLOCK LINK ===
    0x85fd
=== CODE BLOCK END ===

=== CODE BLOCK ADDRESS 0x85fd ===
  0x85fd	lea    	ecx, [edi + 2]
  0x8600	call   	0x8378
  === BLOCK LINK ===
    0x8605
=== CODE BLOCK END ===

=== CODE BLOCK ADDRESS 0x8605 ===
  0x8605	int3   	
  0x8606	dec    	eax
  0x8607	mov    	ebx, dword ptr [esp + 0x60]
  0x860b	dec    	eax
  0x860c	mov    	edi, dword ptr [esp + 0x68]
  === BLOCK LINK ===
    0x8610
=== CODE BLOCK END ===

=== CODE BLOCK ADDRESS 0x8610 ===
  0x8610	dec    	eax
  0x8611	add    	esp, 0x50
  0x8614	inc    	ecx
  0x8615	pop    	edi
  0x8616	ret    	
  === BLOCK LINK ===
    0x8617
=== CODE BLOCK END ===

=== CODE BLOCK ADDRESS 0x8617 ===
  0x8617	int3   	
  0x8618	int3   	
  0x8619	int3   	
  0x861a	int3   	
  0x861b	int3   	
  === BLOCK LINK ===
    0x861c
=== CODE BLOCK END ===

=== CODE BLOCK ADDRESS 0x861c ===
  0x861c	int3   	
  0x861d	int3   	
  0x861e	int3   	
  0x861f	int3   	
  0x8620	dec    	eax
  === BLOCK LINK ===
    0x8621
=== CODE BLOCK END ===

=== CODE BLOCK ADDRESS 0x8621 ===
  0x8621	mov    	dword ptr [esp + 8], ebx
  0x8625	dec    	eax
  0x8626	mov    	dword ptr [esp + 0x10], esi
  0x862a	push   	edi
  0x862b	dec    	eax
  === BLOCK LINK ===
    0x862c
=== CODE BLOCK END ===

=== CODE BLOCK ADDRESS 0x862c ===
  0x862c	sub    	esp, 0x20
  0x862f	xor    	esi, esi
  0x8631	dec    	eax
  0x8632	mov    	edi, ecx
  0x8634	mov    	ebx, esi
  === BLOCK LINK ===
    0x8636
=== CODE BLOCK END ===

=== CODE BLOCK ADDRESS 0x8636 ===
  0x8636	dec    	eax
  0x8637	call   	dword ptr [0x2bb3]
  === BLOCK LINK ===
    0x863d
=== CODE BLOCK END ===

=== CODE BLOCK ADDRESS 0x863d ===
  0x863d	nop    	dword ptr [eax + eax]
  0x8642	cmp    	eax, 0x3a4
  0x8647	je     	0x86a6
  === BLOCK LINK ===
    0x8649
=== CODE BLOCK END ===

=== CODE BLOCK ADDRESS 0x8649 ===
  0x8649	cmp    	eax, 0x3a8
  0x864e	je     	0x86a6
  === BLOCK LINK ===
    0x8650
=== CODE BLOCK END ===

=== CODE BLOCK ADDRESS 0x8650 ===
  0x8650	cmp    	eax, 0x3b4
  0x8655	jbe    	0x865e
  === BLOCK LINK ===
    0x8657
=== CODE BLOCK END ===

=== CODE BLOCK ADDRESS 0x8657 ===
  0x8657	cmp    	eax, 0x3b6
  0x865c	jbe    	0x86a6
  === BLOCK LINK ===
    0x865e
=== CODE BLOCK END ===

=== CODE BLOCK ADDRESS 0x865e ===
  0x865e	dec    	eax
  0x865f	or     	eax, 0xffffffff
  0x8662	dec    	eax
  0x8663	inc    	eax
  0x8665	cmp    	word ptr [edi + eax*2], si
  === BLOCK LINK ===
    0x8669
=== CODE BLOCK END ===

=== CODE BLOCK ADDRESS 0x8669 ===
  0x8669	jne    	0x8662
  === BLOCK LINK ===
    0x866b
=== CODE BLOCK END ===

=== CODE BLOCK ADDRESS 0x866b ===
  0x866b	jmp    	0x86b0
  === BLOCK LINK ===
    0x866d
=== CODE BLOCK END ===

=== CODE BLOCK ADDRESS 0x866d ===
  0x866d	mov    	edx, 0x80
  0x8672	movzx  	eax, cx
  0x8675	sub    	ax, dx
  0x8678	mov    	edx, 0xfedf
  0x867d	cmp    	ax, dx
  === BLOCK LINK ===
    0x8680
=== CODE BLOCK END ===

=== CODE BLOCK ADDRESS 0x8680 ===
  0x8680	jbe    	0x8693
  === BLOCK LINK ===
    0x8682
=== CODE BLOCK END ===

=== CODE BLOCK ADDRESS 0x8682 ===
  0x8682	mov    	eax, 0xffa0
  0x8687	cmp    	cx, ax
  0x868a	jae    	0x8693
  === BLOCK LINK ===
    0x868c
=== CODE BLOCK END ===

=== CODE BLOCK ADDRESS 0x868c ===
  0x868c	mov    	eax, 1
  0x8691	jmp    	0x86a0
  === BLOCK LINK ===
    0x8693
=== CODE BLOCK END ===

=== CODE BLOCK ADDRESS 0x8693 ===
  0x8693	mov    	eax, 0x300
  0x8698	cmp    	cx, ax
  0x869b	sbb    	eax, eax
  0x869d	add    	eax, 2
  0x86a0	add    	ebx, eax
  === BLOCK LINK ===
    0x86a2
=== CODE BLOCK END ===

=== CODE BLOCK ADDRESS 0x86a2 ===
  0x86a2	dec    	eax
  0x86a3	add    	edi, 2
  0x86a6	movzx  	ecx, word ptr [edi]
  0x86a9	test   	cx, cx
  0x86ac	jne    	0x866d
  === BLOCK LINK ===
    0x86ae
=== CODE BLOCK END ===

=== CODE BLOCK ADDRESS 0x86ae ===
  0x86ae	mov    	eax, ebx
  0x86b0	dec    	eax
  0x86b1	mov    	ebx, dword ptr [esp + 0x30]
  0x86b5	dec    	eax
  0x86b6	mov    	esi, dword ptr [esp + 0x38]
  === BLOCK LINK ===
    0x86ba
=== CODE BLOCK END ===

=== CODE BLOCK ADDRESS 0x86ba ===
  0x86ba	dec    	eax
  0x86bb	add    	esp, 0x20
  0x86be	pop    	edi
  0x86bf	ret    	
  0x86c0	int3   	
  === BLOCK LINK ===
    0x86c1
=== CODE BLOCK END ===

=== CODE BLOCK ADDRESS 0x86c1 ===
  0x86c1	int3   	
  0x86c2	int3   	
  0x86c3	int3   	
  0x86c4	int3   	
  0x86c5	int3   	
  === BLOCK LINK ===
    0x86c6
=== CODE BLOCK END ===

=== CODE BLOCK ADDRESS 0x86c6 ===
  0x86c6	int3   	
  0x86c7	int3   	
  0x86c8	dec    	esp
  0x86c9	mov    	ebx, esp
  0x86cb	dec    	ecx
  === BLOCK LINK ===
    0x86cc
=== CODE BLOCK END ===

=== CODE BLOCK ADDRESS 0x86cc ===
  0x86cc	mov    	dword ptr [ebx + 8], ecx
  0x86cf	dec    	ecx
  0x86d0	mov    	dword ptr [ebx + 0x10], edx
  0x86d3	dec    	ebp
  0x86d4	mov    	dword ptr [ebx + 0x18], eax
  === BLOCK LINK ===
    0x86d7
=== CODE BLOCK END ===

=== CODE BLOCK ADDRESS 0x86d7 ===
  0x86d7	dec    	ebp
  0x86d8	mov    	dword ptr [ebx + 0x20], ecx
  0x86db	dec    	eax
  0x86dc	sub    	esp, 0x38
  0x86df	mov    	edx, 0x1001
  === BLOCK LINK ===
    0x86e4
=== CODE BLOCK END ===

=== CODE BLOCK ADDRESS 0x86e4 ===
  0x86e4	dec    	ecx
  0x86e5	lea    	eax, [ebx + 0x10]
  0x86e8	dec    	esp
  0x86e9	mov    	ecx, ecx
  0x86eb	dec    	ecx
  === BLOCK LINK ===
    0x86ec
=== CODE BLOCK END ===

=== CODE BLOCK ADDRESS 0x86ec ===
  0x86ec	mov    	dword ptr [ebx - 0x18], eax
  0x86ef	dec    	eax
  0x86f0	lea    	ecx, [0x8c6a]
  0x86f6	inc    	esp
  0x86f7	lea    	eax, [edx - 1]
  === BLOCK LINK ===
    0x86fa
=== CODE BLOCK END ===

=== CODE BLOCK ADDRESS 0x86fa ===
  0x86fa	dec    	eax
  0x86fb	call   	dword ptr [0x2e5f]
  === BLOCK LINK ===
    0x8701
=== CODE BLOCK END ===

=== CODE BLOCK ADDRESS 0x8701 ===
  0x8701	nop    	dword ptr [eax + eax]
  0x8706	dec    	eax
  0x8707	mov    	ecx, dword ptr [0xac63]
  0x870d	dec    	eax
  0x870e	lea    	edx, [0x8c4c]
  === BLOCK LINK ===
    0x8714
=== CODE BLOCK END ===

=== CODE BLOCK ADDRESS 0x8714 ===
  0x8714	xor    	eax, eax
  0x8716	inc    	ebp
  0x8717	xor    	eax, eax
  0x8719	mov    	word ptr [0xac40], ax
  0x8720	call   	0xa244
  === BLOCK LINK ===
    0x8725
=== CODE BLOCK END ===

=== CODE BLOCK ADDRESS 0x8725 ===
  0x8725	dec    	eax
  0x8726	add    	esp, 0x38
  0x8729	ret    	
  0x872a	int3   	
  0x872b	int3   	
  === BLOCK LINK ===
    0x872c
=== CODE BLOCK END ===

=== CODE BLOCK ADDRESS 0x872c ===
  0x872c	int3   	
  0x872d	int3   	
  0x872e	int3   	
  0x872f	int3   	
  0x8730	int3   	
  === BLOCK LINK ===
    0x8731
=== CODE BLOCK END ===

=== CODE BLOCK ADDRESS 0x8731 ===
  0x8731	int3   	
  0x8732	int3   	
  0x8733	int3   	
  0x8734	dec    	eax
  0x8735	sub    	esp, 0x28
  === BLOCK LINK ===
    0x8738
=== CODE BLOCK END ===

=== CODE BLOCK ADDRESS 0x8738 ===
  0x8738	mov    	eax, dword ptr [0x10a82]
  0x873e	test   	eax, eax
  0x8740	je     	0x874b
  === BLOCK LINK ===
    0x8742
=== CODE BLOCK END ===

=== CODE BLOCK ADDRESS 0x8742 ===
  0x8742	add    	eax, -2
  0x8745	dec    	eax
  0x8746	add    	esp, 0x28
  0x8749	ret    	
  0x874a	int3   	
  === BLOCK LINK ===
    0x874b
=== CODE BLOCK END ===

=== CODE BLOCK ADDRESS 0x874b ===
  0x874b	inc    	esp
  0x874c	movzx  	eax, cx
  0x874f	inc    	ebp
  0x8750	xor    	ecx, ecx
  0x8752	xor    	ecx, ecx
  === BLOCK LINK ===
    0x8754
=== CODE BLOCK END ===

=== CODE BLOCK ADDRESS 0x8754 ===
  0x8754	xor    	edx, edx
  0x8756	call   	0x9228
  === BLOCK LINK ===
    0x875b
=== CODE BLOCK END ===

=== CODE BLOCK ADDRESS 0x875b ===
  0x875b	cmp    	eax, 1
  0x875e	jbe    	0x8745
  === BLOCK LINK ===
    0x8760
=== CODE BLOCK END ===

=== CODE BLOCK ADDRESS 0x8760 ===
  0x8760	xor    	edx, edx
  0x8762	mov    	ecx, eax
  0x8764	call   	0x7ea4
  === BLOCK LINK ===
    0x8769
=== CODE BLOCK END ===

=== CODE BLOCK ADDRESS 0x8769 ===
  0x8769	mov    	ecx, 2
  0x876e	call   	0x8378
  === BLOCK LINK ===
    0x8773
=== CODE BLOCK END ===

=== CODE BLOCK ADDRESS 0x8773 ===
  0x8773	int3   	
  0x8774	int3   	
  0x8775	int3   	
  0x8776	int3   	
  0x8777	int3   	
  === BLOCK LINK ===
    0x8778
=== CODE BLOCK END ===

=== CODE BLOCK ADDRESS 0x8778 ===
  0x8778	int3   	
  0x8779	int3   	
  0x877a	int3   	
  0x877b	int3   	
  0x877c	dec    	eax
  === BLOCK LINK ===
    0x877d
=== CODE BLOCK END ===

=== CODE BLOCK ADDRESS 0x877d ===
  0x877d	mov    	dword ptr [esp + 8], ebx
  0x8781	push   	edi
  0x8782	dec    	eax
  0x8783	sub    	esp, 0x20
  0x8786	xor    	edi, edi
  === BLOCK LINK ===
    0x8788
=== CODE BLOCK END ===

=== CODE BLOCK ADDRESS 0x8788 ===
  0x8788	dec    	eax
  0x8789	lea    	edx, [esp + 0x38]
  0x878d	inc    	ebp
  0x878e	xor    	eax, eax
  0x8790	mov    	dword ptr [esp + 0x38], edi
  === BLOCK LINK ===
    0x8794
=== CODE BLOCK END ===

=== CODE BLOCK ADDRESS 0x8794 ===
  0x8794	dec    	eax
  0x8795	mov    	ebx, ecx
  0x8797	dec    	eax
  0x8798	call   	dword ptr [0x2e0a]
  === BLOCK LINK ===
    0x879e
=== CODE BLOCK END ===

=== CODE BLOCK ADDRESS 0x879e ===
  0x879e	nop    	dword ptr [eax + eax]
  0x87a3	test   	eax, eax
  0x87a5	jne    	0x87d9
  === BLOCK LINK ===
    0x87a7
=== CODE BLOCK END ===

=== CODE BLOCK ADDRESS 0x87a7 ===
  0x87a7	mov    	eax, 0x4000
  0x87ac	test   	dword ptr [esp + 0x38], eax
  0x87b0	je     	0x87d9
  === BLOCK LINK ===
    0x87b2
=== CODE BLOCK END ===

=== CODE BLOCK ADDRESS 0x87b2 ===
  0x87b2	cmp    	dword ptr [esp + 0x38], eax
  0x87b6	je     	0x87d2
  === BLOCK LINK ===
    0x87b8
=== CODE BLOCK END ===

=== CODE BLOCK ADDRESS 0x87b8 ===
  0x87b8	lea    	edx, [edi + 0x3a]
  0x87bb	dec    	eax
  0x87bc	mov    	ecx, ebx
  0x87be	dec    	eax
  0x87bf	call   	dword ptr [0x2c63]
  === BLOCK LINK ===
    0x87c5
=== CODE BLOCK END ===

=== CODE BLOCK ADDRESS 0x87c5 ===
  0x87c5	nop    	dword ptr [eax + eax]
  0x87ca	dec    	eax
  0x87cb	test   	eax, eax
  0x87cd	je     	0x87d2
  === BLOCK LINK ===
    0x87cf
=== CODE BLOCK END ===

=== CODE BLOCK ADDRESS 0x87cf ===
  0x87cf	mov    	word ptr [eax], di
  0x87d2	mov    	eax, 1
  0x87d7	jmp    	0x87db
  === BLOCK LINK ===
    0x87d9
=== CODE BLOCK END ===

=== CODE BLOCK ADDRESS 0x87d9 ===
  0x87d9	xor    	eax, eax
  0x87db	dec    	eax
  0x87dc	mov    	ebx, dword ptr [esp + 0x30]
  0x87e0	dec    	eax
  0x87e1	add    	esp, 0x20
  === BLOCK LINK ===
    0x87e4
=== CODE BLOCK END ===

=== CODE BLOCK ADDRESS 0x87e4 ===
  0x87e4	pop    	edi
  0x87e5	ret    	
  0x87e6	int3   	
  0x87e7	int3   	
  0x87e8	int3   	
  === BLOCK LINK ===
    0x87e9
=== CODE BLOCK END ===

=== CODE BLOCK ADDRESS 0x87e9 ===
  0x87e9	int3   	
  0x87ea	int3   	
  0x87eb	int3   	
  0x87ec	int3   	
  0x87ed	int3   	
  === BLOCK LINK ===
    0x87ee
=== CODE BLOCK END ===

=== CODE BLOCK ADDRESS 0x87ee ===
  0x87ee	int3   	
  0x87ef	int3   	
  0x87f0	dec    	eax
  0x87f1	mov    	dword ptr [esp + 8], ebx
  0x87f5	push   	edi
  === BLOCK LINK ===
    0x87f6
=== CODE BLOCK END ===

=== CODE BLOCK ADDRESS 0x87f6 ===
  0x87f6	dec    	eax
  0x87f7	sub    	esp, 0x20
  0x87fa	inc    	ebp
  0x87fb	xor    	eax, eax
  0x87fd	dec    	eax
  === BLOCK LINK ===
    0x87fe
=== CODE BLOCK END ===

=== CODE BLOCK ADDRESS 0x87fe ===
  0x87fe	mov    	edi, ecx
  0x8800	inc    	ecx
  0x8801	lea    	edx, [eax + 6]
  0x8804	dec    	eax
  0x8805	call   	dword ptr [0x2d8d]
  === BLOCK LINK ===
    0x880b
=== CODE BLOCK END ===

=== CODE BLOCK ADDRESS 0x880b ===
  0x880b	nop    	dword ptr [eax + eax]
  0x8810	xor    	ebx, ebx
  0x8812	test   	eax, eax
  0x8814	je     	0x882f
  === BLOCK LINK ===
    0x8816
=== CODE BLOCK END ===

=== CODE BLOCK ADDRESS 0x8816 ===
  0x8816	inc    	ebp
  0x8817	xor    	eax, eax
  0x8819	lea    	edx, [ebx + 4]
  0x881c	dec    	eax
  0x881d	mov    	ecx, edi
  === BLOCK LINK ===
    0x881f
=== CODE BLOCK END ===

=== CODE BLOCK ADDRESS 0x881f ===
  0x881f	dec    	eax
  0x8820	call   	dword ptr [0x2d72]
  === BLOCK LINK ===
    0x8826
=== CODE BLOCK END ===

=== CODE BLOCK ADDRESS 0x8826 ===
  0x8826	nop    	dword ptr [eax + eax]
  0x882b	test   	eax, eax
  0x882d	jne    	0x8834
  === BLOCK LINK ===
    0x882f
=== CODE BLOCK END ===

=== CODE BLOCK ADDRESS 0x882f ===
  0x882f	mov    	ebx, 1
  0x8834	mov    	eax, ebx
  0x8836	dec    	eax
  0x8837	mov    	ebx, dword ptr [esp + 0x30]
  0x883b	dec    	eax
  === BLOCK LINK ===
    0x883c
=== CODE BLOCK END ===

=== CODE BLOCK ADDRESS 0x883c ===
  0x883c	add    	esp, 0x20
  0x883f	pop    	edi
  0x8840	ret    	
  0x8841	int3   	
  0x8842	int3   	
  === BLOCK LINK ===
    0x8843
=== CODE BLOCK END ===

=== CODE BLOCK ADDRESS 0x8843 ===
  0x8843	int3   	
  0x8844	int3   	
  0x8845	int3   	
  0x8846	int3   	
  0x8847	int3   	
  === BLOCK LINK ===
    0x8848
=== CODE BLOCK END ===

=== CODE BLOCK ADDRESS 0x8848 ===
  0x8848	inc    	eax
  0x8849	push   	ebx
  0x884a	dec    	eax
  0x884b	sub    	esp, 0x20
  0x884e	movzx  	edx, word ptr [ecx]
  === BLOCK LINK ===
    0x8851
=== CODE BLOCK END ===

=== CODE BLOCK ADDRESS 0x8851 ===
  0x8851	mov    	eax, 0x2a
  0x8856	xor    	ebx, ebx
  0x8858	sub    	edx, eax
  0x885a	jne    	0x8865
  === BLOCK LINK ===
    0x885c
=== CODE BLOCK END ===

=== CODE BLOCK ADDRESS 0x885c ===
  0x885c	movzx  	edx, word ptr [ecx + 2]
  0x8860	movzx  	eax, bx
  0x8863	sub    	edx, eax
  0x8865	test   	edx, edx
  0x8867	jne    	0x886e
  === BLOCK LINK ===
    0x8869
=== CODE BLOCK END ===

=== CODE BLOCK ADDRESS 0x8869 ===
  0x8869	lea    	eax, [edx + 1]
  0x886c	jmp    	0x8888
  === BLOCK LINK ===
    0x886e
=== CODE BLOCK END ===

=== CODE BLOCK ADDRESS 0x886e ===
  0x886e	inc    	ebp
  0x886f	xor    	eax, eax
  0x8871	inc    	ecx
  0x8872	lea    	edx, [eax + 2]
  0x8875	dec    	eax
  === BLOCK LINK ===
    0x8876
=== CODE BLOCK END ===

=== CODE BLOCK ADDRESS 0x8876 ===
  0x8876	call   	dword ptr [0x2d1c]
  === BLOCK LINK ===
    0x887c
=== CODE BLOCK END ===

=== CODE BLOCK ADDRESS 0x887c ===
  0x887c	nop    	dword ptr [eax + eax]
  0x8881	test   	eax, eax
  0x8883	sete   	bl
  0x8886	mov    	eax, ebx
  0x8888	dec    	eax
  === BLOCK LINK ===
    0x8889
=== CODE BLOCK END ===

=== CODE BLOCK ADDRESS 0x8889 ===
  0x8889	add    	esp, 0x20
  0x888c	pop    	ebx
  0x888d	ret    	
  0x888e	int3   	
  0x888f	int3   	
  === BLOCK LINK ===
    0x8890
=== CODE BLOCK END ===

=== CODE BLOCK ADDRESS 0x161e ===
=== CODE BLOCK END ===

=== CODE BLOCK ADDRESS 0x8890 ===
  0x8890	int3   	
  0x8891	int3   	
  0x8892	int3   	
  0x8893	int3   	
  0x8894	int3   	
  === BLOCK LINK ===
    0x8895
=== CODE BLOCK END ===

=== CODE BLOCK ADDRESS 0x8895 ===
  0x8895	int3   	
  0x8896	int3   	
  0x8897	int3   	
  0x8898	dec    	eax
  0x8899	mov    	dword ptr [esp + 0x10], ebx
  === BLOCK LINK ===
    0x889d
=== CODE BLOCK END ===

=== CODE BLOCK ADDRESS 0x889d ===
  0x889d	dec    	eax
  0x889e	mov    	dword ptr [esp + 0x18], esi
  0x88a2	push   	edi
  0x88a3	dec    	eax
  0x88a4	sub    	esp, 0x260
  === BLOCK LINK ===
    0x88aa
=== CODE BLOCK END ===

=== CODE BLOCK ADDRESS 0x88aa ===
  0x88aa	dec    	eax
  0x88ab	mov    	eax, dword ptr [0x59d7]
  0x88b1	dec    	eax
  0x88b2	xor    	eax, esp
  0x88b4	dec    	eax
  === BLOCK LINK ===
    0x88b5
=== CODE BLOCK END ===

=== CODE BLOCK ADDRESS 0x88b5 ===
  0x88b5	mov    	dword ptr [esp + 0x250], eax
  0x88bc	dec    	eax
  0x88bd	or     	eax, 0xffffffff
  0x88c0	dec    	eax
  0x88c1	mov    	esi, ecx
  === BLOCK LINK ===
    0x88c3
=== CODE BLOCK END ===

=== CODE BLOCK ADDRESS 0x88c3 ===
  0x88c3	xor    	ebx, ebx
  0x88c5	dec    	eax
  0x88c6	inc    	eax
  0x88c8	cmp    	word ptr [ecx + eax*2], bx
  0x88cc	jne    	0x88c5
  === BLOCK LINK ===
    0x88ce
=== CODE BLOCK END ===

=== CODE BLOCK ADDRESS 0x88ce ===
  0x88ce	mov    	edx, 0x111
  0x88d3	dec    	eax
  0x88d4	cmp    	eax, edx
  0x88d6	jb     	0x88df
  === BLOCK LINK ===
    0x88d8
=== CODE BLOCK END ===

=== CODE BLOCK ADDRESS 0x88d8 ===
  0x88d8	xor    	eax, eax
  0x88da	jmp    	0x8995
  === BLOCK LINK ===
    0x88df
=== CODE BLOCK END ===

=== CODE BLOCK ADDRESS 0x88df ===
  0x88df	dec    	esp
  0x88e0	mov    	eax, esi
  0x88e2	dec    	eax
  0x88e3	lea    	ecx, [esp + 0x20]
  0x88e7	dec    	eax
  === BLOCK LINK ===
    0x88e8
=== CODE BLOCK END ===

=== CODE BLOCK ADDRESS 0x88e8 ===
  0x88e8	call   	dword ptr [0x2c52]
  === BLOCK LINK ===
    0x88ee
=== CODE BLOCK END ===

=== CODE BLOCK ADDRESS 0x88ee ===
  0x88ee	nop    	dword ptr [eax + eax]
  0x88f3	mov    	edx, 0x5c
  0x88f8	dec    	eax
  0x88f9	lea    	ecx, [esp + 0x20]
  0x88fd	dec    	eax
  === BLOCK LINK ===
    0x88fe
=== CODE BLOCK END ===

=== CODE BLOCK ADDRESS 0x88fe ===
  0x88fe	call   	dword ptr [0x2b24]
  === BLOCK LINK ===
    0x8904
=== CODE BLOCK END ===

=== CODE BLOCK ADDRESS 0x8904 ===
  0x8904	nop    	dword ptr [eax + eax]
  0x8909	dec    	eax
  0x890a	lea    	ecx, [esp + 0x20]
  0x890e	dec    	eax
  0x890f	mov    	edi, eax
  === BLOCK LINK ===
    0x8911
=== CODE BLOCK END ===

=== CODE BLOCK ADDRESS 0x8911 ===
  0x8911	dec    	eax
  0x8912	test   	eax, eax
  0x8914	je     	0x895c
  === BLOCK LINK ===
    0x8916
=== CODE BLOCK END ===

=== CODE BLOCK ADDRESS 0x8916 ===
  0x8916	mov    	word ptr [eax], bx
  0x8919	dec    	eax
  0x891a	add    	edi, 2
  0x891d	call   	0x87f0
  === BLOCK LINK ===
    0x8922
=== CODE BLOCK END ===

=== CODE BLOCK ADDRESS 0x8922 ===
  0x8922	test   	eax, eax
  0x8924	je     	0x8993
  === BLOCK LINK ===
    0x8926
=== CODE BLOCK END ===

=== CODE BLOCK ADDRESS 0x8926 ===
  0x8926	mov    	edx, 0x40
  0x892b	dec    	eax
  0x892c	mov    	ecx, edi
  0x892e	dec    	eax
  0x892f	call   	dword ptr [0x2af3]
  === BLOCK LINK ===
    0x8935
=== CODE BLOCK END ===

=== CODE BLOCK ADDRESS 0x8935 ===
  0x8935	nop    	dword ptr [eax + eax]
  0x893a	dec    	eax
  0x893b	mov    	ecx, edi
  0x893d	dec    	eax
  0x893e	test   	eax, eax
  === BLOCK LINK ===
    0x8940
=== CODE BLOCK END ===

=== CODE BLOCK ADDRESS 0x8940 ===
  0x8940	je     	0x898c
  === BLOCK LINK ===
    0x8942
=== CODE BLOCK END ===

=== CODE BLOCK ADDRESS 0x8942 ===
  0x8942	inc    	ebp
  0x8943	xor    	eax, eax
  0x8945	inc    	ecx
  0x8946	lea    	edx, [eax + 1]
  0x8949	dec    	eax
  === BLOCK LINK ===
    0x894a
=== CODE BLOCK END ===

=== CODE BLOCK ADDRESS 0x894a ===
  0x894a	call   	dword ptr [0x2c48]
  === BLOCK LINK ===
    0x8950
=== CODE BLOCK END ===

=== CODE BLOCK ADDRESS 0x8950 ===
  0x8950	nop    	dword ptr [eax + eax]
  0x8955	test   	eax, eax
  0x8957	sete   	bl
  0x895a	jmp    	0x8993
  === BLOCK LINK ===
    0x895c
=== CODE BLOCK END ===

=== CODE BLOCK ADDRESS 0x895c ===
  0x895c	mov    	edx, 0x40
  0x8961	dec    	eax
  0x8962	call   	dword ptr [0x2ac0]
  === BLOCK LINK ===
    0x8968
=== CODE BLOCK END ===

=== CODE BLOCK ADDRESS 0x8968 ===
  0x8968	nop    	dword ptr [eax + eax]
  0x896d	dec    	eax
  0x896e	test   	eax, eax
  0x8970	je     	0x8989
  === BLOCK LINK ===
    0x8972
=== CODE BLOCK END ===

=== CODE BLOCK ADDRESS 0x8972 ===
  0x8972	dec    	eax
  0x8973	lea    	ecx, [eax + 2]
  0x8976	mov    	word ptr [eax], bx
  0x8979	call   	0x87f0
  === BLOCK LINK ===
    0x897e
=== CODE BLOCK END ===

=== CODE BLOCK ADDRESS 0x897e ===
  0x897e	test   	eax, eax
  0x8980	je     	0x8993
  === BLOCK LINK ===
    0x8982
=== CODE BLOCK END ===

=== CODE BLOCK ADDRESS 0x8982 ===
  0x8982	dec    	eax
  0x8983	lea    	ecx, [esp + 0x20]
  0x8987	jmp    	0x898c
  === BLOCK LINK ===
    0x8989
=== CODE BLOCK END ===

=== CODE BLOCK ADDRESS 0x8989 ===
  0x8989	dec    	eax
  0x898a	mov    	ecx, esi
  0x898c	call   	0x8a48
  === BLOCK LINK ===
    0x8991
=== CODE BLOCK END ===

=== CODE BLOCK ADDRESS 0x8991 ===
  0x8991	mov    	ebx, eax
  0x8993	mov    	eax, ebx
  0x8995	dec    	eax
  0x8996	mov    	ecx, dword ptr [esp + 0x250]
  0x899d	dec    	eax
  === BLOCK LINK ===
    0x899e
=== CODE BLOCK END ===

=== CODE BLOCK ADDRESS 0x899e ===
  0x899e	xor    	ecx, esp
  0x89a0	call   	0x2900
  === BLOCK LINK ===
    0x89a5
=== CODE BLOCK END ===

=== CODE BLOCK ADDRESS 0x89a5 ===
  0x89a5	dec    	esp
  0x89a6	lea    	ebx, [esp + 0x260]
  0x89ad	dec    	ecx
  0x89ae	mov    	ebx, dword ptr [ebx + 0x18]
  0x89b1	dec    	ecx
  === BLOCK LINK ===
    0x89b2
=== CODE BLOCK END ===

=== CODE BLOCK ADDRESS 0x89b2 ===
  0x89b2	mov    	esi, dword ptr [ebx + 0x20]
  0x89b5	dec    	ecx
  0x89b6	mov    	esp, ebx
  0x89b8	pop    	edi
  0x89b9	ret    	
  === BLOCK LINK ===
    0x89ba
=== CODE BLOCK END ===

=== CODE BLOCK ADDRESS 0x89ba ===
  0x89ba	int3   	
  0x89bb	int3   	
  0x89bc	int3   	
  0x89bd	int3   	
  0x89be	int3   	
  === BLOCK LINK ===
    0x89bf
=== CODE BLOCK END ===

=== CODE BLOCK ADDRESS 0x89bf ===
  0x89bf	int3   	
  0x89c0	int3   	
  0x89c1	int3   	
  0x89c2	int3   	
  0x89c3	int3   	
  === BLOCK LINK ===
    0x89c4
=== CODE BLOCK END ===

=== CODE BLOCK ADDRESS 0x89c4 ===
  0x89c4	dec    	eax
  0x89c5	mov    	dword ptr [esp + 8], ebx
  0x89c9	push   	edi
  0x89ca	dec    	eax
  0x89cb	sub    	esp, 0x20
  === BLOCK LINK ===
    0x89ce
=== CODE BLOCK END ===

=== CODE BLOCK ADDRESS 0x89ce ===
  0x89ce	xor    	ebx, ebx
  0x89d0	dec    	eax
  0x89d1	lea    	edx, [esp + 0x38]
  0x89d5	inc    	ebp
  0x89d6	xor    	eax, eax
  === BLOCK LINK ===
    0x89d8
=== CODE BLOCK END ===

=== CODE BLOCK ADDRESS 0x89d8 ===
  0x89d8	mov    	dword ptr [esp + 0x38], ebx
  0x89dc	dec    	eax
  0x89dd	mov    	edi, ecx
  0x89df	dec    	eax
  0x89e0	call   	dword ptr [0x2bc2]
  === BLOCK LINK ===
    0x89e6
=== CODE BLOCK END ===

=== CODE BLOCK ADDRESS 0x89e6 ===
  0x89e6	nop    	dword ptr [eax + eax]
  0x89eb	test   	eax, eax
  0x89ed	je     	0x89f3
  === BLOCK LINK ===
    0x89ef
=== CODE BLOCK END ===

=== CODE BLOCK ADDRESS 0x89ef ===
  0x89ef	xor    	eax, eax
  0x89f1	jmp    	0x8a34
  === BLOCK LINK ===
    0x89f3
=== CODE BLOCK END ===

=== CODE BLOCK ADDRESS 0x89f3 ===
  0x89f3	mov    	eax, dword ptr [esp + 0x38]
  0x89f7	cmp    	eax, 0x2006
  0x89fc	je     	0x8a2d
  === BLOCK LINK ===
    0x89fe
=== CODE BLOCK END ===

=== CODE BLOCK ADDRESS 0x89fe ===
  0x89fe	cmp    	eax, 0x2002
  0x8a03	je     	0x8a2d
  === BLOCK LINK ===
    0x8a05
=== CODE BLOCK END ===

=== CODE BLOCK ADDRESS 0x8a05 ===
  0x8a05	cmp    	eax, 0x4000
  0x8a0a	je     	0x8a2d
  === BLOCK LINK ===
    0x8a0c
=== CODE BLOCK END ===

=== CODE BLOCK ADDRESS 0x8a0c ===
  0x8a0c	cmp    	eax, 0x2b02
  0x8a11	je     	0x8a2d
  === BLOCK LINK ===
    0x8a13
=== CODE BLOCK END ===

=== CODE BLOCK ADDRESS 0x8a13 ===
  0x8a13	cmp    	eax, 0x2c02
  0x8a18	je     	0x8a2d
  === BLOCK LINK ===
    0x8a1a
=== CODE BLOCK END ===

=== CODE BLOCK ADDRESS 0x8a1a ===
  0x8a1a	cmp    	eax, 0x2d02
  0x8a1f	je     	0x8a2d
  === BLOCK LINK ===
    0x8a21
=== CODE BLOCK END ===

=== CODE BLOCK ADDRESS 0x8a21 ===
  0x8a21	dec    	eax
  0x8a22	mov    	ecx, edi
  0x8a24	call   	0x8ac4
  === BLOCK LINK ===
    0x8a29
=== CODE BLOCK END ===

=== CODE BLOCK ADDRESS 0x8a29 ===
  0x8a29	test   	eax, eax
  0x8a2b	je     	0x8a32
  === BLOCK LINK ===
    0x8a2d
=== CODE BLOCK END ===

=== CODE BLOCK ADDRESS 0x8a2d ===
  0x8a2d	mov    	ebx, 1
  0x8a32	mov    	eax, ebx
  0x8a34	dec    	eax
  0x8a35	mov    	ebx, dword ptr [esp + 0x30]
  0x8a39	dec    	eax
  === BLOCK LINK ===
    0x8a3a
=== CODE BLOCK END ===

=== CODE BLOCK ADDRESS 0x8a3a ===
  0x8a3a	add    	esp, 0x20
  0x8a3d	pop    	edi
  0x8a3e	ret    	
  0x8a3f	int3   	
  0x8a40	int3   	
  === BLOCK LINK ===
    0x8a41
=== CODE BLOCK END ===

=== CODE BLOCK ADDRESS 0x173e ===
  0x173e	movzx  	eax, word ptr [0x15f93]
  0x1745	inc    	dx
  0x1747	cmp    	dword ptr [esi + ecx + 0xbb50], eax
  === BLOCK LINK ===
    0x174e
=== CODE BLOCK END ===

=== CODE BLOCK ADDRESS 0x8a41 ===
  0x8a41	int3   	
  0x8a42	int3   	
  0x8a43	int3   	
  0x8a44	int3   	
  0x8a45	int3   	
  === BLOCK LINK ===
    0x8a46
=== CODE BLOCK END ===

=== CODE BLOCK ADDRESS 0x8a46 ===
  0x8a46	int3   	
  0x8a47	int3   	
  0x8a48	dec    	eax
  0x8a49	sub    	esp, 0x28
  0x8a4c	mov    	edx, 1
  === BLOCK LINK ===
    0x8a51
=== CODE BLOCK END ===

=== CODE BLOCK ADDRESS 0x8a51 ===
  0x8a51	inc    	ecx
  0x8a52	mov    	eax, 0x80000000
  0x8a57	dec    	eax
  0x8a58	call   	dword ptr [0x2b3a]
  === BLOCK LINK ===
    0x8a5e
=== CODE BLOCK END ===

=== CODE BLOCK ADDRESS 0x8a5e ===
  0x8a5e	nop    	dword ptr [eax + eax]
  0x8a63	xor    	ecx, ecx
  0x8a65	test   	eax, eax
  0x8a67	sete   	cl
  0x8a6a	mov    	eax, ecx
  === BLOCK LINK ===
    0x8a6c
=== CODE BLOCK END ===

=== CODE BLOCK ADDRESS 0x8a6c ===
  0x8a6c	dec    	eax
  0x8a6d	add    	esp, 0x28
  0x8a70	ret    	
  0x8a71	int3   	
  0x8a72	int3   	
  === BLOCK LINK ===
    0x8a73
=== CODE BLOCK END ===

=== CODE BLOCK ADDRESS 0x8a73 ===
  0x8a73	int3   	
  0x8a74	int3   	
  0x8a75	int3   	
  0x8a76	int3   	
  0x8a77	int3   	
  === BLOCK LINK ===
    0x8a78
=== CODE BLOCK END ===

=== CODE BLOCK ADDRESS 0x8a78 ===
  0x8a78	xor    	edx, edx
  0x8a7a	dec    	esp
  0x8a7b	mov    	eax, ecx
  0x8a7d	dec    	eax
  0x8a7e	test   	ecx, ecx
  === BLOCK LINK ===
    0x8a80
=== CODE BLOCK END ===

=== CODE BLOCK ADDRESS 0x8a80 ===
  0x8a80	jne    	0x8a86
  === BLOCK LINK ===
    0x8a82
=== CODE BLOCK END ===

=== CODE BLOCK ADDRESS 0x8a82 ===
  0x8a82	xor    	eax, eax
  0x8a84	ret    	
  0x8a85	int3   	
  0x8a86	movzx  	ecx, word ptr [ecx]
  0x8a89	sub    	ecx, 0x2a
  === BLOCK LINK ===
    0x8a8c
=== CODE BLOCK END ===

=== CODE BLOCK ADDRESS 0x8a8c ===
  0x8a8c	jne    	0x8a98
  === BLOCK LINK ===
    0x8a8e
=== CODE BLOCK END ===

=== CODE BLOCK ADDRESS 0x8a8e ===
  0x8a8e	inc    	ecx
  0x8a8f	movzx  	ecx, word ptr [eax + 2]
  0x8a93	movzx  	eax, dx
  0x8a96	sub    	ecx, eax
  0x8a98	test   	ecx, ecx
  === BLOCK LINK ===
    0x8a9a
=== CODE BLOCK END ===

=== CODE BLOCK ADDRESS 0x8a9a ===
  0x8a9a	je     	0x8ab3
  === BLOCK LINK ===
    0x8a9c
=== CODE BLOCK END ===

=== CODE BLOCK ADDRESS 0x8a9c ===
  0x8a9c	inc    	ecx
  0x8a9d	movzx  	ecx, word ptr [eax]
  0x8aa0	sub    	ecx, 0x3f
  0x8aa3	jne    	0x8aaf
  === BLOCK LINK ===
    0x8aa5
=== CODE BLOCK END ===

=== CODE BLOCK ADDRESS 0x8aa5 ===
  0x8aa5	inc    	ecx
  0x8aa6	movzx  	ecx, word ptr [eax + 2]
  0x8aaa	movzx  	eax, dx
  0x8aad	sub    	ecx, eax
  0x8aaf	test   	ecx, ecx
  === BLOCK LINK ===
    0x8ab1
=== CODE BLOCK END ===

=== CODE BLOCK ADDRESS 0x8ab1 ===
  0x8ab1	jne    	0x8ab8
  === BLOCK LINK ===
    0x8ab3
=== CODE BLOCK END ===

=== CODE BLOCK ADDRESS 0x8ab3 ===
  0x8ab3	mov    	edx, 1
  0x8ab8	mov    	eax, edx
  0x8aba	ret    	
  0x8abb	int3   	
  0x8abc	int3   	
  === BLOCK LINK ===
    0x8abd
=== CODE BLOCK END ===

=== CODE BLOCK ADDRESS 0x8abd ===
  0x8abd	int3   	
  0x8abe	int3   	
  0x8abf	int3   	
  0x8ac0	int3   	
  0x8ac1	int3   	
  === BLOCK LINK ===
    0x8ac2
=== CODE BLOCK END ===

=== CODE BLOCK ADDRESS 0x8ac2 ===
  0x8ac2	int3   	
  0x8ac3	int3   	
  0x8ac4	dec    	eax
  0x8ac5	mov    	dword ptr [esp + 8], ebx
  0x8ac9	push   	edi
  === BLOCK LINK ===
    0x8aca
=== CODE BLOCK END ===

=== CODE BLOCK ADDRESS 0x8aca ===
  0x8aca	dec    	eax
  0x8acb	sub    	esp, 0x20
  0x8ace	dec    	eax
  0x8acf	lea    	edx, [0x3453]
  0x8ad5	dec    	eax
  === BLOCK LINK ===
    0x8ad6
=== CODE BLOCK END ===

=== CODE BLOCK ADDRESS 0x8ad6 ===
  0x8ad6	mov    	edi, ecx
  0x8ad8	dec    	eax
  0x8ad9	call   	dword ptr [0x2959]
  === BLOCK LINK ===
    0x8adf
=== CODE BLOCK END ===

=== CODE BLOCK ADDRESS 0x8adf ===
  0x8adf	nop    	dword ptr [eax + eax]
  0x8ae4	xor    	ebx, ebx
  0x8ae6	test   	eax, eax
  0x8ae8	je     	0x8b1e
  === BLOCK LINK ===
    0x8aea
=== CODE BLOCK END ===

=== CODE BLOCK ADDRESS 0x8aea ===
  0x8aea	dec    	eax
  0x8aeb	lea    	edx, [0x3447]
  0x8af1	dec    	eax
  0x8af2	mov    	ecx, edi
  0x8af4	dec    	eax
  === BLOCK LINK ===
    0x8af5
=== CODE BLOCK END ===

=== CODE BLOCK ADDRESS 0x8af5 ===
  0x8af5	call   	dword ptr [0x293d]
  === BLOCK LINK ===
    0x8afb
=== CODE BLOCK END ===

=== CODE BLOCK ADDRESS 0x8afb ===
  0x8afb	nop    	dword ptr [eax + eax]
  0x8b00	test   	eax, eax
  0x8b02	je     	0x8b1e
  === BLOCK LINK ===
    0x8b04
=== CODE BLOCK END ===

=== CODE BLOCK ADDRESS 0x8b04 ===
  0x8b04	dec    	eax
  0x8b05	lea    	edx, [0x343d]
  0x8b0b	dec    	eax
  0x8b0c	mov    	ecx, edi
  0x8b0e	dec    	eax
  === BLOCK LINK ===
    0x8b0f
=== CODE BLOCK END ===

=== CODE BLOCK ADDRESS 0x8b0f ===
  0x8b0f	call   	dword ptr [0x2923]
  === BLOCK LINK ===
    0x8b15
=== CODE BLOCK END ===

=== CODE BLOCK ADDRESS 0x8b15 ===
  0x8b15	nop    	dword ptr [eax + eax]
  0x8b1a	test   	eax, eax
  0x8b1c	jne    	0x8b23
  === BLOCK LINK ===
    0x8b1e
=== CODE BLOCK END ===

=== CODE BLOCK ADDRESS 0x8b1e ===
  0x8b1e	mov    	ebx, 1
  0x8b23	mov    	eax, ebx
  0x8b25	dec    	eax
  0x8b26	mov    	ebx, dword ptr [esp + 0x30]
  0x8b2a	dec    	eax
  === BLOCK LINK ===
    0x8b2b
=== CODE BLOCK END ===

=== CODE BLOCK ADDRESS 0x8b2b ===
  0x8b2b	add    	esp, 0x20
  0x8b2e	pop    	edi
  0x8b2f	ret    	
  0x8b30	int3   	
  0x8b31	int3   	
  === BLOCK LINK ===
    0x8b32
=== CODE BLOCK END ===

=== CODE BLOCK ADDRESS 0x1788 ===
  0x1788	mov    	eax, dword ptr [esi + 8]
  0x178b	dec    	esp
  0x178c	lea    	ecx, [0xffffe86e]
  === BLOCK LINK ===
    0x1792
=== CODE BLOCK END ===

=== CODE BLOCK ADDRESS 0x8b32 ===
  0x8b32	int3   	
  0x8b33	int3   	
  0x8b34	int3   	
  0x8b35	int3   	
  0x8b36	int3   	
  === BLOCK LINK ===
    0x8b37
=== CODE BLOCK END ===

=== CODE BLOCK ADDRESS 0x8b37 ===
  0x8b37	int3   	
  0x8b38	dec    	eax
  0x8b39	mov    	dword ptr [esp + 8], ebx
  0x8b3d	push   	edi
  0x8b3e	dec    	eax
  === BLOCK LINK ===
    0x8b3f
=== CODE BLOCK END ===

=== CODE BLOCK ADDRESS 0x8b3f ===
  0x8b3f	sub    	esp, 0x20
  0x8b42	dec    	eax
  0x8b43	mov    	eax, dword ptr [0xfe67]
  0x8b49	dec    	eax
  0x8b4a	lea    	ebx, [0xfe60]
  === BLOCK LINK ===
    0x8b50
=== CODE BLOCK END ===

=== CODE BLOCK ADDRESS 0x8b50 ===
  0x8b50	dec    	eax
  0x8b51	mov    	edi, ecx
  0x8b53	jmp    	0x8b6b
  === BLOCK LINK ===
    0x8b55
=== CODE BLOCK END ===

=== CODE BLOCK ADDRESS 0x8b55 ===
  0x8b55	dec    	eax
  0x8b56	mov    	edx, eax
  0x8b58	dec    	eax
  0x8b59	mov    	ecx, edi
  0x8b5b	call   	0x8bb0
  === BLOCK LINK ===
    0x8b60
=== CODE BLOCK END ===

=== CODE BLOCK ADDRESS 0x8b60 ===
  0x8b60	test   	eax, eax
  0x8b62	jns    	0x8b7c
  === BLOCK LINK ===
    0x8b64
=== CODE BLOCK END ===

=== CODE BLOCK ADDRESS 0x8b64 ===
  0x8b64	dec    	eax
  0x8b65	add    	ebx, 8
  0x8b68	dec    	eax
  0x8b69	mov    	eax, dword ptr [ebx]
  0x8b6b	dec    	eax
  === BLOCK LINK ===
    0x8b6c
=== CODE BLOCK END ===

=== CODE BLOCK ADDRESS 0x8b6c ===
  0x8b6c	test   	eax, eax
  0x8b6e	jne    	0x8b55
  === BLOCK LINK ===
    0x8b70
=== CODE BLOCK END ===

=== CODE BLOCK ADDRESS 0x8b70 ===
  0x8b70	dec    	eax
  0x8b71	mov    	ebx, dword ptr [esp + 0x30]
  0x8b75	dec    	eax
  0x8b76	add    	esp, 0x20
  0x8b79	pop    	edi
  === BLOCK LINK ===
    0x8b7a
=== CODE BLOCK END ===

=== CODE BLOCK ADDRESS 0x8b7a ===
  0x8b7a	ret    	
  0x8b7b	int3   	
  0x8b7c	mov    	eax, 1
  0x8b81	jmp    	0x8b70
  === BLOCK LINK ===
    0x8b83
=== CODE BLOCK END ===

=== CODE BLOCK ADDRESS 0x8b83 ===
  0x8b83	int3   	
  0x8b84	int3   	
  0x8b85	int3   	
  0x8b86	int3   	
  0x8b87	int3   	
  === BLOCK LINK ===
    0x8b88
=== CODE BLOCK END ===

=== CODE BLOCK ADDRESS 0x8b88 ===
  0x8b88	int3   	
  0x8b89	int3   	
  0x8b8a	int3   	
  0x8b8b	int3   	
  0x8b8c	xor    	eax, eax
  === BLOCK LINK ===
    0x8b8e
=== CODE BLOCK END ===

=== CODE BLOCK ADDRESS 0x8b8e ===
  0x8b8e	dec    	eax
  0x8b8f	cmp    	dword ptr [0xfe1b], eax
  0x8b95	je     	0x8ba5
  === BLOCK LINK ===
    0x8b97
=== CODE BLOCK END ===

=== CODE BLOCK ADDRESS 0x8b97 ===
  0x8b97	dec    	eax
  0x8b98	cmp    	dword ptr [0xfe1a], eax
  0x8b9e	jne    	0x8ba5
  === BLOCK LINK ===
    0x8ba0
=== CODE BLOCK END ===

=== CODE BLOCK ADDRESS 0x8ba0 ===
  0x8ba0	mov    	eax, 1
  0x8ba5	ret    	
  0x8ba6	int3   	
  0x8ba7	int3   	
  0x8ba8	int3   	
  === BLOCK LINK ===
    0x8ba9
=== CODE BLOCK END ===

=== CODE BLOCK ADDRESS 0x8ba9 ===
  0x8ba9	int3   	
  0x8baa	int3   	
  0x8bab	int3   	
  0x8bac	int3   	
  0x8bad	int3   	
  === BLOCK LINK ===
    0x8bae
=== CODE BLOCK END ===

=== CODE BLOCK ADDRESS 0x8bae ===
  0x8bae	int3   	
  0x8baf	int3   	
  0x8bb0	dec    	eax
  0x8bb1	mov    	eax, esp
  0x8bb3	dec    	eax
  === BLOCK LINK ===
    0x8bb4
=== CODE BLOCK END ===

=== CODE BLOCK ADDRESS 0x8bb4 ===
  0x8bb4	mov    	dword ptr [eax + 8], ebx
  0x8bb7	dec    	eax
  0x8bb8	mov    	dword ptr [eax + 0x10], ebp
  0x8bbb	dec    	eax
  0x8bbc	mov    	dword ptr [eax + 0x18], esi
  === BLOCK LINK ===
    0x8bbf
=== CODE BLOCK END ===

=== CODE BLOCK ADDRESS 0x8bbf ===
  0x8bbf	dec    	eax
  0x8bc0	mov    	dword ptr [eax + 0x20], edi
  0x8bc3	inc    	ecx
  0x8bc4	push   	esi
  0x8bc5	dec    	eax
  === BLOCK LINK ===
    0x8bc6
=== CODE BLOCK END ===

=== CODE BLOCK ADDRESS 0x8bc6 ===
  0x8bc6	sub    	esp, 0x20
  0x8bc9	dec    	esp
  0x8bca	mov    	esi, edx
  0x8bcc	dec    	eax
  0x8bcd	mov    	ebp, ecx
  === BLOCK LINK ===
    0x8bcf
=== CODE BLOCK END ===

=== CODE BLOCK ADDRESS 0x8bcf ===
  0x8bcf	dec    	ecx
  0x8bd0	mov    	ecx, esi
  0x8bd2	dec    	eax
  0x8bd3	lea    	edx, [0x337b]
  0x8bd9	dec    	eax
  === BLOCK LINK ===
    0x8bda
=== CODE BLOCK END ===

=== CODE BLOCK ADDRESS 0x8bda ===
  0x8bda	call   	dword ptr [0x28e8]
  === BLOCK LINK ===
    0x8be0
=== CODE BLOCK END ===

=== CODE BLOCK ADDRESS 0x8be0 ===
  0x8be0	nop    	dword ptr [eax + eax]
  0x8be5	dec    	eax
  0x8be6	or     	ebx, 0xffffffff
  0x8be9	cmp    	eax, 2
  0x8bec	jb     	0x8c32
  === BLOCK LINK ===
    0x8bee
=== CODE BLOCK END ===

=== CODE BLOCK ADDRESS 0x8bee ===
  0x8bee	mov    	esi, eax
  0x8bf0	xor    	edi, edi
  0x8bf2	dec    	eax
  0x8bf3	mov    	eax, ebx
  0x8bf5	dec    	eax
  === BLOCK LINK ===
    0x8bf6
=== CODE BLOCK END ===

=== CODE BLOCK ADDRESS 0x8bf6 ===
  0x8bf6	inc    	eax
  0x8bf8	cmp    	word ptr [ebp + eax*2], di
  0x8bfd	jne    	0x8bf5
  === BLOCK LINK ===
    0x8bff
=== CODE BLOCK END ===

=== CODE BLOCK ADDRESS 0x8bff ===
  0x8bff	dec    	eax
  0x8c00	cmp    	esi, eax
  0x8c02	ja     	0x8c32
  === BLOCK LINK ===
    0x8c04
=== CODE BLOCK END ===

=== CODE BLOCK ADDRESS 0x8c04 ===
  0x8c04	dec    	esp
  0x8c05	mov    	eax, esi
  0x8c07	dec    	ecx
  0x8c08	mov    	edx, esi
  0x8c0a	dec    	eax
  === BLOCK LINK ===
    0x8c0b
=== CODE BLOCK END ===

=== CODE BLOCK ADDRESS 0x8c0b ===
  0x8c0b	mov    	ecx, ebp
  0x8c0d	dec    	eax
  0x8c0e	call   	dword ptr [0x287c]
  === BLOCK LINK ===
    0x8c14
=== CODE BLOCK END ===

=== CODE BLOCK ADDRESS 0x8c14 ===
  0x8c14	nop    	dword ptr [eax + eax]
  0x8c19	test   	eax, eax
  0x8c1b	jne    	0x8c32
  === BLOCK LINK ===
    0x8c1d
=== CODE BLOCK END ===

=== CODE BLOCK ADDRESS 0x8c1d ===
  0x8c1d	dec    	eax
  0x8c1e	inc    	ebx
  0x8c20	cmp    	word ptr [ebp + ebx*2], di
  0x8c25	jne    	0x8c1d
  === BLOCK LINK ===
    0x8c27
=== CODE BLOCK END ===

=== CODE BLOCK ADDRESS 0x8c27 ===
  0x8c27	dec    	eax
  0x8c28	cmp    	esi, ebx
  0x8c2a	inc    	eax
  0x8c2b	setne  	bh
  0x8c2e	mov    	eax, edi
  === BLOCK LINK ===
    0x8c30
=== CODE BLOCK END ===

=== CODE BLOCK ADDRESS 0x8c30 ===
  0x8c30	jmp    	0x8c34
  === BLOCK LINK ===
    0x8c32
=== CODE BLOCK END ===

=== CODE BLOCK ADDRESS 0x8c32 ===
  0x8c32	mov    	eax, ebx
  0x8c34	dec    	eax
  0x8c35	mov    	ebx, dword ptr [esp + 0x30]
  0x8c39	dec    	eax
  0x8c3a	mov    	ebp, dword ptr [esp + 0x38]
  === BLOCK LINK ===
    0x8c3e
=== CODE BLOCK END ===

=== CODE BLOCK ADDRESS 0x8c3e ===
  0x8c3e	dec    	eax
  0x8c3f	mov    	esi, dword ptr [esp + 0x40]
  0x8c43	dec    	eax
  0x8c44	mov    	edi, dword ptr [esp + 0x48]
  0x8c48	dec    	eax
  === BLOCK LINK ===
    0x8c49
=== CODE BLOCK END ===

=== CODE BLOCK ADDRESS 0x8c49 ===
  0x8c49	add    	esp, 0x20
  0x8c4c	inc    	ecx
  0x8c4d	pop    	esi
  0x8c4e	ret    	
  0x8c4f	int3   	
  === BLOCK LINK ===
    0x8c50
=== CODE BLOCK END ===

=== CODE BLOCK ADDRESS 0x8c50 ===
  0x8c50	int3   	
  0x8c51	int3   	
  0x8c52	int3   	
  0x8c53	int3   	
  0x8c54	int3   	
  === BLOCK LINK ===
    0x8c55
=== CODE BLOCK END ===

=== CODE BLOCK ADDRESS 0x8c55 ===
  0x8c55	int3   	
  0x8c56	int3   	
  0x8c57	int3   	
  0x8c58	dec    	eax
  0x8c59	mov    	dword ptr [esp + 8], ebx
  === BLOCK LINK ===
    0x8c5d
=== CODE BLOCK END ===

=== CODE BLOCK ADDRESS 0x8c5d ===
  0x8c5d	push   	edi
  0x8c5e	dec    	eax
  0x8c5f	sub    	esp, 0x60
  0x8c62	dec    	eax
  0x8c63	mov    	dword ptr [esp + 0x50], esp
  === BLOCK LINK ===
    0x8c67
=== CODE BLOCK END ===

=== CODE BLOCK ADDRESS 0x8c67 ===
  0x8c67	dec    	eax
  0x8c68	mov    	edi, edx
  0x8c6a	dec    	eax
  0x8c6b	and    	dword ptr [esp + 0x40], 0
  0x8c70	dec    	esp
  === BLOCK LINK ===
    0x8c71
=== CODE BLOCK END ===

=== CODE BLOCK ADDRESS 0x8c71 ===
  0x8c71	lea    	eax, [esp + 0x38]
  0x8c75	mov    	edx, 0x65
  0x8c7a	xor    	ecx, ecx
  0x8c7c	dec    	eax
  0x8c7d	call   	dword ptr [0x299d]
  === BLOCK LINK ===
    0x8c83
=== CODE BLOCK END ===

=== CODE BLOCK ADDRESS 0x8c83 ===
  0x8c83	nop    	dword ptr [eax + eax]
  0x8c88	test   	eax, eax
  0x8c8a	jne    	0x8cbb
  === BLOCK LINK ===
    0x8c8c
=== CODE BLOCK END ===

=== CODE BLOCK ADDRESS 0x8c8c ===
  0x8c8c	dec    	esp
  0x8c8d	lea    	eax, [esp + 0x48]
  0x8c91	lea    	edx, [eax + 1]
  0x8c94	xor    	ecx, ecx
  0x8c96	dec    	eax
  === BLOCK LINK ===
    0x8c97
=== CODE BLOCK END ===

=== CODE BLOCK ADDRESS 0x8c97 ===
  0x8c97	call   	dword ptr [0x297b]
  === BLOCK LINK ===
    0x8c9d
=== CODE BLOCK END ===

=== CODE BLOCK ADDRESS 0x8c9d ===
  0x8c9d	nop    	dword ptr [eax + eax]
  0x8ca2	mov    	ebx, eax
  0x8ca4	test   	eax, eax
  0x8ca6	je     	0x8cc7
  === BLOCK LINK ===
    0x8ca8
=== CODE BLOCK END ===

=== CODE BLOCK ADDRESS 0x8ca8 ===
  0x8ca8	dec    	eax
  0x8ca9	mov    	ecx, dword ptr [esp + 0x38]
  0x8cad	dec    	eax
  0x8cae	call   	dword ptr [0x2904]
  === BLOCK LINK ===
    0x8cb4
=== CODE BLOCK END ===

=== CODE BLOCK ADDRESS 0x8cb4 ===
  0x8cb4	nop    	dword ptr [eax + eax]
  0x8cb9	mov    	eax, ebx
  0x8cbb	dec    	eax
  0x8cbc	mov    	ebx, dword ptr [esp + 0x70]
  0x8cc0	dec    	eax
  === BLOCK LINK ===
    0x8cc1
=== CODE BLOCK END ===

=== CODE BLOCK ADDRESS 0x8cc1 ===
  0x8cc1	add    	esp, 0x60
  0x8cc4	pop    	edi
  0x8cc5	ret    	
  0x8cc6	int3   	
  0x8cc7	dec    	esp
  === BLOCK LINK ===
    0x8cc8
=== CODE BLOCK END ===

=== CODE BLOCK ADDRESS 0x8cc8 ===
  0x8cc8	lea    	eax, [esp + 0x40]
  0x8ccc	mov    	edx, 0x1f6
  0x8cd1	xor    	ecx, ecx
  0x8cd3	dec    	eax
  0x8cd4	call   	dword ptr [0x2946]
  === BLOCK LINK ===
    0x8cda
=== CODE BLOCK END ===

=== CODE BLOCK ADDRESS 0x8cda ===
  0x8cda	nop    	dword ptr [eax + eax]
  0x8cdf	mov    	dword ptr [esp + 0x30], eax
  0x8ce3	test   	eax, eax
  0x8ce5	je     	0x8d00
  === BLOCK LINK ===
    0x8ce7
=== CODE BLOCK END ===

=== CODE BLOCK ADDRESS 0x8ce7 ===
  0x8ce7	dec    	eax
  0x8ce8	lea    	edx, [0xc]
  0x8cee	dec    	eax
  0x8cef	mov    	ecx, dword ptr [esp + 0x50]
  0x8cf3	call   	0x31f6
  === BLOCK LINK ===
    0x8cf8
=== CODE BLOCK END ===

=== CODE BLOCK ADDRESS 0x8cf8 ===
  0x8cf8	nop    	
  0x8cf9	nop    	
  0x8cfa	mov    	eax, dword ptr [esp + 0x30]
  0x8cfe	jmp    	0x8cbb
  === BLOCK LINK ===
    0x8d00
=== CODE BLOCK END ===

=== CODE BLOCK ADDRESS 0x8d00 ===
  0x8d00	dec    	eax
  0x8d01	lea    	eax, [esp + 0x58]
  0x8d05	dec    	eax
  0x8d06	mov    	dword ptr [esp + 0x20], eax
  0x8d0a	dec    	esp
  === BLOCK LINK ===
    0x8d0b
=== CODE BLOCK END ===

=== CODE BLOCK ADDRESS 0x8d0b ===
  0x8d0b	mov    	ecx, dword ptr [esp + 0x40]
  0x8d0f	dec    	esp
  0x8d10	mov    	eax, dword ptr [esp + 0x48]
  0x8d14	dec    	eax
  0x8d15	mov    	edx, dword ptr [esp + 0x38]
  === BLOCK LINK ===
    0x8d19
=== CODE BLOCK END ===

=== CODE BLOCK ADDRESS 0x8d19 ===
  0x8d19	call   	0x8dd8
  === BLOCK LINK ===
    0x8d1e
=== CODE BLOCK END ===

=== CODE BLOCK ADDRESS 0x8d1e ===
  0x8d1e	mov    	dword ptr [esp + 0x30], eax
  0x8d22	test   	eax, eax
  0x8d24	je     	0x8d42
  === BLOCK LINK ===
    0x8d26
=== CODE BLOCK END ===

=== CODE BLOCK ADDRESS 0x8d26 ===
  0x8d26	dec    	eax
  0x8d27	lea    	edx, [0xc]
  0x8d2d	dec    	eax
  0x8d2e	mov    	ecx, dword ptr [esp + 0x50]
  0x8d32	call   	0x31f6
  === BLOCK LINK ===
    0x8d37
=== CODE BLOCK END ===

=== CODE BLOCK ADDRESS 0x8d37 ===
  0x8d37	nop    	
  0x8d38	nop    	
  0x8d39	mov    	eax, dword ptr [esp + 0x30]
  0x8d3d	jmp    	0x8cbb
  === BLOCK LINK ===
    0x8d42
=== CODE BLOCK END ===

=== CODE BLOCK ADDRESS 0x8d42 ===
  0x8d42	dec    	eax
  0x8d43	mov    	eax, dword ptr [esp + 0x58]
  0x8d47	dec    	eax
  0x8d48	mov    	dword ptr [edi], eax
  0x8d4a	dec    	eax
  === BLOCK LINK ===
    0x8d4b
=== CODE BLOCK END ===

=== CODE BLOCK ADDRESS 0x8d4b ===
  0x8d4b	mov    	ecx, dword ptr [esp + 0x38]
  0x8d4f	dec    	eax
  0x8d50	call   	dword ptr [0x2862]
  === BLOCK LINK ===
    0x8d56
=== CODE BLOCK END ===

=== CODE BLOCK ADDRESS 0x8d56 ===
  0x8d56	nop    	dword ptr [eax + eax]
  0x8d5b	dec    	eax
  0x8d5c	mov    	ecx, dword ptr [esp + 0x48]
  0x8d60	dec    	eax
  0x8d61	call   	dword ptr [0x2851]
  === BLOCK LINK ===
    0x8d67
=== CODE BLOCK END ===

=== CODE BLOCK ADDRESS 0x8d67 ===
  0x8d67	nop    	dword ptr [eax + eax]
  0x8d6c	dec    	eax
  0x8d6d	mov    	ecx, dword ptr [esp + 0x40]
  0x8d71	dec    	eax
  0x8d72	test   	ecx, ecx
  === BLOCK LINK ===
    0x8d74
=== CODE BLOCK END ===

=== CODE BLOCK ADDRESS 0x8d74 ===
  0x8d74	je     	0x8d82
  === BLOCK LINK ===
    0x8d76
=== CODE BLOCK END ===

=== CODE BLOCK ADDRESS 0x8d76 ===
  0x8d76	dec    	eax
  0x8d77	call   	dword ptr [0x283b]
  === BLOCK LINK ===
    0x8d7d
=== CODE BLOCK END ===

=== CODE BLOCK ADDRESS 0x8d7d ===
  0x8d7d	nop    	dword ptr [eax + eax]
  0x8d82	xor    	eax, eax
  0x8d84	jmp    	0x8cbb
  === BLOCK LINK ===
    0x8d89
=== CODE BLOCK END ===

=== CODE BLOCK ADDRESS 0x8d89 ===
  0x8d89	inc    	eax
  0x8d8a	push   	ebp
  0x8d8b	dec    	eax
  0x8d8c	sub    	esp, 0x30
  0x8d8f	dec    	eax
  === BLOCK LINK ===
    0x8d90
=== CODE BLOCK END ===

=== CODE BLOCK ADDRESS 0x8d90 ===
  0x8d90	mov    	ebp, edx
  0x8d92	dec    	eax
  0x8d93	mov    	ecx, dword ptr [ebp + 0x38]
  0x8d96	dec    	eax
  0x8d97	call   	dword ptr [0x281b]
  === BLOCK LINK ===
    0x8d9d
=== CODE BLOCK END ===

=== CODE BLOCK ADDRESS 0x8d9d ===
  0x8d9d	nop    	dword ptr [eax + eax]
  0x8da2	dec    	eax
  0x8da3	mov    	ecx, dword ptr [ebp + 0x48]
  0x8da6	dec    	eax
  0x8da7	call   	dword ptr [0x280b]
  === BLOCK LINK ===
    0x8dad
=== CODE BLOCK END ===

=== CODE BLOCK ADDRESS 0x8dad ===
  0x8dad	nop    	dword ptr [eax + eax]
  0x8db2	dec    	eax
  0x8db3	mov    	ecx, dword ptr [ebp + 0x40]
  0x8db6	dec    	eax
  0x8db7	test   	ecx, ecx
  === BLOCK LINK ===
    0x8db9
=== CODE BLOCK END ===

=== CODE BLOCK ADDRESS 0x8db9 ===
  0x8db9	je     	0x8dc8
  === BLOCK LINK ===
    0x8dbb
=== CODE BLOCK END ===

=== CODE BLOCK ADDRESS 0x8dbb ===
  0x8dbb	dec    	eax
  0x8dbc	call   	dword ptr [0x27f6]
  === BLOCK LINK ===
    0x8dc2
=== CODE BLOCK END ===

=== CODE BLOCK ADDRESS 0x8dc2 ===
  0x8dc2	nop    	dword ptr [eax + eax]
  0x8dc7	nop    	
  0x8dc8	dec    	eax
  0x8dc9	add    	esp, 0x30
  0x8dcc	pop    	ebp
  === BLOCK LINK ===
    0x8dcd
=== CODE BLOCK END ===

=== CODE BLOCK ADDRESS 0x8dcd ===
  0x8dcd	ret    	
  0x8dce	int3   	
  0x8dcf	int3   	
  0x8dd0	int3   	
  0x8dd1	int3   	
  === BLOCK LINK ===
    0x8dd2
=== CODE BLOCK END ===

=== CODE BLOCK ADDRESS 0x2560 ===
=== CODE BLOCK END ===

=== CODE BLOCK ADDRESS 0x8dd2 ===
  0x8dd2	int3   	
  0x8dd3	int3   	
  0x8dd4	int3   	
  0x8dd5	int3   	
  0x8dd6	int3   	
  === BLOCK LINK ===
    0x8dd7
=== CODE BLOCK END ===

=== CODE BLOCK ADDRESS 0x8dd7 ===
  0x8dd7	int3   	
  0x8dd8	dec    	eax
  0x8dd9	mov    	dword ptr [esp + 8], ebx
  0x8ddd	push   	ebp
  0x8dde	push   	esi
  === BLOCK LINK ===
    0x8ddf
=== CODE BLOCK END ===

=== CODE BLOCK ADDRESS 0x8ddf ===
  0x8ddf	push   	edi
  0x8de0	inc    	ecx
  0x8de1	push   	esp
  0x8de2	inc    	ecx
  0x8de3	push   	ebp
  === BLOCK LINK ===
    0x8de4
=== CODE BLOCK END ===

=== CODE BLOCK ADDRESS 0x8de4 ===
  0x8de4	inc    	ecx
  0x8de5	push   	esi
  0x8de6	inc    	ecx
  0x8de7	push   	edi
  0x8de8	dec    	eax
  === BLOCK LINK ===
    0x8de9
=== CODE BLOCK END ===

=== CODE BLOCK ADDRESS 0x8de9 ===
  0x8de9	mov    	ebp, esp
  0x8deb	dec    	eax
  0x8dec	sub    	esp, 0x60
  0x8def	dec    	eax
  0x8df0	mov    	eax, dword ptr [0x5492]
  === BLOCK LINK ===
    0x8df6
=== CODE BLOCK END ===

=== CODE BLOCK ADDRESS 0x8df6 ===
  0x8df6	dec    	eax
  0x8df7	xor    	eax, esp
  0x8df9	dec    	eax
  0x8dfa	mov    	dword ptr [ebp - 8], eax
  0x8dfd	dec    	eax
  === BLOCK LINK ===
    0x8dfe
=== CODE BLOCK END ===

=== CODE BLOCK ADDRESS 0x8dfe ===
  0x8dfe	mov    	edi, dword ptr [ebp + 0x60]
  0x8e01	dec    	esp
  0x8e02	lea    	edx, [0x57e8]
  0x8e08	inc    	ebp
  0x8e09	xor    	esp, esp
  === BLOCK LINK ===
    0x8e0b
=== CODE BLOCK END ===

=== CODE BLOCK ADDRESS 0x8e0b ===
  0x8e0b	xor    	eax, eax
  0x8e0d	dec    	ebp
  0x8e0e	mov    	edi, ecx
  0x8e10	dec    	eax
  0x8e11	mov    	dword ptr [ebp - 0x18], eax
  === BLOCK LINK ===
    0x8e14
=== CODE BLOCK END ===

=== CODE BLOCK ADDRESS 0x8e14 ===
  0x8e14	dec    	ecx
  0x8e15	or     	ecx, 0xffffffff
  0x8e18	mov    	dword ptr [ebp - 0x10], eax
  0x8e1b	inc    	ecx
  0x8e1c	or     	ebp, 0xffffffff
  === BLOCK LINK ===
    0x8e1f
=== CODE BLOCK END ===

=== CODE BLOCK ADDRESS 0x8e1f ===
  0x8e1f	dec    	ecx
  0x8e20	mov    	esi, eax
  0x8e22	inc    	esp
  0x8e23	cmp    	dword ptr [0x57c7], ebp
  0x8e29	dec    	esp
  === BLOCK LINK ===
    0x8e2a
=== CODE BLOCK END ===

=== CODE BLOCK ADDRESS 0x8e2a ===
  0x8e2a	mov    	esi, edx
  0x8e2c	inc    	ecx
  0x8e2d	mov    	ebx, esp
  0x8e2f	inc    	ecx
  0x8e30	mov    	ecx, esp
  === BLOCK LINK ===
    0x8e32
=== CODE BLOCK END ===

=== CODE BLOCK ADDRESS 0x8e32 ===
  0x8e32	je     	0x8e6e
  === BLOCK LINK ===
    0x8e34
=== CODE BLOCK END ===

=== CODE BLOCK ADDRESS 0x8e34 ===
  0x8e34	cmp    	ecx, 3
  0x8e37	jae    	0x8e6e
  === BLOCK LINK ===
    0x8e39
=== CODE BLOCK END ===

=== CODE BLOCK ADDRESS 0x8e39 ===
  0x8e39	inc    	esp
  0x8e3a	mov    	eax, ecx
  0x8e3c	inc    	ebx
  0x8e3d	mov    	eax, dword ptr [edx + eax*8]
  0x8e40	dec    	edx
  === BLOCK LINK ===
    0x8e41
=== CODE BLOCK END ===

=== CODE BLOCK ADDRESS 0x8e41 ===
  0x8e41	mov    	edx, dword ptr [eax + esi]
  0x8e44	dec    	eax
  0x8e45	test   	edx, edx
  0x8e47	je     	0x8e5e
  === BLOCK LINK ===
    0x8e49
=== CODE BLOCK END ===

=== CODE BLOCK ADDRESS 0x8e49 ===
  0x8e49	dec    	ecx
  0x8e4a	mov    	eax, ecx
  0x8e4c	dec    	eax
  0x8e4d	inc    	eax
  0x8e4f	inc    	sp
  === BLOCK LINK ===
    0x8e51
=== CODE BLOCK END ===

=== CODE BLOCK ADDRESS 0x8e51 ===
  0x8e51	cmp    	dword ptr [edx + eax*2], esp
  0x8e54	jne    	0x8e4c
  === BLOCK LINK ===
    0x8e56
=== CODE BLOCK END ===

=== CODE BLOCK ADDRESS 0x8e56 ===
  0x8e56	lea    	edx, [eax + 1]
  0x8e59	lea    	ebx, [ebx + edx*2]
  0x8e5c	jmp    	0x8e61
  === BLOCK LINK ===
    0x8e5e
=== CODE BLOCK END ===

=== CODE BLOCK ADDRESS 0x8e5e ===
  0x8e5e	inc    	ecx
  0x8e5f	mov    	edx, esp
  0x8e61	inc    	ecx
  0x8e63	inc    	edx
  0x8e64	mov    	dword ptr [ebp + eax*4 - 0x18], edx
  === BLOCK LINK ===
    0x8e68
=== CODE BLOCK END ===

=== CODE BLOCK ADDRESS 0x8e68 ===
  0x8e68	inc    	ebp
  0x8e69	cmp    	dword ptr [edx + ecx*8], ebp
  0x8e6c	jne    	0x8e34
  === BLOCK LINK ===
    0x8e6e
=== CODE BLOCK END ===

=== CODE BLOCK ADDRESS 0x8e6e ===
  0x8e6e	inc    	esp
  0x8e6f	cmp    	dword ptr [0x579b], ebp
  0x8e75	dec    	esp
  0x8e76	lea    	edx, [0x5794]
  0x8e7c	inc    	ecx
  === BLOCK LINK ===
    0x8e7d
=== CODE BLOCK END ===

=== CODE BLOCK ADDRESS 0x8e7d ===
  0x8e7d	mov    	ecx, esp
  0x8e7f	je     	0x8ebb
  === BLOCK LINK ===
    0x8e81
=== CODE BLOCK END ===

=== CODE BLOCK ADDRESS 0x8e81 ===
  0x8e81	cmp    	ecx, 2
  0x8e84	jae    	0x8ebb
  === BLOCK LINK ===
    0x8e86
=== CODE BLOCK END ===

=== CODE BLOCK ADDRESS 0x8e86 ===
  0x8e86	inc    	esp
  0x8e87	mov    	eax, ecx
  0x8e89	inc    	ebx
  0x8e8a	mov    	eax, dword ptr [edx + eax*8]
  0x8e8d	dec    	eax
  === BLOCK LINK ===
    0x8e8e
=== CODE BLOCK END ===

=== CODE BLOCK ADDRESS 0x8e8e ===
  0x8e8e	mov    	edx, dword ptr [eax + esi]
  0x8e91	dec    	eax
  0x8e92	test   	edx, edx
  0x8e94	je     	0x8eab
  === BLOCK LINK ===
    0x8e96
=== CODE BLOCK END ===

=== CODE BLOCK ADDRESS 0x8e96 ===
  0x8e96	dec    	ecx
  0x8e97	mov    	eax, ecx
  0x8e99	dec    	eax
  0x8e9a	inc    	eax
  0x8e9c	inc    	sp
  === BLOCK LINK ===
    0x8e9e
=== CODE BLOCK END ===

=== CODE BLOCK ADDRESS 0x8e9e ===
  0x8e9e	cmp    	dword ptr [edx + eax*2], esp
  0x8ea1	jne    	0x8e99
  === BLOCK LINK ===
    0x8ea3
=== CODE BLOCK END ===

=== CODE BLOCK ADDRESS 0x8ea3 ===
  0x8ea3	lea    	edx, [eax + 1]
  0x8ea6	lea    	ebx, [ebx + edx*2]
  0x8ea9	jmp    	0x8eae
  === BLOCK LINK ===
    0x8eab
=== CODE BLOCK END ===

=== CODE BLOCK ADDRESS 0x8eab ===
  0x8eab	inc    	ecx
  0x8eac	mov    	edx, esp
  0x8eae	inc    	ecx
  0x8eb0	inc    	edx
  0x8eb1	mov    	dword ptr [ebp + eax*4 - 0x28], edx
  === BLOCK LINK ===
    0x8eb5
=== CODE BLOCK END ===

=== CODE BLOCK ADDRESS 0x8eb5 ===
  0x8eb5	inc    	ebp
  0x8eb6	cmp    	dword ptr [edx + ecx*8], ebp
  0x8eb9	jne    	0x8e81
  === BLOCK LINK ===
    0x8ebb
=== CODE BLOCK END ===

=== CODE BLOCK ADDRESS 0x8ebb ===
  0x8ebb	inc    	esp
  0x8ebc	cmp    	dword ptr [0x5716], ebp
  0x8ec2	dec    	esp
  0x8ec3	lea    	edx, [0x570f]
  0x8ec9	inc    	ecx
  === BLOCK LINK ===
    0x8eca
=== CODE BLOCK END ===

=== CODE BLOCK ADDRESS 0x8eca ===
  0x8eca	mov    	ecx, esp
  0x8ecc	je     	0x8f08
  === BLOCK LINK ===
    0x8ece
=== CODE BLOCK END ===

=== CODE BLOCK ADDRESS 0x8ece ===
  0x8ece	cmp    	ecx, 2
  0x8ed1	jae    	0x8f08
  === BLOCK LINK ===
    0x8ed3
=== CODE BLOCK END ===

=== CODE BLOCK ADDRESS 0x8ed3 ===
  0x8ed3	inc    	esp
  0x8ed4	mov    	eax, ecx
  0x8ed6	inc    	ebx
  0x8ed7	mov    	eax, dword ptr [edx + eax*8]
  0x8eda	dec    	eax
  === BLOCK LINK ===
    0x8edb
=== CODE BLOCK END ===

=== CODE BLOCK ADDRESS 0x8edb ===
  0x8edb	mov    	edx, dword ptr [eax + esi]
  0x8ede	dec    	eax
  0x8edf	test   	edx, edx
  0x8ee1	je     	0x8ef8
  === BLOCK LINK ===
    0x8ee3
=== CODE BLOCK END ===

=== CODE BLOCK ADDRESS 0x8ee3 ===
  0x8ee3	dec    	ecx
  0x8ee4	mov    	eax, ecx
  0x8ee6	dec    	eax
  0x8ee7	inc    	eax
  0x8ee9	inc    	sp
  === BLOCK LINK ===
    0x8eeb
=== CODE BLOCK END ===

=== CODE BLOCK ADDRESS 0x8eeb ===
  0x8eeb	cmp    	dword ptr [edx + eax*2], esp
  0x8eee	jne    	0x8ee6
  === BLOCK LINK ===
    0x8ef0
=== CODE BLOCK END ===

=== CODE BLOCK ADDRESS 0x8ef0 ===
  0x8ef0	lea    	edx, [eax + 1]
  0x8ef3	lea    	ebx, [ebx + edx*2]
  0x8ef6	jmp    	0x8efb
  === BLOCK LINK ===
    0x8ef8
=== CODE BLOCK END ===

=== CODE BLOCK ADDRESS 0x8ef8 ===
  0x8ef8	inc    	ecx
  0x8ef9	mov    	edx, esp
  0x8efb	inc    	ecx
  0x8efd	inc    	edx
  0x8efe	mov    	dword ptr [ebp + eax*4 - 0x20], edx
  === BLOCK LINK ===
    0x8f02
=== CODE BLOCK END ===

=== CODE BLOCK ADDRESS 0x8f02 ===
  0x8f02	inc    	ebp
  0x8f03	cmp    	dword ptr [edx + ecx*8], ebp
  0x8f06	jne    	0x8ece
  === BLOCK LINK ===
    0x8f08
=== CODE BLOCK END ===

=== CODE BLOCK ADDRESS 0x8f08 ===
  0x8f08	lea    	ecx, [ebx + 0xb8]
  0x8f0e	dec    	eax
  0x8f0f	mov    	edx, edi
  0x8f11	dec    	eax
  0x8f12	call   	dword ptr [0x2688]
  === BLOCK LINK ===
    0x8f18
=== CODE BLOCK END ===

=== CODE BLOCK ADDRESS 0x8f18 ===
  0x8f18	nop    	dword ptr [eax + eax]
  0x8f1d	test   	eax, eax
  0x8f1f	je     	0x8f2b
  === BLOCK LINK ===
    0x8f21
=== CODE BLOCK END ===

=== CODE BLOCK ADDRESS 0x8f21 ===
  0x8f21	mov    	eax, 8
  0x8f26	jmp    	0x907c
  === BLOCK LINK ===
    0x8f2b
=== CODE BLOCK END ===

=== CODE BLOCK ADDRESS 0x8f2b ===
  0x8f2b	dec    	esp
  0x8f2c	mov    	eax, dword ptr [edi]
  0x8f2e	dec    	ecx
  0x8f2f	mov    	edx, esi
  0x8f31	mov    	ecx, ebx
  === BLOCK LINK ===
    0x8f33
=== CODE BLOCK END ===

=== CODE BLOCK ADDRESS 0x8f33 ===
  0x8f33	dec    	ecx
  0x8f34	lea    	eax, [eax + 0xb8]
  0x8f3a	dec    	eax
  0x8f3b	add    	eax, ecx
  0x8f3d	dec    	eax
  === BLOCK LINK ===
    0x8f3e
=== CODE BLOCK END ===

=== CODE BLOCK ADDRESS 0x8f3e ===
  0x8f3e	lea    	ebx, [ecx + 0xb8]
  0x8f44	dec    	eax
  0x8f45	mov    	dword ptr [ebp - 0x30], eax
  0x8f48	dec    	eax
  0x8f49	lea    	ecx, [ebp - 0x30]
  === BLOCK LINK ===
    0x8f4c
=== CODE BLOCK END ===

=== CODE BLOCK ADDRESS 0x8f4c ===
  0x8f4c	dec    	eax
  0x8f4d	lea    	eax, [ebp - 0x18]
  0x8f50	dec    	esp
  0x8f51	mov    	ecx, ebx
  0x8f53	dec    	eax
  === BLOCK LINK ===
    0x8f54
=== CODE BLOCK END ===

=== CODE BLOCK ADDRESS 0x8f54 ===
  0x8f54	mov    	dword ptr [esp + 0x28], eax
  0x8f58	dec    	eax
  0x8f59	lea    	eax, [0x5691]
  0x8f5f	dec    	eax
  0x8f60	mov    	dword ptr [esp + 0x20], eax
  === BLOCK LINK ===
    0x8f64
=== CODE BLOCK END ===

=== CODE BLOCK ADDRESS 0x8f64 ===
  0x8f64	call   	0xa8d0
  === BLOCK LINK ===
    0x8f69
=== CODE BLOCK END ===

=== CODE BLOCK ADDRESS 0x8f69 ===
  0x8f69	dec    	esp
  0x8f6a	mov    	eax, dword ptr [edi]
  0x8f6c	dec    	eax
  0x8f6d	lea    	eax, [ebp - 0x28]
  0x8f70	dec    	eax
  === BLOCK LINK ===
    0x8f71
=== CODE BLOCK END ===

=== CODE BLOCK ADDRESS 0x8f71 ===
  0x8f71	mov    	dword ptr [esp + 0x28], eax
  0x8f75	dec    	eax
  0x8f76	lea    	ecx, [ebp - 0x30]
  0x8f79	dec    	eax
  0x8f7a	lea    	eax, [0x5690]
  === BLOCK LINK ===
    0x8f80
=== CODE BLOCK END ===

=== CODE BLOCK ADDRESS 0x8f80 ===
  0x8f80	dec    	esp
  0x8f81	mov    	ecx, ebx
  0x8f83	dec    	eax
  0x8f84	mov    	edx, esi
  0x8f86	dec    	eax
  === BLOCK LINK ===
    0x8f87
=== CODE BLOCK END ===

=== CODE BLOCK ADDRESS 0x8f87 ===
  0x8f87	mov    	dword ptr [esp + 0x20], eax
  0x8f8b	call   	0xa8d0
  === BLOCK LINK ===
    0x8f90
=== CODE BLOCK END ===

=== CODE BLOCK ADDRESS 0x8f90 ===
  0x8f90	inc    	ecx
  0x8f91	mov    	eax, dword ptr [esi + 0x18]
  0x8f94	dec    	eax
  0x8f95	mov    	ecx, dword ptr [edi]
  0x8f97	mov    	dword ptr [ecx + 0x28], eax
  === BLOCK LINK ===
    0x8f9a
=== CODE BLOCK END ===

=== CODE BLOCK ADDRESS 0x8f9a ===
  0x8f9a	inc    	ecx
  0x8f9b	mov    	eax, dword ptr [esi + 0x1c]
  0x8f9e	dec    	eax
  0x8f9f	mov    	ecx, dword ptr [edi]
  0x8fa1	mov    	dword ptr [ecx + 0x2c], eax
  === BLOCK LINK ===
    0x8fa4
=== CODE BLOCK END ===

=== CODE BLOCK ADDRESS 0x8fa4 ===
  0x8fa4	inc    	ecx
  0x8fa5	mov    	eax, dword ptr [edi]
  0x8fa7	dec    	eax
  0x8fa8	mov    	ecx, dword ptr [edi]
  0x8faa	mov    	dword ptr [ecx + 0x34], eax
  === BLOCK LINK ===
    0x8fad
=== CODE BLOCK END ===

=== CODE BLOCK ADDRESS 0x8fad ===
  0x8fad	inc    	ecx
  0x8fae	mov    	eax, dword ptr [edi + 4]
  0x8fb1	dec    	eax
  0x8fb2	mov    	ecx, dword ptr [edi]
  0x8fb4	mov    	dword ptr [ecx + 0x38], eax
  === BLOCK LINK ===
    0x8fb7
=== CODE BLOCK END ===

=== CODE BLOCK ADDRESS 0x8fb7 ===
  0x8fb7	inc    	ecx
  0x8fb8	mov    	eax, dword ptr [edi + 8]
  0x8fbb	dec    	eax
  0x8fbc	mov    	ecx, dword ptr [edi]
  0x8fbe	mov    	dword ptr [ecx + 0x3c], eax
  === BLOCK LINK ===
    0x8fc1
=== CODE BLOCK END ===

=== CODE BLOCK ADDRESS 0x8fc1 ===
  0x8fc1	dec    	eax
  0x8fc2	mov    	ecx, dword ptr [edi]
  0x8fc4	inc    	ecx
  0x8fc5	mov    	eax, dword ptr [edi + 0xc]
  0x8fc8	mov    	dword ptr [ecx + 0x48], eax
  === BLOCK LINK ===
    0x8fcb
=== CODE BLOCK END ===

=== CODE BLOCK ADDRESS 0x8fcb ===
  0x8fcb	dec    	eax
  0x8fcc	mov    	eax, dword ptr [edi]
  0x8fce	inc    	esp
  0x8fcf	mov    	dword ptr [eax + 0x4c], ebp
  0x8fd2	inc    	ecx
  === BLOCK LINK ===
    0x8fd3
=== CODE BLOCK END ===

=== CODE BLOCK ADDRESS 0x8fd3 ===
  0x8fd3	mov    	eax, dword ptr [edi + 0x1c]
  0x8fd6	dec    	eax
  0x8fd7	mov    	ecx, dword ptr [edi]
  0x8fd9	mov    	dword ptr [ecx + 0x50], eax
  0x8fdc	dec    	eax
  === BLOCK LINK ===
    0x8fdd
=== CODE BLOCK END ===

=== CODE BLOCK ADDRESS 0x8fdd ===
  0x8fdd	mov    	ecx, dword ptr [edi]
  0x8fdf	inc    	ecx
  0x8fe0	mov    	eax, dword ptr [edi + 0x10]
  0x8fe3	mov    	dword ptr [ecx + 0x54], eax
  0x8fe6	dec    	eax
  === BLOCK LINK ===
    0x8fe7
=== CODE BLOCK END ===

=== CODE BLOCK ADDRESS 0x8fe7 ===
  0x8fe7	mov    	eax, dword ptr [edi]
  0x8fe9	inc    	esp
  0x8fea	mov    	dword ptr [eax + 0x5c], ebp
  0x8fed	dec    	eax
  0x8fee	mov    	eax, dword ptr [edi]
  === BLOCK LINK ===
    0x8ff0
=== CODE BLOCK END ===

=== CODE BLOCK ADDRESS 0x8ff0 ===
  0x8ff0	inc    	esp
  0x8ff1	mov    	dword ptr [eax + 0x60], ebp
  0x8ff4	dec    	eax
  0x8ff5	mov    	eax, dword ptr [edi]
  0x8ff7	inc    	esp
  === BLOCK LINK ===
    0x8ff8
=== CODE BLOCK END ===

=== CODE BLOCK ADDRESS 0x8ff8 ===
  0x8ff8	mov    	dword ptr [eax + 0x64], ebp
  0x8ffb	dec    	eax
  0x8ffc	mov    	ecx, dword ptr [edi]
  0x8ffe	inc    	ecx
  0x8fff	mov    	eax, dword ptr [edi + 0x14]
  === BLOCK LINK ===
    0x9002
=== CODE BLOCK END ===

=== CODE BLOCK ADDRESS 0x9002 ===
  0x9002	mov    	dword ptr [ecx + 0x68], eax
  0x9005	dec    	eax
  0x9006	mov    	eax, dword ptr [edi]
  0x9008	inc    	esp
  0x9009	mov    	dword ptr [eax + 0x6c], ebp
  === BLOCK LINK ===
    0x900c
=== CODE BLOCK END ===

=== CODE BLOCK ADDRESS 0x900c ===
  0x900c	dec    	eax
  0x900d	mov    	eax, dword ptr [edi]
  0x900f	inc    	esp
  0x9010	mov    	dword ptr [eax + 0x70], ebp
  0x9013	dec    	eax
  === BLOCK LINK ===
    0x9014
=== CODE BLOCK END ===

=== CODE BLOCK ADDRESS 0x9014 ===
  0x9014	mov    	eax, dword ptr [edi]
  0x9016	inc    	esp
  0x9017	mov    	dword ptr [eax + 0x74], ebp
  0x901a	dec    	eax
  0x901b	mov    	eax, dword ptr [edi]
  === BLOCK LINK ===
    0x901d
=== CODE BLOCK END ===

=== CODE BLOCK ADDRESS 0x901d ===
  0x901d	inc    	esp
  0x901e	mov    	dword ptr [eax + 0x78], ebp
  0x9021	dec    	eax
  0x9022	mov    	eax, dword ptr [edi]
  0x9024	inc    	esp
  === BLOCK LINK ===
    0x9025
=== CODE BLOCK END ===

=== CODE BLOCK ADDRESS 0x9025 ===
  0x9025	mov    	dword ptr [eax + 0x7c], ebp
  0x9028	dec    	eax
  0x9029	mov    	eax, dword ptr [edi]
  0x902b	inc    	esp
  0x902c	mov    	dword ptr [eax + 0x80], ebp
  === BLOCK LINK ===
    0x9032
=== CODE BLOCK END ===

=== CODE BLOCK ADDRESS 0x9032 ===
  0x9032	inc    	ecx
  0x9033	mov    	eax, dword ptr [edi + 0x18]
  0x9036	dec    	eax
  0x9037	mov    	ecx, dword ptr [edi]
  0x9039	mov    	dword ptr [ecx + 0x84], eax
  === BLOCK LINK ===
    0x903f
=== CODE BLOCK END ===

=== CODE BLOCK ADDRESS 0x903f ===
  0x903f	dec    	eax
  0x9040	mov    	eax, dword ptr [edi]
  0x9042	dec    	esp
  0x9043	mov    	dword ptr [eax + 0x90], esp
  0x9049	dec    	eax
  === BLOCK LINK ===
    0x904a
=== CODE BLOCK END ===

=== CODE BLOCK ADDRESS 0x904a ===
  0x904a	mov    	eax, dword ptr [edi]
  0x904c	inc    	esp
  0x904d	mov    	dword ptr [eax + 0x98], ebp
  0x9053	dec    	eax
  0x9054	lea    	eax, [ebp - 0x20]
  === BLOCK LINK ===
    0x9057
=== CODE BLOCK END ===

=== CODE BLOCK ADDRESS 0x9057 ===
  0x9057	dec    	eax
  0x9058	mov    	dword ptr [esp + 0x28], eax
  0x905c	dec    	eax
  0x905d	lea    	eax, [0x5575]
  0x9063	dec    	eax
  === BLOCK LINK ===
    0x9064
=== CODE BLOCK END ===

=== CODE BLOCK ADDRESS 0x9064 ===
  0x9064	mov    	dword ptr [esp + 0x20], eax
  0x9068	dec    	esp
  0x9069	mov    	eax, dword ptr [edi]
  0x906b	dec    	eax
  0x906c	lea    	ecx, [ebp - 0x30]
  === BLOCK LINK ===
    0x906f
=== CODE BLOCK END ===

=== CODE BLOCK ADDRESS 0x906f ===
  0x906f	dec    	esp
  0x9070	mov    	ecx, ebx
  0x9072	dec    	eax
  0x9073	mov    	edx, esi
  0x9075	call   	0xa8d0
  === BLOCK LINK ===
    0x907a
=== CODE BLOCK END ===

=== CODE BLOCK ADDRESS 0x907a ===
  0x907a	xor    	eax, eax
  0x907c	dec    	eax
  0x907d	mov    	ecx, dword ptr [ebp - 8]
  0x9080	dec    	eax
  0x9081	xor    	ecx, esp
  === BLOCK LINK ===
    0x9083
=== CODE BLOCK END ===

=== CODE BLOCK ADDRESS 0x9083 ===
  0x9083	call   	0x2900
  === BLOCK LINK ===
    0x9088
=== CODE BLOCK END ===

=== CODE BLOCK ADDRESS 0x9088 ===
  0x9088	dec    	eax
  0x9089	mov    	ebx, dword ptr [esp + 0xa0]
  0x9090	dec    	eax
  0x9091	add    	esp, 0x60
  0x9094	inc    	ecx
  === BLOCK LINK ===
    0x9095
=== CODE BLOCK END ===

=== CODE BLOCK ADDRESS 0x9095 ===
  0x9095	pop    	edi
  0x9096	inc    	ecx
  0x9097	pop    	esi
  0x9098	inc    	ecx
  0x9099	pop    	ebp
  === BLOCK LINK ===
    0x909a
=== CODE BLOCK END ===

=== CODE BLOCK ADDRESS 0x909a ===
  0x909a	inc    	ecx
  0x909b	pop    	esp
  0x909c	pop    	edi
  0x909d	pop    	esi
  0x909e	pop    	ebp
  === BLOCK LINK ===
    0x909f
=== CODE BLOCK END ===

=== CODE BLOCK ADDRESS 0x909f ===
  0x909f	ret    	
  0x90a0	int3   	
  0x90a1	int3   	
  0x90a2	int3   	
  0x90a3	int3   	
  === BLOCK LINK ===
    0x90a4
=== CODE BLOCK END ===

=== CODE BLOCK ADDRESS 0x90a4 ===
  0x90a4	int3   	
  0x90a5	int3   	
  0x90a6	int3   	
  0x90a7	int3   	
  0x90a8	dec    	eax
  === BLOCK LINK ===
    0x90a9
=== CODE BLOCK END ===

=== CODE BLOCK ADDRESS 0x90a9 ===
  0x90a9	sub    	esp, 0x28
  0x90ac	inc    	ebp
  0x90ad	xor    	eax, eax
  0x90af	inc    	ecx
  0x90b0	lea    	edx, [eax + 2]
  === BLOCK LINK ===
    0x90b3
=== CODE BLOCK END ===

=== CODE BLOCK ADDRESS 0x90b3 ===
  0x90b3	dec    	eax
  0x90b4	call   	dword ptr [0x24de]
  === BLOCK LINK ===
    0x90ba
=== CODE BLOCK END ===

=== CODE BLOCK ADDRESS 0x90ba ===
  0x90ba	nop    	dword ptr [eax + eax]
  0x90bf	xor    	ecx, ecx
  0x90c1	test   	eax, eax
  0x90c3	je     	0x90cc
  === BLOCK LINK ===
    0x90c5
=== CODE BLOCK END ===

=== CODE BLOCK ADDRESS 0x90c5 ===
  0x90c5	mov    	eax, 0xe8f
  0x90ca	jmp    	0x90cf
  === BLOCK LINK ===
    0x90cc
=== CODE BLOCK END ===

=== CODE BLOCK ADDRESS 0x90cc ===
  0x90cc	movzx  	eax, cx
  0x90cf	dec    	eax
  0x90d0	add    	esp, 0x28
  0x90d3	ret    	
  0x90d4	int3   	
  === BLOCK LINK ===
    0x90d5
=== CODE BLOCK END ===

=== CODE BLOCK ADDRESS 0x90d5 ===
  0x90d5	int3   	
  0x90d6	int3   	
  0x90d7	int3   	
  0x90d8	int3   	
  0x90d9	int3   	
  === BLOCK LINK ===
    0x90da
=== CODE BLOCK END ===

=== CODE BLOCK ADDRESS 0x90da ===
  0x90da	int3   	
  0x90db	int3   	
  0x90dc	inc    	eax
  0x90dd	push   	ebx
  0x90de	push   	ebp
  === BLOCK LINK ===
    0x90df
=== CODE BLOCK END ===

=== CODE BLOCK ADDRESS 0x90df ===
  0x90df	push   	esi
  0x90e0	push   	edi
  0x90e1	inc    	ecx
  0x90e2	push   	esp
  0x90e3	inc    	ecx
  === BLOCK LINK ===
    0x90e4
=== CODE BLOCK END ===

=== CODE BLOCK ADDRESS 0x90e4 ===
  0x90e4	push   	ebp
  0x90e5	inc    	ecx
  0x90e6	push   	esi
  0x90e7	inc    	ecx
  0x90e8	push   	edi
  === BLOCK LINK ===
    0x90e9
=== CODE BLOCK END ===

=== CODE BLOCK ADDRESS 0x90e9 ===
  0x90e9	dec    	eax
  0x90ea	sub    	esp, 0x458
  0x90f0	dec    	eax
  0x90f1	mov    	eax, dword ptr [0x5191]
  0x90f7	dec    	eax
  === BLOCK LINK ===
    0x90f8
=== CODE BLOCK END ===

=== CODE BLOCK ADDRESS 0x90f8 ===
  0x90f8	xor    	eax, esp
  0x90fa	dec    	eax
  0x90fb	mov    	dword ptr [esp + 0x440], eax
  0x9102	mov    	ebx, dword ptr [esp + 0x4c0]
  0x9109	dec    	esp
  === BLOCK LINK ===
    0x910a
=== CODE BLOCK END ===

=== CODE BLOCK ADDRESS 0x910a ===
  0x910a	mov    	edx, ecx
  0x910c	dec    	esp
  0x910d	mov    	esp, dword ptr [esp + 0x4c8]
  0x9114	test   	bl, 0xa
  0x9117	dec    	ecx
  === BLOCK LINK ===
    0x9118
=== CODE BLOCK END ===

=== CODE BLOCK ADDRESS 0x9118 ===
  0x9118	mov    	esi, ecx
  0x911a	setne  	cl
  0x911d	test   	bl, 4
  0x9120	setne  	al
  0x9123	test   	al, cl
  === BLOCK LINK ===
    0x9125
=== CODE BLOCK END ===

=== CODE BLOCK ADDRESS 0x9125 ===
  0x9125	je     	0x9151
  === BLOCK LINK ===
    0x9127
=== CODE BLOCK END ===

=== CODE BLOCK ADDRESS 0x9127 ===
  0x9127	mov    	eax, 0x57
  0x912c	dec    	eax
  0x912d	mov    	ecx, dword ptr [esp + 0x440]
  0x9134	dec    	eax
  0x9135	xor    	ecx, esp
  === BLOCK LINK ===
    0x9137
=== CODE BLOCK END ===

=== CODE BLOCK ADDRESS 0x9137 ===
  0x9137	call   	0x2900
  === BLOCK LINK ===
    0x913c
=== CODE BLOCK END ===

=== CODE BLOCK ADDRESS 0x913c ===
  0x913c	dec    	eax
  0x913d	add    	esp, 0x458
  0x9143	inc    	ecx
  0x9144	pop    	edi
  0x9145	inc    	ecx
  === BLOCK LINK ===
    0x9146
=== CODE BLOCK END ===

=== CODE BLOCK ADDRESS 0x9146 ===
  0x9146	pop    	esi
  0x9147	inc    	ecx
  0x9148	pop    	ebp
  0x9149	inc    	ecx
  0x914a	pop    	esp
  === BLOCK LINK ===
    0x914b
=== CODE BLOCK END ===

=== CODE BLOCK ADDRESS 0x914b ===
  0x914b	pop    	edi
  0x914c	pop    	esi
  0x914d	pop    	ebp
  0x914e	pop    	ebx
  0x914f	ret    	
  === BLOCK LINK ===
    0x9150
=== CODE BLOCK END ===

=== CODE BLOCK ADDRESS 0x9150 ===
  0x9150	int3   	
  0x9151	dec    	eax
  0x9152	lea    	eax, [esp + 0x30]
  0x9156	inc    	esp
  0x9157	movzx  	edi, bx
  === BLOCK LINK ===
    0x915a
=== CODE BLOCK END ===

=== CODE BLOCK ADDRESS 0x915a ===
  0x915a	dec    	eax
  0x915b	mov    	dword ptr [esp + 0x28], eax
  0x915f	inc    	esp
  0x9160	movzx  	esi, bx
  0x9163	inc    	esp
  === BLOCK LINK ===
    0x9164
=== CODE BLOCK END ===

=== CODE BLOCK ADDRESS 0x9164 ===
  0x9164	mov    	dword ptr [esp + 0x20], eax
  0x9168	inc    	ecx
  0x9169	mov    	ecx, 0x200
  0x916e	dec    	esp
  0x916f	lea    	eax, [esp + 0x40]
  === BLOCK LINK ===
    0x9173
=== CODE BLOCK END ===

=== CODE BLOCK ADDRESS 0x9173 ===
  0x9173	dec    	ecx
  0x9174	mov    	ecx, edx
  0x9176	inc    	cx
  0x9178	and    	edi, 8
  0x917b	inc    	cx
  === BLOCK LINK ===
    0x917d
=== CODE BLOCK END ===

=== CODE BLOCK ADDRESS 0x917d ===
  0x917d	and    	esi, 2
  0x9180	call   	0xa798
  === BLOCK LINK ===
    0x9185
=== CODE BLOCK END ===

=== CODE BLOCK ADDRESS 0x9185 ===
  0x9185	mov    	ebp, dword ptr [esp + 0x30]
  0x9189	inc    	ebp
  0x918a	xor    	ebp, ebp
  0x918c	mov    	edi, eax
  0x918e	test   	eax, eax
  === BLOCK LINK ===
    0x9190
=== CODE BLOCK END ===

=== CODE BLOCK ADDRESS 0x9190 ===
  0x9190	je     	0x9197
  === BLOCK LINK ===
    0x9192
=== CODE BLOCK END ===

=== CODE BLOCK ADDRESS 0x9192 ===
  0x9192	test   	bl, 4
  0x9195	jne    	0x91dd
  === BLOCK LINK ===
    0x9197
=== CODE BLOCK END ===

=== CODE BLOCK ADDRESS 0x9197 ===
  0x9197	dec    	esp
  0x9198	mov    	ecx, ebp
  0x919a	dec    	esp
  0x919b	lea    	eax, [esp + 0x40]
  0x919f	mov    	edx, 0x1001
  === BLOCK LINK ===
    0x91a4
=== CODE BLOCK END ===

=== CODE BLOCK ADDRESS 0x91a4 ===
  0x91a4	dec    	eax
  0x91a5	lea    	ecx, [0x81b5]
  0x91ab	dec    	eax
  0x91ac	mov    	ebx, ebp
  0x91ae	dec    	eax
  === BLOCK LINK ===
    0x91af
=== CODE BLOCK END ===

=== CODE BLOCK ADDRESS 0x91af ===
  0x91af	call   	dword ptr [0x22eb]
  === BLOCK LINK ===
    0x91b5
=== CODE BLOCK END ===

=== CODE BLOCK ADDRESS 0x91b5 ===
  0x91b5	nop    	dword ptr [eax + eax]
  0x91ba	dec    	eax
  0x91bb	add    	ebx, ebx
  0x91bd	dec    	eax
  0x91be	cmp    	ebx, 0x2002
  === BLOCK LINK ===
    0x91c4
=== CODE BLOCK END ===

=== CODE BLOCK ADDRESS 0x91c4 ===
  0x91c4	jae    	0x921a
  === BLOCK LINK ===
    0x91c6
=== CODE BLOCK END ===

=== CODE BLOCK ADDRESS 0x91c6 ===
  0x91c6	dec    	eax
  0x91c7	lea    	edx, [0x8193]
  0x91cd	inc    	ebp
  0x91ce	xor    	eax, eax
  0x91d0	dec    	ecx
  === BLOCK LINK ===
    0x91d1
=== CODE BLOCK END ===

=== CODE BLOCK ADDRESS 0x91d1 ===
  0x91d1	mov    	ecx, esp
  0x91d3	inc    	sp
  0x91d5	mov    	dword ptr [ebx + edx], ebp
  0x91d8	call   	0xa244
  === BLOCK LINK ===
    0x91dd
=== CODE BLOCK END ===

=== CODE BLOCK ADDRESS 0x91dd ===
  0x91dd	dec    	eax
  0x91de	test   	esi, esi
  0x91e0	je     	0x91e4
  === BLOCK LINK ===
    0x91e2
=== CODE BLOCK END ===

=== CODE BLOCK ADDRESS 0x91e2 ===
  0x91e2	mov    	dword ptr [esi], ebp
  0x91e4	inc    	bp
  0x91e6	test   	edi, edi
  0x91e8	je     	0x91fd
  === BLOCK LINK ===
    0x91ea
=== CODE BLOCK END ===

=== CODE BLOCK ADDRESS 0x91ea ===
  0x91ea	test   	edi, edi
  0x91ec	je     	0x91fd
  === BLOCK LINK ===
    0x91ee
=== CODE BLOCK END ===

=== CODE BLOCK ADDRESS 0x91ee ===
  0x91ee	mov    	ecx, edi
  0x91f0	dec    	eax
  0x91f1	call   	dword ptr [0x2229]
  === BLOCK LINK ===
    0x91f7
=== CODE BLOCK END ===

=== CODE BLOCK ADDRESS 0x91f7 ===
  0x91f7	nop    	dword ptr [eax + eax]
  0x91fc	int3   	
  0x91fd	inc    	bp
  0x91ff	test   	esi, esi
  0x9201	je     	0x9213
  === BLOCK LINK ===
    0x9203
=== CODE BLOCK END ===

=== CODE BLOCK ADDRESS 0x9203 ===
  0x9203	or     	ecx, 0xffffffff
  0x9206	dec    	eax
  0x9207	call   	dword ptr [0x2213]
  === BLOCK LINK ===
    0x920d
=== CODE BLOCK END ===

=== CODE BLOCK ADDRESS 0x920d ===
  0x920d	nop    	dword ptr [eax + eax]
  0x9212	int3   	
  0x9213	mov    	eax, edi
  0x9215	jmp    	0x912c
  === BLOCK LINK ===
    0x921a
=== CODE BLOCK END ===

=== CODE BLOCK ADDRESS 0x921a ===
  0x921a	call   	0x2ad8
  === BLOCK LINK ===
    0x921f
=== CODE BLOCK END ===

=== CODE BLOCK ADDRESS 0x921f ===
  0x921f	int3   	
  0x9220	int3   	
  0x9221	int3   	
  0x9222	int3   	
  0x9223	int3   	
  === BLOCK LINK ===
    0x9224
=== CODE BLOCK END ===

=== CODE BLOCK ADDRESS 0x9224 ===
  0x9224	int3   	
  0x9225	int3   	
  0x9226	int3   	
  0x9227	int3   	
  0x9228	dec    	eax
  === BLOCK LINK ===
    0x9229
=== CODE BLOCK END ===

=== CODE BLOCK ADDRESS 0x9229 ===
  0x9229	mov    	dword ptr [esp + 8], ebx
  0x922d	push   	ebp
  0x922e	push   	esi
  0x922f	push   	edi
  0x9230	inc    	ecx
  === BLOCK LINK ===
    0x9231
=== CODE BLOCK END ===

=== CODE BLOCK ADDRESS 0x9231 ===
  0x9231	push   	esp
  0x9232	inc    	ecx
  0x9233	push   	ebp
  0x9234	inc    	ecx
  0x9235	push   	esi
  === BLOCK LINK ===
    0x9236
=== CODE BLOCK END ===

=== CODE BLOCK ADDRESS 0x9236 ===
  0x9236	inc    	ecx
  0x9237	push   	edi
  0x9238	dec    	eax
  0x9239	lea    	ebp, [esp - 0x220]
  0x9240	dec    	eax
  === BLOCK LINK ===
    0x9241
=== CODE BLOCK END ===

=== CODE BLOCK ADDRESS 0x9241 ===
  0x9241	sub    	esp, 0x320
  0x9247	dec    	eax
  0x9248	mov    	eax, dword ptr [0x503a]
  0x924e	dec    	eax
  0x924f	xor    	eax, esp
  === BLOCK LINK ===
    0x9251
=== CODE BLOCK END ===

=== CODE BLOCK ADDRESS 0x9251 ===
  0x9251	dec    	eax
  0x9252	mov    	dword ptr [ebp + 0x210], eax
  0x9258	movzx  	ebx, dx
  0x925b	inc    	ebp
  0x925c	xor    	esp, esp
  === BLOCK LINK ===
    0x925e
=== CODE BLOCK END ===

=== CODE BLOCK ADDRESS 0x925e ===
  0x925e	inc    	ebp
  0x925f	movzx  	esi, cx
  0x9262	inc    	ecx
  0x9263	movzx  	esi, ax
  0x9266	inc    	sp
  === BLOCK LINK ===
    0x9268
=== CODE BLOCK END ===

=== CODE BLOCK ADDRESS 0x9268 ===
  0x9268	cmp    	esp, ebx
  0x926a	jae    	0x9280
  === BLOCK LINK ===
    0x926c
=== CODE BLOCK END ===

=== CODE BLOCK ADDRESS 0x926c ===
  0x926c	dec    	eax
  0x926d	mov    	edx, ecx
  0x926f	inc    	esp
  0x9270	mov    	eax, ebx
  0x9272	dec    	ecx
  === BLOCK LINK ===
    0x9273
=== CODE BLOCK END ===

=== CODE BLOCK ADDRESS 0x9273 ===
  0x9273	shl    	eax, 3
  0x9276	dec    	eax
  0x9277	lea    	ecx, [esp + 0x40]
  0x927b	call   	0x3202
  === BLOCK LINK ===
    0x9280
=== CODE BLOCK END ===

=== CODE BLOCK ADDRESS 0x9280 ===
  0x9280	mov    	edi, 0x3c
  0x9285	dec    	esp
  0x9286	mov    	dword ptr [esp + 0x28], esp
  0x928a	inc    	esp
  0x928b	mov    	ecx, edi
  === BLOCK LINK ===
    0x928d
=== CODE BLOCK END ===

=== CODE BLOCK ADDRESS 0x928d ===
  0x928d	mov    	dword ptr [esp + 0x20], 0x10f4
  0x9295	dec    	esp
  0x9296	lea    	eax, [ebp + 0x190]
  0x929c	xor    	edx, edx
  0x929e	xor    	ecx, ecx
  === BLOCK LINK ===
    0x92a0
=== CODE BLOCK END ===

=== CODE BLOCK ADDRESS 0x92a0 ===
  0x92a0	call   	0xa798
  === BLOCK LINK ===
    0x92a5
=== CODE BLOCK END ===

=== CODE BLOCK ADDRESS 0x92a5 ===
  0x92a5	inc    	esp
  0x92a6	lea    	ebp, [edi - 0x32]
  0x92a9	test   	eax, eax
  0x92ab	je     	0x92cd
  === BLOCK LINK ===
    0x92ad
=== CODE BLOCK END ===

=== CODE BLOCK ADDRESS 0x92ad ===
  0x92ad	dec    	eax
  0x92ae	mov    	ecx, dword ptr [0xa0b4]
  0x92b4	inc    	ebp
  0x92b5	xor    	ecx, ecx
  0x92b7	dec    	eax
  === BLOCK LINK ===
    0x92b8
=== CODE BLOCK END ===

=== CODE BLOCK ADDRESS 0x92b8 ===
  0x92b8	mov    	dword ptr [esp + 0x28], ecx
  0x92bc	inc    	esp
  0x92bd	mov    	eax, eax
  0x92bf	xor    	ecx, ecx
  0x92c1	inc    	esp
  === BLOCK LINK ===
    0x92c2
=== CODE BLOCK END ===

=== CODE BLOCK ADDRESS 0x92c2 ===
  0x92c2	mov    	dword ptr [esp + 0x20], ebp
  0x92c6	xor    	edx, edx
  0x92c8	call   	0x90dc
  === BLOCK LINK ===
    0x92cd
=== CODE BLOCK END ===

=== CODE BLOCK ADDRESS 0x92cd ===
  0x92cd	dec    	esp
  0x92ce	mov    	dword ptr [esp + 0x28], esp
  0x92d2	dec    	esp
  0x92d3	lea    	eax, [ebp + 0x110]
  0x92d9	inc    	esp
  === BLOCK LINK ===
    0x92da
=== CODE BLOCK END ===

=== CODE BLOCK ADDRESS 0x92da ===
  0x92da	mov    	ecx, edi
  0x92dc	mov    	dword ptr [esp + 0x20], 0x10f5
  0x92e4	xor    	edx, edx
  0x92e6	xor    	ecx, ecx
  0x92e8	call   	0xa798
  === BLOCK LINK ===
    0x92ed
=== CODE BLOCK END ===

=== CODE BLOCK ADDRESS 0x92ed ===
  0x92ed	test   	eax, eax
  0x92ef	je     	0x9311
  === BLOCK LINK ===
    0x92f1
=== CODE BLOCK END ===

=== CODE BLOCK ADDRESS 0x92f1 ===
  0x92f1	dec    	eax
  0x92f2	mov    	ecx, dword ptr [0xa070]
  0x92f8	inc    	ebp
  0x92f9	xor    	ecx, ecx
  0x92fb	dec    	eax
  === BLOCK LINK ===
    0x92fc
=== CODE BLOCK END ===

=== CODE BLOCK ADDRESS 0x92fc ===
  0x92fc	mov    	dword ptr [esp + 0x28], ecx
  0x9300	inc    	esp
  0x9301	mov    	eax, eax
  0x9303	xor    	ecx, ecx
  0x9305	inc    	esp
  === BLOCK LINK ===
    0x9306
=== CODE BLOCK END ===

=== CODE BLOCK ADDRESS 0x9306 ===
  0x9306	mov    	dword ptr [esp + 0x20], ebp
  0x930a	xor    	edx, edx
  0x930c	call   	0x90dc
  === BLOCK LINK ===
    0x9311
=== CODE BLOCK END ===

=== CODE BLOCK ADDRESS 0x9311 ===
  0x9311	dec    	esp
  0x9312	mov    	dword ptr [esp + 0x28], esp
  0x9316	dec    	esp
  0x9317	lea    	eax, [ebp - 0x70]
  0x931a	inc    	esp
  === BLOCK LINK ===
    0x931b
=== CODE BLOCK END ===

=== CODE BLOCK ADDRESS 0x931b ===
  0x931b	mov    	ecx, edi
  0x931d	mov    	dword ptr [esp + 0x20], 0x10f8
  0x9325	xor    	edx, edx
  0x9327	xor    	ecx, ecx
  0x9329	call   	0xa798
  === BLOCK LINK ===
    0x932e
=== CODE BLOCK END ===

=== CODE BLOCK ADDRESS 0x932e ===
  0x932e	test   	eax, eax
  0x9330	je     	0x9352
  === BLOCK LINK ===
    0x9332
=== CODE BLOCK END ===

=== CODE BLOCK ADDRESS 0x9332 ===
  0x9332	dec    	eax
  0x9333	mov    	ecx, dword ptr [0xa02f]
  0x9339	inc    	ebp
  0x933a	xor    	ecx, ecx
  0x933c	dec    	eax
  === BLOCK LINK ===
    0x933d
=== CODE BLOCK END ===

=== CODE BLOCK ADDRESS 0x933d ===
  0x933d	mov    	dword ptr [esp + 0x28], ecx
  0x9341	inc    	esp
  0x9342	mov    	eax, eax
  0x9344	xor    	ecx, ecx
  0x9346	inc    	esp
  === BLOCK LINK ===
    0x9347
=== CODE BLOCK END ===

=== CODE BLOCK ADDRESS 0x9347 ===
  0x9347	mov    	dword ptr [esp + 0x20], ebp
  0x934b	xor    	edx, edx
  0x934d	call   	0x90dc
  === BLOCK LINK ===
    0x9352
=== CODE BLOCK END ===

=== CODE BLOCK ADDRESS 0x9352 ===
  0x9352	dec    	esp
  0x9353	mov    	dword ptr [esp + 0x28], esp
  0x9357	dec    	esp
  0x9358	lea    	eax, [ebp + 0x90]
  0x935e	inc    	esp
  === BLOCK LINK ===
    0x935f
=== CODE BLOCK END ===

=== CODE BLOCK ADDRESS 0x935f ===
  0x935f	mov    	ecx, edi
  0x9361	mov    	dword ptr [esp + 0x20], 0x10f9
  0x9369	xor    	edx, edx
  0x936b	xor    	ecx, ecx
  0x936d	call   	0xa798
  === BLOCK LINK ===
    0x9372
=== CODE BLOCK END ===

=== CODE BLOCK ADDRESS 0x9372 ===
  0x9372	test   	eax, eax
  0x9374	je     	0x9396
  === BLOCK LINK ===
    0x9376
=== CODE BLOCK END ===

=== CODE BLOCK ADDRESS 0x9376 ===
  0x9376	dec    	eax
  0x9377	mov    	ecx, dword ptr [0x9feb]
  0x937d	inc    	ebp
  0x937e	xor    	ecx, ecx
  0x9380	dec    	eax
  === BLOCK LINK ===
    0x9381
=== CODE BLOCK END ===

=== CODE BLOCK ADDRESS 0x9381 ===
  0x9381	mov    	dword ptr [esp + 0x28], ecx
  0x9385	inc    	esp
  0x9386	mov    	eax, eax
  0x9388	xor    	ecx, ecx
  0x938a	inc    	esp
  === BLOCK LINK ===
    0x938b
=== CODE BLOCK END ===

=== CODE BLOCK ADDRESS 0x938b ===
  0x938b	mov    	dword ptr [esp + 0x20], ebp
  0x938f	xor    	edx, edx
  0x9391	call   	0x90dc
  === BLOCK LINK ===
    0x9396
=== CODE BLOCK END ===

=== CODE BLOCK ADDRESS 0x9396 ===
  0x9396	inc    	bp
  0x9398	test   	esi, esi
  0x939a	dec    	eax
  0x939b	lea    	ecx, [ebp + 0x110]
  0x93a1	dec    	eax
  === BLOCK LINK ===
    0x93a2
=== CODE BLOCK END ===

=== CODE BLOCK ADDRESS 0x93a2 ===
  0x93a2	lea    	eax, [ebp + 0x190]
  0x93a8	inc    	ecx
  0x93a9	movzx  	edi, sp
  0x93ac	dec    	eax
  0x93ad	cmovne  	ecx, eax
  === BLOCK LINK ===
    0x93b0
=== CODE BLOCK END ===

=== CODE BLOCK ADDRESS 0x93b0 ===
  0x93b0	dec    	eax
  0x93b1	mov    	dword ptr [esp + ebx*8 + 0x40], ecx
  0x93b5	inc    	bx
  0x93b8	inc    	esp
  0x93b9	movzx  	edi, bx
  === BLOCK LINK ===
    0x93bc
=== CODE BLOCK END ===

=== CODE BLOCK ADDRESS 0x93bc ===
  0x93bc	test   	di, di
  0x93bf	je     	0x93e7
  === BLOCK LINK ===
    0x93c1
=== CODE BLOCK END ===

=== CODE BLOCK ADDRESS 0x93c1 ===
  0x93c1	dec    	eax
  0x93c2	mov    	eax, dword ptr [0x9fa8]
  0x93c8	inc    	ebp
  0x93c9	xor    	ecx, ecx
  0x93cb	dec    	eax
  === BLOCK LINK ===
    0x93cc
=== CODE BLOCK END ===

=== CODE BLOCK ADDRESS 0x93cc ===
  0x93cc	mov    	dword ptr [esp + 0x28], eax
  0x93d0	xor    	edx, edx
  0x93d2	xor    	ecx, ecx
  0x93d4	mov    	dword ptr [esp + 0x20], 8
  0x93dc	inc    	ecx
  === BLOCK LINK ===
    0x93dd
=== CODE BLOCK END ===

=== CODE BLOCK ADDRESS 0x93dd ===
  0x93dd	mov    	eax, 0xeac
  0x93e2	call   	0x90dc
  === BLOCK LINK ===
    0x93e7
=== CODE BLOCK END ===

=== CODE BLOCK ADDRESS 0x93e7 ===
  0x93e7	dec    	eax
  0x93e8	mov    	eax, dword ptr [0x9f82]
  0x93ee	dec    	esp
  0x93ef	lea    	ecx, [esp + 0x38]
  0x93f3	dec    	eax
  === BLOCK LINK ===
    0x93f4
=== CODE BLOCK END ===

=== CODE BLOCK ADDRESS 0x93f4 ===
  0x93f4	mov    	dword ptr [esp + 0x28], eax
  0x93f8	dec    	eax
  0x93f9	lea    	ecx, [esp + 0x40]
  0x93fd	inc    	esp
  0x93fe	mov    	eax, esi
  === BLOCK LINK ===
    0x9400
=== CODE BLOCK END ===

=== CODE BLOCK ADDRESS 0x9400 ===
  0x9400	mov    	dword ptr [esp + 0x20], 8
  0x9408	inc    	ecx
  0x9409	mov    	edx, edi
  0x940b	call   	0x90dc
  === BLOCK LINK ===
    0x9410
=== CODE BLOCK END ===

=== CODE BLOCK ADDRESS 0x9410 ===
  0x9410	mov    	ebx, eax
  0x9412	test   	eax, eax
  0x9414	js     	0x94cc
  === BLOCK LINK ===
    0x941a
=== CODE BLOCK END ===

=== CODE BLOCK ADDRESS 0x941a ===
  0x941a	dec    	esp
  0x941b	lea    	ecx, [esp + 0x30]
  0x941f	dec    	esp
  0x9420	lea    	eax, [esp + 0x34]
  0x9424	dec    	eax
  === BLOCK LINK ===
    0x9425
=== CODE BLOCK END ===

=== CODE BLOCK ADDRESS 0x9425 ===
  0x9425	lea    	ecx, [ebp + 0x10]
  0x9428	call   	0x8228
  === BLOCK LINK ===
    0x942d
=== CODE BLOCK END ===

=== CODE BLOCK ADDRESS 0x942d ===
  0x942d	test   	eax, eax
  0x942f	jne    	0x949a
  === BLOCK LINK ===
    0x9431
=== CODE BLOCK END ===

=== CODE BLOCK ADDRESS 0x9431 ===
  0x9431	inc    	esp
  0x9432	cmp    	dword ptr [esp + 0x34], esp
  0x9436	je     	0x9502
  === BLOCK LINK ===
    0x943c
=== CODE BLOCK END ===

=== CODE BLOCK ADDRESS 0x943c ===
  0x943c	dec    	eax
  0x943d	lea    	eax, [ebp - 0x70]
  0x9440	dec    	ecx
  0x9441	or     	eax, 0xffffffff
  0x9444	dec    	ecx
  === BLOCK LINK ===
    0x9445
=== CODE BLOCK END ===

=== CODE BLOCK ADDRESS 0x9445 ===
  0x9445	inc    	eax
  0x9447	inc    	si
  0x9449	cmp    	dword ptr [eax + eax*2], esp
  0x944c	jne    	0x9444
  === BLOCK LINK ===
    0x944e
=== CODE BLOCK END ===

=== CODE BLOCK ADDRESS 0x944e ===
  0x944e	dec    	eax
  0x944f	lea    	edx, [ebp + 0x10]
  0x9452	dec    	eax
  0x9453	lea    	ecx, [ebp - 0x70]
  0x9456	dec    	eax
  === BLOCK LINK ===
    0x9457
=== CODE BLOCK END ===

=== CODE BLOCK ADDRESS 0x9457 ===
  0x9457	call   	dword ptr [0x1fbb]
  === BLOCK LINK ===
    0x945d
=== CODE BLOCK END ===

=== CODE BLOCK ADDRESS 0x945d ===
  0x945d	nop    	dword ptr [eax + eax]
  0x9462	test   	eax, eax
  0x9464	je     	0x94fb
  === BLOCK LINK ===
    0x946a
=== CODE BLOCK END ===

=== CODE BLOCK ADDRESS 0x946a ===
  0x946a	dec    	eax
  0x946b	lea    	eax, [ebp + 0x90]
  0x9471	dec    	ecx
  0x9472	or     	eax, 0xffffffff
  0x9475	dec    	ecx
  === BLOCK LINK ===
    0x9476
=== CODE BLOCK END ===

=== CODE BLOCK ADDRESS 0x9476 ===
  0x9476	inc    	eax
  0x9478	inc    	si
  0x947a	cmp    	dword ptr [eax + eax*2], esp
  0x947d	jne    	0x9475
  === BLOCK LINK ===
    0x947f
=== CODE BLOCK END ===

=== CODE BLOCK ADDRESS 0x947f ===
  0x947f	dec    	eax
  0x9480	lea    	edx, [ebp + 0x10]
  0x9483	dec    	eax
  0x9484	lea    	ecx, [ebp + 0x90]
  0x948a	dec    	eax
  === BLOCK LINK ===
    0x948b
=== CODE BLOCK END ===

=== CODE BLOCK ADDRESS 0x948b ===
  0x948b	call   	dword ptr [0x1f87]
  === BLOCK LINK ===
    0x9491
=== CODE BLOCK END ===

=== CODE BLOCK ADDRESS 0x9491 ===
  0x9491	nop    	dword ptr [eax + eax]
  0x9496	test   	eax, eax
  0x9498	je     	0x94f7
  === BLOCK LINK ===
    0x949a
=== CODE BLOCK END ===

=== CODE BLOCK ADDRESS 0x949a ===
  0x949a	inc    	di
  0x949d	cmp    	di, 5
  0x94a1	jb     	0x93bc
  === BLOCK LINK ===
    0x94a7
=== CODE BLOCK END ===

=== CODE BLOCK ADDRESS 0x94a7 ===
  0x94a7	dec    	eax
  0x94a8	mov    	eax, dword ptr [0x9eba]
  0x94ae	inc    	ebp
  0x94af	xor    	ecx, ecx
  0x94b1	dec    	eax
  === BLOCK LINK ===
    0x94b2
=== CODE BLOCK END ===

=== CODE BLOCK ADDRESS 0x94b2 ===
  0x94b2	mov    	dword ptr [esp + 0x28], eax
  0x94b6	xor    	edx, edx
  0x94b8	xor    	ecx, ecx
  0x94ba	inc    	esp
  0x94bb	mov    	dword ptr [esp + 0x20], ebp
  === BLOCK LINK ===
    0x94bf
=== CODE BLOCK END ===

=== CODE BLOCK ADDRESS 0x94bf ===
  0x94bf	inc    	ecx
  0x94c0	mov    	eax, 0xead
  0x94c5	call   	0x90dc
  === BLOCK LINK ===
    0x94ca
=== CODE BLOCK END ===

=== CODE BLOCK ADDRESS 0x94ca ===
  0x94ca	mov    	eax, ebx
  0x94cc	dec    	eax
  0x94cd	mov    	ecx, dword ptr [ebp + 0x210]
  0x94d3	dec    	eax
  0x94d4	xor    	ecx, esp
  === BLOCK LINK ===
    0x94d6
=== CODE BLOCK END ===

=== CODE BLOCK ADDRESS 0x94d6 ===
  0x94d6	call   	0x2900
  === BLOCK LINK ===
    0x94db
=== CODE BLOCK END ===

=== CODE BLOCK ADDRESS 0x94db ===
  0x94db	dec    	eax
  0x94dc	mov    	ebx, dword ptr [esp + 0x360]
  0x94e3	dec    	eax
  0x94e4	add    	esp, 0x320
  0x94ea	inc    	ecx
  === BLOCK LINK ===
    0x94eb
=== CODE BLOCK END ===

=== CODE BLOCK ADDRESS 0x94eb ===
  0x94eb	pop    	edi
  0x94ec	inc    	ecx
  0x94ed	pop    	esi
  0x94ee	inc    	ecx
  0x94ef	pop    	ebp
  === BLOCK LINK ===
    0x94f0
=== CODE BLOCK END ===

=== CODE BLOCK ADDRESS 0x94f0 ===
  0x94f0	inc    	ecx
  0x94f1	pop    	esp
  0x94f2	pop    	edi
  0x94f3	pop    	esi
  0x94f4	pop    	ebp
  === BLOCK LINK ===
    0x94f5
=== CODE BLOCK END ===

=== CODE BLOCK ADDRESS 0x94f5 ===
  0x94f5	ret    	
  0x94f6	int3   	
  0x94f7	xor    	eax, eax
  0x94f9	jmp    	0x94cc
  === BLOCK LINK ===
    0x94fb
=== CODE BLOCK END ===

=== CODE BLOCK ADDRESS 0x94fb ===
  0x94fb	mov    	eax, 1
  0x9500	jmp    	0x94cc
  === BLOCK LINK ===
    0x9502
=== CODE BLOCK END ===

=== CODE BLOCK ADDRESS 0x9502 ===
  0x9502	mov    	eax, 0xffff
  0x9507	cmp    	word ptr [esp + 0x30], ax
  0x950c	jne    	0x953f
  === BLOCK LINK ===
    0x950e
=== CODE BLOCK END ===

=== CODE BLOCK ADDRESS 0x950e ===
  0x950e	xor    	edx, edx
  0x9510	dec    	eax
  0x9511	lea    	ecx, [0x21b1]
  0x9517	call   	0x86c8
  === BLOCK LINK ===
    0x951c
=== CODE BLOCK END ===

=== CODE BLOCK ADDRESS 0x951c ===
  0x951c	dec    	eax
  0x951d	mov    	eax, dword ptr [0x9e45]
  0x9523	inc    	ebp
  0x9524	xor    	ecx, ecx
  0x9526	dec    	eax
  === BLOCK LINK ===
    0x9527
=== CODE BLOCK END ===

=== CODE BLOCK ADDRESS 0x9527 ===
  0x9527	mov    	dword ptr [esp + 0x28], eax
  0x952b	xor    	edx, edx
  0x952d	xor    	ecx, ecx
  0x952f	inc    	esp
  0x9530	mov    	dword ptr [esp + 0x20], ebp
  === BLOCK LINK ===
    0x9534
=== CODE BLOCK END ===

=== CODE BLOCK ADDRESS 0x9534 ===
  0x9534	inc    	ecx
  0x9535	mov    	eax, 0xead
  0x953a	call   	0x90dc
  === BLOCK LINK ===
    0x953f
=== CODE BLOCK END ===

=== CODE BLOCK ADDRESS 0x953f ===
  0x953f	inc    	ecx
  0x9540	mov    	eax, esi
  0x9542	jmp    	0x94cc
  === BLOCK LINK ===
    0x9544
=== CODE BLOCK END ===

=== CODE BLOCK ADDRESS 0x9544 ===
  0x9544	int3   	
  0x9545	int3   	
  0x9546	int3   	
  0x9547	int3   	
  0x9548	int3   	
  === BLOCK LINK ===
    0x9549
=== CODE BLOCK END ===

=== CODE BLOCK ADDRESS 0x9549 ===
  0x9549	int3   	
  0x954a	int3   	
  0x954b	int3   	
  0x954c	dec    	eax
  0x954d	sub    	esp, 0x28
  === BLOCK LINK ===
    0x9550
=== CODE BLOCK END ===

=== CODE BLOCK ADDRESS 0x9550 ===
  0x9550	mov    	edx, 0x3a
  0x9555	dec    	eax
  0x9556	call   	dword ptr [0x1ecc]
  === BLOCK LINK ===
    0x955c
=== CODE BLOCK END ===

=== CODE BLOCK ADDRESS 0x955c ===
  0x955c	nop    	dword ptr [eax + eax]
  0x9561	xor    	ecx, ecx
  0x9563	dec    	eax
  0x9564	test   	eax, eax
  0x9566	je     	0x956f
  === BLOCK LINK ===
    0x9568
=== CODE BLOCK END ===

=== CODE BLOCK ADDRESS 0x9568 ===
  0x9568	mov    	word ptr [eax], cx
  0x956b	dec    	eax
  0x956c	add    	eax, 2
  0x956f	dec    	eax
  0x9570	add    	esp, 0x28
  === BLOCK LINK ===
    0x9573
=== CODE BLOCK END ===

=== CODE BLOCK ADDRESS 0x9573 ===
  0x9573	ret    	
  0x9574	int3   	
  0x9575	int3   	
  0x9576	int3   	
  0x9577	int3   	
  === BLOCK LINK ===
    0x9578
=== CODE BLOCK END ===

=== CODE BLOCK ADDRESS 0x1ba0 ===
  0x1ba0	inc    	eax
  0x1ba1	push   	ebp
  0x1ba2	inc    	ecx
  === BLOCK LINK ===
    0x1ba3
=== CODE BLOCK END ===

=== CODE BLOCK ADDRESS 0x9578 ===
  0x9578	int3   	
  0x9579	int3   	
  0x957a	int3   	
  0x957b	int3   	
  0x957c	inc    	eax
  === BLOCK LINK ===
    0x957d
=== CODE BLOCK END ===

=== CODE BLOCK ADDRESS 0x957d ===
  0x957d	push   	ebp
  0x957e	push   	ebx
  0x957f	dec    	eax
  0x9580	mov    	ebp, esp
  0x9582	dec    	eax
  === BLOCK LINK ===
    0x9583
=== CODE BLOCK END ===

=== CODE BLOCK ADDRESS 0x9583 ===
  0x9583	sub    	esp, 0x38
  0x9586	xor    	ebx, ebx
  0x9588	mov    	dword ptr [ebp + 0x28], 4
  0x958f	dec    	esp
  0x9590	lea    	eax, [ebp + 0x30]
  === BLOCK LINK ===
    0x9593
=== CODE BLOCK END ===

=== CODE BLOCK ADDRESS 0x9593 ===
  0x9593	dec    	eax
  0x9594	mov    	dword ptr [ebp + 0x30], ebx
  0x9597	dec    	eax
  0x9598	lea    	edx, [0x29c2]
  0x959e	mov    	dword ptr [ebp + 0x20], ebx
  === BLOCK LINK ===
    0x95a1
=== CODE BLOCK END ===

=== CODE BLOCK ADDRESS 0x95a1 ===
  0x95a1	dec    	eax
  0x95a2	mov    	ecx, 0x80000002
  0x95a8	mov    	dword ptr [ebp + 0x18], ebx
  0x95ab	dec    	eax
  0x95ac	call   	dword ptr [0x1de6]
  === BLOCK LINK ===
    0x95b2
=== CODE BLOCK END ===

=== CODE BLOCK ADDRESS 0x95b2 ===
  0x95b2	nop    	dword ptr [eax + eax]
  0x95b7	test   	eax, eax
  0x95b9	jne    	0x960e
  === BLOCK LINK ===
    0x95bb
=== CODE BLOCK END ===

=== CODE BLOCK ADDRESS 0x95bb ===
  0x95bb	dec    	eax
  0x95bc	mov    	ecx, dword ptr [ebp + 0x30]
  0x95bf	dec    	eax
  0x95c0	lea    	eax, [ebp + 0x28]
  0x95c3	dec    	eax
  === BLOCK LINK ===
    0x95c4
=== CODE BLOCK END ===

=== CODE BLOCK ADDRESS 0x95c4 ===
  0x95c4	mov    	dword ptr [esp + 0x28], eax
  0x95c8	dec    	esp
  0x95c9	lea    	ecx, [ebp + 0x18]
  0x95cc	dec    	eax
  0x95cd	lea    	eax, [ebp + 0x20]
  === BLOCK LINK ===
    0x95d0
=== CODE BLOCK END ===

=== CODE BLOCK ADDRESS 0x95d0 ===
  0x95d0	inc    	ebp
  0x95d1	xor    	eax, eax
  0x95d3	dec    	eax
  0x95d4	lea    	edx, [0x2a0e]
  0x95da	dec    	eax
  === BLOCK LINK ===
    0x95db
=== CODE BLOCK END ===

=== CODE BLOCK ADDRESS 0x95db ===
  0x95db	mov    	dword ptr [esp + 0x20], eax
  0x95df	dec    	eax
  0x95e0	call   	dword ptr [0x1d92]
  === BLOCK LINK ===
    0x95e6
=== CODE BLOCK END ===

=== CODE BLOCK ADDRESS 0x95e6 ===
  0x95e6	nop    	dword ptr [eax + eax]
  0x95eb	test   	eax, eax
  0x95ed	jne    	0x95fe
  === BLOCK LINK ===
    0x95ef
=== CODE BLOCK END ===

=== CODE BLOCK ADDRESS 0x95ef ===
  0x95ef	cmp    	dword ptr [ebp + 0x18], 4
  0x95f3	jne    	0x95fe
  === BLOCK LINK ===
    0x95f5
=== CODE BLOCK END ===

=== CODE BLOCK ADDRESS 0x95f5 ===
  0x95f5	lea    	eax, [ebx + 1]
  0x95f8	cmp    	dword ptr [ebp + 0x20], eax
  0x95fb	cmove  	ebx, eax
  0x95fe	dec    	eax
  0x95ff	mov    	ecx, dword ptr [ebp + 0x30]
  === BLOCK LINK ===
    0x9602
=== CODE BLOCK END ===

=== CODE BLOCK ADDRESS 0x9602 ===
  0x9602	dec    	eax
  0x9603	call   	dword ptr [0x1d77]
  === BLOCK LINK ===
    0x9609
=== CODE BLOCK END ===

=== CODE BLOCK ADDRESS 0x9609 ===
  0x9609	nop    	dword ptr [eax + eax]
  0x960e	mov    	eax, ebx
  0x9610	dec    	eax
  0x9611	add    	esp, 0x38
  0x9614	pop    	ebx
  === BLOCK LINK ===
    0x9615
=== CODE BLOCK END ===

=== CODE BLOCK ADDRESS 0x9615 ===
  0x9615	pop    	ebp
  0x9616	ret    	
  0x9617	int3   	
  0x9618	int3   	
  0x9619	int3   	
  === BLOCK LINK ===
    0x961a
=== CODE BLOCK END ===

=== CODE BLOCK ADDRESS 0x961a ===
  0x961a	int3   	
  0x961b	int3   	
  0x961c	int3   	
  0x961d	int3   	
  0x961e	int3   	
  === BLOCK LINK ===
    0x961f
=== CODE BLOCK END ===

=== CODE BLOCK ADDRESS 0x961f ===
  0x961f	int3   	
  0x9620	dec    	eax
  0x9621	mov    	dword ptr [esp + 8], ebx
  0x9625	dec    	eax
  0x9626	mov    	dword ptr [esp + 0x10], ebp
  === BLOCK LINK ===
    0x962a
=== CODE BLOCK END ===

=== CODE BLOCK ADDRESS 0x962a ===
  0x962a	dec    	eax
  0x962b	mov    	dword ptr [esp + 0x18], esi
  0x962f	push   	edi
  0x9630	inc    	ecx
  0x9631	push   	esi
  === BLOCK LINK ===
    0x9632
=== CODE BLOCK END ===

=== CODE BLOCK ADDRESS 0x9632 ===
  0x9632	inc    	ecx
  0x9633	push   	edi
  0x9634	dec    	eax
  0x9635	sub    	esp, 0x20
  0x9638	dec    	eax
  === BLOCK LINK ===
    0x9639
=== CODE BLOCK END ===

=== CODE BLOCK ADDRESS 0x9639 ===
  0x9639	or     	esi, 0xffffffff
  0x963c	inc    	esp
  0x963d	movsx  	esi, dx
  0x9640	inc    	ebp
  0x9641	xor    	edi, edi
  === BLOCK LINK ===
    0x9643
=== CODE BLOCK END ===

=== CODE BLOCK ADDRESS 0x9643 ===
  0x9643	dec    	eax
  0x9644	mov    	ebp, ecx
  0x9646	dec    	eax
  0x9647	inc    	esi
  0x9649	inc    	sp
  === BLOCK LINK ===
    0x964b
=== CODE BLOCK END ===

=== CODE BLOCK ADDRESS 0x964b ===
  0x964b	cmp    	dword ptr [ecx + esi*2], edi
  0x964e	jne    	0x9646
  === BLOCK LINK ===
    0x9650
=== CODE BLOCK END ===

=== CODE BLOCK ADDRESS 0x9650 ===
  0x9650	mov    	edi, 0xbfc
  0x9655	mov    	ecx, edi
  0x9657	call   	0x97ec
  === BLOCK LINK ===
    0x965c
=== CODE BLOCK END ===

=== CODE BLOCK ADDRESS 0x965c ===
  0x965c	dec    	eax
  0x965d	mov    	ebx, eax
  0x965f	dec    	eax
  0x9660	test   	eax, eax
  0x9662	je     	0x9725
  === BLOCK LINK ===
    0x9668
=== CODE BLOCK END ===

=== CODE BLOCK ADDRESS 0x9668 ===
  0x9668	inc    	esp
  0x9669	mov    	eax, esi
  0x966b	dec    	eax
  0x966c	mov    	edx, eax
  0x966e	dec    	eax
  === BLOCK LINK ===
    0x966f
=== CODE BLOCK END ===

=== CODE BLOCK ADDRESS 0x966f ===
  0x966f	mov    	ecx, ebp
  0x9671	dec    	eax
  0x9672	call   	dword ptr [0x1da0]
  === BLOCK LINK ===
    0x9678
=== CODE BLOCK END ===

=== CODE BLOCK ADDRESS 0x9678 ===
  0x9678	nop    	dword ptr [eax + eax]
  0x967d	test   	eax, eax
  0x967f	jne    	0x968b
  === BLOCK LINK ===
    0x9681
=== CODE BLOCK END ===

=== CODE BLOCK ADDRESS 0x9681 ===
  0x9681	lea    	ecx, [esi + 1]
  0x9684	cmp    	word ptr [ebx + ecx*2], 0xa
  0x9689	je     	0x96ac
  === BLOCK LINK ===
    0x968b
=== CODE BLOCK END ===

=== CODE BLOCK ADDRESS 0x968b ===
  0x968b	dec    	eax
  0x968c	mov    	ecx, ebx
  0x968e	dec    	eax
  0x968f	call   	dword ptr [0x1c13]
  === BLOCK LINK ===
    0x9695
=== CODE BLOCK END ===

=== CODE BLOCK ADDRESS 0x9695 ===
  0x9695	nop    	dword ptr [eax + eax]
  0x969a	add    	edi, 3
  0x969d	cmp    	edi, 0xc5c
  0x96a3	jbe    	0x9655
  === BLOCK LINK ===
    0x96a5
=== CODE BLOCK END ===

=== CODE BLOCK ADDRESS 0x96a5 ===
  0x96a5	xor    	eax, eax
  0x96a7	jmp    	0x973f
  === BLOCK LINK ===
    0x96ac
=== CODE BLOCK END ===

=== CODE BLOCK ADDRESS 0x96ac ===
  0x96ac	inc    	ecx
  0x96ad	mov    	ecx, esi
  0x96af	inc    	ebp
  0x96b0	test   	esi, esi
  0x96b2	je     	0x9718
  === BLOCK LINK ===
    0x96b4
=== CODE BLOCK END ===

=== CODE BLOCK ADDRESS 0x96b4 ===
  0x96b4	sub    	ecx, 1
  0x96b7	je     	0x96ec
  === BLOCK LINK ===
    0x96b9
=== CODE BLOCK END ===

=== CODE BLOCK ADDRESS 0x96b9 ===
  0x96b9	cmp    	ecx, 1
  0x96bc	jne    	0x9720
  === BLOCK LINK ===
    0x96be
=== CODE BLOCK END ===

=== CODE BLOCK ADDRESS 0x96be ===
  0x96be	dec    	eax
  0x96bf	mov    	ecx, ebx
  0x96c1	dec    	eax
  0x96c2	call   	dword ptr [0x1be0]
  === BLOCK LINK ===
    0x96c8
=== CODE BLOCK END ===

=== CODE BLOCK ADDRESS 0x96c8 ===
  0x96c8	nop    	dword ptr [eax + eax]
  0x96cd	lea    	ecx, [edi + 2]
  0x96d0	call   	0x97ec
  === BLOCK LINK ===
    0x96d5
=== CODE BLOCK END ===

=== CODE BLOCK ADDRESS 0x96d5 ===
  0x96d5	dec    	eax
  0x96d6	mov    	ebx, eax
  0x96d8	dec    	eax
  0x96d9	test   	eax, eax
  0x96db	jne    	0x96e7
  === BLOCK LINK ===
    0x96dd
=== CODE BLOCK END ===

=== CODE BLOCK ADDRESS 0x96dd ===
  0x96dd	lea    	ecx, [edi + 2]
  0x96e0	call   	0x9760
  === BLOCK LINK ===
    0x96e5
=== CODE BLOCK END ===

=== CODE BLOCK ADDRESS 0x96e5 ===
  0x96e5	jmp    	0x9720
  === BLOCK LINK ===
    0x96e7
=== CODE BLOCK END ===

=== CODE BLOCK ADDRESS 0x96e7 ===
  0x96e7	dec    	eax
  0x96e8	mov    	ecx, eax
  0x96ea	jmp    	0x971b
  === BLOCK LINK ===
    0x96ec
=== CODE BLOCK END ===

=== CODE BLOCK ADDRESS 0x96ec ===
  0x96ec	dec    	eax
  0x96ed	mov    	ecx, ebx
  0x96ef	call   	0x98b0
  === BLOCK LINK ===
    0x96f4
=== CODE BLOCK END ===

=== CODE BLOCK ADDRESS 0x96f4 ===
  0x96f4	dec    	eax
  0x96f5	mov    	ecx, ebx
  0x96f7	dec    	eax
  0x96f8	call   	dword ptr [0x1baa]
  === BLOCK LINK ===
    0x96fe
=== CODE BLOCK END ===

=== CODE BLOCK ADDRESS 0x96fe ===
  0x96fe	nop    	dword ptr [eax + eax]
  0x9703	lea    	ecx, [edi + 1]
  0x9706	call   	0x97ec
  === BLOCK LINK ===
    0x970b
=== CODE BLOCK END ===

=== CODE BLOCK ADDRESS 0x970b ===
  0x970b	dec    	eax
  0x970c	mov    	ebx, eax
  0x970e	dec    	eax
  0x970f	test   	eax, eax
  0x9711	jne    	0x96e7
  === BLOCK LINK ===
    0x9713
=== CODE BLOCK END ===

=== CODE BLOCK ADDRESS 0x9713 ===
  0x9713	lea    	ecx, [edi + 1]
  0x9716	jmp    	0x96e0
  === BLOCK LINK ===
    0x9718
=== CODE BLOCK END ===

=== CODE BLOCK ADDRESS 0x9718 ===
  0x9718	dec    	eax
  0x9719	mov    	ecx, ebx
  0x971b	call   	0x98b0
  === BLOCK LINK ===
    0x9720
=== CODE BLOCK END ===

=== CODE BLOCK ADDRESS 0x9720 ===
  0x9720	dec    	eax
  0x9721	mov    	ecx, ebx
  0x9723	jmp    	0x972e
  === BLOCK LINK ===
    0x9725
=== CODE BLOCK END ===

=== CODE BLOCK ADDRESS 0x9725 ===
  0x9725	mov    	ecx, edi
  0x9727	call   	0x9760
  === BLOCK LINK ===
    0x972c
=== CODE BLOCK END ===

=== CODE BLOCK ADDRESS 0x972c ===
  0x972c	xor    	ecx, ecx
  0x972e	dec    	eax
  0x972f	call   	dword ptr [0x1b73]
  === BLOCK LINK ===
    0x9735
=== CODE BLOCK END ===

=== CODE BLOCK ADDRESS 0x9735 ===
  0x9735	nop    	dword ptr [eax + eax]
  0x973a	mov    	eax, 1
  0x973f	dec    	eax
  0x9740	mov    	ebx, dword ptr [esp + 0x40]
  0x9744	dec    	eax
  === BLOCK LINK ===
    0x9745
=== CODE BLOCK END ===

=== CODE BLOCK ADDRESS 0x9745 ===
  0x9745	mov    	ebp, dword ptr [esp + 0x48]
  0x9749	dec    	eax
  0x974a	mov    	esi, dword ptr [esp + 0x50]
  0x974e	dec    	eax
  0x974f	add    	esp, 0x20
  === BLOCK LINK ===
    0x9752
=== CODE BLOCK END ===

=== CODE BLOCK ADDRESS 0x9752 ===
  0x9752	inc    	ecx
  0x9753	pop    	edi
  0x9754	inc    	ecx
  0x9755	pop    	esi
  0x9756	pop    	edi
  === BLOCK LINK ===
    0x9757
=== CODE BLOCK END ===

=== CODE BLOCK ADDRESS 0x9757 ===
  0x9757	ret    	
  0x9758	int3   	
  0x9759	int3   	
  0x975a	int3   	
  0x975b	int3   	
  === BLOCK LINK ===
    0x975c
=== CODE BLOCK END ===

=== CODE BLOCK ADDRESS 0x975c ===
  0x975c	int3   	
  0x975d	int3   	
  0x975e	int3   	
  0x975f	int3   	
  0x9760	inc    	eax
  === BLOCK LINK ===
    0x9761
=== CODE BLOCK END ===

=== CODE BLOCK ADDRESS 0x9761 ===
  0x9761	push   	ebx
  0x9762	dec    	eax
  0x9763	sub    	esp, 0x80
  0x9769	dec    	eax
  0x976a	mov    	eax, dword ptr [0x4b18]
  === BLOCK LINK ===
    0x9770
=== CODE BLOCK END ===

=== CODE BLOCK ADDRESS 0x9770 ===
  0x9770	dec    	eax
  0x9771	xor    	eax, esp
  0x9773	dec    	eax
  0x9774	mov    	dword ptr [esp + 0x70], eax
  0x9778	inc    	ecx
  === BLOCK LINK ===
    0x9779
=== CODE BLOCK END ===

=== CODE BLOCK ADDRESS 0x9779 ===
  0x9779	mov    	eax, 0x10
  0x977e	dec    	eax
  0x977f	lea    	edx, [esp + 0x20]
  0x9783	dec    	eax
  0x9784	call   	dword ptr [0x1cb6]
  === BLOCK LINK ===
    0x978a
=== CODE BLOCK END ===

=== CODE BLOCK ADDRESS 0x978a ===
  0x978a	nop    	dword ptr [eax + eax]
  0x978f	mov    	ecx, 0xbfa
  0x9794	call   	0x97ec
  === BLOCK LINK ===
    0x9799
=== CODE BLOCK END ===

=== CODE BLOCK ADDRESS 0x9799 ===
  0x9799	dec    	eax
  0x979a	mov    	ebx, eax
  0x979c	dec    	eax
  0x979d	test   	eax, eax
  0x979f	jne    	0x97b6
  === BLOCK LINK ===
    0x97a1
=== CODE BLOCK END ===

=== CODE BLOCK ADDRESS 0x97a1 ===
  0x97a1	xor    	edx, edx
  0x97a3	mov    	ecx, 0x13d
  0x97a8	call   	0x7ea4
  === BLOCK LINK ===
    0x97ad
=== CODE BLOCK END ===

=== CODE BLOCK ADDRESS 0x97ad ===
  0x97ad	lea    	ecx, [ebx + 2]
  0x97b0	call   	0x8378
  === BLOCK LINK ===
    0x97b5
=== CODE BLOCK END ===

=== CODE BLOCK ADDRESS 0x97b5 ===
  0x97b5	int3   	
  0x97b6	dec    	eax
  0x97b7	mov    	ecx, ebx
  0x97b9	call   	0x98b0
  === BLOCK LINK ===
    0x97be
=== CODE BLOCK END ===

=== CODE BLOCK ADDRESS 0x97be ===
  0x97be	dec    	eax
  0x97bf	mov    	ecx, ebx
  0x97c1	dec    	eax
  0x97c2	call   	dword ptr [0x1ae0]
  === BLOCK LINK ===
    0x97c8
=== CODE BLOCK END ===

=== CODE BLOCK ADDRESS 0x97c8 ===
  0x97c8	nop    	dword ptr [eax + eax]
  0x97cd	dec    	eax
  0x97ce	mov    	ecx, dword ptr [esp + 0x70]
  0x97d2	dec    	eax
  0x97d3	xor    	ecx, esp
  === BLOCK LINK ===
    0x97d5
=== CODE BLOCK END ===

=== CODE BLOCK ADDRESS 0x97d5 ===
  0x97d5	call   	0x2900
  === BLOCK LINK ===
    0x97da
=== CODE BLOCK END ===

=== CODE BLOCK ADDRESS 0x97da ===
  0x97da	dec    	eax
  0x97db	add    	esp, 0x80
  0x97e1	pop    	ebx
  0x97e2	ret    	
  0x97e3	int3   	
  === BLOCK LINK ===
    0x97e4
=== CODE BLOCK END ===

=== CODE BLOCK ADDRESS 0x97e4 ===
  0x97e4	int3   	
  0x97e5	int3   	
  0x97e6	int3   	
  0x97e7	int3   	
  0x97e8	int3   	
  === BLOCK LINK ===
    0x97e9
=== CODE BLOCK END ===

=== CODE BLOCK ADDRESS 0x97e9 ===
  0x97e9	int3   	
  0x97ea	int3   	
  0x97eb	int3   	
  0x97ec	dec    	eax
  0x97ed	mov    	eax, esp
  === BLOCK LINK ===
    0x97ef
=== CODE BLOCK END ===

=== CODE BLOCK ADDRESS 0x97ef ===
  0x97ef	mov    	dword ptr [eax + 8], ecx
  0x97f2	dec    	eax
  0x97f3	mov    	dword ptr [eax + 0x10], edx
  0x97f6	dec    	esp
  0x97f7	mov    	dword ptr [eax + 0x18], eax
  === BLOCK LINK ===
    0x97fa
=== CODE BLOCK END ===

=== CODE BLOCK ADDRESS 0x97fa ===
  0x97fa	dec    	esp
  0x97fb	mov    	dword ptr [eax + 0x20], ecx
  0x97fe	dec    	eax
  0x97ff	sub    	esp, 0x58
  0x9802	dec    	eax
  === BLOCK LINK ===
    0x9803
=== CODE BLOCK END ===

=== CODE BLOCK ADDRESS 0x9803 ===
  0x9803	and    	dword ptr [eax - 0x18], 0
  0x9807	dec    	eax
  0x9808	lea    	eax, [eax + 0x10]
  0x980b	dec    	eax
  0x980c	mov    	dword ptr [esp + 0x48], eax
  === BLOCK LINK ===
    0x9810
=== CODE BLOCK END ===

=== CODE BLOCK ADDRESS 0x9810 ===
  0x9810	dec    	eax
  0x9811	mov    	eax, dword ptr [0xfbb9]
  0x9817	dec    	eax
  0x9818	test   	eax, eax
  0x981a	jne    	0x9867
  === BLOCK LINK ===
    0x981c
=== CODE BLOCK END ===

=== CODE BLOCK ADDRESS 0x981c ===
  0x981c	xor    	edx, edx
  0x981e	dec    	eax
  0x981f	lea    	ecx, [0x27fb]
  0x9825	inc    	ecx
  0x9826	mov    	eax, 0x822
  === BLOCK LINK ===
    0x982b
=== CODE BLOCK END ===

=== CODE BLOCK ADDRESS 0x982b ===
  0x982b	dec    	eax
  0x982c	call   	dword ptr [0x1a96]
  === BLOCK LINK ===
    0x9832
=== CODE BLOCK END ===

=== CODE BLOCK ADDRESS 0x9832 ===
  0x9832	nop    	dword ptr [eax + eax]
  0x9837	dec    	eax
  0x9838	mov    	dword ptr [0xfb92], eax
  0x983e	dec    	eax
  0x983f	test   	eax, eax
  === BLOCK LINK ===
    0x9841
=== CODE BLOCK END ===

=== CODE BLOCK ADDRESS 0x9841 ===
  0x9841	jne    	0x9863
  === BLOCK LINK ===
    0x9843
=== CODE BLOCK END ===

=== CODE BLOCK ADDRESS 0x9843 ===
  0x9843	dec    	eax
  0x9844	call   	dword ptr [0x1a0e]
  === BLOCK LINK ===
    0x984a
=== CODE BLOCK END ===

=== CODE BLOCK ADDRESS 0x984a ===
  0x984a	nop    	dword ptr [eax + eax]
  0x984f	mov    	ecx, eax
  0x9851	xor    	edx, edx
  0x9853	call   	0x7ea4
  === BLOCK LINK ===
    0x9858
=== CODE BLOCK END ===

=== CODE BLOCK ADDRESS 0x9858 ===
  0x9858	mov    	ecx, 2
  0x985d	call   	0x8378
  === BLOCK LINK ===
    0x9862
=== CODE BLOCK END ===

=== CODE BLOCK ADDRESS 0x9862 ===
  0x9862	int3   	
  0x9863	mov    	ecx, dword ptr [esp + 0x60]
  0x9867	dec    	eax
  0x9868	lea    	edx, [esp + 0x48]
  0x986c	inc    	esp
  === BLOCK LINK ===
    0x986d
=== CODE BLOCK END ===

=== CODE BLOCK ADDRESS 0x986d ===
  0x986d	mov    	eax, ecx
  0x986f	dec    	eax
  0x9870	mov    	dword ptr [esp + 0x30], edx
  0x9874	inc    	ebp
  0x9875	xor    	ecx, ecx
  === BLOCK LINK ===
    0x9877
=== CODE BLOCK END ===

=== CODE BLOCK ADDRESS 0x9877 ===
  0x9877	and    	dword ptr [esp + 0x28], 0
  0x987c	dec    	eax
  0x987d	lea    	edx, [esp + 0x40]
  0x9881	dec    	eax
  0x9882	mov    	dword ptr [esp + 0x20], edx
  === BLOCK LINK ===
    0x9886
=== CODE BLOCK END ===

=== CODE BLOCK ADDRESS 0x9886 ===
  0x9886	mov    	ecx, 0x1900
  0x988b	dec    	eax
  0x988c	mov    	edx, eax
  0x988e	dec    	eax
  0x988f	call   	dword ptr [0x1a53]
  === BLOCK LINK ===
    0x9895
=== CODE BLOCK END ===

=== CODE BLOCK ADDRESS 0x9895 ===
  0x9895	nop    	dword ptr [eax + eax]
  0x989a	neg    	eax
  0x989c	dec    	eax
  0x989d	sbb    	eax, eax
  0x989f	dec    	eax
  === BLOCK LINK ===
    0x98a0
=== CODE BLOCK END ===

=== CODE BLOCK ADDRESS 0x98a0 ===
  0x98a0	and    	eax, dword ptr [esp + 0x40]
  0x98a4	dec    	eax
  0x98a5	add    	esp, 0x58
  0x98a8	ret    	
  0x98a9	int3   	
  === BLOCK LINK ===
    0x98aa
=== CODE BLOCK END ===

=== CODE BLOCK ADDRESS 0x98aa ===
  0x98aa	int3   	
  0x98ab	int3   	
  0x98ac	int3   	
  0x98ad	int3   	
  0x98ae	int3   	
  === BLOCK LINK ===
    0x98af
=== CODE BLOCK END ===

=== CODE BLOCK ADDRESS 0x98af ===
  0x98af	int3   	
  0x98b0	dec    	eax
  0x98b1	mov    	dword ptr [esp + 8], ebx
  0x98b5	dec    	eax
  0x98b6	mov    	dword ptr [esp + 0x20], ebp
  === BLOCK LINK ===
    0x98ba
=== CODE BLOCK END ===

=== CODE BLOCK ADDRESS 0x98ba ===
  0x98ba	push   	esi
  0x98bb	push   	edi
  0x98bc	inc    	ecx
  0x98bd	push   	esi
  0x98be	dec    	eax
  === BLOCK LINK ===
    0x98bf
=== CODE BLOCK END ===

=== CODE BLOCK ADDRESS 0x98bf ===
  0x98bf	sub    	esp, 0x40
  0x98c2	dec    	eax
  0x98c3	mov    	esi, ecx
  0x98c5	dec    	eax
  0x98c6	mov    	ecx, dword ptr [0x53c4]
  === BLOCK LINK ===
    0x98cc
=== CODE BLOCK END ===

=== CODE BLOCK ADDRESS 0x98cc ===
  0x98cc	dec    	eax
  0x98cd	call   	dword ptr [0x199d]
  === BLOCK LINK ===
    0x98d3
=== CODE BLOCK END ===

=== CODE BLOCK ADDRESS 0x98d3 ===
  0x98d3	nop    	dword ptr [eax + eax]
  0x98d8	xor    	ebx, ebx
  0x98da	test   	al, 2
  0x98dc	je     	0x992f
  === BLOCK LINK ===
    0x98de
=== CODE BLOCK END ===

=== CODE BLOCK ADDRESS 0x98de ===
  0x98de	dec    	eax
  0x98df	mov    	ecx, dword ptr [0x53ab]
  0x98e5	dec    	eax
  0x98e6	lea    	edx, [esp + 0x70]
  0x98ea	dec    	eax
  === BLOCK LINK ===
    0x98eb
=== CODE BLOCK END ===

=== CODE BLOCK ADDRESS 0x98eb ===
  0x98eb	call   	dword ptr [0x18ef]
  === BLOCK LINK ===
    0x98f1
=== CODE BLOCK END ===

=== CODE BLOCK ADDRESS 0x98f1 ===
  0x98f1	nop    	dword ptr [eax + eax]
  0x98f6	test   	eax, eax
  0x98f8	je     	0x992f
  === BLOCK LINK ===
    0x98fa
=== CODE BLOCK END ===

=== CODE BLOCK ADDRESS 0x98fa ===
  0x98fa	dec    	eax
  0x98fb	or     	edi, 0xffffffff
  0x98fe	dec    	eax
  0x98ff	inc    	edi
  0x9901	cmp    	word ptr [esi + edi*2], bx
  === BLOCK LINK ===
    0x9905
=== CODE BLOCK END ===

=== CODE BLOCK ADDRESS 0x9905 ===
  0x9905	jne    	0x98fe
  === BLOCK LINK ===
    0x9907
=== CODE BLOCK END ===

=== CODE BLOCK ADDRESS 0x9907 ===
  0x9907	dec    	eax
  0x9908	mov    	ecx, dword ptr [0x5382]
  0x990e	dec    	esp
  0x990f	lea    	ecx, [esp + 0x68]
  0x9913	dec    	esp
  === BLOCK LINK ===
    0x9914
=== CODE BLOCK END ===

=== CODE BLOCK ADDRESS 0x9914 ===
  0x9914	mov    	eax, edi
  0x9916	dec    	eax
  0x9917	mov    	dword ptr [esp + 0x20], ebx
  0x991b	dec    	eax
  0x991c	mov    	edx, esi
  === BLOCK LINK ===
    0x991e
=== CODE BLOCK END ===

=== CODE BLOCK ADDRESS 0x991e ===
  0x991e	dec    	eax
  0x991f	call   	dword ptr [0x18ab]
  === BLOCK LINK ===
    0x9925
=== CODE BLOCK END ===

=== CODE BLOCK ADDRESS 0x9925 ===
  0x9925	nop    	dword ptr [eax + eax]
  0x992a	jmp    	0x99ef
  === BLOCK LINK ===
    0x992f
=== CODE BLOCK END ===

=== CODE BLOCK ADDRESS 0x992f ===
  0x992f	dec    	eax
  0x9930	call   	dword ptr [0x18ba]
  === BLOCK LINK ===
    0x9936
=== CODE BLOCK END ===

=== CODE BLOCK ADDRESS 0x9936 ===
  0x9936	nop    	dword ptr [eax + eax]
  0x993b	dec    	eax
  0x993c	mov    	dword ptr [esp + 0x38], ebx
  0x9940	dec    	eax
  0x9941	or     	edi, 0xffffffff
  === BLOCK LINK ===
    0x9944
=== CODE BLOCK END ===

=== CODE BLOCK ADDRESS 0x9944 ===
  0x9944	dec    	eax
  0x9945	mov    	dword ptr [esp + 0x30], ebx
  0x9949	mov    	ecx, eax
  0x994b	mov    	dword ptr [esp + 0x28], ebx
  0x994f	inc    	esp
  === BLOCK LINK ===
    0x9950
=== CODE BLOCK END ===

=== CODE BLOCK ADDRESS 0x9950 ===
  0x9950	mov    	ecx, edi
  0x9952	dec    	esp
  0x9953	mov    	eax, esi
  0x9955	dec    	eax
  0x9956	mov    	dword ptr [esp + 0x20], ebx
  === BLOCK LINK ===
    0x995a
=== CODE BLOCK END ===

=== CODE BLOCK ADDRESS 0x995a ===
  0x995a	xor    	edx, edx
  0x995c	dec    	eax
  0x995d	call   	dword ptr [0x1a65]
  === BLOCK LINK ===
    0x9963
=== CODE BLOCK END ===

=== CODE BLOCK ADDRESS 0x9963 ===
  0x9963	nop    	dword ptr [eax + eax]
  0x9968	dec    	esp
  0x9969	arpl   	ax, si
  0x996b	dec    	ecx
  0x996c	mov    	ecx, esi
  === BLOCK LINK ===
    0x996e
=== CODE BLOCK END ===

=== CODE BLOCK ADDRESS 0x996e ===
  0x996e	dec    	eax
  0x996f	call   	dword ptr [0x1bd3]
  === BLOCK LINK ===
    0x9975
=== CODE BLOCK END ===

=== CODE BLOCK ADDRESS 0x9975 ===
  0x9975	nop    	dword ptr [eax + eax]
  0x997a	dec    	eax
  0x997b	mov    	ebp, eax
  0x997d	dec    	eax
  0x997e	test   	eax, eax
  === BLOCK LINK ===
    0x9980
=== CODE BLOCK END ===

=== CODE BLOCK ADDRESS 0x9980 ===
  0x9980	je     	0x99ed
  === BLOCK LINK ===
    0x9982
=== CODE BLOCK END ===

=== CODE BLOCK ADDRESS 0x9982 ===
  0x9982	dec    	eax
  0x9983	call   	dword ptr [0x1867]
  === BLOCK LINK ===
    0x9989
=== CODE BLOCK END ===

=== CODE BLOCK ADDRESS 0x9989 ===
  0x9989	nop    	dword ptr [eax + eax]
  0x998e	dec    	eax
  0x998f	mov    	dword ptr [esp + 0x38], ebx
  0x9993	inc    	esp
  0x9994	mov    	ecx, edi
  === BLOCK LINK ===
    0x9996
=== CODE BLOCK END ===

=== CODE BLOCK ADDRESS 0x9996 ===
  0x9996	dec    	eax
  0x9997	mov    	dword ptr [esp + 0x30], ebx
  0x999b	mov    	ecx, eax
  0x999d	inc    	esp
  0x999e	mov    	dword ptr [esp + 0x28], esi
  === BLOCK LINK ===
    0x99a2
=== CODE BLOCK END ===

=== CODE BLOCK ADDRESS 0x99a2 ===
  0x99a2	dec    	esp
  0x99a3	mov    	eax, esi
  0x99a5	xor    	edx, edx
  0x99a7	dec    	eax
  0x99a8	mov    	dword ptr [esp + 0x20], ebp
  === BLOCK LINK ===
    0x99ac
=== CODE BLOCK END ===

=== CODE BLOCK ADDRESS 0x99ac ===
  0x99ac	dec    	eax
  0x99ad	call   	dword ptr [0x1a15]
  === BLOCK LINK ===
    0x99b3
=== CODE BLOCK END ===

=== CODE BLOCK ADDRESS 0x99b3 ===
  0x99b3	nop    	dword ptr [eax + eax]
  0x99b8	dec    	eax
  0x99b9	mov    	ecx, dword ptr [0x52d1]
  0x99bf	inc    	ebp
  0x99c0	lea    	eax, [esi - 1]
  === BLOCK LINK ===
    0x99c3
=== CODE BLOCK END ===

=== CODE BLOCK ADDRESS 0x99c3 ===
  0x99c3	dec    	esp
  0x99c4	lea    	ecx, [esp + 0x68]
  0x99c8	dec    	eax
  0x99c9	mov    	dword ptr [esp + 0x20], ebx
  0x99cd	dec    	eax
  === BLOCK LINK ===
    0x99ce
=== CODE BLOCK END ===

=== CODE BLOCK ADDRESS 0x99ce ===
  0x99ce	mov    	edx, ebp
  0x99d0	dec    	eax
  0x99d1	call   	dword ptr [0x1891]
  === BLOCK LINK ===
    0x99d7
=== CODE BLOCK END ===

=== CODE BLOCK ADDRESS 0x99d7 ===
  0x99d7	nop    	dword ptr [eax + eax]
  0x99dc	dec    	eax
  0x99dd	mov    	ecx, ebp
  0x99df	mov    	ebx, eax
  0x99e1	dec    	eax
  === BLOCK LINK ===
    0x99e2
=== CODE BLOCK END ===

=== CODE BLOCK ADDRESS 0x99e2 ===
  0x99e2	call   	dword ptr [0x1b68]
  === BLOCK LINK ===
    0x99e8
=== CODE BLOCK END ===

=== CODE BLOCK ADDRESS 0x99e8 ===
  0x99e8	nop    	dword ptr [eax + eax]
  0x99ed	mov    	eax, ebx
  0x99ef	dec    	eax
  0x99f0	mov    	ebx, dword ptr [esp + 0x60]
  0x99f4	dec    	eax
  === BLOCK LINK ===
    0x99f5
=== CODE BLOCK END ===

=== CODE BLOCK ADDRESS 0x99f5 ===
  0x99f5	mov    	ebp, dword ptr [esp + 0x78]
  0x99f9	dec    	eax
  0x99fa	add    	esp, 0x40
  0x99fd	inc    	ecx
  0x99fe	pop    	esi
  === BLOCK LINK ===
    0x99ff
=== CODE BLOCK END ===

=== CODE BLOCK ADDRESS 0x99ff ===
  0x99ff	pop    	edi
  0x9a00	pop    	esi
  0x9a01	ret    	
  0x9a02	int3   	
  0x9a03	int3   	
  === BLOCK LINK ===
    0x9a04
=== CODE BLOCK END ===

=== CODE BLOCK ADDRESS 0x9a04 ===
  0x9a04	int3   	
  0x9a05	int3   	
  0x9a06	int3   	
  0x9a07	int3   	
  0x9a08	int3   	
  === BLOCK LINK ===
    0x9a09
=== CODE BLOCK END ===

=== CODE BLOCK ADDRESS 0x9a09 ===
  0x9a09	int3   	
  0x9a0a	int3   	
  0x9a0b	int3   	
  0x9a0c	dec    	eax
  0x9a0d	mov    	eax, esp
  === BLOCK LINK ===
    0x9a0f
=== CODE BLOCK END ===

=== CODE BLOCK ADDRESS 0x9a0f ===
  0x9a0f	dec    	eax
  0x9a10	mov    	dword ptr [eax + 8], ebx
  0x9a13	dec    	eax
  0x9a14	mov    	dword ptr [eax + 0x10], esi
  0x9a17	dec    	eax
  === BLOCK LINK ===
    0x9a18
=== CODE BLOCK END ===

=== CODE BLOCK ADDRESS 0x9a18 ===
  0x9a18	mov    	dword ptr [eax + 0x18], edi
  0x9a1b	push   	ebp
  0x9a1c	inc    	ecx
  0x9a1d	push   	esp
  0x9a1e	inc    	ecx
  === BLOCK LINK ===
    0x9a1f
=== CODE BLOCK END ===

=== CODE BLOCK ADDRESS 0x9a1f ===
  0x9a1f	push   	ebp
  0x9a20	inc    	ecx
  0x9a21	push   	esi
  0x9a22	inc    	ecx
  0x9a23	push   	edi
  === BLOCK LINK ===
    0x9a24
=== CODE BLOCK END ===

=== CODE BLOCK ADDRESS 0x9a24 ===
  0x9a24	dec    	eax
  0x9a25	lea    	ebp, [eax - 0x428]
  0x9a2b	dec    	eax
  0x9a2c	sub    	esp, 0x500
  0x9a32	dec    	eax
  === BLOCK LINK ===
    0x9a33
=== CODE BLOCK END ===

=== CODE BLOCK ADDRESS 0x9a33 ===
  0x9a33	mov    	eax, dword ptr [0x484f]
  0x9a39	dec    	eax
  0x9a3a	xor    	eax, esp
  0x9a3c	dec    	eax
  0x9a3d	mov    	dword ptr [ebp + 0x3f0], eax
  === BLOCK LINK ===
    0x9a43
=== CODE BLOCK END ===

=== CODE BLOCK ADDRESS 0x9a43 ===
  0x9a43	inc    	esp
  0x9a44	movzx  	esp, dx
  0x9a47	mov    	word ptr [esp + 0x40], dx
  0x9a4c	inc    	ebp
  0x9a4d	xor    	esi, esi
  === BLOCK LINK ===
    0x9a4f
=== CODE BLOCK END ===

=== CODE BLOCK ADDRESS 0x9a4f ===
  0x9a4f	dec    	eax
  0x9a50	lea    	edx, [0x20ea]
  0x9a56	xor    	ecx, ecx
  0x9a58	inc    	ecx
  0x9a59	movzx  	esi, si
  === BLOCK LINK ===
    0x9a5c
=== CODE BLOCK END ===

=== CODE BLOCK ADDRESS 0x9a5c ===
  0x9a5c	inc    	ecx
  0x9a5d	mov    	ebx, esi
  0x9a5f	dec    	eax
  0x9a60	call   	dword ptr [0x1b12]
  === BLOCK LINK ===
    0x9a66
=== CODE BLOCK END ===

=== CODE BLOCK ADDRESS 0x9a66 ===
  0x9a66	nop    	dword ptr [eax + eax]
  0x9a6b	xor    	ecx, ecx
  0x9a6d	dec    	eax
  0x9a6e	call   	dword ptr [0x1884]
  === BLOCK LINK ===
    0x9a74
=== CODE BLOCK END ===

=== CODE BLOCK ADDRESS 0x9a74 ===
  0x9a74	nop    	dword ptr [eax + eax]
  0x9a79	dec    	eax
  0x9a7a	lea    	eax, [0x2580]
  0x9a80	inc    	bp
  0x9a82	test   	esp, esp
  === BLOCK LINK ===
    0x9a84
=== CODE BLOCK END ===

=== CODE BLOCK ADDRESS 0x9a84 ===
  0x9a84	dec    	eax
  0x9a85	mov    	dword ptr [0x51b5], eax
  0x9a8b	dec    	esp
  0x9a8c	lea    	eax, [0xffff656e]
  0x9a92	dec    	eax
  === BLOCK LINK ===
    0x9a93
=== CODE BLOCK END ===

=== CODE BLOCK ADDRESS 0x9a93 ===
  0x9a93	mov    	eax, dword ptr [0x98d7]
  0x9a99	inc    	ecx
  0x9a9a	mov    	edi, esi
  0x9a9c	dec    	eax
  0x9a9d	cmove  	eax, dword ptr [0x98c4]
  === BLOCK LINK ===
    0x9aa4
=== CODE BLOCK END ===

=== CODE BLOCK ADDRESS 0x9aa4 ===
  0x9aa4	dec    	esp
  0x9aa5	cmp    	dword ptr [0xd205], esi
  0x9aab	dec    	eax
  0x9aac	mov    	dword ptr [0x51de], eax
  0x9ab2	je     	0x9af2
  === BLOCK LINK ===
    0x9ab4
=== CODE BLOCK END ===

=== CODE BLOCK ADDRESS 0x9ab4 ===
  0x9ab4	inc    	ecx
  0x9ab5	mov    	edx, esi
  0x9ab7	inc    	ebp
  0x9ab8	lea    	esp, [esi + 1]
  0x9abb	inc    	cx
  === BLOCK LINK ===
    0x9abd
=== CODE BLOCK END ===

=== CODE BLOCK ADDRESS 0x9abd ===
  0x9abd	add    	esi, esp
  0x9abf	lea    	eax, [edi + 1]
  0x9ac2	dec    	eax
  0x9ac3	cmp    	edx, 8
  0x9ac6	mov    	word ptr [ebp + edx*2 - 0x30], si
  === BLOCK LINK ===
    0x9acb
=== CODE BLOCK END ===

=== CODE BLOCK ADDRESS 0x9acb ===
  0x9acb	dec    	eax
  0x9acc	mov    	ecx, edx
  0x9ace	cmovge  	eax, edi
  0x9ad1	dec    	eax
  0x9ad2	inc    	edx
  === BLOCK LINK ===
    0x9ad4
=== CODE BLOCK END ===

=== CODE BLOCK ADDRESS 0x9ad4 ===
  0x9ad4	dec    	eax
  0x9ad5	cmp    	ecx, 8
  0x9ad8	mov    	edi, eax
  0x9ada	dec    	eax
  0x9adb	movsx  	eax, si
  === BLOCK LINK ===
    0x9ade
=== CODE BLOCK END ===

=== CODE BLOCK ADDRESS 0x9ade ===
  0x9ade	dec    	eax
  0x9adf	cmovge  	edx, ecx
  0x9ae2	dec    	ebp
  0x9ae3	cmp    	dword ptr [eax + eax*8 + 0x16cb0], esi
  0x9aea	jne    	0x9abb
  === BLOCK LINK ===
    0x9aec
=== CODE BLOCK END ===

=== CODE BLOCK ADDRESS 0x9aec ===
  0x9aec	inc    	esp
  0x9aed	movzx  	esp, word ptr [esp + 0x40]
  0x9af2	dec    	eax
  0x9af3	arpl   	di, ax
  0x9af5	dec    	eax
  === BLOCK LINK ===
    0x9af6
=== CODE BLOCK END ===

=== CODE BLOCK ADDRESS 0x9af6 ===
  0x9af6	add    	eax, eax
  0x9af8	dec    	eax
  0x9af9	cmp    	eax, 0x14
  0x9afc	jae    	0x9f46
  === BLOCK LINK ===
    0x9b02
=== CODE BLOCK END ===

=== CODE BLOCK ADDRESS 0x9b02 ===
  0x9b02	inc    	sp
  0x9b04	mov    	dword ptr [ebp + eax - 0x30], esi
  0x9b08	dec    	eax
  0x9b09	arpl   	di, ax
  0x9b0b	dec    	eax
  === BLOCK LINK ===
    0x9b0c
=== CODE BLOCK END ===

=== CODE BLOCK ADDRESS 0x9b0c ===
  0x9b0c	lea    	eax, [eax*2 + 2]
  0x9b13	dec    	eax
  0x9b14	cmp    	eax, 0x14
  0x9b17	jae    	0x9f46
  === BLOCK LINK ===
    0x9b1d
=== CODE BLOCK END ===

=== CODE BLOCK ADDRESS 0x9b1d ===
  0x9b1d	mov    	esi, 0xc5d
  0x9b22	inc    	sp
  0x9b24	mov    	dword ptr [ebp + eax - 0x30], esi
  0x9b28	mov    	ecx, esi
  0x9b2a	mov    	dword ptr [esp + 0x44], edi
  === BLOCK LINK ===
    0x9b2e
=== CODE BLOCK END ===

=== CODE BLOCK ADDRESS 0x9b2e ===
  0x9b2e	inc    	esp
  0x9b2f	mov    	ebp, edi
  0x9b31	call   	0x97ec
  === BLOCK LINK ===
    0x9b36
=== CODE BLOCK END ===

=== CODE BLOCK ADDRESS 0x9b36 ===
  0x9b36	dec    	eax
  0x9b37	test   	eax, eax
  0x9b39	jne    	0x9b44
  === BLOCK LINK ===
    0x9b3b
=== CODE BLOCK END ===

=== CODE BLOCK ADDRESS 0x9b3b ===
  0x9b3b	mov    	ecx, esi
  0x9b3d	call   	0x9760
  === BLOCK LINK ===
    0x9b42
=== CODE BLOCK END ===

=== CODE BLOCK ADDRESS 0x9b42 ===
  0x9b42	jmp    	0x9b94
  === BLOCK LINK ===
    0x9b44
=== CODE BLOCK END ===

=== CODE BLOCK ADDRESS 0x9b44 ===
  0x9b44	dec    	eax
  0x9b45	lea    	edx, [0x24bd]
  0x9b4b	dec    	eax
  0x9b4c	mov    	ecx, eax
  0x9b4e	dec    	eax
  === BLOCK LINK ===
    0x9b4f
=== CODE BLOCK END ===

=== CODE BLOCK ADDRESS 0x9b4f ===
  0x9b4f	call   	dword ptr [0x1943]
  === BLOCK LINK ===
    0x9b55
=== CODE BLOCK END ===

=== CODE BLOCK ADDRESS 0x9b55 ===
  0x9b55	nop    	dword ptr [eax + eax]
  0x9b5a	dec    	eax
  0x9b5b	mov    	dword ptr [esp + 0x50], eax
  0x9b5f	dec    	eax
  0x9b60	lea    	esi, [esp + 0x50]
  === BLOCK LINK ===
    0x9b64
=== CODE BLOCK END ===

=== CODE BLOCK ADDRESS 0x9b64 ===
  0x9b64	dec    	eax
  0x9b65	mov    	eax, dword ptr [esi]
  0x9b67	inc    	ebx
  0x9b69	dec    	eax
  0x9b6a	lea    	esi, [esi + 8]
  === BLOCK LINK ===
    0x9b6d
=== CODE BLOCK END ===

=== CODE BLOCK ADDRESS 0x9b6d ===
  0x9b6d	dec    	eax
  0x9b6e	test   	eax, eax
  0x9b70	je     	0x9b94
  === BLOCK LINK ===
    0x9b72
=== CODE BLOCK END ===

=== CODE BLOCK ADDRESS 0x9b72 ===
  0x9b72	cmp    	ebx, 0xf
  0x9b75	jae    	0x9b94
  === BLOCK LINK ===
    0x9b77
=== CODE BLOCK END ===

=== CODE BLOCK ADDRESS 0x9b77 ===
  0x9b77	dec    	eax
  0x9b78	lea    	edx, [0x248a]
  0x9b7e	xor    	ecx, ecx
  0x9b80	dec    	eax
  0x9b81	call   	dword ptr [0x1911]
  === BLOCK LINK ===
    0x9b87
=== CODE BLOCK END ===

=== CODE BLOCK ADDRESS 0x9b87 ===
  0x9b87	nop    	dword ptr [eax + eax]
  0x9b8c	dec    	eax
  0x9b8d	mov    	dword ptr [esi], eax
  0x9b8f	cmp    	ebx, 0xf
  0x9b92	jb     	0x9b64
  === BLOCK LINK ===
    0x9b94
=== CODE BLOCK END ===

=== CODE BLOCK ADDRESS 0x9b94 ===
  0x9b94	lea    	eax, [ebx - 2]
  0x9b97	dec    	ecx
  0x9b98	mov    	esi, esi
  0x9b9a	dec    	esp
  0x9b9b	arpl   	ax, di
  === BLOCK LINK ===
    0x9b9d
=== CODE BLOCK END ===

=== CODE BLOCK ADDRESS 0x9b9d ===
  0x9b9d	test   	eax, eax
  0x9b9f	jle    	0x9c6e
  === BLOCK LINK ===
    0x9ba5
=== CODE BLOCK END ===

=== CODE BLOCK ADDRESS 0x9ba5 ===
  0x9ba5	dec    	eax
  0x9ba6	mov    	ecx, dword ptr [esp + esi*8 + 0x50]
  0x9baa	dec    	eax
  0x9bab	lea    	edx, [0x245f]
  0x9bb1	dec    	eax
  === BLOCK LINK ===
    0x9bb2
=== CODE BLOCK END ===

=== CODE BLOCK ADDRESS 0x9bb2 ===
  0x9bb2	call   	dword ptr [0x18e0]
  === BLOCK LINK ===
    0x9bb8
=== CODE BLOCK END ===

=== CODE BLOCK ADDRESS 0x9bb8 ===
  0x9bb8	nop    	dword ptr [eax + eax]
  0x9bbd	dec    	eax
  0x9bbe	mov    	ecx, eax
  0x9bc0	dec    	eax
  0x9bc1	lea    	edx, [0x1f09]
  === BLOCK LINK ===
    0x9bc7
=== CODE BLOCK END ===

=== CODE BLOCK ADDRESS 0x9bc7 ===
  0x9bc7	dec    	eax
  0x9bc8	mov    	ebx, eax
  0x9bca	dec    	eax
  0x9bcb	call   	dword ptr [0x1907]
  === BLOCK LINK ===
    0x9bd1
=== CODE BLOCK END ===

=== CODE BLOCK ADDRESS 0x9bd1 ===
  0x9bd1	nop    	dword ptr [eax + eax]
  0x9bd6	dec    	esp
  0x9bd7	lea    	ebp, [ebx + eax*2]
  0x9bda	jmp    	0x9c3a
  === BLOCK LINK ===
    0x9bdc
=== CODE BLOCK END ===

=== CODE BLOCK ADDRESS 0x9bdc ===
  0x9bdc	test   	edi, edi
  0x9bde	je     	0x9c57
  === BLOCK LINK ===
    0x9be0
=== CODE BLOCK END ===

=== CODE BLOCK ADDRESS 0x9be0 ===
  0x9be0	dec    	eax
  0x9be1	lea    	edx, [0x1ee9]
  0x9be7	dec    	eax
  0x9be8	mov    	ecx, ebx
  0x9bea	dec    	eax
  === BLOCK LINK ===
    0x9beb
=== CODE BLOCK END ===

=== CODE BLOCK ADDRESS 0x9beb ===
  0x9beb	call   	dword ptr [0x18e7]
  === BLOCK LINK ===
    0x9bf1
=== CODE BLOCK END ===

=== CODE BLOCK ADDRESS 0x9bf1 ===
  0x9bf1	nop    	dword ptr [eax + eax]
  0x9bf6	dec    	esp
  0x9bf7	lea    	esp, [ebx + eax*2]
  0x9bfa	dec    	ecx
  0x9bfb	mov    	ebx, esi
  === BLOCK LINK ===
    0x9bfd
=== CODE BLOCK END ===

=== CODE BLOCK ADDRESS 0x9bfd ===
  0x9bfd	dec    	esp
  0x9bfe	arpl   	di, si
  0x9c00	test   	edi, edi
  0x9c02	jle    	0x9c37
  === BLOCK LINK ===
    0x9c04
=== CODE BLOCK END ===

=== CODE BLOCK ADDRESS 0x9c04 ===
  0x9c04	movzx  	edx, word ptr [ebp + ebx*2 - 0x30]
  0x9c09	dec    	eax
  0x9c0a	lea    	eax, [0xffff63f0]
  0x9c10	dec    	ecx
  0x9c11	mov    	ecx, esp
  === BLOCK LINK ===
    0x9c13
=== CODE BLOCK END ===

=== CODE BLOCK ADDRESS 0x9c13 ===
  0x9c13	dec    	eax
  0x9c14	mov    	edx, dword ptr [eax + edx*8 + 0x16ca8]
  0x9c1b	dec    	eax
  0x9c1c	call   	dword ptr [0x1816]
  === BLOCK LINK ===
    0x9c22
=== CODE BLOCK END ===

=== CODE BLOCK ADDRESS 0x9c22 ===
  0x9c22	nop    	dword ptr [eax + eax]
  0x9c27	test   	eax, eax
  0x9c29	je     	0x9cc5
  === BLOCK LINK ===
    0x9c2f
=== CODE BLOCK END ===

=== CODE BLOCK ADDRESS 0x9c2f ===
  0x9c2f	dec    	eax
  0x9c30	inc    	ebx
  0x9c32	dec    	ecx
  0x9c33	cmp    	ebx, esi
  0x9c35	jl     	0x9c04
  === BLOCK LINK ===
    0x9c37
=== CODE BLOCK END ===

=== CODE BLOCK ADDRESS 0x9c37 ===
  0x9c37	inc    	ebp
  0x9c38	xor    	esi, esi
  0x9c3a	dec    	eax
  0x9c3b	lea    	edx, [0x23cf]
  0x9c41	xor    	ecx, ecx
  === BLOCK LINK ===
    0x9c43
=== CODE BLOCK END ===

=== CODE BLOCK ADDRESS 0x9c43 ===
  0x9c43	dec    	eax
  0x9c44	call   	dword ptr [0x184e]
  === BLOCK LINK ===
    0x9c4a
=== CODE BLOCK END ===

=== CODE BLOCK ADDRESS 0x9c4a ===
  0x9c4a	nop    	dword ptr [eax + eax]
  0x9c4f	dec    	eax
  0x9c50	mov    	ebx, eax
  0x9c52	dec    	eax
  0x9c53	test   	eax, eax
  === BLOCK LINK ===
    0x9c55
=== CODE BLOCK END ===

=== CODE BLOCK ADDRESS 0x9c55 ===
  0x9c55	jne    	0x9bdc
  === BLOCK LINK ===
    0x9c57
=== CODE BLOCK END ===

=== CODE BLOCK ADDRESS 0x9c57 ===
  0x9c57	dec    	eax
  0x9c58	inc    	esi
  0x9c5a	dec    	ecx
  0x9c5b	cmp    	esi, edi
  0x9c5d	jl     	0x9ba5
  === BLOCK LINK ===
    0x9c63
=== CODE BLOCK END ===

=== CODE BLOCK ADDRESS 0x9c63 ===
  0x9c63	inc    	esp
  0x9c64	movzx  	esp, word ptr [esp + 0x40]
  0x9c69	inc    	esp
  0x9c6a	mov    	ebp, dword ptr [esp + 0x44]
  0x9c6e	dec    	esp
  === BLOCK LINK ===
    0x9c6f
=== CODE BLOCK END ===

=== CODE BLOCK ADDRESS 0x9c6f ===
  0x9c6f	arpl   	di, cx
  0x9c71	dec    	ebp
  0x9c72	mov    	eax, esi
  0x9c74	test   	edi, edi
  0x9c76	jle    	0x9ca2
  === BLOCK LINK ===
    0x9c78
=== CODE BLOCK END ===

=== CODE BLOCK ADDRESS 0x9c78 ===
  0x9c78	dec    	esp
  0x9c79	lea    	edx, [0xffff6381]
  0x9c7f	inc    	edx
  0x9c80	movzx  	eax, word ptr [ebp + eax*2 - 0x30]
  0x9c85	dec    	ecx
  === BLOCK LINK ===
    0x9c86
=== CODE BLOCK END ===

=== CODE BLOCK ADDRESS 0x9c86 ===
  0x9c86	inc    	eax
  0x9c88	dec    	eax
  0x9c89	arpl   	ax, dx
  0x9c8b	mov    	ecx, eax
  0x9c8d	dec    	ecx
  === BLOCK LINK ===
    0x9c8e
=== CODE BLOCK END ===

=== CODE BLOCK ADDRESS 0x9c8e ===
  0x9c8e	mov    	eax, dword ptr [edx + edx*8 + 0x16ca8]
  0x9c95	dec    	ecx
  0x9c96	mov    	dword ptr [edx + ecx*8 + 0xec40], eax
  0x9c9d	dec    	ebp
  0x9c9e	cmp    	eax, ecx
  === BLOCK LINK ===
    0x9ca0
=== CODE BLOCK END ===

=== CODE BLOCK ADDRESS 0x9ca0 ===
  0x9ca0	jl     	0x9c7f
  === BLOCK LINK ===
    0x9ca2
=== CODE BLOCK END ===

=== CODE BLOCK ADDRESS 0x9ca2 ===
  0x9ca2	mov    	edi, 0xc5e
  0x9ca7	inc    	ecx
  0x9ca8	mov    	ebx, esi
  0x9caa	mov    	ecx, edi
  0x9cac	inc    	ebp
  === BLOCK LINK ===
    0x9cad
=== CODE BLOCK END ===

=== CODE BLOCK ADDRESS 0x9cad ===
  0x9cad	mov    	edi, esi
  0x9caf	call   	0x97ec
  === BLOCK LINK ===
    0x9cb4
=== CODE BLOCK END ===

=== CODE BLOCK ADDRESS 0x9cb4 ===
  0x9cb4	dec    	eax
  0x9cb5	test   	eax, eax
  0x9cb7	jne    	0x9d2d
  === BLOCK LINK ===
    0x9cb9
=== CODE BLOCK END ===

=== CODE BLOCK ADDRESS 0x9cb9 ===
  0x9cb9	mov    	ecx, edi
  0x9cbb	call   	0x9760
  === BLOCK LINK ===
    0x9cc0
=== CODE BLOCK END ===

=== CODE BLOCK ADDRESS 0x9cc0 ===
  0x9cc0	jmp    	0x9d7d
  === BLOCK LINK ===
    0x9cc5
=== CODE BLOCK END ===

=== CODE BLOCK ADDRESS 0x9cc5 ===
  0x9cc5	dec    	ecx
  0x9cc6	mov    	ecx, ebp
  0x9cc8	dec    	eax
  0x9cc9	call   	dword ptr [0x17a1]
  === BLOCK LINK ===
    0x9ccf
=== CODE BLOCK END ===

=== CODE BLOCK ADDRESS 0x9ccf ===
  0x9ccf	nop    	dword ptr [eax + eax]
  0x9cd4	movzx  	ecx, word ptr [ebp + ebx*2 - 0x30]
  0x9cd9	dec    	eax
  0x9cda	lea    	edx, [0xffff6320]
  0x9ce0	inc    	ebp
  === BLOCK LINK ===
    0x9ce1
=== CODE BLOCK END ===

=== CODE BLOCK ADDRESS 0x9ce1 ===
  0x9ce1	xor    	esi, esi
  0x9ce3	dec    	eax
  0x9ce4	mov    	dword ptr [edx + ecx*8 + 0xec40], eax
  0x9ceb	dec    	eax
  0x9cec	test   	eax, eax
  === BLOCK LINK ===
    0x9cee
=== CODE BLOCK END ===

=== CODE BLOCK ADDRESS 0x9cee ===
  0x9cee	je     	0x9d16
  === BLOCK LINK ===
    0x9cf0
=== CODE BLOCK END ===

=== CODE BLOCK ADDRESS 0x9cf0 ===
  0x9cf0	dec    	esp
  0x9cf1	lea    	eax, [ebp + ebx*2 - 0x2e]
  0x9cf5	inc    	sp
  0x9cf7	mov    	dword ptr [ebp + ebx*2 - 0x30], esi
  0x9cfb	inc    	ecx
  === BLOCK LINK ===
    0x9cfc
=== CODE BLOCK END ===

=== CODE BLOCK ADDRESS 0x9cfc ===
  0x9cfc	lea    	edx, [esi + 0xa]
  0x9cff	dec    	eax
  0x9d00	lea    	ecx, [ebp - 0x30]
  0x9d03	dec    	eax
  0x9d04	call   	dword ptr [0x182e]
  === BLOCK LINK ===
    0x9d0a
=== CODE BLOCK END ===

=== CODE BLOCK ADDRESS 0x9d0a ===
  0x9d0a	nop    	dword ptr [eax + eax]
  0x9d0f	dec    	edi
  0x9d11	jmp    	0x9c3a
  === BLOCK LINK ===
    0x9d16
=== CODE BLOCK END ===

=== CODE BLOCK ADDRESS 0x9d16 ===
  0x9d16	xor    	edx, edx
  0x9d18	mov    	ecx, 0xe80
  0x9d1d	call   	0x7ea4
  === BLOCK LINK ===
    0x9d22
=== CODE BLOCK END ===

=== CODE BLOCK ADDRESS 0x9d22 ===
  0x9d22	mov    	ecx, 2
  0x9d27	call   	0x8378
  === BLOCK LINK ===
    0x9d2c
=== CODE BLOCK END ===

=== CODE BLOCK ADDRESS 0x9d2c ===
  0x9d2c	int3   	
  0x9d2d	dec    	eax
  0x9d2e	lea    	edx, [0x22d4]
  0x9d34	dec    	eax
  0x9d35	mov    	ecx, eax
  === BLOCK LINK ===
    0x9d37
=== CODE BLOCK END ===

=== CODE BLOCK ADDRESS 0x9d37 ===
  0x9d37	dec    	eax
  0x9d38	call   	dword ptr [0x175a]
  === BLOCK LINK ===
    0x9d3e
=== CODE BLOCK END ===

=== CODE BLOCK ADDRESS 0x9d3e ===
  0x9d3e	nop    	dword ptr [eax + eax]
  0x9d43	dec    	eax
  0x9d44	mov    	dword ptr [esp + 0x50], eax
  0x9d48	dec    	eax
  0x9d49	lea    	edi, [esp + 0x50]
  === BLOCK LINK ===
    0x9d4d
=== CODE BLOCK END ===

=== CODE BLOCK ADDRESS 0x9d4d ===
  0x9d4d	dec    	eax
  0x9d4e	mov    	eax, dword ptr [edi]
  0x9d50	inc    	ebx
  0x9d52	dec    	eax
  0x9d53	lea    	edi, [edi + 8]
  === BLOCK LINK ===
    0x9d56
=== CODE BLOCK END ===

=== CODE BLOCK ADDRESS 0x9d56 ===
  0x9d56	dec    	eax
  0x9d57	test   	eax, eax
  0x9d59	je     	0x9d7d
  === BLOCK LINK ===
    0x9d5b
=== CODE BLOCK END ===

=== CODE BLOCK ADDRESS 0x9d5b ===
  0x9d5b	cmp    	ebx, 0xf
  0x9d5e	jae    	0x9d7d
  === BLOCK LINK ===
    0x9d60
=== CODE BLOCK END ===

=== CODE BLOCK ADDRESS 0x9d60 ===
  0x9d60	dec    	eax
  0x9d61	lea    	edx, [0x22a1]
  0x9d67	xor    	ecx, ecx
  0x9d69	dec    	eax
  0x9d6a	call   	dword ptr [0x1728]
  === BLOCK LINK ===
    0x9d70
=== CODE BLOCK END ===

=== CODE BLOCK ADDRESS 0x9d70 ===
  0x9d70	nop    	dword ptr [eax + eax]
  0x9d75	dec    	eax
  0x9d76	mov    	dword ptr [edi], eax
  0x9d78	cmp    	ebx, 0xf
  0x9d7b	jb     	0x9d4d
  === BLOCK LINK ===
    0x9d7d
=== CODE BLOCK END ===

=== CODE BLOCK ADDRESS 0x9d7d ===
  0x9d7d	dec    	esp
  0x9d7e	cmp    	dword ptr [0x4ec4], esi
  0x9d84	je     	0x9de0
  === BLOCK LINK ===
    0x9d86
=== CODE BLOCK END ===

=== CODE BLOCK ADDRESS 0x9d86 ===
  0x9d86	inc    	ecx
  0x9d87	mov    	esi, esi
  0x9d89	inc    	esp
  0x9d8a	lea    	esi, [ebx - 2]
  0x9d8d	inc    	ebp
  === BLOCK LINK ===
    0x9d8e
=== CODE BLOCK END ===

=== CODE BLOCK ADDRESS 0x9d8e ===
  0x9d8e	test   	esi, esi
  0x9d90	jle    	0x9ddd
  === BLOCK LINK ===
    0x9d92
=== CODE BLOCK END ===

=== CODE BLOCK ADDRESS 0x9d92 ===
  0x9d92	dec    	eax
  0x9d93	lea    	edi, [esp + 0x50]
  0x9d97	dec    	eax
  0x9d98	mov    	ebx, dword ptr [edi]
  0x9d9a	dec    	eax
  === BLOCK LINK ===
    0x9d9b
=== CODE BLOCK END ===

=== CODE BLOCK ADDRESS 0x9d9b ===
  0x9d9b	lea    	edx, [0x1d2f]
  0x9da1	dec    	eax
  0x9da2	mov    	ecx, ebx
  0x9da4	dec    	eax
  0x9da5	call   	dword ptr [0x172d]
  === BLOCK LINK ===
    0x9dab
=== CODE BLOCK END ===

=== CODE BLOCK ADDRESS 0x9dab ===
  0x9dab	nop    	dword ptr [eax + eax]
  0x9db0	dec    	eax
  0x9db1	mov    	ecx, dword ptr [0x4e91]
  0x9db7	dec    	eax
  0x9db8	lea    	edx, [ebx + eax*2]
  === BLOCK LINK ===
    0x9dbb
=== CODE BLOCK END ===

=== CODE BLOCK ADDRESS 0x9dbb ===
  0x9dbb	dec    	eax
  0x9dbc	mov    	dword ptr [edi], edx
  0x9dbe	dec    	eax
  0x9dbf	call   	dword ptr [0x1673]
  === BLOCK LINK ===
    0x9dc5
=== CODE BLOCK END ===

=== CODE BLOCK ADDRESS 0x9dc5 ===
  0x9dc5	nop    	dword ptr [eax + eax]
  0x9dca	test   	eax, eax
  0x9dcc	je     	0x9e84
  === BLOCK LINK ===
    0x9dd2
=== CODE BLOCK END ===

=== CODE BLOCK ADDRESS 0x9dd2 ===
  0x9dd2	inc    	esi
  0x9dd4	dec    	eax
  0x9dd5	add    	edi, 8
  0x9dd8	inc    	ecx
  0x9dd9	cmp    	esi, esi
  === BLOCK LINK ===
    0x9ddb
=== CODE BLOCK END ===

=== CODE BLOCK ADDRESS 0x9ddb ===
  0x9ddb	jl     	0x9d97
  === BLOCK LINK ===
    0x9ddd
=== CODE BLOCK END ===

=== CODE BLOCK ADDRESS 0x9ddd ===
  0x9ddd	inc    	ebp
  0x9dde	xor    	esi, esi
  0x9de0	mov    	edi, 1
  0x9de5	dec    	eax
  0x9de6	mov    	ebx, dword ptr [0x9584]
  === BLOCK LINK ===
    0x9dec
=== CODE BLOCK END ===

=== CODE BLOCK ADDRESS 0x9dec ===
  0x9dec	dec    	eax
  0x9ded	lea    	eax, [esp + 0x44]
  0x9df1	dec    	eax
  0x9df2	mov    	dword ptr [esp + 0x30], eax
  0x9df6	dec    	esp
  === BLOCK LINK ===
    0x9df7
=== CODE BLOCK END ===

=== CODE BLOCK ADDRESS 0x9df7 ===
  0x9df7	lea    	eax, [0xdb03]
  0x9dfd	dec    	eax
  0x9dfe	lea    	eax, [0x18b4]
  0x9e04	xor    	edx, edx
  0x9e06	dec    	eax
  === BLOCK LINK ===
    0x9e07
=== CODE BLOCK END ===

=== CODE BLOCK ADDRESS 0x9e07 ===
  0x9e07	cmp    	dword ptr [0x4e83], ebx
  0x9e0d	dec    	eax
  0x9e0e	lea    	ecx, [0xc60c]
  0x9e14	dec    	eax
  0x9e15	mov    	dword ptr [esp + 0x28], eax
  === BLOCK LINK ===
    0x9e19
=== CODE BLOCK END ===

=== CODE BLOCK ADDRESS 0x9e19 ===
  0x9e19	inc    	ecx
  0x9e1a	mov    	ecx, 0x800
  0x9e1f	mov    	dword ptr [esp + 0x20], 0x111d
  0x9e27	je     	0x9e30
  === BLOCK LINK ===
    0x9e29
=== CODE BLOCK END ===

=== CODE BLOCK ADDRESS 0x9e29 ===
  0x9e29	dec    	eax
  0x9e2a	mov    	ebx, dword ptr [0x9538]
  0x9e30	call   	0xa030
  === BLOCK LINK ===
    0x9e35
=== CODE BLOCK END ===

=== CODE BLOCK ADDRESS 0x9e35 ===
  0x9e35	test   	eax, eax
  0x9e37	dec    	eax
  0x9e38	lea    	edx, [0xdac2]
  0x9e3e	inc    	esp
  0x9e3f	mov    	eax, edi
  === BLOCK LINK ===
    0x9e41
=== CODE BLOCK END ===

=== CODE BLOCK ADDRESS 0x9e41 ===
  0x9e41	dec    	eax
  0x9e42	cmovne  	ebx, dword ptr [0x951f]
  0x9e49	dec    	eax
  0x9e4a	mov    	ecx, ebx
  0x9e4c	call   	0xa244
  === BLOCK LINK ===
    0x9e51
=== CODE BLOCK END ===

=== CODE BLOCK ADDRESS 0x9e51 ===
  0x9e51	dec    	eax
  0x9e52	lea    	ecx, [ebp - 0x10]
  0x9e55	inc    	esp
  0x9e56	cmp    	edi, edi
  0x9e58	jne    	0x9e94
  === BLOCK LINK ===
    0x9e5a
=== CODE BLOCK END ===

=== CODE BLOCK ADDRESS 0x9e5a ===
  0x9e5a	dec    	esp
  0x9e5b	mov    	eax, dword ptr [0x4de7]
  0x9e61	mov    	edx, 0x200
  0x9e66	dec    	eax
  0x9e67	call   	dword ptr [0x16d3]
  === BLOCK LINK ===
    0x9e6d
=== CODE BLOCK END ===

=== CODE BLOCK ADDRESS 0x9e6d ===
  0x9e6d	nop    	dword ptr [eax + eax]
  0x9e72	inc    	ecx
  0x9e73	movzx  	edx, sp
  0x9e76	dec    	eax
  0x9e77	lea    	ecx, [ebp - 0x10]
  === BLOCK LINK ===
    0x9e7a
=== CODE BLOCK END ===

=== CODE BLOCK ADDRESS 0x9e7a ===
  0x9e7a	call   	0x9620
  === BLOCK LINK ===
    0x9e7f
=== CODE BLOCK END ===

=== CODE BLOCK ADDRESS 0x9e7f ===
  0x9e7f	jmp    	0x9f3e
  === BLOCK LINK ===
    0x9e84
=== CODE BLOCK END ===

=== CODE BLOCK ADDRESS 0x9e84 ===
  0x9e84	mov    	edi, 1
  0x9e89	inc    	ebp
  0x9e8a	xor    	esi, esi
  0x9e8c	inc    	esp
  0x9e8d	mov    	edi, edi
  === BLOCK LINK ===
    0x9e8f
=== CODE BLOCK END ===

=== CODE BLOCK ADDRESS 0x9e8f ===
  0x9e8f	jmp    	0x9de5
  === BLOCK LINK ===
    0x9e94
=== CODE BLOCK END ===

=== CODE BLOCK ADDRESS 0x9e94 ===
  0x9e94	dec    	esp
  0x9e95	mov    	eax, dword ptr [0x4da5]
  0x9e9b	mov    	ebx, 0x200
  0x9ea0	mov    	edx, ebx
  0x9ea2	dec    	eax
  === BLOCK LINK ===
    0x9ea3
=== CODE BLOCK END ===

=== CODE BLOCK ADDRESS 0x9ea3 ===
  0x9ea3	call   	dword ptr [0x1697]
  === BLOCK LINK ===
    0x9ea9
=== CODE BLOCK END ===

=== CODE BLOCK ADDRESS 0x9ea9 ===
  0x9ea9	nop    	dword ptr [eax + eax]
  0x9eae	dec    	ecx
  0x9eaf	arpl   	bp, si
  0x9eb1	dec    	eax
  0x9eb2	cmp    	edi, esi
  === BLOCK LINK ===
    0x9eb4
=== CODE BLOCK END ===

=== CODE BLOCK ADDRESS 0x9eb4 ===
  0x9eb4	jg     	0x9f0a
  === BLOCK LINK ===
    0x9eb6
=== CODE BLOCK END ===

=== CODE BLOCK ADDRESS 0x9eb6 ===
  0x9eb6	dec    	ecx
  0x9eb7	or     	edi, 0xffffffff
  0x9eba	dec    	esp
  0x9ebb	lea    	esp, [0xffff613f]
  0x9ec1	dec    	ebp
  === BLOCK LINK ===
    0x9ec2
=== CODE BLOCK END ===

=== CODE BLOCK ADDRESS 0x9ec2 ===
  0x9ec2	mov    	ecx, edi
  0x9ec4	dec    	esp
  0x9ec5	lea    	eax, [0x214d]
  0x9ecb	dec    	eax
  0x9ecc	mov    	edx, ebx
  === BLOCK LINK ===
    0x9ece
=== CODE BLOCK END ===

=== CODE BLOCK ADDRESS 0x9ece ===
  0x9ece	dec    	eax
  0x9ecf	lea    	ecx, [ebp - 0x10]
  0x9ed2	dec    	eax
  0x9ed3	call   	dword ptr [0x158f]
  === BLOCK LINK ===
    0x9ed9
=== CODE BLOCK END ===

=== CODE BLOCK ADDRESS 0x9ed9 ===
  0x9ed9	nop    	dword ptr [eax + eax]
  0x9ede	dec    	ebp
  0x9edf	mov    	eax, dword ptr [esp + edi*8 + 0xec40]
  0x9ee6	dec    	eax
  0x9ee7	lea    	ecx, [ebp - 0x10]
  === BLOCK LINK ===
    0x9eea
=== CODE BLOCK END ===

=== CODE BLOCK ADDRESS 0x9eea ===
  0x9eea	dec    	ebp
  0x9eeb	mov    	ecx, edi
  0x9eed	dec    	eax
  0x9eee	mov    	edx, ebx
  0x9ef0	dec    	eax
  === BLOCK LINK ===
    0x9ef1
=== CODE BLOCK END ===

=== CODE BLOCK ADDRESS 0x9ef1 ===
  0x9ef1	call   	dword ptr [0x1571]
  === BLOCK LINK ===
    0x9ef7
=== CODE BLOCK END ===

=== CODE BLOCK ADDRESS 0x9ef7 ===
  0x9ef7	nop    	dword ptr [eax + eax]
  0x9efc	dec    	eax
  0x9efd	inc    	edi
  0x9eff	dec    	eax
  0x9f00	cmp    	edi, esi
  === BLOCK LINK ===
    0x9f02
=== CODE BLOCK END ===

=== CODE BLOCK ADDRESS 0x9f02 ===
  0x9f02	jle    	0x9ec1
  === BLOCK LINK ===
    0x9f04
=== CODE BLOCK END ===

=== CODE BLOCK ADDRESS 0x9f04 ===
  0x9f04	inc    	esp
  0x9f05	movzx  	esp, word ptr [esp + 0x40]
  0x9f0a	inc    	ecx
  0x9f0b	movzx  	edx, sp
  0x9f0e	dec    	eax
  === BLOCK LINK ===
    0x9f0f
=== CODE BLOCK END ===

=== CODE BLOCK ADDRESS 0x9f0f ===
  0x9f0f	lea    	ecx, [ebp - 0x10]
  0x9f12	call   	0x9620
  === BLOCK LINK ===
    0x9f17
=== CODE BLOCK END ===

=== CODE BLOCK ADDRESS 0x9f17 ===
  0x9f17	test   	eax, eax
  0x9f19	jne    	0x9f39
  === BLOCK LINK ===
    0x9f1b
=== CODE BLOCK END ===

=== CODE BLOCK ADDRESS 0x9f1b ===
  0x9f1b	lea    	edx, [eax + 0x20]
  0x9f1e	dec    	eax
  0x9f1f	lea    	ecx, [ebp - 0x10]
  0x9f22	dec    	eax
  0x9f23	call   	dword ptr [0x157f]
  === BLOCK LINK ===
    0x9f29
=== CODE BLOCK END ===

=== CODE BLOCK ADDRESS 0x9f29 ===
  0x9f29	nop    	dword ptr [eax + eax]
  0x9f2e	dec    	eax
  0x9f2f	test   	eax, eax
  0x9f31	je     	0x9f39
  === BLOCK LINK ===
    0x9f33
=== CODE BLOCK END ===

=== CODE BLOCK ADDRESS 0x9f33 ===
  0x9f33	inc    	sp
  0x9f35	mov    	dword ptr [eax], esi
  0x9f37	jmp    	0x9f0a
  === BLOCK LINK ===
    0x9f39
=== CODE BLOCK END ===

=== CODE BLOCK ADDRESS 0x9f39 ===
  0x9f39	mov    	edi, 1
  0x9f3e	mov    	ecx, edi
  0x9f40	call   	0x8378
  === BLOCK LINK ===
    0x9f45
=== CODE BLOCK END ===

=== CODE BLOCK ADDRESS 0x9f45 ===
  0x9f45	int3   	
  0x9f46	call   	0x2ad8
  === BLOCK LINK ===
    0x9f4b
=== CODE BLOCK END ===

=== CODE BLOCK ADDRESS 0x9f4b ===
  0x9f4b	int3   	
  0x9f4c	int3   	
  0x9f4d	int3   	
  0x9f4e	int3   	
  0x9f4f	int3   	
  === BLOCK LINK ===
    0x9f50
=== CODE BLOCK END ===

=== CODE BLOCK ADDRESS 0x9f50 ===
  0x9f50	int3   	
  0x9f51	int3   	
  0x9f52	int3   	
  0x9f53	int3   	
  0x9f54	dec    	eax
  === BLOCK LINK ===
    0x9f55
=== CODE BLOCK END ===

=== CODE BLOCK ADDRESS 0x9f55 ===
  0x9f55	mov    	dword ptr [esp + 0x18], ebx
  0x9f59	dec    	eax
  0x9f5a	mov    	dword ptr [esp + 0x20], esi
  0x9f5e	push   	edi
  0x9f5f	dec    	eax
  === BLOCK LINK ===
    0x9f60
=== CODE BLOCK END ===

=== CODE BLOCK ADDRESS 0x9f60 ===
  0x9f60	sub    	esp, 0x150
  0x9f66	dec    	eax
  0x9f67	mov    	eax, dword ptr [0x431b]
  0x9f6d	dec    	eax
  0x9f6e	xor    	eax, esp
  === BLOCK LINK ===
    0x9f70
=== CODE BLOCK END ===

=== CODE BLOCK ADDRESS 0x9f70 ===
  0x9f70	dec    	eax
  0x9f71	mov    	dword ptr [esp + 0x140], eax
  0x9f78	xor    	esi, esi
  0x9f7a	dec    	eax
  0x9f7b	mov    	ebx, edx
  === BLOCK LINK ===
    0x9f7d
=== CODE BLOCK END ===

=== CODE BLOCK ADDRESS 0x9f7d ===
  0x9f7d	dec    	eax
  0x9f7e	mov    	edi, ecx
  0x9f80	dec    	eax
  0x9f81	test   	ecx, ecx
  0x9f83	je     	0x9ffc
  === BLOCK LINK ===
    0x9f85
=== CODE BLOCK END ===

=== CODE BLOCK ADDRESS 0x9f85 ===
  0x9f85	cmp    	word ptr [ecx], si
  0x9f88	je     	0x9ffc
  === BLOCK LINK ===
    0x9f8a
=== CODE BLOCK END ===

=== CODE BLOCK ADDRESS 0x9f8a ===
  0x9f8a	dec    	esp
  0x9f8b	lea    	ecx, [esp + 0x30]
  0x9f8f	dec    	eax
  0x9f90	lea    	ecx, [esp + 0x40]
  0x9f94	call   	0xa650
  === BLOCK LINK ===
    0x9f99
=== CODE BLOCK END ===

=== CODE BLOCK ADDRESS 0x9f99 ===
  0x9f99	test   	eax, eax
  0x9f9b	jne    	0xa001
  === BLOCK LINK ===
    0x9f9d
=== CODE BLOCK END ===

=== CODE BLOCK ADDRESS 0x9f9d ===
  0x9f9d	dec    	esp
  0x9f9e	lea    	eax, [esp + 0x30]
  0x9fa2	dec    	eax
  0x9fa3	mov    	ecx, edi
  0x9fa5	call   	0xa72c
  === BLOCK LINK ===
    0x9faa
=== CODE BLOCK END ===

=== CODE BLOCK ADDRESS 0x9faa ===
  0x9faa	test   	eax, eax
  0x9fac	je     	0x9ff4
  === BLOCK LINK ===
    0x9fae
=== CODE BLOCK END ===

=== CODE BLOCK ADDRESS 0x9fae ===
  0x9fae	dec    	eax
  0x9faf	lea    	edx, [0x45d5]
  0x9fb5	dec    	eax
  0x9fb6	mov    	ecx, edi
  0x9fb8	dec    	eax
  === BLOCK LINK ===
    0x9fb9
=== CODE BLOCK END ===

=== CODE BLOCK ADDRESS 0x9fb9 ===
  0x9fb9	call   	dword ptr [0x1479]
  === BLOCK LINK ===
    0x9fbf
=== CODE BLOCK END ===

=== CODE BLOCK ADDRESS 0x9fbf ===
  0x9fbf	nop    	dword ptr [eax + eax]
  0x9fc4	test   	eax, eax
  0x9fc6	jne    	0x9fd2
  === BLOCK LINK ===
    0x9fc8
=== CODE BLOCK END ===

=== CODE BLOCK ADDRESS 0x9fc8 ===
  0x9fc8	mov    	dword ptr [ebx], 1
  0x9fce	xor    	eax, eax
  0x9fd0	jmp    	0xa001
  === BLOCK LINK ===
    0x9fd2
=== CODE BLOCK END ===

=== CODE BLOCK ADDRESS 0x9fd2 ===
  0x9fd2	dec    	eax
  0x9fd3	lea    	edx, [0x45a9]
  0x9fd9	dec    	eax
  0x9fda	mov    	ecx, edi
  0x9fdc	dec    	eax
  === BLOCK LINK ===
    0x9fdd
=== CODE BLOCK END ===

=== CODE BLOCK ADDRESS 0x9fdd ===
  0x9fdd	call   	dword ptr [0x1455]
  === BLOCK LINK ===
    0x9fe3
=== CODE BLOCK END ===

=== CODE BLOCK ADDRESS 0x9fe3 ===
  0x9fe3	nop    	dword ptr [eax + eax]
  0x9fe8	test   	eax, eax
  0x9fea	jne    	0x9ffc
  === BLOCK LINK ===
    0x9fec
=== CODE BLOCK END ===

=== CODE BLOCK ADDRESS 0x9fec ===
  0x9fec	mov    	dword ptr [ebx], 2
  0x9ff2	jmp    	0x9fce
  === BLOCK LINK ===
    0x9ff4
=== CODE BLOCK END ===

=== CODE BLOCK ADDRESS 0x9ff4 ===
  0x9ff4	mov    	eax, dword ptr [esp + 0x30]
  0x9ff8	mov    	dword ptr [ebx], eax
  0x9ffa	jmp    	0x9fce
  === BLOCK LINK ===
    0x9ffc
=== CODE BLOCK END ===

=== CODE BLOCK ADDRESS 0x9ffc ===
  0x9ffc	mov    	eax, 0x57
  0xa001	dec    	eax
  0xa002	mov    	ecx, dword ptr [esp + 0x140]
  0xa009	dec    	eax
  0xa00a	xor    	ecx, esp
  === BLOCK LINK ===
    0xa00c
=== CODE BLOCK END ===

=== CODE BLOCK ADDRESS 0xa00c ===
  0xa00c	call   	0x2900
  === BLOCK LINK ===
    0xa011
=== CODE BLOCK END ===

=== CODE BLOCK ADDRESS 0xa011 ===
  0xa011	dec    	esp
  0xa012	lea    	ebx, [esp + 0x150]
  0xa019	dec    	ecx
  0xa01a	mov    	ebx, dword ptr [ebx + 0x20]
  0xa01d	dec    	ecx
  === BLOCK LINK ===
    0xa01e
=== CODE BLOCK END ===

=== CODE BLOCK ADDRESS 0xa01e ===
  0xa01e	mov    	esi, dword ptr [ebx + 0x28]
  0xa021	dec    	ecx
  0xa022	mov    	esp, ebx
  0xa024	pop    	edi
  0xa025	ret    	
  === BLOCK LINK ===
    0xa026
=== CODE BLOCK END ===

=== CODE BLOCK ADDRESS 0xa026 ===
  0xa026	int3   	
  0xa027	int3   	
  0xa028	int3   	
  0xa029	int3   	
  0xa02a	int3   	
  === BLOCK LINK ===
    0xa02b
=== CODE BLOCK END ===

=== CODE BLOCK ADDRESS 0xa02b ===
  0xa02b	int3   	
  0xa02c	int3   	
  0xa02d	int3   	
  0xa02e	int3   	
  0xa02f	int3   	
  === BLOCK LINK ===
    0xa030
=== CODE BLOCK END ===

=== CODE BLOCK ADDRESS 0xa030 ===
  0xa030	dec    	eax
  0xa031	mov    	dword ptr [esp + 0x10], ebx
  0xa035	push   	ebp
  0xa036	push   	esi
  0xa037	push   	edi
  === BLOCK LINK ===
    0xa038
=== CODE BLOCK END ===

=== CODE BLOCK ADDRESS 0xa038 ===
  0xa038	inc    	ecx
  0xa039	push   	esp
  0xa03a	inc    	ecx
  0xa03b	push   	ebp
  0xa03c	inc    	ecx
  === BLOCK LINK ===
    0xa03d
=== CODE BLOCK END ===

=== CODE BLOCK ADDRESS 0xa03d ===
  0xa03d	push   	esi
  0xa03e	inc    	ecx
  0xa03f	push   	edi
  0xa040	dec    	eax
  0xa041	sub    	esp, 0xa0
  === BLOCK LINK ===
    0xa047
=== CODE BLOCK END ===

=== CODE BLOCK ADDRESS 0xa047 ===
  0xa047	dec    	eax
  0xa048	mov    	eax, dword ptr [0x423a]
  0xa04e	dec    	eax
  0xa04f	xor    	eax, esp
  0xa051	dec    	eax
  === BLOCK LINK ===
    0xa052
=== CODE BLOCK END ===

=== CODE BLOCK ADDRESS 0xa052 ===
  0xa052	mov    	dword ptr [esp + 0x90], eax
  0xa059	dec    	eax
  0xa05a	mov    	esi, dword ptr [esp + 0x108]
  0xa061	inc    	ebp
  0xa062	xor    	ebp, ebp
  === BLOCK LINK ===
    0xa064
=== CODE BLOCK END ===

=== CODE BLOCK ADDRESS 0xa064 ===
  0xa064	dec    	esp
  0xa065	mov    	esp, dword ptr [esp + 0x110]
  0xa06c	inc    	ebp
  0xa06d	mov    	edi, ecx
  0xa06f	dec    	ebp
  === BLOCK LINK ===
    0xa070
=== CODE BLOCK END ===

=== CODE BLOCK ADDRESS 0xa070 ===
  0xa070	mov    	esi, eax
  0xa072	mov    	ebp, edx
  0xa074	dec    	eax
  0xa075	mov    	ebx, ecx
  0xa077	inc    	ecx
  === BLOCK LINK ===
    0xa078
=== CODE BLOCK END ===

=== CODE BLOCK ADDRESS 0xa078 ===
  0xa078	mov    	edi, ebp
  0xa07a	inc    	ebp
  0xa07b	test   	ecx, ecx
  0xa07d	je     	0xa083
  === BLOCK LINK ===
    0xa07f
=== CODE BLOCK END ===

=== CODE BLOCK ADDRESS 0xa07f ===
  0xa07f	inc    	bp
  0xa081	mov    	dword ptr [eax], ebp
  0xa083	cmp    	ebp, 0x64
  0xa086	jbe    	0xa092
  === BLOCK LINK ===
    0xa088
=== CODE BLOCK END ===

=== CODE BLOCK ADDRESS 0xa088 ===
  0xa088	mov    	eax, 0x57
  0xa08d	jmp    	0xa211
  === BLOCK LINK ===
    0xa092
=== CODE BLOCK END ===

=== CODE BLOCK ADDRESS 0xa092 ===
  0xa092	dec    	eax
  0xa093	lea    	edx, [0x190f]
  0xa099	dec    	eax
  0xa09a	mov    	ecx, esi
  0xa09c	call   	0x3226
  === BLOCK LINK ===
    0xa0a1
=== CODE BLOCK END ===

=== CODE BLOCK ADDRESS 0xa0a1 ===
  0xa0a1	test   	eax, eax
  0xa0a3	dec    	eax
  0xa0a4	mov    	eax, dword ptr [0xd83e]
  0xa0aa	jne    	0xa0b6
  === BLOCK LINK ===
    0xa0ac
=== CODE BLOCK END ===

=== CODE BLOCK ADDRESS 0xa0ac ===
  0xa0ac	mov    	edx, 0x3000
  0xa0b1	jmp    	0xa13e
  === BLOCK LINK ===
    0xa0b6
=== CODE BLOCK END ===

=== CODE BLOCK ADDRESS 0xa0b6 ===
  0xa0b6	dec    	eax
  0xa0b7	test   	eax, eax
  0xa0b9	je     	0xa0f3
  === BLOCK LINK ===
    0xa0bb
=== CODE BLOCK END ===

=== CODE BLOCK ADDRESS 0xa0bb ===
  0xa0bb	dec    	eax
  0xa0bc	lea    	edx, [0xd61e]
  0xa0c2	dec    	esp
  0xa0c3	mov    	edx, esi
  0xa0c5	dec    	esp
  === BLOCK LINK ===
    0xa0c6
=== CODE BLOCK END ===

=== CODE BLOCK ADDRESS 0xa0c6 ===
  0xa0c6	sub    	edx, edx
  0xa0c8	inc    	esp
  0xa0c9	movzx  	eax, word ptr [edx]
  0xa0cc	inc    	esi
  0xa0cd	movzx  	ecx, word ptr [edx + edx]
  === BLOCK LINK ===
    0xa0d1
=== CODE BLOCK END ===

=== CODE BLOCK ADDRESS 0xa0d1 ===
  0xa0d1	inc    	ebp
  0xa0d2	sub    	eax, ecx
  0xa0d4	jne    	0xa0df
  === BLOCK LINK ===
    0xa0d6
=== CODE BLOCK END ===

=== CODE BLOCK ADDRESS 0xa0d6 ===
  0xa0d6	dec    	eax
  0xa0d7	add    	edx, 2
  0xa0da	inc    	ebp
  0xa0db	test   	ecx, ecx
  0xa0dd	jne    	0xa0c8
  === BLOCK LINK ===
    0xa0df
=== CODE BLOCK END ===

=== CODE BLOCK ADDRESS 0xa0df ===
  0xa0df	inc    	ebp
  0xa0e0	test   	eax, eax
  0xa0e2	je     	0xa139
  === BLOCK LINK ===
    0xa0e4
=== CODE BLOCK END ===

=== CODE BLOCK ADDRESS 0xa0e4 ===
  0xa0e4	dec    	eax
  0xa0e5	mov    	ecx, eax
  0xa0e7	dec    	eax
  0xa0e8	call   	dword ptr [0x11e2]
  === BLOCK LINK ===
    0xa0ee
=== CODE BLOCK END ===

=== CODE BLOCK ADDRESS 0xa0ee ===
  0xa0ee	nop    	dword ptr [eax + eax]
  0xa0f3	dec    	esp
  0xa0f4	mov    	eax, esi
  0xa0f6	dec    	eax
  0xa0f7	lea    	ecx, [0xd5e3]
  === BLOCK LINK ===
    0xa0fd
=== CODE BLOCK END ===

=== CODE BLOCK ADDRESS 0xa0fd ===
  0xa0fd	mov    	edx, 0x104
  0xa102	dec    	eax
  0xa103	call   	dword ptr [0x1437]
  === BLOCK LINK ===
    0xa109
=== CODE BLOCK END ===

=== CODE BLOCK ADDRESS 0xa109 ===
  0xa109	nop    	dword ptr [eax + eax]
  0xa10e	xor    	edx, edx
  0xa110	dec    	eax
  0xa111	mov    	ecx, esi
  0xa113	inc    	esp
  === BLOCK LINK ===
    0xa114
=== CODE BLOCK END ===

=== CODE BLOCK ADDRESS 0xa114 ===
  0xa114	lea    	eax, [edx + 0x20]
  0xa117	dec    	eax
  0xa118	call   	dword ptr [0x11aa]
  === BLOCK LINK ===
    0xa11e
=== CODE BLOCK END ===

=== CODE BLOCK ADDRESS 0xa11e ===
  0xa11e	nop    	dword ptr [eax + eax]
  0xa123	dec    	eax
  0xa124	mov    	dword ptr [0xd7be], eax
  0xa12a	dec    	eax
  0xa12b	test   	eax, eax
  === BLOCK LINK ===
    0xa12d
=== CODE BLOCK END ===

=== CODE BLOCK ADDRESS 0xa12d ===
  0xa12d	jne    	0xa139
  === BLOCK LINK ===
    0xa12f
=== CODE BLOCK END ===

=== CODE BLOCK ADDRESS 0xa12f ===
  0xa12f	mov    	eax, 0x13e
  0xa134	jmp    	0xa211
  === BLOCK LINK ===
    0xa139
=== CODE BLOCK END ===

=== CODE BLOCK ADDRESS 0xa139 ===
  0xa139	mov    	edx, 0x2800
  0xa13e	inc    	esp
  0xa13f	mov    	eax, dword ptr [esp + 0x100]
  0xa146	mov    	ecx, edx
  0xa148	bts    	ecx, 9
  === BLOCK LINK ===
    0xa14c
=== CODE BLOCK END ===

=== CODE BLOCK ADDRESS 0xa14c ===
  0xa14c	dec    	eax
  0xa14d	mov    	dword ptr [esp + 0x30], ebx
  0xa151	test   	ebp, ebp
  0xa153	inc    	esp
  0xa154	mov    	dword ptr [esp + 0x28], edi
  === BLOCK LINK ===
    0xa158
=== CODE BLOCK END ===

=== CODE BLOCK ADDRESS 0xa158 ===
  0xa158	dec    	esp
  0xa159	mov    	dword ptr [esp + 0x20], esi
  0xa15d	cmovne  	ecx, edx
  0xa160	inc    	ebp
  0xa161	xor    	ecx, ecx
  === BLOCK LINK ===
    0xa163
=== CODE BLOCK END ===

=== CODE BLOCK ADDRESS 0xa163 ===
  0xa163	dec    	eax
  0xa164	mov    	edx, eax
  0xa166	dec    	eax
  0xa167	call   	dword ptr [0x117b]
  === BLOCK LINK ===
    0xa16d
=== CODE BLOCK END ===

=== CODE BLOCK ADDRESS 0xa16d ===
  0xa16d	nop    	dword ptr [eax + eax]
  0xa172	inc    	ecx
  0xa173	mov    	dword ptr [esp], eax
  0xa176	test   	eax, eax
  0xa178	jne    	0xa20f
  === BLOCK LINK ===
    0xa17e
=== CODE BLOCK END ===

=== CODE BLOCK ADDRESS 0xa17e ===
  0xa17e	inc    	bp
  0xa180	mov    	dword ptr [esi], ebp
  0xa182	dec    	eax
  0xa183	call   	dword ptr [0x10cf]
  === BLOCK LINK ===
    0xa189
=== CODE BLOCK END ===

=== CODE BLOCK ADDRESS 0xa189 ===
  0xa189	nop    	dword ptr [eax + eax]
  0xa18e	mov    	edi, eax
  0xa190	cmp    	eax, 0x13d
  0xa195	jne    	0xa20f
  === BLOCK LINK ===
    0xa197
=== CODE BLOCK END ===

=== CODE BLOCK ADDRESS 0xa197 ===
  0xa197	mov    	ecx, dword ptr [esp + 0x100]
  0xa19e	dec    	eax
  0xa19f	lea    	edx, [esp + 0x40]
  0xa1a3	inc    	ecx
  0xa1a4	mov    	eax, 0x10
  === BLOCK LINK ===
    0xa1a9
=== CODE BLOCK END ===

=== CODE BLOCK ADDRESS 0xa1a9 ===
  0xa1a9	dec    	eax
  0xa1aa	call   	dword ptr [0x1290]
  === BLOCK LINK ===
    0xa1b0
=== CODE BLOCK END ===

=== CODE BLOCK ADDRESS 0xa1b0 ===
  0xa1b0	nop    	dword ptr [eax + eax]
  0xa1b5	dec    	eax
  0xa1b6	test   	ebx, ebx
  0xa1b8	je     	0xa1cb
  === BLOCK LINK ===
    0xa1ba
=== CODE BLOCK END ===

=== CODE BLOCK ADDRESS 0xa1ba ===
  0xa1ba	dec    	eax
  0xa1bb	lea    	eax, [esp + 0x40]
  0xa1bf	dec    	eax
  0xa1c0	mov    	dword ptr [ebx], eax
  0xa1c2	cmp    	ebp, 1
  === BLOCK LINK ===
    0xa1c5
=== CODE BLOCK END ===

=== CODE BLOCK ADDRESS 0xa1c5 ===
  0xa1c5	jbe    	0xa1cb
  === BLOCK LINK ===
    0xa1c7
=== CODE BLOCK END ===

=== CODE BLOCK ADDRESS 0xa1c7 ===
  0xa1c7	dec    	eax
  0xa1c8	mov    	dword ptr [ebx + 8], esi
  0xa1cb	dec    	eax
  0xa1cc	mov    	edx, dword ptr [0xd716]
  0xa1d2	mov    	edi, 0x13d
  === BLOCK LINK ===
    0xa1d7
=== CODE BLOCK END ===

=== CODE BLOCK ADDRESS 0xa1d7 ===
  0xa1d7	dec    	eax
  0xa1d8	mov    	dword ptr [esp + 0x30], ebx
  0xa1dc	inc    	esp
  0xa1dd	mov    	eax, edi
  0xa1df	inc    	esp
  === BLOCK LINK ===
    0xa1e0
=== CODE BLOCK END ===

=== CODE BLOCK ADDRESS 0xa1e0 ===
  0xa1e0	mov    	dword ptr [esp + 0x28], edi
  0xa1e4	inc    	ebp
  0xa1e5	xor    	ecx, ecx
  0xa1e7	mov    	ecx, 0x3000
  0xa1ec	dec    	esp
  === BLOCK LINK ===
    0xa1ed
=== CODE BLOCK END ===

=== CODE BLOCK ADDRESS 0xa1ed ===
  0xa1ed	mov    	dword ptr [esp + 0x20], esi
  0xa1f1	dec    	eax
  0xa1f2	call   	dword ptr [0x10f0]
  === BLOCK LINK ===
    0xa1f8
=== CODE BLOCK END ===

=== CODE BLOCK ADDRESS 0xa1f8 ===
  0xa1f8	nop    	dword ptr [eax + eax]
  0xa1fd	inc    	ecx
  0xa1fe	mov    	dword ptr [esp], eax
  0xa201	cmp    	ebp, 1
  0xa204	jbe    	0xa20f
  === BLOCK LINK ===
    0xa206
=== CODE BLOCK END ===

=== CODE BLOCK ADDRESS 0xa206 ===
  0xa206	dec    	eax
  0xa207	test   	ebx, ebx
  0xa209	je     	0xa20f
  === BLOCK LINK ===
    0xa20b
=== CODE BLOCK END ===

=== CODE BLOCK ADDRESS 0xa20b ===
  0xa20b	dec    	esp
  0xa20c	mov    	dword ptr [ebx + 8], ebp
  0xa20f	mov    	eax, edi
  0xa211	dec    	eax
  0xa212	mov    	ecx, dword ptr [esp + 0x90]
  === BLOCK LINK ===
    0xa219
=== CODE BLOCK END ===

=== CODE BLOCK ADDRESS 0xa219 ===
  0xa219	dec    	eax
  0xa21a	xor    	ecx, esp
  0xa21c	call   	0x2900
  === BLOCK LINK ===
    0xa221
=== CODE BLOCK END ===

=== CODE BLOCK ADDRESS 0xa221 ===
  0xa221	dec    	eax
  0xa222	mov    	ebx, dword ptr [esp + 0xe8]
  0xa229	dec    	eax
  0xa22a	add    	esp, 0xa0
  0xa230	inc    	ecx
  === BLOCK LINK ===
    0xa231
=== CODE BLOCK END ===

=== CODE BLOCK ADDRESS 0xa231 ===
  0xa231	pop    	edi
  0xa232	inc    	ecx
  0xa233	pop    	esi
  0xa234	inc    	ecx
  0xa235	pop    	ebp
  === BLOCK LINK ===
    0xa236
=== CODE BLOCK END ===

=== CODE BLOCK ADDRESS 0xa236 ===
  0xa236	inc    	ecx
  0xa237	pop    	esp
  0xa238	pop    	edi
  0xa239	pop    	esi
  0xa23a	pop    	ebp
  === BLOCK LINK ===
    0xa23b
=== CODE BLOCK END ===

=== CODE BLOCK ADDRESS 0xa23b ===
  0xa23b	ret    	
  0xa23c	int3   	
  0xa23d	int3   	
  0xa23e	int3   	
  0xa23f	int3   	
  === BLOCK LINK ===
    0xa240
=== CODE BLOCK END ===

=== CODE BLOCK ADDRESS 0xa240 ===
  0xa240	int3   	
  0xa241	int3   	
  0xa242	int3   	
  0xa243	int3   	
  0xa244	dec    	eax
  === BLOCK LINK ===
    0xa245
=== CODE BLOCK END ===

=== CODE BLOCK ADDRESS 0xa245 ===
  0xa245	mov    	dword ptr [esp + 8], ebx
  0xa249	dec    	eax
  0xa24a	mov    	dword ptr [esp + 0x10], ebp
  0xa24e	dec    	eax
  0xa24f	mov    	dword ptr [esp + 0x18], esi
  === BLOCK LINK ===
    0xa253
=== CODE BLOCK END ===

=== CODE BLOCK ADDRESS 0xa253 ===
  0xa253	push   	edi
  0xa254	dec    	eax
  0xa255	sub    	esp, 0x20
  0xa258	inc    	ecx
  0xa259	mov    	esi, eax
  === BLOCK LINK ===
    0xa25b
=== CODE BLOCK END ===

=== CODE BLOCK ADDRESS 0xa25b ===
  0xa25b	dec    	eax
  0xa25c	mov    	ebx, edx
  0xa25e	dec    	ecx
  0xa25f	or     	eax, 0xffffffff
  0xa262	dec    	eax
  === BLOCK LINK ===
    0xa263
=== CODE BLOCK END ===

=== CODE BLOCK ADDRESS 0xa263 ===
  0xa263	mov    	edi, ecx
  0xa265	xor    	ebp, ebp
  0xa267	dec    	ecx
  0xa268	inc    	eax
  0xa26a	inc    	dx
  === BLOCK LINK ===
    0xa26c
=== CODE BLOCK END ===

=== CODE BLOCK ADDRESS 0xa26c ===
  0xa26c	cmp    	dword ptr [edx + eax*2], ebp
  0xa26f	jne    	0xa267
  === BLOCK LINK ===
    0xa271
=== CODE BLOCK END ===

=== CODE BLOCK ADDRESS 0xa271 ===
  0xa271	call   	0xa384
  === BLOCK LINK ===
    0xa276
=== CODE BLOCK END ===

=== CODE BLOCK ADDRESS 0xa276 ===
  0xa276	test   	esi, esi
  0xa278	je     	0xa2a9
  === BLOCK LINK ===
    0xa27a
=== CODE BLOCK END ===

=== CODE BLOCK ADDRESS 0xa27a ===
  0xa27a	jmp    	0xa286
  === BLOCK LINK ===
    0xa27c
=== CODE BLOCK END ===

=== CODE BLOCK ADDRESS 0xa27c ===
  0xa27c	cmp    	ax, 0xa
  0xa280	je     	0xa294
  === BLOCK LINK ===
    0xa282
=== CODE BLOCK END ===

=== CODE BLOCK ADDRESS 0xa282 ===
  0xa282	dec    	eax
  0xa283	add    	ebx, 2
  0xa286	movzx  	eax, word ptr [ebx]
  0xa289	test   	ax, ax
  0xa28c	jne    	0xa27c
  === BLOCK LINK ===
    0xa28e
=== CODE BLOCK END ===

=== CODE BLOCK ADDRESS 0xa28e ===
  0xa28e	cmp    	ax, 0xa
  0xa292	jne    	0xa2a9
  === BLOCK LINK ===
    0xa294
=== CODE BLOCK END ===

=== CODE BLOCK ADDRESS 0xa294 ===
  0xa294	inc    	ecx
  0xa295	mov    	eax, 2
  0xa29a	dec    	eax
  0xa29b	lea    	edx, [0x1427]
  0xa2a1	dec    	eax
  === BLOCK LINK ===
    0xa2a2
=== CODE BLOCK END ===

=== CODE BLOCK ADDRESS 0xa2a2 ===
  0xa2a2	mov    	ecx, edi
  0xa2a4	call   	0xa384
  === BLOCK LINK ===
    0xa2a9
=== CODE BLOCK END ===

=== CODE BLOCK ADDRESS 0xa2a9 ===
  0xa2a9	dec    	eax
  0xa2aa	mov    	ebx, dword ptr [esp + 0x30]
  0xa2ae	dec    	eax
  0xa2af	mov    	ebp, dword ptr [esp + 0x38]
  0xa2b3	dec    	eax
  === BLOCK LINK ===
    0xa2b4
=== CODE BLOCK END ===

=== CODE BLOCK ADDRESS 0xa2b4 ===
  0xa2b4	mov    	esi, dword ptr [esp + 0x40]
  0xa2b8	dec    	eax
  0xa2b9	add    	esp, 0x20
  0xa2bc	pop    	edi
  0xa2bd	ret    	
  === BLOCK LINK ===
    0xa2be
=== CODE BLOCK END ===

=== CODE BLOCK ADDRESS 0x1910 ===
  0x1910	dec    	eax
  0x1911	inc    	ebx
  0x1913	cmp    	word ptr [edi + ebx*2], 0
  0x1918	jne    	0x1910
  === BLOCK LINK ===
    0x191a
=== CODE BLOCK END ===

=== CODE BLOCK ADDRESS 0xa2be ===
  0xa2be	int3   	
  0xa2bf	int3   	
  0xa2c0	int3   	
  0xa2c1	int3   	
  0xa2c2	int3   	
  === BLOCK LINK ===
    0xa2c3
=== CODE BLOCK END ===

=== CODE BLOCK ADDRESS 0xa2c3 ===
  0xa2c3	int3   	
  0xa2c4	int3   	
  0xa2c5	int3   	
  0xa2c6	int3   	
  0xa2c7	int3   	
  === BLOCK LINK ===
    0xa2c8
=== CODE BLOCK END ===

=== CODE BLOCK ADDRESS 0xa2c8 ===
  0xa2c8	dec    	eax
  0xa2c9	mov    	dword ptr [esp + 0x10], ebx
  0xa2cd	push   	edi
  0xa2ce	mov    	eax, 0x1060
  0xa2d3	call   	0x3260
  === BLOCK LINK ===
    0xa2d8
=== CODE BLOCK END ===

=== CODE BLOCK ADDRESS 0xa2d8 ===
  0xa2d8	dec    	eax
  0xa2d9	sub    	esp, eax
  0xa2db	dec    	eax
  0xa2dc	mov    	eax, dword ptr [0x3fa6]
  0xa2e2	dec    	eax
  === BLOCK LINK ===
    0xa2e3
=== CODE BLOCK END ===

=== CODE BLOCK ADDRESS 0xa2e3 ===
  0xa2e3	xor    	eax, esp
  0xa2e5	dec    	eax
  0xa2e6	mov    	dword ptr [esp + 0x1050], eax
  0xa2ed	dec    	eax
  0xa2ee	lea    	eax, [esp + 0x40]
  === BLOCK LINK ===
    0xa2f2
=== CODE BLOCK END ===

=== CODE BLOCK ADDRESS 0xa2f2 ===
  0xa2f2	mov    	ebx, ecx
  0xa2f4	dec    	eax
  0xa2f5	mov    	dword ptr [esp + 0x30], eax
  0xa2f9	dec    	esp
  0xa2fa	lea    	eax, [esp + 0x50]
  === BLOCK LINK ===
    0xa2fe
=== CODE BLOCK END ===

=== CODE BLOCK ADDRESS 0xa2fe ===
  0xa2fe	dec    	eax
  0xa2ff	lea    	eax, [0x13b3]
  0xa305	inc    	ecx
  0xa306	mov    	ecx, 0x800
  0xa30b	dec    	eax
  === BLOCK LINK ===
    0xa30c
=== CODE BLOCK END ===

=== CODE BLOCK ADDRESS 0xa30c ===
  0xa30c	mov    	dword ptr [esp + 0x28], eax
  0xa310	dec    	eax
  0xa311	lea    	ecx, [0xc109]
  0xa317	mov    	dword ptr [esp + 0x20], edx
  0xa31b	or     	edi, 0xffffffff
  === BLOCK LINK ===
    0xa31e
=== CODE BLOCK END ===

=== CODE BLOCK ADDRESS 0xa31e ===
  0xa31e	xor    	edx, edx
  0xa320	inc    	esp
  0xa321	mov    	dword ptr [esp + 0x40], ecx
  0xa325	call   	0xa030
  === BLOCK LINK ===
    0xa32a
=== CODE BLOCK END ===

=== CODE BLOCK ADDRESS 0xa32a ===
  0xa32a	test   	eax, eax
  0xa32c	jne    	0xa357
  === BLOCK LINK ===
    0xa32e
=== CODE BLOCK END ===

=== CODE BLOCK ADDRESS 0xa32e ===
  0xa32e	dec    	eax
  0xa32f	lea    	ecx, [esp + 0x50]
  0xa333	call   	0x8620
  === BLOCK LINK ===
    0xa338
=== CODE BLOCK END ===

=== CODE BLOCK ADDRESS 0xa338 ===
  0xa338	cmp    	eax, ebx
  0xa33a	jle    	0xa348
  === BLOCK LINK ===
    0xa33c
=== CODE BLOCK END ===

=== CODE BLOCK ADDRESS 0xa33c ===
  0xa33c	dec    	eax
  0xa33d	lea    	ecx, [esp + 0x50]
  0xa341	call   	0x8620
  === BLOCK LINK ===
    0xa346
=== CODE BLOCK END ===

=== CODE BLOCK ADDRESS 0xa346 ===
  0xa346	mov    	ebx, eax
  0xa348	lea    	ecx, [ebx + 2]
  0xa34b	dec    	eax
  0xa34c	lea    	edx, [esp + 0x50]
  0xa350	call   	0xa490
  === BLOCK LINK ===
    0xa355
=== CODE BLOCK END ===

=== CODE BLOCK ADDRESS 0xa355 ===
  0xa355	mov    	edi, eax
  0xa357	mov    	eax, edi
  0xa359	dec    	eax
  0xa35a	mov    	ecx, dword ptr [esp + 0x1050]
  0xa361	dec    	eax
  === BLOCK LINK ===
    0xa362
=== CODE BLOCK END ===

=== CODE BLOCK ADDRESS 0xa362 ===
  0xa362	xor    	ecx, esp
  0xa364	call   	0x2900
  === BLOCK LINK ===
    0xa369
=== CODE BLOCK END ===

=== CODE BLOCK ADDRESS 0xa369 ===
  0xa369	dec    	eax
  0xa36a	mov    	ebx, dword ptr [esp + 0x1078]
  0xa371	dec    	eax
  0xa372	add    	esp, 0x1060
  0xa378	pop    	edi
  === BLOCK LINK ===
    0xa379
=== CODE BLOCK END ===

=== CODE BLOCK ADDRESS 0xa379 ===
  0xa379	ret    	
  0xa37a	int3   	
  0xa37b	int3   	
  0xa37c	int3   	
  0xa37d	int3   	
  === BLOCK LINK ===
    0xa37e
=== CODE BLOCK END ===

=== CODE BLOCK ADDRESS 0x3904 ===
  0x3904	xor    	edx, edx
  0x3906	mov    	ecx, eax
  0x3908	call   	0x7ea4
  === BLOCK LINK ===
    0x390d
=== CODE BLOCK END ===

=== CODE BLOCK ADDRESS 0xa37e ===
  0xa37e	int3   	
  0xa37f	int3   	
  0xa380	int3   	
  0xa381	int3   	
  0xa382	int3   	
  === BLOCK LINK ===
    0xa383
=== CODE BLOCK END ===

=== CODE BLOCK ADDRESS 0xa383 ===
  0xa383	int3   	
  0xa384	dec    	eax
  0xa385	mov    	dword ptr [esp + 8], ebx
  0xa389	dec    	eax
  0xa38a	mov    	dword ptr [esp + 0x10], esi
  === BLOCK LINK ===
    0xa38e
=== CODE BLOCK END ===

=== CODE BLOCK ADDRESS 0xa38e ===
  0xa38e	inc    	esp
  0xa38f	mov    	dword ptr [esp + 0x18], eax
  0xa393	push   	edi
  0xa394	dec    	eax
  0xa395	sub    	esp, 0x40
  === BLOCK LINK ===
    0xa398
=== CODE BLOCK END ===

=== CODE BLOCK ADDRESS 0xa398 ===
  0xa398	dec    	eax
  0xa399	mov    	esi, edx
  0xa39b	dec    	eax
  0xa39c	mov    	edi, ecx
  0xa39e	dec    	eax
  === BLOCK LINK ===
    0xa39f
=== CODE BLOCK END ===

=== CODE BLOCK ADDRESS 0xa39f ===
  0xa39f	call   	dword ptr [0xecb]
  === BLOCK LINK ===
    0xa3a5
=== CODE BLOCK END ===

=== CODE BLOCK ADDRESS 0xa3a5 ===
  0xa3a5	nop    	dword ptr [eax + eax]
  0xa3aa	btr    	eax, 0xf
  0xa3ae	cmp    	eax, 2
  0xa3b1	jne    	0xa3f2
  === BLOCK LINK ===
    0xa3b3
=== CODE BLOCK END ===

=== CODE BLOCK ADDRESS 0xa3b3 ===
  0xa3b3	dec    	eax
  0xa3b4	lea    	edx, [esp + 0x68]
  0xa3b8	dec    	eax
  0xa3b9	mov    	ecx, edi
  0xa3bb	dec    	eax
  === BLOCK LINK ===
    0xa3bc
=== CODE BLOCK END ===

=== CODE BLOCK ADDRESS 0xa3bc ===
  0xa3bc	call   	dword ptr [0xe1e]
  === BLOCK LINK ===
    0xa3c2
=== CODE BLOCK END ===

=== CODE BLOCK ADDRESS 0xa3c2 ===
  0xa3c2	nop    	dword ptr [eax + eax]
  0xa3c7	test   	eax, eax
  0xa3c9	je     	0xa3f2
  === BLOCK LINK ===
    0xa3cb
=== CODE BLOCK END ===

=== CODE BLOCK ADDRESS 0xa3cb ===
  0xa3cb	dec    	eax
  0xa3cc	and    	dword ptr [esp + 0x20], 0
  0xa3d1	dec    	esp
  0xa3d2	lea    	ecx, [esp + 0x60]
  0xa3d6	inc    	esp
  === BLOCK LINK ===
    0xa3d7
=== CODE BLOCK END ===

=== CODE BLOCK ADDRESS 0xa3d7 ===
  0xa3d7	mov    	eax, dword ptr [esp + 0x60]
  0xa3db	dec    	eax
  0xa3dc	mov    	edx, esi
  0xa3de	dec    	eax
  0xa3df	mov    	ecx, edi
  === BLOCK LINK ===
    0xa3e1
=== CODE BLOCK END ===

=== CODE BLOCK ADDRESS 0xa3e1 ===
  0xa3e1	dec    	eax
  0xa3e2	call   	dword ptr [0xde8]
  === BLOCK LINK ===
    0xa3e8
=== CODE BLOCK END ===

=== CODE BLOCK ADDRESS 0xa3e8 ===
  0xa3e8	nop    	dword ptr [eax + eax]
  0xa3ed	jmp    	0xa478
  === BLOCK LINK ===
    0xa3f2
=== CODE BLOCK END ===

=== CODE BLOCK ADDRESS 0xa3f2 ===
  0xa3f2	mov    	edx, dword ptr [esp + 0x60]
  0xa3f6	xor    	ecx, ecx
  0xa3f8	dec    	eax
  0xa3f9	add    	edx, edx
  0xa3fb	dec    	eax
  === BLOCK LINK ===
    0xa3fc
=== CODE BLOCK END ===

=== CODE BLOCK ADDRESS 0xa3fc ===
  0xa3fc	call   	dword ptr [0xeae]
  === BLOCK LINK ===
    0xa402
=== CODE BLOCK END ===

=== CODE BLOCK ADDRESS 0xa402 ===
  0xa402	nop    	dword ptr [eax + eax]
  0xa407	dec    	eax
  0xa408	mov    	ebx, eax
  0xa40a	dec    	eax
  0xa40b	test   	eax, eax
  === BLOCK LINK ===
    0xa40d
=== CODE BLOCK END ===

=== CODE BLOCK ADDRESS 0xa40d ===
  0xa40d	je     	0xa478
  === BLOCK LINK ===
    0xa40f
=== CODE BLOCK END ===

=== CODE BLOCK ADDRESS 0xa40f ===
  0xa40f	dec    	eax
  0xa410	and    	dword ptr [esp + 0x38], 0
  0xa415	xor    	edx, edx
  0xa417	inc    	esp
  0xa418	mov    	ecx, dword ptr [esp + 0x60]
  === BLOCK LINK ===
    0xa41c
=== CODE BLOCK END ===

=== CODE BLOCK ADDRESS 0xa41c ===
  0xa41c	dec    	esp
  0xa41d	mov    	eax, esi
  0xa41f	dec    	eax
  0xa420	and    	dword ptr [esp + 0x30], 0
  0xa425	inc    	ebx
  === BLOCK LINK ===
    0xa426
=== CODE BLOCK END ===

=== CODE BLOCK ADDRESS 0xa426 ===
  0xa426	lea    	ecx, [ecx + ecx]
  0xa429	mov    	dword ptr [esp + 0x28], ecx
  0xa42d	lea    	ecx, [edx + 1]
  0xa430	dec    	eax
  0xa431	mov    	dword ptr [esp + 0x20], eax
  === BLOCK LINK ===
    0xa435
=== CODE BLOCK END ===

=== CODE BLOCK ADDRESS 0xa435 ===
  0xa435	dec    	eax
  0xa436	call   	dword ptr [0xf8c]
  === BLOCK LINK ===
    0xa43c
=== CODE BLOCK END ===

=== CODE BLOCK ADDRESS 0xa43c ===
  0xa43c	nop    	dword ptr [eax + eax]
  0xa441	mov    	dword ptr [esp + 0x60], eax
  0xa445	test   	eax, eax
  0xa447	je     	0xa469
  === BLOCK LINK ===
    0xa449
=== CODE BLOCK END ===

=== CODE BLOCK ADDRESS 0xa449 ===
  0xa449	dec    	eax
  0xa44a	and    	dword ptr [esp + 0x20], 0
  0xa44f	dec    	esp
  0xa450	lea    	ecx, [esp + 0x60]
  0xa454	inc    	esp
  === BLOCK LINK ===
    0xa455
=== CODE BLOCK END ===

=== CODE BLOCK ADDRESS 0xa455 ===
  0xa455	mov    	eax, eax
  0xa457	dec    	eax
  0xa458	mov    	edx, ebx
  0xa45a	dec    	eax
  0xa45b	mov    	ecx, edi
  === BLOCK LINK ===
    0xa45d
=== CODE BLOCK END ===

=== CODE BLOCK ADDRESS 0xa45d ===
  0xa45d	dec    	eax
  0xa45e	call   	dword ptr [0xe04]
  === BLOCK LINK ===
    0xa464
=== CODE BLOCK END ===

=== CODE BLOCK ADDRESS 0xa464 ===
  0xa464	nop    	dword ptr [eax + eax]
  0xa469	dec    	eax
  0xa46a	mov    	ecx, ebx
  0xa46c	dec    	eax
  0xa46d	call   	dword ptr [0xe35]
  === BLOCK LINK ===
    0xa473
=== CODE BLOCK END ===

=== CODE BLOCK ADDRESS 0xa473 ===
  0xa473	nop    	dword ptr [eax + eax]
  0xa478	dec    	eax
  0xa479	mov    	ebx, dword ptr [esp + 0x50]
  0xa47d	dec    	eax
  0xa47e	mov    	esi, dword ptr [esp + 0x58]
  === BLOCK LINK ===
    0xa482
=== CODE BLOCK END ===

=== CODE BLOCK ADDRESS 0xa482 ===
  0xa482	dec    	eax
  0xa483	add    	esp, 0x40
  0xa486	pop    	edi
  0xa487	ret    	
  0xa488	int3   	
  === BLOCK LINK ===
    0xa489
=== CODE BLOCK END ===

=== CODE BLOCK ADDRESS 0x3918 ===
  0x3918	dec    	eax
  0x3919	call   	dword ptr [0x7939]
  === BLOCK LINK ===
    0x391f
=== CODE BLOCK END ===

=== CODE BLOCK ADDRESS 0xa489 ===
  0xa489	int3   	
  0xa48a	int3   	
  0xa48b	int3   	
  0xa48c	int3   	
  0xa48d	int3   	
  === BLOCK LINK ===
    0xa48e
=== CODE BLOCK END ===

=== CODE BLOCK ADDRESS 0xa48e ===
  0xa48e	int3   	
  0xa48f	int3   	
  0xa490	dec    	eax
  0xa491	mov    	dword ptr [esp + 0x18], ebx
  0xa495	dec    	eax
  === BLOCK LINK ===
    0xa496
=== CODE BLOCK END ===

=== CODE BLOCK ADDRESS 0xa496 ===
  0xa496	mov    	dword ptr [esp + 0x20], esi
  0xa49a	push   	edi
  0xa49b	dec    	eax
  0xa49c	sub    	esp, 0x40
  0xa49f	dec    	eax
  === BLOCK LINK ===
    0xa4a0
=== CODE BLOCK END ===

=== CODE BLOCK ADDRESS 0xa4a0 ===
  0xa4a0	mov    	eax, dword ptr [0x3de2]
  0xa4a6	dec    	eax
  0xa4a7	xor    	eax, esp
  0xa4a9	dec    	eax
  0xa4aa	mov    	dword ptr [esp + 0x38], eax
  === BLOCK LINK ===
    0xa4ae
=== CODE BLOCK END ===

=== CODE BLOCK ADDRESS 0xa4ae ===
  0xa4ae	mov    	ebx, ecx
  0xa4b0	dec    	eax
  0xa4b1	mov    	esi, edx
  0xa4b3	mov    	ecx, 0xfffffff5
  0xa4b8	dec    	eax
  === BLOCK LINK ===
    0xa4b9
=== CODE BLOCK END ===

=== CODE BLOCK ADDRESS 0xa4b9 ===
  0xa4b9	call   	dword ptr [0xe51]
  === BLOCK LINK ===
    0xa4bf
=== CODE BLOCK END ===

=== CODE BLOCK ADDRESS 0xa4bf ===
  0xa4bf	nop    	dword ptr [eax + eax]
  0xa4c4	dec    	eax
  0xa4c5	cmp    	eax, -1
  0xa4c8	je     	0xa530
  === BLOCK LINK ===
    0xa4ca
=== CODE BLOCK END ===

=== CODE BLOCK ADDRESS 0xa4ca ===
  0xa4ca	dec    	eax
  0xa4cb	lea    	edx, [esp + 0x20]
  0xa4cf	dec    	eax
  0xa4d0	mov    	ecx, eax
  0xa4d2	mov    	edi, 0x7fffffff
  === BLOCK LINK ===
    0xa4d7
=== CODE BLOCK END ===

=== CODE BLOCK ADDRESS 0xa4d7 ===
  0xa4d7	dec    	eax
  0xa4d8	call   	dword ptr [0xd32]
  === BLOCK LINK ===
    0xa4de
=== CODE BLOCK END ===

=== CODE BLOCK ADDRESS 0xa4de ===
  0xa4de	nop    	dword ptr [eax + eax]
  0xa4e3	movsx  	ecx, word ptr [esp + 0x24]
  0xa4e8	test   	eax, eax
  0xa4ea	je     	0xa4f3
  === BLOCK LINK ===
    0xa4ec
=== CODE BLOCK END ===

=== CODE BLOCK ADDRESS 0xa4ec ===
  0xa4ec	movsx  	edi, word ptr [esp + 0x20]
  0xa4f1	sub    	edi, ecx
  0xa4f3	cmp    	ebx, edi
  0xa4f5	jle    	0xa508
  === BLOCK LINK ===
    0xa4f7
=== CODE BLOCK END ===

=== CODE BLOCK ADDRESS 0xa4f7 ===
  0xa4f7	test   	cx, cx
  0xa4fa	je     	0xa508
  === BLOCK LINK ===
    0xa4fc
=== CODE BLOCK END ===

=== CODE BLOCK ADDRESS 0xa4fc ===
  0xa4fc	dec    	eax
  0xa4fd	lea    	ecx, [0x1b35]
  0xa503	call   	0x86c8
  === BLOCK LINK ===
    0xa508
=== CODE BLOCK END ===

=== CODE BLOCK ADDRESS 0xa508 ===
  0xa508	inc    	ecx
  0xa509	mov    	ecx, 0x1000
  0xa50e	dec    	esp
  0xa50f	lea    	eax, [0x4e4b]
  0xa515	dec    	eax
  === BLOCK LINK ===
    0xa516
=== CODE BLOCK END ===

=== CODE BLOCK ADDRESS 0xa516 ===
  0xa516	mov    	edx, esi
  0xa518	mov    	ecx, ebx
  0xa51a	call   	0x8438
  === BLOCK LINK ===
    0xa51f
=== CODE BLOCK END ===

=== CODE BLOCK ADDRESS 0xa51f ===
  0xa51f	dec    	eax
  0xa520	mov    	edx, eax
  0xa522	dec    	eax
  0xa523	lea    	ecx, [0x1b17]
  0xa529	call   	0x86c8
  === BLOCK LINK ===
    0xa52e
=== CODE BLOCK END ===

=== CODE BLOCK ADDRESS 0xa52e ===
  0xa52e	jmp    	0xa533
  === BLOCK LINK ===
    0xa530
=== CODE BLOCK END ===

=== CODE BLOCK ADDRESS 0xa530 ===
  0xa530	or     	ebx, 0xffffffff
  0xa533	mov    	eax, ebx
  0xa535	dec    	eax
  0xa536	mov    	ecx, dword ptr [esp + 0x38]
  0xa53a	dec    	eax
  === BLOCK LINK ===
    0xa53b
=== CODE BLOCK END ===

=== CODE BLOCK ADDRESS 0xa53b ===
  0xa53b	xor    	ecx, esp
  0xa53d	call   	0x2900
  === BLOCK LINK ===
    0xa542
=== CODE BLOCK END ===

=== CODE BLOCK ADDRESS 0xa542 ===
  0xa542	dec    	eax
  0xa543	mov    	ebx, dword ptr [esp + 0x60]
  0xa547	dec    	eax
  0xa548	mov    	esi, dword ptr [esp + 0x68]
  0xa54c	dec    	eax
  === BLOCK LINK ===
    0xa54d
=== CODE BLOCK END ===

=== CODE BLOCK ADDRESS 0xa54d ===
  0xa54d	add    	esp, 0x40
  0xa550	pop    	edi
  0xa551	ret    	
  0xa552	int3   	
  0xa553	int3   	
  === BLOCK LINK ===
    0xa554
=== CODE BLOCK END ===

=== CODE BLOCK ADDRESS 0x19a4 ===
  0x19a4	dec    	eax
  0x19a5	mov    	edx, dword ptr [esp + 0x128]
  0x19ac	dec    	eax
  0x19ad	lea    	eax, [esp + 0x50]
  === BLOCK LINK ===
    0x19b1
=== CODE BLOCK END ===

=== CODE BLOCK ADDRESS 0xa554 ===
  0xa554	int3   	
  0xa555	int3   	
  0xa556	int3   	
  0xa557	int3   	
  0xa558	int3   	
  === BLOCK LINK ===
    0xa559
=== CODE BLOCK END ===

=== CODE BLOCK ADDRESS 0xa559 ===
  0xa559	int3   	
  0xa55a	int3   	
  0xa55b	int3   	
  0xa55c	dec    	eax
  0xa55d	mov    	dword ptr [esp + 0x10], ebx
  === BLOCK LINK ===
    0xa561
=== CODE BLOCK END ===

=== CODE BLOCK ADDRESS 0xa561 ===
  0xa561	dec    	eax
  0xa562	mov    	dword ptr [esp + 0x18], ebp
  0xa566	dec    	eax
  0xa567	mov    	dword ptr [esp + 8], ecx
  0xa56b	push   	esi
  === BLOCK LINK ===
    0xa56c
=== CODE BLOCK END ===

=== CODE BLOCK ADDRESS 0xa56c ===
  0xa56c	push   	edi
  0xa56d	inc    	ecx
  0xa56e	push   	esi
  0xa56f	dec    	eax
  0xa570	sub    	esp, 0x50
  === BLOCK LINK ===
    0xa573
=== CODE BLOCK END ===

=== CODE BLOCK ADDRESS 0xa573 ===
  0xa573	dec    	ebp
  0xa574	mov    	esi, ecx
  0xa576	dec    	ecx
  0xa577	mov    	edi, eax
  0xa579	mov    	ebp, edx
  === BLOCK LINK ===
    0xa57b
=== CODE BLOCK END ===

=== CODE BLOCK ADDRESS 0xa57b ===
  0xa57b	call   	0x30a8
  === BLOCK LINK ===
    0xa580
=== CODE BLOCK END ===

=== CODE BLOCK ADDRESS 0xa580 ===
  0xa580	xor    	ebx, ebx
  0xa582	test   	al, al
  0xa584	je     	0xa5cd
  === BLOCK LINK ===
    0xa586
=== CODE BLOCK END ===

=== CODE BLOCK ADDRESS 0xa586 ===
  0xa586	dec    	eax
  0xa587	mov    	eax, dword ptr [esp + 0x98]
  0xa58e	inc    	ecx
  0xa58f	or     	ecx, 0xffffffff
  0xa592	dec    	eax
  === BLOCK LINK ===
    0xa593
=== CODE BLOCK END ===

=== CODE BLOCK ADDRESS 0xa593 ===
  0xa593	mov    	dword ptr [esp + 0x40], ebx
  0xa597	dec    	esp
  0xa598	mov    	eax, edi
  0xa59a	dec    	eax
  0xa59b	mov    	dword ptr [esp + 0x38], eax
  === BLOCK LINK ===
    0xa59f
=== CODE BLOCK END ===

=== CODE BLOCK ADDRESS 0xa59f ===
  0xa59f	mov    	edx, ebp
  0xa5a1	mov    	eax, dword ptr [esp + 0x90]
  0xa5a8	xor    	ecx, ecx
  0xa5aa	mov    	dword ptr [esp + 0x30], eax
  0xa5ae	dec    	eax
  === BLOCK LINK ===
    0xa5af
=== CODE BLOCK END ===

=== CODE BLOCK ADDRESS 0xa5af ===
  0xa5af	lea    	eax, [esp + 0x70]
  0xa5b3	dec    	eax
  0xa5b4	mov    	dword ptr [esp + 0x28], eax
  0xa5b8	dec    	esp
  0xa5b9	mov    	dword ptr [esp + 0x20], esi
  === BLOCK LINK ===
    0xa5bd
=== CODE BLOCK END ===

=== CODE BLOCK ADDRESS 0xa5bd ===
  0xa5bd	dec    	eax
  0xa5be	call   	dword ptr [0x10a4c]
  === BLOCK LINK ===
    0xa5c4
=== CODE BLOCK END ===

=== CODE BLOCK ADDRESS 0xa5c4 ===
  0xa5c4	nop    	dword ptr [eax + eax]
  0xa5c9	mov    	esi, eax
  0xa5cb	jmp    	0xa5d2
  === BLOCK LINK ===
    0xa5cd
=== CODE BLOCK END ===

=== CODE BLOCK ADDRESS 0xa5cd ===
  0xa5cd	mov    	esi, 0x32
  0xa5d2	test   	esi, esi
  0xa5d4	je     	0xa5de
  === BLOCK LINK ===
    0xa5d6
=== CODE BLOCK END ===

=== CODE BLOCK ADDRESS 0xa5d6 ===
  0xa5d6	cmp    	esi, 0xea
  0xa5dc	jne    	0xa62f
  === BLOCK LINK ===
    0xa5de
=== CODE BLOCK END ===

=== CODE BLOCK ADDRESS 0xa5de ===
  0xa5de	dec    	eax
  0xa5df	mov    	edi, dword ptr [edi]
  0xa5e1	cmp    	ebp, 0x64
  0xa5e4	jne    	0xa606
  === BLOCK LINK ===
    0xa5e6
=== CODE BLOCK END ===

=== CODE BLOCK ADDRESS 0xa5e6 ===
  0xa5e6	inc    	ecx
  0xa5e7	cmp    	dword ptr [esi], ebx
  0xa5e9	jbe    	0xa62f
  === BLOCK LINK ===
    0xa5eb
=== CODE BLOCK END ===

=== CODE BLOCK ADDRESS 0xa5eb ===
  0xa5eb	dec    	eax
  0xa5ec	lea    	ecx, [edi + 8]
  0xa5ef	dec    	eax
  0xa5f0	mov    	eax, dword ptr [ecx]
  0xa5f2	inc    	ebx
  === BLOCK LINK ===
    0xa5f4
=== CODE BLOCK END ===

=== CODE BLOCK ADDRESS 0xa5f4 ===
  0xa5f4	dec    	eax
  0xa5f5	mov    	dword ptr [edi], eax
  0xa5f7	dec    	eax
  0xa5f8	lea    	ecx, [ecx + 0x10]
  0xa5fb	dec    	eax
  === BLOCK LINK ===
    0xa5fc
=== CODE BLOCK END ===

=== CODE BLOCK ADDRESS 0xa5fc ===
  0xa5fc	lea    	edi, [edi + 8]
  0xa5ff	inc    	ecx
  0xa600	cmp    	ebx, dword ptr [esi]
  0xa602	jb     	0xa5ef
  === BLOCK LINK ===
    0xa604
=== CODE BLOCK END ===

=== CODE BLOCK ADDRESS 0xa604 ===
  0xa604	jmp    	0xa62f
  === BLOCK LINK ===
    0xa606
=== CODE BLOCK END ===

=== CODE BLOCK ADDRESS 0xa606 ===
  0xa606	inc    	ecx
  0xa607	cmp    	dword ptr [esi], ebx
  0xa609	jbe    	0xa62f
  === BLOCK LINK ===
    0xa60b
=== CODE BLOCK END ===

=== CODE BLOCK ADDRESS 0xa60b ===
  0xa60b	dec    	eax
  0xa60c	lea    	ebp, [edi + 8]
  0xa60f	inc    	ecx
  0xa610	mov    	eax, 0x20
  0xa615	dec    	eax
  === BLOCK LINK ===
    0xa616
=== CODE BLOCK END ===

=== CODE BLOCK ADDRESS 0xa616 ===
  0xa616	mov    	edx, ebp
  0xa618	dec    	eax
  0xa619	mov    	ecx, edi
  0xa61b	call   	0x320e
  === BLOCK LINK ===
    0xa620
=== CODE BLOCK END ===

=== CODE BLOCK ADDRESS 0xa620 ===
  0xa620	inc    	ebx
  0xa622	dec    	eax
  0xa623	add    	ebp, 0x28
  0xa626	dec    	eax
  0xa627	add    	edi, 0x20
  === BLOCK LINK ===
    0xa62a
=== CODE BLOCK END ===

=== CODE BLOCK ADDRESS 0xa62a ===
  0xa62a	inc    	ecx
  0xa62b	cmp    	ebx, dword ptr [esi]
  0xa62d	jb     	0xa60f
  === BLOCK LINK ===
    0xa62f
=== CODE BLOCK END ===

=== CODE BLOCK ADDRESS 0xa62f ===
  0xa62f	dec    	esp
  0xa630	lea    	ebx, [esp + 0x50]
  0xa634	mov    	eax, esi
  0xa636	dec    	ecx
  0xa637	mov    	ebx, dword ptr [ebx + 0x28]
  === BLOCK LINK ===
    0xa63a
=== CODE BLOCK END ===

=== CODE BLOCK ADDRESS 0xa63a ===
  0xa63a	dec    	ecx
  0xa63b	mov    	ebp, dword ptr [ebx + 0x30]
  0xa63e	dec    	ecx
  0xa63f	mov    	esp, ebx
  0xa641	inc    	ecx
  === BLOCK LINK ===
    0xa642
=== CODE BLOCK END ===

=== CODE BLOCK ADDRESS 0xa642 ===
  0xa642	pop    	esi
  0xa643	pop    	edi
  0xa644	pop    	esi
  0xa645	ret    	
  0xa646	int3   	
  === BLOCK LINK ===
    0xa647
=== CODE BLOCK END ===

=== CODE BLOCK ADDRESS 0x3938 ===
  0x3938	dec    	eax
  0x3939	call   	dword ptr [0x7919]
  === BLOCK LINK ===
    0x393f
=== CODE BLOCK END ===

=== CODE BLOCK ADDRESS 0xa647 ===
  0xa647	int3   	
  0xa648	int3   	
  0xa649	int3   	
  0xa64a	int3   	
  0xa64b	int3   	
  === BLOCK LINK ===
    0xa64c
=== CODE BLOCK END ===

=== CODE BLOCK ADDRESS 0xa64c ===
  0xa64c	int3   	
  0xa64d	int3   	
  0xa64e	int3   	
  0xa64f	int3   	
  0xa650	dec    	eax
  === BLOCK LINK ===
    0xa651
=== CODE BLOCK END ===

=== CODE BLOCK ADDRESS 0xa651 ===
  0xa651	mov    	dword ptr [esp + 8], ebx
  0xa655	dec    	eax
  0xa656	mov    	dword ptr [esp + 0x10], ebp
  0xa65a	inc    	esp
  0xa65b	mov    	dword ptr [esp + 0x18], eax
  === BLOCK LINK ===
    0xa65f
=== CODE BLOCK END ===

=== CODE BLOCK ADDRESS 0xa65f ===
  0xa65f	push   	esi
  0xa660	push   	edi
  0xa661	inc    	ecx
  0xa662	push   	esp
  0xa663	inc    	ecx
  === BLOCK LINK ===
    0xa664
=== CODE BLOCK END ===

=== CODE BLOCK ADDRESS 0xa664 ===
  0xa664	push   	esi
  0xa665	inc    	ecx
  0xa666	push   	edi
  0xa667	dec    	eax
  0xa668	sub    	esp, 0x30
  === BLOCK LINK ===
    0xa66b
=== CODE BLOCK END ===

=== CODE BLOCK ADDRESS 0xa66b ===
  0xa66b	inc    	ecx
  0xa66c	and    	dword ptr [ecx], 0
  0xa66f	dec    	ecx
  0xa670	mov    	ebx, ecx
  0xa672	mov    	eax, dword ptr [0x3f38]
  === BLOCK LINK ===
    0xa678
=== CODE BLOCK END ===

=== CODE BLOCK ADDRESS 0xa678 ===
  0xa678	dec    	eax
  0xa679	mov    	edi, ecx
  0xa67b	mov    	esi, 0x80
  0xa680	test   	eax, eax
  0xa682	je     	0xa70b
  === BLOCK LINK ===
    0xa688
=== CODE BLOCK END ===

=== CODE BLOCK ADDRESS 0xa688 ===
  0xa688	xor    	ebp, ebp
  0xa68a	inc    	esp
  0xa68b	lea    	esi, [esi - 0x7e]
  0xa68e	inc    	ebp
  0xa68f	xor    	edi, edi
  === BLOCK LINK ===
    0xa691
=== CODE BLOCK END ===

=== CODE BLOCK ADDRESS 0xa691 ===
  0xa691	dec    	esp
  0xa692	lea    	esp, [0xffff5968]
  0xa698	dec    	eax
  0xa699	lea    	ecx, [esp + 0x70]
  0xa69d	inc    	esp
  === BLOCK LINK ===
    0xa69e
=== CODE BLOCK END ===

=== CODE BLOCK ADDRESS 0xa69e ===
  0xa69e	mov    	ecx, esi
  0xa6a0	dec    	eax
  0xa6a1	mov    	dword ptr [esp + 0x28], ecx
  0xa6a5	dec    	esp
  0xa6a6	mov    	eax, edi
  === BLOCK LINK ===
    0xa6a8
=== CODE BLOCK END ===

=== CODE BLOCK ADDRESS 0xa6a8 ===
  0xa6a8	xor    	ecx, ecx
  0xa6aa	mov    	dword ptr [esp + 0x20], eax
  0xa6ae	xor    	edx, edx
  0xa6b0	call   	0xa798
  === BLOCK LINK ===
    0xa6b5
=== CODE BLOCK END ===

=== CODE BLOCK ADDRESS 0xa6b5 ===
  0xa6b5	test   	eax, eax
  0xa6b7	jne    	0xa70d
  === BLOCK LINK ===
    0xa6b9
=== CODE BLOCK END ===

=== CODE BLOCK ADDRESS 0xa6b9 ===
  0xa6b9	inc    	ebx
  0xa6ba	mov    	eax, dword ptr [edi + 0xe5b4]
  0xa6c1	dec    	eax
  0xa6c2	inc    	ebp
  0xa6c4	mov    	edx, dword ptr [esp + 0x70]
  === BLOCK LINK ===
    0xa6c8
=== CODE BLOCK END ===

=== CODE BLOCK ADDRESS 0xa6c8 ===
  0xa6c8	dec    	esp
  0xa6c9	mov    	edi, ebp
  0xa6cb	inc    	ecx
  0xa6cc	mov    	ecx, esi
  0xa6ce	inc    	ecx
  === BLOCK LINK ===
    0xa6cf
=== CODE BLOCK END ===

=== CODE BLOCK ADDRESS 0xa6cf ===
  0xa6cf	inc    	esi
  0xa6d1	dec    	eax
  0xa6d2	add    	ecx, ecx
  0xa6d4	dec    	ecx
  0xa6d5	shl    	edi, 3
  === BLOCK LINK ===
    0xa6d8
=== CODE BLOCK END ===

=== CODE BLOCK ADDRESS 0xa6d8 ===
  0xa6d8	inc    	ecx
  0xa6d9	mov    	dword ptr [esp + ecx*8 + 0xe1f8], eax
  0xa6e0	lea    	eax, [edx + 1]
  0xa6e3	dec    	ecx
  0xa6e4	mov    	dword ptr [esp + ecx*8 + 0xe1f0], edi
  === BLOCK LINK ===
    0xa6eb
=== CODE BLOCK END ===

=== CODE BLOCK ADDRESS 0xa6eb ===
  0xa6eb	dec    	eax
  0xa6ec	lea    	edi, [edi + eax*2]
  0xa6ef	or     	eax, 0xffffffff
  0xa6f2	sub    	eax, edx
  0xa6f4	add    	esi, eax
  === BLOCK LINK ===
    0xa6f6
=== CODE BLOCK END ===

=== CODE BLOCK ADDRESS 0xa6f6 ===
  0xa6f6	lea    	eax, [edx*2 + 2]
  0xa6fd	add    	dword ptr [ebx], eax
  0xa6ff	inc    	ebx
  0xa700	mov    	eax, dword ptr [edi + 0xe5b0]
  0xa707	test   	eax, eax
  === BLOCK LINK ===
    0xa709
=== CODE BLOCK END ===

=== CODE BLOCK ADDRESS 0xa709 ===
  0xa709	jne    	0xa698
  === BLOCK LINK ===
    0xa70b
=== CODE BLOCK END ===

=== CODE BLOCK ADDRESS 0xa70b ===
  0xa70b	xor    	eax, eax
  0xa70d	dec    	eax
  0xa70e	mov    	ebx, dword ptr [esp + 0x60]
  0xa712	dec    	eax
  0xa713	mov    	ebp, dword ptr [esp + 0x68]
  === BLOCK LINK ===
    0xa717
=== CODE BLOCK END ===

=== CODE BLOCK ADDRESS 0xa717 ===
  0xa717	dec    	eax
  0xa718	add    	esp, 0x30
  0xa71b	inc    	ecx
  0xa71c	pop    	edi
  0xa71d	inc    	ecx
  === BLOCK LINK ===
    0xa71e
=== CODE BLOCK END ===

=== CODE BLOCK ADDRESS 0xa71e ===
  0xa71e	pop    	esi
  0xa71f	inc    	ecx
  0xa720	pop    	esp
  0xa721	pop    	edi
  0xa722	pop    	esi
  === BLOCK LINK ===
    0xa723
=== CODE BLOCK END ===

=== CODE BLOCK ADDRESS 0xa723 ===
  0xa723	ret    	
  0xa724	int3   	
  0xa725	int3   	
  0xa726	int3   	
  0xa727	int3   	
  === BLOCK LINK ===
    0xa728
=== CODE BLOCK END ===

=== CODE BLOCK ADDRESS 0xa728 ===
  0xa728	int3   	
  0xa729	int3   	
  0xa72a	int3   	
  0xa72b	int3   	
  0xa72c	dec    	eax
  === BLOCK LINK ===
    0xa72d
=== CODE BLOCK END ===

=== CODE BLOCK ADDRESS 0xa72d ===
  0xa72d	mov    	dword ptr [esp + 8], ebx
  0xa731	dec    	eax
  0xa732	mov    	dword ptr [esp + 0x10], esi
  0xa736	push   	edi
  0xa737	dec    	eax
  === BLOCK LINK ===
    0xa738
=== CODE BLOCK END ===

=== CODE BLOCK ADDRESS 0xa738 ===
  0xa738	sub    	esp, 0x20
  0xa73b	dec    	eax
  0xa73c	mov    	eax, dword ptr [0x3aae]
  0xa742	dec    	eax
  0xa743	lea    	ebx, [0x3aa7]
  === BLOCK LINK ===
    0xa749
=== CODE BLOCK END ===

=== CODE BLOCK ADDRESS 0xa749 ===
  0xa749	dec    	ecx
  0xa74a	mov    	edi, eax
  0xa74c	dec    	eax
  0xa74d	mov    	esi, ecx
  0xa74f	jmp    	0xa76e
  === BLOCK LINK ===
    0xa751
=== CODE BLOCK END ===

=== CODE BLOCK ADDRESS 0xa751 ===
  0xa751	dec    	eax
  0xa752	mov    	edx, eax
  0xa754	dec    	eax
  0xa755	mov    	ecx, esi
  0xa757	dec    	eax
  === BLOCK LINK ===
    0xa758
=== CODE BLOCK END ===

=== CODE BLOCK ADDRESS 0xa758 ===
  0xa758	call   	dword ptr [0xcda]
  === BLOCK LINK ===
    0xa75e
=== CODE BLOCK END ===

=== CODE BLOCK ADDRESS 0xa75e ===
  0xa75e	nop    	dword ptr [eax + eax]
  0xa763	test   	eax, eax
  0xa765	je     	0xa787
  === BLOCK LINK ===
    0xa767
=== CODE BLOCK END ===

=== CODE BLOCK ADDRESS 0xa767 ===
  0xa767	dec    	eax
  0xa768	add    	ebx, 0x10
  0xa76b	dec    	eax
  0xa76c	mov    	eax, dword ptr [ebx]
  0xa76e	dec    	eax
  === BLOCK LINK ===
    0xa76f
=== CODE BLOCK END ===

=== CODE BLOCK ADDRESS 0xa76f ===
  0xa76f	test   	eax, eax
  0xa771	jne    	0xa751
  === BLOCK LINK ===
    0xa773
=== CODE BLOCK END ===

=== CODE BLOCK ADDRESS 0xa773 ===
  0xa773	or     	eax, 0xffffffff
  0xa776	dec    	eax
  0xa777	mov    	ebx, dword ptr [esp + 0x30]
  0xa77b	dec    	eax
  0xa77c	mov    	esi, dword ptr [esp + 0x38]
  === BLOCK LINK ===
    0xa780
=== CODE BLOCK END ===

=== CODE BLOCK ADDRESS 0xa780 ===
  0xa780	dec    	eax
  0xa781	add    	esp, 0x20
  0xa784	pop    	edi
  0xa785	ret    	
  0xa786	int3   	
  === BLOCK LINK ===
    0xa787
=== CODE BLOCK END ===

=== CODE BLOCK ADDRESS 0xa787 ===
  0xa787	mov    	eax, dword ptr [ebx + 8]
  0xa78a	mov    	dword ptr [edi], eax
  0xa78c	xor    	eax, eax
  0xa78e	jmp    	0xa776
  === BLOCK LINK ===
    0xa790
=== CODE BLOCK END ===

=== CODE BLOCK ADDRESS 0xa790 ===
  0xa790	int3   	
  0xa791	int3   	
  0xa792	int3   	
  0xa793	int3   	
  0xa794	int3   	
  === BLOCK LINK ===
    0xa795
=== CODE BLOCK END ===

=== CODE BLOCK ADDRESS 0xa795 ===
  0xa795	int3   	
  0xa796	int3   	
  0xa797	int3   	
  0xa798	dec    	eax
  0xa799	mov    	eax, esp
  === BLOCK LINK ===
    0xa79b
=== CODE BLOCK END ===

=== CODE BLOCK ADDRESS 0xa79b ===
  0xa79b	dec    	eax
  0xa79c	mov    	dword ptr [eax + 8], ebx
  0xa79f	dec    	eax
  0xa7a0	mov    	dword ptr [eax + 0x10], ebp
  0xa7a3	dec    	eax
  === BLOCK LINK ===
    0xa7a4
=== CODE BLOCK END ===

=== CODE BLOCK ADDRESS 0xa7a4 ===
  0xa7a4	mov    	dword ptr [eax + 0x18], esi
  0xa7a7	push   	edi
  0xa7a8	inc    	ecx
  0xa7a9	push   	esp
  0xa7aa	inc    	ecx
  === BLOCK LINK ===
    0xa7ab
=== CODE BLOCK END ===

=== CODE BLOCK ADDRESS 0xa7ab ===
  0xa7ab	push   	ebp
  0xa7ac	inc    	ecx
  0xa7ad	push   	esi
  0xa7ae	inc    	ecx
  0xa7af	push   	edi
  === BLOCK LINK ===
    0xa7b0
=== CODE BLOCK END ===

=== CODE BLOCK ADDRESS 0xa7b0 ===
  0xa7b0	dec    	eax
  0xa7b1	sub    	esp, 0x40
  0xa7b4	inc    	ebp
  0xa7b5	xor    	edi, edi
  0xa7b7	dec    	esp
  === BLOCK LINK ===
    0xa7b8
=== CODE BLOCK END ===

=== CODE BLOCK ADDRESS 0xa7b8 ===
  0xa7b8	lea    	ebp, [0xec22]
  0xa7be	inc    	bp
  0xa7c0	mov    	dword ptr [eax], edi
  0xa7c2	inc    	ecx
  0xa7c3	mov    	ebx, ecx
  === BLOCK LINK ===
    0xa7c5
=== CODE BLOCK END ===

=== CODE BLOCK ADDRESS 0xa7c5 ===
  0xa7c5	inc    	sp
  0xa7c7	cmp    	dword ptr [0xec13], edi
  0xa7cd	dec    	ecx
  0xa7ce	mov    	edi, eax
  0xa7d0	mov    	esi, edx
  === BLOCK LINK ===
    0xa7d2
=== CODE BLOCK END ===

=== CODE BLOCK ADDRESS 0xa7d2 ===
  0xa7d2	inc    	esp
  0xa7d3	mov    	dword ptr [eax + 0x20], edi
  0xa7d6	dec    	eax
  0xa7d7	mov    	ebp, ecx
  0xa7d9	inc    	ecx
  === BLOCK LINK ===
    0xa7da
=== CODE BLOCK END ===

=== CODE BLOCK ADDRESS 0xa7da ===
  0xa7da	mov    	esi, 0x101
  0xa7df	jne    	0xa7fa
  === BLOCK LINK ===
    0xa7e1
=== CODE BLOCK END ===

=== CODE BLOCK ADDRESS 0xa7e1 ===
  0xa7e1	dec    	esp
  0xa7e2	lea    	eax, [0xed0]
  0xa7e8	inc    	ecx
  0xa7e9	mov    	edx, esi
  0xa7eb	dec    	ecx
  === BLOCK LINK ===
    0xa7ec
=== CODE BLOCK END ===

=== CODE BLOCK ADDRESS 0xa7ec ===
  0xa7ec	mov    	ecx, ebp
  0xa7ee	dec    	eax
  0xa7ef	call   	dword ptr [0xd4b]
  === BLOCK LINK ===
    0xa7f5
=== CODE BLOCK END ===

=== CODE BLOCK ADDRESS 0xa7f5 ===
  0xa7f5	nop    	dword ptr [eax + eax]
  0xa7fa	inc    	sp
  0xa7fc	cmp    	dword ptr [0xedee], edi
  0xa802	dec    	esp
  0xa803	lea    	esp, [0xede7]
  === BLOCK LINK ===
    0xa809
=== CODE BLOCK END ===

=== CODE BLOCK ADDRESS 0xa809 ===
  0xa809	jne    	0xa824
  === BLOCK LINK ===
    0xa80b
=== CODE BLOCK END ===

=== CODE BLOCK ADDRESS 0xa80b ===
  0xa80b	dec    	esp
  0xa80c	lea    	eax, [0x1196]
  0xa812	dec    	ecx
  0xa813	mov    	edx, esi
  0xa815	dec    	ecx
  === BLOCK LINK ===
    0xa816
=== CODE BLOCK END ===

=== CODE BLOCK ADDRESS 0xa816 ===
  0xa816	mov    	ecx, esp
  0xa818	dec    	eax
  0xa819	call   	dword ptr [0xd21]
  === BLOCK LINK ===
    0xa81f
=== CODE BLOCK END ===

=== CODE BLOCK ADDRESS 0xa81f ===
  0xa81f	nop    	dword ptr [eax + eax]
  0xa824	inc    	esp
  0xa825	mov    	esi, dword ptr [esp + 0x90]
  0xa82c	dec    	eax
  0xa82d	lea    	eax, [esp + 0x88]
  === BLOCK LINK ===
    0xa834
=== CODE BLOCK END ===

=== CODE BLOCK ADDRESS 0xa834 ===
  0xa834	dec    	eax
  0xa835	mov    	dword ptr [esp + 0x30], eax
  0xa839	dec    	ebx
  0xa83b	dec    	esp
  0xa83c	mov    	dword ptr [esp + 0x28], ebp
  === BLOCK LINK ===
    0xa840
=== CODE BLOCK END ===

=== CODE BLOCK ADDRESS 0xa840 ===
  0xa840	inc    	esp
  0xa841	mov    	ecx, ebx
  0xa843	dec    	esp
  0xa844	mov    	eax, edi
  0xa846	inc    	esp
  === BLOCK LINK ===
    0xa847
=== CODE BLOCK END ===

=== CODE BLOCK ADDRESS 0xa847 ===
  0xa847	mov    	dword ptr [esp + 0x20], esi
  0xa84b	mov    	edx, esi
  0xa84d	dec    	eax
  0xa84e	mov    	ecx, ebp
  0xa850	call   	0xa030
  === BLOCK LINK ===
    0xa855
=== CODE BLOCK END ===

=== CODE BLOCK ADDRESS 0xa855 ===
  0xa855	mov    	edx, eax
  0xa857	cmp    	eax, 0x13d
  0xa85c	jne    	0xa887
  === BLOCK LINK ===
    0xa85e
=== CODE BLOCK END ===

=== CODE BLOCK ADDRESS 0xa85e ===
  0xa85e	dec    	eax
  0xa85f	lea    	eax, [esp + 0x88]
  0xa866	inc    	esp
  0xa867	mov    	ecx, ebx
  0xa869	dec    	eax
  === BLOCK LINK ===
    0xa86a
=== CODE BLOCK END ===

=== CODE BLOCK ADDRESS 0xa86a ===
  0xa86a	mov    	dword ptr [esp + 0x30], eax
  0xa86e	dec    	esp
  0xa86f	mov    	eax, edi
  0xa871	dec    	esp
  0xa872	mov    	dword ptr [esp + 0x28], esp
  === BLOCK LINK ===
    0xa876
=== CODE BLOCK END ===

=== CODE BLOCK ADDRESS 0xa876 ===
  0xa876	mov    	edx, esi
  0xa878	dec    	eax
  0xa879	mov    	ecx, ebp
  0xa87b	inc    	esp
  0xa87c	mov    	dword ptr [esp + 0x20], esi
  === BLOCK LINK ===
    0xa880
=== CODE BLOCK END ===

=== CODE BLOCK ADDRESS 0xa880 ===
  0xa880	call   	0xa030
  === BLOCK LINK ===
    0xa885
=== CODE BLOCK END ===

=== CODE BLOCK ADDRESS 0xa885 ===
  0xa885	mov    	edx, eax
  0xa887	mov    	ecx, dword ptr [esp + 0x88]
  0xa88e	cmp    	ecx, ebx
  0xa890	dec    	eax
  0xa891	mov    	eax, dword ptr [esp + 0x98]
  === BLOCK LINK ===
    0xa898
=== CODE BLOCK END ===

=== CODE BLOCK ADDRESS 0xa898 ===
  0xa898	cmovb  	ebx, ecx
  0xa89b	inc    	sp
  0xa89d	mov    	dword ptr [edi + ebx*2], edi
  0xa8a0	dec    	eax
  0xa8a1	test   	eax, eax
  === BLOCK LINK ===
    0xa8a3
=== CODE BLOCK END ===

=== CODE BLOCK ADDRESS 0xa8a3 ===
  0xa8a3	je     	0xa8a7
  === BLOCK LINK ===
    0xa8a5
=== CODE BLOCK END ===

=== CODE BLOCK ADDRESS 0xa8a5 ===
  0xa8a5	mov    	dword ptr [eax], ecx
  0xa8a7	dec    	esp
  0xa8a8	lea    	ebx, [esp + 0x40]
  0xa8ac	mov    	eax, edx
  0xa8ae	dec    	ecx
  === BLOCK LINK ===
    0xa8af
=== CODE BLOCK END ===

=== CODE BLOCK ADDRESS 0xa8af ===
  0xa8af	mov    	ebx, dword ptr [ebx + 0x30]
  0xa8b2	dec    	ecx
  0xa8b3	mov    	ebp, dword ptr [ebx + 0x38]
  0xa8b6	dec    	ecx
  0xa8b7	mov    	esi, dword ptr [ebx + 0x40]
  === BLOCK LINK ===
    0xa8ba
=== CODE BLOCK END ===

=== CODE BLOCK ADDRESS 0xa8ba ===
  0xa8ba	dec    	ecx
  0xa8bb	mov    	esp, ebx
  0xa8bd	inc    	ecx
  0xa8be	pop    	edi
  0xa8bf	inc    	ecx
  === BLOCK LINK ===
    0xa8c0
=== CODE BLOCK END ===

=== CODE BLOCK ADDRESS 0xa8c0 ===
  0xa8c0	pop    	esi
  0xa8c1	inc    	ecx
  0xa8c2	pop    	ebp
  0xa8c3	inc    	ecx
  0xa8c4	pop    	esp
  === BLOCK LINK ===
    0xa8c5
=== CODE BLOCK END ===

=== CODE BLOCK ADDRESS 0xa8c5 ===
  0xa8c5	pop    	edi
  0xa8c6	ret    	
  0xa8c7	int3   	
  0xa8c8	int3   	
  0xa8c9	int3   	
  === BLOCK LINK ===
    0xa8ca
=== CODE BLOCK END ===

=== CODE BLOCK ADDRESS 0x1a90 ===
  0x1a90	cmp    	dword ptr [0x15c41], -1
  0x1a97	je     	0x1693
  === BLOCK LINK ===
    0x1a9d
=== CODE BLOCK END ===

=== CODE BLOCK ADDRESS 0xa8ca ===
  0xa8ca	int3   	
  0xa8cb	int3   	
  0xa8cc	int3   	
  0xa8cd	int3   	
  0xa8ce	int3   	
  === BLOCK LINK ===
    0xa8cf
=== CODE BLOCK END ===

=== CODE BLOCK ADDRESS 0xa8cf ===
  0xa8cf	int3   	
  0xa8d0	dec    	eax
  0xa8d1	mov    	dword ptr [esp + 8], ebx
  0xa8d5	dec    	eax
  0xa8d6	mov    	dword ptr [esp + 0x10], ebp
  === BLOCK LINK ===
    0xa8da
=== CODE BLOCK END ===

=== CODE BLOCK ADDRESS 0xa8da ===
  0xa8da	dec    	eax
  0xa8db	mov    	dword ptr [esp + 0x18], esi
  0xa8df	push   	edi
  0xa8e0	inc    	ecx
  0xa8e1	push   	esi
  === BLOCK LINK ===
    0xa8e2
=== CODE BLOCK END ===

=== CODE BLOCK ADDRESS 0xa8e2 ===
  0xa8e2	inc    	ecx
  0xa8e3	push   	edi
  0xa8e4	dec    	eax
  0xa8e5	sub    	esp, 0x20
  0xa8e8	dec    	eax
  === BLOCK LINK ===
    0xa8e9
=== CODE BLOCK END ===

=== CODE BLOCK ADDRESS 0xa8e9 ===
  0xa8e9	mov    	ebx, dword ptr [esp + 0x60]
  0xa8ed	dec    	ecx
  0xa8ee	mov    	ebp, ecx
  0xa8f0	dec    	ecx
  0xa8f1	mov    	esi, eax
  === BLOCK LINK ===
    0xa8f3
=== CODE BLOCK END ===

=== CODE BLOCK ADDRESS 0xa8f3 ===
  0xa8f3	dec    	esp
  0xa8f4	mov    	edi, edx
  0xa8f6	dec    	esp
  0xa8f7	mov    	esi, ecx
  0xa8f9	cmp    	dword ptr [ebx], -1
  === BLOCK LINK ===
    0xa8fc
=== CODE BLOCK END ===

=== CODE BLOCK ADDRESS 0xa8fc ===
  0xa8fc	je     	0xa961
  === BLOCK LINK ===
    0xa8fe
=== CODE BLOCK END ===

=== CODE BLOCK ADDRESS 0xa8fe ===
  0xa8fe	dec    	eax
  0xa8ff	mov    	edi, dword ptr [esp + 0x68]
  0xa903	inc    	esp
  0xa904	mov    	eax, dword ptr [ebx + 4]
  0xa907	dec    	esp
  === BLOCK LINK ===
    0xa908
=== CODE BLOCK END ===

=== CODE BLOCK ADDRESS 0xa908 ===
  0xa908	cmp    	eax, ebp
  0xa90a	ja     	0xa980
  === BLOCK LINK ===
    0xa90c
=== CODE BLOCK END ===

=== CODE BLOCK ADDRESS 0xa90c ===
  0xa90c	mov    	ecx, dword ptr [edi]
  0xa90e	dec    	ebp
  0xa90f	mov    	ecx, dword ptr [esi]
  0xa911	dec    	eax
  0xa912	imul   	eax, ecx, -2
  === BLOCK LINK ===
    0xa915
=== CODE BLOCK END ===

=== CODE BLOCK ADDRESS 0xa915 ===
  0xa915	dec    	ecx
  0xa916	add    	eax, ecx
  0xa918	dec    	eax
  0xa919	cmp    	eax, esi
  0xa91b	jb     	0xa980
  === BLOCK LINK ===
    0xa91d
=== CODE BLOCK END ===

=== CODE BLOCK ADDRESS 0xa91d ===
  0xa91d	test   	ecx, ecx
  0xa91f	jne    	0xa928
  === BLOCK LINK ===
    0xa921
=== CODE BLOCK END ===

=== CODE BLOCK ADDRESS 0xa921 ===
  0xa921	dec    	ecx
  0xa922	and    	dword ptr [eax + esi], 0
  0xa926	jmp    	0xa954
  === BLOCK LINK ===
    0xa928
=== CODE BLOCK END ===

=== CODE BLOCK ADDRESS 0xa928 ===
  0xa928	dec    	eax
  0xa929	lea    	eax, [ecx + ecx]
  0xa92c	dec    	esp
  0xa92d	sub    	ecx, eax
  0xa92f	dec    	ebp
  === BLOCK LINK ===
    0xa930
=== CODE BLOCK END ===

=== CODE BLOCK ADDRESS 0xa930 ===
  0xa930	mov    	dword ptr [esi], ecx
  0xa932	dec    	ecx
  0xa933	mov    	ecx, ecx
  0xa935	inc    	esp
  0xa936	mov    	eax, dword ptr [ebx]
  === BLOCK LINK ===
    0xa938
=== CODE BLOCK END ===

=== CODE BLOCK ADDRESS 0xa938 ===
  0xa938	mov    	edx, dword ptr [edi]
  0xa93a	dec    	edi
  0xa93b	mov    	eax, dword ptr [eax + edi]
  0xa93e	dec    	eax
  0xa93f	call   	dword ptr [0xbfb]
  === BLOCK LINK ===
    0xa945
=== CODE BLOCK END ===

=== CODE BLOCK ADDRESS 0xa945 ===
  0xa945	nop    	dword ptr [eax + eax]
  0xa94a	mov    	ecx, dword ptr [ebx + 4]
  0xa94d	dec    	ecx
  0xa94e	mov    	eax, dword ptr [esi]
  0xa950	dec    	eax
  === BLOCK LINK ===
    0xa951
=== CODE BLOCK END ===

=== CODE BLOCK ADDRESS 0xa951 ===
  0xa951	mov    	dword ptr [ecx + esi], eax
  0xa954	dec    	eax
  0xa955	add    	ebx, 8
  0xa958	dec    	eax
  0xa959	add    	edi, 4
  === BLOCK LINK ===
    0xa95c
=== CODE BLOCK END ===

=== CODE BLOCK ADDRESS 0xa95c ===
  0xa95c	cmp    	dword ptr [ebx], -1
  0xa95f	jne    	0xa903
  === BLOCK LINK ===
    0xa961
=== CODE BLOCK END ===

=== CODE BLOCK ADDRESS 0xa961 ===
  0xa961	mov    	eax, 1
  0xa966	dec    	eax
  0xa967	mov    	ebx, dword ptr [esp + 0x40]
  0xa96b	dec    	eax
  0xa96c	mov    	ebp, dword ptr [esp + 0x48]
  === BLOCK LINK ===
    0xa970
=== CODE BLOCK END ===

=== CODE BLOCK ADDRESS 0xa970 ===
  0xa970	dec    	eax
  0xa971	mov    	esi, dword ptr [esp + 0x50]
  0xa975	dec    	eax
  0xa976	add    	esp, 0x20
  0xa979	inc    	ecx
  === BLOCK LINK ===
    0xa97a
=== CODE BLOCK END ===

=== CODE BLOCK ADDRESS 0xa97a ===
  0xa97a	pop    	edi
  0xa97b	inc    	ecx
  0xa97c	pop    	esi
  0xa97d	pop    	edi
  0xa97e	ret    	
  === BLOCK LINK ===
    0xa97f
=== CODE BLOCK END ===

=== CODE BLOCK ADDRESS 0xa97f ===
  0xa97f	int3   	
  0xa980	xor    	eax, eax
  0xa982	jmp    	0xa966
  === BLOCK LINK ===
    0xa984
=== CODE BLOCK END ===

=== CODE BLOCK ADDRESS 0xa984 ===
  0xa984	int3   	
  0xa985	int3   	
  0xa986	int3   	
  0xa987	int3   	
  0xa988	int3   	
  === BLOCK LINK ===
    0xa989
=== CODE BLOCK END ===

=== CODE BLOCK ADDRESS 0xa989 ===
  0xa989	int3   	
  0xa98a	int3   	
  0xa98b	int3   	
  0xa98c	int3   	
  0xa98d	int3   	
  === BLOCK LINK ===
    0xa98e
=== CODE BLOCK END ===

=== CODE BLOCK ADDRESS 0xa98e ===
  0xa98e	int3   	
  0xa98f	int3   	
  0xa990	dec    	eax
  0xa991	sub    	esp, 0x38
  0xa994	mov    	eax, dword ptr [0x16b2]
  === BLOCK LINK ===
    0xa99a
=== CODE BLOCK END ===

=== CODE BLOCK ADDRESS 0xa99a ===
  0xa99a	dec    	esp
  0xa99b	mov    	ecx, dword ptr [0x87f]
  0xa9a1	dec    	esp
  0xa9a2	mov    	eax, dword ptr [0x16a8]
  0xa9a8	mov    	dword ptr [esp + 0x28], eax
  === BLOCK LINK ===
    0xa9ac
=== CODE BLOCK END ===

=== CODE BLOCK ADDRESS 0xa9ac ===
  0xa9ac	dec    	eax
  0xa9ad	mov    	dword ptr [esp + 0x20], edx
  0xa9b1	dec    	eax
  0xa9b2	mov    	edx, ecx
  0xa9b4	dec    	eax
  === BLOCK LINK ===
    0xa9b5
=== CODE BLOCK END ===

=== CODE BLOCK ADDRESS 0xa9b5 ===
  0xa9b5	lea    	ecx, [0xffff5645]
  0xa9bb	dec    	eax
  0xa9bc	call   	dword ptr [0x86e]
  === BLOCK LINK ===
    0xa9c2
=== CODE BLOCK END ===

=== CODE BLOCK ADDRESS 0xa9c2 ===
  0xa9c2	nop    	dword ptr [eax + eax]
  0xa9c7	dec    	eax
  0xa9c8	add    	esp, 0x38
  0xa9cb	ret    	
  0xa9cc	int3   	
  === BLOCK LINK ===
    0xa9cd
=== CODE BLOCK END ===

=== CODE BLOCK ADDRESS 0xa9cd ===
  0xa9cd	add    	byte ptr [eax], al
  0xa9cf	add    	byte ptr [eax], al
  0xa9d1	add    	byte ptr [eax], al
  0xa9d3	add    	byte ptr [eax], al
  0xa9d5	add    	byte ptr [eax], al
  === BLOCK LINK ===
    0xa9d7
=== CODE BLOCK END ===

=== CODE BLOCK ADDRESS 0xa9d7 ===
  0xa9d7	add    	byte ptr [eax], al
  0xa9d9	add    	byte ptr [eax], al
  0xa9db	add    	byte ptr [eax], al
  0xa9dd	add    	byte ptr [eax], al
  0xa9df	add    	byte ptr [eax], al
  === BLOCK LINK ===
    0xa9e1
=== CODE BLOCK END ===

=== CODE BLOCK ADDRESS 0xa9e1 ===
  0xa9e1	add    	byte ptr [eax], al
  0xa9e3	add    	byte ptr [eax], al
  0xa9e5	add    	byte ptr [eax], al
  0xa9e7	add    	byte ptr [eax], al
  0xa9e9	add    	byte ptr [eax], al
  === BLOCK LINK ===
    0xa9eb
=== CODE BLOCK END ===

=== CODE BLOCK ADDRESS 0xa9eb ===
  0xa9eb	add    	byte ptr [eax], al
  0xa9ed	add    	byte ptr [eax], al
  0xa9ef	add    	byte ptr [eax], al
  0xa9f1	add    	byte ptr [eax], al
  0xa9f3	add    	byte ptr [eax], al
  === BLOCK LINK ===
    0xa9f5
=== CODE BLOCK END ===

=== CODE BLOCK ADDRESS 0xa9f5 ===
  0xa9f5	add    	byte ptr [eax], al
  0xa9f7	add    	byte ptr [eax], al
  0xa9f9	add    	byte ptr [eax], al
  0xa9fb	add    	byte ptr [eax], al
  0xa9fd	add    	byte ptr [eax], al
  === BLOCK LINK ===
    0xa9ff
=== CODE BLOCK END ===

=== CODE BLOCK ADDRESS 0xa9ff ===
=== CODE BLOCK END ===

=== DATA BLOCK ADDRESS 0xb000 ===
  0xb000	70 e6 00 40 01 00 00 00 10 e7 00 40 01 00 00 00 	p00@0000000@0000
  0xb010	42 00 44 00 00 00 00 00 20 b8 00 40 01 00 00 00 	B0D00000 00@0000
  0xb020	42 00 44 00 00 00 00 00 70 b8 00 40 01 00 00 00 	B0D00000p00@0000
  0xb030	50 00 52 00 00 00 00 00 20 b9 00 40 01 00 00 00 	P0R00000 00@0000
  0xb040	18 01 00 00 00 00 00 00 00 00 00 00 00 00 00 00 	0000000000000000
  0xb050	00 00 00 00 00 00 00 00 00 00 00 00 00 00 00 00 	0000000000000000
  0xb060	00 00 00 00 00 00 00 00 00 00 00 00 00 00 00 00 	0000000000000000
  0xb070	00 00 00 00 00 00 00 00 00 00 00 00 00 00 00 00 	0000000000000000
  0xb080	00 00 00 00 00 00 00 00 00 00 00 00 00 00 00 00 	0000000000000000
  0xb090	00 00 00 00 00 00 00 00 88 e2 00 40 01 00 00 00 	00000000000@0000
  0xb0a0	00 00 00 00 00 00 00 00 00 00 00 00 00 00 00 00 	0000000000000000
  0xb0b0	30 b6 00 40 01 00 00 00 38 b6 00 40 01 00 00 00 	000@0000800@0000
  0xb0c0	78 b6 00 40 01 00 00 00 0c 00 00 00 00 00 00 00 	x00@000000000000
  0xb0d0	00 75 01 00 00 00 00 00 00 00 00 00 00 00 00 00 	0u00000000000000
  0xb0e0	a8 b6 00 40 01 00 00 00 01 00 00 00 00 00 00 00 	000@000000000000
  0xb0f0	00 00 00 00 00 00 00 00 00 00 00 00 00 00 00 00 	0000000000000000
  0xb100	00 00 00 00 00 00 00 00 00 00 00 00 00 00 00 00 	0000000000000000
  0xb110	00 00 00 00 00 00 00 00 00 00 00 00 00 00 00 00 	0000000000000000
  0xb120	00 00 00 00 00 00 00 00 00 00 00 00 00 00 00 00 	0000000000000000
  0xb130	00 00 00 00 00 00 00 00 00 00 00 00 00 00 00 00 	0000000000000000
  0xb140	00 00 00 00 00 00 00 00 00 00 00 00 00 00 00 00 	0000000000000000
  0xb150	00 00 00 00 00 00 00 00 68 bd 00 40 01 00 00 00 	00000000h00@0000
  0xb160	80 bd 00 40 01 00 00 00 90 bd 00 40 01 00 00 00 	000@0000000@0000
  0xb170	22 d8 00 00 00 00 00 00 00 00 00 00 00 00 00 00 	"000000000000000
  0xb180	ea d6 00 00 00 00 00 00 70 d7 00 00 00 00 00 00 	00000000p0000000
  0xb190	a4 d7 00 00 00 00 00 00 e8 d7 00 00 00 00 00 00 	0000000000000000
  0xb1a0	da d6 00 00 00 00 00 00 4a d7 00 00 00 00 00 00 	00000000J0000000
  0xb1b0	24 d7 00 00 00 00 00 00 00 00 00 00 00 00 00 00 	$000000000000000
  0xb1c0	2c de 00 00 00 00 00 00 00 00 00 00 00 00 00 00 	,000000000000000
  0xb1d0	58 da 00 00 00 00 00 00 96 d9 00 00 00 00 00 00 	X000000000000000
  0xb1e0	84 d9 00 00 00 00 00 00 72 d9 00 00 00 00 00 00 	00000000r0000000
  0xb1f0	0a d6 00 00 00 00 00 00 00 00 00 00 00 00 00 00 	0000000000000000
  0xb200	a6 d9 00 00 00 00 00 00 00 00 00 00 00 00 00 00 	0000000000000000
  0xb210	aa da 00 00 00 00 00 00 00 00 00 00 00 00 00 00 	0000000000000000
  0xb220	64 df 00 00 00 00 00 00 00 00 00 00 00 00 00 00 	d000000000000000
  0xb230	4c df 00 00 00 00 00 00 00 00 00 00 00 00 00 00 	L000000000000000
  0xb240	a8 d8 00 00 00 00 00 00 ec d9 00 00 00 00 00 00 	0000000000000000
  0xb250	8c d8 00 00 00 00 00 00 7e d6 00 00 00 00 00 00 	00000000~0000000
  0xb260	00 00 00 00 00 00 00 00 3a da 00 00 00 00 00 00 	00000000:0000000
  0xb270	8a da 00 00 00 00 00 00 02 d8 00 00 00 00 00 00 	0000000000000000
  0xb280	00 00 00 00 00 00 00 00 8e d6 00 00 00 00 00 00 	0000000000000000
  0xb290	00 00 00 00 00 00 00 00 9c d6 00 00 00 00 00 00 	0000000000000000
  0xb2a0	00 00 00 00 00 00 00 00 68 da 00 00 00 00 00 00 	00000000h0000000
  0xb2b0	c8 da 00 00 00 00 00 00 00 00 00 00 00 00 00 00 	0000000000000000
  0xb2c0	ee d8 00 00 00 00 00 00 98 da 00 00 00 00 00 00 	0000000000000000
  0xb2d0	d6 da 00 00 00 00 00 00 fc d9 00 00 00 00 00 00 	0000000000000000
  0xb2e0	00 00 00 00 00 00 00 00 46 da 00 00 00 00 00 00 	00000000F0000000
  0xb2f0	30 d6 00 00 00 00 00 00 3c d6 00 00 00 00 00 00 	00000000<0000000
  0xb300	00 00 00 00 00 00 00 00 f8 d5 00 00 00 00 00 00 	0000000000000000
  0xb310	20 d6 00 00 00 00 00 00 00 00 00 00 00 00 00 00 	 000000000000000
  0xb320	1c d9 00 00 00 00 00 00 32 d9 00 00 00 00 00 00 	0000000020000000
  0xb330	c6 d8 00 00 00 00 00 00 b2 d6 00 00 00 00 00 00 	0000000000000000
  0xb340	da d8 00 00 00 00 00 00 c4 d6 00 00 00 00 00 00 	0000000000000000
  0xb350	00 00 00 00 00 00 00 00 02 d9 00 00 00 00 00 00 	0000000000000000
  0xb360	00 00 00 00 00 00 00 00 14 d7 00 00 00 00 00 00 	0000000000000000
  0xb370	38 d7 00 00 00 00 00 00 00 d7 00 00 00 00 00 00 	8000000000000000
  0xb380	b4 d7 00 00 00 00 00 00 5e d7 00 00 00 00 00 00 	00000000^0000000
  0xb390	00 00 00 00 00 00 00 00 fa dd 00 00 00 00 00 00 	0000000000000000
  0xb3a0	00 00 00 00 00 00 00 00 4a d8 00 00 00 00 00 00 	00000000J0000000
  0xb3b0	5e d8 00 00 00 00 00 00 78 d8 00 00 00 00 00 00 	^0000000x0000000
  0xb3c0	00 00 00 00 00 00 00 00 74 da 00 00 00 00 00 00 	00000000t0000000
  0xb3d0	00 00 00 00 00 00 00 00 52 d6 00 00 00 00 00 00 	00000000R0000000
  0xb3e0	00 00 00 00 00 00 00 00 42 d8 00 00 00 00 00 00 	00000000B0000000
  0xb3f0	00 00 00 00 00 00 00 00 68 d6 00 00 00 00 00 00 	00000000h0000000
  0xb400	62 d9 00 00 00 00 00 00 48 d9 00 00 00 00 00 00 	b0000000H0000000
  0xb410	00 00 00 00 00 00 00 00 c4 d4 00 00 00 00 00 00 	0000000000000000
  0xb420	78 d4 00 00 00 00 00 00 ba d4 00 00 00 00 00 00 	x000000000000000
  0xb430	d0 d4 00 00 00 00 00 00 dc d4 00 00 00 00 00 00 	0000000000000000
  0xb440	e8 d4 00 00 00 00 00 00 f2 d4 00 00 00 00 00 00 	0000000000000000
  0xb450	c8 df 00 00 00 00 00 00 fe d4 00 00 00 00 00 00 	0000000000000000
  0xb460	d8 df 00 00 00 00 00 00 36 df 00 00 00 00 00 00 	0000000060000000
  0xb470	2c df 00 00 00 00 00 00 e2 df 00 00 00 00 00 00 	,000000000000000
  0xb480	08 d5 00 00 00 00 00 00 10 d5 00 00 00 00 00 00 	0000000000000000
  0xb490	1a d5 00 00 00 00 00 00 42 df 00 00 00 00 00 00 	00000000B0000000
  0xb4a0	24 d5 00 00 00 00 00 00 30 d5 00 00 00 00 00 00 	$000000000000000
  0xb4b0	3a d5 00 00 00 00 00 00 ec df 00 00 00 00 00 00 	:000000000000000
  0xb4c0	b0 d4 00 00 00 00 00 00 22 df 00 00 00 00 00 00 	00000000"0000000
  0xb4d0	18 df 00 00 00 00 00 00 0e df 00 00 00 00 00 00 	0000000000000000
  0xb4e0	a4 d4 00 00 00 00 00 00 e4 d5 00 00 00 00 00 00 	0000000000000000
  0xb4f0	cc d5 00 00 00 00 00 00 c2 d5 00 00 00 00 00 00 	0000000000000000
  0xb500	aa d5 00 00 00 00 00 00 9e d5 00 00 00 00 00 00 	0000000000000000
  0xb510	8a d5 00 00 00 00 00 00 80 d5 00 00 00 00 00 00 	0000000000000000
  0xb520	78 d5 00 00 00 00 00 00 66 d5 00 00 00 00 00 00 	x0000000f0000000
  0xb530	56 d5 00 00 00 00 00 00 98 d4 00 00 00 00 00 00 	V000000000000000
  0xb540	8c d4 00 00 00 00 00 00 04 df 00 00 00 00 00 00 	0000000000000000
  0xb550	fc de 00 00 00 00 00 00 f2 de 00 00 00 00 00 00 	0000000000000000
  0xb560	e2 de 00 00 00 00 00 00 d2 de 00 00 00 00 00 00 	0000000000000000
  0xb570	c4 de 00 00 00 00 00 00 80 d4 00 00 00 00 00 00 	0000000000000000
  0xb580	48 d5 00 00 00 00 00 00 f6 df 00 00 00 00 00 00 	H000000000000000
  0xb590	00 00 00 00 00 00 00 00 94 de 00 00 00 00 00 00 	0000000000000000
  0xb5a0	7c de 00 00 00 00 00 00 6c de 00 00 00 00 00 00 	|0000000l0000000
  0xb5b0	ba d9 00 00 00 00 00 00 c2 d7 00 00 00 00 00 00 	0000000000000000
  0xb5c0	d4 d9 00 00 00 00 00 00 00 00 00 00 00 00 00 00 	0000000000000000
  0xb5d0	a8 de 00 00 00 00 00 00 00 00 00 00 00 00 00 00 	0000000000000000
  0xb5e0	d6 d7 00 00 00 00 00 00 00 00 00 00 00 00 00 00 	0000000000000000
  0xb5f0	e4 da 00 00 00 00 00 00 12 d8 00 00 00 00 00 00 	0000000000000000
  0xb600	00 00 00 00 00 00 00 00 94 d7 00 00 00 00 00 00 	0000000000000000
  0xb610	86 d7 00 00 00 00 00 00 12 da 00 00 00 00 00 00 	0000000000000000
  0xb620	28 da 00 00 00 00 00 00 00 00 00 00 00 00 00 00 	(000000000000000
  0xb630	f0 2e 00 40 01 00 00 00 40 32 00 40 01 00 00 00 	0.0@0000@20@0000
  0xb640	00 00 00 00 00 00 00 00 b0 26 00 40 01 00 00 00 	000000000&0@0000
  0xb650	00 00 00 00 00 00 00 00 00 00 00 00 00 00 00 00 	0000000000000000
  0xb660	d0 25 00 40 01 00 00 00 20 2c 00 40 01 00 00 00 	0%0@0000 ,0@0000
  0xb670	00 00 00 00 00 00 00 00 d0 25 00 00 b0 26 00 00 	000000000%000&00
  0xb680	d0 28 00 00 60 29 00 00 e0 2b 00 00 20 2c 00 00 	0(00`)000+00 ,00
  0xb690	00 2d 00 00 f0 2e 00 00 10 30 00 00 e0 4d 00 00 	0-000.0000000M00
  0xb6a0	80 70 00 00 90 a9 00 00 20 b2 00 00 00 00 00 00 	0p000000 0000000
  0xb6b0	2e 25 75 00 00 00 00 00 4e 00 45 00 54 00 4d 00 	.%u00000N0E0T0M0
  0xb6c0	53 00 47 00 00 00 00 00 0d 00 0a 00 00 00 00 00 	S0G0000000000000
  0xb6d0	53 00 6f 00 66 00 74 00 77 00 61 00 72 00 65 00 	S0o0f0t0w0a0r0e0
  0xb6e0	5c 00 4d 00 69 00 63 00 72 00 6f 00 73 00 6f 00 	00M0i0c0r0o0s0o0
  0xb6f0	66 00 74 00 5c 00 57 00 69 00 6e 00 64 00 6f 00 	f0t000W0i0n0d0o0
  0xb700	77 00 73 00 20 00 4e 00 54 00 5c 00 43 00 75 00 	w0s0 0N0T000C0u0
  0xb710	72 00 72 00 65 00 6e 00 74 00 56 00 65 00 72 00 	r0r0e0n0t0V0e0r0
  0xb720	73 00 69 00 6f 00 6e 00 5c 00 4e 00 65 00 74 00 	s0i0o0n000N0e0t0
  0xb730	77 00 6f 00 72 00 6b 00 5c 00 50 00 65 00 72 00 	w0o0r0k000P0e0r0
  0xb740	73 00 69 00 73 00 74 00 65 00 6e 00 74 00 20 00 	s0i0s0t0e0n0t0 0
  0xb750	43 00 6f 00 6e 00 6e 00 65 00 63 00 74 00 69 00 	C0o0n0n0e0c0t0i0
  0xb760	6f 00 6e 00 73 00 00 00 4e 00 61 00 6d 00 65 00 	o0n0s000N0a0m0e0
  0xb770	00 00 00 00 00 00 00 00 00 00 00 00 00 00 00 00 	0000000000000000
  0xb780	53 00 79 00 73 00 74 00 65 00 6d 00 5c 00 43 00 	S0y0s0t0e0m000C0
  0xb790	75 00 72 00 72 00 65 00 6e 00 74 00 43 00 6f 00 	u0r0r0e0n0t0C0o0
  0xb7a0	6e 00 74 00 72 00 6f 00 6c 00 53 00 65 00 74 00 	n0t0r0o0l0S0e0t0
  0xb7b0	5c 00 53 00 65 00 72 00 76 00 69 00 63 00 65 00 	00S0e0r0v0i0c0e0
  0xb7c0	73 00 5c 00 4c 00 61 00 6e 00 6d 00 61 00 6e 00 	s000L0a0n0m0a0n0
  0xb7d0	57 00 6f 00 72 00 6b 00 73 00 74 00 61 00 74 00 	W0o0r0k0s0t0a0t0
  0xb7e0	69 00 6f 00 6e 00 5c 00 4e 00 65 00 74 00 77 00 	i0o0n000N0e0t0w0
  0xb7f0	6f 00 72 00 6b 00 50 00 72 00 6f 00 76 00 69 00 	o0r0k0P0r0o0v0i0
  0xb800	64 00 65 00 72 00 00 00 5c 00 6e 00 65 00 74 00 	d0e0r00000n0e0t0
  0xb810	31 00 00 00 00 00 00 00 00 00 00 00 00 00 00 00 	1000000000000000
  0xb820	65 00 78 00 74 00 2d 00 6d 00 73 00 2d 00 77 00 	e0x0t0-0m0s0-0w0
  0xb830	69 00 6e 00 2d 00 73 00 65 00 63 00 75 00 72 00 	i0n0-0s0e0c0u0r0
  0xb840	69 00 74 00 79 00 2d 00 63 00 72 00 65 00 64 00 	i0t0y0-0c0r0e0d0
  0xb850	75 00 69 00 2d 00 6c 00 31 00 2d 00 31 00 2d 00 	u0i0-0l010-010-0
  0xb860	30 00 00 00 00 00 00 00 00 00 00 00 00 00 00 00 	0000000000000000
  0xb870	65 00 78 00 74 00 2d 00 6d 00 73 00 2d 00 77 00 	e0x0t0-0m0s0-0w0
  0xb880	69 00 6e 00 2d 00 73 00 65 00 63 00 75 00 72 00 	i0n0-0s0e0c0u0r0
  0xb890	69 00 74 00 79 00 2d 00 63 00 72 00 65 00 64 00 	i0t0y0-0c0r0e0d0
  0xb8a0	75 00 69 00 2d 00 6c 00 31 00 2d 00 31 00 2d 00 	u0i0-0l010-010-0
  0xb8b0	31 00 00 00 00 00 00 00 00 00 00 00 00 00 00 00 	1000000000000000
  0xb8c0	65 78 74 2d 6d 73 2d 77 69 6e 2d 73 65 63 75 72 	ext-ms-win-secur
  0xb8d0	69 74 79 2d 63 72 65 64 75 69 2d 6c 31 2d 31 2d 	ity-credui-l1-1-
  0xb8e0	30 2e 64 6c 6c 00 00 00 00 00 00 00 00 00 00 00 	0.dll00000000000
  0xb8f0	65 78 74 2d 6d 73 2d 77 69 6e 2d 73 6d 62 73 68 	ext-ms-win-smbsh
  0xb900	61 72 65 2d 62 72 6f 77 73 65 72 63 6c 69 65 6e 	are-browserclien
  0xb910	74 2d 6c 31 2d 31 2d 30 2e 64 6c 6c 00 00 00 00 	t-l1-1-0.dll0000
  0xb920	65 00 78 00 74 00 2d 00 6d 00 73 00 2d 00 77 00 	e0x0t0-0m0s0-0w0
  0xb930	69 00 6e 00 2d 00 73 00 6d 00 62 00 73 00 68 00 	i0n0-0s0m0b0s0h0
  0xb940	61 00 72 00 65 00 2d 00 62 00 72 00 6f 00 77 00 	a0r0e0-0b0r0o0w0
  0xb950	73 00 65 00 72 00 63 00 6c 00 69 00 65 00 6e 00 	s0e0r0c0l0i0e0n0
  0xb960	74 00 2d 00 6c 00 31 00 2d 00 31 00 2d 00 30 00 	t0-0l010-010-000
  0xb970	00 00 00 00 00 00 00 00 2a 00 00 00 00 00 00 00 	00000000*0000000
  0xb980	79 00 65 00 73 00 00 00 53 00 61 00 76 00 65 00 	y0e0s000S0a0v0e0
  0xb990	43 00 6f 00 6e 00 6e 00 65 00 63 00 74 00 69 00 	C0o0n0n0e0c0t0i0
  0xb9a0	6f 00 6e 00 73 00 00 00 42 00 41 00 53 00 45 00 	o0n0s000B0A0S0E0
  0xb9b0	00 00 00 00 00 00 00 00 00 00 00 00 00 00 00 00 	0000000000000000
  0xb9c0	2d 00 2d 00 2d 00 2d 00 2d 00 2d 00 2d 00 2d 00 	-0-0-0-0-0-0-0-0
  0xb9d0	2d 00 2d 00 2d 00 2d 00 2d 00 2d 00 2d 00 2d 00 	-0-0-0-0-0-0-0-0
  0xb9e0	2d 00 2d 00 2d 00 2d 00 2d 00 2d 00 2d 00 2d 00 	-0-0-0-0-0-0-0-0
  0xb9f0	2d 00 2d 00 2d 00 2d 00 2d 00 2d 00 2d 00 2d 00 	-0-0-0-0-0-0-0-0
  0xba00	2d 00 2d 00 2d 00 2d 00 2d 00 2d 00 2d 00 2d 00 	-0-0-0-0-0-0-0-0
  0xba10	2d 00 2d 00 2d 00 2d 00 2d 00 2d 00 2d 00 2d 00 	-0-0-0-0-0-0-0-0
  0xba20	2d 00 2d 00 2d 00 2d 00 2d 00 2d 00 2d 00 2d 00 	-0-0-0-0-0-0-0-0
  0xba30	2d 00 2d 00 2d 00 2d 00 2d 00 2d 00 2d 00 2d 00 	-0-0-0-0-0-0-0-0
  0xba40	2d 00 2d 00 2d 00 2d 00 2d 00 2d 00 2d 00 2d 00 	-0-0-0-0-0-0-0-0
  0xba50	2d 00 2d 00 2d 00 2d 00 2d 00 2d 00 2d 00 0d 00 	-0-0-0-0-0-0-000
  0xba60	0a 00 00 00 00 00 00 00 00 00 00 00 00 00 00 00 	0000000000000000
  0xba70	50 00 41 00 4e 00 49 00 43 00 3a 00 20 00 65 00 	P0A0N0I0C0:0 0e0
  0xba80	78 00 70 00 72 00 65 00 73 00 73 00 69 00 6f 00 	x0p0r0e0s0s0i0o0
  0xba90	6e 00 20 00 74 00 6f 00 6f 00 20 00 63 00 6f 00 	n0 0t0o0o0 0c0o0
  0xbaa0	6d 00 70 00 6c 00 65 00 78 00 2c 00 20 00 70 00 	m0p0l0e0x0,0 0p0
  0xbab0	6c 00 65 00 61 00 73 00 65 00 20 00 73 00 69 00 	l0e0a0s0e0 0s0i0
  0xbac0	6d 00 70 00 6c 00 69 00 66 00 79 00 3b 00 00 00 	m0p0l0i0f0y0;000
  0xbad0	09 00 0a 00 0b 00 0c 00 0d 00 20 00 00 00 00 00 	0000000000 00000
  0xbae0	00 00 00 00 5d 48 bd 1e 00 00 00 00 02 00 00 00 	0000]H0000000000
  0xbaf0	20 00 00 00 58 c0 00 00 58 ae 00 00 00 00 00 00 	 000X000X0000000
  0xbb00	5d 48 bd 1e 00 00 00 00 0d 00 00 00 c8 03 00 00 	]H00000000000000
  0xbb10	78 c0 00 00 78 ae 00 00 00 00 00 00 5d 48 bd 1e 	x000x0000000]H00
  0xbb20	00 00 00 00 10 00 00 00 24 00 00 00 40 c4 00 00 	00000000$000@000
  0xbb30	40 b2 00 00 00 00 00 00 00 00 00 00 00 00 00 00 	@000000000000000
  0xbb40	2e 4f 43 50 00 00 00 00 00 00 00 00 00 00 00 00 	.OCP000000000000
  0xbb50	03 00 5c 00 7b 00 06 00 0b 00 7c 00 09 00 4e 00 	0000{00000|000N0
  0xbb60	7d 00 59 00 7f 00 58 02 00 00 18 00 ff ff 13 00 	}0Y000X000000000
  0xbb70	01 00 00 00 89 00 00 00 02 00 01 00 8c 00 8d 00 	0000000000000000
  0xbb80	29 00 74 00 24 00 ff ff 21 00 01 00 03 00 02 00 	)0t0$000!0000000
  0xbb90	94 00 03 00 98 00 99 00 71 00 ff ff 04 00 9c 00 	00000000q0000000
  0xbba0	9d 00 5f 00 39 00 ff ff 30 00 04 00 05 00 a4 00 	00_0900000000000
  0xbbb0	35 00 01 00 05 00 06 00 a7 00 02 00 07 00 aa 00 	5000000000000000
  0xbbc0	ab 00 40 00 71 00 ff ff 02 00 08 00 b0 00 b1 00 	00@0q00000000000
  0xbbd0	74 00 47 00 71 00 ff ff 09 00 c0 00 c1 00 ff ff 	t0G0q00000000000
  0xbbe0	0a 00 ce 00 cf 00 d0 00 d1 00 d1 00 59 02 06 00 	000000000000Y000
  0xbbf0	54 00 ff ff 0b 00 d8 00 77 00 ff ff 0c 00 db 00 	T0000000w0000000
  0xbc00	db 00 00 00 0d 00 e4 00 ff ff 0e 00 e8 00 00 00 	0000000000000000
  0xbc10	07 00 ef 00 00 00 08 00 f1 00 00 00 09 00 f3 00 	0000000000000000
  0xbc20	00 00 0a 00 f5 00 00 00 0b 00 f7 00 00 00 0c 00 	0000000000000000
  0xbc30	f9 00 00 00 0d 00 fb 00 00 00 0e 00 fd 00 00 00 	0000000000000000
  0xbc40	0f 00 ff 00 00 00 00 00 00 00 00 00 00 00 00 00 	0000000000000000
  0xbc50	01 00 02 00 07 00 01 00 02 00 07 00 01 00 02 00 	0000000000000000
  0xbc60	07 00 02 00 07 00 03 00 05 00 01 00 03 00 01 00 	0000000000000000
  0xbc70	05 00 06 00 07 00 0b 00 05 00 06 00 07 00 07 00 	0000000000000000
  0xbc80	01 00 02 00 01 00 03 00 01 00 0b 00 05 00 06 00 	0000000000000000
  0xbc90	07 00 06 00 07 00 07 00 02 00 03 00 06 00 07 00 	0000000000000000
  0xbca0	07 00 02 00 01 00 03 00 01 00 05 00 06 00 07 00 	0000000000000000
  0xbcb0	01 00 0b 00 05 00 06 00 07 00 0b 00 06 00 07 00 	0000000000000000
  0xbcc0	07 00 01 00 02 00 03 00 0b 00 06 00 07 00 07 00 	0000000000000000
  0xbcd0	02 00 01 00 02 00 03 00 06 00 07 00 07 00 03 00 	0000000000000000
  0xbce0	06 00 07 00 07 00 07 00 07 00 07 00 03 00 05 00 	0000000000000000
  0xbcf0	01 00 03 00 06 00 07 00 02 00 03 00 06 00 07 00 	0000000000000000
  0xbd00	07 00 0a 00 06 00 07 00 03 00 06 00 07 00 0a 00 	0000000000000000
  0xbd10	05 00 07 00 0a 00 05 00 07 00 0a 00 05 00 07 00 	0000000000000000
  0xbd20	0a 00 05 00 07 00 0a 00 05 00 07 00 0a 00 05 00 	0000000000000000
  0xbd30	07 00 0a 00 05 00 07 00 0a 00 05 00 07 00 0a 00 	0000000000000000
  0xbd40	05 00 07 00 00 00 00 00 75 00 73 00 65 00 00 00 	00000000u0s0e000
  0xbd50	76 00 69 00 65 00 77 00 00 00 00 00 00 00 00 00 	v0i0e0w000000000
  0xbd60	2a 00 2a 00 2a 00 00 00 2f 00 50 00 45 00 52 00 	*0*0*000/0P0E0R0
  0xbd70	53 00 49 00 53 00 54 00 45 00 4e 00 54 00 00 00 	S0I0S0T0E0N0T000
  0xbd80	2f 00 44 00 45 00 4c 00 45 00 54 00 45 00 00 00 	/0D0E0L0E0T0E000
  0xbd90	2f 00 48 00 4f 00 4d 00 45 00 00 00 00 00 00 00 	/0H0O0M0E0000000
  0xbda0	25 00 46 00 73 00 20 00 25 00 46 00 73 00 20 00 	%0F0s0 0%0F0s0 0
  0xbdb0	25 00 46 00 73 00 20 00 25 00 46 00 73 00 0d 00 	%0F0s0 0%0F0s000
  0xbdc0	0a 00 00 00 00 00 00 00 00 00 00 00 00 00 00 00 	0000000000000000
  0xbdd0	25 00 46 00 73 00 20 00 25 00 46 00 73 00 20 00 	%0F0s0 0%0F0s0 0
  0xbde0	25 00 46 00 73 00 20 00 0d 00 0a 00 25 00 46 00 	%0F0s0 00000%0F0
  0xbdf0	73 00 20 00 25 00 46 00 73 00 20 00 25 00 46 00 	s0 0%0F0s0 0%0F0
  0xbe00	73 00 20 00 25 00 46 00 73 00 0d 00 0a 00 00 00 	s0 0%0F0s0000000
  0xbe10	4c 00 50 00 54 00 00 00 20 00 20 00 20 00 20 00 	L0P0T000 0 0 0 0
  0xbe20	25 00 46 00 77 00 73 00 20 00 25 00 46 00 77 00 	%0F0w0s0 0%0F0w0
  0xbe30	73 00 0d 00 0a 00 00 00 5c 00 5c 00 00 00 00 00 	s000000000000000
  0xbe40	5c 00 2f 00 00 00 00 00 6e 00 6f 00 00 00 00 00 	00/00000n0o00000
  0xbe50	25 00 77 00 73 00 0d 00 0a 00 00 00 00 00 00 00 	%0w0s00000000000
  0xbe60	5a 00 3a 00 5c 00 00 00 25 00 46 00 77 00 73 00 	Z0:00000%0F0w0s0
  0xbe70	20 00 00 00 00 00 00 00 5c 00 5c 00 25 00 46 00 	 00000000000%0F0
  0xbe80	77 00 73 00 20 00 00 00 5c 00 00 00 00 00 00 00 	w0s0 00000000000
  0xbe90	25 00 46 00 77 00 73 00 0d 00 0a 00 0d 00 0a 00 	%0F0w0s000000000
  0xbea0	00 00 00 00 00 00 00 00 25 00 2d 00 2a 00 2e 00 	00000000%0-0*0.0
  0xbeb0	2a 00 77 00 73 00 00 00 41 00 44 00 4d 00 49 00 	*0w0s000A0D0M0I0
  0xbec0	4e 00 24 00 00 00 00 00 25 00 2d 00 2a 00 2e 00 	N0$00000%0-0*0.0
  0xbed0	2a 00 77 00 73 00 25 00 46 00 77 00 73 00 0d 00 	*0w0s0%0F0w0s000
  0xbee0	0a 00 00 00 00 00 00 00 25 00 2d 00 2a 00 2e 00 	00000000%0-0*0.0
  0xbef0	2a 00 77 00 73 00 25 00 77 00 73 00 0d 00 0a 00 	*0w0s0%0w0s00000
  0xbf00	00 00 00 00 00 00 00 00 25 00 2d 00 2a 00 2e 00 	00000000%0-0*0.0
  0xbf10	2a 00 77 00 73 00 25 00 68 00 75 00 0d 00 0a 00 	*0w0s0%0h0u00000
  0xbf20	00 00 00 00 00 00 00 00 5c 00 50 00 49 00 50 00 	0000000000P0I0P0
  0xbf30	45 00 00 00 00 00 00 00 5c 00 50 00 52 00 49 00 	E000000000P0R0I0
  0xbf40	4e 00 54 00 00 00 00 00 5c 00 43 00 4f 00 4d 00 	N0T0000000C0O0M0
  0xbf50	4d 00 00 00 3a 00 00 00 00 00 00 00 00 00 00 00 	M000:00000000000
  0xbf60	53 00 6f 00 66 00 74 00 77 00 61 00 72 00 65 00 	S0o0f0t0w0a0r0e0
  0xbf70	5c 00 4d 00 69 00 63 00 72 00 6f 00 73 00 6f 00 	00M0i0c0r0o0s0o0
  0xbf80	66 00 74 00 5c 00 57 00 69 00 6e 00 64 00 6f 00 	f0t000W0i0n0d0o0
  0xbf90	77 00 73 00 20 00 4e 00 54 00 5c 00 43 00 75 00 	w0s0 0N0T000C0u0
  0xbfa0	72 00 72 00 65 00 6e 00 74 00 56 00 65 00 72 00 	r0r0e0n0t0V0e0r0
  0xbfb0	73 00 69 00 6f 00 6e 00 5c 00 53 00 65 00 72 00 	s0i0o0n000S0e0r0
  0xbfc0	76 00 65 00 72 00 5c 00 53 00 65 00 72 00 76 00 	v0e0r000S0e0r0v0
  0xbfd0	65 00 72 00 4c 00 65 00 76 00 65 00 6c 00 73 00 	e0r0L0e0v0e0l0s0
  0xbfe0	00 00 00 00 00 00 00 00 4e 00 61 00 6e 00 6f 00 	00000000N0a0n0o0
  0xbff0	53 00 65 00 72 00 76 00 65 00 72 00 00 00 00 00 	S0e0r0v0e0r00000
  0xc000	4e 00 45 00 54 00 00 00 24 00 00 00 00 00 00 00 	N0E0T000$0000000
  0xc010	3a 00 2c 00 24 00 00 00 20 00 00 00 00 00 00 00 	:0,0$000 0000000
  0xc020	6e 00 65 00 74 00 68 00 2e 00 64 00 6c 00 6c 00 	n0e0t0h0.0d0l0l0
  0xc030	00 00 00 00 00 00 00 00 0a 00 09 00 09 00 00 00 	0000000000000000
  0xc040	25 00 46 00 77 00 73 00 00 00 00 00 00 00 00 00 	%0F0w0s000000000
  0xc050	00 00 00 00 00 00 00 00 52 53 44 53 af ee 87 ea 	00000000RSDS0000
  0xc060	ae 38 d8 a2 a3 c6 0b cc 7c 18 8f eb 01 00 00 00 	08000000|0000000
  0xc070	6e 65 74 2e 70 64 62 00 00 55 47 50 00 10 00 00 	net.pdb00UGP0000
  0xc080	c0 15 00 00 2e 74 65 78 74 24 6c 70 30 31 6e 65 	0000.text$lp01ne
  0xc090	74 2e 65 78 65 21 32 30 5f 70 72 69 37 00 00 00 	t.exe!20_pri7000
  0xc0a0	c0 25 00 00 70 0c 00 00 2e 74 65 78 74 24 6d 6e 	0%00p000.text$mn
  0xc0b0	00 00 00 00 30 32 00 00 80 00 00 00 2e 74 65 78 	000002000000.tex
  0xc0c0	74 24 6d 6e 24 30 30 00 b0 32 00 00 50 00 00 00 	t$mn$0000200P000
  0xc0d0	2e 74 65 78 74 24 78 00 00 33 00 00 f0 16 00 00 	.text$x003000000
  0xc0e0	2e 74 65 78 74 24 7a 79 00 00 00 00 f0 49 00 00 	.text$zy00000I00
  0xc0f0	dd 5f 00 00 2e 74 65 78 74 24 7a 7a 00 00 00 00 	0_00.text$zz0000
  0xc100	00 b0 00 00 58 01 00 00 2e 72 64 61 74 61 24 62 	0000X000.rdata$b
  0xc110	72 63 00 00 58 b1 00 00 18 00 00 00 2e 72 64 61 	rc00X0000000.rda
  0xc120	74 61 24 7a 7a 24 62 72 63 00 00 00 70 b1 00 00 	ta$zz$brc000p000
  0xc130	c0 04 00 00 2e 69 64 61 74 61 24 35 00 00 00 00 	0000.idata$50000
  0xc140	30 b6 00 00 10 00 00 00 2e 30 30 63 66 67 00 00 	00000000.00cfg00
  0xc150	40 b6 00 00 08 00 00 00 2e 43 52 54 24 58 43 41 	@0000000.CRT$XCA
  0xc160	00 00 00 00 48 b6 00 00 08 00 00 00 2e 43 52 54 	0000H0000000.CRT
  0xc170	24 58 43 41 41 00 00 00 50 b6 00 00 08 00 00 00 	$XCAA000P0000000
  0xc180	2e 43 52 54 24 58 43 5a 00 00 00 00 58 b6 00 00 	.CRT$XCZ0000X000
  0xc190	08 00 00 00 2e 43 52 54 24 58 49 41 00 00 00 00 	0000.CRT$XIA0000
  0xc1a0	60 b6 00 00 08 00 00 00 2e 43 52 54 24 58 49 41 	`0000000.CRT$XIA
  0xc1b0	41 00 00 00 68 b6 00 00 08 00 00 00 2e 43 52 54 	A000h0000000.CRT
  0xc1c0	24 58 49 59 00 00 00 00 70 b6 00 00 08 00 00 00 	$XIY0000p0000000
  0xc1d0	2e 43 52 54 24 58 49 5a 00 00 00 00 78 b6 00 00 	.CRT$XIZ0000x000
  0xc1e0	30 00 00 00 2e 67 66 69 64 73 00 00 a8 b6 00 00 	0000.gfids000000
  0xc1f0	08 00 00 00 2e 67 69 61 74 73 00 00 b0 b6 00 00 	0000.giats000000
  0xc200	90 04 00 00 2e 72 64 61 74 61 00 00 40 bb 00 00 	0000.rdata00@000
  0xc210	20 02 00 00 2e 72 64 61 74 61 24 30 30 00 00 00 	 000.rdata$00000
  0xc220	60 bd 00 00 f8 02 00 00 2e 72 64 61 74 61 24 7a 	`0000000.rdata$z
  0xc230	7a 00 00 00 58 c0 00 00 10 04 00 00 2e 72 64 61 	z000X0000000.rda
  0xc240	74 61 24 7a 7a 7a 64 62 67 00 00 00 68 c4 00 00 	ta$zzzdbg000h000
  0xc250	f4 07 00 00 2e 78 64 61 74 61 00 00 5c cc 00 00 	0000.xdata000000
  0xc260	40 00 00 00 2e 64 69 64 61 74 24 32 00 00 00 00 	@000.didat$20000
  0xc270	9c cc 00 00 24 00 00 00 2e 64 69 64 61 74 24 33 	0000$000.didat$3
  0xc280	00 00 00 00 c0 cc 00 00 20 00 00 00 2e 64 69 64 	00000000 000.did
  0xc290	61 74 24 34 00 00 00 00 e0 cc 00 00 38 00 00 00 	at$4000000008000
  0xc2a0	2e 64 69 64 61 74 24 36 00 00 00 00 18 cd 00 00 	.didat$600000000
  0xc2b0	20 00 00 00 2e 64 69 64 61 74 24 37 00 00 00 00 	 000.didat$70000
  0xc2c0	38 cd 00 00 6c 02 00 00 2e 69 64 61 74 61 24 32 	8000l000.idata$2
  0xc2d0	00 00 00 00 a4 cf 00 00 14 00 00 00 2e 69 64 61 	000000000000.ida
  0xc2e0	74 61 24 33 00 00 00 00 b8 cf 00 00 c0 04 00 00 	ta$3000000000000
  0xc2f0	2e 69 64 61 74 61 24 34 00 00 00 00 78 d4 00 00 	.idata$40000x000
  0xc300	88 0b 00 00 2e 69 64 61 74 61 24 36 00 00 00 00 	0000.idata$60000
  0xc310	00 e0 00 00 a0 01 00 00 2e 64 61 74 61 24 64 6b 	00000000.data$dk
  0xc320	30 30 24 62 72 63 00 00 a0 e1 00 00 e0 00 00 00 	00$brc0000000000
  0xc330	2e 64 61 74 61 24 7a 7a 24 62 72 63 00 00 00 00 	.data$zz$brc0000
  0xc340	80 e2 00 00 20 00 00 00 2e 64 61 74 61 00 00 00 	0000 000.data000
  0xc350	a0 e2 00 00 d0 00 00 00 2e 64 61 74 61 24 64 6b 	00000000.data$dk
  0xc360	30 30 00 00 70 e3 00 00 60 00 00 00 2e 64 61 74 	0000p000`000.dat
  0xc370	61 24 70 72 30 30 00 00 d0 e3 00 00 70 02 00 00 	a$pr00000000p000
  0xc380	2e 64 61 74 61 24 7a 7a 00 00 00 00 40 e6 00 00 	.data$zz0000@000
  0xc390	e0 7d 00 00 2e 62 73 73 00 00 00 00 20 64 01 00 	0}00.bss0000 d00
  0xc3a0	90 08 00 00 2e 62 73 73 24 30 30 00 b0 6c 01 00 	0000.bss$0000l00
  0xc3b0	50 1c 00 00 2e 62 73 73 24 30 31 00 00 89 01 00 	P000.bss$0100000
  0xc3c0	b0 00 00 00 2e 62 73 73 24 64 6b 30 30 00 00 00 	0000.bss$dk00000
  0xc3d0	b0 89 01 00 10 08 00 00 2e 62 73 73 24 70 72 30 	00000000.bss$pr0
  0xc3e0	30 00 00 00 c0 91 01 00 32 06 00 00 2e 62 73 73 	000000002000.bss
  0xc3f0	24 7a 7a 00 00 a0 01 00 0c 06 00 00 2e 70 64 61 	$zz000000000.pda
  0xc400	74 61 00 00 00 b0 01 00 20 00 00 00 2e 64 69 64 	ta000000 000.did
  0xc410	61 74 24 35 00 00 00 00 00 c0 01 00 a0 00 00 00 	at$5000000000000
  0xc420	2e 72 73 72 63 24 30 31 00 00 00 00 a0 c0 01 00 	.rsrc$0100000000
  0xc430	10 06 00 00 2e 72 73 72 63 24 30 32 00 00 00 00 	0000.rsrc$020000
  0xc440	20 00 00 00 af ee 87 ea ae 38 d8 a2 a3 c6 0b cc 	 000000008000000
  0xc450	7c 18 8f eb d8 3b b2 d5 49 44 d9 3e cb aa a4 71 	|0000;00ID0>000q
  0xc460	5d 48 bd 1e 00 00 00 00 19 2c 09 00 1b 34 5b 00 	]H0000000,0004[0
  0xc470	1b 01 52 00 0c e0 0a c0 08 70 07 60 06 50 00 00 	00R000000p0`0P00
  0xc480	70 31 00 00 80 02 00 00 21 1b 04 00 1b f4 5a 00 	p1000000!00000Z0
  0xc490	08 d4 59 00 10 10 00 00 ee 11 00 00 68 c4 00 00 	00Y000000000h000
  0xc4a0	21 00 00 00 10 10 00 00 ee 11 00 00 68 c4 00 00 	!00000000000h000
  0xc4b0	21 00 04 00 00 f4 5a 00 00 d4 59 00 00 33 00 00 	!00000Z000Y00300
  0xc4c0	e4 33 00 00 a0 c4 00 00 01 18 0a 00 18 74 06 00 	0300000000000t00
  0xc4d0	18 64 05 00 18 54 04 00 18 34 03 00 18 f0 16 e0 	0d000T0004000000
  0xc4e0	21 00 00 00 e0 13 00 00 cf 15 00 00 c8 c4 00 00 	!000000000000000
  0xc4f0	01 17 0b 00 17 34 26 00 17 01 1c 00 10 f0 0e e0 	000004&000000000
  0xc500	0c d0 0a c0 08 70 07 60 06 50 00 00 21 00 00 00 	00000p0`0P00!000
  0xc510	e0 15 00 00 e0 1a 00 00 f0 c4 00 00 01 06 02 00 	0000000000000000
  0xc520	06 32 02 30 21 05 02 00 05 74 06 00 f0 1a 00 00 	0200!0000t000000
  0xc530	15 1b 00 00 1c c5 00 00 21 00 00 00 f0 1a 00 00 	00000000!0000000
  0xc540	15 1b 00 00 1c c5 00 00 21 00 02 00 00 74 06 00 	00000000!0000t00
  0xc550	f0 1a 00 00 15 1b 00 00 1c c5 00 00 21 00 00 00 	000000000000!000
  0xc560	f0 1a 00 00 15 1b 00 00 1c c5 00 00 19 24 04 00 	0000000000000$00
  0xc570	13 01 71 00 04 e0 02 50 70 31 00 00 60 03 00 00 	00q0000Pp100`000
  0xc580	21 ce 08 00 ce 74 76 00 bc 64 75 00 1c f4 6e 00 	!0000tv00du000n0
  0xc590	08 34 74 00 a0 1b 00 00 ff 1b 00 00 6c c5 00 00 	04t000000000l000
  0xc5a0	21 1c 04 00 1c d4 6f 00 08 c4 70 00 ff 1b 00 00 	!00000o000p00000
  0xc5b0	02 1e 00 00 80 c5 00 00 21 00 00 00 a0 1b 00 00 	00000000!0000000
  0xc5c0	ff 1b 00 00 6c c5 00 00 21 00 04 00 00 f4 6e 00 	0000l000!00000n0
  0xc5d0	00 34 74 00 ca 39 00 00 de 39 00 00 b8 c5 00 00 	04t0090009000000
  0xc5e0	21 00 08 00 00 f4 6e 00 00 74 76 00 00 64 75 00 	!00000n00tv00du0
  0xc5f0	00 34 74 00 ca 39 00 00 de 39 00 00 b8 c5 00 00 	04t0090009000000
  0xc600	21 00 0c 00 00 f4 6e 00 00 d4 6f 00 00 c4 70 00 	!00000n000o000p0
  0xc610	00 74 76 00 00 64 75 00 00 34 74 00 ca 39 00 00 	0tv00du004t00900
  0xc620	de 39 00 00 b8 c5 00 00 21 00 00 00 ca 39 00 00 	09000000!0000900
  0xc630	de 39 00 00 b8 c5 00 00 01 0a 04 00 0a 34 06 00 	0900000000000400
  0xc640	0a 32 06 70 21 00 00 00 30 23 00 00 46 24 00 00 	020p!0000#00F$00
  0xc650	38 c6 00 00 01 0b 05 00 0b c2 07 f0 05 e0 03 70 	800000000000000p
  0xc660	02 60 00 00 21 08 02 00 08 34 13 00 50 24 00 00 	0`00!0000400P$00
  0xc670	93 24 00 00 54 c6 00 00 21 0f 06 00 0f d4 0a 00 	0$00T000!0000000
  0xc680	0a c4 0b 00 05 54 0c 00 93 24 00 00 bf 24 00 00 	00000T000$000$00
  0xc690	64 c6 00 00 21 00 00 00 93 24 00 00 bf 24 00 00 	d000!0000$000$00
  0xc6a0	64 c6 00 00 21 00 00 00 50 24 00 00 93 24 00 00 	d000!000P$000$00
  0xc6b0	54 c6 00 00 21 00 00 00 50 24 00 00 93 24 00 00 	T000!000P$000$00
  0xc6c0	54 c6 00 00 21 00 02 00 00 34 13 00 6c 45 00 00 	T000!0000400lE00
  0xc6d0	7e 45 00 00 b4 c6 00 00 21 00 08 00 00 d4 0a 00 	~E000000!0000000
  0xc6e0	00 c4 0b 00 00 54 0c 00 00 34 13 00 6c 45 00 00 	00000T000400lE00
  0xc6f0	7e 45 00 00 b4 c6 00 00 01 1c 0c 00 1c 64 0d 00 	~E00000000000d00
  0xc700	1c 54 0b 00 1c 34 0a 00 1c 32 18 f0 16 e0 14 d0 	0T00040002000000
  0xc710	12 c0 10 70 21 00 00 00 60 25 00 00 bc 25 00 00 	000p!000`%000%00
  0xc720	f8 c6 00 00 09 15 08 00 15 74 0a 00 15 64 09 00 	000000000t000d00
  0xc730	15 34 08 00 15 52 11 f0 da 2e 00 00 01 00 00 00 	04000R000.000000
  0xc740	15 27 00 00 7b 28 00 00 b3 32 00 00 7b 28 00 00 	0'00{(000200{(00
  0xc750	01 06 02 00 06 32 02 50 01 00 00 00 01 04 01 00 	0000020P00000000
  0xc760	04 e2 00 00 01 0c 02 00 0c 01 11 00 09 04 01 00 	0000000000000000
  0xc770	04 22 00 00 da 2e 00 00 01 00 00 00 5c 2c 00 00 	0"000.0000000,00
  0xc780	92 2c 00 00 01 00 00 00 92 2c 00 00 09 0a 04 00 	0,0000000,000000
  0xc790	0a 34 06 00 0a 32 06 70 da 2e 00 00 01 00 00 00 	0400020p0.000000
  0xc7a0	6d 2d 00 00 a0 2d 00 00 e0 32 00 00 a0 2d 00 00 	m-000-0002000-00
  0xc7b0	01 0d 04 00 0d 34 09 00 0d 32 06 50 00 00 00 00 	00000400020P0000
  0xc7c0	01 00 00 00 01 18 01 00 18 c2 00 00 01 18 01 00 	0000000000000000
  0xc7d0	18 c2 00 00 01 1a 09 00 1a 64 23 00 1a 34 22 00 	000000000d#004"0
  0xc7e0	1a 01 1c 00 0e e0 0c 70 0b 50 00 00 01 0a 04 00 	0000000p0P000000
  0xc7f0	0a 34 06 00 0a 32 06 70 01 06 02 00 06 32 02 30 	0400020p00000200
  0xc800	01 08 02 00 08 92 04 30 19 1b 04 00 0c 34 0f 00 	0000000000000400
  0xc810	0c b2 08 70 70 31 00 00 50 00 00 00 19 1b 03 00 	000pp100P0000000
  0xc820	09 01 12 00 02 70 00 00 70 31 00 00 80 00 00 00 	00000p00p1000000
  0xc830	01 0a 03 00 0a 62 03 30 02 50 00 00 19 1f 05 00 	00000b000P000000
  0xc840	0d 34 4e 00 0d 01 4a 00 06 70 00 00 70 31 00 00 	04N000J00p00p100
  0xc850	40 02 00 00 19 19 02 00 07 01 65 00 70 31 00 00 	@000000000e0p100
  0xc860	10 03 00 00 01 04 01 00 04 42 00 00 01 14 08 00 	000000000B000000
  0xc870	14 64 0b 00 14 54 0a 00 14 34 09 00 14 52 10 70 	0d000T0004000R0p
  0xc880	01 17 0a 00 17 34 13 00 17 72 10 f0 0e e0 0c d0 	000004000r000000
  0xc890	0a c0 08 70 07 60 06 50 01 0b 04 00 0b 52 04 70 	000p0`0P00000R0p
  0xc8a0	03 30 02 50 01 13 08 00 13 34 0f 00 13 72 0c f0 	000P000004000r00
  0xc8b0	0a e0 08 70 07 60 06 50 01 11 08 00 11 72 0d f0 	000p0`0P00000r00
  0xc8c0	0b e0 09 c0 07 70 06 60 05 50 04 30 01 06 02 00 	00000p0`0P000000
  0xc8d0	06 72 02 30 19 2e 09 00 1d 64 d9 00 1d 34 d8 00 	0r000.000d000400
  0xc8e0	1d 01 d2 00 0e f0 0c 70 0b 50 00 00 70 31 00 00 	0000000p0P00p100
  0xc8f0	80 06 00 00 01 1c 0a 00 1c 64 0f 00 1c 54 0d 00 	000000000d000T00
  0xc900	1c 34 0c 00 1c 72 18 e0 16 d0 14 70 19 2a 0b 00 	04000r00000p0*00
  0xc910	1c 34 2f 00 1c 01 24 00 10 f0 0e e0 0c d0 0a c0 	04/000$000000000
  0xc920	08 70 07 60 06 50 00 00 70 31 00 00 10 01 00 00 	0p0`0P00p1000000
  0xc930	01 21 0a 00 21 34 12 00 21 92 1a f0 18 e0 16 d0 	0!00!400!0000000
  0xc940	14 c0 12 70 11 60 10 50 01 1d 0a 00 1d 01 11 00 	000p0`0P00000000
  0xc950	11 f0 0f e0 0d d0 0b c0 09 70 08 60 07 30 06 50 	000000000p0`000P
  0xc960	19 1f 08 00 10 34 13 00 10 b2 0c f0 0a d0 08 70 	000004000000000p
  0xc970	07 60 06 50 70 31 00 00 50 00 00 00 01 14 08 00 	0`0Pp100P0000000
  0xc980	14 34 0f 00 14 52 10 e0 0e c0 0c 70 0b 60 0a 50 	04000R00000p0`0P
  0xc990	01 0f 06 00 0f 64 07 00 0f 34 06 00 0f 32 0b 70 	00000d000400020p
  0xc9a0	01 15 08 00 15 74 0b 00 15 64 0a 00 15 34 09 00 	00000t000d000400
  0xc9b0	15 52 11 e0 19 1f 05 00 0d 34 1a 00 0d 01 16 00 	0R00000004000000
  0xc9c0	06 70 00 00 70 31 00 00 a0 00 00 00 01 18 0a 00 	0p00p10000000000
  0xc9d0	18 64 0e 00 18 54 0d 00 18 34 0c 00 18 72 14 f0 	0d000T0004000r00
  0xc9e0	12 e0 10 70 01 10 06 00 10 74 0d 00 10 34 0c 00 	000p00000t000400
  0xc9f0	10 92 0c f0 01 17 01 00 17 62 00 00 19 1b 03 00 	000000000b000000
  0xca00	09 01 16 00 02 30 00 00 70 31 00 00 a0 00 00 00 	00000000p1000000
  0xca10	19 24 07 00 12 64 50 00 12 34 4f 00 12 01 4c 00 	0$000dP004O000L0
  0xca20	0b 70 00 00 70 31 00 00 50 02 00 00 01 19 0a 00 	0p00p100P0000000
  0xca30	19 74 09 00 19 64 08 00 19 54 07 00 19 34 06 00 	0t000d000T000400
  0xca40	19 32 15 e0 19 25 0a 00 17 34 14 00 17 b2 10 f0 	02000%0004000000
  0xca50	0e e0 0c d0 0a c0 08 70 07 60 06 50 70 31 00 00 	0000000p0`0Pp100
  0xca60	58 00 00 00 11 0a 04 00 0a 34 0e 00 0a b2 06 70 	X00000000400000p
  0xca70	da 2e 00 00 03 00 00 00 c7 8c 00 00 f9 8c 00 00 	0.00000000000000
  0xca80	89 8d 00 00 00 00 00 00 00 8d 00 00 38 8d 00 00 	0000000000008000
  0xca90	89 8d 00 00 00 00 00 00 42 8d 00 00 4a 8d 00 00 	00000000B000J000
  0xcaa0	89 8d 00 00 00 00 00 00 01 06 02 00 06 52 02 50 	0000000000000R0P
  0xcab0	19 26 0a 00 14 01 8b 00 0d f0 0b e0 09 d0 07 c0 	0&00000000000000
  0xcac0	05 70 04 60 03 50 02 30 70 31 00 00 40 04 00 00 	0p0`0P00p100@000
  0xcad0	19 30 0b 00 1f 34 6c 00 1f 01 64 00 10 f0 0e e0 	000004l000d00000
  0xcae0	0c d0 0a c0 08 70 07 60 06 50 00 00 70 31 00 00 	00000p0`0P00p100
  0xcaf0	10 03 00 00 19 18 02 00 09 f2 02 30 70 31 00 00 	000000000000p100
  0xcb00	70 00 00 00 01 16 01 00 16 a2 00 00 01 12 08 00 	p000000000000000
  0xcb10	12 54 0f 00 12 34 0c 00 12 72 0e e0 0c 70 0b 60 	0T0004000r000p0`
  0xcb20	01 18 0a 00 18 64 0a 00 18 54 09 00 18 34 08 00 	00000d000T000400
  0xcb30	18 32 14 f0 12 e0 10 70 19 37 0d 00 26 74 a8 00 	0200000p0700&t00
  0xcb40	26 64 a7 00 26 34 a6 00 26 01 a0 00 18 f0 16 e0 	&d00&400&0000000
  0xcb50	14 d0 12 c0 10 50 00 00 70 31 00 00 f0 04 00 00 	00000P00p1000000
  0xcb60	19 24 07 00 12 64 2f 00 12 34 2e 00 12 01 2a 00 	0$000d/004.000*0
  0xcb70	0b 70 00 00 70 31 00 00 40 01 00 00 01 14 06 00 	0p00p100@0000000
  0xcb80	14 64 0b 00 14 34 0a 00 14 72 10 70 19 29 0b 00 	0d0004000r0p0)00
  0xcb90	17 34 1d 00 17 01 14 00 10 f0 0e e0 0c d0 0a c0 	0400000000000000
  0xcba0	08 70 07 60 06 50 00 00 70 31 00 00 90 00 00 00 	0p0`0P00p1000000
  0xcbb0	01 14 08 00 14 64 08 00 14 54 07 00 14 34 06 00 	00000d000T000400
  0xcbc0	14 32 10 70 19 1e 06 00 0f 64 0d 00 0f 34 0c 00 	020p00000d000400
  0xcbd0	0f 72 0b 70 70 31 00 00 38 00 00 00 19 25 05 00 	0r0pp10080000%00
  0xcbe0	13 34 0f 02 13 01 0c 02 06 70 00 00 70 31 00 00 	040000000p00p100
  0xcbf0	50 10 00 00 01 17 08 00 17 54 10 00 17 34 0f 00 	P00000000T000400
  0xcc00	17 92 13 e0 11 70 10 60 01 1b 0a 00 1b 54 0d 00 	00000p0`00000T00
  0xcc10	1b 34 0c 00 1b 52 17 f0 15 e0 13 c0 11 70 10 60 	04000R0000000p0`
  0xcc20	01 1c 0c 00 1c 64 10 00 1c 54 0f 00 1c 34 0e 00 	00000d000T000400
  0xcc30	1c 72 18 f0 16 e0 14 d0 12 c0 10 70 01 04 01 00 	0r000000000p0000
  0xcc40	04 62 00 00 01 02 01 00 02 30 00 00 00 00 00 00 	0b00000000000000
  0xcc50	02 04 03 00 01 16 00 06 04 12 00 00 01 00 00 00 	0000000000000000
  0xcc60	c0 b8 00 00 f8 eb 00 00 00 b0 01 00 c0 cc 00 00 	0000000000000000
  0xcc70	18 cd 00 00 00 00 00 00 00 00 00 00 01 00 00 00 	0000000000000000
  0xcc80	f0 b8 00 00 00 ec 00 00 10 b0 01 00 d0 cc 00 00 	0000000000000000
  0xcc90	28 cd 00 00 00 00 00 00 00 00 00 00 00 00 00 00 	(000000000000000
  0xcca0	00 00 00 00 00 00 00 00 00 00 00 00 00 00 00 00 	0000000000000000
  0xccb0	00 00 00 00 00 00 00 00 00 00 00 00 00 00 00 00 	0000000000000000
  0xccc0	e0 cc 00 00 00 00 00 00 00 00 00 00 00 00 00 00 	0000000000000000
  0xccd0	06 cd 00 00 00 00 00 00 00 00 00 00 00 00 00 00 	0000000000000000
  0xcce0	02 00 43 72 65 64 55 49 43 6d 64 4c 69 6e 65 50 	00CredUICmdLineP
  0xccf0	72 6f 6d 70 74 46 6f 72 43 72 65 64 65 6e 74 69 	romptForCredenti
  0xcd00	61 6c 73 57 00 00 01 00 4e 65 74 53 65 72 76 65 	alsW0000NetServe
  0xcd10	72 45 6e 75 6d 00 00 00 00 00 00 00 00 00 00 00 	rEnum00000000000
  0xcd20	00 00 00 00 00 00 00 00 00 00 00 00 00 00 00 00 	0000000000000000
  0xcd30	00 00 00 00 00 00 00 00 60 d2 00 00 00 00 00 00 	00000000`0000000
  0xcd40	00 00 00 00 d8 d5 00 00 18 b4 00 00 50 d1 00 00 	000000000000P000
  0xcd50	00 00 00 00 00 00 00 00 f8 da 00 00 08 b3 00 00 	0000000000000000
  0xcd60	18 d0 00 00 00 00 00 00 00 00 00 00 26 db 00 00 	000000000000&000
  0xcd70	d0 b1 00 00 30 d1 00 00 00 00 00 00 00 00 00 00 	0000000000000000
  0xcd80	4a db 00 00 e8 b2 00 00 20 d2 00 00 00 00 00 00 	J0000000 0000000
  0xcd90	00 00 00 00 72 db 00 00 d8 b3 00 00 40 d2 00 00 	0000r0000000@000
  0xcda0	00 00 00 00 00 00 00 00 94 db 00 00 f8 b3 00 00 	0000000000000000
  0xcdb0	88 d0 00 00 00 00 00 00 00 00 00 00 b8 db 00 00 	0000000000000000
  0xcdc0	40 b2 00 00 d0 d0 00 00 00 00 00 00 00 00 00 00 	@000000000000000
  0xcdd0	e2 db 00 00 88 b2 00 00 e0 d0 00 00 00 00 00 00 	0000000000000000
  0xcde0	00 00 00 00 04 dc 00 00 98 b2 00 00 68 d1 00 00 	000000000000h000
  0xcdf0	00 00 00 00 00 00 00 00 24 dc 00 00 20 b3 00 00 	00000000$000 000
  0xce00	c8 cf 00 00 00 00 00 00 00 00 00 00 4e dc 00 00 	000000000000N000
  0xce10	80 b1 00 00 b0 d1 00 00 00 00 00 00 00 00 00 00 	0000000000000000
  0xce20	56 dc 00 00 68 b3 00 00 50 d4 00 00 00 00 00 00 	V000h000P0000000
  0xce30	00 00 00 00 7a dc 00 00 08 b6 00 00 e0 d3 00 00 	0000z00000000000
  0xce40	00 00 00 00 00 00 00 00 86 dc 00 00 98 b5 00 00 	0000000000000000
  0xce50	28 d4 00 00 00 00 00 00 00 00 00 00 94 dc 00 00 	(000000000000000
  0xce60	e0 b5 00 00 b0 d0 00 00 00 00 00 00 00 00 00 00 	0000000000000000
  0xce70	a0 dc 00 00 68 b2 00 00 38 d4 00 00 00 00 00 00 	0000h00080000000
  0xce80	00 00 00 00 c0 dc 00 00 f0 b5 00 00 b8 cf 00 00 	0000000000000000
  0xce90	00 00 00 00 00 00 00 00 cc dc 00 00 70 b1 00 00 	000000000000p000
  0xcea0	30 d2 00 00 00 00 00 00 00 00 00 00 da dc 00 00 	0000000000000000
  0xceb0	e8 b3 00 00 f0 d1 00 00 00 00 00 00 00 00 00 00 	0000000000000000
  0xcec0	fc dc 00 00 a8 b3 00 00 08 d1 00 00 00 00 00 00 	0000000000000000
  0xced0	00 00 00 00 22 dd 00 00 c0 b2 00 00 a0 d1 00 00 	0000"00000000000
  0xcee0	00 00 00 00 00 00 00 00 4c dd 00 00 58 b3 00 00 	00000000L000X000
  0xcef0	48 d0 00 00 00 00 00 00 00 00 00 00 70 dd 00 00 	H00000000000p000
  0xcf00	00 b2 00 00 f0 d0 00 00 00 00 00 00 00 00 00 00 	0000000000000000
  0xcf10	94 dd 00 00 a8 b2 00 00 10 d2 00 00 00 00 00 00 	0000000000000000
  0xcf20	00 00 00 00 b4 dd 00 00 c8 b3 00 00 58 d0 00 00 	000000000000X000
  0xcf30	00 00 00 00 00 00 00 00 d6 dd 00 00 10 b2 00 00 	0000000000000000
  0xcf40	e0 d1 00 00 00 00 00 00 00 00 00 00 08 de 00 00 	0000000000000000
  0xcf50	98 b3 00 00 08 d0 00 00 00 00 00 00 00 00 00 00 	0000000000000000
  0xcf60	48 de 00 00 c0 b1 00 00 18 d4 00 00 00 00 00 00 	H000000000000000
  0xcf70	00 00 00 00 ba de 00 00 d0 b5 00 00 78 d0 00 00 	000000000000x000
  0xcf80	00 00 00 00 00 00 00 00 7c df 00 00 30 b2 00 00 	00000000|0000000
  0xcf90	68 d0 00 00 00 00 00 00 00 00 00 00 a2 df 00 00 	h000000000000000
  0xcfa0	20 b2 00 00 00 00 00 00 00 00 00 00 00 00 00 00 	 000000000000000
  0xcfb0	00 00 00 00 00 00 00 00 22 d8 00 00 00 00 00 00 	00000000"0000000
  0xcfc0	00 00 00 00 00 00 00 00 ea d6 00 00 00 00 00 00 	0000000000000000
  0xcfd0	70 d7 00 00 00 00 00 00 a4 d7 00 00 00 00 00 00 	p000000000000000
  0xcfe0	e8 d7 00 00 00 00 00 00 da d6 00 00 00 00 00 00 	0000000000000000
  0xcff0	4a d7 00 00 00 00 00 00 24 d7 00 00 00 00 00 00 	J0000000$0000000
  0xd000	00 00 00 00 00 00 00 00 2c de 00 00 00 00 00 00 	00000000,0000000
  0xd010	00 00 00 00 00 00 00 00 58 da 00 00 00 00 00 00 	00000000X0000000
  0xd020	96 d9 00 00 00 00 00 00 84 d9 00 00 00 00 00 00 	0000000000000000
  0xd030	72 d9 00 00 00 00 00 00 0a d6 00 00 00 00 00 00 	r000000000000000
  0xd040	00 00 00 00 00 00 00 00 a6 d9 00 00 00 00 00 00 	0000000000000000
  0xd050	00 00 00 00 00 00 00 00 aa da 00 00 00 00 00 00 	0000000000000000
  0xd060	00 00 00 00 00 00 00 00 64 df 00 00 00 00 00 00 	00000000d0000000
  0xd070	00 00 00 00 00 00 00 00 4c df 00 00 00 00 00 00 	00000000L0000000
  0xd080	00 00 00 00 00 00 00 00 a8 d8 00 00 00 00 00 00 	0000000000000000
  0xd090	ec d9 00 00 00 00 00 00 8c d8 00 00 00 00 00 00 	0000000000000000
  0xd0a0	7e d6 00 00 00 00 00 00 00 00 00 00 00 00 00 00 	~000000000000000
  0xd0b0	3a da 00 00 00 00 00 00 8a da 00 00 00 00 00 00 	:000000000000000
  0xd0c0	02 d8 00 00 00 00 00 00 00 00 00 00 00 00 00 00 	0000000000000000
  0xd0d0	8e d6 00 00 00 00 00 00 00 00 00 00 00 00 00 00 	0000000000000000
  0xd0e0	9c d6 00 00 00 00 00 00 00 00 00 00 00 00 00 00 	0000000000000000
  0xd0f0	68 da 00 00 00 00 00 00 c8 da 00 00 00 00 00 00 	h000000000000000
  0xd100	00 00 00 00 00 00 00 00 ee d8 00 00 00 00 00 00 	0000000000000000
  0xd110	98 da 00 00 00 00 00 00 d6 da 00 00 00 00 00 00 	0000000000000000
  0xd120	fc d9 00 00 00 00 00 00 00 00 00 00 00 00 00 00 	0000000000000000
  0xd130	46 da 00 00 00 00 00 00 30 d6 00 00 00 00 00 00 	F000000000000000
  0xd140	3c d6 00 00 00 00 00 00 00 00 00 00 00 00 00 00 	<000000000000000
  0xd150	f8 d5 00 00 00 00 00 00 20 d6 00 00 00 00 00 00 	00000000 0000000
  0xd160	00 00 00 00 00 00 00 00 1c d9 00 00 00 00 00 00 	0000000000000000
  0xd170	32 d9 00 00 00 00 00 00 c6 d8 00 00 00 00 00 00 	2000000000000000
  0xd180	b2 d6 00 00 00 00 00 00 da d8 00 00 00 00 00 00 	0000000000000000
  0xd190	c4 d6 00 00 00 00 00 00 00 00 00 00 00 00 00 00 	0000000000000000
  0xd1a0	02 d9 00 00 00 00 00 00 00 00 00 00 00 00 00 00 	0000000000000000
  0xd1b0	14 d7 00 00 00 00 00 00 38 d7 00 00 00 00 00 00 	0000000080000000
  0xd1c0	00 d7 00 00 00 00 00 00 b4 d7 00 00 00 00 00 00 	0000000000000000
  0xd1d0	5e d7 00 00 00 00 00 00 00 00 00 00 00 00 00 00 	^000000000000000
  0xd1e0	fa dd 00 00 00 00 00 00 00 00 00 00 00 00 00 00 	0000000000000000
  0xd1f0	4a d8 00 00 00 00 00 00 5e d8 00 00 00 00 00 00 	J0000000^0000000
  0xd200	78 d8 00 00 00 00 00 00 00 00 00 00 00 00 00 00 	x000000000000000
  0xd210	74 da 00 00 00 00 00 00 00 00 00 00 00 00 00 00 	t000000000000000
  0xd220	52 d6 00 00 00 00 00 00 00 00 00 00 00 00 00 00 	R000000000000000
  0xd230	42 d8 00 00 00 00 00 00 00 00 00 00 00 00 00 00 	B000000000000000
  0xd240	68 d6 00 00 00 00 00 00 62 d9 00 00 00 00 00 00 	h0000000b0000000
  0xd250	48 d9 00 00 00 00 00 00 00 00 00 00 00 00 00 00 	H000000000000000
  0xd260	c4 d4 00 00 00 00 00 00 78 d4 00 00 00 00 00 00 	00000000x0000000
  0xd270	ba d4 00 00 00 00 00 00 d0 d4 00 00 00 00 00 00 	0000000000000000
  0xd280	dc d4 00 00 00 00 00 00 e8 d4 00 00 00 00 00 00 	0000000000000000
  0xd290	f2 d4 00 00 00 00 00 00 c8 df 00 00 00 00 00 00 	0000000000000000
  0xd2a0	fe d4 00 00 00 00 00 00 d8 df 00 00 00 00 00 00 	0000000000000000
  0xd2b0	36 df 00 00 00 00 00 00 2c df 00 00 00 00 00 00 	60000000,0000000
  0xd2c0	e2 df 00 00 00 00 00 00 08 d5 00 00 00 00 00 00 	0000000000000000
  0xd2d0	10 d5 00 00 00 00 00 00 1a d5 00 00 00 00 00 00 	0000000000000000
  0xd2e0	42 df 00 00 00 00 00 00 24 d5 00 00 00 00 00 00 	B0000000$0000000
  0xd2f0	30 d5 00 00 00 00 00 00 3a d5 00 00 00 00 00 00 	00000000:0000000
  0xd300	ec df 00 00 00 00 00 00 b0 d4 00 00 00 00 00 00 	0000000000000000
  0xd310	22 df 00 00 00 00 00 00 18 df 00 00 00 00 00 00 	"000000000000000
  0xd320	0e df 00 00 00 00 00 00 a4 d4 00 00 00 00 00 00 	0000000000000000
  0xd330	e4 d5 00 00 00 00 00 00 cc d5 00 00 00 00 00 00 	0000000000000000
  0xd340	c2 d5 00 00 00 00 00 00 aa d5 00 00 00 00 00 00 	0000000000000000
  0xd350	9e d5 00 00 00 00 00 00 8a d5 00 00 00 00 00 00 	0000000000000000
  0xd360	80 d5 00 00 00 00 00 00 78 d5 00 00 00 00 00 00 	00000000x0000000
  0xd370	66 d5 00 00 00 00 00 00 56 d5 00 00 00 00 00 00 	f0000000V0000000
  0xd380	98 d4 00 00 00 00 00 00 8c d4 00 00 00 00 00 00 	0000000000000000
  0xd390	04 df 00 00 00 00 00 00 fc de 00 00 00 00 00 00 	0000000000000000
  0xd3a0	f2 de 00 00 00 00 00 00 e2 de 00 00 00 00 00 00 	0000000000000000
  0xd3b0	d2 de 00 00 00 00 00 00 c4 de 00 00 00 00 00 00 	0000000000000000
  0xd3c0	80 d4 00 00 00 00 00 00 48 d5 00 00 00 00 00 00 	00000000H0000000
  0xd3d0	f6 df 00 00 00 00 00 00 00 00 00 00 00 00 00 00 	0000000000000000
  0xd3e0	94 de 00 00 00 00 00 00 7c de 00 00 00 00 00 00 	00000000|0000000
  0xd3f0	6c de 00 00 00 00 00 00 ba d9 00 00 00 00 00 00 	l000000000000000
  0xd400	c2 d7 00 00 00 00 00 00 d4 d9 00 00 00 00 00 00 	0000000000000000
  0xd410	00 00 00 00 00 00 00 00 a8 de 00 00 00 00 00 00 	0000000000000000
  0xd420	00 00 00 00 00 00 00 00 d6 d7 00 00 00 00 00 00 	0000000000000000
  0xd430	00 00 00 00 00 00 00 00 e4 da 00 00 00 00 00 00 	0000000000000000
  0xd440	12 d8 00 00 00 00 00 00 00 00 00 00 00 00 00 00 	0000000000000000
  0xd450	94 d7 00 00 00 00 00 00 86 d7 00 00 00 00 00 00 	0000000000000000
  0xd460	12 da 00 00 00 00 00 00 28 da 00 00 00 00 00 00 	00000000(0000000
  0xd470	00 00 00 00 00 00 00 00 32 04 65 78 69 74 00 00 	0000000020exit00
  0xd480	b1 04 73 65 74 6c 6f 63 61 6c 65 00 05 05 77 63 	00setlocale000wc
  0xd490	73 63 70 79 5f 73 00 00 00 05 77 63 73 63 61 74 	scpy_s0000wcscat
  0xd4a0	5f 73 00 00 c8 02 5f 73 65 74 6d 6f 64 65 00 00 	_s0000_setmode00
  0xd4b0	1b 01 5f 66 69 6c 65 6e 6f 00 01 05 77 63 73 63 	00_fileno000wcsc
  0xd4c0	68 72 00 00 94 03 5f 77 63 73 6e 69 63 6d 70 00 	hr0000_wcsnicmp0
  0xd4d0	b9 04 73 70 72 69 6e 74 66 5f 73 00 8a 03 5f 77 	00sprintf_s000_w
  0xd4e0	63 73 69 63 6d 70 00 00 3a 03 5f 75 6c 74 6f 77 	csicmp00:0_ultow
  0xd4f0	00 00 72 04 69 73 77 63 74 79 70 65 00 00 a6 03 	00r0iswctype0000
  0xd500	5f 77 63 73 75 70 72 00 a4 04 71 73 6f 72 74 00 	_wcsupr000qsort0
  0xd510	0f 05 77 63 73 70 62 72 6b 00 0b 05 77 63 73 6e 	00wcspbrk000wcsn
  0xd520	63 6d 70 00 0d 05 77 63 73 6e 63 70 79 5f 73 00 	cmp000wcsncpy_s0
  0xd530	10 05 77 63 73 72 63 68 72 00 55 00 5f 58 63 70 	00wcsrchr0U0_Xcp
  0xd540	74 46 69 6c 74 65 72 00 ae 00 5f 61 6d 73 67 5f 	tFilter000_amsg_
  0xd550	65 78 69 74 00 00 7f 00 5f 5f 67 65 74 6d 61 69 	exit0000__getmai
  0xd560	6e 61 72 67 73 00 8e 00 5f 5f 73 65 74 5f 61 70 	nargs000__set_ap
  0xd570	70 5f 74 79 70 65 00 00 0e 01 5f 65 78 69 74 00 	p_type0000_exit0
  0xd580	c1 00 5f 63 65 78 69 74 00 00 90 00 5f 5f 73 65 	00_cexit0000__se
  0xd590	74 75 73 65 72 6d 61 74 68 65 72 72 00 00 7d 01 	tusermatherr00}0
  0xd5a0	5f 69 6e 69 74 74 65 72 6d 00 57 00 5f 5f 43 5f 	_initterm0W0__C_
  0xd5b0	73 70 65 63 69 66 69 63 5f 68 61 6e 64 6c 65 72 	specific_handler
  0xd5c0	00 00 27 01 5f 66 6d 6f 64 65 00 00 d2 00 5f 63 	00'0_fmode0000_c
  0xd5d0	6f 6d 6d 6f 64 65 00 00 6d 73 76 63 72 74 2e 64 	ommode00msvcrt.d
  0xd5e0	6c 6c 00 00 2f 00 3f 74 65 72 6d 69 6e 61 74 65 	ll00/0?terminate
  0xd5f0	40 40 59 41 58 58 5a 00 05 00 47 65 74 43 6f 6d 	@@YAXXZ000GetCom
  0xd600	6d 61 6e 64 4c 69 6e 65 57 00 07 00 47 65 74 43 	mandLineW000GetC
  0xd610	6f 6e 73 6f 6c 65 4f 75 74 70 75 74 43 50 00 00 	onsoleOutputCP00
  0xd620	0c 00 47 65 74 53 74 64 48 61 6e 64 6c 65 00 00 	00GetStdHandle00
  0xd630	0b 00 47 65 74 43 50 49 6e 66 6f 00 3f 00 53 65 	00GetCPInfo0?0Se
  0xd640	74 54 68 72 65 61 64 55 49 4c 61 6e 67 75 61 67 	tThreadUILanguag
  0xd650	65 00 36 00 57 61 69 74 46 6f 72 53 69 6e 67 6c 	e060WaitForSingl
  0xd660	65 4f 62 6a 65 63 74 00 0f 00 47 65 74 53 79 73 	eObject000GetSys
  0xd670	74 65 6d 44 69 72 65 63 74 6f 72 79 57 00 05 00 	temDirectoryW000
  0xd680	47 65 74 4c 61 73 74 45 72 72 6f 72 00 00 00 00 	GetLastError0000
  0xd690	43 6c 6f 73 65 48 61 6e 64 6c 65 00 0a 00 48 65 	CloseHandle000He
  0xd6a0	61 70 53 65 74 49 6e 66 6f 72 6d 61 74 69 6f 6e 	apSetInformation
  0xd6b0	00 00 03 00 43 72 65 61 74 65 50 72 6f 63 65 73 	0000CreateProces
  0xd6c0	73 57 00 00 13 00 47 65 74 45 78 69 74 43 6f 64 	sW0000GetExitCod
  0xd6d0	65 50 72 6f 63 65 73 73 00 00 19 00 57 4e 65 74 	eProcess0000WNet
  0xd6e0	43 6c 6f 73 65 45 6e 75 6d 00 2d 00 57 4e 65 74 	CloseEnum0-0WNet
  0xd6f0	47 65 74 43 6f 6e 6e 65 63 74 69 6f 6e 57 00 00 	GetConnectionW00
  0xd700	25 00 52 65 67 51 75 65 72 79 56 61 6c 75 65 45 	%0RegQueryValueE
  0xd710	78 57 00 00 1e 00 52 65 67 4f 70 65 6e 4b 65 79 	xW0000RegOpenKey
  0xd720	45 78 57 00 32 00 57 4e 65 74 47 65 74 4c 61 73 	ExW020WNetGetLas
  0xd730	74 45 72 72 6f 72 57 00 2e 00 52 65 67 53 65 74 	tErrorW0.0RegSet
  0xd740	56 61 6c 75 65 45 78 57 00 00 25 00 57 4e 65 74 	ValueExW00%0WNet
  0xd750	45 6e 75 6d 52 65 73 6f 75 72 63 65 57 00 03 00 	EnumResourceW000
  0xd760	52 65 67 43 72 65 61 74 65 4b 65 79 45 78 57 00 	RegCreateKeyExW0
  0xd770	0d 00 57 4e 65 74 41 64 64 43 6f 6e 6e 65 63 74 	00WNetAddConnect
  0xd780	69 6f 6e 32 57 00 0b 00 4e 65 74 55 73 65 45 6e 	ion2W000NetUseEn
  0xd790	75 6d 00 00 0c 00 4e 65 74 55 73 65 47 65 74 49 	um0000NetUseGetI
  0xd7a0	6e 66 6f 00 46 00 57 4e 65 74 4f 70 65 6e 45 6e 	nfo0F0WNetOpenEn
  0xd7b0	75 6d 57 00 00 00 52 65 67 43 6c 6f 73 65 4b 65 	umW000RegCloseKe
  0xd7c0	79 00 01 00 4e 65 74 41 70 69 42 75 66 66 65 72 	y000NetApiBuffer
  0xd7d0	46 72 65 65 00 00 1b 00 4e 65 74 55 73 65 72 47 	Free0000NetUserG
  0xd7e0	65 74 49 6e 66 6f 00 00 15 00 57 4e 65 74 43 61 	etInfo0000WNetCa
  0xd7f0	6e 63 65 6c 43 6f 6e 6e 65 63 74 69 6f 6e 32 57 	ncelConnection2W
  0xd800	00 00 28 00 47 65 74 44 72 69 76 65 54 79 70 65 	00(0GetDriveType
  0xd810	57 00 33 00 4e 65 74 53 68 61 72 65 45 6e 75 6d 	W030NetShareEnum
  0xd820	00 00 4b 00 47 65 74 43 75 72 72 65 6e 74 54 68 	00K0GetCurrentTh
  0xd830	72 65 61 64 43 6f 6d 70 61 72 74 6d 65 6e 74 49 	readCompartmentI
  0xd840	64 00 2d 00 53 6c 65 65 70 00 02 00 52 74 6c 43 	d0-0Sleep000RtlC
  0xd850	61 70 74 75 72 65 43 6f 6e 74 65 78 74 00 0a 00 	aptureContext000
  0xd860	52 74 6c 4c 6f 6f 6b 75 70 46 75 6e 63 74 69 6f 	RtlLookupFunctio
  0xd870	6e 45 6e 74 72 79 00 00 10 00 52 74 6c 56 69 72 	nEntry0000RtlVir
  0xd880	74 75 61 6c 55 6e 77 69 6e 64 00 00 11 00 55 6e 	tualUnwind0000Un
  0xd890	68 61 6e 64 6c 65 64 45 78 63 65 70 74 69 6f 6e 	handledException
  0xd8a0	46 69 6c 74 65 72 00 00 0f 00 53 65 74 55 6e 68 	Filter0000SetUnh
  0xd8b0	61 6e 64 6c 65 64 45 78 63 65 70 74 69 6f 6e 46 	andledExceptionF
  0xd8c0	69 6c 74 65 72 00 0c 00 47 65 74 43 75 72 72 65 	ilter000GetCurre
  0xd8d0	6e 74 50 72 6f 63 65 73 73 00 4e 00 54 65 72 6d 	ntProcess0N0Term
  0xd8e0	69 6e 61 74 65 50 72 6f 63 65 73 73 00 00 14 00 	inateProcess0000
  0xd8f0	47 65 74 4d 6f 64 75 6c 65 48 61 6e 64 6c 65 57 	GetModuleHandleW
  0xd900	00 00 00 00 51 75 65 72 79 50 65 72 66 6f 72 6d 	0000QueryPerform
  0xd910	61 6e 63 65 43 6f 75 6e 74 65 72 00 0d 00 47 65 	anceCounter000Ge
  0xd920	74 43 75 72 72 65 6e 74 50 72 6f 63 65 73 73 49 	tCurrentProcessI
  0xd930	64 00 11 00 47 65 74 43 75 72 72 65 6e 74 54 68 	d000GetCurrentTh
  0xd940	72 65 61 64 49 64 00 00 16 00 47 65 74 53 79 73 	readId0000GetSys
  0xd950	74 65 6d 54 69 6d 65 41 73 46 69 6c 65 54 69 6d 	temTimeAsFileTim
  0xd960	65 00 1a 00 47 65 74 54 69 63 6b 43 6f 75 6e 74 	e000GetTickCount
  0xd970	00 00 11 00 53 65 74 43 6f 6e 73 6f 6c 65 4d 6f 	0000SetConsoleMo
  0xd980	64 65 00 00 06 00 47 65 74 43 6f 6e 73 6f 6c 65 	de0000GetConsole
  0xd990	4d 6f 64 65 00 00 0e 00 52 65 61 64 43 6f 6e 73 	Mode0000ReadCons
  0xd9a0	6f 6c 65 57 00 00 0a 00 50 65 65 6b 43 6f 6e 73 	oleW0000PeekCons
  0xd9b0	6f 6c 65 49 6e 70 75 74 57 00 02 00 4e 65 74 41 	oleInputW000NetA
  0xd9c0	70 69 42 75 66 66 65 72 52 65 61 6c 6c 6f 63 61 	piBufferRealloca
  0xd9d0	74 65 00 00 00 00 4e 65 74 41 70 69 42 75 66 66 	te0000NetApiBuff
  0xd9e0	65 72 41 6c 6c 6f 63 61 74 65 00 00 0d 00 53 65 	erAllocate0000Se
  0xd9f0	74 4c 61 73 74 45 72 72 6f 72 00 00 10 00 47 65 	tLastError0000Ge
  0xda00	74 4d 6f 64 75 6c 65 46 69 6c 65 4e 61 6d 65 57 	tModuleFileNameW
  0xda10	00 00 15 00 4e 65 74 57 6b 73 74 61 55 73 65 72 	0000NetWkstaUser
  0xda20	47 65 74 49 6e 66 6f 00 0e 00 4e 65 74 57 6b 73 	GetInfo000NetWks
  0xda30	74 61 47 65 74 49 6e 66 6f 00 5b 00 57 72 69 74 	taGetInfo0[0Writ
  0xda40	65 46 69 6c 65 00 09 00 46 6f 72 6d 61 74 4d 65 	eFile000FormatMe
  0xda50	73 73 61 67 65 57 00 00 13 00 57 72 69 74 65 43 	ssageW0000WriteC
  0xda60	6f 6e 73 6f 6c 65 57 00 03 00 4c 6f 63 61 6c 46 	onsoleW000LocalF
  0xda70	72 65 65 00 07 00 57 69 64 65 43 68 61 72 54 6f 	ree000WideCharTo
  0xda80	4d 75 6c 74 69 42 79 74 65 00 31 00 47 65 74 46 	MultiByte010GetF
  0xda90	69 6c 65 54 79 70 65 00 18 00 4c 6f 61 64 4c 69 	ileType000LoadLi
  0xdaa0	62 72 61 72 79 45 78 57 00 00 09 00 47 65 74 43 	braryExW0000GetC
  0xdab0	6f 6e 73 6f 6c 65 53 63 72 65 65 6e 42 75 66 66 	onsoleScreenBuff
  0xdac0	65 72 49 6e 66 6f 00 00 02 00 4c 6f 63 61 6c 41 	erInfo0000LocalA
  0xdad0	6c 6c 6f 63 00 00 0c 00 46 72 65 65 4c 69 62 72 	lloc0000FreeLibr
  0xdae0	61 72 79 00 24 00 4e 65 74 53 65 72 76 65 72 47 	ary0$0NetServerG
  0xdaf0	65 74 49 6e 66 6f 00 00 61 70 69 2d 6d 73 2d 77 	etInfo00api-ms-w
  0xdb00	69 6e 2d 63 6f 72 65 2d 70 72 6f 63 65 73 73 65 	in-core-processe
  0xdb10	6e 76 69 72 6f 6e 6d 65 6e 74 2d 6c 31 2d 31 2d 	nvironment-l1-1-
  0xdb20	30 2e 64 6c 6c 00 61 70 69 2d 6d 73 2d 77 69 6e 	0.dll0api-ms-win
  0xdb30	2d 63 6f 72 65 2d 63 6f 6e 73 6f 6c 65 2d 6c 31 	-core-console-l1
  0xdb40	2d 31 2d 30 2e 64 6c 6c 00 00 61 70 69 2d 6d 73 	-1-0.dll00api-ms
  0xdb50	2d 77 69 6e 2d 63 6f 72 65 2d 6c 6f 63 61 6c 69 	-win-core-locali
  0xdb60	7a 61 74 69 6f 6e 2d 6c 31 2d 32 2d 30 2e 64 6c 	zation-l1-2-0.dl
  0xdb70	6c 00 61 70 69 2d 6d 73 2d 77 69 6e 2d 63 6f 72 	l0api-ms-win-cor
  0xdb80	65 2d 73 79 6e 63 68 2d 6c 31 2d 31 2d 30 2e 64 	e-synch-l1-1-0.d
  0xdb90	6c 6c 00 00 61 70 69 2d 6d 73 2d 77 69 6e 2d 63 	ll00api-ms-win-c
  0xdba0	6f 72 65 2d 73 79 73 69 6e 66 6f 2d 6c 31 2d 31 	ore-sysinfo-l1-1
  0xdbb0	2d 30 2e 64 6c 6c 00 00 61 70 69 2d 6d 73 2d 77 	-0.dll00api-ms-w
  0xdbc0	69 6e 2d 63 6f 72 65 2d 65 72 72 6f 72 68 61 6e 	in-core-errorhan
  0xdbd0	64 6c 69 6e 67 2d 6c 31 2d 31 2d 30 2e 64 6c 6c 	dling-l1-1-0.dll
  0xdbe0	00 00 61 70 69 2d 6d 73 2d 77 69 6e 2d 63 6f 72 	00api-ms-win-cor
  0xdbf0	65 2d 68 61 6e 64 6c 65 2d 6c 31 2d 31 2d 30 2e 	e-handle-l1-1-0.
  0xdc00	64 6c 6c 00 61 70 69 2d 6d 73 2d 77 69 6e 2d 63 	dll0api-ms-win-c
  0xdc10	6f 72 65 2d 68 65 61 70 2d 6c 31 2d 31 2d 30 2e 	ore-heap-l1-1-0.
  0xdc20	64 6c 6c 00 61 70 69 2d 6d 73 2d 77 69 6e 2d 63 	dll0api-ms-win-c
  0xdc30	6f 72 65 2d 70 72 6f 63 65 73 73 74 68 72 65 61 	ore-processthrea
  0xdc40	64 73 2d 6c 31 2d 31 2d 30 2e 64 6c 6c 00 4d 50 	ds-l1-1-0.dll0MP
  0xdc50	52 2e 64 6c 6c 00 61 70 69 2d 6d 73 2d 77 69 6e 	R.dll0api-ms-win
  0xdc60	2d 63 6f 72 65 2d 72 65 67 69 73 74 72 79 2d 6c 	-core-registry-l
  0xdc70	31 2d 31 2d 30 2e 64 6c 6c 00 77 6b 73 63 6c 69 	1-1-0.dll0wkscli
  0xdc80	2e 64 6c 6c 00 00 6e 65 74 75 74 69 6c 73 2e 64 	.dll00netutils.d
  0xdc90	6c 6c 00 00 73 61 6d 63 6c 69 2e 64 6c 6c 00 00 	ll00samcli.dll00
  0xdca0	61 70 69 2d 6d 73 2d 77 69 6e 2d 63 6f 72 65 2d 	api-ms-win-core-
  0xdcb0	66 69 6c 65 2d 6c 31 2d 31 2d 30 2e 64 6c 6c 00 	file-l1-1-0.dll0
  0xdcc0	73 72 76 63 6c 69 2e 64 6c 6c 00 00 49 50 48 4c 	srvcli.dll00IPHL
  0xdcd0	50 41 50 49 2e 44 4c 4c 00 00 61 70 69 2d 6d 73 	PAPI.DLL00api-ms
  0xdce0	2d 77 69 6e 2d 63 6f 72 65 2d 73 79 6e 63 68 2d 	-win-core-synch-
  0xdcf0	6c 31 2d 32 2d 30 2e 64 6c 6c 00 00 61 70 69 2d 	l1-2-0.dll00api-
  0xdd00	6d 73 2d 77 69 6e 2d 63 6f 72 65 2d 72 74 6c 73 	ms-win-core-rtls
  0xdd10	75 70 70 6f 72 74 2d 6c 31 2d 31 2d 30 2e 64 6c 	upport-l1-1-0.dl
  0xdd20	6c 00 61 70 69 2d 6d 73 2d 77 69 6e 2d 63 6f 72 	l0api-ms-win-cor
  0xdd30	65 2d 6c 69 62 72 61 72 79 6c 6f 61 64 65 72 2d 	e-libraryloader-
  0xdd40	6c 31 2d 32 2d 30 2e 64 6c 6c 00 00 61 70 69 2d 	l1-2-0.dll00api-
  0xdd50	6d 73 2d 77 69 6e 2d 63 6f 72 65 2d 70 72 6f 66 	ms-win-core-prof
  0xdd60	69 6c 65 2d 6c 31 2d 31 2d 30 2e 64 6c 6c 00 00 	ile-l1-1-0.dll00
  0xdd70	61 70 69 2d 6d 73 2d 77 69 6e 2d 63 6f 72 65 2d 	api-ms-win-core-
  0xdd80	63 6f 6e 73 6f 6c 65 2d 6c 31 2d 32 2d 30 2e 64 	console-l1-2-0.d
  0xdd90	6c 6c 00 00 61 70 69 2d 6d 73 2d 77 69 6e 2d 63 	ll00api-ms-win-c
  0xdda0	6f 72 65 2d 68 65 61 70 2d 6c 32 2d 31 2d 30 2e 	ore-heap-l2-1-0.
  0xddb0	64 6c 6c 00 61 70 69 2d 6d 73 2d 77 69 6e 2d 63 	dll0api-ms-win-c
  0xddc0	6f 72 65 2d 73 74 72 69 6e 67 2d 6c 31 2d 31 2d 	ore-string-l1-1-
  0xddd0	30 2e 64 6c 6c 00 61 70 69 2d 6d 73 2d 77 69 6e 	0.dll0api-ms-win
  0xdde0	2d 63 6f 72 65 2d 63 6f 6e 73 6f 6c 65 2d 6c 32 	-core-console-l2
  0xddf0	2d 31 2d 30 2e 64 6c 6c 00 00 11 00 52 65 67 4f 	-1-0.dll0000RegO
  0xde00	70 65 6e 4b 65 79 57 00 61 70 69 2d 6d 73 2d 77 	penKeyW0api-ms-w
  0xde10	69 6e 2d 63 6f 72 65 2d 72 65 67 69 73 74 72 79 	in-core-registry
  0xde20	2d 6c 32 2d 31 2d 30 2e 64 6c 6c 00 00 00 41 70 	-l2-1-0.dll000Ap
  0xde30	69 53 65 74 51 75 65 72 79 41 70 69 53 65 74 50 	iSetQueryApiSetP
  0xde40	72 65 73 65 6e 63 65 00 61 70 69 2d 6d 73 2d 77 	resence0api-ms-w
  0xde50	69 6e 2d 63 6f 72 65 2d 61 70 69 71 75 65 72 79 	in-core-apiquery
  0xde60	2d 6c 31 2d 31 2d 30 2e 64 6c 6c 00 15 00 4e 65 	-l1-1-0.dll000Ne
  0xde70	74 70 77 50 61 74 68 54 79 70 65 00 05 00 4e 65 	tpwPathType000Ne
  0xde80	74 61 70 69 70 42 75 66 66 65 72 41 6c 6c 6f 63 	tapipBufferAlloc
  0xde90	61 74 65 00 12 00 4e 65 74 70 77 4e 61 6d 65 56 	ate000NetpwNameV
  0xdea0	61 6c 69 64 61 74 65 00 d2 02 52 74 6c 41 6c 6c 	alidate000RtlAll
  0xdeb0	6f 63 61 74 65 48 65 61 70 00 6e 74 64 6c 6c 2e 	ocateHeap0ntdll.
  0xdec0	64 6c 6c 00 81 00 5f 5f 69 6f 62 5f 66 75 6e 63 	dll000__iob_func
  0xded0	00 00 d7 02 5f 73 6e 77 70 72 69 6e 74 66 5f 73 	0000_snwprintf_s
  0xdee0	00 00 6b 03 5f 76 73 6e 77 70 72 69 6e 74 66 5f 	00k0_vsnwprintf_
  0xdef0	73 00 a0 04 70 75 74 63 68 61 72 00 4c 04 66 72 	s000putchar0L0fr
  0xdf00	65 65 00 00 86 04 6d 61 6c 6c 6f 63 00 00 13 05 	ee0000malloc0000
  0xdf10	77 63 73 73 70 6e 00 00 25 04 63 61 6c 6c 6f 63 	wcsspn00%0calloc
  0xdf20	00 00 06 05 77 63 73 63 73 70 6e 00 85 03 5f 77 	0000wcscspn000_w
  0xdf30	63 73 64 75 70 00 0a 05 77 63 73 6e 63 61 74 5f 	csdup000wcsncat_
  0xdf40	73 00 16 05 77 63 73 74 6f 6b 00 00 01 00 52 65 	s000wcstok0000Re
  0xdf50	73 6f 6c 76 65 44 65 6c 61 79 4c 6f 61 64 65 64 	solveDelayLoaded
  0xdf60	41 50 49 00 00 00 44 65 6c 61 79 4c 6f 61 64 46 	API000DelayLoadF
  0xdf70	61 69 6c 75 72 65 48 6f 6f 6b 00 00 61 70 69 2d 	ailureHook00api-
  0xdf80	6d 73 2d 77 69 6e 2d 63 6f 72 65 2d 64 65 6c 61 	ms-win-core-dela
  0xdf90	79 6c 6f 61 64 2d 6c 31 2d 31 2d 31 2e 64 6c 6c 	yload-l1-1-1.dll
  0xdfa0	00 00 61 70 69 2d 6d 73 2d 77 69 6e 2d 63 6f 72 	00api-ms-win-cor
  0xdfb0	65 2d 64 65 6c 61 79 6c 6f 61 64 2d 6c 31 2d 31 	e-delayload-l1-1
  0xdfc0	2d 30 2e 64 6c 6c 00 00 e1 01 5f 6c 6f 63 61 6c 	-0.dll0000_local
  0xdfd0	5f 75 6e 77 69 6e 64 00 92 04 6d 65 6d 63 70 79 	_unwind000memcpy
  0xdfe0	00 00 94 04 6d 65 6d 6d 6f 76 65 00 96 04 6d 65 	0000memmove000me
  0xdff0	6d 73 65 74 00 00 02 05 77 63 73 63 6d 70 00 00 	mset0000wcscmp00
=== DATA BLOCK END ===

=== DATA BLOCK ADDRESS 0xe000 ===
  0xe000	58 02 00 00 00 00 00 00 48 bd 00 40 01 00 00 00 	X0000000H00@0000
  0xe010	59 02 00 00 00 00 00 00 50 bd 00 40 01 00 00 00 	Y0000000P00@0000
  0xe020	00 00 00 00 00 00 00 00 00 00 00 00 00 00 00 00 	0000000000000000
  0xe030	90 e3 00 40 01 00 00 00 00 00 00 00 00 00 00 00 	000@000000000000
  0xe040	01 00 00 00 00 00 00 00 a0 e3 00 40 01 00 00 00 	00000000000@0000
  0xe050	00 00 00 00 00 00 00 00 01 00 00 00 00 00 00 00 	0000000000000000
  0xe060	80 e3 00 40 01 00 00 00 00 00 00 00 00 00 00 00 	000@000000000000
  0xe070	00 00 00 00 00 00 00 00 70 e3 00 40 01 00 00 00 	00000000p00@0000
  0xe080	00 00 00 00 00 00 00 00 00 00 00 00 00 00 00 00 	0000000000000000
  0xe090	00 00 00 00 00 00 00 00 00 00 00 00 00 00 00 00 	0000000000000000
  0xe0a0	00 00 00 00 00 00 00 00 00 00 00 00 00 00 00 00 	0000000000000000
  0xe0b0	48 e3 00 40 01 00 00 00 00 00 00 00 00 00 00 00 	H00@000000000000
  0xe0c0	02 00 00 00 00 00 00 00 30 e3 00 40 01 00 00 00 	00000000000@0000
  0xe0d0	00 00 00 00 00 00 00 00 02 00 00 00 00 00 00 00 	0000000000000000
  0xe0e0	b8 e3 00 40 01 00 00 00 00 00 00 00 00 00 00 00 	000@000000000000
  0xe0f0	00 00 00 00 00 00 00 00 c0 e2 00 40 01 00 00 00 	00000000000@0000
  0xe100	00 00 00 00 00 00 00 00 00 00 00 00 00 00 00 00 	0000000000000000
  0xe110	58 e3 00 40 01 00 00 00 00 00 00 00 00 00 00 00 	X00@000000000000
  0xe120	00 00 00 00 00 00 00 00 d8 e2 00 40 01 00 00 00 	00000000000@0000
  0xe130	00 00 00 00 00 00 00 00 00 00 00 00 00 00 00 00 	0000000000000000
  0xe140	a0 e2 00 40 01 00 00 00 00 00 00 00 00 00 00 00 	000@000000000000
  0xe150	00 00 00 00 00 00 00 00 00 e3 00 40 01 00 00 00 	00000000000@0000
  0xe160	00 00 00 00 00 00 00 00 00 00 00 00 00 00 00 00 	0000000000000000
  0xe170	20 e3 00 40 01 00 00 00 00 00 00 00 00 00 00 00 	 00@000000000000
  0xe180	00 00 00 00 00 00 00 00 00 00 00 00 00 00 00 00 	0000000000000000
  0xe190	00 00 00 00 00 00 00 00 00 00 00 00 00 00 00 00 	0000000000000000
  0xe1a0	60 bd 00 40 01 00 00 00 60 bd 00 40 01 00 00 00 	`00@0000`00@0000
  0xe1b0	60 bd 00 40 01 00 00 00 60 bd 00 40 01 00 00 00 	`00@0000`00@0000
  0xe1c0	60 bd 00 40 01 00 00 00 60 bd 00 40 01 00 00 00 	`00@0000`00@0000
  0xe1d0	60 bd 00 40 01 00 00 00 60 bd 00 40 01 00 00 00 	`00@0000`00@0000
  0xe1e0	60 bd 00 40 01 00 00 00 00 00 00 00 00 00 00 00 	`00@000000000000
  0xe1f0	28 e6 00 40 01 00 00 00 01 00 00 00 00 00 00 00 	(00@000000000000
  0xe200	2c e6 00 40 01 00 00 00 02 00 00 00 00 00 00 00 	,00@000000000000
  0xe210	00 00 00 00 00 00 00 00 00 00 00 00 00 00 00 00 	0000000000000000
  0xe220	00 00 00 00 00 00 00 00 00 00 00 00 00 00 00 00 	0000000000000000
  0xe230	00 00 00 00 00 00 00 00 00 00 00 00 00 00 00 00 	0000000000000000
  0xe240	00 00 00 00 00 00 00 00 00 00 00 00 00 00 00 00 	0000000000000000
  0xe250	00 00 00 00 00 00 00 00 00 00 00 00 00 00 00 00 	0000000000000000
  0xe260	00 00 00 00 00 00 00 00 00 00 00 00 00 00 00 00 	0000000000000000
  0xe270	00 00 00 00 00 00 00 00 00 00 00 00 00 00 00 00 	0000000000000000
  0xe280	01 00 00 00 00 00 00 00 32 a2 df 2d 99 2b 00 00 	00000000200-0+00
  0xe290	cd 5d 20 d2 66 d4 ff ff 00 00 00 00 00 00 00 00 	0] 0f00000000000
  0xe2a0	2f 00 52 00 45 00 51 00 55 00 49 00 52 00 45 00 	/0R0E0Q0U0I0R0E0
  0xe2b0	50 00 52 00 49 00 56 00 41 00 43 00 59 00 00 00 	P0R0I0V0A0C0Y000
  0xe2c0	2f 00 53 00 4d 00 41 00 52 00 54 00 43 00 41 00 	/0S0M0A0R0T0C0A0
  0xe2d0	52 00 44 00 00 00 00 00 2f 00 52 00 45 00 51 00 	R0D00000/0R0E0Q0
  0xe2e0	55 00 49 00 52 00 45 00 49 00 4e 00 54 00 45 00 	U0I0R0E0I0N0T0E0
  0xe2f0	47 00 52 00 49 00 54 00 59 00 00 00 00 00 00 00 	G0R0I0T0Y0000000
  0xe300	2f 00 57 00 52 00 49 00 54 00 45 00 54 00 48 00 	/0W0R0I0T0E0T0H0
  0xe310	52 00 4f 00 55 00 47 00 48 00 00 00 00 00 00 00 	R0O0U0G0H0000000
  0xe320	2f 00 44 00 45 00 4c 00 45 00 54 00 45 00 00 00 	/0D0E0L0E0T0E000
  0xe330	2f 00 50 00 45 00 52 00 53 00 49 00 53 00 54 00 	/0P0E0R0S0I0S0T0
  0xe340	45 00 4e 00 54 00 00 00 2f 00 55 00 53 00 45 00 	E0N0T000/0U0S0E0
  0xe350	52 00 00 00 00 00 00 00 2f 00 53 00 41 00 56 00 	R0000000/0S0A0V0
  0xe360	45 00 43 00 52 00 45 00 44 00 00 00 00 00 00 00 	E0C0R0E0D0000000
  0xe370	2f 00 41 00 4c 00 4c 00 00 00 00 00 00 00 00 00 	/0A0L0L000000000
  0xe380	2f 00 43 00 41 00 43 00 48 00 45 00 00 00 00 00 	/0C0A0C0H0E00000
  0xe390	2f 00 44 00 4f 00 4d 00 41 00 49 00 4e 00 00 00 	/0D0O0M0A0I0N000
  0xe3a0	2f 00 4e 00 45 00 54 00 57 00 4f 00 52 00 4b 00 	/0N0E0T0W0O0R0K0
  0xe3b0	00 00 00 00 00 00 00 00 2f 00 48 00 4f 00 4d 00 	00000000/0H0O0M0
  0xe3c0	45 00 00 00 00 00 00 00 00 00 00 00 00 00 00 00 	E000000000000000
  0xe3d0	73 12 00 00 00 00 00 00 00 00 00 00 00 00 00 00 	s000000000000000
  0xe3e0	74 12 00 00 00 00 00 00 00 00 00 00 00 00 00 00 	t000000000000000
  0xe3f0	75 12 00 00 00 00 00 00 00 00 00 00 00 00 00 00 	u000000000000000
  0xe400	e1 10 00 00 00 00 00 00 00 00 00 00 00 00 00 00 	0000000000000000
  0xe410	72 12 00 00 00 00 00 00 00 00 00 00 00 00 00 00 	r000000000000000
  0xe420	e1 10 00 00 00 00 00 00 00 00 00 00 00 00 00 00 	0000000000000000
  0xe430	76 12 00 00 00 00 00 00 00 00 00 00 00 00 00 00 	v000000000000000
  0xe440	77 12 00 00 00 00 00 00 00 00 00 00 00 00 00 00 	w000000000000000
  0xe450	6b 12 00 00 00 00 00 00 00 00 00 00 00 00 00 00 	k000000000000000
  0xe460	6d 12 00 00 00 00 00 00 00 00 00 00 00 00 00 00 	m000000000000000
  0xe470	6e 12 00 00 00 00 00 00 00 00 00 00 00 00 00 00 	n000000000000000
  0xe480	6f 12 00 00 00 00 00 00 00 00 00 00 00 00 00 00 	o000000000000000
  0xe490	70 12 00 00 00 00 00 00 00 00 00 00 00 00 00 00 	p000000000000000
  0xe4a0	71 12 00 00 00 00 00 00 00 00 00 00 00 00 00 00 	q000000000000000
  0xe4b0	78 12 00 00 00 00 00 00 00 00 00 00 00 00 00 00 	x000000000000000
  0xe4c0	5e 12 00 00 00 00 00 00 00 00 00 00 00 00 00 00 	^000000000000000
  0xe4d0	5f 12 00 00 00 00 00 00 00 00 00 00 00 00 00 00 	_000000000000000
  0xe4e0	66 12 00 00 00 00 00 00 00 00 00 00 00 00 00 00 	f000000000000000
  0xe4f0	68 12 00 00 00 00 00 00 00 00 00 00 00 00 00 00 	h000000000000000
  0xe500	67 12 00 00 00 00 00 00 00 00 00 00 00 00 00 00 	g000000000000000
  0xe510	69 12 00 00 00 00 00 00 00 00 00 00 00 00 00 00 	i000000000000000
  0xe520	e1 10 00 00 00 00 00 00 00 00 00 00 00 00 00 00 	0000000000000000
  0xe530	a2 12 00 00 00 00 00 00 00 00 00 00 00 00 00 00 	0000000000000000
  0xe540	a3 12 00 00 00 00 00 00 00 00 00 00 00 00 00 00 	0000000000000000
  0xe550	a4 12 00 00 00 00 00 00 00 00 00 00 00 00 00 00 	0000000000000000
  0xe560	a5 12 00 00 00 00 00 00 00 00 00 00 00 00 00 00 	0000000000000000
  0xe570	a6 12 00 00 00 00 00 00 00 00 00 00 00 00 00 00 	0000000000000000
  0xe580	2f 00 4e 00 4f 00 00 00 2f 00 59 00 45 00 53 00 	/0N0O000/0Y0E0S0
  0xe590	00 00 00 00 00 00 00 00 2f 00 48 00 45 00 4c 00 	00000000/0H0E0L0
  0xe5a0	50 00 00 00 2f 00 3f 00 00 00 00 00 00 00 00 00 	P000/0?000000000
  0xe5b0	cc 10 00 00 01 00 00 00 cd 10 00 00 02 00 00 00 	0000000000000000
  0xe5c0	f8 10 00 00 01 00 00 00 f9 10 00 00 02 00 00 00 	0000000000000000
  0xe5d0	00 00 00 00 00 00 00 00 08 00 00 00 a0 00 00 00 	0000000000000000
  0xe5e0	10 00 00 00 a8 00 00 00 ff ff ff ff ff ff ff ff 	0000000000000000
  0xe5f0	20 00 00 00 08 00 00 00 08 00 00 00 10 00 00 00 	 000000000000000
  0xe600	10 00 00 00 20 00 00 00 ff ff ff ff ff ff ff ff 	0000 00000000000
  0xe610	00 00 00 00 18 00 00 00 18 00 00 00 88 00 00 00 	0000000000000000
  0xe620	ff ff ff ff ff ff ff ff 59 65 73 00 4e 6f 00 00 	00000000Yes0No00
  0xe630	00 00 00 00 00 00 00 00 00 00 00 00 00 00 00 00 	0000000000000000
  0xe640	00 00 00 00 00 00 00 00 00 00 00 00 00 00 00 00 	0000000000000000
  0xe650	00 00 00 00 00 00 00 00 00 00 00 00 00 00 00 00 	0000000000000000
  0xe660	00 00 00 00 00 00 00 00 00 00 00 00 00 00 00 00 	0000000000000000
  0xe670	00 00 00 00 00 00 00 00 00 00 00 00 00 00 00 00 	0000000000000000
  0xe680	00 00 00 00 00 00 00 00 00 00 00 00 00 00 00 00 	0000000000000000
  0xe690	00 00 00 00 00 00 00 00 00 00 00 00 00 00 00 00 	0000000000000000
  0xe6a0	00 00 00 00 00 00 00 00 00 00 00 00 00 00 00 00 	0000000000000000
  0xe6b0	00 00 00 00 00 00 00 00 00 00 00 00 00 00 00 00 	0000000000000000
  0xe6c0	00 00 00 00 00 00 00 00 00 00 00 00 00 00 00 00 	0000000000000000
  0xe6d0	00 00 00 00 00 00 00 00 00 00 00 00 00 00 00 00 	0000000000000000
  0xe6e0	00 00 00 00 00 00 00 00 00 00 00 00 00 00 00 00 	0000000000000000
  0xe6f0	00 00 00 00 00 00 00 00 00 00 00 00 00 00 00 00 	0000000000000000
  0xe700	00 00 00 00 00 00 00 00 00 00 00 00 00 00 00 00 	0000000000000000
  0xe710	00 00 00 00 00 00 00 00 00 00 00 00 00 00 00 00 	0000000000000000
  0xe720	00 00 00 00 00 00 00 00 00 00 00 00 00 00 00 00 	0000000000000000
  0xe730	00 00 00 00 00 00 00 00 00 00 00 00 00 00 00 00 	0000000000000000
  0xe740	00 00 00 00 00 00 00 00 00 00 00 00 00 00 00 00 	0000000000000000
  0xe750	00 00 00 00 00 00 00 00 00 00 00 00 00 00 00 00 	0000000000000000
  0xe760	00 00 00 00 00 00 00 00 00 00 00 00 00 00 00 00 	0000000000000000
  0xe770	00 00 00 00 00 00 00 00 00 00 00 00 00 00 00 00 	0000000000000000
  0xe780	00 00 00 00 00 00 00 00 00 00 00 00 00 00 00 00 	0000000000000000
  0xe790	00 00 00 00 00 00 00 00 00 00 00 00 00 00 00 00 	0000000000000000
  0xe7a0	00 00 00 00 00 00 00 00 00 00 00 00 00 00 00 00 	0000000000000000
  0xe7b0	00 00 00 00 00 00 00 00 00 00 00 00 00 00 00 00 	0000000000000000
  0xe7c0	00 00 00 00 00 00 00 00 00 00 00 00 00 00 00 00 	0000000000000000
  0xe7d0	00 00 00 00 00 00 00 00 00 00 00 00 00 00 00 00 	0000000000000000
  0xe7e0	00 00 00 00 00 00 00 00 00 00 00 00 00 00 00 00 	0000000000000000
  0xe7f0	00 00 00 00 00 00 00 00 00 00 00 00 00 00 00 00 	0000000000000000
=== DATA BLOCK END ===

=== DATA BLOCK ADDRESS 0x1a000 ===
  0x1a000	10 10 00 00 ee 11 00 00 68 c4 00 00 ee 11 00 00 	00000000h0000000
  0x1a010	d3 13 00 00 88 c4 00 00 e0 13 00 00 cf 15 00 00 	0000000000000000
  0x1a020	c8 c4 00 00 e0 15 00 00 e0 1a 00 00 f0 c4 00 00 	0000000000000000
  0x1a030	f0 1a 00 00 15 1b 00 00 1c c5 00 00 15 1b 00 00 	0000000000000000
  0x1a040	6a 1b 00 00 24 c5 00 00 6a 1b 00 00 7e 1b 00 00 	j000$000j000~000
  0x1a050	38 c5 00 00 7e 1b 00 00 8e 1b 00 00 48 c5 00 00 	8000~0000000H000
  0x1a060	8e 1b 00 00 8f 1b 00 00 5c c5 00 00 a0 1b 00 00 	0000000000000000
  0x1a070	ff 1b 00 00 6c c5 00 00 ff 1b 00 00 02 1e 00 00 	0000l00000000000
  0x1a080	80 c5 00 00 02 1e 00 00 23 23 00 00 a0 c5 00 00 	00000000##000000
  0x1a090	30 23 00 00 46 24 00 00 38 c6 00 00 50 24 00 00 	0#00F$008000P$00
  0x1a0a0	93 24 00 00 54 c6 00 00 93 24 00 00 bf 24 00 00 	0$00T0000$000$00
  0x1a0b0	64 c6 00 00 bf 24 00 00 3e 25 00 00 78 c6 00 00 	d0000$00>%00x000
  0x1a0c0	3e 25 00 00 51 25 00 00 94 c6 00 00 51 25 00 00 	>%00Q%000000Q%00
  0x1a0d0	52 25 00 00 a4 c6 00 00 60 25 00 00 bc 25 00 00 	R%000000`%000%00
  0x1a0e0	f8 c6 00 00 d0 25 00 00 a3 26 00 00 64 c8 00 00 	00000%000&00d000
  0x1a0f0	b0 26 00 00 f9 26 00 00 3c cc 00 00 00 27 00 00 	0&000&00<0000'00
  0x1a100	be 28 00 00 24 c7 00 00 d0 28 00 00 e2 28 00 00 	0(00$0000(000(00
  0x1a110	64 c8 00 00 00 29 00 00 1e 29 00 00 58 c7 00 00 	d0000)000)00X000
  0x1a120	24 29 00 00 58 29 00 00 f8 c7 00 00 60 29 00 00 	$)00X)000000`)00
  0x1a130	d1 2a 00 00 64 c7 00 00 d8 2a 00 00 cf 2b 00 00 	0*00d0000*000+00
  0x1a140	5c c7 00 00 e0 2b 00 00 19 2c 00 00 64 c8 00 00 	00000+000,00d000
  0x1a150	20 2c 00 00 38 2c 00 00 64 c8 00 00 4c 2c 00 00 	 ,008,00d000L,00
  0x1a160	a0 2c 00 00 6c c7 00 00 a8 2c 00 00 ed 2c 00 00 	0,00l0000,000,00
  0x1a170	f8 c7 00 00 60 2d 00 00 ad 2d 00 00 8c c7 00 00 	0000`-000-000000
  0x1a180	f4 2d 00 00 c8 2e 00 00 b0 c7 00 00 08 2f 00 00 	0-000.0000000/00
  0x1a190	26 2f 00 00 f8 c7 00 00 2c 2f 00 00 7a 2f 00 00 	&/000000,/00z/00
  0x1a1a0	64 c8 00 00 8c 2f 00 00 03 30 00 00 c4 c7 00 00 	d0000/0000000000
  0x1a1b0	28 30 00 00 9f 30 00 00 cc c7 00 00 a8 30 00 00 	(000000000000000
  0x1a1c0	f6 30 00 00 64 c8 00 00 08 31 00 00 24 31 00 00 	0000d0000100$100
  0x1a1d0	f8 c7 00 00 2c 31 00 00 42 31 00 00 64 c8 00 00 	0000,100B100d000
  0x1a1e0	48 31 00 00 68 31 00 00 64 c8 00 00 70 31 00 00 	H100h100d000p100
  0x1a1f0	8d 31 00 00 64 c8 00 00 94 31 00 00 ef 31 00 00 	0100d00001000100
  0x1a200	44 cc 00 00 40 32 00 00 42 32 00 00 c0 c7 00 00 	D000@200B2000000
  0x1a210	60 32 00 00 ad 32 00 00 50 cc 00 00 b3 32 00 00 	`2000200P0000200
  0x1a220	d1 32 00 00 50 c7 00 00 e0 32 00 00 00 33 00 00 	0200P00002000300
  0x1a230	50 c7 00 00 00 33 00 00 e4 33 00 00 a0 c4 00 00 	P000030003000000
  0x1a240	e4 33 00 00 51 35 00 00 b0 c4 00 00 52 35 00 00 	0300Q5000000R500
  0x1a250	c1 35 00 00 e0 c4 00 00 c2 35 00 00 ca 39 00 00 	0500000005000900
  0x1a260	0c c5 00 00 ca 39 00 00 de 39 00 00 b8 c5 00 00 	0000090009000000
  0x1a270	de 39 00 00 76 3a 00 00 c8 c5 00 00 76 3a 00 00 	0900v:000000v:00
  0x1a280	d8 3b 00 00 e0 c5 00 00 d8 3b 00 00 3d 45 00 00 	0;0000000;00=E00
  0x1a290	00 c6 00 00 3d 45 00 00 56 45 00 00 28 c6 00 00 	0000=E00VE00(000
  0x1a2a0	56 45 00 00 6b 45 00 00 44 c6 00 00 6c 45 00 00 	VE00kE00D000lE00
  0x1a2b0	7e 45 00 00 b4 c6 00 00 7e 45 00 00 96 45 00 00 	~E000000~E000E00
  0x1a2c0	c4 c6 00 00 96 45 00 00 32 47 00 00 d8 c6 00 00 	00000E002G000000
  0x1a2d0	32 47 00 00 f0 49 00 00 14 c7 00 00 f8 49 00 00 	2G000I0000000I00
  0x1a2e0	99 4a 00 00 ec c7 00 00 a0 4a 00 00 76 4c 00 00 	0J0000000J00vL00
  0x1a2f0	d4 c7 00 00 7c 4c 00 00 d4 4d 00 00 3c c8 00 00 	0000|L000M00<000
  0x1a300	4c 4e 00 00 9c 4f 00 00 30 c8 00 00 a4 4f 00 00 	LN000O0000000O00
  0x1a310	b2 51 00 00 6c c8 00 00 b8 51 00 00 ea 52 00 00 	0Q00l0000Q000R00
  0x1a320	b8 c8 00 00 f0 52 00 00 f8 53 00 00 1c c8 00 00 	00000R000S000000
  0x1a330	00 54 00 00 f9 55 00 00 98 c8 00 00 00 56 00 00 	0T000U0000000V00
  0x1a340	1d 58 00 00 a4 c8 00 00 24 58 00 00 15 59 00 00 	0X000000$X000Y00
  0x1a350	08 c8 00 00 1c 59 00 00 d2 59 00 00 00 c8 00 00 	00000Y000Y000000
  0x1a360	d8 59 00 00 fc 59 00 00 64 c8 00 00 04 5a 00 00 	0Y000Y00d0000Z00
  0x1a370	a1 5b 00 00 54 c8 00 00 a8 5b 00 00 00 5c 00 00 	0[00T0000[000000
  0x1a380	f8 c7 00 00 08 5c 00 00 c6 64 00 00 0c c9 00 00 	000000000d000000
  0x1a390	cc 64 00 00 ad 67 00 00 d4 c8 00 00 b4 67 00 00 	0d000g0000000g00
  0x1a3a0	97 69 00 00 f4 c8 00 00 a0 69 00 00 58 6d 00 00 	0i0000000i00Xm00
  0x1a3b0	80 c8 00 00 60 6d 00 00 3c 6e 00 00 cc c8 00 00 	0000`m00<n000000
  0x1a3c0	44 6e 00 00 7d 6f 00 00 cc c8 00 00 84 6f 00 00 	Dn00}o0000000o00
  0x1a3d0	79 70 00 00 cc c8 00 00 98 70 00 00 5d 72 00 00 	yp0000000p00]r00
  0x1a3e0	30 c9 00 00 64 72 00 00 2a 7e 00 00 48 c9 00 00 	0000dr00*~00H000
  0x1a3f0	30 7e 00 00 9d 7e 00 00 cc c8 00 00 a4 7e 00 00 	0~000~0000000~00
  0x1a400	ba 7f 00 00 b4 c9 00 00 c0 7f 00 00 b8 80 00 00 	0000000000000000
  0x1a410	a0 c9 00 00 c0 80 00 00 22 82 00 00 7c c9 00 00 	00000000"000|000
  0x1a420	28 82 00 00 72 83 00 00 60 c9 00 00 78 83 00 00 	(000r000`000x000
  0x1a430	31 84 00 00 fc c9 00 00 38 84 00 00 fe 84 00 00 	1000000080000000
  0x1a440	cc c9 00 00 04 85 00 00 18 86 00 00 e4 c9 00 00 	0000000000000000
  0x1a450	20 86 00 00 c1 86 00 00 90 c9 00 00 c8 86 00 00 	 000000000000000
  0x1a460	2b 87 00 00 f4 c9 00 00 34 87 00 00 74 87 00 00 	+00000004000t000
  0x1a470	64 c8 00 00 7c 87 00 00 e7 87 00 00 ec c7 00 00 	d000|00000000000
  0x1a480	f0 87 00 00 42 88 00 00 ec c7 00 00 48 88 00 00 	0000B0000000H000
  0x1a490	8f 88 00 00 f8 c7 00 00 98 88 00 00 bb 89 00 00 	0000000000000000
  0x1a4a0	10 ca 00 00 c4 89 00 00 40 8a 00 00 ec c7 00 00 	00000000@0000000
  0x1a4b0	48 8a 00 00 72 8a 00 00 64 c8 00 00 c4 8a 00 00 	H000r000d0000000
  0x1a4c0	31 8b 00 00 ec c7 00 00 38 8b 00 00 83 8b 00 00 	1000000080000000
  0x1a4d0	ec c7 00 00 b0 8b 00 00 50 8c 00 00 2c ca 00 00 	00000000P000,000
  0x1a4e0	58 8c 00 00 89 8d 00 00 64 ca 00 00 89 8d 00 00 	X0000000d0000000
  0x1a4f0	cf 8d 00 00 a8 ca 00 00 d8 8d 00 00 a1 90 00 00 	0000000000000000
  0x1a500	44 ca 00 00 a8 90 00 00 d5 90 00 00 64 c8 00 00 	D00000000000d000
  0x1a510	dc 90 00 00 20 92 00 00 b0 ca 00 00 28 92 00 00 	0000 0000000(000
  0x1a520	44 95 00 00 d0 ca 00 00 4c 95 00 00 75 95 00 00 	D0000000L000u000
  0x1a530	64 c8 00 00 7c 95 00 00 18 96 00 00 30 c8 00 00 	d000|00000000000
  0x1a540	20 96 00 00 59 97 00 00 20 cb 00 00 60 97 00 00 	 000Y000 000`000
  0x1a550	e4 97 00 00 f4 ca 00 00 ec 97 00 00 aa 98 00 00 	0000000000000000
  0x1a560	04 cb 00 00 b0 98 00 00 03 9a 00 00 0c cb 00 00 	0000000000000000
  0x1a570	0c 9a 00 00 4c 9f 00 00 38 cb 00 00 54 9f 00 00 	0000L0008000T000
  0x1a580	27 a0 00 00 60 cb 00 00 30 a0 00 00 3d a2 00 00 	'000`0000000=000
  0x1a590	8c cb 00 00 44 a2 00 00 bf a2 00 00 b0 cb 00 00 	0000D00000000000
  0x1a5a0	c8 a2 00 00 7b a3 00 00 dc cb 00 00 84 a3 00 00 	0000{00000000000
  0x1a5b0	89 a4 00 00 7c cb 00 00 90 a4 00 00 53 a5 00 00 	0000|0000000S000
  0x1a5c0	c4 cb 00 00 5c a5 00 00 47 a6 00 00 f4 cb 00 00 	00000000G0000000
  0x1a5d0	50 a6 00 00 25 a7 00 00 08 cc 00 00 2c a7 00 00 	P000%0000000,000
  0x1a5e0	90 a7 00 00 90 c9 00 00 98 a7 00 00 c8 a8 00 00 	0000000000000000
  0x1a5f0	20 cc 00 00 d0 a8 00 00 84 a9 00 00 20 cb 00 00 	 00000000000 000
  0x1a600	90 a9 00 00 cd a9 00 00 3c cc 00 00 00 00 00 00 	00000000<0000000
  0x1a610	00 00 00 00 00 00 00 00 00 00 00 00 00 00 00 00 	0000000000000000
  0x1a620	00 00 00 00 00 00 00 00 00 00 00 00 00 00 00 00 	0000000000000000
  0x1a630	00 00 00 00 00 00 00 00 00 00 00 00 00 00 00 00 	0000000000000000
  0x1a640	00 00 00 00 00 00 00 00 00 00 00 00 00 00 00 00 	0000000000000000
  0x1a650	00 00 00 00 00 00 00 00 00 00 00 00 00 00 00 00 	0000000000000000
  0x1a660	00 00 00 00 00 00 00 00 00 00 00 00 00 00 00 00 	0000000000000000
  0x1a670	00 00 00 00 00 00 00 00 00 00 00 00 00 00 00 00 	0000000000000000
  0x1a680	00 00 00 00 00 00 00 00 00 00 00 00 00 00 00 00 	0000000000000000
  0x1a690	00 00 00 00 00 00 00 00 00 00 00 00 00 00 00 00 	0000000000000000
  0x1a6a0	00 00 00 00 00 00 00 00 00 00 00 00 00 00 00 00 	0000000000000000
  0x1a6b0	00 00 00 00 00 00 00 00 00 00 00 00 00 00 00 00 	0000000000000000
  0x1a6c0	00 00 00 00 00 00 00 00 00 00 00 00 00 00 00 00 	0000000000000000
  0x1a6d0	00 00 00 00 00 00 00 00 00 00 00 00 00 00 00 00 	0000000000000000
  0x1a6e0	00 00 00 00 00 00 00 00 00 00 00 00 00 00 00 00 	0000000000000000
  0x1a6f0	00 00 00 00 00 00 00 00 00 00 00 00 00 00 00 00 	0000000000000000
  0x1a700	00 00 00 00 00 00 00 00 00 00 00 00 00 00 00 00 	0000000000000000
  0x1a710	00 00 00 00 00 00 00 00 00 00 00 00 00 00 00 00 	0000000000000000
  0x1a720	00 00 00 00 00 00 00 00 00 00 00 00 00 00 00 00 	0000000000000000
  0x1a730	00 00 00 00 00 00 00 00 00 00 00 00 00 00 00 00 	0000000000000000
  0x1a740	00 00 00 00 00 00 00 00 00 00 00 00 00 00 00 00 	0000000000000000
  0x1a750	00 00 00 00 00 00 00 00 00 00 00 00 00 00 00 00 	0000000000000000
  0x1a760	00 00 00 00 00 00 00 00 00 00 00 00 00 00 00 00 	0000000000000000
  0x1a770	00 00 00 00 00 00 00 00 00 00 00 00 00 00 00 00 	0000000000000000
  0x1a780	00 00 00 00 00 00 00 00 00 00 00 00 00 00 00 00 	0000000000000000
  0x1a790	00 00 00 00 00 00 00 00 00 00 00 00 00 00 00 00 	0000000000000000
  0x1a7a0	00 00 00 00 00 00 00 00 00 00 00 00 00 00 00 00 	0000000000000000
  0x1a7b0	00 00 00 00 00 00 00 00 00 00 00 00 00 00 00 00 	0000000000000000
  0x1a7c0	00 00 00 00 00 00 00 00 00 00 00 00 00 00 00 00 	0000000000000000
  0x1a7d0	00 00 00 00 00 00 00 00 00 00 00 00 00 00 00 00 	0000000000000000
  0x1a7e0	00 00 00 00 00 00 00 00 00 00 00 00 00 00 00 00 	0000000000000000
  0x1a7f0	00 00 00 00 00 00 00 00 00 00 00 00 00 00 00 00 	0000000000000000
=== DATA BLOCK END ===
