===== Assembly blocks =====

=== CODE BLOCK ADDRESS 0x1000 ===
  0x1000	int3   	
  0x1001	int3   	
  0x1002	int3   	
  0x1003	int3   	
  0x1004	int3   	
  === BLOCK LINK ===
    0x1005
=== CODE BLOCK END ===

=== CODE BLOCK ADDRESS 0x1005 ===
  0x1005	int3   	
  0x1006	int3   	
  0x1007	int3   	
  0x1008	mov    	edx, 0x104
  0x100d	dec    	eax
  === BLOCK LINK ===
    0x100e
=== CODE BLOCK END ===

=== CODE BLOCK ADDRESS 0x100e ===
  0x100e	mov    	eax, ecx
  0x1010	inc    	esp
  0x1011	mov    	eax, edx
  0x1013	inc    	ebp
  0x1014	xor    	edx, edx
  === BLOCK LINK ===
    0x1016
=== CODE BLOCK END ===

=== CODE BLOCK ADDRESS 0x1016 ===
  0x1016	inc    	sp
  0x1018	cmp    	dword ptr [eax], edx
  0x101a	je     	0x1026
  === BLOCK LINK ===
    0x101c
    0x1026
=== CODE BLOCK END ===

=== CODE BLOCK ADDRESS 0x101c ===
  0x101c	dec    	eax
  0x101d	add    	eax, 2
  0x1020	dec    	ecx
  0x1021	sub    	eax, 1
  0x1024	jne    	0x1016
  === BLOCK LINK ===
    0x1026
    0x1016
=== CODE BLOCK END ===

=== CODE BLOCK ADDRESS 0x1026 ===
  0x1026	dec    	ecx
  0x1027	mov    	eax, eax
  0x1029	dec    	eax
  0x102a	neg    	eax
  0x102c	sbb    	eax, eax
  === BLOCK LINK ===
    0x102e
=== CODE BLOCK END ===

=== CODE BLOCK ADDRESS 0x102e ===
  0x102e	not    	eax
  0x1030	and    	eax, 0x80070057
  0x1035	dec    	ebp
  0x1036	test   	eax, eax
  0x1038	je     	0x1042
  === BLOCK LINK ===
    0x103a
    0x1042
=== CODE BLOCK END ===

=== CODE BLOCK ADDRESS 0x103a ===
  0x103a	dec    	esp
  0x103b	mov    	ecx, edx
  0x103d	dec    	ebp
  0x103e	sub    	ecx, eax
  0x1040	jmp    	0x1045
  === BLOCK LINK ===
    0x1042
    0x1045
=== CODE BLOCK END ===

=== CODE BLOCK ADDRESS 0x1042 ===
  0x1042	dec    	ebp
  0x1043	mov    	ecx, edx
  === BLOCK LINK ===
    0x1045
    0x10a3
=== CODE BLOCK END ===

=== CODE BLOCK ADDRESS 0x104a ===
  0x104a	dec    	edx
  0x104b	lea    	ecx, [ecx + ecx*2]
  0x104e	dec    	ecx
  0x104f	sub    	edx, ecx
  0x1051	je     	0x1088
  === BLOCK LINK ===
    0x1053
    0x1088
=== CODE BLOCK END ===

=== CODE BLOCK ADDRESS 0x1053 ===
  0x1053	dec    	ecx
  0x1054	lea    	eax, [ecx + 0x7ffffefa]
  0x105a	dec    	eax
  0x105b	add    	eax, edx
  0x105d	dec    	esp
  === BLOCK LINK ===
    0x105e
=== CODE BLOCK END ===

=== CODE BLOCK ADDRESS 0x105e ===
  0x105e	lea    	ecx, [0x33bc]
  0x1064	dec    	esp
  0x1065	sub    	ecx, ecx
  === BLOCK LINK ===
    0x1067
=== CODE BLOCK END ===

=== CODE BLOCK ADDRESS 0x106a ===
  0x106a	je     	0x1088
  === BLOCK LINK ===
    0x106c
    0x1088
=== CODE BLOCK END ===

=== CODE BLOCK ADDRESS 0x106c ===
  0x106c	inc    	ebp
  0x106d	movzx  	eax, word ptr [ecx + ecx]
  0x1071	inc    	bp
  0x1073	test   	eax, eax
  0x1075	je     	0x1088
  === BLOCK LINK ===
    0x1077
    0x1088
=== CODE BLOCK END ===

=== CODE BLOCK ADDRESS 0x1077 ===
  0x1077	inc    	sp
  0x1079	mov    	dword ptr [ecx], eax
  0x107b	dec    	eax
  0x107c	dec    	eax
  0x107e	dec    	eax
  === BLOCK LINK ===
    0x107f
=== CODE BLOCK END ===

=== CODE BLOCK ADDRESS 0x107f ===
  0x107f	add    	ecx, 2
  0x1082	dec    	eax
  0x1083	sub    	edx, 1
  0x1086	jne    	0x1067
  === BLOCK LINK ===
    0x1088
    0x1067
=== CODE BLOCK END ===

=== CODE BLOCK ADDRESS 0x1088 ===
  0x1088	dec    	eax
  0x1089	test   	edx, edx
  0x108b	dec    	eax
  0x108c	lea    	eax, [ecx - 2]
  0x108f	dec    	eax
  === BLOCK LINK ===
    0x1090
=== CODE BLOCK END ===

=== CODE BLOCK ADDRESS 0x1090 ===
  0x1090	cmovne  	eax, ecx
  0x1093	dec    	eax
  0x1094	neg    	edx
  0x1096	inc    	sp
  0x1098	mov    	dword ptr [eax], edx
  === BLOCK LINK ===
    0x109a
=== CODE BLOCK END ===

=== CODE BLOCK ADDRESS 0x109a ===
  0x109a	sbb    	eax, eax
  0x109c	not    	eax
  0x109e	and    	eax, 0x8007007a
  === BLOCK LINK ===
    0x10a3
=== CODE BLOCK END ===

=== CODE BLOCK ADDRESS 0x10a5 ===
  0x10a5	int3   	
  0x10a6	int3   	
  0x10a7	int3   	
  0x10a8	int3   	
  0x10a9	int3   	
  === BLOCK LINK ===
    0x10aa
=== CODE BLOCK END ===

=== CODE BLOCK ADDRESS 0x10aa ===
  0x10aa	int3   	
  0x10ab	int3   	
  0x10ac	dec    	esp
  0x10ad	mov    	dword ptr [esp + 0x18], eax
  0x10b1	dec    	esp
  === BLOCK LINK ===
    0x10b2
=== CODE BLOCK END ===

=== CODE BLOCK ADDRESS 0x10b2 ===
  0x10b2	mov    	dword ptr [esp + 0x20], ecx
  0x10b6	push   	ebx
  0x10b7	push   	ebp
  0x10b8	push   	esi
  0x10b9	push   	edi
  === BLOCK LINK ===
    0x10ba
=== CODE BLOCK END ===

=== CODE BLOCK ADDRESS 0x10ba ===
  0x10ba	dec    	eax
  0x10bb	sub    	esp, 0x28
  0x10be	xor    	ebp, ebp
  0x10c0	dec    	eax
  0x10c1	lea    	eax, [edx - 1]
  === BLOCK LINK ===
    0x10c4
=== CODE BLOCK END ===

=== CODE BLOCK ADDRESS 0x10c4 ===
  0x10c4	dec    	eax
  0x10c5	cmp    	eax, 0x7ffffffe
  0x10ca	dec    	eax
  0x10cb	mov    	esi, ecx
  0x10cd	mov    	edi, ebp
  === BLOCK LINK ===
    0x10cf
=== CODE BLOCK END ===

=== CODE BLOCK ADDRESS 0x10cf ===
  0x10cf	mov    	ecx, 0x80070057
  0x10d4	cmova  	edi, ecx
  0x10d7	test   	edi, edi
  0x10d9	js     	0x1116
  === BLOCK LINK ===
    0x10db
    0x1116
=== CODE BLOCK END ===

=== CODE BLOCK ADDRESS 0x10db ===
  0x10db	dec    	eax
  0x10dc	lea    	ebx, [edx - 1]
  0x10df	dec    	eax
  0x10e0	mov    	ecx, esi
  0x10e2	dec    	eax
  === BLOCK LINK ===
    0x10e3
=== CODE BLOCK END ===

=== CODE BLOCK ADDRESS 0x10e3 ===
  0x10e3	mov    	edx, ebx
  0x10e5	dec    	esp
  0x10e6	lea    	ecx, [esp + 0x68]
  0x10ea	mov    	edi, ebp
  0x10ec	dec    	eax
  === BLOCK LINK ===
    0x10ed
=== CODE BLOCK END ===

=== CODE BLOCK ADDRESS 0x10ed ===
  0x10ed	call   	dword ptr [0x324d]
  === BLOCK LINK ===
    0x10f3
=== CODE BLOCK END ===

=== CODE BLOCK ADDRESS 0x10f3 ===
  0x10f3	nop    	dword ptr [eax + eax]
  0x10f8	test   	eax, eax
  0x10fa	js     	0x110b
  === BLOCK LINK ===
    0x10fc
    0x110b
=== CODE BLOCK END ===

=== CODE BLOCK ADDRESS 0x10fc ===
  0x10fc	dec    	eax
  0x10fd	cwde   	
  0x10fe	dec    	eax
  0x10ff	cmp    	eax, ebx
  0x1101	ja     	0x110b
  === BLOCK LINK ===
    0x1103
    0x110b
=== CODE BLOCK END ===

=== CODE BLOCK ADDRESS 0x1103 ===
  0x1103	jne    	0x111e
  === BLOCK LINK ===
    0x1105
    0x111e
=== CODE BLOCK END ===

=== CODE BLOCK ADDRESS 0x1105 ===
  0x1105	mov    	word ptr [esi + ebx*2], bp
  0x1109	jmp    	0x111e
  === BLOCK LINK ===
    0x110b
    0x111e
=== CODE BLOCK END ===

=== CODE BLOCK ADDRESS 0x110b ===
  0x110b	mov    	word ptr [esi + ebx*2], bp
  0x110f	mov    	edi, 0x8007007a
  0x1114	jmp    	0x111e
  === BLOCK LINK ===
    0x1116
    0x111e
=== CODE BLOCK END ===

=== CODE BLOCK ADDRESS 0x1116 ===
  0x1116	dec    	eax
  0x1117	test   	edx, edx
  0x1119	je     	0x111e
  === BLOCK LINK ===
    0x111b
    0x111e
=== CODE BLOCK END ===

=== CODE BLOCK ADDRESS 0x111b ===
  0x111b	mov    	word ptr [esi], bp
  === BLOCK LINK ===
    0x111e
=== CODE BLOCK END ===

=== CODE BLOCK ADDRESS 0x1125 ===
  0x1125	pop    	esi
  0x1126	pop    	ebp
  0x1127	pop    	ebx
  0x1128	ret    	
  0x1129	int3   	
  === BLOCK LINK ===
    0x112a
=== CODE BLOCK END ===

=== CODE BLOCK ADDRESS 0x112a ===
  0x112a	int3   	
  0x112b	int3   	
  0x112c	int3   	
  0x112d	int3   	
  0x112e	int3   	
  === BLOCK LINK ===
    0x112f
=== CODE BLOCK END ===

=== CODE BLOCK ADDRESS 0x112f ===
  0x112f	int3   	
  === BLOCK LINK ===
    0x1130
=== CODE BLOCK END ===

=== CODE BLOCK ADDRESS 0x113a ===
  0x113a	push   	esi
  0x113b	push   	edi
  0x113c	inc    	ecx
  0x113d	push   	esi
  0x113e	dec    	eax
  === BLOCK LINK ===
    0x113f
=== CODE BLOCK END ===

=== CODE BLOCK ADDRESS 0x113f ===
  0x113f	sub    	esp, 0x40
  0x1142	dec    	eax
  0x1143	or     	edi, 0xffffffff
  0x1146	dec    	eax
  0x1147	mov    	ebp, ecx
  === BLOCK LINK ===
    0x1149
=== CODE BLOCK END ===

=== CODE BLOCK ADDRESS 0x1149 ===
  0x1149	dec    	eax
  0x114a	mov    	ebx, edi
  0x114c	inc    	ebp
  0x114d	xor    	esi, esi
  0x114f	dec    	eax
  === BLOCK LINK ===
    0x1150
=== CODE BLOCK END ===

=== CODE BLOCK ADDRESS 0x1150 ===
  0x1150	inc    	ebx
  0x1152	inc    	sp
  0x1154	cmp    	dword ptr [ecx + ebx*2], esi
  0x1157	jne    	0x114f
  === BLOCK LINK ===
    0x1159
    0x114f
=== CODE BLOCK END ===

=== CODE BLOCK ADDRESS 0x1159 ===
  0x1159	inc    	esp
  0x115a	cmp    	dword ptr [0x54a0], esi
  0x1160	je     	0x118a
  === BLOCK LINK ===
    0x1162
    0x118a
=== CODE BLOCK END ===

=== CODE BLOCK ADDRESS 0x1162 ===
  0x1162	dec    	eax
  0x1163	mov    	ecx, dword ptr [0x548f]
  0x1169	dec    	esp
  0x116a	lea    	ecx, [esp + 0x68]
  0x116e	inc    	esp
  === BLOCK LINK ===
    0x116f
=== CODE BLOCK END ===

=== CODE BLOCK ADDRESS 0x116f ===
  0x116f	mov    	eax, ebx
  0x1171	dec    	esp
  0x1172	mov    	dword ptr [esp + 0x20], esi
  0x1176	dec    	eax
  0x1177	mov    	edx, ebp
  === BLOCK LINK ===
    0x1179
=== CODE BLOCK END ===

=== CODE BLOCK ADDRESS 0x1179 ===
  0x1179	dec    	eax
  0x117a	call   	dword ptr [0x2fa8]
  === BLOCK LINK ===
    0x1180
=== CODE BLOCK END ===

=== CODE BLOCK ADDRESS 0x1180 ===
  0x1180	nop    	dword ptr [eax + eax]
  0x1185	jmp    	0x121c
  === BLOCK LINK ===
    0x118a
    0x121c
=== CODE BLOCK END ===

=== CODE BLOCK ADDRESS 0x118a ===
  0x118a	dec    	eax
  0x118b	lea    	edx, [ebx*2 + 2]
  0x1192	xor    	ecx, ecx
  0x1194	dec    	eax
  0x1195	call   	dword ptr [0x305d]
  === BLOCK LINK ===
    0x119b
=== CODE BLOCK END ===

=== CODE BLOCK ADDRESS 0x119b ===
  0x119b	nop    	dword ptr [eax + eax]
  0x11a0	dec    	eax
  0x11a1	mov    	esi, eax
  0x11a3	dec    	eax
  0x11a4	test   	eax, eax
  === BLOCK LINK ===
    0x11a6
=== CODE BLOCK END ===

=== CODE BLOCK ADDRESS 0x11a6 ===
  0x11a6	je     	0x121c
  === BLOCK LINK ===
    0x11a8
    0x121c
=== CODE BLOCK END ===

=== CODE BLOCK ADDRESS 0x11a8 ===
  0x11a8	lea    	ecx, [ebx*2 + 2]
  0x11af	dec    	esp
  0x11b0	mov    	dword ptr [esp + 0x38], esi
  0x11b4	xor    	edx, edx
  0x11b6	dec    	eax
  === BLOCK LINK ===
    0x11b7
=== CODE BLOCK END ===

=== CODE BLOCK ADDRESS 0x11b7 ===
  0x11b7	lea    	eax, [0x3267]
  0x11bd	dec    	eax
  0x11be	mov    	dword ptr [esp + 0x30], eax
  0x11c2	inc    	esp
  0x11c3	lea    	ecx, [ebx + 1]
  === BLOCK LINK ===
    0x11c6
=== CODE BLOCK END ===

=== CODE BLOCK ADDRESS 0x11c6 ===
  0x11c6	mov    	dword ptr [esp + 0x28], ecx
  0x11ca	dec    	esp
  0x11cb	mov    	eax, ebp
  0x11cd	dec    	eax
  0x11ce	mov    	dword ptr [esp + 0x20], esi
  === BLOCK LINK ===
    0x11d2
=== CODE BLOCK END ===

=== CODE BLOCK ADDRESS 0x11d2 ===
  0x11d2	lea    	ecx, [edx + 1]
  0x11d5	dec    	eax
  0x11d6	call   	dword ptr [0x30fc]
  === BLOCK LINK ===
    0x11dc
=== CODE BLOCK END ===

=== CODE BLOCK ADDRESS 0x11dc ===
  0x11dc	nop    	dword ptr [eax + eax]
  === BLOCK LINK ===
    0x11e1
=== CODE BLOCK END ===

=== CODE BLOCK ADDRESS 0x11e8 ===
  0x11e8	jne    	0x11e1
  === BLOCK LINK ===
    0x11ea
    0x11e1
=== CODE BLOCK END ===

=== CODE BLOCK ADDRESS 0x11ea ===
  0x11ea	dec    	eax
  0x11eb	mov    	ecx, dword ptr [0x5407]
  0x11f1	dec    	esp
  0x11f2	lea    	ecx, [esp + 0x68]
  0x11f6	dec    	esp
  === BLOCK LINK ===
    0x11f7
=== CODE BLOCK END ===

=== CODE BLOCK ADDRESS 0x11f7 ===
  0x11f7	mov    	eax, edi
  0x11f9	dec    	esp
  0x11fa	mov    	dword ptr [esp + 0x20], esi
  0x11fe	dec    	eax
  0x11ff	mov    	edx, esi
  === BLOCK LINK ===
    0x1201
=== CODE BLOCK END ===

=== CODE BLOCK ADDRESS 0x1201 ===
  0x1201	dec    	eax
  0x1202	call   	dword ptr [0x2f78]
  === BLOCK LINK ===
    0x1208
=== CODE BLOCK END ===

=== CODE BLOCK ADDRESS 0x1208 ===
  0x1208	nop    	dword ptr [eax + eax]
  0x120d	dec    	eax
  0x120e	mov    	ecx, esi
  0x1210	dec    	eax
  0x1211	call   	dword ptr [0x2fe9]
  === BLOCK LINK ===
    0x1217
=== CODE BLOCK END ===

=== CODE BLOCK ADDRESS 0x1217 ===
  0x1217	nop    	dword ptr [eax + eax]
  === BLOCK LINK ===
    0x121c
=== CODE BLOCK END ===

=== CODE BLOCK ADDRESS 0x1226 ===
  0x1226	dec    	eax
  0x1227	add    	esp, 0x40
  0x122a	inc    	ecx
  0x122b	pop    	esi
  0x122c	pop    	edi
  === BLOCK LINK ===
    0x122d
=== CODE BLOCK END ===

=== CODE BLOCK ADDRESS 0x122d ===
  0x122d	pop    	esi
  0x122e	ret    	
  0x122f	int3   	
  0x1230	int3   	
  0x1231	int3   	
  === BLOCK LINK ===
    0x1232
=== CODE BLOCK END ===

=== CODE BLOCK ADDRESS 0x1232 ===
  0x1232	int3   	
  0x1233	int3   	
  0x1234	int3   	
  0x1235	int3   	
  0x1236	int3   	
  === BLOCK LINK ===
    0x1237
=== CODE BLOCK END ===

=== CODE BLOCK ADDRESS 0x1237 ===
  0x1237	int3   	
  0x1238	dec    	eax
  0x1239	mov    	eax, esp
  0x123b	mov    	dword ptr [eax + 8], ecx
  0x123e	dec    	eax
  === BLOCK LINK ===
    0x123f
=== CODE BLOCK END ===

=== CODE BLOCK ADDRESS 0x123f ===
  0x123f	mov    	dword ptr [eax + 0x10], edx
  0x1242	dec    	esp
  0x1243	mov    	dword ptr [eax + 0x18], eax
  0x1246	dec    	esp
  0x1247	mov    	dword ptr [eax + 0x20], ecx
  === BLOCK LINK ===
    0x124a
=== CODE BLOCK END ===

=== CODE BLOCK ADDRESS 0x124a ===
  0x124a	mov    	eax, 0x2068
  0x124f	call   	0x2f90
  === BLOCK LINK ===
    0x1254
    0x2f90
=== CODE BLOCK END ===

=== CODE BLOCK ADDRESS 0x1254 ===
  0x1254	dec    	eax
  0x1255	sub    	esp, eax
  0x1257	dec    	eax
  0x1258	mov    	eax, dword ptr [0x4daa]
  0x125e	dec    	eax
  === BLOCK LINK ===
    0x125f
=== CODE BLOCK END ===

=== CODE BLOCK ADDRESS 0x125f ===
  0x125f	xor    	eax, esp
  0x1261	dec    	eax
  0x1262	mov    	dword ptr [esp + 0x2050], eax
  0x1269	dec    	eax
  0x126a	lea    	eax, [esp + 0x2078]
  === BLOCK LINK ===
    0x1271
=== CODE BLOCK END ===

=== CODE BLOCK ADDRESS 0x1271 ===
  0x1271	inc    	esp
  0x1272	mov    	eax, ecx
  0x1274	dec    	eax
  0x1275	mov    	dword ptr [esp + 0x40], eax
  0x1279	inc    	ebp
  === BLOCK LINK ===
    0x127a
=== CODE BLOCK END ===

=== CODE BLOCK ADDRESS 0x127a ===
  0x127a	xor    	ecx, ecx
  0x127c	dec    	eax
  0x127d	lea    	eax, [esp + 0x40]
  0x1281	xor    	edx, edx
  0x1283	dec    	eax
  === BLOCK LINK ===
    0x1284
=== CODE BLOCK END ===

=== CODE BLOCK ADDRESS 0x1284 ===
  0x1284	mov    	dword ptr [esp + 0x30], eax
  0x1288	mov    	ecx, 0x800
  0x128d	dec    	eax
  0x128e	lea    	eax, [esp + 0x50]
  0x1292	mov    	dword ptr [esp + 0x28], 0x1000
  === BLOCK LINK ===
    0x129a
=== CODE BLOCK END ===

=== CODE BLOCK ADDRESS 0x129a ===
  0x129a	dec    	eax
  0x129b	mov    	dword ptr [esp + 0x20], eax
  0x129f	dec    	eax
  0x12a0	call   	dword ptr [0x2fb2]
  === BLOCK LINK ===
    0x12a6
=== CODE BLOCK END ===

=== CODE BLOCK ADDRESS 0x12a6 ===
  0x12a6	nop    	dword ptr [eax + eax]
  0x12ab	dec    	eax
  0x12ac	lea    	ecx, [esp + 0x50]
  0x12b0	call   	0x1130
  === BLOCK LINK ===
    0x12b5
    0x1130
=== CODE BLOCK END ===

=== CODE BLOCK ADDRESS 0x12b5 ===
  0x12b5	dec    	eax
  0x12b6	mov    	ecx, dword ptr [esp + 0x2050]
  0x12bd	dec    	eax
  0x12be	xor    	ecx, esp
  0x12c0	call   	0x28c0
  === BLOCK LINK ===
    0x12c5
    0x28c0
=== CODE BLOCK END ===

=== CODE BLOCK ADDRESS 0x12c5 ===
  0x12c5	dec    	eax
  0x12c6	add    	esp, 0x2068
  0x12cc	ret    	
  0x12cd	int3   	
  0x12ce	int3   	
  === BLOCK LINK ===
    0x12cf
=== CODE BLOCK END ===

=== CODE BLOCK ADDRESS 0x1045 ===
  0x1045	dec    	ebp
  0x1046	test   	eax, eax
  0x1048	je     	0x10a3
  === BLOCK LINK ===
    0x104a
=== CODE BLOCK END ===

=== CODE BLOCK ADDRESS 0x12cf ===
  0x12cf	int3   	
  0x12d0	int3   	
  0x12d1	int3   	
  0x12d2	int3   	
  0x12d3	int3   	
  === BLOCK LINK ===
    0x12d4
=== CODE BLOCK END ===

=== CODE BLOCK ADDRESS 0x12d4 ===
  0x12d4	dec    	eax
  0x12d5	sub    	esp, 0x858
  0x12db	dec    	eax
  0x12dc	mov    	eax, dword ptr [0x4d26]
  0x12e2	dec    	eax
  === BLOCK LINK ===
    0x12e3
=== CODE BLOCK END ===

=== CODE BLOCK ADDRESS 0x12e3 ===
  0x12e3	xor    	eax, esp
  0x12e5	dec    	eax
  0x12e6	mov    	dword ptr [esp + 0x840], eax
  0x12ed	dec    	eax
  0x12ee	and    	dword ptr [esp + 0x30], 0
  === BLOCK LINK ===
    0x12f3
=== CODE BLOCK END ===

=== CODE BLOCK ADDRESS 0x12f3 ===
  0x12f3	dec    	eax
  0x12f4	lea    	eax, [esp + 0x40]
  0x12f8	inc    	esp
  0x12f9	mov    	eax, ecx
  0x12fb	mov    	dword ptr [esp + 0x28], 0x400
  === BLOCK LINK ===
    0x1303
=== CODE BLOCK END ===

=== CODE BLOCK ADDRESS 0x1303 ===
  0x1303	mov    	ecx, 0x1000
  0x1308	dec    	eax
  0x1309	mov    	dword ptr [esp + 0x20], eax
  0x130d	inc    	ebp
  0x130e	xor    	ecx, ecx
  === BLOCK LINK ===
    0x1310
=== CODE BLOCK END ===

=== CODE BLOCK ADDRESS 0x1310 ===
  0x1310	xor    	edx, edx
  0x1312	dec    	eax
  0x1313	call   	dword ptr [0x2f3f]
  === BLOCK LINK ===
    0x1319
=== CODE BLOCK END ===

=== CODE BLOCK ADDRESS 0x1319 ===
  0x1319	nop    	dword ptr [eax + eax]
  0x131e	dec    	eax
  0x131f	lea    	ecx, [esp + 0x40]
  0x1323	call   	0x1130
  === BLOCK LINK ===
    0x1328
    0x1130
=== CODE BLOCK END ===

=== CODE BLOCK ADDRESS 0x1328 ===
  0x1328	dec    	eax
  0x1329	mov    	ecx, dword ptr [esp + 0x840]
  0x1330	dec    	eax
  0x1331	xor    	ecx, esp
  0x1333	call   	0x28c0
  === BLOCK LINK ===
    0x1338
    0x28c0
=== CODE BLOCK END ===

=== CODE BLOCK ADDRESS 0x1338 ===
  0x1338	dec    	eax
  0x1339	add    	esp, 0x858
  0x133f	ret    	
  0x1340	int3   	
  0x1341	int3   	
  === BLOCK LINK ===
    0x1342
=== CODE BLOCK END ===

=== CODE BLOCK ADDRESS 0x10a3 ===
  0x10a3	ret    	
  0x10a4	int3   	
  === BLOCK LINK ===
    0x10a5
=== CODE BLOCK END ===

=== CODE BLOCK ADDRESS 0x1342 ===
  0x1342	int3   	
  0x1343	int3   	
  0x1344	int3   	
  0x1345	int3   	
  0x1346	int3   	
  === BLOCK LINK ===
    0x1347
=== CODE BLOCK END ===

=== CODE BLOCK ADDRESS 0x1347 ===
  0x1347	int3   	
  0x1348	inc    	eax
  0x1349	push   	ebx
  0x134a	dec    	eax
  0x134b	sub    	esp, 0x50
  === BLOCK LINK ===
    0x134e
=== CODE BLOCK END ===

=== CODE BLOCK ADDRESS 0x134e ===
  0x134e	dec    	eax
  0x134f	mov    	eax, dword ptr [0x4cb3]
  0x1355	dec    	eax
  0x1356	xor    	eax, esp
  0x1358	dec    	eax
  === BLOCK LINK ===
    0x1359
=== CODE BLOCK END ===

=== CODE BLOCK ADDRESS 0x1359 ===
  0x1359	mov    	dword ptr [esp + 0x40], eax
  0x135d	xorps  	xmm0, xmm0
  0x1360	dec    	eax
  0x1361	lea    	edx, [esp + 0x20]
  0x1365	xor    	ebx, ebx
  === BLOCK LINK ===
    0x1367
=== CODE BLOCK END ===

=== CODE BLOCK ADDRESS 0x1367 ===
  0x1367	inc    	ebp
  0x1368	xor    	ecx, ecx
  0x136a	movups  	xmmword ptr [esp + 0x20], xmm0
  0x136f	movups  	xmmword ptr [esp + 0x30], xmm0
  0x1374	inc    	esp
  === BLOCK LINK ===
    0x1375
=== CODE BLOCK END ===

=== CODE BLOCK ADDRESS 0x1375 ===
  0x1375	lea    	eax, [ebx + 0x20]
  0x1378	lea    	ecx, [ebx + 0x5a]
  0x137b	dec    	eax
  0x137c	call   	dword ptr [0x301e]
  === BLOCK LINK ===
    0x1382
=== CODE BLOCK END ===

=== CODE BLOCK ADDRESS 0x1382 ===
  0x1382	nop    	dword ptr [eax + eax]
  0x1387	test   	eax, eax
  0x1389	js     	0x1396
  === BLOCK LINK ===
    0x138b
    0x1396
=== CODE BLOCK END ===

=== CODE BLOCK ADDRESS 0x138b ===
  0x138b	cmp    	dword ptr [esp + 0x30], 2
  0x1390	lea    	eax, [ebx + 1]
  0x1393	cmove  	ebx, eax
  === BLOCK LINK ===
    0x1396
=== CODE BLOCK END ===

=== CODE BLOCK ADDRESS 0x1399 ===
  0x1399	mov    	ecx, dword ptr [esp + 0x40]
  0x139d	dec    	eax
  0x139e	xor    	ecx, esp
  0x13a0	call   	0x28c0
  === BLOCK LINK ===
    0x13a5
    0x28c0
=== CODE BLOCK END ===

=== CODE BLOCK ADDRESS 0x13a5 ===
  0x13a5	dec    	eax
  0x13a6	add    	esp, 0x50
  0x13a9	pop    	ebx
  0x13aa	ret    	
  0x13ab	int3   	
  === BLOCK LINK ===
    0x13ac
=== CODE BLOCK END ===

=== CODE BLOCK ADDRESS 0x13ac ===
  0x13ac	int3   	
  0x13ad	int3   	
  0x13ae	int3   	
  0x13af	int3   	
  0x13b0	int3   	
  === BLOCK LINK ===
    0x13b1
=== CODE BLOCK END ===

=== CODE BLOCK ADDRESS 0x13b1 ===
  0x13b1	int3   	
  0x13b2	int3   	
  0x13b3	int3   	
  0x13b4	dec    	eax
  0x13b5	mov    	dword ptr [esp + 8], ebx
  === BLOCK LINK ===
    0x13b9
=== CODE BLOCK END ===

=== CODE BLOCK ADDRESS 0x13b9 ===
  0x13b9	dec    	eax
  0x13ba	mov    	dword ptr [esp + 0x18], ebp
  0x13be	push   	esi
  0x13bf	push   	edi
  0x13c0	inc    	ecx
  === BLOCK LINK ===
    0x13c1
=== CODE BLOCK END ===

=== CODE BLOCK ADDRESS 0x13c1 ===
  0x13c1	push   	edi
  0x13c2	dec    	eax
  0x13c3	sub    	esp, 0x40
  0x13c6	dec    	eax
  0x13c7	or     	ebx, 0xffffffff
  === BLOCK LINK ===
    0x13ca
=== CODE BLOCK END ===

=== CODE BLOCK ADDRESS 0x13ca ===
  0x13ca	dec    	eax
  0x13cb	mov    	edi, ecx
  0x13cd	xor    	ebp, ebp
  === BLOCK LINK ===
    0x13cf
=== CODE BLOCK END ===

=== CODE BLOCK ADDRESS 0x13d2 ===
  0x13d2	cmp    	word ptr [ecx + ebx*2], bp
  0x13d6	jne    	0x13cf
  === BLOCK LINK ===
    0x13d8
    0x13cf
=== CODE BLOCK END ===

=== CODE BLOCK ADDRESS 0x13d8 ===
  0x13d8	dec    	eax
  0x13d9	test   	ebx, ebx
  0x13db	je     	0x1476
  === BLOCK LINK ===
    0x13e1
    0x1476
=== CODE BLOCK END ===

=== CODE BLOCK ADDRESS 0x13e1 ===
  0x13e1	inc    	ecx
  0x13e2	mov    	edi, 0x5c
  0x13e7	inc    	sp
  0x13e9	cmp    	edi, dword ptr [ecx + ebx*2 - 2]
  0x13ed	jne    	0x1476
  === BLOCK LINK ===
    0x13f3
    0x1476
=== CODE BLOCK END ===

=== CODE BLOCK ADDRESS 0x13f3 ===
  0x13f3	dec    	eax
  0x13f4	or     	dword ptr [esp + 0x30], 0xffffffff
  0x13f9	inc    	ebp
  0x13fa	lea    	eax, [edi - 0x59]
  0x13fd	mov    	dword ptr [esp + 0x28], 0x80
  === BLOCK LINK ===
    0x1405
=== CODE BLOCK END ===

=== CODE BLOCK ADDRESS 0x1405 ===
  0x1405	inc    	ebp
  0x1406	xor    	ecx, ecx
  0x1408	xor    	edx, edx
  0x140a	inc    	esp
  0x140b	mov    	dword ptr [esp + 0x20], eax
  === BLOCK LINK ===
    0x140f
=== CODE BLOCK END ===

=== CODE BLOCK ADDRESS 0x140f ===
  0x140f	mov    	word ptr [ecx + ebx*2 - 2], bp
  0x1414	dec    	eax
  0x1415	call   	dword ptr [0x2d95]
  === BLOCK LINK ===
    0x141b
=== CODE BLOCK END ===

=== CODE BLOCK ADDRESS 0x141b ===
  0x141b	nop    	dword ptr [eax + eax]
  0x1420	inc    	sp
  0x1422	mov    	dword ptr [edi + ebx*2 - 2], edi
  0x1426	dec    	eax
  0x1427	mov    	esi, eax
  === BLOCK LINK ===
    0x1429
=== CODE BLOCK END ===

=== CODE BLOCK ADDRESS 0x1429 ===
  0x1429	dec    	eax
  0x142a	cmp    	eax, -1
  0x142d	je     	0x1476
  === BLOCK LINK ===
    0x142f
    0x1476
=== CODE BLOCK END ===

=== CODE BLOCK ADDRESS 0x142f ===
  0x142f	dec    	eax
  0x1430	mov    	dword ptr [esp + 0x38], ebp
  0x1434	dec    	eax
  0x1435	lea    	eax, [esp + 0x68]
  0x1439	dec    	eax
  === BLOCK LINK ===
    0x143a
=== CODE BLOCK END ===

=== CODE BLOCK ADDRESS 0x143a ===
  0x143a	mov    	dword ptr [esp + 0x30], eax
  0x143e	inc    	ebp
  0x143f	xor    	ecx, ecx
  0x1441	mov    	dword ptr [esp + 0x28], ebp
  0x1445	inc    	ebp
  === BLOCK LINK ===
    0x1446
=== CODE BLOCK END ===

=== CODE BLOCK ADDRESS 0x1446 ===
  0x1446	xor    	eax, eax
  0x1448	mov    	edx, 0x560010
  0x144d	dec    	eax
  0x144e	mov    	dword ptr [esp + 0x20], ebp
  0x1452	dec    	eax
  === BLOCK LINK ===
    0x1453
=== CODE BLOCK END ===

=== CODE BLOCK ADDRESS 0x1453 ===
  0x1453	mov    	ecx, esi
  0x1455	dec    	eax
  0x1456	call   	dword ptr [0x2db4]
  === BLOCK LINK ===
    0x145c
=== CODE BLOCK END ===

=== CODE BLOCK ADDRESS 0x145c ===
  0x145c	nop    	dword ptr [eax + eax]
  0x1461	dec    	eax
  0x1462	mov    	ecx, esi
  0x1464	mov    	ebx, eax
  0x1466	dec    	eax
  === BLOCK LINK ===
    0x1467
=== CODE BLOCK END ===

=== CODE BLOCK ADDRESS 0x1467 ===
  0x1467	call   	dword ptr [0x2d6b]
  === BLOCK LINK ===
    0x146d
=== CODE BLOCK END ===

=== CODE BLOCK ADDRESS 0x146d ===
  0x146d	nop    	dword ptr [eax + eax]
  0x1472	mov    	eax, ebx
  0x1474	jmp    	0x1478
  === BLOCK LINK ===
    0x1476
    0x1478
=== CODE BLOCK END ===

=== CODE BLOCK ADDRESS 0x1476 ===
  0x1476	xor    	eax, eax
  === BLOCK LINK ===
    0x1478
=== CODE BLOCK END ===

=== CODE BLOCK ADDRESS 0x1482 ===
  0x1482	dec    	eax
  0x1483	add    	esp, 0x40
  0x1486	inc    	ecx
  0x1487	pop    	edi
  0x1488	pop    	edi
  === BLOCK LINK ===
    0x1489
=== CODE BLOCK END ===

=== CODE BLOCK ADDRESS 0x1489 ===
  0x1489	pop    	esi
  0x148a	ret    	
  0x148b	int3   	
  0x148c	int3   	
  0x148d	int3   	
  === BLOCK LINK ===
    0x148e
=== CODE BLOCK END ===

=== CODE BLOCK ADDRESS 0x148e ===
  0x148e	int3   	
  0x148f	int3   	
  0x1490	int3   	
  0x1491	int3   	
  0x1492	int3   	
  === BLOCK LINK ===
    0x1493
=== CODE BLOCK END ===

=== CODE BLOCK ADDRESS 0x1493 ===
  0x1493	int3   	
  0x1494	dec    	eax
  0x1495	mov    	eax, esp
  0x1497	dec    	eax
  0x1498	mov    	dword ptr [eax + 8], ebx
  === BLOCK LINK ===
    0x149b
=== CODE BLOCK END ===

=== CODE BLOCK ADDRESS 0x149b ===
  0x149b	dec    	eax
  0x149c	mov    	dword ptr [eax + 0x18], ebp
  0x149f	dec    	eax
  0x14a0	mov    	dword ptr [eax + 0x20], esi
  0x14a3	push   	edi
  === BLOCK LINK ===
    0x14a4
=== CODE BLOCK END ===

=== CODE BLOCK ADDRESS 0x14a4 ===
  0x14a4	dec    	eax
  0x14a5	sub    	esp, 0x20
  0x14a8	dec    	eax
  0x14a9	mov    	esi, ecx
  0x14ab	mov    	edx, 0x208
  === BLOCK LINK ===
    0x14b0
=== CODE BLOCK END ===

=== CODE BLOCK ADDRESS 0x14b0 ===
  0x14b0	xor    	ecx, ecx
  0x14b2	mov    	dword ptr [eax + 0x10], edx
  0x14b5	dec    	eax
  0x14b6	call   	dword ptr [0x2d3c]
  === BLOCK LINK ===
    0x14bc
=== CODE BLOCK END ===

=== CODE BLOCK ADDRESS 0x14bc ===
  0x14bc	nop    	dword ptr [eax + eax]
  0x14c1	xor    	ebp, ebp
  0x14c3	jmp    	0x1511
  === BLOCK LINK ===
    0x14c5
    0x1511
=== CODE BLOCK END ===

=== CODE BLOCK ADDRESS 0x14c5 ===
  0x14c5	inc    	esp
  0x14c6	mov    	eax, dword ptr [esp + 0x38]
  0x14ca	dec    	esp
  0x14cb	lea    	ecx, [esp + 0x38]
  0x14cf	dec    	eax
  === BLOCK LINK ===
    0x14d0
=== CODE BLOCK END ===

=== CODE BLOCK ADDRESS 0x14d0 ===
  0x14d0	mov    	edx, edi
  0x14d2	mov    	ecx, 0x62
  0x14d7	dec    	eax
  0x14d8	call   	dword ptr [0x2ec2]
  === BLOCK LINK ===
    0x14de
=== CODE BLOCK END ===

=== CODE BLOCK ADDRESS 0x14de ===
  0x14de	nop    	dword ptr [eax + eax]
  0x14e3	mov    	ebx, eax
  0x14e5	test   	eax, eax
  0x14e7	jns    	0x154f
  === BLOCK LINK ===
    0x14e9
    0x154f
=== CODE BLOCK END ===

=== CODE BLOCK ADDRESS 0x14e9 ===
  0x14e9	cmp    	eax, 0xc0000023
  0x14ee	jne    	0x151e
  === BLOCK LINK ===
    0x14f0
=== CODE BLOCK END ===

=== CODE BLOCK ADDRESS 0x14f0 ===
  0x14f0	dec    	eax
  0x14f1	mov    	ecx, edi
  0x14f3	dec    	eax
  0x14f4	call   	dword ptr [0x2d06]
  === BLOCK LINK ===
    0x14fa
=== CODE BLOCK END ===

=== CODE BLOCK ADDRESS 0x14fa ===
  0x14fa	nop    	dword ptr [eax + eax]
  0x14ff	mov    	edx, dword ptr [esp + 0x38]
  0x1503	xor    	ecx, ecx
  0x1505	dec    	eax
  0x1506	call   	dword ptr [0x2cec]
  === BLOCK LINK ===
    0x150c
=== CODE BLOCK END ===

=== CODE BLOCK ADDRESS 0x150c ===
  0x150c	nop    	dword ptr [eax + eax]
  === BLOCK LINK ===
    0x1511
=== CODE BLOCK END ===

=== CODE BLOCK ADDRESS 0x1517 ===
  0x1517	jne    	0x14c5
  === BLOCK LINK ===
    0x1519
=== CODE BLOCK END ===

=== CODE BLOCK ADDRESS 0x1519 ===
  0x1519	mov    	ebx, 0xc000009a
  0x151e	dec    	eax
  0x151f	test   	edi, edi
  0x1521	je     	0x1532
  === BLOCK LINK ===
    0x1523
=== CODE BLOCK END ===

=== CODE BLOCK ADDRESS 0x1523 ===
  0x1523	dec    	eax
  0x1524	mov    	ecx, edi
  0x1526	dec    	eax
  0x1527	call   	dword ptr [0x2cd3]
  === BLOCK LINK ===
    0x152d
=== CODE BLOCK END ===

=== CODE BLOCK ADDRESS 0x152d ===
  0x152d	nop    	dword ptr [eax + eax]
  0x1532	dec    	eax
  0x1533	mov    	ebp, dword ptr [esp + 0x40]
  0x1537	not    	ebx
  0x1539	dec    	eax
  === BLOCK LINK ===
    0x153a
=== CODE BLOCK END ===

=== CODE BLOCK ADDRESS 0x153a ===
  0x153a	mov    	esi, dword ptr [esp + 0x48]
  0x153e	shr    	ebx, 0x1f
  0x1541	mov    	eax, ebx
  0x1543	dec    	eax
  0x1544	mov    	ebx, dword ptr [esp + 0x30]
  === BLOCK LINK ===
    0x1548
=== CODE BLOCK END ===

=== CODE BLOCK ADDRESS 0x1548 ===
  0x1548	dec    	eax
  0x1549	add    	esp, 0x20
  0x154c	pop    	edi
  0x154d	ret    	
  0x154e	int3   	
  === BLOCK LINK ===
    0x154f
=== CODE BLOCK END ===

=== CODE BLOCK ADDRESS 0x154f ===
  0x154f	movzx  	edx, word ptr [edi]
  0x1552	mov    	ecx, 0x104
  0x1557	dec    	esp
  0x1558	mov    	eax, dword ptr [edi + 8]
  0x155b	dec    	eax
  === BLOCK LINK ===
    0x155c
=== CODE BLOCK END ===

=== CODE BLOCK ADDRESS 0x155c ===
  0x155c	shr    	edx, 1
  0x155e	dec    	esp
  0x155f	sub    	eax, esi
  0x1561	dec    	eax
  0x1562	lea    	eax, [ecx - 0x104]
  === BLOCK LINK ===
    0x1568
=== CODE BLOCK END ===

=== CODE BLOCK ADDRESS 0x1568 ===
  0x1568	dec    	eax
  0x1569	add    	eax, edx
  0x156b	je     	0x1584
  === BLOCK LINK ===
    0x156d
=== CODE BLOCK END ===

=== CODE BLOCK ADDRESS 0x156d ===
  0x156d	inc    	ecx
  0x156e	movzx  	eax, word ptr [eax + esi]
  0x1572	test   	ax, ax
  0x1575	je     	0x1584
  === BLOCK LINK ===
    0x1577
=== CODE BLOCK END ===

=== CODE BLOCK ADDRESS 0x1577 ===
  0x1577	mov    	word ptr [esi], ax
  0x157a	dec    	eax
  0x157b	add    	esi, 2
  0x157e	dec    	eax
  0x157f	sub    	ecx, 1
  === BLOCK LINK ===
    0x1582
=== CODE BLOCK END ===

=== CODE BLOCK ADDRESS 0x1582 ===
  0x1582	jne    	0x1561
  === BLOCK LINK ===
    0x1584
=== CODE BLOCK END ===

=== CODE BLOCK ADDRESS 0x1584 ===
  0x1584	dec    	eax
  0x1585	test   	ecx, ecx
  0x1587	dec    	eax
  0x1588	lea    	eax, [esi - 2]
  0x158b	dec    	eax
  === BLOCK LINK ===
    0x158c
=== CODE BLOCK END ===

=== CODE BLOCK ADDRESS 0x158c ===
  0x158c	cmovne  	eax, esi
  0x158f	mov    	word ptr [eax], bp
  0x1592	jmp    	0x151e
  === BLOCK LINK ===
    0x1594
=== CODE BLOCK END ===

=== CODE BLOCK ADDRESS 0x1594 ===
  0x1594	int3   	
  0x1595	int3   	
  0x1596	int3   	
  0x1597	int3   	
  0x1598	int3   	
  === BLOCK LINK ===
    0x1599
=== CODE BLOCK END ===

=== CODE BLOCK ADDRESS 0x1599 ===
  0x1599	int3   	
  0x159a	int3   	
  0x159b	int3   	
  0x159c	dec    	eax
  0x159d	mov    	eax, esp
  === BLOCK LINK ===
    0x159f
=== CODE BLOCK END ===

=== CODE BLOCK ADDRESS 0x159f ===
  0x159f	dec    	eax
  0x15a0	mov    	dword ptr [eax + 8], ebx
  0x15a3	dec    	eax
  0x15a4	mov    	dword ptr [eax + 0x20], esi
  0x15a7	push   	edi
  === BLOCK LINK ===
    0x15a8
=== CODE BLOCK END ===

=== CODE BLOCK ADDRESS 0x15a8 ===
  0x15a8	dec    	eax
  0x15a9	sub    	esp, 0x40
  0x15ac	dec    	eax
  0x15ad	or     	dword ptr [eax - 0x18], 0xffffffff
  0x15b1	mov    	esi, ecx
  === BLOCK LINK ===
    0x15b3
=== CODE BLOCK END ===

=== CODE BLOCK ADDRESS 0x15b3 ===
  0x15b3	inc    	ecx
  0x15b4	mov    	eax, 3
  0x15b9	mov    	dword ptr [eax - 0x20], 0x80
  0x15c0	dec    	eax
  0x15c1	lea    	ecx, [0x2e61]
  === BLOCK LINK ===
    0x15c7
=== CODE BLOCK END ===

=== CODE BLOCK ADDRESS 0x15c7 ===
  0x15c7	inc    	esp
  0x15c8	mov    	dword ptr [eax - 0x28], eax
  0x15cb	inc    	ebp
  0x15cc	xor    	ecx, ecx
  0x15ce	mov    	edx, 0xc0000000
  === BLOCK LINK ===
    0x15d3
=== CODE BLOCK END ===

=== CODE BLOCK ADDRESS 0x15d3 ===
  0x15d3	dec    	eax
  0x15d4	call   	dword ptr [0x2bd6]
  === BLOCK LINK ===
    0x15da
=== CODE BLOCK END ===

=== CODE BLOCK ADDRESS 0x15da ===
  0x15da	nop    	dword ptr [eax + eax]
  0x15df	xor    	ecx, ecx
  0x15e1	dec    	eax
  0x15e2	mov    	ebx, eax
  0x15e4	dec    	eax
  === BLOCK LINK ===
    0x15e5
=== CODE BLOCK END ===

=== CODE BLOCK ADDRESS 0x15e5 ===
  0x15e5	cmp    	eax, -1
  0x15e8	mov    	edi, ecx
  0x15ea	inc    	eax
  0x15eb	setne  	bh
  0x15ee	je     	0x1632
  === BLOCK LINK ===
    0x15f0
=== CODE BLOCK END ===

=== CODE BLOCK ADDRESS 0x15f0 ===
  0x15f0	mov    	eax, ecx
  0x15f2	dec    	eax
  0x15f3	mov    	dword ptr [esp + 0x38], ecx
  0x15f7	test   	esi, esi
  0x15f9	inc    	esp
  === BLOCK LINK ===
    0x15fa
=== CODE BLOCK END ===

=== CODE BLOCK ADDRESS 0x15fa ===
  0x15fa	lea    	ecx, [ecx + 4]
  0x15fd	dec    	esp
  0x15fe	lea    	eax, [esp + 0x58]
  0x1602	mov    	edx, 0x6dc040
  0x1607	setne  	al
  === BLOCK LINK ===
    0x160a
=== CODE BLOCK END ===

=== CODE BLOCK ADDRESS 0x160a ===
  0x160a	mov    	dword ptr [esp + 0x58], eax
  0x160e	dec    	eax
  0x160f	lea    	eax, [esp + 0x60]
  0x1613	dec    	eax
  0x1614	mov    	dword ptr [esp + 0x30], eax
  === BLOCK LINK ===
    0x1618
=== CODE BLOCK END ===

=== CODE BLOCK ADDRESS 0x1618 ===
  0x1618	mov    	dword ptr [esp + 0x28], ecx
  0x161c	dec    	eax
  0x161d	mov    	dword ptr [esp + 0x20], ecx
  0x1621	dec    	eax
  0x1622	mov    	ecx, ebx
  === BLOCK LINK ===
    0x1624
=== CODE BLOCK END ===

=== CODE BLOCK ADDRESS 0x1624 ===
  0x1624	dec    	eax
  0x1625	call   	dword ptr [0x2be5]
  === BLOCK LINK ===
    0x162b
=== CODE BLOCK END ===

=== CODE BLOCK ADDRESS 0x162b ===
  0x162b	nop    	dword ptr [eax + eax]
  0x1630	mov    	edi, eax
  0x1632	dec    	eax
  0x1633	cmp    	ebx, -1
  0x1636	je     	0x1647
  === BLOCK LINK ===
    0x1638
=== CODE BLOCK END ===

=== CODE BLOCK ADDRESS 0x1638 ===
  0x1638	dec    	eax
  0x1639	mov    	ecx, ebx
  0x163b	dec    	eax
  0x163c	call   	dword ptr [0x2b96]
  === BLOCK LINK ===
    0x1642
=== CODE BLOCK END ===

=== CODE BLOCK ADDRESS 0x1642 ===
  0x1642	nop    	dword ptr [eax + eax]
  0x1647	dec    	eax
  0x1648	mov    	ebx, dword ptr [esp + 0x50]
  0x164c	mov    	eax, edi
  0x164e	dec    	eax
  === BLOCK LINK ===
    0x164f
=== CODE BLOCK END ===

=== CODE BLOCK ADDRESS 0x164f ===
  0x164f	mov    	esi, dword ptr [esp + 0x68]
  0x1653	dec    	eax
  0x1654	add    	esp, 0x40
  0x1657	pop    	edi
  0x1658	ret    	
  === BLOCK LINK ===
    0x1659
=== CODE BLOCK END ===

=== CODE BLOCK ADDRESS 0x1067 ===
  0x1067	dec    	eax
  0x1068	test   	eax, eax
  === BLOCK LINK ===
    0x106a
=== CODE BLOCK END ===

=== CODE BLOCK ADDRESS 0x1659 ===
  0x1659	int3   	
  0x165a	int3   	
  0x165b	int3   	
  0x165c	int3   	
  0x165d	int3   	
  === BLOCK LINK ===
    0x165e
=== CODE BLOCK END ===

=== CODE BLOCK ADDRESS 0x165e ===
  0x165e	int3   	
  0x165f	int3   	
  0x1660	dec    	eax
  0x1661	mov    	dword ptr [esp + 0x10], ebx
  0x1665	dec    	eax
  === BLOCK LINK ===
    0x1666
=== CODE BLOCK END ===

=== CODE BLOCK ADDRESS 0x1666 ===
  0x1666	mov    	dword ptr [esp + 0x18], esi
  0x166a	push   	edi
  0x166b	dec    	eax
  0x166c	sub    	esp, 0x460
  0x1672	dec    	eax
  === BLOCK LINK ===
    0x1673
=== CODE BLOCK END ===

=== CODE BLOCK ADDRESS 0x1673 ===
  0x1673	mov    	eax, dword ptr [0x498f]
  0x1679	dec    	eax
  0x167a	xor    	eax, esp
  0x167c	dec    	eax
  0x167d	mov    	dword ptr [esp + 0x450], eax
  === BLOCK LINK ===
    0x1684
=== CODE BLOCK END ===

=== CODE BLOCK ADDRESS 0x1684 ===
  0x1684	xor    	esi, esi
  0x1686	dec    	eax
  0x1687	mov    	ebx, ecx
  0x1689	dec    	eax
  0x168a	test   	ecx, ecx
  === BLOCK LINK ===
    0x168c
=== CODE BLOCK END ===

=== CODE BLOCK ADDRESS 0x168c ===
  0x168c	je     	0x1690
  === BLOCK LINK ===
    0x168e
=== CODE BLOCK END ===

=== CODE BLOCK ADDRESS 0x168e ===
  0x168e	mov    	dword ptr [ecx], esi
  0x1690	dec    	eax
  0x1691	lea    	ecx, [esp + 0x30]
  0x1695	call   	0x1494
  === BLOCK LINK ===
    0x169a
=== CODE BLOCK END ===

=== CODE BLOCK ADDRESS 0x169a ===
  0x169a	test   	eax, eax
  0x169c	je     	0x1725
  === BLOCK LINK ===
    0x16a2
=== CODE BLOCK END ===

=== CODE BLOCK ADDRESS 0x16a2 ===
  0x16a2	mov    	dword ptr [esp + 0x22], 0x3a
  0x16aa	inc    	eax
  0x16ab	mov    	bh, 0x41
  0x16ad	inc    	eax
  0x16ae	movzx  	eax, bh
  === BLOCK LINK ===
    0x16b1
=== CODE BLOCK END ===

=== CODE BLOCK ADDRESS 0x16b1 ===
  0x16b1	dec    	eax
  0x16b2	lea    	edx, [esp + 0x240]
  0x16b9	inc    	ecx
  0x16ba	mov    	eax, 0x104
  0x16bf	mov    	word ptr [esp + 0x20], ax
  === BLOCK LINK ===
    0x16c4
=== CODE BLOCK END ===

=== CODE BLOCK ADDRESS 0x16c4 ===
  0x16c4	dec    	eax
  0x16c5	lea    	ecx, [esp + 0x20]
  0x16c9	dec    	eax
  0x16ca	call   	dword ptr [0x2ab8]
  === BLOCK LINK ===
    0x16d0
=== CODE BLOCK END ===

=== CODE BLOCK ADDRESS 0x16d0 ===
  0x16d0	nop    	dword ptr [eax + eax]
  0x16d5	test   	eax, eax
  0x16d7	je     	0x16f6
  === BLOCK LINK ===
    0x16d9
=== CODE BLOCK END ===

=== CODE BLOCK ADDRESS 0x16d9 ===
  0x16d9	dec    	eax
  0x16da	lea    	edx, [esp + 0x30]
  0x16de	dec    	eax
  0x16df	lea    	ecx, [esp + 0x240]
  0x16e6	dec    	eax
  === BLOCK LINK ===
    0x16e7
=== CODE BLOCK END ===

=== CODE BLOCK ADDRESS 0x16e7 ===
  0x16e7	call   	dword ptr [0x2bfb]
  === BLOCK LINK ===
    0x16ed
=== CODE BLOCK END ===

=== CODE BLOCK ADDRESS 0x16ed ===
  0x16ed	nop    	dword ptr [eax + eax]
  0x16f2	test   	eax, eax
  0x16f4	je     	0x1701
  === BLOCK LINK ===
    0x16f6
=== CODE BLOCK END ===

=== CODE BLOCK ADDRESS 0x16f6 ===
  0x16f6	inc    	eax
  0x16f7	inc    	bh
  0x16f9	inc    	eax
  0x16fa	cmp    	bh, 0x5a
  0x16fd	ja     	0x1725
  === BLOCK LINK ===
    0x16ff
=== CODE BLOCK END ===

=== CODE BLOCK ADDRESS 0x16ff ===
  0x16ff	jmp    	0x16ad
  === BLOCK LINK ===
    0x1701
=== CODE BLOCK END ===

=== CODE BLOCK ADDRESS 0x1701 ===
  0x1701	mov    	dword ptr [esp + 0x24], 0x5c
  0x1709	dec    	eax
  0x170a	test   	ebx, ebx
  0x170c	je     	0x1716
  === BLOCK LINK ===
    0x170e
=== CODE BLOCK END ===

=== CODE BLOCK ADDRESS 0x170e ===
  0x170e	mov    	dword ptr [ebx], 1
  0x1714	jmp    	0x1725
  === BLOCK LINK ===
    0x1716
=== CODE BLOCK END ===

=== CODE BLOCK ADDRESS 0x1716 ===
  0x1716	dec    	eax
  0x1717	lea    	edx, [esp + 0x20]
  0x171b	mov    	ecx, 0xa
  0x1720	call   	0x1238
  === BLOCK LINK ===
    0x1725
=== CODE BLOCK END ===

=== CODE BLOCK ADDRESS 0x1725 ===
  0x1725	dec    	eax
  0x1726	mov    	ecx, dword ptr [esp + 0x450]
  0x172d	dec    	eax
  0x172e	xor    	ecx, esp
  0x1730	call   	0x28c0
  === BLOCK LINK ===
    0x1735
=== CODE BLOCK END ===

=== CODE BLOCK ADDRESS 0x1735 ===
  0x1735	dec    	esp
  0x1736	lea    	ebx, [esp + 0x460]
  0x173d	dec    	ecx
  0x173e	mov    	ebx, dword ptr [ebx + 0x18]
  0x1741	dec    	ecx
  === BLOCK LINK ===
    0x1742
=== CODE BLOCK END ===

=== CODE BLOCK ADDRESS 0x1742 ===
  0x1742	mov    	esi, dword ptr [ebx + 0x20]
  0x1745	dec    	ecx
  0x1746	mov    	esp, ebx
  0x1748	pop    	edi
  0x1749	ret    	
  === BLOCK LINK ===
    0x174a
=== CODE BLOCK END ===

=== CODE BLOCK ADDRESS 0x174a ===
  0x174a	int3   	
  0x174b	int3   	
  0x174c	int3   	
  0x174d	int3   	
  0x174e	int3   	
  === BLOCK LINK ===
    0x174f
=== CODE BLOCK END ===

=== CODE BLOCK ADDRESS 0x174f ===
  0x174f	int3   	
  0x1750	int3   	
  0x1751	int3   	
  0x1752	int3   	
  0x1753	int3   	
  === BLOCK LINK ===
    0x1754
=== CODE BLOCK END ===

=== CODE BLOCK ADDRESS 0x1754 ===
  0x1754	dec    	eax
  0x1755	mov    	eax, esp
  0x1757	dec    	eax
  0x1758	mov    	dword ptr [eax + 8], ebx
  0x175b	dec    	eax
  === BLOCK LINK ===
    0x175c
=== CODE BLOCK END ===

=== CODE BLOCK ADDRESS 0x175c ===
  0x175c	mov    	dword ptr [eax + 0x10], esi
  0x175f	dec    	eax
  0x1760	mov    	dword ptr [eax + 0x18], edi
  0x1763	push   	ebp
  0x1764	inc    	ecx
  === BLOCK LINK ===
    0x1765
=== CODE BLOCK END ===

=== CODE BLOCK ADDRESS 0x1765 ===
  0x1765	push   	esi
  0x1766	inc    	ecx
  0x1767	push   	edi
  0x1768	dec    	eax
  0x1769	lea    	ebp, [eax - 0x188]
  === BLOCK LINK ===
    0x176f
=== CODE BLOCK END ===

=== CODE BLOCK ADDRESS 0x176f ===
  0x176f	dec    	eax
  0x1770	sub    	esp, 0x270
  0x1776	dec    	eax
  0x1777	mov    	eax, dword ptr [0x488b]
  0x177d	dec    	eax
  === BLOCK LINK ===
    0x177e
=== CODE BLOCK END ===

=== CODE BLOCK ADDRESS 0x177e ===
  0x177e	xor    	eax, esp
  0x1780	dec    	eax
  0x1781	mov    	dword ptr [ebp + 0x160], eax
  0x1787	dec    	eax
  0x1788	or     	dword ptr [esp + 0x30], 0xffffffff
  === BLOCK LINK ===
    0x178d
=== CODE BLOCK END ===

=== CODE BLOCK ADDRESS 0x178d ===
  0x178d	dec    	eax
  0x178e	lea    	ecx, [0x2c94]
  0x1794	inc    	ebp
  0x1795	xor    	edi, edi
  0x1797	mov    	dword ptr [esp + 0x28], 0x80
  === BLOCK LINK ===
    0x179f
=== CODE BLOCK END ===

=== CODE BLOCK ADDRESS 0x179f ===
  0x179f	inc    	ebp
  0x17a0	xor    	ecx, ecx
  0x17a2	inc    	esp
  0x17a3	mov    	dword ptr [esp + 0x40], edi
  0x17a7	xor    	edx, edx
  === BLOCK LINK ===
    0x17a9
=== CODE BLOCK END ===

=== CODE BLOCK ADDRESS 0x17a9 ===
  0x17a9	inc    	ecx
  0x17aa	lea    	eax, [edi + 3]
  0x17ad	inc    	esp
  0x17ae	mov    	eax, eax
  0x17b0	mov    	dword ptr [esp + 0x20], eax
  === BLOCK LINK ===
    0x17b4
=== CODE BLOCK END ===

=== CODE BLOCK ADDRESS 0x17b4 ===
  0x17b4	dec    	eax
  0x17b5	call   	dword ptr [0x29f5]
  === BLOCK LINK ===
    0x17bb
=== CODE BLOCK END ===

=== CODE BLOCK ADDRESS 0x17bb ===
  0x17bb	nop    	dword ptr [eax + eax]
  0x17c0	dec    	eax
  0x17c1	cmp    	eax, -1
  0x17c4	inc    	ecx
  0x17c5	mov    	edi, edi
  === BLOCK LINK ===
    0x17c7
=== CODE BLOCK END ===

=== CODE BLOCK ADDRESS 0x17c7 ===
  0x17c7	dec    	eax
  0x17c8	mov    	ebx, eax
  0x17ca	inc    	eax
  0x17cb	setne  	bh
  0x17ce	je     	0x180d
  === BLOCK LINK ===
    0x17d0
=== CODE BLOCK END ===

=== CODE BLOCK ADDRESS 0x17d0 ===
  0x17d0	dec    	esp
  0x17d1	mov    	dword ptr [esp + 0x38], edi
  0x17d5	dec    	eax
  0x17d6	lea    	eax, [esp + 0x44]
  0x17da	dec    	eax
  === BLOCK LINK ===
    0x17db
=== CODE BLOCK END ===

=== CODE BLOCK ADDRESS 0x17db ===
  0x17db	mov    	dword ptr [esp + 0x30], eax
  0x17df	inc    	ebp
  0x17e0	xor    	ecx, ecx
  0x17e2	dec    	eax
  0x17e3	lea    	eax, [esp + 0x40]
  === BLOCK LINK ===
    0x17e7
=== CODE BLOCK END ===

=== CODE BLOCK ADDRESS 0x17e7 ===
  0x17e7	mov    	dword ptr [esp + 0x28], 4
  0x17ef	inc    	ebp
  0x17f0	xor    	eax, eax
  0x17f2	dec    	eax
  0x17f3	mov    	dword ptr [esp + 0x20], eax
  === BLOCK LINK ===
    0x17f7
=== CODE BLOCK END ===

=== CODE BLOCK ADDRESS 0x17f7 ===
  0x17f7	mov    	edx, 0x6d003c
  0x17fc	dec    	eax
  0x17fd	mov    	ecx, ebx
  0x17ff	dec    	eax
  0x1800	call   	dword ptr [0x2a0a]
  === BLOCK LINK ===
    0x1806
=== CODE BLOCK END ===

=== CODE BLOCK ADDRESS 0x1806 ===
  0x1806	nop    	dword ptr [eax + eax]
  0x180b	mov    	edi, eax
  0x180d	test   	edi, edi
  0x180f	je     	0x181f
  === BLOCK LINK ===
    0x1811
=== CODE BLOCK END ===

=== CODE BLOCK ADDRESS 0x1811 ===
  0x1811	cmp    	dword ptr [esp + 0x40], 1
  0x1816	inc    	ebp
  0x1817	mov    	esi, edi
  0x1819	inc    	ecx
  0x181a	sete   	dh
  === BLOCK LINK ===
    0x181d
=== CODE BLOCK END ===

=== CODE BLOCK ADDRESS 0x181d ===
  0x181d	jmp    	0x1824
  === BLOCK LINK ===
    0x181f
=== CODE BLOCK END ===

=== CODE BLOCK ADDRESS 0x181f ===
  0x181f	inc    	esp
  0x1820	mov    	esi, dword ptr [esp + 0x44]
  0x1824	dec    	eax
  0x1825	cmp    	ebx, -1
  0x1828	je     	0x1839
  === BLOCK LINK ===
    0x182a
=== CODE BLOCK END ===

=== CODE BLOCK ADDRESS 0x182a ===
  0x182a	dec    	eax
  0x182b	mov    	ecx, ebx
  0x182d	dec    	eax
  0x182e	call   	dword ptr [0x29a4]
  === BLOCK LINK ===
    0x1834
=== CODE BLOCK END ===

=== CODE BLOCK ADDRESS 0x1834 ===
  0x1834	nop    	dword ptr [eax + eax]
  0x1839	test   	edi, edi
  0x183b	jne    	0x1855
  === BLOCK LINK ===
    0x183d
=== CODE BLOCK END ===

=== CODE BLOCK ADDRESS 0x183d ===
  0x183d	dec    	eax
  0x183e	call   	dword ptr [0x290c]
  === BLOCK LINK ===
    0x1844
=== CODE BLOCK END ===

=== CODE BLOCK ADDRESS 0x1844 ===
  0x1844	nop    	dword ptr [eax + eax]
  0x1849	mov    	ecx, eax
  0x184b	call   	0x12d4
  === BLOCK LINK ===
    0x1850
=== CODE BLOCK END ===

=== CODE BLOCK ADDRESS 0x1850 ===
  0x1850	jmp    	0x1a0f
  === BLOCK LINK ===
    0x1855
=== CODE BLOCK END ===

=== CODE BLOCK ADDRESS 0x1855 ===
  0x1855	mov    	edx, 0x104
  0x185a	dec    	eax
  0x185b	lea    	ecx, [esp + 0x50]
  0x185f	dec    	eax
  0x1860	call   	dword ptr [0x290a]
  === BLOCK LINK ===
    0x1866
=== CODE BLOCK END ===

=== CODE BLOCK ADDRESS 0x1866 ===
  0x1866	nop    	dword ptr [eax + eax]
  0x186b	dec    	eax
  0x186c	mov    	esi, eax
  0x186e	dec    	eax
  0x186f	cmp    	eax, -1
  === BLOCK LINK ===
    0x1872
=== CODE BLOCK END ===

=== CODE BLOCK ADDRESS 0x1872 ===
  0x1872	je     	0x183d
  === BLOCK LINK ===
    0x1874
=== CODE BLOCK END ===

=== CODE BLOCK ADDRESS 0x1874 ===
  0x1874	dec    	eax
  0x1875	lea    	edx, [esp + 0x50]
  0x1879	mov    	ecx, 7
  0x187e	call   	0x1238
  === BLOCK LINK ===
    0x1883
=== CODE BLOCK END ===

=== CODE BLOCK ADDRESS 0x1883 ===
  0x1883	dec    	esp
  0x1884	lea    	ecx, [esp + 0x40]
  0x1888	inc    	ebp
  0x1889	xor    	eax, eax
  0x188b	xor    	edx, edx
  === BLOCK LINK ===
    0x188d
=== CODE BLOCK END ===

=== CODE BLOCK ADDRESS 0x188d ===
  0x188d	dec    	eax
  0x188e	lea    	ecx, [esp + 0x50]
  0x1892	dec    	eax
  0x1893	call   	dword ptr [0x2927]
  === BLOCK LINK ===
    0x1899
=== CODE BLOCK END ===

=== CODE BLOCK ADDRESS 0x1899 ===
  0x1899	nop    	dword ptr [eax + eax]
  0x189e	test   	eax, eax
  0x18a0	jne    	0x18cd
  === BLOCK LINK ===
    0x18a2
=== CODE BLOCK END ===

=== CODE BLOCK ADDRESS 0x18a2 ===
  0x18a2	dec    	eax
  0x18a3	call   	dword ptr [0x28a7]
  === BLOCK LINK ===
    0x18a9
=== CODE BLOCK END ===

=== CODE BLOCK ADDRESS 0x18a9 ===
  0x18a9	nop    	dword ptr [eax + eax]
  0x18ae	cmp    	eax, 0xea
  0x18b3	je     	0x18cd
  === BLOCK LINK ===
    0x18b5
=== CODE BLOCK END ===

=== CODE BLOCK ADDRESS 0x18b5 ===
  0x18b5	dec    	eax
  0x18b6	call   	dword ptr [0x2894]
  === BLOCK LINK ===
    0x18bc
=== CODE BLOCK END ===

=== CODE BLOCK ADDRESS 0x18bc ===
  0x18bc	nop    	dword ptr [eax + eax]
  0x18c1	mov    	ecx, eax
  0x18c3	call   	0x12d4
  === BLOCK LINK ===
    0x18c8
=== CODE BLOCK END ===

=== CODE BLOCK ADDRESS 0x18c8 ===
  0x18c8	jmp    	0x198b
  === BLOCK LINK ===
    0x18cd
=== CODE BLOCK END ===

=== CODE BLOCK ADDRESS 0x18cd ===
  0x18cd	mov    	edx, dword ptr [esp + 0x40]
  0x18d1	xor    	ecx, ecx
  0x18d3	dec    	eax
  0x18d4	add    	edx, edx
  0x18d6	dec    	eax
  === BLOCK LINK ===
    0x18d7
=== CODE BLOCK END ===

=== CODE BLOCK ADDRESS 0x18d7 ===
  0x18d7	call   	dword ptr [0x291b]
  === BLOCK LINK ===
    0x18dd
=== CODE BLOCK END ===

=== CODE BLOCK ADDRESS 0x18dd ===
  0x18dd	nop    	dword ptr [eax + eax]
  0x18e2	dec    	eax
  0x18e3	mov    	ebx, eax
  0x18e5	dec    	eax
  0x18e6	test   	eax, eax
  === BLOCK LINK ===
    0x18e8
=== CODE BLOCK END ===

=== CODE BLOCK ADDRESS 0x18e8 ===
  0x18e8	jne    	0x18ef
  === BLOCK LINK ===
    0x18ea
=== CODE BLOCK END ===

=== CODE BLOCK ADDRESS 0x18ea ===
  0x18ea	lea    	ecx, [eax + 8]
  0x18ed	jmp    	0x18c3
  === BLOCK LINK ===
    0x18ef
=== CODE BLOCK END ===

=== CODE BLOCK ADDRESS 0x18ef ===
  0x18ef	inc    	esp
  0x18f0	mov    	eax, dword ptr [esp + 0x40]
  0x18f4	dec    	eax
  0x18f5	lea    	ecx, [esp + 0x50]
  0x18f9	inc    	ebp
  === BLOCK LINK ===
    0x18fa
=== CODE BLOCK END ===

=== CODE BLOCK ADDRESS 0x18fa ===
  0x18fa	xor    	ecx, ecx
  0x18fc	dec    	eax
  0x18fd	mov    	edx, ebx
  0x18ff	dec    	eax
  0x1900	call   	dword ptr [0x28ba]
  === BLOCK LINK ===
    0x1906
=== CODE BLOCK END ===

=== CODE BLOCK ADDRESS 0x1906 ===
  0x1906	nop    	dword ptr [eax + eax]
  0x190b	test   	eax, eax
  0x190d	jne    	0x1920
  === BLOCK LINK ===
    0x190f
=== CODE BLOCK END ===

=== CODE BLOCK ADDRESS 0x190f ===
  0x190f	dec    	eax
  0x1910	mov    	ecx, ebx
  0x1912	dec    	eax
  0x1913	call   	dword ptr [0x28e7]
  === BLOCK LINK ===
    0x1919
=== CODE BLOCK END ===

=== CODE BLOCK ADDRESS 0x1919 ===
  0x1919	nop    	dword ptr [eax + eax]
  0x191e	jmp    	0x18b5
  === BLOCK LINK ===
    0x1920
=== CODE BLOCK END ===

=== CODE BLOCK ADDRESS 0x1920 ===
  0x1920	inc    	sp
  0x1922	cmp    	dword ptr [ebx], edi
  0x1924	jne    	0x1950
  === BLOCK LINK ===
    0x1926
=== CODE BLOCK END ===

=== CODE BLOCK ADDRESS 0x1926 ===
  0x1926	dec    	eax
  0x1927	lea    	ecx, [esp + 0x50]
  0x192b	call   	0x13b4
  === BLOCK LINK ===
    0x1930
=== CODE BLOCK END ===

=== CODE BLOCK ADDRESS 0x1930 ===
  0x1930	neg    	eax
  0x1932	sbb    	ecx, ecx
  0x1934	and    	ecx, 3
  0x1937	add    	ecx, 9
  0x193a	call   	0x1238
  === BLOCK LINK ===
    0x193f
=== CODE BLOCK END ===

=== CODE BLOCK ADDRESS 0x193f ===
  0x193f	dec    	eax
  0x1940	mov    	ecx, ebx
  0x1942	dec    	eax
  0x1943	call   	dword ptr [0x28b7]
  === BLOCK LINK ===
    0x1949
=== CODE BLOCK END ===

=== CODE BLOCK ADDRESS 0x1949 ===
  0x1949	nop    	dword ptr [eax + eax]
  0x194e	jmp    	0x198b
  === BLOCK LINK ===
    0x1950
=== CODE BLOCK END ===

=== CODE BLOCK ADDRESS 0x1950 ===
  0x1950	dec    	eax
  0x1951	mov    	edi, ebx
  0x1953	dec    	eax
  0x1954	mov    	edx, edi
  0x1956	mov    	ecx, 6
  === BLOCK LINK ===
    0x195b
=== CODE BLOCK END ===

=== CODE BLOCK ADDRESS 0x195b ===
  0x195b	call   	0x1238
  === BLOCK LINK ===
    0x1960
=== CODE BLOCK END ===

=== CODE BLOCK ADDRESS 0x1960 ===
  0x1960	movzx  	eax, word ptr [edi]
  0x1963	dec    	eax
  0x1964	add    	edi, 2
  0x1967	test   	ax, ax
  0x196a	jne    	0x1960
  === BLOCK LINK ===
    0x196c
=== CODE BLOCK END ===

=== CODE BLOCK ADDRESS 0x196c ===
  0x196c	inc    	sp
  0x196e	cmp    	dword ptr [edi], edi
  0x1970	jne    	0x1953
  === BLOCK LINK ===
    0x1972
=== CODE BLOCK END ===

=== CODE BLOCK ADDRESS 0x1972 ===
  0x1972	dec    	eax
  0x1973	mov    	ecx, ebx
  0x1975	dec    	eax
  0x1976	call   	dword ptr [0x2884]
  === BLOCK LINK ===
    0x197c
=== CODE BLOCK END ===

=== CODE BLOCK ADDRESS 0x197c ===
  0x197c	nop    	dword ptr [eax + eax]
  0x1981	mov    	ecx, 8
  0x1986	call   	0x1238
  === BLOCK LINK ===
    0x198b
=== CODE BLOCK END ===

=== CODE BLOCK ADDRESS 0x198b ===
  0x198b	inc    	ecx
  0x198c	mov    	eax, 0x104
  0x1991	dec    	eax
  0x1992	lea    	edx, [esp + 0x50]
  0x1996	dec    	eax
  === BLOCK LINK ===
    0x1997
=== CODE BLOCK END ===

=== CODE BLOCK ADDRESS 0x1997 ===
  0x1997	mov    	ecx, esi
  0x1999	dec    	eax
  0x199a	call   	dword ptr [0x2808]
  === BLOCK LINK ===
    0x19a0
=== CODE BLOCK END ===

=== CODE BLOCK ADDRESS 0x19a0 ===
  0x19a0	nop    	dword ptr [eax + eax]
  0x19a5	test   	eax, eax
  0x19a7	jne    	0x1874
  === BLOCK LINK ===
    0x19ad
=== CODE BLOCK END ===

=== CODE BLOCK ADDRESS 0x19ad ===
  0x19ad	dec    	eax
  0x19ae	call   	dword ptr [0x279c]
  === BLOCK LINK ===
    0x19b4
=== CODE BLOCK END ===

=== CODE BLOCK ADDRESS 0x19b4 ===
  0x19b4	nop    	dword ptr [eax + eax]
  0x19b9	cmp    	eax, 0x12
  0x19bc	je     	0x19e2
  === BLOCK LINK ===
    0x19be
=== CODE BLOCK END ===

=== CODE BLOCK ADDRESS 0x19be ===
  0x19be	dec    	eax
  0x19bf	call   	dword ptr [0x278b]
  === BLOCK LINK ===
    0x19c5
=== CODE BLOCK END ===

=== CODE BLOCK ADDRESS 0x19c5 ===
  0x19c5	nop    	dword ptr [eax + eax]
  0x19ca	mov    	ecx, eax
  0x19cc	call   	0x12d4
  === BLOCK LINK ===
    0x19d1
=== CODE BLOCK END ===

=== CODE BLOCK ADDRESS 0x19d1 ===
  0x19d1	dec    	eax
  0x19d2	mov    	ecx, esi
  0x19d4	dec    	eax
  0x19d5	call   	dword ptr [0x279d]
  === BLOCK LINK ===
    0x19db
=== CODE BLOCK END ===

=== CODE BLOCK ADDRESS 0x19db ===
  0x19db	nop    	dword ptr [eax + eax]
  0x19e0	jmp    	0x1a0f
  === BLOCK LINK ===
    0x19e2
=== CODE BLOCK END ===

=== CODE BLOCK ADDRESS 0x19e2 ===
  0x19e2	dec    	eax
  0x19e3	mov    	ecx, esi
  0x19e5	dec    	eax
  0x19e6	call   	dword ptr [0x278c]
  === BLOCK LINK ===
    0x19ec
=== CODE BLOCK END ===

=== CODE BLOCK ADDRESS 0x19ec ===
  0x19ec	nop    	dword ptr [eax + eax]
  0x19f1	inc    	ebp
  0x19f2	test   	esi, esi
  0x19f4	jne    	0x19ff
  === BLOCK LINK ===
    0x19f6
=== CODE BLOCK END ===

=== CODE BLOCK ADDRESS 0x19f6 ===
  0x19f6	inc    	ecx
  0x19f7	lea    	ecx, [esi + 0xd]
  0x19fa	call   	0x1238
  === BLOCK LINK ===
    0x19ff
=== CODE BLOCK END ===

=== CODE BLOCK ADDRESS 0x19ff ===
  0x19ff	call   	0x1348
  === BLOCK LINK ===
    0x1a04
=== CODE BLOCK END ===

=== CODE BLOCK ADDRESS 0x1a04 ===
  0x1a04	test   	eax, eax
  0x1a06	je     	0x1a0f
  === BLOCK LINK ===
    0x1a08
=== CODE BLOCK END ===

=== CODE BLOCK ADDRESS 0x1a08 ===
  0x1a08	xor    	ecx, ecx
  0x1a0a	call   	0x1660
  === BLOCK LINK ===
    0x1a0f
=== CODE BLOCK END ===

=== CODE BLOCK ADDRESS 0x1a0f ===
  0x1a0f	dec    	eax
  0x1a10	mov    	ecx, dword ptr [ebp + 0x160]
  0x1a16	dec    	eax
  0x1a17	xor    	ecx, esp
  0x1a19	call   	0x28c0
  === BLOCK LINK ===
    0x1a1e
=== CODE BLOCK END ===

=== CODE BLOCK ADDRESS 0x1a1e ===
  0x1a1e	dec    	esp
  0x1a1f	lea    	ebx, [esp + 0x270]
  0x1a26	dec    	ecx
  0x1a27	mov    	ebx, dword ptr [ebx + 0x20]
  0x1a2a	dec    	ecx
  === BLOCK LINK ===
    0x1a2b
=== CODE BLOCK END ===

=== CODE BLOCK ADDRESS 0x1a2b ===
  0x1a2b	mov    	esi, dword ptr [ebx + 0x28]
  0x1a2e	dec    	ecx
  0x1a2f	mov    	edi, dword ptr [ebx + 0x30]
  0x1a32	dec    	ecx
  0x1a33	mov    	esp, ebx
  === BLOCK LINK ===
    0x1a35
=== CODE BLOCK END ===

=== CODE BLOCK ADDRESS 0x1a35 ===
  0x1a35	inc    	ecx
  0x1a36	pop    	edi
  0x1a37	inc    	ecx
  0x1a38	pop    	esi
  0x1a39	pop    	ebp
  === BLOCK LINK ===
    0x1a3a
=== CODE BLOCK END ===

=== CODE BLOCK ADDRESS 0x1a3a ===
  0x1a3a	ret    	
  0x1a3b	int3   	
  0x1a3c	int3   	
  0x1a3d	int3   	
  0x1a3e	int3   	
  === BLOCK LINK ===
    0x1a3f
=== CODE BLOCK END ===

=== CODE BLOCK ADDRESS 0x1a3f ===
  0x1a3f	int3   	
  0x1a40	int3   	
  0x1a41	int3   	
  0x1a42	int3   	
  0x1a43	int3   	
  === BLOCK LINK ===
    0x1a44
=== CODE BLOCK END ===

=== CODE BLOCK ADDRESS 0x1a44 ===
  0x1a44	dec    	eax
  0x1a45	mov    	eax, esp
  0x1a47	dec    	eax
  0x1a48	mov    	dword ptr [eax + 8], ebx
  0x1a4b	dec    	eax
  === BLOCK LINK ===
    0x1a4c
=== CODE BLOCK END ===

=== CODE BLOCK ADDRESS 0x1a4c ===
  0x1a4c	mov    	dword ptr [eax + 0x10], esi
  0x1a4f	dec    	eax
  0x1a50	mov    	dword ptr [eax + 0x18], edi
  0x1a53	push   	ebp
  0x1a54	inc    	ecx
  === BLOCK LINK ===
    0x1a55
=== CODE BLOCK END ===

=== CODE BLOCK ADDRESS 0x1a55 ===
  0x1a55	push   	esp
  0x1a56	inc    	ecx
  0x1a57	push   	ebp
  0x1a58	inc    	ecx
  0x1a59	push   	esi
  === BLOCK LINK ===
    0x1a5a
=== CODE BLOCK END ===

=== CODE BLOCK ADDRESS 0x1a5a ===
  0x1a5a	inc    	ecx
  0x1a5b	push   	edi
  0x1a5c	dec    	eax
  0x1a5d	lea    	ebp, [eax - 0xfe8]
  0x1a63	mov    	eax, 0x10c0
  === BLOCK LINK ===
    0x1a68
=== CODE BLOCK END ===

=== CODE BLOCK ADDRESS 0x1a68 ===
  0x1a68	call   	0x2f90
  === BLOCK LINK ===
    0x1a6d
=== CODE BLOCK END ===

=== CODE BLOCK ADDRESS 0x1a6d ===
  0x1a6d	dec    	eax
  0x1a6e	sub    	esp, eax
  0x1a70	dec    	eax
  0x1a71	mov    	eax, dword ptr [0x4591]
  0x1a77	dec    	eax
  === BLOCK LINK ===
    0x1a78
=== CODE BLOCK END ===

=== CODE BLOCK ADDRESS 0x1a78 ===
  0x1a78	xor    	eax, esp
  0x1a7a	dec    	eax
  0x1a7b	mov    	dword ptr [ebp + 0xfb0], eax
  0x1a81	dec    	ecx
  0x1a82	or     	ebp, 0xffffffff
  === BLOCK LINK ===
    0x1a85
=== CODE BLOCK END ===

=== CODE BLOCK ADDRESS 0x1a85 ===
  0x1a85	dec    	eax
  0x1a86	lea    	ecx, [0x299c]
  0x1a8c	dec    	esp
  0x1a8d	mov    	dword ptr [esp + 0x30], ebp
  0x1a91	inc    	ebp
  === BLOCK LINK ===
    0x1a92
=== CODE BLOCK END ===

=== CODE BLOCK ADDRESS 0x1a92 ===
  0x1a92	xor    	ecx, ecx
  0x1a94	mov    	dword ptr [esp + 0x28], 0x80
  0x1a9c	mov    	edx, 0xc0000000
  0x1aa1	inc    	ecx
  0x1aa2	lea    	eax, [ebp + 4]
  === BLOCK LINK ===
    0x1aa5
=== CODE BLOCK END ===

=== CODE BLOCK ADDRESS 0x1aa5 ===
  0x1aa5	inc    	esp
  0x1aa6	mov    	eax, eax
  0x1aa8	mov    	dword ptr [esp + 0x20], eax
  0x1aac	dec    	eax
  0x1aad	call   	dword ptr [0x26fd]
  === BLOCK LINK ===
    0x1ab3
=== CODE BLOCK END ===

=== CODE BLOCK ADDRESS 0x1ab3 ===
  0x1ab3	nop    	dword ptr [eax + eax]
  0x1ab8	dec    	eax
  0x1ab9	mov    	ebx, eax
  0x1abb	dec    	ecx
  0x1abc	cmp    	eax, ebp
  === BLOCK LINK ===
    0x1abe
=== CODE BLOCK END ===

=== CODE BLOCK ADDRESS 0x1abe ===
  0x1abe	je     	0x1cde
  === BLOCK LINK ===
    0x1ac4
=== CODE BLOCK END ===

=== CODE BLOCK ADDRESS 0x1ac4 ===
  0x1ac4	inc    	ebp
  0x1ac5	xor    	esp, esp
  0x1ac7	dec    	eax
  0x1ac8	lea    	eax, [esp + 0x40]
  0x1acc	dec    	esp
  === BLOCK LINK ===
    0x1acd
=== CODE BLOCK END ===

=== CODE BLOCK ADDRESS 0x1acd ===
  0x1acd	mov    	dword ptr [esp + 0x38], esp
  0x1ad1	inc    	ebp
  0x1ad2	xor    	ecx, ecx
  0x1ad4	dec    	eax
  0x1ad5	mov    	dword ptr [esp + 0x30], eax
  === BLOCK LINK ===
    0x1ad9
=== CODE BLOCK END ===

=== CODE BLOCK ADDRESS 0x1ad9 ===
  0x1ad9	inc    	ebp
  0x1ada	xor    	eax, eax
  0x1adc	inc    	esp
  0x1add	mov    	dword ptr [esp + 0x28], esp
  0x1ae1	mov    	edx, 0x6dc038
  === BLOCK LINK ===
    0x1ae6
=== CODE BLOCK END ===

=== CODE BLOCK ADDRESS 0x1ae6 ===
  0x1ae6	dec    	eax
  0x1ae7	mov    	ecx, ebx
  0x1ae9	dec    	esp
  0x1aea	mov    	dword ptr [esp + 0x20], esp
  0x1aee	dec    	eax
  === BLOCK LINK ===
    0x1aef
=== CODE BLOCK END ===

=== CODE BLOCK ADDRESS 0x1aef ===
  0x1aef	call   	dword ptr [0x271b]
  === BLOCK LINK ===
    0x1af5
=== CODE BLOCK END ===

=== CODE BLOCK ADDRESS 0x1af5 ===
  0x1af5	nop    	dword ptr [eax + eax]
  0x1afa	dec    	eax
  0x1afb	mov    	ecx, ebx
  0x1afd	mov    	esi, eax
  0x1aff	dec    	eax
  === BLOCK LINK ===
    0x1b00
=== CODE BLOCK END ===

=== CODE BLOCK ADDRESS 0x1b00 ===
  0x1b00	call   	dword ptr [0x26d2]
  === BLOCK LINK ===
    0x1b06
=== CODE BLOCK END ===

=== CODE BLOCK ADDRESS 0x1b06 ===
  0x1b06	nop    	dword ptr [eax + eax]
  0x1b0b	test   	esi, esi
  0x1b0d	je     	0x1cde
  === BLOCK LINK ===
    0x1b13
=== CODE BLOCK END ===

=== CODE BLOCK ADDRESS 0x1b13 ===
  0x1b13	mov    	edx, 0x104
  0x1b18	dec    	eax
  0x1b19	lea    	ecx, [esp + 0x50]
  0x1b1d	dec    	eax
  0x1b1e	call   	dword ptr [0x264c]
  === BLOCK LINK ===
    0x1b24
=== CODE BLOCK END ===

=== CODE BLOCK ADDRESS 0x1b24 ===
  0x1b24	nop    	dword ptr [eax + eax]
  0x1b29	dec    	eax
  0x1b2a	mov    	edi, eax
  0x1b2c	dec    	ecx
  0x1b2d	cmp    	eax, ebp
  === BLOCK LINK ===
    0x1b2f
=== CODE BLOCK END ===

=== CODE BLOCK ADDRESS 0x1b2f ===
  0x1b2f	je     	0x1cde
  === BLOCK LINK ===
    0x1b35
=== CODE BLOCK END ===

=== CODE BLOCK ADDRESS 0x1b35 ===
  0x1b35	dec    	eax
  0x1b36	lea    	eax, [esp + 0x50]
  0x1b3a	dec    	ebp
  0x1b3b	mov    	esi, ebp
  0x1b3d	dec    	ecx
  === BLOCK LINK ===
    0x1b3e
=== CODE BLOCK END ===

=== CODE BLOCK ADDRESS 0x1b3e ===
  0x1b3e	inc    	esi
  0x1b40	inc    	si
  0x1b42	cmp    	dword ptr [eax + esi*2], esp
  0x1b45	jne    	0x1b3d
  === BLOCK LINK ===
    0x1b47
=== CODE BLOCK END ===

=== CODE BLOCK ADDRESS 0x1b47 ===
  0x1b47	dec    	ebx
  0x1b48	lea    	ebx, [esi + esi]
  0x1b4b	dec    	esp
  0x1b4c	mov    	eax, ebx
  0x1b4e	dec    	eax
  === BLOCK LINK ===
    0x1b4f
=== CODE BLOCK END ===

=== CODE BLOCK ADDRESS 0x1b4f ===
  0x1b4f	lea    	edx, [esp + 0x50]
  0x1b53	dec    	eax
  0x1b54	lea    	ecx, [ebp + 0x780]
  0x1b5a	call   	0x2f56
  === BLOCK LINK ===
    0x1b5f
=== CODE BLOCK END ===

=== CODE BLOCK ADDRESS 0x1b5f ===
  0x1b5f	inc    	ecx
  0x1b60	mov    	eax, 0x208
  0x1b65	dec    	eax
  0x1b66	lea    	edx, [ebp + 0x370]
  0x1b6c	dec    	eax
  === BLOCK LINK ===
    0x1b6d
=== CODE BLOCK END ===

=== CODE BLOCK ADDRESS 0x1b6d ===
  0x1b6d	lea    	ecx, [esp + 0x50]
  0x1b71	dec    	eax
  0x1b72	call   	dword ptr [0x26b0]
  === BLOCK LINK ===
    0x1b78
=== CODE BLOCK END ===

=== CODE BLOCK ADDRESS 0x1b78 ===
  0x1b78	nop    	dword ptr [eax + eax]
  0x1b7d	dec    	esp
  0x1b7e	mov    	edi, eax
  0x1b80	dec    	ecx
  0x1b81	cmp    	eax, ebp
  === BLOCK LINK ===
    0x1b83
=== CODE BLOCK END ===

=== CODE BLOCK ADDRESS 0x1b83 ===
  0x1b83	je     	0x1c88
  === BLOCK LINK ===
    0x1b89
=== CODE BLOCK END ===

=== CODE BLOCK ADDRESS 0x1b89 ===
  0x1b89	test   	esi, esi
  0x1b8b	je     	0x1c79
  === BLOCK LINK ===
    0x1b91
=== CODE BLOCK END ===

=== CODE BLOCK ADDRESS 0x1b91 ===
  0x1b91	dec    	eax
  0x1b92	lea    	esi, [ebp + 0x780]
  0x1b98	dec    	eax
  0x1b99	add    	esi, ebx
  0x1b9b	dec    	eax
  === BLOCK LINK ===
    0x1b9c
=== CODE BLOCK END ===

=== CODE BLOCK ADDRESS 0x1b9c ===
  0x1b9c	lea    	eax, [ebp + 0x370]
  0x1ba2	dec    	ecx
  0x1ba3	mov    	ebx, ebp
  0x1ba5	dec    	eax
  0x1ba6	inc    	ebx
  === BLOCK LINK ===
    0x1ba8
=== CODE BLOCK END ===

=== CODE BLOCK ADDRESS 0x1ba8 ===
  0x1ba8	inc    	sp
  0x1baa	cmp    	dword ptr [eax + ebx*2], esp
  0x1bad	jne    	0x1ba5
  === BLOCK LINK ===
    0x1baf
=== CODE BLOCK END ===

=== CODE BLOCK ADDRESS 0x1baf ===
  0x1baf	dec    	esp
  0x1bb0	lea    	eax, [ebx + ebx]
  0x1bb3	dec    	eax
  0x1bb4	mov    	ecx, esi
  0x1bb6	dec    	eax
  === BLOCK LINK ===
    0x1bb7
=== CODE BLOCK END ===

=== CODE BLOCK ADDRESS 0x1bb7 ===
  0x1bb7	lea    	edx, [ebp + 0x370]
  0x1bbd	call   	0x2f56
  === BLOCK LINK ===
    0x1bc2
=== CODE BLOCK END ===

=== CODE BLOCK ADDRESS 0x1bc2 ===
  0x1bc2	dec    	edx
  0x1bc3	lea    	eax, [ebx + esi]
  0x1bc6	dec    	eax
  0x1bc7	add    	eax, eax
  0x1bc9	dec    	eax
  === BLOCK LINK ===
    0x1bca
=== CODE BLOCK END ===

=== CODE BLOCK ADDRESS 0x1bca ===
  0x1bca	cmp    	eax, 0x618
  0x1bcf	jae    	0x1d11
  === BLOCK LINK ===
    0x1bd5
=== CODE BLOCK END ===

=== CODE BLOCK ADDRESS 0x1bd5 ===
  0x1bd5	mov    	ebx, 0x104
  0x1bda	inc    	sp
  0x1bdc	mov    	dword ptr [ebp + eax + 0x780], esp
  0x1be3	inc    	esp
  0x1be4	mov    	eax, ebx
  === BLOCK LINK ===
    0x1be6
=== CODE BLOCK END ===

=== CODE BLOCK ADDRESS 0x1be6 ===
  0x1be6	dec    	eax
  0x1be7	lea    	edx, [ebp + 0x160]
  0x1bed	dec    	eax
  0x1bee	lea    	ecx, [ebp + 0x780]
  0x1bf4	dec    	eax
  === BLOCK LINK ===
    0x1bf5
=== CODE BLOCK END ===

=== CODE BLOCK ADDRESS 0x1bf5 ===
  0x1bf5	call   	dword ptr [0x25cd]
  === BLOCK LINK ===
    0x1bfb
=== CODE BLOCK END ===

=== CODE BLOCK ADDRESS 0x1bfb ===
  0x1bfb	nop    	dword ptr [eax + eax]
  0x1c00	test   	eax, eax
  0x1c02	je     	0x1cc0
  === BLOCK LINK ===
    0x1c08
=== CODE BLOCK END ===

=== CODE BLOCK ADDRESS 0x1c08 ===
  0x1c08	inc    	esp
  0x1c09	mov    	eax, ebx
  0x1c0b	dec    	eax
  0x1c0c	lea    	edx, [ebp + 0xda0]
  0x1c12	dec    	eax
  === BLOCK LINK ===
    0x1c13
=== CODE BLOCK END ===

=== CODE BLOCK ADDRESS 0x1c13 ===
  0x1c13	lea    	ecx, [ebp + 0x160]
  0x1c19	dec    	eax
  0x1c1a	call   	dword ptr [0x25a8]
  === BLOCK LINK ===
    0x1c20
=== CODE BLOCK END ===

=== CODE BLOCK ADDRESS 0x1c20 ===
  0x1c20	nop    	dword ptr [eax + eax]
  0x1c25	test   	eax, eax
  0x1c27	jne    	0x1c55
  === BLOCK LINK ===
    0x1c29
=== CODE BLOCK END ===

=== CODE BLOCK ADDRESS 0x1c29 ===
  0x1c29	dec    	eax
  0x1c2a	call   	dword ptr [0x2520]
  === BLOCK LINK ===
    0x1c30
=== CODE BLOCK END ===

=== CODE BLOCK ADDRESS 0x1c30 ===
  0x1c30	nop    	dword ptr [eax + eax]
  0x1c35	cmp    	eax, 3
  0x1c38	jne    	0x1cc0
  === BLOCK LINK ===
    0x1c3e
=== CODE BLOCK END ===

=== CODE BLOCK ADDRESS 0x1c3e ===
  0x1c3e	dec    	eax
  0x1c3f	lea    	ecx, [ebp + 0x780]
  0x1c45	dec    	eax
  0x1c46	call   	dword ptr [0x2554]
  === BLOCK LINK ===
    0x1c4c
=== CODE BLOCK END ===

=== CODE BLOCK ADDRESS 0x1c4c ===
  0x1c4c	nop    	dword ptr [eax + eax]
  0x1c51	test   	eax, eax
  0x1c53	je     	0x1cc0
  === BLOCK LINK ===
    0x1c55
=== CODE BLOCK END ===

=== CODE BLOCK ADDRESS 0x1c55 ===
  0x1c55	inc    	ecx
  0x1c56	mov    	eax, 0x208
  0x1c5b	dec    	eax
  0x1c5c	lea    	edx, [ebp + 0x370]
  0x1c62	dec    	ecx
  === BLOCK LINK ===
    0x1c63
=== CODE BLOCK END ===

=== CODE BLOCK ADDRESS 0x1c63 ===
  0x1c63	mov    	ecx, edi
  0x1c65	dec    	eax
  0x1c66	call   	dword ptr [0x25cc]
  === BLOCK LINK ===
    0x1c6c
=== CODE BLOCK END ===

=== CODE BLOCK ADDRESS 0x1c6c ===
  0x1c6c	nop    	dword ptr [eax + eax]
  0x1c71	test   	eax, eax
  0x1c73	jne    	0x1b9b
  === BLOCK LINK ===
    0x1c79
=== CODE BLOCK END ===

=== CODE BLOCK ADDRESS 0x1c79 ===
  0x1c79	dec    	ecx
  0x1c7a	mov    	ecx, edi
  0x1c7c	dec    	eax
  0x1c7d	call   	dword ptr [0x25ad]
  === BLOCK LINK ===
    0x1c83
=== CODE BLOCK END ===

=== CODE BLOCK ADDRESS 0x1c83 ===
  0x1c83	nop    	dword ptr [eax + eax]
  0x1c88	inc    	ecx
  0x1c89	mov    	eax, 0x104
  0x1c8e	dec    	eax
  0x1c8f	lea    	edx, [esp + 0x50]
  === BLOCK LINK ===
    0x1c93
=== CODE BLOCK END ===

=== CODE BLOCK ADDRESS 0x1c93 ===
  0x1c93	dec    	eax
  0x1c94	mov    	ecx, edi
  0x1c96	dec    	eax
  0x1c97	call   	dword ptr [0x250b]
  === BLOCK LINK ===
    0x1c9d
=== CODE BLOCK END ===

=== CODE BLOCK ADDRESS 0x1c9d ===
  0x1c9d	nop    	dword ptr [eax + eax]
  0x1ca2	mov    	esi, eax
  0x1ca4	test   	eax, eax
  0x1ca6	jne    	0x1b35
  === BLOCK LINK ===
    0x1cac
=== CODE BLOCK END ===

=== CODE BLOCK ADDRESS 0x1cac ===
  0x1cac	dec    	eax
  0x1cad	mov    	ecx, edi
  0x1caf	dec    	eax
  0x1cb0	call   	dword ptr [0x24c2]
  === BLOCK LINK ===
    0x1cb6
=== CODE BLOCK END ===

=== CODE BLOCK ADDRESS 0x1cb6 ===
  0x1cb6	nop    	dword ptr [eax + eax]
  0x1cbb	lea    	eax, [esi + 1]
  0x1cbe	jmp    	0x1ce0
  === BLOCK LINK ===
    0x1cc0
=== CODE BLOCK END ===

=== CODE BLOCK ADDRESS 0x1cc0 ===
  0x1cc0	dec    	ecx
  0x1cc1	mov    	ecx, edi
  0x1cc3	dec    	eax
  0x1cc4	call   	dword ptr [0x2566]
  === BLOCK LINK ===
    0x1cca
=== CODE BLOCK END ===

=== CODE BLOCK ADDRESS 0x1cca ===
  0x1cca	nop    	dword ptr [eax + eax]
  0x1ccf	dec    	eax
  0x1cd0	mov    	ecx, edi
  0x1cd2	dec    	eax
  0x1cd3	call   	dword ptr [0x249f]
  === BLOCK LINK ===
    0x1cd9
=== CODE BLOCK END ===

=== CODE BLOCK ADDRESS 0x1cd9 ===
  0x1cd9	nop    	dword ptr [eax + eax]
  0x1cde	xor    	eax, eax
  0x1ce0	dec    	eax
  0x1ce1	mov    	ecx, dword ptr [ebp + 0xfb0]
  0x1ce7	dec    	eax
  === BLOCK LINK ===
    0x1ce8
=== CODE BLOCK END ===

=== CODE BLOCK ADDRESS 0x1ce8 ===
  0x1ce8	xor    	ecx, esp
  0x1cea	call   	0x28c0
  === BLOCK LINK ===
    0x1cef
=== CODE BLOCK END ===

=== CODE BLOCK ADDRESS 0x1cef ===
  0x1cef	dec    	esp
  0x1cf0	lea    	ebx, [esp + 0x10c0]
  0x1cf7	dec    	ecx
  0x1cf8	mov    	ebx, dword ptr [ebx + 0x30]
  0x1cfb	dec    	ecx
  === BLOCK LINK ===
    0x1cfc
=== CODE BLOCK END ===

=== CODE BLOCK ADDRESS 0x1cfc ===
  0x1cfc	mov    	esi, dword ptr [ebx + 0x38]
  0x1cff	dec    	ecx
  0x1d00	mov    	edi, dword ptr [ebx + 0x40]
  0x1d03	dec    	ecx
  0x1d04	mov    	esp, ebx
  === BLOCK LINK ===
    0x1d06
=== CODE BLOCK END ===

=== CODE BLOCK ADDRESS 0x1d06 ===
  0x1d06	inc    	ecx
  0x1d07	pop    	edi
  0x1d08	inc    	ecx
  0x1d09	pop    	esi
  0x1d0a	inc    	ecx
  === BLOCK LINK ===
    0x1d0b
=== CODE BLOCK END ===

=== CODE BLOCK ADDRESS 0x1d0b ===
  0x1d0b	pop    	ebp
  0x1d0c	inc    	ecx
  0x1d0d	pop    	esp
  0x1d0e	pop    	ebp
  0x1d0f	ret    	
  === BLOCK LINK ===
    0x1d10
=== CODE BLOCK END ===

=== CODE BLOCK ADDRESS 0x1d10 ===
  0x1d10	int3   	
  0x1d11	call   	0x2a98
  === BLOCK LINK ===
    0x1d16
=== CODE BLOCK END ===

=== CODE BLOCK ADDRESS 0x1d16 ===
  0x1d16	int3   	
  0x1d17	int3   	
  0x1d18	int3   	
  0x1d19	int3   	
  0x1d1a	int3   	
  === BLOCK LINK ===
    0x1d1b
=== CODE BLOCK END ===

=== CODE BLOCK ADDRESS 0x1d1b ===
  0x1d1b	int3   	
  0x1d1c	int3   	
  0x1d1d	int3   	
  0x1d1e	int3   	
  0x1d1f	int3   	
  === BLOCK LINK ===
    0x1d20
=== CODE BLOCK END ===

=== CODE BLOCK ADDRESS 0x1d20 ===
  0x1d20	dec    	eax
  0x1d21	mov    	dword ptr [esp + 0x18], ebx
  0x1d25	push   	ebp
  0x1d26	push   	esi
  0x1d27	push   	edi
  === BLOCK LINK ===
    0x1d28
=== CODE BLOCK END ===

=== CODE BLOCK ADDRESS 0x1d28 ===
  0x1d28	dec    	eax
  0x1d29	sub    	esp, 0x50
  0x1d2c	dec    	eax
  0x1d2d	mov    	edi, edx
  0x1d2f	dec    	esp
  === BLOCK LINK ===
    0x1d30
=== CODE BLOCK END ===

=== CODE BLOCK ADDRESS 0x1d30 ===
  0x1d30	lea    	ecx, [esp + 0x40]
  0x1d34	dec    	eax
  0x1d35	mov    	esi, ecx
  0x1d37	inc    	ebp
  0x1d38	xor    	eax, eax
  === BLOCK LINK ===
    0x1d3a
=== CODE BLOCK END ===

=== CODE BLOCK ADDRESS 0x1d3a ===
  0x1d3a	dec    	eax
  0x1d3b	mov    	ecx, edi
  0x1d3d	xor    	edx, edx
  0x1d3f	dec    	eax
  0x1d40	call   	dword ptr [0x247a]
  === BLOCK LINK ===
    0x1d46
=== CODE BLOCK END ===

=== CODE BLOCK ADDRESS 0x1d46 ===
  0x1d46	nop    	dword ptr [eax + eax]
  0x1d4b	xor    	ebp, ebp
  0x1d4d	test   	eax, eax
  0x1d4f	jne    	0x1d64
  === BLOCK LINK ===
    0x1d51
=== CODE BLOCK END ===

=== CODE BLOCK ADDRESS 0x1d51 ===
  0x1d51	dec    	eax
  0x1d52	call   	dword ptr [0x23f8]
  === BLOCK LINK ===
    0x1d58
=== CODE BLOCK END ===

=== CODE BLOCK ADDRESS 0x1d58 ===
  0x1d58	nop    	dword ptr [eax + eax]
  0x1d5d	cmp    	eax, 0xea
  0x1d62	jne    	0x1dae
  === BLOCK LINK ===
    0x1d64
=== CODE BLOCK END ===

=== CODE BLOCK ADDRESS 0x1d64 ===
  0x1d64	mov    	edx, dword ptr [esp + 0x40]
  0x1d68	xor    	ecx, ecx
  0x1d6a	dec    	eax
  0x1d6b	add    	edx, edx
  0x1d6d	dec    	eax
  === BLOCK LINK ===
    0x1d6e
=== CODE BLOCK END ===

=== CODE BLOCK ADDRESS 0x1d6e ===
  0x1d6e	call   	dword ptr [0x2484]
  === BLOCK LINK ===
    0x1d74
=== CODE BLOCK END ===

=== CODE BLOCK ADDRESS 0x1d74 ===
  0x1d74	nop    	dword ptr [eax + eax]
  0x1d79	dec    	eax
  0x1d7a	mov    	ebx, eax
  0x1d7c	dec    	eax
  0x1d7d	test   	eax, eax
  === BLOCK LINK ===
    0x1d7f
=== CODE BLOCK END ===

=== CODE BLOCK ADDRESS 0x1d7f ===
  0x1d7f	je     	0x1dae
  === BLOCK LINK ===
    0x1d81
=== CODE BLOCK END ===

=== CODE BLOCK ADDRESS 0x1d81 ===
  0x1d81	inc    	esp
  0x1d82	mov    	eax, dword ptr [esp + 0x40]
  0x1d86	inc    	ebp
  0x1d87	xor    	ecx, ecx
  0x1d89	dec    	eax
  === BLOCK LINK ===
    0x1d8a
=== CODE BLOCK END ===

=== CODE BLOCK ADDRESS 0x1d8a ===
  0x1d8a	mov    	edx, eax
  0x1d8c	dec    	eax
  0x1d8d	mov    	ecx, edi
  0x1d8f	dec    	eax
  0x1d90	call   	dword ptr [0x242a]
  === BLOCK LINK ===
    0x1d96
=== CODE BLOCK END ===

=== CODE BLOCK ADDRESS 0x1d96 ===
  0x1d96	nop    	dword ptr [eax + eax]
  0x1d9b	test   	eax, eax
  0x1d9d	jne    	0x1dc1
  === BLOCK LINK ===
    0x1d9f
=== CODE BLOCK END ===

=== CODE BLOCK ADDRESS 0x1d9f ===
  0x1d9f	dec    	eax
  0x1da0	mov    	ecx, ebx
  0x1da2	dec    	eax
  0x1da3	call   	dword ptr [0x2457]
  === BLOCK LINK ===
    0x1da9
=== CODE BLOCK END ===

=== CODE BLOCK ADDRESS 0x1da9 ===
  0x1da9	nop    	dword ptr [eax + eax]
  0x1dae	xor    	eax, eax
  0x1db0	dec    	eax
  0x1db1	mov    	ebx, dword ptr [esp + 0x80]
  0x1db8	dec    	eax
  === BLOCK LINK ===
    0x1db9
=== CODE BLOCK END ===

=== CODE BLOCK ADDRESS 0x1db9 ===
  0x1db9	add    	esp, 0x50
  0x1dbc	pop    	edi
  0x1dbd	pop    	esi
  0x1dbe	pop    	ebp
  0x1dbf	ret    	
  === BLOCK LINK ===
    0x1dc0
=== CODE BLOCK END ===

=== CODE BLOCK ADDRESS 0x111e ===
  0x111e	mov    	eax, edi
  0x1120	dec    	eax
  0x1121	add    	esp, 0x28
  0x1124	pop    	edi
  === BLOCK LINK ===
    0x1125
=== CODE BLOCK END ===

=== CODE BLOCK ADDRESS 0x1dc0 ===
  0x1dc0	int3   	
  0x1dc1	cmp    	word ptr [ebx], bp
  0x1dc4	jne    	0x1dd9
  === BLOCK LINK ===
    0x1dc6
=== CODE BLOCK END ===

=== CODE BLOCK ADDRESS 0x1dc6 ===
  0x1dc6	mov    	ecx, 0x57
  0x1dcb	dec    	eax
  0x1dcc	call   	dword ptr [0x236e]
  === BLOCK LINK ===
    0x1dd2
=== CODE BLOCK END ===

=== CODE BLOCK ADDRESS 0x1dd2 ===
  0x1dd2	nop    	dword ptr [eax + eax]
  0x1dd7	jmp    	0x1dae
  === BLOCK LINK ===
    0x1dd9
=== CODE BLOCK END ===

=== CODE BLOCK ADDRESS 0x1dd9 ===
  0x1dd9	dec    	eax
  0x1dda	mov    	ecx, ebx
  0x1ddc	movzx  	eax, word ptr [ecx]
  0x1ddf	dec    	eax
  0x1de0	lea    	ecx, [ecx + 2]
  === BLOCK LINK ===
    0x1de3
=== CODE BLOCK END ===

=== CODE BLOCK ADDRESS 0x1de3 ===
  0x1de3	test   	ax, ax
  0x1de6	jne    	0x1ddc
  === BLOCK LINK ===
    0x1de8
=== CODE BLOCK END ===

=== CODE BLOCK ADDRESS 0x1de8 ===
  0x1de8	cmp    	word ptr [ecx], bp
  0x1deb	dec    	eax
  0x1dec	mov    	ecx, ebx
  0x1dee	je     	0x1e1f
  === BLOCK LINK ===
    0x1df0
=== CODE BLOCK END ===

=== CODE BLOCK ADDRESS 0x1df0 ===
  0x1df0	dec    	eax
  0x1df1	call   	dword ptr [0x2409]
  === BLOCK LINK ===
    0x1df7
=== CODE BLOCK END ===

=== CODE BLOCK ADDRESS 0x1df7 ===
  0x1df7	nop    	dword ptr [eax + eax]
  0x1dfc	mov    	ecx, 0x57
  0x1e01	mov    	dword ptr [esi], 1
  0x1e07	dec    	eax
  0x1e08	call   	dword ptr [0x2332]
  === BLOCK LINK ===
    0x1e0e
=== CODE BLOCK END ===

=== CODE BLOCK ADDRESS 0x1e0e ===
  0x1e0e	nop    	dword ptr [eax + eax]
  0x1e13	mov    	ecx, 0xe
  0x1e18	call   	0x1238
  === BLOCK LINK ===
    0x1e1d
=== CODE BLOCK END ===

=== CODE BLOCK ADDRESS 0x1e1d ===
  0x1e1d	jmp    	0x1dae
  === BLOCK LINK ===
    0x1e1f
=== CODE BLOCK END ===

=== CODE BLOCK ADDRESS 0x1e1f ===
  0x1e1f	dec    	eax
  0x1e20	call   	dword ptr [0x23da]
  === BLOCK LINK ===
    0x1e26
=== CODE BLOCK END ===

=== CODE BLOCK ADDRESS 0x1e26 ===
  0x1e26	nop    	dword ptr [eax + eax]
  0x1e2b	dec    	eax
  0x1e2c	or     	eax, 0xffffffff
  0x1e2f	dec    	eax
  0x1e30	inc    	eax
  === BLOCK LINK ===
    0x1e32
=== CODE BLOCK END ===

=== CODE BLOCK ADDRESS 0x1e32 ===
  0x1e32	cmp    	word ptr [edi + eax*2], bp
  0x1e36	jne    	0x1e2f
  === BLOCK LINK ===
    0x1e38
=== CODE BLOCK END ===

=== CODE BLOCK ADDRESS 0x1e38 ===
  0x1e38	lea    	ecx, [eax - 1]
  0x1e3b	mov    	dword ptr [esp + 0x40], eax
  0x1e3f	mov    	eax, ecx
  0x1e41	dec    	eax
  0x1e42	add    	eax, eax
  === BLOCK LINK ===
    0x1e44
=== CODE BLOCK END ===

=== CODE BLOCK ADDRESS 0x1e44 ===
  0x1e44	dec    	eax
  0x1e45	cmp    	eax, 0x208
  0x1e4a	jae    	0x1fcf
  === BLOCK LINK ===
    0x1e50
=== CODE BLOCK END ===

=== CODE BLOCK ADDRESS 0x1e50 ===
  0x1e50	dec    	eax
  0x1e51	or     	dword ptr [esp + 0x30], 0xffffffff
  0x1e56	inc    	ecx
  0x1e57	mov    	eax, 3
  0x1e5c	mov    	dword ptr [esp + 0x40], ecx
  === BLOCK LINK ===
    0x1e60
=== CODE BLOCK END ===

=== CODE BLOCK ADDRESS 0x1e60 ===
  0x1e60	inc    	ebp
  0x1e61	xor    	ecx, ecx
  0x1e63	mov    	dword ptr [esp + 0x28], 0x80
  0x1e6b	dec    	eax
  0x1e6c	mov    	ecx, edi
  === BLOCK LINK ===
    0x1e6e
=== CODE BLOCK END ===

=== CODE BLOCK ADDRESS 0x1e6e ===
  0x1e6e	mov    	edx, 0xc0000000
  0x1e73	inc    	esp
  0x1e74	mov    	dword ptr [esp + 0x20], eax
  0x1e78	mov    	word ptr [edi + eax], bp
  0x1e7c	dec    	eax
  === BLOCK LINK ===
    0x1e7d
=== CODE BLOCK END ===

=== CODE BLOCK ADDRESS 0x1e7d ===
  0x1e7d	call   	dword ptr [0x232d]
  === BLOCK LINK ===
    0x1e83
=== CODE BLOCK END ===

=== CODE BLOCK ADDRESS 0x1e83 ===
  0x1e83	nop    	dword ptr [eax + eax]
  0x1e88	dec    	eax
  0x1e89	mov    	ebx, eax
  0x1e8b	dec    	eax
  0x1e8c	cmp    	eax, -1
  === BLOCK LINK ===
    0x1e8f
=== CODE BLOCK END ===

=== CODE BLOCK ADDRESS 0x1e8f ===
  0x1e8f	je     	0x1dae
  === BLOCK LINK ===
    0x1e95
=== CODE BLOCK END ===

=== CODE BLOCK ADDRESS 0x1e95 ===
  0x1e95	dec    	eax
  0x1e96	mov    	dword ptr [esp + 0x38], ebp
  0x1e9a	dec    	eax
  0x1e9b	lea    	eax, [esp + 0x44]
  0x1e9f	dec    	eax
  === BLOCK LINK ===
    0x1ea0
=== CODE BLOCK END ===

=== CODE BLOCK ADDRESS 0x1ea0 ===
  0x1ea0	mov    	dword ptr [esp + 0x30], eax
  0x1ea4	inc    	ebp
  0x1ea5	xor    	ecx, ecx
  0x1ea7	mov    	dword ptr [esp + 0x28], ebp
  0x1eab	inc    	ebp
  === BLOCK LINK ===
    0x1eac
=== CODE BLOCK END ===

=== CODE BLOCK ADDRESS 0x1eac ===
  0x1eac	xor    	eax, eax
  0x1eae	mov    	edx, 0x560004
  0x1eb3	dec    	eax
  0x1eb4	mov    	dword ptr [esp + 0x20], ebp
  0x1eb8	dec    	eax
  === BLOCK LINK ===
    0x1eb9
=== CODE BLOCK END ===

=== CODE BLOCK ADDRESS 0x1eb9 ===
  0x1eb9	mov    	ecx, ebx
  0x1ebb	dec    	eax
  0x1ebc	call   	dword ptr [0x234e]
  === BLOCK LINK ===
    0x1ec2
=== CODE BLOCK END ===

=== CODE BLOCK ADDRESS 0x1ec2 ===
  0x1ec2	nop    	dword ptr [eax + eax]
  0x1ec7	dec    	eax
  0x1ec8	mov    	ecx, ebx
  0x1eca	test   	eax, eax
  0x1ecc	jne    	0x1efb
  === BLOCK LINK ===
    0x1ece
=== CODE BLOCK END ===

=== CODE BLOCK ADDRESS 0x1ece ===
  0x1ece	dec    	eax
  0x1ecf	call   	dword ptr [0x2303]
  === BLOCK LINK ===
    0x1ed5
=== CODE BLOCK END ===

=== CODE BLOCK ADDRESS 0x1ed5 ===
  0x1ed5	nop    	dword ptr [eax + eax]
  0x1eda	mov    	ecx, 0x57
  0x1edf	mov    	dword ptr [esi], 1
  0x1ee5	dec    	eax
  0x1ee6	call   	dword ptr [0x2254]
  === BLOCK LINK ===
    0x1eec
=== CODE BLOCK END ===

=== CODE BLOCK ADDRESS 0x1eec ===
  0x1eec	nop    	dword ptr [eax + eax]
  0x1ef1	mov    	ecx, 0xf
  0x1ef6	jmp    	0x1e18
  === BLOCK LINK ===
    0x1efb
=== CODE BLOCK END ===

=== CODE BLOCK ADDRESS 0x1efb ===
  0x1efb	dec    	eax
  0x1efc	mov    	dword ptr [esp + 0x38], ebp
  0x1f00	dec    	eax
  0x1f01	lea    	eax, [esp + 0x44]
  0x1f05	dec    	eax
  === BLOCK LINK ===
    0x1f06
=== CODE BLOCK END ===

=== CODE BLOCK ADDRESS 0x1f06 ===
  0x1f06	mov    	dword ptr [esp + 0x30], eax
  0x1f0a	inc    	ebp
  0x1f0b	xor    	ecx, ecx
  0x1f0d	mov    	dword ptr [esp + 0x28], ebp
  0x1f11	inc    	ebp
  === BLOCK LINK ===
    0x1f12
=== CODE BLOCK END ===

=== CODE BLOCK ADDRESS 0x1f12 ===
  0x1f12	xor    	eax, eax
  0x1f14	mov    	edx, 0x90018
  0x1f19	dec    	eax
  0x1f1a	mov    	dword ptr [esp + 0x20], ebp
  0x1f1e	dec    	eax
  === BLOCK LINK ===
    0x1f1f
=== CODE BLOCK END ===

=== CODE BLOCK ADDRESS 0x1f1f ===
  0x1f1f	call   	dword ptr [0x22eb]
  === BLOCK LINK ===
    0x1f25
=== CODE BLOCK END ===

=== CODE BLOCK ADDRESS 0x1f25 ===
  0x1f25	nop    	dword ptr [eax + eax]
  0x1f2a	test   	eax, eax
  0x1f2c	jne    	0x1f36
  === BLOCK LINK ===
    0x1f2e
=== CODE BLOCK END ===

=== CODE BLOCK ADDRESS 0x1f2e ===
  0x1f2e	lea    	ecx, [eax + 0xb]
  0x1f31	call   	0x1238
  === BLOCK LINK ===
    0x1f36
=== CODE BLOCK END ===

=== CODE BLOCK ADDRESS 0x1f36 ===
  0x1f36	dec    	eax
  0x1f37	mov    	dword ptr [esp + 0x38], ebp
  0x1f3b	dec    	eax
  0x1f3c	lea    	eax, [esp + 0x44]
  0x1f40	dec    	eax
  === BLOCK LINK ===
    0x1f41
=== CODE BLOCK END ===

=== CODE BLOCK ADDRESS 0x1f41 ===
  0x1f41	mov    	dword ptr [esp + 0x30], eax
  0x1f45	inc    	ebp
  0x1f46	xor    	ecx, ecx
  0x1f48	mov    	dword ptr [esp + 0x28], ebp
  0x1f4c	inc    	ebp
  === BLOCK LINK ===
    0x1f4d
=== CODE BLOCK END ===

=== CODE BLOCK ADDRESS 0x1f4d ===
  0x1f4d	xor    	eax, eax
  0x1f4f	mov    	edx, 0x90020
  0x1f54	dec    	eax
  0x1f55	mov    	dword ptr [esp + 0x20], ebp
  0x1f59	dec    	eax
  === BLOCK LINK ===
    0x1f5a
=== CODE BLOCK END ===

=== CODE BLOCK ADDRESS 0x1f5a ===
  0x1f5a	mov    	ecx, ebx
  0x1f5c	dec    	eax
  0x1f5d	call   	dword ptr [0x22ad]
  === BLOCK LINK ===
    0x1f63
=== CODE BLOCK END ===

=== CODE BLOCK ADDRESS 0x1f63 ===
  0x1f63	nop    	dword ptr [eax + eax]
  0x1f68	test   	eax, eax
  0x1f6a	je     	0x1fbb
  === BLOCK LINK ===
    0x1f6c
=== CODE BLOCK END ===

=== CODE BLOCK ADDRESS 0x1f6c ===
  0x1f6c	dec    	eax
  0x1f6d	mov    	dword ptr [esp + 0x38], ebp
  0x1f71	dec    	eax
  0x1f72	lea    	eax, [esp + 0x44]
  0x1f76	dec    	eax
  === BLOCK LINK ===
    0x1f77
=== CODE BLOCK END ===

=== CODE BLOCK ADDRESS 0x1f77 ===
  0x1f77	mov    	dword ptr [esp + 0x30], eax
  0x1f7b	inc    	ebp
  0x1f7c	xor    	ecx, ecx
  0x1f7e	mov    	dword ptr [esp + 0x28], ebp
  0x1f82	inc    	ebp
  === BLOCK LINK ===
    0x1f83
=== CODE BLOCK END ===

=== CODE BLOCK ADDRESS 0x1f83 ===
  0x1f83	xor    	eax, eax
  0x1f85	mov    	edx, 0x56c00c
  0x1f8a	dec    	eax
  0x1f8b	mov    	dword ptr [esp + 0x20], ebp
  0x1f8f	dec    	eax
  === BLOCK LINK ===
    0x1f90
=== CODE BLOCK END ===

=== CODE BLOCK ADDRESS 0x1f90 ===
  0x1f90	mov    	ecx, ebx
  0x1f92	dec    	eax
  0x1f93	call   	dword ptr [0x2277]
  === BLOCK LINK ===
    0x1f99
=== CODE BLOCK END ===

=== CODE BLOCK ADDRESS 0x1f99 ===
  0x1f99	nop    	dword ptr [eax + eax]
  0x1f9e	test   	eax, eax
  0x1fa0	je     	0x1fbb
  === BLOCK LINK ===
    0x1fa2
=== CODE BLOCK END ===

=== CODE BLOCK ADDRESS 0x1fa2 ===
  0x1fa2	dec    	eax
  0x1fa3	mov    	ecx, ebx
  0x1fa5	dec    	eax
  0x1fa6	call   	dword ptr [0x222c]
  === BLOCK LINK ===
    0x1fac
=== CODE BLOCK END ===

=== CODE BLOCK ADDRESS 0x1fac ===
  0x1fac	nop    	dword ptr [eax + eax]
  0x1fb1	mov    	eax, 1
  0x1fb6	jmp    	0x1db0
  === BLOCK LINK ===
    0x1fbb
=== CODE BLOCK END ===

=== CODE BLOCK ADDRESS 0x1fbb ===
  0x1fbb	dec    	eax
  0x1fbc	mov    	ecx, ebx
  0x1fbe	dec    	eax
  0x1fbf	call   	dword ptr [0x2213]
  === BLOCK LINK ===
    0x1fc5
=== CODE BLOCK END ===

=== CODE BLOCK ADDRESS 0x1fc5 ===
  0x1fc5	nop    	dword ptr [eax + eax]
  0x1fca	jmp    	0x1dae
  === BLOCK LINK ===
    0x1fcf
=== CODE BLOCK END ===

=== CODE BLOCK ADDRESS 0x1fcf ===
  0x1fcf	call   	0x2a98
  === BLOCK LINK ===
    0x1fd4
=== CODE BLOCK END ===

=== CODE BLOCK ADDRESS 0x1fd4 ===
  0x1fd4	int3   	
  0x1fd5	int3   	
  0x1fd6	int3   	
  0x1fd7	int3   	
  0x1fd8	int3   	
  === BLOCK LINK ===
    0x1fd9
=== CODE BLOCK END ===

=== CODE BLOCK ADDRESS 0x1fd9 ===
  0x1fd9	int3   	
  0x1fda	int3   	
  0x1fdb	int3   	
  0x1fdc	dec    	eax
  0x1fdd	mov    	eax, esp
  === BLOCK LINK ===
    0x1fdf
=== CODE BLOCK END ===

=== CODE BLOCK ADDRESS 0x1fdf ===
  0x1fdf	dec    	eax
  0x1fe0	mov    	dword ptr [eax + 8], ebx
  0x1fe3	dec    	eax
  0x1fe4	mov    	dword ptr [eax + 0x18], esi
  0x1fe7	dec    	eax
  === BLOCK LINK ===
    0x1fe8
=== CODE BLOCK END ===

=== CODE BLOCK ADDRESS 0x1fe8 ===
  0x1fe8	mov    	dword ptr [eax + 0x20], edi
  0x1feb	push   	ebp
  0x1fec	inc    	ecx
  0x1fed	push   	esp
  0x1fee	inc    	ecx
  === BLOCK LINK ===
    0x1fef
=== CODE BLOCK END ===

=== CODE BLOCK ADDRESS 0x1fef ===
  0x1fef	push   	ebp
  0x1ff0	inc    	ecx
  0x1ff1	push   	esi
  0x1ff2	inc    	ecx
  0x1ff3	push   	edi
  === BLOCK LINK ===
    0x1ff4
=== CODE BLOCK END ===

=== CODE BLOCK ADDRESS 0x1ff4 ===
  0x1ff4	dec    	eax
  0x1ff5	lea    	ebp, [eax - 0x7a8]
  0x1ffb	dec    	eax
  0x1ffc	sub    	esp, 0x880
  0x2002	dec    	eax
  === BLOCK LINK ===
    0x2003
=== CODE BLOCK END ===

=== CODE BLOCK ADDRESS 0x2003 ===
  0x2003	mov    	eax, dword ptr [0x3fff]
  0x2009	dec    	eax
  0x200a	xor    	eax, esp
  0x200c	dec    	eax
  0x200d	mov    	dword ptr [ebp + 0x770], eax
  === BLOCK LINK ===
    0x2013
=== CODE BLOCK END ===

=== CODE BLOCK ADDRESS 0x2013 ===
  0x2013	xor    	ebx, ebx
  0x2015	mov    	esi, ecx
  0x2017	xor    	ecx, ecx
  0x2019	mov    	edi, ebx
  0x201b	inc    	esp
  === BLOCK LINK ===
    0x201c
=== CODE BLOCK END ===

=== CODE BLOCK ADDRESS 0x201c ===
  0x201c	mov    	edi, ebx
  0x201e	inc    	esp
  0x201f	mov    	esp, ebx
  0x2021	inc    	esp
  0x2022	mov    	ebp, ebx
  === BLOCK LINK ===
    0x2024
=== CODE BLOCK END ===

=== CODE BLOCK ADDRESS 0x2024 ===
  0x2024	dec    	esp
  0x2025	mov    	esi, edx
  0x2027	dec    	eax
  0x2028	call   	dword ptr [0x2232]
  === BLOCK LINK ===
    0x202e
=== CODE BLOCK END ===

=== CODE BLOCK ADDRESS 0x202e ===
  0x202e	nop    	dword ptr [eax + eax]
  0x2033	lea    	ecx, [ebx + 1]
  0x2036	dec    	eax
  0x2037	call   	dword ptr [0x210b]
  === BLOCK LINK ===
    0x203d
=== CODE BLOCK END ===

=== CODE BLOCK ADDRESS 0x203d ===
  0x203d	nop    	dword ptr [eax + eax]
  0x2042	inc    	ebp
  0x2043	xor    	ecx, ecx
  0x2045	lea    	edx, [ebx + 1]
  0x2048	inc    	ebp
  === BLOCK LINK ===
    0x2049
=== CODE BLOCK END ===

=== CODE BLOCK ADDRESS 0x2049 ===
  0x2049	xor    	eax, eax
  0x204b	xor    	ecx, ecx
  0x204d	dec    	eax
  0x204e	call   	dword ptr [0x2194]
  === BLOCK LINK ===
    0x2054
=== CODE BLOCK END ===

=== CODE BLOCK ADDRESS 0x2054 ===
  0x2054	nop    	dword ptr [eax + eax]
  0x2059	test   	eax, eax
  0x205b	jne    	0x207a
  === BLOCK LINK ===
    0x205d
=== CODE BLOCK END ===

=== CODE BLOCK ADDRESS 0x205d ===
  0x205d	dec    	eax
  0x205e	call   	dword ptr [0x20ec]
  === BLOCK LINK ===
    0x2064
=== CODE BLOCK END ===

=== CODE BLOCK ADDRESS 0x2064 ===
  0x2064	nop    	dword ptr [eax + eax]
  0x2069	mov    	ecx, eax
  0x206b	call   	0x12d4
  === BLOCK LINK ===
    0x2070
=== CODE BLOCK END ===

=== CODE BLOCK ADDRESS 0x2070 ===
  0x2070	mov    	eax, 1
  0x2075	jmp    	0x2190
  === BLOCK LINK ===
    0x207a
=== CODE BLOCK END ===

=== CODE BLOCK ADDRESS 0x207a ===
  0x207a	mov    	ecx, 0xfffffff5
  0x207f	dec    	eax
  0x2080	call   	dword ptr [0x21ea]
  === BLOCK LINK ===
    0x2086
=== CODE BLOCK END ===

=== CODE BLOCK ADDRESS 0x2086 ===
  0x2086	nop    	dword ptr [eax + eax]
  0x208b	dec    	eax
  0x208c	mov    	ecx, eax
  0x208e	dec    	eax
  0x208f	mov    	dword ptr [0x4563], eax
  === BLOCK LINK ===
    0x2095
=== CODE BLOCK END ===

=== CODE BLOCK ADDRESS 0x2095 ===
  0x2095	dec    	eax
  0x2096	lea    	edx, [esp + 0x28]
  0x209a	dec    	eax
  0x209b	call   	dword ptr [0x208f]
  === BLOCK LINK ===
    0x20a1
=== CODE BLOCK END ===

=== CODE BLOCK ADDRESS 0x20a1 ===
  0x20a1	nop    	dword ptr [eax + eax]
  0x20a6	dec    	eax
  0x20a7	or     	ebx, 0xffffffff
  0x20aa	mov    	dword ptr [0x4550], eax
  0x20b0	cmp    	esi, 2
  === BLOCK LINK ===
    0x20b3
=== CODE BLOCK END ===

=== CODE BLOCK ADDRESS 0x20b3 ===
  0x20b3	jle    	0x20f1
  === BLOCK LINK ===
    0x20b5
=== CODE BLOCK END ===

=== CODE BLOCK ADDRESS 0x20b5 ===
  0x20b5	dec    	ebp
  0x20b6	mov    	ecx, dword ptr [esi + 0x10]
  0x20b9	dec    	esp
  0x20ba	lea    	eax, [0x2398]
  0x20c0	mov    	edx, 0x104
  === BLOCK LINK ===
    0x20c5
=== CODE BLOCK END ===

=== CODE BLOCK ADDRESS 0x20c5 ===
  0x20c5	dec    	eax
  0x20c6	lea    	ecx, [ebp + 0x140]
  0x20cc	call   	0x10ac
  === BLOCK LINK ===
    0x20d1
=== CODE BLOCK END ===

=== CODE BLOCK ADDRESS 0x20d1 ===
  0x20d1	xor    	edx, edx
  0x20d3	test   	eax, eax
  0x20d5	js     	0x24df
  === BLOCK LINK ===
    0x20db
=== CODE BLOCK END ===

=== CODE BLOCK ADDRESS 0x20db ===
  0x20db	dec    	eax
  0x20dc	lea    	eax, [ebp + 0x140]
  0x20e2	dec    	esp
  0x20e3	mov    	edi, ebx
  0x20e5	dec    	ecx
  === BLOCK LINK ===
    0x20e6
=== CODE BLOCK END ===

=== CODE BLOCK ADDRESS 0x20e6 ===
  0x20e6	inc    	edi
  0x20e8	inc    	dx
  0x20ea	cmp    	dword ptr [eax + edi*2], edx
  0x20ed	jne    	0x20e5
  === BLOCK LINK ===
    0x20ef
=== CODE BLOCK END ===

=== CODE BLOCK ADDRESS 0x20ef ===
  0x20ef	jmp    	0x20f3
  === BLOCK LINK ===
    0x20f1
=== CODE BLOCK END ===

=== CODE BLOCK ADDRESS 0x20f1 ===
  0x20f1	xor    	edx, edx
  0x20f3	inc    	ecx
  0x20f4	mov    	eax, 1
  0x20f9	inc    	ecx
  0x20fa	cmp    	esi, eax
  === BLOCK LINK ===
    0x20fc
=== CODE BLOCK END ===

=== CODE BLOCK ADDRESS 0x20fc ===
  0x20fc	jle    	0x2139
  === BLOCK LINK ===
    0x20fe
=== CODE BLOCK END ===

=== CODE BLOCK ADDRESS 0x20fe ===
  0x20fe	dec    	ebp
  0x20ff	mov    	ecx, dword ptr [esi + 8]
  0x2102	dec    	esp
  0x2103	lea    	eax, [0x234f]
  0x2109	mov    	edx, 0x104
  === BLOCK LINK ===
    0x210e
=== CODE BLOCK END ===

=== CODE BLOCK ADDRESS 0x210e ===
  0x210e	dec    	eax
  0x210f	lea    	ecx, [esp + 0x30]
  0x2113	call   	0x10ac
  === BLOCK LINK ===
    0x2118
=== CODE BLOCK END ===

=== CODE BLOCK ADDRESS 0x2118 ===
  0x2118	xor    	edx, edx
  0x211a	test   	eax, eax
  0x211c	js     	0x24df
  === BLOCK LINK ===
    0x2122
=== CODE BLOCK END ===

=== CODE BLOCK ADDRESS 0x2122 ===
  0x2122	dec    	eax
  0x2123	lea    	eax, [esp + 0x30]
  0x2127	dec    	eax
  0x2128	mov    	edi, ebx
  0x212a	dec    	eax
  === BLOCK LINK ===
    0x212b
=== CODE BLOCK END ===

=== CODE BLOCK ADDRESS 0x212b ===
  0x212b	inc    	edi
  0x212d	cmp    	word ptr [eax + edi*2], dx
  0x2131	jne    	0x212a
  === BLOCK LINK ===
    0x2133
=== CODE BLOCK END ===

=== CODE BLOCK ADDRESS 0x2133 ===
  0x2133	inc    	ecx
  0x2134	mov    	eax, 1
  0x2139	cmp    	esi, 3
  0x213c	je     	0x220a
  === BLOCK LINK ===
    0x2142
=== CODE BLOCK END ===

=== CODE BLOCK ADDRESS 0x2142 ===
  0x2142	cmp    	esi, 2
  0x2145	jne    	0x21c1
  === BLOCK LINK ===
    0x2147
=== CODE BLOCK END ===

=== CODE BLOCK ADDRESS 0x2147 ===
  0x2147	dec    	ecx
  0x2148	mov    	eax, dword ptr [esi + 8]
  0x214b	cmp    	byte ptr [eax], 0x2f
  0x214e	jne    	0x21c1
  === BLOCK LINK ===
    0x2150
=== CODE BLOCK END ===

=== CODE BLOCK ADDRESS 0x2150 ===
  0x2150	mov    	cl, byte ptr [eax + 1]
  0x2153	test   	cl, cl
  0x2155	je     	0x21c1
  === BLOCK LINK ===
    0x2157
=== CODE BLOCK END ===

=== CODE BLOCK ADDRESS 0x2157 ===
  0x2157	cmp    	byte ptr [eax + 2], dl
  0x215a	jne    	0x21c1
  === BLOCK LINK ===
    0x215c
=== CODE BLOCK END ===

=== CODE BLOCK ADDRESS 0x215c ===
  0x215c	lea    	eax, [ecx - 0x52]
  0x215f	mov    	dl, 0xdf
  0x2161	test   	dl, al
  0x2163	je     	0x2181
  === BLOCK LINK ===
    0x2165
=== CODE BLOCK END ===

=== CODE BLOCK ADDRESS 0x2165 ===
  0x2165	lea    	eax, [ecx - 0x4e]
  0x2168	test   	dl, al
  0x216a	je     	0x217d
  === BLOCK LINK ===
    0x216c
=== CODE BLOCK END ===

=== CODE BLOCK ADDRESS 0x216c ===
  0x216c	sub    	cl, 0x45
  0x216f	test   	dl, cl
  0x2171	jne    	0x21c1
  === BLOCK LINK ===
    0x2173
=== CODE BLOCK END ===

=== CODE BLOCK ADDRESS 0x2173 ===
  0x2173	inc    	ecx
  0x2174	mov    	ecx, eax
  0x2176	call   	0x159c
  === BLOCK LINK ===
    0x217b
=== CODE BLOCK END ===

=== CODE BLOCK ADDRESS 0x217b ===
  0x217b	jmp    	0x2186
  === BLOCK LINK ===
    0x217d
=== CODE BLOCK END ===

=== CODE BLOCK ADDRESS 0x217d ===
  0x217d	xor    	ecx, ecx
  0x217f	jmp    	0x2176
  === BLOCK LINK ===
    0x2181
=== CODE BLOCK END ===

=== CODE BLOCK ADDRESS 0x2181 ===
  0x2181	call   	0x1a44
  === BLOCK LINK ===
    0x2186
=== CODE BLOCK END ===

=== CODE BLOCK ADDRESS 0x2186 ===
  0x2186	test   	eax, eax
  0x2188	je     	0x205d
  === BLOCK LINK ===
    0x218e
=== CODE BLOCK END ===

=== CODE BLOCK ADDRESS 0x218e ===
  0x218e	xor    	eax, eax
  0x2190	dec    	eax
  0x2191	mov    	ecx, dword ptr [ebp + 0x770]
  0x2197	dec    	eax
  0x2198	xor    	ecx, esp
  === BLOCK LINK ===
    0x219a
=== CODE BLOCK END ===

=== CODE BLOCK ADDRESS 0x219a ===
  0x219a	call   	0x28c0
  === BLOCK LINK ===
    0x219f
=== CODE BLOCK END ===

=== CODE BLOCK ADDRESS 0x219f ===
  0x219f	dec    	esp
  0x21a0	lea    	ebx, [esp + 0x880]
  0x21a7	dec    	ecx
  0x21a8	mov    	ebx, dword ptr [ebx + 0x30]
  0x21ab	dec    	ecx
  === BLOCK LINK ===
    0x21ac
=== CODE BLOCK END ===

=== CODE BLOCK ADDRESS 0x21ac ===
  0x21ac	mov    	esi, dword ptr [ebx + 0x40]
  0x21af	dec    	ecx
  0x21b0	mov    	edi, dword ptr [ebx + 0x48]
  0x21b3	dec    	ecx
  0x21b4	mov    	esp, ebx
  === BLOCK LINK ===
    0x21b6
=== CODE BLOCK END ===

=== CODE BLOCK ADDRESS 0x21b6 ===
  0x21b6	inc    	ecx
  0x21b7	pop    	edi
  0x21b8	inc    	ecx
  0x21b9	pop    	esi
  0x21ba	inc    	ecx
  === BLOCK LINK ===
    0x21bb
=== CODE BLOCK END ===

=== CODE BLOCK ADDRESS 0x21bb ===
  0x21bb	pop    	ebp
  0x21bc	inc    	ecx
  0x21bd	pop    	esp
  0x21be	pop    	ebp
  0x21bf	ret    	
  === BLOCK LINK ===
    0x21c0
=== CODE BLOCK END ===

=== CODE BLOCK ADDRESS 0x21c0 ===
  0x21c0	int3   	
  0x21c1	inc    	ecx
  0x21c2	mov    	ecx, eax
  0x21c4	call   	0x1238
  === BLOCK LINK ===
    0x21c9
=== CODE BLOCK END ===

=== CODE BLOCK ADDRESS 0x21c9 ===
  0x21c9	call   	0x1348
  === BLOCK LINK ===
    0x21ce
=== CODE BLOCK END ===

=== CODE BLOCK ADDRESS 0x21ce ===
  0x21ce	test   	eax, eax
  0x21d0	je     	0x21dc
  === BLOCK LINK ===
    0x21d2
=== CODE BLOCK END ===

=== CODE BLOCK ADDRESS 0x21d2 ===
  0x21d2	mov    	ecx, 2
  0x21d7	call   	0x1238
  === BLOCK LINK ===
    0x21dc
=== CODE BLOCK END ===

=== CODE BLOCK ADDRESS 0x21dc ===
  0x21dc	mov    	ecx, 3
  0x21e1	call   	0x1238
  === BLOCK LINK ===
    0x21e6
=== CODE BLOCK END ===

=== CODE BLOCK ADDRESS 0x21e6 ===
  0x21e6	call   	0x1348
  === BLOCK LINK ===
    0x21eb
=== CODE BLOCK END ===

=== CODE BLOCK ADDRESS 0x21eb ===
  0x21eb	test   	eax, eax
  0x21ed	je     	0x21f9
  === BLOCK LINK ===
    0x21ef
=== CODE BLOCK END ===

=== CODE BLOCK ADDRESS 0x21ef ===
  0x21ef	mov    	ecx, 4
  0x21f4	call   	0x1238
  === BLOCK LINK ===
    0x21f9
=== CODE BLOCK END ===

=== CODE BLOCK ADDRESS 0x21f9 ===
  0x21f9	mov    	ecx, 5
  0x21fe	call   	0x1238
  === BLOCK LINK ===
    0x2203
=== CODE BLOCK END ===

=== CODE BLOCK ADDRESS 0x2203 ===
  0x2203	call   	0x1754
  === BLOCK LINK ===
    0x2208
=== CODE BLOCK END ===

=== CODE BLOCK ADDRESS 0x2208 ===
  0x2208	jmp    	0x218e
  === BLOCK LINK ===
    0x220a
=== CODE BLOCK END ===

=== CODE BLOCK ADDRESS 0x220a ===
  0x220a	dec    	ecx
  0x220b	mov    	eax, dword ptr [esi + 0x10]
  0x220e	inc    	ebp
  0x220f	xor    	esi, esi
  0x2211	cmp    	byte ptr [eax], 0x2f
  === BLOCK LINK ===
    0x2214
=== CODE BLOCK END ===

=== CODE BLOCK ADDRESS 0x2214 ===
  0x2214	jne    	0x2267
  === BLOCK LINK ===
    0x2216
=== CODE BLOCK END ===

=== CODE BLOCK ADDRESS 0x2216 ===
  0x2216	mov    	cl, byte ptr [eax + 1]
  0x2219	test   	cl, cl
  0x221b	je     	0x2267
  === BLOCK LINK ===
    0x221d
=== CODE BLOCK END ===

=== CODE BLOCK ADDRESS 0x221d ===
  0x221d	inc    	esp
  0x221e	cmp    	byte ptr [eax + 2], dh
  0x2221	jne    	0x2267
  === BLOCK LINK ===
    0x2223
=== CODE BLOCK END ===

=== CODE BLOCK ADDRESS 0x2223 ===
  0x2223	lea    	eax, [ecx - 0x44]
  0x2226	mov    	dl, 0xdf
  0x2228	test   	dl, al
  0x222a	je     	0x225c
  === BLOCK LINK ===
    0x222c
=== CODE BLOCK END ===

=== CODE BLOCK ADDRESS 0x222c ===
  0x222c	lea    	eax, [ecx - 0x4c]
  0x222f	test   	dl, al
  0x2231	je     	0x2257
  === BLOCK LINK ===
    0x2233
=== CODE BLOCK END ===

=== CODE BLOCK ADDRESS 0x2233 ===
  0x2233	lea    	eax, [ecx - 0x50]
  0x2236	test   	dl, al
  0x2238	je     	0x2249
  === BLOCK LINK ===
    0x223a
=== CODE BLOCK END ===

=== CODE BLOCK ADDRESS 0x223a ===
  0x223a	sub    	cl, 0x53
  0x223d	inc    	ebp
  0x223e	mov    	ebx, esp
  0x2240	test   	dl, cl
  0x2242	jne    	0x226a
  === BLOCK LINK ===
    0x2244
=== CODE BLOCK END ===

=== CODE BLOCK ADDRESS 0x2244 ===
  0x2244	inc    	ecx
  0x2245	mov    	esi, eax
  0x2247	jmp    	0x226d
  === BLOCK LINK ===
    0x2249
=== CODE BLOCK END ===

=== CODE BLOCK ADDRESS 0x2249 ===
  0x2249	inc    	ebp
  0x224a	mov    	esp, eax
  0x224c	inc    	ebp
  0x224d	mov    	ebp, eax
  0x224f	inc    	ebp
  === BLOCK LINK ===
    0x2250
=== CODE BLOCK END ===

=== CODE BLOCK ADDRESS 0x2250 ===
  0x2250	mov    	ebx, esi
  0x2252	inc    	ecx
  0x2253	mov    	esi, esi
  0x2255	jmp    	0x226d
  === BLOCK LINK ===
    0x2257
=== CODE BLOCK END ===

=== CODE BLOCK ADDRESS 0x2257 ===
  0x2257	inc    	ebp
  0x2258	mov    	ebx, eax
  0x225a	jmp    	0x226a
  === BLOCK LINK ===
    0x225c
=== CODE BLOCK END ===

=== CODE BLOCK ADDRESS 0x225c ===
  0x225c	inc    	ebp
  0x225d	mov    	esp, eax
  0x225f	inc    	ebp
  0x2260	mov    	ebx, ebp
  0x2262	inc    	ecx
  === BLOCK LINK ===
    0x2263
=== CODE BLOCK END ===

=== CODE BLOCK ADDRESS 0x2263 ===
  0x2263	mov    	esi, ebp
  0x2265	jmp    	0x226d
  === BLOCK LINK ===
    0x2267
=== CODE BLOCK END ===

=== CODE BLOCK ADDRESS 0x2267 ===
  0x2267	inc    	ebp
  0x2268	mov    	ebx, esp
  0x226a	inc    	ecx
  0x226b	mov    	esi, esp
  0x226d	lea    	eax, [edi - 1]
  === BLOCK LINK ===
    0x2270
=== CODE BLOCK END ===

=== CODE BLOCK ADDRESS 0x2270 ===
  0x2270	mov    	edx, 0x5c
  0x2275	cmp    	word ptr [esp + eax*2 + 0x30], dx
  0x227a	je     	0x229b
  === BLOCK LINK ===
    0x227c
=== CODE BLOCK END ===

=== CODE BLOCK ADDRESS 0x227c ===
  0x227c	dec    	eax
  0x227d	lea    	ecx, [esp + 0x30]
  0x2281	call   	0x1008
  === BLOCK LINK ===
    0x2286
=== CODE BLOCK END ===

=== CODE BLOCK ADDRESS 0x2286 ===
  0x2286	test   	eax, eax
  0x2288	js     	0x24df
  === BLOCK LINK ===
    0x228e
=== CODE BLOCK END ===

=== CODE BLOCK ADDRESS 0x228e ===
  0x228e	inc    	ecx
  0x228f	mov    	eax, 1
  0x2294	inc    	ecx
  0x2295	add    	edi, eax
  0x2297	inc    	ecx
  === BLOCK LINK ===
    0x2298
=== CODE BLOCK END ===

=== CODE BLOCK ADDRESS 0x2298 ===
  0x2298	lea    	edx, [eax + 0x5b]
  0x229b	inc    	dx
  0x229d	cmp    	dword ptr [ebp + edi*2 + 0x13e], edx
  0x22a4	je     	0x22c3
  === BLOCK LINK ===
    0x22a6
=== CODE BLOCK END ===

=== CODE BLOCK ADDRESS 0x22a6 ===
  0x22a6	dec    	eax
  0x22a7	lea    	ecx, [ebp + 0x140]
  0x22ad	call   	0x1008
  === BLOCK LINK ===
    0x22b2
=== CODE BLOCK END ===

=== CODE BLOCK ADDRESS 0x22b2 ===
  0x22b2	test   	eax, eax
  0x22b4	js     	0x24df
  === BLOCK LINK ===
    0x22ba
=== CODE BLOCK END ===

=== CODE BLOCK ADDRESS 0x22ba ===
  0x22ba	mov    	edx, 0x5c
  0x22bf	inc    	esp
  0x22c0	lea    	eax, [edx - 0x5b]
  0x22c3	inc    	ebp
  0x22c4	test   	esp, esp
  === BLOCK LINK ===
    0x22c6
=== CODE BLOCK END ===

=== CODE BLOCK ADDRESS 0x22c6 ===
  0x22c6	je     	0x2394
  === BLOCK LINK ===
    0x22cc
=== CODE BLOCK END ===

=== CODE BLOCK ADDRESS 0x22cc ===
  0x22cc	inc    	ebp
  0x22cd	test   	ebp, ebp
  0x22cf	je     	0x2323
  === BLOCK LINK ===
    0x22d1
=== CODE BLOCK END ===

=== CODE BLOCK ADDRESS 0x22d1 ===
  0x22d1	inc    	ecx
  0x22d2	mov    	eax, 0x104
  0x22d7	inc    	esp
  0x22d8	mov    	dword ptr [esp + 0x20], esi
  0x22dc	dec    	eax
  === BLOCK LINK ===
    0x22dd
=== CODE BLOCK END ===

=== CODE BLOCK ADDRESS 0x22dd ===
  0x22dd	lea    	edx, [ebp + 0x350]
  0x22e3	dec    	eax
  0x22e4	lea    	ecx, [esp + 0x30]
  0x22e8	dec    	eax
  0x22e9	call   	dword ptr [0x1ed9]
  === BLOCK LINK ===
    0x22ef
=== CODE BLOCK END ===

=== CODE BLOCK ADDRESS 0x22ef ===
  0x22ef	nop    	dword ptr [eax + eax]
  0x22f4	test   	eax, eax
  0x22f6	jne    	0x2300
  === BLOCK LINK ===
    0x22f8
=== CODE BLOCK END ===

=== CODE BLOCK ADDRESS 0x22f8 ===
  0x22f8	inc    	ecx
  0x22f9	mov    	eax, esi
  0x22fb	inc    	ecx
  0x22fc	mov    	ebx, esi
  0x22fe	jmp    	0x2329
  === BLOCK LINK ===
    0x2300
=== CODE BLOCK END ===

=== CODE BLOCK ADDRESS 0x2300 ===
  0x2300	dec    	eax
  0x2301	lea    	edx, [ebp + 0x350]
  0x2307	dec    	eax
  0x2308	lea    	ecx, [esp + 0x20]
  0x230c	call   	0x1d20
  === BLOCK LINK ===
    0x2311
=== CODE BLOCK END ===

=== CODE BLOCK ADDRESS 0x2311 ===
  0x2311	mov    	ebx, eax
  0x2313	test   	eax, eax
  0x2315	jne    	0x2331
  === BLOCK LINK ===
    0x2317
=== CODE BLOCK END ===

=== CODE BLOCK ADDRESS 0x2317 ===
  0x2317	inc    	esp
  0x2318	cmp    	dword ptr [esp + 0x20], esi
  0x231c	je     	0x2329
  === BLOCK LINK ===
    0x231e
=== CODE BLOCK END ===

=== CODE BLOCK ADDRESS 0x231e ===
  0x231e	jmp    	0x2070
  === BLOCK LINK ===
    0x2323
=== CODE BLOCK END ===

=== CODE BLOCK ADDRESS 0x2323 ===
  0x2323	inc    	ecx
  0x2324	mov    	ebx, eax
  0x2326	inc    	ecx
  0x2327	mov    	eax, eax
  0x2329	test   	eax, eax
  === BLOCK LINK ===
    0x232b
=== CODE BLOCK END ===

=== CODE BLOCK ADDRESS 0x232b ===
  0x232b	je     	0x257d
  === BLOCK LINK ===
    0x2331
=== CODE BLOCK END ===

=== CODE BLOCK ADDRESS 0x2331 ===
  0x2331	dec    	eax
  0x2332	lea    	ecx, [esp + 0x30]
  0x2336	dec    	eax
  0x2337	call   	dword ptr [0x1e5b]
  === BLOCK LINK ===
    0x233d
=== CODE BLOCK END ===

=== CODE BLOCK ADDRESS 0x233d ===
  0x233d	nop    	dword ptr [eax + eax]
  0x2342	test   	eax, eax
  0x2344	jne    	0x218e
  === BLOCK LINK ===
    0x234a
=== CODE BLOCK END ===

=== CODE BLOCK ADDRESS 0x234a ===
  0x234a	dec    	eax
  0x234b	call   	dword ptr [0x1dff]
  === BLOCK LINK ===
    0x2351
=== CODE BLOCK END ===

=== CODE BLOCK ADDRESS 0x2351 ===
  0x2351	nop    	dword ptr [eax + eax]
  0x2356	cmp    	eax, 0x57
  0x2359	jne    	0x205d
  === BLOCK LINK ===
    0x235f
=== CODE BLOCK END ===

=== CODE BLOCK ADDRESS 0x235f ===
  0x235f	lea    	ecx, [edi - 1]
  0x2362	dec    	eax
  0x2363	add    	ecx, ecx
  0x2365	dec    	eax
  0x2366	cmp    	ecx, 0x208
  === BLOCK LINK ===
    0x236c
=== CODE BLOCK END ===

=== CODE BLOCK ADDRESS 0x236c ===
  0x236c	jae    	0x2584
  === BLOCK LINK ===
    0x2372
=== CODE BLOCK END ===

=== CODE BLOCK ADDRESS 0x2372 ===
  0x2372	inc    	sp
  0x2374	mov    	dword ptr [esp + ecx + 0x30], esi
  0x2378	dec    	eax
  0x2379	lea    	edx, [esp + 0x30]
  0x237d	lea    	ecx, [eax - 0x55]
  === BLOCK LINK ===
    0x2380
=== CODE BLOCK END ===

=== CODE BLOCK ADDRESS 0x2380 ===
  0x2380	inc    	ebp
  0x2381	xor    	eax, eax
  0x2383	dec    	eax
  0x2384	call   	dword ptr [0x1e06]
  === BLOCK LINK ===
    0x238a
=== CODE BLOCK END ===

=== CODE BLOCK ADDRESS 0x238a ===
  0x238a	nop    	dword ptr [eax + eax]
  0x238f	jmp    	0x257b
  === BLOCK LINK ===
    0x2394
=== CODE BLOCK END ===

=== CODE BLOCK ADDRESS 0x2394 ===
  0x2394	inc    	ebp
  0x2395	test   	ebx, ebx
  0x2397	je     	0x23d7
  === BLOCK LINK ===
    0x2399
=== CODE BLOCK END ===

=== CODE BLOCK ADDRESS 0x2399 ===
  0x2399	inc    	ecx
  0x239a	mov    	eax, 0x104
  0x239f	dec    	eax
  0x23a0	lea    	edx, [ebp + 0x140]
  0x23a6	dec    	eax
  === BLOCK LINK ===
    0x23a7
=== CODE BLOCK END ===

=== CODE BLOCK ADDRESS 0x23a7 ===
  0x23a7	lea    	ecx, [esp + 0x30]
  0x23ab	dec    	eax
  0x23ac	call   	dword ptr [0x1e16]
  === BLOCK LINK ===
    0x23b2
=== CODE BLOCK END ===

=== CODE BLOCK ADDRESS 0x23b2 ===
  0x23b2	nop    	dword ptr [eax + eax]
  0x23b7	mov    	ebx, eax
  0x23b9	test   	eax, eax
  0x23bb	je     	0x205d
  === BLOCK LINK ===
    0x23c1
=== CODE BLOCK END ===

=== CODE BLOCK ADDRESS 0x23c1 ===
  0x23c1	dec    	eax
  0x23c2	lea    	edx, [ebp + 0x140]
  0x23c8	mov    	ecx, 7
  0x23cd	call   	0x1238
  === BLOCK LINK ===
    0x23d2
=== CODE BLOCK END ===

=== CODE BLOCK ADDRESS 0x23d2 ===
  0x23d2	jmp    	0x257d
  === BLOCK LINK ===
    0x23d7
=== CODE BLOCK END ===

=== CODE BLOCK ADDRESS 0x23d7 ===
  0x23d7	test   	esi, esi
  0x23d9	je     	0x24e9
  === BLOCK LINK ===
    0x23df
=== CODE BLOCK END ===

=== CODE BLOCK ADDRESS 0x23df ===
  0x23df	call   	0x1348
  === BLOCK LINK ===
    0x23e4
=== CODE BLOCK END ===

=== CODE BLOCK ADDRESS 0x23e4 ===
  0x23e4	test   	eax, eax
  0x23e6	je     	0x24df
  === BLOCK LINK ===
    0x23ec
=== CODE BLOCK END ===

=== CODE BLOCK ADDRESS 0x23ec ===
  0x23ec	dec    	eax
  0x23ed	lea    	ecx, [esp + 0x30]
  0x23f1	dec    	eax
  0x23f2	mov    	eax, ebx
  0x23f4	dec    	eax
  === BLOCK LINK ===
    0x23f5
=== CODE BLOCK END ===

=== CODE BLOCK ADDRESS 0x23f5 ===
  0x23f5	inc    	eax
  0x23f7	inc    	sp
  0x23f9	cmp    	dword ptr [ecx + eax*2], esi
  0x23fc	jne    	0x23f4
  === BLOCK LINK ===
    0x23fe
=== CODE BLOCK END ===

=== CODE BLOCK ADDRESS 0x23fe ===
  0x23fe	dec    	eax
  0x23ff	cmp    	eax, 3
  0x2402	jne    	0x24df
  === BLOCK LINK ===
    0x2408
=== CODE BLOCK END ===

=== CODE BLOCK ADDRESS 0x2408 ===
  0x2408	mov    	eax, 0x3a
  0x240d	cmp    	ax, word ptr [esp + 0x32]
  0x2412	jne    	0x24df
  === BLOCK LINK ===
    0x2418
=== CODE BLOCK END ===

=== CODE BLOCK ADDRESS 0x2418 ===
  0x2418	lea    	edi, [eax + 0x22]
  0x241b	cmp    	di, word ptr [esp + 0x34]
  0x2420	jne    	0x24df
  === BLOCK LINK ===
    0x2426
=== CODE BLOCK END ===

=== CODE BLOCK ADDRESS 0x2426 ===
  0x2426	movzx  	ecx, word ptr [esp + 0x30]
  0x242b	lea    	eax, [ecx - 0x61]
  0x242e	cmp    	ax, 0x19
  0x2432	jbe    	0x2442
  === BLOCK LINK ===
    0x2434
=== CODE BLOCK END ===

=== CODE BLOCK ADDRESS 0x2434 ===
  0x2434	sub    	cx, 0x41
  0x2438	cmp    	cx, 0x19
  0x243c	ja     	0x24df
  === BLOCK LINK ===
    0x2442
=== CODE BLOCK END ===

=== CODE BLOCK ADDRESS 0x2442 ===
  0x2442	inc    	ecx
  0x2443	mov    	eax, 0x104
  0x2448	inc    	sp
  0x244a	mov    	dword ptr [esp + 0x34], esi
  0x244e	dec    	eax
  === BLOCK LINK ===
    0x244f
=== CODE BLOCK END ===

=== CODE BLOCK ADDRESS 0x244f ===
  0x244f	lea    	edx, [ebp + 0x560]
  0x2455	dec    	eax
  0x2456	lea    	ecx, [esp + 0x30]
  0x245a	dec    	eax
  0x245b	call   	dword ptr [0x1d27]
  === BLOCK LINK ===
    0x2461
=== CODE BLOCK END ===

=== CODE BLOCK ADDRESS 0x2461 ===
  0x2461	nop    	dword ptr [eax + eax]
  0x2466	mov    	dword ptr [esp + 0x20], eax
  0x246a	test   	eax, eax
  0x246c	jne    	0x254f
  === BLOCK LINK ===
    0x2472
=== CODE BLOCK END ===

=== CODE BLOCK ADDRESS 0x2472 ===
  0x2472	dec    	eax
  0x2473	lea    	ecx, [esp + 0x20]
  0x2477	mov    	word ptr [esp + 0x34], di
  0x247c	call   	0x1660
  === BLOCK LINK ===
    0x2481
=== CODE BLOCK END ===

=== CODE BLOCK ADDRESS 0x2481 ===
  0x2481	inc    	esp
  0x2482	cmp    	dword ptr [esp + 0x20], esi
  0x2486	jne    	0x24df
  === BLOCK LINK ===
    0x2488
=== CODE BLOCK END ===

=== CODE BLOCK ADDRESS 0x2488 ===
  0x2488	dec    	eax
  0x2489	lea    	ecx, [ebp + 0x350]
  0x248f	call   	0x1494
  === BLOCK LINK ===
    0x2494
=== CODE BLOCK END ===

=== CODE BLOCK ADDRESS 0x2494 ===
  0x2494	test   	eax, eax
  0x2496	jne    	0x24a0
  === BLOCK LINK ===
    0x2498
=== CODE BLOCK END ===

=== CODE BLOCK ADDRESS 0x2498 ===
  0x2498	inc    	ecx
  0x2499	mov    	ebx, esi
  0x249b	jmp    	0x257d
  === BLOCK LINK ===
    0x24a0
=== CODE BLOCK END ===

=== CODE BLOCK ADDRESS 0x24a0 ===
  0x24a0	dec    	eax
  0x24a1	lea    	eax, [esp + 0x30]
  0x24a5	dec    	eax
  0x24a6	inc    	ebx
  0x24a8	inc    	sp
  === BLOCK LINK ===
    0x24aa
=== CODE BLOCK END ===

=== CODE BLOCK ADDRESS 0x24aa ===
  0x24aa	cmp    	dword ptr [eax + ebx*2], esi
  0x24ad	jne    	0x24a5
  === BLOCK LINK ===
    0x24af
=== CODE BLOCK END ===

=== CODE BLOCK ADDRESS 0x24af ===
  0x24af	dec    	esp
  0x24b0	lea    	eax, [ebp + 0x350]
  0x24b6	inc    	sp
  0x24b8	mov    	dword ptr [esp + ebx*2 + 0x2e], esi
  0x24bc	dec    	eax
  === BLOCK LINK ===
    0x24bd
=== CODE BLOCK END ===

=== CODE BLOCK ADDRESS 0x24bd ===
  0x24bd	lea    	edx, [esp + 0x30]
  0x24c1	mov    	ecx, 1
  0x24c6	dec    	eax
  0x24c7	call   	dword ptr [0x1cc3]
  === BLOCK LINK ===
    0x24cd
=== CODE BLOCK END ===

=== CODE BLOCK ADDRESS 0x24cd ===
  0x24cd	nop    	dword ptr [eax + eax]
  0x24d2	test   	eax, eax
  0x24d4	inc    	ecx
  0x24d5	mov    	ebx, esi
  0x24d7	setne  	bl
  === BLOCK LINK ===
    0x24da
=== CODE BLOCK END ===

=== CODE BLOCK ADDRESS 0x24da ===
  0x24da	jmp    	0x257d
  === BLOCK LINK ===
    0x24df
=== CODE BLOCK END ===

=== CODE BLOCK ADDRESS 0x24df ===
  0x24df	mov    	ecx, 0x57
  0x24e4	jmp    	0x206b
  === BLOCK LINK ===
    0x24e9
=== CODE BLOCK END ===

=== CODE BLOCK ADDRESS 0x24e9 ===
  0x24e9	dec    	eax
  0x24ea	lea    	eax, [esp + 0x30]
  0x24ee	dec    	eax
  0x24ef	inc    	ebx
  0x24f1	inc    	sp
  === BLOCK LINK ===
    0x24f3
=== CODE BLOCK END ===

=== CODE BLOCK ADDRESS 0x24f3 ===
  0x24f3	cmp    	dword ptr [eax + ebx*2], esi
  0x24f6	jne    	0x24ee
  === BLOCK LINK ===
    0x24f8
=== CODE BLOCK END ===

=== CODE BLOCK ADDRESS 0x24f8 ===
  0x24f8	dec    	eax
  0x24f9	cmp    	ebx, 3
  0x24fc	jne    	0x2563
  === BLOCK LINK ===
    0x24fe
=== CODE BLOCK END ===

=== CODE BLOCK ADDRESS 0x24fe ===
  0x24fe	lea    	eax, [ebx + 0x37]
  0x2501	cmp    	ax, word ptr [esp + 0x32]
  0x2506	jne    	0x2563
  === BLOCK LINK ===
    0x2508
=== CODE BLOCK END ===

=== CODE BLOCK ADDRESS 0x2508 ===
  0x2508	cmp    	dx, word ptr [esp + 0x34]
  0x250d	jne    	0x2563
  === BLOCK LINK ===
    0x250f
=== CODE BLOCK END ===

=== CODE BLOCK ADDRESS 0x250f ===
  0x250f	movzx  	ecx, word ptr [esp + 0x30]
  0x2514	lea    	eax, [ecx - 0x61]
  0x2517	cmp    	ax, 0x19
  0x251b	jbe    	0x2527
  === BLOCK LINK ===
    0x251d
=== CODE BLOCK END ===

=== CODE BLOCK ADDRESS 0x251d ===
  0x251d	sub    	cx, 0x41
  0x2521	cmp    	cx, 0x19
  0x2525	ja     	0x2563
  === BLOCK LINK ===
    0x2527
=== CODE BLOCK END ===

=== CODE BLOCK ADDRESS 0x2527 ===
  0x2527	inc    	ecx
  0x2528	mov    	eax, 0x104
  0x252d	inc    	sp
  0x252f	mov    	dword ptr [esp + 0x34], esi
  0x2533	dec    	eax
  === BLOCK LINK ===
    0x2534
=== CODE BLOCK END ===

=== CODE BLOCK ADDRESS 0x2534 ===
  0x2534	lea    	edx, [ebp + 0x560]
  0x253a	dec    	eax
  0x253b	lea    	ecx, [esp + 0x30]
  0x253f	dec    	eax
  0x2540	call   	dword ptr [0x1c42]
  === BLOCK LINK ===
    0x2546
=== CODE BLOCK END ===

=== CODE BLOCK ADDRESS 0x2546 ===
  0x2546	nop    	dword ptr [eax + eax]
  0x254b	test   	eax, eax
  0x254d	je     	0x2559
  === BLOCK LINK ===
    0x254f
=== CODE BLOCK END ===

=== CODE BLOCK ADDRESS 0x254f ===
  0x254f	mov    	ecx, 0x91
  0x2554	jmp    	0x206b
  === BLOCK LINK ===
    0x2559
=== CODE BLOCK END ===

=== CODE BLOCK ADDRESS 0x2559 ===
  0x2559	mov    	edi, 0x5c
  0x255e	mov    	word ptr [esp + 0x34], di
  0x2563	dec    	eax
  0x2564	lea    	edx, [ebp + 0x140]
  0x256a	dec    	eax
  === BLOCK LINK ===
    0x256b
=== CODE BLOCK END ===

=== CODE BLOCK ADDRESS 0x256b ===
  0x256b	lea    	ecx, [esp + 0x30]
  0x256f	dec    	eax
  0x2570	call   	dword ptr [0x1caa]
  === BLOCK LINK ===
    0x2576
=== CODE BLOCK END ===

=== CODE BLOCK ADDRESS 0x2576 ===
  0x2576	nop    	dword ptr [eax + eax]
  0x257b	mov    	ebx, eax
  0x257d	test   	ebx, ebx
  0x257f	jmp    	0x2188
  === BLOCK LINK ===
    0x2584
=== CODE BLOCK END ===

=== CODE BLOCK ADDRESS 0x2584 ===
  0x2584	call   	0x2a98
  === BLOCK LINK ===
    0x2589
=== CODE BLOCK END ===

=== CODE BLOCK ADDRESS 0x2589 ===
  0x2589	int3   	
  0x258a	int3   	
  0x258b	int3   	
  0x258c	int3   	
  0x258d	int3   	
  === BLOCK LINK ===
    0x258e
=== CODE BLOCK END ===

=== CODE BLOCK ADDRESS 0x258e ===
  0x258e	int3   	
  0x258f	int3   	
  0x2590	dec    	eax
  0x2591	sub    	esp, 0x28
  0x2594	mov    	eax, 0x5a4d
  === BLOCK LINK ===
    0x2599
=== CODE BLOCK END ===

=== CODE BLOCK ADDRESS 0x2599 ===
  0x2599	cmp    	word ptr [0xffffda60], ax
  0x25a0	je     	0x25a6
  === BLOCK LINK ===
    0x25a2
=== CODE BLOCK END ===

=== CODE BLOCK ADDRESS 0x25a2 ===
  0x25a2	xor    	eax, eax
  0x25a4	jmp    	0x25f9
  === BLOCK LINK ===
    0x25a6
=== CODE BLOCK END ===

=== CODE BLOCK ADDRESS 0x25a6 ===
  0x25a6	dec    	eax
  0x25a7	arpl   	word ptr [0xffffda8f], cx
  0x25ad	dec    	eax
  0x25ae	lea    	eax, [0xffffda4c]
  0x25b4	dec    	eax
  === BLOCK LINK ===
    0x25b5
=== CODE BLOCK END ===

=== CODE BLOCK ADDRESS 0x25b5 ===
  0x25b5	add    	ecx, eax
  0x25b7	cmp    	dword ptr [ecx], 0x4550
  0x25bd	jne    	0x25a2
  === BLOCK LINK ===
    0x25bf
=== CODE BLOCK END ===

=== CODE BLOCK ADDRESS 0x25bf ===
  0x25bf	mov    	eax, 0x10b
  0x25c4	cmp    	word ptr [ecx + 0x18], ax
  0x25c8	je     	0x25e8
  === BLOCK LINK ===
    0x25ca
=== CODE BLOCK END ===

=== CODE BLOCK ADDRESS 0x25ca ===
  0x25ca	mov    	eax, 0x20b
  0x25cf	cmp    	word ptr [ecx + 0x18], ax
  0x25d3	jne    	0x25a2
  === BLOCK LINK ===
    0x25d5
=== CODE BLOCK END ===

=== CODE BLOCK ADDRESS 0x25d5 ===
  0x25d5	xor    	eax, eax
  0x25d7	cmp    	dword ptr [ecx + 0x84], 0xe
  0x25de	jbe    	0x25f9
  === BLOCK LINK ===
    0x25e0
=== CODE BLOCK END ===

=== CODE BLOCK ADDRESS 0x25e0 ===
  0x25e0	cmp    	dword ptr [ecx + 0xf8], eax
  0x25e6	jmp    	0x25f6
  === BLOCK LINK ===
    0x25e8
=== CODE BLOCK END ===

=== CODE BLOCK ADDRESS 0x25e8 ===
  0x25e8	xor    	eax, eax
  0x25ea	cmp    	dword ptr [ecx + 0x74], 0xe
  0x25ee	jbe    	0x25f9
  === BLOCK LINK ===
    0x25f0
=== CODE BLOCK END ===

=== CODE BLOCK ADDRESS 0x25f0 ===
  0x25f0	cmp    	dword ptr [ecx + 0xe8], eax
  0x25f6	setne  	al
  0x25f9	mov    	ecx, 1
  0x25fe	mov    	dword ptr [0x3a3c], eax
  0x2604	call   	0x2c68
  === BLOCK LINK ===
    0x2609
=== CODE BLOCK END ===

=== CODE BLOCK ADDRESS 0x2609 ===
  0x2609	mov    	ecx, eax
  0x260b	call   	dword ptr [0x1d5f]
  === BLOCK LINK ===
    0x2611
=== CODE BLOCK END ===

=== CODE BLOCK ADDRESS 0x2611 ===
  0x2611	dec    	eax
  0x2612	mov    	ecx, dword ptr [0x1d20]
  0x2618	dec    	eax
  0x2619	or     	eax, 0xffffffff
  0x261c	dec    	eax
  === BLOCK LINK ===
    0x261d
=== CODE BLOCK END ===

=== CODE BLOCK ADDRESS 0x261d ===
  0x261d	mov    	dword ptr [0x3fad], eax
  0x2623	dec    	eax
  0x2624	mov    	dword ptr [0x3fae], eax
  0x262a	mov    	eax, dword ptr [0x3f9c]
  0x2630	mov    	dword ptr [ecx], eax
  === BLOCK LINK ===
    0x2632
=== CODE BLOCK END ===

=== CODE BLOCK ADDRESS 0x2632 ===
  0x2632	dec    	eax
  0x2633	mov    	ecx, dword ptr [0x1ce7]
  0x2639	mov    	eax, dword ptr [0x3f81]
  0x263f	mov    	dword ptr [ecx], eax
  0x2641	call   	0x2cc0
  === BLOCK LINK ===
    0x2646
=== CODE BLOCK END ===

=== CODE BLOCK ADDRESS 0x2646 ===
  0x2646	cmp    	dword ptr [0x39b3], 0
  0x264d	jne    	0x265c
  === BLOCK LINK ===
    0x264f
=== CODE BLOCK END ===

=== CODE BLOCK ADDRESS 0x264f ===
  0x264f	dec    	eax
  0x2650	lea    	ecx, [0x66a]
  0x2656	call   	dword ptr [0x1d2c]
  === BLOCK LINK ===
    0x265c
=== CODE BLOCK END ===

=== CODE BLOCK ADDRESS 0x265c ===
  0x265c	xor    	eax, eax
  0x265e	dec    	eax
  0x265f	add    	esp, 0x28
  0x2662	ret    	
  0x2663	int3   	
  === BLOCK LINK ===
    0x2664
=== CODE BLOCK END ===

=== CODE BLOCK ADDRESS 0x2664 ===
  0x2664	int3   	
  0x2665	int3   	
  0x2666	int3   	
  0x2667	int3   	
  0x2668	int3   	
  === BLOCK LINK ===
    0x2669
=== CODE BLOCK END ===

=== CODE BLOCK ADDRESS 0x2669 ===
  0x2669	int3   	
  0x266a	int3   	
  0x266b	int3   	
  0x266c	int3   	
  0x266d	int3   	
  === BLOCK LINK ===
    0x266e
=== CODE BLOCK END ===

=== CODE BLOCK ADDRESS 0x266e ===
  0x266e	int3   	
  0x266f	int3   	
  0x2670	dec    	eax
  0x2671	sub    	esp, 0x38
  0x2674	mov    	eax, dword ptr [0x3f4e]
  === BLOCK LINK ===
    0x267a
=== CODE BLOCK END ===

=== CODE BLOCK ADDRESS 0x267a ===
  0x267a	dec    	esp
  0x267b	lea    	eax, [0x39b7]
  0x2681	inc    	esp
  0x2682	mov    	ecx, dword ptr [0x3f3c]
  0x2688	dec    	eax
  === BLOCK LINK ===
    0x2689
=== CODE BLOCK END ===

=== CODE BLOCK ADDRESS 0x2689 ===
  0x2689	lea    	edx, [0x39a1]
  0x268f	mov    	dword ptr [0x39af], eax
  0x2695	dec    	eax
  0x2696	lea    	ecx, [0x398c]
  0x269c	dec    	eax
  === BLOCK LINK ===
    0x269d
=== CODE BLOCK END ===

=== CODE BLOCK ADDRESS 0x269d ===
  0x269d	lea    	eax, [0x39a1]
  0x26a3	dec    	eax
  0x26a4	mov    	dword ptr [esp + 0x20], eax
  0x26a8	call   	dword ptr [0x1c9a]
  === BLOCK LINK ===
    0x26ae
=== CODE BLOCK END ===

=== CODE BLOCK ADDRESS 0x26ae ===
  0x26ae	mov    	dword ptr [0x3978], eax
  0x26b4	dec    	eax
  0x26b5	add    	esp, 0x38
  0x26b8	ret    	
  0x26b9	int3   	
  === BLOCK LINK ===
    0x26ba
=== CODE BLOCK END ===

=== CODE BLOCK ADDRESS 0x26ba ===
  0x26ba	int3   	
  0x26bb	int3   	
  0x26bc	int3   	
  0x26bd	int3   	
  0x26be	int3   	
  === BLOCK LINK ===
    0x26bf
=== CODE BLOCK END ===

=== CODE BLOCK ADDRESS 0x26bf ===
  0x26bf	int3   	
  0x26c0	dec    	eax
  0x26c1	mov    	dword ptr [esp + 8], ebx
  0x26c5	dec    	eax
  0x26c6	mov    	dword ptr [esp + 0x10], esi
  === BLOCK LINK ===
    0x26ca
=== CODE BLOCK END ===

=== CODE BLOCK ADDRESS 0x26ca ===
  0x26ca	dec    	eax
  0x26cb	mov    	dword ptr [esp + 0x18], edi
  0x26cf	inc    	ecx
  0x26d0	push   	edi
  0x26d1	dec    	eax
  === BLOCK LINK ===
    0x26d2
=== CODE BLOCK END ===

=== CODE BLOCK ADDRESS 0x26d2 ===
  0x26d2	sub    	esp, 0x30
  0x26d5	dec    	eax
  0x26d7	mov    	eax, dword ptr [0x30]
  0x26de	dec    	eax
  0x26df	mov    	ebx, dword ptr [eax + 8]
  === BLOCK LINK ===
    0x26e2
=== CODE BLOCK END ===

=== CODE BLOCK ADDRESS 0x26e2 ===
  0x26e2	xor    	esi, esi
  0x26e4	xor    	eax, eax
  0x26e6	.byte  	0xf0
  0x26e7	dec    	eax
  0x26e8	cmpxchg  	dword ptr [0x3ef1], ebx
  === BLOCK LINK ===
    0x26ef
=== CODE BLOCK END ===

=== CODE BLOCK ADDRESS 0x26ef ===
  0x26ef	je     	0x270c
  === BLOCK LINK ===
    0x26f1
=== CODE BLOCK END ===

=== CODE BLOCK ADDRESS 0x26f1 ===
  0x26f1	dec    	eax
  0x26f2	cmp    	eax, ebx
  0x26f4	jne    	0x26ff
  === BLOCK LINK ===
    0x26f6
=== CODE BLOCK END ===

=== CODE BLOCK ADDRESS 0x26f6 ===
  0x26f6	mov    	ebx, 1
  0x26fb	mov    	esi, ebx
  0x26fd	jmp    	0x2711
  === BLOCK LINK ===
    0x26ff
=== CODE BLOCK END ===

=== CODE BLOCK ADDRESS 0x26ff ===
  0x26ff	mov    	ecx, 0x3e8
  0x2704	call   	dword ptr [0x1bee]
  === BLOCK LINK ===
    0x270a
=== CODE BLOCK END ===

=== CODE BLOCK ADDRESS 0x270a ===
  0x270a	jmp    	0x26e4
  === BLOCK LINK ===
    0x270c
=== CODE BLOCK END ===

=== CODE BLOCK ADDRESS 0x270c ===
  0x270c	mov    	ebx, 1
  0x2711	mov    	eax, dword ptr [0x3ed1]
  0x2717	cmp    	eax, ebx
  0x2719	jne    	0x2727
  === BLOCK LINK ===
    0x271b
=== CODE BLOCK END ===

=== CODE BLOCK ADDRESS 0x271b ===
  0x271b	mov    	ecx, 0x1f
  0x2720	call   	0x2cb3
  === BLOCK LINK ===
    0x2725
=== CODE BLOCK END ===

=== CODE BLOCK ADDRESS 0x2725 ===
  0x2725	jmp    	0x278c
  === BLOCK LINK ===
    0x2727
=== CODE BLOCK END ===

=== CODE BLOCK ADDRESS 0x2727 ===
  0x2727	mov    	eax, dword ptr [0x3ebb]
  0x272d	test   	eax, eax
  0x272f	jne    	0x2786
  === BLOCK LINK ===
    0x2731
=== CODE BLOCK END ===

=== CODE BLOCK ADDRESS 0x2731 ===
  0x2731	mov    	dword ptr [0x3eb1], ebx
  0x2737	dec    	esp
  0x2738	lea    	edi, [0x1cb2]
  0x273e	dec    	eax
  0x273f	lea    	edi, [0x1c93]
  === BLOCK LINK ===
    0x2745
=== CODE BLOCK END ===

=== CODE BLOCK ADDRESS 0x2745 ===
  0x2745	dec    	eax
  0x2746	mov    	dword ptr [esp + 0x28], edi
  0x274a	mov    	dword ptr [esp + 0x20], eax
  0x274e	dec    	ecx
  0x274f	cmp    	edi, edi
  === BLOCK LINK ===
    0x2751
=== CODE BLOCK END ===

=== CODE BLOCK ADDRESS 0x2751 ===
  0x2751	jae    	0x2778
  === BLOCK LINK ===
    0x2753
=== CODE BLOCK END ===

=== CODE BLOCK ADDRESS 0x2753 ===
  0x2753	test   	eax, eax
  0x2755	jne    	0x277c
  === BLOCK LINK ===
    0x2757
=== CODE BLOCK END ===

=== CODE BLOCK ADDRESS 0x2757 ===
  0x2757	dec    	eax
  0x2758	cmp    	dword ptr [edi], 0
  0x275b	je     	0x276d
  === BLOCK LINK ===
    0x275d
=== CODE BLOCK END ===

=== CODE BLOCK ADDRESS 0x275d ===
  0x275d	dec    	eax
  0x275e	mov    	eax, dword ptr [edi]
  0x2760	dec    	eax
  0x2761	mov    	ecx, dword ptr [0x1c51]
  0x2767	call   	ecx
  === BLOCK LINK ===
    0x2769
=== CODE BLOCK END ===

=== CODE BLOCK ADDRESS 0x2769 ===
  0x2769	mov    	dword ptr [esp + 0x20], eax
  0x276d	dec    	eax
  0x276e	add    	edi, 8
  0x2771	dec    	eax
  0x2772	mov    	dword ptr [esp + 0x28], edi
  === BLOCK LINK ===
    0x2776
=== CODE BLOCK END ===

=== CODE BLOCK ADDRESS 0x2776 ===
  0x2776	jmp    	0x274e
  === BLOCK LINK ===
    0x2778
=== CODE BLOCK END ===

=== CODE BLOCK ADDRESS 0x2778 ===
  0x2778	test   	eax, eax
  0x277a	je     	0x278c
  === BLOCK LINK ===
    0x277c
=== CODE BLOCK END ===

=== CODE BLOCK ADDRESS 0x277c ===
  0x277c	mov    	eax, 0xff
  0x2781	jmp    	0x2868
  === BLOCK LINK ===
    0x2786
=== CODE BLOCK END ===

=== CODE BLOCK ADDRESS 0x2786 ===
  0x2786	mov    	dword ptr [0x3898], ebx
  0x278c	mov    	eax, dword ptr [0x3e56]
  0x2792	cmp    	eax, ebx
  0x2794	jne    	0x27b3
  === BLOCK LINK ===
    0x2796
=== CODE BLOCK END ===

=== CODE BLOCK ADDRESS 0x2796 ===
  0x2796	dec    	eax
  0x2797	lea    	edx, [0x1c33]
  0x279d	dec    	eax
  0x279e	lea    	ecx, [0x1c1c]
  0x27a4	call   	0x2e8e
  === BLOCK LINK ===
    0x27a9
=== CODE BLOCK END ===

=== CODE BLOCK ADDRESS 0x27a9 ===
  0x27a9	mov    	dword ptr [0x3e35], 2
  0x27b3	test   	esi, esi
  0x27b5	jne    	0x27c0
  === BLOCK LINK ===
    0x27b7
=== CODE BLOCK END ===

=== CODE BLOCK ADDRESS 0x27b7 ===
  0x27b7	xor    	eax, eax
  0x27b9	dec    	eax
  0x27ba	xchg   	dword ptr [0x3e20], eax
  0x27c0	dec    	eax
  0x27c1	cmp    	dword ptr [0x3e28], 0
  === BLOCK LINK ===
    0x27c8
=== CODE BLOCK END ===

=== CODE BLOCK ADDRESS 0x27c8 ===
  0x27c8	je     	0x27f4
  === BLOCK LINK ===
    0x27ca
=== CODE BLOCK END ===

=== CODE BLOCK ADDRESS 0x27ca ===
  0x27ca	dec    	eax
  0x27cb	lea    	ecx, [0x3e1f]
  0x27d1	call   	0x2d20
  === BLOCK LINK ===
    0x27d6
=== CODE BLOCK END ===

=== CODE BLOCK ADDRESS 0x27d6 ===
  0x27d6	test   	eax, eax
  0x27d8	je     	0x27f4
  === BLOCK LINK ===
    0x27da
=== CODE BLOCK END ===

=== CODE BLOCK ADDRESS 0x27da ===
  0x27da	inc    	ebp
  0x27db	xor    	eax, eax
  0x27dd	inc    	ecx
  0x27de	lea    	edx, [eax + 2]
  0x27e1	xor    	ecx, ecx
  === BLOCK LINK ===
    0x27e3
=== CODE BLOCK END ===

=== CODE BLOCK ADDRESS 0x27e3 ===
  0x27e3	dec    	eax
  0x27e4	mov    	eax, dword ptr [0x3e06]
  0x27ea	dec    	esp
  0x27eb	mov    	ecx, dword ptr [0x1bc7]
  0x27f1	inc    	ecx
  === BLOCK LINK ===
    0x27f2
=== CODE BLOCK END ===

=== CODE BLOCK ADDRESS 0x27f2 ===
  0x27f2	call   	ecx
  === BLOCK LINK ===
    0x27f4
=== CODE BLOCK END ===

=== CODE BLOCK ADDRESS 0x27f4 ===
  0x27f4	dec    	esp
  0x27f5	mov    	eax, dword ptr [0x383d]
  0x27fb	dec    	eax
  0x27fc	mov    	edx, dword ptr [0x382e]
  0x2802	mov    	ecx, dword ptr [0x3820]
  === BLOCK LINK ===
    0x2808
=== CODE BLOCK END ===

=== CODE BLOCK ADDRESS 0x2808 ===
  0x2808	call   	0x1fdc
  === BLOCK LINK ===
    0x280d
=== CODE BLOCK END ===

=== CODE BLOCK ADDRESS 0x280d ===
  0x280d	mov    	dword ptr [0x380d], eax
  0x2813	cmp    	dword ptr [0x3826], 0
  0x281a	jne    	0x2824
  === BLOCK LINK ===
    0x281c
=== CODE BLOCK END ===

=== CODE BLOCK ADDRESS 0x281c ===
  0x281c	mov    	ecx, eax
  0x281e	call   	dword ptr [0x1b5c]
  === BLOCK LINK ===
    0x2824
=== CODE BLOCK END ===

=== CODE BLOCK ADDRESS 0x2824 ===
  0x2824	cmp    	dword ptr [0x37f9], 0
  0x282b	jne    	0x2839
  === BLOCK LINK ===
    0x282d
=== CODE BLOCK END ===

=== CODE BLOCK ADDRESS 0x282d ===
  0x282d	call   	dword ptr [0x1b45]
  === BLOCK LINK ===
    0x2833
=== CODE BLOCK END ===

=== CODE BLOCK ADDRESS 0x2833 ===
  0x2833	mov    	eax, dword ptr [0x37e7]
  0x2839	jmp    	0x2868
  === BLOCK LINK ===
    0x283b
=== CODE BLOCK END ===

=== CODE BLOCK ADDRESS 0x283b ===
  0x283b	mov    	dword ptr [0x37df], eax
  0x2841	cmp    	dword ptr [0x37f8], 0
  0x2848	jne    	0x2853
  === BLOCK LINK ===
    0x284a
=== CODE BLOCK END ===

=== CODE BLOCK ADDRESS 0x284a ===
  0x284a	mov    	ecx, eax
  0x284c	call   	dword ptr [0x1b16]
  === BLOCK LINK ===
    0x2852
=== CODE BLOCK END ===

=== CODE BLOCK ADDRESS 0x2852 ===
  0x2852	int3   	
  0x2853	cmp    	dword ptr [0x37ca], 0
  0x285a	jne    	0x2868
  === BLOCK LINK ===
    0x285c
=== CODE BLOCK END ===

=== CODE BLOCK ADDRESS 0x285c ===
  0x285c	call   	dword ptr [0x1b16]
  === BLOCK LINK ===
    0x2862
=== CODE BLOCK END ===

=== CODE BLOCK ADDRESS 0x2862 ===
  0x2862	mov    	eax, dword ptr [0x37b8]
  0x2868	dec    	eax
  0x2869	mov    	ebx, dword ptr [esp + 0x40]
  0x286d	dec    	eax
  0x286e	mov    	esi, dword ptr [esp + 0x48]
  === BLOCK LINK ===
    0x2872
=== CODE BLOCK END ===

=== CODE BLOCK ADDRESS 0x2872 ===
  0x2872	dec    	eax
  0x2873	mov    	edi, dword ptr [esp + 0x50]
  0x2877	dec    	eax
  0x2878	add    	esp, 0x30
  0x287b	inc    	ecx
  === BLOCK LINK ===
    0x287c
=== CODE BLOCK END ===

=== CODE BLOCK ADDRESS 0x287c ===
  0x287c	pop    	edi
  0x287d	ret    	
  0x287e	int3   	
  0x287f	int3   	
  0x2880	int3   	
  === BLOCK LINK ===
    0x2881
=== CODE BLOCK END ===

=== CODE BLOCK ADDRESS 0x114f ===
=== CODE BLOCK END ===

=== CODE BLOCK ADDRESS 0x2881 ===
  0x2881	int3   	
  0x2882	int3   	
  0x2883	int3   	
  0x2884	int3   	
  0x2885	int3   	
  === BLOCK LINK ===
    0x2886
=== CODE BLOCK END ===

=== CODE BLOCK ADDRESS 0x2886 ===
  0x2886	int3   	
  0x2887	int3   	
  0x2888	int3   	
  0x2889	int3   	
  0x288a	int3   	
  === BLOCK LINK ===
    0x288b
=== CODE BLOCK END ===

=== CODE BLOCK ADDRESS 0x288b ===
  0x288b	int3   	
  0x288c	int3   	
  0x288d	int3   	
  0x288e	int3   	
  0x288f	int3   	
  === BLOCK LINK ===
    0x2890
=== CODE BLOCK END ===

=== CODE BLOCK ADDRESS 0x2890 ===
  0x2890	dec    	eax
  0x2891	sub    	esp, 0x28
  0x2894	call   	0x2db4
  === BLOCK LINK ===
    0x2899
=== CODE BLOCK END ===

=== CODE BLOCK ADDRESS 0x2899 ===
  0x2899	dec    	eax
  0x289a	add    	esp, 0x28
  0x289d	jmp    	0x26c0
  === BLOCK LINK ===
    0x28a2
=== CODE BLOCK END ===

=== CODE BLOCK ADDRESS 0x28a2 ===
  0x28a2	int3   	
  0x28a3	int3   	
  0x28a4	int3   	
  0x28a5	int3   	
  0x28a6	int3   	
  === BLOCK LINK ===
    0x28a7
=== CODE BLOCK END ===

=== CODE BLOCK ADDRESS 0x28a7 ===
  0x28a7	int3   	
  0x28a8	int3   	
  0x28a9	int3   	
  0x28aa	int3   	
  0x28ab	int3   	
  === BLOCK LINK ===
    0x28ac
=== CODE BLOCK END ===

=== CODE BLOCK ADDRESS 0x28ac ===
  0x28ac	int3   	
  0x28ad	int3   	
  0x28ae	int3   	
  0x28af	int3   	
  0x28b0	int3   	
  === BLOCK LINK ===
    0x28b1
=== CODE BLOCK END ===

=== CODE BLOCK ADDRESS 0x28b1 ===
  0x28b1	int3   	
  0x28b2	int3   	
  0x28b3	int3   	
  0x28b4	int3   	
  0x28b5	int3   	
  === BLOCK LINK ===
    0x28b6
=== CODE BLOCK END ===

=== CODE BLOCK ADDRESS 0x28b6 ===
  0x28b6	nop    	word ptr [eax + eax]
  === BLOCK LINK ===
    0x28c0
=== CODE BLOCK END ===

=== CODE BLOCK ADDRESS 0x28c9 ===
  0x28c9	dec    	eax
  0x28ca	rol    	ecx, 0x10
  0x28cd	test   	cx, 0xffff
  0x28d2	jne    	0x28d5
  === BLOCK LINK ===
    0x28d4
=== CODE BLOCK END ===

=== CODE BLOCK ADDRESS 0x28d4 ===
  0x28d4	ret    	
  0x28d5	dec    	eax
  0x28d6	ror    	ecx, 0x10
  0x28d9	jmp    	0x2920
  === BLOCK LINK ===
    0x28de
=== CODE BLOCK END ===

=== CODE BLOCK ADDRESS 0x28de ===
  0x28de	int3   	
  0x28df	int3   	
  0x28e0	int3   	
  0x28e1	int3   	
  0x28e2	int3   	
  === BLOCK LINK ===
    0x28e3
=== CODE BLOCK END ===

=== CODE BLOCK ADDRESS 0x28e3 ===
  0x28e3	int3   	
  0x28e4	inc    	eax
  0x28e5	push   	ebx
  0x28e6	dec    	eax
  0x28e7	sub    	esp, 0x20
  === BLOCK LINK ===
    0x28ea
=== CODE BLOCK END ===

=== CODE BLOCK ADDRESS 0x28ea ===
  0x28ea	dec    	eax
  0x28eb	mov    	ebx, ecx
  0x28ed	xor    	ecx, ecx
  0x28ef	call   	dword ptr [0x1863]
  === BLOCK LINK ===
    0x28f5
=== CODE BLOCK END ===

=== CODE BLOCK ADDRESS 0x28f5 ===
  0x28f5	dec    	eax
  0x28f6	mov    	ecx, ebx
  0x28f8	call   	dword ptr [0x1862]
  === BLOCK LINK ===
    0x28fe
=== CODE BLOCK END ===

=== CODE BLOCK ADDRESS 0x28fe ===
  0x28fe	call   	dword ptr [0x198c]
  === BLOCK LINK ===
    0x2904
=== CODE BLOCK END ===

=== CODE BLOCK ADDRESS 0x2904 ===
  0x2904	dec    	eax
  0x2905	mov    	ecx, eax
  0x2907	mov    	edx, 0xc0000409
  0x290c	dec    	eax
  0x290d	add    	esp, 0x20
  === BLOCK LINK ===
    0x2910
=== CODE BLOCK END ===

=== CODE BLOCK ADDRESS 0x2910 ===
  0x2910	pop    	ebx
  0x2911	dec    	eax
  0x2912	jmp    	dword ptr [0x1970]
  === BLOCK LINK ===
    0x2918
=== CODE BLOCK END ===

=== CODE BLOCK ADDRESS 0x2918 ===
  0x2918	int3   	
  0x2919	int3   	
  0x291a	int3   	
  0x291b	int3   	
  0x291c	int3   	
  === BLOCK LINK ===
    0x291d
=== CODE BLOCK END ===

=== CODE BLOCK ADDRESS 0x291d ===
  0x291d	int3   	
  0x291e	int3   	
  0x291f	int3   	
  0x2920	dec    	eax
  0x2921	mov    	dword ptr [esp + 8], ecx
  === BLOCK LINK ===
    0x2925
=== CODE BLOCK END ===

=== CODE BLOCK ADDRESS 0x2925 ===
  0x2925	dec    	eax
  0x2926	sub    	esp, 0x88
  0x292c	dec    	eax
  0x292d	lea    	ecx, [0x37bd]
  0x2933	call   	dword ptr [0x197f]
  === BLOCK LINK ===
    0x2939
=== CODE BLOCK END ===

=== CODE BLOCK ADDRESS 0x2939 ===
  0x2939	dec    	eax
  0x293a	mov    	eax, dword ptr [0x38a8]
  0x2940	dec    	eax
  0x2941	mov    	dword ptr [esp + 0x48], eax
  0x2945	inc    	ebp
  === BLOCK LINK ===
    0x2946
=== CODE BLOCK END ===

=== CODE BLOCK ADDRESS 0x2946 ===
  0x2946	xor    	eax, eax
  0x2948	dec    	eax
  0x2949	lea    	edx, [esp + 0x50]
  0x294d	dec    	eax
  0x294e	mov    	ecx, dword ptr [esp + 0x48]
  === BLOCK LINK ===
    0x2952
=== CODE BLOCK END ===

=== CODE BLOCK ADDRESS 0x2952 ===
  0x2952	call   	dword ptr [0x1968]
  === BLOCK LINK ===
    0x2958
=== CODE BLOCK END ===

=== CODE BLOCK ADDRESS 0x2958 ===
  0x2958	dec    	eax
  0x2959	mov    	dword ptr [esp + 0x40], eax
  0x295d	dec    	eax
  0x295e	cmp    	dword ptr [esp + 0x40], 0
  0x2963	je     	0x29a7
  === BLOCK LINK ===
    0x2965
=== CODE BLOCK END ===

=== CODE BLOCK ADDRESS 0x2965 ===
  0x2965	dec    	eax
  0x2966	mov    	dword ptr [esp + 0x38], 0
  0x296e	dec    	eax
  0x296f	lea    	eax, [esp + 0x58]
  0x2973	dec    	eax
  === BLOCK LINK ===
    0x2974
=== CODE BLOCK END ===

=== CODE BLOCK ADDRESS 0x2974 ===
  0x2974	mov    	dword ptr [esp + 0x30], eax
  0x2978	dec    	eax
  0x2979	lea    	eax, [esp + 0x60]
  0x297d	dec    	eax
  0x297e	mov    	dword ptr [esp + 0x28], eax
  === BLOCK LINK ===
    0x2982
=== CODE BLOCK END ===

=== CODE BLOCK ADDRESS 0x2982 ===
  0x2982	dec    	eax
  0x2983	lea    	eax, [0x3767]
  0x2989	dec    	eax
  0x298a	mov    	dword ptr [esp + 0x20], eax
  0x298e	dec    	esp
  === BLOCK LINK ===
    0x298f
=== CODE BLOCK END ===

=== CODE BLOCK ADDRESS 0x298f ===
  0x298f	mov    	ecx, dword ptr [esp + 0x40]
  0x2993	dec    	esp
  0x2994	mov    	eax, dword ptr [esp + 0x48]
  0x2998	dec    	eax
  0x2999	mov    	edx, dword ptr [esp + 0x50]
  === BLOCK LINK ===
    0x299d
=== CODE BLOCK END ===

=== CODE BLOCK ADDRESS 0x299d ===
  0x299d	xor    	ecx, ecx
  0x299f	call   	dword ptr [0x1923]
  === BLOCK LINK ===
    0x29a5
=== CODE BLOCK END ===

=== CODE BLOCK ADDRESS 0x29a5 ===
  0x29a5	jmp    	0x29ca
  === BLOCK LINK ===
    0x29a7
=== CODE BLOCK END ===

=== CODE BLOCK ADDRESS 0x29a7 ===
  0x29a7	dec    	eax
  0x29a8	mov    	eax, dword ptr [0x37da]
  0x29ae	dec    	eax
  0x29af	mov    	eax, dword ptr [eax]
  0x29b1	dec    	eax
  === BLOCK LINK ===
    0x29b2
=== CODE BLOCK END ===

=== CODE BLOCK ADDRESS 0x29b2 ===
  0x29b2	mov    	dword ptr [0x3830], eax
  0x29b8	dec    	eax
  0x29b9	mov    	eax, dword ptr [0x37c9]
  0x29bf	dec    	eax
  0x29c0	add    	eax, 8
  === BLOCK LINK ===
    0x29c3
=== CODE BLOCK END ===

=== CODE BLOCK ADDRESS 0x29c3 ===
  0x29c3	dec    	eax
  0x29c4	mov    	dword ptr [0x37be], eax
  0x29ca	dec    	eax
  0x29cb	mov    	eax, dword ptr [0x3817]
  0x29d1	dec    	eax
  === BLOCK LINK ===
    0x29d2
=== CODE BLOCK END ===

=== CODE BLOCK ADDRESS 0x29d2 ===
  0x29d2	mov    	dword ptr [0x3688], eax
  0x29d8	dec    	eax
  0x29d9	mov    	eax, dword ptr [esp + 0x90]
  0x29e0	dec    	eax
  0x29e1	mov    	dword ptr [0x3789], eax
  === BLOCK LINK ===
    0x29e7
=== CODE BLOCK END ===

=== CODE BLOCK ADDRESS 0x29e7 ===
  0x29e7	mov    	dword ptr [0x365f], 0xc0000409
  0x29f1	mov    	dword ptr [0x3659], 1
  0x29fb	mov    	dword ptr [0x3663], 3
  0x2a05	mov    	eax, 8
  0x2a0a	dec    	eax
  === BLOCK LINK ===
    0x2a0b
=== CODE BLOCK END ===

=== CODE BLOCK ADDRESS 0x2a0b ===
  0x2a0b	imul   	eax, eax, 0
  0x2a0e	dec    	eax
  0x2a0f	lea    	ecx, [0x365b]
  0x2a15	dec    	eax
  0x2a16	mov    	dword ptr [ecx + eax], 2
  === BLOCK LINK ===
    0x2a1d
=== CODE BLOCK END ===

=== CODE BLOCK ADDRESS 0x2a1d ===
  0x2a1d	mov    	eax, 8
  0x2a22	dec    	eax
  0x2a23	imul   	eax, eax, 1
  0x2a26	dec    	eax
  0x2a27	lea    	ecx, [0x3643]
  === BLOCK LINK ===
    0x2a2d
=== CODE BLOCK END ===

=== CODE BLOCK ADDRESS 0x2a2d ===
  0x2a2d	dec    	eax
  0x2a2e	mov    	edx, dword ptr [0x35d4]
  0x2a34	dec    	eax
  0x2a35	mov    	dword ptr [ecx + eax], edx
  0x2a38	mov    	eax, 8
  === BLOCK LINK ===
    0x2a3d
=== CODE BLOCK END ===

=== CODE BLOCK ADDRESS 0x2a3d ===
  0x2a3d	dec    	eax
  0x2a3e	imul   	eax, eax, 2
  0x2a41	dec    	eax
  0x2a42	lea    	ecx, [0x3628]
  0x2a48	dec    	eax
  === BLOCK LINK ===
    0x2a49
=== CODE BLOCK END ===

=== CODE BLOCK ADDRESS 0x2a49 ===
  0x2a49	mov    	edx, dword ptr [0x35c1]
  0x2a4f	dec    	eax
  0x2a50	mov    	dword ptr [ecx + eax], edx
  0x2a53	mov    	eax, 8
  0x2a58	dec    	eax
  === BLOCK LINK ===
    0x2a59
=== CODE BLOCK END ===

=== CODE BLOCK ADDRESS 0x2a59 ===
  0x2a59	imul   	eax, eax, 0
  0x2a5c	dec    	eax
  0x2a5d	mov    	ecx, dword ptr [0x35a5]
  0x2a63	dec    	eax
  0x2a64	mov    	dword ptr [esp + eax + 0x68], ecx
  === BLOCK LINK ===
    0x2a68
=== CODE BLOCK END ===

=== CODE BLOCK ADDRESS 0x2a68 ===
  0x2a68	mov    	eax, 8
  0x2a6d	dec    	eax
  0x2a6e	imul   	eax, eax, 1
  0x2a71	dec    	eax
  0x2a72	mov    	ecx, dword ptr [0x3598]
  === BLOCK LINK ===
    0x2a78
=== CODE BLOCK END ===

=== CODE BLOCK ADDRESS 0x2a78 ===
  0x2a78	dec    	eax
  0x2a79	mov    	dword ptr [esp + eax + 0x68], ecx
  0x2a7d	dec    	eax
  0x2a7e	lea    	ecx, [0x157c]
  0x2a84	call   	0x28e4
  === BLOCK LINK ===
    0x2a89
=== CODE BLOCK END ===

=== CODE BLOCK ADDRESS 0x2a89 ===
  0x2a89	dec    	eax
  0x2a8a	add    	esp, 0x88
  0x2a90	ret    	
  0x2a91	int3   	
  0x2a92	int3   	
  === BLOCK LINK ===
    0x2a93
=== CODE BLOCK END ===

=== CODE BLOCK ADDRESS 0x121c ===
  0x121c	dec    	eax
  0x121d	mov    	ebx, dword ptr [esp + 0x60]
  0x1221	dec    	eax
  0x1222	mov    	ebp, dword ptr [esp + 0x70]
  === BLOCK LINK ===
    0x1226
=== CODE BLOCK END ===

=== CODE BLOCK ADDRESS 0x2a93 ===
  0x2a93	int3   	
  0x2a94	int3   	
  0x2a95	int3   	
  0x2a96	int3   	
  0x2a97	int3   	
  === BLOCK LINK ===
    0x2a98
=== CODE BLOCK END ===

=== CODE BLOCK ADDRESS 0x2a98 ===
  0x2a98	dec    	eax
  0x2a99	sub    	esp, 0x78
  0x2a9c	dec    	eax
  0x2a9d	lea    	ecx, [0x364d]
  0x2aa3	call   	dword ptr [0x180f]
  === BLOCK LINK ===
    0x2aa9
=== CODE BLOCK END ===

=== CODE BLOCK ADDRESS 0x2aa9 ===
  0x2aa9	dec    	eax
  0x2aaa	mov    	eax, dword ptr [0x3738]
  0x2ab0	dec    	eax
  0x2ab1	mov    	dword ptr [esp + 0x48], eax
  0x2ab5	inc    	ebp
  === BLOCK LINK ===
    0x2ab6
=== CODE BLOCK END ===

=== CODE BLOCK ADDRESS 0x2ab6 ===
  0x2ab6	xor    	eax, eax
  0x2ab8	dec    	eax
  0x2ab9	lea    	edx, [esp + 0x50]
  0x2abd	dec    	eax
  0x2abe	mov    	ecx, dword ptr [esp + 0x48]
  === BLOCK LINK ===
    0x2ac2
=== CODE BLOCK END ===

=== CODE BLOCK ADDRESS 0x2ac2 ===
  0x2ac2	call   	dword ptr [0x17f8]
  === BLOCK LINK ===
    0x2ac8
=== CODE BLOCK END ===

=== CODE BLOCK ADDRESS 0x2ac8 ===
  0x2ac8	dec    	eax
  0x2ac9	mov    	dword ptr [esp + 0x40], eax
  0x2acd	dec    	eax
  0x2ace	cmp    	dword ptr [esp + 0x40], 0
  0x2ad3	je     	0x2b17
  === BLOCK LINK ===
    0x2ad5
=== CODE BLOCK END ===

=== CODE BLOCK ADDRESS 0x2ad5 ===
  0x2ad5	dec    	eax
  0x2ad6	mov    	dword ptr [esp + 0x38], 0
  0x2ade	dec    	eax
  0x2adf	lea    	eax, [esp + 0x58]
  0x2ae3	dec    	eax
  === BLOCK LINK ===
    0x2ae4
=== CODE BLOCK END ===

=== CODE BLOCK ADDRESS 0x2ae4 ===
  0x2ae4	mov    	dword ptr [esp + 0x30], eax
  0x2ae8	dec    	eax
  0x2ae9	lea    	eax, [esp + 0x60]
  0x2aed	dec    	eax
  0x2aee	mov    	dword ptr [esp + 0x28], eax
  === BLOCK LINK ===
    0x2af2
=== CODE BLOCK END ===

=== CODE BLOCK ADDRESS 0x2af2 ===
  0x2af2	dec    	eax
  0x2af3	lea    	eax, [0x35f7]
  0x2af9	dec    	eax
  0x2afa	mov    	dword ptr [esp + 0x20], eax
  0x2afe	dec    	esp
  === BLOCK LINK ===
    0x2aff
=== CODE BLOCK END ===

=== CODE BLOCK ADDRESS 0x2aff ===
  0x2aff	mov    	ecx, dword ptr [esp + 0x40]
  0x2b03	dec    	esp
  0x2b04	mov    	eax, dword ptr [esp + 0x48]
  0x2b08	dec    	eax
  0x2b09	mov    	edx, dword ptr [esp + 0x50]
  === BLOCK LINK ===
    0x2b0d
=== CODE BLOCK END ===

=== CODE BLOCK ADDRESS 0x2b0d ===
  0x2b0d	xor    	ecx, ecx
  0x2b0f	call   	dword ptr [0x17b3]
  === BLOCK LINK ===
    0x2b15
=== CODE BLOCK END ===

=== CODE BLOCK ADDRESS 0x2b15 ===
  0x2b15	jmp    	0x2b3a
  === BLOCK LINK ===
    0x2b17
=== CODE BLOCK END ===

=== CODE BLOCK ADDRESS 0x2b17 ===
  0x2b17	dec    	eax
  0x2b18	mov    	eax, dword ptr [0x366a]
  0x2b1e	dec    	eax
  0x2b1f	mov    	eax, dword ptr [eax]
  0x2b21	dec    	eax
  === BLOCK LINK ===
    0x2b22
=== CODE BLOCK END ===

=== CODE BLOCK ADDRESS 0x2b22 ===
  0x2b22	mov    	dword ptr [0x36c0], eax
  0x2b28	dec    	eax
  0x2b29	mov    	eax, dword ptr [0x3659]
  0x2b2f	dec    	eax
  0x2b30	add    	eax, 8
  === BLOCK LINK ===
    0x2b33
=== CODE BLOCK END ===

=== CODE BLOCK ADDRESS 0x2b33 ===
  0x2b33	dec    	eax
  0x2b34	mov    	dword ptr [0x364e], eax
  0x2b3a	dec    	eax
  0x2b3b	mov    	eax, dword ptr [0x36a7]
  0x2b41	dec    	eax
  === BLOCK LINK ===
    0x2b42
=== CODE BLOCK END ===

=== CODE BLOCK ADDRESS 0x2b42 ===
  0x2b42	mov    	dword ptr [0x3518], eax
  0x2b48	mov    	dword ptr [0x34fe], 0xc0000409
  0x2b52	mov    	dword ptr [0x34f8], 1
  0x2b5c	mov    	dword ptr [0x3502], 1
  0x2b66	mov    	eax, 8
  === BLOCK LINK ===
    0x2b6b
=== CODE BLOCK END ===

=== CODE BLOCK ADDRESS 0x2b6b ===
  0x2b6b	dec    	eax
  0x2b6c	imul   	eax, eax, 0
  0x2b6f	dec    	eax
  0x2b70	lea    	ecx, [0x34fa]
  0x2b76	dec    	eax
  === BLOCK LINK ===
    0x2b77
=== CODE BLOCK END ===

=== CODE BLOCK ADDRESS 0x2b77 ===
  0x2b77	mov    	dword ptr [ecx + eax], 8
  0x2b7e	dec    	eax
  0x2b7f	lea    	ecx, [0x147b]
  0x2b85	call   	0x28e4
  === BLOCK LINK ===
    0x2b8a
=== CODE BLOCK END ===

=== CODE BLOCK ADDRESS 0x2b8a ===
  0x2b8a	dec    	eax
  0x2b8b	add    	esp, 0x78
  0x2b8e	ret    	
  0x2b8f	int3   	
  0x2b90	int3   	
  === BLOCK LINK ===
    0x2b91
=== CODE BLOCK END ===

=== CODE BLOCK ADDRESS 0x2b91 ===
  0x2b91	int3   	
  0x2b92	int3   	
  0x2b93	int3   	
  0x2b94	int3   	
  0x2b95	int3   	
  === BLOCK LINK ===
    0x2b96
=== CODE BLOCK END ===

=== CODE BLOCK ADDRESS 0x2b96 ===
  0x2b96	int3   	
  0x2b97	int3   	
  0x2b98	int3   	
  0x2b99	int3   	
  0x2b9a	int3   	
  === BLOCK LINK ===
    0x2b9b
=== CODE BLOCK END ===

=== CODE BLOCK ADDRESS 0x2b9b ===
  0x2b9b	int3   	
  0x2b9c	int3   	
  0x2b9d	int3   	
  0x2b9e	int3   	
  0x2b9f	int3   	
  === BLOCK LINK ===
    0x2ba0
=== CODE BLOCK END ===

=== CODE BLOCK ADDRESS 0x2ba0 ===
  0x2ba0	dec    	eax
  0x2ba1	sub    	esp, 0x28
  0x2ba4	dec    	eax
  0x2ba5	mov    	eax, dword ptr [ecx]
  0x2ba7	cmp    	dword ptr [eax], 0xe06d7363
  === BLOCK LINK ===
    0x2bad
=== CODE BLOCK END ===

=== CODE BLOCK ADDRESS 0x2bad ===
  0x2bad	jne    	0x2bd2
  === BLOCK LINK ===
    0x2baf
=== CODE BLOCK END ===

=== CODE BLOCK ADDRESS 0x2baf ===
  0x2baf	cmp    	dword ptr [eax + 0x18], 4
  0x2bb3	jne    	0x2bd2
  === BLOCK LINK ===
    0x2bb5
=== CODE BLOCK END ===

=== CODE BLOCK ADDRESS 0x2bb5 ===
  0x2bb5	mov    	ecx, dword ptr [eax + 0x20]
  0x2bb8	lea    	eax, [ecx - 0x19930520]
  0x2bbe	cmp    	eax, 2
  0x2bc1	jbe    	0x2bcb
  === BLOCK LINK ===
    0x2bc3
=== CODE BLOCK END ===

=== CODE BLOCK ADDRESS 0x2bc3 ===
  0x2bc3	cmp    	ecx, 0x1994000
  0x2bc9	jne    	0x2bd2
  === BLOCK LINK ===
    0x2bcb
=== CODE BLOCK END ===

=== CODE BLOCK ADDRESS 0x2bcb ===
  0x2bcb	call   	dword ptr [0x175f]
  === BLOCK LINK ===
    0x2bd1
=== CODE BLOCK END ===

=== CODE BLOCK ADDRESS 0x2bd1 ===
  0x2bd1	int3   	
  0x2bd2	xor    	eax, eax
  0x2bd4	dec    	eax
  0x2bd5	add    	esp, 0x28
  0x2bd8	ret    	
  === BLOCK LINK ===
    0x2bd9
=== CODE BLOCK END ===

=== CODE BLOCK ADDRESS 0x11e1 ===
  0x11e1	dec    	eax
  0x11e2	inc    	edi
  0x11e4	inc    	esp
  0x11e5	cmp    	byte ptr [esi + edi], dh
  === BLOCK LINK ===
    0x11e8
=== CODE BLOCK END ===

=== CODE BLOCK ADDRESS 0x2bd9 ===
  0x2bd9	int3   	
  0x2bda	int3   	
  0x2bdb	int3   	
  0x2bdc	int3   	
  0x2bdd	int3   	
  === BLOCK LINK ===
    0x2bde
=== CODE BLOCK END ===

=== CODE BLOCK ADDRESS 0x2bde ===
  0x2bde	int3   	
  0x2bdf	int3   	
  0x2be0	dec    	eax
  0x2be1	sub    	esp, 0x28
  0x2be4	dec    	eax
  === BLOCK LINK ===
    0x2be5
=== CODE BLOCK END ===

=== CODE BLOCK ADDRESS 0x2be5 ===
  0x2be5	lea    	ecx, [0xffffffb5]
  0x2beb	call   	dword ptr [0x1567]
  === BLOCK LINK ===
    0x2bf1
=== CODE BLOCK END ===

=== CODE BLOCK ADDRESS 0x2bf1 ===
  0x2bf1	xor    	eax, eax
  0x2bf3	dec    	eax
  0x2bf4	add    	esp, 0x28
  0x2bf7	ret    	
  0x2bf8	int3   	
  === BLOCK LINK ===
    0x2bf9
=== CODE BLOCK END ===

=== CODE BLOCK ADDRESS 0x2f90 ===
=== CODE BLOCK END ===

=== CODE BLOCK ADDRESS 0x2bf9 ===
  0x2bf9	int3   	
  0x2bfa	int3   	
  0x2bfb	int3   	
  0x2bfc	int3   	
  0x2bfd	int3   	
  === BLOCK LINK ===
    0x2bfe
=== CODE BLOCK END ===

=== CODE BLOCK ADDRESS 0x2bfe ===
  0x2bfe	jmp    	dword ptr [0x1754]
  === BLOCK LINK ===
    0x2c04
=== CODE BLOCK END ===

=== CODE BLOCK ADDRESS 0x2c04 ===
  0x2c04	int3   	
  0x2c05	int3   	
  0x2c06	int3   	
  0x2c07	int3   	
  0x2c08	int3   	
  === BLOCK LINK ===
    0x2c09
=== CODE BLOCK END ===

=== CODE BLOCK ADDRESS 0x2c09 ===
  0x2c09	int3   	
  0x2c0a	int3   	
  0x2c0b	int3   	
  0x2c0c	dec    	eax
  0x2c0d	sub    	esp, 0x18
  === BLOCK LINK ===
    0x2c10
=== CODE BLOCK END ===

=== CODE BLOCK ADDRESS 0x2c10 ===
  0x2c10	xor    	edx, edx
  0x2c12	dec    	eax
  0x2c13	lea    	eax, [ecx - 1]
  0x2c16	dec    	eax
  0x2c17	cmp    	eax, -3
  === BLOCK LINK ===
    0x2c1a
=== CODE BLOCK END ===

=== CODE BLOCK ADDRESS 0x2c1a ===
  0x2c1a	ja     	0x2c58
  === BLOCK LINK ===
    0x2c1c
=== CODE BLOCK END ===

=== CODE BLOCK ADDRESS 0x2c1c ===
  0x2c1c	mov    	eax, 0x5a4d
  0x2c21	cmp    	word ptr [ecx], ax
  0x2c24	jne    	0x2c50
  === BLOCK LINK ===
    0x2c26
=== CODE BLOCK END ===

=== CODE BLOCK ADDRESS 0x2c26 ===
  0x2c26	cmp    	dword ptr [ecx + 0x3c], edx
  0x2c29	jl     	0x2c50
  === BLOCK LINK ===
    0x2c2b
=== CODE BLOCK END ===

=== CODE BLOCK ADDRESS 0x2c2b ===
  0x2c2b	cmp    	dword ptr [ecx + 0x3c], 0x10000000
  0x2c32	jae    	0x2c50
  === BLOCK LINK ===
    0x2c34
=== CODE BLOCK END ===

=== CODE BLOCK ADDRESS 0x2c34 ===
  0x2c34	dec    	eax
  0x2c35	arpl   	word ptr [ecx + 0x3c], ax
  0x2c38	dec    	eax
  0x2c39	add    	eax, ecx
  0x2c3b	dec    	eax
  === BLOCK LINK ===
    0x2c3c
=== CODE BLOCK END ===

=== CODE BLOCK ADDRESS 0x2c3c ===
  0x2c3c	mov    	dword ptr [esp], eax
  0x2c3f	cmp    	dword ptr [eax], 0x4550
  0x2c45	dec    	eax
  0x2c46	cmovne  	eax, edx
  0x2c49	dec    	eax
  === BLOCK LINK ===
    0x2c4a
=== CODE BLOCK END ===

=== CODE BLOCK ADDRESS 0x2c4a ===
  0x2c4a	mov    	edx, eax
  0x2c4c	dec    	eax
  0x2c4d	mov    	dword ptr [esp], eax
  0x2c50	jmp    	0x2c58
  === BLOCK LINK ===
    0x2c52
=== CODE BLOCK END ===

=== CODE BLOCK ADDRESS 0x2c52 ===
  0x2c52	xor    	edx, edx
  0x2c54	dec    	eax
  0x2c55	mov    	dword ptr [esp], edx
  0x2c58	dec    	eax
  0x2c59	mov    	eax, edx
  === BLOCK LINK ===
    0x2c5b
=== CODE BLOCK END ===

=== CODE BLOCK ADDRESS 0x2c5b ===
  0x2c5b	dec    	eax
  0x2c5c	add    	esp, 0x18
  0x2c5f	ret    	
  0x2c60	int3   	
  0x2c61	int3   	
  === BLOCK LINK ===
    0x2c62
=== CODE BLOCK END ===

=== CODE BLOCK ADDRESS 0x1130 ===
  0x1130	dec    	eax
  0x1131	mov    	dword ptr [esp + 8], ebx
  0x1135	dec    	eax
  0x1136	mov    	dword ptr [esp + 0x18], ebp
  === BLOCK LINK ===
    0x113a
=== CODE BLOCK END ===

=== CODE BLOCK ADDRESS 0x2c62 ===
  0x2c62	int3   	
  0x2c63	int3   	
  0x2c64	int3   	
  0x2c65	int3   	
  0x2c66	int3   	
  === BLOCK LINK ===
    0x2c67
=== CODE BLOCK END ===

=== CODE BLOCK ADDRESS 0x2c67 ===
  0x2c67	int3   	
  0x2c68	inc    	eax
  0x2c69	push   	ebx
  0x2c6a	dec    	eax
  0x2c6b	sub    	esp, 0x20
  === BLOCK LINK ===
    0x2c6e
=== CODE BLOCK END ===

=== CODE BLOCK ADDRESS 0x2c6e ===
  0x2c6e	mov    	ebx, ecx
  0x2c70	xor    	ecx, ecx
  0x2c72	call   	dword ptr [0x15d0]
  === BLOCK LINK ===
    0x2c78
=== CODE BLOCK END ===

=== CODE BLOCK ADDRESS 0x2c78 ===
  0x2c78	dec    	eax
  0x2c79	test   	eax, eax
  0x2c7b	je     	0x2ca5
  === BLOCK LINK ===
    0x2c7d
=== CODE BLOCK END ===

=== CODE BLOCK ADDRESS 0x2c7d ===
  0x2c7d	dec    	eax
  0x2c7e	mov    	ecx, eax
  0x2c80	call   	0x2c0c
  === BLOCK LINK ===
    0x2c85
=== CODE BLOCK END ===

=== CODE BLOCK ADDRESS 0x2c85 ===
  0x2c85	dec    	eax
  0x2c86	test   	eax, eax
  0x2c88	je     	0x2ca5
  === BLOCK LINK ===
    0x2c8a
=== CODE BLOCK END ===

=== CODE BLOCK ADDRESS 0x2c8a ===
  0x2c8a	mov    	ecx, 2
  0x2c8f	cmp    	word ptr [eax + 0x5c], cx
  0x2c93	jne    	0x2c99
  === BLOCK LINK ===
    0x2c95
=== CODE BLOCK END ===

=== CODE BLOCK ADDRESS 0x2c95 ===
  0x2c95	mov    	eax, ecx
  0x2c97	jmp    	0x2ca7
  === BLOCK LINK ===
    0x2c99
=== CODE BLOCK END ===

=== CODE BLOCK ADDRESS 0x2c99 ===
  0x2c99	cmp    	word ptr [eax + 0x5c], 3
  0x2c9e	mov    	eax, 1
  0x2ca3	je     	0x2ca7
  === BLOCK LINK ===
    0x2ca5
=== CODE BLOCK END ===

=== CODE BLOCK ADDRESS 0x2ca5 ===
  0x2ca5	mov    	eax, ebx
  0x2ca7	dec    	eax
  0x2ca8	add    	esp, 0x20
  0x2cab	pop    	ebx
  0x2cac	ret    	
  === BLOCK LINK ===
    0x2cad
=== CODE BLOCK END ===

=== CODE BLOCK ADDRESS 0x28c0 ===
  0x28c0	dec    	eax
  0x28c1	cmp    	ecx, dword ptr [0x3741]
  0x28c7	jne    	0x28d9
  === BLOCK LINK ===
    0x28c9
=== CODE BLOCK END ===

=== CODE BLOCK ADDRESS 0x2cad ===
  0x2cad	int3   	
  0x2cae	int3   	
  0x2caf	int3   	
  0x2cb0	int3   	
  0x2cb1	int3   	
  === BLOCK LINK ===
    0x2cb2
=== CODE BLOCK END ===

=== CODE BLOCK ADDRESS 0x2cb2 ===
  0x2cb2	int3   	
  0x2cb3	jmp    	dword ptr [0x1697]
  === BLOCK LINK ===
    0x2cb9
=== CODE BLOCK END ===

=== CODE BLOCK ADDRESS 0x2cb9 ===
  0x2cb9	int3   	
  0x2cba	int3   	
  0x2cbb	int3   	
  0x2cbc	int3   	
  0x2cbd	int3   	
  === BLOCK LINK ===
    0x2cbe
=== CODE BLOCK END ===

=== CODE BLOCK ADDRESS 0x2cbe ===
  0x2cbe	int3   	
  0x2cbf	int3   	
  0x2cc0	xor    	eax, eax
  0x2cc2	ret    	
  0x2cc3	int3   	
  === BLOCK LINK ===
    0x2cc4
=== CODE BLOCK END ===

=== CODE BLOCK ADDRESS 0x2cc4 ===
  0x2cc4	int3   	
  0x2cc5	int3   	
  0x2cc6	int3   	
  0x2cc7	int3   	
  0x2cc8	int3   	
  === BLOCK LINK ===
    0x2cc9
=== CODE BLOCK END ===

=== CODE BLOCK ADDRESS 0x2cc9 ===
  0x2cc9	int3   	
  0x2cca	int3   	
  0x2ccb	int3   	
  0x2ccc	int3   	
  0x2ccd	int3   	
  === BLOCK LINK ===
    0x2cce
=== CODE BLOCK END ===

=== CODE BLOCK ADDRESS 0x2cce ===
  0x2cce	int3   	
  0x2ccf	int3   	
  0x2cd0	dec    	esp
  0x2cd1	arpl   	word ptr [ecx + 0x3c], ax
  0x2cd4	inc    	ebp
  === BLOCK LINK ===
    0x2cd5
=== CODE BLOCK END ===

=== CODE BLOCK ADDRESS 0x2cd5 ===
  0x2cd5	xor    	ecx, ecx
  0x2cd7	dec    	esp
  0x2cd8	add    	eax, ecx
  0x2cda	dec    	esp
  0x2cdb	mov    	edx, edx
  === BLOCK LINK ===
    0x2cdd
=== CODE BLOCK END ===

=== CODE BLOCK ADDRESS 0x2cdd ===
  0x2cdd	inc    	ecx
  0x2cde	movzx  	eax, word ptr [eax + 0x14]
  0x2ce2	inc    	ebp
  0x2ce3	movzx  	ebx, word ptr [eax + 6]
  0x2ce7	dec    	eax
  === BLOCK LINK ===
    0x2ce8
=== CODE BLOCK END ===

=== CODE BLOCK ADDRESS 0x2ce8 ===
  0x2ce8	add    	eax, 0x18
  0x2ceb	dec    	ecx
  0x2cec	add    	eax, eax
  0x2cee	inc    	ebp
  0x2cef	test   	ebx, ebx
  === BLOCK LINK ===
    0x2cf1
=== CODE BLOCK END ===

=== CODE BLOCK ADDRESS 0x2cf1 ===
  0x2cf1	je     	0x2d11
  === BLOCK LINK ===
    0x2cf3
=== CODE BLOCK END ===

=== CODE BLOCK ADDRESS 0x2cf3 ===
  0x2cf3	mov    	edx, dword ptr [eax + 0xc]
  0x2cf6	dec    	esp
  0x2cf7	cmp    	edx, edx
  0x2cf9	jb     	0x2d05
  === BLOCK LINK ===
    0x2cfb
=== CODE BLOCK END ===

=== CODE BLOCK ADDRESS 0x2cfb ===
  0x2cfb	mov    	ecx, dword ptr [eax + 8]
  0x2cfe	add    	ecx, edx
  0x2d00	dec    	esp
  0x2d01	cmp    	edx, ecx
  0x2d03	jb     	0x2d13
  === BLOCK LINK ===
    0x2d05
=== CODE BLOCK END ===

=== CODE BLOCK ADDRESS 0x2d05 ===
  0x2d05	inc    	ecx
  0x2d06	inc    	ecx
  0x2d08	dec    	eax
  0x2d09	add    	eax, 0x28
  0x2d0c	inc    	ebp
  === BLOCK LINK ===
    0x2d0d
=== CODE BLOCK END ===

=== CODE BLOCK ADDRESS 0x2d0d ===
  0x2d0d	cmp    	ecx, ebx
  0x2d0f	jb     	0x2cf3
  === BLOCK LINK ===
    0x2d11
=== CODE BLOCK END ===

=== CODE BLOCK ADDRESS 0x2d11 ===
  0x2d11	xor    	eax, eax
  0x2d13	ret    	
  0x2d14	int3   	
  0x2d15	int3   	
  0x2d16	int3   	
  === BLOCK LINK ===
    0x2d17
=== CODE BLOCK END ===

=== CODE BLOCK ADDRESS 0x2d17 ===
  0x2d17	int3   	
  0x2d18	int3   	
  0x2d19	int3   	
  0x2d1a	int3   	
  0x2d1b	int3   	
  === BLOCK LINK ===
    0x2d1c
=== CODE BLOCK END ===

=== CODE BLOCK ADDRESS 0x2d1c ===
  0x2d1c	int3   	
  0x2d1d	int3   	
  0x2d1e	int3   	
  0x2d1f	int3   	
  0x2d20	dec    	eax
  === BLOCK LINK ===
    0x2d21
=== CODE BLOCK END ===

=== CODE BLOCK ADDRESS 0x2d21 ===
  0x2d21	mov    	dword ptr [esp + 8], ebx
  0x2d25	push   	edi
  0x2d26	dec    	eax
  0x2d27	sub    	esp, 0x20
  0x2d2a	dec    	eax
  === BLOCK LINK ===
    0x2d2b
=== CODE BLOCK END ===

=== CODE BLOCK ADDRESS 0x2d2b ===
  0x2d2b	mov    	ebx, ecx
  0x2d2d	dec    	eax
  0x2d2e	lea    	edi, [0xffffd2cc]
  0x2d34	dec    	eax
  0x2d35	mov    	ecx, edi
  === BLOCK LINK ===
    0x2d37
=== CODE BLOCK END ===

=== CODE BLOCK ADDRESS 0x2d37 ===
  0x2d37	call   	0x2d80
  === BLOCK LINK ===
    0x2d3c
=== CODE BLOCK END ===

=== CODE BLOCK ADDRESS 0x2d3c ===
  0x2d3c	test   	eax, eax
  0x2d3e	je     	0x2d62
  === BLOCK LINK ===
    0x2d40
=== CODE BLOCK END ===

=== CODE BLOCK ADDRESS 0x2d40 ===
  0x2d40	dec    	eax
  0x2d41	sub    	ebx, edi
  0x2d43	dec    	eax
  0x2d44	mov    	edx, ebx
  0x2d46	dec    	eax
  === BLOCK LINK ===
    0x2d47
=== CODE BLOCK END ===

=== CODE BLOCK ADDRESS 0x2d47 ===
  0x2d47	mov    	ecx, edi
  0x2d49	call   	0x2cd0
  === BLOCK LINK ===
    0x2d4e
=== CODE BLOCK END ===

=== CODE BLOCK ADDRESS 0x2d4e ===
  0x2d4e	dec    	eax
  0x2d4f	test   	eax, eax
  0x2d51	je     	0x2d62
  === BLOCK LINK ===
    0x2d53
=== CODE BLOCK END ===

=== CODE BLOCK ADDRESS 0x2d53 ===
  0x2d53	mov    	eax, dword ptr [eax + 0x24]
  0x2d56	shr    	eax, 0x1f
  0x2d59	not    	eax
  0x2d5b	and    	eax, 1
  0x2d5e	jmp    	0x2d62
  === BLOCK LINK ===
    0x2d60
=== CODE BLOCK END ===

=== CODE BLOCK ADDRESS 0x2d60 ===
  0x2d60	xor    	eax, eax
  0x2d62	dec    	eax
  0x2d63	mov    	ebx, dword ptr [esp + 0x30]
  0x2d67	dec    	eax
  0x2d68	add    	esp, 0x20
  === BLOCK LINK ===
    0x2d6b
=== CODE BLOCK END ===

=== CODE BLOCK ADDRESS 0x2d6b ===
  0x2d6b	pop    	edi
  0x2d6c	ret    	
  0x2d6d	int3   	
  0x2d6e	int3   	
  0x2d6f	int3   	
  === BLOCK LINK ===
    0x2d70
=== CODE BLOCK END ===

=== CODE BLOCK ADDRESS 0x1396 ===
  0x1396	mov    	eax, ebx
  0x1398	dec    	eax
  === BLOCK LINK ===
    0x1399
=== CODE BLOCK END ===

=== CODE BLOCK ADDRESS 0x2d70 ===
  0x2d70	int3   	
  0x2d71	int3   	
  0x2d72	int3   	
  0x2d73	int3   	
  0x2d74	int3   	
  === BLOCK LINK ===
    0x2d75
=== CODE BLOCK END ===

=== CODE BLOCK ADDRESS 0x2d75 ===
  0x2d75	int3   	
  0x2d76	int3   	
  0x2d77	int3   	
  0x2d78	int3   	
  0x2d79	int3   	
  === BLOCK LINK ===
    0x2d7a
=== CODE BLOCK END ===

=== CODE BLOCK ADDRESS 0x2d7a ===
  0x2d7a	int3   	
  0x2d7b	int3   	
  0x2d7c	int3   	
  0x2d7d	int3   	
  0x2d7e	int3   	
  === BLOCK LINK ===
    0x2d7f
=== CODE BLOCK END ===

=== CODE BLOCK ADDRESS 0x2d7f ===
  0x2d7f	int3   	
  0x2d80	mov    	eax, 0x5a4d
  0x2d85	cmp    	word ptr [ecx], ax
  0x2d88	jne    	0x2daa
  === BLOCK LINK ===
    0x2d8a
=== CODE BLOCK END ===

=== CODE BLOCK ADDRESS 0x2d8a ===
  0x2d8a	dec    	eax
  0x2d8b	arpl   	word ptr [ecx + 0x3c], ax
  0x2d8e	dec    	eax
  0x2d8f	add    	eax, ecx
  0x2d91	cmp    	dword ptr [eax], 0x4550
  === BLOCK LINK ===
    0x2d97
=== CODE BLOCK END ===

=== CODE BLOCK ADDRESS 0x2d97 ===
  0x2d97	jne    	0x2daa
  === BLOCK LINK ===
    0x2d99
=== CODE BLOCK END ===

=== CODE BLOCK ADDRESS 0x2d99 ===
  0x2d99	mov    	ecx, 0x20b
  0x2d9e	cmp    	word ptr [eax + 0x18], cx
  0x2da2	jne    	0x2daa
  === BLOCK LINK ===
    0x2da4
=== CODE BLOCK END ===

=== CODE BLOCK ADDRESS 0x2da4 ===
  0x2da4	mov    	eax, 1
  0x2da9	ret    	
  0x2daa	xor    	eax, eax
  0x2dac	ret    	
  0x2dad	int3   	
  === BLOCK LINK ===
    0x2dae
=== CODE BLOCK END ===

=== CODE BLOCK ADDRESS 0x13cf ===
  0x13cf	dec    	eax
  0x13d0	inc    	ebx
  === BLOCK LINK ===
    0x13d2
=== CODE BLOCK END ===

=== CODE BLOCK ADDRESS 0x2dae ===
  0x2dae	int3   	
  0x2daf	int3   	
  0x2db0	int3   	
  0x2db1	int3   	
  0x2db2	int3   	
  === BLOCK LINK ===
    0x2db3
=== CODE BLOCK END ===

=== CODE BLOCK ADDRESS 0x2db3 ===
  0x2db3	int3   	
  0x2db4	dec    	eax
  0x2db5	mov    	dword ptr [esp + 0x20], ebx
  0x2db9	push   	ebp
  0x2dba	dec    	eax
  === BLOCK LINK ===
    0x2dbb
=== CODE BLOCK END ===

=== CODE BLOCK ADDRESS 0x2dbb ===
  0x2dbb	mov    	ebp, esp
  0x2dbd	dec    	eax
  0x2dbe	sub    	esp, 0x20
  0x2dc1	dec    	eax
  0x2dc2	and    	dword ptr [ebp + 0x18], 0
  === BLOCK LINK ===
    0x2dc6
=== CODE BLOCK END ===

=== CODE BLOCK ADDRESS 0x2dc6 ===
  0x2dc6	dec    	eax
  0x2dc7	mov    	ebx, 0x2ddfa232
  0x2dcc	cdq    	
  0x2dcd	sub    	eax, dword ptr [eax]
  0x2dcf	add    	byte ptr [eax - 0x75], cl
  === BLOCK LINK ===
    0x2dd2
=== CODE BLOCK END ===

=== CODE BLOCK ADDRESS 0x2dd2 ===
  0x2dd2	add    	eax, 0x3231
  0x2dd7	dec    	eax
  0x2dd8	cmp    	eax, ebx
  0x2dda	jne    	0x2e73
  === BLOCK LINK ===
    0x2de0
=== CODE BLOCK END ===

=== CODE BLOCK ADDRESS 0x2de0 ===
  0x2de0	dec    	eax
  0x2de1	lea    	ecx, [ebp + 0x18]
  0x2de4	call   	dword ptr [0x1526]
  === BLOCK LINK ===
    0x2dea
=== CODE BLOCK END ===

=== CODE BLOCK ADDRESS 0x2dea ===
  0x2dea	dec    	eax
  0x2deb	mov    	eax, dword ptr [ebp + 0x18]
  0x2dee	dec    	eax
  0x2def	mov    	dword ptr [ebp + 0x10], eax
  0x2df2	call   	dword ptr [0x14a0]
  === BLOCK LINK ===
    0x2df8
=== CODE BLOCK END ===

=== CODE BLOCK ADDRESS 0x2df8 ===
  0x2df8	mov    	eax, eax
  0x2dfa	dec    	eax
  0x2dfb	xor    	dword ptr [ebp + 0x10], eax
  0x2dfe	call   	dword ptr [0x147c]
  === BLOCK LINK ===
    0x2e04
=== CODE BLOCK END ===

=== CODE BLOCK ADDRESS 0x2e04 ===
  0x2e04	mov    	eax, eax
  0x2e06	dec    	eax
  0x2e07	xor    	dword ptr [ebp + 0x10], eax
  0x2e0a	call   	dword ptr [0x14f8]
  === BLOCK LINK ===
    0x2e10
=== CODE BLOCK END ===

=== CODE BLOCK ADDRESS 0x2e10 ===
  0x2e10	mov    	eax, eax
  0x2e12	dec    	eax
  0x2e13	shl    	eax, 0x18
  0x2e16	dec    	eax
  0x2e17	xor    	dword ptr [ebp + 0x10], eax
  === BLOCK LINK ===
    0x2e1a
=== CODE BLOCK END ===

=== CODE BLOCK ADDRESS 0x2e1a ===
  0x2e1a	call   	dword ptr [0x14e8]
  === BLOCK LINK ===
    0x2e20
=== CODE BLOCK END ===

=== CODE BLOCK ADDRESS 0x2e20 ===
  0x2e20	mov    	eax, eax
  0x2e22	dec    	eax
  0x2e23	lea    	ecx, [ebp + 0x10]
  0x2e26	dec    	eax
  0x2e27	xor    	eax, dword ptr [ebp + 0x10]
  === BLOCK LINK ===
    0x2e2a
=== CODE BLOCK END ===

=== CODE BLOCK ADDRESS 0x2e2a ===
  0x2e2a	dec    	eax
  0x2e2b	xor    	eax, ecx
  0x2e2d	dec    	eax
  0x2e2e	lea    	ecx, [ebp + 0x20]
  0x2e31	dec    	eax
  === BLOCK LINK ===
    0x2e32
=== CODE BLOCK END ===

=== CODE BLOCK ADDRESS 0x2e32 ===
  0x2e32	mov    	dword ptr [ebp + 0x10], eax
  0x2e35	call   	dword ptr [0x146d]
  === BLOCK LINK ===
    0x2e3b
=== CODE BLOCK END ===

=== CODE BLOCK ADDRESS 0x2e3b ===
  0x2e3b	mov    	eax, dword ptr [ebp + 0x20]
  0x2e3e	dec    	eax
  0x2e3f	mov    	ecx, 0xffffffff
  0x2e44	.byte  	0xff
  0x2e45	inc    	dword ptr [eax]
  === BLOCK LINK ===
    0x2e47
=== CODE BLOCK END ===

=== CODE BLOCK ADDRESS 0x2e47 ===
  0x2e47	add    	byte ptr [eax - 0x3f], cl
  0x2e4a	loopne  	0x2e6c
  === BLOCK LINK ===
    0x2e4c
=== CODE BLOCK END ===

=== CODE BLOCK ADDRESS 0x2e4c ===
  0x2e4c	dec    	eax
  0x2e4d	xor    	eax, dword ptr [ebp + 0x20]
  0x2e50	dec    	eax
  0x2e51	xor    	eax, dword ptr [ebp + 0x10]
  0x2e54	dec    	eax
  === BLOCK LINK ===
    0x2e55
=== CODE BLOCK END ===

=== CODE BLOCK ADDRESS 0x2e55 ===
  0x2e55	and    	eax, ecx
  0x2e57	dec    	eax
  0x2e58	mov    	ecx, eax
  0x2e5a	dec    	eax
  0x2e5b	cmp    	eax, ebx
  === BLOCK LINK ===
    0x2e5d
=== CODE BLOCK END ===

=== CODE BLOCK ADDRESS 0x2e5d ===
  0x2e5d	jne    	0x2e6c
  === BLOCK LINK ===
    0x2e5f
=== CODE BLOCK END ===

=== CODE BLOCK ADDRESS 0x2e5f ===
  0x2e5f	dec    	eax
  0x2e60	mov    	eax, 0x2ddfa233
  0x2e65	cdq    	
  0x2e66	sub    	eax, dword ptr [eax]
  0x2e68	add    	byte ptr [eax - 0x75], cl
  === BLOCK LINK ===
    0x2e6b
=== CODE BLOCK END ===

=== CODE BLOCK ADDRESS 0x2e6b ===
  0x2e6b	enter  	-0x76b8, 0xd
  0x2e6f	xchg   	eax, ebp
  0x2e70	xor    	dword ptr [eax], eax
  0x2e72	add    	byte ptr [eax - 0x75], cl
  0x2e75	pop    	esp
  === BLOCK LINK ===
    0x2e76
=== CODE BLOCK END ===

=== CODE BLOCK ADDRESS 0x2e76 ===
  0x2e76	and    	al, 0x48
  0x2e78	dec    	eax
  0x2e79	not    	eax
  0x2e7b	dec    	eax
  0x2e7c	mov    	dword ptr [0x318e], eax
  === BLOCK LINK ===
    0x2e82
=== CODE BLOCK END ===

=== CODE BLOCK ADDRESS 0x2e82 ===
  0x2e82	dec    	eax
  0x2e83	add    	esp, 0x20
  0x2e86	pop    	ebp
  0x2e87	ret    	
  0x2e88	int3   	
  === BLOCK LINK ===
    0x2e89
=== CODE BLOCK END ===

=== CODE BLOCK ADDRESS 0x2e89 ===
  0x2e89	int3   	
  0x2e8a	int3   	
  0x2e8b	int3   	
  0x2e8c	int3   	
  0x2e8d	int3   	
  === BLOCK LINK ===
    0x2e8e
=== CODE BLOCK END ===

=== CODE BLOCK ADDRESS 0x2e8e ===
  0x2e8e	jmp    	dword ptr [0x1494]
  === BLOCK LINK ===
    0x2e94
=== CODE BLOCK END ===

=== CODE BLOCK ADDRESS 0x2e94 ===
  0x2e94	int3   	
  0x2e95	int3   	
  0x2e96	int3   	
  0x2e97	int3   	
  0x2e98	int3   	
  === BLOCK LINK ===
    0x2e99
=== CODE BLOCK END ===

=== CODE BLOCK ADDRESS 0x2e99 ===
  0x2e99	int3   	
  0x2e9a	jmp    	dword ptr [0x14c0]
  === BLOCK LINK ===
    0x2ea0
=== CODE BLOCK END ===

=== CODE BLOCK ADDRESS 0x2ea0 ===
  0x2ea0	int3   	
  0x2ea1	int3   	
  0x2ea2	int3   	
  0x2ea3	int3   	
  0x2ea4	int3   	
  === BLOCK LINK ===
    0x2ea5
=== CODE BLOCK END ===

=== CODE BLOCK ADDRESS 0x2ea5 ===
  0x2ea5	int3   	
  0x2ea6	int3   	
  0x2ea7	int3   	
  0x2ea8	int3   	
  0x2ea9	int3   	
  === BLOCK LINK ===
    0x2eaa
=== CODE BLOCK END ===

=== CODE BLOCK ADDRESS 0x2eaa ===
  0x2eaa	int3   	
  0x2eab	int3   	
  0x2eac	int3   	
  0x2ead	int3   	
  0x2eae	int3   	
  === BLOCK LINK ===
    0x2eaf
=== CODE BLOCK END ===

=== CODE BLOCK ADDRESS 0x2eaf ===
  0x2eaf	int3   	
  0x2eb0	ret    	0
  0x2eb3	int3   	
  0x2eb4	int3   	
  0x2eb5	int3   	
  === BLOCK LINK ===
    0x2eb6
=== CODE BLOCK END ===

=== CODE BLOCK ADDRESS 0x2eb6 ===
  0x2eb6	int3   	
  0x2eb7	int3   	
  0x2eb8	int3   	
  0x2eb9	int3   	
  0x2eba	int3   	
  === BLOCK LINK ===
    0x2ebb
=== CODE BLOCK END ===

=== CODE BLOCK ADDRESS 0x2ebb ===
  0x2ebb	int3   	
  0x2ebc	int3   	
  0x2ebd	int3   	
  0x2ebe	int3   	
  0x2ebf	int3   	
  === BLOCK LINK ===
    0x2ec0
=== CODE BLOCK END ===

=== CODE BLOCK ADDRESS 0x2ec0 ===
  0x2ec0	int3   	
  0x2ec1	int3   	
  0x2ec2	int3   	
  0x2ec3	int3   	
  0x2ec4	int3   	
  === BLOCK LINK ===
    0x2ec5
=== CODE BLOCK END ===

=== CODE BLOCK ADDRESS 0x2ec5 ===
  0x2ec5	int3   	
  0x2ec6	int3   	
  0x2ec7	int3   	
  0x2ec8	dec    	eax
  0x2ec9	sub    	esp, 0x28
  === BLOCK LINK ===
    0x2ecc
=== CODE BLOCK END ===

=== CODE BLOCK ADDRESS 0x2ecc ===
  0x2ecc	dec    	ebp
  0x2ecd	mov    	eax, dword ptr [ecx + 0x38]
  0x2ed0	dec    	eax
  0x2ed1	mov    	ecx, edx
  0x2ed3	dec    	ecx
  === BLOCK LINK ===
    0x2ed4
=== CODE BLOCK END ===

=== CODE BLOCK ADDRESS 0x2ed4 ===
  0x2ed4	mov    	edx, ecx
  0x2ed6	call   	0x2eec
  === BLOCK LINK ===
    0x2edb
=== CODE BLOCK END ===

=== CODE BLOCK ADDRESS 0x2edb ===
  0x2edb	mov    	eax, 1
  0x2ee0	dec    	eax
  0x2ee1	add    	esp, 0x28
  0x2ee4	ret    	
  0x2ee5	int3   	
  === BLOCK LINK ===
    0x2ee6
=== CODE BLOCK END ===

=== CODE BLOCK ADDRESS 0x2ee6 ===
  0x2ee6	int3   	
  0x2ee7	int3   	
  0x2ee8	int3   	
  0x2ee9	int3   	
  0x2eea	int3   	
  === BLOCK LINK ===
    0x2eeb
=== CODE BLOCK END ===

=== CODE BLOCK ADDRESS 0x2eeb ===
  0x2eeb	int3   	
  0x2eec	inc    	eax
  0x2eed	push   	ebx
  0x2eee	inc    	ebp
  0x2eef	mov    	ebx, dword ptr [eax]
  === BLOCK LINK ===
    0x2ef1
=== CODE BLOCK END ===

=== CODE BLOCK ADDRESS 0x2ef1 ===
  0x2ef1	dec    	eax
  0x2ef2	mov    	ebx, edx
  0x2ef4	inc    	ecx
  0x2ef5	and    	ebx, 0xfffffff8
  0x2ef8	dec    	esp
  === BLOCK LINK ===
    0x2ef9
=== CODE BLOCK END ===

=== CODE BLOCK ADDRESS 0x2ef9 ===
  0x2ef9	mov    	ecx, ecx
  0x2efb	inc    	ecx
  0x2efc	test   	byte ptr [eax], 4
  0x2eff	dec    	esp
  0x2f00	mov    	edx, ecx
  === BLOCK LINK ===
    0x2f02
=== CODE BLOCK END ===

=== CODE BLOCK ADDRESS 0x2f02 ===
  0x2f02	je     	0x2f17
  === BLOCK LINK ===
    0x2f04
=== CODE BLOCK END ===

=== CODE BLOCK ADDRESS 0x2f04 ===
  0x2f04	inc    	ecx
  0x2f05	mov    	eax, dword ptr [eax + 8]
  0x2f08	dec    	ebp
  0x2f09	arpl   	word ptr [eax + 4], dx
  0x2f0c	neg    	eax
  === BLOCK LINK ===
    0x2f0e
=== CODE BLOCK END ===

=== CODE BLOCK ADDRESS 0x2f0e ===
  0x2f0e	dec    	esp
  0x2f0f	add    	edx, ecx
  0x2f11	dec    	eax
  0x2f12	arpl   	ax, cx
  0x2f14	dec    	esp
  === BLOCK LINK ===
    0x2f15
=== CODE BLOCK END ===

=== CODE BLOCK ADDRESS 0x2f15 ===
  0x2f15	and    	edx, ecx
  0x2f17	dec    	ecx
  0x2f18	arpl   	bx, ax
  0x2f1a	dec    	edx
  0x2f1b	mov    	edx, dword ptr [eax + edx]
  === BLOCK LINK ===
    0x2f1e
=== CODE BLOCK END ===

=== CODE BLOCK ADDRESS 0x2f1e ===
  0x2f1e	dec    	eax
  0x2f1f	mov    	eax, dword ptr [ebx + 0x10]
  0x2f22	mov    	ecx, dword ptr [eax + 8]
  0x2f25	dec    	eax
  0x2f26	mov    	eax, dword ptr [ebx + 8]
  === BLOCK LINK ===
    0x2f29
=== CODE BLOCK END ===

=== CODE BLOCK ADDRESS 0x2f29 ===
  0x2f29	test   	byte ptr [ecx + eax + 3], 0xf
  0x2f2e	je     	0x2f3b
  === BLOCK LINK ===
    0x2f30
=== CODE BLOCK END ===

=== CODE BLOCK ADDRESS 0x2f30 ===
  0x2f30	movzx  	eax, byte ptr [ecx + eax + 3]
  0x2f35	and    	eax, 0xfffffff0
  0x2f38	dec    	esp
  0x2f39	add    	ecx, eax
  0x2f3b	dec    	esp
  === BLOCK LINK ===
    0x2f3c
=== CODE BLOCK END ===

=== CODE BLOCK ADDRESS 0x2f3c ===
  0x2f3c	xor    	ecx, edx
  0x2f3e	dec    	ecx
  0x2f3f	mov    	ecx, ecx
  0x2f41	pop    	ebx
  0x2f42	jmp    	0x28c0
  === BLOCK LINK ===
    0x2f47
=== CODE BLOCK END ===

=== CODE BLOCK ADDRESS 0x2f47 ===
  0x2f47	int3   	
  0x2f48	int3   	
  0x2f49	int3   	
  0x2f4a	int3   	
  0x2f4b	int3   	
  === BLOCK LINK ===
    0x2f4c
=== CODE BLOCK END ===

=== CODE BLOCK ADDRESS 0x2f4c ===
  0x2f4c	int3   	
  0x2f4d	int3   	
  0x2f4e	int3   	
  0x2f4f	int3   	
  0x2f50	int3   	
  === BLOCK LINK ===
    0x2f51
=== CODE BLOCK END ===

=== CODE BLOCK ADDRESS 0x2f51 ===
  0x2f51	int3   	
  0x2f52	int3   	
  0x2f53	int3   	
  0x2f54	int3   	
  0x2f55	int3   	
  === BLOCK LINK ===
    0x2f56
=== CODE BLOCK END ===

=== CODE BLOCK ADDRESS 0x2f56 ===
  0x2f56	jmp    	dword ptr [0x1434]
  === BLOCK LINK ===
    0x2f5c
=== CODE BLOCK END ===

=== CODE BLOCK ADDRESS 0x2f5c ===
  0x2f5c	int3   	
  0x2f5d	int3   	
  0x2f5e	int3   	
  0x2f5f	int3   	
  0x2f60	int3   	
  === BLOCK LINK ===
    0x2f61
=== CODE BLOCK END ===

=== CODE BLOCK ADDRESS 0x2f61 ===
  0x2f61	int3   	
  0x2f62	int3   	
  0x2f63	int3   	
  0x2f64	int3   	
  0x2f65	int3   	
  === BLOCK LINK ===
    0x2f66
=== CODE BLOCK END ===

=== CODE BLOCK ADDRESS 0x2f66 ===
  0x2f66	nop    	word ptr [eax + eax]
  0x2f70	jmp    	eax
  === BLOCK LINK ===
    0x2f72
=== CODE BLOCK END ===

=== CODE BLOCK ADDRESS 0x2f72 ===
  0x2f72	int3   	
  0x2f73	int3   	
  0x2f74	int3   	
  0x2f75	int3   	
  0x2f76	int3   	
  === BLOCK LINK ===
    0x2f77
=== CODE BLOCK END ===

=== CODE BLOCK ADDRESS 0x2f77 ===
  0x2f77	int3   	
  0x2f78	int3   	
  0x2f79	int3   	
  0x2f7a	int3   	
  0x2f7b	int3   	
  === BLOCK LINK ===
    0x2f7c
=== CODE BLOCK END ===

=== CODE BLOCK ADDRESS 0x2f7c ===
  0x2f7c	int3   	
  0x2f7d	int3   	
  0x2f7e	int3   	
  0x2f7f	int3   	
  0x2f80	int3   	
  === BLOCK LINK ===
    0x2f81
=== CODE BLOCK END ===

=== CODE BLOCK ADDRESS 0x2f81 ===
  0x2f81	int3   	
  0x2f82	int3   	
  0x2f83	int3   	
  0x2f84	int3   	
  0x2f85	int3   	
  === BLOCK LINK ===
    0x2f86
=== CODE BLOCK END ===

=== CODE BLOCK ADDRESS 0x2f86 ===
  0x2f86	nop    	word ptr [eax + eax]
  0x2f90	dec    	eax
  0x2f91	sub    	esp, 0x10
  0x2f94	dec    	esp
  0x2f95	mov    	dword ptr [esp], edx
  === BLOCK LINK ===
    0x2f98
=== CODE BLOCK END ===

=== CODE BLOCK ADDRESS 0x2f98 ===
  0x2f98	dec    	esp
  0x2f99	mov    	dword ptr [esp + 8], ebx
  0x2f9d	dec    	ebp
  0x2f9e	xor    	ebx, ebx
  0x2fa0	dec    	esp
  === BLOCK LINK ===
    0x2fa1
=== CODE BLOCK END ===

=== CODE BLOCK ADDRESS 0x2fa1 ===
  0x2fa1	lea    	edx, [esp + 0x18]
  0x2fa5	dec    	esp
  0x2fa6	sub    	edx, eax
  0x2fa8	dec    	ebp
  0x2fa9	cmovb  	edx, ebx
  === BLOCK LINK ===
    0x2fac
=== CODE BLOCK END ===

=== CODE BLOCK ADDRESS 0x2fac ===
  0x2fac	dec    	esp
  0x2fae	mov    	ebx, dword ptr [0x10]
  0x2fb5	dec    	ebp
  0x2fb6	cmp    	edx, ebx
  0x2fb8	jae    	0x2fcf
  === BLOCK LINK ===
    0x2fba
=== CODE BLOCK END ===

=== CODE BLOCK ADDRESS 0x2fba ===
  0x2fba	inc    	cx
  0x2fbc	and    	edx, 0x8d4df000
  0x2fc2	wait   	
  0x2fc3	add    	al, dh
  0x2fc5	.byte  	0xff
  === BLOCK LINK ===
    0x2fc6
=== CODE BLOCK END ===

=== CODE BLOCK ADDRESS 0x2fc6 ===
  0x2fc6	inc    	dword ptr [ebp - 0x7c]
  0x2fc9	sbb    	ecx, dword ptr [ebp + 0x3b]
  0x2fcc	sal    	dword ptr [edx - 0xf], cl
  0x2fcf	dec    	esp
  0x2fd0	mov    	edx, dword ptr [esp]
  === BLOCK LINK ===
    0x2fd3
=== CODE BLOCK END ===

=== CODE BLOCK ADDRESS 0x2fd3 ===
  0x2fd3	dec    	esp
  0x2fd4	mov    	ebx, dword ptr [esp + 8]
  0x2fd8	dec    	eax
  0x2fd9	add    	esp, 0x10
  0x2fdc	ret    	
  === BLOCK LINK ===
    0x2fdd
=== CODE BLOCK END ===

=== CODE BLOCK ADDRESS 0x1478 ===
  0x1478	dec    	eax
  0x1479	mov    	ebx, dword ptr [esp + 0x60]
  0x147d	dec    	eax
  0x147e	mov    	ebp, dword ptr [esp + 0x70]
  === BLOCK LINK ===
    0x1482
=== CODE BLOCK END ===

=== CODE BLOCK ADDRESS 0x2fdd ===
  0x2fdd	int3   	
  0x2fde	int3   	
  0x2fdf	int3   	
  0x2fe0	int3   	
  0x2fe1	int3   	
  === BLOCK LINK ===
    0x2fe2
=== CODE BLOCK END ===

=== CODE BLOCK ADDRESS 0x2fe2 ===
  0x2fe2	int3   	
  0x2fe3	inc    	eax
  0x2fe4	push   	ebp
  0x2fe5	dec    	eax
  0x2fe6	sub    	esp, 0x20
  === BLOCK LINK ===
    0x2fe9
=== CODE BLOCK END ===

=== CODE BLOCK ADDRESS 0x2fe9 ===
  0x2fe9	dec    	eax
  0x2fea	mov    	ebp, edx
  0x2fec	dec    	eax
  0x2fed	mov    	eax, dword ptr [ecx]
  0x2fef	dec    	eax
  === BLOCK LINK ===
    0x2ff0
=== CODE BLOCK END ===

=== CODE BLOCK ADDRESS 0x2ff0 ===
  0x2ff0	mov    	edx, ecx
  0x2ff2	mov    	ecx, dword ptr [eax]
  0x2ff4	call   	0x2bfe
  === BLOCK LINK ===
    0x2ff9
=== CODE BLOCK END ===

=== CODE BLOCK ADDRESS 0x2ff9 ===
  0x2ff9	nop    	
  0x2ffa	dec    	eax
  0x2ffb	add    	esp, 0x20
  0x2ffe	pop    	ebp
  0x2fff	ret    	
  === BLOCK LINK ===
    0x3000
=== CODE BLOCK END ===

=== CODE BLOCK ADDRESS 0x1511 ===
  0x1511	dec    	eax
  0x1512	mov    	edi, eax
  0x1514	dec    	eax
  0x1515	test   	eax, eax
  === BLOCK LINK ===
    0x1517
=== CODE BLOCK END ===

=== CODE BLOCK ADDRESS 0x3000 ===
  0x3000	int3   	
  0x3001	int3   	
  0x3002	int3   	
  0x3003	int3   	
  0x3004	int3   	
  === BLOCK LINK ===
    0x3005
=== CODE BLOCK END ===

=== CODE BLOCK ADDRESS 0x3005 ===
  0x3005	int3   	
  0x3006	int3   	
  0x3007	int3   	
  0x3008	int3   	
  0x3009	int3   	
  === BLOCK LINK ===
    0x300a
=== CODE BLOCK END ===

=== CODE BLOCK ADDRESS 0x300a ===
  0x300a	int3   	
  0x300b	int3   	
  0x300c	int3   	
  0x300d	int3   	
  0x300e	int3   	
  === BLOCK LINK ===
    0x300f
=== CODE BLOCK END ===

=== CODE BLOCK ADDRESS 0x300f ===
  0x300f	int3   	
  0x3010	inc    	eax
  0x3011	push   	ebp
  0x3012	dec    	eax
  0x3013	sub    	esp, 0x20
  === BLOCK LINK ===
    0x3016
=== CODE BLOCK END ===

=== CODE BLOCK ADDRESS 0x3016 ===
  0x3016	dec    	eax
  0x3017	mov    	ebp, edx
  0x3019	dec    	eax
  0x301a	mov    	eax, dword ptr [ecx]
  0x301c	xor    	ecx, ecx
  === BLOCK LINK ===
    0x301e
=== CODE BLOCK END ===

=== CODE BLOCK ADDRESS 0x301e ===
  0x301e	cmp    	dword ptr [eax], 0xc0000005
  0x3024	sete   	cl
  0x3027	mov    	eax, ecx
  0x3029	dec    	eax
  0x302a	add    	esp, 0x20
  === BLOCK LINK ===
    0x302d
=== CODE BLOCK END ===

=== CODE BLOCK ADDRESS 0x302d ===
  0x302d	pop    	ebp
  0x302e	ret    	
  0x302f	int3   	
  0x3030	add    	byte ptr [eax], al
  0x3032	add    	byte ptr [eax], al
  === BLOCK LINK ===
    0x3034
=== CODE BLOCK END ===

=== CODE BLOCK ADDRESS 0x3034 ===
  0x3034	add    	byte ptr [eax], al
  0x3036	add    	byte ptr [eax], al
  0x3038	add    	byte ptr [eax], al
  0x303a	add    	byte ptr [eax], al
  0x303c	add    	byte ptr [eax], al
  === BLOCK LINK ===
    0x303e
=== CODE BLOCK END ===

=== CODE BLOCK ADDRESS 0x303e ===
  0x303e	add    	byte ptr [eax], al
  0x3040	add    	byte ptr [eax], al
  0x3042	add    	byte ptr [eax], al
  0x3044	add    	byte ptr [eax], al
  0x3046	add    	byte ptr [eax], al
  === BLOCK LINK ===
    0x3048
=== CODE BLOCK END ===

=== CODE BLOCK ADDRESS 0x3048 ===
  0x3048	add    	byte ptr [eax], al
  0x304a	add    	byte ptr [eax], al
  0x304c	add    	byte ptr [eax], al
  0x304e	add    	byte ptr [eax], al
  0x3050	add    	byte ptr [eax], al
  === BLOCK LINK ===
    0x3052
=== CODE BLOCK END ===

=== CODE BLOCK ADDRESS 0x3052 ===
  0x3052	add    	byte ptr [eax], al
  0x3054	add    	byte ptr [eax], al
  0x3056	add    	byte ptr [eax], al
  0x3058	add    	byte ptr [eax], al
  0x305a	add    	byte ptr [eax], al
  === BLOCK LINK ===
    0x305c
=== CODE BLOCK END ===

=== CODE BLOCK ADDRESS 0x305c ===
  0x305c	add    	byte ptr [eax], al
  0x305e	add    	byte ptr [eax], al
  0x3060	add    	byte ptr [eax], al
  0x3062	add    	byte ptr [eax], al
  0x3064	add    	byte ptr [eax], al
  === BLOCK LINK ===
    0x3066
=== CODE BLOCK END ===

=== CODE BLOCK ADDRESS 0x3066 ===
  0x3066	add    	byte ptr [eax], al
  0x3068	add    	byte ptr [eax], al
  0x306a	add    	byte ptr [eax], al
  0x306c	add    	byte ptr [eax], al
  0x306e	add    	byte ptr [eax], al
  === BLOCK LINK ===
    0x3070
=== CODE BLOCK END ===

=== CODE BLOCK ADDRESS 0x3070 ===
  0x3070	add    	byte ptr [eax], al
  0x3072	add    	byte ptr [eax], al
  0x3074	add    	byte ptr [eax], al
  0x3076	add    	byte ptr [eax], al
  0x3078	add    	byte ptr [eax], al
  === BLOCK LINK ===
    0x307a
=== CODE BLOCK END ===

=== CODE BLOCK ADDRESS 0x307a ===
  0x307a	add    	byte ptr [eax], al
  0x307c	add    	byte ptr [eax], al
  0x307e	add    	byte ptr [eax], al
  0x3080	add    	byte ptr [eax], al
  0x3082	add    	byte ptr [eax], al
  === BLOCK LINK ===
    0x3084
=== CODE BLOCK END ===

=== CODE BLOCK ADDRESS 0x3084 ===
  0x3084	add    	byte ptr [eax], al
  0x3086	add    	byte ptr [eax], al
  0x3088	add    	byte ptr [eax], al
  0x308a	add    	byte ptr [eax], al
  0x308c	add    	byte ptr [eax], al
  === BLOCK LINK ===
    0x308e
=== CODE BLOCK END ===

=== CODE BLOCK ADDRESS 0x308e ===
  0x308e	add    	byte ptr [eax], al
  0x3090	add    	byte ptr [eax], al
  0x3092	add    	byte ptr [eax], al
  0x3094	add    	byte ptr [eax], al
  0x3096	add    	byte ptr [eax], al
  === BLOCK LINK ===
    0x3098
=== CODE BLOCK END ===

=== CODE BLOCK ADDRESS 0x3098 ===
  0x3098	add    	byte ptr [eax], al
  0x309a	add    	byte ptr [eax], al
  0x309c	add    	byte ptr [eax], al
  0x309e	add    	byte ptr [eax], al
  0x30a0	add    	byte ptr [eax], al
  === BLOCK LINK ===
    0x30a2
=== CODE BLOCK END ===

=== CODE BLOCK ADDRESS 0x30a2 ===
  0x30a2	add    	byte ptr [eax], al
  0x30a4	add    	byte ptr [eax], al
  0x30a6	add    	byte ptr [eax], al
  0x30a8	add    	byte ptr [eax], al
  0x30aa	add    	byte ptr [eax], al
  === BLOCK LINK ===
    0x30ac
=== CODE BLOCK END ===

=== CODE BLOCK ADDRESS 0x30ac ===
  0x30ac	add    	byte ptr [eax], al
  0x30ae	add    	byte ptr [eax], al
  0x30b0	add    	byte ptr [eax], al
  0x30b2	add    	byte ptr [eax], al
  0x30b4	add    	byte ptr [eax], al
  === BLOCK LINK ===
    0x30b6
=== CODE BLOCK END ===

=== CODE BLOCK ADDRESS 0x30b6 ===
  0x30b6	add    	byte ptr [eax], al
  0x30b8	add    	byte ptr [eax], al
  0x30ba	add    	byte ptr [eax], al
  0x30bc	add    	byte ptr [eax], al
  0x30be	add    	byte ptr [eax], al
  === BLOCK LINK ===
    0x30c0
=== CODE BLOCK END ===

=== CODE BLOCK ADDRESS 0x30c0 ===
  0x30c0	add    	byte ptr [eax], al
  0x30c2	add    	byte ptr [eax], al
  0x30c4	add    	byte ptr [eax], al
  0x30c6	add    	byte ptr [eax], al
  0x30c8	add    	byte ptr [eax], al
  === BLOCK LINK ===
    0x30ca
=== CODE BLOCK END ===

=== CODE BLOCK ADDRESS 0x30ca ===
  0x30ca	add    	byte ptr [eax], al
  0x30cc	add    	byte ptr [eax], al
  0x30ce	add    	byte ptr [eax], al
  0x30d0	add    	byte ptr [eax], al
  0x30d2	add    	byte ptr [eax], al
  === BLOCK LINK ===
    0x30d4
=== CODE BLOCK END ===

=== CODE BLOCK ADDRESS 0x30d4 ===
  0x30d4	add    	byte ptr [eax], al
  0x30d6	add    	byte ptr [eax], al
  0x30d8	add    	byte ptr [eax], al
  0x30da	add    	byte ptr [eax], al
  0x30dc	add    	byte ptr [eax], al
  === BLOCK LINK ===
    0x30de
=== CODE BLOCK END ===

=== CODE BLOCK ADDRESS 0x30de ===
  0x30de	add    	byte ptr [eax], al
  0x30e0	add    	byte ptr [eax], al
  0x30e2	add    	byte ptr [eax], al
  0x30e4	add    	byte ptr [eax], al
  0x30e6	add    	byte ptr [eax], al
  === BLOCK LINK ===
    0x30e8
=== CODE BLOCK END ===

=== CODE BLOCK ADDRESS 0x30e8 ===
  0x30e8	add    	byte ptr [eax], al
  0x30ea	add    	byte ptr [eax], al
  0x30ec	add    	byte ptr [eax], al
  0x30ee	add    	byte ptr [eax], al
  0x30f0	add    	byte ptr [eax], al
  === BLOCK LINK ===
    0x30f2
=== CODE BLOCK END ===

=== CODE BLOCK ADDRESS 0x30f2 ===
  0x30f2	add    	byte ptr [eax], al
  0x30f4	add    	byte ptr [eax], al
  0x30f6	add    	byte ptr [eax], al
  0x30f8	add    	byte ptr [eax], al
  0x30fa	add    	byte ptr [eax], al
  === BLOCK LINK ===
    0x30fc
=== CODE BLOCK END ===

=== CODE BLOCK ADDRESS 0x30fc ===
  0x30fc	add    	byte ptr [eax], al
  0x30fe	add    	byte ptr [eax], al
  0x3100	add    	byte ptr [eax], al
  0x3102	add    	byte ptr [eax], al
  0x3104	add    	byte ptr [eax], al
  === BLOCK LINK ===
    0x3106
=== CODE BLOCK END ===

=== CODE BLOCK ADDRESS 0x3106 ===
  0x3106	add    	byte ptr [eax], al
  0x3108	add    	byte ptr [eax], al
  0x310a	add    	byte ptr [eax], al
  0x310c	add    	byte ptr [eax], al
  0x310e	add    	byte ptr [eax], al
  === BLOCK LINK ===
    0x3110
=== CODE BLOCK END ===

=== CODE BLOCK ADDRESS 0x3110 ===
  0x3110	add    	byte ptr [eax], al
  0x3112	add    	byte ptr [eax], al
  0x3114	add    	byte ptr [eax], al
  0x3116	add    	byte ptr [eax], al
  0x3118	add    	byte ptr [eax], al
  === BLOCK LINK ===
    0x311a
=== CODE BLOCK END ===

=== CODE BLOCK ADDRESS 0x311a ===
  0x311a	add    	byte ptr [eax], al
  0x311c	add    	byte ptr [eax], al
  0x311e	add    	byte ptr [eax], al
  0x3120	add    	byte ptr [eax], al
  0x3122	add    	byte ptr [eax], al
  === BLOCK LINK ===
    0x3124
=== CODE BLOCK END ===

=== CODE BLOCK ADDRESS 0x3124 ===
  0x3124	add    	byte ptr [eax], al
  0x3126	add    	byte ptr [eax], al
  0x3128	add    	byte ptr [eax], al
  0x312a	add    	byte ptr [eax], al
  0x312c	add    	byte ptr [eax], al
  === BLOCK LINK ===
    0x312e
=== CODE BLOCK END ===

=== CODE BLOCK ADDRESS 0x312e ===
  0x312e	add    	byte ptr [eax], al
  0x3130	add    	byte ptr [eax], al
  0x3132	add    	byte ptr [eax], al
  0x3134	add    	byte ptr [eax], al
  0x3136	add    	byte ptr [eax], al
  === BLOCK LINK ===
    0x3138
=== CODE BLOCK END ===

=== CODE BLOCK ADDRESS 0x3138 ===
  0x3138	add    	byte ptr [eax], al
  0x313a	add    	byte ptr [eax], al
  0x313c	add    	byte ptr [eax], al
  0x313e	add    	byte ptr [eax], al
  0x3140	add    	byte ptr [eax], al
  === BLOCK LINK ===
    0x3142
=== CODE BLOCK END ===

=== CODE BLOCK ADDRESS 0x3142 ===
  0x3142	add    	byte ptr [eax], al
  0x3144	add    	byte ptr [eax], al
  0x3146	add    	byte ptr [eax], al
  0x3148	add    	byte ptr [eax], al
  0x314a	add    	byte ptr [eax], al
  === BLOCK LINK ===
    0x314c
=== CODE BLOCK END ===

=== CODE BLOCK ADDRESS 0x314c ===
  0x314c	add    	byte ptr [eax], al
  0x314e	add    	byte ptr [eax], al
  0x3150	add    	byte ptr [eax], al
  0x3152	add    	byte ptr [eax], al
  0x3154	add    	byte ptr [eax], al
  === BLOCK LINK ===
    0x3156
=== CODE BLOCK END ===

=== CODE BLOCK ADDRESS 0x3156 ===
  0x3156	add    	byte ptr [eax], al
  0x3158	add    	byte ptr [eax], al
  0x315a	add    	byte ptr [eax], al
  0x315c	add    	byte ptr [eax], al
  0x315e	add    	byte ptr [eax], al
  === BLOCK LINK ===
    0x3160
=== CODE BLOCK END ===

=== CODE BLOCK ADDRESS 0x3160 ===
  0x3160	add    	byte ptr [eax], al
  0x3162	add    	byte ptr [eax], al
  0x3164	add    	byte ptr [eax], al
  0x3166	add    	byte ptr [eax], al
  0x3168	add    	byte ptr [eax], al
  === BLOCK LINK ===
    0x316a
=== CODE BLOCK END ===

=== CODE BLOCK ADDRESS 0x316a ===
  0x316a	add    	byte ptr [eax], al
  0x316c	add    	byte ptr [eax], al
  0x316e	add    	byte ptr [eax], al
  0x3170	add    	byte ptr [eax], al
  0x3172	add    	byte ptr [eax], al
  === BLOCK LINK ===
    0x3174
=== CODE BLOCK END ===

=== CODE BLOCK ADDRESS 0x3174 ===
  0x3174	add    	byte ptr [eax], al
  0x3176	add    	byte ptr [eax], al
  0x3178	add    	byte ptr [eax], al
  0x317a	add    	byte ptr [eax], al
  0x317c	add    	byte ptr [eax], al
  === BLOCK LINK ===
    0x317e
=== CODE BLOCK END ===

=== CODE BLOCK ADDRESS 0x317e ===
  0x317e	add    	byte ptr [eax], al
  0x3180	add    	byte ptr [eax], al
  0x3182	add    	byte ptr [eax], al
  0x3184	add    	byte ptr [eax], al
  0x3186	add    	byte ptr [eax], al
  === BLOCK LINK ===
    0x3188
=== CODE BLOCK END ===

=== CODE BLOCK ADDRESS 0x3188 ===
  0x3188	add    	byte ptr [eax], al
  0x318a	add    	byte ptr [eax], al
  0x318c	add    	byte ptr [eax], al
  0x318e	add    	byte ptr [eax], al
  0x3190	add    	byte ptr [eax], al
  === BLOCK LINK ===
    0x3192
=== CODE BLOCK END ===

=== CODE BLOCK ADDRESS 0x3192 ===
  0x3192	add    	byte ptr [eax], al
  0x3194	add    	byte ptr [eax], al
  0x3196	add    	byte ptr [eax], al
  0x3198	add    	byte ptr [eax], al
  0x319a	add    	byte ptr [eax], al
  === BLOCK LINK ===
    0x319c
=== CODE BLOCK END ===

=== CODE BLOCK ADDRESS 0x319c ===
  0x319c	add    	byte ptr [eax], al
  0x319e	add    	byte ptr [eax], al
  0x31a0	add    	byte ptr [eax], al
  0x31a2	add    	byte ptr [eax], al
  0x31a4	add    	byte ptr [eax], al
  === BLOCK LINK ===
    0x31a6
=== CODE BLOCK END ===

=== CODE BLOCK ADDRESS 0x31a6 ===
  0x31a6	add    	byte ptr [eax], al
  0x31a8	add    	byte ptr [eax], al
  0x31aa	add    	byte ptr [eax], al
  0x31ac	add    	byte ptr [eax], al
  0x31ae	add    	byte ptr [eax], al
  === BLOCK LINK ===
    0x31b0
=== CODE BLOCK END ===

=== CODE BLOCK ADDRESS 0x31b0 ===
  0x31b0	add    	byte ptr [eax], al
  0x31b2	add    	byte ptr [eax], al
  0x31b4	add    	byte ptr [eax], al
  0x31b6	add    	byte ptr [eax], al
  0x31b8	add    	byte ptr [eax], al
  === BLOCK LINK ===
    0x31ba
=== CODE BLOCK END ===

=== CODE BLOCK ADDRESS 0x31ba ===
  0x31ba	add    	byte ptr [eax], al
  0x31bc	add    	byte ptr [eax], al
  0x31be	add    	byte ptr [eax], al
  0x31c0	add    	byte ptr [eax], al
  0x31c2	add    	byte ptr [eax], al
  === BLOCK LINK ===
    0x31c4
=== CODE BLOCK END ===

=== CODE BLOCK ADDRESS 0x31c4 ===
  0x31c4	add    	byte ptr [eax], al
  0x31c6	add    	byte ptr [eax], al
  0x31c8	add    	byte ptr [eax], al
  0x31ca	add    	byte ptr [eax], al
  0x31cc	add    	byte ptr [eax], al
  === BLOCK LINK ===
    0x31ce
=== CODE BLOCK END ===

=== CODE BLOCK ADDRESS 0x31ce ===
  0x31ce	add    	byte ptr [eax], al
  0x31d0	add    	byte ptr [eax], al
  0x31d2	add    	byte ptr [eax], al
  0x31d4	add    	byte ptr [eax], al
  0x31d6	add    	byte ptr [eax], al
  === BLOCK LINK ===
    0x31d8
=== CODE BLOCK END ===

=== CODE BLOCK ADDRESS 0x31d8 ===
  0x31d8	add    	byte ptr [eax], al
  0x31da	add    	byte ptr [eax], al
  0x31dc	add    	byte ptr [eax], al
  0x31de	add    	byte ptr [eax], al
  0x31e0	add    	byte ptr [eax], al
  === BLOCK LINK ===
    0x31e2
=== CODE BLOCK END ===

=== CODE BLOCK ADDRESS 0x31e2 ===
  0x31e2	add    	byte ptr [eax], al
  0x31e4	add    	byte ptr [eax], al
  0x31e6	add    	byte ptr [eax], al
  0x31e8	add    	byte ptr [eax], al
  0x31ea	add    	byte ptr [eax], al
  === BLOCK LINK ===
    0x31ec
=== CODE BLOCK END ===

=== CODE BLOCK ADDRESS 0x31ec ===
  0x31ec	add    	byte ptr [eax], al
  0x31ee	add    	byte ptr [eax], al
  0x31f0	add    	byte ptr [eax], al
  0x31f2	add    	byte ptr [eax], al
  0x31f4	add    	byte ptr [eax], al
  === BLOCK LINK ===
    0x31f6
=== CODE BLOCK END ===

=== CODE BLOCK ADDRESS 0x31f6 ===
  0x31f6	add    	byte ptr [eax], al
  0x31f8	add    	byte ptr [eax], al
  0x31fa	add    	byte ptr [eax], al
  0x31fc	add    	byte ptr [eax], al
=== CODE BLOCK END ===

=== DATA BLOCK ADDRESS 0x4000 ===
  0x4000	50 60 00 40 01 00 00 00 f0 60 00 40 01 00 00 00 	P`0@00000`0@0000
  0x4010	18 01 00 00 00 00 00 00 00 00 00 00 00 00 00 00 	0000000000000000
  0x4020	00 00 00 00 00 00 00 00 00 00 00 00 00 00 00 00 	0000000000000000
  0x4030	00 00 00 00 00 00 00 00 00 00 00 00 00 00 00 00 	0000000000000000
  0x4040	00 00 00 00 00 00 00 00 00 00 00 00 00 00 00 00 	0000000000000000
  0x4050	00 00 00 00 00 00 00 00 00 00 00 00 00 00 00 00 	0000000000000000
  0x4060	00 00 00 00 00 00 00 00 08 60 00 40 01 00 00 00 	000000000`0@0000
  0x4070	00 00 00 00 00 00 00 00 00 00 00 00 00 00 00 00 	0000000000000000
  0x4080	b0 43 00 40 01 00 00 00 b8 43 00 40 01 00 00 00 	0C0@00000C0@0000
  0x4090	f8 43 00 40 01 00 00 00 08 00 00 00 00 00 00 00 	0C0@000000000000
  0x40a0	00 75 01 00 00 00 00 00 00 00 00 00 00 00 00 00 	0u00000000000000
  0x40b0	00 00 00 00 00 00 00 00 00 00 00 00 00 00 00 00 	0000000000000000
  0x40c0	00 00 00 00 00 00 00 00 00 00 00 00 00 00 00 00 	0000000000000000
  0x40d0	00 00 00 00 00 00 00 00 00 00 00 00 00 00 00 00 	0000000000000000
  0x40e0	00 00 00 00 00 00 00 00 00 00 00 00 00 00 00 00 	0000000000000000
  0x40f0	00 00 00 00 00 00 00 00 00 00 00 00 00 00 00 00 	0000000000000000
  0x4100	00 00 00 00 00 00 00 00 00 00 00 00 00 00 00 00 	0000000000000000
  0x4110	00 00 00 00 00 00 00 00 00 00 00 00 00 00 00 00 	0000000000000000
  0x4120	00 00 00 00 00 00 00 00 d8 4f 00 00 00 00 00 00 	000000000O000000
  0x4130	38 4f 00 00 00 00 00 00 00 00 00 00 00 00 00 00 	8O00000000000000
  0x4140	48 4e 00 00 00 00 00 00 e8 4e 00 00 00 00 00 00 	HN0000000N000000
  0x4150	5c 4f 00 00 00 00 00 00 de 50 00 00 00 00 00 00 	0O0000000P000000
  0x4160	c2 50 00 00 00 00 00 00 00 00 00 00 00 00 00 00 	0P00000000000000
  0x4170	34 4e 00 00 00 00 00 00 f4 4f 00 00 00 00 00 00 	4N0000000O000000
  0x4180	84 4e 00 00 00 00 00 00 04 4e 00 00 00 00 00 00 	0N0000000N000000
  0x4190	88 4f 00 00 00 00 00 00 40 50 00 00 00 00 00 00 	0O000000@P000000
  0x41a0	be 4e 00 00 00 00 00 00 5a 50 00 00 00 00 00 00 	0N000000ZP000000
  0x41b0	06 4f 00 00 00 00 00 00 00 00 00 00 00 00 00 00 	0O00000000000000
  0x41c0	1c 50 00 00 00 00 00 00 14 4f 00 00 00 00 00 00 	0P0000000O000000
  0x41d0	00 00 00 00 00 00 00 00 9c 4f 00 00 00 00 00 00 	000000000O000000
  0x41e0	00 00 00 00 00 00 00 00 aa 4f 00 00 00 00 00 00 	000000000O000000
  0x41f0	00 00 00 00 00 00 00 00 f8 4e 00 00 00 00 00 00 	000000000N000000
  0x4200	e8 4f 00 00 00 00 00 00 00 00 00 00 00 00 00 00 	0O00000000000000
  0x4210	ac 4e 00 00 00 00 00 00 00 00 00 00 00 00 00 00 	0N00000000000000
  0x4220	c0 4f 00 00 00 00 00 00 16 4e 00 00 00 00 00 00 	0O0000000N000000
  0x4230	58 4e 00 00 00 00 00 00 6c 4f 00 00 00 00 00 00 	XN000000lO000000
  0x4240	00 00 00 00 00 00 00 00 24 51 00 00 00 00 00 00 	00000000$Q000000
  0x4250	00 00 00 00 00 00 00 00 4a 4f 00 00 00 00 00 00 	00000000JO000000
  0x4260	d2 4e 00 00 00 00 00 00 00 00 00 00 00 00 00 00 	0N00000000000000
  0x4270	74 4e 00 00 00 00 00 00 00 00 00 00 00 00 00 00 	tN00000000000000
  0x4280	68 51 00 00 00 00 00 00 10 51 00 00 00 00 00 00 	hQ0000000Q000000
  0x4290	fc 50 00 00 00 00 00 00 52 51 00 00 00 00 00 00 	0P000000RQ000000
  0x42a0	00 00 00 00 00 00 00 00 38 51 00 00 00 00 00 00 	000000008Q000000
  0x42b0	00 00 00 00 00 00 00 00 80 50 00 00 00 00 00 00 	000000000P000000
  0x42c0	94 50 00 00 00 00 00 00 ae 50 00 00 00 00 00 00 	0P0000000P000000
  0x42d0	00 00 00 00 00 00 00 00 06 50 00 00 00 00 00 00 	000000000P000000
  0x42e0	00 00 00 00 00 00 00 00 6c 50 00 00 00 00 00 00 	00000000lP000000
  0x42f0	00 00 00 00 00 00 00 00 78 50 00 00 00 00 00 00 	00000000xP000000
  0x4300	00 00 00 00 00 00 00 00 98 51 00 00 00 00 00 00 	000000000Q000000
  0x4310	7e 51 00 00 00 00 00 00 00 00 00 00 00 00 00 00 	~Q00000000000000
  0x4320	d8 4d 00 00 00 00 00 00 aa 4d 00 00 00 00 00 00 	0M0000000M000000
  0x4330	f0 4d 00 00 00 00 00 00 ce 4d 00 00 00 00 00 00 	0M0000000M000000
  0x4340	30 4d 00 00 00 00 00 00 5a 4d 00 00 00 00 00 00 	0M000000ZM000000
  0x4350	4c 4d 00 00 00 00 00 00 3e 4d 00 00 00 00 00 00 	LM000000>M000000
  0x4360	b6 4d 00 00 00 00 00 00 84 4d 00 00 00 00 00 00 	0M0000000M000000
  0x4370	6a 4d 00 00 00 00 00 00 8c 4d 00 00 00 00 00 00 	jM0000000M000000
  0x4380	7c 4d 00 00 00 00 00 00 96 4d 00 00 00 00 00 00 	|M0000000M000000
  0x4390	74 54 00 00 00 00 00 00 00 00 00 00 00 00 00 00 	tT00000000000000
  0x43a0	90 4e 00 00 00 00 00 00 00 00 00 00 00 00 00 00 	0N00000000000000
  0x43b0	b0 2e 00 40 01 00 00 00 70 2f 00 40 01 00 00 00 	0.0@0000p/0@0000
  0x43c0	00 00 00 00 00 00 00 00 70 26 00 40 01 00 00 00 	00000000p&0@0000
  0x43d0	00 00 00 00 00 00 00 00 00 00 00 00 00 00 00 00 	0000000000000000
  0x43e0	90 25 00 40 01 00 00 00 e0 2b 00 40 01 00 00 00 	0%0@00000+0@0000
  0x43f0	00 00 00 00 00 00 00 00 90 25 00 00 70 26 00 00 	000000000%00p&00
  0x4400	90 28 00 00 20 29 00 00 a0 2b 00 00 e0 2b 00 00 	0(00 )000+000+00
  0x4410	c0 2c 00 00 b0 2e 00 00 00 00 00 00 00 00 00 00 	0,000.0000000000
  0x4420	5c 00 00 00 5f 00 00 00 5c 00 5c 00 2e 00 5c 00 	0000_0000000.000
  0x4430	4d 00 6f 00 75 00 6e 00 74 00 50 00 6f 00 69 00 	M0o0u0n0t0P0o0i0
  0x4440	6e 00 74 00 4d 00 61 00 6e 00 61 00 67 00 65 00 	n0t0M0a0n0a0g0e0
  0x4450	72 00 00 00 00 00 00 00 25 00 68 00 73 00 00 00 	r0000000%0h0s000
  0x4460	00 00 00 00 68 15 36 3b 00 00 00 00 02 00 00 00 	0000h06;00000000
  0x4470	25 00 00 00 b4 44 00 00 b4 2a 00 00 00 00 00 00 	%0000D000*000000
  0x4480	68 15 36 3b 00 00 00 00 0d 00 00 00 f0 01 00 00 	h06;000000000000
  0x4490	dc 44 00 00 dc 2a 00 00 00 00 00 00 68 15 36 3b 	0D000*000000h06;
  0x44a0	00 00 00 00 10 00 00 00 24 00 00 00 cc 46 00 00 	00000000$0000F00
  0x44b0	cc 2c 00 00 52 53 44 53 6a 3e ad fb 6f 0f 34 a7 	0,00RSDSj>00o040
  0x44c0	6b 3b cd 28 51 f0 cd aa 01 00 00 00 6d 6f 75 6e 	k;0(Q0000000moun
  0x44d0	74 76 6f 6c 2e 70 64 62 00 00 00 00 47 43 54 4c 	tvol.pdb0000GCTL
  0x44e0	00 10 00 00 60 1f 00 00 2e 74 65 78 74 24 6d 6e 	0000`000.text$mn
  0x44f0	00 00 00 00 60 2f 00 00 80 00 00 00 2e 74 65 78 	0000`/000000.tex
  0x4500	74 24 6d 6e 24 30 30 00 e0 2f 00 00 50 00 00 00 	t$mn$0000/00P000
  0x4510	2e 74 65 78 74 24 78 00 00 40 00 00 28 01 00 00 	.text$x00@00(000
  0x4520	2e 72 64 61 74 61 24 62 72 63 00 00 28 41 00 00 	.rdata$brc00(A00
  0x4530	88 02 00 00 2e 69 64 61 74 61 24 35 00 00 00 00 	0000.idata$50000
  0x4540	b0 43 00 00 10 00 00 00 2e 30 30 63 66 67 00 00 	0C000000.00cfg00
  0x4550	c0 43 00 00 08 00 00 00 2e 43 52 54 24 58 43 41 	0C000000.CRT$XCA
  0x4560	00 00 00 00 c8 43 00 00 08 00 00 00 2e 43 52 54 	00000C000000.CRT
  0x4570	24 58 43 41 41 00 00 00 d0 43 00 00 08 00 00 00 	$XCAA0000C000000
  0x4580	2e 43 52 54 24 58 43 5a 00 00 00 00 d8 43 00 00 	.CRT$XCZ00000C00
  0x4590	08 00 00 00 2e 43 52 54 24 58 49 41 00 00 00 00 	0000.CRT$XIA0000
  0x45a0	e0 43 00 00 08 00 00 00 2e 43 52 54 24 58 49 41 	0C000000.CRT$XIA
  0x45b0	41 00 00 00 e8 43 00 00 08 00 00 00 2e 43 52 54 	A0000C000000.CRT
  0x45c0	24 58 49 59 00 00 00 00 f0 43 00 00 08 00 00 00 	$XIY00000C000000
  0x45d0	2e 43 52 54 24 58 49 5a 00 00 00 00 f8 43 00 00 	.CRT$XIZ00000C00
  0x45e0	28 00 00 00 2e 67 66 69 64 73 00 00 20 44 00 00 	(000.gfids00 D00
  0x45f0	94 00 00 00 2e 72 64 61 74 61 00 00 b4 44 00 00 	0000.rdata000D00
  0x4600	3c 02 00 00 2e 72 64 61 74 61 24 7a 7a 7a 64 62 	<000.rdata$zzzdb
  0x4610	67 00 00 00 f0 46 00 00 fc 01 00 00 2e 78 64 61 	g0000F000000.xda
  0x4620	74 61 00 00 ec 48 00 00 a4 01 00 00 2e 69 64 61 	ta000H000000.ida
  0x4630	74 61 24 32 00 00 00 00 90 4a 00 00 18 00 00 00 	ta$200000J000000
  0x4640	2e 69 64 61 74 61 24 33 00 00 00 00 a8 4a 00 00 	.idata$300000J00
  0x4650	88 02 00 00 2e 69 64 61 74 61 24 34 00 00 00 00 	0000.idata$40000
  0x4660	30 4d 00 00 4e 07 00 00 2e 69 64 61 74 61 24 36 	0M00N000.idata$6
  0x4670	00 00 00 00 00 60 00 00 20 00 00 00 2e 64 61 74 	00000`00 000.dat
  0x4680	61 00 00 00 20 60 00 00 68 06 00 00 2e 62 73 73 	a000 `00h000.bss
  0x4690	00 00 00 00 00 70 00 00 8c 01 00 00 2e 70 64 61 	00000p000000.pda
  0x46a0	74 61 00 00 00 80 00 00 f0 00 00 00 2e 72 73 72 	ta0000000000.rsr
  0x46b0	63 24 30 31 00 00 00 00 f0 80 00 00 08 07 00 00 	c$01000000000000
  0x46c0	2e 72 73 72 63 24 30 32 00 00 00 00 20 00 00 00 	.rsrc$020000 000
  0x46d0	6a 3e ad fb 6f 0f 34 a7 6b 3b cd 28 51 f0 cd aa 	j>00o040k;0(Q000
  0x46e0	59 7d 74 b8 de e7 e4 c7 c7 1d 40 8f 68 15 36 3b 	Y}t0000000@0h06;
  0x46f0	01 12 05 00 12 42 0e 70 0d 60 0c 50 0b 30 00 00 	00000B0p0`0P0000
  0x4700	01 12 08 00 12 54 0e 00 12 34 0c 00 12 72 0e e0 	00000T0004000r00
  0x4710	0c 70 0b 60 19 31 02 00 1f 01 0d 04 c8 2e 00 00 	0p0`010000000.00
  0x4720	50 20 00 00 19 19 02 00 07 01 0b 01 c8 2e 00 00 	P 00000000000.00
  0x4730	40 08 00 00 19 15 02 00 06 92 02 30 c8 2e 00 00 	@000000000000.00
  0x4740	40 00 00 00 01 12 08 00 12 54 0e 00 12 34 0c 00 	@00000000T000400
  0x4750	12 72 0e f0 0c 70 0b 60 01 14 08 00 14 64 09 00 	0r000p0`00000d00
  0x4760	14 54 08 00 14 34 06 00 14 32 10 70 01 10 06 00 	0T000400020p0000
  0x4770	10 64 0d 00 10 34 0a 00 10 72 0c 70 19 24 07 00 	0d0004000r0p0$00
  0x4780	12 64 90 00 12 34 8f 00 12 01 8c 00 0b 70 00 00 	0d00040000000p00
  0x4790	c8 2e 00 00 50 04 00 00 19 33 0b 00 22 74 54 00 	0.00P0000300"tT0
  0x47a0	22 64 53 00 22 34 52 00 22 01 4e 00 14 f0 12 e0 	"dS0"4R0"0N00000
  0x47b0	10 50 00 00 c8 2e 00 00 60 02 00 00 19 3d 0d 00 	0P000.00`0000=00
  0x47c0	2c 74 20 02 2c 64 1f 02 2c 34 1e 02 2c 01 18 02 	,t 0,d00,400,000
  0x47d0	18 f0 16 e0 14 d0 12 c0 10 50 00 00 c8 2e 00 00 	000000000P000.00
  0x47e0	b0 10 00 00 01 0c 06 00 0c 34 10 00 0c 92 08 70 	000000000400000p
  0x47f0	07 60 06 50 19 37 0d 00 26 74 19 01 26 64 18 01 	0`0P0700&t00&d00
  0x4800	26 34 16 01 26 01 10 01 18 f0 16 e0 14 d0 12 c0 	&400&00000000000
  0x4810	10 50 00 00 c8 2e 00 00 70 08 00 00 01 04 01 00 	0P000.00p0000000
  0x4820	04 42 00 00 01 04 01 00 04 62 00 00 09 15 08 00 	0B0000000b000000
  0x4830	15 74 0a 00 15 64 09 00 15 34 08 00 15 52 11 f0 	0t000d0004000R00
  0x4840	9a 2e 00 00 01 00 00 00 d5 26 00 00 3b 28 00 00 	0.0000000&00;(00
  0x4850	e3 2f 00 00 3b 28 00 00 01 06 02 00 06 32 02 50 	0/00;(000000020P
  0x4860	01 00 00 00 01 04 01 00 04 e2 00 00 01 06 02 00 	0000000000000000
  0x4870	06 32 02 30 01 0c 02 00 0c 01 11 00 09 04 01 00 	0200000000000000
  0x4880	04 22 00 00 9a 2e 00 00 01 00 00 00 1c 2c 00 00 	0"000.0000000,00
  0x4890	52 2c 00 00 01 00 00 00 52 2c 00 00 09 0a 04 00 	R,000000R,000000
  0x48a0	0a 34 06 00 0a 32 06 70 9a 2e 00 00 01 00 00 00 	0400020p0.000000
  0x48b0	2d 2d 00 00 60 2d 00 00 10 30 00 00 60 2d 00 00 	--00`-000000`-00
  0x48c0	01 0d 04 00 0d 34 09 00 0d 32 06 50 00 00 00 00 	00000400020P0000
  0x48d0	01 00 00 00 01 02 01 00 02 30 00 00 00 00 00 00 	0000000000000000
  0x48e0	02 04 03 00 01 16 00 06 04 12 00 00 a0 4c 00 00 	0000000000000L00
  0x48f0	00 00 00 00 00 00 00 00 e4 4d 00 00 20 43 00 00 	000000000M00 C00
  0x4900	f0 4a 00 00 00 00 00 00 00 00 00 00 a8 51 00 00 	0J00000000000Q00
  0x4910	70 41 00 00 a0 4b 00 00 00 00 00 00 00 00 00 00 	pA000K0000000000
  0x4920	c8 51 00 00 20 42 00 00 c0 4a 00 00 00 00 00 00 	0Q00 B000J000000
  0x4930	00 00 00 00 f4 51 00 00 40 41 00 00 f0 4b 00 00 	00000Q00@A000K00
  0x4940	00 00 00 00 00 00 00 00 1e 52 00 00 70 42 00 00 	000000000R00pB00
  0x4950	20 4d 00 00 00 00 00 00 00 00 00 00 4c 52 00 00 	 M0000000000LR00
  0x4960	a0 43 00 00 90 4b 00 00 00 00 00 00 00 00 00 00 	0C000K0000000000
  0x4970	56 52 00 00 10 42 00 00 d8 4b 00 00 00 00 00 00 	VR000B000K000000
  0x4980	00 00 00 00 74 52 00 00 58 42 00 00 78 4b 00 00 	0000tR00XB00xK00
  0x4990	00 00 00 00 00 00 00 00 9c 52 00 00 f8 41 00 00 	000000000R000A00
  0x49a0	40 4b 00 00 00 00 00 00 00 00 00 00 bc 52 00 00 	@K00000000000R00
  0x49b0	c0 41 00 00 a8 4a 00 00 00 00 00 00 00 00 00 00 	0A000J0000000000
  0x49c0	dc 52 00 00 28 41 00 00 58 4b 00 00 00 00 00 00 	0R00(A00XK000000
  0x49d0	00 00 00 00 00 53 00 00 d8 41 00 00 68 4b 00 00 	00000S000A00hK00
  0x49e0	00 00 00 00 00 00 00 00 22 53 00 00 e8 41 00 00 	00000000"S000A00
  0x49f0	58 4c 00 00 00 00 00 00 00 00 00 00 42 53 00 00 	XL0000000000BS00
  0x4a00	d8 42 00 00 68 4c 00 00 00 00 00 00 00 00 00 00 	0B00hL0000000000
  0x4a10	64 53 00 00 e8 42 00 00 78 4c 00 00 00 00 00 00 	dS000B00xL000000
  0x4a20	00 00 00 00 90 53 00 00 f8 42 00 00 38 4c 00 00 	00000S000B008L00
  0x4a30	00 00 00 00 00 00 00 00 b2 53 00 00 b8 42 00 00 	000000000S000B00
  0x4a40	00 4c 00 00 00 00 00 00 00 00 00 00 d8 53 00 00 	0L00000000000S00
  0x4a50	80 42 00 00 c8 4b 00 00 00 00 00 00 00 00 00 00 	0B000K0000000000
  0x4a60	02 54 00 00 48 42 00 00 28 4c 00 00 00 00 00 00 	0T00HB00(L000000
  0x4a70	00 00 00 00 2c 54 00 00 a8 42 00 00 88 4c 00 00 	0000,T000B000L00
  0x4a80	00 00 00 00 00 00 00 00 50 54 00 00 08 43 00 00 	00000000PT000C00
  0x4a90	00 00 00 00 00 00 00 00 00 00 00 00 00 00 00 00 	0000000000000000
  0x4aa0	00 00 00 00 00 00 00 00 d8 4f 00 00 00 00 00 00 	000000000O000000
  0x4ab0	38 4f 00 00 00 00 00 00 00 00 00 00 00 00 00 00 	8O00000000000000
  0x4ac0	48 4e 00 00 00 00 00 00 e8 4e 00 00 00 00 00 00 	HN0000000N000000
  0x4ad0	5c 4f 00 00 00 00 00 00 de 50 00 00 00 00 00 00 	0O0000000P000000
  0x4ae0	c2 50 00 00 00 00 00 00 00 00 00 00 00 00 00 00 	0P00000000000000
  0x4af0	34 4e 00 00 00 00 00 00 f4 4f 00 00 00 00 00 00 	4N0000000O000000
  0x4b00	84 4e 00 00 00 00 00 00 04 4e 00 00 00 00 00 00 	0N0000000N000000
  0x4b10	88 4f 00 00 00 00 00 00 40 50 00 00 00 00 00 00 	0O000000@P000000
  0x4b20	be 4e 00 00 00 00 00 00 5a 50 00 00 00 00 00 00 	0N000000ZP000000
  0x4b30	06 4f 00 00 00 00 00 00 00 00 00 00 00 00 00 00 	0O00000000000000
  0x4b40	1c 50 00 00 00 00 00 00 14 4f 00 00 00 00 00 00 	0P0000000O000000
  0x4b50	00 00 00 00 00 00 00 00 9c 4f 00 00 00 00 00 00 	000000000O000000
  0x4b60	00 00 00 00 00 00 00 00 aa 4f 00 00 00 00 00 00 	000000000O000000
  0x4b70	00 00 00 00 00 00 00 00 f8 4e 00 00 00 00 00 00 	000000000N000000
  0x4b80	e8 4f 00 00 00 00 00 00 00 00 00 00 00 00 00 00 	0O00000000000000
  0x4b90	ac 4e 00 00 00 00 00 00 00 00 00 00 00 00 00 00 	0N00000000000000
  0x4ba0	c0 4f 00 00 00 00 00 00 16 4e 00 00 00 00 00 00 	0O0000000N000000
  0x4bb0	58 4e 00 00 00 00 00 00 6c 4f 00 00 00 00 00 00 	XN000000lO000000
  0x4bc0	00 00 00 00 00 00 00 00 24 51 00 00 00 00 00 00 	00000000$Q000000
  0x4bd0	00 00 00 00 00 00 00 00 4a 4f 00 00 00 00 00 00 	00000000JO000000
  0x4be0	d2 4e 00 00 00 00 00 00 00 00 00 00 00 00 00 00 	0N00000000000000
  0x4bf0	74 4e 00 00 00 00 00 00 00 00 00 00 00 00 00 00 	tN00000000000000
  0x4c00	68 51 00 00 00 00 00 00 10 51 00 00 00 00 00 00 	hQ0000000Q000000
  0x4c10	fc 50 00 00 00 00 00 00 52 51 00 00 00 00 00 00 	0P000000RQ000000
  0x4c20	00 00 00 00 00 00 00 00 38 51 00 00 00 00 00 00 	000000008Q000000
  0x4c30	00 00 00 00 00 00 00 00 80 50 00 00 00 00 00 00 	000000000P000000
  0x4c40	94 50 00 00 00 00 00 00 ae 50 00 00 00 00 00 00 	0P0000000P000000
  0x4c50	00 00 00 00 00 00 00 00 06 50 00 00 00 00 00 00 	000000000P000000
  0x4c60	00 00 00 00 00 00 00 00 6c 50 00 00 00 00 00 00 	00000000lP000000
  0x4c70	00 00 00 00 00 00 00 00 78 50 00 00 00 00 00 00 	00000000xP000000
  0x4c80	00 00 00 00 00 00 00 00 98 51 00 00 00 00 00 00 	000000000Q000000
  0x4c90	7e 51 00 00 00 00 00 00 00 00 00 00 00 00 00 00 	~Q00000000000000
  0x4ca0	d8 4d 00 00 00 00 00 00 aa 4d 00 00 00 00 00 00 	0M0000000M000000
  0x4cb0	f0 4d 00 00 00 00 00 00 ce 4d 00 00 00 00 00 00 	0M0000000M000000
  0x4cc0	30 4d 00 00 00 00 00 00 5a 4d 00 00 00 00 00 00 	0M000000ZM000000
  0x4cd0	4c 4d 00 00 00 00 00 00 3e 4d 00 00 00 00 00 00 	LM000000>M000000
  0x4ce0	b6 4d 00 00 00 00 00 00 84 4d 00 00 00 00 00 00 	0M0000000M000000
  0x4cf0	6a 4d 00 00 00 00 00 00 8c 4d 00 00 00 00 00 00 	jM0000000M000000
  0x4d00	7c 4d 00 00 00 00 00 00 96 4d 00 00 00 00 00 00 	|M0000000M000000
  0x4d10	74 54 00 00 00 00 00 00 00 00 00 00 00 00 00 00 	tT00000000000000
  0x4d20	90 4e 00 00 00 00 00 00 00 00 00 00 00 00 00 00 	0N00000000000000
  0x4d30	69 03 5f 76 73 6e 77 70 72 69 6e 74 66 00 55 00 	i0_vsnwprintf0U0
  0x4d40	5f 58 63 70 74 46 69 6c 74 65 72 00 ae 00 5f 61 	_XcptFilter000_a
  0x4d50	6d 73 67 5f 65 78 69 74 00 00 7f 00 5f 5f 67 65 	msg_exit0000__ge
  0x4d60	74 6d 61 69 6e 61 72 67 73 00 8e 00 5f 5f 73 65 	tmainargs000__se
  0x4d70	74 5f 61 70 70 5f 74 79 70 65 00 00 32 04 65 78 	t_app_type0020ex
  0x4d80	69 74 00 00 0e 01 5f 65 78 69 74 00 c1 00 5f 63 	it0000_exit000_c
  0x4d90	65 78 69 74 00 00 90 00 5f 5f 73 65 74 75 73 65 	exit0000__setuse
  0x4da0	72 6d 61 74 68 65 72 72 00 00 7d 01 5f 69 6e 69 	rmatherr00}0_ini
  0x4db0	74 74 65 72 6d 00 57 00 5f 5f 43 5f 73 70 65 63 	tterm0W0__C_spec
  0x4dc0	69 66 69 63 5f 68 61 6e 64 6c 65 72 00 00 27 01 	ific_handler00'0
  0x4dd0	5f 66 6d 6f 64 65 00 00 d2 00 5f 63 6f 6d 6d 6f 	_fmode0000_commo
  0x4de0	64 65 00 00 6d 73 76 63 72 74 2e 64 6c 6c 00 00 	de00msvcrt.dll00
  0x4df0	2f 00 3f 74 65 72 6d 69 6e 61 74 65 40 40 59 41 	/0?terminate@@YA
  0x4e00	58 58 5a 00 48 00 51 75 65 72 79 44 6f 73 44 65 	XXZ0H0QueryDosDe
  0x4e10	76 69 63 65 57 00 18 00 46 69 6e 64 46 69 72 73 	viceW000FindFirs
  0x4e20	74 56 6f 6c 75 6d 65 4d 6f 75 6e 74 50 6f 69 6e 	tVolumeMountPoin
  0x4e30	74 57 00 00 16 00 46 69 6e 64 46 69 72 73 74 56 	tW0000FindFirstV
  0x4e40	6f 6c 75 6d 65 57 00 00 0d 00 53 65 74 4c 61 73 	olumeW0000SetLas
  0x4e50	74 45 72 72 6f 72 00 00 1d 00 46 69 6e 64 56 6f 	tError0000FindVo
  0x4e60	6c 75 6d 65 4d 6f 75 6e 74 50 6f 69 6e 74 43 6c 	lumeMountPointCl
  0x4e70	6f 73 65 00 0c 00 47 65 74 53 74 64 48 61 6e 64 	ose000GetStdHand
  0x4e80	6c 65 00 00 5b 00 57 72 69 74 65 46 69 6c 65 00 	le00[0WriteFile0
  0x4e90	f8 01 4e 74 51 75 65 72 79 53 79 73 74 65 6d 49 	00NtQuerySystemI
  0x4ea0	6e 66 6f 72 6d 61 74 69 6f 6e 00 00 04 00 44 65 	nformation0000De
  0x4eb0	76 69 63 65 49 6f 43 6f 6e 74 72 6f 6c 00 4d 00 	viceIoControl0M0
  0x4ec0	52 65 6d 6f 76 65 44 69 72 65 63 74 6f 72 79 57 	RemoveDirectoryW
  0x4ed0	00 00 3f 00 53 65 74 54 68 72 65 61 64 55 49 4c 	00?0SetThreadUIL
  0x4ee0	61 6e 67 75 61 67 65 00 0c 00 53 65 74 45 72 72 	anguage000SetErr
  0x4ef0	6f 72 4d 6f 64 65 00 00 08 00 4c 6f 63 61 6c 41 	orMode0000LocalA
  0x4f00	6c 6c 6f 63 00 00 06 00 43 72 65 61 74 65 46 69 	lloc0000CreateFi
  0x4f10	6c 65 57 00 42 00 47 65 74 56 6f 6c 75 6d 65 4e 	leW0B0GetVolumeN
  0x4f20	61 6d 65 46 6f 72 56 6f 6c 75 6d 65 4d 6f 75 6e 	ameForVolumeMoun
  0x4f30	74 50 6f 69 6e 74 57 00 06 00 47 65 74 43 6f 6e 	tPointW000GetCon
  0x4f40	73 6f 6c 65 4d 6f 64 65 00 00 09 00 46 6f 72 6d 	soleMode0000Form
  0x4f50	61 74 4d 65 73 73 61 67 65 57 00 00 05 00 47 65 	atMessageW0000Ge
  0x4f60	74 4c 61 73 74 45 72 72 6f 72 00 00 19 00 46 69 	tLastError0000Fi
  0x4f70	6e 64 4e 65 78 74 56 6f 6c 75 6d 65 4d 6f 75 6e 	ndNextVolumeMoun
  0x4f80	74 50 6f 69 6e 74 57 00 07 00 44 65 66 69 6e 65 	tPointW000Define
  0x4f90	44 6f 73 44 65 76 69 63 65 57 00 00 00 00 43 6c 	DosDeviceW0000Cl
  0x4fa0	6f 73 65 48 61 6e 64 6c 65 00 0a 00 48 65 61 70 	oseHandle000Heap
  0x4fb0	53 65 74 49 6e 66 6f 72 6d 61 74 69 6f 6e 00 00 	SetInformation00
  0x4fc0	5c 00 53 65 74 56 6f 6c 75 6d 65 4d 6f 75 6e 74 	00SetVolumeMount
  0x4fd0	50 6f 69 6e 74 57 00 00 13 00 57 72 69 74 65 43 	PointW0000WriteC
  0x4fe0	6f 6e 73 6f 6c 65 57 00 0a 00 4c 6f 63 61 6c 46 	onsoleW000LocalF
  0x4ff0	72 65 65 00 1d 00 46 69 6e 64 56 6f 6c 75 6d 65 	ree000FindVolume
  0x5000	43 6c 6f 73 65 00 07 00 57 69 64 65 43 68 61 72 	Close000WideChar
  0x5010	54 6f 4d 75 6c 74 69 42 79 74 65 00 44 00 47 65 	ToMultiByte0D0Ge
  0x5020	74 56 6f 6c 75 6d 65 50 61 74 68 4e 61 6d 65 73 	tVolumePathNames
  0x5030	46 6f 72 56 6f 6c 75 6d 65 4e 61 6d 65 57 00 00 	ForVolumeNameW00
  0x5040	0a 00 44 65 6c 65 74 65 56 6f 6c 75 6d 65 4d 6f 	00DeleteVolumeMo
  0x5050	75 6e 74 50 6f 69 6e 74 57 00 1c 00 46 69 6e 64 	untPointW000Find
  0x5060	4e 65 78 74 56 6f 6c 75 6d 65 57 00 03 00 6c 73 	NextVolumeW000ls
  0x5070	74 72 63 6d 70 57 00 00 2d 00 53 6c 65 65 70 00 	trcmpW00-0Sleep0
  0x5080	f2 02 52 74 6c 43 61 70 74 75 72 65 43 6f 6e 74 	00RtlCaptureCont
  0x5090	65 78 74 00 e8 04 52 74 6c 4c 6f 6f 6b 75 70 46 	ext000RtlLookupF
  0x50a0	75 6e 63 74 69 6f 6e 45 6e 74 72 79 00 00 27 06 	unctionEntry00'0
  0x50b0	52 74 6c 56 69 72 74 75 61 6c 55 6e 77 69 6e 64 	RtlVirtualUnwind
  0x50c0	00 00 11 00 55 6e 68 61 6e 64 6c 65 64 45 78 63 	0000UnhandledExc
  0x50d0	65 70 74 69 6f 6e 46 69 6c 74 65 72 00 00 0f 00 	eptionFilter0000
  0x50e0	53 65 74 55 6e 68 61 6e 64 6c 65 64 45 78 63 65 	SetUnhandledExce
  0x50f0	70 74 69 6f 6e 46 69 6c 74 65 72 00 0c 00 47 65 	ptionFilter000Ge
  0x5100	74 43 75 72 72 65 6e 74 50 72 6f 63 65 73 73 00 	tCurrentProcess0
  0x5110	4e 00 54 65 72 6d 69 6e 61 74 65 50 72 6f 63 65 	N0TerminateProce
  0x5120	73 73 00 00 14 00 47 65 74 4d 6f 64 75 6c 65 48 	ss0000GetModuleH
  0x5130	61 6e 64 6c 65 57 00 00 00 00 51 75 65 72 79 50 	andleW0000QueryP
  0x5140	65 72 66 6f 72 6d 61 6e 63 65 43 6f 75 6e 74 65 	erformanceCounte
  0x5150	72 00 0d 00 47 65 74 43 75 72 72 65 6e 74 50 72 	r000GetCurrentPr
  0x5160	6f 63 65 73 73 49 64 00 11 00 47 65 74 43 75 72 	ocessId000GetCur
  0x5170	72 65 6e 74 54 68 72 65 61 64 49 64 00 00 16 00 	rentThreadId0000
  0x5180	47 65 74 53 79 73 74 65 6d 54 69 6d 65 41 73 46 	GetSystemTimeAsF
  0x5190	69 6c 65 54 69 6d 65 00 1a 00 47 65 74 54 69 63 	ileTime000GetTic
  0x51a0	6b 43 6f 75 6e 74 00 00 61 70 69 2d 6d 73 2d 77 	kCount00api-ms-w
  0x51b0	69 6e 2d 63 6f 72 65 2d 66 69 6c 65 2d 6c 31 2d 	in-core-file-l1-
  0x51c0	31 2d 30 2e 64 6c 6c 00 61 70 69 2d 6d 73 2d 77 	1-0.dll0api-ms-w
  0x51d0	69 6e 2d 63 6f 72 65 2d 6b 65 72 6e 65 6c 33 32 	in-core-kernel32
  0x51e0	2d 6c 65 67 61 63 79 2d 6c 31 2d 31 2d 31 2e 64 	-legacy-l1-1-1.d
  0x51f0	6c 6c 00 00 61 70 69 2d 6d 73 2d 77 69 6e 2d 63 	ll00api-ms-win-c
  0x5200	6f 72 65 2d 65 72 72 6f 72 68 61 6e 64 6c 69 6e 	ore-errorhandlin
  0x5210	67 2d 6c 31 2d 31 2d 30 2e 64 6c 6c 00 00 61 70 	g-l1-1-0.dll00ap
  0x5220	69 2d 6d 73 2d 77 69 6e 2d 63 6f 72 65 2d 70 72 	i-ms-win-core-pr
  0x5230	6f 63 65 73 73 65 6e 76 69 72 6f 6e 6d 65 6e 74 	ocessenvironment
  0x5240	2d 6c 31 2d 31 2d 30 2e 64 6c 6c 00 6e 74 64 6c 	-l1-1-0.dll0ntdl
  0x5250	6c 2e 64 6c 6c 00 61 70 69 2d 6d 73 2d 77 69 6e 	l.dll0api-ms-win
  0x5260	2d 63 6f 72 65 2d 69 6f 2d 6c 31 2d 31 2d 30 2e 	-core-io-l1-1-0.
  0x5270	64 6c 6c 00 61 70 69 2d 6d 73 2d 77 69 6e 2d 63 	dll0api-ms-win-c
  0x5280	6f 72 65 2d 6c 6f 63 61 6c 69 7a 61 74 69 6f 6e 	ore-localization
  0x5290	2d 6c 31 2d 32 2d 30 2e 64 6c 6c 00 61 70 69 2d 	-l1-2-0.dll0api-
  0x52a0	6d 73 2d 77 69 6e 2d 63 6f 72 65 2d 68 65 61 70 	ms-win-core-heap
  0x52b0	2d 6c 32 2d 31 2d 30 2e 64 6c 6c 00 61 70 69 2d 	-l2-1-0.dll0api-
  0x52c0	6d 73 2d 77 69 6e 2d 63 6f 72 65 2d 66 69 6c 65 	ms-win-core-file
  0x52d0	2d 6c 31 2d 32 2d 30 2e 64 6c 6c 00 61 70 69 2d 	-l1-2-0.dll0api-
  0x52e0	6d 73 2d 77 69 6e 2d 63 6f 72 65 2d 63 6f 6e 73 	ms-win-core-cons
  0x52f0	6f 6c 65 2d 6c 31 2d 31 2d 30 2e 64 6c 6c 00 00 	ole-l1-1-0.dll00
  0x5300	61 70 69 2d 6d 73 2d 77 69 6e 2d 63 6f 72 65 2d 	api-ms-win-core-
  0x5310	68 61 6e 64 6c 65 2d 6c 31 2d 31 2d 30 2e 64 6c 	handle-l1-1-0.dl
  0x5320	6c 00 61 70 69 2d 6d 73 2d 77 69 6e 2d 63 6f 72 	l0api-ms-win-cor
  0x5330	65 2d 68 65 61 70 2d 6c 31 2d 31 2d 30 2e 64 6c 	e-heap-l1-1-0.dl
  0x5340	6c 00 61 70 69 2d 6d 73 2d 77 69 6e 2d 63 6f 72 	l0api-ms-win-cor
  0x5350	65 2d 73 74 72 69 6e 67 2d 6c 31 2d 31 2d 30 2e 	e-string-l1-1-0.
  0x5360	64 6c 6c 00 61 70 69 2d 6d 73 2d 77 69 6e 2d 63 	dll0api-ms-win-c
  0x5370	6f 72 65 2d 73 74 72 69 6e 67 2d 6f 62 73 6f 6c 	ore-string-obsol
  0x5380	65 74 65 2d 6c 31 2d 31 2d 30 2e 64 6c 6c 00 00 	ete-l1-1-0.dll00
  0x5390	61 70 69 2d 6d 73 2d 77 69 6e 2d 63 6f 72 65 2d 	api-ms-win-core-
  0x53a0	73 79 6e 63 68 2d 6c 31 2d 32 2d 30 2e 64 6c 6c 	synch-l1-2-0.dll
  0x53b0	00 00 61 70 69 2d 6d 73 2d 77 69 6e 2d 63 6f 72 	00api-ms-win-cor
  0x53c0	65 2d 72 74 6c 73 75 70 70 6f 72 74 2d 6c 31 2d 	e-rtlsupport-l1-
  0x53d0	31 2d 30 2e 64 6c 6c 00 61 70 69 2d 6d 73 2d 77 	1-0.dll0api-ms-w
  0x53e0	69 6e 2d 63 6f 72 65 2d 70 72 6f 63 65 73 73 74 	in-core-processt
  0x53f0	68 72 65 61 64 73 2d 6c 31 2d 31 2d 30 2e 64 6c 	hreads-l1-1-0.dl
  0x5400	6c 00 61 70 69 2d 6d 73 2d 77 69 6e 2d 63 6f 72 	l0api-ms-win-cor
  0x5410	65 2d 6c 69 62 72 61 72 79 6c 6f 61 64 65 72 2d 	e-libraryloader-
  0x5420	6c 31 2d 32 2d 30 2e 64 6c 6c 00 00 61 70 69 2d 	l1-2-0.dll00api-
  0x5430	6d 73 2d 77 69 6e 2d 63 6f 72 65 2d 70 72 6f 66 	ms-win-core-prof
  0x5440	69 6c 65 2d 6c 31 2d 31 2d 30 2e 64 6c 6c 00 00 	ile-l1-1-0.dll00
  0x5450	61 70 69 2d 6d 73 2d 77 69 6e 2d 63 6f 72 65 2d 	api-ms-win-core-
  0x5460	73 79 73 69 6e 66 6f 2d 6c 31 2d 31 2d 30 2e 64 	sysinfo-l1-1-0.d
  0x5470	6c 6c 00 00 92 04 6d 65 6d 63 70 79 00 00 00 00 	ll0000memcpy0000
  0x5480	00 00 00 00 00 00 00 00 00 00 00 00 00 00 00 00 	0000000000000000
  0x5490	00 00 00 00 00 00 00 00 00 00 00 00 00 00 00 00 	0000000000000000
  0x54a0	00 00 00 00 00 00 00 00 00 00 00 00 00 00 00 00 	0000000000000000
  0x54b0	00 00 00 00 00 00 00 00 00 00 00 00 00 00 00 00 	0000000000000000
  0x54c0	00 00 00 00 00 00 00 00 00 00 00 00 00 00 00 00 	0000000000000000
  0x54d0	00 00 00 00 00 00 00 00 00 00 00 00 00 00 00 00 	0000000000000000
  0x54e0	00 00 00 00 00 00 00 00 00 00 00 00 00 00 00 00 	0000000000000000
  0x54f0	00 00 00 00 00 00 00 00 00 00 00 00 00 00 00 00 	0000000000000000
  0x5500	00 00 00 00 00 00 00 00 00 00 00 00 00 00 00 00 	0000000000000000
  0x5510	00 00 00 00 00 00 00 00 00 00 00 00 00 00 00 00 	0000000000000000
  0x5520	00 00 00 00 00 00 00 00 00 00 00 00 00 00 00 00 	0000000000000000
  0x5530	00 00 00 00 00 00 00 00 00 00 00 00 00 00 00 00 	0000000000000000
  0x5540	00 00 00 00 00 00 00 00 00 00 00 00 00 00 00 00 	0000000000000000
  0x5550	00 00 00 00 00 00 00 00 00 00 00 00 00 00 00 00 	0000000000000000
  0x5560	00 00 00 00 00 00 00 00 00 00 00 00 00 00 00 00 	0000000000000000
  0x5570	00 00 00 00 00 00 00 00 00 00 00 00 00 00 00 00 	0000000000000000
  0x5580	00 00 00 00 00 00 00 00 00 00 00 00 00 00 00 00 	0000000000000000
  0x5590	00 00 00 00 00 00 00 00 00 00 00 00 00 00 00 00 	0000000000000000
  0x55a0	00 00 00 00 00 00 00 00 00 00 00 00 00 00 00 00 	0000000000000000
  0x55b0	00 00 00 00 00 00 00 00 00 00 00 00 00 00 00 00 	0000000000000000
  0x55c0	00 00 00 00 00 00 00 00 00 00 00 00 00 00 00 00 	0000000000000000
  0x55d0	00 00 00 00 00 00 00 00 00 00 00 00 00 00 00 00 	0000000000000000
  0x55e0	00 00 00 00 00 00 00 00 00 00 00 00 00 00 00 00 	0000000000000000
  0x55f0	00 00 00 00 00 00 00 00 00 00 00 00 00 00 00 00 	0000000000000000
=== DATA BLOCK END ===

=== DATA BLOCK ADDRESS 0x6000 ===
  0x6000	01 00 00 00 00 00 00 00 32 a2 df 2d 99 2b 00 00 	00000000200-0+00
  0x6010	cd 5d 20 d2 66 d4 ff ff 00 00 00 00 00 00 00 00 	0] 0f00000000000
  0x6020	00 00 00 00 00 00 00 00 00 00 00 00 00 00 00 00 	0000000000000000
  0x6030	00 00 00 00 00 00 00 00 00 00 00 00 00 00 00 00 	0000000000000000
  0x6040	00 00 00 00 00 00 00 00 00 00 00 00 00 00 00 00 	0000000000000000
  0x6050	00 00 00 00 00 00 00 00 00 00 00 00 00 00 00 00 	0000000000000000
  0x6060	00 00 00 00 00 00 00 00 00 00 00 00 00 00 00 00 	0000000000000000
  0x6070	00 00 00 00 00 00 00 00 00 00 00 00 00 00 00 00 	0000000000000000
  0x6080	00 00 00 00 00 00 00 00 00 00 00 00 00 00 00 00 	0000000000000000
  0x6090	00 00 00 00 00 00 00 00 00 00 00 00 00 00 00 00 	0000000000000000
  0x60a0	00 00 00 00 00 00 00 00 00 00 00 00 00 00 00 00 	0000000000000000
  0x60b0	00 00 00 00 00 00 00 00 00 00 00 00 00 00 00 00 	0000000000000000
  0x60c0	00 00 00 00 00 00 00 00 00 00 00 00 00 00 00 00 	0000000000000000
  0x60d0	00 00 00 00 00 00 00 00 00 00 00 00 00 00 00 00 	0000000000000000
  0x60e0	00 00 00 00 00 00 00 00 00 00 00 00 00 00 00 00 	0000000000000000
  0x60f0	00 00 00 00 00 00 00 00 00 00 00 00 00 00 00 00 	0000000000000000
  0x6100	00 00 00 00 00 00 00 00 00 00 00 00 00 00 00 00 	0000000000000000
  0x6110	00 00 00 00 00 00 00 00 00 00 00 00 00 00 00 00 	0000000000000000
  0x6120	00 00 00 00 00 00 00 00 00 00 00 00 00 00 00 00 	0000000000000000
  0x6130	00 00 00 00 00 00 00 00 00 00 00 00 00 00 00 00 	0000000000000000
  0x6140	00 00 00 00 00 00 00 00 00 00 00 00 00 00 00 00 	0000000000000000
  0x6150	00 00 00 00 00 00 00 00 00 00 00 00 00 00 00 00 	0000000000000000
  0x6160	00 00 00 00 00 00 00 00 00 00 00 00 00 00 00 00 	0000000000000000
  0x6170	00 00 00 00 00 00 00 00 00 00 00 00 00 00 00 00 	0000000000000000
  0x6180	00 00 00 00 00 00 00 00 00 00 00 00 00 00 00 00 	0000000000000000
  0x6190	00 00 00 00 00 00 00 00 00 00 00 00 00 00 00 00 	0000000000000000
  0x61a0	00 00 00 00 00 00 00 00 00 00 00 00 00 00 00 00 	0000000000000000
  0x61b0	00 00 00 00 00 00 00 00 00 00 00 00 00 00 00 00 	0000000000000000
  0x61c0	00 00 00 00 00 00 00 00 00 00 00 00 00 00 00 00 	0000000000000000
  0x61d0	00 00 00 00 00 00 00 00 00 00 00 00 00 00 00 00 	0000000000000000
  0x61e0	00 00 00 00 00 00 00 00 00 00 00 00 00 00 00 00 	0000000000000000
  0x61f0	00 00 00 00 00 00 00 00 00 00 00 00 00 00 00 00 	0000000000000000
=== DATA BLOCK END ===

=== DATA BLOCK ADDRESS 0x7000 ===
  0x7000	ac 10 00 00 2a 11 00 00 f0 46 00 00 30 11 00 00 	0000*0000F000000
  0x7010	30 12 00 00 00 47 00 00 38 12 00 00 ce 12 00 00 	00000G0080000000
  0x7020	14 47 00 00 d4 12 00 00 41 13 00 00 24 47 00 00 	0G000000A000$G00
  0x7030	48 13 00 00 ac 13 00 00 34 47 00 00 b4 13 00 00 	H00000004G000000
  0x7040	8c 14 00 00 44 47 00 00 94 14 00 00 94 15 00 00 	0000DG0000000000
  0x7050	58 47 00 00 9c 15 00 00 5a 16 00 00 6c 47 00 00 	XG000000Z000lG00
  0x7060	60 16 00 00 4b 17 00 00 7c 47 00 00 54 17 00 00 	`000K000|G00T000
  0x7070	3c 1a 00 00 98 47 00 00 44 1a 00 00 17 1d 00 00 	<0000G00D0000000
  0x7080	bc 47 00 00 20 1d 00 00 d5 1f 00 00 e4 47 00 00 	0G00 00000000G00
  0x7090	dc 1f 00 00 8a 25 00 00 f4 47 00 00 90 25 00 00 	00000%000G000%00
  0x70a0	63 26 00 00 1c 48 00 00 70 26 00 00 b9 26 00 00 	c&000H00p&000&00
  0x70b0	24 48 00 00 c0 26 00 00 7e 28 00 00 2c 48 00 00 	$H000&00~(00,H00
  0x70c0	90 28 00 00 a2 28 00 00 1c 48 00 00 c0 28 00 00 	0(000(000H000(00
  0x70d0	de 28 00 00 60 48 00 00 e4 28 00 00 18 29 00 00 	0(00`H000(000)00
  0x70e0	6c 48 00 00 20 29 00 00 91 2a 00 00 74 48 00 00 	lH00 )000*00tH00
  0x70f0	98 2a 00 00 8f 2b 00 00 64 48 00 00 a0 2b 00 00 	0*000+00dH000+00
  0x7100	d9 2b 00 00 1c 48 00 00 e0 2b 00 00 f8 2b 00 00 	0+000H000+000+00
  0x7110	1c 48 00 00 0c 2c 00 00 60 2c 00 00 7c 48 00 00 	0H000,00`,00|H00
  0x7120	68 2c 00 00 ad 2c 00 00 6c 48 00 00 20 2d 00 00 	h,000,00lH00 -00
  0x7130	6d 2d 00 00 9c 48 00 00 b4 2d 00 00 88 2e 00 00 	m-000H000-000.00
  0x7140	c0 48 00 00 c8 2e 00 00 e5 2e 00 00 1c 48 00 00 	0H000.000.000H00
  0x7150	ec 2e 00 00 47 2f 00 00 d4 48 00 00 70 2f 00 00 	0.00G/000H00p/00
  0x7160	72 2f 00 00 d0 48 00 00 90 2f 00 00 dd 2f 00 00 	r/000H000/000/00
  0x7170	e0 48 00 00 e3 2f 00 00 01 30 00 00 58 48 00 00 	0H000/000000XH00
  0x7180	10 30 00 00 30 30 00 00 58 48 00 00 00 00 00 00 	00000000XH000000
  0x7190	00 00 00 00 00 00 00 00 00 00 00 00 00 00 00 00 	0000000000000000
  0x71a0	00 00 00 00 00 00 00 00 00 00 00 00 00 00 00 00 	0000000000000000
  0x71b0	00 00 00 00 00 00 00 00 00 00 00 00 00 00 00 00 	0000000000000000
  0x71c0	00 00 00 00 00 00 00 00 00 00 00 00 00 00 00 00 	0000000000000000
  0x71d0	00 00 00 00 00 00 00 00 00 00 00 00 00 00 00 00 	0000000000000000
  0x71e0	00 00 00 00 00 00 00 00 00 00 00 00 00 00 00 00 	0000000000000000
  0x71f0	00 00 00 00 00 00 00 00 00 00 00 00 00 00 00 00 	0000000000000000
=== DATA BLOCK END ===
