===== Assembly blocks =====

=== CODE BLOCK ADDRESS 0x1000 ===
  0x1000	int3   	
  0x1001	int3   	
  0x1002	int3   	
  0x1003	int3   	
  0x1004	int3   	
  === BLOCK LINK ===
    0x1005
=== CODE BLOCK END ===

=== CODE BLOCK ADDRESS 0x1005 ===
  0x1005	int3   	
  0x1006	int3   	
  0x1007	int3   	
  0x1008	dec    	eax
  0x1009	sub    	esp, 0x48
  === BLOCK LINK ===
    0x100c
=== CODE BLOCK END ===

=== CODE BLOCK ADDRESS 0x100c ===
  0x100c	xor    	edx, edx
  0x100e	dec    	esp
  0x100f	mov    	edx, ecx
  0x1011	inc    	esp
  0x1012	lea    	eax, [edx + 0xa]
  === BLOCK LINK ===
    0x1015
=== CODE BLOCK END ===

=== CODE BLOCK ADDRESS 0x1015 ===
  0x1015	dec    	ebp
  0x1016	test   	ecx, ecx
  0x1018	je     	0x1032
  === BLOCK LINK ===
    0x101a
    0x1032
=== CODE BLOCK END ===

=== CODE BLOCK ADDRESS 0x101a ===
  0x101a	dec    	eax
  0x101b	or     	eax, 0xffffffff
  === BLOCK LINK ===
    0x101e
=== CODE BLOCK END ===

=== CODE BLOCK ADDRESS 0x1023 ===
  0x1023	cmp    	dword ptr [ecx + eax*2], edx
  0x1026	jne    	0x101e
  === BLOCK LINK ===
    0x1028
    0x101e
=== CODE BLOCK END ===

=== CODE BLOCK ADDRESS 0x1028 ===
  0x1028	dec    	eax
  0x1029	lea    	ecx, [eax*2 + 2]
  0x1030	jmp    	0x1035
  === BLOCK LINK ===
    0x1032
    0x1035
=== CODE BLOCK END ===

=== CODE BLOCK ADDRESS 0x1032 ===
  0x1032	dec    	ecx
  0x1033	mov    	ecx, eax
  === BLOCK LINK ===
    0x1035
=== CODE BLOCK END ===

=== CODE BLOCK ADDRESS 0x103b ===
  0x103b	lea    	eax, [0x339f]
  0x1041	dec    	ebp
  0x1042	test   	ecx, ecx
  0x1044	dec    	eax
  0x1045	mov    	dword ptr [esp + 0x28], ecx
  === BLOCK LINK ===
    0x1049
=== CODE BLOCK END ===

=== CODE BLOCK ADDRESS 0x1049 ===
  0x1049	mov    	edx, 0x2b
  0x104e	dec    	ecx
  0x104f	mov    	ecx, edx
  0x1051	dec    	ecx
  0x1052	cmovne  	eax, ecx
  === BLOCK LINK ===
    0x1055
=== CODE BLOCK END ===

=== CODE BLOCK ADDRESS 0x1055 ===
  0x1055	inc    	ebp
  0x1056	movzx  	ecx, ax
  0x1059	dec    	esp
  0x105a	lea    	eax, [0x3468]
  0x1060	dec    	eax
  === BLOCK LINK ===
    0x1061
=== CODE BLOCK END ===

=== CODE BLOCK ADDRESS 0x1061 ===
  0x1061	mov    	dword ptr [esp + 0x20], eax
  0x1065	dec    	eax
  0x1066	call   	dword ptr [0x3234]
  === BLOCK LINK ===
    0x106c
=== CODE BLOCK END ===

=== CODE BLOCK ADDRESS 0x106c ===
  0x106c	nop    	dword ptr [eax + eax]
  0x1071	dec    	eax
  0x1072	add    	esp, 0x48
  0x1075	ret    	
  0x1076	int3   	
  === BLOCK LINK ===
    0x1077
=== CODE BLOCK END ===

=== CODE BLOCK ADDRESS 0x1077 ===
  0x1077	int3   	
  0x1078	int3   	
  0x1079	int3   	
  0x107a	int3   	
  0x107b	int3   	
  === BLOCK LINK ===
    0x107c
=== CODE BLOCK END ===

=== CODE BLOCK ADDRESS 0x107c ===
  0x107c	int3   	
  0x107d	int3   	
  0x107e	int3   	
  0x107f	int3   	
  0x1080	dec    	eax
  === BLOCK LINK ===
    0x1081
=== CODE BLOCK END ===

=== CODE BLOCK ADDRESS 0x1081 ===
  0x1081	mov    	dword ptr [esp + 8], ebx
  0x1085	dec    	eax
  0x1086	mov    	dword ptr [esp + 0x10], esi
  0x108a	push   	edi
  0x108b	dec    	eax
  === BLOCK LINK ===
    0x108c
=== CODE BLOCK END ===

=== CODE BLOCK ADDRESS 0x108c ===
  0x108c	sub    	esp, 0x20
  0x108f	inc    	ecx
  0x1090	and    	dword ptr [eax], 0
  0x1093	dec    	eax
  0x1094	mov    	ebx, edx
  === BLOCK LINK ===
    0x1096
=== CODE BLOCK END ===

=== CODE BLOCK ADDRESS 0x1096 ===
  0x1096	sub    	ecx, 4
  0x1099	je     	0x10b0
  === BLOCK LINK ===
    0x109b
    0x10b0
=== CODE BLOCK END ===

=== CODE BLOCK ADDRESS 0x109b ===
  0x109b	cmp    	ecx, 1
  0x109e	je     	0x10a7
  === BLOCK LINK ===
    0x10a0
    0x10a7
=== CODE BLOCK END ===

=== CODE BLOCK ADDRESS 0x10a0 ===
  0x10a0	mov    	eax, 0x57
  0x10a5	jmp    	0x1101
  === BLOCK LINK ===
    0x10a7
    0x1101
=== CODE BLOCK END ===

=== CODE BLOCK ADDRESS 0x10a7 ===
  0x10a7	xor    	edi, edi
  0x10a9	xor    	eax, eax
  0x10ab	inc    	eax
  0x10ac	xor    	dh, dh
  0x10ae	jmp    	0x10e3
  === BLOCK LINK ===
    0x10b0
    0x10e3
=== CODE BLOCK END ===

=== CODE BLOCK ADDRESS 0x10b0 ===
  0x10b0	dec    	ecx
  0x10b1	mov    	ecx, ecx
  0x10b3	dec    	eax
  0x10b4	call   	dword ptr [0x31d6]
  === BLOCK LINK ===
    0x10ba
=== CODE BLOCK END ===

=== CODE BLOCK ADDRESS 0x10ba ===
  0x10ba	nop    	dword ptr [eax + eax]
  0x10bf	dec    	eax
  0x10c0	mov    	ecx, eax
  0x10c2	dec    	eax
  0x10c3	mov    	edi, eax
  === BLOCK LINK ===
    0x10c5
=== CODE BLOCK END ===

=== CODE BLOCK ADDRESS 0x10c5 ===
  0x10c5	dec    	eax
  0x10c6	call   	dword ptr [0x31e4]
  === BLOCK LINK ===
    0x10cc
=== CODE BLOCK END ===

=== CODE BLOCK ADDRESS 0x10cc ===
  0x10cc	nop    	dword ptr [eax + eax]
  0x10d1	dec    	eax
  0x10d2	mov    	ecx, edi
  0x10d4	inc    	eax
  0x10d5	mov    	dh, al
  === BLOCK LINK ===
    0x10d7
=== CODE BLOCK END ===

=== CODE BLOCK ADDRESS 0x10d7 ===
  0x10d7	dec    	eax
  0x10d8	call   	dword ptr [0x31da]
  === BLOCK LINK ===
    0x10de
=== CODE BLOCK END ===

=== CODE BLOCK ADDRESS 0x10de ===
  0x10de	nop    	dword ptr [eax + eax]
  === BLOCK LINK ===
    0x10e3
    0x10f4
=== CODE BLOCK END ===

=== CODE BLOCK ADDRESS 0x10e9 ===
  0x10e9	dec    	eax
  0x10ea	mov    	ecx, dword ptr [ebx + 0x10]
  0x10ed	dec    	eax
  0x10ee	test   	ecx, ecx
  0x10f0	dec    	eax
  === BLOCK LINK ===
    0x10f1
=== CODE BLOCK END ===

=== CODE BLOCK ADDRESS 0x10f1 ===
  0x10f1	cmovne  	ebx, ecx
  === BLOCK LINK ===
    0x10f4
=== CODE BLOCK END ===

=== CODE BLOCK ADDRESS 0x10fd ===
  0x10fd	inc    	eax
  0x10fe	mov    	byte ptr [ebx + 0x19], dh
  === BLOCK LINK ===
    0x1101
=== CODE BLOCK END ===

=== CODE BLOCK ADDRESS 0x1107 ===
  0x1107	mov    	esi, dword ptr [esp + 0x38]
  0x110b	dec    	eax
  0x110c	add    	esp, 0x20
  0x110f	pop    	edi
  0x1110	ret    	
  === BLOCK LINK ===
    0x1111
=== CODE BLOCK END ===

=== CODE BLOCK ADDRESS 0x101e ===
  0x101e	dec    	eax
  0x101f	inc    	eax
  0x1021	inc    	cx
  === BLOCK LINK ===
    0x1023
=== CODE BLOCK END ===

=== CODE BLOCK ADDRESS 0x1111 ===
  0x1111	int3   	
  0x1112	int3   	
  0x1113	int3   	
  0x1114	int3   	
  0x1115	int3   	
  === BLOCK LINK ===
    0x1116
=== CODE BLOCK END ===

=== CODE BLOCK ADDRESS 0x1116 ===
  0x1116	int3   	
  0x1117	int3   	
  0x1118	dec    	eax
  0x1119	mov    	dword ptr [esp + 0x18], ebx
  0x111d	push   	ebp
  === BLOCK LINK ===
    0x111e
=== CODE BLOCK END ===

=== CODE BLOCK ADDRESS 0x111e ===
  0x111e	push   	esi
  0x111f	push   	edi
  0x1120	inc    	ecx
  0x1121	push   	esp
  0x1122	inc    	ecx
  === BLOCK LINK ===
    0x1123
=== CODE BLOCK END ===

=== CODE BLOCK ADDRESS 0x1123 ===
  0x1123	push   	ebp
  0x1124	inc    	ecx
  0x1125	push   	esi
  0x1126	inc    	ecx
  0x1127	push   	edi
  === BLOCK LINK ===
    0x1128
=== CODE BLOCK END ===

=== CODE BLOCK ADDRESS 0x1128 ===
  0x1128	dec    	eax
  0x1129	lea    	ebp, [esp - 0x20]
  0x112d	dec    	eax
  0x112e	sub    	esp, 0x120
  0x1134	dec    	eax
  === BLOCK LINK ===
    0x1135
=== CODE BLOCK END ===

=== CODE BLOCK ADDRESS 0x1135 ===
  0x1135	mov    	eax, dword ptr [0x4edd]
  0x113b	dec    	eax
  0x113c	xor    	eax, esp
  0x113e	dec    	eax
  0x113f	mov    	dword ptr [ebp + 0x10], eax
  === BLOCK LINK ===
    0x1142
=== CODE BLOCK END ===

=== CODE BLOCK ADDRESS 0x1142 ===
  0x1142	inc    	ebp
  0x1143	xor    	ebp, ebp
  0x1145	dec    	esp
  0x1146	mov    	esp, edx
  0x1148	inc    	ecx
  === BLOCK LINK ===
    0x1149
=== CODE BLOCK END ===

=== CODE BLOCK ADDRESS 0x1149 ===
  0x1149	mov    	ebx, ebp
  0x114b	inc    	esp
  0x114c	mov    	dword ptr [esp + 0x40], ebp
  0x1150	dec    	eax
  0x1151	lea    	edx, [esp + 0x60]
  === BLOCK LINK ===
    0x1155
=== CODE BLOCK END ===

=== CODE BLOCK ADDRESS 0x1155 ===
  0x1155	dec    	eax
  0x1156	mov    	dword ptr [esp + 0x58], ebx
  0x115a	dec    	esp
  0x115b	mov    	dword ptr [esp + 0x48], ebp
  0x115f	inc    	ebp
  === BLOCK LINK ===
    0x1160
=== CODE BLOCK END ===

=== CODE BLOCK ADDRESS 0x1160 ===
  0x1160	mov    	esi, ebp
  0x1162	dec    	esp
  0x1163	mov    	dword ptr [esp + 0x50], ebp
  0x1167	inc    	ecx
  0x1168	mov    	esi, ebp
  === BLOCK LINK ===
    0x116a
=== CODE BLOCK END ===

=== CODE BLOCK ADDRESS 0x116a ===
  0x116a	inc    	esp
  0x116b	mov    	dword ptr [esp + 0x44], ebp
  0x116f	dec    	eax
  0x1170	call   	dword ptr [0x2fd2]
  === BLOCK LINK ===
    0x1176
=== CODE BLOCK END ===

=== CODE BLOCK ADDRESS 0x1176 ===
  0x1176	nop    	dword ptr [eax + eax]
  0x117b	mov    	edi, eax
  0x117d	test   	eax, eax
  0x117f	js     	0x146b
  === BLOCK LINK ===
    0x1185
    0x146b
=== CODE BLOCK END ===

=== CODE BLOCK ADDRESS 0x1185 ===
  0x1185	mov    	eax, dword ptr [0x3635]
  0x118b	dec    	esp
  0x118c	lea    	ecx, [ebp - 0x50]
  0x118f	movups  	xmm0, xmmword ptr [0x361a]
  0x1196	mov    	dword ptr [ebp - 0x78], eax
  === BLOCK LINK ===
    0x1199
=== CODE BLOCK END ===

=== CODE BLOCK ADDRESS 0x1199 ===
  0x1199	dec    	eax
  0x119a	lea    	eax, [esp + 0x60]
  0x119e	dec    	eax
  0x119f	mov    	dword ptr [ebp - 0x60], eax
  0x11a2	mov    	eax, dword ptr [0x3600]
  === BLOCK LINK ===
    0x11a8
=== CODE BLOCK END ===

=== CODE BLOCK ADDRESS 0x11a8 ===
  0x11a8	mov    	dword ptr [ebp - 0x40], eax
  0x11ab	mov    	eax, dword ptr [0x35df]
  0x11b1	mov    	dword ptr [ebp - 0x20], eax
  0x11b4	mov    	eax, dword ptr [0x35be]
  0x11ba	mov    	dword ptr [ebp], eax
  === BLOCK LINK ===
    0x11bd
=== CODE BLOCK END ===

=== CODE BLOCK ADDRESS 0x11bd ===
  0x11bd	dec    	eax
  0x11be	lea    	eax, [esp + 0x48]
  0x11c2	dec    	eax
  0x11c3	mov    	dword ptr [esp + 0x38], eax
  0x11c7	dec    	eax
  === BLOCK LINK ===
    0x11c8
=== CODE BLOCK END ===

=== CODE BLOCK ADDRESS 0x11c8 ===
  0x11c8	lea    	eax, [esp + 0x40]
  0x11cc	dec    	eax
  0x11cd	mov    	dword ptr [esp + 0x30], eax
  0x11d1	dec    	eax
  0x11d2	lea    	eax, [esp + 0x70]
  === BLOCK LINK ===
    0x11d6
=== CODE BLOCK END ===

=== CODE BLOCK ADDRESS 0x11d6 ===
  0x11d6	movups  	xmmword ptr [esp + 0x78], xmm0
  0x11db	dec    	eax
  0x11dc	mov    	dword ptr [esp + 0x28], eax
  0x11e0	inc    	ecx
  0x11e1	lea    	eax, [ebp + 3]
  === BLOCK LINK ===
    0x11e4
=== CODE BLOCK END ===

=== CODE BLOCK ADDRESS 0x11e4 ===
  0x11e4	movups  	xmm0, xmmword ptr [0x35ad]
  0x11eb	inc    	esp
  0x11ec	mov    	eax, eax
  0x11ee	mov    	dword ptr [esp + 0x70], 2
  0x11f6	lea    	edx, [eax + 1]
  === BLOCK LINK ===
    0x11f9
=== CODE BLOCK END ===

=== CODE BLOCK ADDRESS 0x11f9 ===
  0x11f9	inc    	esp
  0x11fa	mov    	dword ptr [ebp - 0x74], ebp
  0x11fd	movaps  	xmmword ptr [ebp - 0x50], xmm0
  0x1201	mov    	ecx, eax
  0x1203	movups  	xmm0, xmmword ptr [0x3576]
  === BLOCK LINK ===
    0x120a
=== CODE BLOCK END ===

=== CODE BLOCK ADDRESS 0x120a ===
  0x120a	dec    	esp
  0x120b	mov    	dword ptr [ebp - 0x70], ebp
  0x120e	mov    	dword ptr [ebp - 0x68], 0xd
  0x1215	movaps  	xmmword ptr [ebp - 0x30], xmm0
  0x1219	movups  	xmm0, xmmword ptr [0x3548]
  === BLOCK LINK ===
    0x1220
=== CODE BLOCK END ===

=== CODE BLOCK ADDRESS 0x1220 ===
  0x1220	mov    	dword ptr [ebp - 0x64], 0x10
  0x1227	inc    	esp
  0x1228	mov    	dword ptr [ebp - 0x3c], ebp
  0x122b	dec    	esp
  0x122c	mov    	dword ptr [ebp - 0x38], ebp
  === BLOCK LINK ===
    0x122f
=== CODE BLOCK END ===

=== CODE BLOCK ADDRESS 0x122f ===
  0x122f	inc    	esp
  0x1230	mov    	dword ptr [ebp - 0x1c], ebp
  0x1233	dec    	esp
  0x1234	mov    	dword ptr [ebp - 0x18], ebp
  0x1237	movaps  	xmmword ptr [ebp - 0x10], xmm0
  === BLOCK LINK ===
    0x123b
=== CODE BLOCK END ===

=== CODE BLOCK ADDRESS 0x123b ===
  0x123b	inc    	esp
  0x123c	mov    	dword ptr [ebp + 4], ebp
  0x123f	dec    	esp
  0x1240	mov    	dword ptr [ebp + 8], ebp
  0x1243	mov    	dword ptr [esp + 0x20], 1
  === BLOCK LINK ===
    0x124b
=== CODE BLOCK END ===

=== CODE BLOCK ADDRESS 0x124b ===
  0x124b	dec    	eax
  0x124c	call   	dword ptr [0x301e]
  === BLOCK LINK ===
    0x1252
=== CODE BLOCK END ===

=== CODE BLOCK ADDRESS 0x1252 ===
  0x1252	nop    	dword ptr [eax + eax]
  0x1257	mov    	edi, eax
  0x1259	test   	eax, eax
  0x125b	js     	0x146b
  === BLOCK LINK ===
    0x1261
    0x146b
=== CODE BLOCK END ===

=== CODE BLOCK ADDRESS 0x1261 ===
  0x1261	inc    	ebp
  0x1262	mov    	edi, ebp
  0x1264	inc    	esp
  0x1265	cmp    	dword ptr [esp + 0x40], ebp
  0x1269	jbe    	0x1389
  === BLOCK LINK ===
    0x126f
    0x1389
=== CODE BLOCK END ===

=== CODE BLOCK ADDRESS 0x126f ===
  0x126f	inc    	ebp
  0x1270	mov    	esi, edi
  0x1272	dec    	eax
  0x1273	lea    	ecx, [0x351f]
  0x1279	dec    	ecx
  === BLOCK LINK ===
    0x127a
=== CODE BLOCK END ===

=== CODE BLOCK ADDRESS 0x127a ===
  0x127a	shl    	esi, 5
  0x127d	inc    	ebp
  0x127e	xor    	eax, eax
  0x1280	dec    	esp
  0x1281	add    	esi, dword ptr [esp + 0x48]
  === BLOCK LINK ===
    0x1285
=== CODE BLOCK END ===

=== CODE BLOCK ADDRESS 0x1285 ===
  0x1285	xor    	edx, edx
  0x1287	dec    	ecx
  0x1288	mov    	eax, dword ptr [esi + 0x18]
  0x128b	inc    	ebp
  0x128c	mov    	ecx, dword ptr [esi + 0x10]
  === BLOCK LINK ===
    0x128f
=== CODE BLOCK END ===

=== CODE BLOCK ADDRESS 0x128f ===
  0x128f	dec    	eax
  0x1290	mov    	dword ptr [esp + 0x20], eax
  0x1294	dec    	eax
  0x1295	call   	dword ptr [0x2fcd]
  === BLOCK LINK ===
    0x129b
=== CODE BLOCK END ===

=== CODE BLOCK ADDRESS 0x129b ===
  0x129b	nop    	dword ptr [eax + eax]
  0x12a0	dec    	eax
  0x12a1	test   	eax, eax
  0x12a3	je     	0x137b
  === BLOCK LINK ===
    0x12a9
    0x137b
=== CODE BLOCK END ===

=== CODE BLOCK ADDRESS 0x12a9 ===
  0x12a9	cmp    	dword ptr [eax + 0x20], 0x12
  0x12ad	jne    	0x137b
  === BLOCK LINK ===
    0x12b3
    0x137b
=== CODE BLOCK END ===

=== CODE BLOCK ADDRESS 0x12b3 ===
  0x12b3	cmp    	dword ptr [eax + 0x24], 2
  0x12b7	jb     	0x137b
  === BLOCK LINK ===
    0x12bd
    0x137b
=== CODE BLOCK END ===

=== CODE BLOCK ADDRESS 0x12bd ===
  0x12bd	mov    	ecx, dword ptr [0x34fd]
  0x12c3	inc    	ecx
  0x12c4	mov    	ecx, 1
  0x12c9	movups  	xmm0, xmmword ptr [0x34e0]
  0x12d0	mov    	dword ptr [ebp - 0x80], ecx
  === BLOCK LINK ===
    0x12d3
=== CODE BLOCK END ===

=== CODE BLOCK ADDRESS 0x12d3 ===
  0x12d3	inc    	ebp
  0x12d4	xor    	eax, eax
  0x12d6	dec    	eax
  0x12d7	lea    	ecx, [esp + 0x50]
  0x12db	inc    	esp
  === BLOCK LINK ===
    0x12dc
=== CODE BLOCK END ===

=== CODE BLOCK ADDRESS 0x12dc ===
  0x12dc	mov    	dword ptr [ebp - 0x7c], ebp
  0x12df	dec    	eax
  0x12e0	mov    	dword ptr [esp + 0x30], ecx
  0x12e4	dec    	eax
  0x12e5	lea    	ecx, [esp + 0x44]
  === BLOCK LINK ===
    0x12e9
=== CODE BLOCK END ===

=== CODE BLOCK ADDRESS 0x12e9 ===
  0x12e9	dec    	eax
  0x12ea	mov    	dword ptr [esp + 0x28], ecx
  0x12ee	dec    	eax
  0x12ef	lea    	ecx, [esp + 0x70]
  0x12f3	dec    	eax
  === BLOCK LINK ===
    0x12f4
=== CODE BLOCK END ===

=== CODE BLOCK ADDRESS 0x12f4 ===
  0x12f4	mov    	dword ptr [esp + 0x20], ecx
  0x12f8	inc    	ecx
  0x12f9	lea    	ecx, [ecx + 2]
  0x12fc	movups  	xmmword ptr [esp + 0x70], xmm0
  0x1301	dec    	esp
  === BLOCK LINK ===
    0x1302
=== CODE BLOCK END ===

=== CODE BLOCK ADDRESS 0x1302 ===
  0x1302	mov    	dword ptr [ebp - 0x78], ebp
  0x1305	dec    	eax
  0x1306	mov    	edx, dword ptr [eax + 0x28]
  0x1309	dec    	eax
  0x130a	call   	dword ptr [0x2f50]
  === BLOCK LINK ===
    0x1310
=== CODE BLOCK END ===

=== CODE BLOCK ADDRESS 0x1310 ===
  0x1310	nop    	dword ptr [eax + eax]
  0x1315	dec    	eax
  0x1316	mov    	edx, dword ptr [esp + 0x50]
  0x131a	mov    	edi, eax
  0x131c	mov    	ecx, dword ptr [esp + 0x44]
  === BLOCK LINK ===
    0x1320
=== CODE BLOCK END ===

=== CODE BLOCK ADDRESS 0x1320 ===
  0x1320	test   	eax, eax
  0x1322	js     	0x136f
  === BLOCK LINK ===
    0x1324
    0x136f
=== CODE BLOCK END ===

=== CODE BLOCK ADDRESS 0x1324 ===
  0x1324	cmp    	ecx, 1
  0x1327	jne    	0x136f
  === BLOCK LINK ===
    0x1329
    0x136f
=== CODE BLOCK END ===

=== CODE BLOCK ADDRESS 0x1329 ===
  0x1329	cmp    	dword ptr [edx + 0x10], 2
  0x132d	jne    	0x136f
  === BLOCK LINK ===
    0x132f
    0x136f
=== CODE BLOCK END ===

=== CODE BLOCK ADDRESS 0x132f ===
  0x132f	dec    	eax
  0x1330	mov    	eax, dword ptr [edx]
  0x1332	dec    	eax
  0x1333	cmp    	eax, dword ptr [0x3477]
  0x1339	jne    	0x136f
  === BLOCK LINK ===
    0x133b
    0x136f
=== CODE BLOCK END ===

=== CODE BLOCK ADDRESS 0x133b ===
  0x133b	dec    	eax
  0x133c	mov    	eax, dword ptr [edx + 8]
  0x133f	dec    	eax
  0x1340	cmp    	eax, dword ptr [0x3472]
  0x1346	jne    	0x136f
  === BLOCK LINK ===
    0x1348
    0x136f
=== CODE BLOCK END ===

=== CODE BLOCK ADDRESS 0x1348 ===
  0x1348	cmp    	dword ptr [edx + 0x20], 0xd
  0x134c	jne    	0x136f
  === BLOCK LINK ===
    0x134e
    0x136f
=== CODE BLOCK END ===

=== CODE BLOCK ADDRESS 0x134e ===
  0x134e	dec    	esp
  0x134f	mov    	eax, dword ptr [edx + 0x28]
  0x1352	dec    	eax
  0x1353	mov    	eax, dword ptr [esp + 0x60]
  0x1357	dec    	ecx
  === BLOCK LINK ===
    0x1358
=== CODE BLOCK END ===

=== CODE BLOCK ADDRESS 0x1358 ===
  0x1358	cmp    	eax, dword ptr [eax]
  0x135a	jne    	0x1444
  === BLOCK LINK ===
    0x1360
    0x1444
=== CODE BLOCK END ===

=== CODE BLOCK ADDRESS 0x1360 ===
  0x1360	dec    	eax
  0x1361	mov    	eax, dword ptr [esp + 0x68]
  0x1365	dec    	ecx
  0x1366	cmp    	eax, dword ptr [eax + 8]
  0x1369	jne    	0x1444
  === BLOCK LINK ===
    0x136f
    0x1444
=== CODE BLOCK END ===

=== CODE BLOCK ADDRESS 0x136f ===
  0x136f	dec    	eax
  0x1370	call   	dword ptr [0x2f0a]
  === BLOCK LINK ===
    0x1376
=== CODE BLOCK END ===

=== CODE BLOCK ADDRESS 0x1376 ===
  0x1376	nop    	dword ptr [eax + eax]
  === BLOCK LINK ===
    0x137b
=== CODE BLOCK END ===

=== CODE BLOCK ADDRESS 0x1383 ===
  0x1383	jb     	0x126f
  === BLOCK LINK ===
    0x1389
    0x126f
=== CODE BLOCK END ===

=== CODE BLOCK ADDRESS 0x1389 ===
  0x1389	mov    	edi, 0x80004005
  0x138e	test   	edi, edi
  0x1390	js     	0x146b
  === BLOCK LINK ===
    0x1396
    0x146b
=== CODE BLOCK END ===

=== CODE BLOCK ADDRESS 0x1396 ===
  0x1396	dec    	ecx
  0x1397	mov    	eax, dword ptr [esi + 0x18]
  0x139a	dec    	eax
  0x139b	lea    	ecx, [0x33df]
  0x13a1	inc    	ebp
  === BLOCK LINK ===
    0x13a2
=== CODE BLOCK END ===

=== CODE BLOCK ADDRESS 0x13a2 ===
  0x13a2	mov    	ecx, dword ptr [esi + 0x10]
  0x13a5	inc    	ebp
  0x13a6	xor    	eax, eax
  0x13a8	xor    	edx, edx
  0x13aa	dec    	eax
  === BLOCK LINK ===
    0x13ab
=== CODE BLOCK END ===

=== CODE BLOCK ADDRESS 0x13ab ===
  0x13ab	mov    	dword ptr [esp + 0x20], eax
  0x13af	dec    	eax
  0x13b0	call   	dword ptr [0x2eb2]
  === BLOCK LINK ===
    0x13b6
=== CODE BLOCK END ===

=== CODE BLOCK ADDRESS 0x13b6 ===
  0x13b6	nop    	dword ptr [eax + eax]
  0x13bb	dec    	eax
  0x13bc	test   	eax, eax
  0x13be	je     	0x13db
  === BLOCK LINK ===
    0x13c0
    0x13db
=== CODE BLOCK END ===

=== CODE BLOCK ADDRESS 0x13c0 ===
  0x13c0	cmp    	dword ptr [eax + 0x20], 0x12
  0x13c4	jne    	0x13db
  === BLOCK LINK ===
    0x13c6
    0x13db
=== CODE BLOCK END ===

=== CODE BLOCK ADDRESS 0x13c6 ===
  0x13c6	cmp    	dword ptr [eax + 0x24], 2
  0x13ca	jb     	0x13db
  === BLOCK LINK ===
    0x13cc
    0x13db
=== CODE BLOCK END ===

=== CODE BLOCK ADDRESS 0x13cc ===
  0x13cc	dec    	eax
  0x13cd	mov    	esi, dword ptr [eax + 0x28]
  0x13d0	dec    	eax
  0x13d1	test   	esi, esi
  0x13d3	je     	0x13db
  === BLOCK LINK ===
    0x13d5
    0x13db
=== CODE BLOCK END ===

=== CODE BLOCK ADDRESS 0x13d5 ===
  0x13d5	inc    	sp
  0x13d7	cmp    	dword ptr [esi], ebp
  0x13d9	jne    	0x1425
  === BLOCK LINK ===
    0x13db
    0x1425
=== CODE BLOCK END ===

=== CODE BLOCK ADDRESS 0x13db ===
  0x13db	dec    	ecx
  0x13dc	mov    	eax, dword ptr [esi + 0x18]
  0x13df	dec    	eax
  0x13e0	lea    	ecx, [0x3382]
  0x13e6	inc    	ebp
  === BLOCK LINK ===
    0x13e7
=== CODE BLOCK END ===

=== CODE BLOCK ADDRESS 0x13e7 ===
  0x13e7	mov    	ecx, dword ptr [esi + 0x10]
  0x13ea	inc    	ebp
  0x13eb	xor    	eax, eax
  0x13ed	xor    	edx, edx
  0x13ef	dec    	eax
  === BLOCK LINK ===
    0x13f0
=== CODE BLOCK END ===

=== CODE BLOCK ADDRESS 0x13f0 ===
  0x13f0	mov    	dword ptr [esp + 0x20], eax
  0x13f4	dec    	eax
  0x13f5	call   	dword ptr [0x2e6d]
  === BLOCK LINK ===
    0x13fb
=== CODE BLOCK END ===

=== CODE BLOCK ADDRESS 0x13fb ===
  0x13fb	nop    	dword ptr [eax + eax]
  0x1400	dec    	eax
  0x1401	test   	eax, eax
  0x1403	je     	0x1415
  === BLOCK LINK ===
    0x1405
    0x1415
=== CODE BLOCK END ===

=== CODE BLOCK ADDRESS 0x1405 ===
  0x1405	cmp    	dword ptr [eax + 0x20], 0x12
  0x1409	jne    	0x1415
  === BLOCK LINK ===
    0x140b
    0x1415
=== CODE BLOCK END ===

=== CODE BLOCK ADDRESS 0x140b ===
  0x140b	cmp    	dword ptr [eax + 0x24], 2
  0x140f	jb     	0x1415
  === BLOCK LINK ===
    0x1411
    0x1415
=== CODE BLOCK END ===

=== CODE BLOCK ADDRESS 0x1411 ===
  0x1411	dec    	eax
  0x1412	mov    	esi, dword ptr [eax + 0x28]
  === BLOCK LINK ===
    0x1415
    0x1420
=== CODE BLOCK END ===

=== CODE BLOCK ADDRESS 0x141a ===
  0x141a	inc    	sp
  0x141c	cmp    	dword ptr [esi], ebp
  0x141e	jne    	0x1425
  === BLOCK LINK ===
    0x1420
=== CODE BLOCK END ===

=== CODE BLOCK ADDRESS 0x1420 ===
  0x1420	mov    	edi, 0x80004005
  === BLOCK LINK ===
    0x1425
=== CODE BLOCK END ===

=== CODE BLOCK ADDRESS 0x1429 ===
  0x1429	dec    	eax
  0x142a	test   	esi, esi
  0x142c	je     	0x145a
  === BLOCK LINK ===
    0x142e
=== CODE BLOCK END ===

=== CODE BLOCK ADDRESS 0x142e ===
  0x142e	dec    	eax
  0x142f	lea    	edx, [esp + 0x58]
  0x1433	dec    	eax
  0x1434	mov    	ecx, esi
  0x1436	call   	0x1ccc
  === BLOCK LINK ===
    0x143b
=== CODE BLOCK END ===

=== CODE BLOCK ADDRESS 0x143b ===
  0x143b	dec    	eax
  0x143c	mov    	ebx, dword ptr [esp + 0x58]
  0x1440	mov    	edi, eax
  0x1442	jmp    	0x145d
  === BLOCK LINK ===
    0x1444
=== CODE BLOCK END ===

=== CODE BLOCK ADDRESS 0x1444 ===
  0x1444	mov    	ecx, 1
  0x1449	dec    	eax
  0x144a	call   	dword ptr [0x2e30]
  === BLOCK LINK ===
    0x1450
=== CODE BLOCK END ===

=== CODE BLOCK ADDRESS 0x1450 ===
  0x1450	nop    	dword ptr [eax + eax]
  0x1455	jmp    	0x138e
  === BLOCK LINK ===
    0x145a
=== CODE BLOCK END ===

=== CODE BLOCK ADDRESS 0x145a ===
  0x145a	inc    	ecx
  0x145b	mov    	edi, ebp
  0x145d	test   	edi, edi
  0x145f	js     	0x146b
  === BLOCK LINK ===
    0x1461
=== CODE BLOCK END ===

=== CODE BLOCK ADDRESS 0x1461 ===
  0x1461	dec    	eax
  0x1462	mov    	eax, ebx
  0x1464	dec    	ecx
  0x1465	mov    	ebx, ebp
  0x1467	dec    	ecx
  === BLOCK LINK ===
    0x1468
=== CODE BLOCK END ===

=== CODE BLOCK ADDRESS 0x1468 ===
  0x1468	mov    	dword ptr [esp], eax
  === BLOCK LINK ===
    0x146b
=== CODE BLOCK END ===

=== CODE BLOCK ADDRESS 0x1473 ===
  0x1473	je     	0x1485
  === BLOCK LINK ===
    0x1475
=== CODE BLOCK END ===

=== CODE BLOCK ADDRESS 0x1475 ===
  0x1475	mov    	ecx, dword ptr [esp + 0x40]
  0x1479	dec    	eax
  0x147a	call   	dword ptr [0x2df8]
  === BLOCK LINK ===
    0x1480
=== CODE BLOCK END ===

=== CODE BLOCK ADDRESS 0x1480 ===
  0x1480	nop    	dword ptr [eax + eax]
  0x1485	dec    	eax
  0x1486	test   	ebx, ebx
  0x1488	je     	0x1499
  === BLOCK LINK ===
    0x148a
=== CODE BLOCK END ===

=== CODE BLOCK ADDRESS 0x148a ===
  0x148a	dec    	eax
  0x148b	mov    	ecx, ebx
  0x148d	dec    	eax
  0x148e	call   	dword ptr [0x2ca4]
  === BLOCK LINK ===
    0x1494
=== CODE BLOCK END ===

=== CODE BLOCK ADDRESS 0x1494 ===
  0x1494	nop    	dword ptr [eax + eax]
  0x1499	mov    	eax, edi
  0x149b	dec    	eax
  0x149c	mov    	ecx, dword ptr [ebp + 0x10]
  0x149f	dec    	eax
  === BLOCK LINK ===
    0x14a0
=== CODE BLOCK END ===

=== CODE BLOCK ADDRESS 0x14a0 ===
  0x14a0	xor    	ecx, esp
  0x14a2	call   	0x25c0
  === BLOCK LINK ===
    0x14a7
=== CODE BLOCK END ===

=== CODE BLOCK ADDRESS 0x14a7 ===
  0x14a7	dec    	eax
  0x14a8	mov    	ebx, dword ptr [esp + 0x170]
  0x14af	dec    	eax
  0x14b0	add    	esp, 0x120
  0x14b6	inc    	ecx
  === BLOCK LINK ===
    0x14b7
=== CODE BLOCK END ===

=== CODE BLOCK ADDRESS 0x14b7 ===
  0x14b7	pop    	edi
  0x14b8	inc    	ecx
  0x14b9	pop    	esi
  0x14ba	inc    	ecx
  0x14bb	pop    	ebp
  === BLOCK LINK ===
    0x14bc
=== CODE BLOCK END ===

=== CODE BLOCK ADDRESS 0x14bc ===
  0x14bc	inc    	ecx
  0x14bd	pop    	esp
  0x14be	pop    	edi
  0x14bf	pop    	esi
  0x14c0	pop    	ebp
  === BLOCK LINK ===
    0x14c1
=== CODE BLOCK END ===

=== CODE BLOCK ADDRESS 0x14c1 ===
  0x14c1	ret    	
  0x14c2	int3   	
  0x14c3	int3   	
  0x14c4	int3   	
  0x14c5	int3   	
  === BLOCK LINK ===
    0x14c6
=== CODE BLOCK END ===

=== CODE BLOCK ADDRESS 0x1035 ===
  0x1035	dec    	eax
  0x1036	mov    	dword ptr [esp + 0x30], edx
  0x103a	dec    	eax
  === BLOCK LINK ===
    0x103b
=== CODE BLOCK END ===

=== CODE BLOCK ADDRESS 0x14c6 ===
  0x14c6	int3   	
  0x14c7	int3   	
  0x14c8	int3   	
  0x14c9	int3   	
  0x14ca	int3   	
  === BLOCK LINK ===
    0x14cb
=== CODE BLOCK END ===

=== CODE BLOCK ADDRESS 0x14cb ===
  0x14cb	int3   	
  0x14cc	inc    	eax
  0x14cd	push   	ebp
  0x14ce	push   	ebx
  0x14cf	push   	esi
  === BLOCK LINK ===
    0x14d0
=== CODE BLOCK END ===

=== CODE BLOCK ADDRESS 0x14d0 ===
  0x14d0	push   	edi
  0x14d1	inc    	ecx
  0x14d2	push   	esp
  0x14d3	inc    	ecx
  0x14d4	push   	ebp
  === BLOCK LINK ===
    0x14d5
=== CODE BLOCK END ===

=== CODE BLOCK ADDRESS 0x14d5 ===
  0x14d5	inc    	ecx
  0x14d6	push   	esi
  0x14d7	inc    	ecx
  0x14d8	push   	edi
  0x14d9	dec    	eax
  === BLOCK LINK ===
    0x14da
=== CODE BLOCK END ===

=== CODE BLOCK ADDRESS 0x14da ===
  0x14da	lea    	ebp, [esp - 0x378]
  0x14e1	dec    	eax
  0x14e2	sub    	esp, 0x478
  0x14e8	dec    	eax
  0x14e9	mov    	eax, dword ptr [0x4b29]
  === BLOCK LINK ===
    0x14ef
=== CODE BLOCK END ===

=== CODE BLOCK ADDRESS 0x14ef ===
  0x14ef	dec    	eax
  0x14f0	xor    	eax, esp
  0x14f2	dec    	eax
  0x14f3	mov    	dword ptr [ebp + 0x360], eax
  0x14f9	inc    	ebp
  === BLOCK LINK ===
    0x14fa
=== CODE BLOCK END ===

=== CODE BLOCK ADDRESS 0x14fa ===
  0x14fa	xor    	ebp, ebp
  0x14fc	dec    	esp
  0x14fd	mov    	esi, ecx
  0x14ff	inc    	ecx
  0x1500	mov    	ebx, ebp
  === BLOCK LINK ===
    0x1502
=== CODE BLOCK END ===

=== CODE BLOCK ADDRESS 0x1502 ===
  0x1502	dec    	esp
  0x1503	mov    	dword ptr [esp + 0x48], ebp
  0x1507	xor    	ecx, ecx
  0x1509	dec    	eax
  0x150a	mov    	dword ptr [esp + 0x40], ebx
  === BLOCK LINK ===
    0x150e
=== CODE BLOCK END ===

=== CODE BLOCK ADDRESS 0x150e ===
  0x150e	inc    	ebp
  0x150f	mov    	esp, ecx
  0x1511	dec    	esp
  0x1512	mov    	dword ptr [esp + 0x50], ebp
  0x1516	inc    	ebp
  === BLOCK LINK ===
    0x1517
=== CODE BLOCK END ===

=== CODE BLOCK ADDRESS 0x1517 ===
  0x1517	mov    	edi, eax
  0x1519	dec    	esp
  0x151a	mov    	dword ptr [esp + 0x58], ebp
  0x151e	mov    	esi, edx
  0x1520	inc    	ecx
  === BLOCK LINK ===
    0x1521
=== CODE BLOCK END ===

=== CODE BLOCK ADDRESS 0x1521 ===
  0x1521	mov    	edi, ebp
  0x1523	dec    	eax
  0x1524	call   	dword ptr [0x2c6e]
  === BLOCK LINK ===
    0x152a
=== CODE BLOCK END ===

=== CODE BLOCK ADDRESS 0x152a ===
  0x152a	nop    	dword ptr [eax + eax]
  0x152f	inc    	ecx
  0x1530	mov    	ecx, 0x100
  0x1535	dec    	esp
  0x1536	lea    	eax, [ebp + 0x160]
  === BLOCK LINK ===
    0x153c
=== CODE BLOCK END ===

=== CODE BLOCK ADDRESS 0x153c ===
  0x153c	dec    	eax
  0x153d	mov    	ecx, eax
  0x153f	mov    	edx, esi
  0x1541	dec    	eax
  0x1542	call   	dword ptr [0x2c48]
  === BLOCK LINK ===
    0x1548
=== CODE BLOCK END ===

=== CODE BLOCK ADDRESS 0x1548 ===
  0x1548	nop    	dword ptr [eax + eax]
  0x154d	test   	eax, eax
  0x154f	je     	0x16a5
  === BLOCK LINK ===
    0x1555
=== CODE BLOCK END ===

=== CODE BLOCK ADDRESS 0x1555 ===
  0x1555	dec    	esp
  0x1556	lea    	ecx, [esp + 0x40]
  0x155a	dec    	ecx
  0x155b	mov    	edx, esi
  0x155d	call   	0x20a8
  === BLOCK LINK ===
    0x1562
=== CODE BLOCK END ===

=== CODE BLOCK ADDRESS 0x1562 ===
  0x1562	test   	eax, eax
  0x1564	js     	0x1571
  === BLOCK LINK ===
    0x1566
=== CODE BLOCK END ===

=== CODE BLOCK ADDRESS 0x1566 ===
  0x1566	dec    	eax
  0x1567	mov    	ebx, dword ptr [esp + 0x40]
  0x156b	inc    	sp
  0x156d	cmp    	dword ptr [ebx], ebp
  0x156f	jne    	0x1583
  === BLOCK LINK ===
    0x1571
=== CODE BLOCK END ===

=== CODE BLOCK ADDRESS 0x1571 ===
  0x1571	dec    	eax
  0x1572	lea    	edx, [esp + 0x40]
  0x1576	dec    	ecx
  0x1577	mov    	ecx, esi
  0x1579	call   	0x1118
  === BLOCK LINK ===
    0x157e
=== CODE BLOCK END ===

=== CODE BLOCK ADDRESS 0x157e ===
  0x157e	dec    	eax
  0x157f	mov    	ebx, dword ptr [esp + 0x40]
  0x1583	inc    	ecx
  0x1584	mov    	esi, 0x3c
  0x1589	test   	eax, eax
  === BLOCK LINK ===
    0x158b
=== CODE BLOCK END ===

=== CODE BLOCK ADDRESS 0x158b ===
  0x158b	js     	0x165e
  === BLOCK LINK ===
    0x1591
=== CODE BLOCK END ===

=== CODE BLOCK ADDRESS 0x1591 ===
  0x1591	dec    	eax
  0x1592	mov    	edx, ebx
  0x1594	dec    	eax
  0x1595	lea    	ecx, [esp + 0x48]
  0x1599	call   	0x1aa8
  === BLOCK LINK ===
    0x159e
=== CODE BLOCK END ===

=== CODE BLOCK ADDRESS 0x159e ===
  0x159e	mov    	esi, eax
  0x15a0	test   	eax, eax
  0x15a2	js     	0x1659
  === BLOCK LINK ===
    0x15a8
=== CODE BLOCK END ===

=== CODE BLOCK ADDRESS 0x15a8 ===
  0x15a8	xor    	ecx, ecx
  0x15aa	dec    	eax
  0x15ab	call   	dword ptr [0x2be7]
  === BLOCK LINK ===
    0x15b1
=== CODE BLOCK END ===

=== CODE BLOCK ADDRESS 0x15b1 ===
  0x15b1	nop    	dword ptr [eax + eax]
  0x15b6	inc    	ecx
  0x15b7	mov    	ecx, 0x100
  0x15bc	dec    	esp
  0x15bd	lea    	eax, [esp + 0x60]
  === BLOCK LINK ===
    0x15c1
=== CODE BLOCK END ===

=== CODE BLOCK ADDRESS 0x15c1 ===
  0x15c1	dec    	eax
  0x15c2	mov    	ecx, eax
  0x15c4	inc    	ecx
  0x15c5	mov    	edx, edi
  0x15c7	dec    	eax
  === BLOCK LINK ===
    0x15c8
=== CODE BLOCK END ===

=== CODE BLOCK ADDRESS 0x15c8 ===
  0x15c8	call   	dword ptr [0x2bc2]
  === BLOCK LINK ===
    0x15ce
=== CODE BLOCK END ===

=== CODE BLOCK ADDRESS 0x15ce ===
  0x15ce	nop    	dword ptr [eax + eax]
  0x15d3	test   	eax, eax
  0x15d5	jne    	0x15f1
  === BLOCK LINK ===
    0x15d7
=== CODE BLOCK END ===

=== CODE BLOCK ADDRESS 0x15d7 ===
  0x15d7	dec    	eax
  0x15d8	call   	dword ptr [0x2b92]
  === BLOCK LINK ===
    0x15de
=== CODE BLOCK END ===

=== CODE BLOCK ADDRESS 0x15de ===
  0x15de	nop    	dword ptr [eax + eax]
  0x15e3	movzx  	esi, ax
  0x15e6	or     	esi, 0x80070000
  0x15ec	test   	eax, eax
  0x15ee	cmovle  	esi, eax
  === BLOCK LINK ===
    0x15f1
=== CODE BLOCK END ===

=== CODE BLOCK ADDRESS 0x15f1 ===
  0x15f1	test   	esi, esi
  0x15f3	js     	0x1659
  === BLOCK LINK ===
    0x15f5
=== CODE BLOCK END ===

=== CODE BLOCK ADDRESS 0x15f5 ===
  0x15f5	dec    	eax
  0x15f6	mov    	edi, dword ptr [esp + 0x48]
  0x15fa	dec    	eax
  0x15fb	lea    	eax, [esp + 0x58]
  0x15ff	dec    	eax
  === BLOCK LINK ===
    0x1600
=== CODE BLOCK END ===

=== CODE BLOCK ADDRESS 0x1600 ===
  0x1600	mov    	dword ptr [esp + 0x30], eax
  0x1604	dec    	eax
  0x1605	lea    	edx, [esp + 0x60]
  0x1609	dec    	eax
  0x160a	lea    	eax, [esp + 0x50]
  === BLOCK LINK ===
    0x160e
=== CODE BLOCK END ===

=== CODE BLOCK ADDRESS 0x160e ===
  0x160e	inc    	esp
  0x160f	mov    	dword ptr [esp + 0x28], ebp
  0x1613	inc    	ebp
  0x1614	xor    	ecx, ecx
  0x1616	dec    	eax
  === BLOCK LINK ===
    0x1617
=== CODE BLOCK END ===

=== CODE BLOCK ADDRESS 0x1617 ===
  0x1617	mov    	dword ptr [esp + 0x20], eax
  0x161b	inc    	ebp
  0x161c	xor    	eax, eax
  0x161e	dec    	eax
  0x161f	mov    	dword ptr [esp + 0x58], edi
  === BLOCK LINK ===
    0x1623
=== CODE BLOCK END ===

=== CODE BLOCK ADDRESS 0x1623 ===
  0x1623	mov    	ecx, 0x2500
  0x1628	dec    	eax
  0x1629	call   	dword ptr [0x2b79]
  === BLOCK LINK ===
    0x162f
=== CODE BLOCK END ===

=== CODE BLOCK ADDRESS 0x162f ===
  0x162f	nop    	dword ptr [eax + eax]
  0x1634	test   	eax, eax
  0x1636	je     	0x164e
  === BLOCK LINK ===
    0x1638
=== CODE BLOCK END ===

=== CODE BLOCK ADDRESS 0x1638 ===
  0x1638	dec    	eax
  0x1639	mov    	edx, dword ptr [esp + 0x50]
  0x163d	dec    	eax
  0x163e	lea    	ecx, [ebp + 0x160]
  0x1644	inc    	ebp
  === BLOCK LINK ===
    0x1645
=== CODE BLOCK END ===

=== CODE BLOCK ADDRESS 0x1645 ===
  0x1645	mov    	eax, esi
  0x1647	call   	0x1e10
  === BLOCK LINK ===
    0x164c
=== CODE BLOCK END ===

=== CODE BLOCK ADDRESS 0x164c ===
  0x164c	jmp    	0x1653
  === BLOCK LINK ===
    0x164e
=== CODE BLOCK END ===

=== CODE BLOCK ADDRESS 0x164e ===
  0x164e	mov    	esi, 0x80004005
  0x1653	test   	esi, esi
  0x1655	jns    	0x16a5
  === BLOCK LINK ===
    0x1657
=== CODE BLOCK END ===

=== CODE BLOCK ADDRESS 0x1657 ===
  0x1657	jmp    	0x165e
  === BLOCK LINK ===
    0x1659
=== CODE BLOCK END ===

=== CODE BLOCK ADDRESS 0x1659 ===
  0x1659	dec    	eax
  0x165a	mov    	edi, dword ptr [esp + 0x48]
  0x165e	xor    	ecx, ecx
  0x1660	dec    	eax
  0x1661	call   	dword ptr [0x2b31]
  === BLOCK LINK ===
    0x1667
=== CODE BLOCK END ===

=== CODE BLOCK ADDRESS 0x1667 ===
  0x1667	nop    	dword ptr [eax + eax]
  0x166c	inc    	ecx
  0x166d	mov    	ecx, 0x100
  0x1672	dec    	esp
  0x1673	lea    	eax, [esp + 0x60]
  === BLOCK LINK ===
    0x1677
=== CODE BLOCK END ===

=== CODE BLOCK ADDRESS 0x1677 ===
  0x1677	dec    	eax
  0x1678	mov    	ecx, eax
  0x167a	inc    	ecx
  0x167b	mov    	edx, esp
  0x167d	dec    	eax
  === BLOCK LINK ===
    0x167e
=== CODE BLOCK END ===

=== CODE BLOCK ADDRESS 0x167e ===
  0x167e	call   	dword ptr [0x2b0c]
  === BLOCK LINK ===
    0x1684
=== CODE BLOCK END ===

=== CODE BLOCK ADDRESS 0x1684 ===
  0x1684	nop    	dword ptr [eax + eax]
  0x1689	inc    	ebp
  0x168a	mov    	eax, esi
  0x168c	dec    	eax
  0x168d	lea    	ecx, [ebp + 0x160]
  === BLOCK LINK ===
    0x1693
=== CODE BLOCK END ===

=== CODE BLOCK ADDRESS 0x1693 ===
  0x1693	test   	eax, eax
  0x1695	je     	0x169e
  === BLOCK LINK ===
    0x1697
=== CODE BLOCK END ===

=== CODE BLOCK ADDRESS 0x1697 ===
  0x1697	dec    	eax
  0x1698	lea    	edx, [esp + 0x60]
  0x169c	jmp    	0x16a0
  === BLOCK LINK ===
    0x169e
=== CODE BLOCK END ===

=== CODE BLOCK ADDRESS 0x169e ===
  0x169e	xor    	edx, edx
  0x16a0	call   	0x1e10
  === BLOCK LINK ===
    0x16a5
=== CODE BLOCK END ===

=== CODE BLOCK ADDRESS 0x16a5 ===
  0x16a5	dec    	eax
  0x16a6	mov    	ecx, dword ptr [esp + 0x50]
  0x16aa	dec    	eax
  0x16ab	test   	ecx, ecx
  0x16ad	je     	0x16bb
  === BLOCK LINK ===
    0x16af
=== CODE BLOCK END ===

=== CODE BLOCK ADDRESS 0x16af ===
  0x16af	dec    	eax
  0x16b0	call   	dword ptr [0x2aca]
  === BLOCK LINK ===
    0x16b6
=== CODE BLOCK END ===

=== CODE BLOCK ADDRESS 0x16b6 ===
  0x16b6	nop    	dword ptr [eax + eax]
  0x16bb	dec    	eax
  0x16bc	test   	edi, edi
  0x16be	je     	0x16cf
  === BLOCK LINK ===
    0x16c0
=== CODE BLOCK END ===

=== CODE BLOCK ADDRESS 0x16c0 ===
  0x16c0	dec    	eax
  0x16c1	mov    	ecx, edi
  0x16c3	dec    	eax
  0x16c4	call   	dword ptr [0x2a6e]
  === BLOCK LINK ===
    0x16ca
=== CODE BLOCK END ===

=== CODE BLOCK ADDRESS 0x16ca ===
  0x16ca	nop    	dword ptr [eax + eax]
  0x16cf	dec    	eax
  0x16d0	test   	ebx, ebx
  0x16d2	je     	0x16e3
  === BLOCK LINK ===
    0x16d4
=== CODE BLOCK END ===

=== CODE BLOCK ADDRESS 0x16d4 ===
  0x16d4	dec    	eax
  0x16d5	mov    	ecx, ebx
  0x16d7	dec    	eax
  0x16d8	call   	dword ptr [0x2a5a]
  === BLOCK LINK ===
    0x16de
=== CODE BLOCK END ===

=== CODE BLOCK ADDRESS 0x16de ===
  0x16de	nop    	dword ptr [eax + eax]
  0x16e3	dec    	eax
  0x16e4	mov    	ecx, dword ptr [ebp + 0x360]
  0x16ea	dec    	eax
  0x16eb	xor    	ecx, esp
  === BLOCK LINK ===
    0x16ed
=== CODE BLOCK END ===

=== CODE BLOCK ADDRESS 0x16ed ===
  0x16ed	call   	0x25c0
  === BLOCK LINK ===
    0x16f2
=== CODE BLOCK END ===

=== CODE BLOCK ADDRESS 0x16f2 ===
  0x16f2	dec    	eax
  0x16f3	add    	esp, 0x478
  0x16f9	inc    	ecx
  0x16fa	pop    	edi
  0x16fb	inc    	ecx
  === BLOCK LINK ===
    0x16fc
=== CODE BLOCK END ===

=== CODE BLOCK ADDRESS 0x16fc ===
  0x16fc	pop    	esi
  0x16fd	inc    	ecx
  0x16fe	pop    	ebp
  0x16ff	inc    	ecx
  0x1700	pop    	esp
  === BLOCK LINK ===
    0x1701
=== CODE BLOCK END ===

=== CODE BLOCK ADDRESS 0x1701 ===
  0x1701	pop    	edi
  0x1702	pop    	esi
  0x1703	pop    	ebx
  0x1704	pop    	ebp
  0x1705	ret    	
  === BLOCK LINK ===
    0x1706
=== CODE BLOCK END ===

=== CODE BLOCK ADDRESS 0x1706 ===
  0x1706	int3   	
  0x1707	int3   	
  0x1708	int3   	
  0x1709	int3   	
  0x170a	int3   	
  === BLOCK LINK ===
    0x170b
=== CODE BLOCK END ===

=== CODE BLOCK ADDRESS 0x170b ===
  0x170b	int3   	
  0x170c	int3   	
  0x170d	int3   	
  0x170e	int3   	
  0x170f	int3   	
  === BLOCK LINK ===
    0x1710
=== CODE BLOCK END ===

=== CODE BLOCK ADDRESS 0x1710 ===
  0x1710	dec    	eax
  0x1711	mov    	dword ptr [esp + 0x10], ebx
  0x1715	dec    	eax
  0x1716	mov    	dword ptr [esp + 0x18], esi
  0x171a	push   	ebp
  === BLOCK LINK ===
    0x171b
=== CODE BLOCK END ===

=== CODE BLOCK ADDRESS 0x171b ===
  0x171b	push   	edi
  0x171c	inc    	ecx
  0x171d	push   	esi
  0x171e	dec    	eax
  0x171f	lea    	ebp, [esp - 0x360]
  === BLOCK LINK ===
    0x1726
=== CODE BLOCK END ===

=== CODE BLOCK ADDRESS 0x1726 ===
  0x1726	dec    	eax
  0x1727	sub    	esp, 0x460
  0x172d	dec    	eax
  0x172e	mov    	eax, dword ptr [0x48e4]
  0x1734	dec    	eax
  === BLOCK LINK ===
    0x1735
=== CODE BLOCK END ===

=== CODE BLOCK ADDRESS 0x1735 ===
  0x1735	xor    	eax, esp
  0x1737	dec    	eax
  0x1738	mov    	dword ptr [ebp + 0x350], eax
  0x173e	dec    	eax
  0x173f	mov    	ebx, ecx
  === BLOCK LINK ===
    0x1741
=== CODE BLOCK END ===

=== CODE BLOCK ADDRESS 0x1741 ===
  0x1741	xor    	edi, edi
  0x1743	inc    	ecx
  0x1744	mov    	esi, 0x200
  0x1749	mov    	dword ptr [esp + 0x44], edi
  0x174d	inc    	ebp
  === BLOCK LINK ===
    0x174e
=== CODE BLOCK END ===

=== CODE BLOCK ADDRESS 0x174e ===
  0x174e	mov    	eax, esi
  0x1750	dec    	eax
  0x1751	mov    	dword ptr [esp + 0x48], edi
  0x1755	xor    	edx, edx
  0x1757	dec    	eax
  === BLOCK LINK ===
    0x1758
=== CODE BLOCK END ===

=== CODE BLOCK ADDRESS 0x1758 ===
  0x1758	lea    	ecx, [esp + 0x50]
  0x175c	call   	0x2bf6
  === BLOCK LINK ===
    0x1761
=== CODE BLOCK END ===

=== CODE BLOCK ADDRESS 0x1761 ===
  0x1761	inc    	ebp
  0x1762	mov    	eax, esi
  0x1764	dec    	eax
  0x1765	lea    	ecx, [ebp + 0x150]
  0x176b	xor    	edx, edx
  === BLOCK LINK ===
    0x176d
=== CODE BLOCK END ===

=== CODE BLOCK ADDRESS 0x176d ===
  0x176d	call   	0x2bf6
  === BLOCK LINK ===
    0x1772
=== CODE BLOCK END ===

=== CODE BLOCK ADDRESS 0x1772 ===
  0x1772	dec    	eax
  0x1773	test   	ebx, ebx
  0x1775	je     	0x18f9
  === BLOCK LINK ===
    0x177b
=== CODE BLOCK END ===

=== CODE BLOCK ADDRESS 0x177b ===
  0x177b	lea    	esi, [edi + 0x20]
  0x177e	jmp    	0x1784
  === BLOCK LINK ===
    0x1780
=== CODE BLOCK END ===

=== CODE BLOCK ADDRESS 0x1780 ===
  0x1780	dec    	eax
  0x1781	add    	ebx, 2
  0x1784	cmp    	word ptr [ebx], si
  0x1787	je     	0x1780
  === BLOCK LINK ===
    0x1789
=== CODE BLOCK END ===

=== CODE BLOCK ADDRESS 0x1789 ===
  0x1789	dec    	esp
  0x178a	lea    	eax, [esp + 0x44]
  0x178e	dec    	eax
  0x178f	mov    	ecx, ebx
  0x1791	dec    	eax
  === BLOCK LINK ===
    0x1792
=== CODE BLOCK END ===

=== CODE BLOCK ADDRESS 0x1792 ===
  0x1792	lea    	edx, [0x2c58]
  0x1798	dec    	eax
  0x1799	call   	dword ptr [0x2bb9]
  === BLOCK LINK ===
    0x179f
=== CODE BLOCK END ===

=== CODE BLOCK ADDRESS 0x179f ===
  0x179f	nop    	dword ptr [eax + eax]
  0x17a4	cmp    	eax, 1
  0x17a7	jne    	0x18dc
  === BLOCK LINK ===
    0x17ad
=== CODE BLOCK END ===

=== CODE BLOCK ADDRESS 0x17ad ===
  0x17ad	inc    	esp
  0x17ae	mov    	eax, dword ptr [esp + 0x44]
  0x17b2	mov    	word ptr [ebp + 0x150], di
  0x17b9	mov    	word ptr [esp + 0x50], di
  0x17be	inc    	ecx
  === BLOCK LINK ===
    0x17bf
=== CODE BLOCK END ===

=== CODE BLOCK ADDRESS 0x17bf ===
  0x17bf	cmp    	eax, 0x800f0248
  0x17c5	jne    	0x189b
  === BLOCK LINK ===
    0x17cb
=== CODE BLOCK END ===

=== CODE BLOCK ADDRESS 0x17cb ===
  0x17cb	dec    	eax
  0x17cc	lea    	eax, [esp + 0x48]
  0x17d0	inc    	ecx
  0x17d1	mov    	ecx, 0x20019
  0x17d6	inc    	ebp
  === BLOCK LINK ===
    0x17d7
=== CODE BLOCK END ===

=== CODE BLOCK ADDRESS 0x17d7 ===
  0x17d7	xor    	eax, eax
  0x17d9	dec    	eax
  0x17da	mov    	dword ptr [esp + 0x20], eax
  0x17de	dec    	eax
  0x17df	lea    	edx, [0x2c1b]
  === BLOCK LINK ===
    0x17e5
=== CODE BLOCK END ===

=== CODE BLOCK ADDRESS 0x17e5 ===
  0x17e5	dec    	eax
  0x17e6	mov    	ecx, 0x80000002
  0x17ec	dec    	eax
  0x17ed	call   	dword ptr [0x2a0d]
  === BLOCK LINK ===
    0x17f3
=== CODE BLOCK END ===

=== CODE BLOCK ADDRESS 0x17f3 ===
  0x17f3	nop    	dword ptr [eax + eax]
  0x17f8	test   	eax, eax
  0x17fa	jne    	0x188f
  === BLOCK LINK ===
    0x1800
=== CODE BLOCK END ===

=== CODE BLOCK ADDRESS 0x1800 ===
  0x1800	dec    	eax
  0x1801	mov    	ecx, dword ptr [esp + 0x48]
  0x1805	dec    	eax
  0x1806	lea    	eax, [esp + 0x40]
  0x180a	dec    	eax
  === BLOCK LINK ===
    0x180b
=== CODE BLOCK END ===

=== CODE BLOCK ADDRESS 0x180b ===
  0x180b	mov    	dword ptr [esp + 0x30], eax
  0x180f	dec    	esp
  0x1810	lea    	eax, [0x2c82]
  0x1816	dec    	eax
  0x1817	lea    	eax, [esp + 0x50]
  === BLOCK LINK ===
    0x181b
=== CODE BLOCK END ===

=== CODE BLOCK ADDRESS 0x181b ===
  0x181b	inc    	esp
  0x181c	mov    	dword ptr [esp + 0x40], esi
  0x1820	dec    	eax
  0x1821	mov    	dword ptr [esp + 0x28], eax
  0x1825	inc    	ecx
  === BLOCK LINK ===
    0x1826
=== CODE BLOCK END ===

=== CODE BLOCK ADDRESS 0x1826 ===
  0x1826	mov    	ecx, 2
  0x182b	xor    	edx, edx
  0x182d	dec    	eax
  0x182e	mov    	dword ptr [esp + 0x20], edi
  0x1832	dec    	eax
  === BLOCK LINK ===
    0x1833
=== CODE BLOCK END ===

=== CODE BLOCK ADDRESS 0x1833 ===
  0x1833	call   	dword ptr [0x29cf]
  === BLOCK LINK ===
    0x1839
=== CODE BLOCK END ===

=== CODE BLOCK ADDRESS 0x1839 ===
  0x1839	nop    	dword ptr [eax + eax]
  0x183e	dec    	eax
  0x183f	mov    	ecx, dword ptr [esp + 0x48]
  0x1843	dec    	eax
  0x1844	lea    	eax, [esp + 0x40]
  === BLOCK LINK ===
    0x1848
=== CODE BLOCK END ===

=== CODE BLOCK ADDRESS 0x1848 ===
  0x1848	dec    	eax
  0x1849	mov    	dword ptr [esp + 0x30], eax
  0x184d	dec    	esp
  0x184e	lea    	eax, [0x2c5c]
  0x1854	dec    	eax
  === BLOCK LINK ===
    0x1855
=== CODE BLOCK END ===

=== CODE BLOCK ADDRESS 0x1855 ===
  0x1855	lea    	eax, [ebp + 0x150]
  0x185b	inc    	esp
  0x185c	mov    	dword ptr [esp + 0x40], esi
  0x1860	dec    	eax
  0x1861	mov    	dword ptr [esp + 0x28], eax
  === BLOCK LINK ===
    0x1865
=== CODE BLOCK END ===

=== CODE BLOCK ADDRESS 0x1865 ===
  0x1865	inc    	ecx
  0x1866	mov    	ecx, 2
  0x186b	xor    	edx, edx
  0x186d	dec    	eax
  0x186e	mov    	dword ptr [esp + 0x20], edi
  === BLOCK LINK ===
    0x1872
=== CODE BLOCK END ===

=== CODE BLOCK ADDRESS 0x1872 ===
  0x1872	dec    	eax
  0x1873	call   	dword ptr [0x298f]
  === BLOCK LINK ===
    0x1879
=== CODE BLOCK END ===

=== CODE BLOCK ADDRESS 0x1879 ===
  0x1879	nop    	dword ptr [eax + eax]
  0x187e	dec    	eax
  0x187f	mov    	ecx, dword ptr [esp + 0x48]
  0x1883	dec    	eax
  0x1884	call   	dword ptr [0x296e]
  === BLOCK LINK ===
    0x188a
=== CODE BLOCK END ===

=== CODE BLOCK ADDRESS 0x188a ===
  0x188a	nop    	dword ptr [eax + eax]
  0x188f	cmp    	word ptr [esp + 0x50], di
  0x1894	jne    	0x18c8
  === BLOCK LINK ===
    0x1896
=== CODE BLOCK END ===

=== CODE BLOCK ADDRESS 0x1896 ===
  0x1896	inc    	esp
  0x1897	mov    	eax, dword ptr [esp + 0x44]
  0x189b	dec    	eax
  0x189c	mov    	dword ptr [esp + 0x30], edi
  0x18a0	dec    	eax
  === BLOCK LINK ===
    0x18a1
=== CODE BLOCK END ===

=== CODE BLOCK ADDRESS 0x18a1 ===
  0x18a1	lea    	eax, [esp + 0x50]
  0x18a5	mov    	dword ptr [esp + 0x28], 0x100
  0x18ad	inc    	ebp
  0x18ae	xor    	ecx, ecx
  0x18b0	xor    	edx, edx
  === BLOCK LINK ===
    0x18b2
=== CODE BLOCK END ===

=== CODE BLOCK ADDRESS 0x18b2 ===
  0x18b2	dec    	eax
  0x18b3	mov    	dword ptr [esp + 0x20], eax
  0x18b7	mov    	ecx, 0x1000
  0x18bc	dec    	eax
  0x18bd	call   	dword ptr [0x28e5]
  === BLOCK LINK ===
    0x18c3
=== CODE BLOCK END ===

=== CODE BLOCK ADDRESS 0x18c3 ===
  0x18c3	nop    	dword ptr [eax + eax]
  0x18c8	inc    	ebp
  0x18c9	xor    	eax, eax
  0x18cb	dec    	eax
  0x18cc	lea    	edx, [ebp + 0x150]
  === BLOCK LINK ===
    0x18d2
=== CODE BLOCK END ===

=== CODE BLOCK ADDRESS 0x18d2 ===
  0x18d2	dec    	eax
  0x18d3	lea    	ecx, [esp + 0x50]
  0x18d7	call   	0x1e10
  === BLOCK LINK ===
    0x18dc
=== CODE BLOCK END ===

=== CODE BLOCK ADDRESS 0x18dc ===
  0x18dc	mov    	edx, esi
  0x18de	dec    	eax
  0x18df	mov    	ecx, ebx
  0x18e1	dec    	eax
  0x18e2	call   	dword ptr [0x2a68]
  === BLOCK LINK ===
    0x18e8
=== CODE BLOCK END ===

=== CODE BLOCK ADDRESS 0x18e8 ===
  0x18e8	nop    	dword ptr [eax + eax]
  0x18ed	dec    	eax
  0x18ee	mov    	ebx, eax
  0x18f0	dec    	eax
  0x18f1	test   	eax, eax
  === BLOCK LINK ===
    0x18f3
=== CODE BLOCK END ===

=== CODE BLOCK ADDRESS 0x18f3 ===
  0x18f3	jne    	0x1784
  === BLOCK LINK ===
    0x18f9
=== CODE BLOCK END ===

=== CODE BLOCK ADDRESS 0x18f9 ===
  0x18f9	dec    	eax
  0x18fa	mov    	ecx, dword ptr [ebp + 0x350]
  0x1900	dec    	eax
  0x1901	xor    	ecx, esp
  0x1903	call   	0x25c0
  === BLOCK LINK ===
    0x1908
=== CODE BLOCK END ===

=== CODE BLOCK ADDRESS 0x1908 ===
  0x1908	dec    	esp
  0x1909	lea    	ebx, [esp + 0x460]
  0x1910	dec    	ecx
  0x1911	mov    	ebx, dword ptr [ebx + 0x28]
  0x1914	dec    	ecx
  === BLOCK LINK ===
    0x1915
=== CODE BLOCK END ===

=== CODE BLOCK ADDRESS 0x1915 ===
  0x1915	mov    	esi, dword ptr [ebx + 0x30]
  0x1918	dec    	ecx
  0x1919	mov    	esp, ebx
  0x191b	inc    	ecx
  0x191c	pop    	esi
  === BLOCK LINK ===
    0x191d
=== CODE BLOCK END ===

=== CODE BLOCK ADDRESS 0x191d ===
  0x191d	pop    	edi
  0x191e	pop    	ebp
  0x191f	ret    	
  0x1920	int3   	
  0x1921	int3   	
  === BLOCK LINK ===
    0x1922
=== CODE BLOCK END ===

=== CODE BLOCK ADDRESS 0x1922 ===
  0x1922	int3   	
  0x1923	int3   	
  0x1924	int3   	
  0x1925	int3   	
  0x1926	int3   	
  === BLOCK LINK ===
    0x1927
=== CODE BLOCK END ===

=== CODE BLOCK ADDRESS 0x1927 ===
  0x1927	int3   	
  0x1928	dec    	eax
  0x1929	mov    	dword ptr [esp + 8], ebx
  0x192d	dec    	eax
  0x192e	mov    	dword ptr [esp + 0x10], ebp
  === BLOCK LINK ===
    0x1932
=== CODE BLOCK END ===

=== CODE BLOCK ADDRESS 0x1932 ===
  0x1932	dec    	eax
  0x1933	mov    	dword ptr [esp + 0x18], esi
  0x1937	push   	edi
  0x1938	dec    	eax
  0x1939	sub    	esp, 0x50
  === BLOCK LINK ===
    0x193c
=== CODE BLOCK END ===

=== CODE BLOCK ADDRESS 0x193c ===
  0x193c	dec    	ecx
  0x193d	mov    	edi, eax
  0x193f	xor    	ebp, ebp
  0x1941	dec    	eax
  0x1942	mov    	dword ptr [0x4cc4], 1
  === BLOCK LINK ===
    0x194c
=== CODE BLOCK END ===

=== CODE BLOCK ADDRESS 0x194c ===
  0x194c	dec    	eax
  0x194d	lea    	eax, [0x2b85]
  0x1953	dec    	eax
  0x1954	mov    	dword ptr [0x4cae], ebp
  0x195a	dec    	eax
  === BLOCK LINK ===
    0x195b
=== CODE BLOCK END ===

=== CODE BLOCK ADDRESS 0x195b ===
  0x195b	lea    	ebx, [0x4c97]
  0x1961	dec    	eax
  0x1962	mov    	dword ptr [0x4c90], ebp
  0x1968	dec    	eax
  0x1969	mov    	dword ptr [0x4cb1], eax
  === BLOCK LINK ===
    0x196f
=== CODE BLOCK END ===

=== CODE BLOCK ADDRESS 0x196f ===
  0x196f	dec    	eax
  0x1970	lea    	esi, [0x4caa]
  0x1976	dec    	eax
  0x1977	mov    	dword ptr [0x4683], ebx
  0x197d	dec    	esp
  === BLOCK LINK ===
    0x197e
=== CODE BLOCK END ===

=== CODE BLOCK ADDRESS 0x197e ===
  0x197e	mov    	eax, dword ptr [esi]
  0x1980	dec    	eax
  0x1981	lea    	eax, [ebx + 8]
  0x1984	dec    	eax
  0x1985	mov    	dword ptr [esp + 0x38], eax
  === BLOCK LINK ===
    0x1989
=== CODE BLOCK END ===

=== CODE BLOCK ADDRESS 0x1989 ===
  0x1989	dec    	eax
  0x198a	lea    	ecx, [0xfffff6f0]
  0x1990	dec    	eax
  0x1991	mov    	dword ptr [esp + 0x30], ebp
  0x1995	dec    	eax
  === BLOCK LINK ===
    0x1996
=== CODE BLOCK END ===

=== CODE BLOCK ADDRESS 0x1996 ===
  0x1996	lea    	eax, [esp + 0x40]
  0x199a	dec    	esp
  0x199b	mov    	dword ptr [esp + 0x40], eax
  0x199f	dec    	eax
  0x19a0	lea    	esi, [esi + 8]
  === BLOCK LINK ===
    0x19a3
=== CODE BLOCK END ===

=== CODE BLOCK ADDRESS 0x19a3 ===
  0x19a3	dec    	eax
  0x19a4	mov    	dword ptr [esp + 0x48], ebp
  0x19a8	inc    	ecx
  0x19a9	mov    	ecx, 1
  0x19ae	dec    	eax
  === BLOCK LINK ===
    0x19af
=== CODE BLOCK END ===

=== CODE BLOCK ADDRESS 0x19af ===
  0x19af	mov    	dword ptr [esp + 0x28], ebp
  0x19b3	dec    	eax
  0x19b4	mov    	edx, ebx
  0x19b6	dec    	eax
  0x19b7	mov    	dword ptr [esp + 0x20], eax
  === BLOCK LINK ===
    0x19bb
=== CODE BLOCK END ===

=== CODE BLOCK ADDRESS 0x19bb ===
  0x19bb	dec    	esp
  0x19bc	mov    	dword ptr [ebx + 0x20], eax
  0x19bf	dec    	eax
  0x19c0	call   	dword ptr [0x28e2]
  === BLOCK LINK ===
    0x19c6
=== CODE BLOCK END ===

=== CODE BLOCK ADDRESS 0x19c6 ===
  0x19c6	nop    	dword ptr [eax + eax]
  0x19cb	dec    	eax
  0x19cc	mov    	ebx, dword ptr [ebx]
  0x19ce	dec    	eax
  0x19cf	test   	ebx, ebx
  === BLOCK LINK ===
    0x19d1
=== CODE BLOCK END ===

=== CODE BLOCK ADDRESS 0x19d1 ===
  0x19d1	jne    	0x197d
  === BLOCK LINK ===
    0x19d3
=== CODE BLOCK END ===

=== CODE BLOCK ADDRESS 0x19d3 ===
  0x19d3	dec    	eax
  0x19d4	mov    	ebx, dword ptr [0x4626]
  0x19da	dec    	eax
  0x19db	lea    	esi, [0x461f]
  0x19e1	dec    	eax
  === BLOCK LINK ===
    0x19e2
=== CODE BLOCK END ===

=== CODE BLOCK ADDRESS 0x19e2 ===
  0x19e2	cmp    	ebx, esi
  0x19e4	je     	0x19ff
  === BLOCK LINK ===
    0x19e6
=== CODE BLOCK END ===

=== CODE BLOCK ADDRESS 0x19e6 ===
  0x19e6	test   	byte ptr [ebx + 0x1c], 1
  0x19ea	je     	0x19ff
  === BLOCK LINK ===
    0x19ec
=== CODE BLOCK END ===

=== CODE BLOCK ADDRESS 0x19ec ===
  0x19ec	dec    	eax
  0x19ed	mov    	ecx, dword ptr [ebx + 0x10]
  0x19f0	dec    	esp
  0x19f1	mov    	ecx, edi
  0x19f3	call   	0x1008
  === BLOCK LINK ===
    0x19f8
=== CODE BLOCK END ===

=== CODE BLOCK ADDRESS 0x19f8 ===
  0x19f8	dec    	eax
  0x19f9	mov    	ebx, dword ptr [0x4601]
  0x19ff	dec    	eax
  0x1a00	or     	eax, 0xffffffff
  0x1a03	dec    	eax
  === BLOCK LINK ===
    0x1a04
=== CODE BLOCK END ===

=== CODE BLOCK ADDRESS 0x1a04 ===
  0x1a04	inc    	eax
  0x1a06	cmp    	word ptr [edi + eax*2], bp
  0x1a0a	jne    	0x1a03
  === BLOCK LINK ===
    0x1a0c
=== CODE BLOCK END ===

=== CODE BLOCK ADDRESS 0x1a0c ===
  0x1a0c	dec    	eax
  0x1a0d	cmp    	eax, 4
  0x1a10	jbe    	0x1a5b
  === BLOCK LINK ===
    0x1a12
=== CODE BLOCK END ===

=== CODE BLOCK ADDRESS 0x1a12 ===
  0x1a12	cmp    	word ptr [edi], 0x3f
  0x1a16	jne    	0x1a23
  === BLOCK LINK ===
    0x1a18
=== CODE BLOCK END ===

=== CODE BLOCK ADDRESS 0x1a18 ===
  0x1a18	dec    	eax
  0x1a19	lea    	ecx, [edi + 2]
  0x1a1c	call   	0x1710
  === BLOCK LINK ===
    0x1a21
=== CODE BLOCK END ===

=== CODE BLOCK ADDRESS 0x1a21 ===
  0x1a21	jmp    	0x1a54
  === BLOCK LINK ===
    0x1a23
=== CODE BLOCK END ===

=== CODE BLOCK ADDRESS 0x1a23 ===
  0x1a23	cmp    	word ptr [edi], 0x4e
  0x1a27	jne    	0x1a38
  === BLOCK LINK ===
    0x1a29
=== CODE BLOCK END ===

=== CODE BLOCK ADDRESS 0x1a29 ===
  0x1a29	mov    	edx, 1
  0x1a2e	inc    	esp
  0x1a2f	lea    	ecx, [edx + 2]
  0x1a32	inc    	esp
  0x1a33	lea    	eax, [edx + 1]
  === BLOCK LINK ===
    0x1a36
=== CODE BLOCK END ===

=== CODE BLOCK ADDRESS 0x1a36 ===
  0x1a36	jmp    	0x1a4b
  === BLOCK LINK ===
    0x1a38
=== CODE BLOCK END ===

=== CODE BLOCK ADDRESS 0x1a38 ===
  0x1a38	cmp    	word ptr [edi], 0x43
  0x1a3c	jne    	0x1a5b
  === BLOCK LINK ===
    0x1a3e
=== CODE BLOCK END ===

=== CODE BLOCK ADDRESS 0x1a3e ===
  0x1a3e	mov    	edx, 4
  0x1a43	inc    	esp
  0x1a44	lea    	ecx, [edx + 2]
  0x1a47	inc    	esp
  0x1a48	lea    	eax, [edx + 1]
  === BLOCK LINK ===
    0x1a4b
=== CODE BLOCK END ===

=== CODE BLOCK ADDRESS 0x1a4b ===
  0x1a4b	dec    	eax
  0x1a4c	lea    	ecx, [edi + 2]
  0x1a4f	call   	0x14cc
  === BLOCK LINK ===
    0x1a54
=== CODE BLOCK END ===

=== CODE BLOCK ADDRESS 0x1a54 ===
  0x1a54	dec    	eax
  0x1a55	mov    	ebx, dword ptr [0x45a5]
  0x1a5b	dec    	eax
  0x1a5c	cmp    	ebx, esi
  0x1a5e	je     	0x1a8a
  === BLOCK LINK ===
    0x1a60
=== CODE BLOCK END ===

=== CODE BLOCK ADDRESS 0x1a60 ===
  0x1a60	jmp    	0x1a7e
  === BLOCK LINK ===
    0x1a62
=== CODE BLOCK END ===

=== CODE BLOCK ADDRESS 0x1a62 ===
  0x1a62	dec    	eax
  0x1a63	mov    	ecx, dword ptr [ebx + 8]
  0x1a66	dec    	eax
  0x1a67	test   	ecx, ecx
  0x1a69	je     	0x1a7b
  === BLOCK LINK ===
    0x1a6b
=== CODE BLOCK END ===

=== CODE BLOCK ADDRESS 0x1a6b ===
  0x1a6b	dec    	eax
  0x1a6c	call   	dword ptr [0x2826]
  === BLOCK LINK ===
    0x1a72
=== CODE BLOCK END ===

=== CODE BLOCK ADDRESS 0x1a72 ===
  0x1a72	nop    	dword ptr [eax + eax]
  0x1a77	dec    	eax
  0x1a78	mov    	dword ptr [ebx + 8], ebp
  0x1a7b	dec    	eax
  0x1a7c	mov    	ebx, dword ptr [ebx]
  === BLOCK LINK ===
    0x1a7e
=== CODE BLOCK END ===

=== CODE BLOCK ADDRESS 0x1a7e ===
  0x1a7e	dec    	eax
  0x1a7f	test   	ebx, ebx
  0x1a81	jne    	0x1a62
  === BLOCK LINK ===
    0x1a83
=== CODE BLOCK END ===

=== CODE BLOCK ADDRESS 0x1a83 ===
  0x1a83	dec    	eax
  0x1a84	mov    	dword ptr [0x4576], esi
  0x1a8a	dec    	eax
  0x1a8b	mov    	ebx, dword ptr [esp + 0x60]
  0x1a8f	xor    	eax, eax
  === BLOCK LINK ===
    0x1a91
=== CODE BLOCK END ===

=== CODE BLOCK ADDRESS 0x1a91 ===
  0x1a91	dec    	eax
  0x1a92	mov    	ebp, dword ptr [esp + 0x68]
  0x1a96	dec    	eax
  0x1a97	mov    	esi, dword ptr [esp + 0x70]
  0x1a9b	dec    	eax
  === BLOCK LINK ===
    0x1a9c
=== CODE BLOCK END ===

=== CODE BLOCK ADDRESS 0x1a9c ===
  0x1a9c	add    	esp, 0x50
  0x1a9f	pop    	edi
  0x1aa0	ret    	
  0x1aa1	int3   	
  0x1aa2	int3   	
  === BLOCK LINK ===
    0x1aa3
=== CODE BLOCK END ===

=== CODE BLOCK ADDRESS 0x1101 ===
  0x1101	dec    	eax
  0x1102	mov    	ebx, dword ptr [esp + 0x30]
  0x1106	dec    	eax
  === BLOCK LINK ===
    0x1107
=== CODE BLOCK END ===

=== CODE BLOCK ADDRESS 0x1aa3 ===
  0x1aa3	int3   	
  0x1aa4	int3   	
  0x1aa5	int3   	
  0x1aa6	int3   	
  0x1aa7	int3   	
  === BLOCK LINK ===
    0x1aa8
=== CODE BLOCK END ===

=== CODE BLOCK ADDRESS 0x1aa8 ===
  0x1aa8	dec    	eax
  0x1aa9	mov    	dword ptr [esp + 0x18], ebx
  0x1aad	dec    	eax
  0x1aae	mov    	dword ptr [esp + 8], ecx
  0x1ab2	push   	ebp
  === BLOCK LINK ===
    0x1ab3
=== CODE BLOCK END ===

=== CODE BLOCK ADDRESS 0x1ab3 ===
  0x1ab3	push   	esi
  0x1ab4	push   	edi
  0x1ab5	inc    	ecx
  0x1ab6	push   	esp
  0x1ab7	inc    	ecx
  === BLOCK LINK ===
    0x1ab8
=== CODE BLOCK END ===

=== CODE BLOCK ADDRESS 0x1ab8 ===
  0x1ab8	push   	ebp
  0x1ab9	inc    	ecx
  0x1aba	push   	esi
  0x1abb	inc    	ecx
  0x1abc	push   	edi
  === BLOCK LINK ===
    0x1abd
=== CODE BLOCK END ===

=== CODE BLOCK ADDRESS 0x1abd ===
  0x1abd	dec    	eax
  0x1abe	sub    	esp, 0x20
  0x1ac1	xor    	ebx, ebx
  0x1ac3	dec    	eax
  0x1ac4	mov    	esi, edx
  === BLOCK LINK ===
    0x1ac6
=== CODE BLOCK END ===

=== CODE BLOCK ADDRESS 0x1ac6 ===
  0x1ac6	dec    	esp
  0x1ac7	mov    	esi, ecx
  0x1ac9	mov    	edi, ebx
  0x1acb	lea    	ebp, [ebx + 2]
  0x1ace	dec    	eax
  === BLOCK LINK ===
    0x1acf
=== CODE BLOCK END ===

=== CODE BLOCK ADDRESS 0x1acf ===
  0x1acf	test   	edx, edx
  0x1ad1	je     	0x1b12
  === BLOCK LINK ===
    0x1ad3
=== CODE BLOCK END ===

=== CODE BLOCK ADDRESS 0x1ad3 ===
  0x1ad3	movzx  	eax, word ptr [edx]
  0x1ad6	inc    	esp
  0x1ad7	mov    	edi, ebx
  0x1ad9	jmp    	0x1b0b
  === BLOCK LINK ===
    0x1adb
=== CODE BLOCK END ===

=== CODE BLOCK ADDRESS 0x1adb ===
  0x1adb	movzx  	ecx, ax
  0x1ade	sub    	ecx, 0x22
  0x1ae1	je     	0x1b00
  === BLOCK LINK ===
    0x1ae3
=== CODE BLOCK END ===

=== CODE BLOCK ADDRESS 0x1ae3 ===
  0x1ae3	sub    	ecx, 4
  0x1ae6	je     	0x1afb
  === BLOCK LINK ===
    0x1ae8
=== CODE BLOCK END ===

=== CODE BLOCK ADDRESS 0x1ae8 ===
  0x1ae8	sub    	ecx, 1
  0x1aeb	je     	0x1b00
  === BLOCK LINK ===
    0x1aed
=== CODE BLOCK END ===

=== CODE BLOCK ADDRESS 0x1aed ===
  0x1aed	sub    	ecx, 0x15
  0x1af0	je     	0x1af6
  === BLOCK LINK ===
    0x1af2
=== CODE BLOCK END ===

=== CODE BLOCK ADDRESS 0x1af2 ===
  0x1af2	cmp    	ecx, ebp
  0x1af4	jne    	0x1b03
  === BLOCK LINK ===
    0x1af6
=== CODE BLOCK END ===

=== CODE BLOCK ADDRESS 0x1af6 ===
  0x1af6	add    	edi, 3
  0x1af9	jmp    	0x1b03
  === BLOCK LINK ===
    0x1afb
=== CODE BLOCK END ===

=== CODE BLOCK ADDRESS 0x1afb ===
  0x1afb	add    	edi, 4
  0x1afe	jmp    	0x1b03
  === BLOCK LINK ===
    0x1b00
=== CODE BLOCK END ===

=== CODE BLOCK ADDRESS 0x1b00 ===
  0x1b00	add    	edi, 5
  0x1b03	inc    	ecx
  0x1b04	inc    	edi
  0x1b06	inc    	edx
  0x1b07	movzx  	eax, word ptr [edx + edi*2]
  === BLOCK LINK ===
    0x1b0b
=== CODE BLOCK END ===

=== CODE BLOCK ADDRESS 0x1b0b ===
  0x1b0b	test   	ax, ax
  0x1b0e	jne    	0x1adb
  === BLOCK LINK ===
    0x1b10
=== CODE BLOCK END ===

=== CODE BLOCK ADDRESS 0x1b10 ===
  0x1b10	jmp    	0x1b17
  === BLOCK LINK ===
    0x1b12
=== CODE BLOCK END ===

=== CODE BLOCK ADDRESS 0x1b12 ===
  0x1b12	inc    	esp
  0x1b13	mov    	edi, dword ptr [esp + 0x68]
  0x1b17	test   	edi, edi
  0x1b19	jne    	0x1b4e
  === BLOCK LINK ===
    0x1b1b
=== CODE BLOCK END ===

=== CODE BLOCK ADDRESS 0x1b1b ===
  0x1b1b	dec    	ecx
  0x1b1c	cmp    	dword ptr [esi], ebx
  0x1b1e	je     	0x1b2f
  === BLOCK LINK ===
    0x1b20
=== CODE BLOCK END ===

=== CODE BLOCK ADDRESS 0x1b20 ===
  0x1b20	dec    	ecx
  0x1b21	mov    	ecx, dword ptr [esi]
  0x1b23	dec    	eax
  0x1b24	call   	dword ptr [0x260e]
  === BLOCK LINK ===
    0x1b2a
=== CODE BLOCK END ===

=== CODE BLOCK ADDRESS 0x1b2a ===
  0x1b2a	nop    	dword ptr [eax + eax]
  0x1b2f	dec    	eax
  0x1b30	test   	esi, esi
  0x1b32	je     	0x1b46
  === BLOCK LINK ===
    0x1b34
=== CODE BLOCK END ===

=== CODE BLOCK ADDRESS 0x1b34 ===
  0x1b34	dec    	ecx
  0x1b35	mov    	edx, esi
  0x1b37	dec    	eax
  0x1b38	mov    	ecx, esi
  0x1b3a	call   	0x1ccc
  === BLOCK LINK ===
    0x1b3f
=== CODE BLOCK END ===

=== CODE BLOCK ADDRESS 0x1b3f ===
  0x1b3f	mov    	ebx, eax
  0x1b41	jmp    	0x1cab
  === BLOCK LINK ===
    0x1b46
=== CODE BLOCK END ===

=== CODE BLOCK ADDRESS 0x1b46 ===
  0x1b46	dec    	ecx
  0x1b47	mov    	dword ptr [esi], ebx
  0x1b49	jmp    	0x1cab
  === BLOCK LINK ===
    0x1b4e
=== CODE BLOCK END ===

=== CODE BLOCK ADDRESS 0x1b4e ===
  0x1b4e	dec    	ecx
  0x1b4f	cmp    	dword ptr [esi], ebx
  0x1b51	je     	0x1b62
  === BLOCK LINK ===
    0x1b53
=== CODE BLOCK END ===

=== CODE BLOCK ADDRESS 0x1b53 ===
  0x1b53	dec    	ecx
  0x1b54	mov    	ecx, dword ptr [esi]
  0x1b56	dec    	eax
  0x1b57	call   	dword ptr [0x25db]
  === BLOCK LINK ===
    0x1b5d
=== CODE BLOCK END ===

=== CODE BLOCK ADDRESS 0x1b5d ===
  0x1b5d	nop    	dword ptr [eax + eax]
  0x1b62	inc    	ecx
  0x1b63	add    	edi, edi
  0x1b65	dec    	ecx
  0x1b66	mov    	dword ptr [esi], ebx
  === BLOCK LINK ===
    0x1b68
=== CODE BLOCK END ===

=== CODE BLOCK ADDRESS 0x1b68 ===
  0x1b68	lea    	ecx, [edi + 1]
  0x1b6b	dec    	eax
  0x1b6c	add    	ecx, ecx
  0x1b6e	dec    	eax
  0x1b6f	call   	dword ptr [0x25b3]
  === BLOCK LINK ===
    0x1b75
=== CODE BLOCK END ===

=== CODE BLOCK ADDRESS 0x1b75 ===
  0x1b75	nop    	dword ptr [eax + eax]
  0x1b7a	dec    	ecx
  0x1b7b	mov    	dword ptr [esi], eax
  0x1b7d	dec    	eax
  0x1b7e	mov    	ecx, eax
  === BLOCK LINK ===
    0x1b80
=== CODE BLOCK END ===

=== CODE BLOCK ADDRESS 0x1b80 ===
  0x1b80	dec    	eax
  0x1b81	test   	eax, eax
  0x1b83	jne    	0x1b8f
  === BLOCK LINK ===
    0x1b85
=== CODE BLOCK END ===

=== CODE BLOCK ADDRESS 0x1b85 ===
  0x1b85	mov    	ebx, 0x8007000e
  0x1b8a	jmp    	0x1cab
  === BLOCK LINK ===
    0x1b8f
=== CODE BLOCK END ===

=== CODE BLOCK ADDRESS 0x1b8f ===
  0x1b8f	dec    	esp
  0x1b90	lea    	ecx, [eax + edi*2]
  0x1b93	dec    	ecx
  0x1b94	cmp    	eax, ecx
  0x1b96	jae    	0x1c80
  === BLOCK LINK ===
    0x1b9c
=== CODE BLOCK END ===

=== CODE BLOCK ADDRESS 0x1b9c ===
  0x1b9c	mov    	edi, 0x3b
  0x1ba1	inc    	esp
  0x1ba2	lea    	ebx, [edi - 0x15]
  0x1ba5	inc    	esp
  0x1ba6	lea    	edi, [edi + 0x39]
  === BLOCK LINK ===
    0x1ba9
=== CODE BLOCK END ===

=== CODE BLOCK ADDRESS 0x1ba9 ===
  0x1ba9	inc    	esp
  0x1baa	lea    	esp, [edi + 0x26]
  0x1bad	inc    	esp
  0x1bae	lea    	ebp, [edi + 0x35]
  0x1bb1	inc    	esp
  === BLOCK LINK ===
    0x1bb2
=== CODE BLOCK END ===

=== CODE BLOCK ADDRESS 0x1bb2 ===
  0x1bb2	lea    	esi, [edi + 0x34]
  0x1bb5	inc    	esp
  0x1bb6	movzx  	edx, word ptr [esi]
  0x1bb9	dec    	esp
  0x1bba	lea    	eax, [ecx + 2]
  === BLOCK LINK ===
    0x1bbd
=== CODE BLOCK END ===

=== CODE BLOCK ADDRESS 0x1bbd ===
  0x1bbd	inc    	ecx
  0x1bbe	mov    	edx, edx
  0x1bc0	dec    	eax
  0x1bc1	add    	esi, ebp
  0x1bc3	sub    	edx, 0x22
  === BLOCK LINK ===
    0x1bc6
=== CODE BLOCK END ===

=== CODE BLOCK ADDRESS 0x1bc6 ===
  0x1bc6	je     	0x1c42
  === BLOCK LINK ===
    0x1bc8
=== CODE BLOCK END ===

=== CODE BLOCK ADDRESS 0x1bc8 ===
  0x1bc8	sub    	edx, 4
  0x1bcb	je     	0x1c25
  === BLOCK LINK ===
    0x1bcd
=== CODE BLOCK END ===

=== CODE BLOCK ADDRESS 0x1bcd ===
  0x1bcd	sub    	edx, 1
  0x1bd0	je     	0x1c01
  === BLOCK LINK ===
    0x1bd2
=== CODE BLOCK END ===

=== CODE BLOCK ADDRESS 0x1bd2 ===
  0x1bd2	sub    	edx, 0x15
  0x1bd5	je     	0x1bfa
  === BLOCK LINK ===
    0x1bd7
=== CODE BLOCK END ===

=== CODE BLOCK ADDRESS 0x1bd7 ===
  0x1bd7	cmp    	edx, ebp
  0x1bd9	je     	0x1be7
  === BLOCK LINK ===
    0x1bdb
=== CODE BLOCK END ===

=== CODE BLOCK ADDRESS 0x1bdb ===
  0x1bdb	inc    	sp
  0x1bdd	mov    	dword ptr [ecx], edx
  0x1bdf	dec    	ecx
  0x1be0	mov    	ecx, eax
  0x1be2	jmp    	0x1c72
  === BLOCK LINK ===
    0x1be7
=== CODE BLOCK END ===

=== CODE BLOCK ADDRESS 0x1be7 ===
  0x1be7	mov    	eax, 0x67
  0x1bec	inc    	sp
  0x1bee	mov    	dword ptr [ecx], ebx
  0x1bf0	dec    	ecx
  0x1bf1	lea    	ecx, [eax + ebp]
  === BLOCK LINK ===
    0x1bf4
=== CODE BLOCK END ===

=== CODE BLOCK ADDRESS 0x1bf4 ===
  0x1bf4	inc    	cx
  0x1bf6	mov    	dword ptr [eax], eax
  0x1bf8	jmp    	0x1c65
  === BLOCK LINK ===
    0x1bfa
=== CODE BLOCK END ===

=== CODE BLOCK ADDRESS 0x1bfa ===
  0x1bfa	mov    	eax, 0x6c
  0x1bff	jmp    	0x1bec
  === BLOCK LINK ===
    0x1c01
=== CODE BLOCK END ===

=== CODE BLOCK ADDRESS 0x1c01 ===
  0x1c01	inc    	sp
  0x1c03	mov    	dword ptr [ecx], ebx
  0x1c05	mov    	eax, 0x73
  0x1c0a	dec    	ecx
  0x1c0b	lea    	ecx, [eax + ebp]
  === BLOCK LINK ===
    0x1c0e
=== CODE BLOCK END ===

=== CODE BLOCK ADDRESS 0x1c0e ===
  0x1c0e	inc    	bp
  0x1c10	mov    	dword ptr [eax], esp
  0x1c12	inc    	sp
  0x1c14	mov    	dword ptr [ecx], ebp
  0x1c16	dec    	eax
  === BLOCK LINK ===
    0x1c17
=== CODE BLOCK END ===

=== CODE BLOCK ADDRESS 0x1c17 ===
  0x1c17	add    	ecx, ebp
  0x1c19	inc    	sp
  0x1c1b	mov    	dword ptr [ecx], esi
  0x1c1d	dec    	eax
  0x1c1e	add    	ecx, ebp
  === BLOCK LINK ===
    0x1c20
=== CODE BLOCK END ===

=== CODE BLOCK ADDRESS 0x1c20 ===
  0x1c20	mov    	word ptr [ecx], ax
  0x1c23	jmp    	0x1c69
  === BLOCK LINK ===
    0x1c25
=== CODE BLOCK END ===

=== CODE BLOCK ADDRESS 0x1c25 ===
  0x1c25	inc    	sp
  0x1c27	mov    	dword ptr [ecx], ebx
  0x1c29	mov    	eax, 0x6d
  0x1c2e	dec    	ecx
  0x1c2f	lea    	ecx, [eax + ebp]
  === BLOCK LINK ===
    0x1c32
=== CODE BLOCK END ===

=== CODE BLOCK ADDRESS 0x1c32 ===
  0x1c32	inc    	bp
  0x1c34	mov    	dword ptr [eax], esp
  0x1c36	mov    	word ptr [ecx], ax
  0x1c39	dec    	eax
  0x1c3a	add    	ecx, ebp
  === BLOCK LINK ===
    0x1c3c
=== CODE BLOCK END ===

=== CODE BLOCK ADDRESS 0x1c3c ===
  0x1c3c	inc    	sp
  0x1c3e	mov    	dword ptr [ecx], ebp
  0x1c40	jmp    	0x1c69
  === BLOCK LINK ===
    0x1c42
=== CODE BLOCK END ===

=== CODE BLOCK ADDRESS 0x1c42 ===
  0x1c42	inc    	sp
  0x1c44	mov    	dword ptr [ecx], ebx
  0x1c46	mov    	eax, 0x71
  0x1c4b	dec    	ecx
  0x1c4c	lea    	ecx, [eax + ebp]
  === BLOCK LINK ===
    0x1c4f
=== CODE BLOCK END ===

=== CODE BLOCK ADDRESS 0x1c4f ===
  0x1c4f	inc    	cx
  0x1c51	mov    	dword ptr [eax], eax
  0x1c53	mov    	eax, 0x75
  0x1c58	mov    	word ptr [ecx], ax
  0x1c5b	dec    	eax
  === BLOCK LINK ===
    0x1c5c
=== CODE BLOCK END ===

=== CODE BLOCK ADDRESS 0x1c5c ===
  0x1c5c	add    	ecx, ebp
  0x1c5e	inc    	sp
  0x1c60	mov    	dword ptr [ecx], esi
  0x1c62	dec    	eax
  0x1c63	add    	ecx, ebp
  === BLOCK LINK ===
    0x1c65
=== CODE BLOCK END ===

=== CODE BLOCK ADDRESS 0x1c65 ===
  0x1c65	inc    	sp
  0x1c67	mov    	dword ptr [ecx], edi
  0x1c69	dec    	eax
  0x1c6a	add    	ecx, ebp
  0x1c6c	mov    	word ptr [ecx], di
  === BLOCK LINK ===
    0x1c6f
=== CODE BLOCK END ===

=== CODE BLOCK ADDRESS 0x1c6f ===
  0x1c6f	dec    	eax
  0x1c70	add    	ecx, ebp
  0x1c72	dec    	ecx
  0x1c73	cmp    	ecx, ecx
  0x1c75	jb     	0x1bb5
  === BLOCK LINK ===
    0x1c7b
=== CODE BLOCK END ===

=== CODE BLOCK ADDRESS 0x1c7b ===
  0x1c7b	dec    	esp
  0x1c7c	mov    	esi, dword ptr [esp + 0x60]
  0x1c80	dec    	ecx
  0x1c81	cmp    	ecx, ecx
  0x1c83	jne    	0x1c8f
  === BLOCK LINK ===
    0x1c85
=== CODE BLOCK END ===

=== CODE BLOCK ADDRESS 0x1c85 ===
  0x1c85	cmp    	word ptr [esi], bx
  0x1c88	jne    	0x1c8f
  === BLOCK LINK ===
    0x1c8a
=== CODE BLOCK END ===

=== CODE BLOCK ADDRESS 0x1c8a ===
  0x1c8a	mov    	word ptr [ecx], bx
  0x1c8d	jmp    	0x1cab
  === BLOCK LINK ===
    0x1c8f
=== CODE BLOCK END ===

=== CODE BLOCK ADDRESS 0x1c8f ===
  0x1c8f	dec    	ecx
  0x1c90	cmp    	dword ptr [esi], ebx
  0x1c92	je     	0x1ca3
  === BLOCK LINK ===
    0x1c94
=== CODE BLOCK END ===

=== CODE BLOCK ADDRESS 0x1c94 ===
  0x1c94	dec    	ecx
  0x1c95	mov    	ecx, dword ptr [esi]
  0x1c97	dec    	eax
  0x1c98	call   	dword ptr [0x249a]
  === BLOCK LINK ===
    0x1c9e
=== CODE BLOCK END ===

=== CODE BLOCK ADDRESS 0x1c9e ===
  0x1c9e	nop    	dword ptr [eax + eax]
  0x1ca3	dec    	ecx
  0x1ca4	mov    	dword ptr [esi], ebx
  0x1ca6	mov    	ebx, 0x80004005
  0x1cab	mov    	eax, ebx
  === BLOCK LINK ===
    0x1cad
=== CODE BLOCK END ===

=== CODE BLOCK ADDRESS 0x1cad ===
  0x1cad	dec    	eax
  0x1cae	mov    	ebx, dword ptr [esp + 0x70]
  0x1cb2	dec    	eax
  0x1cb3	add    	esp, 0x20
  0x1cb6	inc    	ecx
  === BLOCK LINK ===
    0x1cb7
=== CODE BLOCK END ===

=== CODE BLOCK ADDRESS 0x1cb7 ===
  0x1cb7	pop    	edi
  0x1cb8	inc    	ecx
  0x1cb9	pop    	esi
  0x1cba	inc    	ecx
  0x1cbb	pop    	ebp
  === BLOCK LINK ===
    0x1cbc
=== CODE BLOCK END ===

=== CODE BLOCK ADDRESS 0x1cbc ===
  0x1cbc	inc    	ecx
  0x1cbd	pop    	esp
  0x1cbe	pop    	edi
  0x1cbf	pop    	esi
  0x1cc0	pop    	ebp
  === BLOCK LINK ===
    0x1cc1
=== CODE BLOCK END ===

=== CODE BLOCK ADDRESS 0x1cc1 ===
  0x1cc1	ret    	
  0x1cc2	int3   	
  0x1cc3	int3   	
  0x1cc4	int3   	
  0x1cc5	int3   	
  === BLOCK LINK ===
    0x1cc6
=== CODE BLOCK END ===

=== CODE BLOCK ADDRESS 0x10e3 ===
  0x10e3	test   	byte ptr [ebx + 0x1a], 2
  0x10e7	je     	0x10f4
  === BLOCK LINK ===
    0x10e9
=== CODE BLOCK END ===

=== CODE BLOCK ADDRESS 0x1cc6 ===
  0x1cc6	int3   	
  0x1cc7	int3   	
  0x1cc8	int3   	
  0x1cc9	int3   	
  0x1cca	int3   	
  === BLOCK LINK ===
    0x1ccb
=== CODE BLOCK END ===

=== CODE BLOCK ADDRESS 0x1ccb ===
  0x1ccb	int3   	
  0x1ccc	dec    	eax
  0x1ccd	mov    	eax, esp
  0x1ccf	dec    	eax
  0x1cd0	mov    	dword ptr [eax + 8], ebx
  === BLOCK LINK ===
    0x1cd3
=== CODE BLOCK END ===

=== CODE BLOCK ADDRESS 0x1cd3 ===
  0x1cd3	dec    	eax
  0x1cd4	mov    	dword ptr [eax + 0x10], ebp
  0x1cd7	dec    	eax
  0x1cd8	mov    	dword ptr [eax + 0x18], esi
  0x1cdb	dec    	eax
  === BLOCK LINK ===
    0x1cdc
=== CODE BLOCK END ===

=== CODE BLOCK ADDRESS 0x1cdc ===
  0x1cdc	mov    	dword ptr [eax + 0x20], edi
  0x1cdf	inc    	ecx
  0x1ce0	push   	esi
  0x1ce1	dec    	eax
  0x1ce2	sub    	esp, 0x20
  === BLOCK LINK ===
    0x1ce5
=== CODE BLOCK END ===

=== CODE BLOCK ADDRESS 0x1ce5 ===
  0x1ce5	xor    	ebp, ebp
  0x1ce7	dec    	eax
  0x1ce8	mov    	esi, edx
  0x1cea	dec    	esp
  0x1ceb	mov    	esi, ecx
  === BLOCK LINK ===
    0x1ced
=== CODE BLOCK END ===

=== CODE BLOCK ADDRESS 0x1ced ===
  0x1ced	dec    	eax
  0x1cee	test   	edx, edx
  0x1cf0	jne    	0x1cfc
  === BLOCK LINK ===
    0x1cf2
=== CODE BLOCK END ===

=== CODE BLOCK ADDRESS 0x1cf2 ===
  0x1cf2	mov    	eax, 0x80070057
  0x1cf7	jmp    	0x1dc7
  === BLOCK LINK ===
    0x1cfc
=== CODE BLOCK END ===

=== CODE BLOCK ADDRESS 0x1cfc ===
  0x1cfc	dec    	eax
  0x1cfd	mov    	dword ptr [edx], ebp
  0x1cff	mov    	ebx, ebp
  0x1d01	dec    	ebp
  0x1d02	test   	esi, esi
  === BLOCK LINK ===
    0x1d04
=== CODE BLOCK END ===

=== CODE BLOCK ADDRESS 0x1d04 ===
  0x1d04	je     	0x1dc5
  === BLOCK LINK ===
    0x1d0a
=== CODE BLOCK END ===

=== CODE BLOCK ADDRESS 0x1d0a ===
  0x1d0a	dec    	eax
  0x1d0b	or     	edi, 0xffffffff
  0x1d0e	dec    	eax
  0x1d0f	inc    	edi
  0x1d11	cmp    	word ptr [ecx + edi*2], bp
  === BLOCK LINK ===
    0x1d15
=== CODE BLOCK END ===

=== CODE BLOCK ADDRESS 0x1d15 ===
  0x1d15	jne    	0x1d0e
  === BLOCK LINK ===
    0x1d17
=== CODE BLOCK END ===

=== CODE BLOCK ADDRESS 0x1d17 ===
  0x1d17	dec    	eax
  0x1d18	lea    	edi, [edi*2 + 2]
  0x1d1f	dec    	eax
  0x1d20	mov    	ecx, edi
  0x1d22	dec    	eax
  === BLOCK LINK ===
    0x1d23
=== CODE BLOCK END ===

=== CODE BLOCK ADDRESS 0x1d23 ===
  0x1d23	call   	dword ptr [0x23ff]
  === BLOCK LINK ===
    0x1d29
=== CODE BLOCK END ===

=== CODE BLOCK ADDRESS 0x1d29 ===
  0x1d29	nop    	dword ptr [eax + eax]
  0x1d2e	dec    	eax
  0x1d2f	mov    	dword ptr [esi], eax
  0x1d31	dec    	eax
  0x1d32	mov    	ecx, eax
  === BLOCK LINK ===
    0x1d34
=== CODE BLOCK END ===

=== CODE BLOCK ADDRESS 0x1d34 ===
  0x1d34	dec    	eax
  0x1d35	test   	eax, eax
  0x1d37	jne    	0x1d43
  === BLOCK LINK ===
    0x1d39
=== CODE BLOCK END ===

=== CODE BLOCK ADDRESS 0x1d39 ===
  0x1d39	mov    	ebx, 0x8007000e
  0x1d3e	jmp    	0x1dc5
  === BLOCK LINK ===
    0x1d43
=== CODE BLOCK END ===

=== CODE BLOCK ADDRESS 0x1d43 ===
  0x1d43	dec    	eax
  0x1d44	shr    	edi, 1
  0x1d46	inc    	ecx
  0x1d47	mov    	eax, 0x7ffffffe
  0x1d4c	mov    	edx, 0x80070057
  === BLOCK LINK ===
    0x1d51
=== CODE BLOCK END ===

=== CODE BLOCK ADDRESS 0x1d51 ===
  0x1d51	dec    	eax
  0x1d52	lea    	eax, [edi - 1]
  0x1d55	dec    	ecx
  0x1d56	cmp    	eax, eax
  0x1d58	cmova  	ebx, edx
  === BLOCK LINK ===
    0x1d5b
=== CODE BLOCK END ===

=== CODE BLOCK ADDRESS 0x1d5b ===
  0x1d5b	test   	ebx, ebx
  0x1d5d	js     	0x1da7
  === BLOCK LINK ===
    0x1d5f
=== CODE BLOCK END ===

=== CODE BLOCK ADDRESS 0x1d5f ===
  0x1d5f	dec    	eax
  0x1d60	test   	edi, edi
  0x1d62	je     	0x1d8a
  === BLOCK LINK ===
    0x1d64
=== CODE BLOCK END ===

=== CODE BLOCK ADDRESS 0x1d64 ===
  0x1d64	dec    	esp
  0x1d65	sub    	eax, edi
  0x1d67	dec    	esp
  0x1d68	sub    	esi, ecx
  0x1d6a	dec    	ecx
  === BLOCK LINK ===
    0x1d6b
=== CODE BLOCK END ===

=== CODE BLOCK ADDRESS 0x1d6b ===
  0x1d6b	lea    	eax, [eax + edi]
  0x1d6e	dec    	eax
  0x1d6f	test   	eax, eax
  0x1d71	je     	0x1d8a
  === BLOCK LINK ===
    0x1d73
=== CODE BLOCK END ===

=== CODE BLOCK ADDRESS 0x1d73 ===
  0x1d73	inc    	ecx
  0x1d74	movzx  	eax, word ptr [esi + ecx]
  0x1d78	test   	ax, ax
  0x1d7b	je     	0x1d8a
  === BLOCK LINK ===
    0x1d7d
=== CODE BLOCK END ===

=== CODE BLOCK ADDRESS 0x1d7d ===
  0x1d7d	mov    	word ptr [ecx], ax
  0x1d80	dec    	eax
  0x1d81	add    	ecx, 2
  0x1d84	dec    	eax
  0x1d85	sub    	edi, 1
  === BLOCK LINK ===
    0x1d88
=== CODE BLOCK END ===

=== CODE BLOCK ADDRESS 0x1d88 ===
  0x1d88	jne    	0x1d6a
  === BLOCK LINK ===
    0x1d8a
=== CODE BLOCK END ===

=== CODE BLOCK ADDRESS 0x1d8a ===
  0x1d8a	dec    	eax
  0x1d8b	test   	edi, edi
  0x1d8d	dec    	eax
  0x1d8e	lea    	eax, [ecx - 2]
  0x1d91	dec    	eax
  === BLOCK LINK ===
    0x1d92
=== CODE BLOCK END ===

=== CODE BLOCK ADDRESS 0x1d92 ===
  0x1d92	cmovne  	eax, ecx
  0x1d95	dec    	eax
  0x1d96	neg    	edi
  0x1d98	sbb    	ebx, ebx
  0x1d9a	not    	ebx
  === BLOCK LINK ===
    0x1d9c
=== CODE BLOCK END ===

=== CODE BLOCK ADDRESS 0x1d9c ===
  0x1d9c	and    	ebx, 0x8007007a
  0x1da2	mov    	word ptr [eax], bp
  0x1da5	jmp    	0x1daf
  === BLOCK LINK ===
    0x1da7
=== CODE BLOCK END ===

=== CODE BLOCK ADDRESS 0x1da7 ===
  0x1da7	dec    	eax
  0x1da8	test   	edi, edi
  0x1daa	je     	0x1daf
  === BLOCK LINK ===
    0x1dac
=== CODE BLOCK END ===

=== CODE BLOCK ADDRESS 0x1dac ===
  0x1dac	mov    	word ptr [ecx], bp
  0x1daf	test   	ebx, ebx
  0x1db1	je     	0x1dc5
  === BLOCK LINK ===
    0x1db3
=== CODE BLOCK END ===

=== CODE BLOCK ADDRESS 0x1db3 ===
  0x1db3	dec    	eax
  0x1db4	mov    	ecx, dword ptr [esi]
  0x1db6	dec    	eax
  0x1db7	call   	dword ptr [0x237b]
  === BLOCK LINK ===
    0x1dbd
=== CODE BLOCK END ===

=== CODE BLOCK ADDRESS 0x1dbd ===
  0x1dbd	nop    	dword ptr [eax + eax]
  0x1dc2	dec    	eax
  0x1dc3	mov    	dword ptr [esi], ebp
  0x1dc5	mov    	eax, ebx
  0x1dc7	dec    	eax
  === BLOCK LINK ===
    0x1dc8
=== CODE BLOCK END ===

=== CODE BLOCK ADDRESS 0x1dc8 ===
  0x1dc8	mov    	ebx, dword ptr [esp + 0x30]
  0x1dcc	dec    	eax
  0x1dcd	mov    	ebp, dword ptr [esp + 0x38]
  0x1dd1	dec    	eax
  0x1dd2	mov    	esi, dword ptr [esp + 0x40]
  === BLOCK LINK ===
    0x1dd6
=== CODE BLOCK END ===

=== CODE BLOCK ADDRESS 0x1dd6 ===
  0x1dd6	dec    	eax
  0x1dd7	mov    	edi, dword ptr [esp + 0x48]
  0x1ddb	dec    	eax
  0x1ddc	add    	esp, 0x20
  0x1ddf	inc    	ecx
  === BLOCK LINK ===
    0x1de0
=== CODE BLOCK END ===

=== CODE BLOCK ADDRESS 0x1de0 ===
  0x1de0	pop    	esi
  0x1de1	ret    	
  0x1de2	int3   	
  0x1de3	int3   	
  0x1de4	int3   	
  === BLOCK LINK ===
    0x1de5
=== CODE BLOCK END ===

=== CODE BLOCK ADDRESS 0x10f4 ===
  0x10f4	mov    	dword ptr [ebx + 0x1c], eax
  0x10f7	xor    	eax, eax
  0x10f9	dec    	eax
  0x10fa	mov    	dword ptr [ebx + 0x10], edi
  === BLOCK LINK ===
    0x10fd
=== CODE BLOCK END ===

=== CODE BLOCK ADDRESS 0x1de5 ===
  0x1de5	int3   	
  0x1de6	int3   	
  0x1de7	int3   	
  0x1de8	int3   	
  0x1de9	int3   	
  === BLOCK LINK ===
    0x1dea
=== CODE BLOCK END ===

=== CODE BLOCK ADDRESS 0x1dea ===
  0x1dea	int3   	
  0x1deb	int3   	
  0x1dec	dec    	eax
  0x1ded	sub    	esp, 0x28
  0x1df0	dec    	eax
  === BLOCK LINK ===
    0x1df1
=== CODE BLOCK END ===

=== CODE BLOCK ADDRESS 0x1df1 ===
  0x1df1	mov    	ecx, dword ptr [ecx]
  0x1df3	dec    	eax
  0x1df4	test   	ecx, ecx
  0x1df6	je     	0x1e04
  === BLOCK LINK ===
    0x1df8
=== CODE BLOCK END ===

=== CODE BLOCK ADDRESS 0x1df8 ===
  0x1df8	dec    	eax
  0x1df9	call   	dword ptr [0x2339]
  === BLOCK LINK ===
    0x1dff
=== CODE BLOCK END ===

=== CODE BLOCK ADDRESS 0x1dff ===
  0x1dff	nop    	dword ptr [eax + eax]
  0x1e04	dec    	eax
  0x1e05	add    	esp, 0x28
  0x1e08	ret    	
  0x1e09	int3   	
  === BLOCK LINK ===
    0x1e0a
=== CODE BLOCK END ===

=== CODE BLOCK ADDRESS 0x146b ===
  0x146b	dec    	eax
  0x146c	mov    	edx, dword ptr [esp + 0x48]
  0x1470	dec    	eax
  0x1471	test   	edx, edx
  === BLOCK LINK ===
    0x1473
=== CODE BLOCK END ===

=== CODE BLOCK ADDRESS 0x1e0a ===
  0x1e0a	int3   	
  0x1e0b	int3   	
  0x1e0c	int3   	
  0x1e0d	int3   	
  0x1e0e	int3   	
  === BLOCK LINK ===
    0x1e0f
=== CODE BLOCK END ===

=== CODE BLOCK ADDRESS 0x1e0f ===
  0x1e0f	int3   	
  0x1e10	dec    	eax
  0x1e11	mov    	dword ptr [esp + 0x20], ebx
  0x1e15	push   	ebp
  0x1e16	push   	esi
  === BLOCK LINK ===
    0x1e17
=== CODE BLOCK END ===

=== CODE BLOCK ADDRESS 0x1e17 ===
  0x1e17	push   	edi
  0x1e18	inc    	ecx
  0x1e19	push   	esp
  0x1e1a	inc    	ecx
  0x1e1b	push   	ebp
  === BLOCK LINK ===
    0x1e1c
=== CODE BLOCK END ===

=== CODE BLOCK ADDRESS 0x1e1c ===
  0x1e1c	inc    	ecx
  0x1e1d	push   	esi
  0x1e1e	inc    	ecx
  0x1e1f	push   	edi
  0x1e20	dec    	eax
  === BLOCK LINK ===
    0x1e21
=== CODE BLOCK END ===

=== CODE BLOCK ADDRESS 0x1e21 ===
  0x1e21	lea    	ebp, [esp - 0xfc0]
  0x1e28	mov    	eax, 0x10d0
  0x1e2d	call   	0x2c30
  === BLOCK LINK ===
    0x1e32
=== CODE BLOCK END ===

=== CODE BLOCK ADDRESS 0x1e32 ===
  0x1e32	dec    	eax
  0x1e33	sub    	esp, eax
  0x1e35	dec    	eax
  0x1e36	mov    	eax, dword ptr [0x41dc]
  0x1e3c	dec    	eax
  === BLOCK LINK ===
    0x1e3d
=== CODE BLOCK END ===

=== CODE BLOCK ADDRESS 0x1e3d ===
  0x1e3d	xor    	eax, esp
  0x1e3f	dec    	eax
  0x1e40	mov    	dword ptr [ebp + 0xfb0], eax
  0x1e46	inc    	ebp
  0x1e47	xor    	ebp, ebp
  === BLOCK LINK ===
    0x1e49
=== CODE BLOCK END ===

=== CODE BLOCK ADDRESS 0x1e49 ===
  0x1e49	dec    	esp
  0x1e4a	mov    	edi, edx
  0x1e4c	dec    	esp
  0x1e4d	mov    	esp, ecx
  0x1e4f	dec    	esp
  === BLOCK LINK ===
    0x1e50
=== CODE BLOCK END ===

=== CODE BLOCK ADDRESS 0x1e50 ===
  0x1e50	mov    	dword ptr [ebp - 0x60], ebp
  0x1e53	xor    	edx, edx
  0x1e55	dec    	esp
  0x1e56	mov    	dword ptr [ebp - 0x68], ebp
  0x1e59	xor    	ecx, ecx
  === BLOCK LINK ===
    0x1e5b
=== CODE BLOCK END ===

=== CODE BLOCK ADDRESS 0x1e5b ===
  0x1e5b	dec    	esp
  0x1e5c	mov    	dword ptr [ebp - 0x80], ebp
  0x1e5f	inc    	ecx
  0x1e60	mov    	esi, ebp
  0x1e62	inc    	esp
  === BLOCK LINK ===
    0x1e63
=== CODE BLOCK END ===

=== CODE BLOCK ADDRESS 0x1e63 ===
  0x1e63	mov    	dword ptr [ebp - 0x70], ebp
  0x1e66	inc    	ecx
  0x1e67	mov    	ebx, ebp
  0x1e69	inc    	ebp
  0x1e6a	mov    	esi, eax
  === BLOCK LINK ===
    0x1e6c
=== CODE BLOCK END ===

=== CODE BLOCK ADDRESS 0x1e6c ===
  0x1e6c	dec    	eax
  0x1e6d	call   	dword ptr [0x22bd]
  === BLOCK LINK ===
    0x1e73
=== CODE BLOCK END ===

=== CODE BLOCK ADDRESS 0x1e73 ===
  0x1e73	nop    	dword ptr [eax + eax]
  0x1e78	mov    	edi, eax
  0x1e7a	test   	eax, eax
  0x1e7c	js     	0x1fb3
  === BLOCK LINK ===
    0x1e82
=== CODE BLOCK END ===

=== CODE BLOCK ADDRESS 0x1e82 ===
  0x1e82	dec    	eax
  0x1e83	lea    	eax, [ebp - 0x60]
  0x1e86	xor    	edx, edx
  0x1e88	dec    	esp
  0x1e89	lea    	ecx, [0x2749]
  === BLOCK LINK ===
    0x1e8f
=== CODE BLOCK END ===

=== CODE BLOCK ADDRESS 0x1e8f ===
  0x1e8f	dec    	eax
  0x1e90	mov    	dword ptr [esp + 0x20], eax
  0x1e94	inc    	ebp
  0x1e95	lea    	eax, [ebp + 4]
  0x1e98	dec    	eax
  === BLOCK LINK ===
    0x1e99
=== CODE BLOCK END ===

=== CODE BLOCK ADDRESS 0x1e99 ===
  0x1e99	lea    	ecx, [0x2729]
  0x1e9f	inc    	ecx
  0x1ea0	lea    	esi, [ebp + 1]
  0x1ea3	dec    	eax
  0x1ea4	call   	dword ptr [0x22a6]
  === BLOCK LINK ===
    0x1eaa
=== CODE BLOCK END ===

=== CODE BLOCK ADDRESS 0x1eaa ===
  0x1eaa	nop    	dword ptr [eax + eax]
  0x1eaf	mov    	edi, eax
  0x1eb1	test   	eax, eax
  0x1eb3	js     	0x1fb3
  === BLOCK LINK ===
    0x1eb9
=== CODE BLOCK END ===

=== CODE BLOCK ADDRESS 0x1eb9 ===
  0x1eb9	dec    	eax
  0x1eba	mov    	ecx, dword ptr [ebp - 0x60]
  0x1ebd	dec    	eax
  0x1ebe	lea    	edx, [ebp - 0x68]
  0x1ec1	dec    	eax
  === BLOCK LINK ===
    0x1ec2
=== CODE BLOCK END ===

=== CODE BLOCK ADDRESS 0x1ec2 ===
  0x1ec2	mov    	eax, dword ptr [ecx]
  0x1ec4	dec    	eax
  0x1ec5	mov    	eax, dword ptr [eax + 0x18]
  0x1ec8	call   	dword ptr [0x24aa]
  === BLOCK LINK ===
    0x1ece
=== CODE BLOCK END ===

=== CODE BLOCK ADDRESS 0x1ece ===
  0x1ece	mov    	edi, eax
  0x1ed0	test   	eax, eax
  0x1ed2	js     	0x1fb3
  === BLOCK LINK ===
    0x1ed8
=== CODE BLOCK END ===

=== CODE BLOCK ADDRESS 0x1ed8 ===
  0x1ed8	dec    	ebp
  0x1ed9	test   	edi, edi
  0x1edb	dec    	eax
  0x1edc	lea    	eax, [0x26de]
  0x1ee2	dec    	ebp
  === BLOCK LINK ===
    0x1ee3
=== CODE BLOCK END ===

=== CODE BLOCK ADDRESS 0x1ee3 ===
  0x1ee3	mov    	ecx, esp
  0x1ee5	dec    	esp
  0x1ee6	lea    	eax, [0x2704]
  0x1eec	dec    	ecx
  0x1eed	cmovne  	eax, edi
  === BLOCK LINK ===
    0x1ef0
=== CODE BLOCK END ===

=== CODE BLOCK ADDRESS 0x1ef0 ===
  0x1ef0	dec    	eax
  0x1ef1	lea    	ecx, [ebp - 0x50]
  0x1ef4	mov    	edx, 0x800
  0x1ef9	dec    	eax
  0x1efa	mov    	dword ptr [esp + 0x20], eax
  === BLOCK LINK ===
    0x1efe
=== CODE BLOCK END ===

=== CODE BLOCK ADDRESS 0x1efe ===
  0x1efe	call   	0x2024
  === BLOCK LINK ===
    0x1f03
=== CODE BLOCK END ===

=== CODE BLOCK ADDRESS 0x1f03 ===
  0x1f03	mov    	edi, eax
  0x1f05	test   	eax, eax
  0x1f07	js     	0x1fb3
  === BLOCK LINK ===
    0x1f0d
=== CODE BLOCK END ===

=== CODE BLOCK ADDRESS 0x1f0d ===
  0x1f0d	inc    	ebp
  0x1f0e	test   	esi, esi
  0x1f10	je     	0x1f3a
  === BLOCK LINK ===
    0x1f12
=== CODE BLOCK END ===

=== CODE BLOCK ADDRESS 0x1f12 ===
  0x1f12	dec    	eax
  0x1f13	lea    	ecx, [ebp - 0x58]
  0x1f16	dec    	eax
  0x1f17	call   	dword ptr [0x2333]
  === BLOCK LINK ===
    0x1f1d
=== CODE BLOCK END ===

=== CODE BLOCK ADDRESS 0x1f1d ===
  0x1f1d	nop    	dword ptr [eax + eax]
  0x1f22	dec    	eax
  0x1f23	mov    	ebx, dword ptr [ebp - 0x58]
  0x1f26	inc    	ecx
  0x1f27	imul   	ecx, esi, 0x989680
  === BLOCK LINK ===
    0x1f2d
=== CODE BLOCK END ===

=== CODE BLOCK ADDRESS 0x1f2d ===
  0x1f2d	mov    	dword ptr [ebp - 0x80], esi
  0x1f30	dec    	eax
  0x1f31	add    	ebx, ecx
  0x1f33	mov    	dword ptr [ebp - 0x7c], ebx
  0x1f36	dec    	eax
  === BLOCK LINK ===
    0x1f37
=== CODE BLOCK END ===

=== CODE BLOCK ADDRESS 0x1f37 ===
  0x1f37	shr    	ebx, 0x20
  0x1f3a	dec    	eax
  0x1f3b	mov    	ecx, dword ptr [ebp - 0x68]
  0x1f3e	dec    	eax
  0x1f3f	lea    	edx, [ebp - 0x70]
  === BLOCK LINK ===
    0x1f42
=== CODE BLOCK END ===

=== CODE BLOCK ADDRESS 0x1f42 ===
  0x1f42	movsd  	xmm0, qword ptr [ebp - 0x80]
  0x1f47	dec    	esp
  0x1f48	lea    	eax, [0x25a2]
  0x1f4e	dec    	eax
  0x1f4f	mov    	dword ptr [esp + 0x78], edx
  === BLOCK LINK ===
    0x1f53
=== CODE BLOCK END ===

=== CODE BLOCK ADDRESS 0x1f53 ===
  0x1f53	inc    	ebp
  0x1f54	xor    	ecx, ecx
  0x1f56	inc    	esp
  0x1f57	mov    	dword ptr [esp + 0x70], ebp
  0x1f5b	dec    	eax
  === BLOCK LINK ===
    0x1f5c
=== CODE BLOCK END ===

=== CODE BLOCK ADDRESS 0x1f5c ===
  0x1f5c	lea    	edx, [ebp - 0x80]
  0x1f5f	dec    	eax
  0x1f60	mov    	eax, dword ptr [ecx]
  0x1f62	dec    	esp
  0x1f63	mov    	dword ptr [esp + 0x68], ebp
  === BLOCK LINK ===
    0x1f67
=== CODE BLOCK END ===

=== CODE BLOCK ADDRESS 0x1f67 ===
  0x1f67	dec    	esp
  0x1f68	mov    	dword ptr [esp + 0x60], ebp
  0x1f6c	dec    	esp
  0x1f6d	mov    	dword ptr [esp + 0x58], ebp
  0x1f71	dec    	eax
  === BLOCK LINK ===
    0x1f72
=== CODE BLOCK END ===

=== CODE BLOCK ADDRESS 0x1f72 ===
  0x1f72	mov    	eax, dword ptr [eax + 0x40]
  0x1f75	inc    	esp
  0x1f76	mov    	dword ptr [esp + 0x50], ebp
  0x1f7a	inc    	esp
  0x1f7b	mov    	dword ptr [esp + 0x48], ebp
  === BLOCK LINK ===
    0x1f7f
=== CODE BLOCK END ===

=== CODE BLOCK ADDRESS 0x1f7f ===
  0x1f7f	dec    	eax
  0x1f80	mov    	dword ptr [esp + 0x40], edx
  0x1f84	dec    	eax
  0x1f85	lea    	edx, [ebp - 0x50]
  0x1f88	dec    	esp
  === BLOCK LINK ===
    0x1f89
=== CODE BLOCK END ===

=== CODE BLOCK ADDRESS 0x1f89 ===
  0x1f89	mov    	dword ptr [esp + 0x38], ebp
  0x1f8d	dec    	esp
  0x1f8e	mov    	dword ptr [esp + 0x30], ebp
  0x1f92	dec    	eax
  0x1f93	mov    	dword ptr [esp + 0x28], edx
  === BLOCK LINK ===
    0x1f97
=== CODE BLOCK END ===

=== CODE BLOCK ADDRESS 0x1f97 ===
  0x1f97	dec    	eax
  0x1f98	lea    	edx, [0x25fa]
  0x1f9e	movsd  	qword ptr [ebp - 0x80], xmm0
  0x1fa3	mov    	dword ptr [ebp - 0x78], ebx
  0x1fa6	inc    	esp
  === BLOCK LINK ===
    0x1fa7
=== CODE BLOCK END ===

=== CODE BLOCK ADDRESS 0x1fa7 ===
  0x1fa7	mov    	dword ptr [esp + 0x20], ebp
  0x1fab	call   	dword ptr [0x23c7]
  === BLOCK LINK ===
    0x1fb1
=== CODE BLOCK END ===

=== CODE BLOCK ADDRESS 0x1fb1 ===
  0x1fb1	mov    	edi, eax
  0x1fb3	dec    	eax
  0x1fb4	mov    	ecx, dword ptr [ebp - 0x68]
  0x1fb7	dec    	eax
  0x1fb8	test   	ecx, ecx
  === BLOCK LINK ===
    0x1fba
=== CODE BLOCK END ===

=== CODE BLOCK ADDRESS 0x1fba ===
  0x1fba	je     	0x1fc9
  === BLOCK LINK ===
    0x1fbc
=== CODE BLOCK END ===

=== CODE BLOCK ADDRESS 0x1fbc ===
  0x1fbc	dec    	eax
  0x1fbd	mov    	eax, dword ptr [ecx]
  0x1fbf	dec    	eax
  0x1fc0	mov    	eax, dword ptr [eax + 0x10]
  0x1fc3	call   	dword ptr [0x23af]
  === BLOCK LINK ===
    0x1fc9
=== CODE BLOCK END ===

=== CODE BLOCK ADDRESS 0x1fc9 ===
  0x1fc9	dec    	eax
  0x1fca	mov    	ecx, dword ptr [ebp - 0x60]
  0x1fcd	dec    	eax
  0x1fce	test   	ecx, ecx
  0x1fd0	je     	0x1fdf
  === BLOCK LINK ===
    0x1fd2
=== CODE BLOCK END ===

=== CODE BLOCK ADDRESS 0x1fd2 ===
  0x1fd2	dec    	eax
  0x1fd3	mov    	eax, dword ptr [ecx]
  0x1fd5	dec    	eax
  0x1fd6	mov    	eax, dword ptr [eax + 0x10]
  0x1fd9	call   	dword ptr [0x2399]
  === BLOCK LINK ===
    0x1fdf
=== CODE BLOCK END ===

=== CODE BLOCK ADDRESS 0x1fdf ===
  0x1fdf	test   	esi, esi
  0x1fe1	je     	0x1fef
  === BLOCK LINK ===
    0x1fe3
=== CODE BLOCK END ===

=== CODE BLOCK ADDRESS 0x1fe3 ===
  0x1fe3	dec    	eax
  0x1fe4	call   	dword ptr [0x2156]
  === BLOCK LINK ===
    0x1fea
=== CODE BLOCK END ===

=== CODE BLOCK ADDRESS 0x1fea ===
  0x1fea	nop    	dword ptr [eax + eax]
  0x1fef	mov    	eax, edi
  0x1ff1	dec    	eax
  0x1ff2	mov    	ecx, dword ptr [ebp + 0xfb0]
  0x1ff8	dec    	eax
  === BLOCK LINK ===
    0x1ff9
=== CODE BLOCK END ===

=== CODE BLOCK ADDRESS 0x1ff9 ===
  0x1ff9	xor    	ecx, esp
  0x1ffb	call   	0x25c0
  === BLOCK LINK ===
    0x2000
=== CODE BLOCK END ===

=== CODE BLOCK ADDRESS 0x2000 ===
  0x2000	dec    	eax
  0x2001	mov    	ebx, dword ptr [esp + 0x1128]
  0x2008	dec    	eax
  0x2009	add    	esp, 0x10d0
  0x200f	inc    	ecx
  === BLOCK LINK ===
    0x2010
=== CODE BLOCK END ===

=== CODE BLOCK ADDRESS 0x2010 ===
  0x2010	pop    	edi
  0x2011	inc    	ecx
  0x2012	pop    	esi
  0x2013	inc    	ecx
  0x2014	pop    	ebp
  === BLOCK LINK ===
    0x2015
=== CODE BLOCK END ===

=== CODE BLOCK ADDRESS 0x2015 ===
  0x2015	inc    	ecx
  0x2016	pop    	esp
  0x2017	pop    	edi
  0x2018	pop    	esi
  0x2019	pop    	ebp
  === BLOCK LINK ===
    0x201a
=== CODE BLOCK END ===

=== CODE BLOCK ADDRESS 0x201a ===
  0x201a	ret    	
  0x201b	int3   	
  0x201c	int3   	
  0x201d	int3   	
  0x201e	int3   	
  === BLOCK LINK ===
    0x201f
=== CODE BLOCK END ===

=== CODE BLOCK ADDRESS 0x201f ===
  0x201f	int3   	
  0x2020	int3   	
  0x2021	int3   	
  0x2022	int3   	
  0x2023	int3   	
  === BLOCK LINK ===
    0x2024
=== CODE BLOCK END ===

=== CODE BLOCK ADDRESS 0x2024 ===
  0x2024	dec    	esp
  0x2025	mov    	dword ptr [esp + 0x18], eax
  0x2029	dec    	esp
  0x202a	mov    	dword ptr [esp + 0x20], ecx
  0x202e	push   	ebx
  === BLOCK LINK ===
    0x202f
=== CODE BLOCK END ===

=== CODE BLOCK ADDRESS 0x202f ===
  0x202f	push   	ebp
  0x2030	push   	esi
  0x2031	push   	edi
  0x2032	dec    	eax
  0x2033	sub    	esp, 0x28
  === BLOCK LINK ===
    0x2036
=== CODE BLOCK END ===

=== CODE BLOCK ADDRESS 0x2036 ===
  0x2036	xor    	ebp, ebp
  0x2038	dec    	eax
  0x2039	lea    	eax, [edx - 1]
  0x203c	dec    	eax
  0x203d	cmp    	eax, 0x7ffffffe
  === BLOCK LINK ===
    0x2042
=== CODE BLOCK END ===

=== CODE BLOCK ADDRESS 0x2042 ===
  0x2042	dec    	eax
  0x2043	mov    	esi, ecx
  0x2045	mov    	edi, ebp
  0x2047	mov    	ecx, 0x80070057
  0x204c	cmova  	edi, ecx
  === BLOCK LINK ===
    0x204f
=== CODE BLOCK END ===

=== CODE BLOCK ADDRESS 0x204f ===
  0x204f	test   	edi, edi
  0x2051	js     	0x208e
  === BLOCK LINK ===
    0x2053
=== CODE BLOCK END ===

=== CODE BLOCK ADDRESS 0x2053 ===
  0x2053	dec    	eax
  0x2054	lea    	ebx, [edx - 1]
  0x2057	dec    	eax
  0x2058	mov    	ecx, esi
  0x205a	dec    	eax
  === BLOCK LINK ===
    0x205b
=== CODE BLOCK END ===

=== CODE BLOCK ADDRESS 0x205b ===
  0x205b	mov    	edx, ebx
  0x205d	dec    	esp
  0x205e	lea    	ecx, [esp + 0x68]
  0x2062	mov    	edi, ebp
  0x2064	dec    	eax
  === BLOCK LINK ===
    0x2065
=== CODE BLOCK END ===

=== CODE BLOCK ADDRESS 0x2065 ===
  0x2065	call   	dword ptr [0x22dd]
  === BLOCK LINK ===
    0x206b
=== CODE BLOCK END ===

=== CODE BLOCK ADDRESS 0x206b ===
  0x206b	nop    	dword ptr [eax + eax]
  0x2070	test   	eax, eax
  0x2072	js     	0x2083
  === BLOCK LINK ===
    0x2074
=== CODE BLOCK END ===

=== CODE BLOCK ADDRESS 0x2074 ===
  0x2074	dec    	eax
  0x2075	cwde   	
  0x2076	dec    	eax
  0x2077	cmp    	eax, ebx
  0x2079	ja     	0x2083
  === BLOCK LINK ===
    0x207b
=== CODE BLOCK END ===

=== CODE BLOCK ADDRESS 0x207b ===
  0x207b	jne    	0x2096
  === BLOCK LINK ===
    0x207d
=== CODE BLOCK END ===

=== CODE BLOCK ADDRESS 0x207d ===
  0x207d	mov    	word ptr [esi + ebx*2], bp
  0x2081	jmp    	0x2096
  === BLOCK LINK ===
    0x2083
=== CODE BLOCK END ===

=== CODE BLOCK ADDRESS 0x2083 ===
  0x2083	mov    	word ptr [esi + ebx*2], bp
  0x2087	mov    	edi, 0x8007007a
  0x208c	jmp    	0x2096
  === BLOCK LINK ===
    0x208e
=== CODE BLOCK END ===

=== CODE BLOCK ADDRESS 0x208e ===
  0x208e	dec    	eax
  0x208f	test   	edx, edx
  0x2091	je     	0x2096
  === BLOCK LINK ===
    0x2093
=== CODE BLOCK END ===

=== CODE BLOCK ADDRESS 0x2093 ===
  0x2093	mov    	word ptr [esi], bp
  0x2096	mov    	eax, edi
  0x2098	dec    	eax
  0x2099	add    	esp, 0x28
  0x209c	pop    	edi
  === BLOCK LINK ===
    0x209d
=== CODE BLOCK END ===

=== CODE BLOCK ADDRESS 0x209d ===
  0x209d	pop    	esi
  0x209e	pop    	ebp
  0x209f	pop    	ebx
  0x20a0	ret    	
  0x20a1	int3   	
  === BLOCK LINK ===
    0x20a2
=== CODE BLOCK END ===

=== CODE BLOCK ADDRESS 0x20a2 ===
  0x20a2	int3   	
  0x20a3	int3   	
  0x20a4	int3   	
  0x20a5	int3   	
  0x20a6	int3   	
  === BLOCK LINK ===
    0x20a7
=== CODE BLOCK END ===

=== CODE BLOCK ADDRESS 0x20a7 ===
  0x20a7	int3   	
  0x20a8	dec    	esp
  0x20a9	mov    	ebx, esp
  0x20ab	push   	ebp
  0x20ac	dec    	ecx
  === BLOCK LINK ===
    0x20ad
=== CODE BLOCK END ===

=== CODE BLOCK ADDRESS 0x20ad ===
  0x20ad	lea    	ebp, [ebx - 0x5f]
  0x20b0	dec    	eax
  0x20b1	sub    	esp, 0x90
  0x20b7	dec    	eax
  0x20b8	mov    	dword ptr [ebp + 0x1f], 0xfffffffe
  === BLOCK LINK ===
    0x20bf
=== CODE BLOCK END ===

=== CODE BLOCK ADDRESS 0x20bf ===
  0x20bf	dec    	ecx
  0x20c0	mov    	dword ptr [ebx + 8], ebx
  0x20c3	dec    	ecx
  0x20c4	mov    	dword ptr [ebx + 0x18], edi
  0x20c7	dec    	eax
  === BLOCK LINK ===
    0x20c8
=== CODE BLOCK END ===

=== CODE BLOCK ADDRESS 0x20c8 ===
  0x20c8	mov    	eax, dword ptr [0x3f4a]
  0x20ce	dec    	eax
  0x20cf	xor    	eax, esp
  0x20d1	dec    	eax
  0x20d2	mov    	dword ptr [ebp + 0x47], eax
  === BLOCK LINK ===
    0x20d5
=== CODE BLOCK END ===

=== CODE BLOCK ADDRESS 0x20d5 ===
  0x20d5	dec    	ecx
  0x20d6	mov    	edi, ecx
  0x20d8	and    	dword ptr [ebp + 7], 0
  0x20dc	dec    	eax
  0x20dd	and    	dword ptr [ebp + 0x17], 0
  === BLOCK LINK ===
    0x20e1
=== CODE BLOCK END ===

=== CODE BLOCK ADDRESS 0x20e1 ===
  0x20e1	dec    	eax
  0x20e2	and    	dword ptr [ebp + 0x3f], 0
  0x20e6	and    	dword ptr [ebp + 0x3b], 0
  0x20ea	movups  	xmm0, xmmword ptr [0x2677]
  0x20f1	movups  	xmmword ptr [ebp + 0x27], xmm0
  === BLOCK LINK ===
    0x20f5
=== CODE BLOCK END ===

=== CODE BLOCK ADDRESS 0x20f5 ===
  0x20f5	mov    	eax, dword ptr [0x267d]
  0x20fb	mov    	dword ptr [ebp + 0x37], eax
  0x20fe	dec    	eax
  0x20ff	lea    	eax, [ebp + 0x17]
  0x2102	dec    	ecx
  === BLOCK LINK ===
    0x2103
=== CODE BLOCK END ===

=== CODE BLOCK ADDRESS 0x2103 ===
  0x2103	mov    	dword ptr [ebx - 0x68], eax
  0x2106	dec    	eax
  0x2107	lea    	eax, [ebp + 7]
  0x210a	dec    	ecx
  0x210b	mov    	dword ptr [ebx - 0x70], eax
  === BLOCK LINK ===
    0x210e
=== CODE BLOCK END ===

=== CODE BLOCK ADDRESS 0x210e ===
  0x210e	dec    	eax
  0x210f	lea    	eax, [ebp + 0x27]
  0x2112	dec    	ecx
  0x2113	mov    	dword ptr [ebx - 0x78], eax
  0x2116	mov    	ecx, 2
  === BLOCK LINK ===
    0x211b
=== CODE BLOCK END ===

=== CODE BLOCK ADDRESS 0x211b ===
  0x211b	inc    	esp
  0x211c	lea    	ecx, [ecx - 1]
  0x211f	inc    	esp
  0x2120	lea    	eax, [ecx + 2]
  0x2123	dec    	eax
  === BLOCK LINK ===
    0x2124
=== CODE BLOCK END ===

=== CODE BLOCK ADDRESS 0x2124 ===
  0x2124	call   	dword ptr [0x2136]
  === BLOCK LINK ===
    0x212a
=== CODE BLOCK END ===

=== CODE BLOCK ADDRESS 0x212a ===
  0x212a	nop    	dword ptr [eax + eax]
  0x212f	mov    	ebx, eax
  0x2131	test   	eax, eax
  0x2133	js     	0x21ac
  === BLOCK LINK ===
    0x2135
=== CODE BLOCK END ===

=== CODE BLOCK ADDRESS 0x2135 ===
  0x2135	mov    	ebx, 0x80004005
  0x213a	cmp    	dword ptr [ebp + 7], 1
  0x213e	jne    	0x2194
  === BLOCK LINK ===
    0x2140
=== CODE BLOCK END ===

=== CODE BLOCK ADDRESS 0x2140 ===
  0x2140	dec    	eax
  0x2141	mov    	eax, dword ptr [ebp + 0x17]
  0x2144	cmp    	dword ptr [eax + 0x20], 0x12
  0x2148	jne    	0x2194
  === BLOCK LINK ===
    0x214a
=== CODE BLOCK END ===

=== CODE BLOCK ADDRESS 0x214a ===
  0x214a	dec    	eax
  0x214b	and    	dword ptr [ebp + 0xf], 0
  0x214f	dec    	eax
  0x2150	mov    	eax, dword ptr [ebp + 0x17]
  0x2153	dec    	eax
  === BLOCK LINK ===
    0x2154
=== CODE BLOCK END ===

=== CODE BLOCK ADDRESS 0x2154 ===
  0x2154	mov    	ecx, dword ptr [eax + 0x28]
  0x2157	dec    	eax
  0x2158	test   	ecx, ecx
  0x215a	je     	0x216d
  === BLOCK LINK ===
    0x215c
=== CODE BLOCK END ===

=== CODE BLOCK ADDRESS 0x215c ===
  0x215c	dec    	eax
  0x215d	lea    	edx, [ebp + 0xf]
  0x2160	call   	0x1ccc
  === BLOCK LINK ===
    0x2165
=== CODE BLOCK END ===

=== CODE BLOCK ADDRESS 0x2165 ===
  0x2165	mov    	ebx, eax
  0x2167	dec    	eax
  0x2168	mov    	ecx, dword ptr [ebp + 0xf]
  0x216b	jmp    	0x2173
  === BLOCK LINK ===
    0x216d
=== CODE BLOCK END ===

=== CODE BLOCK ADDRESS 0x216d ===
  0x216d	dec    	eax
  0x216e	mov    	dword ptr [ebp + 0xf], ecx
  0x2171	xor    	ebx, ebx
  0x2173	test   	ebx, ebx
  0x2175	js     	0x2183
  === BLOCK LINK ===
    0x2177
=== CODE BLOCK END ===

=== CODE BLOCK ADDRESS 0x2177 ===
  0x2177	dec    	eax
  0x2178	mov    	eax, ecx
  0x217a	xor    	ecx, ecx
  0x217c	dec    	eax
  0x217d	mov    	dword ptr [ebp + 0xf], ecx
  === BLOCK LINK ===
    0x2180
=== CODE BLOCK END ===

=== CODE BLOCK ADDRESS 0x2180 ===
  0x2180	dec    	eax
  0x2181	mov    	dword ptr [edi], eax
  0x2183	dec    	eax
  0x2184	test   	ecx, ecx
  0x2186	je     	0x2194
  === BLOCK LINK ===
    0x2188
=== CODE BLOCK END ===

=== CODE BLOCK ADDRESS 0x2188 ===
  0x2188	dec    	eax
  0x2189	call   	dword ptr [0x1fa9]
  === BLOCK LINK ===
    0x218f
=== CODE BLOCK END ===

=== CODE BLOCK ADDRESS 0x218f ===
  0x218f	nop    	dword ptr [eax + eax]
  0x2194	dec    	eax
  0x2195	mov    	edx, dword ptr [ebp + 0x17]
  0x2198	dec    	eax
  0x2199	test   	edx, edx
  === BLOCK LINK ===
    0x219b
=== CODE BLOCK END ===

=== CODE BLOCK ADDRESS 0x219b ===
  0x219b	je     	0x21ac
  === BLOCK LINK ===
    0x219d
=== CODE BLOCK END ===

=== CODE BLOCK ADDRESS 0x219d ===
  0x219d	mov    	ecx, dword ptr [ebp + 7]
  0x21a0	dec    	eax
  0x21a1	call   	dword ptr [0x20d9]
  === BLOCK LINK ===
    0x21a7
=== CODE BLOCK END ===

=== CODE BLOCK ADDRESS 0x21a7 ===
  0x21a7	nop    	dword ptr [eax + eax]
  0x21ac	mov    	eax, ebx
  0x21ae	dec    	eax
  0x21af	mov    	ecx, dword ptr [ebp + 0x47]
  0x21b2	dec    	eax
  === BLOCK LINK ===
    0x21b3
=== CODE BLOCK END ===

=== CODE BLOCK ADDRESS 0x21b3 ===
  0x21b3	xor    	ecx, esp
  0x21b5	call   	0x25c0
  === BLOCK LINK ===
    0x21ba
=== CODE BLOCK END ===

=== CODE BLOCK ADDRESS 0x21ba ===
  0x21ba	dec    	esp
  0x21bb	lea    	ebx, [esp + 0x90]
  0x21c2	dec    	ecx
  0x21c3	mov    	ebx, dword ptr [ebx + 0x10]
  0x21c6	dec    	ecx
  === BLOCK LINK ===
    0x21c7
=== CODE BLOCK END ===

=== CODE BLOCK ADDRESS 0x21c7 ===
  0x21c7	mov    	edi, dword ptr [ebx + 0x20]
  0x21ca	dec    	ecx
  0x21cb	mov    	esp, ebx
  0x21cd	pop    	ebp
  0x21ce	ret    	
  === BLOCK LINK ===
    0x21cf
=== CODE BLOCK END ===

=== CODE BLOCK ADDRESS 0x137b ===
  0x137b	inc    	ecx
  0x137c	inc    	edi
  0x137e	inc    	esp
  0x137f	cmp    	edi, dword ptr [esp + 0x40]
  === BLOCK LINK ===
    0x1383
=== CODE BLOCK END ===

=== CODE BLOCK ADDRESS 0x21cf ===
  0x21cf	int3   	
  0x21d0	int3   	
  0x21d1	int3   	
  0x21d2	int3   	
  0x21d3	int3   	
  === BLOCK LINK ===
    0x21d4
=== CODE BLOCK END ===

=== CODE BLOCK ADDRESS 0x21d4 ===
  0x21d4	int3   	
  0x21d5	int3   	
  0x21d6	int3   	
  0x21d7	int3   	
  0x21d8	jmp    	0x2797
  === BLOCK LINK ===
    0x21dd
=== CODE BLOCK END ===

=== CODE BLOCK ADDRESS 0x21dd ===
  0x21dd	int3   	
  0x21de	int3   	
  0x21df	int3   	
  0x21e0	int3   	
  0x21e1	int3   	
  === BLOCK LINK ===
    0x21e2
=== CODE BLOCK END ===

=== CODE BLOCK ADDRESS 0x21e2 ===
  0x21e2	int3   	
  0x21e3	int3   	
  0x21e4	int3   	
  0x21e5	int3   	
  0x21e6	int3   	
  === BLOCK LINK ===
    0x21e7
=== CODE BLOCK END ===

=== CODE BLOCK ADDRESS 0x21e7 ===
  0x21e7	int3   	
  0x21e8	int3   	
  0x21e9	int3   	
  0x21ea	int3   	
  0x21eb	int3   	
  === BLOCK LINK ===
    0x21ec
=== CODE BLOCK END ===

=== CODE BLOCK ADDRESS 0x21ec ===
  0x21ec	int3   	
  0x21ed	int3   	
  0x21ee	int3   	
  0x21ef	int3   	
  0x21f0	dec    	eax
  === BLOCK LINK ===
    0x21f1
=== CODE BLOCK END ===

=== CODE BLOCK ADDRESS 0x21f1 ===
  0x21f1	sub    	esp, 0x28
  0x21f4	mov    	eax, 0x5a4d
  0x21f9	cmp    	word ptr [0xffffde00], ax
  0x2200	je     	0x2206
  === BLOCK LINK ===
    0x2202
=== CODE BLOCK END ===

=== CODE BLOCK ADDRESS 0x2202 ===
  0x2202	xor    	eax, eax
  0x2204	jmp    	0x2259
  === BLOCK LINK ===
    0x2206
=== CODE BLOCK END ===

=== CODE BLOCK ADDRESS 0x2206 ===
  0x2206	dec    	eax
  0x2207	arpl   	word ptr [0xffffde2f], cx
  0x220d	dec    	eax
  0x220e	lea    	eax, [0xffffddec]
  0x2214	dec    	eax
  === BLOCK LINK ===
    0x2215
=== CODE BLOCK END ===

=== CODE BLOCK ADDRESS 0x2215 ===
  0x2215	add    	ecx, eax
  0x2217	cmp    	dword ptr [ecx], 0x4550
  0x221d	jne    	0x2202
  === BLOCK LINK ===
    0x221f
=== CODE BLOCK END ===

=== CODE BLOCK ADDRESS 0x221f ===
  0x221f	mov    	eax, 0x10b
  0x2224	cmp    	word ptr [ecx + 0x18], ax
  0x2228	je     	0x2248
  === BLOCK LINK ===
    0x222a
=== CODE BLOCK END ===

=== CODE BLOCK ADDRESS 0x222a ===
  0x222a	mov    	eax, 0x20b
  0x222f	cmp    	word ptr [ecx + 0x18], ax
  0x2233	jne    	0x2202
  === BLOCK LINK ===
    0x2235
=== CODE BLOCK END ===

=== CODE BLOCK ADDRESS 0x2235 ===
  0x2235	xor    	eax, eax
  0x2237	cmp    	dword ptr [ecx + 0x84], 0xe
  0x223e	jbe    	0x2259
  === BLOCK LINK ===
    0x2240
=== CODE BLOCK END ===

=== CODE BLOCK ADDRESS 0x2240 ===
  0x2240	cmp    	dword ptr [ecx + 0xf8], eax
  0x2246	jmp    	0x2256
  === BLOCK LINK ===
    0x2248
=== CODE BLOCK END ===

=== CODE BLOCK ADDRESS 0x2248 ===
  0x2248	xor    	eax, eax
  0x224a	cmp    	dword ptr [ecx + 0x74], 0xe
  0x224e	jbe    	0x2259
  === BLOCK LINK ===
    0x2250
=== CODE BLOCK END ===

=== CODE BLOCK ADDRESS 0x2250 ===
  0x2250	cmp    	dword ptr [ecx + 0xe8], eax
  0x2256	setne  	al
  0x2259	mov    	ecx, 2
  0x225e	mov    	dword ptr [0x3dfc], eax
  0x2264	call   	0x2878
  === BLOCK LINK ===
    0x2269
=== CODE BLOCK END ===

=== CODE BLOCK ADDRESS 0x2269 ===
  0x2269	mov    	ecx, eax
  0x226b	call   	dword ptr [0x20af]
  === BLOCK LINK ===
    0x2271
=== CODE BLOCK END ===

=== CODE BLOCK ADDRESS 0x2271 ===
  0x2271	dec    	eax
  0x2272	mov    	ecx, dword ptr [0x2060]
  0x2278	dec    	eax
  0x2279	or     	eax, 0xffffffff
  0x227c	dec    	eax
  === BLOCK LINK ===
    0x227d
=== CODE BLOCK END ===

=== CODE BLOCK ADDRESS 0x227d ===
  0x227d	mov    	dword ptr [0x43ad], eax
  0x2283	dec    	eax
  0x2284	mov    	dword ptr [0x43ae], eax
  0x228a	mov    	eax, dword ptr [0x435c]
  0x2290	mov    	dword ptr [ecx], eax
  === BLOCK LINK ===
    0x2292
=== CODE BLOCK END ===

=== CODE BLOCK ADDRESS 0x2292 ===
  0x2292	dec    	eax
  0x2293	mov    	ecx, dword ptr [0x2037]
  0x2299	mov    	eax, dword ptr [0x4341]
  0x229f	mov    	dword ptr [ecx], eax
  0x22a1	call   	0x28d0
  === BLOCK LINK ===
    0x22a6
=== CODE BLOCK END ===

=== CODE BLOCK ADDRESS 0x22a6 ===
  0x22a6	cmp    	dword ptr [0x3d63], 0
  0x22ad	jne    	0x22bc
  === BLOCK LINK ===
    0x22af
=== CODE BLOCK END ===

=== CODE BLOCK ADDRESS 0x22af ===
  0x22af	dec    	eax
  0x22b0	lea    	ecx, [0x61a]
  0x22b6	call   	dword ptr [0x2044]
  === BLOCK LINK ===
    0x22bc
=== CODE BLOCK END ===

=== CODE BLOCK ADDRESS 0x22bc ===
  0x22bc	xor    	eax, eax
  0x22be	dec    	eax
  0x22bf	add    	esp, 0x28
  0x22c2	ret    	
  0x22c3	int3   	
  === BLOCK LINK ===
    0x22c4
=== CODE BLOCK END ===

=== CODE BLOCK ADDRESS 0x22c4 ===
  0x22c4	int3   	
  0x22c5	int3   	
  0x22c6	int3   	
  0x22c7	int3   	
  0x22c8	int3   	
  === BLOCK LINK ===
    0x22c9
=== CODE BLOCK END ===

=== CODE BLOCK ADDRESS 0x22c9 ===
  0x22c9	int3   	
  0x22ca	int3   	
  0x22cb	int3   	
  0x22cc	int3   	
  0x22cd	int3   	
  === BLOCK LINK ===
    0x22ce
=== CODE BLOCK END ===

=== CODE BLOCK ADDRESS 0x22ce ===
  0x22ce	int3   	
  0x22cf	int3   	
  0x22d0	dec    	eax
  0x22d1	sub    	esp, 0x38
  0x22d4	mov    	eax, dword ptr [0x430e]
  === BLOCK LINK ===
    0x22da
=== CODE BLOCK END ===

=== CODE BLOCK ADDRESS 0x22da ===
  0x22da	dec    	esp
  0x22db	lea    	eax, [0x3d77]
  0x22e1	inc    	esp
  0x22e2	mov    	ecx, dword ptr [0x42fc]
  0x22e8	dec    	eax
  === BLOCK LINK ===
    0x22e9
=== CODE BLOCK END ===

=== CODE BLOCK ADDRESS 0x22e9 ===
  0x22e9	lea    	edx, [0x3d61]
  0x22ef	mov    	dword ptr [0x3d6f], eax
  0x22f5	dec    	eax
  0x22f6	lea    	ecx, [0x3d4c]
  0x22fc	dec    	eax
  === BLOCK LINK ===
    0x22fd
=== CODE BLOCK END ===

=== CODE BLOCK ADDRESS 0x22fd ===
  0x22fd	lea    	eax, [0x3d61]
  0x2303	dec    	eax
  0x2304	mov    	dword ptr [esp + 0x20], eax
  0x2308	call   	dword ptr [0x201a]
  === BLOCK LINK ===
    0x230e
=== CODE BLOCK END ===

=== CODE BLOCK ADDRESS 0x230e ===
  0x230e	mov    	dword ptr [0x3d38], eax
  0x2314	dec    	eax
  0x2315	add    	esp, 0x38
  0x2318	ret    	
  0x2319	int3   	
  === BLOCK LINK ===
    0x231a
=== CODE BLOCK END ===

=== CODE BLOCK ADDRESS 0x231a ===
  0x231a	int3   	
  0x231b	int3   	
  0x231c	int3   	
  0x231d	int3   	
  0x231e	int3   	
  === BLOCK LINK ===
    0x231f
=== CODE BLOCK END ===

=== CODE BLOCK ADDRESS 0x231f ===
  0x231f	int3   	
  0x2320	dec    	eax
  0x2321	mov    	eax, esp
  0x2323	dec    	eax
  0x2324	mov    	dword ptr [eax + 8], ebx
  === BLOCK LINK ===
    0x2327
=== CODE BLOCK END ===

=== CODE BLOCK ADDRESS 0x2327 ===
  0x2327	dec    	eax
  0x2328	mov    	dword ptr [eax + 0x10], esi
  0x232b	dec    	eax
  0x232c	mov    	dword ptr [eax + 0x18], edi
  0x232f	dec    	esp
  === BLOCK LINK ===
    0x2330
=== CODE BLOCK END ===

=== CODE BLOCK ADDRESS 0x2330 ===
  0x2330	mov    	dword ptr [eax + 0x20], esi
  0x2333	inc    	ecx
  0x2334	push   	edi
  0x2335	dec    	eax
  0x2336	sub    	esp, 0xb0
  === BLOCK LINK ===
    0x233c
=== CODE BLOCK END ===

=== CODE BLOCK ADDRESS 0x233c ===
  0x233c	inc    	ebp
  0x233d	xor    	esi, esi
  0x233f	inc    	esp
  0x2340	mov    	dword ptr [esp + 0x20], esi
  0x2344	dec    	eax
  === BLOCK LINK ===
    0x2345
=== CODE BLOCK END ===

=== CODE BLOCK ADDRESS 0x2345 ===
  0x2345	lea    	ecx, [eax - 0x78]
  0x2348	call   	dword ptr [0x1e8a]
  === BLOCK LINK ===
    0x234e
=== CODE BLOCK END ===

=== CODE BLOCK ADDRESS 0x234e ===
  0x234e	nop    	
  0x234f	dec    	eax
  0x2351	mov    	eax, dword ptr [0x30]
  0x2358	dec    	eax
  0x2359	mov    	ebx, dword ptr [eax + 8]
  === BLOCK LINK ===
    0x235c
=== CODE BLOCK END ===

=== CODE BLOCK ADDRESS 0x235c ===
  0x235c	inc    	ecx
  0x235d	mov    	esi, esi
  0x235f	xor    	eax, eax
  0x2361	.byte  	0xf0
  0x2362	dec    	eax
  === BLOCK LINK ===
    0x2363
=== CODE BLOCK END ===

=== CODE BLOCK ADDRESS 0x2363 ===
  0x2363	cmpxchg  	dword ptr [0x42d6], ebx
  0x236a	je     	0x2387
  === BLOCK LINK ===
    0x236c
=== CODE BLOCK END ===

=== CODE BLOCK ADDRESS 0x236c ===
  0x236c	dec    	eax
  0x236d	cmp    	eax, ebx
  0x236f	jne    	0x237a
  === BLOCK LINK ===
    0x2371
=== CODE BLOCK END ===

=== CODE BLOCK ADDRESS 0x2371 ===
  0x2371	mov    	ebx, 1
  0x2376	mov    	esi, ebx
  0x2378	jmp    	0x238c
  === BLOCK LINK ===
    0x237a
=== CODE BLOCK END ===

=== CODE BLOCK ADDRESS 0x237a ===
  0x237a	mov    	ecx, 0x3e8
  0x237f	call   	dword ptr [0x1eb3]
  === BLOCK LINK ===
    0x2385
=== CODE BLOCK END ===

=== CODE BLOCK ADDRESS 0x2385 ===
  0x2385	jmp    	0x235f
  === BLOCK LINK ===
    0x2387
=== CODE BLOCK END ===

=== CODE BLOCK ADDRESS 0x2387 ===
  0x2387	mov    	ebx, 1
  0x238c	mov    	eax, dword ptr [0x42b6]
  0x2392	cmp    	eax, ebx
  0x2394	jne    	0x23a4
  === BLOCK LINK ===
    0x2396
=== CODE BLOCK END ===

=== CODE BLOCK ADDRESS 0x2396 ===
  0x2396	mov    	edi, 0x1f
  0x239b	mov    	ecx, edi
  0x239d	call   	0x28c3
  === BLOCK LINK ===
    0x23a2
=== CODE BLOCK END ===

=== CODE BLOCK ADDRESS 0x23a2 ===
  0x23a2	jmp    	0x2410
  === BLOCK LINK ===
    0x23a4
=== CODE BLOCK END ===

=== CODE BLOCK ADDRESS 0x23a4 ===
  0x23a4	mov    	eax, dword ptr [0x429e]
  0x23aa	test   	eax, eax
  0x23ac	jne    	0x2405
  === BLOCK LINK ===
    0x23ae
=== CODE BLOCK END ===

=== CODE BLOCK ADDRESS 0x23ae ===
  0x23ae	mov    	dword ptr [0x4294], ebx
  0x23b4	dec    	esp
  0x23b5	lea    	edi, [0x1ff5]
  0x23bb	dec    	eax
  0x23bc	lea    	edi, [0x1fd6]
  === BLOCK LINK ===
    0x23c2
=== CODE BLOCK END ===

=== CODE BLOCK ADDRESS 0x23c2 ===
  0x23c2	dec    	eax
  0x23c3	mov    	dword ptr [esp + 0x30], edi
  0x23c7	inc    	ecx
  0x23c8	mov    	eax, esi
  0x23ca	mov    	dword ptr [esp + 0x24], eax
  === BLOCK LINK ===
    0x23ce
=== CODE BLOCK END ===

=== CODE BLOCK ADDRESS 0x23ce ===
  0x23ce	dec    	ecx
  0x23cf	cmp    	edi, edi
  0x23d1	jae    	0x23f7
  === BLOCK LINK ===
    0x23d3
=== CODE BLOCK END ===

=== CODE BLOCK ADDRESS 0x23d3 ===
  0x23d3	test   	eax, eax
  0x23d5	jne    	0x23fb
  === BLOCK LINK ===
    0x23d7
=== CODE BLOCK END ===

=== CODE BLOCK ADDRESS 0x23d7 ===
  0x23d7	dec    	esp
  0x23d8	cmp    	dword ptr [edi], esi
  0x23da	je     	0x23ec
  === BLOCK LINK ===
    0x23dc
=== CODE BLOCK END ===

=== CODE BLOCK ADDRESS 0x23dc ===
  0x23dc	dec    	eax
  0x23dd	mov    	eax, dword ptr [edi]
  0x23df	dec    	eax
  0x23e0	mov    	ecx, dword ptr [0x1f92]
  0x23e6	call   	ecx
  === BLOCK LINK ===
    0x23e8
=== CODE BLOCK END ===

=== CODE BLOCK ADDRESS 0x23e8 ===
  0x23e8	mov    	dword ptr [esp + 0x24], eax
  0x23ec	dec    	eax
  0x23ed	add    	edi, 8
  0x23f0	dec    	eax
  0x23f1	mov    	dword ptr [esp + 0x30], edi
  === BLOCK LINK ===
    0x23f5
=== CODE BLOCK END ===

=== CODE BLOCK ADDRESS 0x23f5 ===
  0x23f5	jmp    	0x23ce
  === BLOCK LINK ===
    0x23f7
=== CODE BLOCK END ===

=== CODE BLOCK ADDRESS 0x23f7 ===
  0x23f7	test   	eax, eax
  0x23f9	je     	0x240b
  === BLOCK LINK ===
    0x23fb
=== CODE BLOCK END ===

=== CODE BLOCK ADDRESS 0x23fb ===
  0x23fb	mov    	eax, 0xff
  0x2400	jmp    	0x2566
  === BLOCK LINK ===
    0x2405
=== CODE BLOCK END ===

=== CODE BLOCK ADDRESS 0x2405 ===
  0x2405	mov    	dword ptr [0x3c39], ebx
  0x240b	mov    	edi, 0x1f
  0x2410	mov    	eax, dword ptr [0x4232]
  0x2416	cmp    	eax, ebx
  0x2418	jne    	0x2437
  === BLOCK LINK ===
    0x241a
=== CODE BLOCK END ===

=== CODE BLOCK ADDRESS 0x241a ===
  0x241a	dec    	eax
  0x241b	lea    	edx, [0x1f6f]
  0x2421	dec    	eax
  0x2422	lea    	ecx, [0x1f58]
  0x2428	call   	0x2a9e
  === BLOCK LINK ===
    0x242d
=== CODE BLOCK END ===

=== CODE BLOCK ADDRESS 0x242d ===
  0x242d	mov    	dword ptr [0x4211], 2
  0x2437	test   	esi, esi
  0x2439	jne    	0x2445
  === BLOCK LINK ===
    0x243b
=== CODE BLOCK END ===

=== CODE BLOCK ADDRESS 0x243b ===
  0x243b	dec    	ecx
  0x243c	mov    	eax, esi
  0x243e	dec    	eax
  0x243f	xchg   	dword ptr [0x41fb], eax
  0x2445	dec    	esp
  === BLOCK LINK ===
    0x2446
=== CODE BLOCK END ===

=== CODE BLOCK ADDRESS 0x2446 ===
  0x2446	cmp    	dword ptr [0x4204], esi
  0x244c	je     	0x2478
  === BLOCK LINK ===
    0x244e
=== CODE BLOCK END ===

=== CODE BLOCK ADDRESS 0x244e ===
  0x244e	dec    	eax
  0x244f	lea    	ecx, [0x41fb]
  0x2455	call   	0x2930
  === BLOCK LINK ===
    0x245a
=== CODE BLOCK END ===

=== CODE BLOCK ADDRESS 0x245a ===
  0x245a	test   	eax, eax
  0x245c	je     	0x2478
  === BLOCK LINK ===
    0x245e
=== CODE BLOCK END ===

=== CODE BLOCK ADDRESS 0x245e ===
  0x245e	inc    	ebp
  0x245f	xor    	eax, eax
  0x2461	inc    	ecx
  0x2462	lea    	edx, [eax + 2]
  0x2465	xor    	ecx, ecx
  === BLOCK LINK ===
    0x2467
=== CODE BLOCK END ===

=== CODE BLOCK ADDRESS 0x2467 ===
  0x2467	dec    	eax
  0x2468	mov    	eax, dword ptr [0x41e2]
  0x246e	dec    	esp
  0x246f	mov    	ecx, dword ptr [0x1f03]
  0x2475	inc    	ecx
  === BLOCK LINK ===
    0x2476
=== CODE BLOCK END ===

=== CODE BLOCK ADDRESS 0x2476 ===
  0x2476	call   	ecx
  === BLOCK LINK ===
    0x2478
=== CODE BLOCK END ===

=== CODE BLOCK ADDRESS 0x2478 ===
  0x2478	dec    	eax
  0x2479	mov    	eax, dword ptr [0x1e69]
  0x247f	dec    	eax
  0x2480	mov    	ecx, dword ptr [eax]
  0x2482	dec    	eax
  === BLOCK LINK ===
    0x2483
=== CODE BLOCK END ===

=== CODE BLOCK ADDRESS 0x2483 ===
  0x2483	test   	ecx, ecx
  0x2485	jne    	0x2491
  === BLOCK LINK ===
    0x2487
=== CODE BLOCK END ===

=== CODE BLOCK ADDRESS 0x2487 ===
  0x2487	mov    	eax, 0xff
  0x248c	jmp    	0x2566
  === BLOCK LINK ===
    0x2491
=== CODE BLOCK END ===

=== CODE BLOCK ADDRESS 0x2491 ===
  0x2491	dec    	eax
  0x2492	mov    	dword ptr [esp + 0x28], ecx
  0x2496	mov    	edx, dword ptr [esp + 0x20]
  0x249a	movzx  	eax, word ptr [ecx]
  0x249d	cmp    	ax, 0x20
  === BLOCK LINK ===
    0x24a1
=== CODE BLOCK END ===

=== CODE BLOCK ADDRESS 0x24a1 ===
  0x24a1	ja     	0x2517
  === BLOCK LINK ===
    0x24a3
=== CODE BLOCK END ===

=== CODE BLOCK ADDRESS 0x24a3 ===
  0x24a3	test   	ax, ax
  0x24a6	je     	0x24ac
  === BLOCK LINK ===
    0x24a8
=== CODE BLOCK END ===

=== CODE BLOCK ADDRESS 0x24a8 ===
  0x24a8	test   	edx, edx
  0x24aa	jne    	0x2517
  === BLOCK LINK ===
    0x24ac
=== CODE BLOCK END ===

=== CODE BLOCK ADDRESS 0x24ac ===
  0x24ac	sub    	ax, bx
  0x24af	cmp    	ax, di
  0x24b2	ja     	0x24c2
  === BLOCK LINK ===
    0x24b4
=== CODE BLOCK END ===

=== CODE BLOCK ADDRESS 0x24b4 ===
  0x24b4	dec    	eax
  0x24b5	add    	ecx, 2
  0x24b8	dec    	eax
  0x24b9	mov    	dword ptr [esp + 0x28], ecx
  0x24bd	movzx  	eax, word ptr [ecx]
  === BLOCK LINK ===
    0x24c0
=== CODE BLOCK END ===

=== CODE BLOCK ADDRESS 0x24c0 ===
  0x24c0	jmp    	0x24ac
  === BLOCK LINK ===
    0x24c2
=== CODE BLOCK END ===

=== CODE BLOCK ADDRESS 0x24c2 ===
  0x24c2	test   	byte ptr [esp + 0x7c], bl
  0x24c6	movzx  	eax, word ptr [esp + 0x80]
  0x24ce	inc    	ecx
  0x24cf	mov    	ecx, 0xa
  0x24d4	inc    	esp
  === BLOCK LINK ===
    0x24d5
=== CODE BLOCK END ===

=== CODE BLOCK ADDRESS 0x24d5 ===
  0x24d5	cmovne  	ecx, eax
  0x24d8	dec    	esp
  0x24d9	mov    	eax, ecx
  0x24db	xor    	edx, edx
  0x24dd	dec    	eax
  === BLOCK LINK ===
    0x24de
=== CODE BLOCK END ===

=== CODE BLOCK ADDRESS 0x24de ===
  0x24de	lea    	ecx, [0xffffdb1c]
  0x24e4	call   	0x1928
  === BLOCK LINK ===
    0x24e9
=== CODE BLOCK END ===

=== CODE BLOCK ADDRESS 0x24e9 ===
  0x24e9	mov    	dword ptr [0x3b51], eax
  0x24ef	inc    	esp
  0x24f0	cmp    	dword ptr [0x3b6a], esi
  0x24f6	jne    	0x2500
  === BLOCK LINK ===
    0x24f8
=== CODE BLOCK END ===

=== CODE BLOCK ADDRESS 0x24f8 ===
  0x24f8	mov    	ecx, eax
  0x24fa	call   	dword ptr [0x1e18]
  === BLOCK LINK ===
    0x2500
=== CODE BLOCK END ===

=== CODE BLOCK ADDRESS 0x2500 ===
  0x2500	inc    	esp
  0x2501	cmp    	dword ptr [0x3b3d], esi
  0x2507	jne    	0x2515
  === BLOCK LINK ===
    0x2509
=== CODE BLOCK END ===

=== CODE BLOCK ADDRESS 0x2509 ===
  0x2509	call   	dword ptr [0x1df9]
  === BLOCK LINK ===
    0x250f
=== CODE BLOCK END ===

=== CODE BLOCK ADDRESS 0x250f ===
  0x250f	mov    	eax, dword ptr [0x3b2b]
  0x2515	jmp    	0x2566
  === BLOCK LINK ===
    0x2517
=== CODE BLOCK END ===

=== CODE BLOCK ADDRESS 0x2517 ===
  0x2517	cmp    	ax, 0x22
  0x251b	jne    	0x252b
  === BLOCK LINK ===
    0x251d
=== CODE BLOCK END ===

=== CODE BLOCK ADDRESS 0x251d ===
  0x251d	inc    	ecx
  0x251e	mov    	eax, esi
  0x2520	test   	edx, edx
  0x2522	sete   	al
  0x2525	mov    	edx, eax
  === BLOCK LINK ===
    0x2527
=== CODE BLOCK END ===

=== CODE BLOCK ADDRESS 0x2527 ===
  0x2527	mov    	dword ptr [esp + 0x20], eax
  0x252b	dec    	eax
  0x252c	add    	ecx, 2
  0x252f	dec    	eax
  0x2530	mov    	dword ptr [esp + 0x28], ecx
  === BLOCK LINK ===
    0x2534
=== CODE BLOCK END ===

=== CODE BLOCK ADDRESS 0x2534 ===
  0x2534	jmp    	0x249a
  === BLOCK LINK ===
    0x2539
=== CODE BLOCK END ===

=== CODE BLOCK ADDRESS 0x2539 ===
  0x2539	mov    	dword ptr [0x3b01], eax
  0x253f	cmp    	dword ptr [0x3b1a], 0
  0x2546	jne    	0x2551
  === BLOCK LINK ===
    0x2548
=== CODE BLOCK END ===

=== CODE BLOCK ADDRESS 0x2548 ===
  0x2548	mov    	ecx, eax
  0x254a	call   	dword ptr [0x1dc0]
  === BLOCK LINK ===
    0x2550
=== CODE BLOCK END ===

=== CODE BLOCK ADDRESS 0x2550 ===
  0x2550	int3   	
  0x2551	cmp    	dword ptr [0x3aec], 0
  0x2558	jne    	0x2566
  === BLOCK LINK ===
    0x255a
=== CODE BLOCK END ===

=== CODE BLOCK ADDRESS 0x255a ===
  0x255a	call   	dword ptr [0x1da8]
  === BLOCK LINK ===
    0x2560
=== CODE BLOCK END ===

=== CODE BLOCK ADDRESS 0x2560 ===
  0x2560	mov    	eax, dword ptr [0x3ada]
  0x2566	dec    	esp
  0x2567	lea    	ebx, [esp + 0xb0]
  0x256e	dec    	ecx
  0x256f	mov    	ebx, dword ptr [ebx + 0x10]
  === BLOCK LINK ===
    0x2572
=== CODE BLOCK END ===

=== CODE BLOCK ADDRESS 0x2572 ===
  0x2572	dec    	ecx
  0x2573	mov    	esi, dword ptr [ebx + 0x18]
  0x2576	dec    	ecx
  0x2577	mov    	edi, dword ptr [ebx + 0x20]
  0x257a	dec    	ebp
  === BLOCK LINK ===
    0x257b
=== CODE BLOCK END ===

=== CODE BLOCK ADDRESS 0x257b ===
  0x257b	mov    	esi, dword ptr [ebx + 0x28]
  0x257e	dec    	ecx
  0x257f	mov    	esp, ebx
  0x2581	inc    	ecx
  0x2582	pop    	edi
  === BLOCK LINK ===
    0x2583
=== CODE BLOCK END ===

=== CODE BLOCK ADDRESS 0x2583 ===
  0x2583	ret    	
  0x2584	int3   	
  0x2585	int3   	
  0x2586	int3   	
  0x2587	int3   	
  === BLOCK LINK ===
    0x2588
=== CODE BLOCK END ===

=== CODE BLOCK ADDRESS 0x2588 ===
  0x2588	int3   	
  0x2589	int3   	
  0x258a	int3   	
  0x258b	int3   	
  0x258c	int3   	
  === BLOCK LINK ===
    0x258d
=== CODE BLOCK END ===

=== CODE BLOCK ADDRESS 0x258d ===
  0x258d	int3   	
  0x258e	int3   	
  0x258f	int3   	
  0x2590	dec    	eax
  0x2591	sub    	esp, 0x28
  === BLOCK LINK ===
    0x2594
=== CODE BLOCK END ===

=== CODE BLOCK ADDRESS 0x2594 ===
  0x2594	call   	0x29c4
  === BLOCK LINK ===
    0x2599
=== CODE BLOCK END ===

=== CODE BLOCK ADDRESS 0x2599 ===
  0x2599	dec    	eax
  0x259a	add    	esp, 0x28
  0x259d	jmp    	0x2320
  === BLOCK LINK ===
    0x25a2
=== CODE BLOCK END ===

=== CODE BLOCK ADDRESS 0x25a2 ===
  0x25a2	int3   	
  0x25a3	int3   	
  0x25a4	int3   	
  0x25a5	int3   	
  0x25a6	int3   	
  === BLOCK LINK ===
    0x25a7
=== CODE BLOCK END ===

=== CODE BLOCK ADDRESS 0x25a7 ===
  0x25a7	int3   	
  0x25a8	int3   	
  0x25a9	int3   	
  0x25aa	int3   	
  0x25ab	int3   	
  === BLOCK LINK ===
    0x25ac
=== CODE BLOCK END ===

=== CODE BLOCK ADDRESS 0x25ac ===
  0x25ac	int3   	
  0x25ad	int3   	
  0x25ae	int3   	
  0x25af	int3   	
  0x25b0	int3   	
  === BLOCK LINK ===
    0x25b1
=== CODE BLOCK END ===

=== CODE BLOCK ADDRESS 0x25b1 ===
  0x25b1	int3   	
  0x25b2	int3   	
  0x25b3	int3   	
  0x25b4	int3   	
  0x25b5	int3   	
  === BLOCK LINK ===
    0x25b6
=== CODE BLOCK END ===

=== CODE BLOCK ADDRESS 0x25b6 ===
  0x25b6	nop    	word ptr [eax + eax]
  0x25c0	dec    	eax
  0x25c1	cmp    	ecx, dword ptr [0x3a51]
  0x25c7	jne    	0x25d9
  === BLOCK LINK ===
    0x25c9
=== CODE BLOCK END ===

=== CODE BLOCK ADDRESS 0x25c9 ===
  0x25c9	dec    	eax
  0x25ca	rol    	ecx, 0x10
  0x25cd	test   	cx, 0xffff
  0x25d2	jne    	0x25d5
  === BLOCK LINK ===
    0x25d4
=== CODE BLOCK END ===

=== CODE BLOCK ADDRESS 0x25d4 ===
  0x25d4	ret    	
  0x25d5	dec    	eax
  0x25d6	ror    	ecx, 0x10
  0x25d9	jmp    	0x2620
  === BLOCK LINK ===
    0x25de
=== CODE BLOCK END ===

=== CODE BLOCK ADDRESS 0x25de ===
  0x25de	int3   	
  0x25df	int3   	
  0x25e0	int3   	
  0x25e1	int3   	
  0x25e2	int3   	
  === BLOCK LINK ===
    0x25e3
=== CODE BLOCK END ===

=== CODE BLOCK ADDRESS 0x25e3 ===
  0x25e3	int3   	
  0x25e4	inc    	eax
  0x25e5	push   	ebx
  0x25e6	dec    	eax
  0x25e7	sub    	esp, 0x20
  === BLOCK LINK ===
    0x25ea
=== CODE BLOCK END ===

=== CODE BLOCK ADDRESS 0x25ea ===
  0x25ea	dec    	eax
  0x25eb	mov    	ebx, ecx
  0x25ed	xor    	ecx, ecx
  0x25ef	call   	dword ptr [0x1b6b]
  === BLOCK LINK ===
    0x25f5
=== CODE BLOCK END ===

=== CODE BLOCK ADDRESS 0x25f5 ===
  0x25f5	dec    	eax
  0x25f6	mov    	ecx, ebx
  0x25f8	call   	dword ptr [0x1b6a]
  === BLOCK LINK ===
    0x25fe
=== CODE BLOCK END ===

=== CODE BLOCK ADDRESS 0x25fe ===
  0x25fe	call   	dword ptr [0x1bcc]
  === BLOCK LINK ===
    0x2604
=== CODE BLOCK END ===

=== CODE BLOCK ADDRESS 0x2604 ===
  0x2604	dec    	eax
  0x2605	mov    	ecx, eax
  0x2607	mov    	edx, 0xc0000409
  0x260c	dec    	eax
  0x260d	add    	esp, 0x20
  === BLOCK LINK ===
    0x2610
=== CODE BLOCK END ===

=== CODE BLOCK ADDRESS 0x2610 ===
  0x2610	pop    	ebx
  0x2611	dec    	eax
  0x2612	jmp    	dword ptr [0x1bb0]
  === BLOCK LINK ===
    0x2618
=== CODE BLOCK END ===

=== CODE BLOCK ADDRESS 0x2618 ===
  0x2618	int3   	
  0x2619	int3   	
  0x261a	int3   	
  0x261b	int3   	
  0x261c	int3   	
  === BLOCK LINK ===
    0x261d
=== CODE BLOCK END ===

=== CODE BLOCK ADDRESS 0x261d ===
  0x261d	int3   	
  0x261e	int3   	
  0x261f	int3   	
  0x2620	dec    	eax
  0x2621	mov    	dword ptr [esp + 8], ecx
  === BLOCK LINK ===
    0x2625
=== CODE BLOCK END ===

=== CODE BLOCK ADDRESS 0x2625 ===
  0x2625	dec    	eax
  0x2626	sub    	esp, 0x88
  0x262c	dec    	eax
  0x262d	lea    	ecx, [0x3add]
  0x2633	call   	dword ptr [0x1be7]
  === BLOCK LINK ===
    0x2639
=== CODE BLOCK END ===

=== CODE BLOCK ADDRESS 0x2639 ===
  0x2639	dec    	eax
  0x263a	mov    	eax, dword ptr [0x3bc8]
  0x2640	dec    	eax
  0x2641	mov    	dword ptr [esp + 0x48], eax
  0x2645	inc    	ebp
  === BLOCK LINK ===
    0x2646
=== CODE BLOCK END ===

=== CODE BLOCK ADDRESS 0x2646 ===
  0x2646	xor    	eax, eax
  0x2648	dec    	eax
  0x2649	lea    	edx, [esp + 0x50]
  0x264d	dec    	eax
  0x264e	mov    	ecx, dword ptr [esp + 0x48]
  === BLOCK LINK ===
    0x2652
=== CODE BLOCK END ===

=== CODE BLOCK ADDRESS 0x2652 ===
  0x2652	call   	dword ptr [0x1bd0]
  === BLOCK LINK ===
    0x2658
=== CODE BLOCK END ===

=== CODE BLOCK ADDRESS 0x2658 ===
  0x2658	dec    	eax
  0x2659	mov    	dword ptr [esp + 0x40], eax
  0x265d	dec    	eax
  0x265e	cmp    	dword ptr [esp + 0x40], 0
  0x2663	je     	0x26a7
  === BLOCK LINK ===
    0x2665
=== CODE BLOCK END ===

=== CODE BLOCK ADDRESS 0x2665 ===
  0x2665	dec    	eax
  0x2666	mov    	dword ptr [esp + 0x38], 0
  0x266e	dec    	eax
  0x266f	lea    	eax, [esp + 0x58]
  0x2673	dec    	eax
  === BLOCK LINK ===
    0x2674
=== CODE BLOCK END ===

=== CODE BLOCK ADDRESS 0x2674 ===
  0x2674	mov    	dword ptr [esp + 0x30], eax
  0x2678	dec    	eax
  0x2679	lea    	eax, [esp + 0x60]
  0x267d	dec    	eax
  0x267e	mov    	dword ptr [esp + 0x28], eax
  === BLOCK LINK ===
    0x2682
=== CODE BLOCK END ===

=== CODE BLOCK ADDRESS 0x2682 ===
  0x2682	dec    	eax
  0x2683	lea    	eax, [0x3a87]
  0x2689	dec    	eax
  0x268a	mov    	dword ptr [esp + 0x20], eax
  0x268e	dec    	esp
  === BLOCK LINK ===
    0x268f
=== CODE BLOCK END ===

=== CODE BLOCK ADDRESS 0x268f ===
  0x268f	mov    	ecx, dword ptr [esp + 0x40]
  0x2693	dec    	esp
  0x2694	mov    	eax, dword ptr [esp + 0x48]
  0x2698	dec    	eax
  0x2699	mov    	edx, dword ptr [esp + 0x50]
  === BLOCK LINK ===
    0x269d
=== CODE BLOCK END ===

=== CODE BLOCK ADDRESS 0x269d ===
  0x269d	xor    	ecx, ecx
  0x269f	call   	dword ptr [0x1b73]
  === BLOCK LINK ===
    0x26a5
=== CODE BLOCK END ===

=== CODE BLOCK ADDRESS 0x26a5 ===
  0x26a5	jmp    	0x26ca
  === BLOCK LINK ===
    0x26a7
=== CODE BLOCK END ===

=== CODE BLOCK ADDRESS 0x26a7 ===
  0x26a7	dec    	eax
  0x26a8	mov    	eax, dword ptr [0x3afa]
  0x26ae	dec    	eax
  0x26af	mov    	eax, dword ptr [eax]
  0x26b1	dec    	eax
  === BLOCK LINK ===
    0x26b2
=== CODE BLOCK END ===

=== CODE BLOCK ADDRESS 0x26b2 ===
  0x26b2	mov    	dword ptr [0x3b50], eax
  0x26b8	dec    	eax
  0x26b9	mov    	eax, dword ptr [0x3ae9]
  0x26bf	dec    	eax
  0x26c0	add    	eax, 8
  === BLOCK LINK ===
    0x26c3
=== CODE BLOCK END ===

=== CODE BLOCK ADDRESS 0x26c3 ===
  0x26c3	dec    	eax
  0x26c4	mov    	dword ptr [0x3ade], eax
  0x26ca	dec    	eax
  0x26cb	mov    	eax, dword ptr [0x3b37]
  0x26d1	dec    	eax
  === BLOCK LINK ===
    0x26d2
=== CODE BLOCK END ===

=== CODE BLOCK ADDRESS 0x26d2 ===
  0x26d2	mov    	dword ptr [0x39a8], eax
  0x26d8	dec    	eax
  0x26d9	mov    	eax, dword ptr [esp + 0x90]
  0x26e0	dec    	eax
  0x26e1	mov    	dword ptr [0x3aa9], eax
  === BLOCK LINK ===
    0x26e7
=== CODE BLOCK END ===

=== CODE BLOCK ADDRESS 0x26e7 ===
  0x26e7	mov    	dword ptr [0x397f], 0xc0000409
  0x26f1	mov    	dword ptr [0x3979], 1
  0x26fb	mov    	dword ptr [0x3983], 3
  0x2705	mov    	eax, 8
  0x270a	dec    	eax
  === BLOCK LINK ===
    0x270b
=== CODE BLOCK END ===

=== CODE BLOCK ADDRESS 0x270b ===
  0x270b	imul   	eax, eax, 0
  0x270e	dec    	eax
  0x270f	lea    	ecx, [0x397b]
  0x2715	dec    	eax
  0x2716	mov    	dword ptr [ecx + eax], 2
  === BLOCK LINK ===
    0x271d
=== CODE BLOCK END ===

=== CODE BLOCK ADDRESS 0x271d ===
  0x271d	mov    	eax, 8
  0x2722	dec    	eax
  0x2723	imul   	eax, eax, 1
  0x2726	dec    	eax
  0x2727	lea    	ecx, [0x3963]
  === BLOCK LINK ===
    0x272d
=== CODE BLOCK END ===

=== CODE BLOCK ADDRESS 0x272d ===
  0x272d	dec    	eax
  0x272e	mov    	edx, dword ptr [0x38e4]
  0x2734	dec    	eax
  0x2735	mov    	dword ptr [ecx + eax], edx
  0x2738	mov    	eax, 8
  === BLOCK LINK ===
    0x273d
=== CODE BLOCK END ===

=== CODE BLOCK ADDRESS 0x273d ===
  0x273d	dec    	eax
  0x273e	imul   	eax, eax, 2
  0x2741	dec    	eax
  0x2742	lea    	ecx, [0x3948]
  0x2748	dec    	eax
  === BLOCK LINK ===
    0x2749
=== CODE BLOCK END ===

=== CODE BLOCK ADDRESS 0x2749 ===
  0x2749	mov    	edx, dword ptr [0x38d1]
  0x274f	dec    	eax
  0x2750	mov    	dword ptr [ecx + eax], edx
  0x2753	mov    	eax, 8
  0x2758	dec    	eax
  === BLOCK LINK ===
    0x2759
=== CODE BLOCK END ===

=== CODE BLOCK ADDRESS 0x2759 ===
  0x2759	imul   	eax, eax, 0
  0x275c	dec    	eax
  0x275d	mov    	ecx, dword ptr [0x38b5]
  0x2763	dec    	eax
  0x2764	mov    	dword ptr [esp + eax + 0x68], ecx
  === BLOCK LINK ===
    0x2768
=== CODE BLOCK END ===

=== CODE BLOCK ADDRESS 0x2768 ===
  0x2768	mov    	eax, 8
  0x276d	dec    	eax
  0x276e	imul   	eax, eax, 1
  0x2771	dec    	eax
  0x2772	mov    	ecx, dword ptr [0x38a8]
  === BLOCK LINK ===
    0x2778
=== CODE BLOCK END ===

=== CODE BLOCK ADDRESS 0x2778 ===
  0x2778	dec    	eax
  0x2779	mov    	dword ptr [esp + eax + 0x68], ecx
  0x277d	dec    	eax
  0x277e	lea    	ecx, [0x187c]
  0x2784	call   	0x25e4
  === BLOCK LINK ===
    0x2789
=== CODE BLOCK END ===

=== CODE BLOCK ADDRESS 0x2789 ===
  0x2789	dec    	eax
  0x278a	add    	esp, 0x88
  0x2790	ret    	
  0x2791	int3   	
  0x2792	int3   	
  === BLOCK LINK ===
    0x2793
=== CODE BLOCK END ===

=== CODE BLOCK ADDRESS 0x2793 ===
  0x2793	int3   	
  0x2794	int3   	
  0x2795	int3   	
  0x2796	int3   	
  0x2797	jmp    	dword ptr [0x1ba3]
  === BLOCK LINK ===
    0x279d
=== CODE BLOCK END ===

=== CODE BLOCK ADDRESS 0x279d ===
  0x279d	int3   	
  0x279e	int3   	
  0x279f	int3   	
  0x27a0	int3   	
  0x27a1	int3   	
  === BLOCK LINK ===
    0x27a2
=== CODE BLOCK END ===

=== CODE BLOCK ADDRESS 0x27a2 ===
  0x27a2	int3   	
  0x27a3	int3   	
  0x27a4	int3   	
  0x27a5	int3   	
  0x27a6	int3   	
  === BLOCK LINK ===
    0x27a7
=== CODE BLOCK END ===

=== CODE BLOCK ADDRESS 0x27a7 ===
  0x27a7	int3   	
  0x27a8	int3   	
  0x27a9	int3   	
  0x27aa	int3   	
  0x27ab	int3   	
  === BLOCK LINK ===
    0x27ac
=== CODE BLOCK END ===

=== CODE BLOCK ADDRESS 0x27ac ===
  0x27ac	int3   	
  0x27ad	int3   	
  0x27ae	int3   	
  0x27af	int3   	
  0x27b0	dec    	eax
  === BLOCK LINK ===
    0x27b1
=== CODE BLOCK END ===

=== CODE BLOCK ADDRESS 0x27b1 ===
  0x27b1	sub    	esp, 0x28
  0x27b4	dec    	eax
  0x27b5	mov    	eax, dword ptr [ecx]
  0x27b7	cmp    	dword ptr [eax], 0xe06d7363
  0x27bd	jne    	0x27e2
  === BLOCK LINK ===
    0x27bf
=== CODE BLOCK END ===

=== CODE BLOCK ADDRESS 0x27bf ===
  0x27bf	cmp    	dword ptr [eax + 0x18], 4
  0x27c3	jne    	0x27e2
  === BLOCK LINK ===
    0x27c5
=== CODE BLOCK END ===

=== CODE BLOCK ADDRESS 0x27c5 ===
  0x27c5	mov    	ecx, dword ptr [eax + 0x20]
  0x27c8	lea    	eax, [ecx - 0x19930520]
  0x27ce	cmp    	eax, 2
  0x27d1	jbe    	0x27db
  === BLOCK LINK ===
    0x27d3
=== CODE BLOCK END ===

=== CODE BLOCK ADDRESS 0x27d3 ===
  0x27d3	cmp    	ecx, 0x1994000
  0x27d9	jne    	0x27e2
  === BLOCK LINK ===
    0x27db
=== CODE BLOCK END ===

=== CODE BLOCK ADDRESS 0x27db ===
  0x27db	call   	dword ptr [0x1ae7]
  === BLOCK LINK ===
    0x27e1
=== CODE BLOCK END ===

=== CODE BLOCK ADDRESS 0x27e1 ===
  0x27e1	int3   	
  0x27e2	xor    	eax, eax
  0x27e4	dec    	eax
  0x27e5	add    	esp, 0x28
  0x27e8	ret    	
  === BLOCK LINK ===
    0x27e9
=== CODE BLOCK END ===

=== CODE BLOCK ADDRESS 0x27e9 ===
  0x27e9	int3   	
  0x27ea	int3   	
  0x27eb	int3   	
  0x27ec	int3   	
  0x27ed	int3   	
  === BLOCK LINK ===
    0x27ee
=== CODE BLOCK END ===

=== CODE BLOCK ADDRESS 0x27ee ===
  0x27ee	int3   	
  0x27ef	int3   	
  0x27f0	dec    	eax
  0x27f1	sub    	esp, 0x28
  0x27f4	dec    	eax
  === BLOCK LINK ===
    0x27f5
=== CODE BLOCK END ===

=== CODE BLOCK ADDRESS 0x27f5 ===
  0x27f5	lea    	ecx, [0xffffffb5]
  0x27fb	call   	dword ptr [0x195f]
  === BLOCK LINK ===
    0x2801
=== CODE BLOCK END ===

=== CODE BLOCK ADDRESS 0x2801 ===
  0x2801	xor    	eax, eax
  0x2803	dec    	eax
  0x2804	add    	esp, 0x28
  0x2807	ret    	
  0x2808	int3   	
  === BLOCK LINK ===
    0x2809
=== CODE BLOCK END ===

=== CODE BLOCK ADDRESS 0x2809 ===
  0x2809	int3   	
  0x280a	int3   	
  0x280b	int3   	
  0x280c	int3   	
  0x280d	int3   	
  === BLOCK LINK ===
    0x280e
=== CODE BLOCK END ===

=== CODE BLOCK ADDRESS 0x280e ===
  0x280e	jmp    	dword ptr [0x1b24]
  === BLOCK LINK ===
    0x2814
=== CODE BLOCK END ===

=== CODE BLOCK ADDRESS 0x2814 ===
  0x2814	int3   	
  0x2815	int3   	
  0x2816	int3   	
  0x2817	int3   	
  0x2818	int3   	
  === BLOCK LINK ===
    0x2819
=== CODE BLOCK END ===

=== CODE BLOCK ADDRESS 0x2819 ===
  0x2819	int3   	
  0x281a	int3   	
  0x281b	int3   	
  0x281c	dec    	eax
  0x281d	sub    	esp, 0x18
  === BLOCK LINK ===
    0x2820
=== CODE BLOCK END ===

=== CODE BLOCK ADDRESS 0x2820 ===
  0x2820	xor    	edx, edx
  0x2822	dec    	eax
  0x2823	lea    	eax, [ecx - 1]
  0x2826	dec    	eax
  0x2827	cmp    	eax, -3
  === BLOCK LINK ===
    0x282a
=== CODE BLOCK END ===

=== CODE BLOCK ADDRESS 0x282a ===
  0x282a	ja     	0x2868
  === BLOCK LINK ===
    0x282c
=== CODE BLOCK END ===

=== CODE BLOCK ADDRESS 0x282c ===
  0x282c	mov    	eax, 0x5a4d
  0x2831	cmp    	word ptr [ecx], ax
  0x2834	jne    	0x2860
  === BLOCK LINK ===
    0x2836
=== CODE BLOCK END ===

=== CODE BLOCK ADDRESS 0x2836 ===
  0x2836	cmp    	dword ptr [ecx + 0x3c], edx
  0x2839	jl     	0x2860
  === BLOCK LINK ===
    0x283b
=== CODE BLOCK END ===

=== CODE BLOCK ADDRESS 0x283b ===
  0x283b	cmp    	dword ptr [ecx + 0x3c], 0x10000000
  0x2842	jae    	0x2860
  === BLOCK LINK ===
    0x2844
=== CODE BLOCK END ===

=== CODE BLOCK ADDRESS 0x2844 ===
  0x2844	dec    	eax
  0x2845	arpl   	word ptr [ecx + 0x3c], ax
  0x2848	dec    	eax
  0x2849	add    	eax, ecx
  0x284b	dec    	eax
  === BLOCK LINK ===
    0x284c
=== CODE BLOCK END ===

=== CODE BLOCK ADDRESS 0x284c ===
  0x284c	mov    	dword ptr [esp], eax
  0x284f	cmp    	dword ptr [eax], 0x4550
  0x2855	dec    	eax
  0x2856	cmovne  	eax, edx
  0x2859	dec    	eax
  === BLOCK LINK ===
    0x285a
=== CODE BLOCK END ===

=== CODE BLOCK ADDRESS 0x285a ===
  0x285a	mov    	edx, eax
  0x285c	dec    	eax
  0x285d	mov    	dword ptr [esp], eax
  0x2860	jmp    	0x2868
  === BLOCK LINK ===
    0x2862
=== CODE BLOCK END ===

=== CODE BLOCK ADDRESS 0x2862 ===
  0x2862	xor    	edx, edx
  0x2864	dec    	eax
  0x2865	mov    	dword ptr [esp], edx
  0x2868	dec    	eax
  0x2869	mov    	eax, edx
  === BLOCK LINK ===
    0x286b
=== CODE BLOCK END ===

=== CODE BLOCK ADDRESS 0x286b ===
  0x286b	dec    	eax
  0x286c	add    	esp, 0x18
  0x286f	ret    	
  0x2870	int3   	
  0x2871	int3   	
  === BLOCK LINK ===
    0x2872
=== CODE BLOCK END ===

=== CODE BLOCK ADDRESS 0x2872 ===
  0x2872	int3   	
  0x2873	int3   	
  0x2874	int3   	
  0x2875	int3   	
  0x2876	int3   	
  === BLOCK LINK ===
    0x2877
=== CODE BLOCK END ===

=== CODE BLOCK ADDRESS 0x2877 ===
  0x2877	int3   	
  0x2878	inc    	eax
  0x2879	push   	ebx
  0x287a	dec    	eax
  0x287b	sub    	esp, 0x20
  === BLOCK LINK ===
    0x287e
=== CODE BLOCK END ===

=== CODE BLOCK ADDRESS 0x287e ===
  0x287e	mov    	ebx, ecx
  0x2880	xor    	ecx, ecx
  0x2882	call   	dword ptr [0x1910]
  === BLOCK LINK ===
    0x2888
=== CODE BLOCK END ===

=== CODE BLOCK ADDRESS 0x2888 ===
  0x2888	dec    	eax
  0x2889	test   	eax, eax
  0x288b	je     	0x28b5
  === BLOCK LINK ===
    0x288d
=== CODE BLOCK END ===

=== CODE BLOCK ADDRESS 0x288d ===
  0x288d	dec    	eax
  0x288e	mov    	ecx, eax
  0x2890	call   	0x281c
  === BLOCK LINK ===
    0x2895
=== CODE BLOCK END ===

=== CODE BLOCK ADDRESS 0x2895 ===
  0x2895	dec    	eax
  0x2896	test   	eax, eax
  0x2898	je     	0x28b5
  === BLOCK LINK ===
    0x289a
=== CODE BLOCK END ===

=== CODE BLOCK ADDRESS 0x289a ===
  0x289a	mov    	ecx, 2
  0x289f	cmp    	word ptr [eax + 0x5c], cx
  0x28a3	jne    	0x28a9
  === BLOCK LINK ===
    0x28a5
=== CODE BLOCK END ===

=== CODE BLOCK ADDRESS 0x28a5 ===
  0x28a5	mov    	eax, ecx
  0x28a7	jmp    	0x28b7
  === BLOCK LINK ===
    0x28a9
=== CODE BLOCK END ===

=== CODE BLOCK ADDRESS 0x28a9 ===
  0x28a9	cmp    	word ptr [eax + 0x5c], 3
  0x28ae	mov    	eax, 1
  0x28b3	je     	0x28b7
  === BLOCK LINK ===
    0x28b5
=== CODE BLOCK END ===

=== CODE BLOCK ADDRESS 0x28b5 ===
  0x28b5	mov    	eax, ebx
  0x28b7	dec    	eax
  0x28b8	add    	esp, 0x20
  0x28bb	pop    	ebx
  0x28bc	ret    	
  === BLOCK LINK ===
    0x28bd
=== CODE BLOCK END ===

=== CODE BLOCK ADDRESS 0x28bd ===
  0x28bd	int3   	
  0x28be	int3   	
  0x28bf	int3   	
  0x28c0	int3   	
  0x28c1	int3   	
  === BLOCK LINK ===
    0x28c2
=== CODE BLOCK END ===

=== CODE BLOCK ADDRESS 0x28c2 ===
  0x28c2	int3   	
  0x28c3	jmp    	dword ptr [0x1a67]
  === BLOCK LINK ===
    0x28c9
=== CODE BLOCK END ===

=== CODE BLOCK ADDRESS 0x28c9 ===
  0x28c9	int3   	
  0x28ca	int3   	
  0x28cb	int3   	
  0x28cc	int3   	
  0x28cd	int3   	
  === BLOCK LINK ===
    0x28ce
=== CODE BLOCK END ===

=== CODE BLOCK ADDRESS 0x28ce ===
  0x28ce	int3   	
  0x28cf	int3   	
  0x28d0	xor    	eax, eax
  0x28d2	ret    	
  0x28d3	int3   	
  === BLOCK LINK ===
    0x28d4
=== CODE BLOCK END ===

=== CODE BLOCK ADDRESS 0x28d4 ===
  0x28d4	int3   	
  0x28d5	int3   	
  0x28d6	int3   	
  0x28d7	int3   	
  0x28d8	int3   	
  === BLOCK LINK ===
    0x28d9
=== CODE BLOCK END ===

=== CODE BLOCK ADDRESS 0x28d9 ===
  0x28d9	int3   	
  0x28da	int3   	
  0x28db	int3   	
  0x28dc	int3   	
  0x28dd	int3   	
  === BLOCK LINK ===
    0x28de
=== CODE BLOCK END ===

=== CODE BLOCK ADDRESS 0x28de ===
  0x28de	int3   	
  0x28df	int3   	
  0x28e0	dec    	esp
  0x28e1	arpl   	word ptr [ecx + 0x3c], ax
  0x28e4	inc    	ebp
  === BLOCK LINK ===
    0x28e5
=== CODE BLOCK END ===

=== CODE BLOCK ADDRESS 0x28e5 ===
  0x28e5	xor    	ecx, ecx
  0x28e7	dec    	esp
  0x28e8	add    	eax, ecx
  0x28ea	dec    	esp
  0x28eb	mov    	edx, edx
  === BLOCK LINK ===
    0x28ed
=== CODE BLOCK END ===

=== CODE BLOCK ADDRESS 0x28ed ===
  0x28ed	inc    	ecx
  0x28ee	movzx  	eax, word ptr [eax + 0x14]
  0x28f2	inc    	ebp
  0x28f3	movzx  	ebx, word ptr [eax + 6]
  0x28f7	dec    	eax
  === BLOCK LINK ===
    0x28f8
=== CODE BLOCK END ===

=== CODE BLOCK ADDRESS 0x28f8 ===
  0x28f8	add    	eax, 0x18
  0x28fb	dec    	ecx
  0x28fc	add    	eax, eax
  0x28fe	inc    	ebp
  0x28ff	test   	ebx, ebx
  === BLOCK LINK ===
    0x2901
=== CODE BLOCK END ===

=== CODE BLOCK ADDRESS 0x2901 ===
  0x2901	je     	0x2921
  === BLOCK LINK ===
    0x2903
=== CODE BLOCK END ===

=== CODE BLOCK ADDRESS 0x2903 ===
  0x2903	mov    	edx, dword ptr [eax + 0xc]
  0x2906	dec    	esp
  0x2907	cmp    	edx, edx
  0x2909	jb     	0x2915
  === BLOCK LINK ===
    0x290b
=== CODE BLOCK END ===

=== CODE BLOCK ADDRESS 0x290b ===
  0x290b	mov    	ecx, dword ptr [eax + 8]
  0x290e	add    	ecx, edx
  0x2910	dec    	esp
  0x2911	cmp    	edx, ecx
  0x2913	jb     	0x2923
  === BLOCK LINK ===
    0x2915
=== CODE BLOCK END ===

=== CODE BLOCK ADDRESS 0x2915 ===
  0x2915	inc    	ecx
  0x2916	inc    	ecx
  0x2918	dec    	eax
  0x2919	add    	eax, 0x28
  0x291c	inc    	ebp
  === BLOCK LINK ===
    0x291d
=== CODE BLOCK END ===

=== CODE BLOCK ADDRESS 0x291d ===
  0x291d	cmp    	ecx, ebx
  0x291f	jb     	0x2903
  === BLOCK LINK ===
    0x2921
=== CODE BLOCK END ===

=== CODE BLOCK ADDRESS 0x2921 ===
  0x2921	xor    	eax, eax
  0x2923	ret    	
  0x2924	int3   	
  0x2925	int3   	
  0x2926	int3   	
  === BLOCK LINK ===
    0x2927
=== CODE BLOCK END ===

=== CODE BLOCK ADDRESS 0x2927 ===
  0x2927	int3   	
  0x2928	int3   	
  0x2929	int3   	
  0x292a	int3   	
  0x292b	int3   	
  === BLOCK LINK ===
    0x292c
=== CODE BLOCK END ===

=== CODE BLOCK ADDRESS 0x292c ===
  0x292c	int3   	
  0x292d	int3   	
  0x292e	int3   	
  0x292f	int3   	
  0x2930	dec    	eax
  === BLOCK LINK ===
    0x2931
=== CODE BLOCK END ===

=== CODE BLOCK ADDRESS 0x2931 ===
  0x2931	mov    	dword ptr [esp + 8], ebx
  0x2935	push   	edi
  0x2936	dec    	eax
  0x2937	sub    	esp, 0x20
  0x293a	dec    	eax
  === BLOCK LINK ===
    0x293b
=== CODE BLOCK END ===

=== CODE BLOCK ADDRESS 0x293b ===
  0x293b	mov    	ebx, ecx
  0x293d	dec    	eax
  0x293e	lea    	edi, [0xffffd6bc]
  0x2944	dec    	eax
  0x2945	mov    	ecx, edi
  === BLOCK LINK ===
    0x2947
=== CODE BLOCK END ===

=== CODE BLOCK ADDRESS 0x2947 ===
  0x2947	call   	0x2990
  === BLOCK LINK ===
    0x294c
=== CODE BLOCK END ===

=== CODE BLOCK ADDRESS 0x294c ===
  0x294c	test   	eax, eax
  0x294e	je     	0x2972
  === BLOCK LINK ===
    0x2950
=== CODE BLOCK END ===

=== CODE BLOCK ADDRESS 0x2950 ===
  0x2950	dec    	eax
  0x2951	sub    	ebx, edi
  0x2953	dec    	eax
  0x2954	mov    	edx, ebx
  0x2956	dec    	eax
  === BLOCK LINK ===
    0x2957
=== CODE BLOCK END ===

=== CODE BLOCK ADDRESS 0x2957 ===
  0x2957	mov    	ecx, edi
  0x2959	call   	0x28e0
  === BLOCK LINK ===
    0x295e
=== CODE BLOCK END ===

=== CODE BLOCK ADDRESS 0x295e ===
  0x295e	dec    	eax
  0x295f	test   	eax, eax
  0x2961	je     	0x2972
  === BLOCK LINK ===
    0x2963
=== CODE BLOCK END ===

=== CODE BLOCK ADDRESS 0x2963 ===
  0x2963	mov    	eax, dword ptr [eax + 0x24]
  0x2966	shr    	eax, 0x1f
  0x2969	not    	eax
  0x296b	and    	eax, 1
  0x296e	jmp    	0x2972
  === BLOCK LINK ===
    0x2970
=== CODE BLOCK END ===

=== CODE BLOCK ADDRESS 0x2970 ===
  0x2970	xor    	eax, eax
  0x2972	dec    	eax
  0x2973	mov    	ebx, dword ptr [esp + 0x30]
  0x2977	dec    	eax
  0x2978	add    	esp, 0x20
  === BLOCK LINK ===
    0x297b
=== CODE BLOCK END ===

=== CODE BLOCK ADDRESS 0x297b ===
  0x297b	pop    	edi
  0x297c	ret    	
  0x297d	int3   	
  0x297e	int3   	
  0x297f	int3   	
  === BLOCK LINK ===
    0x2980
=== CODE BLOCK END ===

=== CODE BLOCK ADDRESS 0x2980 ===
  0x2980	int3   	
  0x2981	int3   	
  0x2982	int3   	
  0x2983	int3   	
  0x2984	int3   	
  === BLOCK LINK ===
    0x2985
=== CODE BLOCK END ===

=== CODE BLOCK ADDRESS 0x2985 ===
  0x2985	int3   	
  0x2986	int3   	
  0x2987	int3   	
  0x2988	int3   	
  0x2989	int3   	
  === BLOCK LINK ===
    0x298a
=== CODE BLOCK END ===

=== CODE BLOCK ADDRESS 0x298a ===
  0x298a	int3   	
  0x298b	int3   	
  0x298c	int3   	
  0x298d	int3   	
  0x298e	int3   	
  === BLOCK LINK ===
    0x298f
=== CODE BLOCK END ===

=== CODE BLOCK ADDRESS 0x298f ===
  0x298f	int3   	
  0x2990	mov    	eax, 0x5a4d
  0x2995	cmp    	word ptr [ecx], ax
  0x2998	jne    	0x29ba
  === BLOCK LINK ===
    0x299a
=== CODE BLOCK END ===

=== CODE BLOCK ADDRESS 0x299a ===
  0x299a	dec    	eax
  0x299b	arpl   	word ptr [ecx + 0x3c], ax
  0x299e	dec    	eax
  0x299f	add    	eax, ecx
  0x29a1	cmp    	dword ptr [eax], 0x4550
  === BLOCK LINK ===
    0x29a7
=== CODE BLOCK END ===

=== CODE BLOCK ADDRESS 0x29a7 ===
  0x29a7	jne    	0x29ba
  === BLOCK LINK ===
    0x29a9
=== CODE BLOCK END ===

=== CODE BLOCK ADDRESS 0x29a9 ===
  0x29a9	mov    	ecx, 0x20b
  0x29ae	cmp    	word ptr [eax + 0x18], cx
  0x29b2	jne    	0x29ba
  === BLOCK LINK ===
    0x29b4
=== CODE BLOCK END ===

=== CODE BLOCK ADDRESS 0x29b4 ===
  0x29b4	mov    	eax, 1
  0x29b9	ret    	
  0x29ba	xor    	eax, eax
  0x29bc	ret    	
  0x29bd	int3   	
  === BLOCK LINK ===
    0x29be
=== CODE BLOCK END ===

=== CODE BLOCK ADDRESS 0x29be ===
  0x29be	int3   	
  0x29bf	int3   	
  0x29c0	int3   	
  0x29c1	int3   	
  0x29c2	int3   	
  === BLOCK LINK ===
    0x29c3
=== CODE BLOCK END ===

=== CODE BLOCK ADDRESS 0x29c3 ===
  0x29c3	int3   	
  0x29c4	dec    	eax
  0x29c5	mov    	dword ptr [esp + 0x20], ebx
  0x29c9	push   	ebp
  0x29ca	dec    	eax
  === BLOCK LINK ===
    0x29cb
=== CODE BLOCK END ===

=== CODE BLOCK ADDRESS 0x29cb ===
  0x29cb	mov    	ebp, esp
  0x29cd	dec    	eax
  0x29ce	sub    	esp, 0x20
  0x29d1	dec    	eax
  0x29d2	and    	dword ptr [ebp + 0x18], 0
  === BLOCK LINK ===
    0x29d6
=== CODE BLOCK END ===

=== CODE BLOCK ADDRESS 0x29d6 ===
  0x29d6	dec    	eax
  0x29d7	mov    	ebx, 0x2ddfa232
  0x29dc	cdq    	
  0x29dd	sub    	eax, dword ptr [eax]
  0x29df	add    	byte ptr [eax - 0x75], cl
  === BLOCK LINK ===
    0x29e2
=== CODE BLOCK END ===

=== CODE BLOCK ADDRESS 0x29e2 ===
  0x29e2	add    	eax, 0x3631
  0x29e7	dec    	eax
  0x29e8	cmp    	eax, ebx
  0x29ea	jne    	0x2a83
  === BLOCK LINK ===
    0x29f0
=== CODE BLOCK END ===

=== CODE BLOCK ADDRESS 0x29f0 ===
  0x29f0	dec    	eax
  0x29f1	lea    	ecx, [ebp + 0x18]
  0x29f4	call   	dword ptr [0x1856]
  === BLOCK LINK ===
    0x29fa
=== CODE BLOCK END ===

=== CODE BLOCK ADDRESS 0x29fa ===
  0x29fa	dec    	eax
  0x29fb	mov    	eax, dword ptr [ebp + 0x18]
  0x29fe	dec    	eax
  0x29ff	mov    	dword ptr [ebp + 0x10], eax
  0x2a02	call   	dword ptr [0x17b0]
  === BLOCK LINK ===
    0x2a08
=== CODE BLOCK END ===

=== CODE BLOCK ADDRESS 0x2a08 ===
  0x2a08	mov    	eax, eax
  0x2a0a	dec    	eax
  0x2a0b	xor    	dword ptr [ebp + 0x10], eax
  0x2a0e	call   	dword ptr [0x17ac]
  === BLOCK LINK ===
    0x2a14
=== CODE BLOCK END ===

=== CODE BLOCK ADDRESS 0x2a14 ===
  0x2a14	mov    	eax, eax
  0x2a16	dec    	eax
  0x2a17	xor    	dword ptr [ebp + 0x10], eax
  0x2a1a	call   	dword ptr [0x1828]
  === BLOCK LINK ===
    0x2a20
=== CODE BLOCK END ===

=== CODE BLOCK ADDRESS 0x2a20 ===
  0x2a20	mov    	eax, eax
  0x2a22	dec    	eax
  0x2a23	shl    	eax, 0x18
  0x2a26	dec    	eax
  0x2a27	xor    	dword ptr [ebp + 0x10], eax
  === BLOCK LINK ===
    0x2a2a
=== CODE BLOCK END ===

=== CODE BLOCK ADDRESS 0x2a2a ===
  0x2a2a	call   	dword ptr [0x1818]
  === BLOCK LINK ===
    0x2a30
=== CODE BLOCK END ===

=== CODE BLOCK ADDRESS 0x2a30 ===
  0x2a30	mov    	eax, eax
  0x2a32	dec    	eax
  0x2a33	lea    	ecx, [ebp + 0x10]
  0x2a36	dec    	eax
  0x2a37	xor    	eax, dword ptr [ebp + 0x10]
  === BLOCK LINK ===
    0x2a3a
=== CODE BLOCK END ===

=== CODE BLOCK ADDRESS 0x2a3a ===
  0x2a3a	dec    	eax
  0x2a3b	xor    	eax, ecx
  0x2a3d	dec    	eax
  0x2a3e	lea    	ecx, [ebp + 0x20]
  0x2a41	dec    	eax
  === BLOCK LINK ===
    0x2a42
=== CODE BLOCK END ===

=== CODE BLOCK ADDRESS 0x2a42 ===
  0x2a42	mov    	dword ptr [ebp + 0x10], eax
  0x2a45	call   	dword ptr [0x179d]
  === BLOCK LINK ===
    0x2a4b
=== CODE BLOCK END ===

=== CODE BLOCK ADDRESS 0x2a4b ===
  0x2a4b	mov    	eax, dword ptr [ebp + 0x20]
  0x2a4e	dec    	eax
  0x2a4f	mov    	ecx, 0xffffffff
  0x2a54	.byte  	0xff
  0x2a55	inc    	dword ptr [eax]
  === BLOCK LINK ===
    0x2a57
=== CODE BLOCK END ===

=== CODE BLOCK ADDRESS 0x2a57 ===
  0x2a57	add    	byte ptr [eax - 0x3f], cl
  0x2a5a	loopne  	0x2a7c
  === BLOCK LINK ===
    0x2a5c
=== CODE BLOCK END ===

=== CODE BLOCK ADDRESS 0x2a5c ===
  0x2a5c	dec    	eax
  0x2a5d	xor    	eax, dword ptr [ebp + 0x20]
  0x2a60	dec    	eax
  0x2a61	xor    	eax, dword ptr [ebp + 0x10]
  0x2a64	dec    	eax
  === BLOCK LINK ===
    0x2a65
=== CODE BLOCK END ===

=== CODE BLOCK ADDRESS 0x2a65 ===
  0x2a65	and    	eax, ecx
  0x2a67	dec    	eax
  0x2a68	mov    	ecx, eax
  0x2a6a	dec    	eax
  0x2a6b	cmp    	eax, ebx
  === BLOCK LINK ===
    0x2a6d
=== CODE BLOCK END ===

=== CODE BLOCK ADDRESS 0x2a6d ===
  0x2a6d	jne    	0x2a7c
  === BLOCK LINK ===
    0x2a6f
=== CODE BLOCK END ===

=== CODE BLOCK ADDRESS 0x2a6f ===
  0x2a6f	dec    	eax
  0x2a70	mov    	eax, 0x2ddfa233
  0x2a75	cdq    	
  0x2a76	sub    	eax, dword ptr [eax]
  0x2a78	add    	byte ptr [eax - 0x75], cl
  === BLOCK LINK ===
    0x2a7b
=== CODE BLOCK END ===

=== CODE BLOCK ADDRESS 0x2a7b ===
  0x2a7b	enter  	-0x76b8, 0xd
  0x2a7f	xchg   	eax, ebp
  0x2a80	xor    	eax, 0x8b480000
  0x2a85	pop    	esp
  0x2a86	and    	al, 0x48
  === BLOCK LINK ===
    0x2a88
=== CODE BLOCK END ===

=== CODE BLOCK ADDRESS 0x2a88 ===
  0x2a88	dec    	eax
  0x2a89	not    	eax
  0x2a8b	dec    	eax
  0x2a8c	mov    	dword ptr [0x358e], eax
  0x2a92	dec    	eax
  === BLOCK LINK ===
    0x2a93
=== CODE BLOCK END ===

=== CODE BLOCK ADDRESS 0x2a93 ===
  0x2a93	add    	esp, 0x20
  0x2a96	pop    	ebp
  0x2a97	ret    	
  0x2a98	int3   	
  0x2a99	int3   	
  === BLOCK LINK ===
    0x2a9a
=== CODE BLOCK END ===

=== CODE BLOCK ADDRESS 0x2a9a ===
  0x2a9a	int3   	
  0x2a9b	int3   	
  0x2a9c	int3   	
  0x2a9d	int3   	
  0x2a9e	jmp    	dword ptr [0x1854]
  === BLOCK LINK ===
    0x2aa4
=== CODE BLOCK END ===

=== CODE BLOCK ADDRESS 0x2aa4 ===
  0x2aa4	int3   	
  0x2aa5	int3   	
  0x2aa6	int3   	
  0x2aa7	int3   	
  0x2aa8	int3   	
  === BLOCK LINK ===
    0x2aa9
=== CODE BLOCK END ===

=== CODE BLOCK ADDRESS 0x2aa9 ===
  0x2aa9	int3   	
  0x2aaa	jmp    	dword ptr [0x1840]
  === BLOCK LINK ===
    0x2ab0
=== CODE BLOCK END ===

=== CODE BLOCK ADDRESS 0x2ab0 ===
  0x2ab0	int3   	
  0x2ab1	int3   	
  0x2ab2	int3   	
  0x2ab3	int3   	
  0x2ab4	int3   	
  === BLOCK LINK ===
    0x2ab5
=== CODE BLOCK END ===

=== CODE BLOCK ADDRESS 0x2ab5 ===
  0x2ab5	int3   	
  0x2ab6	int3   	
  0x2ab7	int3   	
  0x2ab8	int3   	
  0x2ab9	int3   	
  === BLOCK LINK ===
    0x2aba
=== CODE BLOCK END ===

=== CODE BLOCK ADDRESS 0x2aba ===
  0x2aba	int3   	
  0x2abb	int3   	
  0x2abc	int3   	
  0x2abd	int3   	
  0x2abe	int3   	
  === BLOCK LINK ===
    0x2abf
=== CODE BLOCK END ===

=== CODE BLOCK ADDRESS 0x2abf ===
  0x2abf	int3   	
  0x2ac0	ret    	0
  0x2ac3	int3   	
  0x2ac4	int3   	
  0x2ac5	int3   	
  === BLOCK LINK ===
    0x2ac6
=== CODE BLOCK END ===

=== CODE BLOCK ADDRESS 0x2ac6 ===
  0x2ac6	int3   	
  0x2ac7	int3   	
  0x2ac8	int3   	
  0x2ac9	int3   	
  0x2aca	int3   	
  === BLOCK LINK ===
    0x2acb
=== CODE BLOCK END ===

=== CODE BLOCK ADDRESS 0x2acb ===
  0x2acb	int3   	
  0x2acc	int3   	
  0x2acd	int3   	
  0x2ace	int3   	
  0x2acf	int3   	
  === BLOCK LINK ===
    0x2ad0
=== CODE BLOCK END ===

=== CODE BLOCK ADDRESS 0x2ad0 ===
  0x2ad0	int3   	
  0x2ad1	int3   	
  0x2ad2	int3   	
  0x2ad3	int3   	
  0x2ad4	int3   	
  === BLOCK LINK ===
    0x2ad5
=== CODE BLOCK END ===

=== CODE BLOCK ADDRESS 0x2ad5 ===
  0x2ad5	int3   	
  0x2ad6	jmp    	dword ptr [0x1804]
  === BLOCK LINK ===
    0x2adc
=== CODE BLOCK END ===

=== CODE BLOCK ADDRESS 0x2adc ===
  0x2adc	int3   	
  0x2add	int3   	
  0x2ade	int3   	
  0x2adf	int3   	
  0x2ae0	int3   	
  === BLOCK LINK ===
    0x2ae1
=== CODE BLOCK END ===

=== CODE BLOCK ADDRESS 0x2ae1 ===
  0x2ae1	int3   	
  0x2ae2	int3   	
  0x2ae3	int3   	
  0x2ae4	dec    	eax
  0x2ae5	sub    	esp, 0x28
  === BLOCK LINK ===
    0x2ae8
=== CODE BLOCK END ===

=== CODE BLOCK ADDRESS 0x2ae8 ===
  0x2ae8	dec    	ebp
  0x2ae9	mov    	eax, dword ptr [ecx + 0x38]
  0x2aec	dec    	eax
  0x2aed	mov    	ecx, edx
  0x2aef	dec    	ecx
  === BLOCK LINK ===
    0x2af0
=== CODE BLOCK END ===

=== CODE BLOCK ADDRESS 0x2af0 ===
  0x2af0	mov    	edx, ecx
  0x2af2	call   	0x2b08
  === BLOCK LINK ===
    0x2af7
=== CODE BLOCK END ===

=== CODE BLOCK ADDRESS 0x2af7 ===
  0x2af7	mov    	eax, 1
  0x2afc	dec    	eax
  0x2afd	add    	esp, 0x28
  0x2b00	ret    	
  0x2b01	int3   	
  === BLOCK LINK ===
    0x2b02
=== CODE BLOCK END ===

=== CODE BLOCK ADDRESS 0x1425 ===
  0x1425	test   	edi, edi
  0x1427	js     	0x146b
  === BLOCK LINK ===
    0x1429
=== CODE BLOCK END ===

=== CODE BLOCK ADDRESS 0x2b02 ===
  0x2b02	int3   	
  0x2b03	int3   	
  0x2b04	int3   	
  0x2b05	int3   	
  0x2b06	int3   	
  === BLOCK LINK ===
    0x2b07
=== CODE BLOCK END ===

=== CODE BLOCK ADDRESS 0x2b07 ===
  0x2b07	int3   	
  0x2b08	inc    	eax
  0x2b09	push   	ebx
  0x2b0a	inc    	ebp
  0x2b0b	mov    	ebx, dword ptr [eax]
  === BLOCK LINK ===
    0x2b0d
=== CODE BLOCK END ===

=== CODE BLOCK ADDRESS 0x2b0d ===
  0x2b0d	dec    	eax
  0x2b0e	mov    	ebx, edx
  0x2b10	inc    	ecx
  0x2b11	and    	ebx, 0xfffffff8
  0x2b14	dec    	esp
  === BLOCK LINK ===
    0x2b15
=== CODE BLOCK END ===

=== CODE BLOCK ADDRESS 0x2b15 ===
  0x2b15	mov    	ecx, ecx
  0x2b17	inc    	ecx
  0x2b18	test   	byte ptr [eax], 4
  0x2b1b	dec    	esp
  0x2b1c	mov    	edx, ecx
  === BLOCK LINK ===
    0x2b1e
=== CODE BLOCK END ===

=== CODE BLOCK ADDRESS 0x2b1e ===
  0x2b1e	je     	0x2b33
  === BLOCK LINK ===
    0x2b20
=== CODE BLOCK END ===

=== CODE BLOCK ADDRESS 0x2b20 ===
  0x2b20	inc    	ecx
  0x2b21	mov    	eax, dword ptr [eax + 8]
  0x2b24	dec    	ebp
  0x2b25	arpl   	word ptr [eax + 4], dx
  0x2b28	neg    	eax
  === BLOCK LINK ===
    0x2b2a
=== CODE BLOCK END ===

=== CODE BLOCK ADDRESS 0x2b2a ===
  0x2b2a	dec    	esp
  0x2b2b	add    	edx, ecx
  0x2b2d	dec    	eax
  0x2b2e	arpl   	ax, cx
  0x2b30	dec    	esp
  === BLOCK LINK ===
    0x2b31
=== CODE BLOCK END ===

=== CODE BLOCK ADDRESS 0x2b31 ===
  0x2b31	and    	edx, ecx
  0x2b33	dec    	ecx
  0x2b34	arpl   	bx, ax
  0x2b36	dec    	edx
  0x2b37	mov    	edx, dword ptr [eax + edx]
  === BLOCK LINK ===
    0x2b3a
=== CODE BLOCK END ===

=== CODE BLOCK ADDRESS 0x2b3a ===
  0x2b3a	dec    	eax
  0x2b3b	mov    	eax, dword ptr [ebx + 0x10]
  0x2b3e	mov    	ecx, dword ptr [eax + 8]
  0x2b41	dec    	eax
  0x2b42	mov    	eax, dword ptr [ebx + 8]
  === BLOCK LINK ===
    0x2b45
=== CODE BLOCK END ===

=== CODE BLOCK ADDRESS 0x2b45 ===
  0x2b45	test   	byte ptr [ecx + eax + 3], 0xf
  0x2b4a	je     	0x2b57
  === BLOCK LINK ===
    0x2b4c
=== CODE BLOCK END ===

=== CODE BLOCK ADDRESS 0x2b4c ===
  0x2b4c	movzx  	eax, byte ptr [ecx + eax + 3]
  0x2b51	and    	eax, 0xfffffff0
  0x2b54	dec    	esp
  0x2b55	add    	ecx, eax
  0x2b57	dec    	esp
  === BLOCK LINK ===
    0x2b58
=== CODE BLOCK END ===

=== CODE BLOCK ADDRESS 0x2b58 ===
  0x2b58	xor    	ecx, edx
  0x2b5a	dec    	ecx
  0x2b5b	mov    	ecx, ecx
  0x2b5d	pop    	ebx
  0x2b5e	jmp    	0x25c0
  === BLOCK LINK ===
    0x2b63
=== CODE BLOCK END ===

=== CODE BLOCK ADDRESS 0x2b63 ===
  0x2b63	int3   	
  0x2b64	int3   	
  0x2b65	int3   	
  0x2b66	int3   	
  0x2b67	int3   	
  === BLOCK LINK ===
    0x2b68
=== CODE BLOCK END ===

=== CODE BLOCK ADDRESS 0x2b68 ===
  0x2b68	int3   	
  0x2b69	int3   	
  0x2b6a	int3   	
  0x2b6b	int3   	
  0x2b6c	dec    	eax
  === BLOCK LINK ===
    0x2b6d
=== CODE BLOCK END ===

=== CODE BLOCK ADDRESS 0x2b6d ===
  0x2b6d	mov    	eax, esp
  0x2b6f	dec    	eax
  0x2b70	mov    	dword ptr [eax + 8], ebx
  0x2b73	dec    	eax
  0x2b74	mov    	dword ptr [eax + 0x10], ebp
  === BLOCK LINK ===
    0x2b77
=== CODE BLOCK END ===

=== CODE BLOCK ADDRESS 0x2b77 ===
  0x2b77	dec    	eax
  0x2b78	mov    	dword ptr [eax + 0x18], esi
  0x2b7b	dec    	eax
  0x2b7c	mov    	dword ptr [eax + 0x20], edi
  0x2b7f	inc    	ecx
  === BLOCK LINK ===
    0x2b80
=== CODE BLOCK END ===

=== CODE BLOCK ADDRESS 0x2b80 ===
  0x2b80	push   	esi
  0x2b81	dec    	eax
  0x2b82	sub    	esp, 0x20
  0x2b85	dec    	ecx
  0x2b86	mov    	ebx, dword ptr [ecx + 0x38]
  === BLOCK LINK ===
    0x2b89
=== CODE BLOCK END ===

=== CODE BLOCK ADDRESS 0x2b89 ===
  0x2b89	dec    	eax
  0x2b8a	mov    	esi, edx
  0x2b8c	dec    	ebp
  0x2b8d	mov    	esi, eax
  0x2b8f	dec    	eax
  === BLOCK LINK ===
    0x2b90
=== CODE BLOCK END ===

=== CODE BLOCK ADDRESS 0x2b90 ===
  0x2b90	mov    	ebp, ecx
  0x2b92	dec    	ecx
  0x2b93	mov    	edx, ecx
  0x2b95	dec    	eax
  0x2b96	mov    	ecx, esi
  === BLOCK LINK ===
    0x2b98
=== CODE BLOCK END ===

=== CODE BLOCK ADDRESS 0x2b98 ===
  0x2b98	dec    	ecx
  0x2b99	mov    	edi, ecx
  0x2b9b	dec    	esp
  0x2b9c	lea    	eax, [ebx + 4]
  0x2b9f	call   	0x2b08
  === BLOCK LINK ===
    0x2ba4
=== CODE BLOCK END ===

=== CODE BLOCK ADDRESS 0x2ba4 ===
  0x2ba4	mov    	eax, dword ptr [ebp + 4]
  0x2ba7	and    	al, 0x66
  0x2ba9	neg    	al
  0x2bab	mov    	eax, 1
  0x2bb0	inc    	ebp
  === BLOCK LINK ===
    0x2bb1
=== CODE BLOCK END ===

=== CODE BLOCK ADDRESS 0x2bb1 ===
  0x2bb1	sbb    	eax, eax
  0x2bb3	inc    	ecx
  0x2bb4	neg    	eax
  0x2bb6	inc    	esp
  0x2bb7	add    	eax, eax
  === BLOCK LINK ===
    0x2bb9
=== CODE BLOCK END ===

=== CODE BLOCK ADDRESS 0x2bb9 ===
  0x2bb9	inc    	esp
  0x2bba	test   	dword ptr [ebx + 4], eax
  0x2bbd	je     	0x2bd0
  === BLOCK LINK ===
    0x2bbf
=== CODE BLOCK END ===

=== CODE BLOCK ADDRESS 0x2bbf ===
  0x2bbf	dec    	esp
  0x2bc0	mov    	ecx, edi
  0x2bc2	dec    	ebp
  0x2bc3	mov    	eax, esi
  0x2bc5	dec    	eax
  === BLOCK LINK ===
    0x2bc6
=== CODE BLOCK END ===

=== CODE BLOCK ADDRESS 0x2bc6 ===
  0x2bc6	mov    	edx, esi
  0x2bc8	dec    	eax
  0x2bc9	mov    	ecx, ebp
  0x2bcb	call   	0x2ad6
  === BLOCK LINK ===
    0x2bd0
=== CODE BLOCK END ===

=== CODE BLOCK ADDRESS 0x2bd0 ===
  0x2bd0	dec    	eax
  0x2bd1	mov    	ebx, dword ptr [esp + 0x30]
  0x2bd5	dec    	eax
  0x2bd6	mov    	ebp, dword ptr [esp + 0x38]
  0x2bda	dec    	eax
  === BLOCK LINK ===
    0x2bdb
=== CODE BLOCK END ===

=== CODE BLOCK ADDRESS 0x2bdb ===
  0x2bdb	mov    	esi, dword ptr [esp + 0x40]
  0x2bdf	dec    	eax
  0x2be0	mov    	edi, dword ptr [esp + 0x48]
  0x2be4	dec    	eax
  0x2be5	add    	esp, 0x20
  === BLOCK LINK ===
    0x2be8
=== CODE BLOCK END ===

=== CODE BLOCK ADDRESS 0x2be8 ===
  0x2be8	inc    	ecx
  0x2be9	pop    	esi
  0x2bea	ret    	
  0x2beb	int3   	
  0x2bec	int3   	
  === BLOCK LINK ===
    0x2bed
=== CODE BLOCK END ===

=== CODE BLOCK ADDRESS 0x1415 ===
  0x1415	dec    	eax
  0x1416	test   	esi, esi
  0x1418	je     	0x1420
  === BLOCK LINK ===
    0x141a
=== CODE BLOCK END ===

=== CODE BLOCK ADDRESS 0x2bed ===
  0x2bed	int3   	
  0x2bee	int3   	
  0x2bef	int3   	
  0x2bf0	int3   	
  0x2bf1	int3   	
  === BLOCK LINK ===
    0x2bf2
=== CODE BLOCK END ===

=== CODE BLOCK ADDRESS 0x2bf2 ===
  0x2bf2	int3   	
  0x2bf3	int3   	
  0x2bf4	int3   	
  0x2bf5	int3   	
  0x2bf6	jmp    	dword ptr [0x1764]
  === BLOCK LINK ===
    0x2bfc
=== CODE BLOCK END ===

=== CODE BLOCK ADDRESS 0x2bfc ===
  0x2bfc	int3   	
  0x2bfd	int3   	
  0x2bfe	int3   	
  0x2bff	int3   	
  0x2c00	int3   	
  === BLOCK LINK ===
    0x2c01
=== CODE BLOCK END ===

=== CODE BLOCK ADDRESS 0x2c01 ===
  0x2c01	int3   	
  0x2c02	int3   	
  0x2c03	int3   	
  0x2c04	int3   	
  0x2c05	int3   	
  === BLOCK LINK ===
    0x2c06
=== CODE BLOCK END ===

=== CODE BLOCK ADDRESS 0x2c06 ===
  0x2c06	nop    	word ptr [eax + eax]
  0x2c10	jmp    	eax
  === BLOCK LINK ===
    0x2c12
=== CODE BLOCK END ===

=== CODE BLOCK ADDRESS 0x2c12 ===
  0x2c12	int3   	
  0x2c13	int3   	
  0x2c14	int3   	
  0x2c15	int3   	
  0x2c16	int3   	
  === BLOCK LINK ===
    0x2c17
=== CODE BLOCK END ===

=== CODE BLOCK ADDRESS 0x2c17 ===
  0x2c17	int3   	
  0x2c18	int3   	
  0x2c19	int3   	
  0x2c1a	int3   	
  0x2c1b	int3   	
  === BLOCK LINK ===
    0x2c1c
=== CODE BLOCK END ===

=== CODE BLOCK ADDRESS 0x2c1c ===
  0x2c1c	int3   	
  0x2c1d	int3   	
  0x2c1e	int3   	
  0x2c1f	int3   	
  0x2c20	int3   	
  === BLOCK LINK ===
    0x2c21
=== CODE BLOCK END ===

=== CODE BLOCK ADDRESS 0x2c21 ===
  0x2c21	int3   	
  0x2c22	int3   	
  0x2c23	int3   	
  0x2c24	int3   	
  0x2c25	int3   	
  === BLOCK LINK ===
    0x2c26
=== CODE BLOCK END ===

=== CODE BLOCK ADDRESS 0x2c26 ===
  0x2c26	nop    	word ptr [eax + eax]
  0x2c30	dec    	eax
  0x2c31	sub    	esp, 0x10
  0x2c34	dec    	esp
  0x2c35	mov    	dword ptr [esp], edx
  === BLOCK LINK ===
    0x2c38
=== CODE BLOCK END ===

=== CODE BLOCK ADDRESS 0x2c38 ===
  0x2c38	dec    	esp
  0x2c39	mov    	dword ptr [esp + 8], ebx
  0x2c3d	dec    	ebp
  0x2c3e	xor    	ebx, ebx
  0x2c40	dec    	esp
  === BLOCK LINK ===
    0x2c41
=== CODE BLOCK END ===

=== CODE BLOCK ADDRESS 0x2c41 ===
  0x2c41	lea    	edx, [esp + 0x18]
  0x2c45	dec    	esp
  0x2c46	sub    	edx, eax
  0x2c48	dec    	ebp
  0x2c49	cmovb  	edx, ebx
  === BLOCK LINK ===
    0x2c4c
=== CODE BLOCK END ===

=== CODE BLOCK ADDRESS 0x2c4c ===
  0x2c4c	dec    	esp
  0x2c4e	mov    	ebx, dword ptr [0x10]
  0x2c55	dec    	ebp
  0x2c56	cmp    	edx, ebx
  0x2c58	jae    	0x2c6f
  === BLOCK LINK ===
    0x2c5a
=== CODE BLOCK END ===

=== CODE BLOCK ADDRESS 0x2c5a ===
  0x2c5a	inc    	cx
  0x2c5c	and    	edx, 0x8d4df000
  0x2c62	wait   	
  0x2c63	add    	al, dh
  0x2c65	.byte  	0xff
  === BLOCK LINK ===
    0x2c66
=== CODE BLOCK END ===

=== CODE BLOCK ADDRESS 0x2c66 ===
  0x2c66	inc    	dword ptr [ebp - 0x7c]
  0x2c69	sbb    	ecx, dword ptr [ebp + 0x3b]
  0x2c6c	sal    	dword ptr [edx - 0xf], cl
  0x2c6f	dec    	esp
  0x2c70	mov    	edx, dword ptr [esp]
  === BLOCK LINK ===
    0x2c73
=== CODE BLOCK END ===

=== CODE BLOCK ADDRESS 0x2c73 ===
  0x2c73	dec    	esp
  0x2c74	mov    	ebx, dword ptr [esp + 8]
  0x2c78	dec    	eax
  0x2c79	add    	esp, 0x10
  0x2c7c	ret    	
  === BLOCK LINK ===
    0x2c7d
=== CODE BLOCK END ===

=== CODE BLOCK ADDRESS 0x2c7d ===
  0x2c7d	int3   	
  0x2c7e	int3   	
  0x2c7f	int3   	
  0x2c80	int3   	
  0x2c81	int3   	
  === BLOCK LINK ===
    0x2c82
=== CODE BLOCK END ===

=== CODE BLOCK ADDRESS 0x2c82 ===
  0x2c82	int3   	
  0x2c83	dec    	eax
  0x2c84	lea    	ecx, [edx + 0x48]
  0x2c8a	jmp    	0x1dec
  === BLOCK LINK ===
    0x2c8f
=== CODE BLOCK END ===

=== CODE BLOCK ADDRESS 0x2c8f ===
  0x2c8f	int3   	
  0x2c90	int3   	
  0x2c91	int3   	
  0x2c92	int3   	
  0x2c93	int3   	
  === BLOCK LINK ===
    0x2c94
=== CODE BLOCK END ===

=== CODE BLOCK ADDRESS 0x2c94 ===
  0x2c94	int3   	
  0x2c95	inc    	eax
  0x2c96	push   	ebp
  0x2c97	dec    	eax
  0x2c98	sub    	esp, 0x20
  === BLOCK LINK ===
    0x2c9b
=== CODE BLOCK END ===

=== CODE BLOCK ADDRESS 0x2c9b ===
  0x2c9b	dec    	eax
  0x2c9c	mov    	ebp, edx
  0x2c9e	dec    	eax
  0x2c9f	mov    	eax, dword ptr [ecx]
  0x2ca1	dec    	eax
  === BLOCK LINK ===
    0x2ca2
=== CODE BLOCK END ===

=== CODE BLOCK ADDRESS 0x2ca2 ===
  0x2ca2	mov    	edx, ecx
  0x2ca4	mov    	ecx, dword ptr [eax]
  0x2ca6	call   	0x280e
  === BLOCK LINK ===
    0x2cab
=== CODE BLOCK END ===

=== CODE BLOCK ADDRESS 0x2cab ===
  0x2cab	nop    	
  0x2cac	dec    	eax
  0x2cad	add    	esp, 0x20
  0x2cb0	pop    	ebp
  0x2cb1	ret    	
  === BLOCK LINK ===
    0x2cb2
=== CODE BLOCK END ===

=== CODE BLOCK ADDRESS 0x2cb2 ===
  0x2cb2	int3   	
  0x2cb3	int3   	
  0x2cb4	int3   	
  0x2cb5	int3   	
  0x2cb6	int3   	
  === BLOCK LINK ===
    0x2cb7
=== CODE BLOCK END ===

=== CODE BLOCK ADDRESS 0x2cb7 ===
  0x2cb7	int3   	
  0x2cb8	int3   	
  0x2cb9	int3   	
  0x2cba	int3   	
  0x2cbb	int3   	
  === BLOCK LINK ===
    0x2cbc
=== CODE BLOCK END ===

=== CODE BLOCK ADDRESS 0x2cbc ===
  0x2cbc	int3   	
  0x2cbd	int3   	
  0x2cbe	int3   	
  0x2cbf	int3   	
  0x2cc0	inc    	eax
  === BLOCK LINK ===
    0x2cc1
=== CODE BLOCK END ===

=== CODE BLOCK ADDRESS 0x2cc1 ===
  0x2cc1	push   	ebp
  0x2cc2	dec    	eax
  0x2cc3	sub    	esp, 0x20
  0x2cc6	dec    	eax
  0x2cc7	mov    	ebp, edx
  === BLOCK LINK ===
    0x2cc9
=== CODE BLOCK END ===

=== CODE BLOCK ADDRESS 0x2cc9 ===
  0x2cc9	dec    	eax
  0x2cca	mov    	eax, dword ptr [ecx]
  0x2ccc	xor    	ecx, ecx
  0x2cce	cmp    	dword ptr [eax], 0xc0000005
  0x2cd4	sete   	cl
  === BLOCK LINK ===
    0x2cd7
=== CODE BLOCK END ===

=== CODE BLOCK ADDRESS 0x2cd7 ===
  0x2cd7	mov    	eax, ecx
  0x2cd9	dec    	eax
  0x2cda	add    	esp, 0x20
  0x2cdd	pop    	ebp
  0x2cde	ret    	
  === BLOCK LINK ===
    0x2cdf
=== CODE BLOCK END ===

=== CODE BLOCK ADDRESS 0x2cdf ===
  0x2cdf	int3   	
  0x2ce0	add    	byte ptr [eax], al
  0x2ce2	add    	byte ptr [eax], al
  0x2ce4	add    	byte ptr [eax], al
  0x2ce6	add    	byte ptr [eax], al
  === BLOCK LINK ===
    0x2ce8
=== CODE BLOCK END ===

=== CODE BLOCK ADDRESS 0x2ce8 ===
  0x2ce8	add    	byte ptr [eax], al
  0x2cea	add    	byte ptr [eax], al
  0x2cec	add    	byte ptr [eax], al
  0x2cee	add    	byte ptr [eax], al
  0x2cf0	add    	byte ptr [eax], al
  === BLOCK LINK ===
    0x2cf2
=== CODE BLOCK END ===

=== CODE BLOCK ADDRESS 0x2cf2 ===
  0x2cf2	add    	byte ptr [eax], al
  0x2cf4	add    	byte ptr [eax], al
  0x2cf6	add    	byte ptr [eax], al
  0x2cf8	add    	byte ptr [eax], al
  0x2cfa	add    	byte ptr [eax], al
  === BLOCK LINK ===
    0x2cfc
=== CODE BLOCK END ===

=== CODE BLOCK ADDRESS 0x2cfc ===
  0x2cfc	add    	byte ptr [eax], al
  0x2cfe	add    	byte ptr [eax], al
  0x2d00	add    	byte ptr [eax], al
  0x2d02	add    	byte ptr [eax], al
  0x2d04	add    	byte ptr [eax], al
  === BLOCK LINK ===
    0x2d06
=== CODE BLOCK END ===

=== CODE BLOCK ADDRESS 0x2d06 ===
  0x2d06	add    	byte ptr [eax], al
  0x2d08	add    	byte ptr [eax], al
  0x2d0a	add    	byte ptr [eax], al
  0x2d0c	add    	byte ptr [eax], al
  0x2d0e	add    	byte ptr [eax], al
  === BLOCK LINK ===
    0x2d10
=== CODE BLOCK END ===

=== CODE BLOCK ADDRESS 0x2d10 ===
  0x2d10	add    	byte ptr [eax], al
  0x2d12	add    	byte ptr [eax], al
  0x2d14	add    	byte ptr [eax], al
  0x2d16	add    	byte ptr [eax], al
  0x2d18	add    	byte ptr [eax], al
  === BLOCK LINK ===
    0x2d1a
=== CODE BLOCK END ===

=== CODE BLOCK ADDRESS 0x2d1a ===
  0x2d1a	add    	byte ptr [eax], al
  0x2d1c	add    	byte ptr [eax], al
  0x2d1e	add    	byte ptr [eax], al
  0x2d20	add    	byte ptr [eax], al
  0x2d22	add    	byte ptr [eax], al
  === BLOCK LINK ===
    0x2d24
=== CODE BLOCK END ===

=== CODE BLOCK ADDRESS 0x2d24 ===
  0x2d24	add    	byte ptr [eax], al
  0x2d26	add    	byte ptr [eax], al
  0x2d28	add    	byte ptr [eax], al
  0x2d2a	add    	byte ptr [eax], al
  0x2d2c	add    	byte ptr [eax], al
  === BLOCK LINK ===
    0x2d2e
=== CODE BLOCK END ===

=== CODE BLOCK ADDRESS 0x2d2e ===
  0x2d2e	add    	byte ptr [eax], al
  0x2d30	add    	byte ptr [eax], al
  0x2d32	add    	byte ptr [eax], al
  0x2d34	add    	byte ptr [eax], al
  0x2d36	add    	byte ptr [eax], al
  === BLOCK LINK ===
    0x2d38
=== CODE BLOCK END ===

=== CODE BLOCK ADDRESS 0x2d38 ===
  0x2d38	add    	byte ptr [eax], al
  0x2d3a	add    	byte ptr [eax], al
  0x2d3c	add    	byte ptr [eax], al
  0x2d3e	add    	byte ptr [eax], al
  0x2d40	add    	byte ptr [eax], al
  === BLOCK LINK ===
    0x2d42
=== CODE BLOCK END ===

=== CODE BLOCK ADDRESS 0x2d42 ===
  0x2d42	add    	byte ptr [eax], al
  0x2d44	add    	byte ptr [eax], al
  0x2d46	add    	byte ptr [eax], al
  0x2d48	add    	byte ptr [eax], al
  0x2d4a	add    	byte ptr [eax], al
  === BLOCK LINK ===
    0x2d4c
=== CODE BLOCK END ===

=== CODE BLOCK ADDRESS 0x2d4c ===
  0x2d4c	add    	byte ptr [eax], al
  0x2d4e	add    	byte ptr [eax], al
  0x2d50	add    	byte ptr [eax], al
  0x2d52	add    	byte ptr [eax], al
  0x2d54	add    	byte ptr [eax], al
  === BLOCK LINK ===
    0x2d56
=== CODE BLOCK END ===

=== CODE BLOCK ADDRESS 0x2d56 ===
  0x2d56	add    	byte ptr [eax], al
  0x2d58	add    	byte ptr [eax], al
  0x2d5a	add    	byte ptr [eax], al
  0x2d5c	add    	byte ptr [eax], al
  0x2d5e	add    	byte ptr [eax], al
  === BLOCK LINK ===
    0x2d60
=== CODE BLOCK END ===

=== CODE BLOCK ADDRESS 0x2d60 ===
  0x2d60	add    	byte ptr [eax], al
  0x2d62	add    	byte ptr [eax], al
  0x2d64	add    	byte ptr [eax], al
  0x2d66	add    	byte ptr [eax], al
  0x2d68	add    	byte ptr [eax], al
  === BLOCK LINK ===
    0x2d6a
=== CODE BLOCK END ===

=== CODE BLOCK ADDRESS 0x2d6a ===
  0x2d6a	add    	byte ptr [eax], al
  0x2d6c	add    	byte ptr [eax], al
  0x2d6e	add    	byte ptr [eax], al
  0x2d70	add    	byte ptr [eax], al
  0x2d72	add    	byte ptr [eax], al
  === BLOCK LINK ===
    0x2d74
=== CODE BLOCK END ===

=== CODE BLOCK ADDRESS 0x2d74 ===
  0x2d74	add    	byte ptr [eax], al
  0x2d76	add    	byte ptr [eax], al
  0x2d78	add    	byte ptr [eax], al
  0x2d7a	add    	byte ptr [eax], al
  0x2d7c	add    	byte ptr [eax], al
  === BLOCK LINK ===
    0x2d7e
=== CODE BLOCK END ===

=== CODE BLOCK ADDRESS 0x2d7e ===
  0x2d7e	add    	byte ptr [eax], al
  0x2d80	add    	byte ptr [eax], al
  0x2d82	add    	byte ptr [eax], al
  0x2d84	add    	byte ptr [eax], al
  0x2d86	add    	byte ptr [eax], al
  === BLOCK LINK ===
    0x2d88
=== CODE BLOCK END ===

=== CODE BLOCK ADDRESS 0x2d88 ===
  0x2d88	add    	byte ptr [eax], al
  0x2d8a	add    	byte ptr [eax], al
  0x2d8c	add    	byte ptr [eax], al
  0x2d8e	add    	byte ptr [eax], al
  0x2d90	add    	byte ptr [eax], al
  === BLOCK LINK ===
    0x2d92
=== CODE BLOCK END ===

=== CODE BLOCK ADDRESS 0x2d92 ===
  0x2d92	add    	byte ptr [eax], al
  0x2d94	add    	byte ptr [eax], al
  0x2d96	add    	byte ptr [eax], al
  0x2d98	add    	byte ptr [eax], al
  0x2d9a	add    	byte ptr [eax], al
  === BLOCK LINK ===
    0x2d9c
=== CODE BLOCK END ===

=== CODE BLOCK ADDRESS 0x2d9c ===
  0x2d9c	add    	byte ptr [eax], al
  0x2d9e	add    	byte ptr [eax], al
  0x2da0	add    	byte ptr [eax], al
  0x2da2	add    	byte ptr [eax], al
  0x2da4	add    	byte ptr [eax], al
  === BLOCK LINK ===
    0x2da6
=== CODE BLOCK END ===

=== CODE BLOCK ADDRESS 0x2da6 ===
  0x2da6	add    	byte ptr [eax], al
  0x2da8	add    	byte ptr [eax], al
  0x2daa	add    	byte ptr [eax], al
  0x2dac	add    	byte ptr [eax], al
  0x2dae	add    	byte ptr [eax], al
  === BLOCK LINK ===
    0x2db0
=== CODE BLOCK END ===

=== CODE BLOCK ADDRESS 0x2db0 ===
  0x2db0	add    	byte ptr [eax], al
  0x2db2	add    	byte ptr [eax], al
  0x2db4	add    	byte ptr [eax], al
  0x2db6	add    	byte ptr [eax], al
  0x2db8	add    	byte ptr [eax], al
  === BLOCK LINK ===
    0x2dba
=== CODE BLOCK END ===

=== CODE BLOCK ADDRESS 0x2dba ===
  0x2dba	add    	byte ptr [eax], al
  0x2dbc	add    	byte ptr [eax], al
  0x2dbe	add    	byte ptr [eax], al
  0x2dc0	add    	byte ptr [eax], al
  0x2dc2	add    	byte ptr [eax], al
  === BLOCK LINK ===
    0x2dc4
=== CODE BLOCK END ===

=== CODE BLOCK ADDRESS 0x2dc4 ===
  0x2dc4	add    	byte ptr [eax], al
  0x2dc6	add    	byte ptr [eax], al
  0x2dc8	add    	byte ptr [eax], al
  0x2dca	add    	byte ptr [eax], al
  0x2dcc	add    	byte ptr [eax], al
  === BLOCK LINK ===
    0x2dce
=== CODE BLOCK END ===

=== CODE BLOCK ADDRESS 0x2dce ===
  0x2dce	add    	byte ptr [eax], al
  0x2dd0	add    	byte ptr [eax], al
  0x2dd2	add    	byte ptr [eax], al
  0x2dd4	add    	byte ptr [eax], al
  0x2dd6	add    	byte ptr [eax], al
  === BLOCK LINK ===
    0x2dd8
=== CODE BLOCK END ===

=== CODE BLOCK ADDRESS 0x2dd8 ===
  0x2dd8	add    	byte ptr [eax], al
  0x2dda	add    	byte ptr [eax], al
  0x2ddc	add    	byte ptr [eax], al
  0x2dde	add    	byte ptr [eax], al
  0x2de0	add    	byte ptr [eax], al
  === BLOCK LINK ===
    0x2de2
=== CODE BLOCK END ===

=== CODE BLOCK ADDRESS 0x2de2 ===
  0x2de2	add    	byte ptr [eax], al
  0x2de4	add    	byte ptr [eax], al
  0x2de6	add    	byte ptr [eax], al
  0x2de8	add    	byte ptr [eax], al
  0x2dea	add    	byte ptr [eax], al
  === BLOCK LINK ===
    0x2dec
=== CODE BLOCK END ===

=== CODE BLOCK ADDRESS 0x2dec ===
  0x2dec	add    	byte ptr [eax], al
  0x2dee	add    	byte ptr [eax], al
  0x2df0	add    	byte ptr [eax], al
  0x2df2	add    	byte ptr [eax], al
  0x2df4	add    	byte ptr [eax], al
  === BLOCK LINK ===
    0x2df6
=== CODE BLOCK END ===

=== CODE BLOCK ADDRESS 0x2df6 ===
  0x2df6	add    	byte ptr [eax], al
  0x2df8	add    	byte ptr [eax], al
  0x2dfa	add    	byte ptr [eax], al
  0x2dfc	add    	byte ptr [eax], al
=== CODE BLOCK END ===

=== DATA BLOCK ADDRESS 0x4000 ===
  0x4000	70 60 00 40 01 00 00 00 10 61 00 40 01 00 00 00 	p`0@00000a0@0000
  0x4010	18 01 00 00 00 00 00 00 00 00 00 00 00 00 00 00 	0000000000000000
  0x4020	00 00 00 00 00 00 00 00 00 00 00 00 00 00 00 00 	0000000000000000
  0x4030	00 00 00 00 00 00 00 00 00 00 00 00 00 00 00 00 	0000000000000000
  0x4040	00 00 00 00 00 00 00 00 00 00 00 00 00 00 00 00 	0000000000000000
  0x4050	00 00 00 00 00 00 00 00 00 00 00 00 00 00 00 00 	0000000000000000
  0x4060	00 00 00 00 00 00 00 00 18 60 00 40 01 00 00 00 	000000000`0@0000
  0x4070	00 00 00 00 00 00 00 00 00 00 00 00 00 00 00 00 	0000000000000000
  0x4080	70 43 00 40 01 00 00 00 78 43 00 40 01 00 00 00 	pC0@0000xC0@0000
  0x4090	b8 43 00 40 01 00 00 00 09 00 00 00 00 00 00 00 	0C0@000000000000
  0x40a0	00 75 01 00 00 00 00 00 00 00 00 00 00 00 00 00 	0u00000000000000
  0x40b0	00 00 00 00 00 00 00 00 00 00 00 00 00 00 00 00 	0000000000000000
  0x40c0	00 00 00 00 00 00 00 00 00 00 00 00 00 00 00 00 	0000000000000000
  0x40d0	00 00 00 00 00 00 00 00 00 00 00 00 00 00 00 00 	0000000000000000
  0x40e0	00 00 00 00 00 00 00 00 00 00 00 00 00 00 00 00 	0000000000000000
  0x40f0	00 00 00 00 00 00 00 00 00 00 00 00 00 00 00 00 	0000000000000000
  0x4100	00 00 00 00 00 00 00 00 00 00 00 00 00 00 00 00 	0000000000000000
  0x4110	00 00 00 00 00 00 00 00 00 00 00 00 00 00 00 00 	0000000000000000
  0x4120	00 00 00 00 00 00 00 00 30 52 00 00 00 00 00 00 	000000000R000000
  0x4130	e6 52 00 00 00 00 00 00 b8 51 00 00 00 00 00 00 	0R0000000Q000000
  0x4140	12 53 00 00 00 00 00 00 c8 51 00 00 00 00 00 00 	0S0000000Q000000
  0x4150	d2 52 00 00 00 00 00 00 00 00 00 00 00 00 00 00 	0R00000000000000
  0x4160	9c 53 00 00 00 00 00 00 80 53 00 00 00 00 00 00 	0S0000000S000000
  0x4170	76 52 00 00 00 00 00 00 00 00 00 00 00 00 00 00 	vR00000000000000
  0x4180	98 52 00 00 00 00 00 00 00 00 00 00 00 00 00 00 	0R00000000000000
  0x4190	54 52 00 00 00 00 00 00 62 52 00 00 00 00 00 00 	TR000000bR000000
  0x41a0	00 00 00 00 00 00 00 00 86 52 00 00 00 00 00 00 	000000000R000000
  0x41b0	00 00 00 00 00 00 00 00 fc 53 00 00 00 00 00 00 	000000000S000000
  0x41c0	12 54 00 00 00 00 00 00 ce 53 00 00 00 00 00 00 	0T0000000S000000
  0x41d0	ba 53 00 00 00 00 00 00 2c 53 00 00 00 00 00 00 	0S000000,S000000
  0x41e0	00 00 00 00 00 00 00 00 e2 53 00 00 00 00 00 00 	000000000S000000
  0x41f0	00 00 00 00 00 00 00 00 c4 52 00 00 00 00 00 00 	000000000R000000
  0x4200	a4 52 00 00 00 00 00 00 b4 52 00 00 00 00 00 00 	0R0000000R000000
  0x4210	00 00 00 00 00 00 00 00 6c 53 00 00 00 00 00 00 	00000000lS000000
  0x4220	3e 53 00 00 00 00 00 00 52 53 00 00 00 00 00 00 	>S000000RS000000
  0x4230	00 00 00 00 00 00 00 00 24 53 00 00 00 00 00 00 	00000000$S000000
  0x4240	00 00 00 00 00 00 00 00 28 54 00 00 00 00 00 00 	00000000(T000000
  0x4250	f8 52 00 00 00 00 00 00 00 00 00 00 00 00 00 00 	0R00000000000000
  0x4260	fc 51 00 00 00 00 00 00 ea 51 00 00 00 00 00 00 	0Q0000000Q000000
  0x4270	da 51 00 00 00 00 00 00 42 52 00 00 00 00 00 00 	0Q000000BR000000
  0x4280	16 52 00 00 00 00 00 00 00 00 00 00 00 00 00 00 	0R00000000000000
  0x4290	46 51 00 00 00 00 00 00 a0 51 00 00 00 00 00 00 	FQ0000000Q000000
  0x42a0	36 51 00 00 00 00 00 00 8a 51 00 00 00 00 00 00 	6Q0000000Q000000
  0x42b0	5e 51 00 00 00 00 00 00 74 51 00 00 00 00 00 00 	^Q000000tQ000000
  0x42c0	00 00 00 00 00 00 00 00 22 51 00 00 00 00 00 00 	00000000"Q000000
  0x42d0	0a 51 00 00 00 00 00 00 00 51 00 00 00 00 00 00 	0Q0000000Q000000
  0x42e0	26 56 00 00 00 00 00 00 f6 50 00 00 00 00 00 00 	&V0000000P000000
  0x42f0	de 50 00 00 00 00 00 00 d2 50 00 00 00 00 00 00 	0P0000000P000000
  0x4300	be 50 00 00 00 00 00 00 b4 50 00 00 00 00 00 00 	0P0000000P000000
  0x4310	ac 50 00 00 00 00 00 00 a4 50 00 00 00 00 00 00 	0P0000000P000000
  0x4320	92 50 00 00 00 00 00 00 80 50 00 00 00 00 00 00 	0P0000000P000000
  0x4330	72 50 00 00 00 00 00 00 64 50 00 00 00 00 00 00 	rP000000dP000000
  0x4340	5c 50 00 00 00 00 00 00 4e 50 00 00 00 00 00 00 	0P000000NP000000
  0x4350	44 50 00 00 00 00 00 00 38 50 00 00 00 00 00 00 	DP0000008P000000
  0x4360	3c 56 00 00 00 00 00 00 00 00 00 00 00 00 00 00 	<V00000000000000
  0x4370	c0 2a 00 40 01 00 00 00 10 2c 00 40 01 00 00 00 	0*0@00000,0@0000
  0x4380	00 00 00 00 00 00 00 00 d0 22 00 40 01 00 00 00 	000000000"0@0000
  0x4390	00 00 00 00 00 00 00 00 00 00 00 00 00 00 00 00 	0000000000000000
  0x43a0	f0 21 00 40 01 00 00 00 f0 27 00 40 01 00 00 00 	0!0@00000'0@0000
  0x43b0	00 00 00 00 00 00 00 00 80 10 00 00 f0 21 00 00 	0000000000000!00
  0x43c0	d0 22 00 00 90 25 00 00 20 26 00 00 b0 27 00 00 	0"000%00 &000'00
  0x43d0	f0 27 00 00 d0 28 00 00 c0 2a 00 00 00 00 00 00 	0'000(000*000000
  0x43e0	4e 00 55 00 4c 00 4c 00 00 00 00 00 00 00 00 00 	N0U0L0L000000000
  0x43f0	25 00 30 00 38 00 6c 00 78 00 00 00 00 00 00 00 	%00080l0x0000000
  0x4400	53 00 6f 00 66 00 74 00 77 00 61 00 72 00 65 00 	S0o0f0t0w0a0r0e0
  0x4410	5c 00 50 00 6f 00 6c 00 69 00 63 00 69 00 65 00 	00P0o0l0i0c0i0e0
  0x4420	73 00 5c 00 4d 00 69 00 63 00 72 00 6f 00 73 00 	s000M0i0c0r0o0s0
  0x4430	6f 00 66 00 74 00 5c 00 57 00 69 00 6e 00 64 00 	o0f0t000W0i0n0d0
  0x4440	6f 00 77 00 73 00 5c 00 44 00 65 00 76 00 69 00 	o0w0s000D0e0v0i0
  0x4450	63 00 65 00 49 00 6e 00 73 00 74 00 61 00 6c 00 	c0e0I0n0s0t0a0l0
  0x4460	6c 00 5c 00 52 00 65 00 73 00 74 00 72 00 69 00 	l000R0e0s0t0r0i0
  0x4470	63 00 74 00 69 00 6f 00 6e 00 73 00 5c 00 44 00 	c0t0i0o0n0s000D0
  0x4480	65 00 6e 00 69 00 65 00 64 00 50 00 6f 00 6c 00 	e0n0i0e0d0P0o0l0
  0x4490	69 00 63 00 79 00 00 00 53 00 69 00 6d 00 70 00 	i0c0y000S0i0m0p0
  0x44a0	6c 00 65 00 54 00 65 00 78 00 74 00 00 00 00 00 	l0e0T0e0x0t00000
  0x44b0	44 00 65 00 74 00 61 00 69 00 6c 00 54 00 65 00 	D0e0t0a0i0l0T0e0
  0x44c0	78 00 74 00 00 00 00 00 a9 4f 63 72 0b ea 43 31 	x0t000000Ocr00C1
  0x44d0	f5 0d 70 26 73 7d 6f ea 8f d1 15 9a a8 6f db 47 	00p&s}o000000o0G
  0x44e0	92 ca 22 71 8d 3f 91 91 00 00 00 00 00 00 00 00 	00"q0?0000000000
  0x44f0	77 00 69 00 6e 00 64 00 6f 00 77 00 73 00 2e 00 	w0i0n0d0o0w0s0.0
  0x4500	69 00 6d 00 6d 00 65 00 72 00 73 00 69 00 76 00 	i0m0m0e0r0s0i0v0
  0x4510	65 00 63 00 6f 00 6e 00 74 00 72 00 6f 00 6c 00 	e0c0o0n0t0r0o0l0
  0x4520	70 00 61 00 6e 00 65 00 6c 00 5f 00 63 00 77 00 	p0a0n0e0l0_0c0w0
  0x4530	35 00 6e 00 31 00 68 00 32 00 74 00 78 00 79 00 	50n010h020t0x0y0
  0x4540	65 00 77 00 79 00 21 00 6d 00 69 00 63 00 72 00 	e0w0y0!0m0i0c0r0
  0x4550	6f 00 73 00 6f 00 66 00 74 00 2e 00 77 00 69 00 	o0s0o0f0t0.0w0i0
  0x4560	6e 00 64 00 6f 00 77 00 73 00 2e 00 69 00 6d 00 	n0d0o0w0s0.0i0m0
  0x4570	6d 00 65 00 72 00 73 00 69 00 76 00 65 00 63 00 	m0e0r0s0i0v0e0c0
  0x4580	6f 00 6e 00 74 00 72 00 6f 00 6c 00 70 00 61 00 	o0n0t0r0o0l0p0a0
  0x4590	6e 00 65 00 6c 00 00 00 4e 00 6f 00 6e 00 49 00 	n0e0l000N0o0n0I0
  0x45a0	6d 00 6d 00 65 00 72 00 73 00 69 00 76 00 65 00 	m0m0e0r0s0i0v0e0
  0x45b0	50 00 61 00 63 00 6b 00 61 00 67 00 65 00 00 00 	P0a0c0k0a0g0e000
  0x45c0	00 00 00 00 00 00 00 00 f9 81 92 0c a1 6d 06 40 	0000000000000m0@
  0x45d0	87 29 de 6e 6b 61 58 1c 80 94 8e df 73 ca 8e 44 	0)0nkaX00000s00D
  0x45e0	b8 f0 da 00 0f 58 14 28 00 00 00 00 00 00 00 00 	00000X0(00000000
  0x45f0	3c 00 74 00 6f 00 61 00 73 00 74 00 20 00 61 00 	<0t0o0a0s0t0 0a0
  0x4600	63 00 74 00 69 00 76 00 61 00 74 00 69 00 6f 00 	c0t0i0v0a0t0i0o0
  0x4610	6e 00 54 00 79 00 70 00 65 00 3d 00 27 00 70 00 	n0T0y0p0e0=0'0p0
  0x4620	72 00 6f 00 74 00 6f 00 63 00 6f 00 6c 00 27 00 	r0o0t0o0c0o0l0'0
  0x4630	20 00 6c 00 61 00 75 00 6e 00 63 00 68 00 3d 00 	 0l0a0u0n0c0h0=0
  0x4640	27 00 6d 00 73 00 2d 00 73 00 65 00 74 00 74 00 	'0m0s0-0s0e0t0t0
  0x4650	69 00 6e 00 67 00 73 00 3a 00 63 00 6f 00 6e 00 	i0n0g0s0:0c0o0n0
  0x4660	6e 00 65 00 63 00 74 00 65 00 64 00 64 00 65 00 	n0e0c0t0e0d0d0e0
  0x4670	76 00 69 00 63 00 65 00 73 00 27 00 3e 00 3c 00 	v0i0c0e0s0'0>0<0
  0x4680	76 00 69 00 73 00 75 00 61 00 6c 00 3e 00 3c 00 	v0i0s0u0a0l0>0<0
  0x4690	62 00 69 00 6e 00 64 00 69 00 6e 00 67 00 20 00 	b0i0n0d0i0n0g0 0
  0x46a0	74 00 65 00 6d 00 70 00 6c 00 61 00 74 00 65 00 	t0e0m0p0l0a0t0e0
  0x46b0	3d 00 27 00 54 00 6f 00 61 00 73 00 74 00 47 00 	=0'0T0o0a0s0t0G0
  0x46c0	65 00 6e 00 65 00 72 00 69 00 63 00 27 00 3e 00 	e0n0e0r0i0c0'0>0
  0x46d0	3c 00 74 00 65 00 78 00 74 00 20 00 69 00 64 00 	<0t0e0x0t0 0i0d0
  0x46e0	3d 00 27 00 31 00 27 00 3e 00 25 00 77 00 73 00 	=0'010'0>0%0w0s0
  0x46f0	3c 00 2f 00 74 00 65 00 78 00 74 00 3e 00 3c 00 	<0/0t0e0x0t0>0<0
  0x4700	74 00 65 00 78 00 74 00 20 00 69 00 64 00 3d 00 	t0e0x0t0 0i0d0=0
  0x4710	27 00 32 00 27 00 3e 00 25 00 77 00 73 00 3c 00 	'020'0>0%0w0s0<0
  0x4720	2f 00 74 00 65 00 78 00 74 00 3e 00 3c 00 2f 00 	/0t0e0x0t0>0<0/0
  0x4730	62 00 69 00 6e 00 64 00 69 00 6e 00 67 00 3e 00 	b0i0n0d0i0n0g0>0
  0x4740	3c 00 2f 00 76 00 69 00 73 00 75 00 61 00 6c 00 	<0/0v0i0s0u0a0l0
  0x4750	3e 00 3c 00 2f 00 74 00 6f 00 61 00 73 00 74 00 	>0<0/0t0o0a0s0t0
  0x4760	3e 00 00 00 00 00 00 00 30 f1 25 b7 ef 47 1a 10 	>000000000%00G00
  0x4770	a5 f1 02 60 8c 9e eb ac 0a 00 00 00 00 00 00 00 	000`000000000000
  0x4780	7e 94 0b 54 40 8b bc 45 a8 a2 6a 0b 89 4c bd a2 	~00T@00E00j00L00
  0x4790	04 00 00 00 00 00 00 00 c5 a6 40 43 fa 93 06 47 	0000000000@C000G
  0x47a0	97 2c 7b 64 80 08 a5 a7 08 00 00 00 00 00 00 00 	0,{d000000000000
  0x47b0	06 d2 7e 8c 8a 3f 27 48 b3 ab ae 9e 1f ae fc 6c 	00~00?'H0000000l
  0x47c0	02 00 00 00 00 00 00 00 22 05 93 19 01 00 00 00 	00000000"0000000
  0x47d0	cc 4b 00 00 00 00 00 00 00 00 00 00 03 00 00 00 	0K00000000000000
  0x47e0	d8 4b 00 00 58 00 00 00 00 00 00 00 00 00 00 00 	0K00X00000000000
  0x47f0	00 00 00 00 89 72 27 e8 00 00 00 00 02 00 00 00 	00000r'000000000
  0x4800	28 00 00 00 44 48 00 00 44 2a 00 00 00 00 00 00 	(000DH00D*000000
  0x4810	89 72 27 e8 00 00 00 00 0d 00 00 00 14 02 00 00 	0r'0000000000000
  0x4820	6c 48 00 00 6c 2a 00 00 00 00 00 00 89 72 27 e8 	lH00l*0000000r'0
  0x4830	00 00 00 00 10 00 00 00 24 00 00 00 80 4a 00 00 	00000000$0000J00
  0x4840	80 2c 00 00 52 53 44 53 a6 5a 3d 71 ed 91 63 cd 	0,00RSDS0Z=q00c0
  0x4850	a8 9c b2 75 58 c5 e8 8b 01 00 00 00 44 73 6d 55 	000uX0000000DsmU
  0x4860	73 65 72 54 61 73 6b 2e 70 64 62 00 47 43 54 4c 	serTask.pdb0GCTL
  0x4870	00 10 00 00 00 1c 00 00 2e 74 65 78 74 24 6d 6e 	00000000.text$mn
  0x4880	00 00 00 00 00 2c 00 00 80 00 00 00 2e 74 65 78 	00000,000000.tex
  0x4890	74 24 6d 6e 24 30 30 00 80 2c 00 00 60 00 00 00 	t$mn$0000,00`000
  0x48a0	2e 74 65 78 74 24 78 00 00 30 00 00 04 00 00 00 	.text$x000000000
  0x48b0	2e 69 6d 72 73 69 76 00 00 40 00 00 28 01 00 00 	.imrsiv00@00(000
  0x48c0	2e 72 64 61 74 61 24 62 72 63 00 00 28 41 00 00 	.rdata$brc00(A00
  0x48d0	48 02 00 00 2e 69 64 61 74 61 24 35 00 00 00 00 	H000.idata$50000
  0x48e0	70 43 00 00 10 00 00 00 2e 30 30 63 66 67 00 00 	pC000000.00cfg00
  0x48f0	80 43 00 00 08 00 00 00 2e 43 52 54 24 58 43 41 	0C000000.CRT$XCA
  0x4900	00 00 00 00 88 43 00 00 08 00 00 00 2e 43 52 54 	00000C000000.CRT
  0x4910	24 58 43 41 41 00 00 00 90 43 00 00 08 00 00 00 	$XCAA0000C000000
  0x4920	2e 43 52 54 24 58 43 5a 00 00 00 00 98 43 00 00 	.CRT$XCZ00000C00
  0x4930	08 00 00 00 2e 43 52 54 24 58 49 41 00 00 00 00 	0000.CRT$XIA0000
  0x4940	a0 43 00 00 08 00 00 00 2e 43 52 54 24 58 49 41 	0C000000.CRT$XIA
  0x4950	41 00 00 00 a8 43 00 00 08 00 00 00 2e 43 52 54 	A0000C000000.CRT
  0x4960	24 58 49 59 00 00 00 00 b0 43 00 00 08 00 00 00 	$XIY00000C000000
  0x4970	2e 43 52 54 24 58 49 5a 00 00 00 00 b8 43 00 00 	.CRT$XIZ00000C00
  0x4980	28 00 00 00 2e 67 66 69 64 73 00 00 e0 43 00 00 	(000.gfids000C00
  0x4990	64 04 00 00 2e 72 64 61 74 61 00 00 44 48 00 00 	d000.rdata00DH00
  0x49a0	6c 02 00 00 2e 72 64 61 74 61 24 7a 7a 7a 64 62 	l000.rdata$zzzdb
  0x49b0	67 00 00 00 b0 4a 00 00 10 02 00 00 2e 78 64 61 	g0000J000000.xda
  0x49c0	74 61 00 00 c0 4c 00 00 18 01 00 00 2e 69 64 61 	ta000L000000.ida
  0x49d0	74 61 24 32 00 00 00 00 d8 4d 00 00 18 00 00 00 	ta$200000M000000
  0x49e0	2e 69 64 61 74 61 24 33 00 00 00 00 f0 4d 00 00 	.idata$300000M00
  0x49f0	48 02 00 00 2e 69 64 61 74 61 24 34 00 00 00 00 	H000.idata$40000
  0x4a00	38 50 00 00 0e 06 00 00 2e 69 64 61 74 61 24 36 	8P000000.idata$6
  0x4a10	00 00 00 00 00 60 00 00 10 00 00 00 2e 64 61 74 	00000`000000.dat
  0x4a20	61 24 62 72 63 00 00 00 10 60 00 00 30 00 00 00 	a$brc0000`000000
  0x4a30	2e 64 61 74 61 00 00 00 40 60 00 00 98 06 00 00 	.data000@`000000
  0x4a40	2e 62 73 73 00 00 00 00 00 70 00 00 80 01 00 00 	.bss00000p000000
  0x4a50	2e 70 64 61 74 61 00 00 00 80 00 00 f0 00 00 00 	.pdata0000000000
  0x4a60	2e 72 73 72 63 24 30 31 00 00 00 00 f0 80 00 00 	.rsrc$0100000000
  0x4a70	28 07 00 00 2e 72 73 72 63 24 30 32 00 00 00 00 	(000.rsrc$020000
  0x4a80	20 00 00 00 a6 5a 3d 71 ed 91 63 cd a8 9c b2 75 	 0000Z=q00c0000u
  0x4a90	58 c5 e8 8b c1 45 dc 33 6a e8 f4 fe 39 80 61 25 	X0000E03j00090a%
  0x4aa0	89 72 27 e8 00 00 00 00 00 00 00 00 00 00 00 00 	0r'0000000000000
  0x4ab0	01 04 01 00 04 82 00 00 01 0f 06 00 0f 64 07 00 	0000000000000d00
  0x4ac0	0f 34 06 00 0f 32 0b 70 19 2a 0b 00 1c 34 2e 00 	0400020p0*0004.0
  0x4ad0	1c 01 24 00 10 f0 0e e0 0c d0 0a c0 08 70 07 60 	00$0000000000p0`
  0x4ae0	06 50 00 00 e4 2a 00 00 10 01 00 00 19 2d 0a 00 	0P000*0000000-00
  0x4af0	1c 01 8f 00 0d f0 0b e0 09 d0 07 c0 05 70 04 60 	0000000000000p0`
  0x4b00	03 30 02 50 e4 2a 00 00 60 04 00 00 19 2e 09 00 	000P0*00`0000.00
  0x4b10	1d 64 92 00 1d 34 91 00 1d 01 8c 00 0e e0 0c 70 	0d0004000000000p
  0x4b20	0b 50 00 00 e4 2a 00 00 50 04 00 00 01 14 08 00 	0P000*00P0000000
  0x4b30	14 64 0e 00 14 54 0d 00 14 34 0c 00 14 92 10 70 	0d000T000400000p
  0x4b40	01 19 0a 00 19 34 0e 00 19 32 15 f0 13 e0 11 d0 	0000040002000000
  0x4b50	0f c0 0d 70 0c 60 0b 50 01 19 0a 00 19 74 09 00 	000p0`0P00000t00
  0x4b60	19 64 08 00 19 54 07 00 19 34 06 00 19 32 15 e0 	0d000T0004000200
  0x4b70	01 04 01 00 04 42 00 00 19 36 0b 00 25 34 25 02 	00000B000600%4%0
  0x4b80	25 01 1a 02 10 f0 0e e0 0c d0 0a c0 08 70 07 60 	%000000000000p0`
  0x4b90	06 50 00 00 e4 2a 00 00 c0 10 00 00 01 12 05 00 	0P000*0000000000
  0x4ba0	12 42 0e 70 0d 60 0c 50 0b 30 00 00 19 2d 07 00 	0B0p0`0P00000-00
  0x4bb0	1f 74 16 00 1b 34 14 00 0f 01 12 00 04 50 00 00 	0t00040000000P00
  0x4bc0	6c 2b 00 00 c8 47 00 00 82 00 00 00 ff ff ff ff 	l+000G0000000000
  0x4bd0	83 2c 00 00 00 00 00 00 a8 20 00 00 ff ff ff ff 	0,0000000 000000
  0x4be0	4f 21 00 00 00 00 00 00 83 21 00 00 ff ff ff ff 	O!0000000!000000
  0x4bf0	01 04 01 00 04 62 00 00 09 1c 0b 00 1c e4 1b 00 	00000b0000000000
  0x4c00	1c 74 1a 00 1c 64 19 00 1c 34 18 00 1c 01 16 00 	0t000d0004000000
  0x4c10	15 f0 00 00 aa 2a 00 00 01 00 00 00 4f 23 00 00 	00000*000000O#00
  0x4c20	39 25 00 00 95 2c 00 00 39 25 00 00 01 06 02 00 	9%000,009%000000
  0x4c30	06 32 02 50 00 00 00 00 01 00 00 00 01 06 02 00 	020P000000000000
  0x4c40	06 32 02 30 01 0c 02 00 0c 01 11 00 09 04 01 00 	0200000000000000
  0x4c50	04 22 00 00 aa 2a 00 00 01 00 00 00 2c 28 00 00 	0"000*000000,(00
  0x4c60	62 28 00 00 01 00 00 00 62 28 00 00 09 0a 04 00 	b(000000b(000000
  0x4c70	0a 34 06 00 0a 32 06 70 aa 2a 00 00 01 00 00 00 	0400020p0*000000
  0x4c80	3d 29 00 00 70 29 00 00 c0 2c 00 00 70 29 00 00 	=)00p)000,00p)00
  0x4c90	01 0d 04 00 0d 34 09 00 0d 32 06 50 00 00 00 00 	00000400020P0000
  0x4ca0	01 00 00 00 01 02 01 00 02 30 00 00 00 00 00 00 	0000000000000000
  0x4cb0	02 04 03 00 01 16 00 06 04 12 00 00 00 00 00 00 	0000000000000000
  0x4cc0	90 4f 00 00 00 00 00 00 00 00 00 00 16 51 00 00 	0O00000000000Q00
  0x4cd0	c8 42 00 00 58 4f 00 00 00 00 00 00 00 00 00 00 	0B00XO0000000000
  0x4ce0	38 54 00 00 90 42 00 00 f0 4d 00 00 00 00 00 00 	8T000B000M000000
  0x4cf0	00 00 00 00 68 54 00 00 28 41 00 00 28 4f 00 00 	0000hT00(A00(O00
  0x4d00	00 00 00 00 00 00 00 00 88 54 00 00 60 42 00 00 	000000000T00`B00
  0x4d10	58 4e 00 00 00 00 00 00 00 00 00 00 ac 54 00 00 	XN00000000000T00
  0x4d20	90 41 00 00 28 4e 00 00 00 00 00 00 00 00 00 00 	0A00(N0000000000
  0x4d30	d6 54 00 00 60 41 00 00 70 4e 00 00 00 00 00 00 	0T00`A00pN000000
  0x4d40	00 00 00 00 00 55 00 00 a8 41 00 00 48 4e 00 00 	00000U000A00HN00
  0x4d50	00 00 00 00 00 00 00 00 28 55 00 00 80 41 00 00 	00000000(U000A00
  0x4d60	c0 4e 00 00 00 00 00 00 00 00 00 00 48 55 00 00 	0N0000000000HU00
  0x4d70	f8 41 00 00 10 4f 00 00 00 00 00 00 00 00 00 00 	0A000O0000000000
  0x4d80	6c 55 00 00 48 42 00 00 00 4f 00 00 00 00 00 00 	lU00HB000O000000
  0x4d90	00 00 00 00 90 55 00 00 38 42 00 00 80 4e 00 00 	00000U008B000N00
  0x4da0	00 00 00 00 00 00 00 00 b2 55 00 00 b8 41 00 00 	000000000U000A00
  0x4db0	e0 4e 00 00 00 00 00 00 00 00 00 00 dc 55 00 00 	0N00000000000U00
  0x4dc0	18 42 00 00 b0 4e 00 00 00 00 00 00 00 00 00 00 	0B000N0000000000
  0x4dd0	02 56 00 00 e8 41 00 00 00 00 00 00 00 00 00 00 	0V000A0000000000
  0x4de0	00 00 00 00 00 00 00 00 00 00 00 00 00 00 00 00 	0000000000000000
  0x4df0	30 52 00 00 00 00 00 00 e6 52 00 00 00 00 00 00 	0R0000000R000000
  0x4e00	b8 51 00 00 00 00 00 00 12 53 00 00 00 00 00 00 	0Q0000000S000000
  0x4e10	c8 51 00 00 00 00 00 00 d2 52 00 00 00 00 00 00 	0Q0000000R000000
  0x4e20	00 00 00 00 00 00 00 00 9c 53 00 00 00 00 00 00 	000000000S000000
  0x4e30	80 53 00 00 00 00 00 00 76 52 00 00 00 00 00 00 	0S000000vR000000
  0x4e40	00 00 00 00 00 00 00 00 98 52 00 00 00 00 00 00 	000000000R000000
  0x4e50	00 00 00 00 00 00 00 00 54 52 00 00 00 00 00 00 	00000000TR000000
  0x4e60	62 52 00 00 00 00 00 00 00 00 00 00 00 00 00 00 	bR00000000000000
  0x4e70	86 52 00 00 00 00 00 00 00 00 00 00 00 00 00 00 	0R00000000000000
  0x4e80	fc 53 00 00 00 00 00 00 12 54 00 00 00 00 00 00 	0S0000000T000000
  0x4e90	ce 53 00 00 00 00 00 00 ba 53 00 00 00 00 00 00 	0S0000000S000000
  0x4ea0	2c 53 00 00 00 00 00 00 00 00 00 00 00 00 00 00 	,S00000000000000
  0x4eb0	e2 53 00 00 00 00 00 00 00 00 00 00 00 00 00 00 	0S00000000000000
  0x4ec0	c4 52 00 00 00 00 00 00 a4 52 00 00 00 00 00 00 	0R0000000R000000
  0x4ed0	b4 52 00 00 00 00 00 00 00 00 00 00 00 00 00 00 	0R00000000000000
  0x4ee0	6c 53 00 00 00 00 00 00 3e 53 00 00 00 00 00 00 	lS000000>S000000
  0x4ef0	52 53 00 00 00 00 00 00 00 00 00 00 00 00 00 00 	RS00000000000000
  0x4f00	24 53 00 00 00 00 00 00 00 00 00 00 00 00 00 00 	$S00000000000000
  0x4f10	28 54 00 00 00 00 00 00 f8 52 00 00 00 00 00 00 	(T0000000R000000
  0x4f20	00 00 00 00 00 00 00 00 fc 51 00 00 00 00 00 00 	000000000Q000000
  0x4f30	ea 51 00 00 00 00 00 00 da 51 00 00 00 00 00 00 	0Q0000000Q000000
  0x4f40	42 52 00 00 00 00 00 00 16 52 00 00 00 00 00 00 	BR0000000R000000
  0x4f50	00 00 00 00 00 00 00 00 46 51 00 00 00 00 00 00 	00000000FQ000000
  0x4f60	a0 51 00 00 00 00 00 00 36 51 00 00 00 00 00 00 	0Q0000006Q000000
  0x4f70	8a 51 00 00 00 00 00 00 5e 51 00 00 00 00 00 00 	0Q000000^Q000000
  0x4f80	74 51 00 00 00 00 00 00 00 00 00 00 00 00 00 00 	tQ00000000000000
  0x4f90	22 51 00 00 00 00 00 00 0a 51 00 00 00 00 00 00 	"Q0000000Q000000
  0x4fa0	00 51 00 00 00 00 00 00 26 56 00 00 00 00 00 00 	0Q000000&V000000
  0x4fb0	f6 50 00 00 00 00 00 00 de 50 00 00 00 00 00 00 	0P0000000P000000
  0x4fc0	d2 50 00 00 00 00 00 00 be 50 00 00 00 00 00 00 	0P0000000P000000
  0x4fd0	b4 50 00 00 00 00 00 00 ac 50 00 00 00 00 00 00 	0P0000000P000000
  0x4fe0	a4 50 00 00 00 00 00 00 92 50 00 00 00 00 00 00 	0P0000000P000000
  0x4ff0	80 50 00 00 00 00 00 00 72 50 00 00 00 00 00 00 	0P000000rP000000
  0x5000	64 50 00 00 00 00 00 00 5c 50 00 00 00 00 00 00 	dP0000000P000000
  0x5010	4e 50 00 00 00 00 00 00 44 50 00 00 00 00 00 00 	NP000000DP000000
  0x5020	38 50 00 00 00 00 00 00 3c 56 00 00 00 00 00 00 	8P000000<V000000
  0x5030	00 00 00 00 00 00 00 00 de 04 73 77 73 63 61 6e 	0000000000swscan
  0x5040	66 5f 73 00 01 05 77 63 73 63 68 72 00 00 69 03 	f_s000wcschr00i0
  0x5050	5f 76 73 6e 77 70 72 69 6e 74 66 00 4c 04 66 72 	_vsnwprintf0L0fr
  0x5060	65 65 00 00 55 00 5f 58 63 70 74 46 69 6c 74 65 	ee00U0_XcptFilte
  0x5070	72 00 ae 00 5f 61 6d 73 67 5f 65 78 69 74 00 00 	r000_amsg_exit00
  0x5080	9d 00 5f 5f 77 67 65 74 6d 61 69 6e 61 72 67 73 	00__wgetmainargs
  0x5090	00 00 8e 00 5f 5f 73 65 74 5f 61 70 70 5f 74 79 	0000__set_app_ty
  0x50a0	70 65 00 00 32 04 65 78 69 74 00 00 0e 01 5f 65 	pe0020exit0000_e
  0x50b0	78 69 74 00 c1 00 5f 63 65 78 69 74 00 00 90 00 	xit000_cexit0000
  0x50c0	5f 5f 73 65 74 75 73 65 72 6d 61 74 68 65 72 72 	__setusermatherr
  0x50d0	00 00 7d 01 5f 69 6e 69 74 74 65 72 6d 00 57 00 	00}0_initterm0W0
  0x50e0	5f 5f 43 5f 73 70 65 63 69 66 69 63 5f 68 61 6e 	__C_specific_han
  0x50f0	64 6c 65 72 00 00 82 03 5f 77 63 6d 64 6c 6e 00 	dler0000_wcmdln0
  0x5100	27 01 5f 66 6d 6f 64 65 00 00 d2 00 5f 63 6f 6d 	'0_fmode0000_com
  0x5110	6d 6f 64 65 00 00 6d 73 76 63 72 74 2e 64 6c 6c 	mode00msvcrt.dll
  0x5120	00 00 2f 00 3f 74 65 72 6d 69 6e 61 74 65 40 40 	00/0?terminate@@
  0x5130	59 41 58 58 5a 00 05 00 54 72 61 63 65 4d 65 73 	YAXXZ000TraceMes
  0x5140	73 61 67 65 00 00 02 00 47 65 74 54 72 61 63 65 	sage0000GetTrace
  0x5150	4c 6f 67 67 65 72 48 61 6e 64 6c 65 00 00 01 00 	LoggerHandle0000
  0x5160	47 65 74 54 72 61 63 65 45 6e 61 62 6c 65 4c 65 	GetTraceEnableLe
  0x5170	76 65 6c 00 00 00 47 65 74 54 72 61 63 65 45 6e 	vel000GetTraceEn
  0x5180	61 62 6c 65 46 6c 61 67 73 00 03 00 52 65 67 69 	ableFlags000Regi
  0x5190	73 74 65 72 54 72 61 63 65 47 75 69 64 73 57 00 	sterTraceGuidsW0
  0x51a0	07 00 55 6e 72 65 67 69 73 74 65 72 54 72 61 63 	00UnregisterTrac
  0x51b0	65 47 75 69 64 73 00 00 43 00 43 6f 54 61 73 6b 	eGuids00C0CoTask
  0x51c0	4d 65 6d 46 72 65 65 00 02 00 43 4c 53 49 44 46 	MemFree000CLSIDF
  0x51d0	72 6f 6d 53 74 72 69 6e 67 00 0c 00 44 65 76 47 	romString000DevG
  0x51e0	65 74 4f 62 6a 65 63 74 73 00 07 00 44 65 76 46 	etObjects000DevF
  0x51f0	69 6e 64 50 72 6f 70 65 72 74 79 00 0a 00 44 65 	indProperty000De
  0x5200	76 47 65 74 4f 62 6a 65 63 74 50 72 6f 70 65 72 	vGetObjectProper
  0x5210	74 69 65 73 00 00 08 00 44 65 76 46 72 65 65 4f 	ties0000DevFreeO
  0x5220	62 6a 65 63 74 50 72 6f 70 65 72 74 69 65 73 00 	bjectProperties0
  0x5230	42 00 43 6f 54 61 73 6b 4d 65 6d 41 6c 6c 6f 63 	B0CoTaskMemAlloc
  0x5240	00 00 09 00 44 65 76 46 72 65 65 4f 62 6a 65 63 	0000DevFreeObjec
  0x5250	74 73 00 00 01 00 4c 6f 61 64 53 74 72 69 6e 67 	ts0000LoadString
  0x5260	57 00 14 00 47 65 74 4d 6f 64 75 6c 65 48 61 6e 	W000GetModuleHan
  0x5270	64 6c 65 57 00 00 05 00 47 65 74 4c 61 73 74 45 	dleW0000GetLastE
  0x5280	72 72 6f 72 00 00 09 00 46 6f 72 6d 61 74 4d 65 	rror0000FormatMe
  0x5290	73 73 61 67 65 57 00 00 0a 00 4c 6f 63 61 6c 46 	ssageW0000LocalF
  0x52a0	72 65 65 00 1e 00 52 65 67 4f 70 65 6e 4b 65 79 	ree000RegOpenKey
  0x52b0	45 78 57 00 14 00 52 65 67 47 65 74 56 61 6c 75 	ExW000RegGetValu
  0x52c0	65 57 00 00 00 00 52 65 67 43 6c 6f 73 65 4b 65 	eW0000RegCloseKe
  0x52d0	79 00 09 00 43 6f 43 72 65 61 74 65 49 6e 73 74 	y000CoCreateInst
  0x52e0	61 6e 63 65 00 00 28 00 43 6f 49 6e 69 74 69 61 	ance00(0CoInitia
  0x52f0	6c 69 7a 65 45 78 00 00 16 00 47 65 74 53 79 73 	lizeEx0000GetSys
  0x5300	74 65 6d 54 69 6d 65 41 73 46 69 6c 65 54 69 6d 	temTimeAsFileTim
  0x5310	65 00 46 00 43 6f 55 6e 69 6e 69 74 69 61 6c 69 	e0F0CoUninitiali
  0x5320	7a 65 00 00 2d 00 53 6c 65 65 70 00 20 00 47 65 	ze00-0Sleep0 0Ge
  0x5330	74 53 74 61 72 74 75 70 49 6e 66 6f 57 00 f2 02 	tStartupInfoW000
  0x5340	52 74 6c 43 61 70 74 75 72 65 43 6f 6e 74 65 78 	RtlCaptureContex
  0x5350	74 00 e8 04 52 74 6c 4c 6f 6f 6b 75 70 46 75 6e 	t000RtlLookupFun
  0x5360	63 74 69 6f 6e 45 6e 74 72 79 00 00 27 06 52 74 	ctionEntry00'0Rt
  0x5370	6c 56 69 72 74 75 61 6c 55 6e 77 69 6e 64 00 00 	lVirtualUnwind00
  0x5380	11 00 55 6e 68 61 6e 64 6c 65 64 45 78 63 65 70 	00UnhandledExcep
  0x5390	74 69 6f 6e 46 69 6c 74 65 72 00 00 0f 00 53 65 	tionFilter0000Se
  0x53a0	74 55 6e 68 61 6e 64 6c 65 64 45 78 63 65 70 74 	tUnhandledExcept
  0x53b0	69 6f 6e 46 69 6c 74 65 72 00 0c 00 47 65 74 43 	ionFilter000GetC
  0x53c0	75 72 72 65 6e 74 50 72 6f 63 65 73 73 00 4e 00 	urrentProcess0N0
  0x53d0	54 65 72 6d 69 6e 61 74 65 50 72 6f 63 65 73 73 	TerminateProcess
  0x53e0	00 00 00 00 51 75 65 72 79 50 65 72 66 6f 72 6d 	0000QueryPerform
  0x53f0	61 6e 63 65 43 6f 75 6e 74 65 72 00 0d 00 47 65 	anceCounter000Ge
  0x5400	74 43 75 72 72 65 6e 74 50 72 6f 63 65 73 73 49 	tCurrentProcessI
  0x5410	64 00 11 00 47 65 74 43 75 72 72 65 6e 74 54 68 	d000GetCurrentTh
  0x5420	72 65 61 64 49 64 00 00 1a 00 47 65 74 54 69 63 	readId0000GetTic
  0x5430	6b 43 6f 75 6e 74 00 00 61 70 69 2d 6d 73 2d 77 	kCount00api-ms-w
  0x5440	69 6e 2d 65 76 65 6e 74 69 6e 67 2d 63 6c 61 73 	in-eventing-clas
  0x5450	73 69 63 70 72 6f 76 69 64 65 72 2d 6c 31 2d 31 	sicprovider-l1-1
  0x5460	2d 30 2e 64 6c 6c 00 00 61 70 69 2d 6d 73 2d 77 	-0.dll00api-ms-w
  0x5470	69 6e 2d 63 6f 72 65 2d 63 6f 6d 2d 6c 31 2d 31 	in-core-com-l1-1
  0x5480	2d 30 2e 64 6c 6c 00 00 61 70 69 2d 6d 73 2d 77 	-0.dll00api-ms-w
  0x5490	69 6e 2d 64 65 76 69 63 65 73 2d 71 75 65 72 79 	in-devices-query
  0x54a0	2d 6c 31 2d 31 2d 30 2e 64 6c 6c 00 61 70 69 2d 	-l1-1-0.dll0api-
  0x54b0	6d 73 2d 77 69 6e 2d 63 6f 72 65 2d 6c 69 62 72 	ms-win-core-libr
  0x54c0	61 72 79 6c 6f 61 64 65 72 2d 6c 31 2d 32 2d 30 	aryloader-l1-2-0
  0x54d0	2e 64 6c 6c 00 00 61 70 69 2d 6d 73 2d 77 69 6e 	.dll00api-ms-win
  0x54e0	2d 63 6f 72 65 2d 65 72 72 6f 72 68 61 6e 64 6c 	-core-errorhandl
  0x54f0	69 6e 67 2d 6c 31 2d 31 2d 30 2e 64 6c 6c 00 00 	ing-l1-1-0.dll00
  0x5500	61 70 69 2d 6d 73 2d 77 69 6e 2d 63 6f 72 65 2d 	api-ms-win-core-
  0x5510	6c 6f 63 61 6c 69 7a 61 74 69 6f 6e 2d 6c 31 2d 	localization-l1-
  0x5520	32 2d 30 2e 64 6c 6c 00 61 70 69 2d 6d 73 2d 77 	2-0.dll0api-ms-w
  0x5530	69 6e 2d 63 6f 72 65 2d 68 65 61 70 2d 6c 32 2d 	in-core-heap-l2-
  0x5540	31 2d 30 2e 64 6c 6c 00 61 70 69 2d 6d 73 2d 77 	1-0.dll0api-ms-w
  0x5550	69 6e 2d 63 6f 72 65 2d 72 65 67 69 73 74 72 79 	in-core-registry
  0x5560	2d 6c 31 2d 31 2d 30 2e 64 6c 6c 00 61 70 69 2d 	-l1-1-0.dll0api-
  0x5570	6d 73 2d 77 69 6e 2d 63 6f 72 65 2d 73 79 73 69 	ms-win-core-sysi
  0x5580	6e 66 6f 2d 6c 31 2d 31 2d 30 2e 64 6c 6c 00 00 	nfo-l1-1-0.dll00
  0x5590	61 70 69 2d 6d 73 2d 77 69 6e 2d 63 6f 72 65 2d 	api-ms-win-core-
  0x55a0	73 79 6e 63 68 2d 6c 31 2d 32 2d 30 2e 64 6c 6c 	synch-l1-2-0.dll
  0x55b0	00 00 61 70 69 2d 6d 73 2d 77 69 6e 2d 63 6f 72 	00api-ms-win-cor
  0x55c0	65 2d 70 72 6f 63 65 73 73 74 68 72 65 61 64 73 	e-processthreads
  0x55d0	2d 6c 31 2d 31 2d 30 2e 64 6c 6c 00 61 70 69 2d 	-l1-1-0.dll0api-
  0x55e0	6d 73 2d 77 69 6e 2d 63 6f 72 65 2d 72 74 6c 73 	ms-win-core-rtls
  0x55f0	75 70 70 6f 72 74 2d 6c 31 2d 31 2d 30 2e 64 6c 	upport-l1-1-0.dl
  0x5600	6c 00 61 70 69 2d 6d 73 2d 77 69 6e 2d 63 6f 72 	l0api-ms-win-cor
  0x5610	65 2d 70 72 6f 66 69 6c 65 2d 6c 31 2d 31 2d 30 	e-profile-l1-1-0
  0x5620	2e 64 6c 6c 00 00 5b 00 5f 5f 43 78 78 46 72 61 	.dll00[0__CxxFra
  0x5630	6d 65 48 61 6e 64 6c 65 72 33 00 00 96 04 6d 65 	meHandler30000me
  0x5640	6d 73 65 74 00 00 00 00 00 00 00 00 00 00 00 00 	mset000000000000
  0x5650	00 00 00 00 00 00 00 00 00 00 00 00 00 00 00 00 	0000000000000000
  0x5660	00 00 00 00 00 00 00 00 00 00 00 00 00 00 00 00 	0000000000000000
  0x5670	00 00 00 00 00 00 00 00 00 00 00 00 00 00 00 00 	0000000000000000
  0x5680	00 00 00 00 00 00 00 00 00 00 00 00 00 00 00 00 	0000000000000000
  0x5690	00 00 00 00 00 00 00 00 00 00 00 00 00 00 00 00 	0000000000000000
  0x56a0	00 00 00 00 00 00 00 00 00 00 00 00 00 00 00 00 	0000000000000000
  0x56b0	00 00 00 00 00 00 00 00 00 00 00 00 00 00 00 00 	0000000000000000
  0x56c0	00 00 00 00 00 00 00 00 00 00 00 00 00 00 00 00 	0000000000000000
  0x56d0	00 00 00 00 00 00 00 00 00 00 00 00 00 00 00 00 	0000000000000000
  0x56e0	00 00 00 00 00 00 00 00 00 00 00 00 00 00 00 00 	0000000000000000
  0x56f0	00 00 00 00 00 00 00 00 00 00 00 00 00 00 00 00 	0000000000000000
  0x5700	00 00 00 00 00 00 00 00 00 00 00 00 00 00 00 00 	0000000000000000
  0x5710	00 00 00 00 00 00 00 00 00 00 00 00 00 00 00 00 	0000000000000000
  0x5720	00 00 00 00 00 00 00 00 00 00 00 00 00 00 00 00 	0000000000000000
  0x5730	00 00 00 00 00 00 00 00 00 00 00 00 00 00 00 00 	0000000000000000
  0x5740	00 00 00 00 00 00 00 00 00 00 00 00 00 00 00 00 	0000000000000000
  0x5750	00 00 00 00 00 00 00 00 00 00 00 00 00 00 00 00 	0000000000000000
  0x5760	00 00 00 00 00 00 00 00 00 00 00 00 00 00 00 00 	0000000000000000
  0x5770	00 00 00 00 00 00 00 00 00 00 00 00 00 00 00 00 	0000000000000000
  0x5780	00 00 00 00 00 00 00 00 00 00 00 00 00 00 00 00 	0000000000000000
  0x5790	00 00 00 00 00 00 00 00 00 00 00 00 00 00 00 00 	0000000000000000
  0x57a0	00 00 00 00 00 00 00 00 00 00 00 00 00 00 00 00 	0000000000000000
  0x57b0	00 00 00 00 00 00 00 00 00 00 00 00 00 00 00 00 	0000000000000000
  0x57c0	00 00 00 00 00 00 00 00 00 00 00 00 00 00 00 00 	0000000000000000
  0x57d0	00 00 00 00 00 00 00 00 00 00 00 00 00 00 00 00 	0000000000000000
  0x57e0	00 00 00 00 00 00 00 00 00 00 00 00 00 00 00 00 	0000000000000000
  0x57f0	00 00 00 00 00 00 00 00 00 00 00 00 00 00 00 00 	0000000000000000
=== DATA BLOCK END ===

=== DATA BLOCK ADDRESS 0x6000 ===
  0x6000	00 60 00 40 01 00 00 00 00 00 00 00 00 00 00 00 	0`0@000000000000
  0x6010	01 00 00 00 00 00 00 00 32 a2 df 2d 99 2b 00 00 	00000000200-0+00
  0x6020	cd 5d 20 d2 66 d4 ff ff 00 00 00 00 00 00 00 00 	0] 0f00000000000
  0x6030	01 01 00 00 00 00 00 00 00 00 00 00 00 00 00 00 	0000000000000000
  0x6040	00 00 00 00 00 00 00 00 00 00 00 00 00 00 00 00 	0000000000000000
  0x6050	00 00 00 00 00 00 00 00 00 00 00 00 00 00 00 00 	0000000000000000
  0x6060	00 00 00 00 00 00 00 00 00 00 00 00 00 00 00 00 	0000000000000000
  0x6070	00 00 00 00 00 00 00 00 00 00 00 00 00 00 00 00 	0000000000000000
  0x6080	00 00 00 00 00 00 00 00 00 00 00 00 00 00 00 00 	0000000000000000
  0x6090	00 00 00 00 00 00 00 00 00 00 00 00 00 00 00 00 	0000000000000000
  0x60a0	00 00 00 00 00 00 00 00 00 00 00 00 00 00 00 00 	0000000000000000
  0x60b0	00 00 00 00 00 00 00 00 00 00 00 00 00 00 00 00 	0000000000000000
  0x60c0	00 00 00 00 00 00 00 00 00 00 00 00 00 00 00 00 	0000000000000000
  0x60d0	00 00 00 00 00 00 00 00 00 00 00 00 00 00 00 00 	0000000000000000
  0x60e0	00 00 00 00 00 00 00 00 00 00 00 00 00 00 00 00 	0000000000000000
  0x60f0	00 00 00 00 00 00 00 00 00 00 00 00 00 00 00 00 	0000000000000000
  0x6100	00 00 00 00 00 00 00 00 00 00 00 00 00 00 00 00 	0000000000000000
  0x6110	00 00 00 00 00 00 00 00 00 00 00 00 00 00 00 00 	0000000000000000
  0x6120	00 00 00 00 00 00 00 00 00 00 00 00 00 00 00 00 	0000000000000000
  0x6130	00 00 00 00 00 00 00 00 00 00 00 00 00 00 00 00 	0000000000000000
  0x6140	00 00 00 00 00 00 00 00 00 00 00 00 00 00 00 00 	0000000000000000
  0x6150	00 00 00 00 00 00 00 00 00 00 00 00 00 00 00 00 	0000000000000000
  0x6160	00 00 00 00 00 00 00 00 00 00 00 00 00 00 00 00 	0000000000000000
  0x6170	00 00 00 00 00 00 00 00 00 00 00 00 00 00 00 00 	0000000000000000
  0x6180	00 00 00 00 00 00 00 00 00 00 00 00 00 00 00 00 	0000000000000000
  0x6190	00 00 00 00 00 00 00 00 00 00 00 00 00 00 00 00 	0000000000000000
  0x61a0	00 00 00 00 00 00 00 00 00 00 00 00 00 00 00 00 	0000000000000000
  0x61b0	00 00 00 00 00 00 00 00 00 00 00 00 00 00 00 00 	0000000000000000
  0x61c0	00 00 00 00 00 00 00 00 00 00 00 00 00 00 00 00 	0000000000000000
  0x61d0	00 00 00 00 00 00 00 00 00 00 00 00 00 00 00 00 	0000000000000000
  0x61e0	00 00 00 00 00 00 00 00 00 00 00 00 00 00 00 00 	0000000000000000
  0x61f0	00 00 00 00 00 00 00 00 00 00 00 00 00 00 00 00 	0000000000000000
=== DATA BLOCK END ===

=== DATA BLOCK ADDRESS 0x7000 ===
  0x7000	08 10 00 00 77 10 00 00 b0 4a 00 00 80 10 00 00 	0000w0000J000000
  0x7010	12 11 00 00 b8 4a 00 00 18 11 00 00 c3 14 00 00 	00000J0000000000
  0x7020	c8 4a 00 00 cc 14 00 00 07 17 00 00 ec 4a 00 00 	0J00000000000J00
  0x7030	10 17 00 00 21 19 00 00 0c 4b 00 00 28 19 00 00 	0000!0000K00(000
  0x7040	a2 1a 00 00 2c 4b 00 00 a8 1a 00 00 c3 1c 00 00 	0000,K0000000000
  0x7050	40 4b 00 00 cc 1c 00 00 e3 1d 00 00 58 4b 00 00 	@K0000000000XK00
  0x7060	ec 1d 00 00 0a 1e 00 00 70 4b 00 00 10 1e 00 00 	00000000pK000000
  0x7070	1c 20 00 00 78 4b 00 00 24 20 00 00 a2 20 00 00 	0 00xK00$ 000 00
  0x7080	9c 4b 00 00 a8 20 00 00 d0 21 00 00 ac 4b 00 00 	0K000 000!000K00
  0x7090	f0 21 00 00 c3 22 00 00 70 4b 00 00 d0 22 00 00 	0!000"00pK000"00
  0x70a0	19 23 00 00 f0 4b 00 00 20 23 00 00 84 25 00 00 	0#000K00 #000%00
  0x70b0	f8 4b 00 00 90 25 00 00 a2 25 00 00 70 4b 00 00 	0K000%000%00pK00
  0x70c0	c0 25 00 00 de 25 00 00 38 4c 00 00 e4 25 00 00 	0%000%008L000%00
  0x70d0	18 26 00 00 3c 4c 00 00 20 26 00 00 91 27 00 00 	0&00<L00 &000'00
  0x70e0	44 4c 00 00 b0 27 00 00 e9 27 00 00 70 4b 00 00 	DL000'000'00pK00
  0x70f0	f0 27 00 00 08 28 00 00 70 4b 00 00 1c 28 00 00 	0'000(00pK000(00
  0x7100	70 28 00 00 4c 4c 00 00 78 28 00 00 bd 28 00 00 	p(00LL00x(000(00
  0x7110	3c 4c 00 00 30 29 00 00 7d 29 00 00 6c 4c 00 00 	<L000)00})00lL00
  0x7120	c4 29 00 00 98 2a 00 00 90 4c 00 00 e4 2a 00 00 	0)000*000L000*00
  0x7130	01 2b 00 00 70 4b 00 00 08 2b 00 00 63 2b 00 00 	0+00pK000+00c+00
  0x7140	a4 4c 00 00 6c 2b 00 00 eb 2b 00 00 58 4b 00 00 	0L00l+000+00XK00
  0x7150	10 2c 00 00 12 2c 00 00 a0 4c 00 00 30 2c 00 00 	0,000,000L000,00
  0x7160	7d 2c 00 00 b0 4c 00 00 95 2c 00 00 b3 2c 00 00 	},000L000,000,00
  0x7170	2c 4c 00 00 c0 2c 00 00 e0 2c 00 00 2c 4c 00 00 	,L000,000,00,L00
  0x7180	00 00 00 00 00 00 00 00 00 00 00 00 00 00 00 00 	0000000000000000
  0x7190	00 00 00 00 00 00 00 00 00 00 00 00 00 00 00 00 	0000000000000000
  0x71a0	00 00 00 00 00 00 00 00 00 00 00 00 00 00 00 00 	0000000000000000
  0x71b0	00 00 00 00 00 00 00 00 00 00 00 00 00 00 00 00 	0000000000000000
  0x71c0	00 00 00 00 00 00 00 00 00 00 00 00 00 00 00 00 	0000000000000000
  0x71d0	00 00 00 00 00 00 00 00 00 00 00 00 00 00 00 00 	0000000000000000
  0x71e0	00 00 00 00 00 00 00 00 00 00 00 00 00 00 00 00 	0000000000000000
  0x71f0	00 00 00 00 00 00 00 00 00 00 00 00 00 00 00 00 	0000000000000000
=== DATA BLOCK END ===
