===== Assembly blocks =====

=== CODE BLOCK ADDRESS 0x1000 ===
  0x1000	int3   	
  0x1001	int3   	
  0x1002	int3   	
  0x1003	int3   	
  0x1004	int3   	
  === BLOCK LINK ===
    0x1005
=== CODE BLOCK END ===

=== CODE BLOCK ADDRESS 0x1005 ===
  0x1005	int3   	
  0x1006	int3   	
  0x1007	int3   	
  === BLOCK LINK ===
    0x1008
=== CODE BLOCK END ===

=== CODE BLOCK ADDRESS 0x100d ===
  0x100d	inc    	ebp
  0x100e	xor    	ebx, ebx
  0x1010	dec    	eax
  0x1011	lea    	eax, [edx - 1]
  0x1014	dec    	eax
  === BLOCK LINK ===
    0x1015
=== CODE BLOCK END ===

=== CODE BLOCK ADDRESS 0x1015 ===
  0x1015	cmp    	eax, 0x7ffffffe
  0x101a	inc    	ebp
  0x101b	mov    	edx, ebx
  0x101d	mov    	ebx, 0x80070057
  0x1022	inc    	esp
  === BLOCK LINK ===
    0x1023
=== CODE BLOCK END ===

=== CODE BLOCK ADDRESS 0x1023 ===
  0x1023	cmova  	edx, ebx
  0x1026	inc    	ebp
  0x1027	test   	edx, edx
  0x1029	js     	0x1085
  === BLOCK LINK ===
    0x102b
    0x1085
=== CODE BLOCK END ===

=== CODE BLOCK ADDRESS 0x102b ===
  0x102b	dec    	ecx
  0x102c	cmp    	ecx, 0x7ffffffe
  0x1032	jbe    	0x1039
  === BLOCK LINK ===
    0x1034
    0x1039
=== CODE BLOCK END ===

=== CODE BLOCK ADDRESS 0x1034 ===
  0x1034	inc    	esp
  0x1035	mov    	edx, ebx
  0x1037	jmp    	0x108a
  === BLOCK LINK ===
    0x1039
    0x108a
=== CODE BLOCK END ===

=== CODE BLOCK ADDRESS 0x1039 ===
  0x1039	dec    	eax
  0x103a	test   	edx, edx
  0x103c	je     	0x1064
  === BLOCK LINK ===
    0x103e
    0x1064
=== CODE BLOCK END ===

=== CODE BLOCK ADDRESS 0x103e ===
  0x103e	dec    	esp
  0x103f	sub    	ecx, edx
  0x1041	dec    	esp
  0x1042	sub    	eax, ecx
  0x1044	dec    	ecx
  === BLOCK LINK ===
    0x1045
=== CODE BLOCK END ===

=== CODE BLOCK ADDRESS 0x1045 ===
  0x1045	lea    	eax, [ecx + edx]
  0x1048	dec    	eax
  0x1049	test   	eax, eax
  0x104b	je     	0x1064
  === BLOCK LINK ===
    0x104d
    0x1064
=== CODE BLOCK END ===

=== CODE BLOCK ADDRESS 0x104d ===
  0x104d	inc    	ecx
  0x104e	movzx  	eax, word ptr [eax + ecx]
  0x1052	test   	ax, ax
  0x1055	je     	0x1064
  === BLOCK LINK ===
    0x1057
    0x1064
=== CODE BLOCK END ===

=== CODE BLOCK ADDRESS 0x1057 ===
  0x1057	mov    	word ptr [ecx], ax
  0x105a	dec    	eax
  0x105b	add    	ecx, 2
  0x105e	dec    	eax
  0x105f	sub    	edx, 1
  === BLOCK LINK ===
    0x1062
=== CODE BLOCK END ===

=== CODE BLOCK ADDRESS 0x1062 ===
  0x1062	jne    	0x1044
  === BLOCK LINK ===
    0x1064
    0x1044
=== CODE BLOCK END ===

=== CODE BLOCK ADDRESS 0x1064 ===
  0x1064	dec    	eax
  0x1065	test   	edx, edx
  0x1067	dec    	eax
  0x1068	lea    	eax, [ecx - 2]
  0x106b	dec    	eax
  === BLOCK LINK ===
    0x106c
=== CODE BLOCK END ===

=== CODE BLOCK ADDRESS 0x106c ===
  0x106c	cmovne  	eax, ecx
  0x106f	dec    	eax
  0x1070	neg    	edx
  0x1072	inc    	ebp
  0x1073	sbb    	edx, edx
  === BLOCK LINK ===
    0x1075
=== CODE BLOCK END ===

=== CODE BLOCK ADDRESS 0x1075 ===
  0x1075	inc    	ecx
  0x1076	not    	edx
  0x1078	inc    	ecx
  0x1079	and    	edx, 0x8007007a
  0x107f	inc    	sp
  === BLOCK LINK ===
    0x1081
=== CODE BLOCK END ===

=== CODE BLOCK ADDRESS 0x1081 ===
  0x1081	mov    	dword ptr [eax], ebx
  0x1083	jmp    	0x108e
  === BLOCK LINK ===
    0x1085
    0x108e
=== CODE BLOCK END ===

=== CODE BLOCK ADDRESS 0x1085 ===
  0x1085	dec    	eax
  0x1086	test   	edx, edx
  0x1088	je     	0x108e
  === BLOCK LINK ===
    0x108a
    0x108e
=== CODE BLOCK END ===

=== CODE BLOCK ADDRESS 0x108a ===
  0x108a	inc    	sp
  0x108c	mov    	dword ptr [ecx], ebx
  === BLOCK LINK ===
    0x108e
=== CODE BLOCK END ===

=== CODE BLOCK ADDRESS 0x1094 ===
  0x1094	mov    	eax, edx
  0x1096	ret    	
  0x1097	int3   	
  0x1098	int3   	
  0x1099	int3   	
  === BLOCK LINK ===
    0x109a
=== CODE BLOCK END ===

=== CODE BLOCK ADDRESS 0x109a ===
  0x109a	int3   	
  0x109b	int3   	
  0x109c	int3   	
  0x109d	int3   	
  0x109e	int3   	
  === BLOCK LINK ===
    0x109f
=== CODE BLOCK END ===

=== CODE BLOCK ADDRESS 0x109f ===
  0x109f	int3   	
  0x10a0	dec    	eax
  0x10a1	mov    	dword ptr [esp + 8], ebx
  0x10a5	dec    	eax
  0x10a6	mov    	dword ptr [esp + 0x10], esi
  === BLOCK LINK ===
    0x10aa
=== CODE BLOCK END ===

=== CODE BLOCK ADDRESS 0x10aa ===
  0x10aa	push   	edi
  0x10ab	dec    	eax
  0x10ac	sub    	esp, 0x20
  0x10af	xor    	esi, esi
  0x10b1	dec    	eax
  === BLOCK LINK ===
    0x10b2
=== CODE BLOCK END ===

=== CODE BLOCK ADDRESS 0x10b2 ===
  0x10b2	cmp    	dword ptr [0x5f58], esi
  0x10b8	jne    	0x10db
  === BLOCK LINK ===
    0x10ba
    0x10db
=== CODE BLOCK END ===

=== CODE BLOCK ADDRESS 0x10ba ===
  0x10ba	mov    	ecx, 0xfa2
  0x10bf	dec    	eax
  0x10c0	call   	dword ptr [0x3272]
  === BLOCK LINK ===
    0x10c6
=== CODE BLOCK END ===

=== CODE BLOCK ADDRESS 0x10c6 ===
  0x10c6	nop    	dword ptr [eax + eax]
  0x10cb	dec    	eax
  0x10cc	mov    	dword ptr [0x5f3e], eax
  0x10d2	dec    	eax
  0x10d3	test   	eax, eax
  === BLOCK LINK ===
    0x10d5
=== CODE BLOCK END ===

=== CODE BLOCK ADDRESS 0x10d5 ===
  0x10d5	je     	0x1283
  === BLOCK LINK ===
    0x10db
    0x1283
=== CODE BLOCK END ===

=== CODE BLOCK ADDRESS 0x10db ===
  0x10db	mov    	ecx, 0x9c4
  0x10e0	call   	0x24c8
  === BLOCK LINK ===
    0x10e5
    0x24c8
=== CODE BLOCK END ===

=== CODE BLOCK ADDRESS 0x10e5 ===
  0x10e5	mov    	edi, 0x40
  0x10ea	dec    	eax
  0x10eb	lea    	ecx, [0x552f]
  0x10f1	dec    	esp
  0x10f2	mov    	eax, eax
  === BLOCK LINK ===
    0x10f4
=== CODE BLOCK END ===

=== CODE BLOCK ADDRESS 0x10f4 ===
  0x10f4	inc    	esp
  0x10f5	mov    	ecx, edi
  0x10f7	lea    	ebx, [edi + 1]
  0x10fa	mov    	edx, ebx
  0x10fc	call   	0x1008
  === BLOCK LINK ===
    0x1101
    0x1008
=== CODE BLOCK END ===

=== CODE BLOCK ADDRESS 0x1101 ===
  0x1101	mov    	ecx, 0x9c5
  0x1106	mov    	word ptr [0x5593], si
  0x110d	call   	0x24c8
  === BLOCK LINK ===
    0x1112
    0x24c8
=== CODE BLOCK END ===

=== CODE BLOCK ADDRESS 0x1112 ===
  0x1112	dec    	esp
  0x1113	mov    	eax, eax
  0x1115	dec    	eax
  0x1116	lea    	ecx, [0x5586]
  0x111c	inc    	esp
  === BLOCK LINK ===
    0x111d
=== CODE BLOCK END ===

=== CODE BLOCK ADDRESS 0x111d ===
  0x111d	mov    	ecx, edi
  0x111f	mov    	edx, ebx
  0x1121	call   	0x1008
  === BLOCK LINK ===
    0x1126
    0x1008
=== CODE BLOCK END ===

=== CODE BLOCK ADDRESS 0x1126 ===
  0x1126	mov    	ecx, 0x9c6
  0x112b	mov    	word ptr [0x55f0], si
  0x1132	call   	0x24c8
  === BLOCK LINK ===
    0x1137
    0x24c8
=== CODE BLOCK END ===

=== CODE BLOCK ADDRESS 0x1137 ===
  0x1137	dec    	esp
  0x1138	mov    	eax, eax
  0x113a	dec    	eax
  0x113b	lea    	ecx, [0x55e3]
  0x1141	inc    	esp
  === BLOCK LINK ===
    0x1142
=== CODE BLOCK END ===

=== CODE BLOCK ADDRESS 0x1142 ===
  0x1142	mov    	ecx, edi
  0x1144	mov    	edx, ebx
  0x1146	call   	0x1008
  === BLOCK LINK ===
    0x114b
    0x1008
=== CODE BLOCK END ===

=== CODE BLOCK ADDRESS 0x114b ===
  0x114b	mov    	ecx, 0x9c7
  0x1150	mov    	word ptr [0x564d], si
  0x1157	call   	0x24c8
  === BLOCK LINK ===
    0x115c
    0x24c8
=== CODE BLOCK END ===

=== CODE BLOCK ADDRESS 0x115c ===
  0x115c	dec    	esp
  0x115d	mov    	eax, eax
  0x115f	dec    	eax
  0x1160	lea    	ecx, [0x5640]
  0x1166	inc    	esp
  === BLOCK LINK ===
    0x1167
=== CODE BLOCK END ===

=== CODE BLOCK ADDRESS 0x1167 ===
  0x1167	mov    	ecx, edi
  0x1169	mov    	edx, ebx
  0x116b	call   	0x1008
  === BLOCK LINK ===
    0x1170
    0x1008
=== CODE BLOCK END ===

=== CODE BLOCK ADDRESS 0x1170 ===
  0x1170	mov    	ecx, 0x9c8
  0x1175	mov    	word ptr [0x56aa], si
  0x117c	call   	0x24c8
  === BLOCK LINK ===
    0x1181
    0x24c8
=== CODE BLOCK END ===

=== CODE BLOCK ADDRESS 0x1181 ===
  0x1181	dec    	esp
  0x1182	mov    	eax, eax
  0x1184	dec    	eax
  0x1185	lea    	ecx, [0x569d]
  0x118b	inc    	esp
  === BLOCK LINK ===
    0x118c
=== CODE BLOCK END ===

=== CODE BLOCK ADDRESS 0x118c ===
  0x118c	mov    	ecx, edi
  0x118e	mov    	edx, ebx
  0x1190	call   	0x1008
  === BLOCK LINK ===
    0x1195
    0x1008
=== CODE BLOCK END ===

=== CODE BLOCK ADDRESS 0x1195 ===
  0x1195	mov    	ecx, 0x9cd
  0x119a	mov    	word ptr [0x5707], si
  0x11a1	call   	0x24c8
  === BLOCK LINK ===
    0x11a6
    0x24c8
=== CODE BLOCK END ===

=== CODE BLOCK ADDRESS 0x11a6 ===
  0x11a6	dec    	esp
  0x11a7	mov    	eax, eax
  0x11a9	dec    	eax
  0x11aa	lea    	ecx, [0x56fa]
  0x11b0	inc    	esp
  === BLOCK LINK ===
    0x11b1
=== CODE BLOCK END ===

=== CODE BLOCK ADDRESS 0x11b1 ===
  0x11b1	mov    	ecx, edi
  0x11b3	mov    	edx, ebx
  0x11b5	call   	0x1008
  === BLOCK LINK ===
    0x11ba
    0x1008
=== CODE BLOCK END ===

=== CODE BLOCK ADDRESS 0x11ba ===
  0x11ba	mov    	ecx, 0x9ce
  0x11bf	mov    	word ptr [0x5764], si
  0x11c6	call   	0x24c8
  === BLOCK LINK ===
    0x11cb
    0x24c8
=== CODE BLOCK END ===

=== CODE BLOCK ADDRESS 0x11cb ===
  0x11cb	dec    	esp
  0x11cc	mov    	eax, eax
  0x11ce	dec    	eax
  0x11cf	lea    	ecx, [0x5757]
  0x11d5	inc    	esp
  === BLOCK LINK ===
    0x11d6
=== CODE BLOCK END ===

=== CODE BLOCK ADDRESS 0x11d6 ===
  0x11d6	mov    	ecx, edi
  0x11d8	mov    	edx, ebx
  0x11da	call   	0x1008
  === BLOCK LINK ===
    0x11df
    0x1008
=== CODE BLOCK END ===

=== CODE BLOCK ADDRESS 0x11df ===
  0x11df	mov    	ecx, 0x9c9
  0x11e4	mov    	word ptr [0x57c1], si
  0x11eb	call   	0x24c8
  === BLOCK LINK ===
    0x11f0
    0x24c8
=== CODE BLOCK END ===

=== CODE BLOCK ADDRESS 0x11f0 ===
  0x11f0	dec    	esp
  0x11f1	mov    	eax, eax
  0x11f3	dec    	eax
  0x11f4	lea    	ecx, [0x57b6]
  0x11fa	inc    	esp
  === BLOCK LINK ===
    0x11fb
=== CODE BLOCK END ===

=== CODE BLOCK ADDRESS 0x11fb ===
  0x11fb	mov    	ecx, edi
  0x11fd	mov    	edx, ebx
  0x11ff	call   	0x1008
  === BLOCK LINK ===
    0x1204
    0x1008
=== CODE BLOCK END ===

=== CODE BLOCK ADDRESS 0x1204 ===
  0x1204	mov    	ecx, 0x9ca
  0x1209	mov    	word ptr [0x5820], si
  0x1210	call   	0x24c8
  === BLOCK LINK ===
    0x1215
    0x24c8
=== CODE BLOCK END ===

=== CODE BLOCK ADDRESS 0x1215 ===
  0x1215	dec    	esp
  0x1216	mov    	eax, eax
  0x1218	dec    	eax
  0x1219	lea    	ecx, [0x5813]
  0x121f	inc    	esp
  === BLOCK LINK ===
    0x1220
=== CODE BLOCK END ===

=== CODE BLOCK ADDRESS 0x1220 ===
  0x1220	mov    	ecx, edi
  0x1222	mov    	edx, ebx
  0x1224	call   	0x1008
  === BLOCK LINK ===
    0x1229
    0x1008
=== CODE BLOCK END ===

=== CODE BLOCK ADDRESS 0x1229 ===
  0x1229	mov    	ecx, 0x9cb
  0x122e	mov    	word ptr [0x587d], si
  0x1235	call   	0x24c8
  === BLOCK LINK ===
    0x123a
    0x24c8
=== CODE BLOCK END ===

=== CODE BLOCK ADDRESS 0x123a ===
  0x123a	dec    	esp
  0x123b	mov    	eax, eax
  0x123d	dec    	eax
  0x123e	lea    	ecx, [0x5870]
  0x1244	inc    	esp
  === BLOCK LINK ===
    0x1245
=== CODE BLOCK END ===

=== CODE BLOCK ADDRESS 0x1245 ===
  0x1245	mov    	ecx, edi
  0x1247	mov    	edx, ebx
  0x1249	call   	0x1008
  === BLOCK LINK ===
    0x124e
    0x1008
=== CODE BLOCK END ===

=== CODE BLOCK ADDRESS 0x124e ===
  0x124e	mov    	ecx, 0x9cc
  0x1253	mov    	word ptr [0x58da], si
  0x125a	call   	0x24c8
  === BLOCK LINK ===
    0x125f
    0x24c8
=== CODE BLOCK END ===

=== CODE BLOCK ADDRESS 0x125f ===
  0x125f	dec    	esp
  0x1260	mov    	eax, eax
  0x1262	dec    	eax
  0x1263	lea    	ecx, [0x58cd]
  0x1269	inc    	esp
  === BLOCK LINK ===
    0x126a
=== CODE BLOCK END ===

=== CODE BLOCK ADDRESS 0x126a ===
  0x126a	mov    	ecx, edi
  0x126c	mov    	edx, ebx
  0x126e	call   	0x1008
  === BLOCK LINK ===
    0x1273
    0x1008
=== CODE BLOCK END ===

=== CODE BLOCK ADDRESS 0x1273 ===
  0x1273	cmp    	word ptr [0x58bc], si
  0x127a	mov    	word ptr [0x5935], si
  0x1281	jne    	0x1287
  === BLOCK LINK ===
    0x1283
    0x1287
=== CODE BLOCK END ===

=== CODE BLOCK ADDRESS 0x1283 ===
  0x1283	xor    	eax, eax
  0x1285	jmp    	0x128c
  === BLOCK LINK ===
    0x1287
    0x128c
=== CODE BLOCK END ===

=== CODE BLOCK ADDRESS 0x1287 ===
  0x1287	mov    	eax, 1
  === BLOCK LINK ===
    0x128c
=== CODE BLOCK END ===

=== CODE BLOCK ADDRESS 0x1296 ===
  0x1296	dec    	eax
  0x1297	add    	esp, 0x20
  0x129a	pop    	edi
  0x129b	ret    	
  0x129c	int3   	
  === BLOCK LINK ===
    0x129d
=== CODE BLOCK END ===

=== CODE BLOCK ADDRESS 0x129d ===
  0x129d	int3   	
  0x129e	int3   	
  0x129f	int3   	
  0x12a0	int3   	
  0x12a1	int3   	
  === BLOCK LINK ===
    0x12a2
=== CODE BLOCK END ===

=== CODE BLOCK ADDRESS 0x12a2 ===
  0x12a2	int3   	
  0x12a3	int3   	
  0x12a4	inc    	eax
  0x12a5	push   	ebx
  0x12a6	dec    	eax
  === BLOCK LINK ===
    0x12a7
=== CODE BLOCK END ===

=== CODE BLOCK ADDRESS 0x12a7 ===
  0x12a7	sub    	esp, 0x170
  0x12ad	dec    	eax
  0x12ae	mov    	eax, dword ptr [0x4d54]
  0x12b4	dec    	eax
  0x12b5	xor    	eax, esp
  === BLOCK LINK ===
    0x12b7
=== CODE BLOCK END ===

=== CODE BLOCK ADDRESS 0x12b7 ===
  0x12b7	dec    	eax
  0x12b8	mov    	dword ptr [esp + 0x160], eax
  0x12bf	dec    	eax
  0x12c0	lea    	ecx, [esp + 0x40]
  0x12c4	mov    	dword ptr [esp + 0x40], 0x11c
  === BLOCK LINK ===
    0x12cc
=== CODE BLOCK END ===

=== CODE BLOCK ADDRESS 0x12cc ===
  0x12cc	xor    	ebx, ebx
  0x12ce	dec    	eax
  0x12cf	call   	dword ptr [0x2ff3]
  === BLOCK LINK ===
    0x12d5
=== CODE BLOCK END ===

=== CODE BLOCK ADDRESS 0x12d5 ===
  0x12d5	nop    	dword ptr [eax + eax]
  0x12da	test   	eax, eax
  0x12dc	je     	0x1304
  === BLOCK LINK ===
    0x12de
    0x1304
=== CODE BLOCK END ===

=== CODE BLOCK ADDRESS 0x12de ===
  0x12de	mov    	al, byte ptr [esp + 0x15a]
  0x12e5	cmp    	al, 1
  0x12e7	jne    	0x12fd
  === BLOCK LINK ===
    0x12e9
    0x12fd
=== CODE BLOCK END ===

=== CODE BLOCK ADDRESS 0x12e9 ===
  0x12e9	mov    	ecx, 0x200
  0x12ee	test   	word ptr [esp + 0x158], cx
  0x12f6	je     	0x1304
  === BLOCK LINK ===
    0x12f8
=== CODE BLOCK END ===

=== CODE BLOCK ADDRESS 0x12f8 ===
  0x12f8	mov    	ebx, 1
  === BLOCK LINK ===
    0x12fd
=== CODE BLOCK END ===

=== CODE BLOCK ADDRESS 0x1301 ===
  0x1301	or     	ebx, 4
  === BLOCK LINK ===
    0x1304
=== CODE BLOCK END ===

=== CODE BLOCK ADDRESS 0x130f ===
  0x130f	inc    	ebp
  0x1310	xor    	eax, eax
  0x1312	dec    	eax
  0x1313	mov    	dword ptr [esp + 0x20], eax
  0x1317	dec    	eax
  === BLOCK LINK ===
    0x1318
=== CODE BLOCK END ===

=== CODE BLOCK ADDRESS 0x1318 ===
  0x1318	lea    	edx, [0x31f2]
  0x131e	dec    	eax
  0x131f	mov    	ecx, 0x80000002
  0x1325	dec    	eax
  0x1326	call   	dword ptr [0x2f44]
  === BLOCK LINK ===
    0x132c
=== CODE BLOCK END ===

=== CODE BLOCK ADDRESS 0x132c ===
  0x132c	nop    	dword ptr [eax + eax]
  0x1331	test   	eax, eax
  0x1333	jne    	0x1377
  === BLOCK LINK ===
    0x1335
=== CODE BLOCK END ===

=== CODE BLOCK ADDRESS 0x1335 ===
  0x1335	dec    	eax
  0x1336	and    	dword ptr [esp + 0x28], 0
  0x133b	dec    	eax
  0x133c	lea    	edx, [0x3236]
  0x1342	dec    	eax
  === BLOCK LINK ===
    0x1343
=== CODE BLOCK END ===

=== CODE BLOCK ADDRESS 0x1343 ===
  0x1343	mov    	ecx, dword ptr [esp + 0x30]
  0x1347	inc    	ebp
  0x1348	xor    	ecx, ecx
  0x134a	dec    	eax
  0x134b	and    	dword ptr [esp + 0x20], 0
  === BLOCK LINK ===
    0x1350
=== CODE BLOCK END ===

=== CODE BLOCK ADDRESS 0x1350 ===
  0x1350	inc    	ebp
  0x1351	xor    	eax, eax
  0x1353	dec    	eax
  0x1354	call   	dword ptr [0x2f0e]
  === BLOCK LINK ===
    0x135a
=== CODE BLOCK END ===

=== CODE BLOCK ADDRESS 0x135a ===
  0x135a	nop    	dword ptr [eax + eax]
  0x135f	test   	eax, eax
  0x1361	jne    	0x1366
  === BLOCK LINK ===
    0x1363
=== CODE BLOCK END ===

=== CODE BLOCK ADDRESS 0x1363 ===
  0x1363	or     	ebx, 2
  0x1366	dec    	eax
  0x1367	mov    	ecx, dword ptr [esp + 0x30]
  0x136b	dec    	eax
  0x136c	call   	dword ptr [0x2f06]
  === BLOCK LINK ===
    0x1372
=== CODE BLOCK END ===

=== CODE BLOCK ADDRESS 0x1372 ===
  0x1372	nop    	dword ptr [eax + eax]
  0x1377	mov    	eax, ebx
  0x1379	dec    	eax
  0x137a	mov    	ecx, dword ptr [esp + 0x160]
  0x1381	dec    	eax
  === BLOCK LINK ===
    0x1382
=== CODE BLOCK END ===

=== CODE BLOCK ADDRESS 0x1382 ===
  0x1382	xor    	ecx, esp
  0x1384	call   	0x28e0
  === BLOCK LINK ===
    0x1389
=== CODE BLOCK END ===

=== CODE BLOCK ADDRESS 0x1389 ===
  0x1389	dec    	eax
  0x138a	add    	esp, 0x170
  0x1390	pop    	ebx
  0x1391	ret    	
  0x1392	int3   	
  === BLOCK LINK ===
    0x1393
=== CODE BLOCK END ===

=== CODE BLOCK ADDRESS 0x1393 ===
  0x1393	int3   	
  0x1394	int3   	
  0x1395	int3   	
  0x1396	int3   	
  0x1397	int3   	
  === BLOCK LINK ===
    0x1398
=== CODE BLOCK END ===

=== CODE BLOCK ADDRESS 0x1398 ===
  0x1398	int3   	
  0x1399	int3   	
  0x139a	int3   	
  0x139b	int3   	
  0x139c	inc    	eax
  === BLOCK LINK ===
    0x139d
=== CODE BLOCK END ===

=== CODE BLOCK ADDRESS 0x139d ===
  0x139d	push   	ebx
  0x139e	dec    	eax
  0x139f	sub    	esp, 0x50
  0x13a2	dec    	eax
  0x13a3	mov    	eax, dword ptr [0x4c5f]
  === BLOCK LINK ===
    0x13a9
=== CODE BLOCK END ===

=== CODE BLOCK ADDRESS 0x13a9 ===
  0x13a9	dec    	eax
  0x13aa	xor    	eax, esp
  0x13ac	dec    	eax
  0x13ad	mov    	dword ptr [esp + 0x40], eax
  0x13b1	mov    	ebx, ecx
  === BLOCK LINK ===
    0x13b3
=== CODE BLOCK END ===

=== CODE BLOCK ADDRESS 0x13b3 ===
  0x13b3	dec    	eax
  0x13b4	lea    	edx, [esp + 0x20]
  0x13b8	mov    	ecx, 7
  0x13bd	dec    	eax
  0x13be	call   	dword ptr [0x2f34]
  === BLOCK LINK ===
    0x13c4
=== CODE BLOCK END ===

=== CODE BLOCK ADDRESS 0x13c4 ===
  0x13c4	nop    	dword ptr [eax + eax]
  0x13c9	test   	eax, eax
  0x13cb	je     	0x13d1
  === BLOCK LINK ===
    0x13cd
=== CODE BLOCK END ===

=== CODE BLOCK ADDRESS 0x13cd ===
  0x13cd	mov    	eax, dword ptr [esp + ebx*4 + 0x20]
  0x13d1	dec    	eax
  0x13d2	mov    	ecx, dword ptr [esp + 0x40]
  0x13d6	dec    	eax
  0x13d7	xor    	ecx, esp
  === BLOCK LINK ===
    0x13d9
=== CODE BLOCK END ===

=== CODE BLOCK ADDRESS 0x13d9 ===
  0x13d9	call   	0x28e0
  === BLOCK LINK ===
    0x13de
=== CODE BLOCK END ===

=== CODE BLOCK ADDRESS 0x13de ===
  0x13de	dec    	eax
  0x13df	add    	esp, 0x50
  0x13e2	pop    	ebx
  0x13e3	ret    	
  0x13e4	int3   	
  === BLOCK LINK ===
    0x13e5
=== CODE BLOCK END ===

=== CODE BLOCK ADDRESS 0x13e5 ===
  0x13e5	int3   	
  0x13e6	int3   	
  0x13e7	int3   	
  0x13e8	int3   	
  0x13e9	int3   	
  === BLOCK LINK ===
    0x13ea
=== CODE BLOCK END ===

=== CODE BLOCK ADDRESS 0x13ea ===
  0x13ea	int3   	
  0x13eb	int3   	
  0x13ec	dec    	eax
  0x13ed	mov    	dword ptr [esp + 0x18], ebx
  0x13f1	push   	ebp
  === BLOCK LINK ===
    0x13f2
=== CODE BLOCK END ===

=== CODE BLOCK ADDRESS 0x13f2 ===
  0x13f2	push   	esi
  0x13f3	push   	edi
  0x13f4	inc    	ecx
  0x13f5	push   	esp
  0x13f6	inc    	ecx
  === BLOCK LINK ===
    0x13f7
=== CODE BLOCK END ===

=== CODE BLOCK ADDRESS 0x13f7 ===
  0x13f7	push   	ebp
  0x13f8	inc    	ecx
  0x13f9	push   	esi
  0x13fa	inc    	ecx
  0x13fb	push   	edi
  === BLOCK LINK ===
    0x13fc
=== CODE BLOCK END ===

=== CODE BLOCK ADDRESS 0x13fc ===
  0x13fc	dec    	eax
  0x13fd	lea    	ebp, [esp - 0x5f0]
  0x1404	dec    	eax
  0x1405	sub    	esp, 0x6f0
  0x140b	dec    	eax
  === BLOCK LINK ===
    0x140c
=== CODE BLOCK END ===

=== CODE BLOCK ADDRESS 0x140c ===
  0x140c	mov    	eax, dword ptr [0x4bf6]
  0x1412	dec    	eax
  0x1413	xor    	eax, esp
  0x1415	dec    	eax
  0x1416	mov    	dword ptr [ebp + 0x5e0], eax
  === BLOCK LINK ===
    0x141c
=== CODE BLOCK END ===

=== CODE BLOCK ADDRESS 0x141c ===
  0x141c	dec    	eax
  0x141d	mov    	eax, dword ptr [0x5bc5]
  0x1423	xor    	ebx, ebx
  0x1425	mov    	edi, ecx
  0x1427	mov    	dword ptr [esp + 0x58], ecx
  === BLOCK LINK ===
    0x142b
=== CODE BLOCK END ===

=== CODE BLOCK ADDRESS 0x142b ===
  0x142b	mov    	ecx, dword ptr [0x5bb3]
  0x1431	dec    	esp
  0x1432	mov    	edi, edx
  0x1434	dec    	eax
  0x1435	mov    	dword ptr [esp + 0x60], edx
  === BLOCK LINK ===
    0x1439
=== CODE BLOCK END ===

=== CODE BLOCK ADDRESS 0x1439 ===
  0x1439	mov    	esi, ebx
  0x143b	cmp    	ecx, 6
  0x143e	jl     	0x1444
  === BLOCK LINK ===
    0x1440
=== CODE BLOCK END ===

=== CODE BLOCK ADDRESS 0x1440 ===
  0x1440	dec    	eax
  0x1441	mov    	esi, dword ptr [eax + 0x30]
  0x1444	dec    	esp
  0x1445	mov    	esi, ebx
  0x1447	cmp    	ecx, 7
  === BLOCK LINK ===
    0x144a
=== CODE BLOCK END ===

=== CODE BLOCK ADDRESS 0x144a ===
  0x144a	jl     	0x1450
  === BLOCK LINK ===
    0x144c
=== CODE BLOCK END ===

=== CODE BLOCK ADDRESS 0x144c ===
  0x144c	dec    	esp
  0x144d	mov    	esi, dword ptr [eax + 0x38]
  0x1450	mov    	word ptr [ebp + 0x1d0], bx
  0x1457	mov    	word ptr [ebp - 0x40], bx
  0x145b	call   	0x12a4
  === BLOCK LINK ===
    0x1460
=== CODE BLOCK END ===

=== CODE BLOCK ADDRESS 0x1460 ===
  0x1460	cmp    	dword ptr [0x5b7a], ebx
  0x1466	mov    	eax, 1
  0x146b	inc    	esp
  0x146c	lea    	ebp, [eax + 1]
  0x146f	je     	0x1477
  === BLOCK LINK ===
    0x1471
=== CODE BLOCK END ===

=== CODE BLOCK ADDRESS 0x1471 ===
  0x1471	mov    	dword ptr [esp + 0x54], eax
  0x1475	jmp    	0x14ba
  === BLOCK LINK ===
    0x1477
=== CODE BLOCK END ===

=== CODE BLOCK ADDRESS 0x1477 ===
  0x1477	mov    	eax, dword ptr [0x5b5b]
  0x147d	neg    	eax
  0x147f	sbb    	ecx, ecx
  0x1481	inc    	ecx
  0x1482	add    	ecx, ebp
  === BLOCK LINK ===
    0x1484
=== CODE BLOCK END ===

=== CODE BLOCK ADDRESS 0x1484 ===
  0x1484	call   	0x139c
  === BLOCK LINK ===
    0x1489
=== CODE BLOCK END ===

=== CODE BLOCK ADDRESS 0x1489 ===
  0x1489	mov    	dword ptr [esp + 0x54], eax
  0x148d	test   	eax, eax
  0x148f	jne    	0x14b5
  === BLOCK LINK ===
    0x1491
=== CODE BLOCK END ===

=== CODE BLOCK ADDRESS 0x1491 ===
  0x1491	mov    	ecx, 0x9d6
  0x1496	call   	0x24c8
  === BLOCK LINK ===
    0x149b
=== CODE BLOCK END ===

=== CODE BLOCK ADDRESS 0x149b ===
  0x149b	dec    	eax
  0x149c	mov    	ecx, eax
  0x149e	call   	0x2308
  === BLOCK LINK ===
    0x14a3
=== CODE BLOCK END ===

=== CODE BLOCK ADDRESS 0x14a3 ===
  0x14a3	dec    	ecx
  0x14a4	mov    	edx, edi
  0x14a6	mov    	ecx, edi
  0x14a8	call   	0x2274
  === BLOCK LINK ===
    0x14ad
=== CODE BLOCK END ===

=== CODE BLOCK ADDRESS 0x14ad ===
  0x14ad	or     	eax, 0xffffffff
  0x14b0	jmp    	0x16c8
  === BLOCK LINK ===
    0x14b5
=== CODE BLOCK END ===

=== CODE BLOCK ADDRESS 0x14b5 ===
  0x14b5	mov    	eax, 1
  0x14ba	inc    	esp
  0x14bb	mov    	esp, dword ptr [0x5b17]
  0x14c1	mov    	edi, dword ptr [0x5b1d]
  0x14c7	inc    	ebp
  === BLOCK LINK ===
    0x14c8
=== CODE BLOCK END ===

=== CODE BLOCK ADDRESS 0x14c8 ===
  0x14c8	test   	esp, esp
  0x14ca	je     	0x14dd
  === BLOCK LINK ===
    0x14cc
=== CODE BLOCK END ===

=== CODE BLOCK ADDRESS 0x14cc ===
  0x14cc	cmp    	edi, eax
  0x14ce	jl     	0x14e1
  === BLOCK LINK ===
    0x14d0
=== CODE BLOCK END ===

=== CODE BLOCK ADDRESS 0x14d0 ===
  0x14d0	dec    	eax
  0x14d1	mov    	eax, dword ptr [0x5b11]
  0x14d7	dec    	esp
  0x14d8	mov    	edi, dword ptr [eax + 8]
  0x14db	jmp    	0x14f0
  === BLOCK LINK ===
    0x14dd
=== CODE BLOCK END ===

=== CODE BLOCK ADDRESS 0x14dd ===
  0x14dd	test   	edi, edi
  0x14df	jns    	0x14e6
  === BLOCK LINK ===
    0x14e1
=== CODE BLOCK END ===

=== CODE BLOCK ADDRESS 0x14e1 ===
  0x14e1	dec    	esp
  0x14e2	mov    	edi, ebx
  0x14e4	jmp    	0x14f0
  === BLOCK LINK ===
    0x14e6
=== CODE BLOCK END ===

=== CODE BLOCK ADDRESS 0x14e6 ===
  0x14e6	dec    	eax
  0x14e7	mov    	eax, dword ptr [0x5afb]
  0x14ed	dec    	esp
  0x14ee	mov    	edi, dword ptr [eax]
  0x14f0	dec    	eax
  === BLOCK LINK ===
    0x14f1
=== CODE BLOCK END ===

=== CODE BLOCK ADDRESS 0x14f1 ===
  0x14f1	test   	esi, esi
  0x14f3	je     	0x150e
  === BLOCK LINK ===
    0x14f5
=== CODE BLOCK END ===

=== CODE BLOCK ADDRESS 0x14f5 ===
  0x14f5	inc    	ecx
  0x14f6	mov    	ecx, 0x201
  0x14fb	dec    	eax
  0x14fc	lea    	ecx, [ebp + 0x1d0]
  0x1502	dec    	esp
  === BLOCK LINK ===
    0x1503
=== CODE BLOCK END ===

=== CODE BLOCK ADDRESS 0x1503 ===
  0x1503	mov    	eax, esi
  0x1505	inc    	ecx
  0x1506	lea    	edx, [ecx + 1]
  0x1509	call   	0x1008
  === BLOCK LINK ===
    0x150e
=== CODE BLOCK END ===

=== CODE BLOCK ADDRESS 0x150e ===
  0x150e	xor    	edx, edx
  0x1510	dec    	eax
  0x1511	lea    	ecx, [esp + 0x70]
  0x1515	inc    	esp
  0x1516	lea    	eax, [edx + 0x50]
  === BLOCK LINK ===
    0x1519
=== CODE BLOCK END ===

=== CODE BLOCK ADDRESS 0x1519 ===
  0x1519	call   	0x2ff6
  === BLOCK LINK ===
    0x151e
=== CODE BLOCK END ===

=== CODE BLOCK ADDRESS 0x151e ===
  0x151e	mov    	ecx, dword ptr [0x5ab8]
  0x1524	cmp    	edi, 7
  0x1527	jl     	0x1535
  === BLOCK LINK ===
    0x1529
=== CODE BLOCK END ===

=== CODE BLOCK ADDRESS 0x1529 ===
  0x1529	dec    	eax
  0x152a	mov    	eax, dword ptr [0x5ad8]
  0x1530	cmp    	dword ptr [eax + 0x1c], ebx
  0x1533	jne    	0x1539
  === BLOCK LINK ===
    0x1535
=== CODE BLOCK END ===

=== CODE BLOCK ADDRESS 0x1535 ===
  0x1535	test   	ecx, ecx
  0x1537	je     	0x1576
  === BLOCK LINK ===
    0x1539
=== CODE BLOCK END ===

=== CODE BLOCK ADDRESS 0x1539 ===
  0x1539	dec    	eax
  0x153a	or     	edi, 0xffffffff
  0x153d	dec    	ebp
  0x153e	test   	esi, esi
  0x1540	je     	0x15d8
  === BLOCK LINK ===
    0x1546
=== CODE BLOCK END ===

=== CODE BLOCK ADDRESS 0x1546 ===
  0x1546	test   	ecx, ecx
  0x1548	jne    	0x15d8
  === BLOCK LINK ===
    0x154e
=== CODE BLOCK END ===

=== CODE BLOCK ADDRESS 0x154e ===
  0x154e	dec    	eax
  0x154f	mov    	eax, edi
  0x1551	dec    	eax
  0x1552	inc    	eax
  0x1554	inc    	cx
  === BLOCK LINK ===
    0x1556
=== CODE BLOCK END ===

=== CODE BLOCK ADDRESS 0x1556 ===
  0x1556	cmp    	dword ptr [esi + eax*2], ebx
  0x1559	jne    	0x1551
  === BLOCK LINK ===
    0x155b
=== CODE BLOCK END ===

=== CODE BLOCK ADDRESS 0x155b ===
  0x155b	dec    	eax
  0x155c	cmp    	eax, 0xa00
  0x1561	ja     	0x15d8
  === BLOCK LINK ===
    0x1563
=== CODE BLOCK END ===

=== CODE BLOCK ADDRESS 0x1563 ===
  0x1563	dec    	eax
  0x1564	inc    	edi
  0x1566	inc    	cx
  0x1568	cmp    	dword ptr [esi + edi*2], ebx
  0x156b	jne    	0x1563
  === BLOCK LINK ===
    0x156d
=== CODE BLOCK END ===

=== CODE BLOCK ADDRESS 0x156d ===
  0x156d	add    	edi, edi
  0x156f	dec    	esp
  0x1570	mov    	dword ptr [ebp - 0x68], esi
  0x1573	mov    	dword ptr [ebp - 0x70], edi
  0x1576	inc    	ecx
  === BLOCK LINK ===
    0x1577
=== CODE BLOCK END ===

=== CODE BLOCK ADDRESS 0x1577 ===
  0x1577	mov    	esi, 1
  0x157c	mov    	eax, dword ptr [esp + 0x54]
  0x1580	test   	ecx, ecx
  0x1582	mov    	dword ptr [ebp - 0x60], eax
  0x1585	dec    	eax
  === BLOCK LINK ===
    0x1586
=== CODE BLOCK END ===

=== CODE BLOCK ADDRESS 0x1586 ===
  0x1586	lea    	ecx, [esp + 0x70]
  0x158a	dec    	eax
  0x158b	lea    	eax, [ebp + 0x1d0]
  0x1591	dec    	esp
  0x1592	mov    	dword ptr [esp + 0x78], edi
  === BLOCK LINK ===
    0x1596
=== CODE BLOCK END ===

=== CODE BLOCK ADDRESS 0x1596 ===
  0x1596	dec    	eax
  0x1597	mov    	dword ptr [ebp - 0x48], eax
  0x159a	mov    	eax, 3
  0x159f	inc    	esp
  0x15a0	cmovne  	ebp, eax
  === BLOCK LINK ===
    0x15a3
=== CODE BLOCK END ===

=== CODE BLOCK ADDRESS 0x15a3 ===
  0x15a3	inc    	ebp
  0x15a4	test   	esp, esp
  0x15a6	inc    	ebp
  0x15a7	cmovne  	ebp, esi
  0x15aa	xor    	edx, edx
  === BLOCK LINK ===
    0x15ac
=== CODE BLOCK END ===

=== CODE BLOCK ADDRESS 0x15ac ===
  0x15ac	inc    	esp
  0x15ad	mov    	dword ptr [esp + 0x74], ebp
  0x15b1	dec    	eax
  0x15b2	call   	dword ptr [0x2d30]
  === BLOCK LINK ===
    0x15b8
=== CODE BLOCK END ===

=== CODE BLOCK ADDRESS 0x15b8 ===
  0x15b8	nop    	dword ptr [eax + eax]
  0x15bd	test   	eax, eax
  0x15bf	jne    	0x1699
  === BLOCK LINK ===
    0x15c5
=== CODE BLOCK END ===

=== CODE BLOCK ADDRESS 0x15c5 ===
  0x15c5	dec    	eax
  0x15c6	call   	dword ptr [0x2bcc]
  === BLOCK LINK ===
    0x15cc
=== CODE BLOCK END ===

=== CODE BLOCK ADDRESS 0x15cc ===
  0x15cc	nop    	dword ptr [eax + eax]
  0x15d1	mov    	ebx, eax
  0x15d3	jmp    	0x16ab
  === BLOCK LINK ===
    0x15d8
=== CODE BLOCK END ===

=== CODE BLOCK ADDRESS 0x15d8 ===
  0x15d8	inc    	ecx
  0x15d9	mov    	esi, 1
  0x15de	inc    	esp
  0x15df	mov    	dword ptr [esp + 0x50], esi
  0x15e3	call   	0x2de8
  === BLOCK LINK ===
    0x15e8
=== CODE BLOCK END ===

=== CODE BLOCK ADDRESS 0x15e8 ===
  0x15e8	test   	al, al
  0x15ea	je     	0x1648
  === BLOCK LINK ===
    0x15ec
=== CODE BLOCK END ===

=== CODE BLOCK ADDRESS 0x15ec ===
  0x15ec	inc    	ebp
  0x15ed	xor    	eax, eax
  0x15ef	dec    	eax
  0x15f0	lea    	eax, [esp + 0x50]
  0x15f4	xor    	edx, edx
  === BLOCK LINK ===
    0x15f6
=== CODE BLOCK END ===

=== CODE BLOCK ADDRESS 0x15f6 ===
  0x15f6	dec    	esp
  0x15f7	lea    	ecx, [ebp + 0x1d0]
  0x15fd	cmp    	dword ptr [0x59d9], ebx
  0x1603	dec    	ecx
  0x1604	mov    	ecx, edi
  === BLOCK LINK ===
    0x1606
=== CODE BLOCK END ===

=== CODE BLOCK ADDRESS 0x1606 ===
  0x1606	jne    	0x1612
  === BLOCK LINK ===
    0x1608
=== CODE BLOCK END ===

=== CODE BLOCK ADDRESS 0x1608 ===
  0x1608	mov    	dword ptr [esp + 0x40], 0x4000a
  0x1610	jmp    	0x161a
  === BLOCK LINK ===
    0x1612
=== CODE BLOCK END ===

=== CODE BLOCK ADDRESS 0x1612 ===
  0x1612	mov    	dword ptr [esp + 0x40], 0x102
  0x161a	dec    	eax
  0x161b	mov    	dword ptr [esp + 0x38], eax
  0x161f	dec    	eax
  0x1620	lea    	eax, [ebp - 0x40]
  === BLOCK LINK ===
    0x1623
=== CODE BLOCK END ===

=== CODE BLOCK ADDRESS 0x1623 ===
  0x1623	mov    	dword ptr [esp + 0x30], 0x100
  0x162b	dec    	eax
  0x162c	mov    	dword ptr [esp + 0x28], eax
  0x1630	mov    	dword ptr [esp + 0x20], 0x201
  0x1638	dec    	eax
  === BLOCK LINK ===
    0x1639
=== CODE BLOCK END ===

=== CODE BLOCK ADDRESS 0x1639 ===
  0x1639	call   	dword ptr [0x79c1]
  === BLOCK LINK ===
    0x163f
=== CODE BLOCK END ===

=== CODE BLOCK ADDRESS 0x163f ===
  0x163f	nop    	dword ptr [eax + eax]
  0x1644	mov    	esi, eax
  0x1646	jmp    	0x165b
  === BLOCK LINK ===
    0x1648
=== CODE BLOCK END ===

=== CODE BLOCK ADDRESS 0x1648 ===
  0x1648	mov    	esi, 0x32
  0x164d	mov    	ecx, esi
  0x164f	dec    	eax
  0x1650	call   	dword ptr [0x2b3a]
  === BLOCK LINK ===
    0x1656
=== CODE BLOCK END ===

=== CODE BLOCK ADDRESS 0x1656 ===
  0x1656	nop    	dword ptr [eax + eax]
  0x165b	test   	esi, esi
  0x165d	je     	0x166d
  === BLOCK LINK ===
    0x165f
=== CODE BLOCK END ===

=== CODE BLOCK ADDRESS 0x165f ===
  0x165f	dec    	eax
  0x1660	call   	dword ptr [0x2b32]
  === BLOCK LINK ===
    0x1666
=== CODE BLOCK END ===

=== CODE BLOCK ADDRESS 0x1666 ===
  0x1666	nop    	dword ptr [eax + eax]
  0x166b	jmp    	0x16c8
  === BLOCK LINK ===
    0x166d
=== CODE BLOCK END ===

=== CODE BLOCK ADDRESS 0x166d ===
  0x166d	dec    	eax
  0x166e	lea    	eax, [ebp - 0x40]
  0x1671	dec    	eax
  0x1672	inc    	edi
  0x1674	cmp    	word ptr [eax + edi*2], bx
  === BLOCK LINK ===
    0x1678
=== CODE BLOCK END ===

=== CODE BLOCK ADDRESS 0x1678 ===
  0x1678	jne    	0x1671
  === BLOCK LINK ===
    0x167a
=== CODE BLOCK END ===

=== CODE BLOCK ADDRESS 0x167a ===
  0x167a	inc    	esp
  0x167b	mov    	esp, dword ptr [0x5957]
  0x1681	dec    	eax
  0x1682	lea    	eax, [ebp - 0x40]
  0x1685	mov    	ecx, dword ptr [0x5951]
  === BLOCK LINK ===
    0x168b
=== CODE BLOCK END ===

=== CODE BLOCK ADDRESS 0x168b ===
  0x168b	add    	edi, edi
  0x168d	mov    	dword ptr [ebp - 0x70], edi
  0x1690	dec    	eax
  0x1691	mov    	dword ptr [ebp - 0x68], eax
  0x1694	jmp    	0x157c
  === BLOCK LINK ===
    0x1699
=== CODE BLOCK END ===

=== CODE BLOCK ADDRESS 0x1699 ===
  0x1699	mov    	ecx, 0x9d8
  0x169e	call   	0x24c8
  === BLOCK LINK ===
    0x16a3
=== CODE BLOCK END ===

=== CODE BLOCK ADDRESS 0x16a3 ===
  0x16a3	dec    	eax
  0x16a4	mov    	ecx, eax
  0x16a6	call   	0x2308
  === BLOCK LINK ===
    0x16ab
=== CODE BLOCK END ===

=== CODE BLOCK ADDRESS 0x16ab ===
  0x16ab	dec    	eax
  0x16ac	mov    	edx, dword ptr [esp + 0x60]
  0x16b0	mov    	ecx, dword ptr [esp + 0x58]
  0x16b4	call   	0x2274
  === BLOCK LINK ===
    0x16b9
=== CODE BLOCK END ===

=== CODE BLOCK ADDRESS 0x16b9 ===
  0x16b9	xor    	eax, eax
  0x16bb	dec    	eax
  0x16bc	lea    	edi, [ebp - 0x40]
  0x16bf	mov    	ecx, 0x202
  0x16c4	rep stosb  	byte ptr es:[edi], al
  === BLOCK LINK ===
    0x16c6
=== CODE BLOCK END ===

=== CODE BLOCK ADDRESS 0x16c6 ===
  0x16c6	mov    	eax, ebx
  0x16c8	dec    	eax
  0x16c9	mov    	ecx, dword ptr [ebp + 0x5e0]
  0x16cf	dec    	eax
  0x16d0	xor    	ecx, esp
  === BLOCK LINK ===
    0x16d2
=== CODE BLOCK END ===

=== CODE BLOCK ADDRESS 0x16d2 ===
  0x16d2	call   	0x28e0
  === BLOCK LINK ===
    0x16d7
=== CODE BLOCK END ===

=== CODE BLOCK ADDRESS 0x16d7 ===
  0x16d7	dec    	eax
  0x16d8	mov    	ebx, dword ptr [esp + 0x740]
  0x16df	dec    	eax
  0x16e0	add    	esp, 0x6f0
  0x16e6	inc    	ecx
  === BLOCK LINK ===
    0x16e7
=== CODE BLOCK END ===

=== CODE BLOCK ADDRESS 0x16e7 ===
  0x16e7	pop    	edi
  0x16e8	inc    	ecx
  0x16e9	pop    	esi
  0x16ea	inc    	ecx
  0x16eb	pop    	ebp
  === BLOCK LINK ===
    0x16ec
=== CODE BLOCK END ===

=== CODE BLOCK ADDRESS 0x16ec ===
  0x16ec	inc    	ecx
  0x16ed	pop    	esp
  0x16ee	pop    	edi
  0x16ef	pop    	esi
  0x16f0	pop    	ebp
  === BLOCK LINK ===
    0x16f1
=== CODE BLOCK END ===

=== CODE BLOCK ADDRESS 0x16f1 ===
  0x16f1	ret    	
  0x16f2	int3   	
  0x16f3	int3   	
  0x16f4	int3   	
  0x16f5	int3   	
  === BLOCK LINK ===
    0x16f6
=== CODE BLOCK END ===

=== CODE BLOCK ADDRESS 0x16f6 ===
  0x16f6	int3   	
  0x16f7	int3   	
  0x16f8	int3   	
  0x16f9	int3   	
  0x16fa	int3   	
  === BLOCK LINK ===
    0x16fb
=== CODE BLOCK END ===

=== CODE BLOCK ADDRESS 0x16fb ===
  0x16fb	int3   	
  0x16fc	inc    	eax
  0x16fd	push   	ebp
  0x16fe	push   	ebx
  0x16ff	push   	esi
  === BLOCK LINK ===
    0x1700
=== CODE BLOCK END ===

=== CODE BLOCK ADDRESS 0x1700 ===
  0x1700	push   	edi
  0x1701	inc    	ecx
  0x1702	push   	esi
  0x1703	dec    	eax
  0x1704	mov    	ebp, esp
  === BLOCK LINK ===
    0x1706
=== CODE BLOCK END ===

=== CODE BLOCK ADDRESS 0x1706 ===
  0x1706	dec    	eax
  0x1707	sub    	esp, 0x20
  0x170a	inc    	ebp
  0x170b	xor    	esi, esi
  0x170d	cmp    	dword ptr [0x58d0], 2
  === BLOCK LINK ===
    0x1714
=== CODE BLOCK END ===

=== CODE BLOCK ADDRESS 0x1714 ===
  0x1714	inc    	ecx
  0x1715	mov    	edi, esi
  0x1717	inc    	esp
  0x1718	mov    	dword ptr [ebp + 0x30], esi
  0x171b	jge    	0x17ac
  === BLOCK LINK ===
    0x1721
=== CODE BLOCK END ===

=== CODE BLOCK ADDRESS 0x1721 ===
  0x1721	inc    	ecx
  0x1722	mov    	ebx, esi
  0x1724	mov    	edi, 1
  0x1729	mov    	ecx, 0x9da
  0x172e	call   	0x24c8
  === BLOCK LINK ===
    0x1733
=== CODE BLOCK END ===

=== CODE BLOCK ADDRESS 0x1733 ===
  0x1733	dec    	eax
  0x1734	mov    	ecx, eax
  0x1736	call   	0x2308
  === BLOCK LINK ===
    0x173b
=== CODE BLOCK END ===

=== CODE BLOCK ADDRESS 0x173b ===
  0x173b	dec    	esp
  0x173c	lea    	ecx, [ebp + 0x40]
  0x173f	mov    	edx, edi
  0x1741	dec    	esp
  0x1742	lea    	eax, [ebp + 0x30]
  === BLOCK LINK ===
    0x1745
=== CODE BLOCK END ===

=== CODE BLOCK ADDRESS 0x1745 ===
  0x1745	dec    	eax
  0x1746	mov    	ecx, ebx
  0x1748	dec    	eax
  0x1749	call   	dword ptr [0x2bb9]
  === BLOCK LINK ===
    0x174f
=== CODE BLOCK END ===

=== CODE BLOCK ADDRESS 0x174f ===
  0x174f	nop    	dword ptr [eax + eax]
  0x1754	test   	eax, eax
  0x1756	je     	0x1932
  === BLOCK LINK ===
    0x175c
=== CODE BLOCK END ===

=== CODE BLOCK ADDRESS 0x175c ===
  0x175c	inc    	ecx
  0x175d	mov    	edi, esi
  0x175f	inc    	esp
  0x1760	cmp    	dword ptr [ebp + 0x30], esi
  0x1763	jbe    	0x191d
  === BLOCK LINK ===
    0x1769
=== CODE BLOCK END ===

=== CODE BLOCK ADDRESS 0x1769 ===
  0x1769	mov    	ecx, 0x9e4
  0x176e	call   	0x24c8
  === BLOCK LINK ===
    0x1773
=== CODE BLOCK END ===

=== CODE BLOCK ADDRESS 0x1773 ===
  0x1773	dec    	eax
  0x1774	mov    	ecx, eax
  0x1776	call   	0x2308
  === BLOCK LINK ===
    0x177b
=== CODE BLOCK END ===

=== CODE BLOCK ADDRESS 0x177b ===
  0x177b	dec    	eax
  0x177c	mov    	eax, dword ptr [ebp + 0x40]
  0x177f	dec    	eax
  0x1780	lea    	edx, [0x48b2]
  0x1786	mov    	esi, edi
  === BLOCK LINK ===
    0x1788
=== CODE BLOCK END ===

=== CODE BLOCK ADDRESS 0x1788 ===
  0x1788	dec    	eax
  0x1789	mov    	ecx, dword ptr [eax + esi*8]
  0x178c	dec    	eax
  0x178d	mov    	ecx, dword ptr [ecx + 8]
  0x1790	dec    	eax
  === BLOCK LINK ===
    0x1791
=== CODE BLOCK END ===

=== CODE BLOCK ADDRESS 0x1791 ===
  0x1791	call   	dword ptr [0x2bc9]
  === BLOCK LINK ===
    0x1797
=== CODE BLOCK END ===

=== CODE BLOCK ADDRESS 0x1797 ===
  0x1797	nop    	dword ptr [eax + eax]
  0x179c	test   	eax, eax
  0x179e	jne    	0x17d1
  === BLOCK LINK ===
    0x17a0
=== CODE BLOCK END ===

=== CODE BLOCK ADDRESS 0x17a0 ===
  0x17a0	mov    	ecx, 0x9e5
  0x17a5	call   	0x24c8
  === BLOCK LINK ===
    0x17aa
=== CODE BLOCK END ===

=== CODE BLOCK ADDRESS 0x17aa ===
  0x17aa	jmp    	0x17dd
  === BLOCK LINK ===
    0x17ac
=== CODE BLOCK END ===

=== CODE BLOCK ADDRESS 0x17ac ===
  0x17ac	dec    	eax
  0x17ad	mov    	eax, dword ptr [0x5835]
  0x17b3	dec    	eax
  0x17b4	mov    	ebx, dword ptr [eax + 0x10]
  0x17b7	dec    	eax
  === BLOCK LINK ===
    0x17b8
=== CODE BLOCK END ===

=== CODE BLOCK ADDRESS 0x17b8 ===
  0x17b8	test   	ebx, ebx
  0x17ba	je     	0x1724
  === BLOCK LINK ===
    0x17c0
=== CODE BLOCK END ===

=== CODE BLOCK ADDRESS 0x17c0 ===
  0x17c0	dec    	eax
  0x17c1	mov    	dword ptr [0x5851], ebx
  0x17c7	mov    	ecx, 0x9d9
  0x17cc	jmp    	0x172e
  === BLOCK LINK ===
    0x17d1
=== CODE BLOCK END ===

=== CODE BLOCK ADDRESS 0x17d1 ===
  0x17d1	dec    	eax
  0x17d2	mov    	eax, dword ptr [ebp + 0x40]
  0x17d5	dec    	eax
  0x17d6	mov    	ecx, dword ptr [eax + esi*8]
  0x17d9	dec    	eax
  === BLOCK LINK ===
    0x17da
=== CODE BLOCK END ===

=== CODE BLOCK ADDRESS 0x17da ===
  0x17da	mov    	eax, dword ptr [ecx + 8]
  0x17dd	dec    	eax
  0x17de	mov    	ecx, eax
  0x17e0	call   	0x2308
  === BLOCK LINK ===
    0x17e5
=== CODE BLOCK END ===

=== CODE BLOCK ADDRESS 0x17e5 ===
  0x17e5	dec    	eax
  0x17e6	lea    	ecx, [0x2da4]
  0x17ec	call   	0x2308
  === BLOCK LINK ===
    0x17f1
=== CODE BLOCK END ===

=== CODE BLOCK ADDRESS 0x17f1 ===
  0x17f1	dec    	eax
  0x17f2	mov    	eax, dword ptr [ebp + 0x40]
  0x17f5	dec    	eax
  0x17f6	mov    	ecx, dword ptr [eax + esi*8]
  0x17f9	cmp    	dword ptr [ecx + 4], 7
  === BLOCK LINK ===
    0x17fd
=== CODE BLOCK END ===

=== CODE BLOCK ADDRESS 0x17fd ===
  0x17fd	sbb    	eax, eax
  0x17ff	and    	eax, dword ptr [ecx + 4]
  0x1802	dec    	eax
  0x1803	imul   	ecx, eax, 0x82
  0x1809	dec    	eax
  === BLOCK LINK ===
    0x180a
=== CODE BLOCK END ===

=== CODE BLOCK ADDRESS 0x180a ===
  0x180a	lea    	eax, [0x4e10]
  0x1810	dec    	eax
  0x1811	add    	ecx, eax
  0x1813	dec    	eax
  0x1814	mov    	dword ptr [0x57fe], ecx
  === BLOCK LINK ===
    0x181a
=== CODE BLOCK END ===

=== CODE BLOCK ADDRESS 0x181a ===
  0x181a	mov    	ecx, 0x9dd
  0x181f	call   	0x24c8
  === BLOCK LINK ===
    0x1824
=== CODE BLOCK END ===

=== CODE BLOCK ADDRESS 0x1824 ===
  0x1824	dec    	eax
  0x1825	mov    	ecx, eax
  0x1827	call   	0x2308
  === BLOCK LINK ===
    0x182c
=== CODE BLOCK END ===

=== CODE BLOCK ADDRESS 0x182c ===
  0x182c	dec    	eax
  0x182d	mov    	ecx, dword ptr [ebp + 0x40]
  0x1830	dec    	eax
  0x1831	mov    	eax, dword ptr [ecx + esi*8]
  0x1834	dec    	eax
  === BLOCK LINK ===
    0x1835
=== CODE BLOCK END ===

=== CODE BLOCK ADDRESS 0x1835 ===
  0x1835	mov    	ebx, dword ptr [eax + 0x48]
  0x1838	dec    	eax
  0x1839	test   	ebx, ebx
  0x183b	je     	0x18ee
  === BLOCK LINK ===
    0x1841
=== CODE BLOCK END ===

=== CODE BLOCK ADDRESS 0x1841 ===
  0x1841	dec    	eax
  0x1842	or     	eax, 0xffffffff
  0x1845	dec    	eax
  0x1846	inc    	eax
  0x1848	inc    	sp
  === BLOCK LINK ===
    0x184a
=== CODE BLOCK END ===

=== CODE BLOCK ADDRESS 0x184a ===
  0x184a	cmp    	dword ptr [ebx + eax*2], esi
  0x184d	jne    	0x1845
  === BLOCK LINK ===
    0x184f
=== CODE BLOCK END ===

=== CODE BLOCK ADDRESS 0x184f ===
  0x184f	dec    	eax
  0x1850	test   	eax, eax
  0x1852	je     	0x18ee
  === BLOCK LINK ===
    0x1858
=== CODE BLOCK END ===

=== CODE BLOCK ADDRESS 0x1858 ===
  0x1858	dec    	eax
  0x1859	mov    	ecx, ebx
  0x185b	dec    	eax
  0x185c	call   	dword ptr [0x2a9e]
  === BLOCK LINK ===
    0x1862
=== CODE BLOCK END ===

=== CODE BLOCK ADDRESS 0x1862 ===
  0x1862	nop    	dword ptr [eax + eax]
  0x1867	test   	eax, eax
  0x1869	je     	0x18d1
  === BLOCK LINK ===
    0x186b
=== CODE BLOCK END ===

=== CODE BLOCK ADDRESS 0x186b ===
  0x186b	dec    	esp
  0x186c	lea    	eax, [ebp + 0x48]
  0x186f	dec    	esp
  0x1870	mov    	dword ptr [ebp + 0x48], esi
  0x1873	dec    	eax
  === BLOCK LINK ===
    0x1874
=== CODE BLOCK END ===

=== CODE BLOCK ADDRESS 0x1874 ===
  0x1874	lea    	edx, [ebp + 0x38]
  0x1877	dec    	eax
  0x1878	mov    	ecx, ebx
  0x187a	dec    	eax
  0x187b	call   	dword ptr [0x2a8f]
  === BLOCK LINK ===
    0x1881
=== CODE BLOCK END ===

=== CODE BLOCK ADDRESS 0x1881 ===
  0x1881	nop    	dword ptr [eax + eax]
  0x1886	test   	eax, eax
  0x1888	je     	0x18a7
  === BLOCK LINK ===
    0x188a
=== CODE BLOCK END ===

=== CODE BLOCK ADDRESS 0x188a ===
  0x188a	cmp    	dword ptr [ebp + 0x38], 1
  0x188e	jne    	0x18d1
  === BLOCK LINK ===
    0x1890
=== CODE BLOCK END ===

=== CODE BLOCK ADDRESS 0x1890 ===
  0x1890	dec    	eax
  0x1891	mov    	ecx, dword ptr [ebp + 0x48]
  0x1894	dec    	eax
  0x1895	call   	dword ptr [0x2a55]
  === BLOCK LINK ===
    0x189b
=== CODE BLOCK END ===

=== CODE BLOCK ADDRESS 0x189b ===
  0x189b	nop    	dword ptr [eax + eax]
  0x18a0	mov    	ecx, 0x9ef
  0x18a5	jmp    	0x18ac
  === BLOCK LINK ===
    0x18a7
=== CODE BLOCK END ===

=== CODE BLOCK ADDRESS 0x18a7 ===
  0x18a7	mov    	ecx, 0x9ee
  0x18ac	call   	0x24c8
  === BLOCK LINK ===
    0x18b1
=== CODE BLOCK END ===

=== CODE BLOCK ADDRESS 0x18b1 ===
  0x18b1	inc    	ecx
  0x18b2	mov    	ecx, 0x201
  0x18b7	dec    	eax
  0x18b8	lea    	ecx, [0x5302]
  0x18be	dec    	esp
  === BLOCK LINK ===
    0x18bf
=== CODE BLOCK END ===

=== CODE BLOCK ADDRESS 0x18bf ===
  0x18bf	mov    	eax, eax
  0x18c1	inc    	ecx
  0x18c2	lea    	edx, [ecx + 1]
  0x18c5	call   	0x1008
  === BLOCK LINK ===
    0x18ca
=== CODE BLOCK END ===

=== CODE BLOCK ADDRESS 0x18ca ===
  0x18ca	dec    	eax
  0x18cb	lea    	ebx, [0x52ef]
  0x18d1	mov    	ecx, 0x9de
  0x18d6	dec    	eax
  0x18d7	mov    	dword ptr [0x573b], ebx
  === BLOCK LINK ===
    0x18dd
=== CODE BLOCK END ===

=== CODE BLOCK ADDRESS 0x18dd ===
  0x18dd	call   	0x24c8
  === BLOCK LINK ===
    0x18e2
=== CODE BLOCK END ===

=== CODE BLOCK ADDRESS 0x18e2 ===
  0x18e2	dec    	eax
  0x18e3	mov    	ecx, eax
  0x18e5	call   	0x2308
  === BLOCK LINK ===
    0x18ea
=== CODE BLOCK END ===

=== CODE BLOCK ADDRESS 0x18ea ===
  0x18ea	dec    	eax
  0x18eb	mov    	ecx, dword ptr [ebp + 0x40]
  0x18ee	dec    	eax
  0x18ef	mov    	eax, dword ptr [ecx + esi*8]
  0x18f2	mov    	ecx, dword ptr [eax + 0x30]
  === BLOCK LINK ===
    0x18f5
=== CODE BLOCK END ===

=== CODE BLOCK ADDRESS 0x18f5 ===
  0x18f5	cmp    	ecx, 4
  0x18f8	sbb    	eax, eax
  0x18fa	and    	eax, ecx
  0x18fc	dec    	eax
  0x18fd	imul   	ecx, eax, 0x82
  === BLOCK LINK ===
    0x1903
=== CODE BLOCK END ===

=== CODE BLOCK ADDRESS 0x1903 ===
  0x1903	dec    	eax
  0x1904	lea    	eax, [0x50a6]
  0x190a	dec    	eax
  0x190b	add    	ecx, eax
  0x190d	call   	0x2308
  === BLOCK LINK ===
    0x1912
=== CODE BLOCK END ===

=== CODE BLOCK ADDRESS 0x1912 ===
  0x1912	inc    	edi
  0x1914	cmp    	edi, dword ptr [ebp + 0x30]
  0x1917	jb     	0x1769
  === BLOCK LINK ===
    0x191d
=== CODE BLOCK END ===

=== CODE BLOCK ADDRESS 0x191d ===
  0x191d	dec    	eax
  0x191e	mov    	ecx, dword ptr [ebp + 0x40]
  0x1921	dec    	eax
  0x1922	test   	ecx, ecx
  0x1924	je     	0x1932
  === BLOCK LINK ===
    0x1926
=== CODE BLOCK END ===

=== CODE BLOCK ADDRESS 0x1926 ===
  0x1926	dec    	eax
  0x1927	call   	dword ptr [0x29c3]
  === BLOCK LINK ===
    0x192d
=== CODE BLOCK END ===

=== CODE BLOCK ADDRESS 0x192d ===
  0x192d	nop    	dword ptr [eax + eax]
  0x1932	inc    	esp
  0x1933	cmp    	dword ptr [ebp + 0x30], esi
  0x1936	jne    	0x194a
  === BLOCK LINK ===
    0x1938
=== CODE BLOCK END ===

=== CODE BLOCK ADDRESS 0x1938 ===
  0x1938	mov    	ecx, 0x9e0
  0x193d	call   	0x24c8
  === BLOCK LINK ===
    0x1942
=== CODE BLOCK END ===

=== CODE BLOCK ADDRESS 0x1942 ===
  0x1942	dec    	eax
  0x1943	mov    	ecx, eax
  0x1945	call   	0x2308
  === BLOCK LINK ===
    0x194a
=== CODE BLOCK END ===

=== CODE BLOCK ADDRESS 0x194a ===
  0x194a	xor    	eax, eax
  0x194c	dec    	eax
  0x194d	add    	esp, 0x20
  0x1950	inc    	ecx
  0x1951	pop    	esi
  === BLOCK LINK ===
    0x1952
=== CODE BLOCK END ===

=== CODE BLOCK ADDRESS 0x1952 ===
  0x1952	pop    	edi
  0x1953	pop    	esi
  0x1954	pop    	ebx
  0x1955	pop    	ebp
  0x1956	ret    	
  === BLOCK LINK ===
    0x1957
=== CODE BLOCK END ===

=== CODE BLOCK ADDRESS 0x1957 ===
  0x1957	int3   	
  0x1958	int3   	
  0x1959	int3   	
  0x195a	int3   	
  0x195b	int3   	
  === BLOCK LINK ===
    0x195c
=== CODE BLOCK END ===

=== CODE BLOCK ADDRESS 0x195c ===
  0x195c	int3   	
  0x195d	int3   	
  0x195e	int3   	
  0x195f	int3   	
  0x1960	dec    	eax
  === BLOCK LINK ===
    0x1961
=== CODE BLOCK END ===

=== CODE BLOCK ADDRESS 0x1961 ===
  0x1961	mov    	dword ptr [esp + 8], ebx
  0x1965	push   	edi
  0x1966	dec    	eax
  0x1967	sub    	esp, 0x20
  0x196a	or     	ebx, 0xffffffff
  === BLOCK LINK ===
    0x196d
=== CODE BLOCK END ===

=== CODE BLOCK ADDRESS 0x196d ===
  0x196d	cmp    	dword ptr [0x5670], 3
  0x1974	jge    	0x197a
  === BLOCK LINK ===
    0x1976
=== CODE BLOCK END ===

=== CODE BLOCK ADDRESS 0x1976 ===
  0x1976	xor    	eax, eax
  0x1978	jmp    	0x1985
  === BLOCK LINK ===
    0x197a
=== CODE BLOCK END ===

=== CODE BLOCK ADDRESS 0x197a ===
  0x197a	dec    	eax
  0x197b	mov    	eax, dword ptr [0x5667]
  0x1981	dec    	eax
  0x1982	mov    	eax, dword ptr [eax + 0x18]
  0x1985	cmp    	dword ptr [0x5654], 0
  === BLOCK LINK ===
    0x198c
=== CODE BLOCK END ===

=== CODE BLOCK ADDRESS 0x198c ===
  0x198c	dec    	eax
  0x198d	lea    	edi, [0x46a5]
  0x1993	dec    	eax
  0x1994	cmove  	edi, eax
  0x1997	dec    	eax
  === BLOCK LINK ===
    0x1998
=== CODE BLOCK END ===

=== CODE BLOCK ADDRESS 0x1998 ===
  0x1998	test   	edi, edi
  0x199a	jne    	0x19a4
  === BLOCK LINK ===
    0x199c
=== CODE BLOCK END ===

=== CODE BLOCK ADDRESS 0x199c ===
  0x199c	lea    	eax, [edi + 0x57]
  0x199f	jmp    	0x1a8c
  === BLOCK LINK ===
    0x19a4
=== CODE BLOCK END ===

=== CODE BLOCK ADDRESS 0x19a4 ===
  0x19a4	inc    	ebp
  0x19a5	xor    	eax, eax
  0x19a7	dec    	eax
  0x19a8	mov    	ecx, edi
  0x19aa	inc    	ecx
  === BLOCK LINK ===
    0x19ab
=== CODE BLOCK END ===

=== CODE BLOCK ADDRESS 0x19ab ===
  0x19ab	lea    	edx, [eax + 2]
  0x19ae	dec    	eax
  0x19af	call   	dword ptr [0x2963]
  === BLOCK LINK ===
    0x19b5
=== CODE BLOCK END ===

=== CODE BLOCK ADDRESS 0x19b5 ===
  0x19b5	nop    	dword ptr [eax + eax]
  0x19ba	test   	eax, eax
  0x19bc	jne    	0x19d3
  === BLOCK LINK ===
    0x19be
=== CODE BLOCK END ===

=== CODE BLOCK ADDRESS 0x19be ===
  0x19be	dec    	eax
  0x19bf	call   	dword ptr [0x27d3]
  === BLOCK LINK ===
    0x19c5
=== CODE BLOCK END ===

=== CODE BLOCK ADDRESS 0x19c5 ===
  0x19c5	nop    	dword ptr [eax + eax]
  0x19ca	cmp    	eax, 0x57
  0x19cd	je     	0x19d5
  === BLOCK LINK ===
    0x19cf
=== CODE BLOCK END ===

=== CODE BLOCK ADDRESS 0x19cf ===
  0x19cf	mov    	ebx, eax
  0x19d1	jmp    	0x19d5
  === BLOCK LINK ===
    0x19d3
=== CODE BLOCK END ===

=== CODE BLOCK ADDRESS 0x19d3 ===
  0x19d3	xor    	ebx, ebx
  0x19d5	inc    	ebp
  0x19d6	xor    	eax, eax
  0x19d8	dec    	eax
  0x19d9	mov    	ecx, edi
  === BLOCK LINK ===
    0x19db
=== CODE BLOCK END ===

=== CODE BLOCK ADDRESS 0x19db ===
  0x19db	inc    	ecx
  0x19dc	lea    	edx, [eax + 4]
  0x19df	dec    	eax
  0x19e0	call   	dword ptr [0x2932]
  === BLOCK LINK ===
    0x19e6
=== CODE BLOCK END ===

=== CODE BLOCK ADDRESS 0x19e6 ===
  0x19e6	nop    	dword ptr [eax + eax]
  0x19eb	test   	eax, eax
  0x19ed	jne    	0x1a08
  === BLOCK LINK ===
    0x19ef
=== CODE BLOCK END ===

=== CODE BLOCK ADDRESS 0x19ef ===
  0x19ef	dec    	eax
  0x19f0	call   	dword ptr [0x27a2]
  === BLOCK LINK ===
    0x19f6
=== CODE BLOCK END ===

=== CODE BLOCK ADDRESS 0x19f6 ===
  0x19f6	nop    	dword ptr [eax + eax]
  0x19fb	test   	ebx, ebx
  0x19fd	je     	0x1a0a
  === BLOCK LINK ===
    0x19ff
=== CODE BLOCK END ===

=== CODE BLOCK ADDRESS 0x19ff ===
  0x19ff	cmp    	eax, 0x57
  0x1a02	je     	0x1a0a
  === BLOCK LINK ===
    0x1a04
=== CODE BLOCK END ===

=== CODE BLOCK ADDRESS 0x1a04 ===
  0x1a04	mov    	ebx, eax
  0x1a06	jmp    	0x1a0a
  === BLOCK LINK ===
    0x1a08
=== CODE BLOCK END ===

=== CODE BLOCK ADDRESS 0x1a08 ===
  0x1a08	xor    	ebx, ebx
  0x1a0a	inc    	ebp
  0x1a0b	xor    	eax, eax
  0x1a0d	dec    	eax
  0x1a0e	mov    	ecx, edi
  === BLOCK LINK ===
    0x1a10
=== CODE BLOCK END ===

=== CODE BLOCK ADDRESS 0x1a10 ===
  0x1a10	inc    	ecx
  0x1a11	lea    	edx, [eax + 1]
  0x1a14	dec    	eax
  0x1a15	call   	dword ptr [0x28fd]
  === BLOCK LINK ===
    0x1a1b
=== CODE BLOCK END ===

=== CODE BLOCK ADDRESS 0x1a1b ===
  0x1a1b	nop    	dword ptr [eax + eax]
  0x1a20	test   	eax, eax
  0x1a22	jne    	0x1a3d
  === BLOCK LINK ===
    0x1a24
=== CODE BLOCK END ===

=== CODE BLOCK ADDRESS 0x1a24 ===
  0x1a24	dec    	eax
  0x1a25	call   	dword ptr [0x276d]
  === BLOCK LINK ===
    0x1a2b
=== CODE BLOCK END ===

=== CODE BLOCK ADDRESS 0x1a2b ===
  0x1a2b	nop    	dword ptr [eax + eax]
  0x1a30	test   	ebx, ebx
  0x1a32	je     	0x1a3f
  === BLOCK LINK ===
    0x1a34
=== CODE BLOCK END ===

=== CODE BLOCK ADDRESS 0x1a34 ===
  0x1a34	cmp    	eax, 0x57
  0x1a37	je     	0x1a3f
  === BLOCK LINK ===
    0x1a39
=== CODE BLOCK END ===

=== CODE BLOCK ADDRESS 0x1a39 ===
  0x1a39	mov    	ebx, eax
  0x1a3b	jmp    	0x1a3f
  === BLOCK LINK ===
    0x1a3d
=== CODE BLOCK END ===

=== CODE BLOCK ADDRESS 0x1a3d ===
  0x1a3d	xor    	ebx, ebx
  0x1a3f	inc    	ebp
  0x1a40	xor    	eax, eax
  0x1a42	dec    	eax
  0x1a43	mov    	ecx, edi
  === BLOCK LINK ===
    0x1a45
=== CODE BLOCK END ===

=== CODE BLOCK ADDRESS 0x1a45 ===
  0x1a45	inc    	ecx
  0x1a46	lea    	edx, [eax + 3]
  0x1a49	dec    	eax
  0x1a4a	call   	dword ptr [0x28c8]
  === BLOCK LINK ===
    0x1a50
=== CODE BLOCK END ===

=== CODE BLOCK ADDRESS 0x1a50 ===
  0x1a50	nop    	dword ptr [eax + eax]
  0x1a55	test   	eax, eax
  0x1a57	jne    	0x1a72
  === BLOCK LINK ===
    0x1a59
=== CODE BLOCK END ===

=== CODE BLOCK ADDRESS 0x1a59 ===
  0x1a59	dec    	eax
  0x1a5a	call   	dword ptr [0x2738]
  === BLOCK LINK ===
    0x1a60
=== CODE BLOCK END ===

=== CODE BLOCK ADDRESS 0x1a60 ===
  0x1a60	nop    	dword ptr [eax + eax]
  0x1a65	test   	ebx, ebx
  0x1a67	je     	0x1a78
  === BLOCK LINK ===
    0x1a69
=== CODE BLOCK END ===

=== CODE BLOCK ADDRESS 0x1a69 ===
  0x1a69	cmp    	eax, 0x57
  0x1a6c	je     	0x1a74
  === BLOCK LINK ===
    0x1a6e
=== CODE BLOCK END ===

=== CODE BLOCK ADDRESS 0x1a6e ===
  0x1a6e	mov    	ebx, eax
  0x1a70	jmp    	0x1a74
  === BLOCK LINK ===
    0x1a72
=== CODE BLOCK END ===

=== CODE BLOCK ADDRESS 0x1a72 ===
  0x1a72	xor    	ebx, ebx
  0x1a74	test   	ebx, ebx
  0x1a76	jne    	0x1a8a
  === BLOCK LINK ===
    0x1a78
=== CODE BLOCK END ===

=== CODE BLOCK ADDRESS 0x1a78 ===
  0x1a78	mov    	ecx, 0x9e1
  0x1a7d	call   	0x24c8
  === BLOCK LINK ===
    0x1a82
=== CODE BLOCK END ===

=== CODE BLOCK ADDRESS 0x1a82 ===
  0x1a82	dec    	eax
  0x1a83	mov    	ecx, eax
  0x1a85	call   	0x2308
  === BLOCK LINK ===
    0x1a8a
=== CODE BLOCK END ===

=== CODE BLOCK ADDRESS 0x1a8a ===
  0x1a8a	mov    	eax, ebx
  0x1a8c	dec    	eax
  0x1a8d	mov    	ebx, dword ptr [esp + 0x30]
  0x1a91	dec    	eax
  0x1a92	add    	esp, 0x20
  === BLOCK LINK ===
    0x1a95
=== CODE BLOCK END ===

=== CODE BLOCK ADDRESS 0x1a95 ===
  0x1a95	pop    	edi
  0x1a96	ret    	
  0x1a97	int3   	
  0x1a98	int3   	
  0x1a99	int3   	
  === BLOCK LINK ===
    0x1a9a
=== CODE BLOCK END ===

=== CODE BLOCK ADDRESS 0x1044 ===
=== CODE BLOCK END ===

=== CODE BLOCK ADDRESS 0x1a9a ===
  0x1a9a	int3   	
  0x1a9b	int3   	
  0x1a9c	int3   	
  0x1a9d	int3   	
  0x1a9e	int3   	
  === BLOCK LINK ===
    0x1a9f
=== CODE BLOCK END ===

=== CODE BLOCK ADDRESS 0x1a9f ===
  0x1a9f	int3   	
  0x1aa0	inc    	eax
  0x1aa1	push   	ebx
  0x1aa2	dec    	eax
  0x1aa3	sub    	esp, 0x40
  === BLOCK LINK ===
    0x1aa6
=== CODE BLOCK END ===

=== CODE BLOCK ADDRESS 0x1aa6 ===
  0x1aa6	cmp    	dword ptr [0x5523], 0
  0x1aad	je     	0x1ab6
  === BLOCK LINK ===
    0x1aaf
=== CODE BLOCK END ===

=== CODE BLOCK ADDRESS 0x1aaf ===
  0x1aaf	call   	0x13ec
  === BLOCK LINK ===
    0x1ab4
=== CODE BLOCK END ===

=== CODE BLOCK ADDRESS 0x1ab4 ===
  0x1ab4	jmp    	0x1ad8
  === BLOCK LINK ===
    0x1ab6
=== CODE BLOCK END ===

=== CODE BLOCK ADDRESS 0x1ab6 ===
  0x1ab6	cmp    	dword ptr [0x550f], 0
  0x1abd	je     	0x1ac6
  === BLOCK LINK ===
    0x1abf
=== CODE BLOCK END ===

=== CODE BLOCK ADDRESS 0x1abf ===
  0x1abf	call   	0x1960
  === BLOCK LINK ===
    0x1ac4
=== CODE BLOCK END ===

=== CODE BLOCK ADDRESS 0x1ac4 ===
  0x1ac4	jmp    	0x1ad8
  === BLOCK LINK ===
    0x1ac6
=== CODE BLOCK END ===

=== CODE BLOCK ADDRESS 0x1ac6 ===
  0x1ac6	cmp    	dword ptr [0x5507], 0
  0x1acd	je     	0x1b55
  === BLOCK LINK ===
    0x1ad3
=== CODE BLOCK END ===

=== CODE BLOCK ADDRESS 0x1ad3 ===
  0x1ad3	call   	0x16fc
  === BLOCK LINK ===
    0x1ad8
=== CODE BLOCK END ===

=== CODE BLOCK ADDRESS 0x1ad8 ===
  0x1ad8	mov    	ebx, eax
  0x1ada	test   	eax, eax
  0x1adc	je     	0x1b55
  === BLOCK LINK ===
    0x1ade
=== CODE BLOCK END ===

=== CODE BLOCK ADDRESS 0x1ade ===
  0x1ade	mov    	dword ptr [0x54e0], 1
  0x1ae8	cmp    	eax, -1
  0x1aeb	je     	0x1b55
  === BLOCK LINK ===
    0x1aed
=== CODE BLOCK END ===

=== CODE BLOCK ADDRESS 0x1aed ===
  0x1aed	dec    	eax
  0x1aee	and    	dword ptr [esp + 0x60], 0
  0x1af3	mov    	ecx, 0x9d5
  0x1af8	call   	0x24c8
  === BLOCK LINK ===
    0x1afd
=== CODE BLOCK END ===

=== CODE BLOCK ADDRESS 0x1afd ===
  0x1afd	dec    	eax
  0x1afe	mov    	ecx, eax
  0x1b00	call   	0x2308
  === BLOCK LINK ===
    0x1b05
=== CODE BLOCK END ===

=== CODE BLOCK ADDRESS 0x1b05 ===
  0x1b05	dec    	eax
  0x1b06	and    	dword ptr [esp + 0x30], 0
  0x1b0b	dec    	eax
  0x1b0c	lea    	eax, [esp + 0x60]
  0x1b10	mov    	dword ptr [esp + 0x28], 0x1f4
  === BLOCK LINK ===
    0x1b18
=== CODE BLOCK END ===

=== CODE BLOCK ADDRESS 0x1b18 ===
  0x1b18	inc    	ebp
  0x1b19	xor    	ecx, ecx
  0x1b1b	inc    	esp
  0x1b1c	mov    	eax, ebx
  0x1b1e	dec    	eax
  === BLOCK LINK ===
    0x1b1f
=== CODE BLOCK END ===

=== CODE BLOCK ADDRESS 0x1b1f ===
  0x1b1f	mov    	dword ptr [esp + 0x20], eax
  0x1b23	xor    	edx, edx
  0x1b25	mov    	ecx, 0x1300
  0x1b2a	dec    	eax
  0x1b2b	call   	dword ptr [0x26cf]
  === BLOCK LINK ===
    0x1b31
=== CODE BLOCK END ===

=== CODE BLOCK ADDRESS 0x1b31 ===
  0x1b31	nop    	dword ptr [eax + eax]
  0x1b36	test   	eax, eax
  0x1b38	je     	0x1b55
  === BLOCK LINK ===
    0x1b3a
=== CODE BLOCK END ===

=== CODE BLOCK ADDRESS 0x1b3a ===
  0x1b3a	dec    	eax
  0x1b3b	mov    	ecx, dword ptr [esp + 0x60]
  0x1b3f	call   	0x2308
  === BLOCK LINK ===
    0x1b44
=== CODE BLOCK END ===

=== CODE BLOCK ADDRESS 0x1b44 ===
  0x1b44	dec    	eax
  0x1b45	mov    	ecx, dword ptr [esp + 0x60]
  0x1b49	dec    	eax
  0x1b4a	call   	dword ptr [0x2690]
  === BLOCK LINK ===
    0x1b50
=== CODE BLOCK END ===

=== CODE BLOCK ADDRESS 0x1b50 ===
  0x1b50	nop    	dword ptr [eax + eax]
  0x1b55	dec    	eax
  0x1b56	add    	esp, 0x40
  0x1b59	pop    	ebx
  0x1b5a	ret    	
  === BLOCK LINK ===
    0x1b5b
=== CODE BLOCK END ===

=== CODE BLOCK ADDRESS 0x108e ===
  0x108e	dec    	eax
  0x108f	mov    	ebx, dword ptr [esp + 8]
  0x1093	inc    	ecx
  === BLOCK LINK ===
    0x1094
=== CODE BLOCK END ===

=== CODE BLOCK ADDRESS 0x1b5b ===
  0x1b5b	int3   	
  0x1b5c	int3   	
  0x1b5d	int3   	
  0x1b5e	int3   	
  0x1b5f	int3   	
  === BLOCK LINK ===
    0x1b60
=== CODE BLOCK END ===

=== CODE BLOCK ADDRESS 0x1b60 ===
  0x1b60	int3   	
  0x1b61	int3   	
  0x1b62	int3   	
  0x1b63	int3   	
  0x1b64	dec    	eax
  === BLOCK LINK ===
    0x1b65
=== CODE BLOCK END ===

=== CODE BLOCK ADDRESS 0x1b65 ===
  0x1b65	mov    	eax, esp
  0x1b67	dec    	eax
  0x1b68	mov    	dword ptr [eax + 8], ebx
  0x1b6b	dec    	eax
  0x1b6c	mov    	dword ptr [eax + 0x10], ebp
  === BLOCK LINK ===
    0x1b6f
=== CODE BLOCK END ===

=== CODE BLOCK ADDRESS 0x1b6f ===
  0x1b6f	dec    	eax
  0x1b70	mov    	dword ptr [eax + 0x18], esi
  0x1b73	dec    	eax
  0x1b74	mov    	dword ptr [eax + 0x20], edi
  0x1b77	inc    	ecx
  === BLOCK LINK ===
    0x1b78
=== CODE BLOCK END ===

=== CODE BLOCK ADDRESS 0x1b78 ===
  0x1b78	push   	esp
  0x1b79	inc    	ecx
  0x1b7a	push   	esi
  0x1b7b	inc    	ecx
  0x1b7c	push   	edi
  === BLOCK LINK ===
    0x1b7d
=== CODE BLOCK END ===

=== CODE BLOCK ADDRESS 0x1b7d ===
  0x1b7d	dec    	eax
  0x1b7e	sub    	esp, 0x20
  0x1b81	inc    	ebp
  0x1b82	xor    	edi, edi
  0x1b84	dec    	eax
  === BLOCK LINK ===
    0x1b85
=== CODE BLOCK END ===

=== CODE BLOCK ADDRESS 0x1b85 ===
  0x1b85	mov    	ebp, edx
  0x1b87	inc    	esp
  0x1b88	mov    	esi, ecx
  0x1b8a	inc    	ebp
  0x1b8b	xor    	ecx, ecx
  === BLOCK LINK ===
    0x1b8d
=== CODE BLOCK END ===

=== CODE BLOCK ADDRESS 0x1b8d ===
  0x1b8d	inc    	ebp
  0x1b8e	xor    	eax, eax
  0x1b90	xor    	ecx, ecx
  0x1b92	inc    	ecx
  0x1b93	mov    	ebx, edi
  === BLOCK LINK ===
    0x1b95
=== CODE BLOCK END ===

=== CODE BLOCK ADDRESS 0x1b95 ===
  0x1b95	inc    	ebp
  0x1b96	lea    	esp, [edi + 1]
  0x1b99	inc    	ecx
  0x1b9a	mov    	edx, esp
  0x1b9c	dec    	eax
  === BLOCK LINK ===
    0x1b9d
=== CODE BLOCK END ===

=== CODE BLOCK ADDRESS 0x1b9d ===
  0x1b9d	call   	dword ptr [0x262d]
  === BLOCK LINK ===
    0x1ba3
=== CODE BLOCK END ===

=== CODE BLOCK ADDRESS 0x1ba3 ===
  0x1ba3	nop    	dword ptr [eax + eax]
  0x1ba8	xor    	ecx, ecx
  0x1baa	dec    	eax
  0x1bab	call   	dword ptr [0x2657]
  === BLOCK LINK ===
    0x1bb1
=== CODE BLOCK END ===

=== CODE BLOCK ADDRESS 0x1bb1 ===
  0x1bb1	nop    	dword ptr [eax + eax]
  0x1bb6	call   	0x10a0
  === BLOCK LINK ===
    0x1bbb
=== CODE BLOCK END ===

=== CODE BLOCK ADDRESS 0x1bbb ===
  0x1bbb	test   	eax, eax
  0x1bbd	jne    	0x1bd9
  === BLOCK LINK ===
    0x1bbf
=== CODE BLOCK END ===

=== CODE BLOCK ADDRESS 0x1bbf ===
  0x1bbf	dec    	eax
  0x1bc0	mov    	ecx, dword ptr [0x544a]
  0x1bc6	dec    	eax
  0x1bc7	test   	ecx, ecx
  0x1bc9	je     	0x1be9
  === BLOCK LINK ===
    0x1bcb
=== CODE BLOCK END ===

=== CODE BLOCK ADDRESS 0x1bcb ===
  0x1bcb	dec    	eax
  0x1bcc	call   	dword ptr [0x2786]
  === BLOCK LINK ===
    0x1bd2
=== CODE BLOCK END ===

=== CODE BLOCK ADDRESS 0x1bd2 ===
  0x1bd2	nop    	dword ptr [eax + eax]
  0x1bd7	jmp    	0x1be9
  === BLOCK LINK ===
    0x1bd9
=== CODE BLOCK END ===

=== CODE BLOCK ADDRESS 0x1bd9 ===
  0x1bd9	dec    	eax
  0x1bda	lea    	ecx, [0x4440]
  0x1be0	call   	0x1f30
  === BLOCK LINK ===
    0x1be5
=== CODE BLOCK END ===

=== CODE BLOCK ADDRESS 0x1be5 ===
  0x1be5	test   	eax, eax
  0x1be7	jne    	0x1bf1
  === BLOCK LINK ===
    0x1be9
=== CODE BLOCK END ===

=== CODE BLOCK ADDRESS 0x1be9 ===
  0x1be9	inc    	ecx
  0x1bea	mov    	eax, esp
  0x1bec	jmp    	0x1f09
  === BLOCK LINK ===
    0x1bf1
=== CODE BLOCK END ===

=== CODE BLOCK ADDRESS 0x1bf1 ===
  0x1bf1	mov    	dword ptr [0x4455], 3
  0x1bfb	call   	0x2014
  === BLOCK LINK ===
    0x1c00
=== CODE BLOCK END ===

=== CODE BLOCK ADDRESS 0x1c00 ===
  0x1c00	test   	eax, eax
  0x1c02	jne    	0x1c22
  === BLOCK LINK ===
    0x1c04
=== CODE BLOCK END ===

=== CODE BLOCK ADDRESS 0x1c04 ===
  0x1c04	mov    	ecx, 0x9e6
  0x1c09	call   	0x24c8
  === BLOCK LINK ===
    0x1c0e
=== CODE BLOCK END ===

=== CODE BLOCK ADDRESS 0x1c0e ===
  0x1c0e	dec    	eax
  0x1c0f	mov    	ecx, eax
  0x1c11	call   	0x2308
  === BLOCK LINK ===
    0x1c16
=== CODE BLOCK END ===

=== CODE BLOCK ADDRESS 0x1c16 ===
  0x1c16	inc    	esp
  0x1c17	mov    	dword ptr [0x53ab], esp
  0x1c1d	jmp    	0x1e8c
  === BLOCK LINK ===
    0x1c22
=== CODE BLOCK END ===

=== CODE BLOCK ADDRESS 0x1c22 ===
  0x1c22	dec    	eax
  0x1c23	mov    	ecx, dword ptr [0x53cf]
  0x1c29	inc    	ebp
  0x1c2a	mov    	eax, edi
  0x1c2c	inc    	ecx
  === BLOCK LINK ===
    0x1c2d
=== CODE BLOCK END ===

=== CODE BLOCK ADDRESS 0x1c2d ===
  0x1c2d	mov    	edx, edi
  0x1c2f	movzx  	eax, word ptr [ecx]
  0x1c32	inc    	ebp
  0x1c33	test   	eax, eax
  0x1c35	je     	0x1c3d
  === BLOCK LINK ===
    0x1c37
=== CODE BLOCK END ===

=== CODE BLOCK ADDRESS 0x1c37 ===
  0x1c37	cmp    	ax, 0x22
  0x1c3b	je     	0x1c5e
  === BLOCK LINK ===
    0x1c3d
=== CODE BLOCK END ===

=== CODE BLOCK ADDRESS 0x1c3d ===
  0x1c3d	cmp    	ax, 0x22
  0x1c41	jne    	0x1c48
  === BLOCK LINK ===
    0x1c43
=== CODE BLOCK END ===

=== CODE BLOCK ADDRESS 0x1c43 ===
  0x1c43	inc    	ebp
  0x1c44	mov    	eax, esp
  0x1c46	jmp    	0x1c58
  === BLOCK LINK ===
    0x1c48
=== CODE BLOCK END ===

=== CODE BLOCK ADDRESS 0x1c48 ===
  0x1c48	test   	ax, ax
  0x1c4b	je     	0x1c81
  === BLOCK LINK ===
    0x1c4d
=== CODE BLOCK END ===

=== CODE BLOCK ADDRESS 0x1c4d ===
  0x1c4d	cmp    	ax, 0x20
  0x1c51	ja     	0x1c58
  === BLOCK LINK ===
    0x1c53
=== CODE BLOCK END ===

=== CODE BLOCK ADDRESS 0x1c53 ===
  0x1c53	inc    	ebp
  0x1c54	test   	eax, eax
  0x1c56	je     	0x1c68
  === BLOCK LINK ===
    0x1c58
=== CODE BLOCK END ===

=== CODE BLOCK ADDRESS 0x1c58 ===
  0x1c58	dec    	eax
  0x1c59	add    	ecx, 2
  0x1c5c	jmp    	0x1c2f
  === BLOCK LINK ===
    0x1c5e
=== CODE BLOCK END ===

=== CODE BLOCK ADDRESS 0x1c5e ===
  0x1c5e	dec    	eax
  0x1c5f	add    	ecx, 2
  0x1c62	inc    	ebp
  0x1c63	mov    	eax, edi
  0x1c65	movzx  	eax, word ptr [ecx]
  === BLOCK LINK ===
    0x1c68
=== CODE BLOCK END ===

=== CODE BLOCK ADDRESS 0x1c68 ===
  0x1c68	inc    	ecx
  0x1c69	add    	edx, esp
  0x1c6b	jmp    	0x1c79
  === BLOCK LINK ===
    0x1c6d
=== CODE BLOCK END ===

=== CODE BLOCK ADDRESS 0x1c6d ===
  0x1c6d	test   	ax, ax
  0x1c70	je     	0x1c83
  === BLOCK LINK ===
    0x1c72
=== CODE BLOCK END ===

=== CODE BLOCK ADDRESS 0x1c72 ===
  0x1c72	dec    	eax
  0x1c73	add    	ecx, 2
  0x1c76	movzx  	eax, word ptr [ecx]
  0x1c79	cmp    	ax, 0x20
  0x1c7d	jbe    	0x1c6d
  === BLOCK LINK ===
    0x1c7f
=== CODE BLOCK END ===

=== CODE BLOCK ADDRESS 0x1c7f ===
  0x1c7f	jmp    	0x1c2f
  === BLOCK LINK ===
    0x1c81
=== CODE BLOCK END ===

=== CODE BLOCK ADDRESS 0x1c81 ===
  0x1c81	inc    	edx
  0x1c83	inc    	ecx
  0x1c84	cmp    	edx, esp
  0x1c86	jne    	0x1ca4
  === BLOCK LINK ===
    0x1c88
=== CODE BLOCK END ===

=== CODE BLOCK ADDRESS 0x1c88 ===
  0x1c88	mov    	ecx, 0x9ed
  0x1c8d	call   	0x24c8
  === BLOCK LINK ===
    0x1c92
=== CODE BLOCK END ===

=== CODE BLOCK ADDRESS 0x1c92 ===
  0x1c92	dec    	eax
  0x1c93	mov    	ecx, eax
  0x1c95	call   	0x2308
  === BLOCK LINK ===
    0x1c9a
=== CODE BLOCK END ===

=== CODE BLOCK ADDRESS 0x1c9a ===
  0x1c9a	mov    	ecx, 0x9e2
  0x1c9f	jmp    	0x1c09
  === BLOCK LINK ===
    0x1ca4
=== CODE BLOCK END ===

=== CODE BLOCK ADDRESS 0x1ca4 ===
  0x1ca4	mov    	ecx, dword ptr [0x533a]
  0x1caa	dec    	eax
  0x1cab	mov    	eax, dword ptr [0x5357]
  0x1cb1	cmp    	ecx, 4
  0x1cb4	jl     	0x1cbc
  === BLOCK LINK ===
    0x1cb6
=== CODE BLOCK END ===

=== CODE BLOCK ADDRESS 0x1cb6 ===
  0x1cb6	inc    	esp
  0x1cb7	cmp    	dword ptr [eax + 0x10], edi
  0x1cba	jne    	0x1c88
  === BLOCK LINK ===
    0x1cbc
=== CODE BLOCK END ===

=== CODE BLOCK ADDRESS 0x1cbc ===
  0x1cbc	inc    	esp
  0x1cbd	cmp    	dword ptr [0x532d], edi
  0x1cc3	je     	0x1ccc
  === BLOCK LINK ===
    0x1cc5
=== CODE BLOCK END ===

=== CODE BLOCK ADDRESS 0x1cc5 ===
  0x1cc5	mov    	ecx, 0x9e3
  0x1cca	jmp    	0x1c8d
  === BLOCK LINK ===
    0x1ccc
=== CODE BLOCK END ===

=== CODE BLOCK ADDRESS 0x1ccc ===
  0x1ccc	inc    	ecx
  0x1ccd	mov    	edx, edi
  0x1ccf	test   	ecx, ecx
  0x1cd1	js     	0x1cd5
  === BLOCK LINK ===
    0x1cd3
=== CODE BLOCK END ===

=== CODE BLOCK ADDRESS 0x1cd3 ===
  0x1cd3	mov    	edx, dword ptr [eax]
  0x1cd5	mov    	dword ptr [0x52f5], edx
  0x1cdb	inc    	ecx
  0x1cdc	mov    	esi, edi
  0x1cde	cmp    	ecx, 8
  === BLOCK LINK ===
    0x1ce1
=== CODE BLOCK END ===

=== CODE BLOCK ADDRESS 0x1ce1 ===
  0x1ce1	jl     	0x1ce6
  === BLOCK LINK ===
    0x1ce3
=== CODE BLOCK END ===

=== CODE BLOCK ADDRESS 0x1ce3 ===
  0x1ce3	mov    	esi, dword ptr [eax + 0x20]
  0x1ce6	mov    	dword ptr [0x52f0], esi
  0x1cec	inc    	ecx
  0x1ced	mov    	edi, edi
  0x1cef	cmp    	ecx, 3
  === BLOCK LINK ===
    0x1cf2
=== CODE BLOCK END ===

=== CODE BLOCK ADDRESS 0x1cf2 ===
  0x1cf2	jl     	0x1cf7
  === BLOCK LINK ===
    0x1cf4
=== CODE BLOCK END ===

=== CODE BLOCK ADDRESS 0x1cf4 ===
  0x1cf4	mov    	edi, dword ptr [eax + 0xc]
  0x1cf7	mov    	dword ptr [0x52cf], edi
  0x1cfd	inc    	ebp
  0x1cfe	mov    	eax, edi
  0x1d00	inc    	ecx
  === BLOCK LINK ===
    0x1d01
=== CODE BLOCK END ===

=== CODE BLOCK ADDRESS 0x1d01 ===
  0x1d01	cmp    	ecx, esp
  0x1d03	jl     	0x1d09
  === BLOCK LINK ===
    0x1d05
=== CODE BLOCK END ===

=== CODE BLOCK ADDRESS 0x1d05 ===
  0x1d05	inc    	esp
  0x1d06	mov    	eax, dword ptr [eax + 4]
  0x1d09	inc    	esp
  0x1d0a	mov    	dword ptr [0x52c8], eax
  0x1d10	inc    	ebp
  === BLOCK LINK ===
    0x1d11
=== CODE BLOCK END ===

=== CODE BLOCK ADDRESS 0x1d11 ===
  0x1d11	mov    	edx, edi
  0x1d13	cmp    	ecx, 2
  0x1d16	jl     	0x1d1c
  === BLOCK LINK ===
    0x1d18
=== CODE BLOCK END ===

=== CODE BLOCK ADDRESS 0x1d18 ===
  0x1d18	inc    	esp
  0x1d19	mov    	edx, dword ptr [eax + 8]
  0x1d1c	inc    	esp
  0x1d1d	mov    	dword ptr [0x52b1], edx
  0x1d23	inc    	ebp
  === BLOCK LINK ===
    0x1d24
=== CODE BLOCK END ===

=== CODE BLOCK ADDRESS 0x1d24 ===
  0x1d24	mov    	ecx, edi
  0x1d26	cmp    	ecx, 5
  0x1d29	jl     	0x1d2f
  === BLOCK LINK ===
    0x1d2b
=== CODE BLOCK END ===

=== CODE BLOCK ADDRESS 0x1d2b ===
  0x1d2b	inc    	esp
  0x1d2c	mov    	ecx, dword ptr [eax + 0x14]
  0x1d2f	inc    	esp
  0x1d30	mov    	dword ptr [0x52aa], ecx
  0x1d36	inc    	ebp
  === BLOCK LINK ===
    0x1d37
=== CODE BLOCK END ===

=== CODE BLOCK ADDRESS 0x1d37 ===
  0x1d37	mov    	ebx, edi
  0x1d39	cmp    	ecx, 6
  0x1d3c	jl     	0x1d42
  === BLOCK LINK ===
    0x1d3e
=== CODE BLOCK END ===

=== CODE BLOCK ADDRESS 0x1d3e ===
  0x1d3e	inc    	esp
  0x1d3f	mov    	ebx, dword ptr [eax + 0x18]
  0x1d42	inc    	esp
  0x1d43	cmp    	dword ptr [0x4303], edi
  0x1d49	inc    	esp
  === BLOCK LINK ===
    0x1d4a
=== CODE BLOCK END ===

=== CODE BLOCK ADDRESS 0x1d4a ===
  0x1d4a	mov    	dword ptr [0x5274], ebx
  0x1d50	jl     	0x1de3
  === BLOCK LINK ===
    0x1d56
=== CODE BLOCK END ===

=== CODE BLOCK ADDRESS 0x1d56 ===
  0x1d56	dec    	eax
  0x1d57	mov    	eax, dword ptr [0x528b]
  0x1d5d	test   	edx, edx
  0x1d5f	je     	0x1d87
  === BLOCK LINK ===
    0x1d61
=== CODE BLOCK END ===

=== CODE BLOCK ADDRESS 0x1d61 ===
  0x1d61	test   	ecx, ecx
  0x1d63	js     	0x1d6a
  === BLOCK LINK ===
    0x1d65
=== CODE BLOCK END ===

=== CODE BLOCK ADDRESS 0x1d65 ===
  0x1d65	dec    	esp
  0x1d66	cmp    	dword ptr [eax], edi
  0x1d68	jne    	0x1d6d
  === BLOCK LINK ===
    0x1d6a
=== CODE BLOCK END ===

=== CODE BLOCK ADDRESS 0x1d6a ===
  0x1d6a	inc    	ecx
  0x1d6b	mov    	ebx, esp
  0x1d6d	test   	edi, edi
  0x1d6f	jne    	0x1d80
  === BLOCK LINK ===
    0x1d71
=== CODE BLOCK END ===

=== CODE BLOCK ADDRESS 0x1d71 ===
  0x1d71	inc    	ebp
  0x1d72	test   	edx, edx
  0x1d74	jne    	0x1d80
  === BLOCK LINK ===
    0x1d76
=== CODE BLOCK END ===

=== CODE BLOCK ADDRESS 0x1d76 ===
  0x1d76	inc    	ebp
  0x1d77	test   	eax, eax
  0x1d79	jne    	0x1d80
  === BLOCK LINK ===
    0x1d7b
=== CODE BLOCK END ===

=== CODE BLOCK ADDRESS 0x1d7b ===
  0x1d7b	inc    	ebp
  0x1d7c	test   	ecx, ecx
  0x1d7e	je     	0x1d83
  === BLOCK LINK ===
    0x1d80
=== CODE BLOCK END ===

=== CODE BLOCK ADDRESS 0x1d80 ===
  0x1d80	inc    	ecx
  0x1d81	mov    	ebx, esp
  0x1d83	test   	ebx, ebx
  0x1d85	jne    	0x1de3
  === BLOCK LINK ===
    0x1d87
=== CODE BLOCK END ===

=== CODE BLOCK ADDRESS 0x1d87 ===
  0x1d87	test   	edi, edi
  0x1d89	je     	0x1dc7
  === BLOCK LINK ===
    0x1d8b
=== CODE BLOCK END ===

=== CODE BLOCK ADDRESS 0x1d8b ===
  0x1d8b	inc    	ebp
  0x1d8c	test   	ecx, ecx
  0x1d8e	jne    	0x1da0
  === BLOCK LINK ===
    0x1d90
=== CODE BLOCK END ===

=== CODE BLOCK ADDRESS 0x1d90 ===
  0x1d90	cmp    	ecx, 3
  0x1d93	jl     	0x1d9b
  === BLOCK LINK ===
    0x1d95
=== CODE BLOCK END ===

=== CODE BLOCK ADDRESS 0x1d95 ===
  0x1d95	dec    	esp
  0x1d96	cmp    	dword ptr [eax + 0x18], edi
  0x1d99	jne    	0x1dad
  === BLOCK LINK ===
    0x1d9b
=== CODE BLOCK END ===

=== CODE BLOCK ADDRESS 0x1d9b ===
  0x1d9b	inc    	ecx
  0x1d9c	mov    	ebx, esp
  0x1d9e	jmp    	0x1dad
  === BLOCK LINK ===
    0x1da0
=== CODE BLOCK END ===

=== CODE BLOCK ADDRESS 0x1da0 ===
  0x1da0	cmp    	ecx, 3
  0x1da3	jl     	0x1dad
  === BLOCK LINK ===
    0x1da5
=== CODE BLOCK END ===

=== CODE BLOCK ADDRESS 0x1da5 ===
  0x1da5	dec    	esp
  0x1da6	cmp    	dword ptr [eax + 0x18], edi
  0x1da9	inc    	ecx
  0x1daa	cmovne  	ebx, esp
  0x1dad	test   	edx, edx
  === BLOCK LINK ===
    0x1daf
=== CODE BLOCK END ===

=== CODE BLOCK ADDRESS 0x1daf ===
  0x1daf	jne    	0x1dc0
  === BLOCK LINK ===
    0x1db1
=== CODE BLOCK END ===

=== CODE BLOCK ADDRESS 0x1db1 ===
  0x1db1	inc    	ebp
  0x1db2	test   	edx, edx
  0x1db4	jne    	0x1dc0
  === BLOCK LINK ===
    0x1db6
=== CODE BLOCK END ===

=== CODE BLOCK ADDRESS 0x1db6 ===
  0x1db6	inc    	ebp
  0x1db7	test   	eax, eax
  0x1db9	jne    	0x1dc0
  === BLOCK LINK ===
    0x1dbb
=== CODE BLOCK END ===

=== CODE BLOCK ADDRESS 0x1dbb ===
  0x1dbb	inc    	ebp
  0x1dbc	test   	ebx, ebx
  0x1dbe	je     	0x1dc3
  === BLOCK LINK ===
    0x1dc0
=== CODE BLOCK END ===

=== CODE BLOCK ADDRESS 0x1dc0 ===
  0x1dc0	inc    	ecx
  0x1dc1	mov    	ebx, esp
  0x1dc3	test   	ebx, ebx
  0x1dc5	jne    	0x1de3
  === BLOCK LINK ===
    0x1dc7
=== CODE BLOCK END ===

=== CODE BLOCK ADDRESS 0x1dc7 ===
  0x1dc7	inc    	ebp
  0x1dc8	test   	edx, edx
  0x1dca	je     	0x1e15
  === BLOCK LINK ===
    0x1dcc
=== CODE BLOCK END ===

=== CODE BLOCK ADDRESS 0x1dcc ===
  0x1dcc	test   	edi, edi
  0x1dce	jne    	0x1de3
  === BLOCK LINK ===
    0x1dd0
=== CODE BLOCK END ===

=== CODE BLOCK ADDRESS 0x1dd0 ===
  0x1dd0	test   	edx, edx
  0x1dd2	jne    	0x1de3
  === BLOCK LINK ===
    0x1dd4
=== CODE BLOCK END ===

=== CODE BLOCK ADDRESS 0x1dd4 ===
  0x1dd4	inc    	ebp
  0x1dd5	test   	eax, eax
  0x1dd7	jne    	0x1de3
  === BLOCK LINK ===
    0x1dd9
=== CODE BLOCK END ===

=== CODE BLOCK ADDRESS 0x1dd9 ===
  0x1dd9	inc    	ebp
  0x1dda	test   	ebx, ebx
  0x1ddc	jne    	0x1de3
  === BLOCK LINK ===
    0x1dde
=== CODE BLOCK END ===

=== CODE BLOCK ADDRESS 0x1dde ===
  0x1dde	inc    	ebp
  0x1ddf	test   	ecx, ecx
  0x1de1	je     	0x1e58
  === BLOCK LINK ===
    0x1de3
=== CODE BLOCK END ===

=== CODE BLOCK ADDRESS 0x1de3 ===
  0x1de3	mov    	ecx, 0x9e3
  0x1de8	call   	0x24c8
  === BLOCK LINK ===
    0x1ded
=== CODE BLOCK END ===

=== CODE BLOCK ADDRESS 0x1ded ===
  0x1ded	dec    	eax
  0x1dee	mov    	ecx, eax
  0x1df0	call   	0x2308
  === BLOCK LINK ===
    0x1df5
=== CODE BLOCK END ===

=== CODE BLOCK ADDRESS 0x1df5 ===
  0x1df5	mov    	ecx, dword ptr [0x4251]
  0x1dfb	test   	ecx, ecx
  0x1dfd	je     	0x1e7a
  === BLOCK LINK ===
    0x1dff
=== CODE BLOCK END ===

=== CODE BLOCK ADDRESS 0x1dff ===
  0x1dff	inc    	ecx
  0x1e00	sub    	ecx, esp
  0x1e02	je     	0x1e73
  === BLOCK LINK ===
    0x1e04
=== CODE BLOCK END ===

=== CODE BLOCK ADDRESS 0x1e04 ===
  0x1e04	inc    	ecx
  0x1e05	sub    	ecx, esp
  0x1e07	je     	0x1e6c
  === BLOCK LINK ===
    0x1e09
=== CODE BLOCK END ===

=== CODE BLOCK ADDRESS 0x1e09 ===
  0x1e09	inc    	ecx
  0x1e0a	cmp    	ecx, esp
  0x1e0c	je     	0x1e65
  === BLOCK LINK ===
    0x1e0e
=== CODE BLOCK END ===

=== CODE BLOCK ADDRESS 0x1e0e ===
  0x1e0e	mov    	ecx, 0x9e2
  0x1e13	jmp    	0x1e7f
  === BLOCK LINK ===
    0x1e15
=== CODE BLOCK END ===

=== CODE BLOCK ADDRESS 0x1e15 ===
  0x1e15	inc    	ebp
  0x1e16	test   	eax, eax
  0x1e18	je     	0x1e3b
  === BLOCK LINK ===
    0x1e1a
=== CODE BLOCK END ===

=== CODE BLOCK ADDRESS 0x1e1a ===
  0x1e1a	inc    	ecx
  0x1e1b	cmp    	ecx, esp
  0x1e1d	jl     	0x1e25
  === BLOCK LINK ===
    0x1e1f
=== CODE BLOCK END ===

=== CODE BLOCK ADDRESS 0x1e1f ===
  0x1e1f	dec    	esp
  0x1e20	cmp    	dword ptr [eax + 8], edi
  0x1e23	jne    	0x1e28
  === BLOCK LINK ===
    0x1e25
=== CODE BLOCK END ===

=== CODE BLOCK ADDRESS 0x1e25 ===
  0x1e25	inc    	ecx
  0x1e26	mov    	ebx, esp
  0x1e28	test   	edx, edx
  0x1e2a	inc    	ecx
  0x1e2b	cmovne  	ebx, esp
  === BLOCK LINK ===
    0x1e2e
=== CODE BLOCK END ===

=== CODE BLOCK ADDRESS 0x1e2e ===
  0x1e2e	test   	ebx, ebx
  0x1e30	jne    	0x1de3
  === BLOCK LINK ===
    0x1e32
=== CODE BLOCK END ===

=== CODE BLOCK ADDRESS 0x1e32 ===
  0x1e32	inc    	esp
  0x1e33	mov    	dword ptr [0x5197], esp
  0x1e39	jmp    	0x1e3f
  === BLOCK LINK ===
    0x1e3b
=== CODE BLOCK END ===

=== CODE BLOCK ADDRESS 0x1e3b ===
  0x1e3b	test   	edx, edx
  0x1e3d	je     	0x1e58
  === BLOCK LINK ===
    0x1e3f
=== CODE BLOCK END ===

=== CODE BLOCK ADDRESS 0x1e3f ===
  0x1e3f	cmp    	ecx, 6
  0x1e42	jl     	0x1e4a
  === BLOCK LINK ===
    0x1e44
=== CODE BLOCK END ===

=== CODE BLOCK ADDRESS 0x1e44 ===
  0x1e44	dec    	esp
  0x1e45	cmp    	dword ptr [eax + 0x30], edi
  0x1e48	jne    	0x1e58
  === BLOCK LINK ===
    0x1e4a
=== CODE BLOCK END ===

=== CODE BLOCK ADDRESS 0x1e4a ===
  0x1e4a	test   	esi, esi
  0x1e4c	jne    	0x1e58
  === BLOCK LINK ===
    0x1e4e
=== CODE BLOCK END ===

=== CODE BLOCK ADDRESS 0x1e4e ===
  0x1e4e	mov    	ecx, 0x9ec
  0x1e53	jmp    	0x1c09
  === BLOCK LINK ===
    0x1e58
=== CODE BLOCK END ===

=== CODE BLOCK ADDRESS 0x1e58 ===
  0x1e58	dec    	eax
  0x1e59	mov    	edx, ebp
  0x1e5b	inc    	ecx
  0x1e5c	mov    	ecx, esi
  0x1e5e	call   	0x1aa0
  === BLOCK LINK ===
    0x1e63
=== CODE BLOCK END ===

=== CODE BLOCK ADDRESS 0x1e63 ===
  0x1e63	jmp    	0x1e8c
  === BLOCK LINK ===
    0x1e65
=== CODE BLOCK END ===

=== CODE BLOCK ADDRESS 0x1e65 ===
  0x1e65	mov    	ecx, 0x9ea
  0x1e6a	jmp    	0x1e7f
  === BLOCK LINK ===
    0x1e6c
=== CODE BLOCK END ===

=== CODE BLOCK ADDRESS 0x1e6c ===
  0x1e6c	mov    	ecx, 0x9eb
  0x1e71	jmp    	0x1e7f
  === BLOCK LINK ===
    0x1e73
=== CODE BLOCK END ===

=== CODE BLOCK ADDRESS 0x1e73 ===
  0x1e73	mov    	ecx, 0x9e8
  0x1e78	jmp    	0x1e7f
  === BLOCK LINK ===
    0x1e7a
=== CODE BLOCK END ===

=== CODE BLOCK ADDRESS 0x1e7a ===
  0x1e7a	mov    	ecx, 0x9e7
  0x1e7f	call   	0x24c8
  === BLOCK LINK ===
    0x1e84
=== CODE BLOCK END ===

=== CODE BLOCK ADDRESS 0x1e84 ===
  0x1e84	dec    	eax
  0x1e85	mov    	ecx, eax
  0x1e87	call   	0x2308
  === BLOCK LINK ===
    0x1e8c
=== CODE BLOCK END ===

=== CODE BLOCK ADDRESS 0x1e8c ===
  0x1e8c	mov    	eax, dword ptr [0x5152]
  0x1e92	dec    	eax
  0x1e93	mov    	ebx, dword ptr [0x514f]
  0x1e99	test   	eax, eax
  0x1e9b	jle    	0x1ebf
  === BLOCK LINK ===
    0x1e9d
=== CODE BLOCK END ===

=== CODE BLOCK ADDRESS 0x1e9d ===
  0x1e9d	dec    	eax
  0x1e9e	mov    	edi, ebx
  0x1ea0	mov    	esi, eax
  0x1ea2	dec    	eax
  0x1ea3	mov    	ecx, dword ptr [edi]
  === BLOCK LINK ===
    0x1ea5
=== CODE BLOCK END ===

=== CODE BLOCK ADDRESS 0x1ea5 ===
  0x1ea5	dec    	eax
  0x1ea6	test   	ecx, ecx
  0x1ea8	je     	0x1eb6
  === BLOCK LINK ===
    0x1eaa
=== CODE BLOCK END ===

=== CODE BLOCK ADDRESS 0x1eaa ===
  0x1eaa	dec    	eax
  0x1eab	call   	dword ptr [0x24a7]
  === BLOCK LINK ===
    0x1eb1
=== CODE BLOCK END ===

=== CODE BLOCK ADDRESS 0x1eb1 ===
  0x1eb1	nop    	dword ptr [eax + eax]
  0x1eb6	dec    	eax
  0x1eb7	add    	edi, 8
  0x1eba	dec    	ecx
  0x1ebb	sub    	esi, esp
  === BLOCK LINK ===
    0x1ebd
=== CODE BLOCK END ===

=== CODE BLOCK ADDRESS 0x1ebd ===
  0x1ebd	jne    	0x1ea2
  === BLOCK LINK ===
    0x1ebf
=== CODE BLOCK END ===

=== CODE BLOCK ADDRESS 0x1ebf ===
  0x1ebf	dec    	eax
  0x1ec0	test   	ebx, ebx
  0x1ec2	je     	0x1ed3
  === BLOCK LINK ===
    0x1ec4
=== CODE BLOCK END ===

=== CODE BLOCK ADDRESS 0x1ec4 ===
  0x1ec4	dec    	eax
  0x1ec5	mov    	ecx, ebx
  0x1ec7	dec    	eax
  0x1ec8	call   	dword ptr [0x248a]
  === BLOCK LINK ===
    0x1ece
=== CODE BLOCK END ===

=== CODE BLOCK ADDRESS 0x1ece ===
  0x1ece	nop    	dword ptr [eax + eax]
  0x1ed3	dec    	eax
  0x1ed4	mov    	ecx, dword ptr [0x512e]
  0x1eda	dec    	eax
  0x1edb	test   	ecx, ecx
  === BLOCK LINK ===
    0x1edd
=== CODE BLOCK END ===

=== CODE BLOCK ADDRESS 0x1edd ===
  0x1edd	je     	0x1eeb
  === BLOCK LINK ===
    0x1edf
=== CODE BLOCK END ===

=== CODE BLOCK ADDRESS 0x1edf ===
  0x1edf	dec    	eax
  0x1ee0	call   	dword ptr [0x2472]
  === BLOCK LINK ===
    0x1ee6
=== CODE BLOCK END ===

=== CODE BLOCK ADDRESS 0x1ee6 ===
  0x1ee6	nop    	dword ptr [eax + eax]
  0x1eeb	dec    	eax
  0x1eec	mov    	ecx, dword ptr [0x511e]
  0x1ef2	dec    	eax
  0x1ef3	test   	ecx, ecx
  === BLOCK LINK ===
    0x1ef5
=== CODE BLOCK END ===

=== CODE BLOCK ADDRESS 0x1ef5 ===
  0x1ef5	je     	0x1f03
  === BLOCK LINK ===
    0x1ef7
=== CODE BLOCK END ===

=== CODE BLOCK ADDRESS 0x1ef7 ===
  0x1ef7	dec    	eax
  0x1ef8	call   	dword ptr [0x245a]
  === BLOCK LINK ===
    0x1efe
=== CODE BLOCK END ===

=== CODE BLOCK ADDRESS 0x1efe ===
  0x1efe	nop    	dword ptr [eax + eax]
  0x1f03	mov    	eax, dword ptr [0x50bf]
  0x1f09	dec    	eax
  0x1f0a	mov    	ebx, dword ptr [esp + 0x40]
  0x1f0e	dec    	eax
  === BLOCK LINK ===
    0x1f0f
=== CODE BLOCK END ===

=== CODE BLOCK ADDRESS 0x1f0f ===
  0x1f0f	mov    	ebp, dword ptr [esp + 0x48]
  0x1f13	dec    	eax
  0x1f14	mov    	esi, dword ptr [esp + 0x50]
  0x1f18	dec    	eax
  0x1f19	mov    	edi, dword ptr [esp + 0x58]
  === BLOCK LINK ===
    0x1f1d
=== CODE BLOCK END ===

=== CODE BLOCK ADDRESS 0x1f1d ===
  0x1f1d	dec    	eax
  0x1f1e	add    	esp, 0x20
  0x1f21	inc    	ecx
  0x1f22	pop    	edi
  0x1f23	inc    	ecx
  === BLOCK LINK ===
    0x1f24
=== CODE BLOCK END ===

=== CODE BLOCK ADDRESS 0x1f24 ===
  0x1f24	pop    	esi
  0x1f25	inc    	ecx
  0x1f26	pop    	esp
  0x1f27	ret    	
  0x1f28	int3   	
  === BLOCK LINK ===
    0x1f29
=== CODE BLOCK END ===

=== CODE BLOCK ADDRESS 0x1f29 ===
  0x1f29	int3   	
  0x1f2a	int3   	
  0x1f2b	int3   	
  0x1f2c	int3   	
  0x1f2d	int3   	
  === BLOCK LINK ===
    0x1f2e
=== CODE BLOCK END ===

=== CODE BLOCK ADDRESS 0x1f2e ===
  0x1f2e	int3   	
  0x1f2f	int3   	
  0x1f30	dec    	eax
  0x1f31	mov    	dword ptr [esp + 8], ebx
  0x1f35	push   	edi
  === BLOCK LINK ===
    0x1f36
=== CODE BLOCK END ===

=== CODE BLOCK ADDRESS 0x1f36 ===
  0x1f36	dec    	eax
  0x1f37	sub    	esp, 0x20
  0x1f3a	dec    	eax
  0x1f3b	mov    	ebx, ecx
  0x1f3d	dec    	eax
  === BLOCK LINK ===
    0x1f3e
=== CODE BLOCK END ===

=== CODE BLOCK ADDRESS 0x1f3e ===
  0x1f3e	call   	dword ptr [0x22d4]
  === BLOCK LINK ===
    0x1f44
=== CODE BLOCK END ===

=== CODE BLOCK ADDRESS 0x1f44 ===
  0x1f44	nop    	dword ptr [eax + eax]
  0x1f49	mov    	edi, 9
  0x1f4e	dec    	eax
  0x1f4f	mov    	dword ptr [0x50ab], ebx
  0x1f55	dec    	eax
  === BLOCK LINK ===
    0x1f56
=== CODE BLOCK END ===

=== CODE BLOCK ADDRESS 0x1f56 ===
  0x1f56	mov    	dword ptr [0x509c], eax
  0x1f5c	mov    	dword ptr [0x5082], edi
  0x1f62	lea    	ecx, [edi + 0x47]
  0x1f65	dec    	eax
  0x1f66	call   	dword ptr [0x23cc]
  === BLOCK LINK ===
    0x1f6c
=== CODE BLOCK END ===

=== CODE BLOCK ADDRESS 0x1f6c ===
  0x1f6c	nop    	dword ptr [eax + eax]
  0x1f71	dec    	eax
  0x1f72	mov    	dword ptr [0x5070], eax
  0x1f78	dec    	eax
  0x1f79	mov    	ebx, eax
  === BLOCK LINK ===
    0x1f7b
=== CODE BLOCK END ===

=== CODE BLOCK ADDRESS 0x1f7b ===
  0x1f7b	dec    	eax
  0x1f7c	test   	eax, eax
  0x1f7e	je     	0x1ffe
  === BLOCK LINK ===
    0x1f80
=== CODE BLOCK END ===

=== CODE BLOCK ADDRESS 0x1f80 ===
  0x1f80	lea    	ecx, [edi + 0x1f]
  0x1f83	dec    	eax
  0x1f84	call   	dword ptr [0x23ae]
  === BLOCK LINK ===
    0x1f8a
=== CODE BLOCK END ===

=== CODE BLOCK ADDRESS 0x1f8a ===
  0x1f8a	nop    	dword ptr [eax + eax]
  0x1f8f	dec    	eax
  0x1f90	mov    	dword ptr [0x5072], eax
  0x1f96	dec    	eax
  0x1f97	mov    	edx, eax
  === BLOCK LINK ===
    0x1f99
=== CODE BLOCK END ===

=== CODE BLOCK ADDRESS 0x1f99 ===
  0x1f99	dec    	eax
  0x1f9a	test   	eax, eax
  0x1f9c	je     	0x1ffe
  === BLOCK LINK ===
    0x1f9e
=== CODE BLOCK END ===

=== CODE BLOCK ADDRESS 0x1f9e ===
  0x1f9e	inc    	ebp
  0x1f9f	xor    	eax, eax
  0x1fa1	dec    	eax
  0x1fa2	lea    	ecx, [ebx + 0x40]
  0x1fa5	dec    	eax
  === BLOCK LINK ===
    0x1fa6
=== CODE BLOCK END ===

=== CODE BLOCK ADDRESS 0x1fa6 ===
  0x1fa6	add    	eax, 0x20
  0x1fa9	dec    	eax
  0x1faa	cmp    	edx, ecx
  0x1fac	ja     	0x1fb3
  === BLOCK LINK ===
    0x1fae
=== CODE BLOCK END ===

=== CODE BLOCK ADDRESS 0x1fae ===
  0x1fae	dec    	eax
  0x1faf	cmp    	eax, ebx
  0x1fb1	jae    	0x1fd2
  === BLOCK LINK ===
    0x1fb3
=== CODE BLOCK END ===

=== CODE BLOCK ADDRESS 0x1fb3 ===
  0x1fb3	xorps  	xmm0, xmm0
  0x1fb6	inc    	ecx
  0x1fb7	mov    	eax, 8
  0x1fbc	movups  	xmmword ptr [ebx], xmm0
  0x1fbf	movups  	xmmword ptr [ebx + 0x10], xmm0
  === BLOCK LINK ===
    0x1fc3
=== CODE BLOCK END ===

=== CODE BLOCK ADDRESS 0x1fc3 ===
  0x1fc3	movups  	xmmword ptr [ebx + 0x20], xmm0
  0x1fc7	movups  	xmmword ptr [edx], xmm0
  0x1fca	movups  	xmmword ptr [ebx + 0x30], xmm0
  0x1fce	movups  	xmmword ptr [edx + 0x10], xmm0
  0x1fd2	inc    	ecx
  === BLOCK LINK ===
    0x1fd3
=== CODE BLOCK END ===

=== CODE BLOCK ADDRESS 0x1fd3 ===
  0x1fd3	mov    	eax, eax
  0x1fd5	inc    	ecx
  0x1fd6	sub    	edi, eax
  0x1fd8	inc    	esp
  0x1fd9	mov    	eax, edi
  === BLOCK LINK ===
    0x1fdb
=== CODE BLOCK END ===

=== CODE BLOCK ADDRESS 0x1fdb ===
  0x1fdb	dec    	eax
  0x1fdc	lea    	ecx, [edx + eax*4]
  0x1fdf	dec    	eax
  0x1fe0	lea    	edx, [ebx + eax*8]
  0x1fe3	dec    	eax
  === BLOCK LINK ===
    0x1fe4
=== CODE BLOCK END ===

=== CODE BLOCK ADDRESS 0x1fe4 ===
  0x1fe4	and    	dword ptr [edx], 0
  0x1fe7	dec    	eax
  0x1fe8	lea    	edx, [edx + 8]
  0x1feb	and    	dword ptr [ecx], 0
  0x1fee	dec    	eax
  === BLOCK LINK ===
    0x1fef
=== CODE BLOCK END ===

=== CODE BLOCK ADDRESS 0x1fef ===
  0x1fef	lea    	ecx, [ecx + 4]
  0x1ff2	dec    	ecx
  0x1ff3	sub    	eax, 1
  0x1ff6	jne    	0x1fe3
  === BLOCK LINK ===
    0x1ff8
=== CODE BLOCK END ===

=== CODE BLOCK ADDRESS 0x1ff8 ===
  0x1ff8	inc    	ecx
  0x1ff9	lea    	eax, [eax + 1]
  0x1ffc	jmp    	0x2000
  === BLOCK LINK ===
    0x1ffe
=== CODE BLOCK END ===

=== CODE BLOCK ADDRESS 0x1ffe ===
  0x1ffe	xor    	eax, eax
  0x2000	dec    	eax
  0x2001	mov    	ebx, dword ptr [esp + 0x30]
  0x2005	dec    	eax
  0x2006	add    	esp, 0x20
  === BLOCK LINK ===
    0x2009
=== CODE BLOCK END ===

=== CODE BLOCK ADDRESS 0x2009 ===
  0x2009	pop    	edi
  0x200a	ret    	
  0x200b	int3   	
  0x200c	int3   	
  0x200d	int3   	
  === BLOCK LINK ===
    0x200e
=== CODE BLOCK END ===

=== CODE BLOCK ADDRESS 0x200e ===
  0x200e	int3   	
  0x200f	int3   	
  0x2010	int3   	
  0x2011	int3   	
  0x2012	int3   	
  === BLOCK LINK ===
    0x2013
=== CODE BLOCK END ===

=== CODE BLOCK ADDRESS 0x2013 ===
  0x2013	int3   	
  0x2014	dec    	eax
  0x2015	mov    	dword ptr [esp + 0x10], ebx
  0x2019	dec    	eax
  0x201a	mov    	dword ptr [esp + 0x18], ebp
  === BLOCK LINK ===
    0x201e
=== CODE BLOCK END ===

=== CODE BLOCK ADDRESS 0x201e ===
  0x201e	dec    	eax
  0x201f	mov    	dword ptr [esp + 0x20], esi
  0x2023	push   	edi
  0x2024	inc    	ecx
  0x2025	push   	esp
  === BLOCK LINK ===
    0x2026
=== CODE BLOCK END ===

=== CODE BLOCK ADDRESS 0x2026 ===
  0x2026	inc    	ecx
  0x2027	push   	ebp
  0x2028	inc    	ecx
  0x2029	push   	esi
  0x202a	inc    	ecx
  === BLOCK LINK ===
    0x202b
=== CODE BLOCK END ===

=== CODE BLOCK ADDRESS 0x202b ===
  0x202b	push   	edi
  0x202c	dec    	eax
  0x202d	sub    	esp, 0x20
  0x2030	dec    	esp
  0x2031	mov    	ebp, dword ptr [0x4fc1]
  === BLOCK LINK ===
    0x2037
=== CODE BLOCK END ===

=== CODE BLOCK ADDRESS 0x2037 ===
  0x2037	inc    	ebp
  0x2038	xor    	ecx, ecx
  0x203a	inc    	ecx
  0x203b	mov    	esi, 1
  0x2040	inc    	ecx
  === BLOCK LINK ===
    0x2041
=== CODE BLOCK END ===

=== CODE BLOCK ADDRESS 0x2041 ===
  0x2041	movzx  	ecx, cx
  0x2044	inc    	ecx
  0x2045	movzx  	ebp, word ptr [ebp]
  0x2049	inc    	sp
  0x204b	cmp    	ecx, ebp
  === BLOCK LINK ===
    0x204d
=== CODE BLOCK END ===

=== CODE BLOCK ADDRESS 0x204d ===
  0x204d	je     	0x224d
  === BLOCK LINK ===
    0x2053
=== CODE BLOCK END ===

=== CODE BLOCK ADDRESS 0x2053 ===
  0x2053	mov    	edx, dword ptr [0x3ff3]
  0x2059	inc    	ecx
  0x205a	mov    	edx, 0xfffd
  0x205f	dec    	ecx
  0x2060	add    	ebp, 2
  === BLOCK LINK ===
    0x2063
=== CODE BLOCK END ===

=== CODE BLOCK ADDRESS 0x2063 ===
  0x2063	lea    	eax, [ebp - 0x2d]
  0x2066	inc    	cx
  0x2068	test   	edx, eax
  0x206a	jne    	0x222e
  === BLOCK LINK ===
    0x2070
=== CODE BLOCK END ===

=== CODE BLOCK ADDRESS 0x2070 ===
  0x2070	cmp    	cx, 0x20
  0x2074	jne    	0x2231
  === BLOCK LINK ===
    0x207a
=== CODE BLOCK END ===

=== CODE BLOCK ADDRESS 0x207a ===
  0x207a	inc    	ecx
  0x207b	movzx  	ebp, word ptr [ebp]
  0x207f	inc    	sp
  0x2081	cmp    	ecx, ebp
  0x2083	je     	0x224d
  === BLOCK LINK ===
    0x2089
=== CODE BLOCK END ===

=== CODE BLOCK ADDRESS 0x2089 ===
  0x2089	inc    	esp
  0x208a	cmp    	dword ptr [0x4f54], ecx
  0x2090	dec    	ecx
  0x2091	mov    	ecx, ecx
  0x2093	dec    	eax
  === BLOCK LINK ===
    0x2094
=== CODE BLOCK END ===

=== CODE BLOCK ADDRESS 0x2094 ===
  0x2094	mov    	dword ptr [esp + 0x50], ecx
  0x2098	inc    	ecx
  0x2099	mov    	eax, ecx
  0x209b	jle    	0x20c2
  === BLOCK LINK ===
    0x209d
=== CODE BLOCK END ===

=== CODE BLOCK ADDRESS 0x209d ===
  0x209d	dec    	esp
  0x209e	mov    	eax, dword ptr [0x4f5c]
  0x20a4	or     	bp, 0x20
  0x20a8	inc    	cx
  0x20aa	cmp    	ebp, dword ptr [eax + ecx*2]
  === BLOCK LINK ===
    0x20ad
=== CODE BLOCK END ===

=== CODE BLOCK ADDRESS 0x20ad ===
  0x20ad	je     	0x20bd
  === BLOCK LINK ===
    0x20af
=== CODE BLOCK END ===

=== CODE BLOCK ADDRESS 0x20af ===
  0x20af	inc    	ecx
  0x20b0	add    	eax, esi
  0x20b2	dec    	ecx
  0x20b3	add    	ecx, esi
  0x20b5	cmp    	eax, dword ptr [0x4f29]
  === BLOCK LINK ===
    0x20bb
=== CODE BLOCK END ===

=== CODE BLOCK ADDRESS 0x20bb ===
  0x20bb	jl     	0x20a4
  === BLOCK LINK ===
    0x20bd
=== CODE BLOCK END ===

=== CODE BLOCK ADDRESS 0x20bd ===
  0x20bd	dec    	eax
  0x20be	mov    	dword ptr [esp + 0x50], ecx
  0x20c2	cmp    	eax, dword ptr [0x4f1c]
  0x20c8	je     	0x2246
  === BLOCK LINK ===
    0x20ce
=== CODE BLOCK END ===

=== CODE BLOCK ADDRESS 0x20ce ===
  0x20ce	dec    	esp
  0x20cf	mov    	eax, dword ptr [0x4f33]
  0x20d5	inc    	ebp
  0x20d6	cmp    	dword ptr [eax + ecx*4], ecx
  0x20d9	jne    	0x2241
  === BLOCK LINK ===
    0x20df
=== CODE BLOCK END ===

=== CODE BLOCK ADDRESS 0x20df ===
  0x20df	inc    	ebp
  0x20e0	mov    	dword ptr [eax + ecx*4], esi
  0x20e3	test   	edx, edx
  0x20e5	jns    	0x20f6
  === BLOCK LINK ===
    0x20e7
=== CODE BLOCK END ===

=== CODE BLOCK ADDRESS 0x20e7 ===
  0x20e7	cmp    	eax, dword ptr [0x3f63]
  0x20ed	cmovle  	edx, eax
  0x20f0	mov    	dword ptr [0x3f56], edx
  0x20f6	inc    	ecx
  0x20f7	movzx  	eax, word ptr [ebp]
  === BLOCK LINK ===
    0x20fb
=== CODE BLOCK END ===

=== CODE BLOCK ADDRESS 0x20fb ===
  0x20fb	inc    	ecx
  0x20fc	movzx  	edx, cx
  0x20ff	dec    	ecx
  0x2100	mov    	edi, ebp
  0x2102	jmp    	0x212a
  === BLOCK LINK ===
    0x2104
=== CODE BLOCK END ===

=== CODE BLOCK ADDRESS 0x2104 ===
  0x2104	cmp    	ax, 0x3a
  0x2108	je     	0x2162
  === BLOCK LINK ===
    0x210a
=== CODE BLOCK END ===

=== CODE BLOCK ADDRESS 0x210a ===
  0x210a	cmp    	ax, 0x20
  0x210e	je     	0x2162
  === BLOCK LINK ===
    0x2110
=== CODE BLOCK END ===

=== CODE BLOCK ADDRESS 0x2110 ===
  0x2110	cmp    	ax, 0x2f
  0x2114	je     	0x2228
  === BLOCK LINK ===
    0x211a
=== CODE BLOCK END ===

=== CODE BLOCK ADDRESS 0x211a ===
  0x211a	cmp    	ax, 0x2d
  0x211e	je     	0x2134
  === BLOCK LINK ===
    0x2120
=== CODE BLOCK END ===

=== CODE BLOCK ADDRESS 0x2120 ===
  0x2120	dec    	eax
  0x2121	add    	edi, 2
  0x2124	movzx  	edx, ax
  0x2127	movzx  	eax, word ptr [edi]
  0x212a	test   	ax, ax
  === BLOCK LINK ===
    0x212d
=== CODE BLOCK END ===

=== CODE BLOCK ADDRESS 0x212d ===
  0x212d	jne    	0x2104
  === BLOCK LINK ===
    0x212f
=== CODE BLOCK END ===

=== CODE BLOCK ADDRESS 0x212f ===
  0x212f	jmp    	0x2228
  === BLOCK LINK ===
    0x2134
=== CODE BLOCK END ===

=== CODE BLOCK ADDRESS 0x2134 ===
  0x2134	dec    	ecx
  0x2135	mov    	esi, ecx
  0x2137	jmp    	0x2218
  === BLOCK LINK ===
    0x213c
=== CODE BLOCK END ===

=== CODE BLOCK ADDRESS 0x213c ===
  0x213c	cmp    	cx, 0x2f
  0x2140	ja     	0x2156
  === BLOCK LINK ===
    0x2142
=== CODE BLOCK END ===

=== CODE BLOCK ADDRESS 0x2142 ===
  0x2142	dec    	ecx
  0x2143	mov    	eax, 1
  0x2148	add    	byte ptr [eax + 0xf490000], ah
  0x214e	mov    	dword ptr [0xd2820fc8], eax
  0x2153	add    	byte ptr [eax], al
  === BLOCK LINK ===
    0x2155
=== CODE BLOCK END ===

=== CODE BLOCK ADDRESS 0x2155 ===
  0x2155	add    	byte ptr [ebp - 0x75], cl
  0x2158	shl    	dword ptr [esi - 0x7d], 0xf9
  0x215c	and    	byte ptr [edi + 0x1a], dh
  0x215f	movzx  	edx, cx
  0x2162	dec    	eax
  === BLOCK LINK ===
    0x2163
=== CODE BLOCK END ===

=== CODE BLOCK ADDRESS 0x2163 ===
  0x2163	add    	edi, 2
  0x2166	movzx  	ecx, word ptr [edi]
  0x2169	cmp    	cx, 0x22
  0x216d	jne    	0x213c
  === BLOCK LINK ===
    0x216f
=== CODE BLOCK END ===

=== CODE BLOCK ADDRESS 0x216f ===
  0x216f	dec    	eax
  0x2170	add    	edi, 2
  0x2173	movzx  	edx, cx
  0x2176	dec    	ebp
  0x2177	mov    	eax, esi
  === BLOCK LINK ===
    0x2179
=== CODE BLOCK END ===

=== CODE BLOCK ADDRESS 0x2179 ===
  0x2179	dec    	eax
  0x217a	mov    	ebx, edi
  0x217c	movzx  	ecx, word ptr [ebx]
  0x217f	dec    	ebp
  0x2180	test   	eax, eax
  === BLOCK LINK ===
    0x2182
=== CODE BLOCK END ===

=== CODE BLOCK ADDRESS 0x2182 ===
  0x2182	je     	0x2191
  === BLOCK LINK ===
    0x2184
=== CODE BLOCK END ===

=== CODE BLOCK ADDRESS 0x2184 ===
  0x2184	test   	cx, cx
  0x2187	je     	0x21ba
  === BLOCK LINK ===
    0x2189
=== CODE BLOCK END ===

=== CODE BLOCK ADDRESS 0x2189 ===
  0x2189	cmp    	cx, 0x22
  0x218d	je     	0x21ba
  === BLOCK LINK ===
    0x218f
=== CODE BLOCK END ===

=== CODE BLOCK ADDRESS 0x218f ===
  0x218f	jmp    	0x21ab
  === BLOCK LINK ===
    0x2191
=== CODE BLOCK END ===

=== CODE BLOCK ADDRESS 0x2191 ===
  0x2191	test   	cx, cx
  0x2194	je     	0x21ba
  === BLOCK LINK ===
    0x2196
=== CODE BLOCK END ===

=== CODE BLOCK ADDRESS 0x2196 ===
  0x2196	cmp    	dx, 0x20
  0x219a	jne    	0x21a5
  === BLOCK LINK ===
    0x219c
=== CODE BLOCK END ===

=== CODE BLOCK ADDRESS 0x219c ===
  0x219c	lea    	eax, [ecx - 0x2d]
  0x219f	inc    	cx
  0x21a1	test   	edx, eax
  0x21a3	je     	0x21ba
  === BLOCK LINK ===
    0x21a5
=== CODE BLOCK END ===

=== CODE BLOCK ADDRESS 0x21a5 ===
  0x21a5	cmp    	cx, 0x22
  0x21a9	je     	0x2228
  === BLOCK LINK ===
    0x21ab
=== CODE BLOCK END ===

=== CODE BLOCK ADDRESS 0x21ab ===
  0x21ab	dec    	eax
  0x21ac	add    	ebx, 2
  0x21af	movzx  	edx, cx
  0x21b2	jmp    	0x217c
  === BLOCK LINK ===
    0x21b4
=== CODE BLOCK END ===

=== CODE BLOCK ADDRESS 0x21b4 ===
  0x21b4	cmp    	word ptr [ebx], 0x20
  0x21b8	ja     	0x21c3
  === BLOCK LINK ===
    0x21ba
=== CODE BLOCK END ===

=== CODE BLOCK ADDRESS 0x21ba ===
  0x21ba	dec    	eax
  0x21bb	sub    	ebx, 2
  0x21be	dec    	eax
  0x21bf	cmp    	ebx, edi
  0x21c1	ja     	0x21b4
  === BLOCK LINK ===
    0x21c3
=== CODE BLOCK END ===

=== CODE BLOCK ADDRESS 0x21c3 ===
  0x21c3	dec    	eax
  0x21c4	sub    	ebx, edi
  0x21c6	dec    	eax
  0x21c7	sar    	ebx, 1
  0x21c9	dec    	esp
  === BLOCK LINK ===
    0x21ca
=== CODE BLOCK END ===

=== CODE BLOCK ADDRESS 0x21ca ===
  0x21ca	lea    	edi, [ebx + 2]
  0x21cd	dec    	edi
  0x21ce	lea    	esp, [edi + edi]
  0x21d1	dec    	ecx
  0x21d2	mov    	ecx, esp
  === BLOCK LINK ===
    0x21d4
=== CODE BLOCK END ===

=== CODE BLOCK ADDRESS 0x21d4 ===
  0x21d4	dec    	eax
  0x21d5	call   	dword ptr [0x215d]
  === BLOCK LINK ===
    0x21db
=== CODE BLOCK END ===

=== CODE BLOCK ADDRESS 0x21db ===
  0x21db	nop    	dword ptr [eax + eax]
  0x21e0	inc    	ebp
  0x21e1	xor    	ecx, ecx
  0x21e3	dec    	eax
  0x21e4	mov    	esi, eax
  === BLOCK LINK ===
    0x21e6
=== CODE BLOCK END ===

=== CODE BLOCK ADDRESS 0x21e6 ===
  0x21e6	dec    	eax
  0x21e7	test   	eax, eax
  0x21e9	je     	0x220d
  === BLOCK LINK ===
    0x21eb
=== CODE BLOCK END ===

=== CODE BLOCK ADDRESS 0x21eb ===
  0x21eb	dec    	ebp
  0x21ec	mov    	eax, esp
  0x21ee	xor    	edx, edx
  0x21f0	dec    	eax
  0x21f1	mov    	ecx, eax
  === BLOCK LINK ===
    0x21f3
=== CODE BLOCK END ===

=== CODE BLOCK ADDRESS 0x21f3 ===
  0x21f3	call   	0x2ff6
  === BLOCK LINK ===
    0x21f8
=== CODE BLOCK END ===

=== CODE BLOCK ADDRESS 0x21f8 ===
  0x21f8	dec    	esp
  0x21f9	lea    	ecx, [ebx + 1]
  0x21fc	dec    	esp
  0x21fd	mov    	eax, edi
  0x21ff	dec    	ecx
  === BLOCK LINK ===
    0x2200
=== CODE BLOCK END ===

=== CODE BLOCK ADDRESS 0x2200 ===
  0x2200	mov    	edx, edi
  0x2202	dec    	eax
  0x2203	mov    	ecx, esi
  0x2205	call   	0x1008
  === BLOCK LINK ===
    0x220a
=== CODE BLOCK END ===

=== CODE BLOCK ADDRESS 0x220a ===
  0x220a	inc    	ebp
  0x220b	xor    	ecx, ecx
  0x220d	dec    	eax
  0x220e	mov    	ecx, dword ptr [esp + 0x50]
  0x2212	inc    	ecx
  === BLOCK LINK ===
    0x2213
=== CODE BLOCK END ===

=== CODE BLOCK ADDRESS 0x2213 ===
  0x2213	mov    	edx, 0xfffd
  0x2218	dec    	eax
  0x2219	test   	esi, esi
  0x221b	je     	0x2228
  === BLOCK LINK ===
    0x221d
=== CODE BLOCK END ===

=== CODE BLOCK ADDRESS 0x221d ===
  0x221d	dec    	eax
  0x221e	mov    	eax, dword ptr [0x4dc4]
  0x2224	dec    	eax
  0x2225	mov    	dword ptr [eax + ecx*8], esi
  0x2228	mov    	edx, dword ptr [0x3e1e]
  === BLOCK LINK ===
    0x222e
=== CODE BLOCK END ===

=== CODE BLOCK ADDRESS 0x222e ===
  0x222e	movzx  	ecx, bp
  0x2231	inc    	ecx
  0x2232	movzx  	ebp, word ptr [ebp]
  0x2236	inc    	sp
  0x2238	cmp    	ecx, ebp
  === BLOCK LINK ===
    0x223a
=== CODE BLOCK END ===

=== CODE BLOCK ADDRESS 0x223a ===
  0x223a	je     	0x224d
  === BLOCK LINK ===
    0x223c
=== CODE BLOCK END ===

=== CODE BLOCK ADDRESS 0x223c ===
  0x223c	jmp    	0x205f
  === BLOCK LINK ===
    0x2241
=== CODE BLOCK END ===

=== CODE BLOCK ADDRESS 0x2241 ===
  0x2241	inc    	ebp
  0x2242	mov    	esi, ecx
  0x2244	jmp    	0x224d
  === BLOCK LINK ===
    0x2246
=== CODE BLOCK END ===

=== CODE BLOCK ADDRESS 0x2246 ===
  0x2246	inc    	esp
  0x2247	mov    	dword ptr [0x4da3], esi
  0x224d	dec    	eax
  0x224e	mov    	ebx, dword ptr [esp + 0x58]
  0x2252	inc    	ecx
  === BLOCK LINK ===
    0x2253
=== CODE BLOCK END ===

=== CODE BLOCK ADDRESS 0x2253 ===
  0x2253	mov    	eax, esi
  0x2255	dec    	eax
  0x2256	mov    	ebp, dword ptr [esp + 0x60]
  0x225a	dec    	eax
  0x225b	mov    	esi, dword ptr [esp + 0x68]
  === BLOCK LINK ===
    0x225f
=== CODE BLOCK END ===

=== CODE BLOCK ADDRESS 0x225f ===
  0x225f	dec    	eax
  0x2260	add    	esp, 0x20
  0x2263	inc    	ecx
  0x2264	pop    	edi
  0x2265	inc    	ecx
  === BLOCK LINK ===
    0x2266
=== CODE BLOCK END ===

=== CODE BLOCK ADDRESS 0x2266 ===
  0x2266	pop    	esi
  0x2267	inc    	ecx
  0x2268	pop    	ebp
  0x2269	inc    	ecx
  0x226a	pop    	esp
  === BLOCK LINK ===
    0x226b
=== CODE BLOCK END ===

=== CODE BLOCK ADDRESS 0x226b ===
  0x226b	pop    	edi
  0x226c	ret    	
  0x226d	int3   	
  0x226e	int3   	
  0x226f	int3   	
  === BLOCK LINK ===
    0x2270
=== CODE BLOCK END ===

=== CODE BLOCK ADDRESS 0x2270 ===
  0x2270	int3   	
  0x2271	int3   	
  0x2272	int3   	
  0x2273	int3   	
  0x2274	dec    	eax
  === BLOCK LINK ===
    0x2275
=== CODE BLOCK END ===

=== CODE BLOCK ADDRESS 0x2275 ===
  0x2275	mov    	dword ptr [esp + 8], ebx
  0x2279	dec    	eax
  0x227a	mov    	dword ptr [esp + 0x10], esi
  0x227e	push   	edi
  0x227f	dec    	eax
  === BLOCK LINK ===
    0x2280
=== CODE BLOCK END ===

=== CODE BLOCK ADDRESS 0x2280 ===
  0x2280	sub    	esp, 0x20
  0x2283	dec    	eax
  0x2284	mov    	ebx, edx
  0x2286	mov    	esi, ecx
  0x2288	dec    	eax
  === BLOCK LINK ===
    0x2289
=== CODE BLOCK END ===

=== CODE BLOCK ADDRESS 0x2289 ===
  0x2289	call   	dword ptr [0x1f89]
  === BLOCK LINK ===
    0x228f
=== CODE BLOCK END ===

=== CODE BLOCK ADDRESS 0x228f ===
  0x228f	nop    	dword ptr [eax + eax]
  0x2294	dec    	ecx
  0x2295	or     	edx, 0xffffffff
  0x2298	inc    	ebp
  0x2299	xor    	ecx, ecx
  === BLOCK LINK ===
    0x229b
=== CODE BLOCK END ===

=== CODE BLOCK ADDRESS 0x229b ===
  0x229b	dec    	esp
  0x229c	mov    	eax, eax
  0x229e	dec    	eax
  0x229f	test   	eax, eax
  0x22a1	je     	0x22c0
  === BLOCK LINK ===
    0x22a3
=== CODE BLOCK END ===

=== CODE BLOCK ADDRESS 0x22a3 ===
  0x22a3	inc    	sp
  0x22a5	cmp    	dword ptr [eax], ecx
  0x22a7	je     	0x22c0
  === BLOCK LINK ===
    0x22a9
=== CODE BLOCK END ===

=== CODE BLOCK ADDRESS 0x22a9 ===
  0x22a9	dec    	ecx
  0x22aa	mov    	ecx, edx
  0x22ac	dec    	eax
  0x22ad	inc    	ecx
  0x22af	inc    	sp
  === BLOCK LINK ===
    0x22b1
=== CODE BLOCK END ===

=== CODE BLOCK ADDRESS 0x22b1 ===
  0x22b1	cmp    	dword ptr [eax + ecx*2], ecx
  0x22b4	jne    	0x22ac
  === BLOCK LINK ===
    0x22b6
=== CODE BLOCK END ===

=== CODE BLOCK ADDRESS 0x22b6 ===
  0x22b6	dec    	eax
  0x22b7	add    	ecx, ecx
  0x22b9	dec    	ecx
  0x22ba	mov    	edi, eax
  0x22bc	xor    	eax, eax
  === BLOCK LINK ===
    0x22be
=== CODE BLOCK END ===

=== CODE BLOCK ADDRESS 0x22be ===
  0x22be	rep stosb  	byte ptr es:[edi], al
  0x22c0	test   	esi, esi
  0x22c2	jle    	0x22f1
  === BLOCK LINK ===
    0x22c4
=== CODE BLOCK END ===

=== CODE BLOCK ADDRESS 0x22c4 ===
  0x22c4	dec    	eax
  0x22c5	mov    	edx, esi
  0x22c7	dec    	eax
  0x22c8	mov    	eax, dword ptr [ebx]
  0x22ca	dec    	eax
  === BLOCK LINK ===
    0x22cb
=== CODE BLOCK END ===

=== CODE BLOCK ADDRESS 0x22cb ===
  0x22cb	test   	eax, eax
  0x22cd	je     	0x22e7
  === BLOCK LINK ===
    0x22cf
=== CODE BLOCK END ===

=== CODE BLOCK ADDRESS 0x22cf ===
  0x22cf	inc    	esp
  0x22d0	cmp    	byte ptr [eax], cl
  0x22d2	je     	0x22e7
  === BLOCK LINK ===
    0x22d4
=== CODE BLOCK END ===

=== CODE BLOCK ADDRESS 0x22d4 ===
  0x22d4	dec    	ecx
  0x22d5	mov    	ecx, edx
  0x22d7	dec    	eax
  0x22d8	inc    	ecx
  0x22da	inc    	esp
  === BLOCK LINK ===
    0x22db
=== CODE BLOCK END ===

=== CODE BLOCK ADDRESS 0x22db ===
  0x22db	cmp    	byte ptr [eax + ecx], cl
  0x22de	jne    	0x22d7
  === BLOCK LINK ===
    0x22e0
=== CODE BLOCK END ===

=== CODE BLOCK ADDRESS 0x22e0 ===
  0x22e0	dec    	ecx
  0x22e1	mov    	edi, eax
  0x22e3	xor    	eax, eax
  0x22e5	rep stosb  	byte ptr es:[edi], al
  0x22e7	dec    	eax
  === BLOCK LINK ===
    0x22e8
=== CODE BLOCK END ===

=== CODE BLOCK ADDRESS 0x22e8 ===
  0x22e8	add    	ebx, 8
  0x22eb	dec    	eax
  0x22ec	sub    	edx, 1
  0x22ef	jne    	0x22c7
  === BLOCK LINK ===
    0x22f1
=== CODE BLOCK END ===

=== CODE BLOCK ADDRESS 0x22f1 ===
  0x22f1	dec    	eax
  0x22f2	mov    	ebx, dword ptr [esp + 0x30]
  0x22f6	dec    	eax
  0x22f7	mov    	esi, dword ptr [esp + 0x38]
  0x22fb	dec    	eax
  === BLOCK LINK ===
    0x22fc
=== CODE BLOCK END ===

=== CODE BLOCK ADDRESS 0x22fc ===
  0x22fc	add    	esp, 0x20
  0x22ff	pop    	edi
  0x2300	ret    	
  0x2301	int3   	
  0x2302	int3   	
  === BLOCK LINK ===
    0x2303
=== CODE BLOCK END ===

=== CODE BLOCK ADDRESS 0x24c8 ===
=== CODE BLOCK END ===

=== CODE BLOCK ADDRESS 0x2303 ===
  0x2303	int3   	
  0x2304	int3   	
  0x2305	int3   	
  0x2306	int3   	
  0x2307	int3   	
  === BLOCK LINK ===
    0x2308
=== CODE BLOCK END ===

=== CODE BLOCK ADDRESS 0x2308 ===
  0x2308	dec    	eax
  0x2309	mov    	dword ptr [esp + 8], ecx
  0x230d	push   	ebp
  0x230e	push   	edi
  0x230f	inc    	ecx
  === BLOCK LINK ===
    0x2310
=== CODE BLOCK END ===

=== CODE BLOCK ADDRESS 0x2310 ===
  0x2310	push   	esp
  0x2311	inc    	ecx
  0x2312	push   	esi
  0x2313	inc    	ecx
  0x2314	push   	edi
  === BLOCK LINK ===
    0x2315
=== CODE BLOCK END ===

=== CODE BLOCK ADDRESS 0x2315 ===
  0x2315	dec    	eax
  0x2316	sub    	esp, 0x60
  0x2319	dec    	eax
  0x231a	lea    	ebp, [esp + 0x40]
  0x231e	dec    	eax
  === BLOCK LINK ===
    0x231f
=== CODE BLOCK END ===

=== CODE BLOCK ADDRESS 0x231f ===
  0x231f	mov    	dword ptr [ebp + 0x58], ebx
  0x2322	dec    	eax
  0x2323	mov    	dword ptr [ebp + 0x60], esi
  0x2326	dec    	eax
  0x2327	mov    	eax, dword ptr [0x3cdb]
  === BLOCK LINK ===
    0x232d
=== CODE BLOCK END ===

=== CODE BLOCK ADDRESS 0x232d ===
  0x232d	dec    	eax
  0x232e	xor    	eax, ebp
  0x2330	dec    	eax
  0x2331	mov    	dword ptr [ebp + 0x18], eax
  0x2334	dec    	eax
  === BLOCK LINK ===
    0x2335
=== CODE BLOCK END ===

=== CODE BLOCK ADDRESS 0x2335 ===
  0x2335	mov    	esi, ecx
  0x2337	xor    	ebx, ebx
  0x2339	mov    	dword ptr [ebp], ebx
  0x233c	mov    	ecx, 0xfffffff5
  0x2341	dec    	eax
  === BLOCK LINK ===
    0x2342
=== CODE BLOCK END ===

=== CODE BLOCK ADDRESS 0x2342 ===
  0x2342	call   	dword ptr [0x1ed8]
  === BLOCK LINK ===
    0x2348
=== CODE BLOCK END ===

=== CODE BLOCK ADDRESS 0x2348 ===
  0x2348	nop    	dword ptr [eax + eax]
  0x234d	dec    	esp
  0x234e	mov    	edi, eax
  0x2350	dec    	eax
  0x2351	mov    	dword ptr [ebp + 0x10], eax
  === BLOCK LINK ===
    0x2354
=== CODE BLOCK END ===

=== CODE BLOCK ADDRESS 0x2354 ===
  0x2354	dec    	eax
  0x2355	or     	edi, 0xffffffff
  0x2358	dec    	eax
  0x2359	cmp    	eax, edi
  0x235b	je     	0x24a0
  === BLOCK LINK ===
    0x2361
=== CODE BLOCK END ===

=== CODE BLOCK ADDRESS 0x2361 ===
  0x2361	dec    	eax
  0x2362	test   	esi, esi
  0x2364	je     	0x24a0
  === BLOCK LINK ===
    0x236a
=== CODE BLOCK END ===

=== CODE BLOCK ADDRESS 0x236a ===
  0x236a	dec    	eax
  0x236b	mov    	ecx, eax
  0x236d	dec    	eax
  0x236e	call   	dword ptr [0x1e4c]
  === BLOCK LINK ===
    0x2374
=== CODE BLOCK END ===

=== CODE BLOCK ADDRESS 0x2374 ===
  0x2374	nop    	dword ptr [eax + eax]
  0x2379	btr    	eax, 0xf
  0x237d	cmp    	eax, 2
  0x2380	jne    	0x23ae
  === BLOCK LINK ===
    0x2382
=== CODE BLOCK END ===

=== CODE BLOCK ADDRESS 0x2382 ===
  0x2382	dec    	eax
  0x2383	inc    	edi
  0x2385	cmp    	word ptr [esi + edi*2], bx
  0x2389	jne    	0x2382
  === BLOCK LINK ===
    0x238b
=== CODE BLOCK END ===

=== CODE BLOCK ADDRESS 0x238b ===
  0x238b	dec    	esp
  0x238c	mov    	eax, edi
  0x238e	dec    	eax
  0x238f	mov    	dword ptr [esp + 0x20], ebx
  0x2393	dec    	esp
  === BLOCK LINK ===
    0x2394
=== CODE BLOCK END ===

=== CODE BLOCK ADDRESS 0x2394 ===
  0x2394	lea    	ecx, [ebp]
  0x2397	dec    	eax
  0x2398	mov    	edx, esi
  0x239a	dec    	ecx
  0x239b	mov    	ecx, edi
  === BLOCK LINK ===
    0x239d
=== CODE BLOCK END ===

=== CODE BLOCK ADDRESS 0x239d ===
  0x239d	dec    	eax
  0x239e	call   	dword ptr [0x1dbc]
  === BLOCK LINK ===
    0x23a4
=== CODE BLOCK END ===

=== CODE BLOCK ADDRESS 0x23a4 ===
  0x23a4	nop    	dword ptr [eax + eax]
  0x23a9	jmp    	0x24a0
  === BLOCK LINK ===
    0x23ae
=== CODE BLOCK END ===

=== CODE BLOCK ADDRESS 0x23ae ===
  0x23ae	dec    	eax
  0x23af	call   	dword ptr [0x1da3]
  === BLOCK LINK ===
    0x23b5
=== CODE BLOCK END ===

=== CODE BLOCK ADDRESS 0x23b5 ===
  0x23b5	nop    	dword ptr [eax + eax]
  0x23ba	mov    	ecx, eax
  0x23bc	dec    	eax
  0x23bd	mov    	dword ptr [esp + 0x38], ebx
  0x23c1	dec    	eax
  === BLOCK LINK ===
    0x23c2
=== CODE BLOCK END ===

=== CODE BLOCK ADDRESS 0x23c2 ===
  0x23c2	mov    	dword ptr [esp + 0x30], ebx
  0x23c6	mov    	dword ptr [esp + 0x28], ebx
  0x23ca	dec    	eax
  0x23cb	mov    	dword ptr [esp + 0x20], ebx
  0x23cf	inc    	esp
  === BLOCK LINK ===
    0x23d0
=== CODE BLOCK END ===

=== CODE BLOCK ADDRESS 0x23d0 ===
  0x23d0	mov    	ecx, edi
  0x23d2	dec    	esp
  0x23d3	mov    	eax, esi
  0x23d5	xor    	edx, edx
  0x23d7	dec    	eax
  === BLOCK LINK ===
    0x23d8
=== CODE BLOCK END ===

=== CODE BLOCK ADDRESS 0x23d8 ===
  0x23d8	call   	dword ptr [0x1eca]
  === BLOCK LINK ===
    0x23de
=== CODE BLOCK END ===

=== CODE BLOCK ADDRESS 0x23de ===
  0x23de	nop    	dword ptr [eax + eax]
  0x23e3	dec    	esp
  0x23e4	arpl   	ax, sp
  0x23e6	inc    	esp
  0x23e7	mov    	dword ptr [ebp + 4], esp
  === BLOCK LINK ===
    0x23ea
=== CODE BLOCK END ===

=== CODE BLOCK ADDRESS 0x23ea ===
  0x23ea	test   	eax, eax
  0x23ec	je     	0x24a0
  === BLOCK LINK ===
    0x23f2
=== CODE BLOCK END ===

=== CODE BLOCK ADDRESS 0x23f2 ===
  0x23f2	dec    	ecx
  0x23f3	lea    	eax, [esp + 0xf]
  0x23f7	dec    	ecx
  0x23f8	cmp    	eax, esp
  0x23fa	ja     	0x2406
  === BLOCK LINK ===
    0x23fc
=== CODE BLOCK END ===

=== CODE BLOCK ADDRESS 0x23fc ===
  0x23fc	dec    	eax
  0x23fd	mov    	eax, 0xfffffff0
  0x2402	.byte  	0xff
  0x2403	.byte  	0xff
  0x2404	dec    	dword ptr [edi]
  === BLOCK LINK ===
    0x2406
=== CODE BLOCK END ===

=== CODE BLOCK ADDRESS 0x2406 ===
  0x2406	dec    	eax
  0x2407	and    	eax, 0xfffffff0
  0x240a	call   	0x3030
  === BLOCK LINK ===
    0x240f
=== CODE BLOCK END ===

=== CODE BLOCK ADDRESS 0x240f ===
  0x240f	dec    	eax
  0x2410	sub    	esp, eax
  0x2412	dec    	esp
  0x2413	lea    	esi, [esp + 0x40]
  0x2417	dec    	esp
  === BLOCK LINK ===
    0x2418
=== CODE BLOCK END ===

=== CODE BLOCK ADDRESS 0x2418 ===
  0x2418	mov    	dword ptr [ebp + 8], esi
  0x241b	jmp    	0x2442
  === BLOCK LINK ===
    0x241d
=== CODE BLOCK END ===

=== CODE BLOCK ADDRESS 0x241d ===
  0x241d	dec    	eax
  0x241e	call   	dword ptr [0x1f0c]
  === BLOCK LINK ===
    0x2424
=== CODE BLOCK END ===

=== CODE BLOCK ADDRESS 0x2424 ===
  0x2424	nop    	dword ptr [eax + eax]
  0x2429	inc    	ebp
  0x242a	xor    	esi, esi
  0x242c	dec    	esp
  0x242d	mov    	dword ptr [ebp + 8], esi
  === BLOCK LINK ===
    0x2430
=== CODE BLOCK END ===

=== CODE BLOCK ADDRESS 0x2430 ===
  0x2430	xor    	ebx, ebx
  0x2432	dec    	eax
  0x2433	or     	edi, 0xffffffff
  0x2436	dec    	eax
  0x2437	mov    	esi, dword ptr [ebp + 0x50]
  === BLOCK LINK ===
    0x243a
=== CODE BLOCK END ===

=== CODE BLOCK ADDRESS 0x243a ===
  0x243a	dec    	esp
  0x243b	mov    	edi, dword ptr [ebp + 0x10]
  0x243e	inc    	esp
  0x243f	mov    	esp, dword ptr [ebp + 4]
  0x2442	dec    	ebp
  === BLOCK LINK ===
    0x2443
=== CODE BLOCK END ===

=== CODE BLOCK ADDRESS 0x2443 ===
  0x2443	test   	esi, esi
  0x2445	je     	0x24a0
  === BLOCK LINK ===
    0x2447
=== CODE BLOCK END ===

=== CODE BLOCK ADDRESS 0x2447 ===
  0x2447	dec    	eax
  0x2448	call   	dword ptr [0x1d0a]
  === BLOCK LINK ===
    0x244e
=== CODE BLOCK END ===

=== CODE BLOCK ADDRESS 0x244e ===
  0x244e	nop    	dword ptr [eax + eax]
  0x2453	mov    	ecx, eax
  0x2455	dec    	eax
  0x2456	mov    	dword ptr [esp + 0x38], ebx
  0x245a	dec    	eax
  === BLOCK LINK ===
    0x245b
=== CODE BLOCK END ===

=== CODE BLOCK ADDRESS 0x245b ===
  0x245b	mov    	dword ptr [esp + 0x30], ebx
  0x245f	inc    	esp
  0x2460	mov    	dword ptr [esp + 0x28], esp
  0x2464	dec    	esp
  0x2465	mov    	dword ptr [esp + 0x20], esi
  === BLOCK LINK ===
    0x2469
=== CODE BLOCK END ===

=== CODE BLOCK ADDRESS 0x2469 ===
  0x2469	inc    	esp
  0x246a	mov    	ecx, edi
  0x246c	dec    	esp
  0x246d	mov    	eax, esi
  0x246f	xor    	edx, edx
  === BLOCK LINK ===
    0x2471
=== CODE BLOCK END ===

=== CODE BLOCK ADDRESS 0x2471 ===
  0x2471	dec    	eax
  0x2472	call   	dword ptr [0x1e30]
  === BLOCK LINK ===
    0x2478
=== CODE BLOCK END ===

=== CODE BLOCK ADDRESS 0x2478 ===
  0x2478	nop    	dword ptr [eax + eax]
  0x247d	test   	eax, eax
  0x247f	je     	0x24a0
  === BLOCK LINK ===
    0x2481
=== CODE BLOCK END ===

=== CODE BLOCK ADDRESS 0x2481 ===
  0x2481	inc    	esp
  0x2482	lea    	eax, [eax - 1]
  0x2485	dec    	eax
  0x2486	mov    	dword ptr [esp + 0x20], ebx
  0x248a	dec    	esp
  === BLOCK LINK ===
    0x248b
=== CODE BLOCK END ===

=== CODE BLOCK ADDRESS 0x248b ===
  0x248b	lea    	ecx, [ebp]
  0x248e	dec    	ecx
  0x248f	mov    	edx, esi
  0x2491	dec    	ecx
  0x2492	mov    	ecx, edi
  === BLOCK LINK ===
    0x2494
=== CODE BLOCK END ===

=== CODE BLOCK ADDRESS 0x2494 ===
  0x2494	dec    	eax
  0x2495	call   	dword ptr [0x1d1d]
  === BLOCK LINK ===
    0x249b
=== CODE BLOCK END ===

=== CODE BLOCK ADDRESS 0x249b ===
  0x249b	nop    	dword ptr [eax + eax]
  0x24a0	dec    	eax
  0x24a1	mov    	ecx, dword ptr [ebp + 0x18]
  0x24a4	dec    	eax
  0x24a5	xor    	ecx, ebp
  === BLOCK LINK ===
    0x24a7
=== CODE BLOCK END ===

=== CODE BLOCK ADDRESS 0x24a7 ===
  0x24a7	call   	0x28e0
  === BLOCK LINK ===
    0x24ac
=== CODE BLOCK END ===

=== CODE BLOCK ADDRESS 0x24ac ===
  0x24ac	dec    	eax
  0x24ad	mov    	ebx, dword ptr [ebp + 0x58]
  0x24b0	dec    	eax
  0x24b1	mov    	esi, dword ptr [ebp + 0x60]
  0x24b4	dec    	eax
  === BLOCK LINK ===
    0x24b5
=== CODE BLOCK END ===

=== CODE BLOCK ADDRESS 0x24b5 ===
  0x24b5	lea    	esp, [ebp + 0x20]
  0x24b8	inc    	ecx
  0x24b9	pop    	edi
  0x24ba	inc    	ecx
  0x24bb	pop    	esi
  === BLOCK LINK ===
    0x24bc
=== CODE BLOCK END ===

=== CODE BLOCK ADDRESS 0x24bc ===
  0x24bc	inc    	ecx
  0x24bd	pop    	esp
  0x24be	pop    	edi
  0x24bf	pop    	ebp
  0x24c0	ret    	
  === BLOCK LINK ===
    0x24c1
=== CODE BLOCK END ===

=== CODE BLOCK ADDRESS 0x1008 ===
  0x1008	dec    	eax
  0x1009	mov    	dword ptr [esp + 8], ebx
  === BLOCK LINK ===
    0x100d
=== CODE BLOCK END ===

=== CODE BLOCK ADDRESS 0x24c1 ===
  0x24c1	int3   	
  0x24c2	int3   	
  0x24c3	int3   	
  0x24c4	int3   	
  0x24c5	int3   	
  === BLOCK LINK ===
    0x24c6
=== CODE BLOCK END ===

=== CODE BLOCK ADDRESS 0x24c6 ===
  0x24c6	int3   	
  0x24c7	int3   	
  0x24c8	dec    	eax
  0x24c9	mov    	dword ptr [esp + 8], ebx
  0x24cd	push   	edi
  === BLOCK LINK ===
    0x24ce
=== CODE BLOCK END ===

=== CODE BLOCK ADDRESS 0x24ce ===
  0x24ce	dec    	eax
  0x24cf	sub    	esp, 0x40
  0x24d2	dec    	eax
  0x24d3	mov    	edx, dword ptr [0x4b5f]
  0x24d9	xor    	edi, edi
  === BLOCK LINK ===
    0x24db
=== CODE BLOCK END ===

=== CODE BLOCK ADDRESS 0x24db ===
  0x24db	mov    	ebx, ecx
  0x24dd	dec    	eax
  0x24de	test   	edx, edx
  0x24e0	jne    	0x24fa
  === BLOCK LINK ===
    0x24e2
=== CODE BLOCK END ===

=== CODE BLOCK ADDRESS 0x24e2 ===
  0x24e2	xor    	ecx, ecx
  0x24e4	dec    	eax
  0x24e5	call   	dword ptr [0x1d05]
  === BLOCK LINK ===
    0x24eb
=== CODE BLOCK END ===

=== CODE BLOCK ADDRESS 0x24eb ===
  0x24eb	nop    	dword ptr [eax + eax]
  0x24f0	dec    	eax
  0x24f1	mov    	edx, eax
  0x24f3	dec    	eax
  0x24f4	mov    	dword ptr [0x4b3e], eax
  === BLOCK LINK ===
    0x24fa
=== CODE BLOCK END ===

=== CODE BLOCK ADDRESS 0x24fa ===
  0x24fa	test   	ebx, ebx
  0x24fc	jne    	0x2502
  === BLOCK LINK ===
    0x24fe
=== CODE BLOCK END ===

=== CODE BLOCK ADDRESS 0x24fe ===
  0x24fe	xor    	eax, eax
  0x2500	jmp    	0x254a
  === BLOCK LINK ===
    0x2502
=== CODE BLOCK END ===

=== CODE BLOCK ADDRESS 0x2502 ===
  0x2502	dec    	eax
  0x2503	lea    	eax, [0x4b0f]
  0x2509	inc    	ebp
  0x250a	xor    	ecx, ecx
  0x250c	dec    	eax
  === BLOCK LINK ===
    0x250d
=== CODE BLOCK END ===

=== CODE BLOCK ADDRESS 0x250d ===
  0x250d	mov    	dword ptr [esp + 0x30], eax
  0x2511	inc    	esp
  0x2512	mov    	eax, ebx
  0x2514	dec    	eax
  0x2515	mov    	eax, dword ptr [0x4af5]
  === BLOCK LINK ===
    0x251b
=== CODE BLOCK END ===

=== CODE BLOCK ADDRESS 0x251b ===
  0x251b	mov    	ecx, 0x2800
  0x2520	mov    	dword ptr [esp + 0x28], 0x7d0
  0x2528	dec    	eax
  0x2529	mov    	dword ptr [esp + 0x20], eax
  0x252d	dec    	eax
  === BLOCK LINK ===
    0x252e
=== CODE BLOCK END ===

=== CODE BLOCK ADDRESS 0x252e ===
  0x252e	call   	dword ptr [0x1ccc]
  === BLOCK LINK ===
    0x2534
=== CODE BLOCK END ===

=== CODE BLOCK ADDRESS 0x2534 ===
  0x2534	nop    	dword ptr [eax + eax]
  0x2539	dec    	eax
  0x253a	mov    	ecx, dword ptr [0x4ad0]
  0x2540	test   	eax, eax
  0x2542	jne    	0x2547
  === BLOCK LINK ===
    0x2544
=== CODE BLOCK END ===

=== CODE BLOCK ADDRESS 0x2544 ===
  0x2544	mov    	word ptr [ecx], di
  0x2547	dec    	eax
  0x2548	mov    	eax, ecx
  0x254a	dec    	eax
  0x254b	mov    	ebx, dword ptr [esp + 0x50]
  === BLOCK LINK ===
    0x254f
=== CODE BLOCK END ===

=== CODE BLOCK ADDRESS 0x254f ===
  0x254f	dec    	eax
  0x2550	add    	esp, 0x40
  0x2553	pop    	edi
  0x2554	ret    	
  0x2555	int3   	
  === BLOCK LINK ===
    0x2556
=== CODE BLOCK END ===

=== CODE BLOCK ADDRESS 0x2556 ===
  0x2556	int3   	
  0x2557	int3   	
  0x2558	int3   	
  0x2559	int3   	
  0x255a	int3   	
  === BLOCK LINK ===
    0x255b
=== CODE BLOCK END ===

=== CODE BLOCK ADDRESS 0x255b ===
  0x255b	int3   	
  0x255c	int3   	
  0x255d	int3   	
  0x255e	int3   	
  0x255f	int3   	
  === BLOCK LINK ===
    0x2560
=== CODE BLOCK END ===

=== CODE BLOCK ADDRESS 0x2560 ===
  0x2560	dec    	eax
  0x2561	sub    	esp, 0x38
  0x2564	mov    	eax, dword ptr [0x202a]
  0x256a	dec    	esp
  0x256b	mov    	ecx, dword ptr [0x1bff]
  === BLOCK LINK ===
    0x2571
=== CODE BLOCK END ===

=== CODE BLOCK ADDRESS 0x2571 ===
  0x2571	dec    	esp
  0x2572	mov    	eax, dword ptr [0x2020]
  0x2578	mov    	dword ptr [esp + 0x28], eax
  0x257c	dec    	eax
  0x257d	mov    	dword ptr [esp + 0x20], edx
  === BLOCK LINK ===
    0x2581
=== CODE BLOCK END ===

=== CODE BLOCK ADDRESS 0x2581 ===
  0x2581	dec    	eax
  0x2582	mov    	edx, ecx
  0x2584	dec    	eax
  0x2585	lea    	ecx, [0xffffda75]
  0x258b	dec    	eax
  === BLOCK LINK ===
    0x258c
=== CODE BLOCK END ===

=== CODE BLOCK ADDRESS 0x258c ===
  0x258c	call   	dword ptr [0x1bee]
  === BLOCK LINK ===
    0x2592
=== CODE BLOCK END ===

=== CODE BLOCK ADDRESS 0x2592 ===
  0x2592	nop    	dword ptr [eax + eax]
  0x2597	dec    	eax
  0x2598	add    	esp, 0x38
  0x259b	ret    	
  0x259c	int3   	
  === BLOCK LINK ===
    0x259d
=== CODE BLOCK END ===

=== CODE BLOCK ADDRESS 0x259d ===
  0x259d	int3   	
  0x259e	int3   	
  0x259f	int3   	
  0x25a0	int3   	
  0x25a1	int3   	
  === BLOCK LINK ===
    0x25a2
=== CODE BLOCK END ===

=== CODE BLOCK ADDRESS 0x25a2 ===
  0x25a2	int3   	
  0x25a3	int3   	
  0x25a4	int3   	
  0x25a5	int3   	
  0x25a6	int3   	
  === BLOCK LINK ===
    0x25a7
=== CODE BLOCK END ===

=== CODE BLOCK ADDRESS 0x25a7 ===
  0x25a7	int3   	
  0x25a8	int3   	
  0x25a9	int3   	
  0x25aa	int3   	
  0x25ab	int3   	
  === BLOCK LINK ===
    0x25ac
=== CODE BLOCK END ===

=== CODE BLOCK ADDRESS 0x25ac ===
  0x25ac	int3   	
  0x25ad	int3   	
  0x25ae	int3   	
  0x25af	int3   	
  0x25b0	dec    	eax
  === BLOCK LINK ===
    0x25b1
=== CODE BLOCK END ===

=== CODE BLOCK ADDRESS 0x25b1 ===
  0x25b1	sub    	esp, 0x28
  0x25b4	mov    	eax, 0x5a4d
  0x25b9	cmp    	word ptr [0xffffda40], ax
  0x25c0	je     	0x25c6
  === BLOCK LINK ===
    0x25c2
=== CODE BLOCK END ===

=== CODE BLOCK ADDRESS 0x25c2 ===
  0x25c2	xor    	eax, eax
  0x25c4	jmp    	0x2619
  === BLOCK LINK ===
    0x25c6
=== CODE BLOCK END ===

=== CODE BLOCK ADDRESS 0x25c6 ===
  0x25c6	dec    	eax
  0x25c7	arpl   	word ptr [0xffffda6f], cx
  0x25cd	dec    	eax
  0x25ce	lea    	eax, [0xffffda2c]
  0x25d4	dec    	eax
  === BLOCK LINK ===
    0x25d5
=== CODE BLOCK END ===

=== CODE BLOCK ADDRESS 0x25d5 ===
  0x25d5	add    	ecx, eax
  0x25d7	cmp    	dword ptr [ecx], 0x4550
  0x25dd	jne    	0x25c2
  === BLOCK LINK ===
    0x25df
=== CODE BLOCK END ===

=== CODE BLOCK ADDRESS 0x25df ===
  0x25df	mov    	eax, 0x10b
  0x25e4	cmp    	word ptr [ecx + 0x18], ax
  0x25e8	je     	0x2608
  === BLOCK LINK ===
    0x25ea
=== CODE BLOCK END ===

=== CODE BLOCK ADDRESS 0x25ea ===
  0x25ea	mov    	eax, 0x20b
  0x25ef	cmp    	word ptr [ecx + 0x18], ax
  0x25f3	jne    	0x25c2
  === BLOCK LINK ===
    0x25f5
=== CODE BLOCK END ===

=== CODE BLOCK ADDRESS 0x25f5 ===
  0x25f5	xor    	eax, eax
  0x25f7	cmp    	dword ptr [ecx + 0x84], 0xe
  0x25fe	jbe    	0x2619
  === BLOCK LINK ===
    0x2600
=== CODE BLOCK END ===

=== CODE BLOCK ADDRESS 0x2600 ===
  0x2600	cmp    	dword ptr [ecx + 0xf8], eax
  0x2606	jmp    	0x2616
  === BLOCK LINK ===
    0x2608
=== CODE BLOCK END ===

=== CODE BLOCK ADDRESS 0x2608 ===
  0x2608	xor    	eax, eax
  0x260a	cmp    	dword ptr [ecx + 0x74], 0xe
  0x260e	jbe    	0x2619
  === BLOCK LINK ===
    0x2610
=== CODE BLOCK END ===

=== CODE BLOCK ADDRESS 0x2610 ===
  0x2610	cmp    	dword ptr [ecx + 0xe8], eax
  0x2616	setne  	al
  0x2619	mov    	ecx, 1
  0x261e	mov    	dword ptr [0x3a5c], eax
  0x2624	call   	0x2b98
  === BLOCK LINK ===
    0x2629
=== CODE BLOCK END ===

=== CODE BLOCK ADDRESS 0x2629 ===
  0x2629	mov    	ecx, eax
  0x262b	call   	dword ptr [0x1d5f]
  === BLOCK LINK ===
    0x2631
=== CODE BLOCK END ===

=== CODE BLOCK ADDRESS 0x2631 ===
  0x2631	dec    	eax
  0x2632	mov    	ecx, dword ptr [0x1d18]
  0x2638	dec    	eax
  0x2639	or     	eax, 0xffffffff
  0x263c	dec    	eax
  === BLOCK LINK ===
    0x263d
=== CODE BLOCK END ===

=== CODE BLOCK ADDRESS 0x263d ===
  0x263d	mov    	dword ptr [0x49fd], eax
  0x2643	dec    	eax
  0x2644	mov    	dword ptr [0x49fe], eax
  0x264a	mov    	eax, dword ptr [0x3fbc]
  0x2650	mov    	dword ptr [ecx], eax
  === BLOCK LINK ===
    0x2652
=== CODE BLOCK END ===

=== CODE BLOCK ADDRESS 0x2652 ===
  0x2652	dec    	eax
  0x2653	mov    	ecx, dword ptr [0x1cef]
  0x2659	mov    	eax, dword ptr [0x3fa1]
  0x265f	mov    	dword ptr [ecx], eax
  0x2661	call   	0x2bf0
  === BLOCK LINK ===
    0x2666
=== CODE BLOCK END ===

=== CODE BLOCK ADDRESS 0x2666 ===
  0x2666	cmp    	dword ptr [0x3993], 0
  0x266d	jne    	0x267c
  === BLOCK LINK ===
    0x266f
=== CODE BLOCK END ===

=== CODE BLOCK ADDRESS 0x266f ===
  0x266f	dec    	eax
  0x2670	lea    	ecx, [0x57a]
  0x2676	call   	dword ptr [0x1cf4]
  === BLOCK LINK ===
    0x267c
=== CODE BLOCK END ===

=== CODE BLOCK ADDRESS 0x267c ===
  0x267c	xor    	eax, eax
  0x267e	dec    	eax
  0x267f	add    	esp, 0x28
  0x2682	ret    	
  0x2683	int3   	
  === BLOCK LINK ===
    0x2684
=== CODE BLOCK END ===

=== CODE BLOCK ADDRESS 0x2684 ===
  0x2684	int3   	
  0x2685	int3   	
  0x2686	int3   	
  0x2687	int3   	
  0x2688	int3   	
  === BLOCK LINK ===
    0x2689
=== CODE BLOCK END ===

=== CODE BLOCK ADDRESS 0x2689 ===
  0x2689	int3   	
  0x268a	int3   	
  0x268b	int3   	
  0x268c	int3   	
  0x268d	int3   	
  === BLOCK LINK ===
    0x268e
=== CODE BLOCK END ===

=== CODE BLOCK ADDRESS 0x268e ===
  0x268e	int3   	
  0x268f	int3   	
  0x2690	dec    	eax
  0x2691	sub    	esp, 0x38
  0x2694	mov    	eax, dword ptr [0x3f6e]
  === BLOCK LINK ===
    0x269a
=== CODE BLOCK END ===

=== CODE BLOCK ADDRESS 0x269a ===
  0x269a	dec    	esp
  0x269b	lea    	eax, [0x39d7]
  0x26a1	inc    	esp
  0x26a2	mov    	ecx, dword ptr [0x3f5c]
  0x26a8	dec    	eax
  === BLOCK LINK ===
    0x26a9
=== CODE BLOCK END ===

=== CODE BLOCK ADDRESS 0x26a9 ===
  0x26a9	lea    	edx, [0x39c1]
  0x26af	mov    	dword ptr [0x39cf], eax
  0x26b5	dec    	eax
  0x26b6	lea    	ecx, [0x39ac]
  0x26bc	dec    	eax
  === BLOCK LINK ===
    0x26bd
=== CODE BLOCK END ===

=== CODE BLOCK ADDRESS 0x26bd ===
  0x26bd	lea    	eax, [0x39c1]
  0x26c3	dec    	eax
  0x26c4	mov    	dword ptr [esp + 0x20], eax
  0x26c8	call   	dword ptr [0x1cca]
  === BLOCK LINK ===
    0x26ce
=== CODE BLOCK END ===

=== CODE BLOCK ADDRESS 0x26ce ===
  0x26ce	mov    	dword ptr [0x3998], eax
  0x26d4	dec    	eax
  0x26d5	add    	esp, 0x38
  0x26d8	ret    	
  0x26d9	int3   	
  === BLOCK LINK ===
    0x26da
=== CODE BLOCK END ===

=== CODE BLOCK ADDRESS 0x26da ===
  0x26da	int3   	
  0x26db	int3   	
  0x26dc	int3   	
  0x26dd	int3   	
  0x26de	int3   	
  === BLOCK LINK ===
    0x26df
=== CODE BLOCK END ===

=== CODE BLOCK ADDRESS 0x26df ===
  0x26df	int3   	
  0x26e0	dec    	eax
  0x26e1	mov    	dword ptr [esp + 8], ebx
  0x26e5	dec    	eax
  0x26e6	mov    	dword ptr [esp + 0x10], esi
  === BLOCK LINK ===
    0x26ea
=== CODE BLOCK END ===

=== CODE BLOCK ADDRESS 0x26ea ===
  0x26ea	dec    	eax
  0x26eb	mov    	dword ptr [esp + 0x18], edi
  0x26ef	inc    	ecx
  0x26f0	push   	edi
  0x26f1	dec    	eax
  === BLOCK LINK ===
    0x26f2
=== CODE BLOCK END ===

=== CODE BLOCK ADDRESS 0x26f2 ===
  0x26f2	sub    	esp, 0x30
  0x26f5	dec    	eax
  0x26f7	mov    	eax, dword ptr [0x30]
  0x26fe	dec    	eax
  0x26ff	mov    	ebx, dword ptr [eax + 8]
  === BLOCK LINK ===
    0x2702
=== CODE BLOCK END ===

=== CODE BLOCK ADDRESS 0x2702 ===
  0x2702	xor    	esi, esi
  0x2704	xor    	eax, eax
  0x2706	.byte  	0xf0
  0x2707	dec    	eax
  0x2708	cmpxchg  	dword ptr [0x4941], ebx
  === BLOCK LINK ===
    0x270f
=== CODE BLOCK END ===

=== CODE BLOCK ADDRESS 0x270f ===
  0x270f	je     	0x272c
  === BLOCK LINK ===
    0x2711
=== CODE BLOCK END ===

=== CODE BLOCK ADDRESS 0x2711 ===
  0x2711	dec    	eax
  0x2712	cmp    	eax, ebx
  0x2714	jne    	0x271f
  === BLOCK LINK ===
    0x2716
=== CODE BLOCK END ===

=== CODE BLOCK ADDRESS 0x2716 ===
  0x2716	mov    	ebx, 1
  0x271b	mov    	esi, ebx
  0x271d	jmp    	0x2731
  === BLOCK LINK ===
    0x271f
=== CODE BLOCK END ===

=== CODE BLOCK ADDRESS 0x271f ===
  0x271f	mov    	ecx, 0x3e8
  0x2724	call   	dword ptr [0x1b8e]
  === BLOCK LINK ===
    0x272a
=== CODE BLOCK END ===

=== CODE BLOCK ADDRESS 0x272a ===
  0x272a	jmp    	0x2704
  === BLOCK LINK ===
    0x272c
=== CODE BLOCK END ===

=== CODE BLOCK ADDRESS 0x272c ===
  0x272c	mov    	ebx, 1
  0x2731	mov    	eax, dword ptr [0x4921]
  0x2737	cmp    	eax, ebx
  0x2739	jne    	0x2747
  === BLOCK LINK ===
    0x273b
=== CODE BLOCK END ===

=== CODE BLOCK ADDRESS 0x273b ===
  0x273b	mov    	ecx, 0x1f
  0x2740	call   	0x2be3
  === BLOCK LINK ===
    0x2745
=== CODE BLOCK END ===

=== CODE BLOCK ADDRESS 0x2745 ===
  0x2745	jmp    	0x27ac
  === BLOCK LINK ===
    0x2747
=== CODE BLOCK END ===

=== CODE BLOCK ADDRESS 0x2747 ===
  0x2747	mov    	eax, dword ptr [0x490b]
  0x274d	test   	eax, eax
  0x274f	jne    	0x27a6
  === BLOCK LINK ===
    0x2751
=== CODE BLOCK END ===

=== CODE BLOCK ADDRESS 0x2751 ===
  0x2751	mov    	dword ptr [0x4901], ebx
  0x2757	dec    	esp
  0x2758	lea    	edi, [0x1ca2]
  0x275e	dec    	eax
  0x275f	lea    	edi, [0x1c83]
  === BLOCK LINK ===
    0x2765
=== CODE BLOCK END ===

=== CODE BLOCK ADDRESS 0x2765 ===
  0x2765	dec    	eax
  0x2766	mov    	dword ptr [esp + 0x28], edi
  0x276a	mov    	dword ptr [esp + 0x20], eax
  0x276e	dec    	ecx
  0x276f	cmp    	edi, edi
  === BLOCK LINK ===
    0x2771
=== CODE BLOCK END ===

=== CODE BLOCK ADDRESS 0x2771 ===
  0x2771	jae    	0x2798
  === BLOCK LINK ===
    0x2773
=== CODE BLOCK END ===

=== CODE BLOCK ADDRESS 0x2773 ===
  0x2773	test   	eax, eax
  0x2775	jne    	0x279c
  === BLOCK LINK ===
    0x2777
=== CODE BLOCK END ===

=== CODE BLOCK ADDRESS 0x2777 ===
  0x2777	dec    	eax
  0x2778	cmp    	dword ptr [edi], 0
  0x277b	je     	0x278d
  === BLOCK LINK ===
    0x277d
=== CODE BLOCK END ===

=== CODE BLOCK ADDRESS 0x277d ===
  0x277d	dec    	eax
  0x277e	mov    	eax, dword ptr [edi]
  0x2780	dec    	eax
  0x2781	mov    	ecx, dword ptr [0x1c41]
  0x2787	call   	ecx
  === BLOCK LINK ===
    0x2789
=== CODE BLOCK END ===

=== CODE BLOCK ADDRESS 0x2789 ===
  0x2789	mov    	dword ptr [esp + 0x20], eax
  0x278d	dec    	eax
  0x278e	add    	edi, 8
  0x2791	dec    	eax
  0x2792	mov    	dword ptr [esp + 0x28], edi
  === BLOCK LINK ===
    0x2796
=== CODE BLOCK END ===

=== CODE BLOCK ADDRESS 0x2796 ===
  0x2796	jmp    	0x276e
  === BLOCK LINK ===
    0x2798
=== CODE BLOCK END ===

=== CODE BLOCK ADDRESS 0x2798 ===
  0x2798	test   	eax, eax
  0x279a	je     	0x27ac
  === BLOCK LINK ===
    0x279c
=== CODE BLOCK END ===

=== CODE BLOCK ADDRESS 0x279c ===
  0x279c	mov    	eax, 0xff
  0x27a1	jmp    	0x2888
  === BLOCK LINK ===
    0x27a6
=== CODE BLOCK END ===

=== CODE BLOCK ADDRESS 0x27a6 ===
  0x27a6	mov    	dword ptr [0x38b8], ebx
  0x27ac	mov    	eax, dword ptr [0x48a6]
  0x27b2	cmp    	eax, ebx
  0x27b4	jne    	0x27d3
  === BLOCK LINK ===
    0x27b6
=== CODE BLOCK END ===

=== CODE BLOCK ADDRESS 0x27b6 ===
  0x27b6	dec    	eax
  0x27b7	lea    	edx, [0x1c23]
  0x27bd	dec    	eax
  0x27be	lea    	ecx, [0x1c0c]
  0x27c4	call   	0x2dbe
  === BLOCK LINK ===
    0x27c9
=== CODE BLOCK END ===

=== CODE BLOCK ADDRESS 0x27c9 ===
  0x27c9	mov    	dword ptr [0x4885], 2
  0x27d3	test   	esi, esi
  0x27d5	jne    	0x27e0
  === BLOCK LINK ===
    0x27d7
=== CODE BLOCK END ===

=== CODE BLOCK ADDRESS 0x27d7 ===
  0x27d7	xor    	eax, eax
  0x27d9	dec    	eax
  0x27da	xchg   	dword ptr [0x4870], eax
  0x27e0	dec    	eax
  0x27e1	cmp    	dword ptr [0x4878], 0
  === BLOCK LINK ===
    0x27e8
=== CODE BLOCK END ===

=== CODE BLOCK ADDRESS 0x27e8 ===
  0x27e8	je     	0x2814
  === BLOCK LINK ===
    0x27ea
=== CODE BLOCK END ===

=== CODE BLOCK ADDRESS 0x27ea ===
  0x27ea	dec    	eax
  0x27eb	lea    	ecx, [0x486f]
  0x27f1	call   	0x2c50
  === BLOCK LINK ===
    0x27f6
=== CODE BLOCK END ===

=== CODE BLOCK ADDRESS 0x27f6 ===
  0x27f6	test   	eax, eax
  0x27f8	je     	0x2814
  === BLOCK LINK ===
    0x27fa
=== CODE BLOCK END ===

=== CODE BLOCK ADDRESS 0x27fa ===
  0x27fa	inc    	ebp
  0x27fb	xor    	eax, eax
  0x27fd	inc    	ecx
  0x27fe	lea    	edx, [eax + 2]
  0x2801	xor    	ecx, ecx
  === BLOCK LINK ===
    0x2803
=== CODE BLOCK END ===

=== CODE BLOCK ADDRESS 0x2803 ===
  0x2803	dec    	eax
  0x2804	mov    	eax, dword ptr [0x4856]
  0x280a	dec    	esp
  0x280b	mov    	ecx, dword ptr [0x1bb7]
  0x2811	inc    	ecx
  === BLOCK LINK ===
    0x2812
=== CODE BLOCK END ===

=== CODE BLOCK ADDRESS 0x2812 ===
  0x2812	call   	ecx
  === BLOCK LINK ===
    0x2814
=== CODE BLOCK END ===

=== CODE BLOCK ADDRESS 0x2814 ===
  0x2814	dec    	esp
  0x2815	mov    	eax, dword ptr [0x385d]
  0x281b	dec    	eax
  0x281c	mov    	edx, dword ptr [0x384e]
  0x2822	mov    	ecx, dword ptr [0x3840]
  === BLOCK LINK ===
    0x2828
=== CODE BLOCK END ===

=== CODE BLOCK ADDRESS 0x2828 ===
  0x2828	call   	0x1b64
  === BLOCK LINK ===
    0x282d
=== CODE BLOCK END ===

=== CODE BLOCK ADDRESS 0x282d ===
  0x282d	mov    	dword ptr [0x382d], eax
  0x2833	cmp    	dword ptr [0x3846], 0
  0x283a	jne    	0x2844
  === BLOCK LINK ===
    0x283c
=== CODE BLOCK END ===

=== CODE BLOCK ADDRESS 0x283c ===
  0x283c	mov    	ecx, eax
  0x283e	call   	dword ptr [0x1b44]
  === BLOCK LINK ===
    0x2844
=== CODE BLOCK END ===

=== CODE BLOCK ADDRESS 0x2844 ===
  0x2844	cmp    	dword ptr [0x3819], 0
  0x284b	jne    	0x2859
  === BLOCK LINK ===
    0x284d
=== CODE BLOCK END ===

=== CODE BLOCK ADDRESS 0x284d ===
  0x284d	call   	dword ptr [0x1b25]
  === BLOCK LINK ===
    0x2853
=== CODE BLOCK END ===

=== CODE BLOCK ADDRESS 0x2853 ===
  0x2853	mov    	eax, dword ptr [0x3807]
  0x2859	jmp    	0x2888
  === BLOCK LINK ===
    0x285b
=== CODE BLOCK END ===

=== CODE BLOCK ADDRESS 0x285b ===
  0x285b	mov    	dword ptr [0x37ff], eax
  0x2861	cmp    	dword ptr [0x3818], 0
  0x2868	jne    	0x2873
  === BLOCK LINK ===
    0x286a
=== CODE BLOCK END ===

=== CODE BLOCK ADDRESS 0x286a ===
  0x286a	mov    	ecx, eax
  0x286c	call   	dword ptr [0x1b0e]
  === BLOCK LINK ===
    0x2872
=== CODE BLOCK END ===

=== CODE BLOCK ADDRESS 0x2872 ===
  0x2872	int3   	
  0x2873	cmp    	dword ptr [0x37ea], 0
  0x287a	jne    	0x2888
  === BLOCK LINK ===
    0x287c
=== CODE BLOCK END ===

=== CODE BLOCK ADDRESS 0x287c ===
  0x287c	call   	dword ptr [0x1af6]
  === BLOCK LINK ===
    0x2882
=== CODE BLOCK END ===

=== CODE BLOCK ADDRESS 0x2882 ===
  0x2882	mov    	eax, dword ptr [0x37d8]
  0x2888	dec    	eax
  0x2889	mov    	ebx, dword ptr [esp + 0x40]
  0x288d	dec    	eax
  0x288e	mov    	esi, dword ptr [esp + 0x48]
  === BLOCK LINK ===
    0x2892
=== CODE BLOCK END ===

=== CODE BLOCK ADDRESS 0x2892 ===
  0x2892	dec    	eax
  0x2893	mov    	edi, dword ptr [esp + 0x50]
  0x2897	dec    	eax
  0x2898	add    	esp, 0x30
  0x289b	inc    	ecx
  === BLOCK LINK ===
    0x289c
=== CODE BLOCK END ===

=== CODE BLOCK ADDRESS 0x289c ===
  0x289c	pop    	edi
  0x289d	ret    	
  0x289e	int3   	
  0x289f	int3   	
  0x28a0	int3   	
  === BLOCK LINK ===
    0x28a1
=== CODE BLOCK END ===

=== CODE BLOCK ADDRESS 0x28a1 ===
  0x28a1	int3   	
  0x28a2	int3   	
  0x28a3	int3   	
  0x28a4	int3   	
  0x28a5	int3   	
  === BLOCK LINK ===
    0x28a6
=== CODE BLOCK END ===

=== CODE BLOCK ADDRESS 0x28a6 ===
  0x28a6	int3   	
  0x28a7	int3   	
  0x28a8	int3   	
  0x28a9	int3   	
  0x28aa	int3   	
  === BLOCK LINK ===
    0x28ab
=== CODE BLOCK END ===

=== CODE BLOCK ADDRESS 0x28ab ===
  0x28ab	int3   	
  0x28ac	int3   	
  0x28ad	int3   	
  0x28ae	int3   	
  0x28af	int3   	
  === BLOCK LINK ===
    0x28b0
=== CODE BLOCK END ===

=== CODE BLOCK ADDRESS 0x28b0 ===
  0x28b0	dec    	eax
  0x28b1	sub    	esp, 0x28
  0x28b4	call   	0x2ce4
  === BLOCK LINK ===
    0x28b9
=== CODE BLOCK END ===

=== CODE BLOCK ADDRESS 0x28b9 ===
  0x28b9	dec    	eax
  0x28ba	add    	esp, 0x28
  0x28bd	jmp    	0x26e0
  === BLOCK LINK ===
    0x28c2
=== CODE BLOCK END ===

=== CODE BLOCK ADDRESS 0x28c2 ===
  0x28c2	int3   	
  0x28c3	int3   	
  0x28c4	int3   	
  0x28c5	int3   	
  0x28c6	int3   	
  === BLOCK LINK ===
    0x28c7
=== CODE BLOCK END ===

=== CODE BLOCK ADDRESS 0x28c7 ===
  0x28c7	int3   	
  0x28c8	int3   	
  0x28c9	int3   	
  0x28ca	int3   	
  0x28cb	int3   	
  === BLOCK LINK ===
    0x28cc
=== CODE BLOCK END ===

=== CODE BLOCK ADDRESS 0x28cc ===
  0x28cc	int3   	
  0x28cd	int3   	
  0x28ce	int3   	
  0x28cf	int3   	
  0x28d0	int3   	
  === BLOCK LINK ===
    0x28d1
=== CODE BLOCK END ===

=== CODE BLOCK ADDRESS 0x28d1 ===
  0x28d1	int3   	
  0x28d2	int3   	
  0x28d3	int3   	
  0x28d4	int3   	
  0x28d5	int3   	
  === BLOCK LINK ===
    0x28d6
=== CODE BLOCK END ===

=== CODE BLOCK ADDRESS 0x28d6 ===
  0x28d6	nop    	word ptr [eax + eax]
  0x28e0	dec    	eax
  0x28e1	cmp    	ecx, dword ptr [0x3721]
  0x28e7	jne    	0x28f9
  === BLOCK LINK ===
    0x28e9
=== CODE BLOCK END ===

=== CODE BLOCK ADDRESS 0x28e9 ===
  0x28e9	dec    	eax
  0x28ea	rol    	ecx, 0x10
  0x28ed	test   	cx, 0xffff
  0x28f2	jne    	0x28f5
  === BLOCK LINK ===
    0x28f4
=== CODE BLOCK END ===

=== CODE BLOCK ADDRESS 0x28f4 ===
  0x28f4	ret    	
  0x28f5	dec    	eax
  0x28f6	ror    	ecx, 0x10
  0x28f9	jmp    	0x2940
  === BLOCK LINK ===
    0x28fe
=== CODE BLOCK END ===

=== CODE BLOCK ADDRESS 0x28fe ===
  0x28fe	int3   	
  0x28ff	int3   	
  0x2900	int3   	
  0x2901	int3   	
  0x2902	int3   	
  === BLOCK LINK ===
    0x2903
=== CODE BLOCK END ===

=== CODE BLOCK ADDRESS 0x2903 ===
  0x2903	int3   	
  0x2904	inc    	eax
  0x2905	push   	ebx
  0x2906	dec    	eax
  0x2907	sub    	esp, 0x20
  === BLOCK LINK ===
    0x290a
=== CODE BLOCK END ===

=== CODE BLOCK ADDRESS 0x290a ===
  0x290a	dec    	eax
  0x290b	mov    	ebx, ecx
  0x290d	xor    	ecx, ecx
  0x290f	call   	dword ptr [0x188b]
  === BLOCK LINK ===
    0x2915
=== CODE BLOCK END ===

=== CODE BLOCK ADDRESS 0x2915 ===
  0x2915	dec    	eax
  0x2916	mov    	ecx, ebx
  0x2918	call   	dword ptr [0x188a]
  === BLOCK LINK ===
    0x291e
=== CODE BLOCK END ===

=== CODE BLOCK ADDRESS 0x291e ===
  0x291e	call   	dword ptr [0x190c]
  === BLOCK LINK ===
    0x2924
=== CODE BLOCK END ===

=== CODE BLOCK ADDRESS 0x2924 ===
  0x2924	dec    	eax
  0x2925	mov    	ecx, eax
  0x2927	mov    	edx, 0xc0000409
  0x292c	dec    	eax
  0x292d	add    	esp, 0x20
  === BLOCK LINK ===
    0x2930
=== CODE BLOCK END ===

=== CODE BLOCK ADDRESS 0x2930 ===
  0x2930	pop    	ebx
  0x2931	dec    	eax
  0x2932	jmp    	dword ptr [0x1910]
  === BLOCK LINK ===
    0x2938
=== CODE BLOCK END ===

=== CODE BLOCK ADDRESS 0x2938 ===
  0x2938	int3   	
  0x2939	int3   	
  0x293a	int3   	
  0x293b	int3   	
  0x293c	int3   	
  === BLOCK LINK ===
    0x293d
=== CODE BLOCK END ===

=== CODE BLOCK ADDRESS 0x293d ===
  0x293d	int3   	
  0x293e	int3   	
  0x293f	int3   	
  0x2940	dec    	eax
  0x2941	mov    	dword ptr [esp + 8], ecx
  === BLOCK LINK ===
    0x2945
=== CODE BLOCK END ===

=== CODE BLOCK ADDRESS 0x2945 ===
  0x2945	dec    	eax
  0x2946	sub    	esp, 0x88
  0x294c	dec    	eax
  0x294d	lea    	ecx, [0x37dd]
  0x2953	call   	dword ptr [0x192f]
  === BLOCK LINK ===
    0x2959
=== CODE BLOCK END ===

=== CODE BLOCK ADDRESS 0x2959 ===
  0x2959	dec    	eax
  0x295a	mov    	eax, dword ptr [0x38c8]
  0x2960	dec    	eax
  0x2961	mov    	dword ptr [esp + 0x48], eax
  0x2965	inc    	ebp
  === BLOCK LINK ===
    0x2966
=== CODE BLOCK END ===

=== CODE BLOCK ADDRESS 0x2966 ===
  0x2966	xor    	eax, eax
  0x2968	dec    	eax
  0x2969	lea    	edx, [esp + 0x50]
  0x296d	dec    	eax
  0x296e	mov    	ecx, dword ptr [esp + 0x48]
  === BLOCK LINK ===
    0x2972
=== CODE BLOCK END ===

=== CODE BLOCK ADDRESS 0x2972 ===
  0x2972	call   	dword ptr [0x1918]
  === BLOCK LINK ===
    0x2978
=== CODE BLOCK END ===

=== CODE BLOCK ADDRESS 0x2978 ===
  0x2978	dec    	eax
  0x2979	mov    	dword ptr [esp + 0x40], eax
  0x297d	dec    	eax
  0x297e	cmp    	dword ptr [esp + 0x40], 0
  0x2983	je     	0x29c7
  === BLOCK LINK ===
    0x2985
=== CODE BLOCK END ===

=== CODE BLOCK ADDRESS 0x2985 ===
  0x2985	dec    	eax
  0x2986	mov    	dword ptr [esp + 0x38], 0
  0x298e	dec    	eax
  0x298f	lea    	eax, [esp + 0x58]
  0x2993	dec    	eax
  === BLOCK LINK ===
    0x2994
=== CODE BLOCK END ===

=== CODE BLOCK ADDRESS 0x2994 ===
  0x2994	mov    	dword ptr [esp + 0x30], eax
  0x2998	dec    	eax
  0x2999	lea    	eax, [esp + 0x60]
  0x299d	dec    	eax
  0x299e	mov    	dword ptr [esp + 0x28], eax
  === BLOCK LINK ===
    0x29a2
=== CODE BLOCK END ===

=== CODE BLOCK ADDRESS 0x29a2 ===
  0x29a2	dec    	eax
  0x29a3	lea    	eax, [0x3787]
  0x29a9	dec    	eax
  0x29aa	mov    	dword ptr [esp + 0x20], eax
  0x29ae	dec    	esp
  === BLOCK LINK ===
    0x29af
=== CODE BLOCK END ===

=== CODE BLOCK ADDRESS 0x29af ===
  0x29af	mov    	ecx, dword ptr [esp + 0x40]
  0x29b3	dec    	esp
  0x29b4	mov    	eax, dword ptr [esp + 0x48]
  0x29b8	dec    	eax
  0x29b9	mov    	edx, dword ptr [esp + 0x50]
  === BLOCK LINK ===
    0x29bd
=== CODE BLOCK END ===

=== CODE BLOCK ADDRESS 0x29bd ===
  0x29bd	xor    	ecx, ecx
  0x29bf	call   	dword ptr [0x18d3]
  === BLOCK LINK ===
    0x29c5
=== CODE BLOCK END ===

=== CODE BLOCK ADDRESS 0x29c5 ===
  0x29c5	jmp    	0x29ea
  === BLOCK LINK ===
    0x29c7
=== CODE BLOCK END ===

=== CODE BLOCK ADDRESS 0x29c7 ===
  0x29c7	dec    	eax
  0x29c8	mov    	eax, dword ptr [0x37fa]
  0x29ce	dec    	eax
  0x29cf	mov    	eax, dword ptr [eax]
  0x29d1	dec    	eax
  === BLOCK LINK ===
    0x29d2
=== CODE BLOCK END ===

=== CODE BLOCK ADDRESS 0x29d2 ===
  0x29d2	mov    	dword ptr [0x3850], eax
  0x29d8	dec    	eax
  0x29d9	mov    	eax, dword ptr [0x37e9]
  0x29df	dec    	eax
  0x29e0	add    	eax, 8
  === BLOCK LINK ===
    0x29e3
=== CODE BLOCK END ===

=== CODE BLOCK ADDRESS 0x29e3 ===
  0x29e3	dec    	eax
  0x29e4	mov    	dword ptr [0x37de], eax
  0x29ea	dec    	eax
  0x29eb	mov    	eax, dword ptr [0x3837]
  0x29f1	dec    	eax
  === BLOCK LINK ===
    0x29f2
=== CODE BLOCK END ===

=== CODE BLOCK ADDRESS 0x29f2 ===
  0x29f2	mov    	dword ptr [0x36a8], eax
  0x29f8	dec    	eax
  0x29f9	mov    	eax, dword ptr [esp + 0x90]
  0x2a00	dec    	eax
  0x2a01	mov    	dword ptr [0x37a9], eax
  === BLOCK LINK ===
    0x2a07
=== CODE BLOCK END ===

=== CODE BLOCK ADDRESS 0x2a07 ===
  0x2a07	mov    	dword ptr [0x367f], 0xc0000409
  0x2a11	mov    	dword ptr [0x3679], 1
  0x2a1b	mov    	dword ptr [0x3683], 3
  0x2a25	mov    	eax, 8
  0x2a2a	dec    	eax
  === BLOCK LINK ===
    0x2a2b
=== CODE BLOCK END ===

=== CODE BLOCK ADDRESS 0x2a2b ===
  0x2a2b	imul   	eax, eax, 0
  0x2a2e	dec    	eax
  0x2a2f	lea    	ecx, [0x367b]
  0x2a35	dec    	eax
  0x2a36	mov    	dword ptr [ecx + eax], 2
  === BLOCK LINK ===
    0x2a3d
=== CODE BLOCK END ===

=== CODE BLOCK ADDRESS 0x2a3d ===
  0x2a3d	mov    	eax, 8
  0x2a42	dec    	eax
  0x2a43	imul   	eax, eax, 1
  0x2a46	dec    	eax
  0x2a47	lea    	ecx, [0x3663]
  === BLOCK LINK ===
    0x2a4d
=== CODE BLOCK END ===

=== CODE BLOCK ADDRESS 0x2a4d ===
  0x2a4d	dec    	eax
  0x2a4e	mov    	edx, dword ptr [0x35b4]
  0x2a54	dec    	eax
  0x2a55	mov    	dword ptr [ecx + eax], edx
  0x2a58	mov    	eax, 8
  === BLOCK LINK ===
    0x2a5d
=== CODE BLOCK END ===

=== CODE BLOCK ADDRESS 0x2a5d ===
  0x2a5d	dec    	eax
  0x2a5e	imul   	eax, eax, 2
  0x2a61	dec    	eax
  0x2a62	lea    	ecx, [0x3648]
  0x2a68	dec    	eax
  === BLOCK LINK ===
    0x2a69
=== CODE BLOCK END ===

=== CODE BLOCK ADDRESS 0x2a69 ===
  0x2a69	mov    	edx, dword ptr [0x35a1]
  0x2a6f	dec    	eax
  0x2a70	mov    	dword ptr [ecx + eax], edx
  0x2a73	mov    	eax, 8
  0x2a78	dec    	eax
  === BLOCK LINK ===
    0x2a79
=== CODE BLOCK END ===

=== CODE BLOCK ADDRESS 0x2a79 ===
  0x2a79	imul   	eax, eax, 0
  0x2a7c	dec    	eax
  0x2a7d	mov    	ecx, dword ptr [0x3585]
  0x2a83	dec    	eax
  0x2a84	mov    	dword ptr [esp + eax + 0x68], ecx
  === BLOCK LINK ===
    0x2a88
=== CODE BLOCK END ===

=== CODE BLOCK ADDRESS 0x2a88 ===
  0x2a88	mov    	eax, 8
  0x2a8d	dec    	eax
  0x2a8e	imul   	eax, eax, 1
  0x2a91	dec    	eax
  0x2a92	mov    	ecx, dword ptr [0x3578]
  === BLOCK LINK ===
    0x2a98
=== CODE BLOCK END ===

=== CODE BLOCK ADDRESS 0x2a98 ===
  0x2a98	dec    	eax
  0x2a99	mov    	dword ptr [esp + eax + 0x68], ecx
  0x2a9d	dec    	eax
  0x2a9e	lea    	ecx, [0x155c]
  0x2aa4	call   	0x2904
  === BLOCK LINK ===
    0x2aa9
=== CODE BLOCK END ===

=== CODE BLOCK ADDRESS 0x2aa9 ===
  0x2aa9	dec    	eax
  0x2aaa	add    	esp, 0x88
  0x2ab0	ret    	
  0x2ab1	int3   	
  0x2ab2	int3   	
  === BLOCK LINK ===
    0x2ab3
=== CODE BLOCK END ===

=== CODE BLOCK ADDRESS 0x2ab3 ===
  0x2ab3	int3   	
  0x2ab4	int3   	
  0x2ab5	int3   	
  0x2ab6	int3   	
  0x2ab7	jmp    	dword ptr [0x186b]
  === BLOCK LINK ===
    0x2abd
=== CODE BLOCK END ===

=== CODE BLOCK ADDRESS 0x2abd ===
  0x2abd	int3   	
  0x2abe	int3   	
  0x2abf	int3   	
  0x2ac0	int3   	
  0x2ac1	int3   	
  === BLOCK LINK ===
    0x2ac2
=== CODE BLOCK END ===

=== CODE BLOCK ADDRESS 0x2ac2 ===
  0x2ac2	int3   	
  0x2ac3	int3   	
  0x2ac4	int3   	
  0x2ac5	int3   	
  0x2ac6	int3   	
  === BLOCK LINK ===
    0x2ac7
=== CODE BLOCK END ===

=== CODE BLOCK ADDRESS 0x2ac7 ===
  0x2ac7	int3   	
  0x2ac8	int3   	
  0x2ac9	int3   	
  0x2aca	int3   	
  0x2acb	int3   	
  === BLOCK LINK ===
    0x2acc
=== CODE BLOCK END ===

=== CODE BLOCK ADDRESS 0x2acc ===
  0x2acc	int3   	
  0x2acd	int3   	
  0x2ace	int3   	
  0x2acf	int3   	
  0x2ad0	dec    	eax
  === BLOCK LINK ===
    0x2ad1
=== CODE BLOCK END ===

=== CODE BLOCK ADDRESS 0x2ad1 ===
  0x2ad1	sub    	esp, 0x28
  0x2ad4	dec    	eax
  0x2ad5	mov    	eax, dword ptr [ecx]
  0x2ad7	cmp    	dword ptr [eax], 0xe06d7363
  0x2add	jne    	0x2b02
  === BLOCK LINK ===
    0x2adf
=== CODE BLOCK END ===

=== CODE BLOCK ADDRESS 0x2adf ===
  0x2adf	cmp    	dword ptr [eax + 0x18], 4
  0x2ae3	jne    	0x2b02
  === BLOCK LINK ===
    0x2ae5
=== CODE BLOCK END ===

=== CODE BLOCK ADDRESS 0x2ae5 ===
  0x2ae5	mov    	ecx, dword ptr [eax + 0x20]
  0x2ae8	lea    	eax, [ecx - 0x19930520]
  0x2aee	cmp    	eax, 2
  0x2af1	jbe    	0x2afb
  === BLOCK LINK ===
    0x2af3
=== CODE BLOCK END ===

=== CODE BLOCK ADDRESS 0x2af3 ===
  0x2af3	cmp    	ecx, 0x1994000
  0x2af9	jne    	0x2b02
  === BLOCK LINK ===
    0x2afb
=== CODE BLOCK END ===

=== CODE BLOCK ADDRESS 0x2afb ===
  0x2afb	call   	dword ptr [0x183f]
  === BLOCK LINK ===
    0x2b01
=== CODE BLOCK END ===

=== CODE BLOCK ADDRESS 0x2b01 ===
  0x2b01	int3   	
  0x2b02	xor    	eax, eax
  0x2b04	dec    	eax
  0x2b05	add    	esp, 0x28
  0x2b08	ret    	
  === BLOCK LINK ===
    0x2b09
=== CODE BLOCK END ===

=== CODE BLOCK ADDRESS 0x2b09 ===
  0x2b09	int3   	
  0x2b0a	int3   	
  0x2b0b	int3   	
  0x2b0c	int3   	
  0x2b0d	int3   	
  === BLOCK LINK ===
    0x2b0e
=== CODE BLOCK END ===

=== CODE BLOCK ADDRESS 0x2b0e ===
  0x2b0e	int3   	
  0x2b0f	int3   	
  0x2b10	dec    	eax
  0x2b11	sub    	esp, 0x28
  0x2b14	dec    	eax
  === BLOCK LINK ===
    0x2b15
=== CODE BLOCK END ===

=== CODE BLOCK ADDRESS 0x2b15 ===
  0x2b15	lea    	ecx, [0xffffffb5]
  0x2b1b	call   	dword ptr [0x167f]
  === BLOCK LINK ===
    0x2b21
=== CODE BLOCK END ===

=== CODE BLOCK ADDRESS 0x2b21 ===
  0x2b21	xor    	eax, eax
  0x2b23	dec    	eax
  0x2b24	add    	esp, 0x28
  0x2b27	ret    	
  0x2b28	int3   	
  === BLOCK LINK ===
    0x2b29
=== CODE BLOCK END ===

=== CODE BLOCK ADDRESS 0x2b29 ===
  0x2b29	int3   	
  0x2b2a	int3   	
  0x2b2b	int3   	
  0x2b2c	int3   	
  0x2b2d	int3   	
  === BLOCK LINK ===
    0x2b2e
=== CODE BLOCK END ===

=== CODE BLOCK ADDRESS 0x2b2e ===
  0x2b2e	jmp    	dword ptr [0x1874]
  === BLOCK LINK ===
    0x2b34
=== CODE BLOCK END ===

=== CODE BLOCK ADDRESS 0x2b34 ===
  0x2b34	int3   	
  0x2b35	int3   	
  0x2b36	int3   	
  0x2b37	int3   	
  0x2b38	int3   	
  === BLOCK LINK ===
    0x2b39
=== CODE BLOCK END ===

=== CODE BLOCK ADDRESS 0x2b39 ===
  0x2b39	int3   	
  0x2b3a	int3   	
  0x2b3b	int3   	
  0x2b3c	dec    	eax
  0x2b3d	sub    	esp, 0x18
  === BLOCK LINK ===
    0x2b40
=== CODE BLOCK END ===

=== CODE BLOCK ADDRESS 0x2b40 ===
  0x2b40	xor    	edx, edx
  0x2b42	dec    	eax
  0x2b43	lea    	eax, [ecx - 1]
  0x2b46	dec    	eax
  0x2b47	cmp    	eax, -3
  === BLOCK LINK ===
    0x2b4a
=== CODE BLOCK END ===

=== CODE BLOCK ADDRESS 0x2b4a ===
  0x2b4a	ja     	0x2b88
  === BLOCK LINK ===
    0x2b4c
=== CODE BLOCK END ===

=== CODE BLOCK ADDRESS 0x2b4c ===
  0x2b4c	mov    	eax, 0x5a4d
  0x2b51	cmp    	word ptr [ecx], ax
  0x2b54	jne    	0x2b80
  === BLOCK LINK ===
    0x2b56
=== CODE BLOCK END ===

=== CODE BLOCK ADDRESS 0x2b56 ===
  0x2b56	cmp    	dword ptr [ecx + 0x3c], edx
  0x2b59	jl     	0x2b80
  === BLOCK LINK ===
    0x2b5b
=== CODE BLOCK END ===

=== CODE BLOCK ADDRESS 0x2b5b ===
  0x2b5b	cmp    	dword ptr [ecx + 0x3c], 0x10000000
  0x2b62	jae    	0x2b80
  === BLOCK LINK ===
    0x2b64
=== CODE BLOCK END ===

=== CODE BLOCK ADDRESS 0x2b64 ===
  0x2b64	dec    	eax
  0x2b65	arpl   	word ptr [ecx + 0x3c], ax
  0x2b68	dec    	eax
  0x2b69	add    	eax, ecx
  0x2b6b	dec    	eax
  === BLOCK LINK ===
    0x2b6c
=== CODE BLOCK END ===

=== CODE BLOCK ADDRESS 0x2b6c ===
  0x2b6c	mov    	dword ptr [esp], eax
  0x2b6f	cmp    	dword ptr [eax], 0x4550
  0x2b75	dec    	eax
  0x2b76	cmovne  	eax, edx
  0x2b79	dec    	eax
  === BLOCK LINK ===
    0x2b7a
=== CODE BLOCK END ===

=== CODE BLOCK ADDRESS 0x2b7a ===
  0x2b7a	mov    	edx, eax
  0x2b7c	dec    	eax
  0x2b7d	mov    	dword ptr [esp], eax
  0x2b80	jmp    	0x2b88
  === BLOCK LINK ===
    0x2b82
=== CODE BLOCK END ===

=== CODE BLOCK ADDRESS 0x2b82 ===
  0x2b82	xor    	edx, edx
  0x2b84	dec    	eax
  0x2b85	mov    	dword ptr [esp], edx
  0x2b88	dec    	eax
  0x2b89	mov    	eax, edx
  === BLOCK LINK ===
    0x2b8b
=== CODE BLOCK END ===

=== CODE BLOCK ADDRESS 0x2b8b ===
  0x2b8b	dec    	eax
  0x2b8c	add    	esp, 0x18
  0x2b8f	ret    	
  0x2b90	int3   	
  0x2b91	int3   	
  === BLOCK LINK ===
    0x2b92
=== CODE BLOCK END ===

=== CODE BLOCK ADDRESS 0x2b92 ===
  0x2b92	int3   	
  0x2b93	int3   	
  0x2b94	int3   	
  0x2b95	int3   	
  0x2b96	int3   	
  === BLOCK LINK ===
    0x2b97
=== CODE BLOCK END ===

=== CODE BLOCK ADDRESS 0x2b97 ===
  0x2b97	int3   	
  0x2b98	inc    	eax
  0x2b99	push   	ebx
  0x2b9a	dec    	eax
  0x2b9b	sub    	esp, 0x20
  === BLOCK LINK ===
    0x2b9e
=== CODE BLOCK END ===

=== CODE BLOCK ADDRESS 0x2b9e ===
  0x2b9e	mov    	ebx, ecx
  0x2ba0	xor    	ecx, ecx
  0x2ba2	call   	dword ptr [0x1648]
  === BLOCK LINK ===
    0x2ba8
=== CODE BLOCK END ===

=== CODE BLOCK ADDRESS 0x2ba8 ===
  0x2ba8	dec    	eax
  0x2ba9	test   	eax, eax
  0x2bab	je     	0x2bd5
  === BLOCK LINK ===
    0x2bad
=== CODE BLOCK END ===

=== CODE BLOCK ADDRESS 0x2bad ===
  0x2bad	dec    	eax
  0x2bae	mov    	ecx, eax
  0x2bb0	call   	0x2b3c
  === BLOCK LINK ===
    0x2bb5
=== CODE BLOCK END ===

=== CODE BLOCK ADDRESS 0x2bb5 ===
  0x2bb5	dec    	eax
  0x2bb6	test   	eax, eax
  0x2bb8	je     	0x2bd5
  === BLOCK LINK ===
    0x2bba
=== CODE BLOCK END ===

=== CODE BLOCK ADDRESS 0x2bba ===
  0x2bba	mov    	ecx, 2
  0x2bbf	cmp    	word ptr [eax + 0x5c], cx
  0x2bc3	jne    	0x2bc9
  === BLOCK LINK ===
    0x2bc5
=== CODE BLOCK END ===

=== CODE BLOCK ADDRESS 0x2bc5 ===
  0x2bc5	mov    	eax, ecx
  0x2bc7	jmp    	0x2bd7
  === BLOCK LINK ===
    0x2bc9
=== CODE BLOCK END ===

=== CODE BLOCK ADDRESS 0x2bc9 ===
  0x2bc9	cmp    	word ptr [eax + 0x5c], 3
  0x2bce	mov    	eax, 1
  0x2bd3	je     	0x2bd7
  === BLOCK LINK ===
    0x2bd5
=== CODE BLOCK END ===

=== CODE BLOCK ADDRESS 0x2bd5 ===
  0x2bd5	mov    	eax, ebx
  0x2bd7	dec    	eax
  0x2bd8	add    	esp, 0x20
  0x2bdb	pop    	ebx
  0x2bdc	ret    	
  === BLOCK LINK ===
    0x2bdd
=== CODE BLOCK END ===

=== CODE BLOCK ADDRESS 0x2bdd ===
  0x2bdd	int3   	
  0x2bde	int3   	
  0x2bdf	int3   	
  0x2be0	int3   	
  0x2be1	int3   	
  === BLOCK LINK ===
    0x2be2
=== CODE BLOCK END ===

=== CODE BLOCK ADDRESS 0x2be2 ===
  0x2be2	int3   	
  0x2be3	jmp    	dword ptr [0x17b7]
  === BLOCK LINK ===
    0x2be9
=== CODE BLOCK END ===

=== CODE BLOCK ADDRESS 0x2be9 ===
  0x2be9	int3   	
  0x2bea	int3   	
  0x2beb	int3   	
  0x2bec	int3   	
  0x2bed	int3   	
  === BLOCK LINK ===
    0x2bee
=== CODE BLOCK END ===

=== CODE BLOCK ADDRESS 0x2bee ===
  0x2bee	int3   	
  0x2bef	int3   	
  0x2bf0	xor    	eax, eax
  0x2bf2	ret    	
  0x2bf3	int3   	
  === BLOCK LINK ===
    0x2bf4
=== CODE BLOCK END ===

=== CODE BLOCK ADDRESS 0x2bf4 ===
  0x2bf4	int3   	
  0x2bf5	int3   	
  0x2bf6	int3   	
  0x2bf7	int3   	
  0x2bf8	int3   	
  === BLOCK LINK ===
    0x2bf9
=== CODE BLOCK END ===

=== CODE BLOCK ADDRESS 0x2bf9 ===
  0x2bf9	int3   	
  0x2bfa	int3   	
  0x2bfb	int3   	
  0x2bfc	int3   	
  0x2bfd	int3   	
  === BLOCK LINK ===
    0x2bfe
=== CODE BLOCK END ===

=== CODE BLOCK ADDRESS 0x2bfe ===
  0x2bfe	int3   	
  0x2bff	int3   	
  0x2c00	dec    	esp
  0x2c01	arpl   	word ptr [ecx + 0x3c], ax
  0x2c04	inc    	ebp
  === BLOCK LINK ===
    0x2c05
=== CODE BLOCK END ===

=== CODE BLOCK ADDRESS 0x2c05 ===
  0x2c05	xor    	ecx, ecx
  0x2c07	dec    	esp
  0x2c08	add    	eax, ecx
  0x2c0a	dec    	esp
  0x2c0b	mov    	edx, edx
  === BLOCK LINK ===
    0x2c0d
=== CODE BLOCK END ===

=== CODE BLOCK ADDRESS 0x2c0d ===
  0x2c0d	inc    	ecx
  0x2c0e	movzx  	eax, word ptr [eax + 0x14]
  0x2c12	inc    	ebp
  0x2c13	movzx  	ebx, word ptr [eax + 6]
  0x2c17	dec    	eax
  === BLOCK LINK ===
    0x2c18
=== CODE BLOCK END ===

=== CODE BLOCK ADDRESS 0x2c18 ===
  0x2c18	add    	eax, 0x18
  0x2c1b	dec    	ecx
  0x2c1c	add    	eax, eax
  0x2c1e	inc    	ebp
  0x2c1f	test   	ebx, ebx
  === BLOCK LINK ===
    0x2c21
=== CODE BLOCK END ===

=== CODE BLOCK ADDRESS 0x2c21 ===
  0x2c21	je     	0x2c41
  === BLOCK LINK ===
    0x2c23
=== CODE BLOCK END ===

=== CODE BLOCK ADDRESS 0x2c23 ===
  0x2c23	mov    	edx, dword ptr [eax + 0xc]
  0x2c26	dec    	esp
  0x2c27	cmp    	edx, edx
  0x2c29	jb     	0x2c35
  === BLOCK LINK ===
    0x2c2b
=== CODE BLOCK END ===

=== CODE BLOCK ADDRESS 0x2c2b ===
  0x2c2b	mov    	ecx, dword ptr [eax + 8]
  0x2c2e	add    	ecx, edx
  0x2c30	dec    	esp
  0x2c31	cmp    	edx, ecx
  0x2c33	jb     	0x2c43
  === BLOCK LINK ===
    0x2c35
=== CODE BLOCK END ===

=== CODE BLOCK ADDRESS 0x2c35 ===
  0x2c35	inc    	ecx
  0x2c36	inc    	ecx
  0x2c38	dec    	eax
  0x2c39	add    	eax, 0x28
  0x2c3c	inc    	ebp
  === BLOCK LINK ===
    0x2c3d
=== CODE BLOCK END ===

=== CODE BLOCK ADDRESS 0x2c3d ===
  0x2c3d	cmp    	ecx, ebx
  0x2c3f	jb     	0x2c23
  === BLOCK LINK ===
    0x2c41
=== CODE BLOCK END ===

=== CODE BLOCK ADDRESS 0x2c41 ===
  0x2c41	xor    	eax, eax
  0x2c43	ret    	
  0x2c44	int3   	
  0x2c45	int3   	
  0x2c46	int3   	
  === BLOCK LINK ===
    0x2c47
=== CODE BLOCK END ===

=== CODE BLOCK ADDRESS 0x2c47 ===
  0x2c47	int3   	
  0x2c48	int3   	
  0x2c49	int3   	
  0x2c4a	int3   	
  0x2c4b	int3   	
  === BLOCK LINK ===
    0x2c4c
=== CODE BLOCK END ===

=== CODE BLOCK ADDRESS 0x2c4c ===
  0x2c4c	int3   	
  0x2c4d	int3   	
  0x2c4e	int3   	
  0x2c4f	int3   	
  0x2c50	dec    	eax
  === BLOCK LINK ===
    0x2c51
=== CODE BLOCK END ===

=== CODE BLOCK ADDRESS 0x2c51 ===
  0x2c51	mov    	dword ptr [esp + 8], ebx
  0x2c55	push   	edi
  0x2c56	dec    	eax
  0x2c57	sub    	esp, 0x20
  0x2c5a	dec    	eax
  === BLOCK LINK ===
    0x2c5b
=== CODE BLOCK END ===

=== CODE BLOCK ADDRESS 0x2c5b ===
  0x2c5b	mov    	ebx, ecx
  0x2c5d	dec    	eax
  0x2c5e	lea    	edi, [0xffffd39c]
  0x2c64	dec    	eax
  0x2c65	mov    	ecx, edi
  === BLOCK LINK ===
    0x2c67
=== CODE BLOCK END ===

=== CODE BLOCK ADDRESS 0x2c67 ===
  0x2c67	call   	0x2cb0
  === BLOCK LINK ===
    0x2c6c
=== CODE BLOCK END ===

=== CODE BLOCK ADDRESS 0x2c6c ===
  0x2c6c	test   	eax, eax
  0x2c6e	je     	0x2c92
  === BLOCK LINK ===
    0x2c70
=== CODE BLOCK END ===

=== CODE BLOCK ADDRESS 0x2c70 ===
  0x2c70	dec    	eax
  0x2c71	sub    	ebx, edi
  0x2c73	dec    	eax
  0x2c74	mov    	edx, ebx
  0x2c76	dec    	eax
  === BLOCK LINK ===
    0x2c77
=== CODE BLOCK END ===

=== CODE BLOCK ADDRESS 0x2c77 ===
  0x2c77	mov    	ecx, edi
  0x2c79	call   	0x2c00
  === BLOCK LINK ===
    0x2c7e
=== CODE BLOCK END ===

=== CODE BLOCK ADDRESS 0x2c7e ===
  0x2c7e	dec    	eax
  0x2c7f	test   	eax, eax
  0x2c81	je     	0x2c92
  === BLOCK LINK ===
    0x2c83
=== CODE BLOCK END ===

=== CODE BLOCK ADDRESS 0x2c83 ===
  0x2c83	mov    	eax, dword ptr [eax + 0x24]
  0x2c86	shr    	eax, 0x1f
  0x2c89	not    	eax
  0x2c8b	and    	eax, 1
  0x2c8e	jmp    	0x2c92
  === BLOCK LINK ===
    0x2c90
=== CODE BLOCK END ===

=== CODE BLOCK ADDRESS 0x2c90 ===
  0x2c90	xor    	eax, eax
  0x2c92	dec    	eax
  0x2c93	mov    	ebx, dword ptr [esp + 0x30]
  0x2c97	dec    	eax
  0x2c98	add    	esp, 0x20
  === BLOCK LINK ===
    0x2c9b
=== CODE BLOCK END ===

=== CODE BLOCK ADDRESS 0x2c9b ===
  0x2c9b	pop    	edi
  0x2c9c	ret    	
  0x2c9d	int3   	
  0x2c9e	int3   	
  0x2c9f	int3   	
  === BLOCK LINK ===
    0x2ca0
=== CODE BLOCK END ===

=== CODE BLOCK ADDRESS 0x2ca0 ===
  0x2ca0	int3   	
  0x2ca1	int3   	
  0x2ca2	int3   	
  0x2ca3	int3   	
  0x2ca4	int3   	
  === BLOCK LINK ===
    0x2ca5
=== CODE BLOCK END ===

=== CODE BLOCK ADDRESS 0x2ca5 ===
  0x2ca5	int3   	
  0x2ca6	int3   	
  0x2ca7	int3   	
  0x2ca8	int3   	
  0x2ca9	int3   	
  === BLOCK LINK ===
    0x2caa
=== CODE BLOCK END ===

=== CODE BLOCK ADDRESS 0x2caa ===
  0x2caa	int3   	
  0x2cab	int3   	
  0x2cac	int3   	
  0x2cad	int3   	
  0x2cae	int3   	
  === BLOCK LINK ===
    0x2caf
=== CODE BLOCK END ===

=== CODE BLOCK ADDRESS 0x2caf ===
  0x2caf	int3   	
  0x2cb0	mov    	eax, 0x5a4d
  0x2cb5	cmp    	word ptr [ecx], ax
  0x2cb8	jne    	0x2cda
  === BLOCK LINK ===
    0x2cba
=== CODE BLOCK END ===

=== CODE BLOCK ADDRESS 0x2cba ===
  0x2cba	dec    	eax
  0x2cbb	arpl   	word ptr [ecx + 0x3c], ax
  0x2cbe	dec    	eax
  0x2cbf	add    	eax, ecx
  0x2cc1	cmp    	dword ptr [eax], 0x4550
  === BLOCK LINK ===
    0x2cc7
=== CODE BLOCK END ===

=== CODE BLOCK ADDRESS 0x2cc7 ===
  0x2cc7	jne    	0x2cda
  === BLOCK LINK ===
    0x2cc9
=== CODE BLOCK END ===

=== CODE BLOCK ADDRESS 0x2cc9 ===
  0x2cc9	mov    	ecx, 0x20b
  0x2cce	cmp    	word ptr [eax + 0x18], cx
  0x2cd2	jne    	0x2cda
  === BLOCK LINK ===
    0x2cd4
=== CODE BLOCK END ===

=== CODE BLOCK ADDRESS 0x2cd4 ===
  0x2cd4	mov    	eax, 1
  0x2cd9	ret    	
  0x2cda	xor    	eax, eax
  0x2cdc	ret    	
  0x2cdd	int3   	
  === BLOCK LINK ===
    0x2cde
=== CODE BLOCK END ===

=== CODE BLOCK ADDRESS 0x2cde ===
  0x2cde	int3   	
  0x2cdf	int3   	
  0x2ce0	int3   	
  0x2ce1	int3   	
  0x2ce2	int3   	
  === BLOCK LINK ===
    0x2ce3
=== CODE BLOCK END ===

=== CODE BLOCK ADDRESS 0x2ce3 ===
  0x2ce3	int3   	
  0x2ce4	dec    	eax
  0x2ce5	mov    	dword ptr [esp + 0x20], ebx
  0x2ce9	push   	ebp
  0x2cea	dec    	eax
  === BLOCK LINK ===
    0x2ceb
=== CODE BLOCK END ===

=== CODE BLOCK ADDRESS 0x2ceb ===
  0x2ceb	mov    	ebp, esp
  0x2ced	dec    	eax
  0x2cee	sub    	esp, 0x20
  0x2cf1	dec    	eax
  0x2cf2	and    	dword ptr [ebp + 0x18], 0
  === BLOCK LINK ===
    0x2cf6
=== CODE BLOCK END ===

=== CODE BLOCK ADDRESS 0x2cf6 ===
  0x2cf6	dec    	eax
  0x2cf7	mov    	ebx, 0x2ddfa232
  0x2cfc	cdq    	
  0x2cfd	sub    	eax, dword ptr [eax]
  0x2cff	add    	byte ptr [eax - 0x75], cl
  === BLOCK LINK ===
    0x2d02
=== CODE BLOCK END ===

=== CODE BLOCK ADDRESS 0x2d02 ===
  0x2d02	add    	eax, 0x3301
  0x2d07	dec    	eax
  0x2d08	cmp    	eax, ebx
  0x2d0a	jne    	0x2da3
  === BLOCK LINK ===
    0x2d10
=== CODE BLOCK END ===

=== CODE BLOCK ADDRESS 0x2d10 ===
  0x2d10	dec    	eax
  0x2d11	lea    	ecx, [ebp + 0x18]
  0x2d14	call   	dword ptr [0x15b6]
  === BLOCK LINK ===
    0x2d1a
=== CODE BLOCK END ===

=== CODE BLOCK ADDRESS 0x2d1a ===
  0x2d1a	dec    	eax
  0x2d1b	mov    	eax, dword ptr [ebp + 0x18]
  0x2d1e	dec    	eax
  0x2d1f	mov    	dword ptr [ebp + 0x10], eax
  0x2d22	call   	dword ptr [0x1518]
  === BLOCK LINK ===
    0x2d28
=== CODE BLOCK END ===

=== CODE BLOCK ADDRESS 0x2d28 ===
  0x2d28	mov    	eax, eax
  0x2d2a	dec    	eax
  0x2d2b	xor    	dword ptr [ebp + 0x10], eax
  0x2d2e	call   	dword ptr [0x1504]
  === BLOCK LINK ===
    0x2d34
=== CODE BLOCK END ===

=== CODE BLOCK ADDRESS 0x2d34 ===
  0x2d34	mov    	eax, eax
  0x2d36	dec    	eax
  0x2d37	xor    	dword ptr [ebp + 0x10], eax
  0x2d3a	call   	dword ptr [0x1598]
  === BLOCK LINK ===
    0x2d40
=== CODE BLOCK END ===

=== CODE BLOCK ADDRESS 0x2d40 ===
  0x2d40	mov    	eax, eax
  0x2d42	dec    	eax
  0x2d43	shl    	eax, 0x18
  0x2d46	dec    	eax
  0x2d47	xor    	dword ptr [ebp + 0x10], eax
  === BLOCK LINK ===
    0x2d4a
=== CODE BLOCK END ===

=== CODE BLOCK ADDRESS 0x2d4a ===
  0x2d4a	call   	dword ptr [0x1588]
  === BLOCK LINK ===
    0x2d50
=== CODE BLOCK END ===

=== CODE BLOCK ADDRESS 0x2d50 ===
  0x2d50	mov    	eax, eax
  0x2d52	dec    	eax
  0x2d53	lea    	ecx, [ebp + 0x10]
  0x2d56	dec    	eax
  0x2d57	xor    	eax, dword ptr [ebp + 0x10]
  === BLOCK LINK ===
    0x2d5a
=== CODE BLOCK END ===

=== CODE BLOCK ADDRESS 0x2d5a ===
  0x2d5a	dec    	eax
  0x2d5b	xor    	eax, ecx
  0x2d5d	dec    	eax
  0x2d5e	lea    	ecx, [ebp + 0x20]
  0x2d61	dec    	eax
  === BLOCK LINK ===
    0x2d62
=== CODE BLOCK END ===

=== CODE BLOCK ADDRESS 0x2d62 ===
  0x2d62	mov    	dword ptr [ebp + 0x10], eax
  0x2d65	call   	dword ptr [0x14ed]
  === BLOCK LINK ===
    0x2d6b
=== CODE BLOCK END ===

=== CODE BLOCK ADDRESS 0x2d6b ===
  0x2d6b	mov    	eax, dword ptr [ebp + 0x20]
  0x2d6e	dec    	eax
  0x2d6f	mov    	ecx, 0xffffffff
  0x2d74	.byte  	0xff
  0x2d75	inc    	dword ptr [eax]
  === BLOCK LINK ===
    0x2d77
=== CODE BLOCK END ===

=== CODE BLOCK ADDRESS 0x2d77 ===
  0x2d77	add    	byte ptr [eax - 0x3f], cl
  0x2d7a	loopne  	0x2d9c
  === BLOCK LINK ===
    0x2d7c
=== CODE BLOCK END ===

=== CODE BLOCK ADDRESS 0x2d7c ===
  0x2d7c	dec    	eax
  0x2d7d	xor    	eax, dword ptr [ebp + 0x20]
  0x2d80	dec    	eax
  0x2d81	xor    	eax, dword ptr [ebp + 0x10]
  0x2d84	dec    	eax
  === BLOCK LINK ===
    0x2d85
=== CODE BLOCK END ===

=== CODE BLOCK ADDRESS 0x2d85 ===
  0x2d85	and    	eax, ecx
  0x2d87	dec    	eax
  0x2d88	mov    	ecx, eax
  0x2d8a	dec    	eax
  0x2d8b	cmp    	eax, ebx
  === BLOCK LINK ===
    0x2d8d
=== CODE BLOCK END ===

=== CODE BLOCK ADDRESS 0x2d8d ===
  0x2d8d	jne    	0x2d9c
  === BLOCK LINK ===
    0x2d8f
=== CODE BLOCK END ===

=== CODE BLOCK ADDRESS 0x2d8f ===
  0x2d8f	dec    	eax
  0x2d90	mov    	eax, 0x2ddfa233
  0x2d95	cdq    	
  0x2d96	sub    	eax, dword ptr [eax]
  0x2d98	add    	byte ptr [eax - 0x75], cl
  === BLOCK LINK ===
    0x2d9b
=== CODE BLOCK END ===

=== CODE BLOCK ADDRESS 0x2d9b ===
  0x2d9b	enter  	-0x76b8, 0xd
  0x2d9f	xor    	al, byte ptr gs:[eax]
  0x2da2	add    	byte ptr [eax - 0x75], cl
  0x2da5	pop    	esp
  0x2da6	and    	al, 0x48
  === BLOCK LINK ===
    0x2da8
=== CODE BLOCK END ===

=== CODE BLOCK ADDRESS 0x2da8 ===
  0x2da8	dec    	eax
  0x2da9	not    	eax
  0x2dab	dec    	eax
  0x2dac	mov    	dword ptr [0x325e], eax
  0x2db2	dec    	eax
  === BLOCK LINK ===
    0x2db3
=== CODE BLOCK END ===

=== CODE BLOCK ADDRESS 0x2db3 ===
  0x2db3	add    	esp, 0x20
  0x2db6	pop    	ebp
  0x2db7	ret    	
  0x2db8	int3   	
  0x2db9	int3   	
  === BLOCK LINK ===
    0x2dba
=== CODE BLOCK END ===

=== CODE BLOCK ADDRESS 0x2dba ===
  0x2dba	int3   	
  0x2dbb	int3   	
  0x2dbc	int3   	
  0x2dbd	int3   	
  0x2dbe	jmp    	dword ptr [0x15a4]
  === BLOCK LINK ===
    0x2dc4
=== CODE BLOCK END ===

=== CODE BLOCK ADDRESS 0x2dc4 ===
  0x2dc4	int3   	
  0x2dc5	int3   	
  0x2dc6	int3   	
  0x2dc7	int3   	
  0x2dc8	int3   	
  === BLOCK LINK ===
    0x2dc9
=== CODE BLOCK END ===

=== CODE BLOCK ADDRESS 0x2dc9 ===
  0x2dc9	int3   	
  0x2dca	int3   	
  0x2dcb	int3   	
  0x2dcc	int3   	
  0x2dcd	int3   	
  === BLOCK LINK ===
    0x2dce
=== CODE BLOCK END ===

=== CODE BLOCK ADDRESS 0x2dce ===
  0x2dce	int3   	
  0x2dcf	int3   	
  0x2dd0	ret    	0
  0x2dd3	int3   	
  0x2dd4	int3   	
  === BLOCK LINK ===
    0x2dd5
=== CODE BLOCK END ===

=== CODE BLOCK ADDRESS 0x2dd5 ===
  0x2dd5	int3   	
  0x2dd6	int3   	
  0x2dd7	int3   	
  0x2dd8	int3   	
  0x2dd9	int3   	
  === BLOCK LINK ===
    0x2dda
=== CODE BLOCK END ===

=== CODE BLOCK ADDRESS 0x2dda ===
  0x2dda	int3   	
  0x2ddb	int3   	
  0x2ddc	int3   	
  0x2ddd	int3   	
  0x2dde	int3   	
  === BLOCK LINK ===
    0x2ddf
=== CODE BLOCK END ===

=== CODE BLOCK ADDRESS 0x2ddf ===
  0x2ddf	int3   	
  0x2de0	int3   	
  0x2de1	int3   	
  0x2de2	int3   	
  0x2de3	int3   	
  === BLOCK LINK ===
    0x2de4
=== CODE BLOCK END ===

=== CODE BLOCK ADDRESS 0x2de4 ===
  0x2de4	int3   	
  0x2de5	int3   	
  0x2de6	int3   	
  0x2de7	int3   	
  0x2de8	dec    	eax
  === BLOCK LINK ===
    0x2de9
=== CODE BLOCK END ===

=== CODE BLOCK ADDRESS 0x2de9 ===
  0x2de9	sub    	esp, 0x28
  0x2dec	mov    	ecx, dword ptr [0x381e]
  0x2df2	cmp    	ecx, 1
  0x2df5	jne    	0x2dfb
  === BLOCK LINK ===
    0x2df7
=== CODE BLOCK END ===

=== CODE BLOCK ADDRESS 0x2df7 ===
  0x2df7	mov    	al, cl
  0x2df9	jmp    	0x2e31
  === BLOCK LINK ===
    0x2dfb
=== CODE BLOCK END ===

=== CODE BLOCK ADDRESS 0x2dfb ===
  0x2dfb	cmp    	ecx, 2
  0x2dfe	je     	0x2e2f
  === BLOCK LINK ===
    0x2e00
=== CODE BLOCK END ===

=== CODE BLOCK ADDRESS 0x2e00 ===
  0x2e00	dec    	eax
  0x2e01	lea    	edx, [esp + 0x30]
  0x2e05	mov    	byte ptr [esp + 0x30], 0
  0x2e0a	dec    	eax
  0x2e0b	lea    	ecx, [0x11ff]
  === BLOCK LINK ===
    0x2e11
=== CODE BLOCK END ===

=== CODE BLOCK ADDRESS 0x2e11 ===
  0x2e11	call   	0x2ed0
  === BLOCK LINK ===
    0x2e16
=== CODE BLOCK END ===

=== CODE BLOCK ADDRESS 0x2e16 ===
  0x2e16	test   	eax, eax
  0x2e18	js     	0x2e2f
  === BLOCK LINK ===
    0x2e1a
=== CODE BLOCK END ===

=== CODE BLOCK ADDRESS 0x2e1a ===
  0x2e1a	mov    	al, byte ptr [esp + 0x30]
  0x2e1e	mov    	cl, al
  0x2e20	neg    	cl
  0x2e22	sbb    	edx, edx
  0x2e24	add    	edx, 2
  === BLOCK LINK ===
    0x2e27
=== CODE BLOCK END ===

=== CODE BLOCK ADDRESS 0x2e27 ===
  0x2e27	mov    	dword ptr [0x37e3], edx
  0x2e2d	jmp    	0x2e31
  === BLOCK LINK ===
    0x2e2f
=== CODE BLOCK END ===

=== CODE BLOCK ADDRESS 0x2e2f ===
  0x2e2f	xor    	al, al
  0x2e31	dec    	eax
  0x2e32	add    	esp, 0x28
  0x2e35	ret    	
  0x2e36	int3   	
  === BLOCK LINK ===
    0x2e37
=== CODE BLOCK END ===

=== CODE BLOCK ADDRESS 0x2e37 ===
  0x2e37	int3   	
  0x2e38	int3   	
  0x2e39	int3   	
  0x2e3a	int3   	
  0x2e3b	int3   	
  === BLOCK LINK ===
    0x2e3c
=== CODE BLOCK END ===

=== CODE BLOCK ADDRESS 0x2e3c ===
  0x2e3c	dec    	eax
  0x2e3d	lea    	eax, [0x61bd]
  0x2e43	jmp    	0x2e48
  === BLOCK LINK ===
    0x2e48
=== CODE BLOCK END ===

=== CODE BLOCK ADDRESS 0x2e48 ===
  0x2e48	dec    	eax
  0x2e49	mov    	dword ptr [esp + 8], ecx
  0x2e4d	dec    	eax
  0x2e4e	mov    	dword ptr [esp + 0x10], edx
  0x2e52	dec    	esp
  === BLOCK LINK ===
    0x2e53
=== CODE BLOCK END ===

=== CODE BLOCK ADDRESS 0x2e53 ===
  0x2e53	mov    	dword ptr [esp + 0x18], eax
  0x2e57	dec    	esp
  0x2e58	mov    	dword ptr [esp + 0x20], ecx
  0x2e5c	dec    	eax
  0x2e5d	sub    	esp, 0x68
  === BLOCK LINK ===
    0x2e60
=== CODE BLOCK END ===

=== CODE BLOCK ADDRESS 0x2e60 ===
  0x2e60	movdqa  	xmmword ptr [esp + 0x20], xmm0
  0x2e66	movdqa  	xmmword ptr [esp + 0x30], xmm1
  0x2e6c	movdqa  	xmmword ptr [esp + 0x40], xmm2
  0x2e72	movdqa  	xmmword ptr [esp + 0x50], xmm3
  0x2e78	dec    	eax
  === BLOCK LINK ===
    0x2e79
=== CODE BLOCK END ===

=== CODE BLOCK ADDRESS 0x2e79 ===
  0x2e79	mov    	edx, eax
  0x2e7b	dec    	eax
  0x2e7c	lea    	ecx, [0x1c22]
  0x2e82	call   	0x2560
  === BLOCK LINK ===
    0x2e87
=== CODE BLOCK END ===

=== CODE BLOCK ADDRESS 0x2e87 ===
  0x2e87	movdqa  	xmm0, xmmword ptr [esp + 0x20]
  0x2e8d	movdqa  	xmm1, xmmword ptr [esp + 0x30]
  0x2e93	movdqa  	xmm2, xmmword ptr [esp + 0x40]
  0x2e99	movdqa  	xmm3, xmmword ptr [esp + 0x50]
  0x2e9f	dec    	eax
  === BLOCK LINK ===
    0x2ea0
=== CODE BLOCK END ===

=== CODE BLOCK ADDRESS 0x2ea0 ===
  0x2ea0	mov    	ecx, dword ptr [esp + 0x70]
  0x2ea4	dec    	eax
  0x2ea5	mov    	edx, dword ptr [esp + 0x78]
  0x2ea9	dec    	esp
  0x2eaa	mov    	eax, dword ptr [esp + 0x80]
  === BLOCK LINK ===
    0x2eb1
=== CODE BLOCK END ===

=== CODE BLOCK ADDRESS 0x2eb1 ===
  0x2eb1	dec    	esp
  0x2eb2	mov    	ecx, dword ptr [esp + 0x88]
  0x2eb9	dec    	eax
  0x2eba	add    	esp, 0x68
  0x2ebd	jmp    	0x2ebf
  === BLOCK LINK ===
    0x2ebf
=== CODE BLOCK END ===

=== CODE BLOCK ADDRESS 0x2ebf ===
  0x2ebf	jmp    	eax
  === BLOCK LINK ===
    0x2ec1
=== CODE BLOCK END ===

=== CODE BLOCK ADDRESS 0x2ec1 ===
  0x2ec1	int3   	
  0x2ec2	int3   	
  0x2ec3	int3   	
  0x2ec4	int3   	
  0x2ec5	int3   	
  === BLOCK LINK ===
    0x2ec6
=== CODE BLOCK END ===

=== CODE BLOCK ADDRESS 0x2ec6 ===
  0x2ec6	int3   	
  0x2ec7	int3   	
  0x2ec8	int3   	
  0x2ec9	int3   	
  0x2eca	int3   	
  === BLOCK LINK ===
    0x2ecb
=== CODE BLOCK END ===

=== CODE BLOCK ADDRESS 0x2ecb ===
  0x2ecb	int3   	
  0x2ecc	int3   	
  0x2ecd	int3   	
  0x2ece	int3   	
  0x2ecf	int3   	
  === BLOCK LINK ===
    0x2ed0
=== CODE BLOCK END ===

=== CODE BLOCK ADDRESS 0x2ed0 ===
  0x2ed0	jmp    	dword ptr [0x1272]
  === BLOCK LINK ===
    0x2ed6
=== CODE BLOCK END ===

=== CODE BLOCK ADDRESS 0x2ed6 ===
  0x2ed6	int3   	
  0x2ed7	int3   	
  0x2ed8	int3   	
  0x2ed9	int3   	
  0x2eda	int3   	
  === BLOCK LINK ===
    0x2edb
=== CODE BLOCK END ===

=== CODE BLOCK ADDRESS 0x2edb ===
  0x2edb	int3   	
  0x2edc	dec    	eax
  0x2edd	sub    	esp, 0x28
  0x2ee0	dec    	ebp
  0x2ee1	mov    	eax, dword ptr [ecx + 0x38]
  === BLOCK LINK ===
    0x2ee4
=== CODE BLOCK END ===

=== CODE BLOCK ADDRESS 0x2ee4 ===
  0x2ee4	dec    	eax
  0x2ee5	mov    	ecx, edx
  0x2ee7	dec    	ecx
  0x2ee8	mov    	edx, ecx
  0x2eea	call   	0x2f00
  === BLOCK LINK ===
    0x2eef
=== CODE BLOCK END ===

=== CODE BLOCK ADDRESS 0x2eef ===
  0x2eef	mov    	eax, 1
  0x2ef4	dec    	eax
  0x2ef5	add    	esp, 0x28
  0x2ef8	ret    	
  0x2ef9	int3   	
  === BLOCK LINK ===
    0x2efa
=== CODE BLOCK END ===

=== CODE BLOCK ADDRESS 0x2efa ===
  0x2efa	int3   	
  0x2efb	int3   	
  0x2efc	int3   	
  0x2efd	int3   	
  0x2efe	int3   	
  === BLOCK LINK ===
    0x2eff
=== CODE BLOCK END ===

=== CODE BLOCK ADDRESS 0x2eff ===
  0x2eff	int3   	
  0x2f00	inc    	eax
  0x2f01	push   	ebx
  0x2f02	inc    	ebp
  0x2f03	mov    	ebx, dword ptr [eax]
  === BLOCK LINK ===
    0x2f05
=== CODE BLOCK END ===

=== CODE BLOCK ADDRESS 0x2f05 ===
  0x2f05	dec    	eax
  0x2f06	mov    	ebx, edx
  0x2f08	inc    	ecx
  0x2f09	and    	ebx, 0xfffffff8
  0x2f0c	dec    	esp
  === BLOCK LINK ===
    0x2f0d
=== CODE BLOCK END ===

=== CODE BLOCK ADDRESS 0x2f0d ===
  0x2f0d	mov    	ecx, ecx
  0x2f0f	inc    	ecx
  0x2f10	test   	byte ptr [eax], 4
  0x2f13	dec    	esp
  0x2f14	mov    	edx, ecx
  === BLOCK LINK ===
    0x2f16
=== CODE BLOCK END ===

=== CODE BLOCK ADDRESS 0x2f16 ===
  0x2f16	je     	0x2f2b
  === BLOCK LINK ===
    0x2f18
=== CODE BLOCK END ===

=== CODE BLOCK ADDRESS 0x2f18 ===
  0x2f18	inc    	ecx
  0x2f19	mov    	eax, dword ptr [eax + 8]
  0x2f1c	dec    	ebp
  0x2f1d	arpl   	word ptr [eax + 4], dx
  0x2f20	neg    	eax
  === BLOCK LINK ===
    0x2f22
=== CODE BLOCK END ===

=== CODE BLOCK ADDRESS 0x2f22 ===
  0x2f22	dec    	esp
  0x2f23	add    	edx, ecx
  0x2f25	dec    	eax
  0x2f26	arpl   	ax, cx
  0x2f28	dec    	esp
  === BLOCK LINK ===
    0x2f29
=== CODE BLOCK END ===

=== CODE BLOCK ADDRESS 0x2f29 ===
  0x2f29	and    	edx, ecx
  0x2f2b	dec    	ecx
  0x2f2c	arpl   	bx, ax
  0x2f2e	dec    	edx
  0x2f2f	mov    	edx, dword ptr [eax + edx]
  === BLOCK LINK ===
    0x2f32
=== CODE BLOCK END ===

=== CODE BLOCK ADDRESS 0x2f32 ===
  0x2f32	dec    	eax
  0x2f33	mov    	eax, dword ptr [ebx + 0x10]
  0x2f36	mov    	ecx, dword ptr [eax + 8]
  0x2f39	dec    	eax
  0x2f3a	mov    	eax, dword ptr [ebx + 8]
  === BLOCK LINK ===
    0x2f3d
=== CODE BLOCK END ===

=== CODE BLOCK ADDRESS 0x2f3d ===
  0x2f3d	test   	byte ptr [ecx + eax + 3], 0xf
  0x2f42	je     	0x2f4f
  === BLOCK LINK ===
    0x2f44
=== CODE BLOCK END ===

=== CODE BLOCK ADDRESS 0x2f44 ===
  0x2f44	movzx  	eax, byte ptr [ecx + eax + 3]
  0x2f49	and    	eax, 0xfffffff0
  0x2f4c	dec    	esp
  0x2f4d	add    	ecx, eax
  0x2f4f	dec    	esp
  === BLOCK LINK ===
    0x2f50
=== CODE BLOCK END ===

=== CODE BLOCK ADDRESS 0x2f50 ===
  0x2f50	xor    	ecx, edx
  0x2f52	dec    	ecx
  0x2f53	mov    	ecx, ecx
  0x2f55	pop    	ebx
  0x2f56	jmp    	0x28e0
  === BLOCK LINK ===
    0x2f5b
=== CODE BLOCK END ===

=== CODE BLOCK ADDRESS 0x2f5b ===
  0x2f5b	int3   	
  0x2f5c	int3   	
  0x2f5d	int3   	
  0x2f5e	int3   	
  0x2f5f	int3   	
  === BLOCK LINK ===
    0x2f60
=== CODE BLOCK END ===

=== CODE BLOCK ADDRESS 0x2f60 ===
  0x2f60	int3   	
  0x2f61	int3   	
  0x2f62	int3   	
  0x2f63	int3   	
  0x2f64	dec    	eax
  === BLOCK LINK ===
    0x2f65
=== CODE BLOCK END ===

=== CODE BLOCK ADDRESS 0x2f65 ===
  0x2f65	mov    	eax, esp
  0x2f67	dec    	eax
  0x2f68	mov    	dword ptr [eax + 8], ebx
  0x2f6b	dec    	eax
  0x2f6c	mov    	dword ptr [eax + 0x10], ebp
  === BLOCK LINK ===
    0x2f6f
=== CODE BLOCK END ===

=== CODE BLOCK ADDRESS 0x2f6f ===
  0x2f6f	dec    	eax
  0x2f70	mov    	dword ptr [eax + 0x18], esi
  0x2f73	dec    	eax
  0x2f74	mov    	dword ptr [eax + 0x20], edi
  0x2f77	inc    	ecx
  === BLOCK LINK ===
    0x2f78
=== CODE BLOCK END ===

=== CODE BLOCK ADDRESS 0x2f78 ===
  0x2f78	push   	esi
  0x2f79	dec    	eax
  0x2f7a	sub    	esp, 0x20
  0x2f7d	dec    	ebp
  0x2f7e	mov    	edx, dword ptr [ecx + 0x38]
  === BLOCK LINK ===
    0x2f81
=== CODE BLOCK END ===

=== CODE BLOCK ADDRESS 0x2f81 ===
  0x2f81	dec    	eax
  0x2f82	mov    	esi, edx
  0x2f84	dec    	ebp
  0x2f85	mov    	esi, eax
  0x2f87	dec    	eax
  === BLOCK LINK ===
    0x2f88
=== CODE BLOCK END ===

=== CODE BLOCK ADDRESS 0x2f88 ===
  0x2f88	mov    	ebp, ecx
  0x2f8a	dec    	ecx
  0x2f8b	mov    	edx, ecx
  0x2f8d	dec    	eax
  0x2f8e	mov    	ecx, esi
  === BLOCK LINK ===
    0x2f90
=== CODE BLOCK END ===

=== CODE BLOCK ADDRESS 0x2f90 ===
  0x2f90	dec    	ecx
  0x2f91	mov    	edi, ecx
  0x2f93	inc    	ecx
  0x2f94	mov    	ebx, dword ptr [edx]
  0x2f96	dec    	eax
  === BLOCK LINK ===
    0x2f97
=== CODE BLOCK END ===

=== CODE BLOCK ADDRESS 0x2f97 ===
  0x2f97	shl    	ebx, 4
  0x2f9a	dec    	ecx
  0x2f9b	add    	ebx, edx
  0x2f9d	dec    	esp
  0x2f9e	lea    	eax, [ebx + 4]
  === BLOCK LINK ===
    0x2fa1
=== CODE BLOCK END ===

=== CODE BLOCK ADDRESS 0x2fa1 ===
  0x2fa1	call   	0x2f00
  === BLOCK LINK ===
    0x2fa6
=== CODE BLOCK END ===

=== CODE BLOCK ADDRESS 0x2fa6 ===
  0x2fa6	mov    	eax, dword ptr [ebp + 4]
  0x2fa9	and    	al, 0x66
  0x2fab	neg    	al
  0x2fad	mov    	eax, 1
  0x2fb2	sbb    	edx, edx
  === BLOCK LINK ===
    0x2fb4
=== CODE BLOCK END ===

=== CODE BLOCK ADDRESS 0x2fb4 ===
  0x2fb4	neg    	edx
  0x2fb6	add    	edx, eax
  0x2fb8	test   	dword ptr [ebx + 4], edx
  0x2fbb	je     	0x2fcf
  === BLOCK LINK ===
    0x2fbd
=== CODE BLOCK END ===

=== CODE BLOCK ADDRESS 0x2fbd ===
  0x2fbd	dec    	esp
  0x2fbe	mov    	ecx, edi
  0x2fc0	dec    	ebp
  0x2fc1	mov    	eax, esi
  0x2fc3	dec    	eax
  === BLOCK LINK ===
    0x2fc4
=== CODE BLOCK END ===

=== CODE BLOCK ADDRESS 0x2fc4 ===
  0x2fc4	mov    	edx, esi
  0x2fc6	dec    	eax
  0x2fc7	mov    	ecx, ebp
  0x2fc9	call   	dword ptr [0x1359]
  === BLOCK LINK ===
    0x2fcf
=== CODE BLOCK END ===

=== CODE BLOCK ADDRESS 0x2fcf ===
  0x2fcf	dec    	eax
  0x2fd0	mov    	ebx, dword ptr [esp + 0x30]
  0x2fd4	dec    	eax
  0x2fd5	mov    	ebp, dword ptr [esp + 0x38]
  0x2fd9	dec    	eax
  === BLOCK LINK ===
    0x2fda
=== CODE BLOCK END ===

=== CODE BLOCK ADDRESS 0x2fda ===
  0x2fda	mov    	esi, dword ptr [esp + 0x40]
  0x2fde	dec    	eax
  0x2fdf	mov    	edi, dword ptr [esp + 0x48]
  0x2fe3	dec    	eax
  0x2fe4	add    	esp, 0x20
  === BLOCK LINK ===
    0x2fe7
=== CODE BLOCK END ===

=== CODE BLOCK ADDRESS 0x2fe7 ===
  0x2fe7	inc    	ecx
  0x2fe8	pop    	esi
  0x2fe9	ret    	
  0x2fea	int3   	
  0x2feb	int3   	
  === BLOCK LINK ===
    0x2fec
=== CODE BLOCK END ===

=== CODE BLOCK ADDRESS 0x2fec ===
  0x2fec	int3   	
  0x2fed	int3   	
  0x2fee	int3   	
  0x2fef	int3   	
  0x2ff0	int3   	
  === BLOCK LINK ===
    0x2ff1
=== CODE BLOCK END ===

=== CODE BLOCK ADDRESS 0x2ff1 ===
  0x2ff1	int3   	
  0x2ff2	int3   	
  0x2ff3	int3   	
  0x2ff4	int3   	
  0x2ff5	int3   	
  === BLOCK LINK ===
    0x2ff6
=== CODE BLOCK END ===

=== CODE BLOCK ADDRESS 0x2ff6 ===
  0x2ff6	jmp    	dword ptr [0x13b4]
  === BLOCK LINK ===
    0x2ffc
=== CODE BLOCK END ===

=== CODE BLOCK ADDRESS 0x2ffc ===
  0x2ffc	int3   	
  0x2ffd	int3   	
  0x2ffe	int3   	
  0x2fff	int3   	
  0x3000	int3   	
  === BLOCK LINK ===
    0x3001
=== CODE BLOCK END ===

=== CODE BLOCK ADDRESS 0x3001 ===
  0x3001	int3   	
  0x3002	int3   	
  0x3003	int3   	
  0x3004	int3   	
  0x3005	int3   	
  === BLOCK LINK ===
    0x3006
=== CODE BLOCK END ===

=== CODE BLOCK ADDRESS 0x3006 ===
  0x3006	nop    	word ptr [eax + eax]
  0x3010	jmp    	eax
  === BLOCK LINK ===
    0x3012
=== CODE BLOCK END ===

=== CODE BLOCK ADDRESS 0x3012 ===
  0x3012	int3   	
  0x3013	int3   	
  0x3014	int3   	
  0x3015	int3   	
  0x3016	int3   	
  === BLOCK LINK ===
    0x3017
=== CODE BLOCK END ===

=== CODE BLOCK ADDRESS 0x3017 ===
  0x3017	int3   	
  0x3018	int3   	
  0x3019	int3   	
  0x301a	int3   	
  0x301b	int3   	
  === BLOCK LINK ===
    0x301c
=== CODE BLOCK END ===

=== CODE BLOCK ADDRESS 0x301c ===
  0x301c	int3   	
  0x301d	int3   	
  0x301e	int3   	
  0x301f	int3   	
  0x3020	int3   	
  === BLOCK LINK ===
    0x3021
=== CODE BLOCK END ===

=== CODE BLOCK ADDRESS 0x3021 ===
  0x3021	int3   	
  0x3022	int3   	
  0x3023	int3   	
  0x3024	int3   	
  0x3025	int3   	
  === BLOCK LINK ===
    0x3026
=== CODE BLOCK END ===

=== CODE BLOCK ADDRESS 0x3026 ===
  0x3026	nop    	word ptr [eax + eax]
  0x3030	dec    	eax
  0x3031	sub    	esp, 0x10
  0x3034	dec    	esp
  0x3035	mov    	dword ptr [esp], edx
  === BLOCK LINK ===
    0x3038
=== CODE BLOCK END ===

=== CODE BLOCK ADDRESS 0x3038 ===
  0x3038	dec    	esp
  0x3039	mov    	dword ptr [esp + 8], ebx
  0x303d	dec    	ebp
  0x303e	xor    	ebx, ebx
  0x3040	dec    	esp
  === BLOCK LINK ===
    0x3041
=== CODE BLOCK END ===

=== CODE BLOCK ADDRESS 0x3041 ===
  0x3041	lea    	edx, [esp + 0x18]
  0x3045	dec    	esp
  0x3046	sub    	edx, eax
  0x3048	dec    	ebp
  0x3049	cmovb  	edx, ebx
  === BLOCK LINK ===
    0x304c
=== CODE BLOCK END ===

=== CODE BLOCK ADDRESS 0x304c ===
  0x304c	dec    	esp
  0x304e	mov    	ebx, dword ptr [0x10]
  0x3055	dec    	ebp
  0x3056	cmp    	edx, ebx
  0x3058	jae    	0x306f
  === BLOCK LINK ===
    0x305a
=== CODE BLOCK END ===

=== CODE BLOCK ADDRESS 0x305a ===
  0x305a	inc    	cx
  0x305c	and    	edx, 0x8d4df000
  0x3062	wait   	
  0x3063	add    	al, dh
  0x3065	.byte  	0xff
  === BLOCK LINK ===
    0x3066
=== CODE BLOCK END ===

=== CODE BLOCK ADDRESS 0x3066 ===
  0x3066	inc    	dword ptr [ebp - 0x7c]
  0x3069	sbb    	ecx, dword ptr [ebp + 0x3b]
  0x306c	sal    	dword ptr [edx - 0xf], cl
  0x306f	dec    	esp
  0x3070	mov    	edx, dword ptr [esp]
  === BLOCK LINK ===
    0x3073
=== CODE BLOCK END ===

=== CODE BLOCK ADDRESS 0x3073 ===
  0x3073	dec    	esp
  0x3074	mov    	ebx, dword ptr [esp + 8]
  0x3078	dec    	eax
  0x3079	add    	esp, 0x10
  0x307c	ret    	
  === BLOCK LINK ===
    0x307d
=== CODE BLOCK END ===

=== CODE BLOCK ADDRESS 0x128c ===
  0x128c	dec    	eax
  0x128d	mov    	ebx, dword ptr [esp + 0x30]
  0x1291	dec    	eax
  0x1292	mov    	esi, dword ptr [esp + 0x38]
  === BLOCK LINK ===
    0x1296
=== CODE BLOCK END ===

=== CODE BLOCK ADDRESS 0x307d ===
  0x307d	int3   	
  0x307e	int3   	
  0x307f	int3   	
  0x3080	int3   	
  0x3081	int3   	
  === BLOCK LINK ===
    0x3082
=== CODE BLOCK END ===

=== CODE BLOCK ADDRESS 0x3082 ===
  0x3082	int3   	
  0x3083	inc    	eax
  0x3084	push   	ebp
  0x3085	dec    	eax
  0x3086	sub    	esp, 0x20
  === BLOCK LINK ===
    0x3089
=== CODE BLOCK END ===

=== CODE BLOCK ADDRESS 0x3089 ===
  0x3089	dec    	eax
  0x308a	mov    	ebp, edx
  0x308c	dec    	eax
  0x308d	mov    	eax, dword ptr [ecx]
  0x308f	dec    	eax
  === BLOCK LINK ===
    0x3090
=== CODE BLOCK END ===

=== CODE BLOCK ADDRESS 0x3090 ===
  0x3090	mov    	edx, ecx
  0x3092	mov    	ecx, dword ptr [eax]
  0x3094	call   	0x2b2e
  === BLOCK LINK ===
    0x3099
=== CODE BLOCK END ===

=== CODE BLOCK ADDRESS 0x3099 ===
  0x3099	nop    	
  0x309a	dec    	eax
  0x309b	add    	esp, 0x20
  0x309e	pop    	ebp
  0x309f	ret    	
  === BLOCK LINK ===
    0x30a0
=== CODE BLOCK END ===

=== CODE BLOCK ADDRESS 0x1304 ===
  0x1304	dec    	eax
  0x1305	lea    	eax, [esp + 0x30]
  0x1309	inc    	ecx
  0x130a	mov    	ecx, 0x20019
  === BLOCK LINK ===
    0x130f
=== CODE BLOCK END ===

=== CODE BLOCK ADDRESS 0x30a0 ===
  0x30a0	int3   	
  0x30a1	int3   	
  0x30a2	int3   	
  0x30a3	int3   	
  0x30a4	int3   	
  === BLOCK LINK ===
    0x30a5
=== CODE BLOCK END ===

=== CODE BLOCK ADDRESS 0x30a5 ===
  0x30a5	int3   	
  0x30a6	int3   	
  0x30a7	int3   	
  0x30a8	int3   	
  0x30a9	int3   	
  === BLOCK LINK ===
    0x30aa
=== CODE BLOCK END ===

=== CODE BLOCK ADDRESS 0x30aa ===
  0x30aa	int3   	
  0x30ab	int3   	
  0x30ac	int3   	
  0x30ad	int3   	
  0x30ae	int3   	
  === BLOCK LINK ===
    0x30af
=== CODE BLOCK END ===

=== CODE BLOCK ADDRESS 0x30af ===
  0x30af	int3   	
  0x30b0	inc    	eax
  0x30b1	push   	ebp
  0x30b2	dec    	eax
  0x30b3	sub    	esp, 0x20
  === BLOCK LINK ===
    0x30b6
=== CODE BLOCK END ===

=== CODE BLOCK ADDRESS 0x30b6 ===
  0x30b6	dec    	eax
  0x30b7	mov    	ebp, edx
  0x30b9	dec    	eax
  0x30ba	mov    	eax, dword ptr [ecx]
  0x30bc	xor    	ecx, ecx
  === BLOCK LINK ===
    0x30be
=== CODE BLOCK END ===

=== CODE BLOCK ADDRESS 0x30be ===
  0x30be	cmp    	dword ptr [eax], 0xc0000005
  0x30c4	sete   	cl
  0x30c7	mov    	eax, ecx
  0x30c9	dec    	eax
  0x30ca	add    	esp, 0x20
  === BLOCK LINK ===
    0x30cd
=== CODE BLOCK END ===

=== CODE BLOCK ADDRESS 0x30cd ===
  0x30cd	pop    	ebp
  0x30ce	ret    	
  0x30cf	int3   	
  0x30d0	add    	byte ptr [eax], al
  0x30d2	add    	byte ptr [eax], al
  === BLOCK LINK ===
    0x30d4
=== CODE BLOCK END ===

=== CODE BLOCK ADDRESS 0x12fd ===
  0x12fd	cmp    	al, 2
  0x12ff	jne    	0x1304
  === BLOCK LINK ===
    0x1301
=== CODE BLOCK END ===

=== CODE BLOCK ADDRESS 0x30d4 ===
  0x30d4	add    	byte ptr [eax], al
  0x30d6	add    	byte ptr [eax], al
  0x30d8	add    	byte ptr [eax], al
  0x30da	add    	byte ptr [eax], al
  0x30dc	add    	byte ptr [eax], al
  === BLOCK LINK ===
    0x30de
=== CODE BLOCK END ===

=== CODE BLOCK ADDRESS 0x30de ===
  0x30de	add    	byte ptr [eax], al
  0x30e0	add    	byte ptr [eax], al
  0x30e2	add    	byte ptr [eax], al
  0x30e4	add    	byte ptr [eax], al
  0x30e6	add    	byte ptr [eax], al
  === BLOCK LINK ===
    0x30e8
=== CODE BLOCK END ===

=== CODE BLOCK ADDRESS 0x30e8 ===
  0x30e8	add    	byte ptr [eax], al
  0x30ea	add    	byte ptr [eax], al
  0x30ec	add    	byte ptr [eax], al
  0x30ee	add    	byte ptr [eax], al
  0x30f0	add    	byte ptr [eax], al
  === BLOCK LINK ===
    0x30f2
=== CODE BLOCK END ===

=== CODE BLOCK ADDRESS 0x30f2 ===
  0x30f2	add    	byte ptr [eax], al
  0x30f4	add    	byte ptr [eax], al
  0x30f6	add    	byte ptr [eax], al
  0x30f8	add    	byte ptr [eax], al
  0x30fa	add    	byte ptr [eax], al
  === BLOCK LINK ===
    0x30fc
=== CODE BLOCK END ===

=== CODE BLOCK ADDRESS 0x30fc ===
  0x30fc	add    	byte ptr [eax], al
  0x30fe	add    	byte ptr [eax], al
  0x3100	add    	byte ptr [eax], al
  0x3102	add    	byte ptr [eax], al
  0x3104	add    	byte ptr [eax], al
  === BLOCK LINK ===
    0x3106
=== CODE BLOCK END ===

=== CODE BLOCK ADDRESS 0x3106 ===
  0x3106	add    	byte ptr [eax], al
  0x3108	add    	byte ptr [eax], al
  0x310a	add    	byte ptr [eax], al
  0x310c	add    	byte ptr [eax], al
  0x310e	add    	byte ptr [eax], al
  === BLOCK LINK ===
    0x3110
=== CODE BLOCK END ===

=== CODE BLOCK ADDRESS 0x3110 ===
  0x3110	add    	byte ptr [eax], al
  0x3112	add    	byte ptr [eax], al
  0x3114	add    	byte ptr [eax], al
  0x3116	add    	byte ptr [eax], al
  0x3118	add    	byte ptr [eax], al
  === BLOCK LINK ===
    0x311a
=== CODE BLOCK END ===

=== CODE BLOCK ADDRESS 0x311a ===
  0x311a	add    	byte ptr [eax], al
  0x311c	add    	byte ptr [eax], al
  0x311e	add    	byte ptr [eax], al
  0x3120	add    	byte ptr [eax], al
  0x3122	add    	byte ptr [eax], al
  === BLOCK LINK ===
    0x3124
=== CODE BLOCK END ===

=== CODE BLOCK ADDRESS 0x3124 ===
  0x3124	add    	byte ptr [eax], al
  0x3126	add    	byte ptr [eax], al
  0x3128	add    	byte ptr [eax], al
  0x312a	add    	byte ptr [eax], al
  0x312c	add    	byte ptr [eax], al
  === BLOCK LINK ===
    0x312e
=== CODE BLOCK END ===

=== CODE BLOCK ADDRESS 0x312e ===
  0x312e	add    	byte ptr [eax], al
  0x3130	add    	byte ptr [eax], al
  0x3132	add    	byte ptr [eax], al
  0x3134	add    	byte ptr [eax], al
  0x3136	add    	byte ptr [eax], al
  === BLOCK LINK ===
    0x3138
=== CODE BLOCK END ===

=== CODE BLOCK ADDRESS 0x3138 ===
  0x3138	add    	byte ptr [eax], al
  0x313a	add    	byte ptr [eax], al
  0x313c	add    	byte ptr [eax], al
  0x313e	add    	byte ptr [eax], al
  0x3140	add    	byte ptr [eax], al
  === BLOCK LINK ===
    0x3142
=== CODE BLOCK END ===

=== CODE BLOCK ADDRESS 0x3142 ===
  0x3142	add    	byte ptr [eax], al
  0x3144	add    	byte ptr [eax], al
  0x3146	add    	byte ptr [eax], al
  0x3148	add    	byte ptr [eax], al
  0x314a	add    	byte ptr [eax], al
  === BLOCK LINK ===
    0x314c
=== CODE BLOCK END ===

=== CODE BLOCK ADDRESS 0x314c ===
  0x314c	add    	byte ptr [eax], al
  0x314e	add    	byte ptr [eax], al
  0x3150	add    	byte ptr [eax], al
  0x3152	add    	byte ptr [eax], al
  0x3154	add    	byte ptr [eax], al
  === BLOCK LINK ===
    0x3156
=== CODE BLOCK END ===

=== CODE BLOCK ADDRESS 0x3156 ===
  0x3156	add    	byte ptr [eax], al
  0x3158	add    	byte ptr [eax], al
  0x315a	add    	byte ptr [eax], al
  0x315c	add    	byte ptr [eax], al
  0x315e	add    	byte ptr [eax], al
  === BLOCK LINK ===
    0x3160
=== CODE BLOCK END ===

=== CODE BLOCK ADDRESS 0x3160 ===
  0x3160	add    	byte ptr [eax], al
  0x3162	add    	byte ptr [eax], al
  0x3164	add    	byte ptr [eax], al
  0x3166	add    	byte ptr [eax], al
  0x3168	add    	byte ptr [eax], al
  === BLOCK LINK ===
    0x316a
=== CODE BLOCK END ===

=== CODE BLOCK ADDRESS 0x316a ===
  0x316a	add    	byte ptr [eax], al
  0x316c	add    	byte ptr [eax], al
  0x316e	add    	byte ptr [eax], al
  0x3170	add    	byte ptr [eax], al
  0x3172	add    	byte ptr [eax], al
  === BLOCK LINK ===
    0x3174
=== CODE BLOCK END ===

=== CODE BLOCK ADDRESS 0x3174 ===
  0x3174	add    	byte ptr [eax], al
  0x3176	add    	byte ptr [eax], al
  0x3178	add    	byte ptr [eax], al
  0x317a	add    	byte ptr [eax], al
  0x317c	add    	byte ptr [eax], al
  === BLOCK LINK ===
    0x317e
=== CODE BLOCK END ===

=== CODE BLOCK ADDRESS 0x317e ===
  0x317e	add    	byte ptr [eax], al
  0x3180	add    	byte ptr [eax], al
  0x3182	add    	byte ptr [eax], al
  0x3184	add    	byte ptr [eax], al
  0x3186	add    	byte ptr [eax], al
  === BLOCK LINK ===
    0x3188
=== CODE BLOCK END ===

=== CODE BLOCK ADDRESS 0x3188 ===
  0x3188	add    	byte ptr [eax], al
  0x318a	add    	byte ptr [eax], al
  0x318c	add    	byte ptr [eax], al
  0x318e	add    	byte ptr [eax], al
  0x3190	add    	byte ptr [eax], al
  === BLOCK LINK ===
    0x3192
=== CODE BLOCK END ===

=== CODE BLOCK ADDRESS 0x3192 ===
  0x3192	add    	byte ptr [eax], al
  0x3194	add    	byte ptr [eax], al
  0x3196	add    	byte ptr [eax], al
  0x3198	add    	byte ptr [eax], al
  0x319a	add    	byte ptr [eax], al
  === BLOCK LINK ===
    0x319c
=== CODE BLOCK END ===

=== CODE BLOCK ADDRESS 0x319c ===
  0x319c	add    	byte ptr [eax], al
  0x319e	add    	byte ptr [eax], al
  0x31a0	add    	byte ptr [eax], al
  0x31a2	add    	byte ptr [eax], al
  0x31a4	add    	byte ptr [eax], al
  === BLOCK LINK ===
    0x31a6
=== CODE BLOCK END ===

=== CODE BLOCK ADDRESS 0x31a6 ===
  0x31a6	add    	byte ptr [eax], al
  0x31a8	add    	byte ptr [eax], al
  0x31aa	add    	byte ptr [eax], al
  0x31ac	add    	byte ptr [eax], al
  0x31ae	add    	byte ptr [eax], al
  === BLOCK LINK ===
    0x31b0
=== CODE BLOCK END ===

=== CODE BLOCK ADDRESS 0x31b0 ===
  0x31b0	add    	byte ptr [eax], al
  0x31b2	add    	byte ptr [eax], al
  0x31b4	add    	byte ptr [eax], al
  0x31b6	add    	byte ptr [eax], al
  0x31b8	add    	byte ptr [eax], al
  === BLOCK LINK ===
    0x31ba
=== CODE BLOCK END ===

=== CODE BLOCK ADDRESS 0x31ba ===
  0x31ba	add    	byte ptr [eax], al
  0x31bc	add    	byte ptr [eax], al
  0x31be	add    	byte ptr [eax], al
  0x31c0	add    	byte ptr [eax], al
  0x31c2	add    	byte ptr [eax], al
  === BLOCK LINK ===
    0x31c4
=== CODE BLOCK END ===

=== CODE BLOCK ADDRESS 0x31c4 ===
  0x31c4	add    	byte ptr [eax], al
  0x31c6	add    	byte ptr [eax], al
  0x31c8	add    	byte ptr [eax], al
  0x31ca	add    	byte ptr [eax], al
  0x31cc	add    	byte ptr [eax], al
  === BLOCK LINK ===
    0x31ce
=== CODE BLOCK END ===

=== CODE BLOCK ADDRESS 0x31ce ===
  0x31ce	add    	byte ptr [eax], al
  0x31d0	add    	byte ptr [eax], al
  0x31d2	add    	byte ptr [eax], al
  0x31d4	add    	byte ptr [eax], al
  0x31d6	add    	byte ptr [eax], al
  === BLOCK LINK ===
    0x31d8
=== CODE BLOCK END ===

=== CODE BLOCK ADDRESS 0x31d8 ===
  0x31d8	add    	byte ptr [eax], al
  0x31da	add    	byte ptr [eax], al
  0x31dc	add    	byte ptr [eax], al
  0x31de	add    	byte ptr [eax], al
  0x31e0	add    	byte ptr [eax], al
  === BLOCK LINK ===
    0x31e2
=== CODE BLOCK END ===

=== CODE BLOCK ADDRESS 0x31e2 ===
  0x31e2	add    	byte ptr [eax], al
  0x31e4	add    	byte ptr [eax], al
  0x31e6	add    	byte ptr [eax], al
  0x31e8	add    	byte ptr [eax], al
  0x31ea	add    	byte ptr [eax], al
  === BLOCK LINK ===
    0x31ec
=== CODE BLOCK END ===

=== CODE BLOCK ADDRESS 0x31ec ===
  0x31ec	add    	byte ptr [eax], al
  0x31ee	add    	byte ptr [eax], al
  0x31f0	add    	byte ptr [eax], al
  0x31f2	add    	byte ptr [eax], al
  0x31f4	add    	byte ptr [eax], al
  === BLOCK LINK ===
    0x31f6
=== CODE BLOCK END ===

=== CODE BLOCK ADDRESS 0x31f6 ===
  0x31f6	add    	byte ptr [eax], al
  0x31f8	add    	byte ptr [eax], al
  0x31fa	add    	byte ptr [eax], al
  0x31fc	add    	byte ptr [eax], al
=== CODE BLOCK END ===

=== DATA BLOCK ADDRESS 0x4000 ===
  0x4000	90 60 00 40 01 00 00 00 30 61 00 40 01 00 00 00 	0`0@00000a0@0000
  0x4010	42 00 44 00 00 00 00 00 40 44 00 40 01 00 00 00 	B0D00000@D0@0000
  0x4020	42 00 44 00 00 00 00 00 90 44 00 40 01 00 00 00 	B0D000000D0@0000
  0x4030	18 01 00 00 00 00 00 00 00 00 00 00 00 00 00 00 	0000000000000000
  0x4040	00 00 00 00 00 00 00 00 00 00 00 00 00 00 00 00 	0000000000000000
  0x4050	00 00 00 00 00 00 00 00 00 00 00 00 00 00 00 00 	0000000000000000
  0x4060	00 00 00 00 00 00 00 00 00 00 00 00 00 00 00 00 	0000000000000000
  0x4070	00 00 00 00 00 00 00 00 00 00 00 00 00 00 00 00 	0000000000000000
  0x4080	00 00 00 00 00 00 00 00 08 60 00 40 01 00 00 00 	000000000`0@0000
  0x4090	00 00 00 00 00 00 00 00 00 00 00 00 00 00 00 00 	0000000000000000
  0x40a0	c0 43 00 40 01 00 00 00 c8 43 00 40 01 00 00 00 	0C0@00000C0@0000
  0x40b0	08 44 00 40 01 00 00 00 0a 00 00 00 00 00 00 00 	0D0@000000000000
  0x40c0	00 75 01 00 00 00 00 00 00 00 00 00 00 00 00 00 	0u00000000000000
  0x40d0	30 44 00 40 01 00 00 00 01 00 00 00 00 00 00 00 	0D0@000000000000
  0x40e0	00 00 00 00 00 00 00 00 00 00 00 00 00 00 00 00 	0000000000000000
  0x40f0	00 00 00 00 00 00 00 00 00 00 00 00 00 00 00 00 	0000000000000000
  0x4100	00 00 00 00 00 00 00 00 00 00 00 00 00 00 00 00 	0000000000000000
  0x4110	00 00 00 00 00 00 00 00 00 00 00 00 00 00 00 00 	0000000000000000
  0x4120	00 00 00 00 00 00 00 00 00 00 00 00 00 00 00 00 	0000000000000000
  0x4130	00 00 00 00 00 00 00 00 00 00 00 00 00 00 00 00 	0000000000000000
  0x4140	00 00 00 00 00 00 00 00 f8 55 00 00 00 00 00 00 	000000000U000000
  0x4150	00 00 00 00 00 00 00 00 52 51 00 00 00 00 00 00 	00000000RQ000000
  0x4160	84 51 00 00 00 00 00 00 00 00 00 00 00 00 00 00 	0Q00000000000000
  0x4170	94 55 00 00 00 00 00 00 00 00 00 00 00 00 00 00 	0U00000000000000
  0x4180	7c 55 00 00 00 00 00 00 00 00 00 00 00 00 00 00 	|U00000000000000
  0x4190	58 50 00 00 00 00 00 00 d4 50 00 00 00 00 00 00 	XP0000000P000000
  0x41a0	6c 52 00 00 00 00 00 00 50 52 00 00 00 00 00 00 	lR000000PR000000
  0x41b0	00 00 00 00 00 00 00 00 78 51 00 00 00 00 00 00 	00000000xQ000000
  0x41c0	be 51 00 00 00 00 00 00 00 00 00 00 00 00 00 00 	0Q00000000000000
  0x41d0	f0 50 00 00 00 00 00 00 00 00 00 00 00 00 00 00 	0P00000000000000
  0x41e0	18 51 00 00 00 00 00 00 00 00 00 00 00 00 00 00 	0Q00000000000000
  0x41f0	94 51 00 00 00 00 00 00 00 00 00 00 00 00 00 00 	0Q00000000000000
  0x4200	ac 50 00 00 00 00 00 00 76 50 00 00 00 00 00 00 	0P000000vP000000
  0x4210	00 00 00 00 00 00 00 00 40 51 00 00 00 00 00 00 	00000000@Q000000
  0x4220	68 51 00 00 00 00 00 00 00 00 00 00 00 00 00 00 	hQ00000000000000
  0x4230	8a 52 00 00 00 00 00 00 e2 52 00 00 00 00 00 00 	0R0000000R000000
  0x4240	cc 52 00 00 00 00 00 00 9e 52 00 00 00 00 00 00 	0R0000000R000000
  0x4250	00 00 00 00 00 00 00 00 b2 52 00 00 00 00 00 00 	000000000R000000
  0x4260	00 00 00 00 00 00 00 00 44 50 00 00 00 00 00 00 	00000000DP000000
  0x4270	8c 50 00 00 00 00 00 00 24 51 00 00 00 00 00 00 	0P000000$Q000000
  0x4280	00 00 00 00 00 00 00 00 0e 52 00 00 00 00 00 00 	000000000R000000
  0x4290	22 52 00 00 00 00 00 00 3c 52 00 00 00 00 00 00 	"R000000<R000000
  0x42a0	00 00 00 00 00 00 00 00 a8 51 00 00 00 00 00 00 	000000000Q000000
  0x42b0	00 00 00 00 00 00 00 00 06 52 00 00 00 00 00 00 	000000000R000000
  0x42c0	00 00 00 00 00 00 00 00 9c 50 00 00 00 00 00 00 	000000000P000000
  0x42d0	f8 52 00 00 00 00 00 00 12 53 00 00 00 00 00 00 	0R0000000S000000
  0x42e0	00 00 00 00 00 00 00 00 32 51 00 00 00 00 00 00 	000000002Q000000
  0x42f0	e4 50 00 00 00 00 00 00 be 50 00 00 00 00 00 00 	0P0000000P000000
  0x4300	e8 51 00 00 00 00 00 00 06 51 00 00 00 00 00 00 	0Q0000000Q000000
  0x4310	cc 51 00 00 00 00 00 00 68 50 00 00 00 00 00 00 	0Q000000hP000000
  0x4320	00 00 00 00 00 00 00 00 6e 4f 00 00 00 00 00 00 	00000000nO000000
  0x4330	86 4f 00 00 00 00 00 00 64 4f 00 00 00 00 00 00 	0O000000dO000000
  0x4340	30 50 00 00 00 00 00 00 18 50 00 00 00 00 00 00 	0P0000000P000000
  0x4350	0e 50 00 00 00 00 00 00 5c 4f 00 00 00 00 00 00 	0P0000000O000000
  0x4360	50 4f 00 00 00 00 00 00 02 50 00 00 00 00 00 00 	PO0000000P000000
  0x4370	ee 4f 00 00 00 00 00 00 e4 4f 00 00 00 00 00 00 	0O0000000O000000
  0x4380	dc 4f 00 00 00 00 00 00 d4 4f 00 00 00 00 00 00 	0O0000000O000000
  0x4390	c2 4f 00 00 00 00 00 00 b2 4f 00 00 00 00 00 00 	0O0000000O000000
  0x43a0	a4 4f 00 00 00 00 00 00 96 4f 00 00 00 00 00 00 	0O0000000O000000
  0x43b0	38 56 00 00 00 00 00 00 00 00 00 00 00 00 00 00 	8V00000000000000
  0x43c0	d0 2d 00 40 01 00 00 00 10 30 00 40 01 00 00 00 	0-0@0000000@0000
  0x43d0	00 00 00 00 00 00 00 00 90 26 00 40 01 00 00 00 	000000000&0@0000
  0x43e0	00 00 00 00 00 00 00 00 00 00 00 00 00 00 00 00 	0000000000000000
  0x43f0	b0 25 00 40 01 00 00 00 10 2b 00 40 01 00 00 00 	0%0@00000+0@0000
  0x4400	00 00 00 00 00 00 00 00 60 25 00 00 b0 25 00 00 	00000000`%000%00
  0x4410	90 26 00 00 b0 28 00 00 40 29 00 00 d0 2a 00 00 	0&000(00@)000*00
  0x4420	10 2b 00 00 f0 2b 00 00 d0 2d 00 00 d0 2e 00 00 	0+000+000-000.00
  0x4430	70 41 00 00 00 00 00 00 00 00 00 00 00 00 00 00 	pA00000000000000
  0x4440	65 00 78 00 74 00 2d 00 6d 00 73 00 2d 00 77 00 	e0x0t0-0m0s0-0w0
  0x4450	69 00 6e 00 2d 00 73 00 65 00 63 00 75 00 72 00 	i0n0-0s0e0c0u0r0
  0x4460	69 00 74 00 79 00 2d 00 63 00 72 00 65 00 64 00 	i0t0y0-0c0r0e0d0
  0x4470	75 00 69 00 2d 00 6c 00 31 00 2d 00 31 00 2d 00 	u0i0-0l010-010-0
  0x4480	30 00 00 00 00 00 00 00 00 00 00 00 00 00 00 00 	0000000000000000
  0x4490	65 00 78 00 74 00 2d 00 6d 00 73 00 2d 00 77 00 	e0x0t0-0m0s0-0w0
  0x44a0	69 00 6e 00 2d 00 73 00 65 00 63 00 75 00 72 00 	i0n0-0s0e0c0u0r0
  0x44b0	69 00 74 00 79 00 2d 00 63 00 72 00 65 00 64 00 	i0t0y0-0c0r0e0d0
  0x44c0	75 00 69 00 2d 00 6c 00 31 00 2d 00 31 00 2d 00 	u0i0-0l010-010-0
  0x44d0	31 00 00 00 00 00 00 00 00 00 00 00 00 00 00 00 	1000000000000000
  0x44e0	65 78 74 2d 6d 73 2d 77 69 6e 2d 73 65 63 75 72 	ext-ms-win-secur
  0x44f0	69 74 79 2d 63 72 65 64 75 69 2d 6c 31 2d 31 2d 	ity-credui-l1-1-
  0x4500	30 2e 64 6c 6c 00 00 00 00 00 00 00 00 00 00 00 	0.dll00000000000
  0x4510	53 00 59 00 53 00 54 00 45 00 4d 00 5c 00 43 00 	S0Y0S0T0E0M000C0
  0x4520	75 00 72 00 72 00 65 00 6e 00 74 00 43 00 6f 00 	u0r0r0e0n0t0C0o0
  0x4530	6e 00 74 00 72 00 6f 00 6c 00 53 00 65 00 74 00 	n0t0r0o0l0S0e0t0
  0x4540	5c 00 43 00 6f 00 6e 00 74 00 72 00 6f 00 6c 00 	00C0o0n0t0r0o0l0
  0x4550	5c 00 53 00 61 00 66 00 65 00 42 00 6f 00 6f 00 	00S0a0f0e0B0o0o0
  0x4560	74 00 5c 00 4f 00 70 00 74 00 69 00 6f 00 6e 00 	t000O0p0t0i0o0n0
  0x4570	00 00 00 00 00 00 00 00 4f 00 70 00 74 00 69 00 	00000000O0p0t0i0
  0x4580	6f 00 6e 00 56 00 61 00 6c 00 75 00 65 00 00 00 	o0n0V0a0l0u0e000
  0x4590	0a 00 00 00 00 00 00 00 00 00 00 00 00 00 00 00 	0000000000000000
  0x45a0	00 00 00 00 a8 d9 67 6f 00 00 00 00 02 00 00 00 	000000go00000000
  0x45b0	23 00 00 00 f4 45 00 00 f4 2b 00 00 00 00 00 00 	#0000E000+000000
  0x45c0	a8 d9 67 6f 00 00 00 00 0d 00 00 00 78 02 00 00 	00go00000000x000
  0x45d0	18 46 00 00 18 2c 00 00 00 00 00 00 a8 d9 67 6f 	0F000,00000000go
  0x45e0	00 00 00 00 10 00 00 00 24 00 00 00 90 48 00 00 	00000000$0000H00
  0x45f0	90 2e 00 00 52 53 44 53 f5 be 74 8f 19 16 73 39 	0.00RSDS00t000s9
  0x4600	81 33 8d 9a 8d 28 f0 40 01 00 00 00 63 6d 64 6b 	03000(0@0000cmdk
  0x4610	65 79 2e 70 64 62 00 00 47 43 54 4c 00 10 00 00 	ey.pdb00GCTL0000
  0x4620	00 20 00 00 2e 74 65 78 74 24 6d 6e 00 00 00 00 	0 00.text$mn0000
  0x4630	00 30 00 00 80 00 00 00 2e 74 65 78 74 24 6d 6e 	00000000.text$mn
  0x4640	24 30 30 00 80 30 00 00 50 00 00 00 2e 74 65 78 	$0000000P000.tex
  0x4650	74 24 78 00 00 40 00 00 48 01 00 00 2e 72 64 61 	t$x00@00H000.rda
  0x4660	74 61 24 62 72 63 00 00 48 41 00 00 78 02 00 00 	ta$brc00HA00x000
  0x4670	2e 69 64 61 74 61 24 35 00 00 00 00 c0 43 00 00 	.idata$500000C00
  0x4680	10 00 00 00 2e 30 30 63 66 67 00 00 d0 43 00 00 	0000.00cfg000C00
  0x4690	08 00 00 00 2e 43 52 54 24 58 43 41 00 00 00 00 	0000.CRT$XCA0000
  0x46a0	d8 43 00 00 08 00 00 00 2e 43 52 54 24 58 43 41 	0C000000.CRT$XCA
  0x46b0	41 00 00 00 e0 43 00 00 08 00 00 00 2e 43 52 54 	A0000C000000.CRT
  0x46c0	24 58 43 5a 00 00 00 00 e8 43 00 00 08 00 00 00 	$XCZ00000C000000
  0x46d0	2e 43 52 54 24 58 49 41 00 00 00 00 f0 43 00 00 	.CRT$XIA00000C00
  0x46e0	08 00 00 00 2e 43 52 54 24 58 49 41 41 00 00 00 	0000.CRT$XIAA000
  0x46f0	f8 43 00 00 08 00 00 00 2e 43 52 54 24 58 49 59 	0C000000.CRT$XIY
  0x4700	00 00 00 00 00 44 00 00 08 00 00 00 2e 43 52 54 	00000D000000.CRT
  0x4710	24 58 49 5a 00 00 00 00 08 44 00 00 28 00 00 00 	$XIZ00000D00(000
  0x4720	2e 67 66 69 64 73 00 00 30 44 00 00 10 00 00 00 	.gfids000D000000
  0x4730	2e 67 69 61 74 73 00 00 40 44 00 00 b4 01 00 00 	.giats00@D000000
  0x4740	2e 72 64 61 74 61 00 00 f4 45 00 00 c4 02 00 00 	.rdata000E000000
  0x4750	2e 72 64 61 74 61 24 7a 7a 7a 64 62 67 00 00 00 	.rdata$zzzdbg000
  0x4760	b8 48 00 00 ec 01 00 00 2e 78 64 61 74 61 00 00 	0H000000.xdata00
  0x4770	a4 4a 00 00 20 00 00 00 2e 64 69 64 61 74 24 32 	0J00 000.didat$2
  0x4780	00 00 00 00 c4 4a 00 00 24 00 00 00 2e 64 69 64 	00000J00$000.did
  0x4790	61 74 24 33 00 00 00 00 e8 4a 00 00 10 00 00 00 	at$300000J000000
  0x47a0	2e 64 69 64 61 74 24 34 00 00 00 00 f8 4a 00 00 	.didat$400000J00
  0x47b0	28 00 00 00 2e 64 69 64 61 74 24 36 00 00 00 00 	(000.didat$60000
  0x47c0	20 4b 00 00 10 00 00 00 2e 64 69 64 61 74 24 37 	 K000000.didat$7
  0x47d0	00 00 00 00 30 4b 00 00 90 01 00 00 2e 69 64 61 	00000K000000.ida
  0x47e0	74 61 24 32 00 00 00 00 c0 4c 00 00 18 00 00 00 	ta$200000L000000
  0x47f0	2e 69 64 61 74 61 24 33 00 00 00 00 d8 4c 00 00 	.idata$300000L00
  0x4800	78 02 00 00 2e 69 64 61 74 61 24 34 00 00 00 00 	x000.idata$40000
  0x4810	50 4f 00 00 f2 06 00 00 2e 69 64 61 74 61 24 36 	PO000000.idata$6
  0x4820	00 00 00 00 00 60 00 00 60 00 00 00 2e 64 61 74 	00000`00`000.dat
  0x4830	61 00 00 00 60 60 00 00 88 10 00 00 2e 62 73 73 	a000``000000.bss
  0x4840	00 00 00 00 00 80 00 00 bc 01 00 00 2e 70 64 61 	000000000000.pda
  0x4850	74 61 00 00 00 90 00 00 10 00 00 00 2e 64 69 64 	ta0000000000.did
  0x4860	61 74 24 35 00 00 00 00 00 a0 00 00 f0 00 00 00 	at$5000000000000
  0x4870	2e 72 73 72 63 24 30 31 00 00 00 00 f0 a0 00 00 	.rsrc$0100000000
  0x4880	40 07 00 00 2e 72 73 72 63 24 30 32 00 00 00 00 	@000.rsrc$020000
  0x4890	20 00 00 00 f5 be 74 8f 19 16 73 39 81 33 8d 9a 	 00000t000s90300
  0x48a0	8d 28 f0 40 57 c7 e1 8d a1 ec 35 08 73 6c 2a 63 	0(0@W0000050sl*c
  0x48b0	a8 d9 67 6f 00 00 00 00 01 05 02 00 05 34 01 00 	00go000000000400
  0x48c0	01 0f 06 00 0f 64 07 00 0f 34 06 00 0f 32 0b 70 	00000d000400020p
  0x48d0	19 1b 03 00 09 01 2e 00 02 30 00 00 dc 2e 00 00 	000000.000000.00
  0x48e0	60 01 00 00 19 15 02 00 06 92 02 30 dc 2e 00 00 	`000000000000.00
  0x48f0	40 00 00 00 19 30 0b 00 1f 34 e8 00 1f 01 de 00 	@000000004000000
  0x4900	10 f0 0e e0 0c d0 0a c0 08 70 07 60 06 50 00 00 	000000000p0`0P00
  0x4910	dc 2e 00 00 e0 06 00 00 01 0e 06 00 0e 32 07 e0 	0.00000000000200
  0x4920	05 70 04 60 03 30 02 50 01 0a 04 00 0a 34 06 00 	0p0`000P00000400
  0x4930	0a 32 06 70 01 06 02 00 06 72 02 30 01 1d 0c 00 	020p00000r000000
  0x4940	1d 74 0b 00 1d 64 0a 00 1d 54 09 00 1d 34 08 00 	0t000d000T000400
  0x4950	1d 32 19 f0 17 e0 15 c0 01 1c 0c 00 1c 64 0d 00 	0200000000000d00
  0x4960	1c 54 0c 00 1c 34 0b 00 1c 32 18 f0 16 e0 14 d0 	0T00040002000000
  0x4970	12 c0 10 70 19 2c 0b 45 1e 64 14 00 1a 34 13 00 	000p0,0E0d000400
  0x4980	16 43 11 b2 0d f0 0b e0 09 c0 07 70 06 50 00 00 	0C000000000p0P00
  0x4990	64 2f 00 00 01 00 00 00 f2 23 00 00 1d 24 00 00 	d/0000000#000$00
  0x49a0	01 00 00 00 1d 24 00 00 59 00 00 00 01 0a 04 00 	00000$00Y0000000
  0x49b0	0a 34 0a 00 0a 72 06 70 01 04 01 00 04 62 00 00 	04000r0p00000b00
  0x49c0	01 04 01 00 04 42 00 00 09 15 08 00 15 74 0a 00 	00000B0000000t00
  0x49d0	15 64 09 00 15 34 08 00 15 52 11 f0 b7 2a 00 00 	0d0004000R000*00
  0x49e0	01 00 00 00 f5 26 00 00 5b 28 00 00 83 30 00 00 	00000&00[(000000
  0x49f0	5b 28 00 00 01 06 02 00 06 32 02 50 00 00 00 00 	[(000000020P0000
  0x4a00	01 00 00 00 01 06 02 00 06 32 02 30 01 0c 02 00 	0000000002000000
  0x4a10	0c 01 11 00 09 04 01 00 04 22 00 00 b7 2a 00 00 	000000000"000*00
  0x4a20	01 00 00 00 4c 2b 00 00 82 2b 00 00 01 00 00 00 	0000L+000+000000
  0x4a30	82 2b 00 00 09 0a 04 00 0a 34 06 00 0a 32 06 70 	0+0000000400020p
  0x4a40	b7 2a 00 00 01 00 00 00 5d 2c 00 00 90 2c 00 00 	0*000000],000,00
  0x4a50	b0 30 00 00 90 2c 00 00 01 0d 04 00 0d 34 09 00 	00000,0000000400
  0x4a60	0d 32 06 50 00 00 00 00 01 00 00 00 01 18 01 00 	020P000000000000
  0x4a70	18 c2 00 00 01 02 01 00 02 30 00 00 01 19 0a 00 	0000000000000000
  0x4a80	19 74 09 00 19 64 08 00 19 54 07 00 19 34 06 00 	0t000d000T000400
  0x4a90	19 32 15 e0 00 00 00 00 02 04 03 00 01 16 00 06 	0200000000000000
  0x4aa0	04 12 00 00 01 00 00 00 e0 44 00 00 18 66 00 00 	000000000D000f00
  0x4ab0	00 90 00 00 e8 4a 00 00 20 4b 00 00 00 00 00 00 	00000J00 K000000
  0x4ac0	00 00 00 00 00 00 00 00 00 00 00 00 00 00 00 00 	0000000000000000
  0x4ad0	00 00 00 00 00 00 00 00 00 00 00 00 00 00 00 00 	0000000000000000
  0x4ae0	00 00 00 00 00 00 00 00 f8 4a 00 00 00 00 00 00 	000000000J000000
  0x4af0	00 00 00 00 00 00 00 00 02 00 43 72 65 64 55 49 	0000000000CredUI
  0x4b00	43 6d 64 4c 69 6e 65 50 72 6f 6d 70 74 46 6f 72 	CmdLinePromptFor
  0x4b10	43 72 65 64 65 6e 74 69 61 6c 73 57 00 00 00 00 	CredentialsW0000
  0x4b20	00 00 00 00 00 00 00 00 00 00 00 00 00 00 00 00 	0000000000000000
  0x4b30	b8 4e 00 00 00 00 00 00 00 00 00 00 24 50 00 00 	0N0000000000$P00
  0x4b40	28 43 00 00 f8 4d 00 00 00 00 00 00 00 00 00 00 	(C000M0000000000
  0x4b50	22 53 00 00 68 42 00 00 20 4d 00 00 00 00 00 00 	"S00hB00 M000000
  0x4b60	00 00 00 00 46 53 00 00 90 41 00 00 78 4e 00 00 	0000FS000A00xN00
  0x4b70	00 00 00 00 00 00 00 00 70 53 00 00 e8 42 00 00 	00000000pS000B00
  0x4b80	90 4d 00 00 00 00 00 00 00 00 00 00 9c 53 00 00 	0M00000000000S00
  0x4b90	00 42 00 00 58 4e 00 00 00 00 00 00 00 00 00 00 	0B00XN0000000000
  0x4ba0	c4 53 00 00 c8 42 00 00 60 4d 00 00 00 00 00 00 	0S000B00`M000000
  0x4bb0	00 00 00 00 e8 53 00 00 d0 41 00 00 70 4d 00 00 	00000S000A00pM00
  0x4bc0	00 00 00 00 00 00 00 00 08 54 00 00 e0 41 00 00 	000000000T000A00
  0x4bd0	a8 4d 00 00 00 00 00 00 00 00 00 00 28 54 00 00 	0M0000000000(T00
  0x4be0	18 42 00 00 e8 4c 00 00 00 00 00 00 00 00 00 00 	0B000L0000000000
  0x4bf0	56 54 00 00 58 41 00 00 48 4d 00 00 00 00 00 00 	VT00XA00HM000000
  0x4c00	00 00 00 00 7a 54 00 00 b8 41 00 00 80 4d 00 00 	0000zT000A000M00
  0x4c10	00 00 00 00 00 00 00 00 9a 54 00 00 f0 41 00 00 	000000000T000A00
  0x4c20	38 4e 00 00 00 00 00 00 00 00 00 00 c4 54 00 00 	8N00000000000T00
  0x4c30	a8 42 00 00 48 4e 00 00 00 00 00 00 00 00 00 00 	0B00HN0000000000
  0x4c40	e6 54 00 00 b8 42 00 00 18 4e 00 00 00 00 00 00 	0T000B000N000000
  0x4c50	00 00 00 00 08 55 00 00 88 42 00 00 c0 4d 00 00 	00000U000B000M00
  0x4c60	00 00 00 00 00 00 00 00 2e 55 00 00 30 42 00 00 	00000000.U000B00
  0x4c70	e8 4d 00 00 00 00 00 00 00 00 00 00 58 55 00 00 	0M0000000000XU00
  0x4c80	58 42 00 00 10 4d 00 00 00 00 00 00 00 00 00 00 	XB000M0000000000
  0x4c90	ac 55 00 00 80 41 00 00 00 4d 00 00 00 00 00 00 	0U000A000M000000
  0x4ca0	00 00 00 00 d2 55 00 00 70 41 00 00 d8 4c 00 00 	00000U00pA000L00
  0x4cb0	00 00 00 00 00 00 00 00 14 56 00 00 48 41 00 00 	000000000V00HA00
  0x4cc0	00 00 00 00 00 00 00 00 00 00 00 00 00 00 00 00 	0000000000000000
  0x4cd0	00 00 00 00 00 00 00 00 f8 55 00 00 00 00 00 00 	000000000U000000
  0x4ce0	00 00 00 00 00 00 00 00 52 51 00 00 00 00 00 00 	00000000RQ000000
  0x4cf0	84 51 00 00 00 00 00 00 00 00 00 00 00 00 00 00 	0Q00000000000000
  0x4d00	94 55 00 00 00 00 00 00 00 00 00 00 00 00 00 00 	0U00000000000000
  0x4d10	7c 55 00 00 00 00 00 00 00 00 00 00 00 00 00 00 	|U00000000000000
  0x4d20	58 50 00 00 00 00 00 00 d4 50 00 00 00 00 00 00 	XP0000000P000000
  0x4d30	6c 52 00 00 00 00 00 00 50 52 00 00 00 00 00 00 	lR000000PR000000
  0x4d40	00 00 00 00 00 00 00 00 78 51 00 00 00 00 00 00 	00000000xQ000000
  0x4d50	be 51 00 00 00 00 00 00 00 00 00 00 00 00 00 00 	0Q00000000000000
  0x4d60	f0 50 00 00 00 00 00 00 00 00 00 00 00 00 00 00 	0P00000000000000
  0x4d70	18 51 00 00 00 00 00 00 00 00 00 00 00 00 00 00 	0Q00000000000000
  0x4d80	94 51 00 00 00 00 00 00 00 00 00 00 00 00 00 00 	0Q00000000000000
  0x4d90	ac 50 00 00 00 00 00 00 76 50 00 00 00 00 00 00 	0P000000vP000000
  0x4da0	00 00 00 00 00 00 00 00 40 51 00 00 00 00 00 00 	00000000@Q000000
  0x4db0	68 51 00 00 00 00 00 00 00 00 00 00 00 00 00 00 	hQ00000000000000
  0x4dc0	8a 52 00 00 00 00 00 00 e2 52 00 00 00 00 00 00 	0R0000000R000000
  0x4dd0	cc 52 00 00 00 00 00 00 9e 52 00 00 00 00 00 00 	0R0000000R000000
  0x4de0	00 00 00 00 00 00 00 00 b2 52 00 00 00 00 00 00 	000000000R000000
  0x4df0	00 00 00 00 00 00 00 00 44 50 00 00 00 00 00 00 	00000000DP000000
  0x4e00	8c 50 00 00 00 00 00 00 24 51 00 00 00 00 00 00 	0P000000$Q000000
  0x4e10	00 00 00 00 00 00 00 00 0e 52 00 00 00 00 00 00 	000000000R000000
  0x4e20	22 52 00 00 00 00 00 00 3c 52 00 00 00 00 00 00 	"R000000<R000000
  0x4e30	00 00 00 00 00 00 00 00 a8 51 00 00 00 00 00 00 	000000000Q000000
  0x4e40	00 00 00 00 00 00 00 00 06 52 00 00 00 00 00 00 	000000000R000000
  0x4e50	00 00 00 00 00 00 00 00 9c 50 00 00 00 00 00 00 	000000000P000000
  0x4e60	f8 52 00 00 00 00 00 00 12 53 00 00 00 00 00 00 	0R0000000S000000
  0x4e70	00 00 00 00 00 00 00 00 32 51 00 00 00 00 00 00 	000000002Q000000
  0x4e80	e4 50 00 00 00 00 00 00 be 50 00 00 00 00 00 00 	0P0000000P000000
  0x4e90	e8 51 00 00 00 00 00 00 06 51 00 00 00 00 00 00 	0Q0000000Q000000
  0x4ea0	cc 51 00 00 00 00 00 00 68 50 00 00 00 00 00 00 	0Q000000hP000000
  0x4eb0	00 00 00 00 00 00 00 00 6e 4f 00 00 00 00 00 00 	00000000nO000000
  0x4ec0	86 4f 00 00 00 00 00 00 64 4f 00 00 00 00 00 00 	0O000000dO000000
  0x4ed0	30 50 00 00 00 00 00 00 18 50 00 00 00 00 00 00 	0P0000000P000000
  0x4ee0	0e 50 00 00 00 00 00 00 5c 4f 00 00 00 00 00 00 	0P0000000O000000
  0x4ef0	50 4f 00 00 00 00 00 00 02 50 00 00 00 00 00 00 	PO0000000P000000
  0x4f00	ee 4f 00 00 00 00 00 00 e4 4f 00 00 00 00 00 00 	0O0000000O000000
  0x4f10	dc 4f 00 00 00 00 00 00 d4 4f 00 00 00 00 00 00 	0O0000000O000000
  0x4f20	c2 4f 00 00 00 00 00 00 b2 4f 00 00 00 00 00 00 	0O0000000O000000
  0x4f30	a4 4f 00 00 00 00 00 00 96 4f 00 00 00 00 00 00 	0O0000000O000000
  0x4f40	38 56 00 00 00 00 00 00 00 00 00 00 00 00 00 00 	8V00000000000000
  0x4f50	8a 03 5f 77 63 73 69 63 6d 70 00 00 4c 04 66 72 	00_wcsicmp00L0fr
  0x4f60	65 65 00 00 86 04 6d 61 6c 6c 6f 63 00 00 57 00 	ee0000malloc00W0
  0x4f70	5f 5f 43 5f 73 70 65 63 69 66 69 63 5f 68 61 6e 	__C_specific_han
  0x4f80	64 6c 65 72 00 00 a8 02 5f 72 65 73 65 74 73 74 	dler0000_resetst
  0x4f90	6b 6f 66 6c 77 00 55 00 5f 58 63 70 74 46 69 6c 	koflw0U0_XcptFil
  0x4fa0	74 65 72 00 ae 00 5f 61 6d 73 67 5f 65 78 69 74 	ter000_amsg_exit
  0x4fb0	00 00 7f 00 5f 5f 67 65 74 6d 61 69 6e 61 72 67 	0000__getmainarg
  0x4fc0	73 00 8e 00 5f 5f 73 65 74 5f 61 70 70 5f 74 79 	s000__set_app_ty
  0x4fd0	70 65 00 00 32 04 65 78 69 74 00 00 0e 01 5f 65 	pe0020exit0000_e
  0x4fe0	78 69 74 00 c1 00 5f 63 65 78 69 74 00 00 90 00 	xit000_cexit0000
  0x4ff0	5f 5f 73 65 74 75 73 65 72 6d 61 74 68 65 72 72 	__setusermatherr
  0x5000	00 00 7d 01 5f 69 6e 69 74 74 65 72 6d 00 27 01 	00}0_initterm0'0
  0x5010	5f 66 6d 6f 64 65 00 00 d2 00 5f 63 6f 6d 6d 6f 	_fmode0000_commo
  0x5020	64 65 00 00 6d 73 76 63 72 74 2e 64 6c 6c 00 00 	de00msvcrt.dll00
  0x5030	2f 00 3f 74 65 72 6d 69 6e 61 74 65 40 40 59 41 	/0?terminate@@YA
  0x5040	58 58 5a 00 25 00 52 65 67 51 75 65 72 79 56 61 	XXZ0%0RegQueryVa
  0x5050	6c 75 65 45 78 57 00 00 0d 00 53 65 74 4c 61 73 	lueExW0000SetLas
  0x5060	74 45 72 72 6f 72 00 00 01 00 43 72 65 64 44 65 	tError0000CredDe
  0x5070	6c 65 74 65 57 00 3f 00 53 65 74 54 68 72 65 61 	leteW0?0SetThrea
  0x5080	64 55 49 4c 61 6e 67 75 61 67 65 00 1e 00 52 65 	dUILanguage000Re
  0x5090	67 4f 70 65 6e 4b 65 79 45 78 57 00 1e 00 47 65 	gOpenKeyExW000Ge
  0x50a0	74 56 65 72 73 69 6f 6e 45 78 57 00 09 00 46 6f 	tVersionExW000Fo
  0x50b0	72 6d 61 74 4d 65 73 73 61 67 65 57 00 00 07 00 	rmatMessageW0000
  0x50c0	43 72 65 64 47 65 74 53 65 73 73 69 6f 6e 54 79 	CredGetSessionTy
  0x50d0	70 65 73 00 05 00 47 65 74 4c 61 73 74 45 72 72 	pes000GetLastErr
  0x50e0	6f 72 00 00 06 00 43 72 65 64 46 72 65 65 00 00 	or0000CredFree00
  0x50f0	0a 00 48 65 61 70 53 65 74 49 6e 66 6f 72 6d 61 	00HeapSetInforma
  0x5100	74 69 6f 6e 00 00 03 00 43 72 65 64 45 6e 75 6d 	tion0000CredEnum
  0x5110	65 72 61 74 65 57 00 00 03 00 4c 6f 63 61 6c 46 	erateW0000LocalF
  0x5120	72 65 65 00 00 00 52 65 67 43 6c 6f 73 65 4b 65 	ree000RegCloseKe
  0x5130	79 00 1c 00 43 72 65 64 57 72 69 74 65 57 00 00 	y000CredWriteW00
  0x5140	05 00 47 65 74 43 6f 6d 6d 61 6e 64 4c 69 6e 65 	00GetCommandLine
  0x5150	57 00 07 00 47 65 74 43 6f 6e 73 6f 6c 65 4f 75 	W000GetConsoleOu
  0x5160	74 70 75 74 43 50 00 00 0c 00 47 65 74 53 74 64 	tputCP0000GetStd
  0x5170	48 61 6e 64 6c 65 00 00 5b 00 57 72 69 74 65 46 	Handle00[0WriteF
  0x5180	69 6c 65 00 13 00 57 72 69 74 65 43 6f 6e 73 6f 	ile000WriteConso
  0x5190	6c 65 57 00 14 00 47 65 74 4d 6f 64 75 6c 65 48 	leW000GetModuleH
  0x51a0	61 6e 64 6c 65 57 00 00 07 00 57 69 64 65 43 68 	andleW0000WideCh
  0x51b0	61 72 54 6f 4d 75 6c 74 69 42 79 74 65 00 31 00 	arToMultiByte010
  0x51c0	47 65 74 46 69 6c 65 54 79 70 65 00 16 00 43 72 	GetFileType000Cr
  0x51d0	65 64 55 6e 6d 61 72 73 68 61 6c 43 72 65 64 65 	edUnmarshalCrede
  0x51e0	6e 74 69 61 6c 57 00 00 0a 00 43 72 65 64 49 73 	ntialW0000CredIs
  0x51f0	4d 61 72 73 68 61 6c 65 64 43 72 65 64 65 6e 74 	MarshaledCredent
  0x5200	69 61 6c 57 00 00 2d 00 53 6c 65 65 70 00 02 00 	ialW00-0Sleep000
  0x5210	52 74 6c 43 61 70 74 75 72 65 43 6f 6e 74 65 78 	RtlCaptureContex
  0x5220	74 00 0a 00 52 74 6c 4c 6f 6f 6b 75 70 46 75 6e 	t000RtlLookupFun
  0x5230	63 74 69 6f 6e 45 6e 74 72 79 00 00 10 00 52 74 	ctionEntry0000Rt
  0x5240	6c 56 69 72 74 75 61 6c 55 6e 77 69 6e 64 00 00 	lVirtualUnwind00
  0x5250	11 00 55 6e 68 61 6e 64 6c 65 64 45 78 63 65 70 	00UnhandledExcep
  0x5260	74 69 6f 6e 46 69 6c 74 65 72 00 00 0f 00 53 65 	tionFilter0000Se
  0x5270	74 55 6e 68 61 6e 64 6c 65 64 45 78 63 65 70 74 	tUnhandledExcept
  0x5280	69 6f 6e 46 69 6c 74 65 72 00 0c 00 47 65 74 43 	ionFilter000GetC
  0x5290	75 72 72 65 6e 74 50 72 6f 63 65 73 73 00 4e 00 	urrentProcess0N0
  0x52a0	54 65 72 6d 69 6e 61 74 65 50 72 6f 63 65 73 73 	TerminateProcess
  0x52b0	00 00 00 00 51 75 65 72 79 50 65 72 66 6f 72 6d 	0000QueryPerform
  0x52c0	61 6e 63 65 43 6f 75 6e 74 65 72 00 0d 00 47 65 	anceCounter000Ge
  0x52d0	74 43 75 72 72 65 6e 74 50 72 6f 63 65 73 73 49 	tCurrentProcessI
  0x52e0	64 00 11 00 47 65 74 43 75 72 72 65 6e 74 54 68 	d000GetCurrentTh
  0x52f0	72 65 61 64 49 64 00 00 16 00 47 65 74 53 79 73 	readId0000GetSys
  0x5300	74 65 6d 54 69 6d 65 41 73 46 69 6c 65 54 69 6d 	temTimeAsFileTim
  0x5310	65 00 1a 00 47 65 74 54 69 63 6b 43 6f 75 6e 74 	e000GetTickCount
  0x5320	00 00 61 70 69 2d 6d 73 2d 77 69 6e 2d 63 6f 72 	00api-ms-win-cor
  0x5330	65 2d 72 65 67 69 73 74 72 79 2d 6c 31 2d 31 2d 	e-registry-l1-1-
  0x5340	30 2e 64 6c 6c 00 61 70 69 2d 6d 73 2d 77 69 6e 	0.dll0api-ms-win
  0x5350	2d 63 6f 72 65 2d 65 72 72 6f 72 68 61 6e 64 6c 	-core-errorhandl
  0x5360	69 6e 67 2d 6c 31 2d 31 2d 30 2e 64 6c 6c 00 00 	ing-l1-1-0.dll00
  0x5370	61 70 69 2d 6d 73 2d 77 69 6e 2d 73 65 63 75 72 	api-ms-win-secur
  0x5380	69 74 79 2d 63 72 65 64 65 6e 74 69 61 6c 73 2d 	ity-credentials-
  0x5390	6c 31 2d 31 2d 30 2e 64 6c 6c 00 00 61 70 69 2d 	l1-1-0.dll00api-
  0x53a0	6d 73 2d 77 69 6e 2d 63 6f 72 65 2d 6c 6f 63 61 	ms-win-core-loca
  0x53b0	6c 69 7a 61 74 69 6f 6e 2d 6c 31 2d 32 2d 30 2e 	lization-l1-2-0.
  0x53c0	64 6c 6c 00 61 70 69 2d 6d 73 2d 77 69 6e 2d 63 	dll0api-ms-win-c
  0x53d0	6f 72 65 2d 73 79 73 69 6e 66 6f 2d 6c 31 2d 31 	ore-sysinfo-l1-1
  0x53e0	2d 30 2e 64 6c 6c 00 00 61 70 69 2d 6d 73 2d 77 	-0.dll00api-ms-w
  0x53f0	69 6e 2d 63 6f 72 65 2d 68 65 61 70 2d 6c 31 2d 	in-core-heap-l1-
  0x5400	31 2d 30 2e 64 6c 6c 00 61 70 69 2d 6d 73 2d 77 	1-0.dll0api-ms-w
  0x5410	69 6e 2d 63 6f 72 65 2d 68 65 61 70 2d 6c 32 2d 	in-core-heap-l2-
  0x5420	31 2d 30 2e 64 6c 6c 00 61 70 69 2d 6d 73 2d 77 	1-0.dll0api-ms-w
  0x5430	69 6e 2d 63 6f 72 65 2d 70 72 6f 63 65 73 73 65 	in-core-processe
  0x5440	6e 76 69 72 6f 6e 6d 65 6e 74 2d 6c 31 2d 31 2d 	nvironment-l1-1-
  0x5450	30 2e 64 6c 6c 00 61 70 69 2d 6d 73 2d 77 69 6e 	0.dll0api-ms-win
  0x5460	2d 63 6f 72 65 2d 63 6f 6e 73 6f 6c 65 2d 6c 31 	-core-console-l1
  0x5470	2d 31 2d 30 2e 64 6c 6c 00 00 61 70 69 2d 6d 73 	-1-0.dll00api-ms
  0x5480	2d 77 69 6e 2d 63 6f 72 65 2d 66 69 6c 65 2d 6c 	-win-core-file-l
  0x5490	31 2d 31 2d 30 2e 64 6c 6c 00 61 70 69 2d 6d 73 	1-1-0.dll0api-ms
  0x54a0	2d 77 69 6e 2d 63 6f 72 65 2d 6c 69 62 72 61 72 	-win-core-librar
  0x54b0	79 6c 6f 61 64 65 72 2d 6c 31 2d 32 2d 30 2e 64 	yloader-l1-2-0.d
  0x54c0	6c 6c 00 00 61 70 69 2d 6d 73 2d 77 69 6e 2d 63 	ll00api-ms-win-c
  0x54d0	6f 72 65 2d 73 74 72 69 6e 67 2d 6c 31 2d 31 2d 	ore-string-l1-1-
  0x54e0	30 2e 64 6c 6c 00 61 70 69 2d 6d 73 2d 77 69 6e 	0.dll0api-ms-win
  0x54f0	2d 63 6f 72 65 2d 73 79 6e 63 68 2d 6c 31 2d 32 	-core-synch-l1-2
  0x5500	2d 30 2e 64 6c 6c 00 00 61 70 69 2d 6d 73 2d 77 	-0.dll00api-ms-w
  0x5510	69 6e 2d 63 6f 72 65 2d 72 74 6c 73 75 70 70 6f 	in-core-rtlsuppo
  0x5520	72 74 2d 6c 31 2d 31 2d 30 2e 64 6c 6c 00 61 70 	rt-l1-1-0.dll0ap
  0x5530	69 2d 6d 73 2d 77 69 6e 2d 63 6f 72 65 2d 70 72 	i-ms-win-core-pr
  0x5540	6f 63 65 73 73 74 68 72 65 61 64 73 2d 6c 31 2d 	ocessthreads-l1-
  0x5550	31 2d 30 2e 64 6c 6c 00 61 70 69 2d 6d 73 2d 77 	1-0.dll0api-ms-w
  0x5560	69 6e 2d 63 6f 72 65 2d 70 72 6f 66 69 6c 65 2d 	in-core-profile-
  0x5570	6c 31 2d 31 2d 30 2e 64 6c 6c 00 00 01 00 52 65 	l1-1-0.dll0000Re
  0x5580	73 6f 6c 76 65 44 65 6c 61 79 4c 6f 61 64 65 64 	solveDelayLoaded
  0x5590	41 50 49 00 00 00 44 65 6c 61 79 4c 6f 61 64 46 	API000DelayLoadF
  0x55a0	61 69 6c 75 72 65 48 6f 6f 6b 00 00 61 70 69 2d 	ailureHook00api-
  0x55b0	6d 73 2d 77 69 6e 2d 63 6f 72 65 2d 64 65 6c 61 	ms-win-core-dela
  0x55c0	79 6c 6f 61 64 2d 6c 31 2d 31 2d 31 2e 64 6c 6c 	yload-l1-1-1.dll
  0x55d0	00 00 61 70 69 2d 6d 73 2d 77 69 6e 2d 63 6f 72 	00api-ms-win-cor
  0x55e0	65 2d 64 65 6c 61 79 6c 6f 61 64 2d 6c 31 2d 31 	e-delayload-l1-1
  0x55f0	2d 30 2e 64 6c 6c 00 00 00 00 41 70 69 53 65 74 	-0.dll0000ApiSet
  0x5600	51 75 65 72 79 41 70 69 53 65 74 50 72 65 73 65 	QueryApiSetPrese
  0x5610	6e 63 65 00 61 70 69 2d 6d 73 2d 77 69 6e 2d 63 	nce0api-ms-win-c
  0x5620	6f 72 65 2d 61 70 69 71 75 65 72 79 2d 6c 31 2d 	ore-apiquery-l1-
  0x5630	31 2d 30 2e 64 6c 6c 00 96 04 6d 65 6d 73 65 74 	1-0.dll000memset
  0x5640	00 00 00 00 00 00 00 00 00 00 00 00 00 00 00 00 	0000000000000000
  0x5650	00 00 00 00 00 00 00 00 00 00 00 00 00 00 00 00 	0000000000000000
  0x5660	00 00 00 00 00 00 00 00 00 00 00 00 00 00 00 00 	0000000000000000
  0x5670	00 00 00 00 00 00 00 00 00 00 00 00 00 00 00 00 	0000000000000000
  0x5680	00 00 00 00 00 00 00 00 00 00 00 00 00 00 00 00 	0000000000000000
  0x5690	00 00 00 00 00 00 00 00 00 00 00 00 00 00 00 00 	0000000000000000
  0x56a0	00 00 00 00 00 00 00 00 00 00 00 00 00 00 00 00 	0000000000000000
  0x56b0	00 00 00 00 00 00 00 00 00 00 00 00 00 00 00 00 	0000000000000000
  0x56c0	00 00 00 00 00 00 00 00 00 00 00 00 00 00 00 00 	0000000000000000
  0x56d0	00 00 00 00 00 00 00 00 00 00 00 00 00 00 00 00 	0000000000000000
  0x56e0	00 00 00 00 00 00 00 00 00 00 00 00 00 00 00 00 	0000000000000000
  0x56f0	00 00 00 00 00 00 00 00 00 00 00 00 00 00 00 00 	0000000000000000
  0x5700	00 00 00 00 00 00 00 00 00 00 00 00 00 00 00 00 	0000000000000000
  0x5710	00 00 00 00 00 00 00 00 00 00 00 00 00 00 00 00 	0000000000000000
  0x5720	00 00 00 00 00 00 00 00 00 00 00 00 00 00 00 00 	0000000000000000
  0x5730	00 00 00 00 00 00 00 00 00 00 00 00 00 00 00 00 	0000000000000000
  0x5740	00 00 00 00 00 00 00 00 00 00 00 00 00 00 00 00 	0000000000000000
  0x5750	00 00 00 00 00 00 00 00 00 00 00 00 00 00 00 00 	0000000000000000
  0x5760	00 00 00 00 00 00 00 00 00 00 00 00 00 00 00 00 	0000000000000000
  0x5770	00 00 00 00 00 00 00 00 00 00 00 00 00 00 00 00 	0000000000000000
  0x5780	00 00 00 00 00 00 00 00 00 00 00 00 00 00 00 00 	0000000000000000
  0x5790	00 00 00 00 00 00 00 00 00 00 00 00 00 00 00 00 	0000000000000000
  0x57a0	00 00 00 00 00 00 00 00 00 00 00 00 00 00 00 00 	0000000000000000
  0x57b0	00 00 00 00 00 00 00 00 00 00 00 00 00 00 00 00 	0000000000000000
  0x57c0	00 00 00 00 00 00 00 00 00 00 00 00 00 00 00 00 	0000000000000000
  0x57d0	00 00 00 00 00 00 00 00 00 00 00 00 00 00 00 00 	0000000000000000
  0x57e0	00 00 00 00 00 00 00 00 00 00 00 00 00 00 00 00 	0000000000000000
  0x57f0	00 00 00 00 00 00 00 00 00 00 00 00 00 00 00 00 	0000000000000000
=== DATA BLOCK END ===

=== DATA BLOCK ADDRESS 0x6000 ===
  0x6000	01 00 00 00 00 00 00 00 32 a2 df 2d 99 2b 00 00 	00000000200-0+00
  0x6010	cd 5d 20 d2 66 d4 ff ff 00 00 00 00 00 00 00 00 	0] 0f00000000000
  0x6020	61 00 67 00 6c 00 64 00 3f 00 72 00 75 00 70 00 	a0g0l0d0?0r0u0p0
  0x6030	73 00 00 00 00 00 00 00 2a 00 53 00 65 00 73 00 	s0000000*0S0e0s0
  0x6040	73 00 69 00 6f 00 6e 00 00 00 00 00 ff ff ff ff 	s0i0o0n000000000
  0x6050	ff ff ff ff 00 00 00 00 00 00 00 00 00 00 00 00 	0000000000000000
  0x6060	00 00 00 00 00 00 00 00 00 00 00 00 00 00 00 00 	0000000000000000
  0x6070	00 00 00 00 00 00 00 00 00 00 00 00 00 00 00 00 	0000000000000000
  0x6080	00 00 00 00 00 00 00 00 00 00 00 00 00 00 00 00 	0000000000000000
  0x6090	00 00 00 00 00 00 00 00 00 00 00 00 00 00 00 00 	0000000000000000
  0x60a0	00 00 00 00 00 00 00 00 00 00 00 00 00 00 00 00 	0000000000000000
  0x60b0	00 00 00 00 00 00 00 00 00 00 00 00 00 00 00 00 	0000000000000000
  0x60c0	00 00 00 00 00 00 00 00 00 00 00 00 00 00 00 00 	0000000000000000
  0x60d0	00 00 00 00 00 00 00 00 00 00 00 00 00 00 00 00 	0000000000000000
  0x60e0	00 00 00 00 00 00 00 00 00 00 00 00 00 00 00 00 	0000000000000000
  0x60f0	00 00 00 00 00 00 00 00 00 00 00 00 00 00 00 00 	0000000000000000
  0x6100	00 00 00 00 00 00 00 00 00 00 00 00 00 00 00 00 	0000000000000000
  0x6110	00 00 00 00 00 00 00 00 00 00 00 00 00 00 00 00 	0000000000000000
  0x6120	00 00 00 00 00 00 00 00 00 00 00 00 00 00 00 00 	0000000000000000
  0x6130	00 00 00 00 00 00 00 00 00 00 00 00 00 00 00 00 	0000000000000000
  0x6140	00 00 00 00 00 00 00 00 00 00 00 00 00 00 00 00 	0000000000000000
  0x6150	00 00 00 00 00 00 00 00 00 00 00 00 00 00 00 00 	0000000000000000
  0x6160	00 00 00 00 00 00 00 00 00 00 00 00 00 00 00 00 	0000000000000000
  0x6170	00 00 00 00 00 00 00 00 00 00 00 00 00 00 00 00 	0000000000000000
  0x6180	00 00 00 00 00 00 00 00 00 00 00 00 00 00 00 00 	0000000000000000
  0x6190	00 00 00 00 00 00 00 00 00 00 00 00 00 00 00 00 	0000000000000000
  0x61a0	00 00 00 00 00 00 00 00 00 00 00 00 00 00 00 00 	0000000000000000
  0x61b0	00 00 00 00 00 00 00 00 00 00 00 00 00 00 00 00 	0000000000000000
  0x61c0	00 00 00 00 00 00 00 00 00 00 00 00 00 00 00 00 	0000000000000000
  0x61d0	00 00 00 00 00 00 00 00 00 00 00 00 00 00 00 00 	0000000000000000
  0x61e0	00 00 00 00 00 00 00 00 00 00 00 00 00 00 00 00 	0000000000000000
  0x61f0	00 00 00 00 00 00 00 00 00 00 00 00 00 00 00 00 	0000000000000000
=== DATA BLOCK END ===

=== DATA BLOCK ADDRESS 0x8000 ===
  0x8000	08 10 00 00 98 10 00 00 b8 48 00 00 a0 10 00 00 	000000000H000000
  0x8010	9d 12 00 00 c0 48 00 00 a4 12 00 00 93 13 00 00 	00000H0000000000
  0x8020	d0 48 00 00 9c 13 00 00 e5 13 00 00 e4 48 00 00 	0H00000000000H00
  0x8030	ec 13 00 00 f3 16 00 00 f4 48 00 00 fc 16 00 00 	000000000H000000
  0x8040	58 19 00 00 18 49 00 00 60 19 00 00 98 1a 00 00 	X0000I00`0000000
  0x8050	28 49 00 00 a0 1a 00 00 5c 1b 00 00 34 49 00 00 	(I00000000004I00
  0x8060	64 1b 00 00 29 1f 00 00 3c 49 00 00 30 1f 00 00 	d000)000<I000000
  0x8070	0c 20 00 00 28 49 00 00 14 20 00 00 6e 22 00 00 	0 00(I000 00n"00
  0x8080	58 49 00 00 74 22 00 00 02 23 00 00 c0 48 00 00 	XI00t"000#000H00
  0x8090	08 23 00 00 c2 24 00 00 74 49 00 00 c8 24 00 00 	0#000$00tI000$00
  0x80a0	56 25 00 00 ac 49 00 00 60 25 00 00 9d 25 00 00 	V%000I00`%000%00
  0x80b0	b8 49 00 00 b0 25 00 00 83 26 00 00 c0 49 00 00 	0I000%000&000I00
  0x80c0	90 26 00 00 d9 26 00 00 b8 49 00 00 e0 26 00 00 	0&000&000I000&00
  0x80d0	9e 28 00 00 c8 49 00 00 b0 28 00 00 c2 28 00 00 	0(000I000(000(00
  0x80e0	c0 49 00 00 e0 28 00 00 fe 28 00 00 00 4a 00 00 	0I000(000(000J00
  0x80f0	04 29 00 00 38 29 00 00 04 4a 00 00 40 29 00 00 	0)008)000J00@)00
  0x8100	b1 2a 00 00 0c 4a 00 00 d0 2a 00 00 09 2b 00 00 	0*000J000*000+00
  0x8110	c0 49 00 00 10 2b 00 00 28 2b 00 00 c0 49 00 00 	0I000+00(+000I00
  0x8120	3c 2b 00 00 90 2b 00 00 14 4a 00 00 98 2b 00 00 	<+000+000J000+00
  0x8130	dd 2b 00 00 04 4a 00 00 50 2c 00 00 9d 2c 00 00 	0+000J00P,000,00
  0x8140	34 4a 00 00 e4 2c 00 00 b8 2d 00 00 58 4a 00 00 	4J000,000-00XJ00
  0x8150	e8 2d 00 00 36 2e 00 00 c0 49 00 00 48 2e 00 00 	0-006.000I00H.00
  0x8160	bf 2e 00 00 6c 4a 00 00 dc 2e 00 00 f9 2e 00 00 	0.00lJ000.000.00
  0x8170	c0 49 00 00 00 2f 00 00 5b 2f 00 00 74 4a 00 00 	0I000/00[/00tJ00
  0x8180	64 2f 00 00 ea 2f 00 00 7c 4a 00 00 10 30 00 00 	d/000/00|J000000
  0x8190	12 30 00 00 68 4a 00 00 30 30 00 00 7d 30 00 00 	0000hJ000000}000
  0x81a0	98 4a 00 00 83 30 00 00 a1 30 00 00 f4 49 00 00 	0J00000000000I00
  0x81b0	b0 30 00 00 d0 30 00 00 f4 49 00 00 00 00 00 00 	000000000I000000
  0x81c0	00 00 00 00 00 00 00 00 00 00 00 00 00 00 00 00 	0000000000000000
  0x81d0	00 00 00 00 00 00 00 00 00 00 00 00 00 00 00 00 	0000000000000000
  0x81e0	00 00 00 00 00 00 00 00 00 00 00 00 00 00 00 00 	0000000000000000
  0x81f0	00 00 00 00 00 00 00 00 00 00 00 00 00 00 00 00 	0000000000000000
=== DATA BLOCK END ===
