===== Assembly blocks =====

=== CODE BLOCK ADDRESS 0x1000 ===
  0x1000	int3   	
  0x1001	int3   	
  0x1002	int3   	
  0x1003	int3   	
  0x1004	int3   	
  === BLOCK LINK ===
    0x1005
=== CODE BLOCK END ===

=== CODE BLOCK ADDRESS 0x1005 ===
  0x1005	int3   	
  0x1006	int3   	
  0x1007	int3   	
  0x1008	dec    	eax
  0x1009	mov    	dword ptr [esp + 0x18], ebx
  === BLOCK LINK ===
    0x100d
=== CODE BLOCK END ===

=== CODE BLOCK ADDRESS 0x100d ===
  0x100d	dec    	eax
  0x100e	mov    	dword ptr [esp + 0x20], esi
  0x1012	push   	edi
  0x1013	dec    	eax
  0x1014	sub    	esp, 0x290
  === BLOCK LINK ===
    0x101a
=== CODE BLOCK END ===

=== CODE BLOCK ADDRESS 0x101a ===
  0x101a	dec    	eax
  0x101b	mov    	eax, dword ptr [0x3fe7]
  0x1021	dec    	eax
  0x1022	xor    	eax, esp
  0x1024	dec    	eax
  === BLOCK LINK ===
    0x1025
=== CODE BLOCK END ===

=== CODE BLOCK ADDRESS 0x1025 ===
  0x1025	mov    	dword ptr [esp + 0x280], eax
  0x102c	dec    	eax
  0x102d	mov    	edi, ecx
  0x102f	dec    	eax
  0x1030	mov    	esi, edx
  === BLOCK LINK ===
    0x1032
=== CODE BLOCK END ===

=== CODE BLOCK ADDRESS 0x1032 ===
  0x1032	dec    	eax
  0x1033	lea    	ecx, [esp + 0x38]
  0x1037	dec    	eax
  0x1038	call   	dword ptr [0x230a]
  === BLOCK LINK ===
    0x103e
=== CODE BLOCK END ===

=== CODE BLOCK ADDRESS 0x103e ===
  0x103e	nop    	dword ptr [eax + eax]
  0x1043	movzx  	ecx, word ptr [edi]
  0x1046	dec    	esp
  0x1047	lea    	ecx, [esp + 0x30]
  0x104b	sub    	ecx, 0x40
  === BLOCK LINK ===
    0x104e
=== CODE BLOCK END ===

=== CODE BLOCK ADDRESS 0x104e ===
  0x104e	dec    	eax
  0x104f	lea    	edx, [esp + 0x60]
  0x1053	call   	0x1394
  === BLOCK LINK ===
    0x1058
    0x1394
=== CODE BLOCK END ===

=== CODE BLOCK ADDRESS 0x1058 ===
  0x1058	movzx  	ebx, al
  0x105b	test   	al, al
  0x105d	je     	0x1089
  === BLOCK LINK ===
    0x105f
    0x1089
=== CODE BLOCK END ===

=== CODE BLOCK ADDRESS 0x105f ===
  0x105f	inc    	ebp
  0x1060	xor    	eax, eax
  0x1062	dec    	eax
  0x1063	mov    	edx, edi
  0x1065	inc    	ecx
  === BLOCK LINK ===
    0x1066
=== CODE BLOCK END ===

=== CODE BLOCK ADDRESS 0x1066 ===
  0x1066	lea    	ecx, [eax + 2]
  0x1069	dec    	eax
  0x106a	call   	dword ptr [0x20c8]
  === BLOCK LINK ===
    0x1070
=== CODE BLOCK END ===

=== CODE BLOCK ADDRESS 0x1070 ===
  0x1070	nop    	dword ptr [eax + eax]
  0x1075	mov    	ebx, eax
  0x1077	test   	eax, eax
  0x1079	jne    	0x10fa
  === BLOCK LINK ===
    0x107b
    0x10fa
=== CODE BLOCK END ===

=== CODE BLOCK ADDRESS 0x107b ===
  0x107b	dec    	eax
  0x107c	call   	dword ptr [0x20ae]
  === BLOCK LINK ===
    0x1082
=== CODE BLOCK END ===

=== CODE BLOCK ADDRESS 0x1082 ===
  0x1082	nop    	dword ptr [eax + eax]
  0x1087	jmp    	0x108d
  === BLOCK LINK ===
    0x1089
    0x108d
=== CODE BLOCK END ===

=== CODE BLOCK ADDRESS 0x1089 ===
  0x1089	mov    	eax, dword ptr [esp + 0x30]
  === BLOCK LINK ===
    0x108d
    0x10fa
=== CODE BLOCK END ===

=== CODE BLOCK ADDRESS 0x1091 ===
  0x1091	inc    	ecx
  0x1092	or     	eax, 0xffffffff
  0x1095	dec    	eax
  0x1096	lea    	ecx, [esp + 0x38]
  0x109a	dec    	eax
  === BLOCK LINK ===
    0x109b
=== CODE BLOCK END ===

=== CODE BLOCK ADDRESS 0x109b ===
  0x109b	mov    	edx, edi
  0x109d	cmp    	eax, 5
  0x10a0	jne    	0x10b5
  === BLOCK LINK ===
    0x10a2
    0x10b5
=== CODE BLOCK END ===

=== CODE BLOCK ADDRESS 0x10a2 ===
  0x10a2	dec    	eax
  0x10a3	call   	dword ptr [0x227f]
  === BLOCK LINK ===
    0x10a9
=== CODE BLOCK END ===

=== CODE BLOCK ADDRESS 0x10a9 ===
  0x10a9	nop    	dword ptr [eax + eax]
  0x10ae	mov    	edx, 0x7732
  0x10b3	jmp    	0x10c6
  === BLOCK LINK ===
    0x10b5
    0x10c6
=== CODE BLOCK END ===

=== CODE BLOCK ADDRESS 0x10b5 ===
  0x10b5	dec    	eax
  0x10b6	call   	dword ptr [0x226c]
  === BLOCK LINK ===
    0x10bc
=== CODE BLOCK END ===

=== CODE BLOCK ADDRESS 0x10bc ===
  0x10bc	nop    	dword ptr [eax + eax]
  0x10c1	mov    	edx, 0x772f
  === BLOCK LINK ===
    0x10c6
=== CODE BLOCK END ===

=== CODE BLOCK ADDRESS 0x10ca ===
  0x10ca	mov    	ecx, 3
  0x10cf	inc    	ebp
  0x10d0	xor    	eax, eax
  0x10d2	dec    	eax
  0x10d3	mov    	ecx, esi
  === BLOCK LINK ===
    0x10d5
=== CODE BLOCK END ===

=== CODE BLOCK ADDRESS 0x10d5 ===
  0x10d5	dec    	eax
  0x10d6	mov    	eax, dword ptr [eax + 0x20]
  0x10d9	call   	dword ptr [0x2309]
  === BLOCK LINK ===
    0x10df
=== CODE BLOCK END ===

=== CODE BLOCK ADDRESS 0x10df ===
  0x10df	dec    	esp
  0x10e0	lea    	eax, [esp + 0x38]
  0x10e4	dec    	eax
  0x10e5	mov    	ecx, esi
  0x10e7	dec    	eax
  === BLOCK LINK ===
    0x10e8
=== CODE BLOCK END ===

=== CODE BLOCK ADDRESS 0x10e8 ===
  0x10e8	lea    	edx, [0x2376]
  0x10ee	dec    	eax
  0x10ef	call   	dword ptr [0x21f3]
  === BLOCK LINK ===
    0x10f5
=== CODE BLOCK END ===

=== CODE BLOCK ADDRESS 0x10f5 ===
  0x10f5	nop    	dword ptr [eax + eax]
  === BLOCK LINK ===
    0x10fa
=== CODE BLOCK END ===

=== CODE BLOCK ADDRESS 0x1106 ===
  0x1106	nop    	dword ptr [eax + eax]
  0x110b	test   	ebx, ebx
  0x110d	setne  	al
  0x1110	dec    	eax
  0x1111	mov    	ecx, dword ptr [esp + 0x280]
  === BLOCK LINK ===
    0x1118
=== CODE BLOCK END ===

=== CODE BLOCK ADDRESS 0x1118 ===
  0x1118	dec    	eax
  0x1119	xor    	ecx, esp
  0x111b	call   	0x2480
  === BLOCK LINK ===
    0x1120
    0x2480
=== CODE BLOCK END ===

=== CODE BLOCK ADDRESS 0x1120 ===
  0x1120	dec    	esp
  0x1121	lea    	ebx, [esp + 0x290]
  0x1128	dec    	ecx
  0x1129	mov    	ebx, dword ptr [ebx + 0x20]
  0x112c	dec    	ecx
  === BLOCK LINK ===
    0x112d
=== CODE BLOCK END ===

=== CODE BLOCK ADDRESS 0x112d ===
  0x112d	mov    	esi, dword ptr [ebx + 0x28]
  0x1130	dec    	ecx
  0x1131	mov    	esp, ebx
  0x1133	pop    	edi
  0x1134	ret    	
  === BLOCK LINK ===
    0x1135
=== CODE BLOCK END ===

=== CODE BLOCK ADDRESS 0x1394 ===
  0x1394	dec    	eax
  0x1395	mov    	dword ptr [esp + 8], ebx
  0x1399	push   	ebp
  0x139a	push   	esi
  0x139b	push   	edi
  === BLOCK LINK ===
    0x139c
=== CODE BLOCK END ===

=== CODE BLOCK ADDRESS 0x1135 ===
  0x1135	int3   	
  0x1136	int3   	
  0x1137	int3   	
  0x1138	int3   	
  0x1139	int3   	
  === BLOCK LINK ===
    0x113a
=== CODE BLOCK END ===

=== CODE BLOCK ADDRESS 0x113a ===
  0x113a	int3   	
  0x113b	int3   	
  0x113c	dec    	eax
  0x113d	mov    	dword ptr [esp + 0x18], ebx
  0x1141	push   	ebp
  === BLOCK LINK ===
    0x1142
=== CODE BLOCK END ===

=== CODE BLOCK ADDRESS 0x1142 ===
  0x1142	push   	esi
  0x1143	push   	edi
  0x1144	inc    	ecx
  0x1145	push   	esi
  0x1146	inc    	ecx
  === BLOCK LINK ===
    0x1147
=== CODE BLOCK END ===

=== CODE BLOCK ADDRESS 0x1147 ===
  0x1147	push   	edi
  0x1148	dec    	eax
  0x1149	lea    	ebp, [esp - 0x1a0]
  0x1150	dec    	eax
  0x1151	sub    	esp, 0x2a0
  === BLOCK LINK ===
    0x1157
=== CODE BLOCK END ===

=== CODE BLOCK ADDRESS 0x1157 ===
  0x1157	dec    	eax
  0x1158	mov    	eax, dword ptr [0x3eaa]
  0x115e	dec    	eax
  0x115f	xor    	eax, esp
  0x1161	dec    	eax
  === BLOCK LINK ===
    0x1162
=== CODE BLOCK END ===

=== CODE BLOCK ADDRESS 0x1162 ===
  0x1162	mov    	dword ptr [ebp + 0x190], eax
  0x1168	dec    	esp
  0x1169	mov    	edi, ecx
  0x116b	dec    	ebp
  0x116c	mov    	esi, ecx
  === BLOCK LINK ===
    0x116e
=== CODE BLOCK END ===

=== CODE BLOCK ADDRESS 0x116e ===
  0x116e	dec    	eax
  0x116f	lea    	ecx, [esp + 0x48]
  0x1173	dec    	eax
  0x1174	mov    	esi, edx
  0x1176	dec    	eax
  === BLOCK LINK ===
    0x1177
=== CODE BLOCK END ===

=== CODE BLOCK ADDRESS 0x1177 ===
  0x1177	call   	dword ptr [0x21cb]
  === BLOCK LINK ===
    0x117d
=== CODE BLOCK END ===

=== CODE BLOCK ADDRESS 0x117d ===
  0x117d	nop    	dword ptr [eax + eax]
  0x1182	inc    	ecx
  0x1183	movzx  	ecx, word ptr [edi]
  0x1186	dec    	esp
  0x1187	lea    	ecx, [esp + 0x30]
  === BLOCK LINK ===
    0x118b
=== CODE BLOCK END ===

=== CODE BLOCK ADDRESS 0x118b ===
  0x118b	sub    	ecx, 0x40
  0x118e	dec    	eax
  0x118f	lea    	edx, [esp + 0x70]
  0x1193	call   	0x1394
  === BLOCK LINK ===
    0x1198
    0x1394
=== CODE BLOCK END ===

=== CODE BLOCK ADDRESS 0x1198 ===
  0x1198	xor    	edi, edi
  0x119a	test   	al, al
  0x119c	jne    	0x1278
  === BLOCK LINK ===
    0x11a2
    0x1278
=== CODE BLOCK END ===

=== CODE BLOCK ADDRESS 0x11a2 ===
  0x11a2	mov    	ebx, dword ptr [esp + 0x30]
  0x11a6	cmp    	ebx, 2
  0x11a9	jne    	0x127d
  === BLOCK LINK ===
    0x11af
    0x127d
=== CODE BLOCK END ===

=== CODE BLOCK ADDRESS 0x11af ===
  0x11af	dec    	eax
  0x11b0	or     	eax, 0xffffffff
  === BLOCK LINK ===
    0x11b3
=== CODE BLOCK END ===

=== CODE BLOCK ADDRESS 0x11ba ===
  0x11ba	jne    	0x11b3
  === BLOCK LINK ===
    0x11bc
    0x11b3
=== CODE BLOCK END ===

=== CODE BLOCK ADDRESS 0x11bc ===
  0x11bc	dec    	eax
  0x11bd	cmp    	eax, 3
  0x11c0	jne    	0x124c
  === BLOCK LINK ===
    0x11c6
    0x124c
=== CODE BLOCK END ===

=== CODE BLOCK ADDRESS 0x11c6 ===
  0x11c6	cmp    	word ptr [esi + 2], 0x3a
  0x11cb	jne    	0x124c
  === BLOCK LINK ===
    0x11cd
    0x124c
=== CODE BLOCK END ===

=== CODE BLOCK ADDRESS 0x11cd ===
  0x11cd	cmp    	word ptr [esi + 4], 0x5c
  0x11d2	jne    	0x124c
  === BLOCK LINK ===
    0x11d4
    0x124c
=== CODE BLOCK END ===

=== CODE BLOCK ADDRESS 0x11d4 ===
  0x11d4	cmp    	word ptr [esi + 6], di
  0x11d8	jne    	0x124c
  === BLOCK LINK ===
    0x11da
    0x124c
=== CODE BLOCK END ===

=== CODE BLOCK ADDRESS 0x11da ===
  0x11da	inc    	ebp
  0x11db	xor    	ecx, ecx
  0x11dd	dec    	eax
  0x11de	lea    	edx, [esp + 0x38]
  0x11e2	inc    	ebp
  === BLOCK LINK ===
    0x11e3
=== CODE BLOCK END ===

=== CODE BLOCK ADDRESS 0x11e3 ===
  0x11e3	xor    	eax, eax
  0x11e5	dec    	eax
  0x11e6	mov    	ecx, esi
  0x11e8	dec    	eax
  0x11e9	call   	dword ptr [0x2041]
  === BLOCK LINK ===
    0x11ef
=== CODE BLOCK END ===

=== CODE BLOCK ADDRESS 0x11ef ===
  0x11ef	nop    	dword ptr [eax + eax]
  0x11f4	test   	al, al
  0x11f6	je     	0x1264
  === BLOCK LINK ===
    0x11f8
    0x1264
=== CODE BLOCK END ===

=== CODE BLOCK ADDRESS 0x11f8 ===
  0x11f8	movzx  	ecx, word ptr [esp + 0x38]
  0x11fd	dec    	ecx
  0x11fe	mov    	edx, edi
  0x1200	dec    	eax
  0x1201	mov    	eax, dword ptr [esp + 0x40]
  === BLOCK LINK ===
    0x1205
=== CODE BLOCK END ===

=== CODE BLOCK ADDRESS 0x1205 ===
  0x1205	dec    	eax
  0x1206	shr    	ecx, 1
  0x1208	mov    	word ptr [eax + ecx*2 - 2], di
  0x120d	mov    	ecx, 1
  0x1212	dec    	esp
  === BLOCK LINK ===
    0x1213
=== CODE BLOCK END ===

=== CODE BLOCK ADDRESS 0x1213 ===
  0x1213	mov    	eax, dword ptr [esp + 0x40]
  0x1217	dec    	eax
  0x1218	call   	dword ptr [0x1f1a]
  === BLOCK LINK ===
    0x121e
=== CODE BLOCK END ===

=== CODE BLOCK ADDRESS 0x121e ===
  0x121e	nop    	dword ptr [eax + eax]
  0x1223	test   	eax, eax
  0x1225	jne    	0x1237
  === BLOCK LINK ===
    0x1227
    0x1237
=== CODE BLOCK END ===

=== CODE BLOCK ADDRESS 0x1227 ===
  0x1227	dec    	eax
  0x1228	call   	dword ptr [0x1f02]
  === BLOCK LINK ===
    0x122e
=== CODE BLOCK END ===

=== CODE BLOCK ADDRESS 0x122e ===
  0x122e	nop    	dword ptr [eax + eax]
  0x1233	mov    	ebx, eax
  0x1235	jmp    	0x1239
  === BLOCK LINK ===
    0x1237
    0x1239
=== CODE BLOCK END ===

=== CODE BLOCK ADDRESS 0x1237 ===
  0x1237	mov    	ebx, edi
  === BLOCK LINK ===
    0x1239
=== CODE BLOCK END ===

=== CODE BLOCK ADDRESS 0x1245 ===
  0x1245	nop    	dword ptr [eax + eax]
  0x124a	jmp    	0x127d
  === BLOCK LINK ===
    0x124c
    0x127d
=== CODE BLOCK END ===

=== CODE BLOCK ADDRESS 0x124c ===
  0x124c	dec    	esp
  0x124d	mov    	eax, esi
  0x124f	dec    	ecx
  0x1250	mov    	edx, edi
  0x1252	xor    	ecx, ecx
  === BLOCK LINK ===
    0x1254
=== CODE BLOCK END ===

=== CODE BLOCK ADDRESS 0x1254 ===
  0x1254	dec    	eax
  0x1255	call   	dword ptr [0x1edd]
  === BLOCK LINK ===
    0x125b
=== CODE BLOCK END ===

=== CODE BLOCK ADDRESS 0x125b ===
  0x125b	nop    	dword ptr [eax + eax]
  0x1260	test   	eax, eax
  0x1262	jne    	0x1274
  === BLOCK LINK ===
    0x1264
    0x1274
=== CODE BLOCK END ===

=== CODE BLOCK ADDRESS 0x1264 ===
  0x1264	dec    	eax
  0x1265	call   	dword ptr [0x1ec5]
  === BLOCK LINK ===
    0x126b
=== CODE BLOCK END ===

=== CODE BLOCK ADDRESS 0x126b ===
  0x126b	nop    	dword ptr [eax + eax]
  0x1270	mov    	ebx, eax
  0x1272	jmp    	0x127d
  === BLOCK LINK ===
    0x1274
    0x127d
=== CODE BLOCK END ===

=== CODE BLOCK ADDRESS 0x1274 ===
  0x1274	mov    	ebx, edi
  0x1276	jmp    	0x127d
  === BLOCK LINK ===
    0x1278
    0x127d
=== CODE BLOCK END ===

=== CODE BLOCK ADDRESS 0x1278 ===
  0x1278	mov    	ebx, 0x87
  === BLOCK LINK ===
    0x127d
    0x134f
=== CODE BLOCK END ===

=== CODE BLOCK ADDRESS 0x1285 ===
  0x1285	cmp    	ebx, 0x87
  0x128b	jne    	0x12c6
  === BLOCK LINK ===
    0x128d
=== CODE BLOCK END ===

=== CODE BLOCK ADDRESS 0x128d ===
  0x128d	dec    	ecx
  0x128e	mov    	eax, dword ptr [esi]
  0x1290	inc    	ecx
  0x1291	mov    	ecx, 3
  0x1296	inc    	ebp
  === BLOCK LINK ===
    0x1297
=== CODE BLOCK END ===

=== CODE BLOCK ADDRESS 0x1297 ===
  0x1297	xor    	eax, eax
  0x1299	mov    	edx, 0x772c
  0x129e	dec    	ecx
  0x129f	mov    	ecx, esi
  0x12a1	dec    	eax
  === BLOCK LINK ===
    0x12a2
=== CODE BLOCK END ===

=== CODE BLOCK ADDRESS 0x12a2 ===
  0x12a2	mov    	eax, dword ptr [eax + 0x20]
  0x12a5	call   	dword ptr [0x213d]
  === BLOCK LINK ===
    0x12ab
=== CODE BLOCK END ===

=== CODE BLOCK ADDRESS 0x12ab ===
  0x12ab	dec    	eax
  0x12ac	lea    	edx, [0x21ae]
  0x12b2	dec    	ecx
  0x12b3	mov    	ecx, esi
  0x12b5	dec    	eax
  === BLOCK LINK ===
    0x12b6
=== CODE BLOCK END ===

=== CODE BLOCK ADDRESS 0x12b6 ===
  0x12b6	call   	dword ptr [0x202c]
  === BLOCK LINK ===
    0x12bc
=== CODE BLOCK END ===

=== CODE BLOCK ADDRESS 0x12bc ===
  0x12bc	nop    	dword ptr [eax + eax]
  0x12c1	jmp    	0x1352
  === BLOCK LINK ===
    0x12c6
=== CODE BLOCK END ===

=== CODE BLOCK ADDRESS 0x12c6 ===
  0x12c6	inc    	ecx
  0x12c7	or     	eax, 0xffffffff
  0x12ca	dec    	eax
  0x12cb	lea    	ecx, [esp + 0x48]
  0x12cf	cmp    	ebx, 2
  === BLOCK LINK ===
    0x12d2
=== CODE BLOCK END ===

=== CODE BLOCK ADDRESS 0x12d2 ===
  0x12d2	jne    	0x12ea
  === BLOCK LINK ===
    0x12d4
=== CODE BLOCK END ===

=== CODE BLOCK ADDRESS 0x12d4 ===
  0x12d4	dec    	eax
  0x12d5	mov    	edx, esi
  0x12d7	dec    	eax
  0x12d8	call   	dword ptr [0x204a]
  === BLOCK LINK ===
    0x12de
=== CODE BLOCK END ===

=== CODE BLOCK ADDRESS 0x12de ===
  0x12de	nop    	dword ptr [eax + eax]
  0x12e3	mov    	edx, 0x7731
  0x12e8	jmp    	0x1319
  === BLOCK LINK ===
    0x12ea
=== CODE BLOCK END ===

=== CODE BLOCK ADDRESS 0x12ea ===
  0x12ea	cmp    	ebx, 5
  0x12ed	jne    	0x1305
  === BLOCK LINK ===
    0x12ef
=== CODE BLOCK END ===

=== CODE BLOCK ADDRESS 0x12ef ===
  0x12ef	dec    	eax
  0x12f0	mov    	edx, esi
  0x12f2	dec    	eax
  0x12f3	call   	dword ptr [0x202f]
  === BLOCK LINK ===
    0x12f9
=== CODE BLOCK END ===

=== CODE BLOCK ADDRESS 0x12f9 ===
  0x12f9	nop    	dword ptr [eax + eax]
  0x12fe	mov    	edx, 0x7732
  0x1303	jmp    	0x1319
  === BLOCK LINK ===
    0x1305
=== CODE BLOCK END ===

=== CODE BLOCK ADDRESS 0x1305 ===
  0x1305	dec    	ecx
  0x1306	mov    	edx, edi
  0x1308	dec    	eax
  0x1309	call   	dword ptr [0x2019]
  === BLOCK LINK ===
    0x130f
=== CODE BLOCK END ===

=== CODE BLOCK ADDRESS 0x130f ===
  0x130f	nop    	dword ptr [eax + eax]
  0x1314	mov    	edx, 0x772f
  0x1319	dec    	ecx
  0x131a	mov    	eax, dword ptr [esi]
  0x131c	inc    	ecx
  === BLOCK LINK ===
    0x131d
=== CODE BLOCK END ===

=== CODE BLOCK ADDRESS 0x131d ===
  0x131d	mov    	ecx, 3
  0x1322	inc    	ebp
  0x1323	xor    	eax, eax
  0x1325	dec    	ecx
  0x1326	mov    	ecx, esi
  === BLOCK LINK ===
    0x1328
=== CODE BLOCK END ===

=== CODE BLOCK ADDRESS 0x1328 ===
  0x1328	dec    	eax
  0x1329	mov    	eax, dword ptr [eax + 0x20]
  0x132c	call   	dword ptr [0x20b6]
  === BLOCK LINK ===
    0x1332
=== CODE BLOCK END ===

=== CODE BLOCK ADDRESS 0x1332 ===
  0x1332	dec    	esp
  0x1333	lea    	eax, [esp + 0x48]
  0x1337	dec    	ecx
  0x1338	mov    	ecx, esi
  0x133a	dec    	eax
  === BLOCK LINK ===
    0x133b
=== CODE BLOCK END ===

=== CODE BLOCK ADDRESS 0x133b ===
  0x133b	lea    	edx, [0x2123]
  0x1341	dec    	eax
  0x1342	call   	dword ptr [0x1fa0]
  === BLOCK LINK ===
    0x1348
=== CODE BLOCK END ===

=== CODE BLOCK ADDRESS 0x1348 ===
  0x1348	nop    	dword ptr [eax + eax]
  0x134d	jmp    	0x1352
  === BLOCK LINK ===
    0x134f
=== CODE BLOCK END ===

=== CODE BLOCK ADDRESS 0x134f ===
  0x134f	inc    	eax
  0x1350	mov    	bh, 1
  0x1352	dec    	eax
  0x1353	lea    	ecx, [esp + 0x48]
  0x1357	dec    	eax
  === BLOCK LINK ===
    0x1358
=== CODE BLOCK END ===

=== CODE BLOCK ADDRESS 0x1358 ===
  0x1358	call   	dword ptr [0x1fc2]
  === BLOCK LINK ===
    0x135e
=== CODE BLOCK END ===

=== CODE BLOCK ADDRESS 0x135e ===
  0x135e	nop    	dword ptr [eax + eax]
  0x1363	inc    	eax
  0x1364	mov    	al, bh
  0x1366	dec    	eax
  0x1367	mov    	ecx, dword ptr [ebp + 0x190]
  === BLOCK LINK ===
    0x136d
=== CODE BLOCK END ===

=== CODE BLOCK ADDRESS 0x136d ===
  0x136d	dec    	eax
  0x136e	xor    	ecx, esp
  0x1370	call   	0x2480
  === BLOCK LINK ===
    0x1375
=== CODE BLOCK END ===

=== CODE BLOCK ADDRESS 0x1375 ===
  0x1375	dec    	eax
  0x1376	mov    	ebx, dword ptr [esp + 0x2e0]
  0x137d	dec    	eax
  0x137e	add    	esp, 0x2a0
  0x1384	inc    	ecx
  === BLOCK LINK ===
    0x1385
=== CODE BLOCK END ===

=== CODE BLOCK ADDRESS 0x1385 ===
  0x1385	pop    	edi
  0x1386	inc    	ecx
  0x1387	pop    	esi
  0x1388	pop    	edi
  0x1389	pop    	esi
  === BLOCK LINK ===
    0x138a
=== CODE BLOCK END ===

=== CODE BLOCK ADDRESS 0x138a ===
  0x138a	pop    	ebp
  0x138b	ret    	
  0x138c	int3   	
  0x138d	int3   	
  0x138e	int3   	
  === BLOCK LINK ===
    0x138f
=== CODE BLOCK END ===

=== CODE BLOCK ADDRESS 0x138f ===
  0x138f	int3   	
  0x1390	int3   	
  0x1391	int3   	
  0x1392	int3   	
  0x1393	int3   	
  === BLOCK LINK ===
    0x1394
=== CODE BLOCK END ===

=== CODE BLOCK ADDRESS 0x139c ===
  0x139c	dec    	eax
  0x139d	mov    	ebp, esp
  0x139f	dec    	eax
  0x13a0	sub    	esp, 0x80
  0x13a6	dec    	eax
  === BLOCK LINK ===
    0x13a7
=== CODE BLOCK END ===

=== CODE BLOCK ADDRESS 0x13a7 ===
  0x13a7	mov    	eax, dword ptr [0x3c5b]
  0x13ad	dec    	eax
  0x13ae	xor    	eax, esp
  0x13b0	dec    	eax
  0x13b1	mov    	dword ptr [ebp - 8], eax
  === BLOCK LINK ===
    0x13b4
=== CODE BLOCK END ===

=== CODE BLOCK ADDRESS 0x13b4 ===
  0x13b4	mov    	ebx, ecx
  0x13b6	dec    	ecx
  0x13b7	mov    	edi, ecx
  0x13b9	dec    	eax
  0x13ba	lea    	ecx, [ebp - 0x38]
  === BLOCK LINK ===
    0x13bd
=== CODE BLOCK END ===

=== CODE BLOCK ADDRESS 0x13bd ===
  0x13bd	dec    	eax
  0x13be	mov    	esi, edx
  0x13c0	dec    	eax
  0x13c1	call   	dword ptr [0x1f81]
  === BLOCK LINK ===
    0x13c7
=== CODE BLOCK END ===

=== CODE BLOCK ADDRESS 0x13c7 ===
  0x13c7	nop    	dword ptr [eax + eax]
  0x13cc	dec    	eax
  0x13cd	lea    	ecx, [ebp - 0x60]
  0x13d0	dec    	eax
  0x13d1	call   	dword ptr [0x1f71]
  === BLOCK LINK ===
    0x13d7
=== CODE BLOCK END ===

=== CODE BLOCK ADDRESS 0x13d7 ===
  0x13d7	nop    	dword ptr [eax + eax]
  0x13dc	add    	bx, 0x40
  0x13e0	mov    	dword ptr [ebp - 0xe], 0x3a
  0x13e7	mov    	word ptr [ebp - 0x10], bx
  0x13eb	dec    	eax
  === BLOCK LINK ===
    0x13ec
=== CODE BLOCK END ===

=== CODE BLOCK ADDRESS 0x13ec ===
  0x13ec	lea    	ecx, [ebp - 0x10]
  0x13ef	inc    	ecx
  0x13f0	mov    	eax, 0x10c
  0x13f5	dec    	eax
  0x13f6	mov    	edx, esi
  === BLOCK LINK ===
    0x13f8
=== CODE BLOCK END ===

=== CODE BLOCK ADDRESS 0x13f8 ===
  0x13f8	xor    	ebx, ebx
  0x13fa	dec    	eax
  0x13fb	call   	dword ptr [0x1d27]
  === BLOCK LINK ===
    0x1401
=== CODE BLOCK END ===

=== CODE BLOCK ADDRESS 0x1401 ===
  0x1401	nop    	dword ptr [eax + eax]
  0x1406	test   	eax, eax
  0x1408	je     	0x1478
  === BLOCK LINK ===
    0x140a
=== CODE BLOCK END ===

=== CODE BLOCK ADDRESS 0x140a ===
  0x140a	inc    	ecx
  0x140b	or     	eax, 0xffffffff
  0x140e	dec    	eax
  0x140f	lea    	edx, [0x2053]
  0x1415	dec    	eax
  === BLOCK LINK ===
    0x1416
=== CODE BLOCK END ===

=== CODE BLOCK ADDRESS 0x1416 ===
  0x1416	lea    	ecx, [ebp - 0x38]
  0x1419	dec    	eax
  0x141a	call   	dword ptr [0x1f08]
  === BLOCK LINK ===
    0x1420
=== CODE BLOCK END ===

=== CODE BLOCK ADDRESS 0x1420 ===
  0x1420	nop    	dword ptr [eax + eax]
  0x1425	inc    	ecx
  0x1426	or     	eax, 0xffffffff
  0x1429	dec    	eax
  0x142a	lea    	ecx, [ebp - 0x60]
  === BLOCK LINK ===
    0x142d
=== CODE BLOCK END ===

=== CODE BLOCK ADDRESS 0x142d ===
  0x142d	dec    	eax
  0x142e	mov    	edx, esi
  0x1430	dec    	eax
  0x1431	call   	dword ptr [0x1ef1]
  === BLOCK LINK ===
    0x1437
=== CODE BLOCK END ===

=== CODE BLOCK ADDRESS 0x1437 ===
  0x1437	nop    	dword ptr [eax + eax]
  0x143c	dec    	eax
  0x143d	lea    	edx, [ebp - 0x38]
  0x1440	dec    	eax
  0x1441	lea    	ecx, [ebp - 0x60]
  === BLOCK LINK ===
    0x1444
=== CODE BLOCK END ===

=== CODE BLOCK ADDRESS 0x1444 ===
  0x1444	dec    	eax
  0x1445	call   	dword ptr [0x1ee5]
  === BLOCK LINK ===
    0x144b
=== CODE BLOCK END ===

=== CODE BLOCK ADDRESS 0x144b ===
  0x144b	nop    	dword ptr [eax + eax]
  0x1450	test   	eax, eax
  0x1452	jne    	0x1470
  === BLOCK LINK ===
    0x1454
=== CODE BLOCK END ===

=== CODE BLOCK ADDRESS 0x1454 ===
  0x1454	inc    	esp
  0x1455	mov    	eax, dword ptr [ebp - 0x20]
  0x1458	dec    	eax
  0x1459	lea    	ecx, [ebp - 0x60]
  0x145c	xor    	edx, edx
  === BLOCK LINK ===
    0x145e
=== CODE BLOCK END ===

=== CODE BLOCK ADDRESS 0x145e ===
  0x145e	dec    	eax
  0x145f	call   	dword ptr [0x1e9b]
  === BLOCK LINK ===
    0x1465
=== CODE BLOCK END ===

=== CODE BLOCK ADDRESS 0x1465 ===
  0x1465	nop    	dword ptr [eax + eax]
  0x146a	mov    	dword ptr [edi], ebx
  0x146c	mov    	bl, 1
  0x146e	jmp    	0x1486
  === BLOCK LINK ===
    0x1470
=== CODE BLOCK END ===

=== CODE BLOCK ADDRESS 0x1470 ===
  0x1470	mov    	dword ptr [edi], 0x57
  0x1476	jmp    	0x1486
  === BLOCK LINK ===
    0x1478
=== CODE BLOCK END ===

=== CODE BLOCK ADDRESS 0x1478 ===
  0x1478	dec    	eax
  0x1479	call   	dword ptr [0x1cb1]
  === BLOCK LINK ===
    0x147f
=== CODE BLOCK END ===

=== CODE BLOCK ADDRESS 0x147f ===
  0x147f	nop    	dword ptr [eax + eax]
  0x1484	mov    	dword ptr [edi], eax
  0x1486	dec    	eax
  0x1487	lea    	ecx, [ebp - 0x60]
  0x148a	dec    	eax
  === BLOCK LINK ===
    0x148b
=== CODE BLOCK END ===

=== CODE BLOCK ADDRESS 0x148b ===
  0x148b	call   	dword ptr [0x1e8f]
  === BLOCK LINK ===
    0x1491
=== CODE BLOCK END ===

=== CODE BLOCK ADDRESS 0x1491 ===
  0x1491	nop    	dword ptr [eax + eax]
  0x1496	dec    	eax
  0x1497	lea    	ecx, [ebp - 0x38]
  0x149a	dec    	eax
  0x149b	call   	dword ptr [0x1e7f]
  === BLOCK LINK ===
    0x14a1
=== CODE BLOCK END ===

=== CODE BLOCK ADDRESS 0x14a1 ===
  0x14a1	nop    	dword ptr [eax + eax]
  0x14a6	mov    	al, bl
  0x14a8	dec    	eax
  0x14a9	mov    	ecx, dword ptr [ebp - 8]
  0x14ac	dec    	eax
  === BLOCK LINK ===
    0x14ad
=== CODE BLOCK END ===

=== CODE BLOCK ADDRESS 0x14ad ===
  0x14ad	xor    	ecx, esp
  0x14af	call   	0x2480
  === BLOCK LINK ===
    0x14b4
=== CODE BLOCK END ===

=== CODE BLOCK ADDRESS 0x14b4 ===
  0x14b4	dec    	eax
  0x14b5	mov    	ebx, dword ptr [esp + 0xa0]
  0x14bc	dec    	eax
  0x14bd	add    	esp, 0x80
  0x14c3	pop    	edi
  === BLOCK LINK ===
    0x14c4
=== CODE BLOCK END ===

=== CODE BLOCK ADDRESS 0x14c4 ===
  0x14c4	pop    	esi
  0x14c5	pop    	ebp
  0x14c6	ret    	
  0x14c7	int3   	
  0x14c8	int3   	
  === BLOCK LINK ===
    0x14c9
=== CODE BLOCK END ===

=== CODE BLOCK ADDRESS 0x10fa ===
  0x10fa	dec    	eax
  0x10fb	lea    	ecx, [esp + 0x38]
  0x10ff	dec    	eax
  0x1100	call   	dword ptr [0x221a]
  === BLOCK LINK ===
    0x1106
=== CODE BLOCK END ===

=== CODE BLOCK ADDRESS 0x14c9 ===
  0x14c9	int3   	
  0x14ca	int3   	
  0x14cb	int3   	
  0x14cc	int3   	
  0x14cd	int3   	
  === BLOCK LINK ===
    0x14ce
=== CODE BLOCK END ===

=== CODE BLOCK ADDRESS 0x14ce ===
  0x14ce	int3   	
  0x14cf	int3   	
  0x14d0	dec    	eax
  0x14d1	mov    	eax, esp
  0x14d3	dec    	eax
  === BLOCK LINK ===
    0x14d4
=== CODE BLOCK END ===

=== CODE BLOCK ADDRESS 0x14d4 ===
  0x14d4	mov    	dword ptr [eax + 0x10], ebx
  0x14d7	dec    	eax
  0x14d8	mov    	dword ptr [eax + 0x18], esi
  0x14db	dec    	eax
  0x14dc	mov    	dword ptr [eax + 0x20], edi
  === BLOCK LINK ===
    0x14df
=== CODE BLOCK END ===

=== CODE BLOCK ADDRESS 0x14df ===
  0x14df	push   	ebp
  0x14e0	dec    	eax
  0x14e1	lea    	ebp, [eax - 0x1c8]
  0x14e7	dec    	eax
  0x14e8	sub    	esp, 0x2c0
  === BLOCK LINK ===
    0x14ee
=== CODE BLOCK END ===

=== CODE BLOCK ADDRESS 0x14ee ===
  0x14ee	dec    	eax
  0x14ef	mov    	eax, dword ptr [0x3b13]
  0x14f5	dec    	eax
  0x14f6	xor    	eax, esp
  0x14f8	dec    	eax
  === BLOCK LINK ===
    0x14f9
=== CODE BLOCK END ===

=== CODE BLOCK ADDRESS 0x14f9 ===
  0x14f9	mov    	dword ptr [ebp + 0x1b0], eax
  0x14ff	dec    	eax
  0x1500	mov    	edi, ecx
  0x1502	dec    	eax
  0x1503	lea    	ecx, [esp + 0x38]
  === BLOCK LINK ===
    0x1507
=== CODE BLOCK END ===

=== CODE BLOCK ADDRESS 0x1507 ===
  0x1507	dec    	eax
  0x1508	call   	dword ptr [0x1ea2]
  === BLOCK LINK ===
    0x150e
=== CODE BLOCK END ===

=== CODE BLOCK ADDRESS 0x150e ===
  0x150e	nop    	dword ptr [eax + eax]
  0x1513	dec    	eax
  0x1514	lea    	ecx, [esp + 0x68]
  0x1518	dec    	eax
  0x1519	call   	dword ptr [0x1e29]
  === BLOCK LINK ===
    0x151f
=== CODE BLOCK END ===

=== CODE BLOCK ADDRESS 0x151f ===
  0x151f	nop    	dword ptr [eax + eax]
  0x1524	inc    	ecx
  0x1525	or     	eax, 0xffffffff
  0x1528	dec    	eax
  0x1529	lea    	edx, [0x1f49]
  === BLOCK LINK ===
    0x152f
=== CODE BLOCK END ===

=== CODE BLOCK ADDRESS 0x152f ===
  0x152f	dec    	eax
  0x1530	lea    	ecx, [esp + 0x38]
  0x1534	dec    	eax
  0x1535	call   	dword ptr [0x1dd5]
  === BLOCK LINK ===
    0x153b
=== CODE BLOCK END ===

=== CODE BLOCK ADDRESS 0x153b ===
  0x153b	nop    	dword ptr [eax + eax]
  0x1540	dec    	eax
  0x1541	mov    	eax, dword ptr [edi]
  0x1543	inc    	ecx
  0x1544	mov    	ecx, 3
  === BLOCK LINK ===
    0x1549
=== CODE BLOCK END ===

=== CODE BLOCK ADDRESS 0x1549 ===
  0x1549	inc    	ebp
  0x154a	xor    	eax, eax
  0x154c	mov    	edx, 0x772e
  0x1551	dec    	eax
  0x1552	mov    	ecx, edi
  === BLOCK LINK ===
    0x1554
=== CODE BLOCK END ===

=== CODE BLOCK ADDRESS 0x1554 ===
  0x1554	dec    	eax
  0x1555	mov    	eax, dword ptr [eax + 0x20]
  0x1558	call   	dword ptr [0x1e8a]
  === BLOCK LINK ===
    0x155e
=== CODE BLOCK END ===

=== CODE BLOCK ADDRESS 0x155e ===
  0x155e	xor    	esi, esi
  0x1560	mov    	ebx, 1
  0x1565	dec    	esp
  0x1566	lea    	ecx, [esp + 0x30]
  0x156a	mov    	ecx, ebx
  === BLOCK LINK ===
    0x156c
=== CODE BLOCK END ===

=== CODE BLOCK ADDRESS 0x156c ===
  0x156c	dec    	eax
  0x156d	lea    	edx, [ebp - 0x70]
  0x1570	call   	0x1394
  === BLOCK LINK ===
    0x1575
=== CODE BLOCK END ===

=== CODE BLOCK ADDRESS 0x1575 ===
  0x1575	test   	al, al
  0x1577	je     	0x15e8
  === BLOCK LINK ===
    0x1579
=== CODE BLOCK END ===

=== CODE BLOCK ADDRESS 0x1579 ===
  0x1579	dec    	eax
  0x157a	mov    	eax, dword ptr [esp + 0x48]
  0x157e	lea    	ecx, [ebx + 0x40]
  0x1581	mov    	word ptr [eax], cx
  0x1584	dec    	eax
  === BLOCK LINK ===
    0x1585
=== CODE BLOCK END ===

=== CODE BLOCK ADDRESS 0x1585 ===
  0x1585	lea    	ecx, [ebp - 0x70]
  0x1588	dec    	eax
  0x1589	or     	eax, 0xffffffff
  0x158c	dec    	eax
  0x158d	inc    	eax
  === BLOCK LINK ===
    0x158f
=== CODE BLOCK END ===

=== CODE BLOCK ADDRESS 0x158f ===
  0x158f	cmp    	word ptr [ecx + eax*2], si
  0x1593	jne    	0x158c
  === BLOCK LINK ===
    0x1595
=== CODE BLOCK END ===

=== CODE BLOCK ADDRESS 0x1595 ===
  0x1595	dec    	eax
  0x1596	cmp    	eax, 2
  0x1599	jne    	0x15af
  === BLOCK LINK ===
    0x159b
=== CODE BLOCK END ===

=== CODE BLOCK ADDRESS 0x159b ===
  0x159b	cmp    	word ptr [ebp - 0x6e], 0x3a
  0x15a0	jne    	0x15af
  === BLOCK LINK ===
    0x15a2
=== CODE BLOCK END ===

=== CODE BLOCK ADDRESS 0x15a2 ===
  0x15a2	cmp    	word ptr [ebp - 0x6c], si
  0x15a6	jne    	0x15af
  === BLOCK LINK ===
    0x15a8
=== CODE BLOCK END ===

=== CODE BLOCK ADDRESS 0x15a8 ===
  0x15a8	mov    	dword ptr [ebp - 0x6c], 0x5c
  0x15af	inc    	ecx
  0x15b0	or     	eax, 0xffffffff
  0x15b3	dec    	eax
  0x15b4	lea    	edx, [ebp - 0x70]
  === BLOCK LINK ===
    0x15b7
=== CODE BLOCK END ===

=== CODE BLOCK ADDRESS 0x15b7 ===
  0x15b7	dec    	eax
  0x15b8	lea    	ecx, [esp + 0x68]
  0x15bc	dec    	eax
  0x15bd	call   	dword ptr [0x1d65]
  === BLOCK LINK ===
    0x15c3
=== CODE BLOCK END ===

=== CODE BLOCK ADDRESS 0x15c3 ===
  0x15c3	nop    	dword ptr [eax + eax]
  0x15c8	dec    	esp
  0x15c9	lea    	ecx, [esp + 0x68]
  0x15cd	dec    	eax
  0x15ce	mov    	ecx, edi
  === BLOCK LINK ===
    0x15d0
=== CODE BLOCK END ===

=== CODE BLOCK ADDRESS 0x15d0 ===
  0x15d0	dec    	esp
  0x15d1	lea    	eax, [esp + 0x38]
  0x15d5	dec    	eax
  0x15d6	lea    	edx, [0x1ea4]
  0x15dc	dec    	eax
  === BLOCK LINK ===
    0x15dd
=== CODE BLOCK END ===

=== CODE BLOCK ADDRESS 0x15dd ===
  0x15dd	call   	dword ptr [0x1d05]
  === BLOCK LINK ===
    0x15e3
=== CODE BLOCK END ===

=== CODE BLOCK ADDRESS 0x15e3 ===
  0x15e3	nop    	dword ptr [eax + eax]
  0x15e8	inc    	ebx
  0x15ea	cmp    	ebx, 0x1a
  0x15ed	jbe    	0x1565
  === BLOCK LINK ===
    0x15f3
=== CODE BLOCK END ===

=== CODE BLOCK ADDRESS 0x15f3 ===
  0x15f3	dec    	eax
  0x15f4	lea    	ecx, [esp + 0x68]
  0x15f8	dec    	eax
  0x15f9	call   	dword ptr [0x1d21]
  === BLOCK LINK ===
    0x15ff
=== CODE BLOCK END ===

=== CODE BLOCK ADDRESS 0x15ff ===
  0x15ff	nop    	dword ptr [eax + eax]
  0x1604	dec    	eax
  0x1605	lea    	ecx, [esp + 0x38]
  0x1609	dec    	eax
  0x160a	call   	dword ptr [0x1da8]
  === BLOCK LINK ===
    0x1610
=== CODE BLOCK END ===

=== CODE BLOCK ADDRESS 0x1610 ===
  0x1610	nop    	dword ptr [eax + eax]
  0x1615	dec    	eax
  0x1616	mov    	ecx, dword ptr [ebp + 0x1b0]
  0x161c	dec    	eax
  0x161d	xor    	ecx, esp
  === BLOCK LINK ===
    0x161f
=== CODE BLOCK END ===

=== CODE BLOCK ADDRESS 0x161f ===
  0x161f	call   	0x2480
  === BLOCK LINK ===
    0x1624
=== CODE BLOCK END ===

=== CODE BLOCK ADDRESS 0x1624 ===
  0x1624	dec    	esp
  0x1625	lea    	ebx, [esp + 0x2c0]
  0x162c	dec    	ecx
  0x162d	mov    	ebx, dword ptr [ebx + 0x18]
  0x1630	dec    	ecx
  === BLOCK LINK ===
    0x1631
=== CODE BLOCK END ===

=== CODE BLOCK ADDRESS 0x1631 ===
  0x1631	mov    	esi, dword ptr [ebx + 0x20]
  0x1634	dec    	ecx
  0x1635	mov    	edi, dword ptr [ebx + 0x28]
  0x1638	dec    	ecx
  0x1639	mov    	esp, ebx
  === BLOCK LINK ===
    0x163b
=== CODE BLOCK END ===

=== CODE BLOCK ADDRESS 0x163b ===
  0x163b	pop    	ebp
  0x163c	ret    	
  0x163d	int3   	
  0x163e	int3   	
  0x163f	int3   	
  === BLOCK LINK ===
    0x1640
=== CODE BLOCK END ===

=== CODE BLOCK ADDRESS 0x108d ===
  0x108d	test   	ebx, ebx
  0x108f	jne    	0x10fa
  === BLOCK LINK ===
    0x1091
=== CODE BLOCK END ===

=== CODE BLOCK ADDRESS 0x1640 ===
  0x1640	int3   	
  0x1641	int3   	
  0x1642	int3   	
  0x1643	int3   	
  0x1644	dec    	eax
  === BLOCK LINK ===
    0x1645
=== CODE BLOCK END ===

=== CODE BLOCK ADDRESS 0x1645 ===
  0x1645	mov    	eax, esp
  0x1647	dec    	eax
  0x1648	mov    	dword ptr [eax + 8], ebx
  0x164b	dec    	eax
  0x164c	mov    	dword ptr [eax + 0x10], esi
  === BLOCK LINK ===
    0x164f
=== CODE BLOCK END ===

=== CODE BLOCK ADDRESS 0x164f ===
  0x164f	dec    	eax
  0x1650	mov    	dword ptr [eax + 0x18], edi
  0x1653	dec    	esp
  0x1654	mov    	dword ptr [eax + 0x20], edi
  0x1657	push   	ebp
  === BLOCK LINK ===
    0x1658
=== CODE BLOCK END ===

=== CODE BLOCK ADDRESS 0x1658 ===
  0x1658	dec    	eax
  0x1659	lea    	ebp, [eax - 0x718]
  0x165f	dec    	eax
  0x1660	sub    	esp, 0x810
  0x1666	dec    	eax
  === BLOCK LINK ===
    0x1667
=== CODE BLOCK END ===

=== CODE BLOCK ADDRESS 0x1667 ===
  0x1667	mov    	eax, dword ptr [0x399b]
  0x166d	dec    	eax
  0x166e	xor    	eax, esp
  0x1670	dec    	eax
  0x1671	mov    	dword ptr [ebp + 0x700], eax
  === BLOCK LINK ===
    0x1677
=== CODE BLOCK END ===

=== CODE BLOCK ADDRESS 0x1677 ===
  0x1677	dec    	eax
  0x1678	lea    	ecx, [esp + 0x60]
  0x167c	dec    	eax
  0x167d	call   	dword ptr [0x1ced]
  === BLOCK LINK ===
    0x1683
=== CODE BLOCK END ===

=== CODE BLOCK ADDRESS 0x1683 ===
  0x1683	nop    	dword ptr [eax + eax]
  0x1688	dec    	eax
  0x1689	lea    	ecx, [ebp + 0x290]
  0x168f	dec    	eax
  0x1690	call   	dword ptr [0x1d32]
  === BLOCK LINK ===
    0x1696
=== CODE BLOCK END ===

=== CODE BLOCK ADDRESS 0x1696 ===
  0x1696	nop    	dword ptr [eax + eax]
  0x169b	dec    	eax
  0x169c	lea    	ecx, [ebp + 0x170]
  0x16a2	dec    	eax
  0x16a3	call   	dword ptr [0x1cdf]
  === BLOCK LINK ===
    0x16a9
=== CODE BLOCK END ===

=== CODE BLOCK ADDRESS 0x16a9 ===
  0x16a9	nop    	dword ptr [eax + eax]
  0x16ae	dec    	eax
  0x16af	lea    	ecx, [esp + 0x30]
  0x16b3	dec    	eax
  0x16b4	call   	dword ptr [0x1cce]
  === BLOCK LINK ===
    0x16ba
=== CODE BLOCK END ===

=== CODE BLOCK ADDRESS 0x16ba ===
  0x16ba	nop    	dword ptr [eax + eax]
  0x16bf	dec    	eax
  0x16c0	lea    	ecx, [ebp + 0x230]
  0x16c6	dec    	eax
  0x16c7	call   	dword ptr [0x1bfb]
  === BLOCK LINK ===
    0x16cd
=== CODE BLOCK END ===

=== CODE BLOCK ADDRESS 0x16cd ===
  0x16cd	nop    	dword ptr [eax + eax]
  0x16d2	dec    	eax
  0x16d3	lea    	ecx, [ebp + 0xb0]
  0x16d9	dec    	eax
  0x16da	call   	dword ptr [0x1c70]
  === BLOCK LINK ===
    0x16e0
=== CODE BLOCK END ===

=== CODE BLOCK ADDRESS 0x16e0 ===
  0x16e0	nop    	dword ptr [eax + eax]
  0x16e5	dec    	eax
  0x16e6	lea    	ecx, [ebp + 0x50]
  0x16e9	dec    	eax
  0x16ea	call   	dword ptr [0x1c60]
  === BLOCK LINK ===
    0x16f0
=== CODE BLOCK END ===

=== CODE BLOCK ADDRESS 0x16f0 ===
  0x16f0	nop    	dword ptr [eax + eax]
  0x16f5	dec    	eax
  0x16f6	lea    	ecx, [ebp + 0x1a0]
  0x16fc	dec    	eax
  0x16fd	call   	dword ptr [0x1bad]
  === BLOCK LINK ===
    0x1703
=== CODE BLOCK END ===

=== CODE BLOCK ADDRESS 0x1703 ===
  0x1703	nop    	dword ptr [eax + eax]
  0x1708	dec    	eax
  0x1709	lea    	ecx, [ebp + 0x110]
  0x170f	dec    	eax
  0x1710	call   	dword ptr [0x1b9a]
  === BLOCK LINK ===
    0x1716
=== CODE BLOCK END ===

=== CODE BLOCK ADDRESS 0x1716 ===
  0x1716	nop    	dword ptr [eax + eax]
  0x171b	mov    	esi, 1
  0x1720	inc    	ebp
  0x1721	xor    	ecx, ecx
  0x1723	mov    	edx, esi
  === BLOCK LINK ===
    0x1725
=== CODE BLOCK END ===

=== CODE BLOCK ADDRESS 0x1725 ===
  0x1725	inc    	ebp
  0x1726	xor    	eax, eax
  0x1728	xor    	ecx, ecx
  0x172a	dec    	eax
  0x172b	call   	dword ptr [0x1a0f]
  === BLOCK LINK ===
    0x1731
=== CODE BLOCK END ===

=== CODE BLOCK ADDRESS 0x1731 ===
  0x1731	nop    	dword ptr [eax + eax]
  0x1736	dec    	eax
  0x1737	call   	dword ptr [0x1c2b]
  === BLOCK LINK ===
    0x173d
=== CODE BLOCK END ===

=== CODE BLOCK ADDRESS 0x173d ===
  0x173d	nop    	dword ptr [eax + eax]
  0x1742	dec    	eax
  0x1743	mov    	edi, eax
  0x1745	dec    	eax
  0x1746	call   	dword ptr [0x1c5c]
  === BLOCK LINK ===
    0x174c
=== CODE BLOCK END ===

=== CODE BLOCK ADDRESS 0x174c ===
  0x174c	nop    	dword ptr [eax + eax]
  0x1751	dec    	eax
  0x1752	mov    	ebx, eax
  0x1754	dec    	eax
  0x1755	call   	dword ptr [0x1b95]
  === BLOCK LINK ===
    0x175b
=== CODE BLOCK END ===

=== CODE BLOCK ADDRESS 0x175b ===
  0x175b	nop    	dword ptr [eax + eax]
  0x1760	dec    	esp
  0x1761	mov    	ecx, edi
  0x1763	dec    	eax
  0x1764	lea    	ecx, [esp + 0x60]
  === BLOCK LINK ===
    0x1768
=== CODE BLOCK END ===

=== CODE BLOCK ADDRESS 0x1768 ===
  0x1768	dec    	eax
  0x1769	mov    	edx, eax
  0x176b	dec    	esp
  0x176c	mov    	eax, ebx
  0x176e	dec    	eax
  === BLOCK LINK ===
    0x176f
=== CODE BLOCK END ===

=== CODE BLOCK ADDRESS 0x176f ===
  0x176f	call   	dword ptr [0x1c4b]
  === BLOCK LINK ===
    0x1775
=== CODE BLOCK END ===

=== CODE BLOCK ADDRESS 0x1775 ===
  0x1775	nop    	dword ptr [eax + eax]
  0x177a	xor    	ebx, ebx
  0x177c	test   	al, al
  0x177e	je     	0x1aa7
  === BLOCK LINK ===
    0x1784
=== CODE BLOCK END ===

=== CODE BLOCK ADDRESS 0x1784 ===
  0x1784	lea    	edi, [esi + 0x18]
  0x1787	inc    	esp
  0x1788	mov    	eax, edi
  0x178a	lea    	edx, [esi + 0x31]
  0x178d	dec    	eax
  === BLOCK LINK ===
    0x178e
=== CODE BLOCK END ===

=== CODE BLOCK ADDRESS 0x178e ===
  0x178e	lea    	ecx, [ebp + 0x170]
  0x1794	dec    	eax
  0x1795	call   	dword ptr [0x1bfd]
  === BLOCK LINK ===
    0x179b
=== CODE BLOCK END ===

=== CODE BLOCK ADDRESS 0x179b ===
  0x179b	nop    	dword ptr [eax + eax]
  0x17a0	test   	al, al
  0x17a2	je     	0x1aa7
  === BLOCK LINK ===
    0x17a8
=== CODE BLOCK END ===

=== CODE BLOCK ADDRESS 0x17a8 ===
  0x17a8	inc    	esp
  0x17a9	mov    	eax, edi
  0x17ab	lea    	edx, [esi + 0x31]
  0x17ae	dec    	eax
  0x17af	lea    	ecx, [esp + 0x30]
  === BLOCK LINK ===
    0x17b3
=== CODE BLOCK END ===

=== CODE BLOCK ADDRESS 0x17b3 ===
  0x17b3	dec    	eax
  0x17b4	call   	dword ptr [0x1bde]
  === BLOCK LINK ===
    0x17ba
=== CODE BLOCK END ===

=== CODE BLOCK ADDRESS 0x17ba ===
  0x17ba	nop    	dword ptr [eax + eax]
  0x17bf	test   	al, al
  0x17c1	je     	0x1aa7
  === BLOCK LINK ===
    0x17c7
=== CODE BLOCK END ===

=== CODE BLOCK ADDRESS 0x17c7 ===
  0x17c7	dec    	eax
  0x17c8	lea    	edx, [ebp + 0x170]
  0x17ce	dec    	eax
  0x17cf	lea    	ecx, [ebp + 0x290]
  0x17d5	dec    	eax
  === BLOCK LINK ===
    0x17d6
=== CODE BLOCK END ===

=== CODE BLOCK ADDRESS 0x17d6 ===
  0x17d6	call   	dword ptr [0x1ac4]
  === BLOCK LINK ===
    0x17dc
=== CODE BLOCK END ===

=== CODE BLOCK ADDRESS 0x17dc ===
  0x17dc	nop    	dword ptr [eax + eax]
  0x17e1	test   	al, al
  0x17e3	je     	0x1aa7
  === BLOCK LINK ===
    0x17e9
=== CODE BLOCK END ===

=== CODE BLOCK ADDRESS 0x17e9 ===
  0x17e9	dec    	eax
  0x17ea	lea    	edx, [0x1c98]
  0x17f0	dec    	eax
  0x17f1	lea    	ecx, [ebp + 0x290]
  0x17f7	dec    	eax
  === BLOCK LINK ===
    0x17f8
=== CODE BLOCK END ===

=== CODE BLOCK ADDRESS 0x17f8 ===
  0x17f8	call   	dword ptr [0x1bd2]
  === BLOCK LINK ===
    0x17fe
=== CODE BLOCK END ===

=== CODE BLOCK ADDRESS 0x17fe ===
  0x17fe	nop    	dword ptr [eax + eax]
  0x1803	inc    	ecx
  0x1804	or     	edi, 0xffffffff
  0x1807	dec    	eax
  0x1808	lea    	edx, [0x1c7e]
  === BLOCK LINK ===
    0x180e
=== CODE BLOCK END ===

=== CODE BLOCK ADDRESS 0x180e ===
  0x180e	inc    	ebp
  0x180f	mov    	eax, edi
  0x1811	dec    	eax
  0x1812	lea    	ecx, [ebp + 0x350]
  0x1818	dec    	eax
  === BLOCK LINK ===
    0x1819
=== CODE BLOCK END ===

=== CODE BLOCK ADDRESS 0x1819 ===
  0x1819	call   	dword ptr [0x1af9]
  === BLOCK LINK ===
    0x181f
=== CODE BLOCK END ===

=== CODE BLOCK ADDRESS 0x181f ===
  0x181f	nop    	dword ptr [eax + eax]
  0x1824	inc    	ebp
  0x1825	mov    	eax, edi
  0x1827	dec    	eax
  0x1828	lea    	edx, [0x1c5e]
  === BLOCK LINK ===
    0x182e
=== CODE BLOCK END ===

=== CODE BLOCK ADDRESS 0x182e ===
  0x182e	dec    	eax
  0x182f	lea    	ecx, [ebp + 0x3b0]
  0x1835	dec    	eax
  0x1836	call   	dword ptr [0x1adc]
  === BLOCK LINK ===
    0x183c
=== CODE BLOCK END ===

=== CODE BLOCK ADDRESS 0x183c ===
  0x183c	nop    	dword ptr [eax + eax]
  0x1841	dec    	eax
  0x1842	lea    	edx, [0x1c48]
  0x1848	dec    	eax
  0x1849	lea    	ecx, [ebp + 0x290]
  === BLOCK LINK ===
    0x184f
=== CODE BLOCK END ===

=== CODE BLOCK ADDRESS 0x184f ===
  0x184f	dec    	eax
  0x1850	call   	dword ptr [0x1a32]
  === BLOCK LINK ===
    0x1856
=== CODE BLOCK END ===

=== CODE BLOCK ADDRESS 0x1856 ===
  0x1856	nop    	dword ptr [eax + eax]
  0x185b	xor    	edx, edx
  0x185d	dec    	eax
  0x185e	lea    	ecx, [ebp + 0x290]
  0x1864	dec    	eax
  === BLOCK LINK ===
    0x1865
=== CODE BLOCK END ===

=== CODE BLOCK ADDRESS 0x1865 ===
  0x1865	call   	dword ptr [0x19fd]
  === BLOCK LINK ===
    0x186b
=== CODE BLOCK END ===

=== CODE BLOCK ADDRESS 0x186b ===
  0x186b	nop    	dword ptr [eax + eax]
  0x1870	xor    	edx, edx
  0x1872	dec    	eax
  0x1873	lea    	ecx, [ebp + 0x290]
  0x1879	dec    	eax
  === BLOCK LINK ===
    0x187a
=== CODE BLOCK END ===

=== CODE BLOCK ADDRESS 0x187a ===
  0x187a	call   	dword ptr [0x19f0]
  === BLOCK LINK ===
    0x1880
=== CODE BLOCK END ===

=== CODE BLOCK ADDRESS 0x1880 ===
  0x1880	nop    	dword ptr [eax + eax]
  0x1885	test   	al, al
  0x1887	je     	0x1aa7
  === BLOCK LINK ===
    0x188d
=== CODE BLOCK END ===

=== CODE BLOCK ADDRESS 0x188d ===
  0x188d	inc    	esp
  0x188e	mov    	eax, edi
  0x1890	lea    	edx, [esi + 0x31]
  0x1893	dec    	eax
  0x1894	lea    	ecx, [esp + 0x30]
  === BLOCK LINK ===
    0x1898
=== CODE BLOCK END ===

=== CODE BLOCK ADDRESS 0x1898 ===
  0x1898	dec    	eax
  0x1899	call   	dword ptr [0x1af9]
  === BLOCK LINK ===
    0x189f
=== CODE BLOCK END ===

=== CODE BLOCK ADDRESS 0x189f ===
  0x189f	nop    	dword ptr [eax + eax]
  0x18a4	test   	al, al
  0x18a6	je     	0x1aa7
  === BLOCK LINK ===
    0x18ac
=== CODE BLOCK END ===

=== CODE BLOCK ADDRESS 0x18ac ===
  0x18ac	dec    	eax
  0x18ad	lea    	edi, [0x1be1]
  0x18b3	dec    	eax
  0x18b4	mov    	edx, edi
  0x18b6	dec    	eax
  === BLOCK LINK ===
    0x18b7
=== CODE BLOCK END ===

=== CODE BLOCK ADDRESS 0x18b7 ===
  0x18b7	lea    	ecx, [ebp + 0x230]
  0x18bd	dec    	eax
  0x18be	call   	dword ptr [0x19f4]
  === BLOCK LINK ===
    0x18c4
=== CODE BLOCK END ===

=== CODE BLOCK ADDRESS 0x18c4 ===
  0x18c4	nop    	dword ptr [eax + eax]
  0x18c9	test   	al, al
  0x18cb	je     	0x1aa7
  === BLOCK LINK ===
    0x18d1
=== CODE BLOCK END ===

=== CODE BLOCK ADDRESS 0x18d1 ===
  0x18d1	dec    	eax
  0x18d2	lea    	edx, [0x1bc0]
  0x18d8	dec    	eax
  0x18d9	lea    	ecx, [ebp + 0x1a0]
  0x18df	dec    	eax
  === BLOCK LINK ===
    0x18e0
=== CODE BLOCK END ===

=== CODE BLOCK ADDRESS 0x18e0 ===
  0x18e0	call   	dword ptr [0x1a5a]
  === BLOCK LINK ===
    0x18e6
=== CODE BLOCK END ===

=== CODE BLOCK ADDRESS 0x18e6 ===
  0x18e6	nop    	dword ptr [eax + eax]
  0x18eb	test   	al, al
  0x18ed	je     	0x1aa7
  === BLOCK LINK ===
    0x18f3
=== CODE BLOCK END ===

=== CODE BLOCK ADDRESS 0x18f3 ===
  0x18f3	inc    	ebp
  0x18f4	xor    	eax, eax
  0x18f6	dec    	eax
  0x18f7	lea    	ecx, [ebp + 0xb0]
  0x18fd	dec    	eax
  === BLOCK LINK ===
    0x18fe
=== CODE BLOCK END ===

=== CODE BLOCK ADDRESS 0x18fe ===
  0x18fe	mov    	edx, edi
  0x1900	dec    	eax
  0x1901	call   	dword ptr [0x1a59]
  === BLOCK LINK ===
    0x1907
=== CODE BLOCK END ===

=== CODE BLOCK ADDRESS 0x1907 ===
  0x1907	nop    	dword ptr [eax + eax]
  0x190c	test   	al, al
  0x190e	je     	0x1aa7
  === BLOCK LINK ===
    0x1914
=== CODE BLOCK END ===

=== CODE BLOCK ADDRESS 0x1914 ===
  0x1914	inc    	ebp
  0x1915	xor    	eax, eax
  0x1917	dec    	eax
  0x1918	lea    	ecx, [ebp + 0x50]
  0x191b	dec    	eax
  === BLOCK LINK ===
    0x191c
=== CODE BLOCK END ===

=== CODE BLOCK ADDRESS 0x191c ===
  0x191c	mov    	edx, edi
  0x191e	dec    	eax
  0x191f	call   	dword ptr [0x1a3b]
  === BLOCK LINK ===
    0x1925
=== CODE BLOCK END ===

=== CODE BLOCK ADDRESS 0x1925 ===
  0x1925	nop    	dword ptr [eax + eax]
  0x192a	test   	al, al
  0x192c	je     	0x1aa7
  === BLOCK LINK ===
    0x1932
=== CODE BLOCK END ===

=== CODE BLOCK ADDRESS 0x1932 ===
  0x1932	dec    	eax
  0x1933	lea    	edx, [0x1b63]
  0x1939	dec    	eax
  0x193a	lea    	ecx, [ebp + 0x110]
  0x1940	dec    	eax
  === BLOCK LINK ===
    0x1941
=== CODE BLOCK END ===

=== CODE BLOCK ADDRESS 0x1941 ===
  0x1941	call   	dword ptr [0x19f9]
  === BLOCK LINK ===
    0x1947
=== CODE BLOCK END ===

=== CODE BLOCK ADDRESS 0x1947 ===
  0x1947	nop    	dword ptr [eax + eax]
  0x194c	test   	al, al
  0x194e	je     	0x1aa7
  === BLOCK LINK ===
    0x1954
=== CODE BLOCK END ===

=== CODE BLOCK ADDRESS 0x1954 ===
  0x1954	dec    	eax
  0x1955	lea    	edx, [ebp + 0x230]
  0x195b	dec    	eax
  0x195c	lea    	ecx, [esp + 0x30]
  0x1960	dec    	eax
  === BLOCK LINK ===
    0x1961
=== CODE BLOCK END ===

=== CODE BLOCK ADDRESS 0x1961 ===
  0x1961	call   	dword ptr [0x1a39]
  === BLOCK LINK ===
    0x1967
=== CODE BLOCK END ===

=== CODE BLOCK ADDRESS 0x1967 ===
  0x1967	nop    	dword ptr [eax + eax]
  0x196c	test   	al, al
  0x196e	je     	0x1aa7
  === BLOCK LINK ===
    0x1974
=== CODE BLOCK END ===

=== CODE BLOCK ADDRESS 0x1974 ===
  0x1974	dec    	eax
  0x1975	lea    	edx, [ebp + 0xb0]
  0x197b	dec    	eax
  0x197c	lea    	ecx, [esp + 0x30]
  0x1980	dec    	eax
  === BLOCK LINK ===
    0x1981
=== CODE BLOCK END ===

=== CODE BLOCK ADDRESS 0x1981 ===
  0x1981	call   	dword ptr [0x1a19]
  === BLOCK LINK ===
    0x1987
=== CODE BLOCK END ===

=== CODE BLOCK ADDRESS 0x1987 ===
  0x1987	nop    	dword ptr [eax + eax]
  0x198c	test   	al, al
  0x198e	je     	0x1aa7
  === BLOCK LINK ===
    0x1994
=== CODE BLOCK END ===

=== CODE BLOCK ADDRESS 0x1994 ===
  0x1994	dec    	eax
  0x1995	lea    	edx, [ebp + 0x50]
  0x1998	dec    	eax
  0x1999	lea    	ecx, [esp + 0x30]
  0x199d	dec    	eax
  === BLOCK LINK ===
    0x199e
=== CODE BLOCK END ===

=== CODE BLOCK ADDRESS 0x199e ===
  0x199e	call   	dword ptr [0x19fc]
  === BLOCK LINK ===
    0x19a4
=== CODE BLOCK END ===

=== CODE BLOCK ADDRESS 0x19a4 ===
  0x19a4	nop    	dword ptr [eax + eax]
  0x19a9	test   	al, al
  0x19ab	je     	0x1aa7
  === BLOCK LINK ===
    0x19b1
=== CODE BLOCK END ===

=== CODE BLOCK ADDRESS 0x19b1 ===
  0x19b1	dec    	eax
  0x19b2	lea    	edx, [ebp + 0x1a0]
  0x19b8	dec    	eax
  0x19b9	lea    	ecx, [esp + 0x30]
  0x19bd	dec    	eax
  === BLOCK LINK ===
    0x19be
=== CODE BLOCK END ===

=== CODE BLOCK ADDRESS 0x19be ===
  0x19be	call   	dword ptr [0x19dc]
  === BLOCK LINK ===
    0x19c4
=== CODE BLOCK END ===

=== CODE BLOCK ADDRESS 0x19c4 ===
  0x19c4	nop    	dword ptr [eax + eax]
  0x19c9	test   	al, al
  0x19cb	je     	0x1aa7
  === BLOCK LINK ===
    0x19d1
=== CODE BLOCK END ===

=== CODE BLOCK ADDRESS 0x19d1 ===
  0x19d1	dec    	eax
  0x19d2	lea    	edx, [ebp + 0x110]
  0x19d8	dec    	eax
  0x19d9	lea    	ecx, [esp + 0x30]
  0x19dd	dec    	eax
  === BLOCK LINK ===
    0x19de
=== CODE BLOCK END ===

=== CODE BLOCK ADDRESS 0x19de ===
  0x19de	call   	dword ptr [0x19bc]
  === BLOCK LINK ===
    0x19e4
=== CODE BLOCK END ===

=== CODE BLOCK ADDRESS 0x19e4 ===
  0x19e4	nop    	dword ptr [eax + eax]
  0x19e9	test   	al, al
  0x19eb	je     	0x1aa7
  === BLOCK LINK ===
    0x19f1
=== CODE BLOCK END ===

=== CODE BLOCK ADDRESS 0x19f1 ===
  0x19f1	dec    	eax
  0x19f2	lea    	edx, [esp + 0x30]
  0x19f6	dec    	eax
  0x19f7	lea    	ecx, [ebp + 0x290]
  0x19fd	dec    	eax
  === BLOCK LINK ===
    0x19fe
=== CODE BLOCK END ===

=== CODE BLOCK ADDRESS 0x19fe ===
  0x19fe	call   	dword ptr [0x1894]
  === BLOCK LINK ===
    0x1a04
=== CODE BLOCK END ===

=== CODE BLOCK ADDRESS 0x1a04 ===
  0x1a04	nop    	dword ptr [eax + eax]
  0x1a09	test   	al, al
  0x1a0b	jne    	0x1ba4
  === BLOCK LINK ===
    0x1a11
=== CODE BLOCK END ===

=== CODE BLOCK ADDRESS 0x1a11 ===
  0x1a11	inc    	esp
  0x1a12	lea    	ecx, [esi + 2]
  0x1a15	inc    	ebp
  0x1a16	xor    	eax, eax
  0x1a18	dec    	eax
  === BLOCK LINK ===
    0x1a19
=== CODE BLOCK END ===

=== CODE BLOCK ADDRESS 0x1a19 ===
  0x1a19	lea    	ecx, [esp + 0x60]
  0x1a1d	inc    	esp
  0x1a1e	cmp    	dword ptr [ebp + 0x2b8], ecx
  0x1a24	jbe    	0x1a4f
  === BLOCK LINK ===
    0x1a26
=== CODE BLOCK END ===

=== CODE BLOCK ADDRESS 0x1a26 ===
  0x1a26	mov    	edx, 0x7730
  0x1a2b	dec    	eax
  0x1a2c	call   	dword ptr [0x184e]
  === BLOCK LINK ===
    0x1a32
=== CODE BLOCK END ===

=== CODE BLOCK ADDRESS 0x1a32 ===
  0x1a32	nop    	dword ptr [eax + eax]
  0x1a37	lea    	edx, [esi + 2]
  0x1a3a	dec    	eax
  0x1a3b	lea    	ecx, [ebp + 0x290]
  0x1a41	dec    	eax
  === BLOCK LINK ===
    0x1a42
=== CODE BLOCK END ===

=== CODE BLOCK ADDRESS 0x1a42 ===
  0x1a42	call   	dword ptr [0x1848]
  === BLOCK LINK ===
    0x1a48
=== CODE BLOCK END ===

=== CODE BLOCK ADDRESS 0x1a48 ===
  0x1a48	nop    	dword ptr [eax + eax]
  0x1a4d	jmp    	0x1a73
  === BLOCK LINK ===
    0x1a4f
=== CODE BLOCK END ===

=== CODE BLOCK ADDRESS 0x1a4f ===
  0x1a4f	mov    	edx, 0x772f
  0x1a54	dec    	eax
  0x1a55	call   	dword ptr [0x1825]
  === BLOCK LINK ===
    0x1a5b
=== CODE BLOCK END ===

=== CODE BLOCK ADDRESS 0x1a5b ===
  0x1a5b	nop    	dword ptr [eax + eax]
  0x1a60	dec    	eax
  0x1a61	lea    	ecx, [ebp + 0x290]
  0x1a67	dec    	eax
  0x1a68	call   	dword ptr [0x180a]
  === BLOCK LINK ===
    0x1a6e
=== CODE BLOCK END ===

=== CODE BLOCK ADDRESS 0x1a6e ===
  0x1a6e	nop    	dword ptr [eax + eax]
  0x1a73	dec    	esp
  0x1a74	mov    	eax, eax
  0x1a76	dec    	eax
  0x1a77	lea    	edx, [0x19e7]
  === BLOCK LINK ===
    0x1a7d
=== CODE BLOCK END ===

=== CODE BLOCK ADDRESS 0x1a7d ===
  0x1a7d	dec    	eax
  0x1a7e	lea    	ecx, [esp + 0x60]
  0x1a82	dec    	eax
  0x1a83	mov    	edi, eax
  0x1a85	dec    	eax
  === BLOCK LINK ===
    0x1a86
=== CODE BLOCK END ===

=== CODE BLOCK ADDRESS 0x1a86 ===
  0x1a86	call   	dword ptr [0x185c]
  === BLOCK LINK ===
    0x1a8c
=== CODE BLOCK END ===

=== CODE BLOCK ADDRESS 0x1a8c ===
  0x1a8c	nop    	dword ptr [eax + eax]
  0x1a91	dec    	eax
  0x1a92	test   	edi, edi
  0x1a94	je     	0x1aa7
  === BLOCK LINK ===
    0x1a96
=== CODE BLOCK END ===

=== CODE BLOCK ADDRESS 0x1a96 ===
  0x1a96	dec    	eax
  0x1a97	mov    	eax, dword ptr [edi]
  0x1a99	mov    	edx, esi
  0x1a9b	dec    	eax
  0x1a9c	mov    	ecx, edi
  === BLOCK LINK ===
    0x1a9e
=== CODE BLOCK END ===

=== CODE BLOCK ADDRESS 0x1a9e ===
  0x1a9e	dec    	eax
  0x1a9f	mov    	eax, dword ptr [eax]
  0x1aa1	call   	dword ptr [0x1941]
  === BLOCK LINK ===
    0x1aa7
=== CODE BLOCK END ===

=== CODE BLOCK ADDRESS 0x1aa7 ===
  0x1aa7	mov    	ebx, esi
  0x1aa9	mov    	esi, ebx
  0x1aab	dec    	eax
  0x1aac	lea    	ecx, [ebp + 0x130]
  0x1ab2	dec    	eax
  === BLOCK LINK ===
    0x1ab3
=== CODE BLOCK END ===

=== CODE BLOCK ADDRESS 0x1ab3 ===
  0x1ab3	call   	dword ptr [0x18ff]
  === BLOCK LINK ===
    0x1ab9
=== CODE BLOCK END ===

=== CODE BLOCK ADDRESS 0x1ab9 ===
  0x1ab9	nop    	dword ptr [eax + eax]
  0x1abe	dec    	eax
  0x1abf	lea    	ecx, [ebp + 0x110]
  0x1ac5	dec    	eax
  0x1ac6	call   	dword ptr [0x1794]
  === BLOCK LINK ===
    0x1acc
=== CODE BLOCK END ===

=== CODE BLOCK ADDRESS 0x1acc ===
  0x1acc	nop    	dword ptr [eax + eax]
  0x1ad1	dec    	eax
  0x1ad2	lea    	ecx, [ebp + 0x1c0]
  0x1ad8	dec    	eax
  0x1ad9	call   	dword ptr [0x18d9]
  === BLOCK LINK ===
    0x1adf
=== CODE BLOCK END ===

=== CODE BLOCK ADDRESS 0x1adf ===
  0x1adf	nop    	dword ptr [eax + eax]
  0x1ae4	dec    	eax
  0x1ae5	lea    	ecx, [ebp + 0x1a0]
  0x1aeb	dec    	eax
  0x1aec	call   	dword ptr [0x176e]
  === BLOCK LINK ===
    0x1af2
=== CODE BLOCK END ===

=== CODE BLOCK ADDRESS 0x1af2 ===
  0x1af2	nop    	dword ptr [eax + eax]
  0x1af7	dec    	eax
  0x1af8	lea    	ecx, [ebp + 0x50]
  0x1afb	dec    	eax
  0x1afc	call   	dword ptr [0x1856]
  === BLOCK LINK ===
    0x1b02
=== CODE BLOCK END ===

=== CODE BLOCK ADDRESS 0x1b02 ===
  0x1b02	nop    	dword ptr [eax + eax]
  0x1b07	dec    	eax
  0x1b08	lea    	ecx, [ebp + 0xb0]
  0x1b0e	dec    	eax
  0x1b0f	call   	dword ptr [0x1843]
  === BLOCK LINK ===
    0x1b15
=== CODE BLOCK END ===

=== CODE BLOCK ADDRESS 0x1b15 ===
  0x1b15	nop    	dword ptr [eax + eax]
  0x1b1a	dec    	eax
  0x1b1b	lea    	ecx, [ebp + 0x230]
  0x1b21	dec    	eax
  0x1b22	call   	dword ptr [0x1798]
  === BLOCK LINK ===
    0x1b28
=== CODE BLOCK END ===

=== CODE BLOCK ADDRESS 0x1b28 ===
  0x1b28	nop    	dword ptr [eax + eax]
  0x1b2d	dec    	eax
  0x1b2e	lea    	ecx, [esp + 0x30]
  0x1b32	dec    	eax
  0x1b33	call   	dword ptr [0x1857]
  === BLOCK LINK ===
    0x1b39
=== CODE BLOCK END ===

=== CODE BLOCK ADDRESS 0x1b39 ===
  0x1b39	nop    	dword ptr [eax + eax]
  0x1b3e	dec    	eax
  0x1b3f	lea    	ecx, [ebp + 0x170]
  0x1b45	dec    	eax
  0x1b46	call   	dword ptr [0x1844]
  === BLOCK LINK ===
    0x1b4c
=== CODE BLOCK END ===

=== CODE BLOCK ADDRESS 0x1b4c ===
  0x1b4c	nop    	dword ptr [eax + eax]
  0x1b51	dec    	eax
  0x1b52	lea    	ecx, [ebp + 0x290]
  0x1b58	dec    	eax
  0x1b59	call   	dword ptr [0x1749]
  === BLOCK LINK ===
    0x1b5f
=== CODE BLOCK END ===

=== CODE BLOCK ADDRESS 0x1b5f ===
  0x1b5f	nop    	dword ptr [eax + eax]
  0x1b64	dec    	eax
  0x1b65	lea    	ecx, [esp + 0x60]
  0x1b69	dec    	eax
  0x1b6a	call   	dword ptr [0x1808]
  === BLOCK LINK ===
    0x1b70
=== CODE BLOCK END ===

=== CODE BLOCK ADDRESS 0x1b70 ===
  0x1b70	nop    	dword ptr [eax + eax]
  0x1b75	mov    	eax, esi
  0x1b77	dec    	eax
  0x1b78	mov    	ecx, dword ptr [ebp + 0x700]
  0x1b7e	dec    	eax
  === BLOCK LINK ===
    0x1b7f
=== CODE BLOCK END ===

=== CODE BLOCK ADDRESS 0x1b7f ===
  0x1b7f	xor    	ecx, esp
  0x1b81	call   	0x2480
  === BLOCK LINK ===
    0x1b86
=== CODE BLOCK END ===

=== CODE BLOCK ADDRESS 0x1b86 ===
  0x1b86	dec    	esp
  0x1b87	lea    	ebx, [esp + 0x810]
  0x1b8e	dec    	ecx
  0x1b8f	mov    	ebx, dword ptr [ebx + 0x10]
  0x1b92	dec    	ecx
  === BLOCK LINK ===
    0x1b93
=== CODE BLOCK END ===

=== CODE BLOCK ADDRESS 0x1b93 ===
  0x1b93	mov    	esi, dword ptr [ebx + 0x18]
  0x1b96	dec    	ecx
  0x1b97	mov    	edi, dword ptr [ebx + 0x20]
  0x1b9a	dec    	ebp
  0x1b9b	mov    	edi, dword ptr [ebx + 0x28]
  === BLOCK LINK ===
    0x1b9e
=== CODE BLOCK END ===

=== CODE BLOCK ADDRESS 0x1b9e ===
  0x1b9e	dec    	ecx
  0x1b9f	mov    	esp, ebx
  0x1ba1	pop    	ebp
  0x1ba2	ret    	
  0x1ba3	int3   	
  === BLOCK LINK ===
    0x1ba4
=== CODE BLOCK END ===

=== CODE BLOCK ADDRESS 0x1ba4 ===
  0x1ba4	cmp    	byte ptr [ebp + 0x1f4], bl
  0x1baa	je     	0x1c25
  === BLOCK LINK ===
    0x1bac
=== CODE BLOCK END ===

=== CODE BLOCK ADDRESS 0x1bac ===
  0x1bac	dec    	eax
  0x1bad	mov    	eax, dword ptr [esp + 0x60]
  0x1bb1	dec    	eax
  0x1bb2	lea    	ecx, [esp + 0x60]
  0x1bb6	inc    	ecx
  === BLOCK LINK ===
    0x1bb7
=== CODE BLOCK END ===

=== CODE BLOCK ADDRESS 0x1bb7 ===
  0x1bb7	mov    	ecx, 3
  0x1bbc	inc    	ebp
  0x1bbd	xor    	eax, eax
  0x1bbf	mov    	edx, 0x772b
  0x1bc4	dec    	eax
  === BLOCK LINK ===
    0x1bc5
=== CODE BLOCK END ===

=== CODE BLOCK ADDRESS 0x1bc5 ===
  0x1bc5	mov    	eax, dword ptr [eax + 0x20]
  0x1bc8	call   	dword ptr [0x181a]
  === BLOCK LINK ===
    0x1bce
=== CODE BLOCK END ===

=== CODE BLOCK ADDRESS 0x1bce ===
  0x1bce	dec    	eax
  0x1bcf	lea    	edx, [0x188b]
  0x1bd5	dec    	eax
  0x1bd6	lea    	ecx, [esp + 0x60]
  0x1bda	dec    	eax
  === BLOCK LINK ===
    0x1bdb
=== CODE BLOCK END ===

=== CODE BLOCK ADDRESS 0x1bdb ===
  0x1bdb	call   	dword ptr [0x1707]
  === BLOCK LINK ===
    0x1be1
=== CODE BLOCK END ===

=== CODE BLOCK ADDRESS 0x1be1 ===
  0x1be1	nop    	dword ptr [eax + eax]
  0x1be6	dec    	eax
  0x1be7	mov    	eax, dword ptr [esp + 0x60]
  0x1beb	dec    	eax
  0x1bec	lea    	ecx, [esp + 0x60]
  === BLOCK LINK ===
    0x1bf0
=== CODE BLOCK END ===

=== CODE BLOCK ADDRESS 0x1bf0 ===
  0x1bf0	inc    	ecx
  0x1bf1	mov    	ecx, 3
  0x1bf6	inc    	ebp
  0x1bf7	xor    	eax, eax
  0x1bf9	mov    	edx, 0x772d
  === BLOCK LINK ===
    0x1bfe
=== CODE BLOCK END ===

=== CODE BLOCK ADDRESS 0x1bfe ===
  0x1bfe	dec    	eax
  0x1bff	mov    	eax, dword ptr [eax + 0x20]
  0x1c02	call   	dword ptr [0x17e0]
  === BLOCK LINK ===
    0x1c08
=== CODE BLOCK END ===

=== CODE BLOCK ADDRESS 0x1c08 ===
  0x1c08	dec    	eax
  0x1c09	lea    	edx, [0x1851]
  0x1c0f	dec    	eax
  0x1c10	lea    	ecx, [esp + 0x60]
  0x1c14	dec    	eax
  === BLOCK LINK ===
    0x1c15
=== CODE BLOCK END ===

=== CODE BLOCK ADDRESS 0x1c15 ===
  0x1c15	call   	dword ptr [0x16cd]
  === BLOCK LINK ===
    0x1c1b
=== CODE BLOCK END ===

=== CODE BLOCK ADDRESS 0x1c1b ===
  0x1c1b	nop    	dword ptr [eax + eax]
  0x1c20	jmp    	0x1aa9
  === BLOCK LINK ===
    0x1c25
=== CODE BLOCK END ===

=== CODE BLOCK ADDRESS 0x1c25 ===
  0x1c25	dec    	eax
  0x1c26	lea    	ecx, [ebp + 0x110]
  0x1c2c	dec    	eax
  0x1c2d	call   	dword ptr [0x161d]
  === BLOCK LINK ===
    0x1c33
=== CODE BLOCK END ===

=== CODE BLOCK ADDRESS 0x1c33 ===
  0x1c33	nop    	dword ptr [eax + eax]
  0x1c38	test   	al, al
  0x1c3a	je     	0x1cb7
  === BLOCK LINK ===
    0x1c3c
=== CODE BLOCK END ===

=== CODE BLOCK ADDRESS 0x1c3c ===
  0x1c3c	dec    	eax
  0x1c3d	lea    	ecx, [ebp + 0xb0]
  0x1c43	dec    	eax
  0x1c44	call   	dword ptr [0x1606]
  === BLOCK LINK ===
    0x1c4a
=== CODE BLOCK END ===

=== CODE BLOCK ADDRESS 0x1c4a ===
  0x1c4a	nop    	dword ptr [eax + eax]
  0x1c4f	test   	al, al
  0x1c51	je     	0x1cb7
  === BLOCK LINK ===
    0x1c53
=== CODE BLOCK END ===

=== CODE BLOCK ADDRESS 0x1c53 ===
  0x1c53	dec    	eax
  0x1c54	lea    	ecx, [ebp + 0x50]
  0x1c57	dec    	eax
  0x1c58	call   	dword ptr [0x15f2]
  === BLOCK LINK ===
    0x1c5e
=== CODE BLOCK END ===

=== CODE BLOCK ADDRESS 0x1c5e ===
  0x1c5e	nop    	dword ptr [eax + eax]
  0x1c63	test   	al, al
  0x1c65	je     	0x1cb7
  === BLOCK LINK ===
    0x1c67
=== CODE BLOCK END ===

=== CODE BLOCK ADDRESS 0x1c67 ===
  0x1c67	mov    	edx, 0x7730
  0x1c6c	inc    	ebp
  0x1c6d	xor    	eax, eax
  0x1c6f	dec    	eax
  0x1c70	lea    	ecx, [esp + 0x60]
  === BLOCK LINK ===
    0x1c74
=== CODE BLOCK END ===

=== CODE BLOCK ADDRESS 0x1c74 ===
  0x1c74	inc    	ebp
  0x1c75	lea    	ecx, [eax + 3]
  0x1c78	dec    	eax
  0x1c79	call   	dword ptr [0x1601]
  === BLOCK LINK ===
    0x1c7f
=== CODE BLOCK END ===

=== CODE BLOCK ADDRESS 0x1c7f ===
  0x1c7f	nop    	dword ptr [eax + eax]
  0x1c84	dec    	eax
  0x1c85	lea    	ecx, [ebp + 0x110]
  0x1c8b	dec    	eax
  0x1c8c	call   	dword ptr [0x15c6]
  === BLOCK LINK ===
    0x1c92
=== CODE BLOCK END ===

=== CODE BLOCK ADDRESS 0x1c92 ===
  0x1c92	nop    	dword ptr [eax + eax]
  0x1c97	dec    	esp
  0x1c98	mov    	eax, eax
  0x1c9a	dec    	eax
  0x1c9b	lea    	edx, [0x17c3]
  === BLOCK LINK ===
    0x1ca1
=== CODE BLOCK END ===

=== CODE BLOCK ADDRESS 0x1ca1 ===
  0x1ca1	dec    	eax
  0x1ca2	lea    	ecx, [esp + 0x60]
  0x1ca6	dec    	eax
  0x1ca7	call   	dword ptr [0x163b]
  === BLOCK LINK ===
    0x1cad
=== CODE BLOCK END ===

=== CODE BLOCK ADDRESS 0x1cad ===
  0x1cad	nop    	dword ptr [eax + eax]
  0x1cb2	jmp    	0x1aab
  === BLOCK LINK ===
    0x1cb7
=== CODE BLOCK END ===

=== CODE BLOCK ADDRESS 0x1cb7 ===
  0x1cb7	dec    	eax
  0x1cb8	lea    	ecx, [ebp + 0x110]
  0x1cbe	dec    	eax
  0x1cbf	call   	dword ptr [0x158b]
  === BLOCK LINK ===
    0x1cc5
=== CODE BLOCK END ===

=== CODE BLOCK ADDRESS 0x1cc5 ===
  0x1cc5	nop    	dword ptr [eax + eax]
  0x1cca	test   	al, al
  0x1ccc	je     	0x1d03
  === BLOCK LINK ===
    0x1cce
=== CODE BLOCK END ===

=== CODE BLOCK ADDRESS 0x1cce ===
  0x1cce	dec    	eax
  0x1ccf	lea    	ecx, [ebp + 0xb0]
  0x1cd5	dec    	eax
  0x1cd6	call   	dword ptr [0x1574]
  === BLOCK LINK ===
    0x1cdc
=== CODE BLOCK END ===

=== CODE BLOCK ADDRESS 0x1cdc ===
  0x1cdc	nop    	dword ptr [eax + eax]
  0x1ce1	test   	al, al
  0x1ce3	jne    	0x1d03
  === BLOCK LINK ===
    0x1ce5
=== CODE BLOCK END ===

=== CODE BLOCK ADDRESS 0x1ce5 ===
  0x1ce5	dec    	eax
  0x1ce6	lea    	ecx, [ebp + 0x50]
  0x1ce9	dec    	eax
  0x1cea	call   	dword ptr [0x1560]
  === BLOCK LINK ===
    0x1cf0
=== CODE BLOCK END ===

=== CODE BLOCK ADDRESS 0x1cf0 ===
  0x1cf0	nop    	dword ptr [eax + eax]
  0x1cf5	test   	al, al
  0x1cf7	jne    	0x1d03
  === BLOCK LINK ===
    0x1cf9
=== CODE BLOCK END ===

=== CODE BLOCK ADDRESS 0x1cf9 ===
  0x1cf9	mov    	edx, 0x772f
  0x1cfe	jmp    	0x1c6c
  === BLOCK LINK ===
    0x1d03
=== CODE BLOCK END ===

=== CODE BLOCK ADDRESS 0x1d03 ===
  0x1d03	dec    	eax
  0x1d04	lea    	ecx, [ebp + 0xb0]
  0x1d0a	dec    	eax
  0x1d0b	call   	dword ptr [0x153f]
  === BLOCK LINK ===
    0x1d11
=== CODE BLOCK END ===

=== CODE BLOCK ADDRESS 0x1d11 ===
  0x1d11	nop    	dword ptr [eax + eax]
  0x1d16	mov    	edi, 0xffff
  0x1d1b	test   	al, al
  0x1d1d	je     	0x1d7e
  === BLOCK LINK ===
    0x1d1f
=== CODE BLOCK END ===

=== CODE BLOCK ADDRESS 0x1d1f ===
  0x1d1f	dec    	eax
  0x1d20	mov    	eax, dword ptr [ebp + 0x100]
  0x1d26	cmp    	dword ptr [eax + 0x230], 2
  0x1d2d	jne    	0x1d4c
  === BLOCK LINK ===
    0x1d2f
=== CODE BLOCK END ===

=== CODE BLOCK ADDRESS 0x1d2f ===
  0x1d2f	cmp    	dword ptr [eax + 0x230], esi
  0x1d35	jbe    	0x1d44
  === BLOCK LINK ===
    0x1d37
=== CODE BLOCK END ===

=== CODE BLOCK ADDRESS 0x1d37 ===
  0x1d37	dec    	eax
  0x1d38	mov    	eax, dword ptr [eax + 0x228]
  0x1d3e	movzx  	ecx, word ptr [eax + 2]
  0x1d42	jmp    	0x1d46
  === BLOCK LINK ===
    0x1d44
=== CODE BLOCK END ===

=== CODE BLOCK ADDRESS 0x1d44 ===
  0x1d44	mov    	ecx, edi
  0x1d46	cmp    	cx, 0x3a
  0x1d4a	je     	0x1d7e
  === BLOCK LINK ===
    0x1d4c
=== CODE BLOCK END ===

=== CODE BLOCK ADDRESS 0x1d4c ===
  0x1d4c	inc    	ecx
  0x1d4d	mov    	ecx, 3
  0x1d52	dec    	eax
  0x1d53	lea    	ecx, [esp + 0x60]
  0x1d57	inc    	ebp
  === BLOCK LINK ===
    0x1d58
=== CODE BLOCK END ===

=== CODE BLOCK ADDRESS 0x1d58 ===
  0x1d58	xor    	eax, eax
  0x1d5a	mov    	edx, 0x772f
  0x1d5f	dec    	eax
  0x1d60	call   	dword ptr [0x151a]
  === BLOCK LINK ===
    0x1d66
=== CODE BLOCK END ===

=== CODE BLOCK ADDRESS 0x1d66 ===
  0x1d66	nop    	dword ptr [eax + eax]
  0x1d6b	dec    	esp
  0x1d6c	mov    	eax, dword ptr [ebp + 0x100]
  0x1d72	dec    	ecx
  0x1d73	add    	eax, 0x218
  === BLOCK LINK ===
    0x1d79
=== CODE BLOCK END ===

=== CODE BLOCK ADDRESS 0x1d79 ===
  0x1d79	jmp    	0x1c9a
  === BLOCK LINK ===
    0x1d7e
=== CODE BLOCK END ===

=== CODE BLOCK ADDRESS 0x1d7e ===
  0x1d7e	dec    	eax
  0x1d7f	lea    	ecx, [ebp + 0x50]
  0x1d82	dec    	eax
  0x1d83	call   	dword ptr [0x14c7]
  === BLOCK LINK ===
    0x1d89
=== CODE BLOCK END ===

=== CODE BLOCK ADDRESS 0x1d89 ===
  0x1d89	nop    	dword ptr [eax + eax]
  0x1d8e	test   	al, al
  0x1d90	je     	0x1de3
  === BLOCK LINK ===
    0x1d92
=== CODE BLOCK END ===

=== CODE BLOCK ADDRESS 0x1d92 ===
  0x1d92	dec    	eax
  0x1d93	mov    	eax, dword ptr [ebp + 0xa0]
  0x1d99	cmp    	dword ptr [eax + 0x230], 2
  0x1da0	jne    	0x1de3
  === BLOCK LINK ===
    0x1da2
=== CODE BLOCK END ===

=== CODE BLOCK ADDRESS 0x1da2 ===
  0x1da2	cmp    	dword ptr [eax + 0x230], esi
  0x1da8	jbe    	0x1db5
  === BLOCK LINK ===
    0x1daa
=== CODE BLOCK END ===

=== CODE BLOCK ADDRESS 0x1daa ===
  0x1daa	dec    	eax
  0x1dab	mov    	eax, dword ptr [eax + 0x228]
  0x1db1	movzx  	edi, word ptr [eax + 2]
  0x1db5	cmp    	di, 0x3a
  0x1db9	jne    	0x1de3
  === BLOCK LINK ===
    0x1dbb
=== CODE BLOCK END ===

=== CODE BLOCK ADDRESS 0x1dbb ===
  0x1dbb	inc    	ecx
  0x1dbc	mov    	ecx, 3
  0x1dc1	dec    	eax
  0x1dc2	lea    	ecx, [esp + 0x60]
  0x1dc6	inc    	ebp
  === BLOCK LINK ===
    0x1dc7
=== CODE BLOCK END ===

=== CODE BLOCK ADDRESS 0x1dc7 ===
  0x1dc7	xor    	eax, eax
  0x1dc9	mov    	edx, 0x772f
  0x1dce	dec    	eax
  0x1dcf	call   	dword ptr [0x14ab]
  === BLOCK LINK ===
    0x1dd5
=== CODE BLOCK END ===

=== CODE BLOCK ADDRESS 0x1dd5 ===
  0x1dd5	nop    	dword ptr [eax + eax]
  0x1dda	dec    	esp
  0x1ddb	mov    	eax, dword ptr [ebp + 0xa0]
  0x1de1	jmp    	0x1d72
  === BLOCK LINK ===
    0x1de3
=== CODE BLOCK END ===

=== CODE BLOCK ADDRESS 0x1de3 ===
  0x1de3	dec    	eax
  0x1de4	lea    	ecx, [ebp + 0xb0]
  0x1dea	dec    	eax
  0x1deb	call   	dword ptr [0x145f]
  === BLOCK LINK ===
    0x1df1
=== CODE BLOCK END ===

=== CODE BLOCK ADDRESS 0x1df1 ===
  0x1df1	nop    	dword ptr [eax + eax]
  0x1df6	test   	al, al
  0x1df8	je     	0x20c2
  === BLOCK LINK ===
    0x1dfe
=== CODE BLOCK END ===

=== CODE BLOCK ADDRESS 0x1dfe ===
  0x1dfe	dec    	eax
  0x1dff	lea    	ecx, [ebp + 0x20]
  0x1e02	dec    	eax
  0x1e03	call   	dword ptr [0x15a7]
  === BLOCK LINK ===
    0x1e09
=== CODE BLOCK END ===

=== CODE BLOCK ADDRESS 0x1e09 ===
  0x1e09	nop    	dword ptr [eax + eax]
  0x1e0e	dec    	eax
  0x1e0f	lea    	ecx, [ebp + 0x200]
  0x1e15	dec    	eax
  0x1e16	call   	dword ptr [0x1594]
  === BLOCK LINK ===
    0x1e1c
=== CODE BLOCK END ===

=== CODE BLOCK ADDRESS 0x1e1c ===
  0x1e1c	nop    	dword ptr [eax + eax]
  0x1e21	dec    	eax
  0x1e22	lea    	ecx, [ebp + 0x4a0]
  0x1e28	dec    	eax
  0x1e29	call   	dword ptr [0x14b1]
  === BLOCK LINK ===
    0x1e2f
=== CODE BLOCK END ===

=== CODE BLOCK ADDRESS 0x1e2f ===
  0x1e2f	nop    	dword ptr [eax + eax]
  0x1e34	dec    	eax
  0x1e35	mov    	edx, dword ptr [ebp + 0x100]
  0x1e3b	dec    	eax
  0x1e3c	lea    	ecx, [ebp + 0x20]
  === BLOCK LINK ===
    0x1e3f
=== CODE BLOCK END ===

=== CODE BLOCK ADDRESS 0x1e3f ===
  0x1e3f	dec    	eax
  0x1e40	add    	edx, 0x218
  0x1e46	inc    	ebp
  0x1e47	mov    	ecx, edi
  0x1e49	inc    	ebp
  === BLOCK LINK ===
    0x1e4a
=== CODE BLOCK END ===

=== CODE BLOCK ADDRESS 0x1e4a ===
  0x1e4a	xor    	eax, eax
  0x1e4c	dec    	eax
  0x1e4d	call   	dword ptr [0x14b5]
  === BLOCK LINK ===
    0x1e53
=== CODE BLOCK END ===

=== CODE BLOCK ADDRESS 0x1e53 ===
  0x1e53	nop    	dword ptr [eax + eax]
  0x1e58	dec    	eax
  0x1e59	lea    	ecx, [ebp + 0x20]
  0x1e5c	dec    	eax
  0x1e5d	call   	dword ptr [0x14d5]
  === BLOCK LINK ===
    0x1e63
=== CODE BLOCK END ===

=== CODE BLOCK ADDRESS 0x1e63 ===
  0x1e63	nop    	dword ptr [eax + eax]
  0x1e68	dec    	eax
  0x1e69	test   	eax, eax
  0x1e6b	je     	0x1eb5
  === BLOCK LINK ===
    0x1e6d
=== CODE BLOCK END ===

=== CODE BLOCK ADDRESS 0x1e6d ===
  0x1e6d	dec    	eax
  0x1e6e	lea    	ecx, [ebp + 0x110]
  0x1e74	dec    	eax
  0x1e75	call   	dword ptr [0x13d5]
  === BLOCK LINK ===
    0x1e7b
=== CODE BLOCK END ===

=== CODE BLOCK ADDRESS 0x1e7b ===
  0x1e7b	nop    	dword ptr [eax + eax]
  0x1e80	test   	al, al
  0x1e82	je     	0x1ef0
  === BLOCK LINK ===
    0x1e84
=== CODE BLOCK END ===

=== CODE BLOCK ADDRESS 0x1e84 ===
  0x1e84	inc    	eax
  0x1e85	mov    	byte ptr [esp + 0x28], dh
  0x1e89	dec    	eax
  0x1e8a	lea    	ecx, [ebp + 0x20]
  0x1e8d	inc    	ebp
  === BLOCK LINK ===
    0x1e8e
=== CODE BLOCK END ===

=== CODE BLOCK ADDRESS 0x1e8e ===
  0x1e8e	xor    	ecx, ecx
  0x1e90	mov    	dword ptr [esp + 0x20], ebx
  0x1e94	inc    	ebp
  0x1e95	mov    	eax, edi
  0x1e97	xor    	edx, edx
  === BLOCK LINK ===
    0x1e99
=== CODE BLOCK END ===

=== CODE BLOCK ADDRESS 0x1e99 ===
  0x1e99	dec    	eax
  0x1e9a	call   	dword ptr [0x1458]
  === BLOCK LINK ===
    0x1ea0
=== CODE BLOCK END ===

=== CODE BLOCK ADDRESS 0x1ea0 ===
  0x1ea0	nop    	dword ptr [eax + eax]
  0x1ea5	dec    	eax
  0x1ea6	mov    	ecx, eax
  0x1ea8	dec    	eax
  0x1ea9	lea    	edx, [esp + 0x60]
  === BLOCK LINK ===
    0x1ead
=== CODE BLOCK END ===

=== CODE BLOCK ADDRESS 0x1ead ===
  0x1ead	call   	0x1008
  === BLOCK LINK ===
    0x1eb2
=== CODE BLOCK END ===

=== CODE BLOCK ADDRESS 0x1eb2 ===
  0x1eb2	movzx  	esi, al
  0x1eb5	dec    	eax
  0x1eb6	lea    	ecx, [ebp + 0x4a0]
  0x1ebc	dec    	eax
  0x1ebd	call   	dword ptr [0x140d]
  === BLOCK LINK ===
    0x1ec3
=== CODE BLOCK END ===

=== CODE BLOCK ADDRESS 0x1ec3 ===
  0x1ec3	nop    	dword ptr [eax + eax]
  0x1ec8	dec    	eax
  0x1ec9	lea    	ecx, [ebp + 0x200]
  0x1ecf	dec    	eax
  0x1ed0	call   	dword ptr [0x14e2]
  === BLOCK LINK ===
    0x1ed6
=== CODE BLOCK END ===

=== CODE BLOCK ADDRESS 0x1ed6 ===
  0x1ed6	nop    	dword ptr [eax + eax]
  0x1edb	dec    	eax
  0x1edc	lea    	ecx, [ebp + 0x20]
  0x1edf	dec    	eax
  0x1ee0	call   	dword ptr [0x14d2]
  === BLOCK LINK ===
    0x1ee6
=== CODE BLOCK END ===

=== CODE BLOCK ADDRESS 0x1ee6 ===
  0x1ee6	nop    	dword ptr [eax + eax]
  0x1eeb	jmp    	0x2140
  === BLOCK LINK ===
    0x1ef0
=== CODE BLOCK END ===

=== CODE BLOCK ADDRESS 0x1ef0 ===
  0x1ef0	dec    	eax
  0x1ef1	lea    	ecx, [ebp + 0x50]
  0x1ef4	dec    	eax
  0x1ef5	call   	dword ptr [0x1355]
  === BLOCK LINK ===
    0x1efb
=== CODE BLOCK END ===

=== CODE BLOCK ADDRESS 0x1efb ===
  0x1efb	nop    	dword ptr [eax + eax]
  0x1f00	test   	al, al
  0x1f02	je     	0x201f
  === BLOCK LINK ===
    0x1f08
=== CODE BLOCK END ===

=== CODE BLOCK ADDRESS 0x1f08 ===
  0x1f08	dec    	eax
  0x1f09	mov    	ecx, dword ptr [ebp + 0xa0]
  0x1f0f	xor    	edx, edx
  0x1f11	dec    	eax
  0x1f12	call   	dword ptr [0x13c0]
  === BLOCK LINK ===
    0x1f18
=== CODE BLOCK END ===

=== CODE BLOCK ADDRESS 0x1f18 ===
  0x1f18	nop    	dword ptr [eax + eax]
  0x1f1d	dec    	eax
  0x1f1e	mov    	ecx, eax
  0x1f20	dec    	eax
  0x1f21	test   	eax, eax
  === BLOCK LINK ===
    0x1f23
=== CODE BLOCK END ===

=== CODE BLOCK ADDRESS 0x1f23 ===
  0x1f23	jne    	0x1f6d
  === BLOCK LINK ===
    0x1f25
=== CODE BLOCK END ===

=== CODE BLOCK ADDRESS 0x1f25 ===
  0x1f25	inc    	esp
  0x1f26	lea    	ecx, [eax + 3]
  0x1f29	inc    	ebp
  0x1f2a	xor    	eax, eax
  0x1f2c	mov    	edx, 0x7731
  === BLOCK LINK ===
    0x1f31
=== CODE BLOCK END ===

=== CODE BLOCK ADDRESS 0x1f31 ===
  0x1f31	dec    	eax
  0x1f32	lea    	ecx, [esp + 0x60]
  0x1f36	dec    	eax
  0x1f37	call   	dword ptr [0x1343]
  === BLOCK LINK ===
    0x1f3d
=== CODE BLOCK END ===

=== CODE BLOCK ADDRESS 0x1f3d ===
  0x1f3d	nop    	dword ptr [eax + eax]
  0x1f42	dec    	esp
  0x1f43	mov    	eax, dword ptr [ebp + 0xa0]
  0x1f49	dec    	eax
  0x1f4a	lea    	edx, [0x1514]
  === BLOCK LINK ===
    0x1f50
=== CODE BLOCK END ===

=== CODE BLOCK ADDRESS 0x1f50 ===
  0x1f50	dec    	ecx
  0x1f51	add    	eax, 0x218
  0x1f57	dec    	eax
  0x1f58	lea    	ecx, [esp + 0x60]
  0x1f5c	dec    	eax
  === BLOCK LINK ===
    0x1f5d
=== CODE BLOCK END ===

=== CODE BLOCK ADDRESS 0x1f5d ===
  0x1f5d	call   	dword ptr [0x1385]
  === BLOCK LINK ===
    0x1f63
=== CODE BLOCK END ===

=== CODE BLOCK ADDRESS 0x1f63 ===
  0x1f63	nop    	dword ptr [eax + eax]
  0x1f68	jmp    	0x2087
  === BLOCK LINK ===
    0x1f6d
=== CODE BLOCK END ===

=== CODE BLOCK ADDRESS 0x1f6d ===
  0x1f6d	dec    	eax
  0x1f6e	mov    	eax, dword ptr [eax]
  0x1f70	mov    	edx, esi
  0x1f72	dec    	eax
  0x1f73	mov    	eax, dword ptr [eax]
  === BLOCK LINK ===
    0x1f75
=== CODE BLOCK END ===

=== CODE BLOCK ADDRESS 0x1f75 ===
  0x1f75	call   	dword ptr [0x146d]
  === BLOCK LINK ===
    0x1f7b
=== CODE BLOCK END ===

=== CODE BLOCK ADDRESS 0x1f7b ===
  0x1f7b	dec    	eax
  0x1f7c	mov    	edx, dword ptr [ebp + 0xa0]
  0x1f82	dec    	eax
  0x1f83	lea    	ecx, [ebp + 0x4a0]
  0x1f89	inc    	esp
  === BLOCK LINK ===
    0x1f8a
=== CODE BLOCK END ===

=== CODE BLOCK ADDRESS 0x1f8a ===
  0x1f8a	mov    	al, dh
  0x1f8c	dec    	eax
  0x1f8d	call   	dword ptr [0x13ed]
  === BLOCK LINK ===
    0x1f93
=== CODE BLOCK END ===

=== CODE BLOCK ADDRESS 0x1f93 ===
  0x1f93	nop    	dword ptr [eax + eax]
  0x1f98	inc    	ebp
  0x1f99	xor    	ecx, ecx
  0x1f9b	inc    	eax
  0x1f9c	mov    	byte ptr [esp + 0x28], dh
  === BLOCK LINK ===
    0x1fa0
=== CODE BLOCK END ===

=== CODE BLOCK ADDRESS 0x1fa0 ===
  0x1fa0	inc    	ebp
  0x1fa1	mov    	eax, edi
  0x1fa3	mov    	dword ptr [esp + 0x20], ebx
  0x1fa7	xor    	edx, edx
  0x1fa9	dec    	eax
  === BLOCK LINK ===
    0x1faa
=== CODE BLOCK END ===

=== CODE BLOCK ADDRESS 0x1faa ===
  0x1faa	lea    	ecx, [ebp + 0x6b8]
  0x1fb0	dec    	eax
  0x1fb1	call   	dword ptr [0x1341]
  === BLOCK LINK ===
    0x1fb7
=== CODE BLOCK END ===

=== CODE BLOCK ADDRESS 0x1fb7 ===
  0x1fb7	nop    	dword ptr [eax + eax]
  0x1fbc	inc    	ebp
  0x1fbd	xor    	ecx, ecx
  0x1fbf	inc    	eax
  0x1fc0	mov    	byte ptr [esp + 0x28], dh
  === BLOCK LINK ===
    0x1fc4
=== CODE BLOCK END ===

=== CODE BLOCK ADDRESS 0x1fc4 ===
  0x1fc4	inc    	ebp
  0x1fc5	mov    	eax, edi
  0x1fc7	mov    	dword ptr [esp + 0x20], ebx
  0x1fcb	xor    	edx, edx
  0x1fcd	dec    	eax
  === BLOCK LINK ===
    0x1fce
=== CODE BLOCK END ===

=== CODE BLOCK ADDRESS 0x1fce ===
  0x1fce	lea    	ecx, [ebp + 0x20]
  0x1fd1	dec    	eax
  0x1fd2	mov    	edi, eax
  0x1fd4	dec    	eax
  0x1fd5	call   	dword ptr [0x131d]
  === BLOCK LINK ===
    0x1fdb
=== CODE BLOCK END ===

=== CODE BLOCK ADDRESS 0x1fdb ===
  0x1fdb	nop    	dword ptr [eax + eax]
  0x1fe0	dec    	esp
  0x1fe1	lea    	ecx, [esp + 0x60]
  0x1fe5	dec    	eax
  0x1fe6	mov    	edx, edi
  === BLOCK LINK ===
    0x1fe8
=== CODE BLOCK END ===

=== CODE BLOCK ADDRESS 0x1fe8 ===
  0x1fe8	dec    	eax
  0x1fe9	mov    	ecx, eax
  0x1feb	call   	0x113c
  === BLOCK LINK ===
    0x1ff0
=== CODE BLOCK END ===

=== CODE BLOCK ADDRESS 0x1ff0 ===
  0x1ff0	movzx  	esi, al
  0x1ff3	dec    	eax
  0x1ff4	test   	edi, edi
  0x1ff6	je     	0x1eb5
  === BLOCK LINK ===
    0x1ffc
=== CODE BLOCK END ===

=== CODE BLOCK ADDRESS 0x1ffc ===
  0x1ffc	dec    	eax
  0x1ffe	mov    	ecx, dword ptr [0x60]
  0x2005	dec    	esp
  0x2006	mov    	eax, edi
  0x2008	xor    	edx, edx
  === BLOCK LINK ===
    0x200a
=== CODE BLOCK END ===

=== CODE BLOCK ADDRESS 0x200a ===
  0x200a	dec    	eax
  0x200b	mov    	ecx, dword ptr [ecx + 0x30]
  0x200e	dec    	eax
  0x200f	call   	dword ptr [0x1213]
  === BLOCK LINK ===
    0x2015
=== CODE BLOCK END ===

=== CODE BLOCK ADDRESS 0x2015 ===
  0x2015	nop    	dword ptr [eax + eax]
  0x201a	jmp    	0x1eb5
  === BLOCK LINK ===
    0x201f
=== CODE BLOCK END ===

=== CODE BLOCK ADDRESS 0x201f ===
  0x201f	inc    	ecx
  0x2020	mov    	ecx, 3
  0x2025	dec    	eax
  0x2026	lea    	ecx, [esp + 0x60]
  0x202a	inc    	ebp
  === BLOCK LINK ===
    0x202b
=== CODE BLOCK END ===

=== CODE BLOCK ADDRESS 0x202b ===
  0x202b	xor    	eax, eax
  0x202d	mov    	edx, 0x772f
  0x2032	dec    	eax
  0x2033	call   	dword ptr [0x1247]
  === BLOCK LINK ===
    0x2039
=== CODE BLOCK END ===

=== CODE BLOCK ADDRESS 0x2039 ===
  0x2039	nop    	dword ptr [eax + eax]
  0x203e	mov    	edx, esi
  0x2040	dec    	eax
  0x2041	lea    	ecx, [ebp + 0x290]
  0x2047	dec    	eax
  === BLOCK LINK ===
    0x2048
=== CODE BLOCK END ===

=== CODE BLOCK ADDRESS 0x2048 ===
  0x2048	call   	dword ptr [0x1242]
  === BLOCK LINK ===
    0x204e
=== CODE BLOCK END ===

=== CODE BLOCK ADDRESS 0x204e ===
  0x204e	nop    	dword ptr [eax + eax]
  0x2053	dec    	esp
  0x2054	mov    	eax, eax
  0x2056	dec    	eax
  0x2057	lea    	edx, [0x1407]
  === BLOCK LINK ===
    0x205d
=== CODE BLOCK END ===

=== CODE BLOCK ADDRESS 0x205d ===
  0x205d	dec    	eax
  0x205e	lea    	ecx, [esp + 0x60]
  0x2062	dec    	eax
  0x2063	mov    	edi, eax
  0x2065	dec    	eax
  === BLOCK LINK ===
    0x2066
=== CODE BLOCK END ===

=== CODE BLOCK ADDRESS 0x2066 ===
  0x2066	call   	dword ptr [0x127c]
  === BLOCK LINK ===
    0x206c
=== CODE BLOCK END ===

=== CODE BLOCK ADDRESS 0x206c ===
  0x206c	nop    	dword ptr [eax + eax]
  0x2071	dec    	eax
  0x2072	test   	edi, edi
  0x2074	je     	0x2087
  === BLOCK LINK ===
    0x2076
=== CODE BLOCK END ===

=== CODE BLOCK ADDRESS 0x2076 ===
  0x2076	dec    	eax
  0x2077	mov    	ecx, dword ptr [edi]
  0x2079	mov    	edx, esi
  0x207b	dec    	eax
  0x207c	mov    	eax, dword ptr [ecx]
  === BLOCK LINK ===
    0x207e
=== CODE BLOCK END ===

=== CODE BLOCK ADDRESS 0x207e ===
  0x207e	dec    	eax
  0x207f	mov    	ecx, edi
  0x2081	call   	dword ptr [0x1361]
  === BLOCK LINK ===
    0x2087
=== CODE BLOCK END ===

=== CODE BLOCK ADDRESS 0x2087 ===
  0x2087	dec    	eax
  0x2088	lea    	ecx, [ebp + 0x4a0]
  0x208e	dec    	eax
  0x208f	call   	dword ptr [0x123b]
  === BLOCK LINK ===
    0x2095
=== CODE BLOCK END ===

=== CODE BLOCK ADDRESS 0x2095 ===
  0x2095	nop    	dword ptr [eax + eax]
  0x209a	dec    	eax
  0x209b	lea    	ecx, [ebp + 0x200]
  0x20a1	dec    	eax
  0x20a2	call   	dword ptr [0x1310]
  === BLOCK LINK ===
    0x20a8
=== CODE BLOCK END ===

=== CODE BLOCK ADDRESS 0x20a8 ===
  0x20a8	nop    	dword ptr [eax + eax]
  0x20ad	dec    	eax
  0x20ae	lea    	ecx, [ebp + 0x20]
  0x20b1	dec    	eax
  0x20b2	call   	dword ptr [0x1300]
  === BLOCK LINK ===
    0x20b8
=== CODE BLOCK END ===

=== CODE BLOCK ADDRESS 0x20b8 ===
  0x20b8	nop    	dword ptr [eax + eax]
  0x20bd	jmp    	0x1aab
  === BLOCK LINK ===
    0x20c2
=== CODE BLOCK END ===

=== CODE BLOCK ADDRESS 0x20c2 ===
  0x20c2	dec    	eax
  0x20c3	lea    	ecx, [esp + 0x60]
  0x20c7	cmp    	dword ptr [ebp + 0x2b8], esi
  0x20cd	jbe    	0x213b
  === BLOCK LINK ===
    0x20cf
=== CODE BLOCK END ===

=== CODE BLOCK ADDRESS 0x20cf ===
  0x20cf	inc    	ecx
  0x20d0	mov    	ecx, 3
  0x20d5	inc    	ebp
  0x20d6	xor    	eax, eax
  0x20d8	mov    	edx, 0x772f
  === BLOCK LINK ===
    0x20dd
=== CODE BLOCK END ===

=== CODE BLOCK ADDRESS 0x20dd ===
  0x20dd	dec    	eax
  0x20de	call   	dword ptr [0x119c]
  === BLOCK LINK ===
    0x20e4
=== CODE BLOCK END ===

=== CODE BLOCK ADDRESS 0x20e4 ===
  0x20e4	nop    	dword ptr [eax + eax]
  0x20e9	mov    	edx, esi
  0x20eb	dec    	eax
  0x20ec	lea    	ecx, [ebp + 0x290]
  0x20f2	dec    	eax
  === BLOCK LINK ===
    0x20f3
=== CODE BLOCK END ===

=== CODE BLOCK ADDRESS 0x20f3 ===
  0x20f3	call   	dword ptr [0x1197]
  === BLOCK LINK ===
    0x20f9
=== CODE BLOCK END ===

=== CODE BLOCK ADDRESS 0x20f9 ===
  0x20f9	nop    	dword ptr [eax + eax]
  0x20fe	dec    	esp
  0x20ff	mov    	eax, eax
  0x2101	dec    	eax
  0x2102	lea    	edx, [0x135c]
  === BLOCK LINK ===
    0x2108
=== CODE BLOCK END ===

=== CODE BLOCK ADDRESS 0x2108 ===
  0x2108	dec    	eax
  0x2109	lea    	ecx, [esp + 0x60]
  0x210d	dec    	eax
  0x210e	mov    	edi, eax
  0x2110	dec    	eax
  === BLOCK LINK ===
    0x2111
=== CODE BLOCK END ===

=== CODE BLOCK ADDRESS 0x2111 ===
  0x2111	call   	dword ptr [0x11d1]
  === BLOCK LINK ===
    0x2117
=== CODE BLOCK END ===

=== CODE BLOCK ADDRESS 0x2117 ===
  0x2117	nop    	dword ptr [eax + eax]
  0x211c	dec    	eax
  0x211d	test   	edi, edi
  0x211f	je     	0x1aab
  === BLOCK LINK ===
    0x2125
=== CODE BLOCK END ===

=== CODE BLOCK ADDRESS 0x2125 ===
  0x2125	dec    	eax
  0x2126	mov    	ecx, dword ptr [edi]
  0x2128	mov    	edx, esi
  0x212a	dec    	eax
  0x212b	mov    	eax, dword ptr [ecx]
  === BLOCK LINK ===
    0x212d
=== CODE BLOCK END ===

=== CODE BLOCK ADDRESS 0x212d ===
  0x212d	dec    	eax
  0x212e	mov    	ecx, edi
  0x2130	call   	dword ptr [0x12b2]
  === BLOCK LINK ===
    0x2136
=== CODE BLOCK END ===

=== CODE BLOCK ADDRESS 0x2136 ===
  0x2136	jmp    	0x1aab
  === BLOCK LINK ===
    0x213b
=== CODE BLOCK END ===

=== CODE BLOCK ADDRESS 0x213b ===
  0x213b	call   	0x14d0
  === BLOCK LINK ===
    0x2140
=== CODE BLOCK END ===

=== CODE BLOCK ADDRESS 0x2140 ===
  0x2140	test   	esi, esi
  0x2142	sete   	bl
  0x2145	jmp    	0x1aa9
  === BLOCK LINK ===
    0x214a
=== CODE BLOCK END ===

=== CODE BLOCK ADDRESS 0x214a ===
  0x214a	int3   	
  0x214b	int3   	
  0x214c	int3   	
  0x214d	int3   	
  0x214e	int3   	
  === BLOCK LINK ===
    0x214f
=== CODE BLOCK END ===

=== CODE BLOCK ADDRESS 0x214f ===
  0x214f	int3   	
  0x2150	dec    	eax
  0x2151	sub    	esp, 0x28
  0x2154	mov    	eax, 0x5a4d
  0x2159	cmp    	word ptr [0xffffdea0], ax
  === BLOCK LINK ===
    0x2160
=== CODE BLOCK END ===

=== CODE BLOCK ADDRESS 0x2160 ===
  0x2160	je     	0x2166
  === BLOCK LINK ===
    0x2162
=== CODE BLOCK END ===

=== CODE BLOCK ADDRESS 0x2162 ===
  0x2162	xor    	eax, eax
  0x2164	jmp    	0x21b9
  === BLOCK LINK ===
    0x2166
=== CODE BLOCK END ===

=== CODE BLOCK ADDRESS 0x2166 ===
  0x2166	dec    	eax
  0x2167	arpl   	word ptr [0xffffdecf], cx
  0x216d	dec    	eax
  0x216e	lea    	eax, [0xffffde8c]
  0x2174	dec    	eax
  === BLOCK LINK ===
    0x2175
=== CODE BLOCK END ===

=== CODE BLOCK ADDRESS 0x2175 ===
  0x2175	add    	ecx, eax
  0x2177	cmp    	dword ptr [ecx], 0x4550
  0x217d	jne    	0x2162
  === BLOCK LINK ===
    0x217f
=== CODE BLOCK END ===

=== CODE BLOCK ADDRESS 0x217f ===
  0x217f	mov    	eax, 0x10b
  0x2184	cmp    	word ptr [ecx + 0x18], ax
  0x2188	je     	0x21a8
  === BLOCK LINK ===
    0x218a
=== CODE BLOCK END ===

=== CODE BLOCK ADDRESS 0x218a ===
  0x218a	mov    	eax, 0x20b
  0x218f	cmp    	word ptr [ecx + 0x18], ax
  0x2193	jne    	0x2162
  === BLOCK LINK ===
    0x2195
=== CODE BLOCK END ===

=== CODE BLOCK ADDRESS 0x2195 ===
  0x2195	xor    	eax, eax
  0x2197	cmp    	dword ptr [ecx + 0x84], 0xe
  0x219e	jbe    	0x21b9
  === BLOCK LINK ===
    0x21a0
=== CODE BLOCK END ===

=== CODE BLOCK ADDRESS 0x21a0 ===
  0x21a0	cmp    	dword ptr [ecx + 0xf8], eax
  0x21a6	jmp    	0x21b6
  === BLOCK LINK ===
    0x21a8
=== CODE BLOCK END ===

=== CODE BLOCK ADDRESS 0x21a8 ===
  0x21a8	xor    	eax, eax
  0x21aa	cmp    	dword ptr [ecx + 0x74], 0xe
  0x21ae	jbe    	0x21b9
  === BLOCK LINK ===
    0x21b0
=== CODE BLOCK END ===

=== CODE BLOCK ADDRESS 0x21b0 ===
  0x21b0	cmp    	dword ptr [ecx + 0xe8], eax
  0x21b6	setne  	al
  0x21b9	mov    	ecx, 1
  0x21be	mov    	dword ptr [0x2e7c], eax
  0x21c4	call   	0x2728
  === BLOCK LINK ===
    0x21c9
=== CODE BLOCK END ===

=== CODE BLOCK ADDRESS 0x21c9 ===
  0x21c9	mov    	ecx, eax
  0x21cb	call   	dword ptr [0xff7]
  === BLOCK LINK ===
    0x21d1
=== CODE BLOCK END ===

=== CODE BLOCK ADDRESS 0x21d1 ===
  0x21d1	dec    	eax
  0x21d2	mov    	ecx, dword ptr [0x1020]
  0x21d8	dec    	eax
  0x21d9	or     	eax, 0xffffffff
  0x21dc	dec    	eax
  === BLOCK LINK ===
    0x21dd
=== CODE BLOCK END ===

=== CODE BLOCK ADDRESS 0x21dd ===
  0x21dd	mov    	dword ptr [0x33ed], eax
  0x21e3	dec    	eax
  0x21e4	mov    	dword ptr [0x33ee], eax
  0x21ea	mov    	eax, dword ptr [0x33dc]
  0x21f0	mov    	dword ptr [ecx], eax
  === BLOCK LINK ===
    0x21f2
=== CODE BLOCK END ===

=== CODE BLOCK ADDRESS 0x21f2 ===
  0x21f2	dec    	eax
  0x21f3	mov    	ecx, dword ptr [0xfaf]
  0x21f9	mov    	eax, dword ptr [0x33c1]
  0x21ff	mov    	dword ptr [ecx], eax
  0x2201	call   	0x2780
  === BLOCK LINK ===
    0x2206
=== CODE BLOCK END ===

=== CODE BLOCK ADDRESS 0x2206 ===
  0x2206	cmp    	dword ptr [0x2df3], 0
  0x220d	jne    	0x221c
  === BLOCK LINK ===
    0x220f
=== CODE BLOCK END ===

=== CODE BLOCK ADDRESS 0x220f ===
  0x220f	dec    	eax
  0x2210	lea    	ecx, [0x56a]
  0x2216	call   	dword ptr [0xfcc]
  === BLOCK LINK ===
    0x221c
=== CODE BLOCK END ===

=== CODE BLOCK ADDRESS 0x221c ===
  0x221c	xor    	eax, eax
  0x221e	dec    	eax
  0x221f	add    	esp, 0x28
  0x2222	ret    	
  0x2223	int3   	
  === BLOCK LINK ===
    0x2224
=== CODE BLOCK END ===

=== CODE BLOCK ADDRESS 0x2224 ===
  0x2224	int3   	
  0x2225	int3   	
  0x2226	int3   	
  0x2227	int3   	
  0x2228	int3   	
  === BLOCK LINK ===
    0x2229
=== CODE BLOCK END ===

=== CODE BLOCK ADDRESS 0x2229 ===
  0x2229	int3   	
  0x222a	int3   	
  0x222b	int3   	
  0x222c	int3   	
  0x222d	int3   	
  === BLOCK LINK ===
    0x222e
=== CODE BLOCK END ===

=== CODE BLOCK ADDRESS 0x222e ===
  0x222e	int3   	
  0x222f	int3   	
  0x2230	dec    	eax
  0x2231	sub    	esp, 0x38
  0x2234	mov    	eax, dword ptr [0x338e]
  === BLOCK LINK ===
    0x223a
=== CODE BLOCK END ===

=== CODE BLOCK ADDRESS 0x223a ===
  0x223a	dec    	esp
  0x223b	lea    	eax, [0x2df7]
  0x2241	inc    	esp
  0x2242	mov    	ecx, dword ptr [0x337c]
  0x2248	dec    	eax
  === BLOCK LINK ===
    0x2249
=== CODE BLOCK END ===

=== CODE BLOCK ADDRESS 0x2249 ===
  0x2249	lea    	edx, [0x2de1]
  0x224f	mov    	dword ptr [0x2def], eax
  0x2255	dec    	eax
  0x2256	lea    	ecx, [0x2dcc]
  0x225c	dec    	eax
  === BLOCK LINK ===
    0x225d
=== CODE BLOCK END ===

=== CODE BLOCK ADDRESS 0x225d ===
  0x225d	lea    	eax, [0x2de1]
  0x2263	dec    	eax
  0x2264	mov    	dword ptr [esp + 0x20], eax
  0x2268	call   	dword ptr [0xf52]
  === BLOCK LINK ===
    0x226e
=== CODE BLOCK END ===

=== CODE BLOCK ADDRESS 0x226e ===
  0x226e	mov    	dword ptr [0x2db8], eax
  0x2274	dec    	eax
  0x2275	add    	esp, 0x38
  0x2278	ret    	
  0x2279	int3   	
  === BLOCK LINK ===
    0x227a
=== CODE BLOCK END ===

=== CODE BLOCK ADDRESS 0x10c6 ===
  0x10c6	dec    	eax
  0x10c7	mov    	eax, dword ptr [esi]
  0x10c9	inc    	ecx
  === BLOCK LINK ===
    0x10ca
=== CODE BLOCK END ===

=== CODE BLOCK ADDRESS 0x227a ===
  0x227a	int3   	
  0x227b	int3   	
  0x227c	int3   	
  0x227d	int3   	
  0x227e	int3   	
  === BLOCK LINK ===
    0x227f
=== CODE BLOCK END ===

=== CODE BLOCK ADDRESS 0x227f ===
  0x227f	int3   	
  0x2280	dec    	eax
  0x2281	mov    	dword ptr [esp + 8], ebx
  0x2285	dec    	eax
  0x2286	mov    	dword ptr [esp + 0x10], esi
  === BLOCK LINK ===
    0x228a
=== CODE BLOCK END ===

=== CODE BLOCK ADDRESS 0x228a ===
  0x228a	dec    	eax
  0x228b	mov    	dword ptr [esp + 0x18], edi
  0x228f	inc    	ecx
  0x2290	push   	edi
  0x2291	dec    	eax
  === BLOCK LINK ===
    0x2292
=== CODE BLOCK END ===

=== CODE BLOCK ADDRESS 0x2292 ===
  0x2292	sub    	esp, 0x30
  0x2295	dec    	eax
  0x2297	mov    	eax, dword ptr [0x30]
  0x229e	dec    	eax
  0x229f	mov    	ebx, dword ptr [eax + 8]
  === BLOCK LINK ===
    0x22a2
=== CODE BLOCK END ===

=== CODE BLOCK ADDRESS 0x22a2 ===
  0x22a2	xor    	esi, esi
  0x22a4	xor    	eax, eax
  0x22a6	.byte  	0xf0
  0x22a7	dec    	eax
  0x22a8	cmpxchg  	dword ptr [0x3331], ebx
  === BLOCK LINK ===
    0x22af
=== CODE BLOCK END ===

=== CODE BLOCK ADDRESS 0x22af ===
  0x22af	je     	0x22cc
  === BLOCK LINK ===
    0x22b1
=== CODE BLOCK END ===

=== CODE BLOCK ADDRESS 0x22b1 ===
  0x22b1	dec    	eax
  0x22b2	cmp    	eax, ebx
  0x22b4	jne    	0x22bf
  === BLOCK LINK ===
    0x22b6
=== CODE BLOCK END ===

=== CODE BLOCK ADDRESS 0x22b6 ===
  0x22b6	mov    	ebx, 1
  0x22bb	mov    	esi, ebx
  0x22bd	jmp    	0x22d1
  === BLOCK LINK ===
    0x22bf
=== CODE BLOCK END ===

=== CODE BLOCK ADDRESS 0x22bf ===
  0x22bf	mov    	ecx, 0x3e8
  0x22c4	call   	dword ptr [0xec6]
  === BLOCK LINK ===
    0x22ca
=== CODE BLOCK END ===

=== CODE BLOCK ADDRESS 0x22ca ===
  0x22ca	jmp    	0x22a4
  === BLOCK LINK ===
    0x22cc
=== CODE BLOCK END ===

=== CODE BLOCK ADDRESS 0x22cc ===
  0x22cc	mov    	ebx, 1
  0x22d1	mov    	eax, dword ptr [0x3311]
  0x22d7	cmp    	eax, ebx
  0x22d9	jne    	0x22e7
  === BLOCK LINK ===
    0x22db
=== CODE BLOCK END ===

=== CODE BLOCK ADDRESS 0x22db ===
  0x22db	mov    	ecx, 0x1f
  0x22e0	call   	0x2773
  === BLOCK LINK ===
    0x22e5
=== CODE BLOCK END ===

=== CODE BLOCK ADDRESS 0x22e5 ===
  0x22e5	jmp    	0x234c
  === BLOCK LINK ===
    0x22e7
=== CODE BLOCK END ===

=== CODE BLOCK ADDRESS 0x22e7 ===
  0x22e7	mov    	eax, dword ptr [0x32fb]
  0x22ed	test   	eax, eax
  0x22ef	jne    	0x2346
  === BLOCK LINK ===
    0x22f1
=== CODE BLOCK END ===

=== CODE BLOCK ADDRESS 0x22f1 ===
  0x22f1	mov    	dword ptr [0x32f1], ebx
  0x22f7	dec    	esp
  0x22f8	lea    	edi, [0x1122]
  0x22fe	dec    	eax
  0x22ff	lea    	edi, [0x1103]
  === BLOCK LINK ===
    0x2305
=== CODE BLOCK END ===

=== CODE BLOCK ADDRESS 0x2305 ===
  0x2305	dec    	eax
  0x2306	mov    	dword ptr [esp + 0x28], edi
  0x230a	mov    	dword ptr [esp + 0x20], eax
  0x230e	dec    	ecx
  0x230f	cmp    	edi, edi
  === BLOCK LINK ===
    0x2311
=== CODE BLOCK END ===

=== CODE BLOCK ADDRESS 0x2311 ===
  0x2311	jae    	0x2338
  === BLOCK LINK ===
    0x2313
=== CODE BLOCK END ===

=== CODE BLOCK ADDRESS 0x2313 ===
  0x2313	test   	eax, eax
  0x2315	jne    	0x233c
  === BLOCK LINK ===
    0x2317
=== CODE BLOCK END ===

=== CODE BLOCK ADDRESS 0x2317 ===
  0x2317	dec    	eax
  0x2318	cmp    	dword ptr [edi], 0
  0x231b	je     	0x232d
  === BLOCK LINK ===
    0x231d
=== CODE BLOCK END ===

=== CODE BLOCK ADDRESS 0x231d ===
  0x231d	dec    	eax
  0x231e	mov    	eax, dword ptr [edi]
  0x2320	dec    	eax
  0x2321	mov    	ecx, dword ptr [0x10c1]
  0x2327	call   	ecx
  === BLOCK LINK ===
    0x2329
=== CODE BLOCK END ===

=== CODE BLOCK ADDRESS 0x2329 ===
  0x2329	mov    	dword ptr [esp + 0x20], eax
  0x232d	dec    	eax
  0x232e	add    	edi, 8
  0x2331	dec    	eax
  0x2332	mov    	dword ptr [esp + 0x28], edi
  === BLOCK LINK ===
    0x2336
=== CODE BLOCK END ===

=== CODE BLOCK ADDRESS 0x2336 ===
  0x2336	jmp    	0x230e
  === BLOCK LINK ===
    0x2338
=== CODE BLOCK END ===

=== CODE BLOCK ADDRESS 0x2338 ===
  0x2338	test   	eax, eax
  0x233a	je     	0x234c
  === BLOCK LINK ===
    0x233c
=== CODE BLOCK END ===

=== CODE BLOCK ADDRESS 0x233c ===
  0x233c	mov    	eax, 0xff
  0x2341	jmp    	0x2428
  === BLOCK LINK ===
    0x2346
=== CODE BLOCK END ===

=== CODE BLOCK ADDRESS 0x2346 ===
  0x2346	mov    	dword ptr [0x2cd8], ebx
  0x234c	mov    	eax, dword ptr [0x3296]
  0x2352	cmp    	eax, ebx
  0x2354	jne    	0x2373
  === BLOCK LINK ===
    0x2356
=== CODE BLOCK END ===

=== CODE BLOCK ADDRESS 0x2356 ===
  0x2356	dec    	eax
  0x2357	lea    	edx, [0x10a3]
  0x235d	dec    	eax
  0x235e	lea    	ecx, [0x108c]
  0x2364	call   	0x294e
  === BLOCK LINK ===
    0x2369
=== CODE BLOCK END ===

=== CODE BLOCK ADDRESS 0x2369 ===
  0x2369	mov    	dword ptr [0x3275], 2
  0x2373	test   	esi, esi
  0x2375	jne    	0x2380
  === BLOCK LINK ===
    0x2377
=== CODE BLOCK END ===

=== CODE BLOCK ADDRESS 0x2377 ===
  0x2377	xor    	eax, eax
  0x2379	dec    	eax
  0x237a	xchg   	dword ptr [0x3260], eax
  0x2380	dec    	eax
  0x2381	cmp    	dword ptr [0x3268], 0
  === BLOCK LINK ===
    0x2388
=== CODE BLOCK END ===

=== CODE BLOCK ADDRESS 0x2388 ===
  0x2388	je     	0x23b4
  === BLOCK LINK ===
    0x238a
=== CODE BLOCK END ===

=== CODE BLOCK ADDRESS 0x238a ===
  0x238a	dec    	eax
  0x238b	lea    	ecx, [0x325f]
  0x2391	call   	0x27e0
  === BLOCK LINK ===
    0x2396
=== CODE BLOCK END ===

=== CODE BLOCK ADDRESS 0x2396 ===
  0x2396	test   	eax, eax
  0x2398	je     	0x23b4
  === BLOCK LINK ===
    0x239a
=== CODE BLOCK END ===

=== CODE BLOCK ADDRESS 0x239a ===
  0x239a	inc    	ebp
  0x239b	xor    	eax, eax
  0x239d	inc    	ecx
  0x239e	lea    	edx, [eax + 2]
  0x23a1	xor    	ecx, ecx
  === BLOCK LINK ===
    0x23a3
=== CODE BLOCK END ===

=== CODE BLOCK ADDRESS 0x23a3 ===
  0x23a3	dec    	eax
  0x23a4	mov    	eax, dword ptr [0x3246]
  0x23aa	dec    	esp
  0x23ab	mov    	ecx, dword ptr [0x1037]
  0x23b1	inc    	ecx
  === BLOCK LINK ===
    0x23b2
=== CODE BLOCK END ===

=== CODE BLOCK ADDRESS 0x23b2 ===
  0x23b2	call   	ecx
  === BLOCK LINK ===
    0x23b4
=== CODE BLOCK END ===

=== CODE BLOCK ADDRESS 0x23b4 ===
  0x23b4	dec    	esp
  0x23b5	mov    	eax, dword ptr [0x2c7d]
  0x23bb	dec    	eax
  0x23bc	mov    	edx, dword ptr [0x2c6e]
  0x23c2	mov    	ecx, dword ptr [0x2c60]
  === BLOCK LINK ===
    0x23c8
=== CODE BLOCK END ===

=== CODE BLOCK ADDRESS 0x23c8 ===
  0x23c8	call   	0x1644
  === BLOCK LINK ===
    0x23cd
=== CODE BLOCK END ===

=== CODE BLOCK ADDRESS 0x23cd ===
  0x23cd	mov    	dword ptr [0x2c4d], eax
  0x23d3	cmp    	dword ptr [0x2c66], 0
  0x23da	jne    	0x23e4
  === BLOCK LINK ===
    0x23dc
=== CODE BLOCK END ===

=== CODE BLOCK ADDRESS 0x23dc ===
  0x23dc	mov    	ecx, eax
  0x23de	call   	dword ptr [0xdec]
  === BLOCK LINK ===
    0x23e4
=== CODE BLOCK END ===

=== CODE BLOCK ADDRESS 0x23e4 ===
  0x23e4	cmp    	dword ptr [0x2c39], 0
  0x23eb	jne    	0x23f9
  === BLOCK LINK ===
    0x23ed
=== CODE BLOCK END ===

=== CODE BLOCK ADDRESS 0x23ed ===
  0x23ed	call   	dword ptr [0xded]
  === BLOCK LINK ===
    0x23f3
=== CODE BLOCK END ===

=== CODE BLOCK ADDRESS 0x23f3 ===
  0x23f3	mov    	eax, dword ptr [0x2c27]
  0x23f9	jmp    	0x2428
  === BLOCK LINK ===
    0x23fb
=== CODE BLOCK END ===

=== CODE BLOCK ADDRESS 0x23fb ===
  0x23fb	mov    	dword ptr [0x2c1f], eax
  0x2401	cmp    	dword ptr [0x2c38], 0
  0x2408	jne    	0x2413
  === BLOCK LINK ===
    0x240a
=== CODE BLOCK END ===

=== CODE BLOCK ADDRESS 0x240a ===
  0x240a	mov    	ecx, eax
  0x240c	call   	dword ptr [0xdc6]
  === BLOCK LINK ===
    0x2412
=== CODE BLOCK END ===

=== CODE BLOCK ADDRESS 0x2412 ===
  0x2412	int3   	
  0x2413	cmp    	dword ptr [0x2c0a], 0
  0x241a	jne    	0x2428
  === BLOCK LINK ===
    0x241c
=== CODE BLOCK END ===

=== CODE BLOCK ADDRESS 0x241c ===
  0x241c	call   	dword ptr [0xdbe]
  === BLOCK LINK ===
    0x2422
=== CODE BLOCK END ===

=== CODE BLOCK ADDRESS 0x2422 ===
  0x2422	mov    	eax, dword ptr [0x2bf8]
  0x2428	dec    	eax
  0x2429	mov    	ebx, dword ptr [esp + 0x40]
  0x242d	dec    	eax
  0x242e	mov    	esi, dword ptr [esp + 0x48]
  === BLOCK LINK ===
    0x2432
=== CODE BLOCK END ===

=== CODE BLOCK ADDRESS 0x2432 ===
  0x2432	dec    	eax
  0x2433	mov    	edi, dword ptr [esp + 0x50]
  0x2437	dec    	eax
  0x2438	add    	esp, 0x30
  0x243b	inc    	ecx
  === BLOCK LINK ===
    0x243c
=== CODE BLOCK END ===

=== CODE BLOCK ADDRESS 0x243c ===
  0x243c	pop    	edi
  0x243d	ret    	
  0x243e	int3   	
  0x243f	int3   	
  0x2440	int3   	
  === BLOCK LINK ===
    0x2441
=== CODE BLOCK END ===

=== CODE BLOCK ADDRESS 0x2480 ===
=== CODE BLOCK END ===

=== CODE BLOCK ADDRESS 0x2441 ===
  0x2441	int3   	
  0x2442	int3   	
  0x2443	int3   	
  0x2444	int3   	
  0x2445	int3   	
  === BLOCK LINK ===
    0x2446
=== CODE BLOCK END ===

=== CODE BLOCK ADDRESS 0x2446 ===
  0x2446	int3   	
  0x2447	int3   	
  0x2448	int3   	
  0x2449	int3   	
  0x244a	int3   	
  === BLOCK LINK ===
    0x244b
=== CODE BLOCK END ===

=== CODE BLOCK ADDRESS 0x244b ===
  0x244b	int3   	
  0x244c	int3   	
  0x244d	int3   	
  0x244e	int3   	
  0x244f	int3   	
  === BLOCK LINK ===
    0x2450
=== CODE BLOCK END ===

=== CODE BLOCK ADDRESS 0x2450 ===
  0x2450	dec    	eax
  0x2451	sub    	esp, 0x28
  0x2454	call   	0x2874
  === BLOCK LINK ===
    0x2459
=== CODE BLOCK END ===

=== CODE BLOCK ADDRESS 0x2459 ===
  0x2459	dec    	eax
  0x245a	add    	esp, 0x28
  0x245d	jmp    	0x2280
  === BLOCK LINK ===
    0x2462
=== CODE BLOCK END ===

=== CODE BLOCK ADDRESS 0x2462 ===
  0x2462	int3   	
  0x2463	int3   	
  0x2464	int3   	
  0x2465	int3   	
  0x2466	int3   	
  === BLOCK LINK ===
    0x2467
=== CODE BLOCK END ===

=== CODE BLOCK ADDRESS 0x2467 ===
  0x2467	int3   	
  0x2468	int3   	
  0x2469	int3   	
  0x246a	int3   	
  0x246b	int3   	
  === BLOCK LINK ===
    0x246c
=== CODE BLOCK END ===

=== CODE BLOCK ADDRESS 0x246c ===
  0x246c	int3   	
  0x246d	int3   	
  0x246e	int3   	
  0x246f	int3   	
  0x2470	int3   	
  === BLOCK LINK ===
    0x2471
=== CODE BLOCK END ===

=== CODE BLOCK ADDRESS 0x2471 ===
  0x2471	int3   	
  0x2472	int3   	
  0x2473	int3   	
  0x2474	int3   	
  0x2475	int3   	
  === BLOCK LINK ===
    0x2476
=== CODE BLOCK END ===

=== CODE BLOCK ADDRESS 0x2476 ===
  0x2476	nop    	word ptr [eax + eax]
  0x2480	dec    	eax
  0x2481	cmp    	ecx, dword ptr [0x2b81]
  0x2487	jne    	0x2499
  === BLOCK LINK ===
    0x2489
=== CODE BLOCK END ===

=== CODE BLOCK ADDRESS 0x2489 ===
  0x2489	dec    	eax
  0x248a	rol    	ecx, 0x10
  0x248d	test   	cx, 0xffff
  0x2492	jne    	0x2495
  === BLOCK LINK ===
    0x2494
=== CODE BLOCK END ===

=== CODE BLOCK ADDRESS 0x2494 ===
  0x2494	ret    	
  0x2495	dec    	eax
  0x2496	ror    	ecx, 0x10
  0x2499	jmp    	0x24e0
  === BLOCK LINK ===
    0x249e
=== CODE BLOCK END ===

=== CODE BLOCK ADDRESS 0x249e ===
  0x249e	int3   	
  0x249f	int3   	
  0x24a0	int3   	
  0x24a1	int3   	
  0x24a2	int3   	
  === BLOCK LINK ===
    0x24a3
=== CODE BLOCK END ===

=== CODE BLOCK ADDRESS 0x24a3 ===
  0x24a3	int3   	
  0x24a4	inc    	eax
  0x24a5	push   	ebx
  0x24a6	dec    	eax
  0x24a7	sub    	esp, 0x20
  === BLOCK LINK ===
    0x24aa
=== CODE BLOCK END ===

=== CODE BLOCK ADDRESS 0x24aa ===
  0x24aa	dec    	eax
  0x24ab	mov    	ebx, ecx
  0x24ad	xor    	ecx, ecx
  0x24af	call   	dword ptr [0xccb]
  === BLOCK LINK ===
    0x24b5
=== CODE BLOCK END ===

=== CODE BLOCK ADDRESS 0x24b5 ===
  0x24b5	dec    	eax
  0x24b6	mov    	ecx, ebx
  0x24b8	call   	dword ptr [0xcca]
  === BLOCK LINK ===
    0x24be
=== CODE BLOCK END ===

=== CODE BLOCK ADDRESS 0x24be ===
  0x24be	call   	dword ptr [0xcb4]
  === BLOCK LINK ===
    0x24c4
=== CODE BLOCK END ===

=== CODE BLOCK ADDRESS 0x24c4 ===
  0x24c4	dec    	eax
  0x24c5	mov    	ecx, eax
  0x24c7	mov    	edx, 0xc0000409
  0x24cc	dec    	eax
  0x24cd	add    	esp, 0x20
  === BLOCK LINK ===
    0x24d0
=== CODE BLOCK END ===

=== CODE BLOCK ADDRESS 0x24d0 ===
  0x24d0	pop    	ebx
  0x24d1	dec    	eax
  0x24d2	jmp    	dword ptr [0xc98]
  === BLOCK LINK ===
    0x24d8
=== CODE BLOCK END ===

=== CODE BLOCK ADDRESS 0x24d8 ===
  0x24d8	int3   	
  0x24d9	int3   	
  0x24da	int3   	
  0x24db	int3   	
  0x24dc	int3   	
  === BLOCK LINK ===
    0x24dd
=== CODE BLOCK END ===

=== CODE BLOCK ADDRESS 0x24dd ===
  0x24dd	int3   	
  0x24de	int3   	
  0x24df	int3   	
  0x24e0	dec    	eax
  0x24e1	mov    	dword ptr [esp + 8], ecx
  === BLOCK LINK ===
    0x24e5
=== CODE BLOCK END ===

=== CODE BLOCK ADDRESS 0x24e5 ===
  0x24e5	dec    	eax
  0x24e6	sub    	esp, 0x88
  0x24ec	dec    	eax
  0x24ed	lea    	ecx, [0x2bfd]
  0x24f3	call   	dword ptr [0xd27]
  === BLOCK LINK ===
    0x24f9
=== CODE BLOCK END ===

=== CODE BLOCK ADDRESS 0x24f9 ===
  0x24f9	dec    	eax
  0x24fa	mov    	eax, dword ptr [0x2ce8]
  0x2500	dec    	eax
  0x2501	mov    	dword ptr [esp + 0x48], eax
  0x2505	inc    	ebp
  === BLOCK LINK ===
    0x2506
=== CODE BLOCK END ===

=== CODE BLOCK ADDRESS 0x2506 ===
  0x2506	xor    	eax, eax
  0x2508	dec    	eax
  0x2509	lea    	edx, [esp + 0x50]
  0x250d	dec    	eax
  0x250e	mov    	ecx, dword ptr [esp + 0x48]
  === BLOCK LINK ===
    0x2512
=== CODE BLOCK END ===

=== CODE BLOCK ADDRESS 0x2512 ===
  0x2512	call   	dword ptr [0xd00]
  === BLOCK LINK ===
    0x2518
=== CODE BLOCK END ===

=== CODE BLOCK ADDRESS 0x2518 ===
  0x2518	dec    	eax
  0x2519	mov    	dword ptr [esp + 0x40], eax
  0x251d	dec    	eax
  0x251e	cmp    	dword ptr [esp + 0x40], 0
  0x2523	je     	0x2567
  === BLOCK LINK ===
    0x2525
=== CODE BLOCK END ===

=== CODE BLOCK ADDRESS 0x2525 ===
  0x2525	dec    	eax
  0x2526	mov    	dword ptr [esp + 0x38], 0
  0x252e	dec    	eax
  0x252f	lea    	eax, [esp + 0x58]
  0x2533	dec    	eax
  === BLOCK LINK ===
    0x2534
=== CODE BLOCK END ===

=== CODE BLOCK ADDRESS 0x2534 ===
  0x2534	mov    	dword ptr [esp + 0x30], eax
  0x2538	dec    	eax
  0x2539	lea    	eax, [esp + 0x60]
  0x253d	dec    	eax
  0x253e	mov    	dword ptr [esp + 0x28], eax
  === BLOCK LINK ===
    0x2542
=== CODE BLOCK END ===

=== CODE BLOCK ADDRESS 0x2542 ===
  0x2542	dec    	eax
  0x2543	lea    	eax, [0x2ba7]
  0x2549	dec    	eax
  0x254a	mov    	dword ptr [esp + 0x20], eax
  0x254e	dec    	esp
  === BLOCK LINK ===
    0x254f
=== CODE BLOCK END ===

=== CODE BLOCK ADDRESS 0x254f ===
  0x254f	mov    	ecx, dword ptr [esp + 0x40]
  0x2553	dec    	esp
  0x2554	mov    	eax, dword ptr [esp + 0x48]
  0x2558	dec    	eax
  0x2559	mov    	edx, dword ptr [esp + 0x50]
  === BLOCK LINK ===
    0x255d
=== CODE BLOCK END ===

=== CODE BLOCK ADDRESS 0x255d ===
  0x255d	xor    	ecx, ecx
  0x255f	call   	dword ptr [0xcdb]
  === BLOCK LINK ===
    0x2565
=== CODE BLOCK END ===

=== CODE BLOCK ADDRESS 0x2565 ===
  0x2565	jmp    	0x258a
  === BLOCK LINK ===
    0x2567
=== CODE BLOCK END ===

=== CODE BLOCK ADDRESS 0x2567 ===
  0x2567	dec    	eax
  0x2568	mov    	eax, dword ptr [0x2c1a]
  0x256e	dec    	eax
  0x256f	mov    	eax, dword ptr [eax]
  0x2571	dec    	eax
  === BLOCK LINK ===
    0x2572
=== CODE BLOCK END ===

=== CODE BLOCK ADDRESS 0x2572 ===
  0x2572	mov    	dword ptr [0x2c70], eax
  0x2578	dec    	eax
  0x2579	mov    	eax, dword ptr [0x2c09]
  0x257f	dec    	eax
  0x2580	add    	eax, 8
  === BLOCK LINK ===
    0x2583
=== CODE BLOCK END ===

=== CODE BLOCK ADDRESS 0x2583 ===
  0x2583	dec    	eax
  0x2584	mov    	dword ptr [0x2bfe], eax
  0x258a	dec    	eax
  0x258b	mov    	eax, dword ptr [0x2c57]
  0x2591	dec    	eax
  === BLOCK LINK ===
    0x2592
=== CODE BLOCK END ===

=== CODE BLOCK ADDRESS 0x2592 ===
  0x2592	mov    	dword ptr [0x2ac8], eax
  0x2598	dec    	eax
  0x2599	mov    	eax, dword ptr [esp + 0x90]
  0x25a0	dec    	eax
  0x25a1	mov    	dword ptr [0x2bc9], eax
  === BLOCK LINK ===
    0x25a7
=== CODE BLOCK END ===

=== CODE BLOCK ADDRESS 0x25a7 ===
  0x25a7	mov    	dword ptr [0x2a9f], 0xc0000409
  0x25b1	mov    	dword ptr [0x2a99], 1
  0x25bb	mov    	dword ptr [0x2aa3], 3
  0x25c5	mov    	eax, 8
  0x25ca	dec    	eax
  === BLOCK LINK ===
    0x25cb
=== CODE BLOCK END ===

=== CODE BLOCK ADDRESS 0x25cb ===
  0x25cb	imul   	eax, eax, 0
  0x25ce	dec    	eax
  0x25cf	lea    	ecx, [0x2a9b]
  0x25d5	dec    	eax
  0x25d6	mov    	dword ptr [ecx + eax], 2
  === BLOCK LINK ===
    0x25dd
=== CODE BLOCK END ===

=== CODE BLOCK ADDRESS 0x25dd ===
  0x25dd	mov    	eax, 8
  0x25e2	dec    	eax
  0x25e3	imul   	eax, eax, 1
  0x25e6	dec    	eax
  0x25e7	lea    	ecx, [0x2a83]
  === BLOCK LINK ===
    0x25ed
=== CODE BLOCK END ===

=== CODE BLOCK ADDRESS 0x25ed ===
  0x25ed	dec    	eax
  0x25ee	mov    	edx, dword ptr [0x2a14]
  0x25f4	dec    	eax
  0x25f5	mov    	dword ptr [ecx + eax], edx
  0x25f8	mov    	eax, 8
  === BLOCK LINK ===
    0x25fd
=== CODE BLOCK END ===

=== CODE BLOCK ADDRESS 0x25fd ===
  0x25fd	dec    	eax
  0x25fe	imul   	eax, eax, 2
  0x2601	dec    	eax
  0x2602	lea    	ecx, [0x2a68]
  0x2608	dec    	eax
  === BLOCK LINK ===
    0x2609
=== CODE BLOCK END ===

=== CODE BLOCK ADDRESS 0x2609 ===
  0x2609	mov    	edx, dword ptr [0x2a01]
  0x260f	dec    	eax
  0x2610	mov    	dword ptr [ecx + eax], edx
  0x2613	mov    	eax, 8
  0x2618	dec    	eax
  === BLOCK LINK ===
    0x2619
=== CODE BLOCK END ===

=== CODE BLOCK ADDRESS 0x2619 ===
  0x2619	imul   	eax, eax, 0
  0x261c	dec    	eax
  0x261d	mov    	ecx, dword ptr [0x29e5]
  0x2623	dec    	eax
  0x2624	mov    	dword ptr [esp + eax + 0x68], ecx
  === BLOCK LINK ===
    0x2628
=== CODE BLOCK END ===

=== CODE BLOCK ADDRESS 0x2628 ===
  0x2628	mov    	eax, 8
  0x262d	dec    	eax
  0x262e	imul   	eax, eax, 1
  0x2631	dec    	eax
  0x2632	mov    	ecx, dword ptr [0x29d8]
  === BLOCK LINK ===
    0x2638
=== CODE BLOCK END ===

=== CODE BLOCK ADDRESS 0x2638 ===
  0x2638	dec    	eax
  0x2639	mov    	dword ptr [esp + eax + 0x68], ecx
  0x263d	dec    	eax
  0x263e	lea    	ecx, [0x9bc]
  0x2644	call   	0x24a4
  === BLOCK LINK ===
    0x2649
=== CODE BLOCK END ===

=== CODE BLOCK ADDRESS 0x2649 ===
  0x2649	dec    	eax
  0x264a	add    	esp, 0x88
  0x2650	ret    	
  0x2651	int3   	
  0x2652	int3   	
  === BLOCK LINK ===
    0x2653
=== CODE BLOCK END ===

=== CODE BLOCK ADDRESS 0x2653 ===
  0x2653	int3   	
  0x2654	int3   	
  0x2655	int3   	
  0x2656	int3   	
  0x2657	int3   	
  === BLOCK LINK ===
    0x2658
=== CODE BLOCK END ===

=== CODE BLOCK ADDRESS 0x2658 ===
  0x2658	int3   	
  0x2659	int3   	
  0x265a	int3   	
  0x265b	int3   	
  0x265c	int3   	
  === BLOCK LINK ===
    0x265d
=== CODE BLOCK END ===

=== CODE BLOCK ADDRESS 0x265d ===
  0x265d	int3   	
  0x265e	int3   	
  0x265f	int3   	
  0x2660	dec    	eax
  0x2661	sub    	esp, 0x28
  === BLOCK LINK ===
    0x2664
=== CODE BLOCK END ===

=== CODE BLOCK ADDRESS 0x2664 ===
  0x2664	dec    	eax
  0x2665	mov    	eax, dword ptr [ecx]
  0x2667	cmp    	dword ptr [eax], 0xe06d7363
  0x266d	jne    	0x2692
  === BLOCK LINK ===
    0x266f
=== CODE BLOCK END ===

=== CODE BLOCK ADDRESS 0x266f ===
  0x266f	cmp    	dword ptr [eax + 0x18], 4
  0x2673	jne    	0x2692
  === BLOCK LINK ===
    0x2675
=== CODE BLOCK END ===

=== CODE BLOCK ADDRESS 0x2675 ===
  0x2675	mov    	ecx, dword ptr [eax + 0x20]
  0x2678	lea    	eax, [ecx - 0x19930520]
  0x267e	cmp    	eax, 2
  0x2681	jbe    	0x268b
  === BLOCK LINK ===
    0x2683
=== CODE BLOCK END ===

=== CODE BLOCK ADDRESS 0x2683 ===
  0x2683	cmp    	ecx, 0x1994000
  0x2689	jne    	0x2692
  === BLOCK LINK ===
    0x268b
=== CODE BLOCK END ===

=== CODE BLOCK ADDRESS 0x268b ===
  0x268b	call   	dword ptr [0xb1f]
  === BLOCK LINK ===
    0x2691
=== CODE BLOCK END ===

=== CODE BLOCK ADDRESS 0x2691 ===
  0x2691	int3   	
  0x2692	xor    	eax, eax
  0x2694	dec    	eax
  0x2695	add    	esp, 0x28
  0x2698	ret    	
  === BLOCK LINK ===
    0x2699
=== CODE BLOCK END ===

=== CODE BLOCK ADDRESS 0x127d ===
  0x127d	test   	ebx, ebx
  0x127f	je     	0x134f
  === BLOCK LINK ===
    0x1285
=== CODE BLOCK END ===

=== CODE BLOCK ADDRESS 0x2699 ===
  0x2699	int3   	
  0x269a	int3   	
  0x269b	int3   	
  0x269c	int3   	
  0x269d	int3   	
  === BLOCK LINK ===
    0x269e
=== CODE BLOCK END ===

=== CODE BLOCK ADDRESS 0x269e ===
  0x269e	int3   	
  0x269f	int3   	
  0x26a0	dec    	eax
  0x26a1	sub    	esp, 0x28
  0x26a4	dec    	eax
  === BLOCK LINK ===
    0x26a5
=== CODE BLOCK END ===

=== CODE BLOCK ADDRESS 0x26a5 ===
  0x26a5	lea    	ecx, [0xffffffb5]
  0x26ab	call   	dword ptr [0xacf]
  === BLOCK LINK ===
    0x26b1
=== CODE BLOCK END ===

=== CODE BLOCK ADDRESS 0x26b1 ===
  0x26b1	xor    	eax, eax
  0x26b3	dec    	eax
  0x26b4	add    	esp, 0x28
  0x26b7	ret    	
  0x26b8	int3   	
  === BLOCK LINK ===
    0x26b9
=== CODE BLOCK END ===

=== CODE BLOCK ADDRESS 0x11b3 ===
  0x11b3	dec    	eax
  0x11b4	inc    	eax
  0x11b6	cmp    	word ptr [esi + eax*2], di
  === BLOCK LINK ===
    0x11ba
=== CODE BLOCK END ===

=== CODE BLOCK ADDRESS 0x26b9 ===
  0x26b9	int3   	
  0x26ba	int3   	
  0x26bb	int3   	
  0x26bc	int3   	
  0x26bd	int3   	
  === BLOCK LINK ===
    0x26be
=== CODE BLOCK END ===

=== CODE BLOCK ADDRESS 0x26be ===
  0x26be	jmp    	dword ptr [0xb3c]
  === BLOCK LINK ===
    0x26c4
=== CODE BLOCK END ===

=== CODE BLOCK ADDRESS 0x26c4 ===
  0x26c4	int3   	
  0x26c5	int3   	
  0x26c6	int3   	
  0x26c7	int3   	
  0x26c8	int3   	
  === BLOCK LINK ===
    0x26c9
=== CODE BLOCK END ===

=== CODE BLOCK ADDRESS 0x26c9 ===
  0x26c9	int3   	
  0x26ca	int3   	
  0x26cb	int3   	
  0x26cc	dec    	eax
  0x26cd	sub    	esp, 0x18
  === BLOCK LINK ===
    0x26d0
=== CODE BLOCK END ===

=== CODE BLOCK ADDRESS 0x26d0 ===
  0x26d0	xor    	edx, edx
  0x26d2	dec    	eax
  0x26d3	lea    	eax, [ecx - 1]
  0x26d6	dec    	eax
  0x26d7	cmp    	eax, -3
  === BLOCK LINK ===
    0x26da
=== CODE BLOCK END ===

=== CODE BLOCK ADDRESS 0x26da ===
  0x26da	ja     	0x2718
  === BLOCK LINK ===
    0x26dc
=== CODE BLOCK END ===

=== CODE BLOCK ADDRESS 0x26dc ===
  0x26dc	mov    	eax, 0x5a4d
  0x26e1	cmp    	word ptr [ecx], ax
  0x26e4	jne    	0x2710
  === BLOCK LINK ===
    0x26e6
=== CODE BLOCK END ===

=== CODE BLOCK ADDRESS 0x26e6 ===
  0x26e6	cmp    	dword ptr [ecx + 0x3c], edx
  0x26e9	jl     	0x2710
  === BLOCK LINK ===
    0x26eb
=== CODE BLOCK END ===

=== CODE BLOCK ADDRESS 0x26eb ===
  0x26eb	cmp    	dword ptr [ecx + 0x3c], 0x10000000
  0x26f2	jae    	0x2710
  === BLOCK LINK ===
    0x26f4
=== CODE BLOCK END ===

=== CODE BLOCK ADDRESS 0x26f4 ===
  0x26f4	dec    	eax
  0x26f5	arpl   	word ptr [ecx + 0x3c], ax
  0x26f8	dec    	eax
  0x26f9	add    	eax, ecx
  0x26fb	dec    	eax
  === BLOCK LINK ===
    0x26fc
=== CODE BLOCK END ===

=== CODE BLOCK ADDRESS 0x26fc ===
  0x26fc	mov    	dword ptr [esp], eax
  0x26ff	cmp    	dword ptr [eax], 0x4550
  0x2705	dec    	eax
  0x2706	cmovne  	eax, edx
  0x2709	dec    	eax
  === BLOCK LINK ===
    0x270a
=== CODE BLOCK END ===

=== CODE BLOCK ADDRESS 0x270a ===
  0x270a	mov    	edx, eax
  0x270c	dec    	eax
  0x270d	mov    	dword ptr [esp], eax
  0x2710	jmp    	0x2718
  === BLOCK LINK ===
    0x2712
=== CODE BLOCK END ===

=== CODE BLOCK ADDRESS 0x2712 ===
  0x2712	xor    	edx, edx
  0x2714	dec    	eax
  0x2715	mov    	dword ptr [esp], edx
  0x2718	dec    	eax
  0x2719	mov    	eax, edx
  === BLOCK LINK ===
    0x271b
=== CODE BLOCK END ===

=== CODE BLOCK ADDRESS 0x271b ===
  0x271b	dec    	eax
  0x271c	add    	esp, 0x18
  0x271f	ret    	
  0x2720	int3   	
  0x2721	int3   	
  === BLOCK LINK ===
    0x2722
=== CODE BLOCK END ===

=== CODE BLOCK ADDRESS 0x2722 ===
  0x2722	int3   	
  0x2723	int3   	
  0x2724	int3   	
  0x2725	int3   	
  0x2726	int3   	
  === BLOCK LINK ===
    0x2727
=== CODE BLOCK END ===

=== CODE BLOCK ADDRESS 0x2727 ===
  0x2727	int3   	
  0x2728	inc    	eax
  0x2729	push   	ebx
  0x272a	dec    	eax
  0x272b	sub    	esp, 0x20
  === BLOCK LINK ===
    0x272e
=== CODE BLOCK END ===

=== CODE BLOCK ADDRESS 0x272e ===
  0x272e	mov    	ebx, ecx
  0x2730	xor    	ecx, ecx
  0x2732	call   	dword ptr [0xa30]
  === BLOCK LINK ===
    0x2738
=== CODE BLOCK END ===

=== CODE BLOCK ADDRESS 0x2738 ===
  0x2738	dec    	eax
  0x2739	test   	eax, eax
  0x273b	je     	0x2765
  === BLOCK LINK ===
    0x273d
=== CODE BLOCK END ===

=== CODE BLOCK ADDRESS 0x273d ===
  0x273d	dec    	eax
  0x273e	mov    	ecx, eax
  0x2740	call   	0x26cc
  === BLOCK LINK ===
    0x2745
=== CODE BLOCK END ===

=== CODE BLOCK ADDRESS 0x2745 ===
  0x2745	dec    	eax
  0x2746	test   	eax, eax
  0x2748	je     	0x2765
  === BLOCK LINK ===
    0x274a
=== CODE BLOCK END ===

=== CODE BLOCK ADDRESS 0x274a ===
  0x274a	mov    	ecx, 2
  0x274f	cmp    	word ptr [eax + 0x5c], cx
  0x2753	jne    	0x2759
  === BLOCK LINK ===
    0x2755
=== CODE BLOCK END ===

=== CODE BLOCK ADDRESS 0x2755 ===
  0x2755	mov    	eax, ecx
  0x2757	jmp    	0x2767
  === BLOCK LINK ===
    0x2759
=== CODE BLOCK END ===

=== CODE BLOCK ADDRESS 0x2759 ===
  0x2759	cmp    	word ptr [eax + 0x5c], 3
  0x275e	mov    	eax, 1
  0x2763	je     	0x2767
  === BLOCK LINK ===
    0x2765
=== CODE BLOCK END ===

=== CODE BLOCK ADDRESS 0x2765 ===
  0x2765	mov    	eax, ebx
  0x2767	dec    	eax
  0x2768	add    	esp, 0x20
  0x276b	pop    	ebx
  0x276c	ret    	
  === BLOCK LINK ===
    0x276d
=== CODE BLOCK END ===

=== CODE BLOCK ADDRESS 0x276d ===
  0x276d	int3   	
  0x276e	int3   	
  0x276f	int3   	
  0x2770	int3   	
  0x2771	int3   	
  === BLOCK LINK ===
    0x2772
=== CODE BLOCK END ===

=== CODE BLOCK ADDRESS 0x2772 ===
  0x2772	int3   	
  0x2773	jmp    	dword ptr [0xa3f]
  === BLOCK LINK ===
    0x2779
=== CODE BLOCK END ===

=== CODE BLOCK ADDRESS 0x2779 ===
  0x2779	int3   	
  0x277a	int3   	
  0x277b	int3   	
  0x277c	int3   	
  0x277d	int3   	
  === BLOCK LINK ===
    0x277e
=== CODE BLOCK END ===

=== CODE BLOCK ADDRESS 0x277e ===
  0x277e	int3   	
  0x277f	int3   	
  0x2780	xor    	eax, eax
  0x2782	ret    	
  0x2783	int3   	
  === BLOCK LINK ===
    0x2784
=== CODE BLOCK END ===

=== CODE BLOCK ADDRESS 0x2784 ===
  0x2784	int3   	
  0x2785	int3   	
  0x2786	int3   	
  0x2787	int3   	
  0x2788	int3   	
  === BLOCK LINK ===
    0x2789
=== CODE BLOCK END ===

=== CODE BLOCK ADDRESS 0x2789 ===
  0x2789	int3   	
  0x278a	int3   	
  0x278b	int3   	
  0x278c	int3   	
  0x278d	int3   	
  === BLOCK LINK ===
    0x278e
=== CODE BLOCK END ===

=== CODE BLOCK ADDRESS 0x278e ===
  0x278e	int3   	
  0x278f	int3   	
  0x2790	dec    	esp
  0x2791	arpl   	word ptr [ecx + 0x3c], ax
  0x2794	inc    	ebp
  === BLOCK LINK ===
    0x2795
=== CODE BLOCK END ===

=== CODE BLOCK ADDRESS 0x2795 ===
  0x2795	xor    	ecx, ecx
  0x2797	dec    	esp
  0x2798	add    	eax, ecx
  0x279a	dec    	esp
  0x279b	mov    	edx, edx
  === BLOCK LINK ===
    0x279d
=== CODE BLOCK END ===

=== CODE BLOCK ADDRESS 0x279d ===
  0x279d	inc    	ecx
  0x279e	movzx  	eax, word ptr [eax + 0x14]
  0x27a2	inc    	ebp
  0x27a3	movzx  	ebx, word ptr [eax + 6]
  0x27a7	dec    	eax
  === BLOCK LINK ===
    0x27a8
=== CODE BLOCK END ===

=== CODE BLOCK ADDRESS 0x27a8 ===
  0x27a8	add    	eax, 0x18
  0x27ab	dec    	ecx
  0x27ac	add    	eax, eax
  0x27ae	inc    	ebp
  0x27af	test   	ebx, ebx
  === BLOCK LINK ===
    0x27b1
=== CODE BLOCK END ===

=== CODE BLOCK ADDRESS 0x27b1 ===
  0x27b1	je     	0x27d1
  === BLOCK LINK ===
    0x27b3
=== CODE BLOCK END ===

=== CODE BLOCK ADDRESS 0x27b3 ===
  0x27b3	mov    	edx, dword ptr [eax + 0xc]
  0x27b6	dec    	esp
  0x27b7	cmp    	edx, edx
  0x27b9	jb     	0x27c5
  === BLOCK LINK ===
    0x27bb
=== CODE BLOCK END ===

=== CODE BLOCK ADDRESS 0x27bb ===
  0x27bb	mov    	ecx, dword ptr [eax + 8]
  0x27be	add    	ecx, edx
  0x27c0	dec    	esp
  0x27c1	cmp    	edx, ecx
  0x27c3	jb     	0x27d3
  === BLOCK LINK ===
    0x27c5
=== CODE BLOCK END ===

=== CODE BLOCK ADDRESS 0x27c5 ===
  0x27c5	inc    	ecx
  0x27c6	inc    	ecx
  0x27c8	dec    	eax
  0x27c9	add    	eax, 0x28
  0x27cc	inc    	ebp
  === BLOCK LINK ===
    0x27cd
=== CODE BLOCK END ===

=== CODE BLOCK ADDRESS 0x27cd ===
  0x27cd	cmp    	ecx, ebx
  0x27cf	jb     	0x27b3
  === BLOCK LINK ===
    0x27d1
=== CODE BLOCK END ===

=== CODE BLOCK ADDRESS 0x27d1 ===
  0x27d1	xor    	eax, eax
  0x27d3	ret    	
  0x27d4	int3   	
  0x27d5	int3   	
  0x27d6	int3   	
  === BLOCK LINK ===
    0x27d7
=== CODE BLOCK END ===

=== CODE BLOCK ADDRESS 0x27d7 ===
  0x27d7	int3   	
  0x27d8	int3   	
  0x27d9	int3   	
  0x27da	int3   	
  0x27db	int3   	
  === BLOCK LINK ===
    0x27dc
=== CODE BLOCK END ===

=== CODE BLOCK ADDRESS 0x27dc ===
  0x27dc	int3   	
  0x27dd	int3   	
  0x27de	int3   	
  0x27df	int3   	
  0x27e0	dec    	eax
  === BLOCK LINK ===
    0x27e1
=== CODE BLOCK END ===

=== CODE BLOCK ADDRESS 0x27e1 ===
  0x27e1	mov    	dword ptr [esp + 8], ebx
  0x27e5	push   	edi
  0x27e6	dec    	eax
  0x27e7	sub    	esp, 0x20
  0x27ea	dec    	eax
  === BLOCK LINK ===
    0x27eb
=== CODE BLOCK END ===

=== CODE BLOCK ADDRESS 0x27eb ===
  0x27eb	mov    	ebx, ecx
  0x27ed	dec    	eax
  0x27ee	lea    	edi, [0xffffd80c]
  0x27f4	dec    	eax
  0x27f5	mov    	ecx, edi
  === BLOCK LINK ===
    0x27f7
=== CODE BLOCK END ===

=== CODE BLOCK ADDRESS 0x27f7 ===
  0x27f7	call   	0x2840
  === BLOCK LINK ===
    0x27fc
=== CODE BLOCK END ===

=== CODE BLOCK ADDRESS 0x27fc ===
  0x27fc	test   	eax, eax
  0x27fe	je     	0x2822
  === BLOCK LINK ===
    0x2800
=== CODE BLOCK END ===

=== CODE BLOCK ADDRESS 0x2800 ===
  0x2800	dec    	eax
  0x2801	sub    	ebx, edi
  0x2803	dec    	eax
  0x2804	mov    	edx, ebx
  0x2806	dec    	eax
  === BLOCK LINK ===
    0x2807
=== CODE BLOCK END ===

=== CODE BLOCK ADDRESS 0x2807 ===
  0x2807	mov    	ecx, edi
  0x2809	call   	0x2790
  === BLOCK LINK ===
    0x280e
=== CODE BLOCK END ===

=== CODE BLOCK ADDRESS 0x280e ===
  0x280e	dec    	eax
  0x280f	test   	eax, eax
  0x2811	je     	0x2822
  === BLOCK LINK ===
    0x2813
=== CODE BLOCK END ===

=== CODE BLOCK ADDRESS 0x2813 ===
  0x2813	mov    	eax, dword ptr [eax + 0x24]
  0x2816	shr    	eax, 0x1f
  0x2819	not    	eax
  0x281b	and    	eax, 1
  0x281e	jmp    	0x2822
  === BLOCK LINK ===
    0x2820
=== CODE BLOCK END ===

=== CODE BLOCK ADDRESS 0x2820 ===
  0x2820	xor    	eax, eax
  0x2822	dec    	eax
  0x2823	mov    	ebx, dword ptr [esp + 0x30]
  0x2827	dec    	eax
  0x2828	add    	esp, 0x20
  === BLOCK LINK ===
    0x282b
=== CODE BLOCK END ===

=== CODE BLOCK ADDRESS 0x282b ===
  0x282b	pop    	edi
  0x282c	ret    	
  0x282d	int3   	
  0x282e	int3   	
  0x282f	int3   	
  === BLOCK LINK ===
    0x2830
=== CODE BLOCK END ===

=== CODE BLOCK ADDRESS 0x2830 ===
  0x2830	int3   	
  0x2831	int3   	
  0x2832	int3   	
  0x2833	int3   	
  0x2834	int3   	
  === BLOCK LINK ===
    0x2835
=== CODE BLOCK END ===

=== CODE BLOCK ADDRESS 0x2835 ===
  0x2835	int3   	
  0x2836	int3   	
  0x2837	int3   	
  0x2838	int3   	
  0x2839	int3   	
  === BLOCK LINK ===
    0x283a
=== CODE BLOCK END ===

=== CODE BLOCK ADDRESS 0x283a ===
  0x283a	int3   	
  0x283b	int3   	
  0x283c	int3   	
  0x283d	int3   	
  0x283e	int3   	
  === BLOCK LINK ===
    0x283f
=== CODE BLOCK END ===

=== CODE BLOCK ADDRESS 0x283f ===
  0x283f	int3   	
  0x2840	mov    	eax, 0x5a4d
  0x2845	cmp    	word ptr [ecx], ax
  0x2848	jne    	0x286a
  === BLOCK LINK ===
    0x284a
=== CODE BLOCK END ===

=== CODE BLOCK ADDRESS 0x284a ===
  0x284a	dec    	eax
  0x284b	arpl   	word ptr [ecx + 0x3c], ax
  0x284e	dec    	eax
  0x284f	add    	eax, ecx
  0x2851	cmp    	dword ptr [eax], 0x4550
  === BLOCK LINK ===
    0x2857
=== CODE BLOCK END ===

=== CODE BLOCK ADDRESS 0x2857 ===
  0x2857	jne    	0x286a
  === BLOCK LINK ===
    0x2859
=== CODE BLOCK END ===

=== CODE BLOCK ADDRESS 0x2859 ===
  0x2859	mov    	ecx, 0x20b
  0x285e	cmp    	word ptr [eax + 0x18], cx
  0x2862	jne    	0x286a
  === BLOCK LINK ===
    0x2864
=== CODE BLOCK END ===

=== CODE BLOCK ADDRESS 0x2864 ===
  0x2864	mov    	eax, 1
  0x2869	ret    	
  0x286a	xor    	eax, eax
  0x286c	ret    	
  0x286d	int3   	
  === BLOCK LINK ===
    0x286e
=== CODE BLOCK END ===

=== CODE BLOCK ADDRESS 0x1239 ===
  0x1239	dec    	eax
  0x123a	lea    	ecx, [esp + 0x38]
  0x123e	dec    	eax
  0x123f	call   	dword ptr [0x1ff3]
  === BLOCK LINK ===
    0x1245
=== CODE BLOCK END ===

=== CODE BLOCK ADDRESS 0x286e ===
  0x286e	int3   	
  0x286f	int3   	
  0x2870	int3   	
  0x2871	int3   	
  0x2872	int3   	
  === BLOCK LINK ===
    0x2873
=== CODE BLOCK END ===

=== CODE BLOCK ADDRESS 0x2873 ===
  0x2873	int3   	
  0x2874	dec    	eax
  0x2875	mov    	dword ptr [esp + 0x20], ebx
  0x2879	push   	ebp
  0x287a	dec    	eax
  === BLOCK LINK ===
    0x287b
=== CODE BLOCK END ===

=== CODE BLOCK ADDRESS 0x287b ===
  0x287b	mov    	ebp, esp
  0x287d	dec    	eax
  0x287e	sub    	esp, 0x20
  0x2881	dec    	eax
  0x2882	and    	dword ptr [ebp + 0x18], 0
  === BLOCK LINK ===
    0x2886
=== CODE BLOCK END ===

=== CODE BLOCK ADDRESS 0x2886 ===
  0x2886	dec    	eax
  0x2887	mov    	ebx, 0x2ddfa232
  0x288c	cdq    	
  0x288d	sub    	eax, dword ptr [eax]
  0x288f	add    	byte ptr [eax - 0x75], cl
  === BLOCK LINK ===
    0x2892
=== CODE BLOCK END ===

=== CODE BLOCK ADDRESS 0x2892 ===
  0x2892	add    	eax, 0x2771
  0x2897	dec    	eax
  0x2898	cmp    	eax, ebx
  0x289a	jne    	0x2933
  === BLOCK LINK ===
    0x28a0
=== CODE BLOCK END ===

=== CODE BLOCK ADDRESS 0x28a0 ===
  0x28a0	dec    	eax
  0x28a1	lea    	ecx, [ebp + 0x18]
  0x28a4	call   	dword ptr [0x89e]
  === BLOCK LINK ===
    0x28aa
=== CODE BLOCK END ===

=== CODE BLOCK ADDRESS 0x28aa ===
  0x28aa	dec    	eax
  0x28ab	mov    	eax, dword ptr [ebp + 0x18]
  0x28ae	dec    	eax
  0x28af	mov    	dword ptr [ebp + 0x10], eax
  0x28b2	call   	dword ptr [0x8a0]
  === BLOCK LINK ===
    0x28b8
=== CODE BLOCK END ===

=== CODE BLOCK ADDRESS 0x28b8 ===
  0x28b8	mov    	eax, eax
  0x28ba	dec    	eax
  0x28bb	xor    	dword ptr [ebp + 0x10], eax
  0x28be	call   	dword ptr [0x88c]
  === BLOCK LINK ===
    0x28c4
=== CODE BLOCK END ===

=== CODE BLOCK ADDRESS 0x28c4 ===
  0x28c4	mov    	eax, eax
  0x28c6	dec    	eax
  0x28c7	xor    	dword ptr [ebp + 0x10], eax
  0x28ca	call   	dword ptr [0x8c8]
  === BLOCK LINK ===
    0x28d0
=== CODE BLOCK END ===

=== CODE BLOCK ADDRESS 0x28d0 ===
  0x28d0	mov    	eax, eax
  0x28d2	dec    	eax
  0x28d3	shl    	eax, 0x18
  0x28d6	dec    	eax
  0x28d7	xor    	dword ptr [ebp + 0x10], eax
  === BLOCK LINK ===
    0x28da
=== CODE BLOCK END ===

=== CODE BLOCK ADDRESS 0x28da ===
  0x28da	call   	dword ptr [0x8b8]
  === BLOCK LINK ===
    0x28e0
=== CODE BLOCK END ===

=== CODE BLOCK ADDRESS 0x28e0 ===
  0x28e0	mov    	eax, eax
  0x28e2	dec    	eax
  0x28e3	lea    	ecx, [ebp + 0x10]
  0x28e6	dec    	eax
  0x28e7	xor    	eax, dword ptr [ebp + 0x10]
  === BLOCK LINK ===
    0x28ea
=== CODE BLOCK END ===

=== CODE BLOCK ADDRESS 0x28ea ===
  0x28ea	dec    	eax
  0x28eb	xor    	eax, ecx
  0x28ed	dec    	eax
  0x28ee	lea    	ecx, [ebp + 0x20]
  0x28f1	dec    	eax
  === BLOCK LINK ===
    0x28f2
=== CODE BLOCK END ===

=== CODE BLOCK ADDRESS 0x28f2 ===
  0x28f2	mov    	dword ptr [ebp + 0x10], eax
  0x28f5	call   	dword ptr [0x865]
  === BLOCK LINK ===
    0x28fb
=== CODE BLOCK END ===

=== CODE BLOCK ADDRESS 0x28fb ===
  0x28fb	mov    	eax, dword ptr [ebp + 0x20]
  0x28fe	dec    	eax
  0x28ff	mov    	ecx, 0xffffffff
  0x2904	.byte  	0xff
  0x2905	inc    	dword ptr [eax]
  === BLOCK LINK ===
    0x2907
=== CODE BLOCK END ===

=== CODE BLOCK ADDRESS 0x2907 ===
  0x2907	add    	byte ptr [eax - 0x3f], cl
  0x290a	loopne  	0x292c
  === BLOCK LINK ===
    0x290c
=== CODE BLOCK END ===

=== CODE BLOCK ADDRESS 0x290c ===
  0x290c	dec    	eax
  0x290d	xor    	eax, dword ptr [ebp + 0x20]
  0x2910	dec    	eax
  0x2911	xor    	eax, dword ptr [ebp + 0x10]
  0x2914	dec    	eax
  === BLOCK LINK ===
    0x2915
=== CODE BLOCK END ===

=== CODE BLOCK ADDRESS 0x2915 ===
  0x2915	and    	eax, ecx
  0x2917	dec    	eax
  0x2918	mov    	ecx, eax
  0x291a	dec    	eax
  0x291b	cmp    	eax, ebx
  === BLOCK LINK ===
    0x291d
=== CODE BLOCK END ===

=== CODE BLOCK ADDRESS 0x291d ===
  0x291d	jne    	0x292c
  === BLOCK LINK ===
    0x291f
=== CODE BLOCK END ===

=== CODE BLOCK ADDRESS 0x291f ===
  0x291f	dec    	eax
  0x2920	mov    	eax, 0x2ddfa233
  0x2925	cdq    	
  0x2926	sub    	eax, dword ptr [eax]
  0x2928	add    	byte ptr [eax - 0x75], cl
  === BLOCK LINK ===
    0x292b
=== CODE BLOCK END ===

=== CODE BLOCK ADDRESS 0x292b ===
  0x292b	enter  	-0x76b8, 0xd
  0x292f	aad    	0x26
  0x2931	add    	byte ptr [eax], al
  0x2933	dec    	eax
  0x2934	mov    	ebx, dword ptr [esp + 0x48]
  === BLOCK LINK ===
    0x2938
=== CODE BLOCK END ===

=== CODE BLOCK ADDRESS 0x2938 ===
  0x2938	dec    	eax
  0x2939	not    	eax
  0x293b	dec    	eax
  0x293c	mov    	dword ptr [0x26ce], eax
  0x2942	dec    	eax
  === BLOCK LINK ===
    0x2943
=== CODE BLOCK END ===

=== CODE BLOCK ADDRESS 0x2943 ===
  0x2943	add    	esp, 0x20
  0x2946	pop    	ebp
  0x2947	ret    	
  0x2948	int3   	
  0x2949	int3   	
  === BLOCK LINK ===
    0x294a
=== CODE BLOCK END ===

=== CODE BLOCK ADDRESS 0x294a ===
  0x294a	int3   	
  0x294b	int3   	
  0x294c	int3   	
  0x294d	int3   	
  0x294e	jmp    	dword ptr [0x89c]
  === BLOCK LINK ===
    0x2954
=== CODE BLOCK END ===

=== CODE BLOCK ADDRESS 0x2954 ===
  0x2954	int3   	
  0x2955	int3   	
  0x2956	int3   	
  0x2957	int3   	
  0x2958	int3   	
  === BLOCK LINK ===
    0x2959
=== CODE BLOCK END ===

=== CODE BLOCK ADDRESS 0x2959 ===
  0x2959	int3   	
  0x295a	jmp    	dword ptr [0x8a8]
  === BLOCK LINK ===
    0x2960
=== CODE BLOCK END ===

=== CODE BLOCK ADDRESS 0x2960 ===
  0x2960	int3   	
  0x2961	int3   	
  0x2962	int3   	
  0x2963	int3   	
  0x2964	int3   	
  === BLOCK LINK ===
    0x2965
=== CODE BLOCK END ===

=== CODE BLOCK ADDRESS 0x2965 ===
  0x2965	int3   	
  0x2966	int3   	
  0x2967	int3   	
  0x2968	int3   	
  0x2969	int3   	
  === BLOCK LINK ===
    0x296a
=== CODE BLOCK END ===

=== CODE BLOCK ADDRESS 0x296a ===
  0x296a	int3   	
  0x296b	int3   	
  0x296c	int3   	
  0x296d	int3   	
  0x296e	int3   	
  === BLOCK LINK ===
    0x296f
=== CODE BLOCK END ===

=== CODE BLOCK ADDRESS 0x296f ===
  0x296f	int3   	
  0x2970	ret    	0
  0x2973	int3   	
  0x2974	int3   	
  0x2975	int3   	
  === BLOCK LINK ===
    0x2976
=== CODE BLOCK END ===

=== CODE BLOCK ADDRESS 0x2976 ===
  0x2976	int3   	
  0x2977	int3   	
  0x2978	int3   	
  0x2979	int3   	
  0x297a	int3   	
  === BLOCK LINK ===
    0x297b
=== CODE BLOCK END ===

=== CODE BLOCK ADDRESS 0x297b ===
  0x297b	int3   	
  0x297c	int3   	
  0x297d	int3   	
  0x297e	int3   	
  0x297f	int3   	
  === BLOCK LINK ===
    0x2980
=== CODE BLOCK END ===

=== CODE BLOCK ADDRESS 0x2980 ===
  0x2980	int3   	
  0x2981	int3   	
  0x2982	int3   	
  0x2983	int3   	
  0x2984	int3   	
  === BLOCK LINK ===
    0x2985
=== CODE BLOCK END ===

=== CODE BLOCK ADDRESS 0x2985 ===
  0x2985	int3   	
  0x2986	int3   	
  0x2987	int3   	
  0x2988	dec    	eax
  0x2989	sub    	esp, 0x28
  === BLOCK LINK ===
    0x298c
=== CODE BLOCK END ===

=== CODE BLOCK ADDRESS 0x298c ===
  0x298c	dec    	ebp
  0x298d	mov    	eax, dword ptr [ecx + 0x38]
  0x2990	dec    	eax
  0x2991	mov    	ecx, edx
  0x2993	dec    	ecx
  === BLOCK LINK ===
    0x2994
=== CODE BLOCK END ===

=== CODE BLOCK ADDRESS 0x2994 ===
  0x2994	mov    	edx, ecx
  0x2996	call   	0x29ac
  === BLOCK LINK ===
    0x299b
=== CODE BLOCK END ===

=== CODE BLOCK ADDRESS 0x299b ===
  0x299b	mov    	eax, 1
  0x29a0	dec    	eax
  0x29a1	add    	esp, 0x28
  0x29a4	ret    	
  0x29a5	int3   	
  === BLOCK LINK ===
    0x29a6
=== CODE BLOCK END ===

=== CODE BLOCK ADDRESS 0x29a6 ===
  0x29a6	int3   	
  0x29a7	int3   	
  0x29a8	int3   	
  0x29a9	int3   	
  0x29aa	int3   	
  === BLOCK LINK ===
    0x29ab
=== CODE BLOCK END ===

=== CODE BLOCK ADDRESS 0x29ab ===
  0x29ab	int3   	
  0x29ac	inc    	eax
  0x29ad	push   	ebx
  0x29ae	inc    	ebp
  0x29af	mov    	ebx, dword ptr [eax]
  === BLOCK LINK ===
    0x29b1
=== CODE BLOCK END ===

=== CODE BLOCK ADDRESS 0x29b1 ===
  0x29b1	dec    	eax
  0x29b2	mov    	ebx, edx
  0x29b4	inc    	ecx
  0x29b5	and    	ebx, 0xfffffff8
  0x29b8	dec    	esp
  === BLOCK LINK ===
    0x29b9
=== CODE BLOCK END ===

=== CODE BLOCK ADDRESS 0x29b9 ===
  0x29b9	mov    	ecx, ecx
  0x29bb	inc    	ecx
  0x29bc	test   	byte ptr [eax], 4
  0x29bf	dec    	esp
  0x29c0	mov    	edx, ecx
  === BLOCK LINK ===
    0x29c2
=== CODE BLOCK END ===

=== CODE BLOCK ADDRESS 0x29c2 ===
  0x29c2	je     	0x29d7
  === BLOCK LINK ===
    0x29c4
=== CODE BLOCK END ===

=== CODE BLOCK ADDRESS 0x29c4 ===
  0x29c4	inc    	ecx
  0x29c5	mov    	eax, dword ptr [eax + 8]
  0x29c8	dec    	ebp
  0x29c9	arpl   	word ptr [eax + 4], dx
  0x29cc	neg    	eax
  === BLOCK LINK ===
    0x29ce
=== CODE BLOCK END ===

=== CODE BLOCK ADDRESS 0x29ce ===
  0x29ce	dec    	esp
  0x29cf	add    	edx, ecx
  0x29d1	dec    	eax
  0x29d2	arpl   	ax, cx
  0x29d4	dec    	esp
  === BLOCK LINK ===
    0x29d5
=== CODE BLOCK END ===

=== CODE BLOCK ADDRESS 0x29d5 ===
  0x29d5	and    	edx, ecx
  0x29d7	dec    	ecx
  0x29d8	arpl   	bx, ax
  0x29da	dec    	edx
  0x29db	mov    	edx, dword ptr [eax + edx]
  === BLOCK LINK ===
    0x29de
=== CODE BLOCK END ===

=== CODE BLOCK ADDRESS 0x29de ===
  0x29de	dec    	eax
  0x29df	mov    	eax, dword ptr [ebx + 0x10]
  0x29e2	mov    	ecx, dword ptr [eax + 8]
  0x29e5	dec    	eax
  0x29e6	mov    	eax, dword ptr [ebx + 8]
  === BLOCK LINK ===
    0x29e9
=== CODE BLOCK END ===

=== CODE BLOCK ADDRESS 0x29e9 ===
  0x29e9	test   	byte ptr [ecx + eax + 3], 0xf
  0x29ee	je     	0x29fb
  === BLOCK LINK ===
    0x29f0
=== CODE BLOCK END ===

=== CODE BLOCK ADDRESS 0x29f0 ===
  0x29f0	movzx  	eax, byte ptr [ecx + eax + 3]
  0x29f5	and    	eax, 0xfffffff0
  0x29f8	dec    	esp
  0x29f9	add    	ecx, eax
  0x29fb	dec    	esp
  === BLOCK LINK ===
    0x29fc
=== CODE BLOCK END ===

=== CODE BLOCK ADDRESS 0x29fc ===
  0x29fc	xor    	ecx, edx
  0x29fe	dec    	ecx
  0x29ff	mov    	ecx, ecx
  0x2a01	pop    	ebx
  0x2a02	jmp    	0x2480
  === BLOCK LINK ===
    0x2a07
=== CODE BLOCK END ===

=== CODE BLOCK ADDRESS 0x2a07 ===
  0x2a07	int3   	
  0x2a08	int3   	
  0x2a09	int3   	
  0x2a0a	int3   	
  0x2a0b	int3   	
  === BLOCK LINK ===
    0x2a0c
=== CODE BLOCK END ===

=== CODE BLOCK ADDRESS 0x2a0c ===
  0x2a0c	int3   	
  0x2a0d	int3   	
  0x2a0e	int3   	
  0x2a0f	int3   	
  0x2a10	int3   	
  === BLOCK LINK ===
    0x2a11
=== CODE BLOCK END ===

=== CODE BLOCK ADDRESS 0x2a11 ===
  0x2a11	int3   	
  0x2a12	int3   	
  0x2a13	int3   	
  0x2a14	int3   	
  0x2a15	int3   	
  === BLOCK LINK ===
    0x2a16
=== CODE BLOCK END ===

=== CODE BLOCK ADDRESS 0x2a16 ===
  0x2a16	nop    	word ptr [eax + eax]
  0x2a20	jmp    	eax
  === BLOCK LINK ===
    0x2a22
=== CODE BLOCK END ===

=== CODE BLOCK ADDRESS 0x2a22 ===
  0x2a22	int3   	
  0x2a23	int3   	
  0x2a24	int3   	
  0x2a25	int3   	
  0x2a26	int3   	
  === BLOCK LINK ===
    0x2a27
=== CODE BLOCK END ===

=== CODE BLOCK ADDRESS 0x2a27 ===
  0x2a27	int3   	
  0x2a28	int3   	
  0x2a29	int3   	
  0x2a2a	int3   	
  0x2a2b	int3   	
  === BLOCK LINK ===
    0x2a2c
=== CODE BLOCK END ===

=== CODE BLOCK ADDRESS 0x2a2c ===
  0x2a2c	int3   	
  0x2a2d	int3   	
  0x2a2e	int3   	
  0x2a2f	int3   	
  0x2a30	inc    	eax
  === BLOCK LINK ===
    0x2a31
=== CODE BLOCK END ===

=== CODE BLOCK ADDRESS 0x2a31 ===
  0x2a31	push   	ebp
  0x2a32	dec    	eax
  0x2a33	sub    	esp, 0x20
  0x2a36	dec    	eax
  0x2a37	mov    	ebp, edx
  === BLOCK LINK ===
    0x2a39
=== CODE BLOCK END ===

=== CODE BLOCK ADDRESS 0x2a39 ===
  0x2a39	dec    	eax
  0x2a3a	mov    	eax, dword ptr [ecx]
  0x2a3c	dec    	eax
  0x2a3d	mov    	edx, ecx
  0x2a3f	mov    	ecx, dword ptr [eax]
  === BLOCK LINK ===
    0x2a41
=== CODE BLOCK END ===

=== CODE BLOCK ADDRESS 0x2a41 ===
  0x2a41	call   	0x26be
  === BLOCK LINK ===
    0x2a46
=== CODE BLOCK END ===

=== CODE BLOCK ADDRESS 0x2a46 ===
  0x2a46	nop    	
  0x2a47	dec    	eax
  0x2a48	add    	esp, 0x20
  0x2a4b	pop    	ebp
  0x2a4c	ret    	
  === BLOCK LINK ===
    0x2a4d
=== CODE BLOCK END ===

=== CODE BLOCK ADDRESS 0x2a4d ===
  0x2a4d	int3   	
  0x2a4e	int3   	
  0x2a4f	int3   	
  0x2a50	int3   	
  0x2a51	int3   	
  === BLOCK LINK ===
    0x2a52
=== CODE BLOCK END ===

=== CODE BLOCK ADDRESS 0x2a52 ===
  0x2a52	int3   	
  0x2a53	int3   	
  0x2a54	int3   	
  0x2a55	int3   	
  0x2a56	int3   	
  === BLOCK LINK ===
    0x2a57
=== CODE BLOCK END ===

=== CODE BLOCK ADDRESS 0x2a57 ===
  0x2a57	int3   	
  0x2a58	int3   	
  0x2a59	int3   	
  0x2a5a	int3   	
  0x2a5b	int3   	
  === BLOCK LINK ===
    0x2a5c
=== CODE BLOCK END ===

=== CODE BLOCK ADDRESS 0x2a5c ===
  0x2a5c	int3   	
  0x2a5d	int3   	
  0x2a5e	int3   	
  0x2a5f	int3   	
  0x2a60	inc    	eax
  === BLOCK LINK ===
    0x2a61
=== CODE BLOCK END ===

=== CODE BLOCK ADDRESS 0x2a61 ===
  0x2a61	push   	ebp
  0x2a62	dec    	eax
  0x2a63	sub    	esp, 0x20
  0x2a66	dec    	eax
  0x2a67	mov    	ebp, edx
  === BLOCK LINK ===
    0x2a69
=== CODE BLOCK END ===

=== CODE BLOCK ADDRESS 0x2a69 ===
  0x2a69	dec    	eax
  0x2a6a	mov    	eax, dword ptr [ecx]
  0x2a6c	xor    	ecx, ecx
  0x2a6e	cmp    	dword ptr [eax], 0xc0000005
  0x2a74	sete   	cl
  === BLOCK LINK ===
    0x2a77
=== CODE BLOCK END ===

=== CODE BLOCK ADDRESS 0x2a77 ===
  0x2a77	mov    	eax, ecx
  0x2a79	dec    	eax
  0x2a7a	add    	esp, 0x20
  0x2a7d	pop    	ebp
  0x2a7e	ret    	
  === BLOCK LINK ===
    0x2a7f
=== CODE BLOCK END ===

=== CODE BLOCK ADDRESS 0x2a7f ===
  0x2a7f	int3   	
  0x2a80	add    	byte ptr [eax], al
  0x2a82	add    	byte ptr [eax], al
  0x2a84	add    	byte ptr [eax], al
  0x2a86	add    	byte ptr [eax], al
  === BLOCK LINK ===
    0x2a88
=== CODE BLOCK END ===

=== CODE BLOCK ADDRESS 0x2a88 ===
  0x2a88	add    	byte ptr [eax], al
  0x2a8a	add    	byte ptr [eax], al
  0x2a8c	add    	byte ptr [eax], al
  0x2a8e	add    	byte ptr [eax], al
  0x2a90	add    	byte ptr [eax], al
  === BLOCK LINK ===
    0x2a92
=== CODE BLOCK END ===

=== CODE BLOCK ADDRESS 0x2a92 ===
  0x2a92	add    	byte ptr [eax], al
  0x2a94	add    	byte ptr [eax], al
  0x2a96	add    	byte ptr [eax], al
  0x2a98	add    	byte ptr [eax], al
  0x2a9a	add    	byte ptr [eax], al
  === BLOCK LINK ===
    0x2a9c
=== CODE BLOCK END ===

=== CODE BLOCK ADDRESS 0x2a9c ===
  0x2a9c	add    	byte ptr [eax], al
  0x2a9e	add    	byte ptr [eax], al
  0x2aa0	add    	byte ptr [eax], al
  0x2aa2	add    	byte ptr [eax], al
  0x2aa4	add    	byte ptr [eax], al
  === BLOCK LINK ===
    0x2aa6
=== CODE BLOCK END ===

=== CODE BLOCK ADDRESS 0x2aa6 ===
  0x2aa6	add    	byte ptr [eax], al
  0x2aa8	add    	byte ptr [eax], al
  0x2aaa	add    	byte ptr [eax], al
  0x2aac	add    	byte ptr [eax], al
  0x2aae	add    	byte ptr [eax], al
  === BLOCK LINK ===
    0x2ab0
=== CODE BLOCK END ===

=== CODE BLOCK ADDRESS 0x2ab0 ===
  0x2ab0	add    	byte ptr [eax], al
  0x2ab2	add    	byte ptr [eax], al
  0x2ab4	add    	byte ptr [eax], al
  0x2ab6	add    	byte ptr [eax], al
  0x2ab8	add    	byte ptr [eax], al
  === BLOCK LINK ===
    0x2aba
=== CODE BLOCK END ===

=== CODE BLOCK ADDRESS 0x2aba ===
  0x2aba	add    	byte ptr [eax], al
  0x2abc	add    	byte ptr [eax], al
  0x2abe	add    	byte ptr [eax], al
  0x2ac0	add    	byte ptr [eax], al
  0x2ac2	add    	byte ptr [eax], al
  === BLOCK LINK ===
    0x2ac4
=== CODE BLOCK END ===

=== CODE BLOCK ADDRESS 0x2ac4 ===
  0x2ac4	add    	byte ptr [eax], al
  0x2ac6	add    	byte ptr [eax], al
  0x2ac8	add    	byte ptr [eax], al
  0x2aca	add    	byte ptr [eax], al
  0x2acc	add    	byte ptr [eax], al
  === BLOCK LINK ===
    0x2ace
=== CODE BLOCK END ===

=== CODE BLOCK ADDRESS 0x2ace ===
  0x2ace	add    	byte ptr [eax], al
  0x2ad0	add    	byte ptr [eax], al
  0x2ad2	add    	byte ptr [eax], al
  0x2ad4	add    	byte ptr [eax], al
  0x2ad6	add    	byte ptr [eax], al
  === BLOCK LINK ===
    0x2ad8
=== CODE BLOCK END ===

=== CODE BLOCK ADDRESS 0x2ad8 ===
  0x2ad8	add    	byte ptr [eax], al
  0x2ada	add    	byte ptr [eax], al
  0x2adc	add    	byte ptr [eax], al
  0x2ade	add    	byte ptr [eax], al
  0x2ae0	add    	byte ptr [eax], al
  === BLOCK LINK ===
    0x2ae2
=== CODE BLOCK END ===

=== CODE BLOCK ADDRESS 0x2ae2 ===
  0x2ae2	add    	byte ptr [eax], al
  0x2ae4	add    	byte ptr [eax], al
  0x2ae6	add    	byte ptr [eax], al
  0x2ae8	add    	byte ptr [eax], al
  0x2aea	add    	byte ptr [eax], al
  === BLOCK LINK ===
    0x2aec
=== CODE BLOCK END ===

=== CODE BLOCK ADDRESS 0x2aec ===
  0x2aec	add    	byte ptr [eax], al
  0x2aee	add    	byte ptr [eax], al
  0x2af0	add    	byte ptr [eax], al
  0x2af2	add    	byte ptr [eax], al
  0x2af4	add    	byte ptr [eax], al
  === BLOCK LINK ===
    0x2af6
=== CODE BLOCK END ===

=== CODE BLOCK ADDRESS 0x2af6 ===
  0x2af6	add    	byte ptr [eax], al
  0x2af8	add    	byte ptr [eax], al
  0x2afa	add    	byte ptr [eax], al
  0x2afc	add    	byte ptr [eax], al
  0x2afe	add    	byte ptr [eax], al
  === BLOCK LINK ===
    0x2b00
=== CODE BLOCK END ===

=== CODE BLOCK ADDRESS 0x2b00 ===
  0x2b00	add    	byte ptr [eax], al
  0x2b02	add    	byte ptr [eax], al
  0x2b04	add    	byte ptr [eax], al
  0x2b06	add    	byte ptr [eax], al
  0x2b08	add    	byte ptr [eax], al
  === BLOCK LINK ===
    0x2b0a
=== CODE BLOCK END ===

=== CODE BLOCK ADDRESS 0x2b0a ===
  0x2b0a	add    	byte ptr [eax], al
  0x2b0c	add    	byte ptr [eax], al
  0x2b0e	add    	byte ptr [eax], al
  0x2b10	add    	byte ptr [eax], al
  0x2b12	add    	byte ptr [eax], al
  === BLOCK LINK ===
    0x2b14
=== CODE BLOCK END ===

=== CODE BLOCK ADDRESS 0x2b14 ===
  0x2b14	add    	byte ptr [eax], al
  0x2b16	add    	byte ptr [eax], al
  0x2b18	add    	byte ptr [eax], al
  0x2b1a	add    	byte ptr [eax], al
  0x2b1c	add    	byte ptr [eax], al
  === BLOCK LINK ===
    0x2b1e
=== CODE BLOCK END ===

=== CODE BLOCK ADDRESS 0x2b1e ===
  0x2b1e	add    	byte ptr [eax], al
  0x2b20	add    	byte ptr [eax], al
  0x2b22	add    	byte ptr [eax], al
  0x2b24	add    	byte ptr [eax], al
  0x2b26	add    	byte ptr [eax], al
  === BLOCK LINK ===
    0x2b28
=== CODE BLOCK END ===

=== CODE BLOCK ADDRESS 0x2b28 ===
  0x2b28	add    	byte ptr [eax], al
  0x2b2a	add    	byte ptr [eax], al
  0x2b2c	add    	byte ptr [eax], al
  0x2b2e	add    	byte ptr [eax], al
  0x2b30	add    	byte ptr [eax], al
  === BLOCK LINK ===
    0x2b32
=== CODE BLOCK END ===

=== CODE BLOCK ADDRESS 0x2b32 ===
  0x2b32	add    	byte ptr [eax], al
  0x2b34	add    	byte ptr [eax], al
  0x2b36	add    	byte ptr [eax], al
  0x2b38	add    	byte ptr [eax], al
  0x2b3a	add    	byte ptr [eax], al
  === BLOCK LINK ===
    0x2b3c
=== CODE BLOCK END ===

=== CODE BLOCK ADDRESS 0x2b3c ===
  0x2b3c	add    	byte ptr [eax], al
  0x2b3e	add    	byte ptr [eax], al
  0x2b40	add    	byte ptr [eax], al
  0x2b42	add    	byte ptr [eax], al
  0x2b44	add    	byte ptr [eax], al
  === BLOCK LINK ===
    0x2b46
=== CODE BLOCK END ===

=== CODE BLOCK ADDRESS 0x2b46 ===
  0x2b46	add    	byte ptr [eax], al
  0x2b48	add    	byte ptr [eax], al
  0x2b4a	add    	byte ptr [eax], al
  0x2b4c	add    	byte ptr [eax], al
  0x2b4e	add    	byte ptr [eax], al
  === BLOCK LINK ===
    0x2b50
=== CODE BLOCK END ===

=== CODE BLOCK ADDRESS 0x2b50 ===
  0x2b50	add    	byte ptr [eax], al
  0x2b52	add    	byte ptr [eax], al
  0x2b54	add    	byte ptr [eax], al
  0x2b56	add    	byte ptr [eax], al
  0x2b58	add    	byte ptr [eax], al
  === BLOCK LINK ===
    0x2b5a
=== CODE BLOCK END ===

=== CODE BLOCK ADDRESS 0x2b5a ===
  0x2b5a	add    	byte ptr [eax], al
  0x2b5c	add    	byte ptr [eax], al
  0x2b5e	add    	byte ptr [eax], al
  0x2b60	add    	byte ptr [eax], al
  0x2b62	add    	byte ptr [eax], al
  === BLOCK LINK ===
    0x2b64
=== CODE BLOCK END ===

=== CODE BLOCK ADDRESS 0x2b64 ===
  0x2b64	add    	byte ptr [eax], al
  0x2b66	add    	byte ptr [eax], al
  0x2b68	add    	byte ptr [eax], al
  0x2b6a	add    	byte ptr [eax], al
  0x2b6c	add    	byte ptr [eax], al
  === BLOCK LINK ===
    0x2b6e
=== CODE BLOCK END ===

=== CODE BLOCK ADDRESS 0x2b6e ===
  0x2b6e	add    	byte ptr [eax], al
  0x2b70	add    	byte ptr [eax], al
  0x2b72	add    	byte ptr [eax], al
  0x2b74	add    	byte ptr [eax], al
  0x2b76	add    	byte ptr [eax], al
  === BLOCK LINK ===
    0x2b78
=== CODE BLOCK END ===

=== CODE BLOCK ADDRESS 0x2b78 ===
  0x2b78	add    	byte ptr [eax], al
  0x2b7a	add    	byte ptr [eax], al
  0x2b7c	add    	byte ptr [eax], al
  0x2b7e	add    	byte ptr [eax], al
  0x2b80	add    	byte ptr [eax], al
  === BLOCK LINK ===
    0x2b82
=== CODE BLOCK END ===

=== CODE BLOCK ADDRESS 0x2b82 ===
  0x2b82	add    	byte ptr [eax], al
  0x2b84	add    	byte ptr [eax], al
  0x2b86	add    	byte ptr [eax], al
  0x2b88	add    	byte ptr [eax], al
  0x2b8a	add    	byte ptr [eax], al
  === BLOCK LINK ===
    0x2b8c
=== CODE BLOCK END ===

=== CODE BLOCK ADDRESS 0x2b8c ===
  0x2b8c	add    	byte ptr [eax], al
  0x2b8e	add    	byte ptr [eax], al
  0x2b90	add    	byte ptr [eax], al
  0x2b92	add    	byte ptr [eax], al
  0x2b94	add    	byte ptr [eax], al
  === BLOCK LINK ===
    0x2b96
=== CODE BLOCK END ===

=== CODE BLOCK ADDRESS 0x2b96 ===
  0x2b96	add    	byte ptr [eax], al
  0x2b98	add    	byte ptr [eax], al
  0x2b9a	add    	byte ptr [eax], al
  0x2b9c	add    	byte ptr [eax], al
  0x2b9e	add    	byte ptr [eax], al
  === BLOCK LINK ===
    0x2ba0
=== CODE BLOCK END ===

=== CODE BLOCK ADDRESS 0x2ba0 ===
  0x2ba0	add    	byte ptr [eax], al
  0x2ba2	add    	byte ptr [eax], al
  0x2ba4	add    	byte ptr [eax], al
  0x2ba6	add    	byte ptr [eax], al
  0x2ba8	add    	byte ptr [eax], al
  === BLOCK LINK ===
    0x2baa
=== CODE BLOCK END ===

=== CODE BLOCK ADDRESS 0x2baa ===
  0x2baa	add    	byte ptr [eax], al
  0x2bac	add    	byte ptr [eax], al
  0x2bae	add    	byte ptr [eax], al
  0x2bb0	add    	byte ptr [eax], al
  0x2bb2	add    	byte ptr [eax], al
  === BLOCK LINK ===
    0x2bb4
=== CODE BLOCK END ===

=== CODE BLOCK ADDRESS 0x2bb4 ===
  0x2bb4	add    	byte ptr [eax], al
  0x2bb6	add    	byte ptr [eax], al
  0x2bb8	add    	byte ptr [eax], al
  0x2bba	add    	byte ptr [eax], al
  0x2bbc	add    	byte ptr [eax], al
  === BLOCK LINK ===
    0x2bbe
=== CODE BLOCK END ===

=== CODE BLOCK ADDRESS 0x2bbe ===
  0x2bbe	add    	byte ptr [eax], al
  0x2bc0	add    	byte ptr [eax], al
  0x2bc2	add    	byte ptr [eax], al
  0x2bc4	add    	byte ptr [eax], al
  0x2bc6	add    	byte ptr [eax], al
  === BLOCK LINK ===
    0x2bc8
=== CODE BLOCK END ===

=== CODE BLOCK ADDRESS 0x2bc8 ===
  0x2bc8	add    	byte ptr [eax], al
  0x2bca	add    	byte ptr [eax], al
  0x2bcc	add    	byte ptr [eax], al
  0x2bce	add    	byte ptr [eax], al
  0x2bd0	add    	byte ptr [eax], al
  === BLOCK LINK ===
    0x2bd2
=== CODE BLOCK END ===

=== CODE BLOCK ADDRESS 0x2bd2 ===
  0x2bd2	add    	byte ptr [eax], al
  0x2bd4	add    	byte ptr [eax], al
  0x2bd6	add    	byte ptr [eax], al
  0x2bd8	add    	byte ptr [eax], al
  0x2bda	add    	byte ptr [eax], al
  === BLOCK LINK ===
    0x2bdc
=== CODE BLOCK END ===

=== CODE BLOCK ADDRESS 0x2bdc ===
  0x2bdc	add    	byte ptr [eax], al
  0x2bde	add    	byte ptr [eax], al
  0x2be0	add    	byte ptr [eax], al
  0x2be2	add    	byte ptr [eax], al
  0x2be4	add    	byte ptr [eax], al
  === BLOCK LINK ===
    0x2be6
=== CODE BLOCK END ===

=== CODE BLOCK ADDRESS 0x2be6 ===
  0x2be6	add    	byte ptr [eax], al
  0x2be8	add    	byte ptr [eax], al
  0x2bea	add    	byte ptr [eax], al
  0x2bec	add    	byte ptr [eax], al
  0x2bee	add    	byte ptr [eax], al
  === BLOCK LINK ===
    0x2bf0
=== CODE BLOCK END ===

=== CODE BLOCK ADDRESS 0x2bf0 ===
  0x2bf0	add    	byte ptr [eax], al
  0x2bf2	add    	byte ptr [eax], al
  0x2bf4	add    	byte ptr [eax], al
  0x2bf6	add    	byte ptr [eax], al
  0x2bf8	add    	byte ptr [eax], al
  === BLOCK LINK ===
    0x2bfa
=== CODE BLOCK END ===

=== CODE BLOCK ADDRESS 0x2bfa ===
  0x2bfa	add    	byte ptr [eax], al
  0x2bfc	add    	byte ptr [eax], al
=== CODE BLOCK END ===

=== DATA BLOCK ADDRESS 0x3000 ===
  0x3000	50 50 00 40 01 00 00 00 f0 50 00 40 01 00 00 00 	PP0@00000P0@0000
  0x3010	18 01 00 00 00 00 00 00 00 00 00 00 00 00 00 00 	0000000000000000
  0x3020	00 00 00 00 00 00 00 00 00 00 00 00 00 00 00 00 	0000000000000000
  0x3030	00 00 00 00 00 00 00 00 00 00 00 00 00 00 00 00 	0000000000000000
  0x3040	00 00 00 00 00 00 00 00 00 00 00 00 00 00 00 00 	0000000000000000
  0x3050	00 00 00 00 00 00 00 00 00 00 00 00 00 00 00 00 	0000000000000000
  0x3060	00 00 00 00 00 00 00 00 08 50 00 40 01 00 00 00 	000000000P0@0000
  0x3070	00 00 00 00 00 00 00 00 00 00 00 00 00 00 00 00 	0000000000000000
  0x3080	e0 33 00 40 01 00 00 00 e8 33 00 40 01 00 00 00 	030@0000030@0000
  0x3090	34 34 00 40 01 00 00 00 08 00 00 00 00 00 00 00 	440@000000000000
  0x30a0	00 75 41 00 00 00 00 00 00 00 00 00 00 00 00 00 	0uA0000000000000
  0x30b0	00 00 00 00 00 00 00 00 00 00 00 00 00 00 00 00 	0000000000000000
  0x30c0	00 00 00 00 00 00 00 00 00 00 00 00 00 00 00 00 	0000000000000000
  0x30d0	00 00 00 00 00 00 00 00 00 00 00 00 00 00 00 00 	0000000000000000
  0x30e0	00 00 00 00 00 00 00 00 00 00 00 00 00 00 00 00 	0000000000000000
  0x30f0	00 00 00 00 00 00 00 00 00 00 00 00 00 00 00 00 	0000000000000000
  0x3100	00 00 00 00 00 00 00 00 00 00 00 00 00 00 00 00 	0000000000000000
  0x3110	00 00 00 00 00 00 00 00 28 34 00 40 01 00 00 00 	00000000(40@0000
  0x3120	03 00 00 00 00 00 00 00 b0 3b 00 00 00 00 00 00 	000000000;000000
  0x3130	c2 3b 00 00 00 00 00 00 d2 3b 00 00 00 00 00 00 	0;0000000;000000
  0x3140	e6 3b 00 00 00 00 00 00 2a 45 00 00 00 00 00 00 	0;000000*E000000
  0x3150	14 45 00 00 00 00 00 00 fe 44 00 00 00 00 00 00 	0E0000000D000000
  0x3160	e4 44 00 00 00 00 00 00 d0 44 00 00 00 00 00 00 	0D0000000D000000
  0x3170	bc 44 00 00 00 00 00 00 a8 44 00 00 00 00 00 00 	0D0000000D000000
  0x3180	8a 44 00 00 00 00 00 00 6e 44 00 00 00 00 00 00 	0D000000nD000000
  0x3190	66 44 00 00 00 00 00 00 44 45 00 00 00 00 00 00 	fD000000DE000000
  0x31a0	00 00 00 00 00 00 00 00 a4 3c 00 00 00 00 00 00 	000000000<000000
  0x31b0	b0 3c 00 00 00 00 00 00 18 3c 00 00 00 00 00 00 	0<0000000<000000
  0x31c0	26 3c 00 00 00 00 00 00 36 3c 00 00 00 00 00 00 	&<0000006<000000
  0x31d0	48 3c 00 00 00 00 00 00 50 3c 00 00 00 00 00 00 	H<000000P<000000
  0x31e0	58 3c 00 00 00 00 00 00 62 3c 00 00 00 00 00 00 	X<000000b<000000
  0x31f0	76 3c 00 00 00 00 00 00 9a 3c 00 00 00 00 00 00 	v<0000000<000000
  0x3200	0a 3c 00 00 00 00 00 00 82 3c 00 00 00 00 00 00 	0<0000000<000000
  0x3210	00 00 00 00 00 00 00 00 2e 44 00 00 00 00 00 00 	00000000.D000000
  0x3220	1a 44 00 00 00 00 00 00 0c 44 00 00 00 00 00 00 	0D0000000D000000
  0x3230	ec 43 00 00 00 00 00 00 d4 43 00 00 00 00 00 00 	0C0000000C000000
  0x3240	48 44 00 00 00 00 00 00 00 00 00 00 00 00 00 00 	HD00000000000000
  0x3250	3c 3f 00 00 00 00 00 00 5c 3f 00 00 00 00 00 00 	<?0000000?000000
  0x3260	88 3f 00 00 00 00 00 00 9e 3f 00 00 00 00 00 00 	0?0000000?000000
  0x3270	d0 3f 00 00 00 00 00 00 0c 40 00 00 00 00 00 00 	0?0000000@000000
  0x3280	c8 3d 00 00 00 00 00 00 7c 40 00 00 00 00 00 00 	0=000000|@000000
  0x3290	ae 40 00 00 00 00 00 00 e6 40 00 00 00 00 00 00 	0@0000000@000000
  0x32a0	1a 41 00 00 00 00 00 00 50 41 00 00 00 00 00 00 	0A000000PA000000
  0x32b0	ac 3d 00 00 00 00 00 00 94 41 00 00 00 00 00 00 	0=0000000A000000
  0x32c0	c0 41 00 00 00 00 00 00 de 41 00 00 00 00 00 00 	0A0000000A000000
  0x32d0	fc 41 00 00 00 00 00 00 fe 3e 00 00 00 00 00 00 	0A0000000>000000
  0x32e0	34 42 00 00 00 00 00 00 48 42 00 00 00 00 00 00 	4B000000HB000000
  0x32f0	68 42 00 00 00 00 00 00 86 42 00 00 00 00 00 00 	hB0000000B000000
  0x3300	b0 42 00 00 00 00 00 00 d2 42 00 00 00 00 00 00 	0B0000000B000000
  0x3310	fa 42 00 00 00 00 00 00 1e 43 00 00 00 00 00 00 	0B0000000C000000
  0x3320	42 43 00 00 00 00 00 00 58 43 00 00 00 00 00 00 	BC000000XC000000
  0x3330	88 43 00 00 00 00 00 00 aa 43 00 00 00 00 00 00 	0C0000000C000000
  0x3340	82 3d 00 00 00 00 00 00 e8 3e 00 00 00 00 00 00 	0=0000000>000000
  0x3350	cc 3e 00 00 00 00 00 00 b0 3e 00 00 00 00 00 00 	0>0000000>000000
  0x3360	86 3e 00 00 00 00 00 00 6a 3e 00 00 00 00 00 00 	0>000000j>000000
  0x3370	4c 3e 00 00 00 00 00 00 2e 3e 00 00 00 00 00 00 	L>000000.>000000
  0x3380	10 42 00 00 00 00 00 00 6e 3d 00 00 00 00 00 00 	0B000000n=000000
  0x3390	5a 3d 00 00 00 00 00 00 3a 3d 00 00 00 00 00 00 	Z=000000:=000000
  0x33a0	18 3d 00 00 00 00 00 00 fc 3c 00 00 00 00 00 00 	0=0000000<000000
  0x33b0	e6 3c 00 00 00 00 00 00 d0 3c 00 00 00 00 00 00 	0<0000000<000000
  0x33c0	fa 3d 00 00 00 00 00 00 72 41 00 00 00 00 00 00 	0=000000rA000000
  0x33d0	4c 40 00 00 00 00 00 00 00 00 00 00 00 00 00 00 	L@00000000000000
  0x33e0	70 29 00 40 01 00 00 00 20 2a 00 40 01 00 00 00 	p)0@0000 *0@0000
  0x33f0	00 00 00 00 00 00 00 00 30 22 00 40 01 00 00 00 	000000000"0@0000
  0x3400	00 00 00 00 00 00 00 00 00 00 00 00 00 00 00 00 	0000000000000000
  0x3410	50 21 00 40 01 00 00 00 a0 26 00 40 01 00 00 00 	P!0@00000&0@0000
  0x3420	00 00 00 00 00 00 00 00 fb 23 00 00 12 27 00 00 	000000000#000'00
  0x3430	20 28 00 00 50 21 00 00 30 22 00 00 50 24 00 00 	 (00P!000"00P$00
  0x3440	e0 24 00 00 60 26 00 00 a0 26 00 00 80 27 00 00 	0$00`&000&000'00
  0x3450	70 29 00 00 00 00 00 00 00 00 00 00 00 00 00 00 	p)00000000000000
  0x3460	00 00 00 00 25 57 00 00 5c 00 3f 00 3f 00 5c 00 	0000%W0000?0?000
  0x3470	00 00 00 00 00 00 00 00 44 00 3a 00 5c 00 00 00 	00000000D0:00000
  0x3480	25 57 25 57 00 00 00 00 2f 00 00 00 22 00 00 00 	%W%W0000/000"000
  0x3490	20 09 00 00 2a 00 00 00 2f 3f 00 00 2f 44 00 00 	 000*000/?00/D00
  0x34a0	00 00 00 00 3a 5c 49 fb 00 00 00 00 02 00 00 00 	0000:0I000000000
  0x34b0	22 00 00 00 f4 34 00 00 f4 24 00 00 00 00 00 00 	"00004000$000000
  0x34c0	3a 5c 49 fb 00 00 00 00 0d 00 00 00 04 02 00 00 	:0I0000000000000
  0x34d0	18 35 00 00 18 25 00 00 00 00 00 00 3a 5c 49 fb 	05000%000000:0I0
  0x34e0	00 00 00 00 10 00 00 00 24 00 00 00 1c 37 00 00 	00000000$0000700
  0x34f0	1c 27 00 00 52 53 44 53 80 18 b3 6c d6 0e 17 9b 	0'00RSDS000l0000
  0x3500	1b da b0 70 06 30 93 a4 01 00 00 00 73 75 62 73 	000p00000000subs
  0x3510	74 2e 70 64 62 00 00 00 47 43 54 4c 00 10 00 00 	t.pdb000GCTL0000
  0x3520	10 1a 00 00 2e 74 65 78 74 24 6d 6e 00 00 00 00 	0000.text$mn0000
  0x3530	10 2a 00 00 20 00 00 00 2e 74 65 78 74 24 6d 6e 	0*00 000.text$mn
  0x3540	24 30 30 00 30 2a 00 00 50 00 00 00 2e 74 65 78 	$0000*00P000.tex
  0x3550	74 24 78 00 00 30 00 00 28 01 00 00 2e 72 64 61 	t$x00000(000.rda
  0x3560	74 61 24 62 72 63 00 00 28 31 00 00 b8 02 00 00 	ta$brc00(1000000
  0x3570	2e 69 64 61 74 61 24 35 00 00 00 00 e0 33 00 00 	.idata$500000300
  0x3580	10 00 00 00 2e 30 30 63 66 67 00 00 f0 33 00 00 	0000.00cfg000300
  0x3590	08 00 00 00 2e 43 52 54 24 58 43 41 00 00 00 00 	0000.CRT$XCA0000
  0x35a0	f8 33 00 00 08 00 00 00 2e 43 52 54 24 58 43 41 	03000000.CRT$XCA
  0x35b0	41 00 00 00 00 34 00 00 08 00 00 00 2e 43 52 54 	A00004000000.CRT
  0x35c0	24 58 43 5a 00 00 00 00 08 34 00 00 08 00 00 00 	$XCZ000004000000
  0x35d0	2e 43 52 54 24 58 49 41 00 00 00 00 10 34 00 00 	.CRT$XIA00000400
  0x35e0	08 00 00 00 2e 43 52 54 24 58 49 41 41 00 00 00 	0000.CRT$XIAA000
  0x35f0	18 34 00 00 08 00 00 00 2e 43 52 54 24 58 49 59 	04000000.CRT$XIY
  0x3600	00 00 00 00 20 34 00 00 08 00 00 00 2e 43 52 54 	0000 4000000.CRT
  0x3610	24 58 49 5a 00 00 00 00 28 34 00 00 0c 00 00 00 	$XIZ0000(4000000
  0x3620	2e 67 65 68 63 6f 6e 74 00 00 00 00 34 34 00 00 	.gehcont00004400
  0x3630	2c 00 00 00 2e 67 66 69 64 73 00 00 60 34 00 00 	,000.gfids00`400
  0x3640	94 00 00 00 2e 72 64 61 74 61 00 00 f4 34 00 00 	0000.rdata000400
  0x3650	4c 02 00 00 2e 72 64 61 74 61 24 7a 7a 7a 64 62 	L000.rdata$zzzdb
  0x3660	67 00 00 00 40 37 00 00 54 01 00 00 2e 78 64 61 	g000@700T000.xda
  0x3670	74 61 00 00 94 38 00 00 50 00 00 00 2e 69 64 61 	ta000800P000.ida
  0x3680	74 61 24 32 00 00 00 00 e4 38 00 00 14 00 00 00 	ta$2000008000000
  0x3690	2e 69 64 61 74 61 24 33 00 00 00 00 f8 38 00 00 	.idata$300000800
  0x36a0	b8 02 00 00 2e 69 64 61 74 61 24 34 00 00 00 00 	0000.idata$40000
  0x36b0	b0 3b 00 00 a4 09 00 00 2e 69 64 61 74 61 24 36 	0;000000.idata$6
  0x36c0	00 00 00 00 00 50 00 00 20 00 00 00 2e 64 61 74 	00000P00 000.dat
  0x36d0	61 00 00 00 20 50 00 00 58 06 00 00 2e 62 73 73 	a000 P00X000.bss
  0x36e0	00 00 00 00 00 60 00 00 14 01 00 00 2e 70 64 61 	00000`000000.pda
  0x36f0	74 61 00 00 00 70 00 00 f0 00 00 00 2e 72 73 72 	ta000p000000.rsr
  0x3700	63 24 30 31 00 00 00 00 f0 70 00 00 e0 06 00 00 	c$0100000p000000
  0x3710	2e 72 73 72 63 24 30 32 00 00 00 00 20 00 00 00 	.rsrc$020000 000
  0x3720	80 18 b3 6c d6 0e 17 9b 1b da b0 70 06 30 93 a4 	000l0000000p0000
  0x3730	09 5e 4a 53 18 aa 7f 0e 9b 1c 77 f7 3a 5c 49 fb 	0^JS000000w0:0I0
  0x3740	19 24 07 00 12 64 57 00 12 34 56 00 12 01 52 00 	0$000dW004V000R0
  0x3750	0b 70 00 00 88 29 00 00 80 02 00 00 19 2c 09 00 	0p000)0000000,00
  0x3760	1b 34 5c 00 1b 01 54 00 0c f0 0a e0 08 70 07 60 	040000T000000p0`
  0x3770	06 50 00 00 88 29 00 00 90 02 00 00 19 20 06 00 	0P000)0000000 00
  0x3780	12 34 14 00 12 f2 08 70 07 60 06 50 88 29 00 00 	0400000p0`0P0)00
  0x3790	78 00 00 00 19 2f 09 00 1e 74 5d 00 1e 64 5c 00 	x0000/000t]00d00
  0x37a0	1e 34 5b 00 1e 01 58 00 10 50 00 00 88 29 00 00 	04[000X00P000)00
  0x37b0	b0 02 00 00 19 33 0b 00 22 f4 07 01 22 74 06 01 	00000300"000"t00
  0x37c0	22 64 05 01 22 34 04 01 22 01 02 01 14 50 00 00 	"d00"400"0000P00
  0x37d0	88 29 00 00 00 08 00 00 01 04 01 00 04 42 00 00 	0)00000000000B00
  0x37e0	01 04 01 00 04 62 00 00 09 15 08 00 15 74 0a 00 	00000b0000000t00
  0x37f0	15 64 09 00 15 34 08 00 15 52 11 f0 5a 29 00 00 	0d0004000R00Z)00
  0x3800	01 00 00 00 95 22 00 00 fb 23 00 00 30 2a 00 00 	00000"000#000*00
  0x3810	fb 23 00 00 01 06 02 00 06 32 02 50 00 00 00 00 	0#000000020P0000
  0x3820	01 00 00 00 01 06 02 00 06 32 02 30 01 0c 02 00 	0000000002000000
  0x3830	0c 01 11 00 09 04 01 00 04 22 00 00 5a 29 00 00 	000000000"00Z)00
  0x3840	01 00 00 00 dc 26 00 00 12 27 00 00 01 00 00 00 	00000&000'000000
  0x3850	12 27 00 00 09 0a 04 00 0a 34 06 00 0a 32 06 70 	0'0000000400020p
  0x3860	5a 29 00 00 01 00 00 00 ed 27 00 00 20 28 00 00 	Z)0000000'00 (00
  0x3870	60 2a 00 00 20 28 00 00 01 0d 04 00 0d 34 09 00 	`*00 (0000000400
  0x3880	0d 32 06 50 00 00 00 00 01 00 00 00 01 02 01 00 	020P000000000000
  0x3890	02 30 00 00 f8 38 00 00 00 00 00 00 00 00 00 00 	0000080000000000
  0x38a0	fc 3b 00 00 28 31 00 00 78 39 00 00 00 00 00 00 	0;00(100x9000000
  0x38b0	00 00 00 00 c4 3c 00 00 a8 31 00 00 20 3a 00 00 	00000<000100 :00
  0x38c0	00 00 00 00 00 00 00 00 ca 43 00 00 50 32 00 00 	000000000C00P200
  0x38d0	e8 39 00 00 00 00 00 00 00 00 00 00 5c 44 00 00 	0900000000000D00
  0x38e0	18 32 00 00 00 00 00 00 00 00 00 00 00 00 00 00 	0200000000000000
  0x38f0	00 00 00 00 00 00 00 00 b0 3b 00 00 00 00 00 00 	000000000;000000
  0x3900	c2 3b 00 00 00 00 00 00 d2 3b 00 00 00 00 00 00 	0;0000000;000000
  0x3910	e6 3b 00 00 00 00 00 00 2a 45 00 00 00 00 00 00 	0;000000*E000000
  0x3920	14 45 00 00 00 00 00 00 fe 44 00 00 00 00 00 00 	0E0000000D000000
  0x3930	e4 44 00 00 00 00 00 00 d0 44 00 00 00 00 00 00 	0D0000000D000000
  0x3940	bc 44 00 00 00 00 00 00 a8 44 00 00 00 00 00 00 	0D0000000D000000
  0x3950	8a 44 00 00 00 00 00 00 6e 44 00 00 00 00 00 00 	0D000000nD000000
  0x3960	66 44 00 00 00 00 00 00 44 45 00 00 00 00 00 00 	fD000000DE000000
  0x3970	00 00 00 00 00 00 00 00 a4 3c 00 00 00 00 00 00 	000000000<000000
  0x3980	b0 3c 00 00 00 00 00 00 18 3c 00 00 00 00 00 00 	0<0000000<000000
  0x3990	26 3c 00 00 00 00 00 00 36 3c 00 00 00 00 00 00 	&<0000006<000000
  0x39a0	48 3c 00 00 00 00 00 00 50 3c 00 00 00 00 00 00 	H<000000P<000000
  0x39b0	58 3c 00 00 00 00 00 00 62 3c 00 00 00 00 00 00 	X<000000b<000000
  0x39c0	76 3c 00 00 00 00 00 00 9a 3c 00 00 00 00 00 00 	v<0000000<000000
  0x39d0	0a 3c 00 00 00 00 00 00 82 3c 00 00 00 00 00 00 	0<0000000<000000
  0x39e0	00 00 00 00 00 00 00 00 2e 44 00 00 00 00 00 00 	00000000.D000000
  0x39f0	1a 44 00 00 00 00 00 00 0c 44 00 00 00 00 00 00 	0D0000000D000000
  0x3a00	ec 43 00 00 00 00 00 00 d4 43 00 00 00 00 00 00 	0C0000000C000000
  0x3a10	48 44 00 00 00 00 00 00 00 00 00 00 00 00 00 00 	HD00000000000000
  0x3a20	3c 3f 00 00 00 00 00 00 5c 3f 00 00 00 00 00 00 	<?0000000?000000
  0x3a30	88 3f 00 00 00 00 00 00 9e 3f 00 00 00 00 00 00 	0?0000000?000000
  0x3a40	d0 3f 00 00 00 00 00 00 0c 40 00 00 00 00 00 00 	0?0000000@000000
  0x3a50	c8 3d 00 00 00 00 00 00 7c 40 00 00 00 00 00 00 	0=000000|@000000
  0x3a60	ae 40 00 00 00 00 00 00 e6 40 00 00 00 00 00 00 	0@0000000@000000
  0x3a70	1a 41 00 00 00 00 00 00 50 41 00 00 00 00 00 00 	0A000000PA000000
  0x3a80	ac 3d 00 00 00 00 00 00 94 41 00 00 00 00 00 00 	0=0000000A000000
  0x3a90	c0 41 00 00 00 00 00 00 de 41 00 00 00 00 00 00 	0A0000000A000000
  0x3aa0	fc 41 00 00 00 00 00 00 fe 3e 00 00 00 00 00 00 	0A0000000>000000
  0x3ab0	34 42 00 00 00 00 00 00 48 42 00 00 00 00 00 00 	4B000000HB000000
  0x3ac0	68 42 00 00 00 00 00 00 86 42 00 00 00 00 00 00 	hB0000000B000000
  0x3ad0	b0 42 00 00 00 00 00 00 d2 42 00 00 00 00 00 00 	0B0000000B000000
  0x3ae0	fa 42 00 00 00 00 00 00 1e 43 00 00 00 00 00 00 	0B0000000C000000
  0x3af0	42 43 00 00 00 00 00 00 58 43 00 00 00 00 00 00 	BC000000XC000000
  0x3b00	88 43 00 00 00 00 00 00 aa 43 00 00 00 00 00 00 	0C0000000C000000
  0x3b10	82 3d 00 00 00 00 00 00 e8 3e 00 00 00 00 00 00 	0=0000000>000000
  0x3b20	cc 3e 00 00 00 00 00 00 b0 3e 00 00 00 00 00 00 	0>0000000>000000
  0x3b30	86 3e 00 00 00 00 00 00 6a 3e 00 00 00 00 00 00 	0>000000j>000000
  0x3b40	4c 3e 00 00 00 00 00 00 2e 3e 00 00 00 00 00 00 	L>000000.>000000
  0x3b50	10 42 00 00 00 00 00 00 6e 3d 00 00 00 00 00 00 	0B000000n=000000
  0x3b60	5a 3d 00 00 00 00 00 00 3a 3d 00 00 00 00 00 00 	Z=000000:=000000
  0x3b70	18 3d 00 00 00 00 00 00 fc 3c 00 00 00 00 00 00 	0=0000000<000000
  0x3b80	e6 3c 00 00 00 00 00 00 d0 3c 00 00 00 00 00 00 	0<0000000<000000
  0x3b90	fa 3d 00 00 00 00 00 00 72 41 00 00 00 00 00 00 	0=000000rA000000
  0x3ba0	4c 40 00 00 00 00 00 00 00 00 00 00 00 00 00 00 	L@00000000000000
  0x3bb0	4a 04 51 75 65 72 79 44 6f 73 44 65 76 69 63 65 	J0QueryDosDevice
  0x3bc0	57 00 6a 02 47 65 74 4c 61 73 74 45 72 72 6f 72 	W0j0GetLastError
  0x3bd0	00 00 10 01 44 65 66 69 6e 65 44 6f 73 44 65 76 	0000DefineDosDev
  0x3be0	69 63 65 57 00 00 59 03 48 65 61 70 53 65 74 49 	iceW00Y0HeapSetI
  0x3bf0	6e 66 6f 72 6d 61 74 69 6f 6e 00 00 4b 45 52 4e 	nformation00KERN
  0x3c00	45 4c 33 32 2e 64 6c 6c 00 00 55 00 5f 58 63 70 	EL32.dll00U0_Xcp
  0x3c10	74 46 69 6c 74 65 72 00 ae 00 5f 61 6d 73 67 5f 	tFilter000_amsg_
  0x3c20	65 78 69 74 00 00 7f 00 5f 5f 67 65 74 6d 61 69 	exit0000__getmai
  0x3c30	6e 61 72 67 73 00 8e 00 5f 5f 73 65 74 5f 61 70 	nargs000__set_ap
  0x3c40	70 5f 74 79 70 65 00 00 32 04 65 78 69 74 00 00 	p_type0020exit00
  0x3c50	0e 01 5f 65 78 69 74 00 c1 00 5f 63 65 78 69 74 	00_exit000_cexit
  0x3c60	00 00 90 00 5f 5f 73 65 74 75 73 65 72 6d 61 74 	0000__setusermat
  0x3c70	68 65 72 72 00 00 7d 01 5f 69 6e 69 74 74 65 72 	herr00}0_initter
  0x3c80	6d 00 57 00 5f 5f 43 5f 73 70 65 63 69 66 69 63 	m0W0__C_specific
  0x3c90	5f 68 61 6e 64 6c 65 72 00 00 27 01 5f 66 6d 6f 	_handler00'0_fmo
  0x3ca0	64 65 00 00 d2 00 5f 63 6f 6d 6d 6f 64 65 00 00 	de0000_commode00
  0x3cb0	2f 00 3f 74 65 72 6d 69 6e 61 74 65 40 40 59 41 	/0?terminate@@YA
  0x3cc0	58 58 5a 00 6d 73 76 63 72 74 2e 64 6c 6c 00 00 	XXZ0msvcrt.dll00
  0x3cd0	3b 00 3f 3f 31 44 53 54 52 49 4e 47 40 40 55 45 	;0??1DSTRING@@UE
  0x3ce0	41 41 40 58 5a 00 0f 00 3f 3f 30 44 53 54 52 49 	AA@XZ000??0DSTRI
  0x3cf0	4e 47 40 40 51 45 41 41 40 58 5a 00 cb 01 47 65 	NG@@QEAA@XZ000Ge
  0x3d00	74 5f 53 74 61 6e 64 61 72 64 5f 49 6e 70 75 74 	t_Standard_Input
  0x3d10	5f 53 74 72 65 61 6d 00 15 01 3f 50 75 74 40 41 	_Stream000?Put@A
  0x3d20	52 52 41 59 40 40 55 45 41 41 45 50 45 41 56 4f 	RRAY@@UEAAEPEAVO
  0x3d30	42 4a 45 43 54 40 40 40 5a 00 c0 00 3f 49 6e 69 	BJECT@@@Z000?Ini
  0x3d40	74 69 61 6c 69 7a 65 40 41 52 52 41 59 40 40 51 	tialize@ARRAY@@Q
  0x3d50	45 41 41 45 4b 4b 40 5a 00 00 34 00 3f 3f 31 41 	EAAEKK@Z0040??1A
  0x3d60	52 52 41 59 40 40 55 45 41 41 40 58 5a 00 02 00 	RRAY@@UEAA@XZ000
  0x3d70	3f 3f 30 41 52 52 41 59 40 40 51 45 41 41 40 58 	??0ARRAY@@QEAA@X
  0x3d80	5a 00 ca 00 3f 49 6e 69 74 69 61 6c 69 7a 65 40 	Z000?Initialize@
  0x3d90	46 4c 41 47 5f 41 52 47 55 4d 45 4e 54 40 40 51 	FLAG_ARGUMENT@@Q
  0x3da0	45 41 41 45 50 45 41 44 40 5a 00 00 10 00 3f 3f 	EAAEPEAD@Z0000??
  0x3db0	30 46 4c 41 47 5f 41 52 47 55 4d 45 4e 54 40 40 	0FLAG_ARGUMENT@@
  0x3dc0	51 45 41 41 40 58 5a 00 70 01 3f 53 65 74 40 53 	QEAA@XZ0p0?Set@S
  0x3dd0	54 52 45 41 4d 5f 4d 45 53 53 41 47 45 40 40 55 	TREAM_MESSAGE@@U
  0x3de0	45 41 41 45 4b 57 34 4d 45 53 53 41 47 45 5f 54 	EAAEKW4MESSAGE_T
  0x3df0	59 50 45 40 40 4b 40 5a 00 00 df 00 3f 49 6e 69 	YPE@@K@Z0000?Ini
  0x3e00	74 69 61 6c 69 7a 65 40 53 54 52 45 41 4d 5f 4d 	tialize@STREAM_M
  0x3e10	45 53 53 41 47 45 40 40 51 45 41 41 45 50 45 41 	ESSAGE@@QEAAEPEA
  0x3e20	56 53 54 52 45 41 4d 40 40 30 30 40 5a 00 4e 00 	VSTREAM@@00@Z0N0
  0x3e30	3f 3f 31 53 54 52 45 41 4d 5f 4d 45 53 53 41 47 	??1STREAM_MESSAG
  0x3e40	45 40 40 55 45 41 41 40 58 5a 00 00 2a 00 3f 3f 	E@@UEAA@XZ00*0??
  0x3e50	30 53 54 52 45 41 4d 5f 4d 45 53 53 41 47 45 40 	0STREAM_MESSAGE@
  0x3e60	40 51 45 41 41 40 58 5a 00 00 ca 01 47 65 74 5f 	@QEAA@XZ0000Get_
  0x3e70	53 74 61 6e 64 61 72 64 5f 45 72 72 6f 72 5f 53 	Standard_Error_S
  0x3e80	74 72 65 61 6d 00 d9 00 3f 49 6e 69 74 69 61 6c 	tream000?Initial
  0x3e90	69 7a 65 40 50 41 54 48 5f 41 52 47 55 4d 45 4e 	ize@PATH_ARGUMEN
  0x3ea0	54 40 40 51 45 41 41 45 50 45 41 44 45 40 5a 00 	T@@QEAAEPEADE@Z0
  0x3eb0	48 00 3f 3f 31 50 41 54 48 5f 41 52 47 55 4d 45 	H0??1PATH_ARGUME
  0x3ec0	4e 54 40 40 55 45 41 41 40 58 5a 00 23 00 3f 3f 	NT@@UEAA@XZ0#0??
  0x3ed0	30 50 41 54 48 5f 41 52 47 55 4d 45 4e 54 40 40 	0PATH_ARGUMENT@@
  0x3ee0	51 45 41 41 40 58 5a 00 14 00 3f 3f 30 46 53 54 	QEAA@XZ000??0FST
  0x3ef0	52 49 4e 47 40 40 51 45 41 41 40 58 5a 00 2b 01 	RING@@QEAA@XZ0+0
  0x3f00	3f 51 75 65 72 79 44 69 72 65 63 74 6f 72 79 40 	?QueryDirectory@
  0x3f10	53 59 53 54 45 4d 40 40 53 41 50 45 41 56 46 53 	SYSTEM@@SAPEAVFS
  0x3f20	4e 5f 44 49 52 45 43 54 4f 52 59 40 40 50 45 42 	N_DIRECTORY@@PEB
  0x3f30	56 50 41 54 48 40 40 45 40 5a 00 00 fc 00 3f 49 	VPATH@@E@Z0000?I
  0x3f40	73 56 61 6c 75 65 53 65 74 40 41 52 47 55 4d 45 	sValueSet@ARGUME
  0x3f50	4e 54 40 40 51 45 41 41 45 58 5a 00 b7 00 3f 47 	NT@@QEAAEXZ000?G
  0x3f60	65 74 50 61 74 74 65 72 6e 40 41 52 47 55 4d 45 	etPattern@ARGUME
  0x3f70	4e 54 40 40 51 45 41 41 50 45 41 56 57 53 54 52 	NT@@QEAAPEAVWSTR
  0x3f80	49 4e 47 40 40 58 5a 00 46 00 3f 3f 31 4f 42 4a 	ING@@XZ0F0??1OBJ
  0x3f90	45 43 54 40 40 55 45 41 41 40 58 5a 00 00 77 01 	ECT@@UEAA@XZ00w0
  0x3fa0	3f 53 65 74 43 61 73 65 53 65 6e 73 69 74 69 76 	?SetCaseSensitiv
  0x3fb0	65 40 41 52 47 55 4d 45 4e 54 5f 4c 45 58 45 4d 	e@ARGUMENT_LEXEM
  0x3fc0	49 5a 45 52 40 40 51 45 41 41 58 45 40 5a 00 00 	IZER@@QEAAXE@Z00
  0x3fd0	14 01 3f 50 72 65 70 61 72 65 54 6f 50 61 72 73 	00?PrepareToPars
  0x3fe0	65 40 41 52 47 55 4d 45 4e 54 5f 4c 45 58 45 4d 	e@ARGUMENT_LEXEM
  0x3ff0	49 5a 45 52 40 40 51 45 41 41 45 50 45 41 56 57 	IZER@@QEAAEPEAVW
  0x4000	53 54 52 49 4e 47 40 40 40 5a 00 00 34 01 3f 51 	STRING@@@Z0040?Q
  0x4010	75 65 72 79 49 6e 76 61 6c 69 64 41 72 67 75 6d 	ueryInvalidArgum
  0x4020	65 6e 74 40 41 52 47 55 4d 45 4e 54 5f 4c 45 58 	ent@ARGUMENT_LEX
  0x4030	45 4d 49 5a 45 52 40 40 51 45 41 41 50 45 41 56 	EMIZER@@QEAAPEAV
  0x4040	57 53 54 52 49 4e 47 40 40 58 5a 00 20 01 3f 50 	WSTRING@@XZ0 0?P
  0x4050	75 74 53 77 69 74 63 68 65 73 40 41 52 47 55 4d 	utSwitches@ARGUM
  0x4060	45 4e 54 5f 4c 45 58 45 4d 49 5a 45 52 40 40 51 	ENT_LEXEMIZER@@Q
  0x4070	45 41 41 58 50 45 42 44 40 5a 00 00 1c 01 3f 50 	EAAXPEBD@Z0000?P
  0x4080	75 74 53 65 70 61 72 61 74 6f 72 73 40 41 52 47 	utSeparators@ARG
  0x4090	55 4d 45 4e 54 5f 4c 45 58 45 4d 49 5a 45 52 40 	UMENT_LEXEMIZER@
  0x40a0	40 51 45 41 41 58 50 45 42 44 40 5a 00 00 b4 00 	@QEAAXPEBD@Z0000
  0x40b0	3f 47 65 74 4c 65 78 65 6d 65 41 74 40 41 52 47 	?GetLexemeAt@ARG
  0x40c0	55 4d 45 4e 54 5f 4c 45 58 45 4d 49 5a 45 52 40 	UMENT_LEXEMIZER@
  0x40d0	40 51 45 41 41 50 45 41 56 57 53 54 52 49 4e 47 	@QEAAPEAVWSTRING
  0x40e0	40 40 4b 40 5a 00 9b 00 3f 44 6f 50 61 72 73 69 	@@K@Z000?DoParsi
  0x40f0	6e 67 40 41 52 47 55 4d 45 4e 54 5f 4c 45 58 45 	ng@ARGUMENT_LEXE
  0x4100	4d 49 5a 45 52 40 40 51 45 41 41 45 50 45 41 56 	MIZER@@QEAAEPEAV
  0x4110	41 52 52 41 59 40 40 40 5a 00 bf 00 3f 49 6e 69 	ARRAY@@@Z000?Ini
  0x4120	74 69 61 6c 69 7a 65 40 41 52 47 55 4d 45 4e 54 	tialize@ARGUMENT
  0x4130	5f 4c 45 58 45 4d 49 5a 45 52 40 40 51 45 41 41 	_LEXEMIZER@@QEAA
  0x4140	45 50 45 41 56 41 52 52 41 59 40 40 40 5a 00 00 	EPEAVARRAY@@@Z00
  0x4150	33 00 3f 3f 31 41 52 47 55 4d 45 4e 54 5f 4c 45 	30??1ARGUMENT_LE
  0x4160	58 45 4d 49 5a 45 52 40 40 55 45 41 41 40 58 5a 	XEMIZER@@UEAA@XZ
  0x4170	00 00 01 00 3f 3f 30 41 52 47 55 4d 45 4e 54 5f 	0000??0ARGUMENT_
  0x4180	4c 45 58 45 4d 49 5a 45 52 40 40 51 45 41 41 40 	LEXEMIZER@@QEAA@
  0x4190	58 5a 00 00 e0 00 3f 49 6e 69 74 69 61 6c 69 7a 	XZ0000?Initializ
  0x41a0	65 40 53 54 52 49 4e 47 5f 41 52 47 55 4d 45 4e 	e@STRING_ARGUMEN
  0x41b0	54 40 40 51 45 41 41 45 50 45 41 44 40 5a 00 00 	T@@QEAAEPEAD@Z00
  0x41c0	4f 00 3f 3f 31 53 54 52 49 4e 47 5f 41 52 47 55 	O0??1STRING_ARGU
  0x41d0	4d 45 4e 54 40 40 55 45 41 41 40 58 5a 00 2b 00 	MENT@@UEAA@XZ0+0
  0x41e0	3f 3f 30 53 54 52 49 4e 47 5f 41 52 47 55 4d 45 	??0STRING_ARGUME
  0x41f0	4e 54 40 40 51 45 41 41 40 58 5a 00 47 00 3f 3f 	NT@@QEAA@XZ0G0??
  0x4200	31 50 41 54 48 40 40 55 45 41 41 40 58 5a 00 00 	1PATH@@UEAA@XZ00
  0x4210	d7 00 3f 49 6e 69 74 69 61 6c 69 7a 65 40 50 41 	00?Initialize@PA
  0x4220	54 48 40 40 51 45 41 41 45 50 45 42 56 31 40 45 	TH@@QEAAEPEBV1@E
  0x4230	40 5a 00 00 22 00 3f 3f 30 50 41 54 48 40 40 51 	@Z00"0??0PATH@@Q
  0x4240	45 41 41 40 58 5a 00 00 92 00 3f 44 69 73 70 6c 	EAA@XZ0000?Displ
  0x4250	61 79 40 4d 45 53 53 41 47 45 40 40 51 45 41 41 	ay@MESSAGE@@QEAA
  0x4260	45 50 45 42 44 5a 5a 00 cc 01 47 65 74 5f 53 74 	EPEBDZZ000Get_St
  0x4270	61 6e 64 61 72 64 5f 4f 75 74 70 75 74 5f 53 74 	andard_Output_St
  0x4280	72 65 61 6d 00 00 54 01 3f 51 75 65 72 79 57 53 	ream00T0?QueryWS
  0x4290	54 52 40 57 53 54 52 49 4e 47 40 40 51 45 42 41 	TR@WSTRING@@QEBA
  0x42a0	50 45 41 47 4b 4b 50 45 41 47 4b 45 40 5a 00 00 	PEAGKKPEAGKE@Z00
  0x42b0	8d 00 3f 44 65 6c 65 74 65 43 68 41 74 40 57 53 	00?DeleteChAt@WS
  0x42c0	54 52 49 4e 47 40 40 51 45 41 41 58 4b 4b 40 5a 	TRING@@QEAAXKK@Z
  0x42d0	00 00 ea 00 3f 49 6e 69 74 69 61 6c 69 7a 65 40 	0000?Initialize@
  0x42e0	57 53 54 52 49 4e 47 40 40 51 45 41 41 45 50 45 	WSTRING@@QEAAEPE
  0x42f0	42 56 31 40 4b 4b 40 5a 00 00 e9 00 3f 49 6e 69 	BV1@KK@Z0000?Ini
  0x4300	74 69 61 6c 69 7a 65 40 57 53 54 52 49 4e 47 40 	tialize@WSTRING@
  0x4310	40 51 45 41 41 45 50 45 42 47 4b 40 5a 00 e8 00 	@QEAAEPEBGK@Z000
  0x4320	3f 49 6e 69 74 69 61 6c 69 7a 65 40 57 53 54 52 	?Initialize@WSTR
  0x4330	49 4e 47 40 40 51 45 41 41 45 50 45 42 44 4b 40 	ING@@QEAAEPEBDK@
  0x4340	5a 00 3d 00 3f 3f 31 46 53 54 52 49 4e 47 40 40 	Z0=0??1FSTRING@@
  0x4350	55 45 41 41 40 58 5a 00 cd 00 3f 49 6e 69 74 69 	UEAA@XZ000?Initi
  0x4360	61 6c 69 7a 65 40 46 53 54 52 49 4e 47 40 40 51 	alize@FSTRING@@Q
  0x4370	45 41 41 50 45 41 56 57 53 54 52 49 4e 47 40 40 	EAAPEAVWSTRING@@
  0x4380	50 45 41 47 4b 40 5a 00 b2 01 3f 53 74 72 73 74 	PEAGK@Z000?Strst
  0x4390	72 40 57 53 54 52 49 4e 47 40 40 51 45 42 41 4b 	r@WSTRING@@QEBAK
  0x43a0	50 45 42 56 31 40 40 5a 00 00 b4 01 3f 53 74 72 	PEBV1@@Z0000?Str
  0x43b0	75 70 72 40 57 53 54 52 49 4e 47 40 40 51 45 41 	upr@WSTRING@@QEA
  0x43c0	41 50 45 41 56 31 40 58 5a 00 75 6c 69 62 2e 64 	APEAV1@XZ0ulib.d
  0x43d0	6c 6c 00 00 fd 03 52 74 6c 46 72 65 65 55 6e 69 	ll0000RtlFreeUni
  0x43e0	63 6f 64 65 53 74 72 69 6e 67 00 00 97 03 52 74 	codeString0000Rt
  0x43f0	6c 44 6f 73 50 61 74 68 4e 61 6d 65 54 6f 4e 74 	lDosPathNameToNt
  0x4400	50 61 74 68 4e 61 6d 65 5f 55 00 00 f6 03 52 74 	PathName_U0000Rt
  0x4410	6c 46 72 65 65 48 65 61 70 00 f3 02 52 74 6c 43 	lFreeHeap000RtlC
  0x4420	61 70 74 75 72 65 43 6f 6e 74 65 78 74 00 ea 04 	aptureContext000
  0x4430	52 74 6c 4c 6f 6f 6b 75 70 46 75 6e 63 74 69 6f 	RtlLookupFunctio
  0x4440	6e 45 6e 74 72 79 00 00 29 06 52 74 6c 56 69 72 	nEntry00)0RtlVir
  0x4450	74 75 61 6c 55 6e 77 69 6e 64 00 00 6e 74 64 6c 	tualUnwind00ntdl
  0x4460	6c 2e 64 6c 6c 00 8f 05 53 6c 65 65 70 00 c0 05 	l.dll000Sleep000
  0x4470	55 6e 68 61 6e 64 6c 65 64 45 78 63 65 70 74 69 	UnhandledExcepti
  0x4480	6f 6e 46 69 6c 74 65 72 00 00 7f 05 53 65 74 55 	onFilter0000SetU
  0x4490	6e 68 61 6e 64 6c 65 64 45 78 63 65 70 74 69 6f 	nhandledExceptio
  0x44a0	6e 46 69 6c 74 65 72 00 20 02 47 65 74 43 75 72 	nFilter0 0GetCur
  0x44b0	72 65 6e 74 50 72 6f 63 65 73 73 00 9e 05 54 65 	rentProcess000Te
  0x44c0	72 6d 69 6e 61 74 65 50 72 6f 63 65 73 73 00 00 	rminateProcess00
  0x44d0	81 02 47 65 74 4d 6f 64 75 6c 65 48 61 6e 64 6c 	00GetModuleHandl
  0x44e0	65 57 00 00 52 04 51 75 65 72 79 50 65 72 66 6f 	eW00R0QueryPerfo
  0x44f0	72 6d 61 6e 63 65 43 6f 75 6e 74 65 72 00 21 02 	rmanceCounter0!0
  0x4500	47 65 74 43 75 72 72 65 6e 74 50 72 6f 63 65 73 	GetCurrentProces
  0x4510	73 49 64 00 25 02 47 65 74 43 75 72 72 65 6e 74 	sId0%0GetCurrent
  0x4520	54 68 72 65 61 64 49 64 00 00 f3 02 47 65 74 53 	ThreadId0000GetS
  0x4530	79 73 74 65 6d 54 69 6d 65 41 73 46 69 6c 65 54 	ystemTimeAsFileT
  0x4540	69 6d 65 00 11 03 47 65 74 54 69 63 6b 43 6f 75 	ime000GetTickCou
  0x4550	6e 74 00 00 00 00 00 00 00 00 00 00 00 00 00 00 	nt00000000000000
  0x4560	00 00 00 00 00 00 00 00 00 00 00 00 00 00 00 00 	0000000000000000
  0x4570	00 00 00 00 00 00 00 00 00 00 00 00 00 00 00 00 	0000000000000000
  0x4580	00 00 00 00 00 00 00 00 00 00 00 00 00 00 00 00 	0000000000000000
  0x4590	00 00 00 00 00 00 00 00 00 00 00 00 00 00 00 00 	0000000000000000
  0x45a0	00 00 00 00 00 00 00 00 00 00 00 00 00 00 00 00 	0000000000000000
  0x45b0	00 00 00 00 00 00 00 00 00 00 00 00 00 00 00 00 	0000000000000000
  0x45c0	00 00 00 00 00 00 00 00 00 00 00 00 00 00 00 00 	0000000000000000
  0x45d0	00 00 00 00 00 00 00 00 00 00 00 00 00 00 00 00 	0000000000000000
  0x45e0	00 00 00 00 00 00 00 00 00 00 00 00 00 00 00 00 	0000000000000000
  0x45f0	00 00 00 00 00 00 00 00 00 00 00 00 00 00 00 00 	0000000000000000
=== DATA BLOCK END ===

=== DATA BLOCK ADDRESS 0x5000 ===
  0x5000	01 00 00 00 00 00 00 00 32 a2 df 2d 99 2b 00 00 	00000000200-0+00
  0x5010	cd 5d 20 d2 66 d4 ff ff 00 00 00 00 00 00 00 00 	0] 0f00000000000
  0x5020	00 00 00 00 00 00 00 00 00 00 00 00 00 00 00 00 	0000000000000000
  0x5030	00 00 00 00 00 00 00 00 00 00 00 00 00 00 00 00 	0000000000000000
  0x5040	00 00 00 00 00 00 00 00 00 00 00 00 00 00 00 00 	0000000000000000
  0x5050	00 00 00 00 00 00 00 00 00 00 00 00 00 00 00 00 	0000000000000000
  0x5060	00 00 00 00 00 00 00 00 00 00 00 00 00 00 00 00 	0000000000000000
  0x5070	00 00 00 00 00 00 00 00 00 00 00 00 00 00 00 00 	0000000000000000
  0x5080	00 00 00 00 00 00 00 00 00 00 00 00 00 00 00 00 	0000000000000000
  0x5090	00 00 00 00 00 00 00 00 00 00 00 00 00 00 00 00 	0000000000000000
  0x50a0	00 00 00 00 00 00 00 00 00 00 00 00 00 00 00 00 	0000000000000000
  0x50b0	00 00 00 00 00 00 00 00 00 00 00 00 00 00 00 00 	0000000000000000
  0x50c0	00 00 00 00 00 00 00 00 00 00 00 00 00 00 00 00 	0000000000000000
  0x50d0	00 00 00 00 00 00 00 00 00 00 00 00 00 00 00 00 	0000000000000000
  0x50e0	00 00 00 00 00 00 00 00 00 00 00 00 00 00 00 00 	0000000000000000
  0x50f0	00 00 00 00 00 00 00 00 00 00 00 00 00 00 00 00 	0000000000000000
  0x5100	00 00 00 00 00 00 00 00 00 00 00 00 00 00 00 00 	0000000000000000
  0x5110	00 00 00 00 00 00 00 00 00 00 00 00 00 00 00 00 	0000000000000000
  0x5120	00 00 00 00 00 00 00 00 00 00 00 00 00 00 00 00 	0000000000000000
  0x5130	00 00 00 00 00 00 00 00 00 00 00 00 00 00 00 00 	0000000000000000
  0x5140	00 00 00 00 00 00 00 00 00 00 00 00 00 00 00 00 	0000000000000000
  0x5150	00 00 00 00 00 00 00 00 00 00 00 00 00 00 00 00 	0000000000000000
  0x5160	00 00 00 00 00 00 00 00 00 00 00 00 00 00 00 00 	0000000000000000
  0x5170	00 00 00 00 00 00 00 00 00 00 00 00 00 00 00 00 	0000000000000000
  0x5180	00 00 00 00 00 00 00 00 00 00 00 00 00 00 00 00 	0000000000000000
  0x5190	00 00 00 00 00 00 00 00 00 00 00 00 00 00 00 00 	0000000000000000
  0x51a0	00 00 00 00 00 00 00 00 00 00 00 00 00 00 00 00 	0000000000000000
  0x51b0	00 00 00 00 00 00 00 00 00 00 00 00 00 00 00 00 	0000000000000000
  0x51c0	00 00 00 00 00 00 00 00 00 00 00 00 00 00 00 00 	0000000000000000
  0x51d0	00 00 00 00 00 00 00 00 00 00 00 00 00 00 00 00 	0000000000000000
  0x51e0	00 00 00 00 00 00 00 00 00 00 00 00 00 00 00 00 	0000000000000000
  0x51f0	00 00 00 00 00 00 00 00 00 00 00 00 00 00 00 00 	0000000000000000
=== DATA BLOCK END ===

=== DATA BLOCK ADDRESS 0x6000 ===
  0x6000	08 10 00 00 36 11 00 00 40 37 00 00 3c 11 00 00 	00006000@700<000
  0x6010	8d 13 00 00 5c 37 00 00 94 13 00 00 c8 14 00 00 	0000070000000000
  0x6020	7c 37 00 00 d0 14 00 00 3e 16 00 00 94 37 00 00 	|7000000>0000700
  0x6030	44 16 00 00 4a 21 00 00 b4 37 00 00 50 21 00 00 	D000J!000700P!00
  0x6040	23 22 00 00 d8 37 00 00 30 22 00 00 79 22 00 00 	#"0007000"00y"00
  0x6050	e0 37 00 00 80 22 00 00 3e 24 00 00 e8 37 00 00 	07000"00>$000700
  0x6060	50 24 00 00 62 24 00 00 d8 37 00 00 80 24 00 00 	P$00b$0007000$00
  0x6070	9e 24 00 00 20 38 00 00 a4 24 00 00 d8 24 00 00 	0$00 8000$000$00
  0x6080	24 38 00 00 e0 24 00 00 51 26 00 00 2c 38 00 00 	$8000$00Q&00,800
  0x6090	60 26 00 00 99 26 00 00 d8 37 00 00 a0 26 00 00 	`&000&0007000&00
  0x60a0	b8 26 00 00 d8 37 00 00 cc 26 00 00 20 27 00 00 	0&0007000&00 '00
  0x60b0	34 38 00 00 28 27 00 00 6d 27 00 00 24 38 00 00 	4800('00m'00$800
  0x60c0	e0 27 00 00 2d 28 00 00 54 38 00 00 74 28 00 00 	0'00-(00T800t(00
  0x60d0	48 29 00 00 78 38 00 00 88 29 00 00 a5 29 00 00 	H)00x8000)000)00
  0x60e0	d8 37 00 00 ac 29 00 00 07 2a 00 00 8c 38 00 00 	07000)000*000800
  0x60f0	20 2a 00 00 22 2a 00 00 88 38 00 00 30 2a 00 00 	 *00"*0008000*00
  0x6100	4e 2a 00 00 14 38 00 00 60 2a 00 00 80 2a 00 00 	N*000800`*000*00
  0x6110	14 38 00 00 00 00 00 00 00 00 00 00 00 00 00 00 	0800000000000000
  0x6120	00 00 00 00 00 00 00 00 00 00 00 00 00 00 00 00 	0000000000000000
  0x6130	00 00 00 00 00 00 00 00 00 00 00 00 00 00 00 00 	0000000000000000
  0x6140	00 00 00 00 00 00 00 00 00 00 00 00 00 00 00 00 	0000000000000000
  0x6150	00 00 00 00 00 00 00 00 00 00 00 00 00 00 00 00 	0000000000000000
  0x6160	00 00 00 00 00 00 00 00 00 00 00 00 00 00 00 00 	0000000000000000
  0x6170	00 00 00 00 00 00 00 00 00 00 00 00 00 00 00 00 	0000000000000000
  0x6180	00 00 00 00 00 00 00 00 00 00 00 00 00 00 00 00 	0000000000000000
  0x6190	00 00 00 00 00 00 00 00 00 00 00 00 00 00 00 00 	0000000000000000
  0x61a0	00 00 00 00 00 00 00 00 00 00 00 00 00 00 00 00 	0000000000000000
  0x61b0	00 00 00 00 00 00 00 00 00 00 00 00 00 00 00 00 	0000000000000000
  0x61c0	00 00 00 00 00 00 00 00 00 00 00 00 00 00 00 00 	0000000000000000
  0x61d0	00 00 00 00 00 00 00 00 00 00 00 00 00 00 00 00 	0000000000000000
  0x61e0	00 00 00 00 00 00 00 00 00 00 00 00 00 00 00 00 	0000000000000000
  0x61f0	00 00 00 00 00 00 00 00 00 00 00 00 00 00 00 00 	0000000000000000
=== DATA BLOCK END ===
