===== Assembly blocks =====

=== CODE BLOCK ADDRESS 0x1000 ===
  0x1000	int3   	
  0x1001	int3   	
  0x1002	int3   	
  0x1003	int3   	
  0x1004	int3   	
  === BLOCK LINK ===
    0x1005
=== CODE BLOCK END ===

=== CODE BLOCK ADDRESS 0x1005 ===
  0x1005	int3   	
  0x1006	int3   	
  0x1007	int3   	
  0x1008	int3   	
  0x1009	int3   	
  === BLOCK LINK ===
    0x100a
=== CODE BLOCK END ===

=== CODE BLOCK ADDRESS 0x100a ===
  0x100a	int3   	
  0x100b	int3   	
  0x100c	int3   	
  0x100d	int3   	
  0x100e	int3   	
  === BLOCK LINK ===
    0x100f
=== CODE BLOCK END ===

=== CODE BLOCK ADDRESS 0x100f ===
  0x100f	int3   	
  0x1010	mov    	dl, 1
  0x1012	sub    	ecx, 6
  0x1015	je     	0x102b
  === BLOCK LINK ===
    0x1017
    0x102b
=== CODE BLOCK END ===

=== CODE BLOCK ADDRESS 0x1017 ===
  0x1017	sub    	ecx, 1
  0x101a	je     	0x102b
  === BLOCK LINK ===
    0x101c
    0x102b
=== CODE BLOCK END ===

=== CODE BLOCK ADDRESS 0x101c ===
  0x101c	sub    	ecx, 3
  0x101f	je     	0x102b
  === BLOCK LINK ===
    0x1021
    0x102b
=== CODE BLOCK END ===

=== CODE BLOCK ADDRESS 0x1021 ===
  0x1021	sub    	ecx, 1
  0x1024	je     	0x1031
  === BLOCK LINK ===
    0x1026
    0x1031
=== CODE BLOCK END ===

=== CODE BLOCK ADDRESS 0x1026 ===
  0x1026	cmp    	ecx, 0x15
  0x1029	jne    	0x102d
  === BLOCK LINK ===
    0x102b
    0x102d
=== CODE BLOCK END ===

=== CODE BLOCK ADDRESS 0x102b ===
  0x102b	xor    	dl, dl
  === BLOCK LINK ===
    0x102d
=== CODE BLOCK END ===

=== CODE BLOCK ADDRESS 0x1032 ===
  0x1032	mov    	dl, byte ptr [eax]
  0x1034	jmp    	0x102d
  === BLOCK LINK ===
    0x1036
    0x102d
=== CODE BLOCK END ===

=== CODE BLOCK ADDRESS 0x1036 ===
  0x1036	int3   	
  0x1037	int3   	
  0x1038	int3   	
  0x1039	int3   	
  0x103a	int3   	
  === BLOCK LINK ===
    0x103b
=== CODE BLOCK END ===

=== CODE BLOCK ADDRESS 0x103b ===
  0x103b	int3   	
  === BLOCK LINK ===
    0x103c
=== CODE BLOCK END ===

=== CODE BLOCK ADDRESS 0x1043 ===
  0x1043	sub    	esp, 0xc0
  0x1049	mov    	edi, edx
  0x104b	dec    	eax
  0x104c	mov    	ebx, ecx
  0x104e	xor    	edx, edx
  === BLOCK LINK ===
    0x1050
=== CODE BLOCK END ===

=== CODE BLOCK ADDRESS 0x1050 ===
  0x1050	mov    	dword ptr [esp + 0x20], 0xa0
  0x1058	dec    	eax
  0x1059	lea    	ecx, [esp + 0x24]
  0x105d	inc    	ecx
  0x105e	mov    	eax, 0x9c
  === BLOCK LINK ===
    0x1063
=== CODE BLOCK END ===

=== CODE BLOCK ADDRESS 0x1063 ===
  0x1063	call   	0x291d
  === BLOCK LINK ===
    0x1068
    0x291d
=== CODE BLOCK END ===

=== CODE BLOCK ADDRESS 0x1068 ===
  0x1068	dec    	eax
  0x1069	and    	dword ptr [esp + 0x24], 0
  0x106e	dec    	eax
  0x106f	lea    	edx, [esp + 0xd8]
  0x1076	mov    	ecx, 1
  === BLOCK LINK ===
    0x107b
=== CODE BLOCK END ===

=== CODE BLOCK ADDRESS 0x107b ===
  0x107b	movzx  	eax, di
  0x107e	mov    	dword ptr [esp + 0x68], ecx
  0x1082	inc    	ebp
  0x1083	xor    	ecx, ecx
  0x1085	mov    	dword ptr [esp + 0x38], ecx
  === BLOCK LINK ===
    0x1089
=== CODE BLOCK END ===

=== CODE BLOCK ADDRESS 0x1089 ===
  0x1089	inc    	ebp
  0x108a	xor    	eax, eax
  0x108c	dec    	eax
  0x108d	lea    	ecx, [esp + 0x20]
  0x1091	dec    	eax
  === BLOCK LINK ===
    0x1092
=== CODE BLOCK END ===

=== CODE BLOCK ADDRESS 0x1092 ===
  0x1092	mov    	dword ptr [esp + 0x2c], ebx
  0x1096	mov    	dword ptr [esp + 0x34], 8
  0x109e	dec    	eax
  0x109f	mov    	dword ptr [esp + 0x3c], 0xca
  0x10a7	dec    	eax
  === BLOCK LINK ===
    0x10a8
=== CODE BLOCK END ===

=== CODE BLOCK ADDRESS 0x10a8 ===
  0x10a8	mov    	dword ptr [esp + 0x54], eax
  0x10ac	dec    	eax
  0x10ad	call   	dword ptr [0x2095]
  === BLOCK LINK ===
    0x10b3
=== CODE BLOCK END ===

=== CODE BLOCK ADDRESS 0x10b3 ===
  0x10b3	nop    	dword ptr [eax + eax]
  0x10b8	dec    	eax
  0x10b9	mov    	ebx, dword ptr [esp + 0xd0]
  0x10c0	dec    	eax
  0x10c1	add    	esp, 0xc0
  === BLOCK LINK ===
    0x10c7
=== CODE BLOCK END ===

=== CODE BLOCK ADDRESS 0x10c7 ===
  0x10c7	pop    	edi
  0x10c8	ret    	
  0x10c9	int3   	
  0x10ca	int3   	
  0x10cb	int3   	
  === BLOCK LINK ===
    0x10cc
=== CODE BLOCK END ===

=== CODE BLOCK ADDRESS 0x10cc ===
  0x10cc	int3   	
  0x10cd	int3   	
  0x10ce	int3   	
  0x10cf	int3   	
  0x10d0	dec    	eax
  === BLOCK LINK ===
    0x10d1
=== CODE BLOCK END ===

=== CODE BLOCK ADDRESS 0x10d1 ===
  0x10d1	mov    	dword ptr [esp + 0x10], ebx
  0x10d5	push   	ebp
  0x10d6	dec    	eax
  0x10d7	lea    	ebp, [esp - 0x20]
  0x10db	dec    	eax
  === BLOCK LINK ===
    0x10dc
=== CODE BLOCK END ===

=== CODE BLOCK ADDRESS 0x10dc ===
  0x10dc	sub    	esp, 0x120
  0x10e2	dec    	eax
  0x10e3	mov    	eax, dword ptr [0x3f1f]
  0x10e9	dec    	eax
  0x10ea	xor    	eax, esp
  === BLOCK LINK ===
    0x10ec
=== CODE BLOCK END ===

=== CODE BLOCK ADDRESS 0x10ec ===
  0x10ec	dec    	eax
  0x10ed	mov    	dword ptr [ebp + 0x10], eax
  0x10f0	dec    	eax
  0x10f1	mov    	ebx, ecx
  0x10f3	mov    	dword ptr [esp + 0x60], 0xa0
  === BLOCK LINK ===
    0x10fb
=== CODE BLOCK END ===

=== CODE BLOCK ADDRESS 0x10fb ===
  0x10fb	dec    	eax
  0x10fc	lea    	ecx, [esp + 0x64]
  0x1100	xor    	edx, edx
  0x1102	inc    	ecx
  0x1103	mov    	eax, 0x9c
  === BLOCK LINK ===
    0x1108
=== CODE BLOCK END ===

=== CODE BLOCK ADDRESS 0x1108 ===
  0x1108	call   	0x291d
  === BLOCK LINK ===
    0x110d
    0x291d
=== CODE BLOCK END ===

=== CODE BLOCK ADDRESS 0x110d ===
  0x110d	dec    	eax
  0x110e	and    	dword ptr [esp + 0x64], 0
  0x1113	dec    	eax
  0x1114	lea    	eax, [esp + 0x40]
  0x1118	inc    	ebp
  === BLOCK LINK ===
    0x1119
=== CODE BLOCK END ===

=== CODE BLOCK ADDRESS 0x1119 ===
  0x1119	xor    	ecx, ecx
  0x111b	dec    	eax
  0x111c	mov    	dword ptr [ebp - 0x60], eax
  0x111f	inc    	ebp
  0x1120	xor    	eax, eax
  === BLOCK LINK ===
    0x1122
=== CODE BLOCK END ===

=== CODE BLOCK ADDRESS 0x1122 ===
  0x1122	mov    	dword ptr [esp + 0x40], 1
  0x112a	dec    	eax
  0x112b	lea    	edx, [esp + 0x30]
  0x112f	dec    	eax
  0x1130	mov    	dword ptr [esp + 0x44], 0xc8
  === BLOCK LINK ===
    0x1138
=== CODE BLOCK END ===

=== CODE BLOCK ADDRESS 0x1138 ===
  0x1138	dec    	eax
  0x1139	lea    	ecx, [esp + 0x60]
  0x113d	mov    	dword ptr [esp + 0x4c], 2
  0x1145	dec    	eax
  0x1146	mov    	dword ptr [esp + 0x50], 0xc9
  === BLOCK LINK ===
    0x114e
=== CODE BLOCK END ===

=== CODE BLOCK ADDRESS 0x114e ===
  0x114e	dec    	eax
  0x114f	mov    	dword ptr [esp + 0x6c], ebx
  0x1153	mov    	dword ptr [esp + 0x74], 8
  0x115b	mov    	dword ptr [ebp - 0x64], 2
  0x1162	mov    	dword ptr [ebp - 0x58], 1
  === BLOCK LINK ===
    0x1169
=== CODE BLOCK END ===

=== CODE BLOCK ADDRESS 0x1169 ===
  0x1169	dec    	eax
  0x116a	mov    	dword ptr [esp + 0x7c], 0xca
  0x1172	dec    	eax
  0x1173	mov    	dword ptr [ebp - 0x74], 0xcf
  0x117a	dec    	eax
  === BLOCK LINK ===
    0x117b
=== CODE BLOCK END ===

=== CODE BLOCK ADDRESS 0x117b ===
  0x117b	mov    	dword ptr [ebp - 0x6c], 0xcd
  0x1182	dec    	eax
  0x1183	call   	dword ptr [0x1fbf]
  === BLOCK LINK ===
    0x1189
=== CODE BLOCK END ===

=== CODE BLOCK ADDRESS 0x1189 ===
  0x1189	nop    	dword ptr [eax + eax]
  0x118e	test   	eax, eax
  0x1190	js     	0x1240
  === BLOCK LINK ===
    0x1196
    0x1240
=== CODE BLOCK END ===

=== CODE BLOCK ADDRESS 0x1196 ===
  0x1196	cmp    	dword ptr [esp + 0x30], 1
  0x119b	jne    	0x1240
  === BLOCK LINK ===
    0x11a1
    0x1240
=== CODE BLOCK END ===

=== CODE BLOCK ADDRESS 0x11a1 ===
  0x11a1	dec    	eax
  0x11a2	call   	dword ptr [0x1fe0]
  === BLOCK LINK ===
    0x11a8
=== CODE BLOCK END ===

=== CODE BLOCK ADDRESS 0x11a8 ===
  0x11a8	nop    	dword ptr [eax + eax]
  0x11ad	dec    	esp
  0x11ae	lea    	eax, [esp + 0x38]
  0x11b2	mov    	edx, 0x28
  0x11b7	dec    	eax
  === BLOCK LINK ===
    0x11b8
=== CODE BLOCK END ===

=== CODE BLOCK ADDRESS 0x11b8 ===
  0x11b8	mov    	ecx, eax
  0x11ba	dec    	eax
  0x11bb	call   	dword ptr [0x1f77]
  === BLOCK LINK ===
    0x11c1
=== CODE BLOCK END ===

=== CODE BLOCK ADDRESS 0x11c1 ===
  0x11c1	nop    	dword ptr [eax + eax]
  0x11c6	test   	eax, eax
  0x11c8	je     	0x1233
  === BLOCK LINK ===
    0x11ca
    0x1233
=== CODE BLOCK END ===

=== CODE BLOCK ADDRESS 0x11ca ===
  0x11ca	dec    	esp
  0x11cb	lea    	eax, [ebp + 4]
  0x11ce	xor    	ecx, ecx
  0x11d0	dec    	eax
  0x11d1	lea    	edx, [0x22f9]
  === BLOCK LINK ===
    0x11d7
=== CODE BLOCK END ===

=== CODE BLOCK ADDRESS 0x11d7 ===
  0x11d7	dec    	eax
  0x11d8	call   	dword ptr [0x1f52]
  === BLOCK LINK ===
    0x11de
=== CODE BLOCK END ===

=== CODE BLOCK ADDRESS 0x11de ===
  0x11de	nop    	dword ptr [eax + eax]
  0x11e3	dec    	eax
  0x11e4	mov    	ecx, dword ptr [esp + 0x38]
  0x11e8	dec    	esp
  0x11e9	lea    	eax, [ebp]
  === BLOCK LINK ===
    0x11ec
=== CODE BLOCK END ===

=== CODE BLOCK ADDRESS 0x11ec ===
  0x11ec	dec    	eax
  0x11ed	and    	dword ptr [esp + 0x28], 0
  0x11f2	inc    	ebp
  0x11f3	xor    	ecx, ecx
  0x11f5	dec    	eax
  === BLOCK LINK ===
    0x11f6
=== CODE BLOCK END ===

=== CODE BLOCK ADDRESS 0x11f6 ===
  0x11f6	and    	dword ptr [esp + 0x20], 0
  0x11fb	xor    	edx, edx
  0x11fd	mov    	dword ptr [ebp], 1
  0x1204	mov    	dword ptr [ebp + 0xc], 2
  0x120b	dec    	eax
  === BLOCK LINK ===
    0x120c
=== CODE BLOCK END ===

=== CODE BLOCK ADDRESS 0x120c ===
  0x120c	call   	dword ptr [0x1f16]
  === BLOCK LINK ===
    0x1212
=== CODE BLOCK END ===

=== CODE BLOCK ADDRESS 0x1212 ===
  0x1212	nop    	dword ptr [eax + eax]
  0x1217	test   	eax, eax
  0x1219	je     	0x1233
  === BLOCK LINK ===
    0x121b
    0x1233
=== CODE BLOCK END ===

=== CODE BLOCK ADDRESS 0x121b ===
  0x121b	mov    	edx, 0x20001
  0x1220	mov    	ecx, 2
  0x1225	dec    	eax
  0x1226	call   	dword ptr [0x1fe4]
  === BLOCK LINK ===
    0x122c
=== CODE BLOCK END ===

=== CODE BLOCK ADDRESS 0x122c ===
  0x122c	nop    	dword ptr [eax + eax]
  0x1231	jmp    	0x1240
  === BLOCK LINK ===
    0x1233
    0x1240
=== CODE BLOCK END ===

=== CODE BLOCK ADDRESS 0x1233 ===
  0x1233	mov    	edx, 0xce
  0x1238	dec    	eax
  0x1239	mov    	ecx, ebx
  0x123b	call   	0x103c
  === BLOCK LINK ===
    0x1240
    0x103c
=== CODE BLOCK END ===

=== CODE BLOCK ADDRESS 0x1240 ===
  0x1240	dec    	eax
  0x1241	mov    	ecx, dword ptr [ebp + 0x10]
  0x1244	dec    	eax
  0x1245	xor    	ecx, esp
  0x1247	call   	0x2380
  === BLOCK LINK ===
    0x124c
    0x2380
=== CODE BLOCK END ===

=== CODE BLOCK ADDRESS 0x124c ===
  0x124c	dec    	eax
  0x124d	mov    	ebx, dword ptr [esp + 0x138]
  0x1254	dec    	eax
  0x1255	add    	esp, 0x120
  0x125b	pop    	ebp
  === BLOCK LINK ===
    0x125c
=== CODE BLOCK END ===

=== CODE BLOCK ADDRESS 0x125c ===
  0x125c	ret    	
  0x125d	int3   	
  0x125e	int3   	
  0x125f	int3   	
  0x1260	int3   	
  === BLOCK LINK ===
    0x1261
=== CODE BLOCK END ===

=== CODE BLOCK ADDRESS 0x1261 ===
  0x1261	int3   	
  0x1262	int3   	
  0x1263	int3   	
  0x1264	dec    	eax
  0x1265	mov    	eax, esp
  === BLOCK LINK ===
    0x1267
=== CODE BLOCK END ===

=== CODE BLOCK ADDRESS 0x1267 ===
  0x1267	dec    	eax
  0x1268	mov    	dword ptr [eax + 0x10], ebx
  0x126b	dec    	eax
  0x126c	mov    	dword ptr [eax + 0x18], esi
  0x126f	dec    	eax
  === BLOCK LINK ===
    0x1270
=== CODE BLOCK END ===

=== CODE BLOCK ADDRESS 0x1270 ===
  0x1270	mov    	dword ptr [eax + 0x20], edi
  0x1273	push   	ebp
  0x1274	inc    	ecx
  0x1275	push   	esp
  0x1276	inc    	ecx
  === BLOCK LINK ===
    0x1277
=== CODE BLOCK END ===

=== CODE BLOCK ADDRESS 0x1277 ===
  0x1277	push   	ebp
  0x1278	inc    	ecx
  0x1279	push   	esi
  0x127a	inc    	ecx
  0x127b	push   	edi
  === BLOCK LINK ===
    0x127c
=== CODE BLOCK END ===

=== CODE BLOCK ADDRESS 0x127c ===
  0x127c	dec    	eax
  0x127d	lea    	ebp, [eax - 0x5f]
  0x1280	dec    	eax
  0x1281	sub    	esp, 0xc0
  0x1287	dec    	eax
  === BLOCK LINK ===
    0x1288
=== CODE BLOCK END ===

=== CODE BLOCK ADDRESS 0x1288 ===
  0x1288	mov    	eax, dword ptr [0x3d7a]
  0x128e	dec    	eax
  0x128f	xor    	eax, esp
  0x1291	dec    	eax
  0x1292	mov    	dword ptr [ebp + 0x2f], eax
  === BLOCK LINK ===
    0x1295
=== CODE BLOCK END ===

=== CODE BLOCK ADDRESS 0x1295 ===
  0x1295	dec    	eax
  0x1296	or     	dword ptr [esp + 0x30], 0xffffffff
  0x129b	inc    	ebp
  0x129c	xor    	ebp, ebp
  0x129e	dec    	esp
  === BLOCK LINK ===
    0x129f
=== CODE BLOCK END ===

=== CODE BLOCK ADDRESS 0x129f ===
  0x129f	mov    	esp, ecx
  0x12a1	mov    	dword ptr [esp + 0x28], 0x80
  0x12a9	inc    	ebp
  0x12aa	xor    	ecx, ecx
  0x12ac	dec    	eax
  === BLOCK LINK ===
    0x12ad
=== CODE BLOCK END ===

=== CODE BLOCK ADDRESS 0x12ad ===
  0x12ad	lea    	ecx, [0x2245]
  0x12b3	mov    	edx, 0x80000000
  0x12b8	inc    	ebp
  0x12b9	mov    	edi, ebp
  0x12bb	inc    	ebp
  === BLOCK LINK ===
    0x12bc
=== CODE BLOCK END ===

=== CODE BLOCK ADDRESS 0x12bc ===
  0x12bc	lea    	eax, [ebp + 3]
  0x12bf	inc    	esp
  0x12c0	mov    	dword ptr [esp + 0x20], eax
  0x12c4	dec    	eax
  0x12c5	call   	dword ptr [0x1eed]
  === BLOCK LINK ===
    0x12cb
=== CODE BLOCK END ===

=== CODE BLOCK ADDRESS 0x12cb ===
  0x12cb	nop    	dword ptr [eax + eax]
  0x12d0	dec    	eax
  0x12d1	mov    	esi, eax
  0x12d3	dec    	eax
  0x12d4	cmp    	eax, -1
  === BLOCK LINK ===
    0x12d7
=== CODE BLOCK END ===

=== CODE BLOCK ADDRESS 0x12d7 ===
  0x12d7	je     	0x14bf
  === BLOCK LINK ===
    0x12dd
    0x14bf
=== CODE BLOCK END ===

=== CODE BLOCK ADDRESS 0x12dd ===
  0x12dd	xorps  	xmm0, xmm0
  0x12e0	dec    	esp
  0x12e1	mov    	dword ptr [ebp + 0x1f], ebp
  0x12e4	inc    	ebp
  0x12e5	lea    	esi, [ebp + 0x24]
  === BLOCK LINK ===
    0x12e8
=== CODE BLOCK END ===

=== CODE BLOCK ADDRESS 0x12e8 ===
  0x12e8	inc    	esp
  0x12e9	mov    	dword ptr [ebp + 0x27], ebp
  0x12ec	movdqu  	xmmword ptr [ebp + 0xf], xmm0
  0x12f1	inc    	esp
  0x12f2	mov    	dword ptr [ebp + 0xb], esi
  === BLOCK LINK ===
    0x12f5
=== CODE BLOCK END ===

=== CODE BLOCK ADDRESS 0x12f5 ===
  0x12f5	mov    	dword ptr [ebp + 7], 0x81
  0x12fc	dec    	eax
  0x12fd	call   	dword ptr [0x1e85]
  === BLOCK LINK ===
    0x1303
=== CODE BLOCK END ===

=== CODE BLOCK ADDRESS 0x1303 ===
  0x1303	nop    	dword ptr [eax + eax]
  0x1308	dec    	eax
  0x1309	mov    	ecx, eax
  0x130b	dec    	esp
  0x130c	lea    	eax, [ebp - 0x41]
  === BLOCK LINK ===
    0x130f
=== CODE BLOCK END ===

=== CODE BLOCK ADDRESS 0x130f ===
  0x130f	inc    	ecx
  0x1310	lea    	edx, [ebp + 0x28]
  0x1313	dec    	eax
  0x1314	call   	dword ptr [0x1e1e]
  === BLOCK LINK ===
    0x131a
=== CODE BLOCK END ===

=== CODE BLOCK ADDRESS 0x131a ===
  0x131a	nop    	dword ptr [eax + eax]
  0x131f	test   	eax, eax
  0x1321	je     	0x14bf
  === BLOCK LINK ===
    0x1327
    0x14bf
=== CODE BLOCK END ===

=== CODE BLOCK ADDRESS 0x1327 ===
  0x1327	dec    	esp
  0x1328	lea    	eax, [ebp - 5]
  0x132b	xor    	ecx, ecx
  0x132d	dec    	eax
  0x132e	lea    	edx, [0x21dc]
  === BLOCK LINK ===
    0x1334
=== CODE BLOCK END ===

=== CODE BLOCK ADDRESS 0x1334 ===
  0x1334	dec    	eax
  0x1335	call   	dword ptr [0x1df5]
  === BLOCK LINK ===
    0x133b
=== CODE BLOCK END ===

=== CODE BLOCK ADDRESS 0x133b ===
  0x133b	nop    	dword ptr [eax + eax]
  0x1340	dec    	eax
  0x1341	mov    	ecx, dword ptr [ebp - 0x41]
  0x1344	dec    	esp
  0x1345	lea    	eax, [ebp - 9]
  === BLOCK LINK ===
    0x1348
=== CODE BLOCK END ===

=== CODE BLOCK ADDRESS 0x1348 ===
  0x1348	inc    	ebp
  0x1349	xor    	ecx, ecx
  0x134b	dec    	esp
  0x134c	mov    	dword ptr [esp + 0x28], ebp
  0x1350	xor    	edx, edx
  === BLOCK LINK ===
    0x1352
=== CODE BLOCK END ===

=== CODE BLOCK ADDRESS 0x1352 ===
  0x1352	mov    	dword ptr [ebp - 9], 1
  0x1359	mov    	dword ptr [ebp + 3], 2
  0x1360	dec    	esp
  0x1361	mov    	dword ptr [esp + 0x20], ebp
  0x1365	dec    	eax
  === BLOCK LINK ===
    0x1366
=== CODE BLOCK END ===

=== CODE BLOCK ADDRESS 0x1366 ===
  0x1366	call   	dword ptr [0x1dbc]
  === BLOCK LINK ===
    0x136c
=== CODE BLOCK END ===

=== CODE BLOCK ADDRESS 0x136c ===
  0x136c	nop    	dword ptr [eax + eax]
  0x1371	test   	eax, eax
  0x1373	je     	0x14bf
  === BLOCK LINK ===
    0x1379
    0x14bf
=== CODE BLOCK END ===

=== CODE BLOCK ADDRESS 0x1379 ===
  0x1379	mov    	edi, 0x400
  0x137e	xor    	ecx, ecx
  0x1380	mov    	edx, edi
  0x1382	dec    	eax
  0x1383	call   	dword ptr [0x1f07]
  === BLOCK LINK ===
    0x1389
=== CODE BLOCK END ===

=== CODE BLOCK ADDRESS 0x1389 ===
  0x1389	nop    	dword ptr [eax + eax]
  0x138e	dec    	eax
  0x138f	mov    	ebx, eax
  0x1391	dec    	eax
  0x1392	test   	eax, eax
  === BLOCK LINK ===
    0x1394
=== CODE BLOCK END ===

=== CODE BLOCK ADDRESS 0x1394 ===
  0x1394	je     	0x14bf
  === BLOCK LINK ===
    0x139a
    0x14bf
=== CODE BLOCK END ===

=== CODE BLOCK ADDRESS 0x139a ===
  0x139a	dec    	esp
  0x139b	mov    	dword ptr [esp + 0x38], ebp
  0x139f	dec    	esp
  0x13a0	lea    	eax, [ebp + 7]
  0x13a3	dec    	esp
  === BLOCK LINK ===
    0x13a4
=== CODE BLOCK END ===

=== CODE BLOCK ADDRESS 0x13a4 ===
  0x13a4	mov    	edi, eax
  0x13a6	inc    	ebp
  0x13a7	mov    	ecx, esi
  0x13a9	dec    	eax
  0x13aa	lea    	eax, [ebp - 0x49]
  === BLOCK LINK ===
    0x13ad
=== CODE BLOCK END ===

=== CODE BLOCK ADDRESS 0x13ad ===
  0x13ad	mov    	edx, 0x90260
  0x13b2	dec    	eax
  0x13b3	mov    	dword ptr [esp + 0x30], eax
  0x13b7	dec    	eax
  0x13b8	mov    	ecx, esi
  === BLOCK LINK ===
    0x13ba
=== CODE BLOCK END ===

=== CODE BLOCK ADDRESS 0x13ba ===
  0x13ba	mov    	dword ptr [esp + 0x28], edi
  0x13be	dec    	eax
  0x13bf	mov    	dword ptr [esp + 0x20], ebx
  0x13c3	dec    	eax
  0x13c4	call   	dword ptr [0x1e36]
  === BLOCK LINK ===
    0x13ca
=== CODE BLOCK END ===

=== CODE BLOCK ADDRESS 0x13ca ===
  0x13ca	nop    	dword ptr [eax + eax]
  0x13cf	mov    	edi, eax
  0x13d1	test   	eax, eax
  0x13d3	jne    	0x13e6
  === BLOCK LINK ===
    0x13d5
    0x13e6
=== CODE BLOCK END ===

=== CODE BLOCK ADDRESS 0x13d5 ===
  0x13d5	dec    	eax
  0x13d6	call   	dword ptr [0x1de4]
  === BLOCK LINK ===
    0x13dc
=== CODE BLOCK END ===

=== CODE BLOCK ADDRESS 0x13dc ===
  0x13dc	nop    	dword ptr [eax + eax]
  0x13e1	jmp    	0x14c2
  === BLOCK LINK ===
    0x13e6
    0x14c2
=== CODE BLOCK END ===

=== CODE BLOCK ADDRESS 0x13e6 ===
  0x13e6	test   	byte ptr [ebx + 0x18], 1
  0x13ea	je     	0x14cf
  === BLOCK LINK ===
    0x13f0
    0x14cf
=== CODE BLOCK END ===

=== CODE BLOCK ADDRESS 0x13f0 ===
  0x13f0	dec    	eax
  0x13f1	add    	ebx, 0x20
  0x13f4	jmp    	0x14ad
  === BLOCK LINK ===
    0x13f9
    0x14ad
=== CODE BLOCK END ===

=== CODE BLOCK ADDRESS 0x13f9 ===
  0x13f9	inc    	sp
  0x13fb	cmp    	dword ptr [ebx + 0xa], ebp
  0x13fe	je     	0x14cf
  === BLOCK LINK ===
    0x1404
    0x14cf
=== CODE BLOCK END ===

=== CODE BLOCK ADDRESS 0x1404 ===
  0x1404	test   	byte ptr [ebx], 1
  0x1407	je     	0x14a6
  === BLOCK LINK ===
    0x140d
    0x14a6
=== CODE BLOCK END ===

=== CODE BLOCK ADDRESS 0x140d ===
  0x140d	dec    	eax
  0x140e	lea    	ecx, [ebp - 0x39]
  0x1411	dec    	eax
  0x1412	call   	dword ptr [0x1f78]
  === BLOCK LINK ===
    0x1418
=== CODE BLOCK END ===

=== CODE BLOCK ADDRESS 0x1418 ===
  0x1418	nop    	dword ptr [eax + eax]
  0x141d	inc    	ecx
  0x141e	or     	eax, 0xffffffff
  0x1421	dec    	eax
  0x1422	lea    	edx, [0x2088]
  === BLOCK LINK ===
    0x1428
=== CODE BLOCK END ===

=== CODE BLOCK ADDRESS 0x1428 ===
  0x1428	dec    	eax
  0x1429	lea    	ecx, [ebp - 0x39]
  0x142c	dec    	eax
  0x142d	call   	dword ptr [0x1edd]
  === BLOCK LINK ===
    0x1433
=== CODE BLOCK END ===

=== CODE BLOCK ADDRESS 0x1433 ===
  0x1433	nop    	dword ptr [eax + eax]
  0x1438	dec    	eax
  0x1439	lea    	edx, [ebx + 0xa]
  0x143c	dec    	eax
  0x143d	lea    	ecx, [ebp - 0x39]
  === BLOCK LINK ===
    0x1440
=== CODE BLOCK END ===

=== CODE BLOCK ADDRESS 0x1440 ===
  0x1440	dec    	eax
  0x1441	call   	dword ptr [0x1ec1]
  === BLOCK LINK ===
    0x1447
=== CODE BLOCK END ===

=== CODE BLOCK ADDRESS 0x1447 ===
  0x1447	nop    	dword ptr [eax + eax]
  0x144c	dec    	eax
  0x144d	lea    	ecx, [ebp - 0x39]
  0x1450	dec    	eax
  0x1451	call   	dword ptr [0x1d09]
  === BLOCK LINK ===
    0x1457
=== CODE BLOCK END ===

=== CODE BLOCK ADDRESS 0x1457 ===
  0x1457	nop    	dword ptr [eax + eax]
  0x145c	dec    	eax
  0x145d	lea    	ecx, [ebp - 0x39]
  0x1460	test   	al, al
  0x1462	jne    	0x1485
  === BLOCK LINK ===
    0x1464
    0x1485
=== CODE BLOCK END ===

=== CODE BLOCK ADDRESS 0x1464 ===
  0x1464	dec    	eax
  0x1465	call   	dword ptr [0x1ced]
  === BLOCK LINK ===
    0x146b
=== CODE BLOCK END ===

=== CODE BLOCK ADDRESS 0x146b ===
  0x146b	nop    	dword ptr [eax + eax]
  0x1470	dec    	eax
  0x1471	lea    	ecx, [ebp - 0x39]
  0x1474	inc    	esp
  0x1475	mov    	dh, al
  === BLOCK LINK ===
    0x1477
=== CODE BLOCK END ===

=== CODE BLOCK ADDRESS 0x1477 ===
  0x1477	dec    	eax
  0x1478	call   	dword ptr [0x1eda]
  === BLOCK LINK ===
    0x147e
=== CODE BLOCK END ===

=== CODE BLOCK ADDRESS 0x147e ===
  0x147e	nop    	dword ptr [eax + eax]
  0x1483	jmp    	0x1494
  === BLOCK LINK ===
    0x1485
=== CODE BLOCK END ===

=== CODE BLOCK ADDRESS 0x1485 ===
  0x1485	dec    	eax
  0x1486	call   	dword ptr [0x1ecc]
  === BLOCK LINK ===
    0x148c
=== CODE BLOCK END ===

=== CODE BLOCK ADDRESS 0x148c ===
  0x148c	nop    	dword ptr [eax + eax]
  0x1491	inc    	ecx
  0x1492	mov    	dh, 1
  0x1494	inc    	ebp
  0x1495	test   	dh, dh
  === BLOCK LINK ===
    0x1497
=== CODE BLOCK END ===

=== CODE BLOCK ADDRESS 0x1497 ===
  0x1497	jne    	0x14a6
  === BLOCK LINK ===
    0x1499
=== CODE BLOCK END ===

=== CODE BLOCK ADDRESS 0x1499 ===
  0x1499	mov    	edx, 0xce
  0x149e	dec    	ecx
  0x149f	mov    	ecx, esp
  0x14a1	call   	0x103c
  === BLOCK LINK ===
    0x14a6
=== CODE BLOCK END ===

=== CODE BLOCK ADDRESS 0x14a6 ===
  0x14a6	movzx  	eax, word ptr [ebx + 8]
  0x14aa	dec    	eax
  0x14ab	add    	ebx, eax
  === BLOCK LINK ===
    0x14ad
=== CODE BLOCK END ===

=== CODE BLOCK ADDRESS 0x14b4 ===
  0x14b4	dec    	eax
  0x14b5	cmp    	ebx, eax
  0x14b7	jb     	0x13f9
  === BLOCK LINK ===
    0x14bd
=== CODE BLOCK END ===

=== CODE BLOCK ADDRESS 0x14bd ===
  0x14bd	jmp    	0x14cf
  === BLOCK LINK ===
    0x14bf
=== CODE BLOCK END ===

=== CODE BLOCK ADDRESS 0x14bf ===
  0x14bf	inc    	ecx
  0x14c0	mov    	edi, ebp
  === BLOCK LINK ===
    0x14c2
=== CODE BLOCK END ===

=== CODE BLOCK ADDRESS 0x14ca ===
  0x14ca	call   	0x103c
  === BLOCK LINK ===
    0x14cf
=== CODE BLOCK END ===

=== CODE BLOCK ADDRESS 0x14cf ===
  0x14cf	dec    	eax
  0x14d0	cmp    	esi, -1
  0x14d3	je     	0x14e4
  === BLOCK LINK ===
    0x14d5
=== CODE BLOCK END ===

=== CODE BLOCK ADDRESS 0x14d5 ===
  0x14d5	dec    	eax
  0x14d6	mov    	ecx, esi
  0x14d8	dec    	eax
  0x14d9	call   	dword ptr [0x1cd1]
  === BLOCK LINK ===
    0x14df
=== CODE BLOCK END ===

=== CODE BLOCK ADDRESS 0x14df ===
  0x14df	nop    	dword ptr [eax + eax]
  0x14e4	dec    	ebp
  0x14e5	test   	edi, edi
  0x14e7	je     	0x14f8
  === BLOCK LINK ===
    0x14e9
=== CODE BLOCK END ===

=== CODE BLOCK ADDRESS 0x14e9 ===
  0x14e9	dec    	ecx
  0x14ea	mov    	ecx, edi
  0x14ec	dec    	eax
  0x14ed	call   	dword ptr [0x1d8d]
  === BLOCK LINK ===
    0x14f3
=== CODE BLOCK END ===

=== CODE BLOCK ADDRESS 0x14f3 ===
  0x14f3	nop    	dword ptr [eax + eax]
  0x14f8	mov    	eax, edi
  0x14fa	dec    	eax
  0x14fb	mov    	ecx, dword ptr [ebp + 0x2f]
  0x14fe	dec    	eax
  === BLOCK LINK ===
    0x14ff
=== CODE BLOCK END ===

=== CODE BLOCK ADDRESS 0x14ff ===
  0x14ff	xor    	ecx, esp
  0x1501	call   	0x2380
  === BLOCK LINK ===
    0x1506
=== CODE BLOCK END ===

=== CODE BLOCK ADDRESS 0x1506 ===
  0x1506	dec    	esp
  0x1507	lea    	ebx, [esp + 0xc0]
  0x150e	dec    	ecx
  0x150f	mov    	ebx, dword ptr [ebx + 0x38]
  0x1512	dec    	ecx
  === BLOCK LINK ===
    0x1513
=== CODE BLOCK END ===

=== CODE BLOCK ADDRESS 0x1513 ===
  0x1513	mov    	esi, dword ptr [ebx + 0x40]
  0x1516	dec    	ecx
  0x1517	mov    	edi, dword ptr [ebx + 0x48]
  0x151a	dec    	ecx
  0x151b	mov    	esp, ebx
  === BLOCK LINK ===
    0x151d
=== CODE BLOCK END ===

=== CODE BLOCK ADDRESS 0x151d ===
  0x151d	inc    	ecx
  0x151e	pop    	edi
  0x151f	inc    	ecx
  0x1520	pop    	esi
  0x1521	inc    	ecx
  === BLOCK LINK ===
    0x1522
=== CODE BLOCK END ===

=== CODE BLOCK ADDRESS 0x1522 ===
  0x1522	pop    	ebp
  0x1523	inc    	ecx
  0x1524	pop    	esp
  0x1525	pop    	ebp
  0x1526	ret    	
  === BLOCK LINK ===
    0x1527
=== CODE BLOCK END ===

=== CODE BLOCK ADDRESS 0x1031 ===
=== CODE BLOCK END ===

=== CODE BLOCK ADDRESS 0x1527 ===
  0x1527	int3   	
  0x1528	int3   	
  0x1529	int3   	
  0x152a	int3   	
  0x152b	int3   	
  === BLOCK LINK ===
    0x152c
=== CODE BLOCK END ===

=== CODE BLOCK ADDRESS 0x152c ===
  0x152c	int3   	
  0x152d	int3   	
  0x152e	int3   	
  0x152f	int3   	
  0x1530	dec    	eax
  === BLOCK LINK ===
    0x1531
=== CODE BLOCK END ===

=== CODE BLOCK ADDRESS 0x1531 ===
  0x1531	mov    	eax, esp
  0x1533	dec    	eax
  0x1534	mov    	dword ptr [eax + 0x10], ebx
  0x1537	dec    	eax
  0x1538	mov    	dword ptr [eax + 0x18], esi
  === BLOCK LINK ===
    0x153b
=== CODE BLOCK END ===

=== CODE BLOCK ADDRESS 0x153b ===
  0x153b	dec    	eax
  0x153c	mov    	dword ptr [eax + 0x20], edi
  0x153f	push   	ebp
  0x1540	inc    	ecx
  0x1541	push   	esp
  === BLOCK LINK ===
    0x1542
=== CODE BLOCK END ===

=== CODE BLOCK ADDRESS 0x1542 ===
  0x1542	inc    	ecx
  0x1543	push   	ebp
  0x1544	inc    	ecx
  0x1545	push   	esi
  0x1546	inc    	ecx
  === BLOCK LINK ===
    0x1547
=== CODE BLOCK END ===

=== CODE BLOCK ADDRESS 0x1547 ===
  0x1547	push   	edi
  0x1548	dec    	eax
  0x1549	lea    	ebp, [eax - 0x5f]
  0x154c	dec    	eax
  0x154d	sub    	esp, 0xc0
  === BLOCK LINK ===
    0x1553
=== CODE BLOCK END ===

=== CODE BLOCK ADDRESS 0x1553 ===
  0x1553	dec    	eax
  0x1554	mov    	eax, dword ptr [0x3aae]
  0x155a	dec    	eax
  0x155b	xor    	eax, esp
  0x155d	dec    	eax
  === BLOCK LINK ===
    0x155e
=== CODE BLOCK END ===

=== CODE BLOCK ADDRESS 0x155e ===
  0x155e	mov    	dword ptr [ebp + 0x2f], eax
  0x1561	dec    	eax
  0x1562	or     	dword ptr [esp + 0x30], 0xffffffff
  0x1567	inc    	ebp
  0x1568	xor    	ebp, ebp
  === BLOCK LINK ===
    0x156a
=== CODE BLOCK END ===

=== CODE BLOCK ADDRESS 0x156a ===
  0x156a	dec    	esp
  0x156b	mov    	esp, ecx
  0x156d	mov    	dword ptr [esp + 0x28], 0x80
  0x1575	inc    	ebp
  0x1576	xor    	ecx, ecx
  === BLOCK LINK ===
    0x1578
=== CODE BLOCK END ===

=== CODE BLOCK ADDRESS 0x1578 ===
  0x1578	dec    	eax
  0x1579	lea    	ecx, [0x1f79]
  0x157f	mov    	edx, 0x80000000
  0x1584	inc    	ebp
  0x1585	mov    	esi, ebp
  === BLOCK LINK ===
    0x1587
=== CODE BLOCK END ===

=== CODE BLOCK ADDRESS 0x1587 ===
  0x1587	inc    	ebp
  0x1588	lea    	eax, [ebp + 3]
  0x158b	inc    	esp
  0x158c	mov    	dword ptr [esp + 0x20], eax
  0x1590	dec    	eax
  === BLOCK LINK ===
    0x1591
=== CODE BLOCK END ===

=== CODE BLOCK ADDRESS 0x1591 ===
  0x1591	call   	dword ptr [0x1c21]
  === BLOCK LINK ===
    0x1597
=== CODE BLOCK END ===

=== CODE BLOCK ADDRESS 0x1597 ===
  0x1597	nop    	dword ptr [eax + eax]
  0x159c	dec    	esp
  0x159d	mov    	edi, eax
  0x159f	dec    	eax
  0x15a0	cmp    	eax, -1
  === BLOCK LINK ===
    0x15a3
=== CODE BLOCK END ===

=== CODE BLOCK ADDRESS 0x15a3 ===
  0x15a3	jne    	0x15ad
  === BLOCK LINK ===
    0x15a5
=== CODE BLOCK END ===

=== CODE BLOCK ADDRESS 0x15a5 ===
  0x15a5	inc    	ecx
  0x15a6	mov    	edi, ebp
  0x15a8	jmp    	0x17b4
  === BLOCK LINK ===
    0x15ad
=== CODE BLOCK END ===

=== CODE BLOCK ADDRESS 0x15ad ===
  0x15ad	xorps  	xmm0, xmm0
  0x15b0	dec    	esp
  0x15b1	mov    	dword ptr [ebp + 0x1f], ebp
  0x15b4	mov    	esi, 0x24
  0x15b9	inc    	esp
  === BLOCK LINK ===
    0x15ba
=== CODE BLOCK END ===

=== CODE BLOCK ADDRESS 0x15ba ===
  0x15ba	mov    	dword ptr [ebp + 0x27], ebp
  0x15bd	movdqu  	xmmword ptr [ebp + 0xf], xmm0
  0x15c2	mov    	dword ptr [ebp + 0xb], esi
  0x15c5	mov    	dword ptr [ebp + 7], 0x81
  0x15cc	dec    	eax
  === BLOCK LINK ===
    0x15cd
=== CODE BLOCK END ===

=== CODE BLOCK ADDRESS 0x15cd ===
  0x15cd	call   	dword ptr [0x1bb5]
  === BLOCK LINK ===
    0x15d3
=== CODE BLOCK END ===

=== CODE BLOCK ADDRESS 0x15d3 ===
  0x15d3	nop    	dword ptr [eax + eax]
  0x15d8	dec    	eax
  0x15d9	mov    	ecx, eax
  0x15db	dec    	esp
  0x15dc	lea    	eax, [ebp - 0x41]
  === BLOCK LINK ===
    0x15df
=== CODE BLOCK END ===

=== CODE BLOCK ADDRESS 0x15df ===
  0x15df	lea    	edx, [esi + 4]
  0x15e2	dec    	eax
  0x15e3	call   	dword ptr [0x1b4f]
  === BLOCK LINK ===
    0x15e9
=== CODE BLOCK END ===

=== CODE BLOCK ADDRESS 0x15e9 ===
  0x15e9	nop    	dword ptr [eax + eax]
  0x15ee	test   	eax, eax
  0x15f0	je     	0x178e
  === BLOCK LINK ===
    0x15f6
=== CODE BLOCK END ===

=== CODE BLOCK ADDRESS 0x15f6 ===
  0x15f6	dec    	esp
  0x15f7	lea    	eax, [ebp - 5]
  0x15fa	xor    	ecx, ecx
  0x15fc	dec    	eax
  0x15fd	lea    	edx, [0x1f0d]
  === BLOCK LINK ===
    0x1603
=== CODE BLOCK END ===

=== CODE BLOCK ADDRESS 0x1603 ===
  0x1603	dec    	eax
  0x1604	call   	dword ptr [0x1b26]
  === BLOCK LINK ===
    0x160a
=== CODE BLOCK END ===

=== CODE BLOCK ADDRESS 0x160a ===
  0x160a	nop    	dword ptr [eax + eax]
  0x160f	dec    	eax
  0x1610	mov    	ecx, dword ptr [ebp - 0x41]
  0x1613	dec    	esp
  0x1614	lea    	eax, [ebp - 9]
  === BLOCK LINK ===
    0x1617
=== CODE BLOCK END ===

=== CODE BLOCK ADDRESS 0x1617 ===
  0x1617	inc    	ebp
  0x1618	xor    	ecx, ecx
  0x161a	dec    	esp
  0x161b	mov    	dword ptr [esp + 0x28], ebp
  0x161f	xor    	edx, edx
  === BLOCK LINK ===
    0x1621
=== CODE BLOCK END ===

=== CODE BLOCK ADDRESS 0x1621 ===
  0x1621	mov    	dword ptr [ebp - 9], 1
  0x1628	mov    	dword ptr [ebp + 3], 2
  0x162f	dec    	esp
  0x1630	mov    	dword ptr [esp + 0x20], ebp
  0x1634	dec    	eax
  === BLOCK LINK ===
    0x1635
=== CODE BLOCK END ===

=== CODE BLOCK ADDRESS 0x1635 ===
  0x1635	call   	dword ptr [0x1aed]
  === BLOCK LINK ===
    0x163b
=== CODE BLOCK END ===

=== CODE BLOCK ADDRESS 0x163b ===
  0x163b	nop    	dword ptr [eax + eax]
  0x1640	test   	eax, eax
  0x1642	je     	0x178e
  === BLOCK LINK ===
    0x1648
=== CODE BLOCK END ===

=== CODE BLOCK ADDRESS 0x1648 ===
  0x1648	mov    	edi, 0x400
  0x164d	xor    	ecx, ecx
  0x164f	mov    	edx, edi
  0x1651	dec    	eax
  0x1652	call   	dword ptr [0x1c38]
  === BLOCK LINK ===
    0x1658
=== CODE BLOCK END ===

=== CODE BLOCK ADDRESS 0x1658 ===
  0x1658	nop    	dword ptr [eax + eax]
  0x165d	dec    	eax
  0x165e	mov    	ebx, eax
  0x1660	dec    	eax
  0x1661	test   	eax, eax
  === BLOCK LINK ===
    0x1663
=== CODE BLOCK END ===

=== CODE BLOCK ADDRESS 0x1663 ===
  0x1663	je     	0x178e
  === BLOCK LINK ===
    0x1669
=== CODE BLOCK END ===

=== CODE BLOCK ADDRESS 0x1669 ===
  0x1669	dec    	esp
  0x166a	mov    	dword ptr [esp + 0x38], ebp
  0x166e	dec    	esp
  0x166f	lea    	eax, [ebp + 7]
  0x1672	dec    	esp
  === BLOCK LINK ===
    0x1673
=== CODE BLOCK END ===

=== CODE BLOCK ADDRESS 0x1673 ===
  0x1673	mov    	esi, eax
  0x1675	inc    	esp
  0x1676	mov    	ecx, esi
  0x1678	dec    	eax
  0x1679	lea    	eax, [ebp - 0x49]
  === BLOCK LINK ===
    0x167c
=== CODE BLOCK END ===

=== CODE BLOCK ADDRESS 0x167c ===
  0x167c	mov    	edx, 0x90260
  0x1681	dec    	eax
  0x1682	mov    	dword ptr [esp + 0x30], eax
  0x1686	dec    	ecx
  0x1687	mov    	ecx, edi
  === BLOCK LINK ===
    0x1689
=== CODE BLOCK END ===

=== CODE BLOCK ADDRESS 0x1689 ===
  0x1689	mov    	dword ptr [esp + 0x28], edi
  0x168d	dec    	eax
  0x168e	mov    	dword ptr [esp + 0x20], ebx
  0x1692	dec    	eax
  0x1693	call   	dword ptr [0x1b67]
  === BLOCK LINK ===
    0x1699
=== CODE BLOCK END ===

=== CODE BLOCK ADDRESS 0x1699 ===
  0x1699	nop    	dword ptr [eax + eax]
  0x169e	mov    	edi, eax
  0x16a0	test   	eax, eax
  0x16a2	jne    	0x16b5
  === BLOCK LINK ===
    0x16a4
=== CODE BLOCK END ===

=== CODE BLOCK ADDRESS 0x16a4 ===
  0x16a4	dec    	eax
  0x16a5	call   	dword ptr [0x1b15]
  === BLOCK LINK ===
    0x16ab
=== CODE BLOCK END ===

=== CODE BLOCK ADDRESS 0x16ab ===
  0x16ab	nop    	dword ptr [eax + eax]
  0x16b0	jmp    	0x1791
  === BLOCK LINK ===
    0x16b5
=== CODE BLOCK END ===

=== CODE BLOCK ADDRESS 0x16b5 ===
  0x16b5	test   	byte ptr [ebx + 0x18], 2
  0x16b9	je     	0x1791
  === BLOCK LINK ===
    0x16bf
=== CODE BLOCK END ===

=== CODE BLOCK ADDRESS 0x16bf ===
  0x16bf	dec    	eax
  0x16c0	add    	ebx, 0x20
  0x16c3	jmp    	0x177c
  === BLOCK LINK ===
    0x16c8
=== CODE BLOCK END ===

=== CODE BLOCK ADDRESS 0x16c8 ===
  0x16c8	inc    	sp
  0x16ca	cmp    	dword ptr [ebx + 0xa], ebp
  0x16cd	je     	0x1791
  === BLOCK LINK ===
    0x16d3
=== CODE BLOCK END ===

=== CODE BLOCK ADDRESS 0x16d3 ===
  0x16d3	test   	byte ptr [ebx], 2
  0x16d6	je     	0x1775
  === BLOCK LINK ===
    0x16dc
=== CODE BLOCK END ===

=== CODE BLOCK ADDRESS 0x16dc ===
  0x16dc	dec    	eax
  0x16dd	lea    	ecx, [ebp - 0x39]
  0x16e0	dec    	eax
  0x16e1	call   	dword ptr [0x1ca9]
  === BLOCK LINK ===
    0x16e7
=== CODE BLOCK END ===

=== CODE BLOCK ADDRESS 0x16e7 ===
  0x16e7	nop    	dword ptr [eax + eax]
  0x16ec	inc    	ecx
  0x16ed	or     	eax, 0xffffffff
  0x16f0	dec    	eax
  0x16f1	lea    	edx, [0x1d99]
  === BLOCK LINK ===
    0x16f7
=== CODE BLOCK END ===

=== CODE BLOCK ADDRESS 0x16f7 ===
  0x16f7	dec    	eax
  0x16f8	lea    	ecx, [ebp - 0x39]
  0x16fb	dec    	eax
  0x16fc	call   	dword ptr [0x1c0e]
  === BLOCK LINK ===
    0x1702
=== CODE BLOCK END ===

=== CODE BLOCK ADDRESS 0x1702 ===
  0x1702	nop    	dword ptr [eax + eax]
  0x1707	dec    	eax
  0x1708	lea    	edx, [ebx + 0xa]
  0x170b	dec    	eax
  0x170c	lea    	ecx, [ebp - 0x39]
  === BLOCK LINK ===
    0x170f
=== CODE BLOCK END ===

=== CODE BLOCK ADDRESS 0x170f ===
  0x170f	dec    	eax
  0x1710	call   	dword ptr [0x1bf2]
  === BLOCK LINK ===
    0x1716
=== CODE BLOCK END ===

=== CODE BLOCK ADDRESS 0x1716 ===
  0x1716	nop    	dword ptr [eax + eax]
  0x171b	dec    	eax
  0x171c	lea    	ecx, [ebp - 0x39]
  0x171f	dec    	eax
  0x1720	call   	dword ptr [0x1a3a]
  === BLOCK LINK ===
    0x1726
=== CODE BLOCK END ===

=== CODE BLOCK ADDRESS 0x1726 ===
  0x1726	nop    	dword ptr [eax + eax]
  0x172b	dec    	eax
  0x172c	lea    	ecx, [ebp - 0x39]
  0x172f	test   	al, al
  0x1731	jne    	0x1754
  === BLOCK LINK ===
    0x1733
=== CODE BLOCK END ===

=== CODE BLOCK ADDRESS 0x1733 ===
  0x1733	dec    	eax
  0x1734	call   	dword ptr [0x1a1e]
  === BLOCK LINK ===
    0x173a
=== CODE BLOCK END ===

=== CODE BLOCK ADDRESS 0x173a ===
  0x173a	nop    	dword ptr [eax + eax]
  0x173f	dec    	eax
  0x1740	lea    	ecx, [ebp - 0x39]
  0x1743	inc    	eax
  0x1744	mov    	dh, al
  === BLOCK LINK ===
    0x1746
=== CODE BLOCK END ===

=== CODE BLOCK ADDRESS 0x1746 ===
  0x1746	dec    	eax
  0x1747	call   	dword ptr [0x1c0b]
  === BLOCK LINK ===
    0x174d
=== CODE BLOCK END ===

=== CODE BLOCK ADDRESS 0x174d ===
  0x174d	nop    	dword ptr [eax + eax]
  0x1752	jmp    	0x1763
  === BLOCK LINK ===
    0x1754
=== CODE BLOCK END ===

=== CODE BLOCK ADDRESS 0x1754 ===
  0x1754	dec    	eax
  0x1755	call   	dword ptr [0x1bfd]
  === BLOCK LINK ===
    0x175b
=== CODE BLOCK END ===

=== CODE BLOCK ADDRESS 0x175b ===
  0x175b	nop    	dword ptr [eax + eax]
  0x1760	inc    	eax
  0x1761	mov    	dh, 1
  0x1763	inc    	eax
  0x1764	test   	dh, dh
  === BLOCK LINK ===
    0x1766
=== CODE BLOCK END ===

=== CODE BLOCK ADDRESS 0x1766 ===
  0x1766	jne    	0x1775
  === BLOCK LINK ===
    0x1768
=== CODE BLOCK END ===

=== CODE BLOCK ADDRESS 0x1768 ===
  0x1768	mov    	edx, 0xce
  0x176d	dec    	ecx
  0x176e	mov    	ecx, esp
  0x1770	call   	0x103c
  === BLOCK LINK ===
    0x1775
=== CODE BLOCK END ===

=== CODE BLOCK ADDRESS 0x1775 ===
  0x1775	movzx  	eax, word ptr [ebx + 8]
  0x1779	dec    	eax
  0x177a	add    	ebx, eax
  0x177c	dec    	eax
  0x177d	lea    	eax, [ebx + 0x400]
  === BLOCK LINK ===
    0x1783
=== CODE BLOCK END ===

=== CODE BLOCK ADDRESS 0x1783 ===
  0x1783	dec    	eax
  0x1784	cmp    	ebx, eax
  0x1786	jb     	0x16c8
  === BLOCK LINK ===
    0x178c
=== CODE BLOCK END ===

=== CODE BLOCK ADDRESS 0x178c ===
  0x178c	jmp    	0x1791
  === BLOCK LINK ===
    0x178e
=== CODE BLOCK END ===

=== CODE BLOCK ADDRESS 0x178e ===
  0x178e	inc    	ecx
  0x178f	mov    	edi, ebp
  0x1791	dec    	ecx
  0x1792	mov    	ecx, edi
  0x1794	dec    	eax
  === BLOCK LINK ===
    0x1795
=== CODE BLOCK END ===

=== CODE BLOCK ADDRESS 0x1795 ===
  0x1795	call   	dword ptr [0x1a15]
  === BLOCK LINK ===
    0x179b
=== CODE BLOCK END ===

=== CODE BLOCK ADDRESS 0x179b ===
  0x179b	nop    	dword ptr [eax + eax]
  0x17a0	dec    	ebp
  0x17a1	test   	esi, esi
  0x17a3	je     	0x17b4
  === BLOCK LINK ===
    0x17a5
=== CODE BLOCK END ===

=== CODE BLOCK ADDRESS 0x17a5 ===
  0x17a5	dec    	ecx
  0x17a6	mov    	ecx, esi
  0x17a8	dec    	eax
  0x17a9	call   	dword ptr [0x1ad1]
  === BLOCK LINK ===
    0x17af
=== CODE BLOCK END ===

=== CODE BLOCK ADDRESS 0x17af ===
  0x17af	nop    	dword ptr [eax + eax]
  0x17b4	mov    	eax, edi
  0x17b6	dec    	eax
  0x17b7	mov    	ecx, dword ptr [ebp + 0x2f]
  0x17ba	dec    	eax
  === BLOCK LINK ===
    0x17bb
=== CODE BLOCK END ===

=== CODE BLOCK ADDRESS 0x17bb ===
  0x17bb	xor    	ecx, esp
  0x17bd	call   	0x2380
  === BLOCK LINK ===
    0x17c2
=== CODE BLOCK END ===

=== CODE BLOCK ADDRESS 0x17c2 ===
  0x17c2	dec    	esp
  0x17c3	lea    	ebx, [esp + 0xc0]
  0x17ca	dec    	ecx
  0x17cb	mov    	ebx, dword ptr [ebx + 0x38]
  0x17ce	dec    	ecx
  === BLOCK LINK ===
    0x17cf
=== CODE BLOCK END ===

=== CODE BLOCK ADDRESS 0x17cf ===
  0x17cf	mov    	esi, dword ptr [ebx + 0x40]
  0x17d2	dec    	ecx
  0x17d3	mov    	edi, dword ptr [ebx + 0x48]
  0x17d6	dec    	ecx
  0x17d7	mov    	esp, ebx
  === BLOCK LINK ===
    0x17d9
=== CODE BLOCK END ===

=== CODE BLOCK ADDRESS 0x17d9 ===
  0x17d9	inc    	ecx
  0x17da	pop    	edi
  0x17db	inc    	ecx
  0x17dc	pop    	esi
  0x17dd	inc    	ecx
  === BLOCK LINK ===
    0x17de
=== CODE BLOCK END ===

=== CODE BLOCK ADDRESS 0x17de ===
  0x17de	pop    	ebp
  0x17df	inc    	ecx
  0x17e0	pop    	esp
  0x17e1	pop    	ebp
  0x17e2	ret    	
  === BLOCK LINK ===
    0x17e3
=== CODE BLOCK END ===

=== CODE BLOCK ADDRESS 0x102d ===
  0x102d	mov    	al, dl
  0x102f	ret    	
  0x1030	int3   	
  0x1031	inc    	ecx
  === BLOCK LINK ===
    0x1032
=== CODE BLOCK END ===

=== CODE BLOCK ADDRESS 0x17e3 ===
  0x17e3	int3   	
  0x17e4	int3   	
  0x17e5	int3   	
  0x17e6	int3   	
  0x17e7	int3   	
  === BLOCK LINK ===
    0x17e8
=== CODE BLOCK END ===

=== CODE BLOCK ADDRESS 0x17e8 ===
  0x17e8	int3   	
  0x17e9	int3   	
  0x17ea	int3   	
  0x17eb	int3   	
  0x17ec	dec    	eax
  === BLOCK LINK ===
    0x17ed
=== CODE BLOCK END ===

=== CODE BLOCK ADDRESS 0x17ed ===
  0x17ed	mov    	eax, esp
  0x17ef	dec    	eax
  0x17f0	mov    	dword ptr [eax + 0x10], ebx
  0x17f3	dec    	eax
  0x17f4	mov    	dword ptr [eax + 0x18], esi
  === BLOCK LINK ===
    0x17f7
=== CODE BLOCK END ===

=== CODE BLOCK ADDRESS 0x17f7 ===
  0x17f7	dec    	eax
  0x17f8	mov    	dword ptr [eax + 0x20], edi
  0x17fb	push   	ebp
  0x17fc	inc    	ecx
  0x17fd	push   	esp
  === BLOCK LINK ===
    0x17fe
=== CODE BLOCK END ===

=== CODE BLOCK ADDRESS 0x17fe ===
  0x17fe	inc    	ecx
  0x17ff	push   	ebp
  0x1800	inc    	ecx
  0x1801	push   	esi
  0x1802	inc    	ecx
  === BLOCK LINK ===
    0x1803
=== CODE BLOCK END ===

=== CODE BLOCK ADDRESS 0x1803 ===
  0x1803	push   	edi
  0x1804	dec    	eax
  0x1805	lea    	ebp, [eax - 0x5f]
  0x1808	dec    	eax
  0x1809	sub    	esp, 0xa0
  === BLOCK LINK ===
    0x180f
=== CODE BLOCK END ===

=== CODE BLOCK ADDRESS 0x180f ===
  0x180f	dec    	eax
  0x1810	mov    	eax, dword ptr [0x37f2]
  0x1816	dec    	eax
  0x1817	xor    	eax, esp
  0x1819	dec    	eax
  === BLOCK LINK ===
    0x181a
=== CODE BLOCK END ===

=== CODE BLOCK ADDRESS 0x181a ===
  0x181a	mov    	dword ptr [ebp + 0x27], eax
  0x181d	dec    	esp
  0x181e	mov    	ebp, ecx
  0x1820	xor    	esi, esi
  0x1822	dec    	eax
  === BLOCK LINK ===
    0x1823
=== CODE BLOCK END ===

=== CODE BLOCK ADDRESS 0x1823 ===
  0x1823	lea    	ecx, [0x1be7]
  0x1829	inc    	esp
  0x182a	mov    	edi, esi
  0x182c	dec    	eax
  0x182d	call   	dword ptr [0x193d]
  === BLOCK LINK ===
    0x1833
=== CODE BLOCK END ===

=== CODE BLOCK ADDRESS 0x1833 ===
  0x1833	nop    	dword ptr [eax + eax]
  0x1838	dec    	eax
  0x1839	mov    	edi, eax
  0x183b	dec    	eax
  0x183c	test   	eax, eax
  === BLOCK LINK ===
    0x183e
=== CODE BLOCK END ===

=== CODE BLOCK ADDRESS 0x183e ===
  0x183e	je     	0x1ae2
  === BLOCK LINK ===
    0x1844
=== CODE BLOCK END ===

=== CODE BLOCK ADDRESS 0x1844 ===
  0x1844	dec    	eax
  0x1845	lea    	edx, [0x1bdd]
  0x184b	dec    	eax
  0x184c	mov    	ecx, eax
  0x184e	dec    	eax
  === BLOCK LINK ===
    0x184f
=== CODE BLOCK END ===

=== CODE BLOCK ADDRESS 0x184f ===
  0x184f	call   	dword ptr [0x1923]
  === BLOCK LINK ===
    0x1855
=== CODE BLOCK END ===

=== CODE BLOCK ADDRESS 0x1855 ===
  0x1855	nop    	dword ptr [eax + eax]
  0x185a	dec    	esp
  0x185b	mov    	esp, eax
  0x185d	dec    	eax
  0x185e	test   	eax, eax
  === BLOCK LINK ===
    0x1860
=== CODE BLOCK END ===

=== CODE BLOCK ADDRESS 0x1860 ===
  0x1860	je     	0x1ad3
  === BLOCK LINK ===
    0x1866
=== CODE BLOCK END ===

=== CODE BLOCK ADDRESS 0x1866 ===
  0x1866	dec    	eax
  0x1867	lea    	edx, [0x1bcb]
  0x186d	dec    	eax
  0x186e	mov    	ecx, edi
  0x1870	dec    	eax
  === BLOCK LINK ===
    0x1871
=== CODE BLOCK END ===

=== CODE BLOCK ADDRESS 0x1871 ===
  0x1871	call   	dword ptr [0x1901]
  === BLOCK LINK ===
    0x1877
=== CODE BLOCK END ===

=== CODE BLOCK ADDRESS 0x1877 ===
  0x1877	nop    	dword ptr [eax + eax]
  0x187c	dec    	eax
  0x187d	test   	eax, eax
  0x187f	je     	0x1ad3
  === BLOCK LINK ===
    0x1885
=== CODE BLOCK END ===

=== CODE BLOCK ADDRESS 0x1885 ===
  0x1885	dec    	eax
  0x1886	lea    	edx, [0x1bc4]
  0x188c	dec    	eax
  0x188d	mov    	ecx, edi
  0x188f	dec    	eax
  === BLOCK LINK ===
    0x1890
=== CODE BLOCK END ===

=== CODE BLOCK ADDRESS 0x1890 ===
  0x1890	call   	dword ptr [0x18e2]
  === BLOCK LINK ===
    0x1896
=== CODE BLOCK END ===

=== CODE BLOCK ADDRESS 0x1896 ===
  0x1896	nop    	dword ptr [eax + eax]
  0x189b	dec    	eax
  0x189c	test   	eax, eax
  0x189e	je     	0x1ad3
  === BLOCK LINK ===
    0x18a4
=== CODE BLOCK END ===

=== CODE BLOCK ADDRESS 0x18a4 ===
  0x18a4	dec    	eax
  0x18a5	lea    	edx, [0x1bb5]
  0x18ab	dec    	eax
  0x18ac	mov    	ecx, edi
  0x18ae	dec    	eax
  === BLOCK LINK ===
    0x18af
=== CODE BLOCK END ===

=== CODE BLOCK ADDRESS 0x18af ===
  0x18af	call   	dword ptr [0x18c3]
  === BLOCK LINK ===
    0x18b5
=== CODE BLOCK END ===

=== CODE BLOCK ADDRESS 0x18b5 ===
  0x18b5	nop    	dword ptr [eax + eax]
  0x18ba	dec    	eax
  0x18bb	test   	eax, eax
  0x18bd	je     	0x1ad3
  === BLOCK LINK ===
    0x18c3
=== CODE BLOCK END ===

=== CODE BLOCK ADDRESS 0x18c3 ===
  0x18c3	dec    	eax
  0x18c4	lea    	edx, [0x1bae]
  0x18ca	dec    	eax
  0x18cb	mov    	ecx, edi
  0x18cd	dec    	eax
  === BLOCK LINK ===
    0x18ce
=== CODE BLOCK END ===

=== CODE BLOCK ADDRESS 0x18ce ===
  0x18ce	call   	dword ptr [0x18a4]
  === BLOCK LINK ===
    0x18d4
=== CODE BLOCK END ===

=== CODE BLOCK ADDRESS 0x18d4 ===
  0x18d4	nop    	dword ptr [eax + eax]
  0x18d9	dec    	eax
  0x18da	or     	dword ptr [esp + 0x30], 0xffffffff
  0x18df	inc    	esp
  0x18e0	lea    	eax, [esi + 3]
  === BLOCK LINK ===
    0x18e3
=== CODE BLOCK END ===

=== CODE BLOCK ADDRESS 0x18e3 ===
  0x18e3	mov    	dword ptr [esp + 0x28], 0x80
  0x18eb	dec    	eax
  0x18ec	lea    	ecx, [0x1c06]
  0x18f2	inc    	ebp
  0x18f3	xor    	ecx, ecx
  === BLOCK LINK ===
    0x18f5
=== CODE BLOCK END ===

=== CODE BLOCK ADDRESS 0x18f5 ===
  0x18f5	inc    	esp
  0x18f6	mov    	dword ptr [esp + 0x20], eax
  0x18fa	mov    	edx, 0x80000000
  0x18ff	dec    	eax
  0x1900	call   	dword ptr [0x18b2]
  === BLOCK LINK ===
    0x1906
=== CODE BLOCK END ===

=== CODE BLOCK ADDRESS 0x1906 ===
  0x1906	nop    	dword ptr [eax + eax]
  0x190b	dec    	esp
  0x190c	mov    	esi, eax
  0x190e	dec    	eax
  0x190f	cmp    	eax, -1
  === BLOCK LINK ===
    0x1912
=== CODE BLOCK END ===

=== CODE BLOCK ADDRESS 0x1912 ===
  0x1912	je     	0x1a16
  === BLOCK LINK ===
    0x1918
=== CODE BLOCK END ===

=== CODE BLOCK ADDRESS 0x1918 ===
  0x1918	xorps  	xmm0, xmm0
  0x191b	dec    	eax
  0x191c	mov    	dword ptr [ebp + 0x17], esi
  0x191f	movdqu  	xmmword ptr [ebp + 7], xmm0
  0x1924	mov    	dword ptr [ebp + 0x1f], esi
  === BLOCK LINK ===
    0x1927
=== CODE BLOCK END ===

=== CODE BLOCK ADDRESS 0x1927 ===
  0x1927	mov    	dword ptr [ebp - 1], 0x81
  0x192e	mov    	dword ptr [ebp + 3], 0x24
  0x1935	dec    	eax
  0x1936	call   	dword ptr [0x184c]
  === BLOCK LINK ===
    0x193c
=== CODE BLOCK END ===

=== CODE BLOCK ADDRESS 0x193c ===
  0x193c	nop    	dword ptr [eax + eax]
  0x1941	dec    	eax
  0x1942	mov    	ecx, eax
  0x1944	dec    	esp
  0x1945	lea    	eax, [ebp - 0x21]
  === BLOCK LINK ===
    0x1948
=== CODE BLOCK END ===

=== CODE BLOCK ADDRESS 0x1948 ===
  0x1948	lea    	edx, [esi + 0x28]
  0x194b	dec    	eax
  0x194c	call   	dword ptr [0x17e6]
  === BLOCK LINK ===
    0x1952
=== CODE BLOCK END ===

=== CODE BLOCK ADDRESS 0x1952 ===
  0x1952	nop    	dword ptr [eax + eax]
  0x1957	test   	eax, eax
  0x1959	je     	0x1a16
  === BLOCK LINK ===
    0x195f
=== CODE BLOCK END ===

=== CODE BLOCK ADDRESS 0x195f ===
  0x195f	dec    	esp
  0x1960	lea    	eax, [ebp - 0x15]
  0x1963	xor    	ecx, ecx
  0x1965	dec    	eax
  0x1966	lea    	edx, [0x1ba4]
  === BLOCK LINK ===
    0x196c
=== CODE BLOCK END ===

=== CODE BLOCK ADDRESS 0x196c ===
  0x196c	dec    	eax
  0x196d	call   	dword ptr [0x17bd]
  === BLOCK LINK ===
    0x1973
=== CODE BLOCK END ===

=== CODE BLOCK ADDRESS 0x1973 ===
  0x1973	nop    	dword ptr [eax + eax]
  0x1978	dec    	eax
  0x1979	mov    	ecx, dword ptr [ebp - 0x21]
  0x197c	dec    	esp
  0x197d	lea    	eax, [ebp - 0x19]
  === BLOCK LINK ===
    0x1980
=== CODE BLOCK END ===

=== CODE BLOCK ADDRESS 0x1980 ===
  0x1980	inc    	ebp
  0x1981	xor    	ecx, ecx
  0x1983	dec    	eax
  0x1984	mov    	dword ptr [esp + 0x28], esi
  0x1988	xor    	edx, edx
  === BLOCK LINK ===
    0x198a
=== CODE BLOCK END ===

=== CODE BLOCK ADDRESS 0x198a ===
  0x198a	mov    	dword ptr [ebp - 0x19], 1
  0x1991	mov    	dword ptr [ebp - 0xd], 2
  0x1998	dec    	eax
  0x1999	mov    	dword ptr [esp + 0x20], esi
  0x199d	dec    	eax
  === BLOCK LINK ===
    0x199e
=== CODE BLOCK END ===

=== CODE BLOCK ADDRESS 0x199e ===
  0x199e	call   	dword ptr [0x1784]
  === BLOCK LINK ===
    0x19a4
=== CODE BLOCK END ===

=== CODE BLOCK ADDRESS 0x19a4 ===
  0x19a4	nop    	dword ptr [eax + eax]
  0x19a9	test   	eax, eax
  0x19ab	je     	0x1a16
  === BLOCK LINK ===
    0x19ad
=== CODE BLOCK END ===

=== CODE BLOCK ADDRESS 0x19ad ===
  0x19ad	mov    	edx, 0x400
  0x19b2	xor    	ecx, ecx
  0x19b4	dec    	eax
  0x19b5	call   	dword ptr [0x18d5]
  === BLOCK LINK ===
    0x19bb
=== CODE BLOCK END ===

=== CODE BLOCK ADDRESS 0x19bb ===
  0x19bb	nop    	dword ptr [eax + eax]
  0x19c0	dec    	eax
  0x19c1	mov    	ebx, eax
  0x19c3	dec    	eax
  0x19c4	test   	eax, eax
  === BLOCK LINK ===
    0x19c6
=== CODE BLOCK END ===

=== CODE BLOCK ADDRESS 0x19c6 ===
  0x19c6	je     	0x1a16
  === BLOCK LINK ===
    0x19c8
=== CODE BLOCK END ===

=== CODE BLOCK ADDRESS 0x19c8 ===
  0x19c8	dec    	eax
  0x19c9	mov    	dword ptr [esp + 0x38], esi
  0x19cd	inc    	esp
  0x19ce	lea    	ecx, [esi + 0x24]
  0x19d1	dec    	esp
  === BLOCK LINK ===
    0x19d2
=== CODE BLOCK END ===

=== CODE BLOCK ADDRESS 0x19d2 ===
  0x19d2	mov    	edi, eax
  0x19d4	dec    	esp
  0x19d5	lea    	eax, [ebp - 1]
  0x19d8	dec    	eax
  0x19d9	lea    	eax, [ebp - 0x29]
  === BLOCK LINK ===
    0x19dc
=== CODE BLOCK END ===

=== CODE BLOCK ADDRESS 0x19dc ===
  0x19dc	mov    	edx, 0x90260
  0x19e1	dec    	eax
  0x19e2	mov    	dword ptr [esp + 0x30], eax
  0x19e6	dec    	ecx
  0x19e7	mov    	ecx, esi
  === BLOCK LINK ===
    0x19e9
=== CODE BLOCK END ===

=== CODE BLOCK ADDRESS 0x19e9 ===
  0x19e9	mov    	dword ptr [esp + 0x28], 0x400
  0x19f1	dec    	eax
  0x19f2	mov    	dword ptr [esp + 0x20], ebx
  0x19f6	dec    	eax
  0x19f7	call   	dword ptr [0x1803]
  === BLOCK LINK ===
    0x19fd
=== CODE BLOCK END ===

=== CODE BLOCK ADDRESS 0x19fd ===
  0x19fd	nop    	dword ptr [eax + eax]
  0x1a02	xor    	edx, edx
  0x1a04	mov    	esi, eax
  0x1a06	test   	eax, eax
  0x1a08	jne    	0x1a62
  === BLOCK LINK ===
    0x1a0a
=== CODE BLOCK END ===

=== CODE BLOCK ADDRESS 0x1a0a ===
  0x1a0a	dec    	eax
  0x1a0b	call   	dword ptr [0x17af]
  === BLOCK LINK ===
    0x1a11
=== CODE BLOCK END ===

=== CODE BLOCK ADDRESS 0x1a11 ===
  0x1a11	nop    	dword ptr [eax + eax]
  0x1a16	mov    	edx, 0xd1
  0x1a1b	dec    	ecx
  0x1a1c	mov    	ecx, ebp
  0x1a1e	call   	0x103c
  === BLOCK LINK ===
    0x1a23
=== CODE BLOCK END ===

=== CODE BLOCK ADDRESS 0x1a23 ===
  0x1a23	dec    	ecx
  0x1a24	cmp    	esi, -1
  0x1a27	je     	0x1a38
  === BLOCK LINK ===
    0x1a29
=== CODE BLOCK END ===

=== CODE BLOCK ADDRESS 0x1a29 ===
  0x1a29	dec    	ecx
  0x1a2a	mov    	ecx, esi
  0x1a2c	dec    	eax
  0x1a2d	call   	dword ptr [0x177d]
  === BLOCK LINK ===
    0x1a33
=== CODE BLOCK END ===

=== CODE BLOCK ADDRESS 0x1a33 ===
  0x1a33	nop    	dword ptr [eax + eax]
  0x1a38	dec    	ebp
  0x1a39	test   	edi, edi
  0x1a3b	je     	0x1a4c
  === BLOCK LINK ===
    0x1a3d
=== CODE BLOCK END ===

=== CODE BLOCK ADDRESS 0x1a3d ===
  0x1a3d	dec    	ecx
  0x1a3e	mov    	ecx, edi
  0x1a40	dec    	eax
  0x1a41	call   	dword ptr [0x1839]
  === BLOCK LINK ===
    0x1a47
=== CODE BLOCK END ===

=== CODE BLOCK ADDRESS 0x1a47 ===
  0x1a47	nop    	dword ptr [eax + eax]
  0x1a4c	dec    	eax
  0x1a4d	mov    	ecx, edi
  0x1a4f	dec    	eax
  0x1a50	call   	dword ptr [0x172a]
  === BLOCK LINK ===
    0x1a56
=== CODE BLOCK END ===

=== CODE BLOCK ADDRESS 0x1a56 ===
  0x1a56	nop    	dword ptr [eax + eax]
  0x1a5b	mov    	eax, esi
  0x1a5d	jmp    	0x1ae4
  === BLOCK LINK ===
    0x1a62
=== CODE BLOCK END ===

=== CODE BLOCK ADDRESS 0x1a62 ===
  0x1a62	test   	byte ptr [ebx + 0x18], 4
  0x1a66	je     	0x1a23
  === BLOCK LINK ===
    0x1a68
=== CODE BLOCK END ===

=== CODE BLOCK ADDRESS 0x1a68 ===
  0x1a68	dec    	eax
  0x1a69	add    	ebx, 0x20
  0x1a6c	jmp    	0x1ac2
  === BLOCK LINK ===
    0x1a6e
=== CODE BLOCK END ===

=== CODE BLOCK ADDRESS 0x1a6e ===
  0x1a6e	dec    	eax
  0x1a6f	lea    	ecx, [ebx + 0xa]
  0x1a72	cmp    	word ptr [ecx], dx
  0x1a75	je     	0x1a23
  === BLOCK LINK ===
    0x1a77
=== CODE BLOCK END ===

=== CODE BLOCK ADDRESS 0x1a77 ===
  0x1a77	test   	byte ptr [ebx], 4
  0x1a7a	je     	0x1abb
  === BLOCK LINK ===
    0x1a7c
=== CODE BLOCK END ===

=== CODE BLOCK ADDRESS 0x1a7c ===
  0x1a7c	xor    	eax, eax
  0x1a7e	dec    	esp
  0x1a7f	lea    	ecx, [ebp - 0x19]
  0x1a82	dec    	eax
  0x1a83	mov    	dword ptr [ebp - 9], eax
  === BLOCK LINK ===
    0x1a86
=== CODE BLOCK END ===

=== CODE BLOCK ADDRESS 0x1a86 ===
  0x1a86	dec    	eax
  0x1a87	lea    	edx, [0x1ab3]
  0x1a8d	dec    	eax
  0x1a8e	lea    	eax, [0xfffff57c]
  0x1a94	xorps  	xmm0, xmm0
  === BLOCK LINK ===
    0x1a97
=== CODE BLOCK END ===

=== CODE BLOCK ADDRESS 0x1a97 ===
  0x1a97	movups  	xmmword ptr [ebp - 0x19], xmm0
  0x1a9b	dec    	eax
  0x1a9c	mov    	dword ptr [esp + 0x20], eax
  0x1aa0	inc    	ebp
  0x1aa1	xor    	eax, eax
  === BLOCK LINK ===
    0x1aa3
=== CODE BLOCK END ===

=== CODE BLOCK ADDRESS 0x1aa3 ===
  0x1aa3	dec    	ecx
  0x1aa4	mov    	eax, esp
  0x1aa6	mov    	dword ptr [ebp - 0x15], 0x80008000
  0x1aad	mov    	word ptr [ebp - 0x19], 0x101
  0x1ab3	call   	dword ptr [0x18ef]
  === BLOCK LINK ===
    0x1ab9
=== CODE BLOCK END ===

=== CODE BLOCK ADDRESS 0x1ab9 ===
  0x1ab9	xor    	edx, edx
  0x1abb	movzx  	eax, word ptr [ebx + 8]
  0x1abf	dec    	eax
  0x1ac0	add    	ebx, eax
  0x1ac2	dec    	eax
  === BLOCK LINK ===
    0x1ac3
=== CODE BLOCK END ===

=== CODE BLOCK ADDRESS 0x1ac3 ===
  0x1ac3	lea    	eax, [ebx + 0x400]
  0x1ac9	dec    	eax
  0x1aca	cmp    	ebx, eax
  0x1acc	jb     	0x1a6e
  === BLOCK LINK ===
    0x1ace
=== CODE BLOCK END ===

=== CODE BLOCK ADDRESS 0x1ace ===
  0x1ace	jmp    	0x1a23
  === BLOCK LINK ===
    0x1ad3
=== CODE BLOCK END ===

=== CODE BLOCK ADDRESS 0x1ad3 ===
  0x1ad3	dec    	eax
  0x1ad4	mov    	ecx, edi
  0x1ad6	dec    	eax
  0x1ad7	call   	dword ptr [0x16a3]
  === BLOCK LINK ===
    0x1add
=== CODE BLOCK END ===

=== CODE BLOCK ADDRESS 0x1add ===
  0x1add	nop    	dword ptr [eax + eax]
  0x1ae2	xor    	eax, eax
  0x1ae4	dec    	eax
  0x1ae5	mov    	ecx, dword ptr [ebp + 0x27]
  0x1ae8	dec    	eax
  === BLOCK LINK ===
    0x1ae9
=== CODE BLOCK END ===

=== CODE BLOCK ADDRESS 0x1ae9 ===
  0x1ae9	xor    	ecx, esp
  0x1aeb	call   	0x2380
  === BLOCK LINK ===
    0x1af0
=== CODE BLOCK END ===

=== CODE BLOCK ADDRESS 0x1af0 ===
  0x1af0	dec    	esp
  0x1af1	lea    	ebx, [esp + 0xa0]
  0x1af8	dec    	ecx
  0x1af9	mov    	ebx, dword ptr [ebx + 0x38]
  0x1afc	dec    	ecx
  === BLOCK LINK ===
    0x1afd
=== CODE BLOCK END ===

=== CODE BLOCK ADDRESS 0x1afd ===
  0x1afd	mov    	esi, dword ptr [ebx + 0x40]
  0x1b00	dec    	ecx
  0x1b01	mov    	edi, dword ptr [ebx + 0x48]
  0x1b04	dec    	ecx
  0x1b05	mov    	esp, ebx
  === BLOCK LINK ===
    0x1b07
=== CODE BLOCK END ===

=== CODE BLOCK ADDRESS 0x1b07 ===
  0x1b07	inc    	ecx
  0x1b08	pop    	edi
  0x1b09	inc    	ecx
  0x1b0a	pop    	esi
  0x1b0b	inc    	ecx
  === BLOCK LINK ===
    0x1b0c
=== CODE BLOCK END ===

=== CODE BLOCK ADDRESS 0x1b0c ===
  0x1b0c	pop    	ebp
  0x1b0d	inc    	ecx
  0x1b0e	pop    	esp
  0x1b0f	pop    	ebp
  0x1b10	ret    	
  === BLOCK LINK ===
    0x1b11
=== CODE BLOCK END ===

=== CODE BLOCK ADDRESS 0x1b11 ===
  0x1b11	int3   	
  0x1b12	int3   	
  0x1b13	int3   	
  0x1b14	int3   	
  0x1b15	int3   	
  === BLOCK LINK ===
    0x1b16
=== CODE BLOCK END ===

=== CODE BLOCK ADDRESS 0x1b16 ===
  0x1b16	int3   	
  0x1b17	int3   	
  0x1b18	dec    	eax
  0x1b19	mov    	eax, esp
  0x1b1b	dec    	eax
  === BLOCK LINK ===
    0x1b1c
=== CODE BLOCK END ===

=== CODE BLOCK ADDRESS 0x1b1c ===
  0x1b1c	mov    	dword ptr [eax + 8], ebx
  0x1b1f	dec    	eax
  0x1b20	mov    	dword ptr [eax + 0x10], esi
  0x1b23	dec    	eax
  0x1b24	mov    	dword ptr [eax + 0x18], edi
  === BLOCK LINK ===
    0x1b27
=== CODE BLOCK END ===

=== CODE BLOCK ADDRESS 0x1b27 ===
  0x1b27	dec    	esp
  0x1b28	mov    	dword ptr [eax + 0x20], esi
  0x1b2b	push   	ebp
  0x1b2c	dec    	eax
  0x1b2d	lea    	ebp, [eax - 0x368]
  === BLOCK LINK ===
    0x1b33
=== CODE BLOCK END ===

=== CODE BLOCK ADDRESS 0x1b33 ===
  0x1b33	dec    	eax
  0x1b34	sub    	esp, 0x460
  0x1b3a	dec    	eax
  0x1b3b	mov    	edi, ecx
  0x1b3d	dec    	eax
  === BLOCK LINK ===
    0x1b3e
=== CODE BLOCK END ===

=== CODE BLOCK ADDRESS 0x1b3e ===
  0x1b3e	lea    	ecx, [ebp + 0x150]
  0x1b44	dec    	eax
  0x1b45	call   	dword ptr [0x179d]
  === BLOCK LINK ===
    0x1b4b
=== CODE BLOCK END ===

=== CODE BLOCK ADDRESS 0x1b4b ===
  0x1b4b	nop    	dword ptr [eax + eax]
  0x1b50	dec    	eax
  0x1b51	lea    	ecx, [esp + 0x48]
  0x1b55	dec    	eax
  0x1b56	call   	dword ptr [0x17dc]
  === BLOCK LINK ===
    0x1b5c
=== CODE BLOCK END ===

=== CODE BLOCK ADDRESS 0x1b5c ===
  0x1b5c	nop    	dword ptr [eax + eax]
  0x1b61	dec    	eax
  0x1b62	lea    	ecx, [esp + 0x20]
  0x1b66	dec    	eax
  0x1b67	call   	dword ptr [0x17cb]
  === BLOCK LINK ===
    0x1b6d
=== CODE BLOCK END ===

=== CODE BLOCK ADDRESS 0x1b6d ===
  0x1b6d	nop    	dword ptr [eax + eax]
  0x1b72	dec    	eax
  0x1b73	lea    	ecx, [ebp + 0xf0]
  0x1b79	dec    	eax
  0x1b7a	call   	dword ptr [0x1780]
  === BLOCK LINK ===
    0x1b80
=== CODE BLOCK END ===

=== CODE BLOCK ADDRESS 0x1b80 ===
  0x1b80	nop    	dword ptr [eax + eax]
  0x1b85	dec    	eax
  0x1b86	lea    	ecx, [ebp + 0x30]
  0x1b89	dec    	eax
  0x1b8a	call   	dword ptr [0x1798]
  === BLOCK LINK ===
    0x1b90
=== CODE BLOCK END ===

=== CODE BLOCK ADDRESS 0x1b90 ===
  0x1b90	nop    	dword ptr [eax + eax]
  0x1b95	dec    	eax
  0x1b96	lea    	ecx, [ebp - 0x30]
  0x1b99	dec    	eax
  0x1b9a	call   	dword ptr [0x1788]
  === BLOCK LINK ===
    0x1ba0
=== CODE BLOCK END ===

=== CODE BLOCK ADDRESS 0x1ba0 ===
  0x1ba0	nop    	dword ptr [eax + eax]
  0x1ba5	dec    	eax
  0x1ba6	lea    	ecx, [esp + 0x70]
  0x1baa	dec    	eax
  0x1bab	call   	dword ptr [0x1777]
  === BLOCK LINK ===
    0x1bb1
=== CODE BLOCK END ===

=== CODE BLOCK ADDRESS 0x1bb1 ===
  0x1bb1	nop    	dword ptr [eax + eax]
  0x1bb6	dec    	eax
  0x1bb7	lea    	ecx, [ebp + 0x90]
  0x1bbd	dec    	eax
  0x1bbe	call   	dword ptr [0x1764]
  === BLOCK LINK ===
    0x1bc4
=== CODE BLOCK END ===

=== CODE BLOCK ADDRESS 0x1bc4 ===
  0x1bc4	nop    	dword ptr [eax + eax]
  0x1bc9	xor    	ebx, ebx
  0x1bcb	xor    	ecx, ecx
  0x1bcd	mov    	esi, ebx
  0x1bcf	lea    	edx, [ebx + 6]
  === BLOCK LINK ===
    0x1bd2
=== CODE BLOCK END ===

=== CODE BLOCK ADDRESS 0x1bd2 ===
  0x1bd2	dec    	eax
  0x1bd3	call   	dword ptr [0x1647]
  === BLOCK LINK ===
    0x1bd9
=== CODE BLOCK END ===

=== CODE BLOCK ADDRESS 0x1bd9 ===
  0x1bd9	nop    	dword ptr [eax + eax]
  0x1bde	lea    	edx, [ebx + 0x32]
  0x1be1	inc    	esp
  0x1be2	mov    	esi, eax
  0x1be4	inc    	esp
  === BLOCK LINK ===
    0x1be5
=== CODE BLOCK END ===

=== CODE BLOCK ADDRESS 0x1be5 ===
  0x1be5	lea    	eax, [ebx + 0x19]
  0x1be8	dec    	eax
  0x1be9	lea    	ecx, [esp + 0x20]
  0x1bed	dec    	eax
  0x1bee	call   	dword ptr [0x1754]
  === BLOCK LINK ===
    0x1bf4
=== CODE BLOCK END ===

=== CODE BLOCK ADDRESS 0x1bf4 ===
  0x1bf4	nop    	dword ptr [eax + eax]
  0x1bf9	test   	al, al
  0x1bfb	je     	0x1ea7
  === BLOCK LINK ===
    0x1c01
=== CODE BLOCK END ===

=== CODE BLOCK ADDRESS 0x1c01 ===
  0x1c01	dec    	eax
  0x1c02	lea    	edx, [0x1944]
  0x1c08	dec    	eax
  0x1c09	lea    	ecx, [ebp + 0xf0]
  0x1c0f	dec    	eax
  === BLOCK LINK ===
    0x1c10
=== CODE BLOCK END ===

=== CODE BLOCK ADDRESS 0x1c10 ===
  0x1c10	call   	dword ptr [0x16da]
  === BLOCK LINK ===
    0x1c16
=== CODE BLOCK END ===

=== CODE BLOCK ADDRESS 0x1c16 ===
  0x1c16	nop    	dword ptr [eax + eax]
  0x1c1b	test   	al, al
  0x1c1d	je     	0x1ea7
  === BLOCK LINK ===
    0x1c23
=== CODE BLOCK END ===

=== CODE BLOCK ADDRESS 0x1c23 ===
  0x1c23	dec    	eax
  0x1c24	lea    	edx, [0x1926]
  0x1c2a	dec    	eax
  0x1c2b	lea    	ecx, [ebp + 0x30]
  0x1c2e	dec    	eax
  === BLOCK LINK ===
    0x1c2f
=== CODE BLOCK END ===

=== CODE BLOCK ADDRESS 0x1c2f ===
  0x1c2f	call   	dword ptr [0x16fb]
  === BLOCK LINK ===
    0x1c35
=== CODE BLOCK END ===

=== CODE BLOCK ADDRESS 0x1c35 ===
  0x1c35	nop    	dword ptr [eax + eax]
  0x1c3a	test   	al, al
  0x1c3c	je     	0x1ea7
  === BLOCK LINK ===
    0x1c42
=== CODE BLOCK END ===

=== CODE BLOCK ADDRESS 0x1c42 ===
  0x1c42	dec    	eax
  0x1c43	lea    	edx, [0x1913]
  0x1c49	dec    	eax
  0x1c4a	lea    	ecx, [ebp - 0x30]
  0x1c4d	dec    	eax
  === BLOCK LINK ===
    0x1c4e
=== CODE BLOCK END ===

=== CODE BLOCK ADDRESS 0x1c4e ===
  0x1c4e	call   	dword ptr [0x16dc]
  === BLOCK LINK ===
    0x1c54
=== CODE BLOCK END ===

=== CODE BLOCK ADDRESS 0x1c54 ===
  0x1c54	nop    	dword ptr [eax + eax]
  0x1c59	test   	al, al
  0x1c5b	je     	0x1ea7
  === BLOCK LINK ===
    0x1c61
=== CODE BLOCK END ===

=== CODE BLOCK ADDRESS 0x1c61 ===
  0x1c61	dec    	eax
  0x1c62	lea    	edx, [0x18fc]
  0x1c68	dec    	eax
  0x1c69	lea    	ecx, [esp + 0x70]
  0x1c6d	dec    	eax
  === BLOCK LINK ===
    0x1c6e
=== CODE BLOCK END ===

=== CODE BLOCK ADDRESS 0x1c6e ===
  0x1c6e	call   	dword ptr [0x16bc]
  === BLOCK LINK ===
    0x1c74
=== CODE BLOCK END ===

=== CODE BLOCK ADDRESS 0x1c74 ===
  0x1c74	nop    	dword ptr [eax + eax]
  0x1c79	test   	al, al
  0x1c7b	je     	0x1ea7
  === BLOCK LINK ===
    0x1c81
=== CODE BLOCK END ===

=== CODE BLOCK ADDRESS 0x1c81 ===
  0x1c81	dec    	eax
  0x1c82	lea    	edx, [0x18e4]
  0x1c88	dec    	eax
  0x1c89	lea    	ecx, [ebp + 0x90]
  0x1c8f	dec    	eax
  === BLOCK LINK ===
    0x1c90
=== CODE BLOCK END ===

=== CODE BLOCK ADDRESS 0x1c90 ===
  0x1c90	call   	dword ptr [0x169a]
  === BLOCK LINK ===
    0x1c96
=== CODE BLOCK END ===

=== CODE BLOCK ADDRESS 0x1c96 ===
  0x1c96	nop    	dword ptr [eax + eax]
  0x1c9b	test   	al, al
  0x1c9d	je     	0x1ea7
  === BLOCK LINK ===
    0x1ca3
=== CODE BLOCK END ===

=== CODE BLOCK ADDRESS 0x1ca3 ===
  0x1ca3	dec    	eax
  0x1ca4	lea    	edx, [ebp + 0xf0]
  0x1caa	dec    	eax
  0x1cab	lea    	ecx, [esp + 0x20]
  0x1caf	dec    	eax
  === BLOCK LINK ===
    0x1cb0
=== CODE BLOCK END ===

=== CODE BLOCK ADDRESS 0x1cb0 ===
  0x1cb0	call   	dword ptr [0x169a]
  === BLOCK LINK ===
    0x1cb6
=== CODE BLOCK END ===

=== CODE BLOCK ADDRESS 0x1cb6 ===
  0x1cb6	nop    	dword ptr [eax + eax]
  0x1cbb	test   	al, al
  0x1cbd	je     	0x1ea7
  === BLOCK LINK ===
    0x1cc3
=== CODE BLOCK END ===

=== CODE BLOCK ADDRESS 0x1cc3 ===
  0x1cc3	dec    	eax
  0x1cc4	lea    	edx, [ebp + 0x30]
  0x1cc7	dec    	eax
  0x1cc8	lea    	ecx, [esp + 0x20]
  0x1ccc	dec    	eax
  === BLOCK LINK ===
    0x1ccd
=== CODE BLOCK END ===

=== CODE BLOCK ADDRESS 0x1ccd ===
  0x1ccd	call   	dword ptr [0x167d]
  === BLOCK LINK ===
    0x1cd3
=== CODE BLOCK END ===

=== CODE BLOCK ADDRESS 0x1cd3 ===
  0x1cd3	nop    	dword ptr [eax + eax]
  0x1cd8	test   	al, al
  0x1cda	je     	0x1ea7
  === BLOCK LINK ===
    0x1ce0
=== CODE BLOCK END ===

=== CODE BLOCK ADDRESS 0x1ce0 ===
  0x1ce0	dec    	eax
  0x1ce1	lea    	edx, [ebp - 0x30]
  0x1ce4	dec    	eax
  0x1ce5	lea    	ecx, [esp + 0x20]
  0x1ce9	dec    	eax
  === BLOCK LINK ===
    0x1cea
=== CODE BLOCK END ===

=== CODE BLOCK ADDRESS 0x1cea ===
  0x1cea	call   	dword ptr [0x1660]
  === BLOCK LINK ===
    0x1cf0
=== CODE BLOCK END ===

=== CODE BLOCK ADDRESS 0x1cf0 ===
  0x1cf0	nop    	dword ptr [eax + eax]
  0x1cf5	test   	al, al
  0x1cf7	je     	0x1ea7
  === BLOCK LINK ===
    0x1cfd
=== CODE BLOCK END ===

=== CODE BLOCK ADDRESS 0x1cfd ===
  0x1cfd	dec    	eax
  0x1cfe	lea    	edx, [esp + 0x70]
  0x1d02	dec    	eax
  0x1d03	lea    	ecx, [esp + 0x20]
  0x1d07	dec    	eax
  === BLOCK LINK ===
    0x1d08
=== CODE BLOCK END ===

=== CODE BLOCK ADDRESS 0x1d08 ===
  0x1d08	call   	dword ptr [0x1642]
  === BLOCK LINK ===
    0x1d0e
=== CODE BLOCK END ===

=== CODE BLOCK ADDRESS 0x1d0e ===
  0x1d0e	nop    	dword ptr [eax + eax]
  0x1d13	test   	al, al
  0x1d15	je     	0x1ea7
  === BLOCK LINK ===
    0x1d1b
=== CODE BLOCK END ===

=== CODE BLOCK ADDRESS 0x1d1b ===
  0x1d1b	dec    	eax
  0x1d1c	lea    	edx, [ebp + 0x90]
  0x1d22	dec    	eax
  0x1d23	lea    	ecx, [esp + 0x20]
  0x1d27	dec    	eax
  === BLOCK LINK ===
    0x1d28
=== CODE BLOCK END ===

=== CODE BLOCK ADDRESS 0x1d28 ===
  0x1d28	call   	dword ptr [0x1622]
  === BLOCK LINK ===
    0x1d2e
=== CODE BLOCK END ===

=== CODE BLOCK ADDRESS 0x1d2e ===
  0x1d2e	nop    	dword ptr [eax + eax]
  0x1d33	test   	al, al
  0x1d35	je     	0x1ea7
  === BLOCK LINK ===
    0x1d3b
=== CODE BLOCK END ===

=== CODE BLOCK ADDRESS 0x1d3b ===
  0x1d3b	lea    	edx, [ebx + 0x32]
  0x1d3e	inc    	esp
  0x1d3f	lea    	eax, [ebx + 0x19]
  0x1d42	dec    	eax
  0x1d43	lea    	ecx, [esp + 0x48]
  === BLOCK LINK ===
    0x1d47
=== CODE BLOCK END ===

=== CODE BLOCK ADDRESS 0x1d47 ===
  0x1d47	dec    	eax
  0x1d48	call   	dword ptr [0x15fa]
  === BLOCK LINK ===
    0x1d4e
=== CODE BLOCK END ===

=== CODE BLOCK ADDRESS 0x1d4e ===
  0x1d4e	nop    	dword ptr [eax + eax]
  0x1d53	test   	al, al
  0x1d55	je     	0x1ea7
  === BLOCK LINK ===
    0x1d5b
=== CODE BLOCK END ===

=== CODE BLOCK ADDRESS 0x1d5b ===
  0x1d5b	dec    	eax
  0x1d5c	lea    	edx, [esp + 0x48]
  0x1d60	dec    	eax
  0x1d61	lea    	ecx, [ebp + 0x150]
  0x1d67	dec    	eax
  === BLOCK LINK ===
    0x1d68
=== CODE BLOCK END ===

=== CODE BLOCK ADDRESS 0x1d68 ===
  0x1d68	call   	dword ptr [0x15f2]
  === BLOCK LINK ===
    0x1d6e
=== CODE BLOCK END ===

=== CODE BLOCK ADDRESS 0x1d6e ===
  0x1d6e	nop    	dword ptr [eax + eax]
  0x1d73	test   	al, al
  0x1d75	je     	0x1ea7
  === BLOCK LINK ===
    0x1d7b
=== CODE BLOCK END ===

=== CODE BLOCK ADDRESS 0x1d7b ===
  0x1d7b	dec    	eax
  0x1d7c	lea    	edx, [0x17ee]
  0x1d82	dec    	eax
  0x1d83	lea    	ecx, [ebp + 0x150]
  0x1d89	dec    	eax
  === BLOCK LINK ===
    0x1d8a
=== CODE BLOCK END ===

=== CODE BLOCK ADDRESS 0x1d8a ===
  0x1d8a	call   	dword ptr [0x15e0]
  === BLOCK LINK ===
    0x1d90
=== CODE BLOCK END ===

=== CODE BLOCK ADDRESS 0x1d90 ===
  0x1d90	nop    	dword ptr [eax + eax]
  0x1d95	inc    	ecx
  0x1d96	or     	eax, 0xffffffff
  0x1d99	dec    	eax
  0x1d9a	lea    	edx, [0x17d4]
  === BLOCK LINK ===
    0x1da0
=== CODE BLOCK END ===

=== CODE BLOCK ADDRESS 0x1da0 ===
  0x1da0	dec    	eax
  0x1da1	lea    	ecx, [ebp + 0x210]
  0x1da7	dec    	eax
  0x1da8	call   	dword ptr [0x1562]
  === BLOCK LINK ===
    0x1dae
=== CODE BLOCK END ===

=== CODE BLOCK ADDRESS 0x1dae ===
  0x1dae	nop    	dword ptr [eax + eax]
  0x1db3	inc    	ecx
  0x1db4	or     	eax, 0xffffffff
  0x1db7	dec    	eax
  0x1db8	lea    	edx, [0x17b6]
  === BLOCK LINK ===
    0x1dbe
=== CODE BLOCK END ===

=== CODE BLOCK ADDRESS 0x1dbe ===
  0x1dbe	dec    	eax
  0x1dbf	lea    	ecx, [ebp + 0x270]
  0x1dc5	dec    	eax
  0x1dc6	call   	dword ptr [0x1544]
  === BLOCK LINK ===
    0x1dcc
=== CODE BLOCK END ===

=== CODE BLOCK ADDRESS 0x1dcc ===
  0x1dcc	nop    	dword ptr [eax + eax]
  0x1dd1	dec    	eax
  0x1dd2	lea    	edx, [0x17a0]
  0x1dd8	dec    	eax
  0x1dd9	lea    	ecx, [ebp + 0x150]
  === BLOCK LINK ===
    0x1ddf
=== CODE BLOCK END ===

=== CODE BLOCK ADDRESS 0x1ddf ===
  0x1ddf	dec    	eax
  0x1de0	call   	dword ptr [0x1582]
  === BLOCK LINK ===
    0x1de6
=== CODE BLOCK END ===

=== CODE BLOCK ADDRESS 0x1de6 ===
  0x1de6	nop    	dword ptr [eax + eax]
  0x1deb	xor    	edx, edx
  0x1ded	dec    	eax
  0x1dee	lea    	ecx, [ebp + 0x150]
  0x1df4	dec    	eax
  === BLOCK LINK ===
    0x1df5
=== CODE BLOCK END ===

=== CODE BLOCK ADDRESS 0x1df5 ===
  0x1df5	call   	dword ptr [0x1585]
  === BLOCK LINK ===
    0x1dfb
=== CODE BLOCK END ===

=== CODE BLOCK ADDRESS 0x1dfb ===
  0x1dfb	nop    	dword ptr [eax + eax]
  0x1e00	xor    	edx, edx
  0x1e02	dec    	eax
  0x1e03	lea    	ecx, [ebp + 0x150]
  0x1e09	dec    	eax
  === BLOCK LINK ===
    0x1e0a
=== CODE BLOCK END ===

=== CODE BLOCK ADDRESS 0x1e0a ===
  0x1e0a	call   	dword ptr [0x1568]
  === BLOCK LINK ===
    0x1e10
=== CODE BLOCK END ===

=== CODE BLOCK ADDRESS 0x1e10 ===
  0x1e10	nop    	dword ptr [eax + eax]
  0x1e15	test   	al, al
  0x1e17	je     	0x1ea7
  === BLOCK LINK ===
    0x1e1d
=== CODE BLOCK END ===

=== CODE BLOCK ADDRESS 0x1e1d ===
  0x1e1d	dec    	eax
  0x1e1e	lea    	edx, [esp + 0x20]
  0x1e22	dec    	eax
  0x1e23	lea    	ecx, [ebp + 0x150]
  0x1e29	dec    	eax
  === BLOCK LINK ===
    0x1e2a
=== CODE BLOCK END ===

=== CODE BLOCK ADDRESS 0x1e2a ===
  0x1e2a	call   	dword ptr [0x14e8]
  === BLOCK LINK ===
    0x1e30
=== CODE BLOCK END ===

=== CODE BLOCK ADDRESS 0x1e30 ===
  0x1e30	nop    	dword ptr [eax + eax]
  0x1e35	test   	al, al
  0x1e37	je     	0x1ea7
  === BLOCK LINK ===
    0x1e39
=== CODE BLOCK END ===

=== CODE BLOCK ADDRESS 0x1e39 ===
  0x1e39	inc    	ebp
  0x1e3a	test   	esi, esi
  0x1e3c	js     	0x1ea7
  === BLOCK LINK ===
    0x1e3e
=== CODE BLOCK END ===

=== CODE BLOCK ADDRESS 0x1e3e ===
  0x1e3e	dec    	eax
  0x1e3f	lea    	ecx, [ebp - 0x30]
  0x1e42	dec    	eax
  0x1e43	call   	dword ptr [0x14d7]
  === BLOCK LINK ===
    0x1e49
=== CODE BLOCK END ===

=== CODE BLOCK ADDRESS 0x1e49 ===
  0x1e49	nop    	dword ptr [eax + eax]
  0x1e4e	test   	al, al
  0x1e50	je     	0x1e5c
  === BLOCK LINK ===
    0x1e52
=== CODE BLOCK END ===

=== CODE BLOCK ADDRESS 0x1e52 ===
  0x1e52	dec    	eax
  0x1e53	mov    	ecx, edi
  0x1e55	call   	0x1264
  === BLOCK LINK ===
    0x1e5a
=== CODE BLOCK END ===

=== CODE BLOCK ADDRESS 0x1e5a ===
  0x1e5a	jmp    	0x1e78
  === BLOCK LINK ===
    0x1e5c
=== CODE BLOCK END ===

=== CODE BLOCK ADDRESS 0x1e5c ===
  0x1e5c	dec    	eax
  0x1e5d	lea    	ecx, [ebp + 0x30]
  0x1e60	dec    	eax
  0x1e61	call   	dword ptr [0x14b9]
  === BLOCK LINK ===
    0x1e67
=== CODE BLOCK END ===

=== CODE BLOCK ADDRESS 0x1e67 ===
  0x1e67	nop    	dword ptr [eax + eax]
  0x1e6c	test   	al, al
  0x1e6e	je     	0x1e7c
  === BLOCK LINK ===
    0x1e70
=== CODE BLOCK END ===

=== CODE BLOCK ADDRESS 0x1e70 ===
  0x1e70	dec    	eax
  0x1e71	mov    	ecx, edi
  0x1e73	call   	0x1530
  === BLOCK LINK ===
    0x1e78
=== CODE BLOCK END ===

=== CODE BLOCK ADDRESS 0x1e78 ===
  0x1e78	mov    	esi, eax
  0x1e7a	jmp    	0x1e99
  === BLOCK LINK ===
    0x1e7c
=== CODE BLOCK END ===

=== CODE BLOCK ADDRESS 0x1e7c ===
  0x1e7c	dec    	eax
  0x1e7d	lea    	ecx, [esp + 0x70]
  0x1e81	dec    	eax
  0x1e82	call   	dword ptr [0x1498]
  === BLOCK LINK ===
    0x1e88
=== CODE BLOCK END ===

=== CODE BLOCK ADDRESS 0x1e88 ===
  0x1e88	nop    	dword ptr [eax + eax]
  0x1e8d	test   	al, al
  0x1e8f	je     	0x1eac
  === BLOCK LINK ===
    0x1e91
=== CODE BLOCK END ===

=== CODE BLOCK ADDRESS 0x1e91 ===
  0x1e91	dec    	eax
  0x1e92	mov    	ecx, edi
  0x1e94	call   	0x17ec
  === BLOCK LINK ===
    0x1e99
=== CODE BLOCK END ===

=== CODE BLOCK ADDRESS 0x1e99 ===
  0x1e99	test   	esi, esi
  0x1e9b	je     	0x1eac
  === BLOCK LINK ===
    0x1e9d
=== CODE BLOCK END ===

=== CODE BLOCK ADDRESS 0x1e9d ===
  0x1e9d	dec    	eax
  0x1e9e	mov    	ecx, edi
  0x1ea0	call   	0x10d0
  === BLOCK LINK ===
    0x1ea5
=== CODE BLOCK END ===

=== CODE BLOCK ADDRESS 0x1ea5 ===
  0x1ea5	jmp    	0x1eac
  === BLOCK LINK ===
    0x1ea7
=== CODE BLOCK END ===

=== CODE BLOCK ADDRESS 0x1ea7 ===
  0x1ea7	mov    	ebx, 1
  0x1eac	dec    	eax
  0x1ead	lea    	ecx, [ebp + 0xb0]
  0x1eb3	dec    	eax
  0x1eb4	call   	dword ptr [0x149e]
  === BLOCK LINK ===
    0x1eba
=== CODE BLOCK END ===

=== CODE BLOCK ADDRESS 0x1eba ===
  0x1eba	nop    	dword ptr [eax + eax]
  0x1ebf	dec    	eax
  0x1ec0	lea    	ecx, [ebp + 0x90]
  0x1ec6	dec    	eax
  0x1ec7	call   	dword ptr [0x14bb]
  === BLOCK LINK ===
    0x1ecd
=== CODE BLOCK END ===

=== CODE BLOCK ADDRESS 0x1ecd ===
  0x1ecd	nop    	dword ptr [eax + eax]
  0x1ed2	dec    	eax
  0x1ed3	lea    	ecx, [ebp - 0x70]
  0x1ed6	dec    	eax
  0x1ed7	call   	dword ptr [0x147b]
  === BLOCK LINK ===
    0x1edd
=== CODE BLOCK END ===

=== CODE BLOCK ADDRESS 0x1edd ===
  0x1edd	nop    	dword ptr [eax + eax]
  0x1ee2	dec    	eax
  0x1ee3	lea    	ecx, [esp + 0x70]
  0x1ee7	dec    	eax
  0x1ee8	call   	dword ptr [0x149a]
  === BLOCK LINK ===
    0x1eee
=== CODE BLOCK END ===

=== CODE BLOCK ADDRESS 0x1eee ===
  0x1eee	nop    	dword ptr [eax + eax]
  0x1ef3	dec    	eax
  0x1ef4	lea    	ecx, [ebp - 0x10]
  0x1ef7	dec    	eax
  0x1ef8	call   	dword ptr [0x145a]
  === BLOCK LINK ===
    0x1efe
=== CODE BLOCK END ===

=== CODE BLOCK ADDRESS 0x1efe ===
  0x1efe	nop    	dword ptr [eax + eax]
  0x1f03	dec    	eax
  0x1f04	lea    	ecx, [ebp - 0x30]
  0x1f07	dec    	eax
  0x1f08	call   	dword ptr [0x147a]
  === BLOCK LINK ===
    0x1f0e
=== CODE BLOCK END ===

=== CODE BLOCK ADDRESS 0x1f0e ===
  0x1f0e	nop    	dword ptr [eax + eax]
  0x1f13	dec    	eax
  0x1f14	lea    	ecx, [ebp + 0x50]
  0x1f17	dec    	eax
  0x1f18	call   	dword ptr [0x143a]
  === BLOCK LINK ===
    0x1f1e
=== CODE BLOCK END ===

=== CODE BLOCK ADDRESS 0x1f1e ===
  0x1f1e	nop    	dword ptr [eax + eax]
  0x1f23	dec    	eax
  0x1f24	lea    	ecx, [ebp + 0x30]
  0x1f27	dec    	eax
  0x1f28	call   	dword ptr [0x145a]
  === BLOCK LINK ===
    0x1f2e
=== CODE BLOCK END ===

=== CODE BLOCK ADDRESS 0x1f2e ===
  0x1f2e	nop    	dword ptr [eax + eax]
  0x1f33	dec    	eax
  0x1f34	lea    	ecx, [ebp + 0xf0]
  0x1f3a	dec    	eax
  0x1f3b	call   	dword ptr [0x13b7]
  === BLOCK LINK ===
    0x1f41
=== CODE BLOCK END ===

=== CODE BLOCK ADDRESS 0x1f41 ===
  0x1f41	nop    	dword ptr [eax + eax]
  0x1f46	dec    	eax
  0x1f47	lea    	ecx, [esp + 0x20]
  0x1f4b	dec    	eax
  0x1f4c	call   	dword ptr [0x13ee]
  === BLOCK LINK ===
    0x1f52
=== CODE BLOCK END ===

=== CODE BLOCK ADDRESS 0x1f52 ===
  0x1f52	nop    	dword ptr [eax + eax]
  0x1f57	dec    	eax
  0x1f58	lea    	ecx, [esp + 0x48]
  0x1f5c	dec    	eax
  0x1f5d	call   	dword ptr [0x13dd]
  === BLOCK LINK ===
    0x1f63
=== CODE BLOCK END ===

=== CODE BLOCK ADDRESS 0x1f63 ===
  0x1f63	nop    	dword ptr [eax + eax]
  0x1f68	dec    	eax
  0x1f69	lea    	ecx, [ebp + 0x150]
  0x1f6f	dec    	eax
  0x1f70	call   	dword ptr [0x136a]
  === BLOCK LINK ===
    0x1f76
=== CODE BLOCK END ===

=== CODE BLOCK ADDRESS 0x1f76 ===
  0x1f76	nop    	dword ptr [eax + eax]
  0x1f7b	dec    	esp
  0x1f7c	lea    	ebx, [esp + 0x460]
  0x1f83	mov    	eax, ebx
  0x1f85	dec    	ecx
  === BLOCK LINK ===
    0x1f86
=== CODE BLOCK END ===

=== CODE BLOCK ADDRESS 0x1f86 ===
  0x1f86	mov    	ebx, dword ptr [ebx + 0x10]
  0x1f89	dec    	ecx
  0x1f8a	mov    	esi, dword ptr [ebx + 0x18]
  0x1f8d	dec    	ecx
  0x1f8e	mov    	edi, dword ptr [ebx + 0x20]
  === BLOCK LINK ===
    0x1f91
=== CODE BLOCK END ===

=== CODE BLOCK ADDRESS 0x1f91 ===
  0x1f91	dec    	ebp
  0x1f92	mov    	esi, dword ptr [ebx + 0x28]
  0x1f95	dec    	ecx
  0x1f96	mov    	esp, ebx
  0x1f98	pop    	ebp
  === BLOCK LINK ===
    0x1f99
=== CODE BLOCK END ===

=== CODE BLOCK ADDRESS 0x1f99 ===
  0x1f99	ret    	
  0x1f9a	int3   	
  0x1f9b	int3   	
  0x1f9c	int3   	
  0x1f9d	int3   	
  === BLOCK LINK ===
    0x1f9e
=== CODE BLOCK END ===

=== CODE BLOCK ADDRESS 0x291d ===
=== CODE BLOCK END ===

=== CODE BLOCK ADDRESS 0x1f9e ===
  0x1f9e	int3   	
  0x1f9f	int3   	
  0x1fa0	int3   	
  0x1fa1	int3   	
  0x1fa2	int3   	
  === BLOCK LINK ===
    0x1fa3
=== CODE BLOCK END ===

=== CODE BLOCK ADDRESS 0x1fa3 ===
  0x1fa3	int3   	
  0x1fa4	int3   	
  0x1fa5	int3   	
  0x1fa6	int3   	
  0x1fa7	int3   	
  === BLOCK LINK ===
    0x1fa8
=== CODE BLOCK END ===

=== CODE BLOCK ADDRESS 0x1fa8 ===
  0x1fa8	int3   	
  0x1fa9	int3   	
  0x1faa	int3   	
  0x1fab	int3   	
  0x1fac	int3   	
  === BLOCK LINK ===
    0x1fad
=== CODE BLOCK END ===

=== CODE BLOCK ADDRESS 0x1fad ===
  0x1fad	int3   	
  0x1fae	int3   	
  0x1faf	int3   	
  0x1fb0	dec    	eax
  0x1fb1	sub    	esp, 0x28
  === BLOCK LINK ===
    0x1fb4
=== CODE BLOCK END ===

=== CODE BLOCK ADDRESS 0x1fb4 ===
  0x1fb4	mov    	eax, 0x5a4d
  0x1fb9	cmp    	word ptr [0xffffe040], ax
  0x1fc0	je     	0x1fc6
  === BLOCK LINK ===
    0x1fc2
=== CODE BLOCK END ===

=== CODE BLOCK ADDRESS 0x1fc2 ===
  0x1fc2	xor    	eax, eax
  0x1fc4	jmp    	0x2019
  === BLOCK LINK ===
    0x1fc6
=== CODE BLOCK END ===

=== CODE BLOCK ADDRESS 0x1fc6 ===
  0x1fc6	dec    	eax
  0x1fc7	arpl   	word ptr [0xffffe06f], cx
  0x1fcd	dec    	eax
  0x1fce	lea    	eax, [0xffffe02c]
  0x1fd4	dec    	eax
  === BLOCK LINK ===
    0x1fd5
=== CODE BLOCK END ===

=== CODE BLOCK ADDRESS 0x1fd5 ===
  0x1fd5	add    	ecx, eax
  0x1fd7	cmp    	dword ptr [ecx], 0x4550
  0x1fdd	jne    	0x1fc2
  === BLOCK LINK ===
    0x1fdf
=== CODE BLOCK END ===

=== CODE BLOCK ADDRESS 0x1fdf ===
  0x1fdf	mov    	eax, 0x10b
  0x1fe4	cmp    	word ptr [ecx + 0x18], ax
  0x1fe8	je     	0x2008
  === BLOCK LINK ===
    0x1fea
=== CODE BLOCK END ===

=== CODE BLOCK ADDRESS 0x1fea ===
  0x1fea	mov    	eax, 0x20b
  0x1fef	cmp    	word ptr [ecx + 0x18], ax
  0x1ff3	jne    	0x1fc2
  === BLOCK LINK ===
    0x1ff5
=== CODE BLOCK END ===

=== CODE BLOCK ADDRESS 0x1ff5 ===
  0x1ff5	xor    	eax, eax
  0x1ff7	cmp    	dword ptr [ecx + 0x84], 0xe
  0x1ffe	jbe    	0x2019
  === BLOCK LINK ===
    0x2000
=== CODE BLOCK END ===

=== CODE BLOCK ADDRESS 0x2000 ===
  0x2000	cmp    	dword ptr [ecx + 0xf8], eax
  0x2006	jmp    	0x2016
  === BLOCK LINK ===
    0x2008
=== CODE BLOCK END ===

=== CODE BLOCK ADDRESS 0x2008 ===
  0x2008	xor    	eax, eax
  0x200a	cmp    	dword ptr [ecx + 0x74], 0xe
  0x200e	jbe    	0x2019
  === BLOCK LINK ===
    0x2010
=== CODE BLOCK END ===

=== CODE BLOCK ADDRESS 0x2010 ===
  0x2010	cmp    	dword ptr [ecx + 0xe8], eax
  0x2016	setne  	al
  0x2019	mov    	ecx, 2
  0x201e	mov    	dword ptr [0x301c], eax
  0x2024	call   	0x2478
  === BLOCK LINK ===
    0x2029
=== CODE BLOCK END ===

=== CODE BLOCK ADDRESS 0x2029 ===
  0x2029	mov    	ecx, eax
  0x202b	call   	dword ptr [0x122f]
  === BLOCK LINK ===
    0x2031
=== CODE BLOCK END ===

=== CODE BLOCK ADDRESS 0x2031 ===
  0x2031	dec    	eax
  0x2032	mov    	ecx, dword ptr [0x1278]
  0x2038	dec    	eax
  0x2039	or     	eax, 0xffffffff
  0x203c	dec    	eax
  === BLOCK LINK ===
    0x203d
=== CODE BLOCK END ===

=== CODE BLOCK ADDRESS 0x203d ===
  0x203d	mov    	dword ptr [0x358d], eax
  0x2043	dec    	eax
  0x2044	mov    	dword ptr [0x358e], eax
  0x204a	mov    	eax, dword ptr [0x3004]
  0x2050	mov    	dword ptr [ecx], eax
  === BLOCK LINK ===
    0x2052
=== CODE BLOCK END ===

=== CODE BLOCK ADDRESS 0x2052 ===
  0x2052	dec    	eax
  0x2053	mov    	ecx, dword ptr [0x1247]
  0x2059	mov    	eax, dword ptr [0x2fe9]
  0x205f	mov    	dword ptr [ecx], eax
  0x2061	call   	0x24d0
  === BLOCK LINK ===
    0x2066
=== CODE BLOCK END ===

=== CODE BLOCK ADDRESS 0x2066 ===
  0x2066	cmp    	dword ptr [0x2f93], 0
  0x206d	jne    	0x207c
  === BLOCK LINK ===
    0x206f
=== CODE BLOCK END ===

=== CODE BLOCK ADDRESS 0x206f ===
  0x206f	dec    	eax
  0x2070	lea    	ecx, [0x45a]
  0x2076	call   	dword ptr [0x11c4]
  === BLOCK LINK ===
    0x207c
=== CODE BLOCK END ===

=== CODE BLOCK ADDRESS 0x207c ===
  0x207c	xor    	eax, eax
  0x207e	dec    	eax
  0x207f	add    	esp, 0x28
  0x2082	ret    	
  0x2083	int3   	
  === BLOCK LINK ===
    0x2084
=== CODE BLOCK END ===

=== CODE BLOCK ADDRESS 0x2084 ===
  0x2084	int3   	
  0x2085	int3   	
  0x2086	int3   	
  0x2087	int3   	
  0x2088	int3   	
  === BLOCK LINK ===
    0x2089
=== CODE BLOCK END ===

=== CODE BLOCK ADDRESS 0x2089 ===
  0x2089	int3   	
  0x208a	int3   	
  0x208b	int3   	
  0x208c	int3   	
  0x208d	int3   	
  === BLOCK LINK ===
    0x208e
=== CODE BLOCK END ===

=== CODE BLOCK ADDRESS 0x208e ===
  0x208e	int3   	
  0x208f	int3   	
  0x2090	dec    	eax
  0x2091	sub    	esp, 0x38
  0x2094	mov    	eax, dword ptr [0x2fb6]
  === BLOCK LINK ===
    0x209a
=== CODE BLOCK END ===

=== CODE BLOCK ADDRESS 0x209a ===
  0x209a	dec    	esp
  0x209b	lea    	eax, [0x2f97]
  0x20a1	inc    	esp
  0x20a2	mov    	ecx, dword ptr [0x2fa4]
  0x20a8	dec    	eax
  === BLOCK LINK ===
    0x20a9
=== CODE BLOCK END ===

=== CODE BLOCK ADDRESS 0x20a9 ===
  0x20a9	lea    	edx, [0x2f81]
  0x20af	mov    	dword ptr [0x2f8f], eax
  0x20b5	dec    	eax
  0x20b6	lea    	ecx, [0x2f6c]
  0x20bc	dec    	eax
  === BLOCK LINK ===
    0x20bd
=== CODE BLOCK END ===

=== CODE BLOCK ADDRESS 0x20bd ===
  0x20bd	lea    	eax, [0x2f81]
  0x20c3	dec    	eax
  0x20c4	mov    	dword ptr [esp + 0x20], eax
  0x20c8	call   	dword ptr [0x119a]
  === BLOCK LINK ===
    0x20ce
=== CODE BLOCK END ===

=== CODE BLOCK ADDRESS 0x20ce ===
  0x20ce	mov    	dword ptr [0x2f58], eax
  0x20d4	dec    	eax
  0x20d5	add    	esp, 0x38
  0x20d8	ret    	
  0x20d9	int3   	
  === BLOCK LINK ===
    0x20da
=== CODE BLOCK END ===

=== CODE BLOCK ADDRESS 0x20da ===
  0x20da	int3   	
  0x20db	int3   	
  0x20dc	int3   	
  0x20dd	int3   	
  0x20de	int3   	
  === BLOCK LINK ===
    0x20df
=== CODE BLOCK END ===

=== CODE BLOCK ADDRESS 0x20df ===
  0x20df	int3   	
  0x20e0	dec    	eax
  0x20e1	mov    	eax, esp
  0x20e3	dec    	eax
  0x20e4	mov    	dword ptr [eax + 8], ebx
  === BLOCK LINK ===
    0x20e7
=== CODE BLOCK END ===

=== CODE BLOCK ADDRESS 0x20e7 ===
  0x20e7	dec    	eax
  0x20e8	mov    	dword ptr [eax + 0x10], esi
  0x20eb	dec    	eax
  0x20ec	mov    	dword ptr [eax + 0x18], edi
  0x20ef	dec    	esp
  === BLOCK LINK ===
    0x20f0
=== CODE BLOCK END ===

=== CODE BLOCK ADDRESS 0x20f0 ===
  0x20f0	mov    	dword ptr [eax + 0x20], esi
  0x20f3	inc    	ecx
  0x20f4	push   	edi
  0x20f5	dec    	eax
  0x20f6	sub    	esp, 0xb0
  === BLOCK LINK ===
    0x20fc
=== CODE BLOCK END ===

=== CODE BLOCK ADDRESS 0x20fc ===
  0x20fc	inc    	ebp
  0x20fd	xor    	esi, esi
  0x20ff	inc    	esp
  0x2100	mov    	dword ptr [esp + 0x20], esi
  0x2104	dec    	eax
  === BLOCK LINK ===
    0x2105
=== CODE BLOCK END ===

=== CODE BLOCK ADDRESS 0x2105 ===
  0x2105	lea    	ecx, [eax - 0x78]
  0x2108	call   	dword ptr [0x108a]
  === BLOCK LINK ===
    0x210e
=== CODE BLOCK END ===

=== CODE BLOCK ADDRESS 0x210e ===
  0x210e	nop    	
  0x210f	dec    	eax
  0x2111	mov    	eax, dword ptr [0x30]
  0x2118	dec    	eax
  0x2119	mov    	ebx, dword ptr [eax + 8]
  === BLOCK LINK ===
    0x211c
=== CODE BLOCK END ===

=== CODE BLOCK ADDRESS 0x211c ===
  0x211c	inc    	ecx
  0x211d	mov    	esi, esi
  0x211f	xor    	eax, eax
  0x2121	.byte  	0xf0
  0x2122	dec    	eax
  === BLOCK LINK ===
    0x2123
=== CODE BLOCK END ===

=== CODE BLOCK ADDRESS 0x2123 ===
  0x2123	cmpxchg  	dword ptr [0x34b6], ebx
  0x212a	je     	0x2147
  === BLOCK LINK ===
    0x212c
=== CODE BLOCK END ===

=== CODE BLOCK ADDRESS 0x212c ===
  0x212c	dec    	eax
  0x212d	cmp    	eax, ebx
  0x212f	jne    	0x213a
  === BLOCK LINK ===
    0x2131
=== CODE BLOCK END ===

=== CODE BLOCK ADDRESS 0x2131 ===
  0x2131	mov    	ebx, 1
  0x2136	mov    	esi, ebx
  0x2138	jmp    	0x214c
  === BLOCK LINK ===
    0x213a
=== CODE BLOCK END ===

=== CODE BLOCK ADDRESS 0x213a ===
  0x213a	mov    	ecx, 0x3e8
  0x213f	call   	dword ptr [0x104b]
  === BLOCK LINK ===
    0x2145
=== CODE BLOCK END ===

=== CODE BLOCK ADDRESS 0x2145 ===
  0x2145	jmp    	0x211f
  === BLOCK LINK ===
    0x2147
=== CODE BLOCK END ===

=== CODE BLOCK ADDRESS 0x2147 ===
  0x2147	mov    	ebx, 1
  0x214c	mov    	eax, dword ptr [0x3496]
  0x2152	cmp    	eax, ebx
  0x2154	jne    	0x2164
  === BLOCK LINK ===
    0x2156
=== CODE BLOCK END ===

=== CODE BLOCK ADDRESS 0x2156 ===
  0x2156	mov    	edi, 0x1f
  0x215b	mov    	ecx, edi
  0x215d	call   	0x24c3
  === BLOCK LINK ===
    0x2162
=== CODE BLOCK END ===

=== CODE BLOCK ADDRESS 0x2162 ===
  0x2162	jmp    	0x21d0
  === BLOCK LINK ===
    0x2164
=== CODE BLOCK END ===

=== CODE BLOCK ADDRESS 0x2164 ===
  0x2164	mov    	eax, dword ptr [0x347e]
  0x216a	test   	eax, eax
  0x216c	jne    	0x21c5
  === BLOCK LINK ===
    0x216e
=== CODE BLOCK END ===

=== CODE BLOCK ADDRESS 0x216e ===
  0x216e	mov    	dword ptr [0x3474], ebx
  0x2174	dec    	esp
  0x2175	lea    	edi, [0x1265]
  0x217b	dec    	eax
  0x217c	lea    	edi, [0x1246]
  === BLOCK LINK ===
    0x2182
=== CODE BLOCK END ===

=== CODE BLOCK ADDRESS 0x2182 ===
  0x2182	dec    	eax
  0x2183	mov    	dword ptr [esp + 0x30], edi
  0x2187	inc    	ecx
  0x2188	mov    	eax, esi
  0x218a	mov    	dword ptr [esp + 0x24], eax
  === BLOCK LINK ===
    0x218e
=== CODE BLOCK END ===

=== CODE BLOCK ADDRESS 0x218e ===
  0x218e	dec    	ecx
  0x218f	cmp    	edi, edi
  0x2191	jae    	0x21b7
  === BLOCK LINK ===
    0x2193
=== CODE BLOCK END ===

=== CODE BLOCK ADDRESS 0x2193 ===
  0x2193	test   	eax, eax
  0x2195	jne    	0x21bb
  === BLOCK LINK ===
    0x2197
=== CODE BLOCK END ===

=== CODE BLOCK ADDRESS 0x2197 ===
  0x2197	dec    	esp
  0x2198	cmp    	dword ptr [edi], esi
  0x219a	je     	0x21ac
  === BLOCK LINK ===
    0x219c
=== CODE BLOCK END ===

=== CODE BLOCK ADDRESS 0x219c ===
  0x219c	dec    	eax
  0x219d	mov    	eax, dword ptr [edi]
  0x219f	dec    	eax
  0x21a0	mov    	ecx, dword ptr [0x1202]
  0x21a6	call   	ecx
  === BLOCK LINK ===
    0x21a8
=== CODE BLOCK END ===

=== CODE BLOCK ADDRESS 0x21a8 ===
  0x21a8	mov    	dword ptr [esp + 0x24], eax
  0x21ac	dec    	eax
  0x21ad	add    	edi, 8
  0x21b0	dec    	eax
  0x21b1	mov    	dword ptr [esp + 0x30], edi
  === BLOCK LINK ===
    0x21b5
=== CODE BLOCK END ===

=== CODE BLOCK ADDRESS 0x21b5 ===
  0x21b5	jmp    	0x218e
  === BLOCK LINK ===
    0x21b7
=== CODE BLOCK END ===

=== CODE BLOCK ADDRESS 0x21b7 ===
  0x21b7	test   	eax, eax
  0x21b9	je     	0x21cb
  === BLOCK LINK ===
    0x21bb
=== CODE BLOCK END ===

=== CODE BLOCK ADDRESS 0x21bb ===
  0x21bb	mov    	eax, 0xff
  0x21c0	jmp    	0x2326
  === BLOCK LINK ===
    0x21c5
=== CODE BLOCK END ===

=== CODE BLOCK ADDRESS 0x21c5 ===
  0x21c5	mov    	dword ptr [0x2e59], ebx
  0x21cb	mov    	edi, 0x1f
  0x21d0	mov    	eax, dword ptr [0x3412]
  0x21d6	cmp    	eax, ebx
  0x21d8	jne    	0x21f7
  === BLOCK LINK ===
    0x21da
=== CODE BLOCK END ===

=== CODE BLOCK ADDRESS 0x21da ===
  0x21da	dec    	eax
  0x21db	lea    	edx, [0x11df]
  0x21e1	dec    	eax
  0x21e2	lea    	ecx, [0x11c8]
  0x21e8	call   	0x269e
  === BLOCK LINK ===
    0x21ed
=== CODE BLOCK END ===

=== CODE BLOCK ADDRESS 0x21ed ===
  0x21ed	mov    	dword ptr [0x33f1], 2
  0x21f7	test   	esi, esi
  0x21f9	jne    	0x2205
  === BLOCK LINK ===
    0x21fb
=== CODE BLOCK END ===

=== CODE BLOCK ADDRESS 0x21fb ===
  0x21fb	dec    	ecx
  0x21fc	mov    	eax, esi
  0x21fe	dec    	eax
  0x21ff	xchg   	dword ptr [0x33db], eax
  0x2205	dec    	esp
  === BLOCK LINK ===
    0x2206
=== CODE BLOCK END ===

=== CODE BLOCK ADDRESS 0x2206 ===
  0x2206	cmp    	dword ptr [0x33e4], esi
  0x220c	je     	0x2238
  === BLOCK LINK ===
    0x220e
=== CODE BLOCK END ===

=== CODE BLOCK ADDRESS 0x220e ===
  0x220e	dec    	eax
  0x220f	lea    	ecx, [0x33db]
  0x2215	call   	0x2530
  === BLOCK LINK ===
    0x221a
=== CODE BLOCK END ===

=== CODE BLOCK ADDRESS 0x221a ===
  0x221a	test   	eax, eax
  0x221c	je     	0x2238
  === BLOCK LINK ===
    0x221e
=== CODE BLOCK END ===

=== CODE BLOCK ADDRESS 0x221e ===
  0x221e	inc    	ebp
  0x221f	xor    	eax, eax
  0x2221	inc    	ecx
  0x2222	lea    	edx, [eax + 2]
  0x2225	xor    	ecx, ecx
  === BLOCK LINK ===
    0x2227
=== CODE BLOCK END ===

=== CODE BLOCK ADDRESS 0x2227 ===
  0x2227	dec    	eax
  0x2228	mov    	eax, dword ptr [0x33c2]
  0x222e	dec    	esp
  0x222f	mov    	ecx, dword ptr [0x1173]
  0x2235	inc    	ecx
  === BLOCK LINK ===
    0x2236
=== CODE BLOCK END ===

=== CODE BLOCK ADDRESS 0x2236 ===
  0x2236	call   	ecx
  === BLOCK LINK ===
    0x2238
=== CODE BLOCK END ===

=== CODE BLOCK ADDRESS 0x2238 ===
  0x2238	dec    	eax
  0x2239	mov    	eax, dword ptr [0x1019]
  0x223f	dec    	eax
  0x2240	mov    	ecx, dword ptr [eax]
  0x2242	dec    	eax
  === BLOCK LINK ===
    0x2243
=== CODE BLOCK END ===

=== CODE BLOCK ADDRESS 0x2243 ===
  0x2243	test   	ecx, ecx
  0x2245	jne    	0x2251
  === BLOCK LINK ===
    0x2247
=== CODE BLOCK END ===

=== CODE BLOCK ADDRESS 0x2247 ===
  0x2247	mov    	eax, 0xff
  0x224c	jmp    	0x2326
  === BLOCK LINK ===
    0x2251
=== CODE BLOCK END ===

=== CODE BLOCK ADDRESS 0x2251 ===
  0x2251	dec    	eax
  0x2252	mov    	dword ptr [esp + 0x28], ecx
  0x2256	mov    	edx, dword ptr [esp + 0x20]
  0x225a	movzx  	eax, word ptr [ecx]
  0x225d	cmp    	ax, 0x20
  === BLOCK LINK ===
    0x2261
=== CODE BLOCK END ===

=== CODE BLOCK ADDRESS 0x2261 ===
  0x2261	ja     	0x22d7
  === BLOCK LINK ===
    0x2263
=== CODE BLOCK END ===

=== CODE BLOCK ADDRESS 0x2263 ===
  0x2263	test   	ax, ax
  0x2266	je     	0x226c
  === BLOCK LINK ===
    0x2268
=== CODE BLOCK END ===

=== CODE BLOCK ADDRESS 0x2268 ===
  0x2268	test   	edx, edx
  0x226a	jne    	0x22d7
  === BLOCK LINK ===
    0x226c
=== CODE BLOCK END ===

=== CODE BLOCK ADDRESS 0x226c ===
  0x226c	sub    	ax, bx
  0x226f	cmp    	ax, di
  0x2272	ja     	0x2282
  === BLOCK LINK ===
    0x2274
=== CODE BLOCK END ===

=== CODE BLOCK ADDRESS 0x2274 ===
  0x2274	dec    	eax
  0x2275	add    	ecx, 2
  0x2278	dec    	eax
  0x2279	mov    	dword ptr [esp + 0x28], ecx
  0x227d	movzx  	eax, word ptr [ecx]
  === BLOCK LINK ===
    0x2280
=== CODE BLOCK END ===

=== CODE BLOCK ADDRESS 0x2280 ===
  0x2280	jmp    	0x226c
  === BLOCK LINK ===
    0x2282
=== CODE BLOCK END ===

=== CODE BLOCK ADDRESS 0x2282 ===
  0x2282	test   	byte ptr [esp + 0x7c], bl
  0x2286	movzx  	eax, word ptr [esp + 0x80]
  0x228e	inc    	ecx
  0x228f	mov    	ecx, 0xa
  0x2294	inc    	esp
  === BLOCK LINK ===
    0x2295
=== CODE BLOCK END ===

=== CODE BLOCK ADDRESS 0x2295 ===
  0x2295	cmovne  	ecx, eax
  0x2298	dec    	esp
  0x2299	mov    	eax, ecx
  0x229b	xor    	edx, edx
  0x229d	dec    	eax
  === BLOCK LINK ===
    0x229e
=== CODE BLOCK END ===

=== CODE BLOCK ADDRESS 0x229e ===
  0x229e	lea    	ecx, [0xffffdd5c]
  0x22a4	call   	0x1b18
  === BLOCK LINK ===
    0x22a9
=== CODE BLOCK END ===

=== CODE BLOCK ADDRESS 0x22a9 ===
  0x22a9	mov    	dword ptr [0x2d71], eax
  0x22af	inc    	esp
  0x22b0	cmp    	dword ptr [0x2d8a], esi
  0x22b6	jne    	0x22c0
  === BLOCK LINK ===
    0x22b8
=== CODE BLOCK END ===

=== CODE BLOCK ADDRESS 0x22b8 ===
  0x22b8	mov    	ecx, eax
  0x22ba	call   	dword ptr [0xfe8]
  === BLOCK LINK ===
    0x22c0
=== CODE BLOCK END ===

=== CODE BLOCK ADDRESS 0x22c0 ===
  0x22c0	inc    	esp
  0x22c1	cmp    	dword ptr [0x2d5d], esi
  0x22c7	jne    	0x22d5
  === BLOCK LINK ===
    0x22c9
=== CODE BLOCK END ===

=== CODE BLOCK ADDRESS 0x22c9 ===
  0x22c9	call   	dword ptr [0xf79]
  === BLOCK LINK ===
    0x22cf
=== CODE BLOCK END ===

=== CODE BLOCK ADDRESS 0x22cf ===
  0x22cf	mov    	eax, dword ptr [0x2d4b]
  0x22d5	jmp    	0x2326
  === BLOCK LINK ===
    0x22d7
=== CODE BLOCK END ===

=== CODE BLOCK ADDRESS 0x22d7 ===
  0x22d7	cmp    	ax, 0x22
  0x22db	jne    	0x22eb
  === BLOCK LINK ===
    0x22dd
=== CODE BLOCK END ===

=== CODE BLOCK ADDRESS 0x22dd ===
  0x22dd	inc    	ecx
  0x22de	mov    	eax, esi
  0x22e0	test   	edx, edx
  0x22e2	sete   	al
  0x22e5	mov    	edx, eax
  === BLOCK LINK ===
    0x22e7
=== CODE BLOCK END ===

=== CODE BLOCK ADDRESS 0x22e7 ===
  0x22e7	mov    	dword ptr [esp + 0x20], eax
  0x22eb	dec    	eax
  0x22ec	add    	ecx, 2
  0x22ef	dec    	eax
  0x22f0	mov    	dword ptr [esp + 0x28], ecx
  === BLOCK LINK ===
    0x22f4
=== CODE BLOCK END ===

=== CODE BLOCK ADDRESS 0x22f4 ===
  0x22f4	jmp    	0x225a
  === BLOCK LINK ===
    0x22f9
=== CODE BLOCK END ===

=== CODE BLOCK ADDRESS 0x22f9 ===
  0x22f9	mov    	dword ptr [0x2d21], eax
  0x22ff	cmp    	dword ptr [0x2d3a], 0
  0x2306	jne    	0x2311
  === BLOCK LINK ===
    0x2308
=== CODE BLOCK END ===

=== CODE BLOCK ADDRESS 0x2308 ===
  0x2308	mov    	ecx, eax
  0x230a	call   	dword ptr [0xf40]
  === BLOCK LINK ===
    0x2310
=== CODE BLOCK END ===

=== CODE BLOCK ADDRESS 0x2310 ===
  0x2310	int3   	
  0x2311	cmp    	dword ptr [0x2d0c], 0
  0x2318	jne    	0x2326
  === BLOCK LINK ===
    0x231a
=== CODE BLOCK END ===

=== CODE BLOCK ADDRESS 0x231a ===
  0x231a	call   	dword ptr [0xf28]
  === BLOCK LINK ===
    0x2320
=== CODE BLOCK END ===

=== CODE BLOCK ADDRESS 0x2320 ===
  0x2320	mov    	eax, dword ptr [0x2cfa]
  0x2326	dec    	esp
  0x2327	lea    	ebx, [esp + 0xb0]
  0x232e	dec    	ecx
  0x232f	mov    	ebx, dword ptr [ebx + 0x10]
  === BLOCK LINK ===
    0x2332
=== CODE BLOCK END ===

=== CODE BLOCK ADDRESS 0x2332 ===
  0x2332	dec    	ecx
  0x2333	mov    	esi, dword ptr [ebx + 0x18]
  0x2336	dec    	ecx
  0x2337	mov    	edi, dword ptr [ebx + 0x20]
  0x233a	dec    	ebp
  === BLOCK LINK ===
    0x233b
=== CODE BLOCK END ===

=== CODE BLOCK ADDRESS 0x233b ===
  0x233b	mov    	esi, dword ptr [ebx + 0x28]
  0x233e	dec    	ecx
  0x233f	mov    	esp, ebx
  0x2341	inc    	ecx
  0x2342	pop    	edi
  === BLOCK LINK ===
    0x2343
=== CODE BLOCK END ===

=== CODE BLOCK ADDRESS 0x2343 ===
  0x2343	ret    	
  0x2344	int3   	
  0x2345	int3   	
  0x2346	int3   	
  0x2347	int3   	
  === BLOCK LINK ===
    0x2348
=== CODE BLOCK END ===

=== CODE BLOCK ADDRESS 0x2348 ===
  0x2348	int3   	
  0x2349	int3   	
  0x234a	int3   	
  0x234b	int3   	
  0x234c	int3   	
  === BLOCK LINK ===
    0x234d
=== CODE BLOCK END ===

=== CODE BLOCK ADDRESS 0x234d ===
  0x234d	int3   	
  0x234e	int3   	
  0x234f	int3   	
  0x2350	dec    	eax
  0x2351	sub    	esp, 0x28
  === BLOCK LINK ===
    0x2354
=== CODE BLOCK END ===

=== CODE BLOCK ADDRESS 0x2354 ===
  0x2354	call   	0x25c4
  === BLOCK LINK ===
    0x2359
=== CODE BLOCK END ===

=== CODE BLOCK ADDRESS 0x2359 ===
  0x2359	dec    	eax
  0x235a	add    	esp, 0x28
  0x235d	jmp    	0x20e0
  === BLOCK LINK ===
    0x2362
=== CODE BLOCK END ===

=== CODE BLOCK ADDRESS 0x2362 ===
  0x2362	int3   	
  0x2363	int3   	
  0x2364	int3   	
  0x2365	int3   	
  0x2366	int3   	
  === BLOCK LINK ===
    0x2367
=== CODE BLOCK END ===

=== CODE BLOCK ADDRESS 0x2367 ===
  0x2367	int3   	
  0x2368	int3   	
  0x2369	int3   	
  0x236a	int3   	
  0x236b	int3   	
  === BLOCK LINK ===
    0x236c
=== CODE BLOCK END ===

=== CODE BLOCK ADDRESS 0x236c ===
  0x236c	int3   	
  0x236d	int3   	
  0x236e	int3   	
  0x236f	int3   	
  0x2370	int3   	
  === BLOCK LINK ===
    0x2371
=== CODE BLOCK END ===

=== CODE BLOCK ADDRESS 0x2371 ===
  0x2371	int3   	
  0x2372	int3   	
  0x2373	int3   	
  0x2374	int3   	
  0x2375	int3   	
  === BLOCK LINK ===
    0x2376
=== CODE BLOCK END ===

=== CODE BLOCK ADDRESS 0x2376 ===
  0x2376	nop    	word ptr [eax + eax]
  === BLOCK LINK ===
    0x2380
=== CODE BLOCK END ===

=== CODE BLOCK ADDRESS 0x2389 ===
  0x2389	dec    	eax
  0x238a	rol    	ecx, 0x10
  0x238d	test   	cx, 0xffff
  0x2392	jne    	0x2395
  === BLOCK LINK ===
    0x2394
=== CODE BLOCK END ===

=== CODE BLOCK ADDRESS 0x2394 ===
  0x2394	ret    	
  0x2395	dec    	eax
  0x2396	ror    	ecx, 0x10
  0x2399	jmp    	0x2710
  === BLOCK LINK ===
    0x239e
=== CODE BLOCK END ===

=== CODE BLOCK ADDRESS 0x239e ===
  0x239e	int3   	
  0x239f	int3   	
  0x23a0	int3   	
  0x23a1	int3   	
  0x23a2	int3   	
  === BLOCK LINK ===
    0x23a3
=== CODE BLOCK END ===

=== CODE BLOCK ADDRESS 0x23a3 ===
  0x23a3	int3   	
  0x23a4	int3   	
  0x23a5	int3   	
  0x23a6	int3   	
  0x23a7	int3   	
  === BLOCK LINK ===
    0x23a8
=== CODE BLOCK END ===

=== CODE BLOCK ADDRESS 0x23a8 ===
  0x23a8	int3   	
  0x23a9	int3   	
  0x23aa	int3   	
  0x23ab	int3   	
  0x23ac	int3   	
  === BLOCK LINK ===
    0x23ad
=== CODE BLOCK END ===

=== CODE BLOCK ADDRESS 0x23ad ===
  0x23ad	int3   	
  0x23ae	int3   	
  0x23af	int3   	
  0x23b0	dec    	eax
  0x23b1	sub    	esp, 0x28
  === BLOCK LINK ===
    0x23b4
=== CODE BLOCK END ===

=== CODE BLOCK ADDRESS 0x23b4 ===
  0x23b4	dec    	eax
  0x23b5	mov    	eax, dword ptr [ecx]
  0x23b7	cmp    	dword ptr [eax], 0xe06d7363
  0x23bd	jne    	0x23e2
  === BLOCK LINK ===
    0x23bf
=== CODE BLOCK END ===

=== CODE BLOCK ADDRESS 0x23bf ===
  0x23bf	cmp    	dword ptr [eax + 0x18], 4
  0x23c3	jne    	0x23e2
  === BLOCK LINK ===
    0x23c5
=== CODE BLOCK END ===

=== CODE BLOCK ADDRESS 0x23c5 ===
  0x23c5	mov    	ecx, dword ptr [eax + 0x20]
  0x23c8	lea    	eax, [ecx - 0x19930520]
  0x23ce	cmp    	eax, 2
  0x23d1	jbe    	0x23db
  === BLOCK LINK ===
    0x23d3
=== CODE BLOCK END ===

=== CODE BLOCK ADDRESS 0x23d3 ===
  0x23d3	cmp    	ecx, 0x1994000
  0x23d9	jne    	0x23e2
  === BLOCK LINK ===
    0x23db
=== CODE BLOCK END ===

=== CODE BLOCK ADDRESS 0x23db ===
  0x23db	call   	dword ptr [0xeb7]
  === BLOCK LINK ===
    0x23e1
=== CODE BLOCK END ===

=== CODE BLOCK ADDRESS 0x23e1 ===
  0x23e1	int3   	
  0x23e2	xor    	eax, eax
  0x23e4	dec    	eax
  0x23e5	add    	esp, 0x28
  0x23e8	ret    	
  === BLOCK LINK ===
    0x23e9
=== CODE BLOCK END ===

=== CODE BLOCK ADDRESS 0x23e9 ===
  0x23e9	int3   	
  0x23ea	int3   	
  0x23eb	int3   	
  0x23ec	int3   	
  0x23ed	int3   	
  === BLOCK LINK ===
    0x23ee
=== CODE BLOCK END ===

=== CODE BLOCK ADDRESS 0x23ee ===
  0x23ee	int3   	
  0x23ef	int3   	
  0x23f0	dec    	eax
  0x23f1	sub    	esp, 0x28
  0x23f4	dec    	eax
  === BLOCK LINK ===
    0x23f5
=== CODE BLOCK END ===

=== CODE BLOCK ADDRESS 0x23f5 ===
  0x23f5	lea    	ecx, [0xffffffb5]
  0x23fb	call   	dword ptr [0xd9f]
  === BLOCK LINK ===
    0x2401
=== CODE BLOCK END ===

=== CODE BLOCK ADDRESS 0x2401 ===
  0x2401	xor    	eax, eax
  0x2403	dec    	eax
  0x2404	add    	esp, 0x28
  0x2407	ret    	
  0x2408	int3   	
  === BLOCK LINK ===
    0x2409
=== CODE BLOCK END ===

=== CODE BLOCK ADDRESS 0x2409 ===
  0x2409	int3   	
  0x240a	int3   	
  0x240b	int3   	
  0x240c	int3   	
  0x240d	int3   	
  === BLOCK LINK ===
    0x240e
=== CODE BLOCK END ===

=== CODE BLOCK ADDRESS 0x240e ===
  0x240e	jmp    	dword ptr [0xe64]
  === BLOCK LINK ===
    0x2414
=== CODE BLOCK END ===

=== CODE BLOCK ADDRESS 0x2414 ===
  0x2414	int3   	
  0x2415	int3   	
  0x2416	int3   	
  0x2417	int3   	
  0x2418	int3   	
  === BLOCK LINK ===
    0x2419
=== CODE BLOCK END ===

=== CODE BLOCK ADDRESS 0x2419 ===
  0x2419	int3   	
  0x241a	int3   	
  0x241b	int3   	
  0x241c	dec    	eax
  0x241d	sub    	esp, 0x18
  === BLOCK LINK ===
    0x2420
=== CODE BLOCK END ===

=== CODE BLOCK ADDRESS 0x2420 ===
  0x2420	xor    	edx, edx
  0x2422	dec    	eax
  0x2423	lea    	eax, [ecx - 1]
  0x2426	dec    	eax
  0x2427	cmp    	eax, -3
  === BLOCK LINK ===
    0x242a
=== CODE BLOCK END ===

=== CODE BLOCK ADDRESS 0x242a ===
  0x242a	ja     	0x2468
  === BLOCK LINK ===
    0x242c
=== CODE BLOCK END ===

=== CODE BLOCK ADDRESS 0x242c ===
  0x242c	mov    	eax, 0x5a4d
  0x2431	cmp    	word ptr [ecx], ax
  0x2434	jne    	0x2460
  === BLOCK LINK ===
    0x2436
=== CODE BLOCK END ===

=== CODE BLOCK ADDRESS 0x2436 ===
  0x2436	cmp    	dword ptr [ecx + 0x3c], edx
  0x2439	jl     	0x2460
  === BLOCK LINK ===
    0x243b
=== CODE BLOCK END ===

=== CODE BLOCK ADDRESS 0x243b ===
  0x243b	cmp    	dword ptr [ecx + 0x3c], 0x10000000
  0x2442	jae    	0x2460
  === BLOCK LINK ===
    0x2444
=== CODE BLOCK END ===

=== CODE BLOCK ADDRESS 0x2444 ===
  0x2444	dec    	eax
  0x2445	arpl   	word ptr [ecx + 0x3c], ax
  0x2448	dec    	eax
  0x2449	add    	eax, ecx
  0x244b	dec    	eax
  === BLOCK LINK ===
    0x244c
=== CODE BLOCK END ===

=== CODE BLOCK ADDRESS 0x244c ===
  0x244c	mov    	dword ptr [esp], eax
  0x244f	cmp    	dword ptr [eax], 0x4550
  0x2455	dec    	eax
  0x2456	cmovne  	eax, edx
  0x2459	dec    	eax
  === BLOCK LINK ===
    0x245a
=== CODE BLOCK END ===

=== CODE BLOCK ADDRESS 0x245a ===
  0x245a	mov    	edx, eax
  0x245c	dec    	eax
  0x245d	mov    	dword ptr [esp], eax
  0x2460	jmp    	0x2468
  === BLOCK LINK ===
    0x2462
=== CODE BLOCK END ===

=== CODE BLOCK ADDRESS 0x2462 ===
  0x2462	xor    	edx, edx
  0x2464	dec    	eax
  0x2465	mov    	dword ptr [esp], edx
  0x2468	dec    	eax
  0x2469	mov    	eax, edx
  === BLOCK LINK ===
    0x246b
=== CODE BLOCK END ===

=== CODE BLOCK ADDRESS 0x246b ===
  0x246b	dec    	eax
  0x246c	add    	esp, 0x18
  0x246f	ret    	
  0x2470	int3   	
  0x2471	int3   	
  === BLOCK LINK ===
    0x2472
=== CODE BLOCK END ===

=== CODE BLOCK ADDRESS 0x103c ===
  0x103c	dec    	eax
  0x103d	mov    	dword ptr [esp + 8], ebx
  0x1041	push   	edi
  0x1042	dec    	eax
  === BLOCK LINK ===
    0x1043
=== CODE BLOCK END ===

=== CODE BLOCK ADDRESS 0x2472 ===
  0x2472	int3   	
  0x2473	int3   	
  0x2474	int3   	
  0x2475	int3   	
  0x2476	int3   	
  === BLOCK LINK ===
    0x2477
=== CODE BLOCK END ===

=== CODE BLOCK ADDRESS 0x2477 ===
  0x2477	int3   	
  0x2478	inc    	eax
  0x2479	push   	ebx
  0x247a	dec    	eax
  0x247b	sub    	esp, 0x20
  === BLOCK LINK ===
    0x247e
=== CODE BLOCK END ===

=== CODE BLOCK ADDRESS 0x247e ===
  0x247e	mov    	ebx, ecx
  0x2480	xor    	ecx, ecx
  0x2482	call   	dword ptr [0xd20]
  === BLOCK LINK ===
    0x2488
=== CODE BLOCK END ===

=== CODE BLOCK ADDRESS 0x2488 ===
  0x2488	dec    	eax
  0x2489	test   	eax, eax
  0x248b	je     	0x24b5
  === BLOCK LINK ===
    0x248d
=== CODE BLOCK END ===

=== CODE BLOCK ADDRESS 0x248d ===
  0x248d	dec    	eax
  0x248e	mov    	ecx, eax
  0x2490	call   	0x241c
  === BLOCK LINK ===
    0x2495
=== CODE BLOCK END ===

=== CODE BLOCK ADDRESS 0x2495 ===
  0x2495	dec    	eax
  0x2496	test   	eax, eax
  0x2498	je     	0x24b5
  === BLOCK LINK ===
    0x249a
=== CODE BLOCK END ===

=== CODE BLOCK ADDRESS 0x249a ===
  0x249a	mov    	ecx, 2
  0x249f	cmp    	word ptr [eax + 0x5c], cx
  0x24a3	jne    	0x24a9
  === BLOCK LINK ===
    0x24a5
=== CODE BLOCK END ===

=== CODE BLOCK ADDRESS 0x24a5 ===
  0x24a5	mov    	eax, ecx
  0x24a7	jmp    	0x24b7
  === BLOCK LINK ===
    0x24a9
=== CODE BLOCK END ===

=== CODE BLOCK ADDRESS 0x24a9 ===
  0x24a9	cmp    	word ptr [eax + 0x5c], 3
  0x24ae	mov    	eax, 1
  0x24b3	je     	0x24b7
  === BLOCK LINK ===
    0x24b5
=== CODE BLOCK END ===

=== CODE BLOCK ADDRESS 0x24b5 ===
  0x24b5	mov    	eax, ebx
  0x24b7	dec    	eax
  0x24b8	add    	esp, 0x20
  0x24bb	pop    	ebx
  0x24bc	ret    	
  === BLOCK LINK ===
    0x24bd
=== CODE BLOCK END ===

=== CODE BLOCK ADDRESS 0x2380 ===
  0x2380	dec    	eax
  0x2381	cmp    	ecx, dword ptr [0x2c81]
  0x2387	jne    	0x2399
  === BLOCK LINK ===
    0x2389
=== CODE BLOCK END ===

=== CODE BLOCK ADDRESS 0x24bd ===
  0x24bd	int3   	
  0x24be	int3   	
  0x24bf	int3   	
  0x24c0	int3   	
  0x24c1	int3   	
  === BLOCK LINK ===
    0x24c2
=== CODE BLOCK END ===

=== CODE BLOCK ADDRESS 0x24c2 ===
  0x24c2	int3   	
  0x24c3	jmp    	dword ptr [0xda7]
  === BLOCK LINK ===
    0x24c9
=== CODE BLOCK END ===

=== CODE BLOCK ADDRESS 0x24c9 ===
  0x24c9	int3   	
  0x24ca	int3   	
  0x24cb	int3   	
  0x24cc	int3   	
  0x24cd	int3   	
  === BLOCK LINK ===
    0x24ce
=== CODE BLOCK END ===

=== CODE BLOCK ADDRESS 0x24ce ===
  0x24ce	int3   	
  0x24cf	int3   	
  0x24d0	xor    	eax, eax
  0x24d2	ret    	
  0x24d3	int3   	
  === BLOCK LINK ===
    0x24d4
=== CODE BLOCK END ===

=== CODE BLOCK ADDRESS 0x24d4 ===
  0x24d4	int3   	
  0x24d5	int3   	
  0x24d6	int3   	
  0x24d7	int3   	
  0x24d8	int3   	
  === BLOCK LINK ===
    0x24d9
=== CODE BLOCK END ===

=== CODE BLOCK ADDRESS 0x24d9 ===
  0x24d9	int3   	
  0x24da	int3   	
  0x24db	int3   	
  0x24dc	int3   	
  0x24dd	int3   	
  === BLOCK LINK ===
    0x24de
=== CODE BLOCK END ===

=== CODE BLOCK ADDRESS 0x24de ===
  0x24de	int3   	
  0x24df	int3   	
  0x24e0	dec    	esp
  0x24e1	arpl   	word ptr [ecx + 0x3c], ax
  0x24e4	inc    	ebp
  === BLOCK LINK ===
    0x24e5
=== CODE BLOCK END ===

=== CODE BLOCK ADDRESS 0x24e5 ===
  0x24e5	xor    	ecx, ecx
  0x24e7	dec    	esp
  0x24e8	add    	eax, ecx
  0x24ea	dec    	esp
  0x24eb	mov    	edx, edx
  === BLOCK LINK ===
    0x24ed
=== CODE BLOCK END ===

=== CODE BLOCK ADDRESS 0x24ed ===
  0x24ed	inc    	ecx
  0x24ee	movzx  	eax, word ptr [eax + 0x14]
  0x24f2	inc    	ebp
  0x24f3	movzx  	ebx, word ptr [eax + 6]
  0x24f7	dec    	eax
  === BLOCK LINK ===
    0x24f8
=== CODE BLOCK END ===

=== CODE BLOCK ADDRESS 0x24f8 ===
  0x24f8	add    	eax, 0x18
  0x24fb	dec    	ecx
  0x24fc	add    	eax, eax
  0x24fe	inc    	ebp
  0x24ff	test   	ebx, ebx
  === BLOCK LINK ===
    0x2501
=== CODE BLOCK END ===

=== CODE BLOCK ADDRESS 0x2501 ===
  0x2501	je     	0x2521
  === BLOCK LINK ===
    0x2503
=== CODE BLOCK END ===

=== CODE BLOCK ADDRESS 0x2503 ===
  0x2503	mov    	edx, dword ptr [eax + 0xc]
  0x2506	dec    	esp
  0x2507	cmp    	edx, edx
  0x2509	jb     	0x2515
  === BLOCK LINK ===
    0x250b
=== CODE BLOCK END ===

=== CODE BLOCK ADDRESS 0x250b ===
  0x250b	mov    	ecx, dword ptr [eax + 8]
  0x250e	add    	ecx, edx
  0x2510	dec    	esp
  0x2511	cmp    	edx, ecx
  0x2513	jb     	0x2523
  === BLOCK LINK ===
    0x2515
=== CODE BLOCK END ===

=== CODE BLOCK ADDRESS 0x2515 ===
  0x2515	inc    	ecx
  0x2516	inc    	ecx
  0x2518	dec    	eax
  0x2519	add    	eax, 0x28
  0x251c	inc    	ebp
  === BLOCK LINK ===
    0x251d
=== CODE BLOCK END ===

=== CODE BLOCK ADDRESS 0x251d ===
  0x251d	cmp    	ecx, ebx
  0x251f	jb     	0x2503
  === BLOCK LINK ===
    0x2521
=== CODE BLOCK END ===

=== CODE BLOCK ADDRESS 0x2521 ===
  0x2521	xor    	eax, eax
  0x2523	ret    	
  0x2524	int3   	
  0x2525	int3   	
  0x2526	int3   	
  === BLOCK LINK ===
    0x2527
=== CODE BLOCK END ===

=== CODE BLOCK ADDRESS 0x2527 ===
  0x2527	int3   	
  0x2528	int3   	
  0x2529	int3   	
  0x252a	int3   	
  0x252b	int3   	
  === BLOCK LINK ===
    0x252c
=== CODE BLOCK END ===

=== CODE BLOCK ADDRESS 0x252c ===
  0x252c	int3   	
  0x252d	int3   	
  0x252e	int3   	
  0x252f	int3   	
  0x2530	dec    	eax
  === BLOCK LINK ===
    0x2531
=== CODE BLOCK END ===

=== CODE BLOCK ADDRESS 0x2531 ===
  0x2531	mov    	dword ptr [esp + 8], ebx
  0x2535	push   	edi
  0x2536	dec    	eax
  0x2537	sub    	esp, 0x20
  0x253a	dec    	eax
  === BLOCK LINK ===
    0x253b
=== CODE BLOCK END ===

=== CODE BLOCK ADDRESS 0x253b ===
  0x253b	mov    	ebx, ecx
  0x253d	dec    	eax
  0x253e	lea    	edi, [0xffffdabc]
  0x2544	dec    	eax
  0x2545	mov    	ecx, edi
  === BLOCK LINK ===
    0x2547
=== CODE BLOCK END ===

=== CODE BLOCK ADDRESS 0x2547 ===
  0x2547	call   	0x2590
  === BLOCK LINK ===
    0x254c
=== CODE BLOCK END ===

=== CODE BLOCK ADDRESS 0x254c ===
  0x254c	test   	eax, eax
  0x254e	je     	0x2572
  === BLOCK LINK ===
    0x2550
=== CODE BLOCK END ===

=== CODE BLOCK ADDRESS 0x2550 ===
  0x2550	dec    	eax
  0x2551	sub    	ebx, edi
  0x2553	dec    	eax
  0x2554	mov    	edx, ebx
  0x2556	dec    	eax
  === BLOCK LINK ===
    0x2557
=== CODE BLOCK END ===

=== CODE BLOCK ADDRESS 0x2557 ===
  0x2557	mov    	ecx, edi
  0x2559	call   	0x24e0
  === BLOCK LINK ===
    0x255e
=== CODE BLOCK END ===

=== CODE BLOCK ADDRESS 0x255e ===
  0x255e	dec    	eax
  0x255f	test   	eax, eax
  0x2561	je     	0x2572
  === BLOCK LINK ===
    0x2563
=== CODE BLOCK END ===

=== CODE BLOCK ADDRESS 0x2563 ===
  0x2563	mov    	eax, dword ptr [eax + 0x24]
  0x2566	shr    	eax, 0x1f
  0x2569	not    	eax
  0x256b	and    	eax, 1
  0x256e	jmp    	0x2572
  === BLOCK LINK ===
    0x2570
=== CODE BLOCK END ===

=== CODE BLOCK ADDRESS 0x2570 ===
  0x2570	xor    	eax, eax
  0x2572	dec    	eax
  0x2573	mov    	ebx, dword ptr [esp + 0x30]
  0x2577	dec    	eax
  0x2578	add    	esp, 0x20
  === BLOCK LINK ===
    0x257b
=== CODE BLOCK END ===

=== CODE BLOCK ADDRESS 0x257b ===
  0x257b	pop    	edi
  0x257c	ret    	
  0x257d	int3   	
  0x257e	int3   	
  0x257f	int3   	
  === BLOCK LINK ===
    0x2580
=== CODE BLOCK END ===

=== CODE BLOCK ADDRESS 0x2580 ===
  0x2580	int3   	
  0x2581	int3   	
  0x2582	int3   	
  0x2583	int3   	
  0x2584	int3   	
  === BLOCK LINK ===
    0x2585
=== CODE BLOCK END ===

=== CODE BLOCK ADDRESS 0x2585 ===
  0x2585	int3   	
  0x2586	int3   	
  0x2587	int3   	
  0x2588	int3   	
  0x2589	int3   	
  === BLOCK LINK ===
    0x258a
=== CODE BLOCK END ===

=== CODE BLOCK ADDRESS 0x258a ===
  0x258a	int3   	
  0x258b	int3   	
  0x258c	int3   	
  0x258d	int3   	
  0x258e	int3   	
  === BLOCK LINK ===
    0x258f
=== CODE BLOCK END ===

=== CODE BLOCK ADDRESS 0x258f ===
  0x258f	int3   	
  0x2590	mov    	eax, 0x5a4d
  0x2595	cmp    	word ptr [ecx], ax
  0x2598	jne    	0x25ba
  === BLOCK LINK ===
    0x259a
=== CODE BLOCK END ===

=== CODE BLOCK ADDRESS 0x259a ===
  0x259a	dec    	eax
  0x259b	arpl   	word ptr [ecx + 0x3c], ax
  0x259e	dec    	eax
  0x259f	add    	eax, ecx
  0x25a1	cmp    	dword ptr [eax], 0x4550
  === BLOCK LINK ===
    0x25a7
=== CODE BLOCK END ===

=== CODE BLOCK ADDRESS 0x25a7 ===
  0x25a7	jne    	0x25ba
  === BLOCK LINK ===
    0x25a9
=== CODE BLOCK END ===

=== CODE BLOCK ADDRESS 0x25a9 ===
  0x25a9	mov    	ecx, 0x20b
  0x25ae	cmp    	word ptr [eax + 0x18], cx
  0x25b2	jne    	0x25ba
  === BLOCK LINK ===
    0x25b4
=== CODE BLOCK END ===

=== CODE BLOCK ADDRESS 0x25b4 ===
  0x25b4	mov    	eax, 1
  0x25b9	ret    	
  0x25ba	xor    	eax, eax
  0x25bc	ret    	
  0x25bd	int3   	
  === BLOCK LINK ===
    0x25be
=== CODE BLOCK END ===

=== CODE BLOCK ADDRESS 0x25be ===
  0x25be	int3   	
  0x25bf	int3   	
  0x25c0	int3   	
  0x25c1	int3   	
  0x25c2	int3   	
  === BLOCK LINK ===
    0x25c3
=== CODE BLOCK END ===

=== CODE BLOCK ADDRESS 0x25c3 ===
  0x25c3	int3   	
  0x25c4	dec    	eax
  0x25c5	mov    	dword ptr [esp + 0x20], ebx
  0x25c9	push   	ebp
  0x25ca	dec    	eax
  === BLOCK LINK ===
    0x25cb
=== CODE BLOCK END ===

=== CODE BLOCK ADDRESS 0x25cb ===
  0x25cb	mov    	ebp, esp
  0x25cd	dec    	eax
  0x25ce	sub    	esp, 0x20
  0x25d1	dec    	eax
  0x25d2	and    	dword ptr [ebp + 0x18], 0
  === BLOCK LINK ===
    0x25d6
=== CODE BLOCK END ===

=== CODE BLOCK ADDRESS 0x25d6 ===
  0x25d6	dec    	eax
  0x25d7	mov    	ebx, 0x2ddfa232
  0x25dc	cdq    	
  0x25dd	sub    	eax, dword ptr [eax]
  0x25df	add    	byte ptr [eax - 0x75], cl
  === BLOCK LINK ===
    0x25e2
=== CODE BLOCK END ===

=== CODE BLOCK ADDRESS 0x25e2 ===
  0x25e2	add    	eax, 0x2a21
  0x25e7	dec    	eax
  0x25e8	cmp    	eax, ebx
  0x25ea	jne    	0x2683
  === BLOCK LINK ===
    0x25f0
=== CODE BLOCK END ===

=== CODE BLOCK ADDRESS 0x25f0 ===
  0x25f0	dec    	eax
  0x25f1	lea    	ecx, [ebp + 0x18]
  0x25f4	call   	dword ptr [0xbe6]
  === BLOCK LINK ===
    0x25fa
=== CODE BLOCK END ===

=== CODE BLOCK ADDRESS 0x25fa ===
  0x25fa	dec    	eax
  0x25fb	mov    	eax, dword ptr [ebp + 0x18]
  0x25fe	dec    	eax
  0x25ff	mov    	dword ptr [ebp + 0x10], eax
  0x2602	call   	dword ptr [0xbc8]
  === BLOCK LINK ===
    0x2608
=== CODE BLOCK END ===

=== CODE BLOCK ADDRESS 0x2608 ===
  0x2608	mov    	eax, eax
  0x260a	dec    	eax
  0x260b	xor    	dword ptr [ebp + 0x10], eax
  0x260e	call   	dword ptr [0xbc4]
  === BLOCK LINK ===
    0x2614
=== CODE BLOCK END ===

=== CODE BLOCK ADDRESS 0x2614 ===
  0x2614	mov    	eax, eax
  0x2616	dec    	eax
  0x2617	xor    	dword ptr [ebp + 0x10], eax
  0x261a	call   	dword ptr [0xbc8]
  === BLOCK LINK ===
    0x2620
=== CODE BLOCK END ===

=== CODE BLOCK ADDRESS 0x2620 ===
  0x2620	mov    	eax, eax
  0x2622	dec    	eax
  0x2623	shl    	eax, 0x18
  0x2626	dec    	eax
  0x2627	xor    	dword ptr [ebp + 0x10], eax
  === BLOCK LINK ===
    0x262a
=== CODE BLOCK END ===

=== CODE BLOCK ADDRESS 0x262a ===
  0x262a	call   	dword ptr [0xbb8]
  === BLOCK LINK ===
    0x2630
=== CODE BLOCK END ===

=== CODE BLOCK ADDRESS 0x2630 ===
  0x2630	mov    	eax, eax
  0x2632	dec    	eax
  0x2633	lea    	ecx, [ebp + 0x10]
  0x2636	dec    	eax
  0x2637	xor    	eax, dword ptr [ebp + 0x10]
  === BLOCK LINK ===
    0x263a
=== CODE BLOCK END ===

=== CODE BLOCK ADDRESS 0x263a ===
  0x263a	dec    	eax
  0x263b	xor    	eax, ecx
  0x263d	dec    	eax
  0x263e	lea    	ecx, [ebp + 0x20]
  0x2641	dec    	eax
  === BLOCK LINK ===
    0x2642
=== CODE BLOCK END ===

=== CODE BLOCK ADDRESS 0x2642 ===
  0x2642	mov    	dword ptr [ebp + 0x10], eax
  0x2645	call   	dword ptr [0xb7d]
  === BLOCK LINK ===
    0x264b
=== CODE BLOCK END ===

=== CODE BLOCK ADDRESS 0x264b ===
  0x264b	mov    	eax, dword ptr [ebp + 0x20]
  0x264e	dec    	eax
  0x264f	mov    	ecx, 0xffffffff
  0x2654	.byte  	0xff
  0x2655	inc    	dword ptr [eax]
  === BLOCK LINK ===
    0x2657
=== CODE BLOCK END ===

=== CODE BLOCK ADDRESS 0x2657 ===
  0x2657	add    	byte ptr [eax - 0x3f], cl
  0x265a	loopne  	0x267c
  === BLOCK LINK ===
    0x265c
=== CODE BLOCK END ===

=== CODE BLOCK ADDRESS 0x265c ===
  0x265c	dec    	eax
  0x265d	xor    	eax, dword ptr [ebp + 0x20]
  0x2660	dec    	eax
  0x2661	xor    	eax, dword ptr [ebp + 0x10]
  0x2664	dec    	eax
  === BLOCK LINK ===
    0x2665
=== CODE BLOCK END ===

=== CODE BLOCK ADDRESS 0x2665 ===
  0x2665	and    	eax, ecx
  0x2667	dec    	eax
  0x2668	mov    	ecx, eax
  0x266a	dec    	eax
  0x266b	cmp    	eax, ebx
  === BLOCK LINK ===
    0x266d
=== CODE BLOCK END ===

=== CODE BLOCK ADDRESS 0x266d ===
  0x266d	jne    	0x267c
  === BLOCK LINK ===
    0x266f
=== CODE BLOCK END ===

=== CODE BLOCK ADDRESS 0x266f ===
  0x266f	dec    	eax
  0x2670	mov    	eax, 0x2ddfa233
  0x2675	cdq    	
  0x2676	sub    	eax, dword ptr [eax]
  0x2678	add    	byte ptr [eax - 0x75], cl
  === BLOCK LINK ===
    0x267b
=== CODE BLOCK END ===

=== CODE BLOCK ADDRESS 0x267b ===
  0x267b	enter  	-0x76b8, 0xd
  0x267f	test   	dword ptr [ecx], ebp
  0x2681	add    	byte ptr [eax], al
  0x2683	dec    	eax
  0x2684	mov    	ebx, dword ptr [esp + 0x48]
  === BLOCK LINK ===
    0x2688
=== CODE BLOCK END ===

=== CODE BLOCK ADDRESS 0x2688 ===
  0x2688	dec    	eax
  0x2689	not    	eax
  0x268b	dec    	eax
  0x268c	mov    	dword ptr [0x297e], eax
  0x2692	dec    	eax
  === BLOCK LINK ===
    0x2693
=== CODE BLOCK END ===

=== CODE BLOCK ADDRESS 0x2693 ===
  0x2693	add    	esp, 0x20
  0x2696	pop    	ebp
  0x2697	ret    	
  0x2698	int3   	
  0x2699	int3   	
  === BLOCK LINK ===
    0x269a
=== CODE BLOCK END ===

=== CODE BLOCK ADDRESS 0x14c2 ===
  0x14c2	mov    	edx, 0xce
  0x14c7	dec    	ecx
  0x14c8	mov    	ecx, esp
  === BLOCK LINK ===
    0x14ca
=== CODE BLOCK END ===

=== CODE BLOCK ADDRESS 0x269a ===
  0x269a	int3   	
  0x269b	int3   	
  0x269c	int3   	
  0x269d	int3   	
  0x269e	jmp    	dword ptr [0xb94]
  === BLOCK LINK ===
    0x26a4
=== CODE BLOCK END ===

=== CODE BLOCK ADDRESS 0x26a4 ===
  0x26a4	int3   	
  0x26a5	int3   	
  0x26a6	int3   	
  0x26a7	int3   	
  0x26a8	int3   	
  === BLOCK LINK ===
    0x26a9
=== CODE BLOCK END ===

=== CODE BLOCK ADDRESS 0x26a9 ===
  0x26a9	int3   	
  0x26aa	jmp    	dword ptr [0xb80]
  === BLOCK LINK ===
    0x26b0
=== CODE BLOCK END ===

=== CODE BLOCK ADDRESS 0x26b0 ===
  0x26b0	int3   	
  0x26b1	int3   	
  0x26b2	int3   	
  0x26b3	int3   	
  0x26b4	int3   	
  === BLOCK LINK ===
    0x26b5
=== CODE BLOCK END ===

=== CODE BLOCK ADDRESS 0x26b5 ===
  0x26b5	int3   	
  0x26b6	int3   	
  0x26b7	int3   	
  0x26b8	int3   	
  0x26b9	int3   	
  === BLOCK LINK ===
    0x26ba
=== CODE BLOCK END ===

=== CODE BLOCK ADDRESS 0x26ba ===
  0x26ba	int3   	
  0x26bb	int3   	
  0x26bc	int3   	
  0x26bd	int3   	
  0x26be	int3   	
  === BLOCK LINK ===
    0x26bf
=== CODE BLOCK END ===

=== CODE BLOCK ADDRESS 0x26bf ===
  0x26bf	int3   	
  0x26c0	ret    	0
  0x26c3	int3   	
  0x26c4	int3   	
  0x26c5	int3   	
  === BLOCK LINK ===
    0x26c6
=== CODE BLOCK END ===

=== CODE BLOCK ADDRESS 0x26c6 ===
  0x26c6	int3   	
  0x26c7	int3   	
  0x26c8	int3   	
  0x26c9	int3   	
  0x26ca	int3   	
  === BLOCK LINK ===
    0x26cb
=== CODE BLOCK END ===

=== CODE BLOCK ADDRESS 0x26cb ===
  0x26cb	int3   	
  0x26cc	inc    	eax
  0x26cd	push   	ebx
  0x26ce	dec    	eax
  0x26cf	sub    	esp, 0x20
  === BLOCK LINK ===
    0x26d2
=== CODE BLOCK END ===

=== CODE BLOCK ADDRESS 0x26d2 ===
  0x26d2	dec    	eax
  0x26d3	mov    	ebx, ecx
  0x26d5	xor    	ecx, ecx
  0x26d7	call   	dword ptr [0xac3]
  === BLOCK LINK ===
    0x26dd
=== CODE BLOCK END ===

=== CODE BLOCK ADDRESS 0x26dd ===
  0x26dd	dec    	eax
  0x26de	mov    	ecx, ebx
  0x26e0	call   	dword ptr [0xb0a]
  === BLOCK LINK ===
    0x26e6
=== CODE BLOCK END ===

=== CODE BLOCK ADDRESS 0x26e6 ===
  0x26e6	call   	dword ptr [0xa9c]
  === BLOCK LINK ===
    0x26ec
=== CODE BLOCK END ===

=== CODE BLOCK ADDRESS 0x26ec ===
  0x26ec	dec    	eax
  0x26ed	mov    	ecx, eax
  0x26ef	mov    	edx, 0xc0000409
  0x26f4	dec    	eax
  0x26f5	add    	esp, 0x20
  === BLOCK LINK ===
    0x26f8
=== CODE BLOCK END ===

=== CODE BLOCK ADDRESS 0x26f8 ===
  0x26f8	pop    	ebx
  0x26f9	dec    	eax
  0x26fa	jmp    	dword ptr [0xaf8]
  === BLOCK LINK ===
    0x2700
=== CODE BLOCK END ===

=== CODE BLOCK ADDRESS 0x2700 ===
  0x2700	int3   	
  0x2701	int3   	
  0x2702	int3   	
  0x2703	int3   	
  0x2704	int3   	
  === BLOCK LINK ===
    0x2705
=== CODE BLOCK END ===

=== CODE BLOCK ADDRESS 0x2705 ===
  0x2705	int3   	
  0x2706	int3   	
  0x2707	int3   	
  0x2708	int3   	
  0x2709	int3   	
  === BLOCK LINK ===
    0x270a
=== CODE BLOCK END ===

=== CODE BLOCK ADDRESS 0x270a ===
  0x270a	int3   	
  0x270b	int3   	
  0x270c	int3   	
  0x270d	int3   	
  0x270e	int3   	
  === BLOCK LINK ===
    0x270f
=== CODE BLOCK END ===

=== CODE BLOCK ADDRESS 0x270f ===
  0x270f	int3   	
  0x2710	dec    	eax
  0x2711	mov    	dword ptr [esp + 8], ecx
  0x2715	dec    	eax
  0x2716	sub    	esp, 0x88
  === BLOCK LINK ===
    0x271c
=== CODE BLOCK END ===

=== CODE BLOCK ADDRESS 0x271c ===
  0x271c	dec    	eax
  0x271d	lea    	ecx, [0x29dd]
  0x2723	call   	dword ptr [0xb97]
  === BLOCK LINK ===
    0x2729
=== CODE BLOCK END ===

=== CODE BLOCK ADDRESS 0x2729 ===
  0x2729	dec    	eax
  0x272a	mov    	eax, dword ptr [0x2ac8]
  0x2730	dec    	eax
  0x2731	mov    	dword ptr [esp + 0x48], eax
  0x2735	inc    	ebp
  === BLOCK LINK ===
    0x2736
=== CODE BLOCK END ===

=== CODE BLOCK ADDRESS 0x2736 ===
  0x2736	xor    	eax, eax
  0x2738	dec    	eax
  0x2739	lea    	edx, [esp + 0x50]
  0x273d	dec    	eax
  0x273e	mov    	ecx, dword ptr [esp + 0x48]
  === BLOCK LINK ===
    0x2742
=== CODE BLOCK END ===

=== CODE BLOCK ADDRESS 0x2742 ===
  0x2742	call   	dword ptr [0xb80]
  === BLOCK LINK ===
    0x2748
=== CODE BLOCK END ===

=== CODE BLOCK ADDRESS 0x2748 ===
  0x2748	dec    	eax
  0x2749	mov    	dword ptr [esp + 0x40], eax
  0x274d	dec    	eax
  0x274e	cmp    	dword ptr [esp + 0x40], 0
  0x2753	je     	0x2797
  === BLOCK LINK ===
    0x2755
=== CODE BLOCK END ===

=== CODE BLOCK ADDRESS 0x2755 ===
  0x2755	dec    	eax
  0x2756	mov    	dword ptr [esp + 0x38], 0
  0x275e	dec    	eax
  0x275f	lea    	eax, [esp + 0x58]
  0x2763	dec    	eax
  === BLOCK LINK ===
    0x2764
=== CODE BLOCK END ===

=== CODE BLOCK ADDRESS 0x2764 ===
  0x2764	mov    	dword ptr [esp + 0x30], eax
  0x2768	dec    	eax
  0x2769	lea    	eax, [esp + 0x60]
  0x276d	dec    	eax
  0x276e	mov    	dword ptr [esp + 0x28], eax
  === BLOCK LINK ===
    0x2772
=== CODE BLOCK END ===

=== CODE BLOCK ADDRESS 0x2772 ===
  0x2772	dec    	eax
  0x2773	lea    	eax, [0x2987]
  0x2779	dec    	eax
  0x277a	mov    	dword ptr [esp + 0x20], eax
  0x277e	dec    	esp
  === BLOCK LINK ===
    0x277f
=== CODE BLOCK END ===

=== CODE BLOCK ADDRESS 0x277f ===
  0x277f	mov    	ecx, dword ptr [esp + 0x40]
  0x2783	dec    	esp
  0x2784	mov    	eax, dword ptr [esp + 0x48]
  0x2788	dec    	eax
  0x2789	mov    	edx, dword ptr [esp + 0x50]
  === BLOCK LINK ===
    0x278d
=== CODE BLOCK END ===

=== CODE BLOCK ADDRESS 0x278d ===
  0x278d	xor    	ecx, ecx
  0x278f	call   	dword ptr [0xb3b]
  === BLOCK LINK ===
    0x2795
=== CODE BLOCK END ===

=== CODE BLOCK ADDRESS 0x2795 ===
  0x2795	jmp    	0x27ba
  === BLOCK LINK ===
    0x2797
=== CODE BLOCK END ===

=== CODE BLOCK ADDRESS 0x2797 ===
  0x2797	dec    	eax
  0x2798	mov    	eax, dword ptr [0x29fa]
  0x279e	dec    	eax
  0x279f	mov    	eax, dword ptr [eax]
  0x27a1	dec    	eax
  === BLOCK LINK ===
    0x27a2
=== CODE BLOCK END ===

=== CODE BLOCK ADDRESS 0x27a2 ===
  0x27a2	mov    	dword ptr [0x2a50], eax
  0x27a8	dec    	eax
  0x27a9	mov    	eax, dword ptr [0x29e9]
  0x27af	dec    	eax
  0x27b0	add    	eax, 8
  === BLOCK LINK ===
    0x27b3
=== CODE BLOCK END ===

=== CODE BLOCK ADDRESS 0x27b3 ===
  0x27b3	dec    	eax
  0x27b4	mov    	dword ptr [0x29de], eax
  0x27ba	dec    	eax
  0x27bb	mov    	eax, dword ptr [0x2a37]
  0x27c1	dec    	eax
  === BLOCK LINK ===
    0x27c2
=== CODE BLOCK END ===

=== CODE BLOCK ADDRESS 0x27c2 ===
  0x27c2	mov    	dword ptr [0x28a8], eax
  0x27c8	dec    	eax
  0x27c9	mov    	eax, dword ptr [esp + 0x90]
  0x27d0	dec    	eax
  0x27d1	mov    	dword ptr [0x29a9], eax
  === BLOCK LINK ===
    0x27d7
=== CODE BLOCK END ===

=== CODE BLOCK ADDRESS 0x27d7 ===
  0x27d7	mov    	dword ptr [0x287f], 0xc0000409
  0x27e1	mov    	dword ptr [0x2879], 1
  0x27eb	mov    	dword ptr [0x2883], 3
  0x27f5	mov    	eax, 8
  0x27fa	dec    	eax
  === BLOCK LINK ===
    0x27fb
=== CODE BLOCK END ===

=== CODE BLOCK ADDRESS 0x27fb ===
  0x27fb	imul   	eax, eax, 0
  0x27fe	dec    	eax
  0x27ff	lea    	ecx, [0x287b]
  0x2805	dec    	eax
  0x2806	mov    	dword ptr [ecx + eax], 2
  === BLOCK LINK ===
    0x280d
=== CODE BLOCK END ===

=== CODE BLOCK ADDRESS 0x280d ===
  0x280d	mov    	eax, 8
  0x2812	dec    	eax
  0x2813	imul   	eax, eax, 1
  0x2816	dec    	eax
  0x2817	lea    	ecx, [0x2863]
  === BLOCK LINK ===
    0x281d
=== CODE BLOCK END ===

=== CODE BLOCK ADDRESS 0x281d ===
  0x281d	dec    	eax
  0x281e	mov    	edx, dword ptr [0x27e4]
  0x2824	dec    	eax
  0x2825	mov    	dword ptr [ecx + eax], edx
  0x2828	mov    	eax, 8
  === BLOCK LINK ===
    0x282d
=== CODE BLOCK END ===

=== CODE BLOCK ADDRESS 0x282d ===
  0x282d	dec    	eax
  0x282e	imul   	eax, eax, 2
  0x2831	dec    	eax
  0x2832	lea    	ecx, [0x2848]
  0x2838	dec    	eax
  === BLOCK LINK ===
    0x2839
=== CODE BLOCK END ===

=== CODE BLOCK ADDRESS 0x2839 ===
  0x2839	mov    	edx, dword ptr [0x27d1]
  0x283f	dec    	eax
  0x2840	mov    	dword ptr [ecx + eax], edx
  0x2843	mov    	eax, 8
  0x2848	dec    	eax
  === BLOCK LINK ===
    0x2849
=== CODE BLOCK END ===

=== CODE BLOCK ADDRESS 0x2849 ===
  0x2849	imul   	eax, eax, 0
  0x284c	dec    	eax
  0x284d	mov    	ecx, dword ptr [0x27b5]
  0x2853	dec    	eax
  0x2854	mov    	dword ptr [esp + eax + 0x68], ecx
  === BLOCK LINK ===
    0x2858
=== CODE BLOCK END ===

=== CODE BLOCK ADDRESS 0x2858 ===
  0x2858	mov    	eax, 8
  0x285d	dec    	eax
  0x285e	imul   	eax, eax, 1
  0x2861	dec    	eax
  0x2862	mov    	ecx, dword ptr [0x27a8]
  === BLOCK LINK ===
    0x2868
=== CODE BLOCK END ===

=== CODE BLOCK ADDRESS 0x2868 ===
  0x2868	dec    	eax
  0x2869	mov    	dword ptr [esp + eax + 0x68], ecx
  0x286d	dec    	eax
  0x286e	lea    	ecx, [0x78c]
  0x2874	call   	0x26cc
  === BLOCK LINK ===
    0x2879
=== CODE BLOCK END ===

=== CODE BLOCK ADDRESS 0x2879 ===
  0x2879	dec    	eax
  0x287a	add    	esp, 0x88
  0x2880	ret    	
  0x2881	int3   	
  0x2882	int3   	
  === BLOCK LINK ===
    0x2883
=== CODE BLOCK END ===

=== CODE BLOCK ADDRESS 0x14ad ===
  0x14ad	dec    	eax
  0x14ae	lea    	eax, [ebx + 0x400]
  === BLOCK LINK ===
    0x14b4
=== CODE BLOCK END ===

=== CODE BLOCK ADDRESS 0x2883 ===
  0x2883	int3   	
  0x2884	int3   	
  0x2885	int3   	
  0x2886	int3   	
  0x2887	int3   	
  === BLOCK LINK ===
    0x2888
=== CODE BLOCK END ===

=== CODE BLOCK ADDRESS 0x2888 ===
  0x2888	int3   	
  0x2889	int3   	
  0x288a	int3   	
  0x288b	int3   	
  0x288c	int3   	
  === BLOCK LINK ===
    0x288d
=== CODE BLOCK END ===

=== CODE BLOCK ADDRESS 0x288d ===
  0x288d	int3   	
  0x288e	int3   	
  0x288f	int3   	
  0x2890	int3   	
  0x2891	int3   	
  === BLOCK LINK ===
    0x2892
=== CODE BLOCK END ===

=== CODE BLOCK ADDRESS 0x2892 ===
  0x2892	int3   	
  0x2893	int3   	
  0x2894	int3   	
  0x2895	int3   	
  0x2896	int3   	
  === BLOCK LINK ===
    0x2897
=== CODE BLOCK END ===

=== CODE BLOCK ADDRESS 0x2897 ===
  0x2897	int3   	
  0x2898	dec    	eax
  0x2899	sub    	esp, 0x28
  0x289c	dec    	ebp
  0x289d	mov    	eax, dword ptr [ecx + 0x38]
  === BLOCK LINK ===
    0x28a0
=== CODE BLOCK END ===

=== CODE BLOCK ADDRESS 0x28a0 ===
  0x28a0	dec    	eax
  0x28a1	mov    	ecx, edx
  0x28a3	dec    	ecx
  0x28a4	mov    	edx, ecx
  0x28a6	call   	0x28bc
  === BLOCK LINK ===
    0x28ab
=== CODE BLOCK END ===

=== CODE BLOCK ADDRESS 0x28ab ===
  0x28ab	mov    	eax, 1
  0x28b0	dec    	eax
  0x28b1	add    	esp, 0x28
  0x28b4	ret    	
  0x28b5	int3   	
  === BLOCK LINK ===
    0x28b6
=== CODE BLOCK END ===

=== CODE BLOCK ADDRESS 0x28b6 ===
  0x28b6	int3   	
  0x28b7	int3   	
  0x28b8	int3   	
  0x28b9	int3   	
  0x28ba	int3   	
  === BLOCK LINK ===
    0x28bb
=== CODE BLOCK END ===

=== CODE BLOCK ADDRESS 0x28bb ===
  0x28bb	int3   	
  0x28bc	inc    	eax
  0x28bd	push   	ebx
  0x28be	inc    	ebp
  0x28bf	mov    	ebx, dword ptr [eax]
  === BLOCK LINK ===
    0x28c1
=== CODE BLOCK END ===

=== CODE BLOCK ADDRESS 0x28c1 ===
  0x28c1	dec    	eax
  0x28c2	mov    	ebx, edx
  0x28c4	inc    	ecx
  0x28c5	and    	ebx, 0xfffffff8
  0x28c8	dec    	esp
  === BLOCK LINK ===
    0x28c9
=== CODE BLOCK END ===

=== CODE BLOCK ADDRESS 0x28c9 ===
  0x28c9	mov    	ecx, ecx
  0x28cb	inc    	ecx
  0x28cc	test   	byte ptr [eax], 4
  0x28cf	dec    	esp
  0x28d0	mov    	edx, ecx
  === BLOCK LINK ===
    0x28d2
=== CODE BLOCK END ===

=== CODE BLOCK ADDRESS 0x28d2 ===
  0x28d2	je     	0x28e7
  === BLOCK LINK ===
    0x28d4
=== CODE BLOCK END ===

=== CODE BLOCK ADDRESS 0x28d4 ===
  0x28d4	inc    	ecx
  0x28d5	mov    	eax, dword ptr [eax + 8]
  0x28d8	dec    	ebp
  0x28d9	arpl   	word ptr [eax + 4], dx
  0x28dc	neg    	eax
  === BLOCK LINK ===
    0x28de
=== CODE BLOCK END ===

=== CODE BLOCK ADDRESS 0x28de ===
  0x28de	dec    	esp
  0x28df	add    	edx, ecx
  0x28e1	dec    	eax
  0x28e2	arpl   	ax, cx
  0x28e4	dec    	esp
  === BLOCK LINK ===
    0x28e5
=== CODE BLOCK END ===

=== CODE BLOCK ADDRESS 0x28e5 ===
  0x28e5	and    	edx, ecx
  0x28e7	dec    	ecx
  0x28e8	arpl   	bx, ax
  0x28ea	dec    	edx
  0x28eb	mov    	edx, dword ptr [eax + edx]
  === BLOCK LINK ===
    0x28ee
=== CODE BLOCK END ===

=== CODE BLOCK ADDRESS 0x28ee ===
  0x28ee	dec    	eax
  0x28ef	mov    	eax, dword ptr [ebx + 0x10]
  0x28f2	mov    	ecx, dword ptr [eax + 8]
  0x28f5	dec    	eax
  0x28f6	mov    	eax, dword ptr [ebx + 8]
  === BLOCK LINK ===
    0x28f9
=== CODE BLOCK END ===

=== CODE BLOCK ADDRESS 0x28f9 ===
  0x28f9	test   	byte ptr [ecx + eax + 3], 0xf
  0x28fe	je     	0x290b
  === BLOCK LINK ===
    0x2900
=== CODE BLOCK END ===

=== CODE BLOCK ADDRESS 0x2900 ===
  0x2900	movzx  	eax, byte ptr [ecx + eax + 3]
  0x2905	and    	eax, 0xfffffff0
  0x2908	dec    	esp
  0x2909	add    	ecx, eax
  0x290b	dec    	esp
  === BLOCK LINK ===
    0x290c
=== CODE BLOCK END ===

=== CODE BLOCK ADDRESS 0x290c ===
  0x290c	xor    	ecx, edx
  0x290e	dec    	ecx
  0x290f	mov    	ecx, ecx
  0x2911	pop    	ebx
  0x2912	jmp    	0x2380
  === BLOCK LINK ===
    0x2917
=== CODE BLOCK END ===

=== CODE BLOCK ADDRESS 0x2917 ===
  0x2917	int3   	
  0x2918	int3   	
  0x2919	int3   	
  0x291a	int3   	
  0x291b	int3   	
  === BLOCK LINK ===
    0x291c
=== CODE BLOCK END ===

=== CODE BLOCK ADDRESS 0x291c ===
  0x291c	int3   	
  0x291d	jmp    	dword ptr [0x965]
  === BLOCK LINK ===
    0x2923
=== CODE BLOCK END ===

=== CODE BLOCK ADDRESS 0x2923 ===
  0x2923	int3   	
  0x2924	int3   	
  0x2925	int3   	
  0x2926	int3   	
  0x2927	int3   	
  === BLOCK LINK ===
    0x2928
=== CODE BLOCK END ===

=== CODE BLOCK ADDRESS 0x2928 ===
  0x2928	int3   	
  0x2929	int3   	
  0x292a	int3   	
  0x292b	int3   	
  0x292c	int3   	
  === BLOCK LINK ===
    0x292d
=== CODE BLOCK END ===

=== CODE BLOCK ADDRESS 0x292d ===
  0x292d	int3   	
  0x292e	int3   	
  0x292f	int3   	
  0x2930	int3   	
  0x2931	int3   	
  === BLOCK LINK ===
    0x2932
=== CODE BLOCK END ===

=== CODE BLOCK ADDRESS 0x2932 ===
  0x2932	int3   	
  0x2933	int3   	
  0x2934	int3   	
  0x2935	int3   	
  0x2936	nop    	word ptr [eax + eax]
  === BLOCK LINK ===
    0x2940
=== CODE BLOCK END ===

=== CODE BLOCK ADDRESS 0x2940 ===
  0x2940	jmp    	eax
  === BLOCK LINK ===
    0x2942
=== CODE BLOCK END ===

=== CODE BLOCK ADDRESS 0x2942 ===
  0x2942	int3   	
  0x2943	int3   	
  0x2944	int3   	
  0x2945	int3   	
  0x2946	int3   	
  === BLOCK LINK ===
    0x2947
=== CODE BLOCK END ===

=== CODE BLOCK ADDRESS 0x2947 ===
  0x2947	int3   	
  0x2948	int3   	
  0x2949	int3   	
  0x294a	int3   	
  0x294b	int3   	
  === BLOCK LINK ===
    0x294c
=== CODE BLOCK END ===

=== CODE BLOCK ADDRESS 0x294c ===
  0x294c	int3   	
  0x294d	int3   	
  0x294e	int3   	
  0x294f	int3   	
  0x2950	inc    	eax
  === BLOCK LINK ===
    0x2951
=== CODE BLOCK END ===

=== CODE BLOCK ADDRESS 0x2951 ===
  0x2951	push   	ebp
  0x2952	dec    	eax
  0x2953	sub    	esp, 0x20
  0x2956	dec    	eax
  0x2957	mov    	ebp, edx
  === BLOCK LINK ===
    0x2959
=== CODE BLOCK END ===

=== CODE BLOCK ADDRESS 0x2959 ===
  0x2959	dec    	eax
  0x295a	mov    	eax, dword ptr [ecx]
  0x295c	dec    	eax
  0x295d	mov    	edx, ecx
  0x295f	mov    	ecx, dword ptr [eax]
  === BLOCK LINK ===
    0x2961
=== CODE BLOCK END ===

=== CODE BLOCK ADDRESS 0x2961 ===
  0x2961	call   	0x240e
  === BLOCK LINK ===
    0x2966
=== CODE BLOCK END ===

=== CODE BLOCK ADDRESS 0x2966 ===
  0x2966	nop    	
  0x2967	dec    	eax
  0x2968	add    	esp, 0x20
  0x296b	pop    	ebp
  0x296c	ret    	
  === BLOCK LINK ===
    0x296d
=== CODE BLOCK END ===

=== CODE BLOCK ADDRESS 0x296d ===
  0x296d	int3   	
  0x296e	int3   	
  0x296f	int3   	
  0x2970	int3   	
  0x2971	int3   	
  === BLOCK LINK ===
    0x2972
=== CODE BLOCK END ===

=== CODE BLOCK ADDRESS 0x2972 ===
  0x2972	int3   	
  0x2973	int3   	
  0x2974	int3   	
  0x2975	int3   	
  0x2976	int3   	
  === BLOCK LINK ===
    0x2977
=== CODE BLOCK END ===

=== CODE BLOCK ADDRESS 0x2977 ===
  0x2977	int3   	
  0x2978	int3   	
  0x2979	int3   	
  0x297a	int3   	
  0x297b	int3   	
  === BLOCK LINK ===
    0x297c
=== CODE BLOCK END ===

=== CODE BLOCK ADDRESS 0x297c ===
  0x297c	int3   	
  0x297d	int3   	
  0x297e	int3   	
  0x297f	int3   	
  0x2980	inc    	eax
  === BLOCK LINK ===
    0x2981
=== CODE BLOCK END ===

=== CODE BLOCK ADDRESS 0x2981 ===
  0x2981	push   	ebp
  0x2982	dec    	eax
  0x2983	sub    	esp, 0x20
  0x2986	dec    	eax
  0x2987	mov    	ebp, edx
  === BLOCK LINK ===
    0x2989
=== CODE BLOCK END ===

=== CODE BLOCK ADDRESS 0x2989 ===
  0x2989	dec    	eax
  0x298a	mov    	eax, dword ptr [ecx]
  0x298c	xor    	ecx, ecx
  0x298e	cmp    	dword ptr [eax], 0xc0000005
  0x2994	sete   	cl
  === BLOCK LINK ===
    0x2997
=== CODE BLOCK END ===

=== CODE BLOCK ADDRESS 0x2997 ===
  0x2997	mov    	eax, ecx
  0x2999	dec    	eax
  0x299a	add    	esp, 0x20
  0x299d	pop    	ebp
  0x299e	ret    	
  === BLOCK LINK ===
    0x299f
=== CODE BLOCK END ===

=== CODE BLOCK ADDRESS 0x299f ===
  0x299f	int3   	
  0x29a0	add    	byte ptr [eax], al
  0x29a2	add    	byte ptr [eax], al
  0x29a4	add    	byte ptr [eax], al
  0x29a6	add    	byte ptr [eax], al
  === BLOCK LINK ===
    0x29a8
=== CODE BLOCK END ===

=== CODE BLOCK ADDRESS 0x29a8 ===
  0x29a8	add    	byte ptr [eax], al
  0x29aa	add    	byte ptr [eax], al
  0x29ac	add    	byte ptr [eax], al
  0x29ae	add    	byte ptr [eax], al
  0x29b0	add    	byte ptr [eax], al
  === BLOCK LINK ===
    0x29b2
=== CODE BLOCK END ===

=== CODE BLOCK ADDRESS 0x29b2 ===
  0x29b2	add    	byte ptr [eax], al
  0x29b4	add    	byte ptr [eax], al
  0x29b6	add    	byte ptr [eax], al
  0x29b8	add    	byte ptr [eax], al
  0x29ba	add    	byte ptr [eax], al
  === BLOCK LINK ===
    0x29bc
=== CODE BLOCK END ===

=== CODE BLOCK ADDRESS 0x29bc ===
  0x29bc	add    	byte ptr [eax], al
  0x29be	add    	byte ptr [eax], al
  0x29c0	add    	byte ptr [eax], al
  0x29c2	add    	byte ptr [eax], al
  0x29c4	add    	byte ptr [eax], al
  === BLOCK LINK ===
    0x29c6
=== CODE BLOCK END ===

=== CODE BLOCK ADDRESS 0x29c6 ===
  0x29c6	add    	byte ptr [eax], al
  0x29c8	add    	byte ptr [eax], al
  0x29ca	add    	byte ptr [eax], al
  0x29cc	add    	byte ptr [eax], al
  0x29ce	add    	byte ptr [eax], al
  === BLOCK LINK ===
    0x29d0
=== CODE BLOCK END ===

=== CODE BLOCK ADDRESS 0x29d0 ===
  0x29d0	add    	byte ptr [eax], al
  0x29d2	add    	byte ptr [eax], al
  0x29d4	add    	byte ptr [eax], al
  0x29d6	add    	byte ptr [eax], al
  0x29d8	add    	byte ptr [eax], al
  === BLOCK LINK ===
    0x29da
=== CODE BLOCK END ===

=== CODE BLOCK ADDRESS 0x29da ===
  0x29da	add    	byte ptr [eax], al
  0x29dc	add    	byte ptr [eax], al
  0x29de	add    	byte ptr [eax], al
  0x29e0	add    	byte ptr [eax], al
  0x29e2	add    	byte ptr [eax], al
  === BLOCK LINK ===
    0x29e4
=== CODE BLOCK END ===

=== CODE BLOCK ADDRESS 0x29e4 ===
  0x29e4	add    	byte ptr [eax], al
  0x29e6	add    	byte ptr [eax], al
  0x29e8	add    	byte ptr [eax], al
  0x29ea	add    	byte ptr [eax], al
  0x29ec	add    	byte ptr [eax], al
  === BLOCK LINK ===
    0x29ee
=== CODE BLOCK END ===

=== CODE BLOCK ADDRESS 0x29ee ===
  0x29ee	add    	byte ptr [eax], al
  0x29f0	add    	byte ptr [eax], al
  0x29f2	add    	byte ptr [eax], al
  0x29f4	add    	byte ptr [eax], al
  0x29f6	add    	byte ptr [eax], al
  === BLOCK LINK ===
    0x29f8
=== CODE BLOCK END ===

=== CODE BLOCK ADDRESS 0x29f8 ===
  0x29f8	add    	byte ptr [eax], al
  0x29fa	add    	byte ptr [eax], al
  0x29fc	add    	byte ptr [eax], al
=== CODE BLOCK END ===

=== DATA BLOCK ADDRESS 0x3000 ===
  0x3000	60 50 00 40 01 00 00 00 00 51 00 40 01 00 00 00 	`P0@00000Q0@0000
  0x3010	18 01 00 00 00 00 00 00 00 00 00 00 00 00 00 00 	0000000000000000
  0x3020	00 00 00 00 00 00 00 00 00 00 00 00 00 00 00 00 	0000000000000000
  0x3030	00 00 00 00 00 00 00 00 00 00 00 00 00 00 00 00 	0000000000000000
  0x3040	00 00 00 00 00 00 00 00 00 00 00 00 00 00 00 00 	0000000000000000
  0x3050	00 00 00 00 00 00 00 00 00 00 00 00 00 00 00 00 	0000000000000000
  0x3060	00 00 00 00 00 00 00 00 08 50 00 40 01 00 00 00 	000000000P0@0000
  0x3070	00 00 00 00 00 00 00 00 00 00 00 00 00 00 00 00 	0000000000000000
  0x3080	a0 33 00 40 01 00 00 00 a8 33 00 40 01 00 00 00 	030@0000030@0000
  0x3090	e8 33 00 40 01 00 00 00 09 00 00 00 00 00 00 00 	030@000000000000
  0x30a0	00 75 01 00 00 00 00 00 00 00 00 00 00 00 00 00 	0u00000000000000
  0x30b0	00 00 00 00 00 00 00 00 00 00 00 00 00 00 00 00 	0000000000000000
  0x30c0	00 00 00 00 00 00 00 00 00 00 00 00 00 00 00 00 	0000000000000000
  0x30d0	00 00 00 00 00 00 00 00 00 00 00 00 00 00 00 00 	0000000000000000
  0x30e0	00 00 00 00 00 00 00 00 00 00 00 00 00 00 00 00 	0000000000000000
  0x30f0	00 00 00 00 00 00 00 00 00 00 00 00 00 00 00 00 	0000000000000000
  0x3100	00 00 00 00 00 00 00 00 00 00 00 00 00 00 00 00 	0000000000000000
  0x3110	00 00 00 00 00 00 00 00 00 00 00 00 00 00 00 00 	0000000000000000
  0x3120	00 00 00 00 00 00 00 00 bc 3c 00 00 00 00 00 00 	000000000<000000
  0x3130	d4 3c 00 00 00 00 00 00 a8 3c 00 00 00 00 00 00 	0<0000000<000000
  0x3140	00 00 00 00 00 00 00 00 59 01 00 00 00 00 00 80 	00000000Y0000000
  0x3150	00 00 00 00 00 00 00 00 04 3f 00 00 00 00 00 00 	000000000?000000
  0x3160	d6 3e 00 00 00 00 00 00 00 00 00 00 00 00 00 00 	0>00000000000000
  0x3170	4c 3d 00 00 00 00 00 00 5c 3d 00 00 00 00 00 00 	L=0000000=000000
  0x3180	6e 3d 00 00 00 00 00 00 fa 3c 00 00 00 00 00 00 	n=0000000<000000
  0x3190	c0 42 00 00 00 00 00 00 c8 42 00 00 00 00 00 00 	0B0000000B000000
  0x31a0	da 42 00 00 00 00 00 00 f8 42 00 00 00 00 00 00 	0B0000000B000000
  0x31b0	3e 3d 00 00 00 00 00 00 20 3d 00 00 00 00 00 00 	>=000000 =000000
  0x31c0	2e 3d 00 00 00 00 00 00 0c 43 00 00 00 00 00 00 	.=0000000C000000
  0x31d0	26 43 00 00 00 00 00 00 3c 43 00 00 00 00 00 00 	&C000000<C000000
  0x31e0	52 43 00 00 00 00 00 00 6c 43 00 00 00 00 00 00 	RC000000lC000000
  0x31f0	7c 43 00 00 00 00 00 00 98 43 00 00 00 00 00 00 	|C0000000C000000
  0x3200	0e 3d 00 00 00 00 00 00 00 00 00 00 00 00 00 00 	0=00000000000000
  0x3210	8a 3d 00 00 00 00 00 00 00 00 00 00 00 00 00 00 	0=00000000000000
  0x3220	8e 42 00 00 00 00 00 00 00 00 00 00 00 00 00 00 	0B00000000000000
  0x3230	32 3e 00 00 00 00 00 00 26 3e 00 00 00 00 00 00 	2>000000&>000000
  0x3240	12 3e 00 00 00 00 00 00 08 3e 00 00 00 00 00 00 	0>0000000>000000
  0x3250	00 3e 00 00 00 00 00 00 4a 3e 00 00 00 00 00 00 	0>000000J>000000
  0x3260	e6 3d 00 00 00 00 00 00 d4 3d 00 00 00 00 00 00 	0=0000000=000000
  0x3270	c6 3d 00 00 00 00 00 00 b8 3d 00 00 00 00 00 00 	0=0000000=000000
  0x3280	b0 3d 00 00 00 00 00 00 ac 43 00 00 00 00 00 00 	0=0000000C000000
  0x3290	a6 3d 00 00 00 00 00 00 76 3e 00 00 00 00 00 00 	0=000000v>000000
  0x32a0	5e 3e 00 00 00 00 00 00 f8 3d 00 00 00 00 00 00 	^>0000000=000000
  0x32b0	54 3e 00 00 00 00 00 00 00 00 00 00 00 00 00 00 	T>00000000000000
  0x32c0	8a 3e 00 00 00 00 00 00 9e 3e 00 00 00 00 00 00 	0>0000000>000000
  0x32d0	b8 3e 00 00 00 00 00 00 00 00 00 00 00 00 00 00 	0>00000000000000
  0x32e0	86 41 00 00 00 00 00 00 a8 41 00 00 00 00 00 00 	0A0000000A000000
  0x32f0	ca 41 00 00 00 00 00 00 f6 41 00 00 00 00 00 00 	0A0000000A000000
  0x3300	14 42 00 00 00 00 00 00 32 42 00 00 00 00 00 00 	0B0000002B000000
  0x3310	52 42 00 00 00 00 00 00 1c 41 00 00 00 00 00 00 	RB0000000A000000
  0x3320	16 40 00 00 00 00 00 00 fa 3f 00 00 00 00 00 00 	0@0000000?000000
  0x3330	d0 3f 00 00 00 00 00 00 bc 3f 00 00 00 00 00 00 	0?0000000?000000
  0x3340	a8 3f 00 00 00 00 00 00 88 3f 00 00 00 00 00 00 	0?0000000?000000
  0x3350	66 3f 00 00 00 00 00 00 3a 3f 00 00 00 00 00 00 	f?000000:?000000
  0x3360	50 41 00 00 00 00 00 00 ea 40 00 00 00 00 00 00 	PA0000000@000000
  0x3370	ba 40 00 00 00 00 00 00 7e 40 00 00 00 00 00 00 	0@000000~@000000
  0x3380	4c 40 00 00 00 00 00 00 36 40 00 00 00 00 00 00 	L@0000006@000000
  0x3390	50 3f 00 00 00 00 00 00 00 00 00 00 00 00 00 00 	P?00000000000000
  0x33a0	c0 26 00 40 01 00 00 00 40 29 00 40 01 00 00 00 	0&0@0000@)0@0000
  0x33b0	00 00 00 00 00 00 00 00 90 20 00 40 01 00 00 00 	000000000 0@0000
  0x33c0	00 00 00 00 00 00 00 00 00 00 00 00 00 00 00 00 	0000000000000000
  0x33d0	b0 1f 00 40 01 00 00 00 f0 23 00 40 01 00 00 00 	000@00000#0@0000
  0x33e0	00 00 00 00 00 00 00 00 10 10 00 00 b0 1f 00 00 	0000000000000000
  0x33f0	90 20 00 00 50 23 00 00 b0 23 00 00 f0 23 00 00 	0 00P#000#000#00
  0x3400	d0 24 00 00 c0 26 00 00 10 27 00 00 00 00 00 00 	0$000&000'000000
  0x3410	46 00 4d 00 49 00 46 00 53 00 2e 00 44 00 4c 00 	F0M0I0F0S0.0D0L0
  0x3420	4c 00 00 00 00 00 00 00 43 68 6b 64 73 6b 45 78 	L0000000ChkdskEx
  0x3430	00 00 00 00 00 00 00 00 45 6e 61 62 6c 65 56 6f 	00000000EnableVo
  0x3440	6c 75 6d 65 43 6f 6d 70 72 65 73 73 69 6f 6e 00 	lumeCompression0
  0x3450	46 6f 72 6d 61 74 45 78 32 00 00 00 00 00 00 00 	FormatEx20000000
  0x3460	47 65 74 44 65 66 61 75 6c 74 46 69 6c 65 53 79 	GetDefaultFileSy
  0x3470	73 74 65 6d 00 00 00 00 51 75 65 72 79 43 6f 72 	stem0000QueryCor
  0x3480	72 75 70 74 69 6f 6e 53 74 61 74 65 00 00 00 00 	ruptionState0000
  0x3490	61 75 74 6f 63 68 65 63 6b 20 61 75 74 6f 63 68 	autocheck autoch
  0x34a0	6b 20 2f 6d 20 2f 66 20 00 00 00 00 00 00 00 00 	k /m /f 00000000
  0x34b0	61 75 74 6f 63 68 65 63 6b 20 61 75 74 6f 63 68 	autocheck autoch
  0x34c0	6b 20 2f 6d 20 2f 50 20 00 00 00 00 00 00 00 00 	k /m /P 00000000
  0x34d0	53 00 65 00 53 00 68 00 75 00 74 00 64 00 6f 00 	S0e0S0h0u0t0d0o0
  0x34e0	77 00 6e 00 50 00 72 00 69 00 76 00 69 00 6c 00 	w0n0P0r0i0v0i0l0
  0x34f0	65 00 67 00 65 00 00 00 5c 00 5c 00 2e 00 5c 00 	e0g0e0000000.000
  0x3500	4e 00 74 00 66 00 73 00 00 00 00 00 00 00 00 00 	N0t0f0s000000000
  0x3510	53 00 65 00 4d 00 61 00 6e 00 61 00 67 00 65 00 	S0e0M0a0n0a0g0e0
  0x3520	56 00 6f 00 6c 00 75 00 6d 00 65 00 50 00 72 00 	V0o0l0u0m0e0P0r0
  0x3530	69 00 76 00 69 00 6c 00 65 00 67 00 65 00 00 00 	i0v0i0l0e0g0e000
  0x3540	4e 00 54 00 46 00 53 00 00 00 00 00 2a 00 00 00 	N0T0F0S00000*000
  0x3550	2f 73 70 6f 74 66 69 78 00 00 00 00 2f 66 75 6c 	/spotfix0000/ful
  0x3560	6c 00 00 00 2f 73 63 61 6e 00 00 00 2f 2a 00 00 	l000/scan000/*00
  0x3570	2f 00 00 00 22 00 00 00 20 22 09 00 00 00 00 00 	/000"000 "000000
  0x3580	00 00 00 00 0a 3f b2 b3 00 00 00 00 02 00 00 00 	00000?0000000000
  0x3590	26 00 00 00 d4 35 00 00 d4 23 00 00 00 00 00 00 	&00005000#000000
  0x35a0	0a 3f b2 b3 00 00 00 00 0d 00 00 00 f0 01 00 00 	0?00000000000000
  0x35b0	fc 35 00 00 fc 23 00 00 00 00 00 00 0a 3f b2 b3 	05000#0000000?00
  0x35c0	00 00 00 00 10 00 00 00 24 00 00 00 ec 37 00 00 	00000000$0000700
  0x35d0	ec 25 00 00 52 53 44 53 5a a2 c7 08 c6 bc 07 02 	0%00RSDSZ0000000
  0x35e0	73 ca b5 6d 95 6c 26 3c 01 00 00 00 66 73 61 76 	s00m0l&<0000fsav
  0x35f0	61 69 6c 75 78 2e 70 64 62 00 00 00 47 43 54 4c 	ailux.pdb000GCTL
  0x3600	00 10 00 00 30 19 00 00 2e 74 65 78 74 24 6d 6e 	00000000.text$mn
  0x3610	00 00 00 00 30 29 00 00 20 00 00 00 2e 74 65 78 	00000)00 000.tex
  0x3620	74 24 6d 6e 24 30 30 00 50 29 00 00 50 00 00 00 	t$mn$000P)00P000
  0x3630	2e 74 65 78 74 24 78 00 00 30 00 00 28 01 00 00 	.text$x00000(000
  0x3640	2e 72 64 61 74 61 24 62 72 63 00 00 28 31 00 00 	.rdata$brc00(100
  0x3650	78 02 00 00 2e 69 64 61 74 61 24 35 00 00 00 00 	x000.idata$50000
  0x3660	a0 33 00 00 10 00 00 00 2e 30 30 63 66 67 00 00 	03000000.00cfg00
  0x3670	b0 33 00 00 08 00 00 00 2e 43 52 54 24 58 43 41 	03000000.CRT$XCA
  0x3680	00 00 00 00 b8 33 00 00 08 00 00 00 2e 43 52 54 	000003000000.CRT
  0x3690	24 58 43 41 41 00 00 00 c0 33 00 00 08 00 00 00 	$XCAA00003000000
  0x36a0	2e 43 52 54 24 58 43 5a 00 00 00 00 c8 33 00 00 	.CRT$XCZ00000300
  0x36b0	08 00 00 00 2e 43 52 54 24 58 49 41 00 00 00 00 	0000.CRT$XIA0000
  0x36c0	d0 33 00 00 08 00 00 00 2e 43 52 54 24 58 49 41 	03000000.CRT$XIA
  0x36d0	41 00 00 00 d8 33 00 00 08 00 00 00 2e 43 52 54 	A00003000000.CRT
  0x36e0	24 58 49 59 00 00 00 00 e0 33 00 00 08 00 00 00 	$XIY000003000000
  0x36f0	2e 43 52 54 24 58 49 5a 00 00 00 00 e8 33 00 00 	.CRT$XIZ00000300
  0x3700	28 00 00 00 2e 67 66 69 64 73 00 00 10 34 00 00 	(000.gfids000400
  0x3710	c4 01 00 00 2e 72 64 61 74 61 00 00 d4 35 00 00 	0000.rdata000500
  0x3720	3c 02 00 00 2e 72 64 61 74 61 24 7a 7a 7a 64 62 	<000.rdata$zzzdb
  0x3730	67 00 00 00 10 38 00 00 54 01 00 00 2e 78 64 61 	g0000800T000.xda
  0x3740	74 61 00 00 64 39 00 00 b4 00 00 00 2e 69 64 61 	ta00d9000000.ida
  0x3750	74 61 24 32 00 00 00 00 18 3a 00 00 18 00 00 00 	ta$200000:000000
  0x3760	2e 69 64 61 74 61 24 33 00 00 00 00 30 3a 00 00 	.idata$300000:00
  0x3770	78 02 00 00 2e 69 64 61 74 61 24 34 00 00 00 00 	x000.idata$40000
  0x3780	a8 3c 00 00 0e 07 00 00 2e 69 64 61 74 61 24 36 	0<000000.idata$6
  0x3790	00 00 00 00 00 50 00 00 20 00 00 00 2e 64 61 74 	00000P00 000.dat
  0x37a0	61 00 00 00 20 50 00 00 58 06 00 00 2e 62 73 73 	a000 P00X000.bss
  0x37b0	00 00 00 00 00 60 00 00 20 01 00 00 2e 70 64 61 	00000`00 000.pda
  0x37c0	74 61 00 00 00 70 00 00 f0 00 00 00 2e 72 73 72 	ta000p000000.rsr
  0x37d0	63 24 30 31 00 00 00 00 f0 70 00 00 50 09 00 00 	c$0100000p00P000
  0x37e0	2e 72 73 72 63 24 30 32 00 00 00 00 20 00 00 00 	.rsrc$020000 000
  0x37f0	5a a2 c7 08 c6 bc 07 02 73 ca b5 6d 95 6c 26 3c 	Z0000000s00m0l&<
  0x3800	92 97 da dd 15 1c b1 34 9c f7 8e d1 0a 3f b2 b3 	0000000400000?00
  0x3810	01 0d 05 00 0d 34 1a 00 0d 01 18 00 06 70 00 00 	0000040000000p00
  0x3820	19 20 05 00 12 34 27 00 12 01 24 00 06 50 00 00 	0 0004'000$00P00
  0x3830	98 28 00 00 10 01 00 00 19 31 0d 00 23 74 21 00 	0(0000000100#t!0
  0x3840	23 64 20 00 23 34 1f 00 23 01 18 00 18 f0 16 e0 	#d 0#400#0000000
  0x3850	14 d0 12 c0 10 50 00 00 98 28 00 00 b8 00 00 00 	00000P000(000000
  0x3860	19 31 0d 00 23 74 1d 00 23 64 1c 00 23 34 1b 00 	0100#t00#d00#400
  0x3870	23 01 14 00 18 f0 16 e0 14 d0 12 c0 10 50 00 00 	#000000000000P00
  0x3880	98 28 00 00 90 00 00 00 01 22 0b 00 22 e4 91 00 	0(0000000"00"000
  0x3890	22 74 90 00 22 64 8f 00 22 34 8e 00 22 01 8c 00 	"t00"d00"400"000
  0x38a0	14 50 00 00 01 04 01 00 04 42 00 00 01 04 01 00 	0P0000000B000000
  0x38b0	04 62 00 00 09 1c 0b 00 1c e4 1b 00 1c 74 1a 00 	0b00000000000t00
  0x38c0	1c 64 19 00 1c 34 18 00 1c 01 16 00 15 f0 00 00 	0d00040000000000
  0x38d0	aa 26 00 00 01 00 00 00 0f 21 00 00 f9 22 00 00 	0&0000000!000"00
  0x38e0	50 29 00 00 f9 22 00 00 01 06 02 00 06 32 02 50 	P)000"000000020P
  0x38f0	01 00 00 00 09 04 01 00 04 22 00 00 aa 26 00 00 	000000000"000&00
  0x3900	01 00 00 00 2c 24 00 00 62 24 00 00 01 00 00 00 	0000,$00b$000000
  0x3910	62 24 00 00 01 06 02 00 06 32 02 30 09 0a 04 00 	b$00000002000000
  0x3920	0a 34 06 00 0a 32 06 70 aa 26 00 00 01 00 00 00 	0400020p0&000000
  0x3930	3d 25 00 00 70 25 00 00 80 29 00 00 70 25 00 00 	=%00p%000)00p%00
  0x3940	01 0d 04 00 0d 34 09 00 0d 32 06 50 01 0c 02 00 	00000400020P0000
  0x3950	0c 01 11 00 00 00 00 00 01 00 00 00 01 02 01 00 	0000000000000000
  0x3960	02 30 00 00 30 3a 00 00 00 00 00 00 00 00 00 00 	00000:0000000000
  0x3970	ec 3c 00 00 28 31 00 00 78 3a 00 00 00 00 00 00 	0<00(100x:000000
  0x3980	00 00 00 00 7c 3d 00 00 70 31 00 00 18 3b 00 00 	0000|=00p1000;00
  0x3990	00 00 00 00 00 00 00 00 9a 3d 00 00 10 32 00 00 	000000000=000200
  0x39a0	38 3b 00 00 00 00 00 00 00 00 00 00 6a 3e 00 00 	8;0000000000j>00
  0x39b0	30 32 00 00 c8 3b 00 00 00 00 00 00 00 00 00 00 	02000;0000000000
  0x39c0	cc 3e 00 00 c0 32 00 00 60 3a 00 00 00 00 00 00 	0>000200`:000000
  0x39d0	00 00 00 00 2e 3f 00 00 58 31 00 00 e8 3b 00 00 	0000.?00X1000;00
  0x39e0	00 00 00 00 00 00 00 00 76 42 00 00 e0 32 00 00 	00000000vB000200
  0x39f0	50 3a 00 00 00 00 00 00 00 00 00 00 80 42 00 00 	P:00000000000B00
  0x3a00	48 31 00 00 28 3b 00 00 00 00 00 00 00 00 00 00 	H100(;0000000000
  0x3a10	a0 42 00 00 20 32 00 00 00 00 00 00 00 00 00 00 	0B00 20000000000
  0x3a20	00 00 00 00 00 00 00 00 00 00 00 00 00 00 00 00 	0000000000000000
  0x3a30	bc 3c 00 00 00 00 00 00 d4 3c 00 00 00 00 00 00 	0<0000000<000000
  0x3a40	a8 3c 00 00 00 00 00 00 00 00 00 00 00 00 00 00 	0<00000000000000
  0x3a50	59 01 00 00 00 00 00 80 00 00 00 00 00 00 00 00 	Y000000000000000
  0x3a60	04 3f 00 00 00 00 00 00 d6 3e 00 00 00 00 00 00 	0?0000000>000000
  0x3a70	00 00 00 00 00 00 00 00 4c 3d 00 00 00 00 00 00 	00000000L=000000
  0x3a80	5c 3d 00 00 00 00 00 00 6e 3d 00 00 00 00 00 00 	0=000000n=000000
  0x3a90	fa 3c 00 00 00 00 00 00 c0 42 00 00 00 00 00 00 	0<0000000B000000
  0x3aa0	c8 42 00 00 00 00 00 00 da 42 00 00 00 00 00 00 	0B0000000B000000
  0x3ab0	f8 42 00 00 00 00 00 00 3e 3d 00 00 00 00 00 00 	0B000000>=000000
  0x3ac0	20 3d 00 00 00 00 00 00 2e 3d 00 00 00 00 00 00 	 =000000.=000000
  0x3ad0	0c 43 00 00 00 00 00 00 26 43 00 00 00 00 00 00 	0C000000&C000000
  0x3ae0	3c 43 00 00 00 00 00 00 52 43 00 00 00 00 00 00 	<C000000RC000000
  0x3af0	6c 43 00 00 00 00 00 00 7c 43 00 00 00 00 00 00 	lC000000|C000000
  0x3b00	98 43 00 00 00 00 00 00 0e 3d 00 00 00 00 00 00 	0C0000000=000000
  0x3b10	00 00 00 00 00 00 00 00 8a 3d 00 00 00 00 00 00 	000000000=000000
  0x3b20	00 00 00 00 00 00 00 00 8e 42 00 00 00 00 00 00 	000000000B000000
  0x3b30	00 00 00 00 00 00 00 00 32 3e 00 00 00 00 00 00 	000000002>000000
  0x3b40	26 3e 00 00 00 00 00 00 12 3e 00 00 00 00 00 00 	&>0000000>000000
  0x3b50	08 3e 00 00 00 00 00 00 00 3e 00 00 00 00 00 00 	0>0000000>000000
  0x3b60	4a 3e 00 00 00 00 00 00 e6 3d 00 00 00 00 00 00 	J>0000000=000000
  0x3b70	d4 3d 00 00 00 00 00 00 c6 3d 00 00 00 00 00 00 	0=0000000=000000
  0x3b80	b8 3d 00 00 00 00 00 00 b0 3d 00 00 00 00 00 00 	0=0000000=000000
  0x3b90	ac 43 00 00 00 00 00 00 a6 3d 00 00 00 00 00 00 	0C0000000=000000
  0x3ba0	76 3e 00 00 00 00 00 00 5e 3e 00 00 00 00 00 00 	v>000000^>000000
  0x3bb0	f8 3d 00 00 00 00 00 00 54 3e 00 00 00 00 00 00 	0=000000T>000000
  0x3bc0	00 00 00 00 00 00 00 00 8a 3e 00 00 00 00 00 00 	000000000>000000
  0x3bd0	9e 3e 00 00 00 00 00 00 b8 3e 00 00 00 00 00 00 	0>0000000>000000
  0x3be0	00 00 00 00 00 00 00 00 86 41 00 00 00 00 00 00 	000000000A000000
  0x3bf0	a8 41 00 00 00 00 00 00 ca 41 00 00 00 00 00 00 	0A0000000A000000
  0x3c00	f6 41 00 00 00 00 00 00 14 42 00 00 00 00 00 00 	0A0000000B000000
  0x3c10	32 42 00 00 00 00 00 00 52 42 00 00 00 00 00 00 	2B000000RB000000
  0x3c20	1c 41 00 00 00 00 00 00 16 40 00 00 00 00 00 00 	0A0000000@000000
  0x3c30	fa 3f 00 00 00 00 00 00 d0 3f 00 00 00 00 00 00 	0?0000000?000000
  0x3c40	bc 3f 00 00 00 00 00 00 a8 3f 00 00 00 00 00 00 	0?0000000?000000
  0x3c50	88 3f 00 00 00 00 00 00 66 3f 00 00 00 00 00 00 	0?000000f?000000
  0x3c60	3a 3f 00 00 00 00 00 00 50 41 00 00 00 00 00 00 	:?000000PA000000
  0x3c70	ea 40 00 00 00 00 00 00 ba 40 00 00 00 00 00 00 	0@0000000@000000
  0x3c80	7e 40 00 00 00 00 00 00 4c 40 00 00 00 00 00 00 	~@000000L@000000
  0x3c90	36 40 00 00 00 00 00 00 50 3f 00 00 00 00 00 00 	6@000000P?000000
  0x3ca0	00 00 00 00 00 00 00 00 15 02 4f 70 65 6e 50 72 	0000000000OpenPr
  0x3cb0	6f 63 65 73 73 54 6f 6b 65 6e 00 00 1f 00 41 64 	ocessToken0000Ad
  0x3cc0	6a 75 73 74 54 6f 6b 65 6e 50 72 69 76 69 6c 65 	justTokenPrivile
  0x3cd0	67 65 73 00 af 01 4c 6f 6f 6b 75 70 50 72 69 76 	ges000LookupPriv
  0x3ce0	69 6c 65 67 65 56 61 6c 75 65 57 00 41 44 56 41 	ilegeValueW0ADVA
  0x3cf0	50 49 33 32 2e 64 6c 6c 00 00 1f 02 47 65 74 43 	PI32.dll0000GetC
  0x3d00	75 72 72 65 6e 74 50 72 6f 63 65 73 73 00 23 01 	urrentProcess0#0
  0x3d10	44 65 76 69 63 65 49 6f 43 6f 6e 74 72 6f 6c 00 	DeviceIoControl0
  0x3d20	cd 00 43 72 65 61 74 65 46 69 6c 65 57 00 69 02 	00CreateFileW0i0
  0x3d30	47 65 74 4c 61 73 74 45 72 72 6f 72 00 00 88 00 	GetLastError0000
  0x3d40	43 6c 6f 73 65 48 61 6e 64 6c 65 00 ca 03 4c 6f 	CloseHandle000Lo
  0x3d50	61 64 4c 69 62 72 61 72 79 57 00 00 b7 02 47 65 	adLibraryW0000Ge
  0x3d60	74 50 72 6f 63 41 64 64 72 65 73 73 00 00 b3 01 	tProcAddress0000
  0x3d70	46 72 65 65 4c 69 62 72 61 72 79 00 4b 45 52 4e 	FreeLibrary0KERN
  0x3d80	45 4c 33 32 2e 64 6c 6c 00 00 0f 01 45 78 69 74 	EL32.dll0000Exit
  0x3d90	57 69 6e 64 6f 77 73 45 78 00 55 53 45 52 33 32 	WindowsEx0USER32
  0x3da0	2e 64 6c 6c 00 00 a9 04 72 65 61 6c 6c 6f 63 00 	.dll0000realloc0
  0x3db0	4c 04 66 72 65 65 00 00 55 00 5f 58 63 70 74 46 	L0free00U0_XcptF
  0x3dc0	69 6c 74 65 72 00 ae 00 5f 61 6d 73 67 5f 65 78 	ilter000_amsg_ex
  0x3dd0	69 74 00 00 9d 00 5f 5f 77 67 65 74 6d 61 69 6e 	it0000__wgetmain
  0x3de0	61 72 67 73 00 00 8e 00 5f 5f 73 65 74 5f 61 70 	args0000__set_ap
  0x3df0	70 5f 74 79 70 65 00 00 32 04 65 78 69 74 00 00 	p_type0020exit00
  0x3e00	0e 01 5f 65 78 69 74 00 c1 00 5f 63 65 78 69 74 	00_exit000_cexit
  0x3e10	00 00 90 00 5f 5f 73 65 74 75 73 65 72 6d 61 74 	0000__setusermat
  0x3e20	68 65 72 72 00 00 7d 01 5f 69 6e 69 74 74 65 72 	herr00}0_initter
  0x3e30	6d 00 57 00 5f 5f 43 5f 73 70 65 63 69 66 69 63 	m0W0__C_specific
  0x3e40	5f 68 61 6e 64 6c 65 72 00 00 82 03 5f 77 63 6d 	_handler0000_wcm
  0x3e50	64 6c 6e 00 27 01 5f 66 6d 6f 64 65 00 00 d2 00 	dln0'0_fmode0000
  0x3e60	5f 63 6f 6d 6d 6f 64 65 00 00 6d 73 76 63 72 74 	_commode00msvcrt
  0x3e70	2e 64 6c 6c 00 00 2f 00 3f 74 65 72 6d 69 6e 61 	.dll00/0?termina
  0x3e80	74 65 40 40 59 41 58 58 5a 00 f2 02 52 74 6c 43 	te@@YAXXZ000RtlC
  0x3e90	61 70 74 75 72 65 43 6f 6e 74 65 78 74 00 e8 04 	aptureContext000
  0x3ea0	52 74 6c 4c 6f 6f 6b 75 70 46 75 6e 63 74 69 6f 	RtlLookupFunctio
  0x3eb0	6e 45 6e 74 72 79 00 00 27 06 52 74 6c 56 69 72 	nEntry00'0RtlVir
  0x3ec0	74 75 61 6c 55 6e 77 69 6e 64 00 00 6e 74 64 6c 	tualUnwind00ntdl
  0x3ed0	6c 2e 64 6c 6c 00 9c 00 3f 49 73 45 6e 74 72 79 	l.dll000?IsEntry
  0x3ee0	50 72 65 73 65 6e 74 40 41 55 54 4f 52 45 47 40 	Present@AUTOREG@
  0x3ef0	40 53 41 45 50 45 42 56 57 53 54 52 49 4e 47 40 	@SAEPEBVWSTRING@
  0x3f00	40 40 5a 00 b3 00 3f 50 75 73 68 45 6e 74 72 79 	@@Z000?PushEntry
  0x3f10	40 41 55 54 4f 52 45 47 40 40 53 41 45 50 45 42 	@AUTOREG@@SAEPEB
  0x3f20	56 57 53 54 52 49 4e 47 40 40 40 5a 00 00 49 66 	VWSTRING@@@Z00If
  0x3f30	73 55 74 69 6c 2e 64 6c 6c 00 3b 00 3f 3f 31 44 	sUtil.dll0;0??1D
  0x3f40	53 54 52 49 4e 47 40 40 55 45 41 41 40 58 5a 00 	STRING@@UEAA@XZ0
  0x3f50	0f 00 3f 3f 30 44 53 54 52 49 4e 47 40 40 51 45 	00??0DSTRING@@QE
  0x3f60	41 41 40 58 5a 00 15 01 3f 50 75 74 40 41 52 52 	AA@XZ000?Put@ARR
  0x3f70	41 59 40 40 55 45 41 41 45 50 45 41 56 4f 42 4a 	AY@@UEAAEPEAVOBJ
  0x3f80	45 43 54 40 40 40 5a 00 c0 00 3f 49 6e 69 74 69 	ECT@@@Z000?Initi
  0x3f90	61 6c 69 7a 65 40 41 52 52 41 59 40 40 51 45 41 	alize@ARRAY@@QEA
  0x3fa0	41 45 4b 4b 40 5a 00 00 34 00 3f 3f 31 41 52 52 	AEKK@Z0040??1ARR
  0x3fb0	41 59 40 40 55 45 41 41 40 58 5a 00 02 00 3f 3f 	AY@@UEAA@XZ000??
  0x3fc0	30 41 52 52 41 59 40 40 51 45 41 41 40 58 5a 00 	0ARRAY@@QEAA@XZ0
  0x3fd0	ca 00 3f 49 6e 69 74 69 61 6c 69 7a 65 40 46 4c 	00?Initialize@FL
  0x3fe0	41 47 5f 41 52 47 55 4d 45 4e 54 40 40 51 45 41 	AG_ARGUMENT@@QEA
  0x3ff0	41 45 50 45 41 44 40 5a 00 00 10 00 3f 3f 30 46 	AEPEAD@Z0000??0F
  0x4000	4c 41 47 5f 41 52 47 55 4d 45 4e 54 40 40 51 45 	LAG_ARGUMENT@@QE
  0x4010	41 41 40 58 5a 00 fc 00 3f 49 73 56 61 6c 75 65 	AA@XZ000?IsValue
  0x4020	53 65 74 40 41 52 47 55 4d 45 4e 54 40 40 51 45 	Set@ARGUMENT@@QE
  0x4030	41 41 45 58 5a 00 46 00 3f 3f 31 4f 42 4a 45 43 	AAEXZ0F0??1OBJEC
  0x4040	54 40 40 55 45 41 41 40 58 5a 00 00 77 01 3f 53 	T@@UEAA@XZ00w0?S
  0x4050	65 74 43 61 73 65 53 65 6e 73 69 74 69 76 65 40 	etCaseSensitive@
  0x4060	41 52 47 55 4d 45 4e 54 5f 4c 45 58 45 4d 49 5a 	ARGUMENT_LEXEMIZ
  0x4070	45 52 40 40 51 45 41 41 58 45 40 5a 00 00 14 01 	ER@@QEAAXE@Z0000
  0x4080	3f 50 72 65 70 61 72 65 54 6f 50 61 72 73 65 40 	?PrepareToParse@
  0x4090	41 52 47 55 4d 45 4e 54 5f 4c 45 58 45 4d 49 5a 	ARGUMENT_LEXEMIZ
  0x40a0	45 52 40 40 51 45 41 41 45 50 45 41 56 57 53 54 	ER@@QEAAEPEAVWST
  0x40b0	52 49 4e 47 40 40 40 5a 00 00 20 01 3f 50 75 74 	RING@@@Z00 0?Put
  0x40c0	53 77 69 74 63 68 65 73 40 41 52 47 55 4d 45 4e 	Switches@ARGUMEN
  0x40d0	54 5f 4c 45 58 45 4d 49 5a 45 52 40 40 51 45 41 	T_LEXEMIZER@@QEA
  0x40e0	41 58 50 45 42 44 40 5a 00 00 1c 01 3f 50 75 74 	AXPEBD@Z0000?Put
  0x40f0	53 65 70 61 72 61 74 6f 72 73 40 41 52 47 55 4d 	Separators@ARGUM
  0x4100	45 4e 54 5f 4c 45 58 45 4d 49 5a 45 52 40 40 51 	ENT_LEXEMIZER@@Q
  0x4110	45 41 41 58 50 45 42 44 40 5a 00 00 9b 00 3f 44 	EAAXPEBD@Z0000?D
  0x4120	6f 50 61 72 73 69 6e 67 40 41 52 47 55 4d 45 4e 	oParsing@ARGUMEN
  0x4130	54 5f 4c 45 58 45 4d 49 5a 45 52 40 40 51 45 41 	T_LEXEMIZER@@QEA
  0x4140	41 45 50 45 41 56 41 52 52 41 59 40 40 40 5a 00 	AEPEAVARRAY@@@Z0
  0x4150	bf 00 3f 49 6e 69 74 69 61 6c 69 7a 65 40 41 52 	00?Initialize@AR
  0x4160	47 55 4d 45 4e 54 5f 4c 45 58 45 4d 49 5a 45 52 	GUMENT_LEXEMIZER
  0x4170	40 40 51 45 41 41 45 50 45 41 56 41 52 52 41 59 	@@QEAAEPEAVARRAY
  0x4180	40 40 40 5a 00 00 33 00 3f 3f 31 41 52 47 55 4d 	@@@Z0030??1ARGUM
  0x4190	45 4e 54 5f 4c 45 58 45 4d 49 5a 45 52 40 40 55 	ENT_LEXEMIZER@@U
  0x41a0	45 41 41 40 58 5a 00 00 01 00 3f 3f 30 41 52 47 	EAA@XZ0000??0ARG
  0x41b0	55 4d 45 4e 54 5f 4c 45 58 45 4d 49 5a 45 52 40 	UMENT_LEXEMIZER@
  0x41c0	40 51 45 41 41 40 58 5a 00 00 e0 00 3f 49 6e 69 	@QEAA@XZ0000?Ini
  0x41d0	74 69 61 6c 69 7a 65 40 53 54 52 49 4e 47 5f 41 	tialize@STRING_A
  0x41e0	52 47 55 4d 45 4e 54 40 40 51 45 41 41 45 50 45 	RGUMENT@@QEAAEPE
  0x41f0	41 44 40 5a 00 00 4f 00 3f 3f 31 53 54 52 49 4e 	AD@Z00O0??1STRIN
  0x4200	47 5f 41 52 47 55 4d 45 4e 54 40 40 55 45 41 41 	G_ARGUMENT@@UEAA
  0x4210	40 58 5a 00 2b 00 3f 3f 30 53 54 52 49 4e 47 5f 	@XZ0+0??0STRING_
  0x4220	41 52 47 55 4d 45 4e 54 40 40 51 45 41 41 40 58 	ARGUMENT@@QEAA@X
  0x4230	5a 00 9b 01 3f 53 74 72 63 61 74 40 57 53 54 52 	Z000?Strcat@WSTR
  0x4240	49 4e 47 40 40 51 45 41 41 45 50 45 42 47 40 5a 	ING@@QEAAEPEBG@Z
  0x4250	00 00 e8 00 3f 49 6e 69 74 69 61 6c 69 7a 65 40 	0000?Initialize@
  0x4260	57 53 54 52 49 4e 47 40 40 51 45 41 41 45 50 45 	WSTRING@@QEAAEPE
  0x4270	42 44 4b 40 5a 00 75 6c 69 62 2e 64 6c 6c 00 00 	BDK@Z0ulib.dll00
  0x4280	43 4f 4d 43 54 4c 33 32 2e 64 6c 6c 00 00 28 00 	COMCTL32.dll00(0
  0x4290	43 6f 49 6e 69 74 69 61 6c 69 7a 65 45 78 00 00 	CoInitializeEx00
  0x42a0	61 70 69 2d 6d 73 2d 77 69 6e 2d 63 6f 72 65 2d 	api-ms-win-core-
  0x42b0	63 6f 6d 2d 6c 31 2d 31 2d 30 2e 64 6c 6c 00 00 	com-l1-1-0.dll00
  0x42c0	8d 05 53 6c 65 65 70 00 d9 02 47 65 74 53 74 61 	00Sleep000GetSta
  0x42d0	72 74 75 70 49 6e 66 6f 57 00 7d 05 53 65 74 55 	rtupInfoW0}0SetU
  0x42e0	6e 68 61 6e 64 6c 65 64 45 78 63 65 70 74 69 6f 	nhandledExceptio
  0x42f0	6e 46 69 6c 74 65 72 00 80 02 47 65 74 4d 6f 64 	nFilter000GetMod
  0x4300	75 6c 65 48 61 6e 64 6c 65 57 00 00 51 04 51 75 	uleHandleW00Q0Qu
  0x4310	65 72 79 50 65 72 66 6f 72 6d 61 6e 63 65 43 6f 	eryPerformanceCo
  0x4320	75 6e 74 65 72 00 20 02 47 65 74 43 75 72 72 65 	unter0 0GetCurre
  0x4330	6e 74 50 72 6f 63 65 73 73 49 64 00 24 02 47 65 	ntProcessId0$0Ge
  0x4340	74 43 75 72 72 65 6e 74 54 68 72 65 61 64 49 64 	tCurrentThreadId
  0x4350	00 00 f2 02 47 65 74 53 79 73 74 65 6d 54 69 6d 	0000GetSystemTim
  0x4360	65 41 73 46 69 6c 65 54 69 6d 65 00 10 03 47 65 	eAsFileTime000Ge
  0x4370	74 54 69 63 6b 43 6f 75 6e 74 00 00 be 05 55 6e 	tTickCount0000Un
  0x4380	68 61 6e 64 6c 65 64 45 78 63 65 70 74 69 6f 6e 	handledException
  0x4390	46 69 6c 74 65 72 00 00 9c 05 54 65 72 6d 69 6e 	Filter0000Termin
  0x43a0	61 74 65 50 72 6f 63 65 73 73 00 00 96 04 6d 65 	ateProcess0000me
  0x43b0	6d 73 65 74 00 00 00 00 00 00 00 00 00 00 00 00 	mset000000000000
  0x43c0	00 00 00 00 00 00 00 00 00 00 00 00 00 00 00 00 	0000000000000000
  0x43d0	00 00 00 00 00 00 00 00 00 00 00 00 00 00 00 00 	0000000000000000
  0x43e0	00 00 00 00 00 00 00 00 00 00 00 00 00 00 00 00 	0000000000000000
  0x43f0	00 00 00 00 00 00 00 00 00 00 00 00 00 00 00 00 	0000000000000000
=== DATA BLOCK END ===

=== DATA BLOCK ADDRESS 0x5000 ===
  0x5000	01 00 00 00 00 00 00 00 32 a2 df 2d 99 2b 00 00 	00000000200-0+00
  0x5010	cd 5d 20 d2 66 d4 ff ff 00 00 00 00 00 00 00 00 	0] 0f00000000000
  0x5020	00 00 00 00 00 00 00 00 00 00 00 00 00 00 00 00 	0000000000000000
  0x5030	00 00 00 00 00 00 00 00 00 00 00 00 00 00 00 00 	0000000000000000
  0x5040	00 00 00 00 00 00 00 00 00 00 00 00 00 00 00 00 	0000000000000000
  0x5050	00 00 00 00 00 00 00 00 00 00 00 00 00 00 00 00 	0000000000000000
  0x5060	00 00 00 00 00 00 00 00 00 00 00 00 00 00 00 00 	0000000000000000
  0x5070	00 00 00 00 00 00 00 00 00 00 00 00 00 00 00 00 	0000000000000000
  0x5080	00 00 00 00 00 00 00 00 00 00 00 00 00 00 00 00 	0000000000000000
  0x5090	00 00 00 00 00 00 00 00 00 00 00 00 00 00 00 00 	0000000000000000
  0x50a0	00 00 00 00 00 00 00 00 00 00 00 00 00 00 00 00 	0000000000000000
  0x50b0	00 00 00 00 00 00 00 00 00 00 00 00 00 00 00 00 	0000000000000000
  0x50c0	00 00 00 00 00 00 00 00 00 00 00 00 00 00 00 00 	0000000000000000
  0x50d0	00 00 00 00 00 00 00 00 00 00 00 00 00 00 00 00 	0000000000000000
  0x50e0	00 00 00 00 00 00 00 00 00 00 00 00 00 00 00 00 	0000000000000000
  0x50f0	00 00 00 00 00 00 00 00 00 00 00 00 00 00 00 00 	0000000000000000
  0x5100	00 00 00 00 00 00 00 00 00 00 00 00 00 00 00 00 	0000000000000000
  0x5110	00 00 00 00 00 00 00 00 00 00 00 00 00 00 00 00 	0000000000000000
  0x5120	00 00 00 00 00 00 00 00 00 00 00 00 00 00 00 00 	0000000000000000
  0x5130	00 00 00 00 00 00 00 00 00 00 00 00 00 00 00 00 	0000000000000000
  0x5140	00 00 00 00 00 00 00 00 00 00 00 00 00 00 00 00 	0000000000000000
  0x5150	00 00 00 00 00 00 00 00 00 00 00 00 00 00 00 00 	0000000000000000
  0x5160	00 00 00 00 00 00 00 00 00 00 00 00 00 00 00 00 	0000000000000000
  0x5170	00 00 00 00 00 00 00 00 00 00 00 00 00 00 00 00 	0000000000000000
  0x5180	00 00 00 00 00 00 00 00 00 00 00 00 00 00 00 00 	0000000000000000
  0x5190	00 00 00 00 00 00 00 00 00 00 00 00 00 00 00 00 	0000000000000000
  0x51a0	00 00 00 00 00 00 00 00 00 00 00 00 00 00 00 00 	0000000000000000
  0x51b0	00 00 00 00 00 00 00 00 00 00 00 00 00 00 00 00 	0000000000000000
  0x51c0	00 00 00 00 00 00 00 00 00 00 00 00 00 00 00 00 	0000000000000000
  0x51d0	00 00 00 00 00 00 00 00 00 00 00 00 00 00 00 00 	0000000000000000
  0x51e0	00 00 00 00 00 00 00 00 00 00 00 00 00 00 00 00 	0000000000000000
  0x51f0	00 00 00 00 00 00 00 00 00 00 00 00 00 00 00 00 	0000000000000000
=== DATA BLOCK END ===

=== DATA BLOCK ADDRESS 0x6000 ===
  0x6000	3c 10 00 00 ca 10 00 00 10 38 00 00 d0 10 00 00 	<000000008000000
  0x6010	5e 12 00 00 20 38 00 00 64 12 00 00 28 15 00 00 	^000 800d000(000
  0x6020	38 38 00 00 30 15 00 00 e4 17 00 00 38 38 00 00 	8800000000008800
  0x6030	ec 17 00 00 12 1b 00 00 60 38 00 00 18 1b 00 00 	00000000`8000000
  0x6040	9b 1f 00 00 88 38 00 00 b0 1f 00 00 83 20 00 00 	0000080000000 00
  0x6050	a4 38 00 00 90 20 00 00 d9 20 00 00 ac 38 00 00 	08000 000 000800
  0x6060	e0 20 00 00 44 23 00 00 b4 38 00 00 50 23 00 00 	0 00D#000800P#00
  0x6070	62 23 00 00 a4 38 00 00 80 23 00 00 9e 23 00 00 	b#0008000#000#00
  0x6080	f0 38 00 00 b0 23 00 00 e9 23 00 00 a4 38 00 00 	08000#000#000800
  0x6090	f0 23 00 00 08 24 00 00 a4 38 00 00 1c 24 00 00 	0#000$0008000$00
  0x60a0	70 24 00 00 f4 38 00 00 78 24 00 00 bd 24 00 00 	p$000800x$000$00
  0x60b0	14 39 00 00 30 25 00 00 7d 25 00 00 1c 39 00 00 	09000%00}%000900
  0x60c0	c4 25 00 00 98 26 00 00 40 39 00 00 cc 26 00 00 	0%000&00@9000&00
  0x60d0	00 27 00 00 14 39 00 00 10 27 00 00 81 28 00 00 	0'0009000'000(00
  0x60e0	4c 39 00 00 98 28 00 00 b5 28 00 00 a4 38 00 00 	L9000(000(000800
  0x60f0	bc 28 00 00 17 29 00 00 5c 39 00 00 40 29 00 00 	0(000)000900@)00
  0x6100	42 29 00 00 58 39 00 00 50 29 00 00 6e 29 00 00 	B)00X900P)00n)00
  0x6110	e8 38 00 00 80 29 00 00 a0 29 00 00 e8 38 00 00 	08000)000)000800
  0x6120	00 00 00 00 00 00 00 00 00 00 00 00 00 00 00 00 	0000000000000000
  0x6130	00 00 00 00 00 00 00 00 00 00 00 00 00 00 00 00 	0000000000000000
  0x6140	00 00 00 00 00 00 00 00 00 00 00 00 00 00 00 00 	0000000000000000
  0x6150	00 00 00 00 00 00 00 00 00 00 00 00 00 00 00 00 	0000000000000000
  0x6160	00 00 00 00 00 00 00 00 00 00 00 00 00 00 00 00 	0000000000000000
  0x6170	00 00 00 00 00 00 00 00 00 00 00 00 00 00 00 00 	0000000000000000
  0x6180	00 00 00 00 00 00 00 00 00 00 00 00 00 00 00 00 	0000000000000000
  0x6190	00 00 00 00 00 00 00 00 00 00 00 00 00 00 00 00 	0000000000000000
  0x61a0	00 00 00 00 00 00 00 00 00 00 00 00 00 00 00 00 	0000000000000000
  0x61b0	00 00 00 00 00 00 00 00 00 00 00 00 00 00 00 00 	0000000000000000
  0x61c0	00 00 00 00 00 00 00 00 00 00 00 00 00 00 00 00 	0000000000000000
  0x61d0	00 00 00 00 00 00 00 00 00 00 00 00 00 00 00 00 	0000000000000000
  0x61e0	00 00 00 00 00 00 00 00 00 00 00 00 00 00 00 00 	0000000000000000
  0x61f0	00 00 00 00 00 00 00 00 00 00 00 00 00 00 00 00 	0000000000000000
=== DATA BLOCK END ===
