===== Assembly blocks =====

=== CODE BLOCK ADDRESS 0x1000 ===
  0x1000	int3   	
  0x1001	int3   	
  0x1002	int3   	
  0x1003	int3   	
  0x1004	int3   	
  === BLOCK LINK ===
    0x1005
=== CODE BLOCK END ===

=== CODE BLOCK ADDRESS 0x1005 ===
  0x1005	int3   	
  0x1006	int3   	
  0x1007	int3   	
  === BLOCK LINK ===
    0x1008
=== CODE BLOCK END ===

=== CODE BLOCK ADDRESS 0x100c ===
  0x100c	inc    	ebp
  0x100d	xor    	ecx, ecx
  0x100f	dec    	eax
  0x1010	test   	ecx, ecx
  0x1012	je     	0x1050
  === BLOCK LINK ===
    0x1014
    0x1050
=== CODE BLOCK END ===

=== CODE BLOCK ADDRESS 0x1014 ===
  0x1014	inc    	sp
  0x1016	cmp    	ecx, dword ptr [ecx]
  0x1018	je     	0x1050
  === BLOCK LINK ===
    0x101a
    0x1050
=== CODE BLOCK END ===

=== CODE BLOCK ADDRESS 0x101a ===
  0x101a	cmp    	dx, word ptr [ecx]
  0x101d	je     	0x1046
  === BLOCK LINK ===
    0x101f
    0x1046
=== CODE BLOCK END ===

=== CODE BLOCK ADDRESS 0x101f ===
  0x101f	inc    	ebp
  0x1020	test   	eax, eax
  0x1022	je     	0x102e
  === BLOCK LINK ===
    0x1024
    0x102e
=== CODE BLOCK END ===

=== CODE BLOCK ADDRESS 0x1024 ===
  0x1024	mov    	eax, 0x20
  0x1029	cmp    	ax, word ptr [ecx]
  0x102c	jne    	0x1034
  === BLOCK LINK ===
    0x102e
    0x1034
=== CODE BLOCK END ===

=== CODE BLOCK ADDRESS 0x102e ===
  0x102e	dec    	eax
  0x102f	add    	ecx, 2
  0x1032	jmp    	0x1012
  === BLOCK LINK ===
    0x1034
    0x1012
=== CODE BLOCK END ===

=== CODE BLOCK ADDRESS 0x1034 ===
  0x1034	mov    	ecx, 1
  0x1039	dec    	eax
  0x103a	call   	dword ptr [0x2110]
  === BLOCK LINK ===
    0x1040
=== CODE BLOCK END ===

=== CODE BLOCK ADDRESS 0x1040 ===
  0x1040	nop    	dword ptr [eax + eax]
  0x1045	int3   	
  === BLOCK LINK ===
    0x1046
    0x1050
=== CODE BLOCK END ===

=== CODE BLOCK ADDRESS 0x104c ===
  0x104c	dec    	eax
  0x104d	add    	ecx, 2
  === BLOCK LINK ===
    0x1050
=== CODE BLOCK END ===

=== CODE BLOCK ADDRESS 0x1054 ===
  0x1054	add    	esp, 0x28
  0x1057	ret    	
  0x1058	int3   	
  0x1059	int3   	
  0x105a	int3   	
  === BLOCK LINK ===
    0x105b
=== CODE BLOCK END ===

=== CODE BLOCK ADDRESS 0x1050 ===
  0x1050	dec    	eax
  0x1051	mov    	eax, ecx
  0x1053	dec    	eax
  === BLOCK LINK ===
    0x1054
=== CODE BLOCK END ===

=== CODE BLOCK ADDRESS 0x105b ===
  0x105b	int3   	
  0x105c	int3   	
  0x105d	int3   	
  0x105e	int3   	
  0x105f	int3   	
  === BLOCK LINK ===
    0x1060
=== CODE BLOCK END ===

=== CODE BLOCK ADDRESS 0x1060 ===
  0x1060	dec    	eax
  0x1061	mov    	dword ptr [esp + 8], ebx
  0x1065	dec    	eax
  0x1066	mov    	dword ptr [esp + 0x10], ebp
  0x106a	dec    	eax
  === BLOCK LINK ===
    0x106b
=== CODE BLOCK END ===

=== CODE BLOCK ADDRESS 0x106b ===
  0x106b	mov    	dword ptr [esp + 0x18], esi
  0x106f	push   	edi
  0x1070	dec    	eax
  0x1071	sub    	esp, 0x20
  0x1074	dec    	eax
  === BLOCK LINK ===
    0x1075
=== CODE BLOCK END ===

=== CODE BLOCK ADDRESS 0x1075 ===
  0x1075	mov    	eax, edx
  0x1077	dec    	eax
  0x1078	mov    	esi, ecx
  0x107a	mov    	edx, 0x7b
  0x107f	dec    	eax
  === BLOCK LINK ===
    0x1080
=== CODE BLOCK END ===

=== CODE BLOCK ADDRESS 0x1080 ===
  0x1080	mov    	ecx, eax
  0x1082	inc    	esp
  0x1083	lea    	eax, [edx - 0x7a]
  0x1086	call   	0x1008
  === BLOCK LINK ===
    0x108b
    0x1008
=== CODE BLOCK END ===

=== CODE BLOCK ADDRESS 0x108b ===
  0x108b	xor    	ebp, ebp
  0x108d	dec    	eax
  0x108e	mov    	edi, eax
  0x1090	dec    	eax
  0x1091	test   	eax, eax
  === BLOCK LINK ===
    0x1093
=== CODE BLOCK END ===

=== CODE BLOCK ADDRESS 0x1093 ===
  0x1093	je     	0x10ed
  === BLOCK LINK ===
    0x1095
    0x10ed
=== CODE BLOCK END ===

=== CODE BLOCK ADDRESS 0x1095 ===
  0x1095	cmp    	bp, word ptr [eax]
  0x1098	je     	0x10ed
  === BLOCK LINK ===
    0x109a
    0x10ed
=== CODE BLOCK END ===

=== CODE BLOCK ADDRESS 0x109a ===
  0x109a	lea    	edx, [ebp + 0x7d]
  0x109d	inc    	ebp
  0x109e	xor    	eax, eax
  0x10a0	dec    	eax
  0x10a1	lea    	ecx, [eax - 2]
  === BLOCK LINK ===
    0x10a4
=== CODE BLOCK END ===

=== CODE BLOCK ADDRESS 0x10a4 ===
  0x10a4	call   	0x1008
  === BLOCK LINK ===
    0x10a9
    0x1008
=== CODE BLOCK END ===

=== CODE BLOCK ADDRESS 0x10a9 ===
  0x10a9	dec    	eax
  0x10aa	mov    	ebx, eax
  0x10ac	dec    	eax
  0x10ad	test   	eax, eax
  0x10af	je     	0x10bd
  === BLOCK LINK ===
    0x10b1
    0x10bd
=== CODE BLOCK END ===

=== CODE BLOCK ADDRESS 0x10b1 ===
  0x10b1	cmp    	bp, word ptr [eax]
  0x10b4	je     	0x10bd
  === BLOCK LINK ===
    0x10b6
    0x10bd
=== CODE BLOCK END ===

=== CODE BLOCK ADDRESS 0x10b6 ===
  0x10b6	mov    	word ptr [eax], bp
  0x10b9	dec    	eax
  0x10ba	add    	ebx, 2
  === BLOCK LINK ===
    0x10bd
=== CODE BLOCK END ===

=== CODE BLOCK ADDRESS 0x10c0 ===
  0x10c0	dec    	eax
  0x10c1	lea    	ecx, [edi - 2]
  0x10c4	dec    	eax
  0x10c5	call   	dword ptr [0x21b5]
  === BLOCK LINK ===
    0x10cb
=== CODE BLOCK END ===

=== CODE BLOCK ADDRESS 0x10cb ===
  0x10cb	nop    	dword ptr [eax + eax]
  0x10d0	test   	eax, eax
  0x10d2	js     	0x10ed
  === BLOCK LINK ===
    0x10d4
    0x10ed
=== CODE BLOCK END ===

=== CODE BLOCK ADDRESS 0x10d4 ===
  0x10d4	dec    	eax
  0x10d5	mov    	ebp, dword ptr [esp + 0x38]
  0x10d9	dec    	eax
  0x10da	mov    	eax, ebx
  0x10dc	dec    	eax
  === BLOCK LINK ===
    0x10dd
=== CODE BLOCK END ===

=== CODE BLOCK ADDRESS 0x10dd ===
  0x10dd	mov    	ebx, dword ptr [esp + 0x30]
  0x10e1	dec    	eax
  0x10e2	mov    	esi, dword ptr [esp + 0x40]
  0x10e6	dec    	eax
  0x10e7	add    	esp, 0x20
  === BLOCK LINK ===
    0x10ea
=== CODE BLOCK END ===

=== CODE BLOCK ADDRESS 0x10ea ===
  0x10ea	pop    	edi
  0x10eb	ret    	
  0x10ec	int3   	
  === BLOCK LINK ===
    0x10ed
=== CODE BLOCK END ===

=== CODE BLOCK ADDRESS 0x10f3 ===
  0x10f3	call   	dword ptr [0x2057]
  === BLOCK LINK ===
    0x10f9
=== CODE BLOCK END ===

=== CODE BLOCK ADDRESS 0x10f9 ===
  0x10f9	nop    	dword ptr [eax + eax]
  0x10fe	int3   	
  0x10ff	int3   	
  0x1100	int3   	
  0x1101	int3   	
  === BLOCK LINK ===
    0x1102
=== CODE BLOCK END ===

=== CODE BLOCK ADDRESS 0x1102 ===
  0x1102	int3   	
  0x1103	int3   	
  0x1104	int3   	
  0x1105	int3   	
  0x1106	int3   	
  === BLOCK LINK ===
    0x1107
=== CODE BLOCK END ===

=== CODE BLOCK ADDRESS 0x1107 ===
  0x1107	int3   	
  0x1108	dec    	eax
  0x1109	mov    	eax, esp
  0x110b	dec    	eax
  0x110c	mov    	dword ptr [eax + 8], ebx
  === BLOCK LINK ===
    0x110f
=== CODE BLOCK END ===

=== CODE BLOCK ADDRESS 0x110f ===
  0x110f	dec    	eax
  0x1110	mov    	dword ptr [eax + 0x10], esi
  0x1113	dec    	eax
  0x1114	mov    	dword ptr [eax + 0x18], edi
  0x1117	dec    	esp
  === BLOCK LINK ===
    0x1118
=== CODE BLOCK END ===

=== CODE BLOCK ADDRESS 0x1118 ===
  0x1118	mov    	dword ptr [eax + 0x20], esi
  0x111b	inc    	ecx
  0x111c	push   	edi
  0x111d	dec    	eax
  0x111e	sub    	esp, 0x80
  === BLOCK LINK ===
    0x1124
=== CODE BLOCK END ===

=== CODE BLOCK ADDRESS 0x1124 ===
  0x1124	dec    	eax
  0x1125	mov    	eax, dword ptr [0x2edd]
  0x112b	dec    	eax
  0x112c	xor    	eax, esp
  0x112e	dec    	eax
  === BLOCK LINK ===
    0x112f
=== CODE BLOCK END ===

=== CODE BLOCK ADDRESS 0x112f ===
  0x112f	mov    	dword ptr [esp + 0x70], eax
  0x1133	mov    	esi, 8
  0x1138	mov    	dword ptr [esp + 0x30], 0x401
  0x1140	movups  	xmm0, xmmword ptr [0x21e1]
  0x1147	movdqu  	xmmword ptr [esp + 0x50], xmm0
  === BLOCK LINK ===
    0x114d
=== CODE BLOCK END ===

=== CODE BLOCK ADDRESS 0x114d ===
  0x114d	movdqu  	xmmword ptr [esp + 0x60], xmm0
  0x1153	dec    	eax
  0x1154	call   	dword ptr [0x1fce]
  === BLOCK LINK ===
    0x115a
=== CODE BLOCK END ===

=== CODE BLOCK ADDRESS 0x115a ===
  0x115a	nop    	dword ptr [eax + eax]
  0x115f	dec    	eax
  0x1160	mov    	ebx, eax
  0x1162	mov    	ecx, 0x8003
  0x1167	dec    	eax
  === BLOCK LINK ===
    0x1168
=== CODE BLOCK END ===

=== CODE BLOCK ADDRESS 0x1168 ===
  0x1168	call   	dword ptr [0x1fd2]
  === BLOCK LINK ===
    0x116e
=== CODE BLOCK END ===

=== CODE BLOCK ADDRESS 0x116e ===
  0x116e	nop    	dword ptr [eax + eax]
  0x1173	inc    	ebp
  0x1174	xor    	ecx, ecx
  0x1176	inc    	ebp
  0x1177	xor    	eax, eax
  === BLOCK LINK ===
    0x1179
=== CODE BLOCK END ===

=== CODE BLOCK ADDRESS 0x1179 ===
  0x1179	inc    	esp
  0x117a	lea    	edi, [esi - 7]
  0x117d	inc    	ecx
  0x117e	mov    	edx, edi
  0x1180	xor    	ecx, ecx
  === BLOCK LINK ===
    0x1182
=== CODE BLOCK END ===

=== CODE BLOCK ADDRESS 0x1182 ===
  0x1182	dec    	eax
  0x1183	call   	dword ptr [0x1fbf]
  === BLOCK LINK ===
    0x1189
=== CODE BLOCK END ===

=== CODE BLOCK ADDRESS 0x1189 ===
  0x1189	nop    	dword ptr [eax + eax]
  0x118e	inc    	ebp
  0x118f	xor    	esi, esi
  0x1191	dec    	eax
  0x1192	test   	ebx, ebx
  === BLOCK LINK ===
    0x1194
=== CODE BLOCK END ===

=== CODE BLOCK ADDRESS 0x1194 ===
  0x1194	je     	0x11b6
  === BLOCK LINK ===
    0x1196
    0x11b6
=== CODE BLOCK END ===

=== CODE BLOCK ADDRESS 0x1196 ===
  0x1196	inc    	sp
  0x1198	cmp    	esi, dword ptr [ebx]
  0x119a	je     	0x11b6
  === BLOCK LINK ===
    0x119c
    0x11b6
=== CODE BLOCK END ===

=== CODE BLOCK ADDRESS 0x119c ===
  0x119c	dec    	eax
  0x119d	lea    	ecx, [ebx + 2]
  0x11a0	lea    	edx, [esi + 0x1a]
  0x11a3	inc    	ebp
  0x11a4	xor    	eax, eax
  === BLOCK LINK ===
    0x11a6
=== CODE BLOCK END ===

=== CODE BLOCK ADDRESS 0x11a6 ===
  0x11a6	cmp    	dx, word ptr [ebx]
  0x11a9	je     	0x11ae
  === BLOCK LINK ===
    0x11ab
    0x11ae
=== CODE BLOCK END ===

=== CODE BLOCK ADDRESS 0x11ab ===
  0x11ab	lea    	edx, [esi + 0x18]
  0x11ae	call   	0x1008
  === BLOCK LINK ===
    0x11b3
    0x1008
=== CODE BLOCK END ===

=== CODE BLOCK ADDRESS 0x11b3 ===
  0x11b3	dec    	eax
  0x11b4	mov    	ebx, eax
  === BLOCK LINK ===
    0x11b6
=== CODE BLOCK END ===

=== CODE BLOCK ADDRESS 0x11be ===
  0x11be	dec    	eax
  0x11bf	mov    	ecx, ebx
  0x11c1	call   	0x1008
  === BLOCK LINK ===
    0x11c6
    0x1008
=== CODE BLOCK END ===

=== CODE BLOCK ADDRESS 0x11c6 ===
  0x11c6	dec    	eax
  0x11c7	mov    	ebx, eax
  0x11c9	dec    	eax
  0x11ca	test   	eax, eax
  0x11cc	je     	0x1261
  === BLOCK LINK ===
    0x11d2
    0x1261
=== CODE BLOCK END ===

=== CODE BLOCK ADDRESS 0x11d2 ===
  0x11d2	inc    	sp
  0x11d4	cmp    	esi, dword ptr [eax]
  0x11d6	je     	0x1261
  === BLOCK LINK ===
    0x11dc
    0x1261
=== CODE BLOCK END ===

=== CODE BLOCK ADDRESS 0x11dc ===
  0x11dc	cmp    	word ptr [eax], 0x43
  0x11e0	je     	0x1281
  === BLOCK LINK ===
    0x11e6
    0x1281
=== CODE BLOCK END ===

=== CODE BLOCK ADDRESS 0x11e6 ===
  0x11e6	cmp    	word ptr [eax], 0x49
  0x11ea	je     	0x127a
  === BLOCK LINK ===
    0x11f0
    0x127a
=== CODE BLOCK END ===

=== CODE BLOCK ADDRESS 0x11f0 ===
  0x11f0	cmp    	word ptr [eax], 0x4d
  0x11f4	je     	0x1274
  === BLOCK LINK ===
    0x11f6
=== CODE BLOCK END ===

=== CODE BLOCK ADDRESS 0x11f6 ===
  0x11f6	cmp    	word ptr [eax], 0x53
  0x11fa	je     	0x1271
  === BLOCK LINK ===
    0x11fc
=== CODE BLOCK END ===

=== CODE BLOCK ADDRESS 0x11fc ===
  0x11fc	cmp    	word ptr [eax], 0x58
  0x1200	jne    	0x1261
  === BLOCK LINK ===
    0x1202
=== CODE BLOCK END ===

=== CODE BLOCK ADDRESS 0x1202 ===
  0x1202	mov    	edx, 0x30
  0x1207	dec    	eax
  0x1208	lea    	ecx, [eax + 2]
  0x120b	inc    	ebp
  0x120c	mov    	eax, edi
  === BLOCK LINK ===
    0x120e
=== CODE BLOCK END ===

=== CODE BLOCK ADDRESS 0x120e ===
  0x120e	call   	0x1008
  === BLOCK LINK ===
    0x1213
=== CODE BLOCK END ===

=== CODE BLOCK ADDRESS 0x1213 ===
  0x1213	dec    	eax
  0x1214	mov    	edi, eax
  0x1216	dec    	eax
  0x1217	test   	eax, eax
  0x1219	je     	0x1261
  === BLOCK LINK ===
    0x121b
=== CODE BLOCK END ===

=== CODE BLOCK ADDRESS 0x121b ===
  0x121b	inc    	sp
  0x121d	cmp    	esi, dword ptr [eax]
  0x121f	je     	0x1261
  === BLOCK LINK ===
    0x1221
=== CODE BLOCK END ===

=== CODE BLOCK ADDRESS 0x1221 ===
  0x1221	dec    	eax
  0x1222	sub    	edi, 2
  0x1225	mov    	edx, 0x20
  0x122a	inc    	ebp
  0x122b	xor    	eax, eax
  === BLOCK LINK ===
    0x122d
=== CODE BLOCK END ===

=== CODE BLOCK ADDRESS 0x122d ===
  0x122d	dec    	eax
  0x122e	mov    	ecx, edi
  0x1230	call   	0x1008
  === BLOCK LINK ===
    0x1235
=== CODE BLOCK END ===

=== CODE BLOCK ADDRESS 0x1235 ===
  0x1235	dec    	eax
  0x1236	mov    	ebx, eax
  0x1238	dec    	eax
  0x1239	mov    	edx, eax
  0x123b	dec    	eax
  === BLOCK LINK ===
    0x123c
=== CODE BLOCK END ===

=== CODE BLOCK ADDRESS 0x123c ===
  0x123c	sub    	edx, edi
  0x123e	dec    	eax
  0x123f	sar    	edx, 1
  0x1241	dec    	esp
  0x1242	lea    	ecx, [esp + 0x30]
  === BLOCK LINK ===
    0x1246
=== CODE BLOCK END ===

=== CODE BLOCK ADDRESS 0x1246 ===
  0x1246	dec    	esp
  0x1247	lea    	eax, [0x20cf]
  0x124d	dec    	eax
  0x124e	mov    	ecx, edi
  0x1250	dec    	eax
  === BLOCK LINK ===
    0x1251
=== CODE BLOCK END ===

=== CODE BLOCK ADDRESS 0x1251 ===
  0x1251	call   	dword ptr [0x1ff1]
  === BLOCK LINK ===
    0x1257
=== CODE BLOCK END ===

=== CODE BLOCK ADDRESS 0x1257 ===
  0x1257	nop    	dword ptr [eax + eax]
  0x125c	inc    	ecx
  0x125d	cmp    	eax, edi
  0x125f	je     	0x1292
  === BLOCK LINK ===
    0x1261
=== CODE BLOCK END ===

=== CODE BLOCK ADDRESS 0x1261 ===
  0x1261	inc    	ecx
  0x1262	mov    	ecx, edi
  0x1264	dec    	eax
  0x1265	call   	dword ptr [0x1ee5]
  === BLOCK LINK ===
    0x126b
=== CODE BLOCK END ===

=== CODE BLOCK ADDRESS 0x126b ===
  0x126b	nop    	dword ptr [eax + eax]
  0x1270	int3   	
  0x1271	or     	esi, 2
  0x1274	dec    	eax
  0x1275	add    	ebx, 2
  === BLOCK LINK ===
    0x1278
=== CODE BLOCK END ===

=== CODE BLOCK ADDRESS 0x1278 ===
  0x1278	jmp    	0x1292
  === BLOCK LINK ===
    0x127a
=== CODE BLOCK END ===

=== CODE BLOCK ADDRESS 0x127a ===
  0x127a	dec    	eax
  0x127b	lea    	ecx, [esp + 0x60]
  0x127f	jmp    	0x1286
  === BLOCK LINK ===
    0x1281
=== CODE BLOCK END ===

=== CODE BLOCK ADDRESS 0x1281 ===
  0x1281	dec    	eax
  0x1282	lea    	ecx, [esp + 0x50]
  0x1286	dec    	eax
  0x1287	lea    	edx, [eax + 2]
  0x128a	call   	0x1060
  === BLOCK LINK ===
    0x128f
=== CODE BLOCK END ===

=== CODE BLOCK ADDRESS 0x128f ===
  0x128f	dec    	eax
  0x1290	mov    	ebx, eax
  0x1292	dec    	eax
  0x1293	test   	ebx, ebx
  0x1295	je     	0x12a1
  === BLOCK LINK ===
    0x1297
=== CODE BLOCK END ===

=== CODE BLOCK ADDRESS 0x1297 ===
  0x1297	inc    	sp
  0x1299	cmp    	esi, dword ptr [ebx]
  0x129b	jne    	0x11b6
  === BLOCK LINK ===
    0x12a1
=== CODE BLOCK END ===

=== CODE BLOCK ADDRESS 0x12a1 ===
  0x12a1	mov    	edx, esi
  0x12a3	xor    	ecx, ecx
  0x12a5	dec    	eax
  0x12a6	call   	dword ptr [0x1fdc]
  === BLOCK LINK ===
    0x12ac
=== CODE BLOCK END ===

=== CODE BLOCK ADDRESS 0x12ac ===
  0x12ac	nop    	dword ptr [eax + eax]
  0x12b1	test   	eax, eax
  0x12b3	jns    	0x12c7
  === BLOCK LINK ===
    0x12b5
=== CODE BLOCK END ===

=== CODE BLOCK ADDRESS 0x12b5 ===
  0x12b5	mov    	ecx, 2
  0x12ba	dec    	eax
  0x12bb	call   	dword ptr [0x1e8f]
  === BLOCK LINK ===
    0x12c1
=== CODE BLOCK END ===

=== CODE BLOCK ADDRESS 0x12c1 ===
  0x12c1	nop    	dword ptr [eax + eax]
  0x12c6	nop    	
  0x12c7	dec    	esp
  0x12c8	lea    	eax, [esp + 0x48]
  0x12cc	inc    	ecx
  === BLOCK LINK ===
    0x12cd
=== CODE BLOCK END ===

=== CODE BLOCK ADDRESS 0x12cd ===
  0x12cd	mov    	edx, edi
  0x12cf	dec    	eax
  0x12d0	lea    	ecx, [esp + 0x50]
  0x12d4	dec    	eax
  0x12d5	call   	dword ptr [0x4d25]
  === BLOCK LINK ===
    0x12db
=== CODE BLOCK END ===

=== CODE BLOCK ADDRESS 0x12db ===
  0x12db	nop    	dword ptr [eax + eax]
  0x12e0	test   	eax, eax
  0x12e2	jne    	0x1304
  === BLOCK LINK ===
    0x12e4
=== CODE BLOCK END ===

=== CODE BLOCK ADDRESS 0x12e4 ===
  0x12e4	dec    	eax
  0x12e5	call   	dword ptr [0x1e45]
  === BLOCK LINK ===
    0x12eb
=== CODE BLOCK END ===

=== CODE BLOCK ADDRESS 0x12eb ===
  0x12eb	nop    	dword ptr [eax + eax]
  0x12f0	dec    	eax
  0x12f1	mov    	ecx, eax
  0x12f3	mov    	edx, 4
  0x12f8	dec    	eax
  === BLOCK LINK ===
    0x12f9
=== CODE BLOCK END ===

=== CODE BLOCK ADDRESS 0x12f9 ===
  0x12f9	call   	dword ptr [0x1e39]
  === BLOCK LINK ===
    0x12ff
=== CODE BLOCK END ===

=== CODE BLOCK ADDRESS 0x12ff ===
  0x12ff	nop    	dword ptr [eax + eax]
  0x1304	dec    	esp
  0x1305	mov    	dword ptr [esp + 0x38], esi
  0x1309	inc    	esp
  0x130a	mov    	eax, dword ptr [esp + 0x30]
  === BLOCK LINK ===
    0x130e
=== CODE BLOCK END ===

=== CODE BLOCK ADDRESS 0x130e ===
  0x130e	inc    	ecx
  0x130f	bts    	eax, 0xa
  0x1313	dec    	eax
  0x1314	lea    	eax, [esp + 0x38]
  0x1318	dec    	eax
  === BLOCK LINK ===
    0x1319
=== CODE BLOCK END ===

=== CODE BLOCK ADDRESS 0x1319 ===
  0x1319	mov    	dword ptr [esp + 0x20], eax
  0x131d	dec    	esp
  0x131e	lea    	ecx, [esp + 0x60]
  0x1322	xor    	edx, edx
  0x1324	dec    	eax
  === BLOCK LINK ===
    0x1325
=== CODE BLOCK END ===

=== CODE BLOCK ADDRESS 0x1325 ===
  0x1325	lea    	ecx, [esp + 0x50]
  0x1329	dec    	eax
  0x132a	call   	dword ptr [0x1f40]
  === BLOCK LINK ===
    0x1330
=== CODE BLOCK END ===

=== CODE BLOCK ADDRESS 0x1330 ===
  0x1330	nop    	dword ptr [eax + eax]
  0x1335	test   	eax, eax
  0x1337	js     	0x1343
  === BLOCK LINK ===
    0x1339
=== CODE BLOCK END ===

=== CODE BLOCK ADDRESS 0x1339 ===
  0x1339	dec    	eax
  0x133a	mov    	ecx, dword ptr [esp + 0x38]
  0x133e	dec    	eax
  0x133f	test   	ecx, ecx
  0x1341	jne    	0x1368
  === BLOCK LINK ===
    0x1343
=== CODE BLOCK END ===

=== CODE BLOCK ADDRESS 0x1343 ===
  0x1343	dec    	eax
  0x1344	call   	dword ptr [0x1de6]
  === BLOCK LINK ===
    0x134a
=== CODE BLOCK END ===

=== CODE BLOCK ADDRESS 0x134a ===
  0x134a	nop    	dword ptr [eax + eax]
  0x134f	dec    	eax
  0x1350	mov    	ecx, eax
  0x1352	mov    	edx, 3
  0x1357	dec    	eax
  === BLOCK LINK ===
    0x1358
=== CODE BLOCK END ===

=== CODE BLOCK ADDRESS 0x1358 ===
  0x1358	call   	dword ptr [0x1dda]
  === BLOCK LINK ===
    0x135e
=== CODE BLOCK END ===

=== CODE BLOCK ADDRESS 0x135e ===
  0x135e	nop    	dword ptr [eax + eax]
  0x1363	dec    	eax
  0x1364	mov    	ecx, dword ptr [esp + 0x38]
  0x1368	dec    	eax
  0x1369	or     	dword ptr [esp + 0x40], 0xffffffff
  === BLOCK LINK ===
    0x136e
=== CODE BLOCK END ===

=== CODE BLOCK ADDRESS 0x136e ===
  0x136e	dec    	eax
  0x136f	mov    	eax, dword ptr [ecx]
  0x1371	dec    	esp
  0x1372	lea    	eax, [esp + 0x40]
  0x1376	dec    	eax
  === BLOCK LINK ===
    0x1377
=== CODE BLOCK END ===

=== CODE BLOCK ADDRESS 0x1377 ===
  0x1377	lea    	edx, [0x1fab]
  0x137d	dec    	eax
  0x137e	mov    	eax, dword ptr [eax]
  0x1380	call   	dword ptr [0x1f1a]
  === BLOCK LINK ===
    0x1386
=== CODE BLOCK END ===

=== CODE BLOCK ADDRESS 0x1386 ===
  0x1386	test   	eax, eax
  0x1388	js     	0x13aa
  === BLOCK LINK ===
    0x138a
=== CODE BLOCK END ===

=== CODE BLOCK ADDRESS 0x138a ===
  0x138a	dec    	eax
  0x138b	call   	dword ptr [0x1d9f]
  === BLOCK LINK ===
    0x1391
=== CODE BLOCK END ===

=== CODE BLOCK ADDRESS 0x1391 ===
  0x1391	nop    	dword ptr [eax + eax]
  0x1396	dec    	eax
  0x1397	mov    	ecx, eax
  0x1399	mov    	edx, 3
  0x139e	dec    	eax
  === BLOCK LINK ===
    0x139f
=== CODE BLOCK END ===

=== CODE BLOCK ADDRESS 0x139f ===
  0x139f	call   	dword ptr [0x1d93]
  === BLOCK LINK ===
    0x13a5
=== CODE BLOCK END ===

=== CODE BLOCK ADDRESS 0x13a5 ===
  0x13a5	nop    	dword ptr [eax + eax]
  0x13aa	dec    	eax
  0x13ab	mov    	ecx, dword ptr [esp + 0x38]
  0x13af	dec    	eax
  0x13b0	mov    	eax, dword ptr [ecx]
  === BLOCK LINK ===
    0x13b2
=== CODE BLOCK END ===

=== CODE BLOCK ADDRESS 0x13b2 ===
  0x13b2	dec    	eax
  0x13b3	mov    	eax, dword ptr [eax + 0x10]
  0x13b6	call   	dword ptr [0x1ee4]
  === BLOCK LINK ===
    0x13bc
=== CODE BLOCK END ===

=== CODE BLOCK ADDRESS 0x13bc ===
  0x13bc	dec    	eax
  0x13bd	call   	dword ptr [0x1eb5]
  === BLOCK LINK ===
    0x13c3
=== CODE BLOCK END ===

=== CODE BLOCK ADDRESS 0x13c3 ===
  0x13c3	nop    	dword ptr [eax + eax]
  0x13c8	jmp    	0x13eb
  === BLOCK LINK ===
    0x13ca
=== CODE BLOCK END ===

=== CODE BLOCK ADDRESS 0x13ca ===
  0x13ca	dec    	eax
  0x13cb	call   	dword ptr [0x1d5f]
  === BLOCK LINK ===
    0x13d1
=== CODE BLOCK END ===

=== CODE BLOCK ADDRESS 0x13d1 ===
  0x13d1	nop    	dword ptr [eax + eax]
  0x13d6	dec    	eax
  0x13d7	mov    	ecx, eax
  0x13d9	mov    	edx, 2
  0x13de	dec    	eax
  === BLOCK LINK ===
    0x13df
=== CODE BLOCK END ===

=== CODE BLOCK ADDRESS 0x13df ===
  0x13df	call   	dword ptr [0x1d53]
  === BLOCK LINK ===
    0x13e5
=== CODE BLOCK END ===

=== CODE BLOCK ADDRESS 0x13e5 ===
  0x13e5	nop    	dword ptr [eax + eax]
  0x13ea	nop    	
  0x13eb	xor    	eax, eax
  0x13ed	dec    	eax
  0x13ee	mov    	ecx, dword ptr [esp + 0x70]
  === BLOCK LINK ===
    0x13f2
=== CODE BLOCK END ===

=== CODE BLOCK ADDRESS 0x13f2 ===
  0x13f2	dec    	eax
  0x13f3	xor    	ecx, esp
  0x13f5	call   	0x1a30
  === BLOCK LINK ===
    0x13fa
=== CODE BLOCK END ===

=== CODE BLOCK ADDRESS 0x13fa ===
  0x13fa	dec    	esp
  0x13fb	lea    	ebx, [esp + 0x80]
  0x1402	dec    	ecx
  0x1403	mov    	ebx, dword ptr [ebx + 0x10]
  0x1406	dec    	ecx
  === BLOCK LINK ===
    0x1407
=== CODE BLOCK END ===

=== CODE BLOCK ADDRESS 0x1407 ===
  0x1407	mov    	esi, dword ptr [ebx + 0x18]
  0x140a	dec    	ecx
  0x140b	mov    	edi, dword ptr [ebx + 0x20]
  0x140e	dec    	ebp
  0x140f	mov    	esi, dword ptr [ebx + 0x28]
  === BLOCK LINK ===
    0x1412
=== CODE BLOCK END ===

=== CODE BLOCK ADDRESS 0x1412 ===
  0x1412	dec    	ecx
  0x1413	mov    	esp, ebx
  0x1415	inc    	ecx
  0x1416	pop    	edi
  0x1417	ret    	
  === BLOCK LINK ===
    0x1418
=== CODE BLOCK END ===

=== CODE BLOCK ADDRESS 0x1046 ===
  0x1046	inc    	sp
  0x1048	cmp    	ecx, dword ptr [ecx]
  0x104a	je     	0x1050
  === BLOCK LINK ===
    0x104c
=== CODE BLOCK END ===

=== CODE BLOCK ADDRESS 0x1418 ===
  0x1418	int3   	
  0x1419	int3   	
  0x141a	int3   	
  0x141b	int3   	
  0x141c	int3   	
  === BLOCK LINK ===
    0x141d
=== CODE BLOCK END ===

=== CODE BLOCK ADDRESS 0x141d ===
  0x141d	int3   	
  0x141e	int3   	
  0x141f	int3   	
  0x1420	dec    	eax
  0x1421	mov    	dword ptr [esp + 0x10], ebx
  === BLOCK LINK ===
    0x1425
=== CODE BLOCK END ===

=== CODE BLOCK ADDRESS 0x1425 ===
  0x1425	dec    	eax
  0x1426	mov    	dword ptr [esp + 0x18], ebp
  0x142a	dec    	eax
  0x142b	mov    	dword ptr [esp + 0x20], esi
  0x142f	push   	edi
  === BLOCK LINK ===
    0x1430
=== CODE BLOCK END ===

=== CODE BLOCK ADDRESS 0x1430 ===
  0x1430	inc    	ecx
  0x1431	push   	esp
  0x1432	inc    	ecx
  0x1433	push   	ebp
  0x1434	inc    	ecx
  === BLOCK LINK ===
    0x1435
=== CODE BLOCK END ===

=== CODE BLOCK ADDRESS 0x1435 ===
  0x1435	push   	esi
  0x1436	inc    	ecx
  0x1437	push   	edi
  0x1438	dec    	eax
  0x1439	sub    	esp, 0x90
  === BLOCK LINK ===
    0x143f
=== CODE BLOCK END ===

=== CODE BLOCK ADDRESS 0x143f ===
  0x143f	mov    	ebp, dword ptr [ecx + 4]
  0x1442	dec    	esp
  0x1443	mov    	edi, ecx
  0x1445	dec    	eax
  0x1446	lea    	ecx, [0xffffebb4]
  === BLOCK LINK ===
    0x144c
=== CODE BLOCK END ===

=== CODE BLOCK ADDRESS 0x144c ===
  0x144c	inc    	ecx
  0x144d	mov    	ebp, 1
  0x1452	dec    	eax
  0x1453	add    	ebp, ecx
  0x1455	dec    	esp
  === BLOCK LINK ===
    0x1456
=== CODE BLOCK END ===

=== CODE BLOCK ADDRESS 0x1456 ===
  0x1456	mov    	esi, edx
  0x1458	inc    	ecx
  0x1459	mov    	eax, dword ptr [edi + 8]
  0x145c	inc    	ebp
  0x145d	mov    	esp, dword ptr [edi + 0xc]
  === BLOCK LINK ===
    0x1460
=== CODE BLOCK END ===

=== CODE BLOCK ADDRESS 0x1460 ===
  0x1460	dec    	eax
  0x1461	add    	eax, ecx
  0x1463	inc    	ecx
  0x1464	mov    	esi, dword ptr [edi + 0x10]
  0x1467	dec    	esp
  === BLOCK LINK ===
    0x1468
=== CODE BLOCK END ===

=== CODE BLOCK ADDRESS 0x1468 ===
  0x1468	add    	esp, ecx
  0x146a	dec    	eax
  0x146b	mov    	dword ptr [esp + 0xc0], eax
  0x1472	dec    	eax
  0x1473	add    	esi, ecx
  === BLOCK LINK ===
    0x1475
=== CODE BLOCK END ===

=== CODE BLOCK ADDRESS 0x1475 ===
  0x1475	dec    	eax
  0x1476	mov    	eax, dword ptr [esp + 0xc0]
  0x147d	dec    	eax
  0x147e	mov    	edi, dword ptr [eax]
  0x1480	dec    	eax
  === BLOCK LINK ===
    0x1481
=== CODE BLOCK END ===

=== CODE BLOCK ADDRESS 0x1481 ===
  0x1481	mov    	eax, dword ptr [0x3179]
  0x1487	dec    	ecx
  0x1488	cmp    	eax, ebp
  0x148a	je     	0x154c
  === BLOCK LINK ===
    0x1490
=== CODE BLOCK END ===

=== CODE BLOCK ADDRESS 0x1490 ===
  0x1490	dec    	eax
  0x1491	test   	eax, eax
  0x1493	jne    	0x151f
  === BLOCK LINK ===
    0x1499
=== CODE BLOCK END ===

=== CODE BLOCK ADDRESS 0x1499 ===
  0x1499	dec    	eax
  0x149a	lea    	ecx, [0x1ea0]
  0x14a0	call   	0x1fc1
  === BLOCK LINK ===
    0x14a5
=== CODE BLOCK END ===

=== CODE BLOCK ADDRESS 0x14a5 ===
  0x14a5	dec    	eax
  0x14a6	mov    	ebx, eax
  0x14a8	dec    	eax
  0x14a9	test   	eax, eax
  0x14ab	jne    	0x14c6
  === BLOCK LINK ===
    0x14ad
=== CODE BLOCK END ===

=== CODE BLOCK ADDRESS 0x14ad ===
  0x14ad	dec    	eax
  0x14ae	lea    	ecx, [0x1edc]
  0x14b4	call   	0x1fc1
  === BLOCK LINK ===
    0x14b9
=== CODE BLOCK END ===

=== CODE BLOCK ADDRESS 0x14b9 ===
  0x14b9	dec    	eax
  0x14ba	mov    	ebx, eax
  0x14bc	dec    	eax
  0x14bd	test   	eax, eax
  0x14bf	jne    	0x14c6
  === BLOCK LINK ===
    0x14c1
=== CODE BLOCK END ===

=== CODE BLOCK ADDRESS 0x14c1 ===
  0x14c1	dec    	ecx
  0x14c2	mov    	ebx, ebp
  0x14c4	jmp    	0x150c
  === BLOCK LINK ===
    0x14c6
=== CODE BLOCK END ===

=== CODE BLOCK ADDRESS 0x14c6 ===
  0x14c6	dec    	eax
  0x14c7	lea    	edx, [0x1ee3]
  0x14cd	dec    	eax
  0x14ce	mov    	ecx, ebx
  0x14d0	dec    	eax
  === BLOCK LINK ===
    0x14d1
=== CODE BLOCK END ===

=== CODE BLOCK ADDRESS 0x14d1 ===
  0x14d1	call   	dword ptr [0x1cf1]
  === BLOCK LINK ===
    0x14d7
=== CODE BLOCK END ===

=== CODE BLOCK ADDRESS 0x14d7 ===
  0x14d7	nop    	dword ptr [eax + eax]
  0x14dc	dec    	eax
  0x14dd	mov    	dword ptr [0x3125], eax
  0x14e3	dec    	eax
  0x14e4	test   	eax, eax
  === BLOCK LINK ===
    0x14e6
=== CODE BLOCK END ===

=== CODE BLOCK ADDRESS 0x14e6 ===
  0x14e6	je     	0x14c1
  === BLOCK LINK ===
    0x14e8
=== CODE BLOCK END ===

=== CODE BLOCK ADDRESS 0x14e8 ===
  0x14e8	dec    	eax
  0x14e9	lea    	edx, [0x1ed9]
  0x14ef	dec    	eax
  0x14f0	mov    	ecx, ebx
  0x14f2	dec    	eax
  === BLOCK LINK ===
    0x14f3
=== CODE BLOCK END ===

=== CODE BLOCK ADDRESS 0x14f3 ===
  0x14f3	call   	dword ptr [0x1ccf]
  === BLOCK LINK ===
    0x14f9
=== CODE BLOCK END ===

=== CODE BLOCK ADDRESS 0x14f9 ===
  0x14f9	nop    	dword ptr [eax + eax]
  0x14fe	dec    	eax
  0x14ff	test   	eax, eax
  0x1501	dec    	eax
  0x1502	mov    	dword ptr [0x3108], eax
  === BLOCK LINK ===
    0x1508
=== CODE BLOCK END ===

=== CODE BLOCK ADDRESS 0x1508 ===
  0x1508	dec    	ecx
  0x1509	cmove  	ebx, ebp
  0x150c	dec    	eax
  0x150d	mov    	dword ptr [0x30ed], ebx
  0x1513	dec    	ecx
  === BLOCK LINK ===
    0x1514
=== CODE BLOCK END ===

=== CODE BLOCK ADDRESS 0x1514 ===
  0x1514	cmp    	ebx, ebp
  0x1516	je     	0x154c
  === BLOCK LINK ===
    0x1518
=== CODE BLOCK END ===

=== CODE BLOCK ADDRESS 0x1518 ===
  0x1518	dec    	eax
  0x1519	lea    	ecx, [0xffffeae1]
  0x151f	and    	dword ptr [esp + 0x28], 0
  0x1524	dec    	ecx
  0x1525	mov    	edx, edi
  === BLOCK LINK ===
    0x1527
=== CODE BLOCK END ===

=== CODE BLOCK ADDRESS 0x1527 ===
  0x1527	dec    	esp
  0x1528	mov    	ecx, dword ptr [0x1c92]
  0x152e	dec    	esp
  0x152f	mov    	eax, dword ptr [0x1eb3]
  0x1535	dec    	eax
  === BLOCK LINK ===
    0x1536
=== CODE BLOCK END ===

=== CODE BLOCK ADDRESS 0x1536 ===
  0x1536	mov    	eax, dword ptr [0x30cc]
  0x153c	dec    	esp
  0x153d	mov    	dword ptr [esp + 0x20], esi
  0x1541	call   	dword ptr [0x1d59]
  === BLOCK LINK ===
    0x1547
=== CODE BLOCK END ===

=== CODE BLOCK ADDRESS 0x1547 ===
  0x1547	jmp    	0x1632
  === BLOCK LINK ===
    0x154c
=== CODE BLOCK END ===

=== CODE BLOCK ADDRESS 0x154c ===
  0x154c	dec    	ecx
  0x154d	mov    	ecx, esi
  0x154f	dec    	ecx
  0x1550	sub    	ecx, esp
  0x1552	dec    	eax
  === BLOCK LINK ===
    0x1553
=== CODE BLOCK END ===

=== CODE BLOCK ADDRESS 0x1553 ===
  0x1553	sar    	ecx, 3
  0x1556	mov    	ecx, ecx
  0x1558	dec    	eax
  0x1559	cmp    	dword ptr [esi + ecx*8], 0
  0x155d	jl     	0x156e
  === BLOCK LINK ===
    0x155f
=== CODE BLOCK END ===

=== CODE BLOCK ADDRESS 0x155f ===
  0x155f	mov    	ebx, dword ptr [esi + ecx*8]
  0x1562	dec    	eax
  0x1563	lea    	eax, [0xffffea99]
  0x1569	dec    	eax
  0x156a	add    	ebx, eax
  === BLOCK LINK ===
    0x156c
=== CODE BLOCK END ===

=== CODE BLOCK ADDRESS 0x156c ===
  0x156c	jmp    	0x1572
  === BLOCK LINK ===
    0x156e
=== CODE BLOCK END ===

=== CODE BLOCK ADDRESS 0x156e ===
  0x156e	movzx  	ebx, word ptr [esi + ecx*8]
  0x1572	dec    	eax
  0x1573	test   	edi, edi
  0x1575	jne    	0x1604
  === BLOCK LINK ===
    0x157b
=== CODE BLOCK END ===

=== CODE BLOCK ADDRESS 0x157b ===
  0x157b	inc    	ebp
  0x157c	xor    	eax, eax
  0x157e	xor    	edx, edx
  0x1580	dec    	eax
  0x1581	mov    	ecx, ebp
  === BLOCK LINK ===
    0x1583
=== CODE BLOCK END ===

=== CODE BLOCK ADDRESS 0x1583 ===
  0x1583	dec    	eax
  0x1584	call   	dword ptr [0x1c2e]
  === BLOCK LINK ===
    0x158a
=== CODE BLOCK END ===

=== CODE BLOCK ADDRESS 0x158a ===
  0x158a	nop    	dword ptr [eax + eax]
  0x158f	dec    	eax
  0x1590	mov    	edi, eax
  0x1592	dec    	eax
  0x1593	test   	eax, eax
  === BLOCK LINK ===
    0x1595
=== CODE BLOCK END ===

=== CODE BLOCK ADDRESS 0x1595 ===
  0x1595	je     	0x1620
  === BLOCK LINK ===
    0x159b
=== CODE BLOCK END ===

=== CODE BLOCK ADDRESS 0x159b ===
  0x159b	dec    	eax
  0x159c	mov    	ecx, dword ptr [esp + 0xc0]
  0x15a3	xor    	eax, eax
  0x15a5	.byte  	0xf0
  0x15a6	dec    	eax
  === BLOCK LINK ===
    0x15a7
=== CODE BLOCK END ===

=== CODE BLOCK ADDRESS 0x15a7 ===
  0x15a7	cmpxchg  	dword ptr [ecx], edi
  0x15aa	dec    	eax
  0x15ab	mov    	esi, eax
  0x15ad	jne    	0x15ed
  === BLOCK LINK ===
    0x15af
=== CODE BLOCK END ===

=== CODE BLOCK ADDRESS 0x15af ===
  0x15af	mov    	esi, 0x48
  0x15b4	dec    	eax
  0x15b5	lea    	ecx, [esp + 0x40]
  0x15b9	inc    	esp
  0x15ba	mov    	eax, esi
  === BLOCK LINK ===
    0x15bc
=== CODE BLOCK END ===

=== CODE BLOCK ADDRESS 0x15bc ===
  0x15bc	xor    	edx, edx
  0x15be	call   	0x205c
  === BLOCK LINK ===
    0x15c3
=== CODE BLOCK END ===

=== CODE BLOCK ADDRESS 0x15c3 ===
  0x15c3	dec    	eax
  0x15c4	mov    	eax, dword ptr [0x1e1e]
  0x15ca	mov    	dword ptr [esp + 0x40], esi
  0x15ce	dec    	eax
  0x15cf	mov    	dword ptr [esp + 0x58], ebp
  === BLOCK LINK ===
    0x15d3
=== CODE BLOCK END ===

=== CODE BLOCK ADDRESS 0x15d3 ===
  0x15d3	dec    	eax
  0x15d4	mov    	dword ptr [esp + 0x70], edi
  0x15d8	dec    	eax
  0x15d9	test   	eax, eax
  0x15db	je     	0x15ff
  === BLOCK LINK ===
    0x15dd
=== CODE BLOCK END ===

=== CODE BLOCK ADDRESS 0x15dd ===
  0x15dd	dec    	eax
  0x15de	lea    	edx, [esp + 0x40]
  0x15e2	lea    	ecx, [esi - 0x43]
  0x15e5	call   	dword ptr [0x1cb5]
  === BLOCK LINK ===
    0x15eb
=== CODE BLOCK END ===

=== CODE BLOCK ADDRESS 0x15eb ===
  0x15eb	jmp    	0x15ff
  === BLOCK LINK ===
    0x15ed
=== CODE BLOCK END ===

=== CODE BLOCK ADDRESS 0x15ed ===
  0x15ed	dec    	eax
  0x15ee	mov    	ecx, edi
  0x15f0	dec    	eax
  0x15f1	call   	dword ptr [0x1be1]
  === BLOCK LINK ===
    0x15f7
=== CODE BLOCK END ===

=== CODE BLOCK ADDRESS 0x15f7 ===
  0x15f7	nop    	dword ptr [eax + eax]
  0x15fc	dec    	eax
  0x15fd	mov    	edi, esi
  0x15ff	dec    	eax
  0x1600	test   	edi, edi
  === BLOCK LINK ===
    0x1602
=== CODE BLOCK END ===

=== CODE BLOCK ADDRESS 0x1602 ===
  0x1602	je     	0x1620
  === BLOCK LINK ===
    0x1604
=== CODE BLOCK END ===

=== CODE BLOCK ADDRESS 0x1604 ===
  0x1604	dec    	eax
  0x1605	mov    	edx, ebx
  0x1607	dec    	eax
  0x1608	mov    	ecx, edi
  0x160a	dec    	eax
  === BLOCK LINK ===
    0x160b
=== CODE BLOCK END ===

=== CODE BLOCK ADDRESS 0x160b ===
  0x160b	call   	dword ptr [0x1bb7]
  === BLOCK LINK ===
    0x1611
=== CODE BLOCK END ===

=== CODE BLOCK ADDRESS 0x1611 ===
  0x1611	nop    	dword ptr [eax + eax]
  0x1616	dec    	eax
  0x1617	test   	eax, eax
  0x1619	je     	0x1620
  === BLOCK LINK ===
    0x161b
=== CODE BLOCK END ===

=== CODE BLOCK ADDRESS 0x161b ===
  0x161b	dec    	ecx
  0x161c	mov    	dword ptr [esi], eax
  0x161e	jmp    	0x1632
  === BLOCK LINK ===
    0x1620
=== CODE BLOCK END ===

=== CODE BLOCK ADDRESS 0x1620 ===
  0x1620	dec    	eax
  0x1621	mov    	edx, ebx
  0x1623	dec    	eax
  0x1624	mov    	ecx, ebp
  0x1626	dec    	eax
  === BLOCK LINK ===
    0x1627
=== CODE BLOCK END ===

=== CODE BLOCK ADDRESS 0x1627 ===
  0x1627	call   	dword ptr [0x1b93]
  === BLOCK LINK ===
    0x162d
=== CODE BLOCK END ===

=== CODE BLOCK ADDRESS 0x162d ===
  0x162d	nop    	dword ptr [eax + eax]
  0x1632	dec    	esp
  0x1633	lea    	ebx, [esp + 0x90]
  0x163a	dec    	ecx
  0x163b	mov    	ebx, dword ptr [ebx + 0x38]
  === BLOCK LINK ===
    0x163e
=== CODE BLOCK END ===

=== CODE BLOCK ADDRESS 0x163e ===
  0x163e	dec    	ecx
  0x163f	mov    	ebp, dword ptr [ebx + 0x40]
  0x1642	dec    	ecx
  0x1643	mov    	esi, dword ptr [ebx + 0x48]
  0x1646	dec    	ecx
  === BLOCK LINK ===
    0x1647
=== CODE BLOCK END ===

=== CODE BLOCK ADDRESS 0x1647 ===
  0x1647	mov    	esp, ebx
  0x1649	inc    	ecx
  0x164a	pop    	edi
  0x164b	inc    	ecx
  0x164c	pop    	esi
  === BLOCK LINK ===
    0x164d
=== CODE BLOCK END ===

=== CODE BLOCK ADDRESS 0x164d ===
  0x164d	inc    	ecx
  0x164e	pop    	ebp
  0x164f	inc    	ecx
  0x1650	pop    	esp
  0x1651	pop    	edi
  === BLOCK LINK ===
    0x1652
=== CODE BLOCK END ===

=== CODE BLOCK ADDRESS 0x1652 ===
  0x1652	ret    	
  0x1653	int3   	
  0x1654	int3   	
  0x1655	int3   	
  0x1656	int3   	
  === BLOCK LINK ===
    0x1657
=== CODE BLOCK END ===

=== CODE BLOCK ADDRESS 0x1657 ===
  0x1657	int3   	
  0x1658	int3   	
  0x1659	int3   	
  0x165a	int3   	
  0x165b	int3   	
  === BLOCK LINK ===
    0x165c
=== CODE BLOCK END ===

=== CODE BLOCK ADDRESS 0x165c ===
  0x165c	int3   	
  0x165d	int3   	
  0x165e	int3   	
  0x165f	int3   	
  0x1660	dec    	eax
  === BLOCK LINK ===
    0x1661
=== CODE BLOCK END ===

=== CODE BLOCK ADDRESS 0x1661 ===
  0x1661	sub    	esp, 0x28
  0x1664	mov    	eax, 0x5a4d
  0x1669	cmp    	word ptr [0xffffe990], ax
  0x1670	je     	0x1676
  === BLOCK LINK ===
    0x1672
=== CODE BLOCK END ===

=== CODE BLOCK ADDRESS 0x1672 ===
  0x1672	xor    	eax, eax
  0x1674	jmp    	0x16c9
  === BLOCK LINK ===
    0x1676
=== CODE BLOCK END ===

=== CODE BLOCK ADDRESS 0x1676 ===
  0x1676	dec    	eax
  0x1677	arpl   	word ptr [0xffffe9bf], cx
  0x167d	dec    	eax
  0x167e	lea    	eax, [0xffffe97c]
  0x1684	dec    	eax
  === BLOCK LINK ===
    0x1685
=== CODE BLOCK END ===

=== CODE BLOCK ADDRESS 0x1685 ===
  0x1685	add    	ecx, eax
  0x1687	cmp    	dword ptr [ecx], 0x4550
  0x168d	jne    	0x1672
  === BLOCK LINK ===
    0x168f
=== CODE BLOCK END ===

=== CODE BLOCK ADDRESS 0x168f ===
  0x168f	mov    	eax, 0x10b
  0x1694	cmp    	word ptr [ecx + 0x18], ax
  0x1698	je     	0x16b8
  === BLOCK LINK ===
    0x169a
=== CODE BLOCK END ===

=== CODE BLOCK ADDRESS 0x169a ===
  0x169a	mov    	eax, 0x20b
  0x169f	cmp    	word ptr [ecx + 0x18], ax
  0x16a3	jne    	0x1672
  === BLOCK LINK ===
    0x16a5
=== CODE BLOCK END ===

=== CODE BLOCK ADDRESS 0x16a5 ===
  0x16a5	xor    	eax, eax
  0x16a7	cmp    	dword ptr [ecx + 0x84], 0xe
  0x16ae	jbe    	0x16c9
  === BLOCK LINK ===
    0x16b0
=== CODE BLOCK END ===

=== CODE BLOCK ADDRESS 0x16b0 ===
  0x16b0	cmp    	dword ptr [ecx + 0xf8], eax
  0x16b6	jmp    	0x16c6
  === BLOCK LINK ===
    0x16b8
=== CODE BLOCK END ===

=== CODE BLOCK ADDRESS 0x16b8 ===
  0x16b8	xor    	eax, eax
  0x16ba	cmp    	dword ptr [ecx + 0x74], 0xe
  0x16be	jbe    	0x16c9
  === BLOCK LINK ===
    0x16c0
=== CODE BLOCK END ===

=== CODE BLOCK ADDRESS 0x16c0 ===
  0x16c0	cmp    	dword ptr [ecx + 0xe8], eax
  0x16c6	setne  	al
  0x16c9	mov    	ecx, 2
  0x16ce	mov    	dword ptr [0x296c], eax
  0x16d4	call   	0x1b28
  === BLOCK LINK ===
    0x16d9
=== CODE BLOCK END ===

=== CODE BLOCK ADDRESS 0x16d9 ===
  0x16d9	mov    	ecx, eax
  0x16db	call   	dword ptr [0x1b47]
  === BLOCK LINK ===
    0x16e1
=== CODE BLOCK END ===

=== CODE BLOCK ADDRESS 0x16e1 ===
  0x16e1	dec    	eax
  0x16e2	mov    	ecx, dword ptr [0x1b08]
  0x16e8	dec    	eax
  0x16e9	or     	eax, 0xffffffff
  0x16ec	dec    	eax
  === BLOCK LINK ===
    0x16ed
=== CODE BLOCK END ===

=== CODE BLOCK ADDRESS 0x16ed ===
  0x16ed	mov    	dword ptr [0x2ee5], eax
  0x16f3	dec    	eax
  0x16f4	mov    	dword ptr [0x2ee6], eax
  0x16fa	mov    	eax, dword ptr [0x2954]
  0x1700	mov    	dword ptr [ecx], eax
  === BLOCK LINK ===
    0x1702
=== CODE BLOCK END ===

=== CODE BLOCK ADDRESS 0x1702 ===
  0x1702	dec    	eax
  0x1703	mov    	ecx, dword ptr [0x1adf]
  0x1709	mov    	eax, dword ptr [0x2939]
  0x170f	mov    	dword ptr [ecx], eax
  0x1711	call   	0x1b80
  === BLOCK LINK ===
    0x1716
=== CODE BLOCK END ===

=== CODE BLOCK ADDRESS 0x1716 ===
  0x1716	cmp    	dword ptr [0x28e3], 0
  0x171d	jne    	0x172c
  === BLOCK LINK ===
    0x171f
=== CODE BLOCK END ===

=== CODE BLOCK ADDRESS 0x171f ===
  0x171f	dec    	eax
  0x1720	lea    	ecx, [0x45a]
  0x1726	call   	dword ptr [0x1adc]
  === BLOCK LINK ===
    0x172c
=== CODE BLOCK END ===

=== CODE BLOCK ADDRESS 0x172c ===
  0x172c	xor    	eax, eax
  0x172e	dec    	eax
  0x172f	add    	esp, 0x28
  0x1732	ret    	
  0x1733	int3   	
  === BLOCK LINK ===
    0x1734
=== CODE BLOCK END ===

=== CODE BLOCK ADDRESS 0x1734 ===
  0x1734	int3   	
  0x1735	int3   	
  0x1736	int3   	
  0x1737	int3   	
  0x1738	int3   	
  === BLOCK LINK ===
    0x1739
=== CODE BLOCK END ===

=== CODE BLOCK ADDRESS 0x1739 ===
  0x1739	int3   	
  0x173a	int3   	
  0x173b	int3   	
  0x173c	int3   	
  0x173d	int3   	
  === BLOCK LINK ===
    0x173e
=== CODE BLOCK END ===

=== CODE BLOCK ADDRESS 0x173e ===
  0x173e	int3   	
  0x173f	int3   	
  0x1740	dec    	eax
  0x1741	sub    	esp, 0x38
  0x1744	mov    	eax, dword ptr [0x2906]
  === BLOCK LINK ===
    0x174a
=== CODE BLOCK END ===

=== CODE BLOCK ADDRESS 0x174a ===
  0x174a	dec    	esp
  0x174b	lea    	eax, [0x28e7]
  0x1751	inc    	esp
  0x1752	mov    	ecx, dword ptr [0x28f4]
  0x1758	dec    	eax
  === BLOCK LINK ===
    0x1759
=== CODE BLOCK END ===

=== CODE BLOCK ADDRESS 0x1759 ===
  0x1759	lea    	edx, [0x28d1]
  0x175f	mov    	dword ptr [0x28df], eax
  0x1765	dec    	eax
  0x1766	lea    	ecx, [0x28bc]
  0x176c	dec    	eax
  === BLOCK LINK ===
    0x176d
=== CODE BLOCK END ===

=== CODE BLOCK ADDRESS 0x176d ===
  0x176d	lea    	eax, [0x28d1]
  0x1773	dec    	eax
  0x1774	mov    	dword ptr [esp + 0x20], eax
  0x1778	call   	dword ptr [0x1ab2]
  === BLOCK LINK ===
    0x177e
=== CODE BLOCK END ===

=== CODE BLOCK ADDRESS 0x177e ===
  0x177e	mov    	dword ptr [0x28a8], eax
  0x1784	dec    	eax
  0x1785	add    	esp, 0x38
  0x1788	ret    	
  0x1789	int3   	
  === BLOCK LINK ===
    0x178a
=== CODE BLOCK END ===

=== CODE BLOCK ADDRESS 0x1012 ===
=== CODE BLOCK END ===

=== CODE BLOCK ADDRESS 0x178a ===
  0x178a	int3   	
  0x178b	int3   	
  0x178c	int3   	
  0x178d	int3   	
  0x178e	int3   	
  === BLOCK LINK ===
    0x178f
=== CODE BLOCK END ===

=== CODE BLOCK ADDRESS 0x178f ===
  0x178f	int3   	
  0x1790	dec    	eax
  0x1791	mov    	eax, esp
  0x1793	dec    	eax
  0x1794	mov    	dword ptr [eax + 8], ebx
  === BLOCK LINK ===
    0x1797
=== CODE BLOCK END ===

=== CODE BLOCK ADDRESS 0x1797 ===
  0x1797	dec    	eax
  0x1798	mov    	dword ptr [eax + 0x10], esi
  0x179b	dec    	eax
  0x179c	mov    	dword ptr [eax + 0x18], edi
  0x179f	dec    	esp
  === BLOCK LINK ===
    0x17a0
=== CODE BLOCK END ===

=== CODE BLOCK ADDRESS 0x17a0 ===
  0x17a0	mov    	dword ptr [eax + 0x20], esi
  0x17a3	inc    	ecx
  0x17a4	push   	edi
  0x17a5	dec    	eax
  0x17a6	sub    	esp, 0xb0
  === BLOCK LINK ===
    0x17ac
=== CODE BLOCK END ===

=== CODE BLOCK ADDRESS 0x17ac ===
  0x17ac	inc    	ebp
  0x17ad	xor    	esi, esi
  0x17af	inc    	esp
  0x17b0	mov    	dword ptr [esp + 0x20], esi
  0x17b4	dec    	eax
  === BLOCK LINK ===
    0x17b5
=== CODE BLOCK END ===

=== CODE BLOCK ADDRESS 0x17b5 ===
  0x17b5	lea    	ecx, [eax - 0x78]
  0x17b8	call   	dword ptr [0x19da]
  === BLOCK LINK ===
    0x17be
=== CODE BLOCK END ===

=== CODE BLOCK ADDRESS 0x17be ===
  0x17be	nop    	
  0x17bf	dec    	eax
  0x17c1	mov    	eax, dword ptr [0x30]
  0x17c8	dec    	eax
  0x17c9	mov    	ebx, dword ptr [eax + 8]
  === BLOCK LINK ===
    0x17cc
=== CODE BLOCK END ===

=== CODE BLOCK ADDRESS 0x17cc ===
  0x17cc	inc    	ecx
  0x17cd	mov    	esi, esi
  0x17cf	xor    	eax, eax
  0x17d1	.byte  	0xf0
  0x17d2	dec    	eax
  === BLOCK LINK ===
    0x17d3
=== CODE BLOCK END ===

=== CODE BLOCK ADDRESS 0x17d3 ===
  0x17d3	cmpxchg  	dword ptr [0x2e0e], ebx
  0x17da	je     	0x17f7
  === BLOCK LINK ===
    0x17dc
=== CODE BLOCK END ===

=== CODE BLOCK ADDRESS 0x17dc ===
  0x17dc	dec    	eax
  0x17dd	cmp    	eax, ebx
  0x17df	jne    	0x17ea
  === BLOCK LINK ===
    0x17e1
=== CODE BLOCK END ===

=== CODE BLOCK ADDRESS 0x17e1 ===
  0x17e1	mov    	ebx, 1
  0x17e6	mov    	esi, ebx
  0x17e8	jmp    	0x17fc
  === BLOCK LINK ===
    0x17ea
=== CODE BLOCK END ===

=== CODE BLOCK ADDRESS 0x17ea ===
  0x17ea	mov    	ecx, 0x3e8
  0x17ef	call   	dword ptr [0x19ab]
  === BLOCK LINK ===
    0x17f5
=== CODE BLOCK END ===

=== CODE BLOCK ADDRESS 0x17f5 ===
  0x17f5	jmp    	0x17cf
  === BLOCK LINK ===
    0x17f7
=== CODE BLOCK END ===

=== CODE BLOCK ADDRESS 0x17f7 ===
  0x17f7	mov    	ebx, 1
  0x17fc	mov    	eax, dword ptr [0x2dee]
  0x1802	cmp    	eax, ebx
  0x1804	jne    	0x1814
  === BLOCK LINK ===
    0x1806
=== CODE BLOCK END ===

=== CODE BLOCK ADDRESS 0x1806 ===
  0x1806	mov    	edi, 0x1f
  0x180b	mov    	ecx, edi
  0x180d	call   	0x1b73
  === BLOCK LINK ===
    0x1812
=== CODE BLOCK END ===

=== CODE BLOCK ADDRESS 0x1812 ===
  0x1812	jmp    	0x1880
  === BLOCK LINK ===
    0x1814
=== CODE BLOCK END ===

=== CODE BLOCK ADDRESS 0x1814 ===
  0x1814	mov    	eax, dword ptr [0x2dd6]
  0x181a	test   	eax, eax
  0x181c	jne    	0x1875
  === BLOCK LINK ===
    0x181e
=== CODE BLOCK END ===

=== CODE BLOCK ADDRESS 0x181e ===
  0x181e	mov    	dword ptr [0x2dcc], ebx
  0x1824	dec    	esp
  0x1825	lea    	edi, [0x1aad]
  0x182b	dec    	eax
  0x182c	lea    	edi, [0x1a8e]
  === BLOCK LINK ===
    0x1832
=== CODE BLOCK END ===

=== CODE BLOCK ADDRESS 0x1832 ===
  0x1832	dec    	eax
  0x1833	mov    	dword ptr [esp + 0x30], edi
  0x1837	inc    	ecx
  0x1838	mov    	eax, esi
  0x183a	mov    	dword ptr [esp + 0x24], eax
  === BLOCK LINK ===
    0x183e
=== CODE BLOCK END ===

=== CODE BLOCK ADDRESS 0x183e ===
  0x183e	dec    	ecx
  0x183f	cmp    	edi, edi
  0x1841	jae    	0x1867
  === BLOCK LINK ===
    0x1843
=== CODE BLOCK END ===

=== CODE BLOCK ADDRESS 0x1843 ===
  0x1843	test   	eax, eax
  0x1845	jne    	0x186b
  === BLOCK LINK ===
    0x1847
=== CODE BLOCK END ===

=== CODE BLOCK ADDRESS 0x1847 ===
  0x1847	dec    	esp
  0x1848	cmp    	dword ptr [edi], esi
  0x184a	je     	0x185c
  === BLOCK LINK ===
    0x184c
=== CODE BLOCK END ===

=== CODE BLOCK ADDRESS 0x184c ===
  0x184c	dec    	eax
  0x184d	mov    	eax, dword ptr [edi]
  0x184f	dec    	eax
  0x1850	mov    	ecx, dword ptr [0x1a4a]
  0x1856	call   	ecx
  === BLOCK LINK ===
    0x1858
=== CODE BLOCK END ===

=== CODE BLOCK ADDRESS 0x1858 ===
  0x1858	mov    	dword ptr [esp + 0x24], eax
  0x185c	dec    	eax
  0x185d	add    	edi, 8
  0x1860	dec    	eax
  0x1861	mov    	dword ptr [esp + 0x30], edi
  === BLOCK LINK ===
    0x1865
=== CODE BLOCK END ===

=== CODE BLOCK ADDRESS 0x1865 ===
  0x1865	jmp    	0x183e
  === BLOCK LINK ===
    0x1867
=== CODE BLOCK END ===

=== CODE BLOCK ADDRESS 0x1867 ===
  0x1867	test   	eax, eax
  0x1869	je     	0x187b
  === BLOCK LINK ===
    0x186b
=== CODE BLOCK END ===

=== CODE BLOCK ADDRESS 0x186b ===
  0x186b	mov    	eax, 0xff
  0x1870	jmp    	0x19d6
  === BLOCK LINK ===
    0x1875
=== CODE BLOCK END ===

=== CODE BLOCK ADDRESS 0x1875 ===
  0x1875	mov    	dword ptr [0x27a9], ebx
  0x187b	mov    	edi, 0x1f
  0x1880	mov    	eax, dword ptr [0x2d6a]
  0x1886	cmp    	eax, ebx
  0x1888	jne    	0x18a7
  === BLOCK LINK ===
    0x188a
=== CODE BLOCK END ===

=== CODE BLOCK ADDRESS 0x188a ===
  0x188a	dec    	eax
  0x188b	lea    	edx, [0x1a27]
  0x1891	dec    	eax
  0x1892	lea    	ecx, [0x1a10]
  0x1898	call   	0x1d4e
  === BLOCK LINK ===
    0x189d
=== CODE BLOCK END ===

=== CODE BLOCK ADDRESS 0x189d ===
  0x189d	mov    	dword ptr [0x2d49], 2
  0x18a7	test   	esi, esi
  0x18a9	jne    	0x18b5
  === BLOCK LINK ===
    0x18ab
=== CODE BLOCK END ===

=== CODE BLOCK ADDRESS 0x18ab ===
  0x18ab	dec    	ecx
  0x18ac	mov    	eax, esi
  0x18ae	dec    	eax
  0x18af	xchg   	dword ptr [0x2d33], eax
  0x18b5	dec    	esp
  === BLOCK LINK ===
    0x18b6
=== CODE BLOCK END ===

=== CODE BLOCK ADDRESS 0x18b6 ===
  0x18b6	cmp    	dword ptr [0x2d3c], esi
  0x18bc	je     	0x18e8
  === BLOCK LINK ===
    0x18be
=== CODE BLOCK END ===

=== CODE BLOCK ADDRESS 0x18be ===
  0x18be	dec    	eax
  0x18bf	lea    	ecx, [0x2d33]
  0x18c5	call   	0x1be0
  === BLOCK LINK ===
    0x18ca
=== CODE BLOCK END ===

=== CODE BLOCK ADDRESS 0x18ca ===
  0x18ca	test   	eax, eax
  0x18cc	je     	0x18e8
  === BLOCK LINK ===
    0x18ce
=== CODE BLOCK END ===

=== CODE BLOCK ADDRESS 0x18ce ===
  0x18ce	inc    	ebp
  0x18cf	xor    	eax, eax
  0x18d1	inc    	ecx
  0x18d2	lea    	edx, [eax + 2]
  0x18d5	xor    	ecx, ecx
  === BLOCK LINK ===
    0x18d7
=== CODE BLOCK END ===

=== CODE BLOCK ADDRESS 0x18d7 ===
  0x18d7	dec    	eax
  0x18d8	mov    	eax, dword ptr [0x2d1a]
  0x18de	dec    	esp
  0x18df	mov    	ecx, dword ptr [0x19bb]
  0x18e5	inc    	ecx
  === BLOCK LINK ===
    0x18e6
=== CODE BLOCK END ===

=== CODE BLOCK ADDRESS 0x18e6 ===
  0x18e6	call   	ecx
  === BLOCK LINK ===
    0x18e8
=== CODE BLOCK END ===

=== CODE BLOCK ADDRESS 0x18e8 ===
  0x18e8	dec    	eax
  0x18e9	mov    	eax, dword ptr [0x1909]
  0x18ef	dec    	eax
  0x18f0	mov    	ecx, dword ptr [eax]
  0x18f2	dec    	eax
  === BLOCK LINK ===
    0x18f3
=== CODE BLOCK END ===

=== CODE BLOCK ADDRESS 0x18f3 ===
  0x18f3	test   	ecx, ecx
  0x18f5	jne    	0x1901
  === BLOCK LINK ===
    0x18f7
=== CODE BLOCK END ===

=== CODE BLOCK ADDRESS 0x18f7 ===
  0x18f7	mov    	eax, 0xff
  0x18fc	jmp    	0x19d6
  === BLOCK LINK ===
    0x1901
=== CODE BLOCK END ===

=== CODE BLOCK ADDRESS 0x1901 ===
  0x1901	dec    	eax
  0x1902	mov    	dword ptr [esp + 0x28], ecx
  0x1906	mov    	edx, dword ptr [esp + 0x20]
  0x190a	movzx  	eax, word ptr [ecx]
  0x190d	cmp    	ax, 0x20
  === BLOCK LINK ===
    0x1911
=== CODE BLOCK END ===

=== CODE BLOCK ADDRESS 0x1911 ===
  0x1911	ja     	0x1987
  === BLOCK LINK ===
    0x1913
=== CODE BLOCK END ===

=== CODE BLOCK ADDRESS 0x1913 ===
  0x1913	test   	ax, ax
  0x1916	je     	0x191c
  === BLOCK LINK ===
    0x1918
=== CODE BLOCK END ===

=== CODE BLOCK ADDRESS 0x1918 ===
  0x1918	test   	edx, edx
  0x191a	jne    	0x1987
  === BLOCK LINK ===
    0x191c
=== CODE BLOCK END ===

=== CODE BLOCK ADDRESS 0x191c ===
  0x191c	sub    	ax, bx
  0x191f	cmp    	ax, di
  0x1922	ja     	0x1932
  === BLOCK LINK ===
    0x1924
=== CODE BLOCK END ===

=== CODE BLOCK ADDRESS 0x1924 ===
  0x1924	dec    	eax
  0x1925	add    	ecx, 2
  0x1928	dec    	eax
  0x1929	mov    	dword ptr [esp + 0x28], ecx
  0x192d	movzx  	eax, word ptr [ecx]
  === BLOCK LINK ===
    0x1930
=== CODE BLOCK END ===

=== CODE BLOCK ADDRESS 0x1930 ===
  0x1930	jmp    	0x191c
  === BLOCK LINK ===
    0x1932
=== CODE BLOCK END ===

=== CODE BLOCK ADDRESS 0x1932 ===
  0x1932	test   	byte ptr [esp + 0x7c], bl
  0x1936	movzx  	eax, word ptr [esp + 0x80]
  0x193e	inc    	ecx
  0x193f	mov    	ecx, 0xa
  0x1944	inc    	esp
  === BLOCK LINK ===
    0x1945
=== CODE BLOCK END ===

=== CODE BLOCK ADDRESS 0x1945 ===
  0x1945	cmovne  	ecx, eax
  0x1948	dec    	esp
  0x1949	mov    	eax, ecx
  0x194b	xor    	edx, edx
  0x194d	dec    	eax
  === BLOCK LINK ===
    0x194e
=== CODE BLOCK END ===

=== CODE BLOCK ADDRESS 0x194e ===
  0x194e	lea    	ecx, [0xffffe6ac]
  0x1954	call   	0x1108
  === BLOCK LINK ===
    0x1959
=== CODE BLOCK END ===

=== CODE BLOCK ADDRESS 0x1959 ===
  0x1959	mov    	dword ptr [0x26c1], eax
  0x195f	inc    	esp
  0x1960	cmp    	dword ptr [0x26da], esi
  0x1966	jne    	0x1970
  === BLOCK LINK ===
    0x1968
=== CODE BLOCK END ===

=== CODE BLOCK ADDRESS 0x1968 ===
  0x1968	mov    	ecx, eax
  0x196a	call   	dword ptr [0x18b0]
  === BLOCK LINK ===
    0x1970
=== CODE BLOCK END ===

=== CODE BLOCK ADDRESS 0x1970 ===
  0x1970	inc    	esp
  0x1971	cmp    	dword ptr [0x26ad], esi
  0x1977	jne    	0x1985
  === BLOCK LINK ===
    0x1979
=== CODE BLOCK END ===

=== CODE BLOCK ADDRESS 0x1979 ===
  0x1979	call   	dword ptr [0x1891]
  === BLOCK LINK ===
    0x197f
=== CODE BLOCK END ===

=== CODE BLOCK ADDRESS 0x197f ===
  0x197f	mov    	eax, dword ptr [0x269b]
  0x1985	jmp    	0x19d6
  === BLOCK LINK ===
    0x1987
=== CODE BLOCK END ===

=== CODE BLOCK ADDRESS 0x1987 ===
  0x1987	cmp    	ax, 0x22
  0x198b	jne    	0x199b
  === BLOCK LINK ===
    0x198d
=== CODE BLOCK END ===

=== CODE BLOCK ADDRESS 0x198d ===
  0x198d	inc    	ecx
  0x198e	mov    	eax, esi
  0x1990	test   	edx, edx
  0x1992	sete   	al
  0x1995	mov    	edx, eax
  === BLOCK LINK ===
    0x1997
=== CODE BLOCK END ===

=== CODE BLOCK ADDRESS 0x1997 ===
  0x1997	mov    	dword ptr [esp + 0x20], eax
  0x199b	dec    	eax
  0x199c	add    	ecx, 2
  0x199f	dec    	eax
  0x19a0	mov    	dword ptr [esp + 0x28], ecx
  === BLOCK LINK ===
    0x19a4
=== CODE BLOCK END ===

=== CODE BLOCK ADDRESS 0x19a4 ===
  0x19a4	jmp    	0x190a
  === BLOCK LINK ===
    0x19a9
=== CODE BLOCK END ===

=== CODE BLOCK ADDRESS 0x19a9 ===
  0x19a9	mov    	dword ptr [0x2671], eax
  0x19af	cmp    	dword ptr [0x268a], 0
  0x19b6	jne    	0x19c1
  === BLOCK LINK ===
    0x19b8
=== CODE BLOCK END ===

=== CODE BLOCK ADDRESS 0x19b8 ===
  0x19b8	mov    	ecx, eax
  0x19ba	call   	dword ptr [0x1858]
  === BLOCK LINK ===
    0x19c0
=== CODE BLOCK END ===

=== CODE BLOCK ADDRESS 0x19c0 ===
  0x19c0	int3   	
  0x19c1	cmp    	dword ptr [0x265c], 0
  0x19c8	jne    	0x19d6
  === BLOCK LINK ===
    0x19ca
=== CODE BLOCK END ===

=== CODE BLOCK ADDRESS 0x19ca ===
  0x19ca	call   	dword ptr [0x1840]
  === BLOCK LINK ===
    0x19d0
=== CODE BLOCK END ===

=== CODE BLOCK ADDRESS 0x19d0 ===
  0x19d0	mov    	eax, dword ptr [0x264a]
  0x19d6	dec    	esp
  0x19d7	lea    	ebx, [esp + 0xb0]
  0x19de	dec    	ecx
  0x19df	mov    	ebx, dword ptr [ebx + 0x10]
  === BLOCK LINK ===
    0x19e2
=== CODE BLOCK END ===

=== CODE BLOCK ADDRESS 0x19e2 ===
  0x19e2	dec    	ecx
  0x19e3	mov    	esi, dword ptr [ebx + 0x18]
  0x19e6	dec    	ecx
  0x19e7	mov    	edi, dword ptr [ebx + 0x20]
  0x19ea	dec    	ebp
  === BLOCK LINK ===
    0x19eb
=== CODE BLOCK END ===

=== CODE BLOCK ADDRESS 0x19eb ===
  0x19eb	mov    	esi, dword ptr [ebx + 0x28]
  0x19ee	dec    	ecx
  0x19ef	mov    	esp, ebx
  0x19f1	inc    	ecx
  0x19f2	pop    	edi
  === BLOCK LINK ===
    0x19f3
=== CODE BLOCK END ===

=== CODE BLOCK ADDRESS 0x19f3 ===
  0x19f3	ret    	
  0x19f4	int3   	
  0x19f5	int3   	
  0x19f6	int3   	
  0x19f7	int3   	
  === BLOCK LINK ===
    0x19f8
=== CODE BLOCK END ===

=== CODE BLOCK ADDRESS 0x19f8 ===
  0x19f8	int3   	
  0x19f9	int3   	
  0x19fa	int3   	
  0x19fb	int3   	
  0x19fc	int3   	
  === BLOCK LINK ===
    0x19fd
=== CODE BLOCK END ===

=== CODE BLOCK ADDRESS 0x19fd ===
  0x19fd	int3   	
  0x19fe	int3   	
  0x19ff	int3   	
  0x1a00	dec    	eax
  0x1a01	sub    	esp, 0x28
  === BLOCK LINK ===
    0x1a04
=== CODE BLOCK END ===

=== CODE BLOCK ADDRESS 0x1a04 ===
  0x1a04	call   	0x1c74
  === BLOCK LINK ===
    0x1a09
=== CODE BLOCK END ===

=== CODE BLOCK ADDRESS 0x1a09 ===
  0x1a09	dec    	eax
  0x1a0a	add    	esp, 0x28
  0x1a0d	jmp    	0x1790
  === BLOCK LINK ===
    0x1a12
=== CODE BLOCK END ===

=== CODE BLOCK ADDRESS 0x1a12 ===
  0x1a12	int3   	
  0x1a13	int3   	
  0x1a14	int3   	
  0x1a15	int3   	
  0x1a16	int3   	
  === BLOCK LINK ===
    0x1a17
=== CODE BLOCK END ===

=== CODE BLOCK ADDRESS 0x1a17 ===
  0x1a17	int3   	
  0x1a18	jmp    	dword ptr [0x1832]
  === BLOCK LINK ===
    0x1a1e
=== CODE BLOCK END ===

=== CODE BLOCK ADDRESS 0x1a1e ===
  0x1a1e	int3   	
  0x1a1f	int3   	
  0x1a20	int3   	
  0x1a21	int3   	
  0x1a22	int3   	
  === BLOCK LINK ===
    0x1a23
=== CODE BLOCK END ===

=== CODE BLOCK ADDRESS 0x1a23 ===
  0x1a23	int3   	
  0x1a24	int3   	
  0x1a25	int3   	
  0x1a26	nop    	word ptr [eax + eax]
  0x1a30	dec    	eax
  === BLOCK LINK ===
    0x1a31
=== CODE BLOCK END ===

=== CODE BLOCK ADDRESS 0x1a31 ===
  0x1a31	cmp    	ecx, dword ptr [0x25d1]
  0x1a37	jne    	0x1a49
  === BLOCK LINK ===
    0x1a39
=== CODE BLOCK END ===

=== CODE BLOCK ADDRESS 0x1a39 ===
  0x1a39	dec    	eax
  0x1a3a	rol    	ecx, 0x10
  0x1a3d	test   	cx, 0xffff
  0x1a42	jne    	0x1a45
  === BLOCK LINK ===
    0x1a44
=== CODE BLOCK END ===

=== CODE BLOCK ADDRESS 0x1a44 ===
  0x1a44	ret    	
  0x1a45	dec    	eax
  0x1a46	ror    	ecx, 0x10
  0x1a49	jmp    	0x1db0
  === BLOCK LINK ===
    0x1a4e
=== CODE BLOCK END ===

=== CODE BLOCK ADDRESS 0x1008 ===
  0x1008	dec    	eax
  0x1009	sub    	esp, 0x28
  === BLOCK LINK ===
    0x100c
=== CODE BLOCK END ===

=== CODE BLOCK ADDRESS 0x1a4e ===
  0x1a4e	int3   	
  0x1a4f	int3   	
  0x1a50	int3   	
  0x1a51	int3   	
  0x1a52	int3   	
  === BLOCK LINK ===
    0x1a53
=== CODE BLOCK END ===

=== CODE BLOCK ADDRESS 0x1a53 ===
  0x1a53	int3   	
  0x1a54	int3   	
  0x1a55	int3   	
  0x1a56	int3   	
  0x1a57	int3   	
  === BLOCK LINK ===
    0x1a58
=== CODE BLOCK END ===

=== CODE BLOCK ADDRESS 0x1a58 ===
  0x1a58	int3   	
  0x1a59	int3   	
  0x1a5a	int3   	
  0x1a5b	int3   	
  0x1a5c	int3   	
  === BLOCK LINK ===
    0x1a5d
=== CODE BLOCK END ===

=== CODE BLOCK ADDRESS 0x1a5d ===
  0x1a5d	int3   	
  0x1a5e	int3   	
  0x1a5f	int3   	
  0x1a60	dec    	eax
  0x1a61	sub    	esp, 0x28
  === BLOCK LINK ===
    0x1a64
=== CODE BLOCK END ===

=== CODE BLOCK ADDRESS 0x1a64 ===
  0x1a64	dec    	eax
  0x1a65	mov    	eax, dword ptr [ecx]
  0x1a67	cmp    	dword ptr [eax], 0xe06d7363
  0x1a6d	jne    	0x1a92
  === BLOCK LINK ===
    0x1a6f
=== CODE BLOCK END ===

=== CODE BLOCK ADDRESS 0x1a6f ===
  0x1a6f	cmp    	dword ptr [eax + 0x18], 4
  0x1a73	jne    	0x1a92
  === BLOCK LINK ===
    0x1a75
=== CODE BLOCK END ===

=== CODE BLOCK ADDRESS 0x1a75 ===
  0x1a75	mov    	ecx, dword ptr [eax + 0x20]
  0x1a78	lea    	eax, [ecx - 0x19930520]
  0x1a7e	cmp    	eax, 2
  0x1a81	jbe    	0x1a8b
  === BLOCK LINK ===
    0x1a83
=== CODE BLOCK END ===

=== CODE BLOCK ADDRESS 0x1a83 ===
  0x1a83	cmp    	ecx, 0x1994000
  0x1a89	jne    	0x1a92
  === BLOCK LINK ===
    0x1a8b
=== CODE BLOCK END ===

=== CODE BLOCK ADDRESS 0x1a8b ===
  0x1a8b	call   	dword ptr [0x17c7]
  === BLOCK LINK ===
    0x1a91
=== CODE BLOCK END ===

=== CODE BLOCK ADDRESS 0x1a91 ===
  0x1a91	int3   	
  0x1a92	xor    	eax, eax
  0x1a94	dec    	eax
  0x1a95	add    	esp, 0x28
  0x1a98	ret    	
  === BLOCK LINK ===
    0x1a99
=== CODE BLOCK END ===

=== CODE BLOCK ADDRESS 0x10ed ===
  0x10ed	mov    	ecx, 1
  0x10f2	dec    	eax
  === BLOCK LINK ===
    0x10f3
=== CODE BLOCK END ===

=== CODE BLOCK ADDRESS 0x1a99 ===
  0x1a99	int3   	
  0x1a9a	int3   	
  0x1a9b	int3   	
  0x1a9c	int3   	
  0x1a9d	int3   	
  === BLOCK LINK ===
    0x1a9e
=== CODE BLOCK END ===

=== CODE BLOCK ADDRESS 0x1a9e ===
  0x1a9e	int3   	
  0x1a9f	int3   	
  0x1aa0	dec    	eax
  0x1aa1	sub    	esp, 0x28
  0x1aa4	dec    	eax
  === BLOCK LINK ===
    0x1aa5
=== CODE BLOCK END ===

=== CODE BLOCK ADDRESS 0x1aa5 ===
  0x1aa5	lea    	ecx, [0xffffffb5]
  0x1aab	call   	dword ptr [0x16df]
  === BLOCK LINK ===
    0x1ab1
=== CODE BLOCK END ===

=== CODE BLOCK ADDRESS 0x1ab1 ===
  0x1ab1	xor    	eax, eax
  0x1ab3	dec    	eax
  0x1ab4	add    	esp, 0x28
  0x1ab7	ret    	
  0x1ab8	int3   	
  === BLOCK LINK ===
    0x1ab9
=== CODE BLOCK END ===

=== CODE BLOCK ADDRESS 0x1ab9 ===
  0x1ab9	int3   	
  0x1aba	int3   	
  0x1abb	int3   	
  0x1abc	int3   	
  0x1abd	int3   	
  === BLOCK LINK ===
    0x1abe
=== CODE BLOCK END ===

=== CODE BLOCK ADDRESS 0x1abe ===
  0x1abe	jmp    	dword ptr [0x177c]
  === BLOCK LINK ===
    0x1ac4
=== CODE BLOCK END ===

=== CODE BLOCK ADDRESS 0x1ac4 ===
  0x1ac4	int3   	
  0x1ac5	int3   	
  0x1ac6	int3   	
  0x1ac7	int3   	
  0x1ac8	int3   	
  === BLOCK LINK ===
    0x1ac9
=== CODE BLOCK END ===

=== CODE BLOCK ADDRESS 0x1ac9 ===
  0x1ac9	int3   	
  0x1aca	int3   	
  0x1acb	int3   	
  0x1acc	dec    	eax
  0x1acd	sub    	esp, 0x18
  === BLOCK LINK ===
    0x1ad0
=== CODE BLOCK END ===

=== CODE BLOCK ADDRESS 0x1ad0 ===
  0x1ad0	xor    	edx, edx
  0x1ad2	dec    	eax
  0x1ad3	lea    	eax, [ecx - 1]
  0x1ad6	dec    	eax
  0x1ad7	cmp    	eax, -3
  === BLOCK LINK ===
    0x1ada
=== CODE BLOCK END ===

=== CODE BLOCK ADDRESS 0x1ada ===
  0x1ada	ja     	0x1b18
  === BLOCK LINK ===
    0x1adc
=== CODE BLOCK END ===

=== CODE BLOCK ADDRESS 0x1adc ===
  0x1adc	mov    	eax, 0x5a4d
  0x1ae1	cmp    	word ptr [ecx], ax
  0x1ae4	jne    	0x1b10
  === BLOCK LINK ===
    0x1ae6
=== CODE BLOCK END ===

=== CODE BLOCK ADDRESS 0x1ae6 ===
  0x1ae6	cmp    	dword ptr [ecx + 0x3c], edx
  0x1ae9	jl     	0x1b10
  === BLOCK LINK ===
    0x1aeb
=== CODE BLOCK END ===

=== CODE BLOCK ADDRESS 0x1aeb ===
  0x1aeb	cmp    	dword ptr [ecx + 0x3c], 0x10000000
  0x1af2	jae    	0x1b10
  === BLOCK LINK ===
    0x1af4
=== CODE BLOCK END ===

=== CODE BLOCK ADDRESS 0x1af4 ===
  0x1af4	dec    	eax
  0x1af5	arpl   	word ptr [ecx + 0x3c], ax
  0x1af8	dec    	eax
  0x1af9	add    	eax, ecx
  0x1afb	dec    	eax
  === BLOCK LINK ===
    0x1afc
=== CODE BLOCK END ===

=== CODE BLOCK ADDRESS 0x1afc ===
  0x1afc	mov    	dword ptr [esp], eax
  0x1aff	cmp    	dword ptr [eax], 0x4550
  0x1b05	dec    	eax
  0x1b06	cmovne  	eax, edx
  0x1b09	dec    	eax
  === BLOCK LINK ===
    0x1b0a
=== CODE BLOCK END ===

=== CODE BLOCK ADDRESS 0x1b0a ===
  0x1b0a	mov    	edx, eax
  0x1b0c	dec    	eax
  0x1b0d	mov    	dword ptr [esp], eax
  0x1b10	jmp    	0x1b18
  === BLOCK LINK ===
    0x1b12
=== CODE BLOCK END ===

=== CODE BLOCK ADDRESS 0x1b12 ===
  0x1b12	xor    	edx, edx
  0x1b14	dec    	eax
  0x1b15	mov    	dword ptr [esp], edx
  0x1b18	dec    	eax
  0x1b19	mov    	eax, edx
  === BLOCK LINK ===
    0x1b1b
=== CODE BLOCK END ===

=== CODE BLOCK ADDRESS 0x1b1b ===
  0x1b1b	dec    	eax
  0x1b1c	add    	esp, 0x18
  0x1b1f	ret    	
  0x1b20	int3   	
  0x1b21	int3   	
  === BLOCK LINK ===
    0x1b22
=== CODE BLOCK END ===

=== CODE BLOCK ADDRESS 0x1b22 ===
  0x1b22	int3   	
  0x1b23	int3   	
  0x1b24	int3   	
  0x1b25	int3   	
  0x1b26	int3   	
  === BLOCK LINK ===
    0x1b27
=== CODE BLOCK END ===

=== CODE BLOCK ADDRESS 0x1b27 ===
  0x1b27	int3   	
  0x1b28	inc    	eax
  0x1b29	push   	ebx
  0x1b2a	dec    	eax
  0x1b2b	sub    	esp, 0x20
  === BLOCK LINK ===
    0x1b2e
=== CODE BLOCK END ===

=== CODE BLOCK ADDRESS 0x1b2e ===
  0x1b2e	mov    	ebx, ecx
  0x1b30	xor    	ecx, ecx
  0x1b32	call   	dword ptr [0x1650]
  === BLOCK LINK ===
    0x1b38
=== CODE BLOCK END ===

=== CODE BLOCK ADDRESS 0x1b38 ===
  0x1b38	dec    	eax
  0x1b39	test   	eax, eax
  0x1b3b	je     	0x1b65
  === BLOCK LINK ===
    0x1b3d
=== CODE BLOCK END ===

=== CODE BLOCK ADDRESS 0x1b3d ===
  0x1b3d	dec    	eax
  0x1b3e	mov    	ecx, eax
  0x1b40	call   	0x1acc
  === BLOCK LINK ===
    0x1b45
=== CODE BLOCK END ===

=== CODE BLOCK ADDRESS 0x1b45 ===
  0x1b45	dec    	eax
  0x1b46	test   	eax, eax
  0x1b48	je     	0x1b65
  === BLOCK LINK ===
    0x1b4a
=== CODE BLOCK END ===

=== CODE BLOCK ADDRESS 0x1b4a ===
  0x1b4a	mov    	ecx, 2
  0x1b4f	cmp    	word ptr [eax + 0x5c], cx
  0x1b53	jne    	0x1b59
  === BLOCK LINK ===
    0x1b55
=== CODE BLOCK END ===

=== CODE BLOCK ADDRESS 0x1b55 ===
  0x1b55	mov    	eax, ecx
  0x1b57	jmp    	0x1b67
  === BLOCK LINK ===
    0x1b59
=== CODE BLOCK END ===

=== CODE BLOCK ADDRESS 0x1b59 ===
  0x1b59	cmp    	word ptr [eax + 0x5c], 3
  0x1b5e	mov    	eax, 1
  0x1b63	je     	0x1b67
  === BLOCK LINK ===
    0x1b65
=== CODE BLOCK END ===

=== CODE BLOCK ADDRESS 0x1b65 ===
  0x1b65	mov    	eax, ebx
  0x1b67	dec    	eax
  0x1b68	add    	esp, 0x20
  0x1b6b	pop    	ebx
  0x1b6c	ret    	
  === BLOCK LINK ===
    0x1b6d
=== CODE BLOCK END ===

=== CODE BLOCK ADDRESS 0x10bd ===
  0x10bd	dec    	eax
  0x10be	mov    	edx, esi
  === BLOCK LINK ===
    0x10c0
=== CODE BLOCK END ===

=== CODE BLOCK ADDRESS 0x1b6d ===
  0x1b6d	int3   	
  0x1b6e	int3   	
  0x1b6f	int3   	
  0x1b70	int3   	
  0x1b71	int3   	
  === BLOCK LINK ===
    0x1b72
=== CODE BLOCK END ===

=== CODE BLOCK ADDRESS 0x1b72 ===
  0x1b72	int3   	
  0x1b73	jmp    	dword ptr [0x16bf]
  === BLOCK LINK ===
    0x1b79
=== CODE BLOCK END ===

=== CODE BLOCK ADDRESS 0x1b79 ===
  0x1b79	int3   	
  0x1b7a	int3   	
  0x1b7b	int3   	
  0x1b7c	int3   	
  0x1b7d	int3   	
  === BLOCK LINK ===
    0x1b7e
=== CODE BLOCK END ===

=== CODE BLOCK ADDRESS 0x1b7e ===
  0x1b7e	int3   	
  0x1b7f	int3   	
  0x1b80	xor    	eax, eax
  0x1b82	ret    	
  0x1b83	int3   	
  === BLOCK LINK ===
    0x1b84
=== CODE BLOCK END ===

=== CODE BLOCK ADDRESS 0x1b84 ===
  0x1b84	int3   	
  0x1b85	int3   	
  0x1b86	int3   	
  0x1b87	int3   	
  0x1b88	int3   	
  === BLOCK LINK ===
    0x1b89
=== CODE BLOCK END ===

=== CODE BLOCK ADDRESS 0x1b89 ===
  0x1b89	int3   	
  0x1b8a	int3   	
  0x1b8b	int3   	
  0x1b8c	int3   	
  0x1b8d	int3   	
  === BLOCK LINK ===
    0x1b8e
=== CODE BLOCK END ===

=== CODE BLOCK ADDRESS 0x1b8e ===
  0x1b8e	int3   	
  0x1b8f	int3   	
  0x1b90	dec    	esp
  0x1b91	arpl   	word ptr [ecx + 0x3c], ax
  0x1b94	inc    	ebp
  === BLOCK LINK ===
    0x1b95
=== CODE BLOCK END ===

=== CODE BLOCK ADDRESS 0x1b95 ===
  0x1b95	xor    	ecx, ecx
  0x1b97	dec    	esp
  0x1b98	add    	eax, ecx
  0x1b9a	dec    	esp
  0x1b9b	mov    	edx, edx
  === BLOCK LINK ===
    0x1b9d
=== CODE BLOCK END ===

=== CODE BLOCK ADDRESS 0x1b9d ===
  0x1b9d	inc    	ecx
  0x1b9e	movzx  	eax, word ptr [eax + 0x14]
  0x1ba2	inc    	ebp
  0x1ba3	movzx  	ebx, word ptr [eax + 6]
  0x1ba7	dec    	eax
  === BLOCK LINK ===
    0x1ba8
=== CODE BLOCK END ===

=== CODE BLOCK ADDRESS 0x1ba8 ===
  0x1ba8	add    	eax, 0x18
  0x1bab	dec    	ecx
  0x1bac	add    	eax, eax
  0x1bae	inc    	ebp
  0x1baf	test   	ebx, ebx
  === BLOCK LINK ===
    0x1bb1
=== CODE BLOCK END ===

=== CODE BLOCK ADDRESS 0x1bb1 ===
  0x1bb1	je     	0x1bd1
  === BLOCK LINK ===
    0x1bb3
=== CODE BLOCK END ===

=== CODE BLOCK ADDRESS 0x1bb3 ===
  0x1bb3	mov    	edx, dword ptr [eax + 0xc]
  0x1bb6	dec    	esp
  0x1bb7	cmp    	edx, edx
  0x1bb9	jb     	0x1bc5
  === BLOCK LINK ===
    0x1bbb
=== CODE BLOCK END ===

=== CODE BLOCK ADDRESS 0x1bbb ===
  0x1bbb	mov    	ecx, dword ptr [eax + 8]
  0x1bbe	add    	ecx, edx
  0x1bc0	dec    	esp
  0x1bc1	cmp    	edx, ecx
  0x1bc3	jb     	0x1bd3
  === BLOCK LINK ===
    0x1bc5
=== CODE BLOCK END ===

=== CODE BLOCK ADDRESS 0x1bc5 ===
  0x1bc5	inc    	ecx
  0x1bc6	inc    	ecx
  0x1bc8	dec    	eax
  0x1bc9	add    	eax, 0x28
  0x1bcc	inc    	ebp
  === BLOCK LINK ===
    0x1bcd
=== CODE BLOCK END ===

=== CODE BLOCK ADDRESS 0x1bcd ===
  0x1bcd	cmp    	ecx, ebx
  0x1bcf	jb     	0x1bb3
  === BLOCK LINK ===
    0x1bd1
=== CODE BLOCK END ===

=== CODE BLOCK ADDRESS 0x1bd1 ===
  0x1bd1	xor    	eax, eax
  0x1bd3	ret    	
  0x1bd4	int3   	
  0x1bd5	int3   	
  0x1bd6	int3   	
  === BLOCK LINK ===
    0x1bd7
=== CODE BLOCK END ===

=== CODE BLOCK ADDRESS 0x1bd7 ===
  0x1bd7	int3   	
  0x1bd8	int3   	
  0x1bd9	int3   	
  0x1bda	int3   	
  0x1bdb	int3   	
  === BLOCK LINK ===
    0x1bdc
=== CODE BLOCK END ===

=== CODE BLOCK ADDRESS 0x1bdc ===
  0x1bdc	int3   	
  0x1bdd	int3   	
  0x1bde	int3   	
  0x1bdf	int3   	
  0x1be0	dec    	eax
  === BLOCK LINK ===
    0x1be1
=== CODE BLOCK END ===

=== CODE BLOCK ADDRESS 0x1be1 ===
  0x1be1	mov    	dword ptr [esp + 8], ebx
  0x1be5	push   	edi
  0x1be6	dec    	eax
  0x1be7	sub    	esp, 0x20
  0x1bea	dec    	eax
  === BLOCK LINK ===
    0x1beb
=== CODE BLOCK END ===

=== CODE BLOCK ADDRESS 0x1beb ===
  0x1beb	mov    	ebx, ecx
  0x1bed	dec    	eax
  0x1bee	lea    	edi, [0xffffe40c]
  0x1bf4	dec    	eax
  0x1bf5	mov    	ecx, edi
  === BLOCK LINK ===
    0x1bf7
=== CODE BLOCK END ===

=== CODE BLOCK ADDRESS 0x1bf7 ===
  0x1bf7	call   	0x1c40
  === BLOCK LINK ===
    0x1bfc
=== CODE BLOCK END ===

=== CODE BLOCK ADDRESS 0x1bfc ===
  0x1bfc	test   	eax, eax
  0x1bfe	je     	0x1c22
  === BLOCK LINK ===
    0x1c00
=== CODE BLOCK END ===

=== CODE BLOCK ADDRESS 0x1c00 ===
  0x1c00	dec    	eax
  0x1c01	sub    	ebx, edi
  0x1c03	dec    	eax
  0x1c04	mov    	edx, ebx
  0x1c06	dec    	eax
  === BLOCK LINK ===
    0x1c07
=== CODE BLOCK END ===

=== CODE BLOCK ADDRESS 0x1c07 ===
  0x1c07	mov    	ecx, edi
  0x1c09	call   	0x1b90
  === BLOCK LINK ===
    0x1c0e
=== CODE BLOCK END ===

=== CODE BLOCK ADDRESS 0x1c0e ===
  0x1c0e	dec    	eax
  0x1c0f	test   	eax, eax
  0x1c11	je     	0x1c22
  === BLOCK LINK ===
    0x1c13
=== CODE BLOCK END ===

=== CODE BLOCK ADDRESS 0x1c13 ===
  0x1c13	mov    	eax, dword ptr [eax + 0x24]
  0x1c16	shr    	eax, 0x1f
  0x1c19	not    	eax
  0x1c1b	and    	eax, 1
  0x1c1e	jmp    	0x1c22
  === BLOCK LINK ===
    0x1c20
=== CODE BLOCK END ===

=== CODE BLOCK ADDRESS 0x1c20 ===
  0x1c20	xor    	eax, eax
  0x1c22	dec    	eax
  0x1c23	mov    	ebx, dword ptr [esp + 0x30]
  0x1c27	dec    	eax
  0x1c28	add    	esp, 0x20
  === BLOCK LINK ===
    0x1c2b
=== CODE BLOCK END ===

=== CODE BLOCK ADDRESS 0x1c2b ===
  0x1c2b	pop    	edi
  0x1c2c	ret    	
  0x1c2d	int3   	
  0x1c2e	int3   	
  0x1c2f	int3   	
  === BLOCK LINK ===
    0x1c30
=== CODE BLOCK END ===

=== CODE BLOCK ADDRESS 0x11b6 ===
  0x11b6	mov    	edx, 0x2f
  0x11bb	inc    	ebp
  0x11bc	mov    	eax, edi
  === BLOCK LINK ===
    0x11be
=== CODE BLOCK END ===

=== CODE BLOCK ADDRESS 0x1c30 ===
  0x1c30	int3   	
  0x1c31	int3   	
  0x1c32	int3   	
  0x1c33	int3   	
  0x1c34	int3   	
  === BLOCK LINK ===
    0x1c35
=== CODE BLOCK END ===

=== CODE BLOCK ADDRESS 0x1c35 ===
  0x1c35	int3   	
  0x1c36	int3   	
  0x1c37	int3   	
  0x1c38	int3   	
  0x1c39	int3   	
  === BLOCK LINK ===
    0x1c3a
=== CODE BLOCK END ===

=== CODE BLOCK ADDRESS 0x1c3a ===
  0x1c3a	int3   	
  0x1c3b	int3   	
  0x1c3c	int3   	
  0x1c3d	int3   	
  0x1c3e	int3   	
  === BLOCK LINK ===
    0x1c3f
=== CODE BLOCK END ===

=== CODE BLOCK ADDRESS 0x1c3f ===
  0x1c3f	int3   	
  0x1c40	mov    	eax, 0x5a4d
  0x1c45	cmp    	word ptr [ecx], ax
  0x1c48	jne    	0x1c6a
  === BLOCK LINK ===
    0x1c4a
=== CODE BLOCK END ===

=== CODE BLOCK ADDRESS 0x1c4a ===
  0x1c4a	dec    	eax
  0x1c4b	arpl   	word ptr [ecx + 0x3c], ax
  0x1c4e	dec    	eax
  0x1c4f	add    	eax, ecx
  0x1c51	cmp    	dword ptr [eax], 0x4550
  === BLOCK LINK ===
    0x1c57
=== CODE BLOCK END ===

=== CODE BLOCK ADDRESS 0x1c57 ===
  0x1c57	jne    	0x1c6a
  === BLOCK LINK ===
    0x1c59
=== CODE BLOCK END ===

=== CODE BLOCK ADDRESS 0x1c59 ===
  0x1c59	mov    	ecx, 0x20b
  0x1c5e	cmp    	word ptr [eax + 0x18], cx
  0x1c62	jne    	0x1c6a
  === BLOCK LINK ===
    0x1c64
=== CODE BLOCK END ===

=== CODE BLOCK ADDRESS 0x1c64 ===
  0x1c64	mov    	eax, 1
  0x1c69	ret    	
  0x1c6a	xor    	eax, eax
  0x1c6c	ret    	
  0x1c6d	int3   	
  === BLOCK LINK ===
    0x1c6e
=== CODE BLOCK END ===

=== CODE BLOCK ADDRESS 0x11ae ===
=== CODE BLOCK END ===

=== CODE BLOCK ADDRESS 0x1c6e ===
  0x1c6e	int3   	
  0x1c6f	int3   	
  0x1c70	int3   	
  0x1c71	int3   	
  0x1c72	int3   	
  === BLOCK LINK ===
    0x1c73
=== CODE BLOCK END ===

=== CODE BLOCK ADDRESS 0x1c73 ===
  0x1c73	int3   	
  0x1c74	dec    	eax
  0x1c75	mov    	dword ptr [esp + 0x20], ebx
  0x1c79	push   	ebp
  0x1c7a	dec    	eax
  === BLOCK LINK ===
    0x1c7b
=== CODE BLOCK END ===

=== CODE BLOCK ADDRESS 0x1c7b ===
  0x1c7b	mov    	ebp, esp
  0x1c7d	dec    	eax
  0x1c7e	sub    	esp, 0x20
  0x1c81	dec    	eax
  0x1c82	and    	dword ptr [ebp + 0x18], 0
  === BLOCK LINK ===
    0x1c86
=== CODE BLOCK END ===

=== CODE BLOCK ADDRESS 0x1c86 ===
  0x1c86	dec    	eax
  0x1c87	mov    	ebx, 0x2ddfa232
  0x1c8c	cdq    	
  0x1c8d	sub    	eax, dword ptr [eax]
  0x1c8f	add    	byte ptr [eax - 0x75], cl
  === BLOCK LINK ===
    0x1c92
=== CODE BLOCK END ===

=== CODE BLOCK ADDRESS 0x1c92 ===
  0x1c92	add    	eax, 0x2371
  0x1c97	dec    	eax
  0x1c98	cmp    	eax, ebx
  0x1c9a	jne    	0x1d33
  === BLOCK LINK ===
    0x1ca0
=== CODE BLOCK END ===

=== CODE BLOCK ADDRESS 0x1ca0 ===
  0x1ca0	dec    	eax
  0x1ca1	lea    	ecx, [ebp + 0x18]
  0x1ca4	call   	dword ptr [0x14be]
  === BLOCK LINK ===
    0x1caa
=== CODE BLOCK END ===

=== CODE BLOCK ADDRESS 0x1caa ===
  0x1caa	dec    	eax
  0x1cab	mov    	eax, dword ptr [ebp + 0x18]
  0x1cae	dec    	eax
  0x1caf	mov    	dword ptr [ebp + 0x10], eax
  0x1cb2	call   	dword ptr [0x14c0]
  === BLOCK LINK ===
    0x1cb8
=== CODE BLOCK END ===

=== CODE BLOCK ADDRESS 0x1cb8 ===
  0x1cb8	mov    	eax, eax
  0x1cba	dec    	eax
  0x1cbb	xor    	dword ptr [ebp + 0x10], eax
  0x1cbe	call   	dword ptr [0x14ac]
  === BLOCK LINK ===
    0x1cc4
=== CODE BLOCK END ===

=== CODE BLOCK ADDRESS 0x1cc4 ===
  0x1cc4	mov    	eax, eax
  0x1cc6	dec    	eax
  0x1cc7	xor    	dword ptr [ebp + 0x10], eax
  0x1cca	call   	dword ptr [0x1490]
  === BLOCK LINK ===
    0x1cd0
=== CODE BLOCK END ===

=== CODE BLOCK ADDRESS 0x1cd0 ===
  0x1cd0	mov    	eax, eax
  0x1cd2	dec    	eax
  0x1cd3	shl    	eax, 0x18
  0x1cd6	dec    	eax
  0x1cd7	xor    	dword ptr [ebp + 0x10], eax
  === BLOCK LINK ===
    0x1cda
=== CODE BLOCK END ===

=== CODE BLOCK ADDRESS 0x1cda ===
  0x1cda	call   	dword ptr [0x1480]
  === BLOCK LINK ===
    0x1ce0
=== CODE BLOCK END ===

=== CODE BLOCK ADDRESS 0x1ce0 ===
  0x1ce0	mov    	eax, eax
  0x1ce2	dec    	eax
  0x1ce3	lea    	ecx, [ebp + 0x10]
  0x1ce6	dec    	eax
  0x1ce7	xor    	eax, dword ptr [ebp + 0x10]
  === BLOCK LINK ===
    0x1cea
=== CODE BLOCK END ===

=== CODE BLOCK ADDRESS 0x1cea ===
  0x1cea	dec    	eax
  0x1ceb	xor    	eax, ecx
  0x1ced	dec    	eax
  0x1cee	lea    	ecx, [ebp + 0x20]
  0x1cf1	dec    	eax
  === BLOCK LINK ===
    0x1cf2
=== CODE BLOCK END ===

=== CODE BLOCK ADDRESS 0x1cf2 ===
  0x1cf2	mov    	dword ptr [ebp + 0x10], eax
  0x1cf5	call   	dword ptr [0x1485]
  === BLOCK LINK ===
    0x1cfb
=== CODE BLOCK END ===

=== CODE BLOCK ADDRESS 0x1cfb ===
  0x1cfb	mov    	eax, dword ptr [ebp + 0x20]
  0x1cfe	dec    	eax
  0x1cff	mov    	ecx, 0xffffffff
  0x1d04	.byte  	0xff
  0x1d05	inc    	dword ptr [eax]
  === BLOCK LINK ===
    0x1d07
=== CODE BLOCK END ===

=== CODE BLOCK ADDRESS 0x1d07 ===
  0x1d07	add    	byte ptr [eax - 0x3f], cl
  0x1d0a	loopne  	0x1d2c
  === BLOCK LINK ===
    0x1d0c
=== CODE BLOCK END ===

=== CODE BLOCK ADDRESS 0x1d0c ===
  0x1d0c	dec    	eax
  0x1d0d	xor    	eax, dword ptr [ebp + 0x20]
  0x1d10	dec    	eax
  0x1d11	xor    	eax, dword ptr [ebp + 0x10]
  0x1d14	dec    	eax
  === BLOCK LINK ===
    0x1d15
=== CODE BLOCK END ===

=== CODE BLOCK ADDRESS 0x1d15 ===
  0x1d15	and    	eax, ecx
  0x1d17	dec    	eax
  0x1d18	mov    	ecx, eax
  0x1d1a	dec    	eax
  0x1d1b	cmp    	eax, ebx
  === BLOCK LINK ===
    0x1d1d
=== CODE BLOCK END ===

=== CODE BLOCK ADDRESS 0x1d1d ===
  0x1d1d	jne    	0x1d2c
  === BLOCK LINK ===
    0x1d1f
=== CODE BLOCK END ===

=== CODE BLOCK ADDRESS 0x1d1f ===
  0x1d1f	dec    	eax
  0x1d20	mov    	eax, 0x2ddfa233
  0x1d25	cdq    	
  0x1d26	sub    	eax, dword ptr [eax]
  0x1d28	add    	byte ptr [eax - 0x75], cl
  === BLOCK LINK ===
    0x1d2b
=== CODE BLOCK END ===

=== CODE BLOCK ADDRESS 0x1d2b ===
  0x1d2b	enter  	-0x76b8, 0xd
  0x1d2f	aad    	0x22
  0x1d31	add    	byte ptr [eax], al
  0x1d33	dec    	eax
  0x1d34	mov    	ebx, dword ptr [esp + 0x48]
  === BLOCK LINK ===
    0x1d38
=== CODE BLOCK END ===

=== CODE BLOCK ADDRESS 0x1d38 ===
  0x1d38	dec    	eax
  0x1d39	not    	eax
  0x1d3b	dec    	eax
  0x1d3c	mov    	dword ptr [0x22ce], eax
  0x1d42	dec    	eax
  === BLOCK LINK ===
    0x1d43
=== CODE BLOCK END ===

=== CODE BLOCK ADDRESS 0x1d43 ===
  0x1d43	add    	esp, 0x20
  0x1d46	pop    	ebp
  0x1d47	ret    	
  0x1d48	int3   	
  0x1d49	int3   	
  === BLOCK LINK ===
    0x1d4a
=== CODE BLOCK END ===

=== CODE BLOCK ADDRESS 0x1d4a ===
  0x1d4a	int3   	
  0x1d4b	int3   	
  0x1d4c	int3   	
  0x1d4d	int3   	
  0x1d4e	jmp    	dword ptr [0x14ac]
  === BLOCK LINK ===
    0x1d54
=== CODE BLOCK END ===

=== CODE BLOCK ADDRESS 0x1d54 ===
  0x1d54	int3   	
  0x1d55	int3   	
  0x1d56	int3   	
  0x1d57	int3   	
  0x1d58	int3   	
  === BLOCK LINK ===
    0x1d59
=== CODE BLOCK END ===

=== CODE BLOCK ADDRESS 0x1d59 ===
  0x1d59	int3   	
  0x1d5a	int3   	
  0x1d5b	int3   	
  0x1d5c	int3   	
  0x1d5d	int3   	
  === BLOCK LINK ===
    0x1d5e
=== CODE BLOCK END ===

=== CODE BLOCK ADDRESS 0x1d5e ===
  0x1d5e	int3   	
  0x1d5f	int3   	
  0x1d60	ret    	0
  0x1d63	int3   	
  0x1d64	int3   	
  === BLOCK LINK ===
    0x1d65
=== CODE BLOCK END ===

=== CODE BLOCK ADDRESS 0x1d65 ===
  0x1d65	int3   	
  0x1d66	int3   	
  0x1d67	int3   	
  0x1d68	int3   	
  0x1d69	int3   	
  === BLOCK LINK ===
    0x1d6a
=== CODE BLOCK END ===

=== CODE BLOCK ADDRESS 0x1d6a ===
  0x1d6a	int3   	
  0x1d6b	int3   	
  0x1d6c	inc    	eax
  0x1d6d	push   	ebx
  0x1d6e	dec    	eax
  === BLOCK LINK ===
    0x1d6f
=== CODE BLOCK END ===

=== CODE BLOCK ADDRESS 0x1d6f ===
  0x1d6f	sub    	esp, 0x20
  0x1d72	dec    	eax
  0x1d73	mov    	ebx, ecx
  0x1d75	xor    	ecx, ecx
  0x1d77	call   	dword ptr [0x1413]
  === BLOCK LINK ===
    0x1d7d
=== CODE BLOCK END ===

=== CODE BLOCK ADDRESS 0x1d7d ===
  0x1d7d	dec    	eax
  0x1d7e	mov    	ecx, ebx
  0x1d80	call   	dword ptr [0x142a]
  === BLOCK LINK ===
    0x1d86
=== CODE BLOCK END ===

=== CODE BLOCK ADDRESS 0x1d86 ===
  0x1d86	call   	dword ptr [0x13a4]
  === BLOCK LINK ===
    0x1d8c
=== CODE BLOCK END ===

=== CODE BLOCK ADDRESS 0x1d8c ===
  0x1d8c	dec    	eax
  0x1d8d	mov    	ecx, eax
  0x1d8f	mov    	edx, 0xc0000409
  0x1d94	dec    	eax
  0x1d95	add    	esp, 0x20
  === BLOCK LINK ===
    0x1d98
=== CODE BLOCK END ===

=== CODE BLOCK ADDRESS 0x1d98 ===
  0x1d98	pop    	ebx
  0x1d99	dec    	eax
  0x1d9a	jmp    	dword ptr [0x1398]
  === BLOCK LINK ===
    0x1da0
=== CODE BLOCK END ===

=== CODE BLOCK ADDRESS 0x1da0 ===
  0x1da0	int3   	
  0x1da1	int3   	
  0x1da2	int3   	
  0x1da3	int3   	
  0x1da4	int3   	
  === BLOCK LINK ===
    0x1da5
=== CODE BLOCK END ===

=== CODE BLOCK ADDRESS 0x1da5 ===
  0x1da5	int3   	
  0x1da6	int3   	
  0x1da7	int3   	
  0x1da8	int3   	
  0x1da9	int3   	
  === BLOCK LINK ===
    0x1daa
=== CODE BLOCK END ===

=== CODE BLOCK ADDRESS 0x1daa ===
  0x1daa	int3   	
  0x1dab	int3   	
  0x1dac	int3   	
  0x1dad	int3   	
  0x1dae	int3   	
  === BLOCK LINK ===
    0x1daf
=== CODE BLOCK END ===

=== CODE BLOCK ADDRESS 0x1daf ===
  0x1daf	int3   	
  0x1db0	dec    	eax
  0x1db1	mov    	dword ptr [esp + 8], ecx
  0x1db5	dec    	eax
  0x1db6	sub    	esp, 0x88
  === BLOCK LINK ===
    0x1dbc
=== CODE BLOCK END ===

=== CODE BLOCK ADDRESS 0x1dbc ===
  0x1dbc	dec    	eax
  0x1dbd	lea    	ecx, [0x233d]
  0x1dc3	call   	dword ptr [0x138f]
  === BLOCK LINK ===
    0x1dc9
=== CODE BLOCK END ===

=== CODE BLOCK ADDRESS 0x1dc9 ===
  0x1dc9	dec    	eax
  0x1dca	mov    	eax, dword ptr [0x2428]
  0x1dd0	dec    	eax
  0x1dd1	mov    	dword ptr [esp + 0x48], eax
  0x1dd5	inc    	ebp
  === BLOCK LINK ===
    0x1dd6
=== CODE BLOCK END ===

=== CODE BLOCK ADDRESS 0x1dd6 ===
  0x1dd6	xor    	eax, eax
  0x1dd8	dec    	eax
  0x1dd9	lea    	edx, [esp + 0x50]
  0x1ddd	dec    	eax
  0x1dde	mov    	ecx, dword ptr [esp + 0x48]
  === BLOCK LINK ===
    0x1de2
=== CODE BLOCK END ===

=== CODE BLOCK ADDRESS 0x1de2 ===
  0x1de2	call   	dword ptr [0x13e8]
  === BLOCK LINK ===
    0x1de8
=== CODE BLOCK END ===

=== CODE BLOCK ADDRESS 0x1de8 ===
  0x1de8	dec    	eax
  0x1de9	mov    	dword ptr [esp + 0x40], eax
  0x1ded	dec    	eax
  0x1dee	cmp    	dword ptr [esp + 0x40], 0
  0x1df3	je     	0x1e37
  === BLOCK LINK ===
    0x1df5
=== CODE BLOCK END ===

=== CODE BLOCK ADDRESS 0x1df5 ===
  0x1df5	dec    	eax
  0x1df6	mov    	dword ptr [esp + 0x38], 0
  0x1dfe	dec    	eax
  0x1dff	lea    	eax, [esp + 0x58]
  0x1e03	dec    	eax
  === BLOCK LINK ===
    0x1e04
=== CODE BLOCK END ===

=== CODE BLOCK ADDRESS 0x1e04 ===
  0x1e04	mov    	dword ptr [esp + 0x30], eax
  0x1e08	dec    	eax
  0x1e09	lea    	eax, [esp + 0x60]
  0x1e0d	dec    	eax
  0x1e0e	mov    	dword ptr [esp + 0x28], eax
  === BLOCK LINK ===
    0x1e12
=== CODE BLOCK END ===

=== CODE BLOCK ADDRESS 0x1e12 ===
  0x1e12	dec    	eax
  0x1e13	lea    	eax, [0x22e7]
  0x1e19	dec    	eax
  0x1e1a	mov    	dword ptr [esp + 0x20], eax
  0x1e1e	dec    	esp
  === BLOCK LINK ===
    0x1e1f
=== CODE BLOCK END ===

=== CODE BLOCK ADDRESS 0x1e1f ===
  0x1e1f	mov    	ecx, dword ptr [esp + 0x40]
  0x1e23	dec    	esp
  0x1e24	mov    	eax, dword ptr [esp + 0x48]
  0x1e28	dec    	eax
  0x1e29	mov    	edx, dword ptr [esp + 0x50]
  === BLOCK LINK ===
    0x1e2d
=== CODE BLOCK END ===

=== CODE BLOCK ADDRESS 0x1e2d ===
  0x1e2d	xor    	ecx, ecx
  0x1e2f	call   	dword ptr [0x1373]
  === BLOCK LINK ===
    0x1e35
=== CODE BLOCK END ===

=== CODE BLOCK ADDRESS 0x1e35 ===
  0x1e35	jmp    	0x1e5a
  === BLOCK LINK ===
    0x1e37
=== CODE BLOCK END ===

=== CODE BLOCK ADDRESS 0x1e37 ===
  0x1e37	dec    	eax
  0x1e38	mov    	eax, dword ptr [0x235a]
  0x1e3e	dec    	eax
  0x1e3f	mov    	eax, dword ptr [eax]
  0x1e41	dec    	eax
  === BLOCK LINK ===
    0x1e42
=== CODE BLOCK END ===

=== CODE BLOCK ADDRESS 0x1e42 ===
  0x1e42	mov    	dword ptr [0x23b0], eax
  0x1e48	dec    	eax
  0x1e49	mov    	eax, dword ptr [0x2349]
  0x1e4f	dec    	eax
  0x1e50	add    	eax, 8
  === BLOCK LINK ===
    0x1e53
=== CODE BLOCK END ===

=== CODE BLOCK ADDRESS 0x1e53 ===
  0x1e53	dec    	eax
  0x1e54	mov    	dword ptr [0x233e], eax
  0x1e5a	dec    	eax
  0x1e5b	mov    	eax, dword ptr [0x2397]
  0x1e61	dec    	eax
  === BLOCK LINK ===
    0x1e62
=== CODE BLOCK END ===

=== CODE BLOCK ADDRESS 0x1e62 ===
  0x1e62	mov    	dword ptr [0x2208], eax
  0x1e68	dec    	eax
  0x1e69	mov    	eax, dword ptr [esp + 0x90]
  0x1e70	dec    	eax
  0x1e71	mov    	dword ptr [0x2309], eax
  === BLOCK LINK ===
    0x1e77
=== CODE BLOCK END ===

=== CODE BLOCK ADDRESS 0x1e77 ===
  0x1e77	mov    	dword ptr [0x21df], 0xc0000409
  0x1e81	mov    	dword ptr [0x21d9], 1
  0x1e8b	mov    	dword ptr [0x21e3], 3
  0x1e95	mov    	eax, 8
  0x1e9a	dec    	eax
  === BLOCK LINK ===
    0x1e9b
=== CODE BLOCK END ===

=== CODE BLOCK ADDRESS 0x1e9b ===
  0x1e9b	imul   	eax, eax, 0
  0x1e9e	dec    	eax
  0x1e9f	lea    	ecx, [0x21db]
  0x1ea5	dec    	eax
  0x1ea6	mov    	dword ptr [ecx + eax], 2
  === BLOCK LINK ===
    0x1ead
=== CODE BLOCK END ===

=== CODE BLOCK ADDRESS 0x1ead ===
  0x1ead	mov    	eax, 8
  0x1eb2	dec    	eax
  0x1eb3	imul   	eax, eax, 1
  0x1eb6	dec    	eax
  0x1eb7	lea    	ecx, [0x21c3]
  === BLOCK LINK ===
    0x1ebd
=== CODE BLOCK END ===

=== CODE BLOCK ADDRESS 0x1ebd ===
  0x1ebd	dec    	eax
  0x1ebe	mov    	edx, dword ptr [0x2144]
  0x1ec4	dec    	eax
  0x1ec5	mov    	dword ptr [ecx + eax], edx
  0x1ec8	mov    	eax, 8
  === BLOCK LINK ===
    0x1ecd
=== CODE BLOCK END ===

=== CODE BLOCK ADDRESS 0x1ecd ===
  0x1ecd	dec    	eax
  0x1ece	imul   	eax, eax, 2
  0x1ed1	dec    	eax
  0x1ed2	lea    	ecx, [0x21a8]
  0x1ed8	dec    	eax
  === BLOCK LINK ===
    0x1ed9
=== CODE BLOCK END ===

=== CODE BLOCK ADDRESS 0x1ed9 ===
  0x1ed9	mov    	edx, dword ptr [0x2131]
  0x1edf	dec    	eax
  0x1ee0	mov    	dword ptr [ecx + eax], edx
  0x1ee3	mov    	eax, 8
  0x1ee8	dec    	eax
  === BLOCK LINK ===
    0x1ee9
=== CODE BLOCK END ===

=== CODE BLOCK ADDRESS 0x1ee9 ===
  0x1ee9	imul   	eax, eax, 0
  0x1eec	dec    	eax
  0x1eed	mov    	ecx, dword ptr [0x2115]
  0x1ef3	dec    	eax
  0x1ef4	mov    	dword ptr [esp + eax + 0x68], ecx
  === BLOCK LINK ===
    0x1ef8
=== CODE BLOCK END ===

=== CODE BLOCK ADDRESS 0x1ef8 ===
  0x1ef8	mov    	eax, 8
  0x1efd	dec    	eax
  0x1efe	imul   	eax, eax, 1
  0x1f01	dec    	eax
  0x1f02	mov    	ecx, dword ptr [0x2108]
  === BLOCK LINK ===
    0x1f08
=== CODE BLOCK END ===

=== CODE BLOCK ADDRESS 0x1f08 ===
  0x1f08	dec    	eax
  0x1f09	mov    	dword ptr [esp + eax + 0x68], ecx
  0x1f0d	dec    	eax
  0x1f0e	lea    	ecx, [0x10ec]
  0x1f14	call   	0x1d6c
  === BLOCK LINK ===
    0x1f19
=== CODE BLOCK END ===

=== CODE BLOCK ADDRESS 0x1f19 ===
  0x1f19	dec    	eax
  0x1f1a	add    	esp, 0x88
  0x1f20	ret    	
  0x1f21	int3   	
  0x1f22	int3   	
  === BLOCK LINK ===
    0x1f23
=== CODE BLOCK END ===

=== CODE BLOCK ADDRESS 0x1f23 ===
  0x1f23	int3   	
  0x1f24	int3   	
  0x1f25	int3   	
  0x1f26	int3   	
  0x1f27	int3   	
  === BLOCK LINK ===
    0x1f28
=== CODE BLOCK END ===

=== CODE BLOCK ADDRESS 0x1f28 ===
  0x1f28	int3   	
  0x1f29	int3   	
  0x1f2a	int3   	
  0x1f2b	int3   	
  0x1f2c	int3   	
  === BLOCK LINK ===
    0x1f2d
=== CODE BLOCK END ===

=== CODE BLOCK ADDRESS 0x1f2d ===
  0x1f2d	int3   	
  0x1f2e	int3   	
  0x1f2f	int3   	
  0x1f30	int3   	
  0x1f31	int3   	
  === BLOCK LINK ===
    0x1f32
=== CODE BLOCK END ===

=== CODE BLOCK ADDRESS 0x1f32 ===
  0x1f32	int3   	
  0x1f33	int3   	
  0x1f34	int3   	
  0x1f35	int3   	
  0x1f36	dec    	eax
  === BLOCK LINK ===
    0x1f37
=== CODE BLOCK END ===

=== CODE BLOCK ADDRESS 0x1f37 ===
  0x1f37	lea    	eax, [0x40c3]
  0x1f3d	jmp    	0x1f42
  === BLOCK LINK ===
    0x1f42
=== CODE BLOCK END ===

=== CODE BLOCK ADDRESS 0x1f42 ===
  0x1f42	dec    	eax
  0x1f43	mov    	dword ptr [esp + 8], ecx
  0x1f47	dec    	eax
  0x1f48	mov    	dword ptr [esp + 0x10], edx
  0x1f4c	dec    	esp
  === BLOCK LINK ===
    0x1f4d
=== CODE BLOCK END ===

=== CODE BLOCK ADDRESS 0x1f4d ===
  0x1f4d	mov    	dword ptr [esp + 0x18], eax
  0x1f51	dec    	esp
  0x1f52	mov    	dword ptr [esp + 0x20], ecx
  0x1f56	dec    	eax
  0x1f57	sub    	esp, 0x68
  === BLOCK LINK ===
    0x1f5a
=== CODE BLOCK END ===

=== CODE BLOCK ADDRESS 0x1f5a ===
  0x1f5a	movdqa  	xmmword ptr [esp + 0x20], xmm0
  0x1f60	movdqa  	xmmword ptr [esp + 0x30], xmm1
  0x1f66	movdqa  	xmmword ptr [esp + 0x40], xmm2
  0x1f6c	movdqa  	xmmword ptr [esp + 0x50], xmm3
  0x1f72	dec    	eax
  === BLOCK LINK ===
    0x1f73
=== CODE BLOCK END ===

=== CODE BLOCK ADDRESS 0x1f73 ===
  0x1f73	mov    	edx, eax
  0x1f75	dec    	eax
  0x1f76	lea    	ecx, [0x18d8]
  0x1f7c	call   	0x1420
  === BLOCK LINK ===
    0x1f81
=== CODE BLOCK END ===

=== CODE BLOCK ADDRESS 0x1f81 ===
  0x1f81	movdqa  	xmm0, xmmword ptr [esp + 0x20]
  0x1f87	movdqa  	xmm1, xmmword ptr [esp + 0x30]
  0x1f8d	movdqa  	xmm2, xmmword ptr [esp + 0x40]
  0x1f93	movdqa  	xmm3, xmmword ptr [esp + 0x50]
  0x1f99	dec    	eax
  === BLOCK LINK ===
    0x1f9a
=== CODE BLOCK END ===

=== CODE BLOCK ADDRESS 0x1f9a ===
  0x1f9a	mov    	ecx, dword ptr [esp + 0x70]
  0x1f9e	dec    	eax
  0x1f9f	mov    	edx, dword ptr [esp + 0x78]
  0x1fa3	dec    	esp
  0x1fa4	mov    	eax, dword ptr [esp + 0x80]
  === BLOCK LINK ===
    0x1fab
=== CODE BLOCK END ===

=== CODE BLOCK ADDRESS 0x1fab ===
  0x1fab	dec    	esp
  0x1fac	mov    	ecx, dword ptr [esp + 0x88]
  0x1fb3	dec    	eax
  0x1fb4	add    	esp, 0x68
  0x1fb7	jmp    	0x1fb9
  === BLOCK LINK ===
    0x1fb9
=== CODE BLOCK END ===

=== CODE BLOCK ADDRESS 0x1fb9 ===
  0x1fb9	jmp    	eax
  === BLOCK LINK ===
    0x1fbb
=== CODE BLOCK END ===

=== CODE BLOCK ADDRESS 0x1fbb ===
  0x1fbb	int3   	
  0x1fbc	int3   	
  0x1fbd	int3   	
  0x1fbe	int3   	
  0x1fbf	int3   	
  === BLOCK LINK ===
    0x1fc0
=== CODE BLOCK END ===

=== CODE BLOCK ADDRESS 0x1fc0 ===
  0x1fc0	int3   	
  0x1fc1	jmp    	dword ptr [0x11c1]
  === BLOCK LINK ===
    0x1fc7
=== CODE BLOCK END ===

=== CODE BLOCK ADDRESS 0x1fc7 ===
  0x1fc7	int3   	
  0x1fc8	int3   	
  0x1fc9	int3   	
  0x1fca	int3   	
  0x1fcb	int3   	
  === BLOCK LINK ===
    0x1fcc
=== CODE BLOCK END ===

=== CODE BLOCK ADDRESS 0x1fcc ===
  0x1fcc	int3   	
  0x1fcd	int3   	
  0x1fce	int3   	
  0x1fcf	int3   	
  0x1fd0	dec    	eax
  === BLOCK LINK ===
    0x1fd1
=== CODE BLOCK END ===

=== CODE BLOCK ADDRESS 0x1fd1 ===
  0x1fd1	mov    	eax, esp
  0x1fd3	dec    	eax
  0x1fd4	mov    	dword ptr [eax + 8], ebx
  0x1fd7	dec    	eax
  0x1fd8	mov    	dword ptr [eax + 0x10], ebp
  === BLOCK LINK ===
    0x1fdb
=== CODE BLOCK END ===

=== CODE BLOCK ADDRESS 0x1fdb ===
  0x1fdb	dec    	eax
  0x1fdc	mov    	dword ptr [eax + 0x18], esi
  0x1fdf	dec    	eax
  0x1fe0	mov    	dword ptr [eax + 0x20], edi
  0x1fe3	inc    	ecx
  === BLOCK LINK ===
    0x1fe4
=== CODE BLOCK END ===

=== CODE BLOCK ADDRESS 0x1fe4 ===
  0x1fe4	push   	esi
  0x1fe5	dec    	eax
  0x1fe6	sub    	esp, 0x20
  0x1fe9	dec    	ebp
  0x1fea	mov    	edx, dword ptr [ecx + 0x38]
  === BLOCK LINK ===
    0x1fed
=== CODE BLOCK END ===

=== CODE BLOCK ADDRESS 0x1fed ===
  0x1fed	dec    	eax
  0x1fee	mov    	esi, edx
  0x1ff0	dec    	ebp
  0x1ff1	mov    	esi, eax
  0x1ff3	dec    	eax
  === BLOCK LINK ===
    0x1ff4
=== CODE BLOCK END ===

=== CODE BLOCK ADDRESS 0x1ff4 ===
  0x1ff4	mov    	ebp, ecx
  0x1ff6	dec    	ecx
  0x1ff7	mov    	edx, ecx
  0x1ff9	dec    	eax
  0x1ffa	mov    	ecx, esi
  === BLOCK LINK ===
    0x1ffc
=== CODE BLOCK END ===

=== CODE BLOCK ADDRESS 0x1ffc ===
  0x1ffc	dec    	ecx
  0x1ffd	mov    	edi, ecx
  0x1fff	inc    	ecx
  0x2000	mov    	ebx, dword ptr [edx]
  0x2002	dec    	eax
  === BLOCK LINK ===
    0x2003
=== CODE BLOCK END ===

=== CODE BLOCK ADDRESS 0x2003 ===
  0x2003	shl    	ebx, 4
  0x2006	dec    	ecx
  0x2007	add    	ebx, edx
  0x2009	dec    	esp
  0x200a	lea    	eax, [ebx + 4]
  === BLOCK LINK ===
    0x200d
=== CODE BLOCK END ===

=== CODE BLOCK ADDRESS 0x200d ===
  0x200d	call   	0x2068
  === BLOCK LINK ===
    0x2012
=== CODE BLOCK END ===

=== CODE BLOCK ADDRESS 0x2012 ===
  0x2012	mov    	eax, dword ptr [ebp + 4]
  0x2015	and    	al, 0x66
  0x2017	neg    	al
  0x2019	mov    	eax, 1
  0x201e	sbb    	edx, edx
  === BLOCK LINK ===
    0x2020
=== CODE BLOCK END ===

=== CODE BLOCK ADDRESS 0x2020 ===
  0x2020	neg    	edx
  0x2022	add    	edx, eax
  0x2024	test   	dword ptr [ebx + 4], edx
  0x2027	je     	0x203b
  === BLOCK LINK ===
    0x2029
=== CODE BLOCK END ===

=== CODE BLOCK ADDRESS 0x2029 ===
  0x2029	dec    	esp
  0x202a	mov    	ecx, edi
  0x202c	dec    	ebp
  0x202d	mov    	eax, esi
  0x202f	dec    	eax
  === BLOCK LINK ===
    0x2030
=== CODE BLOCK END ===

=== CODE BLOCK ADDRESS 0x2030 ===
  0x2030	mov    	edx, esi
  0x2032	dec    	eax
  0x2033	mov    	ecx, ebp
  0x2035	call   	dword ptr [0x1215]
  === BLOCK LINK ===
    0x203b
=== CODE BLOCK END ===

=== CODE BLOCK ADDRESS 0x203b ===
  0x203b	dec    	eax
  0x203c	mov    	ebx, dword ptr [esp + 0x30]
  0x2040	dec    	eax
  0x2041	mov    	ebp, dword ptr [esp + 0x38]
  0x2045	dec    	eax
  === BLOCK LINK ===
    0x2046
=== CODE BLOCK END ===

=== CODE BLOCK ADDRESS 0x2046 ===
  0x2046	mov    	esi, dword ptr [esp + 0x40]
  0x204a	dec    	eax
  0x204b	mov    	edi, dword ptr [esp + 0x48]
  0x204f	dec    	eax
  0x2050	add    	esp, 0x20
  === BLOCK LINK ===
    0x2053
=== CODE BLOCK END ===

=== CODE BLOCK ADDRESS 0x2053 ===
  0x2053	inc    	ecx
  0x2054	pop    	esi
  0x2055	ret    	
  0x2056	int3   	
  0x2057	int3   	
  === BLOCK LINK ===
    0x2058
=== CODE BLOCK END ===

=== CODE BLOCK ADDRESS 0x2058 ===
  0x2058	int3   	
  0x2059	int3   	
  0x205a	int3   	
  0x205b	int3   	
  0x205c	jmp    	dword ptr [0x11fe]
  === BLOCK LINK ===
    0x2062
=== CODE BLOCK END ===

=== CODE BLOCK ADDRESS 0x2062 ===
  0x2062	int3   	
  0x2063	int3   	
  0x2064	int3   	
  0x2065	int3   	
  0x2066	int3   	
  === BLOCK LINK ===
    0x2067
=== CODE BLOCK END ===

=== CODE BLOCK ADDRESS 0x2067 ===
  0x2067	int3   	
  0x2068	inc    	eax
  0x2069	push   	ebx
  0x206a	inc    	ebp
  0x206b	mov    	ebx, dword ptr [eax]
  === BLOCK LINK ===
    0x206d
=== CODE BLOCK END ===

=== CODE BLOCK ADDRESS 0x206d ===
  0x206d	dec    	eax
  0x206e	mov    	ebx, edx
  0x2070	inc    	ecx
  0x2071	and    	ebx, 0xfffffff8
  0x2074	dec    	esp
  === BLOCK LINK ===
    0x2075
=== CODE BLOCK END ===

=== CODE BLOCK ADDRESS 0x2075 ===
  0x2075	mov    	ecx, ecx
  0x2077	inc    	ecx
  0x2078	test   	byte ptr [eax], 4
  0x207b	dec    	esp
  0x207c	mov    	edx, ecx
  === BLOCK LINK ===
    0x207e
=== CODE BLOCK END ===

=== CODE BLOCK ADDRESS 0x207e ===
  0x207e	je     	0x2093
  === BLOCK LINK ===
    0x2080
=== CODE BLOCK END ===

=== CODE BLOCK ADDRESS 0x2080 ===
  0x2080	inc    	ecx
  0x2081	mov    	eax, dword ptr [eax + 8]
  0x2084	dec    	ebp
  0x2085	arpl   	word ptr [eax + 4], dx
  0x2088	neg    	eax
  === BLOCK LINK ===
    0x208a
=== CODE BLOCK END ===

=== CODE BLOCK ADDRESS 0x208a ===
  0x208a	dec    	esp
  0x208b	add    	edx, ecx
  0x208d	dec    	eax
  0x208e	arpl   	ax, cx
  0x2090	dec    	esp
  === BLOCK LINK ===
    0x2091
=== CODE BLOCK END ===

=== CODE BLOCK ADDRESS 0x2091 ===
  0x2091	and    	edx, ecx
  0x2093	dec    	ecx
  0x2094	arpl   	bx, ax
  0x2096	dec    	edx
  0x2097	mov    	edx, dword ptr [eax + edx]
  === BLOCK LINK ===
    0x209a
=== CODE BLOCK END ===

=== CODE BLOCK ADDRESS 0x209a ===
  0x209a	dec    	eax
  0x209b	mov    	eax, dword ptr [ebx + 0x10]
  0x209e	mov    	ecx, dword ptr [eax + 8]
  0x20a1	dec    	eax
  0x20a2	mov    	eax, dword ptr [ebx + 8]
  === BLOCK LINK ===
    0x20a5
=== CODE BLOCK END ===

=== CODE BLOCK ADDRESS 0x20a5 ===
  0x20a5	test   	byte ptr [ecx + eax + 3], 0xf
  0x20aa	je     	0x20b7
  === BLOCK LINK ===
    0x20ac
=== CODE BLOCK END ===

=== CODE BLOCK ADDRESS 0x20ac ===
  0x20ac	movzx  	eax, byte ptr [ecx + eax + 3]
  0x20b1	and    	eax, 0xfffffff0
  0x20b4	dec    	esp
  0x20b5	add    	ecx, eax
  0x20b7	dec    	esp
  === BLOCK LINK ===
    0x20b8
=== CODE BLOCK END ===

=== CODE BLOCK ADDRESS 0x20b8 ===
  0x20b8	xor    	ecx, edx
  0x20ba	dec    	ecx
  0x20bb	mov    	ecx, ecx
  0x20bd	pop    	ebx
  0x20be	jmp    	0x1a30
  === BLOCK LINK ===
    0x20c3
=== CODE BLOCK END ===

=== CODE BLOCK ADDRESS 0x20c3 ===
  0x20c3	int3   	
  0x20c4	int3   	
  0x20c5	int3   	
  0x20c6	int3   	
  0x20c7	int3   	
  === BLOCK LINK ===
    0x20c8
=== CODE BLOCK END ===

=== CODE BLOCK ADDRESS 0x20c8 ===
  0x20c8	int3   	
  0x20c9	int3   	
  0x20ca	int3   	
  0x20cb	int3   	
  0x20cc	int3   	
  === BLOCK LINK ===
    0x20cd
=== CODE BLOCK END ===

=== CODE BLOCK ADDRESS 0x20cd ===
  0x20cd	int3   	
  0x20ce	int3   	
  0x20cf	int3   	
  0x20d0	int3   	
  0x20d1	int3   	
  === BLOCK LINK ===
    0x20d2
=== CODE BLOCK END ===

=== CODE BLOCK ADDRESS 0x20d2 ===
  0x20d2	int3   	
  0x20d3	int3   	
  0x20d4	int3   	
  0x20d5	int3   	
  0x20d6	nop    	word ptr [eax + eax]
  === BLOCK LINK ===
    0x20e0
=== CODE BLOCK END ===

=== CODE BLOCK ADDRESS 0x20e0 ===
  0x20e0	jmp    	eax
  === BLOCK LINK ===
    0x20e2
=== CODE BLOCK END ===

=== CODE BLOCK ADDRESS 0x20e2 ===
  0x20e2	int3   	
  0x20e3	int3   	
  0x20e4	int3   	
  0x20e5	int3   	
  0x20e6	int3   	
  === BLOCK LINK ===
    0x20e7
=== CODE BLOCK END ===

=== CODE BLOCK ADDRESS 0x20e7 ===
  0x20e7	int3   	
  0x20e8	int3   	
  0x20e9	int3   	
  0x20ea	int3   	
  0x20eb	int3   	
  === BLOCK LINK ===
    0x20ec
=== CODE BLOCK END ===

=== CODE BLOCK ADDRESS 0x20ec ===
  0x20ec	int3   	
  0x20ed	int3   	
  0x20ee	int3   	
  0x20ef	int3   	
  0x20f0	inc    	eax
  === BLOCK LINK ===
    0x20f1
=== CODE BLOCK END ===

=== CODE BLOCK ADDRESS 0x20f1 ===
  0x20f1	push   	ebp
  0x20f2	dec    	eax
  0x20f3	sub    	esp, 0x20
  0x20f6	dec    	eax
  0x20f7	mov    	ebp, edx
  === BLOCK LINK ===
    0x20f9
=== CODE BLOCK END ===

=== CODE BLOCK ADDRESS 0x20f9 ===
  0x20f9	dec    	eax
  0x20fa	mov    	eax, dword ptr [ecx]
  0x20fc	dec    	eax
  0x20fd	mov    	edx, ecx
  0x20ff	mov    	ecx, dword ptr [eax]
  === BLOCK LINK ===
    0x2101
=== CODE BLOCK END ===

=== CODE BLOCK ADDRESS 0x2101 ===
  0x2101	call   	0x1abe
  === BLOCK LINK ===
    0x2106
=== CODE BLOCK END ===

=== CODE BLOCK ADDRESS 0x2106 ===
  0x2106	nop    	
  0x2107	dec    	eax
  0x2108	add    	esp, 0x20
  0x210b	pop    	ebp
  0x210c	ret    	
  === BLOCK LINK ===
    0x210d
=== CODE BLOCK END ===

=== CODE BLOCK ADDRESS 0x210d ===
  0x210d	int3   	
  0x210e	int3   	
  0x210f	int3   	
  0x2110	int3   	
  0x2111	int3   	
  === BLOCK LINK ===
    0x2112
=== CODE BLOCK END ===

=== CODE BLOCK ADDRESS 0x2112 ===
  0x2112	int3   	
  0x2113	int3   	
  0x2114	int3   	
  0x2115	int3   	
  0x2116	int3   	
  === BLOCK LINK ===
    0x2117
=== CODE BLOCK END ===

=== CODE BLOCK ADDRESS 0x2117 ===
  0x2117	int3   	
  0x2118	int3   	
  0x2119	int3   	
  0x211a	int3   	
  0x211b	int3   	
  === BLOCK LINK ===
    0x211c
=== CODE BLOCK END ===

=== CODE BLOCK ADDRESS 0x211c ===
  0x211c	int3   	
  0x211d	int3   	
  0x211e	int3   	
  0x211f	int3   	
  0x2120	inc    	eax
  === BLOCK LINK ===
    0x2121
=== CODE BLOCK END ===

=== CODE BLOCK ADDRESS 0x2121 ===
  0x2121	push   	ebp
  0x2122	dec    	eax
  0x2123	sub    	esp, 0x20
  0x2126	dec    	eax
  0x2127	mov    	ebp, edx
  === BLOCK LINK ===
    0x2129
=== CODE BLOCK END ===

=== CODE BLOCK ADDRESS 0x2129 ===
  0x2129	dec    	eax
  0x212a	mov    	eax, dword ptr [ecx]
  0x212c	xor    	ecx, ecx
  0x212e	cmp    	dword ptr [eax], 0xc0000005
  0x2134	sete   	cl
  === BLOCK LINK ===
    0x2137
=== CODE BLOCK END ===

=== CODE BLOCK ADDRESS 0x2137 ===
  0x2137	mov    	eax, ecx
  0x2139	dec    	eax
  0x213a	add    	esp, 0x20
  0x213d	pop    	ebp
  0x213e	ret    	
  === BLOCK LINK ===
    0x213f
=== CODE BLOCK END ===

=== CODE BLOCK ADDRESS 0x213f ===
  0x213f	int3   	
  0x2140	add    	byte ptr [eax], al
  0x2142	add    	byte ptr [eax], al
  0x2144	add    	byte ptr [eax], al
  0x2146	add    	byte ptr [eax], al
  === BLOCK LINK ===
    0x2148
=== CODE BLOCK END ===

=== CODE BLOCK ADDRESS 0x2148 ===
  0x2148	add    	byte ptr [eax], al
  0x214a	add    	byte ptr [eax], al
  0x214c	add    	byte ptr [eax], al
  0x214e	add    	byte ptr [eax], al
  0x2150	add    	byte ptr [eax], al
  === BLOCK LINK ===
    0x2152
=== CODE BLOCK END ===

=== CODE BLOCK ADDRESS 0x2152 ===
  0x2152	add    	byte ptr [eax], al
  0x2154	add    	byte ptr [eax], al
  0x2156	add    	byte ptr [eax], al
  0x2158	add    	byte ptr [eax], al
  0x215a	add    	byte ptr [eax], al
  === BLOCK LINK ===
    0x215c
=== CODE BLOCK END ===

=== CODE BLOCK ADDRESS 0x215c ===
  0x215c	add    	byte ptr [eax], al
  0x215e	add    	byte ptr [eax], al
  0x2160	add    	byte ptr [eax], al
  0x2162	add    	byte ptr [eax], al
  0x2164	add    	byte ptr [eax], al
  === BLOCK LINK ===
    0x2166
=== CODE BLOCK END ===

=== CODE BLOCK ADDRESS 0x2166 ===
  0x2166	add    	byte ptr [eax], al
  0x2168	add    	byte ptr [eax], al
  0x216a	add    	byte ptr [eax], al
  0x216c	add    	byte ptr [eax], al
  0x216e	add    	byte ptr [eax], al
  === BLOCK LINK ===
    0x2170
=== CODE BLOCK END ===

=== CODE BLOCK ADDRESS 0x2170 ===
  0x2170	add    	byte ptr [eax], al
  0x2172	add    	byte ptr [eax], al
  0x2174	add    	byte ptr [eax], al
  0x2176	add    	byte ptr [eax], al
  0x2178	add    	byte ptr [eax], al
  === BLOCK LINK ===
    0x217a
=== CODE BLOCK END ===

=== CODE BLOCK ADDRESS 0x217a ===
  0x217a	add    	byte ptr [eax], al
  0x217c	add    	byte ptr [eax], al
  0x217e	add    	byte ptr [eax], al
  0x2180	add    	byte ptr [eax], al
  0x2182	add    	byte ptr [eax], al
  === BLOCK LINK ===
    0x2184
=== CODE BLOCK END ===

=== CODE BLOCK ADDRESS 0x2184 ===
  0x2184	add    	byte ptr [eax], al
  0x2186	add    	byte ptr [eax], al
  0x2188	add    	byte ptr [eax], al
  0x218a	add    	byte ptr [eax], al
  0x218c	add    	byte ptr [eax], al
  === BLOCK LINK ===
    0x218e
=== CODE BLOCK END ===

=== CODE BLOCK ADDRESS 0x218e ===
  0x218e	add    	byte ptr [eax], al
  0x2190	add    	byte ptr [eax], al
  0x2192	add    	byte ptr [eax], al
  0x2194	add    	byte ptr [eax], al
  0x2196	add    	byte ptr [eax], al
  === BLOCK LINK ===
    0x2198
=== CODE BLOCK END ===

=== CODE BLOCK ADDRESS 0x2198 ===
  0x2198	add    	byte ptr [eax], al
  0x219a	add    	byte ptr [eax], al
  0x219c	add    	byte ptr [eax], al
  0x219e	add    	byte ptr [eax], al
  0x21a0	add    	byte ptr [eax], al
  === BLOCK LINK ===
    0x21a2
=== CODE BLOCK END ===

=== CODE BLOCK ADDRESS 0x21a2 ===
  0x21a2	add    	byte ptr [eax], al
  0x21a4	add    	byte ptr [eax], al
  0x21a6	add    	byte ptr [eax], al
  0x21a8	add    	byte ptr [eax], al
  0x21aa	add    	byte ptr [eax], al
  === BLOCK LINK ===
    0x21ac
=== CODE BLOCK END ===

=== CODE BLOCK ADDRESS 0x21ac ===
  0x21ac	add    	byte ptr [eax], al
  0x21ae	add    	byte ptr [eax], al
  0x21b0	add    	byte ptr [eax], al
  0x21b2	add    	byte ptr [eax], al
  0x21b4	add    	byte ptr [eax], al
  === BLOCK LINK ===
    0x21b6
=== CODE BLOCK END ===

=== CODE BLOCK ADDRESS 0x21b6 ===
  0x21b6	add    	byte ptr [eax], al
  0x21b8	add    	byte ptr [eax], al
  0x21ba	add    	byte ptr [eax], al
  0x21bc	add    	byte ptr [eax], al
  0x21be	add    	byte ptr [eax], al
  === BLOCK LINK ===
    0x21c0
=== CODE BLOCK END ===

=== CODE BLOCK ADDRESS 0x21c0 ===
  0x21c0	add    	byte ptr [eax], al
  0x21c2	add    	byte ptr [eax], al
  0x21c4	add    	byte ptr [eax], al
  0x21c6	add    	byte ptr [eax], al
  0x21c8	add    	byte ptr [eax], al
  === BLOCK LINK ===
    0x21ca
=== CODE BLOCK END ===

=== CODE BLOCK ADDRESS 0x21ca ===
  0x21ca	add    	byte ptr [eax], al
  0x21cc	add    	byte ptr [eax], al
  0x21ce	add    	byte ptr [eax], al
  0x21d0	add    	byte ptr [eax], al
  0x21d2	add    	byte ptr [eax], al
  === BLOCK LINK ===
    0x21d4
=== CODE BLOCK END ===

=== CODE BLOCK ADDRESS 0x21d4 ===
  0x21d4	add    	byte ptr [eax], al
  0x21d6	add    	byte ptr [eax], al
  0x21d8	add    	byte ptr [eax], al
  0x21da	add    	byte ptr [eax], al
  0x21dc	add    	byte ptr [eax], al
  === BLOCK LINK ===
    0x21de
=== CODE BLOCK END ===

=== CODE BLOCK ADDRESS 0x21de ===
  0x21de	add    	byte ptr [eax], al
  0x21e0	add    	byte ptr [eax], al
  0x21e2	add    	byte ptr [eax], al
  0x21e4	add    	byte ptr [eax], al
  0x21e6	add    	byte ptr [eax], al
  === BLOCK LINK ===
    0x21e8
=== CODE BLOCK END ===

=== CODE BLOCK ADDRESS 0x21e8 ===
  0x21e8	add    	byte ptr [eax], al
  0x21ea	add    	byte ptr [eax], al
  0x21ec	add    	byte ptr [eax], al
  0x21ee	add    	byte ptr [eax], al
  0x21f0	add    	byte ptr [eax], al
  === BLOCK LINK ===
    0x21f2
=== CODE BLOCK END ===

=== CODE BLOCK ADDRESS 0x21f2 ===
  0x21f2	add    	byte ptr [eax], al
  0x21f4	add    	byte ptr [eax], al
  0x21f6	add    	byte ptr [eax], al
  0x21f8	add    	byte ptr [eax], al
  0x21fa	add    	byte ptr [eax], al
  === BLOCK LINK ===
    0x21fc
=== CODE BLOCK END ===

=== CODE BLOCK ADDRESS 0x21fc ===
  0x21fc	add    	byte ptr [eax], al
=== CODE BLOCK END ===

=== DATA BLOCK ADDRESS 0x3000 ===
  0x3000	60 40 00 40 01 00 00 00 00 41 00 40 01 00 00 00 	`@0@00000A0@0000
  0x3010	18 01 00 00 00 00 00 00 00 00 00 00 00 00 00 00 	0000000000000000
  0x3020	00 00 00 00 00 00 00 00 00 00 00 00 00 00 00 00 	0000000000000000
  0x3030	00 00 00 00 00 00 00 00 00 00 00 00 00 00 00 00 	0000000000000000
  0x3040	00 00 00 00 00 00 00 00 00 00 00 00 00 00 00 00 	0000000000000000
  0x3050	00 00 00 00 00 00 00 00 00 00 00 00 00 00 00 00 	0000000000000000
  0x3060	00 00 00 00 00 00 00 00 08 40 00 40 01 00 00 00 	000000000@0@0000
  0x3070	00 00 00 00 00 00 00 00 00 00 00 00 00 00 00 00 	0000000000000000
  0x3080	98 32 00 40 01 00 00 00 a0 32 00 40 01 00 00 00 	020@0000020@0000
  0x3090	e0 32 00 40 01 00 00 00 09 00 00 00 00 00 00 00 	020@000000000000
  0x30a0	00 75 01 00 00 00 00 00 00 00 00 00 00 00 00 00 	0u00000000000000
  0x30b0	04 33 00 40 01 00 00 00 01 00 00 00 00 00 00 00 	030@000000000000
  0x30c0	00 00 00 00 00 00 00 00 00 00 00 00 00 00 00 00 	0000000000000000
  0x30d0	00 00 00 00 00 00 00 00 00 00 00 00 00 00 00 00 	0000000000000000
  0x30e0	00 00 00 00 00 00 00 00 00 00 00 00 00 00 00 00 	0000000000000000
  0x30f0	00 00 00 00 00 00 00 00 00 00 00 00 00 00 00 00 	0000000000000000
  0x3100	00 00 00 00 00 00 00 00 00 00 00 00 00 00 00 00 	0000000000000000
  0x3110	00 00 00 00 00 00 00 00 00 00 00 00 00 00 00 00 	0000000000000000
  0x3120	00 00 00 00 00 00 00 00 98 3a 00 00 00 00 00 00 	000000000:000000
  0x3130	aa 3a 00 00 00 00 00 00 be 3a 00 00 00 00 00 00 	0:0000000:000000
  0x3140	d2 3a 00 00 00 00 00 00 e2 3a 00 00 00 00 00 00 	0:0000000:000000
  0x3150	f8 3a 00 00 00 00 00 00 02 3d 00 00 00 00 00 00 	0:0000000=000000
  0x3160	f2 3c 00 00 00 00 00 00 d8 3c 00 00 00 00 00 00 	0<0000000<000000
  0x3170	c2 3c 00 00 00 00 00 00 ac 3c 00 00 00 00 00 00 	0<0000000<000000
  0x3180	92 3c 00 00 00 00 00 00 7e 3c 00 00 00 00 00 00 	0<000000~<000000
  0x3190	60 3c 00 00 00 00 00 00 4e 3c 00 00 00 00 00 00 	`<000000N<000000
  0x31a0	46 3c 00 00 00 00 00 00 30 3d 00 00 00 00 00 00 	F<0000000=000000
  0x31b0	44 3d 00 00 00 00 00 00 60 3d 00 00 00 00 00 00 	D=000000`=000000
  0x31c0	72 3d 00 00 00 00 00 00 8a 3d 00 00 00 00 00 00 	r=0000000=000000
  0x31d0	16 3d 00 00 00 00 00 00 9c 3d 00 00 00 00 00 00 	0=0000000=000000
  0x31e0	00 00 00 00 00 00 00 00 c8 3b 00 00 00 00 00 00 	000000000;000000
  0x31f0	be 3b 00 00 00 00 00 00 b4 3b 00 00 00 00 00 00 	0;0000000;000000
  0x3200	a8 3b 00 00 00 00 00 00 94 3b 00 00 00 00 00 00 	0;0000000;000000
  0x3210	8a 3b 00 00 00 00 00 00 82 3b 00 00 00 00 00 00 	0;0000000;000000
  0x3220	7a 3b 00 00 00 00 00 00 68 3b 00 00 00 00 00 00 	z;000000h;000000
  0x3230	56 3b 00 00 00 00 00 00 48 3b 00 00 00 00 00 00 	V;000000H;000000
  0x3240	3a 3b 00 00 00 00 00 00 2c 3b 00 00 00 00 00 00 	:;000000,;000000
  0x3250	14 3b 00 00 00 00 00 00 e0 3b 00 00 00 00 00 00 	0;0000000;000000
  0x3260	aa 3d 00 00 00 00 00 00 00 00 00 00 00 00 00 00 	0=00000000000000
  0x3270	06 3c 00 00 00 00 00 00 f4 3b 00 00 00 00 00 00 	0<0000000;000000
  0x3280	1a 3c 00 00 00 00 00 00 2a 3c 00 00 00 00 00 00 	0<000000*<000000
  0x3290	00 00 00 00 00 00 00 00 60 1d 00 40 01 00 00 00 	00000000`00@0000
  0x32a0	e0 20 00 40 01 00 00 00 00 00 00 00 00 00 00 00 	0 0@000000000000
  0x32b0	40 17 00 40 01 00 00 00 00 00 00 00 00 00 00 00 	@00@000000000000
  0x32c0	00 00 00 00 00 00 00 00 60 16 00 40 01 00 00 00 	00000000`00@0000
  0x32d0	a0 1a 00 40 01 00 00 00 00 00 00 00 00 00 00 00 	000@000000000000
  0x32e0	20 14 00 00 60 16 00 00 40 17 00 00 00 1a 00 00 	 000`000@0000000
  0x32f0	60 1a 00 00 a0 1a 00 00 80 1b 00 00 60 1d 00 00 	`00000000000`000
  0x3300	b0 1d 00 00 c0 31 00 00 00 00 00 00 00 00 00 00 	0000010000000000
  0x3310	61 70 70 68 65 6c 70 2e 64 6c 6c 00 25 00 58 00 	apphelp.dll0%0X0
  0x3320	00 00 00 00 00 00 00 00 35 e4 45 9b a9 34 6b 4e 	0000000050E004kN
  0x3330	a2 a1 b0 ec d2 84 96 7c 00 00 00 00 00 00 00 00 	0000000|00000000
  0x3340	61 00 70 00 69 00 2d 00 6d 00 73 00 2d 00 77 00 	a0p0i0-0m0s0-0w0
  0x3350	69 00 6e 00 2d 00 63 00 6f 00 72 00 65 00 2d 00 	i0n0-0c0o0r0e0-0
  0x3360	64 00 65 00 6c 00 61 00 79 00 6c 00 6f 00 61 00 	d0e0l0a0y0l0o0a0
  0x3370	64 00 2d 00 6c 00 31 00 2d 00 31 00 2d 00 31 00 	d0-0l010-010-010
  0x3380	2e 00 64 00 6c 00 6c 00 00 00 00 00 00 00 00 00 	.0d0l0l000000000
  0x3390	4b 00 45 00 52 00 4e 00 45 00 4c 00 33 00 32 00 	K0E0R0N0E0L03020
  0x33a0	2e 00 44 00 4c 00 4c 00 00 00 00 00 00 00 00 00 	.0D0L0L000000000
  0x33b0	52 65 73 6f 6c 76 65 44 65 6c 61 79 4c 6f 61 64 	ResolveDelayLoad
  0x33c0	65 64 41 50 49 00 00 00 52 65 73 6f 6c 76 65 44 	edAPI000ResolveD
  0x33d0	65 6c 61 79 4c 6f 61 64 73 46 72 6f 6d 44 6c 6c 	elayLoadsFromDll
  0x33e0	00 00 00 00 00 00 00 00 00 00 00 00 00 00 00 00 	0000000000000000
  0x33f0	00 00 00 00 ed 03 87 db 00 00 00 00 02 00 00 00 	0000000000000000
  0x3400	25 00 00 00 44 34 00 00 44 1a 00 00 00 00 00 00 	%000D400D0000000
  0x3410	ed 03 87 db 00 00 00 00 0d 00 00 00 78 02 00 00 	000000000000x000
  0x3420	6c 34 00 00 6c 1a 00 00 00 00 00 00 ed 03 87 db 	l400l00000000000
  0x3430	00 00 00 00 10 00 00 00 24 00 00 00 e4 36 00 00 	00000000$0000600
  0x3440	e4 1c 00 00 52 53 44 53 a8 f1 22 4a ad ba c8 dd 	0000RSDS00"J0000
  0x3450	62 4a ce 8c f2 f5 99 b5 01 00 00 00 76 65 72 63 	bJ0000000000verc
  0x3460	6c 73 69 64 2e 70 64 62 00 00 00 00 47 43 54 4c 	lsid.pdb0000GCTL
  0x3470	00 10 00 00 d0 10 00 00 2e 74 65 78 74 24 6d 6e 	00000000.text$mn
  0x3480	00 00 00 00 d0 20 00 00 20 00 00 00 2e 74 65 78 	00000 00 000.tex
  0x3490	74 24 6d 6e 24 30 30 00 f0 20 00 00 50 00 00 00 	t$mn$0000 00P000
  0x34a0	2e 74 65 78 74 24 78 00 00 30 00 00 28 01 00 00 	.text$x00000(000
  0x34b0	2e 72 64 61 74 61 24 62 72 63 00 00 28 31 00 00 	.rdata$brc00(100
  0x34c0	70 01 00 00 2e 69 64 61 74 61 24 35 00 00 00 00 	p000.idata$50000
  0x34d0	98 32 00 00 10 00 00 00 2e 30 30 63 66 67 00 00 	02000000.00cfg00
  0x34e0	a8 32 00 00 08 00 00 00 2e 43 52 54 24 58 43 41 	02000000.CRT$XCA
  0x34f0	00 00 00 00 b0 32 00 00 08 00 00 00 2e 43 52 54 	000002000000.CRT
  0x3500	24 58 43 41 41 00 00 00 b8 32 00 00 08 00 00 00 	$XCAA00002000000
  0x3510	2e 43 52 54 24 58 43 5a 00 00 00 00 c0 32 00 00 	.CRT$XCZ00000200
  0x3520	08 00 00 00 2e 43 52 54 24 58 49 41 00 00 00 00 	0000.CRT$XIA0000
  0x3530	c8 32 00 00 08 00 00 00 2e 43 52 54 24 58 49 41 	02000000.CRT$XIA
  0x3540	41 00 00 00 d0 32 00 00 08 00 00 00 2e 43 52 54 	A00002000000.CRT
  0x3550	24 58 49 59 00 00 00 00 d8 32 00 00 08 00 00 00 	$XIY000002000000
  0x3560	2e 43 52 54 24 58 49 5a 00 00 00 00 e0 32 00 00 	.CRT$XIZ00000200
  0x3570	24 00 00 00 2e 67 66 69 64 73 00 00 04 33 00 00 	$000.gfids000300
  0x3580	0c 00 00 00 2e 67 69 61 74 73 00 00 10 33 00 00 	0000.giats000300
  0x3590	34 01 00 00 2e 72 64 61 74 61 00 00 44 34 00 00 	4000.rdata00D400
  0x35a0	c4 02 00 00 2e 72 64 61 74 61 24 7a 7a 7a 64 62 	0000.rdata$zzzdb
  0x35b0	67 00 00 00 08 37 00 00 4c 01 00 00 2e 78 64 61 	g0000700L000.xda
  0x35c0	74 61 00 00 54 38 00 00 20 00 00 00 2e 64 69 64 	ta00T800 000.did
  0x35d0	61 74 24 32 00 00 00 00 74 38 00 00 24 00 00 00 	at$20000t800$000
  0x35e0	2e 64 69 64 61 74 24 33 00 00 00 00 98 38 00 00 	.didat$300000800
  0x35f0	10 00 00 00 2e 64 69 64 61 74 24 34 00 00 00 00 	0000.didat$40000
  0x3600	a8 38 00 00 20 00 00 00 2e 64 69 64 61 74 24 36 	0800 000.didat$6
  0x3610	00 00 00 00 c8 38 00 00 10 00 00 00 2e 64 69 64 	000008000000.did
  0x3620	61 74 24 37 00 00 00 00 d8 38 00 00 3c 00 00 00 	at$700000800<000
  0x3630	2e 69 64 61 74 61 24 32 00 00 00 00 14 39 00 00 	.idata$200000900
  0x3640	14 00 00 00 2e 69 64 61 74 61 24 33 00 00 00 00 	0000.idata$30000
  0x3650	28 39 00 00 70 01 00 00 2e 69 64 61 74 61 24 34 	(900p000.idata$4
  0x3660	00 00 00 00 98 3a 00 00 1c 03 00 00 2e 69 64 61 	00000:000000.ida
  0x3670	74 61 24 36 00 00 00 00 00 40 00 00 20 00 00 00 	ta$600000@00 000
  0x3680	2e 64 61 74 61 00 00 00 20 40 00 00 78 06 00 00 	.data000 @00x000
  0x3690	2e 62 73 73 00 00 00 00 00 50 00 00 14 01 00 00 	.bss00000P000000
  0x36a0	2e 70 64 61 74 61 00 00 00 60 00 00 10 00 00 00 	.pdata000`000000
  0x36b0	2e 64 69 64 61 74 24 35 00 00 00 00 00 70 00 00 	.didat$500000p00
  0x36c0	a0 00 00 00 2e 72 73 72 63 24 30 31 00 00 00 00 	0000.rsrc$010000
  0x36d0	a0 70 00 00 48 08 00 00 2e 72 73 72 63 24 30 32 	0p00H000.rsrc$02
  0x36e0	00 00 00 00 20 00 00 00 a8 f1 22 4a ad ba c8 dd 	0000 00000"J0000
  0x36f0	62 4a ce 8c f2 f5 99 b5 fd 38 4b cc 3e ba 7d 82 	bJ00000008K0>0}0
  0x3700	e2 61 f2 17 ed 03 87 db 01 04 01 00 04 42 00 00 	0a00000000000B00
  0x3710	01 14 08 00 14 64 08 00 14 54 07 00 14 34 06 00 	00000d000T000400
  0x3720	14 32 10 70 19 2b 0a 00 1c e4 15 00 1c 74 14 00 	020p0+0000000t00
  0x3730	1c 64 13 00 1c 34 12 00 1c f2 15 f0 d0 1f 00 00 	0d00040000000000
  0x3740	01 00 00 00 c7 12 00 00 ca 13 00 00 01 00 00 00 	0000000000000000
  0x3750	ca 13 00 00 71 00 00 00 01 1f 0d 00 1f 64 1b 00 	0000q00000000d00
  0x3760	1f 54 1a 00 1f 34 19 00 1f 01 12 00 18 f0 16 e0 	0T00040000000000
  0x3770	14 d0 12 c0 10 70 00 00 01 04 01 00 04 62 00 00 	00000p0000000b00
  0x3780	09 1c 0b 00 1c e4 1b 00 1c 74 1a 00 1c 64 19 00 	000000000t000d00
  0x3790	1c 34 18 00 1c 01 16 00 15 f0 00 00 18 1a 00 00 	0400000000000000
  0x37a0	01 00 00 00 bf 17 00 00 a9 19 00 00 f0 20 00 00 	0000000000000 00
  0x37b0	a9 19 00 00 01 06 02 00 06 32 02 50 00 00 00 00 	00000000020P0000
  0x37c0	01 00 00 00 09 04 01 00 04 22 00 00 18 1a 00 00 	000000000"000000
  0x37d0	01 00 00 00 dc 1a 00 00 12 1b 00 00 01 00 00 00 	0000000000000000
  0x37e0	12 1b 00 00 01 06 02 00 06 32 02 30 09 0a 04 00 	0000000002000000
  0x37f0	0a 34 06 00 0a 32 06 70 18 1a 00 00 01 00 00 00 	0400020p00000000
  0x3800	ed 1b 00 00 20 1c 00 00 20 21 00 00 20 1c 00 00 	0000 000 !00 000
  0x3810	01 0d 04 00 0d 34 09 00 0d 32 06 50 01 0c 02 00 	00000400020P0000
  0x3820	0c 01 11 00 00 00 00 00 01 00 00 00 01 18 01 00 	0000000000000000
  0x3830	18 c2 00 00 01 19 0a 00 19 74 09 00 19 64 08 00 	000000000t000d00
  0x3840	19 54 07 00 19 34 06 00 19 32 15 e0 01 02 01 00 	0T00040002000000
  0x3850	02 30 00 00 01 00 00 00 10 33 00 00 d0 45 00 00 	0000000003000E00
  0x3860	00 60 00 00 98 38 00 00 c8 38 00 00 00 00 00 00 	0`00080008000000
  0x3870	00 00 00 00 00 00 00 00 00 00 00 00 00 00 00 00 	0000000000000000
  0x3880	00 00 00 00 00 00 00 00 00 00 00 00 00 00 00 00 	0000000000000000
  0x3890	00 00 00 00 00 00 00 00 a8 38 00 00 00 00 00 00 	0000000008000000
  0x38a0	00 00 00 00 00 00 00 00 08 00 41 70 70 68 65 6c 	0000000000Apphel
  0x38b0	70 43 68 65 63 6b 53 68 65 6c 6c 4f 62 6a 65 63 	pCheckShellObjec
  0x38c0	74 00 00 00 00 00 00 00 00 00 00 00 00 00 00 00 	t000000000000000
  0x38d0	00 00 00 00 00 00 00 00 28 39 00 00 00 00 00 00 	00000000(9000000
  0x38e0	00 00 00 00 06 3b 00 00 28 31 00 00 e8 39 00 00 	00000;00(1000900
  0x38f0	00 00 00 00 00 00 00 00 d4 3b 00 00 e8 31 00 00 	000000000;000100
  0x3900	70 3a 00 00 00 00 00 00 00 00 00 00 3c 3c 00 00 	p:0000000000<<00
  0x3910	70 32 00 00 00 00 00 00 00 00 00 00 00 00 00 00 	p200000000000000
  0x3920	00 00 00 00 00 00 00 00 98 3a 00 00 00 00 00 00 	000000000:000000
  0x3930	aa 3a 00 00 00 00 00 00 be 3a 00 00 00 00 00 00 	0:0000000:000000
  0x3940	d2 3a 00 00 00 00 00 00 e2 3a 00 00 00 00 00 00 	0:0000000:000000
  0x3950	f8 3a 00 00 00 00 00 00 02 3d 00 00 00 00 00 00 	0:0000000=000000
  0x3960	f2 3c 00 00 00 00 00 00 d8 3c 00 00 00 00 00 00 	0<0000000<000000
  0x3970	c2 3c 00 00 00 00 00 00 ac 3c 00 00 00 00 00 00 	0<0000000<000000
  0x3980	92 3c 00 00 00 00 00 00 7e 3c 00 00 00 00 00 00 	0<000000~<000000
  0x3990	60 3c 00 00 00 00 00 00 4e 3c 00 00 00 00 00 00 	`<000000N<000000
  0x39a0	46 3c 00 00 00 00 00 00 30 3d 00 00 00 00 00 00 	F<0000000=000000
  0x39b0	44 3d 00 00 00 00 00 00 60 3d 00 00 00 00 00 00 	D=000000`=000000
  0x39c0	72 3d 00 00 00 00 00 00 8a 3d 00 00 00 00 00 00 	r=0000000=000000
  0x39d0	16 3d 00 00 00 00 00 00 9c 3d 00 00 00 00 00 00 	0=0000000=000000
  0x39e0	00 00 00 00 00 00 00 00 c8 3b 00 00 00 00 00 00 	000000000;000000
  0x39f0	be 3b 00 00 00 00 00 00 b4 3b 00 00 00 00 00 00 	0;0000000;000000
  0x3a00	a8 3b 00 00 00 00 00 00 94 3b 00 00 00 00 00 00 	0;0000000;000000
  0x3a10	8a 3b 00 00 00 00 00 00 82 3b 00 00 00 00 00 00 	0;0000000;000000
  0x3a20	7a 3b 00 00 00 00 00 00 68 3b 00 00 00 00 00 00 	z;000000h;000000
  0x3a30	56 3b 00 00 00 00 00 00 48 3b 00 00 00 00 00 00 	V;000000H;000000
  0x3a40	3a 3b 00 00 00 00 00 00 2c 3b 00 00 00 00 00 00 	:;000000,;000000
  0x3a50	14 3b 00 00 00 00 00 00 e0 3b 00 00 00 00 00 00 	0;0000000;000000
  0x3a60	aa 3d 00 00 00 00 00 00 00 00 00 00 00 00 00 00 	0=00000000000000
  0x3a70	06 3c 00 00 00 00 00 00 f4 3b 00 00 00 00 00 00 	0<0000000;000000
  0x3a80	1a 3c 00 00 00 00 00 00 2a 3c 00 00 00 00 00 00 	0<000000*<000000
  0x3a90	00 00 00 00 00 00 00 00 df 01 47 65 74 43 6f 6d 	0000000000GetCom
  0x3aa0	6d 61 6e 64 4c 69 6e 65 57 00 1f 02 47 65 74 43 	mandLineW000GetC
  0x3ab0	75 72 72 65 6e 74 50 72 6f 63 65 73 73 00 9c 05 	urrentProcess000
  0x3ac0	54 65 72 6d 69 6e 61 74 65 50 72 6f 63 65 73 73 	TerminateProcess
  0x3ad0	00 00 24 05 53 65 74 45 72 72 6f 72 4d 6f 64 65 	00$0SetErrorMode
  0x3ae0	00 00 58 03 48 65 61 70 53 65 74 49 6e 66 6f 72 	00X0HeapSetInfor
  0x3af0	6d 61 74 69 6f 6e 00 00 66 01 45 78 69 74 50 72 	mation00f0ExitPr
  0x3b00	6f 63 65 73 73 00 4b 45 52 4e 45 4c 33 32 2e 64 	ocess0KERNEL32.d
  0x3b10	6c 6c 00 00 57 00 5f 5f 43 5f 73 70 65 63 69 66 	ll00W0__C_specif
  0x3b20	69 63 5f 68 61 6e 64 6c 65 72 00 00 db 02 5f 73 	ic_handler0000_s
  0x3b30	6e 77 73 63 61 6e 66 5f 73 00 55 00 5f 58 63 70 	nwscanf_s0U0_Xcp
  0x3b40	74 46 69 6c 74 65 72 00 ae 00 5f 61 6d 73 67 5f 	tFilter000_amsg_
  0x3b50	65 78 69 74 00 00 9d 00 5f 5f 77 67 65 74 6d 61 	exit0000__wgetma
  0x3b60	69 6e 61 72 67 73 00 00 8e 00 5f 5f 73 65 74 5f 	inargs0000__set_
  0x3b70	61 70 70 5f 74 79 70 65 00 00 32 04 65 78 69 74 	app_type0020exit
  0x3b80	00 00 0e 01 5f 65 78 69 74 00 c1 00 5f 63 65 78 	0000_exit000_cex
  0x3b90	69 74 00 00 90 00 5f 5f 73 65 74 75 73 65 72 6d 	it0000__setuserm
  0x3ba0	61 74 68 65 72 72 00 00 7d 01 5f 69 6e 69 74 74 	atherr00}0_initt
  0x3bb0	65 72 6d 00 82 03 5f 77 63 6d 64 6c 6e 00 27 01 	erm000_wcmdln0'0
  0x3bc0	5f 66 6d 6f 64 65 00 00 d2 00 5f 63 6f 6d 6d 6f 	_fmode0000_commo
  0x3bd0	64 65 00 00 6d 73 76 63 72 74 2e 64 6c 6c 00 00 	de00msvcrt.dll00
  0x3be0	2f 00 3f 74 65 72 6d 69 6e 61 74 65 40 40 59 41 	/0?terminate@@YA
  0x3bf0	58 58 5a 00 90 00 43 6f 55 6e 69 6e 69 74 69 61 	XXZ000CoUninitia
  0x3c00	6c 69 7a 65 00 00 2b 00 43 6f 43 72 65 61 74 65 	lize00+0CoCreate
  0x3c10	49 6e 73 74 61 6e 63 65 00 00 3d 01 49 49 44 46 	Instance00=0IIDF
  0x3c20	72 6f 6d 53 74 72 69 6e 67 00 61 00 43 6f 49 6e 	romString0a0CoIn
  0x3c30	69 74 69 61 6c 69 7a 65 45 78 00 00 6f 6c 65 33 	itializeEx00ole3
  0x3c40	32 2e 64 6c 6c 00 88 05 53 6c 65 65 70 00 d7 02 	2.dll000Sleep000
  0x3c50	47 65 74 53 74 61 72 74 75 70 49 6e 66 6f 57 00 	GetStartupInfoW0
  0x3c60	78 05 53 65 74 55 6e 68 61 6e 64 6c 65 64 45 78 	x0SetUnhandledEx
  0x3c70	63 65 70 74 69 6f 6e 46 69 6c 74 65 72 00 7e 02 	ceptionFilter0~0
  0x3c80	47 65 74 4d 6f 64 75 6c 65 48 61 6e 64 6c 65 57 	GetModuleHandleW
  0x3c90	00 00 4d 04 51 75 65 72 79 50 65 72 66 6f 72 6d 	00M0QueryPerform
  0x3ca0	61 6e 63 65 43 6f 75 6e 74 65 72 00 1e 02 47 65 	anceCounter000Ge
  0x3cb0	74 43 75 72 72 65 6e 74 50 72 6f 63 65 73 73 49 	tCurrentProcessI
  0x3cc0	64 00 22 02 47 65 74 43 75 72 72 65 6e 74 54 68 	d0"0GetCurrentTh
  0x3cd0	72 65 61 64 49 64 00 00 f0 02 47 65 74 53 79 73 	readId0000GetSys
  0x3ce0	74 65 6d 54 69 6d 65 41 73 46 69 6c 65 54 69 6d 	temTimeAsFileTim
  0x3cf0	65 00 0e 03 47 65 74 54 69 63 6b 43 6f 75 6e 74 	e000GetTickCount
  0x3d00	00 00 d0 04 52 74 6c 43 61 70 74 75 72 65 43 6f 	0000RtlCaptureCo
  0x3d10	6e 74 65 78 74 00 d7 04 52 74 6c 4c 6f 6f 6b 75 	ntext000RtlLooku
  0x3d20	70 46 75 6e 63 74 69 6f 6e 45 6e 74 72 79 00 00 	pFunctionEntry00
  0x3d30	de 04 52 74 6c 56 69 72 74 75 61 6c 55 6e 77 69 	00RtlVirtualUnwi
  0x3d40	6e 64 00 00 b9 05 55 6e 68 61 6e 64 6c 65 64 45 	nd0000UnhandledE
  0x3d50	78 63 65 70 74 69 6f 6e 46 69 6c 74 65 72 00 00 	xceptionFilter00
  0x3d60	c8 03 4c 6f 61 64 4c 69 62 72 61 72 79 45 78 41 	00LoadLibraryExA
  0x3d70	00 00 10 01 44 65 6c 61 79 4c 6f 61 64 46 61 69 	0000DelayLoadFai
  0x3d80	6c 75 72 65 48 6f 6f 6b 00 00 b7 02 47 65 74 50 	lureHook0000GetP
  0x3d90	72 6f 63 41 64 64 72 65 73 73 00 00 b3 01 46 72 	rocAddress0000Fr
  0x3da0	65 65 4c 69 62 72 61 72 79 00 96 04 6d 65 6d 73 	eeLibrary000mems
  0x3db0	65 74 00 00 00 00 00 00 00 00 00 00 00 00 00 00 	et00000000000000
  0x3dc0	00 00 00 00 00 00 00 00 00 00 00 00 00 00 00 00 	0000000000000000
  0x3dd0	00 00 00 00 00 00 00 00 00 00 00 00 00 00 00 00 	0000000000000000
  0x3de0	00 00 00 00 00 00 00 00 00 00 00 00 00 00 00 00 	0000000000000000
  0x3df0	00 00 00 00 00 00 00 00 00 00 00 00 00 00 00 00 	0000000000000000
=== DATA BLOCK END ===

=== DATA BLOCK ADDRESS 0x4000 ===
  0x4000	01 00 00 00 00 00 00 00 32 a2 df 2d 99 2b 00 00 	00000000200-0+00
  0x4010	cd 5d 20 d2 66 d4 ff ff 00 00 00 00 00 00 00 00 	0] 0f00000000000
  0x4020	00 00 00 00 00 00 00 00 00 00 00 00 00 00 00 00 	0000000000000000
  0x4030	00 00 00 00 00 00 00 00 00 00 00 00 00 00 00 00 	0000000000000000
  0x4040	00 00 00 00 00 00 00 00 00 00 00 00 00 00 00 00 	0000000000000000
  0x4050	00 00 00 00 00 00 00 00 00 00 00 00 00 00 00 00 	0000000000000000
  0x4060	00 00 00 00 00 00 00 00 00 00 00 00 00 00 00 00 	0000000000000000
  0x4070	00 00 00 00 00 00 00 00 00 00 00 00 00 00 00 00 	0000000000000000
  0x4080	00 00 00 00 00 00 00 00 00 00 00 00 00 00 00 00 	0000000000000000
  0x4090	00 00 00 00 00 00 00 00 00 00 00 00 00 00 00 00 	0000000000000000
  0x40a0	00 00 00 00 00 00 00 00 00 00 00 00 00 00 00 00 	0000000000000000
  0x40b0	00 00 00 00 00 00 00 00 00 00 00 00 00 00 00 00 	0000000000000000
  0x40c0	00 00 00 00 00 00 00 00 00 00 00 00 00 00 00 00 	0000000000000000
  0x40d0	00 00 00 00 00 00 00 00 00 00 00 00 00 00 00 00 	0000000000000000
  0x40e0	00 00 00 00 00 00 00 00 00 00 00 00 00 00 00 00 	0000000000000000
  0x40f0	00 00 00 00 00 00 00 00 00 00 00 00 00 00 00 00 	0000000000000000
  0x4100	00 00 00 00 00 00 00 00 00 00 00 00 00 00 00 00 	0000000000000000
  0x4110	00 00 00 00 00 00 00 00 00 00 00 00 00 00 00 00 	0000000000000000
  0x4120	00 00 00 00 00 00 00 00 00 00 00 00 00 00 00 00 	0000000000000000
  0x4130	00 00 00 00 00 00 00 00 00 00 00 00 00 00 00 00 	0000000000000000
  0x4140	00 00 00 00 00 00 00 00 00 00 00 00 00 00 00 00 	0000000000000000
  0x4150	00 00 00 00 00 00 00 00 00 00 00 00 00 00 00 00 	0000000000000000
  0x4160	00 00 00 00 00 00 00 00 00 00 00 00 00 00 00 00 	0000000000000000
  0x4170	00 00 00 00 00 00 00 00 00 00 00 00 00 00 00 00 	0000000000000000
  0x4180	00 00 00 00 00 00 00 00 00 00 00 00 00 00 00 00 	0000000000000000
  0x4190	00 00 00 00 00 00 00 00 00 00 00 00 00 00 00 00 	0000000000000000
  0x41a0	00 00 00 00 00 00 00 00 00 00 00 00 00 00 00 00 	0000000000000000
  0x41b0	00 00 00 00 00 00 00 00 00 00 00 00 00 00 00 00 	0000000000000000
  0x41c0	00 00 00 00 00 00 00 00 00 00 00 00 00 00 00 00 	0000000000000000
  0x41d0	00 00 00 00 00 00 00 00 00 00 00 00 00 00 00 00 	0000000000000000
  0x41e0	00 00 00 00 00 00 00 00 00 00 00 00 00 00 00 00 	0000000000000000
  0x41f0	00 00 00 00 00 00 00 00 00 00 00 00 00 00 00 00 	0000000000000000
=== DATA BLOCK END ===

=== DATA BLOCK ADDRESS 0x5000 ===
  0x5000	08 10 00 00 59 10 00 00 08 37 00 00 60 10 00 00 	0000Y0000700`000
  0x5010	ff 10 00 00 10 37 00 00 08 11 00 00 19 14 00 00 	0000070000000000
  0x5020	24 37 00 00 20 14 00 00 54 16 00 00 58 37 00 00 	$700 000T000X700
  0x5030	60 16 00 00 33 17 00 00 08 37 00 00 40 17 00 00 	`00030000700@000
  0x5040	89 17 00 00 78 37 00 00 90 17 00 00 f4 19 00 00 	0000x70000000000
  0x5050	80 37 00 00 00 1a 00 00 12 1a 00 00 08 37 00 00 	0700000000000700
  0x5060	30 1a 00 00 4e 1a 00 00 c0 37 00 00 60 1a 00 00 	0000N0000700`000
  0x5070	99 1a 00 00 08 37 00 00 a0 1a 00 00 b8 1a 00 00 	0000070000000000
  0x5080	08 37 00 00 cc 1a 00 00 20 1b 00 00 c4 37 00 00 	07000000 0000700
  0x5090	28 1b 00 00 6d 1b 00 00 e4 37 00 00 e0 1b 00 00 	(000m00007000000
  0x50a0	2d 1c 00 00 ec 37 00 00 74 1c 00 00 48 1d 00 00 	-0000700t000H000
  0x50b0	10 38 00 00 6c 1d 00 00 a0 1d 00 00 e4 37 00 00 	0800l00000000700
  0x50c0	b0 1d 00 00 21 1f 00 00 1c 38 00 00 42 1f 00 00 	0000!0000800B000
  0x50d0	b9 1f 00 00 2c 38 00 00 d0 1f 00 00 56 20 00 00 	0000,8000000V 00
  0x50e0	34 38 00 00 68 20 00 00 c3 20 00 00 4c 38 00 00 	4800h 000 00L800
  0x50f0	e0 20 00 00 e2 20 00 00 28 38 00 00 f0 20 00 00 	0 000 00(8000 00
  0x5100	0e 21 00 00 b4 37 00 00 20 21 00 00 40 21 00 00 	0!000700 !00@!00
  0x5110	b4 37 00 00 00 00 00 00 00 00 00 00 00 00 00 00 	0700000000000000
  0x5120	00 00 00 00 00 00 00 00 00 00 00 00 00 00 00 00 	0000000000000000
  0x5130	00 00 00 00 00 00 00 00 00 00 00 00 00 00 00 00 	0000000000000000
  0x5140	00 00 00 00 00 00 00 00 00 00 00 00 00 00 00 00 	0000000000000000
  0x5150	00 00 00 00 00 00 00 00 00 00 00 00 00 00 00 00 	0000000000000000
  0x5160	00 00 00 00 00 00 00 00 00 00 00 00 00 00 00 00 	0000000000000000
  0x5170	00 00 00 00 00 00 00 00 00 00 00 00 00 00 00 00 	0000000000000000
  0x5180	00 00 00 00 00 00 00 00 00 00 00 00 00 00 00 00 	0000000000000000
  0x5190	00 00 00 00 00 00 00 00 00 00 00 00 00 00 00 00 	0000000000000000
  0x51a0	00 00 00 00 00 00 00 00 00 00 00 00 00 00 00 00 	0000000000000000
  0x51b0	00 00 00 00 00 00 00 00 00 00 00 00 00 00 00 00 	0000000000000000
  0x51c0	00 00 00 00 00 00 00 00 00 00 00 00 00 00 00 00 	0000000000000000
  0x51d0	00 00 00 00 00 00 00 00 00 00 00 00 00 00 00 00 	0000000000000000
  0x51e0	00 00 00 00 00 00 00 00 00 00 00 00 00 00 00 00 	0000000000000000
  0x51f0	00 00 00 00 00 00 00 00 00 00 00 00 00 00 00 00 	0000000000000000
=== DATA BLOCK END ===
