===== Assembly blocks =====

=== CODE BLOCK ADDRESS 0x1000 ===
  0x1000	int3   	
  0x1001	int3   	
  0x1002	int3   	
  0x1003	int3   	
  0x1004	int3   	
  === BLOCK LINK ===
    0x1005
=== CODE BLOCK END ===

=== CODE BLOCK ADDRESS 0x1005 ===
  0x1005	int3   	
  0x1006	int3   	
  0x1007	int3   	
  === BLOCK LINK ===
    0x1008
=== CODE BLOCK END ===

=== CODE BLOCK ADDRESS 0x100b ===
  0x100b	dec    	eax
  0x100c	mov    	dword ptr [eax + 8], ebx
  0x100f	dec    	eax
  0x1010	mov    	dword ptr [eax + 0x10], ebp
  0x1013	dec    	eax
  === BLOCK LINK ===
    0x1014
=== CODE BLOCK END ===

=== CODE BLOCK ADDRESS 0x1014 ===
  0x1014	mov    	dword ptr [eax + 0x18], esi
  0x1017	dec    	eax
  0x1018	mov    	dword ptr [eax + 0x20], edi
  0x101b	inc    	ecx
  0x101c	push   	esi
  === BLOCK LINK ===
    0x101d
=== CODE BLOCK END ===

=== CODE BLOCK ADDRESS 0x101d ===
  0x101d	dec    	eax
  0x101e	sub    	esp, 0x20
  0x1021	dec    	esp
  0x1022	mov    	esi, ecx
  0x1024	inc    	ecx
  === BLOCK LINK ===
    0x1025
=== CODE BLOCK END ===

=== CODE BLOCK ADDRESS 0x1025 ===
  0x1025	mov    	esi, eax
  0x1027	dec    	eax
  0x1028	lea    	ecx, [0x3402]
  0x102e	dec    	eax
  0x102f	mov    	ebp, edx
  === BLOCK LINK ===
    0x1031
=== CODE BLOCK END ===

=== CODE BLOCK ADDRESS 0x1031 ===
  0x1031	xor    	ebx, ebx
  0x1033	dec    	eax
  0x1034	call   	dword ptr [0x31a6]
  === BLOCK LINK ===
    0x103a
=== CODE BLOCK END ===

=== CODE BLOCK ADDRESS 0x103a ===
  0x103a	nop    	dword ptr [eax + eax]
  0x103f	dec    	eax
  0x1040	mov    	edi, eax
  0x1042	dec    	eax
  0x1043	test   	eax, eax
  === BLOCK LINK ===
    0x1045
=== CODE BLOCK END ===

=== CODE BLOCK ADDRESS 0x1045 ===
  0x1045	jne    	0x1057
  === BLOCK LINK ===
    0x1047
    0x1057
=== CODE BLOCK END ===

=== CODE BLOCK ADDRESS 0x1047 ===
  0x1047	dec    	eax
  0x1048	call   	dword ptr [0x30fa]
  === BLOCK LINK ===
    0x104e
=== CODE BLOCK END ===

=== CODE BLOCK ADDRESS 0x104e ===
  0x104e	nop    	dword ptr [eax + eax]
  0x1053	mov    	ebx, eax
  0x1055	jmp    	0x10a0
  === BLOCK LINK ===
    0x1057
    0x10a0
=== CODE BLOCK END ===

=== CODE BLOCK ADDRESS 0x1057 ===
  0x1057	dec    	eax
  0x1058	lea    	edx, [0x33ea]
  0x105e	dec    	eax
  0x105f	mov    	ecx, edi
  0x1061	dec    	eax
  === BLOCK LINK ===
    0x1062
=== CODE BLOCK END ===

=== CODE BLOCK ADDRESS 0x1062 ===
  0x1062	call   	dword ptr [0x3168]
  === BLOCK LINK ===
    0x1068
=== CODE BLOCK END ===

=== CODE BLOCK ADDRESS 0x1068 ===
  0x1068	nop    	dword ptr [eax + eax]
  0x106d	dec    	eax
  0x106e	test   	eax, eax
  0x1070	jne    	0x1082
  === BLOCK LINK ===
    0x1072
    0x1082
=== CODE BLOCK END ===

=== CODE BLOCK ADDRESS 0x1072 ===
  0x1072	dec    	eax
  0x1073	call   	dword ptr [0x30cf]
  === BLOCK LINK ===
    0x1079
=== CODE BLOCK END ===

=== CODE BLOCK ADDRESS 0x1079 ===
  0x1079	nop    	dword ptr [eax + eax]
  0x107e	mov    	ebx, eax
  0x1080	jmp    	0x1091
  === BLOCK LINK ===
    0x1082
    0x1091
=== CODE BLOCK END ===

=== CODE BLOCK ADDRESS 0x1082 ===
  0x1082	inc    	esp
  0x1083	mov    	eax, esi
  0x1085	dec    	eax
  0x1086	mov    	edx, ebp
  0x1088	dec    	ecx
  === BLOCK LINK ===
    0x1089
=== CODE BLOCK END ===

=== CODE BLOCK ADDRESS 0x1089 ===
  0x1089	mov    	ecx, esi
  0x108b	call   	dword ptr [0x3337]
  === BLOCK LINK ===
    0x1091
=== CODE BLOCK END ===

=== CODE BLOCK ADDRESS 0x1091 ===
  0x1091	dec    	eax
  0x1092	mov    	ecx, edi
  0x1094	dec    	eax
  0x1095	call   	dword ptr [0x3125]
  === BLOCK LINK ===
    0x109b
=== CODE BLOCK END ===

=== CODE BLOCK ADDRESS 0x109b ===
  0x109b	nop    	dword ptr [eax + eax]
  === BLOCK LINK ===
    0x10a0
=== CODE BLOCK END ===

=== CODE BLOCK ADDRESS 0x10a8 ===
  0x10a8	mov    	ebx, dword ptr [esp + 0x30]
  0x10ac	dec    	eax
  0x10ad	mov    	esi, dword ptr [esp + 0x40]
  0x10b1	dec    	eax
  0x10b2	mov    	edi, dword ptr [esp + 0x48]
  === BLOCK LINK ===
    0x10b6
=== CODE BLOCK END ===

=== CODE BLOCK ADDRESS 0x10b6 ===
  0x10b6	dec    	eax
  0x10b7	add    	esp, 0x20
  0x10ba	inc    	ecx
  0x10bb	pop    	esi
  0x10bc	ret    	
  === BLOCK LINK ===
    0x10bd
=== CODE BLOCK END ===

=== CODE BLOCK ADDRESS 0x10bd ===
  0x10bd	int3   	
  0x10be	int3   	
  0x10bf	int3   	
  0x10c0	int3   	
  0x10c1	int3   	
  === BLOCK LINK ===
    0x10c2
=== CODE BLOCK END ===

=== CODE BLOCK ADDRESS 0x10c2 ===
  0x10c2	int3   	
  0x10c3	int3   	
  0x10c4	dec    	esp
  0x10c5	mov    	ebx, esp
  0x10c7	dec    	ecx
  === BLOCK LINK ===
    0x10c8
=== CODE BLOCK END ===

=== CODE BLOCK ADDRESS 0x10c8 ===
  0x10c8	mov    	dword ptr [ebx + 8], ebx
  0x10cb	dec    	ecx
  0x10cc	mov    	dword ptr [ebx + 0x10], esi
  0x10cf	dec    	ecx
  0x10d0	mov    	dword ptr [ebx + 0x18], edi
  === BLOCK LINK ===
    0x10d3
=== CODE BLOCK END ===

=== CODE BLOCK ADDRESS 0x10d3 ===
  0x10d3	dec    	ebp
  0x10d4	mov    	dword ptr [ebx + 0x20], esi
  0x10d7	inc    	ecx
  0x10d8	push   	edi
  0x10d9	dec    	eax
  === BLOCK LINK ===
    0x10da
=== CODE BLOCK END ===

=== CODE BLOCK ADDRESS 0x10da ===
  0x10da	sub    	esp, 0xb0
  0x10e0	dec    	eax
  0x10e1	mov    	eax, dword ptr [0x4f21]
  0x10e7	dec    	eax
  0x10e8	xor    	eax, esp
  === BLOCK LINK ===
    0x10ea
=== CODE BLOCK END ===

=== CODE BLOCK ADDRESS 0x10ea ===
  0x10ea	dec    	eax
  0x10eb	mov    	dword ptr [esp + 0xa0], eax
  0x10f2	inc    	ebp
  0x10f3	xor    	esi, esi
  0x10f5	dec    	ebp
  === BLOCK LINK ===
    0x10f6
=== CODE BLOCK END ===

=== CODE BLOCK ADDRESS 0x10f6 ===
  0x10f6	mov    	dword ptr [ebx - 0x40], esi
  0x10f9	inc    	ebp
  0x10fa	mov    	dword ptr [ebx - 0x4c], esi
  0x10fd	inc    	ebp
  0x10fe	xor    	ecx, ecx
  === BLOCK LINK ===
    0x1100
=== CODE BLOCK END ===

=== CODE BLOCK ADDRESS 0x1100 ===
  0x1100	inc    	ebp
  0x1101	xor    	eax, eax
  0x1103	inc    	ebp
  0x1104	lea    	edi, [esi + 1]
  0x1107	inc    	ecx
  === BLOCK LINK ===
    0x1108
=== CODE BLOCK END ===

=== CODE BLOCK ADDRESS 0x1108 ===
  0x1108	mov    	edx, edi
  0x110a	xor    	ecx, ecx
  0x110c	dec    	eax
  0x110d	call   	dword ptr [0x308d]
  === BLOCK LINK ===
    0x1113
=== CODE BLOCK END ===

=== CODE BLOCK ADDRESS 0x1113 ===
  0x1113	nop    	dword ptr [eax + eax]
  0x1118	inc    	ecx
  0x1119	mov    	ebx, esi
  0x111b	dec    	eax
  0x111c	lea    	ecx, [esp + 0x80]
  === BLOCK LINK ===
    0x1123
=== CODE BLOCK END ===

=== CODE BLOCK ADDRESS 0x1123 ===
  0x1123	call   	0x13fc
  === BLOCK LINK ===
    0x1128
    0x13fc
=== CODE BLOCK END ===

=== CODE BLOCK ADDRESS 0x1128 ===
  0x1128	test   	eax, eax
  0x112a	je     	0x11e7
  === BLOCK LINK ===
    0x1130
    0x11e7
=== CODE BLOCK END ===

=== CODE BLOCK ADDRESS 0x1130 ===
  0x1130	mov    	eax, dword ptr [0x54c6]
  0x1136	inc    	ecx
  0x1137	add    	eax, edi
  0x1139	mov    	dword ptr [0x54bd], eax
  0x113f	inc    	ecx
  === BLOCK LINK ===
    0x1140
=== CODE BLOCK END ===

=== CODE BLOCK ADDRESS 0x1140 ===
  0x1140	cmp    	eax, edi
  0x1142	jne    	0x117d
  === BLOCK LINK ===
    0x1144
    0x117d
=== CODE BLOCK END ===

=== CODE BLOCK ADDRESS 0x1144 ===
  0x1144	inc    	ecx
  0x1145	mov    	ebx, edi
  0x1147	dec    	eax
  0x1148	call   	dword ptr [0x304a]
  === BLOCK LINK ===
    0x114e
=== CODE BLOCK END ===

=== CODE BLOCK ADDRESS 0x114e ===
  0x114e	nop    	dword ptr [eax + eax]
  0x1153	dec    	eax
  0x1154	mov    	dword ptr [0x551e], eax
  0x115a	dec    	eax
  0x115b	test   	eax, eax
  === BLOCK LINK ===
    0x115d
=== CODE BLOCK END ===

=== CODE BLOCK ADDRESS 0x115d ===
  0x115d	je     	0x117d
  === BLOCK LINK ===
    0x115f
    0x117d
=== CODE BLOCK END ===

=== CODE BLOCK ADDRESS 0x115f ===
  0x115f	inc    	esp
  0x1160	mov    	dword ptr [0x551a], edi
  0x1166	call   	0x1a1c
  === BLOCK LINK ===
    0x116b
    0x1a1c
=== CODE BLOCK END ===

=== CODE BLOCK ADDRESS 0x116b ===
  0x116b	mov    	ecx, dword ptr [0x5487]
  0x1171	test   	eax, eax
  0x1173	inc    	ecx
  0x1174	cmovne  	ecx, edi
  0x1177	mov    	dword ptr [0x547b], ecx
  === BLOCK LINK ===
    0x117d
=== CODE BLOCK END ===

=== CODE BLOCK ADDRESS 0x117d ===
  0x117d	test   	ebx, ebx
  0x117f	je     	0x11b9
  === BLOCK LINK ===
    0x1181
    0x11b9
=== CODE BLOCK END ===

=== CODE BLOCK ADDRESS 0x1181 ===
  0x1181	inc    	esp
  0x1182	cmp    	dword ptr [0x5470], esi
  0x1188	jne    	0x11b9
  === BLOCK LINK ===
    0x118a
    0x11b9
=== CODE BLOCK END ===

=== CODE BLOCK ADDRESS 0x118a ===
  0x118a	dec    	esp
  0x118b	mov    	eax, dword ptr [0x545f]
  0x1191	dec    	ebp
  0x1192	test   	eax, eax
  0x1194	je     	0x11b2
  === BLOCK LINK ===
    0x1196
    0x11b2
=== CODE BLOCK END ===

=== CODE BLOCK ADDRESS 0x1196 ===
  0x1196	xor    	edx, edx
  0x1198	dec    	eax
  0x1199	mov    	ecx, dword ptr [0x54d9]
  0x119f	dec    	eax
  0x11a0	call   	dword ptr [0x3002]
  === BLOCK LINK ===
    0x11a6
=== CODE BLOCK END ===

=== CODE BLOCK ADDRESS 0x11a6 ===
  0x11a6	nop    	dword ptr [eax + eax]
  0x11ab	dec    	esp
  0x11ac	mov    	dword ptr [0x543e], esi
  === BLOCK LINK ===
    0x11b2
=== CODE BLOCK END ===

=== CODE BLOCK ADDRESS 0x11b9 ===
  0x11b9	dec    	eax
  0x11ba	lea    	eax, [esp + 0x80]
  0x11c1	.byte  	0xf0
  0x11c2	dec    	esp
  0x11c3	cmpxchg  	dword ptr [0x5416], esi
  === BLOCK LINK ===
    0x11ca
=== CODE BLOCK END ===

=== CODE BLOCK ADDRESS 0x11ca ===
  0x11ca	dec    	eax
  0x11cb	lea    	ecx, [esp + 0x80]
  0x11d2	dec    	eax
  0x11d3	cmp    	eax, ecx
  0x11d5	je     	0x11e7
  === BLOCK LINK ===
    0x11d7
    0x11e7
=== CODE BLOCK END ===

=== CODE BLOCK ADDRESS 0x11d7 ===
  0x11d7	dec    	eax
  0x11d8	mov    	edx, eax
  0x11da	dec    	eax
  0x11db	lea    	ecx, [esp + 0x80]
  0x11e2	call   	0x14b0
  === BLOCK LINK ===
    0x11e7
    0x14b0
=== CODE BLOCK END ===

=== CODE BLOCK ADDRESS 0x11e7 ===
  0x11e7	inc    	esp
  0x11e8	mov    	dword ptr [esp + 0x68], esi
  0x11ec	inc    	esp
  0x11ed	mov    	dword ptr [esp + 0x98], esi
  0x11f4	mov    	word ptr [esp + 0x9c], 0x500
  === BLOCK LINK ===
    0x11fe
=== CODE BLOCK END ===

=== CODE BLOCK ADDRESS 0x11fe ===
  0x11fe	mov    	ebx, 5
  0x1203	dec    	esp
  0x1204	mov    	dword ptr [esp + 0x70], esi
  0x1208	xor    	ecx, ecx
  0x120a	dec    	eax
  === BLOCK LINK ===
    0x120b
=== CODE BLOCK END ===

=== CODE BLOCK ADDRESS 0x120b ===
  0x120b	call   	dword ptr [0x2f2f]
  === BLOCK LINK ===
    0x1211
=== CODE BLOCK END ===

=== CODE BLOCK ADDRESS 0x1211 ===
  0x1211	nop    	dword ptr [eax + eax]
  0x1216	dec    	eax
  0x1217	lea    	eax, [esp + 0x70]
  0x121b	dec    	eax
  0x121c	mov    	dword ptr [esp + 0x50], eax
  === BLOCK LINK ===
    0x1220
=== CODE BLOCK END ===

=== CODE BLOCK ADDRESS 0x1220 ===
  0x1220	inc    	esp
  0x1221	mov    	dword ptr [esp + 0x48], esi
  0x1225	inc    	esp
  0x1226	mov    	dword ptr [esp + 0x40], esi
  0x122a	inc    	esp
  === BLOCK LINK ===
    0x122b
=== CODE BLOCK END ===

=== CODE BLOCK ADDRESS 0x122b ===
  0x122b	mov    	dword ptr [esp + 0x38], esi
  0x122f	inc    	esp
  0x1230	mov    	dword ptr [esp + 0x30], esi
  0x1234	inc    	esp
  0x1235	mov    	dword ptr [esp + 0x28], esi
  === BLOCK LINK ===
    0x1239
=== CODE BLOCK END ===

=== CODE BLOCK ADDRESS 0x1239 ===
  0x1239	inc    	esp
  0x123a	mov    	dword ptr [esp + 0x20], esi
  0x123e	inc    	ecx
  0x123f	mov    	ecx, 0x220
  0x1244	inc    	esp
  === BLOCK LINK ===
    0x1245
=== CODE BLOCK END ===

=== CODE BLOCK ADDRESS 0x1245 ===
  0x1245	lea    	eax, [ebx + 0x1b]
  0x1248	mov    	dl, 2
  0x124a	dec    	eax
  0x124b	lea    	ecx, [esp + 0x98]
  0x1252	dec    	eax
  === BLOCK LINK ===
    0x1253
=== CODE BLOCK END ===

=== CODE BLOCK ADDRESS 0x1253 ===
  0x1253	call   	dword ptr [0x304f]
  === BLOCK LINK ===
    0x1259
=== CODE BLOCK END ===

=== CODE BLOCK ADDRESS 0x1259 ===
  0x1259	nop    	dword ptr [eax + eax]
  0x125e	test   	eax, eax
  0x1260	jne    	0x1280
  === BLOCK LINK ===
    0x1262
    0x1280
=== CODE BLOCK END ===

=== CODE BLOCK ADDRESS 0x1262 ===
  0x1262	dec    	eax
  0x1263	call   	dword ptr [0x2edf]
  === BLOCK LINK ===
    0x1269
=== CODE BLOCK END ===

=== CODE BLOCK ADDRESS 0x1269 ===
  0x1269	nop    	dword ptr [eax + eax]
  0x126e	mov    	edi, eax
  0x1270	mov    	esi, 0x507
  0x1275	test   	eax, eax
  0x1277	cmove  	edi, esi
  === BLOCK LINK ===
    0x127a
=== CODE BLOCK END ===

=== CODE BLOCK ADDRESS 0x127a ===
  0x127a	test   	edi, edi
  0x127c	jne    	0x12d8
  === BLOCK LINK ===
    0x127e
    0x12d8
=== CODE BLOCK END ===

=== CODE BLOCK ADDRESS 0x127e ===
  0x127e	jmp    	0x1285
  === BLOCK LINK ===
    0x1280
    0x1285
=== CODE BLOCK END ===

=== CODE BLOCK ADDRESS 0x1280 ===
  0x1280	mov    	esi, 0x507
  === BLOCK LINK ===
    0x1285
=== CODE BLOCK END ===

=== CODE BLOCK ADDRESS 0x128e ===
  0x128e	nop    	dword ptr [eax + eax]
  0x1293	dec    	esp
  0x1294	lea    	eax, [esp + 0x68]
  0x1298	dec    	eax
  0x1299	mov    	edx, dword ptr [esp + 0x70]
  === BLOCK LINK ===
    0x129d
=== CODE BLOCK END ===

=== CODE BLOCK ADDRESS 0x129d ===
  0x129d	xor    	ecx, ecx
  0x129f	dec    	eax
  0x12a0	call   	dword ptr [0x300a]
  === BLOCK LINK ===
    0x12a6
=== CODE BLOCK END ===

=== CODE BLOCK ADDRESS 0x12a6 ===
  0x12a6	nop    	dword ptr [eax + eax]
  0x12ab	test   	eax, eax
  0x12ad	je     	0x12b4
  === BLOCK LINK ===
    0x12af
    0x12b4
=== CODE BLOCK END ===

=== CODE BLOCK ADDRESS 0x12af ===
  0x12af	inc    	ecx
  0x12b0	mov    	edi, esi
  0x12b2	jmp    	0x12cb
  === BLOCK LINK ===
    0x12b4
    0x12cb
=== CODE BLOCK END ===

=== CODE BLOCK ADDRESS 0x12b4 ===
  0x12b4	dec    	eax
  0x12b5	call   	dword ptr [0x2e8d]
  === BLOCK LINK ===
    0x12bb
=== CODE BLOCK END ===

=== CODE BLOCK ADDRESS 0x12bb ===
  0x12bb	nop    	dword ptr [eax + eax]
  0x12c0	mov    	edi, eax
  0x12c2	test   	eax, eax
  0x12c4	cmove  	edi, esi
  0x12c7	test   	edi, edi
  === BLOCK LINK ===
    0x12c9
=== CODE BLOCK END ===

=== CODE BLOCK ADDRESS 0x12c9 ===
  0x12c9	jne    	0x12d8
  === BLOCK LINK ===
    0x12cb
    0x12d8
=== CODE BLOCK END ===

=== CODE BLOCK ADDRESS 0x12cb ===
  0x12cb	mov    	eax, 0x529
  0x12d0	inc    	esp
  0x12d1	cmp    	dword ptr [esp + 0x68], esi
  0x12d5	cmove  	edi, eax
  0x12d8	dec    	eax
  === BLOCK LINK ===
    0x12d9
=== CODE BLOCK END ===

=== CODE BLOCK ADDRESS 0x12d9 ===
  0x12d9	mov    	ecx, dword ptr [esp + 0x70]
  0x12dd	dec    	eax
  0x12de	test   	ecx, ecx
  0x12e0	je     	0x12ee
  === BLOCK LINK ===
    0x12e2
    0x12ee
=== CODE BLOCK END ===

=== CODE BLOCK ADDRESS 0x12e2 ===
  0x12e2	dec    	eax
  0x12e3	call   	dword ptr [0x2fb7]
  === BLOCK LINK ===
    0x12e9
=== CODE BLOCK END ===

=== CODE BLOCK ADDRESS 0x12e9 ===
  0x12e9	nop    	dword ptr [eax + eax]
  === BLOCK LINK ===
    0x12ee
=== CODE BLOCK END ===

=== CODE BLOCK ADDRESS 0x12f7 ===
  0x12f7	nop    	dword ptr [eax + eax]
  0x12fc	test   	edi, edi
  0x12fe	jne    	0x13e0
  === BLOCK LINK ===
    0x1304
    0x13e0
=== CODE BLOCK END ===

=== CODE BLOCK ADDRESS 0x1304 ===
  0x1304	dec    	eax
  0x1305	call   	dword ptr [0x2eed]
  === BLOCK LINK ===
    0x130b
=== CODE BLOCK END ===

=== CODE BLOCK ADDRESS 0x130b ===
  0x130b	nop    	dword ptr [eax + eax]
  0x1310	dec    	eax
  0x1311	test   	eax, eax
  0x1313	jne    	0x131f
  === BLOCK LINK ===
    0x1315
    0x131f
=== CODE BLOCK END ===

=== CODE BLOCK ADDRESS 0x1315 ===
  0x1315	mov    	ebx, 0x57
  0x131a	jmp    	0x13e0
  === BLOCK LINK ===
    0x131f
    0x13e0
=== CODE BLOCK END ===

=== CODE BLOCK ADDRESS 0x131f ===
  0x131f	dec    	eax
  0x1320	lea    	edx, [esp + 0x64]
  0x1324	dec    	eax
  0x1325	mov    	ecx, eax
  0x1327	dec    	eax
  === BLOCK LINK ===
    0x1328
=== CODE BLOCK END ===

=== CODE BLOCK ADDRESS 0x1328 ===
  0x1328	call   	dword ptr [0x2dfa]
  === BLOCK LINK ===
    0x132e
=== CODE BLOCK END ===

=== CODE BLOCK ADDRESS 0x132e ===
  0x132e	nop    	dword ptr [eax + eax]
  0x1333	dec    	eax
  0x1334	mov    	ebx, eax
  0x1336	cmp    	dword ptr [esp + 0x64], 2
  0x133b	jl     	0x1315
  === BLOCK LINK ===
    0x133d
    0x1315
=== CODE BLOCK END ===

=== CODE BLOCK ADDRESS 0x133d ===
  0x133d	cmp    	dword ptr [esp + 0x64], 3
  0x1342	jge    	0x1352
  === BLOCK LINK ===
    0x1344
    0x1352
=== CODE BLOCK END ===

=== CODE BLOCK ADDRESS 0x1344 ===
  0x1344	mov    	ebx, 0x57
  0x1349	mov    	dword ptr [esp + 0x60], ebx
  0x134d	jmp    	0x13e0
  === BLOCK LINK ===
    0x1352
    0x13e0
=== CODE BLOCK END ===

=== CODE BLOCK ADDRESS 0x1352 ===
  0x1352	dec    	esp
  0x1353	lea    	eax, [esp + 0x78]
  0x1357	dec    	eax
  0x1358	lea    	edx, [0x3102]
  0x135e	dec    	eax
  === BLOCK LINK ===
    0x135f
=== CODE BLOCK END ===

=== CODE BLOCK ADDRESS 0x135f ===
  0x135f	mov    	ecx, dword ptr [eax + 8]
  0x1362	dec    	eax
  0x1363	call   	dword ptr [0x2fdf]
  === BLOCK LINK ===
    0x1369
=== CODE BLOCK END ===

=== CODE BLOCK ADDRESS 0x1369 ===
  0x1369	nop    	dword ptr [eax + eax]
  0x136e	inc    	ecx
  0x136f	cmp    	eax, edi
  0x1371	je     	0x137e
  === BLOCK LINK ===
    0x1373
    0x137e
=== CODE BLOCK END ===

=== CODE BLOCK ADDRESS 0x1373 ===
  0x1373	mov    	ebx, 0x57
  0x1378	mov    	dword ptr [esp + 0x60], ebx
  0x137c	jmp    	0x13e0
  === BLOCK LINK ===
    0x137e
    0x13e0
=== CODE BLOCK END ===

=== CODE BLOCK ADDRESS 0x137e ===
  0x137e	cmp    	dword ptr [esp + 0x64], 4
  0x1383	jl     	0x13b1
  === BLOCK LINK ===
    0x1385
    0x13b1
=== CODE BLOCK END ===

=== CODE BLOCK ADDRESS 0x1385 ===
  0x1385	dec    	esp
  0x1386	lea    	eax, [esp + 0x6c]
  0x138a	dec    	eax
  0x138b	lea    	edx, [0x30cf]
  0x1391	dec    	eax
  === BLOCK LINK ===
    0x1392
=== CODE BLOCK END ===

=== CODE BLOCK ADDRESS 0x1392 ===
  0x1392	mov    	ecx, dword ptr [ebx + 0x18]
  0x1395	dec    	eax
  0x1396	call   	dword ptr [0x2fac]
  === BLOCK LINK ===
    0x139c
=== CODE BLOCK END ===

=== CODE BLOCK ADDRESS 0x139c ===
  0x139c	nop    	dword ptr [eax + eax]
  0x13a1	inc    	ecx
  0x13a2	cmp    	eax, edi
  0x13a4	je     	0x13b1
  === BLOCK LINK ===
    0x13a6
    0x13b1
=== CODE BLOCK END ===

=== CODE BLOCK ADDRESS 0x13a6 ===
  0x13a6	mov    	ebx, 0x57
  0x13ab	mov    	dword ptr [esp + 0x60], ebx
  0x13af	jmp    	0x13e0
  === BLOCK LINK ===
    0x13b1
    0x13e0
=== CODE BLOCK END ===

=== CODE BLOCK ADDRESS 0x13b1 ===
  0x13b1	inc    	esp
  0x13b2	mov    	eax, dword ptr [esp + 0x6c]
  0x13b6	dec    	eax
  0x13b7	mov    	edx, dword ptr [ebx + 0x10]
  0x13ba	dec    	eax
  === BLOCK LINK ===
    0x13bb
=== CODE BLOCK END ===

=== CODE BLOCK ADDRESS 0x13bb ===
  0x13bb	mov    	ecx, dword ptr [esp + 0x78]
  0x13bf	call   	0x1008
  === BLOCK LINK ===
    0x13c4
    0x1008
=== CODE BLOCK END ===

=== CODE BLOCK ADDRESS 0x13c4 ===
  0x13c4	mov    	ebx, eax
  0x13c6	mov    	dword ptr [esp + 0x60], eax
  0x13ca	jmp    	0x13e0
  === BLOCK LINK ===
    0x13cc
    0x13e0
=== CODE BLOCK END ===

=== CODE BLOCK ADDRESS 0x13cc ===
  0x13cc	mov    	ecx, eax
  0x13ce	dec    	eax
  0x13cf	call   	dword ptr [0x2fdb]
  === BLOCK LINK ===
    0x13d5
=== CODE BLOCK END ===

=== CODE BLOCK ADDRESS 0x13d5 ===
  0x13d5	nop    	dword ptr [eax + eax]
  0x13da	mov    	ebx, eax
  0x13dc	mov    	dword ptr [esp + 0x60], eax
  0x13e0	call   	0x1914
  === BLOCK LINK ===
    0x13e5
    0x1914
=== CODE BLOCK END ===

=== CODE BLOCK ADDRESS 0x13e5 ===
  0x13e5	mov    	ecx, ebx
  0x13e7	dec    	eax
  0x13e8	call   	dword ptr [0x2e1a]
  === BLOCK LINK ===
    0x13ee
=== CODE BLOCK END ===

=== CODE BLOCK ADDRESS 0x13ee ===
  0x13ee	nop    	dword ptr [eax + eax]
  0x13f3	nop    	
  0x13f4	int3   	
  0x13f5	int3   	
  0x13f6	int3   	
  === BLOCK LINK ===
    0x13f7
=== CODE BLOCK END ===

=== CODE BLOCK ADDRESS 0x13f7 ===
  0x13f7	int3   	
  0x13f8	int3   	
  0x13f9	int3   	
  0x13fa	int3   	
  0x13fb	int3   	
  === BLOCK LINK ===
    0x13fc
=== CODE BLOCK END ===

=== CODE BLOCK ADDRESS 0x13fc ===
  0x13fc	dec    	eax
  0x13fd	mov    	dword ptr [esp + 8], ebx
  0x1401	push   	edi
  0x1402	dec    	eax
  0x1403	sub    	esp, 0x20
  === BLOCK LINK ===
    0x1406
=== CODE BLOCK END ===

=== CODE BLOCK ADDRESS 0x1406 ===
  0x1406	dec    	eax
  0x1407	and    	dword ptr [ecx + 0x10], 0
  0x140b	dec    	eax
  0x140c	mov    	ebx, ecx
  0x140e	dec    	eax
  === BLOCK LINK ===
    0x140f
=== CODE BLOCK END ===

=== CODE BLOCK ADDRESS 0x140f ===
  0x140f	and    	dword ptr [ecx + 8], 0
  0x1413	dec    	eax
  0x1414	and    	dword ptr [ecx], 0
  0x1417	xor    	eax, eax
  0x1419	.byte  	0xf0
  === BLOCK LINK ===
    0x141a
=== CODE BLOCK END ===

=== CODE BLOCK ADDRESS 0x141a ===
  0x141a	dec    	eax
  0x141b	cmpxchg  	dword ptr [0x51be], ebx
  0x1422	je     	0x1499
  === BLOCK LINK ===
    0x1424
    0x1499
=== CODE BLOCK END ===

=== CODE BLOCK ADDRESS 0x1424 ===
  0x1424	inc    	ebp
  0x1425	xor    	ecx, ecx
  0x1427	inc    	ebp
  0x1428	xor    	eax, eax
  0x142a	xor    	edx, edx
  === BLOCK LINK ===
    0x142c
=== CODE BLOCK END ===

=== CODE BLOCK ADDRESS 0x142c ===
  0x142c	xor    	ecx, ecx
  0x142e	dec    	eax
  0x142f	call   	dword ptr [0x2e1b]
  === BLOCK LINK ===
    0x1435
=== CODE BLOCK END ===

=== CODE BLOCK ADDRESS 0x1435 ===
  0x1435	nop    	dword ptr [eax + eax]
  0x143a	dec    	eax
  0x143b	mov    	dword ptr [ebx], eax
  0x143d	dec    	eax
  0x143e	test   	eax, eax
  === BLOCK LINK ===
    0x1440
=== CODE BLOCK END ===

=== CODE BLOCK ADDRESS 0x1440 ===
  0x1440	je     	0x1495
  === BLOCK LINK ===
    0x1442
    0x1495
=== CODE BLOCK END ===

=== CODE BLOCK ADDRESS 0x1442 ===
  0x1442	dec    	eax
  0x1443	mov    	ecx, dword ptr [0x5197]
  0x1449	dec    	eax
  0x144a	mov    	dword ptr [ebx + 8], ecx
  0x144d	dec    	eax
  === BLOCK LINK ===
    0x144e
=== CODE BLOCK END ===

=== CODE BLOCK ADDRESS 0x144e ===
  0x144e	mov    	eax, ecx
  0x1450	.byte  	0xf0
  0x1451	dec    	eax
  0x1452	cmpxchg  	dword ptr [0x5187], ebx
  0x1459	dec    	eax
  === BLOCK LINK ===
    0x145a
=== CODE BLOCK END ===

=== CODE BLOCK ADDRESS 0x145a ===
  0x145a	cmp    	ecx, eax
  0x145c	jne    	0x1442
  === BLOCK LINK ===
    0x145e
    0x1442
=== CODE BLOCK END ===

=== CODE BLOCK ADDRESS 0x145e ===
  0x145e	dec    	eax
  0x145f	test   	ecx, ecx
  0x1461	je     	0x147c
  === BLOCK LINK ===
    0x1463
    0x147c
=== CODE BLOCK END ===

=== CODE BLOCK ADDRESS 0x1463 ===
  0x1463	dec    	eax
  0x1464	mov    	ecx, dword ptr [ebx]
  0x1466	inc    	ebp
  0x1467	xor    	eax, eax
  0x1469	or     	edx, 0xffffffff
  === BLOCK LINK ===
    0x146c
=== CODE BLOCK END ===

=== CODE BLOCK ADDRESS 0x146c ===
  0x146c	dec    	eax
  0x146d	call   	dword ptr [0x2ded]
  === BLOCK LINK ===
    0x1473
=== CODE BLOCK END ===

=== CODE BLOCK ADDRESS 0x1473 ===
  0x1473	nop    	dword ptr [eax + eax]
  0x1478	mov    	edi, eax
  0x147a	jmp    	0x147e
  === BLOCK LINK ===
    0x147c
    0x147e
=== CODE BLOCK END ===

=== CODE BLOCK ADDRESS 0x147c ===
  0x147c	xor    	edi, edi
  === BLOCK LINK ===
    0x147e
=== CODE BLOCK END ===

=== CODE BLOCK ADDRESS 0x1488 ===
  0x1488	nop    	dword ptr [eax + eax]
  0x148d	dec    	eax
  0x148e	and    	dword ptr [ebx], 0
  0x1491	test   	edi, edi
  0x1493	je     	0x1499
  === BLOCK LINK ===
    0x1495
    0x1499
=== CODE BLOCK END ===

=== CODE BLOCK ADDRESS 0x1495 ===
  0x1495	xor    	eax, eax
  0x1497	jmp    	0x149e
  === BLOCK LINK ===
    0x1499
    0x149e
=== CODE BLOCK END ===

=== CODE BLOCK ADDRESS 0x1499 ===
  0x1499	mov    	eax, 1
  === BLOCK LINK ===
    0x149e
=== CODE BLOCK END ===

=== CODE BLOCK ADDRESS 0x14a7 ===
  0x14a7	pop    	edi
  0x14a8	ret    	
  0x14a9	int3   	
  0x14aa	int3   	
  0x14ab	int3   	
  === BLOCK LINK ===
    0x14ac
=== CODE BLOCK END ===

=== CODE BLOCK ADDRESS 0x10a0 ===
  0x10a0	dec    	eax
  0x10a1	mov    	ebp, dword ptr [esp + 0x38]
  0x10a5	mov    	eax, ebx
  0x10a7	dec    	eax
  === BLOCK LINK ===
    0x10a8
=== CODE BLOCK END ===

=== CODE BLOCK ADDRESS 0x14ac ===
  0x14ac	int3   	
  0x14ad	int3   	
  0x14ae	int3   	
  0x14af	int3   	
  0x14b0	dec    	esp
  === BLOCK LINK ===
    0x14b1
=== CODE BLOCK END ===

=== CODE BLOCK ADDRESS 0x14b1 ===
  0x14b1	mov    	eax, ecx
  0x14b3	dec    	eax
  0x14b4	mov    	ecx, dword ptr [ecx + 0x10]
  0x14b7	dec    	eax
  0x14b8	test   	ecx, ecx
  === BLOCK LINK ===
    0x14ba
=== CODE BLOCK END ===

=== CODE BLOCK ADDRESS 0x14ba ===
  0x14ba	jne    	0x14d6
  === BLOCK LINK ===
    0x14bc
=== CODE BLOCK END ===

=== CODE BLOCK ADDRESS 0x14bc ===
  0x14bc	dec    	ecx
  0x14bd	cmp    	edx, eax
  0x14bf	je     	0x14d6
  === BLOCK LINK ===
    0x14c1
=== CODE BLOCK END ===

=== CODE BLOCK ADDRESS 0x14c1 ===
  0x14c1	dec    	eax
  0x14c2	mov    	eax, dword ptr [edx + 8]
  0x14c5	dec    	eax
  0x14c6	mov    	dword ptr [eax + 0x10], edx
  0x14c9	dec    	eax
  === BLOCK LINK ===
    0x14ca
=== CODE BLOCK END ===

=== CODE BLOCK ADDRESS 0x14ca ===
  0x14ca	mov    	edx, dword ptr [edx + 8]
  0x14cd	dec    	ecx
  0x14ce	cmp    	edx, eax
  0x14d0	jne    	0x14c1
  === BLOCK LINK ===
    0x14d2
=== CODE BLOCK END ===

=== CODE BLOCK ADDRESS 0x14d2 ===
  0x14d2	dec    	ecx
  0x14d3	mov    	ecx, dword ptr [eax + 0x10]
  0x14d6	dec    	eax
  0x14d7	and    	dword ptr [ecx + 8], 0
  0x14db	dec    	eax
  === BLOCK LINK ===
    0x14dc
=== CODE BLOCK END ===

=== CODE BLOCK ADDRESS 0x14dc ===
  0x14dc	mov    	ecx, dword ptr [ecx]
  0x14de	dec    	eax
  0x14df	jmp    	dword ptr [0x2d73]
  === BLOCK LINK ===
    0x14e5
=== CODE BLOCK END ===

=== CODE BLOCK ADDRESS 0x14e5 ===
  0x14e5	int3   	
  0x14e6	int3   	
  0x14e7	int3   	
  0x14e8	int3   	
  0x14e9	int3   	
  === BLOCK LINK ===
    0x14ea
=== CODE BLOCK END ===

=== CODE BLOCK ADDRESS 0x14ea ===
  0x14ea	int3   	
  0x14eb	int3   	
  0x14ec	int3   	
  0x14ed	int3   	
  0x14ee	int3   	
  === BLOCK LINK ===
    0x14ef
=== CODE BLOCK END ===

=== CODE BLOCK ADDRESS 0x14ef ===
  0x14ef	int3   	
  0x14f0	dec    	eax
  0x14f1	mov    	dword ptr [esp + 0x18], ebx
  0x14f5	dec    	eax
  0x14f6	mov    	dword ptr [esp + 0x20], esi
  === BLOCK LINK ===
    0x14fa
=== CODE BLOCK END ===

=== CODE BLOCK ADDRESS 0x14fa ===
  0x14fa	push   	edi
  0x14fb	dec    	eax
  0x14fc	sub    	esp, 0x260
  0x1502	dec    	eax
  0x1503	mov    	eax, dword ptr [0x4aff]
  === BLOCK LINK ===
    0x1509
=== CODE BLOCK END ===

=== CODE BLOCK ADDRESS 0x1509 ===
  0x1509	dec    	eax
  0x150a	xor    	eax, esp
  0x150c	dec    	eax
  0x150d	mov    	dword ptr [esp + 0x250], eax
  0x1514	and    	dword ptr [esp + 0x30], 0
  === BLOCK LINK ===
    0x1519
=== CODE BLOCK END ===

=== CODE BLOCK ADDRESS 0x1519 ===
  0x1519	dec    	eax
  0x151a	mov    	ebx, edx
  0x151c	dec    	eax
  0x151d	mov    	esi, ecx
  0x151f	dec    	eax
  === BLOCK LINK ===
    0x1520
=== CODE BLOCK END ===

=== CODE BLOCK ADDRESS 0x1520 ===
  0x1520	mov    	dword ptr [esp + 0x20], ecx
  0x1524	dec    	eax
  0x1525	lea    	edx, [0x2f45]
  0x152b	mov    	dword ptr [esp + 0x34], 0x208
  0x1533	dec    	eax
  === BLOCK LINK ===
    0x1534
=== CODE BLOCK END ===

=== CODE BLOCK ADDRESS 0x1534 ===
  0x1534	mov    	ecx, 0x80000002
  0x153a	inc    	ecx
  0x153b	mov    	ecx, 1
  0x1540	call   	0x1cbc
  === BLOCK LINK ===
    0x1545
=== CODE BLOCK END ===

=== CODE BLOCK ADDRESS 0x1545 ===
  0x1545	mov    	edi, eax
  0x1547	test   	eax, eax
  0x1549	jne    	0x15a0
  === BLOCK LINK ===
    0x154b
=== CODE BLOCK END ===

=== CODE BLOCK ADDRESS 0x154b ===
  0x154b	dec    	eax
  0x154c	test   	ebx, ebx
  0x154e	je     	0x15a0
  === BLOCK LINK ===
    0x1550
=== CODE BLOCK END ===

=== CODE BLOCK ADDRESS 0x1550 ===
  0x1550	dec    	eax
  0x1551	mov    	ecx, dword ptr [esi]
  0x1553	dec    	eax
  0x1554	lea    	eax, [esp + 0x34]
  0x1558	dec    	esp
  === BLOCK LINK ===
    0x1559
=== CODE BLOCK END ===

=== CODE BLOCK ADDRESS 0x1559 ===
  0x1559	lea    	ecx, [esp + 0x40]
  0x155d	dec    	eax
  0x155e	mov    	dword ptr [esp + 0x20], eax
  0x1562	dec    	esp
  0x1563	lea    	eax, [esp + 0x30]
  === BLOCK LINK ===
    0x1567
=== CODE BLOCK END ===

=== CODE BLOCK ADDRESS 0x1567 ===
  0x1567	dec    	eax
  0x1568	lea    	edx, [0x2f62]
  0x156e	call   	0x1db4
  === BLOCK LINK ===
    0x1573
=== CODE BLOCK END ===

=== CODE BLOCK ADDRESS 0x1573 ===
  0x1573	test   	eax, eax
  0x1575	jne    	0x159c
  === BLOCK LINK ===
    0x1577
=== CODE BLOCK END ===

=== CODE BLOCK ADDRESS 0x1577 ===
  0x1577	cmp    	dword ptr [esp + 0x30], 1
  0x157c	jne    	0x159c
  === BLOCK LINK ===
    0x157e
=== CODE BLOCK END ===

=== CODE BLOCK ADDRESS 0x157e ===
  0x157e	inc    	esp
  0x157f	lea    	ecx, [edi + 1]
  0x1582	dec    	eax
  0x1583	mov    	dword ptr [esp + 0x20], ebx
  0x1587	dec    	eax
  === BLOCK LINK ===
    0x1588
=== CODE BLOCK END ===

=== CODE BLOCK ADDRESS 0x1588 ===
  0x1588	lea    	edx, [esp + 0x40]
  0x158c	dec    	eax
  0x158d	mov    	ecx, 0x80000002
  0x1593	call   	0x1cbc
  === BLOCK LINK ===
    0x1598
=== CODE BLOCK END ===

=== CODE BLOCK ADDRESS 0x1598 ===
  0x1598	test   	eax, eax
  0x159a	je     	0x15a0
  === BLOCK LINK ===
    0x159c
=== CODE BLOCK END ===

=== CODE BLOCK ADDRESS 0x159c ===
  0x159c	dec    	eax
  0x159d	and    	dword ptr [ebx], 0
  0x15a0	mov    	eax, edi
  0x15a2	dec    	eax
  0x15a3	mov    	ecx, dword ptr [esp + 0x250]
  === BLOCK LINK ===
    0x15aa
=== CODE BLOCK END ===

=== CODE BLOCK ADDRESS 0x15aa ===
  0x15aa	dec    	eax
  0x15ab	xor    	ecx, esp
  0x15ad	call   	0x2a90
  === BLOCK LINK ===
    0x15b2
=== CODE BLOCK END ===

=== CODE BLOCK ADDRESS 0x15b2 ===
  0x15b2	dec    	esp
  0x15b3	lea    	ebx, [esp + 0x260]
  0x15ba	dec    	ecx
  0x15bb	mov    	ebx, dword ptr [ebx + 0x20]
  0x15be	dec    	ecx
  === BLOCK LINK ===
    0x15bf
=== CODE BLOCK END ===

=== CODE BLOCK ADDRESS 0x15bf ===
  0x15bf	mov    	esi, dword ptr [ebx + 0x28]
  0x15c2	dec    	ecx
  0x15c3	mov    	esp, ebx
  0x15c5	pop    	edi
  0x15c6	ret    	
  === BLOCK LINK ===
    0x15c7
=== CODE BLOCK END ===

=== CODE BLOCK ADDRESS 0x15c7 ===
  0x15c7	int3   	
  0x15c8	int3   	
  0x15c9	int3   	
  0x15ca	int3   	
  0x15cb	int3   	
  === BLOCK LINK ===
    0x15cc
=== CODE BLOCK END ===

=== CODE BLOCK ADDRESS 0x15cc ===
  0x15cc	int3   	
  0x15cd	int3   	
  0x15ce	int3   	
  0x15cf	int3   	
  0x15d0	dec    	esp
  === BLOCK LINK ===
    0x15d1
=== CODE BLOCK END ===

=== CODE BLOCK ADDRESS 0x15d1 ===
  0x15d1	mov    	ebx, esp
  0x15d3	dec    	ecx
  0x15d4	mov    	dword ptr [ebx + 8], ebx
  0x15d7	dec    	ecx
  0x15d8	mov    	dword ptr [ebx + 0x18], ebp
  === BLOCK LINK ===
    0x15db
=== CODE BLOCK END ===

=== CODE BLOCK ADDRESS 0x15db ===
  0x15db	dec    	ecx
  0x15dc	mov    	dword ptr [ebx + 0x20], esi
  0x15df	push   	edi
  0x15e0	dec    	eax
  0x15e1	sub    	esp, 0x30
  === BLOCK LINK ===
    0x15e4
=== CODE BLOCK END ===

=== CODE BLOCK ADDRESS 0x15e4 ===
  0x15e4	xor    	ebx, ebx
  0x15e6	dec    	ecx
  0x15e7	mov    	edi, ecx
  0x15e9	and    	dword ptr [esp + 0x48], ebx
  0x15ed	dec    	ecx
  === BLOCK LINK ===
    0x15ee
=== CODE BLOCK END ===

=== CODE BLOCK ADDRESS 0x15ee ===
  0x15ee	mov    	esi, eax
  0x15f0	dec    	eax
  0x15f1	mov    	eax, edx
  0x15f3	dec    	eax
  0x15f4	mov    	ebp, ecx
  === BLOCK LINK ===
    0x15f6
=== CODE BLOCK END ===

=== CODE BLOCK ADDRESS 0x15f6 ===
  0x15f6	dec    	eax
  0x15f7	test   	edx, edx
  0x15f9	je     	0x1620
  === BLOCK LINK ===
    0x15fb
=== CODE BLOCK END ===

=== CODE BLOCK ADDRESS 0x15fb ===
  0x15fb	dec    	ebp
  0x15fc	mov    	dword ptr [ebx - 0x18], ecx
  0x15ff	dec    	eax
  0x1600	lea    	edx, [0x2eea]
  0x1606	dec    	ebp
  === BLOCK LINK ===
    0x1607
=== CODE BLOCK END ===

=== CODE BLOCK ADDRESS 0x1607 ===
  0x1607	mov    	ecx, eax
  0x1609	dec    	eax
  0x160a	mov    	ecx, eax
  0x160c	dec    	ebp
  0x160d	lea    	eax, [ebx + 0x10]
  === BLOCK LINK ===
    0x1610
=== CODE BLOCK END ===

=== CODE BLOCK ADDRESS 0x1610 ===
  0x1610	call   	0x1db4
  === BLOCK LINK ===
    0x1615
=== CODE BLOCK END ===

=== CODE BLOCK ADDRESS 0x1615 ===
  0x1615	test   	eax, eax
  0x1617	jne    	0x1620
  === BLOCK LINK ===
    0x1619
=== CODE BLOCK END ===

=== CODE BLOCK ADDRESS 0x1619 ===
  0x1619	cmp    	dword ptr [esp + 0x48], 1
  0x161e	je     	0x1655
  === BLOCK LINK ===
    0x1620
=== CODE BLOCK END ===

=== CODE BLOCK ADDRESS 0x1620 ===
  0x1620	mov    	eax, dword ptr [esp + 0x60]
  0x1624	dec    	esp
  0x1625	lea    	eax, [esp + 0x48]
  0x1629	dec    	esp
  0x162a	mov    	ecx, esi
  === BLOCK LINK ===
    0x162c
=== CODE BLOCK END ===

=== CODE BLOCK ADDRESS 0x162c ===
  0x162c	mov    	dword ptr [edi], eax
  0x162e	dec    	eax
  0x162f	lea    	edx, [0x2ebb]
  0x1635	dec    	eax
  0x1636	mov    	dword ptr [esp + 0x20], edi
  === BLOCK LINK ===
    0x163a
=== CODE BLOCK END ===

=== CODE BLOCK ADDRESS 0x163a ===
  0x163a	dec    	eax
  0x163b	mov    	ecx, ebp
  0x163d	call   	0x1db4
  === BLOCK LINK ===
    0x1642
=== CODE BLOCK END ===

=== CODE BLOCK ADDRESS 0x1642 ===
  0x1642	mov    	ebx, eax
  0x1644	test   	eax, eax
  0x1646	jne    	0x1655
  === BLOCK LINK ===
    0x1648
=== CODE BLOCK END ===

=== CODE BLOCK ADDRESS 0x1648 ===
  0x1648	cmp    	dword ptr [esp + 0x48], 1
  0x164d	mov    	eax, 0x65d
  0x1652	cmovne  	ebx, eax
  0x1655	dec    	eax
  0x1656	mov    	ebp, dword ptr [esp + 0x50]
  === BLOCK LINK ===
    0x165a
=== CODE BLOCK END ===

=== CODE BLOCK ADDRESS 0x165a ===
  0x165a	mov    	eax, ebx
  0x165c	dec    	eax
  0x165d	mov    	ebx, dword ptr [esp + 0x40]
  0x1661	dec    	eax
  0x1662	mov    	esi, dword ptr [esp + 0x58]
  === BLOCK LINK ===
    0x1666
=== CODE BLOCK END ===

=== CODE BLOCK ADDRESS 0x1666 ===
  0x1666	dec    	eax
  0x1667	add    	esp, 0x30
  0x166a	pop    	edi
  0x166b	ret    	
  0x166c	int3   	
  === BLOCK LINK ===
    0x166d
=== CODE BLOCK END ===

=== CODE BLOCK ADDRESS 0x166d ===
  0x166d	int3   	
  0x166e	int3   	
  0x166f	int3   	
  0x1670	int3   	
  0x1671	int3   	
  === BLOCK LINK ===
    0x1672
=== CODE BLOCK END ===

=== CODE BLOCK ADDRESS 0x1672 ===
  0x1672	int3   	
  0x1673	int3   	
  0x1674	dec    	eax
  0x1675	mov    	eax, esp
  0x1677	dec    	eax
  === BLOCK LINK ===
    0x1678
=== CODE BLOCK END ===

=== CODE BLOCK ADDRESS 0x1678 ===
  0x1678	mov    	dword ptr [eax + 8], ebx
  0x167b	dec    	eax
  0x167c	mov    	dword ptr [eax + 0x10], edi
  0x167f	dec    	esp
  0x1680	mov    	dword ptr [eax + 0x18], esi
  === BLOCK LINK ===
    0x1683
=== CODE BLOCK END ===

=== CODE BLOCK ADDRESS 0x1683 ===
  0x1683	push   	ebp
  0x1684	dec    	eax
  0x1685	lea    	ebp, [eax - 0x388]
  0x168b	dec    	eax
  0x168c	sub    	esp, 0x480
  === BLOCK LINK ===
    0x1692
=== CODE BLOCK END ===

=== CODE BLOCK ADDRESS 0x1692 ===
  0x1692	dec    	eax
  0x1693	mov    	eax, dword ptr [0x496f]
  0x1699	dec    	eax
  0x169a	xor    	eax, esp
  0x169c	dec    	eax
  === BLOCK LINK ===
    0x169d
=== CODE BLOCK END ===

=== CODE BLOCK ADDRESS 0x169d ===
  0x169d	mov    	dword ptr [ebp + 0x370], eax
  0x16a3	xor    	ebx, ebx
  0x16a5	mov    	dword ptr [esp + 0x40], 0x208
  0x16ad	dec    	eax
  0x16ae	lea    	edx, [esp + 0x38]
  === BLOCK LINK ===
    0x16b2
=== CODE BLOCK END ===

=== CODE BLOCK ADDRESS 0x16b2 ===
  0x16b2	dec    	eax
  0x16b3	mov    	dword ptr [esp + 0x30], ebx
  0x16b7	dec    	eax
  0x16b8	lea    	ecx, [esp + 0x30]
  0x16bc	dec    	eax
  === BLOCK LINK ===
    0x16bd
=== CODE BLOCK END ===

=== CODE BLOCK ADDRESS 0x16bd ===
  0x16bd	mov    	dword ptr [esp + 0x38], ebx
  0x16c1	call   	0x14f0
  === BLOCK LINK ===
    0x16c6
=== CODE BLOCK END ===

=== CODE BLOCK ADDRESS 0x16c6 ===
  0x16c6	mov    	edi, eax
  0x16c8	test   	eax, eax
  0x16ca	jne    	0x1765
  === BLOCK LINK ===
    0x16d0
=== CODE BLOCK END ===

=== CODE BLOCK ADDRESS 0x16d0 ===
  0x16d0	dec    	eax
  0x16d1	cmp    	dword ptr [esp + 0x30], ebx
  0x16d5	jne    	0x16dc
  === BLOCK LINK ===
    0x16d7
=== CODE BLOCK END ===

=== CODE BLOCK ADDRESS 0x16d7 ===
  0x16d7	lea    	edi, [ebx + 0x57]
  0x16da	jmp    	0x1701
  === BLOCK LINK ===
    0x16dc
=== CODE BLOCK END ===

=== CODE BLOCK ADDRESS 0x16dc ===
  0x16dc	dec    	eax
  0x16dd	mov    	edx, dword ptr [esp + 0x38]
  0x16e1	dec    	esp
  0x16e2	lea    	ecx, [esp + 0x40]
  0x16e6	dec    	eax
  === BLOCK LINK ===
    0x16e7
=== CODE BLOCK END ===

=== CODE BLOCK ADDRESS 0x16e7 ===
  0x16e7	mov    	ecx, dword ptr [esp + 0x30]
  0x16eb	dec    	esp
  0x16ec	lea    	eax, [ebp + 0x160]
  0x16f2	mov    	dword ptr [esp + 0x20], 0x208
  0x16fa	call   	0x15d0
  === BLOCK LINK ===
    0x16ff
=== CODE BLOCK END ===

=== CODE BLOCK ADDRESS 0x16ff ===
  0x16ff	mov    	edi, eax
  0x1701	test   	edi, edi
  0x1703	jne    	0x1737
  === BLOCK LINK ===
    0x1705
=== CODE BLOCK END ===

=== CODE BLOCK ADDRESS 0x1705 ===
  0x1705	mov    	edi, 0x104
  0x170a	dec    	eax
  0x170b	lea    	edx, [esp + 0x50]
  0x170f	inc    	esp
  0x1710	mov    	eax, edi
  === BLOCK LINK ===
    0x1712
=== CODE BLOCK END ===

=== CODE BLOCK ADDRESS 0x1712 ===
  0x1712	dec    	eax
  0x1713	lea    	ecx, [ebp + 0x160]
  0x1719	dec    	eax
  0x171a	call   	dword ptr [0x2ad0]
  === BLOCK LINK ===
    0x1720
=== CODE BLOCK END ===

=== CODE BLOCK ADDRESS 0x1720 ===
  0x1720	nop    	dword ptr [eax + eax]
  0x1725	test   	eax, eax
  0x1727	jne    	0x17a3
  === BLOCK LINK ===
    0x1729
=== CODE BLOCK END ===

=== CODE BLOCK ADDRESS 0x1729 ===
  0x1729	dec    	eax
  0x172a	call   	dword ptr [0x2a18]
  === BLOCK LINK ===
    0x1730
=== CODE BLOCK END ===

=== CODE BLOCK ADDRESS 0x1730 ===
  0x1730	nop    	dword ptr [eax + eax]
  0x1735	mov    	edi, eax
  0x1737	dec    	eax
  0x1738	cmp    	dword ptr [esp + 0x30], ebx
  0x173c	je     	0x174e
  === BLOCK LINK ===
    0x173e
=== CODE BLOCK END ===

=== CODE BLOCK ADDRESS 0x173e ===
  0x173e	mov    	ecx, dword ptr [esp + 0x30]
  0x1742	dec    	eax
  0x1743	call   	dword ptr [0x2c37]
  === BLOCK LINK ===
    0x1749
=== CODE BLOCK END ===

=== CODE BLOCK ADDRESS 0x1749 ===
  0x1749	nop    	dword ptr [eax + eax]
  0x174e	dec    	eax
  0x174f	cmp    	dword ptr [esp + 0x38], ebx
  0x1753	je     	0x1765
  === BLOCK LINK ===
    0x1755
=== CODE BLOCK END ===

=== CODE BLOCK ADDRESS 0x1755 ===
  0x1755	mov    	ecx, dword ptr [esp + 0x38]
  0x1759	dec    	eax
  0x175a	call   	dword ptr [0x2c20]
  === BLOCK LINK ===
    0x1760
=== CODE BLOCK END ===

=== CODE BLOCK ADDRESS 0x1760 ===
  0x1760	nop    	dword ptr [eax + eax]
  0x1765	mov    	ecx, edi
  0x1767	dec    	eax
  0x1768	call   	dword ptr [0x29d2]
  === BLOCK LINK ===
    0x176e
=== CODE BLOCK END ===

=== CODE BLOCK ADDRESS 0x176e ===
  0x176e	nop    	dword ptr [eax + eax]
  0x1773	test   	edi, edi
  0x1775	sete   	bl
  0x1778	mov    	eax, ebx
  0x177a	dec    	eax
  === BLOCK LINK ===
    0x177b
=== CODE BLOCK END ===

=== CODE BLOCK ADDRESS 0x177b ===
  0x177b	mov    	ecx, dword ptr [ebp + 0x370]
  0x1781	dec    	eax
  0x1782	xor    	ecx, esp
  0x1784	call   	0x2a90
  === BLOCK LINK ===
    0x1789
=== CODE BLOCK END ===

=== CODE BLOCK ADDRESS 0x1789 ===
  0x1789	dec    	esp
  0x178a	lea    	ebx, [esp + 0x480]
  0x1791	dec    	ecx
  0x1792	mov    	ebx, dword ptr [ebx + 0x10]
  0x1795	dec    	ecx
  === BLOCK LINK ===
    0x1796
=== CODE BLOCK END ===

=== CODE BLOCK ADDRESS 0x1796 ===
  0x1796	mov    	edi, dword ptr [ebx + 0x18]
  0x1799	dec    	ebp
  0x179a	mov    	esi, dword ptr [ebx + 0x20]
  0x179d	dec    	ecx
  0x179e	mov    	esp, ebx
  === BLOCK LINK ===
    0x17a0
=== CODE BLOCK END ===

=== CODE BLOCK ADDRESS 0x17a0 ===
  0x17a0	pop    	ebp
  0x17a1	ret    	
  0x17a2	int3   	
  0x17a3	cmp    	eax, edi
  0x17a5	jbe    	0x17ae
  === BLOCK LINK ===
    0x17a7
=== CODE BLOCK END ===

=== CODE BLOCK ADDRESS 0x17a7 ===
  0x17a7	mov    	edi, 0x7a
  0x17ac	jmp    	0x1737
  === BLOCK LINK ===
    0x17ae
=== CODE BLOCK END ===

=== CODE BLOCK ADDRESS 0x17ae ===
  0x17ae	dec    	eax
  0x17af	lea    	eax, [esp + 0x50]
  0x17b3	dec    	ecx
  0x17b4	or     	esi, 0xffffffff
  0x17b7	dec    	ecx
  === BLOCK LINK ===
    0x17b8
=== CODE BLOCK END ===

=== CODE BLOCK ADDRESS 0x17b8 ===
  0x17b8	inc    	esi
  0x17ba	inc    	dx
  0x17bc	cmp    	dword ptr [eax + esi*2], ebx
  0x17bf	jne    	0x17b7
  === BLOCK LINK ===
    0x17c1
=== CODE BLOCK END ===

=== CODE BLOCK ADDRESS 0x17c1 ===
  0x17c1	inc    	esp
  0x17c2	mov    	eax, edi
  0x17c4	dec    	eax
  0x17c5	lea    	edx, [0x2d35]
  0x17cb	dec    	eax
  === BLOCK LINK ===
    0x17cc
=== CODE BLOCK END ===

=== CODE BLOCK ADDRESS 0x17cc ===
  0x17cc	lea    	ecx, [esp + 0x50]
  0x17d0	call   	0x1fb4
  === BLOCK LINK ===
    0x17d5
=== CODE BLOCK END ===

=== CODE BLOCK ADDRESS 0x17d5 ===
  0x17d5	test   	eax, eax
  0x17d7	je     	0x1729
  === BLOCK LINK ===
    0x17dd
=== CODE BLOCK END ===

=== CODE BLOCK ADDRESS 0x17dd ===
  0x17dd	dec    	eax
  0x17de	lea    	ecx, [esp + 0x50]
  0x17e2	call   	0x2234
  === BLOCK LINK ===
    0x17e7
=== CODE BLOCK END ===

=== CODE BLOCK ADDRESS 0x17e7 ===
  0x17e7	mov    	edi, eax
  0x17e9	test   	eax, eax
  0x17eb	jne    	0x1737
  === BLOCK LINK ===
    0x17f1
=== CODE BLOCK END ===

=== CODE BLOCK ADDRESS 0x17f1 ===
  0x17f1	inc    	ecx
  0x17f2	mov    	eax, esi
  0x17f4	dec    	eax
  0x17f5	add    	eax, eax
  0x17f7	dec    	eax
  === BLOCK LINK ===
    0x17f8
=== CODE BLOCK END ===

=== CODE BLOCK ADDRESS 0x17f8 ===
  0x17f8	cmp    	eax, 0x208
  0x17fd	jae    	0x1830
  === BLOCK LINK ===
    0x17ff
=== CODE BLOCK END ===

=== CODE BLOCK ADDRESS 0x17ff ===
  0x17ff	lea    	edx, [edi + 1]
  0x1802	mov    	word ptr [esp + eax + 0x50], bx
  0x1807	dec    	eax
  0x1808	lea    	ecx, [esp + 0x50]
  0x180c	call   	0x2468
  === BLOCK LINK ===
    0x1811
=== CODE BLOCK END ===

=== CODE BLOCK ADDRESS 0x1811 ===
  0x1811	test   	eax, eax
  0x1813	je     	0x1729
  === BLOCK LINK ===
    0x1819
=== CODE BLOCK END ===

=== CODE BLOCK ADDRESS 0x1819 ===
  0x1819	dec    	eax
  0x181a	lea    	ecx, [esp + 0x50]
  0x181e	call   	0x25d8
  === BLOCK LINK ===
    0x1823
=== CODE BLOCK END ===

=== CODE BLOCK ADDRESS 0x1823 ===
  0x1823	test   	eax, eax
  0x1825	jne    	0x1737
  === BLOCK LINK ===
    0x182b
=== CODE BLOCK END ===

=== CODE BLOCK ADDRESS 0x182b ===
  0x182b	jmp    	0x1729
  === BLOCK LINK ===
    0x1830
=== CODE BLOCK END ===

=== CODE BLOCK ADDRESS 0x1830 ===
  0x1830	call   	0x2f88
  === BLOCK LINK ===
    0x1835
=== CODE BLOCK END ===

=== CODE BLOCK ADDRESS 0x1835 ===
  0x1835	int3   	
  0x1836	int3   	
  0x1837	int3   	
  0x1838	int3   	
  0x1839	int3   	
  === BLOCK LINK ===
    0x183a
=== CODE BLOCK END ===

=== CODE BLOCK ADDRESS 0x183a ===
  0x183a	int3   	
  0x183b	int3   	
  0x183c	dec    	eax
  0x183d	mov    	dword ptr [esp + 8], ebx
  0x1841	dec    	eax
  === BLOCK LINK ===
    0x1842
=== CODE BLOCK END ===

=== CODE BLOCK ADDRESS 0x1842 ===
  0x1842	mov    	dword ptr [esp + 0x18], esi
  0x1846	push   	edi
  0x1847	dec    	eax
  0x1848	sub    	esp, 0x240
  0x184e	dec    	eax
  === BLOCK LINK ===
    0x184f
=== CODE BLOCK END ===

=== CODE BLOCK ADDRESS 0x184f ===
  0x184f	mov    	eax, dword ptr [0x47b3]
  0x1855	dec    	eax
  0x1856	xor    	eax, esp
  0x1858	dec    	eax
  0x1859	mov    	dword ptr [esp + 0x230], eax
  === BLOCK LINK ===
    0x1860
=== CODE BLOCK END ===

=== CODE BLOCK ADDRESS 0x1860 ===
  0x1860	xor    	edi, edi
  0x1862	mov    	esi, edx
  0x1864	mov    	ebx, edi
  0x1866	dec    	eax
  0x1867	test   	ecx, ecx
  === BLOCK LINK ===
    0x1869
=== CODE BLOCK END ===

=== CODE BLOCK ADDRESS 0x1869 ===
  0x1869	jne    	0x1872
  === BLOCK LINK ===
    0x186b
=== CODE BLOCK END ===

=== CODE BLOCK ADDRESS 0x186b ===
  0x186b	mov    	ebx, 0x57
  0x1870	jmp    	0x18cf
  === BLOCK LINK ===
    0x1872
=== CODE BLOCK END ===

=== CODE BLOCK ADDRESS 0x1872 ===
  0x1872	dec    	esp
  0x1873	mov    	eax, ecx
  0x1875	mov    	edx, 0x104
  0x187a	dec    	eax
  0x187b	lea    	ecx, [esp + 0x20]
  === BLOCK LINK ===
    0x187f
=== CODE BLOCK END ===

=== CODE BLOCK ADDRESS 0x187f ===
  0x187f	call   	0x1b5c
  === BLOCK LINK ===
    0x1884
=== CODE BLOCK END ===

=== CODE BLOCK ADDRESS 0x1884 ===
  0x1884	test   	eax, eax
  0x1886	js     	0x186b
  === BLOCK LINK ===
    0x1888
=== CODE BLOCK END ===

=== CODE BLOCK ADDRESS 0x1888 ===
  0x1888	inc    	ecx
  0x1889	mov    	eax, 0x104
  0x188e	dec    	eax
  0x188f	lea    	edx, [0x2c93]
  0x1895	dec    	eax
  === BLOCK LINK ===
    0x1896
=== CODE BLOCK END ===

=== CODE BLOCK ADDRESS 0x1896 ===
  0x1896	lea    	ecx, [esp + 0x20]
  0x189a	call   	0x1fb4
  === BLOCK LINK ===
    0x189f
=== CODE BLOCK END ===

=== CODE BLOCK ADDRESS 0x189f ===
  0x189f	test   	eax, eax
  0x18a1	je     	0x18c1
  === BLOCK LINK ===
    0x18a3
=== CODE BLOCK END ===

=== CODE BLOCK ADDRESS 0x18a3 ===
  0x18a3	mov    	edx, esi
  0x18a5	dec    	eax
  0x18a6	lea    	ecx, [esp + 0x20]
  0x18aa	call   	0x2468
  === BLOCK LINK ===
    0x18af
=== CODE BLOCK END ===

=== CODE BLOCK ADDRESS 0x18af ===
  0x18af	test   	eax, eax
  0x18b1	je     	0x18c1
  === BLOCK LINK ===
    0x18b3
=== CODE BLOCK END ===

=== CODE BLOCK ADDRESS 0x18b3 ===
  0x18b3	dec    	eax
  0x18b4	lea    	ecx, [esp + 0x20]
  0x18b8	call   	0x25d8
  === BLOCK LINK ===
    0x18bd
=== CODE BLOCK END ===

=== CODE BLOCK ADDRESS 0x18bd ===
  0x18bd	test   	eax, eax
  0x18bf	jne    	0x18cf
  === BLOCK LINK ===
    0x18c1
=== CODE BLOCK END ===

=== CODE BLOCK ADDRESS 0x18c1 ===
  0x18c1	dec    	eax
  0x18c2	call   	dword ptr [0x2880]
  === BLOCK LINK ===
    0x18c8
=== CODE BLOCK END ===

=== CODE BLOCK ADDRESS 0x18c8 ===
  0x18c8	nop    	dword ptr [eax + eax]
  0x18cd	mov    	ebx, eax
  0x18cf	mov    	ecx, ebx
  0x18d1	dec    	eax
  0x18d2	call   	dword ptr [0x2868]
  === BLOCK LINK ===
    0x18d8
=== CODE BLOCK END ===

=== CODE BLOCK ADDRESS 0x18d8 ===
  0x18d8	nop    	dword ptr [eax + eax]
  0x18dd	test   	ebx, ebx
  0x18df	inc    	eax
  0x18e0	sete   	bh
  0x18e3	mov    	eax, edi
  === BLOCK LINK ===
    0x18e5
=== CODE BLOCK END ===

=== CODE BLOCK ADDRESS 0x18e5 ===
  0x18e5	dec    	eax
  0x18e6	mov    	ecx, dword ptr [esp + 0x230]
  0x18ed	dec    	eax
  0x18ee	xor    	ecx, esp
  0x18f0	call   	0x2a90
  === BLOCK LINK ===
    0x18f5
=== CODE BLOCK END ===

=== CODE BLOCK ADDRESS 0x18f5 ===
  0x18f5	dec    	esp
  0x18f6	lea    	ebx, [esp + 0x240]
  0x18fd	dec    	ecx
  0x18fe	mov    	ebx, dword ptr [ebx + 0x10]
  0x1901	dec    	ecx
  === BLOCK LINK ===
    0x1902
=== CODE BLOCK END ===

=== CODE BLOCK ADDRESS 0x1902 ===
  0x1902	mov    	esi, dword ptr [ebx + 0x20]
  0x1905	dec    	ecx
  0x1906	mov    	esp, ebx
  0x1908	pop    	edi
  0x1909	ret    	
  === BLOCK LINK ===
    0x190a
=== CODE BLOCK END ===

=== CODE BLOCK ADDRESS 0x190a ===
  0x190a	int3   	
  0x190b	int3   	
  0x190c	int3   	
  0x190d	int3   	
  0x190e	int3   	
  === BLOCK LINK ===
    0x190f
=== CODE BLOCK END ===

=== CODE BLOCK ADDRESS 0x190f ===
  0x190f	int3   	
  0x1910	int3   	
  0x1911	int3   	
  0x1912	int3   	
  0x1913	int3   	
  === BLOCK LINK ===
    0x1914
=== CODE BLOCK END ===

=== CODE BLOCK ADDRESS 0x1914 ===
  0x1914	inc    	eax
  0x1915	push   	ebx
  0x1916	dec    	eax
  0x1917	sub    	esp, 0x40
  0x191a	xor    	ebx, ebx
  === BLOCK LINK ===
    0x191c
=== CODE BLOCK END ===

=== CODE BLOCK ADDRESS 0x191c ===
  0x191c	cmp    	dword ptr [0x4cd6], ebx
  0x1922	je     	0x1a0a
  === BLOCK LINK ===
    0x1928
=== CODE BLOCK END ===

=== CODE BLOCK ADDRESS 0x1928 ===
  0x1928	dec    	eax
  0x1929	lea    	ecx, [esp + 0x20]
  0x192d	call   	0x13fc
  === BLOCK LINK ===
    0x1932
=== CODE BLOCK END ===

=== CODE BLOCK ADDRESS 0x1932 ===
  0x1932	test   	eax, eax
  0x1934	je     	0x1a0a
  === BLOCK LINK ===
    0x193a
=== CODE BLOCK END ===

=== CODE BLOCK ADDRESS 0x193a ===
  0x193a	sub    	dword ptr [0x4cbb], 1
  0x1941	jne    	0x19de
  === BLOCK LINK ===
    0x1947
=== CODE BLOCK END ===

=== CODE BLOCK ADDRESS 0x1947 ===
  0x1947	cmp    	dword ptr [0x4c9b], ebx
  0x194d	je     	0x19aa
  === BLOCK LINK ===
    0x194f
=== CODE BLOCK END ===

=== CODE BLOCK ADDRESS 0x194f ===
  0x194f	call   	0x2548
  === BLOCK LINK ===
    0x1954
=== CODE BLOCK END ===

=== CODE BLOCK ADDRESS 0x1954 ===
  0x1954	dec    	esp
  0x1955	mov    	eax, dword ptr [0x4ce5]
  0x195b	dec    	ebp
  0x195c	test   	eax, eax
  0x195e	je     	0x197c
  === BLOCK LINK ===
    0x1960
=== CODE BLOCK END ===

=== CODE BLOCK ADDRESS 0x1960 ===
  0x1960	dec    	eax
  0x1961	mov    	ecx, dword ptr [0x4d11]
  0x1967	xor    	edx, edx
  0x1969	dec    	eax
  0x196a	call   	dword ptr [0x2838]
  === BLOCK LINK ===
    0x1970
=== CODE BLOCK END ===

=== CODE BLOCK ADDRESS 0x1970 ===
  0x1970	nop    	dword ptr [eax + eax]
  0x1975	dec    	eax
  0x1976	mov    	dword ptr [0x4cc4], ebx
  0x197c	dec    	esp
  0x197d	mov    	eax, dword ptr [0x4c8d]
  === BLOCK LINK ===
    0x1983
=== CODE BLOCK END ===

=== CODE BLOCK ADDRESS 0x1983 ===
  0x1983	dec    	ebp
  0x1984	test   	eax, eax
  0x1986	je     	0x19a4
  === BLOCK LINK ===
    0x1988
=== CODE BLOCK END ===

=== CODE BLOCK ADDRESS 0x1988 ===
  0x1988	dec    	eax
  0x1989	mov    	ecx, dword ptr [0x4ce9]
  0x198f	xor    	edx, edx
  0x1991	dec    	eax
  0x1992	call   	dword ptr [0x2810]
  === BLOCK LINK ===
    0x1998
=== CODE BLOCK END ===

=== CODE BLOCK ADDRESS 0x1998 ===
  0x1998	nop    	dword ptr [eax + eax]
  0x199d	dec    	eax
  0x199e	mov    	dword ptr [0x4c6c], ebx
  0x19a4	mov    	dword ptr [0x4c3e], ebx
  0x19aa	dec    	esp
  === BLOCK LINK ===
    0x19ab
=== CODE BLOCK END ===

=== CODE BLOCK ADDRESS 0x19ab ===
  0x19ab	mov    	eax, dword ptr [0x4c3f]
  0x19b1	dec    	ebp
  0x19b2	test   	eax, eax
  0x19b4	je     	0x19d2
  === BLOCK LINK ===
    0x19b6
=== CODE BLOCK END ===

=== CODE BLOCK ADDRESS 0x19b6 ===
  0x19b6	dec    	eax
  0x19b7	mov    	ecx, dword ptr [0x4cbb]
  0x19bd	xor    	edx, edx
  0x19bf	dec    	eax
  0x19c0	call   	dword ptr [0x27e2]
  === BLOCK LINK ===
    0x19c6
=== CODE BLOCK END ===

=== CODE BLOCK ADDRESS 0x19c6 ===
  0x19c6	nop    	dword ptr [eax + eax]
  0x19cb	dec    	eax
  0x19cc	mov    	dword ptr [0x4c1e], ebx
  0x19d2	mov    	dword ptr [0x4ca8], ebx
  0x19d8	mov    	dword ptr [0x4c1a], ebx
  === BLOCK LINK ===
    0x19de
=== CODE BLOCK END ===

=== CODE BLOCK ADDRESS 0x19de ===
  0x19de	dec    	eax
  0x19df	lea    	eax, [esp + 0x20]
  0x19e3	.byte  	0xf0
  0x19e4	dec    	eax
  0x19e5	cmpxchg  	dword ptr [0x4bf4], ebx
  === BLOCK LINK ===
    0x19ec
=== CODE BLOCK END ===

=== CODE BLOCK ADDRESS 0x19ec ===
  0x19ec	dec    	eax
  0x19ed	lea    	ecx, [esp + 0x20]
  0x19f1	dec    	eax
  0x19f2	cmp    	eax, ecx
  0x19f4	je     	0x1a03
  === BLOCK LINK ===
    0x19f6
=== CODE BLOCK END ===

=== CODE BLOCK ADDRESS 0x19f6 ===
  0x19f6	dec    	eax
  0x19f7	mov    	edx, eax
  0x19f9	dec    	eax
  0x19fa	lea    	ecx, [esp + 0x20]
  0x19fe	call   	0x14b0
  === BLOCK LINK ===
    0x1a03
=== CODE BLOCK END ===

=== CODE BLOCK ADDRESS 0x1a03 ===
  0x1a03	mov    	eax, 1
  0x1a08	jmp    	0x1a0c
  === BLOCK LINK ===
    0x1a0a
=== CODE BLOCK END ===

=== CODE BLOCK ADDRESS 0x1a0a ===
  0x1a0a	xor    	eax, eax
  0x1a0c	dec    	eax
  0x1a0d	add    	esp, 0x40
  0x1a10	pop    	ebx
  0x1a11	ret    	
  === BLOCK LINK ===
    0x1a12
=== CODE BLOCK END ===

=== CODE BLOCK ADDRESS 0x1a12 ===
  0x1a12	int3   	
  0x1a13	int3   	
  0x1a14	int3   	
  0x1a15	int3   	
  0x1a16	int3   	
  === BLOCK LINK ===
    0x1a17
=== CODE BLOCK END ===

=== CODE BLOCK ADDRESS 0x1a17 ===
  0x1a17	int3   	
  0x1a18	int3   	
  0x1a19	int3   	
  0x1a1a	int3   	
  0x1a1b	int3   	
  === BLOCK LINK ===
    0x1a1c
=== CODE BLOCK END ===

=== CODE BLOCK ADDRESS 0x1a1c ===
  0x1a1c	inc    	eax
  0x1a1d	push   	ebx
  0x1a1e	dec    	eax
  0x1a1f	sub    	esp, 0x280
  0x1a25	dec    	eax
  === BLOCK LINK ===
    0x1a26
=== CODE BLOCK END ===

=== CODE BLOCK ADDRESS 0x1a26 ===
  0x1a26	mov    	eax, dword ptr [0x45dc]
  0x1a2c	dec    	eax
  0x1a2d	xor    	eax, esp
  0x1a2f	dec    	eax
  0x1a30	mov    	dword ptr [esp + 0x270], eax
  === BLOCK LINK ===
    0x1a37
=== CODE BLOCK END ===

=== CODE BLOCK ADDRESS 0x1a37 ===
  0x1a37	dec    	esp
  0x1a38	mov    	eax, dword ptr [0x4bb2]
  0x1a3e	xor    	ebx, ebx
  0x1a40	dec    	ebp
  0x1a41	test   	eax, eax
  === BLOCK LINK ===
    0x1a43
=== CODE BLOCK END ===

=== CODE BLOCK ADDRESS 0x1a43 ===
  0x1a43	je     	0x1a61
  === BLOCK LINK ===
    0x1a45
=== CODE BLOCK END ===

=== CODE BLOCK ADDRESS 0x1a45 ===
  0x1a45	dec    	eax
  0x1a46	mov    	ecx, dword ptr [0x4c2c]
  0x1a4c	xor    	edx, edx
  0x1a4e	dec    	eax
  0x1a4f	call   	dword ptr [0x2753]
  === BLOCK LINK ===
    0x1a55
=== CODE BLOCK END ===

=== CODE BLOCK ADDRESS 0x1a55 ===
  0x1a55	nop    	dword ptr [eax + eax]
  0x1a5a	dec    	eax
  0x1a5b	mov    	dword ptr [0x4b8f], ebx
  0x1a61	mov    	edx, 0x104
  0x1a66	mov    	dword ptr [0x45b0], 1
  === BLOCK LINK ===
    0x1a70
=== CODE BLOCK END ===

=== CODE BLOCK ADDRESS 0x1a70 ===
  0x1a70	dec    	eax
  0x1a71	lea    	ecx, [esp + 0x20]
  0x1a75	dec    	eax
  0x1a76	call   	dword ptr [0x2804]
  === BLOCK LINK ===
    0x1a7c
=== CODE BLOCK END ===

=== CODE BLOCK ADDRESS 0x1a7c ===
  0x1a7c	nop    	dword ptr [eax + eax]
  0x1a81	dec    	eax
  0x1a83	cmp    	eax, 0x103
  0x1a88	ja     	0x1ad9
  === BLOCK LINK ===
    0x1a8a
=== CODE BLOCK END ===

=== CODE BLOCK ADDRESS 0x1a8a ===
  0x1a8a	dec    	eax
  0x1a8b	lea    	ecx, [esp + 0x20]
  0x1a8f	call   	0x1f10
  === BLOCK LINK ===
    0x1a94
=== CODE BLOCK END ===

=== CODE BLOCK ADDRESS 0x1a94 ===
  0x1a94	dec    	eax
  0x1a95	mov    	dword ptr [0x4b55], eax
  0x1a9b	dec    	eax
  0x1a9c	test   	eax, eax
  0x1a9e	je     	0x1ad9
  === BLOCK LINK ===
    0x1aa0
=== CODE BLOCK END ===

=== CODE BLOCK ADDRESS 0x1aa0 ===
  0x1aa0	cmp    	dword ptr [0x4b42], ebx
  0x1aa6	je     	0x1ad4
  === BLOCK LINK ===
    0x1aa8
=== CODE BLOCK END ===

=== CODE BLOCK ADDRESS 0x1aa8 ===
  0x1aa8	mov    	edx, dword ptr [0x4572]
  0x1aae	test   	edx, edx
  0x1ab0	je     	0x1ac8
  === BLOCK LINK ===
    0x1ab2
=== CODE BLOCK END ===

=== CODE BLOCK ADDRESS 0x1ab2 ===
  0x1ab2	call   	0x1674
  === BLOCK LINK ===
    0x1ab7
=== CODE BLOCK END ===

=== CODE BLOCK ADDRESS 0x1ab7 ===
  0x1ab7	test   	eax, eax
  0x1ab9	jne    	0x1ad4
  === BLOCK LINK ===
    0x1abb
=== CODE BLOCK END ===

=== CODE BLOCK ADDRESS 0x1abb ===
  0x1abb	dec    	eax
  0x1abc	mov    	eax, dword ptr [0x4b2e]
  0x1ac2	mov    	edx, dword ptr [0x4558]
  0x1ac8	dec    	eax
  0x1ac9	mov    	ecx, eax
  === BLOCK LINK ===
    0x1acb
=== CODE BLOCK END ===

=== CODE BLOCK ADDRESS 0x1acb ===
  0x1acb	call   	0x183c
  === BLOCK LINK ===
    0x1ad0
=== CODE BLOCK END ===

=== CODE BLOCK ADDRESS 0x1ad0 ===
  0x1ad0	test   	eax, eax
  0x1ad2	je     	0x1ad9
  === BLOCK LINK ===
    0x1ad4
=== CODE BLOCK END ===

=== CODE BLOCK ADDRESS 0x1ad4 ===
  0x1ad4	mov    	ebx, 1
  0x1ad9	mov    	eax, ebx
  0x1adb	dec    	eax
  0x1adc	mov    	ecx, dword ptr [esp + 0x270]
  0x1ae3	dec    	eax
  === BLOCK LINK ===
    0x1ae4
=== CODE BLOCK END ===

=== CODE BLOCK ADDRESS 0x1ae4 ===
  0x1ae4	xor    	ecx, esp
  0x1ae6	call   	0x2a90
  === BLOCK LINK ===
    0x1aeb
=== CODE BLOCK END ===

=== CODE BLOCK ADDRESS 0x1aeb ===
  0x1aeb	dec    	eax
  0x1aec	add    	esp, 0x280
  0x1af2	pop    	ebx
  0x1af3	ret    	
  0x1af4	int3   	
  === BLOCK LINK ===
    0x1af5
=== CODE BLOCK END ===

=== CODE BLOCK ADDRESS 0x1af5 ===
  0x1af5	int3   	
  0x1af6	int3   	
  0x1af7	int3   	
  0x1af8	int3   	
  0x1af9	int3   	
  === BLOCK LINK ===
    0x1afa
=== CODE BLOCK END ===

=== CODE BLOCK ADDRESS 0x1afa ===
  0x1afa	int3   	
  0x1afb	int3   	
  0x1afc	dec    	eax
  0x1afd	sub    	esp, 0x28
  0x1b00	cmp    	ecx, 0xc00000fd
  === BLOCK LINK ===
    0x1b06
=== CODE BLOCK END ===

=== CODE BLOCK ADDRESS 0x1b06 ===
  0x1b06	jne    	0x1b36
  === BLOCK LINK ===
    0x1b08
=== CODE BLOCK END ===

=== CODE BLOCK ADDRESS 0x1b08 ===
  0x1b08	dec    	eax
  0x1b09	call   	dword ptr [0x27f1]
  === BLOCK LINK ===
    0x1b0f
=== CODE BLOCK END ===

=== CODE BLOCK ADDRESS 0x1b0f ===
  0x1b0f	nop    	dword ptr [eax + eax]
  0x1b14	test   	eax, eax
  0x1b16	jne    	0x1b4d
  === BLOCK LINK ===
    0x1b18
=== CODE BLOCK END ===

=== CODE BLOCK ADDRESS 0x1b18 ===
  0x1b18	inc    	ebp
  0x1b19	xor    	ecx, ecx
  0x1b1b	lea    	edx, [eax + 1]
  0x1b1e	inc    	ebp
  0x1b1f	xor    	eax, eax
  === BLOCK LINK ===
    0x1b21
=== CODE BLOCK END ===

=== CODE BLOCK ADDRESS 0x1b21 ===
  0x1b21	mov    	ecx, 0xe0000300
  0x1b26	dec    	eax
  0x1b27	add    	esp, 0x28
  0x1b2a	dec    	eax
  0x1b2b	jmp    	dword ptr [0x261f]
  === BLOCK LINK ===
    0x1b31
=== CODE BLOCK END ===

=== CODE BLOCK ADDRESS 0x1b31 ===
  0x1b31	int3   	
  0x1b32	int3   	
  0x1b33	int3   	
  0x1b34	int3   	
  0x1b35	int3   	
  === BLOCK LINK ===
    0x1b36
=== CODE BLOCK END ===

=== CODE BLOCK ADDRESS 0x1b36 ===
  0x1b36	lea    	eax, [ecx + 0x3ffffffb]
  0x1b3c	cmp    	eax, 1
  0x1b3f	jbe    	0x1b4d
  === BLOCK LINK ===
    0x1b41
=== CODE BLOCK END ===

=== CODE BLOCK ADDRESS 0x1b41 ===
  0x1b41	dec    	eax
  0x1b42	call   	dword ptr [0x2868]
  === BLOCK LINK ===
    0x1b48
=== CODE BLOCK END ===

=== CODE BLOCK ADDRESS 0x1b48 ===
  0x1b48	nop    	dword ptr [eax + eax]
  0x1b4d	dec    	eax
  0x1b4e	add    	esp, 0x28
  0x1b51	ret    	
  0x1b52	int3   	
  === BLOCK LINK ===
    0x1b53
=== CODE BLOCK END ===

=== CODE BLOCK ADDRESS 0x1b53 ===
  0x1b53	int3   	
  0x1b54	int3   	
  0x1b55	int3   	
  0x1b56	int3   	
  0x1b57	int3   	
  === BLOCK LINK ===
    0x1b58
=== CODE BLOCK END ===

=== CODE BLOCK ADDRESS 0x1b58 ===
  0x1b58	int3   	
  0x1b59	int3   	
  0x1b5a	int3   	
  0x1b5b	int3   	
  0x1b5c	dec    	eax
  === BLOCK LINK ===
    0x1b5d
=== CODE BLOCK END ===

=== CODE BLOCK ADDRESS 0x1b5d ===
  0x1b5d	mov    	dword ptr [esp + 8], ebx
  0x1b61	xor    	ebx, ebx
  0x1b63	dec    	eax
  0x1b64	lea    	eax, [edx - 1]
  0x1b67	inc    	ecx
  === BLOCK LINK ===
    0x1b68
=== CODE BLOCK END ===

=== CODE BLOCK ADDRESS 0x1b68 ===
  0x1b68	mov    	edx, 0x7ffffffe
  0x1b6d	inc    	esp
  0x1b6e	mov    	ecx, ebx
  0x1b70	dec    	ecx
  0x1b71	cmp    	eax, edx
  === BLOCK LINK ===
    0x1b73
=== CODE BLOCK END ===

=== CODE BLOCK ADDRESS 0x1b73 ===
  0x1b73	inc    	ecx
  0x1b74	mov    	ebx, 0x80070057
  0x1b79	inc    	ebp
  0x1b7a	cmova  	ecx, ebx
  0x1b7d	inc    	ebp
  === BLOCK LINK ===
    0x1b7e
=== CODE BLOCK END ===

=== CODE BLOCK ADDRESS 0x1b7e ===
  0x1b7e	test   	ecx, ecx
  0x1b80	js     	0x1bcd
  === BLOCK LINK ===
    0x1b82
=== CODE BLOCK END ===

=== CODE BLOCK ADDRESS 0x1b82 ===
  0x1b82	dec    	eax
  0x1b83	test   	edx, edx
  0x1b85	je     	0x1bad
  === BLOCK LINK ===
    0x1b87
=== CODE BLOCK END ===

=== CODE BLOCK ADDRESS 0x1b87 ===
  0x1b87	dec    	esp
  0x1b88	sub    	edx, edx
  0x1b8a	dec    	esp
  0x1b8b	sub    	eax, ecx
  0x1b8d	dec    	ecx
  === BLOCK LINK ===
    0x1b8e
=== CODE BLOCK END ===

=== CODE BLOCK ADDRESS 0x1b8e ===
  0x1b8e	lea    	eax, [edx + edx]
  0x1b91	dec    	eax
  0x1b92	test   	eax, eax
  0x1b94	je     	0x1bad
  === BLOCK LINK ===
    0x1b96
=== CODE BLOCK END ===

=== CODE BLOCK ADDRESS 0x1b96 ===
  0x1b96	inc    	ecx
  0x1b97	movzx  	eax, word ptr [eax + ecx]
  0x1b9b	test   	ax, ax
  0x1b9e	je     	0x1bad
  === BLOCK LINK ===
    0x1ba0
=== CODE BLOCK END ===

=== CODE BLOCK ADDRESS 0x1ba0 ===
  0x1ba0	mov    	word ptr [ecx], ax
  0x1ba3	dec    	eax
  0x1ba4	add    	ecx, 2
  0x1ba7	dec    	eax
  0x1ba8	sub    	edx, 1
  === BLOCK LINK ===
    0x1bab
=== CODE BLOCK END ===

=== CODE BLOCK ADDRESS 0x1bab ===
  0x1bab	jne    	0x1b8d
  === BLOCK LINK ===
    0x1bad
=== CODE BLOCK END ===

=== CODE BLOCK ADDRESS 0x1bad ===
  0x1bad	dec    	eax
  0x1bae	test   	edx, edx
  0x1bb0	dec    	eax
  0x1bb1	lea    	eax, [ecx - 2]
  0x1bb4	dec    	eax
  === BLOCK LINK ===
    0x1bb5
=== CODE BLOCK END ===

=== CODE BLOCK ADDRESS 0x1bb5 ===
  0x1bb5	cmovne  	eax, ecx
  0x1bb8	dec    	eax
  0x1bb9	neg    	edx
  0x1bbb	inc    	ebp
  0x1bbc	sbb    	ecx, ecx
  === BLOCK LINK ===
    0x1bbe
=== CODE BLOCK END ===

=== CODE BLOCK ADDRESS 0x1bbe ===
  0x1bbe	inc    	ecx
  0x1bbf	not    	ecx
  0x1bc1	inc    	ecx
  0x1bc2	and    	ecx, 0x8007007a
  0x1bc8	mov    	word ptr [eax], bx
  === BLOCK LINK ===
    0x1bcb
=== CODE BLOCK END ===

=== CODE BLOCK ADDRESS 0x1bcb ===
  0x1bcb	jmp    	0x1bd5
  === BLOCK LINK ===
    0x1bcd
=== CODE BLOCK END ===

=== CODE BLOCK ADDRESS 0x1bcd ===
  0x1bcd	dec    	eax
  0x1bce	test   	edx, edx
  0x1bd0	je     	0x1bd5
  === BLOCK LINK ===
    0x1bd2
=== CODE BLOCK END ===

=== CODE BLOCK ADDRESS 0x1bd2 ===
  0x1bd2	mov    	word ptr [ecx], bx
  0x1bd5	dec    	eax
  0x1bd6	mov    	ebx, dword ptr [esp + 8]
  0x1bda	inc    	ecx
  0x1bdb	mov    	eax, ecx
  === BLOCK LINK ===
    0x1bdd
=== CODE BLOCK END ===

=== CODE BLOCK ADDRESS 0x1bdd ===
  0x1bdd	ret    	
  0x1bde	int3   	
  0x1bdf	int3   	
  0x1be0	int3   	
  0x1be1	int3   	
  === BLOCK LINK ===
    0x1be2
=== CODE BLOCK END ===

=== CODE BLOCK ADDRESS 0x1be2 ===
  0x1be2	int3   	
  0x1be3	int3   	
  0x1be4	int3   	
  0x1be5	int3   	
  0x1be6	int3   	
  === BLOCK LINK ===
    0x1be7
=== CODE BLOCK END ===

=== CODE BLOCK ADDRESS 0x1be7 ===
  0x1be7	int3   	
  0x1be8	inc    	eax
  0x1be9	push   	ebx
  0x1bea	dec    	eax
  0x1beb	sub    	esp, 0x40
  === BLOCK LINK ===
    0x1bee
=== CODE BLOCK END ===

=== CODE BLOCK ADDRESS 0x1bee ===
  0x1bee	xorps  	xmm0, xmm0
  0x1bf1	dec    	eax
  0x1bf2	mov    	ebx, edx
  0x1bf4	movups  	xmmword ptr [esp + 0x30], xmm0
  0x1bf9	dec    	eax
  === BLOCK LINK ===
    0x1bfa
=== CODE BLOCK END ===

=== CODE BLOCK ADDRESS 0x1bfa ===
  0x1bfa	cmp    	ecx, 0x80000002
  0x1c00	jne    	0x1c0b
  === BLOCK LINK ===
    0x1c02
=== CODE BLOCK END ===

=== CODE BLOCK ADDRESS 0x1c02 ===
  0x1c02	dec    	eax
  0x1c03	lea    	edx, [0x2927]
  0x1c09	jmp    	0x1c76
  === BLOCK LINK ===
    0x1c0b
=== CODE BLOCK END ===

=== CODE BLOCK ADDRESS 0x1c0b ===
  0x1c0b	dec    	eax
  0x1c0c	cmp    	ecx, 0x80000000
  0x1c12	jne    	0x1c1d
  === BLOCK LINK ===
    0x1c14
=== CODE BLOCK END ===

=== CODE BLOCK ADDRESS 0x1c14 ===
  0x1c14	dec    	eax
  0x1c15	lea    	edx, [0x2945]
  0x1c1b	jmp    	0x1c76
  === BLOCK LINK ===
    0x1c1d
=== CODE BLOCK END ===

=== CODE BLOCK ADDRESS 0x1c1d ===
  0x1c1d	dec    	eax
  0x1c1e	cmp    	ecx, 0x80000003
  0x1c24	jne    	0x1c2f
  === BLOCK LINK ===
    0x1c26
=== CODE BLOCK END ===

=== CODE BLOCK ADDRESS 0x1c26 ===
  0x1c26	dec    	eax
  0x1c27	lea    	edx, [0x297b]
  0x1c2d	jmp    	0x1c76
  === BLOCK LINK ===
    0x1c2f
=== CODE BLOCK END ===

=== CODE BLOCK ADDRESS 0x1c2f ===
  0x1c2f	dec    	eax
  0x1c30	cmp    	ecx, 0x80000005
  0x1c36	jne    	0x1c41
  === BLOCK LINK ===
    0x1c38
=== CODE BLOCK END ===

=== CODE BLOCK ADDRESS 0x1c38 ===
  0x1c38	dec    	eax
  0x1c39	lea    	edx, [0x2991]
  0x1c3f	jmp    	0x1c76
  === BLOCK LINK ===
    0x1c41
=== CODE BLOCK END ===

=== CODE BLOCK ADDRESS 0x1c41 ===
  0x1c41	dec    	eax
  0x1c42	cmp    	ecx, 0x80000001
  0x1c48	jne    	0x1c8d
  === BLOCK LINK ===
    0x1c4a
=== CODE BLOCK END ===

=== CODE BLOCK ADDRESS 0x1c4a ===
  0x1c4a	dec    	eax
  0x1c4b	lea    	ecx, [esp + 0x30]
  0x1c4f	dec    	eax
  0x1c50	call   	dword ptr [0x273a]
  === BLOCK LINK ===
    0x1c56
=== CODE BLOCK END ===

=== CODE BLOCK ADDRESS 0x1c56 ===
  0x1c56	nop    	dword ptr [eax + eax]
  0x1c5b	test   	eax, eax
  0x1c5d	jns    	0x1c71
  === BLOCK LINK ===
    0x1c5f
=== CODE BLOCK END ===

=== CODE BLOCK ADDRESS 0x1c5f ===
  0x1c5f	mov    	ecx, eax
  0x1c61	dec    	eax
  0x1c62	call   	dword ptr [0x2748]
  === BLOCK LINK ===
    0x1c68
=== CODE BLOCK END ===

=== CODE BLOCK ADDRESS 0x1c68 ===
  0x1c68	nop    	dword ptr [eax + eax]
  0x1c6d	mov    	ebx, eax
  0x1c6f	jmp    	0x1c92
  === BLOCK LINK ===
    0x1c71
=== CODE BLOCK END ===

=== CODE BLOCK ADDRESS 0x1c71 ===
  0x1c71	dec    	eax
  0x1c72	mov    	edx, dword ptr [esp + 0x38]
  0x1c76	inc    	ecx
  0x1c77	mov    	ecx, 0x2000000
  0x1c7c	dec    	eax
  === BLOCK LINK ===
    0x1c7d
=== CODE BLOCK END ===

=== CODE BLOCK ADDRESS 0x1c7d ===
  0x1c7d	mov    	dword ptr [esp + 0x20], ebx
  0x1c81	inc    	ebp
  0x1c82	xor    	eax, eax
  0x1c84	xor    	ecx, ecx
  0x1c86	call   	0x1cbc
  === BLOCK LINK ===
    0x1c8b
=== CODE BLOCK END ===

=== CODE BLOCK ADDRESS 0x1c8b ===
  0x1c8b	jmp    	0x1c6d
  === BLOCK LINK ===
    0x1c8d
=== CODE BLOCK END ===

=== CODE BLOCK ADDRESS 0x1c8d ===
  0x1c8d	mov    	ebx, 0x32
  0x1c92	dec    	eax
  0x1c93	cmp    	dword ptr [esp + 0x38], 0
  0x1c98	je     	0x1cab
  === BLOCK LINK ===
    0x1c9a
=== CODE BLOCK END ===

=== CODE BLOCK ADDRESS 0x1c9a ===
  0x1c9a	dec    	eax
  0x1c9b	lea    	ecx, [esp + 0x30]
  0x1c9f	dec    	eax
  0x1ca0	call   	dword ptr [0x26e2]
  === BLOCK LINK ===
    0x1ca6
=== CODE BLOCK END ===

=== CODE BLOCK ADDRESS 0x1ca6 ===
  0x1ca6	nop    	dword ptr [eax + eax]
  0x1cab	mov    	eax, ebx
  0x1cad	dec    	eax
  0x1cae	add    	esp, 0x40
  0x1cb1	pop    	ebx
  === BLOCK LINK ===
    0x1cb2
=== CODE BLOCK END ===

=== CODE BLOCK ADDRESS 0x1cb2 ===
  0x1cb2	ret    	
  0x1cb3	int3   	
  0x1cb4	int3   	
  0x1cb5	int3   	
  0x1cb6	int3   	
  === BLOCK LINK ===
    0x1cb7
=== CODE BLOCK END ===

=== CODE BLOCK ADDRESS 0x1cb7 ===
  0x1cb7	int3   	
  0x1cb8	int3   	
  0x1cb9	int3   	
  0x1cba	int3   	
  0x1cbb	int3   	
  === BLOCK LINK ===
    0x1cbc
=== CODE BLOCK END ===

=== CODE BLOCK ADDRESS 0x1cbc ===
  0x1cbc	dec    	eax
  0x1cbd	mov    	dword ptr [esp + 0x10], ebx
  0x1cc1	dec    	eax
  0x1cc2	mov    	dword ptr [esp + 0x18], esi
  0x1cc6	dec    	eax
  === BLOCK LINK ===
    0x1cc7
=== CODE BLOCK END ===

=== CODE BLOCK ADDRESS 0x1cc7 ===
  0x1cc7	mov    	dword ptr [esp + 0x20], edi
  0x1ccb	push   	ebp
  0x1ccc	inc    	ecx
  0x1ccd	push   	esi
  0x1cce	inc    	ecx
  === BLOCK LINK ===
    0x1ccf
=== CODE BLOCK END ===

=== CODE BLOCK ADDRESS 0x1ccf ===
  0x1ccf	push   	edi
  0x1cd0	dec    	eax
  0x1cd1	mov    	ebp, esp
  0x1cd3	dec    	eax
  0x1cd4	sub    	esp, 0x70
  === BLOCK LINK ===
    0x1cd7
=== CODE BLOCK END ===

=== CODE BLOCK ADDRESS 0x1cd7 ===
  0x1cd7	xor    	ebx, ebx
  0x1cd9	mov    	eax, 0x80000000
  0x1cde	dec    	eax
  0x1cdf	add    	eax, ecx
  0x1ce1	dec    	eax
  === BLOCK LINK ===
    0x1ce2
=== CODE BLOCK END ===

=== CODE BLOCK ADDRESS 0x1ce2 ===
  0x1ce2	mov    	dword ptr [ebp + 0x20], ebx
  0x1ce5	xor    	edi, edi
  0x1ce7	inc    	ebp
  0x1ce8	mov    	esi, ecx
  0x1cea	dec    	esp
  === BLOCK LINK ===
    0x1ceb
=== CODE BLOCK END ===

=== CODE BLOCK ADDRESS 0x1ceb ===
  0x1ceb	mov    	edi, edx
  0x1ced	dec    	eax
  0x1cee	mov    	esi, ecx
  0x1cf0	dec    	eax
  0x1cf1	cmp    	eax, 7
  === BLOCK LINK ===
    0x1cf4
=== CODE BLOCK END ===

=== CODE BLOCK ADDRESS 0x1cf4 ===
  0x1cf4	ja     	0x1d09
  === BLOCK LINK ===
    0x1cf6
=== CODE BLOCK END ===

=== CODE BLOCK ADDRESS 0x1cf6 ===
  0x1cf6	dec    	eax
  0x1cf7	lea    	edx, [ebp + 0x20]
  0x1cfa	call   	0x1be8
  === BLOCK LINK ===
    0x1cff
=== CODE BLOCK END ===

=== CODE BLOCK ADDRESS 0x1cff ===
  0x1cff	dec    	eax
  0x1d00	mov    	ebx, dword ptr [ebp + 0x20]
  0x1d03	mov    	edi, eax
  0x1d05	test   	eax, eax
  0x1d07	jne    	0x1d7d
  === BLOCK LINK ===
    0x1d09
=== CODE BLOCK END ===

=== CODE BLOCK ADDRESS 0x1d09 ===
  0x1d09	dec    	ecx
  0x1d0a	mov    	edx, edi
  0x1d0c	dec    	eax
  0x1d0d	lea    	ecx, [ebp - 0x48]
  0x1d10	dec    	eax
  === BLOCK LINK ===
    0x1d11
=== CODE BLOCK END ===

=== CODE BLOCK ADDRESS 0x1d11 ===
  0x1d11	call   	dword ptr [0x2661]
  === BLOCK LINK ===
    0x1d17
=== CODE BLOCK END ===

=== CODE BLOCK ADDRESS 0x1d17 ===
  0x1d17	nop    	dword ptr [eax + eax]
  0x1d1c	dec    	eax
  0x1d1d	lea    	eax, [ebp - 0x48]
  0x1d20	mov    	dword ptr [ebp - 0x38], 0x30
  0x1d27	xorps  	xmm0, xmm0
  === BLOCK LINK ===
    0x1d2a
=== CODE BLOCK END ===

=== CODE BLOCK ADDRESS 0x1d2a ===
  0x1d2a	mov    	dword ptr [ebp - 0x20], 0x40
  0x1d31	dec    	eax
  0x1d32	test   	ebx, ebx
  0x1d34	dec    	eax
  0x1d35	mov    	dword ptr [ebp - 0x28], eax
  === BLOCK LINK ===
    0x1d38
=== CODE BLOCK END ===

=== CODE BLOCK ADDRESS 0x1d38 ===
  0x1d38	dec    	esp
  0x1d39	lea    	eax, [ebp - 0x38]
  0x1d3c	inc    	ecx
  0x1d3d	mov    	edx, esi
  0x1d3f	dec    	eax
  === BLOCK LINK ===
    0x1d40
=== CODE BLOCK END ===

=== CODE BLOCK ADDRESS 0x1d40 ===
  0x1d40	cmovne  	esi, ebx
  0x1d43	dec    	eax
  0x1d44	lea    	ecx, [ebp - 0x50]
  0x1d47	dec    	eax
  0x1d48	mov    	dword ptr [ebp - 0x30], esi
  === BLOCK LINK ===
    0x1d4b
=== CODE BLOCK END ===

=== CODE BLOCK ADDRESS 0x1d4b ===
  0x1d4b	movdqu  	xmmword ptr [ebp - 0x18], xmm0
  0x1d50	dec    	eax
  0x1d51	call   	dword ptr [0x2619]
  === BLOCK LINK ===
    0x1d57
=== CODE BLOCK END ===

=== CODE BLOCK ADDRESS 0x1d57 ===
  0x1d57	nop    	dword ptr [eax + eax]
  0x1d5c	test   	eax, eax
  0x1d5e	jns    	0x1d72
  === BLOCK LINK ===
    0x1d60
=== CODE BLOCK END ===

=== CODE BLOCK ADDRESS 0x1d60 ===
  0x1d60	mov    	ecx, eax
  0x1d62	dec    	eax
  0x1d63	call   	dword ptr [0x2647]
  === BLOCK LINK ===
    0x1d69
=== CODE BLOCK END ===

=== CODE BLOCK ADDRESS 0x1d69 ===
  0x1d69	nop    	dword ptr [eax + eax]
  0x1d6e	mov    	edi, eax
  0x1d70	jmp    	0x1d7d
  === BLOCK LINK ===
    0x1d72
=== CODE BLOCK END ===

=== CODE BLOCK ADDRESS 0x1d72 ===
  0x1d72	dec    	eax
  0x1d73	mov    	eax, dword ptr [ebp + 0x40]
  0x1d76	dec    	eax
  0x1d77	arpl   	word ptr [ebp - 0x50], cx
  0x1d7a	dec    	eax
  === BLOCK LINK ===
    0x1d7b
=== CODE BLOCK END ===

=== CODE BLOCK ADDRESS 0x1d7b ===
  0x1d7b	mov    	dword ptr [eax], ecx
  0x1d7d	dec    	eax
  0x1d7e	test   	ebx, ebx
  0x1d80	je     	0x1d90
  === BLOCK LINK ===
    0x1d82
=== CODE BLOCK END ===

=== CODE BLOCK ADDRESS 0x1d82 ===
  0x1d82	mov    	ecx, ebx
  0x1d84	dec    	eax
  0x1d85	call   	dword ptr [0x25f5]
  === BLOCK LINK ===
    0x1d8b
=== CODE BLOCK END ===

=== CODE BLOCK ADDRESS 0x1d8b ===
  0x1d8b	nop    	dword ptr [eax + eax]
  0x1d90	dec    	esp
  0x1d91	lea    	ebx, [esp + 0x70]
  0x1d95	mov    	eax, edi
  0x1d97	dec    	ecx
  === BLOCK LINK ===
    0x1d98
=== CODE BLOCK END ===

=== CODE BLOCK ADDRESS 0x1d98 ===
  0x1d98	mov    	ebx, dword ptr [ebx + 0x28]
  0x1d9b	dec    	ecx
  0x1d9c	mov    	esi, dword ptr [ebx + 0x30]
  0x1d9f	dec    	ecx
  0x1da0	mov    	edi, dword ptr [ebx + 0x38]
  === BLOCK LINK ===
    0x1da3
=== CODE BLOCK END ===

=== CODE BLOCK ADDRESS 0x1da3 ===
  0x1da3	dec    	ecx
  0x1da4	mov    	esp, ebx
  0x1da6	inc    	ecx
  0x1da7	pop    	edi
  0x1da8	inc    	ecx
  === BLOCK LINK ===
    0x1da9
=== CODE BLOCK END ===

=== CODE BLOCK ADDRESS 0x1da9 ===
  0x1da9	pop    	esi
  0x1daa	pop    	ebp
  0x1dab	ret    	
  0x1dac	int3   	
  0x1dad	int3   	
  === BLOCK LINK ===
    0x1dae
=== CODE BLOCK END ===

=== CODE BLOCK ADDRESS 0x11b2 ===
  0x11b2	inc    	esp
  0x11b3	mov    	dword ptr [0x54c7], esi
  === BLOCK LINK ===
    0x11b9
=== CODE BLOCK END ===

=== CODE BLOCK ADDRESS 0x1dae ===
  0x1dae	int3   	
  0x1daf	int3   	
  0x1db0	int3   	
  0x1db1	int3   	
  0x1db2	int3   	
  === BLOCK LINK ===
    0x1db3
=== CODE BLOCK END ===

=== CODE BLOCK ADDRESS 0x1db3 ===
  0x1db3	int3   	
  0x1db4	inc    	eax
  0x1db5	push   	ebx
  0x1db6	push   	ebp
  0x1db7	push   	esi
  === BLOCK LINK ===
    0x1db8
=== CODE BLOCK END ===

=== CODE BLOCK ADDRESS 0x1db8 ===
  0x1db8	push   	edi
  0x1db9	inc    	ecx
  0x1dba	push   	esp
  0x1dbb	inc    	ecx
  0x1dbc	push   	ebp
  === BLOCK LINK ===
    0x1dbd
=== CODE BLOCK END ===

=== CODE BLOCK ADDRESS 0x1dbd ===
  0x1dbd	inc    	ecx
  0x1dbe	push   	esi
  0x1dbf	inc    	ecx
  0x1dc0	push   	edi
  0x1dc1	dec    	eax
  === BLOCK LINK ===
    0x1dc2
=== CODE BLOCK END ===

=== CODE BLOCK ADDRESS 0x1dc2 ===
  0x1dc2	sub    	esp, 0x68
  0x1dc5	dec    	eax
  0x1dc6	mov    	eax, dword ptr [0x423c]
  0x1dcc	dec    	eax
  0x1dcd	xor    	eax, esp
  === BLOCK LINK ===
    0x1dcf
=== CODE BLOCK END ===

=== CODE BLOCK ADDRESS 0x1dcf ===
  0x1dcf	dec    	eax
  0x1dd0	mov    	dword ptr [esp + 0x58], eax
  0x1dd4	dec    	esp
  0x1dd5	mov    	esi, dword ptr [esp + 0xd0]
  0x1ddc	xor    	edi, edi
  === BLOCK LINK ===
    0x1dde
=== CODE BLOCK END ===

=== CODE BLOCK ADDRESS 0x1dde ===
  0x1dde	dec    	ecx
  0x1ddf	mov    	ebp, ecx
  0x1de1	dec    	ebp
  0x1de2	mov    	edi, eax
  0x1de4	dec    	esp
  === BLOCK LINK ===
    0x1de5
=== CODE BLOCK END ===

=== CODE BLOCK ADDRESS 0x1de5 ===
  0x1de5	mov    	ebp, edx
  0x1de7	dec    	esp
  0x1de8	mov    	esp, ecx
  0x1dea	dec    	ebp
  0x1deb	test   	ecx, ecx
  === BLOCK LINK ===
    0x1ded
=== CODE BLOCK END ===

=== CODE BLOCK ADDRESS 0x1ded ===
  0x1ded	je     	0x1e1d
  === BLOCK LINK ===
    0x1def
=== CODE BLOCK END ===

=== CODE BLOCK ADDRESS 0x1def ===
  0x1def	inc    	ecx
  0x1df0	mov    	esi, dword ptr [esi]
  0x1df2	xor    	edx, edx
  0x1df4	dec    	eax
  0x1df5	mov    	ecx, dword ptr [0x487d]
  === BLOCK LINK ===
    0x1dfb
=== CODE BLOCK END ===

=== CODE BLOCK ADDRESS 0x1dfb ===
  0x1dfb	add    	esi, 0xf
  0x1dfe	inc    	esp
  0x1dff	mov    	eax, esi
  0x1e01	dec    	eax
  0x1e02	call   	dword ptr [0x23a8]
  === BLOCK LINK ===
    0x1e08
=== CODE BLOCK END ===

=== CODE BLOCK ADDRESS 0x1e08 ===
  0x1e08	nop    	dword ptr [eax + eax]
  0x1e0d	dec    	eax
  0x1e0e	mov    	ebx, eax
  0x1e10	dec    	eax
  0x1e11	test   	eax, eax
  === BLOCK LINK ===
    0x1e13
=== CODE BLOCK END ===

=== CODE BLOCK ADDRESS 0x1e13 ===
  0x1e13	jne    	0x1e27
  === BLOCK LINK ===
    0x1e15
=== CODE BLOCK END ===

=== CODE BLOCK ADDRESS 0x1e15 ===
  0x1e15	lea    	edi, [eax + 0xe]
  0x1e18	jmp    	0x1ee6
  === BLOCK LINK ===
    0x1e1d
=== CODE BLOCK END ===

=== CODE BLOCK ADDRESS 0x1e1d ===
  0x1e1d	dec    	eax
  0x1e1e	lea    	ebx, [esp + 0x48]
  0x1e22	mov    	esi, 0x10
  0x1e27	dec    	ecx
  0x1e28	mov    	edx, ebp
  === BLOCK LINK ===
    0x1e2a
=== CODE BLOCK END ===

=== CODE BLOCK ADDRESS 0x1e2a ===
  0x1e2a	dec    	eax
  0x1e2b	lea    	ecx, [esp + 0x38]
  0x1e2f	dec    	eax
  0x1e30	call   	dword ptr [0x2542]
  === BLOCK LINK ===
    0x1e36
=== CODE BLOCK END ===

=== CODE BLOCK ADDRESS 0x1e36 ===
  0x1e36	nop    	dword ptr [eax + eax]
  0x1e3b	dec    	eax
  0x1e3c	lea    	eax, [esp + 0x30]
  0x1e40	inc    	ecx
  0x1e41	mov    	ecx, esp
  === BLOCK LINK ===
    0x1e43
=== CODE BLOCK END ===

=== CODE BLOCK ADDRESS 0x1e43 ===
  0x1e43	dec    	eax
  0x1e44	mov    	dword ptr [esp + 0x28], eax
  0x1e48	dec    	eax
  0x1e49	lea    	edx, [esp + 0x38]
  0x1e4d	dec    	esp
  === BLOCK LINK ===
    0x1e4e
=== CODE BLOCK END ===

=== CODE BLOCK ADDRESS 0x1e4e ===
  0x1e4e	mov    	ecx, ebx
  0x1e50	mov    	dword ptr [esp + 0x20], esi
  0x1e54	inc    	ecx
  0x1e55	mov    	eax, 2
  0x1e5a	dec    	eax
  === BLOCK LINK ===
    0x1e5b
=== CODE BLOCK END ===

=== CODE BLOCK ADDRESS 0x1e5b ===
  0x1e5b	call   	dword ptr [0x2507]
  === BLOCK LINK ===
    0x1e61
=== CODE BLOCK END ===

=== CODE BLOCK ADDRESS 0x1e61 ===
  0x1e61	nop    	dword ptr [eax + eax]
  0x1e66	mov    	edx, 0x80000000
  0x1e6b	mov    	ecx, eax
  0x1e6d	add    	eax, edx
  0x1e6f	test   	edx, eax
  === BLOCK LINK ===
    0x1e71
=== CODE BLOCK END ===

=== CODE BLOCK ADDRESS 0x1e71 ===
  0x1e71	jne    	0x1e8b
  === BLOCK LINK ===
    0x1e73
=== CODE BLOCK END ===

=== CODE BLOCK ADDRESS 0x1e73 ===
  0x1e73	cmp    	ecx, 0x80000005
  0x1e79	je     	0x1e8b
  === BLOCK LINK ===
    0x1e7b
=== CODE BLOCK END ===

=== CODE BLOCK ADDRESS 0x1e7b ===
  0x1e7b	dec    	eax
  0x1e7c	call   	dword ptr [0x252e]
  === BLOCK LINK ===
    0x1e82
=== CODE BLOCK END ===

=== CODE BLOCK ADDRESS 0x1e82 ===
  0x1e82	nop    	dword ptr [eax + eax]
  0x1e87	mov    	edi, eax
  0x1e89	jmp    	0x1ebf
  === BLOCK LINK ===
    0x1e8b
=== CODE BLOCK END ===

=== CODE BLOCK ADDRESS 0x1e8b ===
  0x1e8b	dec    	eax
  0x1e8c	test   	ebp, ebp
  0x1e8e	je     	0x1eae
  === BLOCK LINK ===
    0x1e90
=== CODE BLOCK END ===

=== CODE BLOCK ADDRESS 0x1e90 ===
  0x1e90	mov    	eax, dword ptr [ebx + 8]
  0x1e93	inc    	ecx
  0x1e94	cmp    	dword ptr [esi], eax
  0x1e96	jb     	0x1ea9
  === BLOCK LINK ===
    0x1e98
=== CODE BLOCK END ===

=== CODE BLOCK ADDRESS 0x1e98 ===
  0x1e98	inc    	esp
  0x1e99	mov    	eax, eax
  0x1e9b	dec    	eax
  0x1e9c	lea    	edx, [ebx + 0xc]
  0x1e9f	dec    	eax
  === BLOCK LINK ===
    0x1ea0
=== CODE BLOCK END ===

=== CODE BLOCK ADDRESS 0x1ea0 ===
  0x1ea0	mov    	ecx, ebp
  0x1ea2	call   	0x319c
  === BLOCK LINK ===
    0x1ea7
=== CODE BLOCK END ===

=== CODE BLOCK ADDRESS 0x1ea7 ===
  0x1ea7	jmp    	0x1eae
  === BLOCK LINK ===
    0x1ea9
=== CODE BLOCK END ===

=== CODE BLOCK ADDRESS 0x1ea9 ===
  0x1ea9	mov    	edi, 0x7a
  0x1eae	mov    	eax, dword ptr [ebx + 8]
  0x1eb1	inc    	ecx
  0x1eb2	mov    	dword ptr [esi], eax
  0x1eb4	dec    	ebp
  === BLOCK LINK ===
    0x1eb5
=== CODE BLOCK END ===

=== CODE BLOCK ADDRESS 0x1eb5 ===
  0x1eb5	test   	edi, edi
  0x1eb7	je     	0x1ebf
  === BLOCK LINK ===
    0x1eb9
=== CODE BLOCK END ===

=== CODE BLOCK ADDRESS 0x1eb9 ===
  0x1eb9	mov    	eax, dword ptr [ebx + 4]
  0x1ebc	inc    	ecx
  0x1ebd	mov    	dword ptr [edi], eax
  0x1ebf	dec    	eax
  0x1ec0	test   	ebx, ebx
  === BLOCK LINK ===
    0x1ec2
=== CODE BLOCK END ===

=== CODE BLOCK ADDRESS 0x1ec2 ===
  0x1ec2	je     	0x1ee6
  === BLOCK LINK ===
    0x1ec4
=== CODE BLOCK END ===

=== CODE BLOCK ADDRESS 0x1ec4 ===
  0x1ec4	dec    	eax
  0x1ec5	lea    	eax, [esp + 0x48]
  0x1ec9	dec    	eax
  0x1eca	cmp    	ebx, eax
  0x1ecc	je     	0x1ee6
  === BLOCK LINK ===
    0x1ece
=== CODE BLOCK END ===

=== CODE BLOCK ADDRESS 0x1ece ===
  0x1ece	dec    	eax
  0x1ecf	mov    	ecx, dword ptr [0x47a3]
  0x1ed5	dec    	esp
  0x1ed6	mov    	eax, ebx
  0x1ed8	xor    	edx, edx
  === BLOCK LINK ===
    0x1eda
=== CODE BLOCK END ===

=== CODE BLOCK ADDRESS 0x1eda ===
  0x1eda	dec    	eax
  0x1edb	call   	dword ptr [0x22c7]
  === BLOCK LINK ===
    0x1ee1
=== CODE BLOCK END ===

=== CODE BLOCK ADDRESS 0x1ee1 ===
  0x1ee1	nop    	dword ptr [eax + eax]
  0x1ee6	mov    	eax, edi
  0x1ee8	dec    	eax
  0x1ee9	mov    	ecx, dword ptr [esp + 0x58]
  0x1eed	dec    	eax
  === BLOCK LINK ===
    0x1eee
=== CODE BLOCK END ===

=== CODE BLOCK ADDRESS 0x1eee ===
  0x1eee	xor    	ecx, esp
  0x1ef0	call   	0x2a90
  === BLOCK LINK ===
    0x1ef5
=== CODE BLOCK END ===

=== CODE BLOCK ADDRESS 0x1ef5 ===
  0x1ef5	dec    	eax
  0x1ef6	add    	esp, 0x68
  0x1ef9	inc    	ecx
  0x1efa	pop    	edi
  0x1efb	inc    	ecx
  === BLOCK LINK ===
    0x1efc
=== CODE BLOCK END ===

=== CODE BLOCK ADDRESS 0x1efc ===
  0x1efc	pop    	esi
  0x1efd	inc    	ecx
  0x1efe	pop    	ebp
  0x1eff	inc    	ecx
  0x1f00	pop    	esp
  === BLOCK LINK ===
    0x1f01
=== CODE BLOCK END ===

=== CODE BLOCK ADDRESS 0x1f01 ===
  0x1f01	pop    	edi
  0x1f02	pop    	esi
  0x1f03	pop    	ebp
  0x1f04	pop    	ebx
  0x1f05	ret    	
  === BLOCK LINK ===
    0x1f06
=== CODE BLOCK END ===

=== CODE BLOCK ADDRESS 0x1f06 ===
  0x1f06	int3   	
  0x1f07	int3   	
  0x1f08	int3   	
  0x1f09	int3   	
  0x1f0a	int3   	
  === BLOCK LINK ===
    0x1f0b
=== CODE BLOCK END ===

=== CODE BLOCK ADDRESS 0x1f0b ===
  0x1f0b	int3   	
  0x1f0c	int3   	
  0x1f0d	int3   	
  0x1f0e	int3   	
  0x1f0f	int3   	
  === BLOCK LINK ===
    0x1f10
=== CODE BLOCK END ===

=== CODE BLOCK ADDRESS 0x1f10 ===
  0x1f10	dec    	eax
  0x1f11	mov    	dword ptr [esp + 8], ebx
  0x1f15	dec    	eax
  0x1f16	mov    	dword ptr [esp + 0x10], ebp
  0x1f1a	dec    	eax
  === BLOCK LINK ===
    0x1f1b
=== CODE BLOCK END ===

=== CODE BLOCK ADDRESS 0x1f1b ===
  0x1f1b	mov    	dword ptr [esp + 0x18], esi
  0x1f1f	push   	edi
  0x1f20	dec    	eax
  0x1f21	sub    	esp, 0x20
  0x1f24	dec    	eax
  === BLOCK LINK ===
    0x1f25
=== CODE BLOCK END ===

=== CODE BLOCK ADDRESS 0x1f25 ===
  0x1f25	or     	eax, 0xffffffff
  0x1f28	dec    	eax
  0x1f29	mov    	edi, ecx
  0x1f2b	xor    	ebp, ebp
  0x1f2d	dec    	eax
  === BLOCK LINK ===
    0x1f2e
=== CODE BLOCK END ===

=== CODE BLOCK ADDRESS 0x1f2e ===
  0x1f2e	inc    	eax
  0x1f30	cmp    	word ptr [ecx + eax*2], bp
  0x1f34	jne    	0x1f2d
  === BLOCK LINK ===
    0x1f36
=== CODE BLOCK END ===

=== CODE BLOCK ADDRESS 0x1f36 ===
  0x1f36	inc    	eax
  0x1f38	mov    	ecx, 0xffffffff
  0x1f3d	mov    	esi, eax
  0x1f3f	dec    	eax
  0x1f40	add    	eax, eax
  === BLOCK LINK ===
    0x1f42
=== CODE BLOCK END ===

=== CODE BLOCK ADDRESS 0x1f42 ===
  0x1f42	dec    	eax
  0x1f43	cmp    	eax, ecx
  0x1f45	ja     	0x1f90
  === BLOCK LINK ===
    0x1f47
=== CODE BLOCK END ===

=== CODE BLOCK ADDRESS 0x1f47 ===
  0x1f47	dec    	eax
  0x1f48	mov    	ecx, dword ptr [0x472a]
  0x1f4e	xor    	edx, edx
  0x1f50	inc    	esp
  0x1f51	mov    	eax, eax
  === BLOCK LINK ===
    0x1f53
=== CODE BLOCK END ===

=== CODE BLOCK ADDRESS 0x1f53 ===
  0x1f53	dec    	eax
  0x1f54	call   	dword ptr [0x2256]
  === BLOCK LINK ===
    0x1f5a
=== CODE BLOCK END ===

=== CODE BLOCK ADDRESS 0x1f5a ===
  0x1f5a	nop    	dword ptr [eax + eax]
  0x1f5f	dec    	eax
  0x1f60	mov    	ebx, eax
  0x1f62	dec    	eax
  0x1f63	test   	eax, eax
  === BLOCK LINK ===
    0x1f65
=== CODE BLOCK END ===

=== CODE BLOCK ADDRESS 0x1f65 ===
  0x1f65	je     	0x1f93
  === BLOCK LINK ===
    0x1f67
=== CODE BLOCK END ===

=== CODE BLOCK ADDRESS 0x1f67 ===
  0x1f67	dec    	esp
  0x1f68	mov    	eax, edi
  0x1f6a	mov    	edx, esi
  0x1f6c	dec    	eax
  0x1f6d	mov    	ecx, eax
  === BLOCK LINK ===
    0x1f6f
=== CODE BLOCK END ===

=== CODE BLOCK ADDRESS 0x1f6f ===
  0x1f6f	call   	0x1b5c
  === BLOCK LINK ===
    0x1f74
=== CODE BLOCK END ===

=== CODE BLOCK ADDRESS 0x1f74 ===
  0x1f74	test   	eax, eax
  0x1f76	jns    	0x1f93
  === BLOCK LINK ===
    0x1f78
=== CODE BLOCK END ===

=== CODE BLOCK ADDRESS 0x1f78 ===
  0x1f78	dec    	eax
  0x1f79	mov    	ecx, dword ptr [0x46f9]
  0x1f7f	dec    	esp
  0x1f80	mov    	eax, ebx
  0x1f82	xor    	edx, edx
  === BLOCK LINK ===
    0x1f84
=== CODE BLOCK END ===

=== CODE BLOCK ADDRESS 0x1f84 ===
  0x1f84	dec    	eax
  0x1f85	call   	dword ptr [0x221d]
  === BLOCK LINK ===
    0x1f8b
=== CODE BLOCK END ===

=== CODE BLOCK ADDRESS 0x1f8b ===
  0x1f8b	nop    	dword ptr [eax + eax]
  0x1f90	dec    	eax
  0x1f91	mov    	ebx, ebp
  0x1f93	dec    	eax
  0x1f94	mov    	ebp, dword ptr [esp + 0x38]
  === BLOCK LINK ===
    0x1f98
=== CODE BLOCK END ===

=== CODE BLOCK ADDRESS 0x1f98 ===
  0x1f98	dec    	eax
  0x1f99	mov    	eax, ebx
  0x1f9b	dec    	eax
  0x1f9c	mov    	ebx, dword ptr [esp + 0x30]
  0x1fa0	dec    	eax
  === BLOCK LINK ===
    0x1fa1
=== CODE BLOCK END ===

=== CODE BLOCK ADDRESS 0x1fa1 ===
  0x1fa1	mov    	esi, dword ptr [esp + 0x40]
  0x1fa5	dec    	eax
  0x1fa6	add    	esp, 0x20
  0x1fa9	pop    	edi
  0x1faa	ret    	
  === BLOCK LINK ===
    0x1fab
=== CODE BLOCK END ===

=== CODE BLOCK ADDRESS 0x14b0 ===
=== CODE BLOCK END ===

=== CODE BLOCK ADDRESS 0x1fab ===
  0x1fab	int3   	
  0x1fac	int3   	
  0x1fad	int3   	
  0x1fae	int3   	
  0x1faf	int3   	
  === BLOCK LINK ===
    0x1fb0
=== CODE BLOCK END ===

=== CODE BLOCK ADDRESS 0x1fb0 ===
  0x1fb0	int3   	
  0x1fb1	int3   	
  0x1fb2	int3   	
  0x1fb3	int3   	
  0x1fb4	dec    	eax
  === BLOCK LINK ===
    0x1fb5
=== CODE BLOCK END ===

=== CODE BLOCK ADDRESS 0x1fb5 ===
  0x1fb5	mov    	dword ptr [esp + 8], ebx
  0x1fb9	dec    	eax
  0x1fba	mov    	dword ptr [esp + 0x10], esi
  0x1fbe	dec    	eax
  0x1fbf	mov    	dword ptr [esp + 0x18], edi
  === BLOCK LINK ===
    0x1fc3
=== CODE BLOCK END ===

=== CODE BLOCK ADDRESS 0x1fc3 ===
  0x1fc3	inc    	ecx
  0x1fc4	push   	esi
  0x1fc5	dec    	eax
  0x1fc6	sub    	esp, 0x20
  0x1fc9	xor    	ebx, ebx
  === BLOCK LINK ===
    0x1fcb
=== CODE BLOCK END ===

=== CODE BLOCK ADDRESS 0x1fcb ===
  0x1fcb	inc    	ecx
  0x1fcc	mov    	esi, eax
  0x1fce	dec    	ecx
  0x1fcf	or     	eax, 0xffffffff
  0x1fd2	dec    	esp
  === BLOCK LINK ===
    0x1fd3
=== CODE BLOCK END ===

=== CODE BLOCK ADDRESS 0x1fd3 ===
  0x1fd3	mov    	edx, edx
  0x1fd5	dec    	ebp
  0x1fd6	mov    	ecx, eax
  0x1fd8	dec    	esp
  0x1fd9	mov    	esi, ecx
  === BLOCK LINK ===
    0x1fdb
=== CODE BLOCK END ===

=== CODE BLOCK ADDRESS 0x1fdb ===
  0x1fdb	mov    	edi, ebx
  0x1fdd	dec    	ecx
  0x1fde	inc    	ecx
  0x1fe0	inc    	dx
  0x1fe2	cmp    	dword ptr [ecx + ecx*2], ebx
  === BLOCK LINK ===
    0x1fe5
=== CODE BLOCK END ===

=== CODE BLOCK ADDRESS 0x1fe5 ===
  0x1fe5	jne    	0x1fdd
  === BLOCK LINK ===
    0x1fe7
=== CODE BLOCK END ===

=== CODE BLOCK ADDRESS 0x1fe7 ===
  0x1fe7	dec    	ecx
  0x1fe8	inc    	eax
  0x1fea	inc    	dx
  0x1fec	cmp    	dword ptr [edx + eax*2], ebx
  0x1fef	jne    	0x1fe7
  === BLOCK LINK ===
    0x1ff1
=== CODE BLOCK END ===

=== CODE BLOCK ADDRESS 0x1ff1 ===
  0x1ff1	or     	edx, 0xffffffff
  0x1ff4	inc    	ecx
  0x1ff5	mov    	ebx, 0x5c
  0x1ffa	inc    	ebp
  0x1ffb	test   	ecx, ecx
  === BLOCK LINK ===
    0x1ffd
=== CODE BLOCK END ===

=== CODE BLOCK ADDRESS 0x1ffd ===
  0x1ffd	je     	0x2015
  === BLOCK LINK ===
    0x1fff
=== CODE BLOCK END ===

=== CODE BLOCK ADDRESS 0x1fff ===
  0x1fff	inc    	ecx
  0x2000	mov    	eax, ecx
  0x2002	inc    	sp
  0x2004	cmp    	dword ptr [ecx + eax*2 - 2], ebx
  0x2008	je     	0x2012
  === BLOCK LINK ===
    0x200a
=== CODE BLOCK END ===

=== CODE BLOCK ADDRESS 0x200a ===
  0x200a	cmp    	word ptr [ecx + eax*2 - 2], 0x2f
  0x2010	jne    	0x2015
  === BLOCK LINK ===
    0x2012
=== CODE BLOCK END ===

=== CODE BLOCK ADDRESS 0x2012 ===
  0x2012	inc    	esp
  0x2013	add    	ecx, edx
  0x2015	inc    	bp
  0x2017	cmp    	dword ptr [edx], ebx
  0x2019	je     	0x2026
  === BLOCK LINK ===
    0x201b
=== CODE BLOCK END ===

=== CODE BLOCK ADDRESS 0x201b ===
  0x201b	inc    	cx
  0x201d	cmp    	dword ptr [edx], 0x2f
  0x2020	je     	0x2026
  === BLOCK LINK ===
    0x2022
=== CODE BLOCK END ===

=== CODE BLOCK ADDRESS 0x2022 ===
  0x2022	mov    	ecx, ebx
  0x2024	jmp    	0x202e
  === BLOCK LINK ===
    0x2026
=== CODE BLOCK END ===

=== CODE BLOCK ADDRESS 0x2026 ===
  0x2026	mov    	ecx, 1
  0x202b	inc    	esp
  0x202c	add    	eax, edx
  0x202e	inc    	ecx
  0x202f	lea    	eax, [ecx + 2]
  === BLOCK LINK ===
    0x2032
=== CODE BLOCK END ===

=== CODE BLOCK ADDRESS 0x2032 ===
  0x2032	inc    	ecx
  0x2033	add    	eax, eax
  0x2035	cmp    	eax, esi
  0x2037	ja     	0x2082
  === BLOCK LINK ===
    0x2039
=== CODE BLOCK END ===

=== CODE BLOCK ADDRESS 0x2039 ===
  0x2039	test   	ecx, ecx
  0x203b	jne    	0x204d
  === BLOCK LINK ===
    0x203d
=== CODE BLOCK END ===

=== CODE BLOCK ADDRESS 0x203d ===
  0x203d	inc    	esp
  0x203e	cmp    	ecx, esi
  0x2040	jae    	0x2052
  === BLOCK LINK ===
    0x2042
=== CODE BLOCK END ===

=== CODE BLOCK ADDRESS 0x2042 ===
  0x2042	inc    	ecx
  0x2043	mov    	eax, ecx
  0x2045	inc    	ecx
  0x2046	inc    	ecx
  0x2048	inc    	bp
  === BLOCK LINK ===
    0x204a
=== CODE BLOCK END ===

=== CODE BLOCK ADDRESS 0x204a ===
  0x204a	mov    	dword ptr [esi + eax*2], ebx
  0x204d	inc    	esp
  0x204e	cmp    	ecx, esi
  0x2050	jb     	0x2059
  === BLOCK LINK ===
    0x2052
=== CODE BLOCK END ===

=== CODE BLOCK ADDRESS 0x2052 ===
  0x2052	mov    	edi, 0xce
  0x2057	jmp    	0x2074
  === BLOCK LINK ===
    0x2059
=== CODE BLOCK END ===

=== CODE BLOCK ADDRESS 0x2059 ===
  0x2059	inc    	ecx
  0x205a	mov    	eax, ecx
  0x205c	mov    	edx, esi
  0x205e	inc    	ecx
  0x205f	sub    	edx, ecx
  === BLOCK LINK ===
    0x2061
=== CODE BLOCK END ===

=== CODE BLOCK ADDRESS 0x2061 ===
  0x2061	dec    	ebp
  0x2062	mov    	eax, edx
  0x2064	dec    	ecx
  0x2065	lea    	ecx, [esi + eax*2]
  0x2068	call   	0x1b5c
  === BLOCK LINK ===
    0x206d
=== CODE BLOCK END ===

=== CODE BLOCK ADDRESS 0x206d ===
  0x206d	test   	eax, eax
  0x206f	jns    	0x2074
  === BLOCK LINK ===
    0x2071
=== CODE BLOCK END ===

=== CODE BLOCK ADDRESS 0x2071 ===
  0x2071	movzx  	edi, ax
  0x2074	test   	esi, esi
  0x2076	je     	0x2087
  === BLOCK LINK ===
    0x2078
=== CODE BLOCK END ===

=== CODE BLOCK ADDRESS 0x2078 ===
  0x2078	lea    	eax, [esi - 1]
  0x207b	inc    	cx
  0x207d	mov    	dword ptr [esi + eax*2], ebx
  0x2080	jmp    	0x2087
  === BLOCK LINK ===
    0x2082
=== CODE BLOCK END ===

=== CODE BLOCK ADDRESS 0x2082 ===
  0x2082	mov    	edi, 0xce
  0x2087	test   	edi, edi
  0x2089	je     	0x209b
  === BLOCK LINK ===
    0x208b
=== CODE BLOCK END ===

=== CODE BLOCK ADDRESS 0x208b ===
  0x208b	mov    	ecx, edi
  0x208d	dec    	eax
  0x208e	call   	dword ptr [0x20ac]
  === BLOCK LINK ===
    0x2094
=== CODE BLOCK END ===

=== CODE BLOCK ADDRESS 0x2094 ===
  0x2094	nop    	dword ptr [eax + eax]
  0x2099	test   	edi, edi
  0x209b	dec    	eax
  0x209c	mov    	esi, dword ptr [esp + 0x38]
  0x20a0	sete   	bl
  === BLOCK LINK ===
    0x20a3
=== CODE BLOCK END ===

=== CODE BLOCK ADDRESS 0x20a3 ===
  0x20a3	dec    	eax
  0x20a4	mov    	edi, dword ptr [esp + 0x40]
  0x20a8	mov    	eax, ebx
  0x20aa	dec    	eax
  0x20ab	mov    	ebx, dword ptr [esp + 0x30]
  === BLOCK LINK ===
    0x20af
=== CODE BLOCK END ===

=== CODE BLOCK ADDRESS 0x20af ===
  0x20af	dec    	eax
  0x20b0	add    	esp, 0x20
  0x20b3	inc    	ecx
  0x20b4	pop    	esi
  0x20b5	ret    	
  === BLOCK LINK ===
    0x20b6
=== CODE BLOCK END ===

=== CODE BLOCK ADDRESS 0x20b6 ===
  0x20b6	int3   	
  0x20b7	int3   	
  0x20b8	int3   	
  0x20b9	int3   	
  0x20ba	int3   	
  === BLOCK LINK ===
    0x20bb
=== CODE BLOCK END ===

=== CODE BLOCK ADDRESS 0x20bb ===
  0x20bb	int3   	
  0x20bc	int3   	
  0x20bd	int3   	
  0x20be	int3   	
  0x20bf	int3   	
  === BLOCK LINK ===
    0x20c0
=== CODE BLOCK END ===

=== CODE BLOCK ADDRESS 0x20c0 ===
  0x20c0	dec    	esp
  0x20c1	mov    	dword ptr [esp + 0x18], eax
  0x20c5	push   	ebx
  0x20c6	push   	esi
  0x20c7	push   	edi
  === BLOCK LINK ===
    0x20c8
=== CODE BLOCK END ===

=== CODE BLOCK ADDRESS 0x20c8 ===
  0x20c8	inc    	ecx
  0x20c9	push   	esp
  0x20ca	inc    	ecx
  0x20cb	push   	ebp
  0x20cc	inc    	ecx
  === BLOCK LINK ===
    0x20cd
=== CODE BLOCK END ===

=== CODE BLOCK ADDRESS 0x20cd ===
  0x20cd	push   	esi
  0x20ce	inc    	ecx
  0x20cf	push   	edi
  0x20d0	dec    	eax
  0x20d1	sub    	esp, 0x40
  === BLOCK LINK ===
    0x20d4
=== CODE BLOCK END ===

=== CODE BLOCK ADDRESS 0x20d4 ===
  0x20d4	dec    	ecx
  0x20d5	mov    	edi, eax
  0x20d7	dec    	eax
  0x20d8	mov    	esi, edx
  0x20da	dec    	esp
  === BLOCK LINK ===
    0x20db
=== CODE BLOCK END ===

=== CODE BLOCK ADDRESS 0x20db ===
  0x20db	mov    	edi, ecx
  0x20dd	xor    	ebx, ebx
  0x20df	dec    	eax
  0x20e0	test   	ecx, ecx
  0x20e2	jne    	0x2117
  === BLOCK LINK ===
    0x20e4
=== CODE BLOCK END ===

=== CODE BLOCK ADDRESS 0x20e4 ===
  0x20e4	dec    	eax
  0x20e5	test   	edx, edx
  0x20e7	jne    	0x2117
  === BLOCK LINK ===
    0x20e9
=== CODE BLOCK END ===

=== CODE BLOCK ADDRESS 0x20e9 ===
  0x20e9	inc    	esp
  0x20ea	lea    	eax, [ecx + 2]
  0x20ed	dec    	eax
  0x20ee	mov    	ecx, dword ptr [0x4584]
  0x20f4	dec    	eax
  === BLOCK LINK ===
    0x20f5
=== CODE BLOCK END ===

=== CODE BLOCK ADDRESS 0x20f5 ===
  0x20f5	call   	dword ptr [0x20b5]
  === BLOCK LINK ===
    0x20fb
=== CODE BLOCK END ===

=== CODE BLOCK ADDRESS 0x20fb ===
  0x20fb	nop    	dword ptr [eax + eax]
  0x2100	dec    	eax
  0x2101	mov    	dword ptr [edi], eax
  0x2103	dec    	eax
  0x2104	test   	eax, eax
  === BLOCK LINK ===
    0x2106
=== CODE BLOCK END ===

=== CODE BLOCK ADDRESS 0x2106 ===
  0x2106	je     	0x2218
  === BLOCK LINK ===
    0x210c
=== CODE BLOCK END ===

=== CODE BLOCK ADDRESS 0x210c ===
  0x210c	mov    	word ptr [eax], bx
  0x210f	lea    	eax, [ebx + 1]
  0x2112	jmp    	0x221a
  === BLOCK LINK ===
    0x2117
=== CODE BLOCK END ===

=== CODE BLOCK ADDRESS 0x2117 ===
  0x2117	dec    	ebp
  0x2118	test   	edi, edi
  0x211a	jne    	0x213e
  === BLOCK LINK ===
    0x211c
=== CODE BLOCK END ===

=== CODE BLOCK ADDRESS 0x211c ===
  0x211c	dec    	eax
  0x211d	test   	esi, esi
  0x211f	jne    	0x2126
  === BLOCK LINK ===
    0x2121
=== CODE BLOCK END ===

=== CODE BLOCK ADDRESS 0x2121 ===
  0x2121	dec    	eax
  0x2122	mov    	eax, ebx
  0x2124	jmp    	0x212e
  === BLOCK LINK ===
    0x2126
=== CODE BLOCK END ===

=== CODE BLOCK ADDRESS 0x2126 ===
  0x2126	dec    	eax
  0x2127	mov    	ecx, esi
  0x2129	call   	0x1f10
  === BLOCK LINK ===
    0x212e
=== CODE BLOCK END ===

=== CODE BLOCK ADDRESS 0x212e ===
  0x212e	dec    	eax
  0x212f	mov    	dword ptr [edi], eax
  0x2131	dec    	eax
  0x2132	test   	eax, eax
  0x2134	setne  	bl
  === BLOCK LINK ===
    0x2137
=== CODE BLOCK END ===

=== CODE BLOCK ADDRESS 0x2137 ===
  0x2137	mov    	eax, ebx
  0x2139	jmp    	0x221a
  === BLOCK LINK ===
    0x213e
=== CODE BLOCK END ===

=== CODE BLOCK ADDRESS 0x213e ===
  0x213e	dec    	eax
  0x213f	test   	esi, esi
  0x2141	je     	0x2129
  === BLOCK LINK ===
    0x2143
=== CODE BLOCK END ===

=== CODE BLOCK ADDRESS 0x2143 ===
  0x2143	dec    	eax
  0x2144	or     	eax, 0xffffffff
  0x2147	dec    	eax
  0x2148	mov    	ecx, eax
  0x214a	dec    	eax
  === BLOCK LINK ===
    0x214b
=== CODE BLOCK END ===

=== CODE BLOCK ADDRESS 0x214b ===
  0x214b	inc    	ecx
  0x214d	inc    	cx
  0x214f	cmp    	dword ptr [edi + ecx*2], ebx
  0x2152	jne    	0x214a
  === BLOCK LINK ===
    0x2154
=== CODE BLOCK END ===

=== CODE BLOCK ADDRESS 0x2154 ===
  0x2154	dec    	eax
  0x2155	inc    	eax
  0x2157	cmp    	word ptr [edx + eax*2], bx
  0x215b	jne    	0x2154
  === BLOCK LINK ===
    0x215d
=== CODE BLOCK END ===

=== CODE BLOCK ADDRESS 0x215d ===
  0x215d	inc    	esp
  0x215e	lea    	esp, [eax + 2]
  0x2161	inc    	esp
  0x2162	add    	esp, ecx
  0x2164	inc    	ebp
  === BLOCK LINK ===
    0x2165
=== CODE BLOCK END ===

=== CODE BLOCK ADDRESS 0x2165 ===
  0x2165	mov    	ebp, esp
  0x2167	dec    	edx
  0x2168	lea    	eax, [0]
  0x216f	mov    	ecx, 0xffffffff
  0x2174	dec    	eax
  === BLOCK LINK ===
    0x2175
=== CODE BLOCK END ===

=== CODE BLOCK ADDRESS 0x2175 ===
  0x2175	cmp    	eax, ecx
  0x2177	ja     	0x2215
  === BLOCK LINK ===
    0x217d
=== CODE BLOCK END ===

=== CODE BLOCK ADDRESS 0x217d ===
  0x217d	mov    	dword ptr [esp + 0x80], eax
  0x2184	inc    	esp
  0x2185	mov    	eax, eax
  0x2187	xor    	edx, edx
  0x2189	dec    	eax
  === BLOCK LINK ===
    0x218a
=== CODE BLOCK END ===

=== CODE BLOCK ADDRESS 0x218a ===
  0x218a	mov    	ecx, dword ptr [0x44e8]
  0x2190	dec    	eax
  0x2191	call   	dword ptr [0x2019]
  === BLOCK LINK ===
    0x2197
=== CODE BLOCK END ===

=== CODE BLOCK ADDRESS 0x2197 ===
  0x2197	nop    	dword ptr [eax + eax]
  0x219c	dec    	esp
  0x219d	mov    	esi, eax
  0x219f	dec    	eax
  0x21a0	mov    	dword ptr [esp + 0x98], eax
  === BLOCK LINK ===
    0x21a7
=== CODE BLOCK END ===

=== CODE BLOCK ADDRESS 0x21a7 ===
  0x21a7	dec    	eax
  0x21a8	test   	eax, eax
  0x21aa	je     	0x2215
  === BLOCK LINK ===
    0x21ac
=== CODE BLOCK END ===

=== CODE BLOCK ADDRESS 0x21ac ===
  0x21ac	dec    	ebp
  0x21ad	mov    	eax, edi
  0x21af	inc    	ecx
  0x21b0	mov    	edx, ebp
  0x21b2	dec    	eax
  === BLOCK LINK ===
    0x21b3
=== CODE BLOCK END ===

=== CODE BLOCK ADDRESS 0x21b3 ===
  0x21b3	mov    	ecx, eax
  0x21b5	call   	0x1b5c
  === BLOCK LINK ===
    0x21ba
=== CODE BLOCK END ===

=== CODE BLOCK ADDRESS 0x21ba ===
  0x21ba	inc    	ebp
  0x21bb	mov    	eax, esp
  0x21bd	dec    	eax
  0x21be	mov    	edx, esi
  0x21c0	dec    	ecx
  === BLOCK LINK ===
    0x21c1
=== CODE BLOCK END ===

=== CODE BLOCK ADDRESS 0x21c1 ===
  0x21c1	mov    	ecx, esi
  0x21c3	call   	0x1fb4
  === BLOCK LINK ===
    0x21c8
=== CODE BLOCK END ===

=== CODE BLOCK ADDRESS 0x21c8 ===
  0x21c8	mov    	esi, eax
  0x21ca	mov    	dword ptr [esp + 0x2c], eax
  0x21ce	jmp    	0x21ef
  === BLOCK LINK ===
    0x21d0
=== CODE BLOCK END ===

=== CODE BLOCK ADDRESS 0x21d0 ===
  0x21d0	mov    	ecx, eax
  0x21d2	call   	0x1afc
  === BLOCK LINK ===
    0x21d7
=== CODE BLOCK END ===

=== CODE BLOCK ADDRESS 0x21d7 ===
  0x21d7	xor    	esi, esi
  0x21d9	mov    	dword ptr [esp + 0x2c], esi
  0x21dd	xor    	ebx, ebx
  0x21df	dec    	eax
  0x21e0	mov    	edi, dword ptr [esp + 0x90]
  === BLOCK LINK ===
    0x21e7
=== CODE BLOCK END ===

=== CODE BLOCK ADDRESS 0x21e7 ===
  0x21e7	dec    	esp
  0x21e8	mov    	esi, dword ptr [esp + 0x98]
  0x21ef	test   	esi, esi
  0x21f1	jne    	0x220e
  === BLOCK LINK ===
    0x21f3
=== CODE BLOCK END ===

=== CODE BLOCK ADDRESS 0x21f3 ===
  0x21f3	dec    	ebp
  0x21f4	mov    	eax, esi
  0x21f6	xor    	edx, edx
  0x21f8	dec    	eax
  0x21f9	mov    	ecx, dword ptr [0x4479]
  === BLOCK LINK ===
    0x21ff
=== CODE BLOCK END ===

=== CODE BLOCK ADDRESS 0x21ff ===
  0x21ff	dec    	eax
  0x2200	call   	dword ptr [0x1fa2]
  === BLOCK LINK ===
    0x2206
=== CODE BLOCK END ===

=== CODE BLOCK ADDRESS 0x2206 ===
  0x2206	nop    	dword ptr [eax + eax]
  0x220b	dec    	esp
  0x220c	mov    	esi, ebx
  0x220e	dec    	esp
  0x220f	mov    	dword ptr [edi], esi
  === BLOCK LINK ===
    0x2211
=== CODE BLOCK END ===

=== CODE BLOCK ADDRESS 0x2211 ===
  0x2211	mov    	eax, esi
  0x2213	jmp    	0x221a
  === BLOCK LINK ===
    0x2215
=== CODE BLOCK END ===

=== CODE BLOCK ADDRESS 0x2215 ===
  0x2215	dec    	eax
  0x2216	mov    	dword ptr [edi], ebx
  0x2218	xor    	eax, eax
  0x221a	dec    	eax
  0x221b	add    	esp, 0x40
  === BLOCK LINK ===
    0x221e
=== CODE BLOCK END ===

=== CODE BLOCK ADDRESS 0x221e ===
  0x221e	inc    	ecx
  0x221f	pop    	edi
  0x2220	inc    	ecx
  0x2221	pop    	esi
  0x2222	inc    	ecx
  === BLOCK LINK ===
    0x2223
=== CODE BLOCK END ===

=== CODE BLOCK ADDRESS 0x2223 ===
  0x2223	pop    	ebp
  0x2224	inc    	ecx
  0x2225	pop    	esp
  0x2226	pop    	edi
  0x2227	pop    	esi
  === BLOCK LINK ===
    0x2228
=== CODE BLOCK END ===

=== CODE BLOCK ADDRESS 0x2228 ===
  0x2228	pop    	ebx
  0x2229	ret    	
  0x222a	int3   	
  0x222b	int3   	
  0x222c	int3   	
  === BLOCK LINK ===
    0x222d
=== CODE BLOCK END ===

=== CODE BLOCK ADDRESS 0x12d8 ===
=== CODE BLOCK END ===

=== CODE BLOCK ADDRESS 0x222d ===
  0x222d	int3   	
  0x222e	int3   	
  0x222f	int3   	
  0x2230	int3   	
  0x2231	int3   	
  === BLOCK LINK ===
    0x2232
=== CODE BLOCK END ===

=== CODE BLOCK ADDRESS 0x2232 ===
  0x2232	int3   	
  0x2233	int3   	
  0x2234	dec    	eax
  0x2235	mov    	dword ptr [esp + 0x10], ebx
  0x2239	dec    	eax
  === BLOCK LINK ===
    0x223a
=== CODE BLOCK END ===

=== CODE BLOCK ADDRESS 0x223a ===
  0x223a	mov    	dword ptr [esp + 0x18], esi
  0x223e	push   	ebp
  0x223f	push   	edi
  0x2240	inc    	ecx
  0x2241	push   	esp
  === BLOCK LINK ===
    0x2242
=== CODE BLOCK END ===

=== CODE BLOCK ADDRESS 0x2242 ===
  0x2242	inc    	ecx
  0x2243	push   	esi
  0x2244	inc    	ecx
  0x2245	push   	edi
  0x2246	dec    	eax
  === BLOCK LINK ===
    0x2247
=== CODE BLOCK END ===

=== CODE BLOCK ADDRESS 0x2247 ===
  0x2247	lea    	ebp, [esp - 0x150]
  0x224e	dec    	eax
  0x224f	sub    	esp, 0x250
  0x2255	dec    	eax
  0x2256	mov    	eax, dword ptr [0x3dac]
  === BLOCK LINK ===
    0x225c
=== CODE BLOCK END ===

=== CODE BLOCK ADDRESS 0x225c ===
  0x225c	dec    	eax
  0x225d	xor    	eax, esp
  0x225f	dec    	eax
  0x2260	mov    	dword ptr [ebp + 0x140], eax
  0x2266	mov    	ebx, 0x104
  === BLOCK LINK ===
    0x226b
=== CODE BLOCK END ===

=== CODE BLOCK ADDRESS 0x226b ===
  0x226b	dec    	esp
  0x226c	lea    	ecx, [esp + 0x20]
  0x2270	inc    	ebp
  0x2271	xor    	edi, edi
  0x2273	dec    	esp
  === BLOCK LINK ===
    0x2274
=== CODE BLOCK END ===

=== CODE BLOCK ADDRESS 0x2274 ===
  0x2274	lea    	eax, [esp + 0x30]
  0x2278	mov    	edx, ebx
  0x227a	inc    	ecx
  0x227b	mov    	esi, edi
  0x227d	dec    	eax
  === BLOCK LINK ===
    0x227e
=== CODE BLOCK END ===

=== CODE BLOCK ADDRESS 0x227e ===
  0x227e	call   	dword ptr [0x1ee4]
  === BLOCK LINK ===
    0x2284
=== CODE BLOCK END ===

=== CODE BLOCK ADDRESS 0x2284 ===
  0x2284	nop    	dword ptr [eax + eax]
  0x2289	cmp    	eax, ebx
  0x228b	jae    	0x23e6
  === BLOCK LINK ===
    0x2291
=== CODE BLOCK END ===

=== CODE BLOCK ADDRESS 0x2291 ===
  0x2291	test   	eax, eax
  0x2293	jne    	0x22a6
  === BLOCK LINK ===
    0x2295
=== CODE BLOCK END ===

=== CODE BLOCK ADDRESS 0x2295 ===
  0x2295	dec    	eax
  0x2296	call   	dword ptr [0x1eac]
  === BLOCK LINK ===
    0x229c
=== CODE BLOCK END ===

=== CODE BLOCK ADDRESS 0x229c ===
  0x229c	nop    	dword ptr [eax + eax]
  0x22a1	jmp    	0x23eb
  === BLOCK LINK ===
    0x22a6
=== CODE BLOCK END ===

=== CODE BLOCK ADDRESS 0x22a6 ===
  0x22a6	dec    	eax
  0x22a7	mov    	eax, dword ptr [esp + 0x20]
  0x22ab	dec    	eax
  0x22ac	test   	eax, eax
  0x22ae	je     	0x23e6
  === BLOCK LINK ===
    0x22b4
=== CODE BLOCK END ===

=== CODE BLOCK ADDRESS 0x22b4 ===
  0x22b4	dec    	eax
  0x22b5	lea    	ecx, [esp + 0x30]
  0x22b9	dec    	eax
  0x22ba	cmp    	eax, ecx
  0x22bc	je     	0x23e6
  === BLOCK LINK ===
    0x22c2
=== CODE BLOCK END ===

=== CODE BLOCK ADDRESS 0x22c2 ===
  0x22c2	inc    	sp
  0x22c4	mov    	dword ptr [eax], edi
  0x22c6	inc    	ecx
  0x22c7	mov    	esp, 0x5c
  0x22cc	movzx  	ecx, word ptr [esp + 0x30]
  === BLOCK LINK ===
    0x22d1
=== CODE BLOCK END ===

=== CODE BLOCK ADDRESS 0x22d1 ===
  0x22d1	lea    	eax, [ecx - 0x41]
  0x22d4	cmp    	ax, 0x19
  0x22d8	jbe    	0x22e3
  === BLOCK LINK ===
    0x22da
=== CODE BLOCK END ===

=== CODE BLOCK ADDRESS 0x22da ===
  0x22da	lea    	eax, [ecx - 0x61]
  0x22dd	cmp    	ax, 0x19
  0x22e1	ja     	0x22fc
  === BLOCK LINK ===
    0x22e3
=== CODE BLOCK END ===

=== CODE BLOCK ADDRESS 0x22e3 ===
  0x22e3	cmp    	word ptr [esp + 0x32], 0x3a
  0x22e9	jne    	0x22fc
  === BLOCK LINK ===
    0x22eb
=== CODE BLOCK END ===

=== CODE BLOCK ADDRESS 0x22eb ===
  0x22eb	inc    	sp
  0x22ed	cmp    	dword ptr [esp + 0x34], esp
  0x22f1	jne    	0x23e6
  === BLOCK LINK ===
    0x22f7
=== CODE BLOCK END ===

=== CODE BLOCK ADDRESS 0x22f7 ===
  0x22f7	dec    	eax
  0x22f8	lea    	esi, [esp + 0x34]
  0x22fc	inc    	cx
  0x22fe	cmp    	ecx, esp
  0x2300	jne    	0x2346
  === BLOCK LINK ===
    0x2302
=== CODE BLOCK END ===

=== CODE BLOCK ADDRESS 0x2302 ===
  0x2302	inc    	sp
  0x2304	cmp    	dword ptr [esp + 0x32], esp
  0x2308	jne    	0x2346
  === BLOCK LINK ===
    0x230a
=== CODE BLOCK END ===

=== CODE BLOCK ADDRESS 0x230a ===
  0x230a	inc    	ecx
  0x230b	mov    	edx, esp
  0x230d	dec    	eax
  0x230e	lea    	ecx, [esp + 0x34]
  0x2312	dec    	eax
  === BLOCK LINK ===
    0x2313
=== CODE BLOCK END ===

=== CODE BLOCK ADDRESS 0x2313 ===
  0x2313	call   	dword ptr [0x1fcf]
  === BLOCK LINK ===
    0x2319
=== CODE BLOCK END ===

=== CODE BLOCK ADDRESS 0x2319 ===
  0x2319	nop    	dword ptr [eax + eax]
  0x231e	dec    	eax
  0x231f	test   	eax, eax
  0x2321	je     	0x23e6
  === BLOCK LINK ===
    0x2327
=== CODE BLOCK END ===

=== CODE BLOCK ADDRESS 0x2327 ===
  0x2327	inc    	ecx
  0x2328	mov    	edx, esp
  0x232a	dec    	eax
  0x232b	lea    	ecx, [eax + 2]
  0x232e	dec    	eax
  === BLOCK LINK ===
    0x232f
=== CODE BLOCK END ===

=== CODE BLOCK ADDRESS 0x232f ===
  0x232f	call   	dword ptr [0x1fb3]
  === BLOCK LINK ===
    0x2335
=== CODE BLOCK END ===

=== CODE BLOCK ADDRESS 0x2335 ===
  0x2335	nop    	dword ptr [eax + eax]
  0x233a	dec    	eax
  0x233b	mov    	esi, eax
  0x233d	dec    	eax
  0x233e	test   	eax, eax
  === BLOCK LINK ===
    0x2340
=== CODE BLOCK END ===

=== CODE BLOCK ADDRESS 0x2340 ===
  0x2340	je     	0x23e6
  === BLOCK LINK ===
    0x2346
=== CODE BLOCK END ===

=== CODE BLOCK ADDRESS 0x2346 ===
  0x2346	dec    	eax
  0x2347	lea    	ecx, [esp + 0x30]
  0x234b	dec    	eax
  0x234c	call   	dword ptr [0x1e1e]
  === BLOCK LINK ===
    0x2352
=== CODE BLOCK END ===

=== CODE BLOCK ADDRESS 0x2352 ===
  0x2352	nop    	dword ptr [eax + eax]
  0x2357	cmp    	eax, -1
  0x235a	je     	0x236b
  === BLOCK LINK ===
    0x235c
=== CODE BLOCK END ===

=== CODE BLOCK ADDRESS 0x235c ===
  0x235c	test   	al, 0x10
  0x235e	je     	0x241b
  === BLOCK LINK ===
    0x2364
=== CODE BLOCK END ===

=== CODE BLOCK ADDRESS 0x2364 ===
  0x2364	xor    	eax, eax
  0x2366	jmp    	0x23eb
  === BLOCK LINK ===
    0x236b
=== CODE BLOCK END ===

=== CODE BLOCK ADDRESS 0x236b ===
  0x236b	dec    	eax
  0x236c	mov    	edi, dword ptr [esp + 0x20]
  0x2370	dec    	eax
  0x2371	lea    	eax, [esp + 0x30]
  0x2375	dec    	eax
  === BLOCK LINK ===
    0x2376
=== CODE BLOCK END ===

=== CODE BLOCK ADDRESS 0x2376 ===
  0x2376	cmp    	edi, eax
  0x2378	jne    	0x2381
  === BLOCK LINK ===
    0x237a
=== CODE BLOCK END ===

=== CODE BLOCK ADDRESS 0x237a ===
  0x237a	dec    	eax
  0x237b	lea    	edi, [esp + 0x30]
  0x237f	jmp    	0x2385
  === BLOCK LINK ===
    0x2381
=== CODE BLOCK END ===

=== CODE BLOCK ADDRESS 0x2381 ===
  0x2381	dec    	eax
  0x2382	add    	edi, -2
  0x2385	dec    	eax
  0x2386	cmp    	edi, esi
  0x2388	je     	0x23e6
  === BLOCK LINK ===
    0x238a
=== CODE BLOCK END ===

=== CODE BLOCK ADDRESS 0x238a ===
  0x238a	inc    	sp
  0x238c	cmp    	dword ptr [edi], esp
  0x238e	jne    	0x23e6
  === BLOCK LINK ===
    0x2390
=== CODE BLOCK END ===

=== CODE BLOCK ADDRESS 0x2390 ===
  0x2390	dec    	eax
  0x2391	cmp    	edi, esi
  0x2393	jbe    	0x23e6
  === BLOCK LINK ===
    0x2395
=== CODE BLOCK END ===

=== CODE BLOCK ADDRESS 0x2395 ===
  0x2395	inc    	ecx
  0x2396	mov    	edx, esp
  0x2398	inc    	sp
  0x239a	mov    	dword ptr [edi], edi
  0x239c	dec    	eax
  === BLOCK LINK ===
    0x239d
=== CODE BLOCK END ===

=== CODE BLOCK ADDRESS 0x239d ===
  0x239d	lea    	ecx, [esp + 0x30]
  0x23a1	dec    	eax
  0x23a2	call   	dword ptr [0x1f38]
  === BLOCK LINK ===
    0x23a8
=== CODE BLOCK END ===

=== CODE BLOCK ADDRESS 0x23a8 ===
  0x23a8	nop    	dword ptr [eax + eax]
  0x23ad	dec    	esp
  0x23ae	mov    	esi, eax
  0x23b0	dec    	eax
  0x23b1	test   	eax, eax
  === BLOCK LINK ===
    0x23b3
=== CODE BLOCK END ===

=== CODE BLOCK ADDRESS 0x23b3 ===
  0x23b3	je     	0x23e6
  === BLOCK LINK ===
    0x23b5
=== CODE BLOCK END ===

=== CODE BLOCK ADDRESS 0x23b5 ===
  0x23b5	movzx  	ebx, word ptr [eax + 2]
  0x23b9	dec    	eax
  0x23ba	lea    	ecx, [esp + 0x30]
  0x23be	inc    	sp
  0x23c0	mov    	dword ptr [eax + 2], edi
  === BLOCK LINK ===
    0x23c3
=== CODE BLOCK END ===

=== CODE BLOCK ADDRESS 0x23c3 ===
  0x23c3	dec    	eax
  0x23c4	call   	dword ptr [0x1da6]
  === BLOCK LINK ===
    0x23ca
=== CODE BLOCK END ===

=== CODE BLOCK ADDRESS 0x23ca ===
  0x23ca	nop    	dword ptr [eax + eax]
  0x23cf	inc    	cx
  0x23d1	mov    	dword ptr [esi + 2], ebx
  0x23d4	cmp    	eax, -1
  0x23d7	jne    	0x2417
  === BLOCK LINK ===
    0x23d9
=== CODE BLOCK END ===

=== CODE BLOCK ADDRESS 0x23d9 ===
  0x23d9	dec    	ecx
  0x23da	mov    	edi, esi
  0x23dc	dec    	esp
  0x23dd	cmp    	esi, esi
  0x23df	ja     	0x2395
  === BLOCK LINK ===
    0x23e1
=== CODE BLOCK END ===

=== CODE BLOCK ADDRESS 0x23e1 ===
  0x23e1	dec    	eax
  0x23e2	cmp    	edi, esi
  0x23e4	ja     	0x2443
  === BLOCK LINK ===
    0x23e6
=== CODE BLOCK END ===

=== CODE BLOCK ADDRESS 0x23e6 ===
  0x23e6	mov    	eax, 0x7b
  0x23eb	dec    	eax
  0x23ec	mov    	ecx, dword ptr [ebp + 0x140]
  0x23f2	dec    	eax
  0x23f3	xor    	ecx, esp
  === BLOCK LINK ===
    0x23f5
=== CODE BLOCK END ===

=== CODE BLOCK ADDRESS 0x23f5 ===
  0x23f5	call   	0x2a90
  === BLOCK LINK ===
    0x23fa
=== CODE BLOCK END ===

=== CODE BLOCK ADDRESS 0x23fa ===
  0x23fa	dec    	esp
  0x23fb	lea    	ebx, [esp + 0x250]
  0x2402	dec    	ecx
  0x2403	mov    	ebx, dword ptr [ebx + 0x38]
  0x2406	dec    	ecx
  === BLOCK LINK ===
    0x2407
=== CODE BLOCK END ===

=== CODE BLOCK ADDRESS 0x2407 ===
  0x2407	mov    	esi, dword ptr [ebx + 0x40]
  0x240a	dec    	ecx
  0x240b	mov    	esp, ebx
  0x240d	inc    	ecx
  0x240e	pop    	edi
  === BLOCK LINK ===
    0x240f
=== CODE BLOCK END ===

=== CODE BLOCK ADDRESS 0x240f ===
  0x240f	inc    	ecx
  0x2410	pop    	esi
  0x2411	inc    	ecx
  0x2412	pop    	esp
  0x2413	pop    	edi
  === BLOCK LINK ===
    0x2414
=== CODE BLOCK END ===

=== CODE BLOCK ADDRESS 0x2414 ===
  0x2414	pop    	ebp
  0x2415	ret    	
  0x2416	int3   	
  0x2417	test   	al, 0x10
  0x2419	jne    	0x23e1
  === BLOCK LINK ===
    0x241b
=== CODE BLOCK END ===

=== CODE BLOCK ADDRESS 0x1285 ===
  0x1285	xor    	ecx, ecx
  0x1287	dec    	eax
  0x1288	call   	dword ptr [0x2eb2]
  === BLOCK LINK ===
    0x128e
=== CODE BLOCK END ===

=== CODE BLOCK ADDRESS 0x241b ===
  0x241b	mov    	eax, 0x10b
  0x2420	jmp    	0x23eb
  === BLOCK LINK ===
    0x2422
=== CODE BLOCK END ===

=== CODE BLOCK ADDRESS 0x2422 ===
  0x2422	inc    	sp
  0x2424	cmp    	dword ptr [edi + 2], edi
  0x2427	je     	0x2364
  === BLOCK LINK ===
    0x242d
=== CODE BLOCK END ===

=== CODE BLOCK ADDRESS 0x242d ===
  0x242d	inc    	sp
  0x242f	mov    	dword ptr [edi], esp
  0x2431	dec    	eax
  0x2432	or     	eax, 0xffffffff
  0x2435	dec    	eax
  === BLOCK LINK ===
    0x2436
=== CODE BLOCK END ===

=== CODE BLOCK ADDRESS 0x2436 ===
  0x2436	inc    	eax
  0x2438	inc    	sp
  0x243a	cmp    	dword ptr [edi + eax*2], edi
  0x243d	jne    	0x2435
  === BLOCK LINK ===
    0x243f
=== CODE BLOCK END ===

=== CODE BLOCK ADDRESS 0x243f ===
  0x243f	dec    	eax
  0x2440	lea    	edi, [edi + eax*2]
  0x2443	xor    	edx, edx
  0x2445	dec    	eax
  0x2446	lea    	ecx, [esp + 0x30]
  === BLOCK LINK ===
    0x244a
=== CODE BLOCK END ===

=== CODE BLOCK ADDRESS 0x244a ===
  0x244a	dec    	eax
  0x244b	call   	dword ptr [0x1d27]
  === BLOCK LINK ===
    0x2451
=== CODE BLOCK END ===

=== CODE BLOCK ADDRESS 0x2451 ===
  0x2451	nop    	dword ptr [eax + eax]
  0x2456	test   	eax, eax
  0x2458	jne    	0x2422
  === BLOCK LINK ===
    0x245a
=== CODE BLOCK END ===

=== CODE BLOCK ADDRESS 0x245a ===
  0x245a	jmp    	0x2295
  === BLOCK LINK ===
    0x245f
=== CODE BLOCK END ===

=== CODE BLOCK ADDRESS 0x245f ===
  0x245f	int3   	
  0x2460	int3   	
  0x2461	int3   	
  0x2462	int3   	
  0x2463	int3   	
  === BLOCK LINK ===
    0x2464
=== CODE BLOCK END ===

=== CODE BLOCK ADDRESS 0x2464 ===
  0x2464	int3   	
  0x2465	int3   	
  0x2466	int3   	
  0x2467	int3   	
  0x2468	dec    	eax
  === BLOCK LINK ===
    0x2469
=== CODE BLOCK END ===

=== CODE BLOCK ADDRESS 0x2469 ===
  0x2469	mov    	dword ptr [esp + 8], ebx
  0x246d	dec    	eax
  0x246e	mov    	dword ptr [esp + 0x10], esi
  0x2472	push   	edi
  0x2473	dec    	eax
  === BLOCK LINK ===
    0x2474
=== CODE BLOCK END ===

=== CODE BLOCK ADDRESS 0x2474 ===
  0x2474	sub    	esp, 0x20
  0x2477	mov    	eax, edx
  0x2479	dec    	eax
  0x247a	lea    	edi, [0x2080]
  0x2480	dec    	eax
  === BLOCK LINK ===
    0x2481
=== CODE BLOCK END ===

=== CODE BLOCK ADDRESS 0x2481 ===
  0x2481	mov    	esi, ecx
  0x2483	dec    	esp
  0x2484	lea    	eax, [esp + 0x40]
  0x2488	dec    	eax
  0x2489	lea    	ecx, [0x21f9]
  === BLOCK LINK ===
    0x248f
=== CODE BLOCK END ===

=== CODE BLOCK ADDRESS 0x248f ===
  0x248f	xor    	ebx, ebx
  0x2491	test   	edx, edx
  0x2493	dec    	eax
  0x2494	lea    	edx, [0x21c6]
  0x249a	dec    	eax
  === BLOCK LINK ===
    0x249b
=== CODE BLOCK END ===

=== CODE BLOCK ADDRESS 0x249b ===
  0x249b	cmove  	edi, ecx
  0x249e	test   	eax, eax
  0x24a0	dec    	eax
  0x24a1	cmove  	edx, ecx
  0x24a4	dec    	eax
  === BLOCK LINK ===
    0x24a5
=== CODE BLOCK END ===

=== CODE BLOCK ADDRESS 0x24a5 ===
  0x24a5	mov    	ecx, esi
  0x24a7	call   	0x20c0
  === BLOCK LINK ===
    0x24ac
=== CODE BLOCK END ===

=== CODE BLOCK ADDRESS 0x24ac ===
  0x24ac	test   	eax, eax
  0x24ae	je     	0x24dd
  === BLOCK LINK ===
    0x24b0
=== CODE BLOCK END ===

=== CODE BLOCK ADDRESS 0x24b0 ===
  0x24b0	dec    	esp
  0x24b1	mov    	eax, dword ptr [0x4159]
  0x24b7	dec    	eax
  0x24b8	mov    	ebx, dword ptr [esp + 0x40]
  0x24bc	dec    	ebp
  === BLOCK LINK ===
    0x24bd
=== CODE BLOCK END ===

=== CODE BLOCK ADDRESS 0x24bd ===
  0x24bd	test   	eax, eax
  0x24bf	je     	0x24d6
  === BLOCK LINK ===
    0x24c1
=== CODE BLOCK END ===

=== CODE BLOCK ADDRESS 0x24c1 ===
  0x24c1	dec    	eax
  0x24c2	mov    	ecx, dword ptr [0x41b0]
  0x24c8	xor    	edx, edx
  0x24ca	dec    	eax
  0x24cb	call   	dword ptr [0x1cd7]
  === BLOCK LINK ===
    0x24d1
=== CODE BLOCK END ===

=== CODE BLOCK ADDRESS 0x24d1 ===
  0x24d1	nop    	dword ptr [eax + eax]
  0x24d6	dec    	eax
  0x24d7	mov    	dword ptr [0x4133], ebx
  0x24dd	dec    	esp
  0x24de	lea    	eax, [esp + 0x40]
  === BLOCK LINK ===
    0x24e2
=== CODE BLOCK END ===

=== CODE BLOCK ADDRESS 0x24e2 ===
  0x24e2	dec    	eax
  0x24e3	mov    	edx, edi
  0x24e5	dec    	eax
  0x24e6	mov    	ecx, esi
  0x24e8	call   	0x20c0
  === BLOCK LINK ===
    0x24ed
=== CODE BLOCK END ===

=== CODE BLOCK ADDRESS 0x24ed ===
  0x24ed	test   	eax, eax
  0x24ef	je     	0x251e
  === BLOCK LINK ===
    0x24f1
=== CODE BLOCK END ===

=== CODE BLOCK ADDRESS 0x24f1 ===
  0x24f1	dec    	esp
  0x24f2	mov    	eax, dword ptr [0x4148]
  0x24f8	dec    	eax
  0x24f9	mov    	ebx, dword ptr [esp + 0x40]
  0x24fd	dec    	ebp
  === BLOCK LINK ===
    0x24fe
=== CODE BLOCK END ===

=== CODE BLOCK ADDRESS 0x24fe ===
  0x24fe	test   	eax, eax
  0x2500	je     	0x2517
  === BLOCK LINK ===
    0x2502
=== CODE BLOCK END ===

=== CODE BLOCK ADDRESS 0x2502 ===
  0x2502	dec    	eax
  0x2503	mov    	ecx, dword ptr [0x416f]
  0x2509	xor    	edx, edx
  0x250b	dec    	eax
  0x250c	call   	dword ptr [0x1c96]
  === BLOCK LINK ===
    0x2512
=== CODE BLOCK END ===

=== CODE BLOCK ADDRESS 0x2512 ===
  0x2512	nop    	dword ptr [eax + eax]
  0x2517	dec    	eax
  0x2518	mov    	dword ptr [0x4122], ebx
  0x251e	dec    	eax
  0x251f	test   	ebx, ebx
  === BLOCK LINK ===
    0x2521
=== CODE BLOCK END ===

=== CODE BLOCK ADDRESS 0x2521 ===
  0x2521	je     	0x252b
  === BLOCK LINK ===
    0x2523
=== CODE BLOCK END ===

=== CODE BLOCK ADDRESS 0x2523 ===
  0x2523	dec    	eax
  0x2524	mov    	ecx, ebx
  0x2526	call   	0x2234
  === BLOCK LINK ===
    0x252b
=== CODE BLOCK END ===

=== CODE BLOCK ADDRESS 0x252b ===
  0x252b	dec    	eax
  0x252c	mov    	ebx, dword ptr [esp + 0x30]
  0x2530	mov    	eax, 1
  0x2535	dec    	eax
  0x2536	mov    	esi, dword ptr [esp + 0x38]
  === BLOCK LINK ===
    0x253a
=== CODE BLOCK END ===

=== CODE BLOCK ADDRESS 0x253a ===
  0x253a	dec    	eax
  0x253b	add    	esp, 0x20
  0x253e	pop    	edi
  0x253f	ret    	
  0x2540	int3   	
  === BLOCK LINK ===
    0x2541
=== CODE BLOCK END ===

=== CODE BLOCK ADDRESS 0x2541 ===
  0x2541	int3   	
  0x2542	int3   	
  0x2543	int3   	
  0x2544	int3   	
  0x2545	int3   	
  === BLOCK LINK ===
    0x2546
=== CODE BLOCK END ===

=== CODE BLOCK ADDRESS 0x2546 ===
  0x2546	int3   	
  0x2547	int3   	
  0x2548	dec    	eax
  0x2549	sub    	esp, 0x28
  0x254c	dec    	esp
  === BLOCK LINK ===
    0x254d
=== CODE BLOCK END ===

=== CODE BLOCK ADDRESS 0x254d ===
  0x254d	mov    	eax, dword ptr [0x411d]
  0x2553	dec    	ebp
  0x2554	test   	eax, eax
  0x2556	je     	0x2575
  === BLOCK LINK ===
    0x2558
=== CODE BLOCK END ===

=== CODE BLOCK ADDRESS 0x2558 ===
  0x2558	dec    	eax
  0x2559	mov    	ecx, dword ptr [0x4119]
  0x255f	xor    	edx, edx
  0x2561	dec    	eax
  0x2562	call   	dword ptr [0x1c40]
  === BLOCK LINK ===
    0x2568
=== CODE BLOCK END ===

=== CODE BLOCK ADDRESS 0x2568 ===
  0x2568	nop    	dword ptr [eax + eax]
  0x256d	dec    	eax
  0x256e	and    	dword ptr [0x40fb], 0
  0x2575	dec    	esp
  0x2576	mov    	eax, dword ptr [0x40ec]
  === BLOCK LINK ===
    0x257c
=== CODE BLOCK END ===

=== CODE BLOCK ADDRESS 0x257c ===
  0x257c	dec    	ebp
  0x257d	test   	eax, eax
  0x257f	je     	0x259e
  === BLOCK LINK ===
    0x2581
=== CODE BLOCK END ===

=== CODE BLOCK ADDRESS 0x2581 ===
  0x2581	dec    	eax
  0x2582	mov    	ecx, dword ptr [0x40f0]
  0x2588	xor    	edx, edx
  0x258a	dec    	eax
  0x258b	call   	dword ptr [0x1c17]
  === BLOCK LINK ===
    0x2591
=== CODE BLOCK END ===

=== CODE BLOCK ADDRESS 0x2591 ===
  0x2591	nop    	dword ptr [eax + eax]
  0x2596	dec    	eax
  0x2597	and    	dword ptr [0x40ca], 0
  0x259e	dec    	esp
  0x259f	mov    	eax, dword ptr [0x40bb]
  === BLOCK LINK ===
    0x25a5
=== CODE BLOCK END ===

=== CODE BLOCK ADDRESS 0x25a5 ===
  0x25a5	dec    	ebp
  0x25a6	test   	eax, eax
  0x25a8	je     	0x25c7
  === BLOCK LINK ===
    0x25aa
=== CODE BLOCK END ===

=== CODE BLOCK ADDRESS 0x25aa ===
  0x25aa	dec    	eax
  0x25ab	mov    	ecx, dword ptr [0x40c7]
  0x25b1	xor    	edx, edx
  0x25b3	dec    	eax
  0x25b4	call   	dword ptr [0x1bee]
  === BLOCK LINK ===
    0x25ba
=== CODE BLOCK END ===

=== CODE BLOCK ADDRESS 0x25ba ===
  0x25ba	nop    	dword ptr [eax + eax]
  0x25bf	dec    	eax
  0x25c0	and    	dword ptr [0x4099], 0
  0x25c7	mov    	eax, 1
  0x25cc	dec    	eax
  === BLOCK LINK ===
    0x25cd
=== CODE BLOCK END ===

=== CODE BLOCK ADDRESS 0x25cd ===
  0x25cd	add    	esp, 0x28
  0x25d0	ret    	
  0x25d1	int3   	
  0x25d2	int3   	
  0x25d3	int3   	
  === BLOCK LINK ===
    0x25d4
=== CODE BLOCK END ===

=== CODE BLOCK ADDRESS 0x25d4 ===
  0x25d4	int3   	
  0x25d5	int3   	
  0x25d6	int3   	
  0x25d7	int3   	
  0x25d8	dec    	eax
  === BLOCK LINK ===
    0x25d9
=== CODE BLOCK END ===

=== CODE BLOCK ADDRESS 0x25d9 ===
  0x25d9	mov    	dword ptr [esp + 8], ebx
  0x25dd	push   	edi
  0x25de	dec    	eax
  0x25df	sub    	esp, 0x20
  0x25e2	dec    	esp
  === BLOCK LINK ===
    0x25e3
=== CODE BLOCK END ===

=== CODE BLOCK ADDRESS 0x25e3 ===
  0x25e3	mov    	eax, dword ptr [0x4087]
  0x25e9	dec    	eax
  0x25ea	mov    	edi, ecx
  0x25ec	dec    	ebp
  0x25ed	test   	eax, eax
  === BLOCK LINK ===
    0x25ef
=== CODE BLOCK END ===

=== CODE BLOCK ADDRESS 0x25ef ===
  0x25ef	je     	0x260e
  === BLOCK LINK ===
    0x25f1
=== CODE BLOCK END ===

=== CODE BLOCK ADDRESS 0x25f1 ===
  0x25f1	dec    	eax
  0x25f2	mov    	ecx, dword ptr [0x4080]
  0x25f8	xor    	edx, edx
  0x25fa	dec    	eax
  0x25fb	call   	dword ptr [0x1ba7]
  === BLOCK LINK ===
    0x2601
=== CODE BLOCK END ===

=== CODE BLOCK ADDRESS 0x2601 ===
  0x2601	nop    	dword ptr [eax + eax]
  0x2606	dec    	eax
  0x2607	and    	dword ptr [0x4062], 0
  0x260e	dec    	esp
  0x260f	lea    	eax, [0x405b]
  === BLOCK LINK ===
    0x2615
=== CODE BLOCK END ===

=== CODE BLOCK ADDRESS 0x2615 ===
  0x2615	dec    	eax
  0x2616	mov    	ecx, edi
  0x2618	dec    	eax
  0x2619	lea    	edx, [0x2099]
  0x261f	call   	0x20c0
  === BLOCK LINK ===
    0x2624
=== CODE BLOCK END ===

=== CODE BLOCK ADDRESS 0x2624 ===
  0x2624	mov    	ebx, eax
  0x2626	test   	eax, eax
  0x2628	je     	0x26b8
  === BLOCK LINK ===
    0x262e
=== CODE BLOCK END ===

=== CODE BLOCK ADDRESS 0x262e ===
  0x262e	dec    	esp
  0x262f	mov    	eax, dword ptr [0x4033]
  0x2635	dec    	ebp
  0x2636	test   	eax, eax
  0x2638	je     	0x2657
  === BLOCK LINK ===
    0x263a
=== CODE BLOCK END ===

=== CODE BLOCK ADDRESS 0x263a ===
  0x263a	dec    	eax
  0x263b	mov    	ecx, dword ptr [0x4037]
  0x2641	xor    	edx, edx
  0x2643	dec    	eax
  0x2644	call   	dword ptr [0x1b5e]
  === BLOCK LINK ===
    0x264a
=== CODE BLOCK END ===

=== CODE BLOCK ADDRESS 0x264a ===
  0x264a	nop    	dword ptr [eax + eax]
  0x264f	dec    	eax
  0x2650	and    	dword ptr [0x4011], 0
  0x2657	dec    	esp
  0x2658	lea    	eax, [0x400a]
  === BLOCK LINK ===
    0x265e
=== CODE BLOCK END ===

=== CODE BLOCK ADDRESS 0x265e ===
  0x265e	dec    	eax
  0x265f	mov    	ecx, edi
  0x2661	dec    	eax
  0x2662	lea    	edx, [0x2070]
  0x2668	call   	0x20c0
  === BLOCK LINK ===
    0x266d
=== CODE BLOCK END ===

=== CODE BLOCK ADDRESS 0x266d ===
  0x266d	mov    	ebx, eax
  0x266f	test   	eax, eax
  0x2671	je     	0x26b8
  === BLOCK LINK ===
    0x2673
=== CODE BLOCK END ===

=== CODE BLOCK ADDRESS 0x2673 ===
  0x2673	dec    	esp
  0x2674	mov    	eax, dword ptr [0x3fe6]
  0x267a	dec    	ebp
  0x267b	test   	eax, eax
  0x267d	je     	0x269c
  === BLOCK LINK ===
    0x267f
=== CODE BLOCK END ===

=== CODE BLOCK ADDRESS 0x267f ===
  0x267f	dec    	eax
  0x2680	mov    	ecx, dword ptr [0x3ff2]
  0x2686	xor    	edx, edx
  0x2688	dec    	eax
  0x2689	call   	dword ptr [0x1b19]
  === BLOCK LINK ===
    0x268f
=== CODE BLOCK END ===

=== CODE BLOCK ADDRESS 0x268f ===
  0x268f	nop    	dword ptr [eax + eax]
  0x2694	dec    	eax
  0x2695	and    	dword ptr [0x3fc4], 0
  0x269c	dec    	esp
  0x269d	lea    	eax, [0x3fbd]
  === BLOCK LINK ===
    0x26a3
=== CODE BLOCK END ===

=== CODE BLOCK ADDRESS 0x26a3 ===
  0x26a3	dec    	eax
  0x26a4	mov    	ecx, edi
  0x26a6	dec    	eax
  0x26a7	lea    	edx, [0x204b]
  0x26ad	call   	0x20c0
  === BLOCK LINK ===
    0x26b2
=== CODE BLOCK END ===

=== CODE BLOCK ADDRESS 0x26b2 ===
  0x26b2	mov    	ebx, eax
  0x26b4	test   	eax, eax
  0x26b6	jne    	0x26bd
  === BLOCK LINK ===
    0x26b8
=== CODE BLOCK END ===

=== CODE BLOCK ADDRESS 0x26b8 ===
  0x26b8	call   	0x2548
  === BLOCK LINK ===
    0x26bd
=== CODE BLOCK END ===

=== CODE BLOCK ADDRESS 0x26bd ===
  0x26bd	mov    	eax, ebx
  0x26bf	dec    	eax
  0x26c0	mov    	ebx, dword ptr [esp + 0x30]
  0x26c4	dec    	eax
  0x26c5	add    	esp, 0x20
  === BLOCK LINK ===
    0x26c8
=== CODE BLOCK END ===

=== CODE BLOCK ADDRESS 0x26c8 ===
  0x26c8	pop    	edi
  0x26c9	ret    	
  0x26ca	int3   	
  0x26cb	int3   	
  0x26cc	int3   	
  === BLOCK LINK ===
    0x26cd
=== CODE BLOCK END ===

=== CODE BLOCK ADDRESS 0x26cd ===
  0x26cd	int3   	
  0x26ce	int3   	
  0x26cf	int3   	
  0x26d0	int3   	
  0x26d1	int3   	
  === BLOCK LINK ===
    0x26d2
=== CODE BLOCK END ===

=== CODE BLOCK ADDRESS 0x26d2 ===
  0x26d2	int3   	
  0x26d3	int3   	
  0x26d4	int3   	
  0x26d5	int3   	
  0x26d6	int3   	
  === BLOCK LINK ===
    0x26d7
=== CODE BLOCK END ===

=== CODE BLOCK ADDRESS 0x26d7 ===
  0x26d7	int3   	
  0x26d8	int3   	
  0x26d9	int3   	
  0x26da	int3   	
  0x26db	int3   	
  === BLOCK LINK ===
    0x26dc
=== CODE BLOCK END ===

=== CODE BLOCK ADDRESS 0x26dc ===
  0x26dc	int3   	
  0x26dd	int3   	
  0x26de	int3   	
  0x26df	int3   	
  0x26e0	dec    	eax
  === BLOCK LINK ===
    0x26e1
=== CODE BLOCK END ===

=== CODE BLOCK ADDRESS 0x26e1 ===
  0x26e1	sub    	esp, 0x28
  0x26e4	mov    	eax, 0x5a4d
  0x26e9	cmp    	word ptr [0xffffd910], ax
  0x26f0	je     	0x26f6
  === BLOCK LINK ===
    0x26f2
=== CODE BLOCK END ===

=== CODE BLOCK ADDRESS 0x26f2 ===
  0x26f2	xor    	eax, eax
  0x26f4	jmp    	0x2749
  === BLOCK LINK ===
    0x26f6
=== CODE BLOCK END ===

=== CODE BLOCK ADDRESS 0x26f6 ===
  0x26f6	dec    	eax
  0x26f7	arpl   	word ptr [0xffffd93f], cx
  0x26fd	dec    	eax
  0x26fe	lea    	eax, [0xffffd8fc]
  0x2704	dec    	eax
  === BLOCK LINK ===
    0x2705
=== CODE BLOCK END ===

=== CODE BLOCK ADDRESS 0x2705 ===
  0x2705	add    	ecx, eax
  0x2707	cmp    	dword ptr [ecx], 0x4550
  0x270d	jne    	0x26f2
  === BLOCK LINK ===
    0x270f
=== CODE BLOCK END ===

=== CODE BLOCK ADDRESS 0x270f ===
  0x270f	mov    	eax, 0x10b
  0x2714	cmp    	word ptr [ecx + 0x18], ax
  0x2718	je     	0x2738
  === BLOCK LINK ===
    0x271a
=== CODE BLOCK END ===

=== CODE BLOCK ADDRESS 0x271a ===
  0x271a	mov    	eax, 0x20b
  0x271f	cmp    	word ptr [ecx + 0x18], ax
  0x2723	jne    	0x26f2
  === BLOCK LINK ===
    0x2725
=== CODE BLOCK END ===

=== CODE BLOCK ADDRESS 0x2725 ===
  0x2725	xor    	eax, eax
  0x2727	cmp    	dword ptr [ecx + 0x84], 0xe
  0x272e	jbe    	0x2749
  === BLOCK LINK ===
    0x2730
=== CODE BLOCK END ===

=== CODE BLOCK ADDRESS 0x2730 ===
  0x2730	cmp    	dword ptr [ecx + 0xf8], eax
  0x2736	jmp    	0x2746
  === BLOCK LINK ===
    0x2738
=== CODE BLOCK END ===

=== CODE BLOCK ADDRESS 0x2738 ===
  0x2738	xor    	eax, eax
  0x273a	cmp    	dword ptr [ecx + 0x74], 0xe
  0x273e	jbe    	0x2749
  === BLOCK LINK ===
    0x2740
=== CODE BLOCK END ===

=== CODE BLOCK ADDRESS 0x2740 ===
  0x2740	cmp    	dword ptr [ecx + 0xe8], eax
  0x2746	setne  	al
  0x2749	mov    	ecx, 2
  0x274e	mov    	dword ptr [0x38fc], eax
  0x2754	call   	0x2b88
  === BLOCK LINK ===
    0x2759
=== CODE BLOCK END ===

=== CODE BLOCK ADDRESS 0x2759 ===
  0x2759	mov    	ecx, eax
  0x275b	call   	dword ptr [0x1bc7]
  === BLOCK LINK ===
    0x2761
=== CODE BLOCK END ===

=== CODE BLOCK ADDRESS 0x2761 ===
  0x2761	dec    	eax
  0x2762	mov    	ecx, dword ptr [0x1b68]
  0x2768	dec    	eax
  0x2769	or     	eax, 0xffffffff
  0x276c	dec    	eax
  === BLOCK LINK ===
    0x276d
=== CODE BLOCK END ===

=== CODE BLOCK ADDRESS 0x276d ===
  0x276d	mov    	dword ptr [0x3f15], eax
  0x2773	dec    	eax
  0x2774	mov    	dword ptr [0x3f16], eax
  0x277a	mov    	eax, dword ptr [0x38e4]
  0x2780	mov    	dword ptr [ecx], eax
  === BLOCK LINK ===
    0x2782
=== CODE BLOCK END ===

=== CODE BLOCK ADDRESS 0x2782 ===
  0x2782	dec    	eax
  0x2783	mov    	ecx, dword ptr [0x1b3f]
  0x2789	mov    	eax, dword ptr [0x38c9]
  0x278f	mov    	dword ptr [ecx], eax
  0x2791	call   	0x2be0
  === BLOCK LINK ===
    0x2796
=== CODE BLOCK END ===

=== CODE BLOCK ADDRESS 0x2796 ===
  0x2796	cmp    	dword ptr [0x3863], 0
  0x279d	jne    	0x27ac
  === BLOCK LINK ===
    0x279f
=== CODE BLOCK END ===

=== CODE BLOCK ADDRESS 0x279f ===
  0x279f	dec    	eax
  0x27a0	lea    	ecx, [0x43a]
  0x27a6	call   	dword ptr [0x1b4c]
  === BLOCK LINK ===
    0x27ac
=== CODE BLOCK END ===

=== CODE BLOCK ADDRESS 0x27ac ===
  0x27ac	xor    	eax, eax
  0x27ae	dec    	eax
  0x27af	add    	esp, 0x28
  0x27b2	ret    	
  0x27b3	int3   	
  === BLOCK LINK ===
    0x27b4
=== CODE BLOCK END ===

=== CODE BLOCK ADDRESS 0x12ee ===
  0x12ee	mov    	ecx, edi
  0x12f0	dec    	eax
  0x12f1	call   	dword ptr [0x2e49]
  === BLOCK LINK ===
    0x12f7
=== CODE BLOCK END ===

=== CODE BLOCK ADDRESS 0x27b4 ===
  0x27b4	int3   	
  0x27b5	int3   	
  0x27b6	int3   	
  0x27b7	int3   	
  0x27b8	int3   	
  === BLOCK LINK ===
    0x27b9
=== CODE BLOCK END ===

=== CODE BLOCK ADDRESS 0x27b9 ===
  0x27b9	int3   	
  0x27ba	int3   	
  0x27bb	int3   	
  0x27bc	int3   	
  0x27bd	int3   	
  === BLOCK LINK ===
    0x27be
=== CODE BLOCK END ===

=== CODE BLOCK ADDRESS 0x27be ===
  0x27be	int3   	
  0x27bf	int3   	
  0x27c0	dec    	eax
  0x27c1	sub    	esp, 0x38
  0x27c4	mov    	eax, dword ptr [0x3896]
  === BLOCK LINK ===
    0x27ca
=== CODE BLOCK END ===

=== CODE BLOCK ADDRESS 0x27ca ===
  0x27ca	dec    	esp
  0x27cb	lea    	eax, [0x3877]
  0x27d1	inc    	esp
  0x27d2	mov    	ecx, dword ptr [0x3884]
  0x27d8	dec    	eax
  === BLOCK LINK ===
    0x27d9
=== CODE BLOCK END ===

=== CODE BLOCK ADDRESS 0x27d9 ===
  0x27d9	lea    	edx, [0x3861]
  0x27df	mov    	dword ptr [0x386f], eax
  0x27e5	dec    	eax
  0x27e6	lea    	ecx, [0x384c]
  0x27ec	dec    	eax
  === BLOCK LINK ===
    0x27ed
=== CODE BLOCK END ===

=== CODE BLOCK ADDRESS 0x27ed ===
  0x27ed	lea    	eax, [0x3861]
  0x27f3	dec    	eax
  0x27f4	mov    	dword ptr [esp + 0x20], eax
  0x27f8	call   	dword ptr [0x1b32]
  === BLOCK LINK ===
    0x27fe
=== CODE BLOCK END ===

=== CODE BLOCK ADDRESS 0x27fe ===
  0x27fe	mov    	dword ptr [0x3838], eax
  0x2804	dec    	eax
  0x2805	add    	esp, 0x38
  0x2808	ret    	
  0x2809	int3   	
  === BLOCK LINK ===
    0x280a
=== CODE BLOCK END ===

=== CODE BLOCK ADDRESS 0x13e0 ===
=== CODE BLOCK END ===

=== CODE BLOCK ADDRESS 0x280a ===
  0x280a	int3   	
  0x280b	int3   	
  0x280c	int3   	
  0x280d	int3   	
  0x280e	int3   	
  === BLOCK LINK ===
    0x280f
=== CODE BLOCK END ===

=== CODE BLOCK ADDRESS 0x280f ===
  0x280f	int3   	
  0x2810	dec    	eax
  0x2811	sub    	esp, 0x28
  0x2814	call   	0x2cd4
  === BLOCK LINK ===
    0x2819
=== CODE BLOCK END ===

=== CODE BLOCK ADDRESS 0x2819 ===
  0x2819	dec    	eax
  0x281a	add    	esp, 0x28
  0x281d	jmp    	0x2828
  === BLOCK LINK ===
    0x2822
=== CODE BLOCK END ===

=== CODE BLOCK ADDRESS 0x2822 ===
  0x2822	int3   	
  0x2823	int3   	
  0x2824	int3   	
  0x2825	int3   	
  0x2826	int3   	
  === BLOCK LINK ===
    0x2827
=== CODE BLOCK END ===

=== CODE BLOCK ADDRESS 0x2827 ===
  0x2827	int3   	
  0x2828	dec    	eax
  0x2829	mov    	dword ptr [esp + 8], ebx
  0x282d	dec    	eax
  0x282e	mov    	dword ptr [esp + 0x10], edi
  === BLOCK LINK ===
    0x2832
=== CODE BLOCK END ===

=== CODE BLOCK ADDRESS 0x2832 ===
  0x2832	inc    	ecx
  0x2833	push   	esi
  0x2834	dec    	eax
  0x2835	sub    	esp, 0xb0
  0x283b	and    	dword ptr [esp + 0x20], 0
  === BLOCK LINK ===
    0x2840
=== CODE BLOCK END ===

=== CODE BLOCK ADDRESS 0x2840 ===
  0x2840	dec    	eax
  0x2841	lea    	ecx, [esp + 0x40]
  0x2845	call   	dword ptr [0x19e5]
  === BLOCK LINK ===
    0x284b
=== CODE BLOCK END ===

=== CODE BLOCK ADDRESS 0x284b ===
  0x284b	nop    	
  0x284c	dec    	eax
  0x284e	mov    	eax, dword ptr [0x30]
  0x2855	dec    	eax
  0x2856	mov    	ebx, dword ptr [eax + 8]
  === BLOCK LINK ===
    0x2859
=== CODE BLOCK END ===

=== CODE BLOCK ADDRESS 0x2859 ===
  0x2859	xor    	edi, edi
  0x285b	xor    	eax, eax
  0x285d	.byte  	0xf0
  0x285e	dec    	eax
  0x285f	cmpxchg  	dword ptr [0x3e32], ebx
  === BLOCK LINK ===
    0x2866
=== CODE BLOCK END ===

=== CODE BLOCK ADDRESS 0x2866 ===
  0x2866	je     	0x2872
  === BLOCK LINK ===
    0x2868
=== CODE BLOCK END ===

=== CODE BLOCK ADDRESS 0x2868 ===
  0x2868	dec    	eax
  0x2869	cmp    	eax, ebx
  0x286b	jne    	0x2887
  === BLOCK LINK ===
    0x286d
=== CODE BLOCK END ===

=== CODE BLOCK ADDRESS 0x286d ===
  0x286d	mov    	edi, 1
  0x2872	mov    	eax, dword ptr [0x3e28]
  0x2878	cmp    	eax, 1
  0x287b	jne    	0x2894
  === BLOCK LINK ===
    0x287d
=== CODE BLOCK END ===

=== CODE BLOCK ADDRESS 0x287d ===
  0x287d	lea    	ecx, [eax + 0x1e]
  0x2880	call   	0x2bd3
  === BLOCK LINK ===
    0x2885
=== CODE BLOCK END ===

=== CODE BLOCK ADDRESS 0x2885 ===
  0x2885	jmp    	0x2901
  === BLOCK LINK ===
    0x2887
=== CODE BLOCK END ===

=== CODE BLOCK ADDRESS 0x2887 ===
  0x2887	mov    	ecx, 0x3e8
  0x288c	call   	dword ptr [0x19de]
  === BLOCK LINK ===
    0x2892
=== CODE BLOCK END ===

=== CODE BLOCK ADDRESS 0x2892 ===
  0x2892	jmp    	0x285b
  === BLOCK LINK ===
    0x2894
=== CODE BLOCK END ===

=== CODE BLOCK ADDRESS 0x2894 ===
  0x2894	mov    	eax, dword ptr [0x3e06]
  0x289a	test   	eax, eax
  0x289c	jne    	0x28f7
  === BLOCK LINK ===
    0x289e
=== CODE BLOCK END ===

=== CODE BLOCK ADDRESS 0x289e ===
  0x289e	mov    	dword ptr [0x3df8], 1
  0x28a8	dec    	esp
  0x28a9	lea    	esi, [0x1b51]
  0x28af	dec    	eax
  0x28b0	lea    	ebx, [0x1b32]
  === BLOCK LINK ===
    0x28b6
=== CODE BLOCK END ===

=== CODE BLOCK ADDRESS 0x28b6 ===
  0x28b6	dec    	eax
  0x28b7	mov    	dword ptr [esp + 0x30], ebx
  0x28bb	mov    	dword ptr [esp + 0x24], eax
  0x28bf	dec    	ecx
  0x28c0	cmp    	ebx, esi
  === BLOCK LINK ===
    0x28c2
=== CODE BLOCK END ===

=== CODE BLOCK ADDRESS 0x28c2 ===
  0x28c2	jae    	0x28e9
  === BLOCK LINK ===
    0x28c4
=== CODE BLOCK END ===

=== CODE BLOCK ADDRESS 0x28c4 ===
  0x28c4	test   	eax, eax
  0x28c6	jne    	0x28ed
  === BLOCK LINK ===
    0x28c8
=== CODE BLOCK END ===

=== CODE BLOCK ADDRESS 0x28c8 ===
  0x28c8	dec    	eax
  0x28c9	cmp    	dword ptr [ebx], 0
  0x28cc	je     	0x28de
  === BLOCK LINK ===
    0x28ce
=== CODE BLOCK END ===

=== CODE BLOCK ADDRESS 0x28ce ===
  0x28ce	dec    	eax
  0x28cf	mov    	eax, dword ptr [ebx]
  0x28d1	dec    	eax
  0x28d2	mov    	ecx, dword ptr [0x1af0]
  0x28d8	call   	ecx
  === BLOCK LINK ===
    0x28da
=== CODE BLOCK END ===

=== CODE BLOCK ADDRESS 0x28da ===
  0x28da	mov    	dword ptr [esp + 0x24], eax
  0x28de	dec    	eax
  0x28df	add    	ebx, 8
  0x28e2	dec    	eax
  0x28e3	mov    	dword ptr [esp + 0x30], ebx
  === BLOCK LINK ===
    0x28e7
=== CODE BLOCK END ===

=== CODE BLOCK ADDRESS 0x28e7 ===
  0x28e7	jmp    	0x28bf
  === BLOCK LINK ===
    0x28e9
=== CODE BLOCK END ===

=== CODE BLOCK ADDRESS 0x28e9 ===
  0x28e9	test   	eax, eax
  0x28eb	je     	0x2901
  === BLOCK LINK ===
    0x28ed
=== CODE BLOCK END ===

=== CODE BLOCK ADDRESS 0x28ed ===
  0x28ed	mov    	eax, 0xff
  0x28f2	jmp    	0x2a54
  === BLOCK LINK ===
    0x28f7
=== CODE BLOCK END ===

=== CODE BLOCK ADDRESS 0x28f7 ===
  0x28f7	mov    	dword ptr [0x3733], 1
  0x2901	mov    	eax, dword ptr [0x3d99]
  0x2907	cmp    	eax, 1
  0x290a	jne    	0x2929
  === BLOCK LINK ===
    0x290c
=== CODE BLOCK END ===

=== CODE BLOCK ADDRESS 0x290c ===
  0x290c	dec    	eax
  0x290d	lea    	edx, [0x1acd]
  0x2913	dec    	eax
  0x2914	lea    	ecx, [0x1ab6]
  0x291a	call   	0x2dae
  === BLOCK LINK ===
    0x291f
=== CODE BLOCK END ===

=== CODE BLOCK ADDRESS 0x291f ===
  0x291f	mov    	dword ptr [0x3d77], 2
  0x2929	test   	edi, edi
  0x292b	jne    	0x2936
  === BLOCK LINK ===
    0x292d
=== CODE BLOCK END ===

=== CODE BLOCK ADDRESS 0x292d ===
  0x292d	xor    	eax, eax
  0x292f	dec    	eax
  0x2930	xchg   	dword ptr [0x3d62], eax
  0x2936	dec    	eax
  0x2937	cmp    	dword ptr [0x3d6a], 0
  === BLOCK LINK ===
    0x293e
=== CODE BLOCK END ===

=== CODE BLOCK ADDRESS 0x293e ===
  0x293e	je     	0x296a
  === BLOCK LINK ===
    0x2940
=== CODE BLOCK END ===

=== CODE BLOCK ADDRESS 0x2940 ===
  0x2940	dec    	eax
  0x2941	lea    	ecx, [0x3d61]
  0x2947	call   	0x2c40
  === BLOCK LINK ===
    0x294c
=== CODE BLOCK END ===

=== CODE BLOCK ADDRESS 0x294c ===
  0x294c	test   	eax, eax
  0x294e	je     	0x296a
  === BLOCK LINK ===
    0x2950
=== CODE BLOCK END ===

=== CODE BLOCK ADDRESS 0x2950 ===
  0x2950	inc    	ebp
  0x2951	xor    	eax, eax
  0x2953	inc    	ecx
  0x2954	lea    	edx, [eax + 2]
  0x2957	xor    	ecx, ecx
  === BLOCK LINK ===
    0x2959
=== CODE BLOCK END ===

=== CODE BLOCK ADDRESS 0x2959 ===
  0x2959	dec    	eax
  0x295a	mov    	eax, dword ptr [0x3d48]
  0x2960	dec    	esp
  0x2961	mov    	ecx, dword ptr [0x1a61]
  0x2967	inc    	ecx
  === BLOCK LINK ===
    0x2968
=== CODE BLOCK END ===

=== CODE BLOCK ADDRESS 0x2968 ===
  0x2968	call   	ecx
  === BLOCK LINK ===
    0x296a
=== CODE BLOCK END ===

=== CODE BLOCK ADDRESS 0x296a ===
  0x296a	dec    	eax
  0x296b	mov    	eax, dword ptr [0x19df]
  0x2971	dec    	eax
  0x2972	mov    	ebx, dword ptr [eax]
  0x2974	dec    	eax
  === BLOCK LINK ===
    0x2975
=== CODE BLOCK END ===

=== CODE BLOCK ADDRESS 0x2975 ===
  0x2975	mov    	dword ptr [esp + 0x28], ebx
  0x2979	mov    	edi, dword ptr [esp + 0x20]
  0x297d	movzx  	ecx, byte ptr [ebx]
  0x2980	cmp    	cl, 0x20
  0x2983	ja     	0x29f6
  === BLOCK LINK ===
    0x2985
=== CODE BLOCK END ===

=== CODE BLOCK ADDRESS 0x2985 ===
  0x2985	test   	cl, cl
  0x2987	je     	0x298d
  === BLOCK LINK ===
    0x2989
=== CODE BLOCK END ===

=== CODE BLOCK ADDRESS 0x2989 ===
  0x2989	test   	edi, edi
  0x298b	jne    	0x29f6
  === BLOCK LINK ===
    0x298d
=== CODE BLOCK END ===

=== CODE BLOCK ADDRESS 0x298d ===
  0x298d	dec    	cl
  0x298f	cmp    	cl, 0x1f
  0x2992	ja     	0x29a0
  === BLOCK LINK ===
    0x2994
=== CODE BLOCK END ===

=== CODE BLOCK ADDRESS 0x2994 ===
  0x2994	dec    	eax
  0x2995	inc    	ebx
  0x2997	dec    	eax
  0x2998	mov    	dword ptr [esp + 0x28], ebx
  0x299c	mov    	cl, byte ptr [ebx]
  === BLOCK LINK ===
    0x299e
=== CODE BLOCK END ===

=== CODE BLOCK ADDRESS 0x299e ===
  0x299e	jmp    	0x298d
  === BLOCK LINK ===
    0x29a0
=== CODE BLOCK END ===

=== CODE BLOCK ADDRESS 0x29a0 ===
  0x29a0	test   	byte ptr [esp + 0x7c], 1
  0x29a5	movzx  	eax, word ptr [esp + 0x80]
  0x29ad	inc    	ecx
  0x29ae	mov    	ecx, 0xa
  0x29b3	inc    	esp
  === BLOCK LINK ===
    0x29b4
=== CODE BLOCK END ===

=== CODE BLOCK ADDRESS 0x29b4 ===
  0x29b4	cmovne  	ecx, eax
  0x29b7	dec    	esp
  0x29b8	mov    	eax, ebx
  0x29ba	xor    	edx, edx
  0x29bc	dec    	eax
  === BLOCK LINK ===
    0x29bd
=== CODE BLOCK END ===

=== CODE BLOCK ADDRESS 0x29bd ===
  0x29bd	lea    	ecx, [0xffffd63d]
  0x29c3	call   	0x10c4
  === BLOCK LINK ===
    0x29c8
=== CODE BLOCK END ===

=== CODE BLOCK ADDRESS 0x29c8 ===
  0x29c8	mov    	dword ptr [0x3662], eax
  0x29ce	cmp    	dword ptr [0x367b], 0
  0x29d5	jne    	0x29df
  === BLOCK LINK ===
    0x29d7
=== CODE BLOCK END ===

=== CODE BLOCK ADDRESS 0x29d7 ===
  0x29d7	mov    	ecx, eax
  0x29d9	call   	dword ptr [0x1941]
  === BLOCK LINK ===
    0x29df
=== CODE BLOCK END ===

=== CODE BLOCK ADDRESS 0x29df ===
  0x29df	cmp    	dword ptr [0x364e], 0
  0x29e6	jne    	0x29f4
  === BLOCK LINK ===
    0x29e8
=== CODE BLOCK END ===

=== CODE BLOCK ADDRESS 0x29e8 ===
  0x29e8	call   	dword ptr [0x1922]
  === BLOCK LINK ===
    0x29ee
=== CODE BLOCK END ===

=== CODE BLOCK ADDRESS 0x29ee ===
  0x29ee	mov    	eax, dword ptr [0x363c]
  0x29f4	jmp    	0x2a54
  === BLOCK LINK ===
    0x29f6
=== CODE BLOCK END ===

=== CODE BLOCK ADDRESS 0x29f6 ===
  0x29f6	cmp    	cl, 0x22
  0x29f9	jne    	0x2a08
  === BLOCK LINK ===
    0x29fb
=== CODE BLOCK END ===

=== CODE BLOCK ADDRESS 0x29fb ===
  0x29fb	xor    	eax, eax
  0x29fd	test   	edi, edi
  0x29ff	sete   	al
  0x2a02	mov    	edi, eax
  0x2a04	mov    	dword ptr [esp + 0x20], eax
  === BLOCK LINK ===
    0x2a08
=== CODE BLOCK END ===

=== CODE BLOCK ADDRESS 0x2a08 ===
  0x2a08	call   	dword ptr [0x18fa]
  === BLOCK LINK ===
    0x2a0e
=== CODE BLOCK END ===

=== CODE BLOCK ADDRESS 0x2a0e ===
  0x2a0e	test   	eax, eax
  0x2a10	je     	0x2a1a
  === BLOCK LINK ===
    0x2a12
=== CODE BLOCK END ===

=== CODE BLOCK ADDRESS 0x2a12 ===
  0x2a12	dec    	eax
  0x2a13	inc    	ebx
  0x2a15	dec    	eax
  0x2a16	mov    	dword ptr [esp + 0x28], ebx
  0x2a1a	dec    	eax
  === BLOCK LINK ===
    0x2a1b
=== CODE BLOCK END ===

=== CODE BLOCK ADDRESS 0x2a1b ===
  0x2a1b	inc    	ebx
  0x2a1d	dec    	eax
  0x2a1e	mov    	dword ptr [esp + 0x28], ebx
  0x2a22	jmp    	0x297d
  === BLOCK LINK ===
    0x2a27
=== CODE BLOCK END ===

=== CODE BLOCK ADDRESS 0x2a27 ===
  0x2a27	mov    	dword ptr [0x3603], eax
  0x2a2d	cmp    	dword ptr [0x361c], 0
  0x2a34	jne    	0x2a3f
  === BLOCK LINK ===
    0x2a36
=== CODE BLOCK END ===

=== CODE BLOCK ADDRESS 0x2a36 ===
  0x2a36	mov    	ecx, eax
  0x2a38	call   	dword ptr [0x18da]
  === BLOCK LINK ===
    0x2a3e
=== CODE BLOCK END ===

=== CODE BLOCK ADDRESS 0x2a3e ===
  0x2a3e	int3   	
  0x2a3f	cmp    	dword ptr [0x35ee], 0
  0x2a46	jne    	0x2a54
  === BLOCK LINK ===
    0x2a48
=== CODE BLOCK END ===

=== CODE BLOCK ADDRESS 0x2a48 ===
  0x2a48	call   	dword ptr [0x18c2]
  === BLOCK LINK ===
    0x2a4e
=== CODE BLOCK END ===

=== CODE BLOCK ADDRESS 0x2a4e ===
  0x2a4e	mov    	eax, dword ptr [0x35dc]
  0x2a54	dec    	esp
  0x2a55	lea    	ebx, [esp + 0xb0]
  0x2a5c	dec    	ecx
  0x2a5d	mov    	ebx, dword ptr [ebx + 0x10]
  === BLOCK LINK ===
    0x2a60
=== CODE BLOCK END ===

=== CODE BLOCK ADDRESS 0x2a60 ===
  0x2a60	dec    	ecx
  0x2a61	mov    	edi, dword ptr [ebx + 0x18]
  0x2a64	dec    	ecx
  0x2a65	mov    	esp, ebx
  0x2a67	inc    	ecx
  === BLOCK LINK ===
    0x2a68
=== CODE BLOCK END ===

=== CODE BLOCK ADDRESS 0x2a68 ===
  0x2a68	pop    	esi
  0x2a69	ret    	
  0x2a6a	int3   	
  0x2a6b	int3   	
  0x2a6c	int3   	
  === BLOCK LINK ===
    0x2a6d
=== CODE BLOCK END ===

=== CODE BLOCK ADDRESS 0x2a6d ===
  0x2a6d	int3   	
  0x2a6e	int3   	
  0x2a6f	int3   	
  0x2a70	jmp    	dword ptr [0x1862]
  === BLOCK LINK ===
    0x2a76
=== CODE BLOCK END ===

=== CODE BLOCK ADDRESS 0x2a76 ===
  0x2a76	int3   	
  0x2a77	int3   	
  0x2a78	int3   	
  0x2a79	int3   	
  0x2a7a	int3   	
  === BLOCK LINK ===
    0x2a7b
=== CODE BLOCK END ===

=== CODE BLOCK ADDRESS 0x2a7b ===
  0x2a7b	int3   	
  0x2a7c	int3   	
  0x2a7d	int3   	
  0x2a7e	int3   	
  0x2a7f	int3   	
  === BLOCK LINK ===
    0x2a80
=== CODE BLOCK END ===

=== CODE BLOCK ADDRESS 0x2a80 ===
  0x2a80	int3   	
  0x2a81	int3   	
  0x2a82	int3   	
  0x2a83	int3   	
  0x2a84	int3   	
  === BLOCK LINK ===
    0x2a85
=== CODE BLOCK END ===

=== CODE BLOCK ADDRESS 0x2a85 ===
  0x2a85	int3   	
  0x2a86	nop    	word ptr [eax + eax]
  0x2a90	dec    	eax
  0x2a91	cmp    	ecx, dword ptr [0x3571]
  0x2a97	jne    	0x2aa9
  === BLOCK LINK ===
    0x2a99
=== CODE BLOCK END ===

=== CODE BLOCK ADDRESS 0x2a99 ===
  0x2a99	dec    	eax
  0x2a9a	rol    	ecx, 0x10
  0x2a9d	test   	cx, 0xffff
  0x2aa2	jne    	0x2aa5
  === BLOCK LINK ===
    0x2aa4
=== CODE BLOCK END ===

=== CODE BLOCK ADDRESS 0x2aa4 ===
  0x2aa4	ret    	
  0x2aa5	dec    	eax
  0x2aa6	ror    	ecx, 0x10
  0x2aa9	jmp    	0x2e10
  === BLOCK LINK ===
    0x2aae
=== CODE BLOCK END ===

=== CODE BLOCK ADDRESS 0x2aae ===
  0x2aae	int3   	
  0x2aaf	int3   	
  0x2ab0	int3   	
  0x2ab1	int3   	
  0x2ab2	int3   	
  === BLOCK LINK ===
    0x2ab3
=== CODE BLOCK END ===

=== CODE BLOCK ADDRESS 0x2ab3 ===
  0x2ab3	int3   	
  0x2ab4	int3   	
  0x2ab5	int3   	
  0x2ab6	int3   	
  0x2ab7	int3   	
  === BLOCK LINK ===
    0x2ab8
=== CODE BLOCK END ===

=== CODE BLOCK ADDRESS 0x2ab8 ===
  0x2ab8	int3   	
  0x2ab9	int3   	
  0x2aba	int3   	
  0x2abb	int3   	
  0x2abc	int3   	
  === BLOCK LINK ===
    0x2abd
=== CODE BLOCK END ===

=== CODE BLOCK ADDRESS 0x2abd ===
  0x2abd	int3   	
  0x2abe	int3   	
  0x2abf	int3   	
  0x2ac0	dec    	eax
  0x2ac1	sub    	esp, 0x28
  === BLOCK LINK ===
    0x2ac4
=== CODE BLOCK END ===

=== CODE BLOCK ADDRESS 0x2ac4 ===
  0x2ac4	dec    	eax
  0x2ac5	mov    	eax, dword ptr [ecx]
  0x2ac7	cmp    	dword ptr [eax], 0xe06d7363
  0x2acd	jne    	0x2af2
  === BLOCK LINK ===
    0x2acf
=== CODE BLOCK END ===

=== CODE BLOCK ADDRESS 0x2acf ===
  0x2acf	cmp    	dword ptr [eax + 0x18], 4
  0x2ad3	jne    	0x2af2
  === BLOCK LINK ===
    0x2ad5
=== CODE BLOCK END ===

=== CODE BLOCK ADDRESS 0x2ad5 ===
  0x2ad5	mov    	ecx, dword ptr [eax + 0x20]
  0x2ad8	lea    	eax, [ecx - 0x19930520]
  0x2ade	cmp    	eax, 2
  0x2ae1	jbe    	0x2aeb
  === BLOCK LINK ===
    0x2ae3
=== CODE BLOCK END ===

=== CODE BLOCK ADDRESS 0x2ae3 ===
  0x2ae3	cmp    	ecx, 0x1994000
  0x2ae9	jne    	0x2af2
  === BLOCK LINK ===
    0x2aeb
=== CODE BLOCK END ===

=== CODE BLOCK ADDRESS 0x2aeb ===
  0x2aeb	call   	dword ptr [0x17cf]
  === BLOCK LINK ===
    0x2af1
=== CODE BLOCK END ===

=== CODE BLOCK ADDRESS 0x2af1 ===
  0x2af1	int3   	
  0x2af2	xor    	eax, eax
  0x2af4	dec    	eax
  0x2af5	add    	esp, 0x28
  0x2af8	ret    	
  === BLOCK LINK ===
    0x2af9
=== CODE BLOCK END ===

=== CODE BLOCK ADDRESS 0x2af9 ===
  0x2af9	int3   	
  0x2afa	int3   	
  0x2afb	int3   	
  0x2afc	int3   	
  0x2afd	int3   	
  === BLOCK LINK ===
    0x2afe
=== CODE BLOCK END ===

=== CODE BLOCK ADDRESS 0x2afe ===
  0x2afe	int3   	
  0x2aff	int3   	
  0x2b00	dec    	eax
  0x2b01	sub    	esp, 0x28
  0x2b04	dec    	eax
  === BLOCK LINK ===
    0x2b05
=== CODE BLOCK END ===

=== CODE BLOCK ADDRESS 0x2b05 ===
  0x2b05	lea    	ecx, [0xffffffb5]
  0x2b0b	call   	dword ptr [0x1627]
  === BLOCK LINK ===
    0x2b11
=== CODE BLOCK END ===

=== CODE BLOCK ADDRESS 0x2b11 ===
  0x2b11	xor    	eax, eax
  0x2b13	dec    	eax
  0x2b14	add    	esp, 0x28
  0x2b17	ret    	
  0x2b18	int3   	
  === BLOCK LINK ===
    0x2b19
=== CODE BLOCK END ===

=== CODE BLOCK ADDRESS 0x2b19 ===
  0x2b19	int3   	
  0x2b1a	int3   	
  0x2b1b	int3   	
  0x2b1c	int3   	
  0x2b1d	int3   	
  === BLOCK LINK ===
    0x2b1e
=== CODE BLOCK END ===

=== CODE BLOCK ADDRESS 0x2b1e ===
  0x2b1e	jmp    	dword ptr [0x181c]
  === BLOCK LINK ===
    0x2b24
=== CODE BLOCK END ===

=== CODE BLOCK ADDRESS 0x2b24 ===
  0x2b24	int3   	
  0x2b25	int3   	
  0x2b26	int3   	
  0x2b27	int3   	
  0x2b28	int3   	
  === BLOCK LINK ===
    0x2b29
=== CODE BLOCK END ===

=== CODE BLOCK ADDRESS 0x2b29 ===
  0x2b29	int3   	
  0x2b2a	int3   	
  0x2b2b	int3   	
  0x2b2c	dec    	eax
  0x2b2d	sub    	esp, 0x18
  === BLOCK LINK ===
    0x2b30
=== CODE BLOCK END ===

=== CODE BLOCK ADDRESS 0x2b30 ===
  0x2b30	xor    	edx, edx
  0x2b32	dec    	eax
  0x2b33	lea    	eax, [ecx - 1]
  0x2b36	dec    	eax
  0x2b37	cmp    	eax, -3
  === BLOCK LINK ===
    0x2b3a
=== CODE BLOCK END ===

=== CODE BLOCK ADDRESS 0x2b3a ===
  0x2b3a	ja     	0x2b78
  === BLOCK LINK ===
    0x2b3c
=== CODE BLOCK END ===

=== CODE BLOCK ADDRESS 0x2b3c ===
  0x2b3c	mov    	eax, 0x5a4d
  0x2b41	cmp    	word ptr [ecx], ax
  0x2b44	jne    	0x2b70
  === BLOCK LINK ===
    0x2b46
=== CODE BLOCK END ===

=== CODE BLOCK ADDRESS 0x2b46 ===
  0x2b46	cmp    	dword ptr [ecx + 0x3c], edx
  0x2b49	jl     	0x2b70
  === BLOCK LINK ===
    0x2b4b
=== CODE BLOCK END ===

=== CODE BLOCK ADDRESS 0x2b4b ===
  0x2b4b	cmp    	dword ptr [ecx + 0x3c], 0x10000000
  0x2b52	jae    	0x2b70
  === BLOCK LINK ===
    0x2b54
=== CODE BLOCK END ===

=== CODE BLOCK ADDRESS 0x2b54 ===
  0x2b54	dec    	eax
  0x2b55	arpl   	word ptr [ecx + 0x3c], ax
  0x2b58	dec    	eax
  0x2b59	add    	eax, ecx
  0x2b5b	dec    	eax
  === BLOCK LINK ===
    0x2b5c
=== CODE BLOCK END ===

=== CODE BLOCK ADDRESS 0x2b5c ===
  0x2b5c	mov    	dword ptr [esp], eax
  0x2b5f	cmp    	dword ptr [eax], 0x4550
  0x2b65	dec    	eax
  0x2b66	cmovne  	eax, edx
  0x2b69	dec    	eax
  === BLOCK LINK ===
    0x2b6a
=== CODE BLOCK END ===

=== CODE BLOCK ADDRESS 0x2b6a ===
  0x2b6a	mov    	edx, eax
  0x2b6c	dec    	eax
  0x2b6d	mov    	dword ptr [esp], eax
  0x2b70	jmp    	0x2b78
  === BLOCK LINK ===
    0x2b72
=== CODE BLOCK END ===

=== CODE BLOCK ADDRESS 0x2b72 ===
  0x2b72	xor    	edx, edx
  0x2b74	dec    	eax
  0x2b75	mov    	dword ptr [esp], edx
  0x2b78	dec    	eax
  0x2b79	mov    	eax, edx
  === BLOCK LINK ===
    0x2b7b
=== CODE BLOCK END ===

=== CODE BLOCK ADDRESS 0x2b7b ===
  0x2b7b	dec    	eax
  0x2b7c	add    	esp, 0x18
  0x2b7f	ret    	
  0x2b80	int3   	
  0x2b81	int3   	
  === BLOCK LINK ===
    0x2b82
=== CODE BLOCK END ===

=== CODE BLOCK ADDRESS 0x2b82 ===
  0x2b82	int3   	
  0x2b83	int3   	
  0x2b84	int3   	
  0x2b85	int3   	
  0x2b86	int3   	
  === BLOCK LINK ===
    0x2b87
=== CODE BLOCK END ===

=== CODE BLOCK ADDRESS 0x2b87 ===
  0x2b87	int3   	
  0x2b88	inc    	eax
  0x2b89	push   	ebx
  0x2b8a	dec    	eax
  0x2b8b	sub    	esp, 0x20
  === BLOCK LINK ===
    0x2b8e
=== CODE BLOCK END ===

=== CODE BLOCK ADDRESS 0x2b8e ===
  0x2b8e	mov    	ebx, ecx
  0x2b90	xor    	ecx, ecx
  0x2b92	call   	dword ptr [0x1630]
  === BLOCK LINK ===
    0x2b98
=== CODE BLOCK END ===

=== CODE BLOCK ADDRESS 0x2b98 ===
  0x2b98	dec    	eax
  0x2b99	test   	eax, eax
  0x2b9b	je     	0x2bc5
  === BLOCK LINK ===
    0x2b9d
=== CODE BLOCK END ===

=== CODE BLOCK ADDRESS 0x2b9d ===
  0x2b9d	dec    	eax
  0x2b9e	mov    	ecx, eax
  0x2ba0	call   	0x2b2c
  === BLOCK LINK ===
    0x2ba5
=== CODE BLOCK END ===

=== CODE BLOCK ADDRESS 0x2ba5 ===
  0x2ba5	dec    	eax
  0x2ba6	test   	eax, eax
  0x2ba8	je     	0x2bc5
  === BLOCK LINK ===
    0x2baa
=== CODE BLOCK END ===

=== CODE BLOCK ADDRESS 0x2baa ===
  0x2baa	mov    	ecx, 2
  0x2baf	cmp    	word ptr [eax + 0x5c], cx
  0x2bb3	jne    	0x2bb9
  === BLOCK LINK ===
    0x2bb5
=== CODE BLOCK END ===

=== CODE BLOCK ADDRESS 0x2bb5 ===
  0x2bb5	mov    	eax, ecx
  0x2bb7	jmp    	0x2bc7
  === BLOCK LINK ===
    0x2bb9
=== CODE BLOCK END ===

=== CODE BLOCK ADDRESS 0x2bb9 ===
  0x2bb9	cmp    	word ptr [eax + 0x5c], 3
  0x2bbe	mov    	eax, 1
  0x2bc3	je     	0x2bc7
  === BLOCK LINK ===
    0x2bc5
=== CODE BLOCK END ===

=== CODE BLOCK ADDRESS 0x2bc5 ===
  0x2bc5	mov    	eax, ebx
  0x2bc7	dec    	eax
  0x2bc8	add    	esp, 0x20
  0x2bcb	pop    	ebx
  0x2bcc	ret    	
  === BLOCK LINK ===
    0x2bcd
=== CODE BLOCK END ===

=== CODE BLOCK ADDRESS 0x2bcd ===
  0x2bcd	int3   	
  0x2bce	int3   	
  0x2bcf	int3   	
  0x2bd0	int3   	
  0x2bd1	int3   	
  === BLOCK LINK ===
    0x2bd2
=== CODE BLOCK END ===

=== CODE BLOCK ADDRESS 0x2bd2 ===
  0x2bd2	int3   	
  0x2bd3	jmp    	dword ptr [0x175f]
  === BLOCK LINK ===
    0x2bd9
=== CODE BLOCK END ===

=== CODE BLOCK ADDRESS 0x2bd9 ===
  0x2bd9	int3   	
  0x2bda	int3   	
  0x2bdb	int3   	
  0x2bdc	int3   	
  0x2bdd	int3   	
  === BLOCK LINK ===
    0x2bde
=== CODE BLOCK END ===

=== CODE BLOCK ADDRESS 0x2bde ===
  0x2bde	int3   	
  0x2bdf	int3   	
  0x2be0	xor    	eax, eax
  0x2be2	ret    	
  0x2be3	int3   	
  === BLOCK LINK ===
    0x2be4
=== CODE BLOCK END ===

=== CODE BLOCK ADDRESS 0x2be4 ===
  0x2be4	int3   	
  0x2be5	int3   	
  0x2be6	int3   	
  0x2be7	int3   	
  0x2be8	int3   	
  === BLOCK LINK ===
    0x2be9
=== CODE BLOCK END ===

=== CODE BLOCK ADDRESS 0x2be9 ===
  0x2be9	int3   	
  0x2bea	int3   	
  0x2beb	int3   	
  0x2bec	int3   	
  0x2bed	int3   	
  === BLOCK LINK ===
    0x2bee
=== CODE BLOCK END ===

=== CODE BLOCK ADDRESS 0x2bee ===
  0x2bee	int3   	
  0x2bef	int3   	
  0x2bf0	dec    	esp
  0x2bf1	arpl   	word ptr [ecx + 0x3c], ax
  0x2bf4	inc    	ebp
  === BLOCK LINK ===
    0x2bf5
=== CODE BLOCK END ===

=== CODE BLOCK ADDRESS 0x2bf5 ===
  0x2bf5	xor    	ecx, ecx
  0x2bf7	dec    	esp
  0x2bf8	add    	eax, ecx
  0x2bfa	dec    	esp
  0x2bfb	mov    	edx, edx
  === BLOCK LINK ===
    0x2bfd
=== CODE BLOCK END ===

=== CODE BLOCK ADDRESS 0x2bfd ===
  0x2bfd	inc    	ecx
  0x2bfe	movzx  	eax, word ptr [eax + 0x14]
  0x2c02	inc    	ebp
  0x2c03	movzx  	ebx, word ptr [eax + 6]
  0x2c07	dec    	eax
  === BLOCK LINK ===
    0x2c08
=== CODE BLOCK END ===

=== CODE BLOCK ADDRESS 0x2c08 ===
  0x2c08	add    	eax, 0x18
  0x2c0b	dec    	ecx
  0x2c0c	add    	eax, eax
  0x2c0e	inc    	ebp
  0x2c0f	test   	ebx, ebx
  === BLOCK LINK ===
    0x2c11
=== CODE BLOCK END ===

=== CODE BLOCK ADDRESS 0x2c11 ===
  0x2c11	je     	0x2c31
  === BLOCK LINK ===
    0x2c13
=== CODE BLOCK END ===

=== CODE BLOCK ADDRESS 0x2c13 ===
  0x2c13	mov    	edx, dword ptr [eax + 0xc]
  0x2c16	dec    	esp
  0x2c17	cmp    	edx, edx
  0x2c19	jb     	0x2c25
  === BLOCK LINK ===
    0x2c1b
=== CODE BLOCK END ===

=== CODE BLOCK ADDRESS 0x2c1b ===
  0x2c1b	mov    	ecx, dword ptr [eax + 8]
  0x2c1e	add    	ecx, edx
  0x2c20	dec    	esp
  0x2c21	cmp    	edx, ecx
  0x2c23	jb     	0x2c33
  === BLOCK LINK ===
    0x2c25
=== CODE BLOCK END ===

=== CODE BLOCK ADDRESS 0x2c25 ===
  0x2c25	inc    	ecx
  0x2c26	inc    	ecx
  0x2c28	dec    	eax
  0x2c29	add    	eax, 0x28
  0x2c2c	inc    	ebp
  === BLOCK LINK ===
    0x2c2d
=== CODE BLOCK END ===

=== CODE BLOCK ADDRESS 0x2c2d ===
  0x2c2d	cmp    	ecx, ebx
  0x2c2f	jb     	0x2c13
  === BLOCK LINK ===
    0x2c31
=== CODE BLOCK END ===

=== CODE BLOCK ADDRESS 0x2c31 ===
  0x2c31	xor    	eax, eax
  0x2c33	ret    	
  0x2c34	int3   	
  0x2c35	int3   	
  0x2c36	int3   	
  === BLOCK LINK ===
    0x2c37
=== CODE BLOCK END ===

=== CODE BLOCK ADDRESS 0x2c37 ===
  0x2c37	int3   	
  0x2c38	int3   	
  0x2c39	int3   	
  0x2c3a	int3   	
  0x2c3b	int3   	
  === BLOCK LINK ===
    0x2c3c
=== CODE BLOCK END ===

=== CODE BLOCK ADDRESS 0x2c3c ===
  0x2c3c	int3   	
  0x2c3d	int3   	
  0x2c3e	int3   	
  0x2c3f	int3   	
  0x2c40	dec    	eax
  === BLOCK LINK ===
    0x2c41
=== CODE BLOCK END ===

=== CODE BLOCK ADDRESS 0x2c41 ===
  0x2c41	mov    	dword ptr [esp + 8], ebx
  0x2c45	push   	edi
  0x2c46	dec    	eax
  0x2c47	sub    	esp, 0x20
  0x2c4a	dec    	eax
  === BLOCK LINK ===
    0x2c4b
=== CODE BLOCK END ===

=== CODE BLOCK ADDRESS 0x2c4b ===
  0x2c4b	mov    	ebx, ecx
  0x2c4d	dec    	eax
  0x2c4e	lea    	edi, [0xffffd3ac]
  0x2c54	dec    	eax
  0x2c55	mov    	ecx, edi
  === BLOCK LINK ===
    0x2c57
=== CODE BLOCK END ===

=== CODE BLOCK ADDRESS 0x2c57 ===
  0x2c57	call   	0x2ca0
  === BLOCK LINK ===
    0x2c5c
=== CODE BLOCK END ===

=== CODE BLOCK ADDRESS 0x2c5c ===
  0x2c5c	test   	eax, eax
  0x2c5e	je     	0x2c82
  === BLOCK LINK ===
    0x2c60
=== CODE BLOCK END ===

=== CODE BLOCK ADDRESS 0x2c60 ===
  0x2c60	dec    	eax
  0x2c61	sub    	ebx, edi
  0x2c63	dec    	eax
  0x2c64	mov    	edx, ebx
  0x2c66	dec    	eax
  === BLOCK LINK ===
    0x2c67
=== CODE BLOCK END ===

=== CODE BLOCK ADDRESS 0x2c67 ===
  0x2c67	mov    	ecx, edi
  0x2c69	call   	0x2bf0
  === BLOCK LINK ===
    0x2c6e
=== CODE BLOCK END ===

=== CODE BLOCK ADDRESS 0x2c6e ===
  0x2c6e	dec    	eax
  0x2c6f	test   	eax, eax
  0x2c71	je     	0x2c82
  === BLOCK LINK ===
    0x2c73
=== CODE BLOCK END ===

=== CODE BLOCK ADDRESS 0x2c73 ===
  0x2c73	mov    	eax, dword ptr [eax + 0x24]
  0x2c76	shr    	eax, 0x1f
  0x2c79	not    	eax
  0x2c7b	and    	eax, 1
  0x2c7e	jmp    	0x2c82
  === BLOCK LINK ===
    0x2c80
=== CODE BLOCK END ===

=== CODE BLOCK ADDRESS 0x2c80 ===
  0x2c80	xor    	eax, eax
  0x2c82	dec    	eax
  0x2c83	mov    	ebx, dword ptr [esp + 0x30]
  0x2c87	dec    	eax
  0x2c88	add    	esp, 0x20
  === BLOCK LINK ===
    0x2c8b
=== CODE BLOCK END ===

=== CODE BLOCK ADDRESS 0x2c8b ===
  0x2c8b	pop    	edi
  0x2c8c	ret    	
  0x2c8d	int3   	
  0x2c8e	int3   	
  0x2c8f	int3   	
  === BLOCK LINK ===
    0x2c90
=== CODE BLOCK END ===

=== CODE BLOCK ADDRESS 0x2c90 ===
  0x2c90	int3   	
  0x2c91	int3   	
  0x2c92	int3   	
  0x2c93	int3   	
  0x2c94	int3   	
  === BLOCK LINK ===
    0x2c95
=== CODE BLOCK END ===

=== CODE BLOCK ADDRESS 0x2c95 ===
  0x2c95	int3   	
  0x2c96	int3   	
  0x2c97	int3   	
  0x2c98	int3   	
  0x2c99	int3   	
  === BLOCK LINK ===
    0x2c9a
=== CODE BLOCK END ===

=== CODE BLOCK ADDRESS 0x2c9a ===
  0x2c9a	int3   	
  0x2c9b	int3   	
  0x2c9c	int3   	
  0x2c9d	int3   	
  0x2c9e	int3   	
  === BLOCK LINK ===
    0x2c9f
=== CODE BLOCK END ===

=== CODE BLOCK ADDRESS 0x2c9f ===
  0x2c9f	int3   	
  0x2ca0	mov    	eax, 0x5a4d
  0x2ca5	cmp    	word ptr [ecx], ax
  0x2ca8	jne    	0x2cca
  === BLOCK LINK ===
    0x2caa
=== CODE BLOCK END ===

=== CODE BLOCK ADDRESS 0x2caa ===
  0x2caa	dec    	eax
  0x2cab	arpl   	word ptr [ecx + 0x3c], ax
  0x2cae	dec    	eax
  0x2caf	add    	eax, ecx
  0x2cb1	cmp    	dword ptr [eax], 0x4550
  === BLOCK LINK ===
    0x2cb7
=== CODE BLOCK END ===

=== CODE BLOCK ADDRESS 0x2cb7 ===
  0x2cb7	jne    	0x2cca
  === BLOCK LINK ===
    0x2cb9
=== CODE BLOCK END ===

=== CODE BLOCK ADDRESS 0x2cb9 ===
  0x2cb9	mov    	ecx, 0x20b
  0x2cbe	cmp    	word ptr [eax + 0x18], cx
  0x2cc2	jne    	0x2cca
  === BLOCK LINK ===
    0x2cc4
=== CODE BLOCK END ===

=== CODE BLOCK ADDRESS 0x2cc4 ===
  0x2cc4	mov    	eax, 1
  0x2cc9	ret    	
  0x2cca	xor    	eax, eax
  0x2ccc	ret    	
  0x2ccd	int3   	
  === BLOCK LINK ===
    0x2cce
=== CODE BLOCK END ===

=== CODE BLOCK ADDRESS 0x1008 ===
  0x1008	dec    	eax
  0x1009	mov    	eax, esp
  === BLOCK LINK ===
    0x100b
=== CODE BLOCK END ===

=== CODE BLOCK ADDRESS 0x2cce ===
  0x2cce	int3   	
  0x2ccf	int3   	
  0x2cd0	int3   	
  0x2cd1	int3   	
  0x2cd2	int3   	
  === BLOCK LINK ===
    0x2cd3
=== CODE BLOCK END ===

=== CODE BLOCK ADDRESS 0x2cd3 ===
  0x2cd3	int3   	
  0x2cd4	dec    	eax
  0x2cd5	mov    	dword ptr [esp + 0x20], ebx
  0x2cd9	push   	ebp
  0x2cda	dec    	eax
  === BLOCK LINK ===
    0x2cdb
=== CODE BLOCK END ===

=== CODE BLOCK ADDRESS 0x2cdb ===
  0x2cdb	mov    	ebp, esp
  0x2cdd	dec    	eax
  0x2cde	sub    	esp, 0x20
  0x2ce1	dec    	eax
  0x2ce2	and    	dword ptr [ebp + 0x18], 0
  === BLOCK LINK ===
    0x2ce6
=== CODE BLOCK END ===

=== CODE BLOCK ADDRESS 0x2ce6 ===
  0x2ce6	dec    	eax
  0x2ce7	mov    	ebx, 0x2ddfa232
  0x2cec	cdq    	
  0x2ced	sub    	eax, dword ptr [eax]
  0x2cef	add    	byte ptr [eax - 0x75], cl
  === BLOCK LINK ===
    0x2cf2
=== CODE BLOCK END ===

=== CODE BLOCK ADDRESS 0x2cf2 ===
  0x2cf2	add    	eax, 0x3311
  0x2cf7	dec    	eax
  0x2cf8	cmp    	eax, ebx
  0x2cfa	jne    	0x2d93
  === BLOCK LINK ===
    0x2d00
=== CODE BLOCK END ===

=== CODE BLOCK ADDRESS 0x2d00 ===
  0x2d00	dec    	eax
  0x2d01	lea    	ecx, [ebp + 0x18]
  0x2d04	call   	dword ptr [0x157e]
  === BLOCK LINK ===
    0x2d0a
=== CODE BLOCK END ===

=== CODE BLOCK ADDRESS 0x2d0a ===
  0x2d0a	dec    	eax
  0x2d0b	mov    	eax, dword ptr [ebp + 0x18]
  0x2d0e	dec    	eax
  0x2d0f	mov    	dword ptr [ebp + 0x10], eax
  0x2d12	call   	dword ptr [0x1510]
  === BLOCK LINK ===
    0x2d18
=== CODE BLOCK END ===

=== CODE BLOCK ADDRESS 0x2d18 ===
  0x2d18	mov    	eax, eax
  0x2d1a	dec    	eax
  0x2d1b	xor    	dword ptr [ebp + 0x10], eax
  0x2d1e	call   	dword ptr [0x14fc]
  === BLOCK LINK ===
    0x2d24
=== CODE BLOCK END ===

=== CODE BLOCK ADDRESS 0x2d24 ===
  0x2d24	mov    	eax, eax
  0x2d26	dec    	eax
  0x2d27	xor    	dword ptr [ebp + 0x10], eax
  0x2d2a	call   	dword ptr [0x1560]
  === BLOCK LINK ===
    0x2d30
=== CODE BLOCK END ===

=== CODE BLOCK ADDRESS 0x2d30 ===
  0x2d30	mov    	eax, eax
  0x2d32	dec    	eax
  0x2d33	shl    	eax, 0x18
  0x2d36	dec    	eax
  0x2d37	xor    	dword ptr [ebp + 0x10], eax
  === BLOCK LINK ===
    0x2d3a
=== CODE BLOCK END ===

=== CODE BLOCK ADDRESS 0x2d3a ===
  0x2d3a	call   	dword ptr [0x1550]
  === BLOCK LINK ===
    0x2d40
=== CODE BLOCK END ===

=== CODE BLOCK ADDRESS 0x2d40 ===
  0x2d40	mov    	eax, eax
  0x2d42	dec    	eax
  0x2d43	lea    	ecx, [ebp + 0x10]
  0x2d46	dec    	eax
  0x2d47	xor    	eax, dword ptr [ebp + 0x10]
  === BLOCK LINK ===
    0x2d4a
=== CODE BLOCK END ===

=== CODE BLOCK ADDRESS 0x2d4a ===
  0x2d4a	dec    	eax
  0x2d4b	xor    	eax, ecx
  0x2d4d	dec    	eax
  0x2d4e	lea    	ecx, [ebp + 0x20]
  0x2d51	dec    	eax
  === BLOCK LINK ===
    0x2d52
=== CODE BLOCK END ===

=== CODE BLOCK ADDRESS 0x2d52 ===
  0x2d52	mov    	dword ptr [ebp + 0x10], eax
  0x2d55	call   	dword ptr [0x14e5]
  === BLOCK LINK ===
    0x2d5b
=== CODE BLOCK END ===

=== CODE BLOCK ADDRESS 0x2d5b ===
  0x2d5b	mov    	eax, dword ptr [ebp + 0x20]
  0x2d5e	dec    	eax
  0x2d5f	mov    	ecx, 0xffffffff
  0x2d64	.byte  	0xff
  0x2d65	inc    	dword ptr [eax]
  === BLOCK LINK ===
    0x2d67
=== CODE BLOCK END ===

=== CODE BLOCK ADDRESS 0x2d67 ===
  0x2d67	add    	byte ptr [eax - 0x3f], cl
  0x2d6a	loopne  	0x2d8c
  === BLOCK LINK ===
    0x2d6c
=== CODE BLOCK END ===

=== CODE BLOCK ADDRESS 0x2d6c ===
  0x2d6c	dec    	eax
  0x2d6d	xor    	eax, dword ptr [ebp + 0x20]
  0x2d70	dec    	eax
  0x2d71	xor    	eax, dword ptr [ebp + 0x10]
  0x2d74	dec    	eax
  === BLOCK LINK ===
    0x2d75
=== CODE BLOCK END ===

=== CODE BLOCK ADDRESS 0x2d75 ===
  0x2d75	and    	eax, ecx
  0x2d77	dec    	eax
  0x2d78	mov    	ecx, eax
  0x2d7a	dec    	eax
  0x2d7b	cmp    	eax, ebx
  === BLOCK LINK ===
    0x2d7d
=== CODE BLOCK END ===

=== CODE BLOCK ADDRESS 0x2d7d ===
  0x2d7d	jne    	0x2d8c
  === BLOCK LINK ===
    0x2d7f
=== CODE BLOCK END ===

=== CODE BLOCK ADDRESS 0x2d7f ===
  0x2d7f	dec    	eax
  0x2d80	mov    	eax, 0x2ddfa233
  0x2d85	cdq    	
  0x2d86	sub    	eax, dword ptr [eax]
  0x2d88	add    	byte ptr [eax - 0x75], cl
  === BLOCK LINK ===
    0x2d8b
=== CODE BLOCK END ===

=== CODE BLOCK ADDRESS 0x2d8b ===
  0x2d8b	enter  	-0x76b8, 0xd
  0x2d8f	jne    	0x2dc3
  === BLOCK LINK ===
    0x2d91
=== CODE BLOCK END ===

=== CODE BLOCK ADDRESS 0x2d91 ===
  0x2d91	add    	byte ptr [eax], al
  0x2d93	dec    	eax
  0x2d94	mov    	ebx, dword ptr [esp + 0x48]
  0x2d98	dec    	eax
  0x2d99	not    	eax
  === BLOCK LINK ===
    0x2d9b
=== CODE BLOCK END ===

=== CODE BLOCK ADDRESS 0x2d9b ===
  0x2d9b	dec    	eax
  0x2d9c	mov    	dword ptr [0x326e], eax
  0x2da2	dec    	eax
  0x2da3	add    	esp, 0x20
  0x2da6	pop    	ebp
  === BLOCK LINK ===
    0x2da7
=== CODE BLOCK END ===

=== CODE BLOCK ADDRESS 0x2da7 ===
  0x2da7	ret    	
  0x2da8	int3   	
  0x2da9	int3   	
  0x2daa	int3   	
  0x2dab	int3   	
  === BLOCK LINK ===
    0x2dac
=== CODE BLOCK END ===

=== CODE BLOCK ADDRESS 0x2dac ===
  0x2dac	int3   	
  0x2dad	int3   	
  0x2dae	jmp    	dword ptr [0x153c]
  === BLOCK LINK ===
    0x2db4
=== CODE BLOCK END ===

=== CODE BLOCK ADDRESS 0x2db4 ===
  0x2db4	int3   	
  0x2db5	int3   	
  0x2db6	int3   	
  0x2db7	int3   	
  0x2db8	int3   	
  === BLOCK LINK ===
    0x2db9
=== CODE BLOCK END ===

=== CODE BLOCK ADDRESS 0x2db9 ===
  0x2db9	int3   	
  0x2dba	int3   	
  0x2dbb	int3   	
  0x2dbc	int3   	
  0x2dbd	int3   	
  === BLOCK LINK ===
    0x2dbe
=== CODE BLOCK END ===

=== CODE BLOCK ADDRESS 0x2dbe ===
  0x2dbe	int3   	
  0x2dbf	int3   	
  0x2dc0	ret    	0
  0x2dc3	int3   	
  0x2dc4	int3   	
  === BLOCK LINK ===
    0x2dc5
=== CODE BLOCK END ===

=== CODE BLOCK ADDRESS 0x2dc5 ===
  0x2dc5	int3   	
  0x2dc6	int3   	
  0x2dc7	int3   	
  0x2dc8	int3   	
  0x2dc9	int3   	
  === BLOCK LINK ===
    0x2dca
=== CODE BLOCK END ===

=== CODE BLOCK ADDRESS 0x2dca ===
  0x2dca	int3   	
  0x2dcb	int3   	
  0x2dcc	inc    	eax
  0x2dcd	push   	ebx
  0x2dce	dec    	eax
  === BLOCK LINK ===
    0x2dcf
=== CODE BLOCK END ===

=== CODE BLOCK ADDRESS 0x2dcf ===
  0x2dcf	sub    	esp, 0x20
  0x2dd2	dec    	eax
  0x2dd3	mov    	ebx, ecx
  0x2dd5	xor    	ecx, ecx
  0x2dd7	call   	dword ptr [0x135b]
  === BLOCK LINK ===
    0x2ddd
=== CODE BLOCK END ===

=== CODE BLOCK ADDRESS 0x2ddd ===
  0x2ddd	dec    	eax
  0x2dde	mov    	ecx, ebx
  0x2de0	call   	dword ptr [0x1372]
  === BLOCK LINK ===
    0x2de6
=== CODE BLOCK END ===

=== CODE BLOCK ADDRESS 0x2de6 ===
  0x2de6	call   	dword ptr [0x142c]
  === BLOCK LINK ===
    0x2dec
=== CODE BLOCK END ===

=== CODE BLOCK ADDRESS 0x2dec ===
  0x2dec	dec    	eax
  0x2ded	mov    	ecx, eax
  0x2def	mov    	edx, 0xc0000409
  0x2df4	dec    	eax
  0x2df5	add    	esp, 0x20
  === BLOCK LINK ===
    0x2df8
=== CODE BLOCK END ===

=== CODE BLOCK ADDRESS 0x2df8 ===
  0x2df8	pop    	ebx
  0x2df9	dec    	eax
  0x2dfa	jmp    	dword ptr [0x1410]
  === BLOCK LINK ===
    0x2e00
=== CODE BLOCK END ===

=== CODE BLOCK ADDRESS 0x2e00 ===
  0x2e00	int3   	
  0x2e01	int3   	
  0x2e02	int3   	
  0x2e03	int3   	
  0x2e04	int3   	
  === BLOCK LINK ===
    0x2e05
=== CODE BLOCK END ===

=== CODE BLOCK ADDRESS 0x2e05 ===
  0x2e05	int3   	
  0x2e06	int3   	
  0x2e07	int3   	
  0x2e08	int3   	
  0x2e09	int3   	
  === BLOCK LINK ===
    0x2e0a
=== CODE BLOCK END ===

=== CODE BLOCK ADDRESS 0x2e0a ===
  0x2e0a	int3   	
  0x2e0b	int3   	
  0x2e0c	int3   	
  0x2e0d	int3   	
  0x2e0e	int3   	
  === BLOCK LINK ===
    0x2e0f
=== CODE BLOCK END ===

=== CODE BLOCK ADDRESS 0x2e0f ===
  0x2e0f	int3   	
  0x2e10	dec    	eax
  0x2e11	mov    	dword ptr [esp + 8], ecx
  0x2e15	dec    	eax
  0x2e16	sub    	esp, 0x88
  === BLOCK LINK ===
    0x2e1c
=== CODE BLOCK END ===

=== CODE BLOCK ADDRESS 0x2e1c ===
  0x2e1c	dec    	eax
  0x2e1d	lea    	ecx, [0x32ed]
  0x2e23	call   	dword ptr [0x157f]
  === BLOCK LINK ===
    0x2e29
=== CODE BLOCK END ===

=== CODE BLOCK ADDRESS 0x2e29 ===
  0x2e29	dec    	eax
  0x2e2a	mov    	eax, dword ptr [0x33d8]
  0x2e30	dec    	eax
  0x2e31	mov    	dword ptr [esp + 0x48], eax
  0x2e35	inc    	ebp
  === BLOCK LINK ===
    0x2e36
=== CODE BLOCK END ===

=== CODE BLOCK ADDRESS 0x2e36 ===
  0x2e36	xor    	eax, eax
  0x2e38	dec    	eax
  0x2e39	lea    	edx, [esp + 0x50]
  0x2e3d	dec    	eax
  0x2e3e	mov    	ecx, dword ptr [esp + 0x48]
  === BLOCK LINK ===
    0x2e42
=== CODE BLOCK END ===

=== CODE BLOCK ADDRESS 0x2e42 ===
  0x2e42	call   	dword ptr [0x1558]
  === BLOCK LINK ===
    0x2e48
=== CODE BLOCK END ===

=== CODE BLOCK ADDRESS 0x2e48 ===
  0x2e48	dec    	eax
  0x2e49	mov    	dword ptr [esp + 0x40], eax
  0x2e4d	dec    	eax
  0x2e4e	cmp    	dword ptr [esp + 0x40], 0
  0x2e53	je     	0x2e97
  === BLOCK LINK ===
    0x2e55
=== CODE BLOCK END ===

=== CODE BLOCK ADDRESS 0x2e55 ===
  0x2e55	dec    	eax
  0x2e56	mov    	dword ptr [esp + 0x38], 0
  0x2e5e	dec    	eax
  0x2e5f	lea    	eax, [esp + 0x58]
  0x2e63	dec    	eax
  === BLOCK LINK ===
    0x2e64
=== CODE BLOCK END ===

=== CODE BLOCK ADDRESS 0x2e64 ===
  0x2e64	mov    	dword ptr [esp + 0x30], eax
  0x2e68	dec    	eax
  0x2e69	lea    	eax, [esp + 0x60]
  0x2e6d	dec    	eax
  0x2e6e	mov    	dword ptr [esp + 0x28], eax
  === BLOCK LINK ===
    0x2e72
=== CODE BLOCK END ===

=== CODE BLOCK ADDRESS 0x2e72 ===
  0x2e72	dec    	eax
  0x2e73	lea    	eax, [0x3297]
  0x2e79	dec    	eax
  0x2e7a	mov    	dword ptr [esp + 0x20], eax
  0x2e7e	dec    	esp
  === BLOCK LINK ===
    0x2e7f
=== CODE BLOCK END ===

=== CODE BLOCK ADDRESS 0x2e7f ===
  0x2e7f	mov    	ecx, dword ptr [esp + 0x40]
  0x2e83	dec    	esp
  0x2e84	mov    	eax, dword ptr [esp + 0x48]
  0x2e88	dec    	eax
  0x2e89	mov    	edx, dword ptr [esp + 0x50]
  === BLOCK LINK ===
    0x2e8d
=== CODE BLOCK END ===

=== CODE BLOCK ADDRESS 0x2e8d ===
  0x2e8d	xor    	ecx, ecx
  0x2e8f	call   	dword ptr [0x1503]
  === BLOCK LINK ===
    0x2e95
=== CODE BLOCK END ===

=== CODE BLOCK ADDRESS 0x2e95 ===
  0x2e95	jmp    	0x2eba
  === BLOCK LINK ===
    0x2e97
=== CODE BLOCK END ===

=== CODE BLOCK ADDRESS 0x2e97 ===
  0x2e97	dec    	eax
  0x2e98	mov    	eax, dword ptr [0x330a]
  0x2e9e	dec    	eax
  0x2e9f	mov    	eax, dword ptr [eax]
  0x2ea1	dec    	eax
  === BLOCK LINK ===
    0x2ea2
=== CODE BLOCK END ===

=== CODE BLOCK ADDRESS 0x2ea2 ===
  0x2ea2	mov    	dword ptr [0x3360], eax
  0x2ea8	dec    	eax
  0x2ea9	mov    	eax, dword ptr [0x32f9]
  0x2eaf	dec    	eax
  0x2eb0	add    	eax, 8
  === BLOCK LINK ===
    0x2eb3
=== CODE BLOCK END ===

=== CODE BLOCK ADDRESS 0x2eb3 ===
  0x2eb3	dec    	eax
  0x2eb4	mov    	dword ptr [0x32ee], eax
  0x2eba	dec    	eax
  0x2ebb	mov    	eax, dword ptr [0x3347]
  0x2ec1	dec    	eax
  === BLOCK LINK ===
    0x2ec2
=== CODE BLOCK END ===

=== CODE BLOCK ADDRESS 0x2ec2 ===
  0x2ec2	mov    	dword ptr [0x31b8], eax
  0x2ec8	dec    	eax
  0x2ec9	mov    	eax, dword ptr [esp + 0x90]
  0x2ed0	dec    	eax
  0x2ed1	mov    	dword ptr [0x32b9], eax
  === BLOCK LINK ===
    0x2ed7
=== CODE BLOCK END ===

=== CODE BLOCK ADDRESS 0x2ed7 ===
  0x2ed7	mov    	dword ptr [0x318f], 0xc0000409
  0x2ee1	mov    	dword ptr [0x3189], 1
  0x2eeb	mov    	dword ptr [0x3193], 3
  0x2ef5	mov    	eax, 8
  0x2efa	dec    	eax
  === BLOCK LINK ===
    0x2efb
=== CODE BLOCK END ===

=== CODE BLOCK ADDRESS 0x2efb ===
  0x2efb	imul   	eax, eax, 0
  0x2efe	dec    	eax
  0x2eff	lea    	ecx, [0x318b]
  0x2f05	dec    	eax
  0x2f06	mov    	dword ptr [ecx + eax], 2
  === BLOCK LINK ===
    0x2f0d
=== CODE BLOCK END ===

=== CODE BLOCK ADDRESS 0x2f0d ===
  0x2f0d	mov    	eax, 8
  0x2f12	dec    	eax
  0x2f13	imul   	eax, eax, 1
  0x2f16	dec    	eax
  0x2f17	lea    	ecx, [0x3173]
  === BLOCK LINK ===
    0x2f1d
=== CODE BLOCK END ===

=== CODE BLOCK ADDRESS 0x2f1d ===
  0x2f1d	dec    	eax
  0x2f1e	mov    	edx, dword ptr [0x30e4]
  0x2f24	dec    	eax
  0x2f25	mov    	dword ptr [ecx + eax], edx
  0x2f28	mov    	eax, 8
  === BLOCK LINK ===
    0x2f2d
=== CODE BLOCK END ===

=== CODE BLOCK ADDRESS 0x2f2d ===
  0x2f2d	dec    	eax
  0x2f2e	imul   	eax, eax, 2
  0x2f31	dec    	eax
  0x2f32	lea    	ecx, [0x3158]
  0x2f38	dec    	eax
  === BLOCK LINK ===
    0x2f39
=== CODE BLOCK END ===

=== CODE BLOCK ADDRESS 0x2f39 ===
  0x2f39	mov    	edx, dword ptr [0x30d1]
  0x2f3f	dec    	eax
  0x2f40	mov    	dword ptr [ecx + eax], edx
  0x2f43	mov    	eax, 8
  0x2f48	dec    	eax
  === BLOCK LINK ===
    0x2f49
=== CODE BLOCK END ===

=== CODE BLOCK ADDRESS 0x2f49 ===
  0x2f49	imul   	eax, eax, 0
  0x2f4c	dec    	eax
  0x2f4d	mov    	ecx, dword ptr [0x30b5]
  0x2f53	dec    	eax
  0x2f54	mov    	dword ptr [esp + eax + 0x68], ecx
  === BLOCK LINK ===
    0x2f58
=== CODE BLOCK END ===

=== CODE BLOCK ADDRESS 0x2f58 ===
  0x2f58	mov    	eax, 8
  0x2f5d	dec    	eax
  0x2f5e	imul   	eax, eax, 1
  0x2f61	dec    	eax
  0x2f62	mov    	ecx, dword ptr [0x30a8]
  === BLOCK LINK ===
    0x2f68
=== CODE BLOCK END ===

=== CODE BLOCK ADDRESS 0x2f68 ===
  0x2f68	dec    	eax
  0x2f69	mov    	dword ptr [esp + eax + 0x68], ecx
  0x2f6d	dec    	eax
  0x2f6e	lea    	ecx, [0x108c]
  0x2f74	call   	0x2dcc
  === BLOCK LINK ===
    0x2f79
=== CODE BLOCK END ===

=== CODE BLOCK ADDRESS 0x2f79 ===
  0x2f79	dec    	eax
  0x2f7a	add    	esp, 0x88
  0x2f80	ret    	
  0x2f81	int3   	
  0x2f82	int3   	
  === BLOCK LINK ===
    0x2f83
=== CODE BLOCK END ===

=== CODE BLOCK ADDRESS 0x2f83 ===
  0x2f83	int3   	
  0x2f84	int3   	
  0x2f85	int3   	
  0x2f86	int3   	
  0x2f87	int3   	
  === BLOCK LINK ===
    0x2f88
=== CODE BLOCK END ===

=== CODE BLOCK ADDRESS 0x2f88 ===
  0x2f88	dec    	eax
  0x2f89	sub    	esp, 0x78
  0x2f8c	dec    	eax
  0x2f8d	lea    	ecx, [0x317d]
  0x2f93	call   	dword ptr [0x140f]
  === BLOCK LINK ===
    0x2f99
=== CODE BLOCK END ===

=== CODE BLOCK ADDRESS 0x2f99 ===
  0x2f99	dec    	eax
  0x2f9a	mov    	eax, dword ptr [0x3268]
  0x2fa0	dec    	eax
  0x2fa1	mov    	dword ptr [esp + 0x48], eax
  0x2fa5	inc    	ebp
  === BLOCK LINK ===
    0x2fa6
=== CODE BLOCK END ===

=== CODE BLOCK ADDRESS 0x2fa6 ===
  0x2fa6	xor    	eax, eax
  0x2fa8	dec    	eax
  0x2fa9	lea    	edx, [esp + 0x50]
  0x2fad	dec    	eax
  0x2fae	mov    	ecx, dword ptr [esp + 0x48]
  === BLOCK LINK ===
    0x2fb2
=== CODE BLOCK END ===

=== CODE BLOCK ADDRESS 0x2fb2 ===
  0x2fb2	call   	dword ptr [0x13e8]
  === BLOCK LINK ===
    0x2fb8
=== CODE BLOCK END ===

=== CODE BLOCK ADDRESS 0x2fb8 ===
  0x2fb8	dec    	eax
  0x2fb9	mov    	dword ptr [esp + 0x40], eax
  0x2fbd	dec    	eax
  0x2fbe	cmp    	dword ptr [esp + 0x40], 0
  0x2fc3	je     	0x3007
  === BLOCK LINK ===
    0x2fc5
=== CODE BLOCK END ===

=== CODE BLOCK ADDRESS 0x2fc5 ===
  0x2fc5	dec    	eax
  0x2fc6	mov    	dword ptr [esp + 0x38], 0
  0x2fce	dec    	eax
  0x2fcf	lea    	eax, [esp + 0x58]
  0x2fd3	dec    	eax
  === BLOCK LINK ===
    0x2fd4
=== CODE BLOCK END ===

=== CODE BLOCK ADDRESS 0x2fd4 ===
  0x2fd4	mov    	dword ptr [esp + 0x30], eax
  0x2fd8	dec    	eax
  0x2fd9	lea    	eax, [esp + 0x60]
  0x2fdd	dec    	eax
  0x2fde	mov    	dword ptr [esp + 0x28], eax
  === BLOCK LINK ===
    0x2fe2
=== CODE BLOCK END ===

=== CODE BLOCK ADDRESS 0x2fe2 ===
  0x2fe2	dec    	eax
  0x2fe3	lea    	eax, [0x3127]
  0x2fe9	dec    	eax
  0x2fea	mov    	dword ptr [esp + 0x20], eax
  0x2fee	dec    	esp
  === BLOCK LINK ===
    0x2fef
=== CODE BLOCK END ===

=== CODE BLOCK ADDRESS 0x2fef ===
  0x2fef	mov    	ecx, dword ptr [esp + 0x40]
  0x2ff3	dec    	esp
  0x2ff4	mov    	eax, dword ptr [esp + 0x48]
  0x2ff8	dec    	eax
  0x2ff9	mov    	edx, dword ptr [esp + 0x50]
  === BLOCK LINK ===
    0x2ffd
=== CODE BLOCK END ===

=== CODE BLOCK ADDRESS 0x2ffd ===
  0x2ffd	xor    	ecx, ecx
  0x2fff	call   	dword ptr [0x1393]
  === BLOCK LINK ===
    0x3005
=== CODE BLOCK END ===

=== CODE BLOCK ADDRESS 0x3005 ===
  0x3005	jmp    	0x302a
  === BLOCK LINK ===
    0x3007
=== CODE BLOCK END ===

=== CODE BLOCK ADDRESS 0x3007 ===
  0x3007	dec    	eax
  0x3008	mov    	eax, dword ptr [0x319a]
  0x300e	dec    	eax
  0x300f	mov    	eax, dword ptr [eax]
  0x3011	dec    	eax
  === BLOCK LINK ===
    0x3012
=== CODE BLOCK END ===

=== CODE BLOCK ADDRESS 0x3012 ===
  0x3012	mov    	dword ptr [0x31f0], eax
  0x3018	dec    	eax
  0x3019	mov    	eax, dword ptr [0x3189]
  0x301f	dec    	eax
  0x3020	add    	eax, 8
  === BLOCK LINK ===
    0x3023
=== CODE BLOCK END ===

=== CODE BLOCK ADDRESS 0x3023 ===
  0x3023	dec    	eax
  0x3024	mov    	dword ptr [0x317e], eax
  0x302a	dec    	eax
  0x302b	mov    	eax, dword ptr [0x31d7]
  0x3031	dec    	eax
  === BLOCK LINK ===
    0x3032
=== CODE BLOCK END ===

=== CODE BLOCK ADDRESS 0x3032 ===
  0x3032	mov    	dword ptr [0x3048], eax
  0x3038	mov    	dword ptr [0x302e], 0xc0000409
  0x3042	mov    	dword ptr [0x3028], 1
  0x304c	mov    	dword ptr [0x3032], 1
  0x3056	mov    	eax, 8
  === BLOCK LINK ===
    0x305b
=== CODE BLOCK END ===

=== CODE BLOCK ADDRESS 0x305b ===
  0x305b	dec    	eax
  0x305c	imul   	eax, eax, 0
  0x305f	dec    	eax
  0x3060	lea    	ecx, [0x302a]
  0x3066	dec    	eax
  === BLOCK LINK ===
    0x3067
=== CODE BLOCK END ===

=== CODE BLOCK ADDRESS 0x3067 ===
  0x3067	mov    	dword ptr [ecx + eax], 8
  0x306e	dec    	eax
  0x306f	lea    	ecx, [0xf8b]
  0x3075	call   	0x2dcc
  === BLOCK LINK ===
    0x307a
=== CODE BLOCK END ===

=== CODE BLOCK ADDRESS 0x307a ===
  0x307a	dec    	eax
  0x307b	add    	esp, 0x78
  0x307e	ret    	
  0x307f	int3   	
  0x3080	int3   	
  === BLOCK LINK ===
    0x3081
=== CODE BLOCK END ===

=== CODE BLOCK ADDRESS 0x3081 ===
  0x3081	int3   	
  0x3082	int3   	
  0x3083	int3   	
  0x3084	int3   	
  0x3085	int3   	
  === BLOCK LINK ===
    0x3086
=== CODE BLOCK END ===

=== CODE BLOCK ADDRESS 0x3086 ===
  0x3086	int3   	
  0x3087	int3   	
  0x3088	dec    	eax
  0x3089	sub    	esp, 0x28
  0x308c	dec    	ebp
  === BLOCK LINK ===
    0x308d
=== CODE BLOCK END ===

=== CODE BLOCK ADDRESS 0x308d ===
  0x308d	mov    	eax, dword ptr [ecx + 0x38]
  0x3090	dec    	eax
  0x3091	mov    	ecx, edx
  0x3093	dec    	ecx
  0x3094	mov    	edx, ecx
  === BLOCK LINK ===
    0x3096
=== CODE BLOCK END ===

=== CODE BLOCK ADDRESS 0x3096 ===
  0x3096	call   	0x30ac
  === BLOCK LINK ===
    0x309b
=== CODE BLOCK END ===

=== CODE BLOCK ADDRESS 0x309b ===
  0x309b	mov    	eax, 1
  0x30a0	dec    	eax
  0x30a1	add    	esp, 0x28
  0x30a4	ret    	
  0x30a5	int3   	
  === BLOCK LINK ===
    0x30a6
=== CODE BLOCK END ===

=== CODE BLOCK ADDRESS 0x30a6 ===
  0x30a6	int3   	
  0x30a7	int3   	
  0x30a8	int3   	
  0x30a9	int3   	
  0x30aa	int3   	
  === BLOCK LINK ===
    0x30ab
=== CODE BLOCK END ===

=== CODE BLOCK ADDRESS 0x30ab ===
  0x30ab	int3   	
  0x30ac	inc    	eax
  0x30ad	push   	ebx
  0x30ae	inc    	ebp
  0x30af	mov    	ebx, dword ptr [eax]
  === BLOCK LINK ===
    0x30b1
=== CODE BLOCK END ===

=== CODE BLOCK ADDRESS 0x30b1 ===
  0x30b1	dec    	eax
  0x30b2	mov    	ebx, edx
  0x30b4	inc    	ecx
  0x30b5	and    	ebx, 0xfffffff8
  0x30b8	dec    	esp
  === BLOCK LINK ===
    0x30b9
=== CODE BLOCK END ===

=== CODE BLOCK ADDRESS 0x30b9 ===
  0x30b9	mov    	ecx, ecx
  0x30bb	inc    	ecx
  0x30bc	test   	byte ptr [eax], 4
  0x30bf	dec    	esp
  0x30c0	mov    	edx, ecx
  === BLOCK LINK ===
    0x30c2
=== CODE BLOCK END ===

=== CODE BLOCK ADDRESS 0x30c2 ===
  0x30c2	je     	0x30d7
  === BLOCK LINK ===
    0x30c4
=== CODE BLOCK END ===

=== CODE BLOCK ADDRESS 0x30c4 ===
  0x30c4	inc    	ecx
  0x30c5	mov    	eax, dword ptr [eax + 8]
  0x30c8	dec    	ebp
  0x30c9	arpl   	word ptr [eax + 4], dx
  0x30cc	neg    	eax
  === BLOCK LINK ===
    0x30ce
=== CODE BLOCK END ===

=== CODE BLOCK ADDRESS 0x30ce ===
  0x30ce	dec    	esp
  0x30cf	add    	edx, ecx
  0x30d1	dec    	eax
  0x30d2	arpl   	ax, cx
  0x30d4	dec    	esp
  === BLOCK LINK ===
    0x30d5
=== CODE BLOCK END ===

=== CODE BLOCK ADDRESS 0x30d5 ===
  0x30d5	and    	edx, ecx
  0x30d7	dec    	ecx
  0x30d8	arpl   	bx, ax
  0x30da	dec    	edx
  0x30db	mov    	edx, dword ptr [eax + edx]
  === BLOCK LINK ===
    0x30de
=== CODE BLOCK END ===

=== CODE BLOCK ADDRESS 0x30de ===
  0x30de	dec    	eax
  0x30df	mov    	eax, dword ptr [ebx + 0x10]
  0x30e2	mov    	ecx, dword ptr [eax + 8]
  0x30e5	dec    	eax
  0x30e6	mov    	eax, dword ptr [ebx + 8]
  === BLOCK LINK ===
    0x30e9
=== CODE BLOCK END ===

=== CODE BLOCK ADDRESS 0x30e9 ===
  0x30e9	test   	byte ptr [ecx + eax + 3], 0xf
  0x30ee	je     	0x30fb
  === BLOCK LINK ===
    0x30f0
=== CODE BLOCK END ===

=== CODE BLOCK ADDRESS 0x30f0 ===
  0x30f0	movzx  	eax, byte ptr [ecx + eax + 3]
  0x30f5	and    	eax, 0xfffffff0
  0x30f8	dec    	esp
  0x30f9	add    	ecx, eax
  0x30fb	dec    	esp
  === BLOCK LINK ===
    0x30fc
=== CODE BLOCK END ===

=== CODE BLOCK ADDRESS 0x30fc ===
  0x30fc	xor    	ecx, edx
  0x30fe	dec    	ecx
  0x30ff	mov    	ecx, ecx
  0x3101	pop    	ebx
  0x3102	jmp    	0x2a90
  === BLOCK LINK ===
    0x3107
=== CODE BLOCK END ===

=== CODE BLOCK ADDRESS 0x3107 ===
  0x3107	int3   	
  0x3108	int3   	
  0x3109	int3   	
  0x310a	int3   	
  0x310b	int3   	
  === BLOCK LINK ===
    0x310c
=== CODE BLOCK END ===

=== CODE BLOCK ADDRESS 0x310c ===
  0x310c	int3   	
  0x310d	int3   	
  0x310e	int3   	
  0x310f	int3   	
  0x3110	dec    	eax
  === BLOCK LINK ===
    0x3111
=== CODE BLOCK END ===

=== CODE BLOCK ADDRESS 0x3111 ===
  0x3111	mov    	eax, esp
  0x3113	dec    	eax
  0x3114	mov    	dword ptr [eax + 8], ebx
  0x3117	dec    	eax
  0x3118	mov    	dword ptr [eax + 0x10], ebp
  === BLOCK LINK ===
    0x311b
=== CODE BLOCK END ===

=== CODE BLOCK ADDRESS 0x311b ===
  0x311b	dec    	eax
  0x311c	mov    	dword ptr [eax + 0x18], esi
  0x311f	dec    	eax
  0x3120	mov    	dword ptr [eax + 0x20], edi
  0x3123	inc    	ecx
  === BLOCK LINK ===
    0x3124
=== CODE BLOCK END ===

=== CODE BLOCK ADDRESS 0x3124 ===
  0x3124	push   	esi
  0x3125	dec    	eax
  0x3126	sub    	esp, 0x20
  0x3129	dec    	ebp
  0x312a	mov    	edx, dword ptr [ecx + 0x38]
  === BLOCK LINK ===
    0x312d
=== CODE BLOCK END ===

=== CODE BLOCK ADDRESS 0x312d ===
  0x312d	dec    	eax
  0x312e	mov    	esi, edx
  0x3130	dec    	ebp
  0x3131	mov    	esi, eax
  0x3133	dec    	eax
  === BLOCK LINK ===
    0x3134
=== CODE BLOCK END ===

=== CODE BLOCK ADDRESS 0x3134 ===
  0x3134	mov    	ebp, ecx
  0x3136	dec    	ecx
  0x3137	mov    	edx, ecx
  0x3139	dec    	eax
  0x313a	mov    	ecx, esi
  === BLOCK LINK ===
    0x313c
=== CODE BLOCK END ===

=== CODE BLOCK ADDRESS 0x313c ===
  0x313c	dec    	ecx
  0x313d	mov    	edi, ecx
  0x313f	inc    	ecx
  0x3140	mov    	ebx, dword ptr [edx]
  0x3142	dec    	eax
  === BLOCK LINK ===
    0x3143
=== CODE BLOCK END ===

=== CODE BLOCK ADDRESS 0x3143 ===
  0x3143	shl    	ebx, 4
  0x3146	dec    	ecx
  0x3147	add    	ebx, edx
  0x3149	dec    	esp
  0x314a	lea    	eax, [ebx + 4]
  === BLOCK LINK ===
    0x314d
=== CODE BLOCK END ===

=== CODE BLOCK ADDRESS 0x314d ===
  0x314d	call   	0x30ac
  === BLOCK LINK ===
    0x3152
=== CODE BLOCK END ===

=== CODE BLOCK ADDRESS 0x3152 ===
  0x3152	mov    	eax, dword ptr [ebp + 4]
  0x3155	and    	al, 0x66
  0x3157	neg    	al
  0x3159	mov    	eax, 1
  0x315e	sbb    	edx, edx
  === BLOCK LINK ===
    0x3160
=== CODE BLOCK END ===

=== CODE BLOCK ADDRESS 0x3160 ===
  0x3160	neg    	edx
  0x3162	add    	edx, eax
  0x3164	test   	dword ptr [ebx + 4], edx
  0x3167	je     	0x317b
  === BLOCK LINK ===
    0x3169
=== CODE BLOCK END ===

=== CODE BLOCK ADDRESS 0x3169 ===
  0x3169	dec    	esp
  0x316a	mov    	ecx, edi
  0x316c	dec    	ebp
  0x316d	mov    	eax, esi
  0x316f	dec    	eax
  === BLOCK LINK ===
    0x3170
=== CODE BLOCK END ===

=== CODE BLOCK ADDRESS 0x3170 ===
  0x3170	mov    	edx, esi
  0x3172	dec    	eax
  0x3173	mov    	ecx, ebp
  0x3175	call   	dword ptr [0x115d]
  === BLOCK LINK ===
    0x317b
=== CODE BLOCK END ===

=== CODE BLOCK ADDRESS 0x317b ===
  0x317b	dec    	eax
  0x317c	mov    	ebx, dword ptr [esp + 0x30]
  0x3180	dec    	eax
  0x3181	mov    	ebp, dword ptr [esp + 0x38]
  0x3185	dec    	eax
  === BLOCK LINK ===
    0x3186
=== CODE BLOCK END ===

=== CODE BLOCK ADDRESS 0x3186 ===
  0x3186	mov    	esi, dword ptr [esp + 0x40]
  0x318a	dec    	eax
  0x318b	mov    	edi, dword ptr [esp + 0x48]
  0x318f	dec    	eax
  0x3190	add    	esp, 0x20
  === BLOCK LINK ===
    0x3193
=== CODE BLOCK END ===

=== CODE BLOCK ADDRESS 0x3193 ===
  0x3193	inc    	ecx
  0x3194	pop    	esi
  0x3195	ret    	
  0x3196	int3   	
  0x3197	int3   	
  === BLOCK LINK ===
    0x3198
=== CODE BLOCK END ===

=== CODE BLOCK ADDRESS 0x3198 ===
  0x3198	int3   	
  0x3199	int3   	
  0x319a	int3   	
  0x319b	int3   	
  0x319c	jmp    	dword ptr [0x11b6]
  === BLOCK LINK ===
    0x31a2
=== CODE BLOCK END ===

=== CODE BLOCK ADDRESS 0x31a2 ===
  0x31a2	int3   	
  0x31a3	int3   	
  0x31a4	int3   	
  0x31a5	int3   	
  0x31a6	int3   	
  === BLOCK LINK ===
    0x31a7
=== CODE BLOCK END ===

=== CODE BLOCK ADDRESS 0x31a7 ===
  0x31a7	int3   	
  0x31a8	int3   	
  0x31a9	int3   	
  0x31aa	int3   	
  0x31ab	int3   	
  === BLOCK LINK ===
    0x31ac
=== CODE BLOCK END ===

=== CODE BLOCK ADDRESS 0x31ac ===
  0x31ac	int3   	
  0x31ad	int3   	
  0x31ae	int3   	
  0x31af	int3   	
  0x31b0	int3   	
  === BLOCK LINK ===
    0x31b1
=== CODE BLOCK END ===

=== CODE BLOCK ADDRESS 0x31b1 ===
  0x31b1	int3   	
  0x31b2	int3   	
  0x31b3	int3   	
  0x31b4	int3   	
  0x31b5	int3   	
  === BLOCK LINK ===
    0x31b6
=== CODE BLOCK END ===

=== CODE BLOCK ADDRESS 0x31b6 ===
  0x31b6	nop    	word ptr [eax + eax]
  0x31c0	jmp    	eax
  === BLOCK LINK ===
    0x31c2
=== CODE BLOCK END ===

=== CODE BLOCK ADDRESS 0x31c2 ===
  0x31c2	int3   	
  0x31c3	int3   	
  0x31c4	int3   	
  0x31c5	int3   	
  0x31c6	int3   	
  === BLOCK LINK ===
    0x31c7
=== CODE BLOCK END ===

=== CODE BLOCK ADDRESS 0x31c7 ===
  0x31c7	int3   	
  0x31c8	int3   	
  0x31c9	int3   	
  0x31ca	int3   	
  0x31cb	int3   	
  === BLOCK LINK ===
    0x31cc
=== CODE BLOCK END ===

=== CODE BLOCK ADDRESS 0x31cc ===
  0x31cc	int3   	
  0x31cd	int3   	
  0x31ce	int3   	
  0x31cf	int3   	
  0x31d0	inc    	eax
  === BLOCK LINK ===
    0x31d1
=== CODE BLOCK END ===

=== CODE BLOCK ADDRESS 0x31d1 ===
  0x31d1	push   	ebp
  0x31d2	dec    	eax
  0x31d3	sub    	esp, 0x20
  0x31d6	dec    	eax
  0x31d7	mov    	ebp, edx
  === BLOCK LINK ===
    0x31d9
=== CODE BLOCK END ===

=== CODE BLOCK ADDRESS 0x31d9 ===
  0x31d9	dec    	eax
  0x31da	mov    	dword ptr [ebp + 0x38], ecx
  0x31dd	dec    	eax
  0x31de	mov    	eax, dword ptr [ecx]
  0x31e0	mov    	ecx, dword ptr [eax]
  === BLOCK LINK ===
    0x31e2
=== CODE BLOCK END ===

=== CODE BLOCK ADDRESS 0x31e2 ===
  0x31e2	mov    	dword ptr [ebp + 0x30], ecx
  0x31e5	mov    	dword ptr [ebp + 0x20], ecx
  0x31e8	mov    	eax, dword ptr [ebp + 0x20]
  0x31eb	cmp    	eax, 0xe0000300
  0x31f0	je     	0x3205
  === BLOCK LINK ===
    0x31f2
=== CODE BLOCK END ===

=== CODE BLOCK ADDRESS 0x31f2 ===
  0x31f2	mov    	eax, dword ptr [ebp + 0x20]
  0x31f5	cmp    	eax, 0xc0000194
  0x31fa	je     	0x3205
  === BLOCK LINK ===
    0x31fc
=== CODE BLOCK END ===

=== CODE BLOCK ADDRESS 0x31fc ===
  0x31fc	mov    	dword ptr [ebp + 0x28], 1
  0x3203	jmp    	0x320c
  === BLOCK LINK ===
    0x3205
=== CODE BLOCK END ===

=== CODE BLOCK ADDRESS 0x3205 ===
  0x3205	mov    	dword ptr [ebp + 0x28], 0
  0x320c	mov    	eax, dword ptr [ebp + 0x28]
  0x320f	dec    	eax
  0x3210	add    	esp, 0x20
  0x3213	pop    	ebp
  === BLOCK LINK ===
    0x3214
=== CODE BLOCK END ===

=== CODE BLOCK ADDRESS 0x3214 ===
  0x3214	ret    	
  0x3215	int3   	
  0x3216	int3   	
  0x3217	int3   	
  0x3218	int3   	
  === BLOCK LINK ===
    0x3219
=== CODE BLOCK END ===

=== CODE BLOCK ADDRESS 0x147e ===
  0x147e	dec    	eax
  0x147f	mov    	ecx, dword ptr [ebx]
  0x1481	dec    	eax
  0x1482	call   	dword ptr [0x2d00]
  === BLOCK LINK ===
    0x1488
=== CODE BLOCK END ===

=== CODE BLOCK ADDRESS 0x3219 ===
  0x3219	int3   	
  0x321a	int3   	
  0x321b	int3   	
  0x321c	inc    	eax
  0x321d	push   	ebp
  === BLOCK LINK ===
    0x321e
=== CODE BLOCK END ===

=== CODE BLOCK ADDRESS 0x321e ===
  0x321e	dec    	eax
  0x321f	sub    	esp, 0x20
  0x3222	dec    	eax
  0x3223	mov    	ebp, edx
  0x3225	dec    	eax
  === BLOCK LINK ===
    0x3226
=== CODE BLOCK END ===

=== CODE BLOCK ADDRESS 0x3226 ===
  0x3226	mov    	eax, dword ptr [ecx]
  0x3228	dec    	eax
  0x3229	mov    	edx, ecx
  0x322b	mov    	ecx, dword ptr [eax]
  0x322d	call   	0x2b1e
  === BLOCK LINK ===
    0x3232
=== CODE BLOCK END ===

=== CODE BLOCK ADDRESS 0x3232 ===
  0x3232	nop    	
  0x3233	dec    	eax
  0x3234	add    	esp, 0x20
  0x3237	pop    	ebp
  0x3238	ret    	
  === BLOCK LINK ===
    0x3239
=== CODE BLOCK END ===

=== CODE BLOCK ADDRESS 0x3239 ===
  0x3239	int3   	
  0x323a	int3   	
  0x323b	int3   	
  0x323c	int3   	
  0x323d	int3   	
  === BLOCK LINK ===
    0x323e
=== CODE BLOCK END ===

=== CODE BLOCK ADDRESS 0x323e ===
  0x323e	int3   	
  0x323f	int3   	
  0x3240	inc    	eax
  0x3241	push   	ebp
  0x3242	dec    	eax
  === BLOCK LINK ===
    0x3243
=== CODE BLOCK END ===

=== CODE BLOCK ADDRESS 0x3243 ===
  0x3243	sub    	esp, 0x20
  0x3246	dec    	eax
  0x3247	mov    	ebp, edx
  0x3249	dec    	eax
  0x324a	mov    	eax, dword ptr [ecx]
  === BLOCK LINK ===
    0x324c
=== CODE BLOCK END ===

=== CODE BLOCK ADDRESS 0x324c ===
  0x324c	xor    	ecx, ecx
  0x324e	cmp    	dword ptr [eax], 0xc0000005
  0x3254	sete   	cl
  0x3257	mov    	eax, ecx
  0x3259	dec    	eax
  === BLOCK LINK ===
    0x325a
=== CODE BLOCK END ===

=== CODE BLOCK ADDRESS 0x325a ===
  0x325a	add    	esp, 0x20
  0x325d	pop    	ebp
  0x325e	ret    	
  0x325f	int3   	
  0x3260	add    	byte ptr [eax], al
  === BLOCK LINK ===
    0x3262
=== CODE BLOCK END ===

=== CODE BLOCK ADDRESS 0x149e ===
  0x149e	dec    	eax
  0x149f	mov    	ebx, dword ptr [esp + 0x30]
  0x14a3	dec    	eax
  0x14a4	add    	esp, 0x20
  === BLOCK LINK ===
    0x14a7
=== CODE BLOCK END ===

=== CODE BLOCK ADDRESS 0x3262 ===
  0x3262	add    	byte ptr [eax], al
  0x3264	add    	byte ptr [eax], al
  0x3266	add    	byte ptr [eax], al
  0x3268	add    	byte ptr [eax], al
  0x326a	add    	byte ptr [eax], al
  === BLOCK LINK ===
    0x326c
=== CODE BLOCK END ===

=== CODE BLOCK ADDRESS 0x326c ===
  0x326c	add    	byte ptr [eax], al
  0x326e	add    	byte ptr [eax], al
  0x3270	add    	byte ptr [eax], al
  0x3272	add    	byte ptr [eax], al
  0x3274	add    	byte ptr [eax], al
  === BLOCK LINK ===
    0x3276
=== CODE BLOCK END ===

=== CODE BLOCK ADDRESS 0x3276 ===
  0x3276	add    	byte ptr [eax], al
  0x3278	add    	byte ptr [eax], al
  0x327a	add    	byte ptr [eax], al
  0x327c	add    	byte ptr [eax], al
  0x327e	add    	byte ptr [eax], al
  === BLOCK LINK ===
    0x3280
=== CODE BLOCK END ===

=== CODE BLOCK ADDRESS 0x3280 ===
  0x3280	add    	byte ptr [eax], al
  0x3282	add    	byte ptr [eax], al
  0x3284	add    	byte ptr [eax], al
  0x3286	add    	byte ptr [eax], al
  0x3288	add    	byte ptr [eax], al
  === BLOCK LINK ===
    0x328a
=== CODE BLOCK END ===

=== CODE BLOCK ADDRESS 0x328a ===
  0x328a	add    	byte ptr [eax], al
  0x328c	add    	byte ptr [eax], al
  0x328e	add    	byte ptr [eax], al
  0x3290	add    	byte ptr [eax], al
  0x3292	add    	byte ptr [eax], al
  === BLOCK LINK ===
    0x3294
=== CODE BLOCK END ===

=== CODE BLOCK ADDRESS 0x3294 ===
  0x3294	add    	byte ptr [eax], al
  0x3296	add    	byte ptr [eax], al
  0x3298	add    	byte ptr [eax], al
  0x329a	add    	byte ptr [eax], al
  0x329c	add    	byte ptr [eax], al
  === BLOCK LINK ===
    0x329e
=== CODE BLOCK END ===

=== CODE BLOCK ADDRESS 0x329e ===
  0x329e	add    	byte ptr [eax], al
  0x32a0	add    	byte ptr [eax], al
  0x32a2	add    	byte ptr [eax], al
  0x32a4	add    	byte ptr [eax], al
  0x32a6	add    	byte ptr [eax], al
  === BLOCK LINK ===
    0x32a8
=== CODE BLOCK END ===

=== CODE BLOCK ADDRESS 0x32a8 ===
  0x32a8	add    	byte ptr [eax], al
  0x32aa	add    	byte ptr [eax], al
  0x32ac	add    	byte ptr [eax], al
  0x32ae	add    	byte ptr [eax], al
  0x32b0	add    	byte ptr [eax], al
  === BLOCK LINK ===
    0x32b2
=== CODE BLOCK END ===

=== CODE BLOCK ADDRESS 0x32b2 ===
  0x32b2	add    	byte ptr [eax], al
  0x32b4	add    	byte ptr [eax], al
  0x32b6	add    	byte ptr [eax], al
  0x32b8	add    	byte ptr [eax], al
  0x32ba	add    	byte ptr [eax], al
  === BLOCK LINK ===
    0x32bc
=== CODE BLOCK END ===

=== CODE BLOCK ADDRESS 0x32bc ===
  0x32bc	add    	byte ptr [eax], al
  0x32be	add    	byte ptr [eax], al
  0x32c0	add    	byte ptr [eax], al
  0x32c2	add    	byte ptr [eax], al
  0x32c4	add    	byte ptr [eax], al
  === BLOCK LINK ===
    0x32c6
=== CODE BLOCK END ===

=== CODE BLOCK ADDRESS 0x32c6 ===
  0x32c6	add    	byte ptr [eax], al
  0x32c8	add    	byte ptr [eax], al
  0x32ca	add    	byte ptr [eax], al
  0x32cc	add    	byte ptr [eax], al
  0x32ce	add    	byte ptr [eax], al
  === BLOCK LINK ===
    0x32d0
=== CODE BLOCK END ===

=== CODE BLOCK ADDRESS 0x32d0 ===
  0x32d0	add    	byte ptr [eax], al
  0x32d2	add    	byte ptr [eax], al
  0x32d4	add    	byte ptr [eax], al
  0x32d6	add    	byte ptr [eax], al
  0x32d8	add    	byte ptr [eax], al
  === BLOCK LINK ===
    0x32da
=== CODE BLOCK END ===

=== CODE BLOCK ADDRESS 0x32da ===
  0x32da	add    	byte ptr [eax], al
  0x32dc	add    	byte ptr [eax], al
  0x32de	add    	byte ptr [eax], al
  0x32e0	add    	byte ptr [eax], al
  0x32e2	add    	byte ptr [eax], al
  === BLOCK LINK ===
    0x32e4
=== CODE BLOCK END ===

=== CODE BLOCK ADDRESS 0x32e4 ===
  0x32e4	add    	byte ptr [eax], al
  0x32e6	add    	byte ptr [eax], al
  0x32e8	add    	byte ptr [eax], al
  0x32ea	add    	byte ptr [eax], al
  0x32ec	add    	byte ptr [eax], al
  === BLOCK LINK ===
    0x32ee
=== CODE BLOCK END ===

=== CODE BLOCK ADDRESS 0x32ee ===
  0x32ee	add    	byte ptr [eax], al
  0x32f0	add    	byte ptr [eax], al
  0x32f2	add    	byte ptr [eax], al
  0x32f4	add    	byte ptr [eax], al
  0x32f6	add    	byte ptr [eax], al
  === BLOCK LINK ===
    0x32f8
=== CODE BLOCK END ===

=== CODE BLOCK ADDRESS 0x32f8 ===
  0x32f8	add    	byte ptr [eax], al
  0x32fa	add    	byte ptr [eax], al
  0x32fc	add    	byte ptr [eax], al
  0x32fe	add    	byte ptr [eax], al
  0x3300	add    	byte ptr [eax], al
  === BLOCK LINK ===
    0x3302
=== CODE BLOCK END ===

=== CODE BLOCK ADDRESS 0x3302 ===
  0x3302	add    	byte ptr [eax], al
  0x3304	add    	byte ptr [eax], al
  0x3306	add    	byte ptr [eax], al
  0x3308	add    	byte ptr [eax], al
  0x330a	add    	byte ptr [eax], al
  === BLOCK LINK ===
    0x330c
=== CODE BLOCK END ===

=== CODE BLOCK ADDRESS 0x330c ===
  0x330c	add    	byte ptr [eax], al
  0x330e	add    	byte ptr [eax], al
  0x3310	add    	byte ptr [eax], al
  0x3312	add    	byte ptr [eax], al
  0x3314	add    	byte ptr [eax], al
  === BLOCK LINK ===
    0x3316
=== CODE BLOCK END ===

=== CODE BLOCK ADDRESS 0x3316 ===
  0x3316	add    	byte ptr [eax], al
  0x3318	add    	byte ptr [eax], al
  0x331a	add    	byte ptr [eax], al
  0x331c	add    	byte ptr [eax], al
  0x331e	add    	byte ptr [eax], al
  === BLOCK LINK ===
    0x3320
=== CODE BLOCK END ===

=== CODE BLOCK ADDRESS 0x3320 ===
  0x3320	add    	byte ptr [eax], al
  0x3322	add    	byte ptr [eax], al
  0x3324	add    	byte ptr [eax], al
  0x3326	add    	byte ptr [eax], al
  0x3328	add    	byte ptr [eax], al
  === BLOCK LINK ===
    0x332a
=== CODE BLOCK END ===

=== CODE BLOCK ADDRESS 0x332a ===
  0x332a	add    	byte ptr [eax], al
  0x332c	add    	byte ptr [eax], al
  0x332e	add    	byte ptr [eax], al
  0x3330	add    	byte ptr [eax], al
  0x3332	add    	byte ptr [eax], al
  === BLOCK LINK ===
    0x3334
=== CODE BLOCK END ===

=== CODE BLOCK ADDRESS 0x3334 ===
  0x3334	add    	byte ptr [eax], al
  0x3336	add    	byte ptr [eax], al
  0x3338	add    	byte ptr [eax], al
  0x333a	add    	byte ptr [eax], al
  0x333c	add    	byte ptr [eax], al
  === BLOCK LINK ===
    0x333e
=== CODE BLOCK END ===

=== CODE BLOCK ADDRESS 0x333e ===
  0x333e	add    	byte ptr [eax], al
  0x3340	add    	byte ptr [eax], al
  0x3342	add    	byte ptr [eax], al
  0x3344	add    	byte ptr [eax], al
  0x3346	add    	byte ptr [eax], al
  === BLOCK LINK ===
    0x3348
=== CODE BLOCK END ===

=== CODE BLOCK ADDRESS 0x3348 ===
  0x3348	add    	byte ptr [eax], al
  0x334a	add    	byte ptr [eax], al
  0x334c	add    	byte ptr [eax], al
  0x334e	add    	byte ptr [eax], al
  0x3350	add    	byte ptr [eax], al
  === BLOCK LINK ===
    0x3352
=== CODE BLOCK END ===

=== CODE BLOCK ADDRESS 0x3352 ===
  0x3352	add    	byte ptr [eax], al
  0x3354	add    	byte ptr [eax], al
  0x3356	add    	byte ptr [eax], al
  0x3358	add    	byte ptr [eax], al
  0x335a	add    	byte ptr [eax], al
  === BLOCK LINK ===
    0x335c
=== CODE BLOCK END ===

=== CODE BLOCK ADDRESS 0x335c ===
  0x335c	add    	byte ptr [eax], al
  0x335e	add    	byte ptr [eax], al
  0x3360	add    	byte ptr [eax], al
  0x3362	add    	byte ptr [eax], al
  0x3364	add    	byte ptr [eax], al
  === BLOCK LINK ===
    0x3366
=== CODE BLOCK END ===

=== CODE BLOCK ADDRESS 0x3366 ===
  0x3366	add    	byte ptr [eax], al
  0x3368	add    	byte ptr [eax], al
  0x336a	add    	byte ptr [eax], al
  0x336c	add    	byte ptr [eax], al
  0x336e	add    	byte ptr [eax], al
  === BLOCK LINK ===
    0x3370
=== CODE BLOCK END ===

=== CODE BLOCK ADDRESS 0x3370 ===
  0x3370	add    	byte ptr [eax], al
  0x3372	add    	byte ptr [eax], al
  0x3374	add    	byte ptr [eax], al
  0x3376	add    	byte ptr [eax], al
  0x3378	add    	byte ptr [eax], al
  === BLOCK LINK ===
    0x337a
=== CODE BLOCK END ===

=== CODE BLOCK ADDRESS 0x337a ===
  0x337a	add    	byte ptr [eax], al
  0x337c	add    	byte ptr [eax], al
  0x337e	add    	byte ptr [eax], al
  0x3380	add    	byte ptr [eax], al
  0x3382	add    	byte ptr [eax], al
  === BLOCK LINK ===
    0x3384
=== CODE BLOCK END ===

=== CODE BLOCK ADDRESS 0x3384 ===
  0x3384	add    	byte ptr [eax], al
  0x3386	add    	byte ptr [eax], al
  0x3388	add    	byte ptr [eax], al
  0x338a	add    	byte ptr [eax], al
  0x338c	add    	byte ptr [eax], al
  === BLOCK LINK ===
    0x338e
=== CODE BLOCK END ===

=== CODE BLOCK ADDRESS 0x338e ===
  0x338e	add    	byte ptr [eax], al
  0x3390	add    	byte ptr [eax], al
  0x3392	add    	byte ptr [eax], al
  0x3394	add    	byte ptr [eax], al
  0x3396	add    	byte ptr [eax], al
  === BLOCK LINK ===
    0x3398
=== CODE BLOCK END ===

=== CODE BLOCK ADDRESS 0x3398 ===
  0x3398	add    	byte ptr [eax], al
  0x339a	add    	byte ptr [eax], al
  0x339c	add    	byte ptr [eax], al
  0x339e	add    	byte ptr [eax], al
  0x33a0	add    	byte ptr [eax], al
  === BLOCK LINK ===
    0x33a2
=== CODE BLOCK END ===

=== CODE BLOCK ADDRESS 0x33a2 ===
  0x33a2	add    	byte ptr [eax], al
  0x33a4	add    	byte ptr [eax], al
  0x33a6	add    	byte ptr [eax], al
  0x33a8	add    	byte ptr [eax], al
  0x33aa	add    	byte ptr [eax], al
  === BLOCK LINK ===
    0x33ac
=== CODE BLOCK END ===

=== CODE BLOCK ADDRESS 0x33ac ===
  0x33ac	add    	byte ptr [eax], al
  0x33ae	add    	byte ptr [eax], al
  0x33b0	add    	byte ptr [eax], al
  0x33b2	add    	byte ptr [eax], al
  0x33b4	add    	byte ptr [eax], al
  === BLOCK LINK ===
    0x33b6
=== CODE BLOCK END ===

=== CODE BLOCK ADDRESS 0x33b6 ===
  0x33b6	add    	byte ptr [eax], al
  0x33b8	add    	byte ptr [eax], al
  0x33ba	add    	byte ptr [eax], al
  0x33bc	add    	byte ptr [eax], al
  0x33be	add    	byte ptr [eax], al
  === BLOCK LINK ===
    0x33c0
=== CODE BLOCK END ===

=== CODE BLOCK ADDRESS 0x33c0 ===
  0x33c0	add    	byte ptr [eax], al
  0x33c2	add    	byte ptr [eax], al
  0x33c4	add    	byte ptr [eax], al
  0x33c6	add    	byte ptr [eax], al
  0x33c8	add    	byte ptr [eax], al
  === BLOCK LINK ===
    0x33ca
=== CODE BLOCK END ===

=== CODE BLOCK ADDRESS 0x33ca ===
  0x33ca	add    	byte ptr [eax], al
  0x33cc	add    	byte ptr [eax], al
  0x33ce	add    	byte ptr [eax], al
  0x33d0	add    	byte ptr [eax], al
  0x33d2	add    	byte ptr [eax], al
  === BLOCK LINK ===
    0x33d4
=== CODE BLOCK END ===

=== CODE BLOCK ADDRESS 0x33d4 ===
  0x33d4	add    	byte ptr [eax], al
  0x33d6	add    	byte ptr [eax], al
  0x33d8	add    	byte ptr [eax], al
  0x33da	add    	byte ptr [eax], al
  0x33dc	add    	byte ptr [eax], al
  === BLOCK LINK ===
    0x33de
=== CODE BLOCK END ===

=== CODE BLOCK ADDRESS 0x33de ===
  0x33de	add    	byte ptr [eax], al
  0x33e0	add    	byte ptr [eax], al
  0x33e2	add    	byte ptr [eax], al
  0x33e4	add    	byte ptr [eax], al
  0x33e6	add    	byte ptr [eax], al
  === BLOCK LINK ===
    0x33e8
=== CODE BLOCK END ===

=== CODE BLOCK ADDRESS 0x33e8 ===
  0x33e8	add    	byte ptr [eax], al
  0x33ea	add    	byte ptr [eax], al
  0x33ec	add    	byte ptr [eax], al
  0x33ee	add    	byte ptr [eax], al
  0x33f0	add    	byte ptr [eax], al
  === BLOCK LINK ===
    0x33f2
=== CODE BLOCK END ===

=== CODE BLOCK ADDRESS 0x33f2 ===
  0x33f2	add    	byte ptr [eax], al
  0x33f4	add    	byte ptr [eax], al
  0x33f6	add    	byte ptr [eax], al
  0x33f8	add    	byte ptr [eax], al
  0x33fa	add    	byte ptr [eax], al
  === BLOCK LINK ===
    0x33fc
=== CODE BLOCK END ===

=== CODE BLOCK ADDRESS 0x33fc ===
  0x33fc	add    	byte ptr [eax], al
=== CODE BLOCK END ===

=== DATA BLOCK ADDRESS 0x4000 ===
  0x4000	70 60 00 40 01 00 00 00 10 61 00 40 01 00 00 00 	p`0@00000a0@0000
  0x4010	18 01 00 00 00 00 00 00 00 00 00 00 00 00 00 00 	0000000000000000
  0x4020	00 00 00 00 00 00 00 00 00 00 00 00 00 00 00 00 	0000000000000000
  0x4030	00 00 00 00 00 00 00 00 00 00 00 00 00 00 00 00 	0000000000000000
  0x4040	00 00 00 00 00 00 00 00 00 00 00 00 00 00 00 00 	0000000000000000
  0x4050	00 00 00 00 00 00 00 00 00 00 00 00 00 00 00 00 	0000000000000000
  0x4060	00 00 00 00 00 00 00 00 08 60 00 40 01 00 00 00 	000000000`0@0000
  0x4070	00 00 00 00 00 00 00 00 00 00 00 00 00 00 00 00 	0000000000000000
  0x4080	c0 43 00 40 01 00 00 00 c8 43 00 40 01 00 00 00 	0C0@00000C0@0000
  0x4090	08 44 00 40 01 00 00 00 08 00 00 00 00 00 00 00 	0D0@000000000000
  0x40a0	00 75 01 00 00 00 00 00 00 00 00 00 00 00 00 00 	0u00000000000000
  0x40b0	00 00 00 00 00 00 00 00 00 00 00 00 00 00 00 00 	0000000000000000
  0x40c0	00 00 00 00 00 00 00 00 00 00 00 00 00 00 00 00 	0000000000000000
  0x40d0	00 00 00 00 00 00 00 00 00 00 00 00 00 00 00 00 	0000000000000000
  0x40e0	00 00 00 00 00 00 00 00 00 00 00 00 00 00 00 00 	0000000000000000
  0x40f0	00 00 00 00 00 00 00 00 00 00 00 00 00 00 00 00 	0000000000000000
  0x4100	00 00 00 00 00 00 00 00 00 00 00 00 00 00 00 00 	0000000000000000
  0x4110	00 00 00 00 00 00 00 00 00 00 00 00 00 00 00 00 	0000000000000000
  0x4120	00 00 00 00 00 00 00 00 2a 54 00 00 00 00 00 00 	00000000*T000000
  0x4130	00 00 00 00 00 00 00 00 e4 51 00 00 00 00 00 00 	000000000Q000000
  0x4140	44 55 00 00 00 00 00 00 66 51 00 00 00 00 00 00 	DU000000fQ000000
  0x4150	72 55 00 00 00 00 00 00 86 52 00 00 00 00 00 00 	rU0000000R000000
  0x4160	00 00 00 00 00 00 00 00 c2 55 00 00 00 00 00 00 	000000000U000000
  0x4170	d6 55 00 00 00 00 00 00 ec 55 00 00 00 00 00 00 	0U0000000U000000
  0x4180	00 00 00 00 00 00 00 00 0e 55 00 00 00 00 00 00 	000000000U000000
  0x4190	00 00 00 00 00 00 00 00 18 56 00 00 00 00 00 00 	000000000V000000
  0x41a0	86 51 00 00 00 00 00 00 0c 56 00 00 00 00 00 00 	0Q0000000V000000
  0x41b0	00 56 00 00 00 00 00 00 00 00 00 00 00 00 00 00 	0V00000000000000
  0x41c0	bc 51 00 00 00 00 00 00 02 52 00 00 00 00 00 00 	0Q0000000R000000
  0x41d0	9c 51 00 00 00 00 00 00 00 00 00 00 00 00 00 00 	0Q00000000000000
  0x41e0	76 51 00 00 00 00 00 00 00 00 00 00 00 00 00 00 	vQ00000000000000
  0x41f0	28 55 00 00 00 00 00 00 54 51 00 00 00 00 00 00 	(U000000TQ000000
  0x4200	00 00 00 00 00 00 00 00 ae 51 00 00 00 00 00 00 	000000000Q000000
  0x4210	b6 52 00 00 00 00 00 00 a2 52 00 00 00 00 00 00 	0R0000000R000000
  0x4220	46 52 00 00 00 00 00 00 30 52 00 00 00 00 00 00 	FR0000000R000000
  0x4230	d2 51 00 00 00 00 00 00 00 00 00 00 00 00 00 00 	0Q00000000000000
  0x4240	16 52 00 00 00 00 00 00 00 00 00 00 00 00 00 00 	0R00000000000000
  0x4250	e6 54 00 00 00 00 00 00 1c 55 00 00 00 00 00 00 	0T0000000U000000
  0x4260	f6 54 00 00 00 00 00 00 00 00 00 00 00 00 00 00 	0T00000000000000
  0x4270	ca 51 00 00 00 00 00 00 00 00 00 00 00 00 00 00 	0Q00000000000000
  0x4280	54 55 00 00 00 00 00 00 5c 52 00 00 00 00 00 00 	TU0000000R000000
  0x4290	76 52 00 00 00 00 00 00 00 00 00 00 00 00 00 00 	vR00000000000000
  0x42a0	b8 55 00 00 00 00 00 00 84 55 00 00 00 00 00 00 	0U0000000U000000
  0x42b0	a0 55 00 00 00 00 00 00 00 00 00 00 00 00 00 00 	0U00000000000000
  0x42c0	dc 50 00 00 00 00 00 00 c4 50 00 00 00 00 00 00 	0P0000000P000000
  0x42d0	ba 50 00 00 00 00 00 00 08 50 00 00 00 00 00 00 	0P0000000P000000
  0x42e0	66 54 00 00 00 00 00 00 5c 54 00 00 00 00 00 00 	fT0000000T000000
  0x42f0	a4 50 00 00 00 00 00 00 90 50 00 00 00 00 00 00 	0P0000000P000000
  0x4300	4c 54 00 00 00 00 00 00 82 50 00 00 00 00 00 00 	LT0000000P000000
  0x4310	78 50 00 00 00 00 00 00 70 50 00 00 00 00 00 00 	xP000000pP000000
  0x4320	68 50 00 00 00 00 00 00 56 50 00 00 00 00 00 00 	hP000000VP000000
  0x4330	46 50 00 00 00 00 00 00 38 50 00 00 00 00 00 00 	FP0000008P000000
  0x4340	2a 50 00 00 00 00 00 00 20 50 00 00 00 00 00 00 	*P000000 P000000
  0x4350	b0 50 00 00 00 00 00 00 b2 56 00 00 00 00 00 00 	0P0000000V000000
  0x4360	00 00 00 00 00 00 00 00 d4 54 00 00 00 00 00 00 	000000000T000000
  0x4370	c8 54 00 00 00 00 00 00 b0 54 00 00 00 00 00 00 	0T0000000T000000
  0x4380	a6 54 00 00 00 00 00 00 8e 54 00 00 00 00 00 00 	0T0000000T000000
  0x4390	70 54 00 00 00 00 00 00 36 51 00 00 00 00 00 00 	pT0000006Q000000
  0x43a0	1c 51 00 00 00 00 00 00 08 51 00 00 00 00 00 00 	0Q0000000Q000000
  0x43b0	f0 50 00 00 00 00 00 00 00 00 00 00 00 00 00 00 	0P00000000000000
  0x43c0	c0 2d 00 40 01 00 00 00 c0 31 00 40 01 00 00 00 	0-0@0000010@0000
  0x43d0	00 00 00 00 00 00 00 00 c0 27 00 40 01 00 00 00 	000000000'0@0000
  0x43e0	00 00 00 00 00 00 00 00 00 00 00 00 00 00 00 00 	0000000000000000
  0x43f0	e0 26 00 40 01 00 00 00 00 2b 00 40 01 00 00 00 	0&0@00000+0@0000
  0x4400	00 00 00 00 00 00 00 00 e0 26 00 00 c0 27 00 00 	000000000&000'00
  0x4410	10 28 00 00 c0 2a 00 00 00 2b 00 00 e0 2b 00 00 	0(000*000+000+00
  0x4420	c0 2d 00 00 10 2e 00 00 00 00 00 00 00 00 00 00 	0-000.0000000000
  0x4430	68 00 6f 00 74 00 70 00 6c 00 75 00 67 00 2e 00 	h0o0t0p0l0u0g0.0
  0x4440	64 00 6c 00 6c 00 00 00 48 6f 74 50 6c 75 67 45 	d0l0l000HotPlugE
  0x4450	6a 65 63 74 44 65 76 69 63 65 45 78 00 00 00 00 	jectDeviceEx0000
  0x4460	25 00 6c 00 78 00 00 00 00 00 00 00 00 00 00 00 	%0l0x00000000000
  0x4470	53 00 6f 00 66 00 74 00 77 00 61 00 72 00 65 00 	S0o0f0t0w0a0r0e0
  0x4480	5c 00 4d 00 69 00 63 00 72 00 6f 00 73 00 6f 00 	00M0i0c0r0o0s0o0
  0x4490	66 00 74 00 5c 00 57 00 69 00 6e 00 64 00 6f 00 	f0t000W0i0n0d0o0
  0x44a0	77 00 73 00 5c 00 43 00 75 00 72 00 72 00 65 00 	w0s000C0u0r0r0e0
  0x44b0	6e 00 74 00 56 00 65 00 72 00 73 00 69 00 6f 00 	n0t0V0e0r0s0i0o0
  0x44c0	6e 00 5c 00 53 00 65 00 74 00 75 00 70 00 00 00 	n000S0e0t0u0p000
  0x44d0	53 00 65 00 74 00 75 00 70 00 4f 00 76 00 65 00 	S0e0t0u0p0O0v0e0
  0x44e0	72 00 72 00 69 00 64 00 65 00 00 00 00 00 00 00 	r0r0i0d0e0000000
  0x44f0	4c 00 6f 00 67 00 50 00 61 00 74 00 68 00 00 00 	L0o0g0P0a0t0h000
  0x4500	73 00 65 00 74 00 75 00 70 00 61 00 70 00 69 00 	s0e0t0u0p0a0p0i0
  0x4510	2e 00 64 00 65 00 76 00 2e 00 6c 00 6f 00 67 00 	.0d0e0v0.0l0o0g0
  0x4520	00 00 00 00 00 00 00 00 49 00 4e 00 46 00 00 00 	00000000I0N0F000
  0x4530	5c 00 52 00 45 00 47 00 49 00 53 00 54 00 52 00 	00R0E0G0I0S0T0R0
  0x4540	59 00 5c 00 4d 00 41 00 43 00 48 00 49 00 4e 00 	Y000M0A0C0H0I0N0
  0x4550	45 00 00 00 00 00 00 00 00 00 00 00 00 00 00 00 	E000000000000000
  0x4560	5c 00 52 00 45 00 47 00 49 00 53 00 54 00 52 00 	00R0E0G0I0S0T0R0
  0x4570	59 00 5c 00 4d 00 41 00 43 00 48 00 49 00 4e 00 	Y000M0A0C0H0I0N0
  0x4580	45 00 5c 00 53 00 4f 00 46 00 54 00 57 00 41 00 	E000S0O0F0T0W0A0
  0x4590	52 00 45 00 5c 00 43 00 6c 00 61 00 73 00 73 00 	R0E000C0l0a0s0s0
  0x45a0	65 00 73 00 00 00 00 00 5c 00 52 00 45 00 47 00 	e0s0000000R0E0G0
  0x45b0	49 00 53 00 54 00 52 00 59 00 5c 00 55 00 53 00 	I0S0T0R0Y000U0S0
  0x45c0	45 00 52 00 00 00 00 00 00 00 00 00 00 00 00 00 	E0R0000000000000
  0x45d0	5c 00 52 00 45 00 47 00 49 00 53 00 54 00 52 00 	00R0E0G0I0S0T0R0
  0x45e0	59 00 5c 00 4d 00 41 00 43 00 48 00 49 00 4e 00 	Y000M0A0C0H0I0N0
  0x45f0	45 00 5c 00 53 00 59 00 53 00 54 00 45 00 4d 00 	E000S0Y0S0T0E0M0
  0x4600	5c 00 43 00 75 00 72 00 72 00 65 00 6e 00 74 00 	00C0u0r0r0e0n0t0
  0x4610	43 00 6f 00 6e 00 74 00 72 00 6f 00 6c 00 53 00 	C0o0n0t0r0o0l0S0
  0x4620	65 00 74 00 5c 00 48 00 61 00 72 00 64 00 77 00 	e0t000H0a0r0d0w0
  0x4630	61 00 72 00 65 00 20 00 50 00 72 00 6f 00 66 00 	a0r0e0 0P0r0o0f0
  0x4640	69 00 6c 00 65 00 73 00 5c 00 43 00 75 00 72 00 	i0l0e0s000C0u0r0
  0x4650	72 00 65 00 6e 00 74 00 00 00 00 00 00 00 00 00 	r0e0n0t000000000
  0x4660	73 00 65 00 74 00 75 00 70 00 61 00 70 00 69 00 	s0e0t0u0p0a0p0i0
  0x4670	2e 00 61 00 70 00 70 00 2e 00 6c 00 6f 00 67 00 	.0a0p0p0.0l0o0g0
  0x4680	00 00 00 00 00 00 00 00 73 00 65 00 74 00 75 00 	00000000s0e0t0u0
  0x4690	70 00 61 00 70 00 69 00 2e 00 6f 00 66 00 66 00 	p0a0p0i0.0o0f0f0
  0x46a0	6c 00 69 00 6e 00 65 00 2e 00 6c 00 6f 00 67 00 	l0i0n0e0.0l0o0g0
  0x46b0	00 00 00 00 00 00 00 00 73 00 65 00 74 00 75 00 	00000000s0e0t0u0
  0x46c0	70 00 61 00 70 00 69 00 2e 00 65 00 76 00 31 00 	p0a0p0i0.0e0v010
  0x46d0	00 00 00 00 00 00 00 00 73 00 65 00 74 00 75 00 	00000000s0e0t0u0
  0x46e0	70 00 61 00 70 00 69 00 2e 00 65 00 76 00 32 00 	p0a0p0i0.0e0v020
  0x46f0	00 00 00 00 00 00 00 00 73 00 65 00 74 00 75 00 	00000000s0e0t0u0
  0x4700	70 00 61 00 70 00 69 00 2e 00 65 00 76 00 33 00 	p0a0p0i0.0e0v030
  0x4710	00 00 00 00 00 00 00 00 00 00 00 00 00 00 00 00 	0000000000000000
  0x4720	00 00 00 00 50 eb 22 13 00 00 00 00 02 00 00 00 	0000P0"000000000
  0x4730	28 00 00 00 74 47 00 00 74 2f 00 00 00 00 00 00 	(000tG00t/000000
  0x4740	50 eb 22 13 00 00 00 00 0d 00 00 00 f0 01 00 00 	P0"0000000000000
  0x4750	9c 47 00 00 9c 2f 00 00 00 00 00 00 50 eb 22 13 	0G000/000000P0"0
  0x4760	00 00 00 00 10 00 00 00 24 00 00 00 8c 49 00 00 	00000000$0000I00
  0x4770	8c 31 00 00 52 53 44 53 72 7d bf 83 bb 1e d8 e1 	0100RSDSr}000000
  0x4780	61 43 08 bc 86 34 39 1e 01 00 00 00 44 65 76 69 	aC0004900000Devi
  0x4790	63 65 45 6a 65 63 74 2e 70 64 62 00 47 43 54 4c 	ceEject.pdb0GCTL
  0x47a0	00 10 00 00 b0 21 00 00 2e 74 65 78 74 24 6d 6e 	00000!00.text$mn
  0x47b0	00 00 00 00 b0 31 00 00 20 00 00 00 2e 74 65 78 	00000100 000.tex
  0x47c0	74 24 6d 6e 24 30 30 00 d0 31 00 00 90 00 00 00 	t$mn$00001000000
  0x47d0	2e 74 65 78 74 24 78 00 00 40 00 00 28 01 00 00 	.text$x00@00(000
  0x47e0	2e 72 64 61 74 61 24 62 72 63 00 00 28 41 00 00 	.rdata$brc00(A00
  0x47f0	98 02 00 00 2e 69 64 61 74 61 24 35 00 00 00 00 	0000.idata$50000
  0x4800	c0 43 00 00 10 00 00 00 2e 30 30 63 66 67 00 00 	0C000000.00cfg00
  0x4810	d0 43 00 00 08 00 00 00 2e 43 52 54 24 58 43 41 	0C000000.CRT$XCA
  0x4820	00 00 00 00 d8 43 00 00 08 00 00 00 2e 43 52 54 	00000C000000.CRT
  0x4830	24 58 43 41 41 00 00 00 e0 43 00 00 08 00 00 00 	$XCAA0000C000000
  0x4840	2e 43 52 54 24 58 43 5a 00 00 00 00 e8 43 00 00 	.CRT$XCZ00000C00
  0x4850	08 00 00 00 2e 43 52 54 24 58 49 41 00 00 00 00 	0000.CRT$XIA0000
  0x4860	f0 43 00 00 08 00 00 00 2e 43 52 54 24 58 49 41 	0C000000.CRT$XIA
  0x4870	41 00 00 00 f8 43 00 00 08 00 00 00 2e 43 52 54 	A0000C000000.CRT
  0x4880	24 58 49 59 00 00 00 00 00 44 00 00 08 00 00 00 	$XIY00000D000000
  0x4890	2e 43 52 54 24 58 49 5a 00 00 00 00 08 44 00 00 	.CRT$XIZ00000D00
  0x48a0	28 00 00 00 2e 67 66 69 64 73 00 00 30 44 00 00 	(000.gfids000D00
  0x48b0	44 03 00 00 2e 72 64 61 74 61 00 00 74 47 00 00 	D000.rdata00tG00
  0x48c0	3c 02 00 00 2e 72 64 61 74 61 24 7a 7a 7a 64 62 	<000.rdata$zzzdb
  0x48d0	67 00 00 00 b0 49 00 00 6c 02 00 00 2e 78 64 61 	g0000I00l000.xda
  0x48e0	74 61 00 00 1c 4c 00 00 40 01 00 00 2e 69 64 61 	ta000L00@000.ida
  0x48f0	74 61 24 32 00 00 00 00 5c 4d 00 00 14 00 00 00 	ta$200000M000000
  0x4900	2e 69 64 61 74 61 24 33 00 00 00 00 70 4d 00 00 	.idata$30000pM00
  0x4910	98 02 00 00 2e 69 64 61 74 61 24 34 00 00 00 00 	0000.idata$40000
  0x4920	08 50 00 00 b4 06 00 00 2e 69 64 61 74 61 24 36 	0P000000.idata$6
  0x4930	00 00 00 00 00 60 00 00 30 00 00 00 2e 64 61 74 	00000`000000.dat
  0x4940	61 00 00 00 30 60 00 00 08 07 00 00 2e 62 73 73 	a0000`000000.bss
  0x4950	00 00 00 00 00 70 00 00 f8 01 00 00 2e 70 64 61 	00000p000000.pda
  0x4960	74 61 00 00 00 80 00 00 20 02 00 00 2e 72 73 72 	ta000000 000.rsr
  0x4970	63 24 30 31 00 00 00 00 20 82 00 00 10 2f 00 00 	c$010000 0000/00
  0x4980	2e 72 73 72 63 24 30 32 00 00 00 00 20 00 00 00 	.rsrc$020000 000
  0x4990	72 7d bf 83 bb 1e d8 e1 61 43 08 bc 86 34 39 1e 	r}000000aC000490
  0x49a0	4f ca a8 0d 57 92 b5 3c da 97 26 81 50 eb 22 13 	O000W00<00&0P0"0
  0x49b0	01 19 0a 00 19 74 09 00 19 64 08 00 19 54 07 00 	00000t000d000T00
  0x49c0	19 34 06 00 19 32 15 e0 19 2e 0b 00 1c e4 1b 00 	040002000.000000
  0x49d0	1c 74 1a 00 1c 64 19 00 1c 34 18 00 1c 01 16 00 	0t000d0004000000
  0x49e0	15 f0 00 00 10 31 00 00 01 00 00 00 3d 13 00 00 	000001000000=000
  0x49f0	cc 13 00 00 01 00 00 00 cc 13 00 00 a1 00 00 00 	0000000000000000
  0x4a00	01 0a 04 00 0a 34 06 00 0a 32 06 70 19 24 07 00 	00000400020p0$00
  0x4a10	12 64 51 00 12 34 50 00 12 01 4c 00 0b 70 00 00 	0dQ004P000L00p00
  0x4a20	88 30 00 00 50 02 00 00 01 14 08 00 14 64 0b 00 	0000P00000000d00
  0x4a30	14 54 0a 00 14 34 08 00 14 52 10 70 19 2f 09 00 	0T0004000R0p0/00
  0x4a40	1e e4 94 00 1e 74 93 00 1e 34 92 00 1e 01 90 00 	00000t0004000000
  0x4a50	10 50 00 00 88 30 00 00 70 04 00 00 19 24 07 00 	0P000000p0000$00
  0x4a60	12 64 4c 00 12 34 4a 00 12 01 48 00 0b 70 00 00 	0dL004J000H00p00
  0x4a70	88 30 00 00 30 02 00 00 01 06 02 00 06 72 02 30 	0000000000000r00
  0x4a80	19 1b 03 00 09 01 50 00 02 30 00 00 88 30 00 00 	000000P000000000
  0x4a90	70 02 00 00 01 04 01 00 04 42 00 00 01 05 02 00 	p00000000B000000
  0x4aa0	05 34 01 00 01 1b 0a 00 1b 74 15 00 1b 64 14 00 	040000000t000d00
  0x4ab0	1b 34 13 00 1b d2 14 f0 12 e0 10 50 19 20 09 00 	04000000000P0 00
  0x4ac0	11 c2 0d f0 0b e0 09 d0 07 c0 05 70 04 60 03 50 	00000000000p0`0P
  0x4ad0	02 30 00 00 88 30 00 00 58 00 00 00 01 14 08 00 	00000000X0000000
  0x4ae0	14 64 08 00 14 54 07 00 14 34 06 00 14 32 10 70 	0d000T000400020p
  0x4af0	01 15 08 00 15 74 08 00 15 64 07 00 15 34 06 00 	00000t000d000400
  0x4b00	15 32 11 e0 09 14 08 00 14 72 10 f0 0e e0 0c d0 	020000000r000000
  0x4b10	0a c0 08 70 07 60 06 30 70 2a 00 00 01 00 00 00 	000p0`00p*000000
  0x4b20	ac 21 00 00 d0 21 00 00 d0 31 00 00 d0 21 00 00 	0!000!0001000!00
  0x4b30	01 06 02 00 06 32 02 50 19 32 0b 00 21 64 52 00 	0000020P0200!dR0
  0x4b40	21 34 51 00 21 01 4a 00 12 f0 10 e0 0e c0 0c 70 	!4Q0!0J00000000p
  0x4b50	0b 50 00 00 88 30 00 00 40 02 00 00 01 0f 06 00 	0P000000@0000000
  0x4b60	0f 64 07 00 0f 34 06 00 0f 32 0b 70 01 04 01 00 	0d000400020p0000
  0x4b70	04 62 00 00 09 13 07 00 13 74 19 00 13 34 18 00 	0b0000000t000400
  0x4b80	13 01 16 00 0c e0 00 00 70 2a 00 00 01 00 00 00 	00000000p*000000
  0x4b90	4c 28 00 00 27 2a 00 00 1c 32 00 00 27 2a 00 00 	L(00'*000200'*00
  0x4ba0	01 00 00 00 09 04 01 00 04 22 00 00 70 2a 00 00 	000000000"00p*00
  0x4bb0	01 00 00 00 3c 2b 00 00 72 2b 00 00 01 00 00 00 	0000<+00r+000000
  0x4bc0	72 2b 00 00 01 06 02 00 06 32 02 30 09 0a 04 00 	r+00000002000000
  0x4bd0	0a 34 06 00 0a 32 06 70 70 2a 00 00 01 00 00 00 	0400020pp*000000
  0x4be0	4d 2c 00 00 80 2c 00 00 40 32 00 00 80 2c 00 00 	M,000,00@2000,00
  0x4bf0	01 0d 04 00 0d 34 09 00 0d 32 06 50 01 04 01 00 	00000400020P0000
  0x4c00	04 e2 00 00 01 0c 02 00 0c 01 11 00 00 00 00 00 	0000000000000000
  0x4c10	01 00 00 00 01 02 01 00 02 30 00 00 08 4f 00 00 	0000000000000O00
  0x4c20	00 00 00 00 00 00 00 00 d0 50 00 00 c0 42 00 00 	000000000P000B00
  0x4c30	b0 4f 00 00 00 00 00 00 00 00 00 00 4a 51 00 00 	0O0000000000JQ00
  0x4c40	68 43 00 00 38 4e 00 00 00 00 00 00 00 00 00 00 	hC008N0000000000
  0x4c50	ca 52 00 00 f0 41 00 00 80 4d 00 00 00 00 00 00 	0R000A000M000000
  0x4c60	00 00 00 00 f8 52 00 00 38 41 00 00 28 4e 00 00 	00000R008A00(N00
  0x4c70	00 00 00 00 00 00 00 00 22 53 00 00 e0 41 00 00 	00000000"S000A00
  0x4c80	e0 4d 00 00 00 00 00 00 00 00 00 00 4c 53 00 00 	0M0000000000LS00
  0x4c90	98 41 00 00 08 4e 00 00 00 00 00 00 00 00 00 00 	0A000N0000000000
  0x4ca0	6c 53 00 00 c0 41 00 00 50 4e 00 00 00 00 00 00 	lS000A00PN000000
  0x4cb0	00 00 00 00 96 53 00 00 08 42 00 00 b8 4e 00 00 	00000S000B000N00
  0x4cc0	00 00 00 00 00 00 00 00 c0 53 00 00 70 42 00 00 	000000000S00pB00
  0x4cd0	88 4e 00 00 00 00 00 00 00 00 00 00 e2 53 00 00 	0N00000000000S00
  0x4ce0	40 42 00 00 c8 4e 00 00 00 00 00 00 00 00 00 00 	@B000N0000000000
  0x4cf0	06 54 00 00 80 42 00 00 70 4d 00 00 00 00 00 00 	0T000B00pM000000
  0x4d00	00 00 00 00 40 54 00 00 28 41 00 00 98 4e 00 00 	0000@T00(A000N00
  0x4d10	00 00 00 00 00 00 00 00 2a 56 00 00 50 42 00 00 	00000000*V00PB00
  0x4d20	d0 4d 00 00 00 00 00 00 00 00 00 00 4c 56 00 00 	0M0000000000LV00
  0x4d30	88 41 00 00 e8 4e 00 00 00 00 00 00 00 00 00 00 	0A000N0000000000
  0x4d40	6e 56 00 00 a0 42 00 00 b0 4d 00 00 00 00 00 00 	nV000B000M000000
  0x4d50	00 00 00 00 92 56 00 00 68 41 00 00 00 00 00 00 	00000V00hA000000
  0x4d60	00 00 00 00 00 00 00 00 00 00 00 00 00 00 00 00 	0000000000000000
  0x4d70	2a 54 00 00 00 00 00 00 00 00 00 00 00 00 00 00 	*T00000000000000
  0x4d80	e4 51 00 00 00 00 00 00 44 55 00 00 00 00 00 00 	0Q000000DU000000
  0x4d90	66 51 00 00 00 00 00 00 72 55 00 00 00 00 00 00 	fQ000000rU000000
  0x4da0	86 52 00 00 00 00 00 00 00 00 00 00 00 00 00 00 	0R00000000000000
  0x4db0	c2 55 00 00 00 00 00 00 d6 55 00 00 00 00 00 00 	0U0000000U000000
  0x4dc0	ec 55 00 00 00 00 00 00 00 00 00 00 00 00 00 00 	0U00000000000000
  0x4dd0	0e 55 00 00 00 00 00 00 00 00 00 00 00 00 00 00 	0U00000000000000
  0x4de0	18 56 00 00 00 00 00 00 86 51 00 00 00 00 00 00 	0V0000000Q000000
  0x4df0	0c 56 00 00 00 00 00 00 00 56 00 00 00 00 00 00 	0V0000000V000000
  0x4e00	00 00 00 00 00 00 00 00 bc 51 00 00 00 00 00 00 	000000000Q000000
  0x4e10	02 52 00 00 00 00 00 00 9c 51 00 00 00 00 00 00 	0R0000000Q000000
  0x4e20	00 00 00 00 00 00 00 00 76 51 00 00 00 00 00 00 	00000000vQ000000
  0x4e30	00 00 00 00 00 00 00 00 28 55 00 00 00 00 00 00 	00000000(U000000
  0x4e40	54 51 00 00 00 00 00 00 00 00 00 00 00 00 00 00 	TQ00000000000000
  0x4e50	ae 51 00 00 00 00 00 00 b6 52 00 00 00 00 00 00 	0Q0000000R000000
  0x4e60	a2 52 00 00 00 00 00 00 46 52 00 00 00 00 00 00 	0R000000FR000000
  0x4e70	30 52 00 00 00 00 00 00 d2 51 00 00 00 00 00 00 	0R0000000Q000000
  0x4e80	00 00 00 00 00 00 00 00 16 52 00 00 00 00 00 00 	000000000R000000
  0x4e90	00 00 00 00 00 00 00 00 e6 54 00 00 00 00 00 00 	000000000T000000
  0x4ea0	1c 55 00 00 00 00 00 00 f6 54 00 00 00 00 00 00 	0U0000000T000000
  0x4eb0	00 00 00 00 00 00 00 00 ca 51 00 00 00 00 00 00 	000000000Q000000
  0x4ec0	00 00 00 00 00 00 00 00 54 55 00 00 00 00 00 00 	00000000TU000000
  0x4ed0	5c 52 00 00 00 00 00 00 76 52 00 00 00 00 00 00 	0R000000vR000000
  0x4ee0	00 00 00 00 00 00 00 00 b8 55 00 00 00 00 00 00 	000000000U000000
  0x4ef0	84 55 00 00 00 00 00 00 a0 55 00 00 00 00 00 00 	0U0000000U000000
  0x4f00	00 00 00 00 00 00 00 00 dc 50 00 00 00 00 00 00 	000000000P000000
  0x4f10	c4 50 00 00 00 00 00 00 ba 50 00 00 00 00 00 00 	0P0000000P000000
  0x4f20	08 50 00 00 00 00 00 00 66 54 00 00 00 00 00 00 	0P000000fT000000
  0x4f30	5c 54 00 00 00 00 00 00 a4 50 00 00 00 00 00 00 	0T0000000P000000
  0x4f40	90 50 00 00 00 00 00 00 4c 54 00 00 00 00 00 00 	0P000000LT000000
  0x4f50	82 50 00 00 00 00 00 00 78 50 00 00 00 00 00 00 	0P000000xP000000
  0x4f60	70 50 00 00 00 00 00 00 68 50 00 00 00 00 00 00 	pP000000hP000000
  0x4f70	56 50 00 00 00 00 00 00 46 50 00 00 00 00 00 00 	VP000000FP000000
  0x4f80	38 50 00 00 00 00 00 00 2a 50 00 00 00 00 00 00 	8P000000*P000000
  0x4f90	20 50 00 00 00 00 00 00 b0 50 00 00 00 00 00 00 	 P0000000P000000
  0x4fa0	b2 56 00 00 00 00 00 00 00 00 00 00 00 00 00 00 	0V00000000000000
  0x4fb0	d4 54 00 00 00 00 00 00 c8 54 00 00 00 00 00 00 	0T0000000T000000
  0x4fc0	b0 54 00 00 00 00 00 00 a6 54 00 00 00 00 00 00 	0T0000000T000000
  0x4fd0	8e 54 00 00 00 00 00 00 70 54 00 00 00 00 00 00 	0T000000pT000000
  0x4fe0	36 51 00 00 00 00 00 00 1c 51 00 00 00 00 00 00 	6Q0000000Q000000
  0x4ff0	08 51 00 00 00 00 00 00 f0 50 00 00 00 00 00 00 	0Q0000000P000000
  0x5000	00 00 00 00 00 00 00 00 57 00 5f 5f 43 5f 73 70 	00000000W0__C_sp
  0x5010	65 63 69 66 69 63 5f 68 61 6e 64 6c 65 72 00 00 	ecific_handler00
  0x5020	dd 04 73 77 73 63 61 6e 66 00 55 00 5f 58 63 70 	00swscanf0U0_Xcp
  0x5030	74 46 69 6c 74 65 72 00 ae 00 5f 61 6d 73 67 5f 	tFilter000_amsg_
  0x5040	65 78 69 74 00 00 7f 00 5f 5f 67 65 74 6d 61 69 	exit0000__getmai
  0x5050	6e 61 72 67 73 00 8e 00 5f 5f 73 65 74 5f 61 70 	nargs000__set_ap
  0x5060	70 5f 74 79 70 65 00 00 32 04 65 78 69 74 00 00 	p_type0020exit00
  0x5070	0e 01 5f 65 78 69 74 00 c1 00 5f 63 65 78 69 74 	00_exit000_cexit
  0x5080	00 00 99 01 5f 69 73 6d 62 62 6c 65 61 64 00 00 	0000_ismbblead00
  0x5090	90 00 5f 5f 73 65 74 75 73 65 72 6d 61 74 68 65 	00__setusermathe
  0x50a0	72 72 00 00 7d 01 5f 69 6e 69 74 74 65 72 6d 00 	rr00}0_initterm0
  0x50b0	a2 00 5f 61 63 6d 64 6c 6e 00 27 01 5f 66 6d 6f 	00_acmdln0'0_fmo
  0x50c0	64 65 00 00 d2 00 5f 63 6f 6d 6d 6f 64 65 00 00 	de0000_commode00
  0x50d0	6d 73 76 63 72 74 2e 64 6c 6c 00 00 2f 00 3f 74 	msvcrt.dll00/0?t
  0x50e0	65 72 6d 69 6e 61 74 65 40 40 59 41 58 58 5a 00 	erminate@@YAXXZ0
  0x50f0	fd 04 52 74 6c 4e 74 53 74 61 74 75 73 54 6f 44 	00RtlNtStatusToD
  0x5100	6f 73 45 72 72 6f 72 00 f2 02 52 74 6c 43 61 70 	osError000RtlCap
  0x5110	74 75 72 65 43 6f 6e 74 65 78 74 00 e8 04 52 74 	tureContext000Rt
  0x5120	6c 4c 6f 6f 6b 75 70 46 75 6e 63 74 69 6f 6e 45 	lLookupFunctionE
  0x5130	6e 74 72 79 00 00 27 06 52 74 6c 56 69 72 74 75 	ntry00'0RtlVirtu
  0x5140	61 6c 55 6e 77 69 6e 64 00 00 6e 74 64 6c 6c 2e 	alUnwind00ntdll.
  0x5150	64 6c 6c 00 05 00 47 65 74 43 6f 6d 6d 61 6e 64 	dll000GetCommand
  0x5160	4c 69 6e 65 57 00 05 00 47 65 74 4c 61 73 74 45 	LineW000GetLastE
  0x5170	72 72 6f 72 00 00 19 00 4c 6f 61 64 4c 69 62 72 	rror0000LoadLibr
  0x5180	61 72 79 57 00 00 0a 00 48 65 61 70 53 65 74 49 	aryW0000HeapSetI
  0x5190	6e 66 6f 72 6d 61 74 69 6f 6e 00 00 15 00 47 65 	nformation0000Ge
  0x51a0	74 50 72 6f 63 41 64 64 72 65 73 73 00 00 08 00 	tProcAddress0000
  0x51b0	45 78 69 74 50 72 6f 63 65 73 73 00 0c 00 46 72 	ExitProcess000Fr
  0x51c0	65 65 4c 69 62 72 61 72 79 00 2d 00 53 6c 65 65 	eeLibrary0-0Slee
  0x51d0	70 00 20 00 47 65 74 53 74 61 72 74 75 70 49 6e 	p0 0GetStartupIn
  0x51e0	66 6f 57 00 0f 00 53 65 74 55 6e 68 61 6e 64 6c 	foW000SetUnhandl
  0x51f0	65 64 45 78 63 65 70 74 69 6f 6e 46 69 6c 74 65 	edExceptionFilte
  0x5200	72 00 14 00 47 65 74 4d 6f 64 75 6c 65 48 61 6e 	r000GetModuleHan
  0x5210	64 6c 65 57 00 00 00 00 51 75 65 72 79 50 65 72 	dleW0000QueryPer
  0x5220	66 6f 72 6d 61 6e 63 65 43 6f 75 6e 74 65 72 00 	formanceCounter0
  0x5230	0d 00 47 65 74 43 75 72 72 65 6e 74 50 72 6f 63 	00GetCurrentProc
  0x5240	65 73 73 49 64 00 11 00 47 65 74 43 75 72 72 65 	essId000GetCurre
  0x5250	6e 74 54 68 72 65 61 64 49 64 00 00 16 00 47 65 	ntThreadId0000Ge
  0x5260	74 53 79 73 74 65 6d 54 69 6d 65 41 73 46 69 6c 	tSystemTimeAsFil
  0x5270	65 54 69 6d 65 00 1a 00 47 65 74 54 69 63 6b 43 	eTime000GetTickC
  0x5280	6f 75 6e 74 00 00 11 00 55 6e 68 61 6e 64 6c 65 	ount0000Unhandle
  0x5290	64 45 78 63 65 70 74 69 6f 6e 46 69 6c 74 65 72 	dExceptionFilter
  0x52a0	00 00 0c 00 47 65 74 43 75 72 72 65 6e 74 50 72 	0000GetCurrentPr
  0x52b0	6f 63 65 73 73 00 4e 00 54 65 72 6d 69 6e 61 74 	ocess0N0Terminat
  0x52c0	65 50 72 6f 63 65 73 73 00 00 61 70 69 2d 6d 73 	eProcess00api-ms
  0x52d0	2d 77 69 6e 2d 63 6f 72 65 2d 70 72 6f 63 65 73 	-win-core-proces
  0x52e0	73 65 6e 76 69 72 6f 6e 6d 65 6e 74 2d 6c 31 2d 	senvironment-l1-
  0x52f0	31 2d 30 2e 64 6c 6c 00 61 70 69 2d 6d 73 2d 77 	1-0.dll0api-ms-w
  0x5300	69 6e 2d 63 6f 72 65 2d 65 72 72 6f 72 68 61 6e 	in-core-errorhan
  0x5310	64 6c 69 6e 67 2d 6c 31 2d 31 2d 30 2e 64 6c 6c 	dling-l1-1-0.dll
  0x5320	00 00 61 70 69 2d 6d 73 2d 77 69 6e 2d 63 6f 72 	00api-ms-win-cor
  0x5330	65 2d 6c 69 62 72 61 72 79 6c 6f 61 64 65 72 2d 	e-libraryloader-
  0x5340	6c 31 2d 32 2d 31 2e 64 6c 6c 00 00 61 70 69 2d 	l1-2-1.dll00api-
  0x5350	6d 73 2d 77 69 6e 2d 63 6f 72 65 2d 68 65 61 70 	ms-win-core-heap
  0x5360	2d 6c 31 2d 31 2d 30 2e 64 6c 6c 00 61 70 69 2d 	-l1-1-0.dll0api-
  0x5370	6d 73 2d 77 69 6e 2d 63 6f 72 65 2d 6c 69 62 72 	ms-win-core-libr
  0x5380	61 72 79 6c 6f 61 64 65 72 2d 6c 31 2d 32 2d 30 	aryloader-l1-2-0
  0x5390	2e 64 6c 6c 00 00 61 70 69 2d 6d 73 2d 77 69 6e 	.dll00api-ms-win
  0x53a0	2d 63 6f 72 65 2d 70 72 6f 63 65 73 73 74 68 72 	-core-processthr
  0x53b0	65 61 64 73 2d 6c 31 2d 31 2d 30 2e 64 6c 6c 00 	eads-l1-1-0.dll0
  0x53c0	61 70 69 2d 6d 73 2d 77 69 6e 2d 63 6f 72 65 2d 	api-ms-win-core-
  0x53d0	73 79 6e 63 68 2d 6c 31 2d 32 2d 30 2e 64 6c 6c 	synch-l1-2-0.dll
  0x53e0	00 00 61 70 69 2d 6d 73 2d 77 69 6e 2d 63 6f 72 	00api-ms-win-cor
  0x53f0	65 2d 70 72 6f 66 69 6c 65 2d 6c 31 2d 31 2d 30 	e-profile-l1-1-0
  0x5400	2e 64 6c 6c 00 00 61 70 69 2d 6d 73 2d 77 69 6e 	.dll00api-ms-win
  0x5410	2d 63 6f 72 65 2d 73 79 73 69 6e 66 6f 2d 6c 31 	-core-sysinfo-l1
  0x5420	2d 31 2d 30 2e 64 6c 6c 00 00 08 00 43 6f 6d 6d 	-1-0.dll0000Comm
  0x5430	61 6e 64 4c 69 6e 65 54 6f 41 72 67 76 57 00 00 	andLineToArgvW00
  0x5440	53 48 45 4c 4c 33 32 2e 64 6c 6c 00 a8 02 5f 72 	SHELL32.dll000_r
  0x5450	65 73 65 74 73 74 6b 6f 66 6c 77 00 01 05 77 63 	esetstkoflw000wc
  0x5460	73 63 68 72 00 00 10 05 77 63 73 72 63 68 72 00 	schr0000wcsrchr0
  0x5470	ef 03 52 74 6c 46 6f 72 6d 61 74 43 75 72 72 65 	00RtlFormatCurre
  0x5480	6e 74 55 73 65 72 4b 65 79 50 61 74 68 00 fc 03 	ntUserKeyPath000
  0x5490	52 74 6c 46 72 65 65 55 6e 69 63 6f 64 65 53 74 	RtlFreeUnicodeSt
  0x54a0	72 69 6e 67 00 00 fd 00 4e 74 43 6c 6f 73 65 00 	ring0000NtClose0
  0x54b0	6e 04 52 74 6c 49 6e 69 74 55 6e 69 63 6f 64 65 	n0RtlInitUnicode
  0x54c0	53 74 72 69 6e 67 00 00 a2 01 4e 74 4f 70 65 6e 	String0000NtOpen
  0x54d0	4b 65 79 00 fd 01 4e 74 51 75 65 72 79 56 61 6c 	Key000NtQueryVal
  0x54e0	75 65 4b 65 79 00 06 00 43 72 65 61 74 65 45 76 	ueKey000CreateEv
  0x54f0	65 6e 74 57 00 00 37 00 57 61 69 74 46 6f 72 53 	entW0070WaitForS
  0x5500	69 6e 67 6c 65 4f 62 6a 65 63 74 45 78 00 00 00 	ingleObjectEx000
  0x5510	43 6c 6f 73 65 48 61 6e 64 6c 65 00 29 00 53 65 	CloseHandle0)0Se
  0x5520	74 45 76 65 6e 74 00 00 01 00 45 78 70 61 6e 64 	tEvent0000Expand
  0x5530	45 6e 76 69 72 6f 6e 6d 65 6e 74 53 74 72 69 6e 	EnvironmentStrin
  0x5540	67 73 57 00 0d 00 53 65 74 4c 61 73 74 45 72 72 	gsW000SetLastErr
  0x5550	6f 72 00 00 19 00 47 65 74 53 79 73 74 65 6d 57 	or0000GetSystemW
  0x5560	69 6e 64 6f 77 73 44 69 72 65 63 74 6f 72 79 57 	indowsDirectoryW
  0x5570	00 00 07 00 52 61 69 73 65 45 78 63 65 70 74 69 	0000RaiseExcepti
  0x5580	6f 6e 00 00 16 00 41 6c 6c 6f 63 61 74 65 41 6e 	on0000AllocateAn
  0x5590	64 49 6e 69 74 69 61 6c 69 7a 65 53 69 64 00 00 	dInitializeSid00
  0x55a0	1b 00 43 68 65 63 6b 54 6f 6b 65 6e 4d 65 6d 62 	00CheckTokenMemb
  0x55b0	65 72 73 68 69 70 00 00 2e 00 46 72 65 65 53 69 	ership00.0FreeSi
  0x55c0	64 00 35 00 47 65 74 46 75 6c 6c 50 61 74 68 4e 	d050GetFullPathN
  0x55d0	61 6d 65 57 00 00 2c 00 47 65 74 46 69 6c 65 41 	ameW00,0GetFileA
  0x55e0	74 74 72 69 62 75 74 65 73 57 00 00 03 00 43 72 	ttributesW0000Cr
  0x55f0	65 61 74 65 44 69 72 65 63 74 6f 72 79 57 00 00 	eateDirectoryW00
  0x5600	02 00 48 65 61 70 41 6c 6c 6f 63 00 06 00 48 65 	00HeapAlloc000He
  0x5610	61 70 46 72 65 65 00 00 00 00 47 65 74 50 72 6f 	apFree0000GetPro
  0x5620	63 65 73 73 48 65 61 70 00 00 61 70 69 2d 6d 73 	cessHeap00api-ms
  0x5630	2d 77 69 6e 2d 63 6f 72 65 2d 73 79 6e 63 68 2d 	-win-core-synch-
  0x5640	6c 31 2d 31 2d 30 2e 64 6c 6c 00 00 61 70 69 2d 	l1-1-0.dll00api-
  0x5650	6d 73 2d 77 69 6e 2d 63 6f 72 65 2d 68 61 6e 64 	ms-win-core-hand
  0x5660	6c 65 2d 6c 31 2d 31 2d 30 2e 64 6c 6c 00 61 70 	le-l1-1-0.dll0ap
  0x5670	69 2d 6d 73 2d 77 69 6e 2d 73 65 63 75 72 69 74 	i-ms-win-securit
  0x5680	79 2d 62 61 73 65 2d 6c 31 2d 31 2d 30 2e 64 6c 	y-base-l1-1-0.dl
  0x5690	6c 00 61 70 69 2d 6d 73 2d 77 69 6e 2d 63 6f 72 	l0api-ms-win-cor
  0x56a0	65 2d 66 69 6c 65 2d 6c 31 2d 31 2d 30 2e 64 6c 	e-file-l1-1-0.dl
  0x56b0	6c 00 92 04 6d 65 6d 63 70 79 00 00 00 00 00 00 	l000memcpy000000
  0x56c0	00 00 00 00 00 00 00 00 00 00 00 00 00 00 00 00 	0000000000000000
  0x56d0	00 00 00 00 00 00 00 00 00 00 00 00 00 00 00 00 	0000000000000000
  0x56e0	00 00 00 00 00 00 00 00 00 00 00 00 00 00 00 00 	0000000000000000
  0x56f0	00 00 00 00 00 00 00 00 00 00 00 00 00 00 00 00 	0000000000000000
  0x5700	00 00 00 00 00 00 00 00 00 00 00 00 00 00 00 00 	0000000000000000
  0x5710	00 00 00 00 00 00 00 00 00 00 00 00 00 00 00 00 	0000000000000000
  0x5720	00 00 00 00 00 00 00 00 00 00 00 00 00 00 00 00 	0000000000000000
  0x5730	00 00 00 00 00 00 00 00 00 00 00 00 00 00 00 00 	0000000000000000
  0x5740	00 00 00 00 00 00 00 00 00 00 00 00 00 00 00 00 	0000000000000000
  0x5750	00 00 00 00 00 00 00 00 00 00 00 00 00 00 00 00 	0000000000000000
  0x5760	00 00 00 00 00 00 00 00 00 00 00 00 00 00 00 00 	0000000000000000
  0x5770	00 00 00 00 00 00 00 00 00 00 00 00 00 00 00 00 	0000000000000000
  0x5780	00 00 00 00 00 00 00 00 00 00 00 00 00 00 00 00 	0000000000000000
  0x5790	00 00 00 00 00 00 00 00 00 00 00 00 00 00 00 00 	0000000000000000
  0x57a0	00 00 00 00 00 00 00 00 00 00 00 00 00 00 00 00 	0000000000000000
  0x57b0	00 00 00 00 00 00 00 00 00 00 00 00 00 00 00 00 	0000000000000000
  0x57c0	00 00 00 00 00 00 00 00 00 00 00 00 00 00 00 00 	0000000000000000
  0x57d0	00 00 00 00 00 00 00 00 00 00 00 00 00 00 00 00 	0000000000000000
  0x57e0	00 00 00 00 00 00 00 00 00 00 00 00 00 00 00 00 	0000000000000000
  0x57f0	00 00 00 00 00 00 00 00 00 00 00 00 00 00 00 00 	0000000000000000
=== DATA BLOCK END ===

=== DATA BLOCK ADDRESS 0x6000 ===
  0x6000	01 00 00 00 00 00 00 00 32 a2 df 2d 99 2b 00 00 	00000000200-0+00
  0x6010	cd 5d 20 d2 66 d4 ff ff 00 00 00 00 00 00 00 00 	0] 0f00000000000
  0x6020	01 00 00 00 00 00 00 00 00 00 00 00 00 00 00 00 	0000000000000000
  0x6030	00 00 00 00 00 00 00 00 00 00 00 00 00 00 00 00 	0000000000000000
  0x6040	00 00 00 00 00 00 00 00 00 00 00 00 00 00 00 00 	0000000000000000
  0x6050	00 00 00 00 00 00 00 00 00 00 00 00 00 00 00 00 	0000000000000000
  0x6060	00 00 00 00 00 00 00 00 00 00 00 00 00 00 00 00 	0000000000000000
  0x6070	00 00 00 00 00 00 00 00 00 00 00 00 00 00 00 00 	0000000000000000
  0x6080	00 00 00 00 00 00 00 00 00 00 00 00 00 00 00 00 	0000000000000000
  0x6090	00 00 00 00 00 00 00 00 00 00 00 00 00 00 00 00 	0000000000000000
  0x60a0	00 00 00 00 00 00 00 00 00 00 00 00 00 00 00 00 	0000000000000000
  0x60b0	00 00 00 00 00 00 00 00 00 00 00 00 00 00 00 00 	0000000000000000
  0x60c0	00 00 00 00 00 00 00 00 00 00 00 00 00 00 00 00 	0000000000000000
  0x60d0	00 00 00 00 00 00 00 00 00 00 00 00 00 00 00 00 	0000000000000000
  0x60e0	00 00 00 00 00 00 00 00 00 00 00 00 00 00 00 00 	0000000000000000
  0x60f0	00 00 00 00 00 00 00 00 00 00 00 00 00 00 00 00 	0000000000000000
  0x6100	00 00 00 00 00 00 00 00 00 00 00 00 00 00 00 00 	0000000000000000
  0x6110	00 00 00 00 00 00 00 00 00 00 00 00 00 00 00 00 	0000000000000000
  0x6120	00 00 00 00 00 00 00 00 00 00 00 00 00 00 00 00 	0000000000000000
  0x6130	00 00 00 00 00 00 00 00 00 00 00 00 00 00 00 00 	0000000000000000
  0x6140	00 00 00 00 00 00 00 00 00 00 00 00 00 00 00 00 	0000000000000000
  0x6150	00 00 00 00 00 00 00 00 00 00 00 00 00 00 00 00 	0000000000000000
  0x6160	00 00 00 00 00 00 00 00 00 00 00 00 00 00 00 00 	0000000000000000
  0x6170	00 00 00 00 00 00 00 00 00 00 00 00 00 00 00 00 	0000000000000000
  0x6180	00 00 00 00 00 00 00 00 00 00 00 00 00 00 00 00 	0000000000000000
  0x6190	00 00 00 00 00 00 00 00 00 00 00 00 00 00 00 00 	0000000000000000
  0x61a0	00 00 00 00 00 00 00 00 00 00 00 00 00 00 00 00 	0000000000000000
  0x61b0	00 00 00 00 00 00 00 00 00 00 00 00 00 00 00 00 	0000000000000000
  0x61c0	00 00 00 00 00 00 00 00 00 00 00 00 00 00 00 00 	0000000000000000
  0x61d0	00 00 00 00 00 00 00 00 00 00 00 00 00 00 00 00 	0000000000000000
  0x61e0	00 00 00 00 00 00 00 00 00 00 00 00 00 00 00 00 	0000000000000000
  0x61f0	00 00 00 00 00 00 00 00 00 00 00 00 00 00 00 00 	0000000000000000
=== DATA BLOCK END ===

=== DATA BLOCK ADDRESS 0x7000 ===
  0x7000	08 10 00 00 be 10 00 00 b0 49 00 00 c4 10 00 00 	000000000I000000
  0x7010	f4 13 00 00 c8 49 00 00 fc 13 00 00 aa 14 00 00 	00000I0000000000
  0x7020	00 4a 00 00 f0 14 00 00 c8 15 00 00 0c 4a 00 00 	0J00000000000J00
  0x7030	d0 15 00 00 6d 16 00 00 28 4a 00 00 74 16 00 00 	0000m000(J00t000
  0x7040	36 18 00 00 3c 4a 00 00 3c 18 00 00 0b 19 00 00 	6000<J00<0000000
  0x7050	5c 4a 00 00 14 19 00 00 13 1a 00 00 78 4a 00 00 	0J0000000000xJ00
  0x7060	1c 1a 00 00 f5 1a 00 00 80 4a 00 00 fc 1a 00 00 	000000000J000000
  0x7070	53 1b 00 00 94 4a 00 00 5c 1b 00 00 df 1b 00 00 	S0000J0000000000
  0x7080	9c 4a 00 00 e8 1b 00 00 b4 1c 00 00 78 4a 00 00 	0J0000000000xJ00
  0x7090	bc 1c 00 00 ad 1d 00 00 a4 4a 00 00 b4 1d 00 00 	000000000J000000
  0x70a0	07 1f 00 00 bc 4a 00 00 10 1f 00 00 ac 1f 00 00 	00000J0000000000
  0x70b0	dc 4a 00 00 b4 1f 00 00 b7 20 00 00 f0 4a 00 00 	0J0000000 000J00
  0x70c0	c0 20 00 00 2b 22 00 00 04 4b 00 00 34 22 00 00 	0 00+"000K004"00
  0x70d0	5f 24 00 00 38 4b 00 00 68 24 00 00 41 25 00 00 	_$008K00h$00A%00
  0x70e0	5c 4b 00 00 48 25 00 00 d2 25 00 00 94 4a 00 00 	0K00H%000%000J00
  0x70f0	d8 25 00 00 cb 26 00 00 00 4a 00 00 e0 26 00 00 	0%000&000J000&00
  0x7100	b3 27 00 00 94 4a 00 00 c0 27 00 00 09 28 00 00 	0'000J000'000(00
  0x7110	6c 4b 00 00 10 28 00 00 22 28 00 00 94 4a 00 00 	lK000(00"(000J00
  0x7120	28 28 00 00 6a 2a 00 00 74 4b 00 00 90 2a 00 00 	((00j*00tK000*00
  0x7130	ae 2a 00 00 a0 4b 00 00 c0 2a 00 00 f9 2a 00 00 	0*000K000*000*00
  0x7140	94 4a 00 00 00 2b 00 00 18 2b 00 00 94 4a 00 00 	0J000+000+000J00
  0x7150	2c 2b 00 00 80 2b 00 00 a4 4b 00 00 88 2b 00 00 	,+000+000K000+00
  0x7160	cd 2b 00 00 c4 4b 00 00 40 2c 00 00 8d 2c 00 00 	0+000K00@,000,00
  0x7170	cc 4b 00 00 d4 2c 00 00 a8 2d 00 00 f0 4b 00 00 	0K000,000-000K00
  0x7180	cc 2d 00 00 00 2e 00 00 c4 4b 00 00 10 2e 00 00 	0-000.000K000.00
  0x7190	81 2f 00 00 04 4c 00 00 88 2f 00 00 7f 30 00 00 	0/000L000/000000
  0x71a0	fc 4b 00 00 88 30 00 00 a5 30 00 00 94 4a 00 00 	0K00000000000J00
  0x71b0	ac 30 00 00 07 31 00 00 14 4c 00 00 10 31 00 00 	000001000L000100
  0x71c0	96 31 00 00 b0 49 00 00 c0 31 00 00 c2 31 00 00 	01000I0001000100
  0x71d0	10 4c 00 00 d0 31 00 00 16 32 00 00 30 4b 00 00 	0L00010002000K00
  0x71e0	1c 32 00 00 3a 32 00 00 30 4b 00 00 40 32 00 00 	0200:2000K00@200
  0x71f0	60 32 00 00 30 4b 00 00 00 00 00 00 00 00 00 00 	`2000K0000000000
=== DATA BLOCK END ===
