===== Assembly blocks =====

=== CODE BLOCK ADDRESS 0x1000 ===
  0x1000	int3   	
  0x1001	int3   	
  0x1002	int3   	
  0x1003	int3   	
  0x1004	int3   	
  === BLOCK LINK ===
    0x1005
=== CODE BLOCK END ===

=== CODE BLOCK ADDRESS 0x1005 ===
  0x1005	int3   	
  0x1006	int3   	
  0x1007	int3   	
  0x1008	int3   	
  0x1009	int3   	
  === BLOCK LINK ===
    0x100a
=== CODE BLOCK END ===

=== CODE BLOCK ADDRESS 0x100a ===
  0x100a	int3   	
  0x100b	int3   	
  0x100c	int3   	
  0x100d	int3   	
  0x100e	int3   	
  === BLOCK LINK ===
    0x100f
=== CODE BLOCK END ===

=== CODE BLOCK ADDRESS 0x100f ===
  0x100f	int3   	
  0x1010	dec    	eax
  0x1011	mov    	dword ptr [esp + 8], ebx
  0x1015	push   	edi
  0x1016	dec    	eax
  === BLOCK LINK ===
    0x1017
=== CODE BLOCK END ===

=== CODE BLOCK ADDRESS 0x1017 ===
  0x1017	sub    	esp, 0x20
  0x101a	dec    	eax
  0x101b	mov    	edi, ecx
  0x101d	mov    	ebx, edx
  0x101f	dec    	eax
  === BLOCK LINK ===
    0x1020
=== CODE BLOCK END ===

=== CODE BLOCK ADDRESS 0x1020 ===
  0x1020	add    	ecx, 0x108
  0x1026	dec    	eax
  0x1027	call   	dword ptr [0x348b]
  === BLOCK LINK ===
    0x102d
=== CODE BLOCK END ===

=== CODE BLOCK ADDRESS 0x102d ===
  0x102d	nop    	dword ptr [eax + eax]
  0x1032	dec    	eax
  0x1033	mov    	ecx, edi
  0x1035	dec    	eax
  0x1036	call   	dword ptr [0x336c]
  === BLOCK LINK ===
    0x103c
=== CODE BLOCK END ===

=== CODE BLOCK ADDRESS 0x103c ===
  0x103c	nop    	dword ptr [eax + eax]
  0x1041	test   	bl, 1
  0x1044	je     	0x1069
  === BLOCK LINK ===
    0x1046
    0x1069
=== CODE BLOCK END ===

=== CODE BLOCK ADDRESS 0x1046 ===
  0x1046	dec    	eax
  0x1047	test   	edi, edi
  0x1049	je     	0x1069
  === BLOCK LINK ===
    0x104b
    0x1069
=== CODE BLOCK END ===

=== CODE BLOCK ADDRESS 0x104b ===
  0x104b	dec    	eax
  0x104d	mov    	ecx, dword ptr [0x60]
  0x1054	dec    	esp
  0x1055	mov    	eax, edi
  0x1057	xor    	edx, edx
  === BLOCK LINK ===
    0x1059
=== CODE BLOCK END ===

=== CODE BLOCK ADDRESS 0x1059 ===
  0x1059	dec    	eax
  0x105a	mov    	ecx, dword ptr [ecx + 0x30]
  0x105d	dec    	eax
  0x105e	call   	dword ptr [0x32f4]
  === BLOCK LINK ===
    0x1064
=== CODE BLOCK END ===

=== CODE BLOCK ADDRESS 0x1064 ===
  0x1064	nop    	dword ptr [eax + eax]
  === BLOCK LINK ===
    0x1069
=== CODE BLOCK END ===

=== CODE BLOCK ADDRESS 0x1071 ===
  0x1071	dec    	eax
  0x1072	add    	esp, 0x20
  0x1075	pop    	edi
  0x1076	ret    	
  0x1077	int3   	
  === BLOCK LINK ===
    0x1078
=== CODE BLOCK END ===

=== CODE BLOCK ADDRESS 0x1069 ===
  0x1069	dec    	eax
  0x106a	mov    	ebx, dword ptr [esp + 0x30]
  0x106e	dec    	eax
  0x106f	mov    	eax, edi
  === BLOCK LINK ===
    0x1071
=== CODE BLOCK END ===

=== CODE BLOCK ADDRESS 0x1078 ===
  0x1078	int3   	
  0x1079	int3   	
  0x107a	int3   	
  0x107b	int3   	
  0x107c	int3   	
  === BLOCK LINK ===
    0x107d
=== CODE BLOCK END ===

=== CODE BLOCK ADDRESS 0x107d ===
  0x107d	int3   	
  0x107e	int3   	
  0x107f	int3   	
  0x1080	dec    	eax
  0x1081	mov    	dword ptr [esp + 8], ebx
  === BLOCK LINK ===
    0x1085
=== CODE BLOCK END ===

=== CODE BLOCK ADDRESS 0x1085 ===
  0x1085	dec    	eax
  0x1086	mov    	dword ptr [esp + 0x10], edi
  0x108a	push   	ebp
  0x108b	dec    	eax
  0x108c	lea    	ebp, [esp - 0x57]
  === BLOCK LINK ===
    0x1090
=== CODE BLOCK END ===

=== CODE BLOCK ADDRESS 0x1090 ===
  0x1090	dec    	eax
  0x1091	sub    	esp, 0xb0
  0x1097	dec    	eax
  0x1098	lea    	ecx, [ebp + 0x27]
  0x109b	dec    	eax
  === BLOCK LINK ===
    0x109c
=== CODE BLOCK END ===

=== CODE BLOCK ADDRESS 0x109c ===
  0x109c	mov    	edi, edx
  0x109e	dec    	eax
  0x109f	call   	dword ptr [0x346b]
  === BLOCK LINK ===
    0x10a5
=== CODE BLOCK END ===

=== CODE BLOCK ADDRESS 0x10a5 ===
  0x10a5	nop    	dword ptr [eax + eax]
  0x10aa	dec    	eax
  0x10ab	lea    	ecx, [ebp - 9]
  0x10ae	dec    	eax
  0x10af	call   	dword ptr [0x345b]
  === BLOCK LINK ===
    0x10b5
=== CODE BLOCK END ===

=== CODE BLOCK ADDRESS 0x10b5 ===
  0x10b5	nop    	dword ptr [eax + eax]
  0x10ba	dec    	eax
  0x10bb	lea    	ecx, [ebp - 0x39]
  0x10be	dec    	eax
  0x10bf	call   	dword ptr [0x344b]
  === BLOCK LINK ===
    0x10c5
=== CODE BLOCK END ===

=== CODE BLOCK ADDRESS 0x10c5 ===
  0x10c5	nop    	dword ptr [eax + eax]
  0x10ca	dec    	eax
  0x10cb	call   	dword ptr [0x311f]
  === BLOCK LINK ===
    0x10d1
=== CODE BLOCK END ===

=== CODE BLOCK ADDRESS 0x10d1 ===
  0x10d1	nop    	dword ptr [eax + eax]
  0x10d6	xor    	bl, bl
  0x10d8	test   	al, al
  0x10da	je     	0x1164
  === BLOCK LINK ===
    0x10e0
    0x1164
=== CODE BLOCK END ===

=== CODE BLOCK ADDRESS 0x10e0 ===
  0x10e0	inc    	ecx
  0x10e1	or     	eax, 0xffffffff
  0x10e4	dec    	eax
  0x10e5	lea    	edx, [0x34e5]
  0x10eb	dec    	eax
  === BLOCK LINK ===
    0x10ec
=== CODE BLOCK END ===

=== CODE BLOCK ADDRESS 0x10ec ===
  0x10ec	lea    	ecx, [ebp - 0x39]
  0x10ef	dec    	eax
  0x10f0	call   	dword ptr [0x3292]
  === BLOCK LINK ===
    0x10f6
=== CODE BLOCK END ===

=== CODE BLOCK ADDRESS 0x10f6 ===
  0x10f6	nop    	dword ptr [eax + eax]
  0x10fb	test   	al, al
  0x10fd	je     	0x1166
  === BLOCK LINK ===
    0x10ff
    0x1166
=== CODE BLOCK END ===

=== CODE BLOCK ADDRESS 0x10ff ===
  0x10ff	dec    	eax
  0x1100	lea    	edx, [ebp + 0x27]
  0x1103	dec    	eax
  0x1104	mov    	ecx, edi
  0x1106	dec    	eax
  === BLOCK LINK ===
    0x1107
=== CODE BLOCK END ===

=== CODE BLOCK ADDRESS 0x1107 ===
  0x1107	call   	dword ptr [0x30eb]
  === BLOCK LINK ===
    0x110d
=== CODE BLOCK END ===

=== CODE BLOCK ADDRESS 0x110d ===
  0x110d	nop    	dword ptr [eax + eax]
  0x1112	test   	al, al
  0x1114	je     	0x1164
  === BLOCK LINK ===
    0x1116
    0x1164
=== CODE BLOCK END ===

=== CODE BLOCK ADDRESS 0x1116 ===
  0x1116	dec    	eax
  0x1117	lea    	edx, [ebp - 9]
  0x111a	dec    	eax
  0x111b	lea    	ecx, [ebp - 0x39]
  0x111e	dec    	eax
  === BLOCK LINK ===
    0x111f
=== CODE BLOCK END ===

=== CODE BLOCK ADDRESS 0x111f ===
  0x111f	call   	dword ptr [0x30d3]
  === BLOCK LINK ===
    0x1125
=== CODE BLOCK END ===

=== CODE BLOCK ADDRESS 0x1125 ===
  0x1125	nop    	dword ptr [eax + eax]
  0x112a	test   	al, al
  0x112c	je     	0x1164
  === BLOCK LINK ===
    0x112e
    0x1164
=== CODE BLOCK END ===

=== CODE BLOCK ADDRESS 0x112e ===
  0x112e	dec    	eax
  0x112f	lea    	edx, [ebp - 9]
  0x1132	dec    	eax
  0x1133	lea    	ecx, [ebp + 0x27]
  0x1136	dec    	eax
  === BLOCK LINK ===
    0x1137
=== CODE BLOCK END ===

=== CODE BLOCK ADDRESS 0x1137 ===
  0x1137	call   	dword ptr [0x325b]
  === BLOCK LINK ===
    0x113d
=== CODE BLOCK END ===

=== CODE BLOCK ADDRESS 0x113d ===
  0x113d	nop    	dword ptr [eax + eax]
  0x1142	test   	al, al
  0x1144	je     	0x1164
  === BLOCK LINK ===
    0x1146
    0x1164
=== CODE BLOCK END ===

=== CODE BLOCK ADDRESS 0x1146 ===
  0x1146	inc    	ecx
  0x1147	or     	ecx, 0xffffffff
  0x114a	dec    	eax
  0x114b	lea    	edx, [ebp - 0x39]
  0x114e	inc    	ebp
  === BLOCK LINK ===
    0x114f
=== CODE BLOCK END ===

=== CODE BLOCK ADDRESS 0x114f ===
  0x114f	xor    	eax, eax
  0x1151	dec    	eax
  0x1152	mov    	ecx, edi
  0x1154	dec    	eax
  0x1155	call   	dword ptr [0x3225]
  === BLOCK LINK ===
    0x115b
=== CODE BLOCK END ===

=== CODE BLOCK ADDRESS 0x115b ===
  0x115b	nop    	dword ptr [eax + eax]
  0x1160	test   	al, al
  0x1162	je     	0x1166
  === BLOCK LINK ===
    0x1164
    0x1166
=== CODE BLOCK END ===

=== CODE BLOCK ADDRESS 0x1164 ===
  0x1164	mov    	bl, 1
  === BLOCK LINK ===
    0x1166
=== CODE BLOCK END ===

=== CODE BLOCK ADDRESS 0x1171 ===
  0x1171	nop    	dword ptr [eax + eax]
  0x1176	dec    	eax
  0x1177	lea    	ecx, [ebp - 9]
  0x117a	dec    	eax
  0x117b	call   	dword ptr [0x3397]
  === BLOCK LINK ===
    0x1181
=== CODE BLOCK END ===

=== CODE BLOCK ADDRESS 0x1181 ===
  0x1181	nop    	dword ptr [eax + eax]
  0x1186	dec    	eax
  0x1187	lea    	ecx, [ebp + 0x27]
  0x118a	dec    	eax
  0x118b	call   	dword ptr [0x3387]
  === BLOCK LINK ===
    0x1191
=== CODE BLOCK END ===

=== CODE BLOCK ADDRESS 0x1191 ===
  0x1191	nop    	dword ptr [eax + eax]
  0x1196	dec    	esp
  0x1197	lea    	ebx, [esp + 0xb0]
  0x119e	mov    	al, bl
  0x11a0	dec    	ecx
  === BLOCK LINK ===
    0x11a1
=== CODE BLOCK END ===

=== CODE BLOCK ADDRESS 0x11a1 ===
  0x11a1	mov    	ebx, dword ptr [ebx + 0x10]
  0x11a4	dec    	ecx
  0x11a5	mov    	edi, dword ptr [ebx + 0x18]
  0x11a8	dec    	ecx
  0x11a9	mov    	esp, ebx
  === BLOCK LINK ===
    0x11ab
=== CODE BLOCK END ===

=== CODE BLOCK ADDRESS 0x11ab ===
  0x11ab	pop    	ebp
  0x11ac	ret    	
  0x11ad	int3   	
  0x11ae	int3   	
  0x11af	int3   	
  === BLOCK LINK ===
    0x11b0
=== CODE BLOCK END ===

=== CODE BLOCK ADDRESS 0x11b0 ===
  0x11b0	int3   	
  0x11b1	int3   	
  0x11b2	int3   	
  0x11b3	int3   	
  0x11b4	dec    	eax
  === BLOCK LINK ===
    0x11b5
=== CODE BLOCK END ===

=== CODE BLOCK ADDRESS 0x11b5 ===
  0x11b5	mov    	dword ptr [esp + 0x10], ebx
  0x11b9	dec    	eax
  0x11ba	mov    	dword ptr [esp + 0x18], esi
  0x11be	push   	ebp
  0x11bf	push   	edi
  === BLOCK LINK ===
    0x11c0
=== CODE BLOCK END ===

=== CODE BLOCK ADDRESS 0x11c0 ===
  0x11c0	inc    	ecx
  0x11c1	push   	esi
  0x11c2	dec    	eax
  0x11c3	lea    	ebp, [esp - 0x640]
  0x11ca	dec    	eax
  === BLOCK LINK ===
    0x11cb
=== CODE BLOCK END ===

=== CODE BLOCK ADDRESS 0x11cb ===
  0x11cb	sub    	esp, 0x740
  0x11d1	dec    	eax
  0x11d2	mov    	eax, dword ptr [0x4e30]
  0x11d8	dec    	eax
  0x11d9	xor    	eax, esp
  === BLOCK LINK ===
    0x11db
=== CODE BLOCK END ===

=== CODE BLOCK ADDRESS 0x11db ===
  0x11db	dec    	eax
  0x11dc	mov    	dword ptr [ebp + 0x630], eax
  0x11e2	dec    	eax
  0x11e3	mov    	edi, ecx
  0x11e5	dec    	eax
  === BLOCK LINK ===
    0x11e6
=== CODE BLOCK END ===

=== CODE BLOCK ADDRESS 0x11e6 ===
  0x11e6	lea    	ecx, [ebp + 0x300]
  0x11ec	dec    	eax
  0x11ed	call   	dword ptr [0x3225]
  === BLOCK LINK ===
    0x11f3
=== CODE BLOCK END ===

=== CODE BLOCK ADDRESS 0x11f3 ===
  0x11f3	nop    	dword ptr [eax + eax]
  0x11f8	dec    	eax
  0x11f9	lea    	ecx, [ebp - 0x30]
  0x11fc	dec    	eax
  0x11fd	call   	dword ptr [0x32dd]
  === BLOCK LINK ===
    0x1203
=== CODE BLOCK END ===

=== CODE BLOCK ADDRESS 0x1203 ===
  0x1203	nop    	dword ptr [eax + eax]
  0x1208	dec    	eax
  0x1209	lea    	ecx, [esp + 0x40]
  0x120d	dec    	eax
  0x120e	call   	dword ptr [0x32cc]
  === BLOCK LINK ===
    0x1214
=== CODE BLOCK END ===

=== CODE BLOCK ADDRESS 0x1214 ===
  0x1214	nop    	dword ptr [eax + eax]
  0x1219	dec    	eax
  0x121a	lea    	ecx, [ebp + 0x2a0]
  0x1220	dec    	eax
  0x1221	call   	dword ptr [0x31d9]
  === BLOCK LINK ===
    0x1227
=== CODE BLOCK END ===

=== CODE BLOCK ADDRESS 0x1227 ===
  0x1227	nop    	dword ptr [eax + eax]
  0x122c	dec    	eax
  0x122d	lea    	ecx, [ebp + 0x240]
  0x1233	dec    	eax
  0x1234	call   	dword ptr [0x3296]
  === BLOCK LINK ===
    0x123a
=== CODE BLOCK END ===

=== CODE BLOCK ADDRESS 0x123a ===
  0x123a	nop    	dword ptr [eax + eax]
  0x123f	dec    	eax
  0x1240	lea    	ecx, [ebp + 0x1e0]
  0x1246	dec    	eax
  0x1247	call   	dword ptr [0x3283]
  === BLOCK LINK ===
    0x124d
=== CODE BLOCK END ===

=== CODE BLOCK ADDRESS 0x124d ===
  0x124d	nop    	dword ptr [eax + eax]
  0x1252	dec    	eax
  0x1253	lea    	ecx, [ebp + 0x180]
  0x1259	dec    	eax
  0x125a	call   	dword ptr [0x3270]
  === BLOCK LINK ===
    0x1260
=== CODE BLOCK END ===

=== CODE BLOCK ADDRESS 0x1260 ===
  0x1260	nop    	dword ptr [eax + eax]
  0x1265	dec    	eax
  0x1266	lea    	ecx, [ebp]
  0x1269	dec    	eax
  0x126a	call   	dword ptr [0x3260]
  === BLOCK LINK ===
    0x1270
=== CODE BLOCK END ===

=== CODE BLOCK ADDRESS 0x1270 ===
  0x1270	nop    	dword ptr [eax + eax]
  0x1275	dec    	eax
  0x1276	lea    	ecx, [ebp + 0x120]
  0x127c	dec    	eax
  0x127d	call   	dword ptr [0x324d]
  === BLOCK LINK ===
    0x1283
=== CODE BLOCK END ===

=== CODE BLOCK ADDRESS 0x1283 ===
  0x1283	nop    	dword ptr [eax + eax]
  0x1288	dec    	eax
  0x1289	lea    	ecx, [ebp + 0xc0]
  0x128f	dec    	eax
  0x1290	call   	dword ptr [0x323a]
  === BLOCK LINK ===
    0x1296
=== CODE BLOCK END ===

=== CODE BLOCK ADDRESS 0x1296 ===
  0x1296	nop    	dword ptr [eax + eax]
  0x129b	dec    	eax
  0x129c	lea    	ecx, [ebp + 0x60]
  0x129f	dec    	eax
  0x12a0	call   	dword ptr [0x322a]
  === BLOCK LINK ===
    0x12a6
=== CODE BLOCK END ===

=== CODE BLOCK ADDRESS 0x12a6 ===
  0x12a6	nop    	dword ptr [eax + eax]
  0x12ab	dec    	eax
  0x12ac	lea    	ecx, [esp + 0x70]
  0x12b0	dec    	eax
  0x12b1	call   	dword ptr [0x3249]
  === BLOCK LINK ===
    0x12b7
=== CODE BLOCK END ===

=== CODE BLOCK ADDRESS 0x12b7 ===
  0x12b7	nop    	dword ptr [eax + eax]
  0x12bc	xor    	ebx, ebx
  0x12be	mov    	edx, 0x7530
  0x12c3	dec    	eax
  0x12c4	mov    	ecx, edi
  === BLOCK LINK ===
    0x12c6
=== CODE BLOCK END ===

=== CODE BLOCK ADDRESS 0x12c6 ===
  0x12c6	mov    	dword ptr [edi + 0xf0], ebx
  0x12cc	lea    	esi, [ebx + 1]
  0x12cf	inc    	esp
  0x12d0	mov    	ecx, esi
  0x12d2	inc    	esp
  === BLOCK LINK ===
    0x12d3
=== CODE BLOCK END ===

=== CODE BLOCK ADDRESS 0x12d3 ===
  0x12d3	lea    	eax, [edx + 1]
  0x12d6	dec    	eax
  0x12d7	call   	dword ptr [0x3183]
  === BLOCK LINK ===
    0x12dd
=== CODE BLOCK END ===

=== CODE BLOCK ADDRESS 0x12dd ===
  0x12dd	nop    	dword ptr [eax + eax]
  0x12e2	lea    	edx, [ebx + 0x32]
  0x12e5	inc    	esp
  0x12e6	lea    	eax, [ebx + 0x19]
  0x12e9	dec    	eax
  === BLOCK LINK ===
    0x12ea
=== CODE BLOCK END ===

=== CODE BLOCK ADDRESS 0x12ea ===
  0x12ea	lea    	ecx, [esp + 0x40]
  0x12ee	dec    	eax
  0x12ef	call   	dword ptr [0x31fb]
  === BLOCK LINK ===
    0x12f5
=== CODE BLOCK END ===

=== CODE BLOCK ADDRESS 0x12f5 ===
  0x12f5	nop    	dword ptr [eax + eax]
  0x12fa	test   	al, al
  0x12fc	je     	0x1685
  === BLOCK LINK ===
    0x1302
    0x1685
=== CODE BLOCK END ===

=== CODE BLOCK ADDRESS 0x1302 ===
  0x1302	dec    	eax
  0x1303	lea    	edx, [0x32ef]
  0x1309	dec    	eax
  0x130a	lea    	ecx, [ebp + 0x2a0]
  0x1310	dec    	eax
  === BLOCK LINK ===
    0x1311
=== CODE BLOCK END ===

=== CODE BLOCK ADDRESS 0x1311 ===
  0x1311	call   	dword ptr [0x30f9]
  === BLOCK LINK ===
    0x1317
=== CODE BLOCK END ===

=== CODE BLOCK ADDRESS 0x1317 ===
  0x1317	nop    	dword ptr [eax + eax]
  0x131c	test   	al, al
  0x131e	je     	0x1685
  === BLOCK LINK ===
    0x1324
    0x1685
=== CODE BLOCK END ===

=== CODE BLOCK ADDRESS 0x1324 ===
  0x1324	dec    	eax
  0x1325	lea    	edx, [0x32d1]
  0x132b	dec    	eax
  0x132c	lea    	ecx, [ebp + 0x240]
  0x1332	dec    	eax
  === BLOCK LINK ===
    0x1333
=== CODE BLOCK END ===

=== CODE BLOCK ADDRESS 0x1333 ===
  0x1333	call   	dword ptr [0x319f]
  === BLOCK LINK ===
    0x1339
=== CODE BLOCK END ===

=== CODE BLOCK ADDRESS 0x1339 ===
  0x1339	nop    	dword ptr [eax + eax]
  0x133e	test   	al, al
  0x1340	je     	0x1685
  === BLOCK LINK ===
    0x1346
    0x1685
=== CODE BLOCK END ===

=== CODE BLOCK ADDRESS 0x1346 ===
  0x1346	dec    	eax
  0x1347	lea    	edx, [0x32b3]
  0x134d	dec    	eax
  0x134e	lea    	ecx, [ebp + 0x1e0]
  0x1354	dec    	eax
  === BLOCK LINK ===
    0x1355
=== CODE BLOCK END ===

=== CODE BLOCK ADDRESS 0x1355 ===
  0x1355	call   	dword ptr [0x317d]
  === BLOCK LINK ===
    0x135b
=== CODE BLOCK END ===

=== CODE BLOCK ADDRESS 0x135b ===
  0x135b	nop    	dword ptr [eax + eax]
  0x1360	test   	al, al
  0x1362	je     	0x1685
  === BLOCK LINK ===
    0x1368
    0x1685
=== CODE BLOCK END ===

=== CODE BLOCK ADDRESS 0x1368 ===
  0x1368	dec    	eax
  0x1369	lea    	edx, [0x3295]
  0x136f	dec    	eax
  0x1370	lea    	ecx, [ebp + 0x180]
  0x1376	dec    	eax
  === BLOCK LINK ===
    0x1377
=== CODE BLOCK END ===

=== CODE BLOCK ADDRESS 0x1377 ===
  0x1377	call   	dword ptr [0x315b]
  === BLOCK LINK ===
    0x137d
=== CODE BLOCK END ===

=== CODE BLOCK ADDRESS 0x137d ===
  0x137d	nop    	dword ptr [eax + eax]
  0x1382	test   	al, al
  0x1384	je     	0x1685
  === BLOCK LINK ===
    0x138a
    0x1685
=== CODE BLOCK END ===

=== CODE BLOCK ADDRESS 0x138a ===
  0x138a	dec    	eax
  0x138b	lea    	edx, [0x3277]
  0x1391	dec    	eax
  0x1392	lea    	ecx, [ebp + 0xc0]
  0x1398	dec    	eax
  === BLOCK LINK ===
    0x1399
=== CODE BLOCK END ===

=== CODE BLOCK ADDRESS 0x1399 ===
  0x1399	call   	dword ptr [0x3139]
  === BLOCK LINK ===
    0x139f
=== CODE BLOCK END ===

=== CODE BLOCK ADDRESS 0x139f ===
  0x139f	nop    	dword ptr [eax + eax]
  0x13a4	test   	al, al
  0x13a6	je     	0x1685
  === BLOCK LINK ===
    0x13ac
    0x1685
=== CODE BLOCK END ===

=== CODE BLOCK ADDRESS 0x13ac ===
  0x13ac	dec    	eax
  0x13ad	lea    	edx, [0x3259]
  0x13b3	dec    	eax
  0x13b4	lea    	ecx, [esp + 0x70]
  0x13b8	dec    	eax
  === BLOCK LINK ===
    0x13b9
=== CODE BLOCK END ===

=== CODE BLOCK ADDRESS 0x13b9 ===
  0x13b9	call   	dword ptr [0x3149]
  === BLOCK LINK ===
    0x13bf
=== CODE BLOCK END ===

=== CODE BLOCK ADDRESS 0x13bf ===
  0x13bf	nop    	dword ptr [eax + eax]
  0x13c4	test   	al, al
  0x13c6	je     	0x1685
  === BLOCK LINK ===
    0x13cc
    0x1685
=== CODE BLOCK END ===

=== CODE BLOCK ADDRESS 0x13cc ===
  0x13cc	dec    	eax
  0x13cd	lea    	edx, [0x3241]
  0x13d3	dec    	eax
  0x13d4	lea    	ecx, [ebp + 0x120]
  0x13da	dec    	eax
  === BLOCK LINK ===
    0x13db
=== CODE BLOCK END ===

=== CODE BLOCK ADDRESS 0x13db ===
  0x13db	call   	dword ptr [0x30f7]
  === BLOCK LINK ===
    0x13e1
=== CODE BLOCK END ===

=== CODE BLOCK ADDRESS 0x13e1 ===
  0x13e1	nop    	dword ptr [eax + eax]
  0x13e6	test   	al, al
  0x13e8	je     	0x1685
  === BLOCK LINK ===
    0x13ee
    0x1685
=== CODE BLOCK END ===

=== CODE BLOCK ADDRESS 0x13ee ===
  0x13ee	dec    	eax
  0x13ef	lea    	edx, [0x3223]
  0x13f5	dec    	eax
  0x13f6	lea    	ecx, [ebp + 0x60]
  0x13f9	dec    	eax
  === BLOCK LINK ===
    0x13fa
=== CODE BLOCK END ===

=== CODE BLOCK ADDRESS 0x13fa ===
  0x13fa	call   	dword ptr [0x30d8]
  === BLOCK LINK ===
    0x1400
=== CODE BLOCK END ===

=== CODE BLOCK ADDRESS 0x1400 ===
  0x1400	nop    	dword ptr [eax + eax]
  0x1405	test   	al, al
  0x1407	je     	0x1685
  === BLOCK LINK ===
    0x140d
    0x1685
=== CODE BLOCK END ===

=== CODE BLOCK ADDRESS 0x140d ===
  0x140d	dec    	eax
  0x140e	lea    	edx, [0x3208]
  0x1414	dec    	eax
  0x1415	lea    	ecx, [ebp]
  0x1418	dec    	eax
  === BLOCK LINK ===
    0x1419
=== CODE BLOCK END ===

=== CODE BLOCK ADDRESS 0x1419 ===
  0x1419	call   	dword ptr [0x30b9]
  === BLOCK LINK ===
    0x141f
=== CODE BLOCK END ===

=== CODE BLOCK ADDRESS 0x141f ===
  0x141f	nop    	dword ptr [eax + eax]
  0x1424	test   	al, al
  0x1426	je     	0x1685
  === BLOCK LINK ===
    0x142c
    0x1685
=== CODE BLOCK END ===

=== CODE BLOCK ADDRESS 0x142c ===
  0x142c	dec    	esp
  0x142d	lea    	esi, [edi + 0x108]
  0x1433	inc    	esp
  0x1434	mov    	cl, dh
  0x1436	dec    	ecx
  === BLOCK LINK ===
    0x1437
=== CODE BLOCK END ===

=== CODE BLOCK ADDRESS 0x1437 ===
  0x1437	mov    	ecx, esi
  0x1439	dec    	eax
  0x143a	lea    	edx, [0x31b8]
  0x1440	inc    	ebp
  0x1441	xor    	eax, eax
  === BLOCK LINK ===
    0x1443
=== CODE BLOCK END ===

=== CODE BLOCK ADDRESS 0x1443 ===
  0x1443	dec    	eax
  0x1444	call   	dword ptr [0x3076]
  === BLOCK LINK ===
    0x144a
=== CODE BLOCK END ===

=== CODE BLOCK ADDRESS 0x144a ===
  0x144a	nop    	dword ptr [eax + eax]
  0x144f	test   	al, al
  0x1451	je     	0x1685
  === BLOCK LINK ===
    0x1457
    0x1685
=== CODE BLOCK END ===

=== CODE BLOCK ADDRESS 0x1457 ===
  0x1457	dec    	eax
  0x1458	lea    	edx, [ebp + 0x2a0]
  0x145e	dec    	eax
  0x145f	lea    	ecx, [esp + 0x40]
  0x1463	dec    	eax
  === BLOCK LINK ===
    0x1464
=== CODE BLOCK END ===

=== CODE BLOCK ADDRESS 0x1464 ===
  0x1464	call   	dword ptr [0x308e]
  === BLOCK LINK ===
    0x146a
=== CODE BLOCK END ===

=== CODE BLOCK ADDRESS 0x146a ===
  0x146a	nop    	dword ptr [eax + eax]
  0x146f	test   	al, al
  0x1471	je     	0x1685
  === BLOCK LINK ===
    0x1477
    0x1685
=== CODE BLOCK END ===

=== CODE BLOCK ADDRESS 0x1477 ===
  0x1477	dec    	eax
  0x1478	lea    	edx, [ebp + 0x120]
  0x147e	dec    	eax
  0x147f	lea    	ecx, [esp + 0x40]
  0x1483	dec    	eax
  === BLOCK LINK ===
    0x1484
=== CODE BLOCK END ===

=== CODE BLOCK ADDRESS 0x1484 ===
  0x1484	call   	dword ptr [0x306e]
  === BLOCK LINK ===
    0x148a
=== CODE BLOCK END ===

=== CODE BLOCK ADDRESS 0x148a ===
  0x148a	nop    	dword ptr [eax + eax]
  0x148f	test   	al, al
  0x1491	je     	0x1685
  === BLOCK LINK ===
    0x1497
    0x1685
=== CODE BLOCK END ===

=== CODE BLOCK ADDRESS 0x1497 ===
  0x1497	dec    	eax
  0x1498	lea    	edx, [ebp + 0x240]
  0x149e	dec    	eax
  0x149f	lea    	ecx, [esp + 0x40]
  0x14a3	dec    	eax
  === BLOCK LINK ===
    0x14a4
=== CODE BLOCK END ===

=== CODE BLOCK ADDRESS 0x14a4 ===
  0x14a4	call   	dword ptr [0x304e]
  === BLOCK LINK ===
    0x14aa
=== CODE BLOCK END ===

=== CODE BLOCK ADDRESS 0x14aa ===
  0x14aa	nop    	dword ptr [eax + eax]
  0x14af	test   	al, al
  0x14b1	je     	0x1685
  === BLOCK LINK ===
    0x14b7
    0x1685
=== CODE BLOCK END ===

=== CODE BLOCK ADDRESS 0x14b7 ===
  0x14b7	dec    	eax
  0x14b8	lea    	edx, [ebp + 0x1e0]
  0x14be	dec    	eax
  0x14bf	lea    	ecx, [esp + 0x40]
  0x14c3	dec    	eax
  === BLOCK LINK ===
    0x14c4
=== CODE BLOCK END ===

=== CODE BLOCK ADDRESS 0x14c4 ===
  0x14c4	call   	dword ptr [0x302e]
  === BLOCK LINK ===
    0x14ca
=== CODE BLOCK END ===

=== CODE BLOCK ADDRESS 0x14ca ===
  0x14ca	nop    	dword ptr [eax + eax]
  0x14cf	test   	al, al
  0x14d1	je     	0x1685
  === BLOCK LINK ===
    0x14d7
    0x1685
=== CODE BLOCK END ===

=== CODE BLOCK ADDRESS 0x14d7 ===
  0x14d7	dec    	eax
  0x14d8	lea    	edx, [ebp + 0x180]
  0x14de	dec    	eax
  0x14df	lea    	ecx, [esp + 0x40]
  0x14e3	dec    	eax
  === BLOCK LINK ===
    0x14e4
=== CODE BLOCK END ===

=== CODE BLOCK ADDRESS 0x14e4 ===
  0x14e4	call   	dword ptr [0x300e]
  === BLOCK LINK ===
    0x14ea
=== CODE BLOCK END ===

=== CODE BLOCK ADDRESS 0x14ea ===
  0x14ea	nop    	dword ptr [eax + eax]
  0x14ef	test   	al, al
  0x14f1	je     	0x1685
  === BLOCK LINK ===
    0x14f7
=== CODE BLOCK END ===

=== CODE BLOCK ADDRESS 0x14f7 ===
  0x14f7	dec    	eax
  0x14f8	lea    	edx, [ebp + 0x60]
  0x14fb	dec    	eax
  0x14fc	lea    	ecx, [esp + 0x40]
  0x1500	dec    	eax
  === BLOCK LINK ===
    0x1501
=== CODE BLOCK END ===

=== CODE BLOCK ADDRESS 0x1501 ===
  0x1501	call   	dword ptr [0x2ff1]
  === BLOCK LINK ===
    0x1507
=== CODE BLOCK END ===

=== CODE BLOCK ADDRESS 0x1507 ===
  0x1507	nop    	dword ptr [eax + eax]
  0x150c	test   	al, al
  0x150e	je     	0x1685
  === BLOCK LINK ===
    0x1514
=== CODE BLOCK END ===

=== CODE BLOCK ADDRESS 0x1514 ===
  0x1514	dec    	eax
  0x1515	lea    	edx, [ebp + 0xc0]
  0x151b	dec    	eax
  0x151c	lea    	ecx, [esp + 0x40]
  0x1520	dec    	eax
  === BLOCK LINK ===
    0x1521
=== CODE BLOCK END ===

=== CODE BLOCK ADDRESS 0x1521 ===
  0x1521	call   	dword ptr [0x2fd1]
  === BLOCK LINK ===
    0x1527
=== CODE BLOCK END ===

=== CODE BLOCK ADDRESS 0x1527 ===
  0x1527	nop    	dword ptr [eax + eax]
  0x152c	test   	al, al
  0x152e	je     	0x1685
  === BLOCK LINK ===
    0x1534
=== CODE BLOCK END ===

=== CODE BLOCK ADDRESS 0x1534 ===
  0x1534	dec    	eax
  0x1535	lea    	edx, [esp + 0x70]
  0x1539	dec    	eax
  0x153a	lea    	ecx, [esp + 0x40]
  0x153e	dec    	eax
  === BLOCK LINK ===
    0x153f
=== CODE BLOCK END ===

=== CODE BLOCK ADDRESS 0x153f ===
  0x153f	call   	dword ptr [0x2fb3]
  === BLOCK LINK ===
    0x1545
=== CODE BLOCK END ===

=== CODE BLOCK ADDRESS 0x1545 ===
  0x1545	nop    	dword ptr [eax + eax]
  0x154a	test   	al, al
  0x154c	je     	0x1685
  === BLOCK LINK ===
    0x1552
=== CODE BLOCK END ===

=== CODE BLOCK ADDRESS 0x1552 ===
  0x1552	dec    	eax
  0x1553	lea    	edx, [ebp]
  0x1556	dec    	eax
  0x1557	lea    	ecx, [esp + 0x40]
  0x155b	dec    	eax
  === BLOCK LINK ===
    0x155c
=== CODE BLOCK END ===

=== CODE BLOCK ADDRESS 0x155c ===
  0x155c	call   	dword ptr [0x2f96]
  === BLOCK LINK ===
    0x1562
=== CODE BLOCK END ===

=== CODE BLOCK ADDRESS 0x1562 ===
  0x1562	nop    	dword ptr [eax + eax]
  0x1567	test   	al, al
  0x1569	je     	0x1685
  === BLOCK LINK ===
    0x156f
=== CODE BLOCK END ===

=== CODE BLOCK ADDRESS 0x156f ===
  0x156f	dec    	ecx
  0x1570	mov    	edx, esi
  0x1572	dec    	eax
  0x1573	lea    	ecx, [esp + 0x40]
  0x1577	dec    	eax
  === BLOCK LINK ===
    0x1578
=== CODE BLOCK END ===

=== CODE BLOCK ADDRESS 0x1578 ===
  0x1578	call   	dword ptr [0x2f7a]
  === BLOCK LINK ===
    0x157e
=== CODE BLOCK END ===

=== CODE BLOCK ADDRESS 0x157e ===
  0x157e	nop    	dword ptr [eax + eax]
  0x1583	test   	al, al
  0x1585	je     	0x1685
  === BLOCK LINK ===
    0x158b
=== CODE BLOCK END ===

=== CODE BLOCK ADDRESS 0x158b ===
  0x158b	lea    	edx, [ebx + 0x32]
  0x158e	inc    	esp
  0x158f	lea    	eax, [ebx + 0x19]
  0x1592	dec    	eax
  0x1593	lea    	ecx, [ebp - 0x30]
  === BLOCK LINK ===
    0x1596
=== CODE BLOCK END ===

=== CODE BLOCK ADDRESS 0x1596 ===
  0x1596	dec    	eax
  0x1597	call   	dword ptr [0x2f53]
  === BLOCK LINK ===
    0x159d
=== CODE BLOCK END ===

=== CODE BLOCK ADDRESS 0x159d ===
  0x159d	nop    	dword ptr [eax + eax]
  0x15a2	test   	al, al
  0x15a4	je     	0x1685
  === BLOCK LINK ===
    0x15aa
=== CODE BLOCK END ===

=== CODE BLOCK ADDRESS 0x15aa ===
  0x15aa	dec    	eax
  0x15ab	lea    	edx, [ebp - 0x30]
  0x15ae	dec    	eax
  0x15af	lea    	ecx, [ebp + 0x300]
  0x15b5	dec    	eax
  === BLOCK LINK ===
    0x15b6
=== CODE BLOCK END ===

=== CODE BLOCK ADDRESS 0x15b6 ===
  0x15b6	call   	dword ptr [0x2e6c]
  === BLOCK LINK ===
    0x15bc
=== CODE BLOCK END ===

=== CODE BLOCK ADDRESS 0x15bc ===
  0x15bc	nop    	dword ptr [eax + eax]
  0x15c1	test   	al, al
  0x15c3	je     	0x1685
  === BLOCK LINK ===
    0x15c9
=== CODE BLOCK END ===

=== CODE BLOCK ADDRESS 0x15c9 ===
  0x15c9	dec    	eax
  0x15ca	lea    	edx, [0x3050]
  0x15d0	dec    	eax
  0x15d1	lea    	ecx, [ebp + 0x300]
  0x15d7	dec    	eax
  === BLOCK LINK ===
    0x15d8
=== CODE BLOCK END ===

=== CODE BLOCK ADDRESS 0x15d8 ===
  0x15d8	call   	dword ptr [0x2e62]
  === BLOCK LINK ===
    0x15de
=== CODE BLOCK END ===

=== CODE BLOCK ADDRESS 0x15de ===
  0x15de	nop    	dword ptr [eax + eax]
  0x15e3	inc    	ecx
  0x15e4	or     	esi, 0xffffffff
  0x15e7	dec    	eax
  0x15e8	lea    	edx, [0x3036]
  === BLOCK LINK ===
    0x15ee
=== CODE BLOCK END ===

=== CODE BLOCK ADDRESS 0x15ee ===
  0x15ee	inc    	ebp
  0x15ef	mov    	eax, esi
  0x15f1	dec    	eax
  0x15f2	lea    	ecx, [ebp + 0x3c0]
  0x15f8	dec    	eax
  === BLOCK LINK ===
    0x15f9
=== CODE BLOCK END ===

=== CODE BLOCK ADDRESS 0x15f9 ===
  0x15f9	call   	dword ptr [0x2d91]
  === BLOCK LINK ===
    0x15ff
=== CODE BLOCK END ===

=== CODE BLOCK ADDRESS 0x15ff ===
  0x15ff	nop    	dword ptr [eax + eax]
  0x1604	inc    	ebp
  0x1605	mov    	eax, esi
  0x1607	dec    	eax
  0x1608	lea    	edx, [0x3016]
  === BLOCK LINK ===
    0x160e
=== CODE BLOCK END ===

=== CODE BLOCK ADDRESS 0x160e ===
  0x160e	dec    	eax
  0x160f	lea    	ecx, [ebp + 0x420]
  0x1615	dec    	eax
  0x1616	call   	dword ptr [0x2d74]
  === BLOCK LINK ===
    0x161c
=== CODE BLOCK END ===

=== CODE BLOCK ADDRESS 0x161c ===
  0x161c	nop    	dword ptr [eax + eax]
  0x1621	dec    	eax
  0x1622	lea    	edx, [0x3000]
  0x1628	dec    	eax
  0x1629	lea    	ecx, [ebp + 0x300]
  === BLOCK LINK ===
    0x162f
=== CODE BLOCK END ===

=== CODE BLOCK ADDRESS 0x162f ===
  0x162f	dec    	eax
  0x1630	call   	dword ptr [0x2e02]
  === BLOCK LINK ===
    0x1636
=== CODE BLOCK END ===

=== CODE BLOCK ADDRESS 0x1636 ===
  0x1636	nop    	dword ptr [eax + eax]
  0x163b	xor    	edx, edx
  0x163d	dec    	eax
  0x163e	lea    	ecx, [ebp + 0x300]
  0x1644	dec    	eax
  === BLOCK LINK ===
    0x1645
=== CODE BLOCK END ===

=== CODE BLOCK ADDRESS 0x1645 ===
  0x1645	call   	dword ptr [0x2e35]
  === BLOCK LINK ===
    0x164b
=== CODE BLOCK END ===

=== CODE BLOCK ADDRESS 0x164b ===
  0x164b	nop    	dword ptr [eax + eax]
  0x1650	xor    	edx, edx
  0x1652	dec    	eax
  0x1653	lea    	ecx, [ebp + 0x300]
  0x1659	dec    	eax
  === BLOCK LINK ===
    0x165a
=== CODE BLOCK END ===

=== CODE BLOCK ADDRESS 0x165a ===
  0x165a	call   	dword ptr [0x2de8]
  === BLOCK LINK ===
    0x1660
=== CODE BLOCK END ===

=== CODE BLOCK ADDRESS 0x1660 ===
  0x1660	nop    	dword ptr [eax + eax]
  0x1665	test   	al, al
  0x1667	jne    	0x181c
  === BLOCK LINK ===
    0x166d
=== CODE BLOCK END ===

=== CODE BLOCK ADDRESS 0x166d ===
  0x166d	mov    	edx, 0x7738
  0x1672	dec    	eax
  0x1673	mov    	eax, dword ptr [edi]
  0x1675	dec    	eax
  0x1676	mov    	eax, dword ptr [eax + 0x20]
  === BLOCK LINK ===
    0x1679
=== CODE BLOCK END ===

=== CODE BLOCK ADDRESS 0x1679 ===
  0x1679	inc    	ebp
  0x167a	xor    	eax, eax
  0x167c	dec    	eax
  0x167d	mov    	ecx, edi
  0x167f	call   	dword ptr [0x2eb3]
  === BLOCK LINK ===
    0x1685
=== CODE BLOCK END ===

=== CODE BLOCK ADDRESS 0x1685 ===
  0x1685	inc    	eax
  0x1686	mov    	dh, bl
  0x1688	dec    	eax
  0x1689	lea    	ecx, [ebp - 0x70]
  0x168c	dec    	eax
  === BLOCK LINK ===
    0x168d
=== CODE BLOCK END ===

=== CODE BLOCK ADDRESS 0x168d ===
  0x168d	call   	dword ptr [0x2e85]
  === BLOCK LINK ===
    0x1693
=== CODE BLOCK END ===

=== CODE BLOCK ADDRESS 0x1693 ===
  0x1693	nop    	dword ptr [eax + eax]
  0x1698	dec    	eax
  0x1699	lea    	ecx, [esp + 0x70]
  0x169d	dec    	eax
  0x169e	call   	dword ptr [0x2de4]
  === BLOCK LINK ===
    0x16a4
=== CODE BLOCK END ===

=== CODE BLOCK ADDRESS 0x16a4 ===
  0x16a4	nop    	dword ptr [eax + eax]
  0x16a9	dec    	eax
  0x16aa	lea    	ecx, [ebp + 0x80]
  0x16b0	dec    	eax
  0x16b1	call   	dword ptr [0x2e61]
  === BLOCK LINK ===
    0x16b7
=== CODE BLOCK END ===

=== CODE BLOCK ADDRESS 0x16b7 ===
  0x16b7	nop    	dword ptr [eax + eax]
  0x16bc	dec    	eax
  0x16bd	lea    	ecx, [ebp + 0x60]
  0x16c0	dec    	eax
  0x16c1	call   	dword ptr [0x2dc1]
  === BLOCK LINK ===
    0x16c7
=== CODE BLOCK END ===

=== CODE BLOCK ADDRESS 0x16c7 ===
  0x16c7	nop    	dword ptr [eax + eax]
  0x16cc	dec    	eax
  0x16cd	lea    	ecx, [ebp + 0xe0]
  0x16d3	dec    	eax
  0x16d4	call   	dword ptr [0x2e3e]
  === BLOCK LINK ===
    0x16da
=== CODE BLOCK END ===

=== CODE BLOCK ADDRESS 0x16da ===
  0x16da	nop    	dword ptr [eax + eax]
  0x16df	dec    	eax
  0x16e0	lea    	ecx, [ebp + 0xc0]
  0x16e6	dec    	eax
  0x16e7	call   	dword ptr [0x2d9b]
  === BLOCK LINK ===
    0x16ed
=== CODE BLOCK END ===

=== CODE BLOCK ADDRESS 0x16ed ===
  0x16ed	nop    	dword ptr [eax + eax]
  0x16f2	dec    	eax
  0x16f3	lea    	ecx, [ebp + 0x140]
  0x16f9	dec    	eax
  0x16fa	call   	dword ptr [0x2e18]
  === BLOCK LINK ===
    0x1700
=== CODE BLOCK END ===

=== CODE BLOCK ADDRESS 0x1700 ===
  0x1700	nop    	dword ptr [eax + eax]
  0x1705	dec    	eax
  0x1706	lea    	ecx, [ebp + 0x120]
  0x170c	dec    	eax
  0x170d	call   	dword ptr [0x2d75]
  === BLOCK LINK ===
    0x1713
=== CODE BLOCK END ===

=== CODE BLOCK ADDRESS 0x1713 ===
  0x1713	nop    	dword ptr [eax + eax]
  0x1718	dec    	eax
  0x1719	lea    	ecx, [ebp + 0x20]
  0x171c	dec    	eax
  0x171d	call   	dword ptr [0x2df5]
  === BLOCK LINK ===
    0x1723
=== CODE BLOCK END ===

=== CODE BLOCK ADDRESS 0x1723 ===
  0x1723	nop    	dword ptr [eax + eax]
  0x1728	dec    	eax
  0x1729	lea    	ecx, [ebp]
  0x172c	dec    	eax
  0x172d	call   	dword ptr [0x2d55]
  === BLOCK LINK ===
    0x1733
=== CODE BLOCK END ===

=== CODE BLOCK ADDRESS 0x1733 ===
  0x1733	nop    	dword ptr [eax + eax]
  0x1738	dec    	eax
  0x1739	lea    	ecx, [ebp + 0x1a0]
  0x173f	dec    	eax
  0x1740	call   	dword ptr [0x2dd2]
  === BLOCK LINK ===
    0x1746
=== CODE BLOCK END ===

=== CODE BLOCK ADDRESS 0x1746 ===
  0x1746	nop    	dword ptr [eax + eax]
  0x174b	dec    	eax
  0x174c	lea    	ecx, [ebp + 0x180]
  0x1752	dec    	eax
  0x1753	call   	dword ptr [0x2d2f]
  === BLOCK LINK ===
    0x1759
=== CODE BLOCK END ===

=== CODE BLOCK ADDRESS 0x1759 ===
  0x1759	nop    	dword ptr [eax + eax]
  0x175e	dec    	eax
  0x175f	lea    	ecx, [ebp + 0x200]
  0x1765	dec    	eax
  0x1766	call   	dword ptr [0x2dac]
  === BLOCK LINK ===
    0x176c
=== CODE BLOCK END ===

=== CODE BLOCK ADDRESS 0x176c ===
  0x176c	nop    	dword ptr [eax + eax]
  0x1771	dec    	eax
  0x1772	lea    	ecx, [ebp + 0x1e0]
  0x1778	dec    	eax
  0x1779	call   	dword ptr [0x2d09]
  === BLOCK LINK ===
    0x177f
=== CODE BLOCK END ===

=== CODE BLOCK ADDRESS 0x177f ===
  0x177f	nop    	dword ptr [eax + eax]
  0x1784	dec    	eax
  0x1785	lea    	ecx, [ebp + 0x260]
  0x178b	dec    	eax
  0x178c	call   	dword ptr [0x2d86]
  === BLOCK LINK ===
    0x1792
=== CODE BLOCK END ===

=== CODE BLOCK ADDRESS 0x1792 ===
  0x1792	nop    	dword ptr [eax + eax]
  0x1797	dec    	eax
  0x1798	lea    	ecx, [ebp + 0x240]
  0x179e	dec    	eax
  0x179f	call   	dword ptr [0x2ce3]
  === BLOCK LINK ===
    0x17a5
=== CODE BLOCK END ===

=== CODE BLOCK ADDRESS 0x17a5 ===
  0x17a5	nop    	dword ptr [eax + eax]
  0x17aa	dec    	eax
  0x17ab	lea    	ecx, [ebp + 0x2a0]
  0x17b1	dec    	eax
  0x17b2	call   	dword ptr [0x2c50]
  === BLOCK LINK ===
    0x17b8
=== CODE BLOCK END ===

=== CODE BLOCK ADDRESS 0x17b8 ===
  0x17b8	nop    	dword ptr [eax + eax]
  0x17bd	dec    	eax
  0x17be	lea    	ecx, [esp + 0x40]
  0x17c2	dec    	eax
  0x17c3	call   	dword ptr [0x2d1f]
  === BLOCK LINK ===
    0x17c9
=== CODE BLOCK END ===

=== CODE BLOCK ADDRESS 0x17c9 ===
  0x17c9	nop    	dword ptr [eax + eax]
  0x17ce	dec    	eax
  0x17cf	lea    	ecx, [ebp - 0x30]
  0x17d2	dec    	eax
  0x17d3	call   	dword ptr [0x2d0f]
  === BLOCK LINK ===
    0x17d9
=== CODE BLOCK END ===

=== CODE BLOCK ADDRESS 0x17d9 ===
  0x17d9	nop    	dword ptr [eax + eax]
  0x17de	dec    	eax
  0x17df	lea    	ecx, [ebp + 0x300]
  0x17e5	dec    	eax
  0x17e6	call   	dword ptr [0x2c34]
  === BLOCK LINK ===
    0x17ec
=== CODE BLOCK END ===

=== CODE BLOCK ADDRESS 0x17ec ===
  0x17ec	nop    	dword ptr [eax + eax]
  0x17f1	inc    	eax
  0x17f2	mov    	al, dh
  0x17f4	dec    	eax
  0x17f5	mov    	ecx, dword ptr [ebp + 0x630]
  === BLOCK LINK ===
    0x17fb
=== CODE BLOCK END ===

=== CODE BLOCK ADDRESS 0x17fb ===
  0x17fb	dec    	eax
  0x17fc	xor    	ecx, esp
  0x17fe	call   	0x3000
  === BLOCK LINK ===
    0x1803
=== CODE BLOCK END ===

=== CODE BLOCK ADDRESS 0x1803 ===
  0x1803	dec    	esp
  0x1804	lea    	ebx, [esp + 0x740]
  0x180b	dec    	ecx
  0x180c	mov    	ebx, dword ptr [ebx + 0x28]
  0x180f	dec    	ecx
  === BLOCK LINK ===
    0x1810
=== CODE BLOCK END ===

=== CODE BLOCK ADDRESS 0x1810 ===
  0x1810	mov    	esi, dword ptr [ebx + 0x30]
  0x1813	dec    	ecx
  0x1814	mov    	esp, ebx
  0x1816	inc    	ecx
  0x1817	pop    	esi
  === BLOCK LINK ===
    0x1818
=== CODE BLOCK END ===

=== CODE BLOCK ADDRESS 0x1818 ===
  0x1818	pop    	edi
  0x1819	pop    	ebp
  0x181a	ret    	
  0x181b	int3   	
  0x181c	dec    	eax
  === BLOCK LINK ===
    0x181d
=== CODE BLOCK END ===

=== CODE BLOCK ADDRESS 0x181d ===
  0x181d	lea    	edx, [esp + 0x40]
  0x1821	dec    	eax
  0x1822	lea    	ecx, [ebp + 0x300]
  0x1828	dec    	eax
  0x1829	call   	dword ptr [0x2c01]
  === BLOCK LINK ===
    0x182f
=== CODE BLOCK END ===

=== CODE BLOCK ADDRESS 0x182f ===
  0x182f	nop    	dword ptr [eax + eax]
  0x1834	test   	al, al
  0x1836	jne    	0x1884
  === BLOCK LINK ===
    0x1838
=== CODE BLOCK END ===

=== CODE BLOCK ADDRESS 0x1838 ===
  0x1838	dec    	eax
  0x1839	mov    	esi, dword ptr [edi]
  0x183b	cmp    	byte ptr [ebp + 0x54], bl
  0x183e	je     	0x1876
  === BLOCK LINK ===
    0x1840
=== CODE BLOCK END ===

=== CODE BLOCK ADDRESS 0x1840 ===
  0x1840	dec    	eax
  0x1841	lea    	ecx, [ebp]
  0x1844	dec    	eax
  0x1845	call   	dword ptr [0x2c55]
  === BLOCK LINK ===
    0x184b
=== CODE BLOCK END ===

=== CODE BLOCK ADDRESS 0x184b ===
  0x184b	nop    	dword ptr [eax + eax]
  0x1850	dec    	eax
  0x1851	mov    	dword ptr [esp + 0x20], eax
  0x1855	dec    	esp
  0x1856	lea    	ecx, [0x2dd0]
  === BLOCK LINK ===
    0x185c
=== CODE BLOCK END ===

=== CODE BLOCK ADDRESS 0x185c ===
  0x185c	dec    	eax
  0x185d	mov    	eax, dword ptr [esi + 0x18]
  0x1860	inc    	ebp
  0x1861	xor    	eax, eax
  0x1863	mov    	edx, 0x7739
  === BLOCK LINK ===
    0x1868
=== CODE BLOCK END ===

=== CODE BLOCK ADDRESS 0x1868 ===
  0x1868	dec    	eax
  0x1869	mov    	ecx, edi
  0x186b	call   	dword ptr [0x2cc7]
  === BLOCK LINK ===
    0x1871
=== CODE BLOCK END ===

=== CODE BLOCK ADDRESS 0x1871 ===
  0x1871	jmp    	0x1685
  === BLOCK LINK ===
    0x1876
=== CODE BLOCK END ===

=== CODE BLOCK ADDRESS 0x1876 ===
  0x1876	dec    	eax
  0x1877	mov    	eax, dword ptr [esi + 0x20]
  0x187a	mov    	edx, 0x7738
  0x187f	jmp    	0x1679
  === BLOCK LINK ===
    0x1884
=== CODE BLOCK END ===

=== CODE BLOCK ADDRESS 0x1884 ===
  0x1884	cmp    	byte ptr [edi + 0x175], bl
  0x188a	je     	0x1896
  === BLOCK LINK ===
    0x188c
=== CODE BLOCK END ===

=== CODE BLOCK ADDRESS 0x188c ===
  0x188c	mov    	edx, 0x773a
  0x1891	jmp    	0x1672
  === BLOCK LINK ===
    0x1896
=== CODE BLOCK END ===

=== CODE BLOCK ADDRESS 0x1896 ===
  0x1896	cmp    	byte ptr [ebp + 0x54], bl
  0x1899	je     	0x18a5
  === BLOCK LINK ===
    0x189b
=== CODE BLOCK END ===

=== CODE BLOCK ADDRESS 0x189b ===
  0x189b	mov    	edx, 0x7739
  0x18a0	jmp    	0x1672
  === BLOCK LINK ===
    0x18a5
=== CODE BLOCK END ===

=== CODE BLOCK ADDRESS 0x18a5 ===
  0x18a5	cmp    	byte ptr [ebp + 0x174], bl
  0x18ab	je     	0x18b7
  === BLOCK LINK ===
    0x18ad
=== CODE BLOCK END ===

=== CODE BLOCK ADDRESS 0x18ad ===
  0x18ad	mov    	edx, 0x773b
  0x18b2	jmp    	0x1672
  === BLOCK LINK ===
    0x18b7
=== CODE BLOCK END ===

=== CODE BLOCK ADDRESS 0x18b7 ===
  0x18b7	mov    	al, byte ptr [ebp + 0x294]
  0x18bd	dec    	eax
  0x18be	lea    	ecx, [ebp + 0xc0]
  0x18c4	mov    	byte ptr [edi + 0xf4], al
  0x18ca	mov    	al, byte ptr [ebp + 0x234]
  === BLOCK LINK ===
    0x18d0
=== CODE BLOCK END ===

=== CODE BLOCK ADDRESS 0x18d0 ===
  0x18d0	mov    	byte ptr [edi + 0xf5], al
  0x18d6	mov    	al, byte ptr [ebp + 0x1d4]
  0x18dc	mov    	byte ptr [edi + 0xf6], al
  0x18e2	dec    	eax
  0x18e3	call   	dword ptr [0x2bbf]
  === BLOCK LINK ===
    0x18e9
=== CODE BLOCK END ===

=== CODE BLOCK ADDRESS 0x18e9 ===
  0x18e9	nop    	dword ptr [eax + eax]
  0x18ee	movzx  	eax, al
  0x18f1	dec    	eax
  0x18f2	lea    	ecx, [esp + 0x70]
  0x18f6	mov    	dword ptr [edi + 0xfc], eax
  === BLOCK LINK ===
    0x18fc
=== CODE BLOCK END ===

=== CODE BLOCK ADDRESS 0x18fc ===
  0x18fc	dec    	eax
  0x18fd	call   	dword ptr [0x2ba5]
  === BLOCK LINK ===
    0x1903
=== CODE BLOCK END ===

=== CODE BLOCK ADDRESS 0x1903 ===
  0x1903	nop    	dword ptr [eax + eax]
  0x1908	or     	ecx, 0xffffffff
  0x190b	test   	al, al
  0x190d	cmovne  	ecx, dword ptr [ebp - 0x40]
  0x1911	mov    	dword ptr [edi + 0x100], ecx
  === BLOCK LINK ===
    0x1917
=== CODE BLOCK END ===

=== CODE BLOCK ADDRESS 0x1917 ===
  0x1917	cmp    	dword ptr [edi + 0xfc], ebx
  0x191d	jne    	0x1936
  === BLOCK LINK ===
    0x191f
=== CODE BLOCK END ===

=== CODE BLOCK ADDRESS 0x191f ===
  0x191f	dec    	eax
  0x1920	lea    	ecx, [esp + 0x70]
  0x1924	dec    	eax
  0x1925	call   	dword ptr [0x2b7d]
  === BLOCK LINK ===
    0x192b
=== CODE BLOCK END ===

=== CODE BLOCK ADDRESS 0x192b ===
  0x192b	nop    	dword ptr [eax + eax]
  0x1930	test   	al, al
  0x1932	mov    	al, bl
  0x1934	je     	0x1939
  === BLOCK LINK ===
    0x1936
=== CODE BLOCK END ===

=== CODE BLOCK ADDRESS 0x1936 ===
  0x1936	inc    	eax
  0x1937	mov    	al, dh
  0x1939	dec    	eax
  0x193a	lea    	ecx, [ebp + 0x60]
  0x193d	mov    	byte ptr [edi + 0xf8], al
  === BLOCK LINK ===
    0x1943
=== CODE BLOCK END ===

=== CODE BLOCK ADDRESS 0x1943 ===
  0x1943	dec    	eax
  0x1944	call   	dword ptr [0x2b5e]
  === BLOCK LINK ===
    0x194a
=== CODE BLOCK END ===

=== CODE BLOCK ADDRESS 0x194a ===
  0x194a	nop    	dword ptr [eax + eax]
  0x194f	movzx  	ecx, byte ptr [edi + 0xf6]
  0x1956	inc    	esp
  0x1957	mov    	dl, al
  0x1959	inc    	esp
  === BLOCK LINK ===
    0x195a
=== CODE BLOCK END ===

=== CODE BLOCK ADDRESS 0x195a ===
  0x195a	movzx  	eax, byte ptr [edi + 0xf8]
  0x1961	inc    	esp
  0x1962	movzx  	ecx, byte ptr [edi + 0xf4]
  0x1969	mov    	byte ptr [edi + 0xf9], al
  0x196f	inc    	ebx
  === BLOCK LINK ===
    0x1970
=== CODE BLOCK END ===

=== CODE BLOCK ADDRESS 0x1970 ===
  0x1970	lea    	edx, [eax + ecx]
  0x1973	add    	edx, ecx
  0x1975	movzx  	ecx, byte ptr [edi + 0xf5]
  0x197c	add    	edx, ecx
  0x197e	cmp    	edx, esi
  === BLOCK LINK ===
    0x1980
=== CODE BLOCK END ===

=== CODE BLOCK ADDRESS 0x1980 ===
  0x1980	jbe    	0x198c
  === BLOCK LINK ===
    0x1982
=== CODE BLOCK END ===

=== CODE BLOCK ADDRESS 0x1982 ===
  0x1982	mov    	edx, 0x773c
  0x1987	jmp    	0x1672
  === BLOCK LINK ===
    0x198c
=== CODE BLOCK END ===

=== CODE BLOCK ADDRESS 0x198c ===
  0x198c	mov    	eax, dword ptr [edi + 0x170]
  0x1992	test   	eax, eax
  0x1994	jne    	0x19af
  === BLOCK LINK ===
    0x1996
=== CODE BLOCK END ===

=== CODE BLOCK ADDRESS 0x1996 ===
  0x1996	inc    	ebp
  0x1997	test   	cl, cl
  0x1999	jne    	0x19c1
  === BLOCK LINK ===
    0x199b
=== CODE BLOCK END ===

=== CODE BLOCK ADDRESS 0x199b ===
  0x199b	inc    	ebp
  0x199c	test   	al, al
  0x199e	jne    	0x19c6
  === BLOCK LINK ===
    0x19a0
=== CODE BLOCK END ===

=== CODE BLOCK ADDRESS 0x19a0 ===
  0x19a0	inc    	ebp
  0x19a1	test   	dl, dl
  0x19a3	jne    	0x1a15
  === BLOCK LINK ===
    0x19a5
=== CODE BLOCK END ===

=== CODE BLOCK ADDRESS 0x19a5 ===
  0x19a5	mov    	edx, 0x773d
  0x19aa	jmp    	0x1672
  === BLOCK LINK ===
    0x19af
=== CODE BLOCK END ===

=== CODE BLOCK ADDRESS 0x19af ===
  0x19af	inc    	ebp
  0x19b0	test   	cl, cl
  0x19b2	jne    	0x19b9
  === BLOCK LINK ===
    0x19b4
=== CODE BLOCK END ===

=== CODE BLOCK ADDRESS 0x19b4 ===
  0x19b4	inc    	ebp
  0x19b5	test   	al, al
  0x19b7	je     	0x1a15
  === BLOCK LINK ===
    0x19b9
=== CODE BLOCK END ===

=== CODE BLOCK ADDRESS 0x19b9 ===
  0x19b9	test   	eax, eax
  0x19bb	jne    	0x166d
  === BLOCK LINK ===
    0x19c1
=== CODE BLOCK END ===

=== CODE BLOCK ADDRESS 0x19c1 ===
  0x19c1	inc    	ebp
  0x19c2	test   	al, al
  0x19c4	je     	0x1a15
  === BLOCK LINK ===
    0x19c6
=== CODE BLOCK END ===

=== CODE BLOCK ADDRESS 0x19c6 ===
  0x19c6	dec    	eax
  0x19c7	lea    	ecx, [esp + 0x70]
  0x19cb	dec    	eax
  0x19cc	call   	dword ptr [0x2ad6]
  === BLOCK LINK ===
    0x19d2
=== CODE BLOCK END ===

=== CODE BLOCK ADDRESS 0x19d2 ===
  0x19d2	nop    	dword ptr [eax + eax]
  0x19d7	test   	al, al
  0x19d9	je     	0x1a15
  === BLOCK LINK ===
    0x19db
=== CODE BLOCK END ===

=== CODE BLOCK ADDRESS 0x19db ===
  0x19db	mov    	ecx, 0x3f480
  0x19e0	cmp    	dword ptr [ebp - 0x40], ecx
  0x19e3	jbe    	0x1a15
  === BLOCK LINK ===
    0x19e5
=== CODE BLOCK END ===

=== CODE BLOCK ADDRESS 0x19e5 ===
  0x19e5	dec    	eax
  0x19e6	mov    	eax, dword ptr [edi]
  0x19e8	dec    	esp
  0x19e9	lea    	ecx, [0x2c41]
  0x19ef	mov    	dword ptr [esp + 0x28], 0xa
  === BLOCK LINK ===
    0x19f7
=== CODE BLOCK END ===

=== CODE BLOCK ADDRESS 0x19f7 ===
  0x19f7	inc    	ebp
  0x19f8	xor    	eax, eax
  0x19fa	mov    	dword ptr [esp + 0x20], ecx
  0x19fe	mov    	edx, 0x774c
  0x1a03	dec    	eax
  === BLOCK LINK ===
    0x1a04
=== CODE BLOCK END ===

=== CODE BLOCK ADDRESS 0x1a04 ===
  0x1a04	mov    	ecx, edi
  0x1a06	dec    	eax
  0x1a07	mov    	eax, dword ptr [eax + 0x18]
  0x1a0a	call   	dword ptr [0x2b28]
  === BLOCK LINK ===
    0x1a10
=== CODE BLOCK END ===

=== CODE BLOCK ADDRESS 0x1a10 ===
  0x1a10	jmp    	0x1685
  === BLOCK LINK ===
    0x1a15
=== CODE BLOCK END ===

=== CODE BLOCK ADDRESS 0x1a15 ===
  0x1a15	dec    	eax
  0x1a16	lea    	ecx, [ebp + 0x510]
  0x1a1c	mov    	dword ptr [ebp + 0x510], 0x11c
  0x1a26	dec    	eax
  0x1a27	call   	dword ptr [0x2873]
  === BLOCK LINK ===
    0x1a2d
=== CODE BLOCK END ===

=== CODE BLOCK ADDRESS 0x1a2d ===
  0x1a2d	nop    	dword ptr [eax + eax]
  0x1a32	test   	eax, eax
  0x1a34	je     	0x1a43
  === BLOCK LINK ===
    0x1a36
=== CODE BLOCK END ===

=== CODE BLOCK ADDRESS 0x1a36 ===
  0x1a36	mov    	al, byte ptr [ebp + 0x62a]
  0x1a3c	sub    	al, 2
  0x1a3e	inc    	eax
  0x1a3f	cmp    	al, dh
  0x1a41	ja     	0x1a46
  === BLOCK LINK ===
    0x1a43
=== CODE BLOCK END ===

=== CODE BLOCK ADDRESS 0x1a43 ===
  0x1a43	inc    	eax
  0x1a44	mov    	bl, dh
  0x1a46	mov    	byte ptr [edi + 0x104], bl
  0x1a4c	jmp    	0x1688
  === BLOCK LINK ===
    0x1a51
=== CODE BLOCK END ===

=== CODE BLOCK ADDRESS 0x1a51 ===
  0x1a51	int3   	
  0x1a52	int3   	
  0x1a53	int3   	
  0x1a54	int3   	
  0x1a55	int3   	
  === BLOCK LINK ===
    0x1a56
=== CODE BLOCK END ===

=== CODE BLOCK ADDRESS 0x1a56 ===
  0x1a56	int3   	
  0x1a57	int3   	
  0x1a58	dec    	eax
  0x1a59	mov    	eax, esp
  0x1a5b	dec    	eax
  === BLOCK LINK ===
    0x1a5c
=== CODE BLOCK END ===

=== CODE BLOCK ADDRESS 0x1a5c ===
  0x1a5c	mov    	dword ptr [eax + 0x10], ebx
  0x1a5f	dec    	eax
  0x1a60	mov    	dword ptr [eax + 0x18], esi
  0x1a63	dec    	eax
  0x1a64	mov    	dword ptr [eax + 0x20], edi
  === BLOCK LINK ===
    0x1a67
=== CODE BLOCK END ===

=== CODE BLOCK ADDRESS 0x1a67 ===
  0x1a67	push   	ebp
  0x1a68	inc    	ecx
  0x1a69	push   	esp
  0x1a6a	inc    	ecx
  0x1a6b	push   	ebp
  === BLOCK LINK ===
    0x1a6c
=== CODE BLOCK END ===

=== CODE BLOCK ADDRESS 0x1a6c ===
  0x1a6c	inc    	ecx
  0x1a6d	push   	esi
  0x1a6e	inc    	ecx
  0x1a6f	push   	edi
  0x1a70	dec    	eax
  === BLOCK LINK ===
    0x1a71
=== CODE BLOCK END ===

=== CODE BLOCK ADDRESS 0x1a71 ===
  0x1a71	lea    	ebp, [eax - 0x658]
  0x1a77	dec    	eax
  0x1a78	sub    	esp, 0x730
  0x1a7e	dec    	eax
  0x1a7f	mov    	eax, dword ptr [0x4583]
  === BLOCK LINK ===
    0x1a85
=== CODE BLOCK END ===

=== CODE BLOCK ADDRESS 0x1a85 ===
  0x1a85	dec    	eax
  0x1a86	xor    	eax, esp
  0x1a88	dec    	eax
  0x1a89	mov    	dword ptr [ebp + 0x620], eax
  0x1a8f	dec    	esp
  === BLOCK LINK ===
    0x1a90
=== CODE BLOCK END ===

=== CODE BLOCK ADDRESS 0x1a90 ===
  0x1a90	mov    	edi, ecx
  0x1a92	dec    	eax
  0x1a93	lea    	ecx, [ebp + 0x200]
  0x1a99	dec    	eax
  0x1a9a	call   	dword ptr [0x2a70]
  === BLOCK LINK ===
    0x1aa0
=== CODE BLOCK END ===

=== CODE BLOCK ADDRESS 0x1aa0 ===
  0x1aa0	nop    	dword ptr [eax + eax]
  0x1aa5	dec    	eax
  0x1aa6	lea    	ecx, [ebp + 0x3c0]
  0x1aac	dec    	eax
  0x1aad	call   	dword ptr [0x299d]
  === BLOCK LINK ===
    0x1ab3
=== CODE BLOCK END ===

=== CODE BLOCK ADDRESS 0x1ab3 ===
  0x1ab3	nop    	dword ptr [eax + eax]
  0x1ab8	dec    	eax
  0x1ab9	lea    	ecx, [ebp + 0x1d0]
  0x1abf	dec    	eax
  0x1ac0	call   	dword ptr [0x2a4a]
  === BLOCK LINK ===
    0x1ac6
=== CODE BLOCK END ===

=== CODE BLOCK ADDRESS 0x1ac6 ===
  0x1ac6	nop    	dword ptr [eax + eax]
  0x1acb	dec    	eax
  0x1acc	lea    	ecx, [ebp - 0x58]
  0x1acf	dec    	eax
  0x1ad0	call   	dword ptr [0x270a]
  === BLOCK LINK ===
    0x1ad6
=== CODE BLOCK END ===

=== CODE BLOCK ADDRESS 0x1ad6 ===
  0x1ad6	nop    	dword ptr [eax + eax]
  0x1adb	dec    	eax
  0x1adc	lea    	ecx, [esp + 0x70]
  0x1ae0	dec    	eax
  0x1ae1	call   	dword ptr [0x2a29]
  === BLOCK LINK ===
    0x1ae7
=== CODE BLOCK END ===

=== CODE BLOCK ADDRESS 0x1ae7 ===
  0x1ae7	nop    	dword ptr [eax + eax]
  0x1aec	dec    	eax
  0x1aed	lea    	ecx, [ebp + 0x1a0]
  0x1af3	dec    	eax
  0x1af4	call   	dword ptr [0x2a16]
  === BLOCK LINK ===
    0x1afa
=== CODE BLOCK END ===

=== CODE BLOCK ADDRESS 0x1afa ===
  0x1afa	nop    	dword ptr [eax + eax]
  0x1aff	dec    	eax
  0x1b00	lea    	ecx, [ebp + 0x170]
  0x1b06	dec    	eax
  0x1b07	call   	dword ptr [0x2a03]
  === BLOCK LINK ===
    0x1b0d
=== CODE BLOCK END ===

=== CODE BLOCK ADDRESS 0x1b0d ===
  0x1b0d	nop    	dword ptr [eax + eax]
  0x1b12	dec    	eax
  0x1b13	lea    	ecx, [ebp + 0x140]
  0x1b19	dec    	eax
  0x1b1a	call   	dword ptr [0x29f0]
  === BLOCK LINK ===
    0x1b20
=== CODE BLOCK END ===

=== CODE BLOCK ADDRESS 0x1b20 ===
  0x1b20	nop    	dword ptr [eax + eax]
  0x1b25	dec    	eax
  0x1b26	lea    	ecx, [ebp - 0x40]
  0x1b29	dec    	eax
  0x1b2a	call   	dword ptr [0x29e0]
  === BLOCK LINK ===
    0x1b30
=== CODE BLOCK END ===

=== CODE BLOCK ADDRESS 0x1b30 ===
  0x1b30	nop    	dword ptr [eax + eax]
  0x1b35	dec    	eax
  0x1b36	lea    	ecx, [ebp + 0x110]
  0x1b3c	dec    	eax
  0x1b3d	call   	dword ptr [0x29cd]
  === BLOCK LINK ===
    0x1b43
=== CODE BLOCK END ===

=== CODE BLOCK ADDRESS 0x1b43 ===
  0x1b43	nop    	dword ptr [eax + eax]
  0x1b48	xor    	edi, edi
  0x1b4a	dec    	eax
  0x1b4b	lea    	ecx, [esp + 0x38]
  0x1b4f	inc    	eax
  === BLOCK LINK ===
    0x1b50
=== CODE BLOCK END ===

=== CODE BLOCK ADDRESS 0x1b50 ===
  0x1b50	mov    	byte ptr [esp + 0x30], bh
  0x1b54	dec    	eax
  0x1b55	call   	dword ptr [0x29b5]
  === BLOCK LINK ===
    0x1b5b
=== CODE BLOCK END ===

=== CODE BLOCK ADDRESS 0x1b5b ===
  0x1b5b	nop    	dword ptr [eax + eax]
  0x1b60	dec    	eax
  0x1b61	lea    	ecx, [ebp + 0x230]
  0x1b67	dec    	eax
  0x1b68	call   	dword ptr [0x2642]
  === BLOCK LINK ===
    0x1b6e
=== CODE BLOCK END ===

=== CODE BLOCK ADDRESS 0x1b6e ===
  0x1b6e	nop    	dword ptr [eax + eax]
  0x1b73	dec    	eax
  0x1b74	lea    	ecx, [ebp + 0xe0]
  0x1b7a	dec    	eax
  0x1b7b	call   	dword ptr [0x298f]
  === BLOCK LINK ===
    0x1b81
=== CODE BLOCK END ===

=== CODE BLOCK ADDRESS 0x1b81 ===
  0x1b81	nop    	dword ptr [eax + eax]
  0x1b86	inc    	ecx
  0x1b87	or     	ebp, 0xffffffff
  0x1b8a	dec    	eax
  0x1b8b	lea    	edx, [0x2a3f]
  === BLOCK LINK ===
    0x1b91
=== CODE BLOCK END ===

=== CODE BLOCK ADDRESS 0x1b91 ===
  0x1b91	inc    	ebp
  0x1b92	mov    	eax, ebp
  0x1b94	dec    	eax
  0x1b95	lea    	ecx, [ebp + 0xe0]
  0x1b9b	dec    	eax
  === BLOCK LINK ===
    0x1b9c
=== CODE BLOCK END ===

=== CODE BLOCK ADDRESS 0x1b9c ===
  0x1b9c	call   	dword ptr [0x27e6]
  === BLOCK LINK ===
    0x1ba2
=== CODE BLOCK END ===

=== CODE BLOCK ADDRESS 0x1ba2 ===
  0x1ba2	nop    	dword ptr [eax + eax]
  0x1ba7	test   	al, al
  0x1ba9	je     	0x1c60
  === BLOCK LINK ===
    0x1baf
=== CODE BLOCK END ===

=== CODE BLOCK ADDRESS 0x1baf ===
  0x1baf	inc    	ecx
  0x1bb0	cmp    	byte ptr [edi + 0xf4], bh
  0x1bb6	je     	0x1d87
  === BLOCK LINK ===
    0x1bbc
=== CODE BLOCK END ===

=== CODE BLOCK ADDRESS 0x1bbc ===
  0x1bbc	inc    	ebp
  0x1bbd	mov    	eax, ebp
  0x1bbf	dec    	eax
  0x1bc0	lea    	edx, [0x2a72]
  0x1bc6	dec    	eax
  === BLOCK LINK ===
    0x1bc7
=== CODE BLOCK END ===

=== CODE BLOCK ADDRESS 0x1bc7 ===
  0x1bc7	lea    	ecx, [esp + 0x38]
  0x1bcb	dec    	eax
  0x1bcc	call   	dword ptr [0x27be]
  === BLOCK LINK ===
    0x1bd2
=== CODE BLOCK END ===

=== CODE BLOCK ADDRESS 0x1bd2 ===
  0x1bd2	nop    	dword ptr [eax + eax]
  0x1bd7	test   	al, al
  0x1bd9	je     	0x1c60
  === BLOCK LINK ===
    0x1bdf
=== CODE BLOCK END ===

=== CODE BLOCK ADDRESS 0x1bdf ===
  0x1bdf	inc    	esp
  0x1be0	lea    	esi, [edi + 1]
  0x1be3	inc    	ecx
  0x1be4	mov    	dl, dh
  0x1be6	dec    	eax
  === BLOCK LINK ===
    0x1be7
=== CODE BLOCK END ===

=== CODE BLOCK ADDRESS 0x1be7 ===
  0x1be7	lea    	ecx, [esp + 0x38]
  0x1beb	dec    	eax
  0x1bec	call   	dword ptr [0x25ce]
  === BLOCK LINK ===
    0x1bf2
=== CODE BLOCK END ===

=== CODE BLOCK ADDRESS 0x1bf2 ===
  0x1bf2	nop    	dword ptr [eax + eax]
  0x1bf7	test   	al, al
  0x1bf9	je     	0x1c60
  === BLOCK LINK ===
    0x1bfb
=== CODE BLOCK END ===

=== CODE BLOCK ADDRESS 0x1bfb ===
  0x1bfb	inc    	ecx
  0x1bfc	cmp    	byte ptr [edi + 0x104], bh
  0x1c02	je     	0x1c2c
  === BLOCK LINK ===
    0x1c04
=== CODE BLOCK END ===

=== CODE BLOCK ADDRESS 0x1c04 ===
  0x1c04	inc    	ebp
  0x1c05	mov    	eax, ebp
  0x1c07	dec    	eax
  0x1c08	lea    	edx, [0x2a42]
  0x1c0e	dec    	eax
  === BLOCK LINK ===
    0x1c0f
=== CODE BLOCK END ===

=== CODE BLOCK ADDRESS 0x1c0f ===
  0x1c0f	lea    	ecx, [esp + 0x38]
  0x1c13	dec    	eax
  0x1c14	call   	dword ptr [0x2776]
  === BLOCK LINK ===
    0x1c1a
=== CODE BLOCK END ===

=== CODE BLOCK ADDRESS 0x1c1a ===
  0x1c1a	nop    	dword ptr [eax + eax]
  0x1c1f	test   	al, al
  0x1c21	je     	0x1c60
  === BLOCK LINK ===
    0x1c23
=== CODE BLOCK END ===

=== CODE BLOCK ADDRESS 0x1c23 ===
  0x1c23	inc    	ecx
  0x1c24	cmp    	byte ptr [edi + 0x104], bh
  0x1c2a	jne    	0x1c4b
  === BLOCK LINK ===
    0x1c2c
=== CODE BLOCK END ===

=== CODE BLOCK ADDRESS 0x1c2c ===
  0x1c2c	inc    	ebp
  0x1c2d	mov    	eax, ebp
  0x1c2f	dec    	eax
  0x1c30	lea    	edx, [0x2a3a]
  0x1c36	dec    	eax
  === BLOCK LINK ===
    0x1c37
=== CODE BLOCK END ===

=== CODE BLOCK ADDRESS 0x1c37 ===
  0x1c37	lea    	ecx, [esp + 0x38]
  0x1c3b	dec    	eax
  0x1c3c	call   	dword ptr [0x274e]
  === BLOCK LINK ===
    0x1c42
=== CODE BLOCK END ===

=== CODE BLOCK ADDRESS 0x1c42 ===
  0x1c42	nop    	dword ptr [eax + eax]
  0x1c47	test   	al, al
  0x1c49	je     	0x1c60
  === BLOCK LINK ===
    0x1c4b
=== CODE BLOCK END ===

=== CODE BLOCK ADDRESS 0x1c4b ===
  0x1c4b	dec    	eax
  0x1c4c	lea    	ecx, [esp + 0x38]
  0x1c50	dec    	eax
  0x1c51	call   	dword ptr [0x25d9]
  === BLOCK LINK ===
    0x1c57
=== CODE BLOCK END ===

=== CODE BLOCK ADDRESS 0x1c57 ===
  0x1c57	nop    	dword ptr [eax + eax]
  0x1c5c	test   	al, al
  0x1c5e	jne    	0x1c63
  === BLOCK LINK ===
    0x1c60
=== CODE BLOCK END ===

=== CODE BLOCK ADDRESS 0x1c60 ===
  0x1c60	inc    	esp
  0x1c61	mov    	dh, bh
  0x1c63	inc    	ecx
  0x1c64	mov    	bh, dh
  0x1c66	dec    	eax
  === BLOCK LINK ===
    0x1c67
=== CODE BLOCK END ===

=== CODE BLOCK ADDRESS 0x1c67 ===
  0x1c67	lea    	ecx, [ebp + 0xe0]
  0x1c6d	dec    	eax
  0x1c6e	call   	dword ptr [0x28a4]
  === BLOCK LINK ===
    0x1c74
=== CODE BLOCK END ===

=== CODE BLOCK ADDRESS 0x1c74 ===
  0x1c74	nop    	dword ptr [eax + eax]
  0x1c79	dec    	eax
  0x1c7a	lea    	ecx, [ebp + 0x230]
  0x1c80	dec    	eax
  0x1c81	call   	dword ptr [0x2521]
  === BLOCK LINK ===
    0x1c87
=== CODE BLOCK END ===

=== CODE BLOCK ADDRESS 0x1c87 ===
  0x1c87	nop    	dword ptr [eax + eax]
  0x1c8c	dec    	eax
  0x1c8d	lea    	ecx, [esp + 0x38]
  0x1c91	dec    	eax
  0x1c92	call   	dword ptr [0x2880]
  === BLOCK LINK ===
    0x1c98
=== CODE BLOCK END ===

=== CODE BLOCK ADDRESS 0x1c98 ===
  0x1c98	nop    	dword ptr [eax + eax]
  0x1c9d	dec    	eax
  0x1c9e	lea    	ecx, [ebp + 0x110]
  0x1ca4	dec    	eax
  0x1ca5	call   	dword ptr [0x286d]
  === BLOCK LINK ===
    0x1cab
=== CODE BLOCK END ===

=== CODE BLOCK ADDRESS 0x1cab ===
  0x1cab	nop    	dword ptr [eax + eax]
  0x1cb0	dec    	eax
  0x1cb1	lea    	ecx, [ebp - 0x40]
  0x1cb4	dec    	eax
  0x1cb5	call   	dword ptr [0x285d]
  === BLOCK LINK ===
    0x1cbb
=== CODE BLOCK END ===

=== CODE BLOCK ADDRESS 0x1cbb ===
  0x1cbb	nop    	dword ptr [eax + eax]
  0x1cc0	dec    	eax
  0x1cc1	lea    	ecx, [ebp + 0x140]
  0x1cc7	dec    	eax
  0x1cc8	call   	dword ptr [0x284a]
  === BLOCK LINK ===
    0x1cce
=== CODE BLOCK END ===

=== CODE BLOCK ADDRESS 0x1cce ===
  0x1cce	nop    	dword ptr [eax + eax]
  0x1cd3	dec    	eax
  0x1cd4	lea    	ecx, [ebp + 0x170]
  0x1cda	dec    	eax
  0x1cdb	call   	dword ptr [0x2837]
  === BLOCK LINK ===
    0x1ce1
=== CODE BLOCK END ===

=== CODE BLOCK ADDRESS 0x1ce1 ===
  0x1ce1	nop    	dword ptr [eax + eax]
  0x1ce6	dec    	eax
  0x1ce7	lea    	ecx, [ebp + 0x1a0]
  0x1ced	dec    	eax
  0x1cee	call   	dword ptr [0x2824]
  === BLOCK LINK ===
    0x1cf4
=== CODE BLOCK END ===

=== CODE BLOCK ADDRESS 0x1cf4 ===
  0x1cf4	nop    	dword ptr [eax + eax]
  0x1cf9	dec    	eax
  0x1cfa	lea    	ecx, [esp + 0x70]
  0x1cfe	dec    	eax
  0x1cff	call   	dword ptr [0x2813]
  === BLOCK LINK ===
    0x1d05
=== CODE BLOCK END ===

=== CODE BLOCK ADDRESS 0x1d05 ===
  0x1d05	nop    	dword ptr [eax + eax]
  0x1d0a	dec    	eax
  0x1d0b	lea    	ecx, [ebp - 0x58]
  0x1d0e	dec    	eax
  0x1d0f	call   	dword ptr [0x250b]
  === BLOCK LINK ===
    0x1d15
=== CODE BLOCK END ===

=== CODE BLOCK ADDRESS 0x1d15 ===
  0x1d15	nop    	dword ptr [eax + eax]
  0x1d1a	dec    	eax
  0x1d1b	lea    	ecx, [ebp + 0x1d0]
  0x1d21	dec    	eax
  0x1d22	call   	dword ptr [0x27f0]
  === BLOCK LINK ===
    0x1d28
=== CODE BLOCK END ===

=== CODE BLOCK ADDRESS 0x1d28 ===
  0x1d28	nop    	dword ptr [eax + eax]
  0x1d2d	dec    	eax
  0x1d2e	lea    	ecx, [ebp + 0x3c0]
  0x1d34	dec    	eax
  0x1d35	call   	dword ptr [0x271d]
  === BLOCK LINK ===
    0x1d3b
=== CODE BLOCK END ===

=== CODE BLOCK ADDRESS 0x1d3b ===
  0x1d3b	nop    	dword ptr [eax + eax]
  0x1d40	dec    	eax
  0x1d41	lea    	ecx, [ebp + 0x200]
  0x1d47	dec    	eax
  0x1d48	call   	dword ptr [0x27ca]
  === BLOCK LINK ===
    0x1d4e
=== CODE BLOCK END ===

=== CODE BLOCK ADDRESS 0x1d4e ===
  0x1d4e	nop    	dword ptr [eax + eax]
  0x1d53	inc    	eax
  0x1d54	mov    	al, bh
  0x1d56	dec    	eax
  0x1d57	mov    	ecx, dword ptr [ebp + 0x620]
  === BLOCK LINK ===
    0x1d5d
=== CODE BLOCK END ===

=== CODE BLOCK ADDRESS 0x1d5d ===
  0x1d5d	dec    	eax
  0x1d5e	xor    	ecx, esp
  0x1d60	call   	0x3000
  === BLOCK LINK ===
    0x1d65
=== CODE BLOCK END ===

=== CODE BLOCK ADDRESS 0x1d65 ===
  0x1d65	dec    	esp
  0x1d66	lea    	ebx, [esp + 0x730]
  0x1d6d	dec    	ecx
  0x1d6e	mov    	ebx, dword ptr [ebx + 0x38]
  0x1d71	dec    	ecx
  === BLOCK LINK ===
    0x1d72
=== CODE BLOCK END ===

=== CODE BLOCK ADDRESS 0x1d72 ===
  0x1d72	mov    	esi, dword ptr [ebx + 0x40]
  0x1d75	dec    	ecx
  0x1d76	mov    	edi, dword ptr [ebx + 0x48]
  0x1d79	dec    	ecx
  0x1d7a	mov    	esp, ebx
  === BLOCK LINK ===
    0x1d7c
=== CODE BLOCK END ===

=== CODE BLOCK ADDRESS 0x1d7c ===
  0x1d7c	inc    	ecx
  0x1d7d	pop    	edi
  0x1d7e	inc    	ecx
  0x1d7f	pop    	esi
  0x1d80	inc    	ecx
  === BLOCK LINK ===
    0x1d81
=== CODE BLOCK END ===

=== CODE BLOCK ADDRESS 0x1d81 ===
  0x1d81	pop    	ebp
  0x1d82	inc    	ecx
  0x1d83	pop    	esp
  0x1d84	pop    	ebp
  0x1d85	ret    	
  === BLOCK LINK ===
    0x1d86
=== CODE BLOCK END ===

=== CODE BLOCK ADDRESS 0x1166 ===
  0x1166	dec    	eax
  0x1167	lea    	ecx, [ebp - 0x39]
  0x116a	dec    	eax
  0x116b	call   	dword ptr [0x33a7]
  === BLOCK LINK ===
    0x1171
=== CODE BLOCK END ===

=== CODE BLOCK ADDRESS 0x1d86 ===
  0x1d86	int3   	
  0x1d87	inc    	ecx
  0x1d88	cmp    	byte ptr [edi + 0xf8], bh
  0x1d8e	je     	0x1e1f
  === BLOCK LINK ===
    0x1d94
=== CODE BLOCK END ===

=== CODE BLOCK ADDRESS 0x1d94 ===
  0x1d94	inc    	ecx
  0x1d95	cmp    	dword ptr [edi + 0xfc], edi
  0x1d9b	je     	0x1dee
  === BLOCK LINK ===
    0x1d9d
=== CODE BLOCK END ===

=== CODE BLOCK ADDRESS 0x1d9d ===
  0x1d9d	dec    	eax
  0x1d9e	lea    	ecx, [esp + 0x68]
  0x1da2	dec    	eax
  0x1da3	call   	dword ptr [0x2497]
  === BLOCK LINK ===
    0x1da9
=== CODE BLOCK END ===

=== CODE BLOCK ADDRESS 0x1da9 ===
  0x1da9	nop    	dword ptr [eax + eax]
  0x1dae	mov    	edx, dword ptr [esp + 0x68]
  0x1db2	mov    	ecx, 0xa
  0x1db7	test   	al, al
  0x1db9	cmove  	edx, ecx
  === BLOCK LINK ===
    0x1dbc
=== CODE BLOCK END ===

=== CODE BLOCK ADDRESS 0x1dbc ===
  0x1dbc	mov    	dword ptr [esp + 0x68], edx
  0x1dc0	mov    	dword ptr [esp + 0x20], edx
  0x1dc4	mov    	edx, 0x774e
  0x1dc9	dec    	ecx
  0x1dca	mov    	eax, dword ptr [edi]
  === BLOCK LINK ===
    0x1dcc
=== CODE BLOCK END ===

=== CODE BLOCK ADDRESS 0x1dcc ===
  0x1dcc	dec    	esp
  0x1dcd	lea    	ecx, [0x28b1]
  0x1dd3	inc    	ebp
  0x1dd4	xor    	eax, eax
  0x1dd6	dec    	ecx
  === BLOCK LINK ===
    0x1dd7
=== CODE BLOCK END ===

=== CODE BLOCK ADDRESS 0x1dd7 ===
  0x1dd7	mov    	ecx, edi
  0x1dd9	dec    	eax
  0x1dda	mov    	eax, dword ptr [eax + 0x18]
  0x1ddd	call   	dword ptr [0x2755]
  === BLOCK LINK ===
    0x1de3
=== CODE BLOCK END ===

=== CODE BLOCK ADDRESS 0x1de3 ===
  0x1de3	inc    	ecx
  0x1de4	mov    	esi, 1
  0x1de9	jmp    	0x1c63
  === BLOCK LINK ===
    0x1dee
=== CODE BLOCK END ===

=== CODE BLOCK ADDRESS 0x1dee ===
  0x1dee	inc    	ecx
  0x1def	mov    	ecx, dword ptr [edi + 0x100]
  0x1df5	test   	ecx, ecx
  0x1df7	js     	0x1c66
  === BLOCK LINK ===
    0x1dfd
=== CODE BLOCK END ===

=== CODE BLOCK ADDRESS 0x1dfd ===
  0x1dfd	dec    	eax
  0x1dfe	call   	dword ptr [0x2434]
  === BLOCK LINK ===
    0x1e04
=== CODE BLOCK END ===

=== CODE BLOCK ADDRESS 0x1e04 ===
  0x1e04	nop    	dword ptr [eax + eax]
  0x1e09	test   	al, al
  0x1e0b	jne    	0x1de3
  === BLOCK LINK ===
    0x1e0d
=== CODE BLOCK END ===

=== CODE BLOCK ADDRESS 0x1e0d ===
  0x1e0d	inc    	ecx
  0x1e0e	mov    	ecx, dword ptr [edi + 0x100]
  0x1e14	mov    	edx, 0x774d
  0x1e19	mov    	dword ptr [esp + 0x20], ecx
  0x1e1d	jmp    	0x1dc9
  === BLOCK LINK ===
    0x1e1f
=== CODE BLOCK END ===

=== CODE BLOCK ADDRESS 0x1e1f ===
  0x1e1f	inc    	ebp
  0x1e20	mov    	eax, ebp
  0x1e22	dec    	eax
  0x1e23	lea    	edx, [0x285f]
  0x1e29	dec    	eax
  === BLOCK LINK ===
    0x1e2a
=== CODE BLOCK END ===

=== CODE BLOCK ADDRESS 0x1e2a ===
  0x1e2a	lea    	ecx, [ebp + 0x1a0]
  0x1e30	dec    	eax
  0x1e31	call   	dword ptr [0x2559]
  === BLOCK LINK ===
    0x1e37
=== CODE BLOCK END ===

=== CODE BLOCK ADDRESS 0x1e37 ===
  0x1e37	nop    	dword ptr [eax + eax]
  0x1e3c	test   	al, al
  0x1e3e	je     	0x1c66
  === BLOCK LINK ===
    0x1e44
=== CODE BLOCK END ===

=== CODE BLOCK ADDRESS 0x1e44 ===
  0x1e44	inc    	ebp
  0x1e45	mov    	eax, ebp
  0x1e47	dec    	eax
  0x1e48	lea    	edx, [0x2842]
  0x1e4e	dec    	eax
  === BLOCK LINK ===
    0x1e4f
=== CODE BLOCK END ===

=== CODE BLOCK ADDRESS 0x1e4f ===
  0x1e4f	lea    	ecx, [ebp + 0x170]
  0x1e55	dec    	eax
  0x1e56	call   	dword ptr [0x2534]
  === BLOCK LINK ===
    0x1e5c
=== CODE BLOCK END ===

=== CODE BLOCK ADDRESS 0x1e5c ===
  0x1e5c	nop    	dword ptr [eax + eax]
  0x1e61	test   	al, al
  0x1e63	je     	0x1c66
  === BLOCK LINK ===
    0x1e69
=== CODE BLOCK END ===

=== CODE BLOCK ADDRESS 0x1e69 ===
  0x1e69	inc    	ebp
  0x1e6a	mov    	eax, ebp
  0x1e6c	dec    	eax
  0x1e6d	lea    	edx, [0x2821]
  0x1e73	dec    	eax
  === BLOCK LINK ===
    0x1e74
=== CODE BLOCK END ===

=== CODE BLOCK ADDRESS 0x1e74 ===
  0x1e74	lea    	ecx, [ebp + 0x140]
  0x1e7a	dec    	eax
  0x1e7b	call   	dword ptr [0x250f]
  === BLOCK LINK ===
    0x1e81
=== CODE BLOCK END ===

=== CODE BLOCK ADDRESS 0x1e81 ===
  0x1e81	nop    	dword ptr [eax + eax]
  0x1e86	test   	al, al
  0x1e88	je     	0x1c66
  === BLOCK LINK ===
    0x1e8e
=== CODE BLOCK END ===

=== CODE BLOCK ADDRESS 0x1e8e ===
  0x1e8e	dec    	eax
  0x1e8f	lea    	ecx, [ebp - 0x58]
  0x1e92	dec    	eax
  0x1e93	call   	dword ptr [0x238f]
  === BLOCK LINK ===
    0x1e99
=== CODE BLOCK END ===

=== CODE BLOCK ADDRESS 0x1e99 ===
  0x1e99	nop    	dword ptr [eax + eax]
  0x1e9e	test   	al, al
  0x1ea0	je     	0x1c66
  === BLOCK LINK ===
    0x1ea6
=== CODE BLOCK END ===

=== CODE BLOCK ADDRESS 0x1ea6 ===
  0x1ea6	dec    	ecx
  0x1ea7	mov    	ecx, dword ptr [edi + 0x168]
  0x1ead	dec    	eax
  0x1eae	mov    	eax, dword ptr [ecx]
  0x1eb0	dec    	eax
  === BLOCK LINK ===
    0x1eb1
=== CODE BLOCK END ===

=== CODE BLOCK ADDRESS 0x1eb1 ===
  0x1eb1	mov    	eax, dword ptr [eax + 0x30]
  0x1eb4	call   	dword ptr [0x267e]
  === BLOCK LINK ===
    0x1eba
=== CODE BLOCK END ===

=== CODE BLOCK ADDRESS 0x1eba ===
  0x1eba	dec    	eax
  0x1ebb	mov    	ebx, eax
  0x1ebd	dec    	eax
  0x1ebe	mov    	ecx, dword ptr [eax]
  0x1ec0	dec    	eax
  === BLOCK LINK ===
    0x1ec1
=== CODE BLOCK END ===

=== CODE BLOCK ADDRESS 0x1ec1 ===
  0x1ec1	mov    	eax, dword ptr [ecx + 0x38]
  0x1ec4	dec    	eax
  0x1ec5	mov    	ecx, ebx
  0x1ec7	call   	dword ptr [0x266b]
  === BLOCK LINK ===
    0x1ecd
=== CODE BLOCK END ===

=== CODE BLOCK ADDRESS 0x1ecd ===
  0x1ecd	dec    	eax
  0x1ece	mov    	ecx, dword ptr [ebx]
  0x1ed0	dec    	eax
  0x1ed1	mov    	eax, dword ptr [ecx + 0x28]
  0x1ed4	dec    	eax
  === BLOCK LINK ===
    0x1ed5
=== CODE BLOCK END ===

=== CODE BLOCK ADDRESS 0x1ed5 ===
  0x1ed5	mov    	ecx, ebx
  0x1ed7	call   	dword ptr [0x265b]
  === BLOCK LINK ===
    0x1edd
=== CODE BLOCK END ===

=== CODE BLOCK ADDRESS 0x1edd ===
  0x1edd	inc    	ecx
  0x1ede	mov    	esi, 1
  0x1ee3	jmp    	0x200d
  === BLOCK LINK ===
    0x1ee8
=== CODE BLOCK END ===

=== CODE BLOCK ADDRESS 0x1ee8 ===
  0x1ee8	dec    	esp
  0x1ee9	lea    	ecx, [ebp + 0x1d0]
  0x1eef	dec    	eax
  0x1ef0	mov    	ecx, eax
  0x1ef2	dec    	esp
  === BLOCK LINK ===
    0x1ef3
=== CODE BLOCK END ===

=== CODE BLOCK ADDRESS 0x1ef3 ===
  0x1ef3	lea    	eax, [ebp + 0x3c0]
  0x1ef9	dec    	eax
  0x1efa	lea    	edx, [ebp + 0x200]
  0x1f00	dec    	esp
  0x1f01	lea    	esp, [eax + 0x218]
  === BLOCK LINK ===
    0x1f07
=== CODE BLOCK END ===

=== CODE BLOCK ADDRESS 0x1f07 ===
  0x1f07	dec    	eax
  0x1f08	call   	dword ptr [0x2612]
  === BLOCK LINK ===
    0x1f0e
=== CODE BLOCK END ===

=== CODE BLOCK ADDRESS 0x1f0e ===
  0x1f0e	nop    	dword ptr [eax + eax]
  0x1f13	test   	eax, eax
  0x1f15	js     	0x20e3
  === BLOCK LINK ===
    0x1f1b
=== CODE BLOCK END ===

=== CODE BLOCK ADDRESS 0x1f1b ===
  0x1f1b	inc    	ecx
  0x1f1c	cmp    	eax, esi
  0x1f1e	jg     	0x211e
  === BLOCK LINK ===
    0x1f24
=== CODE BLOCK END ===

=== CODE BLOCK ADDRESS 0x1f24 ===
  0x1f24	cmp    	dword ptr [ebp + 0x1e8], edi
  0x1f2a	jne    	0x20e3
  === BLOCK LINK ===
    0x1f30
=== CODE BLOCK END ===

=== CODE BLOCK ADDRESS 0x1f30 ===
  0x1f30	dec    	eax
  0x1f32	mov    	ecx, dword ptr [0x60]
  0x1f39	xor    	edx, edx
  0x1f3b	inc    	ecx
  0x1f3c	mov    	eax, 0xa8
  === BLOCK LINK ===
    0x1f41
=== CODE BLOCK END ===

=== CODE BLOCK ADDRESS 0x1f41 ===
  0x1f41	dec    	eax
  0x1f42	mov    	ecx, dword ptr [ecx + 0x30]
  0x1f45	dec    	eax
  0x1f46	call   	dword ptr [0x2414]
  === BLOCK LINK ===
    0x1f4c
=== CODE BLOCK END ===

=== CODE BLOCK ADDRESS 0x1f4c ===
  0x1f4c	nop    	dword ptr [eax + eax]
  0x1f51	dec    	eax
  0x1f52	test   	eax, eax
  0x1f54	je     	0x1f6a
  === BLOCK LINK ===
    0x1f56
=== CODE BLOCK END ===

=== CODE BLOCK ADDRESS 0x1f56 ===
  0x1f56	dec    	eax
  0x1f57	mov    	ecx, eax
  0x1f59	dec    	eax
  0x1f5a	call   	dword ptr [0x22b0]
  === BLOCK LINK ===
    0x1f60
=== CODE BLOCK END ===

=== CODE BLOCK ADDRESS 0x1f60 ===
  0x1f60	nop    	dword ptr [eax + eax]
  0x1f65	dec    	eax
  0x1f66	mov    	esi, eax
  0x1f68	jmp    	0x1f6d
  === BLOCK LINK ===
    0x1f6a
=== CODE BLOCK END ===

=== CODE BLOCK ADDRESS 0x1f6a ===
  0x1f6a	dec    	eax
  0x1f6b	mov    	esi, edi
  0x1f6d	dec    	eax
  0x1f6e	test   	esi, esi
  0x1f70	je     	0x2107
  === BLOCK LINK ===
    0x1f76
=== CODE BLOCK END ===

=== CODE BLOCK ADDRESS 0x1f76 ===
  0x1f76	dec    	eax
  0x1f77	lea    	ecx, [esi + 0x10]
  0x1f7a	inc    	ebp
  0x1f7b	mov    	ecx, ebp
  0x1f7d	inc    	ebp
  === BLOCK LINK ===
    0x1f7e
=== CODE BLOCK END ===

=== CODE BLOCK ADDRESS 0x1f7e ===
  0x1f7e	xor    	eax, eax
  0x1f80	dec    	ecx
  0x1f81	mov    	edx, esp
  0x1f83	dec    	eax
  0x1f84	call   	dword ptr [0x23f6]
  === BLOCK LINK ===
    0x1f8a
=== CODE BLOCK END ===

=== CODE BLOCK ADDRESS 0x1f8a ===
  0x1f8a	nop    	dword ptr [eax + eax]
  0x1f8f	test   	al, al
  0x1f91	je     	0x20cf
  === BLOCK LINK ===
    0x1f97
=== CODE BLOCK END ===

=== CODE BLOCK ADDRESS 0x1f97 ===
  0x1f97	dec    	eax
  0x1f98	lea    	ecx, [esi + 0x40]
  0x1f9b	inc    	ebp
  0x1f9c	mov    	ecx, ebp
  0x1f9e	inc    	ebp
  === BLOCK LINK ===
    0x1f9f
=== CODE BLOCK END ===

=== CODE BLOCK ADDRESS 0x1f9f ===
  0x1f9f	xor    	eax, eax
  0x1fa1	dec    	eax
  0x1fa2	lea    	edx, [ebp + 0x200]
  0x1fa8	dec    	eax
  0x1fa9	call   	dword ptr [0x23d1]
  === BLOCK LINK ===
    0x1faf
=== CODE BLOCK END ===

=== CODE BLOCK ADDRESS 0x1faf ===
  0x1faf	nop    	dword ptr [eax + eax]
  0x1fb4	test   	al, al
  0x1fb6	je     	0x20cf
  === BLOCK LINK ===
    0x1fbc
=== CODE BLOCK END ===

=== CODE BLOCK ADDRESS 0x1fbc ===
  0x1fbc	dec    	eax
  0x1fbd	lea    	ecx, [esi + 0x70]
  0x1fc0	inc    	ebp
  0x1fc1	mov    	ecx, ebp
  0x1fc3	inc    	ebp
  === BLOCK LINK ===
    0x1fc4
=== CODE BLOCK END ===

=== CODE BLOCK ADDRESS 0x1fc4 ===
  0x1fc4	xor    	eax, eax
  0x1fc6	dec    	eax
  0x1fc7	lea    	edx, [ebp + 0x5d8]
  0x1fcd	dec    	eax
  0x1fce	call   	dword ptr [0x23ac]
  === BLOCK LINK ===
    0x1fd4
=== CODE BLOCK END ===

=== CODE BLOCK ADDRESS 0x1fd4 ===
  0x1fd4	nop    	dword ptr [eax + eax]
  0x1fd9	test   	al, al
  0x1fdb	je     	0x20cf
  === BLOCK LINK ===
    0x1fe1
=== CODE BLOCK END ===

=== CODE BLOCK ADDRESS 0x1fe1 ===
  0x1fe1	dec    	eax
  0x1fe2	mov    	ecx, dword ptr [ebp - 0x48]
  0x1fe5	dec    	eax
  0x1fe6	mov    	edx, esi
  0x1fe8	dec    	eax
  === BLOCK LINK ===
    0x1fe9
=== CODE BLOCK END ===

=== CODE BLOCK ADDRESS 0x1fe9 ===
  0x1fe9	mov    	eax, dword ptr [ecx]
  0x1feb	dec    	eax
  0x1fec	mov    	eax, dword ptr [eax + 0x18]
  0x1fef	call   	dword ptr [0x2543]
  === BLOCK LINK ===
    0x1ff5
=== CODE BLOCK END ===

=== CODE BLOCK ADDRESS 0x1ff5 ===
  0x1ff5	test   	al, al
  0x1ff7	je     	0x20cf
  === BLOCK LINK ===
    0x1ffd
=== CODE BLOCK END ===

=== CODE BLOCK ADDRESS 0x1ffd ===
  0x1ffd	dec    	eax
  0x1ffe	mov    	eax, dword ptr [ebx]
  0x2000	dec    	eax
  0x2001	mov    	ecx, ebx
  0x2003	dec    	eax
  === BLOCK LINK ===
    0x2004
=== CODE BLOCK END ===

=== CODE BLOCK ADDRESS 0x2004 ===
  0x2004	mov    	eax, dword ptr [eax + 0x28]
  0x2007	call   	dword ptr [0x252b]
  === BLOCK LINK ===
    0x200d
=== CODE BLOCK END ===

=== CODE BLOCK ADDRESS 0x200d ===
  0x200d	dec    	eax
  0x200e	test   	eax, eax
  0x2010	jne    	0x1ee8
  === BLOCK LINK ===
    0x2016
=== CODE BLOCK END ===

=== CODE BLOCK ADDRESS 0x2016 ===
  0x2016	dec    	eax
  0x2017	mov    	eax, dword ptr [ebx]
  0x2019	inc    	ecx
  0x201a	mov    	edx, esi
  0x201c	dec    	eax
  === BLOCK LINK ===
    0x201d
=== CODE BLOCK END ===

=== CODE BLOCK ADDRESS 0x201d ===
  0x201d	mov    	ecx, ebx
  0x201f	dec    	eax
  0x2020	mov    	eax, dword ptr [eax]
  0x2022	call   	dword ptr [0x2510]
  === BLOCK LINK ===
    0x2028
=== CODE BLOCK END ===

=== CODE BLOCK ADDRESS 0x2028 ===
  0x2028	dec    	eax
  0x2029	mov    	ecx, dword ptr [ebp - 0x48]
  0x202c	dec    	eax
  0x202d	mov    	eax, dword ptr [ecx]
  0x202f	dec    	eax
  === BLOCK LINK ===
    0x2030
=== CODE BLOCK END ===

=== CODE BLOCK ADDRESS 0x2030 ===
  0x2030	mov    	eax, dword ptr [eax + 0x30]
  0x2033	call   	dword ptr [0x24ff]
  === BLOCK LINK ===
    0x2039
=== CODE BLOCK END ===

=== CODE BLOCK ADDRESS 0x2039 ===
  0x2039	dec    	eax
  0x203a	mov    	esi, eax
  0x203c	dec    	eax
  0x203d	mov    	ecx, dword ptr [eax]
  0x203f	dec    	eax
  === BLOCK LINK ===
    0x2040
=== CODE BLOCK END ===

=== CODE BLOCK ADDRESS 0x2040 ===
  0x2040	mov    	eax, dword ptr [ecx + 0x38]
  0x2043	dec    	eax
  0x2044	mov    	ecx, esi
  0x2046	call   	dword ptr [0x24ec]
  === BLOCK LINK ===
    0x204c
=== CODE BLOCK END ===

=== CODE BLOCK ADDRESS 0x204c ===
  0x204c	dec    	eax
  0x204d	mov    	ecx, dword ptr [esi]
  0x204f	dec    	eax
  0x2050	mov    	eax, dword ptr [ecx + 0x28]
  0x2053	dec    	eax
  === BLOCK LINK ===
    0x2054
=== CODE BLOCK END ===

=== CODE BLOCK ADDRESS 0x2054 ===
  0x2054	mov    	ecx, esi
  0x2056	call   	dword ptr [0x24dc]
  === BLOCK LINK ===
    0x205c
=== CODE BLOCK END ===

=== CODE BLOCK ADDRESS 0x205c ===
  0x205c	dec    	eax
  0x205d	test   	eax, eax
  0x205f	je     	0x21c6
  === BLOCK LINK ===
    0x2065
=== CODE BLOCK END ===

=== CODE BLOCK ADDRESS 0x2065 ===
  0x2065	dec    	esp
  0x2066	lea    	esp, [eax + 0x40]
  0x2069	inc    	ecx
  0x206a	mov    	ecx, esi
  0x206c	dec    	esp
  === BLOCK LINK ===
    0x206d
=== CODE BLOCK END ===

=== CODE BLOCK ADDRESS 0x206d ===
  0x206d	mov    	dword ptr [esp + 0x68], esp
  0x2071	dec    	esp
  0x2072	lea    	ebp, [eax + 0x10]
  0x2075	dec    	eax
  0x2076	call   	dword ptr [0x222c]
  === BLOCK LINK ===
    0x207c
=== CODE BLOCK END ===

=== CODE BLOCK ADDRESS 0x207c ===
  0x207c	nop    	dword ptr [eax + eax]
  0x2081	dec    	ecx
  0x2082	mov    	ecx, esp
  0x2084	mov    	ebx, eax
  0x2086	dec    	eax
  === BLOCK LINK ===
    0x2087
=== CODE BLOCK END ===

=== CODE BLOCK ADDRESS 0x2087 ===
  0x2087	call   	dword ptr [0x243b]
  === BLOCK LINK ===
    0x208d
=== CODE BLOCK END ===

=== CODE BLOCK ADDRESS 0x208d ===
  0x208d	nop    	dword ptr [eax + eax]
  0x2092	mov    	ecx, ebx
  0x2094	inc    	esp
  0x2095	mov    	esp, eax
  0x2097	dec    	eax
  === BLOCK LINK ===
    0x2098
=== CODE BLOCK END ===

=== CODE BLOCK ADDRESS 0x2098 ===
  0x2098	call   	dword ptr [0x220a]
  === BLOCK LINK ===
    0x209e
=== CODE BLOCK END ===

=== CODE BLOCK ADDRESS 0x209e ===
  0x209e	nop    	dword ptr [eax + eax]
  0x20a3	inc    	ebp
  0x20a4	test   	esp, esp
  0x20a6	je     	0x252b
  === BLOCK LINK ===
    0x20ac
=== CODE BLOCK END ===

=== CODE BLOCK ADDRESS 0x20ac ===
  0x20ac	inc    	ebp
  0x20ad	sub    	esp, esi
  0x20af	je     	0x212f
  === BLOCK LINK ===
    0x20b1
=== CODE BLOCK END ===

=== CODE BLOCK ADDRESS 0x20b1 ===
  0x20b1	inc    	ecx
  0x20b2	sub    	esp, 2
  0x20b5	je     	0x250a
  === BLOCK LINK ===
    0x20bb
=== CODE BLOCK END ===

=== CODE BLOCK ADDRESS 0x20bb ===
  0x20bb	inc    	ecx
  0x20bc	cmp    	esp, 2
  0x20bf	jne    	0x21a9
  === BLOCK LINK ===
    0x20c5
=== CODE BLOCK END ===

=== CODE BLOCK ADDRESS 0x20c5 ===
  0x20c5	mov    	edx, 0x7745
  0x20ca	jmp    	0x2530
  === BLOCK LINK ===
    0x20cf
=== CODE BLOCK END ===

=== CODE BLOCK ADDRESS 0x20cf ===
  0x20cf	dec    	eax
  0x20d0	mov    	eax, dword ptr [esi]
  0x20d2	inc    	ecx
  0x20d3	mov    	edx, esi
  0x20d5	dec    	eax
  === BLOCK LINK ===
    0x20d6
=== CODE BLOCK END ===

=== CODE BLOCK ADDRESS 0x20d6 ===
  0x20d6	mov    	ecx, esi
  0x20d8	dec    	eax
  0x20d9	mov    	eax, dword ptr [eax]
  0x20db	call   	dword ptr [0x2457]
  === BLOCK LINK ===
    0x20e1
=== CODE BLOCK END ===

=== CODE BLOCK ADDRESS 0x20e1 ===
  0x20e1	jmp    	0x2107
  === BLOCK LINK ===
    0x20e3
=== CODE BLOCK END ===

=== CODE BLOCK ADDRESS 0x20e3 ===
  0x20e3	mov    	edx, 0x773e
  0x20e8	dec    	ecx
  0x20e9	mov    	eax, dword ptr [edi]
  0x20eb	dec    	esp
  0x20ec	lea    	ecx, [0x253a]
  === BLOCK LINK ===
    0x20f2
=== CODE BLOCK END ===

=== CODE BLOCK ADDRESS 0x20f2 ===
  0x20f2	inc    	ebp
  0x20f3	xor    	eax, eax
  0x20f5	dec    	esp
  0x20f6	mov    	dword ptr [esp + 0x20], esp
  0x20fa	dec    	ecx
  === BLOCK LINK ===
    0x20fb
=== CODE BLOCK END ===

=== CODE BLOCK ADDRESS 0x20fb ===
  0x20fb	mov    	ecx, edi
  0x20fd	dec    	eax
  0x20fe	mov    	eax, dword ptr [eax + 0x18]
  0x2101	call   	dword ptr [0x2431]
  === BLOCK LINK ===
    0x2107
=== CODE BLOCK END ===

=== CODE BLOCK ADDRESS 0x2107 ===
  0x2107	dec    	eax
  0x2108	mov    	eax, dword ptr [ebx]
  0x210a	dec    	eax
  0x210b	mov    	ecx, ebx
  0x210d	dec    	eax
  === BLOCK LINK ===
    0x210e
=== CODE BLOCK END ===

=== CODE BLOCK ADDRESS 0x210e ===
  0x210e	mov    	eax, dword ptr [eax]
  0x2110	inc    	ecx
  0x2111	mov    	edx, esi
  0x2113	call   	dword ptr [0x241f]
  === BLOCK LINK ===
    0x2119
=== CODE BLOCK END ===

=== CODE BLOCK ADDRESS 0x2119 ===
  0x2119	jmp    	0x1c66
  === BLOCK LINK ===
    0x211e
=== CODE BLOCK END ===

=== CODE BLOCK ADDRESS 0x211e ===
  0x211e	cmp    	eax, 2
  0x2121	je     	0x2107
  === BLOCK LINK ===
    0x2123
=== CODE BLOCK END ===

=== CODE BLOCK ADDRESS 0x2123 ===
  0x2123	cmp    	eax, 4
  0x2126	jne    	0x20e3
  === BLOCK LINK ===
    0x2128
=== CODE BLOCK END ===

=== CODE BLOCK ADDRESS 0x2128 ===
  0x2128	mov    	edx, 0x774a
  0x212d	jmp    	0x20e8
  === BLOCK LINK ===
    0x212f
=== CODE BLOCK END ===

=== CODE BLOCK ADDRESS 0x212f ===
  0x212f	dec    	eax
  0x2130	mov    	ecx, dword ptr [esp + 0x68]
  0x2134	dec    	eax
  0x2135	lea    	edx, [esp + 0x70]
  0x2139	dec    	eax
  === BLOCK LINK ===
    0x213a
=== CODE BLOCK END ===

=== CODE BLOCK ADDRESS 0x213a ===
  0x213a	call   	dword ptr [0x20c0]
  === BLOCK LINK ===
    0x2140
=== CODE BLOCK END ===

=== CODE BLOCK ADDRESS 0x2140 ===
  0x2140	nop    	dword ptr [eax + eax]
  0x2145	test   	al, al
  0x2147	je     	0x254f
  === BLOCK LINK ===
    0x214d
=== CODE BLOCK END ===

=== CODE BLOCK ADDRESS 0x214d ===
  0x214d	inc    	ecx
  0x214e	mov    	ecx, esi
  0x2150	dec    	eax
  0x2151	call   	dword ptr [0x2151]
  === BLOCK LINK ===
    0x2157
=== CODE BLOCK END ===

=== CODE BLOCK ADDRESS 0x2157 ===
  0x2157	nop    	dword ptr [eax + eax]
  0x215c	inc    	ebp
  0x215d	xor    	ecx, ecx
  0x215f	inc    	eax
  0x2160	mov    	byte ptr [esp + 0x20], bh
  === BLOCK LINK ===
    0x2164
=== CODE BLOCK END ===

=== CODE BLOCK ADDRESS 0x2164 ===
  0x2164	inc    	ebp
  0x2165	xor    	eax, eax
  0x2167	dec    	eax
  0x2168	lea    	edx, [esp + 0x70]
  0x216c	dec    	eax
  === BLOCK LINK ===
    0x216d
=== CODE BLOCK END ===

=== CODE BLOCK ADDRESS 0x216d ===
  0x216d	lea    	ecx, [ebp + 0x230]
  0x2173	mov    	ebx, eax
  0x2175	dec    	eax
  0x2176	call   	dword ptr [0x209c]
  === BLOCK LINK ===
    0x217c
=== CODE BLOCK END ===

=== CODE BLOCK ADDRESS 0x217c ===
  0x217c	nop    	dword ptr [eax + eax]
  0x2181	mov    	ecx, ebx
  0x2183	test   	al, al
  0x2185	je     	0x2518
  === BLOCK LINK ===
    0x218b
=== CODE BLOCK END ===

=== CODE BLOCK ADDRESS 0x218b ===
  0x218b	dec    	eax
  0x218c	call   	dword ptr [0x2116]
  === BLOCK LINK ===
    0x2192
=== CODE BLOCK END ===

=== CODE BLOCK ADDRESS 0x2192 ===
  0x2192	nop    	dword ptr [eax + eax]
  0x2197	mov    	eax, dword ptr [ebp + 0x360]
  0x219d	add    	eax, -0xb
  0x21a0	inc    	ecx
  0x21a1	cmp    	eax, esi
  === BLOCK LINK ===
    0x21a3
=== CODE BLOCK END ===

=== CODE BLOCK ADDRESS 0x21a3 ===
  0x21a3	ja     	0x2511
  === BLOCK LINK ===
    0x21a9
=== CODE BLOCK END ===

=== CODE BLOCK ADDRESS 0x21a9 ===
  0x21a9	dec    	eax
  0x21aa	mov    	eax, dword ptr [esi]
  0x21ac	dec    	eax
  0x21ad	mov    	ecx, esi
  0x21af	dec    	eax
  === BLOCK LINK ===
    0x21b0
=== CODE BLOCK END ===

=== CODE BLOCK ADDRESS 0x21b0 ===
  0x21b0	mov    	eax, dword ptr [eax + 0x28]
  0x21b3	call   	dword ptr [0x237f]
  === BLOCK LINK ===
    0x21b9
=== CODE BLOCK END ===

=== CODE BLOCK ADDRESS 0x21b9 ===
  0x21b9	dec    	eax
  0x21ba	test   	eax, eax
  0x21bc	jne    	0x2065
  === BLOCK LINK ===
    0x21c2
=== CODE BLOCK END ===

=== CODE BLOCK ADDRESS 0x21c2 ===
  0x21c2	inc    	ecx
  0x21c3	or     	ebp, 0xffffffff
  0x21c6	dec    	eax
  0x21c7	mov    	eax, dword ptr [esi]
  0x21c9	dec    	eax
  === BLOCK LINK ===
    0x21ca
=== CODE BLOCK END ===

=== CODE BLOCK ADDRESS 0x21ca ===
  0x21ca	mov    	ecx, esi
  0x21cc	dec    	eax
  0x21cd	mov    	eax, dword ptr [eax + 0x38]
  0x21d0	call   	dword ptr [0x2362]
  === BLOCK LINK ===
    0x21d6
=== CODE BLOCK END ===

=== CODE BLOCK ADDRESS 0x21d6 ===
  0x21d6	inc    	ecx
  0x21d7	cmp    	byte ptr [edi + 0xf5], bh
  0x21dd	je     	0x2673
  === BLOCK LINK ===
    0x21e3
=== CODE BLOCK END ===

=== CODE BLOCK ADDRESS 0x21e3 ===
  0x21e3	dec    	eax
  0x21e4	lea    	ecx, [ebp + 0x50]
  0x21e7	dec    	eax
  0x21e8	call   	dword ptr [0x2322]
  === BLOCK LINK ===
    0x21ee
=== CODE BLOCK END ===

=== CODE BLOCK ADDRESS 0x21ee ===
  0x21ee	nop    	dword ptr [eax + eax]
  0x21f3	dec    	eax
  0x21f4	lea    	ecx, [ebp + 0x20]
  0x21f7	dec    	eax
  0x21f8	call   	dword ptr [0x2312]
  === BLOCK LINK ===
    0x21fe
=== CODE BLOCK END ===

=== CODE BLOCK ADDRESS 0x21fe ===
  0x21fe	nop    	dword ptr [eax + eax]
  0x2203	inc    	ecx
  0x2204	cmp    	byte ptr [edi + 0x104], bh
  0x220a	je     	0x2238
  === BLOCK LINK ===
    0x220c
=== CODE BLOCK END ===

=== CODE BLOCK ADDRESS 0x220c ===
  0x220c	inc    	ebp
  0x220d	mov    	eax, ebp
  0x220f	dec    	eax
  0x2210	lea    	edx, [0x243a]
  0x2216	dec    	eax
  === BLOCK LINK ===
    0x2217
=== CODE BLOCK END ===

=== CODE BLOCK ADDRESS 0x2217 ===
  0x2217	lea    	ecx, [esp + 0x38]
  0x221b	dec    	eax
  0x221c	call   	dword ptr [0x216e]
  === BLOCK LINK ===
    0x2222
=== CODE BLOCK END ===

=== CODE BLOCK ADDRESS 0x2222 ===
  0x2222	nop    	dword ptr [eax + eax]
  0x2227	test   	al, al
  0x2229	je     	0x2648
  === BLOCK LINK ===
    0x222f
=== CODE BLOCK END ===

=== CODE BLOCK ADDRESS 0x222f ===
  0x222f	inc    	ecx
  0x2230	cmp    	byte ptr [edi + 0x104], bh
  0x2236	jne    	0x225b
  === BLOCK LINK ===
    0x2238
=== CODE BLOCK END ===

=== CODE BLOCK ADDRESS 0x2238 ===
  0x2238	inc    	ebp
  0x2239	mov    	eax, ebp
  0x223b	dec    	eax
  0x223c	lea    	edx, [0x242e]
  0x2242	dec    	eax
  === BLOCK LINK ===
    0x2243
=== CODE BLOCK END ===

=== CODE BLOCK ADDRESS 0x2243 ===
  0x2243	lea    	ecx, [esp + 0x38]
  0x2247	dec    	eax
  0x2248	call   	dword ptr [0x2142]
  === BLOCK LINK ===
    0x224e
=== CODE BLOCK END ===

=== CODE BLOCK ADDRESS 0x224e ===
  0x224e	nop    	dword ptr [eax + eax]
  0x2253	test   	al, al
  0x2255	je     	0x2648
  === BLOCK LINK ===
    0x225b
=== CODE BLOCK END ===

=== CODE BLOCK ADDRESS 0x225b ===
  0x225b	inc    	ecx
  0x225c	mov    	dl, dh
  0x225e	dec    	eax
  0x225f	lea    	ecx, [esp + 0x38]
  0x2263	dec    	eax
  === BLOCK LINK ===
    0x2264
=== CODE BLOCK END ===

=== CODE BLOCK ADDRESS 0x2264 ===
  0x2264	call   	dword ptr [0x1f56]
  === BLOCK LINK ===
    0x226a
=== CODE BLOCK END ===

=== CODE BLOCK ADDRESS 0x226a ===
  0x226a	nop    	dword ptr [eax + eax]
  0x226f	test   	al, al
  0x2271	je     	0x2648
  === BLOCK LINK ===
    0x2277
=== CODE BLOCK END ===

=== CODE BLOCK ADDRESS 0x2277 ===
  0x2277	inc    	ecx
  0x2278	cmp    	byte ptr [edi + 0x104], bh
  0x227e	je     	0x22ac
  === BLOCK LINK ===
    0x2280
=== CODE BLOCK END ===

=== CODE BLOCK ADDRESS 0x2280 ===
  0x2280	inc    	ebp
  0x2281	mov    	eax, ebp
  0x2283	dec    	eax
  0x2284	lea    	edx, [0x2416]
  0x228a	dec    	eax
  === BLOCK LINK ===
    0x228b
=== CODE BLOCK END ===

=== CODE BLOCK ADDRESS 0x228b ===
  0x228b	lea    	ecx, [esp + 0x38]
  0x228f	dec    	eax
  0x2290	call   	dword ptr [0x20fa]
  === BLOCK LINK ===
    0x2296
=== CODE BLOCK END ===

=== CODE BLOCK ADDRESS 0x2296 ===
  0x2296	nop    	dword ptr [eax + eax]
  0x229b	test   	al, al
  0x229d	je     	0x2648
  === BLOCK LINK ===
    0x22a3
=== CODE BLOCK END ===

=== CODE BLOCK ADDRESS 0x22a3 ===
  0x22a3	inc    	ecx
  0x22a4	cmp    	byte ptr [edi + 0x104], bh
  0x22aa	jne    	0x22cf
  === BLOCK LINK ===
    0x22ac
=== CODE BLOCK END ===

=== CODE BLOCK ADDRESS 0x22ac ===
  0x22ac	inc    	ebp
  0x22ad	mov    	eax, ebp
  0x22af	dec    	eax
  0x22b0	lea    	edx, [0x240a]
  0x22b6	dec    	eax
  === BLOCK LINK ===
    0x22b7
=== CODE BLOCK END ===

=== CODE BLOCK ADDRESS 0x22b7 ===
  0x22b7	lea    	ecx, [esp + 0x38]
  0x22bb	dec    	eax
  0x22bc	call   	dword ptr [0x20ce]
  === BLOCK LINK ===
    0x22c2
=== CODE BLOCK END ===

=== CODE BLOCK ADDRESS 0x22c2 ===
  0x22c2	nop    	dword ptr [eax + eax]
  0x22c7	test   	al, al
  0x22c9	je     	0x2648
  === BLOCK LINK ===
    0x22cf
=== CODE BLOCK END ===

=== CODE BLOCK ADDRESS 0x22cf ===
  0x22cf	inc    	ecx
  0x22d0	mov    	dl, dh
  0x22d2	dec    	eax
  0x22d3	lea    	ecx, [esp + 0x38]
  0x22d7	dec    	eax
  === BLOCK LINK ===
    0x22d8
=== CODE BLOCK END ===

=== CODE BLOCK ADDRESS 0x22d8 ===
  0x22d8	call   	dword ptr [0x1ee2]
  === BLOCK LINK ===
    0x22de
=== CODE BLOCK END ===

=== CODE BLOCK ADDRESS 0x22de ===
  0x22de	nop    	dword ptr [eax + eax]
  0x22e3	test   	al, al
  0x22e5	je     	0x2648
  === BLOCK LINK ===
    0x22eb
=== CODE BLOCK END ===

=== CODE BLOCK ADDRESS 0x22eb ===
  0x22eb	inc    	ecx
  0x22ec	cmp    	byte ptr [edi + 0x104], bh
  0x22f2	je     	0x2320
  === BLOCK LINK ===
    0x22f4
=== CODE BLOCK END ===

=== CODE BLOCK ADDRESS 0x22f4 ===
  0x22f4	inc    	ebp
  0x22f5	mov    	eax, ebp
  0x22f7	dec    	eax
  0x22f8	lea    	edx, [0x23da]
  0x22fe	dec    	eax
  === BLOCK LINK ===
    0x22ff
=== CODE BLOCK END ===

=== CODE BLOCK ADDRESS 0x22ff ===
  0x22ff	lea    	ecx, [esp + 0x38]
  0x2303	dec    	eax
  0x2304	call   	dword ptr [0x2086]
  === BLOCK LINK ===
    0x230a
=== CODE BLOCK END ===

=== CODE BLOCK ADDRESS 0x230a ===
  0x230a	nop    	dword ptr [eax + eax]
  0x230f	test   	al, al
  0x2311	je     	0x2648
  === BLOCK LINK ===
    0x2317
=== CODE BLOCK END ===

=== CODE BLOCK ADDRESS 0x2317 ===
  0x2317	inc    	ecx
  0x2318	cmp    	byte ptr [edi + 0x104], bh
  0x231e	jne    	0x2343
  === BLOCK LINK ===
    0x2320
=== CODE BLOCK END ===

=== CODE BLOCK ADDRESS 0x2320 ===
  0x2320	inc    	ebp
  0x2321	mov    	eax, ebp
  0x2323	dec    	eax
  0x2324	lea    	edx, [0x230e]
  0x232a	dec    	eax
  === BLOCK LINK ===
    0x232b
=== CODE BLOCK END ===

=== CODE BLOCK ADDRESS 0x232b ===
  0x232b	lea    	ecx, [esp + 0x38]
  0x232f	dec    	eax
  0x2330	call   	dword ptr [0x205a]
  === BLOCK LINK ===
    0x2336
=== CODE BLOCK END ===

=== CODE BLOCK ADDRESS 0x2336 ===
  0x2336	nop    	dword ptr [eax + eax]
  0x233b	test   	al, al
  0x233d	je     	0x2648
  === BLOCK LINK ===
    0x2343
=== CODE BLOCK END ===

=== CODE BLOCK ADDRESS 0x2343 ===
  0x2343	inc    	ebp
  0x2344	mov    	eax, ebp
  0x2346	dec    	eax
  0x2347	lea    	edx, [0x23a3]
  0x234d	dec    	eax
  === BLOCK LINK ===
    0x234e
=== CODE BLOCK END ===

=== CODE BLOCK ADDRESS 0x234e ===
  0x234e	lea    	ecx, [ebp + 0x20]
  0x2351	dec    	eax
  0x2352	call   	dword ptr [0x2038]
  === BLOCK LINK ===
    0x2358
=== CODE BLOCK END ===

=== CODE BLOCK ADDRESS 0x2358 ===
  0x2358	nop    	dword ptr [eax + eax]
  0x235d	test   	al, al
  0x235f	je     	0x2648
  === BLOCK LINK ===
    0x2365
=== CODE BLOCK END ===

=== CODE BLOCK ADDRESS 0x2365 ===
  0x2365	inc    	ecx
  0x2366	cmp    	byte ptr [edi + 0x104], bh
  0x236c	je     	0x2399
  === BLOCK LINK ===
    0x236e
=== CODE BLOCK END ===

=== CODE BLOCK ADDRESS 0x236e ===
  0x236e	inc    	ebp
  0x236f	mov    	eax, ebp
  0x2371	dec    	eax
  0x2372	lea    	edx, [0x2360]
  0x2378	dec    	eax
  === BLOCK LINK ===
    0x2379
=== CODE BLOCK END ===

=== CODE BLOCK ADDRESS 0x2379 ===
  0x2379	lea    	ecx, [ebp + 0x50]
  0x237c	dec    	eax
  0x237d	call   	dword ptr [0x200d]
  === BLOCK LINK ===
    0x2383
=== CODE BLOCK END ===

=== CODE BLOCK ADDRESS 0x2383 ===
  0x2383	nop    	dword ptr [eax + eax]
  0x2388	test   	al, al
  0x238a	je     	0x2648
  === BLOCK LINK ===
    0x2390
=== CODE BLOCK END ===

=== CODE BLOCK ADDRESS 0x2390 ===
  0x2390	inc    	ecx
  0x2391	cmp    	byte ptr [edi + 0x104], bh
  0x2397	jne    	0x23bb
  === BLOCK LINK ===
    0x2399
=== CODE BLOCK END ===

=== CODE BLOCK ADDRESS 0x2399 ===
  0x2399	inc    	ebp
  0x239a	mov    	eax, ebp
  0x239c	dec    	eax
  0x239d	lea    	edx, [0x2295]
  0x23a3	dec    	eax
  === BLOCK LINK ===
    0x23a4
=== CODE BLOCK END ===

=== CODE BLOCK ADDRESS 0x23a4 ===
  0x23a4	lea    	ecx, [ebp + 0x50]
  0x23a7	dec    	eax
  0x23a8	call   	dword ptr [0x1fe2]
  === BLOCK LINK ===
    0x23ae
=== CODE BLOCK END ===

=== CODE BLOCK ADDRESS 0x23ae ===
  0x23ae	nop    	dword ptr [eax + eax]
  0x23b3	test   	al, al
  0x23b5	je     	0x2648
  === BLOCK LINK ===
    0x23bb
=== CODE BLOCK END ===

=== CODE BLOCK ADDRESS 0x23bb ===
  0x23bb	dec    	eax
  0x23bc	mov    	eax, dword ptr [esi]
  0x23be	dec    	eax
  0x23bf	mov    	ecx, esi
  0x23c1	dec    	eax
  === BLOCK LINK ===
    0x23c2
=== CODE BLOCK END ===

=== CODE BLOCK ADDRESS 0x23c2 ===
  0x23c2	mov    	eax, dword ptr [eax + 0x28]
  0x23c5	call   	dword ptr [0x216d]
  === BLOCK LINK ===
    0x23cb
=== CODE BLOCK END ===

=== CODE BLOCK ADDRESS 0x23cb ===
  0x23cb	dec    	eax
  0x23cc	test   	eax, eax
  0x23ce	je     	0x25bd
  === BLOCK LINK ===
    0x23d4
=== CODE BLOCK END ===

=== CODE BLOCK ADDRESS 0x23d4 ===
  0x23d4	dec    	esp
  0x23d5	lea    	esp, [eax + 0x40]
  0x23d8	dec    	ecx
  0x23d9	mov    	ecx, esp
  0x23db	dec    	eax
  === BLOCK LINK ===
    0x23dc
=== CODE BLOCK END ===

=== CODE BLOCK ADDRESS 0x23dc ===
  0x23dc	lea    	edx, [esp + 0x70]
  0x23e0	dec    	eax
  0x23e1	lea    	ebx, [eax + 0x70]
  0x23e4	dec    	eax
  0x23e5	call   	dword ptr [0x1e15]
  === BLOCK LINK ===
    0x23eb
=== CODE BLOCK END ===

=== CODE BLOCK ADDRESS 0x23eb ===
  0x23eb	nop    	dword ptr [eax + eax]
  0x23f0	test   	al, al
  0x23f2	je     	0x2648
  === BLOCK LINK ===
    0x23f8
=== CODE BLOCK END ===

=== CODE BLOCK ADDRESS 0x23f8 ===
  0x23f8	dec    	eax
  0x23f9	lea    	edx, [esp + 0x70]
  0x23fd	call   	0x1080
  === BLOCK LINK ===
    0x2402
=== CODE BLOCK END ===

=== CODE BLOCK ADDRESS 0x2402 ===
  0x2402	test   	al, al
  0x2404	je     	0x2648
  === BLOCK LINK ===
    0x240a
=== CODE BLOCK END ===

=== CODE BLOCK ADDRESS 0x240a ===
  0x240a	dec    	esp
  0x240b	lea    	ecx, [ebp + 0x110]
  0x2411	inc    	ebp
  0x2412	xor    	eax, eax
  0x2414	dec    	eax
  === BLOCK LINK ===
    0x2415
=== CODE BLOCK END ===

=== CODE BLOCK ADDRESS 0x2415 ===
  0x2415	lea    	edx, [ebp - 0x40]
  0x2418	dec    	eax
  0x2419	lea    	ecx, [esp + 0x70]
  0x241d	dec    	eax
  0x241e	call   	dword ptr [0x1de4]
  === BLOCK LINK ===
    0x2424
=== CODE BLOCK END ===

=== CODE BLOCK ADDRESS 0x2424 ===
  0x2424	nop    	dword ptr [eax + eax]
  0x2429	test   	al, al
  0x242b	je     	0x2455
  === BLOCK LINK ===
    0x242d
=== CODE BLOCK END ===

=== CODE BLOCK ADDRESS 0x242d ===
  0x242d	dec    	ecx
  0x242e	mov    	eax, dword ptr [edi]
  0x2430	dec    	eax
  0x2431	lea    	ecx, [ebp - 0x40]
  0x2434	dec    	eax
  === BLOCK LINK ===
    0x2435
=== CODE BLOCK END ===

=== CODE BLOCK ADDRESS 0x2435 ===
  0x2435	mov    	dword ptr [esp + 0x20], ecx
  0x2439	dec    	esp
  0x243a	lea    	ecx, [0x21ec]
  0x2440	inc    	ebp
  0x2441	xor    	eax, eax
  === BLOCK LINK ===
    0x2443
=== CODE BLOCK END ===

=== CODE BLOCK ADDRESS 0x2443 ===
  0x2443	mov    	edx, 0xbc7
  0x2448	dec    	ecx
  0x2449	mov    	ecx, edi
  0x244b	dec    	eax
  0x244c	mov    	eax, dword ptr [eax + 0x18]
  === BLOCK LINK ===
    0x244f
=== CODE BLOCK END ===

=== CODE BLOCK ADDRESS 0x244f ===
  0x244f	call   	dword ptr [0x20e3]
  === BLOCK LINK ===
    0x2455
=== CODE BLOCK END ===

=== CODE BLOCK ADDRESS 0x2455 ===
  0x2455	dec    	eax
  0x2456	lea    	edx, [esp + 0x70]
  0x245a	dec    	eax
  0x245b	lea    	ecx, [ebp + 0x50]
  0x245e	dec    	eax
  === BLOCK LINK ===
    0x245f
=== CODE BLOCK END ===

=== CODE BLOCK ADDRESS 0x245f ===
  0x245f	call   	dword ptr [0x1d63]
  === BLOCK LINK ===
    0x2465
=== CODE BLOCK END ===

=== CODE BLOCK ADDRESS 0x2465 ===
  0x2465	nop    	dword ptr [eax + eax]
  0x246a	test   	al, al
  0x246c	je     	0x2648
  === BLOCK LINK ===
    0x2472
=== CODE BLOCK END ===

=== CODE BLOCK ADDRESS 0x2472 ===
  0x2472	cmp    	dword ptr [ebx + 0x18], 2
  0x2476	jne    	0x2587
  === BLOCK LINK ===
    0x247c
=== CODE BLOCK END ===

=== CODE BLOCK ADDRESS 0x247c ===
  0x247c	dec    	eax
  0x247d	lea    	edx, [esp + 0x70]
  0x2481	dec    	eax
  0x2482	mov    	ecx, ebx
  0x2484	dec    	eax
  === BLOCK LINK ===
    0x2485
=== CODE BLOCK END ===

=== CODE BLOCK ADDRESS 0x2485 ===
  0x2485	call   	dword ptr [0x1d75]
  === BLOCK LINK ===
    0x248b
=== CODE BLOCK END ===

=== CODE BLOCK ADDRESS 0x248b ===
  0x248b	nop    	dword ptr [eax + eax]
  0x2490	test   	al, al
  0x2492	je     	0x2648
  === BLOCK LINK ===
    0x2498
=== CODE BLOCK END ===

=== CODE BLOCK ADDRESS 0x2498 ===
  0x2498	dec    	eax
  0x2499	lea    	edx, [esp + 0x70]
  0x249d	call   	0x1080
  === BLOCK LINK ===
    0x24a2
=== CODE BLOCK END ===

=== CODE BLOCK ADDRESS 0x24a2 ===
  0x24a2	test   	al, al
  0x24a4	je     	0x2648
  === BLOCK LINK ===
    0x24aa
=== CODE BLOCK END ===

=== CODE BLOCK ADDRESS 0x24aa ===
  0x24aa	dec    	eax
  0x24ab	lea    	edx, [esp + 0x70]
  0x24af	dec    	eax
  0x24b0	lea    	ecx, [ebp + 0x50]
  0x24b3	dec    	eax
  === BLOCK LINK ===
    0x24b4
=== CODE BLOCK END ===

=== CODE BLOCK ADDRESS 0x24b4 ===
  0x24b4	call   	dword ptr [0x1d0e]
  === BLOCK LINK ===
    0x24ba
=== CODE BLOCK END ===

=== CODE BLOCK ADDRESS 0x24ba ===
  0x24ba	nop    	dword ptr [eax + eax]
  0x24bf	test   	al, al
  0x24c1	je     	0x2648
  === BLOCK LINK ===
    0x24c7
=== CODE BLOCK END ===

=== CODE BLOCK ADDRESS 0x24c7 ===
  0x24c7	dec    	eax
  0x24c8	lea    	edx, [ebp + 0xe0]
  0x24ce	dec    	eax
  0x24cf	lea    	ecx, [esp + 0x70]
  0x24d3	dec    	eax
  === BLOCK LINK ===
    0x24d4
=== CODE BLOCK END ===

=== CODE BLOCK ADDRESS 0x24d4 ===
  0x24d4	call   	dword ptr [0x1ebe]
  === BLOCK LINK ===
    0x24da
=== CODE BLOCK END ===

=== CODE BLOCK ADDRESS 0x24da ===
  0x24da	nop    	dword ptr [eax + eax]
  0x24df	dec    	eax
  0x24e0	lea    	edx, [ebp + 0x20]
  0x24e3	dec    	eax
  0x24e4	lea    	ecx, [esp + 0x38]
  === BLOCK LINK ===
    0x24e8
=== CODE BLOCK END ===

=== CODE BLOCK ADDRESS 0x24e8 ===
  0x24e8	test   	al, al
  0x24ea	je     	0x255a
  === BLOCK LINK ===
    0x24ec
=== CODE BLOCK END ===

=== CODE BLOCK ADDRESS 0x24ec ===
  0x24ec	dec    	eax
  0x24ed	call   	dword ptr [0x1edd]
  === BLOCK LINK ===
    0x24f3
=== CODE BLOCK END ===

=== CODE BLOCK ADDRESS 0x24f3 ===
  0x24f3	nop    	dword ptr [eax + eax]
  0x24f8	test   	al, al
  0x24fa	je     	0x2648
  === BLOCK LINK ===
    0x2500
=== CODE BLOCK END ===

=== CODE BLOCK ADDRESS 0x2500 ===
  0x2500	dec    	eax
  0x2501	lea    	edx, [esp + 0x70]
  0x2505	jmp    	0x25a7
  === BLOCK LINK ===
    0x250a
=== CODE BLOCK END ===

=== CODE BLOCK ADDRESS 0x250a ===
  0x250a	mov    	edx, 0x7743
  0x250f	jmp    	0x2530
  === BLOCK LINK ===
    0x2511
=== CODE BLOCK END ===

=== CODE BLOCK ADDRESS 0x2511 ===
  0x2511	mov    	edx, 0x7748
  0x2516	jmp    	0x2530
  === BLOCK LINK ===
    0x2518
=== CODE BLOCK END ===

=== CODE BLOCK ADDRESS 0x2518 ===
  0x2518	dec    	eax
  0x2519	call   	dword ptr [0x1d89]
  === BLOCK LINK ===
    0x251f
=== CODE BLOCK END ===

=== CODE BLOCK ADDRESS 0x251f ===
  0x251f	nop    	dword ptr [eax + eax]
  0x2524	mov    	edx, 0x773f
  0x2529	jmp    	0x2530
  === BLOCK LINK ===
    0x252b
=== CODE BLOCK END ===

=== CODE BLOCK ADDRESS 0x252b ===
  0x252b	mov    	edx, 0x7742
  0x2530	dec    	esp
  0x2531	mov    	dword ptr [esp + 0x20], ebp
  0x2535	dec    	ecx
  0x2536	mov    	eax, dword ptr [edi]
  === BLOCK LINK ===
    0x2538
=== CODE BLOCK END ===

=== CODE BLOCK ADDRESS 0x2538 ===
  0x2538	dec    	esp
  0x2539	lea    	ecx, [0x20ed]
  0x253f	inc    	ebp
  0x2540	xor    	eax, eax
  0x2542	dec    	ecx
  === BLOCK LINK ===
    0x2543
=== CODE BLOCK END ===

=== CODE BLOCK ADDRESS 0x2543 ===
  0x2543	mov    	ecx, edi
  0x2545	dec    	eax
  0x2546	mov    	eax, dword ptr [eax + 0x18]
  0x2549	call   	dword ptr [0x1fe9]
  === BLOCK LINK ===
    0x254f
=== CODE BLOCK END ===

=== CODE BLOCK ADDRESS 0x254f ===
  0x254f	dec    	eax
  0x2550	mov    	eax, dword ptr [esi]
  0x2552	dec    	eax
  0x2553	mov    	ecx, esi
  0x2555	jmp    	0x210d
  === BLOCK LINK ===
    0x255a
=== CODE BLOCK END ===

=== CODE BLOCK ADDRESS 0x255a ===
  0x255a	dec    	eax
  0x255b	call   	dword ptr [0x1e6f]
  === BLOCK LINK ===
    0x2561
=== CODE BLOCK END ===

=== CODE BLOCK ADDRESS 0x2561 ===
  0x2561	nop    	dword ptr [eax + eax]
  0x2566	test   	al, al
  0x2568	je     	0x2648
  === BLOCK LINK ===
    0x256e
=== CODE BLOCK END ===

=== CODE BLOCK ADDRESS 0x256e ===
  0x256e	inc    	ebp
  0x256f	mov    	eax, esi
  0x2571	xor    	edx, edx
  0x2573	dec    	eax
  0x2574	mov    	ecx, ebx
  === BLOCK LINK ===
    0x2576
=== CODE BLOCK END ===

=== CODE BLOCK ADDRESS 0x2576 ===
  0x2576	dec    	eax
  0x2577	call   	dword ptr [0x1e23]
  === BLOCK LINK ===
    0x257d
=== CODE BLOCK END ===

=== CODE BLOCK ADDRESS 0x257d ===
  0x257d	nop    	dword ptr [eax + eax]
  0x2582	dec    	eax
  0x2583	mov    	edx, eax
  0x2585	jmp    	0x25a7
  === BLOCK LINK ===
    0x2587
=== CODE BLOCK END ===

=== CODE BLOCK ADDRESS 0x2587 ===
  0x2587	dec    	eax
  0x2588	lea    	edx, [ebp + 0x20]
  0x258b	dec    	eax
  0x258c	lea    	ecx, [esp + 0x38]
  0x2590	dec    	eax
  === BLOCK LINK ===
    0x2591
=== CODE BLOCK END ===

=== CODE BLOCK ADDRESS 0x2591 ===
  0x2591	call   	dword ptr [0x1e39]
  === BLOCK LINK ===
    0x2597
=== CODE BLOCK END ===

=== CODE BLOCK ADDRESS 0x2597 ===
  0x2597	nop    	dword ptr [eax + eax]
  0x259c	test   	al, al
  0x259e	je     	0x2648
  === BLOCK LINK ===
    0x25a4
=== CODE BLOCK END ===

=== CODE BLOCK ADDRESS 0x25a4 ===
  0x25a4	dec    	ecx
  0x25a5	mov    	edx, esp
  0x25a7	dec    	eax
  0x25a8	lea    	ecx, [esp + 0x38]
  0x25ac	dec    	eax
  === BLOCK LINK ===
    0x25ad
=== CODE BLOCK END ===

=== CODE BLOCK ADDRESS 0x25ad ===
  0x25ad	call   	dword ptr [0x1e1d]
  === BLOCK LINK ===
    0x25b3
=== CODE BLOCK END ===

=== CODE BLOCK ADDRESS 0x25b3 ===
  0x25b3	nop    	dword ptr [eax + eax]
  0x25b8	jmp    	0x23b3
  === BLOCK LINK ===
    0x25bd
=== CODE BLOCK END ===

=== CODE BLOCK ADDRESS 0x25bd ===
  0x25bd	dec    	eax
  0x25be	mov    	eax, dword ptr [esi]
  0x25c0	inc    	ecx
  0x25c1	mov    	edx, esi
  0x25c3	dec    	eax
  === BLOCK LINK ===
    0x25c4
=== CODE BLOCK END ===

=== CODE BLOCK ADDRESS 0x25c4 ===
  0x25c4	mov    	ecx, esi
  0x25c6	dec    	eax
  0x25c7	mov    	eax, dword ptr [eax]
  0x25c9	call   	dword ptr [0x1f69]
  === BLOCK LINK ===
    0x25cf
=== CODE BLOCK END ===

=== CODE BLOCK ADDRESS 0x25cf ===
  0x25cf	dec    	eax
  0x25d0	lea    	ecx, [ebp + 0xb0]
  0x25d6	dec    	eax
  0x25d7	call   	dword ptr [0x1f33]
  === BLOCK LINK ===
    0x25dd
=== CODE BLOCK END ===

=== CODE BLOCK ADDRESS 0x25dd ===
  0x25dd	nop    	dword ptr [eax + eax]
  0x25e2	inc    	ebp
  0x25e3	mov    	eax, ebp
  0x25e5	dec    	eax
  0x25e6	lea    	edx, [0x210c]
  === BLOCK LINK ===
    0x25ec
=== CODE BLOCK END ===

=== CODE BLOCK ADDRESS 0x25ec ===
  0x25ec	dec    	eax
  0x25ed	lea    	ecx, [ebp + 0xb0]
  0x25f3	dec    	eax
  0x25f4	call   	dword ptr [0x1d96]
  === BLOCK LINK ===
    0x25fa
=== CODE BLOCK END ===

=== CODE BLOCK ADDRESS 0x25fa ===
  0x25fa	nop    	dword ptr [eax + eax]
  0x25ff	test   	al, al
  0x2601	je     	0x2633
  === BLOCK LINK ===
    0x2603
=== CODE BLOCK END ===

=== CODE BLOCK ADDRESS 0x2603 ===
  0x2603	dec    	eax
  0x2604	lea    	edx, [ebp + 0xb0]
  0x260a	dec    	eax
  0x260b	lea    	ecx, [esp + 0x38]
  0x260f	dec    	eax
  === BLOCK LINK ===
    0x2610
=== CODE BLOCK END ===

=== CODE BLOCK ADDRESS 0x2610 ===
  0x2610	call   	dword ptr [0x1dba]
  === BLOCK LINK ===
    0x2616
=== CODE BLOCK END ===

=== CODE BLOCK ADDRESS 0x2616 ===
  0x2616	nop    	dword ptr [eax + eax]
  0x261b	test   	al, al
  0x261d	je     	0x2633
  === BLOCK LINK ===
    0x261f
=== CODE BLOCK END ===

=== CODE BLOCK ADDRESS 0x261f ===
  0x261f	dec    	eax
  0x2620	lea    	ecx, [esp + 0x38]
  0x2624	dec    	eax
  0x2625	call   	dword ptr [0x1c05]
  === BLOCK LINK ===
    0x262b
=== CODE BLOCK END ===

=== CODE BLOCK ADDRESS 0x262b ===
  0x262b	nop    	dword ptr [eax + eax]
  0x2630	inc    	eax
  0x2631	mov    	bh, al
  0x2633	dec    	eax
  0x2634	lea    	ecx, [ebp + 0xb0]
  === BLOCK LINK ===
    0x263a
=== CODE BLOCK END ===

=== CODE BLOCK ADDRESS 0x263a ===
  0x263a	dec    	eax
  0x263b	call   	dword ptr [0x1ed7]
  === BLOCK LINK ===
    0x2641
=== CODE BLOCK END ===

=== CODE BLOCK ADDRESS 0x2641 ===
  0x2641	nop    	dword ptr [eax + eax]
  0x2646	jmp    	0x265a
  === BLOCK LINK ===
    0x2648
=== CODE BLOCK END ===

=== CODE BLOCK ADDRESS 0x2648 ===
  0x2648	dec    	eax
  0x2649	mov    	eax, dword ptr [esi]
  0x264b	inc    	ecx
  0x264c	mov    	edx, esi
  0x264e	dec    	eax
  === BLOCK LINK ===
    0x264f
=== CODE BLOCK END ===

=== CODE BLOCK ADDRESS 0x264f ===
  0x264f	mov    	ecx, esi
  0x2651	dec    	eax
  0x2652	mov    	eax, dword ptr [eax]
  0x2654	call   	dword ptr [0x1ede]
  === BLOCK LINK ===
    0x265a
=== CODE BLOCK END ===

=== CODE BLOCK ADDRESS 0x265a ===
  0x265a	dec    	eax
  0x265b	lea    	ecx, [ebp + 0x20]
  0x265e	dec    	eax
  0x265f	call   	dword ptr [0x1eb3]
  === BLOCK LINK ===
    0x2665
=== CODE BLOCK END ===

=== CODE BLOCK ADDRESS 0x2665 ===
  0x2665	nop    	dword ptr [eax + eax]
  0x266a	dec    	eax
  0x266b	lea    	ecx, [ebp + 0x50]
  0x266e	jmp    	0x2acc
  === BLOCK LINK ===
    0x2673
=== CODE BLOCK END ===

=== CODE BLOCK ADDRESS 0x2673 ===
  0x2673	dec    	eax
  0x2674	mov    	eax, dword ptr [esi]
  0x2676	dec    	eax
  0x2677	mov    	ecx, esi
  0x2679	dec    	eax
  === BLOCK LINK ===
    0x267a
=== CODE BLOCK END ===

=== CODE BLOCK ADDRESS 0x267a ===
  0x267a	mov    	eax, dword ptr [eax + 0x28]
  0x267d	call   	dword ptr [0x1eb5]
  === BLOCK LINK ===
    0x2683
=== CODE BLOCK END ===

=== CODE BLOCK ADDRESS 0x2683 ===
  0x2683	dec    	eax
  0x2684	test   	eax, eax
  0x2686	je     	0x2add
  === BLOCK LINK ===
    0x268c
=== CODE BLOCK END ===

=== CODE BLOCK ADDRESS 0x268c ===
  0x268c	dec    	eax
  0x268d	lea    	ecx, [eax + 0x40]
  0x2690	dec    	eax
  0x2691	lea    	edx, [esp + 0x70]
  0x2695	dec    	eax
  === BLOCK LINK ===
    0x2696
=== CODE BLOCK END ===

=== CODE BLOCK ADDRESS 0x2696 ===
  0x2696	lea    	ebx, [eax + 0x10]
  0x2699	dec    	esp
  0x269a	lea    	esp, [eax + 0x70]
  0x269d	dec    	eax
  0x269e	call   	dword ptr [0x1b5c]
  === BLOCK LINK ===
    0x26a4
=== CODE BLOCK END ===

=== CODE BLOCK ADDRESS 0x26a4 ===
  0x26a4	nop    	dword ptr [eax + eax]
  0x26a9	test   	al, al
  0x26ab	je     	0x254f
  === BLOCK LINK ===
    0x26b1
=== CODE BLOCK END ===

=== CODE BLOCK ADDRESS 0x26b1 ===
  0x26b1	dec    	eax
  0x26b2	lea    	edx, [esp + 0x70]
  0x26b6	call   	0x1080
  === BLOCK LINK ===
    0x26bb
=== CODE BLOCK END ===

=== CODE BLOCK ADDRESS 0x26bb ===
  0x26bb	test   	al, al
  0x26bd	je     	0x254f
  === BLOCK LINK ===
    0x26c3
=== CODE BLOCK END ===

=== CODE BLOCK ADDRESS 0x26c3 ===
  0x26c3	inc    	ebp
  0x26c4	xor    	eax, eax
  0x26c6	dec    	eax
  0x26c7	lea    	edx, [ebp - 0x40]
  0x26ca	dec    	eax
  === BLOCK LINK ===
    0x26cb
=== CODE BLOCK END ===

=== CODE BLOCK ADDRESS 0x26cb ===
  0x26cb	lea    	ecx, [esp + 0x70]
  0x26cf	inc    	ecx
  0x26d0	cmp    	byte ptr [edi + 0xf6], bh
  0x26d6	je     	0x28d1
  === BLOCK LINK ===
    0x26dc
=== CODE BLOCK END ===

=== CODE BLOCK ADDRESS 0x26dc ===
  0x26dc	inc    	ebp
  0x26dd	xor    	ecx, ecx
  0x26df	dec    	eax
  0x26e0	call   	dword ptr [0x1b22]
  === BLOCK LINK ===
    0x26e6
=== CODE BLOCK END ===

=== CODE BLOCK ADDRESS 0x26e6 ===
  0x26e6	nop    	dword ptr [eax + eax]
  0x26eb	test   	al, al
  0x26ed	je     	0x2aa7
  === BLOCK LINK ===
    0x26f3
=== CODE BLOCK END ===

=== CODE BLOCK ADDRESS 0x26f3 ===
  0x26f3	dec    	eax
  0x26f4	lea    	edx, [ebp + 0x1a0]
  0x26fa	dec    	eax
  0x26fb	lea    	ecx, [ebp - 0x40]
  0x26fe	dec    	eax
  === BLOCK LINK ===
    0x26ff
=== CODE BLOCK END ===

=== CODE BLOCK ADDRESS 0x26ff ===
  0x26ff	call   	dword ptr [0x1c93]
  === BLOCK LINK ===
    0x2705
=== CODE BLOCK END ===

=== CODE BLOCK ADDRESS 0x2705 ===
  0x2705	nop    	dword ptr [eax + eax]
  0x270a	test   	al, al
  0x270c	jne    	0x276d
  === BLOCK LINK ===
    0x270e
=== CODE BLOCK END ===

=== CODE BLOCK ADDRESS 0x270e ===
  0x270e	dec    	eax
  0x270f	lea    	edx, [ebp + 0x170]
  0x2715	dec    	eax
  0x2716	lea    	ecx, [ebp - 0x40]
  0x2719	dec    	eax
  === BLOCK LINK ===
    0x271a
=== CODE BLOCK END ===

=== CODE BLOCK ADDRESS 0x271a ===
  0x271a	call   	dword ptr [0x1c78]
  === BLOCK LINK ===
    0x2720
=== CODE BLOCK END ===

=== CODE BLOCK ADDRESS 0x2720 ===
  0x2720	nop    	dword ptr [eax + eax]
  0x2725	test   	al, al
  0x2727	jne    	0x276d
  === BLOCK LINK ===
    0x2729
=== CODE BLOCK END ===

=== CODE BLOCK ADDRESS 0x2729 ===
  0x2729	dec    	eax
  0x272a	lea    	edx, [ebp + 0x140]
  0x2730	dec    	eax
  0x2731	lea    	ecx, [ebp - 0x40]
  0x2734	dec    	eax
  === BLOCK LINK ===
    0x2735
=== CODE BLOCK END ===

=== CODE BLOCK ADDRESS 0x2735 ===
  0x2735	call   	dword ptr [0x1c5d]
  === BLOCK LINK ===
    0x273b
=== CODE BLOCK END ===

=== CODE BLOCK ADDRESS 0x273b ===
  0x273b	nop    	dword ptr [eax + eax]
  0x2740	test   	al, al
  0x2742	jne    	0x276d
  === BLOCK LINK ===
    0x2744
=== CODE BLOCK END ===

=== CODE BLOCK ADDRESS 0x2744 ===
  0x2744	dec    	ecx
  0x2745	mov    	eax, dword ptr [edi]
  0x2747	dec    	esp
  0x2748	lea    	ecx, [0x1ede]
  0x274e	inc    	ebp
  === BLOCK LINK ===
    0x274f
=== CODE BLOCK END ===

=== CODE BLOCK ADDRESS 0x274f ===
  0x274f	xor    	eax, eax
  0x2751	dec    	eax
  0x2752	mov    	dword ptr [esp + 0x20], ebx
  0x2756	mov    	edx, 0x7749
  0x275b	dec    	ecx
  === BLOCK LINK ===
    0x275c
=== CODE BLOCK END ===

=== CODE BLOCK ADDRESS 0x275c ===
  0x275c	mov    	ecx, edi
  0x275e	dec    	eax
  0x275f	mov    	eax, dword ptr [eax + 0x18]
  0x2762	call   	dword ptr [0x1dd0]
  === BLOCK LINK ===
    0x2768
=== CODE BLOCK END ===

=== CODE BLOCK ADDRESS 0x2768 ===
  0x2768	jmp    	0x2673
  === BLOCK LINK ===
    0x276d
=== CODE BLOCK END ===

=== CODE BLOCK ADDRESS 0x276d ===
  0x276d	dec    	eax
  0x276e	lea    	ecx, [ebp + 0x80]
  0x2774	dec    	eax
  0x2775	call   	dword ptr [0x1d95]
  === BLOCK LINK ===
    0x277b
=== CODE BLOCK END ===

=== CODE BLOCK ADDRESS 0x277b ===
  0x277b	nop    	dword ptr [eax + eax]
  0x2780	inc    	ebp
  0x2781	mov    	eax, ebp
  0x2783	dec    	eax
  0x2784	lea    	edx, [0x1eae]
  === BLOCK LINK ===
    0x278a
=== CODE BLOCK END ===

=== CODE BLOCK ADDRESS 0x278a ===
  0x278a	dec    	eax
  0x278b	lea    	ecx, [esp + 0x38]
  0x278f	dec    	eax
  0x2790	call   	dword ptr [0x1bfa]
  === BLOCK LINK ===
    0x2796
=== CODE BLOCK END ===

=== CODE BLOCK ADDRESS 0x2796 ===
  0x2796	nop    	dword ptr [eax + eax]
  0x279b	test   	al, al
  0x279d	je     	0x2a8c
  === BLOCK LINK ===
    0x27a3
=== CODE BLOCK END ===

=== CODE BLOCK ADDRESS 0x27a3 ===
  0x27a3	inc    	ebp
  0x27a4	mov    	eax, ebp
  0x27a6	dec    	eax
  0x27a7	lea    	edx, [0x1e4b]
  0x27ad	dec    	eax
  === BLOCK LINK ===
    0x27ae
=== CODE BLOCK END ===

=== CODE BLOCK ADDRESS 0x27ae ===
  0x27ae	lea    	ecx, [ebp + 0x80]
  0x27b4	dec    	eax
  0x27b5	call   	dword ptr [0x1bd5]
  === BLOCK LINK ===
    0x27bb
=== CODE BLOCK END ===

=== CODE BLOCK ADDRESS 0x27bb ===
  0x27bb	nop    	dword ptr [eax + eax]
  0x27c0	test   	al, al
  0x27c2	je     	0x2a8c
  === BLOCK LINK ===
    0x27c8
=== CODE BLOCK END ===

=== CODE BLOCK ADDRESS 0x27c8 ===
  0x27c8	dec    	esp
  0x27c9	lea    	eax, [ebp + 0x80]
  0x27cf	dec    	eax
  0x27d0	lea    	edx, [esp + 0x70]
  0x27d4	dec    	eax
  === BLOCK LINK ===
    0x27d5
=== CODE BLOCK END ===

=== CODE BLOCK ADDRESS 0x27d5 ===
  0x27d5	lea    	ecx, [esp + 0x38]
  0x27d9	dec    	eax
  0x27da	call   	dword ptr [0x19f0]
  === BLOCK LINK ===
    0x27e0
=== CODE BLOCK END ===

=== CODE BLOCK ADDRESS 0x27e0 ===
  0x27e0	nop    	dword ptr [eax + eax]
  0x27e5	test   	al, al
  0x27e7	je     	0x2a8c
  === BLOCK LINK ===
    0x27ed
=== CODE BLOCK END ===

=== CODE BLOCK ADDRESS 0x27ed ===
  0x27ed	inc    	ecx
  0x27ee	cmp    	dword ptr [esp + 0x18], 2
  0x27f3	jne    	0x286b
  === BLOCK LINK ===
    0x27f5
=== CODE BLOCK END ===

=== CODE BLOCK ADDRESS 0x27f5 ===
  0x27f5	dec    	eax
  0x27f6	lea    	edx, [esp + 0x70]
  0x27fa	dec    	ecx
  0x27fb	mov    	ecx, esp
  0x27fd	dec    	eax
  === BLOCK LINK ===
    0x27fe
=== CODE BLOCK END ===

=== CODE BLOCK ADDRESS 0x27fe ===
  0x27fe	call   	dword ptr [0x19fc]
  === BLOCK LINK ===
    0x2804
=== CODE BLOCK END ===

=== CODE BLOCK ADDRESS 0x2804 ===
  0x2804	nop    	dword ptr [eax + eax]
  0x2809	test   	al, al
  0x280b	je     	0x2a8c
  === BLOCK LINK ===
    0x2811
=== CODE BLOCK END ===

=== CODE BLOCK ADDRESS 0x2811 ===
  0x2811	dec    	eax
  0x2812	lea    	edx, [esp + 0x70]
  0x2816	call   	0x1080
  === BLOCK LINK ===
    0x281b
=== CODE BLOCK END ===

=== CODE BLOCK ADDRESS 0x281b ===
  0x281b	test   	al, al
  0x281d	je     	0x2a8c
  === BLOCK LINK ===
    0x2823
=== CODE BLOCK END ===

=== CODE BLOCK ADDRESS 0x2823 ===
  0x2823	inc    	ebp
  0x2824	mov    	eax, ebp
  0x2826	dec    	eax
  0x2827	lea    	edx, [0x1e0b]
  0x282d	dec    	eax
  === BLOCK LINK ===
    0x282e
=== CODE BLOCK END ===

=== CODE BLOCK ADDRESS 0x282e ===
  0x282e	lea    	ecx, [esp + 0x38]
  0x2832	dec    	eax
  0x2833	call   	dword ptr [0x1b57]
  === BLOCK LINK ===
    0x2839
=== CODE BLOCK END ===

=== CODE BLOCK ADDRESS 0x2839 ===
  0x2839	nop    	dword ptr [eax + eax]
  0x283e	test   	al, al
  0x2840	je     	0x2a8c
  === BLOCK LINK ===
    0x2846
=== CODE BLOCK END ===

=== CODE BLOCK ADDRESS 0x2846 ===
  0x2846	dec    	esp
  0x2847	lea    	eax, [ebp + 0x80]
  0x284d	dec    	eax
  0x284e	lea    	edx, [esp + 0x70]
  0x2852	dec    	eax
  === BLOCK LINK ===
    0x2853
=== CODE BLOCK END ===

=== CODE BLOCK ADDRESS 0x2853 ===
  0x2853	lea    	ecx, [esp + 0x38]
  0x2857	dec    	eax
  0x2858	call   	dword ptr [0x1972]
  === BLOCK LINK ===
    0x285e
=== CODE BLOCK END ===

=== CODE BLOCK ADDRESS 0x285e ===
  0x285e	nop    	dword ptr [eax + eax]
  0x2863	test   	al, al
  0x2865	je     	0x2a8c
  === BLOCK LINK ===
    0x286b
=== CODE BLOCK END ===

=== CODE BLOCK ADDRESS 0x286b ===
  0x286b	inc    	ebp
  0x286c	mov    	eax, ebp
  0x286e	dec    	eax
  0x286f	lea    	edx, [0x1e8b]
  0x2875	dec    	eax
  === BLOCK LINK ===
    0x2876
=== CODE BLOCK END ===

=== CODE BLOCK ADDRESS 0x2876 ===
  0x2876	lea    	ecx, [esp + 0x38]
  0x287a	dec    	eax
  0x287b	call   	dword ptr [0x1b0f]
  === BLOCK LINK ===
    0x2881
=== CODE BLOCK END ===

=== CODE BLOCK ADDRESS 0x2881 ===
  0x2881	nop    	dword ptr [eax + eax]
  0x2886	test   	al, al
  0x2888	je     	0x2a8c
  === BLOCK LINK ===
    0x288e
=== CODE BLOCK END ===

=== CODE BLOCK ADDRESS 0x288e ===
  0x288e	dec    	eax
  0x288f	lea    	edx, [esp + 0x70]
  0x2893	dec    	eax
  0x2894	lea    	ecx, [esp + 0x38]
  0x2898	dec    	eax
  === BLOCK LINK ===
    0x2899
=== CODE BLOCK END ===

=== CODE BLOCK ADDRESS 0x2899 ===
  0x2899	call   	dword ptr [0x1b31]
  === BLOCK LINK ===
    0x289f
=== CODE BLOCK END ===

=== CODE BLOCK ADDRESS 0x289f ===
  0x289f	nop    	dword ptr [eax + eax]
  0x28a4	test   	al, al
  0x28a6	je     	0x2a8c
  === BLOCK LINK ===
    0x28ac
=== CODE BLOCK END ===

=== CODE BLOCK ADDRESS 0x28ac ===
  0x28ac	dec    	eax
  0x28ad	lea    	ecx, [esp + 0x38]
  0x28b1	dec    	eax
  0x28b2	call   	dword ptr [0x1920]
  === BLOCK LINK ===
    0x28b8
=== CODE BLOCK END ===

=== CODE BLOCK ADDRESS 0x28b8 ===
  0x28b8	nop    	dword ptr [eax + eax]
  0x28bd	test   	al, al
  0x28bf	je     	0x2a8c
  === BLOCK LINK ===
    0x28c5
=== CODE BLOCK END ===

=== CODE BLOCK ADDRESS 0x28c5 ===
  0x28c5	dec    	eax
  0x28c6	lea    	ecx, [ebp + 0x80]
  0x28cc	jmp    	0x2a7b
  === BLOCK LINK ===
    0x28d1
=== CODE BLOCK END ===

=== CODE BLOCK ADDRESS 0x28d1 ===
  0x28d1	dec    	esp
  0x28d2	lea    	ecx, [ebp + 0x110]
  0x28d8	dec    	eax
  0x28d9	call   	dword ptr [0x1929]
  === BLOCK LINK ===
    0x28df
=== CODE BLOCK END ===

=== CODE BLOCK ADDRESS 0x28df ===
  0x28df	nop    	dword ptr [eax + eax]
  0x28e4	test   	al, al
  0x28e6	je     	0x2910
  === BLOCK LINK ===
    0x28e8
=== CODE BLOCK END ===

=== CODE BLOCK ADDRESS 0x28e8 ===
  0x28e8	dec    	ecx
  0x28e9	mov    	eax, dword ptr [edi]
  0x28eb	dec    	eax
  0x28ec	lea    	ecx, [ebp - 0x40]
  0x28ef	dec    	eax
  === BLOCK LINK ===
    0x28f0
=== CODE BLOCK END ===

=== CODE BLOCK ADDRESS 0x28f0 ===
  0x28f0	mov    	dword ptr [esp + 0x20], ecx
  0x28f4	dec    	esp
  0x28f5	lea    	ecx, [0x1d31]
  0x28fb	inc    	ebp
  0x28fc	xor    	eax, eax
  === BLOCK LINK ===
    0x28fe
=== CODE BLOCK END ===

=== CODE BLOCK ADDRESS 0x28fe ===
  0x28fe	mov    	edx, 0xbc7
  0x2903	dec    	ecx
  0x2904	mov    	ecx, edi
  0x2906	dec    	eax
  0x2907	mov    	eax, dword ptr [eax + 0x18]
  === BLOCK LINK ===
    0x290a
=== CODE BLOCK END ===

=== CODE BLOCK ADDRESS 0x290a ===
  0x290a	call   	dword ptr [0x1c28]
  === BLOCK LINK ===
    0x2910
=== CODE BLOCK END ===

=== CODE BLOCK ADDRESS 0x2910 ===
  0x2910	inc    	ebp
  0x2911	xor    	ecx, ecx
  0x2913	dec    	eax
  0x2914	lea    	edx, [esp + 0x30]
  0x2918	inc    	ebp
  === BLOCK LINK ===
    0x2919
=== CODE BLOCK END ===

=== CODE BLOCK ADDRESS 0x2919 ===
  0x2919	xor    	eax, eax
  0x291b	dec    	eax
  0x291c	lea    	ecx, [esp + 0x70]
  0x2920	dec    	eax
  0x2921	call   	dword ptr [0x18c1]
  === BLOCK LINK ===
    0x2927
=== CODE BLOCK END ===

=== CODE BLOCK ADDRESS 0x2927 ===
  0x2927	nop    	dword ptr [eax + eax]
  0x292c	test   	al, al
  0x292e	je     	0x2aa7
  === BLOCK LINK ===
    0x2934
=== CODE BLOCK END ===

=== CODE BLOCK ADDRESS 0x2934 ===
  0x2934	inc    	eax
  0x2935	cmp    	byte ptr [esp + 0x30], bh
  0x2939	je     	0x296b
  === BLOCK LINK ===
    0x293b
=== CODE BLOCK END ===

=== CODE BLOCK ADDRESS 0x293b ===
  0x293b	dec    	ecx
  0x293c	mov    	eax, dword ptr [edi]
  0x293e	dec    	esp
  0x293f	lea    	ecx, [0x1ce7]
  0x2945	inc    	ebp
  === BLOCK LINK ===
    0x2946
=== CODE BLOCK END ===

=== CODE BLOCK ADDRESS 0x2946 ===
  0x2946	xor    	eax, eax
  0x2948	dec    	eax
  0x2949	mov    	dword ptr [esp + 0x20], ebx
  0x294d	mov    	edx, 0x7740
  0x2952	dec    	ecx
  === BLOCK LINK ===
    0x2953
=== CODE BLOCK END ===

=== CODE BLOCK ADDRESS 0x2953 ===
  0x2953	mov    	ecx, edi
  0x2955	dec    	eax
  0x2956	mov    	eax, dword ptr [eax + 0x18]
  0x2959	call   	dword ptr [0x1bd9]
  === BLOCK LINK ===
    0x295f
=== CODE BLOCK END ===

=== CODE BLOCK ADDRESS 0x295f ===
  0x295f	inc    	ebp
  0x2960	mov    	dword ptr [edi + 0xf0], esi
  0x2966	jmp    	0x2673
  === BLOCK LINK ===
    0x296b
=== CODE BLOCK END ===

=== CODE BLOCK ADDRESS 0x296b ===
  0x296b	dec    	eax
  0x296c	lea    	ecx, [ebp - 0x10]
  0x296f	dec    	eax
  0x2970	call   	dword ptr [0x1b9a]
  === BLOCK LINK ===
    0x2976
=== CODE BLOCK END ===

=== CODE BLOCK ADDRESS 0x2976 ===
  0x2976	nop    	dword ptr [eax + eax]
  0x297b	inc    	ebp
  0x297c	mov    	eax, ebp
  0x297e	dec    	eax
  0x297f	lea    	edx, [0x1cb3]
  === BLOCK LINK ===
    0x2985
=== CODE BLOCK END ===

=== CODE BLOCK ADDRESS 0x2985 ===
  0x2985	dec    	eax
  0x2986	lea    	ecx, [esp + 0x38]
  0x298a	dec    	eax
  0x298b	call   	dword ptr [0x19ff]
  === BLOCK LINK ===
    0x2991
=== CODE BLOCK END ===

=== CODE BLOCK ADDRESS 0x2991 ===
  0x2991	nop    	dword ptr [eax + eax]
  0x2996	test   	al, al
  0x2998	je     	0x2ab6
  === BLOCK LINK ===
    0x299e
=== CODE BLOCK END ===

=== CODE BLOCK ADDRESS 0x299e ===
  0x299e	inc    	ebp
  0x299f	mov    	eax, ebp
  0x29a1	dec    	eax
  0x29a2	lea    	edx, [0x1d70]
  0x29a8	dec    	eax
  === BLOCK LINK ===
    0x29a9
=== CODE BLOCK END ===

=== CODE BLOCK ADDRESS 0x29a9 ===
  0x29a9	lea    	ecx, [ebp - 0x10]
  0x29ac	dec    	eax
  0x29ad	call   	dword ptr [0x19dd]
  === BLOCK LINK ===
    0x29b3
=== CODE BLOCK END ===

=== CODE BLOCK ADDRESS 0x29b3 ===
  0x29b3	nop    	dword ptr [eax + eax]
  0x29b8	test   	al, al
  0x29ba	je     	0x2ab6
  === BLOCK LINK ===
    0x29c0
=== CODE BLOCK END ===

=== CODE BLOCK ADDRESS 0x29c0 ===
  0x29c0	dec    	eax
  0x29c1	lea    	edx, [esp + 0x70]
  0x29c5	dec    	eax
  0x29c6	lea    	ecx, [ebp - 0x10]
  0x29c9	dec    	eax
  === BLOCK LINK ===
    0x29ca
=== CODE BLOCK END ===

=== CODE BLOCK ADDRESS 0x29ca ===
  0x29ca	call   	dword ptr [0x1a00]
  === BLOCK LINK ===
    0x29d0
=== CODE BLOCK END ===

=== CODE BLOCK ADDRESS 0x29d0 ===
  0x29d0	nop    	dword ptr [eax + eax]
  0x29d5	test   	al, al
  0x29d7	je     	0x2ab6
  === BLOCK LINK ===
    0x29dd
=== CODE BLOCK END ===

=== CODE BLOCK ADDRESS 0x29dd ===
  0x29dd	dec    	eax
  0x29de	lea    	edx, [esp + 0x70]
  0x29e2	dec    	eax
  0x29e3	lea    	ecx, [esp + 0x38]
  0x29e7	dec    	eax
  === BLOCK LINK ===
    0x29e8
=== CODE BLOCK END ===

=== CODE BLOCK ADDRESS 0x29e8 ===
  0x29e8	call   	dword ptr [0x17ca]
  === BLOCK LINK ===
    0x29ee
=== CODE BLOCK END ===

=== CODE BLOCK ADDRESS 0x29ee ===
  0x29ee	nop    	dword ptr [eax + eax]
  0x29f3	test   	al, al
  0x29f5	je     	0x29fe
  === BLOCK LINK ===
    0x29f7
=== CODE BLOCK END ===

=== CODE BLOCK ADDRESS 0x29f7 ===
  0x29f7	mov    	edx, 0x774b
  0x29fc	jmp    	0x2a58
  === BLOCK LINK ===
    0x29fe
=== CODE BLOCK END ===

=== CODE BLOCK ADDRESS 0x29fe ===
  0x29fe	inc    	ecx
  0x29ff	cmp    	dword ptr [esp + 0x18], 2
  0x2a04	jne    	0x2a53
  === BLOCK LINK ===
    0x2a06
=== CODE BLOCK END ===

=== CODE BLOCK ADDRESS 0x2a06 ===
  0x2a06	dec    	eax
  0x2a07	lea    	edx, [esp + 0x70]
  0x2a0b	dec    	ecx
  0x2a0c	mov    	ecx, esp
  0x2a0e	dec    	eax
  === BLOCK LINK ===
    0x2a0f
=== CODE BLOCK END ===

=== CODE BLOCK ADDRESS 0x2a0f ===
  0x2a0f	call   	dword ptr [0x17eb]
  === BLOCK LINK ===
    0x2a15
=== CODE BLOCK END ===

=== CODE BLOCK ADDRESS 0x2a15 ===
  0x2a15	nop    	dword ptr [eax + eax]
  0x2a1a	test   	al, al
  0x2a1c	je     	0x2ab6
  === BLOCK LINK ===
    0x2a22
=== CODE BLOCK END ===

=== CODE BLOCK ADDRESS 0x2a22 ===
  0x2a22	dec    	eax
  0x2a23	lea    	edx, [esp + 0x70]
  0x2a27	call   	0x1080
  === BLOCK LINK ===
    0x2a2c
=== CODE BLOCK END ===

=== CODE BLOCK ADDRESS 0x2a2c ===
  0x2a2c	test   	al, al
  0x2a2e	je     	0x2ab6
  === BLOCK LINK ===
    0x2a34
=== CODE BLOCK END ===

=== CODE BLOCK ADDRESS 0x2a34 ===
  0x2a34	dec    	eax
  0x2a35	lea    	edx, [esp + 0x70]
  0x2a39	dec    	eax
  0x2a3a	lea    	ecx, [esp + 0x38]
  0x2a3e	dec    	eax
  === BLOCK LINK ===
    0x2a3f
=== CODE BLOCK END ===

=== CODE BLOCK ADDRESS 0x2a3f ===
  0x2a3f	call   	dword ptr [0x1773]
  === BLOCK LINK ===
    0x2a45
=== CODE BLOCK END ===

=== CODE BLOCK ADDRESS 0x2a45 ===
  0x2a45	nop    	dword ptr [eax + eax]
  0x2a4a	mov    	edx, 0x774b
  0x2a4f	test   	al, al
  0x2a51	jne    	0x2a58
  === BLOCK LINK ===
    0x2a53
=== CODE BLOCK END ===

=== CODE BLOCK ADDRESS 0x2a53 ===
  0x2a53	mov    	edx, 0x7741
  0x2a58	dec    	ecx
  0x2a59	mov    	eax, dword ptr [edi]
  0x2a5b	dec    	esp
  0x2a5c	lea    	ecx, [0x1bca]
  === BLOCK LINK ===
    0x2a62
=== CODE BLOCK END ===

=== CODE BLOCK ADDRESS 0x2a62 ===
  0x2a62	inc    	ebp
  0x2a63	xor    	eax, eax
  0x2a65	dec    	eax
  0x2a66	mov    	dword ptr [esp + 0x20], ebx
  0x2a6a	dec    	ecx
  === BLOCK LINK ===
    0x2a6b
=== CODE BLOCK END ===

=== CODE BLOCK ADDRESS 0x2a6b ===
  0x2a6b	mov    	ecx, edi
  0x2a6d	dec    	eax
  0x2a6e	mov    	eax, dword ptr [eax + 0x18]
  0x2a71	call   	dword ptr [0x1ac1]
  === BLOCK LINK ===
    0x2a77
=== CODE BLOCK END ===

=== CODE BLOCK ADDRESS 0x2a77 ===
  0x2a77	dec    	eax
  0x2a78	lea    	ecx, [ebp - 0x10]
  0x2a7b	dec    	eax
  0x2a7c	call   	dword ptr [0x1a96]
  === BLOCK LINK ===
    0x2a82
=== CODE BLOCK END ===

=== CODE BLOCK ADDRESS 0x2a82 ===
  0x2a82	nop    	dword ptr [eax + eax]
  0x2a87	jmp    	0x2673
  === BLOCK LINK ===
    0x2a8c
=== CODE BLOCK END ===

=== CODE BLOCK ADDRESS 0x2a8c ===
  0x2a8c	dec    	eax
  0x2a8d	mov    	eax, dword ptr [esi]
  0x2a8f	inc    	ecx
  0x2a90	mov    	edx, esi
  0x2a92	dec    	eax
  === BLOCK LINK ===
    0x2a93
=== CODE BLOCK END ===

=== CODE BLOCK ADDRESS 0x2a93 ===
  0x2a93	mov    	ecx, esi
  0x2a95	dec    	eax
  0x2a96	mov    	eax, dword ptr [eax]
  0x2a98	call   	dword ptr [0x1a9a]
  === BLOCK LINK ===
    0x2a9e
=== CODE BLOCK END ===

=== CODE BLOCK ADDRESS 0x2a9e ===
  0x2a9e	dec    	eax
  0x2a9f	lea    	ecx, [ebp + 0x80]
  0x2aa5	jmp    	0x2acc
  === BLOCK LINK ===
    0x2aa7
=== CODE BLOCK END ===

=== CODE BLOCK ADDRESS 0x2aa7 ===
  0x2aa7	dec    	eax
  0x2aa8	mov    	dword ptr [esp + 0x20], ebx
  0x2aac	mov    	edx, 0x773f
  0x2ab1	jmp    	0x2535
  === BLOCK LINK ===
    0x2ab6
=== CODE BLOCK END ===

=== CODE BLOCK ADDRESS 0x2ab6 ===
  0x2ab6	dec    	eax
  0x2ab7	mov    	eax, dword ptr [esi]
  0x2ab9	inc    	ecx
  0x2aba	mov    	edx, esi
  0x2abc	dec    	eax
  === BLOCK LINK ===
    0x2abd
=== CODE BLOCK END ===

=== CODE BLOCK ADDRESS 0x2abd ===
  0x2abd	mov    	ecx, esi
  0x2abf	dec    	eax
  0x2ac0	mov    	eax, dword ptr [eax]
  0x2ac2	call   	dword ptr [0x1a70]
  === BLOCK LINK ===
    0x2ac8
=== CODE BLOCK END ===

=== CODE BLOCK ADDRESS 0x2ac8 ===
  0x2ac8	dec    	eax
  0x2ac9	lea    	ecx, [ebp - 0x10]
  0x2acc	dec    	eax
  0x2acd	call   	dword ptr [0x1a45]
  === BLOCK LINK ===
    0x2ad3
=== CODE BLOCK END ===

=== CODE BLOCK ADDRESS 0x2ad3 ===
  0x2ad3	nop    	dword ptr [eax + eax]
  0x2ad8	jmp    	0x1c66
  === BLOCK LINK ===
    0x2add
=== CODE BLOCK END ===

=== CODE BLOCK ADDRESS 0x2add ===
  0x2add	dec    	eax
  0x2ade	mov    	eax, dword ptr [esi]
  0x2ae0	inc    	ecx
  0x2ae1	mov    	edx, esi
  0x2ae3	dec    	eax
  === BLOCK LINK ===
    0x2ae4
=== CODE BLOCK END ===

=== CODE BLOCK ADDRESS 0x2ae4 ===
  0x2ae4	mov    	ecx, esi
  0x2ae6	dec    	eax
  0x2ae7	mov    	eax, dword ptr [eax]
  0x2ae9	call   	dword ptr [0x1a49]
  === BLOCK LINK ===
    0x2aef
=== CODE BLOCK END ===

=== CODE BLOCK ADDRESS 0x2aef ===
  0x2aef	inc    	ecx
  0x2af0	cmp    	byte ptr [edi + 0xf9], bh
  0x2af6	je     	0x1c63
  === BLOCK LINK ===
    0x2afc
=== CODE BLOCK END ===

=== CODE BLOCK ADDRESS 0x2afc ===
  0x2afc	dec    	eax
  0x2afd	call   	dword ptr [0x17ad]
  === BLOCK LINK ===
    0x2b03
=== CODE BLOCK END ===

=== CODE BLOCK ADDRESS 0x2b03 ===
  0x2b03	nop    	dword ptr [eax + eax]
  0x2b08	dec    	esp
  0x2b09	lea    	eax, [ebp - 0x60]
  0x2b0c	mov    	edx, 0x28
  0x2b11	dec    	eax
  === BLOCK LINK ===
    0x2b12
=== CODE BLOCK END ===

=== CODE BLOCK ADDRESS 0x2b12 ===
  0x2b12	mov    	ecx, eax
  0x2b14	dec    	eax
  0x2b15	call   	dword ptr [0x167d]
  === BLOCK LINK ===
    0x2b1b
=== CODE BLOCK END ===

=== CODE BLOCK ADDRESS 0x2b1b ===
  0x2b1b	nop    	dword ptr [eax + eax]
  0x2b20	test   	eax, eax
  0x2b22	je     	0x1c63
  === BLOCK LINK ===
    0x2b28
=== CODE BLOCK END ===

=== CODE BLOCK ADDRESS 0x2b28 ===
  0x2b28	dec    	esp
  0x2b29	lea    	eax, [ebp + 0x3b4]
  0x2b2f	xor    	ecx, ecx
  0x2b31	dec    	eax
  0x2b32	lea    	edx, [0x1be8]
  === BLOCK LINK ===
    0x2b38
=== CODE BLOCK END ===

=== CODE BLOCK ADDRESS 0x2b38 ===
  0x2b38	dec    	eax
  0x2b39	call   	dword ptr [0x1651]
  === BLOCK LINK ===
    0x2b3f
=== CODE BLOCK END ===

=== CODE BLOCK ADDRESS 0x2b3f ===
  0x2b3f	nop    	dword ptr [eax + eax]
  0x2b44	dec    	eax
  0x2b45	mov    	ecx, dword ptr [ebp - 0x60]
  0x2b48	dec    	esp
  0x2b49	lea    	eax, [ebp + 0x3b0]
  === BLOCK LINK ===
    0x2b4f
=== CODE BLOCK END ===

=== CODE BLOCK ADDRESS 0x2b4f ===
  0x2b4f	inc    	ebp
  0x2b50	xor    	ecx, ecx
  0x2b52	dec    	eax
  0x2b53	mov    	dword ptr [esp + 0x28], edi
  0x2b57	xor    	edx, edx
  === BLOCK LINK ===
    0x2b59
=== CODE BLOCK END ===

=== CODE BLOCK ADDRESS 0x2b59 ===
  0x2b59	inc    	esp
  0x2b5a	mov    	dword ptr [ebp + 0x3b0], esi
  0x2b60	mov    	dword ptr [ebp + 0x3bc], 2
  0x2b6a	dec    	eax
  0x2b6b	mov    	dword ptr [esp + 0x20], edi
  === BLOCK LINK ===
    0x2b6f
=== CODE BLOCK END ===

=== CODE BLOCK ADDRESS 0x2b6f ===
  0x2b6f	dec    	eax
  0x2b70	call   	dword ptr [0x1612]
  === BLOCK LINK ===
    0x2b76
=== CODE BLOCK END ===

=== CODE BLOCK ADDRESS 0x2b76 ===
  0x2b76	nop    	dword ptr [eax + eax]
  0x2b7b	test   	eax, eax
  0x2b7d	je     	0x2b9a
  === BLOCK LINK ===
    0x2b7f
=== CODE BLOCK END ===

=== CODE BLOCK ADDRESS 0x2b7f ===
  0x2b7f	mov    	edx, 0x20001
  0x2b84	mov    	ecx, 0x12
  0x2b89	dec    	eax
  0x2b8a	call   	dword ptr [0x1740]
  === BLOCK LINK ===
    0x2b90
=== CODE BLOCK END ===

=== CODE BLOCK ADDRESS 0x2b90 ===
  0x2b90	nop    	dword ptr [eax + eax]
  0x2b95	jmp    	0x1c63
  === BLOCK LINK ===
    0x2b9a
=== CODE BLOCK END ===

=== CODE BLOCK ADDRESS 0x2b9a ===
  0x2b9a	dec    	ecx
  0x2b9b	mov    	ebx, dword ptr [edi]
  0x2b9d	dec    	eax
  0x2b9e	call   	dword ptr [0x16f4]
  === BLOCK LINK ===
    0x2ba4
=== CODE BLOCK END ===

=== CODE BLOCK ADDRESS 0x2ba4 ===
  0x2ba4	nop    	dword ptr [eax + eax]
  0x2ba9	mov    	dword ptr [esp + 0x20], eax
  0x2bad	dec    	esp
  0x2bae	lea    	ecx, [0x1ad0]
  0x2bb4	dec    	eax
  === BLOCK LINK ===
    0x2bb5
=== CODE BLOCK END ===

=== CODE BLOCK ADDRESS 0x2bb5 ===
  0x2bb5	mov    	eax, dword ptr [ebx + 0x18]
  0x2bb8	inc    	ebp
  0x2bb9	xor    	eax, eax
  0x2bbb	mov    	edx, 0x41c
  0x2bc0	dec    	ecx
  === BLOCK LINK ===
    0x2bc1
=== CODE BLOCK END ===

=== CODE BLOCK ADDRESS 0x2bc1 ===
  0x2bc1	mov    	ecx, edi
  0x2bc3	call   	dword ptr [0x196f]
  === BLOCK LINK ===
    0x2bc9
=== CODE BLOCK END ===

=== CODE BLOCK ADDRESS 0x2bc9 ===
  0x2bc9	jmp    	0x1c63
  === BLOCK LINK ===
    0x2bce
=== CODE BLOCK END ===

=== CODE BLOCK ADDRESS 0x2bce ===
  0x2bce	int3   	
  0x2bcf	int3   	
  0x2bd0	int3   	
  0x2bd1	int3   	
  0x2bd2	int3   	
  === BLOCK LINK ===
    0x2bd3
=== CODE BLOCK END ===

=== CODE BLOCK ADDRESS 0x2bd3 ===
  0x2bd3	int3   	
  0x2bd4	dec    	eax
  0x2bd5	sub    	esp, 0x1d8
  0x2bdb	dec    	eax
  0x2bdd	mov    	ecx, dword ptr [0x60]
  === BLOCK LINK ===
    0x2be4
=== CODE BLOCK END ===

=== CODE BLOCK ADDRESS 0x2be4 ===
  0x2be4	xor    	edx, edx
  0x2be6	dec    	eax
  0x2be7	mov    	ecx, dword ptr [ecx + 0x30]
  0x2bea	inc    	esp
  0x2beb	lea    	eax, [edx + 8]
  === BLOCK LINK ===
    0x2bee
=== CODE BLOCK END ===

=== CODE BLOCK ADDRESS 0x2bee ===
  0x2bee	dec    	eax
  0x2bef	call   	dword ptr [0x176b]
  === BLOCK LINK ===
    0x2bf5
=== CODE BLOCK END ===

=== CODE BLOCK ADDRESS 0x2bf5 ===
  0x2bf5	nop    	dword ptr [eax + eax]
  0x2bfa	dec    	eax
  0x2bfb	test   	eax, eax
  0x2bfd	je     	0x2c0e
  === BLOCK LINK ===
    0x2bff
=== CODE BLOCK END ===

=== CODE BLOCK ADDRESS 0x2bff ===
  0x2bff	dec    	eax
  0x2c00	mov    	ecx, eax
  0x2c02	dec    	eax
  0x2c03	call   	dword ptr [0x185f]
  === BLOCK LINK ===
    0x2c09
=== CODE BLOCK END ===

=== CODE BLOCK ADDRESS 0x2c09 ===
  0x2c09	nop    	dword ptr [eax + eax]
  0x2c0e	dec    	eax
  0x2c0f	mov    	dword ptr [0x39bb], eax
  0x2c15	dec    	eax
  0x2c16	test   	eax, eax
  === BLOCK LINK ===
    0x2c18
=== CODE BLOCK END ===

=== CODE BLOCK ADDRESS 0x2c18 ===
  0x2c18	je     	0x2c2b
  === BLOCK LINK ===
    0x2c1a
=== CODE BLOCK END ===

=== CODE BLOCK ADDRESS 0x2c1a ===
  0x2c1a	xor    	edx, edx
  0x2c1c	dec    	eax
  0x2c1d	mov    	ecx, eax
  0x2c1f	dec    	eax
  0x2c20	call   	dword ptr [0x1852]
  === BLOCK LINK ===
    0x2c26
=== CODE BLOCK END ===

=== CODE BLOCK ADDRESS 0x2c26 ===
  0x2c26	nop    	dword ptr [eax + eax]
  0x2c2b	inc    	ebp
  0x2c2c	xor    	ecx, ecx
  0x2c2e	inc    	ebp
  0x2c2f	xor    	eax, eax
  === BLOCK LINK ===
    0x2c31
=== CODE BLOCK END ===

=== CODE BLOCK ADDRESS 0x2c31 ===
  0x2c31	xor    	ecx, ecx
  0x2c33	inc    	ecx
  0x2c34	lea    	edx, [ecx + 1]
  0x2c37	dec    	eax
  0x2c38	call   	dword ptr [0x1652]
  === BLOCK LINK ===
    0x2c3e
=== CODE BLOCK END ===

=== CODE BLOCK ADDRESS 0x2c3e ===
  0x2c3e	nop    	dword ptr [eax + eax]
  0x2c43	dec    	eax
  0x2c44	lea    	ecx, [esp + 0x20]
  0x2c48	dec    	eax
  0x2c49	call   	dword ptr [0x17a9]
  === BLOCK LINK ===
    0x2c4f
=== CODE BLOCK END ===

=== CODE BLOCK ADDRESS 0x2c4f ===
  0x2c4f	nop    	dword ptr [eax + eax]
  0x2c54	dec    	eax
  0x2c55	lea    	eax, [0x13b5]
  0x2c5b	dec    	eax
  0x2c5c	lea    	ecx, [esp + 0x128]
  === BLOCK LINK ===
    0x2c63
=== CODE BLOCK END ===

=== CODE BLOCK ADDRESS 0x2c63 ===
  0x2c63	dec    	eax
  0x2c64	mov    	dword ptr [esp + 0x20], eax
  0x2c68	dec    	eax
  0x2c69	call   	dword ptr [0x1841]
  === BLOCK LINK ===
    0x2c6f
=== CODE BLOCK END ===

=== CODE BLOCK ADDRESS 0x2c6f ===
  0x2c6f	nop    	dword ptr [eax + eax]
  0x2c74	dec    	eax
  0x2c75	mov    	eax, dword ptr [0x3955]
  0x2c7b	dec    	eax
  0x2c7c	lea    	ecx, [esp + 0x20]
  === BLOCK LINK ===
    0x2c80
=== CODE BLOCK END ===

=== CODE BLOCK ADDRESS 0x2c80 ===
  0x2c80	dec    	eax
  0x2c81	mov    	dword ptr [esp + 0x28], eax
  0x2c85	call   	0x11b4
  === BLOCK LINK ===
    0x2c8a
=== CODE BLOCK END ===

=== CODE BLOCK ADDRESS 0x2c8a ===
  0x2c8a	test   	al, al
  0x2c8c	je     	0x2cb0
  === BLOCK LINK ===
    0x2c8e
=== CODE BLOCK END ===

=== CODE BLOCK ADDRESS 0x2c8e ===
  0x2c8e	dec    	eax
  0x2c8f	lea    	ecx, [esp + 0x20]
  0x2c93	call   	0x1a58
  === BLOCK LINK ===
    0x2c98
=== CODE BLOCK END ===

=== CODE BLOCK ADDRESS 0x2c98 ===
  0x2c98	test   	al, al
  0x2c9a	je     	0x2cb0
  === BLOCK LINK ===
    0x2c9c
=== CODE BLOCK END ===

=== CODE BLOCK ADDRESS 0x2c9c ===
  0x2c9c	mov    	ecx, dword ptr [esp + 0x110]
  0x2ca3	dec    	eax
  0x2ca4	call   	dword ptr [0x1696]
  === BLOCK LINK ===
    0x2caa
=== CODE BLOCK END ===

=== CODE BLOCK ADDRESS 0x2caa ===
  0x2caa	nop    	dword ptr [eax + eax]
  0x2caf	int3   	
  0x2cb0	mov    	ecx, 2
  0x2cb5	dec    	eax
  0x2cb6	call   	dword ptr [0x1684]
  === BLOCK LINK ===
    0x2cbc
=== CODE BLOCK END ===

=== CODE BLOCK ADDRESS 0x2cbc ===
  0x2cbc	nop    	dword ptr [eax + eax]
  0x2cc1	int3   	
  0x2cc2	int3   	
  0x2cc3	int3   	
  0x2cc4	int3   	
  === BLOCK LINK ===
    0x2cc5
=== CODE BLOCK END ===

=== CODE BLOCK ADDRESS 0x2cc5 ===
  0x2cc5	int3   	
  0x2cc6	int3   	
  0x2cc7	int3   	
  0x2cc8	int3   	
  0x2cc9	int3   	
  === BLOCK LINK ===
    0x2cca
=== CODE BLOCK END ===

=== CODE BLOCK ADDRESS 0x2cca ===
  0x2cca	int3   	
  0x2ccb	int3   	
  0x2ccc	int3   	
  0x2ccd	int3   	
  0x2cce	int3   	
  === BLOCK LINK ===
    0x2ccf
=== CODE BLOCK END ===

=== CODE BLOCK ADDRESS 0x2ccf ===
  0x2ccf	int3   	
  0x2cd0	dec    	eax
  0x2cd1	sub    	esp, 0x28
  0x2cd4	mov    	eax, 0x5a4d
  0x2cd9	cmp    	word ptr [0xffffd320], ax
  === BLOCK LINK ===
    0x2ce0
=== CODE BLOCK END ===

=== CODE BLOCK ADDRESS 0x2ce0 ===
  0x2ce0	je     	0x2ce6
  === BLOCK LINK ===
    0x2ce2
=== CODE BLOCK END ===

=== CODE BLOCK ADDRESS 0x2ce2 ===
  0x2ce2	xor    	eax, eax
  0x2ce4	jmp    	0x2d39
  === BLOCK LINK ===
    0x2ce6
=== CODE BLOCK END ===

=== CODE BLOCK ADDRESS 0x2ce6 ===
  0x2ce6	dec    	eax
  0x2ce7	arpl   	word ptr [0xffffd34f], cx
  0x2ced	dec    	eax
  0x2cee	lea    	eax, [0xffffd30c]
  0x2cf4	dec    	eax
  === BLOCK LINK ===
    0x2cf5
=== CODE BLOCK END ===

=== CODE BLOCK ADDRESS 0x2cf5 ===
  0x2cf5	add    	ecx, eax
  0x2cf7	cmp    	dword ptr [ecx], 0x4550
  0x2cfd	jne    	0x2ce2
  === BLOCK LINK ===
    0x2cff
=== CODE BLOCK END ===

=== CODE BLOCK ADDRESS 0x2cff ===
  0x2cff	mov    	eax, 0x10b
  0x2d04	cmp    	word ptr [ecx + 0x18], ax
  0x2d08	je     	0x2d28
  === BLOCK LINK ===
    0x2d0a
=== CODE BLOCK END ===

=== CODE BLOCK ADDRESS 0x2d0a ===
  0x2d0a	mov    	eax, 0x20b
  0x2d0f	cmp    	word ptr [ecx + 0x18], ax
  0x2d13	jne    	0x2ce2
  === BLOCK LINK ===
    0x2d15
=== CODE BLOCK END ===

=== CODE BLOCK ADDRESS 0x2d15 ===
  0x2d15	xor    	eax, eax
  0x2d17	cmp    	dword ptr [ecx + 0x84], 0xe
  0x2d1e	jbe    	0x2d39
  === BLOCK LINK ===
    0x2d20
=== CODE BLOCK END ===

=== CODE BLOCK ADDRESS 0x2d20 ===
  0x2d20	cmp    	dword ptr [ecx + 0xf8], eax
  0x2d26	jmp    	0x2d36
  === BLOCK LINK ===
    0x2d28
=== CODE BLOCK END ===

=== CODE BLOCK ADDRESS 0x2d28 ===
  0x2d28	xor    	eax, eax
  0x2d2a	cmp    	dword ptr [ecx + 0x74], 0xe
  0x2d2e	jbe    	0x2d39
  === BLOCK LINK ===
    0x2d30
=== CODE BLOCK END ===

=== CODE BLOCK ADDRESS 0x2d30 ===
  0x2d30	cmp    	dword ptr [ecx + 0xe8], eax
  0x2d36	setne  	al
  0x2d39	mov    	ecx, 1
  0x2d3e	mov    	dword ptr [0x32fc], eax
  0x2d44	call   	0x30f8
  === BLOCK LINK ===
    0x2d49
=== CODE BLOCK END ===

=== CODE BLOCK ADDRESS 0x2d49 ===
  0x2d49	mov    	ecx, eax
  0x2d4b	call   	dword ptr [0x15c7]
  === BLOCK LINK ===
    0x2d51
=== CODE BLOCK END ===

=== CODE BLOCK ADDRESS 0x2d51 ===
  0x2d51	dec    	eax
  0x2d52	mov    	ecx, dword ptr [0x1598]
  0x2d58	dec    	eax
  0x2d59	or     	eax, 0xffffffff
  0x2d5c	dec    	eax
  === BLOCK LINK ===
    0x2d5d
=== CODE BLOCK END ===

=== CODE BLOCK ADDRESS 0x2d5d ===
  0x2d5d	mov    	dword ptr [0x3875], eax
  0x2d63	dec    	eax
  0x2d64	mov    	dword ptr [0x3876], eax
  0x2d6a	mov    	eax, dword ptr [0x32e4]
  0x2d70	mov    	dword ptr [ecx], eax
  === BLOCK LINK ===
    0x2d72
=== CODE BLOCK END ===

=== CODE BLOCK ADDRESS 0x2d72 ===
  0x2d72	dec    	eax
  0x2d73	mov    	ecx, dword ptr [0x156f]
  0x2d79	mov    	eax, dword ptr [0x32c9]
  0x2d7f	mov    	dword ptr [ecx], eax
  0x2d81	call   	0x3150
  === BLOCK LINK ===
    0x2d86
=== CODE BLOCK END ===

=== CODE BLOCK ADDRESS 0x2d86 ===
  0x2d86	cmp    	dword ptr [0x3273], 0
  0x2d8d	jne    	0x2d9c
  === BLOCK LINK ===
    0x2d8f
=== CODE BLOCK END ===

=== CODE BLOCK ADDRESS 0x2d8f ===
  0x2d8f	dec    	eax
  0x2d90	lea    	ecx, [0x3ba]
  0x2d96	call   	dword ptr [0x1564]
  === BLOCK LINK ===
    0x2d9c
=== CODE BLOCK END ===

=== CODE BLOCK ADDRESS 0x2d9c ===
  0x2d9c	xor    	eax, eax
  0x2d9e	dec    	eax
  0x2d9f	add    	esp, 0x28
  0x2da2	ret    	
  0x2da3	int3   	
  === BLOCK LINK ===
    0x2da4
=== CODE BLOCK END ===

=== CODE BLOCK ADDRESS 0x2da4 ===
  0x2da4	int3   	
  0x2da5	int3   	
  0x2da6	int3   	
  0x2da7	int3   	
  0x2da8	int3   	
  === BLOCK LINK ===
    0x2da9
=== CODE BLOCK END ===

=== CODE BLOCK ADDRESS 0x2da9 ===
  0x2da9	int3   	
  0x2daa	int3   	
  0x2dab	int3   	
  0x2dac	int3   	
  0x2dad	int3   	
  === BLOCK LINK ===
    0x2dae
=== CODE BLOCK END ===

=== CODE BLOCK ADDRESS 0x2dae ===
  0x2dae	int3   	
  0x2daf	int3   	
  0x2db0	dec    	eax
  0x2db1	sub    	esp, 0x38
  0x2db4	mov    	eax, dword ptr [0x3296]
  === BLOCK LINK ===
    0x2dba
=== CODE BLOCK END ===

=== CODE BLOCK ADDRESS 0x2dba ===
  0x2dba	dec    	esp
  0x2dbb	lea    	eax, [0x3277]
  0x2dc1	inc    	esp
  0x2dc2	mov    	ecx, dword ptr [0x3284]
  0x2dc8	dec    	eax
  === BLOCK LINK ===
    0x2dc9
=== CODE BLOCK END ===

=== CODE BLOCK ADDRESS 0x2dc9 ===
  0x2dc9	lea    	edx, [0x3261]
  0x2dcf	mov    	dword ptr [0x326f], eax
  0x2dd5	dec    	eax
  0x2dd6	lea    	ecx, [0x324c]
  0x2ddc	dec    	eax
  === BLOCK LINK ===
    0x2ddd
=== CODE BLOCK END ===

=== CODE BLOCK ADDRESS 0x2ddd ===
  0x2ddd	lea    	eax, [0x3261]
  0x2de3	dec    	eax
  0x2de4	mov    	dword ptr [esp + 0x20], eax
  0x2de8	call   	dword ptr [0x1532]
  === BLOCK LINK ===
    0x2dee
=== CODE BLOCK END ===

=== CODE BLOCK ADDRESS 0x2dee ===
  0x2dee	mov    	dword ptr [0x3238], eax
  0x2df4	dec    	eax
  0x2df5	add    	esp, 0x38
  0x2df8	ret    	
  0x2df9	int3   	
  === BLOCK LINK ===
    0x2dfa
=== CODE BLOCK END ===

=== CODE BLOCK ADDRESS 0x2dfa ===
  0x2dfa	int3   	
  0x2dfb	int3   	
  0x2dfc	int3   	
  0x2dfd	int3   	
  0x2dfe	int3   	
  === BLOCK LINK ===
    0x2dff
=== CODE BLOCK END ===

=== CODE BLOCK ADDRESS 0x2dff ===
  0x2dff	int3   	
  0x2e00	dec    	eax
  0x2e01	mov    	dword ptr [esp + 8], ebx
  0x2e05	dec    	eax
  0x2e06	mov    	dword ptr [esp + 0x10], esi
  === BLOCK LINK ===
    0x2e0a
=== CODE BLOCK END ===

=== CODE BLOCK ADDRESS 0x2e0a ===
  0x2e0a	dec    	eax
  0x2e0b	mov    	dword ptr [esp + 0x18], edi
  0x2e0f	inc    	ecx
  0x2e10	push   	edi
  0x2e11	dec    	eax
  === BLOCK LINK ===
    0x2e12
=== CODE BLOCK END ===

=== CODE BLOCK ADDRESS 0x2e12 ===
  0x2e12	sub    	esp, 0x30
  0x2e15	dec    	eax
  0x2e17	mov    	eax, dword ptr [0x30]
  0x2e1e	dec    	eax
  0x2e1f	mov    	ebx, dword ptr [eax + 8]
  === BLOCK LINK ===
    0x2e22
=== CODE BLOCK END ===

=== CODE BLOCK ADDRESS 0x2e22 ===
  0x2e22	xor    	esi, esi
  0x2e24	xor    	eax, eax
  0x2e26	.byte  	0xf0
  0x2e27	dec    	eax
  0x2e28	cmpxchg  	dword ptr [0x37b9], ebx
  === BLOCK LINK ===
    0x2e2f
=== CODE BLOCK END ===

=== CODE BLOCK ADDRESS 0x2e2f ===
  0x2e2f	je     	0x2e4c
  === BLOCK LINK ===
    0x2e31
=== CODE BLOCK END ===

=== CODE BLOCK ADDRESS 0x2e31 ===
  0x2e31	dec    	eax
  0x2e32	cmp    	eax, ebx
  0x2e34	jne    	0x2e3f
  === BLOCK LINK ===
    0x2e36
=== CODE BLOCK END ===

=== CODE BLOCK ADDRESS 0x2e36 ===
  0x2e36	mov    	ebx, 1
  0x2e3b	mov    	esi, ebx
  0x2e3d	jmp    	0x2e51
  === BLOCK LINK ===
    0x2e3f
=== CODE BLOCK END ===

=== CODE BLOCK ADDRESS 0x2e3f ===
  0x2e3f	mov    	ecx, 0x3e8
  0x2e44	call   	dword ptr [0x143e]
  === BLOCK LINK ===
    0x2e4a
=== CODE BLOCK END ===

=== CODE BLOCK ADDRESS 0x2e4a ===
  0x2e4a	jmp    	0x2e24
  === BLOCK LINK ===
    0x2e4c
=== CODE BLOCK END ===

=== CODE BLOCK ADDRESS 0x2e4c ===
  0x2e4c	mov    	ebx, 1
  0x2e51	mov    	eax, dword ptr [0x3799]
  0x2e57	cmp    	eax, ebx
  0x2e59	jne    	0x2e67
  === BLOCK LINK ===
    0x2e5b
=== CODE BLOCK END ===

=== CODE BLOCK ADDRESS 0x2e5b ===
  0x2e5b	mov    	ecx, 0x1f
  0x2e60	call   	0x3143
  === BLOCK LINK ===
    0x2e65
=== CODE BLOCK END ===

=== CODE BLOCK ADDRESS 0x2e65 ===
  0x2e65	jmp    	0x2ecc
  === BLOCK LINK ===
    0x2e67
=== CODE BLOCK END ===

=== CODE BLOCK ADDRESS 0x2e67 ===
  0x2e67	mov    	eax, dword ptr [0x3783]
  0x2e6d	test   	eax, eax
  0x2e6f	jne    	0x2ec6
  === BLOCK LINK ===
    0x2e71
=== CODE BLOCK END ===

=== CODE BLOCK ADDRESS 0x2e71 ===
  0x2e71	mov    	dword ptr [0x3779], ebx
  0x2e77	dec    	esp
  0x2e78	lea    	edi, [0x16f2]
  0x2e7e	dec    	eax
  0x2e7f	lea    	edi, [0x16d3]
  === BLOCK LINK ===
    0x2e85
=== CODE BLOCK END ===

=== CODE BLOCK ADDRESS 0x2e85 ===
  0x2e85	dec    	eax
  0x2e86	mov    	dword ptr [esp + 0x28], edi
  0x2e8a	mov    	dword ptr [esp + 0x20], eax
  0x2e8e	dec    	ecx
  0x2e8f	cmp    	edi, edi
  === BLOCK LINK ===
    0x2e91
=== CODE BLOCK END ===

=== CODE BLOCK ADDRESS 0x2e91 ===
  0x2e91	jae    	0x2eb8
  === BLOCK LINK ===
    0x2e93
=== CODE BLOCK END ===

=== CODE BLOCK ADDRESS 0x2e93 ===
  0x2e93	test   	eax, eax
  0x2e95	jne    	0x2ebc
  === BLOCK LINK ===
    0x2e97
=== CODE BLOCK END ===

=== CODE BLOCK ADDRESS 0x2e97 ===
  0x2e97	dec    	eax
  0x2e98	cmp    	dword ptr [edi], 0
  0x2e9b	je     	0x2ead
  === BLOCK LINK ===
    0x2e9d
=== CODE BLOCK END ===

=== CODE BLOCK ADDRESS 0x2e9d ===
  0x2e9d	dec    	eax
  0x2e9e	mov    	eax, dword ptr [edi]
  0x2ea0	dec    	eax
  0x2ea1	mov    	ecx, dword ptr [0x1691]
  0x2ea7	call   	ecx
  === BLOCK LINK ===
    0x2ea9
=== CODE BLOCK END ===

=== CODE BLOCK ADDRESS 0x2ea9 ===
  0x2ea9	mov    	dword ptr [esp + 0x20], eax
  0x2ead	dec    	eax
  0x2eae	add    	edi, 8
  0x2eb1	dec    	eax
  0x2eb2	mov    	dword ptr [esp + 0x28], edi
  === BLOCK LINK ===
    0x2eb6
=== CODE BLOCK END ===

=== CODE BLOCK ADDRESS 0x2eb6 ===
  0x2eb6	jmp    	0x2e8e
  === BLOCK LINK ===
    0x2eb8
=== CODE BLOCK END ===

=== CODE BLOCK ADDRESS 0x2eb8 ===
  0x2eb8	test   	eax, eax
  0x2eba	je     	0x2ecc
  === BLOCK LINK ===
    0x2ebc
=== CODE BLOCK END ===

=== CODE BLOCK ADDRESS 0x2ebc ===
  0x2ebc	mov    	eax, 0xff
  0x2ec1	jmp    	0x2fa8
  === BLOCK LINK ===
    0x2ec6
=== CODE BLOCK END ===

=== CODE BLOCK ADDRESS 0x2ec6 ===
  0x2ec6	mov    	dword ptr [0x3158], ebx
  0x2ecc	mov    	eax, dword ptr [0x371e]
  0x2ed2	cmp    	eax, ebx
  0x2ed4	jne    	0x2ef3
  === BLOCK LINK ===
    0x2ed6
=== CODE BLOCK END ===

=== CODE BLOCK ADDRESS 0x2ed6 ===
  0x2ed6	dec    	eax
  0x2ed7	lea    	edx, [0x1673]
  0x2edd	dec    	eax
  0x2ede	lea    	ecx, [0x165c]
  0x2ee4	call   	0x331e
  === BLOCK LINK ===
    0x2ee9
=== CODE BLOCK END ===

=== CODE BLOCK ADDRESS 0x2ee9 ===
  0x2ee9	mov    	dword ptr [0x36fd], 2
  0x2ef3	test   	esi, esi
  0x2ef5	jne    	0x2f00
  === BLOCK LINK ===
    0x2ef7
=== CODE BLOCK END ===

=== CODE BLOCK ADDRESS 0x2ef7 ===
  0x2ef7	xor    	eax, eax
  0x2ef9	dec    	eax
  0x2efa	xchg   	dword ptr [0x36e8], eax
  0x2f00	dec    	eax
  0x2f01	cmp    	dword ptr [0x36f0], 0
  === BLOCK LINK ===
    0x2f08
=== CODE BLOCK END ===

=== CODE BLOCK ADDRESS 0x2f08 ===
  0x2f08	je     	0x2f34
  === BLOCK LINK ===
    0x2f0a
=== CODE BLOCK END ===

=== CODE BLOCK ADDRESS 0x2f0a ===
  0x2f0a	dec    	eax
  0x2f0b	lea    	ecx, [0x36e7]
  0x2f11	call   	0x31b0
  === BLOCK LINK ===
    0x2f16
=== CODE BLOCK END ===

=== CODE BLOCK ADDRESS 0x2f16 ===
  0x2f16	test   	eax, eax
  0x2f18	je     	0x2f34
  === BLOCK LINK ===
    0x2f1a
=== CODE BLOCK END ===

=== CODE BLOCK ADDRESS 0x2f1a ===
  0x2f1a	inc    	ebp
  0x2f1b	xor    	eax, eax
  0x2f1d	inc    	ecx
  0x2f1e	lea    	edx, [eax + 2]
  0x2f21	xor    	ecx, ecx
  === BLOCK LINK ===
    0x2f23
=== CODE BLOCK END ===

=== CODE BLOCK ADDRESS 0x2f23 ===
  0x2f23	dec    	eax
  0x2f24	mov    	eax, dword ptr [0x36ce]
  0x2f2a	dec    	esp
  0x2f2b	mov    	ecx, dword ptr [0x1607]
  0x2f31	inc    	ecx
  === BLOCK LINK ===
    0x2f32
=== CODE BLOCK END ===

=== CODE BLOCK ADDRESS 0x2f32 ===
  0x2f32	call   	ecx
  === BLOCK LINK ===
    0x2f34
=== CODE BLOCK END ===

=== CODE BLOCK ADDRESS 0x2f34 ===
  0x2f34	dec    	esp
  0x2f35	mov    	eax, dword ptr [0x30fd]
  0x2f3b	dec    	eax
  0x2f3c	mov    	edx, dword ptr [0x30ee]
  0x2f42	mov    	ecx, dword ptr [0x30e0]
  === BLOCK LINK ===
    0x2f48
=== CODE BLOCK END ===

=== CODE BLOCK ADDRESS 0x2f48 ===
  0x2f48	call   	0x2bd4
  === BLOCK LINK ===
    0x2f4d
=== CODE BLOCK END ===

=== CODE BLOCK ADDRESS 0x2f4d ===
  0x2f4d	mov    	dword ptr [0x30cd], eax
  0x2f53	cmp    	dword ptr [0x30e6], 0
  0x2f5a	jne    	0x2f64
  === BLOCK LINK ===
    0x2f5c
=== CODE BLOCK END ===

=== CODE BLOCK ADDRESS 0x2f5c ===
  0x2f5c	mov    	ecx, eax
  0x2f5e	call   	dword ptr [0x13dc]
  === BLOCK LINK ===
    0x2f64
=== CODE BLOCK END ===

=== CODE BLOCK ADDRESS 0x2f64 ===
  0x2f64	cmp    	dword ptr [0x30b9], 0
  0x2f6b	jne    	0x2f79
  === BLOCK LINK ===
    0x2f6d
=== CODE BLOCK END ===

=== CODE BLOCK ADDRESS 0x2f6d ===
  0x2f6d	call   	dword ptr [0x1395]
  === BLOCK LINK ===
    0x2f73
=== CODE BLOCK END ===

=== CODE BLOCK ADDRESS 0x2f73 ===
  0x2f73	mov    	eax, dword ptr [0x30a7]
  0x2f79	jmp    	0x2fa8
  === BLOCK LINK ===
    0x2f7b
=== CODE BLOCK END ===

=== CODE BLOCK ADDRESS 0x2f7b ===
  0x2f7b	mov    	dword ptr [0x309f], eax
  0x2f81	cmp    	dword ptr [0x30b8], 0
  0x2f88	jne    	0x2f93
  === BLOCK LINK ===
    0x2f8a
=== CODE BLOCK END ===

=== CODE BLOCK ADDRESS 0x2f8a ===
  0x2f8a	mov    	ecx, eax
  0x2f8c	call   	dword ptr [0x137e]
  === BLOCK LINK ===
    0x2f92
=== CODE BLOCK END ===

=== CODE BLOCK ADDRESS 0x2f92 ===
  0x2f92	int3   	
  0x2f93	cmp    	dword ptr [0x308a], 0
  0x2f9a	jne    	0x2fa8
  === BLOCK LINK ===
    0x2f9c
=== CODE BLOCK END ===

=== CODE BLOCK ADDRESS 0x2f9c ===
  0x2f9c	call   	dword ptr [0x1366]
  === BLOCK LINK ===
    0x2fa2
=== CODE BLOCK END ===

=== CODE BLOCK ADDRESS 0x2fa2 ===
  0x2fa2	mov    	eax, dword ptr [0x3078]
  0x2fa8	dec    	eax
  0x2fa9	mov    	ebx, dword ptr [esp + 0x40]
  0x2fad	dec    	eax
  0x2fae	mov    	esi, dword ptr [esp + 0x48]
  === BLOCK LINK ===
    0x2fb2
=== CODE BLOCK END ===

=== CODE BLOCK ADDRESS 0x2fb2 ===
  0x2fb2	dec    	eax
  0x2fb3	mov    	edi, dword ptr [esp + 0x50]
  0x2fb7	dec    	eax
  0x2fb8	add    	esp, 0x30
  0x2fbb	inc    	ecx
  === BLOCK LINK ===
    0x2fbc
=== CODE BLOCK END ===

=== CODE BLOCK ADDRESS 0x2fbc ===
  0x2fbc	pop    	edi
  0x2fbd	ret    	
  0x2fbe	int3   	
  0x2fbf	int3   	
  0x2fc0	int3   	
  === BLOCK LINK ===
    0x2fc1
=== CODE BLOCK END ===

=== CODE BLOCK ADDRESS 0x2fc1 ===
  0x2fc1	int3   	
  0x2fc2	int3   	
  0x2fc3	int3   	
  0x2fc4	int3   	
  0x2fc5	int3   	
  === BLOCK LINK ===
    0x2fc6
=== CODE BLOCK END ===

=== CODE BLOCK ADDRESS 0x2fc6 ===
  0x2fc6	int3   	
  0x2fc7	int3   	
  0x2fc8	int3   	
  0x2fc9	int3   	
  0x2fca	int3   	
  === BLOCK LINK ===
    0x2fcb
=== CODE BLOCK END ===

=== CODE BLOCK ADDRESS 0x2fcb ===
  0x2fcb	int3   	
  0x2fcc	int3   	
  0x2fcd	int3   	
  0x2fce	int3   	
  0x2fcf	int3   	
  === BLOCK LINK ===
    0x2fd0
=== CODE BLOCK END ===

=== CODE BLOCK ADDRESS 0x2fd0 ===
  0x2fd0	dec    	eax
  0x2fd1	sub    	esp, 0x28
  0x2fd4	call   	0x3244
  === BLOCK LINK ===
    0x2fd9
=== CODE BLOCK END ===

=== CODE BLOCK ADDRESS 0x2fd9 ===
  0x2fd9	dec    	eax
  0x2fda	add    	esp, 0x28
  0x2fdd	jmp    	0x2e00
  === BLOCK LINK ===
    0x2fe2
=== CODE BLOCK END ===

=== CODE BLOCK ADDRESS 0x2fe2 ===
  0x2fe2	int3   	
  0x2fe3	int3   	
  0x2fe4	int3   	
  0x2fe5	int3   	
  0x2fe6	int3   	
  === BLOCK LINK ===
    0x2fe7
=== CODE BLOCK END ===

=== CODE BLOCK ADDRESS 0x2fe7 ===
  0x2fe7	int3   	
  0x2fe8	int3   	
  0x2fe9	int3   	
  0x2fea	int3   	
  0x2feb	int3   	
  === BLOCK LINK ===
    0x2fec
=== CODE BLOCK END ===

=== CODE BLOCK ADDRESS 0x2fec ===
  0x2fec	int3   	
  0x2fed	int3   	
  0x2fee	int3   	
  0x2fef	int3   	
  0x2ff0	int3   	
  === BLOCK LINK ===
    0x2ff1
=== CODE BLOCK END ===

=== CODE BLOCK ADDRESS 0x2ff1 ===
  0x2ff1	int3   	
  0x2ff2	int3   	
  0x2ff3	int3   	
  0x2ff4	int3   	
  0x2ff5	int3   	
  === BLOCK LINK ===
    0x2ff6
=== CODE BLOCK END ===

=== CODE BLOCK ADDRESS 0x2ff6 ===
  0x2ff6	nop    	word ptr [eax + eax]
  0x3000	dec    	eax
  0x3001	cmp    	ecx, dword ptr [0x3001]
  0x3007	jne    	0x3019
  === BLOCK LINK ===
    0x3009
=== CODE BLOCK END ===

=== CODE BLOCK ADDRESS 0x3009 ===
  0x3009	dec    	eax
  0x300a	rol    	ecx, 0x10
  0x300d	test   	cx, 0xffff
  0x3012	jne    	0x3015
  === BLOCK LINK ===
    0x3014
=== CODE BLOCK END ===

=== CODE BLOCK ADDRESS 0x3014 ===
  0x3014	ret    	
  0x3015	dec    	eax
  0x3016	ror    	ecx, 0x10
  0x3019	jmp    	0x3390
  === BLOCK LINK ===
    0x301e
=== CODE BLOCK END ===

=== CODE BLOCK ADDRESS 0x301e ===
  0x301e	int3   	
  0x301f	int3   	
  0x3020	int3   	
  0x3021	int3   	
  0x3022	int3   	
  === BLOCK LINK ===
    0x3023
=== CODE BLOCK END ===

=== CODE BLOCK ADDRESS 0x3023 ===
  0x3023	int3   	
  0x3024	int3   	
  0x3025	int3   	
  0x3026	int3   	
  0x3027	int3   	
  === BLOCK LINK ===
    0x3028
=== CODE BLOCK END ===

=== CODE BLOCK ADDRESS 0x3028 ===
  0x3028	int3   	
  0x3029	int3   	
  0x302a	int3   	
  0x302b	int3   	
  0x302c	int3   	
  === BLOCK LINK ===
    0x302d
=== CODE BLOCK END ===

=== CODE BLOCK ADDRESS 0x302d ===
  0x302d	int3   	
  0x302e	int3   	
  0x302f	int3   	
  0x3030	dec    	eax
  0x3031	sub    	esp, 0x28
  === BLOCK LINK ===
    0x3034
=== CODE BLOCK END ===

=== CODE BLOCK ADDRESS 0x3034 ===
  0x3034	dec    	eax
  0x3035	mov    	eax, dword ptr [ecx]
  0x3037	cmp    	dword ptr [eax], 0xe06d7363
  0x303d	jne    	0x3062
  === BLOCK LINK ===
    0x303f
=== CODE BLOCK END ===

=== CODE BLOCK ADDRESS 0x303f ===
  0x303f	cmp    	dword ptr [eax + 0x18], 4
  0x3043	jne    	0x3062
  === BLOCK LINK ===
    0x3045
=== CODE BLOCK END ===

=== CODE BLOCK ADDRESS 0x3045 ===
  0x3045	mov    	ecx, dword ptr [eax + 0x20]
  0x3048	lea    	eax, [ecx - 0x19930520]
  0x304e	cmp    	eax, 2
  0x3051	jbe    	0x305b
  === BLOCK LINK ===
    0x3053
=== CODE BLOCK END ===

=== CODE BLOCK ADDRESS 0x3053 ===
  0x3053	cmp    	ecx, 0x1994000
  0x3059	jne    	0x3062
  === BLOCK LINK ===
    0x305b
=== CODE BLOCK END ===

=== CODE BLOCK ADDRESS 0x305b ===
  0x305b	call   	dword ptr [0x127f]
  === BLOCK LINK ===
    0x3061
=== CODE BLOCK END ===

=== CODE BLOCK ADDRESS 0x3061 ===
  0x3061	int3   	
  0x3062	xor    	eax, eax
  0x3064	dec    	eax
  0x3065	add    	esp, 0x28
  0x3068	ret    	
  === BLOCK LINK ===
    0x3069
=== CODE BLOCK END ===

=== CODE BLOCK ADDRESS 0x3069 ===
  0x3069	int3   	
  0x306a	int3   	
  0x306b	int3   	
  0x306c	int3   	
  0x306d	int3   	
  === BLOCK LINK ===
    0x306e
=== CODE BLOCK END ===

=== CODE BLOCK ADDRESS 0x306e ===
  0x306e	int3   	
  0x306f	int3   	
  0x3070	dec    	eax
  0x3071	sub    	esp, 0x28
  0x3074	dec    	eax
  === BLOCK LINK ===
    0x3075
=== CODE BLOCK END ===

=== CODE BLOCK ADDRESS 0x3075 ===
  0x3075	lea    	ecx, [0xffffffb5]
  0x307b	call   	dword ptr [0x1237]
  === BLOCK LINK ===
    0x3081
=== CODE BLOCK END ===

=== CODE BLOCK ADDRESS 0x3081 ===
  0x3081	xor    	eax, eax
  0x3083	dec    	eax
  0x3084	add    	esp, 0x28
  0x3087	ret    	
  0x3088	int3   	
  === BLOCK LINK ===
    0x3089
=== CODE BLOCK END ===

=== CODE BLOCK ADDRESS 0x3089 ===
  0x3089	int3   	
  0x308a	int3   	
  0x308b	int3   	
  0x308c	int3   	
  0x308d	int3   	
  === BLOCK LINK ===
    0x308e
=== CODE BLOCK END ===

=== CODE BLOCK ADDRESS 0x308e ===
  0x308e	jmp    	dword ptr [0x129c]
  === BLOCK LINK ===
    0x3094
=== CODE BLOCK END ===

=== CODE BLOCK ADDRESS 0x3094 ===
  0x3094	int3   	
  0x3095	int3   	
  0x3096	int3   	
  0x3097	int3   	
  0x3098	int3   	
  === BLOCK LINK ===
    0x3099
=== CODE BLOCK END ===

=== CODE BLOCK ADDRESS 0x3099 ===
  0x3099	int3   	
  0x309a	int3   	
  0x309b	int3   	
  0x309c	dec    	eax
  0x309d	sub    	esp, 0x18
  === BLOCK LINK ===
    0x30a0
=== CODE BLOCK END ===

=== CODE BLOCK ADDRESS 0x30a0 ===
  0x30a0	xor    	edx, edx
  0x30a2	dec    	eax
  0x30a3	lea    	eax, [ecx - 1]
  0x30a6	dec    	eax
  0x30a7	cmp    	eax, -3
  === BLOCK LINK ===
    0x30aa
=== CODE BLOCK END ===

=== CODE BLOCK ADDRESS 0x30aa ===
  0x30aa	ja     	0x30e8
  === BLOCK LINK ===
    0x30ac
=== CODE BLOCK END ===

=== CODE BLOCK ADDRESS 0x30ac ===
  0x30ac	mov    	eax, 0x5a4d
  0x30b1	cmp    	word ptr [ecx], ax
  0x30b4	jne    	0x30e0
  === BLOCK LINK ===
    0x30b6
=== CODE BLOCK END ===

=== CODE BLOCK ADDRESS 0x30b6 ===
  0x30b6	cmp    	dword ptr [ecx + 0x3c], edx
  0x30b9	jl     	0x30e0
  === BLOCK LINK ===
    0x30bb
=== CODE BLOCK END ===

=== CODE BLOCK ADDRESS 0x30bb ===
  0x30bb	cmp    	dword ptr [ecx + 0x3c], 0x10000000
  0x30c2	jae    	0x30e0
  === BLOCK LINK ===
    0x30c4
=== CODE BLOCK END ===

=== CODE BLOCK ADDRESS 0x30c4 ===
  0x30c4	dec    	eax
  0x30c5	arpl   	word ptr [ecx + 0x3c], ax
  0x30c8	dec    	eax
  0x30c9	add    	eax, ecx
  0x30cb	dec    	eax
  === BLOCK LINK ===
    0x30cc
=== CODE BLOCK END ===

=== CODE BLOCK ADDRESS 0x30cc ===
  0x30cc	mov    	dword ptr [esp], eax
  0x30cf	cmp    	dword ptr [eax], 0x4550
  0x30d5	dec    	eax
  0x30d6	cmovne  	eax, edx
  0x30d9	dec    	eax
  === BLOCK LINK ===
    0x30da
=== CODE BLOCK END ===

=== CODE BLOCK ADDRESS 0x30da ===
  0x30da	mov    	edx, eax
  0x30dc	dec    	eax
  0x30dd	mov    	dword ptr [esp], eax
  0x30e0	jmp    	0x30e8
  === BLOCK LINK ===
    0x30e2
=== CODE BLOCK END ===

=== CODE BLOCK ADDRESS 0x30e2 ===
  0x30e2	xor    	edx, edx
  0x30e4	dec    	eax
  0x30e5	mov    	dword ptr [esp], edx
  0x30e8	dec    	eax
  0x30e9	mov    	eax, edx
  === BLOCK LINK ===
    0x30eb
=== CODE BLOCK END ===

=== CODE BLOCK ADDRESS 0x30eb ===
  0x30eb	dec    	eax
  0x30ec	add    	esp, 0x18
  0x30ef	ret    	
  0x30f0	int3   	
  0x30f1	int3   	
  === BLOCK LINK ===
    0x30f2
=== CODE BLOCK END ===

=== CODE BLOCK ADDRESS 0x30f2 ===
  0x30f2	int3   	
  0x30f3	int3   	
  0x30f4	int3   	
  0x30f5	int3   	
  0x30f6	int3   	
  === BLOCK LINK ===
    0x30f7
=== CODE BLOCK END ===

=== CODE BLOCK ADDRESS 0x30f7 ===
  0x30f7	int3   	
  0x30f8	inc    	eax
  0x30f9	push   	ebx
  0x30fa	dec    	eax
  0x30fb	sub    	esp, 0x20
  === BLOCK LINK ===
    0x30fe
=== CODE BLOCK END ===

=== CODE BLOCK ADDRESS 0x30fe ===
  0x30fe	mov    	ebx, ecx
  0x3100	xor    	ecx, ecx
  0x3102	call   	dword ptr [0x1170]
  === BLOCK LINK ===
    0x3108
=== CODE BLOCK END ===

=== CODE BLOCK ADDRESS 0x3108 ===
  0x3108	dec    	eax
  0x3109	test   	eax, eax
  0x310b	je     	0x3135
  === BLOCK LINK ===
    0x310d
=== CODE BLOCK END ===

=== CODE BLOCK ADDRESS 0x310d ===
  0x310d	dec    	eax
  0x310e	mov    	ecx, eax
  0x3110	call   	0x309c
  === BLOCK LINK ===
    0x3115
=== CODE BLOCK END ===

=== CODE BLOCK ADDRESS 0x3115 ===
  0x3115	dec    	eax
  0x3116	test   	eax, eax
  0x3118	je     	0x3135
  === BLOCK LINK ===
    0x311a
=== CODE BLOCK END ===

=== CODE BLOCK ADDRESS 0x311a ===
  0x311a	mov    	ecx, 2
  0x311f	cmp    	word ptr [eax + 0x5c], cx
  0x3123	jne    	0x3129
  === BLOCK LINK ===
    0x3125
=== CODE BLOCK END ===

=== CODE BLOCK ADDRESS 0x3125 ===
  0x3125	mov    	eax, ecx
  0x3127	jmp    	0x3137
  === BLOCK LINK ===
    0x3129
=== CODE BLOCK END ===

=== CODE BLOCK ADDRESS 0x3129 ===
  0x3129	cmp    	word ptr [eax + 0x5c], 3
  0x312e	mov    	eax, 1
  0x3133	je     	0x3137
  === BLOCK LINK ===
    0x3135
=== CODE BLOCK END ===

=== CODE BLOCK ADDRESS 0x3135 ===
  0x3135	mov    	eax, ebx
  0x3137	dec    	eax
  0x3138	add    	esp, 0x20
  0x313b	pop    	ebx
  0x313c	ret    	
  === BLOCK LINK ===
    0x313d
=== CODE BLOCK END ===

=== CODE BLOCK ADDRESS 0x313d ===
  0x313d	int3   	
  0x313e	int3   	
  0x313f	int3   	
  0x3140	int3   	
  0x3141	int3   	
  === BLOCK LINK ===
    0x3142
=== CODE BLOCK END ===

=== CODE BLOCK ADDRESS 0x3142 ===
  0x3142	int3   	
  0x3143	jmp    	dword ptr [0x11df]
  === BLOCK LINK ===
    0x3149
=== CODE BLOCK END ===

=== CODE BLOCK ADDRESS 0x3149 ===
  0x3149	int3   	
  0x314a	int3   	
  0x314b	int3   	
  0x314c	int3   	
  0x314d	int3   	
  === BLOCK LINK ===
    0x314e
=== CODE BLOCK END ===

=== CODE BLOCK ADDRESS 0x314e ===
  0x314e	int3   	
  0x314f	int3   	
  0x3150	xor    	eax, eax
  0x3152	ret    	
  0x3153	int3   	
  === BLOCK LINK ===
    0x3154
=== CODE BLOCK END ===

=== CODE BLOCK ADDRESS 0x3154 ===
  0x3154	int3   	
  0x3155	int3   	
  0x3156	int3   	
  0x3157	int3   	
  0x3158	int3   	
  === BLOCK LINK ===
    0x3159
=== CODE BLOCK END ===

=== CODE BLOCK ADDRESS 0x3159 ===
  0x3159	int3   	
  0x315a	int3   	
  0x315b	int3   	
  0x315c	int3   	
  0x315d	int3   	
  === BLOCK LINK ===
    0x315e
=== CODE BLOCK END ===

=== CODE BLOCK ADDRESS 0x315e ===
  0x315e	int3   	
  0x315f	int3   	
  0x3160	dec    	esp
  0x3161	arpl   	word ptr [ecx + 0x3c], ax
  0x3164	inc    	ebp
  === BLOCK LINK ===
    0x3165
=== CODE BLOCK END ===

=== CODE BLOCK ADDRESS 0x3165 ===
  0x3165	xor    	ecx, ecx
  0x3167	dec    	esp
  0x3168	add    	eax, ecx
  0x316a	dec    	esp
  0x316b	mov    	edx, edx
  === BLOCK LINK ===
    0x316d
=== CODE BLOCK END ===

=== CODE BLOCK ADDRESS 0x316d ===
  0x316d	inc    	ecx
  0x316e	movzx  	eax, word ptr [eax + 0x14]
  0x3172	inc    	ebp
  0x3173	movzx  	ebx, word ptr [eax + 6]
  0x3177	dec    	eax
  === BLOCK LINK ===
    0x3178
=== CODE BLOCK END ===

=== CODE BLOCK ADDRESS 0x3178 ===
  0x3178	add    	eax, 0x18
  0x317b	dec    	ecx
  0x317c	add    	eax, eax
  0x317e	inc    	ebp
  0x317f	test   	ebx, ebx
  === BLOCK LINK ===
    0x3181
=== CODE BLOCK END ===

=== CODE BLOCK ADDRESS 0x3181 ===
  0x3181	je     	0x31a1
  === BLOCK LINK ===
    0x3183
=== CODE BLOCK END ===

=== CODE BLOCK ADDRESS 0x3183 ===
  0x3183	mov    	edx, dword ptr [eax + 0xc]
  0x3186	dec    	esp
  0x3187	cmp    	edx, edx
  0x3189	jb     	0x3195
  === BLOCK LINK ===
    0x318b
=== CODE BLOCK END ===

=== CODE BLOCK ADDRESS 0x318b ===
  0x318b	mov    	ecx, dword ptr [eax + 8]
  0x318e	add    	ecx, edx
  0x3190	dec    	esp
  0x3191	cmp    	edx, ecx
  0x3193	jb     	0x31a3
  === BLOCK LINK ===
    0x3195
=== CODE BLOCK END ===

=== CODE BLOCK ADDRESS 0x3195 ===
  0x3195	inc    	ecx
  0x3196	inc    	ecx
  0x3198	dec    	eax
  0x3199	add    	eax, 0x28
  0x319c	inc    	ebp
  === BLOCK LINK ===
    0x319d
=== CODE BLOCK END ===

=== CODE BLOCK ADDRESS 0x319d ===
  0x319d	cmp    	ecx, ebx
  0x319f	jb     	0x3183
  === BLOCK LINK ===
    0x31a1
=== CODE BLOCK END ===

=== CODE BLOCK ADDRESS 0x31a1 ===
  0x31a1	xor    	eax, eax
  0x31a3	ret    	
  0x31a4	int3   	
  0x31a5	int3   	
  0x31a6	int3   	
  === BLOCK LINK ===
    0x31a7
=== CODE BLOCK END ===

=== CODE BLOCK ADDRESS 0x31a7 ===
  0x31a7	int3   	
  0x31a8	int3   	
  0x31a9	int3   	
  0x31aa	int3   	
  0x31ab	int3   	
  === BLOCK LINK ===
    0x31ac
=== CODE BLOCK END ===

=== CODE BLOCK ADDRESS 0x31ac ===
  0x31ac	int3   	
  0x31ad	int3   	
  0x31ae	int3   	
  0x31af	int3   	
  0x31b0	dec    	eax
  === BLOCK LINK ===
    0x31b1
=== CODE BLOCK END ===

=== CODE BLOCK ADDRESS 0x31b1 ===
  0x31b1	mov    	dword ptr [esp + 8], ebx
  0x31b5	push   	edi
  0x31b6	dec    	eax
  0x31b7	sub    	esp, 0x20
  0x31ba	dec    	eax
  === BLOCK LINK ===
    0x31bb
=== CODE BLOCK END ===

=== CODE BLOCK ADDRESS 0x31bb ===
  0x31bb	mov    	ebx, ecx
  0x31bd	dec    	eax
  0x31be	lea    	edi, [0xffffce3c]
  0x31c4	dec    	eax
  0x31c5	mov    	ecx, edi
  === BLOCK LINK ===
    0x31c7
=== CODE BLOCK END ===

=== CODE BLOCK ADDRESS 0x31c7 ===
  0x31c7	call   	0x3210
  === BLOCK LINK ===
    0x31cc
=== CODE BLOCK END ===

=== CODE BLOCK ADDRESS 0x31cc ===
  0x31cc	test   	eax, eax
  0x31ce	je     	0x31f2
  === BLOCK LINK ===
    0x31d0
=== CODE BLOCK END ===

=== CODE BLOCK ADDRESS 0x31d0 ===
  0x31d0	dec    	eax
  0x31d1	sub    	ebx, edi
  0x31d3	dec    	eax
  0x31d4	mov    	edx, ebx
  0x31d6	dec    	eax
  === BLOCK LINK ===
    0x31d7
=== CODE BLOCK END ===

=== CODE BLOCK ADDRESS 0x31d7 ===
  0x31d7	mov    	ecx, edi
  0x31d9	call   	0x3160
  === BLOCK LINK ===
    0x31de
=== CODE BLOCK END ===

=== CODE BLOCK ADDRESS 0x31de ===
  0x31de	dec    	eax
  0x31df	test   	eax, eax
  0x31e1	je     	0x31f2
  === BLOCK LINK ===
    0x31e3
=== CODE BLOCK END ===

=== CODE BLOCK ADDRESS 0x31e3 ===
  0x31e3	mov    	eax, dword ptr [eax + 0x24]
  0x31e6	shr    	eax, 0x1f
  0x31e9	not    	eax
  0x31eb	and    	eax, 1
  0x31ee	jmp    	0x31f2
  === BLOCK LINK ===
    0x31f0
=== CODE BLOCK END ===

=== CODE BLOCK ADDRESS 0x31f0 ===
  0x31f0	xor    	eax, eax
  0x31f2	dec    	eax
  0x31f3	mov    	ebx, dword ptr [esp + 0x30]
  0x31f7	dec    	eax
  0x31f8	add    	esp, 0x20
  === BLOCK LINK ===
    0x31fb
=== CODE BLOCK END ===

=== CODE BLOCK ADDRESS 0x31fb ===
  0x31fb	pop    	edi
  0x31fc	ret    	
  0x31fd	int3   	
  0x31fe	int3   	
  0x31ff	int3   	
  === BLOCK LINK ===
    0x3200
=== CODE BLOCK END ===

=== CODE BLOCK ADDRESS 0x3200 ===
  0x3200	int3   	
  0x3201	int3   	
  0x3202	int3   	
  0x3203	int3   	
  0x3204	int3   	
  === BLOCK LINK ===
    0x3205
=== CODE BLOCK END ===

=== CODE BLOCK ADDRESS 0x3205 ===
  0x3205	int3   	
  0x3206	int3   	
  0x3207	int3   	
  0x3208	int3   	
  0x3209	int3   	
  === BLOCK LINK ===
    0x320a
=== CODE BLOCK END ===

=== CODE BLOCK ADDRESS 0x320a ===
  0x320a	int3   	
  0x320b	int3   	
  0x320c	int3   	
  0x320d	int3   	
  0x320e	int3   	
  === BLOCK LINK ===
    0x320f
=== CODE BLOCK END ===

=== CODE BLOCK ADDRESS 0x320f ===
  0x320f	int3   	
  0x3210	mov    	eax, 0x5a4d
  0x3215	cmp    	word ptr [ecx], ax
  0x3218	jne    	0x323a
  === BLOCK LINK ===
    0x321a
=== CODE BLOCK END ===

=== CODE BLOCK ADDRESS 0x321a ===
  0x321a	dec    	eax
  0x321b	arpl   	word ptr [ecx + 0x3c], ax
  0x321e	dec    	eax
  0x321f	add    	eax, ecx
  0x3221	cmp    	dword ptr [eax], 0x4550
  === BLOCK LINK ===
    0x3227
=== CODE BLOCK END ===

=== CODE BLOCK ADDRESS 0x3227 ===
  0x3227	jne    	0x323a
  === BLOCK LINK ===
    0x3229
=== CODE BLOCK END ===

=== CODE BLOCK ADDRESS 0x3229 ===
  0x3229	mov    	ecx, 0x20b
  0x322e	cmp    	word ptr [eax + 0x18], cx
  0x3232	jne    	0x323a
  === BLOCK LINK ===
    0x3234
=== CODE BLOCK END ===

=== CODE BLOCK ADDRESS 0x3234 ===
  0x3234	mov    	eax, 1
  0x3239	ret    	
  0x323a	xor    	eax, eax
  0x323c	ret    	
  0x323d	int3   	
  === BLOCK LINK ===
    0x323e
=== CODE BLOCK END ===

=== CODE BLOCK ADDRESS 0x323e ===
  0x323e	int3   	
  0x323f	int3   	
  0x3240	int3   	
  0x3241	int3   	
  0x3242	int3   	
  === BLOCK LINK ===
    0x3243
=== CODE BLOCK END ===

=== CODE BLOCK ADDRESS 0x3243 ===
  0x3243	int3   	
  0x3244	dec    	eax
  0x3245	mov    	dword ptr [esp + 0x20], ebx
  0x3249	push   	ebp
  0x324a	dec    	eax
  === BLOCK LINK ===
    0x324b
=== CODE BLOCK END ===

=== CODE BLOCK ADDRESS 0x324b ===
  0x324b	mov    	ebp, esp
  0x324d	dec    	eax
  0x324e	sub    	esp, 0x20
  0x3251	dec    	eax
  0x3252	and    	dword ptr [ebp + 0x18], 0
  === BLOCK LINK ===
    0x3256
=== CODE BLOCK END ===

=== CODE BLOCK ADDRESS 0x3256 ===
  0x3256	dec    	eax
  0x3257	mov    	ebx, 0x2ddfa232
  0x325c	cdq    	
  0x325d	sub    	eax, dword ptr [eax]
  0x325f	add    	byte ptr [eax - 0x75], cl
  === BLOCK LINK ===
    0x3262
=== CODE BLOCK END ===

=== CODE BLOCK ADDRESS 0x3262 ===
  0x3262	add    	eax, 0x2da1
  0x3267	dec    	eax
  0x3268	cmp    	eax, ebx
  0x326a	jne    	0x3303
  === BLOCK LINK ===
    0x3270
=== CODE BLOCK END ===

=== CODE BLOCK ADDRESS 0x3270 ===
  0x3270	dec    	eax
  0x3271	lea    	ecx, [ebp + 0x18]
  0x3274	call   	dword ptr [0xfde]
  === BLOCK LINK ===
    0x327a
=== CODE BLOCK END ===

=== CODE BLOCK ADDRESS 0x327a ===
  0x327a	dec    	eax
  0x327b	mov    	eax, dword ptr [ebp + 0x18]
  0x327e	dec    	eax
  0x327f	mov    	dword ptr [ebp + 0x10], eax
  0x3282	call   	dword ptr [0xfe0]
  === BLOCK LINK ===
    0x3288
=== CODE BLOCK END ===

=== CODE BLOCK ADDRESS 0x3288 ===
  0x3288	mov    	eax, eax
  0x328a	dec    	eax
  0x328b	xor    	dword ptr [ebp + 0x10], eax
  0x328e	call   	dword ptr [0xfcc]
  === BLOCK LINK ===
    0x3294
=== CODE BLOCK END ===

=== CODE BLOCK ADDRESS 0x3294 ===
  0x3294	mov    	eax, eax
  0x3296	dec    	eax
  0x3297	xor    	dword ptr [ebp + 0x10], eax
  0x329a	call   	dword ptr [0xfb0]
  === BLOCK LINK ===
    0x32a0
=== CODE BLOCK END ===

=== CODE BLOCK ADDRESS 0x32a0 ===
  0x32a0	mov    	eax, eax
  0x32a2	dec    	eax
  0x32a3	shl    	eax, 0x18
  0x32a6	dec    	eax
  0x32a7	xor    	dword ptr [ebp + 0x10], eax
  === BLOCK LINK ===
    0x32aa
=== CODE BLOCK END ===

=== CODE BLOCK ADDRESS 0x32aa ===
  0x32aa	call   	dword ptr [0xfa0]
  === BLOCK LINK ===
    0x32b0
=== CODE BLOCK END ===

=== CODE BLOCK ADDRESS 0x32b0 ===
  0x32b0	mov    	eax, eax
  0x32b2	dec    	eax
  0x32b3	lea    	ecx, [ebp + 0x10]
  0x32b6	dec    	eax
  0x32b7	xor    	eax, dword ptr [ebp + 0x10]
  === BLOCK LINK ===
    0x32ba
=== CODE BLOCK END ===

=== CODE BLOCK ADDRESS 0x32ba ===
  0x32ba	dec    	eax
  0x32bb	xor    	eax, ecx
  0x32bd	dec    	eax
  0x32be	lea    	ecx, [ebp + 0x20]
  0x32c1	dec    	eax
  === BLOCK LINK ===
    0x32c2
=== CODE BLOCK END ===

=== CODE BLOCK ADDRESS 0x32c2 ===
  0x32c2	mov    	dword ptr [ebp + 0x10], eax
  0x32c5	call   	dword ptr [0xfa5]
  === BLOCK LINK ===
    0x32cb
=== CODE BLOCK END ===

=== CODE BLOCK ADDRESS 0x32cb ===
  0x32cb	mov    	eax, dword ptr [ebp + 0x20]
  0x32ce	dec    	eax
  0x32cf	mov    	ecx, 0xffffffff
  0x32d4	.byte  	0xff
  0x32d5	inc    	dword ptr [eax]
  === BLOCK LINK ===
    0x32d7
=== CODE BLOCK END ===

=== CODE BLOCK ADDRESS 0x32d7 ===
  0x32d7	add    	byte ptr [eax - 0x3f], cl
  0x32da	loopne  	0x32fc
  === BLOCK LINK ===
    0x32dc
=== CODE BLOCK END ===

=== CODE BLOCK ADDRESS 0x32dc ===
  0x32dc	dec    	eax
  0x32dd	xor    	eax, dword ptr [ebp + 0x20]
  0x32e0	dec    	eax
  0x32e1	xor    	eax, dword ptr [ebp + 0x10]
  0x32e4	dec    	eax
  === BLOCK LINK ===
    0x32e5
=== CODE BLOCK END ===

=== CODE BLOCK ADDRESS 0x32e5 ===
  0x32e5	and    	eax, ecx
  0x32e7	dec    	eax
  0x32e8	mov    	ecx, eax
  0x32ea	dec    	eax
  0x32eb	cmp    	eax, ebx
  === BLOCK LINK ===
    0x32ed
=== CODE BLOCK END ===

=== CODE BLOCK ADDRESS 0x32ed ===
  0x32ed	jne    	0x32fc
  === BLOCK LINK ===
    0x32ef
=== CODE BLOCK END ===

=== CODE BLOCK ADDRESS 0x32ef ===
  0x32ef	dec    	eax
  0x32f0	mov    	eax, 0x2ddfa233
  0x32f5	cdq    	
  0x32f6	sub    	eax, dword ptr [eax]
  0x32f8	add    	byte ptr [eax - 0x75], cl
  === BLOCK LINK ===
    0x32fb
=== CODE BLOCK END ===

=== CODE BLOCK ADDRESS 0x32fb ===
  0x32fb	enter  	-0x76b8, 0xd
  0x32ff	add    	eax, 0x4800002d
  0x3304	mov    	ebx, dword ptr [esp + 0x48]
  0x3308	dec    	eax
  0x3309	not    	eax
  === BLOCK LINK ===
    0x330b
=== CODE BLOCK END ===

=== CODE BLOCK ADDRESS 0x330b ===
  0x330b	dec    	eax
  0x330c	mov    	dword ptr [0x2cfe], eax
  0x3312	dec    	eax
  0x3313	add    	esp, 0x20
  0x3316	pop    	ebp
  === BLOCK LINK ===
    0x3317
=== CODE BLOCK END ===

=== CODE BLOCK ADDRESS 0x3317 ===
  0x3317	ret    	
  0x3318	int3   	
  0x3319	int3   	
  0x331a	int3   	
  0x331b	int3   	
  === BLOCK LINK ===
    0x331c
=== CODE BLOCK END ===

=== CODE BLOCK ADDRESS 0x331c ===
  0x331c	int3   	
  0x331d	int3   	
  0x331e	jmp    	dword ptr [0xfd4]
  === BLOCK LINK ===
    0x3324
=== CODE BLOCK END ===

=== CODE BLOCK ADDRESS 0x3324 ===
  0x3324	int3   	
  0x3325	int3   	
  0x3326	int3   	
  0x3327	int3   	
  0x3328	int3   	
  === BLOCK LINK ===
    0x3329
=== CODE BLOCK END ===

=== CODE BLOCK ADDRESS 0x3329 ===
  0x3329	int3   	
  0x332a	jmp    	dword ptr [0x1008]
  === BLOCK LINK ===
    0x3330
=== CODE BLOCK END ===

=== CODE BLOCK ADDRESS 0x3330 ===
  0x3330	int3   	
  0x3331	int3   	
  0x3332	int3   	
  0x3333	int3   	
  0x3334	int3   	
  === BLOCK LINK ===
    0x3335
=== CODE BLOCK END ===

=== CODE BLOCK ADDRESS 0x3335 ===
  0x3335	int3   	
  0x3336	int3   	
  0x3337	int3   	
  0x3338	int3   	
  0x3339	int3   	
  === BLOCK LINK ===
    0x333a
=== CODE BLOCK END ===

=== CODE BLOCK ADDRESS 0x333a ===
  0x333a	int3   	
  0x333b	int3   	
  0x333c	int3   	
  0x333d	int3   	
  0x333e	int3   	
  === BLOCK LINK ===
    0x333f
=== CODE BLOCK END ===

=== CODE BLOCK ADDRESS 0x333f ===
  0x333f	int3   	
  0x3340	ret    	0
  0x3343	int3   	
  0x3344	int3   	
  0x3345	int3   	
  === BLOCK LINK ===
    0x3346
=== CODE BLOCK END ===

=== CODE BLOCK ADDRESS 0x3346 ===
  0x3346	int3   	
  0x3347	int3   	
  0x3348	int3   	
  0x3349	int3   	
  0x334a	int3   	
  === BLOCK LINK ===
    0x334b
=== CODE BLOCK END ===

=== CODE BLOCK ADDRESS 0x334b ===
  0x334b	int3   	
  0x334c	inc    	eax
  0x334d	push   	ebx
  0x334e	dec    	eax
  0x334f	sub    	esp, 0x20
  === BLOCK LINK ===
    0x3352
=== CODE BLOCK END ===

=== CODE BLOCK ADDRESS 0x3352 ===
  0x3352	dec    	eax
  0x3353	mov    	ebx, ecx
  0x3355	xor    	ecx, ecx
  0x3357	call   	dword ptr [0xf5b]
  === BLOCK LINK ===
    0x335d
=== CODE BLOCK END ===

=== CODE BLOCK ADDRESS 0x335d ===
  0x335d	dec    	eax
  0x335e	mov    	ecx, ebx
  0x3360	call   	dword ptr [0xf1a]
  === BLOCK LINK ===
    0x3366
=== CODE BLOCK END ===

=== CODE BLOCK ADDRESS 0x3366 ===
  0x3366	call   	dword ptr [0xf44]
  === BLOCK LINK ===
    0x336c
=== CODE BLOCK END ===

=== CODE BLOCK ADDRESS 0x336c ===
  0x336c	dec    	eax
  0x336d	mov    	ecx, eax
  0x336f	mov    	edx, 0xc0000409
  0x3374	dec    	eax
  0x3375	add    	esp, 0x20
  === BLOCK LINK ===
    0x3378
=== CODE BLOCK END ===

=== CODE BLOCK ADDRESS 0x3378 ===
  0x3378	pop    	ebx
  0x3379	dec    	eax
  0x337a	jmp    	dword ptr [0xf40]
  === BLOCK LINK ===
    0x3380
=== CODE BLOCK END ===

=== CODE BLOCK ADDRESS 0x3380 ===
  0x3380	int3   	
  0x3381	int3   	
  0x3382	int3   	
  0x3383	int3   	
  0x3384	int3   	
  === BLOCK LINK ===
    0x3385
=== CODE BLOCK END ===

=== CODE BLOCK ADDRESS 0x3385 ===
  0x3385	int3   	
  0x3386	int3   	
  0x3387	int3   	
  0x3388	int3   	
  0x3389	int3   	
  === BLOCK LINK ===
    0x338a
=== CODE BLOCK END ===

=== CODE BLOCK ADDRESS 0x338a ===
  0x338a	int3   	
  0x338b	int3   	
  0x338c	int3   	
  0x338d	int3   	
  0x338e	int3   	
  === BLOCK LINK ===
    0x338f
=== CODE BLOCK END ===

=== CODE BLOCK ADDRESS 0x338f ===
  0x338f	int3   	
  0x3390	dec    	eax
  0x3391	mov    	dword ptr [esp + 8], ecx
  0x3395	dec    	eax
  0x3396	sub    	esp, 0x88
  === BLOCK LINK ===
    0x339c
=== CODE BLOCK END ===

=== CODE BLOCK ADDRESS 0x339c ===
  0x339c	dec    	eax
  0x339d	lea    	ecx, [0x2d5d]
  0x33a3	call   	dword ptr [0xfa7]
  === BLOCK LINK ===
    0x33a9
=== CODE BLOCK END ===

=== CODE BLOCK ADDRESS 0x33a9 ===
  0x33a9	dec    	eax
  0x33aa	mov    	eax, dword ptr [0x2e48]
  0x33b0	dec    	eax
  0x33b1	mov    	dword ptr [esp + 0x48], eax
  0x33b5	inc    	ebp
  === BLOCK LINK ===
    0x33b6
=== CODE BLOCK END ===

=== CODE BLOCK ADDRESS 0x33b6 ===
  0x33b6	xor    	eax, eax
  0x33b8	dec    	eax
  0x33b9	lea    	edx, [esp + 0x50]
  0x33bd	dec    	eax
  0x33be	mov    	ecx, dword ptr [esp + 0x48]
  === BLOCK LINK ===
    0x33c2
=== CODE BLOCK END ===

=== CODE BLOCK ADDRESS 0x33c2 ===
  0x33c2	call   	dword ptr [0xfa0]
  === BLOCK LINK ===
    0x33c8
=== CODE BLOCK END ===

=== CODE BLOCK ADDRESS 0x33c8 ===
  0x33c8	dec    	eax
  0x33c9	mov    	dword ptr [esp + 0x40], eax
  0x33cd	dec    	eax
  0x33ce	cmp    	dword ptr [esp + 0x40], 0
  0x33d3	je     	0x3417
  === BLOCK LINK ===
    0x33d5
=== CODE BLOCK END ===

=== CODE BLOCK ADDRESS 0x33d5 ===
  0x33d5	dec    	eax
  0x33d6	mov    	dword ptr [esp + 0x38], 0
  0x33de	dec    	eax
  0x33df	lea    	eax, [esp + 0x58]
  0x33e3	dec    	eax
  === BLOCK LINK ===
    0x33e4
=== CODE BLOCK END ===

=== CODE BLOCK ADDRESS 0x33e4 ===
  0x33e4	mov    	dword ptr [esp + 0x30], eax
  0x33e8	dec    	eax
  0x33e9	lea    	eax, [esp + 0x60]
  0x33ed	dec    	eax
  0x33ee	mov    	dword ptr [esp + 0x28], eax
  === BLOCK LINK ===
    0x33f2
=== CODE BLOCK END ===

=== CODE BLOCK ADDRESS 0x33f2 ===
  0x33f2	dec    	eax
  0x33f3	lea    	eax, [0x2d07]
  0x33f9	dec    	eax
  0x33fa	mov    	dword ptr [esp + 0x20], eax
  0x33fe	dec    	esp
  === BLOCK LINK ===
    0x33ff
=== CODE BLOCK END ===

=== CODE BLOCK ADDRESS 0x33ff ===
  0x33ff	mov    	ecx, dword ptr [esp + 0x40]
  0x3403	dec    	esp
  0x3404	mov    	eax, dword ptr [esp + 0x48]
  0x3408	dec    	eax
  0x3409	mov    	edx, dword ptr [esp + 0x50]
  === BLOCK LINK ===
    0x340d
=== CODE BLOCK END ===

=== CODE BLOCK ADDRESS 0x340d ===
  0x340d	xor    	ecx, ecx
  0x340f	call   	dword ptr [0xf5b]
  === BLOCK LINK ===
    0x3415
=== CODE BLOCK END ===

=== CODE BLOCK ADDRESS 0x3415 ===
  0x3415	jmp    	0x343a
  === BLOCK LINK ===
    0x3417
=== CODE BLOCK END ===

=== CODE BLOCK ADDRESS 0x3417 ===
  0x3417	dec    	eax
  0x3418	mov    	eax, dword ptr [0x2d7a]
  0x341e	dec    	eax
  0x341f	mov    	eax, dword ptr [eax]
  0x3421	dec    	eax
  === BLOCK LINK ===
    0x3422
=== CODE BLOCK END ===

=== CODE BLOCK ADDRESS 0x3422 ===
  0x3422	mov    	dword ptr [0x2dd0], eax
  0x3428	dec    	eax
  0x3429	mov    	eax, dword ptr [0x2d69]
  0x342f	dec    	eax
  0x3430	add    	eax, 8
  === BLOCK LINK ===
    0x3433
=== CODE BLOCK END ===

=== CODE BLOCK ADDRESS 0x3433 ===
  0x3433	dec    	eax
  0x3434	mov    	dword ptr [0x2d5e], eax
  0x343a	dec    	eax
  0x343b	mov    	eax, dword ptr [0x2db7]
  0x3441	dec    	eax
  === BLOCK LINK ===
    0x3442
=== CODE BLOCK END ===

=== CODE BLOCK ADDRESS 0x3442 ===
  0x3442	mov    	dword ptr [0x2c28], eax
  0x3448	dec    	eax
  0x3449	mov    	eax, dword ptr [esp + 0x90]
  0x3450	dec    	eax
  0x3451	mov    	dword ptr [0x2d29], eax
  === BLOCK LINK ===
    0x3457
=== CODE BLOCK END ===

=== CODE BLOCK ADDRESS 0x3457 ===
  0x3457	mov    	dword ptr [0x2bff], 0xc0000409
  0x3461	mov    	dword ptr [0x2bf9], 1
  0x346b	mov    	dword ptr [0x2c03], 3
  0x3475	mov    	eax, 8
  0x347a	dec    	eax
  === BLOCK LINK ===
    0x347b
=== CODE BLOCK END ===

=== CODE BLOCK ADDRESS 0x347b ===
  0x347b	imul   	eax, eax, 0
  0x347e	dec    	eax
  0x347f	lea    	ecx, [0x2bfb]
  0x3485	dec    	eax
  0x3486	mov    	dword ptr [ecx + eax], 2
  === BLOCK LINK ===
    0x348d
=== CODE BLOCK END ===

=== CODE BLOCK ADDRESS 0x348d ===
  0x348d	mov    	eax, 8
  0x3492	dec    	eax
  0x3493	imul   	eax, eax, 1
  0x3496	dec    	eax
  0x3497	lea    	ecx, [0x2be3]
  === BLOCK LINK ===
    0x349d
=== CODE BLOCK END ===

=== CODE BLOCK ADDRESS 0x349d ===
  0x349d	dec    	eax
  0x349e	mov    	edx, dword ptr [0x2b64]
  0x34a4	dec    	eax
  0x34a5	mov    	dword ptr [ecx + eax], edx
  0x34a8	mov    	eax, 8
  === BLOCK LINK ===
    0x34ad
=== CODE BLOCK END ===

=== CODE BLOCK ADDRESS 0x34ad ===
  0x34ad	dec    	eax
  0x34ae	imul   	eax, eax, 2
  0x34b1	dec    	eax
  0x34b2	lea    	ecx, [0x2bc8]
  0x34b8	dec    	eax
  === BLOCK LINK ===
    0x34b9
=== CODE BLOCK END ===

=== CODE BLOCK ADDRESS 0x34b9 ===
  0x34b9	mov    	edx, dword ptr [0x2b51]
  0x34bf	dec    	eax
  0x34c0	mov    	dword ptr [ecx + eax], edx
  0x34c3	mov    	eax, 8
  0x34c8	dec    	eax
  === BLOCK LINK ===
    0x34c9
=== CODE BLOCK END ===

=== CODE BLOCK ADDRESS 0x34c9 ===
  0x34c9	imul   	eax, eax, 0
  0x34cc	dec    	eax
  0x34cd	mov    	ecx, dword ptr [0x2b35]
  0x34d3	dec    	eax
  0x34d4	mov    	dword ptr [esp + eax + 0x68], ecx
  === BLOCK LINK ===
    0x34d8
=== CODE BLOCK END ===

=== CODE BLOCK ADDRESS 0x34d8 ===
  0x34d8	mov    	eax, 8
  0x34dd	dec    	eax
  0x34de	imul   	eax, eax, 1
  0x34e1	dec    	eax
  0x34e2	mov    	ecx, dword ptr [0x2b28]
  === BLOCK LINK ===
    0x34e8
=== CODE BLOCK END ===

=== CODE BLOCK ADDRESS 0x34e8 ===
  0x34e8	dec    	eax
  0x34e9	mov    	dword ptr [esp + eax + 0x68], ecx
  0x34ed	dec    	eax
  0x34ee	lea    	ecx, [0xb0c]
  0x34f4	call   	0x334c
  === BLOCK LINK ===
    0x34f9
=== CODE BLOCK END ===

=== CODE BLOCK ADDRESS 0x34f9 ===
  0x34f9	dec    	eax
  0x34fa	add    	esp, 0x88
  0x3500	ret    	
  0x3501	int3   	
  0x3502	int3   	
  === BLOCK LINK ===
    0x3503
=== CODE BLOCK END ===

=== CODE BLOCK ADDRESS 0x3503 ===
  0x3503	int3   	
  0x3504	int3   	
  0x3505	int3   	
  0x3506	int3   	
  0x3507	int3   	
  === BLOCK LINK ===
    0x3508
=== CODE BLOCK END ===

=== CODE BLOCK ADDRESS 0x3508 ===
  0x3508	int3   	
  0x3509	int3   	
  0x350a	int3   	
  0x350b	int3   	
  0x350c	int3   	
  === BLOCK LINK ===
    0x350d
=== CODE BLOCK END ===

=== CODE BLOCK ADDRESS 0x350d ===
  0x350d	int3   	
  0x350e	int3   	
  0x350f	int3   	
  0x3510	int3   	
  0x3511	int3   	
  === BLOCK LINK ===
    0x3512
=== CODE BLOCK END ===

=== CODE BLOCK ADDRESS 0x3512 ===
  0x3512	int3   	
  0x3513	int3   	
  0x3514	int3   	
  0x3515	int3   	
  0x3516	int3   	
  === BLOCK LINK ===
    0x3517
=== CODE BLOCK END ===

=== CODE BLOCK ADDRESS 0x3517 ===
  0x3517	int3   	
  0x3518	int3   	
  0x3519	int3   	
  0x351a	int3   	
  0x351b	int3   	
  === BLOCK LINK ===
    0x351c
=== CODE BLOCK END ===

=== CODE BLOCK ADDRESS 0x351c ===
  0x351c	int3   	
  0x351d	int3   	
  0x351e	int3   	
  0x351f	int3   	
  0x3520	jmp    	dword ptr [0xf72]
  === BLOCK LINK ===
    0x3526
=== CODE BLOCK END ===

=== CODE BLOCK ADDRESS 0x3526 ===
  0x3526	int3   	
  0x3527	int3   	
  0x3528	int3   	
  0x3529	int3   	
  0x352a	int3   	
  === BLOCK LINK ===
    0x352b
=== CODE BLOCK END ===

=== CODE BLOCK ADDRESS 0x352b ===
  0x352b	int3   	
  0x352c	int3   	
  0x352d	int3   	
  0x352e	int3   	
  0x352f	int3   	
  === BLOCK LINK ===
    0x3530
=== CODE BLOCK END ===

=== CODE BLOCK ADDRESS 0x3530 ===
  0x3530	jmp    	dword ptr [0xf5a]
  === BLOCK LINK ===
    0x3536
=== CODE BLOCK END ===

=== CODE BLOCK ADDRESS 0x3536 ===
  0x3536	int3   	
  0x3537	int3   	
  0x3538	int3   	
  0x3539	int3   	
  0x353a	int3   	
  === BLOCK LINK ===
    0x353b
=== CODE BLOCK END ===

=== CODE BLOCK ADDRESS 0x353b ===
  0x353b	int3   	
  0x353c	int3   	
  0x353d	int3   	
  0x353e	int3   	
  0x353f	int3   	
  === BLOCK LINK ===
    0x3540
=== CODE BLOCK END ===

=== CODE BLOCK ADDRESS 0x3540 ===
  0x3540	jmp    	dword ptr [0xeaa]
  === BLOCK LINK ===
    0x3546
=== CODE BLOCK END ===

=== CODE BLOCK ADDRESS 0x3546 ===
  0x3546	int3   	
  0x3547	int3   	
  0x3548	int3   	
  0x3549	int3   	
  0x354a	int3   	
  === BLOCK LINK ===
    0x354b
=== CODE BLOCK END ===

=== CODE BLOCK ADDRESS 0x354b ===
  0x354b	int3   	
  0x354c	int3   	
  0x354d	int3   	
  0x354e	int3   	
  0x354f	int3   	
  === BLOCK LINK ===
    0x3550
=== CODE BLOCK END ===

=== CODE BLOCK ADDRESS 0x3550 ===
  0x3550	jmp    	dword ptr [0xe92]
  === BLOCK LINK ===
    0x3556
=== CODE BLOCK END ===

=== CODE BLOCK ADDRESS 0x3556 ===
  0x3556	int3   	
  0x3557	int3   	
  0x3558	int3   	
  0x3559	int3   	
  0x355a	int3   	
  === BLOCK LINK ===
    0x355b
=== CODE BLOCK END ===

=== CODE BLOCK ADDRESS 0x355b ===
  0x355b	int3   	
  0x355c	int3   	
  0x355d	int3   	
  0x355e	int3   	
  0x355f	int3   	
  === BLOCK LINK ===
    0x3560
=== CODE BLOCK END ===

=== CODE BLOCK ADDRESS 0x3560 ===
  0x3560	jmp    	dword ptr [0xe7a]
  === BLOCK LINK ===
    0x3566
=== CODE BLOCK END ===

=== CODE BLOCK ADDRESS 0x3566 ===
  0x3566	int3   	
  0x3567	int3   	
  0x3568	int3   	
  0x3569	int3   	
  0x356a	int3   	
  === BLOCK LINK ===
    0x356b
=== CODE BLOCK END ===

=== CODE BLOCK ADDRESS 0x356b ===
  0x356b	int3   	
  0x356c	int3   	
  0x356d	int3   	
  0x356e	int3   	
  0x356f	int3   	
  === BLOCK LINK ===
    0x3570
=== CODE BLOCK END ===

=== CODE BLOCK ADDRESS 0x3570 ===
  0x3570	jmp    	dword ptr [0xe62]
  === BLOCK LINK ===
    0x3576
=== CODE BLOCK END ===

=== CODE BLOCK ADDRESS 0x3576 ===
  0x3576	int3   	
  0x3577	int3   	
  0x3578	int3   	
  0x3579	int3   	
  0x357a	int3   	
  === BLOCK LINK ===
    0x357b
=== CODE BLOCK END ===

=== CODE BLOCK ADDRESS 0x357b ===
  0x357b	int3   	
  0x357c	int3   	
  0x357d	int3   	
  0x357e	int3   	
  0x357f	int3   	
  === BLOCK LINK ===
    0x3580
=== CODE BLOCK END ===

=== CODE BLOCK ADDRESS 0x3580 ===
  0x3580	jmp    	dword ptr [0xeea]
  === BLOCK LINK ===
    0x3586
=== CODE BLOCK END ===

=== CODE BLOCK ADDRESS 0x3586 ===
  0x3586	int3   	
  0x3587	int3   	
  0x3588	int3   	
  0x3589	int3   	
  0x358a	int3   	
  === BLOCK LINK ===
    0x358b
=== CODE BLOCK END ===

=== CODE BLOCK ADDRESS 0x358b ===
  0x358b	int3   	
  0x358c	int3   	
  0x358d	int3   	
  0x358e	int3   	
  0x358f	int3   	
  === BLOCK LINK ===
    0x3590
=== CODE BLOCK END ===

=== CODE BLOCK ADDRESS 0x3590 ===
  0x3590	jmp    	dword ptr [0xe32]
  === BLOCK LINK ===
    0x3596
=== CODE BLOCK END ===

=== CODE BLOCK ADDRESS 0x3596 ===
  0x3596	int3   	
  0x3597	int3   	
  0x3598	int3   	
  0x3599	int3   	
  0x359a	int3   	
  === BLOCK LINK ===
    0x359b
=== CODE BLOCK END ===

=== CODE BLOCK ADDRESS 0x359b ===
  0x359b	int3   	
  0x359c	int3   	
  0x359d	int3   	
  0x359e	int3   	
  0x359f	int3   	
  === BLOCK LINK ===
    0x35a0
=== CODE BLOCK END ===

=== CODE BLOCK ADDRESS 0x35a0 ===
  0x35a0	jmp    	dword ptr [0xe1a]
  === BLOCK LINK ===
    0x35a6
=== CODE BLOCK END ===

=== CODE BLOCK ADDRESS 0x35a6 ===
  0x35a6	int3   	
  0x35a7	int3   	
  0x35a8	int3   	
  0x35a9	int3   	
  0x35aa	int3   	
  === BLOCK LINK ===
    0x35ab
=== CODE BLOCK END ===

=== CODE BLOCK ADDRESS 0x35ab ===
  0x35ab	int3   	
  0x35ac	int3   	
  0x35ad	int3   	
  0x35ae	int3   	
  0x35af	int3   	
  === BLOCK LINK ===
    0x35b0
=== CODE BLOCK END ===

=== CODE BLOCK ADDRESS 0x35b0 ===
  0x35b0	jmp    	dword ptr [0xe02]
  === BLOCK LINK ===
    0x35b6
=== CODE BLOCK END ===

=== CODE BLOCK ADDRESS 0x35b6 ===
  0x35b6	int3   	
  0x35b7	int3   	
  0x35b8	int3   	
  0x35b9	int3   	
  0x35ba	int3   	
  === BLOCK LINK ===
    0x35bb
=== CODE BLOCK END ===

=== CODE BLOCK ADDRESS 0x35bb ===
  0x35bb	int3   	
  0x35bc	int3   	
  0x35bd	int3   	
  0x35be	int3   	
  0x35bf	int3   	
  === BLOCK LINK ===
    0x35c0
=== CODE BLOCK END ===

=== CODE BLOCK ADDRESS 0x35c0 ===
  0x35c0	jmp    	dword ptr [0xdea]
  === BLOCK LINK ===
    0x35c6
=== CODE BLOCK END ===

=== CODE BLOCK ADDRESS 0x35c6 ===
  0x35c6	int3   	
  0x35c7	int3   	
  0x35c8	int3   	
  0x35c9	int3   	
  0x35ca	int3   	
  === BLOCK LINK ===
    0x35cb
=== CODE BLOCK END ===

=== CODE BLOCK ADDRESS 0x35cb ===
  0x35cb	int3   	
  0x35cc	dec    	eax
  0x35cd	sub    	esp, 0x28
  0x35d0	dec    	ebp
  0x35d1	mov    	eax, dword ptr [ecx + 0x38]
  === BLOCK LINK ===
    0x35d4
=== CODE BLOCK END ===

=== CODE BLOCK ADDRESS 0x35d4 ===
  0x35d4	dec    	eax
  0x35d5	mov    	ecx, edx
  0x35d7	dec    	ecx
  0x35d8	mov    	edx, ecx
  0x35da	call   	0x35f0
  === BLOCK LINK ===
    0x35df
=== CODE BLOCK END ===

=== CODE BLOCK ADDRESS 0x35df ===
  0x35df	mov    	eax, 1
  0x35e4	dec    	eax
  0x35e5	add    	esp, 0x28
  0x35e8	ret    	
  0x35e9	int3   	
  === BLOCK LINK ===
    0x35ea
=== CODE BLOCK END ===

=== CODE BLOCK ADDRESS 0x35ea ===
  0x35ea	int3   	
  0x35eb	int3   	
  0x35ec	int3   	
  0x35ed	int3   	
  0x35ee	int3   	
  === BLOCK LINK ===
    0x35ef
=== CODE BLOCK END ===

=== CODE BLOCK ADDRESS 0x35ef ===
  0x35ef	int3   	
  0x35f0	inc    	eax
  0x35f1	push   	ebx
  0x35f2	inc    	ebp
  0x35f3	mov    	ebx, dword ptr [eax]
  === BLOCK LINK ===
    0x35f5
=== CODE BLOCK END ===

=== CODE BLOCK ADDRESS 0x35f5 ===
  0x35f5	dec    	eax
  0x35f6	mov    	ebx, edx
  0x35f8	inc    	ecx
  0x35f9	and    	ebx, 0xfffffff8
  0x35fc	dec    	esp
  === BLOCK LINK ===
    0x35fd
=== CODE BLOCK END ===

=== CODE BLOCK ADDRESS 0x35fd ===
  0x35fd	mov    	ecx, ecx
  0x35ff	inc    	ecx
  0x3600	test   	byte ptr [eax], 4
  0x3603	dec    	esp
  0x3604	mov    	edx, ecx
  === BLOCK LINK ===
    0x3606
=== CODE BLOCK END ===

=== CODE BLOCK ADDRESS 0x3606 ===
  0x3606	je     	0x361b
  === BLOCK LINK ===
    0x3608
=== CODE BLOCK END ===

=== CODE BLOCK ADDRESS 0x3608 ===
  0x3608	inc    	ecx
  0x3609	mov    	eax, dword ptr [eax + 8]
  0x360c	dec    	ebp
  0x360d	arpl   	word ptr [eax + 4], dx
  0x3610	neg    	eax
  === BLOCK LINK ===
    0x3612
=== CODE BLOCK END ===

=== CODE BLOCK ADDRESS 0x3612 ===
  0x3612	dec    	esp
  0x3613	add    	edx, ecx
  0x3615	dec    	eax
  0x3616	arpl   	ax, cx
  0x3618	dec    	esp
  === BLOCK LINK ===
    0x3619
=== CODE BLOCK END ===

=== CODE BLOCK ADDRESS 0x3619 ===
  0x3619	and    	edx, ecx
  0x361b	dec    	ecx
  0x361c	arpl   	bx, ax
  0x361e	dec    	edx
  0x361f	mov    	edx, dword ptr [eax + edx]
  === BLOCK LINK ===
    0x3622
=== CODE BLOCK END ===

=== CODE BLOCK ADDRESS 0x3622 ===
  0x3622	dec    	eax
  0x3623	mov    	eax, dword ptr [ebx + 0x10]
  0x3626	mov    	ecx, dword ptr [eax + 8]
  0x3629	dec    	eax
  0x362a	mov    	eax, dword ptr [ebx + 8]
  === BLOCK LINK ===
    0x362d
=== CODE BLOCK END ===

=== CODE BLOCK ADDRESS 0x362d ===
  0x362d	test   	byte ptr [ecx + eax + 3], 0xf
  0x3632	je     	0x363f
  === BLOCK LINK ===
    0x3634
=== CODE BLOCK END ===

=== CODE BLOCK ADDRESS 0x3634 ===
  0x3634	movzx  	eax, byte ptr [ecx + eax + 3]
  0x3639	and    	eax, 0xfffffff0
  0x363c	dec    	esp
  0x363d	add    	ecx, eax
  0x363f	dec    	esp
  === BLOCK LINK ===
    0x3640
=== CODE BLOCK END ===

=== CODE BLOCK ADDRESS 0x3640 ===
  0x3640	xor    	ecx, edx
  0x3642	dec    	ecx
  0x3643	mov    	ecx, ecx
  0x3645	pop    	ebx
  0x3646	jmp    	0x3000
  === BLOCK LINK ===
    0x364b
=== CODE BLOCK END ===

=== CODE BLOCK ADDRESS 0x364b ===
  0x364b	int3   	
  0x364c	int3   	
  0x364d	int3   	
  0x364e	int3   	
  0x364f	int3   	
  === BLOCK LINK ===
    0x3650
=== CODE BLOCK END ===

=== CODE BLOCK ADDRESS 0x3650 ===
  0x3650	int3   	
  0x3651	int3   	
  0x3652	int3   	
  0x3653	int3   	
  0x3654	int3   	
  === BLOCK LINK ===
    0x3655
=== CODE BLOCK END ===

=== CODE BLOCK ADDRESS 0x3655 ===
  0x3655	int3   	
  0x3656	nop    	word ptr [eax + eax]
  0x3660	jmp    	eax
  === BLOCK LINK ===
    0x3662
=== CODE BLOCK END ===

=== CODE BLOCK ADDRESS 0x3662 ===
  0x3662	int3   	
  0x3663	int3   	
  0x3664	int3   	
  0x3665	int3   	
  0x3666	int3   	
  === BLOCK LINK ===
    0x3667
=== CODE BLOCK END ===

=== CODE BLOCK ADDRESS 0x3667 ===
  0x3667	int3   	
  0x3668	int3   	
  0x3669	int3   	
  0x366a	int3   	
  0x366b	int3   	
  === BLOCK LINK ===
    0x366c
=== CODE BLOCK END ===

=== CODE BLOCK ADDRESS 0x366c ===
  0x366c	int3   	
  0x366d	int3   	
  0x366e	int3   	
  0x366f	int3   	
  0x3670	inc    	eax
  === BLOCK LINK ===
    0x3671
=== CODE BLOCK END ===

=== CODE BLOCK ADDRESS 0x3671 ===
  0x3671	push   	ebp
  0x3672	dec    	eax
  0x3673	sub    	esp, 0x20
  0x3676	dec    	eax
  0x3677	mov    	ebp, edx
  === BLOCK LINK ===
    0x3679
=== CODE BLOCK END ===

=== CODE BLOCK ADDRESS 0x3679 ===
  0x3679	dec    	eax
  0x367a	mov    	eax, dword ptr [ecx]
  0x367c	dec    	eax
  0x367d	mov    	edx, ecx
  0x367f	mov    	ecx, dword ptr [eax]
  === BLOCK LINK ===
    0x3681
=== CODE BLOCK END ===

=== CODE BLOCK ADDRESS 0x3681 ===
  0x3681	call   	0x308e
  === BLOCK LINK ===
    0x3686
=== CODE BLOCK END ===

=== CODE BLOCK ADDRESS 0x3686 ===
  0x3686	nop    	
  0x3687	dec    	eax
  0x3688	add    	esp, 0x20
  0x368b	pop    	ebp
  0x368c	ret    	
  === BLOCK LINK ===
    0x368d
=== CODE BLOCK END ===

=== CODE BLOCK ADDRESS 0x368d ===
  0x368d	int3   	
  0x368e	int3   	
  0x368f	int3   	
  0x3690	int3   	
  0x3691	int3   	
  === BLOCK LINK ===
    0x3692
=== CODE BLOCK END ===

=== CODE BLOCK ADDRESS 0x3692 ===
  0x3692	int3   	
  0x3693	int3   	
  0x3694	int3   	
  0x3695	int3   	
  0x3696	int3   	
  === BLOCK LINK ===
    0x3697
=== CODE BLOCK END ===

=== CODE BLOCK ADDRESS 0x3697 ===
  0x3697	int3   	
  0x3698	int3   	
  0x3699	int3   	
  0x369a	int3   	
  0x369b	int3   	
  === BLOCK LINK ===
    0x369c
=== CODE BLOCK END ===

=== CODE BLOCK ADDRESS 0x369c ===
  0x369c	int3   	
  0x369d	int3   	
  0x369e	int3   	
  0x369f	int3   	
  0x36a0	inc    	eax
  === BLOCK LINK ===
    0x36a1
=== CODE BLOCK END ===

=== CODE BLOCK ADDRESS 0x36a1 ===
  0x36a1	push   	ebp
  0x36a2	dec    	eax
  0x36a3	sub    	esp, 0x20
  0x36a6	dec    	eax
  0x36a7	mov    	ebp, edx
  === BLOCK LINK ===
    0x36a9
=== CODE BLOCK END ===

=== CODE BLOCK ADDRESS 0x36a9 ===
  0x36a9	dec    	eax
  0x36aa	mov    	eax, dword ptr [ecx]
  0x36ac	xor    	ecx, ecx
  0x36ae	cmp    	dword ptr [eax], 0xc0000005
  0x36b4	sete   	cl
  === BLOCK LINK ===
    0x36b7
=== CODE BLOCK END ===

=== CODE BLOCK ADDRESS 0x36b7 ===
  0x36b7	mov    	eax, ecx
  0x36b9	dec    	eax
  0x36ba	add    	esp, 0x20
  0x36bd	pop    	ebp
  0x36be	ret    	
  === BLOCK LINK ===
    0x36bf
=== CODE BLOCK END ===

=== CODE BLOCK ADDRESS 0x36bf ===
  0x36bf	int3   	
  0x36c0	add    	byte ptr [eax], al
  0x36c2	add    	byte ptr [eax], al
  0x36c4	add    	byte ptr [eax], al
  0x36c6	add    	byte ptr [eax], al
  === BLOCK LINK ===
    0x36c8
=== CODE BLOCK END ===

=== CODE BLOCK ADDRESS 0x36c8 ===
  0x36c8	add    	byte ptr [eax], al
  0x36ca	add    	byte ptr [eax], al
  0x36cc	add    	byte ptr [eax], al
  0x36ce	add    	byte ptr [eax], al
  0x36d0	add    	byte ptr [eax], al
  === BLOCK LINK ===
    0x36d2
=== CODE BLOCK END ===

=== CODE BLOCK ADDRESS 0x36d2 ===
  0x36d2	add    	byte ptr [eax], al
  0x36d4	add    	byte ptr [eax], al
  0x36d6	add    	byte ptr [eax], al
  0x36d8	add    	byte ptr [eax], al
  0x36da	add    	byte ptr [eax], al
  === BLOCK LINK ===
    0x36dc
=== CODE BLOCK END ===

=== CODE BLOCK ADDRESS 0x36dc ===
  0x36dc	add    	byte ptr [eax], al
  0x36de	add    	byte ptr [eax], al
  0x36e0	add    	byte ptr [eax], al
  0x36e2	add    	byte ptr [eax], al
  0x36e4	add    	byte ptr [eax], al
  === BLOCK LINK ===
    0x36e6
=== CODE BLOCK END ===

=== CODE BLOCK ADDRESS 0x36e6 ===
  0x36e6	add    	byte ptr [eax], al
  0x36e8	add    	byte ptr [eax], al
  0x36ea	add    	byte ptr [eax], al
  0x36ec	add    	byte ptr [eax], al
  0x36ee	add    	byte ptr [eax], al
  === BLOCK LINK ===
    0x36f0
=== CODE BLOCK END ===

=== CODE BLOCK ADDRESS 0x36f0 ===
  0x36f0	add    	byte ptr [eax], al
  0x36f2	add    	byte ptr [eax], al
  0x36f4	add    	byte ptr [eax], al
  0x36f6	add    	byte ptr [eax], al
  0x36f8	add    	byte ptr [eax], al
  === BLOCK LINK ===
    0x36fa
=== CODE BLOCK END ===

=== CODE BLOCK ADDRESS 0x36fa ===
  0x36fa	add    	byte ptr [eax], al
  0x36fc	add    	byte ptr [eax], al
  0x36fe	add    	byte ptr [eax], al
  0x3700	add    	byte ptr [eax], al
  0x3702	add    	byte ptr [eax], al
  === BLOCK LINK ===
    0x3704
=== CODE BLOCK END ===

=== CODE BLOCK ADDRESS 0x3704 ===
  0x3704	add    	byte ptr [eax], al
  0x3706	add    	byte ptr [eax], al
  0x3708	add    	byte ptr [eax], al
  0x370a	add    	byte ptr [eax], al
  0x370c	add    	byte ptr [eax], al
  === BLOCK LINK ===
    0x370e
=== CODE BLOCK END ===

=== CODE BLOCK ADDRESS 0x370e ===
  0x370e	add    	byte ptr [eax], al
  0x3710	add    	byte ptr [eax], al
  0x3712	add    	byte ptr [eax], al
  0x3714	add    	byte ptr [eax], al
  0x3716	add    	byte ptr [eax], al
  === BLOCK LINK ===
    0x3718
=== CODE BLOCK END ===

=== CODE BLOCK ADDRESS 0x3718 ===
  0x3718	add    	byte ptr [eax], al
  0x371a	add    	byte ptr [eax], al
  0x371c	add    	byte ptr [eax], al
  0x371e	add    	byte ptr [eax], al
  0x3720	add    	byte ptr [eax], al
  === BLOCK LINK ===
    0x3722
=== CODE BLOCK END ===

=== CODE BLOCK ADDRESS 0x3722 ===
  0x3722	add    	byte ptr [eax], al
  0x3724	add    	byte ptr [eax], al
  0x3726	add    	byte ptr [eax], al
  0x3728	add    	byte ptr [eax], al
  0x372a	add    	byte ptr [eax], al
  === BLOCK LINK ===
    0x372c
=== CODE BLOCK END ===

=== CODE BLOCK ADDRESS 0x372c ===
  0x372c	add    	byte ptr [eax], al
  0x372e	add    	byte ptr [eax], al
  0x3730	add    	byte ptr [eax], al
  0x3732	add    	byte ptr [eax], al
  0x3734	add    	byte ptr [eax], al
  === BLOCK LINK ===
    0x3736
=== CODE BLOCK END ===

=== CODE BLOCK ADDRESS 0x3736 ===
  0x3736	add    	byte ptr [eax], al
  0x3738	add    	byte ptr [eax], al
  0x373a	add    	byte ptr [eax], al
  0x373c	add    	byte ptr [eax], al
  0x373e	add    	byte ptr [eax], al
  === BLOCK LINK ===
    0x3740
=== CODE BLOCK END ===

=== CODE BLOCK ADDRESS 0x3740 ===
  0x3740	add    	byte ptr [eax], al
  0x3742	add    	byte ptr [eax], al
  0x3744	add    	byte ptr [eax], al
  0x3746	add    	byte ptr [eax], al
  0x3748	add    	byte ptr [eax], al
  === BLOCK LINK ===
    0x374a
=== CODE BLOCK END ===

=== CODE BLOCK ADDRESS 0x374a ===
  0x374a	add    	byte ptr [eax], al
  0x374c	add    	byte ptr [eax], al
  0x374e	add    	byte ptr [eax], al
  0x3750	add    	byte ptr [eax], al
  0x3752	add    	byte ptr [eax], al
  === BLOCK LINK ===
    0x3754
=== CODE BLOCK END ===

=== CODE BLOCK ADDRESS 0x3754 ===
  0x3754	add    	byte ptr [eax], al
  0x3756	add    	byte ptr [eax], al
  0x3758	add    	byte ptr [eax], al
  0x375a	add    	byte ptr [eax], al
  0x375c	add    	byte ptr [eax], al
  === BLOCK LINK ===
    0x375e
=== CODE BLOCK END ===

=== CODE BLOCK ADDRESS 0x375e ===
  0x375e	add    	byte ptr [eax], al
  0x3760	add    	byte ptr [eax], al
  0x3762	add    	byte ptr [eax], al
  0x3764	add    	byte ptr [eax], al
  0x3766	add    	byte ptr [eax], al
  === BLOCK LINK ===
    0x3768
=== CODE BLOCK END ===

=== CODE BLOCK ADDRESS 0x3768 ===
  0x3768	add    	byte ptr [eax], al
  0x376a	add    	byte ptr [eax], al
  0x376c	add    	byte ptr [eax], al
  0x376e	add    	byte ptr [eax], al
  0x3770	add    	byte ptr [eax], al
  === BLOCK LINK ===
    0x3772
=== CODE BLOCK END ===

=== CODE BLOCK ADDRESS 0x3772 ===
  0x3772	add    	byte ptr [eax], al
  0x3774	add    	byte ptr [eax], al
  0x3776	add    	byte ptr [eax], al
  0x3778	add    	byte ptr [eax], al
  0x377a	add    	byte ptr [eax], al
  === BLOCK LINK ===
    0x377c
=== CODE BLOCK END ===

=== CODE BLOCK ADDRESS 0x377c ===
  0x377c	add    	byte ptr [eax], al
  0x377e	add    	byte ptr [eax], al
  0x3780	add    	byte ptr [eax], al
  0x3782	add    	byte ptr [eax], al
  0x3784	add    	byte ptr [eax], al
  === BLOCK LINK ===
    0x3786
=== CODE BLOCK END ===

=== CODE BLOCK ADDRESS 0x3786 ===
  0x3786	add    	byte ptr [eax], al
  0x3788	add    	byte ptr [eax], al
  0x378a	add    	byte ptr [eax], al
  0x378c	add    	byte ptr [eax], al
  0x378e	add    	byte ptr [eax], al
  === BLOCK LINK ===
    0x3790
=== CODE BLOCK END ===

=== CODE BLOCK ADDRESS 0x3790 ===
  0x3790	add    	byte ptr [eax], al
  0x3792	add    	byte ptr [eax], al
  0x3794	add    	byte ptr [eax], al
  0x3796	add    	byte ptr [eax], al
  0x3798	add    	byte ptr [eax], al
  === BLOCK LINK ===
    0x379a
=== CODE BLOCK END ===

=== CODE BLOCK ADDRESS 0x379a ===
  0x379a	add    	byte ptr [eax], al
  0x379c	add    	byte ptr [eax], al
  0x379e	add    	byte ptr [eax], al
  0x37a0	add    	byte ptr [eax], al
  0x37a2	add    	byte ptr [eax], al
  === BLOCK LINK ===
    0x37a4
=== CODE BLOCK END ===

=== CODE BLOCK ADDRESS 0x37a4 ===
  0x37a4	add    	byte ptr [eax], al
  0x37a6	add    	byte ptr [eax], al
  0x37a8	add    	byte ptr [eax], al
  0x37aa	add    	byte ptr [eax], al
  0x37ac	add    	byte ptr [eax], al
  === BLOCK LINK ===
    0x37ae
=== CODE BLOCK END ===

=== CODE BLOCK ADDRESS 0x37ae ===
  0x37ae	add    	byte ptr [eax], al
  0x37b0	add    	byte ptr [eax], al
  0x37b2	add    	byte ptr [eax], al
  0x37b4	add    	byte ptr [eax], al
  0x37b6	add    	byte ptr [eax], al
  === BLOCK LINK ===
    0x37b8
=== CODE BLOCK END ===

=== CODE BLOCK ADDRESS 0x37b8 ===
  0x37b8	add    	byte ptr [eax], al
  0x37ba	add    	byte ptr [eax], al
  0x37bc	add    	byte ptr [eax], al
  0x37be	add    	byte ptr [eax], al
  0x37c0	add    	byte ptr [eax], al
  === BLOCK LINK ===
    0x37c2
=== CODE BLOCK END ===

=== CODE BLOCK ADDRESS 0x37c2 ===
  0x37c2	add    	byte ptr [eax], al
  0x37c4	add    	byte ptr [eax], al
  0x37c6	add    	byte ptr [eax], al
  0x37c8	add    	byte ptr [eax], al
  0x37ca	add    	byte ptr [eax], al
  === BLOCK LINK ===
    0x37cc
=== CODE BLOCK END ===

=== CODE BLOCK ADDRESS 0x37cc ===
  0x37cc	add    	byte ptr [eax], al
  0x37ce	add    	byte ptr [eax], al
  0x37d0	add    	byte ptr [eax], al
  0x37d2	add    	byte ptr [eax], al
  0x37d4	add    	byte ptr [eax], al
  === BLOCK LINK ===
    0x37d6
=== CODE BLOCK END ===

=== CODE BLOCK ADDRESS 0x37d6 ===
  0x37d6	add    	byte ptr [eax], al
  0x37d8	add    	byte ptr [eax], al
  0x37da	add    	byte ptr [eax], al
  0x37dc	add    	byte ptr [eax], al
  0x37de	add    	byte ptr [eax], al
  === BLOCK LINK ===
    0x37e0
=== CODE BLOCK END ===

=== CODE BLOCK ADDRESS 0x37e0 ===
  0x37e0	add    	byte ptr [eax], al
  0x37e2	add    	byte ptr [eax], al
  0x37e4	add    	byte ptr [eax], al
  0x37e6	add    	byte ptr [eax], al
  0x37e8	add    	byte ptr [eax], al
  === BLOCK LINK ===
    0x37ea
=== CODE BLOCK END ===

=== CODE BLOCK ADDRESS 0x37ea ===
  0x37ea	add    	byte ptr [eax], al
  0x37ec	add    	byte ptr [eax], al
  0x37ee	add    	byte ptr [eax], al
  0x37f0	add    	byte ptr [eax], al
  0x37f2	add    	byte ptr [eax], al
  === BLOCK LINK ===
    0x37f4
=== CODE BLOCK END ===

=== CODE BLOCK ADDRESS 0x37f4 ===
  0x37f4	add    	byte ptr [eax], al
  0x37f6	add    	byte ptr [eax], al
  0x37f8	add    	byte ptr [eax], al
  0x37fa	add    	byte ptr [eax], al
  0x37fc	add    	byte ptr [eax], al
  === BLOCK LINK ===
    0x37fe
=== CODE BLOCK END ===

=== CODE BLOCK ADDRESS 0x37fe ===
=== CODE BLOCK END ===

=== DATA BLOCK ADDRESS 0x4000 ===
  0x4000	60 60 00 40 01 00 00 00 00 61 00 40 01 00 00 00 	``0@00000a0@0000
  0x4010	10 10 00 40 01 00 00 00 30 35 00 40 01 00 00 00 	000@0000050@0000
  0x4020	20 35 00 40 01 00 00 00 c0 35 00 40 01 00 00 00 	 50@0000050@0000
  0x4030	b0 35 00 40 01 00 00 00 a0 35 00 40 01 00 00 00 	050@0000050@0000
  0x4040	90 35 00 40 01 00 00 00 80 35 00 40 01 00 00 00 	050@0000050@0000
  0x4050	70 35 00 40 01 00 00 00 60 35 00 40 01 00 00 00 	p50@0000`50@0000
  0x4060	50 35 00 40 01 00 00 00 40 35 00 40 01 00 00 00 	P50@0000@50@0000
  0x4070	18 01 00 00 00 00 00 00 00 00 00 00 00 00 00 00 	0000000000000000
  0x4080	00 00 00 00 00 00 00 00 00 00 00 00 00 00 00 00 	0000000000000000
  0x4090	00 00 00 00 00 00 00 00 00 00 00 00 00 00 00 00 	0000000000000000
  0x40a0	00 00 00 00 00 00 00 00 00 00 00 00 00 00 00 00 	0000000000000000
  0x40b0	00 00 00 00 00 00 00 00 00 00 00 00 00 00 00 00 	0000000000000000
  0x40c0	00 00 00 00 00 00 00 00 08 60 00 40 01 00 00 00 	000000000`0@0000
  0x40d0	00 00 00 00 00 00 00 00 00 00 00 00 00 00 00 00 	0000000000000000
  0x40e0	30 45 00 40 01 00 00 00 38 45 00 40 01 00 00 00 	0E0@00008E0@0000
  0x40f0	78 45 00 40 01 00 00 00 14 00 00 00 00 00 00 00 	xE0@000000000000
  0x4100	00 75 01 00 00 00 00 00 00 00 00 00 00 00 00 00 	0u00000000000000
  0x4110	00 00 00 00 00 00 00 00 00 00 00 00 00 00 00 00 	0000000000000000
  0x4120	00 00 00 00 00 00 00 00 00 00 00 00 00 00 00 00 	0000000000000000
  0x4130	00 00 00 00 00 00 00 00 00 00 00 00 00 00 00 00 	0000000000000000
  0x4140	00 00 00 00 00 00 00 00 00 00 00 00 00 00 00 00 	0000000000000000
  0x4150	00 00 00 00 00 00 00 00 00 00 00 00 00 00 00 00 	0000000000000000
  0x4160	00 00 00 00 00 00 00 00 00 00 00 00 00 00 00 00 	0000000000000000
  0x4170	00 00 00 00 00 00 00 00 00 00 00 00 00 00 00 00 	0000000000000000
  0x4180	00 00 00 00 00 00 00 00 30 5d 00 00 00 00 00 00 	000000000]000000
  0x4190	48 5d 00 00 00 00 00 00 1c 5d 00 00 00 00 00 00 	H]0000000]000000
  0x41a0	00 00 00 00 00 00 00 00 86 58 00 00 00 00 00 00 	000000000X000000
  0x41b0	9e 58 00 00 00 00 00 00 b6 58 00 00 00 00 00 00 	0X0000000X000000
  0x41c0	e8 58 00 00 00 00 00 00 14 59 00 00 00 00 00 00 	0X0000000Y000000
  0x41d0	40 59 00 00 00 00 00 00 6e 59 00 00 00 00 00 00 	@Y000000nY000000
  0x41e0	2c 58 00 00 00 00 00 00 c0 59 00 00 00 00 00 00 	,X0000000Y000000
  0x41f0	fa 59 00 00 00 00 00 00 22 5a 00 00 00 00 00 00 	0Y000000"Z000000
  0x4200	64 5a 00 00 00 00 00 00 a6 5a 00 00 00 00 00 00 	dZ0000000Z000000
  0x4210	e8 5a 00 00 00 00 00 00 4a 58 00 00 00 00 00 00 	0Z000000JX000000
  0x4220	0e 58 00 00 00 00 00 00 e6 57 00 00 00 00 00 00 	0X0000000W000000
  0x4230	98 59 00 00 00 00 00 00 08 5b 00 00 00 00 00 00 	0Y0000000[000000
  0x4240	32 5b 00 00 00 00 00 00 00 00 00 00 00 00 00 00 	2[00000000000000
  0x4250	ce 5c 00 00 00 00 00 00 b4 5c 00 00 00 00 00 00 	0000000000000000
  0x4260	9e 5c 00 00 00 00 00 00 88 5c 00 00 00 00 00 00 	0000000000000000
  0x4270	6e 5c 00 00 00 00 00 00 5a 5c 00 00 00 00 00 00 	n0000000Z0000000
  0x4280	de 5c 00 00 00 00 00 00 34 5c 00 00 00 00 00 00 	0000000040000000
  0x4290	1e 5c 00 00 00 00 00 00 0e 5c 00 00 00 00 00 00 	0000000000000000
  0x42a0	fe 5b 00 00 00 00 00 00 ee 5b 00 00 00 00 00 00 	0[0000000[000000
  0x42b0	da 5b 00 00 00 00 00 00 3c 5c 00 00 00 00 00 00 	0[000000<0000000
  0x42c0	fa 5c 00 00 00 00 00 00 00 00 00 00 00 00 00 00 	0000000000000000
  0x42d0	6e 5d 00 00 00 00 00 00 00 00 00 00 00 00 00 00 	n]00000000000000
  0x42e0	0a 50 00 00 00 00 00 00 f2 4f 00 00 00 00 00 00 	0P0000000O000000
  0x42f0	e8 4f 00 00 00 00 00 00 c4 4f 00 00 00 00 00 00 	0O0000000O000000
  0x4300	b0 4f 00 00 00 00 00 00 a6 4f 00 00 00 00 00 00 	0O0000000O000000
  0x4310	9e 4f 00 00 00 00 00 00 8c 4f 00 00 00 00 00 00 	0O0000000O000000
  0x4320	7c 4f 00 00 00 00 00 00 6e 4f 00 00 00 00 00 00 	|O000000nO000000
  0x4330	60 4f 00 00 00 00 00 00 d0 4f 00 00 00 00 00 00 	`O0000000O000000
  0x4340	58 4f 00 00 00 00 00 00 00 00 00 00 00 00 00 00 	XO00000000000000
  0x4350	8e 5b 00 00 00 00 00 00 80 5b 00 00 00 00 00 00 	0[0000000[000000
  0x4360	6e 5b 00 00 00 00 00 00 a2 5b 00 00 00 00 00 00 	n[0000000[000000
  0x4370	bc 5b 00 00 00 00 00 00 00 00 00 00 00 00 00 00 	0[00000000000000
  0x4380	50 57 00 00 00 00 00 00 78 57 00 00 00 00 00 00 	PW000000xW000000
  0x4390	9c 57 00 00 00 00 00 00 c0 57 00 00 00 00 00 00 	0W0000000W000000
  0x43a0	28 57 00 00 00 00 00 00 12 56 00 00 00 00 00 00 	(W0000000V000000
  0x43b0	da 55 00 00 00 00 00 00 a6 55 00 00 00 00 00 00 	0U0000000U000000
  0x43c0	86 55 00 00 00 00 00 00 6c 55 00 00 00 00 00 00 	0U000000lU000000
  0x43d0	06 57 00 00 00 00 00 00 0a 55 00 00 00 00 00 00 	0W0000000U000000
  0x43e0	da 54 00 00 00 00 00 00 c0 54 00 00 00 00 00 00 	0T0000000T000000
  0x43f0	9a 54 00 00 00 00 00 00 84 54 00 00 00 00 00 00 	0T0000000T000000
  0x4400	66 54 00 00 00 00 00 00 48 54 00 00 00 00 00 00 	fT000000HT000000
  0x4410	1c 54 00 00 00 00 00 00 fa 53 00 00 00 00 00 00 	0T0000000S000000
  0x4420	d8 53 00 00 00 00 00 00 a2 53 00 00 00 00 00 00 	0S0000000S000000
  0x4430	6e 53 00 00 00 00 00 00 3c 53 00 00 00 00 00 00 	nS000000<S000000
  0x4440	0c 53 00 00 00 00 00 00 d0 52 00 00 00 00 00 00 	0S0000000R000000
  0x4450	f2 56 00 00 00 00 00 00 de 56 00 00 00 00 00 00 	0V0000000V000000
  0x4460	28 56 00 00 00 00 00 00 76 56 00 00 00 00 00 00 	(V000000vV000000
  0x4470	3c 55 00 00 00 00 00 00 4a 56 00 00 00 00 00 00 	<U000000JV000000
  0x4480	9e 52 00 00 00 00 00 00 88 52 00 00 00 00 00 00 	0R0000000R000000
  0x4490	66 52 00 00 00 00 00 00 48 52 00 00 00 00 00 00 	fR000000HR000000
  0x44a0	1c 52 00 00 00 00 00 00 fc 51 00 00 00 00 00 00 	0R0000000Q000000
  0x44b0	d6 51 00 00 00 00 00 00 b0 51 00 00 00 00 00 00 	0Q0000000Q000000
  0x44c0	7c 51 00 00 00 00 00 00 40 51 00 00 00 00 00 00 	|Q000000@Q000000
  0x44d0	24 51 00 00 00 00 00 00 fa 50 00 00 00 00 00 00 	$Q0000000P000000
  0x44e0	e6 50 00 00 00 00 00 00 d2 50 00 00 00 00 00 00 	0P0000000P000000
  0x44f0	b2 50 00 00 00 00 00 00 90 50 00 00 00 00 00 00 	0P0000000P000000
  0x4500	74 50 00 00 00 00 00 00 4a 50 00 00 00 00 00 00 	tP000000JP000000
  0x4510	34 50 00 00 00 00 00 00 1e 50 00 00 00 00 00 00 	4P0000000P000000
  0x4520	96 56 00 00 00 00 00 00 00 00 00 00 00 00 00 00 	0V00000000000000
  0x4530	40 33 00 40 01 00 00 00 60 36 00 40 01 00 00 00 	@30@0000`60@0000
  0x4540	00 00 00 00 00 00 00 00 b0 2d 00 40 01 00 00 00 	000000000-0@0000
  0x4550	00 00 00 00 00 00 00 00 00 00 00 00 00 00 00 00 	0000000000000000
  0x4560	d0 2c 00 40 01 00 00 00 70 30 00 40 01 00 00 00 	0,0@0000p00@0000
  0x4570	00 00 00 00 00 00 00 00 10 10 00 00 d0 2c 00 00 	0000000000000,00
  0x4580	b0 2d 00 00 d0 2f 00 00 30 30 00 00 70 30 00 00 	0-000/000000p000
  0x4590	50 31 00 00 40 33 00 00 90 33 00 00 20 35 00 00 	P100@3000300 500
  0x45a0	30 35 00 00 40 35 00 00 50 35 00 00 60 35 00 00 	0500@500P500`500
  0x45b0	70 35 00 00 80 35 00 00 90 35 00 00 a0 35 00 00 	p500050005000500
  0x45c0	b0 35 00 00 c0 35 00 00 00 00 00 00 00 00 00 00 	0500050000000000
  0x45d0	5c 00 3f 00 3f 00 5c 00 53 00 79 00 73 00 74 00 	00?0?000S0y0s0t0
  0x45e0	65 00 6d 00 50 00 61 00 72 00 74 00 69 00 74 00 	e0m0P0a0r0t0i0t0
  0x45f0	69 00 6f 00 6e 00 00 00 2a 00 00 00 2f 44 00 00 	i0o0n000*000/D00
  0x4600	2f 58 00 00 2f 43 00 00 2f 54 00 00 2f 54 3a 2a 	/X00/C00/T00/T:*
  0x4610	00 00 00 00 2f 3f 00 00 2f 52 00 00 2f 2a 00 00 	0000/?00/R00/*00
  0x4620	2f 00 00 00 22 00 00 00 20 22 09 00 25 57 00 00 	/000"000 "00%W00
  0x4630	25 64 25 64 00 00 00 00 61 75 74 6f 63 68 65 63 	%d%d0000autochec
  0x4640	6b 20 61 75 74 6f 63 68 6b 00 00 00 00 00 00 00 	k autochk0000000
  0x4650	61 75 74 6f 63 68 65 63 6b 20 61 75 74 6f 63 68 	autocheck autoch
  0x4660	6b 20 2f 71 20 2f 76 20 2a 00 00 00 00 00 00 00 	k /q /v *0000000
  0x4670	61 75 74 6f 63 68 65 63 6b 20 61 75 74 6f 63 68 	autocheck autoch
  0x4680	6b 20 2a 00 25 64 00 00 4e 54 46 53 00 00 00 00 	k *0%d00NTFS0000
  0x4690	46 41 54 00 46 41 54 33 32 00 00 00 00 00 00 00 	FAT0FAT320000000
  0x46a0	61 75 74 6f 63 68 65 63 6b 20 61 75 74 6f 63 68 	autocheck autoch
  0x46b0	6b 20 2f 71 20 2f 76 20 2f 6b 3a 00 00 00 00 00 	k /q /v /k:00000
  0x46c0	61 75 74 6f 63 68 65 63 6b 20 61 75 74 6f 63 68 	autocheck autoch
  0x46d0	6b 20 2f 6b 3a 00 00 00 61 75 74 6f 63 68 65 63 	k /k:000autochec
  0x46e0	6b 20 61 75 74 6f 63 68 6b 20 2f 71 20 2f 76 00 	k autochk /q /v0
  0x46f0	20 2f 6b 3a 00 00 00 00 20 2a 00 00 00 00 00 00 	 /k:0000 *000000
  0x4700	61 75 74 6f 63 68 65 63 6b 20 61 75 74 6f 63 68 	autocheck autoch
  0x4710	6b 20 2f 6d 20 00 00 00 20 00 00 00 00 00 00 00 	k /m 000 0000000
  0x4720	53 00 65 00 53 00 68 00 75 00 74 00 64 00 6f 00 	S0e0S0h0u0t0d0o0
  0x4730	77 00 6e 00 50 00 72 00 69 00 76 00 69 00 6c 00 	w0n0P0r0i0v0i0l0
  0x4740	65 00 67 00 65 00 00 00 00 00 00 00 00 00 00 00 	e0g0e00000000000
  0x4750	00 00 00 00 df 71 fd e7 00 00 00 00 02 00 00 00 	00000q0000000000
  0x4760	24 00 00 00 a4 47 00 00 a4 33 00 00 00 00 00 00 	$0000G0003000000
  0x4770	df 71 fd e7 00 00 00 00 0d 00 00 00 f0 01 00 00 	0q00000000000000
  0x4780	c8 47 00 00 c8 33 00 00 00 00 00 00 df 71 fd e7 	0G00030000000q00
  0x4790	00 00 00 00 10 00 00 00 24 00 00 00 b8 49 00 00 	00000000$0000I00
  0x47a0	b8 35 00 00 52 53 44 53 ca 29 38 6c 55 b3 df f8 	0500RSDS0)8lU000
  0x47b0	6a 87 fb 93 27 8d 74 c6 01 00 00 00 63 68 6b 6e 	j000'0t00000chkn
  0x47c0	74 66 73 2e 70 64 62 00 47 43 54 4c 00 10 00 00 	tfs.pdb0GCTL0000
  0x47d0	50 26 00 00 2e 74 65 78 74 24 6d 6e 00 00 00 00 	P&00.text$mn0000
  0x47e0	50 36 00 00 20 00 00 00 2e 74 65 78 74 24 6d 6e 	P600 000.text$mn
  0x47f0	24 30 30 00 70 36 00 00 50 00 00 00 2e 74 65 78 	$000p600P000.tex
  0x4800	74 24 78 00 00 40 00 00 88 01 00 00 2e 72 64 61 	t$x00@000000.rda
  0x4810	74 61 24 62 72 63 00 00 88 41 00 00 a8 03 00 00 	ta$brc000A000000
  0x4820	2e 69 64 61 74 61 24 35 00 00 00 00 30 45 00 00 	.idata$500000E00
  0x4830	10 00 00 00 2e 30 30 63 66 67 00 00 40 45 00 00 	0000.00cfg00@E00
  0x4840	08 00 00 00 2e 43 52 54 24 58 43 41 00 00 00 00 	0000.CRT$XCA0000
  0x4850	48 45 00 00 08 00 00 00 2e 43 52 54 24 58 43 41 	HE000000.CRT$XCA
  0x4860	41 00 00 00 50 45 00 00 08 00 00 00 2e 43 52 54 	A000PE000000.CRT
  0x4870	24 58 43 5a 00 00 00 00 58 45 00 00 08 00 00 00 	$XCZ0000XE000000
  0x4880	2e 43 52 54 24 58 49 41 00 00 00 00 60 45 00 00 	.CRT$XIA0000`E00
  0x4890	08 00 00 00 2e 43 52 54 24 58 49 41 41 00 00 00 	0000.CRT$XIAA000
  0x48a0	68 45 00 00 08 00 00 00 2e 43 52 54 24 58 49 59 	hE000000.CRT$XIY
  0x48b0	00 00 00 00 70 45 00 00 08 00 00 00 2e 43 52 54 	0000pE000000.CRT
  0x48c0	24 58 49 5a 00 00 00 00 78 45 00 00 58 00 00 00 	$XIZ0000xE00X000
  0x48d0	2e 67 66 69 64 73 00 00 d0 45 00 00 d4 01 00 00 	.gfids000E000000
  0x48e0	2e 72 64 61 74 61 00 00 a4 47 00 00 3c 02 00 00 	.rdata000G00<000
  0x48f0	2e 72 64 61 74 61 24 7a 7a 7a 64 62 67 00 00 00 	.rdata$zzzdbg000
  0x4900	e0 49 00 00 2c 01 00 00 2e 78 64 61 74 61 00 00 	0I00,000.xdata00
  0x4910	0c 4b 00 00 8c 00 00 00 2e 69 64 61 74 61 24 32 	0K000000.idata$2
  0x4920	00 00 00 00 98 4b 00 00 18 00 00 00 2e 69 64 61 	00000K000000.ida
  0x4930	74 61 24 33 00 00 00 00 b0 4b 00 00 a8 03 00 00 	ta$300000K000000
  0x4940	2e 69 64 61 74 61 24 34 00 00 00 00 58 4f 00 00 	.idata$40000XO00
  0x4950	32 0e 00 00 2e 69 64 61 74 61 24 36 00 00 00 00 	2000.idata$60000
  0x4960	00 60 00 00 20 00 00 00 2e 64 61 74 61 00 00 00 	0`00 000.data000
  0x4970	20 60 00 00 60 06 00 00 2e 62 73 73 00 00 00 00 	 `00`000.bss0000
  0x4980	00 70 00 00 14 01 00 00 2e 70 64 61 74 61 00 00 	0p000000.pdata00
  0x4990	00 80 00 00 f0 00 00 00 2e 72 73 72 63 24 30 31 	00000000.rsrc$01
  0x49a0	00 00 00 00 f0 80 00 00 20 08 00 00 2e 72 73 72 	00000000 000.rsr
  0x49b0	63 24 30 32 00 00 00 00 20 00 00 00 ca 29 38 6c 	c$020000 0000)8l
  0x49c0	55 b3 df f8 6a 87 fb 93 27 8d 74 c6 38 28 76 fe 	U000j000'0t08(v0
  0x49d0	1b 45 9b c9 ce a0 78 7e df 71 fd e7 00 00 00 00 	0E0000x~0q000000
  0x49e0	01 0a 04 00 0a 34 06 00 0a 32 06 70 01 17 07 00 	00000400020p0000
  0x49f0	17 74 19 00 17 34 18 00 17 01 16 00 0b 50 00 00 	0t00040000000P00
  0x4a00	19 2e 09 00 1d 64 ee 00 1d 34 ed 00 1d 01 e8 00 	0.000d0004000000
  0x4a10	0e e0 0c 70 0b 50 00 00 cc 35 00 00 30 07 00 00 	000p0P0005000000
  0x4a20	19 37 0d 00 26 74 ef 00 26 64 ee 00 26 34 ed 00 	0700&t00&d00&400
  0x4a30	26 01 e6 00 18 f0 16 e0 14 d0 12 c0 10 50 00 00 	&000000000000P00
  0x4a40	cc 35 00 00 20 07 00 00 01 07 02 00 07 01 3b 00 	0500 000000000;0
  0x4a50	01 04 01 00 04 42 00 00 01 04 01 00 04 62 00 00 	00000B0000000b00
  0x4a60	09 15 08 00 15 74 0a 00 15 64 09 00 15 34 08 00 	00000t000d000400
  0x4a70	15 52 11 f0 2a 33 00 00 01 00 00 00 15 2e 00 00 	0R00*30000000.00
  0x4a80	7b 2f 00 00 70 36 00 00 7b 2f 00 00 01 06 02 00 	{/00p600{/000000
  0x4a90	06 32 02 50 00 00 00 00 01 00 00 00 09 04 01 00 	020P000000000000
  0x4aa0	04 22 00 00 2a 33 00 00 01 00 00 00 ac 30 00 00 	0"00*30000000000
  0x4ab0	e2 30 00 00 01 00 00 00 e2 30 00 00 01 06 02 00 	0000000000000000
  0x4ac0	06 32 02 30 09 0a 04 00 0a 34 06 00 0a 32 06 70 	020000000400020p
  0x4ad0	2a 33 00 00 01 00 00 00 bd 31 00 00 f0 31 00 00 	*300000001000100
  0x4ae0	a0 36 00 00 f0 31 00 00 01 0d 04 00 0d 34 09 00 	0600010000000400
  0x4af0	0d 32 06 50 01 0c 02 00 0c 01 11 00 00 00 00 00 	020P000000000000
  0x4b00	01 00 00 00 01 02 01 00 02 30 00 00 08 4d 00 00 	0000000000000M00
  0x4b10	00 00 00 00 00 00 00 00 fe 4f 00 00 e0 42 00 00 	000000000O000B00
  0x4b20	a8 4d 00 00 00 00 00 00 00 00 00 00 dc 57 00 00 	0M00000000000W00
  0x4b30	80 43 00 00 d0 4b 00 00 00 00 00 00 00 00 00 00 	0C000K0000000000
  0x4b40	62 5b 00 00 a8 41 00 00 78 4d 00 00 00 00 00 00 	b[000A00xM000000
  0x4b50	00 00 00 00 d0 5b 00 00 50 43 00 00 78 4c 00 00 	00000[00PC00xL00
  0x4b60	00 00 00 00 00 00 00 00 0e 5d 00 00 50 42 00 00 	000000000]00PB00
  0x4b70	b0 4b 00 00 00 00 00 00 00 00 00 00 60 5d 00 00 	0K0000000000`]00
  0x4b80	88 41 00 00 f8 4c 00 00 00 00 00 00 00 00 00 00 	0A000L0000000000
  0x4b90	7e 5d 00 00 d0 42 00 00 00 00 00 00 00 00 00 00 	~]000B0000000000
  0x4ba0	00 00 00 00 00 00 00 00 00 00 00 00 00 00 00 00 	0000000000000000
  0x4bb0	30 5d 00 00 00 00 00 00 48 5d 00 00 00 00 00 00 	0]000000H]000000
  0x4bc0	1c 5d 00 00 00 00 00 00 00 00 00 00 00 00 00 00 	0]00000000000000
  0x4bd0	86 58 00 00 00 00 00 00 9e 58 00 00 00 00 00 00 	0X0000000X000000
  0x4be0	b6 58 00 00 00 00 00 00 e8 58 00 00 00 00 00 00 	0X0000000X000000
  0x4bf0	14 59 00 00 00 00 00 00 40 59 00 00 00 00 00 00 	0Y000000@Y000000
  0x4c00	6e 59 00 00 00 00 00 00 2c 58 00 00 00 00 00 00 	nY000000,X000000
  0x4c10	c0 59 00 00 00 00 00 00 fa 59 00 00 00 00 00 00 	0Y0000000Y000000
  0x4c20	22 5a 00 00 00 00 00 00 64 5a 00 00 00 00 00 00 	"Z000000dZ000000
  0x4c30	a6 5a 00 00 00 00 00 00 e8 5a 00 00 00 00 00 00 	0Z0000000Z000000
  0x4c40	4a 58 00 00 00 00 00 00 0e 58 00 00 00 00 00 00 	JX0000000X000000
  0x4c50	e6 57 00 00 00 00 00 00 98 59 00 00 00 00 00 00 	0W0000000Y000000
  0x4c60	08 5b 00 00 00 00 00 00 32 5b 00 00 00 00 00 00 	0[0000002[000000
  0x4c70	00 00 00 00 00 00 00 00 ce 5c 00 00 00 00 00 00 	0000000000000000
  0x4c80	b4 5c 00 00 00 00 00 00 9e 5c 00 00 00 00 00 00 	0000000000000000
  0x4c90	88 5c 00 00 00 00 00 00 6e 5c 00 00 00 00 00 00 	00000000n0000000
  0x4ca0	5a 5c 00 00 00 00 00 00 de 5c 00 00 00 00 00 00 	Z000000000000000
  0x4cb0	34 5c 00 00 00 00 00 00 1e 5c 00 00 00 00 00 00 	4000000000000000
  0x4cc0	0e 5c 00 00 00 00 00 00 fe 5b 00 00 00 00 00 00 	000000000[000000
  0x4cd0	ee 5b 00 00 00 00 00 00 da 5b 00 00 00 00 00 00 	0[0000000[000000
  0x4ce0	3c 5c 00 00 00 00 00 00 fa 5c 00 00 00 00 00 00 	<000000000000000
  0x4cf0	00 00 00 00 00 00 00 00 6e 5d 00 00 00 00 00 00 	00000000n]000000
  0x4d00	00 00 00 00 00 00 00 00 0a 50 00 00 00 00 00 00 	000000000P000000
  0x4d10	f2 4f 00 00 00 00 00 00 e8 4f 00 00 00 00 00 00 	0O0000000O000000
  0x4d20	c4 4f 00 00 00 00 00 00 b0 4f 00 00 00 00 00 00 	0O0000000O000000
  0x4d30	a6 4f 00 00 00 00 00 00 9e 4f 00 00 00 00 00 00 	0O0000000O000000
  0x4d40	8c 4f 00 00 00 00 00 00 7c 4f 00 00 00 00 00 00 	0O000000|O000000
  0x4d50	6e 4f 00 00 00 00 00 00 60 4f 00 00 00 00 00 00 	nO000000`O000000
  0x4d60	d0 4f 00 00 00 00 00 00 58 4f 00 00 00 00 00 00 	0O000000XO000000
  0x4d70	00 00 00 00 00 00 00 00 8e 5b 00 00 00 00 00 00 	000000000[000000
  0x4d80	80 5b 00 00 00 00 00 00 6e 5b 00 00 00 00 00 00 	0[000000n[000000
  0x4d90	a2 5b 00 00 00 00 00 00 bc 5b 00 00 00 00 00 00 	0[0000000[000000
  0x4da0	00 00 00 00 00 00 00 00 50 57 00 00 00 00 00 00 	00000000PW000000
  0x4db0	78 57 00 00 00 00 00 00 9c 57 00 00 00 00 00 00 	xW0000000W000000
  0x4dc0	c0 57 00 00 00 00 00 00 28 57 00 00 00 00 00 00 	0W000000(W000000
  0x4dd0	12 56 00 00 00 00 00 00 da 55 00 00 00 00 00 00 	0V0000000U000000
  0x4de0	a6 55 00 00 00 00 00 00 86 55 00 00 00 00 00 00 	0U0000000U000000
  0x4df0	6c 55 00 00 00 00 00 00 06 57 00 00 00 00 00 00 	lU0000000W000000
  0x4e00	0a 55 00 00 00 00 00 00 da 54 00 00 00 00 00 00 	0U0000000T000000
  0x4e10	c0 54 00 00 00 00 00 00 9a 54 00 00 00 00 00 00 	0T0000000T000000
  0x4e20	84 54 00 00 00 00 00 00 66 54 00 00 00 00 00 00 	0T000000fT000000
  0x4e30	48 54 00 00 00 00 00 00 1c 54 00 00 00 00 00 00 	HT0000000T000000
  0x4e40	fa 53 00 00 00 00 00 00 d8 53 00 00 00 00 00 00 	0S0000000S000000
  0x4e50	a2 53 00 00 00 00 00 00 6e 53 00 00 00 00 00 00 	0S000000nS000000
  0x4e60	3c 53 00 00 00 00 00 00 0c 53 00 00 00 00 00 00 	<S0000000S000000
  0x4e70	d0 52 00 00 00 00 00 00 f2 56 00 00 00 00 00 00 	0R0000000V000000
  0x4e80	de 56 00 00 00 00 00 00 28 56 00 00 00 00 00 00 	0V000000(V000000
  0x4e90	76 56 00 00 00 00 00 00 3c 55 00 00 00 00 00 00 	vV000000<U000000
  0x4ea0	4a 56 00 00 00 00 00 00 9e 52 00 00 00 00 00 00 	JV0000000R000000
  0x4eb0	88 52 00 00 00 00 00 00 66 52 00 00 00 00 00 00 	0R000000fR000000
  0x4ec0	48 52 00 00 00 00 00 00 1c 52 00 00 00 00 00 00 	HR0000000R000000
  0x4ed0	fc 51 00 00 00 00 00 00 d6 51 00 00 00 00 00 00 	0Q0000000Q000000
  0x4ee0	b0 51 00 00 00 00 00 00 7c 51 00 00 00 00 00 00 	0Q000000|Q000000
  0x4ef0	40 51 00 00 00 00 00 00 24 51 00 00 00 00 00 00 	@Q000000$Q000000
  0x4f00	fa 50 00 00 00 00 00 00 e6 50 00 00 00 00 00 00 	0P0000000P000000
  0x4f10	d2 50 00 00 00 00 00 00 b2 50 00 00 00 00 00 00 	0P0000000P000000
  0x4f20	90 50 00 00 00 00 00 00 74 50 00 00 00 00 00 00 	0P000000tP000000
  0x4f30	4a 50 00 00 00 00 00 00 34 50 00 00 00 00 00 00 	JP0000004P000000
  0x4f40	1e 50 00 00 00 00 00 00 96 56 00 00 00 00 00 00 	0P0000000V000000
  0x4f50	00 00 00 00 00 00 00 00 32 04 65 78 69 74 00 00 	0000000020exit00
  0x4f60	55 00 5f 58 63 70 74 46 69 6c 74 65 72 00 ae 00 	U0_XcptFilter000
  0x4f70	5f 61 6d 73 67 5f 65 78 69 74 00 00 7f 00 5f 5f 	_amsg_exit0000__
  0x4f80	67 65 74 6d 61 69 6e 61 72 67 73 00 8e 00 5f 5f 	getmainargs000__
  0x4f90	73 65 74 5f 61 70 70 5f 74 79 70 65 00 00 0e 01 	set_app_type0000
  0x4fa0	5f 65 78 69 74 00 c1 00 5f 63 65 78 69 74 00 00 	_exit000_cexit00
  0x4fb0	90 00 5f 5f 73 65 74 75 73 65 72 6d 61 74 68 65 	00__setusermathe
  0x4fc0	72 72 00 00 7d 01 5f 69 6e 69 74 74 65 72 6d 00 	rr00}0_initterm0
  0x4fd0	57 00 5f 5f 43 5f 73 70 65 63 69 66 69 63 5f 68 	W0__C_specific_h
  0x4fe0	61 6e 64 6c 65 72 00 00 27 01 5f 66 6d 6f 64 65 	andler00'0_fmode
  0x4ff0	00 00 d2 00 5f 63 6f 6d 6d 6f 64 65 00 00 6d 73 	0000_commode00ms
  0x5000	76 63 72 74 2e 64 6c 6c 00 00 2f 00 3f 74 65 72 	vcrt.dll00/0?ter
  0x5010	6d 69 6e 61 74 65 40 40 59 41 58 58 5a 00 3b 00 	minate@@YAXXZ0;0
  0x5020	3f 3f 31 44 53 54 52 49 4e 47 40 40 55 45 41 41 	??1DSTRING@@UEAA
  0x5030	40 58 5a 00 0f 00 3f 3f 30 44 53 54 52 49 4e 47 	@XZ000??0DSTRING
  0x5040	40 40 51 45 41 41 40 58 5a 00 d1 00 3f 49 6e 69 	@@QEAA@XZ000?Ini
  0x5050	74 69 61 6c 69 7a 65 40 4c 4f 4e 47 5f 41 52 47 	tialize@LONG_ARG
  0x5060	55 4d 45 4e 54 40 40 51 45 41 41 45 50 45 41 44 	UMENT@@QEAAEPEAD
  0x5070	40 5a 00 00 1a 00 3f 3f 30 4c 4f 4e 47 5f 41 52 	@Z0000??0LONG_AR
  0x5080	47 55 4d 45 4e 54 40 40 51 45 41 41 40 58 5a 00 	GUMENT@@QEAA@XZ0
  0x5090	15 01 3f 50 75 74 40 41 52 52 41 59 40 40 55 45 	00?Put@ARRAY@@UE
  0x50a0	41 41 45 50 45 41 56 4f 42 4a 45 43 54 40 40 40 	AAEPEAVOBJECT@@@
  0x50b0	5a 00 c0 00 3f 49 6e 69 74 69 61 6c 69 7a 65 40 	Z000?Initialize@
  0x50c0	41 52 52 41 59 40 40 51 45 41 41 45 4b 4b 40 5a 	ARRAY@@QEAAEKK@Z
  0x50d0	00 00 34 00 3f 3f 31 41 52 52 41 59 40 40 55 45 	0040??1ARRAY@@UE
  0x50e0	41 41 40 58 5a 00 02 00 3f 3f 30 41 52 52 41 59 	AA@XZ000??0ARRAY
  0x50f0	40 40 51 45 41 41 40 58 5a 00 ca 00 3f 49 6e 69 	@@QEAA@XZ000?Ini
  0x5100	74 69 61 6c 69 7a 65 40 46 4c 41 47 5f 41 52 47 	tialize@FLAG_ARG
  0x5110	55 4d 45 4e 54 40 40 51 45 41 41 45 50 45 41 44 	UMENT@@QEAAEPEAD
  0x5120	40 5a 00 00 10 00 3f 3f 30 46 4c 41 47 5f 41 52 	@Z0000??0FLAG_AR
  0x5130	47 55 4d 45 4e 54 40 40 51 45 41 41 40 58 5a 00 	GUMENT@@QEAA@XZ0
  0x5140	2c 01 3f 51 75 65 72 79 44 72 69 76 65 54 79 70 	,0?QueryDriveTyp
  0x5150	65 40 53 59 53 54 45 4d 40 40 53 41 3f 41 57 34 	e@SYSTEM@@SA?AW4
  0x5160	44 52 49 56 45 5f 54 59 50 45 40 40 50 45 42 56 	DRIVE_TYPE@@PEBV
  0x5170	57 53 54 52 49 4e 47 40 40 40 5a 00 d5 00 3f 49 	WSTRING@@@Z000?I
  0x5180	6e 69 74 69 61 6c 69 7a 65 40 4d 55 4c 54 49 50 	nitialize@MULTIP
  0x5190	4c 45 5f 50 41 54 48 5f 41 52 47 55 4d 45 4e 54 	LE_PATH_ARGUMENT
  0x51a0	40 40 51 45 41 41 45 50 45 41 44 45 45 40 5a 00 	@@QEAAEPEADEE@Z0
  0x51b0	45 00 3f 3f 31 4d 55 4c 54 49 50 4c 45 5f 50 41 	E0??1MULTIPLE_PA
  0x51c0	54 48 5f 41 52 47 55 4d 45 4e 54 40 40 55 45 41 	TH_ARGUMENT@@UEA
  0x51d0	41 40 58 5a 00 00 1f 00 3f 3f 30 4d 55 4c 54 49 	A@XZ0000??0MULTI
  0x51e0	50 4c 45 5f 50 41 54 48 5f 41 52 47 55 4d 45 4e 	PLE_PATH_ARGUMEN
  0x51f0	54 40 40 51 45 41 41 40 58 5a 00 00 fc 00 3f 49 	T@@QEAA@XZ0000?I
  0x5200	73 56 61 6c 75 65 53 65 74 40 41 52 47 55 4d 45 	sValueSet@ARGUME
  0x5210	4e 54 40 40 51 45 41 41 45 58 5a 00 b3 00 3f 47 	NT@@QEAAEXZ000?G
  0x5220	65 74 4c 65 78 65 6d 65 40 41 52 47 55 4d 45 4e 	etLexeme@ARGUMEN
  0x5230	54 40 40 51 45 41 41 50 45 41 56 57 53 54 52 49 	T@@QEAAPEAVWSTRI
  0x5240	4e 47 40 40 58 5a 00 00 87 00 3f 44 65 62 75 67 	NG@@XZ0000?Debug
  0x5250	44 75 6d 70 40 4f 42 4a 45 43 54 40 40 55 45 42 	Dump@OBJECT@@UEB
  0x5260	41 58 45 40 5a 00 7a 00 3f 43 6f 6d 70 61 72 65 	AXE@Z0z0?Compare
  0x5270	40 4f 42 4a 45 43 54 40 40 55 45 42 41 4a 50 45 	@OBJECT@@UEBAJPE
  0x5280	42 56 31 40 40 5a 00 00 46 00 3f 3f 31 4f 42 4a 	BV1@@Z00F0??1OBJ
  0x5290	45 43 54 40 40 55 45 41 41 40 58 5a 00 00 77 01 	ECT@@UEAA@XZ00w0
  0x52a0	3f 53 65 74 43 61 73 65 53 65 6e 73 69 74 69 76 	?SetCaseSensitiv
  0x52b0	65 40 41 52 47 55 4d 45 4e 54 5f 4c 45 58 45 4d 	e@ARGUMENT_LEXEM
  0x52c0	49 5a 45 52 40 40 51 45 41 41 58 45 40 5a 00 00 	IZER@@QEAAXE@Z00
  0x52d0	14 01 3f 50 72 65 70 61 72 65 54 6f 50 61 72 73 	00?PrepareToPars
  0x52e0	65 40 41 52 47 55 4d 45 4e 54 5f 4c 45 58 45 4d 	e@ARGUMENT_LEXEM
  0x52f0	49 5a 45 52 40 40 51 45 41 41 45 50 45 41 56 57 	IZER@@QEAAEPEAVW
  0x5300	53 54 52 49 4e 47 40 40 40 5a 00 00 20 01 3f 50 	STRING@@@Z00 0?P
  0x5310	75 74 53 77 69 74 63 68 65 73 40 41 52 47 55 4d 	utSwitches@ARGUM
  0x5320	45 4e 54 5f 4c 45 58 45 4d 49 5a 45 52 40 40 51 	ENT_LEXEMIZER@@Q
  0x5330	45 41 41 58 50 45 42 44 40 5a 00 00 1c 01 3f 50 	EAAXPEBD@Z0000?P
  0x5340	75 74 53 65 70 61 72 61 74 6f 72 73 40 41 52 47 	utSeparators@ARG
  0x5350	55 4d 45 4e 54 5f 4c 45 58 45 4d 49 5a 45 52 40 	UMENT_LEXEMIZER@
  0x5360	40 51 45 41 41 58 50 45 42 44 40 5a 00 00 9b 00 	@QEAAXPEBD@Z0000
  0x5370	3f 44 6f 50 61 72 73 69 6e 67 40 41 52 47 55 4d 	?DoParsing@ARGUM
  0x5380	45 4e 54 5f 4c 45 58 45 4d 49 5a 45 52 40 40 51 	ENT_LEXEMIZER@@Q
  0x5390	45 41 41 45 50 45 41 56 41 52 52 41 59 40 40 40 	EAAEPEAVARRAY@@@
  0x53a0	5a 00 bf 00 3f 49 6e 69 74 69 61 6c 69 7a 65 40 	Z000?Initialize@
  0x53b0	41 52 47 55 4d 45 4e 54 5f 4c 45 58 45 4d 49 5a 	ARGUMENT_LEXEMIZ
  0x53c0	45 52 40 40 51 45 41 41 45 50 45 41 56 41 52 52 	ER@@QEAAEPEAVARR
  0x53d0	41 59 40 40 40 5a 00 00 33 00 3f 3f 31 41 52 47 	AY@@@Z0030??1ARG
  0x53e0	55 4d 45 4e 54 5f 4c 45 58 45 4d 49 5a 45 52 40 	UMENT_LEXEMIZER@
  0x53f0	40 55 45 41 41 40 58 5a 00 00 01 00 3f 3f 30 41 	@UEAA@XZ0000??0A
  0x5400	52 47 55 4d 45 4e 54 5f 4c 45 58 45 4d 49 5a 45 	RGUMENT_LEXEMIZE
  0x5410	52 40 40 51 45 41 41 40 58 5a 00 00 e0 00 3f 49 	R@@QEAA@XZ0000?I
  0x5420	6e 69 74 69 61 6c 69 7a 65 40 53 54 52 49 4e 47 	nitialize@STRING
  0x5430	5f 41 52 47 55 4d 45 4e 54 40 40 51 45 41 41 45 	_ARGUMENT@@QEAAE
  0x5440	50 45 41 44 40 5a 00 00 4f 00 3f 3f 31 53 54 52 	PEAD@Z00O0??1STR
  0x5450	49 4e 47 5f 41 52 47 55 4d 45 4e 54 40 40 55 45 	ING_ARGUMENT@@UE
  0x5460	41 41 40 58 5a 00 2b 00 3f 3f 30 53 54 52 49 4e 	AA@XZ0+0??0STRIN
  0x5470	47 5f 41 52 47 55 4d 45 4e 54 40 40 51 45 41 41 	G_ARGUMENT@@QEAA
  0x5480	40 58 5a 00 25 00 3f 3f 30 50 52 4f 47 52 41 4d 	@XZ0%0??0PROGRAM
  0x5490	40 40 49 45 41 41 40 58 5a 00 c0 01 3f 56 61 6c 	@@IEAA@XZ000?Val
  0x54a0	69 64 61 74 65 56 65 72 73 69 6f 6e 40 50 52 4f 	idateVersion@PRO
  0x54b0	47 52 41 4d 40 40 55 45 42 41 58 4b 4b 40 5a 00 	GRAM@@UEBAXKK@Z0
  0x54c0	be 01 3f 55 73 61 67 65 40 50 52 4f 47 52 41 4d 	00?Usage@PROGRAM
  0x54d0	40 40 55 45 42 41 58 58 5a 00 b8 00 3f 47 65 74 	@@UEBAXXZ000?Get
  0x54e0	53 74 61 6e 64 61 72 64 45 72 72 6f 72 40 50 52 	StandardError@PR
  0x54f0	4f 47 52 41 4d 40 40 55 45 41 41 50 45 41 56 53 	OGRAM@@UEAAPEAVS
  0x5500	54 52 45 41 4d 40 40 58 5a 00 ba 00 3f 47 65 74 	TREAM@@XZ000?Get
  0x5510	53 74 61 6e 64 61 72 64 4f 75 74 70 75 74 40 50 	StandardOutput@P
  0x5520	52 4f 47 52 41 4d 40 40 55 45 41 41 50 45 41 56 	ROGRAM@@UEAAPEAV
  0x5530	53 54 52 45 41 4d 40 40 58 5a 00 00 b9 00 3f 47 	STREAM@@XZ0000?G
  0x5540	65 74 53 74 61 6e 64 61 72 64 49 6e 70 75 74 40 	etStandardInput@
  0x5550	50 52 4f 47 52 41 4d 40 40 55 45 41 41 50 45 41 	PROGRAM@@UEAAPEA
  0x5560	56 53 54 52 45 41 4d 40 40 58 5a 00 a6 00 3f 46 	VSTREAM@@XZ000?F
  0x5570	61 74 61 6c 40 50 52 4f 47 52 41 4d 40 40 55 45 	atal@PROGRAM@@UE
  0x5580	42 41 58 58 5a 00 a5 00 3f 46 61 74 61 6c 40 50 	BAXXZ000?Fatal@P
  0x5590	52 4f 47 52 41 4d 40 40 55 45 42 41 58 4b 4b 50 	ROGRAM@@UEBAXKKP
  0x55a0	45 41 44 5a 5a 00 93 00 3f 44 69 73 70 6c 61 79 	EADZZ000?Display
  0x55b0	4d 65 73 73 61 67 65 40 50 52 4f 47 52 41 4d 40 	Message@PROGRAM@
  0x55c0	40 55 45 42 41 45 4b 57 34 4d 45 53 53 41 47 45 	@UEBAEKW4MESSAGE
  0x55d0	5f 54 59 50 45 40 40 40 5a 00 94 00 3f 44 69 73 	_TYPE@@@Z000?Dis
  0x55e0	70 6c 61 79 4d 65 73 73 61 67 65 40 50 52 4f 47 	playMessage@PROG
  0x55f0	52 41 4d 40 40 55 45 42 41 45 4b 57 34 4d 45 53 	RAM@@UEBAEKW4MES
  0x5600	53 41 47 45 5f 54 59 50 45 40 40 50 45 41 44 5a 	SAGE_TYPE@@PEADZ
  0x5610	5a 00 4a 00 3f 3f 31 50 52 4f 47 52 41 4d 40 40 	Z0J0??1PROGRAM@@
  0x5620	55 45 41 41 40 58 5a 00 db 00 3f 49 6e 69 74 69 	UEAA@XZ000?Initi
  0x5630	61 6c 69 7a 65 40 50 52 4f 47 52 41 4d 40 40 51 	alize@PROGRAM@@Q
  0x5640	45 41 41 45 4b 4b 4b 40 5a 00 c7 00 3f 49 6e 69 	EAAEKKK@Z000?Ini
  0x5650	74 69 61 6c 69 7a 65 40 43 4c 41 53 53 5f 44 45 	tialize@CLASS_DE
  0x5660	53 43 52 49 50 54 4f 52 40 40 51 45 41 41 45 50 	SCRIPTOR@@QEAAEP
  0x5670	45 42 44 40 5a 00 0b 00 3f 3f 30 43 4c 41 53 53 	EBD@Z000??0CLASS
  0x5680	5f 44 45 53 43 52 49 50 54 4f 52 40 40 51 45 41 	_DESCRIPTOR@@QEA
  0x5690	41 40 58 5a 00 00 6f 00 3f 41 6e 61 6c 79 7a 65 	A@XZ00o0?Analyze
  0x56a0	50 61 74 68 40 50 41 54 48 40 40 51 45 41 41 3f 	Path@PATH@@QEAA?
  0x56b0	41 57 34 50 41 54 48 5f 41 4e 41 4c 59 5a 45 5f 	AW4PATH_ANALYZE_
  0x56c0	43 4f 44 45 40 40 50 45 41 56 57 53 54 52 49 4e 	CODE@@PEAVWSTRIN
  0x56d0	47 40 40 50 45 41 56 31 40 30 40 5a 00 00 47 00 	G@@PEAV1@0@Z00G0
  0x56e0	3f 3f 31 50 41 54 48 40 40 55 45 41 41 40 58 5a 	??1PATH@@UEAA@XZ
  0x56f0	00 00 22 00 3f 3f 30 50 41 54 48 40 40 51 45 41 	00"0??0PATH@@QEA
  0x5700	41 40 58 5a 00 00 9c 01 3f 53 74 72 63 61 74 40 	A@XZ0000?Strcat@
  0x5710	57 53 54 52 49 4e 47 40 40 51 45 41 41 45 50 45 	WSTRING@@QEAAEPE
  0x5720	42 56 31 40 40 5a 00 00 4d 01 3f 51 75 65 72 79 	BV1@@Z00M0?Query
  0x5730	53 74 72 69 6e 67 40 57 53 54 52 49 4e 47 40 40 	String@WSTRING@@
  0x5740	51 45 42 41 50 45 41 56 31 40 4b 4b 40 5a 00 00 	QEBAPEAV1@KK@Z00
  0x5750	ea 00 3f 49 6e 69 74 69 61 6c 69 7a 65 40 57 53 	00?Initialize@WS
  0x5760	54 52 49 4e 47 40 40 51 45 41 41 45 50 45 42 56 	TRING@@QEAAEPEBV
  0x5770	31 40 4b 4b 40 5a 00 00 e9 00 3f 49 6e 69 74 69 	1@KK@Z0000?Initi
  0x5780	61 6c 69 7a 65 40 57 53 54 52 49 4e 47 40 40 51 	alize@WSTRING@@Q
  0x5790	45 41 41 45 50 45 42 47 4b 40 5a 00 e8 00 3f 49 	EAAEPEBGK@Z000?I
  0x57a0	6e 69 74 69 61 6c 69 7a 65 40 57 53 54 52 49 4e 	nitialize@WSTRIN
  0x57b0	47 40 40 51 45 41 41 45 50 45 42 44 4b 40 5a 00 	G@@QEAAEPEBDK@Z0
  0x57c0	5c 00 3f 3f 38 57 53 54 52 49 4e 47 40 40 51 45 	00??8WSTRING@@QE
  0x57d0	42 41 45 41 45 42 56 30 40 40 5a 00 75 6c 69 62 	BAEAEBV0@@Z0ulib
  0x57e0	2e 64 6c 6c 00 00 85 00 3f 49 6e 69 74 69 61 6c 	.dll0000?Initial
  0x57f0	69 7a 65 40 4d 4f 55 4e 54 5f 50 4f 49 4e 54 5f 	ize@MOUNT_POINT_
  0x5800	4d 41 50 40 40 51 45 41 41 45 58 5a 00 00 20 00 	MAP@@QEAAEXZ00 0
  0x5810	3f 3f 31 4d 4f 55 4e 54 5f 50 4f 49 4e 54 5f 4d 	??1MOUNT_POINT_M
  0x5820	41 50 40 40 55 45 41 41 40 58 5a 00 08 00 3f 3f 	AP@@UEAA@XZ000??
  0x5830	30 4d 4f 55 4e 54 5f 50 4f 49 4e 54 5f 4d 41 50 	0MOUNT_POINT_MAP
  0x5840	40 40 51 45 41 41 40 58 5a 00 7d 00 3f 49 6e 69 	@@QEAA@XZ0}0?Ini
  0x5850	74 69 61 6c 69 7a 65 40 44 50 5f 44 52 49 56 45 	tialize@DP_DRIVE
  0x5860	40 40 51 45 41 41 45 50 45 42 56 57 53 54 52 49 	@@QEAAEPEBVWSTRI
  0x5870	4e 47 40 40 50 45 41 56 4d 45 53 53 41 47 45 40 	NG@@PEAVMESSAGE@
  0x5880	40 45 45 40 5a 00 1d 00 3f 3f 31 44 50 5f 44 52 	@EE@Z000??1DP_DR
  0x5890	49 56 45 40 40 55 45 41 41 40 58 5a 00 00 04 00 	IVE@@UEAA@XZ0000
  0x58a0	3f 3f 30 44 50 5f 44 52 49 56 45 40 40 51 45 41 	??0DP_DRIVE@@QEA
  0x58b0	41 40 58 5a 00 00 9f 00 3f 49 73 46 72 6f 6e 74 	A@XZ0000?IsFront
  0x58c0	45 6e 64 50 72 65 73 65 6e 74 40 41 55 54 4f 52 	EndPresent@AUTOR
  0x58d0	45 47 40 40 53 41 45 50 45 42 56 57 53 54 52 49 	EG@@SAEPEBVWSTRI
  0x58e0	4e 47 40 40 30 40 5a 00 47 00 3f 44 65 6c 65 74 	NG@@0@Z0G0?Delet
  0x58f0	65 45 6e 74 72 79 40 41 55 54 4f 52 45 47 40 40 	eEntry@AUTOREG@@
  0x5900	53 41 45 50 45 42 56 57 53 54 52 49 4e 47 40 40 	SAEPEBVWSTRING@@
  0x5910	45 40 5a 00 46 00 3f 44 65 6c 65 74 65 45 6e 74 	E@Z0F0?DeleteEnt
  0x5920	72 79 40 41 55 54 4f 52 45 47 40 40 53 41 45 50 	ry@AUTOREG@@SAEP
  0x5930	45 42 56 57 53 54 52 49 4e 47 40 40 30 40 5a 00 	EBVWSTRING@@0@Z0
  0x5940	45 00 3f 44 65 6c 65 74 65 45 6e 74 72 79 40 41 	E0?DeleteEntry@A
  0x5950	55 54 4f 52 45 47 40 40 53 41 45 50 45 42 56 57 	UTOREG@@SAEPEBVW
  0x5960	53 54 52 49 4e 47 40 40 30 30 40 5a 00 00 b3 00 	STRING@@00@Z0000
  0x5970	3f 50 75 73 68 45 6e 74 72 79 40 41 55 54 4f 52 	?PushEntry@AUTOR
  0x5980	45 47 40 40 53 41 45 50 45 42 56 57 53 54 52 49 	EG@@SAEPEBVWSTRI
  0x5990	4e 47 40 40 40 5a 00 00 31 00 3f 41 64 64 45 6e 	NG@@@Z0010?AddEn
  0x59a0	74 72 79 40 41 55 54 4f 52 45 47 40 40 53 41 45 	try@AUTOREG@@SAE
  0x59b0	50 45 42 56 57 53 54 52 49 4e 47 40 40 40 5a 00 	PEBVWSTRING@@@Z0
  0x59c0	a7 00 3f 49 73 56 6f 6c 75 6d 65 44 69 72 74 79 	00?IsVolumeDirty
  0x59d0	40 49 46 53 5f 53 59 53 54 45 4d 40 40 53 41 45 	@IFS_SYSTEM@@SAE
  0x59e0	50 45 41 56 57 53 54 52 49 4e 47 40 40 50 45 41 	PEAVWSTRING@@PEA
  0x59f0	45 31 50 45 41 4a 40 5a 00 00 d3 00 3f 51 75 65 	E1PEAJ@Z0000?Que
  0x5a00	72 79 49 73 53 79 73 74 65 6d 55 45 46 49 40 49 	ryIsSystemUEFI@I
  0x5a10	46 53 5f 53 59 53 54 45 4d 40 40 53 41 45 58 5a 	FS_SYSTEM@@SAEXZ
  0x5a20	00 00 b8 00 3f 51 75 65 72 79 43 61 6e 6f 6e 69 	0000?QueryCanoni
  0x5a30	63 61 6c 4e 74 44 72 69 76 65 4e 61 6d 65 40 49 	calNtDriveName@I
  0x5a40	46 53 5f 53 59 53 54 45 4d 40 40 53 41 45 50 45 	FS_SYSTEM@@SAEPE
  0x5a50	42 56 57 53 54 52 49 4e 47 40 40 50 45 41 56 32 	BVWSTRING@@PEAV2
  0x5a60	40 40 5a 00 4d 00 3f 44 6f 73 44 72 69 76 65 4e 	@@Z0M0?DosDriveN
  0x5a70	61 6d 65 54 6f 4e 74 44 72 69 76 65 4e 61 6d 65 	ameToNtDriveName
  0x5a80	40 49 46 53 5f 53 59 53 54 45 4d 40 40 53 41 45 	@IFS_SYSTEM@@SAE
  0x5a90	50 45 42 56 57 53 54 52 49 4e 47 40 40 50 45 41 	PEBVWSTRING@@PEA
  0x5aa0	56 32 40 40 5a 00 c7 00 3f 51 75 65 72 79 46 69 	V2@@Z000?QueryFi
  0x5ab0	6c 65 53 79 73 74 65 6d 4e 61 6d 65 40 49 46 53 	leSystemName@IFS
  0x5ac0	5f 53 59 53 54 45 4d 40 40 53 41 45 50 45 42 56 	_SYSTEM@@SAEPEBV
  0x5ad0	57 53 54 52 49 4e 47 40 40 50 45 41 56 32 40 50 	WSTRING@@PEAV2@P
  0x5ae0	45 41 4a 31 40 5a 00 00 09 00 3f 3f 30 4d 4f 55 	EAJ1@Z0000??0MOU
  0x5af0	4e 54 5f 50 4f 49 4e 54 5f 54 55 50 4c 45 40 40 	NT_POINT_TUPLE@@
  0x5b00	51 45 41 41 40 58 5a 00 1e 01 3f 53 65 74 41 75 	QEAA@XZ000?SetAu
  0x5b10	74 6f 63 68 6b 54 69 6d 65 4f 75 74 40 56 4f 4c 	tochkTimeOut@VOL
  0x5b20	5f 4c 49 4f 44 50 44 52 56 40 40 53 41 45 4b 40 	_LIODPDRV@@SAEK@
  0x5b30	5a 00 b4 00 3f 51 75 65 72 79 41 75 74 6f 63 68 	Z000?QueryAutoch
  0x5b40	6b 54 69 6d 65 4f 75 74 40 56 4f 4c 5f 4c 49 4f 	kTimeOut@VOL_LIO
  0x5b50	44 50 44 52 56 40 40 53 41 45 50 45 41 4b 40 5a 	DPDRV@@SAEPEAK@Z
  0x5b60	00 00 49 66 73 55 74 69 6c 2e 64 6c 6c 00 d2 02 	00IfsUtil.dll000
  0x5b70	52 74 6c 41 6c 6c 6f 63 61 74 65 48 65 61 70 00 	RtlAllocateHeap0
  0x5b80	f5 03 52 74 6c 46 72 65 65 48 65 61 70 00 f2 02 	00RtlFreeHeap000
  0x5b90	52 74 6c 43 61 70 74 75 72 65 43 6f 6e 74 65 78 	RtlCaptureContex
  0x5ba0	74 00 e8 04 52 74 6c 4c 6f 6f 6b 75 70 46 75 6e 	t000RtlLookupFun
  0x5bb0	63 74 69 6f 6e 45 6e 74 72 79 00 00 27 06 52 74 	ctionEntry00'0Rt
  0x5bc0	6c 56 69 72 74 75 61 6c 55 6e 77 69 6e 64 00 00 	lVirtualUnwind00
  0x5bd0	6e 74 64 6c 6c 2e 64 6c 6c 00 96 01 47 65 74 43 	ntdll.dll000GetC
  0x5be0	75 72 72 65 6e 74 50 72 6f 63 65 73 73 00 09 04 	urrentProcess000
  0x5bf0	53 65 74 45 72 72 6f 72 4d 6f 64 65 00 00 81 02 	SetErrorMode0000
  0x5c00	47 65 74 56 65 72 73 69 6f 6e 45 78 57 00 d6 01 	GetVersionExW000
  0x5c10	47 65 74 4c 61 73 74 45 72 72 6f 72 00 00 ae 02 	GetLastError0000
  0x5c20	48 65 61 70 53 65 74 49 6e 66 6f 72 6d 61 74 69 	HeapSetInformati
  0x5c30	6f 6e 00 00 65 04 53 6c 65 65 70 00 58 04 53 65 	on00e0Sleep0X0Se
  0x5c40	74 55 6e 68 61 6e 64 6c 65 64 45 78 63 65 70 74 	tUnhandledExcept
  0x5c50	69 6f 6e 46 69 6c 74 65 72 00 ec 01 47 65 74 4d 	ionFilter000GetM
  0x5c60	6f 64 75 6c 65 48 61 6e 64 6c 65 57 00 00 82 03 	oduleHandleW0000
  0x5c70	51 75 65 72 79 50 65 72 66 6f 72 6d 61 6e 63 65 	QueryPerformance
  0x5c80	43 6f 75 6e 74 65 72 00 97 01 47 65 74 43 75 72 	Counter000GetCur
  0x5c90	72 65 6e 74 50 72 6f 63 65 73 73 49 64 00 9b 01 	rentProcessId000
  0x5ca0	47 65 74 43 75 72 72 65 6e 74 54 68 72 65 61 64 	GetCurrentThread
  0x5cb0	49 64 00 00 50 02 47 65 74 53 79 73 74 65 6d 54 	Id00P0GetSystemT
  0x5cc0	69 6d 65 41 73 46 69 6c 65 54 69 6d 65 00 6e 02 	imeAsFileTime0n0
  0x5cd0	47 65 74 54 69 63 6b 43 6f 75 6e 74 00 00 83 04 	GetTickCount0000
  0x5ce0	55 6e 68 61 6e 64 6c 65 64 45 78 63 65 70 74 69 	UnhandledExcepti
  0x5cf0	6f 6e 46 69 6c 74 65 72 00 00 72 04 54 65 72 6d 	onFilter00r0Term
  0x5d00	69 6e 61 74 65 50 72 6f 63 65 73 73 00 00 4b 45 	inateProcess00KE
  0x5d10	52 4e 45 4c 33 32 2e 64 6c 6c 00 00 7d 01 4f 70 	RNEL32.dll00}0Op
  0x5d20	65 6e 50 72 6f 63 65 73 73 54 6f 6b 65 6e 00 00 	enProcessToken00
  0x5d30	16 00 41 64 6a 75 73 74 54 6f 6b 65 6e 50 72 69 	00AdjustTokenPri
  0x5d40	76 69 6c 65 67 65 73 00 2f 01 4c 6f 6f 6b 75 70 	vileges0/0Lookup
  0x5d50	50 72 69 76 69 6c 65 67 65 56 61 6c 75 65 57 00 	PrivilegeValueW0
  0x5d60	41 44 56 41 50 49 33 32 2e 64 6c 6c 00 00 9e 00 	ADVAPI32.dll0000
  0x5d70	45 78 69 74 57 69 6e 64 6f 77 73 45 78 00 55 53 	ExitWindowsEx0US
  0x5d80	45 52 33 32 2e 64 6c 6c 00 00 00 00 00 00 00 00 	ER32.dll00000000
  0x5d90	00 00 00 00 00 00 00 00 00 00 00 00 00 00 00 00 	0000000000000000
  0x5da0	00 00 00 00 00 00 00 00 00 00 00 00 00 00 00 00 	0000000000000000
  0x5db0	00 00 00 00 00 00 00 00 00 00 00 00 00 00 00 00 	0000000000000000
  0x5dc0	00 00 00 00 00 00 00 00 00 00 00 00 00 00 00 00 	0000000000000000
  0x5dd0	00 00 00 00 00 00 00 00 00 00 00 00 00 00 00 00 	0000000000000000
  0x5de0	00 00 00 00 00 00 00 00 00 00 00 00 00 00 00 00 	0000000000000000
  0x5df0	00 00 00 00 00 00 00 00 00 00 00 00 00 00 00 00 	0000000000000000
=== DATA BLOCK END ===

=== DATA BLOCK ADDRESS 0x6000 ===
  0x6000	01 00 00 00 00 00 00 00 32 a2 df 2d 99 2b 00 00 	00000000200-0+00
  0x6010	cd 5d 20 d2 66 d4 ff ff 00 00 00 00 00 00 00 00 	0] 0f00000000000
  0x6020	00 00 00 00 00 00 00 00 00 00 00 00 00 00 00 00 	0000000000000000
  0x6030	00 00 00 00 00 00 00 00 00 00 00 00 00 00 00 00 	0000000000000000
  0x6040	00 00 00 00 00 00 00 00 00 00 00 00 00 00 00 00 	0000000000000000
  0x6050	00 00 00 00 00 00 00 00 00 00 00 00 00 00 00 00 	0000000000000000
  0x6060	00 00 00 00 00 00 00 00 00 00 00 00 00 00 00 00 	0000000000000000
  0x6070	00 00 00 00 00 00 00 00 00 00 00 00 00 00 00 00 	0000000000000000
  0x6080	00 00 00 00 00 00 00 00 00 00 00 00 00 00 00 00 	0000000000000000
  0x6090	00 00 00 00 00 00 00 00 00 00 00 00 00 00 00 00 	0000000000000000
  0x60a0	00 00 00 00 00 00 00 00 00 00 00 00 00 00 00 00 	0000000000000000
  0x60b0	00 00 00 00 00 00 00 00 00 00 00 00 00 00 00 00 	0000000000000000
  0x60c0	00 00 00 00 00 00 00 00 00 00 00 00 00 00 00 00 	0000000000000000
  0x60d0	00 00 00 00 00 00 00 00 00 00 00 00 00 00 00 00 	0000000000000000
  0x60e0	00 00 00 00 00 00 00 00 00 00 00 00 00 00 00 00 	0000000000000000
  0x60f0	00 00 00 00 00 00 00 00 00 00 00 00 00 00 00 00 	0000000000000000
  0x6100	00 00 00 00 00 00 00 00 00 00 00 00 00 00 00 00 	0000000000000000
  0x6110	00 00 00 00 00 00 00 00 00 00 00 00 00 00 00 00 	0000000000000000
  0x6120	00 00 00 00 00 00 00 00 00 00 00 00 00 00 00 00 	0000000000000000
  0x6130	00 00 00 00 00 00 00 00 00 00 00 00 00 00 00 00 	0000000000000000
  0x6140	00 00 00 00 00 00 00 00 00 00 00 00 00 00 00 00 	0000000000000000
  0x6150	00 00 00 00 00 00 00 00 00 00 00 00 00 00 00 00 	0000000000000000
  0x6160	00 00 00 00 00 00 00 00 00 00 00 00 00 00 00 00 	0000000000000000
  0x6170	00 00 00 00 00 00 00 00 00 00 00 00 00 00 00 00 	0000000000000000
  0x6180	00 00 00 00 00 00 00 00 00 00 00 00 00 00 00 00 	0000000000000000
  0x6190	00 00 00 00 00 00 00 00 00 00 00 00 00 00 00 00 	0000000000000000
  0x61a0	00 00 00 00 00 00 00 00 00 00 00 00 00 00 00 00 	0000000000000000
  0x61b0	00 00 00 00 00 00 00 00 00 00 00 00 00 00 00 00 	0000000000000000
  0x61c0	00 00 00 00 00 00 00 00 00 00 00 00 00 00 00 00 	0000000000000000
  0x61d0	00 00 00 00 00 00 00 00 00 00 00 00 00 00 00 00 	0000000000000000
  0x61e0	00 00 00 00 00 00 00 00 00 00 00 00 00 00 00 00 	0000000000000000
  0x61f0	00 00 00 00 00 00 00 00 00 00 00 00 00 00 00 00 	0000000000000000
=== DATA BLOCK END ===

=== DATA BLOCK ADDRESS 0x7000 ===
  0x7000	10 10 00 00 78 10 00 00 e0 49 00 00 80 10 00 00 	0000x0000I000000
  0x7010	ae 11 00 00 ec 49 00 00 b4 11 00 00 51 1a 00 00 	00000I000000Q000
  0x7020	00 4a 00 00 58 1a 00 00 ce 2b 00 00 20 4a 00 00 	0J00X0000+00 J00
  0x7030	d4 2b 00 00 c2 2c 00 00 48 4a 00 00 d0 2c 00 00 	0+000,00HJ000,00
  0x7040	a3 2d 00 00 50 4a 00 00 b0 2d 00 00 f9 2d 00 00 	0-00PJ000-000-00
  0x7050	58 4a 00 00 00 2e 00 00 be 2f 00 00 60 4a 00 00 	XJ000.000/00`J00
  0x7060	d0 2f 00 00 e2 2f 00 00 50 4a 00 00 00 30 00 00 	0/000/00PJ000000
  0x7070	1e 30 00 00 98 4a 00 00 30 30 00 00 69 30 00 00 	00000J000000i000
  0x7080	50 4a 00 00 70 30 00 00 88 30 00 00 50 4a 00 00 	PJ00p0000000PJ00
  0x7090	9c 30 00 00 f0 30 00 00 9c 4a 00 00 f8 30 00 00 	000000000J000000
  0x70a0	3d 31 00 00 bc 4a 00 00 b0 31 00 00 fd 31 00 00 	=1000J0001000100
  0x70b0	c4 4a 00 00 44 32 00 00 18 33 00 00 e8 4a 00 00 	0J00D20003000J00
  0x70c0	4c 33 00 00 80 33 00 00 bc 4a 00 00 90 33 00 00 	L30003000J000300
  0x70d0	01 35 00 00 f4 4a 00 00 cc 35 00 00 e9 35 00 00 	05000J0005000500
  0x70e0	50 4a 00 00 f0 35 00 00 4b 36 00 00 04 4b 00 00 	PJ000500K6000K00
  0x70f0	60 36 00 00 62 36 00 00 00 4b 00 00 70 36 00 00 	`600b6000K00p600
  0x7100	8e 36 00 00 8c 4a 00 00 a0 36 00 00 c0 36 00 00 	06000J0006000600
  0x7110	8c 4a 00 00 00 00 00 00 00 00 00 00 00 00 00 00 	0J00000000000000
  0x7120	00 00 00 00 00 00 00 00 00 00 00 00 00 00 00 00 	0000000000000000
  0x7130	00 00 00 00 00 00 00 00 00 00 00 00 00 00 00 00 	0000000000000000
  0x7140	00 00 00 00 00 00 00 00 00 00 00 00 00 00 00 00 	0000000000000000
  0x7150	00 00 00 00 00 00 00 00 00 00 00 00 00 00 00 00 	0000000000000000
  0x7160	00 00 00 00 00 00 00 00 00 00 00 00 00 00 00 00 	0000000000000000
  0x7170	00 00 00 00 00 00 00 00 00 00 00 00 00 00 00 00 	0000000000000000
  0x7180	00 00 00 00 00 00 00 00 00 00 00 00 00 00 00 00 	0000000000000000
  0x7190	00 00 00 00 00 00 00 00 00 00 00 00 00 00 00 00 	0000000000000000
  0x71a0	00 00 00 00 00 00 00 00 00 00 00 00 00 00 00 00 	0000000000000000
  0x71b0	00 00 00 00 00 00 00 00 00 00 00 00 00 00 00 00 	0000000000000000
  0x71c0	00 00 00 00 00 00 00 00 00 00 00 00 00 00 00 00 	0000000000000000
  0x71d0	00 00 00 00 00 00 00 00 00 00 00 00 00 00 00 00 	0000000000000000
  0x71e0	00 00 00 00 00 00 00 00 00 00 00 00 00 00 00 00 	0000000000000000
  0x71f0	00 00 00 00 00 00 00 00 00 00 00 00 00 00 00 00 	0000000000000000
=== DATA BLOCK END ===
