===== Assembly blocks =====

=== CODE BLOCK ADDRESS 0x1000 ===
  0x1000	int3   	
  0x1001	int3   	
  0x1002	int3   	
  0x1003	int3   	
  0x1004	int3   	
  === BLOCK LINK ===
    0x1005
=== CODE BLOCK END ===

=== CODE BLOCK ADDRESS 0x1005 ===
  0x1005	int3   	
  0x1006	int3   	
  0x1007	int3   	
  0x1008	int3   	
  0x1009	int3   	
  === BLOCK LINK ===
    0x100a
=== CODE BLOCK END ===

=== CODE BLOCK ADDRESS 0x100a ===
  0x100a	int3   	
  0x100b	int3   	
  0x100c	int3   	
  0x100d	int3   	
  0x100e	int3   	
  === BLOCK LINK ===
    0x100f
=== CODE BLOCK END ===

=== CODE BLOCK ADDRESS 0x100f ===
  0x100f	int3   	
  0x1010	inc    	eax
  0x1011	push   	ebx
  0x1012	dec    	eax
  0x1013	sub    	esp, 0x20
  === BLOCK LINK ===
    0x1016
=== CODE BLOCK END ===

=== CODE BLOCK ADDRESS 0x1016 ===
  0x1016	dec    	eax
  0x1017	lea    	eax, [0x2ff3]
  0x101d	dec    	eax
  0x101e	mov    	ebx, ecx
  0x1020	dec    	eax
  === BLOCK LINK ===
    0x1021
=== CODE BLOCK END ===

=== CODE BLOCK ADDRESS 0x1021 ===
  0x1021	mov    	dword ptr [ecx], eax
  0x1023	test   	dl, 1
  0x1026	je     	0x102d
  === BLOCK LINK ===
    0x1028
    0x102d
=== CODE BLOCK END ===

=== CODE BLOCK ADDRESS 0x1028 ===
  0x1028	call   	0x2754
  === BLOCK LINK ===
    0x102d
    0x2754
=== CODE BLOCK END ===

=== CODE BLOCK ADDRESS 0x102d ===
  0x102d	dec    	eax
  0x102e	mov    	eax, ebx
  0x1030	dec    	eax
  0x1031	add    	esp, 0x20
  0x1034	pop    	ebx
  === BLOCK LINK ===
    0x1035
=== CODE BLOCK END ===

=== CODE BLOCK ADDRESS 0x1035 ===
  0x1035	ret    	
  0x1036	int3   	
  0x1037	int3   	
  0x1038	int3   	
  0x1039	int3   	
  === BLOCK LINK ===
    0x103a
=== CODE BLOCK END ===

=== CODE BLOCK ADDRESS 0x103a ===
  0x103a	int3   	
  0x103b	int3   	
  0x103c	int3   	
  0x103d	int3   	
  0x103e	int3   	
  === BLOCK LINK ===
    0x103f
=== CODE BLOCK END ===

=== CODE BLOCK ADDRESS 0x103f ===
  0x103f	int3   	
  0x1040	dec    	eax
  0x1041	mov    	dword ptr [esp + 8], ebx
  0x1045	push   	edi
  0x1046	dec    	eax
  === BLOCK LINK ===
    0x1047
=== CODE BLOCK END ===

=== CODE BLOCK ADDRESS 0x1047 ===
  0x1047	sub    	esp, 0x30
  0x104a	dec    	eax
  0x104b	mov    	ebx, ecx
  0x104d	inc    	ecx
  0x104e	movzx  	edi, ax
  === BLOCK LINK ===
    0x1051
=== CODE BLOCK END ===

=== CODE BLOCK ADDRESS 0x1051 ===
  0x1051	xor    	ecx, ecx
  0x1053	dec    	eax
  0x1054	call   	dword ptr [0x317e]
  === BLOCK LINK ===
    0x105a
=== CODE BLOCK END ===

=== CODE BLOCK ADDRESS 0x105a ===
  0x105a	nop    	dword ptr [eax + eax]
  0x105f	dec    	esp
  0x1060	lea    	ecx, [0x3a]
  0x1066	dec    	eax
  0x1067	mov    	dword ptr [esp + 0x20], ebx
  === BLOCK LINK ===
    0x106b
=== CODE BLOCK END ===

=== CODE BLOCK ADDRESS 0x106b ===
  0x106b	dec    	eax
  0x106c	mov    	ecx, eax
  0x106e	inc    	ebp
  0x106f	xor    	eax, eax
  0x1071	mov    	edx, edi
  === BLOCK LINK ===
    0x1073
=== CODE BLOCK END ===

=== CODE BLOCK ADDRESS 0x1073 ===
  0x1073	dec    	eax
  0x1074	call   	dword ptr [0x324e]
  === BLOCK LINK ===
    0x107a
=== CODE BLOCK END ===

=== CODE BLOCK ADDRESS 0x107a ===
  0x107a	nop    	dword ptr [eax + eax]
  0x107f	dec    	eax
  0x1080	mov    	ebx, dword ptr [esp + 0x40]
  0x1084	dec    	eax
  0x1085	cwde   	
  === BLOCK LINK ===
    0x1086
=== CODE BLOCK END ===

=== CODE BLOCK ADDRESS 0x1086 ===
  0x1086	dec    	eax
  0x1087	add    	esp, 0x30
  0x108a	pop    	edi
  0x108b	ret    	
  0x108c	int3   	
  === BLOCK LINK ===
    0x108d
=== CODE BLOCK END ===

=== CODE BLOCK ADDRESS 0x2754 ===
  0x2754	jmp    	0x2af4
  === BLOCK LINK ===
    0x2759
=== CODE BLOCK END ===

=== CODE BLOCK ADDRESS 0x108d ===
  0x108d	int3   	
  0x108e	int3   	
  0x108f	int3   	
  0x1090	int3   	
  0x1091	int3   	
  === BLOCK LINK ===
    0x1092
=== CODE BLOCK END ===

=== CODE BLOCK ADDRESS 0x1092 ===
  0x1092	int3   	
  0x1093	int3   	
  0x1094	int3   	
  0x1095	int3   	
  0x1096	int3   	
  === BLOCK LINK ===
    0x1097
=== CODE BLOCK END ===

=== CODE BLOCK ADDRESS 0x1097 ===
  0x1097	int3   	
  0x1098	int3   	
  0x1099	int3   	
  0x109a	int3   	
  0x109b	int3   	
  === BLOCK LINK ===
    0x109c
=== CODE BLOCK END ===

=== CODE BLOCK ADDRESS 0x109c ===
  0x109c	int3   	
  0x109d	int3   	
  0x109e	int3   	
  0x109f	int3   	
  0x10a0	dec    	eax
  === BLOCK LINK ===
    0x10a1
=== CODE BLOCK END ===

=== CODE BLOCK ADDRESS 0x10a1 ===
  0x10a1	mov    	dword ptr [esp + 8], ebx
  0x10a5	dec    	eax
  0x10a6	mov    	dword ptr [esp + 0x18], ebp
  0x10aa	dec    	eax
  0x10ab	mov    	dword ptr [esp + 0x20], esi
  === BLOCK LINK ===
    0x10af
=== CODE BLOCK END ===

=== CODE BLOCK ADDRESS 0x10af ===
  0x10af	push   	edi
  0x10b0	inc    	ecx
  0x10b1	push   	esi
  0x10b2	inc    	ecx
  0x10b3	push   	edi
  === BLOCK LINK ===
    0x10b4
=== CODE BLOCK END ===

=== CODE BLOCK ADDRESS 0x10b4 ===
  0x10b4	dec    	eax
  0x10b5	sub    	esp, 0x30
  0x10b8	inc    	esp
  0x10b9	mov    	edi, edx
  0x10bb	mov    	edi, 1
  === BLOCK LINK ===
    0x10c0
=== CODE BLOCK END ===

=== CODE BLOCK ADDRESS 0x10c0 ===
  0x10c0	dec    	ecx
  0x10c1	mov    	esi, ecx
  0x10c3	dec    	ecx
  0x10c4	mov    	ebp, eax
  0x10c6	dec    	esp
  === BLOCK LINK ===
    0x10c7
=== CODE BLOCK END ===

=== CODE BLOCK ADDRESS 0x10c7 ===
  0x10c7	mov    	esi, ecx
  0x10c9	lea    	edx, [edi + 0xf]
  0x10cc	dec    	eax
  0x10cd	call   	dword ptr [0x31fd]
  === BLOCK LINK ===
    0x10d3
=== CODE BLOCK END ===

=== CODE BLOCK ADDRESS 0x10d3 ===
  0x10d3	nop    	dword ptr [eax + eax]
  0x10d8	inc    	ebp
  0x10d9	mov    	edx, edi
  0x10db	dec    	eax
  0x10dc	mov    	ebx, eax
  === BLOCK LINK ===
    0x10de
=== CODE BLOCK END ===

=== CODE BLOCK ADDRESS 0x10de ===
  0x10de	inc    	ecx
  0x10df	sub    	edx, 2
  0x10e2	je     	0x11e7
  === BLOCK LINK ===
    0x10e8
    0x11e7
=== CODE BLOCK END ===

=== CODE BLOCK ADDRESS 0x10e8 ===
  0x10e8	inc    	ecx
  0x10e9	sub    	edx, 3
  0x10ec	je     	0x11db
  === BLOCK LINK ===
    0x10f2
    0x11db
=== CODE BLOCK END ===

=== CODE BLOCK ADDRESS 0x10f2 ===
  0x10f2	inc    	ecx
  0x10f3	sub    	edx, 0x1f
  0x10f6	je     	0x11c3
  === BLOCK LINK ===
    0x10fc
    0x11c3
=== CODE BLOCK END ===

=== CODE BLOCK ADDRESS 0x10fc ===
  0x10fc	inc    	ecx
  0x10fd	sub    	edx, 0x2a
  0x1100	je     	0x11b7
  === BLOCK LINK ===
    0x1106
    0x11b7
=== CODE BLOCK END ===

=== CODE BLOCK ADDRESS 0x1106 ===
  0x1106	inc    	ecx
  0x1107	sub    	edx, 5
  0x110a	je     	0x119c
  === BLOCK LINK ===
    0x1110
    0x119c
=== CODE BLOCK END ===

=== CODE BLOCK ADDRESS 0x1110 ===
  0x1110	inc    	ecx
  0x1111	sub    	edx, 0x28
  0x1114	je     	0x119c
  === BLOCK LINK ===
    0x111a
    0x119c
=== CODE BLOCK END ===

=== CODE BLOCK ADDRESS 0x111a ===
  0x111a	inc    	ecx
  0x111b	sub    	edx, 0x95
  0x1121	je     	0x114d
  === BLOCK LINK ===
    0x1123
    0x114d
=== CODE BLOCK END ===

=== CODE BLOCK ADDRESS 0x1123 ===
  0x1123	inc    	esp
  0x1124	cmp    	edx, edi
  0x1126	je     	0x112f
  === BLOCK LINK ===
    0x1128
    0x112f
=== CODE BLOCK END ===

=== CODE BLOCK ADDRESS 0x1128 ===
  0x1128	xor    	edi, edi
  0x112a	jmp    	0x1201
  === BLOCK LINK ===
    0x112f
    0x1201
=== CODE BLOCK END ===

=== CODE BLOCK ADDRESS 0x112f ===
  0x112f	dec    	eax
  0x1130	mov    	eax, dword ptr [eax]
  0x1132	dec    	eax
  0x1133	mov    	eax, dword ptr [eax + 0x18]
  0x1136	dec    	esp
  === BLOCK LINK ===
    0x1137
=== CODE BLOCK END ===

=== CODE BLOCK ADDRESS 0x1137 ===
  0x1137	mov    	eax, esi
  0x1139	dec    	eax
  0x113a	mov    	edx, ebp
  0x113c	dec    	eax
  0x113d	mov    	ecx, ebx
  === BLOCK LINK ===
    0x113f
=== CODE BLOCK END ===

=== CODE BLOCK ADDRESS 0x113f ===
  0x113f	call   	dword ptr [0x3293]
  === BLOCK LINK ===
    0x1145
=== CODE BLOCK END ===

=== CODE BLOCK ADDRESS 0x1145 ===
  0x1145	movzx  	edi, al
  0x1148	jmp    	0x1201
  === BLOCK LINK ===
    0x114d
    0x1201
=== CODE BLOCK END ===

=== CODE BLOCK ADDRESS 0x114d ===
  0x114d	dec    	esp
  0x114e	mov    	eax, esi
  0x1150	mov    	edx, 0x10
  0x1155	dec    	ecx
  0x1156	mov    	ecx, esi
  === BLOCK LINK ===
    0x1158
=== CODE BLOCK END ===

=== CODE BLOCK ADDRESS 0x1158 ===
  0x1158	dec    	eax
  0x1159	call   	dword ptr [0x3179]
  === BLOCK LINK ===
    0x115f
=== CODE BLOCK END ===

=== CODE BLOCK ADDRESS 0x115f ===
  0x115f	nop    	dword ptr [eax + eax]
  0x1164	dec    	eax
  0x1165	mov    	eax, dword ptr [esi]
  0x1167	dec    	eax
  0x1168	lea    	edx, [esp + 0x58]
  === BLOCK LINK ===
    0x116c
=== CODE BLOCK END ===

=== CODE BLOCK ADDRESS 0x116c ===
  0x116c	dec    	eax
  0x116d	mov    	ecx, esi
  0x116f	dec    	esp
  0x1170	mov    	dword ptr [esi + 8], esi
  0x1173	inc    	eax
  === BLOCK LINK ===
    0x1174
=== CODE BLOCK END ===

=== CODE BLOCK ADDRESS 0x1174 ===
  0x1174	mov    	byte ptr [esp + 0x58], bh
  0x1178	dec    	eax
  0x1179	mov    	eax, dword ptr [eax + 0x10]
  0x117c	call   	dword ptr [0x3256]
  === BLOCK LINK ===
    0x1182
=== CODE BLOCK END ===

=== CODE BLOCK ADDRESS 0x1182 ===
  0x1182	movzx  	edi, byte ptr [esp + 0x58]
  0x1187	test   	eax, eax
  0x1189	jns    	0x1201
  === BLOCK LINK ===
    0x118b
    0x1201
=== CODE BLOCK END ===

=== CODE BLOCK ADDRESS 0x118b ===
  0x118b	dec    	ecx
  0x118c	mov    	ecx, esi
  0x118e	dec    	eax
  0x118f	call   	dword ptr [0x3183]
  === BLOCK LINK ===
    0x1195
=== CODE BLOCK END ===

=== CODE BLOCK ADDRESS 0x1195 ===
  0x1195	nop    	dword ptr [eax + eax]
  0x119a	jmp    	0x1201
  === BLOCK LINK ===
    0x119c
    0x1201
=== CODE BLOCK END ===

=== CODE BLOCK ADDRESS 0x119c ===
  0x119c	dec    	eax
  0x119d	mov    	eax, dword ptr [eax]
  0x119f	dec    	esp
  0x11a0	mov    	ecx, esi
  0x11a2	dec    	esp
  === BLOCK LINK ===
    0x11a3
=== CODE BLOCK END ===

=== CODE BLOCK ADDRESS 0x11a3 ===
  0x11a3	mov    	eax, ebp
  0x11a5	inc    	ecx
  0x11a6	mov    	edx, edi
  0x11a8	dec    	eax
  0x11a9	mov    	ecx, ebx
  === BLOCK LINK ===
    0x11ab
=== CODE BLOCK END ===

=== CODE BLOCK ADDRESS 0x11ab ===
  0x11ab	dec    	eax
  0x11ac	mov    	eax, dword ptr [eax + 8]
  0x11af	call   	dword ptr [0x3223]
  === BLOCK LINK ===
    0x11b5
=== CODE BLOCK END ===

=== CODE BLOCK ADDRESS 0x11b5 ===
  0x11b5	jmp    	0x1201
  === BLOCK LINK ===
    0x11b7
    0x1201
=== CODE BLOCK END ===

=== CODE BLOCK ADDRESS 0x11b7 ===
  0x11b7	dec    	eax
  0x11b8	mov    	eax, dword ptr [eax]
  0x11ba	dec    	eax
  0x11bb	mov    	eax, dword ptr [eax + 0x30]
  0x11be	jmp    	0x1136
  === BLOCK LINK ===
    0x11c3
    0x1136
=== CODE BLOCK END ===

=== CODE BLOCK ADDRESS 0x11c3 ===
  0x11c3	dec    	eax
  0x11c4	mov    	eax, dword ptr [eax]
  0x11c6	dec    	eax
  0x11c7	mov    	edx, esi
  0x11c9	dec    	eax
  === BLOCK LINK ===
    0x11ca
=== CODE BLOCK END ===

=== CODE BLOCK ADDRESS 0x11ca ===
  0x11ca	mov    	ecx, ebx
  0x11cc	dec    	eax
  0x11cd	mov    	eax, dword ptr [eax + 0x20]
  0x11d0	call   	dword ptr [0x3202]
  === BLOCK LINK ===
    0x11d6
=== CODE BLOCK END ===

=== CODE BLOCK ADDRESS 0x11d6 ===
  0x11d6	jmp    	0x1145
  === BLOCK LINK ===
    0x11db
    0x1145
=== CODE BLOCK END ===

=== CODE BLOCK ADDRESS 0x11db ===
  0x11db	dec    	eax
  0x11dc	mov    	eax, dword ptr [eax]
  0x11de	dec    	eax
  0x11df	mov    	eax, dword ptr [eax + 0x38]
  0x11e2	jmp    	0x1136
  === BLOCK LINK ===
    0x11e7
    0x1136
=== CODE BLOCK END ===

=== CODE BLOCK ADDRESS 0x11e7 ===
  0x11e7	dec    	eax
  0x11e8	test   	ebx, ebx
  0x11ea	je     	0x1201
  === BLOCK LINK ===
    0x11ec
    0x1201
=== CODE BLOCK END ===

=== CODE BLOCK ADDRESS 0x11ec ===
  0x11ec	dec    	eax
  0x11ed	mov    	eax, dword ptr [eax]
  0x11ef	dec    	eax
  0x11f0	mov    	ecx, ebx
  0x11f2	dec    	eax
  === BLOCK LINK ===
    0x11f3
=== CODE BLOCK END ===

=== CODE BLOCK ADDRESS 0x11f3 ===
  0x11f3	mov    	eax, dword ptr [eax + 0x50]
  0x11f6	call   	dword ptr [0x31dc]
  === BLOCK LINK ===
    0x11fc
=== CODE BLOCK END ===

=== CODE BLOCK ADDRESS 0x11fc ===
  0x11fc	dec    	eax
  0x11fd	and    	dword ptr [ebx + 8], 0
  === BLOCK LINK ===
    0x1201
=== CODE BLOCK END ===

=== CODE BLOCK ADDRESS 0x1207 ===
  0x1207	mov    	ebp, dword ptr [esp + 0x60]
  0x120b	dec    	eax
  0x120c	mov    	esi, dword ptr [esp + 0x68]
  0x1210	mov    	eax, edi
  0x1212	dec    	eax
  === BLOCK LINK ===
    0x1213
=== CODE BLOCK END ===

=== CODE BLOCK ADDRESS 0x1213 ===
  0x1213	add    	esp, 0x30
  0x1216	inc    	ecx
  0x1217	pop    	edi
  0x1218	inc    	ecx
  0x1219	pop    	esi
  === BLOCK LINK ===
    0x121a
=== CODE BLOCK END ===

=== CODE BLOCK ADDRESS 0x121a ===
  0x121a	pop    	edi
  0x121b	ret    	
  0x121c	int3   	
  0x121d	int3   	
  0x121e	int3   	
  === BLOCK LINK ===
    0x121f
=== CODE BLOCK END ===

=== CODE BLOCK ADDRESS 0x121f ===
  0x121f	int3   	
  0x1220	int3   	
  0x1221	int3   	
  0x1222	int3   	
  0x1223	int3   	
  === BLOCK LINK ===
    0x1224
=== CODE BLOCK END ===

=== CODE BLOCK ADDRESS 0x1224 ===
  0x1224	int3   	
  0x1225	int3   	
  0x1226	int3   	
  0x1227	int3   	
  0x1228	int3   	
  === BLOCK LINK ===
    0x1229
=== CODE BLOCK END ===

=== CODE BLOCK ADDRESS 0x1229 ===
  0x1229	int3   	
  0x122a	int3   	
  0x122b	int3   	
  0x122c	int3   	
  0x122d	int3   	
  === BLOCK LINK ===
    0x122e
=== CODE BLOCK END ===

=== CODE BLOCK ADDRESS 0x122e ===
  0x122e	int3   	
  0x122f	int3   	
  0x1230	xor    	al, al
  0x1232	ret    	
  0x1233	int3   	
  === BLOCK LINK ===
    0x1234
=== CODE BLOCK END ===

=== CODE BLOCK ADDRESS 0x1234 ===
  0x1234	int3   	
  0x1235	int3   	
  0x1236	int3   	
  0x1237	int3   	
  0x1238	int3   	
  === BLOCK LINK ===
    0x1239
=== CODE BLOCK END ===

=== CODE BLOCK ADDRESS 0x1239 ===
  0x1239	int3   	
  0x123a	int3   	
  0x123b	int3   	
  0x123c	int3   	
  0x123d	int3   	
  === BLOCK LINK ===
    0x123e
=== CODE BLOCK END ===

=== CODE BLOCK ADDRESS 0x123e ===
  0x123e	int3   	
  0x123f	int3   	
  0x1240	ret    	0
  0x1243	int3   	
  0x1244	int3   	
  === BLOCK LINK ===
    0x1245
=== CODE BLOCK END ===

=== CODE BLOCK ADDRESS 0x1245 ===
  0x1245	int3   	
  0x1246	int3   	
  0x1247	int3   	
  0x1248	int3   	
  0x1249	int3   	
  === BLOCK LINK ===
    0x124a
=== CODE BLOCK END ===

=== CODE BLOCK ADDRESS 0x124a ===
  0x124a	int3   	
  0x124b	int3   	
  0x124c	int3   	
  0x124d	int3   	
  0x124e	int3   	
  === BLOCK LINK ===
    0x124f
=== CODE BLOCK END ===

=== CODE BLOCK ADDRESS 0x124f ===
  0x124f	int3   	
  0x1250	xor    	eax, eax
  0x1252	ret    	
  0x1253	int3   	
  0x1254	int3   	
  === BLOCK LINK ===
    0x1255
=== CODE BLOCK END ===

=== CODE BLOCK ADDRESS 0x1255 ===
  0x1255	int3   	
  0x1256	int3   	
  0x1257	int3   	
  0x1258	int3   	
  0x1259	int3   	
  === BLOCK LINK ===
    0x125a
=== CODE BLOCK END ===

=== CODE BLOCK ADDRESS 0x125a ===
  0x125a	int3   	
  0x125b	int3   	
  0x125c	int3   	
  0x125d	int3   	
  0x125e	int3   	
  === BLOCK LINK ===
    0x125f
=== CODE BLOCK END ===

=== CODE BLOCK ADDRESS 0x125f ===
  0x125f	int3   	
  0x1260	mov    	al, 1
  0x1262	ret    	
  0x1263	int3   	
  0x1264	int3   	
  === BLOCK LINK ===
    0x1265
=== CODE BLOCK END ===

=== CODE BLOCK ADDRESS 0x1265 ===
  0x1265	int3   	
  0x1266	int3   	
  0x1267	int3   	
  0x1268	int3   	
  0x1269	int3   	
  === BLOCK LINK ===
    0x126a
=== CODE BLOCK END ===

=== CODE BLOCK ADDRESS 0x126a ===
  0x126a	int3   	
  0x126b	int3   	
  0x126c	dec    	eax
  0x126d	mov    	dword ptr [esp + 8], ebx
  0x1271	xor    	ebx, ebx
  === BLOCK LINK ===
    0x1273
=== CODE BLOCK END ===

=== CODE BLOCK ADDRESS 0x1273 ===
  0x1273	dec    	eax
  0x1274	lea    	eax, [edx - 1]
  0x1277	inc    	ecx
  0x1278	mov    	edx, 0x7ffffffe
  0x127d	inc    	esp
  === BLOCK LINK ===
    0x127e
=== CODE BLOCK END ===

=== CODE BLOCK ADDRESS 0x127e ===
  0x127e	mov    	ecx, ebx
  0x1280	dec    	ecx
  0x1281	cmp    	eax, edx
  0x1283	inc    	ecx
  0x1284	mov    	ebx, 0x80070057
  === BLOCK LINK ===
    0x1289
=== CODE BLOCK END ===

=== CODE BLOCK ADDRESS 0x1289 ===
  0x1289	inc    	ebp
  0x128a	cmova  	ecx, ebx
  0x128d	inc    	ebp
  0x128e	test   	ecx, ecx
  0x1290	js     	0x12dd
  === BLOCK LINK ===
    0x1292
    0x12dd
=== CODE BLOCK END ===

=== CODE BLOCK ADDRESS 0x1292 ===
  0x1292	dec    	eax
  0x1293	test   	edx, edx
  0x1295	je     	0x12bd
  === BLOCK LINK ===
    0x1297
    0x12bd
=== CODE BLOCK END ===

=== CODE BLOCK ADDRESS 0x1297 ===
  0x1297	dec    	esp
  0x1298	sub    	edx, edx
  0x129a	dec    	esp
  0x129b	sub    	eax, ecx
  0x129d	dec    	ecx
  === BLOCK LINK ===
    0x129e
=== CODE BLOCK END ===

=== CODE BLOCK ADDRESS 0x129e ===
  0x129e	lea    	eax, [edx + edx]
  0x12a1	dec    	eax
  0x12a2	test   	eax, eax
  0x12a4	je     	0x12bd
  === BLOCK LINK ===
    0x12a6
    0x12bd
=== CODE BLOCK END ===

=== CODE BLOCK ADDRESS 0x12a6 ===
  0x12a6	inc    	ecx
  0x12a7	movzx  	eax, word ptr [eax + ecx]
  0x12ab	test   	ax, ax
  0x12ae	je     	0x12bd
  === BLOCK LINK ===
    0x12b0
    0x12bd
=== CODE BLOCK END ===

=== CODE BLOCK ADDRESS 0x12b0 ===
  0x12b0	mov    	word ptr [ecx], ax
  0x12b3	dec    	eax
  0x12b4	add    	ecx, 2
  0x12b7	dec    	eax
  0x12b8	sub    	edx, 1
  === BLOCK LINK ===
    0x12bb
=== CODE BLOCK END ===

=== CODE BLOCK ADDRESS 0x12bb ===
  0x12bb	jne    	0x129d
  === BLOCK LINK ===
    0x12bd
    0x129d
=== CODE BLOCK END ===

=== CODE BLOCK ADDRESS 0x12bd ===
  0x12bd	dec    	eax
  0x12be	test   	edx, edx
  0x12c0	dec    	eax
  0x12c1	lea    	eax, [ecx - 2]
  0x12c4	dec    	eax
  === BLOCK LINK ===
    0x12c5
=== CODE BLOCK END ===

=== CODE BLOCK ADDRESS 0x12c5 ===
  0x12c5	cmovne  	eax, ecx
  0x12c8	dec    	eax
  0x12c9	neg    	edx
  0x12cb	inc    	ebp
  0x12cc	sbb    	ecx, ecx
  === BLOCK LINK ===
    0x12ce
=== CODE BLOCK END ===

=== CODE BLOCK ADDRESS 0x12ce ===
  0x12ce	inc    	ecx
  0x12cf	not    	ecx
  0x12d1	inc    	ecx
  0x12d2	and    	ecx, 0x8007007a
  0x12d8	mov    	word ptr [eax], bx
  === BLOCK LINK ===
    0x12db
=== CODE BLOCK END ===

=== CODE BLOCK ADDRESS 0x12db ===
  0x12db	jmp    	0x12e5
  === BLOCK LINK ===
    0x12dd
    0x12e5
=== CODE BLOCK END ===

=== CODE BLOCK ADDRESS 0x12dd ===
  0x12dd	dec    	eax
  0x12de	test   	edx, edx
  0x12e0	je     	0x12e5
  === BLOCK LINK ===
    0x12e2
    0x12e5
=== CODE BLOCK END ===

=== CODE BLOCK ADDRESS 0x12e2 ===
  0x12e2	mov    	word ptr [ecx], bx
  === BLOCK LINK ===
    0x12e5
=== CODE BLOCK END ===

=== CODE BLOCK ADDRESS 0x12ed ===
  0x12ed	ret    	
  0x12ee	int3   	
  0x12ef	int3   	
  0x12f0	int3   	
  0x12f1	int3   	
  === BLOCK LINK ===
    0x12f2
=== CODE BLOCK END ===

=== CODE BLOCK ADDRESS 0x12f2 ===
  0x12f2	int3   	
  0x12f3	int3   	
  0x12f4	int3   	
  0x12f5	int3   	
  0x12f6	int3   	
  === BLOCK LINK ===
    0x12f7
=== CODE BLOCK END ===

=== CODE BLOCK ADDRESS 0x12f7 ===
  0x12f7	int3   	
  0x12f8	dec    	eax
  0x12f9	mov    	dword ptr [esp + 8], ebx
  0x12fd	xor    	ebx, ebx
  0x12ff	dec    	esp
  === BLOCK LINK ===
    0x1300
=== CODE BLOCK END ===

=== CODE BLOCK ADDRESS 0x1300 ===
  0x1300	mov    	edx, edx
  0x1302	dec    	ebp
  0x1303	mov    	ebx, eax
  0x1305	inc    	esp
  0x1306	mov    	ecx, ebx
  === BLOCK LINK ===
    0x1308
=== CODE BLOCK END ===

=== CODE BLOCK ADDRESS 0x1308 ===
  0x1308	inc    	ecx
  0x1309	mov    	eax, 0x80070057
  0x130e	dec    	eax
  0x130f	mov    	edx, ecx
  0x1311	dec    	ecx
  === BLOCK LINK ===
    0x1312
=== CODE BLOCK END ===

=== CODE BLOCK ADDRESS 0x1312 ===
  0x1312	lea    	eax, [edx - 1]
  0x1315	dec    	eax
  0x1316	cmp    	eax, 0x7ffffffe
  0x131b	inc    	ebp
  0x131c	cmova  	ecx, eax
  === BLOCK LINK ===
    0x131f
=== CODE BLOCK END ===

=== CODE BLOCK ADDRESS 0x131f ===
  0x131f	inc    	ebp
  0x1320	test   	ecx, ecx
  0x1322	js     	0x135a
  === BLOCK LINK ===
    0x1324
    0x135a
=== CODE BLOCK END ===

=== CODE BLOCK ADDRESS 0x1324 ===
  0x1324	dec    	ecx
  0x1325	mov    	ecx, edx
  0x1327	dec    	eax
  0x1328	mov    	eax, edx
  0x132a	dec    	ebp
  === BLOCK LINK ===
    0x132b
=== CODE BLOCK END ===

=== CODE BLOCK ADDRESS 0x132b ===
  0x132b	test   	edx, edx
  0x132d	je     	0x133e
  === BLOCK LINK ===
    0x132f
    0x133e
=== CODE BLOCK END ===

=== CODE BLOCK ADDRESS 0x132f ===
  0x132f	cmp    	word ptr [eax], bx
  0x1332	je     	0x133e
  === BLOCK LINK ===
    0x1334
    0x133e
=== CODE BLOCK END ===

=== CODE BLOCK ADDRESS 0x1334 ===
  0x1334	dec    	eax
  0x1335	add    	eax, 2
  0x1338	dec    	eax
  0x1339	sub    	ecx, 1
  0x133c	jne    	0x132f
  === BLOCK LINK ===
    0x133e
    0x132f
=== CODE BLOCK END ===

=== CODE BLOCK ADDRESS 0x133e ===
  0x133e	dec    	eax
  0x133f	mov    	eax, ecx
  0x1341	dec    	eax
  0x1342	neg    	eax
  0x1344	inc    	ebp
  === BLOCK LINK ===
    0x1345
=== CODE BLOCK END ===

=== CODE BLOCK ADDRESS 0x1345 ===
  0x1345	sbb    	ecx, ecx
  0x1347	inc    	ecx
  0x1348	not    	ecx
  0x134a	inc    	ebp
  0x134b	and    	ecx, eax
  === BLOCK LINK ===
    0x134d
=== CODE BLOCK END ===

=== CODE BLOCK ADDRESS 0x134d ===
  0x134d	dec    	eax
  0x134e	test   	ecx, ecx
  0x1350	je     	0x135a
  === BLOCK LINK ===
    0x1352
    0x135a
=== CODE BLOCK END ===

=== CODE BLOCK ADDRESS 0x1352 ===
  0x1352	dec    	ebp
  0x1353	mov    	eax, edx
  0x1355	dec    	esp
  0x1356	sub    	eax, ecx
  0x1358	jmp    	0x135d
  === BLOCK LINK ===
    0x135a
    0x135d
=== CODE BLOCK END ===

=== CODE BLOCK ADDRESS 0x135a ===
  0x135a	dec    	esp
  0x135b	mov    	eax, ebx
  === BLOCK LINK ===
    0x135d
    0x13be
=== CODE BLOCK END ===

=== CODE BLOCK ADDRESS 0x1362 ===
  0x1362	dec    	ecx
  0x1363	mov    	ecx, edx
  0x1365	dec    	edx
  0x1366	lea    	edx, [edx + eax*2]
  0x1369	dec    	ecx
  === BLOCK LINK ===
    0x136a
=== CODE BLOCK END ===

=== CODE BLOCK ADDRESS 0x136a ===
  0x136a	sub    	ecx, eax
  0x136c	je     	0x13a0
  === BLOCK LINK ===
    0x136e
    0x13a0
=== CODE BLOCK END ===

=== CODE BLOCK ADDRESS 0x136e ===
  0x136e	dec    	eax
  0x136f	mov    	eax, ecx
  0x1371	dec    	ebp
  0x1372	lea    	ecx, [eax + 0x7ffffffe]
  0x1378	dec    	ecx
  === BLOCK LINK ===
    0x1379
=== CODE BLOCK END ===

=== CODE BLOCK ADDRESS 0x1379 ===
  0x1379	sub    	eax, edx
  0x137b	dec    	esp
  0x137c	add    	ecx, eax
  0x137e	dec    	esp
  0x137f	sub    	ebx, edx
  === BLOCK LINK ===
    0x1381
=== CODE BLOCK END ===

=== CODE BLOCK ADDRESS 0x1381 ===
  0x1381	dec    	ebp
  0x1382	test   	ecx, ecx
  0x1384	je     	0x13a0
  === BLOCK LINK ===
    0x1386
    0x13a0
=== CODE BLOCK END ===

=== CODE BLOCK ADDRESS 0x1386 ===
  0x1386	inc    	ecx
  0x1387	movzx  	eax, word ptr [ebx + edx]
  0x138b	test   	ax, ax
  0x138e	je     	0x13a0
  === BLOCK LINK ===
    0x1390
    0x13a0
=== CODE BLOCK END ===

=== CODE BLOCK ADDRESS 0x1390 ===
  0x1390	mov    	word ptr [edx], ax
  0x1393	dec    	ecx
  0x1394	dec    	ecx
  0x1396	dec    	eax
  0x1397	add    	edx, 2
  === BLOCK LINK ===
    0x139a
=== CODE BLOCK END ===

=== CODE BLOCK ADDRESS 0x139a ===
  0x139a	dec    	eax
  0x139b	sub    	ecx, 1
  0x139e	jne    	0x1381
  === BLOCK LINK ===
    0x13a0
    0x1381
=== CODE BLOCK END ===

=== CODE BLOCK ADDRESS 0x13a0 ===
  0x13a0	dec    	eax
  0x13a1	test   	ecx, ecx
  0x13a3	dec    	eax
  0x13a4	lea    	eax, [edx - 2]
  0x13a7	dec    	eax
  === BLOCK LINK ===
    0x13a8
=== CODE BLOCK END ===

=== CODE BLOCK ADDRESS 0x13a8 ===
  0x13a8	cmovne  	eax, edx
  0x13ab	dec    	eax
  0x13ac	neg    	ecx
  0x13ae	inc    	ebp
  0x13af	sbb    	ecx, ecx
  === BLOCK LINK ===
    0x13b1
=== CODE BLOCK END ===

=== CODE BLOCK ADDRESS 0x13b1 ===
  0x13b1	inc    	ecx
  0x13b2	not    	ecx
  0x13b4	inc    	ecx
  0x13b5	and    	ecx, 0x8007007a
  0x13bb	mov    	word ptr [eax], bx
  === BLOCK LINK ===
    0x13be
=== CODE BLOCK END ===

=== CODE BLOCK ADDRESS 0x13be ===
  0x13be	dec    	eax
  0x13bf	mov    	ebx, dword ptr [esp + 8]
  0x13c3	inc    	ecx
  0x13c4	mov    	eax, ecx
  0x13c6	ret    	
  === BLOCK LINK ===
    0x13c7
=== CODE BLOCK END ===

=== CODE BLOCK ADDRESS 0x13c7 ===
  0x13c7	int3   	
  0x13c8	int3   	
  0x13c9	int3   	
  0x13ca	int3   	
  0x13cb	int3   	
  === BLOCK LINK ===
    0x13cc
=== CODE BLOCK END ===

=== CODE BLOCK ADDRESS 0x13cc ===
  0x13cc	int3   	
  0x13cd	int3   	
  0x13ce	int3   	
  0x13cf	int3   	
  0x13d0	dec    	esp
  === BLOCK LINK ===
    0x13d1
=== CODE BLOCK END ===

=== CODE BLOCK ADDRESS 0x13d1 ===
  0x13d1	mov    	dword ptr [esp + 0x18], eax
  0x13d5	dec    	esp
  0x13d6	mov    	dword ptr [esp + 0x20], ecx
  0x13da	push   	ebx
  0x13db	push   	ebp
  === BLOCK LINK ===
    0x13dc
=== CODE BLOCK END ===

=== CODE BLOCK ADDRESS 0x13dc ===
  0x13dc	push   	esi
  0x13dd	push   	edi
  0x13de	dec    	eax
  0x13df	sub    	esp, 0x28
  0x13e2	xor    	ebp, ebp
  === BLOCK LINK ===
    0x13e4
=== CODE BLOCK END ===

=== CODE BLOCK ADDRESS 0x13e4 ===
  0x13e4	dec    	eax
  0x13e5	lea    	eax, [edx - 1]
  0x13e8	dec    	eax
  0x13e9	cmp    	eax, 0x7ffffffe
  0x13ee	dec    	eax
  === BLOCK LINK ===
    0x13ef
=== CODE BLOCK END ===

=== CODE BLOCK ADDRESS 0x13ef ===
  0x13ef	mov    	esi, ecx
  0x13f1	mov    	edi, ebp
  0x13f3	mov    	ecx, 0x80070057
  0x13f8	cmova  	edi, ecx
  0x13fb	test   	edi, edi
  === BLOCK LINK ===
    0x13fd
=== CODE BLOCK END ===

=== CODE BLOCK ADDRESS 0x13fd ===
  0x13fd	js     	0x143a
  === BLOCK LINK ===
    0x13ff
    0x143a
=== CODE BLOCK END ===

=== CODE BLOCK ADDRESS 0x13ff ===
  0x13ff	dec    	eax
  0x1400	lea    	ebx, [edx - 1]
  0x1403	dec    	eax
  0x1404	mov    	ecx, esi
  0x1406	dec    	eax
  === BLOCK LINK ===
    0x1407
=== CODE BLOCK END ===

=== CODE BLOCK ADDRESS 0x1407 ===
  0x1407	mov    	edx, ebx
  0x1409	dec    	esp
  0x140a	lea    	ecx, [esp + 0x68]
  0x140e	mov    	edi, ebp
  0x1410	dec    	eax
  === BLOCK LINK ===
    0x1411
=== CODE BLOCK END ===

=== CODE BLOCK ADDRESS 0x1411 ===
  0x1411	call   	dword ptr [0x2f89]
  === BLOCK LINK ===
    0x1417
=== CODE BLOCK END ===

=== CODE BLOCK ADDRESS 0x1417 ===
  0x1417	nop    	dword ptr [eax + eax]
  0x141c	test   	eax, eax
  0x141e	js     	0x142f
  === BLOCK LINK ===
    0x1420
    0x142f
=== CODE BLOCK END ===

=== CODE BLOCK ADDRESS 0x1420 ===
  0x1420	dec    	eax
  0x1421	cwde   	
  0x1422	dec    	eax
  0x1423	cmp    	eax, ebx
  0x1425	ja     	0x142f
  === BLOCK LINK ===
    0x1427
    0x142f
=== CODE BLOCK END ===

=== CODE BLOCK ADDRESS 0x1427 ===
  0x1427	jne    	0x1442
  === BLOCK LINK ===
    0x1429
=== CODE BLOCK END ===

=== CODE BLOCK ADDRESS 0x1429 ===
  0x1429	mov    	word ptr [esi + ebx*2], bp
  0x142d	jmp    	0x1442
  === BLOCK LINK ===
    0x142f
=== CODE BLOCK END ===

=== CODE BLOCK ADDRESS 0x142f ===
  0x142f	mov    	word ptr [esi + ebx*2], bp
  0x1433	mov    	edi, 0x8007007a
  0x1438	jmp    	0x1442
  === BLOCK LINK ===
    0x143a
=== CODE BLOCK END ===

=== CODE BLOCK ADDRESS 0x143a ===
  0x143a	dec    	eax
  0x143b	test   	edx, edx
  0x143d	je     	0x1442
  === BLOCK LINK ===
    0x143f
=== CODE BLOCK END ===

=== CODE BLOCK ADDRESS 0x143f ===
  0x143f	mov    	word ptr [esi], bp
  0x1442	mov    	eax, edi
  0x1444	dec    	eax
  0x1445	add    	esp, 0x28
  0x1448	pop    	edi
  === BLOCK LINK ===
    0x1449
=== CODE BLOCK END ===

=== CODE BLOCK ADDRESS 0x1449 ===
  0x1449	pop    	esi
  0x144a	pop    	ebp
  0x144b	pop    	ebx
  0x144c	ret    	
  0x144d	int3   	
  === BLOCK LINK ===
    0x144e
=== CODE BLOCK END ===

=== CODE BLOCK ADDRESS 0x144e ===
  0x144e	int3   	
  0x144f	int3   	
  0x1450	int3   	
  0x1451	int3   	
  0x1452	int3   	
  === BLOCK LINK ===
    0x1453
=== CODE BLOCK END ===

=== CODE BLOCK ADDRESS 0x1453 ===
  0x1453	int3   	
  0x1454	dec    	eax
  0x1455	mov    	eax, esp
  0x1457	mov    	dword ptr [eax + 8], ecx
  0x145a	dec    	eax
  === BLOCK LINK ===
    0x145b
=== CODE BLOCK END ===

=== CODE BLOCK ADDRESS 0x145b ===
  0x145b	mov    	dword ptr [eax + 0x10], edx
  0x145e	dec    	esp
  0x145f	mov    	dword ptr [eax + 0x18], eax
  0x1462	dec    	esp
  0x1463	mov    	dword ptr [eax + 0x20], ecx
  === BLOCK LINK ===
    0x1466
=== CODE BLOCK END ===

=== CODE BLOCK ADDRESS 0x1466 ===
  0x1466	push   	ebp
  0x1467	push   	ebx
  0x1468	dec    	eax
  0x1469	lea    	ebp, [eax - 0x1e8]
  0x146f	dec    	eax
  === BLOCK LINK ===
    0x1470
=== CODE BLOCK END ===

=== CODE BLOCK ADDRESS 0x1470 ===
  0x1470	sub    	esp, 0x2d8
  0x1476	dec    	eax
  0x1477	mov    	eax, dword ptr [0x4b8b]
  0x147d	dec    	eax
  0x147e	xor    	eax, esp
  === BLOCK LINK ===
    0x1480
=== CODE BLOCK END ===

=== CODE BLOCK ADDRESS 0x1480 ===
  0x1480	dec    	eax
  0x1481	mov    	dword ptr [ebp + 0x1c0], eax
  0x1487	movdqa  	xmm0, xmmword ptr [0x30e1]
  0x148f	dec    	eax
  0x1490	lea    	edx, [ebp + 0x1f8]
  === BLOCK LINK ===
    0x1496
=== CODE BLOCK END ===

=== CODE BLOCK ADDRESS 0x1496 ===
  0x1496	xor    	eax, eax
  0x1498	dec    	eax
  0x1499	mov    	dword ptr [esp + 0x38], edx
  0x149d	mov    	dword ptr [esp + 0x30], ecx
  0x14a1	dec    	eax
  === BLOCK LINK ===
    0x14a2
=== CODE BLOCK END ===

=== CODE BLOCK ADDRESS 0x14a2 ===
  0x14a2	lea    	ebx, [0x2bc0]
  0x14a8	dec    	eax
  0x14a9	lea    	ecx, [esp + 0x40]
  0x14ad	dec    	eax
  0x14ae	mov    	dword ptr [esp + 0x48], eax
  === BLOCK LINK ===
    0x14b2
=== CODE BLOCK END ===

=== CODE BLOCK ADDRESS 0x14b2 ===
  0x14b2	dec    	eax
  0x14b3	mov    	dword ptr [esp + 0x40], ebx
  0x14b7	movdqa  	xmmword ptr [esp + 0x50], xmm0
  0x14bd	dec    	eax
  0x14be	mov    	dword ptr [esp + 0x60], eax
  === BLOCK LINK ===
    0x14c2
=== CODE BLOCK END ===

=== CODE BLOCK ADDRESS 0x14c2 ===
  0x14c2	dec    	eax
  0x14c3	mov    	dword ptr [ebp + 0x1b0], eax
  0x14c9	mov    	word ptr [esp + 0x68], ax
  0x14ce	call   	0x1950
  === BLOCK LINK ===
    0x14d3
=== CODE BLOCK END ===

=== CODE BLOCK ADDRESS 0x14d3 ===
  0x14d3	dec    	eax
  0x14d4	mov    	ecx, dword ptr [esp + 0x60]
  0x14d8	dec    	eax
  0x14d9	mov    	dword ptr [esp + 0x40], ebx
  0x14dd	call   	0x2754
  === BLOCK LINK ===
    0x14e2
=== CODE BLOCK END ===

=== CODE BLOCK ADDRESS 0x14e2 ===
  0x14e2	dec    	eax
  0x14e3	mov    	ecx, dword ptr [ebp + 0x1b0]
  0x14e9	call   	0x2754
  === BLOCK LINK ===
    0x14ee
=== CODE BLOCK END ===

=== CODE BLOCK ADDRESS 0x14ee ===
  0x14ee	dec    	eax
  0x14ef	mov    	ecx, dword ptr [ebp + 0x1c0]
  0x14f5	dec    	eax
  0x14f6	xor    	ecx, esp
  0x14f8	call   	0x2ad0
  === BLOCK LINK ===
    0x14fd
=== CODE BLOCK END ===

=== CODE BLOCK ADDRESS 0x14fd ===
  0x14fd	dec    	eax
  0x14fe	add    	esp, 0x2d8
  0x1504	pop    	ebx
  0x1505	pop    	ebp
  0x1506	ret    	
  === BLOCK LINK ===
    0x1507
=== CODE BLOCK END ===

=== CODE BLOCK ADDRESS 0x1201 ===
  0x1201	dec    	eax
  0x1202	mov    	ebx, dword ptr [esp + 0x50]
  0x1206	dec    	eax
  === BLOCK LINK ===
    0x1207
=== CODE BLOCK END ===

=== CODE BLOCK ADDRESS 0x1507 ===
  0x1507	int3   	
  0x1508	int3   	
  0x1509	int3   	
  0x150a	int3   	
  0x150b	int3   	
  === BLOCK LINK ===
    0x150c
=== CODE BLOCK END ===

=== CODE BLOCK ADDRESS 0x150c ===
  0x150c	int3   	
  0x150d	int3   	
  0x150e	int3   	
  0x150f	int3   	
  0x1510	dec    	eax
  === BLOCK LINK ===
    0x1511
=== CODE BLOCK END ===

=== CODE BLOCK ADDRESS 0x1511 ===
  0x1511	mov    	eax, esp
  0x1513	dec    	eax
  0x1514	mov    	dword ptr [eax + 8], ebx
  0x1517	dec    	eax
  0x1518	mov    	dword ptr [eax + 0x10], esi
  === BLOCK LINK ===
    0x151b
=== CODE BLOCK END ===

=== CODE BLOCK ADDRESS 0x151b ===
  0x151b	dec    	eax
  0x151c	mov    	dword ptr [eax + 0x18], edi
  0x151f	dec    	esp
  0x1520	mov    	dword ptr [eax + 0x20], edi
  0x1523	push   	ebp
  === BLOCK LINK ===
    0x1524
=== CODE BLOCK END ===

=== CODE BLOCK ADDRESS 0x1524 ===
  0x1524	dec    	eax
  0x1525	lea    	ebp, [eax - 0x1158]
  0x152b	mov    	eax, 0x1250
  0x1530	call   	0x30d0
  === BLOCK LINK ===
    0x1535
=== CODE BLOCK END ===

=== CODE BLOCK ADDRESS 0x1535 ===
  0x1535	dec    	eax
  0x1536	sub    	esp, eax
  0x1538	dec    	eax
  0x1539	mov    	eax, dword ptr [0x4ac9]
  0x153f	dec    	eax
  === BLOCK LINK ===
    0x1540
=== CODE BLOCK END ===

=== CODE BLOCK ADDRESS 0x1540 ===
  0x1540	xor    	eax, esp
  0x1542	dec    	eax
  0x1543	mov    	dword ptr [ebp + 0x1140], eax
  0x1549	movdqa  	xmm0, xmmword ptr [0x302f]
  0x1551	dec    	esp
  === BLOCK LINK ===
    0x1552
=== CODE BLOCK END ===

=== CODE BLOCK ADDRESS 0x1552 ===
  0x1552	lea    	edi, [0x2b10]
  0x1558	xor    	edi, edi
  0x155a	dec    	esp
  0x155b	mov    	dword ptr [esp + 0x20], edi
  0x155f	dec    	esp
  === BLOCK LINK ===
    0x1560
=== CODE BLOCK END ===

=== CODE BLOCK ADDRESS 0x1560 ===
  0x1560	lea    	ecx, [0x2efa]
  0x1566	dec    	eax
  0x1567	mov    	dword ptr [esp + 0x28], edi
  0x156b	inc    	ecx
  0x156c	mov    	eax, 0x7d0
  === BLOCK LINK ===
    0x1571
=== CODE BLOCK END ===

=== CODE BLOCK ADDRESS 0x1571 ===
  0x1571	dec    	eax
  0x1572	mov    	dword ptr [esp + 0x40], edi
  0x1576	dec    	eax
  0x1577	lea    	edx, [ebp + 0x1a0]
  0x157d	dec    	eax
  === BLOCK LINK ===
    0x157e
=== CODE BLOCK END ===

=== CODE BLOCK ADDRESS 0x157e ===
  0x157e	mov    	dword ptr [ebp + 0x190], edi
  0x1584	lea    	ecx, [edi + 0x6e]
  0x1587	mov    	word ptr [esp + 0x48], di
  0x158c	movdqa  	xmmword ptr [esp + 0x30], xmm0
  0x1592	call   	0x16a0
  === BLOCK LINK ===
    0x1597
=== CODE BLOCK END ===

=== CODE BLOCK ADDRESS 0x1597 ===
  0x1597	dec    	eax
  0x1598	or     	esi, 0xffffffff
  0x159b	dec    	eax
  0x159c	lea    	ecx, [ebp + 0x1a0]
  0x15a2	dec    	eax
  === BLOCK LINK ===
    0x15a3
=== CODE BLOCK END ===

=== CODE BLOCK ADDRESS 0x15a3 ===
  0x15a3	mov    	eax, esi
  0x15a5	dec    	eax
  0x15a6	inc    	eax
  0x15a8	cmp    	word ptr [ecx + eax*2], di
  0x15ac	jne    	0x15a5
  === BLOCK LINK ===
    0x15ae
=== CODE BLOCK END ===

=== CODE BLOCK ADDRESS 0x15ae ===
  0x15ae	inc    	eax
  0x15b0	dec    	eax
  0x15b1	arpl   	ax, bx
  0x15b3	mov    	eax, 2
  0x15b8	dec    	eax
  === BLOCK LINK ===
    0x15b9
=== CODE BLOCK END ===

=== CODE BLOCK ADDRESS 0x15b9 ===
  0x15b9	mul    	ebx
  0x15bb	dec    	eax
  0x15bc	cmovo  	eax, esi
  0x15bf	dec    	eax
  0x15c0	mov    	ecx, eax
  === BLOCK LINK ===
    0x15c2
=== CODE BLOCK END ===

=== CODE BLOCK ADDRESS 0x15c2 ===
  0x15c2	call   	0x2760
  === BLOCK LINK ===
    0x15c7
=== CODE BLOCK END ===

=== CODE BLOCK ADDRESS 0x15c7 ===
  0x15c7	dec    	esp
  0x15c8	lea    	eax, [ebp + 0x1a0]
  0x15ce	dec    	eax
  0x15cf	mov    	dword ptr [esp + 0x40], eax
  0x15d3	dec    	eax
  === BLOCK LINK ===
    0x15d4
=== CODE BLOCK END ===

=== CODE BLOCK ADDRESS 0x15d4 ===
  0x15d4	mov    	edx, ebx
  0x15d6	dec    	eax
  0x15d7	mov    	ecx, eax
  0x15d9	call   	0x126c
  === BLOCK LINK ===
    0x15de
=== CODE BLOCK END ===

=== CODE BLOCK ADDRESS 0x15de ===
  0x15de	dec    	esp
  0x15df	lea    	ecx, [0x2e7b]
  0x15e5	inc    	ecx
  0x15e6	mov    	eax, 0x7d0
  0x15eb	dec    	eax
  === BLOCK LINK ===
    0x15ec
=== CODE BLOCK END ===

=== CODE BLOCK ADDRESS 0x15ec ===
  0x15ec	lea    	edx, [ebp + 0x1a0]
  0x15f2	mov    	ecx, 0x6d
  0x15f7	call   	0x16a0
  === BLOCK LINK ===
    0x15fc
=== CODE BLOCK END ===

=== CODE BLOCK ADDRESS 0x15fc ===
  0x15fc	dec    	eax
  0x15fd	lea    	edx, [ebp + 0x1a0]
  0x1603	dec    	eax
  0x1604	mov    	ecx, esi
  0x1606	dec    	eax
  === BLOCK LINK ===
    0x1607
=== CODE BLOCK END ===

=== CODE BLOCK ADDRESS 0x1607 ===
  0x1607	inc    	ecx
  0x1609	cmp    	word ptr [edx + ecx*2], di
  0x160d	jne    	0x1606
  === BLOCK LINK ===
    0x160f
=== CODE BLOCK END ===

=== CODE BLOCK ADDRESS 0x160f ===
  0x160f	inc    	ecx
  0x1611	mov    	eax, 2
  0x1616	dec    	eax
  0x1617	arpl   	cx, bx
  0x1619	dec    	eax
  === BLOCK LINK ===
    0x161a
=== CODE BLOCK END ===

=== CODE BLOCK ADDRESS 0x161a ===
  0x161a	mul    	ebx
  0x161c	dec    	eax
  0x161d	cmovo  	eax, esi
  0x1620	dec    	eax
  0x1621	mov    	ecx, eax
  === BLOCK LINK ===
    0x1623
=== CODE BLOCK END ===

=== CODE BLOCK ADDRESS 0x1623 ===
  0x1623	call   	0x2760
  === BLOCK LINK ===
    0x1628
=== CODE BLOCK END ===

=== CODE BLOCK ADDRESS 0x1628 ===
  0x1628	dec    	esp
  0x1629	lea    	eax, [ebp + 0x1a0]
  0x162f	dec    	eax
  0x1630	mov    	dword ptr [ebp + 0x190], eax
  0x1636	dec    	eax
  === BLOCK LINK ===
    0x1637
=== CODE BLOCK END ===

=== CODE BLOCK ADDRESS 0x1637 ===
  0x1637	mov    	edx, ebx
  0x1639	dec    	eax
  0x163a	mov    	ecx, eax
  0x163c	call   	0x126c
  === BLOCK LINK ===
    0x1641
=== CODE BLOCK END ===

=== CODE BLOCK ADDRESS 0x1641 ===
  0x1641	inc    	ecx
  0x1642	mov    	eax, 0x70
  0x1647	dec    	eax
  0x1648	lea    	ecx, [esp + 0x20]
  0x164c	call   	0x1040
  === BLOCK LINK ===
    0x1651
=== CODE BLOCK END ===

=== CODE BLOCK ADDRESS 0x1651 ===
  0x1651	dec    	eax
  0x1652	mov    	ecx, dword ptr [esp + 0x40]
  0x1656	dec    	esp
  0x1657	mov    	dword ptr [esp + 0x20], edi
  0x165b	call   	0x2754
  === BLOCK LINK ===
    0x1660
=== CODE BLOCK END ===

=== CODE BLOCK ADDRESS 0x1660 ===
  0x1660	dec    	eax
  0x1661	mov    	ecx, dword ptr [ebp + 0x190]
  0x1667	call   	0x2754
  === BLOCK LINK ===
    0x166c
=== CODE BLOCK END ===

=== CODE BLOCK ADDRESS 0x166c ===
  0x166c	dec    	eax
  0x166d	mov    	ecx, dword ptr [ebp + 0x1140]
  0x1673	dec    	eax
  0x1674	xor    	ecx, esp
  0x1676	call   	0x2ad0
  === BLOCK LINK ===
    0x167b
=== CODE BLOCK END ===

=== CODE BLOCK ADDRESS 0x167b ===
  0x167b	dec    	esp
  0x167c	lea    	ebx, [esp + 0x1250]
  0x1683	dec    	ecx
  0x1684	mov    	ebx, dword ptr [ebx + 0x10]
  0x1687	dec    	ecx
  === BLOCK LINK ===
    0x1688
=== CODE BLOCK END ===

=== CODE BLOCK ADDRESS 0x1688 ===
  0x1688	mov    	esi, dword ptr [ebx + 0x18]
  0x168b	dec    	ecx
  0x168c	mov    	edi, dword ptr [ebx + 0x20]
  0x168f	dec    	ebp
  0x1690	mov    	edi, dword ptr [ebx + 0x28]
  === BLOCK LINK ===
    0x1693
=== CODE BLOCK END ===

=== CODE BLOCK ADDRESS 0x1693 ===
  0x1693	dec    	ecx
  0x1694	mov    	esp, ebx
  0x1696	pop    	ebp
  0x1697	ret    	
  0x1698	int3   	
  === BLOCK LINK ===
    0x1699
=== CODE BLOCK END ===

=== CODE BLOCK ADDRESS 0x1699 ===
  0x1699	int3   	
  0x169a	int3   	
  0x169b	int3   	
  0x169c	int3   	
  0x169d	int3   	
  === BLOCK LINK ===
    0x169e
=== CODE BLOCK END ===

=== CODE BLOCK ADDRESS 0x169e ===
  0x169e	int3   	
  0x169f	int3   	
  0x16a0	dec    	eax
  0x16a1	mov    	dword ptr [esp + 8], ebx
  0x16a5	dec    	eax
  === BLOCK LINK ===
    0x16a6
=== CODE BLOCK END ===

=== CODE BLOCK ADDRESS 0x16a6 ===
  0x16a6	mov    	dword ptr [esp + 0x10], ebp
  0x16aa	dec    	eax
  0x16ab	mov    	dword ptr [esp + 0x18], esi
  0x16af	push   	edi
  0x16b0	inc    	ecx
  === BLOCK LINK ===
    0x16b1
=== CODE BLOCK END ===

=== CODE BLOCK ADDRESS 0x16b1 ===
  0x16b1	push   	esi
  0x16b2	inc    	ecx
  0x16b3	push   	edi
  0x16b4	dec    	eax
  0x16b5	sub    	esp, 0x20
  === BLOCK LINK ===
    0x16b8
=== CODE BLOCK END ===

=== CODE BLOCK ADDRESS 0x16b8 ===
  0x16b8	mov    	ebx, ecx
  0x16ba	inc    	ebp
  0x16bb	mov    	esi, eax
  0x16bd	inc    	ebp
  0x16be	xor    	edi, edi
  === BLOCK LINK ===
    0x16c0
=== CODE BLOCK END ===

=== CODE BLOCK ADDRESS 0x16c0 ===
  0x16c0	xor    	ecx, ecx
  0x16c2	inc    	ecx
  0x16c3	mov    	edi, edi
  0x16c5	dec    	ecx
  0x16c6	mov    	ebp, ecx
  === BLOCK LINK ===
    0x16c8
=== CODE BLOCK END ===

=== CODE BLOCK ADDRESS 0x16c8 ===
  0x16c8	dec    	eax
  0x16c9	mov    	esi, edx
  0x16cb	dec    	eax
  0x16cc	call   	dword ptr [0x2b06]
  === BLOCK LINK ===
    0x16d2
=== CODE BLOCK END ===

=== CODE BLOCK ADDRESS 0x16d2 ===
  0x16d2	nop    	dword ptr [eax + eax]
  0x16d7	inc    	ebp
  0x16d8	mov    	ecx, esi
  0x16da	dec    	esp
  0x16db	mov    	eax, esi
  === BLOCK LINK ===
    0x16dd
=== CODE BLOCK END ===

=== CODE BLOCK ADDRESS 0x16dd ===
  0x16dd	dec    	eax
  0x16de	mov    	ecx, eax
  0x16e0	mov    	edx, ebx
  0x16e2	dec    	eax
  0x16e3	call   	dword ptr [0x2c07]
  === BLOCK LINK ===
    0x16e9
=== CODE BLOCK END ===

=== CODE BLOCK ADDRESS 0x16e9 ===
  0x16e9	nop    	dword ptr [eax + eax]
  0x16ee	test   	eax, eax
  0x16f0	jne    	0x1725
  === BLOCK LINK ===
    0x16f2
=== CODE BLOCK END ===

=== CODE BLOCK ADDRESS 0x16f2 ===
  0x16f2	dec    	eax
  0x16f3	call   	dword ptr [0x2af7]
  === BLOCK LINK ===
    0x16f9
=== CODE BLOCK END ===

=== CODE BLOCK ADDRESS 0x16f9 ===
  0x16f9	nop    	dword ptr [eax + eax]
  0x16fe	movzx  	edi, ax
  0x1701	or     	edi, 0x80070000
  0x1707	test   	eax, eax
  0x1709	cmovle  	edi, eax
  === BLOCK LINK ===
    0x170c
=== CODE BLOCK END ===

=== CODE BLOCK ADDRESS 0x170c ===
  0x170c	dec    	eax
  0x170d	test   	ebp, ebp
  0x170f	je     	0x1721
  === BLOCK LINK ===
    0x1711
=== CODE BLOCK END ===

=== CODE BLOCK ADDRESS 0x1711 ===
  0x1711	inc    	ecx
  0x1712	mov    	edx, esi
  0x1714	dec    	esp
  0x1715	mov    	eax, ebp
  0x1717	dec    	eax
  === BLOCK LINK ===
    0x1718
=== CODE BLOCK END ===

=== CODE BLOCK ADDRESS 0x1718 ===
  0x1718	mov    	ecx, esi
  0x171a	call   	0x126c
  === BLOCK LINK ===
    0x171f
=== CODE BLOCK END ===

=== CODE BLOCK ADDRESS 0x171f ===
  0x171f	jmp    	0x1725
  === BLOCK LINK ===
    0x1721
=== CODE BLOCK END ===

=== CODE BLOCK ADDRESS 0x1721 ===
  0x1721	inc    	sp
  0x1723	mov    	dword ptr [esi], edi
  0x1725	dec    	eax
  0x1726	mov    	ebx, dword ptr [esp + 0x40]
  0x172a	mov    	eax, edi
  === BLOCK LINK ===
    0x172c
=== CODE BLOCK END ===

=== CODE BLOCK ADDRESS 0x172c ===
  0x172c	dec    	eax
  0x172d	mov    	ebp, dword ptr [esp + 0x48]
  0x1731	dec    	eax
  0x1732	mov    	esi, dword ptr [esp + 0x50]
  0x1736	dec    	eax
  === BLOCK LINK ===
    0x1737
=== CODE BLOCK END ===

=== CODE BLOCK ADDRESS 0x1737 ===
  0x1737	add    	esp, 0x20
  0x173a	inc    	ecx
  0x173b	pop    	edi
  0x173c	inc    	ecx
  0x173d	pop    	esi
  === BLOCK LINK ===
    0x173e
=== CODE BLOCK END ===

=== CODE BLOCK ADDRESS 0x173e ===
  0x173e	pop    	edi
  0x173f	ret    	
  0x1740	int3   	
  0x1741	int3   	
  0x1742	int3   	
  === BLOCK LINK ===
    0x1743
=== CODE BLOCK END ===

=== CODE BLOCK ADDRESS 0x1743 ===
  0x1743	int3   	
  0x1744	int3   	
  0x1745	int3   	
  0x1746	int3   	
  0x1747	int3   	
  === BLOCK LINK ===
    0x1748
=== CODE BLOCK END ===

=== CODE BLOCK ADDRESS 0x1748 ===
  0x1748	dec    	eax
  0x1749	mov    	dword ptr [esp + 0x10], ebx
  0x174d	dec    	eax
  0x174e	mov    	dword ptr [esp + 0x18], esi
  0x1752	push   	ebp
  === BLOCK LINK ===
    0x1753
=== CODE BLOCK END ===

=== CODE BLOCK ADDRESS 0x1753 ===
  0x1753	push   	edi
  0x1754	inc    	ecx
  0x1755	push   	esi
  0x1756	dec    	eax
  0x1757	lea    	ebp, [esp - 0xae0]
  === BLOCK LINK ===
    0x175e
=== CODE BLOCK END ===

=== CODE BLOCK ADDRESS 0x175e ===
  0x175e	dec    	eax
  0x175f	sub    	esp, 0xbe0
  0x1765	dec    	eax
  0x1766	mov    	eax, dword ptr [0x489c]
  0x176c	dec    	eax
  === BLOCK LINK ===
    0x176d
=== CODE BLOCK END ===

=== CODE BLOCK ADDRESS 0x176d ===
  0x176d	xor    	eax, esp
  0x176f	dec    	eax
  0x1770	mov    	dword ptr [ebp + 0xad0], eax
  0x1776	xor    	edi, edi
  0x1778	dec    	eax
  === BLOCK LINK ===
    0x1779
=== CODE BLOCK END ===

=== CODE BLOCK ADDRESS 0x1779 ===
  0x1779	lea    	eax, [esp + 0x40]
  0x177d	dec    	eax
  0x177e	mov    	dword ptr [esp + 0x30], edi
  0x1782	dec    	esp
  0x1783	lea    	esi, [0x28df]
  === BLOCK LINK ===
    0x1789
=== CODE BLOCK END ===

=== CODE BLOCK ADDRESS 0x1789 ===
  0x1789	inc    	esp
  0x178a	mov    	eax, ecx
  0x178c	mov    	dword ptr [esp + 0x28], edi
  0x1790	inc    	ebp
  0x1791	xor    	ecx, ecx
  === BLOCK LINK ===
    0x1793
=== CODE BLOCK END ===

=== CODE BLOCK ADDRESS 0x1793 ===
  0x1793	dec    	eax
  0x1794	mov    	dword ptr [esp + 0x20], eax
  0x1798	xor    	edx, edx
  0x179a	dec    	eax
  0x179b	mov    	dword ptr [esp + 0x58], edi
  === BLOCK LINK ===
    0x179f
=== CODE BLOCK END ===

=== CODE BLOCK ADDRESS 0x179f ===
  0x179f	mov    	ecx, 0x1100
  0x17a4	dec    	esp
  0x17a5	mov    	dword ptr [esp + 0x50], esi
  0x17a9	dec    	eax
  0x17aa	mov    	dword ptr [esp + 0x70], edi
  === BLOCK LINK ===
    0x17ae
=== CODE BLOCK END ===

=== CODE BLOCK ADDRESS 0x17ae ===
  0x17ae	dec    	eax
  0x17af	mov    	dword ptr [ebp + 0x1c0], edi
  0x17b5	mov    	word ptr [esp + 0x78], di
  0x17ba	dec    	eax
  0x17bb	mov    	dword ptr [esp + 0x40], edi
  === BLOCK LINK ===
    0x17bf
=== CODE BLOCK END ===

=== CODE BLOCK ADDRESS 0x17bf ===
  0x17bf	dec    	eax
  0x17c0	call   	dword ptr [0x2a1a]
  === BLOCK LINK ===
    0x17c6
=== CODE BLOCK END ===

=== CODE BLOCK ADDRESS 0x17c6 ===
  0x17c6	nop    	dword ptr [eax + eax]
  0x17cb	mov    	ebx, 0x122
  0x17d0	dec    	eax
  0x17d1	lea    	ecx, [ebp + 0x3e0]
  0x17d7	mov    	edx, ebx
  === BLOCK LINK ===
    0x17d9
=== CODE BLOCK END ===

=== CODE BLOCK ADDRESS 0x17d9 ===
  0x17d9	test   	eax, eax
  0x17db	je     	0x17fa
  === BLOCK LINK ===
    0x17dd
=== CODE BLOCK END ===

=== CODE BLOCK ADDRESS 0x17dd ===
  0x17dd	dec    	esp
  0x17de	mov    	eax, dword ptr [esp + 0x40]
  0x17e2	call   	0x126c
  === BLOCK LINK ===
    0x17e7
=== CODE BLOCK END ===

=== CODE BLOCK ADDRESS 0x17e7 ===
  0x17e7	dec    	eax
  0x17e8	mov    	ecx, dword ptr [esp + 0x40]
  0x17ec	dec    	eax
  0x17ed	call   	dword ptr [0x29f5]
  === BLOCK LINK ===
    0x17f3
=== CODE BLOCK END ===

=== CODE BLOCK ADDRESS 0x17f3 ===
  0x17f3	nop    	dword ptr [eax + eax]
  0x17f8	jmp    	0x1806
  === BLOCK LINK ===
    0x17fa
=== CODE BLOCK END ===

=== CODE BLOCK ADDRESS 0x17fa ===
  0x17fa	dec    	esp
  0x17fb	lea    	eax, [0x2c67]
  0x1801	call   	0x126c
  === BLOCK LINK ===
    0x1806
=== CODE BLOCK END ===

=== CODE BLOCK ADDRESS 0x1806 ===
  0x1806	dec    	esp
  0x1807	lea    	ecx, [0x2c8f]
  0x180d	inc    	esp
  0x180e	mov    	eax, ebx
  0x1810	dec    	eax
  === BLOCK LINK ===
    0x1811
=== CODE BLOCK END ===

=== CODE BLOCK ADDRESS 0x1811 ===
  0x1811	lea    	edx, [ebp + 0x880]
  0x1817	mov    	ecx, 0x72
  0x181c	call   	0x16a0
  === BLOCK LINK ===
    0x1821
=== CODE BLOCK END ===

=== CODE BLOCK ADDRESS 0x1821 ===
  0x1821	dec    	esp
  0x1822	lea    	ecx, [0x2c38]
  0x1828	inc    	ecx
  0x1829	mov    	eax, 0x104
  0x182e	dec    	eax
  === BLOCK LINK ===
    0x182f
=== CODE BLOCK END ===

=== CODE BLOCK ADDRESS 0x182f ===
  0x182f	lea    	edx, [ebp + 0x1d0]
  0x1835	mov    	ecx, 0x6d
  0x183a	call   	0x16a0
  === BLOCK LINK ===
    0x183f
=== CODE BLOCK END ===

=== CODE BLOCK ADDRESS 0x183f ===
  0x183f	dec    	esp
  0x1840	lea    	ecx, [ebp + 0x3e0]
  0x1846	dec    	eax
  0x1847	mov    	edx, ebx
  0x1849	dec    	esp
  === BLOCK LINK ===
    0x184a
=== CODE BLOCK END ===

=== CODE BLOCK ADDRESS 0x184a ===
  0x184a	lea    	eax, [ebp + 0x880]
  0x1850	dec    	eax
  0x1851	lea    	ecx, [ebp + 0x630]
  0x1857	call   	0x13d0
  === BLOCK LINK ===
    0x185c
=== CODE BLOCK END ===

=== CODE BLOCK ADDRESS 0x185c ===
  0x185c	movdqa  	xmm0, xmmword ptr [0x2d0c]
  0x1864	dec    	eax
  0x1865	lea    	ecx, [ebp + 0x630]
  0x186b	dec    	eax
  0x186c	or     	esi, 0xffffffff
  === BLOCK LINK ===
    0x186f
=== CODE BLOCK END ===

=== CODE BLOCK ADDRESS 0x186f ===
  0x186f	movdqa  	xmmword ptr [esp + 0x60], xmm0
  0x1875	dec    	eax
  0x1876	mov    	eax, esi
  0x1878	dec    	eax
  0x1879	inc    	eax
  === BLOCK LINK ===
    0x187b
=== CODE BLOCK END ===

=== CODE BLOCK ADDRESS 0x187b ===
  0x187b	cmp    	word ptr [ecx + eax*2], di
  0x187f	jne    	0x1878
  === BLOCK LINK ===
    0x1881
=== CODE BLOCK END ===

=== CODE BLOCK ADDRESS 0x1881 ===
  0x1881	inc    	eax
  0x1883	dec    	eax
  0x1884	arpl   	ax, bx
  0x1886	mov    	eax, 2
  0x188b	dec    	eax
  === BLOCK LINK ===
    0x188c
=== CODE BLOCK END ===

=== CODE BLOCK ADDRESS 0x188c ===
  0x188c	mul    	ebx
  0x188e	dec    	eax
  0x188f	cmovo  	eax, esi
  0x1892	dec    	eax
  0x1893	mov    	ecx, eax
  === BLOCK LINK ===
    0x1895
=== CODE BLOCK END ===

=== CODE BLOCK ADDRESS 0x1895 ===
  0x1895	call   	0x2760
  === BLOCK LINK ===
    0x189a
=== CODE BLOCK END ===

=== CODE BLOCK ADDRESS 0x189a ===
  0x189a	dec    	esp
  0x189b	lea    	eax, [ebp + 0x630]
  0x18a1	dec    	eax
  0x18a2	mov    	dword ptr [esp + 0x70], eax
  0x18a6	dec    	eax
  === BLOCK LINK ===
    0x18a7
=== CODE BLOCK END ===

=== CODE BLOCK ADDRESS 0x18a7 ===
  0x18a7	mov    	edx, ebx
  0x18a9	dec    	eax
  0x18aa	mov    	ecx, eax
  0x18ac	call   	0x126c
  === BLOCK LINK ===
    0x18b1
=== CODE BLOCK END ===

=== CODE BLOCK ADDRESS 0x18b1 ===
  0x18b1	dec    	eax
  0x18b2	lea    	edx, [ebp + 0x1d0]
  0x18b8	dec    	eax
  0x18b9	mov    	ecx, esi
  0x18bb	dec    	eax
  === BLOCK LINK ===
    0x18bc
=== CODE BLOCK END ===

=== CODE BLOCK ADDRESS 0x18bc ===
  0x18bc	inc    	ecx
  0x18be	cmp    	word ptr [edx + ecx*2], di
  0x18c2	jne    	0x18bb
  === BLOCK LINK ===
    0x18c4
=== CODE BLOCK END ===

=== CODE BLOCK ADDRESS 0x18c4 ===
  0x18c4	inc    	ecx
  0x18c6	mov    	eax, 2
  0x18cb	dec    	eax
  0x18cc	arpl   	cx, bx
  0x18ce	dec    	eax
  === BLOCK LINK ===
    0x18cf
=== CODE BLOCK END ===

=== CODE BLOCK ADDRESS 0x18cf ===
  0x18cf	mul    	ebx
  0x18d1	dec    	eax
  0x18d2	cmovo  	eax, esi
  0x18d5	dec    	eax
  0x18d6	mov    	ecx, eax
  === BLOCK LINK ===
    0x18d8
=== CODE BLOCK END ===

=== CODE BLOCK ADDRESS 0x18d8 ===
  0x18d8	call   	0x2760
  === BLOCK LINK ===
    0x18dd
=== CODE BLOCK END ===

=== CODE BLOCK ADDRESS 0x18dd ===
  0x18dd	dec    	esp
  0x18de	lea    	eax, [ebp + 0x1d0]
  0x18e4	dec    	eax
  0x18e5	mov    	dword ptr [ebp + 0x1c0], eax
  0x18eb	dec    	eax
  === BLOCK LINK ===
    0x18ec
=== CODE BLOCK END ===

=== CODE BLOCK ADDRESS 0x18ec ===
  0x18ec	mov    	edx, ebx
  0x18ee	dec    	eax
  0x18ef	mov    	ecx, eax
  0x18f1	call   	0x126c
  === BLOCK LINK ===
    0x18f6
=== CODE BLOCK END ===

=== CODE BLOCK ADDRESS 0x18f6 ===
  0x18f6	inc    	ecx
  0x18f7	mov    	eax, 0x6b
  0x18fc	dec    	eax
  0x18fd	lea    	ecx, [esp + 0x50]
  0x1901	call   	0x1040
  === BLOCK LINK ===
    0x1906
=== CODE BLOCK END ===

=== CODE BLOCK ADDRESS 0x1906 ===
  0x1906	dec    	eax
  0x1907	mov    	ecx, dword ptr [esp + 0x70]
  0x190b	dec    	esp
  0x190c	mov    	dword ptr [esp + 0x50], esi
  0x1910	call   	0x2754
  === BLOCK LINK ===
    0x1915
=== CODE BLOCK END ===

=== CODE BLOCK ADDRESS 0x1915 ===
  0x1915	dec    	eax
  0x1916	mov    	ecx, dword ptr [ebp + 0x1c0]
  0x191c	call   	0x2754
  === BLOCK LINK ===
    0x1921
=== CODE BLOCK END ===

=== CODE BLOCK ADDRESS 0x1921 ===
  0x1921	dec    	eax
  0x1922	mov    	ecx, dword ptr [ebp + 0xad0]
  0x1928	dec    	eax
  0x1929	xor    	ecx, esp
  0x192b	call   	0x2ad0
  === BLOCK LINK ===
    0x1930
=== CODE BLOCK END ===

=== CODE BLOCK ADDRESS 0x1930 ===
  0x1930	dec    	esp
  0x1931	lea    	ebx, [esp + 0xbe0]
  0x1938	dec    	ecx
  0x1939	mov    	ebx, dword ptr [ebx + 0x28]
  0x193c	dec    	ecx
  === BLOCK LINK ===
    0x193d
=== CODE BLOCK END ===

=== CODE BLOCK ADDRESS 0x193d ===
  0x193d	mov    	esi, dword ptr [ebx + 0x30]
  0x1940	dec    	ecx
  0x1941	mov    	esp, ebx
  0x1943	inc    	ecx
  0x1944	pop    	esi
  === BLOCK LINK ===
    0x1945
=== CODE BLOCK END ===

=== CODE BLOCK ADDRESS 0x1945 ===
  0x1945	pop    	edi
  0x1946	pop    	ebp
  0x1947	ret    	
  0x1948	int3   	
  0x1949	int3   	
  === BLOCK LINK ===
    0x194a
=== CODE BLOCK END ===

=== CODE BLOCK ADDRESS 0x194a ===
  0x194a	int3   	
  0x194b	int3   	
  0x194c	int3   	
  0x194d	int3   	
  0x194e	int3   	
  === BLOCK LINK ===
    0x194f
=== CODE BLOCK END ===

=== CODE BLOCK ADDRESS 0x194f ===
  0x194f	int3   	
  0x1950	dec    	eax
  0x1951	mov    	dword ptr [esp + 0x10], ebx
  0x1955	push   	edi
  0x1956	dec    	eax
  === BLOCK LINK ===
    0x1957
=== CODE BLOCK END ===

=== CODE BLOCK ADDRESS 0x1957 ===
  0x1957	sub    	esp, 0x270
  0x195d	dec    	eax
  0x195e	mov    	eax, dword ptr [0x46a4]
  0x1964	dec    	eax
  0x1965	xor    	eax, esp
  === BLOCK LINK ===
    0x1967
=== CODE BLOCK END ===

=== CODE BLOCK ADDRESS 0x1967 ===
  0x1967	dec    	eax
  0x1968	mov    	dword ptr [esp + 0x260], eax
  0x196f	dec    	eax
  0x1970	mov    	eax, dword ptr [esp + 0x2b8]
  0x1977	dec    	esp
  === BLOCK LINK ===
    0x1978
=== CODE BLOCK END ===

=== CODE BLOCK ADDRESS 0x1978 ===
  0x1978	lea    	ecx, [0x2ae2]
  0x197e	dec    	eax
  0x197f	mov    	edi, ecx
  0x1981	dec    	eax
  0x1982	mov    	dword ptr [ecx + 0x18], 0x7f01
  === BLOCK LINK ===
    0x1989
=== CODE BLOCK END ===

=== CODE BLOCK ADDRESS 0x1989 ===
  0x1989	xor    	ebx, ebx
  0x198b	dec    	eax
  0x198c	mov    	dword ptr [esp + 0x48], eax
  0x1990	dec    	eax
  0x1991	mov    	dword ptr [ecx + 0x10], ebx
  === BLOCK LINK ===
    0x1994
=== CODE BLOCK END ===

=== CODE BLOCK ADDRESS 0x1994 ===
  0x1994	dec    	eax
  0x1995	lea    	edx, [esp + 0x50]
  0x1999	mov    	ecx, dword ptr [esp + 0x2b0]
  0x19a0	inc    	ecx
  0x19a1	mov    	eax, 0x104
  === BLOCK LINK ===
    0x19a6
=== CODE BLOCK END ===

=== CODE BLOCK ADDRESS 0x19a6 ===
  0x19a6	call   	0x16a0
  === BLOCK LINK ===
    0x19ab
=== CODE BLOCK END ===

=== CODE BLOCK ADDRESS 0x19ab ===
  0x19ab	dec    	eax
  0x19ac	lea    	eax, [esp + 0x48]
  0x19b0	dec    	eax
  0x19b1	mov    	dword ptr [esp + 0x40], ebx
  0x19b5	dec    	eax
  === BLOCK LINK ===
    0x19b6
=== CODE BLOCK END ===

=== CODE BLOCK ADDRESS 0x19b6 ===
  0x19b6	mov    	dword ptr [esp + 0x30], eax
  0x19ba	dec    	eax
  0x19bb	lea    	edx, [esp + 0x50]
  0x19bf	dec    	eax
  0x19c0	lea    	eax, [esp + 0x40]
  === BLOCK LINK ===
    0x19c4
=== CODE BLOCK END ===

=== CODE BLOCK ADDRESS 0x19c4 ===
  0x19c4	mov    	dword ptr [esp + 0x28], ebx
  0x19c8	inc    	ebp
  0x19c9	xor    	ecx, ecx
  0x19cb	dec    	eax
  0x19cc	mov    	dword ptr [esp + 0x20], eax
  === BLOCK LINK ===
    0x19d0
=== CODE BLOCK END ===

=== CODE BLOCK ADDRESS 0x19d0 ===
  0x19d0	inc    	ebp
  0x19d1	xor    	eax, eax
  0x19d3	mov    	ecx, 0x500
  0x19d8	dec    	eax
  0x19d9	call   	dword ptr [0x2801]
  === BLOCK LINK ===
    0x19df
=== CODE BLOCK END ===

=== CODE BLOCK ADDRESS 0x19df ===
  0x19df	nop    	dword ptr [eax + eax]
  0x19e4	test   	eax, eax
  0x19e6	je     	0x1a3b
  === BLOCK LINK ===
    0x19e8
=== CODE BLOCK END ===

=== CODE BLOCK ADDRESS 0x19e8 ===
  0x19e8	dec    	eax
  0x19e9	mov    	ecx, dword ptr [esp + 0x40]
  0x19ed	dec    	ecx
  0x19ee	or     	eax, 0xffffffff
  0x19f1	dec    	ecx
  === BLOCK LINK ===
    0x19f2
=== CODE BLOCK END ===

=== CODE BLOCK ADDRESS 0x19f2 ===
  0x19f2	mov    	eax, eax
  0x19f4	dec    	eax
  0x19f5	inc    	eax
  0x19f7	cmp    	word ptr [ecx + eax*2], bx
  0x19fb	jne    	0x19f4
  === BLOCK LINK ===
    0x19fd
=== CODE BLOCK END ===

=== CODE BLOCK ADDRESS 0x19fd ===
  0x19fd	inc    	eax
  0x19ff	dec    	eax
  0x1a00	arpl   	ax, bx
  0x1a02	mov    	eax, 2
  0x1a07	dec    	eax
  === BLOCK LINK ===
    0x1a08
=== CODE BLOCK END ===

=== CODE BLOCK ADDRESS 0x1a08 ===
  0x1a08	mul    	ebx
  0x1a0a	dec    	ecx
  0x1a0b	cmovo  	eax, eax
  0x1a0e	dec    	eax
  0x1a0f	mov    	ecx, eax
  === BLOCK LINK ===
    0x1a11
=== CODE BLOCK END ===

=== CODE BLOCK ADDRESS 0x1a11 ===
  0x1a11	call   	0x2760
  === BLOCK LINK ===
    0x1a16
=== CODE BLOCK END ===

=== CODE BLOCK ADDRESS 0x1a16 ===
  0x1a16	dec    	esp
  0x1a17	mov    	eax, dword ptr [esp + 0x40]
  0x1a1b	dec    	eax
  0x1a1c	mov    	edx, ebx
  0x1a1e	dec    	eax
  === BLOCK LINK ===
    0x1a1f
=== CODE BLOCK END ===

=== CODE BLOCK ADDRESS 0x1a1f ===
  0x1a1f	mov    	ecx, eax
  0x1a21	dec    	eax
  0x1a22	mov    	dword ptr [edi + 0x20], eax
  0x1a25	call   	0x126c
  === BLOCK LINK ===
    0x1a2a
=== CODE BLOCK END ===

=== CODE BLOCK ADDRESS 0x1a2a ===
  0x1a2a	dec    	eax
  0x1a2b	mov    	ecx, dword ptr [esp + 0x40]
  0x1a2f	dec    	eax
  0x1a30	call   	dword ptr [0x27b2]
  === BLOCK LINK ===
    0x1a36
=== CODE BLOCK END ===

=== CODE BLOCK ADDRESS 0x1a36 ===
  0x1a36	nop    	dword ptr [eax + eax]
  0x1a3b	inc    	ecx
  0x1a3c	mov    	eax, 0x6b
  0x1a41	dec    	eax
  0x1a42	mov    	ecx, edi
  === BLOCK LINK ===
    0x1a44
=== CODE BLOCK END ===

=== CODE BLOCK ADDRESS 0x1a44 ===
  0x1a44	call   	0x1040
  === BLOCK LINK ===
    0x1a49
=== CODE BLOCK END ===

=== CODE BLOCK ADDRESS 0x1a49 ===
  0x1a49	dec    	eax
  0x1a4a	mov    	ecx, dword ptr [esp + 0x260]
  0x1a51	dec    	eax
  0x1a52	xor    	ecx, esp
  0x1a54	call   	0x2ad0
  === BLOCK LINK ===
    0x1a59
=== CODE BLOCK END ===

=== CODE BLOCK ADDRESS 0x1a59 ===
  0x1a59	dec    	eax
  0x1a5a	mov    	ebx, dword ptr [esp + 0x288]
  0x1a61	dec    	eax
  0x1a62	add    	esp, 0x270
  0x1a68	pop    	edi
  === BLOCK LINK ===
    0x1a69
=== CODE BLOCK END ===

=== CODE BLOCK ADDRESS 0x1a69 ===
  0x1a69	ret    	
  0x1a6a	int3   	
  0x1a6b	int3   	
  0x1a6c	int3   	
  0x1a6d	int3   	
  === BLOCK LINK ===
    0x1a6e
=== CODE BLOCK END ===

=== CODE BLOCK ADDRESS 0x1a6e ===
  0x1a6e	int3   	
  0x1a6f	int3   	
  0x1a70	int3   	
  0x1a71	int3   	
  0x1a72	int3   	
  === BLOCK LINK ===
    0x1a73
=== CODE BLOCK END ===

=== CODE BLOCK ADDRESS 0x1a73 ===
  0x1a73	int3   	
  0x1a74	int3   	
  0x1a75	int3   	
  0x1a76	int3   	
  0x1a77	int3   	
  === BLOCK LINK ===
    0x1a78
=== CODE BLOCK END ===

=== CODE BLOCK ADDRESS 0x1a78 ===
  0x1a78	int3   	
  0x1a79	int3   	
  0x1a7a	int3   	
  0x1a7b	int3   	
  0x1a7c	int3   	
  === BLOCK LINK ===
    0x1a7d
=== CODE BLOCK END ===

=== CODE BLOCK ADDRESS 0x1a7d ===
  0x1a7d	int3   	
  0x1a7e	int3   	
  0x1a7f	int3   	
  0x1a80	dec    	eax
  0x1a81	mov    	dword ptr [esp + 8], ebx
  === BLOCK LINK ===
    0x1a85
=== CODE BLOCK END ===

=== CODE BLOCK ADDRESS 0x1a85 ===
  0x1a85	dec    	eax
  0x1a86	mov    	dword ptr [esp + 0x10], esi
  0x1a8a	push   	edi
  0x1a8b	dec    	eax
  0x1a8c	sub    	esp, 0x30
  === BLOCK LINK ===
    0x1a8f
=== CODE BLOCK END ===

=== CODE BLOCK ADDRESS 0x1a8f ===
  0x1a8f	dec    	eax
  0x1a90	mov    	edx, dword ptr [ecx + 0x18]
  0x1a93	dec    	eax
  0x1a94	mov    	ebx, ecx
  0x1a96	dec    	eax
  === BLOCK LINK ===
    0x1a97
=== CODE BLOCK END ===

=== CODE BLOCK ADDRESS 0x1a97 ===
  0x1a97	mov    	ecx, dword ptr [ecx + 0x10]
  0x1a9a	dec    	eax
  0x1a9b	call   	dword ptr [0x2857]
  === BLOCK LINK ===
    0x1aa1
=== CODE BLOCK END ===

=== CODE BLOCK ADDRESS 0x1aa1 ===
  0x1aa1	nop    	dword ptr [eax + eax]
  0x1aa6	xor    	esi, esi
  0x1aa8	dec    	eax
  0x1aa9	test   	eax, eax
  0x1aab	je     	0x1ace
  === BLOCK LINK ===
    0x1aad
=== CODE BLOCK END ===

=== CODE BLOCK ADDRESS 0x1aad ===
  0x1aad	dec    	eax
  0x1aae	mov    	ecx, dword ptr [ebx + 8]
  0x1ab1	lea    	edx, [esi + 0x69]
  0x1ab4	dec    	esp
  0x1ab5	mov    	ecx, eax
  === BLOCK LINK ===
    0x1ab7
=== CODE BLOCK END ===

=== CODE BLOCK ADDRESS 0x1ab7 ===
  0x1ab7	dec    	eax
  0x1ab8	mov    	dword ptr [esp + 0x20], esi
  0x1abc	inc    	ecx
  0x1abd	mov    	eax, 0x170
  0x1ac2	dec    	eax
  === BLOCK LINK ===
    0x1ac3
=== CODE BLOCK END ===

=== CODE BLOCK ADDRESS 0x1ac3 ===
  0x1ac3	call   	dword ptr [0x2837]
  === BLOCK LINK ===
    0x1ac9
=== CODE BLOCK END ===

=== CODE BLOCK ADDRESS 0x1ac9 ===
  0x1ac9	nop    	dword ptr [eax + eax]
  0x1ace	dec    	eax
  0x1acf	mov    	ecx, dword ptr [ebx + 8]
  0x1ad2	mov    	edx, 0x6a
  0x1ad7	dec    	eax
  === BLOCK LINK ===
    0x1ad8
=== CODE BLOCK END ===

=== CODE BLOCK ADDRESS 0x1ad8 ===
  0x1ad8	call   	dword ptr [0x280a]
  === BLOCK LINK ===
    0x1ade
=== CODE BLOCK END ===

=== CODE BLOCK ADDRESS 0x1ade ===
  0x1ade	nop    	dword ptr [eax + eax]
  0x1ae3	dec    	eax
  0x1ae4	mov    	edx, dword ptr [ebx + 0x20]
  0x1ae7	dec    	eax
  0x1ae8	mov    	ecx, eax
  === BLOCK LINK ===
    0x1aea
=== CODE BLOCK END ===

=== CODE BLOCK ADDRESS 0x1aea ===
  0x1aea	dec    	eax
  0x1aeb	call   	dword ptr [0x282f]
  === BLOCK LINK ===
    0x1af1
=== CODE BLOCK END ===

=== CODE BLOCK ADDRESS 0x1af1 ===
  0x1af1	nop    	dword ptr [eax + eax]
  0x1af6	dec    	eax
  0x1af7	mov    	ecx, dword ptr [ebx + 8]
  0x1afa	cmp    	word ptr [ebx + 0x28], si
  0x1afe	je     	0x1b29
  === BLOCK LINK ===
    0x1b00
=== CODE BLOCK END ===

=== CODE BLOCK ADDRESS 0x1b00 ===
  0x1b00	mov    	edx, 0x68
  0x1b05	dec    	eax
  0x1b06	call   	dword ptr [0x27dc]
  === BLOCK LINK ===
    0x1b0c
=== CODE BLOCK END ===

=== CODE BLOCK ADDRESS 0x1b0c ===
  0x1b0c	nop    	dword ptr [eax + eax]
  0x1b11	dec    	eax
  0x1b12	mov    	ecx, eax
  0x1b14	dec    	eax
  0x1b15	lea    	edx, [ebx + 0x28]
  === BLOCK LINK ===
    0x1b18
=== CODE BLOCK END ===

=== CODE BLOCK ADDRESS 0x1b18 ===
  0x1b18	dec    	eax
  0x1b19	call   	dword ptr [0x2801]
  === BLOCK LINK ===
    0x1b1f
=== CODE BLOCK END ===

=== CODE BLOCK ADDRESS 0x1b1f ===
  0x1b1f	nop    	dword ptr [eax + eax]
  0x1b24	jmp    	0x1bb8
  === BLOCK LINK ===
    0x1b29
=== CODE BLOCK END ===

=== CODE BLOCK ADDRESS 0x1b29 ===
  0x1b29	mov    	edi, 0x6c
  0x1b2e	mov    	edx, edi
  0x1b30	dec    	eax
  0x1b31	call   	dword ptr [0x27b1]
  === BLOCK LINK ===
    0x1b37
=== CODE BLOCK END ===

=== CODE BLOCK ADDRESS 0x1b37 ===
  0x1b37	nop    	dword ptr [eax + eax]
  0x1b3c	dec    	eax
  0x1b3d	mov    	ecx, eax
  0x1b3f	xor    	edx, edx
  0x1b41	dec    	eax
  === BLOCK LINK ===
    0x1b42
=== CODE BLOCK END ===

=== CODE BLOCK ADDRESS 0x1b42 ===
  0x1b42	call   	dword ptr [0x27e0]
  === BLOCK LINK ===
    0x1b48
=== CODE BLOCK END ===

=== CODE BLOCK ADDRESS 0x1b48 ===
  0x1b48	nop    	dword ptr [eax + eax]
  0x1b4d	dec    	eax
  0x1b4e	mov    	ecx, dword ptr [ebx + 8]
  0x1b51	lea    	edx, [edi - 4]
  0x1b54	dec    	eax
  === BLOCK LINK ===
    0x1b55
=== CODE BLOCK END ===

=== CODE BLOCK ADDRESS 0x1b55 ===
  0x1b55	call   	dword ptr [0x278d]
  === BLOCK LINK ===
    0x1b5b
=== CODE BLOCK END ===

=== CODE BLOCK ADDRESS 0x1b5b ===
  0x1b5b	nop    	dword ptr [eax + eax]
  0x1b60	dec    	eax
  0x1b61	mov    	ecx, eax
  0x1b63	xor    	edx, edx
  0x1b65	dec    	eax
  === BLOCK LINK ===
    0x1b66
=== CODE BLOCK END ===

=== CODE BLOCK ADDRESS 0x1b66 ===
  0x1b66	call   	dword ptr [0x27bc]
  === BLOCK LINK ===
    0x1b6c
=== CODE BLOCK END ===

=== CODE BLOCK ADDRESS 0x1b6c ===
  0x1b6c	nop    	dword ptr [eax + eax]
  0x1b71	dec    	eax
  0x1b72	mov    	ecx, dword ptr [ebx + 8]
  0x1b75	mov    	edx, edi
  0x1b77	dec    	eax
  === BLOCK LINK ===
    0x1b78
=== CODE BLOCK END ===

=== CODE BLOCK ADDRESS 0x1b78 ===
  0x1b78	call   	dword ptr [0x276a]
  === BLOCK LINK ===
    0x1b7e
=== CODE BLOCK END ===

=== CODE BLOCK ADDRESS 0x1b7e ===
  0x1b7e	nop    	dword ptr [eax + eax]
  0x1b83	dec    	eax
  0x1b84	mov    	ecx, eax
  0x1b86	xor    	edx, edx
  0x1b88	dec    	eax
  === BLOCK LINK ===
    0x1b89
=== CODE BLOCK END ===

=== CODE BLOCK ADDRESS 0x1b89 ===
  0x1b89	call   	dword ptr [0x2779]
  === BLOCK LINK ===
    0x1b8f
=== CODE BLOCK END ===

=== CODE BLOCK ADDRESS 0x1b8f ===
  0x1b8f	nop    	dword ptr [eax + eax]
  0x1b94	dec    	eax
  0x1b95	mov    	ecx, dword ptr [ebx + 8]
  0x1b98	lea    	edx, [edi - 4]
  0x1b9b	dec    	eax
  === BLOCK LINK ===
    0x1b9c
=== CODE BLOCK END ===

=== CODE BLOCK ADDRESS 0x1b9c ===
  0x1b9c	call   	dword ptr [0x2746]
  === BLOCK LINK ===
    0x1ba2
=== CODE BLOCK END ===

=== CODE BLOCK ADDRESS 0x1ba2 ===
  0x1ba2	nop    	dword ptr [eax + eax]
  0x1ba7	dec    	eax
  0x1ba8	mov    	ecx, eax
  0x1baa	xor    	edx, edx
  0x1bac	dec    	eax
  === BLOCK LINK ===
    0x1bad
=== CODE BLOCK END ===

=== CODE BLOCK ADDRESS 0x1bad ===
  0x1bad	call   	dword ptr [0x2755]
  === BLOCK LINK ===
    0x1bb3
=== CODE BLOCK END ===

=== CODE BLOCK ADDRESS 0x1bb3 ===
  0x1bb3	nop    	dword ptr [eax + eax]
  0x1bb8	dec    	esp
  0x1bb9	mov    	ecx, dword ptr [ebx + 0x270]
  0x1bbf	dec    	ebp
  0x1bc0	test   	ecx, ecx
  === BLOCK LINK ===
    0x1bc2
=== CODE BLOCK END ===

=== CODE BLOCK ADDRESS 0x1bc2 ===
  0x1bc2	je     	0x1bdb
  === BLOCK LINK ===
    0x1bc4
=== CODE BLOCK END ===

=== CODE BLOCK ADDRESS 0x1bc4 ===
  0x1bc4	dec    	eax
  0x1bc5	mov    	ecx, dword ptr [ebx + 8]
  0x1bc8	inc    	ebp
  0x1bc9	xor    	eax, eax
  0x1bcb	inc    	ecx
  === BLOCK LINK ===
    0x1bcc
=== CODE BLOCK END ===

=== CODE BLOCK ADDRESS 0x1bcc ===
  0x1bcc	lea    	edx, [eax + 0xc]
  0x1bcf	dec    	eax
  0x1bd0	call   	dword ptr [0x273a]
  === BLOCK LINK ===
    0x1bd6
=== CODE BLOCK END ===

=== CODE BLOCK ADDRESS 0x1bd6 ===
  0x1bd6	nop    	dword ptr [eax + eax]
  0x1bdb	dec    	eax
  0x1bdc	mov    	ebx, dword ptr [esp + 0x40]
  0x1be0	xor    	eax, eax
  0x1be2	dec    	eax
  === BLOCK LINK ===
    0x1be3
=== CODE BLOCK END ===

=== CODE BLOCK ADDRESS 0x1be3 ===
  0x1be3	mov    	esi, dword ptr [esp + 0x48]
  0x1be7	dec    	eax
  0x1be8	add    	esp, 0x30
  0x1beb	pop    	edi
  0x1bec	ret    	
  === BLOCK LINK ===
    0x1bed
=== CODE BLOCK END ===

=== CODE BLOCK ADDRESS 0x1136 ===
=== CODE BLOCK END ===

=== CODE BLOCK ADDRESS 0x1bed ===
  0x1bed	int3   	
  0x1bee	int3   	
  0x1bef	int3   	
  0x1bf0	int3   	
  0x1bf1	int3   	
  === BLOCK LINK ===
    0x1bf2
=== CODE BLOCK END ===

=== CODE BLOCK ADDRESS 0x1bf2 ===
  0x1bf2	int3   	
  0x1bf3	int3   	
  0x1bf4	int3   	
  0x1bf5	int3   	
  0x1bf6	int3   	
  === BLOCK LINK ===
    0x1bf7
=== CODE BLOCK END ===

=== CODE BLOCK ADDRESS 0x1bf7 ===
  0x1bf7	int3   	
  0x1bf8	int3   	
  0x1bf9	int3   	
  0x1bfa	int3   	
  0x1bfb	int3   	
  === BLOCK LINK ===
    0x1bfc
=== CODE BLOCK END ===

=== CODE BLOCK ADDRESS 0x1bfc ===
  0x1bfc	int3   	
  0x1bfd	int3   	
  0x1bfe	int3   	
  0x1bff	int3   	
  0x1c00	inc    	eax
  === BLOCK LINK ===
    0x1c01
=== CODE BLOCK END ===

=== CODE BLOCK ADDRESS 0x1c01 ===
  0x1c01	push   	ebx
  0x1c02	dec    	eax
  0x1c03	sub    	esp, 0x20
  0x1c06	xor    	bl, bl
  0x1c08	cmp    	dx, 2
  === BLOCK LINK ===
    0x1c0c
=== CODE BLOCK END ===

=== CODE BLOCK ADDRESS 0x1c0c ===
  0x1c0c	je     	0x1c12
  === BLOCK LINK ===
    0x1c0e
=== CODE BLOCK END ===

=== CODE BLOCK ADDRESS 0x1c0e ===
  0x1c0e	mov    	bl, 1
  0x1c10	jmp    	0x1c24
  === BLOCK LINK ===
    0x1c12
=== CODE BLOCK END ===

=== CODE BLOCK ADDRESS 0x1c12 ===
  0x1c12	dec    	eax
  0x1c13	mov    	ecx, dword ptr [ecx + 8]
  0x1c16	xor    	edx, edx
  0x1c18	dec    	eax
  0x1c19	call   	dword ptr [0x26c1]
  === BLOCK LINK ===
    0x1c1f
=== CODE BLOCK END ===

=== CODE BLOCK ADDRESS 0x1c1f ===
  0x1c1f	nop    	dword ptr [eax + eax]
  0x1c24	mov    	al, bl
  0x1c26	dec    	eax
  0x1c27	add    	esp, 0x20
  0x1c2a	pop    	ebx
  === BLOCK LINK ===
    0x1c2b
=== CODE BLOCK END ===

=== CODE BLOCK ADDRESS 0x1c2b ===
  0x1c2b	ret    	
  0x1c2c	int3   	
  0x1c2d	int3   	
  0x1c2e	int3   	
  0x1c2f	int3   	
  === BLOCK LINK ===
    0x1c30
=== CODE BLOCK END ===

=== CODE BLOCK ADDRESS 0x1c30 ===
  0x1c30	int3   	
  0x1c31	int3   	
  0x1c32	int3   	
  0x1c33	int3   	
  0x1c34	int3   	
  === BLOCK LINK ===
    0x1c35
=== CODE BLOCK END ===

=== CODE BLOCK ADDRESS 0x1c35 ===
  0x1c35	int3   	
  0x1c36	int3   	
  0x1c37	int3   	
  0x1c38	int3   	
  0x1c39	int3   	
  === BLOCK LINK ===
    0x1c3a
=== CODE BLOCK END ===

=== CODE BLOCK ADDRESS 0x1c3a ===
  0x1c3a	int3   	
  0x1c3b	int3   	
  0x1c3c	int3   	
  0x1c3d	int3   	
  0x1c3e	int3   	
  === BLOCK LINK ===
    0x1c3f
=== CODE BLOCK END ===

=== CODE BLOCK ADDRESS 0x1c3f ===
  0x1c3f	int3   	
  0x1c40	dec    	eax
  0x1c41	mov    	dword ptr [esp + 8], ebx
  0x1c45	push   	edi
  0x1c46	dec    	eax
  === BLOCK LINK ===
    0x1c47
=== CODE BLOCK END ===

=== CODE BLOCK ADDRESS 0x1c47 ===
  0x1c47	sub    	esp, 0x20
  0x1c4a	dec    	eax
  0x1c4b	lea    	eax, [0x2417]
  0x1c51	dec    	eax
  0x1c52	mov    	edi, ecx
  === BLOCK LINK ===
    0x1c54
=== CODE BLOCK END ===

=== CODE BLOCK ADDRESS 0x1c54 ===
  0x1c54	dec    	eax
  0x1c55	mov    	dword ptr [ecx], eax
  0x1c57	mov    	ebx, edx
  0x1c59	dec    	eax
  0x1c5a	mov    	ecx, dword ptr [ecx + 0x20]
  === BLOCK LINK ===
    0x1c5d
=== CODE BLOCK END ===

=== CODE BLOCK ADDRESS 0x1c5d ===
  0x1c5d	call   	0x2754
  === BLOCK LINK ===
    0x1c62
=== CODE BLOCK END ===

=== CODE BLOCK ADDRESS 0x1c62 ===
  0x1c62	dec    	eax
  0x1c63	mov    	ecx, dword ptr [edi + 0x270]
  0x1c69	call   	0x2754
  === BLOCK LINK ===
    0x1c6e
=== CODE BLOCK END ===

=== CODE BLOCK ADDRESS 0x1c6e ===
  0x1c6e	dec    	eax
  0x1c6f	lea    	eax, [0x239b]
  0x1c75	dec    	eax
  0x1c76	mov    	dword ptr [edi], eax
  0x1c78	test   	bl, 1
  === BLOCK LINK ===
    0x1c7b
=== CODE BLOCK END ===

=== CODE BLOCK ADDRESS 0x1c7b ===
  0x1c7b	je     	0x1c85
  === BLOCK LINK ===
    0x1c7d
=== CODE BLOCK END ===

=== CODE BLOCK ADDRESS 0x1c7d ===
  0x1c7d	dec    	eax
  0x1c7e	mov    	ecx, edi
  0x1c80	call   	0x2754
  === BLOCK LINK ===
    0x1c85
=== CODE BLOCK END ===

=== CODE BLOCK ADDRESS 0x1c85 ===
  0x1c85	dec    	eax
  0x1c86	mov    	ebx, dword ptr [esp + 0x30]
  0x1c8a	dec    	eax
  0x1c8b	mov    	eax, edi
  0x1c8d	dec    	eax
  === BLOCK LINK ===
    0x1c8e
=== CODE BLOCK END ===

=== CODE BLOCK ADDRESS 0x1c8e ===
  0x1c8e	add    	esp, 0x20
  0x1c91	pop    	edi
  0x1c92	ret    	
  0x1c93	int3   	
  0x1c94	int3   	
  === BLOCK LINK ===
    0x1c95
=== CODE BLOCK END ===

=== CODE BLOCK ADDRESS 0x1c95 ===
  0x1c95	int3   	
  0x1c96	int3   	
  0x1c97	int3   	
  0x1c98	int3   	
  0x1c99	int3   	
  === BLOCK LINK ===
    0x1c9a
=== CODE BLOCK END ===

=== CODE BLOCK ADDRESS 0x1c9a ===
  0x1c9a	int3   	
  0x1c9b	int3   	
  0x1c9c	dec    	eax
  0x1c9d	mov    	eax, esp
  0x1c9f	dec    	eax
  === BLOCK LINK ===
    0x1ca0
=== CODE BLOCK END ===

=== CODE BLOCK ADDRESS 0x1ca0 ===
  0x1ca0	mov    	dword ptr [eax + 0x10], ebx
  0x1ca3	dec    	eax
  0x1ca4	mov    	dword ptr [eax + 0x18], esi
  0x1ca7	dec    	eax
  0x1ca8	mov    	dword ptr [eax + 0x20], edi
  === BLOCK LINK ===
    0x1cab
=== CODE BLOCK END ===

=== CODE BLOCK ADDRESS 0x1cab ===
  0x1cab	push   	ebp
  0x1cac	inc    	ecx
  0x1cad	push   	esp
  0x1cae	inc    	ecx
  0x1caf	push   	ebp
  === BLOCK LINK ===
    0x1cb0
=== CODE BLOCK END ===

=== CODE BLOCK ADDRESS 0x1cb0 ===
  0x1cb0	inc    	ecx
  0x1cb1	push   	esi
  0x1cb2	inc    	ecx
  0x1cb3	push   	edi
  0x1cb4	dec    	eax
  === BLOCK LINK ===
    0x1cb5
=== CODE BLOCK END ===

=== CODE BLOCK ADDRESS 0x1cb5 ===
  0x1cb5	lea    	ebp, [eax - 0x458]
  0x1cbb	dec    	eax
  0x1cbc	sub    	esp, 0x530
  0x1cc2	dec    	eax
  0x1cc3	mov    	eax, dword ptr [0x433f]
  === BLOCK LINK ===
    0x1cc9
=== CODE BLOCK END ===

=== CODE BLOCK ADDRESS 0x1cc9 ===
  0x1cc9	dec    	eax
  0x1cca	xor    	eax, esp
  0x1ccc	dec    	eax
  0x1ccd	mov    	dword ptr [ebp + 0x420], eax
  0x1cd3	inc    	ebp
  === BLOCK LINK ===
    0x1cd4
=== CODE BLOCK END ===

=== CODE BLOCK ADDRESS 0x1cd4 ===
  0x1cd4	xor    	ecx, ecx
  0x1cd6	mov    	dword ptr [esp + 0x58], ecx
  0x1cda	inc    	ebp
  0x1cdb	xor    	eax, eax
  0x1cdd	xor    	ecx, ecx
  === BLOCK LINK ===
    0x1cdf
=== CODE BLOCK END ===

=== CODE BLOCK ADDRESS 0x1cdf ===
  0x1cdf	inc    	ecx
  0x1ce0	lea    	ebx, [ecx + 1]
  0x1ce3	mov    	edx, ebx
  0x1ce5	dec    	eax
  0x1ce6	call   	dword ptr [0x250c]
  === BLOCK LINK ===
    0x1cec
=== CODE BLOCK END ===

=== CODE BLOCK ADDRESS 0x1cec ===
  0x1cec	nop    	dword ptr [eax + eax]
  0x1cf1	xor    	edx, edx
  0x1cf3	dec    	eax
  0x1cf4	lea    	ecx, [ebp + 0x210]
  0x1cfa	inc    	ecx
  === BLOCK LINK ===
    0x1cfb
=== CODE BLOCK END ===

=== CODE BLOCK ADDRESS 0x1cfb ===
  0x1cfb	mov    	eax, 0x20a
  0x1d00	call   	0x3096
  === BLOCK LINK ===
    0x1d05
=== CODE BLOCK END ===

=== CODE BLOCK ADDRESS 0x1d05 ===
  0x1d05	mov    	edx, 0x104
  0x1d0a	dec    	eax
  0x1d0b	lea    	ecx, [ebp + 0x210]
  0x1d11	dec    	eax
  0x1d12	call   	dword ptr [0x24e8]
  === BLOCK LINK ===
    0x1d18
=== CODE BLOCK END ===

=== CODE BLOCK ADDRESS 0x1d18 ===
  0x1d18	nop    	dword ptr [eax + eax]
  0x1d1d	mov    	edx, eax
  0x1d1f	lea    	eax, [edx - 1]
  0x1d22	cmp    	eax, 0x102
  0x1d27	ja     	0x270e
  === BLOCK LINK ===
    0x1d2d
=== CODE BLOCK END ===

=== CODE BLOCK ADDRESS 0x1d2d ===
  0x1d2d	lea    	eax, [edx - 1]
  0x1d30	inc    	esp
  0x1d31	lea    	eax, [ebx + 0x5b]
  0x1d34	inc    	sp
  0x1d36	cmp    	dword ptr [ebp + eax*2 + 0x210], eax
  === BLOCK LINK ===
    0x1d3d
=== CODE BLOCK END ===

=== CODE BLOCK ADDRESS 0x1d3d ===
  0x1d3d	je     	0x1d48
  === BLOCK LINK ===
    0x1d3f
=== CODE BLOCK END ===

=== CODE BLOCK ADDRESS 0x1d3f ===
  0x1d3f	inc    	sp
  0x1d41	mov    	dword ptr [ebp + edx*2 + 0x210], eax
  0x1d48	xor    	eax, eax
  0x1d4a	xor    	esi, esi
  0x1d4c	dec    	eax
  === BLOCK LINK ===
    0x1d4d
=== CODE BLOCK END ===

=== CODE BLOCK ADDRESS 0x1d4d ===
  0x1d4d	mov    	dword ptr [esp + 0x60], esi
  0x1d51	inc    	ebp
  0x1d52	xor    	ebp, ebp
  0x1d54	dec    	eax
  0x1d55	mov    	dword ptr [esp + 0x68], eax
  === BLOCK LINK ===
    0x1d59
=== CODE BLOCK END ===

=== CODE BLOCK ADDRESS 0x1d59 ===
  0x1d59	inc    	ebp
  0x1d5a	xor    	esi, esi
  0x1d5c	inc    	ebp
  0x1d5d	xor    	esp, esp
  0x1d5f	dec    	eax
  === BLOCK LINK ===
    0x1d60
=== CODE BLOCK END ===

=== CODE BLOCK ADDRESS 0x1d60 ===
  0x1d60	call   	dword ptr [0x24a2]
  === BLOCK LINK ===
    0x1d66
=== CODE BLOCK END ===

=== CODE BLOCK ADDRESS 0x1d66 ===
  0x1d66	nop    	dword ptr [eax + eax]
  0x1d6b	dec    	eax
  0x1d6c	mov    	ecx, eax
  0x1d6e	dec    	eax
  0x1d6f	lea    	edx, [esp + 0x58]
  === BLOCK LINK ===
    0x1d73
=== CODE BLOCK END ===

=== CODE BLOCK ADDRESS 0x1d73 ===
  0x1d73	dec    	eax
  0x1d74	call   	dword ptr [0x2526]
  === BLOCK LINK ===
    0x1d7a
=== CODE BLOCK END ===

=== CODE BLOCK ADDRESS 0x1d7a ===
  0x1d7a	nop    	dword ptr [eax + eax]
  0x1d7f	dec    	eax
  0x1d80	mov    	edi, eax
  0x1d82	dec    	eax
  0x1d83	test   	eax, eax
  === BLOCK LINK ===
    0x1d85
=== CODE BLOCK END ===

=== CODE BLOCK ADDRESS 0x1d85 ===
  0x1d85	je     	0x2700
  === BLOCK LINK ===
    0x1d8b
=== CODE BLOCK END ===

=== CODE BLOCK ADDRESS 0x1d8b ===
  0x1d8b	mov    	eax, dword ptr [esp + 0x58]
  0x1d8f	xor    	edx, edx
  0x1d91	test   	eax, eax
  0x1d93	jle    	0x1dab
  === BLOCK LINK ===
    0x1d95
=== CODE BLOCK END ===

=== CODE BLOCK ADDRESS 0x1d95 ===
  0x1d95	dec    	eax
  0x1d96	mov    	ecx, edi
  0x1d98	dec    	eax
  0x1d99	cmp    	dword ptr [ecx], esi
  0x1d9b	je     	0x2700
  === BLOCK LINK ===
    0x1da1
=== CODE BLOCK END ===

=== CODE BLOCK ADDRESS 0x1da1 ===
  0x1da1	add    	edx, ebx
  0x1da3	dec    	eax
  0x1da4	add    	ecx, 8
  0x1da7	cmp    	edx, eax
  0x1da9	jl     	0x1d98
  === BLOCK LINK ===
    0x1dab
=== CODE BLOCK END ===

=== CODE BLOCK ADDRESS 0x1dab ===
  0x1dab	cmp    	eax, 2
  0x1dae	jne    	0x1e1e
  === BLOCK LINK ===
    0x1db0
=== CODE BLOCK END ===

=== CODE BLOCK ADDRESS 0x1db0 ===
  0x1db0	dec    	eax
  0x1db1	lea    	ecx, [0x2741]
  0x1db7	dec    	eax
  0x1db8	call   	dword ptr [0x2452]
  === BLOCK LINK ===
    0x1dbe
=== CODE BLOCK END ===

=== CODE BLOCK ADDRESS 0x1dbe ===
  0x1dbe	nop    	dword ptr [eax + eax]
  0x1dc3	dec    	eax
  0x1dc4	mov    	ecx, dword ptr [edi + 8]
  0x1dc7	dec    	eax
  0x1dc8	lea    	edx, [0x272a]
  === BLOCK LINK ===
    0x1dce
=== CODE BLOCK END ===

=== CODE BLOCK ADDRESS 0x1dce ===
  0x1dce	inc    	esp
  0x1dcf	mov    	eax, eax
  0x1dd1	dec    	eax
  0x1dd2	call   	dword ptr [0x24d8]
  === BLOCK LINK ===
    0x1dd8
=== CODE BLOCK END ===

=== CODE BLOCK ADDRESS 0x1dd8 ===
  0x1dd8	nop    	dword ptr [eax + eax]
  0x1ddd	test   	eax, eax
  0x1ddf	je     	0x2127
  === BLOCK LINK ===
    0x1de5
=== CODE BLOCK END ===

=== CODE BLOCK ADDRESS 0x1de5 ===
  0x1de5	dec    	eax
  0x1de6	lea    	ecx, [0x26cc]
  0x1dec	dec    	eax
  0x1ded	call   	dword ptr [0x241d]
  === BLOCK LINK ===
    0x1df3
=== CODE BLOCK END ===

=== CODE BLOCK ADDRESS 0x1df3 ===
  0x1df3	nop    	dword ptr [eax + eax]
  0x1df8	dec    	eax
  0x1df9	mov    	ecx, dword ptr [edi + 8]
  0x1dfc	dec    	eax
  0x1dfd	lea    	edx, [0x26b5]
  === BLOCK LINK ===
    0x1e03
=== CODE BLOCK END ===

=== CODE BLOCK ADDRESS 0x1e03 ===
  0x1e03	inc    	esp
  0x1e04	mov    	eax, eax
  0x1e06	dec    	eax
  0x1e07	call   	dword ptr [0x24a3]
  === BLOCK LINK ===
    0x1e0d
=== CODE BLOCK END ===

=== CODE BLOCK ADDRESS 0x1e0d ===
  0x1e0d	nop    	dword ptr [eax + eax]
  0x1e12	test   	eax, eax
  0x1e14	je     	0x2127
  === BLOCK LINK ===
    0x1e1a
=== CODE BLOCK END ===

=== CODE BLOCK ADDRESS 0x1e1a ===
  0x1e1a	mov    	eax, dword ptr [esp + 0x58]
  0x1e1e	inc    	ebp
  0x1e1f	xor    	edi, edi
  0x1e21	mov    	dword ptr [esp + 0x50], ebx
  0x1e25	cmp    	eax, ebx
  === BLOCK LINK ===
    0x1e27
=== CODE BLOCK END ===

=== CODE BLOCK ADDRESS 0x1e27 ===
  0x1e27	jle    	0x221f
  === BLOCK LINK ===
    0x1e2d
=== CODE BLOCK END ===

=== CODE BLOCK ADDRESS 0x1e2d ===
  0x1e2d	dec    	eax
  0x1e2e	mov    	esi, ebx
  0x1e30	dec    	eax
  0x1e31	lea    	ecx, [0x26e1]
  0x1e37	dec    	eax
  === BLOCK LINK ===
    0x1e38
=== CODE BLOCK END ===

=== CODE BLOCK ADDRESS 0x1e38 ===
  0x1e38	call   	dword ptr [0x23d2]
  === BLOCK LINK ===
    0x1e3e
=== CODE BLOCK END ===

=== CODE BLOCK ADDRESS 0x1e3e ===
  0x1e3e	nop    	dword ptr [eax + eax]
  0x1e43	dec    	eax
  0x1e44	mov    	ecx, dword ptr [edi + esi*8]
  0x1e47	dec    	eax
  0x1e48	lea    	edx, [0x26ca]
  === BLOCK LINK ===
    0x1e4e
=== CODE BLOCK END ===

=== CODE BLOCK ADDRESS 0x1e4e ===
  0x1e4e	inc    	esp
  0x1e4f	mov    	eax, eax
  0x1e51	dec    	eax
  0x1e52	call   	dword ptr [0x2458]
  === BLOCK LINK ===
    0x1e58
=== CODE BLOCK END ===

=== CODE BLOCK ADDRESS 0x1e58 ===
  0x1e58	nop    	dword ptr [eax + eax]
  0x1e5d	test   	eax, eax
  0x1e5f	je     	0x21c4
  === BLOCK LINK ===
    0x1e65
=== CODE BLOCK END ===

=== CODE BLOCK ADDRESS 0x1e65 ===
  0x1e65	dec    	eax
  0x1e66	lea    	ecx, [0x266c]
  0x1e6c	dec    	eax
  0x1e6d	call   	dword ptr [0x239d]
  === BLOCK LINK ===
    0x1e73
=== CODE BLOCK END ===

=== CODE BLOCK ADDRESS 0x1e73 ===
  0x1e73	nop    	dword ptr [eax + eax]
  0x1e78	dec    	eax
  0x1e79	mov    	ecx, dword ptr [edi + esi*8]
  0x1e7c	dec    	eax
  0x1e7d	lea    	edx, [0x2655]
  === BLOCK LINK ===
    0x1e83
=== CODE BLOCK END ===

=== CODE BLOCK ADDRESS 0x1e83 ===
  0x1e83	inc    	esp
  0x1e84	mov    	eax, eax
  0x1e86	dec    	eax
  0x1e87	call   	dword ptr [0x2423]
  === BLOCK LINK ===
    0x1e8d
=== CODE BLOCK END ===

=== CODE BLOCK ADDRESS 0x1e8d ===
  0x1e8d	nop    	dword ptr [eax + eax]
  0x1e92	test   	eax, eax
  0x1e94	jne    	0x1ec3
  === BLOCK LINK ===
    0x1e96
=== CODE BLOCK END ===

=== CODE BLOCK ADDRESS 0x1e96 ===
  0x1e96	dec    	eax
  0x1e97	mov    	ecx, dword ptr [edi + esi*8]
  0x1e9a	dec    	eax
  0x1e9b	call   	dword ptr [0x236f]
  === BLOCK LINK ===
    0x1ea1
=== CODE BLOCK END ===

=== CODE BLOCK ADDRESS 0x1ea1 ===
  0x1ea1	nop    	dword ptr [eax + eax]
  0x1ea6	dec    	eax
  0x1ea7	lea    	ecx, [0x266b]
  0x1ead	mov    	ebx, eax
  0x1eaf	dec    	eax
  === BLOCK LINK ===
    0x1eb0
=== CODE BLOCK END ===

=== CODE BLOCK ADDRESS 0x1eb0 ===
  0x1eb0	call   	dword ptr [0x235a]
  === BLOCK LINK ===
    0x1eb6
=== CODE BLOCK END ===

=== CODE BLOCK ADDRESS 0x1eb6 ===
  0x1eb6	nop    	dword ptr [eax + eax]
  0x1ebb	cmp    	eax, ebx
  0x1ebd	jl     	0x21c0
  === BLOCK LINK ===
    0x1ec3
=== CODE BLOCK END ===

=== CODE BLOCK ADDRESS 0x1ec3 ===
  0x1ec3	dec    	eax
  0x1ec4	lea    	ecx, [0x2646]
  0x1eca	dec    	eax
  0x1ecb	call   	dword ptr [0x233f]
  === BLOCK LINK ===
    0x1ed1
=== CODE BLOCK END ===

=== CODE BLOCK ADDRESS 0x1ed1 ===
  0x1ed1	nop    	dword ptr [eax + eax]
  0x1ed6	dec    	eax
  0x1ed7	mov    	ecx, dword ptr [edi + esi*8]
  0x1eda	dec    	eax
  0x1edb	lea    	edx, [0x262f]
  === BLOCK LINK ===
    0x1ee1
=== CODE BLOCK END ===

=== CODE BLOCK ADDRESS 0x1ee1 ===
  0x1ee1	inc    	esp
  0x1ee2	mov    	eax, eax
  0x1ee4	dec    	eax
  0x1ee5	call   	dword ptr [0x23c5]
  === BLOCK LINK ===
    0x1eeb
=== CODE BLOCK END ===

=== CODE BLOCK ADDRESS 0x1eeb ===
  0x1eeb	nop    	dword ptr [eax + eax]
  0x1ef0	test   	eax, eax
  0x1ef2	je     	0x21a0
  === BLOCK LINK ===
    0x1ef8
=== CODE BLOCK END ===

=== CODE BLOCK ADDRESS 0x1ef8 ===
  0x1ef8	dec    	eax
  0x1ef9	lea    	ecx, [0x25d1]
  0x1eff	dec    	eax
  0x1f00	call   	dword ptr [0x230a]
  === BLOCK LINK ===
    0x1f06
=== CODE BLOCK END ===

=== CODE BLOCK ADDRESS 0x1f06 ===
  0x1f06	nop    	dword ptr [eax + eax]
  0x1f0b	dec    	eax
  0x1f0c	mov    	ecx, dword ptr [edi + esi*8]
  0x1f0f	dec    	eax
  0x1f10	lea    	edx, [0x25ba]
  === BLOCK LINK ===
    0x1f16
=== CODE BLOCK END ===

=== CODE BLOCK ADDRESS 0x1f16 ===
  0x1f16	inc    	esp
  0x1f17	mov    	eax, eax
  0x1f19	dec    	eax
  0x1f1a	call   	dword ptr [0x2390]
  === BLOCK LINK ===
    0x1f20
=== CODE BLOCK END ===

=== CODE BLOCK ADDRESS 0x1f20 ===
  0x1f20	nop    	dword ptr [eax + eax]
  0x1f25	test   	eax, eax
  0x1f27	jne    	0x1f56
  === BLOCK LINK ===
    0x1f29
=== CODE BLOCK END ===

=== CODE BLOCK ADDRESS 0x1f29 ===
  0x1f29	dec    	eax
  0x1f2a	mov    	ecx, dword ptr [edi + esi*8]
  0x1f2d	dec    	eax
  0x1f2e	call   	dword ptr [0x22dc]
  === BLOCK LINK ===
    0x1f34
=== CODE BLOCK END ===

=== CODE BLOCK ADDRESS 0x1f34 ===
  0x1f34	nop    	dword ptr [eax + eax]
  0x1f39	dec    	eax
  0x1f3a	lea    	ecx, [0x25d0]
  0x1f40	mov    	ebx, eax
  0x1f42	dec    	eax
  === BLOCK LINK ===
    0x1f43
=== CODE BLOCK END ===

=== CODE BLOCK ADDRESS 0x1f43 ===
  0x1f43	call   	dword ptr [0x22c7]
  === BLOCK LINK ===
    0x1f49
=== CODE BLOCK END ===

=== CODE BLOCK ADDRESS 0x1f49 ===
  0x1f49	nop    	dword ptr [eax + eax]
  0x1f4e	cmp    	eax, ebx
  0x1f50	jl     	0x21a0
  === BLOCK LINK ===
    0x1f56
=== CODE BLOCK END ===

=== CODE BLOCK ADDRESS 0x1f56 ===
  0x1f56	dec    	eax
  0x1f57	lea    	ecx, [0x25ab]
  0x1f5d	dec    	eax
  0x1f5e	call   	dword ptr [0x22ac]
  === BLOCK LINK ===
    0x1f64
=== CODE BLOCK END ===

=== CODE BLOCK ADDRESS 0x1f64 ===
  0x1f64	nop    	dword ptr [eax + eax]
  0x1f69	dec    	eax
  0x1f6a	mov    	ecx, dword ptr [edi + esi*8]
  0x1f6d	dec    	eax
  0x1f6e	lea    	edx, [0x2594]
  === BLOCK LINK ===
    0x1f74
=== CODE BLOCK END ===

=== CODE BLOCK ADDRESS 0x1f74 ===
  0x1f74	inc    	esp
  0x1f75	mov    	eax, eax
  0x1f77	dec    	eax
  0x1f78	call   	dword ptr [0x2332]
  === BLOCK LINK ===
    0x1f7e
=== CODE BLOCK END ===

=== CODE BLOCK ADDRESS 0x1f7e ===
  0x1f7e	nop    	dword ptr [eax + eax]
  0x1f83	test   	eax, eax
  0x1f85	je     	0x2180
  === BLOCK LINK ===
    0x1f8b
=== CODE BLOCK END ===

=== CODE BLOCK ADDRESS 0x1f8b ===
  0x1f8b	dec    	eax
  0x1f8c	lea    	ecx, [0x2536]
  0x1f92	dec    	eax
  0x1f93	call   	dword ptr [0x2277]
  === BLOCK LINK ===
    0x1f99
=== CODE BLOCK END ===

=== CODE BLOCK ADDRESS 0x1f99 ===
  0x1f99	nop    	dword ptr [eax + eax]
  0x1f9e	dec    	eax
  0x1f9f	mov    	ecx, dword ptr [edi + esi*8]
  0x1fa2	dec    	eax
  0x1fa3	lea    	edx, [0x251f]
  === BLOCK LINK ===
    0x1fa9
=== CODE BLOCK END ===

=== CODE BLOCK ADDRESS 0x1fa9 ===
  0x1fa9	inc    	esp
  0x1faa	mov    	eax, eax
  0x1fac	dec    	eax
  0x1fad	call   	dword ptr [0x22fd]
  === BLOCK LINK ===
    0x1fb3
=== CODE BLOCK END ===

=== CODE BLOCK ADDRESS 0x1fb3 ===
  0x1fb3	nop    	dword ptr [eax + eax]
  0x1fb8	test   	eax, eax
  0x1fba	jne    	0x1fe9
  === BLOCK LINK ===
    0x1fbc
=== CODE BLOCK END ===

=== CODE BLOCK ADDRESS 0x1fbc ===
  0x1fbc	dec    	eax
  0x1fbd	mov    	ecx, dword ptr [edi + esi*8]
  0x1fc0	dec    	eax
  0x1fc1	call   	dword ptr [0x2249]
  === BLOCK LINK ===
    0x1fc7
=== CODE BLOCK END ===

=== CODE BLOCK ADDRESS 0x1fc7 ===
  0x1fc7	nop    	dword ptr [eax + eax]
  0x1fcc	dec    	eax
  0x1fcd	lea    	ecx, [0x2535]
  0x1fd3	mov    	ebx, eax
  0x1fd5	dec    	eax
  === BLOCK LINK ===
    0x1fd6
=== CODE BLOCK END ===

=== CODE BLOCK ADDRESS 0x1fd6 ===
  0x1fd6	call   	dword ptr [0x2234]
  === BLOCK LINK ===
    0x1fdc
=== CODE BLOCK END ===

=== CODE BLOCK ADDRESS 0x1fdc ===
  0x1fdc	nop    	dword ptr [eax + eax]
  0x1fe1	cmp    	eax, ebx
  0x1fe3	jl     	0x2180
  === BLOCK LINK ===
    0x1fe9
=== CODE BLOCK END ===

=== CODE BLOCK ADDRESS 0x1fe9 ===
  0x1fe9	dec    	eax
  0x1fea	lea    	ecx, [0x2510]
  0x1ff0	dec    	eax
  0x1ff1	call   	dword ptr [0x2219]
  === BLOCK LINK ===
    0x1ff7
=== CODE BLOCK END ===

=== CODE BLOCK ADDRESS 0x1ff7 ===
  0x1ff7	nop    	dword ptr [eax + eax]
  0x1ffc	dec    	eax
  0x1ffd	mov    	ecx, dword ptr [edi + esi*8]
  0x2000	dec    	eax
  0x2001	lea    	edx, [0x24f9]
  === BLOCK LINK ===
    0x2007
=== CODE BLOCK END ===

=== CODE BLOCK ADDRESS 0x2007 ===
  0x2007	inc    	esp
  0x2008	mov    	eax, eax
  0x200a	dec    	eax
  0x200b	call   	dword ptr [0x229f]
  === BLOCK LINK ===
    0x2011
=== CODE BLOCK END ===

=== CODE BLOCK ADDRESS 0x2011 ===
  0x2011	nop    	dword ptr [eax + eax]
  0x2016	test   	eax, eax
  0x2018	je     	0x215d
  === BLOCK LINK ===
    0x201e
=== CODE BLOCK END ===

=== CODE BLOCK ADDRESS 0x201e ===
  0x201e	dec    	eax
  0x201f	lea    	ecx, [0x249b]
  0x2025	dec    	eax
  0x2026	call   	dword ptr [0x21e4]
  === BLOCK LINK ===
    0x202c
=== CODE BLOCK END ===

=== CODE BLOCK ADDRESS 0x202c ===
  0x202c	nop    	dword ptr [eax + eax]
  0x2031	dec    	eax
  0x2032	mov    	ecx, dword ptr [edi + esi*8]
  0x2035	dec    	eax
  0x2036	lea    	edx, [0x2484]
  === BLOCK LINK ===
    0x203c
=== CODE BLOCK END ===

=== CODE BLOCK ADDRESS 0x203c ===
  0x203c	inc    	esp
  0x203d	mov    	eax, eax
  0x203f	dec    	eax
  0x2040	call   	dword ptr [0x226a]
  === BLOCK LINK ===
    0x2046
=== CODE BLOCK END ===

=== CODE BLOCK ADDRESS 0x2046 ===
  0x2046	nop    	dword ptr [eax + eax]
  0x204b	test   	eax, eax
  0x204d	jne    	0x207c
  === BLOCK LINK ===
    0x204f
=== CODE BLOCK END ===

=== CODE BLOCK ADDRESS 0x204f ===
  0x204f	dec    	eax
  0x2050	mov    	ecx, dword ptr [edi + esi*8]
  0x2053	dec    	eax
  0x2054	call   	dword ptr [0x21b6]
  === BLOCK LINK ===
    0x205a
=== CODE BLOCK END ===

=== CODE BLOCK ADDRESS 0x205a ===
  0x205a	nop    	dword ptr [eax + eax]
  0x205f	dec    	eax
  0x2060	lea    	ecx, [0x249a]
  0x2066	mov    	ebx, eax
  0x2068	dec    	eax
  === BLOCK LINK ===
    0x2069
=== CODE BLOCK END ===

=== CODE BLOCK ADDRESS 0x2069 ===
  0x2069	call   	dword ptr [0x21a1]
  === BLOCK LINK ===
    0x206f
=== CODE BLOCK END ===

=== CODE BLOCK ADDRESS 0x206f ===
  0x206f	nop    	dword ptr [eax + eax]
  0x2074	cmp    	eax, ebx
  0x2076	jl     	0x215d
  === BLOCK LINK ===
    0x207c
=== CODE BLOCK END ===

=== CODE BLOCK ADDRESS 0x207c ===
  0x207c	dec    	eax
  0x207d	lea    	ecx, [0x249d]
  0x2083	dec    	eax
  0x2084	call   	dword ptr [0x2186]
  === BLOCK LINK ===
    0x208a
=== CODE BLOCK END ===

=== CODE BLOCK ADDRESS 0x208a ===
  0x208a	nop    	dword ptr [eax + eax]
  0x208f	dec    	eax
  0x2090	mov    	ecx, dword ptr [edi + esi*8]
  0x2093	dec    	eax
  0x2094	lea    	edx, [0x2486]
  === BLOCK LINK ===
    0x209a
=== CODE BLOCK END ===

=== CODE BLOCK ADDRESS 0x209a ===
  0x209a	inc    	esp
  0x209b	mov    	eax, eax
  0x209d	dec    	eax
  0x209e	call   	dword ptr [0x220c]
  === BLOCK LINK ===
    0x20a4
=== CODE BLOCK END ===

=== CODE BLOCK ADDRESS 0x20a4 ===
  0x20a4	nop    	dword ptr [eax + eax]
  0x20a9	test   	eax, eax
  0x20ab	je     	0x2131
  === BLOCK LINK ===
    0x20b1
=== CODE BLOCK END ===

=== CODE BLOCK ADDRESS 0x20b1 ===
  0x20b1	dec    	eax
  0x20b2	lea    	ecx, [0x2428]
  0x20b8	dec    	eax
  0x20b9	call   	dword ptr [0x2151]
  === BLOCK LINK ===
    0x20bf
=== CODE BLOCK END ===

=== CODE BLOCK ADDRESS 0x20bf ===
  0x20bf	nop    	dword ptr [eax + eax]
  0x20c4	dec    	eax
  0x20c5	mov    	ecx, dword ptr [edi + esi*8]
  0x20c8	dec    	eax
  0x20c9	lea    	edx, [0x2411]
  === BLOCK LINK ===
    0x20cf
=== CODE BLOCK END ===

=== CODE BLOCK ADDRESS 0x20cf ===
  0x20cf	inc    	esp
  0x20d0	mov    	eax, eax
  0x20d2	dec    	eax
  0x20d3	call   	dword ptr [0x21d7]
  === BLOCK LINK ===
    0x20d9
=== CODE BLOCK END ===

=== CODE BLOCK ADDRESS 0x20d9 ===
  0x20d9	nop    	dword ptr [eax + eax]
  0x20de	test   	eax, eax
  0x20e0	jne    	0x210b
  === BLOCK LINK ===
    0x20e2
=== CODE BLOCK END ===

=== CODE BLOCK ADDRESS 0x20e2 ===
  0x20e2	dec    	eax
  0x20e3	mov    	ecx, dword ptr [edi + esi*8]
  0x20e6	dec    	eax
  0x20e7	call   	dword ptr [0x2123]
  === BLOCK LINK ===
    0x20ed
=== CODE BLOCK END ===

=== CODE BLOCK ADDRESS 0x20ed ===
  0x20ed	nop    	dword ptr [eax + eax]
  0x20f2	dec    	eax
  0x20f3	lea    	ecx, [0x2427]
  0x20f9	mov    	ebx, eax
  0x20fb	dec    	eax
  === BLOCK LINK ===
    0x20fc
=== CODE BLOCK END ===

=== CODE BLOCK ADDRESS 0x20fc ===
  0x20fc	call   	dword ptr [0x210e]
  === BLOCK LINK ===
    0x2102
=== CODE BLOCK END ===

=== CODE BLOCK ADDRESS 0x2102 ===
  0x2102	nop    	dword ptr [eax + eax]
  0x2107	cmp    	eax, ebx
  0x2109	jl     	0x2131
  === BLOCK LINK ===
    0x210b
=== CODE BLOCK END ===

=== CODE BLOCK ADDRESS 0x210b ===
  0x210b	mov    	ebx, dword ptr [esp + 0x50]
  0x210f	dec    	eax
  0x2110	cmp    	esi, 1
  0x2113	jne    	0x21ea
  === BLOCK LINK ===
    0x2119
=== CODE BLOCK END ===

=== CODE BLOCK ADDRESS 0x2119 ===
  0x2119	dec    	eax
  0x211a	mov    	eax, dword ptr [edi + 8]
  0x211d	dec    	eax
  0x211e	mov    	dword ptr [esp + 0x60], eax
  0x2122	jmp    	0x21ea
  === BLOCK LINK ===
    0x2127
=== CODE BLOCK END ===

=== CODE BLOCK ADDRESS 0x2127 ===
  0x2127	call   	0x1510
  === BLOCK LINK ===
    0x212c
=== CODE BLOCK END ===

=== CODE BLOCK ADDRESS 0x212c ===
  0x212c	jmp    	0x2718
  === BLOCK LINK ===
    0x2131
=== CODE BLOCK END ===

=== CODE BLOCK ADDRESS 0x2131 ===
  0x2131	dec    	eax
  0x2132	lea    	ecx, [0x23a8]
  0x2138	dec    	eax
  0x2139	call   	dword ptr [0x20d1]
  === BLOCK LINK ===
    0x213f
=== CODE BLOCK END ===

=== CODE BLOCK ADDRESS 0x213f ===
  0x213f	nop    	dword ptr [eax + eax]
  0x2144	dec    	eax
  0x2145	arpl   	ax, cx
  0x2147	dec    	eax
  0x2148	mov    	eax, dword ptr [edi + esi*8]
  === BLOCK LINK ===
    0x214b
=== CODE BLOCK END ===

=== CODE BLOCK ADDRESS 0x214b ===
  0x214b	dec    	eax
  0x214c	lea    	eax, [eax + ecx*2]
  0x214f	dec    	eax
  0x2150	mov    	dword ptr [esp + 0x60], eax
  0x2154	mov    	ebx, dword ptr [esp + 0x50]
  === BLOCK LINK ===
    0x2158
=== CODE BLOCK END ===

=== CODE BLOCK ADDRESS 0x2158 ===
  0x2158	jmp    	0x21ea
  === BLOCK LINK ===
    0x215d
=== CODE BLOCK END ===

=== CODE BLOCK ADDRESS 0x215d ===
  0x215d	dec    	eax
  0x215e	lea    	ecx, [0x239c]
  0x2164	dec    	eax
  0x2165	call   	dword ptr [0x20a5]
  === BLOCK LINK ===
    0x216b
=== CODE BLOCK END ===

=== CODE BLOCK ADDRESS 0x216b ===
  0x216b	nop    	dword ptr [eax + eax]
  0x2170	dec    	eax
  0x2171	arpl   	ax, cx
  0x2173	dec    	eax
  0x2174	mov    	eax, dword ptr [edi + esi*8]
  === BLOCK LINK ===
    0x2177
=== CODE BLOCK END ===

=== CODE BLOCK ADDRESS 0x2177 ===
  0x2177	dec    	esp
  0x2178	lea    	esp, [eax + ecx*2]
  0x217b	inc    	ecx
  0x217c	inc    	edi
  0x217e	jmp    	0x2154
  === BLOCK LINK ===
    0x2180
=== CODE BLOCK END ===

=== CODE BLOCK ADDRESS 0x2180 ===
  0x2180	dec    	eax
  0x2181	lea    	ecx, [0x2381]
  0x2187	dec    	eax
  0x2188	call   	dword ptr [0x2082]
  === BLOCK LINK ===
    0x218e
=== CODE BLOCK END ===

=== CODE BLOCK ADDRESS 0x218e ===
  0x218e	nop    	dword ptr [eax + eax]
  0x2193	dec    	eax
  0x2194	arpl   	ax, cx
  0x2196	dec    	eax
  0x2197	mov    	eax, dword ptr [edi + esi*8]
  === BLOCK LINK ===
    0x219a
=== CODE BLOCK END ===

=== CODE BLOCK ADDRESS 0x219a ===
  0x219a	dec    	esp
  0x219b	lea    	ebp, [eax + ecx*2]
  0x219e	jmp    	0x217b
  === BLOCK LINK ===
    0x21a0
=== CODE BLOCK END ===

=== CODE BLOCK ADDRESS 0x21a0 ===
  0x21a0	dec    	eax
  0x21a1	lea    	ecx, [0x2369]
  0x21a7	dec    	eax
  0x21a8	call   	dword ptr [0x2062]
  === BLOCK LINK ===
    0x21ae
=== CODE BLOCK END ===

=== CODE BLOCK ADDRESS 0x21ae ===
  0x21ae	nop    	dword ptr [eax + eax]
  0x21b3	dec    	eax
  0x21b4	arpl   	ax, cx
  0x21b6	dec    	eax
  0x21b7	mov    	eax, dword ptr [edi + esi*8]
  === BLOCK LINK ===
    0x21ba
=== CODE BLOCK END ===

=== CODE BLOCK ADDRESS 0x21ba ===
  0x21ba	dec    	esp
  0x21bb	lea    	esi, [eax + ecx*2]
  0x21be	jmp    	0x2154
  === BLOCK LINK ===
    0x21c0
=== CODE BLOCK END ===

=== CODE BLOCK ADDRESS 0x21c0 ===
  0x21c0	mov    	ebx, dword ptr [esp + 0x50]
  0x21c4	dec    	eax
  0x21c5	lea    	ecx, [0x234d]
  0x21cb	dec    	eax
  0x21cc	call   	dword ptr [0x203e]
  === BLOCK LINK ===
    0x21d2
=== CODE BLOCK END ===

=== CODE BLOCK ADDRESS 0x21d2 ===
  0x21d2	nop    	dword ptr [eax + eax]
  0x21d7	dec    	eax
  0x21d8	arpl   	ax, cx
  0x21da	inc    	ecx
  0x21db	inc    	edi
  === BLOCK LINK ===
    0x21dd
=== CODE BLOCK END ===

=== CODE BLOCK ADDRESS 0x21dd ===
  0x21dd	dec    	eax
  0x21de	mov    	eax, dword ptr [edi + esi*8]
  0x21e1	dec    	eax
  0x21e2	lea    	eax, [eax + ecx*2]
  0x21e5	dec    	eax
  === BLOCK LINK ===
    0x21e6
=== CODE BLOCK END ===

=== CODE BLOCK ADDRESS 0x21e6 ===
  0x21e6	mov    	dword ptr [esp + 0x68], eax
  0x21ea	inc    	ebx
  0x21ec	dec    	eax
  0x21ed	inc    	esi
  0x21ef	mov    	dword ptr [esp + 0x50], ebx
  === BLOCK LINK ===
    0x21f3
=== CODE BLOCK END ===

=== CODE BLOCK ADDRESS 0x21f3 ===
  0x21f3	cmp    	ebx, dword ptr [esp + 0x58]
  0x21f7	jl     	0x1e30
  === BLOCK LINK ===
    0x21fd
=== CODE BLOCK END ===

=== CODE BLOCK ADDRESS 0x21fd ===
  0x21fd	inc    	ecx
  0x21fe	cmp    	edi, 1
  0x2201	jg     	0x2127
  === BLOCK LINK ===
    0x2207
=== CODE BLOCK END ===

=== CODE BLOCK ADDRESS 0x2207 ===
  0x2207	dec    	ebp
  0x2208	test   	esi, esi
  0x220a	je     	0x221a
  === BLOCK LINK ===
    0x220c
=== CODE BLOCK END ===

=== CODE BLOCK ADDRESS 0x220c ===
  0x220c	dec    	ebp
  0x220d	test   	ebp, ebp
  0x220f	je     	0x221a
  === BLOCK LINK ===
    0x2211
=== CODE BLOCK END ===

=== CODE BLOCK ADDRESS 0x2211 ===
  0x2211	dec    	ebp
  0x2212	test   	esp, esp
  0x2214	jne    	0x2127
  === BLOCK LINK ===
    0x221a
=== CODE BLOCK END ===

=== CODE BLOCK ADDRESS 0x221a ===
  0x221a	dec    	eax
  0x221b	mov    	esi, dword ptr [esp + 0x60]
  0x221f	xor    	edx, edx
  0x2221	dec    	eax
  0x2222	lea    	ecx, [ebp]
  === BLOCK LINK ===
    0x2225
=== CODE BLOCK END ===

=== CODE BLOCK ADDRESS 0x2225 ===
  0x2225	inc    	ecx
  0x2226	mov    	eax, 0x208
  0x222b	call   	0x3096
  === BLOCK LINK ===
    0x2230
=== CODE BLOCK END ===

=== CODE BLOCK ADDRESS 0x2230 ===
  0x2230	mov    	ebx, 0x104
  0x2235	dec    	esp
  0x2236	lea    	eax, [ebp + 0x210]
  0x223c	mov    	edx, ebx
  0x223e	dec    	eax
  === BLOCK LINK ===
    0x223f
=== CODE BLOCK END ===

=== CODE BLOCK ADDRESS 0x223f ===
  0x223f	lea    	ecx, [ebp]
  0x2242	call   	0x126c
  === BLOCK LINK ===
    0x2247
=== CODE BLOCK END ===

=== CODE BLOCK ADDRESS 0x2247 ===
  0x2247	dec    	esp
  0x2248	lea    	eax, [0x22ea]
  0x224e	mov    	edx, ebx
  0x2250	dec    	eax
  0x2251	lea    	ecx, [ebp]
  === BLOCK LINK ===
    0x2254
=== CODE BLOCK END ===

=== CODE BLOCK ADDRESS 0x2254 ===
  0x2254	call   	0x12f8
  === BLOCK LINK ===
    0x2259
=== CODE BLOCK END ===

=== CODE BLOCK ADDRESS 0x2259 ===
  0x2259	dec    	eax
  0x225a	and    	dword ptr [esp + 0x30], 0
  0x225f	dec    	eax
  0x2260	lea    	ecx, [ebp]
  0x2263	inc    	ecx
  === BLOCK LINK ===
    0x2264
=== CODE BLOCK END ===

=== CODE BLOCK ADDRESS 0x2264 ===
  0x2264	mov    	eax, 3
  0x2269	mov    	dword ptr [esp + 0x28], 0x80
  0x2271	inc    	ebp
  0x2272	xor    	ecx, ecx
  0x2274	inc    	esp
  === BLOCK LINK ===
    0x2275
=== CODE BLOCK END ===

=== CODE BLOCK ADDRESS 0x2275 ===
  0x2275	mov    	dword ptr [esp + 0x20], eax
  0x2279	xor    	edx, edx
  0x227b	dec    	eax
  0x227c	call   	dword ptr [0x1f96]
  === BLOCK LINK ===
    0x2282
=== CODE BLOCK END ===

=== CODE BLOCK ADDRESS 0x2282 ===
  0x2282	nop    	dword ptr [eax + eax]
  0x2287	dec    	eax
  0x2288	or     	ecx, 0xffffffff
  0x228b	dec    	eax
  0x228c	cmp    	eax, ecx
  === BLOCK LINK ===
    0x228e
=== CODE BLOCK END ===

=== CODE BLOCK ADDRESS 0x228e ===
  0x228e	jne    	0x22a3
  === BLOCK LINK ===
    0x2290
=== CODE BLOCK END ===

=== CODE BLOCK ADDRESS 0x2290 ===
  0x2290	dec    	eax
  0x2291	lea    	edx, [ebp]
  0x2294	mov    	ecx, 0x64
  0x2299	call   	0x1454
  === BLOCK LINK ===
    0x229e
=== CODE BLOCK END ===

=== CODE BLOCK ADDRESS 0x229e ===
  0x229e	jmp    	0x2718
  === BLOCK LINK ===
    0x22a3
=== CODE BLOCK END ===

=== CODE BLOCK ADDRESS 0x22a3 ===
  0x22a3	dec    	eax
  0x22a4	mov    	ecx, eax
  0x22a6	dec    	eax
  0x22a7	call   	dword ptr [0x1f73]
  === BLOCK LINK ===
    0x22ad
=== CODE BLOCK END ===

=== CODE BLOCK ADDRESS 0x22ad ===
  0x22ad	nop    	dword ptr [eax + eax]
  0x22b2	xor    	ebx, ebx
  0x22b4	dec    	eax
  0x22b5	test   	esi, esi
  0x22b7	je     	0x22ca
  === BLOCK LINK ===
    0x22b9
=== CODE BLOCK END ===

=== CODE BLOCK ADDRESS 0x22b9 ===
  0x22b9	dec    	eax
  0x22ba	mov    	ecx, esi
  0x22bc	dec    	eax
  0x22bd	call   	dword ptr [0x1f4d]
  === BLOCK LINK ===
    0x22c3
=== CODE BLOCK END ===

=== CODE BLOCK ADDRESS 0x22c3 ===
  0x22c3	nop    	dword ptr [eax + eax]
  0x22c8	mov    	ebx, eax
  0x22ca	dec    	esp
  0x22cb	mov    	edi, dword ptr [esp + 0x68]
  0x22cf	dec    	ebp
  === BLOCK LINK ===
    0x22d0
=== CODE BLOCK END ===

=== CODE BLOCK ADDRESS 0x22d0 ===
  0x22d0	test   	edi, edi
  0x22d2	je     	0x22e8
  === BLOCK LINK ===
    0x22d4
=== CODE BLOCK END ===

=== CODE BLOCK ADDRESS 0x22d4 ===
  0x22d4	dec    	ecx
  0x22d5	mov    	ecx, edi
  0x22d7	dec    	eax
  0x22d8	call   	dword ptr [0x1f32]
  === BLOCK LINK ===
    0x22de
=== CODE BLOCK END ===

=== CODE BLOCK ADDRESS 0x22de ===
  0x22de	nop    	dword ptr [eax + eax]
  0x22e3	add    	eax, 4
  0x22e6	add    	ebx, eax
  0x22e8	dec    	ebp
  0x22e9	test   	ebp, ebp
  === BLOCK LINK ===
    0x22eb
=== CODE BLOCK END ===

=== CODE BLOCK ADDRESS 0x22eb ===
  0x22eb	je     	0x22fe
  === BLOCK LINK ===
    0x22ed
=== CODE BLOCK END ===

=== CODE BLOCK ADDRESS 0x22ed ===
  0x22ed	dec    	ecx
  0x22ee	mov    	ecx, ebp
  0x22f0	dec    	eax
  0x22f1	call   	dword ptr [0x1f19]
  === BLOCK LINK ===
    0x22f7
=== CODE BLOCK END ===

=== CODE BLOCK ADDRESS 0x22f7 ===
  0x22f7	nop    	dword ptr [eax + eax]
  0x22fc	add    	ebx, eax
  0x22fe	dec    	ebp
  0x22ff	test   	esi, esi
  0x2301	je     	0x2314
  === BLOCK LINK ===
    0x2303
=== CODE BLOCK END ===

=== CODE BLOCK ADDRESS 0x2303 ===
  0x2303	dec    	ecx
  0x2304	mov    	ecx, esi
  0x2306	dec    	eax
  0x2307	call   	dword ptr [0x1f03]
  === BLOCK LINK ===
    0x230d
=== CODE BLOCK END ===

=== CODE BLOCK ADDRESS 0x230d ===
  0x230d	nop    	dword ptr [eax + eax]
  0x2312	add    	ebx, eax
  0x2314	dec    	ebp
  0x2315	test   	esp, esp
  0x2317	je     	0x232d
  === BLOCK LINK ===
    0x2319
=== CODE BLOCK END ===

=== CODE BLOCK ADDRESS 0x2319 ===
  0x2319	dec    	ecx
  0x231a	mov    	ecx, esp
  0x231c	dec    	eax
  0x231d	call   	dword ptr [0x1eed]
  === BLOCK LINK ===
    0x2323
=== CODE BLOCK END ===

=== CODE BLOCK ADDRESS 0x2323 ===
  0x2323	nop    	dword ptr [eax + eax]
  0x2328	add    	ebx, 4
  0x232b	add    	ebx, eax
  0x232d	lea    	eax, [ebx + 0x339]
  0x2333	dec    	eax
  === BLOCK LINK ===
    0x2334
=== CODE BLOCK END ===

=== CODE BLOCK ADDRESS 0x2334 ===
  0x2334	mov    	ecx, 0xffffffff
  0x233a	dec    	eax
  0x233b	arpl   	ax, di
  0x233d	mov    	eax, 2
  0x2342	dec    	eax
  === BLOCK LINK ===
    0x2343
=== CODE BLOCK END ===

=== CODE BLOCK ADDRESS 0x2343 ===
  0x2343	mul    	edi
  0x2345	dec    	eax
  0x2346	cmovo  	eax, ecx
  0x2349	dec    	eax
  0x234a	mov    	ecx, eax
  === BLOCK LINK ===
    0x234c
=== CODE BLOCK END ===

=== CODE BLOCK ADDRESS 0x234c ===
  0x234c	call   	0x2760
  === BLOCK LINK ===
    0x2351
=== CODE BLOCK END ===

=== CODE BLOCK ADDRESS 0x2351 ===
  0x2351	dec    	eax
  0x2352	mov    	ebx, eax
  0x2354	dec    	eax
  0x2355	test   	eax, eax
  0x2357	je     	0x2718
  === BLOCK LINK ===
    0x235d
=== CODE BLOCK END ===

=== CODE BLOCK ADDRESS 0x235d ===
  0x235d	xor    	eax, eax
  0x235f	dec    	esp
  0x2360	lea    	eax, [0x2142]
  0x2366	dec    	eax
  0x2367	mov    	edx, edi
  === BLOCK LINK ===
    0x2369
=== CODE BLOCK END ===

=== CODE BLOCK ADDRESS 0x2369 ===
  0x2369	dec    	eax
  0x236a	mov    	dword ptr [ebx], eax
  0x236c	dec    	eax
  0x236d	mov    	ecx, ebx
  0x236f	call   	0x126c
  === BLOCK LINK ===
    0x2374
=== CODE BLOCK END ===

=== CODE BLOCK ADDRESS 0x2374 ===
  0x2374	dec    	esp
  0x2375	lea    	eax, [ebp + 0x210]
  0x237b	dec    	eax
  0x237c	mov    	edx, edi
  0x237e	dec    	eax
  === BLOCK LINK ===
    0x237f
=== CODE BLOCK END ===

=== CODE BLOCK ADDRESS 0x237f ===
  0x237f	mov    	ecx, ebx
  0x2381	call   	0x12f8
  === BLOCK LINK ===
    0x2386
=== CODE BLOCK END ===

=== CODE BLOCK ADDRESS 0x2386 ===
  0x2386	dec    	esp
  0x2387	lea    	eax, [0x21cb]
  0x238d	dec    	eax
  0x238e	mov    	edx, edi
  0x2390	dec    	eax
  === BLOCK LINK ===
    0x2391
=== CODE BLOCK END ===

=== CODE BLOCK ADDRESS 0x2391 ===
  0x2391	mov    	ecx, ebx
  0x2393	call   	0x12f8
  === BLOCK LINK ===
    0x2398
=== CODE BLOCK END ===

=== CODE BLOCK ADDRESS 0x2398 ===
  0x2398	dec    	esp
  0x2399	lea    	eax, [0x2111]
  0x239f	dec    	eax
  0x23a0	mov    	edx, edi
  0x23a2	dec    	eax
  === BLOCK LINK ===
    0x23a3
=== CODE BLOCK END ===

=== CODE BLOCK ADDRESS 0x23a3 ===
  0x23a3	mov    	ecx, ebx
  0x23a5	call   	0x12f8
  === BLOCK LINK ===
    0x23aa
=== CODE BLOCK END ===

=== CODE BLOCK ADDRESS 0x23aa ===
  0x23aa	dec    	esp
  0x23ab	lea    	eax, [ebp]
  0x23ae	dec    	eax
  0x23af	mov    	edx, edi
  0x23b1	dec    	eax
  === BLOCK LINK ===
    0x23b2
=== CODE BLOCK END ===

=== CODE BLOCK ADDRESS 0x23b2 ===
  0x23b2	mov    	ecx, ebx
  0x23b4	call   	0x12f8
  === BLOCK LINK ===
    0x23b9
=== CODE BLOCK END ===

=== CODE BLOCK ADDRESS 0x23b9 ===
  0x23b9	dec    	esp
  0x23ba	lea    	eax, [0x20e8]
  0x23c0	dec    	eax
  0x23c1	mov    	edx, edi
  0x23c3	dec    	eax
  === BLOCK LINK ===
    0x23c4
=== CODE BLOCK END ===

=== CODE BLOCK ADDRESS 0x23c4 ===
  0x23c4	mov    	ecx, ebx
  0x23c6	call   	0x12f8
  === BLOCK LINK ===
    0x23cb
=== CODE BLOCK END ===

=== CODE BLOCK ADDRESS 0x23cb ===
  0x23cb	dec    	eax
  0x23cc	test   	esi, esi
  0x23ce	je     	0x2402
  === BLOCK LINK ===
    0x23d0
=== CODE BLOCK END ===

=== CODE BLOCK ADDRESS 0x23d0 ===
  0x23d0	dec    	esp
  0x23d1	lea    	eax, [0x20cd]
  0x23d7	dec    	eax
  0x23d8	mov    	edx, edi
  0x23da	dec    	eax
  === BLOCK LINK ===
    0x23db
=== CODE BLOCK END ===

=== CODE BLOCK ADDRESS 0x23db ===
  0x23db	mov    	ecx, ebx
  0x23dd	call   	0x12f8
  === BLOCK LINK ===
    0x23e2
=== CODE BLOCK END ===

=== CODE BLOCK ADDRESS 0x23e2 ===
  0x23e2	dec    	esp
  0x23e3	lea    	eax, [0x2137]
  0x23e9	dec    	eax
  0x23ea	mov    	edx, edi
  0x23ec	dec    	eax
  === BLOCK LINK ===
    0x23ed
=== CODE BLOCK END ===

=== CODE BLOCK ADDRESS 0x23ed ===
  0x23ed	mov    	ecx, ebx
  0x23ef	call   	0x12f8
  === BLOCK LINK ===
    0x23f4
=== CODE BLOCK END ===

=== CODE BLOCK ADDRESS 0x23f4 ===
  0x23f4	dec    	esp
  0x23f5	mov    	eax, esi
  0x23f7	dec    	eax
  0x23f8	mov    	edx, edi
  0x23fa	dec    	eax
  === BLOCK LINK ===
    0x23fb
=== CODE BLOCK END ===

=== CODE BLOCK ADDRESS 0x23fb ===
  0x23fb	mov    	ecx, ebx
  0x23fd	call   	0x12f8
  === BLOCK LINK ===
    0x2402
=== CODE BLOCK END ===

=== CODE BLOCK ADDRESS 0x2402 ===
  0x2402	xor    	esi, esi
  0x2404	dec    	ebp
  0x2405	test   	edi, edi
  0x2407	je     	0x2464
  === BLOCK LINK ===
    0x2409
=== CODE BLOCK END ===

=== CODE BLOCK ADDRESS 0x2409 ===
  0x2409	dec    	esp
  0x240a	lea    	eax, [0x2094]
  0x2410	dec    	eax
  0x2411	mov    	edx, edi
  0x2413	dec    	eax
  === BLOCK LINK ===
    0x2414
=== CODE BLOCK END ===

=== CODE BLOCK ADDRESS 0x2414 ===
  0x2414	mov    	ecx, ebx
  0x2416	call   	0x12f8
  === BLOCK LINK ===
    0x241b
=== CODE BLOCK END ===

=== CODE BLOCK ADDRESS 0x241b ===
  0x241b	dec    	esp
  0x241c	lea    	eax, [0x20f6]
  0x2422	dec    	eax
  0x2423	mov    	edx, edi
  0x2425	dec    	eax
  === BLOCK LINK ===
    0x2426
=== CODE BLOCK END ===

=== CODE BLOCK ADDRESS 0x2426 ===
  0x2426	mov    	ecx, ebx
  0x2428	call   	0x12f8
  === BLOCK LINK ===
    0x242d
=== CODE BLOCK END ===

=== CODE BLOCK ADDRESS 0x242d ===
  0x242d	dec    	esp
  0x242e	lea    	eax, [0x2074]
  0x2434	dec    	eax
  0x2435	mov    	edx, edi
  0x2437	dec    	eax
  === BLOCK LINK ===
    0x2438
=== CODE BLOCK END ===

=== CODE BLOCK ADDRESS 0x2438 ===
  0x2438	mov    	ecx, ebx
  0x243a	call   	0x12f8
  === BLOCK LINK ===
    0x243f
=== CODE BLOCK END ===

=== CODE BLOCK ADDRESS 0x243f ===
  0x243f	dec    	ebp
  0x2440	mov    	eax, edi
  0x2442	dec    	eax
  0x2443	mov    	edx, edi
  0x2445	dec    	eax
  === BLOCK LINK ===
    0x2446
=== CODE BLOCK END ===

=== CODE BLOCK ADDRESS 0x2446 ===
  0x2446	mov    	ecx, ebx
  0x2448	call   	0x12f8
  === BLOCK LINK ===
    0x244d
=== CODE BLOCK END ===

=== CODE BLOCK ADDRESS 0x244d ===
  0x244d	dec    	esp
  0x244e	lea    	edi, [0x2054]
  0x2454	dec    	eax
  0x2455	mov    	edx, edi
  0x2457	dec    	ebp
  === BLOCK LINK ===
    0x2458
=== CODE BLOCK END ===

=== CODE BLOCK ADDRESS 0x2458 ===
  0x2458	mov    	eax, edi
  0x245a	dec    	eax
  0x245b	mov    	ecx, ebx
  0x245d	call   	0x12f8
  === BLOCK LINK ===
    0x2462
=== CODE BLOCK END ===

=== CODE BLOCK ADDRESS 0x2462 ===
  0x2462	jmp    	0x246b
  === BLOCK LINK ===
    0x2464
=== CODE BLOCK END ===

=== CODE BLOCK ADDRESS 0x2464 ===
  0x2464	dec    	esp
  0x2465	lea    	edi, [0x203d]
  0x246b	dec    	ebp
  0x246c	test   	ebp, ebp
  0x246e	je     	0x2515
  === BLOCK LINK ===
    0x2474
=== CODE BLOCK END ===

=== CODE BLOCK ADDRESS 0x2474 ===
  0x2474	dec    	esp
  0x2475	lea    	eax, [0x2029]
  0x247b	dec    	eax
  0x247c	mov    	edx, edi
  0x247e	dec    	eax
  === BLOCK LINK ===
    0x247f
=== CODE BLOCK END ===

=== CODE BLOCK ADDRESS 0x247f ===
  0x247f	mov    	ecx, ebx
  0x2481	call   	0x12f8
  === BLOCK LINK ===
    0x2486
=== CODE BLOCK END ===

=== CODE BLOCK ADDRESS 0x2486 ===
  0x2486	dec    	esp
  0x2487	lea    	eax, [0x207b]
  0x248d	dec    	eax
  0x248e	mov    	edx, edi
  0x2490	dec    	eax
  === BLOCK LINK ===
    0x2491
=== CODE BLOCK END ===

=== CODE BLOCK ADDRESS 0x2491 ===
  0x2491	mov    	ecx, ebx
  0x2493	call   	0x12f8
  === BLOCK LINK ===
    0x2498
=== CODE BLOCK END ===

=== CODE BLOCK ADDRESS 0x2498 ===
  0x2498	dec    	ebp
  0x2499	mov    	eax, edi
  0x249b	dec    	eax
  0x249c	mov    	edx, edi
  0x249e	dec    	eax
  === BLOCK LINK ===
    0x249f
=== CODE BLOCK END ===

=== CODE BLOCK ADDRESS 0x249f ===
  0x249f	mov    	ecx, ebx
  0x24a1	call   	0x12f8
  === BLOCK LINK ===
    0x24a6
=== CODE BLOCK END ===

=== CODE BLOCK ADDRESS 0x24a6 ===
  0x24a6	dec    	ebp
  0x24a7	mov    	eax, ebp
  0x24a9	dec    	eax
  0x24aa	mov    	edx, edi
  0x24ac	dec    	eax
  === BLOCK LINK ===
    0x24ad
=== CODE BLOCK END ===

=== CODE BLOCK ADDRESS 0x24ad ===
  0x24ad	mov    	ecx, ebx
  0x24af	call   	0x12f8
  === BLOCK LINK ===
    0x24b4
=== CODE BLOCK END ===

=== CODE BLOCK ADDRESS 0x24b4 ===
  0x24b4	dec    	ebp
  0x24b5	mov    	eax, edi
  0x24b7	dec    	eax
  0x24b8	mov    	edx, edi
  0x24ba	dec    	eax
  === BLOCK LINK ===
    0x24bb
=== CODE BLOCK END ===

=== CODE BLOCK ADDRESS 0x24bb ===
  0x24bb	mov    	ecx, ebx
  0x24bd	call   	0x12f8
  === BLOCK LINK ===
    0x24c2
=== CODE BLOCK END ===

=== CODE BLOCK ADDRESS 0x24c2 ===
  0x24c2	dec    	ebp
  0x24c3	test   	esi, esi
  0x24c5	je     	0x2515
  === BLOCK LINK ===
    0x24c7
=== CODE BLOCK END ===

=== CODE BLOCK ADDRESS 0x24c7 ===
  0x24c7	dec    	esp
  0x24c8	lea    	eax, [0x1fd6]
  0x24ce	dec    	eax
  0x24cf	mov    	edx, edi
  0x24d1	dec    	eax
  === BLOCK LINK ===
    0x24d2
=== CODE BLOCK END ===

=== CODE BLOCK ADDRESS 0x24d2 ===
  0x24d2	mov    	ecx, ebx
  0x24d4	call   	0x12f8
  === BLOCK LINK ===
    0x24d9
=== CODE BLOCK END ===

=== CODE BLOCK ADDRESS 0x24d9 ===
  0x24d9	dec    	esp
  0x24da	lea    	eax, [0x2030]
  0x24e0	dec    	eax
  0x24e1	mov    	edx, edi
  0x24e3	dec    	eax
  === BLOCK LINK ===
    0x24e4
=== CODE BLOCK END ===

=== CODE BLOCK ADDRESS 0x24e4 ===
  0x24e4	mov    	ecx, ebx
  0x24e6	call   	0x12f8
  === BLOCK LINK ===
    0x24eb
=== CODE BLOCK END ===

=== CODE BLOCK ADDRESS 0x24eb ===
  0x24eb	dec    	ebp
  0x24ec	mov    	eax, edi
  0x24ee	dec    	eax
  0x24ef	mov    	edx, edi
  0x24f1	dec    	eax
  === BLOCK LINK ===
    0x24f2
=== CODE BLOCK END ===

=== CODE BLOCK ADDRESS 0x24f2 ===
  0x24f2	mov    	ecx, ebx
  0x24f4	call   	0x12f8
  === BLOCK LINK ===
    0x24f9
=== CODE BLOCK END ===

=== CODE BLOCK ADDRESS 0x24f9 ===
  0x24f9	dec    	ebp
  0x24fa	mov    	eax, esi
  0x24fc	dec    	eax
  0x24fd	mov    	edx, edi
  0x24ff	dec    	eax
  === BLOCK LINK ===
    0x2500
=== CODE BLOCK END ===

=== CODE BLOCK ADDRESS 0x2500 ===
  0x2500	mov    	ecx, ebx
  0x2502	call   	0x12f8
  === BLOCK LINK ===
    0x2507
=== CODE BLOCK END ===

=== CODE BLOCK ADDRESS 0x2507 ===
  0x2507	dec    	ebp
  0x2508	mov    	eax, edi
  0x250a	dec    	eax
  0x250b	mov    	edx, edi
  0x250d	dec    	eax
  === BLOCK LINK ===
    0x250e
=== CODE BLOCK END ===

=== CODE BLOCK ADDRESS 0x250e ===
  0x250e	mov    	ecx, ebx
  0x2510	call   	0x12f8
  === BLOCK LINK ===
    0x2515
=== CODE BLOCK END ===

=== CODE BLOCK ADDRESS 0x2515 ===
  0x2515	dec    	ebp
  0x2516	test   	esp, esp
  0x2518	je     	0x25c3
  === BLOCK LINK ===
    0x251e
=== CODE BLOCK END ===

=== CODE BLOCK ADDRESS 0x251e ===
  0x251e	dec    	esp
  0x251f	lea    	eax, [0x1f7f]
  0x2525	dec    	eax
  0x2526	mov    	edx, edi
  0x2528	dec    	eax
  === BLOCK LINK ===
    0x2529
=== CODE BLOCK END ===

=== CODE BLOCK ADDRESS 0x2529 ===
  0x2529	mov    	ecx, ebx
  0x252b	call   	0x12f8
  === BLOCK LINK ===
    0x2530
=== CODE BLOCK END ===

=== CODE BLOCK ADDRESS 0x2530 ===
  0x2530	dec    	esp
  0x2531	lea    	eax, [0x1fc9]
  0x2537	dec    	eax
  0x2538	mov    	edx, edi
  0x253a	dec    	eax
  === BLOCK LINK ===
    0x253b
=== CODE BLOCK END ===

=== CODE BLOCK ADDRESS 0x253b ===
  0x253b	mov    	ecx, ebx
  0x253d	call   	0x12f8
  === BLOCK LINK ===
    0x2542
=== CODE BLOCK END ===

=== CODE BLOCK ADDRESS 0x2542 ===
  0x2542	dec    	ebp
  0x2543	mov    	eax, edi
  0x2545	dec    	eax
  0x2546	mov    	edx, edi
  0x2548	dec    	eax
  === BLOCK LINK ===
    0x2549
=== CODE BLOCK END ===

=== CODE BLOCK ADDRESS 0x2549 ===
  0x2549	mov    	ecx, ebx
  0x254b	call   	0x12f8
  === BLOCK LINK ===
    0x2550
=== CODE BLOCK END ===

=== CODE BLOCK ADDRESS 0x2550 ===
  0x2550	dec    	ebp
  0x2551	mov    	eax, esp
  0x2553	dec    	eax
  0x2554	mov    	edx, edi
  0x2556	dec    	eax
  === BLOCK LINK ===
    0x2557
=== CODE BLOCK END ===

=== CODE BLOCK ADDRESS 0x2557 ===
  0x2557	mov    	ecx, ebx
  0x2559	call   	0x12f8
  === BLOCK LINK ===
    0x255e
=== CODE BLOCK END ===

=== CODE BLOCK ADDRESS 0x255e ===
  0x255e	dec    	ebp
  0x255f	mov    	eax, edi
  0x2561	dec    	eax
  0x2562	mov    	edx, edi
  0x2564	dec    	eax
  === BLOCK LINK ===
    0x2565
=== CODE BLOCK END ===

=== CODE BLOCK ADDRESS 0x2565 ===
  0x2565	mov    	ecx, ebx
  0x2567	call   	0x12f8
  === BLOCK LINK ===
    0x256c
=== CODE BLOCK END ===

=== CODE BLOCK ADDRESS 0x256c ===
  0x256c	dec    	ebp
  0x256d	test   	esi, esi
  0x256f	je     	0x2620
  === BLOCK LINK ===
    0x2575
=== CODE BLOCK END ===

=== CODE BLOCK ADDRESS 0x2575 ===
  0x2575	dec    	esp
  0x2576	lea    	eax, [0x1f28]
  0x257c	dec    	eax
  0x257d	mov    	edx, edi
  0x257f	dec    	eax
  === BLOCK LINK ===
    0x2580
=== CODE BLOCK END ===

=== CODE BLOCK ADDRESS 0x2580 ===
  0x2580	mov    	ecx, ebx
  0x2582	call   	0x12f8
  === BLOCK LINK ===
    0x2587
=== CODE BLOCK END ===

=== CODE BLOCK ADDRESS 0x2587 ===
  0x2587	dec    	esp
  0x2588	lea    	eax, [0x1f82]
  0x258e	dec    	eax
  0x258f	mov    	edx, edi
  0x2591	dec    	eax
  === BLOCK LINK ===
    0x2592
=== CODE BLOCK END ===

=== CODE BLOCK ADDRESS 0x2592 ===
  0x2592	mov    	ecx, ebx
  0x2594	call   	0x12f8
  === BLOCK LINK ===
    0x2599
=== CODE BLOCK END ===

=== CODE BLOCK ADDRESS 0x2599 ===
  0x2599	dec    	ebp
  0x259a	mov    	eax, edi
  0x259c	dec    	eax
  0x259d	mov    	edx, edi
  0x259f	dec    	eax
  === BLOCK LINK ===
    0x25a0
=== CODE BLOCK END ===

=== CODE BLOCK ADDRESS 0x25a0 ===
  0x25a0	mov    	ecx, ebx
  0x25a2	call   	0x12f8
  === BLOCK LINK ===
    0x25a7
=== CODE BLOCK END ===

=== CODE BLOCK ADDRESS 0x25a7 ===
  0x25a7	dec    	ebp
  0x25a8	mov    	eax, esi
  0x25aa	dec    	eax
  0x25ab	mov    	edx, edi
  0x25ad	dec    	eax
  === BLOCK LINK ===
    0x25ae
=== CODE BLOCK END ===

=== CODE BLOCK ADDRESS 0x25ae ===
  0x25ae	mov    	ecx, ebx
  0x25b0	call   	0x12f8
  === BLOCK LINK ===
    0x25b5
=== CODE BLOCK END ===

=== CODE BLOCK ADDRESS 0x25b5 ===
  0x25b5	dec    	ebp
  0x25b6	mov    	eax, edi
  0x25b8	dec    	eax
  0x25b9	mov    	edx, edi
  0x25bb	dec    	eax
  === BLOCK LINK ===
    0x25bc
=== CODE BLOCK END ===

=== CODE BLOCK ADDRESS 0x25bc ===
  0x25bc	mov    	ecx, ebx
  0x25be	call   	0x12f8
  === BLOCK LINK ===
    0x25c3
=== CODE BLOCK END ===

=== CODE BLOCK ADDRESS 0x25c3 ===
  0x25c3	dec    	ebp
  0x25c4	test   	esi, esi
  0x25c6	je     	0x2620
  === BLOCK LINK ===
    0x25c8
=== CODE BLOCK END ===

=== CODE BLOCK ADDRESS 0x25c8 ===
  0x25c8	dec    	ebp
  0x25c9	test   	esp, esp
  0x25cb	jne    	0x2620
  === BLOCK LINK ===
    0x25cd
=== CODE BLOCK END ===

=== CODE BLOCK ADDRESS 0x25cd ===
  0x25cd	dec    	ebp
  0x25ce	test   	ebp, ebp
  0x25d0	jne    	0x2620
  === BLOCK LINK ===
    0x25d2
=== CODE BLOCK END ===

=== CODE BLOCK ADDRESS 0x25d2 ===
  0x25d2	dec    	esp
  0x25d3	lea    	eax, [0x1ecb]
  0x25d9	dec    	eax
  0x25da	mov    	edx, edi
  0x25dc	dec    	eax
  === BLOCK LINK ===
    0x25dd
=== CODE BLOCK END ===

=== CODE BLOCK ADDRESS 0x25dd ===
  0x25dd	mov    	ecx, ebx
  0x25df	call   	0x12f8
  === BLOCK LINK ===
    0x25e4
=== CODE BLOCK END ===

=== CODE BLOCK ADDRESS 0x25e4 ===
  0x25e4	dec    	esp
  0x25e5	lea    	eax, [0x1f25]
  0x25eb	dec    	eax
  0x25ec	mov    	edx, edi
  0x25ee	dec    	eax
  === BLOCK LINK ===
    0x25ef
=== CODE BLOCK END ===

=== CODE BLOCK ADDRESS 0x25ef ===
  0x25ef	mov    	ecx, ebx
  0x25f1	call   	0x12f8
  === BLOCK LINK ===
    0x25f6
=== CODE BLOCK END ===

=== CODE BLOCK ADDRESS 0x25f6 ===
  0x25f6	dec    	ebp
  0x25f7	mov    	eax, edi
  0x25f9	dec    	eax
  0x25fa	mov    	edx, edi
  0x25fc	dec    	eax
  === BLOCK LINK ===
    0x25fd
=== CODE BLOCK END ===

=== CODE BLOCK ADDRESS 0x25fd ===
  0x25fd	mov    	ecx, ebx
  0x25ff	call   	0x12f8
  === BLOCK LINK ===
    0x2604
=== CODE BLOCK END ===

=== CODE BLOCK ADDRESS 0x2604 ===
  0x2604	dec    	ebp
  0x2605	mov    	eax, esi
  0x2607	dec    	eax
  0x2608	mov    	edx, edi
  0x260a	dec    	eax
  === BLOCK LINK ===
    0x260b
=== CODE BLOCK END ===

=== CODE BLOCK ADDRESS 0x260b ===
  0x260b	mov    	ecx, ebx
  0x260d	call   	0x12f8
  === BLOCK LINK ===
    0x2612
=== CODE BLOCK END ===

=== CODE BLOCK ADDRESS 0x2612 ===
  0x2612	dec    	ebp
  0x2613	mov    	eax, edi
  0x2615	dec    	eax
  0x2616	mov    	edx, edi
  0x2618	dec    	eax
  === BLOCK LINK ===
    0x2619
=== CODE BLOCK END ===

=== CODE BLOCK ADDRESS 0x2619 ===
  0x2619	mov    	ecx, ebx
  0x261b	call   	0x12f8
  === BLOCK LINK ===
    0x2620
=== CODE BLOCK END ===

=== CODE BLOCK ADDRESS 0x2620 ===
  0x2620	mov    	edi, 0x68
  0x2625	dec    	eax
  0x2626	lea    	ecx, [ebp - 0x70]
  0x2629	inc    	esp
  0x262a	mov    	eax, edi
  === BLOCK LINK ===
    0x262c
=== CODE BLOCK END ===

=== CODE BLOCK ADDRESS 0x262c ===
  0x262c	xor    	edx, edx
  0x262e	call   	0x3096
  === BLOCK LINK ===
    0x2633
=== CODE BLOCK END ===

=== CODE BLOCK ADDRESS 0x2633 ===
  0x2633	lea    	eax, [edi - 0x5e]
  0x2636	mov    	dword ptr [ebp - 0x70], edi
  0x2639	mov    	word ptr [ebp - 0x30], ax
  0x263d	xorps  	xmm0, xmm0
  0x2640	xor    	eax, eax
  === BLOCK LINK ===
    0x2642
=== CODE BLOCK END ===

=== CODE BLOCK ADDRESS 0x2642 ===
  0x2642	mov    	dword ptr [ebp - 0x34], 1
  0x2649	dec    	eax
  0x264a	mov    	dword ptr [ebp - 0x80], eax
  0x264d	inc    	ebp
  0x264e	xor    	ecx, ecx
  === BLOCK LINK ===
    0x2650
=== CODE BLOCK END ===

=== CODE BLOCK ADDRESS 0x2650 ===
  0x2650	dec    	eax
  0x2651	lea    	eax, [esp + 0x70]
  0x2655	inc    	ebp
  0x2656	xor    	eax, eax
  0x2658	dec    	eax
  === BLOCK LINK ===
    0x2659
=== CODE BLOCK END ===

=== CODE BLOCK ADDRESS 0x2659 ===
  0x2659	mov    	dword ptr [esp + 0x48], eax
  0x265d	dec    	eax
  0x265e	mov    	edx, ebx
  0x2660	dec    	eax
  0x2661	lea    	eax, [ebp - 0x70]
  === BLOCK LINK ===
    0x2664
=== CODE BLOCK END ===

=== CODE BLOCK ADDRESS 0x2664 ===
  0x2664	xor    	ecx, ecx
  0x2666	dec    	eax
  0x2667	mov    	dword ptr [esp + 0x40], eax
  0x266b	dec    	eax
  0x266c	mov    	dword ptr [esp + 0x38], esi
  === BLOCK LINK ===
    0x2670
=== CODE BLOCK END ===

=== CODE BLOCK ADDRESS 0x2670 ===
  0x2670	dec    	eax
  0x2671	mov    	dword ptr [esp + 0x30], esi
  0x2675	mov    	dword ptr [esp + 0x28], 0x20
  0x267d	mov    	dword ptr [esp + 0x20], esi
  0x2681	movups  	xmmword ptr [esp + 0x70], xmm0
  === BLOCK LINK ===
    0x2686
=== CODE BLOCK END ===

=== CODE BLOCK ADDRESS 0x2686 ===
  0x2686	dec    	eax
  0x2687	call   	dword ptr [0x1b9b]
  === BLOCK LINK ===
    0x268d
=== CODE BLOCK END ===

=== CODE BLOCK ADDRESS 0x268d ===
  0x268d	nop    	dword ptr [eax + eax]
  0x2692	test   	eax, eax
  0x2694	je     	0x26d0
  === BLOCK LINK ===
    0x2696
=== CODE BLOCK END ===

=== CODE BLOCK ADDRESS 0x2696 ===
  0x2696	dec    	eax
  0x2697	mov    	ecx, dword ptr [esp + 0x70]
  0x269b	mov    	edx, 0x1f4
  0x26a0	dec    	eax
  0x26a1	call   	dword ptr [0x1c19]
  === BLOCK LINK ===
    0x26a7
=== CODE BLOCK END ===

=== CODE BLOCK ADDRESS 0x26a7 ===
  0x26a7	nop    	dword ptr [eax + eax]
  0x26ac	dec    	eax
  0x26ad	mov    	ecx, dword ptr [esp + 0x78]
  0x26b1	dec    	eax
  0x26b2	call   	dword ptr [0x1b68]
  === BLOCK LINK ===
    0x26b8
=== CODE BLOCK END ===

=== CODE BLOCK ADDRESS 0x26b8 ===
  0x26b8	nop    	dword ptr [eax + eax]
  0x26bd	dec    	eax
  0x26be	mov    	ecx, dword ptr [esp + 0x70]
  0x26c2	dec    	eax
  0x26c3	call   	dword ptr [0x1b57]
  === BLOCK LINK ===
    0x26c9
=== CODE BLOCK END ===

=== CODE BLOCK ADDRESS 0x26c9 ===
  0x26c9	nop    	dword ptr [eax + eax]
  0x26ce	jmp    	0x26f6
  === BLOCK LINK ===
    0x26d0
=== CODE BLOCK END ===

=== CODE BLOCK ADDRESS 0x26d0 ===
  0x26d0	dec    	eax
  0x26d1	call   	dword ptr [0x1b19]
  === BLOCK LINK ===
    0x26d7
=== CODE BLOCK END ===

=== CODE BLOCK ADDRESS 0x26d7 ===
  0x26d7	nop    	dword ptr [eax + eax]
  0x26dc	cmp    	eax, 0x4c7
  0x26e1	je     	0x26f6
  === BLOCK LINK ===
    0x26e3
=== CODE BLOCK END ===

=== CODE BLOCK ADDRESS 0x26e3 ===
  0x26e3	movzx  	ecx, ax
  0x26e6	or     	ecx, 0x80070000
  0x26ec	test   	eax, eax
  0x26ee	cmovle  	ecx, eax
  0x26f1	call   	0x1748
  === BLOCK LINK ===
    0x26f6
=== CODE BLOCK END ===

=== CODE BLOCK ADDRESS 0x26f6 ===
  0x26f6	dec    	eax
  0x26f7	mov    	ecx, ebx
  0x26f9	call   	0x2754
  === BLOCK LINK ===
    0x26fe
=== CODE BLOCK END ===

=== CODE BLOCK ADDRESS 0x26fe ===
  0x26fe	jmp    	0x2718
  === BLOCK LINK ===
    0x2700
=== CODE BLOCK END ===

=== CODE BLOCK ADDRESS 0x2700 ===
  0x2700	mov    	ecx, 0x71
  0x2705	call   	0x1454
  === BLOCK LINK ===
    0x270a
=== CODE BLOCK END ===

=== CODE BLOCK ADDRESS 0x270a ===
  0x270a	mov    	eax, ebx
  0x270c	jmp    	0x271a
  === BLOCK LINK ===
    0x270e
=== CODE BLOCK END ===

=== CODE BLOCK ADDRESS 0x270e ===
  0x270e	mov    	ecx, 0x66
  0x2713	call   	0x1454
  === BLOCK LINK ===
    0x2718
=== CODE BLOCK END ===

=== CODE BLOCK ADDRESS 0x2718 ===
  0x2718	xor    	eax, eax
  0x271a	dec    	eax
  0x271b	mov    	ecx, dword ptr [ebp + 0x420]
  0x2721	dec    	eax
  0x2722	xor    	ecx, esp
  === BLOCK LINK ===
    0x2724
=== CODE BLOCK END ===

=== CODE BLOCK ADDRESS 0x2724 ===
  0x2724	call   	0x2ad0
  === BLOCK LINK ===
    0x2729
=== CODE BLOCK END ===

=== CODE BLOCK ADDRESS 0x2729 ===
  0x2729	dec    	esp
  0x272a	lea    	ebx, [esp + 0x530]
  0x2731	dec    	ecx
  0x2732	mov    	ebx, dword ptr [ebx + 0x38]
  0x2735	dec    	ecx
  === BLOCK LINK ===
    0x2736
=== CODE BLOCK END ===

=== CODE BLOCK ADDRESS 0x2736 ===
  0x2736	mov    	esi, dword ptr [ebx + 0x40]
  0x2739	dec    	ecx
  0x273a	mov    	edi, dword ptr [ebx + 0x48]
  0x273d	dec    	ecx
  0x273e	mov    	esp, ebx
  === BLOCK LINK ===
    0x2740
=== CODE BLOCK END ===

=== CODE BLOCK ADDRESS 0x2740 ===
  0x2740	inc    	ecx
  0x2741	pop    	edi
  0x2742	inc    	ecx
  0x2743	pop    	esi
  0x2744	inc    	ecx
  === BLOCK LINK ===
    0x2745
=== CODE BLOCK END ===

=== CODE BLOCK ADDRESS 0x2745 ===
  0x2745	pop    	ebp
  0x2746	inc    	ecx
  0x2747	pop    	esp
  0x2748	pop    	ebp
  0x2749	ret    	
  === BLOCK LINK ===
    0x274a
=== CODE BLOCK END ===

=== CODE BLOCK ADDRESS 0x274a ===
  0x274a	int3   	
  0x274b	int3   	
  0x274c	int3   	
  0x274d	int3   	
  0x274e	int3   	
  === BLOCK LINK ===
    0x274f
=== CODE BLOCK END ===

=== CODE BLOCK ADDRESS 0x274f ===
  0x274f	int3   	
  0x2750	int3   	
  0x2751	int3   	
  0x2752	int3   	
  0x2753	int3   	
  === BLOCK LINK ===
    0x2754
=== CODE BLOCK END ===

=== CODE BLOCK ADDRESS 0x2759 ===
  0x2759	int3   	
  0x275a	int3   	
  0x275b	int3   	
  0x275c	int3   	
  0x275d	int3   	
  === BLOCK LINK ===
    0x275e
=== CODE BLOCK END ===

=== CODE BLOCK ADDRESS 0x275e ===
  0x275e	int3   	
  0x275f	int3   	
  0x2760	dec    	eax
  0x2761	mov    	dword ptr [esp + 8], ebx
  0x2765	push   	edi
  === BLOCK LINK ===
    0x2766
=== CODE BLOCK END ===

=== CODE BLOCK ADDRESS 0x2766 ===
  0x2766	dec    	eax
  0x2767	sub    	esp, 0x20
  0x276a	dec    	eax
  0x276b	mov    	edi, ecx
  0x276d	jmp    	0x277e
  === BLOCK LINK ===
    0x276f
=== CODE BLOCK END ===

=== CODE BLOCK ADDRESS 0x276f ===
  0x276f	dec    	eax
  0x2770	mov    	ecx, edi
  0x2772	call   	0x2b0c
  === BLOCK LINK ===
    0x2777
=== CODE BLOCK END ===

=== CODE BLOCK ADDRESS 0x2777 ===
  0x2777	test   	eax, eax
  0x2779	je     	0x278b
  === BLOCK LINK ===
    0x277b
=== CODE BLOCK END ===

=== CODE BLOCK ADDRESS 0x277b ===
  0x277b	dec    	eax
  0x277c	mov    	ecx, edi
  0x277e	call   	0x2b00
  === BLOCK LINK ===
    0x2783
=== CODE BLOCK END ===

=== CODE BLOCK ADDRESS 0x2783 ===
  0x2783	dec    	eax
  0x2784	mov    	ebx, eax
  0x2786	dec    	eax
  0x2787	test   	eax, eax
  0x2789	je     	0x276f
  === BLOCK LINK ===
    0x278b
=== CODE BLOCK END ===

=== CODE BLOCK ADDRESS 0x278b ===
  0x278b	dec    	eax
  0x278c	mov    	eax, ebx
  0x278e	dec    	eax
  0x278f	mov    	ebx, dword ptr [esp + 0x30]
  0x2793	dec    	eax
  === BLOCK LINK ===
    0x2794
=== CODE BLOCK END ===

=== CODE BLOCK ADDRESS 0x2794 ===
  0x2794	add    	esp, 0x20
  0x2797	pop    	edi
  0x2798	ret    	
  0x2799	int3   	
  0x279a	int3   	
  === BLOCK LINK ===
    0x279b
=== CODE BLOCK END ===

=== CODE BLOCK ADDRESS 0x279b ===
  0x279b	int3   	
  0x279c	int3   	
  0x279d	int3   	
  0x279e	int3   	
  0x279f	int3   	
  === BLOCK LINK ===
    0x27a0
=== CODE BLOCK END ===

=== CODE BLOCK ADDRESS 0x27a0 ===
  0x27a0	dec    	eax
  0x27a1	sub    	esp, 0x28
  0x27a4	mov    	eax, 0x5a4d
  0x27a9	cmp    	word ptr [0xffffd850], ax
  0x27b0	je     	0x27b6
  === BLOCK LINK ===
    0x27b2
=== CODE BLOCK END ===

=== CODE BLOCK ADDRESS 0x27b2 ===
  0x27b2	xor    	eax, eax
  0x27b4	jmp    	0x2809
  === BLOCK LINK ===
    0x27b6
=== CODE BLOCK END ===

=== CODE BLOCK ADDRESS 0x27b6 ===
  0x27b6	dec    	eax
  0x27b7	arpl   	word ptr [0xffffd87f], cx
  0x27bd	dec    	eax
  0x27be	lea    	eax, [0xffffd83c]
  0x27c4	dec    	eax
  === BLOCK LINK ===
    0x27c5
=== CODE BLOCK END ===

=== CODE BLOCK ADDRESS 0x27c5 ===
  0x27c5	add    	ecx, eax
  0x27c7	cmp    	dword ptr [ecx], 0x4550
  0x27cd	jne    	0x27b2
  === BLOCK LINK ===
    0x27cf
=== CODE BLOCK END ===

=== CODE BLOCK ADDRESS 0x27cf ===
  0x27cf	mov    	eax, 0x10b
  0x27d4	cmp    	word ptr [ecx + 0x18], ax
  0x27d8	je     	0x27f8
  === BLOCK LINK ===
    0x27da
=== CODE BLOCK END ===

=== CODE BLOCK ADDRESS 0x27da ===
  0x27da	mov    	eax, 0x20b
  0x27df	cmp    	word ptr [ecx + 0x18], ax
  0x27e3	jne    	0x27b2
  === BLOCK LINK ===
    0x27e5
=== CODE BLOCK END ===

=== CODE BLOCK ADDRESS 0x27e5 ===
  0x27e5	xor    	eax, eax
  0x27e7	cmp    	dword ptr [ecx + 0x84], 0xe
  0x27ee	jbe    	0x2809
  === BLOCK LINK ===
    0x27f0
=== CODE BLOCK END ===

=== CODE BLOCK ADDRESS 0x27f0 ===
  0x27f0	cmp    	dword ptr [ecx + 0xf8], eax
  0x27f6	jmp    	0x2806
  === BLOCK LINK ===
    0x27f8
=== CODE BLOCK END ===

=== CODE BLOCK ADDRESS 0x27f8 ===
  0x27f8	xor    	eax, eax
  0x27fa	cmp    	dword ptr [ecx + 0x74], 0xe
  0x27fe	jbe    	0x2809
  === BLOCK LINK ===
    0x2800
=== CODE BLOCK END ===

=== CODE BLOCK ADDRESS 0x2800 ===
  0x2800	cmp    	dword ptr [ecx + 0xe8], eax
  0x2806	setne  	al
  0x2809	mov    	ecx, 1
  0x280e	mov    	dword ptr [0x382c], eax
  0x2814	call   	0x2be8
  === BLOCK LINK ===
    0x2819
=== CODE BLOCK END ===

=== CODE BLOCK ADDRESS 0x2819 ===
  0x2819	mov    	ecx, eax
  0x281b	call   	dword ptr [0x1b4f]
  === BLOCK LINK ===
    0x2821
=== CODE BLOCK END ===

=== CODE BLOCK ADDRESS 0x2821 ===
  0x2821	dec    	eax
  0x2822	mov    	ecx, dword ptr [0x1b88]
  0x2828	dec    	eax
  0x2829	or     	eax, 0xffffffff
  0x282c	dec    	eax
  === BLOCK LINK ===
    0x282d
=== CODE BLOCK END ===

=== CODE BLOCK ADDRESS 0x282d ===
  0x282d	mov    	dword ptr [0x3da5], eax
  0x2833	dec    	eax
  0x2834	mov    	dword ptr [0x3da6], eax
  0x283a	mov    	eax, dword ptr [0x3814]
  0x2840	mov    	dword ptr [ecx], eax
  === BLOCK LINK ===
    0x2842
=== CODE BLOCK END ===

=== CODE BLOCK ADDRESS 0x2842 ===
  0x2842	dec    	eax
  0x2843	mov    	ecx, dword ptr [0x1b5f]
  0x2849	mov    	eax, dword ptr [0x37f9]
  0x284f	mov    	dword ptr [ecx], eax
  0x2851	call   	0x2c40
  === BLOCK LINK ===
    0x2856
=== CODE BLOCK END ===

=== CODE BLOCK ADDRESS 0x2856 ===
  0x2856	cmp    	dword ptr [0x37a3], 0
  0x285d	jne    	0x286c
  === BLOCK LINK ===
    0x285f
=== CODE BLOCK END ===

=== CODE BLOCK ADDRESS 0x285f ===
  0x285f	dec    	eax
  0x2860	lea    	ecx, [0x3da]
  0x2866	call   	dword ptr [0x1ae4]
  === BLOCK LINK ===
    0x286c
=== CODE BLOCK END ===

=== CODE BLOCK ADDRESS 0x286c ===
  0x286c	xor    	eax, eax
  0x286e	dec    	eax
  0x286f	add    	esp, 0x28
  0x2872	ret    	
  0x2873	int3   	
  === BLOCK LINK ===
    0x2874
=== CODE BLOCK END ===

=== CODE BLOCK ADDRESS 0x2874 ===
  0x2874	int3   	
  0x2875	int3   	
  0x2876	int3   	
  0x2877	int3   	
  0x2878	int3   	
  === BLOCK LINK ===
    0x2879
=== CODE BLOCK END ===

=== CODE BLOCK ADDRESS 0x2879 ===
  0x2879	int3   	
  0x287a	int3   	
  0x287b	int3   	
  0x287c	int3   	
  0x287d	int3   	
  === BLOCK LINK ===
    0x287e
=== CODE BLOCK END ===

=== CODE BLOCK ADDRESS 0x287e ===
  0x287e	int3   	
  0x287f	int3   	
  0x2880	dec    	eax
  0x2881	sub    	esp, 0x38
  0x2884	mov    	eax, dword ptr [0x37c6]
  === BLOCK LINK ===
    0x288a
=== CODE BLOCK END ===

=== CODE BLOCK ADDRESS 0x288a ===
  0x288a	dec    	esp
  0x288b	lea    	eax, [0x37a7]
  0x2891	inc    	esp
  0x2892	mov    	ecx, dword ptr [0x37b4]
  0x2898	dec    	eax
  === BLOCK LINK ===
    0x2899
=== CODE BLOCK END ===

=== CODE BLOCK ADDRESS 0x2899 ===
  0x2899	lea    	edx, [0x3791]
  0x289f	mov    	dword ptr [0x379f], eax
  0x28a5	dec    	eax
  0x28a6	lea    	ecx, [0x377c]
  0x28ac	dec    	eax
  === BLOCK LINK ===
    0x28ad
=== CODE BLOCK END ===

=== CODE BLOCK ADDRESS 0x28ad ===
  0x28ad	lea    	eax, [0x3791]
  0x28b3	dec    	eax
  0x28b4	mov    	dword ptr [esp + 0x20], eax
  0x28b8	call   	dword ptr [0x1aba]
  === BLOCK LINK ===
    0x28be
=== CODE BLOCK END ===

=== CODE BLOCK ADDRESS 0x28be ===
  0x28be	mov    	dword ptr [0x3768], eax
  0x28c4	dec    	eax
  0x28c5	add    	esp, 0x38
  0x28c8	ret    	
  0x28c9	int3   	
  === BLOCK LINK ===
    0x28ca
=== CODE BLOCK END ===

=== CODE BLOCK ADDRESS 0x28ca ===
  0x28ca	int3   	
  0x28cb	int3   	
  0x28cc	int3   	
  0x28cd	int3   	
  0x28ce	int3   	
  === BLOCK LINK ===
    0x28cf
=== CODE BLOCK END ===

=== CODE BLOCK ADDRESS 0x28cf ===
  0x28cf	int3   	
  0x28d0	dec    	eax
  0x28d1	mov    	dword ptr [esp + 8], ebx
  0x28d5	dec    	eax
  0x28d6	mov    	dword ptr [esp + 0x10], esi
  === BLOCK LINK ===
    0x28da
=== CODE BLOCK END ===

=== CODE BLOCK ADDRESS 0x28da ===
  0x28da	dec    	eax
  0x28db	mov    	dword ptr [esp + 0x18], edi
  0x28df	inc    	ecx
  0x28e0	push   	edi
  0x28e1	dec    	eax
  === BLOCK LINK ===
    0x28e2
=== CODE BLOCK END ===

=== CODE BLOCK ADDRESS 0x28e2 ===
  0x28e2	sub    	esp, 0x30
  0x28e5	dec    	eax
  0x28e7	mov    	eax, dword ptr [0x30]
  0x28ee	dec    	eax
  0x28ef	mov    	ebx, dword ptr [eax + 8]
  === BLOCK LINK ===
    0x28f2
=== CODE BLOCK END ===

=== CODE BLOCK ADDRESS 0x28f2 ===
  0x28f2	xor    	esi, esi
  0x28f4	xor    	eax, eax
  0x28f6	.byte  	0xf0
  0x28f7	dec    	eax
  0x28f8	cmpxchg  	dword ptr [0x3ce9], ebx
  === BLOCK LINK ===
    0x28ff
=== CODE BLOCK END ===

=== CODE BLOCK ADDRESS 0x28ff ===
  0x28ff	je     	0x291c
  === BLOCK LINK ===
    0x2901
=== CODE BLOCK END ===

=== CODE BLOCK ADDRESS 0x2901 ===
  0x2901	dec    	eax
  0x2902	cmp    	eax, ebx
  0x2904	jne    	0x290f
  === BLOCK LINK ===
    0x2906
=== CODE BLOCK END ===

=== CODE BLOCK ADDRESS 0x2906 ===
  0x2906	mov    	ebx, 1
  0x290b	mov    	esi, ebx
  0x290d	jmp    	0x2921
  === BLOCK LINK ===
    0x290f
=== CODE BLOCK END ===

=== CODE BLOCK ADDRESS 0x290f ===
  0x290f	mov    	ecx, 0x3e8
  0x2914	call   	dword ptr [0x1966]
  === BLOCK LINK ===
    0x291a
=== CODE BLOCK END ===

=== CODE BLOCK ADDRESS 0x291a ===
  0x291a	jmp    	0x28f4
  === BLOCK LINK ===
    0x291c
=== CODE BLOCK END ===

=== CODE BLOCK ADDRESS 0x291c ===
  0x291c	mov    	ebx, 1
  0x2921	mov    	eax, dword ptr [0x3cc9]
  0x2927	cmp    	eax, ebx
  0x2929	jne    	0x2937
  === BLOCK LINK ===
    0x292b
=== CODE BLOCK END ===

=== CODE BLOCK ADDRESS 0x292b ===
  0x292b	mov    	ecx, 0x1f
  0x2930	call   	0x2c33
  === BLOCK LINK ===
    0x2935
=== CODE BLOCK END ===

=== CODE BLOCK ADDRESS 0x2935 ===
  0x2935	jmp    	0x299c
  === BLOCK LINK ===
    0x2937
=== CODE BLOCK END ===

=== CODE BLOCK ADDRESS 0x2937 ===
  0x2937	mov    	eax, dword ptr [0x3cb3]
  0x293d	test   	eax, eax
  0x293f	jne    	0x2996
  === BLOCK LINK ===
    0x2941
=== CODE BLOCK END ===

=== CODE BLOCK ADDRESS 0x2941 ===
  0x2941	mov    	dword ptr [0x3ca9], ebx
  0x2947	dec    	esp
  0x2948	lea    	edi, [0x1ac2]
  0x294e	dec    	eax
  0x294f	lea    	edi, [0x1aa3]
  === BLOCK LINK ===
    0x2955
=== CODE BLOCK END ===

=== CODE BLOCK ADDRESS 0x2955 ===
  0x2955	dec    	eax
  0x2956	mov    	dword ptr [esp + 0x28], edi
  0x295a	mov    	dword ptr [esp + 0x20], eax
  0x295e	dec    	ecx
  0x295f	cmp    	edi, edi
  === BLOCK LINK ===
    0x2961
=== CODE BLOCK END ===

=== CODE BLOCK ADDRESS 0x2961 ===
  0x2961	jae    	0x2988
  === BLOCK LINK ===
    0x2963
=== CODE BLOCK END ===

=== CODE BLOCK ADDRESS 0x2963 ===
  0x2963	test   	eax, eax
  0x2965	jne    	0x298c
  === BLOCK LINK ===
    0x2967
=== CODE BLOCK END ===

=== CODE BLOCK ADDRESS 0x2967 ===
  0x2967	dec    	eax
  0x2968	cmp    	dword ptr [edi], 0
  0x296b	je     	0x297d
  === BLOCK LINK ===
    0x296d
=== CODE BLOCK END ===

=== CODE BLOCK ADDRESS 0x296d ===
  0x296d	dec    	eax
  0x296e	mov    	eax, dword ptr [edi]
  0x2970	dec    	eax
  0x2971	mov    	ecx, dword ptr [0x1a61]
  0x2977	call   	ecx
  === BLOCK LINK ===
    0x2979
=== CODE BLOCK END ===

=== CODE BLOCK ADDRESS 0x2979 ===
  0x2979	mov    	dword ptr [esp + 0x20], eax
  0x297d	dec    	eax
  0x297e	add    	edi, 8
  0x2981	dec    	eax
  0x2982	mov    	dword ptr [esp + 0x28], edi
  === BLOCK LINK ===
    0x2986
=== CODE BLOCK END ===

=== CODE BLOCK ADDRESS 0x2986 ===
  0x2986	jmp    	0x295e
  === BLOCK LINK ===
    0x2988
=== CODE BLOCK END ===

=== CODE BLOCK ADDRESS 0x2988 ===
  0x2988	test   	eax, eax
  0x298a	je     	0x299c
  === BLOCK LINK ===
    0x298c
=== CODE BLOCK END ===

=== CODE BLOCK ADDRESS 0x298c ===
  0x298c	mov    	eax, 0xff
  0x2991	jmp    	0x2a78
  === BLOCK LINK ===
    0x2996
=== CODE BLOCK END ===

=== CODE BLOCK ADDRESS 0x2996 ===
  0x2996	mov    	dword ptr [0x3688], ebx
  0x299c	mov    	eax, dword ptr [0x3c4e]
  0x29a2	cmp    	eax, ebx
  0x29a4	jne    	0x29c3
  === BLOCK LINK ===
    0x29a6
=== CODE BLOCK END ===

=== CODE BLOCK ADDRESS 0x29a6 ===
  0x29a6	dec    	eax
  0x29a7	lea    	edx, [0x1a43]
  0x29ad	dec    	eax
  0x29ae	lea    	ecx, [0x1a2c]
  0x29b4	call   	0x2e0e
  === BLOCK LINK ===
    0x29b9
=== CODE BLOCK END ===

=== CODE BLOCK ADDRESS 0x29b9 ===
  0x29b9	mov    	dword ptr [0x3c2d], 2
  0x29c3	test   	esi, esi
  0x29c5	jne    	0x29d0
  === BLOCK LINK ===
    0x29c7
=== CODE BLOCK END ===

=== CODE BLOCK ADDRESS 0x29c7 ===
  0x29c7	xor    	eax, eax
  0x29c9	dec    	eax
  0x29ca	xchg   	dword ptr [0x3c18], eax
  0x29d0	dec    	eax
  0x29d1	cmp    	dword ptr [0x3c20], 0
  === BLOCK LINK ===
    0x29d8
=== CODE BLOCK END ===

=== CODE BLOCK ADDRESS 0x29d8 ===
  0x29d8	je     	0x2a04
  === BLOCK LINK ===
    0x29da
=== CODE BLOCK END ===

=== CODE BLOCK ADDRESS 0x29da ===
  0x29da	dec    	eax
  0x29db	lea    	ecx, [0x3c17]
  0x29e1	call   	0x2ca0
  === BLOCK LINK ===
    0x29e6
=== CODE BLOCK END ===

=== CODE BLOCK ADDRESS 0x29e6 ===
  0x29e6	test   	eax, eax
  0x29e8	je     	0x2a04
  === BLOCK LINK ===
    0x29ea
=== CODE BLOCK END ===

=== CODE BLOCK ADDRESS 0x29ea ===
  0x29ea	inc    	ebp
  0x29eb	xor    	eax, eax
  0x29ed	inc    	ecx
  0x29ee	lea    	edx, [eax + 2]
  0x29f1	xor    	ecx, ecx
  === BLOCK LINK ===
    0x29f3
=== CODE BLOCK END ===

=== CODE BLOCK ADDRESS 0x29f3 ===
  0x29f3	dec    	eax
  0x29f4	mov    	eax, dword ptr [0x3bfe]
  0x29fa	dec    	esp
  0x29fb	mov    	ecx, dword ptr [0x19d7]
  0x2a01	inc    	ecx
  === BLOCK LINK ===
    0x2a02
=== CODE BLOCK END ===

=== CODE BLOCK ADDRESS 0x2a02 ===
  0x2a02	call   	ecx
  === BLOCK LINK ===
    0x2a04
=== CODE BLOCK END ===

=== CODE BLOCK ADDRESS 0x2a04 ===
  0x2a04	dec    	esp
  0x2a05	mov    	eax, dword ptr [0x362d]
  0x2a0b	dec    	eax
  0x2a0c	mov    	edx, dword ptr [0x361e]
  0x2a12	mov    	ecx, dword ptr [0x3610]
  === BLOCK LINK ===
    0x2a18
=== CODE BLOCK END ===

=== CODE BLOCK ADDRESS 0x2a18 ===
  0x2a18	call   	0x1c9c
  === BLOCK LINK ===
    0x2a1d
=== CODE BLOCK END ===

=== CODE BLOCK ADDRESS 0x2a1d ===
  0x2a1d	mov    	dword ptr [0x35fd], eax
  0x2a23	cmp    	dword ptr [0x3616], 0
  0x2a2a	jne    	0x2a34
  === BLOCK LINK ===
    0x2a2c
=== CODE BLOCK END ===

=== CODE BLOCK ADDRESS 0x2a2c ===
  0x2a2c	mov    	ecx, eax
  0x2a2e	call   	dword ptr [0x1934]
  === BLOCK LINK ===
    0x2a34
=== CODE BLOCK END ===

=== CODE BLOCK ADDRESS 0x2a34 ===
  0x2a34	cmp    	dword ptr [0x35e9], 0
  0x2a3b	jne    	0x2a49
  === BLOCK LINK ===
    0x2a3d
=== CODE BLOCK END ===

=== CODE BLOCK ADDRESS 0x2a3d ===
  0x2a3d	call   	dword ptr [0x1915]
  === BLOCK LINK ===
    0x2a43
=== CODE BLOCK END ===

=== CODE BLOCK ADDRESS 0x2a43 ===
  0x2a43	mov    	eax, dword ptr [0x35d7]
  0x2a49	jmp    	0x2a78
  === BLOCK LINK ===
    0x2a4b
=== CODE BLOCK END ===

=== CODE BLOCK ADDRESS 0x2a4b ===
  0x2a4b	mov    	dword ptr [0x35cf], eax
  0x2a51	cmp    	dword ptr [0x35e8], 0
  0x2a58	jne    	0x2a63
  === BLOCK LINK ===
    0x2a5a
=== CODE BLOCK END ===

=== CODE BLOCK ADDRESS 0x2a5a ===
  0x2a5a	mov    	ecx, eax
  0x2a5c	call   	dword ptr [0x18fe]
  === BLOCK LINK ===
    0x2a62
=== CODE BLOCK END ===

=== CODE BLOCK ADDRESS 0x2a62 ===
  0x2a62	int3   	
  0x2a63	cmp    	dword ptr [0x35ba], 0
  0x2a6a	jne    	0x2a78
  === BLOCK LINK ===
    0x2a6c
=== CODE BLOCK END ===

=== CODE BLOCK ADDRESS 0x2a6c ===
  0x2a6c	call   	dword ptr [0x18e6]
  === BLOCK LINK ===
    0x2a72
=== CODE BLOCK END ===

=== CODE BLOCK ADDRESS 0x2a72 ===
  0x2a72	mov    	eax, dword ptr [0x35a8]
  0x2a78	dec    	eax
  0x2a79	mov    	ebx, dword ptr [esp + 0x40]
  0x2a7d	dec    	eax
  0x2a7e	mov    	esi, dword ptr [esp + 0x48]
  === BLOCK LINK ===
    0x2a82
=== CODE BLOCK END ===

=== CODE BLOCK ADDRESS 0x2a82 ===
  0x2a82	dec    	eax
  0x2a83	mov    	edi, dword ptr [esp + 0x50]
  0x2a87	dec    	eax
  0x2a88	add    	esp, 0x30
  0x2a8b	inc    	ecx
  === BLOCK LINK ===
    0x2a8c
=== CODE BLOCK END ===

=== CODE BLOCK ADDRESS 0x2a8c ===
  0x2a8c	pop    	edi
  0x2a8d	ret    	
  0x2a8e	int3   	
  0x2a8f	int3   	
  0x2a90	int3   	
  === BLOCK LINK ===
    0x2a91
=== CODE BLOCK END ===

=== CODE BLOCK ADDRESS 0x2a91 ===
  0x2a91	int3   	
  0x2a92	int3   	
  0x2a93	int3   	
  0x2a94	int3   	
  0x2a95	int3   	
  === BLOCK LINK ===
    0x2a96
=== CODE BLOCK END ===

=== CODE BLOCK ADDRESS 0x2a96 ===
  0x2a96	int3   	
  0x2a97	int3   	
  0x2a98	int3   	
  0x2a99	int3   	
  0x2a9a	int3   	
  === BLOCK LINK ===
    0x2a9b
=== CODE BLOCK END ===

=== CODE BLOCK ADDRESS 0x2a9b ===
  0x2a9b	int3   	
  0x2a9c	int3   	
  0x2a9d	int3   	
  0x2a9e	int3   	
  0x2a9f	int3   	
  === BLOCK LINK ===
    0x2aa0
=== CODE BLOCK END ===

=== CODE BLOCK ADDRESS 0x2aa0 ===
  0x2aa0	dec    	eax
  0x2aa1	sub    	esp, 0x28
  0x2aa4	call   	0x2d34
  === BLOCK LINK ===
    0x2aa9
=== CODE BLOCK END ===

=== CODE BLOCK ADDRESS 0x2aa9 ===
  0x2aa9	dec    	eax
  0x2aaa	add    	esp, 0x28
  0x2aad	jmp    	0x28d0
  === BLOCK LINK ===
    0x2ab2
=== CODE BLOCK END ===

=== CODE BLOCK ADDRESS 0x2ab2 ===
  0x2ab2	int3   	
  0x2ab3	int3   	
  0x2ab4	int3   	
  0x2ab5	int3   	
  0x2ab6	int3   	
  === BLOCK LINK ===
    0x2ab7
=== CODE BLOCK END ===

=== CODE BLOCK ADDRESS 0x2ab7 ===
  0x2ab7	int3   	
  0x2ab8	int3   	
  0x2ab9	int3   	
  0x2aba	int3   	
  0x2abb	int3   	
  === BLOCK LINK ===
    0x2abc
=== CODE BLOCK END ===

=== CODE BLOCK ADDRESS 0x2abc ===
  0x2abc	int3   	
  0x2abd	int3   	
  0x2abe	int3   	
  0x2abf	int3   	
  0x2ac0	int3   	
  === BLOCK LINK ===
    0x2ac1
=== CODE BLOCK END ===

=== CODE BLOCK ADDRESS 0x2ac1 ===
  0x2ac1	int3   	
  0x2ac2	int3   	
  0x2ac3	int3   	
  0x2ac4	int3   	
  0x2ac5	int3   	
  === BLOCK LINK ===
    0x2ac6
=== CODE BLOCK END ===

=== CODE BLOCK ADDRESS 0x2ac6 ===
  0x2ac6	nop    	word ptr [eax + eax]
  0x2ad0	dec    	eax
  0x2ad1	cmp    	ecx, dword ptr [0x3531]
  0x2ad7	jne    	0x2ae9
  === BLOCK LINK ===
    0x2ad9
=== CODE BLOCK END ===

=== CODE BLOCK ADDRESS 0x2ad9 ===
  0x2ad9	dec    	eax
  0x2ada	rol    	ecx, 0x10
  0x2add	test   	cx, 0xffff
  0x2ae2	jne    	0x2ae5
  === BLOCK LINK ===
    0x2ae4
=== CODE BLOCK END ===

=== CODE BLOCK ADDRESS 0x2ae4 ===
  0x2ae4	ret    	
  0x2ae5	dec    	eax
  0x2ae6	ror    	ecx, 0x10
  0x2ae9	jmp    	0x2e80
  === BLOCK LINK ===
    0x2aee
=== CODE BLOCK END ===

=== CODE BLOCK ADDRESS 0x129d ===
=== CODE BLOCK END ===

=== CODE BLOCK ADDRESS 0x2aee ===
  0x2aee	int3   	
  0x2aef	int3   	
  0x2af0	int3   	
  0x2af1	int3   	
  0x2af2	int3   	
  === BLOCK LINK ===
    0x2af3
=== CODE BLOCK END ===

=== CODE BLOCK ADDRESS 0x2af3 ===
  0x2af3	int3   	
  0x2af4	jmp    	dword ptr [0x189e]
  === BLOCK LINK ===
    0x2afa
=== CODE BLOCK END ===

=== CODE BLOCK ADDRESS 0x2afa ===
  0x2afa	int3   	
  0x2afb	int3   	
  0x2afc	int3   	
  0x2afd	int3   	
  0x2afe	int3   	
  === BLOCK LINK ===
    0x2aff
=== CODE BLOCK END ===

=== CODE BLOCK ADDRESS 0x2aff ===
  0x2aff	int3   	
  0x2b00	jmp    	dword ptr [0x188a]
  === BLOCK LINK ===
    0x2b06
=== CODE BLOCK END ===

=== CODE BLOCK ADDRESS 0x2b06 ===
  0x2b06	int3   	
  0x2b07	int3   	
  0x2b08	int3   	
  0x2b09	int3   	
  0x2b0a	int3   	
  === BLOCK LINK ===
    0x2b0b
=== CODE BLOCK END ===

=== CODE BLOCK ADDRESS 0x2b0b ===
  0x2b0b	int3   	
  0x2b0c	jmp    	dword ptr [0x18a6]
  === BLOCK LINK ===
    0x2b12
=== CODE BLOCK END ===

=== CODE BLOCK ADDRESS 0x2b12 ===
  0x2b12	int3   	
  0x2b13	int3   	
  0x2b14	int3   	
  0x2b15	int3   	
  0x2b16	int3   	
  === BLOCK LINK ===
    0x2b17
=== CODE BLOCK END ===

=== CODE BLOCK ADDRESS 0x2b17 ===
  0x2b17	int3   	
  0x2b18	int3   	
  0x2b19	int3   	
  0x2b1a	int3   	
  0x2b1b	int3   	
  === BLOCK LINK ===
    0x2b1c
=== CODE BLOCK END ===

=== CODE BLOCK ADDRESS 0x2b1c ===
  0x2b1c	int3   	
  0x2b1d	int3   	
  0x2b1e	int3   	
  0x2b1f	int3   	
  0x2b20	dec    	eax
  === BLOCK LINK ===
    0x2b21
=== CODE BLOCK END ===

=== CODE BLOCK ADDRESS 0x2b21 ===
  0x2b21	sub    	esp, 0x28
  0x2b24	dec    	eax
  0x2b25	mov    	eax, dword ptr [ecx]
  0x2b27	cmp    	dword ptr [eax], 0xe06d7363
  0x2b2d	jne    	0x2b52
  === BLOCK LINK ===
    0x2b2f
=== CODE BLOCK END ===

=== CODE BLOCK ADDRESS 0x2b2f ===
  0x2b2f	cmp    	dword ptr [eax + 0x18], 4
  0x2b33	jne    	0x2b52
  === BLOCK LINK ===
    0x2b35
=== CODE BLOCK END ===

=== CODE BLOCK ADDRESS 0x2b35 ===
  0x2b35	mov    	ecx, dword ptr [eax + 0x20]
  0x2b38	lea    	eax, [ecx - 0x19930520]
  0x2b3e	cmp    	eax, 2
  0x2b41	jbe    	0x2b4b
  === BLOCK LINK ===
    0x2b43
=== CODE BLOCK END ===

=== CODE BLOCK ADDRESS 0x2b43 ===
  0x2b43	cmp    	ecx, 0x1994000
  0x2b49	jne    	0x2b52
  === BLOCK LINK ===
    0x2b4b
=== CODE BLOCK END ===

=== CODE BLOCK ADDRESS 0x2b4b ===
  0x2b4b	call   	dword ptr [0x17e7]
  === BLOCK LINK ===
    0x2b51
=== CODE BLOCK END ===

=== CODE BLOCK ADDRESS 0x2b51 ===
  0x2b51	int3   	
  0x2b52	xor    	eax, eax
  0x2b54	dec    	eax
  0x2b55	add    	esp, 0x28
  0x2b58	ret    	
  === BLOCK LINK ===
    0x2b59
=== CODE BLOCK END ===

=== CODE BLOCK ADDRESS 0x12e5 ===
  0x12e5	dec    	eax
  0x12e6	mov    	ebx, dword ptr [esp + 8]
  0x12ea	inc    	ecx
  0x12eb	mov    	eax, ecx
  === BLOCK LINK ===
    0x12ed
=== CODE BLOCK END ===

=== CODE BLOCK ADDRESS 0x2b59 ===
  0x2b59	int3   	
  0x2b5a	int3   	
  0x2b5b	int3   	
  0x2b5c	int3   	
  0x2b5d	int3   	
  === BLOCK LINK ===
    0x2b5e
=== CODE BLOCK END ===

=== CODE BLOCK ADDRESS 0x2b5e ===
  0x2b5e	int3   	
  0x2b5f	int3   	
  0x2b60	dec    	eax
  0x2b61	sub    	esp, 0x28
  0x2b64	dec    	eax
  === BLOCK LINK ===
    0x2b65
=== CODE BLOCK END ===

=== CODE BLOCK ADDRESS 0x2b65 ===
  0x2b65	lea    	ecx, [0xffffffb5]
  0x2b6b	call   	dword ptr [0x1707]
  === BLOCK LINK ===
    0x2b71
=== CODE BLOCK END ===

=== CODE BLOCK ADDRESS 0x2b71 ===
  0x2b71	xor    	eax, eax
  0x2b73	dec    	eax
  0x2b74	add    	esp, 0x28
  0x2b77	ret    	
  0x2b78	int3   	
  === BLOCK LINK ===
    0x2b79
=== CODE BLOCK END ===

=== CODE BLOCK ADDRESS 0x2b79 ===
  0x2b79	int3   	
  0x2b7a	int3   	
  0x2b7b	int3   	
  0x2b7c	int3   	
  0x2b7d	int3   	
  === BLOCK LINK ===
    0x2b7e
=== CODE BLOCK END ===

=== CODE BLOCK ADDRESS 0x2b7e ===
  0x2b7e	jmp    	dword ptr [0x1804]
  === BLOCK LINK ===
    0x2b84
=== CODE BLOCK END ===

=== CODE BLOCK ADDRESS 0x2b84 ===
  0x2b84	int3   	
  0x2b85	int3   	
  0x2b86	int3   	
  0x2b87	int3   	
  0x2b88	int3   	
  === BLOCK LINK ===
    0x2b89
=== CODE BLOCK END ===

=== CODE BLOCK ADDRESS 0x2b89 ===
  0x2b89	int3   	
  0x2b8a	int3   	
  0x2b8b	int3   	
  0x2b8c	dec    	eax
  0x2b8d	sub    	esp, 0x18
  === BLOCK LINK ===
    0x2b90
=== CODE BLOCK END ===

=== CODE BLOCK ADDRESS 0x2b90 ===
  0x2b90	xor    	edx, edx
  0x2b92	dec    	eax
  0x2b93	lea    	eax, [ecx - 1]
  0x2b96	dec    	eax
  0x2b97	cmp    	eax, -3
  === BLOCK LINK ===
    0x2b9a
=== CODE BLOCK END ===

=== CODE BLOCK ADDRESS 0x2b9a ===
  0x2b9a	ja     	0x2bd8
  === BLOCK LINK ===
    0x2b9c
=== CODE BLOCK END ===

=== CODE BLOCK ADDRESS 0x2b9c ===
  0x2b9c	mov    	eax, 0x5a4d
  0x2ba1	cmp    	word ptr [ecx], ax
  0x2ba4	jne    	0x2bd0
  === BLOCK LINK ===
    0x2ba6
=== CODE BLOCK END ===

=== CODE BLOCK ADDRESS 0x2ba6 ===
  0x2ba6	cmp    	dword ptr [ecx + 0x3c], edx
  0x2ba9	jl     	0x2bd0
  === BLOCK LINK ===
    0x2bab
=== CODE BLOCK END ===

=== CODE BLOCK ADDRESS 0x2bab ===
  0x2bab	cmp    	dword ptr [ecx + 0x3c], 0x10000000
  0x2bb2	jae    	0x2bd0
  === BLOCK LINK ===
    0x2bb4
=== CODE BLOCK END ===

=== CODE BLOCK ADDRESS 0x2bb4 ===
  0x2bb4	dec    	eax
  0x2bb5	arpl   	word ptr [ecx + 0x3c], ax
  0x2bb8	dec    	eax
  0x2bb9	add    	eax, ecx
  0x2bbb	dec    	eax
  === BLOCK LINK ===
    0x2bbc
=== CODE BLOCK END ===

=== CODE BLOCK ADDRESS 0x2bbc ===
  0x2bbc	mov    	dword ptr [esp], eax
  0x2bbf	cmp    	dword ptr [eax], 0x4550
  0x2bc5	dec    	eax
  0x2bc6	cmovne  	eax, edx
  0x2bc9	dec    	eax
  === BLOCK LINK ===
    0x2bca
=== CODE BLOCK END ===

=== CODE BLOCK ADDRESS 0x2bca ===
  0x2bca	mov    	edx, eax
  0x2bcc	dec    	eax
  0x2bcd	mov    	dword ptr [esp], eax
  0x2bd0	jmp    	0x2bd8
  === BLOCK LINK ===
    0x2bd2
=== CODE BLOCK END ===

=== CODE BLOCK ADDRESS 0x2bd2 ===
  0x2bd2	xor    	edx, edx
  0x2bd4	dec    	eax
  0x2bd5	mov    	dword ptr [esp], edx
  0x2bd8	dec    	eax
  0x2bd9	mov    	eax, edx
  === BLOCK LINK ===
    0x2bdb
=== CODE BLOCK END ===

=== CODE BLOCK ADDRESS 0x2bdb ===
  0x2bdb	dec    	eax
  0x2bdc	add    	esp, 0x18
  0x2bdf	ret    	
  0x2be0	int3   	
  0x2be1	int3   	
  === BLOCK LINK ===
    0x2be2
=== CODE BLOCK END ===

=== CODE BLOCK ADDRESS 0x2be2 ===
  0x2be2	int3   	
  0x2be3	int3   	
  0x2be4	int3   	
  0x2be5	int3   	
  0x2be6	int3   	
  === BLOCK LINK ===
    0x2be7
=== CODE BLOCK END ===

=== CODE BLOCK ADDRESS 0x2be7 ===
  0x2be7	int3   	
  0x2be8	inc    	eax
  0x2be9	push   	ebx
  0x2bea	dec    	eax
  0x2beb	sub    	esp, 0x20
  === BLOCK LINK ===
    0x2bee
=== CODE BLOCK END ===

=== CODE BLOCK ADDRESS 0x2bee ===
  0x2bee	mov    	ebx, ecx
  0x2bf0	xor    	ecx, ecx
  0x2bf2	call   	dword ptr [0x15e0]
  === BLOCK LINK ===
    0x2bf8
=== CODE BLOCK END ===

=== CODE BLOCK ADDRESS 0x2bf8 ===
  0x2bf8	dec    	eax
  0x2bf9	test   	eax, eax
  0x2bfb	je     	0x2c25
  === BLOCK LINK ===
    0x2bfd
=== CODE BLOCK END ===

=== CODE BLOCK ADDRESS 0x2bfd ===
  0x2bfd	dec    	eax
  0x2bfe	mov    	ecx, eax
  0x2c00	call   	0x2b8c
  === BLOCK LINK ===
    0x2c05
=== CODE BLOCK END ===

=== CODE BLOCK ADDRESS 0x2c05 ===
  0x2c05	dec    	eax
  0x2c06	test   	eax, eax
  0x2c08	je     	0x2c25
  === BLOCK LINK ===
    0x2c0a
=== CODE BLOCK END ===

=== CODE BLOCK ADDRESS 0x2c0a ===
  0x2c0a	mov    	ecx, 2
  0x2c0f	cmp    	word ptr [eax + 0x5c], cx
  0x2c13	jne    	0x2c19
  === BLOCK LINK ===
    0x2c15
=== CODE BLOCK END ===

=== CODE BLOCK ADDRESS 0x2c15 ===
  0x2c15	mov    	eax, ecx
  0x2c17	jmp    	0x2c27
  === BLOCK LINK ===
    0x2c19
=== CODE BLOCK END ===

=== CODE BLOCK ADDRESS 0x2c19 ===
  0x2c19	cmp    	word ptr [eax + 0x5c], 3
  0x2c1e	mov    	eax, 1
  0x2c23	je     	0x2c27
  === BLOCK LINK ===
    0x2c25
=== CODE BLOCK END ===

=== CODE BLOCK ADDRESS 0x2c25 ===
  0x2c25	mov    	eax, ebx
  0x2c27	dec    	eax
  0x2c28	add    	esp, 0x20
  0x2c2b	pop    	ebx
  0x2c2c	ret    	
  === BLOCK LINK ===
    0x2c2d
=== CODE BLOCK END ===

=== CODE BLOCK ADDRESS 0x2c2d ===
  0x2c2d	int3   	
  0x2c2e	int3   	
  0x2c2f	int3   	
  0x2c30	int3   	
  0x2c31	int3   	
  === BLOCK LINK ===
    0x2c32
=== CODE BLOCK END ===

=== CODE BLOCK ADDRESS 0x2c32 ===
  0x2c32	int3   	
  0x2c33	jmp    	dword ptr [0x1747]
  === BLOCK LINK ===
    0x2c39
=== CODE BLOCK END ===

=== CODE BLOCK ADDRESS 0x2c39 ===
  0x2c39	int3   	
  0x2c3a	int3   	
  0x2c3b	int3   	
  0x2c3c	int3   	
  0x2c3d	int3   	
  === BLOCK LINK ===
    0x2c3e
=== CODE BLOCK END ===

=== CODE BLOCK ADDRESS 0x2c3e ===
  0x2c3e	int3   	
  0x2c3f	int3   	
  0x2c40	xor    	eax, eax
  0x2c42	ret    	
  0x2c43	int3   	
  === BLOCK LINK ===
    0x2c44
=== CODE BLOCK END ===

=== CODE BLOCK ADDRESS 0x2c44 ===
  0x2c44	int3   	
  0x2c45	int3   	
  0x2c46	int3   	
  0x2c47	int3   	
  0x2c48	int3   	
  === BLOCK LINK ===
    0x2c49
=== CODE BLOCK END ===

=== CODE BLOCK ADDRESS 0x2c49 ===
  0x2c49	int3   	
  0x2c4a	int3   	
  0x2c4b	int3   	
  0x2c4c	int3   	
  0x2c4d	int3   	
  === BLOCK LINK ===
    0x2c4e
=== CODE BLOCK END ===

=== CODE BLOCK ADDRESS 0x2c4e ===
  0x2c4e	int3   	
  0x2c4f	int3   	
  0x2c50	dec    	esp
  0x2c51	arpl   	word ptr [ecx + 0x3c], ax
  0x2c54	inc    	ebp
  === BLOCK LINK ===
    0x2c55
=== CODE BLOCK END ===

=== CODE BLOCK ADDRESS 0x2c55 ===
  0x2c55	xor    	ecx, ecx
  0x2c57	dec    	esp
  0x2c58	add    	eax, ecx
  0x2c5a	dec    	esp
  0x2c5b	mov    	edx, edx
  === BLOCK LINK ===
    0x2c5d
=== CODE BLOCK END ===

=== CODE BLOCK ADDRESS 0x2c5d ===
  0x2c5d	inc    	ecx
  0x2c5e	movzx  	eax, word ptr [eax + 0x14]
  0x2c62	inc    	ebp
  0x2c63	movzx  	ebx, word ptr [eax + 6]
  0x2c67	dec    	eax
  === BLOCK LINK ===
    0x2c68
=== CODE BLOCK END ===

=== CODE BLOCK ADDRESS 0x2c68 ===
  0x2c68	add    	eax, 0x18
  0x2c6b	dec    	ecx
  0x2c6c	add    	eax, eax
  0x2c6e	inc    	ebp
  0x2c6f	test   	ebx, ebx
  === BLOCK LINK ===
    0x2c71
=== CODE BLOCK END ===

=== CODE BLOCK ADDRESS 0x2c71 ===
  0x2c71	je     	0x2c91
  === BLOCK LINK ===
    0x2c73
=== CODE BLOCK END ===

=== CODE BLOCK ADDRESS 0x2c73 ===
  0x2c73	mov    	edx, dword ptr [eax + 0xc]
  0x2c76	dec    	esp
  0x2c77	cmp    	edx, edx
  0x2c79	jb     	0x2c85
  === BLOCK LINK ===
    0x2c7b
=== CODE BLOCK END ===

=== CODE BLOCK ADDRESS 0x2c7b ===
  0x2c7b	mov    	ecx, dword ptr [eax + 8]
  0x2c7e	add    	ecx, edx
  0x2c80	dec    	esp
  0x2c81	cmp    	edx, ecx
  0x2c83	jb     	0x2c93
  === BLOCK LINK ===
    0x2c85
=== CODE BLOCK END ===

=== CODE BLOCK ADDRESS 0x2c85 ===
  0x2c85	inc    	ecx
  0x2c86	inc    	ecx
  0x2c88	dec    	eax
  0x2c89	add    	eax, 0x28
  0x2c8c	inc    	ebp
  === BLOCK LINK ===
    0x2c8d
=== CODE BLOCK END ===

=== CODE BLOCK ADDRESS 0x2c8d ===
  0x2c8d	cmp    	ecx, ebx
  0x2c8f	jb     	0x2c73
  === BLOCK LINK ===
    0x2c91
=== CODE BLOCK END ===

=== CODE BLOCK ADDRESS 0x2c91 ===
  0x2c91	xor    	eax, eax
  0x2c93	ret    	
  0x2c94	int3   	
  0x2c95	int3   	
  0x2c96	int3   	
  === BLOCK LINK ===
    0x2c97
=== CODE BLOCK END ===

=== CODE BLOCK ADDRESS 0x2c97 ===
  0x2c97	int3   	
  0x2c98	int3   	
  0x2c99	int3   	
  0x2c9a	int3   	
  0x2c9b	int3   	
  === BLOCK LINK ===
    0x2c9c
=== CODE BLOCK END ===

=== CODE BLOCK ADDRESS 0x2c9c ===
  0x2c9c	int3   	
  0x2c9d	int3   	
  0x2c9e	int3   	
  0x2c9f	int3   	
  0x2ca0	dec    	eax
  === BLOCK LINK ===
    0x2ca1
=== CODE BLOCK END ===

=== CODE BLOCK ADDRESS 0x2ca1 ===
  0x2ca1	mov    	dword ptr [esp + 8], ebx
  0x2ca5	push   	edi
  0x2ca6	dec    	eax
  0x2ca7	sub    	esp, 0x20
  0x2caa	dec    	eax
  === BLOCK LINK ===
    0x2cab
=== CODE BLOCK END ===

=== CODE BLOCK ADDRESS 0x2cab ===
  0x2cab	mov    	ebx, ecx
  0x2cad	dec    	eax
  0x2cae	lea    	edi, [0xffffd34c]
  0x2cb4	dec    	eax
  0x2cb5	mov    	ecx, edi
  === BLOCK LINK ===
    0x2cb7
=== CODE BLOCK END ===

=== CODE BLOCK ADDRESS 0x2cb7 ===
  0x2cb7	call   	0x2d00
  === BLOCK LINK ===
    0x2cbc
=== CODE BLOCK END ===

=== CODE BLOCK ADDRESS 0x2cbc ===
  0x2cbc	test   	eax, eax
  0x2cbe	je     	0x2ce2
  === BLOCK LINK ===
    0x2cc0
=== CODE BLOCK END ===

=== CODE BLOCK ADDRESS 0x2cc0 ===
  0x2cc0	dec    	eax
  0x2cc1	sub    	ebx, edi
  0x2cc3	dec    	eax
  0x2cc4	mov    	edx, ebx
  0x2cc6	dec    	eax
  === BLOCK LINK ===
    0x2cc7
=== CODE BLOCK END ===

=== CODE BLOCK ADDRESS 0x2cc7 ===
  0x2cc7	mov    	ecx, edi
  0x2cc9	call   	0x2c50
  === BLOCK LINK ===
    0x2cce
=== CODE BLOCK END ===

=== CODE BLOCK ADDRESS 0x2cce ===
  0x2cce	dec    	eax
  0x2ccf	test   	eax, eax
  0x2cd1	je     	0x2ce2
  === BLOCK LINK ===
    0x2cd3
=== CODE BLOCK END ===

=== CODE BLOCK ADDRESS 0x2cd3 ===
  0x2cd3	mov    	eax, dword ptr [eax + 0x24]
  0x2cd6	shr    	eax, 0x1f
  0x2cd9	not    	eax
  0x2cdb	and    	eax, 1
  0x2cde	jmp    	0x2ce2
  === BLOCK LINK ===
    0x2ce0
=== CODE BLOCK END ===

=== CODE BLOCK ADDRESS 0x2ce0 ===
  0x2ce0	xor    	eax, eax
  0x2ce2	dec    	eax
  0x2ce3	mov    	ebx, dword ptr [esp + 0x30]
  0x2ce7	dec    	eax
  0x2ce8	add    	esp, 0x20
  === BLOCK LINK ===
    0x2ceb
=== CODE BLOCK END ===

=== CODE BLOCK ADDRESS 0x2ceb ===
  0x2ceb	pop    	edi
  0x2cec	ret    	
  0x2ced	int3   	
  0x2cee	int3   	
  0x2cef	int3   	
  === BLOCK LINK ===
    0x2cf0
=== CODE BLOCK END ===

=== CODE BLOCK ADDRESS 0x2cf0 ===
  0x2cf0	int3   	
  0x2cf1	int3   	
  0x2cf2	int3   	
  0x2cf3	int3   	
  0x2cf4	int3   	
  === BLOCK LINK ===
    0x2cf5
=== CODE BLOCK END ===

=== CODE BLOCK ADDRESS 0x2cf5 ===
  0x2cf5	int3   	
  0x2cf6	int3   	
  0x2cf7	int3   	
  0x2cf8	int3   	
  0x2cf9	int3   	
  === BLOCK LINK ===
    0x2cfa
=== CODE BLOCK END ===

=== CODE BLOCK ADDRESS 0x2cfa ===
  0x2cfa	int3   	
  0x2cfb	int3   	
  0x2cfc	int3   	
  0x2cfd	int3   	
  0x2cfe	int3   	
  === BLOCK LINK ===
    0x2cff
=== CODE BLOCK END ===

=== CODE BLOCK ADDRESS 0x2cff ===
  0x2cff	int3   	
  0x2d00	mov    	eax, 0x5a4d
  0x2d05	cmp    	word ptr [ecx], ax
  0x2d08	jne    	0x2d2a
  === BLOCK LINK ===
    0x2d0a
=== CODE BLOCK END ===

=== CODE BLOCK ADDRESS 0x2d0a ===
  0x2d0a	dec    	eax
  0x2d0b	arpl   	word ptr [ecx + 0x3c], ax
  0x2d0e	dec    	eax
  0x2d0f	add    	eax, ecx
  0x2d11	cmp    	dword ptr [eax], 0x4550
  === BLOCK LINK ===
    0x2d17
=== CODE BLOCK END ===

=== CODE BLOCK ADDRESS 0x2d17 ===
  0x2d17	jne    	0x2d2a
  === BLOCK LINK ===
    0x2d19
=== CODE BLOCK END ===

=== CODE BLOCK ADDRESS 0x2d19 ===
  0x2d19	mov    	ecx, 0x20b
  0x2d1e	cmp    	word ptr [eax + 0x18], cx
  0x2d22	jne    	0x2d2a
  === BLOCK LINK ===
    0x2d24
=== CODE BLOCK END ===

=== CODE BLOCK ADDRESS 0x2d24 ===
  0x2d24	mov    	eax, 1
  0x2d29	ret    	
  0x2d2a	xor    	eax, eax
  0x2d2c	ret    	
  0x2d2d	int3   	
  === BLOCK LINK ===
    0x2d2e
=== CODE BLOCK END ===

=== CODE BLOCK ADDRESS 0x135d ===
  0x135d	inc    	ebp
  0x135e	test   	ecx, ecx
  0x1360	js     	0x13be
  === BLOCK LINK ===
    0x1362
=== CODE BLOCK END ===

=== CODE BLOCK ADDRESS 0x2d2e ===
  0x2d2e	int3   	
  0x2d2f	int3   	
  0x2d30	int3   	
  0x2d31	int3   	
  0x2d32	int3   	
  === BLOCK LINK ===
    0x2d33
=== CODE BLOCK END ===

=== CODE BLOCK ADDRESS 0x2d33 ===
  0x2d33	int3   	
  0x2d34	dec    	eax
  0x2d35	mov    	dword ptr [esp + 0x20], ebx
  0x2d39	push   	ebp
  0x2d3a	dec    	eax
  === BLOCK LINK ===
    0x2d3b
=== CODE BLOCK END ===

=== CODE BLOCK ADDRESS 0x2d3b ===
  0x2d3b	mov    	ebp, esp
  0x2d3d	dec    	eax
  0x2d3e	sub    	esp, 0x20
  0x2d41	dec    	eax
  0x2d42	and    	dword ptr [ebp + 0x18], 0
  === BLOCK LINK ===
    0x2d46
=== CODE BLOCK END ===

=== CODE BLOCK ADDRESS 0x2d46 ===
  0x2d46	dec    	eax
  0x2d47	mov    	ebx, 0x2ddfa232
  0x2d4c	cdq    	
  0x2d4d	sub    	eax, dword ptr [eax]
  0x2d4f	add    	byte ptr [eax - 0x75], cl
  === BLOCK LINK ===
    0x2d52
=== CODE BLOCK END ===

=== CODE BLOCK ADDRESS 0x2d52 ===
  0x2d52	add    	eax, 0x32b1
  0x2d57	dec    	eax
  0x2d58	cmp    	eax, ebx
  0x2d5a	jne    	0x2df3
  === BLOCK LINK ===
    0x2d60
=== CODE BLOCK END ===

=== CODE BLOCK ADDRESS 0x2d60 ===
  0x2d60	dec    	eax
  0x2d61	lea    	ecx, [ebp + 0x18]
  0x2d64	call   	dword ptr [0x14ee]
  === BLOCK LINK ===
    0x2d6a
=== CODE BLOCK END ===

=== CODE BLOCK ADDRESS 0x2d6a ===
  0x2d6a	dec    	eax
  0x2d6b	mov    	eax, dword ptr [ebp + 0x18]
  0x2d6e	dec    	eax
  0x2d6f	mov    	dword ptr [ebp + 0x10], eax
  0x2d72	call   	dword ptr [0x14f0]
  === BLOCK LINK ===
    0x2d78
=== CODE BLOCK END ===

=== CODE BLOCK ADDRESS 0x2d78 ===
  0x2d78	mov    	eax, eax
  0x2d7a	dec    	eax
  0x2d7b	xor    	dword ptr [ebp + 0x10], eax
  0x2d7e	call   	dword ptr [0x14dc]
  === BLOCK LINK ===
    0x2d84
=== CODE BLOCK END ===

=== CODE BLOCK ADDRESS 0x2d84 ===
  0x2d84	mov    	eax, eax
  0x2d86	dec    	eax
  0x2d87	xor    	dword ptr [ebp + 0x10], eax
  0x2d8a	call   	dword ptr [0x14c0]
  === BLOCK LINK ===
    0x2d90
=== CODE BLOCK END ===

=== CODE BLOCK ADDRESS 0x2d90 ===
  0x2d90	mov    	eax, eax
  0x2d92	dec    	eax
  0x2d93	shl    	eax, 0x18
  0x2d96	dec    	eax
  0x2d97	xor    	dword ptr [ebp + 0x10], eax
  === BLOCK LINK ===
    0x2d9a
=== CODE BLOCK END ===

=== CODE BLOCK ADDRESS 0x2d9a ===
  0x2d9a	call   	dword ptr [0x14b0]
  === BLOCK LINK ===
    0x2da0
=== CODE BLOCK END ===

=== CODE BLOCK ADDRESS 0x2da0 ===
  0x2da0	mov    	eax, eax
  0x2da2	dec    	eax
  0x2da3	lea    	ecx, [ebp + 0x10]
  0x2da6	dec    	eax
  0x2da7	xor    	eax, dword ptr [ebp + 0x10]
  === BLOCK LINK ===
    0x2daa
=== CODE BLOCK END ===

=== CODE BLOCK ADDRESS 0x2daa ===
  0x2daa	dec    	eax
  0x2dab	xor    	eax, ecx
  0x2dad	dec    	eax
  0x2dae	lea    	ecx, [ebp + 0x20]
  0x2db1	dec    	eax
  === BLOCK LINK ===
    0x2db2
=== CODE BLOCK END ===

=== CODE BLOCK ADDRESS 0x2db2 ===
  0x2db2	mov    	dword ptr [ebp + 0x10], eax
  0x2db5	call   	dword ptr [0x14b5]
  === BLOCK LINK ===
    0x2dbb
=== CODE BLOCK END ===

=== CODE BLOCK ADDRESS 0x2dbb ===
  0x2dbb	mov    	eax, dword ptr [ebp + 0x20]
  0x2dbe	dec    	eax
  0x2dbf	mov    	ecx, 0xffffffff
  0x2dc4	.byte  	0xff
  0x2dc5	inc    	dword ptr [eax]
  === BLOCK LINK ===
    0x2dc7
=== CODE BLOCK END ===

=== CODE BLOCK ADDRESS 0x2dc7 ===
  0x2dc7	add    	byte ptr [eax - 0x3f], cl
  0x2dca	loopne  	0x2dec
  === BLOCK LINK ===
    0x2dcc
=== CODE BLOCK END ===

=== CODE BLOCK ADDRESS 0x2dcc ===
  0x2dcc	dec    	eax
  0x2dcd	xor    	eax, dword ptr [ebp + 0x20]
  0x2dd0	dec    	eax
  0x2dd1	xor    	eax, dword ptr [ebp + 0x10]
  0x2dd4	dec    	eax
  === BLOCK LINK ===
    0x2dd5
=== CODE BLOCK END ===

=== CODE BLOCK ADDRESS 0x2dd5 ===
  0x2dd5	and    	eax, ecx
  0x2dd7	dec    	eax
  0x2dd8	mov    	ecx, eax
  0x2dda	dec    	eax
  0x2ddb	cmp    	eax, ebx
  === BLOCK LINK ===
    0x2ddd
=== CODE BLOCK END ===

=== CODE BLOCK ADDRESS 0x2ddd ===
  0x2ddd	jne    	0x2dec
  === BLOCK LINK ===
    0x2ddf
=== CODE BLOCK END ===

=== CODE BLOCK ADDRESS 0x2ddf ===
  0x2ddf	dec    	eax
  0x2de0	mov    	eax, 0x2ddfa233
  0x2de5	cdq    	
  0x2de6	sub    	eax, dword ptr [eax]
  0x2de8	add    	byte ptr [eax - 0x75], cl
  === BLOCK LINK ===
    0x2deb
=== CODE BLOCK END ===

=== CODE BLOCK ADDRESS 0x2deb ===
  0x2deb	enter  	-0x76b8, 0xd
  0x2def	adc    	eax, 0x48000032
  0x2df4	mov    	ebx, dword ptr [esp + 0x48]
  0x2df8	dec    	eax
  0x2df9	not    	eax
  === BLOCK LINK ===
    0x2dfb
=== CODE BLOCK END ===

=== CODE BLOCK ADDRESS 0x2dfb ===
  0x2dfb	dec    	eax
  0x2dfc	mov    	dword ptr [0x320e], eax
  0x2e02	dec    	eax
  0x2e03	add    	esp, 0x20
  0x2e06	pop    	ebp
  === BLOCK LINK ===
    0x2e07
=== CODE BLOCK END ===

=== CODE BLOCK ADDRESS 0x2e07 ===
  0x2e07	ret    	
  0x2e08	int3   	
  0x2e09	int3   	
  0x2e0a	int3   	
  0x2e0b	int3   	
  === BLOCK LINK ===
    0x2e0c
=== CODE BLOCK END ===

=== CODE BLOCK ADDRESS 0x2e0c ===
  0x2e0c	int3   	
  0x2e0d	int3   	
  0x2e0e	jmp    	dword ptr [0x1534]
  === BLOCK LINK ===
    0x2e14
=== CODE BLOCK END ===

=== CODE BLOCK ADDRESS 0x2e14 ===
  0x2e14	int3   	
  0x2e15	int3   	
  0x2e16	int3   	
  0x2e17	int3   	
  0x2e18	int3   	
  === BLOCK LINK ===
    0x2e19
=== CODE BLOCK END ===

=== CODE BLOCK ADDRESS 0x2e19 ===
  0x2e19	int3   	
  0x2e1a	jmp    	dword ptr [0x1520]
  === BLOCK LINK ===
    0x2e20
=== CODE BLOCK END ===

=== CODE BLOCK ADDRESS 0x2e20 ===
  0x2e20	int3   	
  0x2e21	int3   	
  0x2e22	int3   	
  0x2e23	int3   	
  0x2e24	int3   	
  === BLOCK LINK ===
    0x2e25
=== CODE BLOCK END ===

=== CODE BLOCK ADDRESS 0x2e25 ===
  0x2e25	int3   	
  0x2e26	int3   	
  0x2e27	int3   	
  0x2e28	int3   	
  0x2e29	int3   	
  === BLOCK LINK ===
    0x2e2a
=== CODE BLOCK END ===

=== CODE BLOCK ADDRESS 0x2e2a ===
  0x2e2a	int3   	
  0x2e2b	int3   	
  0x2e2c	int3   	
  0x2e2d	int3   	
  0x2e2e	int3   	
  === BLOCK LINK ===
    0x2e2f
=== CODE BLOCK END ===

=== CODE BLOCK ADDRESS 0x2e2f ===
  0x2e2f	int3   	
  0x2e30	ret    	0
  0x2e33	int3   	
  0x2e34	int3   	
  0x2e35	int3   	
  === BLOCK LINK ===
    0x2e36
=== CODE BLOCK END ===

=== CODE BLOCK ADDRESS 0x2e36 ===
  0x2e36	int3   	
  0x2e37	int3   	
  0x2e38	int3   	
  0x2e39	int3   	
  0x2e3a	int3   	
  === BLOCK LINK ===
    0x2e3b
=== CODE BLOCK END ===

=== CODE BLOCK ADDRESS 0x2e3b ===
  0x2e3b	int3   	
  0x2e3c	inc    	eax
  0x2e3d	push   	ebx
  0x2e3e	dec    	eax
  0x2e3f	sub    	esp, 0x20
  === BLOCK LINK ===
    0x2e42
=== CODE BLOCK END ===

=== CODE BLOCK ADDRESS 0x2e42 ===
  0x2e42	dec    	eax
  0x2e43	mov    	ebx, ecx
  0x2e45	xor    	ecx, ecx
  0x2e47	call   	dword ptr [0x142b]
  === BLOCK LINK ===
    0x2e4d
=== CODE BLOCK END ===

=== CODE BLOCK ADDRESS 0x2e4d ===
  0x2e4d	dec    	eax
  0x2e4e	mov    	ecx, ebx
  0x2e50	call   	dword ptr [0x13da]
  === BLOCK LINK ===
    0x2e56
=== CODE BLOCK END ===

=== CODE BLOCK ADDRESS 0x2e56 ===
  0x2e56	call   	dword ptr [0x1434]
  === BLOCK LINK ===
    0x2e5c
=== CODE BLOCK END ===

=== CODE BLOCK ADDRESS 0x2e5c ===
  0x2e5c	dec    	eax
  0x2e5d	mov    	ecx, eax
  0x2e5f	mov    	edx, 0xc0000409
  0x2e64	dec    	eax
  0x2e65	add    	esp, 0x20
  === BLOCK LINK ===
    0x2e68
=== CODE BLOCK END ===

=== CODE BLOCK ADDRESS 0x2e68 ===
  0x2e68	pop    	ebx
  0x2e69	dec    	eax
  0x2e6a	jmp    	dword ptr [0x1418]
  === BLOCK LINK ===
    0x2e70
=== CODE BLOCK END ===

=== CODE BLOCK ADDRESS 0x2e70 ===
  0x2e70	int3   	
  0x2e71	int3   	
  0x2e72	int3   	
  0x2e73	int3   	
  0x2e74	int3   	
  === BLOCK LINK ===
    0x2e75
=== CODE BLOCK END ===

=== CODE BLOCK ADDRESS 0x2e75 ===
  0x2e75	int3   	
  0x2e76	int3   	
  0x2e77	int3   	
  0x2e78	int3   	
  0x2e79	int3   	
  === BLOCK LINK ===
    0x2e7a
=== CODE BLOCK END ===

=== CODE BLOCK ADDRESS 0x2e7a ===
  0x2e7a	int3   	
  0x2e7b	int3   	
  0x2e7c	int3   	
  0x2e7d	int3   	
  0x2e7e	int3   	
  === BLOCK LINK ===
    0x2e7f
=== CODE BLOCK END ===

=== CODE BLOCK ADDRESS 0x2e7f ===
  0x2e7f	int3   	
  0x2e80	dec    	eax
  0x2e81	mov    	dword ptr [esp + 8], ecx
  0x2e85	dec    	eax
  0x2e86	sub    	esp, 0x88
  === BLOCK LINK ===
    0x2e8c
=== CODE BLOCK END ===

=== CODE BLOCK ADDRESS 0x2e8c ===
  0x2e8c	dec    	eax
  0x2e8d	lea    	ecx, [0x326d]
  0x2e93	call   	dword ptr [0x13af]
  === BLOCK LINK ===
    0x2e99
=== CODE BLOCK END ===

=== CODE BLOCK ADDRESS 0x2e99 ===
  0x2e99	dec    	eax
  0x2e9a	mov    	eax, dword ptr [0x3358]
  0x2ea0	dec    	eax
  0x2ea1	mov    	dword ptr [esp + 0x48], eax
  0x2ea5	inc    	ebp
  === BLOCK LINK ===
    0x2ea6
=== CODE BLOCK END ===

=== CODE BLOCK ADDRESS 0x2ea6 ===
  0x2ea6	xor    	eax, eax
  0x2ea8	dec    	eax
  0x2ea9	lea    	edx, [esp + 0x50]
  0x2ead	dec    	eax
  0x2eae	mov    	ecx, dword ptr [esp + 0x48]
  === BLOCK LINK ===
    0x2eb2
=== CODE BLOCK END ===

=== CODE BLOCK ADDRESS 0x2eb2 ===
  0x2eb2	call   	dword ptr [0x1388]
  === BLOCK LINK ===
    0x2eb8
=== CODE BLOCK END ===

=== CODE BLOCK ADDRESS 0x2eb8 ===
  0x2eb8	dec    	eax
  0x2eb9	mov    	dword ptr [esp + 0x40], eax
  0x2ebd	dec    	eax
  0x2ebe	cmp    	dword ptr [esp + 0x40], 0
  0x2ec3	je     	0x2f07
  === BLOCK LINK ===
    0x2ec5
=== CODE BLOCK END ===

=== CODE BLOCK ADDRESS 0x2ec5 ===
  0x2ec5	dec    	eax
  0x2ec6	mov    	dword ptr [esp + 0x38], 0
  0x2ece	dec    	eax
  0x2ecf	lea    	eax, [esp + 0x58]
  0x2ed3	dec    	eax
  === BLOCK LINK ===
    0x2ed4
=== CODE BLOCK END ===

=== CODE BLOCK ADDRESS 0x2ed4 ===
  0x2ed4	mov    	dword ptr [esp + 0x30], eax
  0x2ed8	dec    	eax
  0x2ed9	lea    	eax, [esp + 0x60]
  0x2edd	dec    	eax
  0x2ede	mov    	dword ptr [esp + 0x28], eax
  === BLOCK LINK ===
    0x2ee2
=== CODE BLOCK END ===

=== CODE BLOCK ADDRESS 0x2ee2 ===
  0x2ee2	dec    	eax
  0x2ee3	lea    	eax, [0x3217]
  0x2ee9	dec    	eax
  0x2eea	mov    	dword ptr [esp + 0x20], eax
  0x2eee	dec    	esp
  === BLOCK LINK ===
    0x2eef
=== CODE BLOCK END ===

=== CODE BLOCK ADDRESS 0x2eef ===
  0x2eef	mov    	ecx, dword ptr [esp + 0x40]
  0x2ef3	dec    	esp
  0x2ef4	mov    	eax, dword ptr [esp + 0x48]
  0x2ef8	dec    	eax
  0x2ef9	mov    	edx, dword ptr [esp + 0x50]
  === BLOCK LINK ===
    0x2efd
=== CODE BLOCK END ===

=== CODE BLOCK ADDRESS 0x2efd ===
  0x2efd	xor    	ecx, ecx
  0x2eff	call   	dword ptr [0x1333]
  === BLOCK LINK ===
    0x2f05
=== CODE BLOCK END ===

=== CODE BLOCK ADDRESS 0x2f05 ===
  0x2f05	jmp    	0x2f2a
  === BLOCK LINK ===
    0x2f07
=== CODE BLOCK END ===

=== CODE BLOCK ADDRESS 0x2f07 ===
  0x2f07	dec    	eax
  0x2f08	mov    	eax, dword ptr [0x328a]
  0x2f0e	dec    	eax
  0x2f0f	mov    	eax, dword ptr [eax]
  0x2f11	dec    	eax
  === BLOCK LINK ===
    0x2f12
=== CODE BLOCK END ===

=== CODE BLOCK ADDRESS 0x2f12 ===
  0x2f12	mov    	dword ptr [0x32e0], eax
  0x2f18	dec    	eax
  0x2f19	mov    	eax, dword ptr [0x3279]
  0x2f1f	dec    	eax
  0x2f20	add    	eax, 8
  === BLOCK LINK ===
    0x2f23
=== CODE BLOCK END ===

=== CODE BLOCK ADDRESS 0x2f23 ===
  0x2f23	dec    	eax
  0x2f24	mov    	dword ptr [0x326e], eax
  0x2f2a	dec    	eax
  0x2f2b	mov    	eax, dword ptr [0x32c7]
  0x2f31	dec    	eax
  === BLOCK LINK ===
    0x2f32
=== CODE BLOCK END ===

=== CODE BLOCK ADDRESS 0x2f32 ===
  0x2f32	mov    	dword ptr [0x3138], eax
  0x2f38	dec    	eax
  0x2f39	mov    	eax, dword ptr [esp + 0x90]
  0x2f40	dec    	eax
  0x2f41	mov    	dword ptr [0x3239], eax
  === BLOCK LINK ===
    0x2f47
=== CODE BLOCK END ===

=== CODE BLOCK ADDRESS 0x2f47 ===
  0x2f47	mov    	dword ptr [0x310f], 0xc0000409
  0x2f51	mov    	dword ptr [0x3109], 1
  0x2f5b	mov    	dword ptr [0x3113], 3
  0x2f65	mov    	eax, 8
  0x2f6a	dec    	eax
  === BLOCK LINK ===
    0x2f6b
=== CODE BLOCK END ===

=== CODE BLOCK ADDRESS 0x2f6b ===
  0x2f6b	imul   	eax, eax, 0
  0x2f6e	dec    	eax
  0x2f6f	lea    	ecx, [0x310b]
  0x2f75	dec    	eax
  0x2f76	mov    	dword ptr [ecx + eax], 2
  === BLOCK LINK ===
    0x2f7d
=== CODE BLOCK END ===

=== CODE BLOCK ADDRESS 0x2f7d ===
  0x2f7d	mov    	eax, 8
  0x2f82	dec    	eax
  0x2f83	imul   	eax, eax, 1
  0x2f86	dec    	eax
  0x2f87	lea    	ecx, [0x30f3]
  === BLOCK LINK ===
    0x2f8d
=== CODE BLOCK END ===

=== CODE BLOCK ADDRESS 0x2f8d ===
  0x2f8d	dec    	eax
  0x2f8e	mov    	edx, dword ptr [0x3074]
  0x2f94	dec    	eax
  0x2f95	mov    	dword ptr [ecx + eax], edx
  0x2f98	mov    	eax, 8
  === BLOCK LINK ===
    0x2f9d
=== CODE BLOCK END ===

=== CODE BLOCK ADDRESS 0x2f9d ===
  0x2f9d	dec    	eax
  0x2f9e	imul   	eax, eax, 2
  0x2fa1	dec    	eax
  0x2fa2	lea    	ecx, [0x30d8]
  0x2fa8	dec    	eax
  === BLOCK LINK ===
    0x2fa9
=== CODE BLOCK END ===

=== CODE BLOCK ADDRESS 0x2fa9 ===
  0x2fa9	mov    	edx, dword ptr [0x3061]
  0x2faf	dec    	eax
  0x2fb0	mov    	dword ptr [ecx + eax], edx
  0x2fb3	mov    	eax, 8
  0x2fb8	dec    	eax
  === BLOCK LINK ===
    0x2fb9
=== CODE BLOCK END ===

=== CODE BLOCK ADDRESS 0x2fb9 ===
  0x2fb9	imul   	eax, eax, 0
  0x2fbc	dec    	eax
  0x2fbd	mov    	ecx, dword ptr [0x3045]
  0x2fc3	dec    	eax
  0x2fc4	mov    	dword ptr [esp + eax + 0x68], ecx
  === BLOCK LINK ===
    0x2fc8
=== CODE BLOCK END ===

=== CODE BLOCK ADDRESS 0x2fc8 ===
  0x2fc8	mov    	eax, 8
  0x2fcd	dec    	eax
  0x2fce	imul   	eax, eax, 1
  0x2fd1	dec    	eax
  0x2fd2	mov    	ecx, dword ptr [0x3038]
  === BLOCK LINK ===
    0x2fd8
=== CODE BLOCK END ===

=== CODE BLOCK ADDRESS 0x2fd8 ===
  0x2fd8	dec    	eax
  0x2fd9	mov    	dword ptr [esp + eax + 0x68], ecx
  0x2fdd	dec    	eax
  0x2fde	lea    	ecx, [0x101c]
  0x2fe4	call   	0x2e3c
  === BLOCK LINK ===
    0x2fe9
=== CODE BLOCK END ===

=== CODE BLOCK ADDRESS 0x2fe9 ===
  0x2fe9	dec    	eax
  0x2fea	add    	esp, 0x88
  0x2ff0	ret    	
  0x2ff1	int3   	
  0x2ff2	int3   	
  === BLOCK LINK ===
    0x2ff3
=== CODE BLOCK END ===

=== CODE BLOCK ADDRESS 0x2ff3 ===
  0x2ff3	int3   	
  0x2ff4	int3   	
  0x2ff5	int3   	
  0x2ff6	int3   	
  0x2ff7	int3   	
  === BLOCK LINK ===
    0x2ff8
=== CODE BLOCK END ===

=== CODE BLOCK ADDRESS 0x2ff8 ===
  0x2ff8	int3   	
  0x2ff9	int3   	
  0x2ffa	int3   	
  0x2ffb	int3   	
  0x2ffc	int3   	
  === BLOCK LINK ===
    0x2ffd
=== CODE BLOCK END ===

=== CODE BLOCK ADDRESS 0x2ffd ===
  0x2ffd	int3   	
  0x2ffe	int3   	
  0x2fff	int3   	
  0x3000	int3   	
  0x3001	int3   	
  === BLOCK LINK ===
    0x3002
=== CODE BLOCK END ===

=== CODE BLOCK ADDRESS 0x3002 ===
  0x3002	int3   	
  0x3003	int3   	
  0x3004	int3   	
  0x3005	int3   	
  0x3006	int3   	
  === BLOCK LINK ===
    0x3007
=== CODE BLOCK END ===

=== CODE BLOCK ADDRESS 0x3007 ===
  0x3007	int3   	
  0x3008	dec    	eax
  0x3009	sub    	esp, 0x28
  0x300c	dec    	ebp
  0x300d	mov    	eax, dword ptr [ecx + 0x38]
  === BLOCK LINK ===
    0x3010
=== CODE BLOCK END ===

=== CODE BLOCK ADDRESS 0x3010 ===
  0x3010	dec    	eax
  0x3011	mov    	ecx, edx
  0x3013	dec    	ecx
  0x3014	mov    	edx, ecx
  0x3016	call   	0x302c
  === BLOCK LINK ===
    0x301b
=== CODE BLOCK END ===

=== CODE BLOCK ADDRESS 0x301b ===
  0x301b	mov    	eax, 1
  0x3020	dec    	eax
  0x3021	add    	esp, 0x28
  0x3024	ret    	
  0x3025	int3   	
  === BLOCK LINK ===
    0x3026
=== CODE BLOCK END ===

=== CODE BLOCK ADDRESS 0x3026 ===
  0x3026	int3   	
  0x3027	int3   	
  0x3028	int3   	
  0x3029	int3   	
  0x302a	int3   	
  === BLOCK LINK ===
    0x302b
=== CODE BLOCK END ===

=== CODE BLOCK ADDRESS 0x302b ===
  0x302b	int3   	
  0x302c	inc    	eax
  0x302d	push   	ebx
  0x302e	inc    	ebp
  0x302f	mov    	ebx, dword ptr [eax]
  === BLOCK LINK ===
    0x3031
=== CODE BLOCK END ===

=== CODE BLOCK ADDRESS 0x3031 ===
  0x3031	dec    	eax
  0x3032	mov    	ebx, edx
  0x3034	inc    	ecx
  0x3035	and    	ebx, 0xfffffff8
  0x3038	dec    	esp
  === BLOCK LINK ===
    0x3039
=== CODE BLOCK END ===

=== CODE BLOCK ADDRESS 0x3039 ===
  0x3039	mov    	ecx, ecx
  0x303b	inc    	ecx
  0x303c	test   	byte ptr [eax], 4
  0x303f	dec    	esp
  0x3040	mov    	edx, ecx
  === BLOCK LINK ===
    0x3042
=== CODE BLOCK END ===

=== CODE BLOCK ADDRESS 0x3042 ===
  0x3042	je     	0x3057
  === BLOCK LINK ===
    0x3044
=== CODE BLOCK END ===

=== CODE BLOCK ADDRESS 0x3044 ===
  0x3044	inc    	ecx
  0x3045	mov    	eax, dword ptr [eax + 8]
  0x3048	dec    	ebp
  0x3049	arpl   	word ptr [eax + 4], dx
  0x304c	neg    	eax
  === BLOCK LINK ===
    0x304e
=== CODE BLOCK END ===

=== CODE BLOCK ADDRESS 0x304e ===
  0x304e	dec    	esp
  0x304f	add    	edx, ecx
  0x3051	dec    	eax
  0x3052	arpl   	ax, cx
  0x3054	dec    	esp
  === BLOCK LINK ===
    0x3055
=== CODE BLOCK END ===

=== CODE BLOCK ADDRESS 0x3055 ===
  0x3055	and    	edx, ecx
  0x3057	dec    	ecx
  0x3058	arpl   	bx, ax
  0x305a	dec    	edx
  0x305b	mov    	edx, dword ptr [eax + edx]
  === BLOCK LINK ===
    0x305e
=== CODE BLOCK END ===

=== CODE BLOCK ADDRESS 0x305e ===
  0x305e	dec    	eax
  0x305f	mov    	eax, dword ptr [ebx + 0x10]
  0x3062	mov    	ecx, dword ptr [eax + 8]
  0x3065	dec    	eax
  0x3066	mov    	eax, dword ptr [ebx + 8]
  === BLOCK LINK ===
    0x3069
=== CODE BLOCK END ===

=== CODE BLOCK ADDRESS 0x3069 ===
  0x3069	test   	byte ptr [ecx + eax + 3], 0xf
  0x306e	je     	0x307b
  === BLOCK LINK ===
    0x3070
=== CODE BLOCK END ===

=== CODE BLOCK ADDRESS 0x3070 ===
  0x3070	movzx  	eax, byte ptr [ecx + eax + 3]
  0x3075	and    	eax, 0xfffffff0
  0x3078	dec    	esp
  0x3079	add    	ecx, eax
  0x307b	dec    	esp
  === BLOCK LINK ===
    0x307c
=== CODE BLOCK END ===

=== CODE BLOCK ADDRESS 0x307c ===
  0x307c	xor    	ecx, edx
  0x307e	dec    	ecx
  0x307f	mov    	ecx, ecx
  0x3081	pop    	ebx
  0x3082	jmp    	0x2ad0
  === BLOCK LINK ===
    0x3087
=== CODE BLOCK END ===

=== CODE BLOCK ADDRESS 0x3087 ===
  0x3087	int3   	
  0x3088	int3   	
  0x3089	int3   	
  0x308a	int3   	
  0x308b	int3   	
  === BLOCK LINK ===
    0x308c
=== CODE BLOCK END ===

=== CODE BLOCK ADDRESS 0x308c ===
  0x308c	int3   	
  0x308d	int3   	
  0x308e	int3   	
  0x308f	int3   	
  0x3090	int3   	
  === BLOCK LINK ===
    0x3091
=== CODE BLOCK END ===

=== CODE BLOCK ADDRESS 0x3091 ===
  0x3091	int3   	
  0x3092	int3   	
  0x3093	int3   	
  0x3094	int3   	
  0x3095	int3   	
  === BLOCK LINK ===
    0x3096
=== CODE BLOCK END ===

=== CODE BLOCK ADDRESS 0x3096 ===
  0x3096	jmp    	dword ptr [0x1324]
  === BLOCK LINK ===
    0x309c
=== CODE BLOCK END ===

=== CODE BLOCK ADDRESS 0x309c ===
  0x309c	int3   	
  0x309d	int3   	
  0x309e	int3   	
  0x309f	int3   	
  0x30a0	int3   	
  === BLOCK LINK ===
    0x30a1
=== CODE BLOCK END ===

=== CODE BLOCK ADDRESS 0x30a1 ===
  0x30a1	int3   	
  0x30a2	int3   	
  0x30a3	int3   	
  0x30a4	int3   	
  0x30a5	int3   	
  === BLOCK LINK ===
    0x30a6
=== CODE BLOCK END ===

=== CODE BLOCK ADDRESS 0x30a6 ===
  0x30a6	nop    	word ptr [eax + eax]
  0x30b0	jmp    	eax
  === BLOCK LINK ===
    0x30b2
=== CODE BLOCK END ===

=== CODE BLOCK ADDRESS 0x30b2 ===
  0x30b2	int3   	
  0x30b3	int3   	
  0x30b4	int3   	
  0x30b5	int3   	
  0x30b6	int3   	
  === BLOCK LINK ===
    0x30b7
=== CODE BLOCK END ===

=== CODE BLOCK ADDRESS 0x30b7 ===
  0x30b7	int3   	
  0x30b8	int3   	
  0x30b9	int3   	
  0x30ba	int3   	
  0x30bb	int3   	
  === BLOCK LINK ===
    0x30bc
=== CODE BLOCK END ===

=== CODE BLOCK ADDRESS 0x30bc ===
  0x30bc	int3   	
  0x30bd	int3   	
  0x30be	int3   	
  0x30bf	int3   	
  0x30c0	int3   	
  === BLOCK LINK ===
    0x30c1
=== CODE BLOCK END ===

=== CODE BLOCK ADDRESS 0x30c1 ===
  0x30c1	int3   	
  0x30c2	int3   	
  0x30c3	int3   	
  0x30c4	int3   	
  0x30c5	int3   	
  === BLOCK LINK ===
    0x30c6
=== CODE BLOCK END ===

=== CODE BLOCK ADDRESS 0x30c6 ===
  0x30c6	nop    	word ptr [eax + eax]
  0x30d0	dec    	eax
  0x30d1	sub    	esp, 0x10
  0x30d4	dec    	esp
  0x30d5	mov    	dword ptr [esp], edx
  === BLOCK LINK ===
    0x30d8
=== CODE BLOCK END ===

=== CODE BLOCK ADDRESS 0x30d8 ===
  0x30d8	dec    	esp
  0x30d9	mov    	dword ptr [esp + 8], ebx
  0x30dd	dec    	ebp
  0x30de	xor    	ebx, ebx
  0x30e0	dec    	esp
  === BLOCK LINK ===
    0x30e1
=== CODE BLOCK END ===

=== CODE BLOCK ADDRESS 0x30e1 ===
  0x30e1	lea    	edx, [esp + 0x18]
  0x30e5	dec    	esp
  0x30e6	sub    	edx, eax
  0x30e8	dec    	ebp
  0x30e9	cmovb  	edx, ebx
  === BLOCK LINK ===
    0x30ec
=== CODE BLOCK END ===

=== CODE BLOCK ADDRESS 0x30ec ===
  0x30ec	dec    	esp
  0x30ee	mov    	ebx, dword ptr [0x10]
  0x30f5	dec    	ebp
  0x30f6	cmp    	edx, ebx
  0x30f8	jae    	0x310f
  === BLOCK LINK ===
    0x30fa
=== CODE BLOCK END ===

=== CODE BLOCK ADDRESS 0x30fa ===
  0x30fa	inc    	cx
  0x30fc	and    	edx, 0x8d4df000
  0x3102	wait   	
  0x3103	add    	al, dh
  0x3105	.byte  	0xff
  === BLOCK LINK ===
    0x3106
=== CODE BLOCK END ===

=== CODE BLOCK ADDRESS 0x3106 ===
  0x3106	inc    	dword ptr [ebp - 0x7c]
  0x3109	sbb    	ecx, dword ptr [ebp + 0x3b]
  0x310c	sal    	dword ptr [edx - 0xf], cl
  0x310f	dec    	esp
  0x3110	mov    	edx, dword ptr [esp]
  === BLOCK LINK ===
    0x3113
=== CODE BLOCK END ===

=== CODE BLOCK ADDRESS 0x3113 ===
  0x3113	dec    	esp
  0x3114	mov    	ebx, dword ptr [esp + 8]
  0x3118	dec    	eax
  0x3119	add    	esp, 0x10
  0x311c	ret    	
  === BLOCK LINK ===
    0x311d
=== CODE BLOCK END ===

=== CODE BLOCK ADDRESS 0x311d ===
  0x311d	int3   	
  0x311e	int3   	
  0x311f	int3   	
  0x3120	int3   	
  0x3121	int3   	
  === BLOCK LINK ===
    0x3122
=== CODE BLOCK END ===

=== CODE BLOCK ADDRESS 0x3122 ===
  0x3122	int3   	
  0x3123	inc    	eax
  0x3124	push   	ebp
  0x3125	dec    	eax
  0x3126	sub    	esp, 0x20
  === BLOCK LINK ===
    0x3129
=== CODE BLOCK END ===

=== CODE BLOCK ADDRESS 0x3129 ===
  0x3129	dec    	eax
  0x312a	mov    	ebp, edx
  0x312c	dec    	eax
  0x312d	mov    	eax, dword ptr [ecx]
  0x312f	dec    	eax
  === BLOCK LINK ===
    0x3130
=== CODE BLOCK END ===

=== CODE BLOCK ADDRESS 0x3130 ===
  0x3130	mov    	edx, ecx
  0x3132	mov    	ecx, dword ptr [eax]
  0x3134	call   	0x2b7e
  === BLOCK LINK ===
    0x3139
=== CODE BLOCK END ===

=== CODE BLOCK ADDRESS 0x3139 ===
  0x3139	nop    	
  0x313a	dec    	eax
  0x313b	add    	esp, 0x20
  0x313e	pop    	ebp
  0x313f	ret    	
  === BLOCK LINK ===
    0x3140
=== CODE BLOCK END ===

=== CODE BLOCK ADDRESS 0x3140 ===
  0x3140	int3   	
  0x3141	int3   	
  0x3142	int3   	
  0x3143	int3   	
  0x3144	int3   	
  === BLOCK LINK ===
    0x3145
=== CODE BLOCK END ===

=== CODE BLOCK ADDRESS 0x3145 ===
  0x3145	int3   	
  0x3146	int3   	
  0x3147	int3   	
  0x3148	int3   	
  0x3149	int3   	
  === BLOCK LINK ===
    0x314a
=== CODE BLOCK END ===

=== CODE BLOCK ADDRESS 0x314a ===
  0x314a	int3   	
  0x314b	int3   	
  0x314c	int3   	
  0x314d	int3   	
  0x314e	int3   	
  === BLOCK LINK ===
    0x314f
=== CODE BLOCK END ===

=== CODE BLOCK ADDRESS 0x314f ===
  0x314f	int3   	
  0x3150	inc    	eax
  0x3151	push   	ebp
  0x3152	dec    	eax
  0x3153	sub    	esp, 0x20
  === BLOCK LINK ===
    0x3156
=== CODE BLOCK END ===

=== CODE BLOCK ADDRESS 0x3156 ===
  0x3156	dec    	eax
  0x3157	mov    	ebp, edx
  0x3159	dec    	eax
  0x315a	mov    	eax, dword ptr [ecx]
  0x315c	xor    	ecx, ecx
  === BLOCK LINK ===
    0x315e
=== CODE BLOCK END ===

=== CODE BLOCK ADDRESS 0x315e ===
  0x315e	cmp    	dword ptr [eax], 0xc0000005
  0x3164	sete   	cl
  0x3167	mov    	eax, ecx
  0x3169	dec    	eax
  0x316a	add    	esp, 0x20
  === BLOCK LINK ===
    0x316d
=== CODE BLOCK END ===

=== CODE BLOCK ADDRESS 0x316d ===
  0x316d	pop    	ebp
  0x316e	ret    	
  0x316f	int3   	
  0x3170	add    	byte ptr [eax], al
  0x3172	add    	byte ptr [eax], al
  === BLOCK LINK ===
    0x3174
=== CODE BLOCK END ===

=== CODE BLOCK ADDRESS 0x3174 ===
  0x3174	add    	byte ptr [eax], al
  0x3176	add    	byte ptr [eax], al
  0x3178	add    	byte ptr [eax], al
  0x317a	add    	byte ptr [eax], al
  0x317c	add    	byte ptr [eax], al
  === BLOCK LINK ===
    0x317e
=== CODE BLOCK END ===

=== CODE BLOCK ADDRESS 0x317e ===
  0x317e	add    	byte ptr [eax], al
  0x3180	add    	byte ptr [eax], al
  0x3182	add    	byte ptr [eax], al
  0x3184	add    	byte ptr [eax], al
  0x3186	add    	byte ptr [eax], al
  === BLOCK LINK ===
    0x3188
=== CODE BLOCK END ===

=== CODE BLOCK ADDRESS 0x3188 ===
  0x3188	add    	byte ptr [eax], al
  0x318a	add    	byte ptr [eax], al
  0x318c	add    	byte ptr [eax], al
  0x318e	add    	byte ptr [eax], al
  0x3190	add    	byte ptr [eax], al
  === BLOCK LINK ===
    0x3192
=== CODE BLOCK END ===

=== CODE BLOCK ADDRESS 0x3192 ===
  0x3192	add    	byte ptr [eax], al
  0x3194	add    	byte ptr [eax], al
  0x3196	add    	byte ptr [eax], al
  0x3198	add    	byte ptr [eax], al
  0x319a	add    	byte ptr [eax], al
  === BLOCK LINK ===
    0x319c
=== CODE BLOCK END ===

=== CODE BLOCK ADDRESS 0x319c ===
  0x319c	add    	byte ptr [eax], al
  0x319e	add    	byte ptr [eax], al
  0x31a0	add    	byte ptr [eax], al
  0x31a2	add    	byte ptr [eax], al
  0x31a4	add    	byte ptr [eax], al
  === BLOCK LINK ===
    0x31a6
=== CODE BLOCK END ===

=== CODE BLOCK ADDRESS 0x31a6 ===
  0x31a6	add    	byte ptr [eax], al
  0x31a8	add    	byte ptr [eax], al
  0x31aa	add    	byte ptr [eax], al
  0x31ac	add    	byte ptr [eax], al
  0x31ae	add    	byte ptr [eax], al
  === BLOCK LINK ===
    0x31b0
=== CODE BLOCK END ===

=== CODE BLOCK ADDRESS 0x31b0 ===
  0x31b0	add    	byte ptr [eax], al
  0x31b2	add    	byte ptr [eax], al
  0x31b4	add    	byte ptr [eax], al
  0x31b6	add    	byte ptr [eax], al
  0x31b8	add    	byte ptr [eax], al
  === BLOCK LINK ===
    0x31ba
=== CODE BLOCK END ===

=== CODE BLOCK ADDRESS 0x31ba ===
  0x31ba	add    	byte ptr [eax], al
  0x31bc	add    	byte ptr [eax], al
  0x31be	add    	byte ptr [eax], al
  0x31c0	add    	byte ptr [eax], al
  0x31c2	add    	byte ptr [eax], al
  === BLOCK LINK ===
    0x31c4
=== CODE BLOCK END ===

=== CODE BLOCK ADDRESS 0x31c4 ===
  0x31c4	add    	byte ptr [eax], al
  0x31c6	add    	byte ptr [eax], al
  0x31c8	add    	byte ptr [eax], al
  0x31ca	add    	byte ptr [eax], al
  0x31cc	add    	byte ptr [eax], al
  === BLOCK LINK ===
    0x31ce
=== CODE BLOCK END ===

=== CODE BLOCK ADDRESS 0x31ce ===
  0x31ce	add    	byte ptr [eax], al
  0x31d0	add    	byte ptr [eax], al
  0x31d2	add    	byte ptr [eax], al
  0x31d4	add    	byte ptr [eax], al
  0x31d6	add    	byte ptr [eax], al
  === BLOCK LINK ===
    0x31d8
=== CODE BLOCK END ===

=== CODE BLOCK ADDRESS 0x31d8 ===
  0x31d8	add    	byte ptr [eax], al
  0x31da	add    	byte ptr [eax], al
  0x31dc	add    	byte ptr [eax], al
  0x31de	add    	byte ptr [eax], al
  0x31e0	add    	byte ptr [eax], al
  === BLOCK LINK ===
    0x31e2
=== CODE BLOCK END ===

=== CODE BLOCK ADDRESS 0x31e2 ===
  0x31e2	add    	byte ptr [eax], al
  0x31e4	add    	byte ptr [eax], al
  0x31e6	add    	byte ptr [eax], al
  0x31e8	add    	byte ptr [eax], al
  0x31ea	add    	byte ptr [eax], al
  === BLOCK LINK ===
    0x31ec
=== CODE BLOCK END ===

=== CODE BLOCK ADDRESS 0x31ec ===
  0x31ec	add    	byte ptr [eax], al
  0x31ee	add    	byte ptr [eax], al
  0x31f0	add    	byte ptr [eax], al
  0x31f2	add    	byte ptr [eax], al
  0x31f4	add    	byte ptr [eax], al
  === BLOCK LINK ===
    0x31f6
=== CODE BLOCK END ===

=== CODE BLOCK ADDRESS 0x31f6 ===
  0x31f6	add    	byte ptr [eax], al
  0x31f8	add    	byte ptr [eax], al
  0x31fa	add    	byte ptr [eax], al
  0x31fc	add    	byte ptr [eax], al
=== CODE BLOCK END ===

=== DATA BLOCK ADDRESS 0x4000 ===
  0x4000	60 60 00 40 01 00 00 00 00 61 00 40 01 00 00 00 	``0@00000a0@0000
  0x4010	10 10 00 40 01 00 00 00 40 12 00 40 01 00 00 00 	000@0000@00@0000
  0x4020	50 12 00 40 01 00 00 00 60 12 00 40 01 00 00 00 	P00@0000`00@0000
  0x4030	60 12 00 40 01 00 00 00 50 12 00 40 01 00 00 00 	`00@0000P00@0000
  0x4040	30 12 00 40 01 00 00 00 60 12 00 40 01 00 00 00 	000@0000`00@0000
  0x4050	40 12 00 40 01 00 00 00 30 12 00 40 01 00 00 00 	@00@0000000@0000
  0x4060	40 12 00 40 01 00 00 00 40 1c 00 40 01 00 00 00 	@00@0000@00@0000
  0x4070	40 12 00 40 01 00 00 00 80 1a 00 40 01 00 00 00 	@00@0000000@0000
  0x4080	00 1c 00 40 01 00 00 00 60 12 00 40 01 00 00 00 	000@0000`00@0000
  0x4090	50 12 00 40 01 00 00 00 30 12 00 40 01 00 00 00 	P00@0000000@0000
  0x40a0	60 12 00 40 01 00 00 00 40 12 00 40 01 00 00 00 	`00@0000@00@0000
  0x40b0	30 12 00 40 01 00 00 00 40 12 00 40 01 00 00 00 	000@0000@00@0000
  0x40c0	18 01 00 00 00 00 00 00 00 00 00 00 00 00 00 00 	0000000000000000
  0x40d0	00 00 00 00 00 00 00 00 00 00 00 00 00 00 00 00 	0000000000000000
  0x40e0	00 00 00 00 00 00 00 00 00 00 00 00 00 00 00 00 	0000000000000000
  0x40f0	00 00 00 00 00 00 00 00 00 00 00 00 00 00 00 00 	0000000000000000
  0x4100	00 00 00 00 00 00 00 00 00 00 00 00 00 00 00 00 	0000000000000000
  0x4110	00 00 00 00 00 00 00 00 08 60 00 40 01 00 00 00 	000000000`0@0000
  0x4120	00 00 00 00 00 00 00 00 00 00 00 00 00 00 00 00 	0000000000000000
  0x4130	d0 43 00 40 01 00 00 00 d8 43 00 40 01 00 00 00 	0C0@00000C0@0000
  0x4140	18 44 00 40 01 00 00 00 11 00 00 00 00 00 00 00 	0D0@000000000000
  0x4150	00 75 01 00 00 00 00 00 00 00 00 00 00 00 00 00 	0u00000000000000
  0x4160	00 00 00 00 00 00 00 00 00 00 00 00 00 00 00 00 	0000000000000000
  0x4170	00 00 00 00 00 00 00 00 00 00 00 00 00 00 00 00 	0000000000000000
  0x4180	00 00 00 00 00 00 00 00 00 00 00 00 00 00 00 00 	0000000000000000
  0x4190	00 00 00 00 00 00 00 00 00 00 00 00 00 00 00 00 	0000000000000000
  0x41a0	00 00 00 00 00 00 00 00 00 00 00 00 00 00 00 00 	0000000000000000
  0x41b0	00 00 00 00 00 00 00 00 00 00 00 00 00 00 00 00 	0000000000000000
  0x41c0	00 00 00 00 00 00 00 00 00 00 00 00 00 00 00 00 	0000000000000000
  0x41d0	00 00 00 00 00 00 00 00 68 4c 00 00 00 00 00 00 	00000000hL000000
  0x41e0	7c 4c 00 00 00 00 00 00 8e 4c 00 00 00 00 00 00 	|L0000000L000000
  0x41f0	9a 4c 00 00 00 00 00 00 aa 4c 00 00 00 00 00 00 	0L0000000L000000
  0x4200	c0 4c 00 00 00 00 00 00 d6 4c 00 00 00 00 00 00 	0L0000000L000000
  0x4210	e8 4c 00 00 00 00 00 00 f4 4c 00 00 00 00 00 00 	0L0000000L000000
  0x4220	02 4d 00 00 00 00 00 00 10 4d 00 00 00 00 00 00 	0M0000000M000000
  0x4230	28 50 00 00 00 00 00 00 14 50 00 00 00 00 00 00 	(P0000000P000000
  0x4240	fa 4f 00 00 00 00 00 00 e6 4f 00 00 00 00 00 00 	0O0000000O000000
  0x4250	d6 4f 00 00 00 00 00 00 bc 4f 00 00 00 00 00 00 	0O0000000O000000
  0x4260	a6 4f 00 00 00 00 00 00 90 4f 00 00 00 00 00 00 	0O0000000O000000
  0x4270	76 4f 00 00 00 00 00 00 58 4f 00 00 00 00 00 00 	vO000000XO000000
  0x4280	50 4f 00 00 00 00 00 00 58 50 00 00 00 00 00 00 	PO000000XP000000
  0x4290	44 50 00 00 00 00 00 00 00 00 00 00 00 00 00 00 	DP00000000000000
  0x42a0	16 4f 00 00 00 00 00 00 00 00 00 00 00 00 00 00 	0O00000000000000
  0x42b0	38 4f 00 00 00 00 00 00 00 00 00 00 00 00 00 00 	8O00000000000000
  0x42c0	04 4e 00 00 00 00 00 00 30 4d 00 00 00 00 00 00 	0N0000000M000000
  0x42d0	42 4d 00 00 00 00 00 00 56 4d 00 00 00 00 00 00 	BM000000VM000000
  0x42e0	f8 4d 00 00 00 00 00 00 bc 4d 00 00 00 00 00 00 	0M0000000M000000
  0x42f0	7a 4d 00 00 00 00 00 00 88 4d 00 00 00 00 00 00 	zM0000000M000000
  0x4300	94 4d 00 00 00 00 00 00 da 4d 00 00 00 00 00 00 	0M0000000M000000
  0x4310	e8 4d 00 00 00 00 00 00 6a 4d 00 00 00 00 00 00 	0M000000jM000000
  0x4320	aa 4d 00 00 00 00 00 00 ca 4d 00 00 00 00 00 00 	0M0000000M000000
  0x4330	00 00 00 00 00 00 00 00 02 4f 00 00 00 00 00 00 	000000000O000000
  0x4340	c8 4e 00 00 00 00 00 00 bc 4e 00 00 00 00 00 00 	0N0000000N000000
  0x4350	a8 4e 00 00 00 00 00 00 9e 4e 00 00 00 00 00 00 	0N0000000N000000
  0x4360	96 4e 00 00 00 00 00 00 8e 4e 00 00 00 00 00 00 	0N0000000N000000
  0x4370	7c 4e 00 00 00 00 00 00 6c 4e 00 00 00 00 00 00 	|N000000lN000000
  0x4380	5e 4e 00 00 00 00 00 00 50 4e 00 00 00 00 00 00 	^N000000PN000000
  0x4390	3a 4e 00 00 00 00 00 00 32 4e 00 00 00 00 00 00 	:N0000002N000000
  0x43a0	24 4e 00 00 00 00 00 00 ea 4e 00 00 00 00 00 00 	$N0000000N000000
  0x43b0	e0 4e 00 00 00 00 00 00 44 4e 00 00 00 00 00 00 	0N000000DN000000
  0x43c0	6c 50 00 00 00 00 00 00 00 00 00 00 00 00 00 00 	lP00000000000000
  0x43d0	30 2e 00 40 01 00 00 00 b0 30 00 40 01 00 00 00 	0.0@0000000@0000
  0x43e0	00 00 00 00 00 00 00 00 80 28 00 40 01 00 00 00 	000000000(0@0000
  0x43f0	00 00 00 00 00 00 00 00 00 00 00 00 00 00 00 00 	0000000000000000
  0x4400	a0 27 00 40 01 00 00 00 60 2b 00 40 01 00 00 00 	0'0@0000`+0@0000
  0x4410	00 00 00 00 00 00 00 00 10 10 00 00 a0 10 00 00 	0000000000000000
  0x4420	30 12 00 00 40 12 00 00 50 12 00 00 60 12 00 00 	0000@000P000`000
  0x4430	80 1a 00 00 00 1c 00 00 40 1c 00 00 a0 27 00 00 	00000000@0000'00
  0x4440	80 28 00 00 a0 2a 00 00 20 2b 00 00 60 2b 00 00 	0(000*00 +00`+00
  0x4450	40 2c 00 00 30 2e 00 00 80 2e 00 00 00 00 00 00 	@,000.000.000000
  0x4460	00 00 00 00 00 00 00 00 45 00 72 00 72 00 6f 00 	00000000E0r0r0o0
  0x4470	72 00 20 00 6d 00 65 00 73 00 73 00 61 00 67 00 	r0 0m0e0s0s0a0g0
  0x4480	65 00 20 00 6e 00 6f 00 74 00 20 00 66 00 6f 00 	e0 0n0o0t0 0f0o0
  0x4490	75 00 6e 00 64 00 2e 00 00 00 00 00 25 00 73 00 	u0n0d0.00000%0s0
  0x44a0	00 00 00 00 20 00 00 00 22 00 00 00 00 00 00 00 	0000 000"0000000
  0x44b0	22 00 20 00 22 00 00 00 2d 00 3f 00 00 00 00 00 	"0 0"000-0?00000
  0x44c0	2d 00 6c 00 3a 00 00 00 2d 00 63 00 3a 00 00 00 	-0l0:000-0c0:000
  0x44d0	2d 00 66 00 3a 00 00 00 2d 00 76 00 3a 00 00 00 	-0f0:000-0v0:000
  0x44e0	2d 00 43 00 4f 00 4d 00 50 00 55 00 54 00 45 00 	-0C0O0M0P0U0T0E0
  0x44f0	52 00 3a 00 00 00 00 00 2f 00 3f 00 00 00 00 00 	R0:00000/0?00000
  0x4500	2f 00 6c 00 3a 00 00 00 2f 00 63 00 3a 00 00 00 	/0l0:000/0c0:000
  0x4510	2f 00 66 00 3a 00 00 00 2f 00 76 00 3a 00 00 00 	/0f0:000/0v0:000
  0x4520	2f 00 43 00 4f 00 4d 00 50 00 55 00 54 00 45 00 	/0C0O0M0P0U0T0E0
  0x4530	52 00 3a 00 00 00 00 00 65 00 76 00 65 00 6e 00 	R0:00000e0v0e0n0
  0x4540	74 00 76 00 77 00 72 00 2e 00 6d 00 73 00 63 00 	t0v0w0r0.0m0s0c0
  0x4550	00 00 00 00 00 00 00 00 6d 00 6d 00 63 00 2e 00 	00000000m0m0c0.0
  0x4560	65 00 78 00 65 00 00 00 00 00 00 00 00 00 00 00 	e0x0e00000000000
  0x4570	00 00 00 00 00 00 00 00 01 7f 00 00 00 00 00 00 	0000000000000000
  0x4580	00 00 00 00 00 00 00 00 04 7f 00 00 00 00 00 00 	0000000000000000
  0x4590	00 00 00 00 a7 ed 8a cf 00 00 00 00 02 00 00 00 	0000000000000000
  0x45a0	25 00 00 00 e4 45 00 00 e4 2b 00 00 00 00 00 00 	%0000E000+000000
  0x45b0	a7 ed 8a cf 00 00 00 00 0d 00 00 00 f0 01 00 00 	0000000000000000
  0x45c0	0c 46 00 00 0c 2c 00 00 00 00 00 00 a7 ed 8a cf 	0F000,0000000000
  0x45d0	00 00 00 00 10 00 00 00 24 00 00 00 fc 47 00 00 	00000000$0000G00
  0x45e0	fc 2d 00 00 52 53 44 53 53 0d bb 3a 11 80 ac d0 	0-00RSDSS00:0000
  0x45f0	fb 7d 07 a5 ce 8c 7f 7c 01 00 00 00 65 76 65 6e 	0}00000|0000even
  0x4600	74 76 77 72 2e 70 64 62 00 00 00 00 47 43 54 4c 	tvwr.pdb0000GCTL
  0x4610	00 10 00 00 a0 20 00 00 2e 74 65 78 74 24 6d 6e 	00000 00.text$mn
  0x4620	00 00 00 00 a0 30 00 00 80 00 00 00 2e 74 65 78 	000000000000.tex
  0x4630	74 24 6d 6e 24 30 30 00 20 31 00 00 50 00 00 00 	t$mn$000 100P000
  0x4640	2e 74 65 78 74 24 78 00 00 40 00 00 d8 01 00 00 	.text$x00@000000
  0x4650	2e 72 64 61 74 61 24 62 72 63 00 00 d8 41 00 00 	.rdata$brc000A00
  0x4660	f8 01 00 00 2e 69 64 61 74 61 24 35 00 00 00 00 	0000.idata$50000
  0x4670	d0 43 00 00 10 00 00 00 2e 30 30 63 66 67 00 00 	0C000000.00cfg00
  0x4680	e0 43 00 00 08 00 00 00 2e 43 52 54 24 58 43 41 	0C000000.CRT$XCA
  0x4690	00 00 00 00 e8 43 00 00 08 00 00 00 2e 43 52 54 	00000C000000.CRT
  0x46a0	24 58 43 41 41 00 00 00 f0 43 00 00 08 00 00 00 	$XCAA0000C000000
  0x46b0	2e 43 52 54 24 58 43 5a 00 00 00 00 f8 43 00 00 	.CRT$XCZ00000C00
  0x46c0	08 00 00 00 2e 43 52 54 24 58 49 41 00 00 00 00 	0000.CRT$XIA0000
  0x46d0	00 44 00 00 08 00 00 00 2e 43 52 54 24 58 49 41 	0D000000.CRT$XIA
  0x46e0	41 00 00 00 08 44 00 00 08 00 00 00 2e 43 52 54 	A0000D000000.CRT
  0x46f0	24 58 49 59 00 00 00 00 10 44 00 00 08 00 00 00 	$XIY00000D000000
  0x4700	2e 43 52 54 24 58 49 5a 00 00 00 00 18 44 00 00 	.CRT$XIZ00000D00
  0x4710	48 00 00 00 2e 67 66 69 64 73 00 00 60 44 00 00 	H000.gfids00`D00
  0x4720	84 01 00 00 2e 72 64 61 74 61 00 00 e4 45 00 00 	0000.rdata000E00
  0x4730	3c 02 00 00 2e 72 64 61 74 61 24 7a 7a 7a 64 62 	<000.rdata$zzzdb
  0x4740	67 00 00 00 20 48 00 00 d4 01 00 00 2e 78 64 61 	g000 H000000.xda
  0x4750	74 61 00 00 f4 49 00 00 64 00 00 00 2e 69 64 61 	ta000I00d000.ida
  0x4760	74 61 24 32 00 00 00 00 58 4a 00 00 18 00 00 00 	ta$20000XJ000000
  0x4770	2e 69 64 61 74 61 24 33 00 00 00 00 70 4a 00 00 	.idata$30000pJ00
  0x4780	f8 01 00 00 2e 69 64 61 74 61 24 34 00 00 00 00 	0000.idata$40000
  0x4790	68 4c 00 00 0e 04 00 00 2e 69 64 61 74 61 24 36 	hL000000.idata$6
  0x47a0	00 00 00 00 00 60 00 00 20 00 00 00 2e 64 61 74 	00000`00 000.dat
  0x47b0	61 00 00 00 20 60 00 00 60 06 00 00 2e 62 73 73 	a000 `00`000.bss
  0x47c0	00 00 00 00 00 70 00 00 a4 01 00 00 2e 70 64 61 	00000p000000.pda
  0x47d0	74 61 00 00 00 80 00 00 c0 03 00 00 2e 72 73 72 	ta0000000000.rsr
  0x47e0	63 24 30 31 00 00 00 00 c0 83 00 00 d0 07 01 00 	c$01000000000000
  0x47f0	2e 72 73 72 63 24 30 32 00 00 00 00 20 00 00 00 	.rsrc$020000 000
  0x4800	53 0d bb 3a 11 80 ac d0 fb 7d 07 a5 ce 8c 7f 7c 	S00:00000}00000|
  0x4810	5d 54 0a 57 8c 16 2f a2 7b 9a 14 38 a7 ed 8a cf 	]T0W00/0{0080000
  0x4820	01 06 02 00 06 32 02 30 01 0a 04 00 0a 34 08 00 	0000020000000400
  0x4830	0a 52 06 70 01 18 0a 00 18 64 0d 00 18 54 0c 00 	0R0p00000d000T00
  0x4840	18 34 0a 00 18 52 14 f0 12 e0 10 70 01 05 02 00 	04000R00000p0000
  0x4850	05 34 01 00 01 12 05 00 12 42 0e 70 0d 60 0c 50 	040000000B0p0`0P
  0x4860	0b 30 00 00 19 33 04 00 22 01 5b 00 14 30 13 50 	00000300"0[0000P
  0x4870	08 30 00 00 c0 02 00 00 19 39 0b 00 28 f4 4f 02 	000000000900(0O0
  0x4880	28 74 4e 02 28 64 4d 02 28 34 4c 02 28 01 4a 02 	(tN0(dM0(4L0(0J0
  0x4890	14 50 00 00 08 30 00 00 40 12 00 00 01 18 0a 00 	0P000000@0000000
  0x48a0	18 64 0a 00 18 54 09 00 18 34 08 00 18 32 14 f0 	0d000T0004000200
  0x48b0	12 e0 10 70 19 2e 09 00 1d 64 82 01 1d 34 81 01 	000p0.000d000400
  0x48c0	1d 01 7c 01 0e e0 0c 70 0b 50 00 00 08 30 00 00 	00|0000p0P000000
  0x48d0	d0 0b 00 00 19 1f 05 00 0d 34 51 00 0d 01 4e 00 	0000000004Q000N0
  0x48e0	06 70 00 00 08 30 00 00 60 02 00 00 01 0f 06 00 	0p000000`0000000
  0x48f0	0f 64 09 00 0f 34 08 00 0f 52 0b 70 01 0a 04 00 	0d0004000R0p0000
  0x4900	0a 34 06 00 0a 32 06 70 19 37 0d 00 26 74 af 00 	0400020p0700&t00
  0x4910	26 64 ae 00 26 34 ad 00 26 01 a6 00 18 f0 16 e0 	&d00&400&0000000
  0x4920	14 d0 12 c0 10 50 00 00 08 30 00 00 20 05 00 00 	00000P000000 000
  0x4930	01 04 01 00 04 42 00 00 01 04 01 00 04 62 00 00 	00000B0000000b00
  0x4940	09 15 08 00 15 74 0a 00 15 64 09 00 15 34 08 00 	00000t000d000400
  0x4950	15 52 11 f0 1a 2e 00 00 01 00 00 00 e5 28 00 00 	0R000.0000000(00
  0x4960	4b 2a 00 00 23 31 00 00 4b 2a 00 00 01 06 02 00 	K*00#100K*000000
  0x4970	06 32 02 50 00 00 00 00 01 00 00 00 09 04 01 00 	020P000000000000
  0x4980	04 22 00 00 1a 2e 00 00 01 00 00 00 9c 2b 00 00 	0"000.0000000+00
  0x4990	d2 2b 00 00 01 00 00 00 d2 2b 00 00 09 0a 04 00 	0+0000000+000000
  0x49a0	0a 34 06 00 0a 32 06 70 1a 2e 00 00 01 00 00 00 	0400020p0.000000
  0x49b0	ad 2c 00 00 e0 2c 00 00 50 31 00 00 e0 2c 00 00 	0,000,00P1000,00
  0x49c0	01 0d 04 00 0d 34 09 00 0d 32 06 50 01 0c 02 00 	00000400020P0000
  0x49d0	0c 01 11 00 00 00 00 00 01 00 00 00 01 02 01 00 	0000000000000000
  0x49e0	02 30 00 00 00 00 00 00 02 04 03 00 01 16 00 06 	0000000000000000
  0x49f0	04 12 00 00 70 4a 00 00 00 00 00 00 00 00 00 00 	0000pJ0000000000
  0x4a00	22 4d 00 00 d8 41 00 00 58 4b 00 00 00 00 00 00 	"M000A00XK000000
  0x4a10	00 00 00 00 18 4e 00 00 c0 42 00 00 d0 4b 00 00 	00000N000B000K00
  0x4a20	00 00 00 00 00 00 00 00 f6 4e 00 00 38 43 00 00 	000000000N008C00
  0x4a30	38 4b 00 00 00 00 00 00 00 00 00 00 2c 4f 00 00 	8K0000000000,O00
  0x4a40	a0 42 00 00 48 4b 00 00 00 00 00 00 00 00 00 00 	0B00HK0000000000
  0x4a50	44 4f 00 00 b0 42 00 00 00 00 00 00 00 00 00 00 	DO000B0000000000
  0x4a60	00 00 00 00 00 00 00 00 00 00 00 00 00 00 00 00 	0000000000000000
  0x4a70	68 4c 00 00 00 00 00 00 7c 4c 00 00 00 00 00 00 	hL000000|L000000
  0x4a80	8e 4c 00 00 00 00 00 00 9a 4c 00 00 00 00 00 00 	0L0000000L000000
  0x4a90	aa 4c 00 00 00 00 00 00 c0 4c 00 00 00 00 00 00 	0L0000000L000000
  0x4aa0	d6 4c 00 00 00 00 00 00 e8 4c 00 00 00 00 00 00 	0L0000000L000000
  0x4ab0	f4 4c 00 00 00 00 00 00 02 4d 00 00 00 00 00 00 	0L0000000M000000
  0x4ac0	10 4d 00 00 00 00 00 00 28 50 00 00 00 00 00 00 	0M000000(P000000
  0x4ad0	14 50 00 00 00 00 00 00 fa 4f 00 00 00 00 00 00 	0P0000000O000000
  0x4ae0	e6 4f 00 00 00 00 00 00 d6 4f 00 00 00 00 00 00 	0O0000000O000000
  0x4af0	bc 4f 00 00 00 00 00 00 a6 4f 00 00 00 00 00 00 	0O0000000O000000
  0x4b00	90 4f 00 00 00 00 00 00 76 4f 00 00 00 00 00 00 	0O000000vO000000
  0x4b10	58 4f 00 00 00 00 00 00 50 4f 00 00 00 00 00 00 	XO000000PO000000
  0x4b20	58 50 00 00 00 00 00 00 44 50 00 00 00 00 00 00 	XP000000DP000000
  0x4b30	00 00 00 00 00 00 00 00 16 4f 00 00 00 00 00 00 	000000000O000000
  0x4b40	00 00 00 00 00 00 00 00 38 4f 00 00 00 00 00 00 	000000008O000000
  0x4b50	00 00 00 00 00 00 00 00 04 4e 00 00 00 00 00 00 	000000000N000000
  0x4b60	30 4d 00 00 00 00 00 00 42 4d 00 00 00 00 00 00 	0M000000BM000000
  0x4b70	56 4d 00 00 00 00 00 00 f8 4d 00 00 00 00 00 00 	VM0000000M000000
  0x4b80	bc 4d 00 00 00 00 00 00 7a 4d 00 00 00 00 00 00 	0M000000zM000000
  0x4b90	88 4d 00 00 00 00 00 00 94 4d 00 00 00 00 00 00 	0M0000000M000000
  0x4ba0	da 4d 00 00 00 00 00 00 e8 4d 00 00 00 00 00 00 	0M0000000M000000
  0x4bb0	6a 4d 00 00 00 00 00 00 aa 4d 00 00 00 00 00 00 	jM0000000M000000
  0x4bc0	ca 4d 00 00 00 00 00 00 00 00 00 00 00 00 00 00 	0M00000000000000
  0x4bd0	02 4f 00 00 00 00 00 00 c8 4e 00 00 00 00 00 00 	0O0000000N000000
  0x4be0	bc 4e 00 00 00 00 00 00 a8 4e 00 00 00 00 00 00 	0N0000000N000000
  0x4bf0	9e 4e 00 00 00 00 00 00 96 4e 00 00 00 00 00 00 	0N0000000N000000
  0x4c00	8e 4e 00 00 00 00 00 00 7c 4e 00 00 00 00 00 00 	0N000000|N000000
  0x4c10	6c 4e 00 00 00 00 00 00 5e 4e 00 00 00 00 00 00 	lN000000^N000000
  0x4c20	50 4e 00 00 00 00 00 00 3a 4e 00 00 00 00 00 00 	PN000000:N000000
  0x4c30	32 4e 00 00 00 00 00 00 24 4e 00 00 00 00 00 00 	2N000000$N000000
  0x4c40	ea 4e 00 00 00 00 00 00 e0 4e 00 00 00 00 00 00 	0N0000000N000000
  0x4c50	44 4e 00 00 00 00 00 00 6c 50 00 00 00 00 00 00 	DN000000lP000000
  0x4c60	00 00 00 00 00 00 00 00 80 02 47 65 74 4d 6f 64 	0000000000GetMod
  0x4c70	75 6c 65 48 61 6e 64 6c 65 57 00 00 af 01 46 6f 	uleHandleW0000Fo
  0x4c80	72 6d 61 74 4d 65 73 73 61 67 65 57 00 00 d5 03 	rmatMessageW0000
  0x4c90	4c 6f 63 61 6c 46 72 65 65 00 69 02 47 65 74 4c 	LocalFree0i0GetL
  0x4ca0	61 73 74 45 72 72 6f 72 00 00 58 03 48 65 61 70 	astError00X0Heap
  0x4cb0	53 65 74 49 6e 66 6f 72 6d 61 74 69 6f 6e 00 00 	SetInformation00
  0x4cc0	e9 02 47 65 74 53 79 73 74 65 6d 44 69 72 65 63 	00GetSystemDirec
  0x4cd0	74 6f 72 79 57 00 df 01 47 65 74 43 6f 6d 6d 61 	toryW000GetComma
  0x4ce0	6e 64 4c 69 6e 65 57 00 51 06 6c 73 74 72 6c 65 	ndLineW0Q0lstrle
  0x4cf0	6e 57 00 00 cd 00 43 72 65 61 74 65 46 69 6c 65 	nW0000CreateFile
  0x4d00	57 00 88 00 43 6c 6f 73 65 48 61 6e 64 6c 65 00 	W000CloseHandle0
  0x4d10	e7 00 43 72 65 61 74 65 50 72 6f 63 65 73 73 57 	00CreateProcessW
  0x4d20	00 00 4b 45 52 4e 45 4c 33 32 2e 64 6c 6c 00 00 	00KERNEL32.dll00
  0x4d30	ba 00 44 69 61 6c 6f 67 42 6f 78 50 61 72 61 6d 	00DialogBoxParam
  0x4d40	57 00 e8 01 47 65 74 57 69 6e 64 6f 77 4c 6f 6e 	W000GetWindowLon
  0x4d50	67 50 74 72 57 00 78 03 53 65 74 57 69 6e 64 6f 	gPtrW0x0SetWindo
  0x4d60	77 4c 6f 6e 67 50 74 72 57 00 b5 00 44 65 73 74 	wLongPtrW000Dest
  0x4d70	72 6f 79 57 69 6e 64 6f 77 00 67 02 4c 6f 61 64 	royWindow0g0Load
  0x4d80	53 74 72 69 6e 67 57 00 5a 02 4c 6f 61 64 49 63 	StringW0Z0LoadIc
  0x4d90	6f 6e 57 00 0f 03 53 65 6e 64 44 6c 67 49 74 65 	onW000SendDlgIte
  0x4da0	6d 4d 65 73 73 61 67 65 57 00 80 03 53 65 74 57 	mMessageW000SetW
  0x4db0	69 6e 64 6f 77 54 65 78 74 57 00 00 4c 01 47 65 	indowTextW00L0Ge
  0x4dc0	74 44 6c 67 49 74 65 6d 00 00 ef 00 45 6e 61 62 	tDlgItem0000Enab
  0x4dd0	6c 65 57 69 6e 64 6f 77 00 00 8c 03 53 68 6f 77 	leWindow0000Show
  0x4de0	57 69 6e 64 6f 77 00 00 18 03 53 65 6e 64 4d 65 	Window0000SendMe
  0x4df0	73 73 61 67 65 57 00 00 f2 00 45 6e 64 44 69 61 	ssageW0000EndDia
  0x4e00	6c 6f 67 00 db 03 57 61 69 74 46 6f 72 49 6e 70 	log000WaitForInp
  0x4e10	75 74 49 64 6c 65 00 00 55 53 45 52 33 32 2e 64 	utIdle00USER32.d
  0x4e20	6c 6c 00 00 69 03 5f 76 73 6e 77 70 72 69 6e 74 	ll00i0_vsnwprint
  0x4e30	66 00 4c 04 66 72 65 65 00 00 86 04 6d 61 6c 6c 	f0L0free0000mall
  0x4e40	6f 63 00 00 bf 00 5f 63 61 6c 6c 6e 65 77 68 00 	oc0000_callnewh0
  0x4e50	55 00 5f 58 63 70 74 46 69 6c 74 65 72 00 ae 00 	U0_XcptFilter000
  0x4e60	5f 61 6d 73 67 5f 65 78 69 74 00 00 7f 00 5f 5f 	_amsg_exit0000__
  0x4e70	67 65 74 6d 61 69 6e 61 72 67 73 00 8e 00 5f 5f 	getmainargs000__
  0x4e80	73 65 74 5f 61 70 70 5f 74 79 70 65 00 00 32 04 	set_app_type0020
  0x4e90	65 78 69 74 00 00 0e 01 5f 65 78 69 74 00 c1 00 	exit0000_exit000
  0x4ea0	5f 63 65 78 69 74 00 00 90 00 5f 5f 73 65 74 75 	_cexit0000__setu
  0x4eb0	73 65 72 6d 61 74 68 65 72 72 00 00 7d 01 5f 69 	sermatherr00}0_i
  0x4ec0	6e 69 74 74 65 72 6d 00 57 00 5f 5f 43 5f 73 70 	nitterm0W0__C_sp
  0x4ed0	65 63 69 66 69 63 5f 68 61 6e 64 6c 65 72 00 00 	ecific_handler00
  0x4ee0	27 01 5f 66 6d 6f 64 65 00 00 d2 00 5f 63 6f 6d 	'0_fmode0000_com
  0x4ef0	6d 6f 64 65 00 00 6d 73 76 63 72 74 2e 64 6c 6c 	mode00msvcrt.dll
  0x4f00	00 00 2f 00 3f 74 65 72 6d 69 6e 61 74 65 40 40 	00/0?terminate@@
  0x4f10	59 41 58 58 5a 00 08 00 43 6f 6d 6d 61 6e 64 4c 	YAXXZ000CommandL
  0x4f20	69 6e 65 54 6f 41 72 67 76 57 00 00 53 48 45 4c 	ineToArgvW00SHEL
  0x4f30	4c 33 32 2e 64 6c 6c 00 2b 01 53 74 72 43 6d 70 	L32.dll0+0StrCmp
  0x4f40	4e 49 57 00 53 48 4c 57 41 50 49 2e 64 6c 6c 00 	NIW0SHLWAPI.dll0
  0x4f50	8d 05 53 6c 65 65 70 00 7d 05 53 65 74 55 6e 68 	00Sleep0}0SetUnh
  0x4f60	61 6e 64 6c 65 64 45 78 63 65 70 74 69 6f 6e 46 	andledExceptionF
  0x4f70	69 6c 74 65 72 00 51 04 51 75 65 72 79 50 65 72 	ilter0Q0QueryPer
  0x4f80	66 6f 72 6d 61 6e 63 65 43 6f 75 6e 74 65 72 00 	formanceCounter0
  0x4f90	20 02 47 65 74 43 75 72 72 65 6e 74 50 72 6f 63 	 0GetCurrentProc
  0x4fa0	65 73 73 49 64 00 24 02 47 65 74 43 75 72 72 65 	essId0$0GetCurre
  0x4fb0	6e 74 54 68 72 65 61 64 49 64 00 00 f2 02 47 65 	ntThreadId0000Ge
  0x4fc0	74 53 79 73 74 65 6d 54 69 6d 65 41 73 46 69 6c 	tSystemTimeAsFil
  0x4fd0	65 54 69 6d 65 00 10 03 47 65 74 54 69 63 6b 43 	eTime000GetTickC
  0x4fe0	6f 75 6e 74 00 00 d4 04 52 74 6c 43 61 70 74 75 	ount0000RtlCaptu
  0x4ff0	72 65 43 6f 6e 74 65 78 74 00 db 04 52 74 6c 4c 	reContext000RtlL
  0x5000	6f 6f 6b 75 70 46 75 6e 63 74 69 6f 6e 45 6e 74 	ookupFunctionEnt
  0x5010	72 79 00 00 e2 04 52 74 6c 56 69 72 74 75 61 6c 	ry0000RtlVirtual
  0x5020	55 6e 77 69 6e 64 00 00 be 05 55 6e 68 61 6e 64 	Unwind0000Unhand
  0x5030	6c 65 64 45 78 63 65 70 74 69 6f 6e 46 69 6c 74 	ledExceptionFilt
  0x5040	65 72 00 00 1f 02 47 65 74 43 75 72 72 65 6e 74 	er0000GetCurrent
  0x5050	50 72 6f 63 65 73 73 00 9c 05 54 65 72 6d 69 6e 	Process000Termin
  0x5060	61 74 65 50 72 6f 63 65 73 73 00 00 96 04 6d 65 	ateProcess0000me
  0x5070	6d 73 65 74 00 00 00 00 00 00 00 00 00 00 00 00 	mset000000000000
  0x5080	00 00 00 00 00 00 00 00 00 00 00 00 00 00 00 00 	0000000000000000
  0x5090	00 00 00 00 00 00 00 00 00 00 00 00 00 00 00 00 	0000000000000000
  0x50a0	00 00 00 00 00 00 00 00 00 00 00 00 00 00 00 00 	0000000000000000
  0x50b0	00 00 00 00 00 00 00 00 00 00 00 00 00 00 00 00 	0000000000000000
  0x50c0	00 00 00 00 00 00 00 00 00 00 00 00 00 00 00 00 	0000000000000000
  0x50d0	00 00 00 00 00 00 00 00 00 00 00 00 00 00 00 00 	0000000000000000
  0x50e0	00 00 00 00 00 00 00 00 00 00 00 00 00 00 00 00 	0000000000000000
  0x50f0	00 00 00 00 00 00 00 00 00 00 00 00 00 00 00 00 	0000000000000000
  0x5100	00 00 00 00 00 00 00 00 00 00 00 00 00 00 00 00 	0000000000000000
  0x5110	00 00 00 00 00 00 00 00 00 00 00 00 00 00 00 00 	0000000000000000
  0x5120	00 00 00 00 00 00 00 00 00 00 00 00 00 00 00 00 	0000000000000000
  0x5130	00 00 00 00 00 00 00 00 00 00 00 00 00 00 00 00 	0000000000000000
  0x5140	00 00 00 00 00 00 00 00 00 00 00 00 00 00 00 00 	0000000000000000
  0x5150	00 00 00 00 00 00 00 00 00 00 00 00 00 00 00 00 	0000000000000000
  0x5160	00 00 00 00 00 00 00 00 00 00 00 00 00 00 00 00 	0000000000000000
  0x5170	00 00 00 00 00 00 00 00 00 00 00 00 00 00 00 00 	0000000000000000
  0x5180	00 00 00 00 00 00 00 00 00 00 00 00 00 00 00 00 	0000000000000000
  0x5190	00 00 00 00 00 00 00 00 00 00 00 00 00 00 00 00 	0000000000000000
  0x51a0	00 00 00 00 00 00 00 00 00 00 00 00 00 00 00 00 	0000000000000000
  0x51b0	00 00 00 00 00 00 00 00 00 00 00 00 00 00 00 00 	0000000000000000
  0x51c0	00 00 00 00 00 00 00 00 00 00 00 00 00 00 00 00 	0000000000000000
  0x51d0	00 00 00 00 00 00 00 00 00 00 00 00 00 00 00 00 	0000000000000000
  0x51e0	00 00 00 00 00 00 00 00 00 00 00 00 00 00 00 00 	0000000000000000
  0x51f0	00 00 00 00 00 00 00 00 00 00 00 00 00 00 00 00 	0000000000000000
=== DATA BLOCK END ===

=== DATA BLOCK ADDRESS 0x6000 ===
  0x6000	01 00 00 00 00 00 00 00 32 a2 df 2d 99 2b 00 00 	00000000200-0+00
  0x6010	cd 5d 20 d2 66 d4 ff ff 00 00 00 00 00 00 00 00 	0] 0f00000000000
  0x6020	00 00 00 00 00 00 00 00 00 00 00 00 00 00 00 00 	0000000000000000
  0x6030	00 00 00 00 00 00 00 00 00 00 00 00 00 00 00 00 	0000000000000000
  0x6040	00 00 00 00 00 00 00 00 00 00 00 00 00 00 00 00 	0000000000000000
  0x6050	00 00 00 00 00 00 00 00 00 00 00 00 00 00 00 00 	0000000000000000
  0x6060	00 00 00 00 00 00 00 00 00 00 00 00 00 00 00 00 	0000000000000000
  0x6070	00 00 00 00 00 00 00 00 00 00 00 00 00 00 00 00 	0000000000000000
  0x6080	00 00 00 00 00 00 00 00 00 00 00 00 00 00 00 00 	0000000000000000
  0x6090	00 00 00 00 00 00 00 00 00 00 00 00 00 00 00 00 	0000000000000000
  0x60a0	00 00 00 00 00 00 00 00 00 00 00 00 00 00 00 00 	0000000000000000
  0x60b0	00 00 00 00 00 00 00 00 00 00 00 00 00 00 00 00 	0000000000000000
  0x60c0	00 00 00 00 00 00 00 00 00 00 00 00 00 00 00 00 	0000000000000000
  0x60d0	00 00 00 00 00 00 00 00 00 00 00 00 00 00 00 00 	0000000000000000
  0x60e0	00 00 00 00 00 00 00 00 00 00 00 00 00 00 00 00 	0000000000000000
  0x60f0	00 00 00 00 00 00 00 00 00 00 00 00 00 00 00 00 	0000000000000000
  0x6100	00 00 00 00 00 00 00 00 00 00 00 00 00 00 00 00 	0000000000000000
  0x6110	00 00 00 00 00 00 00 00 00 00 00 00 00 00 00 00 	0000000000000000
  0x6120	00 00 00 00 00 00 00 00 00 00 00 00 00 00 00 00 	0000000000000000
  0x6130	00 00 00 00 00 00 00 00 00 00 00 00 00 00 00 00 	0000000000000000
  0x6140	00 00 00 00 00 00 00 00 00 00 00 00 00 00 00 00 	0000000000000000
  0x6150	00 00 00 00 00 00 00 00 00 00 00 00 00 00 00 00 	0000000000000000
  0x6160	00 00 00 00 00 00 00 00 00 00 00 00 00 00 00 00 	0000000000000000
  0x6170	00 00 00 00 00 00 00 00 00 00 00 00 00 00 00 00 	0000000000000000
  0x6180	00 00 00 00 00 00 00 00 00 00 00 00 00 00 00 00 	0000000000000000
  0x6190	00 00 00 00 00 00 00 00 00 00 00 00 00 00 00 00 	0000000000000000
  0x61a0	00 00 00 00 00 00 00 00 00 00 00 00 00 00 00 00 	0000000000000000
  0x61b0	00 00 00 00 00 00 00 00 00 00 00 00 00 00 00 00 	0000000000000000
  0x61c0	00 00 00 00 00 00 00 00 00 00 00 00 00 00 00 00 	0000000000000000
  0x61d0	00 00 00 00 00 00 00 00 00 00 00 00 00 00 00 00 	0000000000000000
  0x61e0	00 00 00 00 00 00 00 00 00 00 00 00 00 00 00 00 	0000000000000000
  0x61f0	00 00 00 00 00 00 00 00 00 00 00 00 00 00 00 00 	0000000000000000
=== DATA BLOCK END ===

=== DATA BLOCK ADDRESS 0x7000 ===
  0x7000	10 10 00 00 37 10 00 00 20 48 00 00 40 10 00 00 	00007000 H00@000
  0x7010	8d 10 00 00 28 48 00 00 a0 10 00 00 1d 12 00 00 	0000(H0000000000
  0x7020	34 48 00 00 6c 12 00 00 ef 12 00 00 4c 48 00 00 	4H00l0000000LH00
  0x7030	f8 12 00 00 c8 13 00 00 4c 48 00 00 d0 13 00 00 	00000000LH000000
  0x7040	4e 14 00 00 54 48 00 00 54 14 00 00 08 15 00 00 	N000TH00T0000000
  0x7050	64 48 00 00 10 15 00 00 99 16 00 00 78 48 00 00 	dH0000000000xH00
  0x7060	a0 16 00 00 41 17 00 00 9c 48 00 00 48 17 00 00 	0000A0000H00H000
  0x7070	49 19 00 00 b4 48 00 00 50 19 00 00 6b 1a 00 00 	I0000H00P000k000
  0x7080	d4 48 00 00 80 1a 00 00 ee 1b 00 00 ec 48 00 00 	0H00000000000H00
  0x7090	00 1c 00 00 2d 1c 00 00 20 48 00 00 40 1c 00 00 	0000-000 H00@000
  0x70a0	94 1c 00 00 fc 48 00 00 9c 1c 00 00 4b 27 00 00 	00000H000000K'00
  0x70b0	08 49 00 00 60 27 00 00 99 27 00 00 fc 48 00 00 	0I00`'000'000H00
  0x70c0	a0 27 00 00 73 28 00 00 30 49 00 00 80 28 00 00 	0'00s(000I000(00
  0x70d0	c9 28 00 00 38 49 00 00 d0 28 00 00 8e 2a 00 00 	0(008I000(000*00
  0x70e0	40 49 00 00 a0 2a 00 00 b2 2a 00 00 30 49 00 00 	@I000*000*000I00
  0x70f0	d0 2a 00 00 ee 2a 00 00 78 49 00 00 20 2b 00 00 	0*000*00xI00 +00
  0x7100	59 2b 00 00 30 49 00 00 60 2b 00 00 78 2b 00 00 	Y+000I00`+00x+00
  0x7110	30 49 00 00 8c 2b 00 00 e0 2b 00 00 7c 49 00 00 	0I000+000+00|I00
  0x7120	e8 2b 00 00 2d 2c 00 00 20 48 00 00 a0 2c 00 00 	0+00-,00 H000,00
  0x7130	ed 2c 00 00 9c 49 00 00 34 2d 00 00 08 2e 00 00 	0,000I004-000.00
  0x7140	c0 49 00 00 3c 2e 00 00 70 2e 00 00 20 48 00 00 	0I00<.00p.00 H00
  0x7150	80 2e 00 00 f1 2f 00 00 cc 49 00 00 08 30 00 00 	0.000/000I000000
  0x7160	25 30 00 00 30 49 00 00 2c 30 00 00 87 30 00 00 	%0000I00,0000000
  0x7170	dc 49 00 00 b0 30 00 00 b2 30 00 00 d8 49 00 00 	0I00000000000I00
  0x7180	d0 30 00 00 1d 31 00 00 e8 49 00 00 23 31 00 00 	000001000I00#100
  0x7190	41 31 00 00 6c 49 00 00 50 31 00 00 70 31 00 00 	A100lI00P100p100
  0x71a0	6c 49 00 00 00 00 00 00 00 00 00 00 00 00 00 00 	lI00000000000000
  0x71b0	00 00 00 00 00 00 00 00 00 00 00 00 00 00 00 00 	0000000000000000
  0x71c0	00 00 00 00 00 00 00 00 00 00 00 00 00 00 00 00 	0000000000000000
  0x71d0	00 00 00 00 00 00 00 00 00 00 00 00 00 00 00 00 	0000000000000000
  0x71e0	00 00 00 00 00 00 00 00 00 00 00 00 00 00 00 00 	0000000000000000
  0x71f0	00 00 00 00 00 00 00 00 00 00 00 00 00 00 00 00 	0000000000000000
=== DATA BLOCK END ===
