===== Assembly blocks =====

=== CODE BLOCK ADDRESS 0x1000 ===
  0x1000	int3   	
  0x1001	int3   	
  0x1002	int3   	
  0x1003	int3   	
  0x1004	int3   	
  === BLOCK LINK ===
    0x1005
=== CODE BLOCK END ===

=== CODE BLOCK ADDRESS 0x1005 ===
  0x1005	int3   	
  0x1006	int3   	
  0x1007	int3   	
  0x1008	dec    	eax
  0x1009	mov    	dword ptr [esp + 0x10], ebx
  === BLOCK LINK ===
    0x100d
=== CODE BLOCK END ===

=== CODE BLOCK ADDRESS 0x100d ===
  0x100d	dec    	eax
  0x100e	mov    	dword ptr [esp + 0x18], edi
  0x1012	push   	ebp
  0x1013	dec    	eax
  0x1014	mov    	ebp, esp
  === BLOCK LINK ===
    0x1016
=== CODE BLOCK END ===

=== CODE BLOCK ADDRESS 0x1016 ===
  0x1016	dec    	eax
  0x1017	sub    	esp, 0x60
  0x101a	dec    	eax
  0x101b	and    	dword ptr [ebp - 0x30], 0
  0x101f	xorps  	xmm0, xmm0
  === BLOCK LINK ===
    0x1022
=== CODE BLOCK END ===

=== CODE BLOCK ADDRESS 0x1022 ===
  0x1022	and    	dword ptr [ebp - 0x28], 0
  0x1026	dec    	eax
  0x1027	mov    	edi, ecx
  0x1029	and    	dword ptr [ebp - 0x24], 0
  0x102d	dec    	eax
  === BLOCK LINK ===
    0x102e
=== CODE BLOCK END ===

=== CODE BLOCK ADDRESS 0x102e ===
  0x102e	and    	dword ptr [ebp - 0x10], 0
  0x1032	movdqu  	xmmword ptr [ebp - 0x20], xmm0
  0x1037	dec    	eax
  0x1038	test   	ecx, ecx
  0x103a	jne    	0x1046
  === BLOCK LINK ===
    0x103c
    0x1046
=== CODE BLOCK END ===

=== CODE BLOCK ADDRESS 0x103c ===
  0x103c	mov    	ebx, 0x80070057
  0x1041	jmp    	0x112d
  === BLOCK LINK ===
    0x1046
    0x112d
=== CODE BLOCK END ===

=== CODE BLOCK ADDRESS 0x1046 ===
  0x1046	xor    	edx, edx
  0x1048	dec    	eax
  0x1049	lea    	eax, [ebp + 0x10]
  0x104c	dec    	esp
  0x104d	lea    	ecx, [0x25a5]
  === BLOCK LINK ===
    0x1053
=== CODE BLOCK END ===

=== CODE BLOCK ADDRESS 0x1053 ===
  0x1053	dec    	eax
  0x1054	mov    	dword ptr [esp + 0x20], eax
  0x1058	dec    	eax
  0x1059	lea    	ecx, [0x2569]
  0x105f	inc    	esp
  === BLOCK LINK ===
    0x1060
=== CODE BLOCK END ===

=== CODE BLOCK ADDRESS 0x1060 ===
  0x1060	lea    	eax, [edx + 0x17]
  0x1063	dec    	eax
  0x1064	call   	dword ptr [0x20ce]
  === BLOCK LINK ===
    0x106a
=== CODE BLOCK END ===

=== CODE BLOCK ADDRESS 0x106a ===
  0x106a	nop    	dword ptr [eax + eax]
  0x106f	test   	eax, eax
  0x1071	jne    	0x1128
  === BLOCK LINK ===
    0x1077
    0x1128
=== CODE BLOCK END ===

=== CODE BLOCK ADDRESS 0x1077 ===
  0x1077	dec    	eax
  0x1078	mov    	ecx, dword ptr [ebp + 0x10]
  0x107b	call   	0x1e20
  === BLOCK LINK ===
    0x1080
    0x1e20
=== CODE BLOCK END ===

=== CODE BLOCK ADDRESS 0x1080 ===
  0x1080	dec    	eax
  0x1081	mov    	ecx, dword ptr [ebp + 0x10]
  0x1084	dec    	esp
  0x1085	lea    	eax, [ebp - 0x18]
  0x1088	xor    	edx, edx
  === BLOCK LINK ===
    0x108a
=== CODE BLOCK END ===

=== CODE BLOCK ADDRESS 0x108a ===
  0x108a	dec    	eax
  0x108b	mov    	eax, dword ptr [ecx]
  0x108d	dec    	eax
  0x108e	mov    	eax, dword ptr [eax + 0x18]
  0x1091	call   	dword ptr [0x2269]
  === BLOCK LINK ===
    0x1097
=== CODE BLOCK END ===

=== CODE BLOCK ADDRESS 0x1097 ===
  0x1097	dec    	eax
  0x1098	mov    	ecx, dword ptr [ebp + 0x10]
  0x109b	mov    	ebx, eax
  0x109d	dec    	eax
  0x109e	mov    	edx, dword ptr [ecx]
  === BLOCK LINK ===
    0x10a0
=== CODE BLOCK END ===

=== CODE BLOCK ADDRESS 0x10a0 ===
  0x10a0	dec    	eax
  0x10a1	mov    	eax, dword ptr [edx + 0x10]
  0x10a4	call   	dword ptr [0x2256]
  === BLOCK LINK ===
    0x10aa
=== CODE BLOCK END ===

=== CODE BLOCK ADDRESS 0x10aa ===
  0x10aa	test   	ebx, ebx
  0x10ac	jne    	0x1128
  === BLOCK LINK ===
    0x10ae
    0x1128
=== CODE BLOCK END ===

=== CODE BLOCK ADDRESS 0x10ae ===
  0x10ae	dec    	eax
  0x10af	mov    	ecx, dword ptr [ebp - 0x18]
  0x10b2	call   	0x1e20
  === BLOCK LINK ===
    0x10b7
    0x1e20
=== CODE BLOCK END ===

=== CODE BLOCK ADDRESS 0x10b7 ===
  0x10b7	dec    	esp
  0x10b8	lea    	ecx, [0x2492]
  0x10be	mov    	dword ptr [ebp - 0x28], 1
  0x10c5	inc    	ebp
  0x10c6	xor    	eax, eax
  === BLOCK LINK ===
    0x10c8
=== CODE BLOCK END ===

=== CODE BLOCK ADDRESS 0x10c8 ===
  0x10c8	dec    	eax
  0x10c9	mov    	dword ptr [ebp - 0x30], edi
  0x10cc	xor    	edx, edx
  0x10ce	xor    	ecx, ecx
  0x10d0	dec    	eax
  === BLOCK LINK ===
    0x10d1
=== CODE BLOCK END ===

=== CODE BLOCK ADDRESS 0x10d1 ===
  0x10d1	call   	dword ptr [0x2141]
  === BLOCK LINK ===
    0x10d7
=== CODE BLOCK END ===

=== CODE BLOCK ADDRESS 0x10d7 ===
  0x10d7	nop    	dword ptr [eax + eax]
  0x10dc	dec    	eax
  0x10dd	mov    	dword ptr [ebp - 0x20], eax
  0x10e0	dec    	eax
  0x10e1	test   	eax, eax
  === BLOCK LINK ===
    0x10e3
=== CODE BLOCK END ===

=== CODE BLOCK ADDRESS 0x10e3 ===
  0x10e3	jne    	0x1101
  === BLOCK LINK ===
    0x10e5
    0x1101
=== CODE BLOCK END ===

=== CODE BLOCK ADDRESS 0x10e5 ===
  0x10e5	dec    	eax
  0x10e6	call   	dword ptr [0x2074]
  === BLOCK LINK ===
    0x10ec
=== CODE BLOCK END ===

=== CODE BLOCK ADDRESS 0x10ec ===
  0x10ec	nop    	dword ptr [eax + eax]
  0x10f1	movzx  	ebx, ax
  0x10f4	or     	ebx, 0x80070000
  0x10fa	test   	eax, eax
  0x10fc	cmovle  	ebx, eax
  === BLOCK LINK ===
    0x10ff
=== CODE BLOCK END ===

=== CODE BLOCK ADDRESS 0x10ff ===
  0x10ff	jmp    	0x1103
  === BLOCK LINK ===
    0x1101
    0x1103
=== CODE BLOCK END ===

=== CODE BLOCK ADDRESS 0x1101 ===
  0x1101	xor    	ebx, ebx
  === BLOCK LINK ===
    0x1103
    0x112d
=== CODE BLOCK END ===

=== CODE BLOCK ADDRESS 0x1107 ===
  0x1107	dec    	eax
  0x1108	lea    	ecx, [ebp - 0x30]
  0x110b	call   	0x14ac
  === BLOCK LINK ===
    0x1110
    0x14ac
=== CODE BLOCK END ===

=== CODE BLOCK ADDRESS 0x1110 ===
  0x1110	mov    	ebx, eax
  0x1112	test   	eax, eax
  0x1114	js     	0x112d
  === BLOCK LINK ===
    0x1116
    0x112d
=== CODE BLOCK END ===

=== CODE BLOCK ADDRESS 0x1116 ===
  0x1116	dec    	eax
  0x1117	lea    	ecx, [ebp - 0x30]
  0x111a	call   	0x1acc
  === BLOCK LINK ===
    0x111f
    0x1acc
=== CODE BLOCK END ===

=== CODE BLOCK ADDRESS 0x111f ===
  0x111f	xor    	ebx, ebx
  0x1121	test   	eax, eax
  0x1123	cmovs  	ebx, eax
  0x1126	jmp    	0x112d
  === BLOCK LINK ===
    0x1128
    0x112d
=== CODE BLOCK END ===

=== CODE BLOCK ADDRESS 0x1128 ===
  0x1128	mov    	ebx, 0x80004005
  === BLOCK LINK ===
    0x112d
=== CODE BLOCK END ===

=== CODE BLOCK ADDRESS 0x1134 ===
  0x1134	je     	0x1148
  === BLOCK LINK ===
    0x1136
    0x1148
=== CODE BLOCK END ===

=== CODE BLOCK ADDRESS 0x1136 ===
  0x1136	dec    	eax
  0x1137	mov    	eax, dword ptr [ecx]
  0x1139	dec    	eax
  0x113a	mov    	eax, dword ptr [eax + 0x10]
  0x113d	call   	dword ptr [0x21bd]
  === BLOCK LINK ===
    0x1143
=== CODE BLOCK END ===

=== CODE BLOCK ADDRESS 0x1143 ===
  0x1143	dec    	eax
  0x1144	and    	dword ptr [ebp - 0x10], 0
  === BLOCK LINK ===
    0x1148
=== CODE BLOCK END ===

=== CODE BLOCK ADDRESS 0x114d ===
  0x114d	test   	eax, eax
  0x114f	je     	0x1165
  === BLOCK LINK ===
    0x1151
    0x1165
=== CODE BLOCK END ===

=== CODE BLOCK ADDRESS 0x1151 ===
  0x1151	dec    	eax
  0x1152	mov    	ecx, eax
  0x1154	dec    	eax
  0x1155	call   	dword ptr [0x201d]
  === BLOCK LINK ===
    0x115b
=== CODE BLOCK END ===

=== CODE BLOCK ADDRESS 0x115b ===
  0x115b	nop    	dword ptr [eax + eax]
  0x1160	dec    	eax
  0x1161	and    	dword ptr [ebp - 0x20], 0
  === BLOCK LINK ===
    0x1165
=== CODE BLOCK END ===

=== CODE BLOCK ADDRESS 0x1169 ===
  0x1169	dec    	eax
  0x116a	test   	ecx, ecx
  0x116c	je     	0x117b
  === BLOCK LINK ===
    0x116e
    0x117b
=== CODE BLOCK END ===

=== CODE BLOCK ADDRESS 0x116e ===
  0x116e	dec    	eax
  0x116f	mov    	edx, dword ptr [ecx]
  0x1171	dec    	eax
  0x1172	mov    	eax, dword ptr [edx + 0x10]
  0x1175	call   	dword ptr [0x2185]
  === BLOCK LINK ===
    0x117b
=== CODE BLOCK END ===

=== CODE BLOCK ADDRESS 0x117b ===
  0x117b	dec    	esp
  0x117c	lea    	ebx, [esp + 0x60]
  0x1180	mov    	eax, ebx
  0x1182	dec    	ecx
  0x1183	mov    	ebx, dword ptr [ebx + 0x18]
  === BLOCK LINK ===
    0x1186
=== CODE BLOCK END ===

=== CODE BLOCK ADDRESS 0x1186 ===
  0x1186	dec    	ecx
  0x1187	mov    	edi, dword ptr [ebx + 0x20]
  0x118a	dec    	ecx
  0x118b	mov    	esp, ebx
  0x118d	pop    	ebp
  === BLOCK LINK ===
    0x118e
=== CODE BLOCK END ===

=== CODE BLOCK ADDRESS 0x118e ===
  0x118e	ret    	
  0x118f	int3   	
  0x1190	int3   	
  0x1191	int3   	
  0x1192	int3   	
  === BLOCK LINK ===
    0x1193
=== CODE BLOCK END ===

=== CODE BLOCK ADDRESS 0x1193 ===
  0x1193	int3   	
  0x1194	int3   	
  0x1195	int3   	
  0x1196	int3   	
  0x1197	int3   	
  === BLOCK LINK ===
    0x1198
=== CODE BLOCK END ===

=== CODE BLOCK ADDRESS 0x1198 ===
  0x1198	dec    	eax
  0x1199	mov    	dword ptr [esp + 8], ebx
  0x119d	push   	ebp
  0x119e	push   	esi
  0x119f	push   	edi
  === BLOCK LINK ===
    0x11a0
=== CODE BLOCK END ===

=== CODE BLOCK ADDRESS 0x11a0 ===
  0x11a0	inc    	ecx
  0x11a1	push   	esi
  0x11a2	inc    	ecx
  0x11a3	push   	edi
  0x11a4	dec    	eax
  === BLOCK LINK ===
    0x11a5
=== CODE BLOCK END ===

=== CODE BLOCK ADDRESS 0x11a5 ===
  0x11a5	mov    	ebp, esp
  0x11a7	dec    	eax
  0x11a8	sub    	esp, 0x30
  0x11ab	dec    	eax
  0x11ac	and    	dword ptr [ebp + 0x48], 0
  === BLOCK LINK ===
    0x11b0
=== CODE BLOCK END ===

=== CODE BLOCK ADDRESS 0x11b0 ===
  0x11b0	xor    	edx, edx
  0x11b2	inc    	ecx
  0x11b3	mov    	eax, 0x450
  0x11b8	dec    	eax
  0x11b9	mov    	esi, ecx
  === BLOCK LINK ===
    0x11bb
=== CODE BLOCK END ===

=== CODE BLOCK ADDRESS 0x11bb ===
  0x11bb	call   	0x287d
  === BLOCK LINK ===
    0x11c0
    0x287d
=== CODE BLOCK END ===

=== CODE BLOCK ADDRESS 0x11c0 ===
  0x11c0	dec    	eax
  0x11c1	lea    	eax, [ebp + 0x48]
  0x11c4	inc    	ecx
  0x11c5	mov    	ecx, 0x20019
  0x11ca	inc    	ebp
  === BLOCK LINK ===
    0x11cb
=== CODE BLOCK END ===

=== CODE BLOCK ADDRESS 0x11cb ===
  0x11cb	xor    	eax, eax
  0x11cd	dec    	eax
  0x11ce	mov    	dword ptr [esp + 0x20], eax
  0x11d2	dec    	eax
  0x11d3	lea    	edx, [0x21a7]
  === BLOCK LINK ===
    0x11d9
=== CODE BLOCK END ===

=== CODE BLOCK ADDRESS 0x11d9 ===
  0x11d9	dec    	eax
  0x11da	mov    	ecx, 0x80000002
  0x11e0	dec    	eax
  0x11e1	call   	dword ptr [0x1ff9]
  === BLOCK LINK ===
    0x11e7
=== CODE BLOCK END ===

=== CODE BLOCK ADDRESS 0x11e7 ===
  0x11e7	nop    	dword ptr [eax + eax]
  0x11ec	test   	eax, eax
  0x11ee	je     	0x11fa
  === BLOCK LINK ===
    0x11f0
    0x11fa
=== CODE BLOCK END ===

=== CODE BLOCK ADDRESS 0x11f0 ===
  0x11f0	mov    	eax, 1
  0x11f5	jmp    	0x142a
  === BLOCK LINK ===
    0x11fa
    0x142a
=== CODE BLOCK END ===

=== CODE BLOCK ADDRESS 0x11fa ===
  0x11fa	dec    	eax
  0x11fb	mov    	ecx, dword ptr [ebp + 0x48]
  0x11fe	dec    	eax
  0x11ff	lea    	eax, [ebp + 0x38]
  0x1202	dec    	eax
  === BLOCK LINK ===
    0x1203
=== CODE BLOCK END ===

=== CODE BLOCK ADDRESS 0x1203 ===
  0x1203	mov    	dword ptr [esp + 0x28], eax
  0x1207	dec    	esp
  0x1208	lea    	ecx, [ebp + 0x40]
  0x120b	inc    	ebp
  0x120c	xor    	eax, eax
  === BLOCK LINK ===
    0x120e
=== CODE BLOCK END ===

=== CODE BLOCK ADDRESS 0x120e ===
  0x120e	dec    	eax
  0x120f	mov    	dword ptr [esp + 0x20], esi
  0x1213	dec    	eax
  0x1214	lea    	edx, [0x222e]
  0x121a	mov    	dword ptr [ebp + 0x40], 3
  === BLOCK LINK ===
    0x1221
=== CODE BLOCK END ===

=== CODE BLOCK ADDRESS 0x1221 ===
  0x1221	mov    	dword ptr [ebp + 0x38], 4
  0x1228	dec    	eax
  0x1229	call   	dword ptr [0x1fa9]
  === BLOCK LINK ===
    0x122f
=== CODE BLOCK END ===

=== CODE BLOCK ADDRESS 0x122f ===
  0x122f	nop    	dword ptr [eax + eax]
  0x1234	dec    	eax
  0x1235	mov    	ecx, dword ptr [ebp + 0x48]
  0x1238	test   	eax, eax
  0x123a	je     	0x124a
  === BLOCK LINK ===
    0x123c
    0x124a
=== CODE BLOCK END ===

=== CODE BLOCK ADDRESS 0x123c ===
  0x123c	dec    	eax
  0x123d	call   	dword ptr [0x1f8d]
  === BLOCK LINK ===
    0x1243
=== CODE BLOCK END ===

=== CODE BLOCK ADDRESS 0x1243 ===
  0x1243	nop    	dword ptr [eax + eax]
  0x1248	jmp    	0x11f0
  === BLOCK LINK ===
    0x124a
    0x11f0
=== CODE BLOCK END ===

=== CODE BLOCK ADDRESS 0x124a ===
  0x124a	and    	dword ptr [ebp + 0x38], 0
  0x124e	dec    	eax
  0x124f	lea    	eax, [ebp + 0x38]
  0x1252	dec    	eax
  0x1253	mov    	dword ptr [esp + 0x28], eax
  === BLOCK LINK ===
    0x1257
=== CODE BLOCK END ===

=== CODE BLOCK ADDRESS 0x1257 ===
  0x1257	dec    	esp
  0x1258	lea    	ecx, [ebp + 0x40]
  0x125b	dec    	eax
  0x125c	and    	dword ptr [esp + 0x20], 0
  0x1261	dec    	eax
  === BLOCK LINK ===
    0x1262
=== CODE BLOCK END ===

=== CODE BLOCK ADDRESS 0x1262 ===
  0x1262	lea    	edx, [0x20f8]
  0x1268	mov    	edi, 1
  0x126d	inc    	ebp
  0x126e	xor    	eax, eax
  0x1270	mov    	dword ptr [ebp + 0x40], edi
  === BLOCK LINK ===
    0x1273
=== CODE BLOCK END ===

=== CODE BLOCK ADDRESS 0x1273 ===
  0x1273	dec    	eax
  0x1274	call   	dword ptr [0x1f5e]
  === BLOCK LINK ===
    0x127a
=== CODE BLOCK END ===

=== CODE BLOCK ADDRESS 0x127a ===
  0x127a	nop    	dword ptr [eax + eax]
  0x127f	test   	eax, eax
  0x1281	jne    	0x1418
  === BLOCK LINK ===
    0x1287
    0x1418
=== CODE BLOCK END ===

=== CODE BLOCK ADDRESS 0x1287 ===
  0x1287	mov    	ecx, dword ptr [ebp + 0x38]
  0x128a	lea    	eax, [edi + 1]
  0x128d	inc    	ecx
  0x128f	dec    	eax
  0x1290	mul    	ecx
  === BLOCK LINK ===
    0x1292
=== CODE BLOCK END ===

=== CODE BLOCK ADDRESS 0x1292 ===
  0x1292	dec    	eax
  0x1293	mov    	ecx, 0xffffffff
  0x1299	dec    	eax
  0x129a	cmovo  	eax, ecx
  0x129d	dec    	eax
  === BLOCK LINK ===
    0x129e
=== CODE BLOCK END ===

=== CODE BLOCK ADDRESS 0x129e ===
  0x129e	mov    	ecx, eax
  0x12a0	call   	0x1f3c
  === BLOCK LINK ===
    0x12a5
    0x1f3c
=== CODE BLOCK END ===

=== CODE BLOCK ADDRESS 0x12a5 ===
  0x12a5	dec    	eax
  0x12a6	mov    	ecx, dword ptr [ebp + 0x48]
  0x12a9	dec    	esp
  0x12aa	lea    	ecx, [ebp + 0x40]
  0x12ad	dec    	esp
  === BLOCK LINK ===
    0x12ae
=== CODE BLOCK END ===

=== CODE BLOCK ADDRESS 0x12ae ===
  0x12ae	mov    	esi, eax
  0x12b0	dec    	eax
  0x12b1	lea    	edx, [0x20a9]
  0x12b7	dec    	eax
  0x12b8	lea    	eax, [ebp + 0x38]
  === BLOCK LINK ===
    0x12bb
=== CODE BLOCK END ===

=== CODE BLOCK ADDRESS 0x12bb ===
  0x12bb	inc    	ebp
  0x12bc	xor    	eax, eax
  0x12be	dec    	eax
  0x12bf	mov    	dword ptr [esp + 0x28], eax
  0x12c3	dec    	esp
  === BLOCK LINK ===
    0x12c4
=== CODE BLOCK END ===

=== CODE BLOCK ADDRESS 0x12c4 ===
  0x12c4	mov    	dword ptr [esp + 0x20], esi
  0x12c8	dec    	eax
  0x12c9	call   	dword ptr [0x1f09]
  === BLOCK LINK ===
    0x12cf
=== CODE BLOCK END ===

=== CODE BLOCK ADDRESS 0x12cf ===
  0x12cf	nop    	dword ptr [eax + eax]
  0x12d4	dec    	ecx
  0x12d5	mov    	ecx, esi
  0x12d7	test   	eax, eax
  0x12d9	je     	0x12e5
  === BLOCK LINK ===
    0x12db
    0x12e5
=== CODE BLOCK END ===

=== CODE BLOCK ADDRESS 0x12db ===
  0x12db	call   	0x1f30
  === BLOCK LINK ===
    0x12e0
    0x1f30
=== CODE BLOCK END ===

=== CODE BLOCK ADDRESS 0x12e0 ===
  0x12e0	jmp    	0x1418
  === BLOCK LINK ===
    0x12e5
    0x1418
=== CODE BLOCK END ===

=== CODE BLOCK ADDRESS 0x12e5 ===
  0x12e5	dec    	esp
  0x12e6	lea    	edi, [esi + 0x424]
  0x12ec	dec    	ecx
  0x12ed	mov    	edx, edi
  0x12ef	dec    	eax
  === BLOCK LINK ===
    0x12f0
=== CODE BLOCK END ===

=== CODE BLOCK ADDRESS 0x12f0 ===
  0x12f0	call   	dword ptr [0x1e52]
  === BLOCK LINK ===
    0x12f6
=== CODE BLOCK END ===

=== CODE BLOCK ADDRESS 0x12f6 ===
  0x12f6	nop    	dword ptr [eax + eax]
  0x12fb	dec    	ecx
  0x12fc	mov    	ecx, esi
  0x12fe	mov    	ebx, eax
  0x1300	call   	0x1f30
  === BLOCK LINK ===
    0x1305
    0x1f30
=== CODE BLOCK END ===

=== CODE BLOCK ADDRESS 0x1305 ===
  0x1305	dec    	eax
  0x1306	mov    	ecx, dword ptr [ebp + 0x48]
  0x1309	test   	ebx, ebx
  0x130b	jne    	0x141c
  === BLOCK LINK ===
    0x1311
    0x141c
=== CODE BLOCK END ===

=== CODE BLOCK ADDRESS 0x1311 ===
  0x1311	and    	dword ptr [ebp + 0x38], ebx
  0x1314	dec    	eax
  0x1315	lea    	eax, [ebp + 0x38]
  0x1318	dec    	eax
  0x1319	mov    	dword ptr [esp + 0x28], eax
  === BLOCK LINK ===
    0x131d
=== CODE BLOCK END ===

=== CODE BLOCK ADDRESS 0x131d ===
  0x131d	dec    	esp
  0x131e	lea    	ecx, [ebp + 0x40]
  0x1321	dec    	eax
  0x1322	and    	dword ptr [esp + 0x20], 0
  0x1327	dec    	eax
  === BLOCK LINK ===
    0x1328
=== CODE BLOCK END ===

=== CODE BLOCK ADDRESS 0x1328 ===
  0x1328	lea    	edx, [0x20d2]
  0x132e	inc    	ebp
  0x132f	xor    	eax, eax
  0x1331	mov    	dword ptr [ebp + 0x40], edi
  0x1334	dec    	eax
  === BLOCK LINK ===
    0x1335
=== CODE BLOCK END ===

=== CODE BLOCK ADDRESS 0x1335 ===
  0x1335	call   	dword ptr [0x1e9d]
  === BLOCK LINK ===
    0x133b
=== CODE BLOCK END ===

=== CODE BLOCK ADDRESS 0x133b ===
  0x133b	nop    	dword ptr [eax + eax]
  0x1340	test   	eax, eax
  0x1342	jne    	0x1418
  === BLOCK LINK ===
    0x1348
    0x1418
=== CODE BLOCK END ===

=== CODE BLOCK ADDRESS 0x1348 ===
  0x1348	inc    	esp
  0x1349	mov    	eax, dword ptr [ebp + 0x38]
  0x134c	lea    	eax, [ebx + 2]
  0x134f	inc    	ecx
  0x1350	inc    	eax
  === BLOCK LINK ===
    0x1352
=== CODE BLOCK END ===

=== CODE BLOCK ADDRESS 0x1352 ===
  0x1352	dec    	eax
  0x1353	mov    	ecx, 0xffffffff
  0x1359	dec    	ecx
  0x135a	mul    	eax
  0x135c	dec    	eax
  === BLOCK LINK ===
    0x135d
=== CODE BLOCK END ===

=== CODE BLOCK ADDRESS 0x135d ===
  0x135d	cmovo  	eax, ecx
  0x1360	dec    	eax
  0x1361	mov    	ecx, eax
  0x1363	call   	0x1f3c
  === BLOCK LINK ===
    0x1368
    0x1f3c
=== CODE BLOCK END ===

=== CODE BLOCK ADDRESS 0x1368 ===
  0x1368	dec    	eax
  0x1369	mov    	ecx, dword ptr [ebp + 0x48]
  0x136c	dec    	esp
  0x136d	lea    	ecx, [ebp + 0x40]
  0x1370	dec    	esp
  === BLOCK LINK ===
    0x1371
=== CODE BLOCK END ===

=== CODE BLOCK ADDRESS 0x1371 ===
  0x1371	mov    	esi, eax
  0x1373	dec    	eax
  0x1374	lea    	edx, [0x2086]
  0x137a	dec    	eax
  0x137b	lea    	eax, [ebp + 0x38]
  === BLOCK LINK ===
    0x137e
=== CODE BLOCK END ===

=== CODE BLOCK ADDRESS 0x137e ===
  0x137e	inc    	ebp
  0x137f	xor    	eax, eax
  0x1381	dec    	eax
  0x1382	mov    	dword ptr [esp + 0x28], eax
  0x1386	dec    	esp
  === BLOCK LINK ===
    0x1387
=== CODE BLOCK END ===

=== CODE BLOCK ADDRESS 0x1387 ===
  0x1387	mov    	dword ptr [esp + 0x20], esi
  0x138b	dec    	eax
  0x138c	call   	dword ptr [0x1e46]
  === BLOCK LINK ===
    0x1392
=== CODE BLOCK END ===

=== CODE BLOCK ADDRESS 0x1392 ===
  0x1392	nop    	dword ptr [eax + eax]
  0x1397	dec    	ecx
  0x1398	mov    	ecx, esi
  0x139a	test   	eax, eax
  0x139c	jne    	0x12db
  === BLOCK LINK ===
    0x13a2
=== CODE BLOCK END ===

=== CODE BLOCK ADDRESS 0x13a2 ===
  0x13a2	dec    	eax
  0x13a3	lea    	edx, [esi + 0x434]
  0x13a9	dec    	eax
  0x13aa	call   	dword ptr [0x1d98]
  === BLOCK LINK ===
    0x13b0
=== CODE BLOCK END ===

=== CODE BLOCK ADDRESS 0x13b0 ===
  0x13b0	nop    	dword ptr [eax + eax]
  0x13b5	dec    	ecx
  0x13b6	mov    	ecx, esi
  0x13b8	mov    	ebx, eax
  0x13ba	call   	0x1f30
  === BLOCK LINK ===
    0x13bf
=== CODE BLOCK END ===

=== CODE BLOCK ADDRESS 0x13bf ===
  0x13bf	test   	ebx, ebx
  0x13c1	jne    	0x1418
  === BLOCK LINK ===
    0x13c3
=== CODE BLOCK END ===

=== CODE BLOCK ADDRESS 0x13c3 ===
  0x13c3	dec    	eax
  0x13c4	lea    	eax, [ebp + 0x38]
  0x13c7	mov    	dword ptr [esi + 0x444], edi
  0x13cd	dec    	eax
  0x13ce	lea    	ecx, [esi + 0x448]
  === BLOCK LINK ===
    0x13d4
=== CODE BLOCK END ===

=== CODE BLOCK ADDRESS 0x13d4 ===
  0x13d4	dec    	eax
  0x13d5	mov    	dword ptr [esp + 0x28], eax
  0x13d9	dec    	eax
  0x13da	mov    	dword ptr [esp + 0x20], ecx
  0x13de	dec    	esp
  === BLOCK LINK ===
    0x13df
=== CODE BLOCK END ===

=== CODE BLOCK ADDRESS 0x13df ===
  0x13df	lea    	ecx, [ebp + 0x40]
  0x13e2	dec    	eax
  0x13e3	mov    	ecx, dword ptr [ebp + 0x48]
  0x13e6	dec    	eax
  0x13e7	lea    	edx, [0x2033]
  === BLOCK LINK ===
    0x13ed
=== CODE BLOCK END ===

=== CODE BLOCK ADDRESS 0x13ed ===
  0x13ed	inc    	ebp
  0x13ee	xor    	eax, eax
  0x13f0	mov    	dword ptr [ebp + 0x40], 3
  0x13f7	mov    	dword ptr [ebp + 0x38], 4
  0x13fe	dec    	eax
  === BLOCK LINK ===
    0x13ff
=== CODE BLOCK END ===

=== CODE BLOCK ADDRESS 0x13ff ===
  0x13ff	call   	dword ptr [0x1dd3]
  === BLOCK LINK ===
    0x1405
=== CODE BLOCK END ===

=== CODE BLOCK ADDRESS 0x1405 ===
  0x1405	nop    	dword ptr [eax + eax]
  0x140a	inc    	ecx
  0x140b	movups  	xmm0, xmmword ptr [edi]
  0x140e	mov    	dword ptr [esi + 8], edi
  0x1411	xor    	edi, edi
  === BLOCK LINK ===
    0x1413
=== CODE BLOCK END ===

=== CODE BLOCK ADDRESS 0x1413 ===
  0x1413	movdqu  	xmmword ptr [esi + 0xc], xmm0
  === BLOCK LINK ===
    0x1418
=== CODE BLOCK END ===

=== CODE BLOCK ADDRESS 0x1423 ===
  0x1423	nop    	dword ptr [eax + eax]
  0x1428	mov    	eax, edi
  === BLOCK LINK ===
    0x142a
=== CODE BLOCK END ===

=== CODE BLOCK ADDRESS 0x1430 ===
  0x1430	add    	esp, 0x30
  0x1433	inc    	ecx
  0x1434	pop    	edi
  0x1435	inc    	ecx
  0x1436	pop    	esi
  === BLOCK LINK ===
    0x1437
=== CODE BLOCK END ===

=== CODE BLOCK ADDRESS 0x1437 ===
  0x1437	pop    	edi
  0x1438	pop    	esi
  0x1439	pop    	ebp
  0x143a	ret    	
  0x143b	int3   	
  === BLOCK LINK ===
    0x143c
=== CODE BLOCK END ===

=== CODE BLOCK ADDRESS 0x112d ===
  0x112d	dec    	eax
  0x112e	mov    	ecx, dword ptr [ebp - 0x10]
  0x1131	dec    	eax
  0x1132	test   	ecx, ecx
  === BLOCK LINK ===
    0x1134
=== CODE BLOCK END ===

=== CODE BLOCK ADDRESS 0x143c ===
  0x143c	int3   	
  0x143d	int3   	
  0x143e	int3   	
  0x143f	int3   	
  0x1440	int3   	
  === BLOCK LINK ===
    0x1441
=== CODE BLOCK END ===

=== CODE BLOCK ADDRESS 0x1441 ===
  0x1441	int3   	
  0x1442	int3   	
  0x1443	int3   	
  0x1444	dec    	eax
  0x1445	sub    	esp, 0x488
  === BLOCK LINK ===
    0x144b
=== CODE BLOCK END ===

=== CODE BLOCK ADDRESS 0x144b ===
  0x144b	dec    	eax
  0x144c	mov    	eax, dword ptr [0x3bb6]
  0x1452	dec    	eax
  0x1453	xor    	eax, esp
  0x1455	dec    	eax
  === BLOCK LINK ===
    0x1456
=== CODE BLOCK END ===

=== CODE BLOCK ADDRESS 0x1456 ===
  0x1456	mov    	dword ptr [esp + 0x470], eax
  0x145d	dec    	eax
  0x145e	lea    	ecx, [esp + 0x20]
  0x1462	call   	0x1198
  === BLOCK LINK ===
    0x1467
=== CODE BLOCK END ===

=== CODE BLOCK ADDRESS 0x1467 ===
  0x1467	test   	eax, eax
  0x1469	je     	0x1472
  === BLOCK LINK ===
    0x146b
=== CODE BLOCK END ===

=== CODE BLOCK ADDRESS 0x146b ===
  0x146b	mov    	eax, 1
  0x1470	jmp    	0x148c
  === BLOCK LINK ===
    0x1472
=== CODE BLOCK END ===

=== CODE BLOCK ADDRESS 0x1472 ===
  0x1472	xor    	ecx, ecx
  0x1474	dec    	eax
  0x1475	call   	dword ptr [0x1dd5]
  === BLOCK LINK ===
    0x147b
=== CODE BLOCK END ===

=== CODE BLOCK ADDRESS 0x147b ===
  0x147b	nop    	dword ptr [eax + eax]
  0x1480	dec    	eax
  0x1481	lea    	ecx, [esp + 0x20]
  0x1485	call   	0x1008
  === BLOCK LINK ===
    0x148a
=== CODE BLOCK END ===

=== CODE BLOCK ADDRESS 0x148a ===
  0x148a	xor    	eax, eax
  0x148c	dec    	eax
  0x148d	mov    	ecx, dword ptr [esp + 0x470]
  0x1494	dec    	eax
  0x1495	xor    	ecx, esp
  === BLOCK LINK ===
    0x1497
=== CODE BLOCK END ===

=== CODE BLOCK ADDRESS 0x1497 ===
  0x1497	call   	0x22c0
  === BLOCK LINK ===
    0x149c
=== CODE BLOCK END ===

=== CODE BLOCK ADDRESS 0x149c ===
  0x149c	dec    	eax
  0x149d	add    	esp, 0x488
  0x14a3	ret    	
  0x14a4	int3   	
  0x14a5	int3   	
  === BLOCK LINK ===
    0x14a6
=== CODE BLOCK END ===

=== CODE BLOCK ADDRESS 0x14a6 ===
  0x14a6	int3   	
  0x14a7	int3   	
  0x14a8	int3   	
  0x14a9	int3   	
  0x14aa	int3   	
  === BLOCK LINK ===
    0x14ab
=== CODE BLOCK END ===

=== CODE BLOCK ADDRESS 0x14ab ===
  0x14ab	int3   	
  === BLOCK LINK ===
    0x14ac
=== CODE BLOCK END ===

=== CODE BLOCK ADDRESS 0x14b0 ===
  0x14b0	push   	edi
  0x14b1	inc    	ecx
  0x14b2	push   	esp
  0x14b3	inc    	ecx
  0x14b4	push   	ebp
  === BLOCK LINK ===
    0x14b5
=== CODE BLOCK END ===

=== CODE BLOCK ADDRESS 0x14b5 ===
  0x14b5	inc    	ecx
  0x14b6	push   	esi
  0x14b7	inc    	ecx
  0x14b8	push   	edi
  0x14b9	dec    	eax
  === BLOCK LINK ===
    0x14ba
=== CODE BLOCK END ===

=== CODE BLOCK ADDRESS 0x14ba ===
  0x14ba	mov    	ebp, esp
  0x14bc	dec    	eax
  0x14bd	sub    	esp, 0x48
  0x14c0	dec    	eax
  0x14c1	mov    	edi, dword ptr [ecx]
  === BLOCK LINK ===
    0x14c3
=== CODE BLOCK END ===

=== CODE BLOCK ADDRESS 0x14c3 ===
  0x14c3	inc    	ebp
  0x14c4	xor    	edi, edi
  0x14c6	dec    	esp
  0x14c7	mov    	esi, ecx
  0x14c9	dec    	esp
  === BLOCK LINK ===
    0x14ca
=== CODE BLOCK END ===

=== CODE BLOCK ADDRESS 0x14ca ===
  0x14ca	mov    	dword ptr [ebp + 0x48], edi
  0x14cd	inc    	ecx
  0x14ce	mov    	ebx, edi
  0x14d0	dec    	esp
  0x14d1	mov    	dword ptr [ebp - 0x18], edi
  === BLOCK LINK ===
    0x14d4
=== CODE BLOCK END ===

=== CODE BLOCK ADDRESS 0x14d4 ===
  0x14d4	inc    	ecx
  0x14d5	mov    	esi, edi
  0x14d7	inc    	ebp
  0x14d8	mov    	ebp, edi
  0x14da	inc    	esp
  === BLOCK LINK ===
    0x14db
=== CODE BLOCK END ===

=== CODE BLOCK ADDRESS 0x14db ===
  0x14db	cmp    	dword ptr [edi], edi
  0x14dd	je     	0x19ad
  === BLOCK LINK ===
    0x14e3
=== CODE BLOCK END ===

=== CODE BLOCK ADDRESS 0x14e3 ===
  0x14e3	dec    	esp
  0x14e4	cmp    	dword ptr [ecx + 0x20], edi
  0x14e7	jne    	0x166a
  === BLOCK LINK ===
    0x14ed
=== CODE BLOCK END ===

=== CODE BLOCK ADDRESS 0x14ed ===
  0x14ed	inc    	esp
  0x14ee	cmp    	dword ptr [edi + 8], edi
  0x14f1	je     	0x150b
  === BLOCK LINK ===
    0x14f3
=== CODE BLOCK END ===

=== CODE BLOCK ADDRESS 0x14f3 ===
  0x14f3	dec    	eax
  0x14f4	lea    	edx, [edi + 0xc]
  0x14f7	dec    	esp
  0x14f8	lea    	eax, [ebp + 0x48]
  0x14fb	call   	0x19c8
  === BLOCK LINK ===
    0x1500
=== CODE BLOCK END ===

=== CODE BLOCK ADDRESS 0x1500 ===
  0x1500	dec    	eax
  0x1501	mov    	esi, dword ptr [ebp + 0x48]
  0x1504	mov    	ebx, eax
  0x1506	jmp    	0x165d
  === BLOCK LINK ===
    0x150b
=== CODE BLOCK END ===

=== CODE BLOCK ADDRESS 0x150b ===
  0x150b	dec    	eax
  0x150c	mov    	ecx, dword ptr [ecx + 0x18]
  0x150f	inc    	ebp
  0x1510	mov    	ah, bh
  0x1512	dec    	eax
  === BLOCK LINK ===
    0x1513
=== CODE BLOCK END ===

=== CODE BLOCK ADDRESS 0x1513 ===
  0x1513	mov    	eax, dword ptr [ecx]
  0x1515	dec    	eax
  0x1516	mov    	eax, dword ptr [eax + 0x28]
  0x1519	call   	dword ptr [0x1de1]
  === BLOCK LINK ===
    0x151f
=== CODE BLOCK END ===

=== CODE BLOCK ADDRESS 0x151f ===
  0x151f	dec    	ecx
  0x1520	mov    	ecx, dword ptr [esi + 0x18]
  0x1523	dec    	esp
  0x1524	lea    	ecx, [ebp + 0x48]
  0x1527	dec    	esp
  === BLOCK LINK ===
    0x1528
=== CODE BLOCK END ===

=== CODE BLOCK ADDRESS 0x1528 ===
  0x1528	lea    	eax, [ebp + 0x58]
  0x152b	mov    	edx, 1
  0x1530	dec    	eax
  0x1531	mov    	eax, dword ptr [ecx]
  0x1533	dec    	eax
  === BLOCK LINK ===
    0x1534
=== CODE BLOCK END ===

=== CODE BLOCK ADDRESS 0x1534 ===
  0x1534	mov    	eax, dword ptr [eax + 0x18]
  0x1537	call   	dword ptr [0x1dc3]
  === BLOCK LINK ===
    0x153d
=== CODE BLOCK END ===

=== CODE BLOCK ADDRESS 0x153d ===
  0x153d	test   	eax, eax
  0x153f	js     	0x161b
  === BLOCK LINK ===
    0x1545
=== CODE BLOCK END ===

=== CODE BLOCK ADDRESS 0x1545 ===
  0x1545	mov    	ecx, dword ptr [ebp + 0x48]
  0x1548	cmp    	ecx, 1
  0x154b	jne    	0x160e
  === BLOCK LINK ===
    0x1551
=== CODE BLOCK END ===

=== CODE BLOCK ADDRESS 0x1551 ===
  0x1551	dec    	eax
  0x1552	mov    	ecx, dword ptr [ebp + 0x58]
  0x1555	call   	0x1e20
  === BLOCK LINK ===
    0x155a
=== CODE BLOCK END ===

=== CODE BLOCK ADDRESS 0x155a ===
  0x155a	dec    	eax
  0x155b	mov    	ecx, dword ptr [ebp + 0x58]
  0x155e	dec    	eax
  0x155f	lea    	edx, [ebp + 0x60]
  0x1562	dec    	eax
  === BLOCK LINK ===
    0x1563
=== CODE BLOCK END ===

=== CODE BLOCK ADDRESS 0x1563 ===
  0x1563	mov    	eax, dword ptr [ecx]
  0x1565	dec    	eax
  0x1566	mov    	eax, dword ptr [eax + 0x38]
  0x1569	call   	dword ptr [0x1d91]
  === BLOCK LINK ===
    0x156f
=== CODE BLOCK END ===

=== CODE BLOCK ADDRESS 0x156f ===
  0x156f	mov    	dword ptr [ebp + 0x50], eax
  0x1572	test   	eax, eax
  0x1574	jne    	0x15f2
  === BLOCK LINK ===
    0x1576
=== CODE BLOCK END ===

=== CODE BLOCK ADDRESS 0x1576 ===
  0x1576	dec    	eax
  0x1577	mov    	ecx, dword ptr [ebp + 0x60]
  0x157a	mov    	edx, dword ptr [ecx + 0x24]
  0x157d	lea    	eax, [edx - 2]
  0x1580	test   	eax, 0xfffffffc
  === BLOCK LINK ===
    0x1585
=== CODE BLOCK END ===

=== CODE BLOCK ADDRESS 0x1585 ===
  0x1585	jne    	0x15ad
  === BLOCK LINK ===
    0x1587
=== CODE BLOCK END ===

=== CODE BLOCK ADDRESS 0x1587 ===
  0x1587	cmp    	edx, 3
  0x158a	je     	0x15ad
  === BLOCK LINK ===
    0x158c
=== CODE BLOCK END ===

=== CODE BLOCK ADDRESS 0x158c ===
  0x158c	inc    	ecx
  0x158d	inc    	edi
  0x158f	inc    	ecx
  0x1590	cmp    	edi, 1
  0x1593	jne    	0x15ad
  === BLOCK LINK ===
    0x1595
=== CODE BLOCK END ===

=== CODE BLOCK ADDRESS 0x1595 ===
  0x1595	dec    	eax
  0x1596	mov    	ebx, dword ptr [ebp + 0x58]
  0x1599	dec    	eax
  0x159a	mov    	ecx, ebx
  0x159c	dec    	eax
  === BLOCK LINK ===
    0x159d
=== CODE BLOCK END ===

=== CODE BLOCK ADDRESS 0x159d ===
  0x159d	mov    	eax, dword ptr [ebx]
  0x159f	dec    	eax
  0x15a0	mov    	eax, dword ptr [eax + 8]
  0x15a3	call   	dword ptr [0x1d57]
  === BLOCK LINK ===
    0x15a9
=== CODE BLOCK END ===

=== CODE BLOCK ADDRESS 0x15a9 ===
  0x15a9	dec    	eax
  0x15aa	mov    	ecx, dword ptr [ebp + 0x60]
  0x15ad	dec    	eax
  0x15ae	mov    	eax, dword ptr [ecx + 0x10]
  0x15b1	dec    	esp
  === BLOCK LINK ===
    0x15b2
=== CODE BLOCK END ===

=== CODE BLOCK ADDRESS 0x15b2 ===
  0x15b2	lea    	ecx, [edi + 0x10]
  0x15b5	dec    	esp
  0x15b6	sub    	ecx, eax
  0x15b8	movzx  	edx, word ptr [eax]
  0x15bb	inc    	esi
  === BLOCK LINK ===
    0x15bc
=== CODE BLOCK END ===

=== CODE BLOCK ADDRESS 0x15bc ===
  0x15bc	movzx  	eax, word ptr [eax + ecx]
  0x15c0	inc    	ecx
  0x15c1	sub    	edx, eax
  0x15c3	jne    	0x15ce
  === BLOCK LINK ===
    0x15c5
=== CODE BLOCK END ===

=== CODE BLOCK ADDRESS 0x15c5 ===
  0x15c5	dec    	eax
  0x15c6	add    	eax, 2
  0x15c9	inc    	ebp
  0x15ca	test   	eax, eax
  0x15cc	jne    	0x15b8
  === BLOCK LINK ===
    0x15ce
=== CODE BLOCK END ===

=== CODE BLOCK ADDRESS 0x15ce ===
  0x15ce	test   	edx, edx
  0x15d0	jne    	0x15ed
  === BLOCK LINK ===
    0x15d2
=== CODE BLOCK END ===

=== CODE BLOCK ADDRESS 0x15d2 ===
  0x15d2	dec    	eax
  0x15d3	mov    	esi, dword ptr [ebp + 0x58]
  0x15d6	inc    	ecx
  0x15d7	mov    	ah, 1
  0x15d9	dec    	eax
  === BLOCK LINK ===
    0x15da
=== CODE BLOCK END ===

=== CODE BLOCK ADDRESS 0x15da ===
  0x15da	mov    	ecx, esi
  0x15dc	dec    	eax
  0x15dd	mov    	eax, dword ptr [esi]
  0x15df	dec    	eax
  0x15e0	mov    	eax, dword ptr [eax + 8]
  === BLOCK LINK ===
    0x15e3
=== CODE BLOCK END ===

=== CODE BLOCK ADDRESS 0x15e3 ===
  0x15e3	call   	dword ptr [0x1d17]
  === BLOCK LINK ===
    0x15e9
=== CODE BLOCK END ===

=== CODE BLOCK ADDRESS 0x15e9 ===
  0x15e9	dec    	eax
  0x15ea	mov    	ecx, dword ptr [ebp + 0x60]
  0x15ed	call   	0x1ed8
  === BLOCK LINK ===
    0x15f2
=== CODE BLOCK END ===

=== CODE BLOCK ADDRESS 0x15f2 ===
  0x15f2	dec    	eax
  0x15f3	mov    	ecx, dword ptr [ebp + 0x58]
  0x15f6	dec    	eax
  0x15f7	mov    	eax, dword ptr [ecx]
  0x15f9	dec    	eax
  === BLOCK LINK ===
    0x15fa
=== CODE BLOCK END ===

=== CODE BLOCK ADDRESS 0x15fa ===
  0x15fa	mov    	eax, dword ptr [eax + 0x10]
  0x15fd	call   	dword ptr [0x1cfd]
  === BLOCK LINK ===
    0x1603
=== CODE BLOCK END ===

=== CODE BLOCK ADDRESS 0x1603 ===
  0x1603	inc    	ebp
  0x1604	test   	ah, ah
  0x1606	jne    	0x1631
  === BLOCK LINK ===
    0x1608
=== CODE BLOCK END ===

=== CODE BLOCK ADDRESS 0x1608 ===
  0x1608	mov    	ecx, dword ptr [ebp + 0x48]
  0x160b	mov    	eax, dword ptr [ebp + 0x50]
  0x160e	test   	eax, eax
  0x1610	js     	0x161b
  === BLOCK LINK ===
    0x1612
=== CODE BLOCK END ===

=== CODE BLOCK ADDRESS 0x1612 ===
  0x1612	cmp    	ecx, 1
  0x1615	je     	0x151f
  === BLOCK LINK ===
    0x161b
=== CODE BLOCK END ===

=== CODE BLOCK ADDRESS 0x161b ===
  0x161b	inc    	ecx
  0x161c	cmp    	edi, 1
  0x161f	jne    	0x164b
  === BLOCK LINK ===
    0x1621
=== CODE BLOCK END ===

=== CODE BLOCK ADDRESS 0x1621 ===
  0x1621	inc    	ebp
  0x1622	xor    	edi, edi
  0x1624	dec    	eax
  0x1625	test   	ebx, ebx
  0x1627	je     	0x1650
  === BLOCK LINK ===
    0x1629
=== CODE BLOCK END ===

=== CODE BLOCK ADDRESS 0x1629 ===
  0x1629	dec    	eax
  0x162a	mov    	esi, ebx
  0x162c	inc    	ecx
  0x162d	mov    	ah, 1
  0x162f	jmp    	0x1650
  === BLOCK LINK ===
    0x1631
=== CODE BLOCK END ===

=== CODE BLOCK ADDRESS 0x1631 ===
  0x1631	inc    	ebp
  0x1632	xor    	edi, edi
  0x1634	dec    	eax
  0x1635	test   	ebx, ebx
  0x1637	je     	0x1650
  === BLOCK LINK ===
    0x1639
=== CODE BLOCK END ===

=== CODE BLOCK ADDRESS 0x1639 ===
  0x1639	dec    	eax
  0x163a	mov    	eax, dword ptr [ebx]
  0x163c	dec    	eax
  0x163d	mov    	ecx, ebx
  0x163f	dec    	eax
  === BLOCK LINK ===
    0x1640
=== CODE BLOCK END ===

=== CODE BLOCK ADDRESS 0x1640 ===
  0x1640	mov    	eax, dword ptr [eax + 0x10]
  0x1643	call   	dword ptr [0x1cb7]
  === BLOCK LINK ===
    0x1649
=== CODE BLOCK END ===

=== CODE BLOCK ADDRESS 0x1649 ===
  0x1649	jmp    	0x1650
  === BLOCK LINK ===
    0x164b
=== CODE BLOCK END ===

=== CODE BLOCK ADDRESS 0x164b ===
  0x164b	ja     	0x1631
  === BLOCK LINK ===
    0x164d
=== CODE BLOCK END ===

=== CODE BLOCK ADDRESS 0x164d ===
  0x164d	inc    	ebp
  0x164e	xor    	edi, edi
  0x1650	inc    	ecx
  0x1651	neg    	ah
  0x1653	sbb    	ebx, ebx
  === BLOCK LINK ===
    0x1655
=== CODE BLOCK END ===

=== CODE BLOCK ADDRESS 0x1655 ===
  0x1655	not    	ebx
  0x1657	and    	ebx, 0x80004005
  0x165d	test   	ebx, ebx
  0x165f	js     	0x1986
  === BLOCK LINK ===
    0x1665
=== CODE BLOCK END ===

=== CODE BLOCK ADDRESS 0x1665 ===
  0x1665	dec    	ecx
  0x1666	mov    	edi, dword ptr [esi]
  0x1668	jmp    	0x166e
  === BLOCK LINK ===
    0x166a
=== CODE BLOCK END ===

=== CODE BLOCK ADDRESS 0x166a ===
  0x166a	dec    	eax
  0x166b	mov    	esi, dword ptr [ecx + 0x20]
  0x166e	inc    	ecx
  0x166f	mov    	esp, 0x17
  0x1674	inc    	esp
  === BLOCK LINK ===
    0x1675
=== CODE BLOCK END ===

=== CODE BLOCK ADDRESS 0x1675 ===
  0x1675	cmp    	dword ptr [edi + 0x448], edi
  0x167b	je     	0x17d8
  === BLOCK LINK ===
    0x1681
=== CODE BLOCK END ===

=== CODE BLOCK ADDRESS 0x1681 ===
  0x1681	dec    	eax
  0x1682	lea    	eax, [ebp + 0x60]
  0x1685	dec    	esp
  0x1686	mov    	dword ptr [ebp + 0x58], edi
  0x1689	dec    	esp
  === BLOCK LINK ===
    0x168a
=== CODE BLOCK END ===

=== CODE BLOCK ADDRESS 0x168a ===
  0x168a	lea    	ecx, [0x1f68]
  0x1690	dec    	eax
  0x1691	mov    	dword ptr [esp + 0x20], eax
  0x1695	inc    	ebp
  0x1696	mov    	eax, esp
  === BLOCK LINK ===
    0x1698
=== CODE BLOCK END ===

=== CODE BLOCK ADDRESS 0x1698 ===
  0x1698	inc    	esp
  0x1699	mov    	dword ptr [ebp + 0x48], edi
  0x169c	xor    	edx, edx
  0x169e	dec    	esp
  0x169f	mov    	dword ptr [ebp + 0x50], edi
  === BLOCK LINK ===
    0x16a2
=== CODE BLOCK END ===

=== CODE BLOCK ADDRESS 0x16a2 ===
  0x16a2	dec    	eax
  0x16a3	lea    	ecx, [0x1f1f]
  0x16a9	dec    	esp
  0x16aa	mov    	dword ptr [ebp + 0x60], edi
  0x16ad	inc    	ecx
  === BLOCK LINK ===
    0x16ae
=== CODE BLOCK END ===

=== CODE BLOCK ADDRESS 0x16ae ===
  0x16ae	mov    	bh, bh
  0x16b0	dec    	eax
  0x16b1	call   	dword ptr [0x1a81]
  === BLOCK LINK ===
    0x16b7
=== CODE BLOCK END ===

=== CODE BLOCK ADDRESS 0x16b7 ===
  0x16b7	nop    	dword ptr [eax + eax]
  0x16bc	mov    	ebx, eax
  0x16be	test   	eax, eax
  0x16c0	js     	0x17be
  === BLOCK LINK ===
    0x16c6
=== CODE BLOCK END ===

=== CODE BLOCK ADDRESS 0x16c6 ===
  0x16c6	dec    	eax
  0x16c7	mov    	ecx, dword ptr [ebp + 0x60]
  0x16ca	call   	0x1e20
  === BLOCK LINK ===
    0x16cf
=== CODE BLOCK END ===

=== CODE BLOCK ADDRESS 0x16cf ===
  0x16cf	dec    	eax
  0x16d0	mov    	ecx, dword ptr [ebp + 0x60]
  0x16d3	dec    	esp
  0x16d4	lea    	eax, [ebp + 0x50]
  0x16d7	xor    	edx, edx
  === BLOCK LINK ===
    0x16d9
=== CODE BLOCK END ===

=== CODE BLOCK ADDRESS 0x16d9 ===
  0x16d9	dec    	eax
  0x16da	mov    	eax, dword ptr [ecx]
  0x16dc	dec    	eax
  0x16dd	mov    	eax, dword ptr [eax + 0x18]
  0x16e0	call   	dword ptr [0x1c1a]
  === BLOCK LINK ===
    0x16e6
=== CODE BLOCK END ===

=== CODE BLOCK ADDRESS 0x16e6 ===
  0x16e6	dec    	eax
  0x16e7	mov    	ecx, dword ptr [ebp + 0x60]
  0x16ea	mov    	ebx, eax
  0x16ec	dec    	eax
  0x16ed	mov    	eax, dword ptr [ecx]
  === BLOCK LINK ===
    0x16ef
=== CODE BLOCK END ===

=== CODE BLOCK ADDRESS 0x16ef ===
  0x16ef	dec    	eax
  0x16f0	mov    	eax, dword ptr [eax + 0x10]
  0x16f3	call   	dword ptr [0x1c07]
  === BLOCK LINK ===
    0x16f9
=== CODE BLOCK END ===

=== CODE BLOCK ADDRESS 0x16f9 ===
  0x16f9	dec    	eax
  0x16fa	mov    	ecx, dword ptr [ebp + 0x50]
  0x16fd	test   	ebx, ebx
  0x16ff	js     	0x17c2
  === BLOCK LINK ===
    0x1705
=== CODE BLOCK END ===

=== CODE BLOCK ADDRESS 0x1705 ===
  0x1705	call   	0x1e20
  === BLOCK LINK ===
    0x170a
=== CODE BLOCK END ===

=== CODE BLOCK ADDRESS 0x170a ===
  0x170a	dec    	eax
  0x170b	mov    	ecx, dword ptr [ebp + 0x50]
  0x170e	dec    	eax
  0x170f	mov    	eax, dword ptr [ecx]
  0x1711	dec    	eax
  === BLOCK LINK ===
    0x1712
=== CODE BLOCK END ===

=== CODE BLOCK ADDRESS 0x1712 ===
  0x1712	mov    	eax, dword ptr [eax + 0x28]
  0x1715	call   	dword ptr [0x1be5]
  === BLOCK LINK ===
    0x171b
=== CODE BLOCK END ===

=== CODE BLOCK ADDRESS 0x171b ===
  0x171b	mov    	ebx, eax
  0x171d	test   	eax, eax
  0x171f	js     	0x17be
  === BLOCK LINK ===
    0x1725
=== CODE BLOCK END ===

=== CODE BLOCK ADDRESS 0x1725 ===
  0x1725	dec    	eax
  0x1726	mov    	ecx, dword ptr [ebp + 0x50]
  0x1729	dec    	esp
  0x172a	lea    	ecx, [ebp + 0x48]
  0x172d	dec    	esp
  === BLOCK LINK ===
    0x172e
=== CODE BLOCK END ===

=== CODE BLOCK ADDRESS 0x172e ===
  0x172e	lea    	eax, [ebp + 0x58]
  0x1731	mov    	edx, 1
  0x1736	dec    	eax
  0x1737	mov    	eax, dword ptr [ecx]
  0x1739	dec    	eax
  === BLOCK LINK ===
    0x173a
=== CODE BLOCK END ===

=== CODE BLOCK ADDRESS 0x173a ===
  0x173a	mov    	eax, dword ptr [eax + 0x18]
  0x173d	call   	dword ptr [0x1bbd]
  === BLOCK LINK ===
    0x1743
=== CODE BLOCK END ===

=== CODE BLOCK ADDRESS 0x1743 ===
  0x1743	mov    	ebx, eax
  0x1745	test   	eax, eax
  0x1747	js     	0x17b1
  === BLOCK LINK ===
    0x1749
=== CODE BLOCK END ===

=== CODE BLOCK ADDRESS 0x1749 ===
  0x1749	mov    	ecx, dword ptr [ebp + 0x48]
  0x174c	cmp    	ecx, 1
  0x174f	jne    	0x17a4
  === BLOCK LINK ===
    0x1751
=== CODE BLOCK END ===

=== CODE BLOCK ADDRESS 0x1751 ===
  0x1751	dec    	eax
  0x1752	mov    	ecx, dword ptr [ebp + 0x58]
  0x1755	call   	0x1e20
  === BLOCK LINK ===
    0x175a
=== CODE BLOCK END ===

=== CODE BLOCK ADDRESS 0x175a ===
  0x175a	dec    	eax
  0x175b	mov    	ecx, dword ptr [ebp + 0x58]
  0x175e	dec    	eax
  0x175f	lea    	edx, [ebp - 0x18]
  0x1762	dec    	eax
  === BLOCK LINK ===
    0x1763
=== CODE BLOCK END ===

=== CODE BLOCK ADDRESS 0x1763 ===
  0x1763	mov    	eax, dword ptr [ecx]
  0x1765	dec    	eax
  0x1766	mov    	eax, dword ptr [eax + 0x38]
  0x1769	call   	dword ptr [0x1b91]
  === BLOCK LINK ===
    0x176f
=== CODE BLOCK END ===

=== CODE BLOCK ADDRESS 0x176f ===
  0x176f	mov    	ebx, eax
  0x1771	test   	eax, eax
  0x1773	js     	0x1790
  === BLOCK LINK ===
    0x1775
=== CODE BLOCK END ===

=== CODE BLOCK ADDRESS 0x1775 ===
  0x1775	dec    	eax
  0x1776	mov    	ecx, dword ptr [ebp - 0x18]
  0x1779	cmp    	dword ptr [ecx + 0x24], 7
  0x177d	jne    	0x1786
  === BLOCK LINK ===
    0x177f
=== CODE BLOCK END ===

=== CODE BLOCK ADDRESS 0x177f ===
  0x177f	dec    	esp
  0x1780	mov    	ebp, dword ptr [ebp + 0x58]
  0x1783	inc    	eax
  0x1784	mov    	bh, 1
  0x1786	call   	0x1ed8
  === BLOCK LINK ===
    0x178b
=== CODE BLOCK END ===

=== CODE BLOCK ADDRESS 0x178b ===
  0x178b	inc    	eax
  0x178c	test   	bh, bh
  0x178e	jne    	0x17b1
  === BLOCK LINK ===
    0x1790
=== CODE BLOCK END ===

=== CODE BLOCK ADDRESS 0x1790 ===
  0x1790	dec    	eax
  0x1791	mov    	ecx, dword ptr [ebp + 0x58]
  0x1794	dec    	eax
  0x1795	mov    	eax, dword ptr [ecx]
  0x1797	dec    	eax
  === BLOCK LINK ===
    0x1798
=== CODE BLOCK END ===

=== CODE BLOCK ADDRESS 0x1798 ===
  0x1798	mov    	eax, dword ptr [eax + 0x10]
  0x179b	call   	dword ptr [0x1b5f]
  === BLOCK LINK ===
    0x17a1
=== CODE BLOCK END ===

=== CODE BLOCK ADDRESS 0x17a1 ===
  0x17a1	mov    	ecx, dword ptr [ebp + 0x48]
  0x17a4	test   	ebx, ebx
  0x17a6	js     	0x17b1
  === BLOCK LINK ===
    0x17a8
=== CODE BLOCK END ===

=== CODE BLOCK ADDRESS 0x17a8 ===
  0x17a8	cmp    	ecx, 1
  0x17ab	je     	0x1725
  === BLOCK LINK ===
    0x17b1
=== CODE BLOCK END ===

=== CODE BLOCK ADDRESS 0x17b1 ===
  0x17b1	inc    	eax
  0x17b2	neg    	bh
  0x17b4	sbb    	ebx, ebx
  0x17b6	not    	ebx
  0x17b8	and    	ebx, 0x80004005
  === BLOCK LINK ===
    0x17be
=== CODE BLOCK END ===

=== CODE BLOCK ADDRESS 0x17be ===
  0x17be	dec    	eax
  0x17bf	mov    	ecx, dword ptr [ebp + 0x50]
  0x17c2	dec    	eax
  0x17c3	test   	ecx, ecx
  0x17c5	je     	0x17d4
  === BLOCK LINK ===
    0x17c7
=== CODE BLOCK END ===

=== CODE BLOCK ADDRESS 0x17c7 ===
  0x17c7	dec    	eax
  0x17c8	mov    	eax, dword ptr [ecx]
  0x17ca	dec    	eax
  0x17cb	mov    	eax, dword ptr [eax + 0x10]
  0x17ce	call   	dword ptr [0x1b2c]
  === BLOCK LINK ===
    0x17d4
=== CODE BLOCK END ===

=== CODE BLOCK ADDRESS 0x17d4 ===
  0x17d4	test   	ebx, ebx
  0x17d6	jmp    	0x17f3
  === BLOCK LINK ===
    0x17d8
=== CODE BLOCK END ===

=== CODE BLOCK ADDRESS 0x17d8 ===
  0x17d8	dec    	eax
  0x17d9	lea    	edx, [edi + 0x434]
  0x17df	dec    	ecx
  0x17e0	mov    	ecx, esi
  0x17e2	dec    	esp
  === BLOCK LINK ===
    0x17e3
=== CODE BLOCK END ===

=== CODE BLOCK ADDRESS 0x17e3 ===
  0x17e3	lea    	eax, [ebp - 0x18]
  0x17e6	call   	0x19c8
  === BLOCK LINK ===
    0x17eb
=== CODE BLOCK END ===

=== CODE BLOCK ADDRESS 0x17eb ===
  0x17eb	dec    	esp
  0x17ec	mov    	ebp, dword ptr [ebp - 0x18]
  0x17ef	mov    	ebx, eax
  0x17f1	test   	eax, eax
  0x17f3	js     	0x196c
  === BLOCK LINK ===
    0x17f9
=== CODE BLOCK END ===

=== CODE BLOCK ADDRESS 0x17f9 ===
  0x17f9	dec    	eax
  0x17fa	test   	esi, esi
  0x17fc	je     	0x195b
  === BLOCK LINK ===
    0x1802
=== CODE BLOCK END ===

=== CODE BLOCK ADDRESS 0x1802 ===
  0x1802	dec    	ebp
  0x1803	test   	ebp, ebp
  0x1805	je     	0x195b
  === BLOCK LINK ===
    0x180b
=== CODE BLOCK END ===

=== CODE BLOCK ADDRESS 0x180b ===
  0x180b	dec    	eax
  0x180c	lea    	eax, [ebp + 0x48]
  0x180f	dec    	esp
  0x1810	mov    	dword ptr [ebp + 0x48], edi
  0x1813	dec    	esp
  === BLOCK LINK ===
    0x1814
=== CODE BLOCK END ===

=== CODE BLOCK ADDRESS 0x1814 ===
  0x1814	lea    	ecx, [0x1dce]
  0x181a	dec    	eax
  0x181b	mov    	dword ptr [esp + 0x20], eax
  0x181f	inc    	ebp
  0x1820	mov    	eax, esp
  === BLOCK LINK ===
    0x1822
=== CODE BLOCK END ===

=== CODE BLOCK ADDRESS 0x1822 ===
  0x1822	dec    	eax
  0x1823	lea    	ecx, [0x1daf]
  0x1829	xor    	edx, edx
  0x182b	dec    	eax
  0x182c	call   	dword ptr [0x1906]
  === BLOCK LINK ===
    0x1832
=== CODE BLOCK END ===

=== CODE BLOCK ADDRESS 0x1832 ===
  0x1832	nop    	dword ptr [eax + eax]
  0x1837	dec    	eax
  0x1838	mov    	ecx, dword ptr [ebp + 0x48]
  0x183b	mov    	ebx, eax
  0x183d	test   	eax, eax
  === BLOCK LINK ===
    0x183f
=== CODE BLOCK END ===

=== CODE BLOCK ADDRESS 0x183f ===
  0x183f	jns    	0x185c
  === BLOCK LINK ===
    0x1841
=== CODE BLOCK END ===

=== CODE BLOCK ADDRESS 0x1841 ===
  0x1841	dec    	eax
  0x1842	test   	ecx, ecx
  0x1844	je     	0x1960
  === BLOCK LINK ===
    0x184a
=== CODE BLOCK END ===

=== CODE BLOCK ADDRESS 0x184a ===
  0x184a	dec    	eax
  0x184b	mov    	eax, dword ptr [ecx]
  0x184d	dec    	eax
  0x184e	mov    	eax, dword ptr [eax + 0x10]
  0x1851	call   	dword ptr [0x1aa9]
  === BLOCK LINK ===
    0x1857
=== CODE BLOCK END ===

=== CODE BLOCK ADDRESS 0x1857 ===
  0x1857	jmp    	0x1960
  === BLOCK LINK ===
    0x185c
=== CODE BLOCK END ===

=== CODE BLOCK ADDRESS 0x185c ===
  0x185c	dec    	esp
  0x185d	mov    	dword ptr [ebp + 0x58], edi
  0x1860	dec    	esp
  0x1861	lea    	eax, [ebp + 0x58]
  0x1864	dec    	eax
  === BLOCK LINK ===
    0x1865
=== CODE BLOCK END ===

=== CODE BLOCK ADDRESS 0x1865 ===
  0x1865	mov    	eax, dword ptr [ecx]
  0x1867	dec    	eax
  0x1868	mov    	edx, esi
  0x186a	dec    	eax
  0x186b	mov    	eax, dword ptr [eax + 0x18]
  === BLOCK LINK ===
    0x186e
=== CODE BLOCK END ===

=== CODE BLOCK ADDRESS 0x186e ===
  0x186e	call   	dword ptr [0x1a8c]
  === BLOCK LINK ===
    0x1874
=== CODE BLOCK END ===

=== CODE BLOCK ADDRESS 0x1874 ===
  0x1874	mov    	ebx, eax
  0x1876	test   	eax, eax
  0x1878	jns    	0x1896
  === BLOCK LINK ===
    0x187a
=== CODE BLOCK END ===

=== CODE BLOCK ADDRESS 0x187a ===
  0x187a	dec    	eax
  0x187b	mov    	ecx, dword ptr [ebp + 0x58]
  0x187e	dec    	eax
  0x187f	test   	ecx, ecx
  0x1881	je     	0x1890
  === BLOCK LINK ===
    0x1883
=== CODE BLOCK END ===

=== CODE BLOCK ADDRESS 0x1883 ===
  0x1883	dec    	eax
  0x1884	mov    	eax, dword ptr [ecx]
  0x1886	dec    	eax
  0x1887	mov    	eax, dword ptr [eax + 0x10]
  0x188a	call   	dword ptr [0x1a70]
  === BLOCK LINK ===
    0x1890
=== CODE BLOCK END ===

=== CODE BLOCK ADDRESS 0x1890 ===
  0x1890	dec    	eax
  0x1891	mov    	ecx, dword ptr [ebp + 0x48]
  0x1894	jmp    	0x1841
  === BLOCK LINK ===
    0x1896
=== CODE BLOCK END ===

=== CODE BLOCK ADDRESS 0x1896 ===
  0x1896	dec    	eax
  0x1897	mov    	ecx, dword ptr [ebp + 0x48]
  0x189a	dec    	esp
  0x189b	lea    	eax, [ebp + 0x60]
  0x189e	dec    	esp
  === BLOCK LINK ===
    0x189f
=== CODE BLOCK END ===

=== CODE BLOCK ADDRESS 0x189f ===
  0x189f	mov    	dword ptr [ebp + 0x60], edi
  0x18a2	dec    	ecx
  0x18a3	mov    	edx, ebp
  0x18a5	dec    	eax
  0x18a6	mov    	eax, dword ptr [ecx]
  === BLOCK LINK ===
    0x18a8
=== CODE BLOCK END ===

=== CODE BLOCK ADDRESS 0x18a8 ===
  0x18a8	dec    	eax
  0x18a9	mov    	eax, dword ptr [eax + 0x18]
  0x18ac	call   	dword ptr [0x1a4e]
  === BLOCK LINK ===
    0x18b2
=== CODE BLOCK END ===

=== CODE BLOCK ADDRESS 0x18b2 ===
  0x18b2	mov    	ebx, eax
  0x18b4	test   	eax, eax
  0x18b6	jns    	0x18d0
  === BLOCK LINK ===
    0x18b8
=== CODE BLOCK END ===

=== CODE BLOCK ADDRESS 0x18b8 ===
  0x18b8	dec    	eax
  0x18b9	mov    	ecx, dword ptr [ebp + 0x60]
  0x18bc	dec    	eax
  0x18bd	test   	ecx, ecx
  0x18bf	je     	0x187a
  === BLOCK LINK ===
    0x18c1
=== CODE BLOCK END ===

=== CODE BLOCK ADDRESS 0x18c1 ===
  0x18c1	dec    	eax
  0x18c2	mov    	eax, dword ptr [ecx]
  0x18c4	dec    	eax
  0x18c5	mov    	eax, dword ptr [eax + 0x10]
  0x18c8	call   	dword ptr [0x1a32]
  === BLOCK LINK ===
    0x18ce
=== CODE BLOCK END ===

=== CODE BLOCK ADDRESS 0x18ce ===
  0x18ce	jmp    	0x187a
  === BLOCK LINK ===
    0x18d0
=== CODE BLOCK END ===

=== CODE BLOCK ADDRESS 0x18d0 ===
  0x18d0	dec    	eax
  0x18d1	mov    	ecx, dword ptr [ebp + 0x58]
  0x18d4	dec    	eax
  0x18d5	lea    	edx, [ebp + 0x50]
  0x18d8	dec    	esp
  === BLOCK LINK ===
    0x18d9
=== CODE BLOCK END ===

=== CODE BLOCK ADDRESS 0x18d9 ===
  0x18d9	mov    	dword ptr [ebp + 0x50], edi
  0x18dc	dec    	eax
  0x18dd	mov    	eax, dword ptr [ecx]
  0x18df	dec    	eax
  0x18e0	mov    	eax, dword ptr [eax + 0x50]
  === BLOCK LINK ===
    0x18e3
=== CODE BLOCK END ===

=== CODE BLOCK ADDRESS 0x18e3 ===
  0x18e3	call   	dword ptr [0x1a17]
  === BLOCK LINK ===
    0x18e9
=== CODE BLOCK END ===

=== CODE BLOCK ADDRESS 0x18e9 ===
  0x18e9	mov    	ebx, eax
  0x18eb	test   	eax, eax
  0x18ed	jns    	0x1907
  === BLOCK LINK ===
    0x18ef
=== CODE BLOCK END ===

=== CODE BLOCK ADDRESS 0x18ef ===
  0x18ef	dec    	eax
  0x18f0	mov    	ecx, dword ptr [ebp + 0x50]
  0x18f3	dec    	eax
  0x18f4	test   	ecx, ecx
  0x18f6	je     	0x18b8
  === BLOCK LINK ===
    0x18f8
=== CODE BLOCK END ===

=== CODE BLOCK ADDRESS 0x18f8 ===
  0x18f8	dec    	eax
  0x18f9	mov    	eax, dword ptr [ecx]
  0x18fb	dec    	eax
  0x18fc	mov    	eax, dword ptr [eax + 0x10]
  0x18ff	call   	dword ptr [0x19fb]
  === BLOCK LINK ===
    0x1905
=== CODE BLOCK END ===

=== CODE BLOCK ADDRESS 0x1905 ===
  0x1905	jmp    	0x18b8
  === BLOCK LINK ===
    0x1907
=== CODE BLOCK END ===

=== CODE BLOCK ADDRESS 0x1907 ===
  0x1907	dec    	eax
  0x1908	mov    	ecx, dword ptr [ebp + 0x60]
  0x190b	dec    	eax
  0x190c	lea    	edx, [ebp - 0x18]
  0x190f	dec    	esp
  === BLOCK LINK ===
    0x1910
=== CODE BLOCK END ===

=== CODE BLOCK ADDRESS 0x1910 ===
  0x1910	mov    	dword ptr [ebp - 0x18], edi
  0x1913	dec    	eax
  0x1914	mov    	eax, dword ptr [ecx]
  0x1916	dec    	eax
  0x1917	mov    	eax, dword ptr [eax + 0x58]
  === BLOCK LINK ===
    0x191a
=== CODE BLOCK END ===

=== CODE BLOCK ADDRESS 0x191a ===
  0x191a	call   	dword ptr [0x19e0]
  === BLOCK LINK ===
    0x1920
=== CODE BLOCK END ===

=== CODE BLOCK ADDRESS 0x1920 ===
  0x1920	dec    	eax
  0x1921	mov    	ecx, dword ptr [ebp + 0x50]
  0x1924	mov    	ebx, eax
  0x1926	test   	eax, eax
  0x1928	jns    	0x1940
  === BLOCK LINK ===
    0x192a
=== CODE BLOCK END ===

=== CODE BLOCK ADDRESS 0x192a ===
  0x192a	dec    	eax
  0x192b	test   	ecx, ecx
  0x192d	je     	0x1940
  === BLOCK LINK ===
    0x192f
=== CODE BLOCK END ===

=== CODE BLOCK ADDRESS 0x192f ===
  0x192f	dec    	eax
  0x1930	mov    	eax, dword ptr [ecx]
  0x1932	dec    	eax
  0x1933	mov    	eax, dword ptr [eax + 0x18]
  0x1936	call   	dword ptr [0x19c4]
  === BLOCK LINK ===
    0x193c
=== CODE BLOCK END ===

=== CODE BLOCK ADDRESS 0x193c ===
  0x193c	dec    	eax
  0x193d	mov    	ecx, dword ptr [ebp + 0x50]
  0x1940	dec    	eax
  0x1941	mov    	edx, dword ptr [ebp - 0x18]
  0x1944	dec    	eax
  === BLOCK LINK ===
    0x1945
=== CODE BLOCK END ===

=== CODE BLOCK ADDRESS 0x1945 ===
  0x1945	test   	edx, edx
  0x1947	je     	0x18f3
  === BLOCK LINK ===
    0x1949
=== CODE BLOCK END ===

=== CODE BLOCK ADDRESS 0x1949 ===
  0x1949	dec    	eax
  0x194a	mov    	eax, dword ptr [edx]
  0x194c	dec    	eax
  0x194d	mov    	ecx, edx
  0x194f	dec    	eax
  === BLOCK LINK ===
    0x1950
=== CODE BLOCK END ===

=== CODE BLOCK ADDRESS 0x1950 ===
  0x1950	mov    	eax, dword ptr [eax + 0x10]
  0x1953	call   	dword ptr [0x19a7]
  === BLOCK LINK ===
    0x1959
=== CODE BLOCK END ===

=== CODE BLOCK ADDRESS 0x1959 ===
  0x1959	jmp    	0x18ef
  === BLOCK LINK ===
    0x195b
=== CODE BLOCK END ===

=== CODE BLOCK ADDRESS 0x195b ===
  0x195b	mov    	ebx, 0x80070057
  0x1960	test   	ebx, ebx
  0x1962	js     	0x196c
  === BLOCK LINK ===
    0x1964
=== CODE BLOCK END ===

=== CODE BLOCK ADDRESS 0x1964 ===
  0x1964	inc    	ecx
  0x1965	mov    	dword ptr [esi + 0xc], 1
  0x196c	dec    	ebp
  0x196d	test   	ebp, ebp
  0x196f	je     	0x1982
  === BLOCK LINK ===
    0x1971
=== CODE BLOCK END ===

=== CODE BLOCK ADDRESS 0x1971 ===
  0x1971	dec    	ecx
  0x1972	mov    	eax, dword ptr [ebp]
  0x1975	dec    	ecx
  0x1976	mov    	ecx, ebp
  0x1978	dec    	eax
  === BLOCK LINK ===
    0x1979
=== CODE BLOCK END ===

=== CODE BLOCK ADDRESS 0x1979 ===
  0x1979	mov    	eax, dword ptr [eax + 0x10]
  0x197c	call   	dword ptr [0x197e]
  === BLOCK LINK ===
    0x1982
=== CODE BLOCK END ===

=== CODE BLOCK ADDRESS 0x1982 ===
  0x1982	test   	ebx, ebx
  0x1984	jns    	0x19a3
  === BLOCK LINK ===
    0x1986
=== CODE BLOCK END ===

=== CODE BLOCK ADDRESS 0x1986 ===
  0x1986	dec    	eax
  0x1987	test   	esi, esi
  0x1989	je     	0x19ad
  === BLOCK LINK ===
    0x198b
=== CODE BLOCK END ===

=== CODE BLOCK ADDRESS 0x198b ===
  0x198b	dec    	ebp
  0x198c	cmp    	dword ptr [esi + 0x20], edi
  0x198f	jne    	0x19ad
  === BLOCK LINK ===
    0x1991
=== CODE BLOCK END ===

=== CODE BLOCK ADDRESS 0x1991 ===
  0x1991	dec    	eax
  0x1992	mov    	eax, dword ptr [esi]
  0x1994	dec    	eax
  0x1995	mov    	ecx, esi
  0x1997	dec    	eax
  === BLOCK LINK ===
    0x1998
=== CODE BLOCK END ===

=== CODE BLOCK ADDRESS 0x1998 ===
  0x1998	mov    	eax, dword ptr [eax + 0x10]
  0x199b	call   	dword ptr [0x195f]
  === BLOCK LINK ===
    0x19a1
=== CODE BLOCK END ===

=== CODE BLOCK ADDRESS 0x19a1 ===
  0x19a1	jmp    	0x19ad
  === BLOCK LINK ===
    0x19a3
=== CODE BLOCK END ===

=== CODE BLOCK ADDRESS 0x19a3 ===
  0x19a3	dec    	ebp
  0x19a4	cmp    	dword ptr [esi + 0x20], edi
  0x19a7	jne    	0x19ad
  === BLOCK LINK ===
    0x19a9
=== CODE BLOCK END ===

=== CODE BLOCK ADDRESS 0x19a9 ===
  0x19a9	dec    	ecx
  0x19aa	mov    	dword ptr [esi + 0x20], esi
  0x19ad	mov    	eax, ebx
  0x19af	dec    	eax
  0x19b0	add    	esp, 0x48
  === BLOCK LINK ===
    0x19b3
=== CODE BLOCK END ===

=== CODE BLOCK ADDRESS 0x19b3 ===
  0x19b3	inc    	ecx
  0x19b4	pop    	edi
  0x19b5	inc    	ecx
  0x19b6	pop    	esi
  0x19b7	inc    	ecx
  === BLOCK LINK ===
    0x19b8
=== CODE BLOCK END ===

=== CODE BLOCK ADDRESS 0x19b8 ===
  0x19b8	pop    	ebp
  0x19b9	inc    	ecx
  0x19ba	pop    	esp
  0x19bb	pop    	edi
  0x19bc	pop    	esi
  === BLOCK LINK ===
    0x19bd
=== CODE BLOCK END ===

=== CODE BLOCK ADDRESS 0x19bd ===
  0x19bd	pop    	ebx
  0x19be	pop    	ebp
  0x19bf	ret    	
  0x19c0	int3   	
  0x19c1	int3   	
  === BLOCK LINK ===
    0x19c2
=== CODE BLOCK END ===

=== CODE BLOCK ADDRESS 0x1e20 ===
=== CODE BLOCK END ===

=== CODE BLOCK ADDRESS 0x19c2 ===
  0x19c2	int3   	
  0x19c3	int3   	
  0x19c4	int3   	
  0x19c5	int3   	
  0x19c6	int3   	
  === BLOCK LINK ===
    0x19c7
=== CODE BLOCK END ===

=== CODE BLOCK ADDRESS 0x19c7 ===
  0x19c7	int3   	
  0x19c8	inc    	eax
  0x19c9	push   	ebx
  0x19ca	push   	ebp
  0x19cb	push   	esi
  === BLOCK LINK ===
    0x19cc
=== CODE BLOCK END ===

=== CODE BLOCK ADDRESS 0x19cc ===
  0x19cc	push   	edi
  0x19cd	inc    	ecx
  0x19ce	push   	esi
  0x19cf	dec    	eax
  0x19d0	sub    	esp, 0x30
  === BLOCK LINK ===
    0x19d3
=== CODE BLOCK END ===

=== CODE BLOCK ADDRESS 0x19d3 ===
  0x19d3	dec    	ecx
  0x19d4	and    	dword ptr [eax], 0
  0x19d7	dec    	eax
  0x19d8	mov    	ebp, ecx
  0x19da	dec    	eax
  === BLOCK LINK ===
    0x19db
=== CODE BLOCK END ===

=== CODE BLOCK ADDRESS 0x19db ===
  0x19db	mov    	ecx, dword ptr [ecx + 0x18]
  0x19de	xor    	bl, bl
  0x19e0	dec    	ebp
  0x19e1	mov    	esi, eax
  0x19e3	dec    	eax
  === BLOCK LINK ===
    0x19e4
=== CODE BLOCK END ===

=== CODE BLOCK ADDRESS 0x19e4 ===
  0x19e4	mov    	esi, edx
  0x19e6	dec    	eax
  0x19e7	mov    	eax, dword ptr [ecx]
  0x19e9	dec    	eax
  0x19ea	mov    	eax, dword ptr [eax + 0x28]
  === BLOCK LINK ===
    0x19ed
=== CODE BLOCK END ===

=== CODE BLOCK ADDRESS 0x19ed ===
  0x19ed	call   	dword ptr [0x190d]
  === BLOCK LINK ===
    0x19f3
=== CODE BLOCK END ===

=== CODE BLOCK ADDRESS 0x19f3 ===
  0x19f3	dec    	eax
  0x19f4	mov    	ecx, dword ptr [ebp + 0x18]
  0x19f7	dec    	esp
  0x19f8	lea    	ecx, [esp + 0x60]
  0x19fc	dec    	esp
  === BLOCK LINK ===
    0x19fd
=== CODE BLOCK END ===

=== CODE BLOCK ADDRESS 0x19fd ===
  0x19fd	lea    	eax, [esp + 0x70]
  0x1a01	mov    	edx, 1
  0x1a06	dec    	eax
  0x1a07	mov    	eax, dword ptr [ecx]
  0x1a09	dec    	eax
  === BLOCK LINK ===
    0x1a0a
=== CODE BLOCK END ===

=== CODE BLOCK ADDRESS 0x1a0a ===
  0x1a0a	mov    	eax, dword ptr [eax + 0x18]
  0x1a0d	call   	dword ptr [0x18ed]
  === BLOCK LINK ===
    0x1a13
=== CODE BLOCK END ===

=== CODE BLOCK ADDRESS 0x1a13 ===
  0x1a13	mov    	edi, eax
  0x1a15	test   	eax, eax
  0x1a17	js     	0x1aac
  === BLOCK LINK ===
    0x1a1d
=== CODE BLOCK END ===

=== CODE BLOCK ADDRESS 0x1a1d ===
  0x1a1d	mov    	ecx, dword ptr [esp + 0x60]
  0x1a21	cmp    	ecx, 1
  0x1a24	jne    	0x1a9f
  === BLOCK LINK ===
    0x1a26
=== CODE BLOCK END ===

=== CODE BLOCK ADDRESS 0x1a26 ===
  0x1a26	dec    	eax
  0x1a27	mov    	ecx, dword ptr [esp + 0x70]
  0x1a2b	call   	0x1e20
  === BLOCK LINK ===
    0x1a30
=== CODE BLOCK END ===

=== CODE BLOCK ADDRESS 0x1a30 ===
  0x1a30	dec    	eax
  0x1a31	mov    	ecx, dword ptr [esp + 0x70]
  0x1a35	dec    	eax
  0x1a36	lea    	edx, [esp + 0x78]
  0x1a3a	dec    	eax
  === BLOCK LINK ===
    0x1a3b
=== CODE BLOCK END ===

=== CODE BLOCK ADDRESS 0x1a3b ===
  0x1a3b	mov    	eax, dword ptr [ecx]
  0x1a3d	dec    	eax
  0x1a3e	mov    	eax, dword ptr [eax + 0x38]
  0x1a41	call   	dword ptr [0x18b9]
  === BLOCK LINK ===
    0x1a47
=== CODE BLOCK END ===

=== CODE BLOCK ADDRESS 0x1a47 ===
  0x1a47	mov    	edi, eax
  0x1a49	test   	eax, eax
  0x1a4b	jne    	0x1a85
  === BLOCK LINK ===
    0x1a4d
=== CODE BLOCK END ===

=== CODE BLOCK ADDRESS 0x1a4d ===
  0x1a4d	dec    	eax
  0x1a4e	mov    	ecx, dword ptr [esp + 0x78]
  0x1a52	dec    	eax
  0x1a53	mov    	eax, dword ptr [ecx]
  0x1a55	dec    	eax
  === BLOCK LINK ===
    0x1a56
=== CODE BLOCK END ===

=== CODE BLOCK ADDRESS 0x1a56 ===
  0x1a56	cmp    	eax, dword ptr [esi]
  0x1a58	jne    	0x1a80
  === BLOCK LINK ===
    0x1a5a
=== CODE BLOCK END ===

=== CODE BLOCK ADDRESS 0x1a5a ===
  0x1a5a	dec    	eax
  0x1a5b	mov    	eax, dword ptr [ecx + 8]
  0x1a5e	dec    	eax
  0x1a5f	cmp    	eax, dword ptr [esi + 8]
  0x1a62	jne    	0x1a80
  === BLOCK LINK ===
    0x1a64
=== CODE BLOCK END ===

=== CODE BLOCK ADDRESS 0x1a64 ===
  0x1a64	dec    	eax
  0x1a65	mov    	ecx, dword ptr [esp + 0x70]
  0x1a69	mov    	bl, 1
  0x1a6b	dec    	ecx
  0x1a6c	mov    	dword ptr [esi], ecx
  === BLOCK LINK ===
    0x1a6e
=== CODE BLOCK END ===

=== CODE BLOCK ADDRESS 0x1a6e ===
  0x1a6e	dec    	eax
  0x1a6f	mov    	eax, dword ptr [ecx]
  0x1a71	dec    	eax
  0x1a72	mov    	eax, dword ptr [eax + 8]
  0x1a75	call   	dword ptr [0x1885]
  === BLOCK LINK ===
    0x1a7b
=== CODE BLOCK END ===

=== CODE BLOCK ADDRESS 0x1a7b ===
  0x1a7b	dec    	eax
  0x1a7c	mov    	ecx, dword ptr [esp + 0x78]
  0x1a80	call   	0x1ed8
  === BLOCK LINK ===
    0x1a85
=== CODE BLOCK END ===

=== CODE BLOCK ADDRESS 0x1a85 ===
  0x1a85	dec    	eax
  0x1a86	mov    	ecx, dword ptr [esp + 0x70]
  0x1a8a	dec    	eax
  0x1a8b	mov    	eax, dword ptr [ecx]
  0x1a8d	dec    	eax
  === BLOCK LINK ===
    0x1a8e
=== CODE BLOCK END ===

=== CODE BLOCK ADDRESS 0x1a8e ===
  0x1a8e	mov    	eax, dword ptr [eax + 0x10]
  0x1a91	call   	dword ptr [0x1869]
  === BLOCK LINK ===
    0x1a97
=== CODE BLOCK END ===

=== CODE BLOCK ADDRESS 0x1a97 ===
  0x1a97	test   	bl, bl
  0x1a99	jne    	0x1aac
  === BLOCK LINK ===
    0x1a9b
=== CODE BLOCK END ===

=== CODE BLOCK ADDRESS 0x1a9b ===
  0x1a9b	mov    	ecx, dword ptr [esp + 0x60]
  0x1a9f	test   	edi, edi
  0x1aa1	js     	0x1aac
  === BLOCK LINK ===
    0x1aa3
=== CODE BLOCK END ===

=== CODE BLOCK ADDRESS 0x1aa3 ===
  0x1aa3	cmp    	ecx, 1
  0x1aa6	je     	0x19f3
  === BLOCK LINK ===
    0x1aac
=== CODE BLOCK END ===

=== CODE BLOCK ADDRESS 0x1aac ===
  0x1aac	neg    	bl
  0x1aae	sbb    	eax, eax
  0x1ab0	not    	eax
  0x1ab2	and    	eax, 0x80004005
  0x1ab7	dec    	eax
  === BLOCK LINK ===
    0x1ab8
=== CODE BLOCK END ===

=== CODE BLOCK ADDRESS 0x1ab8 ===
  0x1ab8	add    	esp, 0x30
  0x1abb	inc    	ecx
  0x1abc	pop    	esi
  0x1abd	pop    	edi
  0x1abe	pop    	esi
  === BLOCK LINK ===
    0x1abf
=== CODE BLOCK END ===

=== CODE BLOCK ADDRESS 0x1abf ===
  0x1abf	pop    	ebp
  0x1ac0	pop    	ebx
  0x1ac1	ret    	
  0x1ac2	int3   	
  0x1ac3	int3   	
  === BLOCK LINK ===
    0x1ac4
=== CODE BLOCK END ===

=== CODE BLOCK ADDRESS 0x1ac4 ===
  0x1ac4	int3   	
  0x1ac5	int3   	
  0x1ac6	int3   	
  0x1ac7	int3   	
  0x1ac8	int3   	
  === BLOCK LINK ===
    0x1ac9
=== CODE BLOCK END ===

=== CODE BLOCK ADDRESS 0x1ac9 ===
  0x1ac9	int3   	
  0x1aca	int3   	
  0x1acb	int3   	
  === BLOCK LINK ===
    0x1acc
=== CODE BLOCK END ===

=== CODE BLOCK ADDRESS 0x1ad1 ===
  0x1ad1	dec    	eax
  0x1ad2	mov    	dword ptr [esp + 0x20], esi
  0x1ad6	push   	edi
  0x1ad7	dec    	eax
  0x1ad8	sub    	esp, 0x30
  === BLOCK LINK ===
    0x1adb
=== CODE BLOCK END ===

=== CODE BLOCK ADDRESS 0x1adb ===
  0x1adb	dec    	eax
  0x1adc	mov    	edi, ecx
  0x1ade	xor    	esi, esi
  0x1ae0	mov    	ecx, esi
  0x1ae2	dec    	eax
  === BLOCK LINK ===
    0x1ae3
=== CODE BLOCK END ===

=== CODE BLOCK ADDRESS 0x1ae3 ===
  0x1ae3	mov    	eax, dword ptr [edi]
  0x1ae5	dec    	eax
  0x1ae6	test   	eax, eax
  0x1ae8	jne    	0x1af4
  === BLOCK LINK ===
    0x1aea
=== CODE BLOCK END ===

=== CODE BLOCK ADDRESS 0x1aea ===
  0x1aea	mov    	eax, 0x8000ffff
  0x1aef	jmp    	0x1bd7
  === BLOCK LINK ===
    0x1af4
=== CODE BLOCK END ===

=== CODE BLOCK ADDRESS 0x1af4 ===
  0x1af4	cmp    	dword ptr [edi + 0xc], esi
  0x1af7	jne    	0x1b00
  === BLOCK LINK ===
    0x1af9
=== CODE BLOCK END ===

=== CODE BLOCK ADDRESS 0x1af9 ===
  0x1af9	xor    	eax, eax
  0x1afb	jmp    	0x1bd7
  === BLOCK LINK ===
    0x1b00
=== CODE BLOCK END ===

=== CODE BLOCK ADDRESS 0x1b00 ===
  0x1b00	cmp    	dword ptr [eax + 0x444], esi
  0x1b06	je     	0x1b19
  === BLOCK LINK ===
    0x1b08
=== CODE BLOCK END ===

=== CODE BLOCK ADDRESS 0x1b08 ===
  0x1b08	dec    	eax
  0x1b09	lea    	edx, [eax + 0x434]
  0x1b0f	call   	0x1bf0
  === BLOCK LINK ===
    0x1b14
=== CODE BLOCK END ===

=== CODE BLOCK ADDRESS 0x1b14 ===
  0x1b14	mov    	ecx, eax
  0x1b16	dec    	eax
  0x1b17	mov    	eax, dword ptr [edi]
  0x1b19	cmp    	dword ptr [eax + 8], esi
  0x1b1c	je     	0x1b25
  === BLOCK LINK ===
    0x1b1e
=== CODE BLOCK END ===

=== CODE BLOCK ADDRESS 0x1b1e ===
  0x1b1e	mov    	eax, ecx
  0x1b20	jmp    	0x1bd7
  === BLOCK LINK ===
    0x1b25
=== CODE BLOCK END ===

=== CODE BLOCK ADDRESS 0x1b25 ===
  0x1b25	xor    	edx, edx
  0x1b27	dec    	eax
  0x1b28	mov    	dword ptr [esp + 0x48], esi
  0x1b2c	dec    	eax
  0x1b2d	lea    	eax, [esp + 0x48]
  === BLOCK LINK ===
    0x1b31
=== CODE BLOCK END ===

=== CODE BLOCK ADDRESS 0x1b31 ===
  0x1b31	dec    	esp
  0x1b32	lea    	ecx, [0x1ab0]
  0x1b38	dec    	eax
  0x1b39	mov    	dword ptr [esp + 0x20], eax
  0x1b3d	dec    	eax
  === BLOCK LINK ===
    0x1b3e
=== CODE BLOCK END ===

=== CODE BLOCK ADDRESS 0x1b3e ===
  0x1b3e	lea    	ecx, [0x1a94]
  0x1b44	inc    	esp
  0x1b45	lea    	eax, [edx + 0x17]
  0x1b48	dec    	eax
  0x1b49	call   	dword ptr [0x15e9]
  === BLOCK LINK ===
    0x1b4f
=== CODE BLOCK END ===

=== CODE BLOCK ADDRESS 0x1b4f ===
  0x1b4f	nop    	dword ptr [eax + eax]
  0x1b54	mov    	ebx, eax
  0x1b56	test   	eax, eax
  0x1b58	js     	0x1bbe
  === BLOCK LINK ===
    0x1b5a
=== CODE BLOCK END ===

=== CODE BLOCK ADDRESS 0x1b5a ===
  0x1b5a	dec    	eax
  0x1b5b	mov    	ecx, dword ptr [esp + 0x48]
  0x1b5f	dec    	esp
  0x1b60	lea    	eax, [esp + 0x40]
  0x1b64	dec    	eax
  === BLOCK LINK ===
    0x1b65
=== CODE BLOCK END ===

=== CODE BLOCK ADDRESS 0x1b65 ===
  0x1b65	mov    	dword ptr [esp + 0x40], esi
  0x1b69	dec    	eax
  0x1b6a	lea    	edx, [0x1a48]
  0x1b70	dec    	eax
  0x1b71	mov    	eax, dword ptr [ecx]
  === BLOCK LINK ===
    0x1b73
=== CODE BLOCK END ===

=== CODE BLOCK ADDRESS 0x1b73 ===
  0x1b73	dec    	eax
  0x1b74	mov    	eax, dword ptr [eax]
  0x1b76	call   	dword ptr [0x1784]
  === BLOCK LINK ===
    0x1b7c
=== CODE BLOCK END ===

=== CODE BLOCK ADDRESS 0x1b7c ===
  0x1b7c	mov    	ebx, eax
  0x1b7e	test   	eax, eax
  0x1b80	js     	0x1ba7
  === BLOCK LINK ===
    0x1b82
=== CODE BLOCK END ===

=== CODE BLOCK ADDRESS 0x1b82 ===
  0x1b82	dec    	eax
  0x1b83	mov    	eax, dword ptr [edi]
  0x1b85	dec    	eax
  0x1b86	mov    	ecx, dword ptr [esp + 0x40]
  0x1b8a	cmp    	dword ptr [eax + 0x44c], esi
  === BLOCK LINK ===
    0x1b90
=== CODE BLOCK END ===

=== CODE BLOCK ADDRESS 0x1b90 ===
  0x1b90	dec    	esp
  0x1b91	mov    	eax, dword ptr [ecx]
  0x1b93	setne  	dl
  0x1b96	dec    	ecx
  0x1b97	mov    	eax, dword ptr [eax + 0x40]
  === BLOCK LINK ===
    0x1b9a
=== CODE BLOCK END ===

=== CODE BLOCK ADDRESS 0x1b9a ===
  0x1b9a	call   	dword ptr [0x1760]
  === BLOCK LINK ===
    0x1ba0
=== CODE BLOCK END ===

=== CODE BLOCK ADDRESS 0x1ba0 ===
  0x1ba0	test   	eax, eax
  0x1ba2	mov    	ebx, eax
  0x1ba4	cmovs  	ebx, esi
  0x1ba7	dec    	eax
  0x1ba8	mov    	ecx, dword ptr [esp + 0x40]
  === BLOCK LINK ===
    0x1bac
=== CODE BLOCK END ===

=== CODE BLOCK ADDRESS 0x1bac ===
  0x1bac	dec    	eax
  0x1bad	test   	ecx, ecx
  0x1baf	je     	0x1bbe
  === BLOCK LINK ===
    0x1bb1
=== CODE BLOCK END ===

=== CODE BLOCK ADDRESS 0x1bb1 ===
  0x1bb1	dec    	eax
  0x1bb2	mov    	eax, dword ptr [ecx]
  0x1bb4	dec    	eax
  0x1bb5	mov    	eax, dword ptr [eax + 0x10]
  0x1bb8	call   	dword ptr [0x1742]
  === BLOCK LINK ===
    0x1bbe
=== CODE BLOCK END ===

=== CODE BLOCK ADDRESS 0x1bbe ===
  0x1bbe	dec    	eax
  0x1bbf	mov    	ecx, dword ptr [esp + 0x48]
  0x1bc3	dec    	eax
  0x1bc4	test   	ecx, ecx
  0x1bc6	je     	0x1bd5
  === BLOCK LINK ===
    0x1bc8
=== CODE BLOCK END ===

=== CODE BLOCK ADDRESS 0x1bc8 ===
  0x1bc8	dec    	eax
  0x1bc9	mov    	eax, dword ptr [ecx]
  0x1bcb	dec    	eax
  0x1bcc	mov    	eax, dword ptr [eax + 0x10]
  0x1bcf	call   	dword ptr [0x172b]
  === BLOCK LINK ===
    0x1bd5
=== CODE BLOCK END ===

=== CODE BLOCK ADDRESS 0x1bd5 ===
  0x1bd5	mov    	eax, ebx
  0x1bd7	dec    	eax
  0x1bd8	mov    	ebx, dword ptr [esp + 0x50]
  0x1bdc	dec    	eax
  0x1bdd	mov    	esi, dword ptr [esp + 0x58]
  === BLOCK LINK ===
    0x1be1
=== CODE BLOCK END ===

=== CODE BLOCK ADDRESS 0x1be1 ===
  0x1be1	dec    	eax
  0x1be2	add    	esp, 0x30
  0x1be5	pop    	edi
  0x1be6	ret    	
  0x1be7	int3   	
  === BLOCK LINK ===
    0x1be8
=== CODE BLOCK END ===

=== CODE BLOCK ADDRESS 0x1be8 ===
  0x1be8	int3   	
  0x1be9	int3   	
  0x1bea	int3   	
  0x1beb	int3   	
  0x1bec	int3   	
  === BLOCK LINK ===
    0x1bed
=== CODE BLOCK END ===

=== CODE BLOCK ADDRESS 0x1bed ===
  0x1bed	int3   	
  0x1bee	int3   	
  0x1bef	int3   	
  0x1bf0	dec    	eax
  0x1bf1	mov    	dword ptr [esp + 0x10], ebx
  === BLOCK LINK ===
    0x1bf5
=== CODE BLOCK END ===

=== CODE BLOCK ADDRESS 0x1bf5 ===
  0x1bf5	dec    	eax
  0x1bf6	mov    	dword ptr [esp + 0x20], esi
  0x1bfa	dec    	eax
  0x1bfb	mov    	dword ptr [esp + 8], ecx
  0x1bff	push   	ebp
  === BLOCK LINK ===
    0x1c00
=== CODE BLOCK END ===

=== CODE BLOCK ADDRESS 0x1c00 ===
  0x1c00	push   	edi
  0x1c01	inc    	ecx
  0x1c02	push   	esi
  0x1c03	dec    	eax
  0x1c04	mov    	ebp, esp
  === BLOCK LINK ===
    0x1c06
=== CODE BLOCK END ===

=== CODE BLOCK ADDRESS 0x1c06 ===
  0x1c06	dec    	eax
  0x1c07	sub    	esp, 0x30
  0x1c0a	dec    	eax
  0x1c0b	mov    	ecx, edx
  0x1c0d	inc    	ebp
  === BLOCK LINK ===
    0x1c0e
=== CODE BLOCK END ===

=== CODE BLOCK ADDRESS 0x1c0e ===
  0x1c0e	xor    	esi, esi
  0x1c10	dec    	eax
  0x1c11	lea    	edx, [ebp + 0x20]
  0x1c14	dec    	esp
  0x1c15	mov    	dword ptr [ebp + 0x30], esi
  === BLOCK LINK ===
    0x1c18
=== CODE BLOCK END ===

=== CODE BLOCK ADDRESS 0x1c18 ===
  0x1c18	dec    	eax
  0x1c19	call   	dword ptr [0x1511]
  === BLOCK LINK ===
    0x1c1f
=== CODE BLOCK END ===

=== CODE BLOCK ADDRESS 0x1c1f ===
  0x1c1f	nop    	dword ptr [eax + eax]
  0x1c24	mov    	ebx, eax
  0x1c26	test   	eax, eax
  0x1c28	js     	0x1d90
  === BLOCK LINK ===
    0x1c2e
=== CODE BLOCK END ===

=== CODE BLOCK ADDRESS 0x1c2e ===
  0x1c2e	dec    	eax
  0x1c2f	mov    	ecx, dword ptr [ebp + 0x20]
  0x1c32	dec    	ecx
  0x1c33	or     	eax, 0xffffffff
  0x1c36	dec    	ecx
  === BLOCK LINK ===
    0x1c37
=== CODE BLOCK END ===

=== CODE BLOCK ADDRESS 0x1c37 ===
  0x1c37	mov    	eax, eax
  0x1c39	dec    	eax
  0x1c3a	inc    	eax
  0x1c3c	inc    	sp
  0x1c3e	cmp    	dword ptr [ecx + eax*2], esi
  === BLOCK LINK ===
    0x1c41
=== CODE BLOCK END ===

=== CODE BLOCK ADDRESS 0x1c41 ===
  0x1c41	jne    	0x1c39
  === BLOCK LINK ===
    0x1c43
=== CODE BLOCK END ===

=== CODE BLOCK ADDRESS 0x1c43 ===
  0x1c43	lea    	esi, [eax + 0x40]
  0x1c46	mov    	eax, 2
  0x1c4b	dec    	eax
  0x1c4c	mul    	esi
  0x1c4e	dec    	ecx
  === BLOCK LINK ===
    0x1c4f
=== CODE BLOCK END ===

=== CODE BLOCK ADDRESS 0x1c4f ===
  0x1c4f	cmovo  	eax, eax
  0x1c52	dec    	eax
  0x1c53	mov    	ecx, eax
  0x1c55	call   	0x1f3c
  === BLOCK LINK ===
    0x1c5a
=== CODE BLOCK END ===

=== CODE BLOCK ADDRESS 0x1c5a ===
  0x1c5a	dec    	eax
  0x1c5b	mov    	edi, eax
  0x1c5d	dec    	eax
  0x1c5e	test   	eax, eax
  0x1c60	je     	0x1c98
  === BLOCK LINK ===
    0x1c62
=== CODE BLOCK END ===

=== CODE BLOCK ADDRESS 0x1c62 ===
  0x1c62	dec    	eax
  0x1c63	mov    	ecx, dword ptr [ebp + 0x20]
  0x1c66	dec    	eax
  0x1c67	lea    	eax, [0x18b3]
  0x1c6d	dec    	eax
  === BLOCK LINK ===
    0x1c6e
=== CODE BLOCK END ===

=== CODE BLOCK ADDRESS 0x1c6e ===
  0x1c6e	mov    	dword ptr [esp + 0x28], ecx
  0x1c72	dec    	esp
  0x1c73	lea    	ecx, [0x1827]
  0x1c79	dec    	eax
  0x1c7a	mov    	ecx, edi
  === BLOCK LINK ===
    0x1c7c
=== CODE BLOCK END ===

=== CODE BLOCK ADDRESS 0x1c7c ===
  0x1c7c	dec    	eax
  0x1c7d	mov    	dword ptr [esp + 0x20], eax
  0x1c81	dec    	esp
  0x1c82	lea    	eax, [0x17d8]
  0x1c88	mov    	edx, esi
  === BLOCK LINK ===
    0x1c8a
=== CODE BLOCK END ===

=== CODE BLOCK ADDRESS 0x1c8a ===
  0x1c8a	dec    	eax
  0x1c8b	call   	dword ptr [0x15cf]
  === BLOCK LINK ===
    0x1c91
=== CODE BLOCK END ===

=== CODE BLOCK ADDRESS 0x1c91 ===
  0x1c91	nop    	dword ptr [eax + eax]
  0x1c96	jmp    	0x1c9d
  === BLOCK LINK ===
    0x1c98
=== CODE BLOCK END ===

=== CODE BLOCK ADDRESS 0x1c98 ===
  0x1c98	mov    	ebx, 0x8007000e
  0x1c9d	dec    	eax
  0x1c9e	mov    	ecx, dword ptr [ebp + 0x20]
  0x1ca1	dec    	eax
  0x1ca2	call   	dword ptr [0x1498]
  === BLOCK LINK ===
    0x1ca8
=== CODE BLOCK END ===

=== CODE BLOCK ADDRESS 0x1ca8 ===
  0x1ca8	nop    	dword ptr [eax + eax]
  0x1cad	test   	ebx, ebx
  0x1caf	js     	0x1d90
  === BLOCK LINK ===
    0x1cb5
=== CODE BLOCK END ===

=== CODE BLOCK ADDRESS 0x1cb5 ===
  0x1cb5	dec    	eax
  0x1cb6	lea    	eax, [ebp + 0x30]
  0x1cb9	inc    	ecx
  0x1cba	mov    	ecx, 0xf003f
  0x1cbf	inc    	ebp
  === BLOCK LINK ===
    0x1cc0
=== CODE BLOCK END ===

=== CODE BLOCK ADDRESS 0x1cc0 ===
  0x1cc0	xor    	eax, eax
  0x1cc2	dec    	eax
  0x1cc3	mov    	dword ptr [esp + 0x20], eax
  0x1cc7	dec    	eax
  0x1cc8	mov    	edx, edi
  === BLOCK LINK ===
    0x1cca
=== CODE BLOCK END ===

=== CODE BLOCK ADDRESS 0x1cca ===
  0x1cca	dec    	eax
  0x1ccb	mov    	ecx, 0x80000002
  0x1cd1	dec    	eax
  0x1cd2	call   	dword ptr [0x1508]
  === BLOCK LINK ===
    0x1cd8
=== CODE BLOCK END ===

=== CODE BLOCK ADDRESS 0x1cd8 ===
  0x1cd8	nop    	dword ptr [eax + eax]
  0x1cdd	movzx  	ebx, ax
  0x1ce0	mov    	esi, 0x80070000
  0x1ce5	or     	ebx, esi
  0x1ce7	dec    	eax
  === BLOCK LINK ===
    0x1ce8
=== CODE BLOCK END ===

=== CODE BLOCK ADDRESS 0x1ce8 ===
  0x1ce8	mov    	ecx, edi
  0x1cea	test   	eax, eax
  0x1cec	cmovle  	ebx, eax
  0x1cef	dec    	eax
  0x1cf0	mov    	eax, dword ptr [ebp + 0x30]
  === BLOCK LINK ===
    0x1cf3
=== CODE BLOCK END ===

=== CODE BLOCK ADDRESS 0x1cf3 ===
  0x1cf3	test   	ebx, ebx
  0x1cf5	dec    	ecx
  0x1cf6	cmovs  	eax, esi
  0x1cf9	dec    	eax
  0x1cfa	mov    	dword ptr [ebp + 0x30], eax
  === BLOCK LINK ===
    0x1cfd
=== CODE BLOCK END ===

=== CODE BLOCK ADDRESS 0x1cfd ===
  0x1cfd	call   	0x1f30
  === BLOCK LINK ===
    0x1d02
=== CODE BLOCK END ===

=== CODE BLOCK ADDRESS 0x1d02 ===
  0x1d02	test   	ebx, ebx
  0x1d04	js     	0x1d90
  === BLOCK LINK ===
    0x1d0a
=== CODE BLOCK END ===

=== CODE BLOCK ADDRESS 0x1d0a ===
  0x1d0a	dec    	eax
  0x1d0b	mov    	ecx, dword ptr [ebp + 0x30]
  0x1d0e	dec    	esp
  0x1d0f	lea    	eax, [0x1883]
  0x1d15	dec    	eax
  === BLOCK LINK ===
    0x1d16
=== CODE BLOCK END ===

=== CODE BLOCK ADDRESS 0x1d16 ===
  0x1d16	lea    	edx, [0x17ec]
  0x1d1c	call   	0x1dac
  === BLOCK LINK ===
    0x1d21
=== CODE BLOCK END ===

=== CODE BLOCK ADDRESS 0x1d21 ===
  0x1d21	mov    	ebx, eax
  0x1d23	test   	eax, eax
  0x1d25	js     	0x1d80
  === BLOCK LINK ===
    0x1d27
=== CODE BLOCK END ===

=== CODE BLOCK ADDRESS 0x1d27 ===
  0x1d27	dec    	eax
  0x1d28	mov    	ecx, dword ptr [ebp + 0x30]
  0x1d2b	dec    	esp
  0x1d2c	lea    	eax, [0x1746]
  0x1d32	dec    	eax
  === BLOCK LINK ===
    0x1d33
=== CODE BLOCK END ===

=== CODE BLOCK ADDRESS 0x1d33 ===
  0x1d33	lea    	edx, [0x1847]
  0x1d39	call   	0x1dac
  === BLOCK LINK ===
    0x1d3e
=== CODE BLOCK END ===

=== CODE BLOCK ADDRESS 0x1d3e ===
  0x1d3e	mov    	ebx, eax
  0x1d40	test   	eax, eax
  0x1d42	js     	0x1d80
  === BLOCK LINK ===
    0x1d44
=== CODE BLOCK END ===

=== CODE BLOCK ADDRESS 0x1d44 ===
  0x1d44	dec    	eax
  0x1d45	mov    	ecx, dword ptr [ebp + 0x30]
  0x1d48	dec    	eax
  0x1d49	lea    	eax, [ebp + 0x20]
  0x1d4c	inc    	ecx
  === BLOCK LINK ===
    0x1d4d
=== CODE BLOCK END ===

=== CODE BLOCK ADDRESS 0x1d4d ===
  0x1d4d	mov    	ecx, 4
  0x1d52	inc    	esp
  0x1d53	mov    	dword ptr [ebp + 0x20], esi
  0x1d56	inc    	esp
  0x1d57	mov    	dword ptr [esp + 0x28], ecx
  === BLOCK LINK ===
    0x1d5b
=== CODE BLOCK END ===

=== CODE BLOCK ADDRESS 0x1d5b ===
  0x1d5b	dec    	eax
  0x1d5c	lea    	edx, [0x17d6]
  0x1d62	inc    	ebp
  0x1d63	xor    	eax, eax
  0x1d65	dec    	eax
  === BLOCK LINK ===
    0x1d66
=== CODE BLOCK END ===

=== CODE BLOCK ADDRESS 0x1d66 ===
  0x1d66	mov    	dword ptr [esp + 0x20], eax
  0x1d6a	dec    	eax
  0x1d6b	call   	dword ptr [0x1477]
  === BLOCK LINK ===
    0x1d71
=== CODE BLOCK END ===

=== CODE BLOCK ADDRESS 0x1d71 ===
  0x1d71	nop    	dword ptr [eax + eax]
  0x1d76	movzx  	ebx, ax
  0x1d79	or     	ebx, esi
  0x1d7b	test   	eax, eax
  0x1d7d	cmovle  	ebx, eax
  === BLOCK LINK ===
    0x1d80
=== CODE BLOCK END ===

=== CODE BLOCK ADDRESS 0x1d80 ===
  0x1d80	dec    	eax
  0x1d81	mov    	ecx, dword ptr [ebp + 0x30]
  0x1d84	dec    	eax
  0x1d85	call   	dword ptr [0x1445]
  === BLOCK LINK ===
    0x1d8b
=== CODE BLOCK END ===

=== CODE BLOCK ADDRESS 0x1d8b ===
  0x1d8b	nop    	dword ptr [eax + eax]
  0x1d90	dec    	eax
  0x1d91	mov    	esi, dword ptr [esp + 0x68]
  0x1d95	mov    	eax, ebx
  0x1d97	dec    	eax
  === BLOCK LINK ===
    0x1d98
=== CODE BLOCK END ===

=== CODE BLOCK ADDRESS 0x1d98 ===
  0x1d98	mov    	ebx, dword ptr [esp + 0x58]
  0x1d9c	dec    	eax
  0x1d9d	add    	esp, 0x30
  0x1da0	inc    	ecx
  0x1da1	pop    	esi
  === BLOCK LINK ===
    0x1da2
=== CODE BLOCK END ===

=== CODE BLOCK ADDRESS 0x1da2 ===
  0x1da2	pop    	edi
  0x1da3	pop    	ebp
  0x1da4	ret    	
  0x1da5	int3   	
  0x1da6	int3   	
  === BLOCK LINK ===
    0x1da7
=== CODE BLOCK END ===

=== CODE BLOCK ADDRESS 0x1da7 ===
  0x1da7	int3   	
  0x1da8	int3   	
  0x1da9	int3   	
  0x1daa	int3   	
  0x1dab	int3   	
  === BLOCK LINK ===
    0x1dac
=== CODE BLOCK END ===

=== CODE BLOCK ADDRESS 0x1dac ===
  0x1dac	inc    	eax
  0x1dad	push   	ebx
  0x1dae	dec    	eax
  0x1daf	sub    	esp, 0x30
  0x1db2	xor    	ebx, ebx
  === BLOCK LINK ===
    0x1db4
=== CODE BLOCK END ===

=== CODE BLOCK ADDRESS 0x1db4 ===
  0x1db4	dec    	ebp
  0x1db5	mov    	ecx, eax
  0x1db7	inc    	esp
  0x1db8	mov    	edx, ebx
  0x1dba	dec    	ebp
  === BLOCK LINK ===
    0x1dbb
=== CODE BLOCK END ===

=== CODE BLOCK ADDRESS 0x1dbb ===
  0x1dbb	test   	eax, eax
  0x1dbd	je     	0x1de2
  === BLOCK LINK ===
    0x1dbf
=== CODE BLOCK END ===

=== CODE BLOCK ADDRESS 0x1dbf ===
  0x1dbf	inc    	cx
  0x1dc1	cmp    	dword ptr [eax], ebx
  0x1dc3	je     	0x1de2
  === BLOCK LINK ===
    0x1dc5
=== CODE BLOCK END ===

=== CODE BLOCK ADDRESS 0x1dc5 ===
  0x1dc5	dec    	eax
  0x1dc6	or     	eax, 0xffffffff
  0x1dc9	dec    	eax
  0x1dca	inc    	eax
  0x1dcc	inc    	cx
  === BLOCK LINK ===
    0x1dce
=== CODE BLOCK END ===

=== CODE BLOCK ADDRESS 0x1dce ===
  0x1dce	cmp    	dword ptr [ecx + eax*2], ebx
  0x1dd1	jne    	0x1dc9
  === BLOCK LINK ===
    0x1dd3
=== CODE BLOCK END ===

=== CODE BLOCK ADDRESS 0x1dd3 ===
  0x1dd3	inc    	eax
  0x1dd5	inc    	esp
  0x1dd6	add    	edx, eax
  0x1dd8	dec    	ebp
  0x1dd9	lea    	ecx, [ecx + eax*2]
  === BLOCK LINK ===
    0x1ddc
=== CODE BLOCK END ===

=== CODE BLOCK ADDRESS 0x1ddc ===
  0x1ddc	inc    	cx
  0x1dde	cmp    	dword ptr [ecx], ebx
  0x1de0	jne    	0x1dc5
  === BLOCK LINK ===
    0x1de2
=== CODE BLOCK END ===

=== CODE BLOCK ADDRESS 0x1de2 ===
  0x1de2	inc    	ebx
  0x1de3	lea    	eax, [edx + edx]
  0x1de6	inc    	ecx
  0x1de7	mov    	ecx, 7
  0x1dec	mov    	dword ptr [esp + 0x28], eax
  === BLOCK LINK ===
    0x1df0
=== CODE BLOCK END ===

=== CODE BLOCK ADDRESS 0x1df0 ===
  0x1df0	dec    	esp
  0x1df1	mov    	dword ptr [esp + 0x20], eax
  0x1df5	inc    	ebp
  0x1df6	xor    	eax, eax
  0x1df8	dec    	eax
  === BLOCK LINK ===
    0x1df9
=== CODE BLOCK END ===

=== CODE BLOCK ADDRESS 0x1df9 ===
  0x1df9	call   	dword ptr [0x13e9]
  === BLOCK LINK ===
    0x1dff
=== CODE BLOCK END ===

=== CODE BLOCK ADDRESS 0x1dff ===
  0x1dff	nop    	dword ptr [eax + eax]
  0x1e04	mov    	ecx, eax
  0x1e06	movzx  	eax, ax
  0x1e09	or     	eax, 0x80070000
  0x1e0e	test   	ecx, ecx
  === BLOCK LINK ===
    0x1e10
=== CODE BLOCK END ===

=== CODE BLOCK ADDRESS 0x1e10 ===
  0x1e10	cmovle  	eax, ecx
  0x1e13	dec    	eax
  0x1e14	add    	esp, 0x30
  0x1e17	pop    	ebx
  0x1e18	ret    	
  === BLOCK LINK ===
    0x1e19
=== CODE BLOCK END ===

=== CODE BLOCK ADDRESS 0x1103 ===
  0x1103	test   	ebx, ebx
  0x1105	js     	0x112d
  === BLOCK LINK ===
    0x1107
=== CODE BLOCK END ===

=== CODE BLOCK ADDRESS 0x1e19 ===
  0x1e19	int3   	
  0x1e1a	int3   	
  0x1e1b	int3   	
  0x1e1c	int3   	
  0x1e1d	int3   	
  === BLOCK LINK ===
    0x1e1e
=== CODE BLOCK END ===

=== CODE BLOCK ADDRESS 0x1e1e ===
  0x1e1e	int3   	
  0x1e1f	int3   	
  0x1e20	dec    	eax
  0x1e21	mov    	eax, esp
  0x1e23	push   	ebx
  === BLOCK LINK ===
    0x1e24
=== CODE BLOCK END ===

=== CODE BLOCK ADDRESS 0x1e24 ===
  0x1e24	dec    	eax
  0x1e25	sub    	esp, 0x40
  0x1e28	and    	dword ptr [eax - 0x10], 0
  0x1e2c	dec    	ecx
  0x1e2d	or     	ecx, 0xffffffff
  === BLOCK LINK ===
    0x1e30
=== CODE BLOCK END ===

=== CODE BLOCK ADDRESS 0x1e30 ===
  0x1e30	dec    	eax
  0x1e31	and    	dword ptr [eax - 0x18], 0
  0x1e35	inc    	ebp
  0x1e36	xor    	eax, eax
  0x1e38	mov    	dword ptr [eax - 0x20], 3
  === BLOCK LINK ===
    0x1e3f
=== CODE BLOCK END ===

=== CODE BLOCK ADDRESS 0x1e3f ===
  0x1e3f	or     	edx, 0xffffffff
  0x1e42	mov    	dword ptr [eax - 0x28], 3
  0x1e49	dec    	eax
  0x1e4a	mov    	ebx, ecx
  0x1e4c	dec    	eax
  === BLOCK LINK ===
    0x1e4d
=== CODE BLOCK END ===

=== CODE BLOCK ADDRESS 0x1e4d ===
  0x1e4d	call   	dword ptr [0x12d5]
  === BLOCK LINK ===
    0x1e53
=== CODE BLOCK END ===

=== CODE BLOCK ADDRESS 0x1e53 ===
  0x1e53	nop    	dword ptr [eax + eax]
  0x1e58	test   	eax, eax
  0x1e5a	js     	0x1ec9
  === BLOCK LINK ===
    0x1e5c
=== CODE BLOCK END ===

=== CODE BLOCK ADDRESS 0x1e5c ===
  0x1e5c	dec    	eax
  0x1e5d	mov    	eax, dword ptr [ebx]
  0x1e5f	dec    	esp
  0x1e60	lea    	eax, [esp + 0x58]
  0x1e64	dec    	eax
  === BLOCK LINK ===
    0x1e65
=== CODE BLOCK END ===

=== CODE BLOCK ADDRESS 0x1e65 ===
  0x1e65	and    	dword ptr [esp + 0x58], 0
  0x1e6a	dec    	eax
  0x1e6b	lea    	edx, [0x1797]
  0x1e71	dec    	eax
  0x1e72	mov    	ecx, ebx
  === BLOCK LINK ===
    0x1e74
=== CODE BLOCK END ===

=== CODE BLOCK ADDRESS 0x1e74 ===
  0x1e74	dec    	eax
  0x1e75	mov    	eax, dword ptr [eax]
  0x1e77	call   	dword ptr [0x1483]
  === BLOCK LINK ===
    0x1e7d
=== CODE BLOCK END ===

=== CODE BLOCK ADDRESS 0x1e7d ===
  0x1e7d	test   	eax, eax
  0x1e7f	js     	0x1ec9
  === BLOCK LINK ===
    0x1e81
=== CODE BLOCK END ===

=== CODE BLOCK ADDRESS 0x1e81 ===
  0x1e81	and    	dword ptr [esp + 0x38], 0
  0x1e86	dec    	ecx
  0x1e87	or     	ecx, 0xffffffff
  0x1e8a	dec    	eax
  0x1e8b	and    	dword ptr [esp + 0x30], 0
  === BLOCK LINK ===
    0x1e90
=== CODE BLOCK END ===

=== CODE BLOCK ADDRESS 0x1e90 ===
  0x1e90	inc    	ebp
  0x1e91	xor    	eax, eax
  0x1e93	dec    	eax
  0x1e94	mov    	ecx, dword ptr [esp + 0x58]
  0x1e98	or     	edx, 0xffffffff
  === BLOCK LINK ===
    0x1e9b
=== CODE BLOCK END ===

=== CODE BLOCK ADDRESS 0x1e9b ===
  0x1e9b	mov    	dword ptr [esp + 0x28], 3
  0x1ea3	mov    	dword ptr [esp + 0x20], 3
  0x1eab	dec    	eax
  0x1eac	call   	dword ptr [0x1276]
  === BLOCK LINK ===
    0x1eb2
=== CODE BLOCK END ===

=== CODE BLOCK ADDRESS 0x1eb2 ===
  0x1eb2	nop    	dword ptr [eax + eax]
  0x1eb7	dec    	eax
  0x1eb8	mov    	ecx, dword ptr [esp + 0x58]
  0x1ebc	dec    	eax
  0x1ebd	mov    	eax, dword ptr [ecx]
  === BLOCK LINK ===
    0x1ebf
=== CODE BLOCK END ===

=== CODE BLOCK ADDRESS 0x1ebf ===
  0x1ebf	dec    	eax
  0x1ec0	mov    	eax, dword ptr [eax + 0x10]
  0x1ec3	call   	dword ptr [0x1437]
  === BLOCK LINK ===
    0x1ec9
=== CODE BLOCK END ===

=== CODE BLOCK ADDRESS 0x1ec9 ===
  0x1ec9	dec    	eax
  0x1eca	add    	esp, 0x40
  0x1ecd	pop    	ebx
  0x1ece	ret    	
  0x1ecf	int3   	
  === BLOCK LINK ===
    0x1ed0
=== CODE BLOCK END ===

=== CODE BLOCK ADDRESS 0x1ed0 ===
  0x1ed0	int3   	
  0x1ed1	int3   	
  0x1ed2	int3   	
  0x1ed3	int3   	
  0x1ed4	int3   	
  === BLOCK LINK ===
    0x1ed5
=== CODE BLOCK END ===

=== CODE BLOCK ADDRESS 0x1ed5 ===
  0x1ed5	int3   	
  0x1ed6	int3   	
  0x1ed7	int3   	
  0x1ed8	dec    	eax
  0x1ed9	test   	ecx, ecx
  === BLOCK LINK ===
    0x1edb
=== CODE BLOCK END ===

=== CODE BLOCK ADDRESS 0x1edb ===
  0x1edb	je     	0x1f19
  === BLOCK LINK ===
    0x1edd
=== CODE BLOCK END ===

=== CODE BLOCK ADDRESS 0x1edd ===
  0x1edd	push   	ebx
  0x1ede	dec    	eax
  0x1edf	sub    	esp, 0x20
  0x1ee2	dec    	eax
  0x1ee3	mov    	ebx, ecx
  === BLOCK LINK ===
    0x1ee5
=== CODE BLOCK END ===

=== CODE BLOCK ADDRESS 0x1ee5 ===
  0x1ee5	dec    	eax
  0x1ee6	mov    	ecx, dword ptr [ecx + 0x10]
  0x1ee9	dec    	eax
  0x1eea	call   	dword ptr [0x1250]
  === BLOCK LINK ===
    0x1ef0
=== CODE BLOCK END ===

=== CODE BLOCK ADDRESS 0x1ef0 ===
  0x1ef0	nop    	dword ptr [eax + eax]
  0x1ef5	dec    	eax
  0x1ef6	mov    	ecx, dword ptr [ebx + 0x18]
  0x1ef9	dec    	eax
  0x1efa	call   	dword ptr [0x1240]
  === BLOCK LINK ===
    0x1f00
=== CODE BLOCK END ===

=== CODE BLOCK ADDRESS 0x1f00 ===
  0x1f00	nop    	dword ptr [eax + eax]
  0x1f05	dec    	eax
  0x1f06	mov    	ecx, ebx
  0x1f08	dec    	eax
  0x1f09	call   	dword ptr [0x1231]
  === BLOCK LINK ===
    0x1f0f
=== CODE BLOCK END ===

=== CODE BLOCK ADDRESS 0x1f0f ===
  0x1f0f	nop    	dword ptr [eax + eax]
  0x1f14	dec    	eax
  0x1f15	add    	esp, 0x20
  0x1f18	pop    	ebx
  0x1f19	ret    	
  === BLOCK LINK ===
    0x1f1a
=== CODE BLOCK END ===

=== CODE BLOCK ADDRESS 0x14ac ===
  0x14ac	inc    	eax
  0x14ad	push   	ebp
  0x14ae	push   	ebx
  0x14af	push   	esi
  === BLOCK LINK ===
    0x14b0
=== CODE BLOCK END ===

=== CODE BLOCK ADDRESS 0x1f1a ===
  0x1f1a	int3   	
  0x1f1b	int3   	
  0x1f1c	int3   	
  0x1f1d	int3   	
  0x1f1e	int3   	
  === BLOCK LINK ===
    0x1f1f
=== CODE BLOCK END ===

=== CODE BLOCK ADDRESS 0x1f1f ===
  0x1f1f	int3   	
  0x1f20	int3   	
  0x1f21	int3   	
  0x1f22	int3   	
  0x1f23	int3   	
  === BLOCK LINK ===
    0x1f24
=== CODE BLOCK END ===

=== CODE BLOCK ADDRESS 0x1f24 ===
  0x1f24	jmp    	0x22e4
  === BLOCK LINK ===
    0x1f29
=== CODE BLOCK END ===

=== CODE BLOCK ADDRESS 0x1f29 ===
  0x1f29	int3   	
  0x1f2a	int3   	
  0x1f2b	int3   	
  0x1f2c	int3   	
  0x1f2d	int3   	
  === BLOCK LINK ===
    0x1f2e
=== CODE BLOCK END ===

=== CODE BLOCK ADDRESS 0x1f2e ===
  0x1f2e	int3   	
  0x1f2f	int3   	
  0x1f30	jmp    	0x1f24
  === BLOCK LINK ===
    0x1f35
=== CODE BLOCK END ===

=== CODE BLOCK ADDRESS 0x1f35 ===
  0x1f35	int3   	
  0x1f36	int3   	
  0x1f37	int3   	
  0x1f38	int3   	
  0x1f39	int3   	
  === BLOCK LINK ===
    0x1f3a
=== CODE BLOCK END ===

=== CODE BLOCK ADDRESS 0x1f3a ===
  0x1f3a	int3   	
  0x1f3b	int3   	
  0x1f3c	jmp    	0x1f48
  === BLOCK LINK ===
    0x1f41
=== CODE BLOCK END ===

=== CODE BLOCK ADDRESS 0x1f41 ===
  0x1f41	int3   	
  0x1f42	int3   	
  0x1f43	int3   	
  0x1f44	int3   	
  0x1f45	int3   	
  === BLOCK LINK ===
    0x1f46
=== CODE BLOCK END ===

=== CODE BLOCK ADDRESS 0x1f46 ===
  0x1f46	int3   	
  0x1f47	int3   	
  0x1f48	dec    	eax
  0x1f49	mov    	dword ptr [esp + 8], ebx
  0x1f4d	push   	edi
  === BLOCK LINK ===
    0x1f4e
=== CODE BLOCK END ===

=== CODE BLOCK ADDRESS 0x1f4e ===
  0x1f4e	dec    	eax
  0x1f4f	sub    	esp, 0x20
  0x1f52	dec    	eax
  0x1f53	mov    	edi, ecx
  0x1f55	jmp    	0x1f66
  === BLOCK LINK ===
    0x1f57
=== CODE BLOCK END ===

=== CODE BLOCK ADDRESS 0x1f57 ===
  0x1f57	dec    	eax
  0x1f58	mov    	ecx, edi
  0x1f5a	call   	0x22fc
  === BLOCK LINK ===
    0x1f5f
=== CODE BLOCK END ===

=== CODE BLOCK ADDRESS 0x1f5f ===
  0x1f5f	test   	eax, eax
  0x1f61	je     	0x1f73
  === BLOCK LINK ===
    0x1f63
=== CODE BLOCK END ===

=== CODE BLOCK ADDRESS 0x1f63 ===
  0x1f63	dec    	eax
  0x1f64	mov    	ecx, edi
  0x1f66	call   	0x22f0
  === BLOCK LINK ===
    0x1f6b
=== CODE BLOCK END ===

=== CODE BLOCK ADDRESS 0x1f6b ===
  0x1f6b	dec    	eax
  0x1f6c	mov    	ebx, eax
  0x1f6e	dec    	eax
  0x1f6f	test   	eax, eax
  0x1f71	je     	0x1f57
  === BLOCK LINK ===
    0x1f73
=== CODE BLOCK END ===

=== CODE BLOCK ADDRESS 0x1f73 ===
  0x1f73	dec    	eax
  0x1f74	mov    	eax, ebx
  0x1f76	dec    	eax
  0x1f77	mov    	ebx, dword ptr [esp + 0x30]
  0x1f7b	dec    	eax
  === BLOCK LINK ===
    0x1f7c
=== CODE BLOCK END ===

=== CODE BLOCK ADDRESS 0x1f7c ===
  0x1f7c	add    	esp, 0x20
  0x1f7f	pop    	edi
  0x1f80	ret    	
  0x1f81	int3   	
  0x1f82	int3   	
  === BLOCK LINK ===
    0x1f83
=== CODE BLOCK END ===

=== CODE BLOCK ADDRESS 0x1f83 ===
  0x1f83	int3   	
  0x1f84	int3   	
  0x1f85	int3   	
  0x1f86	int3   	
  0x1f87	int3   	
  === BLOCK LINK ===
    0x1f88
=== CODE BLOCK END ===

=== CODE BLOCK ADDRESS 0x1f88 ===
  0x1f88	int3   	
  0x1f89	int3   	
  0x1f8a	int3   	
  0x1f8b	int3   	
  0x1f8c	int3   	
  === BLOCK LINK ===
    0x1f8d
=== CODE BLOCK END ===

=== CODE BLOCK ADDRESS 0x1f8d ===
  0x1f8d	int3   	
  0x1f8e	int3   	
  0x1f8f	int3   	
  0x1f90	dec    	eax
  0x1f91	sub    	esp, 0x28
  === BLOCK LINK ===
    0x1f94
=== CODE BLOCK END ===

=== CODE BLOCK ADDRESS 0x1f94 ===
  0x1f94	mov    	eax, 0x5a4d
  0x1f99	cmp    	word ptr [0xffffe060], ax
  0x1fa0	je     	0x1fa6
  === BLOCK LINK ===
    0x1fa2
=== CODE BLOCK END ===

=== CODE BLOCK ADDRESS 0x1fa2 ===
  0x1fa2	xor    	eax, eax
  0x1fa4	jmp    	0x1ff9
  === BLOCK LINK ===
    0x1fa6
=== CODE BLOCK END ===

=== CODE BLOCK ADDRESS 0x1fa6 ===
  0x1fa6	dec    	eax
  0x1fa7	arpl   	word ptr [0xffffe08f], cx
  0x1fad	dec    	eax
  0x1fae	lea    	eax, [0xffffe04c]
  0x1fb4	dec    	eax
  === BLOCK LINK ===
    0x1fb5
=== CODE BLOCK END ===

=== CODE BLOCK ADDRESS 0x1fb5 ===
  0x1fb5	add    	ecx, eax
  0x1fb7	cmp    	dword ptr [ecx], 0x4550
  0x1fbd	jne    	0x1fa2
  === BLOCK LINK ===
    0x1fbf
=== CODE BLOCK END ===

=== CODE BLOCK ADDRESS 0x1fbf ===
  0x1fbf	mov    	eax, 0x10b
  0x1fc4	cmp    	word ptr [ecx + 0x18], ax
  0x1fc8	je     	0x1fe8
  === BLOCK LINK ===
    0x1fca
=== CODE BLOCK END ===

=== CODE BLOCK ADDRESS 0x1fca ===
  0x1fca	mov    	eax, 0x20b
  0x1fcf	cmp    	word ptr [ecx + 0x18], ax
  0x1fd3	jne    	0x1fa2
  === BLOCK LINK ===
    0x1fd5
=== CODE BLOCK END ===

=== CODE BLOCK ADDRESS 0x1fd5 ===
  0x1fd5	xor    	eax, eax
  0x1fd7	cmp    	dword ptr [ecx + 0x84], 0xe
  0x1fde	jbe    	0x1ff9
  === BLOCK LINK ===
    0x1fe0
=== CODE BLOCK END ===

=== CODE BLOCK ADDRESS 0x1fe0 ===
  0x1fe0	cmp    	dword ptr [ecx + 0xf8], eax
  0x1fe6	jmp    	0x1ff6
  === BLOCK LINK ===
    0x1fe8
=== CODE BLOCK END ===

=== CODE BLOCK ADDRESS 0x1fe8 ===
  0x1fe8	xor    	eax, eax
  0x1fea	cmp    	dword ptr [ecx + 0x74], 0xe
  0x1fee	jbe    	0x1ff9
  === BLOCK LINK ===
    0x1ff0
=== CODE BLOCK END ===

=== CODE BLOCK ADDRESS 0x1ff0 ===
  0x1ff0	cmp    	dword ptr [ecx + 0xe8], eax
  0x1ff6	setne  	al
  0x1ff9	mov    	ecx, 1
  0x1ffe	mov    	dword ptr [0x303c], eax
  0x2004	call   	0x23d8
  === BLOCK LINK ===
    0x2009
=== CODE BLOCK END ===

=== CODE BLOCK ADDRESS 0x2009 ===
  0x2009	mov    	ecx, eax
  0x200b	call   	dword ptr [0x125f]
  === BLOCK LINK ===
    0x2011
=== CODE BLOCK END ===

=== CODE BLOCK ADDRESS 0x2011 ===
  0x2011	dec    	eax
  0x2012	mov    	ecx, dword ptr [0x12a8]
  0x2018	dec    	eax
  0x2019	or     	eax, 0xffffffff
  0x201c	dec    	eax
  === BLOCK LINK ===
    0x201d
=== CODE BLOCK END ===

=== CODE BLOCK ADDRESS 0x201d ===
  0x201d	mov    	dword ptr [0x35ad], eax
  0x2023	dec    	eax
  0x2024	mov    	dword ptr [0x35ae], eax
  0x202a	mov    	eax, dword ptr [0x3024]
  0x2030	mov    	dword ptr [ecx], eax
  === BLOCK LINK ===
    0x2032
=== CODE BLOCK END ===

=== CODE BLOCK ADDRESS 0x2032 ===
  0x2032	dec    	eax
  0x2033	mov    	ecx, dword ptr [0x127f]
  0x2039	mov    	eax, dword ptr [0x3009]
  0x203f	mov    	dword ptr [ecx], eax
  0x2041	call   	0x2430
  === BLOCK LINK ===
    0x2046
=== CODE BLOCK END ===

=== CODE BLOCK ADDRESS 0x2046 ===
  0x2046	cmp    	dword ptr [0x2fb3], 0
  0x204d	jne    	0x205c
  === BLOCK LINK ===
    0x204f
=== CODE BLOCK END ===

=== CODE BLOCK ADDRESS 0x204f ===
  0x204f	dec    	eax
  0x2050	lea    	ecx, [0x3da]
  0x2056	call   	dword ptr [0x1284]
  === BLOCK LINK ===
    0x205c
=== CODE BLOCK END ===

=== CODE BLOCK ADDRESS 0x205c ===
  0x205c	xor    	eax, eax
  0x205e	dec    	eax
  0x205f	add    	esp, 0x28
  0x2062	ret    	
  0x2063	int3   	
  === BLOCK LINK ===
    0x2064
=== CODE BLOCK END ===

=== CODE BLOCK ADDRESS 0x1acc ===
  0x1acc	dec    	eax
  0x1acd	mov    	dword ptr [esp + 0x18], ebx
  === BLOCK LINK ===
    0x1ad1
=== CODE BLOCK END ===

=== CODE BLOCK ADDRESS 0x2064 ===
  0x2064	int3   	
  0x2065	int3   	
  0x2066	int3   	
  0x2067	int3   	
  0x2068	int3   	
  === BLOCK LINK ===
    0x2069
=== CODE BLOCK END ===

=== CODE BLOCK ADDRESS 0x2069 ===
  0x2069	int3   	
  0x206a	int3   	
  0x206b	int3   	
  0x206c	int3   	
  0x206d	int3   	
  === BLOCK LINK ===
    0x206e
=== CODE BLOCK END ===

=== CODE BLOCK ADDRESS 0x206e ===
  0x206e	int3   	
  0x206f	int3   	
  0x2070	dec    	eax
  0x2071	sub    	esp, 0x38
  0x2074	mov    	eax, dword ptr [0x2fd6]
  === BLOCK LINK ===
    0x207a
=== CODE BLOCK END ===

=== CODE BLOCK ADDRESS 0x207a ===
  0x207a	dec    	esp
  0x207b	lea    	eax, [0x2fb7]
  0x2081	inc    	esp
  0x2082	mov    	ecx, dword ptr [0x2fc4]
  0x2088	dec    	eax
  === BLOCK LINK ===
    0x2089
=== CODE BLOCK END ===

=== CODE BLOCK ADDRESS 0x2089 ===
  0x2089	lea    	edx, [0x2fa1]
  0x208f	mov    	dword ptr [0x2faf], eax
  0x2095	dec    	eax
  0x2096	lea    	ecx, [0x2f8c]
  0x209c	dec    	eax
  === BLOCK LINK ===
    0x209d
=== CODE BLOCK END ===

=== CODE BLOCK ADDRESS 0x209d ===
  0x209d	lea    	eax, [0x2fa1]
  0x20a3	dec    	eax
  0x20a4	mov    	dword ptr [esp + 0x20], eax
  0x20a8	call   	dword ptr [0x11ba]
  === BLOCK LINK ===
    0x20ae
=== CODE BLOCK END ===

=== CODE BLOCK ADDRESS 0x20ae ===
  0x20ae	mov    	dword ptr [0x2f78], eax
  0x20b4	dec    	eax
  0x20b5	add    	esp, 0x38
  0x20b8	ret    	
  0x20b9	int3   	
  === BLOCK LINK ===
    0x20ba
=== CODE BLOCK END ===

=== CODE BLOCK ADDRESS 0x20ba ===
  0x20ba	int3   	
  0x20bb	int3   	
  0x20bc	int3   	
  0x20bd	int3   	
  0x20be	int3   	
  === BLOCK LINK ===
    0x20bf
=== CODE BLOCK END ===

=== CODE BLOCK ADDRESS 0x20bf ===
  0x20bf	int3   	
  0x20c0	dec    	eax
  0x20c1	mov    	dword ptr [esp + 8], ebx
  0x20c5	dec    	eax
  0x20c6	mov    	dword ptr [esp + 0x10], esi
  === BLOCK LINK ===
    0x20ca
=== CODE BLOCK END ===

=== CODE BLOCK ADDRESS 0x20ca ===
  0x20ca	dec    	eax
  0x20cb	mov    	dword ptr [esp + 0x18], edi
  0x20cf	inc    	ecx
  0x20d0	push   	edi
  0x20d1	dec    	eax
  === BLOCK LINK ===
    0x20d2
=== CODE BLOCK END ===

=== CODE BLOCK ADDRESS 0x20d2 ===
  0x20d2	sub    	esp, 0x30
  0x20d5	dec    	eax
  0x20d7	mov    	eax, dword ptr [0x30]
  0x20de	dec    	eax
  0x20df	mov    	ebx, dword ptr [eax + 8]
  === BLOCK LINK ===
    0x20e2
=== CODE BLOCK END ===

=== CODE BLOCK ADDRESS 0x20e2 ===
  0x20e2	xor    	esi, esi
  0x20e4	xor    	eax, eax
  0x20e6	.byte  	0xf0
  0x20e7	dec    	eax
  0x20e8	cmpxchg  	dword ptr [0x34f1], ebx
  === BLOCK LINK ===
    0x20ef
=== CODE BLOCK END ===

=== CODE BLOCK ADDRESS 0x20ef ===
  0x20ef	je     	0x210c
  === BLOCK LINK ===
    0x20f1
=== CODE BLOCK END ===

=== CODE BLOCK ADDRESS 0x20f1 ===
  0x20f1	dec    	eax
  0x20f2	cmp    	eax, ebx
  0x20f4	jne    	0x20ff
  === BLOCK LINK ===
    0x20f6
=== CODE BLOCK END ===

=== CODE BLOCK ADDRESS 0x20f6 ===
  0x20f6	mov    	ebx, 1
  0x20fb	mov    	esi, ebx
  0x20fd	jmp    	0x2111
  === BLOCK LINK ===
    0x20ff
=== CODE BLOCK END ===

=== CODE BLOCK ADDRESS 0x20ff ===
  0x20ff	mov    	ecx, 0x3e8
  0x2104	call   	dword ptr [0x111e]
  === BLOCK LINK ===
    0x210a
=== CODE BLOCK END ===

=== CODE BLOCK ADDRESS 0x210a ===
  0x210a	jmp    	0x20e4
  === BLOCK LINK ===
    0x210c
=== CODE BLOCK END ===

=== CODE BLOCK ADDRESS 0x210c ===
  0x210c	mov    	ebx, 1
  0x2111	mov    	eax, dword ptr [0x34d1]
  0x2117	cmp    	eax, ebx
  0x2119	jne    	0x2127
  === BLOCK LINK ===
    0x211b
=== CODE BLOCK END ===

=== CODE BLOCK ADDRESS 0x211b ===
  0x211b	mov    	ecx, 0x1f
  0x2120	call   	0x2423
  === BLOCK LINK ===
    0x2125
=== CODE BLOCK END ===

=== CODE BLOCK ADDRESS 0x2125 ===
  0x2125	jmp    	0x218c
  === BLOCK LINK ===
    0x2127
=== CODE BLOCK END ===

=== CODE BLOCK ADDRESS 0x2127 ===
  0x2127	mov    	eax, dword ptr [0x34bb]
  0x212d	test   	eax, eax
  0x212f	jne    	0x2186
  === BLOCK LINK ===
    0x2131
=== CODE BLOCK END ===

=== CODE BLOCK ADDRESS 0x2131 ===
  0x2131	mov    	dword ptr [0x34b1], ebx
  0x2137	dec    	esp
  0x2138	lea    	edi, [0x11fa]
  0x213e	dec    	eax
  0x213f	lea    	edi, [0x11db]
  === BLOCK LINK ===
    0x2145
=== CODE BLOCK END ===

=== CODE BLOCK ADDRESS 0x2145 ===
  0x2145	dec    	eax
  0x2146	mov    	dword ptr [esp + 0x28], edi
  0x214a	mov    	dword ptr [esp + 0x20], eax
  0x214e	dec    	ecx
  0x214f	cmp    	edi, edi
  === BLOCK LINK ===
    0x2151
=== CODE BLOCK END ===

=== CODE BLOCK ADDRESS 0x2151 ===
  0x2151	jae    	0x2178
  === BLOCK LINK ===
    0x2153
=== CODE BLOCK END ===

=== CODE BLOCK ADDRESS 0x2153 ===
  0x2153	test   	eax, eax
  0x2155	jne    	0x217c
  === BLOCK LINK ===
    0x2157
=== CODE BLOCK END ===

=== CODE BLOCK ADDRESS 0x2157 ===
  0x2157	dec    	eax
  0x2158	cmp    	dword ptr [edi], 0
  0x215b	je     	0x216d
  === BLOCK LINK ===
    0x215d
=== CODE BLOCK END ===

=== CODE BLOCK ADDRESS 0x215d ===
  0x215d	dec    	eax
  0x215e	mov    	eax, dword ptr [edi]
  0x2160	dec    	eax
  0x2161	mov    	ecx, dword ptr [0x1199]
  0x2167	call   	ecx
  === BLOCK LINK ===
    0x2169
=== CODE BLOCK END ===

=== CODE BLOCK ADDRESS 0x2169 ===
  0x2169	mov    	dword ptr [esp + 0x20], eax
  0x216d	dec    	eax
  0x216e	add    	edi, 8
  0x2171	dec    	eax
  0x2172	mov    	dword ptr [esp + 0x28], edi
  === BLOCK LINK ===
    0x2176
=== CODE BLOCK END ===

=== CODE BLOCK ADDRESS 0x2176 ===
  0x2176	jmp    	0x214e
  === BLOCK LINK ===
    0x2178
=== CODE BLOCK END ===

=== CODE BLOCK ADDRESS 0x2178 ===
  0x2178	test   	eax, eax
  0x217a	je     	0x218c
  === BLOCK LINK ===
    0x217c
=== CODE BLOCK END ===

=== CODE BLOCK ADDRESS 0x217c ===
  0x217c	mov    	eax, 0xff
  0x2181	jmp    	0x2268
  === BLOCK LINK ===
    0x2186
=== CODE BLOCK END ===

=== CODE BLOCK ADDRESS 0x2186 ===
  0x2186	mov    	dword ptr [0x2e98], ebx
  0x218c	mov    	eax, dword ptr [0x3456]
  0x2192	cmp    	eax, ebx
  0x2194	jne    	0x21b3
  === BLOCK LINK ===
    0x2196
=== CODE BLOCK END ===

=== CODE BLOCK ADDRESS 0x2196 ===
  0x2196	dec    	eax
  0x2197	lea    	edx, [0x117b]
  0x219d	dec    	eax
  0x219e	lea    	ecx, [0x1164]
  0x21a4	call   	0x25fe
  === BLOCK LINK ===
    0x21a9
=== CODE BLOCK END ===

=== CODE BLOCK ADDRESS 0x21a9 ===
  0x21a9	mov    	dword ptr [0x3435], 2
  0x21b3	test   	esi, esi
  0x21b5	jne    	0x21c0
  === BLOCK LINK ===
    0x21b7
=== CODE BLOCK END ===

=== CODE BLOCK ADDRESS 0x21b7 ===
  0x21b7	xor    	eax, eax
  0x21b9	dec    	eax
  0x21ba	xchg   	dword ptr [0x3420], eax
  0x21c0	dec    	eax
  0x21c1	cmp    	dword ptr [0x3428], 0
  === BLOCK LINK ===
    0x21c8
=== CODE BLOCK END ===

=== CODE BLOCK ADDRESS 0x21c8 ===
  0x21c8	je     	0x21f4
  === BLOCK LINK ===
    0x21ca
=== CODE BLOCK END ===

=== CODE BLOCK ADDRESS 0x21ca ===
  0x21ca	dec    	eax
  0x21cb	lea    	ecx, [0x341f]
  0x21d1	call   	0x2490
  === BLOCK LINK ===
    0x21d6
=== CODE BLOCK END ===

=== CODE BLOCK ADDRESS 0x21d6 ===
  0x21d6	test   	eax, eax
  0x21d8	je     	0x21f4
  === BLOCK LINK ===
    0x21da
=== CODE BLOCK END ===

=== CODE BLOCK ADDRESS 0x21da ===
  0x21da	inc    	ebp
  0x21db	xor    	eax, eax
  0x21dd	inc    	ecx
  0x21de	lea    	edx, [eax + 2]
  0x21e1	xor    	ecx, ecx
  === BLOCK LINK ===
    0x21e3
=== CODE BLOCK END ===

=== CODE BLOCK ADDRESS 0x21e3 ===
  0x21e3	dec    	eax
  0x21e4	mov    	eax, dword ptr [0x3406]
  0x21ea	dec    	esp
  0x21eb	mov    	ecx, dword ptr [0x110f]
  0x21f1	inc    	ecx
  === BLOCK LINK ===
    0x21f2
=== CODE BLOCK END ===

=== CODE BLOCK ADDRESS 0x21f2 ===
  0x21f2	call   	ecx
  === BLOCK LINK ===
    0x21f4
=== CODE BLOCK END ===

=== CODE BLOCK ADDRESS 0x21f4 ===
  0x21f4	dec    	esp
  0x21f5	mov    	eax, dword ptr [0x2e3d]
  0x21fb	dec    	eax
  0x21fc	mov    	edx, dword ptr [0x2e2e]
  0x2202	mov    	ecx, dword ptr [0x2e20]
  === BLOCK LINK ===
    0x2208
=== CODE BLOCK END ===

=== CODE BLOCK ADDRESS 0x2208 ===
  0x2208	call   	0x1444
  === BLOCK LINK ===
    0x220d
=== CODE BLOCK END ===

=== CODE BLOCK ADDRESS 0x220d ===
  0x220d	mov    	dword ptr [0x2e0d], eax
  0x2213	cmp    	dword ptr [0x2e26], 0
  0x221a	jne    	0x2224
  === BLOCK LINK ===
    0x221c
=== CODE BLOCK END ===

=== CODE BLOCK ADDRESS 0x221c ===
  0x221c	mov    	ecx, eax
  0x221e	call   	dword ptr [0x1054]
  === BLOCK LINK ===
    0x2224
=== CODE BLOCK END ===

=== CODE BLOCK ADDRESS 0x2224 ===
  0x2224	cmp    	dword ptr [0x2df9], 0
  0x222b	jne    	0x2239
  === BLOCK LINK ===
    0x222d
=== CODE BLOCK END ===

=== CODE BLOCK ADDRESS 0x222d ===
  0x222d	call   	dword ptr [0x1055]
  === BLOCK LINK ===
    0x2233
=== CODE BLOCK END ===

=== CODE BLOCK ADDRESS 0x2233 ===
  0x2233	mov    	eax, dword ptr [0x2de7]
  0x2239	jmp    	0x2268
  === BLOCK LINK ===
    0x223b
=== CODE BLOCK END ===

=== CODE BLOCK ADDRESS 0x223b ===
  0x223b	mov    	dword ptr [0x2ddf], eax
  0x2241	cmp    	dword ptr [0x2df8], 0
  0x2248	jne    	0x2253
  === BLOCK LINK ===
    0x224a
=== CODE BLOCK END ===

=== CODE BLOCK ADDRESS 0x224a ===
  0x224a	mov    	ecx, eax
  0x224c	call   	dword ptr [0x102e]
  === BLOCK LINK ===
    0x2252
=== CODE BLOCK END ===

=== CODE BLOCK ADDRESS 0x2252 ===
  0x2252	int3   	
  0x2253	cmp    	dword ptr [0x2dca], 0
  0x225a	jne    	0x2268
  === BLOCK LINK ===
    0x225c
=== CODE BLOCK END ===

=== CODE BLOCK ADDRESS 0x225c ===
  0x225c	call   	dword ptr [0x1026]
  === BLOCK LINK ===
    0x2262
=== CODE BLOCK END ===

=== CODE BLOCK ADDRESS 0x2262 ===
  0x2262	mov    	eax, dword ptr [0x2db8]
  0x2268	dec    	eax
  0x2269	mov    	ebx, dword ptr [esp + 0x40]
  0x226d	dec    	eax
  0x226e	mov    	esi, dword ptr [esp + 0x48]
  === BLOCK LINK ===
    0x2272
=== CODE BLOCK END ===

=== CODE BLOCK ADDRESS 0x2272 ===
  0x2272	dec    	eax
  0x2273	mov    	edi, dword ptr [esp + 0x50]
  0x2277	dec    	eax
  0x2278	add    	esp, 0x30
  0x227b	inc    	ecx
  === BLOCK LINK ===
    0x227c
=== CODE BLOCK END ===

=== CODE BLOCK ADDRESS 0x227c ===
  0x227c	pop    	edi
  0x227d	ret    	
  0x227e	int3   	
  0x227f	int3   	
  0x2280	int3   	
  === BLOCK LINK ===
    0x2281
=== CODE BLOCK END ===

=== CODE BLOCK ADDRESS 0x1148 ===
  0x1148	dec    	eax
  0x1149	mov    	eax, dword ptr [ebp - 0x20]
  0x114c	dec    	eax
  === BLOCK LINK ===
    0x114d
=== CODE BLOCK END ===

=== CODE BLOCK ADDRESS 0x2281 ===
  0x2281	int3   	
  0x2282	int3   	
  0x2283	int3   	
  0x2284	int3   	
  0x2285	int3   	
  === BLOCK LINK ===
    0x2286
=== CODE BLOCK END ===

=== CODE BLOCK ADDRESS 0x2286 ===
  0x2286	int3   	
  0x2287	int3   	
  0x2288	int3   	
  0x2289	int3   	
  0x228a	int3   	
  === BLOCK LINK ===
    0x228b
=== CODE BLOCK END ===

=== CODE BLOCK ADDRESS 0x228b ===
  0x228b	int3   	
  0x228c	int3   	
  0x228d	int3   	
  0x228e	int3   	
  0x228f	int3   	
  === BLOCK LINK ===
    0x2290
=== CODE BLOCK END ===

=== CODE BLOCK ADDRESS 0x2290 ===
  0x2290	dec    	eax
  0x2291	sub    	esp, 0x28
  0x2294	call   	0x2524
  === BLOCK LINK ===
    0x2299
=== CODE BLOCK END ===

=== CODE BLOCK ADDRESS 0x2299 ===
  0x2299	dec    	eax
  0x229a	add    	esp, 0x28
  0x229d	jmp    	0x20c0
  === BLOCK LINK ===
    0x22a2
=== CODE BLOCK END ===

=== CODE BLOCK ADDRESS 0x22a2 ===
  0x22a2	int3   	
  0x22a3	int3   	
  0x22a4	int3   	
  0x22a5	int3   	
  0x22a6	int3   	
  === BLOCK LINK ===
    0x22a7
=== CODE BLOCK END ===

=== CODE BLOCK ADDRESS 0x22a7 ===
  0x22a7	int3   	
  0x22a8	int3   	
  0x22a9	int3   	
  0x22aa	int3   	
  0x22ab	int3   	
  === BLOCK LINK ===
    0x22ac
=== CODE BLOCK END ===

=== CODE BLOCK ADDRESS 0x22ac ===
  0x22ac	int3   	
  0x22ad	int3   	
  0x22ae	int3   	
  0x22af	int3   	
  0x22b0	int3   	
  === BLOCK LINK ===
    0x22b1
=== CODE BLOCK END ===

=== CODE BLOCK ADDRESS 0x22b1 ===
  0x22b1	int3   	
  0x22b2	int3   	
  0x22b3	int3   	
  0x22b4	int3   	
  0x22b5	int3   	
  === BLOCK LINK ===
    0x22b6
=== CODE BLOCK END ===

=== CODE BLOCK ADDRESS 0x22b6 ===
  0x22b6	nop    	word ptr [eax + eax]
  0x22c0	dec    	eax
  0x22c1	cmp    	ecx, dword ptr [0x2d41]
  0x22c7	jne    	0x22d9
  === BLOCK LINK ===
    0x22c9
=== CODE BLOCK END ===

=== CODE BLOCK ADDRESS 0x22c9 ===
  0x22c9	dec    	eax
  0x22ca	rol    	ecx, 0x10
  0x22cd	test   	cx, 0xffff
  0x22d2	jne    	0x22d5
  === BLOCK LINK ===
    0x22d4
=== CODE BLOCK END ===

=== CODE BLOCK ADDRESS 0x22d4 ===
  0x22d4	ret    	
  0x22d5	dec    	eax
  0x22d6	ror    	ecx, 0x10
  0x22d9	jmp    	0x2670
  === BLOCK LINK ===
    0x22de
=== CODE BLOCK END ===

=== CODE BLOCK ADDRESS 0x1165 ===
  0x1165	dec    	eax
  0x1166	mov    	ecx, dword ptr [ebp - 0x18]
  === BLOCK LINK ===
    0x1169
=== CODE BLOCK END ===

=== CODE BLOCK ADDRESS 0x22de ===
  0x22de	int3   	
  0x22df	int3   	
  0x22e0	int3   	
  0x22e1	int3   	
  0x22e2	int3   	
  === BLOCK LINK ===
    0x22e3
=== CODE BLOCK END ===

=== CODE BLOCK ADDRESS 0x22e3 ===
  0x22e3	int3   	
  0x22e4	jmp    	dword ptr [0xfbe]
  === BLOCK LINK ===
    0x22ea
=== CODE BLOCK END ===

=== CODE BLOCK ADDRESS 0x22ea ===
  0x22ea	int3   	
  0x22eb	int3   	
  0x22ec	int3   	
  0x22ed	int3   	
  0x22ee	int3   	
  === BLOCK LINK ===
    0x22ef
=== CODE BLOCK END ===

=== CODE BLOCK ADDRESS 0x22ef ===
  0x22ef	int3   	
  0x22f0	jmp    	dword ptr [0xfaa]
  === BLOCK LINK ===
    0x22f6
=== CODE BLOCK END ===

=== CODE BLOCK ADDRESS 0x22f6 ===
  0x22f6	int3   	
  0x22f7	int3   	
  0x22f8	int3   	
  0x22f9	int3   	
  0x22fa	int3   	
  === BLOCK LINK ===
    0x22fb
=== CODE BLOCK END ===

=== CODE BLOCK ADDRESS 0x22fb ===
  0x22fb	int3   	
  0x22fc	jmp    	dword ptr [0xf8e]
  === BLOCK LINK ===
    0x2302
=== CODE BLOCK END ===

=== CODE BLOCK ADDRESS 0x2302 ===
  0x2302	int3   	
  0x2303	int3   	
  0x2304	int3   	
  0x2305	int3   	
  0x2306	int3   	
  === BLOCK LINK ===
    0x2307
=== CODE BLOCK END ===

=== CODE BLOCK ADDRESS 0x2307 ===
  0x2307	int3   	
  0x2308	int3   	
  0x2309	int3   	
  0x230a	int3   	
  0x230b	int3   	
  === BLOCK LINK ===
    0x230c
=== CODE BLOCK END ===

=== CODE BLOCK ADDRESS 0x230c ===
  0x230c	int3   	
  0x230d	int3   	
  0x230e	int3   	
  0x230f	int3   	
  0x2310	dec    	eax
  === BLOCK LINK ===
    0x2311
=== CODE BLOCK END ===

=== CODE BLOCK ADDRESS 0x2311 ===
  0x2311	sub    	esp, 0x28
  0x2314	dec    	eax
  0x2315	mov    	eax, dword ptr [ecx]
  0x2317	cmp    	dword ptr [eax], 0xe06d7363
  0x231d	jne    	0x2342
  === BLOCK LINK ===
    0x231f
=== CODE BLOCK END ===

=== CODE BLOCK ADDRESS 0x231f ===
  0x231f	cmp    	dword ptr [eax + 0x18], 4
  0x2323	jne    	0x2342
  === BLOCK LINK ===
    0x2325
=== CODE BLOCK END ===

=== CODE BLOCK ADDRESS 0x2325 ===
  0x2325	mov    	ecx, dword ptr [eax + 0x20]
  0x2328	lea    	eax, [ecx - 0x19930520]
  0x232e	cmp    	eax, 2
  0x2331	jbe    	0x233b
  === BLOCK LINK ===
    0x2333
=== CODE BLOCK END ===

=== CODE BLOCK ADDRESS 0x2333 ===
  0x2333	cmp    	ecx, 0x1994000
  0x2339	jne    	0x2342
  === BLOCK LINK ===
    0x233b
=== CODE BLOCK END ===

=== CODE BLOCK ADDRESS 0x233b ===
  0x233b	call   	dword ptr [0xf6f]
  === BLOCK LINK ===
    0x2341
=== CODE BLOCK END ===

=== CODE BLOCK ADDRESS 0x2341 ===
  0x2341	int3   	
  0x2342	xor    	eax, eax
  0x2344	dec    	eax
  0x2345	add    	esp, 0x28
  0x2348	ret    	
  === BLOCK LINK ===
    0x2349
=== CODE BLOCK END ===

=== CODE BLOCK ADDRESS 0x2349 ===
  0x2349	int3   	
  0x234a	int3   	
  0x234b	int3   	
  0x234c	int3   	
  0x234d	int3   	
  === BLOCK LINK ===
    0x234e
=== CODE BLOCK END ===

=== CODE BLOCK ADDRESS 0x234e ===
  0x234e	int3   	
  0x234f	int3   	
  0x2350	dec    	eax
  0x2351	sub    	esp, 0x28
  0x2354	dec    	eax
  === BLOCK LINK ===
    0x2355
=== CODE BLOCK END ===

=== CODE BLOCK ADDRESS 0x2355 ===
  0x2355	lea    	ecx, [0xffffffb5]
  0x235b	call   	dword ptr [0xe07]
  === BLOCK LINK ===
    0x2361
=== CODE BLOCK END ===

=== CODE BLOCK ADDRESS 0x2361 ===
  0x2361	xor    	eax, eax
  0x2363	dec    	eax
  0x2364	add    	esp, 0x28
  0x2367	ret    	
  0x2368	int3   	
  === BLOCK LINK ===
    0x2369
=== CODE BLOCK END ===

=== CODE BLOCK ADDRESS 0x287d ===
=== CODE BLOCK END ===

=== CODE BLOCK ADDRESS 0x2369 ===
  0x2369	int3   	
  0x236a	int3   	
  0x236b	int3   	
  0x236c	int3   	
  0x236d	int3   	
  === BLOCK LINK ===
    0x236e
=== CODE BLOCK END ===

=== CODE BLOCK ADDRESS 0x236e ===
  0x236e	jmp    	dword ptr [0xf64]
  === BLOCK LINK ===
    0x2374
=== CODE BLOCK END ===

=== CODE BLOCK ADDRESS 0x2374 ===
  0x2374	int3   	
  0x2375	int3   	
  0x2376	int3   	
  0x2377	int3   	
  0x2378	int3   	
  === BLOCK LINK ===
    0x2379
=== CODE BLOCK END ===

=== CODE BLOCK ADDRESS 0x2379 ===
  0x2379	int3   	
  0x237a	int3   	
  0x237b	int3   	
  0x237c	dec    	eax
  0x237d	sub    	esp, 0x18
  === BLOCK LINK ===
    0x2380
=== CODE BLOCK END ===

=== CODE BLOCK ADDRESS 0x2380 ===
  0x2380	xor    	edx, edx
  0x2382	dec    	eax
  0x2383	lea    	eax, [ecx - 1]
  0x2386	dec    	eax
  0x2387	cmp    	eax, -3
  === BLOCK LINK ===
    0x238a
=== CODE BLOCK END ===

=== CODE BLOCK ADDRESS 0x238a ===
  0x238a	ja     	0x23c8
  === BLOCK LINK ===
    0x238c
=== CODE BLOCK END ===

=== CODE BLOCK ADDRESS 0x238c ===
  0x238c	mov    	eax, 0x5a4d
  0x2391	cmp    	word ptr [ecx], ax
  0x2394	jne    	0x23c0
  === BLOCK LINK ===
    0x2396
=== CODE BLOCK END ===

=== CODE BLOCK ADDRESS 0x2396 ===
  0x2396	cmp    	dword ptr [ecx + 0x3c], edx
  0x2399	jl     	0x23c0
  === BLOCK LINK ===
    0x239b
=== CODE BLOCK END ===

=== CODE BLOCK ADDRESS 0x239b ===
  0x239b	cmp    	dword ptr [ecx + 0x3c], 0x10000000
  0x23a2	jae    	0x23c0
  === BLOCK LINK ===
    0x23a4
=== CODE BLOCK END ===

=== CODE BLOCK ADDRESS 0x23a4 ===
  0x23a4	dec    	eax
  0x23a5	arpl   	word ptr [ecx + 0x3c], ax
  0x23a8	dec    	eax
  0x23a9	add    	eax, ecx
  0x23ab	dec    	eax
  === BLOCK LINK ===
    0x23ac
=== CODE BLOCK END ===

=== CODE BLOCK ADDRESS 0x23ac ===
  0x23ac	mov    	dword ptr [esp], eax
  0x23af	cmp    	dword ptr [eax], 0x4550
  0x23b5	dec    	eax
  0x23b6	cmovne  	eax, edx
  0x23b9	dec    	eax
  === BLOCK LINK ===
    0x23ba
=== CODE BLOCK END ===

=== CODE BLOCK ADDRESS 0x23ba ===
  0x23ba	mov    	edx, eax
  0x23bc	dec    	eax
  0x23bd	mov    	dword ptr [esp], eax
  0x23c0	jmp    	0x23c8
  === BLOCK LINK ===
    0x23c2
=== CODE BLOCK END ===

=== CODE BLOCK ADDRESS 0x23c2 ===
  0x23c2	xor    	edx, edx
  0x23c4	dec    	eax
  0x23c5	mov    	dword ptr [esp], edx
  0x23c8	dec    	eax
  0x23c9	mov    	eax, edx
  === BLOCK LINK ===
    0x23cb
=== CODE BLOCK END ===

=== CODE BLOCK ADDRESS 0x23cb ===
  0x23cb	dec    	eax
  0x23cc	add    	esp, 0x18
  0x23cf	ret    	
  0x23d0	int3   	
  0x23d1	int3   	
  === BLOCK LINK ===
    0x23d2
=== CODE BLOCK END ===

=== CODE BLOCK ADDRESS 0x23d2 ===
  0x23d2	int3   	
  0x23d3	int3   	
  0x23d4	int3   	
  0x23d5	int3   	
  0x23d6	int3   	
  === BLOCK LINK ===
    0x23d7
=== CODE BLOCK END ===

=== CODE BLOCK ADDRESS 0x23d7 ===
  0x23d7	int3   	
  0x23d8	inc    	eax
  0x23d9	push   	ebx
  0x23da	dec    	eax
  0x23db	sub    	esp, 0x20
  === BLOCK LINK ===
    0x23de
=== CODE BLOCK END ===

=== CODE BLOCK ADDRESS 0x23de ===
  0x23de	mov    	ebx, ecx
  0x23e0	xor    	ecx, ecx
  0x23e2	call   	dword ptr [0xda0]
  === BLOCK LINK ===
    0x23e8
=== CODE BLOCK END ===

=== CODE BLOCK ADDRESS 0x23e8 ===
  0x23e8	dec    	eax
  0x23e9	test   	eax, eax
  0x23eb	je     	0x2415
  === BLOCK LINK ===
    0x23ed
=== CODE BLOCK END ===

=== CODE BLOCK ADDRESS 0x23ed ===
  0x23ed	dec    	eax
  0x23ee	mov    	ecx, eax
  0x23f0	call   	0x237c
  === BLOCK LINK ===
    0x23f5
=== CODE BLOCK END ===

=== CODE BLOCK ADDRESS 0x23f5 ===
  0x23f5	dec    	eax
  0x23f6	test   	eax, eax
  0x23f8	je     	0x2415
  === BLOCK LINK ===
    0x23fa
=== CODE BLOCK END ===

=== CODE BLOCK ADDRESS 0x23fa ===
  0x23fa	mov    	ecx, 2
  0x23ff	cmp    	word ptr [eax + 0x5c], cx
  0x2403	jne    	0x2409
  === BLOCK LINK ===
    0x2405
=== CODE BLOCK END ===

=== CODE BLOCK ADDRESS 0x2405 ===
  0x2405	mov    	eax, ecx
  0x2407	jmp    	0x2417
  === BLOCK LINK ===
    0x2409
=== CODE BLOCK END ===

=== CODE BLOCK ADDRESS 0x2409 ===
  0x2409	cmp    	word ptr [eax + 0x5c], 3
  0x240e	mov    	eax, 1
  0x2413	je     	0x2417
  === BLOCK LINK ===
    0x2415
=== CODE BLOCK END ===

=== CODE BLOCK ADDRESS 0x2415 ===
  0x2415	mov    	eax, ebx
  0x2417	dec    	eax
  0x2418	add    	esp, 0x20
  0x241b	pop    	ebx
  0x241c	ret    	
  === BLOCK LINK ===
    0x241d
=== CODE BLOCK END ===

=== CODE BLOCK ADDRESS 0x142a ===
  0x142a	dec    	eax
  0x142b	mov    	ebx, dword ptr [esp + 0x60]
  0x142f	dec    	eax
  === BLOCK LINK ===
    0x1430
=== CODE BLOCK END ===

=== CODE BLOCK ADDRESS 0x241d ===
  0x241d	int3   	
  0x241e	int3   	
  0x241f	int3   	
  0x2420	int3   	
  0x2421	int3   	
  === BLOCK LINK ===
    0x2422
=== CODE BLOCK END ===

=== CODE BLOCK ADDRESS 0x2422 ===
  0x2422	int3   	
  0x2423	jmp    	dword ptr [0xe6f]
  === BLOCK LINK ===
    0x2429
=== CODE BLOCK END ===

=== CODE BLOCK ADDRESS 0x2429 ===
  0x2429	int3   	
  0x242a	int3   	
  0x242b	int3   	
  0x242c	int3   	
  0x242d	int3   	
  === BLOCK LINK ===
    0x242e
=== CODE BLOCK END ===

=== CODE BLOCK ADDRESS 0x242e ===
  0x242e	int3   	
  0x242f	int3   	
  0x2430	xor    	eax, eax
  0x2432	ret    	
  0x2433	int3   	
  === BLOCK LINK ===
    0x2434
=== CODE BLOCK END ===

=== CODE BLOCK ADDRESS 0x2434 ===
  0x2434	int3   	
  0x2435	int3   	
  0x2436	int3   	
  0x2437	int3   	
  0x2438	int3   	
  === BLOCK LINK ===
    0x2439
=== CODE BLOCK END ===

=== CODE BLOCK ADDRESS 0x2439 ===
  0x2439	int3   	
  0x243a	int3   	
  0x243b	int3   	
  0x243c	int3   	
  0x243d	int3   	
  === BLOCK LINK ===
    0x243e
=== CODE BLOCK END ===

=== CODE BLOCK ADDRESS 0x243e ===
  0x243e	int3   	
  0x243f	int3   	
  0x2440	dec    	esp
  0x2441	arpl   	word ptr [ecx + 0x3c], ax
  0x2444	inc    	ebp
  === BLOCK LINK ===
    0x2445
=== CODE BLOCK END ===

=== CODE BLOCK ADDRESS 0x2445 ===
  0x2445	xor    	ecx, ecx
  0x2447	dec    	esp
  0x2448	add    	eax, ecx
  0x244a	dec    	esp
  0x244b	mov    	edx, edx
  === BLOCK LINK ===
    0x244d
=== CODE BLOCK END ===

=== CODE BLOCK ADDRESS 0x244d ===
  0x244d	inc    	ecx
  0x244e	movzx  	eax, word ptr [eax + 0x14]
  0x2452	inc    	ebp
  0x2453	movzx  	ebx, word ptr [eax + 6]
  0x2457	dec    	eax
  === BLOCK LINK ===
    0x2458
=== CODE BLOCK END ===

=== CODE BLOCK ADDRESS 0x2458 ===
  0x2458	add    	eax, 0x18
  0x245b	dec    	ecx
  0x245c	add    	eax, eax
  0x245e	inc    	ebp
  0x245f	test   	ebx, ebx
  === BLOCK LINK ===
    0x2461
=== CODE BLOCK END ===

=== CODE BLOCK ADDRESS 0x2461 ===
  0x2461	je     	0x2481
  === BLOCK LINK ===
    0x2463
=== CODE BLOCK END ===

=== CODE BLOCK ADDRESS 0x2463 ===
  0x2463	mov    	edx, dword ptr [eax + 0xc]
  0x2466	dec    	esp
  0x2467	cmp    	edx, edx
  0x2469	jb     	0x2475
  === BLOCK LINK ===
    0x246b
=== CODE BLOCK END ===

=== CODE BLOCK ADDRESS 0x246b ===
  0x246b	mov    	ecx, dword ptr [eax + 8]
  0x246e	add    	ecx, edx
  0x2470	dec    	esp
  0x2471	cmp    	edx, ecx
  0x2473	jb     	0x2483
  === BLOCK LINK ===
    0x2475
=== CODE BLOCK END ===

=== CODE BLOCK ADDRESS 0x2475 ===
  0x2475	inc    	ecx
  0x2476	inc    	ecx
  0x2478	dec    	eax
  0x2479	add    	eax, 0x28
  0x247c	inc    	ebp
  === BLOCK LINK ===
    0x247d
=== CODE BLOCK END ===

=== CODE BLOCK ADDRESS 0x247d ===
  0x247d	cmp    	ecx, ebx
  0x247f	jb     	0x2463
  === BLOCK LINK ===
    0x2481
=== CODE BLOCK END ===

=== CODE BLOCK ADDRESS 0x2481 ===
  0x2481	xor    	eax, eax
  0x2483	ret    	
  0x2484	int3   	
  0x2485	int3   	
  0x2486	int3   	
  === BLOCK LINK ===
    0x2487
=== CODE BLOCK END ===

=== CODE BLOCK ADDRESS 0x2487 ===
  0x2487	int3   	
  0x2488	int3   	
  0x2489	int3   	
  0x248a	int3   	
  0x248b	int3   	
  === BLOCK LINK ===
    0x248c
=== CODE BLOCK END ===

=== CODE BLOCK ADDRESS 0x248c ===
  0x248c	int3   	
  0x248d	int3   	
  0x248e	int3   	
  0x248f	int3   	
  0x2490	dec    	eax
  === BLOCK LINK ===
    0x2491
=== CODE BLOCK END ===

=== CODE BLOCK ADDRESS 0x2491 ===
  0x2491	mov    	dword ptr [esp + 8], ebx
  0x2495	push   	edi
  0x2496	dec    	eax
  0x2497	sub    	esp, 0x20
  0x249a	dec    	eax
  === BLOCK LINK ===
    0x249b
=== CODE BLOCK END ===

=== CODE BLOCK ADDRESS 0x249b ===
  0x249b	mov    	ebx, ecx
  0x249d	dec    	eax
  0x249e	lea    	edi, [0xffffdb5c]
  0x24a4	dec    	eax
  0x24a5	mov    	ecx, edi
  === BLOCK LINK ===
    0x24a7
=== CODE BLOCK END ===

=== CODE BLOCK ADDRESS 0x24a7 ===
  0x24a7	call   	0x24f0
  === BLOCK LINK ===
    0x24ac
=== CODE BLOCK END ===

=== CODE BLOCK ADDRESS 0x24ac ===
  0x24ac	test   	eax, eax
  0x24ae	je     	0x24d2
  === BLOCK LINK ===
    0x24b0
=== CODE BLOCK END ===

=== CODE BLOCK ADDRESS 0x24b0 ===
  0x24b0	dec    	eax
  0x24b1	sub    	ebx, edi
  0x24b3	dec    	eax
  0x24b4	mov    	edx, ebx
  0x24b6	dec    	eax
  === BLOCK LINK ===
    0x24b7
=== CODE BLOCK END ===

=== CODE BLOCK ADDRESS 0x24b7 ===
  0x24b7	mov    	ecx, edi
  0x24b9	call   	0x2440
  === BLOCK LINK ===
    0x24be
=== CODE BLOCK END ===

=== CODE BLOCK ADDRESS 0x24be ===
  0x24be	dec    	eax
  0x24bf	test   	eax, eax
  0x24c1	je     	0x24d2
  === BLOCK LINK ===
    0x24c3
=== CODE BLOCK END ===

=== CODE BLOCK ADDRESS 0x24c3 ===
  0x24c3	mov    	eax, dword ptr [eax + 0x24]
  0x24c6	shr    	eax, 0x1f
  0x24c9	not    	eax
  0x24cb	and    	eax, 1
  0x24ce	jmp    	0x24d2
  === BLOCK LINK ===
    0x24d0
=== CODE BLOCK END ===

=== CODE BLOCK ADDRESS 0x24d0 ===
  0x24d0	xor    	eax, eax
  0x24d2	dec    	eax
  0x24d3	mov    	ebx, dword ptr [esp + 0x30]
  0x24d7	dec    	eax
  0x24d8	add    	esp, 0x20
  === BLOCK LINK ===
    0x24db
=== CODE BLOCK END ===

=== CODE BLOCK ADDRESS 0x24db ===
  0x24db	pop    	edi
  0x24dc	ret    	
  0x24dd	int3   	
  0x24de	int3   	
  0x24df	int3   	
  === BLOCK LINK ===
    0x24e0
=== CODE BLOCK END ===

=== CODE BLOCK ADDRESS 0x1418 ===
  0x1418	dec    	eax
  0x1419	mov    	ecx, dword ptr [ebp + 0x48]
  === BLOCK LINK ===
    0x141c
=== CODE BLOCK END ===

=== CODE BLOCK ADDRESS 0x24e0 ===
  0x24e0	int3   	
  0x24e1	int3   	
  0x24e2	int3   	
  0x24e3	int3   	
  0x24e4	int3   	
  === BLOCK LINK ===
    0x24e5
=== CODE BLOCK END ===

=== CODE BLOCK ADDRESS 0x24e5 ===
  0x24e5	int3   	
  0x24e6	int3   	
  0x24e7	int3   	
  0x24e8	int3   	
  0x24e9	int3   	
  === BLOCK LINK ===
    0x24ea
=== CODE BLOCK END ===

=== CODE BLOCK ADDRESS 0x24ea ===
  0x24ea	int3   	
  0x24eb	int3   	
  0x24ec	int3   	
  0x24ed	int3   	
  0x24ee	int3   	
  === BLOCK LINK ===
    0x24ef
=== CODE BLOCK END ===

=== CODE BLOCK ADDRESS 0x24ef ===
  0x24ef	int3   	
  0x24f0	mov    	eax, 0x5a4d
  0x24f5	cmp    	word ptr [ecx], ax
  0x24f8	jne    	0x251a
  === BLOCK LINK ===
    0x24fa
=== CODE BLOCK END ===

=== CODE BLOCK ADDRESS 0x24fa ===
  0x24fa	dec    	eax
  0x24fb	arpl   	word ptr [ecx + 0x3c], ax
  0x24fe	dec    	eax
  0x24ff	add    	eax, ecx
  0x2501	cmp    	dword ptr [eax], 0x4550
  === BLOCK LINK ===
    0x2507
=== CODE BLOCK END ===

=== CODE BLOCK ADDRESS 0x2507 ===
  0x2507	jne    	0x251a
  === BLOCK LINK ===
    0x2509
=== CODE BLOCK END ===

=== CODE BLOCK ADDRESS 0x2509 ===
  0x2509	mov    	ecx, 0x20b
  0x250e	cmp    	word ptr [eax + 0x18], cx
  0x2512	jne    	0x251a
  === BLOCK LINK ===
    0x2514
=== CODE BLOCK END ===

=== CODE BLOCK ADDRESS 0x2514 ===
  0x2514	mov    	eax, 1
  0x2519	ret    	
  0x251a	xor    	eax, eax
  0x251c	ret    	
  0x251d	int3   	
  === BLOCK LINK ===
    0x251e
=== CODE BLOCK END ===

=== CODE BLOCK ADDRESS 0x1f3c ===
=== CODE BLOCK END ===

=== CODE BLOCK ADDRESS 0x251e ===
  0x251e	int3   	
  0x251f	int3   	
  0x2520	int3   	
  0x2521	int3   	
  0x2522	int3   	
  === BLOCK LINK ===
    0x2523
=== CODE BLOCK END ===

=== CODE BLOCK ADDRESS 0x2523 ===
  0x2523	int3   	
  0x2524	dec    	eax
  0x2525	mov    	dword ptr [esp + 0x20], ebx
  0x2529	push   	ebp
  0x252a	dec    	eax
  === BLOCK LINK ===
    0x252b
=== CODE BLOCK END ===

=== CODE BLOCK ADDRESS 0x252b ===
  0x252b	mov    	ebp, esp
  0x252d	dec    	eax
  0x252e	sub    	esp, 0x20
  0x2531	dec    	eax
  0x2532	and    	dword ptr [ebp + 0x18], 0
  === BLOCK LINK ===
    0x2536
=== CODE BLOCK END ===

=== CODE BLOCK ADDRESS 0x2536 ===
  0x2536	dec    	eax
  0x2537	mov    	ebx, 0x2ddfa232
  0x253c	cdq    	
  0x253d	sub    	eax, dword ptr [eax]
  0x253f	add    	byte ptr [eax - 0x75], cl
  === BLOCK LINK ===
    0x2542
=== CODE BLOCK END ===

=== CODE BLOCK ADDRESS 0x2542 ===
  0x2542	add    	eax, 0x2ac1
  0x2547	dec    	eax
  0x2548	cmp    	eax, ebx
  0x254a	jne    	0x25e3
  === BLOCK LINK ===
    0x2550
=== CODE BLOCK END ===

=== CODE BLOCK ADDRESS 0x2550 ===
  0x2550	dec    	eax
  0x2551	lea    	ecx, [ebp + 0x18]
  0x2554	call   	dword ptr [0xcde]
  === BLOCK LINK ===
    0x255a
=== CODE BLOCK END ===

=== CODE BLOCK ADDRESS 0x255a ===
  0x255a	dec    	eax
  0x255b	mov    	eax, dword ptr [ebp + 0x18]
  0x255e	dec    	eax
  0x255f	mov    	dword ptr [ebp + 0x10], eax
  0x2562	call   	dword ptr [0xc38]
  === BLOCK LINK ===
    0x2568
=== CODE BLOCK END ===

=== CODE BLOCK ADDRESS 0x2568 ===
  0x2568	mov    	eax, eax
  0x256a	dec    	eax
  0x256b	xor    	dword ptr [ebp + 0x10], eax
  0x256e	call   	dword ptr [0xc24]
  === BLOCK LINK ===
    0x2574
=== CODE BLOCK END ===

=== CODE BLOCK ADDRESS 0x2574 ===
  0x2574	mov    	eax, eax
  0x2576	dec    	eax
  0x2577	xor    	dword ptr [ebp + 0x10], eax
  0x257a	call   	dword ptr [0xcc0]
  === BLOCK LINK ===
    0x2580
=== CODE BLOCK END ===

=== CODE BLOCK ADDRESS 0x2580 ===
  0x2580	mov    	eax, eax
  0x2582	dec    	eax
  0x2583	shl    	eax, 0x18
  0x2586	dec    	eax
  0x2587	xor    	dword ptr [ebp + 0x10], eax
  === BLOCK LINK ===
    0x258a
=== CODE BLOCK END ===

=== CODE BLOCK ADDRESS 0x258a ===
  0x258a	call   	dword ptr [0xcb0]
  === BLOCK LINK ===
    0x2590
=== CODE BLOCK END ===

=== CODE BLOCK ADDRESS 0x2590 ===
  0x2590	mov    	eax, eax
  0x2592	dec    	eax
  0x2593	lea    	ecx, [ebp + 0x10]
  0x2596	dec    	eax
  0x2597	xor    	eax, dword ptr [ebp + 0x10]
  === BLOCK LINK ===
    0x259a
=== CODE BLOCK END ===

=== CODE BLOCK ADDRESS 0x259a ===
  0x259a	dec    	eax
  0x259b	xor    	eax, ecx
  0x259d	dec    	eax
  0x259e	lea    	ecx, [ebp + 0x20]
  0x25a1	dec    	eax
  === BLOCK LINK ===
    0x25a2
=== CODE BLOCK END ===

=== CODE BLOCK ADDRESS 0x25a2 ===
  0x25a2	mov    	dword ptr [ebp + 0x10], eax
  0x25a5	call   	dword ptr [0xc15]
  === BLOCK LINK ===
    0x25ab
=== CODE BLOCK END ===

=== CODE BLOCK ADDRESS 0x25ab ===
  0x25ab	mov    	eax, dword ptr [ebp + 0x20]
  0x25ae	dec    	eax
  0x25af	mov    	ecx, 0xffffffff
  0x25b4	.byte  	0xff
  0x25b5	inc    	dword ptr [eax]
  === BLOCK LINK ===
    0x25b7
=== CODE BLOCK END ===

=== CODE BLOCK ADDRESS 0x25b7 ===
  0x25b7	add    	byte ptr [eax - 0x3f], cl
  0x25ba	loopne  	0x25dc
  === BLOCK LINK ===
    0x25bc
=== CODE BLOCK END ===

=== CODE BLOCK ADDRESS 0x25bc ===
  0x25bc	dec    	eax
  0x25bd	xor    	eax, dword ptr [ebp + 0x20]
  0x25c0	dec    	eax
  0x25c1	xor    	eax, dword ptr [ebp + 0x10]
  0x25c4	dec    	eax
  === BLOCK LINK ===
    0x25c5
=== CODE BLOCK END ===

=== CODE BLOCK ADDRESS 0x25c5 ===
  0x25c5	and    	eax, ecx
  0x25c7	dec    	eax
  0x25c8	mov    	ecx, eax
  0x25ca	dec    	eax
  0x25cb	cmp    	eax, ebx
  === BLOCK LINK ===
    0x25cd
=== CODE BLOCK END ===

=== CODE BLOCK ADDRESS 0x25cd ===
  0x25cd	jne    	0x25dc
  === BLOCK LINK ===
    0x25cf
=== CODE BLOCK END ===

=== CODE BLOCK ADDRESS 0x25cf ===
  0x25cf	dec    	eax
  0x25d0	mov    	eax, 0x2ddfa233
  0x25d5	cdq    	
  0x25d6	sub    	eax, dword ptr [eax]
  0x25d8	add    	byte ptr [eax - 0x75], cl
  === BLOCK LINK ===
    0x25db
=== CODE BLOCK END ===

=== CODE BLOCK ADDRESS 0x25db ===
  0x25db	enter  	-0x76b8, 0xd
  0x25df	and    	eax, 0x4800002a
  0x25e4	mov    	ebx, dword ptr [esp + 0x48]
  0x25e8	dec    	eax
  0x25e9	not    	eax
  === BLOCK LINK ===
    0x25eb
=== CODE BLOCK END ===

=== CODE BLOCK ADDRESS 0x25eb ===
  0x25eb	dec    	eax
  0x25ec	mov    	dword ptr [0x2a1e], eax
  0x25f2	dec    	eax
  0x25f3	add    	esp, 0x20
  0x25f6	pop    	ebp
  === BLOCK LINK ===
    0x25f7
=== CODE BLOCK END ===

=== CODE BLOCK ADDRESS 0x25f7 ===
  0x25f7	ret    	
  0x25f8	int3   	
  0x25f9	int3   	
  0x25fa	int3   	
  0x25fb	int3   	
  === BLOCK LINK ===
    0x25fc
=== CODE BLOCK END ===

=== CODE BLOCK ADDRESS 0x1f30 ===
=== CODE BLOCK END ===

=== CODE BLOCK ADDRESS 0x25fc ===
  0x25fc	int3   	
  0x25fd	int3   	
  0x25fe	jmp    	dword ptr [0xccc]
  === BLOCK LINK ===
    0x2604
=== CODE BLOCK END ===

=== CODE BLOCK ADDRESS 0x2604 ===
  0x2604	int3   	
  0x2605	int3   	
  0x2606	int3   	
  0x2607	int3   	
  0x2608	int3   	
  === BLOCK LINK ===
    0x2609
=== CODE BLOCK END ===

=== CODE BLOCK ADDRESS 0x2609 ===
  0x2609	int3   	
  0x260a	jmp    	dword ptr [0xcb8]
  === BLOCK LINK ===
    0x2610
=== CODE BLOCK END ===

=== CODE BLOCK ADDRESS 0x2610 ===
  0x2610	int3   	
  0x2611	int3   	
  0x2612	int3   	
  0x2613	int3   	
  0x2614	int3   	
  === BLOCK LINK ===
    0x2615
=== CODE BLOCK END ===

=== CODE BLOCK ADDRESS 0x2615 ===
  0x2615	int3   	
  0x2616	int3   	
  0x2617	int3   	
  0x2618	int3   	
  0x2619	int3   	
  === BLOCK LINK ===
    0x261a
=== CODE BLOCK END ===

=== CODE BLOCK ADDRESS 0x261a ===
  0x261a	int3   	
  0x261b	int3   	
  0x261c	int3   	
  0x261d	int3   	
  0x261e	int3   	
  === BLOCK LINK ===
    0x261f
=== CODE BLOCK END ===

=== CODE BLOCK ADDRESS 0x261f ===
  0x261f	int3   	
  0x2620	ret    	0
  0x2623	int3   	
  0x2624	int3   	
  0x2625	int3   	
  === BLOCK LINK ===
    0x2626
=== CODE BLOCK END ===

=== CODE BLOCK ADDRESS 0x2626 ===
  0x2626	int3   	
  0x2627	int3   	
  0x2628	int3   	
  0x2629	int3   	
  0x262a	int3   	
  === BLOCK LINK ===
    0x262b
=== CODE BLOCK END ===

=== CODE BLOCK ADDRESS 0x262b ===
  0x262b	int3   	
  0x262c	inc    	eax
  0x262d	push   	ebx
  0x262e	dec    	eax
  0x262f	sub    	esp, 0x20
  === BLOCK LINK ===
    0x2632
=== CODE BLOCK END ===

=== CODE BLOCK ADDRESS 0x2632 ===
  0x2632	dec    	eax
  0x2633	mov    	ebx, ecx
  0x2635	xor    	ecx, ecx
  0x2637	call   	dword ptr [0xb2b]
  === BLOCK LINK ===
    0x263d
=== CODE BLOCK END ===

=== CODE BLOCK ADDRESS 0x263d ===
  0x263d	dec    	eax
  0x263e	mov    	ecx, ebx
  0x2640	call   	dword ptr [0xb12]
  === BLOCK LINK ===
    0x2646
=== CODE BLOCK END ===

=== CODE BLOCK ADDRESS 0x2646 ===
  0x2646	call   	dword ptr [0xb5c]
  === BLOCK LINK ===
    0x264c
=== CODE BLOCK END ===

=== CODE BLOCK ADDRESS 0x264c ===
  0x264c	dec    	eax
  0x264d	mov    	ecx, eax
  0x264f	mov    	edx, 0xc0000409
  0x2654	dec    	eax
  0x2655	add    	esp, 0x20
  === BLOCK LINK ===
    0x2658
=== CODE BLOCK END ===

=== CODE BLOCK ADDRESS 0x2658 ===
  0x2658	pop    	ebx
  0x2659	dec    	eax
  0x265a	jmp    	dword ptr [0xb50]
  === BLOCK LINK ===
    0x2660
=== CODE BLOCK END ===

=== CODE BLOCK ADDRESS 0x2660 ===
  0x2660	int3   	
  0x2661	int3   	
  0x2662	int3   	
  0x2663	int3   	
  0x2664	int3   	
  === BLOCK LINK ===
    0x2665
=== CODE BLOCK END ===

=== CODE BLOCK ADDRESS 0x2665 ===
  0x2665	int3   	
  0x2666	int3   	
  0x2667	int3   	
  0x2668	int3   	
  0x2669	int3   	
  === BLOCK LINK ===
    0x266a
=== CODE BLOCK END ===

=== CODE BLOCK ADDRESS 0x266a ===
  0x266a	int3   	
  0x266b	int3   	
  0x266c	int3   	
  0x266d	int3   	
  0x266e	int3   	
  === BLOCK LINK ===
    0x266f
=== CODE BLOCK END ===

=== CODE BLOCK ADDRESS 0x266f ===
  0x266f	int3   	
  0x2670	dec    	eax
  0x2671	mov    	dword ptr [esp + 8], ecx
  0x2675	dec    	eax
  0x2676	sub    	esp, 0x88
  === BLOCK LINK ===
    0x267c
=== CODE BLOCK END ===

=== CODE BLOCK ADDRESS 0x267c ===
  0x267c	dec    	eax
  0x267d	lea    	ecx, [0x2a7d]
  0x2683	call   	dword ptr [0xb6f]
  === BLOCK LINK ===
    0x2689
=== CODE BLOCK END ===

=== CODE BLOCK ADDRESS 0x2689 ===
  0x2689	dec    	eax
  0x268a	mov    	eax, dword ptr [0x2b68]
  0x2690	dec    	eax
  0x2691	mov    	dword ptr [esp + 0x48], eax
  0x2695	inc    	ebp
  === BLOCK LINK ===
    0x2696
=== CODE BLOCK END ===

=== CODE BLOCK ADDRESS 0x2696 ===
  0x2696	xor    	eax, eax
  0x2698	dec    	eax
  0x2699	lea    	edx, [esp + 0x50]
  0x269d	dec    	eax
  0x269e	mov    	ecx, dword ptr [esp + 0x48]
  === BLOCK LINK ===
    0x26a2
=== CODE BLOCK END ===

=== CODE BLOCK ADDRESS 0x26a2 ===
  0x26a2	call   	dword ptr [0xb58]
  === BLOCK LINK ===
    0x26a8
=== CODE BLOCK END ===

=== CODE BLOCK ADDRESS 0x26a8 ===
  0x26a8	dec    	eax
  0x26a9	mov    	dword ptr [esp + 0x40], eax
  0x26ad	dec    	eax
  0x26ae	cmp    	dword ptr [esp + 0x40], 0
  0x26b3	je     	0x26f7
  === BLOCK LINK ===
    0x26b5
=== CODE BLOCK END ===

=== CODE BLOCK ADDRESS 0x26b5 ===
  0x26b5	dec    	eax
  0x26b6	mov    	dword ptr [esp + 0x38], 0
  0x26be	dec    	eax
  0x26bf	lea    	eax, [esp + 0x58]
  0x26c3	dec    	eax
  === BLOCK LINK ===
    0x26c4
=== CODE BLOCK END ===

=== CODE BLOCK ADDRESS 0x26c4 ===
  0x26c4	mov    	dword ptr [esp + 0x30], eax
  0x26c8	dec    	eax
  0x26c9	lea    	eax, [esp + 0x60]
  0x26cd	dec    	eax
  0x26ce	mov    	dword ptr [esp + 0x28], eax
  === BLOCK LINK ===
    0x26d2
=== CODE BLOCK END ===

=== CODE BLOCK ADDRESS 0x26d2 ===
  0x26d2	dec    	eax
  0x26d3	lea    	eax, [0x2a27]
  0x26d9	dec    	eax
  0x26da	mov    	dword ptr [esp + 0x20], eax
  0x26de	dec    	esp
  === BLOCK LINK ===
    0x26df
=== CODE BLOCK END ===

=== CODE BLOCK ADDRESS 0x26df ===
  0x26df	mov    	ecx, dword ptr [esp + 0x40]
  0x26e3	dec    	esp
  0x26e4	mov    	eax, dword ptr [esp + 0x48]
  0x26e8	dec    	eax
  0x26e9	mov    	edx, dword ptr [esp + 0x50]
  === BLOCK LINK ===
    0x26ed
=== CODE BLOCK END ===

=== CODE BLOCK ADDRESS 0x26ed ===
  0x26ed	xor    	ecx, ecx
  0x26ef	call   	dword ptr [0xb13]
  === BLOCK LINK ===
    0x26f5
=== CODE BLOCK END ===

=== CODE BLOCK ADDRESS 0x26f5 ===
  0x26f5	jmp    	0x271a
  === BLOCK LINK ===
    0x26f7
=== CODE BLOCK END ===

=== CODE BLOCK ADDRESS 0x26f7 ===
  0x26f7	dec    	eax
  0x26f8	mov    	eax, dword ptr [0x2a9a]
  0x26fe	dec    	eax
  0x26ff	mov    	eax, dword ptr [eax]
  0x2701	dec    	eax
  === BLOCK LINK ===
    0x2702
=== CODE BLOCK END ===

=== CODE BLOCK ADDRESS 0x2702 ===
  0x2702	mov    	dword ptr [0x2af0], eax
  0x2708	dec    	eax
  0x2709	mov    	eax, dword ptr [0x2a89]
  0x270f	dec    	eax
  0x2710	add    	eax, 8
  === BLOCK LINK ===
    0x2713
=== CODE BLOCK END ===

=== CODE BLOCK ADDRESS 0x2713 ===
  0x2713	dec    	eax
  0x2714	mov    	dword ptr [0x2a7e], eax
  0x271a	dec    	eax
  0x271b	mov    	eax, dword ptr [0x2ad7]
  0x2721	dec    	eax
  === BLOCK LINK ===
    0x2722
=== CODE BLOCK END ===

=== CODE BLOCK ADDRESS 0x2722 ===
  0x2722	mov    	dword ptr [0x2948], eax
  0x2728	dec    	eax
  0x2729	mov    	eax, dword ptr [esp + 0x90]
  0x2730	dec    	eax
  0x2731	mov    	dword ptr [0x2a49], eax
  === BLOCK LINK ===
    0x2737
=== CODE BLOCK END ===

=== CODE BLOCK ADDRESS 0x2737 ===
  0x2737	mov    	dword ptr [0x291f], 0xc0000409
  0x2741	mov    	dword ptr [0x2919], 1
  0x274b	mov    	dword ptr [0x2923], 3
  0x2755	mov    	eax, 8
  0x275a	dec    	eax
  === BLOCK LINK ===
    0x275b
=== CODE BLOCK END ===

=== CODE BLOCK ADDRESS 0x275b ===
  0x275b	imul   	eax, eax, 0
  0x275e	dec    	eax
  0x275f	lea    	ecx, [0x291b]
  0x2765	dec    	eax
  0x2766	mov    	dword ptr [ecx + eax], 2
  === BLOCK LINK ===
    0x276d
=== CODE BLOCK END ===

=== CODE BLOCK ADDRESS 0x276d ===
  0x276d	mov    	eax, 8
  0x2772	dec    	eax
  0x2773	imul   	eax, eax, 1
  0x2776	dec    	eax
  0x2777	lea    	ecx, [0x2903]
  === BLOCK LINK ===
    0x277d
=== CODE BLOCK END ===

=== CODE BLOCK ADDRESS 0x277d ===
  0x277d	dec    	eax
  0x277e	mov    	edx, dword ptr [0x2884]
  0x2784	dec    	eax
  0x2785	mov    	dword ptr [ecx + eax], edx
  0x2788	mov    	eax, 8
  === BLOCK LINK ===
    0x278d
=== CODE BLOCK END ===

=== CODE BLOCK ADDRESS 0x278d ===
  0x278d	dec    	eax
  0x278e	imul   	eax, eax, 2
  0x2791	dec    	eax
  0x2792	lea    	ecx, [0x28e8]
  0x2798	dec    	eax
  === BLOCK LINK ===
    0x2799
=== CODE BLOCK END ===

=== CODE BLOCK ADDRESS 0x2799 ===
  0x2799	mov    	edx, dword ptr [0x2871]
  0x279f	dec    	eax
  0x27a0	mov    	dword ptr [ecx + eax], edx
  0x27a3	mov    	eax, 8
  0x27a8	dec    	eax
  === BLOCK LINK ===
    0x27a9
=== CODE BLOCK END ===

=== CODE BLOCK ADDRESS 0x27a9 ===
  0x27a9	imul   	eax, eax, 0
  0x27ac	dec    	eax
  0x27ad	mov    	ecx, dword ptr [0x2855]
  0x27b3	dec    	eax
  0x27b4	mov    	dword ptr [esp + eax + 0x68], ecx
  === BLOCK LINK ===
    0x27b8
=== CODE BLOCK END ===

=== CODE BLOCK ADDRESS 0x27b8 ===
  0x27b8	mov    	eax, 8
  0x27bd	dec    	eax
  0x27be	imul   	eax, eax, 1
  0x27c1	dec    	eax
  0x27c2	mov    	ecx, dword ptr [0x2848]
  === BLOCK LINK ===
    0x27c8
=== CODE BLOCK END ===

=== CODE BLOCK ADDRESS 0x27c8 ===
  0x27c8	dec    	eax
  0x27c9	mov    	dword ptr [esp + eax + 0x68], ecx
  0x27cd	dec    	eax
  0x27ce	lea    	ecx, [0x82c]
  0x27d4	call   	0x262c
  === BLOCK LINK ===
    0x27d9
=== CODE BLOCK END ===

=== CODE BLOCK ADDRESS 0x27d9 ===
  0x27d9	dec    	eax
  0x27da	add    	esp, 0x88
  0x27e0	ret    	
  0x27e1	int3   	
  0x27e2	int3   	
  === BLOCK LINK ===
    0x27e3
=== CODE BLOCK END ===

=== CODE BLOCK ADDRESS 0x27e3 ===
  0x27e3	int3   	
  0x27e4	int3   	
  0x27e5	int3   	
  0x27e6	int3   	
  0x27e7	int3   	
  === BLOCK LINK ===
    0x27e8
=== CODE BLOCK END ===

=== CODE BLOCK ADDRESS 0x27e8 ===
  0x27e8	int3   	
  0x27e9	int3   	
  0x27ea	int3   	
  0x27eb	int3   	
  0x27ec	int3   	
  === BLOCK LINK ===
    0x27ed
=== CODE BLOCK END ===

=== CODE BLOCK ADDRESS 0x27ed ===
  0x27ed	int3   	
  0x27ee	int3   	
  0x27ef	int3   	
  0x27f0	int3   	
  0x27f1	int3   	
  === BLOCK LINK ===
    0x27f2
=== CODE BLOCK END ===

=== CODE BLOCK ADDRESS 0x27f2 ===
  0x27f2	int3   	
  0x27f3	int3   	
  0x27f4	int3   	
  0x27f5	int3   	
  0x27f6	int3   	
  === BLOCK LINK ===
    0x27f7
=== CODE BLOCK END ===

=== CODE BLOCK ADDRESS 0x27f7 ===
  0x27f7	int3   	
  0x27f8	dec    	eax
  0x27f9	sub    	esp, 0x28
  0x27fc	dec    	ebp
  0x27fd	mov    	eax, dword ptr [ecx + 0x38]
  === BLOCK LINK ===
    0x2800
=== CODE BLOCK END ===

=== CODE BLOCK ADDRESS 0x2800 ===
  0x2800	dec    	eax
  0x2801	mov    	ecx, edx
  0x2803	dec    	ecx
  0x2804	mov    	edx, ecx
  0x2806	call   	0x281c
  === BLOCK LINK ===
    0x280b
=== CODE BLOCK END ===

=== CODE BLOCK ADDRESS 0x280b ===
  0x280b	mov    	eax, 1
  0x2810	dec    	eax
  0x2811	add    	esp, 0x28
  0x2814	ret    	
  0x2815	int3   	
  === BLOCK LINK ===
    0x2816
=== CODE BLOCK END ===

=== CODE BLOCK ADDRESS 0x141c ===
  0x141c	dec    	eax
  0x141d	call   	dword ptr [0x1dad]
  === BLOCK LINK ===
    0x1423
=== CODE BLOCK END ===

=== CODE BLOCK ADDRESS 0x2816 ===
  0x2816	int3   	
  0x2817	int3   	
  0x2818	int3   	
  0x2819	int3   	
  0x281a	int3   	
  === BLOCK LINK ===
    0x281b
=== CODE BLOCK END ===

=== CODE BLOCK ADDRESS 0x281b ===
  0x281b	int3   	
  0x281c	inc    	eax
  0x281d	push   	ebx
  0x281e	inc    	ebp
  0x281f	mov    	ebx, dword ptr [eax]
  === BLOCK LINK ===
    0x2821
=== CODE BLOCK END ===

=== CODE BLOCK ADDRESS 0x2821 ===
  0x2821	dec    	eax
  0x2822	mov    	ebx, edx
  0x2824	inc    	ecx
  0x2825	and    	ebx, 0xfffffff8
  0x2828	dec    	esp
  === BLOCK LINK ===
    0x2829
=== CODE BLOCK END ===

=== CODE BLOCK ADDRESS 0x2829 ===
  0x2829	mov    	ecx, ecx
  0x282b	inc    	ecx
  0x282c	test   	byte ptr [eax], 4
  0x282f	dec    	esp
  0x2830	mov    	edx, ecx
  === BLOCK LINK ===
    0x2832
=== CODE BLOCK END ===

=== CODE BLOCK ADDRESS 0x2832 ===
  0x2832	je     	0x2847
  === BLOCK LINK ===
    0x2834
=== CODE BLOCK END ===

=== CODE BLOCK ADDRESS 0x2834 ===
  0x2834	inc    	ecx
  0x2835	mov    	eax, dword ptr [eax + 8]
  0x2838	dec    	ebp
  0x2839	arpl   	word ptr [eax + 4], dx
  0x283c	neg    	eax
  === BLOCK LINK ===
    0x283e
=== CODE BLOCK END ===

=== CODE BLOCK ADDRESS 0x283e ===
  0x283e	dec    	esp
  0x283f	add    	edx, ecx
  0x2841	dec    	eax
  0x2842	arpl   	ax, cx
  0x2844	dec    	esp
  === BLOCK LINK ===
    0x2845
=== CODE BLOCK END ===

=== CODE BLOCK ADDRESS 0x2845 ===
  0x2845	and    	edx, ecx
  0x2847	dec    	ecx
  0x2848	arpl   	bx, ax
  0x284a	dec    	edx
  0x284b	mov    	edx, dword ptr [eax + edx]
  === BLOCK LINK ===
    0x284e
=== CODE BLOCK END ===

=== CODE BLOCK ADDRESS 0x284e ===
  0x284e	dec    	eax
  0x284f	mov    	eax, dword ptr [ebx + 0x10]
  0x2852	mov    	ecx, dword ptr [eax + 8]
  0x2855	dec    	eax
  0x2856	mov    	eax, dword ptr [ebx + 8]
  === BLOCK LINK ===
    0x2859
=== CODE BLOCK END ===

=== CODE BLOCK ADDRESS 0x2859 ===
  0x2859	test   	byte ptr [ecx + eax + 3], 0xf
  0x285e	je     	0x286b
  === BLOCK LINK ===
    0x2860
=== CODE BLOCK END ===

=== CODE BLOCK ADDRESS 0x2860 ===
  0x2860	movzx  	eax, byte ptr [ecx + eax + 3]
  0x2865	and    	eax, 0xfffffff0
  0x2868	dec    	esp
  0x2869	add    	ecx, eax
  0x286b	dec    	esp
  === BLOCK LINK ===
    0x286c
=== CODE BLOCK END ===

=== CODE BLOCK ADDRESS 0x286c ===
  0x286c	xor    	ecx, edx
  0x286e	dec    	ecx
  0x286f	mov    	ecx, ecx
  0x2871	pop    	ebx
  0x2872	jmp    	0x22c0
  === BLOCK LINK ===
    0x2877
=== CODE BLOCK END ===

=== CODE BLOCK ADDRESS 0x2877 ===
  0x2877	int3   	
  0x2878	int3   	
  0x2879	int3   	
  0x287a	int3   	
  0x287b	int3   	
  === BLOCK LINK ===
    0x287c
=== CODE BLOCK END ===

=== CODE BLOCK ADDRESS 0x287c ===
  0x287c	int3   	
  0x287d	jmp    	dword ptr [0xa65]
  === BLOCK LINK ===
    0x2883
=== CODE BLOCK END ===

=== CODE BLOCK ADDRESS 0x2883 ===
  0x2883	int3   	
  0x2884	int3   	
  0x2885	int3   	
  0x2886	int3   	
  0x2887	int3   	
  === BLOCK LINK ===
    0x2888
=== CODE BLOCK END ===

=== CODE BLOCK ADDRESS 0x2888 ===
  0x2888	int3   	
  0x2889	int3   	
  0x288a	int3   	
  0x288b	int3   	
  0x288c	int3   	
  === BLOCK LINK ===
    0x288d
=== CODE BLOCK END ===

=== CODE BLOCK ADDRESS 0x288d ===
  0x288d	int3   	
  0x288e	int3   	
  0x288f	int3   	
  0x2890	int3   	
  0x2891	int3   	
  === BLOCK LINK ===
    0x2892
=== CODE BLOCK END ===

=== CODE BLOCK ADDRESS 0x2892 ===
  0x2892	int3   	
  0x2893	int3   	
  0x2894	int3   	
  0x2895	int3   	
  0x2896	nop    	word ptr [eax + eax]
  === BLOCK LINK ===
    0x28a0
=== CODE BLOCK END ===

=== CODE BLOCK ADDRESS 0x28a0 ===
  0x28a0	jmp    	eax
  === BLOCK LINK ===
    0x28a2
=== CODE BLOCK END ===

=== CODE BLOCK ADDRESS 0x28a2 ===
  0x28a2	int3   	
  0x28a3	int3   	
  0x28a4	int3   	
  0x28a5	int3   	
  0x28a6	int3   	
  === BLOCK LINK ===
    0x28a7
=== CODE BLOCK END ===

=== CODE BLOCK ADDRESS 0x28a7 ===
  0x28a7	int3   	
  0x28a8	int3   	
  0x28a9	int3   	
  0x28aa	int3   	
  0x28ab	int3   	
  === BLOCK LINK ===
    0x28ac
=== CODE BLOCK END ===

=== CODE BLOCK ADDRESS 0x28ac ===
  0x28ac	int3   	
  0x28ad	int3   	
  0x28ae	int3   	
  0x28af	int3   	
  0x28b0	inc    	eax
  === BLOCK LINK ===
    0x28b1
=== CODE BLOCK END ===

=== CODE BLOCK ADDRESS 0x28b1 ===
  0x28b1	push   	ebp
  0x28b2	dec    	eax
  0x28b3	sub    	esp, 0x20
  0x28b6	dec    	eax
  0x28b7	mov    	ebp, edx
  === BLOCK LINK ===
    0x28b9
=== CODE BLOCK END ===

=== CODE BLOCK ADDRESS 0x28b9 ===
  0x28b9	dec    	eax
  0x28ba	mov    	eax, dword ptr [ecx]
  0x28bc	dec    	eax
  0x28bd	mov    	edx, ecx
  0x28bf	mov    	ecx, dword ptr [eax]
  === BLOCK LINK ===
    0x28c1
=== CODE BLOCK END ===

=== CODE BLOCK ADDRESS 0x28c1 ===
  0x28c1	call   	0x236e
  === BLOCK LINK ===
    0x28c6
=== CODE BLOCK END ===

=== CODE BLOCK ADDRESS 0x28c6 ===
  0x28c6	nop    	
  0x28c7	dec    	eax
  0x28c8	add    	esp, 0x20
  0x28cb	pop    	ebp
  0x28cc	ret    	
  === BLOCK LINK ===
    0x28cd
=== CODE BLOCK END ===

=== CODE BLOCK ADDRESS 0x28cd ===
  0x28cd	int3   	
  0x28ce	int3   	
  0x28cf	int3   	
  0x28d0	int3   	
  0x28d1	int3   	
  === BLOCK LINK ===
    0x28d2
=== CODE BLOCK END ===

=== CODE BLOCK ADDRESS 0x28d2 ===
  0x28d2	int3   	
  0x28d3	int3   	
  0x28d4	int3   	
  0x28d5	int3   	
  0x28d6	int3   	
  === BLOCK LINK ===
    0x28d7
=== CODE BLOCK END ===

=== CODE BLOCK ADDRESS 0x28d7 ===
  0x28d7	int3   	
  0x28d8	int3   	
  0x28d9	int3   	
  0x28da	int3   	
  0x28db	int3   	
  === BLOCK LINK ===
    0x28dc
=== CODE BLOCK END ===

=== CODE BLOCK ADDRESS 0x28dc ===
  0x28dc	int3   	
  0x28dd	int3   	
  0x28de	int3   	
  0x28df	int3   	
  0x28e0	inc    	eax
  === BLOCK LINK ===
    0x28e1
=== CODE BLOCK END ===

=== CODE BLOCK ADDRESS 0x28e1 ===
  0x28e1	push   	ebp
  0x28e2	dec    	eax
  0x28e3	sub    	esp, 0x20
  0x28e6	dec    	eax
  0x28e7	mov    	ebp, edx
  === BLOCK LINK ===
    0x28e9
=== CODE BLOCK END ===

=== CODE BLOCK ADDRESS 0x28e9 ===
  0x28e9	dec    	eax
  0x28ea	mov    	eax, dword ptr [ecx]
  0x28ec	xor    	ecx, ecx
  0x28ee	cmp    	dword ptr [eax], 0xc0000005
  0x28f4	sete   	cl
  === BLOCK LINK ===
    0x28f7
=== CODE BLOCK END ===

=== CODE BLOCK ADDRESS 0x28f7 ===
  0x28f7	mov    	eax, ecx
  0x28f9	dec    	eax
  0x28fa	add    	esp, 0x20
  0x28fd	pop    	ebp
  0x28fe	ret    	
  === BLOCK LINK ===
    0x28ff
=== CODE BLOCK END ===

=== CODE BLOCK ADDRESS 0x28ff ===
  0x28ff	int3   	
  0x2900	add    	byte ptr [eax], al
  0x2902	add    	byte ptr [eax], al
  0x2904	add    	byte ptr [eax], al
  0x2906	add    	byte ptr [eax], al
  === BLOCK LINK ===
    0x2908
=== CODE BLOCK END ===

=== CODE BLOCK ADDRESS 0x2908 ===
  0x2908	add    	byte ptr [eax], al
  0x290a	add    	byte ptr [eax], al
  0x290c	add    	byte ptr [eax], al
  0x290e	add    	byte ptr [eax], al
  0x2910	add    	byte ptr [eax], al
  === BLOCK LINK ===
    0x2912
=== CODE BLOCK END ===

=== CODE BLOCK ADDRESS 0x2912 ===
  0x2912	add    	byte ptr [eax], al
  0x2914	add    	byte ptr [eax], al
  0x2916	add    	byte ptr [eax], al
  0x2918	add    	byte ptr [eax], al
  0x291a	add    	byte ptr [eax], al
  === BLOCK LINK ===
    0x291c
=== CODE BLOCK END ===

=== CODE BLOCK ADDRESS 0x291c ===
  0x291c	add    	byte ptr [eax], al
  0x291e	add    	byte ptr [eax], al
  0x2920	add    	byte ptr [eax], al
  0x2922	add    	byte ptr [eax], al
  0x2924	add    	byte ptr [eax], al
  === BLOCK LINK ===
    0x2926
=== CODE BLOCK END ===

=== CODE BLOCK ADDRESS 0x2926 ===
  0x2926	add    	byte ptr [eax], al
  0x2928	add    	byte ptr [eax], al
  0x292a	add    	byte ptr [eax], al
  0x292c	add    	byte ptr [eax], al
  0x292e	add    	byte ptr [eax], al
  === BLOCK LINK ===
    0x2930
=== CODE BLOCK END ===

=== CODE BLOCK ADDRESS 0x2930 ===
  0x2930	add    	byte ptr [eax], al
  0x2932	add    	byte ptr [eax], al
  0x2934	add    	byte ptr [eax], al
  0x2936	add    	byte ptr [eax], al
  0x2938	add    	byte ptr [eax], al
  === BLOCK LINK ===
    0x293a
=== CODE BLOCK END ===

=== CODE BLOCK ADDRESS 0x293a ===
  0x293a	add    	byte ptr [eax], al
  0x293c	add    	byte ptr [eax], al
  0x293e	add    	byte ptr [eax], al
  0x2940	add    	byte ptr [eax], al
  0x2942	add    	byte ptr [eax], al
  === BLOCK LINK ===
    0x2944
=== CODE BLOCK END ===

=== CODE BLOCK ADDRESS 0x2944 ===
  0x2944	add    	byte ptr [eax], al
  0x2946	add    	byte ptr [eax], al
  0x2948	add    	byte ptr [eax], al
  0x294a	add    	byte ptr [eax], al
  0x294c	add    	byte ptr [eax], al
  === BLOCK LINK ===
    0x294e
=== CODE BLOCK END ===

=== CODE BLOCK ADDRESS 0x294e ===
  0x294e	add    	byte ptr [eax], al
  0x2950	add    	byte ptr [eax], al
  0x2952	add    	byte ptr [eax], al
  0x2954	add    	byte ptr [eax], al
  0x2956	add    	byte ptr [eax], al
  === BLOCK LINK ===
    0x2958
=== CODE BLOCK END ===

=== CODE BLOCK ADDRESS 0x2958 ===
  0x2958	add    	byte ptr [eax], al
  0x295a	add    	byte ptr [eax], al
  0x295c	add    	byte ptr [eax], al
  0x295e	add    	byte ptr [eax], al
  0x2960	add    	byte ptr [eax], al
  === BLOCK LINK ===
    0x2962
=== CODE BLOCK END ===

=== CODE BLOCK ADDRESS 0x2962 ===
  0x2962	add    	byte ptr [eax], al
  0x2964	add    	byte ptr [eax], al
  0x2966	add    	byte ptr [eax], al
  0x2968	add    	byte ptr [eax], al
  0x296a	add    	byte ptr [eax], al
  === BLOCK LINK ===
    0x296c
=== CODE BLOCK END ===

=== CODE BLOCK ADDRESS 0x296c ===
  0x296c	add    	byte ptr [eax], al
  0x296e	add    	byte ptr [eax], al
  0x2970	add    	byte ptr [eax], al
  0x2972	add    	byte ptr [eax], al
  0x2974	add    	byte ptr [eax], al
  === BLOCK LINK ===
    0x2976
=== CODE BLOCK END ===

=== CODE BLOCK ADDRESS 0x2976 ===
  0x2976	add    	byte ptr [eax], al
  0x2978	add    	byte ptr [eax], al
  0x297a	add    	byte ptr [eax], al
  0x297c	add    	byte ptr [eax], al
  0x297e	add    	byte ptr [eax], al
  === BLOCK LINK ===
    0x2980
=== CODE BLOCK END ===

=== CODE BLOCK ADDRESS 0x2980 ===
  0x2980	add    	byte ptr [eax], al
  0x2982	add    	byte ptr [eax], al
  0x2984	add    	byte ptr [eax], al
  0x2986	add    	byte ptr [eax], al
  0x2988	add    	byte ptr [eax], al
  === BLOCK LINK ===
    0x298a
=== CODE BLOCK END ===

=== CODE BLOCK ADDRESS 0x298a ===
  0x298a	add    	byte ptr [eax], al
  0x298c	add    	byte ptr [eax], al
  0x298e	add    	byte ptr [eax], al
  0x2990	add    	byte ptr [eax], al
  0x2992	add    	byte ptr [eax], al
  === BLOCK LINK ===
    0x2994
=== CODE BLOCK END ===

=== CODE BLOCK ADDRESS 0x2994 ===
  0x2994	add    	byte ptr [eax], al
  0x2996	add    	byte ptr [eax], al
  0x2998	add    	byte ptr [eax], al
  0x299a	add    	byte ptr [eax], al
  0x299c	add    	byte ptr [eax], al
  === BLOCK LINK ===
    0x299e
=== CODE BLOCK END ===

=== CODE BLOCK ADDRESS 0x299e ===
  0x299e	add    	byte ptr [eax], al
  0x29a0	add    	byte ptr [eax], al
  0x29a2	add    	byte ptr [eax], al
  0x29a4	add    	byte ptr [eax], al
  0x29a6	add    	byte ptr [eax], al
  === BLOCK LINK ===
    0x29a8
=== CODE BLOCK END ===

=== CODE BLOCK ADDRESS 0x29a8 ===
  0x29a8	add    	byte ptr [eax], al
  0x29aa	add    	byte ptr [eax], al
  0x29ac	add    	byte ptr [eax], al
  0x29ae	add    	byte ptr [eax], al
  0x29b0	add    	byte ptr [eax], al
  === BLOCK LINK ===
    0x29b2
=== CODE BLOCK END ===

=== CODE BLOCK ADDRESS 0x29b2 ===
  0x29b2	add    	byte ptr [eax], al
  0x29b4	add    	byte ptr [eax], al
  0x29b6	add    	byte ptr [eax], al
  0x29b8	add    	byte ptr [eax], al
  0x29ba	add    	byte ptr [eax], al
  === BLOCK LINK ===
    0x29bc
=== CODE BLOCK END ===

=== CODE BLOCK ADDRESS 0x29bc ===
  0x29bc	add    	byte ptr [eax], al
  0x29be	add    	byte ptr [eax], al
  0x29c0	add    	byte ptr [eax], al
  0x29c2	add    	byte ptr [eax], al
  0x29c4	add    	byte ptr [eax], al
  === BLOCK LINK ===
    0x29c6
=== CODE BLOCK END ===

=== CODE BLOCK ADDRESS 0x29c6 ===
  0x29c6	add    	byte ptr [eax], al
  0x29c8	add    	byte ptr [eax], al
  0x29ca	add    	byte ptr [eax], al
  0x29cc	add    	byte ptr [eax], al
  0x29ce	add    	byte ptr [eax], al
  === BLOCK LINK ===
    0x29d0
=== CODE BLOCK END ===

=== CODE BLOCK ADDRESS 0x29d0 ===
  0x29d0	add    	byte ptr [eax], al
  0x29d2	add    	byte ptr [eax], al
  0x29d4	add    	byte ptr [eax], al
  0x29d6	add    	byte ptr [eax], al
  0x29d8	add    	byte ptr [eax], al
  === BLOCK LINK ===
    0x29da
=== CODE BLOCK END ===

=== CODE BLOCK ADDRESS 0x29da ===
  0x29da	add    	byte ptr [eax], al
  0x29dc	add    	byte ptr [eax], al
  0x29de	add    	byte ptr [eax], al
  0x29e0	add    	byte ptr [eax], al
  0x29e2	add    	byte ptr [eax], al
  === BLOCK LINK ===
    0x29e4
=== CODE BLOCK END ===

=== CODE BLOCK ADDRESS 0x29e4 ===
  0x29e4	add    	byte ptr [eax], al
  0x29e6	add    	byte ptr [eax], al
  0x29e8	add    	byte ptr [eax], al
  0x29ea	add    	byte ptr [eax], al
  0x29ec	add    	byte ptr [eax], al
  === BLOCK LINK ===
    0x29ee
=== CODE BLOCK END ===

=== CODE BLOCK ADDRESS 0x29ee ===
  0x29ee	add    	byte ptr [eax], al
  0x29f0	add    	byte ptr [eax], al
  0x29f2	add    	byte ptr [eax], al
  0x29f4	add    	byte ptr [eax], al
  0x29f6	add    	byte ptr [eax], al
  === BLOCK LINK ===
    0x29f8
=== CODE BLOCK END ===

=== CODE BLOCK ADDRESS 0x29f8 ===
  0x29f8	add    	byte ptr [eax], al
  0x29fa	add    	byte ptr [eax], al
  0x29fc	add    	byte ptr [eax], al
=== CODE BLOCK END ===

=== DATA BLOCK ADDRESS 0x3000 ===
  0x3000	60 50 00 40 01 00 00 00 00 51 00 40 01 00 00 00 	`P0@00000Q0@0000
  0x3010	18 01 00 00 00 00 00 00 00 00 00 00 00 00 00 00 	0000000000000000
  0x3020	00 00 00 00 00 00 00 00 00 00 00 00 00 00 00 00 	0000000000000000
  0x3030	00 00 00 00 00 00 00 00 00 00 00 00 00 00 00 00 	0000000000000000
  0x3040	00 00 00 00 00 00 00 00 00 00 00 00 00 00 00 00 	0000000000000000
  0x3050	00 00 00 00 00 00 00 00 00 00 00 00 00 00 00 00 	0000000000000000
  0x3060	00 00 00 00 00 00 00 00 08 50 00 40 01 00 00 00 	000000000P0@0000
  0x3070	00 00 00 00 00 00 00 00 00 00 00 00 00 00 00 00 	0000000000000000
  0x3080	f8 32 00 40 01 00 00 00 00 33 00 40 01 00 00 00 	020@0000030@0000
  0x3090	40 33 00 40 01 00 00 00 08 00 00 00 00 00 00 00 	@30@000000000000
  0x30a0	00 75 01 00 00 00 00 00 00 00 00 00 00 00 00 00 	0u00000000000000
  0x30b0	00 00 00 00 00 00 00 00 00 00 00 00 00 00 00 00 	0000000000000000
  0x30c0	00 00 00 00 00 00 00 00 00 00 00 00 00 00 00 00 	0000000000000000
  0x30d0	00 00 00 00 00 00 00 00 00 00 00 00 00 00 00 00 	0000000000000000
  0x30e0	00 00 00 00 00 00 00 00 00 00 00 00 00 00 00 00 	0000000000000000
  0x30f0	00 00 00 00 00 00 00 00 00 00 00 00 00 00 00 00 	0000000000000000
  0x3100	00 00 00 00 00 00 00 00 00 00 00 00 00 00 00 00 	0000000000000000
  0x3110	00 00 00 00 00 00 00 00 00 00 00 00 00 00 00 00 	0000000000000000
  0x3120	00 00 00 00 00 00 00 00 a4 3e 00 00 00 00 00 00 	000000000>000000
  0x3130	2e 3e 00 00 00 00 00 00 40 3e 00 00 00 00 00 00 	.>000000@>000000
  0x3140	54 3e 00 00 00 00 00 00 0e 3e 00 00 00 00 00 00 	T>0000000>000000
  0x3150	00 00 00 00 00 00 00 00 a4 3f 00 00 00 00 00 00 	000000000?000000
  0x3160	74 3e 00 00 00 00 00 00 c0 3e 00 00 00 00 00 00 	t>0000000>000000
  0x3170	00 00 00 00 00 00 00 00 84 3e 00 00 00 00 00 00 	000000000>000000
  0x3180	00 00 00 00 00 00 00 00 de 3e 00 00 00 00 00 00 	000000000>000000
  0x3190	00 00 00 00 00 00 00 00 22 3f 00 00 00 00 00 00 	00000000"?000000
  0x31a0	0c 3f 00 00 00 00 00 00 c0 3f 00 00 00 00 00 00 	0?0000000?000000
  0x31b0	d4 3f 00 00 00 00 00 00 00 00 00 00 00 00 00 00 	0?00000000000000
  0x31c0	f2 3e 00 00 00 00 00 00 00 00 00 00 00 00 00 00 	0>00000000000000
  0x31d0	20 3e 00 00 00 00 00 00 ea 3d 00 00 00 00 00 00 	 >0000000=000000
  0x31e0	fe 3d 00 00 00 00 00 00 92 3e 00 00 00 00 00 00 	0=0000000>000000
  0x31f0	00 00 00 00 00 00 00 00 62 3f 00 00 00 00 00 00 	00000000b?000000
  0x3200	76 3f 00 00 00 00 00 00 90 3f 00 00 00 00 00 00 	v?0000000?000000
  0x3210	00 00 00 00 00 00 00 00 64 3e 00 00 00 00 00 00 	00000000d>000000
  0x3220	00 00 00 00 00 00 00 00 b8 3e 00 00 00 00 00 00 	000000000>000000
  0x3230	00 00 00 00 00 00 00 00 38 3f 00 00 00 00 00 00 	000000008?000000
  0x3240	52 3f 00 00 00 00 00 00 00 00 00 00 00 00 00 00 	R?00000000000000
  0x3250	7e 41 00 00 00 00 00 00 00 00 00 00 00 00 00 00 	~A00000000000000
  0x3260	f8 3c 00 00 00 00 00 00 40 3d 00 00 00 00 00 00 	0<000000@=000000
  0x3270	50 3d 00 00 00 00 00 00 62 3d 00 00 00 00 00 00 	P=000000b=000000
  0x3280	6a 3d 00 00 00 00 00 00 72 3d 00 00 00 00 00 00 	j=000000r=000000
  0x3290	18 3d 00 00 00 00 00 00 32 3d 00 00 00 00 00 00 	0=0000002=000000
  0x32a0	0e 3d 00 00 00 00 00 00 06 3d 00 00 00 00 00 00 	0=0000000=000000
  0x32b0	d6 3d 00 00 00 00 00 00 be 3d 00 00 00 00 00 00 	0=0000000=000000
  0x32c0	b4 3d 00 00 00 00 00 00 9c 3d 00 00 00 00 00 00 	0=0000000=000000
  0x32d0	90 3d 00 00 00 00 00 00 24 3d 00 00 00 00 00 00 	0=000000$=000000
  0x32e0	7c 3d 00 00 00 00 00 00 ae 41 00 00 00 00 00 00 	|=0000000A000000
  0x32f0	00 00 00 00 00 00 00 00 20 26 00 40 01 00 00 00 	00000000 &0@0000
  0x3300	a0 28 00 40 01 00 00 00 00 00 00 00 00 00 00 00 	0(0@000000000000
  0x3310	70 20 00 40 01 00 00 00 00 00 00 00 00 00 00 00 	p 0@000000000000
  0x3320	00 00 00 00 00 00 00 00 90 1f 00 40 01 00 00 00 	00000000000@0000
  0x3330	50 23 00 40 01 00 00 00 00 00 00 00 00 00 00 00 	P#0@000000000000
  0x3340	90 1f 00 00 70 20 00 00 90 22 00 00 10 23 00 00 	0000p 000"000#00
  0x3350	50 23 00 00 30 24 00 00 20 26 00 00 70 26 00 00 	P#000$00 &00p&00
  0x3360	45 00 78 00 74 00 65 00 72 00 6e 00 61 00 6c 00 	E0x0t0e0r0n0a0l0
  0x3370	41 00 64 00 61 00 70 00 74 00 65 00 72 00 00 00 	A0d0a0p0t0e0r000
  0x3380	53 00 6f 00 66 00 74 00 77 00 61 00 72 00 65 00 	S0o0f0t0w0a0r0e0
  0x3390	5c 00 4d 00 69 00 63 00 72 00 6f 00 73 00 6f 00 	00M0i0c0r0o0s0o0
  0x33a0	66 00 74 00 5c 00 57 00 69 00 6e 00 64 00 6f 00 	f0t000W0i0n0d0o0
  0x33b0	77 00 73 00 20 00 4e 00 54 00 5c 00 43 00 75 00 	w0s0 0N0T000C0u0
  0x33c0	72 00 72 00 65 00 6e 00 74 00 56 00 65 00 72 00 	r0r0e0n0t0V0e0r0
  0x33d0	73 00 69 00 6f 00 6e 00 5c 00 55 00 6e 00 61 00 	s0i0o0n000U0n0a0
  0x33e0	74 00 74 00 65 00 6e 00 64 00 53 00 65 00 74 00 	t0t0e0n0d0S0e0t0
  0x33f0	74 00 69 00 6e 00 67 00 73 00 00 00 00 00 00 00 	t0i0n0g0s0000000
  0x3400	49 00 6e 00 74 00 65 00 72 00 6e 00 61 00 6c 00 	I0n0t0e0r0n0a0l0
  0x3410	41 00 64 00 61 00 70 00 74 00 65 00 72 00 00 00 	A0d0a0p0t0e0r000
  0x3420	49 00 6e 00 74 00 65 00 72 00 6e 00 61 00 6c 00 	I0n0t0e0r0n0a0l0
  0x3430	49 00 73 00 42 00 72 00 69 00 64 00 67 00 65 00 	I0s0B0r0i0d0g0e0
  0x3440	00 00 00 00 00 00 00 00 45 00 6e 00 61 00 62 00 	00000000E0n0a0b0
  0x3450	6c 00 65 00 49 00 43 00 53 00 00 00 00 00 00 00 	l0e0I0C0S0000000
  0x3460	25 00 6c 00 73 00 5c 00 25 00 6c 00 73 00 5c 00 	%0l0s000%0l0s000
  0x3470	25 00 6c 00 73 00 00 00 32 00 35 00 35 00 2e 00 	%0l0s000205050.0
  0x3480	32 00 35 00 35 00 2e 00 32 00 35 00 35 00 2e 00 	205050.0205050.0
  0x3490	30 00 00 00 00 00 00 00 00 00 00 00 00 00 00 00 	0000000000000000
  0x34a0	53 00 59 00 53 00 54 00 45 00 4d 00 5c 00 43 00 	S0Y0S0T0E0M000C0
  0x34b0	75 00 72 00 72 00 65 00 6e 00 74 00 43 00 6f 00 	u0r0r0e0n0t0C0o0
  0x34c0	6e 00 74 00 72 00 6f 00 6c 00 53 00 65 00 74 00 	n0t0r0o0l0S0e0t0
  0x34d0	5c 00 53 00 65 00 72 00 76 00 69 00 63 00 65 00 	00S0e0r0v0i0c0e0
  0x34e0	73 00 5c 00 54 00 63 00 70 00 69 00 70 00 5c 00 	s000T0c0p0i0p000
  0x34f0	50 00 61 00 72 00 61 00 6d 00 65 00 74 00 65 00 	P0a0r0a0m0e0t0e0
  0x3500	72 00 73 00 00 00 00 00 49 00 50 00 41 00 64 00 	r0s00000I0P0A0d0
  0x3510	64 00 72 00 65 00 73 00 73 00 00 00 00 00 00 00 	d0r0e0s0s0000000
  0x3520	49 00 6e 00 74 00 65 00 72 00 66 00 61 00 63 00 	I0n0t0e0r0f0a0c0
  0x3530	65 00 73 00 00 00 00 00 45 00 6e 00 61 00 62 00 	e0s00000E0n0a0b0
  0x3540	6c 00 65 00 44 00 48 00 43 00 50 00 00 00 00 00 	l0e0D0H0C0P00000
  0x3550	49 00 63 00 73 00 55 00 70 00 67 00 72 00 61 00 	I0c0s0U0p0g0r0a0
  0x3560	64 00 65 00 45 00 76 00 65 00 6e 00 74 00 4e 00 	d0e0E0v0e0n0t0N0
  0x3570	61 00 6d 00 65 00 5f 00 00 00 00 00 00 00 00 00 	a0m0e0_000000000
  0x3580	53 00 75 00 62 00 6e 00 65 00 74 00 4d 00 61 00 	S0u0b0n0e0t0M0a0
  0x3590	73 00 6b 00 00 00 00 00 31 00 39 00 32 00 2e 00 	s0k00000109020.0
  0x35a0	31 00 36 00 38 00 2e 00 31 00 33 00 37 00 2e 00 	106080.0103070.0
  0x35b0	31 00 00 00 00 00 00 00 6f 8b d1 85 32 30 d4 11 	10000000o0002000
  0x35c0	93 48 00 c0 4f 8e eb 71 d1 6a 12 ba 66 21 d1 11 	0H00O00q0j00f!00
  0x35d0	b1 d0 00 80 5f c1 27 0e aa 66 c1 46 08 31 d4 11 	0000_0'00f0F0100
  0x35e0	93 48 00 c0 4f 8e eb 71 6c 8b d1 85 32 30 d4 11 	0H00O00ql0002000
  0x35f0	93 48 00 c0 4f 8e eb 71 a2 56 89 c0 d3 1c d1 11 	0H00O00q0V000000
  0x3600	b1 c5 00 80 5f c1 27 0e 00 00 00 00 00 00 00 00 	0000_0'000000000
  0x3610	c0 00 00 00 00 00 00 46 00 00 00 00 00 00 00 00 	0000000F00000000
  0x3620	00 00 00 00 0c b3 5d 15 00 00 00 00 02 00 00 00 	000000]000000000
  0x3630	28 00 00 00 74 36 00 00 74 24 00 00 00 00 00 00 	(000t600t$000000
  0x3640	0c b3 5d 15 00 00 00 00 0d 00 00 00 f0 01 00 00 	00]0000000000000
  0x3650	9c 36 00 00 9c 24 00 00 00 00 00 00 0c b3 5d 15 	06000$00000000]0
  0x3660	00 00 00 00 10 00 00 00 24 00 00 00 8c 38 00 00 	00000000$0000800
  0x3670	8c 26 00 00 52 53 44 53 56 2d 2b 20 a1 50 90 1b 	0&00RSDSV-+ 0P00
  0x3680	90 7b 54 6e 2b 0c 75 ba 01 00 00 00 69 63 73 75 	0{Tn+0u00000icsu
  0x3690	6e 61 74 74 65 6e 64 2e 70 64 62 00 47 43 54 4c 	nattend.pdb0GCTL
  0x36a0	00 10 00 00 90 18 00 00 2e 74 65 78 74 24 6d 6e 	00000000.text$mn
  0x36b0	00 00 00 00 90 28 00 00 20 00 00 00 2e 74 65 78 	00000(00 000.tex
  0x36c0	74 24 6d 6e 24 30 30 00 b0 28 00 00 50 00 00 00 	t$mn$0000(00P000
  0x36d0	2e 74 65 78 74 24 78 00 00 30 00 00 28 01 00 00 	.text$x00000(000
  0x36e0	2e 72 64 61 74 61 24 62 72 63 00 00 28 31 00 00 	.rdata$brc00(100
  0x36f0	d0 01 00 00 2e 69 64 61 74 61 24 35 00 00 00 00 	0000.idata$50000
  0x3700	f8 32 00 00 10 00 00 00 2e 30 30 63 66 67 00 00 	02000000.00cfg00
  0x3710	08 33 00 00 08 00 00 00 2e 43 52 54 24 58 43 41 	03000000.CRT$XCA
  0x3720	00 00 00 00 10 33 00 00 08 00 00 00 2e 43 52 54 	000003000000.CRT
  0x3730	24 58 43 41 41 00 00 00 18 33 00 00 08 00 00 00 	$XCAA00003000000
  0x3740	2e 43 52 54 24 58 43 5a 00 00 00 00 20 33 00 00 	.CRT$XCZ0000 300
  0x3750	08 00 00 00 2e 43 52 54 24 58 49 41 00 00 00 00 	0000.CRT$XIA0000
  0x3760	28 33 00 00 08 00 00 00 2e 43 52 54 24 58 49 41 	(3000000.CRT$XIA
  0x3770	41 00 00 00 30 33 00 00 08 00 00 00 2e 43 52 54 	A00003000000.CRT
  0x3780	24 58 49 59 00 00 00 00 38 33 00 00 08 00 00 00 	$XIY000083000000
  0x3790	2e 43 52 54 24 58 49 5a 00 00 00 00 40 33 00 00 	.CRT$XIZ0000@300
  0x37a0	20 00 00 00 2e 67 66 69 64 73 00 00 60 33 00 00 	 000.gfids00`300
  0x37b0	14 03 00 00 2e 72 64 61 74 61 00 00 74 36 00 00 	0000.rdata00t600
  0x37c0	3c 02 00 00 2e 72 64 61 74 61 24 7a 7a 7a 64 62 	<000.rdata$zzzdb
  0x37d0	67 00 00 00 b0 38 00 00 60 01 00 00 2e 78 64 61 	g0000800`000.xda
  0x37e0	74 61 00 00 10 3a 00 00 04 01 00 00 2e 69 64 61 	ta000:000000.ida
  0x37f0	74 61 24 32 00 00 00 00 14 3b 00 00 14 00 00 00 	ta$200000;000000
  0x3800	2e 69 64 61 74 61 24 33 00 00 00 00 28 3b 00 00 	.idata$30000(;00
  0x3810	d0 01 00 00 2e 69 64 61 74 61 24 34 00 00 00 00 	0000.idata$40000
  0x3820	f8 3c 00 00 c0 04 00 00 2e 69 64 61 74 61 24 36 	0<000000.idata$6
  0x3830	00 00 00 00 00 50 00 00 20 00 00 00 2e 64 61 74 	00000P00 000.dat
  0x3840	61 00 00 00 20 50 00 00 58 06 00 00 2e 62 73 73 	a000 P00X000.bss
  0x3850	00 00 00 00 00 60 00 00 5c 01 00 00 2e 70 64 61 	00000`000000.pda
  0x3860	74 61 00 00 00 70 00 00 a0 00 00 00 2e 72 73 72 	ta000p000000.rsr
  0x3870	63 24 30 31 00 00 00 00 a0 70 00 00 58 06 00 00 	c$0100000p00X000
  0x3880	2e 72 73 72 63 24 30 32 00 00 00 00 20 00 00 00 	.rsrc$020000 000
  0x3890	56 2d 2b 20 a1 50 90 1b 90 7b 54 6e 2b 0c 75 ba 	V-+ 0P000{Tn+0u0
  0x38a0	69 48 5c 9d 76 6c 4f f1 1d 6f 5d 31 0c b3 5d 15 	iH00vlO00o]100]0
  0x38b0	01 12 06 00 12 74 10 00 12 34 0f 00 12 b2 0b 50 	00000t000400000P
  0x38c0	01 13 08 00 13 34 0c 00 13 52 0c f0 0a e0 08 70 	000004000R00000p
  0x38d0	07 60 06 50 19 19 02 00 07 01 91 00 f8 27 00 00 	0`0P000000000'00
  0x38e0	70 04 00 00 01 14 09 00 14 82 0d f0 0b e0 09 d0 	p000000000000000
  0x38f0	07 c0 05 70 04 60 03 30 02 50 00 00 01 0b 06 00 	000p0`000P000000
  0x3900	0b 52 07 e0 05 70 04 60 03 50 02 30 01 0f 06 00 	0R000p0`0P000000
  0x3910	0f 64 0b 00 0f 34 0a 00 0f 52 0b 70 01 1a 08 00 	0d0004000R0p0000
  0x3920	1a 64 0d 00 1a 34 0b 00 1a 52 13 e0 11 70 10 50 	0d0004000R000p0P
  0x3930	01 06 02 00 06 52 02 30 01 08 02 00 08 72 04 30 	00000R0000000r00
  0x3940	01 0a 02 00 0a 32 06 30 01 0a 04 00 0a 34 06 00 	0000020000000400
  0x3950	0a 32 06 70 01 04 01 00 04 42 00 00 01 04 01 00 	020p00000B000000
  0x3960	04 62 00 00 09 15 08 00 15 74 0a 00 15 64 09 00 	0b0000000t000d00
  0x3970	15 34 08 00 15 52 11 f0 0a 26 00 00 01 00 00 00 	04000R000&000000
  0x3980	d5 20 00 00 3b 22 00 00 b0 28 00 00 3b 22 00 00 	0 00;"000(00;"00
  0x3990	01 06 02 00 06 32 02 50 01 00 00 00 09 04 01 00 	0000020P00000000
  0x39a0	04 22 00 00 0a 26 00 00 01 00 00 00 8c 23 00 00 	0"000&0000000#00
  0x39b0	c2 23 00 00 01 00 00 00 c2 23 00 00 01 06 02 00 	0#0000000#000000
  0x39c0	06 32 02 30 09 0a 04 00 0a 34 06 00 0a 32 06 70 	020000000400020p
  0x39d0	0a 26 00 00 01 00 00 00 9d 24 00 00 d0 24 00 00 	0&0000000$000$00
  0x39e0	e0 28 00 00 d0 24 00 00 01 0d 04 00 0d 34 09 00 	0(000$0000000400
  0x39f0	0d 32 06 50 01 0c 02 00 0c 01 11 00 00 00 00 00 	020P000000000000
  0x3a00	01 00 00 00 01 02 01 00 02 30 00 00 00 00 00 00 	0000000000000000
  0x3a10	60 3c 00 00 00 00 00 00 00 00 00 00 ca 3d 00 00 	`<00000000000=00
  0x3a20	60 32 00 00 d0 3b 00 00 00 00 00 00 00 00 00 00 	`2000;0000000000
  0x3a30	e8 3f 00 00 d0 31 00 00 28 3b 00 00 00 00 00 00 	0?000100(;000000
  0x3a40	00 00 00 00 0c 40 00 00 28 31 00 00 18 3c 00 00 	00000@00(1000<00
  0x3a50	00 00 00 00 00 00 00 00 2c 40 00 00 18 32 00 00 	00000000,@000200
  0x3a60	58 3b 00 00 00 00 00 00 00 00 00 00 4e 40 00 00 	X;0000000000N@00
  0x3a70	58 31 00 00 78 3b 00 00 00 00 00 00 00 00 00 00 	X100x;0000000000
  0x3a80	78 40 00 00 78 31 00 00 28 3c 00 00 00 00 00 00 	x@00x100(<000000
  0x3a90	00 00 00 00 9a 40 00 00 28 32 00 00 88 3b 00 00 	00000@00(2000;00
  0x3aa0	00 00 00 00 00 00 00 00 bc 40 00 00 88 31 00 00 	000000000@000100
  0x3ab0	c0 3b 00 00 00 00 00 00 00 00 00 00 e6 40 00 00 	0;00000000000@00
  0x3ac0	c0 31 00 00 98 3b 00 00 00 00 00 00 00 00 00 00 	01000;0000000000
  0x3ad0	0a 41 00 00 98 31 00 00 38 3c 00 00 00 00 00 00 	0A0001008<000000
  0x3ae0	00 00 00 00 34 41 00 00 38 32 00 00 f8 3b 00 00 	00004A0082000;00
  0x3af0	00 00 00 00 00 00 00 00 58 41 00 00 f8 31 00 00 	00000000XA000100
  0x3b00	50 3c 00 00 00 00 00 00 00 00 00 00 8e 41 00 00 	P<00000000000A00
  0x3b10	50 32 00 00 00 00 00 00 00 00 00 00 00 00 00 00 	P200000000000000
  0x3b20	00 00 00 00 00 00 00 00 a4 3e 00 00 00 00 00 00 	000000000>000000
  0x3b30	2e 3e 00 00 00 00 00 00 40 3e 00 00 00 00 00 00 	.>000000@>000000
  0x3b40	54 3e 00 00 00 00 00 00 0e 3e 00 00 00 00 00 00 	T>0000000>000000
  0x3b50	00 00 00 00 00 00 00 00 a4 3f 00 00 00 00 00 00 	000000000?000000
  0x3b60	74 3e 00 00 00 00 00 00 c0 3e 00 00 00 00 00 00 	t>0000000>000000
  0x3b70	00 00 00 00 00 00 00 00 84 3e 00 00 00 00 00 00 	000000000>000000
  0x3b80	00 00 00 00 00 00 00 00 de 3e 00 00 00 00 00 00 	000000000>000000
  0x3b90	00 00 00 00 00 00 00 00 22 3f 00 00 00 00 00 00 	00000000"?000000
  0x3ba0	0c 3f 00 00 00 00 00 00 c0 3f 00 00 00 00 00 00 	0?0000000?000000
  0x3bb0	d4 3f 00 00 00 00 00 00 00 00 00 00 00 00 00 00 	0?00000000000000
  0x3bc0	f2 3e 00 00 00 00 00 00 00 00 00 00 00 00 00 00 	0>00000000000000
  0x3bd0	20 3e 00 00 00 00 00 00 ea 3d 00 00 00 00 00 00 	 >0000000=000000
  0x3be0	fe 3d 00 00 00 00 00 00 92 3e 00 00 00 00 00 00 	0=0000000>000000
  0x3bf0	00 00 00 00 00 00 00 00 62 3f 00 00 00 00 00 00 	00000000b?000000
  0x3c00	76 3f 00 00 00 00 00 00 90 3f 00 00 00 00 00 00 	v?0000000?000000
  0x3c10	00 00 00 00 00 00 00 00 64 3e 00 00 00 00 00 00 	00000000d>000000
  0x3c20	00 00 00 00 00 00 00 00 b8 3e 00 00 00 00 00 00 	000000000>000000
  0x3c30	00 00 00 00 00 00 00 00 38 3f 00 00 00 00 00 00 	000000008?000000
  0x3c40	52 3f 00 00 00 00 00 00 00 00 00 00 00 00 00 00 	R?00000000000000
  0x3c50	7e 41 00 00 00 00 00 00 00 00 00 00 00 00 00 00 	~A00000000000000
  0x3c60	f8 3c 00 00 00 00 00 00 40 3d 00 00 00 00 00 00 	0<000000@=000000
  0x3c70	50 3d 00 00 00 00 00 00 62 3d 00 00 00 00 00 00 	P=000000b=000000
  0x3c80	6a 3d 00 00 00 00 00 00 72 3d 00 00 00 00 00 00 	j=000000r=000000
  0x3c90	18 3d 00 00 00 00 00 00 32 3d 00 00 00 00 00 00 	0=0000002=000000
  0x3ca0	0e 3d 00 00 00 00 00 00 06 3d 00 00 00 00 00 00 	0=0000000=000000
  0x3cb0	d6 3d 00 00 00 00 00 00 be 3d 00 00 00 00 00 00 	0=0000000=000000
  0x3cc0	b4 3d 00 00 00 00 00 00 9c 3d 00 00 00 00 00 00 	0=0000000=000000
  0x3cd0	90 3d 00 00 00 00 00 00 24 3d 00 00 00 00 00 00 	0=000000$=000000
  0x3ce0	7c 3d 00 00 00 00 00 00 ae 41 00 00 00 00 00 00 	|=0000000A000000
  0x3cf0	00 00 00 00 00 00 00 00 dc 04 73 77 70 72 69 6e 	0000000000swprin
  0x3d00	74 66 5f 73 00 00 4c 04 66 72 65 65 00 00 86 04 	tf_s00L0free0000
  0x3d10	6d 61 6c 6c 6f 63 00 00 bf 00 5f 63 61 6c 6c 6e 	malloc0000_calln
  0x3d20	65 77 68 00 55 00 5f 58 63 70 74 46 69 6c 74 65 	ewh0U0_XcptFilte
  0x3d30	72 00 ae 00 5f 61 6d 73 67 5f 65 78 69 74 00 00 	r000_amsg_exit00
  0x3d40	7f 00 5f 5f 67 65 74 6d 61 69 6e 61 72 67 73 00 	00__getmainargs0
  0x3d50	8e 00 5f 5f 73 65 74 5f 61 70 70 5f 74 79 70 65 	00__set_app_type
  0x3d60	00 00 32 04 65 78 69 74 00 00 0e 01 5f 65 78 69 	0020exit0000_exi
  0x3d70	74 00 c1 00 5f 63 65 78 69 74 00 00 90 00 5f 5f 	t000_cexit0000__
  0x3d80	73 65 74 75 73 65 72 6d 61 74 68 65 72 72 00 00 	setusermatherr00
  0x3d90	7d 01 5f 69 6e 69 74 74 65 72 6d 00 57 00 5f 5f 	}0_initterm0W0__
  0x3da0	43 5f 73 70 65 63 69 66 69 63 5f 68 61 6e 64 6c 	C_specific_handl
  0x3db0	65 72 00 00 27 01 5f 66 6d 6f 64 65 00 00 d2 00 	er00'0_fmode0000
  0x3dc0	5f 63 6f 6d 6d 6f 64 65 00 00 6d 73 76 63 72 74 	_commode00msvcrt
  0x3dd0	2e 64 6c 6c 00 00 2f 00 3f 74 65 72 6d 69 6e 61 	.dll00/0?termina
  0x3de0	74 65 40 40 59 41 58 58 5a 00 25 00 52 65 67 51 	te@@YAXXZ0%0RegQ
  0x3df0	75 65 72 79 56 61 6c 75 65 45 78 57 00 00 1e 00 	ueryValueExW0000
  0x3e00	52 65 67 4f 70 65 6e 4b 65 79 45 78 57 00 02 00 	RegOpenKeyExW000
  0x3e10	43 4c 53 49 44 46 72 6f 6d 53 74 72 69 6e 67 00 	CLSIDFromString0
  0x3e20	00 00 52 65 67 43 6c 6f 73 65 4b 65 79 00 53 00 	00RegCloseKey0S0
  0x3e30	53 74 72 69 6e 67 46 72 6f 6d 43 4c 53 49 44 00 	StringFromCLSID0
  0x3e40	09 00 43 6f 43 72 65 61 74 65 49 6e 73 74 61 6e 	00CoCreateInstan
  0x3e50	63 65 00 00 43 00 43 6f 54 61 73 6b 4d 65 6d 46 	ce00C0CoTaskMemF
  0x3e60	72 65 65 00 06 00 43 72 65 61 74 65 45 76 65 6e 	ree000CreateEven
  0x3e70	74 57 00 00 05 00 47 65 74 4c 61 73 74 45 72 72 	tW0000GetLastErr
  0x3e80	6f 72 00 00 00 00 43 6c 6f 73 65 48 61 6e 64 6c 	or0000CloseHandl
  0x3e90	65 00 2e 00 52 65 67 53 65 74 56 61 6c 75 65 45 	e0.0RegSetValueE
  0x3ea0	78 57 00 00 3f 00 43 6f 53 65 74 50 72 6f 78 79 	xW00?0CoSetProxy
  0x3eb0	42 6c 61 6e 6b 65 74 00 2d 00 53 6c 65 65 70 00 	Blanket0-0Sleep0
  0x3ec0	0f 00 53 65 74 55 6e 68 61 6e 64 6c 65 64 45 78 	00SetUnhandledEx
  0x3ed0	63 65 70 74 69 6f 6e 46 69 6c 74 65 72 00 14 00 	ceptionFilter000
  0x3ee0	47 65 74 4d 6f 64 75 6c 65 48 61 6e 64 6c 65 57 	GetModuleHandleW
  0x3ef0	00 00 00 00 51 75 65 72 79 50 65 72 66 6f 72 6d 	0000QueryPerform
  0x3f00	61 6e 63 65 43 6f 75 6e 74 65 72 00 0d 00 47 65 	anceCounter000Ge
  0x3f10	74 43 75 72 72 65 6e 74 50 72 6f 63 65 73 73 49 	tCurrentProcessI
  0x3f20	64 00 11 00 47 65 74 43 75 72 72 65 6e 74 54 68 	d000GetCurrentTh
  0x3f30	72 65 61 64 49 64 00 00 16 00 47 65 74 53 79 73 	readId0000GetSys
  0x3f40	74 65 6d 54 69 6d 65 41 73 46 69 6c 65 54 69 6d 	temTimeAsFileTim
  0x3f50	65 00 1a 00 47 65 74 54 69 63 6b 43 6f 75 6e 74 	e000GetTickCount
  0x3f60	00 00 02 00 52 74 6c 43 61 70 74 75 72 65 43 6f 	0000RtlCaptureCo
  0x3f70	6e 74 65 78 74 00 0a 00 52 74 6c 4c 6f 6f 6b 75 	ntext000RtlLooku
  0x3f80	70 46 75 6e 63 74 69 6f 6e 45 6e 74 72 79 00 00 	pFunctionEntry00
  0x3f90	10 00 52 74 6c 56 69 72 74 75 61 6c 55 6e 77 69 	00RtlVirtualUnwi
  0x3fa0	6e 64 00 00 11 00 55 6e 68 61 6e 64 6c 65 64 45 	nd0000UnhandledE
  0x3fb0	78 63 65 70 74 69 6f 6e 46 69 6c 74 65 72 00 00 	xceptionFilter00
  0x3fc0	0c 00 47 65 74 43 75 72 72 65 6e 74 50 72 6f 63 	00GetCurrentProc
  0x3fd0	65 73 73 00 4e 00 54 65 72 6d 69 6e 61 74 65 50 	ess0N0TerminateP
  0x3fe0	72 6f 63 65 73 73 00 00 61 70 69 2d 6d 73 2d 77 	rocess00api-ms-w
  0x3ff0	69 6e 2d 63 6f 72 65 2d 72 65 67 69 73 74 72 79 	in-core-registry
  0x4000	2d 6c 31 2d 31 2d 30 2e 64 6c 6c 00 61 70 69 2d 	-l1-1-0.dll0api-
  0x4010	6d 73 2d 77 69 6e 2d 63 6f 72 65 2d 63 6f 6d 2d 	ms-win-core-com-
  0x4020	6c 31 2d 31 2d 30 2e 64 6c 6c 00 00 61 70 69 2d 	l1-1-0.dll00api-
  0x4030	6d 73 2d 77 69 6e 2d 63 6f 72 65 2d 73 79 6e 63 	ms-win-core-sync
  0x4040	68 2d 6c 31 2d 31 2d 30 2e 64 6c 6c 00 00 61 70 	h-l1-1-0.dll00ap
  0x4050	69 2d 6d 73 2d 77 69 6e 2d 63 6f 72 65 2d 65 72 	i-ms-win-core-er
  0x4060	72 6f 72 68 61 6e 64 6c 69 6e 67 2d 6c 31 2d 31 	rorhandling-l1-1
  0x4070	2d 30 2e 64 6c 6c 00 00 61 70 69 2d 6d 73 2d 77 	-0.dll00api-ms-w
  0x4080	69 6e 2d 63 6f 72 65 2d 68 61 6e 64 6c 65 2d 6c 	in-core-handle-l
  0x4090	31 2d 31 2d 30 2e 64 6c 6c 00 61 70 69 2d 6d 73 	1-1-0.dll0api-ms
  0x40a0	2d 77 69 6e 2d 63 6f 72 65 2d 73 79 6e 63 68 2d 	-win-core-synch-
  0x40b0	6c 31 2d 32 2d 30 2e 64 6c 6c 00 00 61 70 69 2d 	l1-2-0.dll00api-
  0x40c0	6d 73 2d 77 69 6e 2d 63 6f 72 65 2d 6c 69 62 72 	ms-win-core-libr
  0x40d0	61 72 79 6c 6f 61 64 65 72 2d 6c 31 2d 32 2d 30 	aryloader-l1-2-0
  0x40e0	2e 64 6c 6c 00 00 61 70 69 2d 6d 73 2d 77 69 6e 	.dll00api-ms-win
  0x40f0	2d 63 6f 72 65 2d 70 72 6f 66 69 6c 65 2d 6c 31 	-core-profile-l1
  0x4100	2d 31 2d 30 2e 64 6c 6c 00 00 61 70 69 2d 6d 73 	-1-0.dll00api-ms
  0x4110	2d 77 69 6e 2d 63 6f 72 65 2d 70 72 6f 63 65 73 	-win-core-proces
  0x4120	73 74 68 72 65 61 64 73 2d 6c 31 2d 31 2d 30 2e 	sthreads-l1-1-0.
  0x4130	64 6c 6c 00 61 70 69 2d 6d 73 2d 77 69 6e 2d 63 	dll0api-ms-win-c
  0x4140	6f 72 65 2d 73 79 73 69 6e 66 6f 2d 6c 31 2d 31 	ore-sysinfo-l1-1
  0x4150	2d 30 2e 64 6c 6c 00 00 61 70 69 2d 6d 73 2d 77 	-0.dll00api-ms-w
  0x4160	69 6e 2d 63 6f 72 65 2d 72 74 6c 73 75 70 70 6f 	in-core-rtlsuppo
  0x4170	72 74 2d 6c 31 2d 31 2d 30 2e 64 6c 6c 00 01 00 	rt-l1-1-0.dll000
  0x4180	43 6f 49 6e 69 74 69 61 6c 69 7a 65 00 00 61 70 	CoInitialize00ap
  0x4190	69 2d 6d 73 2d 77 69 6e 2d 6f 6c 65 33 32 2d 69 	i-ms-win-ole32-i
  0x41a0	65 2d 6c 31 2d 31 2d 30 2e 64 6c 6c 00 00 96 04 	e-l1-1-0.dll0000
  0x41b0	6d 65 6d 73 65 74 00 00 00 00 00 00 00 00 00 00 	memset0000000000
  0x41c0	00 00 00 00 00 00 00 00 00 00 00 00 00 00 00 00 	0000000000000000
  0x41d0	00 00 00 00 00 00 00 00 00 00 00 00 00 00 00 00 	0000000000000000
  0x41e0	00 00 00 00 00 00 00 00 00 00 00 00 00 00 00 00 	0000000000000000
  0x41f0	00 00 00 00 00 00 00 00 00 00 00 00 00 00 00 00 	0000000000000000
=== DATA BLOCK END ===

=== DATA BLOCK ADDRESS 0x5000 ===
  0x5000	01 00 00 00 00 00 00 00 32 a2 df 2d 99 2b 00 00 	00000000200-0+00
  0x5010	cd 5d 20 d2 66 d4 ff ff 00 00 00 00 00 00 00 00 	0] 0f00000000000
  0x5020	00 00 00 00 00 00 00 00 00 00 00 00 00 00 00 00 	0000000000000000
  0x5030	00 00 00 00 00 00 00 00 00 00 00 00 00 00 00 00 	0000000000000000
  0x5040	00 00 00 00 00 00 00 00 00 00 00 00 00 00 00 00 	0000000000000000
  0x5050	00 00 00 00 00 00 00 00 00 00 00 00 00 00 00 00 	0000000000000000
  0x5060	00 00 00 00 00 00 00 00 00 00 00 00 00 00 00 00 	0000000000000000
  0x5070	00 00 00 00 00 00 00 00 00 00 00 00 00 00 00 00 	0000000000000000
  0x5080	00 00 00 00 00 00 00 00 00 00 00 00 00 00 00 00 	0000000000000000
  0x5090	00 00 00 00 00 00 00 00 00 00 00 00 00 00 00 00 	0000000000000000
  0x50a0	00 00 00 00 00 00 00 00 00 00 00 00 00 00 00 00 	0000000000000000
  0x50b0	00 00 00 00 00 00 00 00 00 00 00 00 00 00 00 00 	0000000000000000
  0x50c0	00 00 00 00 00 00 00 00 00 00 00 00 00 00 00 00 	0000000000000000
  0x50d0	00 00 00 00 00 00 00 00 00 00 00 00 00 00 00 00 	0000000000000000
  0x50e0	00 00 00 00 00 00 00 00 00 00 00 00 00 00 00 00 	0000000000000000
  0x50f0	00 00 00 00 00 00 00 00 00 00 00 00 00 00 00 00 	0000000000000000
  0x5100	00 00 00 00 00 00 00 00 00 00 00 00 00 00 00 00 	0000000000000000
  0x5110	00 00 00 00 00 00 00 00 00 00 00 00 00 00 00 00 	0000000000000000
  0x5120	00 00 00 00 00 00 00 00 00 00 00 00 00 00 00 00 	0000000000000000
  0x5130	00 00 00 00 00 00 00 00 00 00 00 00 00 00 00 00 	0000000000000000
  0x5140	00 00 00 00 00 00 00 00 00 00 00 00 00 00 00 00 	0000000000000000
  0x5150	00 00 00 00 00 00 00 00 00 00 00 00 00 00 00 00 	0000000000000000
  0x5160	00 00 00 00 00 00 00 00 00 00 00 00 00 00 00 00 	0000000000000000
  0x5170	00 00 00 00 00 00 00 00 00 00 00 00 00 00 00 00 	0000000000000000
  0x5180	00 00 00 00 00 00 00 00 00 00 00 00 00 00 00 00 	0000000000000000
  0x5190	00 00 00 00 00 00 00 00 00 00 00 00 00 00 00 00 	0000000000000000
  0x51a0	00 00 00 00 00 00 00 00 00 00 00 00 00 00 00 00 	0000000000000000
  0x51b0	00 00 00 00 00 00 00 00 00 00 00 00 00 00 00 00 	0000000000000000
  0x51c0	00 00 00 00 00 00 00 00 00 00 00 00 00 00 00 00 	0000000000000000
  0x51d0	00 00 00 00 00 00 00 00 00 00 00 00 00 00 00 00 	0000000000000000
  0x51e0	00 00 00 00 00 00 00 00 00 00 00 00 00 00 00 00 	0000000000000000
  0x51f0	00 00 00 00 00 00 00 00 00 00 00 00 00 00 00 00 	0000000000000000
=== DATA BLOCK END ===

=== DATA BLOCK ADDRESS 0x6000 ===
  0x6000	08 10 00 00 90 11 00 00 b0 38 00 00 98 11 00 00 	0000000008000000
  0x6010	3c 14 00 00 c0 38 00 00 44 14 00 00 a5 14 00 00 	<0000800D0000000
  0x6020	d4 38 00 00 ac 14 00 00 c1 19 00 00 e4 38 00 00 	0800000000000800
  0x6030	c8 19 00 00 c3 1a 00 00 fc 38 00 00 cc 1a 00 00 	0000000008000000
  0x6040	e8 1b 00 00 0c 39 00 00 f0 1b 00 00 a6 1d 00 00 	0000090000000000
  0x6050	1c 39 00 00 ac 1d 00 00 1a 1e 00 00 30 39 00 00 	0900000000000900
  0x6060	20 1e 00 00 d0 1e 00 00 38 39 00 00 d8 1e 00 00 	 000000089000000
  0x6070	1b 1f 00 00 40 39 00 00 48 1f 00 00 81 1f 00 00 	0000@900H0000000
  0x6080	48 39 00 00 90 1f 00 00 63 20 00 00 54 39 00 00 	H9000000c 00T900
  0x6090	70 20 00 00 b9 20 00 00 5c 39 00 00 c0 20 00 00 	p 000 0009000 00
  0x60a0	7e 22 00 00 64 39 00 00 90 22 00 00 a2 22 00 00 	~"00d9000"000"00
  0x60b0	54 39 00 00 c0 22 00 00 de 22 00 00 98 39 00 00 	T9000"000"000900
  0x60c0	10 23 00 00 49 23 00 00 54 39 00 00 50 23 00 00 	0#00I#00T900P#00
  0x60d0	68 23 00 00 54 39 00 00 7c 23 00 00 d0 23 00 00 	h#00T900|#000#00
  0x60e0	9c 39 00 00 d8 23 00 00 1d 24 00 00 bc 39 00 00 	09000#000$000900
  0x60f0	90 24 00 00 dd 24 00 00 c4 39 00 00 24 25 00 00 	0$000$000900$%00
  0x6100	f8 25 00 00 e8 39 00 00 2c 26 00 00 60 26 00 00 	0%000900,&00`&00
  0x6110	bc 39 00 00 70 26 00 00 e1 27 00 00 f4 39 00 00 	0900p&000'000900
  0x6120	f8 27 00 00 15 28 00 00 54 39 00 00 1c 28 00 00 	0'000(00T9000(00
  0x6130	77 28 00 00 04 3a 00 00 a0 28 00 00 a2 28 00 00 	w(000:000(000(00
  0x6140	00 3a 00 00 b0 28 00 00 ce 28 00 00 90 39 00 00 	0:000(000(000900
  0x6150	e0 28 00 00 00 29 00 00 90 39 00 00 00 00 00 00 	0(000)0009000000
  0x6160	00 00 00 00 00 00 00 00 00 00 00 00 00 00 00 00 	0000000000000000
  0x6170	00 00 00 00 00 00 00 00 00 00 00 00 00 00 00 00 	0000000000000000
  0x6180	00 00 00 00 00 00 00 00 00 00 00 00 00 00 00 00 	0000000000000000
  0x6190	00 00 00 00 00 00 00 00 00 00 00 00 00 00 00 00 	0000000000000000
  0x61a0	00 00 00 00 00 00 00 00 00 00 00 00 00 00 00 00 	0000000000000000
  0x61b0	00 00 00 00 00 00 00 00 00 00 00 00 00 00 00 00 	0000000000000000
  0x61c0	00 00 00 00 00 00 00 00 00 00 00 00 00 00 00 00 	0000000000000000
  0x61d0	00 00 00 00 00 00 00 00 00 00 00 00 00 00 00 00 	0000000000000000
  0x61e0	00 00 00 00 00 00 00 00 00 00 00 00 00 00 00 00 	0000000000000000
  0x61f0	00 00 00 00 00 00 00 00 00 00 00 00 00 00 00 00 	0000000000000000
=== DATA BLOCK END ===
