===== Assembly blocks =====

=== CODE BLOCK ADDRESS 0x1000 ===
  0x1000	int3   	
  0x1001	int3   	
  0x1002	int3   	
  0x1003	int3   	
  0x1004	int3   	
  === BLOCK LINK ===
    0x1005
=== CODE BLOCK END ===

=== CODE BLOCK ADDRESS 0x1005 ===
  0x1005	int3   	
  0x1006	int3   	
  0x1007	int3   	
  === BLOCK LINK ===
    0x1008
=== CODE BLOCK END ===

=== CODE BLOCK ADDRESS 0x100d ===
  0x100d	push   	ebp
  0x100e	push   	esi
  0x100f	push   	edi
  0x1010	inc    	ecx
  0x1011	push   	esi
  === BLOCK LINK ===
    0x1012
=== CODE BLOCK END ===

=== CODE BLOCK ADDRESS 0x1012 ===
  0x1012	inc    	ecx
  0x1013	push   	edi
  0x1014	dec    	eax
  0x1015	sub    	esp, 0x40
  0x1018	dec    	eax
  === BLOCK LINK ===
    0x1019
=== CODE BLOCK END ===

=== CODE BLOCK ADDRESS 0x1019 ===
  0x1019	mov    	ebp, ecx
  0x101b	mov    	ecx, 0xfffffff5
  0x1020	dec    	eax
  0x1021	call   	dword ptr [0x1109]
  === BLOCK LINK ===
    0x1027
=== CODE BLOCK END ===

=== CODE BLOCK ADDRESS 0x1027 ===
  0x1027	nop    	dword ptr [eax + eax]
  0x102c	dec    	eax
  0x102d	mov    	ecx, eax
  0x102f	dec    	eax
  0x1030	mov    	esi, eax
  === BLOCK LINK ===
    0x1032
=== CODE BLOCK END ===

=== CODE BLOCK ADDRESS 0x1032 ===
  0x1032	dec    	eax
  0x1033	call   	dword ptr [0x113f]
  === BLOCK LINK ===
    0x1039
=== CODE BLOCK END ===

=== CODE BLOCK ADDRESS 0x1039 ===
  0x1039	nop    	dword ptr [eax + eax]
  0x103e	xor    	ebx, ebx
  0x1040	test   	al, 2
  0x1042	je     	0x1091
  === BLOCK LINK ===
    0x1044
    0x1091
=== CODE BLOCK END ===

=== CODE BLOCK ADDRESS 0x1044 ===
  0x1044	dec    	eax
  0x1045	lea    	edx, [esp + 0x80]
  0x104c	dec    	eax
  0x104d	mov    	ecx, esi
  0x104f	dec    	eax
  === BLOCK LINK ===
    0x1050
=== CODE BLOCK END ===

=== CODE BLOCK ADDRESS 0x1050 ===
  0x1050	call   	dword ptr [0x10f2]
  === BLOCK LINK ===
    0x1056
=== CODE BLOCK END ===

=== CODE BLOCK ADDRESS 0x1056 ===
  0x1056	nop    	dword ptr [eax + eax]
  0x105b	test   	eax, eax
  0x105d	je     	0x1091
  === BLOCK LINK ===
    0x105f
    0x1091
=== CODE BLOCK END ===

=== CODE BLOCK ADDRESS 0x105f ===
  0x105f	dec    	eax
  0x1060	or     	edi, 0xffffffff
  === BLOCK LINK ===
    0x1063
=== CODE BLOCK END ===

=== CODE BLOCK ADDRESS 0x106b ===
  0x106b	jne    	0x1063
  === BLOCK LINK ===
    0x106d
    0x1063
=== CODE BLOCK END ===

=== CODE BLOCK ADDRESS 0x106d ===
  0x106d	dec    	esp
  0x106e	mov    	eax, edi
  0x1070	dec    	eax
  0x1071	mov    	dword ptr [esp + 0x20], ebx
  0x1075	dec    	esp
  === BLOCK LINK ===
    0x1076
=== CODE BLOCK END ===

=== CODE BLOCK ADDRESS 0x1076 ===
  0x1076	lea    	ecx, [esp + 0x78]
  0x107a	dec    	eax
  0x107b	mov    	edx, ebp
  0x107d	dec    	eax
  0x107e	mov    	ecx, esi
  === BLOCK LINK ===
    0x1080
=== CODE BLOCK END ===

=== CODE BLOCK ADDRESS 0x1080 ===
  0x1080	dec    	eax
  0x1081	call   	dword ptr [0x10d9]
  === BLOCK LINK ===
    0x1087
=== CODE BLOCK END ===

=== CODE BLOCK ADDRESS 0x1087 ===
  0x1087	nop    	dword ptr [eax + eax]
  0x108c	jmp    	0x114d
  === BLOCK LINK ===
    0x1091
    0x114d
=== CODE BLOCK END ===

=== CODE BLOCK ADDRESS 0x1091 ===
  0x1091	dec    	eax
  0x1092	call   	dword ptr [0x1090]
  === BLOCK LINK ===
    0x1098
=== CODE BLOCK END ===

=== CODE BLOCK ADDRESS 0x1098 ===
  0x1098	nop    	dword ptr [eax + eax]
  0x109d	dec    	eax
  0x109e	mov    	dword ptr [esp + 0x38], ebx
  0x10a2	dec    	eax
  0x10a3	or     	edi, 0xffffffff
  === BLOCK LINK ===
    0x10a6
=== CODE BLOCK END ===

=== CODE BLOCK ADDRESS 0x10a6 ===
  0x10a6	dec    	eax
  0x10a7	mov    	dword ptr [esp + 0x30], ebx
  0x10ab	mov    	ecx, eax
  0x10ad	mov    	dword ptr [esp + 0x28], ebx
  0x10b1	inc    	esp
  === BLOCK LINK ===
    0x10b2
=== CODE BLOCK END ===

=== CODE BLOCK ADDRESS 0x10b2 ===
  0x10b2	mov    	ecx, edi
  0x10b4	dec    	esp
  0x10b5	mov    	eax, ebp
  0x10b7	dec    	eax
  0x10b8	mov    	dword ptr [esp + 0x20], ebx
  === BLOCK LINK ===
    0x10bc
=== CODE BLOCK END ===

=== CODE BLOCK ADDRESS 0x10bc ===
  0x10bc	xor    	edx, edx
  0x10be	dec    	eax
  0x10bf	call   	dword ptr [0x10ab]
  === BLOCK LINK ===
    0x10c5
=== CODE BLOCK END ===

=== CODE BLOCK ADDRESS 0x10c5 ===
  0x10c5	nop    	dword ptr [eax + eax]
  0x10ca	dec    	esp
  0x10cb	arpl   	ax, di
  0x10cd	dec    	ecx
  0x10ce	mov    	ecx, edi
  === BLOCK LINK ===
    0x10d0
=== CODE BLOCK END ===

=== CODE BLOCK ADDRESS 0x10d0 ===
  0x10d0	dec    	eax
  0x10d1	call   	dword ptr [0x1181]
  === BLOCK LINK ===
    0x10d7
=== CODE BLOCK END ===

=== CODE BLOCK ADDRESS 0x10d7 ===
  0x10d7	nop    	dword ptr [eax + eax]
  0x10dc	dec    	esp
  0x10dd	mov    	esi, eax
  0x10df	dec    	eax
  0x10e0	test   	eax, eax
  === BLOCK LINK ===
    0x10e2
=== CODE BLOCK END ===

=== CODE BLOCK ADDRESS 0x10e2 ===
  0x10e2	je     	0x114b
  === BLOCK LINK ===
    0x10e4
    0x114b
=== CODE BLOCK END ===

=== CODE BLOCK ADDRESS 0x10e4 ===
  0x10e4	dec    	eax
  0x10e5	call   	dword ptr [0x103d]
  === BLOCK LINK ===
    0x10eb
=== CODE BLOCK END ===

=== CODE BLOCK ADDRESS 0x10eb ===
  0x10eb	nop    	dword ptr [eax + eax]
  0x10f0	dec    	eax
  0x10f1	mov    	dword ptr [esp + 0x38], ebx
  0x10f5	inc    	esp
  0x10f6	mov    	ecx, edi
  === BLOCK LINK ===
    0x10f8
=== CODE BLOCK END ===

=== CODE BLOCK ADDRESS 0x10f8 ===
  0x10f8	dec    	eax
  0x10f9	mov    	dword ptr [esp + 0x30], ebx
  0x10fd	mov    	ecx, eax
  0x10ff	inc    	esp
  0x1100	mov    	dword ptr [esp + 0x28], edi
  === BLOCK LINK ===
    0x1104
=== CODE BLOCK END ===

=== CODE BLOCK ADDRESS 0x1104 ===
  0x1104	dec    	esp
  0x1105	mov    	eax, ebp
  0x1107	xor    	edx, edx
  0x1109	dec    	esp
  0x110a	mov    	dword ptr [esp + 0x20], esi
  === BLOCK LINK ===
    0x110e
=== CODE BLOCK END ===

=== CODE BLOCK ADDRESS 0x110e ===
  0x110e	dec    	eax
  0x110f	call   	dword ptr [0x105b]
  === BLOCK LINK ===
    0x1115
=== CODE BLOCK END ===

=== CODE BLOCK ADDRESS 0x1115 ===
  0x1115	nop    	dword ptr [eax + eax]
  0x111a	inc    	ebp
  0x111b	lea    	eax, [edi - 1]
  0x111e	dec    	eax
  0x111f	mov    	dword ptr [esp + 0x20], ebx
  === BLOCK LINK ===
    0x1123
=== CODE BLOCK END ===

=== CODE BLOCK ADDRESS 0x1123 ===
  0x1123	dec    	esp
  0x1124	lea    	ecx, [esp + 0x78]
  0x1128	dec    	ecx
  0x1129	mov    	edx, esi
  0x112b	dec    	eax
  === BLOCK LINK ===
    0x112c
=== CODE BLOCK END ===

=== CODE BLOCK ADDRESS 0x112c ===
  0x112c	mov    	ecx, esi
  0x112e	dec    	eax
  0x112f	call   	dword ptr [0x1003]
  === BLOCK LINK ===
    0x1135
=== CODE BLOCK END ===

=== CODE BLOCK ADDRESS 0x1135 ===
  0x1135	nop    	dword ptr [eax + eax]
  0x113a	dec    	ecx
  0x113b	mov    	ecx, esi
  0x113d	mov    	ebx, eax
  0x113f	dec    	eax
  === BLOCK LINK ===
    0x1140
=== CODE BLOCK END ===

=== CODE BLOCK ADDRESS 0x1140 ===
  0x1140	call   	dword ptr [0x1122]
  === BLOCK LINK ===
    0x1146
=== CODE BLOCK END ===

=== CODE BLOCK ADDRESS 0x1146 ===
  0x1146	nop    	dword ptr [eax + eax]
  === BLOCK LINK ===
    0x114b
=== CODE BLOCK END ===

=== CODE BLOCK ADDRESS 0x1153 ===
  0x1153	add    	esp, 0x40
  0x1156	inc    	ecx
  0x1157	pop    	edi
  0x1158	inc    	ecx
  0x1159	pop    	esi
  === BLOCK LINK ===
    0x115a
=== CODE BLOCK END ===

=== CODE BLOCK ADDRESS 0x115a ===
  0x115a	pop    	edi
  0x115b	pop    	esi
  0x115c	pop    	ebp
  0x115d	ret    	
  0x115e	int3   	
  === BLOCK LINK ===
    0x115f
=== CODE BLOCK END ===

=== CODE BLOCK ADDRESS 0x115f ===
  0x115f	int3   	
  0x1160	int3   	
  0x1161	int3   	
  0x1162	int3   	
  0x1163	int3   	
  === BLOCK LINK ===
    0x1164
=== CODE BLOCK END ===

=== CODE BLOCK ADDRESS 0x1164 ===
  0x1164	int3   	
  0x1165	int3   	
  0x1166	int3   	
  0x1167	int3   	
  0x1168	mov    	dword ptr [esp + 8], ecx
  === BLOCK LINK ===
    0x116c
=== CODE BLOCK END ===

=== CODE BLOCK ADDRESS 0x116c ===
  0x116c	dec    	esp
  0x116d	mov    	ebx, esp
  0x116f	dec    	ecx
  0x1170	mov    	dword ptr [ebx + 0x10], edx
  0x1173	dec    	ebp
  === BLOCK LINK ===
    0x1174
=== CODE BLOCK END ===

=== CODE BLOCK ADDRESS 0x1174 ===
  0x1174	mov    	dword ptr [ebx + 0x18], eax
  0x1177	dec    	ebp
  0x1178	mov    	dword ptr [ebx + 0x20], ecx
  0x117b	dec    	eax
  0x117c	sub    	esp, 0x58
  === BLOCK LINK ===
    0x117f
=== CODE BLOCK END ===

=== CODE BLOCK ADDRESS 0x117f ===
  0x117f	dec    	ecx
  0x1180	and    	dword ptr [ebx - 0x18], 0
  0x1184	dec    	ecx
  0x1185	lea    	eax, [ebx + 0x10]
  0x1188	dec    	ecx
  === BLOCK LINK ===
    0x1189
=== CODE BLOCK END ===

=== CODE BLOCK ADDRESS 0x1189 ===
  0x1189	mov    	dword ptr [ebx - 0x10], eax
  0x118c	inc    	esp
  0x118d	mov    	eax, ecx
  0x118f	dec    	ecx
  0x1190	lea    	eax, [ebx - 0x10]
  === BLOCK LINK ===
    0x1193
=== CODE BLOCK END ===

=== CODE BLOCK ADDRESS 0x1193 ===
  0x1193	inc    	ebp
  0x1194	xor    	ecx, ecx
  0x1196	dec    	ecx
  0x1197	mov    	dword ptr [ebx - 0x28], eax
  0x119a	xor    	edx, edx
  === BLOCK LINK ===
    0x119c
=== CODE BLOCK END ===

=== CODE BLOCK ADDRESS 0x119c ===
  0x119c	and    	dword ptr [esp + 0x28], 0
  0x11a1	dec    	ecx
  0x11a2	lea    	eax, [ebx - 0x18]
  0x11a5	mov    	ecx, 0x1900
  0x11aa	dec    	ecx
  === BLOCK LINK ===
    0x11ab
=== CODE BLOCK END ===

=== CODE BLOCK ADDRESS 0x11ab ===
  0x11ab	mov    	dword ptr [ebx - 0x38], eax
  0x11ae	dec    	eax
  0x11af	call   	dword ptr [0xf9b]
  === BLOCK LINK ===
    0x11b5
=== CODE BLOCK END ===

=== CODE BLOCK ADDRESS 0x11b5 ===
  0x11b5	nop    	dword ptr [eax + eax]
  0x11ba	neg    	eax
  0x11bc	dec    	eax
  0x11bd	sbb    	eax, eax
  0x11bf	dec    	eax
  === BLOCK LINK ===
    0x11c0
=== CODE BLOCK END ===

=== CODE BLOCK ADDRESS 0x11c0 ===
  0x11c0	and    	eax, dword ptr [esp + 0x40]
  0x11c4	dec    	eax
  0x11c5	add    	esp, 0x58
  0x11c8	ret    	
  0x11c9	int3   	
  === BLOCK LINK ===
    0x11ca
=== CODE BLOCK END ===

=== CODE BLOCK ADDRESS 0x11ca ===
  0x11ca	int3   	
  0x11cb	int3   	
  0x11cc	int3   	
  0x11cd	int3   	
  0x11ce	int3   	
  === BLOCK LINK ===
    0x11cf
=== CODE BLOCK END ===

=== CODE BLOCK ADDRESS 0x11cf ===
  0x11cf	int3   	
  0x11d0	inc    	eax
  0x11d1	push   	ebx
  0x11d2	dec    	eax
  0x11d3	sub    	esp, 0x80
  === BLOCK LINK ===
    0x11d9
=== CODE BLOCK END ===

=== CODE BLOCK ADDRESS 0x11d9 ===
  0x11d9	dec    	eax
  0x11da	mov    	eax, dword ptr [0x1e28]
  0x11e0	dec    	eax
  0x11e1	xor    	eax, esp
  0x11e3	dec    	eax
  === BLOCK LINK ===
    0x11e4
=== CODE BLOCK END ===

=== CODE BLOCK ADDRESS 0x11e4 ===
  0x11e4	mov    	dword ptr [esp + 0x70], eax
  0x11e8	inc    	ecx
  0x11e9	mov    	eax, 0x10
  0x11ee	dec    	eax
  0x11ef	lea    	edx, [esp + 0x20]
  === BLOCK LINK ===
    0x11f3
=== CODE BLOCK END ===

=== CODE BLOCK ADDRESS 0x11f3 ===
  0x11f3	dec    	eax
  0x11f4	call   	dword ptr [0x108e]
  === BLOCK LINK ===
    0x11fa
=== CODE BLOCK END ===

=== CODE BLOCK ADDRESS 0x11fa ===
  0x11fa	nop    	dword ptr [eax + eax]
  0x11ff	dec    	esp
  0x1200	lea    	eax, [0x110a]
  0x1206	mov    	ecx, 0x13d
  0x120b	dec    	eax
  === BLOCK LINK ===
    0x120c
=== CODE BLOCK END ===

=== CODE BLOCK ADDRESS 0x120c ===
  0x120c	lea    	edx, [esp + 0x20]
  0x1210	call   	0x1168
  === BLOCK LINK ===
    0x1215
    0x1168
=== CODE BLOCK END ===

=== CODE BLOCK ADDRESS 0x1215 ===
  0x1215	dec    	eax
  0x1216	mov    	ebx, eax
  0x1218	dec    	eax
  0x1219	test   	eax, eax
  0x121b	jne    	0x122b
  === BLOCK LINK ===
    0x121d
    0x122b
=== CODE BLOCK END ===

=== CODE BLOCK ADDRESS 0x121d ===
  0x121d	dec    	eax
  0x121e	lea    	ecx, [0x110c]
  0x1224	call   	0x1008
  === BLOCK LINK ===
    0x1229
    0x1008
=== CODE BLOCK END ===

=== CODE BLOCK ADDRESS 0x1229 ===
  0x1229	jmp    	0x1242
  === BLOCK LINK ===
    0x122b
    0x1242
=== CODE BLOCK END ===

=== CODE BLOCK ADDRESS 0x122b ===
  0x122b	dec    	eax
  0x122c	mov    	ecx, ebx
  0x122e	call   	0x1008
  === BLOCK LINK ===
    0x1233
    0x1008
=== CODE BLOCK END ===

=== CODE BLOCK ADDRESS 0x1233 ===
  0x1233	dec    	eax
  0x1234	mov    	ecx, ebx
  0x1236	dec    	eax
  0x1237	call   	dword ptr [0xf2b]
  === BLOCK LINK ===
    0x123d
=== CODE BLOCK END ===

=== CODE BLOCK ADDRESS 0x123d ===
  0x123d	nop    	dword ptr [eax + eax]
  === BLOCK LINK ===
    0x1242
=== CODE BLOCK END ===

=== CODE BLOCK ADDRESS 0x124a ===
  0x124a	call   	0x1850
  === BLOCK LINK ===
    0x124f
    0x1850
=== CODE BLOCK END ===

=== CODE BLOCK ADDRESS 0x124f ===
  0x124f	dec    	eax
  0x1250	add    	esp, 0x80
  0x1256	pop    	ebx
  0x1257	ret    	
  0x1258	int3   	
  === BLOCK LINK ===
    0x1259
=== CODE BLOCK END ===

=== CODE BLOCK ADDRESS 0x1063 ===
  0x1063	dec    	eax
  0x1064	inc    	edi
  0x1066	cmp    	word ptr [ebp + edi*2], bx
  === BLOCK LINK ===
    0x106b
=== CODE BLOCK END ===

=== CODE BLOCK ADDRESS 0x1259 ===
  0x1259	int3   	
  0x125a	int3   	
  0x125b	int3   	
  0x125c	int3   	
  0x125d	int3   	
  === BLOCK LINK ===
    0x125e
=== CODE BLOCK END ===

=== CODE BLOCK ADDRESS 0x125e ===
  0x125e	int3   	
  0x125f	int3   	
  0x1260	dec    	eax
  0x1261	mov    	dword ptr [esp + 0x10], ebx
  0x1265	dec    	eax
  === BLOCK LINK ===
    0x1266
=== CODE BLOCK END ===

=== CODE BLOCK ADDRESS 0x1266 ===
  0x1266	mov    	dword ptr [esp + 0x18], ebp
  0x126a	push   	esi
  0x126b	push   	edi
  0x126c	inc    	ecx
  0x126d	push   	esp
  === BLOCK LINK ===
    0x126e
=== CODE BLOCK END ===

=== CODE BLOCK ADDRESS 0x126e ===
  0x126e	inc    	ecx
  0x126f	push   	esi
  0x1270	inc    	ecx
  0x1271	push   	edi
  0x1272	dec    	eax
  === BLOCK LINK ===
    0x1273
=== CODE BLOCK END ===

=== CODE BLOCK ADDRESS 0x1273 ===
  0x1273	sub    	esp, 0x240
  0x1279	dec    	eax
  0x127a	mov    	eax, dword ptr [0x1d88]
  0x1280	dec    	eax
  0x1281	xor    	eax, esp
  === BLOCK LINK ===
    0x1283
=== CODE BLOCK END ===

=== CODE BLOCK ADDRESS 0x1283 ===
  0x1283	dec    	eax
  0x1284	mov    	dword ptr [esp + 0x230], eax
  0x128b	dec    	eax
  0x128c	or     	ebp, 0xffffffff
  0x128f	dec    	esp
  === BLOCK LINK ===
    0x1290
=== CODE BLOCK END ===

=== CODE BLOCK ADDRESS 0x1290 ===
  0x1290	mov    	esi, ecx
  0x1292	inc    	ebp
  0x1293	xor    	esp, esp
  === BLOCK LINK ===
    0x1295
=== CODE BLOCK END ===

=== CODE BLOCK ADDRESS 0x1298 ===
  0x1298	inc    	sp
  0x129a	cmp    	dword ptr [ecx + ebp*2], esp
  0x129d	jne    	0x1295
  === BLOCK LINK ===
    0x129f
    0x1295
=== CODE BLOCK END ===

=== CODE BLOCK ADDRESS 0x129f ===
  0x129f	mov    	edi, 0x5a50
  0x12a4	mov    	esi, 1
  === BLOCK LINK ===
    0x12a9
=== CODE BLOCK END ===

=== CODE BLOCK ADDRESS 0x12ad ===
  0x12ad	lea    	eax, [0x1135]
  === BLOCK LINK ===
    0x12b3
=== CODE BLOCK END ===

=== CODE BLOCK ADDRESS 0x12b7 ===
  0x12b7	add    	ecx, esi
  0x12b9	dec    	eax
  0x12ba	add    	eax, 4
  0x12bd	cmp    	ecx, 2
  0x12c0	jb     	0x12b3
  === BLOCK LINK ===
    0x12c2
    0x12b3
=== CODE BLOCK END ===

=== CODE BLOCK ADDRESS 0x12c2 ===
  0x12c2	mov    	ecx, edi
  0x12c4	call   	0x1168
  === BLOCK LINK ===
    0x12c9
    0x1168
=== CODE BLOCK END ===

=== CODE BLOCK ADDRESS 0x12c9 ===
  0x12c9	dec    	eax
  0x12ca	mov    	ebx, eax
  0x12cc	dec    	eax
  0x12cd	test   	eax, eax
  0x12cf	je     	0x13bf
  === BLOCK LINK ===
    0x12d5
    0x13bf
=== CODE BLOCK END ===

=== CODE BLOCK ADDRESS 0x12d5 ===
  0x12d5	inc    	esp
  0x12d6	mov    	eax, ebp
  0x12d8	dec    	eax
  0x12d9	mov    	edx, eax
  0x12db	dec    	ecx
  === BLOCK LINK ===
    0x12dc
=== CODE BLOCK END ===

=== CODE BLOCK ADDRESS 0x12dc ===
  0x12dc	mov    	ecx, esi
  0x12de	inc    	esp
  0x12df	mov    	edi, ebp
  0x12e1	dec    	eax
  0x12e2	call   	dword ptr [0xf78]
  === BLOCK LINK ===
    0x12e8
=== CODE BLOCK END ===

=== CODE BLOCK ADDRESS 0x12e8 ===
  0x12e8	nop    	dword ptr [eax + eax]
  0x12ed	test   	eax, eax
  0x12ef	jne    	0x12f9
  === BLOCK LINK ===
    0x12f1
    0x12f9
=== CODE BLOCK END ===

=== CODE BLOCK ADDRESS 0x12f1 ===
  0x12f1	inc    	dx
  0x12f3	cmp    	dword ptr [ebx + edi*2], 0x20
  0x12f7	je     	0x1374
  === BLOCK LINK ===
    0x12f9
    0x1374
=== CODE BLOCK END ===

=== CODE BLOCK ADDRESS 0x12f9 ===
  0x12f9	dec    	eax
  0x12fa	mov    	ecx, ebx
  0x12fc	dec    	eax
  0x12fd	call   	dword ptr [0xe65]
  === BLOCK LINK ===
    0x1303
=== CODE BLOCK END ===

=== CODE BLOCK ADDRESS 0x1303 ===
  0x1303	nop    	dword ptr [eax + eax]
  === BLOCK LINK ===
    0x1308
    0x12a9
=== CODE BLOCK END ===

=== CODE BLOCK ADDRESS 0x1312 ===
  0x1312	dec    	ecx
  0x1313	mov    	edx, esi
  0x1315	mov    	ecx, 0x5a4e
  0x131a	call   	0x1168
  === BLOCK LINK ===
    0x131f
    0x1168
=== CODE BLOCK END ===

=== CODE BLOCK ADDRESS 0x131f ===
  0x131f	dec    	eax
  0x1320	mov    	ebx, eax
  0x1322	dec    	eax
  0x1323	test   	eax, eax
  0x1325	je     	0x13bf
  === BLOCK LINK ===
    0x132b
    0x13bf
=== CODE BLOCK END ===

=== CODE BLOCK ADDRESS 0x132b ===
  0x132b	dec    	eax
  0x132c	mov    	ecx, eax
  0x132e	call   	0x1008
  === BLOCK LINK ===
    0x1333
    0x1008
=== CODE BLOCK END ===

=== CODE BLOCK ADDRESS 0x1333 ===
  0x1333	inc    	ecx
  0x1334	mov    	esi, esp
  === BLOCK LINK ===
    0x1336
=== CODE BLOCK END ===

=== CODE BLOCK ADDRESS 0x133a ===
  0x133a	call   	dword ptr [0xe28]
  === BLOCK LINK ===
    0x1340
=== CODE BLOCK END ===

=== CODE BLOCK ADDRESS 0x1340 ===
  0x1340	nop    	dword ptr [eax + eax]
  0x1345	mov    	eax, esi
  0x1347	dec    	eax
  0x1348	mov    	ecx, dword ptr [esp + 0x230]
  0x134f	dec    	eax
  === BLOCK LINK ===
    0x1350
=== CODE BLOCK END ===

=== CODE BLOCK ADDRESS 0x1350 ===
  0x1350	xor    	ecx, esp
  0x1352	call   	0x1850
  === BLOCK LINK ===
    0x1357
    0x1850
=== CODE BLOCK END ===

=== CODE BLOCK ADDRESS 0x1357 ===
  0x1357	dec    	esp
  0x1358	lea    	ebx, [esp + 0x240]
  0x135f	dec    	ecx
  0x1360	mov    	ebx, dword ptr [ebx + 0x38]
  0x1363	dec    	ecx
  === BLOCK LINK ===
    0x1364
=== CODE BLOCK END ===

=== CODE BLOCK ADDRESS 0x1364 ===
  0x1364	mov    	ebp, dword ptr [ebx + 0x40]
  0x1367	dec    	ecx
  0x1368	mov    	esp, ebx
  0x136a	inc    	ecx
  0x136b	pop    	edi
  === BLOCK LINK ===
    0x136c
=== CODE BLOCK END ===

=== CODE BLOCK ADDRESS 0x136c ===
  0x136c	inc    	ecx
  0x136d	pop    	esi
  0x136e	inc    	ecx
  0x136f	pop    	esp
  0x1370	pop    	edi
  === BLOCK LINK ===
    0x1371
=== CODE BLOCK END ===

=== CODE BLOCK ADDRESS 0x1371 ===
  0x1371	pop    	esi
  0x1372	ret    	
  0x1373	int3   	
  === BLOCK LINK ===
    0x1374
=== CODE BLOCK END ===

=== CODE BLOCK ADDRESS 0x114d ===
  0x114d	dec    	eax
  0x114e	mov    	ebx, dword ptr [esp + 0x70]
  0x1152	dec    	eax
  === BLOCK LINK ===
    0x1153
=== CODE BLOCK END ===

=== CODE BLOCK ADDRESS 0x137a ===
  0x137a	lea    	ecx, [esp + 0x20]
  0x137e	mov    	edx, edi
  0x1380	dec    	ebp
  0x1381	mov    	eax, esi
  0x1383	dec    	eax
  === BLOCK LINK ===
    0x1384
=== CODE BLOCK END ===

=== CODE BLOCK ADDRESS 0x1384 ===
  0x1384	call   	dword ptr [0xef6]
  === BLOCK LINK ===
    0x138a
=== CODE BLOCK END ===

=== CODE BLOCK ADDRESS 0x138a ===
  0x138a	nop    	dword ptr [eax + eax]
  0x138f	dec    	esp
  0x1390	lea    	eax, [0xff2]
  0x1396	mov    	edx, edi
  0x1398	dec    	eax
  === BLOCK LINK ===
    0x1399
=== CODE BLOCK END ===

=== CODE BLOCK ADDRESS 0x1399 ===
  0x1399	lea    	ecx, [esp + 0x20]
  0x139d	dec    	eax
  0x139e	call   	dword ptr [0xed4]
  === BLOCK LINK ===
    0x13a4
=== CODE BLOCK END ===

=== CODE BLOCK ADDRESS 0x13a4 ===
  0x13a4	nop    	dword ptr [eax + eax]
  0x13a9	dec    	eax
  0x13aa	lea    	ecx, [esp + 0x20]
  0x13ae	dec    	eax
  0x13af	call   	dword ptr [0xebb]
  === BLOCK LINK ===
    0x13b5
=== CODE BLOCK END ===

=== CODE BLOCK ADDRESS 0x13b5 ===
  0x13b5	nop    	dword ptr [eax + eax]
  0x13ba	jmp    	0x1336
  === BLOCK LINK ===
    0x13bf
    0x1336
=== CODE BLOCK END ===

=== CODE BLOCK ADDRESS 0x13bf ===
  0x13bf	mov    	ecx, edi
  0x13c1	call   	0x11d0
  === BLOCK LINK ===
    0x13c6
=== CODE BLOCK END ===

=== CODE BLOCK ADDRESS 0x13c6 ===
  0x13c6	xor    	eax, eax
  0x13c8	jmp    	0x1347
  === BLOCK LINK ===
    0x13cd
=== CODE BLOCK END ===

=== CODE BLOCK ADDRESS 0x13cd ===
  0x13cd	int3   	
  0x13ce	int3   	
  0x13cf	int3   	
  0x13d0	int3   	
  0x13d1	int3   	
  === BLOCK LINK ===
    0x13d2
=== CODE BLOCK END ===

=== CODE BLOCK ADDRESS 0x13d2 ===
  0x13d2	int3   	
  0x13d3	int3   	
  0x13d4	dec    	eax
  0x13d5	mov    	dword ptr [esp + 8], ebx
  0x13d9	dec    	eax
  === BLOCK LINK ===
    0x13da
=== CODE BLOCK END ===

=== CODE BLOCK ADDRESS 0x13da ===
  0x13da	mov    	dword ptr [esp + 0x10], ebp
  0x13de	dec    	eax
  0x13df	mov    	dword ptr [esp + 0x18], esi
  0x13e3	push   	edi
  0x13e4	dec    	eax
  === BLOCK LINK ===
    0x13e5
=== CODE BLOCK END ===

=== CODE BLOCK ADDRESS 0x13e5 ===
  0x13e5	sub    	esp, 0x20
  0x13e8	dec    	eax
  0x13e9	mov    	esi, dword ptr [edx]
  0x13eb	inc    	ebp
  0x13ec	xor    	ecx, ecx
  === BLOCK LINK ===
    0x13ee
=== CODE BLOCK END ===

=== CODE BLOCK ADDRESS 0x13ee ===
  0x13ee	dec    	eax
  0x13ef	mov    	edi, edx
  0x13f1	mov    	ebx, ecx
  0x13f3	inc    	ebp
  0x13f4	xor    	eax, eax
  === BLOCK LINK ===
    0x13f6
=== CODE BLOCK END ===

=== CODE BLOCK ADDRESS 0x13f6 ===
  0x13f6	xor    	ecx, ecx
  0x13f8	inc    	ecx
  0x13f9	lea    	edx, [ecx + 1]
  0x13fc	dec    	eax
  0x13fd	call   	dword ptr [0xd55]
  === BLOCK LINK ===
    0x1403
=== CODE BLOCK END ===

=== CODE BLOCK ADDRESS 0x1403 ===
  0x1403	nop    	dword ptr [eax + eax]
  0x1408	dec    	eax
  0x1409	lea    	edx, [0xf81]
  0x140f	xor    	ecx, ecx
  0x1411	dec    	eax
  === BLOCK LINK ===
    0x1412
=== CODE BLOCK END ===

=== CODE BLOCK ADDRESS 0x1412 ===
  0x1412	call   	dword ptr [0xe78]
  === BLOCK LINK ===
    0x1418
=== CODE BLOCK END ===

=== CODE BLOCK ADDRESS 0x1418 ===
  0x1418	nop    	dword ptr [eax + eax]
  0x141d	xor    	ecx, ecx
  0x141f	dec    	eax
  0x1420	call   	dword ptr [0xd1a]
  === BLOCK LINK ===
    0x1426
=== CODE BLOCK END ===

=== CODE BLOCK ADDRESS 0x1426 ===
  0x1426	nop    	dword ptr [eax + eax]
  0x142b	xor    	ebp, ebp
  0x142d	sub    	ebx, 1
  0x1430	jne    	0x1497
  === BLOCK LINK ===
    0x1432
=== CODE BLOCK END ===

=== CODE BLOCK ADDRESS 0x1432 ===
  0x1432	lea    	edi, [ebp + 1]
  0x1435	mov    	ebx, 0x5a4f
  0x143a	cmp    	ebx, 0x5aa6
  0x1440	ja     	0x1493
  === BLOCK LINK ===
    0x1442
=== CODE BLOCK END ===

=== CODE BLOCK ADDRESS 0x1442 ===
  0x1442	mov    	ecx, ebp
  0x1444	dec    	eax
  0x1445	lea    	eax, [0xf9d]
  0x144b	cmp    	ebx, dword ptr [eax]
  0x144d	je     	0x148d
  === BLOCK LINK ===
    0x144f
=== CODE BLOCK END ===

=== CODE BLOCK ADDRESS 0x144f ===
  0x144f	inc    	ecx
  0x1451	dec    	eax
  0x1452	add    	eax, 4
  0x1455	cmp    	ecx, 2
  0x1458	jb     	0x144b
  === BLOCK LINK ===
    0x145a
=== CODE BLOCK END ===

=== CODE BLOCK ADDRESS 0x145a ===
  0x145a	mov    	ecx, ebx
  0x145c	call   	0x1168
  === BLOCK LINK ===
    0x1461
=== CODE BLOCK END ===

=== CODE BLOCK ADDRESS 0x1461 ===
  0x1461	dec    	eax
  0x1462	mov    	esi, eax
  0x1464	dec    	eax
  0x1465	test   	eax, eax
  0x1467	jne    	0x1474
  === BLOCK LINK ===
    0x1469
=== CODE BLOCK END ===

=== CODE BLOCK ADDRESS 0x1469 ===
  0x1469	mov    	ecx, ebx
  0x146b	call   	0x11d0
  === BLOCK LINK ===
    0x1470
=== CODE BLOCK END ===

=== CODE BLOCK ADDRESS 0x1470 ===
  0x1470	mov    	edi, ebp
  0x1472	jmp    	0x148d
  === BLOCK LINK ===
    0x1474
=== CODE BLOCK END ===

=== CODE BLOCK ADDRESS 0x1474 ===
  0x1474	dec    	eax
  0x1475	mov    	ecx, esi
  0x1477	call   	0x1008
  === BLOCK LINK ===
    0x147c
=== CODE BLOCK END ===

=== CODE BLOCK ADDRESS 0x147c ===
  0x147c	dec    	eax
  0x147d	mov    	ecx, esi
  0x147f	mov    	edi, eax
  0x1481	dec    	eax
  0x1482	call   	dword ptr [0xce0]
  === BLOCK LINK ===
    0x1488
=== CODE BLOCK END ===

=== CODE BLOCK ADDRESS 0x1488 ===
  0x1488	nop    	dword ptr [eax + eax]
  0x148d	inc    	ebx
  0x148f	test   	edi, edi
  0x1491	jne    	0x143a
  === BLOCK LINK ===
    0x1493
=== CODE BLOCK END ===

=== CODE BLOCK ADDRESS 0x1493 ===
  0x1493	mov    	eax, edi
  0x1495	jmp    	0x14fb
  === BLOCK LINK ===
    0x1497
=== CODE BLOCK END ===

=== CODE BLOCK ADDRESS 0x1497 ===
  0x1497	cmp    	ebx, 1
  0x149a	jne    	0x14ba
  === BLOCK LINK ===
    0x149c
=== CODE BLOCK END ===

=== CODE BLOCK ADDRESS 0x149c ===
  0x149c	dec    	eax
  0x149d	mov    	ecx, dword ptr [edi + 8]
  0x14a0	cmp    	word ptr [ecx], 0x2f
  0x14a4	jne    	0x14b3
  === BLOCK LINK ===
    0x14a6
=== CODE BLOCK END ===

=== CODE BLOCK ADDRESS 0x14a6 ===
  0x14a6	cmp    	word ptr [ecx + 2], 0x3f
  0x14ab	jne    	0x14b3
  === BLOCK LINK ===
    0x14ad
=== CODE BLOCK END ===

=== CODE BLOCK ADDRESS 0x14ad ===
  0x14ad	cmp    	word ptr [ecx + 4], bp
  0x14b1	je     	0x14ba
  === BLOCK LINK ===
    0x14b3
=== CODE BLOCK END ===

=== CODE BLOCK ADDRESS 0x14b3 ===
  0x14b3	call   	0x1260
  === BLOCK LINK ===
    0x14b8
=== CODE BLOCK END ===

=== CODE BLOCK ADDRESS 0x14b8 ===
  0x14b8	jmp    	0x14fb
  === BLOCK LINK ===
    0x14ba
=== CODE BLOCK END ===

=== CODE BLOCK ADDRESS 0x14ba ===
  0x14ba	dec    	eax
  0x14bb	mov    	edx, esi
  0x14bd	mov    	ecx, 0x5a4d
  0x14c2	call   	0x1168
  === BLOCK LINK ===
    0x14c7
=== CODE BLOCK END ===

=== CODE BLOCK ADDRESS 0x14c7 ===
  0x14c7	dec    	eax
  0x14c8	mov    	edi, eax
  0x14ca	dec    	eax
  0x14cb	test   	eax, eax
  0x14cd	jne    	0x14e0
  === BLOCK LINK ===
    0x14cf
=== CODE BLOCK END ===

=== CODE BLOCK ADDRESS 0x14cf ===
  0x14cf	dec    	eax
  0x14d0	lea    	ecx, [0xeca]
  0x14d6	call   	0x1008
  === BLOCK LINK ===
    0x14db
=== CODE BLOCK END ===

=== CODE BLOCK ADDRESS 0x14db ===
  0x14db	lea    	eax, [edi + 1]
  0x14de	jmp    	0x14fb
  === BLOCK LINK ===
    0x14e0
=== CODE BLOCK END ===

=== CODE BLOCK ADDRESS 0x14e0 ===
  0x14e0	dec    	eax
  0x14e1	mov    	ecx, edi
  0x14e3	call   	0x1008
  === BLOCK LINK ===
    0x14e8
=== CODE BLOCK END ===

=== CODE BLOCK ADDRESS 0x14e8 ===
  0x14e8	dec    	eax
  0x14e9	mov    	ecx, edi
  0x14eb	mov    	ebx, eax
  0x14ed	dec    	eax
  0x14ee	call   	dword ptr [0xc74]
  === BLOCK LINK ===
    0x14f4
=== CODE BLOCK END ===

=== CODE BLOCK ADDRESS 0x14f4 ===
  0x14f4	nop    	dword ptr [eax + eax]
  0x14f9	mov    	eax, ebx
  0x14fb	dec    	eax
  0x14fc	mov    	ebx, dword ptr [esp + 0x30]
  0x1500	dec    	eax
  === BLOCK LINK ===
    0x1501
=== CODE BLOCK END ===

=== CODE BLOCK ADDRESS 0x1501 ===
  0x1501	mov    	ebp, dword ptr [esp + 0x38]
  0x1505	dec    	eax
  0x1506	mov    	esi, dword ptr [esp + 0x40]
  0x150a	dec    	eax
  0x150b	add    	esp, 0x20
  === BLOCK LINK ===
    0x150e
=== CODE BLOCK END ===

=== CODE BLOCK ADDRESS 0x150e ===
  0x150e	pop    	edi
  0x150f	ret    	
  0x1510	int3   	
  0x1511	int3   	
  0x1512	int3   	
  === BLOCK LINK ===
    0x1513
=== CODE BLOCK END ===

=== CODE BLOCK ADDRESS 0x114b ===
  0x114b	mov    	eax, ebx
  === BLOCK LINK ===
    0x114d
=== CODE BLOCK END ===

=== CODE BLOCK ADDRESS 0x1513 ===
  0x1513	int3   	
  0x1514	int3   	
  0x1515	int3   	
  0x1516	int3   	
  0x1517	int3   	
  === BLOCK LINK ===
    0x1518
=== CODE BLOCK END ===

=== CODE BLOCK ADDRESS 0x1518 ===
  0x1518	int3   	
  0x1519	int3   	
  0x151a	int3   	
  0x151b	int3   	
  0x151c	int3   	
  === BLOCK LINK ===
    0x151d
=== CODE BLOCK END ===

=== CODE BLOCK ADDRESS 0x151d ===
  0x151d	int3   	
  0x151e	int3   	
  0x151f	int3   	
  0x1520	dec    	eax
  0x1521	sub    	esp, 0x28
  === BLOCK LINK ===
    0x1524
=== CODE BLOCK END ===

=== CODE BLOCK ADDRESS 0x1524 ===
  0x1524	mov    	eax, 0x5a4d
  0x1529	cmp    	word ptr [0xffffead0], ax
  0x1530	je     	0x1536
  === BLOCK LINK ===
    0x1532
=== CODE BLOCK END ===

=== CODE BLOCK ADDRESS 0x1532 ===
  0x1532	xor    	eax, eax
  0x1534	jmp    	0x1589
  === BLOCK LINK ===
    0x1536
=== CODE BLOCK END ===

=== CODE BLOCK ADDRESS 0x1536 ===
  0x1536	dec    	eax
  0x1537	arpl   	word ptr [0xffffeaff], cx
  0x153d	dec    	eax
  0x153e	lea    	eax, [0xffffeabc]
  0x1544	dec    	eax
  === BLOCK LINK ===
    0x1545
=== CODE BLOCK END ===

=== CODE BLOCK ADDRESS 0x1545 ===
  0x1545	add    	ecx, eax
  0x1547	cmp    	dword ptr [ecx], 0x4550
  0x154d	jne    	0x1532
  === BLOCK LINK ===
    0x154f
=== CODE BLOCK END ===

=== CODE BLOCK ADDRESS 0x154f ===
  0x154f	mov    	eax, 0x10b
  0x1554	cmp    	word ptr [ecx + 0x18], ax
  0x1558	je     	0x1578
  === BLOCK LINK ===
    0x155a
=== CODE BLOCK END ===

=== CODE BLOCK ADDRESS 0x155a ===
  0x155a	mov    	eax, 0x20b
  0x155f	cmp    	word ptr [ecx + 0x18], ax
  0x1563	jne    	0x1532
  === BLOCK LINK ===
    0x1565
=== CODE BLOCK END ===

=== CODE BLOCK ADDRESS 0x1565 ===
  0x1565	xor    	eax, eax
  0x1567	cmp    	dword ptr [ecx + 0x84], 0xe
  0x156e	jbe    	0x1589
  === BLOCK LINK ===
    0x1570
=== CODE BLOCK END ===

=== CODE BLOCK ADDRESS 0x1570 ===
  0x1570	cmp    	dword ptr [ecx + 0xf8], eax
  0x1576	jmp    	0x1586
  === BLOCK LINK ===
    0x1578
=== CODE BLOCK END ===

=== CODE BLOCK ADDRESS 0x1578 ===
  0x1578	xor    	eax, eax
  0x157a	cmp    	dword ptr [ecx + 0x74], 0xe
  0x157e	jbe    	0x1589
  === BLOCK LINK ===
    0x1580
=== CODE BLOCK END ===

=== CODE BLOCK ADDRESS 0x1580 ===
  0x1580	cmp    	dword ptr [ecx + 0xe8], eax
  0x1586	setne  	al
  0x1589	mov    	ecx, 1
  0x158e	mov    	dword ptr [0x1aac], eax
  0x1594	call   	0x1948
  === BLOCK LINK ===
    0x1599
=== CODE BLOCK END ===

=== CODE BLOCK ADDRESS 0x1599 ===
  0x1599	mov    	ecx, eax
  0x159b	call   	dword ptr [0xc97]
  === BLOCK LINK ===
    0x15a1
=== CODE BLOCK END ===

=== CODE BLOCK ADDRESS 0x15a1 ===
  0x15a1	dec    	eax
  0x15a2	mov    	ecx, dword ptr [0xc70]
  0x15a8	dec    	eax
  0x15a9	or     	eax, 0xffffffff
  0x15ac	dec    	eax
  === BLOCK LINK ===
    0x15ad
=== CODE BLOCK END ===

=== CODE BLOCK ADDRESS 0x15ad ===
  0x15ad	mov    	dword ptr [0x201d], eax
  0x15b3	dec    	eax
  0x15b4	mov    	dword ptr [0x201e], eax
  0x15ba	mov    	eax, dword ptr [0x1a94]
  0x15c0	mov    	dword ptr [ecx], eax
  === BLOCK LINK ===
    0x15c2
=== CODE BLOCK END ===

=== CODE BLOCK ADDRESS 0x15c2 ===
  0x15c2	dec    	eax
  0x15c3	mov    	ecx, dword ptr [0xc57]
  0x15c9	mov    	eax, dword ptr [0x1a79]
  0x15cf	mov    	dword ptr [ecx], eax
  0x15d1	call   	0x19a0
  === BLOCK LINK ===
    0x15d6
=== CODE BLOCK END ===

=== CODE BLOCK ADDRESS 0x15d6 ===
  0x15d6	cmp    	dword ptr [0x1a23], 0
  0x15dd	jne    	0x15ec
  === BLOCK LINK ===
    0x15df
=== CODE BLOCK END ===

=== CODE BLOCK ADDRESS 0x15df ===
  0x15df	dec    	eax
  0x15e0	lea    	ecx, [0x3ba]
  0x15e6	call   	dword ptr [0xc14]
  === BLOCK LINK ===
    0x15ec
=== CODE BLOCK END ===

=== CODE BLOCK ADDRESS 0x15ec ===
  0x15ec	xor    	eax, eax
  0x15ee	dec    	eax
  0x15ef	add    	esp, 0x28
  0x15f2	ret    	
  0x15f3	int3   	
  === BLOCK LINK ===
    0x15f4
=== CODE BLOCK END ===

=== CODE BLOCK ADDRESS 0x1168 ===
=== CODE BLOCK END ===

=== CODE BLOCK ADDRESS 0x15f4 ===
  0x15f4	int3   	
  0x15f5	int3   	
  0x15f6	int3   	
  0x15f7	int3   	
  0x15f8	int3   	
  === BLOCK LINK ===
    0x15f9
=== CODE BLOCK END ===

=== CODE BLOCK ADDRESS 0x15f9 ===
  0x15f9	int3   	
  0x15fa	int3   	
  0x15fb	int3   	
  0x15fc	int3   	
  0x15fd	int3   	
  === BLOCK LINK ===
    0x15fe
=== CODE BLOCK END ===

=== CODE BLOCK ADDRESS 0x15fe ===
  0x15fe	int3   	
  0x15ff	int3   	
  0x1600	dec    	eax
  0x1601	sub    	esp, 0x38
  0x1604	mov    	eax, dword ptr [0x1a46]
  === BLOCK LINK ===
    0x160a
=== CODE BLOCK END ===

=== CODE BLOCK ADDRESS 0x160a ===
  0x160a	dec    	esp
  0x160b	lea    	eax, [0x1a27]
  0x1611	inc    	esp
  0x1612	mov    	ecx, dword ptr [0x1a34]
  0x1618	dec    	eax
  === BLOCK LINK ===
    0x1619
=== CODE BLOCK END ===

=== CODE BLOCK ADDRESS 0x1619 ===
  0x1619	lea    	edx, [0x1a11]
  0x161f	mov    	dword ptr [0x1a1f], eax
  0x1625	dec    	eax
  0x1626	lea    	ecx, [0x19fc]
  0x162c	dec    	eax
  === BLOCK LINK ===
    0x162d
=== CODE BLOCK END ===

=== CODE BLOCK ADDRESS 0x162d ===
  0x162d	lea    	eax, [0x1a11]
  0x1633	dec    	eax
  0x1634	mov    	dword ptr [esp + 0x20], eax
  0x1638	call   	dword ptr [0xc02]
  === BLOCK LINK ===
    0x163e
=== CODE BLOCK END ===

=== CODE BLOCK ADDRESS 0x163e ===
  0x163e	mov    	dword ptr [0x19e8], eax
  0x1644	dec    	eax
  0x1645	add    	esp, 0x38
  0x1648	ret    	
  0x1649	int3   	
  === BLOCK LINK ===
    0x164a
=== CODE BLOCK END ===

=== CODE BLOCK ADDRESS 0x164a ===
  0x164a	int3   	
  0x164b	int3   	
  0x164c	int3   	
  0x164d	int3   	
  0x164e	int3   	
  === BLOCK LINK ===
    0x164f
=== CODE BLOCK END ===

=== CODE BLOCK ADDRESS 0x164f ===
  0x164f	int3   	
  0x1650	dec    	eax
  0x1651	mov    	dword ptr [esp + 8], ebx
  0x1655	dec    	eax
  0x1656	mov    	dword ptr [esp + 0x10], esi
  === BLOCK LINK ===
    0x165a
=== CODE BLOCK END ===

=== CODE BLOCK ADDRESS 0x165a ===
  0x165a	dec    	eax
  0x165b	mov    	dword ptr [esp + 0x18], edi
  0x165f	inc    	ecx
  0x1660	push   	edi
  0x1661	dec    	eax
  === BLOCK LINK ===
    0x1662
=== CODE BLOCK END ===

=== CODE BLOCK ADDRESS 0x1662 ===
  0x1662	sub    	esp, 0x30
  0x1665	dec    	eax
  0x1667	mov    	eax, dword ptr [0x30]
  0x166e	dec    	eax
  0x166f	mov    	ebx, dword ptr [eax + 8]
  === BLOCK LINK ===
    0x1672
=== CODE BLOCK END ===

=== CODE BLOCK ADDRESS 0x1672 ===
  0x1672	xor    	esi, esi
  0x1674	xor    	eax, eax
  0x1676	.byte  	0xf0
  0x1677	dec    	eax
  0x1678	cmpxchg  	dword ptr [0x1f61], ebx
  === BLOCK LINK ===
    0x167f
=== CODE BLOCK END ===

=== CODE BLOCK ADDRESS 0x167f ===
  0x167f	je     	0x169c
  === BLOCK LINK ===
    0x1681
=== CODE BLOCK END ===

=== CODE BLOCK ADDRESS 0x1681 ===
  0x1681	dec    	eax
  0x1682	cmp    	eax, ebx
  0x1684	jne    	0x168f
  === BLOCK LINK ===
    0x1686
=== CODE BLOCK END ===

=== CODE BLOCK ADDRESS 0x1686 ===
  0x1686	mov    	ebx, 1
  0x168b	mov    	esi, ebx
  0x168d	jmp    	0x16a1
  === BLOCK LINK ===
    0x168f
=== CODE BLOCK END ===

=== CODE BLOCK ADDRESS 0x168f ===
  0x168f	mov    	ecx, 0x3e8
  0x1694	call   	dword ptr [0xb46]
  === BLOCK LINK ===
    0x169a
=== CODE BLOCK END ===

=== CODE BLOCK ADDRESS 0x169a ===
  0x169a	jmp    	0x1674
  === BLOCK LINK ===
    0x169c
=== CODE BLOCK END ===

=== CODE BLOCK ADDRESS 0x169c ===
  0x169c	mov    	ebx, 1
  0x16a1	mov    	eax, dword ptr [0x1f41]
  0x16a7	cmp    	eax, ebx
  0x16a9	jne    	0x16b7
  === BLOCK LINK ===
    0x16ab
=== CODE BLOCK END ===

=== CODE BLOCK ADDRESS 0x16ab ===
  0x16ab	mov    	ecx, 0x1f
  0x16b0	call   	0x1993
  === BLOCK LINK ===
    0x16b5
=== CODE BLOCK END ===

=== CODE BLOCK ADDRESS 0x16b5 ===
  0x16b5	jmp    	0x171c
  === BLOCK LINK ===
    0x16b7
=== CODE BLOCK END ===

=== CODE BLOCK ADDRESS 0x16b7 ===
  0x16b7	mov    	eax, dword ptr [0x1f2b]
  0x16bd	test   	eax, eax
  0x16bf	jne    	0x1716
  === BLOCK LINK ===
    0x16c1
=== CODE BLOCK END ===

=== CODE BLOCK ADDRESS 0x16c1 ===
  0x16c1	mov    	dword ptr [0x1f21], ebx
  0x16c7	dec    	esp
  0x16c8	lea    	edi, [0xc1a]
  0x16ce	dec    	eax
  0x16cf	lea    	edi, [0xbfb]
  === BLOCK LINK ===
    0x16d5
=== CODE BLOCK END ===

=== CODE BLOCK ADDRESS 0x16d5 ===
  0x16d5	dec    	eax
  0x16d6	mov    	dword ptr [esp + 0x28], edi
  0x16da	mov    	dword ptr [esp + 0x20], eax
  0x16de	dec    	ecx
  0x16df	cmp    	edi, edi
  === BLOCK LINK ===
    0x16e1
=== CODE BLOCK END ===

=== CODE BLOCK ADDRESS 0x16e1 ===
  0x16e1	jae    	0x1708
  === BLOCK LINK ===
    0x16e3
=== CODE BLOCK END ===

=== CODE BLOCK ADDRESS 0x16e3 ===
  0x16e3	test   	eax, eax
  0x16e5	jne    	0x170c
  === BLOCK LINK ===
    0x16e7
=== CODE BLOCK END ===

=== CODE BLOCK ADDRESS 0x16e7 ===
  0x16e7	dec    	eax
  0x16e8	cmp    	dword ptr [edi], 0
  0x16eb	je     	0x16fd
  === BLOCK LINK ===
    0x16ed
=== CODE BLOCK END ===

=== CODE BLOCK ADDRESS 0x16ed ===
  0x16ed	dec    	eax
  0x16ee	mov    	eax, dword ptr [edi]
  0x16f0	dec    	eax
  0x16f1	mov    	ecx, dword ptr [0xbb9]
  0x16f7	call   	ecx
  === BLOCK LINK ===
    0x16f9
=== CODE BLOCK END ===

=== CODE BLOCK ADDRESS 0x16f9 ===
  0x16f9	mov    	dword ptr [esp + 0x20], eax
  0x16fd	dec    	eax
  0x16fe	add    	edi, 8
  0x1701	dec    	eax
  0x1702	mov    	dword ptr [esp + 0x28], edi
  === BLOCK LINK ===
    0x1706
=== CODE BLOCK END ===

=== CODE BLOCK ADDRESS 0x1706 ===
  0x1706	jmp    	0x16de
  === BLOCK LINK ===
    0x1708
=== CODE BLOCK END ===

=== CODE BLOCK ADDRESS 0x1708 ===
  0x1708	test   	eax, eax
  0x170a	je     	0x171c
  === BLOCK LINK ===
    0x170c
=== CODE BLOCK END ===

=== CODE BLOCK ADDRESS 0x170c ===
  0x170c	mov    	eax, 0xff
  0x1711	jmp    	0x17f8
  === BLOCK LINK ===
    0x1716
=== CODE BLOCK END ===

=== CODE BLOCK ADDRESS 0x1716 ===
  0x1716	mov    	dword ptr [0x1908], ebx
  0x171c	mov    	eax, dword ptr [0x1ec6]
  0x1722	cmp    	eax, ebx
  0x1724	jne    	0x1743
  === BLOCK LINK ===
    0x1726
=== CODE BLOCK END ===

=== CODE BLOCK ADDRESS 0x1726 ===
  0x1726	dec    	eax
  0x1727	lea    	edx, [0xb9b]
  0x172d	dec    	eax
  0x172e	lea    	ecx, [0xb84]
  0x1734	call   	0x1b6e
  === BLOCK LINK ===
    0x1739
=== CODE BLOCK END ===

=== CODE BLOCK ADDRESS 0x1739 ===
  0x1739	mov    	dword ptr [0x1ea5], 2
  0x1743	test   	esi, esi
  0x1745	jne    	0x1750
  === BLOCK LINK ===
    0x1747
=== CODE BLOCK END ===

=== CODE BLOCK ADDRESS 0x1747 ===
  0x1747	xor    	eax, eax
  0x1749	dec    	eax
  0x174a	xchg   	dword ptr [0x1e90], eax
  0x1750	dec    	eax
  0x1751	cmp    	dword ptr [0x1e98], 0
  === BLOCK LINK ===
    0x1758
=== CODE BLOCK END ===

=== CODE BLOCK ADDRESS 0x1758 ===
  0x1758	je     	0x1784
  === BLOCK LINK ===
    0x175a
=== CODE BLOCK END ===

=== CODE BLOCK ADDRESS 0x175a ===
  0x175a	dec    	eax
  0x175b	lea    	ecx, [0x1e8f]
  0x1761	call   	0x1a00
  === BLOCK LINK ===
    0x1766
=== CODE BLOCK END ===

=== CODE BLOCK ADDRESS 0x1766 ===
  0x1766	test   	eax, eax
  0x1768	je     	0x1784
  === BLOCK LINK ===
    0x176a
=== CODE BLOCK END ===

=== CODE BLOCK ADDRESS 0x176a ===
  0x176a	inc    	ebp
  0x176b	xor    	eax, eax
  0x176d	inc    	ecx
  0x176e	lea    	edx, [eax + 2]
  0x1771	xor    	ecx, ecx
  === BLOCK LINK ===
    0x1773
=== CODE BLOCK END ===

=== CODE BLOCK ADDRESS 0x1773 ===
  0x1773	dec    	eax
  0x1774	mov    	eax, dword ptr [0x1e76]
  0x177a	dec    	esp
  0x177b	mov    	ecx, dword ptr [0xb2f]
  0x1781	inc    	ecx
  === BLOCK LINK ===
    0x1782
=== CODE BLOCK END ===

=== CODE BLOCK ADDRESS 0x1782 ===
  0x1782	call   	ecx
  === BLOCK LINK ===
    0x1784
=== CODE BLOCK END ===

=== CODE BLOCK ADDRESS 0x1784 ===
  0x1784	dec    	esp
  0x1785	mov    	eax, dword ptr [0x18ad]
  0x178b	dec    	eax
  0x178c	mov    	edx, dword ptr [0x189e]
  0x1792	mov    	ecx, dword ptr [0x1890]
  === BLOCK LINK ===
    0x1798
=== CODE BLOCK END ===

=== CODE BLOCK ADDRESS 0x1798 ===
  0x1798	call   	0x13d4
  === BLOCK LINK ===
    0x179d
=== CODE BLOCK END ===

=== CODE BLOCK ADDRESS 0x179d ===
  0x179d	mov    	dword ptr [0x187d], eax
  0x17a3	cmp    	dword ptr [0x1896], 0
  0x17aa	jne    	0x17b4
  === BLOCK LINK ===
    0x17ac
=== CODE BLOCK END ===

=== CODE BLOCK ADDRESS 0x17ac ===
  0x17ac	mov    	ecx, eax
  0x17ae	call   	dword ptr [0xa44]
  === BLOCK LINK ===
    0x17b4
=== CODE BLOCK END ===

=== CODE BLOCK ADDRESS 0x17b4 ===
  0x17b4	cmp    	dword ptr [0x1869], 0
  0x17bb	jne    	0x17c9
  === BLOCK LINK ===
    0x17bd
=== CODE BLOCK END ===

=== CODE BLOCK ADDRESS 0x17bd ===
  0x17bd	call   	dword ptr [0xad5]
  === BLOCK LINK ===
    0x17c3
=== CODE BLOCK END ===

=== CODE BLOCK ADDRESS 0x17c3 ===
  0x17c3	mov    	eax, dword ptr [0x1857]
  0x17c9	jmp    	0x17f8
  === BLOCK LINK ===
    0x17cb
=== CODE BLOCK END ===

=== CODE BLOCK ADDRESS 0x17cb ===
  0x17cb	mov    	dword ptr [0x184f], eax
  0x17d1	cmp    	dword ptr [0x1868], 0
  0x17d8	jne    	0x17e3
  === BLOCK LINK ===
    0x17da
=== CODE BLOCK END ===

=== CODE BLOCK ADDRESS 0x17da ===
  0x17da	mov    	ecx, eax
  0x17dc	call   	dword ptr [0xa4e]
  === BLOCK LINK ===
    0x17e2
=== CODE BLOCK END ===

=== CODE BLOCK ADDRESS 0x17e2 ===
  0x17e2	int3   	
  0x17e3	cmp    	dword ptr [0x183a], 0
  0x17ea	jne    	0x17f8
  === BLOCK LINK ===
    0x17ec
=== CODE BLOCK END ===

=== CODE BLOCK ADDRESS 0x17ec ===
  0x17ec	call   	dword ptr [0xaa6]
  === BLOCK LINK ===
    0x17f2
=== CODE BLOCK END ===

=== CODE BLOCK ADDRESS 0x17f2 ===
  0x17f2	mov    	eax, dword ptr [0x1828]
  0x17f8	dec    	eax
  0x17f9	mov    	ebx, dword ptr [esp + 0x40]
  0x17fd	dec    	eax
  0x17fe	mov    	esi, dword ptr [esp + 0x48]
  === BLOCK LINK ===
    0x1802
=== CODE BLOCK END ===

=== CODE BLOCK ADDRESS 0x1802 ===
  0x1802	dec    	eax
  0x1803	mov    	edi, dword ptr [esp + 0x50]
  0x1807	dec    	eax
  0x1808	add    	esp, 0x30
  0x180b	inc    	ecx
  === BLOCK LINK ===
    0x180c
=== CODE BLOCK END ===

=== CODE BLOCK ADDRESS 0x180c ===
  0x180c	pop    	edi
  0x180d	ret    	
  0x180e	int3   	
  0x180f	int3   	
  0x1810	int3   	
  === BLOCK LINK ===
    0x1811
=== CODE BLOCK END ===

=== CODE BLOCK ADDRESS 0x1008 ===
  0x1008	dec    	eax
  0x1009	mov    	dword ptr [esp + 8], ebx
  === BLOCK LINK ===
    0x100d
=== CODE BLOCK END ===

=== CODE BLOCK ADDRESS 0x1811 ===
  0x1811	int3   	
  0x1812	int3   	
  0x1813	int3   	
  0x1814	int3   	
  0x1815	int3   	
  === BLOCK LINK ===
    0x1816
=== CODE BLOCK END ===

=== CODE BLOCK ADDRESS 0x1816 ===
  0x1816	int3   	
  0x1817	int3   	
  0x1818	int3   	
  0x1819	int3   	
  0x181a	int3   	
  === BLOCK LINK ===
    0x181b
=== CODE BLOCK END ===

=== CODE BLOCK ADDRESS 0x181b ===
  0x181b	int3   	
  0x181c	int3   	
  0x181d	int3   	
  0x181e	int3   	
  0x181f	int3   	
  === BLOCK LINK ===
    0x1820
=== CODE BLOCK END ===

=== CODE BLOCK ADDRESS 0x1820 ===
  0x1820	dec    	eax
  0x1821	sub    	esp, 0x28
  0x1824	call   	0x1a94
  === BLOCK LINK ===
    0x1829
=== CODE BLOCK END ===

=== CODE BLOCK ADDRESS 0x1829 ===
  0x1829	dec    	eax
  0x182a	add    	esp, 0x28
  0x182d	jmp    	0x1650
  === BLOCK LINK ===
    0x1832
=== CODE BLOCK END ===

=== CODE BLOCK ADDRESS 0x1832 ===
  0x1832	int3   	
  0x1833	int3   	
  0x1834	int3   	
  0x1835	int3   	
  0x1836	int3   	
  === BLOCK LINK ===
    0x1837
=== CODE BLOCK END ===

=== CODE BLOCK ADDRESS 0x1837 ===
  0x1837	int3   	
  0x1838	int3   	
  0x1839	int3   	
  0x183a	int3   	
  0x183b	int3   	
  === BLOCK LINK ===
    0x183c
=== CODE BLOCK END ===

=== CODE BLOCK ADDRESS 0x183c ===
  0x183c	int3   	
  0x183d	int3   	
  0x183e	int3   	
  0x183f	int3   	
  0x1840	int3   	
  === BLOCK LINK ===
    0x1841
=== CODE BLOCK END ===

=== CODE BLOCK ADDRESS 0x1841 ===
  0x1841	int3   	
  0x1842	int3   	
  0x1843	int3   	
  0x1844	int3   	
  0x1845	int3   	
  === BLOCK LINK ===
    0x1846
=== CODE BLOCK END ===

=== CODE BLOCK ADDRESS 0x1846 ===
  0x1846	nop    	word ptr [eax + eax]
  === BLOCK LINK ===
    0x1850
=== CODE BLOCK END ===

=== CODE BLOCK ADDRESS 0x1859 ===
  0x1859	dec    	eax
  0x185a	rol    	ecx, 0x10
  0x185d	test   	cx, 0xffff
  0x1862	jne    	0x1865
  === BLOCK LINK ===
    0x1864
=== CODE BLOCK END ===

=== CODE BLOCK ADDRESS 0x1864 ===
  0x1864	ret    	
  0x1865	dec    	eax
  0x1866	ror    	ecx, 0x10
  0x1869	jmp    	0x1be0
  === BLOCK LINK ===
    0x186e
=== CODE BLOCK END ===

=== CODE BLOCK ADDRESS 0x1242 ===
  0x1242	dec    	eax
  0x1243	mov    	ecx, dword ptr [esp + 0x70]
  0x1247	dec    	eax
  0x1248	xor    	ecx, esp
  === BLOCK LINK ===
    0x124a
=== CODE BLOCK END ===

=== CODE BLOCK ADDRESS 0x186e ===
  0x186e	int3   	
  0x186f	int3   	
  0x1870	int3   	
  0x1871	int3   	
  0x1872	int3   	
  === BLOCK LINK ===
    0x1873
=== CODE BLOCK END ===

=== CODE BLOCK ADDRESS 0x1873 ===
  0x1873	int3   	
  0x1874	int3   	
  0x1875	int3   	
  0x1876	int3   	
  0x1877	int3   	
  === BLOCK LINK ===
    0x1878
=== CODE BLOCK END ===

=== CODE BLOCK ADDRESS 0x1878 ===
  0x1878	int3   	
  0x1879	int3   	
  0x187a	int3   	
  0x187b	int3   	
  0x187c	int3   	
  === BLOCK LINK ===
    0x187d
=== CODE BLOCK END ===

=== CODE BLOCK ADDRESS 0x187d ===
  0x187d	int3   	
  0x187e	int3   	
  0x187f	int3   	
  0x1880	dec    	eax
  0x1881	sub    	esp, 0x28
  === BLOCK LINK ===
    0x1884
=== CODE BLOCK END ===

=== CODE BLOCK ADDRESS 0x1884 ===
  0x1884	dec    	eax
  0x1885	mov    	eax, dword ptr [ecx]
  0x1887	cmp    	dword ptr [eax], 0xe06d7363
  0x188d	jne    	0x18b2
  === BLOCK LINK ===
    0x188f
=== CODE BLOCK END ===

=== CODE BLOCK ADDRESS 0x188f ===
  0x188f	cmp    	dword ptr [eax + 0x18], 4
  0x1893	jne    	0x18b2
  === BLOCK LINK ===
    0x1895
=== CODE BLOCK END ===

=== CODE BLOCK ADDRESS 0x1895 ===
  0x1895	mov    	ecx, dword ptr [eax + 0x20]
  0x1898	lea    	eax, [ecx - 0x19930520]
  0x189e	cmp    	eax, 2
  0x18a1	jbe    	0x18ab
  === BLOCK LINK ===
    0x18a3
=== CODE BLOCK END ===

=== CODE BLOCK ADDRESS 0x18a3 ===
  0x18a3	cmp    	ecx, 0x1994000
  0x18a9	jne    	0x18b2
  === BLOCK LINK ===
    0x18ab
=== CODE BLOCK END ===

=== CODE BLOCK ADDRESS 0x18ab ===
  0x18ab	call   	dword ptr [0x977]
  === BLOCK LINK ===
    0x18b1
=== CODE BLOCK END ===

=== CODE BLOCK ADDRESS 0x18b1 ===
  0x18b1	int3   	
  0x18b2	xor    	eax, eax
  0x18b4	dec    	eax
  0x18b5	add    	esp, 0x28
  0x18b8	ret    	
  === BLOCK LINK ===
    0x18b9
=== CODE BLOCK END ===

=== CODE BLOCK ADDRESS 0x18b9 ===
  0x18b9	int3   	
  0x18ba	int3   	
  0x18bb	int3   	
  0x18bc	int3   	
  0x18bd	int3   	
  === BLOCK LINK ===
    0x18be
=== CODE BLOCK END ===

=== CODE BLOCK ADDRESS 0x18be ===
  0x18be	int3   	
  0x18bf	int3   	
  0x18c0	dec    	eax
  0x18c1	sub    	esp, 0x28
  0x18c4	dec    	eax
  === BLOCK LINK ===
    0x18c5
=== CODE BLOCK END ===

=== CODE BLOCK ADDRESS 0x18c5 ===
  0x18c5	lea    	ecx, [0xffffffb5]
  0x18cb	call   	dword ptr [0x907]
  === BLOCK LINK ===
    0x18d1
=== CODE BLOCK END ===

=== CODE BLOCK ADDRESS 0x18d1 ===
  0x18d1	xor    	eax, eax
  0x18d3	dec    	eax
  0x18d4	add    	esp, 0x28
  0x18d7	ret    	
  0x18d8	int3   	
  === BLOCK LINK ===
    0x18d9
=== CODE BLOCK END ===

=== CODE BLOCK ADDRESS 0x1850 ===
  0x1850	dec    	eax
  0x1851	cmp    	ecx, dword ptr [0x17b1]
  0x1857	jne    	0x1869
  === BLOCK LINK ===
    0x1859
=== CODE BLOCK END ===

=== CODE BLOCK ADDRESS 0x18d9 ===
  0x18d9	int3   	
  0x18da	int3   	
  0x18db	int3   	
  0x18dc	int3   	
  0x18dd	int3   	
  === BLOCK LINK ===
    0x18de
=== CODE BLOCK END ===

=== CODE BLOCK ADDRESS 0x18de ===
  0x18de	jmp    	dword ptr [0x96c]
  === BLOCK LINK ===
    0x18e4
=== CODE BLOCK END ===

=== CODE BLOCK ADDRESS 0x18e4 ===
  0x18e4	int3   	
  0x18e5	int3   	
  0x18e6	int3   	
  0x18e7	int3   	
  0x18e8	int3   	
  === BLOCK LINK ===
    0x18e9
=== CODE BLOCK END ===

=== CODE BLOCK ADDRESS 0x18e9 ===
  0x18e9	int3   	
  0x18ea	int3   	
  0x18eb	int3   	
  0x18ec	dec    	eax
  0x18ed	sub    	esp, 0x18
  === BLOCK LINK ===
    0x18f0
=== CODE BLOCK END ===

=== CODE BLOCK ADDRESS 0x18f0 ===
  0x18f0	xor    	edx, edx
  0x18f2	dec    	eax
  0x18f3	lea    	eax, [ecx - 1]
  0x18f6	dec    	eax
  0x18f7	cmp    	eax, -3
  === BLOCK LINK ===
    0x18fa
=== CODE BLOCK END ===

=== CODE BLOCK ADDRESS 0x18fa ===
  0x18fa	ja     	0x1938
  === BLOCK LINK ===
    0x18fc
=== CODE BLOCK END ===

=== CODE BLOCK ADDRESS 0x18fc ===
  0x18fc	mov    	eax, 0x5a4d
  0x1901	cmp    	word ptr [ecx], ax
  0x1904	jne    	0x1930
  === BLOCK LINK ===
    0x1906
=== CODE BLOCK END ===

=== CODE BLOCK ADDRESS 0x1906 ===
  0x1906	cmp    	dword ptr [ecx + 0x3c], edx
  0x1909	jl     	0x1930
  === BLOCK LINK ===
    0x190b
=== CODE BLOCK END ===

=== CODE BLOCK ADDRESS 0x190b ===
  0x190b	cmp    	dword ptr [ecx + 0x3c], 0x10000000
  0x1912	jae    	0x1930
  === BLOCK LINK ===
    0x1914
=== CODE BLOCK END ===

=== CODE BLOCK ADDRESS 0x1914 ===
  0x1914	dec    	eax
  0x1915	arpl   	word ptr [ecx + 0x3c], ax
  0x1918	dec    	eax
  0x1919	add    	eax, ecx
  0x191b	dec    	eax
  === BLOCK LINK ===
    0x191c
=== CODE BLOCK END ===

=== CODE BLOCK ADDRESS 0x191c ===
  0x191c	mov    	dword ptr [esp], eax
  0x191f	cmp    	dword ptr [eax], 0x4550
  0x1925	dec    	eax
  0x1926	cmovne  	eax, edx
  0x1929	dec    	eax
  === BLOCK LINK ===
    0x192a
=== CODE BLOCK END ===

=== CODE BLOCK ADDRESS 0x192a ===
  0x192a	mov    	edx, eax
  0x192c	dec    	eax
  0x192d	mov    	dword ptr [esp], eax
  0x1930	jmp    	0x1938
  === BLOCK LINK ===
    0x1932
=== CODE BLOCK END ===

=== CODE BLOCK ADDRESS 0x1932 ===
  0x1932	xor    	edx, edx
  0x1934	dec    	eax
  0x1935	mov    	dword ptr [esp], edx
  0x1938	dec    	eax
  0x1939	mov    	eax, edx
  === BLOCK LINK ===
    0x193b
=== CODE BLOCK END ===

=== CODE BLOCK ADDRESS 0x193b ===
  0x193b	dec    	eax
  0x193c	add    	esp, 0x18
  0x193f	ret    	
  0x1940	int3   	
  0x1941	int3   	
  === BLOCK LINK ===
    0x1942
=== CODE BLOCK END ===

=== CODE BLOCK ADDRESS 0x1295 ===
  0x1295	dec    	eax
  0x1296	inc    	ebp
  === BLOCK LINK ===
    0x1298
=== CODE BLOCK END ===

=== CODE BLOCK ADDRESS 0x1942 ===
  0x1942	int3   	
  0x1943	int3   	
  0x1944	int3   	
  0x1945	int3   	
  0x1946	int3   	
  === BLOCK LINK ===
    0x1947
=== CODE BLOCK END ===

=== CODE BLOCK ADDRESS 0x1947 ===
  0x1947	int3   	
  0x1948	inc    	eax
  0x1949	push   	ebx
  0x194a	dec    	eax
  0x194b	sub    	esp, 0x20
  === BLOCK LINK ===
    0x194e
=== CODE BLOCK END ===

=== CODE BLOCK ADDRESS 0x194e ===
  0x194e	mov    	ebx, ecx
  0x1950	xor    	ecx, ecx
  0x1952	call   	dword ptr [0x878]
  === BLOCK LINK ===
    0x1958
=== CODE BLOCK END ===

=== CODE BLOCK ADDRESS 0x1958 ===
  0x1958	dec    	eax
  0x1959	test   	eax, eax
  0x195b	je     	0x1985
  === BLOCK LINK ===
    0x195d
=== CODE BLOCK END ===

=== CODE BLOCK ADDRESS 0x195d ===
  0x195d	dec    	eax
  0x195e	mov    	ecx, eax
  0x1960	call   	0x18ec
  === BLOCK LINK ===
    0x1965
=== CODE BLOCK END ===

=== CODE BLOCK ADDRESS 0x1965 ===
  0x1965	dec    	eax
  0x1966	test   	eax, eax
  0x1968	je     	0x1985
  === BLOCK LINK ===
    0x196a
=== CODE BLOCK END ===

=== CODE BLOCK ADDRESS 0x196a ===
  0x196a	mov    	ecx, 2
  0x196f	cmp    	word ptr [eax + 0x5c], cx
  0x1973	jne    	0x1979
  === BLOCK LINK ===
    0x1975
=== CODE BLOCK END ===

=== CODE BLOCK ADDRESS 0x1975 ===
  0x1975	mov    	eax, ecx
  0x1977	jmp    	0x1987
  === BLOCK LINK ===
    0x1979
=== CODE BLOCK END ===

=== CODE BLOCK ADDRESS 0x1979 ===
  0x1979	cmp    	word ptr [eax + 0x5c], 3
  0x197e	mov    	eax, 1
  0x1983	je     	0x1987
  === BLOCK LINK ===
    0x1985
=== CODE BLOCK END ===

=== CODE BLOCK ADDRESS 0x1985 ===
  0x1985	mov    	eax, ebx
  0x1987	dec    	eax
  0x1988	add    	esp, 0x20
  0x198b	pop    	ebx
  0x198c	ret    	
  === BLOCK LINK ===
    0x198d
=== CODE BLOCK END ===

=== CODE BLOCK ADDRESS 0x1308 ===
  0x1308	add    	edi, esi
  0x130a	cmp    	edi, 0x5aa6
  0x1310	jbe    	0x12a9
  === BLOCK LINK ===
    0x1312
=== CODE BLOCK END ===

=== CODE BLOCK ADDRESS 0x198d ===
  0x198d	int3   	
  0x198e	int3   	
  0x198f	int3   	
  0x1990	int3   	
  0x1991	int3   	
  === BLOCK LINK ===
    0x1992
=== CODE BLOCK END ===

=== CODE BLOCK ADDRESS 0x1992 ===
  0x1992	int3   	
  0x1993	jmp    	dword ptr [0x8af]
  === BLOCK LINK ===
    0x1999
=== CODE BLOCK END ===

=== CODE BLOCK ADDRESS 0x1999 ===
  0x1999	int3   	
  0x199a	int3   	
  0x199b	int3   	
  0x199c	int3   	
  0x199d	int3   	
  === BLOCK LINK ===
    0x199e
=== CODE BLOCK END ===

=== CODE BLOCK ADDRESS 0x199e ===
  0x199e	int3   	
  0x199f	int3   	
  0x19a0	xor    	eax, eax
  0x19a2	ret    	
  0x19a3	int3   	
  === BLOCK LINK ===
    0x19a4
=== CODE BLOCK END ===

=== CODE BLOCK ADDRESS 0x12b3 ===
  0x12b3	cmp    	edi, dword ptr [eax]
  0x12b5	je     	0x1308
  === BLOCK LINK ===
    0x12b7
    0x1308
=== CODE BLOCK END ===

=== CODE BLOCK ADDRESS 0x19a4 ===
  0x19a4	int3   	
  0x19a5	int3   	
  0x19a6	int3   	
  0x19a7	int3   	
  0x19a8	int3   	
  === BLOCK LINK ===
    0x19a9
=== CODE BLOCK END ===

=== CODE BLOCK ADDRESS 0x19a9 ===
  0x19a9	int3   	
  0x19aa	int3   	
  0x19ab	int3   	
  0x19ac	int3   	
  0x19ad	int3   	
  === BLOCK LINK ===
    0x19ae
=== CODE BLOCK END ===

=== CODE BLOCK ADDRESS 0x19ae ===
  0x19ae	int3   	
  0x19af	int3   	
  0x19b0	dec    	esp
  0x19b1	arpl   	word ptr [ecx + 0x3c], ax
  0x19b4	inc    	ebp
  === BLOCK LINK ===
    0x19b5
=== CODE BLOCK END ===

=== CODE BLOCK ADDRESS 0x19b5 ===
  0x19b5	xor    	ecx, ecx
  0x19b7	dec    	esp
  0x19b8	add    	eax, ecx
  0x19ba	dec    	esp
  0x19bb	mov    	edx, edx
  === BLOCK LINK ===
    0x19bd
=== CODE BLOCK END ===

=== CODE BLOCK ADDRESS 0x19bd ===
  0x19bd	inc    	ecx
  0x19be	movzx  	eax, word ptr [eax + 0x14]
  0x19c2	inc    	ebp
  0x19c3	movzx  	ebx, word ptr [eax + 6]
  0x19c7	dec    	eax
  === BLOCK LINK ===
    0x19c8
=== CODE BLOCK END ===

=== CODE BLOCK ADDRESS 0x19c8 ===
  0x19c8	add    	eax, 0x18
  0x19cb	dec    	ecx
  0x19cc	add    	eax, eax
  0x19ce	inc    	ebp
  0x19cf	test   	ebx, ebx
  === BLOCK LINK ===
    0x19d1
=== CODE BLOCK END ===

=== CODE BLOCK ADDRESS 0x19d1 ===
  0x19d1	je     	0x19f1
  === BLOCK LINK ===
    0x19d3
=== CODE BLOCK END ===

=== CODE BLOCK ADDRESS 0x19d3 ===
  0x19d3	mov    	edx, dword ptr [eax + 0xc]
  0x19d6	dec    	esp
  0x19d7	cmp    	edx, edx
  0x19d9	jb     	0x19e5
  === BLOCK LINK ===
    0x19db
=== CODE BLOCK END ===

=== CODE BLOCK ADDRESS 0x19db ===
  0x19db	mov    	ecx, dword ptr [eax + 8]
  0x19de	add    	ecx, edx
  0x19e0	dec    	esp
  0x19e1	cmp    	edx, ecx
  0x19e3	jb     	0x19f3
  === BLOCK LINK ===
    0x19e5
=== CODE BLOCK END ===

=== CODE BLOCK ADDRESS 0x19e5 ===
  0x19e5	inc    	ecx
  0x19e6	inc    	ecx
  0x19e8	dec    	eax
  0x19e9	add    	eax, 0x28
  0x19ec	inc    	ebp
  === BLOCK LINK ===
    0x19ed
=== CODE BLOCK END ===

=== CODE BLOCK ADDRESS 0x19ed ===
  0x19ed	cmp    	ecx, ebx
  0x19ef	jb     	0x19d3
  === BLOCK LINK ===
    0x19f1
=== CODE BLOCK END ===

=== CODE BLOCK ADDRESS 0x19f1 ===
  0x19f1	xor    	eax, eax
  0x19f3	ret    	
  0x19f4	int3   	
  0x19f5	int3   	
  0x19f6	int3   	
  === BLOCK LINK ===
    0x19f7
=== CODE BLOCK END ===

=== CODE BLOCK ADDRESS 0x19f7 ===
  0x19f7	int3   	
  0x19f8	int3   	
  0x19f9	int3   	
  0x19fa	int3   	
  0x19fb	int3   	
  === BLOCK LINK ===
    0x19fc
=== CODE BLOCK END ===

=== CODE BLOCK ADDRESS 0x19fc ===
  0x19fc	int3   	
  0x19fd	int3   	
  0x19fe	int3   	
  0x19ff	int3   	
  0x1a00	dec    	eax
  === BLOCK LINK ===
    0x1a01
=== CODE BLOCK END ===

=== CODE BLOCK ADDRESS 0x1a01 ===
  0x1a01	mov    	dword ptr [esp + 8], ebx
  0x1a05	push   	edi
  0x1a06	dec    	eax
  0x1a07	sub    	esp, 0x20
  0x1a0a	dec    	eax
  === BLOCK LINK ===
    0x1a0b
=== CODE BLOCK END ===

=== CODE BLOCK ADDRESS 0x1a0b ===
  0x1a0b	mov    	ebx, ecx
  0x1a0d	dec    	eax
  0x1a0e	lea    	edi, [0xffffe5ec]
  0x1a14	dec    	eax
  0x1a15	mov    	ecx, edi
  === BLOCK LINK ===
    0x1a17
=== CODE BLOCK END ===

=== CODE BLOCK ADDRESS 0x1a17 ===
  0x1a17	call   	0x1a60
  === BLOCK LINK ===
    0x1a1c
=== CODE BLOCK END ===

=== CODE BLOCK ADDRESS 0x1a1c ===
  0x1a1c	test   	eax, eax
  0x1a1e	je     	0x1a42
  === BLOCK LINK ===
    0x1a20
=== CODE BLOCK END ===

=== CODE BLOCK ADDRESS 0x1a20 ===
  0x1a20	dec    	eax
  0x1a21	sub    	ebx, edi
  0x1a23	dec    	eax
  0x1a24	mov    	edx, ebx
  0x1a26	dec    	eax
  === BLOCK LINK ===
    0x1a27
=== CODE BLOCK END ===

=== CODE BLOCK ADDRESS 0x1a27 ===
  0x1a27	mov    	ecx, edi
  0x1a29	call   	0x19b0
  === BLOCK LINK ===
    0x1a2e
=== CODE BLOCK END ===

=== CODE BLOCK ADDRESS 0x1a2e ===
  0x1a2e	dec    	eax
  0x1a2f	test   	eax, eax
  0x1a31	je     	0x1a42
  === BLOCK LINK ===
    0x1a33
=== CODE BLOCK END ===

=== CODE BLOCK ADDRESS 0x1a33 ===
  0x1a33	mov    	eax, dword ptr [eax + 0x24]
  0x1a36	shr    	eax, 0x1f
  0x1a39	not    	eax
  0x1a3b	and    	eax, 1
  0x1a3e	jmp    	0x1a42
  === BLOCK LINK ===
    0x1a40
=== CODE BLOCK END ===

=== CODE BLOCK ADDRESS 0x1a40 ===
  0x1a40	xor    	eax, eax
  0x1a42	dec    	eax
  0x1a43	mov    	ebx, dword ptr [esp + 0x30]
  0x1a47	dec    	eax
  0x1a48	add    	esp, 0x20
  === BLOCK LINK ===
    0x1a4b
=== CODE BLOCK END ===

=== CODE BLOCK ADDRESS 0x1a4b ===
  0x1a4b	pop    	edi
  0x1a4c	ret    	
  0x1a4d	int3   	
  0x1a4e	int3   	
  0x1a4f	int3   	
  === BLOCK LINK ===
    0x1a50
=== CODE BLOCK END ===

=== CODE BLOCK ADDRESS 0x1a50 ===
  0x1a50	int3   	
  0x1a51	int3   	
  0x1a52	int3   	
  0x1a53	int3   	
  0x1a54	int3   	
  === BLOCK LINK ===
    0x1a55
=== CODE BLOCK END ===

=== CODE BLOCK ADDRESS 0x1a55 ===
  0x1a55	int3   	
  0x1a56	int3   	
  0x1a57	int3   	
  0x1a58	int3   	
  0x1a59	int3   	
  === BLOCK LINK ===
    0x1a5a
=== CODE BLOCK END ===

=== CODE BLOCK ADDRESS 0x1a5a ===
  0x1a5a	int3   	
  0x1a5b	int3   	
  0x1a5c	int3   	
  0x1a5d	int3   	
  0x1a5e	int3   	
  === BLOCK LINK ===
    0x1a5f
=== CODE BLOCK END ===

=== CODE BLOCK ADDRESS 0x1a5f ===
  0x1a5f	int3   	
  0x1a60	mov    	eax, 0x5a4d
  0x1a65	cmp    	word ptr [ecx], ax
  0x1a68	jne    	0x1a8a
  === BLOCK LINK ===
    0x1a6a
=== CODE BLOCK END ===

=== CODE BLOCK ADDRESS 0x1a6a ===
  0x1a6a	dec    	eax
  0x1a6b	arpl   	word ptr [ecx + 0x3c], ax
  0x1a6e	dec    	eax
  0x1a6f	add    	eax, ecx
  0x1a71	cmp    	dword ptr [eax], 0x4550
  === BLOCK LINK ===
    0x1a77
=== CODE BLOCK END ===

=== CODE BLOCK ADDRESS 0x1a77 ===
  0x1a77	jne    	0x1a8a
  === BLOCK LINK ===
    0x1a79
=== CODE BLOCK END ===

=== CODE BLOCK ADDRESS 0x1a79 ===
  0x1a79	mov    	ecx, 0x20b
  0x1a7e	cmp    	word ptr [eax + 0x18], cx
  0x1a82	jne    	0x1a8a
  === BLOCK LINK ===
    0x1a84
=== CODE BLOCK END ===

=== CODE BLOCK ADDRESS 0x1a84 ===
  0x1a84	mov    	eax, 1
  0x1a89	ret    	
  0x1a8a	xor    	eax, eax
  0x1a8c	ret    	
  0x1a8d	int3   	
  === BLOCK LINK ===
    0x1a8e
=== CODE BLOCK END ===

=== CODE BLOCK ADDRESS 0x1374 ===
  0x1374	mov    	edi, 0x104
  0x1379	dec    	eax
  === BLOCK LINK ===
    0x137a
=== CODE BLOCK END ===

=== CODE BLOCK ADDRESS 0x1a8e ===
  0x1a8e	int3   	
  0x1a8f	int3   	
  0x1a90	int3   	
  0x1a91	int3   	
  0x1a92	int3   	
  === BLOCK LINK ===
    0x1a93
=== CODE BLOCK END ===

=== CODE BLOCK ADDRESS 0x1a93 ===
  0x1a93	int3   	
  0x1a94	dec    	eax
  0x1a95	mov    	dword ptr [esp + 0x20], ebx
  0x1a99	push   	ebp
  0x1a9a	dec    	eax
  === BLOCK LINK ===
    0x1a9b
=== CODE BLOCK END ===

=== CODE BLOCK ADDRESS 0x1a9b ===
  0x1a9b	mov    	ebp, esp
  0x1a9d	dec    	eax
  0x1a9e	sub    	esp, 0x20
  0x1aa1	dec    	eax
  0x1aa2	and    	dword ptr [ebp + 0x18], 0
  === BLOCK LINK ===
    0x1aa6
=== CODE BLOCK END ===

=== CODE BLOCK ADDRESS 0x1aa6 ===
  0x1aa6	dec    	eax
  0x1aa7	mov    	ebx, 0x2ddfa232
  0x1aac	cdq    	
  0x1aad	sub    	eax, dword ptr [eax]
  0x1aaf	add    	byte ptr [eax - 0x75], cl
  === BLOCK LINK ===
    0x1ab2
=== CODE BLOCK END ===

=== CODE BLOCK ADDRESS 0x1ab2 ===
  0x1ab2	add    	eax, 0x1551
  0x1ab7	dec    	eax
  0x1ab8	cmp    	eax, ebx
  0x1aba	jne    	0x1b53
  === BLOCK LINK ===
    0x1ac0
=== CODE BLOCK END ===

=== CODE BLOCK ADDRESS 0x1ac0 ===
  0x1ac0	dec    	eax
  0x1ac1	lea    	ecx, [ebp + 0x18]
  0x1ac4	call   	dword ptr [0x6e6]
  === BLOCK LINK ===
    0x1aca
=== CODE BLOCK END ===

=== CODE BLOCK ADDRESS 0x1aca ===
  0x1aca	dec    	eax
  0x1acb	mov    	eax, dword ptr [ebp + 0x18]
  0x1ace	dec    	eax
  0x1acf	mov    	dword ptr [ebp + 0x10], eax
  0x1ad2	call   	dword ptr [0x6e8]
  === BLOCK LINK ===
    0x1ad8
=== CODE BLOCK END ===

=== CODE BLOCK ADDRESS 0x1ad8 ===
  0x1ad8	mov    	eax, eax
  0x1ada	dec    	eax
  0x1adb	xor    	dword ptr [ebp + 0x10], eax
  0x1ade	call   	dword ptr [0x6d4]
  === BLOCK LINK ===
    0x1ae4
=== CODE BLOCK END ===

=== CODE BLOCK ADDRESS 0x1ae4 ===
  0x1ae4	mov    	eax, eax
  0x1ae6	dec    	eax
  0x1ae7	xor    	dword ptr [ebp + 0x10], eax
  0x1aea	call   	dword ptr [0x6b8]
  === BLOCK LINK ===
    0x1af0
=== CODE BLOCK END ===

=== CODE BLOCK ADDRESS 0x1af0 ===
  0x1af0	mov    	eax, eax
  0x1af2	dec    	eax
  0x1af3	shl    	eax, 0x18
  0x1af6	dec    	eax
  0x1af7	xor    	dword ptr [ebp + 0x10], eax
  === BLOCK LINK ===
    0x1afa
=== CODE BLOCK END ===

=== CODE BLOCK ADDRESS 0x1afa ===
  0x1afa	call   	dword ptr [0x6a8]
  === BLOCK LINK ===
    0x1b00
=== CODE BLOCK END ===

=== CODE BLOCK ADDRESS 0x1b00 ===
  0x1b00	mov    	eax, eax
  0x1b02	dec    	eax
  0x1b03	lea    	ecx, [ebp + 0x10]
  0x1b06	dec    	eax
  0x1b07	xor    	eax, dword ptr [ebp + 0x10]
  === BLOCK LINK ===
    0x1b0a
=== CODE BLOCK END ===

=== CODE BLOCK ADDRESS 0x1b0a ===
  0x1b0a	dec    	eax
  0x1b0b	xor    	eax, ecx
  0x1b0d	dec    	eax
  0x1b0e	lea    	ecx, [ebp + 0x20]
  0x1b11	dec    	eax
  === BLOCK LINK ===
    0x1b12
=== CODE BLOCK END ===

=== CODE BLOCK ADDRESS 0x1b12 ===
  0x1b12	mov    	dword ptr [ebp + 0x10], eax
  0x1b15	call   	dword ptr [0x6ad]
  === BLOCK LINK ===
    0x1b1b
=== CODE BLOCK END ===

=== CODE BLOCK ADDRESS 0x1b1b ===
  0x1b1b	mov    	eax, dword ptr [ebp + 0x20]
  0x1b1e	dec    	eax
  0x1b1f	mov    	ecx, 0xffffffff
  0x1b24	.byte  	0xff
  0x1b25	inc    	dword ptr [eax]
  === BLOCK LINK ===
    0x1b27
=== CODE BLOCK END ===

=== CODE BLOCK ADDRESS 0x1b27 ===
  0x1b27	add    	byte ptr [eax - 0x3f], cl
  0x1b2a	loopne  	0x1b4c
  === BLOCK LINK ===
    0x1b2c
=== CODE BLOCK END ===

=== CODE BLOCK ADDRESS 0x1b2c ===
  0x1b2c	dec    	eax
  0x1b2d	xor    	eax, dword ptr [ebp + 0x20]
  0x1b30	dec    	eax
  0x1b31	xor    	eax, dword ptr [ebp + 0x10]
  0x1b34	dec    	eax
  === BLOCK LINK ===
    0x1b35
=== CODE BLOCK END ===

=== CODE BLOCK ADDRESS 0x1b35 ===
  0x1b35	and    	eax, ecx
  0x1b37	dec    	eax
  0x1b38	mov    	ecx, eax
  0x1b3a	dec    	eax
  0x1b3b	cmp    	eax, ebx
  === BLOCK LINK ===
    0x1b3d
=== CODE BLOCK END ===

=== CODE BLOCK ADDRESS 0x1b3d ===
  0x1b3d	jne    	0x1b4c
  === BLOCK LINK ===
    0x1b3f
=== CODE BLOCK END ===

=== CODE BLOCK ADDRESS 0x1b3f ===
  0x1b3f	dec    	eax
  0x1b40	mov    	eax, 0x2ddfa233
  0x1b45	cdq    	
  0x1b46	sub    	eax, dword ptr [eax]
  0x1b48	add    	byte ptr [eax - 0x75], cl
  === BLOCK LINK ===
    0x1b4b
=== CODE BLOCK END ===

=== CODE BLOCK ADDRESS 0x1b4b ===
  0x1b4b	enter  	-0x76b8, 0xd
  0x1b4f	mov    	ch, 0x14
  0x1b51	add    	byte ptr [eax], al
  0x1b53	dec    	eax
  0x1b54	mov    	ebx, dword ptr [esp + 0x48]
  === BLOCK LINK ===
    0x1b58
=== CODE BLOCK END ===

=== CODE BLOCK ADDRESS 0x1b58 ===
  0x1b58	dec    	eax
  0x1b59	not    	eax
  0x1b5b	dec    	eax
  0x1b5c	mov    	dword ptr [0x14ae], eax
  0x1b62	dec    	eax
  === BLOCK LINK ===
    0x1b63
=== CODE BLOCK END ===

=== CODE BLOCK ADDRESS 0x1b63 ===
  0x1b63	add    	esp, 0x20
  0x1b66	pop    	ebp
  0x1b67	ret    	
  0x1b68	int3   	
  0x1b69	int3   	
  === BLOCK LINK ===
    0x1b6a
=== CODE BLOCK END ===

=== CODE BLOCK ADDRESS 0x12a9 ===
  0x12a9	inc    	ecx
  0x12aa	mov    	ecx, esp
  0x12ac	dec    	eax
  === BLOCK LINK ===
    0x12ad
=== CODE BLOCK END ===

=== CODE BLOCK ADDRESS 0x1b6a ===
  0x1b6a	int3   	
  0x1b6b	int3   	
  0x1b6c	int3   	
  0x1b6d	int3   	
  0x1b6e	jmp    	dword ptr [0x694]
  === BLOCK LINK ===
    0x1b74
=== CODE BLOCK END ===

=== CODE BLOCK ADDRESS 0x1b74 ===
  0x1b74	int3   	
  0x1b75	int3   	
  0x1b76	int3   	
  0x1b77	int3   	
  0x1b78	int3   	
  === BLOCK LINK ===
    0x1b79
=== CODE BLOCK END ===

=== CODE BLOCK ADDRESS 0x1b79 ===
  0x1b79	int3   	
  0x1b7a	jmp    	dword ptr [0x690]
  === BLOCK LINK ===
    0x1b80
=== CODE BLOCK END ===

=== CODE BLOCK ADDRESS 0x1b80 ===
  0x1b80	int3   	
  0x1b81	int3   	
  0x1b82	int3   	
  0x1b83	int3   	
  0x1b84	int3   	
  === BLOCK LINK ===
    0x1b85
=== CODE BLOCK END ===

=== CODE BLOCK ADDRESS 0x1b85 ===
  0x1b85	int3   	
  0x1b86	int3   	
  0x1b87	int3   	
  0x1b88	int3   	
  0x1b89	int3   	
  === BLOCK LINK ===
    0x1b8a
=== CODE BLOCK END ===

=== CODE BLOCK ADDRESS 0x1b8a ===
  0x1b8a	int3   	
  0x1b8b	int3   	
  0x1b8c	int3   	
  0x1b8d	int3   	
  0x1b8e	int3   	
  === BLOCK LINK ===
    0x1b8f
=== CODE BLOCK END ===

=== CODE BLOCK ADDRESS 0x1b8f ===
  0x1b8f	int3   	
  0x1b90	ret    	0
  0x1b93	int3   	
  0x1b94	int3   	
  0x1b95	int3   	
  === BLOCK LINK ===
    0x1b96
=== CODE BLOCK END ===

=== CODE BLOCK ADDRESS 0x1b96 ===
  0x1b96	int3   	
  0x1b97	int3   	
  0x1b98	int3   	
  0x1b99	int3   	
  0x1b9a	int3   	
  === BLOCK LINK ===
    0x1b9b
=== CODE BLOCK END ===

=== CODE BLOCK ADDRESS 0x1b9b ===
  0x1b9b	int3   	
  0x1b9c	inc    	eax
  0x1b9d	push   	ebx
  0x1b9e	dec    	eax
  0x1b9f	sub    	esp, 0x20
  === BLOCK LINK ===
    0x1ba2
=== CODE BLOCK END ===

=== CODE BLOCK ADDRESS 0x1ba2 ===
  0x1ba2	dec    	eax
  0x1ba3	mov    	ebx, ecx
  0x1ba5	xor    	ecx, ecx
  0x1ba7	call   	dword ptr [0x62b]
  === BLOCK LINK ===
    0x1bad
=== CODE BLOCK END ===

=== CODE BLOCK ADDRESS 0x1bad ===
  0x1bad	dec    	eax
  0x1bae	mov    	ecx, ebx
  0x1bb0	call   	dword ptr [0x5d2]
  === BLOCK LINK ===
    0x1bb6
=== CODE BLOCK END ===

=== CODE BLOCK ADDRESS 0x1bb6 ===
  0x1bb6	call   	dword ptr [0x5c4]
  === BLOCK LINK ===
    0x1bbc
=== CODE BLOCK END ===

=== CODE BLOCK ADDRESS 0x1bbc ===
  0x1bbc	dec    	eax
  0x1bbd	mov    	ecx, eax
  0x1bbf	mov    	edx, 0xc0000409
  0x1bc4	dec    	eax
  0x1bc5	add    	esp, 0x20
  === BLOCK LINK ===
    0x1bc8
=== CODE BLOCK END ===

=== CODE BLOCK ADDRESS 0x1bc8 ===
  0x1bc8	pop    	ebx
  0x1bc9	dec    	eax
  0x1bca	jmp    	dword ptr [0x618]
  === BLOCK LINK ===
    0x1bd0
=== CODE BLOCK END ===

=== CODE BLOCK ADDRESS 0x1bd0 ===
  0x1bd0	int3   	
  0x1bd1	int3   	
  0x1bd2	int3   	
  0x1bd3	int3   	
  0x1bd4	int3   	
  === BLOCK LINK ===
    0x1bd5
=== CODE BLOCK END ===

=== CODE BLOCK ADDRESS 0x1bd5 ===
  0x1bd5	int3   	
  0x1bd6	int3   	
  0x1bd7	int3   	
  0x1bd8	int3   	
  0x1bd9	int3   	
  === BLOCK LINK ===
    0x1bda
=== CODE BLOCK END ===

=== CODE BLOCK ADDRESS 0x1bda ===
  0x1bda	int3   	
  0x1bdb	int3   	
  0x1bdc	int3   	
  0x1bdd	int3   	
  0x1bde	int3   	
  === BLOCK LINK ===
    0x1bdf
=== CODE BLOCK END ===

=== CODE BLOCK ADDRESS 0x1bdf ===
  0x1bdf	int3   	
  0x1be0	dec    	eax
  0x1be1	mov    	dword ptr [esp + 8], ecx
  0x1be5	dec    	eax
  0x1be6	sub    	esp, 0x88
  === BLOCK LINK ===
    0x1bec
=== CODE BLOCK END ===

=== CODE BLOCK ADDRESS 0x1bec ===
  0x1bec	dec    	eax
  0x1bed	lea    	ecx, [0x150d]
  0x1bf3	call   	dword ptr [0x5a7]
  === BLOCK LINK ===
    0x1bf9
=== CODE BLOCK END ===

=== CODE BLOCK ADDRESS 0x1bf9 ===
  0x1bf9	dec    	eax
  0x1bfa	mov    	eax, dword ptr [0x15f8]
  0x1c00	dec    	eax
  0x1c01	mov    	dword ptr [esp + 0x48], eax
  0x1c05	inc    	ebp
  === BLOCK LINK ===
    0x1c06
=== CODE BLOCK END ===

=== CODE BLOCK ADDRESS 0x1c06 ===
  0x1c06	xor    	eax, eax
  0x1c08	dec    	eax
  0x1c09	lea    	edx, [esp + 0x50]
  0x1c0d	dec    	eax
  0x1c0e	mov    	ecx, dword ptr [esp + 0x48]
  === BLOCK LINK ===
    0x1c12
=== CODE BLOCK END ===

=== CODE BLOCK ADDRESS 0x1c12 ===
  0x1c12	call   	dword ptr [0x580]
  === BLOCK LINK ===
    0x1c18
=== CODE BLOCK END ===

=== CODE BLOCK ADDRESS 0x1c18 ===
  0x1c18	dec    	eax
  0x1c19	mov    	dword ptr [esp + 0x40], eax
  0x1c1d	dec    	eax
  0x1c1e	cmp    	dword ptr [esp + 0x40], 0
  0x1c23	je     	0x1c67
  === BLOCK LINK ===
    0x1c25
=== CODE BLOCK END ===

=== CODE BLOCK ADDRESS 0x1c25 ===
  0x1c25	dec    	eax
  0x1c26	mov    	dword ptr [esp + 0x38], 0
  0x1c2e	dec    	eax
  0x1c2f	lea    	eax, [esp + 0x58]
  0x1c33	dec    	eax
  === BLOCK LINK ===
    0x1c34
=== CODE BLOCK END ===

=== CODE BLOCK ADDRESS 0x1c34 ===
  0x1c34	mov    	dword ptr [esp + 0x30], eax
  0x1c38	dec    	eax
  0x1c39	lea    	eax, [esp + 0x60]
  0x1c3d	dec    	eax
  0x1c3e	mov    	dword ptr [esp + 0x28], eax
  === BLOCK LINK ===
    0x1c42
=== CODE BLOCK END ===

=== CODE BLOCK ADDRESS 0x1c42 ===
  0x1c42	dec    	eax
  0x1c43	lea    	eax, [0x14b7]
  0x1c49	dec    	eax
  0x1c4a	mov    	dword ptr [esp + 0x20], eax
  0x1c4e	dec    	esp
  === BLOCK LINK ===
    0x1c4f
=== CODE BLOCK END ===

=== CODE BLOCK ADDRESS 0x1c4f ===
  0x1c4f	mov    	ecx, dword ptr [esp + 0x40]
  0x1c53	dec    	esp
  0x1c54	mov    	eax, dword ptr [esp + 0x48]
  0x1c58	dec    	eax
  0x1c59	mov    	edx, dword ptr [esp + 0x50]
  === BLOCK LINK ===
    0x1c5d
=== CODE BLOCK END ===

=== CODE BLOCK ADDRESS 0x1c5d ===
  0x1c5d	xor    	ecx, ecx
  0x1c5f	call   	dword ptr [0x52b]
  === BLOCK LINK ===
    0x1c65
=== CODE BLOCK END ===

=== CODE BLOCK ADDRESS 0x1c65 ===
  0x1c65	jmp    	0x1c8a
  === BLOCK LINK ===
    0x1c67
=== CODE BLOCK END ===

=== CODE BLOCK ADDRESS 0x1c67 ===
  0x1c67	dec    	eax
  0x1c68	mov    	eax, dword ptr [0x152a]
  0x1c6e	dec    	eax
  0x1c6f	mov    	eax, dword ptr [eax]
  0x1c71	dec    	eax
  === BLOCK LINK ===
    0x1c72
=== CODE BLOCK END ===

=== CODE BLOCK ADDRESS 0x1c72 ===
  0x1c72	mov    	dword ptr [0x1580], eax
  0x1c78	dec    	eax
  0x1c79	mov    	eax, dword ptr [0x1519]
  0x1c7f	dec    	eax
  0x1c80	add    	eax, 8
  === BLOCK LINK ===
    0x1c83
=== CODE BLOCK END ===

=== CODE BLOCK ADDRESS 0x1c83 ===
  0x1c83	dec    	eax
  0x1c84	mov    	dword ptr [0x150e], eax
  0x1c8a	dec    	eax
  0x1c8b	mov    	eax, dword ptr [0x1567]
  0x1c91	dec    	eax
  === BLOCK LINK ===
    0x1c92
=== CODE BLOCK END ===

=== CODE BLOCK ADDRESS 0x1c92 ===
  0x1c92	mov    	dword ptr [0x13d8], eax
  0x1c98	dec    	eax
  0x1c99	mov    	eax, dword ptr [esp + 0x90]
  0x1ca0	dec    	eax
  0x1ca1	mov    	dword ptr [0x14d9], eax
  === BLOCK LINK ===
    0x1ca7
=== CODE BLOCK END ===

=== CODE BLOCK ADDRESS 0x1ca7 ===
  0x1ca7	mov    	dword ptr [0x13af], 0xc0000409
  0x1cb1	mov    	dword ptr [0x13a9], 1
  0x1cbb	mov    	dword ptr [0x13b3], 3
  0x1cc5	mov    	eax, 8
  0x1cca	dec    	eax
  === BLOCK LINK ===
    0x1ccb
=== CODE BLOCK END ===

=== CODE BLOCK ADDRESS 0x1ccb ===
  0x1ccb	imul   	eax, eax, 0
  0x1cce	dec    	eax
  0x1ccf	lea    	ecx, [0x13ab]
  0x1cd5	dec    	eax
  0x1cd6	mov    	dword ptr [ecx + eax], 2
  === BLOCK LINK ===
    0x1cdd
=== CODE BLOCK END ===

=== CODE BLOCK ADDRESS 0x1cdd ===
  0x1cdd	mov    	eax, 8
  0x1ce2	dec    	eax
  0x1ce3	imul   	eax, eax, 1
  0x1ce6	dec    	eax
  0x1ce7	lea    	ecx, [0x1393]
  === BLOCK LINK ===
    0x1ced
=== CODE BLOCK END ===

=== CODE BLOCK ADDRESS 0x1ced ===
  0x1ced	dec    	eax
  0x1cee	mov    	edx, dword ptr [0x1314]
  0x1cf4	dec    	eax
  0x1cf5	mov    	dword ptr [ecx + eax], edx
  0x1cf8	mov    	eax, 8
  === BLOCK LINK ===
    0x1cfd
=== CODE BLOCK END ===

=== CODE BLOCK ADDRESS 0x1cfd ===
  0x1cfd	dec    	eax
  0x1cfe	imul   	eax, eax, 2
  0x1d01	dec    	eax
  0x1d02	lea    	ecx, [0x1378]
  0x1d08	dec    	eax
  === BLOCK LINK ===
    0x1d09
=== CODE BLOCK END ===

=== CODE BLOCK ADDRESS 0x1d09 ===
  0x1d09	mov    	edx, dword ptr [0x1301]
  0x1d0f	dec    	eax
  0x1d10	mov    	dword ptr [ecx + eax], edx
  0x1d13	mov    	eax, 8
  0x1d18	dec    	eax
  === BLOCK LINK ===
    0x1d19
=== CODE BLOCK END ===

=== CODE BLOCK ADDRESS 0x1d19 ===
  0x1d19	imul   	eax, eax, 0
  0x1d1c	dec    	eax
  0x1d1d	mov    	ecx, dword ptr [0x12e5]
  0x1d23	dec    	eax
  0x1d24	mov    	dword ptr [esp + eax + 0x68], ecx
  === BLOCK LINK ===
    0x1d28
=== CODE BLOCK END ===

=== CODE BLOCK ADDRESS 0x1d28 ===
  0x1d28	mov    	eax, 8
  0x1d2d	dec    	eax
  0x1d2e	imul   	eax, eax, 1
  0x1d31	dec    	eax
  0x1d32	mov    	ecx, dword ptr [0x12d8]
  === BLOCK LINK ===
    0x1d38
=== CODE BLOCK END ===

=== CODE BLOCK ADDRESS 0x1d38 ===
  0x1d38	dec    	eax
  0x1d39	mov    	dword ptr [esp + eax + 0x68], ecx
  0x1d3d	dec    	eax
  0x1d3e	lea    	ecx, [0x2bc]
  0x1d44	call   	0x1b9c
  === BLOCK LINK ===
    0x1d49
=== CODE BLOCK END ===

=== CODE BLOCK ADDRESS 0x1d49 ===
  0x1d49	dec    	eax
  0x1d4a	add    	esp, 0x88
  0x1d50	ret    	
  0x1d51	int3   	
  0x1d52	int3   	
  === BLOCK LINK ===
    0x1d53
=== CODE BLOCK END ===

=== CODE BLOCK ADDRESS 0x1d53 ===
  0x1d53	int3   	
  0x1d54	int3   	
  0x1d55	int3   	
  0x1d56	int3   	
  0x1d57	int3   	
  === BLOCK LINK ===
    0x1d58
=== CODE BLOCK END ===

=== CODE BLOCK ADDRESS 0x1d58 ===
  0x1d58	int3   	
  0x1d59	int3   	
  0x1d5a	int3   	
  0x1d5b	int3   	
  0x1d5c	int3   	
  === BLOCK LINK ===
    0x1d5d
=== CODE BLOCK END ===

=== CODE BLOCK ADDRESS 0x1d5d ===
  0x1d5d	int3   	
  0x1d5e	int3   	
  0x1d5f	int3   	
  0x1d60	int3   	
  0x1d61	int3   	
  === BLOCK LINK ===
    0x1d62
=== CODE BLOCK END ===

=== CODE BLOCK ADDRESS 0x1d62 ===
  0x1d62	int3   	
  0x1d63	int3   	
  0x1d64	int3   	
  0x1d65	int3   	
  0x1d66	int3   	
  === BLOCK LINK ===
    0x1d67
=== CODE BLOCK END ===

=== CODE BLOCK ADDRESS 0x1d67 ===
  0x1d67	int3   	
  0x1d68	dec    	eax
  0x1d69	sub    	esp, 0x28
  0x1d6c	dec    	ebp
  0x1d6d	mov    	eax, dword ptr [ecx + 0x38]
  === BLOCK LINK ===
    0x1d70
=== CODE BLOCK END ===

=== CODE BLOCK ADDRESS 0x1d70 ===
  0x1d70	dec    	eax
  0x1d71	mov    	ecx, edx
  0x1d73	dec    	ecx
  0x1d74	mov    	edx, ecx
  0x1d76	call   	0x1d8c
  === BLOCK LINK ===
    0x1d7b
=== CODE BLOCK END ===

=== CODE BLOCK ADDRESS 0x1d7b ===
  0x1d7b	mov    	eax, 1
  0x1d80	dec    	eax
  0x1d81	add    	esp, 0x28
  0x1d84	ret    	
  0x1d85	int3   	
  === BLOCK LINK ===
    0x1d86
=== CODE BLOCK END ===

=== CODE BLOCK ADDRESS 0x1d86 ===
  0x1d86	int3   	
  0x1d87	int3   	
  0x1d88	int3   	
  0x1d89	int3   	
  0x1d8a	int3   	
  === BLOCK LINK ===
    0x1d8b
=== CODE BLOCK END ===

=== CODE BLOCK ADDRESS 0x1d8b ===
  0x1d8b	int3   	
  0x1d8c	inc    	eax
  0x1d8d	push   	ebx
  0x1d8e	inc    	ebp
  0x1d8f	mov    	ebx, dword ptr [eax]
  === BLOCK LINK ===
    0x1d91
=== CODE BLOCK END ===

=== CODE BLOCK ADDRESS 0x1d91 ===
  0x1d91	dec    	eax
  0x1d92	mov    	ebx, edx
  0x1d94	inc    	ecx
  0x1d95	and    	ebx, 0xfffffff8
  0x1d98	dec    	esp
  === BLOCK LINK ===
    0x1d99
=== CODE BLOCK END ===

=== CODE BLOCK ADDRESS 0x1d99 ===
  0x1d99	mov    	ecx, ecx
  0x1d9b	inc    	ecx
  0x1d9c	test   	byte ptr [eax], 4
  0x1d9f	dec    	esp
  0x1da0	mov    	edx, ecx
  === BLOCK LINK ===
    0x1da2
=== CODE BLOCK END ===

=== CODE BLOCK ADDRESS 0x1da2 ===
  0x1da2	je     	0x1db7
  === BLOCK LINK ===
    0x1da4
=== CODE BLOCK END ===

=== CODE BLOCK ADDRESS 0x1da4 ===
  0x1da4	inc    	ecx
  0x1da5	mov    	eax, dword ptr [eax + 8]
  0x1da8	dec    	ebp
  0x1da9	arpl   	word ptr [eax + 4], dx
  0x1dac	neg    	eax
  === BLOCK LINK ===
    0x1dae
=== CODE BLOCK END ===

=== CODE BLOCK ADDRESS 0x1dae ===
  0x1dae	dec    	esp
  0x1daf	add    	edx, ecx
  0x1db1	dec    	eax
  0x1db2	arpl   	ax, cx
  0x1db4	dec    	esp
  === BLOCK LINK ===
    0x1db5
=== CODE BLOCK END ===

=== CODE BLOCK ADDRESS 0x1db5 ===
  0x1db5	and    	edx, ecx
  0x1db7	dec    	ecx
  0x1db8	arpl   	bx, ax
  0x1dba	dec    	edx
  0x1dbb	mov    	edx, dword ptr [eax + edx]
  === BLOCK LINK ===
    0x1dbe
=== CODE BLOCK END ===

=== CODE BLOCK ADDRESS 0x1dbe ===
  0x1dbe	dec    	eax
  0x1dbf	mov    	eax, dword ptr [ebx + 0x10]
  0x1dc2	mov    	ecx, dword ptr [eax + 8]
  0x1dc5	dec    	eax
  0x1dc6	mov    	eax, dword ptr [ebx + 8]
  === BLOCK LINK ===
    0x1dc9
=== CODE BLOCK END ===

=== CODE BLOCK ADDRESS 0x1dc9 ===
  0x1dc9	test   	byte ptr [ecx + eax + 3], 0xf
  0x1dce	je     	0x1ddb
  === BLOCK LINK ===
    0x1dd0
=== CODE BLOCK END ===

=== CODE BLOCK ADDRESS 0x1dd0 ===
  0x1dd0	movzx  	eax, byte ptr [ecx + eax + 3]
  0x1dd5	and    	eax, 0xfffffff0
  0x1dd8	dec    	esp
  0x1dd9	add    	ecx, eax
  0x1ddb	dec    	esp
  === BLOCK LINK ===
    0x1ddc
=== CODE BLOCK END ===

=== CODE BLOCK ADDRESS 0x1ddc ===
  0x1ddc	xor    	ecx, edx
  0x1dde	dec    	ecx
  0x1ddf	mov    	ecx, ecx
  0x1de1	pop    	ebx
  0x1de2	jmp    	0x1850
  === BLOCK LINK ===
    0x1de7
=== CODE BLOCK END ===

=== CODE BLOCK ADDRESS 0x1de7 ===
  0x1de7	int3   	
  0x1de8	int3   	
  0x1de9	int3   	
  0x1dea	int3   	
  0x1deb	int3   	
  === BLOCK LINK ===
    0x1dec
=== CODE BLOCK END ===

=== CODE BLOCK ADDRESS 0x1dec ===
  0x1dec	int3   	
  0x1ded	int3   	
  0x1dee	int3   	
  0x1def	int3   	
  0x1df0	int3   	
  === BLOCK LINK ===
    0x1df1
=== CODE BLOCK END ===

=== CODE BLOCK ADDRESS 0x1df1 ===
  0x1df1	int3   	
  0x1df2	int3   	
  0x1df3	int3   	
  0x1df4	int3   	
  0x1df5	int3   	
  === BLOCK LINK ===
    0x1df6
=== CODE BLOCK END ===

=== CODE BLOCK ADDRESS 0x1df6 ===
  0x1df6	nop    	word ptr [eax + eax]
  0x1e00	jmp    	eax
  === BLOCK LINK ===
    0x1e02
=== CODE BLOCK END ===

=== CODE BLOCK ADDRESS 0x1e02 ===
  0x1e02	int3   	
  0x1e03	int3   	
  0x1e04	int3   	
  0x1e05	int3   	
  0x1e06	int3   	
  === BLOCK LINK ===
    0x1e07
=== CODE BLOCK END ===

=== CODE BLOCK ADDRESS 0x1e07 ===
  0x1e07	int3   	
  0x1e08	int3   	
  0x1e09	int3   	
  0x1e0a	int3   	
  0x1e0b	int3   	
  === BLOCK LINK ===
    0x1e0c
=== CODE BLOCK END ===

=== CODE BLOCK ADDRESS 0x1e0c ===
  0x1e0c	int3   	
  0x1e0d	int3   	
  0x1e0e	int3   	
  0x1e0f	int3   	
  0x1e10	inc    	eax
  === BLOCK LINK ===
    0x1e11
=== CODE BLOCK END ===

=== CODE BLOCK ADDRESS 0x1e11 ===
  0x1e11	push   	ebp
  0x1e12	dec    	eax
  0x1e13	sub    	esp, 0x20
  0x1e16	dec    	eax
  0x1e17	mov    	ebp, edx
  === BLOCK LINK ===
    0x1e19
=== CODE BLOCK END ===

=== CODE BLOCK ADDRESS 0x1e19 ===
  0x1e19	dec    	eax
  0x1e1a	mov    	eax, dword ptr [ecx]
  0x1e1c	dec    	eax
  0x1e1d	mov    	edx, ecx
  0x1e1f	mov    	ecx, dword ptr [eax]
  === BLOCK LINK ===
    0x1e21
=== CODE BLOCK END ===

=== CODE BLOCK ADDRESS 0x1e21 ===
  0x1e21	call   	0x18de
  === BLOCK LINK ===
    0x1e26
=== CODE BLOCK END ===

=== CODE BLOCK ADDRESS 0x1e26 ===
  0x1e26	nop    	
  0x1e27	dec    	eax
  0x1e28	add    	esp, 0x20
  0x1e2b	pop    	ebp
  0x1e2c	ret    	
  === BLOCK LINK ===
    0x1e2d
=== CODE BLOCK END ===

=== CODE BLOCK ADDRESS 0x1e2d ===
  0x1e2d	int3   	
  0x1e2e	int3   	
  0x1e2f	int3   	
  0x1e30	int3   	
  0x1e31	int3   	
  === BLOCK LINK ===
    0x1e32
=== CODE BLOCK END ===

=== CODE BLOCK ADDRESS 0x1e32 ===
  0x1e32	int3   	
  0x1e33	int3   	
  0x1e34	int3   	
  0x1e35	int3   	
  0x1e36	int3   	
  === BLOCK LINK ===
    0x1e37
=== CODE BLOCK END ===

=== CODE BLOCK ADDRESS 0x1e37 ===
  0x1e37	int3   	
  0x1e38	int3   	
  0x1e39	int3   	
  0x1e3a	int3   	
  0x1e3b	int3   	
  === BLOCK LINK ===
    0x1e3c
=== CODE BLOCK END ===

=== CODE BLOCK ADDRESS 0x1e3c ===
  0x1e3c	int3   	
  0x1e3d	int3   	
  0x1e3e	int3   	
  0x1e3f	int3   	
  0x1e40	inc    	eax
  === BLOCK LINK ===
    0x1e41
=== CODE BLOCK END ===

=== CODE BLOCK ADDRESS 0x1e41 ===
  0x1e41	push   	ebp
  0x1e42	dec    	eax
  0x1e43	sub    	esp, 0x20
  0x1e46	dec    	eax
  0x1e47	mov    	ebp, edx
  === BLOCK LINK ===
    0x1e49
=== CODE BLOCK END ===

=== CODE BLOCK ADDRESS 0x1e49 ===
  0x1e49	dec    	eax
  0x1e4a	mov    	eax, dword ptr [ecx]
  0x1e4c	xor    	ecx, ecx
  0x1e4e	cmp    	dword ptr [eax], 0xc0000005
  0x1e54	sete   	cl
  === BLOCK LINK ===
    0x1e57
=== CODE BLOCK END ===

=== CODE BLOCK ADDRESS 0x1e57 ===
  0x1e57	mov    	eax, ecx
  0x1e59	dec    	eax
  0x1e5a	add    	esp, 0x20
  0x1e5d	pop    	ebp
  0x1e5e	ret    	
  === BLOCK LINK ===
    0x1e5f
=== CODE BLOCK END ===

=== CODE BLOCK ADDRESS 0x1336 ===
  0x1336	dec    	eax
  0x1337	mov    	ecx, ebx
  0x1339	dec    	eax
  === BLOCK LINK ===
    0x133a
=== CODE BLOCK END ===

=== CODE BLOCK ADDRESS 0x1e5f ===
  0x1e5f	int3   	
  0x1e60	add    	byte ptr [eax], al
  0x1e62	add    	byte ptr [eax], al
  0x1e64	add    	byte ptr [eax], al
  0x1e66	add    	byte ptr [eax], al
  === BLOCK LINK ===
    0x1e68
=== CODE BLOCK END ===

=== CODE BLOCK ADDRESS 0x1e68 ===
  0x1e68	add    	byte ptr [eax], al
  0x1e6a	add    	byte ptr [eax], al
  0x1e6c	add    	byte ptr [eax], al
  0x1e6e	add    	byte ptr [eax], al
  0x1e70	add    	byte ptr [eax], al
  === BLOCK LINK ===
    0x1e72
=== CODE BLOCK END ===

=== CODE BLOCK ADDRESS 0x1e72 ===
  0x1e72	add    	byte ptr [eax], al
  0x1e74	add    	byte ptr [eax], al
  0x1e76	add    	byte ptr [eax], al
  0x1e78	add    	byte ptr [eax], al
  0x1e7a	add    	byte ptr [eax], al
  === BLOCK LINK ===
    0x1e7c
=== CODE BLOCK END ===

=== CODE BLOCK ADDRESS 0x1e7c ===
  0x1e7c	add    	byte ptr [eax], al
  0x1e7e	add    	byte ptr [eax], al
  0x1e80	add    	byte ptr [eax], al
  0x1e82	add    	byte ptr [eax], al
  0x1e84	add    	byte ptr [eax], al
  === BLOCK LINK ===
    0x1e86
=== CODE BLOCK END ===

=== CODE BLOCK ADDRESS 0x1e86 ===
  0x1e86	add    	byte ptr [eax], al
  0x1e88	add    	byte ptr [eax], al
  0x1e8a	add    	byte ptr [eax], al
  0x1e8c	add    	byte ptr [eax], al
  0x1e8e	add    	byte ptr [eax], al
  === BLOCK LINK ===
    0x1e90
=== CODE BLOCK END ===

=== CODE BLOCK ADDRESS 0x1e90 ===
  0x1e90	add    	byte ptr [eax], al
  0x1e92	add    	byte ptr [eax], al
  0x1e94	add    	byte ptr [eax], al
  0x1e96	add    	byte ptr [eax], al
  0x1e98	add    	byte ptr [eax], al
  === BLOCK LINK ===
    0x1e9a
=== CODE BLOCK END ===

=== CODE BLOCK ADDRESS 0x1e9a ===
  0x1e9a	add    	byte ptr [eax], al
  0x1e9c	add    	byte ptr [eax], al
  0x1e9e	add    	byte ptr [eax], al
  0x1ea0	add    	byte ptr [eax], al
  0x1ea2	add    	byte ptr [eax], al
  === BLOCK LINK ===
    0x1ea4
=== CODE BLOCK END ===

=== CODE BLOCK ADDRESS 0x1ea4 ===
  0x1ea4	add    	byte ptr [eax], al
  0x1ea6	add    	byte ptr [eax], al
  0x1ea8	add    	byte ptr [eax], al
  0x1eaa	add    	byte ptr [eax], al
  0x1eac	add    	byte ptr [eax], al
  === BLOCK LINK ===
    0x1eae
=== CODE BLOCK END ===

=== CODE BLOCK ADDRESS 0x1eae ===
  0x1eae	add    	byte ptr [eax], al
  0x1eb0	add    	byte ptr [eax], al
  0x1eb2	add    	byte ptr [eax], al
  0x1eb4	add    	byte ptr [eax], al
  0x1eb6	add    	byte ptr [eax], al
  === BLOCK LINK ===
    0x1eb8
=== CODE BLOCK END ===

=== CODE BLOCK ADDRESS 0x1eb8 ===
  0x1eb8	add    	byte ptr [eax], al
  0x1eba	add    	byte ptr [eax], al
  0x1ebc	add    	byte ptr [eax], al
  0x1ebe	add    	byte ptr [eax], al
  0x1ec0	add    	byte ptr [eax], al
  === BLOCK LINK ===
    0x1ec2
=== CODE BLOCK END ===

=== CODE BLOCK ADDRESS 0x1ec2 ===
  0x1ec2	add    	byte ptr [eax], al
  0x1ec4	add    	byte ptr [eax], al
  0x1ec6	add    	byte ptr [eax], al
  0x1ec8	add    	byte ptr [eax], al
  0x1eca	add    	byte ptr [eax], al
  === BLOCK LINK ===
    0x1ecc
=== CODE BLOCK END ===

=== CODE BLOCK ADDRESS 0x1ecc ===
  0x1ecc	add    	byte ptr [eax], al
  0x1ece	add    	byte ptr [eax], al
  0x1ed0	add    	byte ptr [eax], al
  0x1ed2	add    	byte ptr [eax], al
  0x1ed4	add    	byte ptr [eax], al
  === BLOCK LINK ===
    0x1ed6
=== CODE BLOCK END ===

=== CODE BLOCK ADDRESS 0x1ed6 ===
  0x1ed6	add    	byte ptr [eax], al
  0x1ed8	add    	byte ptr [eax], al
  0x1eda	add    	byte ptr [eax], al
  0x1edc	add    	byte ptr [eax], al
  0x1ede	add    	byte ptr [eax], al
  === BLOCK LINK ===
    0x1ee0
=== CODE BLOCK END ===

=== CODE BLOCK ADDRESS 0x1ee0 ===
  0x1ee0	add    	byte ptr [eax], al
  0x1ee2	add    	byte ptr [eax], al
  0x1ee4	add    	byte ptr [eax], al
  0x1ee6	add    	byte ptr [eax], al
  0x1ee8	add    	byte ptr [eax], al
  === BLOCK LINK ===
    0x1eea
=== CODE BLOCK END ===

=== CODE BLOCK ADDRESS 0x1eea ===
  0x1eea	add    	byte ptr [eax], al
  0x1eec	add    	byte ptr [eax], al
  0x1eee	add    	byte ptr [eax], al
  0x1ef0	add    	byte ptr [eax], al
  0x1ef2	add    	byte ptr [eax], al
  === BLOCK LINK ===
    0x1ef4
=== CODE BLOCK END ===

=== CODE BLOCK ADDRESS 0x1ef4 ===
  0x1ef4	add    	byte ptr [eax], al
  0x1ef6	add    	byte ptr [eax], al
  0x1ef8	add    	byte ptr [eax], al
  0x1efa	add    	byte ptr [eax], al
  0x1efc	add    	byte ptr [eax], al
  === BLOCK LINK ===
    0x1efe
=== CODE BLOCK END ===

=== CODE BLOCK ADDRESS 0x1efe ===
  0x1efe	add    	byte ptr [eax], al
  0x1f00	add    	byte ptr [eax], al
  0x1f02	add    	byte ptr [eax], al
  0x1f04	add    	byte ptr [eax], al
  0x1f06	add    	byte ptr [eax], al
  === BLOCK LINK ===
    0x1f08
=== CODE BLOCK END ===

=== CODE BLOCK ADDRESS 0x1f08 ===
  0x1f08	add    	byte ptr [eax], al
  0x1f0a	add    	byte ptr [eax], al
  0x1f0c	add    	byte ptr [eax], al
  0x1f0e	add    	byte ptr [eax], al
  0x1f10	add    	byte ptr [eax], al
  === BLOCK LINK ===
    0x1f12
=== CODE BLOCK END ===

=== CODE BLOCK ADDRESS 0x1f12 ===
  0x1f12	add    	byte ptr [eax], al
  0x1f14	add    	byte ptr [eax], al
  0x1f16	add    	byte ptr [eax], al
  0x1f18	add    	byte ptr [eax], al
  0x1f1a	add    	byte ptr [eax], al
  === BLOCK LINK ===
    0x1f1c
=== CODE BLOCK END ===

=== CODE BLOCK ADDRESS 0x1f1c ===
  0x1f1c	add    	byte ptr [eax], al
  0x1f1e	add    	byte ptr [eax], al
  0x1f20	add    	byte ptr [eax], al
  0x1f22	add    	byte ptr [eax], al
  0x1f24	add    	byte ptr [eax], al
  === BLOCK LINK ===
    0x1f26
=== CODE BLOCK END ===

=== CODE BLOCK ADDRESS 0x1f26 ===
  0x1f26	add    	byte ptr [eax], al
  0x1f28	add    	byte ptr [eax], al
  0x1f2a	add    	byte ptr [eax], al
  0x1f2c	add    	byte ptr [eax], al
  0x1f2e	add    	byte ptr [eax], al
  === BLOCK LINK ===
    0x1f30
=== CODE BLOCK END ===

=== CODE BLOCK ADDRESS 0x1f30 ===
  0x1f30	add    	byte ptr [eax], al
  0x1f32	add    	byte ptr [eax], al
  0x1f34	add    	byte ptr [eax], al
  0x1f36	add    	byte ptr [eax], al
  0x1f38	add    	byte ptr [eax], al
  === BLOCK LINK ===
    0x1f3a
=== CODE BLOCK END ===

=== CODE BLOCK ADDRESS 0x1f3a ===
  0x1f3a	add    	byte ptr [eax], al
  0x1f3c	add    	byte ptr [eax], al
  0x1f3e	add    	byte ptr [eax], al
  0x1f40	add    	byte ptr [eax], al
  0x1f42	add    	byte ptr [eax], al
  === BLOCK LINK ===
    0x1f44
=== CODE BLOCK END ===

=== CODE BLOCK ADDRESS 0x1f44 ===
  0x1f44	add    	byte ptr [eax], al
  0x1f46	add    	byte ptr [eax], al
  0x1f48	add    	byte ptr [eax], al
  0x1f4a	add    	byte ptr [eax], al
  0x1f4c	add    	byte ptr [eax], al
  === BLOCK LINK ===
    0x1f4e
=== CODE BLOCK END ===

=== CODE BLOCK ADDRESS 0x1f4e ===
  0x1f4e	add    	byte ptr [eax], al
  0x1f50	add    	byte ptr [eax], al
  0x1f52	add    	byte ptr [eax], al
  0x1f54	add    	byte ptr [eax], al
  0x1f56	add    	byte ptr [eax], al
  === BLOCK LINK ===
    0x1f58
=== CODE BLOCK END ===

=== CODE BLOCK ADDRESS 0x1f58 ===
  0x1f58	add    	byte ptr [eax], al
  0x1f5a	add    	byte ptr [eax], al
  0x1f5c	add    	byte ptr [eax], al
  0x1f5e	add    	byte ptr [eax], al
  0x1f60	add    	byte ptr [eax], al
  === BLOCK LINK ===
    0x1f62
=== CODE BLOCK END ===

=== CODE BLOCK ADDRESS 0x1f62 ===
  0x1f62	add    	byte ptr [eax], al
  0x1f64	add    	byte ptr [eax], al
  0x1f66	add    	byte ptr [eax], al
  0x1f68	add    	byte ptr [eax], al
  0x1f6a	add    	byte ptr [eax], al
  === BLOCK LINK ===
    0x1f6c
=== CODE BLOCK END ===

=== CODE BLOCK ADDRESS 0x1f6c ===
  0x1f6c	add    	byte ptr [eax], al
  0x1f6e	add    	byte ptr [eax], al
  0x1f70	add    	byte ptr [eax], al
  0x1f72	add    	byte ptr [eax], al
  0x1f74	add    	byte ptr [eax], al
  === BLOCK LINK ===
    0x1f76
=== CODE BLOCK END ===

=== CODE BLOCK ADDRESS 0x1f76 ===
  0x1f76	add    	byte ptr [eax], al
  0x1f78	add    	byte ptr [eax], al
  0x1f7a	add    	byte ptr [eax], al
  0x1f7c	add    	byte ptr [eax], al
  0x1f7e	add    	byte ptr [eax], al
  === BLOCK LINK ===
    0x1f80
=== CODE BLOCK END ===

=== CODE BLOCK ADDRESS 0x1f80 ===
  0x1f80	add    	byte ptr [eax], al
  0x1f82	add    	byte ptr [eax], al
  0x1f84	add    	byte ptr [eax], al
  0x1f86	add    	byte ptr [eax], al
  0x1f88	add    	byte ptr [eax], al
  === BLOCK LINK ===
    0x1f8a
=== CODE BLOCK END ===

=== CODE BLOCK ADDRESS 0x1f8a ===
  0x1f8a	add    	byte ptr [eax], al
  0x1f8c	add    	byte ptr [eax], al
  0x1f8e	add    	byte ptr [eax], al
  0x1f90	add    	byte ptr [eax], al
  0x1f92	add    	byte ptr [eax], al
  === BLOCK LINK ===
    0x1f94
=== CODE BLOCK END ===

=== CODE BLOCK ADDRESS 0x1f94 ===
  0x1f94	add    	byte ptr [eax], al
  0x1f96	add    	byte ptr [eax], al
  0x1f98	add    	byte ptr [eax], al
  0x1f9a	add    	byte ptr [eax], al
  0x1f9c	add    	byte ptr [eax], al
  === BLOCK LINK ===
    0x1f9e
=== CODE BLOCK END ===

=== CODE BLOCK ADDRESS 0x1f9e ===
  0x1f9e	add    	byte ptr [eax], al
  0x1fa0	add    	byte ptr [eax], al
  0x1fa2	add    	byte ptr [eax], al
  0x1fa4	add    	byte ptr [eax], al
  0x1fa6	add    	byte ptr [eax], al
  === BLOCK LINK ===
    0x1fa8
=== CODE BLOCK END ===

=== CODE BLOCK ADDRESS 0x1fa8 ===
  0x1fa8	add    	byte ptr [eax], al
  0x1faa	add    	byte ptr [eax], al
  0x1fac	add    	byte ptr [eax], al
  0x1fae	add    	byte ptr [eax], al
  0x1fb0	add    	byte ptr [eax], al
  === BLOCK LINK ===
    0x1fb2
=== CODE BLOCK END ===

=== CODE BLOCK ADDRESS 0x1fb2 ===
  0x1fb2	add    	byte ptr [eax], al
  0x1fb4	add    	byte ptr [eax], al
  0x1fb6	add    	byte ptr [eax], al
  0x1fb8	add    	byte ptr [eax], al
  0x1fba	add    	byte ptr [eax], al
  === BLOCK LINK ===
    0x1fbc
=== CODE BLOCK END ===

=== CODE BLOCK ADDRESS 0x1fbc ===
  0x1fbc	add    	byte ptr [eax], al
  0x1fbe	add    	byte ptr [eax], al
  0x1fc0	add    	byte ptr [eax], al
  0x1fc2	add    	byte ptr [eax], al
  0x1fc4	add    	byte ptr [eax], al
  === BLOCK LINK ===
    0x1fc6
=== CODE BLOCK END ===

=== CODE BLOCK ADDRESS 0x1fc6 ===
  0x1fc6	add    	byte ptr [eax], al
  0x1fc8	add    	byte ptr [eax], al
  0x1fca	add    	byte ptr [eax], al
  0x1fcc	add    	byte ptr [eax], al
  0x1fce	add    	byte ptr [eax], al
  === BLOCK LINK ===
    0x1fd0
=== CODE BLOCK END ===

=== CODE BLOCK ADDRESS 0x1fd0 ===
  0x1fd0	add    	byte ptr [eax], al
  0x1fd2	add    	byte ptr [eax], al
  0x1fd4	add    	byte ptr [eax], al
  0x1fd6	add    	byte ptr [eax], al
  0x1fd8	add    	byte ptr [eax], al
  === BLOCK LINK ===
    0x1fda
=== CODE BLOCK END ===

=== CODE BLOCK ADDRESS 0x1fda ===
  0x1fda	add    	byte ptr [eax], al
  0x1fdc	add    	byte ptr [eax], al
  0x1fde	add    	byte ptr [eax], al
  0x1fe0	add    	byte ptr [eax], al
  0x1fe2	add    	byte ptr [eax], al
  === BLOCK LINK ===
    0x1fe4
=== CODE BLOCK END ===

=== CODE BLOCK ADDRESS 0x1fe4 ===
  0x1fe4	add    	byte ptr [eax], al
  0x1fe6	add    	byte ptr [eax], al
  0x1fe8	add    	byte ptr [eax], al
  0x1fea	add    	byte ptr [eax], al
  0x1fec	add    	byte ptr [eax], al
  === BLOCK LINK ===
    0x1fee
=== CODE BLOCK END ===

=== CODE BLOCK ADDRESS 0x1fee ===
  0x1fee	add    	byte ptr [eax], al
  0x1ff0	add    	byte ptr [eax], al
  0x1ff2	add    	byte ptr [eax], al
  0x1ff4	add    	byte ptr [eax], al
  0x1ff6	add    	byte ptr [eax], al
  === BLOCK LINK ===
    0x1ff8
=== CODE BLOCK END ===

=== CODE BLOCK ADDRESS 0x1ff8 ===
  0x1ff8	add    	byte ptr [eax], al
  0x1ffa	add    	byte ptr [eax], al
  0x1ffc	add    	byte ptr [eax], al
=== CODE BLOCK END ===

=== DATA BLOCK ADDRESS 0x2000 ===
  0x2000	60 30 00 40 01 00 00 00 00 31 00 40 01 00 00 00 	`00@0000010@0000
  0x2010	18 01 00 00 00 00 00 00 00 00 00 00 00 00 00 00 	0000000000000000
  0x2020	00 00 00 00 00 00 00 00 00 00 00 00 00 00 00 00 	0000000000000000
  0x2030	00 00 00 00 00 00 00 00 00 00 00 00 00 00 00 00 	0000000000000000
  0x2040	00 00 00 00 00 00 00 00 00 00 00 00 00 00 00 00 	0000000000000000
  0x2050	00 00 00 00 00 00 00 00 00 00 00 00 00 00 00 00 	0000000000000000
  0x2060	00 00 00 00 00 00 00 00 08 30 00 40 01 00 00 00 	00000000000@0000
  0x2070	00 00 00 00 00 00 00 00 00 00 00 00 00 00 00 00 	0000000000000000
  0x2080	a8 22 00 40 01 00 00 00 b0 22 00 40 01 00 00 00 	0"0@00000"0@0000
  0x2090	f0 22 00 40 01 00 00 00 08 00 00 00 00 00 00 00 	0"0@000000000000
  0x20a0	00 75 01 00 00 00 00 00 00 00 00 00 00 00 00 00 	0u00000000000000
  0x20b0	00 00 00 00 00 00 00 00 00 00 00 00 00 00 00 00 	0000000000000000
  0x20c0	00 00 00 00 00 00 00 00 00 00 00 00 00 00 00 00 	0000000000000000
  0x20d0	00 00 00 00 00 00 00 00 00 00 00 00 00 00 00 00 	0000000000000000
  0x20e0	00 00 00 00 00 00 00 00 00 00 00 00 00 00 00 00 	0000000000000000
  0x20f0	00 00 00 00 00 00 00 00 00 00 00 00 00 00 00 00 	0000000000000000
  0x2100	00 00 00 00 00 00 00 00 00 00 00 00 00 00 00 00 	0000000000000000
  0x2110	00 00 00 00 00 00 00 00 00 00 00 00 00 00 00 00 	0000000000000000
  0x2120	00 00 00 00 00 00 00 00 58 29 00 00 00 00 00 00 	00000000X)000000
  0x2130	6e 29 00 00 00 00 00 00 7e 29 00 00 00 00 00 00 	n)000000~)000000
  0x2140	8a 29 00 00 00 00 00 00 a0 29 00 00 00 00 00 00 	0)0000000)000000
  0x2150	b2 29 00 00 00 00 00 00 c4 29 00 00 00 00 00 00 	0)0000000)000000
  0x2160	da 29 00 00 00 00 00 00 ea 29 00 00 00 00 00 00 	0)0000000)000000
  0x2170	f6 29 00 00 00 00 00 00 0c 2a 00 00 00 00 00 00 	0)0000000*000000
  0x2180	50 2c 00 00 00 00 00 00 34 2c 00 00 00 00 00 00 	P,0000004,000000
  0x2190	20 2c 00 00 00 00 00 00 06 2c 00 00 00 00 00 00 	 ,0000000,000000
  0x21a0	f2 2b 00 00 00 00 00 00 e2 2b 00 00 00 00 00 00 	0+0000000+000000
  0x21b0	c8 2b 00 00 00 00 00 00 b2 2b 00 00 00 00 00 00 	0+0000000+000000
  0x21c0	9c 2b 00 00 00 00 00 00 82 2b 00 00 00 00 00 00 	0+0000000+000000
  0x21d0	6e 2b 00 00 00 00 00 00 50 2b 00 00 00 00 00 00 	n+000000P+000000
  0x21e0	48 2b 00 00 00 00 00 00 64 2c 00 00 00 00 00 00 	H+000000d,000000
  0x21f0	00 00 00 00 00 00 00 00 c0 2a 00 00 00 00 00 00 	000000000*000000
  0x2200	da 2a 00 00 00 00 00 00 ee 2a 00 00 00 00 00 00 	0*0000000*000000
  0x2210	fa 2a 00 00 00 00 00 00 12 2b 00 00 00 00 00 00 	0*0000000+000000
  0x2220	1c 2b 00 00 00 00 00 00 34 2b 00 00 00 00 00 00 	0+0000004+000000
  0x2230	c8 2a 00 00 00 00 00 00 ae 2a 00 00 00 00 00 00 	0*0000000*000000
  0x2240	9c 2a 00 00 00 00 00 00 8e 2a 00 00 00 00 00 00 	0*0000000*000000
  0x2250	80 2a 00 00 00 00 00 00 76 2a 00 00 00 00 00 00 	0*000000v*000000
  0x2260	6a 2a 00 00 00 00 00 00 62 2a 00 00 00 00 00 00 	j*000000b*000000
  0x2270	56 2a 00 00 00 00 00 00 4a 2a 00 00 00 00 00 00 	V*000000J*000000
  0x2280	3e 2a 00 00 00 00 00 00 34 2a 00 00 00 00 00 00 	>*0000004*000000
  0x2290	28 2a 00 00 00 00 00 00 d0 2a 00 00 00 00 00 00 	(*0000000*000000
  0x22a0	00 00 00 00 00 00 00 00 90 1b 00 40 01 00 00 00 	00000000000@0000
  0x22b0	00 1e 00 40 01 00 00 00 00 00 00 00 00 00 00 00 	000@000000000000
  0x22c0	00 16 00 40 01 00 00 00 00 00 00 00 00 00 00 00 	000@000000000000
  0x22d0	00 00 00 00 00 00 00 00 20 15 00 40 01 00 00 00 	00000000 00@0000
  0x22e0	c0 18 00 40 01 00 00 00 00 00 00 00 00 00 00 00 	000@000000000000
  0x22f0	20 15 00 00 00 16 00 00 20 18 00 00 80 18 00 00 	 0000000 0000000
  0x2300	c0 18 00 00 a0 19 00 00 90 1b 00 00 e0 1b 00 00 	0000000000000000
  0x2310	41 00 70 00 70 00 6c 00 69 00 63 00 61 00 74 00 	A0p0p0l0i0c0a0t0
  0x2320	69 00 6f 00 6e 00 00 00 00 00 00 00 00 00 00 00 	i0o0n00000000000
  0x2330	55 00 6e 00 61 00 62 00 6c 00 65 00 20 00 74 00 	U0n0a0b0l0e0 0t0
  0x2340	6f 00 20 00 67 00 65 00 74 00 20 00 4d 00 65 00 	o0 0g0e0t0 0M0e0
  0x2350	73 00 73 00 61 00 67 00 65 00 2d 00 4e 00 6f 00 	s0s0a0g0e0-0N0o0
  0x2360	74 00 2d 00 46 00 6f 00 75 00 6e 00 64 00 20 00 	t0-0F0o0u0n0d0 0
  0x2370	6d 00 65 00 73 00 73 00 61 00 67 00 65 00 0a 00 	m0e0s0s0a0g0e000
  0x2380	00 00 00 00 00 00 00 00 20 00 2f 00 3f 00 00 00 	00000000 0/0?000
  0x2390	2e 4f 43 50 00 00 00 00 00 00 00 00 00 00 00 00 	.OCP000000000000
  0x23a0	55 00 6e 00 61 00 62 00 6c 00 65 00 20 00 74 00 	U0n0a0b0l0e0 0t0
  0x23b0	6f 00 20 00 64 00 69 00 73 00 70 00 6c 00 61 00 	o0 0d0i0s0p0l0a0
  0x23c0	79 00 20 00 75 00 73 00 61 00 67 00 65 00 20 00 	y0 0u0s0a0g0e0 0
  0x23d0	6d 00 65 00 73 00 73 00 61 00 67 00 65 00 0a 00 	m0e0s0s0a0g0e000
  0x23e0	00 00 00 00 00 00 00 00 82 5a 00 00 6b 5a 00 00 	000000000Z00kZ00
  0x23f0	00 00 00 00 40 c0 3c 56 00 00 00 00 02 00 00 00 	0000@0<V00000000
  0x2400	21 00 00 00 44 24 00 00 44 18 00 00 00 00 00 00 	!000D$00D0000000
  0x2410	40 c0 3c 56 00 00 00 00 0d 00 00 00 f0 01 00 00 	@0<V000000000000
  0x2420	68 24 00 00 68 18 00 00 00 00 00 00 40 c0 3c 56 	h$00h0000000@0<V
  0x2430	00 00 00 00 10 00 00 00 24 00 00 00 58 26 00 00 	00000000$000X&00
  0x2440	58 1a 00 00 52 53 44 53 7b 71 e5 eb 5a 1a 87 b6 	X000RSDS{q00Z000
  0x2450	75 dd a8 d4 ce b4 30 b9 01 00 00 00 68 65 6c 70 	u00000000000help
  0x2460	2e 70 64 62 00 00 00 00 47 43 54 4c 00 10 00 00 	.pdb0000GCTL0000
  0x2470	f0 0d 00 00 2e 74 65 78 74 24 6d 6e 00 00 00 00 	0000.text$mn0000
  0x2480	f0 1d 00 00 20 00 00 00 2e 74 65 78 74 24 6d 6e 	0000 000.text$mn
  0x2490	24 30 30 00 10 1e 00 00 50 00 00 00 2e 74 65 78 	$0000000P000.tex
  0x24a0	74 24 78 00 00 20 00 00 28 01 00 00 2e 72 64 61 	t$x00 00(000.rda
  0x24b0	74 61 24 62 72 63 00 00 28 21 00 00 80 01 00 00 	ta$brc00(!000000
  0x24c0	2e 69 64 61 74 61 24 35 00 00 00 00 a8 22 00 00 	.idata$500000"00
  0x24d0	10 00 00 00 2e 30 30 63 66 67 00 00 b8 22 00 00 	0000.00cfg000"00
  0x24e0	08 00 00 00 2e 43 52 54 24 58 43 41 00 00 00 00 	0000.CRT$XCA0000
  0x24f0	c0 22 00 00 08 00 00 00 2e 43 52 54 24 58 43 41 	0"000000.CRT$XCA
  0x2500	41 00 00 00 c8 22 00 00 08 00 00 00 2e 43 52 54 	A0000"000000.CRT
  0x2510	24 58 43 5a 00 00 00 00 d0 22 00 00 08 00 00 00 	$XCZ00000"000000
  0x2520	2e 43 52 54 24 58 49 41 00 00 00 00 d8 22 00 00 	.CRT$XIA00000"00
  0x2530	08 00 00 00 2e 43 52 54 24 58 49 41 41 00 00 00 	0000.CRT$XIAA000
  0x2540	e0 22 00 00 08 00 00 00 2e 43 52 54 24 58 49 59 	0"000000.CRT$XIY
  0x2550	00 00 00 00 e8 22 00 00 08 00 00 00 2e 43 52 54 	00000"000000.CRT
  0x2560	24 58 49 5a 00 00 00 00 f0 22 00 00 20 00 00 00 	$XIZ00000"00 000
  0x2570	2e 67 66 69 64 73 00 00 10 23 00 00 34 01 00 00 	.gfids000#004000
  0x2580	2e 72 64 61 74 61 00 00 44 24 00 00 3c 02 00 00 	.rdata00D$00<000
  0x2590	2e 72 64 61 74 61 24 7a 7a 7a 64 62 67 00 00 00 	.rdata$zzzdbg000
  0x25a0	80 26 00 00 1c 01 00 00 2e 78 64 61 74 61 00 00 	0&000000.xdata00
  0x25b0	9c 27 00 00 28 00 00 00 2e 69 64 61 74 61 24 32 	0'00(000.idata$2
  0x25c0	00 00 00 00 c4 27 00 00 14 00 00 00 2e 69 64 61 	00000'000000.ida
  0x25d0	74 61 24 33 00 00 00 00 d8 27 00 00 80 01 00 00 	ta$300000'000000
  0x25e0	2e 69 64 61 74 61 24 34 00 00 00 00 58 29 00 00 	.idata$40000X)00
  0x25f0	20 03 00 00 2e 69 64 61 74 61 24 36 00 00 00 00 	 000.idata$60000
  0x2600	00 30 00 00 20 00 00 00 2e 64 61 74 61 00 00 00 	0000 000.data000
  0x2610	20 30 00 00 58 06 00 00 2e 62 73 73 00 00 00 00 	 000X000.bss0000
  0x2620	00 40 00 00 14 01 00 00 2e 70 64 61 74 61 00 00 	0@000000.pdata00
  0x2630	00 50 00 00 f0 00 00 00 2e 72 73 72 63 24 30 31 	0P000000.rsrc$01
  0x2640	00 00 00 00 f0 50 00 00 08 07 00 00 2e 72 73 72 	00000P000000.rsr
  0x2650	63 24 30 32 00 00 00 00 20 00 00 00 7b 71 e5 eb 	c$020000 000{q00
  0x2660	5a 1a 87 b6 75 dd a8 d4 ce b4 30 b9 e5 c8 98 ac 	Z000u00000000000
  0x2670	ff 4d 7c b6 b1 34 5c 1c 40 c0 3c 56 00 00 00 00 	0M|00400@0<V0000
  0x2680	01 10 08 00 10 34 0e 00 10 72 0c f0 0a e0 08 70 	000004000r00000p
  0x2690	07 60 06 50 01 17 01 00 17 a2 00 00 19 18 02 00 	0`0P000000000000
  0x26a0	09 f2 02 30 68 1d 00 00 70 00 00 00 19 2b 0b 00 	0000h000p0000+00
  0x26b0	19 54 50 00 19 34 4f 00 19 01 48 00 12 f0 10 e0 	0TP004O000H00000
  0x26c0	0e c0 0c 70 0b 60 00 00 68 1d 00 00 30 02 00 00 	000p0`00h0000000
  0x26d0	01 14 08 00 14 64 08 00 14 54 07 00 14 34 06 00 	00000d000T000400
  0x26e0	14 32 10 70 01 04 01 00 04 42 00 00 01 04 01 00 	020p00000B000000
  0x26f0	04 62 00 00 09 15 08 00 15 74 0a 00 15 64 09 00 	0b0000000t000d00
  0x2700	15 34 08 00 15 52 11 f0 7a 1b 00 00 01 00 00 00 	04000R00z0000000
  0x2710	65 16 00 00 cb 17 00 00 10 1e 00 00 cb 17 00 00 	e000000000000000
  0x2720	01 06 02 00 06 32 02 50 01 00 00 00 09 04 01 00 	0000020P00000000
  0x2730	04 22 00 00 7a 1b 00 00 01 00 00 00 fc 18 00 00 	0"00z00000000000
  0x2740	32 19 00 00 01 00 00 00 32 19 00 00 01 06 02 00 	2000000020000000
  0x2750	06 32 02 30 09 0a 04 00 0a 34 06 00 0a 32 06 70 	020000000400020p
  0x2760	7a 1b 00 00 01 00 00 00 0d 1a 00 00 40 1a 00 00 	z00000000000@000
  0x2770	40 1e 00 00 40 1a 00 00 01 0d 04 00 0d 34 09 00 	@000@00000000400
  0x2780	0d 32 06 50 01 0c 02 00 0c 01 11 00 00 00 00 00 	020P000000000000
  0x2790	01 00 00 00 01 02 01 00 02 30 00 00 d8 27 00 00 	0000000000000'00
  0x27a0	00 00 00 00 00 00 00 00 1a 2a 00 00 28 21 00 00 	000000000*00(!00
  0x27b0	a8 28 00 00 00 00 00 00 00 00 00 00 28 2b 00 00 	0(0000000000(+00
  0x27c0	f8 21 00 00 00 00 00 00 00 00 00 00 00 00 00 00 	0!00000000000000
  0x27d0	00 00 00 00 00 00 00 00 58 29 00 00 00 00 00 00 	00000000X)000000
  0x27e0	6e 29 00 00 00 00 00 00 7e 29 00 00 00 00 00 00 	n)000000~)000000
  0x27f0	8a 29 00 00 00 00 00 00 a0 29 00 00 00 00 00 00 	0)0000000)000000
  0x2800	b2 29 00 00 00 00 00 00 c4 29 00 00 00 00 00 00 	0)0000000)000000
  0x2810	da 29 00 00 00 00 00 00 ea 29 00 00 00 00 00 00 	0)0000000)000000
  0x2820	f6 29 00 00 00 00 00 00 0c 2a 00 00 00 00 00 00 	0)0000000*000000
  0x2830	50 2c 00 00 00 00 00 00 34 2c 00 00 00 00 00 00 	P,0000004,000000
  0x2840	20 2c 00 00 00 00 00 00 06 2c 00 00 00 00 00 00 	 ,0000000,000000
  0x2850	f2 2b 00 00 00 00 00 00 e2 2b 00 00 00 00 00 00 	0+0000000+000000
  0x2860	c8 2b 00 00 00 00 00 00 b2 2b 00 00 00 00 00 00 	0+0000000+000000
  0x2870	9c 2b 00 00 00 00 00 00 82 2b 00 00 00 00 00 00 	0+0000000+000000
  0x2880	6e 2b 00 00 00 00 00 00 50 2b 00 00 00 00 00 00 	n+000000P+000000
  0x2890	48 2b 00 00 00 00 00 00 64 2c 00 00 00 00 00 00 	H+000000d,000000
  0x28a0	00 00 00 00 00 00 00 00 c0 2a 00 00 00 00 00 00 	000000000*000000
  0x28b0	da 2a 00 00 00 00 00 00 ee 2a 00 00 00 00 00 00 	0*0000000*000000
  0x28c0	fa 2a 00 00 00 00 00 00 12 2b 00 00 00 00 00 00 	0*0000000+000000
  0x28d0	1c 2b 00 00 00 00 00 00 34 2b 00 00 00 00 00 00 	0+0000004+000000
  0x28e0	c8 2a 00 00 00 00 00 00 ae 2a 00 00 00 00 00 00 	0*0000000*000000
  0x28f0	9c 2a 00 00 00 00 00 00 8e 2a 00 00 00 00 00 00 	0*0000000*000000
  0x2900	80 2a 00 00 00 00 00 00 76 2a 00 00 00 00 00 00 	0*000000v*000000
  0x2910	6a 2a 00 00 00 00 00 00 62 2a 00 00 00 00 00 00 	j*000000b*000000
  0x2920	56 2a 00 00 00 00 00 00 4a 2a 00 00 00 00 00 00 	V*000000J*000000
  0x2930	3e 2a 00 00 00 00 00 00 34 2a 00 00 00 00 00 00 	>*0000004*000000
  0x2940	28 2a 00 00 00 00 00 00 d0 2a 00 00 00 00 00 00 	(*0000000*000000
  0x2950	00 00 00 00 00 00 00 00 08 02 47 65 74 43 6f 6e 	0000000000GetCon
  0x2960	73 6f 6c 65 4f 75 74 70 75 74 43 50 00 00 db 02 	soleOutputCP0000
  0x2970	47 65 74 53 74 64 48 61 6e 64 6c 65 00 00 23 06 	GetStdHandle00#0
  0x2980	57 72 69 74 65 46 69 6c 65 00 72 05 53 65 74 54 	WriteFile0r0SetT
  0x2990	68 72 65 61 64 55 49 4c 61 6e 67 75 61 67 65 00 	hreadUILanguage0
  0x29a0	04 02 47 65 74 43 6f 6e 73 6f 6c 65 4d 6f 64 65 	00GetConsoleMode
  0x29b0	00 00 af 01 46 6f 72 6d 61 74 4d 65 73 73 61 67 	0000FormatMessag
  0x29c0	65 57 00 00 58 03 48 65 61 70 53 65 74 49 6e 66 	eW00X0HeapSetInf
  0x29d0	6f 72 6d 61 74 69 6f 6e 00 00 22 06 57 72 69 74 	ormation00"0Writ
  0x29e0	65 43 6f 6e 73 6f 6c 65 57 00 d5 03 4c 6f 63 61 	eConsoleW000Loca
  0x29f0	6c 46 72 65 65 00 0f 06 57 69 64 65 43 68 61 72 	lFree000WideChar
  0x2a00	54 6f 4d 75 6c 74 69 42 79 74 65 00 57 02 47 65 	ToMultiByte0W0Ge
  0x2a10	74 46 69 6c 65 54 79 70 65 00 4b 45 52 4e 45 4c 	tFileType0KERNEL
  0x2a20	33 32 2e 64 6c 6c 00 00 b1 04 73 65 74 6c 6f 63 	32.dll0000setloc
  0x2a30	61 6c 65 00 3a 03 5f 75 6c 74 6f 77 00 00 05 05 	ale0:0_ultow0000
  0x2a40	77 63 73 63 70 79 5f 73 00 00 00 05 77 63 73 63 	wcscpy_s0000wcsc
  0x2a50	61 74 5f 73 00 00 fe 03 5f 77 73 79 73 74 65 6d 	at_s0000_wsystem
  0x2a60	00 00 4c 04 66 72 65 65 00 00 94 03 5f 77 63 73 	00L0free0000_wcs
  0x2a70	6e 69 63 6d 70 00 86 04 6d 61 6c 6c 6f 63 00 00 	nicmp000malloc00
  0x2a80	55 00 5f 58 63 70 74 46 69 6c 74 65 72 00 ae 00 	U0_XcptFilter000
  0x2a90	5f 61 6d 73 67 5f 65 78 69 74 00 00 9d 00 5f 5f 	_amsg_exit0000__
  0x2aa0	77 67 65 74 6d 61 69 6e 61 72 67 73 00 00 8e 00 	wgetmainargs0000
  0x2ab0	5f 5f 73 65 74 5f 61 70 70 5f 74 79 70 65 00 00 	__set_app_type00
  0x2ac0	32 04 65 78 69 74 00 00 0e 01 5f 65 78 69 74 00 	20exit0000_exit0
  0x2ad0	c1 00 5f 63 65 78 69 74 00 00 90 00 5f 5f 73 65 	00_cexit0000__se
  0x2ae0	74 75 73 65 72 6d 61 74 68 65 72 72 00 00 7d 01 	tusermatherr00}0
  0x2af0	5f 69 6e 69 74 74 65 72 6d 00 57 00 5f 5f 43 5f 	_initterm0W0__C_
  0x2b00	73 70 65 63 69 66 69 63 5f 68 61 6e 64 6c 65 72 	specific_handler
  0x2b10	00 00 27 01 5f 66 6d 6f 64 65 00 00 d2 00 5f 63 	00'0_fmode0000_c
  0x2b20	6f 6d 6d 6f 64 65 00 00 6d 73 76 63 72 74 2e 64 	ommode00msvcrt.d
  0x2b30	6c 6c 00 00 2f 00 3f 74 65 72 6d 69 6e 61 74 65 	ll00/0?terminate
  0x2b40	40 40 59 41 58 58 5a 00 88 05 53 6c 65 65 70 00 	@@YAXXZ000Sleep0
  0x2b50	78 05 53 65 74 55 6e 68 61 6e 64 6c 65 64 45 78 	x0SetUnhandledEx
  0x2b60	63 65 70 74 69 6f 6e 46 69 6c 74 65 72 00 7e 02 	ceptionFilter0~0
  0x2b70	47 65 74 4d 6f 64 75 6c 65 48 61 6e 64 6c 65 57 	GetModuleHandleW
  0x2b80	00 00 4d 04 51 75 65 72 79 50 65 72 66 6f 72 6d 	00M0QueryPerform
  0x2b90	61 6e 63 65 43 6f 75 6e 74 65 72 00 1e 02 47 65 	anceCounter000Ge
  0x2ba0	74 43 75 72 72 65 6e 74 50 72 6f 63 65 73 73 49 	tCurrentProcessI
  0x2bb0	64 00 22 02 47 65 74 43 75 72 72 65 6e 74 54 68 	d0"0GetCurrentTh
  0x2bc0	72 65 61 64 49 64 00 00 f0 02 47 65 74 53 79 73 	readId0000GetSys
  0x2bd0	74 65 6d 54 69 6d 65 41 73 46 69 6c 65 54 69 6d 	temTimeAsFileTim
  0x2be0	65 00 0e 03 47 65 74 54 69 63 6b 43 6f 75 6e 74 	e000GetTickCount
  0x2bf0	00 00 d0 04 52 74 6c 43 61 70 74 75 72 65 43 6f 	0000RtlCaptureCo
  0x2c00	6e 74 65 78 74 00 d7 04 52 74 6c 4c 6f 6f 6b 75 	ntext000RtlLooku
  0x2c10	70 46 75 6e 63 74 69 6f 6e 45 6e 74 72 79 00 00 	pFunctionEntry00
  0x2c20	de 04 52 74 6c 56 69 72 74 75 61 6c 55 6e 77 69 	00RtlVirtualUnwi
  0x2c30	6e 64 00 00 b9 05 55 6e 68 61 6e 64 6c 65 64 45 	nd0000UnhandledE
  0x2c40	78 63 65 70 74 69 6f 6e 46 69 6c 74 65 72 00 00 	xceptionFilter00
  0x2c50	1d 02 47 65 74 43 75 72 72 65 6e 74 50 72 6f 63 	00GetCurrentProc
  0x2c60	65 73 73 00 97 05 54 65 72 6d 69 6e 61 74 65 50 	ess000TerminateP
  0x2c70	72 6f 63 65 73 73 00 00 00 00 00 00 00 00 00 00 	rocess0000000000
  0x2c80	00 00 00 00 00 00 00 00 00 00 00 00 00 00 00 00 	0000000000000000
  0x2c90	00 00 00 00 00 00 00 00 00 00 00 00 00 00 00 00 	0000000000000000
  0x2ca0	00 00 00 00 00 00 00 00 00 00 00 00 00 00 00 00 	0000000000000000
  0x2cb0	00 00 00 00 00 00 00 00 00 00 00 00 00 00 00 00 	0000000000000000
  0x2cc0	00 00 00 00 00 00 00 00 00 00 00 00 00 00 00 00 	0000000000000000
  0x2cd0	00 00 00 00 00 00 00 00 00 00 00 00 00 00 00 00 	0000000000000000
  0x2ce0	00 00 00 00 00 00 00 00 00 00 00 00 00 00 00 00 	0000000000000000
  0x2cf0	00 00 00 00 00 00 00 00 00 00 00 00 00 00 00 00 	0000000000000000
  0x2d00	00 00 00 00 00 00 00 00 00 00 00 00 00 00 00 00 	0000000000000000
  0x2d10	00 00 00 00 00 00 00 00 00 00 00 00 00 00 00 00 	0000000000000000
  0x2d20	00 00 00 00 00 00 00 00 00 00 00 00 00 00 00 00 	0000000000000000
  0x2d30	00 00 00 00 00 00 00 00 00 00 00 00 00 00 00 00 	0000000000000000
  0x2d40	00 00 00 00 00 00 00 00 00 00 00 00 00 00 00 00 	0000000000000000
  0x2d50	00 00 00 00 00 00 00 00 00 00 00 00 00 00 00 00 	0000000000000000
  0x2d60	00 00 00 00 00 00 00 00 00 00 00 00 00 00 00 00 	0000000000000000
  0x2d70	00 00 00 00 00 00 00 00 00 00 00 00 00 00 00 00 	0000000000000000
  0x2d80	00 00 00 00 00 00 00 00 00 00 00 00 00 00 00 00 	0000000000000000
  0x2d90	00 00 00 00 00 00 00 00 00 00 00 00 00 00 00 00 	0000000000000000
  0x2da0	00 00 00 00 00 00 00 00 00 00 00 00 00 00 00 00 	0000000000000000
  0x2db0	00 00 00 00 00 00 00 00 00 00 00 00 00 00 00 00 	0000000000000000
  0x2dc0	00 00 00 00 00 00 00 00 00 00 00 00 00 00 00 00 	0000000000000000
  0x2dd0	00 00 00 00 00 00 00 00 00 00 00 00 00 00 00 00 	0000000000000000
  0x2de0	00 00 00 00 00 00 00 00 00 00 00 00 00 00 00 00 	0000000000000000
  0x2df0	00 00 00 00 00 00 00 00 00 00 00 00 00 00 00 00 	0000000000000000
=== DATA BLOCK END ===

=== DATA BLOCK ADDRESS 0x3000 ===
  0x3000	01 00 00 00 00 00 00 00 32 a2 df 2d 99 2b 00 00 	00000000200-0+00
  0x3010	cd 5d 20 d2 66 d4 ff ff 00 00 00 00 00 00 00 00 	0] 0f00000000000
  0x3020	00 00 00 00 00 00 00 00 00 00 00 00 00 00 00 00 	0000000000000000
  0x3030	00 00 00 00 00 00 00 00 00 00 00 00 00 00 00 00 	0000000000000000
  0x3040	00 00 00 00 00 00 00 00 00 00 00 00 00 00 00 00 	0000000000000000
  0x3050	00 00 00 00 00 00 00 00 00 00 00 00 00 00 00 00 	0000000000000000
  0x3060	00 00 00 00 00 00 00 00 00 00 00 00 00 00 00 00 	0000000000000000
  0x3070	00 00 00 00 00 00 00 00 00 00 00 00 00 00 00 00 	0000000000000000
  0x3080	00 00 00 00 00 00 00 00 00 00 00 00 00 00 00 00 	0000000000000000
  0x3090	00 00 00 00 00 00 00 00 00 00 00 00 00 00 00 00 	0000000000000000
  0x30a0	00 00 00 00 00 00 00 00 00 00 00 00 00 00 00 00 	0000000000000000
  0x30b0	00 00 00 00 00 00 00 00 00 00 00 00 00 00 00 00 	0000000000000000
  0x30c0	00 00 00 00 00 00 00 00 00 00 00 00 00 00 00 00 	0000000000000000
  0x30d0	00 00 00 00 00 00 00 00 00 00 00 00 00 00 00 00 	0000000000000000
  0x30e0	00 00 00 00 00 00 00 00 00 00 00 00 00 00 00 00 	0000000000000000
  0x30f0	00 00 00 00 00 00 00 00 00 00 00 00 00 00 00 00 	0000000000000000
  0x3100	00 00 00 00 00 00 00 00 00 00 00 00 00 00 00 00 	0000000000000000
  0x3110	00 00 00 00 00 00 00 00 00 00 00 00 00 00 00 00 	0000000000000000
  0x3120	00 00 00 00 00 00 00 00 00 00 00 00 00 00 00 00 	0000000000000000
  0x3130	00 00 00 00 00 00 00 00 00 00 00 00 00 00 00 00 	0000000000000000
  0x3140	00 00 00 00 00 00 00 00 00 00 00 00 00 00 00 00 	0000000000000000
  0x3150	00 00 00 00 00 00 00 00 00 00 00 00 00 00 00 00 	0000000000000000
  0x3160	00 00 00 00 00 00 00 00 00 00 00 00 00 00 00 00 	0000000000000000
  0x3170	00 00 00 00 00 00 00 00 00 00 00 00 00 00 00 00 	0000000000000000
  0x3180	00 00 00 00 00 00 00 00 00 00 00 00 00 00 00 00 	0000000000000000
  0x3190	00 00 00 00 00 00 00 00 00 00 00 00 00 00 00 00 	0000000000000000
  0x31a0	00 00 00 00 00 00 00 00 00 00 00 00 00 00 00 00 	0000000000000000
  0x31b0	00 00 00 00 00 00 00 00 00 00 00 00 00 00 00 00 	0000000000000000
  0x31c0	00 00 00 00 00 00 00 00 00 00 00 00 00 00 00 00 	0000000000000000
  0x31d0	00 00 00 00 00 00 00 00 00 00 00 00 00 00 00 00 	0000000000000000
  0x31e0	00 00 00 00 00 00 00 00 00 00 00 00 00 00 00 00 	0000000000000000
  0x31f0	00 00 00 00 00 00 00 00 00 00 00 00 00 00 00 00 	0000000000000000
=== DATA BLOCK END ===

=== DATA BLOCK ADDRESS 0x4000 ===
  0x4000	08 10 00 00 5f 11 00 00 80 26 00 00 68 11 00 00 	0000_0000&00h000
  0x4010	ca 11 00 00 94 26 00 00 d0 11 00 00 59 12 00 00 	00000&000000Y000
  0x4020	9c 26 00 00 60 12 00 00 cd 13 00 00 ac 26 00 00 	0&00`00000000&00
  0x4030	d4 13 00 00 11 15 00 00 d0 26 00 00 20 15 00 00 	000000000&00 000
  0x4040	f3 15 00 00 e4 26 00 00 00 16 00 00 49 16 00 00 	00000&000000I000
  0x4050	ec 26 00 00 50 16 00 00 0e 18 00 00 f4 26 00 00 	0&00P00000000&00
  0x4060	20 18 00 00 32 18 00 00 e4 26 00 00 50 18 00 00 	 00020000&00P000
  0x4070	6e 18 00 00 28 27 00 00 80 18 00 00 b9 18 00 00 	n000('0000000000
  0x4080	e4 26 00 00 c0 18 00 00 d8 18 00 00 e4 26 00 00 	0&00000000000&00
  0x4090	ec 18 00 00 40 19 00 00 2c 27 00 00 48 19 00 00 	0000@000,'00H000
  0x40a0	8d 19 00 00 4c 27 00 00 00 1a 00 00 4d 1a 00 00 	0000L'000000M000
  0x40b0	54 27 00 00 94 1a 00 00 68 1b 00 00 78 27 00 00 	T'000000h000x'00
  0x40c0	9c 1b 00 00 d0 1b 00 00 4c 27 00 00 e0 1b 00 00 	00000000L'000000
  0x40d0	51 1d 00 00 84 27 00 00 68 1d 00 00 85 1d 00 00 	Q0000'00h0000000
  0x40e0	e4 26 00 00 8c 1d 00 00 e7 1d 00 00 94 27 00 00 	0&00000000000'00
  0x40f0	00 1e 00 00 02 1e 00 00 90 27 00 00 10 1e 00 00 	000000000'000000
  0x4100	2e 1e 00 00 20 27 00 00 40 1e 00 00 60 1e 00 00 	.000 '00@000`000
  0x4110	20 27 00 00 00 00 00 00 00 00 00 00 00 00 00 00 	 '00000000000000
  0x4120	00 00 00 00 00 00 00 00 00 00 00 00 00 00 00 00 	0000000000000000
  0x4130	00 00 00 00 00 00 00 00 00 00 00 00 00 00 00 00 	0000000000000000
  0x4140	00 00 00 00 00 00 00 00 00 00 00 00 00 00 00 00 	0000000000000000
  0x4150	00 00 00 00 00 00 00 00 00 00 00 00 00 00 00 00 	0000000000000000
  0x4160	00 00 00 00 00 00 00 00 00 00 00 00 00 00 00 00 	0000000000000000
  0x4170	00 00 00 00 00 00 00 00 00 00 00 00 00 00 00 00 	0000000000000000
  0x4180	00 00 00 00 00 00 00 00 00 00 00 00 00 00 00 00 	0000000000000000
  0x4190	00 00 00 00 00 00 00 00 00 00 00 00 00 00 00 00 	0000000000000000
  0x41a0	00 00 00 00 00 00 00 00 00 00 00 00 00 00 00 00 	0000000000000000
  0x41b0	00 00 00 00 00 00 00 00 00 00 00 00 00 00 00 00 	0000000000000000
  0x41c0	00 00 00 00 00 00 00 00 00 00 00 00 00 00 00 00 	0000000000000000
  0x41d0	00 00 00 00 00 00 00 00 00 00 00 00 00 00 00 00 	0000000000000000
  0x41e0	00 00 00 00 00 00 00 00 00 00 00 00 00 00 00 00 	0000000000000000
  0x41f0	00 00 00 00 00 00 00 00 00 00 00 00 00 00 00 00 	0000000000000000
=== DATA BLOCK END ===
