===== Assembly blocks =====

=== CODE BLOCK ADDRESS 0x1000 ===
  0x1000	int3   	
  0x1001	int3   	
  0x1002	int3   	
  0x1003	int3   	
  0x1004	int3   	
  === BLOCK LINK ===
    0x1005
=== CODE BLOCK END ===

=== CODE BLOCK ADDRESS 0x1005 ===
  0x1005	int3   	
  0x1006	int3   	
  0x1007	int3   	
  0x1008	int3   	
  0x1009	int3   	
  === BLOCK LINK ===
    0x100a
=== CODE BLOCK END ===

=== CODE BLOCK ADDRESS 0x100a ===
  0x100a	int3   	
  0x100b	int3   	
  0x100c	int3   	
  0x100d	int3   	
  0x100e	int3   	
  === BLOCK LINK ===
    0x100f
=== CODE BLOCK END ===

=== CODE BLOCK ADDRESS 0x100f ===
  0x100f	int3   	
  0x1010	dec    	eax
  0x1011	sub    	esp, 0x28
  0x1014	dec    	ecx
  0x1015	and    	dword ptr [eax], 0
  === BLOCK LINK ===
    0x1018
=== CODE BLOCK END ===

=== CODE BLOCK ADDRESS 0x1018 ===
  0x1018	inc    	ecx
  0x1019	mov    	ecx, 0x80004002
  0x101e	dec    	eax
  0x101f	mov    	eax, dword ptr [0x139b]
  0x1025	dec    	eax
  === BLOCK LINK ===
    0x1026
=== CODE BLOCK END ===

=== CODE BLOCK ADDRESS 0x1026 ===
  0x1026	cmp    	eax, dword ptr [edx]
  0x1028	jne    	0x104a
  === BLOCK LINK ===
    0x102a
    0x104a
=== CODE BLOCK END ===

=== CODE BLOCK ADDRESS 0x102a ===
  0x102a	dec    	eax
  0x102b	mov    	eax, dword ptr [0x1397]
  0x1031	dec    	eax
  0x1032	cmp    	eax, dword ptr [edx + 8]
  0x1035	jne    	0x104a
  === BLOCK LINK ===
    0x1037
    0x104a
=== CODE BLOCK END ===

=== CODE BLOCK ADDRESS 0x1037 ===
  0x1037	dec    	ecx
  0x1038	mov    	dword ptr [eax], ecx
  0x103a	dec    	eax
  0x103b	mov    	eax, dword ptr [ecx]
  0x103d	dec    	eax
  === BLOCK LINK ===
    0x103e
=== CODE BLOCK END ===

=== CODE BLOCK ADDRESS 0x103e ===
  0x103e	mov    	eax, dword ptr [eax + 8]
  0x1041	call   	dword ptr [0x12f1]
  === BLOCK LINK ===
    0x1047
=== CODE BLOCK END ===

=== CODE BLOCK ADDRESS 0x1047 ===
  0x1047	inc    	ebp
  0x1048	xor    	ecx, ecx
  === BLOCK LINK ===
    0x104a
=== CODE BLOCK END ===

=== CODE BLOCK ADDRESS 0x104e ===
  0x104e	add    	esp, 0x28
  0x1051	ret    	
  0x1052	int3   	
  0x1053	int3   	
  0x1054	int3   	
  === BLOCK LINK ===
    0x1055
=== CODE BLOCK END ===

=== CODE BLOCK ADDRESS 0x104a ===
  0x104a	inc    	ecx
  0x104b	mov    	eax, ecx
  0x104d	dec    	eax
  === BLOCK LINK ===
    0x104e
=== CODE BLOCK END ===

=== CODE BLOCK ADDRESS 0x1055 ===
  0x1055	int3   	
  0x1056	int3   	
  0x1057	int3   	
  0x1058	int3   	
  0x1059	int3   	
  === BLOCK LINK ===
    0x105a
=== CODE BLOCK END ===

=== CODE BLOCK ADDRESS 0x105a ===
  0x105a	int3   	
  0x105b	int3   	
  0x105c	int3   	
  0x105d	int3   	
  0x105e	int3   	
  === BLOCK LINK ===
    0x105f
=== CODE BLOCK END ===

=== CODE BLOCK ADDRESS 0x105f ===
  0x105f	int3   	
  0x1060	inc    	eax
  0x1061	push   	ebx
  0x1062	dec    	eax
  0x1063	sub    	esp, 0x20
  === BLOCK LINK ===
    0x1066
=== CODE BLOCK END ===

=== CODE BLOCK ADDRESS 0x1066 ===
  0x1066	dec    	eax
  0x1067	mov    	ebx, ecx
  0x1069	dec    	eax
  0x106a	mov    	ecx, dword ptr [ecx + 0x18]
  0x106d	dec    	eax
  === BLOCK LINK ===
    0x106e
=== CODE BLOCK END ===

=== CODE BLOCK ADDRESS 0x106e ===
  0x106e	test   	ecx, ecx
  0x1070	je     	0x10af
  === BLOCK LINK ===
    0x1072
    0x10af
=== CODE BLOCK END ===

=== CODE BLOCK ADDRESS 0x1072 ===
  0x1072	dec    	eax
  0x1073	call   	dword ptr [0x11ef]
  === BLOCK LINK ===
    0x1079
=== CODE BLOCK END ===

=== CODE BLOCK ADDRESS 0x1079 ===
  0x1079	nop    	dword ptr [eax + eax]
  0x107e	test   	eax, eax
  0x1080	je     	0x10af
  === BLOCK LINK ===
    0x1082
    0x10af
=== CODE BLOCK END ===

=== CODE BLOCK ADDRESS 0x1082 ===
  0x1082	dec    	eax
  0x1083	mov    	ecx, dword ptr [ebx + 0x18]
  0x1086	inc    	ebp
  0x1087	xor    	ecx, ecx
  0x1089	inc    	ebp
  === BLOCK LINK ===
    0x108a
=== CODE BLOCK END ===

=== CODE BLOCK ADDRESS 0x108a ===
  0x108a	xor    	eax, eax
  0x108c	xor    	edx, edx
  0x108e	dec    	eax
  0x108f	call   	dword ptr [0x11c3]
  === BLOCK LINK ===
    0x1095
=== CODE BLOCK END ===

=== CODE BLOCK ADDRESS 0x1095 ===
  0x1095	nop    	dword ptr [eax + eax]
  0x109a	dec    	eax
  0x109b	mov    	ecx, dword ptr [ebx + 0x18]
  0x109e	mov    	edx, 1
  0x10a3	dec    	eax
  === BLOCK LINK ===
    0x10a4
=== CODE BLOCK END ===

=== CODE BLOCK ADDRESS 0x10a4 ===
  0x10a4	call   	dword ptr [0x11c6]
  === BLOCK LINK ===
    0x10aa
=== CODE BLOCK END ===

=== CODE BLOCK ADDRESS 0x10aa ===
  0x10aa	nop    	dword ptr [eax + eax]
  === BLOCK LINK ===
    0x10af
=== CODE BLOCK END ===

=== CODE BLOCK ADDRESS 0x10bc ===
  0x10bc	add    	esp, 0x20
  0x10bf	pop    	ebx
  0x10c0	ret    	
  0x10c1	int3   	
  0x10c2	int3   	
  === BLOCK LINK ===
    0x10c3
=== CODE BLOCK END ===

=== CODE BLOCK ADDRESS 0x10c3 ===
  0x10c3	int3   	
  0x10c4	int3   	
  0x10c5	int3   	
  0x10c6	int3   	
  0x10c7	int3   	
  === BLOCK LINK ===
    0x10c8
=== CODE BLOCK END ===

=== CODE BLOCK ADDRESS 0x10c8 ===
  0x10c8	int3   	
  0x10c9	int3   	
  0x10ca	int3   	
  0x10cb	int3   	
  0x10cc	int3   	
  === BLOCK LINK ===
    0x10cd
=== CODE BLOCK END ===

=== CODE BLOCK ADDRESS 0x10cd ===
  0x10cd	int3   	
  0x10ce	int3   	
  0x10cf	int3   	
  0x10d0	inc    	eax
  0x10d1	push   	ebx
  === BLOCK LINK ===
    0x10d2
=== CODE BLOCK END ===

=== CODE BLOCK ADDRESS 0x10d2 ===
  0x10d2	dec    	eax
  0x10d3	sub    	esp, 0x20
  0x10d6	or     	ebx, 0xffffffff
  0x10d9	lock xadd  	dword ptr [ecx + 8], ebx
  0x10de	sub    	ebx, 1
  === BLOCK LINK ===
    0x10e1
=== CODE BLOCK END ===

=== CODE BLOCK ADDRESS 0x10e1 ===
  0x10e1	jne    	0x1132
  === BLOCK LINK ===
    0x10e3
    0x1132
=== CODE BLOCK END ===

=== CODE BLOCK ADDRESS 0x10e3 ===
  0x10e3	dec    	eax
  0x10e4	mov    	eax, dword ptr [ecx + 0x18]
  0x10e7	dec    	eax
  0x10e8	test   	eax, eax
  0x10ea	je     	0x111d
  === BLOCK LINK ===
    0x10ec
    0x111d
=== CODE BLOCK END ===

=== CODE BLOCK ADDRESS 0x10ec ===
  0x10ec	inc    	ebp
  0x10ed	xor    	ecx, ecx
  0x10ef	dec    	eax
  0x10f0	mov    	dword ptr [esp + 0x30], 0xfd050f80
  0x10f8	inc    	ebp
  === BLOCK LINK ===
    0x10f9
=== CODE BLOCK END ===

=== CODE BLOCK ADDRESS 0x10f9 ===
  0x10f9	xor    	eax, eax
  0x10fb	dec    	eax
  0x10fc	lea    	edx, [esp + 0x30]
  0x1100	dec    	eax
  0x1101	mov    	ecx, eax
  === BLOCK LINK ===
    0x1103
=== CODE BLOCK END ===

=== CODE BLOCK ADDRESS 0x1103 ===
  0x1103	dec    	eax
  0x1104	call   	dword ptr [0x114e]
  === BLOCK LINK ===
    0x110a
=== CODE BLOCK END ===

=== CODE BLOCK ADDRESS 0x110a ===
  0x110a	nop    	dword ptr [eax + eax]
  0x110f	dec    	eax
  0x1110	call   	dword ptr [0x105a]
  === BLOCK LINK ===
    0x1116
=== CODE BLOCK END ===

=== CODE BLOCK ADDRESS 0x1116 ===
  0x1116	nop    	dword ptr [eax + eax]
  0x111b	jmp    	0x1132
  === BLOCK LINK ===
    0x111d
    0x1132
=== CODE BLOCK END ===

=== CODE BLOCK ADDRESS 0x111d ===
  0x111d	dec    	eax
  0x111e	mov    	ecx, dword ptr [ecx + 0x10]
  0x1121	dec    	eax
  0x1122	test   	ecx, ecx
  0x1124	je     	0x1132
  === BLOCK LINK ===
    0x1126
    0x1132
=== CODE BLOCK END ===

=== CODE BLOCK ADDRESS 0x1126 ===
  0x1126	dec    	eax
  0x1127	call   	dword ptr [0x10eb]
  === BLOCK LINK ===
    0x112d
=== CODE BLOCK END ===

=== CODE BLOCK ADDRESS 0x112d ===
  0x112d	nop    	dword ptr [eax + eax]
  === BLOCK LINK ===
    0x1132
=== CODE BLOCK END ===

=== CODE BLOCK ADDRESS 0x1139 ===
  0x1139	ret    	
  0x113a	int3   	
  0x113b	int3   	
  0x113c	int3   	
  0x113d	int3   	
  === BLOCK LINK ===
    0x113e
=== CODE BLOCK END ===

=== CODE BLOCK ADDRESS 0x10af ===
  0x10af	mov    	eax, 1
  0x10b4	lock xadd  	dword ptr [ebx + 8], eax
  0x10b9	inc    	eax
  0x10bb	dec    	eax
  === BLOCK LINK ===
    0x10bc
=== CODE BLOCK END ===

=== CODE BLOCK ADDRESS 0x113e ===
  0x113e	int3   	
  0x113f	int3   	
  0x1140	int3   	
  0x1141	int3   	
  0x1142	int3   	
  === BLOCK LINK ===
    0x1143
=== CODE BLOCK END ===

=== CODE BLOCK ADDRESS 0x1143 ===
  0x1143	int3   	
  0x1144	int3   	
  0x1145	int3   	
  0x1146	int3   	
  0x1147	int3   	
  === BLOCK LINK ===
    0x1148
=== CODE BLOCK END ===

=== CODE BLOCK ADDRESS 0x1148 ===
  0x1148	int3   	
  0x1149	int3   	
  0x114a	int3   	
  0x114b	int3   	
  0x114c	int3   	
  === BLOCK LINK ===
    0x114d
=== CODE BLOCK END ===

=== CODE BLOCK ADDRESS 0x114d ===
  0x114d	int3   	
  0x114e	int3   	
  0x114f	int3   	
  0x1150	dec    	eax
  0x1151	mov    	ecx, edx
  === BLOCK LINK ===
    0x1153
=== CODE BLOCK END ===

=== CODE BLOCK ADDRESS 0x1153 ===
  0x1153	dec    	eax
  0x1154	jmp    	dword ptr [0x10be]
  === BLOCK LINK ===
    0x115a
=== CODE BLOCK END ===

=== CODE BLOCK ADDRESS 0x115a ===
  0x115a	int3   	
  0x115b	int3   	
  0x115c	int3   	
  0x115d	int3   	
  0x115e	int3   	
  === BLOCK LINK ===
    0x115f
=== CODE BLOCK END ===

=== CODE BLOCK ADDRESS 0x115f ===
  0x115f	int3   	
  0x1160	int3   	
  0x1161	int3   	
  0x1162	int3   	
  0x1163	int3   	
  === BLOCK LINK ===
    0x1164
=== CODE BLOCK END ===

=== CODE BLOCK ADDRESS 0x1164 ===
  0x1164	int3   	
  0x1165	int3   	
  0x1166	int3   	
  0x1167	int3   	
  0x1168	dec    	eax
  === BLOCK LINK ===
    0x1169
=== CODE BLOCK END ===

=== CODE BLOCK ADDRESS 0x1169 ===
  0x1169	mov    	eax, esp
  0x116b	dec    	eax
  0x116c	mov    	dword ptr [eax + 8], ebx
  0x116f	dec    	eax
  0x1170	mov    	dword ptr [eax + 0x10], esi
  === BLOCK LINK ===
    0x1173
=== CODE BLOCK END ===

=== CODE BLOCK ADDRESS 0x1173 ===
  0x1173	dec    	eax
  0x1174	mov    	dword ptr [eax + 0x18], edi
  0x1177	dec    	esp
  0x1178	mov    	dword ptr [eax + 0x20], esp
  0x117b	push   	ebp
  === BLOCK LINK ===
    0x117c
=== CODE BLOCK END ===

=== CODE BLOCK ADDRESS 0x117c ===
  0x117c	inc    	ecx
  0x117d	push   	esi
  0x117e	inc    	ecx
  0x117f	push   	edi
  0x1180	dec    	eax
  === BLOCK LINK ===
    0x1181
=== CODE BLOCK END ===

=== CODE BLOCK ADDRESS 0x1181 ===
  0x1181	mov    	ebp, esp
  0x1183	dec    	eax
  0x1184	sub    	esp, 0x60
  0x1187	inc    	ebp
  0x1188	xor    	ecx, ecx
  === BLOCK LINK ===
    0x118a
=== CODE BLOCK END ===

=== CODE BLOCK ADDRESS 0x118a ===
  0x118a	inc    	ebp
  0x118b	xor    	eax, eax
  0x118d	xor    	ecx, ecx
  0x118f	inc    	ebp
  0x1190	lea    	edi, [ecx + 1]
  === BLOCK LINK ===
    0x1193
=== CODE BLOCK END ===

=== CODE BLOCK ADDRESS 0x1193 ===
  0x1193	inc    	ecx
  0x1194	mov    	edx, edi
  0x1196	dec    	eax
  0x1197	call   	dword ptr [0x101b]
  === BLOCK LINK ===
    0x119d
=== CODE BLOCK END ===

=== CODE BLOCK ADDRESS 0x119d ===
  0x119d	nop    	dword ptr [eax + eax]
  0x11a2	xor    	edx, edx
  0x11a4	xor    	ecx, ecx
  0x11a6	dec    	eax
  0x11a7	call   	dword ptr [0xfab]
  === BLOCK LINK ===
    0x11ad
=== CODE BLOCK END ===

=== CODE BLOCK ADDRESS 0x11ad ===
  0x11ad	nop    	dword ptr [eax + eax]
  0x11b2	test   	eax, eax
  0x11b4	js     	0x13bd
  === BLOCK LINK ===
    0x11ba
    0x13bd
=== CODE BLOCK END ===

=== CODE BLOCK ADDRESS 0x11ba ===
  0x11ba	and    	dword ptr [ebp - 0x18], 0
  0x11be	dec    	esp
  0x11bf	lea    	esp, [0xe4b]
  0x11c5	xorps  	xmm0, xmm0
  0x11c8	dec    	esp
  === BLOCK LINK ===
    0x11c9
=== CODE BLOCK END ===

=== CODE BLOCK ADDRESS 0x11c9 ===
  0x11c9	mov    	dword ptr [ebp - 0x20], esp
  0x11cc	inc    	ebp
  0x11cd	xor    	ecx, ecx
  0x11cf	inc    	ebp
  0x11d0	xor    	eax, eax
  === BLOCK LINK ===
    0x11d2
=== CODE BLOCK END ===

=== CODE BLOCK ADDRESS 0x11d2 ===
  0x11d2	inc    	ecx
  0x11d3	mov    	edx, edi
  0x11d5	xor    	ecx, ecx
  0x11d7	movdqu  	xmmword ptr [ebp - 0x10], xmm0
  0x11dc	dec    	eax
  === BLOCK LINK ===
    0x11dd
=== CODE BLOCK END ===

=== CODE BLOCK ADDRESS 0x11dd ===
  0x11dd	call   	dword ptr [0x103d]
  === BLOCK LINK ===
    0x11e3
=== CODE BLOCK END ===

=== CODE BLOCK ADDRESS 0x11e3 ===
  0x11e3	nop    	dword ptr [eax + eax]
  0x11e8	dec    	eax
  0x11e9	mov    	dword ptr [ebp - 0x10], eax
  0x11ec	dec    	eax
  0x11ed	test   	eax, eax
  === BLOCK LINK ===
    0x11ef
=== CODE BLOCK END ===

=== CODE BLOCK ADDRESS 0x11ef ===
  0x11ef	je     	0x1249
  === BLOCK LINK ===
    0x11f1
    0x1249
=== CODE BLOCK END ===

=== CODE BLOCK ADDRESS 0x11f1 ===
  0x11f1	dec    	eax
  0x11f2	lea    	ecx, [ebp - 0x20]
  0x11f5	dec    	eax
  0x11f6	call   	dword ptr [0x108c]
  === BLOCK LINK ===
    0x11fc
=== CODE BLOCK END ===

=== CODE BLOCK ADDRESS 0x11fc ===
  0x11fc	nop    	dword ptr [eax + eax]
  0x1201	dec    	eax
  0x1202	mov    	edx, dword ptr [ebp - 0x10]
  0x1205	dec    	eax
  0x1206	lea    	ecx, [0xffffff44]
  === BLOCK LINK ===
    0x120c
=== CODE BLOCK END ===

=== CODE BLOCK ADDRESS 0x120c ===
  0x120c	inc    	ebp
  0x120d	xor    	eax, eax
  0x120f	dec    	eax
  0x1210	call   	dword ptr [0x104a]
  === BLOCK LINK ===
    0x1216
=== CODE BLOCK END ===

=== CODE BLOCK ADDRESS 0x1216 ===
  0x1216	nop    	dword ptr [eax + eax]
  0x121b	dec    	eax
  0x121c	mov    	dword ptr [ebp - 8], eax
  0x121f	dec    	eax
  0x1220	test   	eax, eax
  === BLOCK LINK ===
    0x1222
=== CODE BLOCK END ===

=== CODE BLOCK ADDRESS 0x1222 ===
  0x1222	je     	0x1249
  === BLOCK LINK ===
    0x1224
    0x1249
=== CODE BLOCK END ===

=== CODE BLOCK ADDRESS 0x1224 ===
  0x1224	inc    	ebp
  0x1225	xor    	ecx, ecx
  0x1227	dec    	eax
  0x1228	mov    	dword ptr [ebp - 0x28], 0xdc3cba00
  0x122f	inc    	ebp
  === BLOCK LINK ===
    0x1230
=== CODE BLOCK END ===

=== CODE BLOCK ADDRESS 0x1230 ===
  0x1230	xor    	eax, eax
  0x1232	dec    	eax
  0x1233	lea    	edx, [ebp - 0x28]
  0x1236	dec    	eax
  0x1237	mov    	ecx, eax
  === BLOCK LINK ===
    0x1239
=== CODE BLOCK END ===

=== CODE BLOCK ADDRESS 0x1239 ===
  0x1239	dec    	eax
  0x123a	call   	dword ptr [0x1018]
  === BLOCK LINK ===
    0x1240
=== CODE BLOCK END ===

=== CODE BLOCK ADDRESS 0x1240 ===
  0x1240	nop    	dword ptr [eax + eax]
  0x1245	xor    	ebx, ebx
  0x1247	jmp    	0x126b
  === BLOCK LINK ===
    0x1249
    0x126b
=== CODE BLOCK END ===

=== CODE BLOCK ADDRESS 0x1249 ===
  0x1249	dec    	eax
  0x124a	call   	dword ptr [0xf48]
  === BLOCK LINK ===
    0x1250
=== CODE BLOCK END ===

=== CODE BLOCK ADDRESS 0x1250 ===
  0x1250	nop    	dword ptr [eax + eax]
  0x1255	movzx  	ebx, ax
  0x1258	or     	ebx, 0x80070000
  0x125e	test   	eax, eax
  0x1260	cmovle  	ebx, eax
  === BLOCK LINK ===
    0x1263
=== CODE BLOCK END ===

=== CODE BLOCK ADDRESS 0x1263 ===
  0x1263	test   	ebx, ebx
  0x1265	js     	0x1336
  === BLOCK LINK ===
    0x126b
    0x1336
=== CODE BLOCK END ===

=== CODE BLOCK ADDRESS 0x126b ===
  0x126b	dec    	eax
  0x126c	and    	dword ptr [ebp - 0x28], 0
  0x1270	dec    	eax
  0x1271	lea    	edi, [0x1da9]
  0x1277	xor    	esi, esi
  === BLOCK LINK ===
    0x1279
=== CODE BLOCK END ===

=== CODE BLOCK ADDRESS 0x1279 ===
  0x1279	dec    	esp
  0x127a	lea    	esi, [ebp - 0x28]
  === BLOCK LINK ===
    0x127d
=== CODE BLOCK END ===

=== CODE BLOCK ADDRESS 0x1283 ===
  0x1283	dec    	eax
  0x1284	lea    	eax, [ebp - 0x30]
  0x1287	inc    	ebp
  0x1288	xor    	eax, eax
  0x128a	dec    	esp
  === BLOCK LINK ===
    0x128b
=== CODE BLOCK END ===

=== CODE BLOCK ADDRESS 0x128b ===
  0x128b	lea    	ecx, [0x113f]
  0x1291	dec    	eax
  0x1292	mov    	dword ptr [esp + 0x20], eax
  0x1296	inc    	ecx
  0x1297	mov    	edx, edi
  === BLOCK LINK ===
    0x1299
=== CODE BLOCK END ===

=== CODE BLOCK ADDRESS 0x1299 ===
  0x1299	dec    	eax
  0x129a	mov    	ecx, edi
  0x129c	dec    	eax
  0x129d	call   	dword ptr [0xebd]
  === BLOCK LINK ===
    0x12a3
=== CODE BLOCK END ===

=== CODE BLOCK ADDRESS 0x12a3 ===
  0x12a3	nop    	dword ptr [eax + eax]
  0x12a8	mov    	ebx, eax
  0x12aa	test   	eax, eax
  0x12ac	js     	0x12e2
  === BLOCK LINK ===
    0x12ae
    0x12e2
=== CODE BLOCK END ===

=== CODE BLOCK ADDRESS 0x12ae ===
  0x12ae	dec    	eax
  0x12af	mov    	edx, dword ptr [ebp - 0x30]
  0x12b2	inc    	ebp
  0x12b3	mov    	ecx, edi
  0x12b5	inc    	ecx
  === BLOCK LINK ===
    0x12b6
=== CODE BLOCK END ===

=== CODE BLOCK ADDRESS 0x12b6 ===
  0x12b6	mov    	eax, 4
  0x12bb	dec    	esp
  0x12bc	mov    	dword ptr [esp + 0x20], esi
  0x12c0	dec    	eax
  0x12c1	mov    	ecx, edi
  === BLOCK LINK ===
    0x12c3
=== CODE BLOCK END ===

=== CODE BLOCK ADDRESS 0x12c3 ===
  0x12c3	dec    	eax
  0x12c4	call   	dword ptr [0xe7e]
  === BLOCK LINK ===
    0x12ca
=== CODE BLOCK END ===

=== CODE BLOCK ADDRESS 0x12ca ===
  0x12ca	nop    	dword ptr [eax + eax]
  0x12cf	dec    	eax
  0x12d0	mov    	ecx, dword ptr [ebp - 0x30]
  0x12d3	mov    	ebx, eax
  0x12d5	dec    	eax
  === BLOCK LINK ===
    0x12d6
=== CODE BLOCK END ===

=== CODE BLOCK ADDRESS 0x12d6 ===
  0x12d6	mov    	eax, dword ptr [ecx]
  0x12d8	dec    	eax
  0x12d9	mov    	eax, dword ptr [eax + 0x10]
  0x12dc	call   	dword ptr [0x1056]
  === BLOCK LINK ===
    0x12e2
=== CODE BLOCK END ===

=== CODE BLOCK ADDRESS 0x12e2 ===
  0x12e2	dec    	eax
  0x12e3	add    	esi, 0x10
  0x12e6	dec    	ecx
  0x12e7	add    	esi, 4
  0x12ea	dec    	eax
  === BLOCK LINK ===
    0x12eb
=== CODE BLOCK END ===

=== CODE BLOCK ADDRESS 0x12eb ===
  0x12eb	add    	edi, 0x10
  0x12ee	test   	ebx, ebx
  0x12f0	jns    	0x127d
  === BLOCK LINK ===
    0x12f2
    0x127d
=== CODE BLOCK END ===

=== CODE BLOCK ADDRESS 0x12f2 ===
  0x12f2	test   	ebx, ebx
  0x12f4	js     	0x1317
  === BLOCK LINK ===
    0x12f6
    0x1317
=== CODE BLOCK END ===

=== CODE BLOCK ADDRESS 0x12f6 ===
  0x12f6	dec    	eax
  0x12f7	lea    	eax, [ebp - 0x30]
  0x12fa	inc    	ebp
  0x12fb	mov    	eax, edi
  0x12fd	dec    	esp
  === BLOCK LINK ===
    0x12fe
=== CODE BLOCK END ===

=== CODE BLOCK ADDRESS 0x12fe ===
  0x12fe	lea    	ecx, [ebp - 0x10]
  0x1301	dec    	eax
  0x1302	mov    	dword ptr [esp + 0x20], eax
  0x1306	or     	edx, 0xffffffff
  0x1309	xor    	ecx, ecx
  === BLOCK LINK ===
    0x130b
=== CODE BLOCK END ===

=== CODE BLOCK ADDRESS 0x130b ===
  0x130b	dec    	eax
  0x130c	call   	dword ptr [0xe56]
  === BLOCK LINK ===
    0x1312
=== CODE BLOCK END ===

=== CODE BLOCK ADDRESS 0x1312 ===
  0x1312	nop    	dword ptr [eax + eax]
  === BLOCK LINK ===
    0x1317
    0x132d
=== CODE BLOCK END ===

=== CODE BLOCK ADDRESS 0x1321 ===
  0x1321	dec    	eax
  0x1322	call   	dword ptr [0xe28]
  === BLOCK LINK ===
    0x1328
=== CODE BLOCK END ===

=== CODE BLOCK ADDRESS 0x1328 ===
  0x1328	nop    	dword ptr [eax + eax]
  === BLOCK LINK ===
    0x132d
=== CODE BLOCK END ===

=== CODE BLOCK ADDRESS 0x1334 ===
  0x1334	jb     	0x1319
  === BLOCK LINK ===
    0x1336
    0x1319
=== CODE BLOCK END ===

=== CODE BLOCK ADDRESS 0x1336 ===
  0x1336	dec    	eax
  0x1337	call   	dword ptr [0xe3b]
  === BLOCK LINK ===
    0x133d
=== CODE BLOCK END ===

=== CODE BLOCK ADDRESS 0x133d ===
  0x133d	nop    	dword ptr [eax + eax]
  0x1342	xor    	ecx, ecx
  0x1344	dec    	esp
  0x1345	mov    	dword ptr [ebp - 0x20], esp
  0x1348	dec    	eax
  === BLOCK LINK ===
    0x1349
=== CODE BLOCK END ===

=== CODE BLOCK ADDRESS 0x1349 ===
  0x1349	call   	dword ptr [0xf39]
  === BLOCK LINK ===
    0x134f
=== CODE BLOCK END ===

=== CODE BLOCK ADDRESS 0x134f ===
  0x134f	nop    	dword ptr [eax + eax]
  0x1354	dec    	eax
  0x1355	mov    	ecx, dword ptr [ebp - 8]
  0x1358	dec    	eax
  0x1359	test   	ecx, ecx
  === BLOCK LINK ===
    0x135b
=== CODE BLOCK END ===

=== CODE BLOCK ADDRESS 0x135b ===
  0x135b	je     	0x13a8
  === BLOCK LINK ===
    0x135d
    0x13a8
=== CODE BLOCK END ===

=== CODE BLOCK ADDRESS 0x135d ===
  0x135d	dec    	eax
  0x135e	call   	dword ptr [0xf04]
  === BLOCK LINK ===
    0x1364
=== CODE BLOCK END ===

=== CODE BLOCK ADDRESS 0x1364 ===
  0x1364	nop    	dword ptr [eax + eax]
  0x1369	test   	eax, eax
  0x136b	je     	0x1398
  === BLOCK LINK ===
    0x136d
    0x1398
=== CODE BLOCK END ===

=== CODE BLOCK ADDRESS 0x136d ===
  0x136d	dec    	eax
  0x136e	mov    	ecx, dword ptr [ebp - 8]
  0x1371	inc    	ebp
  0x1372	xor    	ecx, ecx
  0x1374	inc    	ebp
  === BLOCK LINK ===
    0x1375
=== CODE BLOCK END ===

=== CODE BLOCK ADDRESS 0x1375 ===
  0x1375	xor    	eax, eax
  0x1377	xor    	edx, edx
  0x1379	dec    	eax
  0x137a	call   	dword ptr [0xed8]
  === BLOCK LINK ===
    0x1380
=== CODE BLOCK END ===

=== CODE BLOCK ADDRESS 0x1380 ===
  0x1380	nop    	dword ptr [eax + eax]
  0x1385	dec    	eax
  0x1386	mov    	ecx, dword ptr [ebp - 8]
  0x1389	inc    	ecx
  0x138a	mov    	edx, edi
  === BLOCK LINK ===
    0x138c
=== CODE BLOCK END ===

=== CODE BLOCK ADDRESS 0x138c ===
  0x138c	dec    	eax
  0x138d	call   	dword ptr [0xedd]
  === BLOCK LINK ===
    0x1393
=== CODE BLOCK END ===

=== CODE BLOCK ADDRESS 0x1393 ===
  0x1393	nop    	dword ptr [eax + eax]
  === BLOCK LINK ===
    0x1398
=== CODE BLOCK END ===

=== CODE BLOCK ADDRESS 0x13a3 ===
  0x13a3	nop    	dword ptr [eax + eax]
  === BLOCK LINK ===
    0x13a8
=== CODE BLOCK END ===

=== CODE BLOCK ADDRESS 0x13af ===
  0x13af	je     	0x13bd
  === BLOCK LINK ===
    0x13b1
    0x13bd
=== CODE BLOCK END ===

=== CODE BLOCK ADDRESS 0x13b1 ===
  0x13b1	dec    	eax
  0x13b2	call   	dword ptr [0xdf0]
  === BLOCK LINK ===
    0x13b8
=== CODE BLOCK END ===

=== CODE BLOCK ADDRESS 0x13b8 ===
  0x13b8	nop    	dword ptr [eax + eax]
  === BLOCK LINK ===
    0x13bd
=== CODE BLOCK END ===

=== CODE BLOCK ADDRESS 0x13c5 ===
  0x13c5	mov    	ebx, dword ptr [ebx + 0x20]
  0x13c8	dec    	ecx
  0x13c9	mov    	esi, dword ptr [ebx + 0x28]
  0x13cc	dec    	ecx
  0x13cd	mov    	edi, dword ptr [ebx + 0x30]
  === BLOCK LINK ===
    0x13d0
=== CODE BLOCK END ===

=== CODE BLOCK ADDRESS 0x13d0 ===
  0x13d0	dec    	ebp
  0x13d1	mov    	esp, dword ptr [ebx + 0x38]
  0x13d4	dec    	ecx
  0x13d5	mov    	esp, ebx
  0x13d7	inc    	ecx
  === BLOCK LINK ===
    0x13d8
=== CODE BLOCK END ===

=== CODE BLOCK ADDRESS 0x13d8 ===
  0x13d8	pop    	edi
  0x13d9	inc    	ecx
  0x13da	pop    	esi
  0x13db	pop    	ebp
  0x13dc	ret    	
  === BLOCK LINK ===
    0x13dd
=== CODE BLOCK END ===

=== CODE BLOCK ADDRESS 0x13dd ===
  0x13dd	int3   	
  0x13de	int3   	
  0x13df	int3   	
  0x13e0	int3   	
  0x13e1	int3   	
  === BLOCK LINK ===
    0x13e2
=== CODE BLOCK END ===

=== CODE BLOCK ADDRESS 0x13e2 ===
  0x13e2	int3   	
  0x13e3	int3   	
  0x13e4	int3   	
  0x13e5	int3   	
  0x13e6	int3   	
  === BLOCK LINK ===
    0x13e7
=== CODE BLOCK END ===

=== CODE BLOCK ADDRESS 0x13e7 ===
  0x13e7	int3   	
  0x13e8	int3   	
  0x13e9	int3   	
  0x13ea	int3   	
  0x13eb	int3   	
  === BLOCK LINK ===
    0x13ec
=== CODE BLOCK END ===

=== CODE BLOCK ADDRESS 0x13ec ===
  0x13ec	int3   	
  0x13ed	int3   	
  0x13ee	int3   	
  0x13ef	int3   	
  0x13f0	dec    	eax
  === BLOCK LINK ===
    0x13f1
=== CODE BLOCK END ===

=== CODE BLOCK ADDRESS 0x13f1 ===
  0x13f1	sub    	esp, 0x28
  0x13f4	mov    	eax, 0x5a4d
  0x13f9	cmp    	word ptr [0xffffec00], ax
  0x1400	je     	0x1406
  === BLOCK LINK ===
    0x1402
=== CODE BLOCK END ===

=== CODE BLOCK ADDRESS 0x1402 ===
  0x1402	xor    	eax, eax
  0x1404	jmp    	0x1459
  === BLOCK LINK ===
    0x1406
=== CODE BLOCK END ===

=== CODE BLOCK ADDRESS 0x1406 ===
  0x1406	dec    	eax
  0x1407	arpl   	word ptr [0xffffec2f], cx
  0x140d	dec    	eax
  0x140e	lea    	eax, [0xffffebec]
  0x1414	dec    	eax
  === BLOCK LINK ===
    0x1415
=== CODE BLOCK END ===

=== CODE BLOCK ADDRESS 0x1415 ===
  0x1415	add    	ecx, eax
  0x1417	cmp    	dword ptr [ecx], 0x4550
  0x141d	jne    	0x1402
  === BLOCK LINK ===
    0x141f
=== CODE BLOCK END ===

=== CODE BLOCK ADDRESS 0x141f ===
  0x141f	mov    	eax, 0x10b
  0x1424	cmp    	word ptr [ecx + 0x18], ax
  0x1428	je     	0x1448
  === BLOCK LINK ===
    0x142a
=== CODE BLOCK END ===

=== CODE BLOCK ADDRESS 0x142a ===
  0x142a	mov    	eax, 0x20b
  0x142f	cmp    	word ptr [ecx + 0x18], ax
  0x1433	jne    	0x1402
  === BLOCK LINK ===
    0x1435
=== CODE BLOCK END ===

=== CODE BLOCK ADDRESS 0x1435 ===
  0x1435	xor    	eax, eax
  0x1437	cmp    	dword ptr [ecx + 0x84], 0xe
  0x143e	jbe    	0x1459
  === BLOCK LINK ===
    0x1440
=== CODE BLOCK END ===

=== CODE BLOCK ADDRESS 0x1440 ===
  0x1440	cmp    	dword ptr [ecx + 0xf8], eax
  0x1446	jmp    	0x1456
  === BLOCK LINK ===
    0x1448
=== CODE BLOCK END ===

=== CODE BLOCK ADDRESS 0x1448 ===
  0x1448	xor    	eax, eax
  0x144a	cmp    	dword ptr [ecx + 0x74], 0xe
  0x144e	jbe    	0x1459
  === BLOCK LINK ===
    0x1450
=== CODE BLOCK END ===

=== CODE BLOCK ADDRESS 0x1450 ===
  0x1450	cmp    	dword ptr [ecx + 0xe8], eax
  0x1456	setne  	al
  0x1459	mov    	ecx, 2
  0x145e	mov    	dword ptr [0x1bfc], eax
  0x1464	call   	0x18b8
  === BLOCK LINK ===
    0x1469
=== CODE BLOCK END ===

=== CODE BLOCK ADDRESS 0x1469 ===
  0x1469	mov    	ecx, eax
  0x146b	call   	dword ptr [0xe3f]
  === BLOCK LINK ===
    0x1471
=== CODE BLOCK END ===

=== CODE BLOCK ADDRESS 0x1471 ===
  0x1471	dec    	eax
  0x1472	mov    	ecx, dword ptr [0xe20]
  0x1478	dec    	eax
  0x1479	or     	eax, 0xffffffff
  0x147c	dec    	eax
  === BLOCK LINK ===
    0x147d
=== CODE BLOCK END ===

=== CODE BLOCK ADDRESS 0x147d ===
  0x147d	mov    	dword ptr [0x216d], eax
  0x1483	dec    	eax
  0x1484	mov    	dword ptr [0x216e], eax
  0x148a	mov    	eax, dword ptr [0x1be4]
  0x1490	mov    	dword ptr [ecx], eax
  === BLOCK LINK ===
    0x1492
=== CODE BLOCK END ===

=== CODE BLOCK ADDRESS 0x1492 ===
  0x1492	dec    	eax
  0x1493	mov    	ecx, dword ptr [0xe2f]
  0x1499	mov    	eax, dword ptr [0x1bc9]
  0x149f	mov    	dword ptr [ecx], eax
  0x14a1	call   	0x1910
  === BLOCK LINK ===
    0x14a6
=== CODE BLOCK END ===

=== CODE BLOCK ADDRESS 0x14a6 ===
  0x14a6	cmp    	dword ptr [0x1b53], 0
  0x14ad	jne    	0x14bc
  === BLOCK LINK ===
    0x14af
=== CODE BLOCK END ===

=== CODE BLOCK ADDRESS 0x14af ===
  0x14af	dec    	eax
  0x14b0	lea    	ecx, [0x45a]
  0x14b6	call   	dword ptr [0xe34]
  === BLOCK LINK ===
    0x14bc
=== CODE BLOCK END ===

=== CODE BLOCK ADDRESS 0x14bc ===
  0x14bc	xor    	eax, eax
  0x14be	dec    	eax
  0x14bf	add    	esp, 0x28
  0x14c2	ret    	
  0x14c3	int3   	
  === BLOCK LINK ===
    0x14c4
=== CODE BLOCK END ===

=== CODE BLOCK ADDRESS 0x1132 ===
  0x1132	mov    	eax, ebx
  0x1134	dec    	eax
  0x1135	add    	esp, 0x20
  0x1138	pop    	ebx
  === BLOCK LINK ===
    0x1139
=== CODE BLOCK END ===

=== CODE BLOCK ADDRESS 0x14c4 ===
  0x14c4	int3   	
  0x14c5	int3   	
  0x14c6	int3   	
  0x14c7	int3   	
  0x14c8	int3   	
  === BLOCK LINK ===
    0x14c9
=== CODE BLOCK END ===

=== CODE BLOCK ADDRESS 0x14c9 ===
  0x14c9	int3   	
  0x14ca	int3   	
  0x14cb	int3   	
  0x14cc	int3   	
  0x14cd	int3   	
  === BLOCK LINK ===
    0x14ce
=== CODE BLOCK END ===

=== CODE BLOCK ADDRESS 0x14ce ===
  0x14ce	int3   	
  0x14cf	int3   	
  0x14d0	dec    	eax
  0x14d1	sub    	esp, 0x38
  0x14d4	mov    	eax, dword ptr [0x1b96]
  === BLOCK LINK ===
    0x14da
=== CODE BLOCK END ===

=== CODE BLOCK ADDRESS 0x14da ===
  0x14da	dec    	esp
  0x14db	lea    	eax, [0x1b77]
  0x14e1	inc    	esp
  0x14e2	mov    	ecx, dword ptr [0x1b84]
  0x14e8	dec    	eax
  === BLOCK LINK ===
    0x14e9
=== CODE BLOCK END ===

=== CODE BLOCK ADDRESS 0x14e9 ===
  0x14e9	lea    	edx, [0x1b61]
  0x14ef	mov    	dword ptr [0x1b6f], eax
  0x14f5	dec    	eax
  0x14f6	lea    	ecx, [0x1b4c]
  0x14fc	dec    	eax
  === BLOCK LINK ===
    0x14fd
=== CODE BLOCK END ===

=== CODE BLOCK ADDRESS 0x14fd ===
  0x14fd	lea    	eax, [0x1b61]
  0x1503	dec    	eax
  0x1504	mov    	dword ptr [esp + 0x20], eax
  0x1508	call   	dword ptr [0xd9a]
  === BLOCK LINK ===
    0x150e
=== CODE BLOCK END ===

=== CODE BLOCK ADDRESS 0x150e ===
  0x150e	mov    	dword ptr [0x1b38], eax
  0x1514	dec    	eax
  0x1515	add    	esp, 0x38
  0x1518	ret    	
  0x1519	int3   	
  === BLOCK LINK ===
    0x151a
=== CODE BLOCK END ===

=== CODE BLOCK ADDRESS 0x151a ===
  0x151a	int3   	
  0x151b	int3   	
  0x151c	int3   	
  0x151d	int3   	
  0x151e	int3   	
  === BLOCK LINK ===
    0x151f
=== CODE BLOCK END ===

=== CODE BLOCK ADDRESS 0x151f ===
  0x151f	int3   	
  0x1520	dec    	eax
  0x1521	mov    	eax, esp
  0x1523	dec    	eax
  0x1524	mov    	dword ptr [eax + 8], ebx
  === BLOCK LINK ===
    0x1527
=== CODE BLOCK END ===

=== CODE BLOCK ADDRESS 0x1527 ===
  0x1527	dec    	eax
  0x1528	mov    	dword ptr [eax + 0x10], esi
  0x152b	dec    	eax
  0x152c	mov    	dword ptr [eax + 0x18], edi
  0x152f	dec    	esp
  === BLOCK LINK ===
    0x1530
=== CODE BLOCK END ===

=== CODE BLOCK ADDRESS 0x1530 ===
  0x1530	mov    	dword ptr [eax + 0x20], esi
  0x1533	inc    	ecx
  0x1534	push   	edi
  0x1535	dec    	eax
  0x1536	sub    	esp, 0xb0
  === BLOCK LINK ===
    0x153c
=== CODE BLOCK END ===

=== CODE BLOCK ADDRESS 0x153c ===
  0x153c	inc    	ebp
  0x153d	xor    	esi, esi
  0x153f	inc    	esp
  0x1540	mov    	dword ptr [esp + 0x20], esi
  0x1544	dec    	eax
  === BLOCK LINK ===
    0x1545
=== CODE BLOCK END ===

=== CODE BLOCK ADDRESS 0x1545 ===
  0x1545	lea    	ecx, [eax - 0x78]
  0x1548	call   	dword ptr [0xc9a]
  === BLOCK LINK ===
    0x154e
=== CODE BLOCK END ===

=== CODE BLOCK ADDRESS 0x154e ===
  0x154e	nop    	
  0x154f	dec    	eax
  0x1551	mov    	eax, dword ptr [0x30]
  0x1558	dec    	eax
  0x1559	mov    	ebx, dword ptr [eax + 8]
  === BLOCK LINK ===
    0x155c
=== CODE BLOCK END ===

=== CODE BLOCK ADDRESS 0x155c ===
  0x155c	inc    	ecx
  0x155d	mov    	esi, esi
  0x155f	xor    	eax, eax
  0x1561	.byte  	0xf0
  0x1562	dec    	eax
  === BLOCK LINK ===
    0x1563
=== CODE BLOCK END ===

=== CODE BLOCK ADDRESS 0x1563 ===
  0x1563	cmpxchg  	dword ptr [0x2096], ebx
  0x156a	je     	0x1587
  === BLOCK LINK ===
    0x156c
=== CODE BLOCK END ===

=== CODE BLOCK ADDRESS 0x156c ===
  0x156c	dec    	eax
  0x156d	cmp    	eax, ebx
  0x156f	jne    	0x157a
  === BLOCK LINK ===
    0x1571
=== CODE BLOCK END ===

=== CODE BLOCK ADDRESS 0x1571 ===
  0x1571	mov    	ebx, 1
  0x1576	mov    	esi, ebx
  0x1578	jmp    	0x158c
  === BLOCK LINK ===
    0x157a
=== CODE BLOCK END ===

=== CODE BLOCK ADDRESS 0x157a ===
  0x157a	mov    	ecx, 0x3e8
  0x157f	call   	dword ptr [0xcab]
  === BLOCK LINK ===
    0x1585
=== CODE BLOCK END ===

=== CODE BLOCK ADDRESS 0x1585 ===
  0x1585	jmp    	0x155f
  === BLOCK LINK ===
    0x1587
=== CODE BLOCK END ===

=== CODE BLOCK ADDRESS 0x1587 ===
  0x1587	mov    	ebx, 1
  0x158c	mov    	eax, dword ptr [0x2076]
  0x1592	cmp    	eax, ebx
  0x1594	jne    	0x15a4
  === BLOCK LINK ===
    0x1596
=== CODE BLOCK END ===

=== CODE BLOCK ADDRESS 0x1596 ===
  0x1596	mov    	edi, 0x1f
  0x159b	mov    	ecx, edi
  0x159d	call   	0x1903
  === BLOCK LINK ===
    0x15a2
=== CODE BLOCK END ===

=== CODE BLOCK ADDRESS 0x15a2 ===
  0x15a2	jmp    	0x1610
  === BLOCK LINK ===
    0x15a4
=== CODE BLOCK END ===

=== CODE BLOCK ADDRESS 0x15a4 ===
  0x15a4	mov    	eax, dword ptr [0x205e]
  0x15aa	test   	eax, eax
  0x15ac	jne    	0x1605
  === BLOCK LINK ===
    0x15ae
=== CODE BLOCK END ===

=== CODE BLOCK ADDRESS 0x15ae ===
  0x15ae	mov    	dword ptr [0x2054], ebx
  0x15b4	dec    	esp
  0x15b5	lea    	edi, [0xdb5]
  0x15bb	dec    	eax
  0x15bc	lea    	edi, [0xd96]
  === BLOCK LINK ===
    0x15c2
=== CODE BLOCK END ===

=== CODE BLOCK ADDRESS 0x15c2 ===
  0x15c2	dec    	eax
  0x15c3	mov    	dword ptr [esp + 0x30], edi
  0x15c7	inc    	ecx
  0x15c8	mov    	eax, esi
  0x15ca	mov    	dword ptr [esp + 0x24], eax
  === BLOCK LINK ===
    0x15ce
=== CODE BLOCK END ===

=== CODE BLOCK ADDRESS 0x15ce ===
  0x15ce	dec    	ecx
  0x15cf	cmp    	edi, edi
  0x15d1	jae    	0x15f7
  === BLOCK LINK ===
    0x15d3
=== CODE BLOCK END ===

=== CODE BLOCK ADDRESS 0x15d3 ===
  0x15d3	test   	eax, eax
  0x15d5	jne    	0x15fb
  === BLOCK LINK ===
    0x15d7
=== CODE BLOCK END ===

=== CODE BLOCK ADDRESS 0x15d7 ===
  0x15d7	dec    	esp
  0x15d8	cmp    	dword ptr [edi], esi
  0x15da	je     	0x15ec
  === BLOCK LINK ===
    0x15dc
=== CODE BLOCK END ===

=== CODE BLOCK ADDRESS 0x15dc ===
  0x15dc	dec    	eax
  0x15dd	mov    	eax, dword ptr [edi]
  0x15df	dec    	eax
  0x15e0	mov    	ecx, dword ptr [0xd52]
  0x15e6	call   	ecx
  === BLOCK LINK ===
    0x15e8
=== CODE BLOCK END ===

=== CODE BLOCK ADDRESS 0x15e8 ===
  0x15e8	mov    	dword ptr [esp + 0x24], eax
  0x15ec	dec    	eax
  0x15ed	add    	edi, 8
  0x15f0	dec    	eax
  0x15f1	mov    	dword ptr [esp + 0x30], edi
  === BLOCK LINK ===
    0x15f5
=== CODE BLOCK END ===

=== CODE BLOCK ADDRESS 0x15f5 ===
  0x15f5	jmp    	0x15ce
  === BLOCK LINK ===
    0x15f7
=== CODE BLOCK END ===

=== CODE BLOCK ADDRESS 0x15f7 ===
  0x15f7	test   	eax, eax
  0x15f9	je     	0x160b
  === BLOCK LINK ===
    0x15fb
=== CODE BLOCK END ===

=== CODE BLOCK ADDRESS 0x15fb ===
  0x15fb	mov    	eax, 0xff
  0x1600	jmp    	0x1766
  === BLOCK LINK ===
    0x1605
=== CODE BLOCK END ===

=== CODE BLOCK ADDRESS 0x1605 ===
  0x1605	mov    	dword ptr [0x1a39], ebx
  0x160b	mov    	edi, 0x1f
  0x1610	mov    	eax, dword ptr [0x1ff2]
  0x1616	cmp    	eax, ebx
  0x1618	jne    	0x1637
  === BLOCK LINK ===
    0x161a
=== CODE BLOCK END ===

=== CODE BLOCK ADDRESS 0x161a ===
  0x161a	dec    	eax
  0x161b	lea    	edx, [0xd2f]
  0x1621	dec    	eax
  0x1622	lea    	ecx, [0xd18]
  0x1628	call   	0x1ade
  === BLOCK LINK ===
    0x162d
=== CODE BLOCK END ===

=== CODE BLOCK ADDRESS 0x162d ===
  0x162d	mov    	dword ptr [0x1fd1], 2
  0x1637	test   	esi, esi
  0x1639	jne    	0x1645
  === BLOCK LINK ===
    0x163b
=== CODE BLOCK END ===

=== CODE BLOCK ADDRESS 0x163b ===
  0x163b	dec    	ecx
  0x163c	mov    	eax, esi
  0x163e	dec    	eax
  0x163f	xchg   	dword ptr [0x1fbb], eax
  0x1645	dec    	esp
  === BLOCK LINK ===
    0x1646
=== CODE BLOCK END ===

=== CODE BLOCK ADDRESS 0x1646 ===
  0x1646	cmp    	dword ptr [0x1fc4], esi
  0x164c	je     	0x1678
  === BLOCK LINK ===
    0x164e
=== CODE BLOCK END ===

=== CODE BLOCK ADDRESS 0x164e ===
  0x164e	dec    	eax
  0x164f	lea    	ecx, [0x1fbb]
  0x1655	call   	0x1970
  === BLOCK LINK ===
    0x165a
=== CODE BLOCK END ===

=== CODE BLOCK ADDRESS 0x165a ===
  0x165a	test   	eax, eax
  0x165c	je     	0x1678
  === BLOCK LINK ===
    0x165e
=== CODE BLOCK END ===

=== CODE BLOCK ADDRESS 0x165e ===
  0x165e	inc    	ebp
  0x165f	xor    	eax, eax
  0x1661	inc    	ecx
  0x1662	lea    	edx, [eax + 2]
  0x1665	xor    	ecx, ecx
  === BLOCK LINK ===
    0x1667
=== CODE BLOCK END ===

=== CODE BLOCK ADDRESS 0x1667 ===
  0x1667	dec    	eax
  0x1668	mov    	eax, dword ptr [0x1fa2]
  0x166e	dec    	esp
  0x166f	mov    	ecx, dword ptr [0xcc3]
  0x1675	inc    	ecx
  === BLOCK LINK ===
    0x1676
=== CODE BLOCK END ===

=== CODE BLOCK ADDRESS 0x1676 ===
  0x1676	call   	ecx
  === BLOCK LINK ===
    0x1678
=== CODE BLOCK END ===

=== CODE BLOCK ADDRESS 0x1678 ===
  0x1678	dec    	eax
  0x1679	mov    	eax, dword ptr [0xc59]
  0x167f	dec    	eax
  0x1680	mov    	ecx, dword ptr [eax]
  0x1682	dec    	eax
  === BLOCK LINK ===
    0x1683
=== CODE BLOCK END ===

=== CODE BLOCK ADDRESS 0x1683 ===
  0x1683	test   	ecx, ecx
  0x1685	jne    	0x1691
  === BLOCK LINK ===
    0x1687
=== CODE BLOCK END ===

=== CODE BLOCK ADDRESS 0x1687 ===
  0x1687	mov    	eax, 0xff
  0x168c	jmp    	0x1766
  === BLOCK LINK ===
    0x1691
=== CODE BLOCK END ===

=== CODE BLOCK ADDRESS 0x1691 ===
  0x1691	dec    	eax
  0x1692	mov    	dword ptr [esp + 0x28], ecx
  0x1696	mov    	edx, dword ptr [esp + 0x20]
  0x169a	movzx  	eax, word ptr [ecx]
  0x169d	cmp    	ax, 0x20
  === BLOCK LINK ===
    0x16a1
=== CODE BLOCK END ===

=== CODE BLOCK ADDRESS 0x16a1 ===
  0x16a1	ja     	0x1717
  === BLOCK LINK ===
    0x16a3
=== CODE BLOCK END ===

=== CODE BLOCK ADDRESS 0x16a3 ===
  0x16a3	test   	ax, ax
  0x16a6	je     	0x16ac
  === BLOCK LINK ===
    0x16a8
=== CODE BLOCK END ===

=== CODE BLOCK ADDRESS 0x16a8 ===
  0x16a8	test   	edx, edx
  0x16aa	jne    	0x1717
  === BLOCK LINK ===
    0x16ac
=== CODE BLOCK END ===

=== CODE BLOCK ADDRESS 0x16ac ===
  0x16ac	sub    	ax, bx
  0x16af	cmp    	ax, di
  0x16b2	ja     	0x16c2
  === BLOCK LINK ===
    0x16b4
=== CODE BLOCK END ===

=== CODE BLOCK ADDRESS 0x16b4 ===
  0x16b4	dec    	eax
  0x16b5	add    	ecx, 2
  0x16b8	dec    	eax
  0x16b9	mov    	dword ptr [esp + 0x28], ecx
  0x16bd	movzx  	eax, word ptr [ecx]
  === BLOCK LINK ===
    0x16c0
=== CODE BLOCK END ===

=== CODE BLOCK ADDRESS 0x16c0 ===
  0x16c0	jmp    	0x16ac
  === BLOCK LINK ===
    0x16c2
=== CODE BLOCK END ===

=== CODE BLOCK ADDRESS 0x16c2 ===
  0x16c2	test   	byte ptr [esp + 0x7c], bl
  0x16c6	movzx  	eax, word ptr [esp + 0x80]
  0x16ce	inc    	ecx
  0x16cf	mov    	ecx, 0xa
  0x16d4	inc    	esp
  === BLOCK LINK ===
    0x16d5
=== CODE BLOCK END ===

=== CODE BLOCK ADDRESS 0x16d5 ===
  0x16d5	cmovne  	ecx, eax
  0x16d8	dec    	esp
  0x16d9	mov    	eax, ecx
  0x16db	xor    	edx, edx
  0x16dd	dec    	eax
  === BLOCK LINK ===
    0x16de
=== CODE BLOCK END ===

=== CODE BLOCK ADDRESS 0x16de ===
  0x16de	lea    	ecx, [0xffffe91c]
  0x16e4	call   	0x1168
  === BLOCK LINK ===
    0x16e9
=== CODE BLOCK END ===

=== CODE BLOCK ADDRESS 0x16e9 ===
  0x16e9	mov    	dword ptr [0x1951], eax
  0x16ef	inc    	esp
  0x16f0	cmp    	dword ptr [0x196a], esi
  0x16f6	jne    	0x1700
  === BLOCK LINK ===
    0x16f8
=== CODE BLOCK END ===

=== CODE BLOCK ADDRESS 0x16f8 ===
  0x16f8	mov    	ecx, eax
  0x16fa	call   	dword ptr [0xbb8]
  === BLOCK LINK ===
    0x1700
=== CODE BLOCK END ===

=== CODE BLOCK ADDRESS 0x1700 ===
  0x1700	inc    	esp
  0x1701	cmp    	dword ptr [0x193d], esi
  0x1707	jne    	0x1715
  === BLOCK LINK ===
    0x1709
=== CODE BLOCK END ===

=== CODE BLOCK ADDRESS 0x1709 ===
  0x1709	call   	dword ptr [0xbe9]
  === BLOCK LINK ===
    0x170f
=== CODE BLOCK END ===

=== CODE BLOCK ADDRESS 0x170f ===
  0x170f	mov    	eax, dword ptr [0x192b]
  0x1715	jmp    	0x1766
  === BLOCK LINK ===
    0x1717
=== CODE BLOCK END ===

=== CODE BLOCK ADDRESS 0x1717 ===
  0x1717	cmp    	ax, 0x22
  0x171b	jne    	0x172b
  === BLOCK LINK ===
    0x171d
=== CODE BLOCK END ===

=== CODE BLOCK ADDRESS 0x171d ===
  0x171d	inc    	ecx
  0x171e	mov    	eax, esi
  0x1720	test   	edx, edx
  0x1722	sete   	al
  0x1725	mov    	edx, eax
  === BLOCK LINK ===
    0x1727
=== CODE BLOCK END ===

=== CODE BLOCK ADDRESS 0x1727 ===
  0x1727	mov    	dword ptr [esp + 0x20], eax
  0x172b	dec    	eax
  0x172c	add    	ecx, 2
  0x172f	dec    	eax
  0x1730	mov    	dword ptr [esp + 0x28], ecx
  === BLOCK LINK ===
    0x1734
=== CODE BLOCK END ===

=== CODE BLOCK ADDRESS 0x1734 ===
  0x1734	jmp    	0x169a
  === BLOCK LINK ===
    0x1739
=== CODE BLOCK END ===

=== CODE BLOCK ADDRESS 0x1739 ===
  0x1739	mov    	dword ptr [0x1901], eax
  0x173f	cmp    	dword ptr [0x191a], 0
  0x1746	jne    	0x1751
  === BLOCK LINK ===
    0x1748
=== CODE BLOCK END ===

=== CODE BLOCK ADDRESS 0x1748 ===
  0x1748	mov    	ecx, eax
  0x174a	call   	dword ptr [0xbb0]
  === BLOCK LINK ===
    0x1750
=== CODE BLOCK END ===

=== CODE BLOCK ADDRESS 0x1750 ===
  0x1750	int3   	
  0x1751	cmp    	dword ptr [0x18ec], 0
  0x1758	jne    	0x1766
  === BLOCK LINK ===
    0x175a
=== CODE BLOCK END ===

=== CODE BLOCK ADDRESS 0x175a ===
  0x175a	call   	dword ptr [0xb98]
  === BLOCK LINK ===
    0x1760
=== CODE BLOCK END ===

=== CODE BLOCK ADDRESS 0x1760 ===
  0x1760	mov    	eax, dword ptr [0x18da]
  0x1766	dec    	esp
  0x1767	lea    	ebx, [esp + 0xb0]
  0x176e	dec    	ecx
  0x176f	mov    	ebx, dword ptr [ebx + 0x10]
  === BLOCK LINK ===
    0x1772
=== CODE BLOCK END ===

=== CODE BLOCK ADDRESS 0x1772 ===
  0x1772	dec    	ecx
  0x1773	mov    	esi, dword ptr [ebx + 0x18]
  0x1776	dec    	ecx
  0x1777	mov    	edi, dword ptr [ebx + 0x20]
  0x177a	dec    	ebp
  === BLOCK LINK ===
    0x177b
=== CODE BLOCK END ===

=== CODE BLOCK ADDRESS 0x177b ===
  0x177b	mov    	esi, dword ptr [ebx + 0x28]
  0x177e	dec    	ecx
  0x177f	mov    	esp, ebx
  0x1781	inc    	ecx
  0x1782	pop    	edi
  === BLOCK LINK ===
    0x1783
=== CODE BLOCK END ===

=== CODE BLOCK ADDRESS 0x1783 ===
  0x1783	ret    	
  0x1784	int3   	
  0x1785	int3   	
  0x1786	int3   	
  0x1787	int3   	
  === BLOCK LINK ===
    0x1788
=== CODE BLOCK END ===

=== CODE BLOCK ADDRESS 0x1788 ===
  0x1788	int3   	
  0x1789	int3   	
  0x178a	int3   	
  0x178b	int3   	
  0x178c	int3   	
  === BLOCK LINK ===
    0x178d
=== CODE BLOCK END ===

=== CODE BLOCK ADDRESS 0x178d ===
  0x178d	int3   	
  0x178e	int3   	
  0x178f	int3   	
  0x1790	dec    	eax
  0x1791	sub    	esp, 0x28
  === BLOCK LINK ===
    0x1794
=== CODE BLOCK END ===

=== CODE BLOCK ADDRESS 0x1794 ===
  0x1794	call   	0x1a04
  === BLOCK LINK ===
    0x1799
=== CODE BLOCK END ===

=== CODE BLOCK ADDRESS 0x1799 ===
  0x1799	dec    	eax
  0x179a	add    	esp, 0x28
  0x179d	jmp    	0x1520
  === BLOCK LINK ===
    0x17a2
=== CODE BLOCK END ===

=== CODE BLOCK ADDRESS 0x17a2 ===
  0x17a2	int3   	
  0x17a3	int3   	
  0x17a4	int3   	
  0x17a5	int3   	
  0x17a6	int3   	
  === BLOCK LINK ===
    0x17a7
=== CODE BLOCK END ===

=== CODE BLOCK ADDRESS 0x17a7 ===
  0x17a7	int3   	
  0x17a8	int3   	
  0x17a9	int3   	
  0x17aa	int3   	
  0x17ab	int3   	
  === BLOCK LINK ===
    0x17ac
=== CODE BLOCK END ===

=== CODE BLOCK ADDRESS 0x17ac ===
  0x17ac	int3   	
  0x17ad	int3   	
  0x17ae	int3   	
  0x17af	int3   	
  0x17b0	int3   	
  === BLOCK LINK ===
    0x17b1
=== CODE BLOCK END ===

=== CODE BLOCK ADDRESS 0x17b1 ===
  0x17b1	int3   	
  0x17b2	int3   	
  0x17b3	int3   	
  0x17b4	int3   	
  0x17b5	int3   	
  === BLOCK LINK ===
    0x17b6
=== CODE BLOCK END ===

=== CODE BLOCK ADDRESS 0x17b6 ===
  0x17b6	nop    	word ptr [eax + eax]
  0x17c0	dec    	eax
  0x17c1	cmp    	ecx, dword ptr [0x1841]
  0x17c7	jne    	0x17d9
  === BLOCK LINK ===
    0x17c9
=== CODE BLOCK END ===

=== CODE BLOCK ADDRESS 0x17c9 ===
  0x17c9	dec    	eax
  0x17ca	rol    	ecx, 0x10
  0x17cd	test   	cx, 0xffff
  0x17d2	jne    	0x17d5
  === BLOCK LINK ===
    0x17d4
=== CODE BLOCK END ===

=== CODE BLOCK ADDRESS 0x17d4 ===
  0x17d4	ret    	
  0x17d5	dec    	eax
  0x17d6	ror    	ecx, 0x10
  0x17d9	jmp    	0x1b50
  === BLOCK LINK ===
    0x17de
=== CODE BLOCK END ===

=== CODE BLOCK ADDRESS 0x17de ===
  0x17de	int3   	
  0x17df	int3   	
  0x17e0	int3   	
  0x17e1	int3   	
  0x17e2	int3   	
  === BLOCK LINK ===
    0x17e3
=== CODE BLOCK END ===

=== CODE BLOCK ADDRESS 0x17e3 ===
  0x17e3	int3   	
  0x17e4	int3   	
  0x17e5	int3   	
  0x17e6	int3   	
  0x17e7	int3   	
  === BLOCK LINK ===
    0x17e8
=== CODE BLOCK END ===

=== CODE BLOCK ADDRESS 0x17e8 ===
  0x17e8	int3   	
  0x17e9	int3   	
  0x17ea	int3   	
  0x17eb	int3   	
  0x17ec	int3   	
  === BLOCK LINK ===
    0x17ed
=== CODE BLOCK END ===

=== CODE BLOCK ADDRESS 0x17ed ===
  0x17ed	int3   	
  0x17ee	int3   	
  0x17ef	int3   	
  0x17f0	dec    	eax
  0x17f1	sub    	esp, 0x28
  === BLOCK LINK ===
    0x17f4
=== CODE BLOCK END ===

=== CODE BLOCK ADDRESS 0x17f4 ===
  0x17f4	dec    	eax
  0x17f5	mov    	eax, dword ptr [ecx]
  0x17f7	cmp    	dword ptr [eax], 0xe06d7363
  0x17fd	jne    	0x1822
  === BLOCK LINK ===
    0x17ff
=== CODE BLOCK END ===

=== CODE BLOCK ADDRESS 0x17ff ===
  0x17ff	cmp    	dword ptr [eax + 0x18], 4
  0x1803	jne    	0x1822
  === BLOCK LINK ===
    0x1805
=== CODE BLOCK END ===

=== CODE BLOCK ADDRESS 0x1805 ===
  0x1805	mov    	ecx, dword ptr [eax + 0x20]
  0x1808	lea    	eax, [ecx - 0x19930520]
  0x180e	cmp    	eax, 2
  0x1811	jbe    	0x181b
  === BLOCK LINK ===
    0x1813
=== CODE BLOCK END ===

=== CODE BLOCK ADDRESS 0x1813 ===
  0x1813	cmp    	ecx, 0x1994000
  0x1819	jne    	0x1822
  === BLOCK LINK ===
    0x181b
=== CODE BLOCK END ===

=== CODE BLOCK ADDRESS 0x181b ===
  0x181b	call   	dword ptr [0xa9f]
  === BLOCK LINK ===
    0x1821
=== CODE BLOCK END ===

=== CODE BLOCK ADDRESS 0x1821 ===
  0x1821	int3   	
  0x1822	xor    	eax, eax
  0x1824	dec    	eax
  0x1825	add    	esp, 0x28
  0x1828	ret    	
  === BLOCK LINK ===
    0x1829
=== CODE BLOCK END ===

=== CODE BLOCK ADDRESS 0x13bd ===
  0x13bd	dec    	esp
  0x13be	lea    	ebx, [esp + 0x60]
  0x13c2	xor    	eax, eax
  0x13c4	dec    	ecx
  === BLOCK LINK ===
    0x13c5
=== CODE BLOCK END ===

=== CODE BLOCK ADDRESS 0x1829 ===
  0x1829	int3   	
  0x182a	int3   	
  0x182b	int3   	
  0x182c	int3   	
  0x182d	int3   	
  === BLOCK LINK ===
    0x182e
=== CODE BLOCK END ===

=== CODE BLOCK ADDRESS 0x182e ===
  0x182e	int3   	
  0x182f	int3   	
  0x1830	dec    	eax
  0x1831	sub    	esp, 0x28
  0x1834	dec    	eax
  === BLOCK LINK ===
    0x1835
=== CODE BLOCK END ===

=== CODE BLOCK ADDRESS 0x1835 ===
  0x1835	lea    	ecx, [0xffffffb5]
  0x183b	call   	dword ptr [0x94f]
  === BLOCK LINK ===
    0x1841
=== CODE BLOCK END ===

=== CODE BLOCK ADDRESS 0x1841 ===
  0x1841	xor    	eax, eax
  0x1843	dec    	eax
  0x1844	add    	esp, 0x28
  0x1847	ret    	
  0x1848	int3   	
  === BLOCK LINK ===
    0x1849
=== CODE BLOCK END ===

=== CODE BLOCK ADDRESS 0x1849 ===
  0x1849	int3   	
  0x184a	int3   	
  0x184b	int3   	
  0x184c	int3   	
  0x184d	int3   	
  === BLOCK LINK ===
    0x184e
=== CODE BLOCK END ===

=== CODE BLOCK ADDRESS 0x184e ===
  0x184e	jmp    	dword ptr [0xa7c]
  === BLOCK LINK ===
    0x1854
=== CODE BLOCK END ===

=== CODE BLOCK ADDRESS 0x1854 ===
  0x1854	int3   	
  0x1855	int3   	
  0x1856	int3   	
  0x1857	int3   	
  0x1858	int3   	
  === BLOCK LINK ===
    0x1859
=== CODE BLOCK END ===

=== CODE BLOCK ADDRESS 0x1859 ===
  0x1859	int3   	
  0x185a	int3   	
  0x185b	int3   	
  0x185c	dec    	eax
  0x185d	sub    	esp, 0x18
  === BLOCK LINK ===
    0x1860
=== CODE BLOCK END ===

=== CODE BLOCK ADDRESS 0x1860 ===
  0x1860	xor    	edx, edx
  0x1862	dec    	eax
  0x1863	lea    	eax, [ecx - 1]
  0x1866	dec    	eax
  0x1867	cmp    	eax, -3
  === BLOCK LINK ===
    0x186a
=== CODE BLOCK END ===

=== CODE BLOCK ADDRESS 0x186a ===
  0x186a	ja     	0x18a8
  === BLOCK LINK ===
    0x186c
=== CODE BLOCK END ===

=== CODE BLOCK ADDRESS 0x186c ===
  0x186c	mov    	eax, 0x5a4d
  0x1871	cmp    	word ptr [ecx], ax
  0x1874	jne    	0x18a0
  === BLOCK LINK ===
    0x1876
=== CODE BLOCK END ===

=== CODE BLOCK ADDRESS 0x1876 ===
  0x1876	cmp    	dword ptr [ecx + 0x3c], edx
  0x1879	jl     	0x18a0
  === BLOCK LINK ===
    0x187b
=== CODE BLOCK END ===

=== CODE BLOCK ADDRESS 0x187b ===
  0x187b	cmp    	dword ptr [ecx + 0x3c], 0x10000000
  0x1882	jae    	0x18a0
  === BLOCK LINK ===
    0x1884
=== CODE BLOCK END ===

=== CODE BLOCK ADDRESS 0x1884 ===
  0x1884	dec    	eax
  0x1885	arpl   	word ptr [ecx + 0x3c], ax
  0x1888	dec    	eax
  0x1889	add    	eax, ecx
  0x188b	dec    	eax
  === BLOCK LINK ===
    0x188c
=== CODE BLOCK END ===

=== CODE BLOCK ADDRESS 0x188c ===
  0x188c	mov    	dword ptr [esp], eax
  0x188f	cmp    	dword ptr [eax], 0x4550
  0x1895	dec    	eax
  0x1896	cmovne  	eax, edx
  0x1899	dec    	eax
  === BLOCK LINK ===
    0x189a
=== CODE BLOCK END ===

=== CODE BLOCK ADDRESS 0x189a ===
  0x189a	mov    	edx, eax
  0x189c	dec    	eax
  0x189d	mov    	dword ptr [esp], eax
  0x18a0	jmp    	0x18a8
  === BLOCK LINK ===
    0x18a2
=== CODE BLOCK END ===

=== CODE BLOCK ADDRESS 0x18a2 ===
  0x18a2	xor    	edx, edx
  0x18a4	dec    	eax
  0x18a5	mov    	dword ptr [esp], edx
  0x18a8	dec    	eax
  0x18a9	mov    	eax, edx
  === BLOCK LINK ===
    0x18ab
=== CODE BLOCK END ===

=== CODE BLOCK ADDRESS 0x18ab ===
  0x18ab	dec    	eax
  0x18ac	add    	esp, 0x18
  0x18af	ret    	
  0x18b0	int3   	
  0x18b1	int3   	
  === BLOCK LINK ===
    0x18b2
=== CODE BLOCK END ===

=== CODE BLOCK ADDRESS 0x18b2 ===
  0x18b2	int3   	
  0x18b3	int3   	
  0x18b4	int3   	
  0x18b5	int3   	
  0x18b6	int3   	
  === BLOCK LINK ===
    0x18b7
=== CODE BLOCK END ===

=== CODE BLOCK ADDRESS 0x18b7 ===
  0x18b7	int3   	
  0x18b8	inc    	eax
  0x18b9	push   	ebx
  0x18ba	dec    	eax
  0x18bb	sub    	esp, 0x20
  === BLOCK LINK ===
    0x18be
=== CODE BLOCK END ===

=== CODE BLOCK ADDRESS 0x18be ===
  0x18be	mov    	ebx, ecx
  0x18c0	xor    	ecx, ecx
  0x18c2	call   	dword ptr [0x900]
  === BLOCK LINK ===
    0x18c8
=== CODE BLOCK END ===

=== CODE BLOCK ADDRESS 0x18c8 ===
  0x18c8	dec    	eax
  0x18c9	test   	eax, eax
  0x18cb	je     	0x18f5
  === BLOCK LINK ===
    0x18cd
=== CODE BLOCK END ===

=== CODE BLOCK ADDRESS 0x18cd ===
  0x18cd	dec    	eax
  0x18ce	mov    	ecx, eax
  0x18d0	call   	0x185c
  === BLOCK LINK ===
    0x18d5
=== CODE BLOCK END ===

=== CODE BLOCK ADDRESS 0x18d5 ===
  0x18d5	dec    	eax
  0x18d6	test   	eax, eax
  0x18d8	je     	0x18f5
  === BLOCK LINK ===
    0x18da
=== CODE BLOCK END ===

=== CODE BLOCK ADDRESS 0x18da ===
  0x18da	mov    	ecx, 2
  0x18df	cmp    	word ptr [eax + 0x5c], cx
  0x18e3	jne    	0x18e9
  === BLOCK LINK ===
    0x18e5
=== CODE BLOCK END ===

=== CODE BLOCK ADDRESS 0x18e5 ===
  0x18e5	mov    	eax, ecx
  0x18e7	jmp    	0x18f7
  === BLOCK LINK ===
    0x18e9
=== CODE BLOCK END ===

=== CODE BLOCK ADDRESS 0x18e9 ===
  0x18e9	cmp    	word ptr [eax + 0x5c], 3
  0x18ee	mov    	eax, 1
  0x18f3	je     	0x18f7
  === BLOCK LINK ===
    0x18f5
=== CODE BLOCK END ===

=== CODE BLOCK ADDRESS 0x18f5 ===
  0x18f5	mov    	eax, ebx
  0x18f7	dec    	eax
  0x18f8	add    	esp, 0x20
  0x18fb	pop    	ebx
  0x18fc	ret    	
  === BLOCK LINK ===
    0x18fd
=== CODE BLOCK END ===

=== CODE BLOCK ADDRESS 0x18fd ===
  0x18fd	int3   	
  0x18fe	int3   	
  0x18ff	int3   	
  0x1900	int3   	
  0x1901	int3   	
  === BLOCK LINK ===
    0x1902
=== CODE BLOCK END ===

=== CODE BLOCK ADDRESS 0x1902 ===
  0x1902	int3   	
  0x1903	jmp    	dword ptr [0x997]
  === BLOCK LINK ===
    0x1909
=== CODE BLOCK END ===

=== CODE BLOCK ADDRESS 0x1909 ===
  0x1909	int3   	
  0x190a	int3   	
  0x190b	int3   	
  0x190c	int3   	
  0x190d	int3   	
  === BLOCK LINK ===
    0x190e
=== CODE BLOCK END ===

=== CODE BLOCK ADDRESS 0x190e ===
  0x190e	int3   	
  0x190f	int3   	
  0x1910	xor    	eax, eax
  0x1912	ret    	
  0x1913	int3   	
  === BLOCK LINK ===
    0x1914
=== CODE BLOCK END ===

=== CODE BLOCK ADDRESS 0x1914 ===
  0x1914	int3   	
  0x1915	int3   	
  0x1916	int3   	
  0x1917	int3   	
  0x1918	int3   	
  === BLOCK LINK ===
    0x1919
=== CODE BLOCK END ===

=== CODE BLOCK ADDRESS 0x1919 ===
  0x1919	int3   	
  0x191a	int3   	
  0x191b	int3   	
  0x191c	int3   	
  0x191d	int3   	
  === BLOCK LINK ===
    0x191e
=== CODE BLOCK END ===

=== CODE BLOCK ADDRESS 0x191e ===
  0x191e	int3   	
  0x191f	int3   	
  0x1920	dec    	esp
  0x1921	arpl   	word ptr [ecx + 0x3c], ax
  0x1924	inc    	ebp
  === BLOCK LINK ===
    0x1925
=== CODE BLOCK END ===

=== CODE BLOCK ADDRESS 0x1925 ===
  0x1925	xor    	ecx, ecx
  0x1927	dec    	esp
  0x1928	add    	eax, ecx
  0x192a	dec    	esp
  0x192b	mov    	edx, edx
  === BLOCK LINK ===
    0x192d
=== CODE BLOCK END ===

=== CODE BLOCK ADDRESS 0x192d ===
  0x192d	inc    	ecx
  0x192e	movzx  	eax, word ptr [eax + 0x14]
  0x1932	inc    	ebp
  0x1933	movzx  	ebx, word ptr [eax + 6]
  0x1937	dec    	eax
  === BLOCK LINK ===
    0x1938
=== CODE BLOCK END ===

=== CODE BLOCK ADDRESS 0x1938 ===
  0x1938	add    	eax, 0x18
  0x193b	dec    	ecx
  0x193c	add    	eax, eax
  0x193e	inc    	ebp
  0x193f	test   	ebx, ebx
  === BLOCK LINK ===
    0x1941
=== CODE BLOCK END ===

=== CODE BLOCK ADDRESS 0x1941 ===
  0x1941	je     	0x1961
  === BLOCK LINK ===
    0x1943
=== CODE BLOCK END ===

=== CODE BLOCK ADDRESS 0x1943 ===
  0x1943	mov    	edx, dword ptr [eax + 0xc]
  0x1946	dec    	esp
  0x1947	cmp    	edx, edx
  0x1949	jb     	0x1955
  === BLOCK LINK ===
    0x194b
=== CODE BLOCK END ===

=== CODE BLOCK ADDRESS 0x194b ===
  0x194b	mov    	ecx, dword ptr [eax + 8]
  0x194e	add    	ecx, edx
  0x1950	dec    	esp
  0x1951	cmp    	edx, ecx
  0x1953	jb     	0x1963
  === BLOCK LINK ===
    0x1955
=== CODE BLOCK END ===

=== CODE BLOCK ADDRESS 0x1955 ===
  0x1955	inc    	ecx
  0x1956	inc    	ecx
  0x1958	dec    	eax
  0x1959	add    	eax, 0x28
  0x195c	inc    	ebp
  === BLOCK LINK ===
    0x195d
=== CODE BLOCK END ===

=== CODE BLOCK ADDRESS 0x195d ===
  0x195d	cmp    	ecx, ebx
  0x195f	jb     	0x1943
  === BLOCK LINK ===
    0x1961
=== CODE BLOCK END ===

=== CODE BLOCK ADDRESS 0x1961 ===
  0x1961	xor    	eax, eax
  0x1963	ret    	
  0x1964	int3   	
  0x1965	int3   	
  0x1966	int3   	
  === BLOCK LINK ===
    0x1967
=== CODE BLOCK END ===

=== CODE BLOCK ADDRESS 0x1967 ===
  0x1967	int3   	
  0x1968	int3   	
  0x1969	int3   	
  0x196a	int3   	
  0x196b	int3   	
  === BLOCK LINK ===
    0x196c
=== CODE BLOCK END ===

=== CODE BLOCK ADDRESS 0x196c ===
  0x196c	int3   	
  0x196d	int3   	
  0x196e	int3   	
  0x196f	int3   	
  0x1970	dec    	eax
  === BLOCK LINK ===
    0x1971
=== CODE BLOCK END ===

=== CODE BLOCK ADDRESS 0x1971 ===
  0x1971	mov    	dword ptr [esp + 8], ebx
  0x1975	push   	edi
  0x1976	dec    	eax
  0x1977	sub    	esp, 0x20
  0x197a	dec    	eax
  === BLOCK LINK ===
    0x197b
=== CODE BLOCK END ===

=== CODE BLOCK ADDRESS 0x197b ===
  0x197b	mov    	ebx, ecx
  0x197d	dec    	eax
  0x197e	lea    	edi, [0xffffe67c]
  0x1984	dec    	eax
  0x1985	mov    	ecx, edi
  === BLOCK LINK ===
    0x1987
=== CODE BLOCK END ===

=== CODE BLOCK ADDRESS 0x1987 ===
  0x1987	call   	0x19d0
  === BLOCK LINK ===
    0x198c
=== CODE BLOCK END ===

=== CODE BLOCK ADDRESS 0x198c ===
  0x198c	test   	eax, eax
  0x198e	je     	0x19b2
  === BLOCK LINK ===
    0x1990
=== CODE BLOCK END ===

=== CODE BLOCK ADDRESS 0x1990 ===
  0x1990	dec    	eax
  0x1991	sub    	ebx, edi
  0x1993	dec    	eax
  0x1994	mov    	edx, ebx
  0x1996	dec    	eax
  === BLOCK LINK ===
    0x1997
=== CODE BLOCK END ===

=== CODE BLOCK ADDRESS 0x1997 ===
  0x1997	mov    	ecx, edi
  0x1999	call   	0x1920
  === BLOCK LINK ===
    0x199e
=== CODE BLOCK END ===

=== CODE BLOCK ADDRESS 0x199e ===
  0x199e	dec    	eax
  0x199f	test   	eax, eax
  0x19a1	je     	0x19b2
  === BLOCK LINK ===
    0x19a3
=== CODE BLOCK END ===

=== CODE BLOCK ADDRESS 0x19a3 ===
  0x19a3	mov    	eax, dword ptr [eax + 0x24]
  0x19a6	shr    	eax, 0x1f
  0x19a9	not    	eax
  0x19ab	and    	eax, 1
  0x19ae	jmp    	0x19b2
  === BLOCK LINK ===
    0x19b0
=== CODE BLOCK END ===

=== CODE BLOCK ADDRESS 0x19b0 ===
  0x19b0	xor    	eax, eax
  0x19b2	dec    	eax
  0x19b3	mov    	ebx, dword ptr [esp + 0x30]
  0x19b7	dec    	eax
  0x19b8	add    	esp, 0x20
  === BLOCK LINK ===
    0x19bb
=== CODE BLOCK END ===

=== CODE BLOCK ADDRESS 0x19bb ===
  0x19bb	pop    	edi
  0x19bc	ret    	
  0x19bd	int3   	
  0x19be	int3   	
  0x19bf	int3   	
  === BLOCK LINK ===
    0x19c0
=== CODE BLOCK END ===

=== CODE BLOCK ADDRESS 0x19c0 ===
  0x19c0	int3   	
  0x19c1	int3   	
  0x19c2	int3   	
  0x19c3	int3   	
  0x19c4	int3   	
  === BLOCK LINK ===
    0x19c5
=== CODE BLOCK END ===

=== CODE BLOCK ADDRESS 0x19c5 ===
  0x19c5	int3   	
  0x19c6	int3   	
  0x19c7	int3   	
  0x19c8	int3   	
  0x19c9	int3   	
  === BLOCK LINK ===
    0x19ca
=== CODE BLOCK END ===

=== CODE BLOCK ADDRESS 0x19ca ===
  0x19ca	int3   	
  0x19cb	int3   	
  0x19cc	int3   	
  0x19cd	int3   	
  0x19ce	int3   	
  === BLOCK LINK ===
    0x19cf
=== CODE BLOCK END ===

=== CODE BLOCK ADDRESS 0x19cf ===
  0x19cf	int3   	
  0x19d0	mov    	eax, 0x5a4d
  0x19d5	cmp    	word ptr [ecx], ax
  0x19d8	jne    	0x19fa
  === BLOCK LINK ===
    0x19da
=== CODE BLOCK END ===

=== CODE BLOCK ADDRESS 0x19da ===
  0x19da	dec    	eax
  0x19db	arpl   	word ptr [ecx + 0x3c], ax
  0x19de	dec    	eax
  0x19df	add    	eax, ecx
  0x19e1	cmp    	dword ptr [eax], 0x4550
  === BLOCK LINK ===
    0x19e7
=== CODE BLOCK END ===

=== CODE BLOCK ADDRESS 0x19e7 ===
  0x19e7	jne    	0x19fa
  === BLOCK LINK ===
    0x19e9
=== CODE BLOCK END ===

=== CODE BLOCK ADDRESS 0x19e9 ===
  0x19e9	mov    	ecx, 0x20b
  0x19ee	cmp    	word ptr [eax + 0x18], cx
  0x19f2	jne    	0x19fa
  === BLOCK LINK ===
    0x19f4
=== CODE BLOCK END ===

=== CODE BLOCK ADDRESS 0x19f4 ===
  0x19f4	mov    	eax, 1
  0x19f9	ret    	
  0x19fa	xor    	eax, eax
  0x19fc	ret    	
  0x19fd	int3   	
  === BLOCK LINK ===
    0x19fe
=== CODE BLOCK END ===

=== CODE BLOCK ADDRESS 0x127d ===
  0x127d	dec    	eax
  0x127e	cmp    	esi, 0x20
  0x1281	jae    	0x12f2
  === BLOCK LINK ===
    0x1283
    0x12f2
=== CODE BLOCK END ===

=== CODE BLOCK ADDRESS 0x1317 ===
  0x1317	xor    	ebx, ebx
  === BLOCK LINK ===
    0x1319
=== CODE BLOCK END ===

=== CODE BLOCK ADDRESS 0x19fe ===
  0x19fe	int3   	
  0x19ff	int3   	
  0x1a00	int3   	
  0x1a01	int3   	
  0x1a02	int3   	
  === BLOCK LINK ===
    0x1a03
=== CODE BLOCK END ===

=== CODE BLOCK ADDRESS 0x1a03 ===
  0x1a03	int3   	
  0x1a04	dec    	eax
  0x1a05	mov    	dword ptr [esp + 0x20], ebx
  0x1a09	push   	ebp
  0x1a0a	dec    	eax
  === BLOCK LINK ===
    0x1a0b
=== CODE BLOCK END ===

=== CODE BLOCK ADDRESS 0x1a0b ===
  0x1a0b	mov    	ebp, esp
  0x1a0d	dec    	eax
  0x1a0e	sub    	esp, 0x20
  0x1a11	dec    	eax
  0x1a12	and    	dword ptr [ebp + 0x18], 0
  === BLOCK LINK ===
    0x1a16
=== CODE BLOCK END ===

=== CODE BLOCK ADDRESS 0x1a16 ===
  0x1a16	dec    	eax
  0x1a17	mov    	ebx, 0x2ddfa232
  0x1a1c	cdq    	
  0x1a1d	sub    	eax, dword ptr [eax]
  0x1a1f	add    	byte ptr [eax - 0x75], cl
  === BLOCK LINK ===
    0x1a22
=== CODE BLOCK END ===

=== CODE BLOCK ADDRESS 0x1a22 ===
  0x1a22	add    	eax, 0x15e1
  0x1a27	dec    	eax
  0x1a28	cmp    	eax, ebx
  0x1a2a	jne    	0x1ac3
  === BLOCK LINK ===
    0x1a30
=== CODE BLOCK END ===

=== CODE BLOCK ADDRESS 0x1a30 ===
  0x1a30	dec    	eax
  0x1a31	lea    	ecx, [ebp + 0x18]
  0x1a34	call   	dword ptr [0x806]
  === BLOCK LINK ===
    0x1a3a
=== CODE BLOCK END ===

=== CODE BLOCK ADDRESS 0x1a3a ===
  0x1a3a	dec    	eax
  0x1a3b	mov    	eax, dword ptr [ebp + 0x18]
  0x1a3e	dec    	eax
  0x1a3f	mov    	dword ptr [ebp + 0x10], eax
  0x1a42	call   	dword ptr [0x790]
  === BLOCK LINK ===
    0x1a48
=== CODE BLOCK END ===

=== CODE BLOCK ADDRESS 0x1a48 ===
  0x1a48	mov    	eax, eax
  0x1a4a	dec    	eax
  0x1a4b	xor    	dword ptr [ebp + 0x10], eax
  0x1a4e	call   	dword ptr [0x79c]
  === BLOCK LINK ===
    0x1a54
=== CODE BLOCK END ===

=== CODE BLOCK ADDRESS 0x1a54 ===
  0x1a54	mov    	eax, eax
  0x1a56	dec    	eax
  0x1a57	xor    	dword ptr [ebp + 0x10], eax
  0x1a5a	call   	dword ptr [0x7e8]
  === BLOCK LINK ===
    0x1a60
=== CODE BLOCK END ===

=== CODE BLOCK ADDRESS 0x1a60 ===
  0x1a60	mov    	eax, eax
  0x1a62	dec    	eax
  0x1a63	shl    	eax, 0x18
  0x1a66	dec    	eax
  0x1a67	xor    	dword ptr [ebp + 0x10], eax
  === BLOCK LINK ===
    0x1a6a
=== CODE BLOCK END ===

=== CODE BLOCK ADDRESS 0x1a6a ===
  0x1a6a	call   	dword ptr [0x7d8]
  === BLOCK LINK ===
    0x1a70
=== CODE BLOCK END ===

=== CODE BLOCK ADDRESS 0x1a70 ===
  0x1a70	mov    	eax, eax
  0x1a72	dec    	eax
  0x1a73	lea    	ecx, [ebp + 0x10]
  0x1a76	dec    	eax
  0x1a77	xor    	eax, dword ptr [ebp + 0x10]
  === BLOCK LINK ===
    0x1a7a
=== CODE BLOCK END ===

=== CODE BLOCK ADDRESS 0x1a7a ===
  0x1a7a	dec    	eax
  0x1a7b	xor    	eax, ecx
  0x1a7d	dec    	eax
  0x1a7e	lea    	ecx, [ebp + 0x20]
  0x1a81	dec    	eax
  === BLOCK LINK ===
    0x1a82
=== CODE BLOCK END ===

=== CODE BLOCK ADDRESS 0x1a82 ===
  0x1a82	mov    	dword ptr [ebp + 0x10], eax
  0x1a85	call   	dword ptr [0x77d]
  === BLOCK LINK ===
    0x1a8b
=== CODE BLOCK END ===

=== CODE BLOCK ADDRESS 0x1a8b ===
  0x1a8b	mov    	eax, dword ptr [ebp + 0x20]
  0x1a8e	dec    	eax
  0x1a8f	mov    	ecx, 0xffffffff
  0x1a94	.byte  	0xff
  0x1a95	inc    	dword ptr [eax]
  === BLOCK LINK ===
    0x1a97
=== CODE BLOCK END ===

=== CODE BLOCK ADDRESS 0x1a97 ===
  0x1a97	add    	byte ptr [eax - 0x3f], cl
  0x1a9a	loopne  	0x1abc
  === BLOCK LINK ===
    0x1a9c
=== CODE BLOCK END ===

=== CODE BLOCK ADDRESS 0x1a9c ===
  0x1a9c	dec    	eax
  0x1a9d	xor    	eax, dword ptr [ebp + 0x20]
  0x1aa0	dec    	eax
  0x1aa1	xor    	eax, dword ptr [ebp + 0x10]
  0x1aa4	dec    	eax
  === BLOCK LINK ===
    0x1aa5
=== CODE BLOCK END ===

=== CODE BLOCK ADDRESS 0x1aa5 ===
  0x1aa5	and    	eax, ecx
  0x1aa7	dec    	eax
  0x1aa8	mov    	ecx, eax
  0x1aaa	dec    	eax
  0x1aab	cmp    	eax, ebx
  === BLOCK LINK ===
    0x1aad
=== CODE BLOCK END ===

=== CODE BLOCK ADDRESS 0x1aad ===
  0x1aad	jne    	0x1abc
  === BLOCK LINK ===
    0x1aaf
=== CODE BLOCK END ===

=== CODE BLOCK ADDRESS 0x1aaf ===
  0x1aaf	dec    	eax
  0x1ab0	mov    	eax, 0x2ddfa233
  0x1ab5	cdq    	
  0x1ab6	sub    	eax, dword ptr [eax]
  0x1ab8	add    	byte ptr [eax - 0x75], cl
  === BLOCK LINK ===
    0x1abb
=== CODE BLOCK END ===

=== CODE BLOCK ADDRESS 0x1abb ===
  0x1abb	enter  	-0x76b8, 0xd
  0x1abf	inc    	ebp
  0x1ac0	adc    	eax, 0x8b480000
  0x1ac5	pop    	esp
  0x1ac6	and    	al, 0x48
  === BLOCK LINK ===
    0x1ac8
=== CODE BLOCK END ===

=== CODE BLOCK ADDRESS 0x1ac8 ===
  0x1ac8	dec    	eax
  0x1ac9	not    	eax
  0x1acb	dec    	eax
  0x1acc	mov    	dword ptr [0x153e], eax
  0x1ad2	dec    	eax
  === BLOCK LINK ===
    0x1ad3
=== CODE BLOCK END ===

=== CODE BLOCK ADDRESS 0x1ad3 ===
  0x1ad3	add    	esp, 0x20
  0x1ad6	pop    	ebp
  0x1ad7	ret    	
  0x1ad8	int3   	
  0x1ad9	int3   	
  === BLOCK LINK ===
    0x1ada
=== CODE BLOCK END ===

=== CODE BLOCK ADDRESS 0x132d ===
  0x132d	dec    	ecx
  0x132e	add    	ebx, edi
  0x1330	dec    	eax
  0x1331	cmp    	ebx, 2
  === BLOCK LINK ===
    0x1334
=== CODE BLOCK END ===

=== CODE BLOCK ADDRESS 0x1ada ===
  0x1ada	int3   	
  0x1adb	int3   	
  0x1adc	int3   	
  0x1add	int3   	
  0x1ade	jmp    	dword ptr [0x804]
  === BLOCK LINK ===
    0x1ae4
=== CODE BLOCK END ===

=== CODE BLOCK ADDRESS 0x1ae4 ===
  0x1ae4	int3   	
  0x1ae5	int3   	
  0x1ae6	int3   	
  0x1ae7	int3   	
  0x1ae8	int3   	
  === BLOCK LINK ===
    0x1ae9
=== CODE BLOCK END ===

=== CODE BLOCK ADDRESS 0x1ae9 ===
  0x1ae9	int3   	
  0x1aea	jmp    	dword ptr [0x7f0]
  === BLOCK LINK ===
    0x1af0
=== CODE BLOCK END ===

=== CODE BLOCK ADDRESS 0x1af0 ===
  0x1af0	int3   	
  0x1af1	int3   	
  0x1af2	int3   	
  0x1af3	int3   	
  0x1af4	int3   	
  === BLOCK LINK ===
    0x1af5
=== CODE BLOCK END ===

=== CODE BLOCK ADDRESS 0x1af5 ===
  0x1af5	int3   	
  0x1af6	int3   	
  0x1af7	int3   	
  0x1af8	int3   	
  0x1af9	int3   	
  === BLOCK LINK ===
    0x1afa
=== CODE BLOCK END ===

=== CODE BLOCK ADDRESS 0x1afa ===
  0x1afa	int3   	
  0x1afb	int3   	
  0x1afc	int3   	
  0x1afd	int3   	
  0x1afe	int3   	
  === BLOCK LINK ===
    0x1aff
=== CODE BLOCK END ===

=== CODE BLOCK ADDRESS 0x1aff ===
  0x1aff	int3   	
  0x1b00	ret    	0
  0x1b03	int3   	
  0x1b04	int3   	
  0x1b05	int3   	
  === BLOCK LINK ===
    0x1b06
=== CODE BLOCK END ===

=== CODE BLOCK ADDRESS 0x1319 ===
  0x1319	mov    	ecx, dword ptr [ebp + ebx*4 - 0x28]
  0x131d	test   	ecx, ecx
  0x131f	je     	0x132d
  === BLOCK LINK ===
    0x1321
=== CODE BLOCK END ===

=== CODE BLOCK ADDRESS 0x1b06 ===
  0x1b06	int3   	
  0x1b07	int3   	
  0x1b08	int3   	
  0x1b09	int3   	
  0x1b0a	int3   	
  === BLOCK LINK ===
    0x1b0b
=== CODE BLOCK END ===

=== CODE BLOCK ADDRESS 0x1b0b ===
  0x1b0b	int3   	
  0x1b0c	inc    	eax
  0x1b0d	push   	ebx
  0x1b0e	dec    	eax
  0x1b0f	sub    	esp, 0x20
  === BLOCK LINK ===
    0x1b12
=== CODE BLOCK END ===

=== CODE BLOCK ADDRESS 0x1b12 ===
  0x1b12	dec    	eax
  0x1b13	mov    	ebx, ecx
  0x1b15	xor    	ecx, ecx
  0x1b17	call   	dword ptr [0x673]
  === BLOCK LINK ===
    0x1b1d
=== CODE BLOCK END ===

=== CODE BLOCK ADDRESS 0x1b1d ===
  0x1b1d	dec    	eax
  0x1b1e	mov    	ecx, ebx
  0x1b20	call   	dword ptr [0x662]
  === BLOCK LINK ===
    0x1b26
=== CODE BLOCK END ===

=== CODE BLOCK ADDRESS 0x1b26 ===
  0x1b26	call   	dword ptr [0x6cc]
  === BLOCK LINK ===
    0x1b2c
=== CODE BLOCK END ===

=== CODE BLOCK ADDRESS 0x1b2c ===
  0x1b2c	dec    	eax
  0x1b2d	mov    	ecx, eax
  0x1b2f	mov    	edx, 0xc0000409
  0x1b34	dec    	eax
  0x1b35	add    	esp, 0x20
  === BLOCK LINK ===
    0x1b38
=== CODE BLOCK END ===

=== CODE BLOCK ADDRESS 0x1b38 ===
  0x1b38	pop    	ebx
  0x1b39	dec    	eax
  0x1b3a	jmp    	dword ptr [0x6a0]
  === BLOCK LINK ===
    0x1b40
=== CODE BLOCK END ===

=== CODE BLOCK ADDRESS 0x1b40 ===
  0x1b40	int3   	
  0x1b41	int3   	
  0x1b42	int3   	
  0x1b43	int3   	
  0x1b44	int3   	
  === BLOCK LINK ===
    0x1b45
=== CODE BLOCK END ===

=== CODE BLOCK ADDRESS 0x1b45 ===
  0x1b45	int3   	
  0x1b46	int3   	
  0x1b47	int3   	
  0x1b48	int3   	
  0x1b49	int3   	
  === BLOCK LINK ===
    0x1b4a
=== CODE BLOCK END ===

=== CODE BLOCK ADDRESS 0x1b4a ===
  0x1b4a	int3   	
  0x1b4b	int3   	
  0x1b4c	int3   	
  0x1b4d	int3   	
  0x1b4e	int3   	
  === BLOCK LINK ===
    0x1b4f
=== CODE BLOCK END ===

=== CODE BLOCK ADDRESS 0x1b4f ===
  0x1b4f	int3   	
  0x1b50	dec    	eax
  0x1b51	mov    	dword ptr [esp + 8], ecx
  0x1b55	dec    	eax
  0x1b56	sub    	esp, 0x88
  === BLOCK LINK ===
    0x1b5c
=== CODE BLOCK END ===

=== CODE BLOCK ADDRESS 0x1b5c ===
  0x1b5c	dec    	eax
  0x1b5d	lea    	ecx, [0x15bd]
  0x1b63	call   	dword ptr [0x7b7]
  === BLOCK LINK ===
    0x1b69
=== CODE BLOCK END ===

=== CODE BLOCK ADDRESS 0x1b69 ===
  0x1b69	dec    	eax
  0x1b6a	mov    	eax, dword ptr [0x16a8]
  0x1b70	dec    	eax
  0x1b71	mov    	dword ptr [esp + 0x48], eax
  0x1b75	inc    	ebp
  === BLOCK LINK ===
    0x1b76
=== CODE BLOCK END ===

=== CODE BLOCK ADDRESS 0x1b76 ===
  0x1b76	xor    	eax, eax
  0x1b78	dec    	eax
  0x1b79	lea    	edx, [esp + 0x50]
  0x1b7d	dec    	eax
  0x1b7e	mov    	ecx, dword ptr [esp + 0x48]
  === BLOCK LINK ===
    0x1b82
=== CODE BLOCK END ===

=== CODE BLOCK ADDRESS 0x1b82 ===
  0x1b82	call   	dword ptr [0x788]
  === BLOCK LINK ===
    0x1b88
=== CODE BLOCK END ===

=== CODE BLOCK ADDRESS 0x1b88 ===
  0x1b88	dec    	eax
  0x1b89	mov    	dword ptr [esp + 0x40], eax
  0x1b8d	dec    	eax
  0x1b8e	cmp    	dword ptr [esp + 0x40], 0
  0x1b93	je     	0x1bd7
  === BLOCK LINK ===
    0x1b95
=== CODE BLOCK END ===

=== CODE BLOCK ADDRESS 0x1b95 ===
  0x1b95	dec    	eax
  0x1b96	mov    	dword ptr [esp + 0x38], 0
  0x1b9e	dec    	eax
  0x1b9f	lea    	eax, [esp + 0x58]
  0x1ba3	dec    	eax
  === BLOCK LINK ===
    0x1ba4
=== CODE BLOCK END ===

=== CODE BLOCK ADDRESS 0x1ba4 ===
  0x1ba4	mov    	dword ptr [esp + 0x30], eax
  0x1ba8	dec    	eax
  0x1ba9	lea    	eax, [esp + 0x60]
  0x1bad	dec    	eax
  0x1bae	mov    	dword ptr [esp + 0x28], eax
  === BLOCK LINK ===
    0x1bb2
=== CODE BLOCK END ===

=== CODE BLOCK ADDRESS 0x1bb2 ===
  0x1bb2	dec    	eax
  0x1bb3	lea    	eax, [0x1567]
  0x1bb9	dec    	eax
  0x1bba	mov    	dword ptr [esp + 0x20], eax
  0x1bbe	dec    	esp
  === BLOCK LINK ===
    0x1bbf
=== CODE BLOCK END ===

=== CODE BLOCK ADDRESS 0x1bbf ===
  0x1bbf	mov    	ecx, dword ptr [esp + 0x40]
  0x1bc3	dec    	esp
  0x1bc4	mov    	eax, dword ptr [esp + 0x48]
  0x1bc8	dec    	eax
  0x1bc9	mov    	edx, dword ptr [esp + 0x50]
  === BLOCK LINK ===
    0x1bcd
=== CODE BLOCK END ===

=== CODE BLOCK ADDRESS 0x1bcd ===
  0x1bcd	xor    	ecx, ecx
  0x1bcf	call   	dword ptr [0x743]
  === BLOCK LINK ===
    0x1bd5
=== CODE BLOCK END ===

=== CODE BLOCK ADDRESS 0x1bd5 ===
  0x1bd5	jmp    	0x1bfa
  === BLOCK LINK ===
    0x1bd7
=== CODE BLOCK END ===

=== CODE BLOCK ADDRESS 0x1bd7 ===
  0x1bd7	dec    	eax
  0x1bd8	mov    	eax, dword ptr [0x15da]
  0x1bde	dec    	eax
  0x1bdf	mov    	eax, dword ptr [eax]
  0x1be1	dec    	eax
  === BLOCK LINK ===
    0x1be2
=== CODE BLOCK END ===

=== CODE BLOCK ADDRESS 0x1be2 ===
  0x1be2	mov    	dword ptr [0x1630], eax
  0x1be8	dec    	eax
  0x1be9	mov    	eax, dword ptr [0x15c9]
  0x1bef	dec    	eax
  0x1bf0	add    	eax, 8
  === BLOCK LINK ===
    0x1bf3
=== CODE BLOCK END ===

=== CODE BLOCK ADDRESS 0x1bf3 ===
  0x1bf3	dec    	eax
  0x1bf4	mov    	dword ptr [0x15be], eax
  0x1bfa	dec    	eax
  0x1bfb	mov    	eax, dword ptr [0x1617]
  0x1c01	dec    	eax
  === BLOCK LINK ===
    0x1c02
=== CODE BLOCK END ===

=== CODE BLOCK ADDRESS 0x1c02 ===
  0x1c02	mov    	dword ptr [0x1488], eax
  0x1c08	dec    	eax
  0x1c09	mov    	eax, dword ptr [esp + 0x90]
  0x1c10	dec    	eax
  0x1c11	mov    	dword ptr [0x1589], eax
  === BLOCK LINK ===
    0x1c17
=== CODE BLOCK END ===

=== CODE BLOCK ADDRESS 0x1c17 ===
  0x1c17	mov    	dword ptr [0x145f], 0xc0000409
  0x1c21	mov    	dword ptr [0x1459], 1
  0x1c2b	mov    	dword ptr [0x1463], 3
  0x1c35	mov    	eax, 8
  0x1c3a	dec    	eax
  === BLOCK LINK ===
    0x1c3b
=== CODE BLOCK END ===

=== CODE BLOCK ADDRESS 0x1c3b ===
  0x1c3b	imul   	eax, eax, 0
  0x1c3e	dec    	eax
  0x1c3f	lea    	ecx, [0x145b]
  0x1c45	dec    	eax
  0x1c46	mov    	dword ptr [ecx + eax], 2
  === BLOCK LINK ===
    0x1c4d
=== CODE BLOCK END ===

=== CODE BLOCK ADDRESS 0x1c4d ===
  0x1c4d	mov    	eax, 8
  0x1c52	dec    	eax
  0x1c53	imul   	eax, eax, 1
  0x1c56	dec    	eax
  0x1c57	lea    	ecx, [0x1443]
  === BLOCK LINK ===
    0x1c5d
=== CODE BLOCK END ===

=== CODE BLOCK ADDRESS 0x1c5d ===
  0x1c5d	dec    	eax
  0x1c5e	mov    	edx, dword ptr [0x13a4]
  0x1c64	dec    	eax
  0x1c65	mov    	dword ptr [ecx + eax], edx
  0x1c68	mov    	eax, 8
  === BLOCK LINK ===
    0x1c6d
=== CODE BLOCK END ===

=== CODE BLOCK ADDRESS 0x1c6d ===
  0x1c6d	dec    	eax
  0x1c6e	imul   	eax, eax, 2
  0x1c71	dec    	eax
  0x1c72	lea    	ecx, [0x1428]
  0x1c78	dec    	eax
  === BLOCK LINK ===
    0x1c79
=== CODE BLOCK END ===

=== CODE BLOCK ADDRESS 0x1c79 ===
  0x1c79	mov    	edx, dword ptr [0x1391]
  0x1c7f	dec    	eax
  0x1c80	mov    	dword ptr [ecx + eax], edx
  0x1c83	mov    	eax, 8
  0x1c88	dec    	eax
  === BLOCK LINK ===
    0x1c89
=== CODE BLOCK END ===

=== CODE BLOCK ADDRESS 0x1c89 ===
  0x1c89	imul   	eax, eax, 0
  0x1c8c	dec    	eax
  0x1c8d	mov    	ecx, dword ptr [0x1375]
  0x1c93	dec    	eax
  0x1c94	mov    	dword ptr [esp + eax + 0x68], ecx
  === BLOCK LINK ===
    0x1c98
=== CODE BLOCK END ===

=== CODE BLOCK ADDRESS 0x1c98 ===
  0x1c98	mov    	eax, 8
  0x1c9d	dec    	eax
  0x1c9e	imul   	eax, eax, 1
  0x1ca1	dec    	eax
  0x1ca2	mov    	ecx, dword ptr [0x1368]
  === BLOCK LINK ===
    0x1ca8
=== CODE BLOCK END ===

=== CODE BLOCK ADDRESS 0x1ca8 ===
  0x1ca8	dec    	eax
  0x1ca9	mov    	dword ptr [esp + eax + 0x68], ecx
  0x1cad	dec    	eax
  0x1cae	lea    	ecx, [0x34c]
  0x1cb4	call   	0x1b0c
  === BLOCK LINK ===
    0x1cb9
=== CODE BLOCK END ===

=== CODE BLOCK ADDRESS 0x1cb9 ===
  0x1cb9	dec    	eax
  0x1cba	add    	esp, 0x88
  0x1cc0	ret    	
  0x1cc1	int3   	
  0x1cc2	int3   	
  === BLOCK LINK ===
    0x1cc3
=== CODE BLOCK END ===

=== CODE BLOCK ADDRESS 0x13a8 ===
  0x13a8	dec    	eax
  0x13a9	mov    	ecx, dword ptr [ebp - 0x10]
  0x13ac	dec    	eax
  0x13ad	test   	ecx, ecx
  === BLOCK LINK ===
    0x13af
=== CODE BLOCK END ===

=== CODE BLOCK ADDRESS 0x1cc3 ===
  0x1cc3	int3   	
  0x1cc4	int3   	
  0x1cc5	int3   	
  0x1cc6	int3   	
  0x1cc7	int3   	
  === BLOCK LINK ===
    0x1cc8
=== CODE BLOCK END ===

=== CODE BLOCK ADDRESS 0x1cc8 ===
  0x1cc8	int3   	
  0x1cc9	int3   	
  0x1cca	int3   	
  0x1ccb	int3   	
  0x1ccc	int3   	
  === BLOCK LINK ===
    0x1ccd
=== CODE BLOCK END ===

=== CODE BLOCK ADDRESS 0x1ccd ===
  0x1ccd	int3   	
  0x1cce	int3   	
  0x1ccf	int3   	
  0x1cd0	int3   	
  0x1cd1	int3   	
  === BLOCK LINK ===
    0x1cd2
=== CODE BLOCK END ===

=== CODE BLOCK ADDRESS 0x1cd2 ===
  0x1cd2	int3   	
  0x1cd3	int3   	
  0x1cd4	int3   	
  0x1cd5	int3   	
  0x1cd6	nop    	word ptr [eax + eax]
  === BLOCK LINK ===
    0x1ce0
=== CODE BLOCK END ===

=== CODE BLOCK ADDRESS 0x1ce0 ===
  0x1ce0	jmp    	eax
  === BLOCK LINK ===
    0x1ce2
=== CODE BLOCK END ===

=== CODE BLOCK ADDRESS 0x1ce2 ===
  0x1ce2	int3   	
  0x1ce3	int3   	
  0x1ce4	int3   	
  0x1ce5	int3   	
  0x1ce6	int3   	
  === BLOCK LINK ===
    0x1ce7
=== CODE BLOCK END ===

=== CODE BLOCK ADDRESS 0x1ce7 ===
  0x1ce7	int3   	
  0x1ce8	int3   	
  0x1ce9	int3   	
  0x1cea	int3   	
  0x1ceb	int3   	
  === BLOCK LINK ===
    0x1cec
=== CODE BLOCK END ===

=== CODE BLOCK ADDRESS 0x1cec ===
  0x1cec	int3   	
  0x1ced	int3   	
  0x1cee	int3   	
  0x1cef	int3   	
  0x1cf0	inc    	eax
  === BLOCK LINK ===
    0x1cf1
=== CODE BLOCK END ===

=== CODE BLOCK ADDRESS 0x1cf1 ===
  0x1cf1	push   	ebp
  0x1cf2	dec    	eax
  0x1cf3	sub    	esp, 0x20
  0x1cf6	dec    	eax
  0x1cf7	mov    	ebp, edx
  === BLOCK LINK ===
    0x1cf9
=== CODE BLOCK END ===

=== CODE BLOCK ADDRESS 0x1cf9 ===
  0x1cf9	dec    	eax
  0x1cfa	mov    	eax, dword ptr [ecx]
  0x1cfc	dec    	eax
  0x1cfd	mov    	edx, ecx
  0x1cff	mov    	ecx, dword ptr [eax]
  === BLOCK LINK ===
    0x1d01
=== CODE BLOCK END ===

=== CODE BLOCK ADDRESS 0x1d01 ===
  0x1d01	call   	0x184e
  === BLOCK LINK ===
    0x1d06
=== CODE BLOCK END ===

=== CODE BLOCK ADDRESS 0x1d06 ===
  0x1d06	nop    	
  0x1d07	dec    	eax
  0x1d08	add    	esp, 0x20
  0x1d0b	pop    	ebp
  0x1d0c	ret    	
  === BLOCK LINK ===
    0x1d0d
=== CODE BLOCK END ===

=== CODE BLOCK ADDRESS 0x1398 ===
  0x1398	dec    	eax
  0x1399	mov    	ecx, dword ptr [ebp - 8]
  0x139c	dec    	eax
  0x139d	call   	dword ptr [0xed5]
  === BLOCK LINK ===
    0x13a3
=== CODE BLOCK END ===

=== CODE BLOCK ADDRESS 0x1d0d ===
  0x1d0d	int3   	
  0x1d0e	int3   	
  0x1d0f	int3   	
  0x1d10	int3   	
  0x1d11	int3   	
  === BLOCK LINK ===
    0x1d12
=== CODE BLOCK END ===

=== CODE BLOCK ADDRESS 0x1d12 ===
  0x1d12	int3   	
  0x1d13	int3   	
  0x1d14	int3   	
  0x1d15	int3   	
  0x1d16	int3   	
  === BLOCK LINK ===
    0x1d17
=== CODE BLOCK END ===

=== CODE BLOCK ADDRESS 0x1d17 ===
  0x1d17	int3   	
  0x1d18	int3   	
  0x1d19	int3   	
  0x1d1a	int3   	
  0x1d1b	int3   	
  === BLOCK LINK ===
    0x1d1c
=== CODE BLOCK END ===

=== CODE BLOCK ADDRESS 0x1d1c ===
  0x1d1c	int3   	
  0x1d1d	int3   	
  0x1d1e	int3   	
  0x1d1f	int3   	
  0x1d20	inc    	eax
  === BLOCK LINK ===
    0x1d21
=== CODE BLOCK END ===

=== CODE BLOCK ADDRESS 0x1d21 ===
  0x1d21	push   	ebp
  0x1d22	dec    	eax
  0x1d23	sub    	esp, 0x20
  0x1d26	dec    	eax
  0x1d27	mov    	ebp, edx
  === BLOCK LINK ===
    0x1d29
=== CODE BLOCK END ===

=== CODE BLOCK ADDRESS 0x1d29 ===
  0x1d29	dec    	eax
  0x1d2a	mov    	eax, dword ptr [ecx]
  0x1d2c	xor    	ecx, ecx
  0x1d2e	cmp    	dword ptr [eax], 0xc0000005
  0x1d34	sete   	cl
  === BLOCK LINK ===
    0x1d37
=== CODE BLOCK END ===

=== CODE BLOCK ADDRESS 0x1d37 ===
  0x1d37	mov    	eax, ecx
  0x1d39	dec    	eax
  0x1d3a	add    	esp, 0x20
  0x1d3d	pop    	ebp
  0x1d3e	ret    	
  === BLOCK LINK ===
    0x1d3f
=== CODE BLOCK END ===

=== CODE BLOCK ADDRESS 0x1d3f ===
  0x1d3f	int3   	
  0x1d40	add    	byte ptr [eax], al
  0x1d42	add    	byte ptr [eax], al
  0x1d44	add    	byte ptr [eax], al
  0x1d46	add    	byte ptr [eax], al
  === BLOCK LINK ===
    0x1d48
=== CODE BLOCK END ===

=== CODE BLOCK ADDRESS 0x1d48 ===
  0x1d48	add    	byte ptr [eax], al
  0x1d4a	add    	byte ptr [eax], al
  0x1d4c	add    	byte ptr [eax], al
  0x1d4e	add    	byte ptr [eax], al
  0x1d50	add    	byte ptr [eax], al
  === BLOCK LINK ===
    0x1d52
=== CODE BLOCK END ===

=== CODE BLOCK ADDRESS 0x1d52 ===
  0x1d52	add    	byte ptr [eax], al
  0x1d54	add    	byte ptr [eax], al
  0x1d56	add    	byte ptr [eax], al
  0x1d58	add    	byte ptr [eax], al
  0x1d5a	add    	byte ptr [eax], al
  === BLOCK LINK ===
    0x1d5c
=== CODE BLOCK END ===

=== CODE BLOCK ADDRESS 0x1d5c ===
  0x1d5c	add    	byte ptr [eax], al
  0x1d5e	add    	byte ptr [eax], al
  0x1d60	add    	byte ptr [eax], al
  0x1d62	add    	byte ptr [eax], al
  0x1d64	add    	byte ptr [eax], al
  === BLOCK LINK ===
    0x1d66
=== CODE BLOCK END ===

=== CODE BLOCK ADDRESS 0x1d66 ===
  0x1d66	add    	byte ptr [eax], al
  0x1d68	add    	byte ptr [eax], al
  0x1d6a	add    	byte ptr [eax], al
  0x1d6c	add    	byte ptr [eax], al
  0x1d6e	add    	byte ptr [eax], al
  === BLOCK LINK ===
    0x1d70
=== CODE BLOCK END ===

=== CODE BLOCK ADDRESS 0x1d70 ===
  0x1d70	add    	byte ptr [eax], al
  0x1d72	add    	byte ptr [eax], al
  0x1d74	add    	byte ptr [eax], al
  0x1d76	add    	byte ptr [eax], al
  0x1d78	add    	byte ptr [eax], al
  === BLOCK LINK ===
    0x1d7a
=== CODE BLOCK END ===

=== CODE BLOCK ADDRESS 0x1d7a ===
  0x1d7a	add    	byte ptr [eax], al
  0x1d7c	add    	byte ptr [eax], al
  0x1d7e	add    	byte ptr [eax], al
  0x1d80	add    	byte ptr [eax], al
  0x1d82	add    	byte ptr [eax], al
  === BLOCK LINK ===
    0x1d84
=== CODE BLOCK END ===

=== CODE BLOCK ADDRESS 0x1d84 ===
  0x1d84	add    	byte ptr [eax], al
  0x1d86	add    	byte ptr [eax], al
  0x1d88	add    	byte ptr [eax], al
  0x1d8a	add    	byte ptr [eax], al
  0x1d8c	add    	byte ptr [eax], al
  === BLOCK LINK ===
    0x1d8e
=== CODE BLOCK END ===

=== CODE BLOCK ADDRESS 0x1d8e ===
  0x1d8e	add    	byte ptr [eax], al
  0x1d90	add    	byte ptr [eax], al
  0x1d92	add    	byte ptr [eax], al
  0x1d94	add    	byte ptr [eax], al
  0x1d96	add    	byte ptr [eax], al
  === BLOCK LINK ===
    0x1d98
=== CODE BLOCK END ===

=== CODE BLOCK ADDRESS 0x1d98 ===
  0x1d98	add    	byte ptr [eax], al
  0x1d9a	add    	byte ptr [eax], al
  0x1d9c	add    	byte ptr [eax], al
  0x1d9e	add    	byte ptr [eax], al
  0x1da0	add    	byte ptr [eax], al
  === BLOCK LINK ===
    0x1da2
=== CODE BLOCK END ===

=== CODE BLOCK ADDRESS 0x1da2 ===
  0x1da2	add    	byte ptr [eax], al
  0x1da4	add    	byte ptr [eax], al
  0x1da6	add    	byte ptr [eax], al
  0x1da8	add    	byte ptr [eax], al
  0x1daa	add    	byte ptr [eax], al
  === BLOCK LINK ===
    0x1dac
=== CODE BLOCK END ===

=== CODE BLOCK ADDRESS 0x1dac ===
  0x1dac	add    	byte ptr [eax], al
  0x1dae	add    	byte ptr [eax], al
  0x1db0	add    	byte ptr [eax], al
  0x1db2	add    	byte ptr [eax], al
  0x1db4	add    	byte ptr [eax], al
  === BLOCK LINK ===
    0x1db6
=== CODE BLOCK END ===

=== CODE BLOCK ADDRESS 0x1db6 ===
  0x1db6	add    	byte ptr [eax], al
  0x1db8	add    	byte ptr [eax], al
  0x1dba	add    	byte ptr [eax], al
  0x1dbc	add    	byte ptr [eax], al
  0x1dbe	add    	byte ptr [eax], al
  === BLOCK LINK ===
    0x1dc0
=== CODE BLOCK END ===

=== CODE BLOCK ADDRESS 0x1dc0 ===
  0x1dc0	add    	byte ptr [eax], al
  0x1dc2	add    	byte ptr [eax], al
  0x1dc4	add    	byte ptr [eax], al
  0x1dc6	add    	byte ptr [eax], al
  0x1dc8	add    	byte ptr [eax], al
  === BLOCK LINK ===
    0x1dca
=== CODE BLOCK END ===

=== CODE BLOCK ADDRESS 0x1dca ===
  0x1dca	add    	byte ptr [eax], al
  0x1dcc	add    	byte ptr [eax], al
  0x1dce	add    	byte ptr [eax], al
  0x1dd0	add    	byte ptr [eax], al
  0x1dd2	add    	byte ptr [eax], al
  === BLOCK LINK ===
    0x1dd4
=== CODE BLOCK END ===

=== CODE BLOCK ADDRESS 0x1dd4 ===
  0x1dd4	add    	byte ptr [eax], al
  0x1dd6	add    	byte ptr [eax], al
  0x1dd8	add    	byte ptr [eax], al
  0x1dda	add    	byte ptr [eax], al
  0x1ddc	add    	byte ptr [eax], al
  === BLOCK LINK ===
    0x1dde
=== CODE BLOCK END ===

=== CODE BLOCK ADDRESS 0x1dde ===
  0x1dde	add    	byte ptr [eax], al
  0x1de0	add    	byte ptr [eax], al
  0x1de2	add    	byte ptr [eax], al
  0x1de4	add    	byte ptr [eax], al
  0x1de6	add    	byte ptr [eax], al
  === BLOCK LINK ===
    0x1de8
=== CODE BLOCK END ===

=== CODE BLOCK ADDRESS 0x1de8 ===
  0x1de8	add    	byte ptr [eax], al
  0x1dea	add    	byte ptr [eax], al
  0x1dec	add    	byte ptr [eax], al
  0x1dee	add    	byte ptr [eax], al
  0x1df0	add    	byte ptr [eax], al
  === BLOCK LINK ===
    0x1df2
=== CODE BLOCK END ===

=== CODE BLOCK ADDRESS 0x1df2 ===
  0x1df2	add    	byte ptr [eax], al
  0x1df4	add    	byte ptr [eax], al
  0x1df6	add    	byte ptr [eax], al
  0x1df8	add    	byte ptr [eax], al
  0x1dfa	add    	byte ptr [eax], al
  === BLOCK LINK ===
    0x1dfc
=== CODE BLOCK END ===

=== CODE BLOCK ADDRESS 0x1dfc ===
  0x1dfc	add    	byte ptr [eax], al
=== CODE BLOCK END ===

=== DATA BLOCK ADDRESS 0x2000 ===
  0x2000	80 30 00 40 01 00 00 00 20 31 00 40 01 00 00 00 	000@0000 10@0000
  0x2010	10 10 00 40 01 00 00 00 60 10 00 40 01 00 00 00 	000@0000`00@0000
  0x2020	d0 10 00 40 01 00 00 00 00 00 00 00 00 00 00 00 	000@000000000000
  0x2030	18 01 00 00 00 00 00 00 00 00 00 00 00 00 00 00 	0000000000000000
  0x2040	00 00 00 00 00 00 00 00 00 00 00 00 00 00 00 00 	0000000000000000
  0x2050	00 00 00 00 00 00 00 00 00 00 00 00 00 00 00 00 	0000000000000000
  0x2060	00 00 00 00 00 00 00 00 00 00 00 00 00 00 00 00 	0000000000000000
  0x2070	00 00 00 00 00 00 00 00 00 00 00 00 00 00 00 00 	0000000000000000
  0x2080	00 00 00 00 00 00 00 00 08 30 00 40 01 00 00 00 	00000000000@0000
  0x2090	00 00 00 00 00 00 00 00 00 00 00 00 00 00 00 00 	0000000000000000
  0x20a0	30 23 00 40 01 00 00 00 38 23 00 40 01 00 00 00 	0#0@00008#0@0000
  0x20b0	84 23 00 40 01 00 00 00 0c 00 00 00 00 00 00 00 	0#0@000000000000
  0x20c0	00 75 41 00 00 00 00 00 00 00 00 00 00 00 00 00 	0uA0000000000000
  0x20d0	00 00 00 00 00 00 00 00 00 00 00 00 00 00 00 00 	0000000000000000
  0x20e0	00 00 00 00 00 00 00 00 00 00 00 00 00 00 00 00 	0000000000000000
  0x20f0	00 00 00 00 00 00 00 00 00 00 00 00 00 00 00 00 	0000000000000000
  0x2100	00 00 00 00 00 00 00 00 00 00 00 00 00 00 00 00 	0000000000000000
  0x2110	00 00 00 00 00 00 00 00 00 00 00 00 00 00 00 00 	0000000000000000
  0x2120	00 00 00 00 00 00 00 00 00 00 00 00 00 00 00 00 	0000000000000000
  0x2130	00 00 00 00 00 00 00 00 78 23 00 40 01 00 00 00 	00000000x#0@0000
  0x2140	03 00 00 00 00 00 00 00 0a 2c 00 00 00 00 00 00 	000000000,000000
  0x2150	e2 2c 00 00 00 00 00 00 d0 2c 00 00 00 00 00 00 	0,0000000,000000
  0x2160	8e 2b 00 00 00 00 00 00 ba 2b 00 00 00 00 00 00 	0+0000000+000000
  0x2170	8a 2c 00 00 00 00 00 00 d6 2b 00 00 00 00 00 00 	0,0000000+000000
  0x2180	00 00 00 00 00 00 00 00 b4 2d 00 00 00 00 00 00 	000000000-000000
  0x2190	12 2d 00 00 00 00 00 00 32 2c 00 00 00 00 00 00 	0-0000002,000000
  0x21a0	00 00 00 00 00 00 00 00 66 2c 00 00 00 00 00 00 	00000000f,000000
  0x21b0	00 00 00 00 00 00 00 00 ba 2c 00 00 00 00 00 00 	000000000,000000
  0x21c0	00 00 00 00 00 00 00 00 30 2d 00 00 00 00 00 00 	000000000-000000
  0x21d0	00 00 00 00 00 00 00 00 5e 2d 00 00 00 00 00 00 	00000000^-000000
  0x21e0	e4 2d 00 00 00 00 00 00 00 2d 00 00 00 00 00 00 	0-0000000-000000
  0x21f0	74 2d 00 00 00 00 00 00 d0 2d 00 00 00 00 00 00 	t-0000000-000000
  0x2200	00 00 00 00 00 00 00 00 44 2d 00 00 00 00 00 00 	00000000D-000000
  0x2210	00 00 00 00 00 00 00 00 42 2c 00 00 00 00 00 00 	00000000B,000000
  0x2220	22 2c 00 00 00 00 00 00 00 00 00 00 00 00 00 00 	",00000000000000
  0x2230	f8 2c 00 00 00 00 00 00 00 00 00 00 00 00 00 00 	0,00000000000000
  0x2240	8a 2d 00 00 00 00 00 00 a4 2d 00 00 00 00 00 00 	0-0000000-000000
  0x2250	00 00 00 00 00 00 00 00 74 2c 00 00 00 00 00 00 	00000000t,000000
  0x2260	a2 2c 00 00 00 00 00 00 a2 2b 00 00 00 00 00 00 	0,0000000+000000
  0x2270	e8 2b 00 00 00 00 00 00 4e 2c 00 00 00 00 00 00 	0+000000N,000000
  0x2280	00 00 00 00 00 00 00 00 8a 2f 00 00 00 00 00 00 	000000000/000000
  0x2290	00 00 00 00 00 00 00 00 0c 2b 00 00 00 00 00 00 	000000000+000000
  0x22a0	7e 2a 00 00 00 00 00 00 8c 2a 00 00 00 00 00 00 	~*0000000*000000
  0x22b0	9e 2a 00 00 00 00 00 00 b0 2a 00 00 00 00 00 00 	0*0000000*000000
  0x22c0	22 2b 00 00 00 00 00 00 16 2b 00 00 00 00 00 00 	"+0000000+000000
  0x22d0	70 2a 00 00 00 00 00 00 02 2b 00 00 00 00 00 00 	p*0000000+000000
  0x22e0	ea 2a 00 00 00 00 00 00 de 2a 00 00 00 00 00 00 	0*0000000*000000
  0x22f0	ca 2a 00 00 00 00 00 00 c0 2a 00 00 00 00 00 00 	0*0000000*000000
  0x2300	b8 2a 00 00 00 00 00 00 00 00 00 00 00 00 00 00 	0*00000000000000
  0x2310	56 2b 00 00 00 00 00 00 70 2b 00 00 00 00 00 00 	V+000000p+000000
  0x2320	42 2b 00 00 00 00 00 00 00 00 00 00 00 00 00 00 	B+00000000000000
  0x2330	00 1b 00 40 01 00 00 00 e0 1c 00 40 01 00 00 00 	000@0000000@0000
  0x2340	00 00 00 00 00 00 00 00 d0 14 00 40 01 00 00 00 	00000000000@0000
  0x2350	00 00 00 00 00 00 00 00 00 00 00 00 00 00 00 00 	0000000000000000
  0x2360	f0 13 00 40 01 00 00 00 30 18 00 40 01 00 00 00 	000@0000000@0000
  0x2370	00 00 00 00 00 00 00 00 39 17 00 00 a2 18 00 00 	0000000090000000
  0x2380	b0 19 00 00 10 10 00 00 60 10 00 00 d0 10 00 00 	00000000`0000000
  0x2390	50 11 00 00 f0 13 00 00 d0 14 00 00 90 17 00 00 	P000000000000000
  0x23a0	f0 17 00 00 30 18 00 00 10 19 00 00 00 1b 00 00 	0000000000000000
  0x23b0	50 1b 00 00 00 00 00 00 00 00 00 00 00 00 00 00 	P000000000000000
  0x23c0	00 00 00 00 00 00 00 00 c0 00 00 00 00 00 00 46 	000000000000000F
  0x23d0	01 00 00 00 00 00 00 00 c0 00 00 00 00 00 00 46 	000000000000000F
  0x23e0	00 00 00 00 4d 2c cf 69 00 00 00 00 02 00 00 00 	0000M,0i00000000
  0x23f0	26 00 00 00 34 24 00 00 34 16 00 00 00 00 00 00 	&0004$0040000000
  0x2400	4d 2c cf 69 00 00 00 00 0d 00 00 00 04 02 00 00 	M,0i000000000000
  0x2410	5c 24 00 00 5c 16 00 00 00 00 00 00 4d 2c cf 69 	0$0000000000M,0i
  0x2420	00 00 00 00 10 00 00 00 24 00 00 00 60 26 00 00 	00000000$000`&00
  0x2430	60 18 00 00 52 53 44 53 4b 62 42 da 0c 1a 9d 96 	`000RSDSKbB00000
  0x2440	e5 25 9c 0f 99 c0 82 19 01 00 00 00 77 75 61 70 	0%0000000000wuap
  0x2450	69 68 6f 73 74 2e 70 64 62 00 00 00 47 43 54 4c 	ihost.pdb000GCTL
  0x2460	00 10 00 00 d0 0c 00 00 2e 74 65 78 74 24 6d 6e 	00000000.text$mn
  0x2470	00 00 00 00 d0 1c 00 00 20 00 00 00 2e 74 65 78 	00000000 000.tex
  0x2480	74 24 6d 6e 24 30 30 00 f0 1c 00 00 50 00 00 00 	t$mn$0000000P000
  0x2490	2e 74 65 78 74 24 78 00 00 20 00 00 48 01 00 00 	.text$x00 00H000
  0x24a0	2e 72 64 61 74 61 24 62 72 63 00 00 48 21 00 00 	.rdata$brc00H!00
  0x24b0	e8 01 00 00 2e 69 64 61 74 61 24 35 00 00 00 00 	0000.idata$50000
  0x24c0	30 23 00 00 10 00 00 00 2e 30 30 63 66 67 00 00 	0#000000.00cfg00
  0x24d0	40 23 00 00 08 00 00 00 2e 43 52 54 24 58 43 41 	@#000000.CRT$XCA
  0x24e0	00 00 00 00 48 23 00 00 08 00 00 00 2e 43 52 54 	0000H#000000.CRT
  0x24f0	24 58 43 41 41 00 00 00 50 23 00 00 08 00 00 00 	$XCAA000P#000000
  0x2500	2e 43 52 54 24 58 43 5a 00 00 00 00 58 23 00 00 	.CRT$XCZ0000X#00
  0x2510	08 00 00 00 2e 43 52 54 24 58 49 41 00 00 00 00 	0000.CRT$XIA0000
  0x2520	60 23 00 00 08 00 00 00 2e 43 52 54 24 58 49 41 	`#000000.CRT$XIA
  0x2530	41 00 00 00 68 23 00 00 08 00 00 00 2e 43 52 54 	A000h#000000.CRT
  0x2540	24 58 49 59 00 00 00 00 70 23 00 00 08 00 00 00 	$XIY0000p#000000
  0x2550	2e 43 52 54 24 58 49 5a 00 00 00 00 78 23 00 00 	.CRT$XIZ0000x#00
  0x2560	0c 00 00 00 2e 67 65 68 63 6f 6e 74 00 00 00 00 	0000.gehcont0000
  0x2570	84 23 00 00 3c 00 00 00 2e 67 66 69 64 73 00 00 	0#00<000.gfids00
  0x2580	c0 23 00 00 74 00 00 00 2e 72 64 61 74 61 00 00 	0#00t000.rdata00
  0x2590	34 24 00 00 54 02 00 00 2e 72 64 61 74 61 24 7a 	4$00T000.rdata$z
  0x25a0	7a 7a 64 62 67 00 00 00 88 26 00 00 d4 00 00 00 	zzdbg0000&000000
  0x25b0	2e 78 64 61 74 61 00 00 5c 27 00 00 18 01 00 00 	.xdata000'000000
  0x25c0	2e 69 64 61 74 61 24 32 00 00 00 00 74 28 00 00 	.idata$20000t(00
  0x25d0	14 00 00 00 2e 69 64 61 74 61 24 33 00 00 00 00 	0000.idata$30000
  0x25e0	88 28 00 00 e8 01 00 00 2e 69 64 61 74 61 24 34 	0(000000.idata$4
  0x25f0	00 00 00 00 70 2a 00 00 54 05 00 00 2e 69 64 61 	0000p*00T000.ida
  0x2600	74 61 24 36 00 00 00 00 00 30 00 00 40 00 00 00 	ta$600000000@000
  0x2610	2e 64 61 74 61 00 00 00 40 30 00 00 58 06 00 00 	.data000@000X000
  0x2620	2e 62 73 73 00 00 00 00 00 40 00 00 f0 00 00 00 	.bss00000@000000
  0x2630	2e 70 64 61 74 61 00 00 00 50 00 00 60 00 00 00 	.pdata000P00`000
  0x2640	2e 72 73 72 63 24 30 31 00 00 00 00 60 50 00 00 	.rsrc$010000`P00
  0x2650	80 03 00 00 2e 72 73 72 63 24 30 32 00 00 00 00 	0000.rsrc$020000
  0x2660	20 00 00 00 4b 62 42 da 0c 1a 9d 96 e5 25 9c 0f 	 000KbB000000%00
  0x2670	99 c0 82 19 7b 4e ed a7 36 11 d7 76 09 a8 e8 bc 	0000{N00600v0000
  0x2680	4d 2c cf 69 00 00 00 00 01 04 01 00 04 42 00 00 	M,0i000000000B00
  0x2690	01 06 02 00 06 32 02 30 01 1f 0c 00 1f c4 13 00 	0000020000000000
  0x26a0	1f 74 12 00 1f 64 11 00 1f 34 10 00 1f b2 18 f0 	0t000d0004000000
  0x26b0	16 e0 14 50 01 04 01 00 04 62 00 00 09 1c 0b 00 	000P00000b000000
  0x26c0	1c e4 1b 00 1c 74 1a 00 1c 64 19 00 1c 34 18 00 	00000t000d000400
  0x26d0	1c 01 16 00 15 f0 00 00 ea 1a 00 00 01 00 00 00 	0000000000000000
  0x26e0	4f 15 00 00 39 17 00 00 f0 1c 00 00 39 17 00 00 	O000900000009000
  0x26f0	01 06 02 00 06 32 02 50 01 00 00 00 09 04 01 00 	0000020P00000000
  0x2700	04 22 00 00 ea 1a 00 00 01 00 00 00 6c 18 00 00 	0"0000000000l000
  0x2710	a2 18 00 00 01 00 00 00 a2 18 00 00 09 0a 04 00 	0000000000000000
  0x2720	0a 34 06 00 0a 32 06 70 ea 1a 00 00 01 00 00 00 	0400020p00000000
  0x2730	7d 19 00 00 b0 19 00 00 20 1d 00 00 b0 19 00 00 	}0000000 0000000
  0x2740	01 0d 04 00 0d 34 09 00 0d 32 06 50 01 0c 02 00 	00000400020P0000
  0x2750	0c 01 11 00 00 00 00 00 01 00 00 00 d8 29 00 00 	0000000000000)00
  0x2760	00 00 00 00 00 00 00 00 36 2b 00 00 98 22 00 00 	000000006+000"00
  0x2770	50 2a 00 00 00 00 00 00 00 00 00 00 84 2b 00 00 	P*00000000000+00
  0x2780	10 23 00 00 88 28 00 00 00 00 00 00 00 00 00 00 	0#000(0000000000
  0x2790	f8 2d 00 00 48 21 00 00 98 29 00 00 00 00 00 00 	0-00H!000)000000
  0x27a0	00 00 00 00 18 2e 00 00 58 22 00 00 58 29 00 00 	00000.00X"00X)00
  0x27b0	00 00 00 00 00 00 00 00 3e 2e 00 00 18 22 00 00 	00000000>.000"00
  0x27c0	c8 28 00 00 00 00 00 00 00 00 00 00 60 2e 00 00 	0(0000000000`.00
  0x27d0	88 21 00 00 e8 28 00 00 00 00 00 00 00 00 00 00 	0!000(0000000000
  0x27e0	8a 2e 00 00 a8 21 00 00 f8 28 00 00 00 00 00 00 	0.000!000(000000
  0x27f0	00 00 00 00 ac 2e 00 00 b8 21 00 00 70 29 00 00 	00000.000!00p)00
  0x2800	00 00 00 00 00 00 00 00 cc 2e 00 00 30 22 00 00 	000000000.000"00
  0x2810	18 29 00 00 00 00 00 00 00 00 00 00 ee 2e 00 00 	0)00000000000.00
  0x2820	d8 21 00 00 08 29 00 00 00 00 00 00 00 00 00 00 	0!000)0000000000
  0x2830	18 2f 00 00 c8 21 00 00 48 29 00 00 00 00 00 00 	0/000!00H)000000
  0x2840	00 00 00 00 42 2f 00 00 08 22 00 00 80 29 00 00 	0000B/000"000)00
  0x2850	00 00 00 00 00 00 00 00 66 2f 00 00 40 22 00 00 	00000000f/00@"00
  0x2860	c8 29 00 00 00 00 00 00 00 00 00 00 a0 2f 00 00 	0)00000000000/00
  0x2870	88 22 00 00 00 00 00 00 00 00 00 00 00 00 00 00 	0"00000000000000
  0x2880	00 00 00 00 00 00 00 00 0a 2c 00 00 00 00 00 00 	000000000,000000
  0x2890	e2 2c 00 00 00 00 00 00 d0 2c 00 00 00 00 00 00 	0,0000000,000000
  0x28a0	8e 2b 00 00 00 00 00 00 ba 2b 00 00 00 00 00 00 	0+0000000+000000
  0x28b0	8a 2c 00 00 00 00 00 00 d6 2b 00 00 00 00 00 00 	0,0000000+000000
  0x28c0	00 00 00 00 00 00 00 00 b4 2d 00 00 00 00 00 00 	000000000-000000
  0x28d0	12 2d 00 00 00 00 00 00 32 2c 00 00 00 00 00 00 	0-0000002,000000
  0x28e0	00 00 00 00 00 00 00 00 66 2c 00 00 00 00 00 00 	00000000f,000000
  0x28f0	00 00 00 00 00 00 00 00 ba 2c 00 00 00 00 00 00 	000000000,000000
  0x2900	00 00 00 00 00 00 00 00 30 2d 00 00 00 00 00 00 	000000000-000000
  0x2910	00 00 00 00 00 00 00 00 5e 2d 00 00 00 00 00 00 	00000000^-000000
  0x2920	e4 2d 00 00 00 00 00 00 00 2d 00 00 00 00 00 00 	0-0000000-000000
  0x2930	74 2d 00 00 00 00 00 00 d0 2d 00 00 00 00 00 00 	t-0000000-000000
  0x2940	00 00 00 00 00 00 00 00 44 2d 00 00 00 00 00 00 	00000000D-000000
  0x2950	00 00 00 00 00 00 00 00 42 2c 00 00 00 00 00 00 	00000000B,000000
  0x2960	22 2c 00 00 00 00 00 00 00 00 00 00 00 00 00 00 	",00000000000000
  0x2970	f8 2c 00 00 00 00 00 00 00 00 00 00 00 00 00 00 	0,00000000000000
  0x2980	8a 2d 00 00 00 00 00 00 a4 2d 00 00 00 00 00 00 	0-0000000-000000
  0x2990	00 00 00 00 00 00 00 00 74 2c 00 00 00 00 00 00 	00000000t,000000
  0x29a0	a2 2c 00 00 00 00 00 00 a2 2b 00 00 00 00 00 00 	0,0000000+000000
  0x29b0	e8 2b 00 00 00 00 00 00 4e 2c 00 00 00 00 00 00 	0+000000N,000000
  0x29c0	00 00 00 00 00 00 00 00 8a 2f 00 00 00 00 00 00 	000000000/000000
  0x29d0	00 00 00 00 00 00 00 00 0c 2b 00 00 00 00 00 00 	000000000+000000
  0x29e0	7e 2a 00 00 00 00 00 00 8c 2a 00 00 00 00 00 00 	~*0000000*000000
  0x29f0	9e 2a 00 00 00 00 00 00 b0 2a 00 00 00 00 00 00 	0*0000000*000000
  0x2a00	22 2b 00 00 00 00 00 00 16 2b 00 00 00 00 00 00 	"+0000000+000000
  0x2a10	70 2a 00 00 00 00 00 00 02 2b 00 00 00 00 00 00 	p*0000000+000000
  0x2a20	ea 2a 00 00 00 00 00 00 de 2a 00 00 00 00 00 00 	0*0000000*000000
  0x2a30	ca 2a 00 00 00 00 00 00 c0 2a 00 00 00 00 00 00 	0*0000000*000000
  0x2a40	b8 2a 00 00 00 00 00 00 00 00 00 00 00 00 00 00 	0*00000000000000
  0x2a50	56 2b 00 00 00 00 00 00 70 2b 00 00 00 00 00 00 	V+000000p+000000
  0x2a60	42 2b 00 00 00 00 00 00 00 00 00 00 00 00 00 00 	B+00000000000000
  0x2a70	55 00 5f 58 63 70 74 46 69 6c 74 65 72 00 ae 00 	U0_XcptFilter000
  0x2a80	5f 61 6d 73 67 5f 65 78 69 74 00 00 9d 00 5f 5f 	_amsg_exit0000__
  0x2a90	77 67 65 74 6d 61 69 6e 61 72 67 73 00 00 8e 00 	wgetmainargs0000
  0x2aa0	5f 5f 73 65 74 5f 61 70 70 5f 74 79 70 65 00 00 	__set_app_type00
  0x2ab0	32 04 65 78 69 74 00 00 0e 01 5f 65 78 69 74 00 	20exit0000_exit0
  0x2ac0	c1 00 5f 63 65 78 69 74 00 00 90 00 5f 5f 73 65 	00_cexit0000__se
  0x2ad0	74 75 73 65 72 6d 61 74 68 65 72 72 00 00 7d 01 	tusermatherr00}0
  0x2ae0	5f 69 6e 69 74 74 65 72 6d 00 57 00 5f 5f 43 5f 	_initterm0W0__C_
  0x2af0	73 70 65 63 69 66 69 63 5f 68 61 6e 64 6c 65 72 	specific_handler
  0x2b00	00 00 82 03 5f 77 63 6d 64 6c 6e 00 27 01 5f 66 	0000_wcmdln0'0_f
  0x2b10	6d 6f 64 65 00 00 d2 00 5f 63 6f 6d 6d 6f 64 65 	mode0000_commode
  0x2b20	00 00 2f 00 3f 74 65 72 6d 69 6e 61 74 65 40 40 	00/0?terminate@@
  0x2b30	59 41 58 58 5a 00 6d 73 76 63 72 74 2e 64 6c 6c 	YAXXZ0msvcrt.dll
  0x2b40	00 00 f3 02 52 74 6c 43 61 70 74 75 72 65 43 6f 	0000RtlCaptureCo
  0x2b50	6e 74 65 78 74 00 ea 04 52 74 6c 4c 6f 6f 6b 75 	ntext000RtlLooku
  0x2b60	70 46 75 6e 63 74 69 6f 6e 45 6e 74 72 79 00 00 	pFunctionEntry00
  0x2b70	29 06 52 74 6c 56 69 72 74 75 61 6c 55 6e 77 69 	)0RtlVirtualUnwi
  0x2b80	6e 64 00 00 6e 74 64 6c 6c 2e 64 6c 6c 00 19 00 	nd00ntdll.dll000
  0x2b90	43 6f 47 65 74 43 6c 61 73 73 4f 62 6a 65 63 74 	CoGetClassObject
  0x2ba0	00 00 11 00 49 73 54 68 72 65 61 64 70 6f 6f 6c 	0000IsThreadpool
  0x2bb0	54 69 6d 65 72 53 65 74 00 00 49 00 43 6f 57 61 	TimerSet00I0CoWa
  0x2bc0	69 74 46 6f 72 4d 75 6c 74 69 70 6c 65 48 61 6e 	itForMultipleHan
  0x2bd0	64 6c 65 73 00 00 46 00 43 6f 55 6e 69 6e 69 74 	dles00F0CoUninit
  0x2be0	69 61 6c 69 7a 65 00 00 22 00 57 61 69 74 46 6f 	ialize00"0WaitFo
  0x2bf0	72 54 68 72 65 61 64 70 6f 6f 6c 54 69 6d 65 72 	rThreadpoolTimer
  0x2c00	43 61 6c 6c 62 61 63 6b 73 00 34 00 43 6f 52 65 	Callbacks040CoRe
  0x2c10	67 69 73 74 65 72 43 6c 61 73 73 4f 62 6a 65 63 	gisterClassObjec
  0x2c20	74 00 06 00 43 72 65 61 74 65 45 76 65 6e 74 57 	t000CreateEventW
  0x2c30	00 00 05 00 47 65 74 4c 61 73 74 45 72 72 6f 72 	0000GetLastError
  0x2c40	00 00 29 00 53 65 74 45 76 65 6e 74 00 00 06 00 	00)0SetEvent0000
  0x2c50	43 6c 6f 73 65 54 68 72 65 61 64 70 6f 6f 6c 54 	CloseThreadpoolT
  0x2c60	69 6d 65 72 00 00 00 00 43 6c 6f 73 65 48 61 6e 	imer0000CloseHan
  0x2c70	64 6c 65 00 1a 00 53 65 74 54 68 72 65 61 64 70 	dle000SetThreadp
  0x2c80	6f 6f 6c 54 69 6d 65 72 00 00 13 00 43 6f 46 72 	oolTimer0000CoFr
  0x2c90	65 65 55 6e 75 73 65 64 4c 69 62 72 61 72 69 65 	eeUnusedLibrarie
  0x2ca0	73 00 0c 00 43 72 65 61 74 65 54 68 72 65 61 64 	s000CreateThread
  0x2cb0	70 6f 6f 6c 54 69 6d 65 72 00 0a 00 48 65 61 70 	poolTimer000Heap
  0x2cc0	53 65 74 49 6e 66 6f 72 6d 61 74 69 6f 6e 00 00 	SetInformation00
  0x2cd0	28 00 43 6f 49 6e 69 74 69 61 6c 69 7a 65 45 78 	(0CoInitializeEx
  0x2ce0	00 00 3c 00 43 6f 52 65 76 6f 6b 65 43 6c 61 73 	00<0CoRevokeClas
  0x2cf0	73 4f 62 6a 65 63 74 00 2d 00 53 6c 65 65 70 00 	sObject0-0Sleep0
  0x2d00	20 00 47 65 74 53 74 61 72 74 75 70 49 6e 66 6f 	 0GetStartupInfo
  0x2d10	57 00 0f 00 53 65 74 55 6e 68 61 6e 64 6c 65 64 	W000SetUnhandled
  0x2d20	45 78 63 65 70 74 69 6f 6e 46 69 6c 74 65 72 00 	ExceptionFilter0
  0x2d30	14 00 47 65 74 4d 6f 64 75 6c 65 48 61 6e 64 6c 	00GetModuleHandl
  0x2d40	65 57 00 00 00 00 51 75 65 72 79 50 65 72 66 6f 	eW0000QueryPerfo
  0x2d50	72 6d 61 6e 63 65 43 6f 75 6e 74 65 72 00 0d 00 	rmanceCounter000
  0x2d60	47 65 74 43 75 72 72 65 6e 74 50 72 6f 63 65 73 	GetCurrentProces
  0x2d70	73 49 64 00 11 00 47 65 74 43 75 72 72 65 6e 74 	sId000GetCurrent
  0x2d80	54 68 72 65 61 64 49 64 00 00 16 00 47 65 74 53 	ThreadId0000GetS
  0x2d90	79 73 74 65 6d 54 69 6d 65 41 73 46 69 6c 65 54 	ystemTimeAsFileT
  0x2da0	69 6d 65 00 1a 00 47 65 74 54 69 63 6b 43 6f 75 	ime000GetTickCou
  0x2db0	6e 74 00 00 11 00 55 6e 68 61 6e 64 6c 65 64 45 	nt0000UnhandledE
  0x2dc0	78 63 65 70 74 69 6f 6e 46 69 6c 74 65 72 00 00 	xceptionFilter00
  0x2dd0	0c 00 47 65 74 43 75 72 72 65 6e 74 50 72 6f 63 	00GetCurrentProc
  0x2de0	65 73 73 00 4f 00 54 65 72 6d 69 6e 61 74 65 50 	ess0O0TerminateP
  0x2df0	72 6f 63 65 73 73 00 00 61 70 69 2d 6d 73 2d 77 	rocess00api-ms-w
  0x2e00	69 6e 2d 63 6f 72 65 2d 63 6f 6d 2d 6c 31 2d 31 	in-core-com-l1-1
  0x2e10	2d 30 2e 64 6c 6c 00 00 61 70 69 2d 6d 73 2d 77 	-0.dll00api-ms-w
  0x2e20	69 6e 2d 63 6f 72 65 2d 74 68 72 65 61 64 70 6f 	in-core-threadpo
  0x2e30	6f 6c 2d 6c 31 2d 32 2d 30 2e 64 6c 6c 00 61 70 	ol-l1-2-0.dll0ap
  0x2e40	69 2d 6d 73 2d 77 69 6e 2d 63 6f 72 65 2d 73 79 	i-ms-win-core-sy
  0x2e50	6e 63 68 2d 6c 31 2d 31 2d 30 2e 64 6c 6c 00 00 	nch-l1-1-0.dll00
  0x2e60	61 70 69 2d 6d 73 2d 77 69 6e 2d 63 6f 72 65 2d 	api-ms-win-core-
  0x2e70	65 72 72 6f 72 68 61 6e 64 6c 69 6e 67 2d 6c 31 	errorhandling-l1
  0x2e80	2d 31 2d 30 2e 64 6c 6c 00 00 61 70 69 2d 6d 73 	-1-0.dll00api-ms
  0x2e90	2d 77 69 6e 2d 63 6f 72 65 2d 68 61 6e 64 6c 65 	-win-core-handle
  0x2ea0	2d 6c 31 2d 31 2d 30 2e 64 6c 6c 00 61 70 69 2d 	-l1-1-0.dll0api-
  0x2eb0	6d 73 2d 77 69 6e 2d 63 6f 72 65 2d 68 65 61 70 	ms-win-core-heap
  0x2ec0	2d 6c 31 2d 31 2d 30 2e 64 6c 6c 00 61 70 69 2d 	-l1-1-0.dll0api-
  0x2ed0	6d 73 2d 77 69 6e 2d 63 6f 72 65 2d 73 79 6e 63 	ms-win-core-sync
  0x2ee0	68 2d 6c 31 2d 32 2d 30 2e 64 6c 6c 00 00 61 70 	h-l1-2-0.dll00ap
  0x2ef0	69 2d 6d 73 2d 77 69 6e 2d 63 6f 72 65 2d 70 72 	i-ms-win-core-pr
  0x2f00	6f 63 65 73 73 74 68 72 65 61 64 73 2d 6c 31 2d 	ocessthreads-l1-
  0x2f10	31 2d 30 2e 64 6c 6c 00 61 70 69 2d 6d 73 2d 77 	1-0.dll0api-ms-w
  0x2f20	69 6e 2d 63 6f 72 65 2d 6c 69 62 72 61 72 79 6c 	in-core-libraryl
  0x2f30	6f 61 64 65 72 2d 6c 31 2d 32 2d 30 2e 64 6c 6c 	oader-l1-2-0.dll
  0x2f40	00 00 61 70 69 2d 6d 73 2d 77 69 6e 2d 63 6f 72 	00api-ms-win-cor
  0x2f50	65 2d 70 72 6f 66 69 6c 65 2d 6c 31 2d 31 2d 30 	e-profile-l1-1-0
  0x2f60	2e 64 6c 6c 00 00 61 70 69 2d 6d 73 2d 77 69 6e 	.dll00api-ms-win
  0x2f70	2d 63 6f 72 65 2d 73 79 73 69 6e 66 6f 2d 6c 31 	-core-sysinfo-l1
  0x2f80	2d 31 2d 30 2e 64 6c 6c 00 00 07 00 53 65 74 50 	-1-0.dll0000SetP
  0x2f90	72 6f 63 65 73 73 52 65 66 65 72 65 6e 63 65 00 	rocessReference0
  0x2fa0	61 70 69 2d 6d 73 2d 77 69 6e 2d 73 68 63 6f 72 	api-ms-win-shcor
  0x2fb0	65 2d 74 68 72 65 61 64 2d 6c 31 2d 31 2d 30 2e 	e-thread-l1-1-0.
  0x2fc0	64 6c 6c 00 00 00 00 00 00 00 00 00 00 00 00 00 	dll0000000000000
  0x2fd0	00 00 00 00 00 00 00 00 00 00 00 00 00 00 00 00 	0000000000000000
  0x2fe0	00 00 00 00 00 00 00 00 00 00 00 00 00 00 00 00 	0000000000000000
  0x2ff0	00 00 00 00 00 00 00 00 00 00 00 00 00 00 00 00 	0000000000000000
=== DATA BLOCK END ===

=== DATA BLOCK ADDRESS 0x3000 ===
  0x3000	01 00 00 00 00 00 00 00 32 a2 df 2d 99 2b 00 00 	00000000200-0+00
  0x3010	cd 5d 20 d2 66 d4 ff ff 00 00 00 00 00 00 00 00 	0] 0f00000000000
  0x3020	97 a8 de 34 65 73 60 4f ba 26 53 da 4b 89 22 6d 	0004es`O0&S0K0"m
  0x3030	d9 48 49 9a fc 13 ac 4f b6 0a fb a6 ee 0f b1 1c 	0HI0000O00000000
  0x3040	00 00 00 00 00 00 00 00 00 00 00 00 00 00 00 00 	0000000000000000
  0x3050	00 00 00 00 00 00 00 00 00 00 00 00 00 00 00 00 	0000000000000000
  0x3060	00 00 00 00 00 00 00 00 00 00 00 00 00 00 00 00 	0000000000000000
  0x3070	00 00 00 00 00 00 00 00 00 00 00 00 00 00 00 00 	0000000000000000
  0x3080	00 00 00 00 00 00 00 00 00 00 00 00 00 00 00 00 	0000000000000000
  0x3090	00 00 00 00 00 00 00 00 00 00 00 00 00 00 00 00 	0000000000000000
  0x30a0	00 00 00 00 00 00 00 00 00 00 00 00 00 00 00 00 	0000000000000000
  0x30b0	00 00 00 00 00 00 00 00 00 00 00 00 00 00 00 00 	0000000000000000
  0x30c0	00 00 00 00 00 00 00 00 00 00 00 00 00 00 00 00 	0000000000000000
  0x30d0	00 00 00 00 00 00 00 00 00 00 00 00 00 00 00 00 	0000000000000000
  0x30e0	00 00 00 00 00 00 00 00 00 00 00 00 00 00 00 00 	0000000000000000
  0x30f0	00 00 00 00 00 00 00 00 00 00 00 00 00 00 00 00 	0000000000000000
  0x3100	00 00 00 00 00 00 00 00 00 00 00 00 00 00 00 00 	0000000000000000
  0x3110	00 00 00 00 00 00 00 00 00 00 00 00 00 00 00 00 	0000000000000000
  0x3120	00 00 00 00 00 00 00 00 00 00 00 00 00 00 00 00 	0000000000000000
  0x3130	00 00 00 00 00 00 00 00 00 00 00 00 00 00 00 00 	0000000000000000
  0x3140	00 00 00 00 00 00 00 00 00 00 00 00 00 00 00 00 	0000000000000000
  0x3150	00 00 00 00 00 00 00 00 00 00 00 00 00 00 00 00 	0000000000000000
  0x3160	00 00 00 00 00 00 00 00 00 00 00 00 00 00 00 00 	0000000000000000
  0x3170	00 00 00 00 00 00 00 00 00 00 00 00 00 00 00 00 	0000000000000000
  0x3180	00 00 00 00 00 00 00 00 00 00 00 00 00 00 00 00 	0000000000000000
  0x3190	00 00 00 00 00 00 00 00 00 00 00 00 00 00 00 00 	0000000000000000
  0x31a0	00 00 00 00 00 00 00 00 00 00 00 00 00 00 00 00 	0000000000000000
  0x31b0	00 00 00 00 00 00 00 00 00 00 00 00 00 00 00 00 	0000000000000000
  0x31c0	00 00 00 00 00 00 00 00 00 00 00 00 00 00 00 00 	0000000000000000
  0x31d0	00 00 00 00 00 00 00 00 00 00 00 00 00 00 00 00 	0000000000000000
  0x31e0	00 00 00 00 00 00 00 00 00 00 00 00 00 00 00 00 	0000000000000000
  0x31f0	00 00 00 00 00 00 00 00 00 00 00 00 00 00 00 00 	0000000000000000
=== DATA BLOCK END ===

=== DATA BLOCK ADDRESS 0x4000 ===
  0x4000	10 10 00 00 53 10 00 00 88 26 00 00 60 10 00 00 	0000S0000&00`000
  0x4010	c2 10 00 00 90 26 00 00 d0 10 00 00 3b 11 00 00 	00000&000000;000
  0x4020	90 26 00 00 68 11 00 00 de 13 00 00 98 26 00 00 	0&00h00000000&00
  0x4030	f0 13 00 00 c3 14 00 00 88 26 00 00 d0 14 00 00 	000000000&000000
  0x4040	19 15 00 00 b4 26 00 00 20 15 00 00 84 17 00 00 	00000&00 0000000
  0x4050	bc 26 00 00 90 17 00 00 a2 17 00 00 88 26 00 00 	0&00000000000&00
  0x4060	c0 17 00 00 de 17 00 00 f8 26 00 00 f0 17 00 00 	000000000&000000
  0x4070	29 18 00 00 88 26 00 00 30 18 00 00 48 18 00 00 	)0000&000000H000
  0x4080	88 26 00 00 5c 18 00 00 b0 18 00 00 fc 26 00 00 	0&00000000000&00
  0x4090	b8 18 00 00 fd 18 00 00 90 26 00 00 70 19 00 00 	000000000&00p000
  0x40a0	bd 19 00 00 1c 27 00 00 04 1a 00 00 d8 1a 00 00 	00000'0000000000
  0x40b0	40 27 00 00 0c 1b 00 00 40 1b 00 00 90 26 00 00 	@'000000@0000&00
  0x40c0	50 1b 00 00 c1 1c 00 00 4c 27 00 00 e0 1c 00 00 	P0000000L'000000
  0x40d0	e2 1c 00 00 58 27 00 00 f0 1c 00 00 0e 1d 00 00 	0000X'0000000000
  0x40e0	f0 26 00 00 20 1d 00 00 40 1d 00 00 f0 26 00 00 	0&00 000@0000&00
  0x40f0	00 00 00 00 00 00 00 00 00 00 00 00 00 00 00 00 	0000000000000000
  0x4100	00 00 00 00 00 00 00 00 00 00 00 00 00 00 00 00 	0000000000000000
  0x4110	00 00 00 00 00 00 00 00 00 00 00 00 00 00 00 00 	0000000000000000
  0x4120	00 00 00 00 00 00 00 00 00 00 00 00 00 00 00 00 	0000000000000000
  0x4130	00 00 00 00 00 00 00 00 00 00 00 00 00 00 00 00 	0000000000000000
  0x4140	00 00 00 00 00 00 00 00 00 00 00 00 00 00 00 00 	0000000000000000
  0x4150	00 00 00 00 00 00 00 00 00 00 00 00 00 00 00 00 	0000000000000000
  0x4160	00 00 00 00 00 00 00 00 00 00 00 00 00 00 00 00 	0000000000000000
  0x4170	00 00 00 00 00 00 00 00 00 00 00 00 00 00 00 00 	0000000000000000
  0x4180	00 00 00 00 00 00 00 00 00 00 00 00 00 00 00 00 	0000000000000000
  0x4190	00 00 00 00 00 00 00 00 00 00 00 00 00 00 00 00 	0000000000000000
  0x41a0	00 00 00 00 00 00 00 00 00 00 00 00 00 00 00 00 	0000000000000000
  0x41b0	00 00 00 00 00 00 00 00 00 00 00 00 00 00 00 00 	0000000000000000
  0x41c0	00 00 00 00 00 00 00 00 00 00 00 00 00 00 00 00 	0000000000000000
  0x41d0	00 00 00 00 00 00 00 00 00 00 00 00 00 00 00 00 	0000000000000000
  0x41e0	00 00 00 00 00 00 00 00 00 00 00 00 00 00 00 00 	0000000000000000
  0x41f0	00 00 00 00 00 00 00 00 00 00 00 00 00 00 00 00 	0000000000000000
=== DATA BLOCK END ===
