===== Assembly blocks =====

=== CODE BLOCK ADDRESS 0x1000 ===
  0x1000	inc    	eax
  0x1001	push   	ebp
  0x1002	push   	ebx
  0x1003	push   	esi
  0x1004	push   	edi
  0x1005	dec    	eax
  0x1006	lea    	ebp, [esp - 0x48]
  0x100a	dec    	eax
  0x100b	sub    	esp, 0x148
  0x1011	dec    	eax
  0x1012	mov    	eax, dword ptr [0x70a48]
  0x1018	dec    	eax
  0x1019	xor    	eax, esp
  0x101b	dec    	eax
  0x101c	mov    	dword ptr [ebp + 0x30], eax
  0x101f	dec    	eax
  0x1020	mov    	eax, dword ptr [ebp + 0xf8]
  0x1026	dec    	esp
  0x1027	mov    	ebx, edx
  0x1029	dec    	esp
  0x102a	mov    	edx, ecx
  0x102c	xor    	esi, esi
  0x102e	dec    	eax
  0x102f	or     	ecx, 0xffffffff
  0x1032	dec    	ecx
  0x1033	mov    	edi, ecx
  0x1035	dec    	ecx
  0x1036	mov    	ebx, eax
  0x1038	dec    	eax
  0x1039	mov    	edx, dword ptr [eax]
  0x103b	dec    	eax
  0x103c	test   	edx, edx
  0x103e	je     	0x1050
  === BLOCK LINK ===
    0x1040
    0x1050
=== CODE BLOCK END ===

=== CODE BLOCK ADDRESS 0x1040 ===
  0x1040	dec    	eax
  0x1041	mov    	eax, ecx
  === BLOCK LINK ===
    0x1043
    0x1043
=== CODE BLOCK END ===

=== CODE BLOCK ADDRESS 0x104c ===
  0x104c	inc    	eax
  0x104e	jmp    	0x105c
  === BLOCK LINK ===
    0x1050
    0x105c
=== CODE BLOCK END ===

=== CODE BLOCK ADDRESS 0x1050 ===
  0x1050	dec    	eax
  0x1051	lea    	edx, [0x5d309]
  0x1057	mov    	eax, 1
  === BLOCK LINK ===
    0x105c
    0x1129
=== CODE BLOCK END ===

=== CODE BLOCK ADDRESS 0x1113 ===
  0x1113	dec    	eax
  0x1114	mov    	eax, ecx
  === BLOCK LINK ===
    0x1116
    0x1116
=== CODE BLOCK END ===

=== CODE BLOCK ADDRESS 0x111f ===
  0x111f	inc    	esp
  0x1120	lea    	ecx, [eax*2 + 2]
  0x1127	jmp    	0x1133
  === BLOCK LINK ===
    0x1129
    0x1133
=== CODE BLOCK END ===

=== CODE BLOCK ADDRESS 0x1129 ===
  0x1129	dec    	eax
  0x112a	lea    	edx, [0x5d32c]
  0x1130	inc    	ebp
  0x1131	mov    	ecx, eax
  === BLOCK LINK ===
    0x1133
    0x1163
=== CODE BLOCK END ===

=== CODE BLOCK ADDRESS 0x114d ===
  0x114d	dec    	eax
  0x114e	mov    	eax, ecx
  === BLOCK LINK ===
    0x1150
    0x1150
=== CODE BLOCK END ===

=== CODE BLOCK ADDRESS 0x1159 ===
  0x1159	inc    	esp
  0x115a	lea    	ecx, [eax*2 + 2]
  0x1161	jmp    	0x116d
  === BLOCK LINK ===
    0x1163
    0x116d
=== CODE BLOCK END ===

=== CODE BLOCK ADDRESS 0x1163 ===
  0x1163	dec    	eax
  0x1164	lea    	edx, [0x5d2f2]
  0x116a	inc    	ebp
  0x116b	mov    	ecx, eax
  === BLOCK LINK ===
    0x116d
    0x119d
=== CODE BLOCK END ===

=== CODE BLOCK ADDRESS 0x1187 ===
  0x1187	dec    	eax
  0x1188	mov    	eax, ecx
  === BLOCK LINK ===
    0x118a
    0x118a
=== CODE BLOCK END ===

=== CODE BLOCK ADDRESS 0x1193 ===
  0x1193	inc    	esp
  0x1194	lea    	ecx, [eax*2 + 2]
  0x119b	jmp    	0x11a7
  === BLOCK LINK ===
    0x119d
    0x11a7
=== CODE BLOCK END ===

=== CODE BLOCK ADDRESS 0x119d ===
  0x119d	dec    	eax
  0x119e	lea    	edx, [0x5d2b8]
  0x11a4	inc    	ebp
  0x11a5	mov    	ecx, eax
  === BLOCK LINK ===
    0x11a7
    0x11d7
=== CODE BLOCK END ===

=== CODE BLOCK ADDRESS 0x11c4 ===
  0x11c4	dec    	eax
  0x11c5	inc    	ecx
  0x11c7	cmp    	word ptr [edx + ecx*2], si
  0x11cb	jne    	0x11c4
  === BLOCK LINK ===
    0x11cd
    0x11c4
=== CODE BLOCK END ===

=== CODE BLOCK ADDRESS 0x11cd ===
  0x11cd	inc    	esp
  0x11ce	lea    	eax, [ecx*2 + 2]
  0x11d5	jmp    	0x11de
  === BLOCK LINK ===
    0x11d7
    0x11de
=== CODE BLOCK END ===

=== CODE BLOCK ADDRESS 0x11d7 ===
  0x11d7	dec    	eax
  0x11d8	lea    	edx, [0x5d27e]
  === BLOCK LINK ===
    0x11de
    0x1678
=== CODE BLOCK END ===

=== CODE BLOCK ADDRESS 0x1224 ===
  0x1224	dec    	eax
  0x1225	mov    	ecx, dword ptr [ebp + 0x30]
  0x1228	dec    	eax
  0x1229	xor    	ecx, esp
  0x122b	call   	0x452c0
  === BLOCK LINK ===
    0x1230
    0x452c0
=== CODE BLOCK END ===

=== CODE BLOCK ADDRESS 0x1230 ===
  0x1230	dec    	eax
  0x1231	add    	esp, 0x148
  0x1237	pop    	edi
  0x1238	pop    	esi
  0x1239	pop    	ebx
  0x123a	pop    	ebp
  0x123b	ret    	
  0x123c	inc    	eax
  0x123d	push   	ebp
  0x123e	dec    	eax
  0x123f	lea    	ebp, [esp - 0x50]
  0x1243	dec    	eax
  0x1244	sub    	esp, 0x150
  0x124a	dec    	eax
  0x124b	mov    	eax, dword ptr [0x7080f]
  0x1251	dec    	eax
  0x1252	xor    	eax, esp
  0x1254	dec    	eax
  0x1255	mov    	dword ptr [ebp + 0x40], eax
  0x1258	dec    	eax
  0x1259	mov    	eax, dword ptr [ebp + 0xf0]
  0x125f	inc    	ebp
  0x1260	xor    	ebx, ebx
  0x1262	dec    	eax
  0x1263	mov    	dword ptr [ebp + 0x30], eax
  0x1266	dec    	esp
  0x1267	mov    	edx, edx
  0x1269	dec    	eax
  0x126a	mov    	eax, dword ptr [ebp + 0xe8]
  0x1270	dec    	eax
  0x1271	or     	ecx, 0xffffffff
  0x1274	dec    	eax
  0x1275	mov    	dword ptr [ebp + 0x20], eax
  0x1278	dec    	eax
  0x1279	mov    	eax, dword ptr [ebp + 0xe0]
  0x127f	inc    	ebp
  0x1280	lea    	eax, [ebx + 2]
  0x1283	dec    	eax
  0x1284	mov    	dword ptr [ebp + 0x10], eax
  0x1287	dec    	eax
  0x1288	mov    	eax, dword ptr [ebp + 0xd8]
  0x128e	dec    	eax
  0x128f	mov    	dword ptr [ebp], eax
  0x1292	dec    	eax
  0x1293	mov    	eax, dword ptr [ebp + 0xd0]
  0x1299	dec    	eax
  0x129a	mov    	dword ptr [ebp - 0x10], eax
  0x129d	dec    	eax
  0x129e	mov    	eax, dword ptr [ebp + 0xc8]
  0x12a4	dec    	eax
  0x12a5	mov    	dword ptr [ebp - 0x20], eax
  0x12a8	dec    	eax
  0x12a9	mov    	eax, dword ptr [ebp + 0xc0]
  0x12af	dec    	eax
  0x12b0	mov    	dword ptr [ebp - 0x30], eax
  0x12b3	dec    	eax
  0x12b4	mov    	eax, dword ptr [ebp + 0xb8]
  0x12ba	dec    	eax
  0x12bb	mov    	dword ptr [ebp - 0x40], eax
  0x12be	dec    	eax
  0x12bf	mov    	eax, dword ptr [ebp + 0xb0]
  0x12c5	dec    	eax
  0x12c6	mov    	dword ptr [ebp - 0x50], eax
  0x12c9	dec    	eax
  0x12ca	mov    	eax, dword ptr [ebp + 0xa8]
  0x12d0	dec    	eax
  0x12d1	mov    	dword ptr [ebp - 0x60], eax
  0x12d4	dec    	eax
  0x12d5	mov    	eax, dword ptr [ebp + 0xa0]
  0x12db	dec    	eax
  0x12dc	mov    	dword ptr [ebp + 0x38], 4
  0x12e3	dec    	eax
  0x12e4	mov    	dword ptr [ebp + 0x28], 4
  0x12eb	dec    	eax
  0x12ec	mov    	dword ptr [ebp + 0x18], 4
  0x12f3	dec    	eax
  0x12f4	mov    	edx, dword ptr [eax]
  0x12f6	dec    	eax
  0x12f7	mov    	dword ptr [ebp + 8], 4
  0x12fe	dec    	eax
  0x12ff	mov    	dword ptr [ebp - 8], 4
  0x1306	dec    	eax
  0x1307	mov    	dword ptr [ebp - 0x18], 4
  0x130e	dec    	eax
  0x130f	mov    	dword ptr [ebp - 0x28], 4
  0x1316	dec    	eax
  0x1317	mov    	dword ptr [ebp - 0x38], 4
  0x131e	dec    	eax
  0x131f	mov    	dword ptr [ebp - 0x48], 4
  0x1326	dec    	eax
  0x1327	mov    	dword ptr [ebp - 0x58], 4
  0x132e	dec    	eax
  0x132f	test   	edx, edx
  0x1331	je     	0x134a
  === BLOCK LINK ===
    0x1333
    0x134a
=== CODE BLOCK END ===

=== CODE BLOCK ADDRESS 0x1333 ===
  0x1333	dec    	eax
  0x1334	mov    	eax, ecx
  === BLOCK LINK ===
    0x1336
    0x1336
=== CODE BLOCK END ===

=== CODE BLOCK ADDRESS 0x1340 ===
  0x1340	inc    	esp
  0x1341	lea    	ecx, [eax*2 + 2]
  0x1348	jmp    	0x1354
  === BLOCK LINK ===
    0x134a
    0x1354
=== CODE BLOCK END ===

=== CODE BLOCK ADDRESS 0x134a ===
  0x134a	dec    	eax
  0x134b	lea    	edx, [0x5d10b]
  0x1351	inc    	ebp
  0x1352	mov    	ecx, eax
  === BLOCK LINK ===
    0x1354
    0x1386
=== CODE BLOCK END ===

=== CODE BLOCK ADDRESS 0x136f ===
  0x136f	dec    	eax
  0x1370	mov    	eax, ecx
  === BLOCK LINK ===
    0x1372
    0x1372
=== CODE BLOCK END ===

=== CODE BLOCK ADDRESS 0x137c ===
  0x137c	inc    	esp
  0x137d	lea    	ecx, [eax*2 + 2]
  0x1384	jmp    	0x1390
  === BLOCK LINK ===
    0x1386
    0x1390
=== CODE BLOCK END ===

=== CODE BLOCK ADDRESS 0x1386 ===
  0x1386	dec    	eax
  0x1387	lea    	edx, [0x5d0cf]
  0x138d	inc    	ebp
  0x138e	mov    	ecx, eax
  === BLOCK LINK ===
    0x1390
    0x13c2
=== CODE BLOCK END ===

=== CODE BLOCK ADDRESS 0x13ab ===
  0x13ab	dec    	eax
  0x13ac	mov    	eax, ecx
  === BLOCK LINK ===
    0x13ae
    0x13ae
=== CODE BLOCK END ===

=== CODE BLOCK ADDRESS 0x13b8 ===
  0x13b8	inc    	esp
  0x13b9	lea    	ecx, [eax*2 + 2]
  0x13c0	jmp    	0x13cc
  === BLOCK LINK ===
    0x13c2
    0x13cc
=== CODE BLOCK END ===

=== CODE BLOCK ADDRESS 0x13c2 ===
  0x13c2	dec    	eax
  0x13c3	lea    	edx, [0x5d093]
  0x13c9	inc    	ebp
  0x13ca	mov    	ecx, eax
  === BLOCK LINK ===
    0x13cc
    0x13fe
=== CODE BLOCK END ===

=== CODE BLOCK ADDRESS 0x13ea ===
  0x13ea	dec    	eax
  0x13eb	inc    	ecx
  0x13ed	inc    	sp
  0x13ef	cmp    	dword ptr [edx + ecx*2], ebx
  0x13f2	jne    	0x13ea
  === BLOCK LINK ===
    0x13f4
    0x13ea
=== CODE BLOCK END ===

=== CODE BLOCK ADDRESS 0x13f4 ===
  0x13f4	inc    	esp
  0x13f5	lea    	eax, [ecx*2 + 2]
  0x13fc	jmp    	0x1405
  === BLOCK LINK ===
    0x13fe
    0x1405
=== CODE BLOCK END ===

=== CODE BLOCK ADDRESS 0x13fe ===
  0x13fe	dec    	eax
  0x13ff	lea    	edx, [0x5d057]
  === BLOCK LINK ===
    0x1405
    0x1678
=== CODE BLOCK END ===

=== CODE BLOCK ADDRESS 0x1450 ===
  0x1450	dec    	eax
  0x1451	mov    	ecx, dword ptr [ebp + 0x40]
  0x1454	dec    	eax
  0x1455	xor    	ecx, esp
  0x1457	call   	0x452c0
  === BLOCK LINK ===
    0x145c
    0x452c0
=== CODE BLOCK END ===

=== CODE BLOCK ADDRESS 0x145c ===
  0x145c	dec    	eax
  0x145d	add    	esp, 0x150
  0x1463	pop    	ebp
  0x1464	ret    	
  0x1465	int3   	
  0x1466	int3   	
  0x1467	int3   	
  0x1468	inc    	eax
  0x1469	push   	ebp
  0x146a	dec    	eax
  0x146b	lea    	ebp, [esp - 0x40]
  0x146f	dec    	eax
  0x1470	sub    	esp, 0x140
  0x1476	dec    	eax
  0x1477	mov    	eax, dword ptr [0x705e3]
  0x147d	dec    	eax
  0x147e	xor    	eax, esp
  0x1480	dec    	eax
  0x1481	mov    	dword ptr [ebp + 0x30], eax
  0x1484	dec    	eax
  0x1485	mov    	eax, dword ptr [ebp + 0xd8]
  0x148b	inc    	ebp
  0x148c	xor    	ebx, ebx
  0x148e	dec    	eax
  0x148f	mov    	dword ptr [ebp + 0x20], eax
  0x1492	dec    	esp
  0x1493	mov    	edx, edx
  0x1495	dec    	eax
  0x1496	mov    	eax, dword ptr [ebp + 0xd0]
  0x149c	dec    	eax
  0x149d	or     	ecx, 0xffffffff
  0x14a0	dec    	eax
  0x14a1	mov    	dword ptr [ebp + 0x10], eax
  0x14a4	dec    	eax
  0x14a5	mov    	eax, dword ptr [ebp + 0xc8]
  0x14ab	inc    	ebp
  0x14ac	lea    	eax, [ebx + 2]
  0x14af	dec    	eax
  0x14b0	mov    	dword ptr [ebp], eax
  0x14b3	dec    	eax
  0x14b4	mov    	eax, dword ptr [ebp + 0xc0]
  0x14ba	dec    	eax
  0x14bb	mov    	dword ptr [ebp - 0x10], eax
  0x14be	dec    	eax
  0x14bf	mov    	eax, dword ptr [ebp + 0xb8]
  0x14c5	dec    	eax
  0x14c6	mov    	dword ptr [ebp - 0x20], eax
  0x14c9	dec    	eax
  0x14ca	mov    	eax, dword ptr [ebp + 0xb0]
  0x14d0	dec    	eax
  0x14d1	mov    	dword ptr [ebp - 0x30], eax
  0x14d4	dec    	eax
  0x14d5	mov    	eax, dword ptr [ebp + 0xa8]
  0x14db	dec    	eax
  0x14dc	mov    	dword ptr [ebp - 0x40], eax
  0x14df	dec    	eax
  0x14e0	mov    	eax, dword ptr [ebp + 0xa0]
  0x14e6	dec    	eax
  0x14e7	mov    	dword ptr [ebp - 0x50], eax
  0x14ea	dec    	eax
  0x14eb	mov    	eax, dword ptr [ebp + 0x98]
  0x14f1	dec    	eax
  0x14f2	mov    	dword ptr [ebp - 0x60], eax
  0x14f5	dec    	eax
  0x14f6	mov    	eax, dword ptr [ebp + 0x90]
  0x14fc	dec    	eax
  0x14fd	mov    	dword ptr [ebp + 0x28], 4
  0x1504	dec    	eax
  0x1505	mov    	dword ptr [ebp + 0x18], 4
  0x150c	dec    	eax
  0x150d	mov    	dword ptr [ebp + 8], 4
  0x1514	dec    	eax
  0x1515	mov    	edx, dword ptr [eax]
  0x1517	dec    	eax
  0x1518	mov    	dword ptr [ebp - 8], 4
  0x151f	dec    	eax
  0x1520	mov    	dword ptr [ebp - 0x18], 4
  0x1527	dec    	eax
  0x1528	mov    	dword ptr [ebp - 0x28], 4
  0x152f	dec    	eax
  0x1530	mov    	dword ptr [ebp - 0x38], 4
  0x1537	dec    	eax
  0x1538	mov    	dword ptr [ebp - 0x48], 4
  0x153f	dec    	eax
  0x1540	mov    	dword ptr [ebp - 0x58], 4
  0x1547	dec    	eax
  0x1548	test   	edx, edx
  0x154a	je     	0x1563
  === BLOCK LINK ===
    0x154c
    0x1563
=== CODE BLOCK END ===

=== CODE BLOCK ADDRESS 0x1043 ===
  0x1043	dec    	eax
  0x1044	inc    	eax
  0x1046	inc    	eax
  0x1047	cmp    	byte ptr [edx + eax], dh
  0x104a	jne    	0x1043
  === BLOCK LINK ===
    0x104c
=== CODE BLOCK END ===

=== CODE BLOCK ADDRESS 0x105c ===
  0x105c	mov    	dword ptr [ebp + 0x28], eax
  0x105f	inc    	ecx
  0x1060	mov    	eax, 2
  0x1065	dec    	eax
  0x1066	mov    	eax, dword ptr [ebp + 0xf0]
  0x106c	dec    	eax
  0x106d	mov    	dword ptr [ebp + 0x10], eax
  0x1070	dec    	eax
  0x1071	mov    	eax, dword ptr [ebp + 0xe8]
  0x1077	dec    	eax
  0x1078	mov    	dword ptr [ebp], eax
  0x107b	dec    	eax
  0x107c	mov    	eax, dword ptr [ebp + 0xe0]
  0x1082	dec    	eax
  0x1083	mov    	dword ptr [ebp - 0x10], eax
  0x1086	dec    	eax
  0x1087	mov    	eax, dword ptr [ebp + 0xd8]
  0x108d	dec    	eax
  0x108e	mov    	dword ptr [ebp - 0x20], eax
  0x1091	dec    	eax
  0x1092	mov    	eax, dword ptr [ebp + 0xd0]
  0x1098	dec    	eax
  0x1099	mov    	dword ptr [ebp - 0x30], eax
  0x109c	dec    	eax
  0x109d	mov    	eax, dword ptr [ebp + 0xc8]
  0x10a3	dec    	eax
  0x10a4	mov    	dword ptr [ebp - 0x40], eax
  0x10a7	dec    	eax
  0x10a8	mov    	eax, dword ptr [ebp + 0xc0]
  0x10ae	dec    	eax
  0x10af	mov    	dword ptr [ebp - 0x50], eax
  0x10b2	dec    	eax
  0x10b3	mov    	eax, dword ptr [ebp + 0xb8]
  0x10b9	dec    	eax
  0x10ba	mov    	dword ptr [ebp - 0x60], eax
  0x10bd	dec    	eax
  0x10be	mov    	eax, dword ptr [ebp + 0xb0]
  0x10c4	dec    	eax
  0x10c5	mov    	dword ptr [ebp + 0x20], edx
  0x10c8	mov    	dword ptr [ebp + 0x2c], esi
  0x10cb	dec    	eax
  0x10cc	mov    	dword ptr [ebp + 0x18], 4
  0x10d3	dec    	eax
  0x10d4	mov    	edx, dword ptr [eax]
  0x10d6	dec    	eax
  0x10d7	mov    	dword ptr [ebp + 8], 4
  0x10de	dec    	eax
  0x10df	mov    	dword ptr [ebp - 8], 4
  0x10e6	dec    	eax
  0x10e7	mov    	dword ptr [ebp - 0x18], 4
  0x10ee	dec    	eax
  0x10ef	mov    	dword ptr [ebp - 0x28], 4
  0x10f6	dec    	eax
  0x10f7	mov    	dword ptr [ebp - 0x38], 4
  0x10fe	dec    	eax
  0x10ff	mov    	dword ptr [ebp - 0x48], 4
  0x1106	dec    	eax
  0x1107	mov    	dword ptr [ebp - 0x58], 4
  0x110e	dec    	eax
  0x110f	test   	edx, edx
  0x1111	je     	0x1129
  === BLOCK LINK ===
    0x1113
=== CODE BLOCK END ===

=== CODE BLOCK ADDRESS 0x1116 ===
  0x1116	dec    	eax
  0x1117	inc    	eax
  0x1119	cmp    	word ptr [edx + eax*2], si
  0x111d	jne    	0x1116
  === BLOCK LINK ===
    0x111f
=== CODE BLOCK END ===

=== CODE BLOCK ADDRESS 0x154c ===
  0x154c	dec    	eax
  0x154d	mov    	eax, ecx
  === BLOCK LINK ===
    0x154f
    0x154f
=== CODE BLOCK END ===

=== CODE BLOCK ADDRESS 0x1559 ===
  0x1559	inc    	esp
  0x155a	lea    	ecx, [eax*2 + 2]
  0x1561	jmp    	0x156d
  === BLOCK LINK ===
    0x1563
    0x156d
=== CODE BLOCK END ===

=== CODE BLOCK ADDRESS 0x1563 ===
  0x1563	dec    	eax
  0x1564	lea    	edx, [0x5cef2]
  0x156a	inc    	ebp
  0x156b	mov    	ecx, eax
  === BLOCK LINK ===
    0x156d
    0x159f
=== CODE BLOCK END ===

=== CODE BLOCK ADDRESS 0x1588 ===
  0x1588	dec    	eax
  0x1589	mov    	eax, ecx
  === BLOCK LINK ===
    0x158b
    0x158b
=== CODE BLOCK END ===

=== CODE BLOCK ADDRESS 0x1595 ===
  0x1595	inc    	esp
  0x1596	lea    	ecx, [eax*2 + 2]
  0x159d	jmp    	0x15a9
  === BLOCK LINK ===
    0x159f
    0x15a9
=== CODE BLOCK END ===

=== CODE BLOCK ADDRESS 0x159f ===
  0x159f	dec    	eax
  0x15a0	lea    	edx, [0x5ceb6]
  0x15a6	inc    	ebp
  0x15a7	mov    	ecx, eax
  === BLOCK LINK ===
    0x15a9
    0x15db
=== CODE BLOCK END ===

=== CODE BLOCK ADDRESS 0x15c4 ===
  0x15c4	dec    	eax
  0x15c5	mov    	eax, ecx
  === BLOCK LINK ===
    0x15c7
    0x15c7
=== CODE BLOCK END ===

=== CODE BLOCK ADDRESS 0x15d1 ===
  0x15d1	inc    	esp
  0x15d2	lea    	ecx, [eax*2 + 2]
  0x15d9	jmp    	0x15e5
  === BLOCK LINK ===
    0x15db
    0x15e5
=== CODE BLOCK END ===

=== CODE BLOCK ADDRESS 0x15db ===
  0x15db	dec    	eax
  0x15dc	lea    	edx, [0x5ce7a]
  0x15e2	inc    	ebp
  0x15e3	mov    	ecx, eax
  === BLOCK LINK ===
    0x15e5
    0x1614
=== CODE BLOCK END ===

=== CODE BLOCK ADDRESS 0x1600 ===
  0x1600	dec    	eax
  0x1601	inc    	ecx
  0x1603	inc    	sp
  0x1605	cmp    	dword ptr [edx + ecx*2], ebx
  0x1608	jne    	0x1600
  === BLOCK LINK ===
    0x160a
    0x1600
=== CODE BLOCK END ===

=== CODE BLOCK ADDRESS 0x160a ===
  0x160a	inc    	esp
  0x160b	lea    	eax, [ecx*2 + 2]
  0x1612	jmp    	0x161b
  === BLOCK LINK ===
    0x1614
    0x161b
=== CODE BLOCK END ===

=== CODE BLOCK ADDRESS 0x1614 ===
  0x1614	dec    	eax
  0x1615	lea    	edx, [0x5ce41]
  === BLOCK LINK ===
    0x161b
    0x1678
=== CODE BLOCK END ===

=== CODE BLOCK ADDRESS 0x1663 ===
  0x1663	dec    	eax
  0x1664	mov    	ecx, dword ptr [ebp + 0x30]
  0x1667	dec    	eax
  0x1668	xor    	ecx, esp
  0x166a	call   	0x452c0
  === BLOCK LINK ===
    0x166f
    0x452c0
=== CODE BLOCK END ===

=== CODE BLOCK ADDRESS 0x166f ===
  0x166f	dec    	eax
  0x1670	add    	esp, 0x140
  0x1676	pop    	ebp
  0x1677	ret    	
  === BLOCK LINK ===
    0x1678
=== CODE BLOCK END ===

=== CODE BLOCK ADDRESS 0x1133 ===
  0x1133	dec    	eax
  0x1134	mov    	eax, dword ptr [ebp + 0xa8]
  0x113a	dec    	eax
  0x113b	mov    	dword ptr [ebp - 0x70], edx
  0x113e	inc    	esp
  0x113f	mov    	dword ptr [ebp - 0x68], ecx
  0x1142	mov    	dword ptr [ebp - 0x64], esi
  0x1145	dec    	eax
  0x1146	mov    	edx, dword ptr [eax]
  0x1148	dec    	eax
  0x1149	test   	edx, edx
  0x114b	je     	0x1163
  === BLOCK LINK ===
    0x114d
=== CODE BLOCK END ===

=== CODE BLOCK ADDRESS 0x1701 ===
  0x1701	dec    	eax
  0x1702	add    	esp, 0x48
  0x1705	ret    	
  0x1706	int3   	
  0x1707	int3   	
  0x1708	jno    	0x171d
  === BLOCK LINK ===
    0x170a
    0x171d
=== CODE BLOCK END ===

=== CODE BLOCK ADDRESS 0x1150 ===
  0x1150	dec    	eax
  0x1151	inc    	eax
  0x1153	cmp    	word ptr [edx + eax*2], si
  0x1157	jne    	0x1150
  === BLOCK LINK ===
    0x1159
=== CODE BLOCK END ===

=== CODE BLOCK ADDRESS 0x116d ===
  0x116d	dec    	eax
  0x116e	mov    	eax, dword ptr [ebp + 0xa0]
  0x1174	dec    	eax
  0x1175	mov    	dword ptr [ebp - 0x80], edx
  0x1178	inc    	esp
  0x1179	mov    	dword ptr [ebp - 0x78], ecx
  0x117c	mov    	dword ptr [ebp - 0x74], esi
  0x117f	dec    	eax
  0x1180	mov    	edx, dword ptr [eax]
  0x1182	dec    	eax
  0x1183	test   	edx, edx
  0x1185	je     	0x119d
  === BLOCK LINK ===
    0x1187
=== CODE BLOCK END ===

=== CODE BLOCK ADDRESS 0x170a ===
  0x170a	fstp   	qword ptr [esi - 0x72]
  0x170d	push   	ds
  0x170e	cmp    	eax, 0x5c8948a5
  0x1713	and    	al, 8
  0x1715	push   	edi
  0x1716	dec    	eax
  0x1717	sub    	esp, 0x40
  0x171a	dec    	esp
  0x171b	mov    	ebx, dword ptr [esp + 0x80]
  === BLOCK LINK ===
    0x171d
    0x1790
=== CODE BLOCK END ===

=== CODE BLOCK ADDRESS 0x172a ===
  0x172a	dec    	eax
  0x172b	mov    	ebx, dword ptr [esp + 0x70]
  0x172f	mov    	eax, edx
  0x1731	test   	edx, edx
  0x1733	je     	0x1758
  === BLOCK LINK ===
    0x1735
    0x1758
=== CODE BLOCK END ===

=== CODE BLOCK ADDRESS 0x1735 ===
  0x1735	cmp    	eax, 1
  0x1738	jne    	0x175c
  === BLOCK LINK ===
    0x173a
    0x175c
=== CODE BLOCK END ===

=== CODE BLOCK ADDRESS 0x173a ===
  0x173a	inc    	ecx
  0x173b	movzx  	ecx, al
  0x173e	mov    	eax, 0x100
  0x1743	inc    	ecx
  0x1745	dec    	ebp
  0x1746	mov    	dword ptr [ebx + 0x10], ecx
  0x1749	inc    	ebp
  0x174a	test   	al, al
  0x174c	dec    	ecx
  0x174d	mov    	dword ptr [ebx + 0x18], ebx
  0x1750	cmovne  	eax, ecx
  0x1753	inc    	ecx
  0x1754	mov    	dword ptr [ebx], eax
  0x1756	jmp    	0x175c
  === BLOCK LINK ===
    0x1758
    0x175c
=== CODE BLOCK END ===

=== CODE BLOCK ADDRESS 0x1758 ===
  0x1758	inc    	ecx
  0x1759	and    	dword ptr [ebx], 0
  === BLOCK LINK ===
    0x175c
    0x1790
=== CODE BLOCK END ===

=== CODE BLOCK ADDRESS 0x1765 ===
  0x1765	dec    	ecx
  0x1766	mov    	edx, 0x5edd1370
  0x176b	mov    	ds, word ptr [esi]
  0x176d	cmp    	eax, 0x4b8b49a5
  0x1772	xor    	byte ptr [eax - 0x77], cl
  0x1775	dec    	esp
  0x1776	and    	al, 0x30
  0x1778	dec    	eax
  0x1779	mov    	ecx, dword ptr [esp + 0x78]
  0x177d	dec    	eax
  0x177e	mov    	dword ptr [esp + 0x28], ecx
  0x1782	dec    	eax
  0x1783	mov    	ecx, edi
  0x1785	dec    	eax
  0x1786	mov    	dword ptr [esp + 0x20], ebx
  0x178a	call   	dword ptr [0x548a0]
  === BLOCK LINK ===
    0x1790
=== CODE BLOCK END ===

=== CODE BLOCK ADDRESS 0x1790 ===
  0x1790	dec    	eax
  0x1791	mov    	ebx, dword ptr [esp + 0x50]
  0x1795	dec    	eax
  0x1796	add    	esp, 0x40
  0x1799	pop    	edi
  0x179a	ret    	
  0x179b	int3   	
  0x179c	int3   	
  0x179d	int3   	
  0x179e	int3   	
  0x179f	int3   	
  0x17a0	int3   	
  0x17a1	int3   	
  0x17a2	int3   	
  0x17a3	int3   	
  0x17a4	int3   	
  0x17a5	int3   	
  0x17a6	int3   	
  0x17a7	int3   	
  0x17a8	jno    	0x17f2
  === BLOCK LINK ===
    0x17aa
    0x17f2
=== CODE BLOCK END ===

=== CODE BLOCK ADDRESS 0x118a ===
  0x118a	dec    	eax
  0x118b	inc    	eax
  0x118d	cmp    	word ptr [edx + eax*2], si
  0x1191	jne    	0x118a
  === BLOCK LINK ===
    0x1193
=== CODE BLOCK END ===

=== CODE BLOCK ADDRESS 0x11a7 ===
  0x11a7	dec    	eax
  0x11a8	mov    	eax, dword ptr [ebp + 0x98]
  0x11ae	dec    	eax
  0x11af	mov    	dword ptr [esp + 0x70], edx
  0x11b3	inc    	esp
  0x11b4	mov    	dword ptr [esp + 0x78], ecx
  0x11b8	mov    	dword ptr [esp + 0x7c], esi
  0x11bc	dec    	eax
  0x11bd	mov    	edx, dword ptr [eax]
  0x11bf	dec    	eax
  0x11c0	test   	edx, edx
  0x11c2	je     	0x11d7
  === BLOCK LINK ===
    0x11c4
=== CODE BLOCK END ===

=== CODE BLOCK ADDRESS 0x11de ===
  0x11de	dec    	eax
  0x11df	mov    	eax, dword ptr [ebp + 0x90]
  0x11e5	dec    	esp
  0x11e6	mov    	ecx, edi
  0x11e8	dec    	eax
  0x11e9	mov    	dword ptr [esp + 0x50], eax
  0x11ed	dec    	ecx
  0x11ee	mov    	ecx, edx
  0x11f0	dec    	eax
  0x11f1	lea    	eax, [esp + 0x30]
  0x11f5	dec    	eax
  0x11f6	mov    	dword ptr [esp + 0x60], edx
  0x11fa	inc    	esp
  0x11fb	mov    	dword ptr [esp + 0x68], eax
  0x11ff	dec    	ecx
  0x1200	mov    	edx, ebx
  0x1202	dec    	eax
  0x1203	mov    	dword ptr [esp + 0x28], eax
  0x1207	dec    	esp
  0x1208	mov    	eax, ebx
  0x120a	mov    	dword ptr [esp + 0x20], 0x10
  0x1212	mov    	dword ptr [esp + 0x6c], esi
  0x1216	dec    	eax
  0x1217	mov    	dword ptr [esp + 0x58], 8
  0x121f	call   	0x1678
  === BLOCK LINK ===
    0x1224
=== CODE BLOCK END ===

=== CODE BLOCK ADDRESS 0x1678 ===
  0x1678	dec    	eax
  0x1679	sub    	esp, 0x48
  0x167c	movzx  	eax, byte ptr [edx]
  0x167f	dec    	esp
  0x1680	lea    	edx, [edx + 1]
  0x1683	dec    	eax
  0x1684	mov    	edx, dword ptr [esp + 0x78]
  0x1688	dec    	esp
  0x1689	mov    	ebx, ecx
  0x168b	shl    	eax, 0x18
  0x168e	mov    	dword ptr [esp + 0x30], eax
  0x1692	inc    	ecx
  0x1693	movzx  	eax, word ptr [edx]
  0x1696	mov    	dword ptr [esp + 0x34], eax
  0x169a	dec    	ecx
  0x169b	mov    	eax, dword ptr [edx + 2]
  0x169e	dec    	ecx
  0x169f	add    	edx, 0xa
  0x16a2	dec    	eax
  0x16a3	mov    	dword ptr [esp + 0x38], eax
  0x16a7	dec    	eax
  0x16a8	mov    	eax, dword ptr [ecx + 8]
  0x16ab	dec    	eax
  0x16ac	mov    	dword ptr [edx], eax
  0x16ae	dec    	eax
  0x16af	mov    	eax, dword ptr [ecx + 8]
  0x16b2	dec    	eax
  0x16b3	mov    	dword ptr [esp + 0x28], edx
  0x16b7	movzx  	ecx, word ptr [eax]
  0x16ba	mov    	dword ptr [edx + 8], ecx
  0x16bd	dec    	eax
  0x16be	lea    	ecx, [0x63a8c]
  0x16c4	mov    	dword ptr [edx + 0xc], 2
  0x16cb	dec    	esp
  0x16cc	mov    	dword ptr [edx + 0x10], edx
  0x16cf	inc    	ecx
  0x16d0	movzx  	eax, word ptr [edx]
  0x16d3	mov    	dword ptr [edx + 0x18], eax
  0x16d6	dec    	eax
  0x16d7	lea    	eax, [0x64191]
  0x16dd	sub    	eax, ecx
  0x16df	mov    	dword ptr [edx + 0x1c], 1
  0x16e6	dec    	ecx
  0x16e7	mov    	ecx, dword ptr [ebx + 0x20]
  0x16ea	dec    	eax
  0x16eb	lea    	edx, [esp + 0x30]
  0x16ef	mov    	dword ptr [esp + 0x78], eax
  0x16f3	mov    	eax, dword ptr [esp + 0x70]
  0x16f7	mov    	dword ptr [esp + 0x20], eax
  0x16fb	call   	dword ptr [0x54047]
  === BLOCK LINK ===
    0x1701
=== CODE BLOCK END ===

=== CODE BLOCK ADDRESS 0x452c0 ===
=== CODE BLOCK END ===

=== CODE BLOCK ADDRESS 0x1336 ===
  0x1336	dec    	eax
  0x1337	inc    	eax
  0x1339	inc    	sp
  0x133b	cmp    	dword ptr [edx + eax*2], ebx
  0x133e	jne    	0x1336
  === BLOCK LINK ===
    0x1340
=== CODE BLOCK END ===

=== CODE BLOCK ADDRESS 0x1354 ===
  0x1354	dec    	eax
  0x1355	mov    	eax, dword ptr [ebp + 0x98]
  0x135b	dec    	eax
  0x135c	mov    	dword ptr [ebp - 0x70], edx
  0x135f	inc    	esp
  0x1360	mov    	dword ptr [ebp - 0x68], ecx
  0x1363	inc    	esp
  0x1364	mov    	dword ptr [ebp - 0x64], ebx
  0x1367	dec    	eax
  0x1368	mov    	edx, dword ptr [eax]
  0x136a	dec    	eax
  0x136b	test   	edx, edx
  0x136d	je     	0x1386
  === BLOCK LINK ===
    0x136f
=== CODE BLOCK END ===

=== CODE BLOCK ADDRESS 0x1372 ===
  0x1372	dec    	eax
  0x1373	inc    	eax
  0x1375	inc    	sp
  0x1377	cmp    	dword ptr [edx + eax*2], ebx
  0x137a	jne    	0x1372
  === BLOCK LINK ===
    0x137c
=== CODE BLOCK END ===

=== CODE BLOCK ADDRESS 0x1390 ===
  0x1390	dec    	eax
  0x1391	mov    	eax, dword ptr [ebp + 0x90]
  0x1397	dec    	eax
  0x1398	mov    	dword ptr [ebp - 0x80], edx
  0x139b	inc    	esp
  0x139c	mov    	dword ptr [ebp - 0x78], ecx
  0x139f	inc    	esp
  0x13a0	mov    	dword ptr [ebp - 0x74], ebx
  0x13a3	dec    	eax
  0x13a4	mov    	edx, dword ptr [eax]
  0x13a6	dec    	eax
  0x13a7	test   	edx, edx
  0x13a9	je     	0x13c2
  === BLOCK LINK ===
    0x13ab
=== CODE BLOCK END ===

=== CODE BLOCK ADDRESS 0x17aa ===
  0x17aa	ficom  	dword ptr [esi - 0x6a]
  0x17ad	int1   	
  0x17af	test   	dword ptr [eax - 0x73], ecx
  0x17b2	or     	eax, 0x4f5d9
  0x17b7	jmp    	0x45e28
  === BLOCK LINK ===
    0x17bc
    0x45e28
=== CODE BLOCK END ===

=== CODE BLOCK ADDRESS 0x17bc ===
  0x17bc	int3   	
  0x17bd	int3   	
  0x17be	int3   	
  0x17bf	int3   	
  0x17c0	int3   	
  0x17c1	int3   	
  0x17c2	int3   	
  0x17c3	int3   	
  0x17c4	int3   	
  0x17c5	int3   	
  0x17c6	int3   	
  0x17c7	int3   	
  0x17c8	jno    	0x1812
  === BLOCK LINK ===
    0x17ca
    0x1812
=== CODE BLOCK END ===

=== CODE BLOCK ADDRESS 0x13ae ===
  0x13ae	dec    	eax
  0x13af	inc    	eax
  0x13b1	inc    	sp
  0x13b3	cmp    	dword ptr [edx + eax*2], ebx
  0x13b6	jne    	0x13ae
  === BLOCK LINK ===
    0x13b8
=== CODE BLOCK END ===

=== CODE BLOCK ADDRESS 0x13cc ===
  0x13cc	dec    	eax
  0x13cd	mov    	eax, dword ptr [ebp + 0x88]
  0x13d3	dec    	eax
  0x13d4	mov    	dword ptr [esp + 0x70], edx
  0x13d8	inc    	esp
  0x13d9	mov    	dword ptr [esp + 0x78], ecx
  0x13dd	inc    	esp
  0x13de	mov    	dword ptr [esp + 0x7c], ebx
  0x13e2	dec    	eax
  0x13e3	mov    	edx, dword ptr [eax]
  0x13e5	dec    	eax
  0x13e6	test   	edx, edx
  0x13e8	je     	0x13fe
  === BLOCK LINK ===
    0x13ea
=== CODE BLOCK END ===

=== CODE BLOCK ADDRESS 0x1405 ===
  0x1405	dec    	eax
  0x1406	mov    	eax, dword ptr [ebp + 0x80]
  0x140c	dec    	eax
  0x140d	lea    	ecx, [0x6ce4d]
  0x1413	dec    	eax
  0x1414	mov    	dword ptr [esp + 0x50], eax
  0x1418	inc    	ebp
  0x1419	xor    	ecx, ecx
  0x141b	dec    	eax
  0x141c	lea    	eax, [esp + 0x30]
  0x1420	dec    	eax
  0x1421	mov    	dword ptr [esp + 0x60], edx
  0x1425	inc    	esp
  0x1426	mov    	dword ptr [esp + 0x68], eax
  0x142a	dec    	ecx
  0x142b	mov    	edx, edx
  0x142d	dec    	eax
  0x142e	mov    	dword ptr [esp + 0x28], eax
  0x1432	inc    	ebp
  0x1433	xor    	eax, eax
  0x1435	mov    	dword ptr [esp + 0x20], 0x11
  0x143d	inc    	esp
  0x143e	mov    	dword ptr [esp + 0x6c], ebx
  0x1442	dec    	eax
  0x1443	mov    	dword ptr [esp + 0x58], 8
  0x144b	call   	0x1678
  === BLOCK LINK ===
    0x1450
=== CODE BLOCK END ===

=== CODE BLOCK ADDRESS 0x154f ===
  0x154f	dec    	eax
  0x1550	inc    	eax
  0x1552	inc    	sp
  0x1554	cmp    	dword ptr [edx + eax*2], ebx
  0x1557	jne    	0x154f
  === BLOCK LINK ===
    0x1559
=== CODE BLOCK END ===

=== CODE BLOCK ADDRESS 0x156d ===
  0x156d	dec    	eax
  0x156e	mov    	eax, dword ptr [ebp + 0x88]
  0x1574	dec    	eax
  0x1575	mov    	dword ptr [ebp - 0x70], edx
  0x1578	inc    	esp
  0x1579	mov    	dword ptr [ebp - 0x68], ecx
  0x157c	inc    	esp
  0x157d	mov    	dword ptr [ebp - 0x64], ebx
  0x1580	dec    	eax
  0x1581	mov    	edx, dword ptr [eax]
  0x1583	dec    	eax
  0x1584	test   	edx, edx
  0x1586	je     	0x159f
  === BLOCK LINK ===
    0x1588
=== CODE BLOCK END ===

=== CODE BLOCK ADDRESS 0x17ca ===
  0x17ca	ficom  	dword ptr [esi - 0x6a]
  0x17cd	int1   	
  0x17cf	test   	dword ptr [eax - 0x7d], ecx
  0x17d2	in     	al, dx
  0x17d3	sub    	byte ptr [ebp + ecx*4 + 5], cl
  0x17d7	test   	eax, ecx
  0x17d9	add    	al, byte ptr [eax]
  0x17db	dec    	eax
  0x17dc	lea    	edx, [0x2c8be]
  0x17e2	dec    	eax
  0x17e3	lea    	ecx, [0x7173f]
  0x17e9	call   	0x2f894
  === BLOCK LINK ===
    0x17ee
    0x2f894
=== CODE BLOCK END ===

=== CODE BLOCK ADDRESS 0x17ee ===
  0x17ee	xorps  	xmm0, xmm0
  0x17f1	movdqa  	xmmword ptr [0x71757], xmm0
  === BLOCK LINK ===
    0x17f2
    0x1852
=== CODE BLOCK END ===

=== CODE BLOCK ADDRESS 0x158b ===
  0x158b	dec    	eax
  0x158c	inc    	eax
  0x158e	inc    	sp
  0x1590	cmp    	dword ptr [edx + eax*2], ebx
  0x1593	jne    	0x158b
  === BLOCK LINK ===
    0x1595
=== CODE BLOCK END ===

=== CODE BLOCK ADDRESS 0x15a9 ===
  0x15a9	dec    	eax
  0x15aa	mov    	eax, dword ptr [ebp + 0x80]
  0x15b0	dec    	eax
  0x15b1	mov    	dword ptr [ebp - 0x80], edx
  0x15b4	inc    	esp
  0x15b5	mov    	dword ptr [ebp - 0x78], ecx
  0x15b8	inc    	esp
  0x15b9	mov    	dword ptr [ebp - 0x74], ebx
  0x15bc	dec    	eax
  0x15bd	mov    	edx, dword ptr [eax]
  0x15bf	dec    	eax
  0x15c0	test   	edx, edx
  0x15c2	je     	0x15db
  === BLOCK LINK ===
    0x15c4
=== CODE BLOCK END ===

=== CODE BLOCK ADDRESS 0x15c7 ===
  0x15c7	dec    	eax
  0x15c8	inc    	eax
  0x15ca	inc    	sp
  0x15cc	cmp    	dword ptr [edx + eax*2], ebx
  0x15cf	jne    	0x15c7
  === BLOCK LINK ===
    0x15d1
=== CODE BLOCK END ===

=== CODE BLOCK ADDRESS 0x15e5 ===
  0x15e5	dec    	eax
  0x15e6	mov    	eax, dword ptr [ebp + 0x78]
  0x15e9	dec    	eax
  0x15ea	mov    	dword ptr [esp + 0x70], edx
  0x15ee	inc    	esp
  0x15ef	mov    	dword ptr [esp + 0x78], ecx
  0x15f3	inc    	esp
  0x15f4	mov    	dword ptr [esp + 0x7c], ebx
  0x15f8	dec    	eax
  0x15f9	mov    	edx, dword ptr [eax]
  0x15fb	dec    	eax
  0x15fc	test   	edx, edx
  0x15fe	je     	0x1614
  === BLOCK LINK ===
    0x1600
=== CODE BLOCK END ===

=== CODE BLOCK ADDRESS 0x161b ===
  0x161b	dec    	eax
  0x161c	mov    	eax, dword ptr [ebp + 0x70]
  0x161f	dec    	eax
  0x1620	lea    	ecx, [0x6cc3a]
  0x1626	dec    	eax
  0x1627	mov    	dword ptr [esp + 0x50], eax
  0x162b	inc    	ebp
  0x162c	xor    	ecx, ecx
  0x162e	dec    	eax
  0x162f	lea    	eax, [esp + 0x30]
  0x1633	dec    	eax
  0x1634	mov    	dword ptr [esp + 0x60], edx
  0x1638	inc    	esp
  0x1639	mov    	dword ptr [esp + 0x68], eax
  0x163d	dec    	ecx
  0x163e	mov    	edx, edx
  0x1640	dec    	eax
  0x1641	mov    	dword ptr [esp + 0x28], eax
  0x1645	inc    	ebp
  0x1646	xor    	eax, eax
  0x1648	mov    	dword ptr [esp + 0x20], 0x10
  0x1650	inc    	esp
  0x1651	mov    	dword ptr [esp + 0x6c], ebx
  0x1655	dec    	eax
  0x1656	mov    	dword ptr [esp + 0x58], 8
  0x165e	call   	0x1678
  === BLOCK LINK ===
    0x1663
=== CODE BLOCK END ===

=== CODE BLOCK ADDRESS 0x171d ===
  0x1722	dec    	eax
  0x1723	mov    	edi, ecx
  0x1725	dec    	ebp
  0x1726	test   	ebx, ebx
  0x1728	je     	0x1790
  === BLOCK LINK ===
    0x172a
=== CODE BLOCK END ===

=== CODE BLOCK ADDRESS 0x180a ===
  0x180a	ficom  	dword ptr [esi - 0x6a]
  0x180d	int1   	
  0x180f	test   	dword ptr [eax - 0x73], ecx
  === BLOCK LINK ===
    0x1812
    0x45e28
=== CODE BLOCK END ===

=== CODE BLOCK ADDRESS 0x181c ===
  0x181c	int3   	
  0x181d	int3   	
  0x181e	int3   	
  0x181f	int3   	
  0x1820	int3   	
  0x1821	int3   	
  0x1822	int3   	
  0x1823	int3   	
  0x1824	int3   	
  0x1825	int3   	
  0x1826	int3   	
=== CODE BLOCK END ===

=== CODE BLOCK ADDRESS 0x175c ===
  0x175c	dec    	ecx
  0x175d	mov    	eax, dword ptr [ebx + 0x28]
  0x1760	dec    	eax
  0x1761	test   	eax, eax
  0x1763	je     	0x1790
  === BLOCK LINK ===
    0x1765
=== CODE BLOCK END ===

=== CODE BLOCK ADDRESS 0x17f2 ===
  0x17f9	dec    	eax
  0x17fa	add    	esp, 0x28
  0x17fd	ret    	
  0x17fe	int3   	
  0x17ff	int3   	
  0x1800	int3   	
  0x1801	int3   	
  0x1802	int3   	
  0x1803	int3   	
  0x1804	int3   	
  0x1805	int3   	
  0x1806	int3   	
  0x1807	int3   	
  0x1808	jno    	0x1852
  === BLOCK LINK ===
    0x180a
=== CODE BLOCK END ===

=== CODE BLOCK ADDRESS 0x45e28 ===
=== CODE BLOCK END ===

=== CODE BLOCK ADDRESS 0x1812 ===
  0x1812	or     	eax, 0x4f599
  0x1817	jmp    	0x45e28
  === BLOCK LINK ===
    0x181c
=== CODE BLOCK END ===

=== CODE BLOCK ADDRESS 0x2f894 ===
=== CODE BLOCK END ===

=== CODE BLOCK ADDRESS 0x1852 ===
=== CODE BLOCK END ===

=== DATA BLOCK ADDRESS 0x52000 ===
  0x52000	88 70 05 40 01 00 00 00 88 70 05 40 01 00 00 00 	0p0@00000p0@0000
  0x52010	8c 70 05 40 01 00 00 00 8c 70 05 40 01 00 00 00 	0p0@00000p0@0000
  0x52020	90 70 05 40 01 00 00 00 90 70 05 40 01 00 00 00 	0p0@00000p0@0000
  0x52030	94 70 05 40 01 00 00 00 94 70 05 40 01 00 00 00 	0p0@00000p0@0000
  0x52040	98 70 05 40 01 00 00 00 90 70 05 40 01 00 00 00 	0p0@00000p0@0000
  0x52050	a8 70 05 40 01 00 00 00 94 70 05 40 01 00 00 00 	0p0@00000p0@0000
  0x52060	b8 70 05 40 01 00 00 00 90 70 05 40 01 00 00 00 	0p0@00000p0@0000
  0x52070	c8 70 05 40 01 00 00 00 94 70 05 40 01 00 00 00 	0p0@00000p0@0000
  0x52080	dc 70 05 40 01 00 00 00 e0 70 05 40 01 00 00 00 	0p0@00000p0@0000
  0x52090	e4 70 05 40 01 00 00 00 e8 70 05 40 01 00 00 00 	0p0@00000p0@0000
  0x520a0	ec 70 05 40 01 00 00 00 f0 70 05 40 01 00 00 00 	0p0@00000p0@0000
  0x520b0	f4 70 05 40 01 00 00 00 f8 70 05 40 01 00 00 00 	0p0@00000p0@0000
  0x520c0	00 71 05 40 01 00 00 00 08 71 05 40 01 00 00 00 	0q0@00000q0@0000
  0x520d0	10 71 05 40 01 00 00 00 20 71 05 40 01 00 00 00 	0q0@0000 q0@0000
  0x520e0	2c 71 05 40 01 00 00 00 38 71 05 40 01 00 00 00 	,q0@00008q0@0000
  0x520f0	44 71 05 40 01 00 00 00 48 71 05 40 01 00 00 00 	Dq0@0000Hq0@0000
  0x52100	4c 71 05 40 01 00 00 00 50 71 05 40 01 00 00 00 	Lq0@0000Pq0@0000
  0x52110	54 71 05 40 01 00 00 00 58 71 05 40 01 00 00 00 	Tq0@0000Xq0@0000
  0x52120	5c 71 05 40 01 00 00 00 60 71 05 40 01 00 00 00 	0q0@0000`q0@0000
  0x52130	64 71 05 40 01 00 00 00 68 71 05 40 01 00 00 00 	dq0@0000hq0@0000
  0x52140	6c 71 05 40 01 00 00 00 70 71 05 40 01 00 00 00 	lq0@0000pq0@0000
  0x52150	78 71 05 40 01 00 00 00 80 71 05 40 01 00 00 00 	xq0@00000q0@0000
  0x52160	8c 71 05 40 01 00 00 00 94 71 05 40 01 00 00 00 	0q0@00000q0@0000
  0x52170	54 71 05 40 01 00 00 00 9c 71 05 40 01 00 00 00 	Tq0@00000q0@0000
  0x52180	a4 71 05 40 01 00 00 00 ac 71 05 40 01 00 00 00 	0q0@00000q0@0000
  0x52190	b8 71 05 40 01 00 00 00 c8 71 05 40 01 00 00 00 	0q0@00000q0@0000
  0x521a0	d0 71 05 40 01 00 00 00 e0 71 05 40 01 00 00 00 	0q0@00000q0@0000
  0x521b0	ec 71 05 40 01 00 00 00 f0 71 05 40 01 00 00 00 	0q0@00000q0@0000
  0x521c0	f8 71 05 40 01 00 00 00 08 72 05 40 01 00 00 00 	0q0@00000r0@0000
  0x521d0	20 72 05 40 01 00 00 00 01 00 00 00 00 00 00 00 	 r0@000000000000
  0x521e0	30 72 05 40 01 00 00 00 38 72 05 40 01 00 00 00 	0r0@00008r0@0000
  0x521f0	40 72 05 40 01 00 00 00 48 72 05 40 01 00 00 00 	@r0@0000Hr0@0000
  0x52200	50 72 05 40 01 00 00 00 58 72 05 40 01 00 00 00 	Pr0@0000Xr0@0000
  0x52210	60 72 05 40 01 00 00 00 68 72 05 40 01 00 00 00 	`r0@0000hr0@0000
  0x52220	78 72 05 40 01 00 00 00 88 72 05 40 01 00 00 00 	xr0@00000r0@0000
  0x52230	98 72 05 40 01 00 00 00 b0 72 05 40 01 00 00 00 	0r0@00000r0@0000
  0x52240	c8 72 05 40 01 00 00 00 d8 72 05 40 01 00 00 00 	0r0@00000r0@0000
  0x52250	f0 72 05 40 01 00 00 00 f8 72 05 40 01 00 00 00 	0r0@00000r0@0000
  0x52260	00 73 05 40 01 00 00 00 08 73 05 40 01 00 00 00 	0s0@00000s0@0000
  0x52270	a8 d1 05 40 01 00 00 00 10 73 05 40 01 00 00 00 	000@00000s0@0000
  0x52280	18 73 05 40 01 00 00 00 20 73 05 40 01 00 00 00 	0s0@0000 s0@0000
  0x52290	28 73 05 40 01 00 00 00 30 73 05 40 01 00 00 00 	(s0@00000s0@0000
  0x522a0	38 73 05 40 01 00 00 00 40 73 05 40 01 00 00 00 	8s0@0000@s0@0000
  0x522b0	60 d1 05 40 01 00 00 00 70 d1 05 40 01 00 00 00 	`00@0000p00@0000
  0x522c0	88 d1 05 40 01 00 00 00 98 d1 05 40 01 00 00 00 	000@0000000@0000
  0x522d0	a8 d1 05 40 01 00 00 00 b0 d1 05 40 01 00 00 00 	000@0000000@0000
  0x522e0	c0 d1 05 40 01 00 00 00 d0 d1 05 40 01 00 00 00 	000@0000000@0000
  0x522f0	e0 d1 05 40 01 00 00 00 f8 d1 05 40 01 00 00 00 	000@0000000@0000
  0x52300	08 d2 05 40 01 00 00 00 20 d2 05 40 01 00 00 00 	000@0000 00@0000
  0x52310	48 73 05 40 01 00 00 00 50 73 05 40 01 00 00 00 	Hs0@0000Ps0@0000
  0x52320	58 73 05 40 01 00 00 00 70 73 05 40 01 00 00 00 	Xs0@0000ps0@0000
  0x52330	98 73 05 40 01 00 00 00 b0 73 05 40 01 00 00 00 	0s0@00000s0@0000
  0x52340	d0 7b 05 40 01 00 00 00 10 7c 05 40 01 00 00 00 	0{0@00000|0@0000
  0x52350	48 7c 05 40 01 00 00 00 80 7c 05 40 01 00 00 00 	H|0@00000|0@0000
  0x52360	d0 7c 05 40 01 00 00 00 30 7d 05 40 01 00 00 00 	0|0@00000}0@0000
  0x52370	80 7d 05 40 01 00 00 00 c0 7d 05 40 01 00 00 00 	0}0@00000}0@0000
  0x52380	00 7e 05 40 01 00 00 00 40 7e 05 40 01 00 00 00 	0~0@0000@~0@0000
  0x52390	80 7e 05 40 01 00 00 00 c0 7e 05 40 01 00 00 00 	0~0@00000~0@0000
  0x523a0	10 7f 05 40 01 00 00 00 70 7f 05 40 01 00 00 00 	000@0000p00@0000
  0x523b0	c0 7f 05 40 01 00 00 00 10 80 05 40 01 00 00 00 	000@0000000@0000
  0x523c0	28 80 05 40 01 00 00 00 40 80 05 40 01 00 00 00 	(00@0000@00@0000
  0x523d0	58 80 05 40 01 00 00 00 70 80 05 40 01 00 00 00 	X00@0000p00@0000
  0x523e0	b8 80 05 40 01 00 00 00 68 82 05 40 01 00 00 00 	000@0000h00@0000
  0x523f0	78 82 05 40 01 00 00 00 88 82 05 40 01 00 00 00 	x00@0000000@0000
  0x52400	98 82 05 40 01 00 00 00 00 00 00 00 00 00 00 00 	000@000000000000
  0x52410	01 00 00 00 00 00 00 00 80 8d 05 40 01 00 00 00 	00000000000@0000
  0x52420	02 00 00 00 00 00 00 00 88 8d 05 40 01 00 00 00 	00000000000@0000
  0x52430	03 00 00 00 00 00 00 00 90 8d 05 40 01 00 00 00 	00000000000@0000
  0x52440	04 00 00 00 00 00 00 00 98 8d 05 40 01 00 00 00 	00000000000@0000
  0x52450	05 00 00 00 00 00 00 00 a8 8d 05 40 01 00 00 00 	00000000000@0000
  0x52460	06 00 00 00 00 00 00 00 b0 8d 05 40 01 00 00 00 	00000000000@0000
  0x52470	07 00 00 00 00 00 00 00 b8 8d 05 40 01 00 00 00 	00000000000@0000
  0x52480	08 00 00 00 00 00 00 00 c0 8d 05 40 01 00 00 00 	00000000000@0000
  0x52490	09 00 00 00 00 00 00 00 c8 8d 05 40 01 00 00 00 	00000000000@0000
  0x524a0	0a 00 00 00 00 00 00 00 d0 8d 05 40 01 00 00 00 	00000000000@0000
  0x524b0	0b 00 00 00 00 00 00 00 d8 8d 05 40 01 00 00 00 	00000000000@0000
  0x524c0	0c 00 00 00 00 00 00 00 e0 8d 05 40 01 00 00 00 	00000000000@0000
  0x524d0	0d 00 00 00 00 00 00 00 e8 8d 05 40 01 00 00 00 	00000000000@0000
  0x524e0	0e 00 00 00 00 00 00 00 f0 8d 05 40 01 00 00 00 	00000000000@0000
  0x524f0	0f 00 00 00 00 00 00 00 f8 8d 05 40 01 00 00 00 	00000000000@0000
  0x52500	10 00 00 00 00 00 00 00 00 8e 05 40 01 00 00 00 	00000000000@0000
  0x52510	11 00 00 00 00 00 00 00 08 8e 05 40 01 00 00 00 	00000000000@0000
  0x52520	12 00 00 00 00 00 00 00 10 8e 05 40 01 00 00 00 	00000000000@0000
  0x52530	13 00 00 00 00 00 00 00 18 8e 05 40 01 00 00 00 	00000000000@0000
  0x52540	14 00 00 00 00 00 00 00 20 8e 05 40 01 00 00 00 	00000000 00@0000
  0x52550	15 00 00 00 00 00 00 00 28 8e 05 40 01 00 00 00 	00000000(00@0000
  0x52560	16 00 00 00 00 00 00 00 30 8e 05 40 01 00 00 00 	00000000000@0000
  0x52570	18 00 00 00 00 00 00 00 38 8e 05 40 01 00 00 00 	00000000800@0000
  0x52580	19 00 00 00 00 00 00 00 40 8e 05 40 01 00 00 00 	00000000@00@0000
  0x52590	1a 00 00 00 00 00 00 00 48 8e 05 40 01 00 00 00 	00000000H00@0000
  0x525a0	1b 00 00 00 00 00 00 00 50 8e 05 40 01 00 00 00 	00000000P00@0000
  0x525b0	1c 00 00 00 00 00 00 00 58 8e 05 40 01 00 00 00 	00000000X00@0000
  0x525c0	1d 00 00 00 00 00 00 00 60 8e 05 40 01 00 00 00 	00000000`00@0000
  0x525d0	1e 00 00 00 00 00 00 00 68 8e 05 40 01 00 00 00 	00000000h00@0000
  0x525e0	1f 00 00 00 00 00 00 00 70 8e 05 40 01 00 00 00 	00000000p00@0000
  0x525f0	20 00 00 00 00 00 00 00 78 8e 05 40 01 00 00 00 	 0000000x00@0000
  0x52600	21 00 00 00 00 00 00 00 80 8e 05 40 01 00 00 00 	!0000000000@0000
  0x52610	22 00 00 00 00 00 00 00 78 8d 05 40 01 00 00 00 	"0000000x00@0000
  0x52620	23 00 00 00 00 00 00 00 88 8e 05 40 01 00 00 00 	#0000000000@0000
  0x52630	24 00 00 00 00 00 00 00 90 8e 05 40 01 00 00 00 	$0000000000@0000
  0x52640	25 00 00 00 00 00 00 00 98 8e 05 40 01 00 00 00 	%0000000000@0000
  0x52650	26 00 00 00 00 00 00 00 a0 8e 05 40 01 00 00 00 	&0000000000@0000
  0x52660	27 00 00 00 00 00 00 00 a8 8e 05 40 01 00 00 00 	'0000000000@0000
  0x52670	29 00 00 00 00 00 00 00 b0 8e 05 40 01 00 00 00 	)0000000000@0000
  0x52680	2a 00 00 00 00 00 00 00 b8 8e 05 40 01 00 00 00 	*0000000000@0000
  0x52690	2b 00 00 00 00 00 00 00 c0 8e 05 40 01 00 00 00 	+0000000000@0000
  0x526a0	2c 00 00 00 00 00 00 00 c8 8e 05 40 01 00 00 00 	,0000000000@0000
  0x526b0	2d 00 00 00 00 00 00 00 d0 8e 05 40 01 00 00 00 	-0000000000@0000
  0x526c0	2f 00 00 00 00 00 00 00 d8 8e 05 40 01 00 00 00 	/0000000000@0000
  0x526d0	36 00 00 00 00 00 00 00 e0 8e 05 40 01 00 00 00 	60000000000@0000
  0x526e0	37 00 00 00 00 00 00 00 e8 8e 05 40 01 00 00 00 	70000000000@0000
  0x526f0	38 00 00 00 00 00 00 00 f0 8e 05 40 01 00 00 00 	80000000000@0000
  0x52700	39 00 00 00 00 00 00 00 f8 8e 05 40 01 00 00 00 	90000000000@0000
  0x52710	3e 00 00 00 00 00 00 00 00 8f 05 40 01 00 00 00 	>0000000000@0000
  0x52720	3f 00 00 00 00 00 00 00 08 8f 05 40 01 00 00 00 	?0000000000@0000
  0x52730	40 00 00 00 00 00 00 00 10 8f 05 40 01 00 00 00 	@0000000000@0000
  0x52740	41 00 00 00 00 00 00 00 18 8f 05 40 01 00 00 00 	A0000000000@0000
  0x52750	43 00 00 00 00 00 00 00 20 8f 05 40 01 00 00 00 	C0000000 00@0000
  0x52760	44 00 00 00 00 00 00 00 28 8f 05 40 01 00 00 00 	D0000000(00@0000
  0x52770	46 00 00 00 00 00 00 00 30 8f 05 40 01 00 00 00 	F0000000000@0000
  0x52780	47 00 00 00 00 00 00 00 38 8f 05 40 01 00 00 00 	G0000000800@0000
  0x52790	49 00 00 00 00 00 00 00 40 8f 05 40 01 00 00 00 	I0000000@00@0000
  0x527a0	4a 00 00 00 00 00 00 00 48 8f 05 40 01 00 00 00 	J0000000H00@0000
  0x527b0	4b 00 00 00 00 00 00 00 50 8f 05 40 01 00 00 00 	K0000000P00@0000
  0x527c0	4e 00 00 00 00 00 00 00 58 8f 05 40 01 00 00 00 	N0000000X00@0000
  0x527d0	4f 00 00 00 00 00 00 00 60 8f 05 40 01 00 00 00 	O0000000`00@0000
  0x527e0	50 00 00 00 00 00 00 00 68 8f 05 40 01 00 00 00 	P0000000h00@0000
  0x527f0	56 00 00 00 00 00 00 00 70 8f 05 40 01 00 00 00 	V0000000p00@0000
  0x52800	57 00 00 00 00 00 00 00 78 8f 05 40 01 00 00 00 	W0000000x00@0000
  0x52810	5a 00 00 00 00 00 00 00 80 8f 05 40 01 00 00 00 	Z0000000000@0000
  0x52820	65 00 00 00 00 00 00 00 88 8f 05 40 01 00 00 00 	e0000000000@0000
  0x52830	7f 00 00 00 00 00 00 00 5c e4 05 40 01 00 00 00 	00000000000@0000
  0x52840	01 04 00 00 00 00 00 00 90 8f 05 40 01 00 00 00 	00000000000@0000
  0x52850	02 04 00 00 00 00 00 00 a0 8f 05 40 01 00 00 00 	00000000000@0000
  0x52860	03 04 00 00 00 00 00 00 b0 8f 05 40 01 00 00 00 	00000000000@0000
  0x52870	04 04 00 00 00 00 00 00 98 82 05 40 01 00 00 00 	00000000000@0000
  0x52880	05 04 00 00 00 00 00 00 c0 8f 05 40 01 00 00 00 	00000000000@0000
  0x52890	06 04 00 00 00 00 00 00 d0 8f 05 40 01 00 00 00 	00000000000@0000
  0x528a0	07 04 00 00 00 00 00 00 e0 8f 05 40 01 00 00 00 	00000000000@0000
  0x528b0	08 04 00 00 00 00 00 00 f0 8f 05 40 01 00 00 00 	00000000000@0000
  0x528c0	09 04 00 00 00 00 00 00 b0 73 05 40 01 00 00 00 	000000000s0@0000
  0x528d0	0b 04 00 00 00 00 00 00 00 90 05 40 01 00 00 00 	00000000000@0000
  0x528e0	0c 04 00 00 00 00 00 00 10 90 05 40 01 00 00 00 	00000000000@0000
  0x528f0	0d 04 00 00 00 00 00 00 20 90 05 40 01 00 00 00 	00000000 00@0000
  0x52900	0e 04 00 00 00 00 00 00 30 90 05 40 01 00 00 00 	00000000000@0000
  0x52910	0f 04 00 00 00 00 00 00 40 90 05 40 01 00 00 00 	00000000@00@0000
  0x52920	10 04 00 00 00 00 00 00 50 90 05 40 01 00 00 00 	00000000P00@0000
  0x52930	11 04 00 00 00 00 00 00 68 82 05 40 01 00 00 00 	00000000h00@0000
  0x52940	12 04 00 00 00 00 00 00 88 82 05 40 01 00 00 00 	00000000000@0000
  0x52950	13 04 00 00 00 00 00 00 60 90 05 40 01 00 00 00 	00000000`00@0000
  0x52960	14 04 00 00 00 00 00 00 70 90 05 40 01 00 00 00 	00000000p00@0000
  0x52970	15 04 00 00 00 00 00 00 80 90 05 40 01 00 00 00 	00000000000@0000
  0x52980	16 04 00 00 00 00 00 00 90 90 05 40 01 00 00 00 	00000000000@0000
  0x52990	18 04 00 00 00 00 00 00 a0 90 05 40 01 00 00 00 	00000000000@0000
  0x529a0	19 04 00 00 00 00 00 00 b0 90 05 40 01 00 00 00 	00000000000@0000
  0x529b0	1a 04 00 00 00 00 00 00 c0 90 05 40 01 00 00 00 	00000000000@0000
  0x529c0	1b 04 00 00 00 00 00 00 d0 90 05 40 01 00 00 00 	00000000000@0000
  0x529d0	1c 04 00 00 00 00 00 00 e0 90 05 40 01 00 00 00 	00000000000@0000
  0x529e0	1d 04 00 00 00 00 00 00 f0 90 05 40 01 00 00 00 	00000000000@0000
  0x529f0	1e 04 00 00 00 00 00 00 00 91 05 40 01 00 00 00 	00000000000@0000
  0x52a00	1f 04 00 00 00 00 00 00 10 91 05 40 01 00 00 00 	00000000000@0000
  0x52a10	20 04 00 00 00 00 00 00 20 91 05 40 01 00 00 00 	 0000000 00@0000
  0x52a20	21 04 00 00 00 00 00 00 30 91 05 40 01 00 00 00 	!0000000000@0000
  0x52a30	22 04 00 00 00 00 00 00 40 91 05 40 01 00 00 00 	"0000000@00@0000
  0x52a40	23 04 00 00 00 00 00 00 50 91 05 40 01 00 00 00 	#0000000P00@0000
  0x52a50	24 04 00 00 00 00 00 00 60 91 05 40 01 00 00 00 	$0000000`00@0000
  0x52a60	25 04 00 00 00 00 00 00 70 91 05 40 01 00 00 00 	%0000000p00@0000
  0x52a70	26 04 00 00 00 00 00 00 80 91 05 40 01 00 00 00 	&0000000000@0000
  0x52a80	27 04 00 00 00 00 00 00 90 91 05 40 01 00 00 00 	'0000000000@0000
  0x52a90	29 04 00 00 00 00 00 00 a0 91 05 40 01 00 00 00 	)0000000000@0000
  0x52aa0	2a 04 00 00 00 00 00 00 b0 91 05 40 01 00 00 00 	*0000000000@0000
  0x52ab0	2b 04 00 00 00 00 00 00 c0 91 05 40 01 00 00 00 	+0000000000@0000
  0x52ac0	2c 04 00 00 00 00 00 00 d0 91 05 40 01 00 00 00 	,0000000000@0000
  0x52ad0	2d 04 00 00 00 00 00 00 e8 91 05 40 01 00 00 00 	-0000000000@0000
  0x52ae0	2f 04 00 00 00 00 00 00 f8 91 05 40 01 00 00 00 	/0000000000@0000
  0x52af0	32 04 00 00 00 00 00 00 08 92 05 40 01 00 00 00 	20000000000@0000
  0x52b00	34 04 00 00 00 00 00 00 18 92 05 40 01 00 00 00 	40000000000@0000
  0x52b10	35 04 00 00 00 00 00 00 28 92 05 40 01 00 00 00 	50000000(00@0000
  0x52b20	36 04 00 00 00 00 00 00 38 92 05 40 01 00 00 00 	60000000800@0000
  0x52b30	37 04 00 00 00 00 00 00 48 92 05 40 01 00 00 00 	70000000H00@0000
  0x52b40	38 04 00 00 00 00 00 00 58 92 05 40 01 00 00 00 	80000000X00@0000
  0x52b50	39 04 00 00 00 00 00 00 68 92 05 40 01 00 00 00 	90000000h00@0000
  0x52b60	3a 04 00 00 00 00 00 00 78 92 05 40 01 00 00 00 	:0000000x00@0000
  0x52b70	3b 04 00 00 00 00 00 00 88 92 05 40 01 00 00 00 	;0000000000@0000
  0x52b80	3e 04 00 00 00 00 00 00 98 92 05 40 01 00 00 00 	>0000000000@0000
  0x52b90	3f 04 00 00 00 00 00 00 a8 92 05 40 01 00 00 00 	?0000000000@0000
  0x52ba0	40 04 00 00 00 00 00 00 b8 92 05 40 01 00 00 00 	@0000000000@0000
  0x52bb0	41 04 00 00 00 00 00 00 c8 92 05 40 01 00 00 00 	A0000000000@0000
  0x52bc0	43 04 00 00 00 00 00 00 d8 92 05 40 01 00 00 00 	C0000000000@0000
  0x52bd0	44 04 00 00 00 00 00 00 f0 92 05 40 01 00 00 00 	D0000000000@0000
  0x52be0	45 04 00 00 00 00 00 00 00 93 05 40 01 00 00 00 	E0000000000@0000
  0x52bf0	46 04 00 00 00 00 00 00 10 93 05 40 01 00 00 00 	F0000000000@0000
  0x52c00	47 04 00 00 00 00 00 00 20 93 05 40 01 00 00 00 	G0000000 00@0000
  0x52c10	49 04 00 00 00 00 00 00 30 93 05 40 01 00 00 00 	I0000000000@0000
  0x52c20	4a 04 00 00 00 00 00 00 40 93 05 40 01 00 00 00 	J0000000@00@0000
  0x52c30	4b 04 00 00 00 00 00 00 50 93 05 40 01 00 00 00 	K0000000P00@0000
  0x52c40	4c 04 00 00 00 00 00 00 60 93 05 40 01 00 00 00 	L0000000`00@0000
  0x52c50	4e 04 00 00 00 00 00 00 70 93 05 40 01 00 00 00 	N0000000p00@0000
  0x52c60	4f 04 00 00 00 00 00 00 80 93 05 40 01 00 00 00 	O0000000000@0000
  0x52c70	50 04 00 00 00 00 00 00 90 93 05 40 01 00 00 00 	P0000000000@0000
  0x52c80	52 04 00 00 00 00 00 00 a0 93 05 40 01 00 00 00 	R0000000000@0000
  0x52c90	56 04 00 00 00 00 00 00 b0 93 05 40 01 00 00 00 	V0000000000@0000
  0x52ca0	57 04 00 00 00 00 00 00 c0 93 05 40 01 00 00 00 	W0000000000@0000
  0x52cb0	5a 04 00 00 00 00 00 00 d0 93 05 40 01 00 00 00 	Z0000000000@0000
  0x52cc0	65 04 00 00 00 00 00 00 e0 93 05 40 01 00 00 00 	e0000000000@0000
  0x52cd0	6b 04 00 00 00 00 00 00 f0 93 05 40 01 00 00 00 	k0000000000@0000
  0x52ce0	6c 04 00 00 00 00 00 00 00 94 05 40 01 00 00 00 	l0000000000@0000
  0x52cf0	81 04 00 00 00 00 00 00 10 94 05 40 01 00 00 00 	00000000000@0000
  0x52d00	01 08 00 00 00 00 00 00 20 94 05 40 01 00 00 00 	00000000 00@0000
  0x52d10	04 08 00 00 00 00 00 00 78 82 05 40 01 00 00 00 	00000000x00@0000
  0x52d20	07 08 00 00 00 00 00 00 30 94 05 40 01 00 00 00 	00000000000@0000
  0x52d30	09 08 00 00 00 00 00 00 40 94 05 40 01 00 00 00 	00000000@00@0000
  0x52d40	0a 08 00 00 00 00 00 00 50 94 05 40 01 00 00 00 	00000000P00@0000
  0x52d50	0c 08 00 00 00 00 00 00 60 94 05 40 01 00 00 00 	00000000`00@0000
  0x52d60	10 08 00 00 00 00 00 00 70 94 05 40 01 00 00 00 	00000000p00@0000
  0x52d70	13 08 00 00 00 00 00 00 80 94 05 40 01 00 00 00 	00000000000@0000
  0x52d80	14 08 00 00 00 00 00 00 90 94 05 40 01 00 00 00 	00000000000@0000
  0x52d90	16 08 00 00 00 00 00 00 a0 94 05 40 01 00 00 00 	00000000000@0000
  0x52da0	1a 08 00 00 00 00 00 00 b0 94 05 40 01 00 00 00 	00000000000@0000
  0x52db0	1d 08 00 00 00 00 00 00 c8 94 05 40 01 00 00 00 	00000000000@0000
  0x52dc0	2c 08 00 00 00 00 00 00 d8 94 05 40 01 00 00 00 	,0000000000@0000
  0x52dd0	3b 08 00 00 00 00 00 00 f0 94 05 40 01 00 00 00 	;0000000000@0000
  0x52de0	3e 08 00 00 00 00 00 00 00 95 05 40 01 00 00 00 	>0000000000@0000
  0x52df0	43 08 00 00 00 00 00 00 10 95 05 40 01 00 00 00 	C0000000000@0000
  0x52e00	6b 08 00 00 00 00 00 00 28 95 05 40 01 00 00 00 	k0000000(00@0000
  0x52e10	01 0c 00 00 00 00 00 00 38 95 05 40 01 00 00 00 	00000000800@0000
  0x52e20	04 0c 00 00 00 00 00 00 48 95 05 40 01 00 00 00 	00000000H00@0000
  0x52e30	07 0c 00 00 00 00 00 00 58 95 05 40 01 00 00 00 	00000000X00@0000
  0x52e40	09 0c 00 00 00 00 00 00 68 95 05 40 01 00 00 00 	00000000h00@0000
  0x52e50	0a 0c 00 00 00 00 00 00 78 95 05 40 01 00 00 00 	00000000x00@0000
  0x52e60	0c 0c 00 00 00 00 00 00 88 95 05 40 01 00 00 00 	00000000000@0000
  0x52e70	1a 0c 00 00 00 00 00 00 98 95 05 40 01 00 00 00 	00000000000@0000
  0x52e80	3b 0c 00 00 00 00 00 00 b0 95 05 40 01 00 00 00 	;0000000000@0000
  0x52e90	6b 0c 00 00 00 00 00 00 c0 95 05 40 01 00 00 00 	k0000000000@0000
  0x52ea0	01 10 00 00 00 00 00 00 d0 95 05 40 01 00 00 00 	00000000000@0000
  0x52eb0	04 10 00 00 00 00 00 00 e0 95 05 40 01 00 00 00 	00000000000@0000
  0x52ec0	07 10 00 00 00 00 00 00 f0 95 05 40 01 00 00 00 	00000000000@0000
  0x52ed0	09 10 00 00 00 00 00 00 00 96 05 40 01 00 00 00 	00000000000@0000
  0x52ee0	0a 10 00 00 00 00 00 00 10 96 05 40 01 00 00 00 	00000000000@0000
  0x52ef0	0c 10 00 00 00 00 00 00 20 96 05 40 01 00 00 00 	00000000 00@0000
  0x52f00	1a 10 00 00 00 00 00 00 30 96 05 40 01 00 00 00 	00000000000@0000
  0x52f10	3b 10 00 00 00 00 00 00 40 96 05 40 01 00 00 00 	;0000000@00@0000
  0x52f20	01 14 00 00 00 00 00 00 50 96 05 40 01 00 00 00 	00000000P00@0000
  0x52f30	04 14 00 00 00 00 00 00 60 96 05 40 01 00 00 00 	00000000`00@0000
  0x52f40	07 14 00 00 00 00 00 00 70 96 05 40 01 00 00 00 	00000000p00@0000
  0x52f50	09 14 00 00 00 00 00 00 80 96 05 40 01 00 00 00 	00000000000@0000
  0x52f60	0a 14 00 00 00 00 00 00 90 96 05 40 01 00 00 00 	00000000000@0000
  0x52f70	0c 14 00 00 00 00 00 00 a0 96 05 40 01 00 00 00 	00000000000@0000
  0x52f80	1a 14 00 00 00 00 00 00 b0 96 05 40 01 00 00 00 	00000000000@0000
  0x52f90	3b 14 00 00 00 00 00 00 c8 96 05 40 01 00 00 00 	;0000000000@0000
  0x52fa0	01 18 00 00 00 00 00 00 d8 96 05 40 01 00 00 00 	00000000000@0000
  0x52fb0	09 18 00 00 00 00 00 00 e8 96 05 40 01 00 00 00 	00000000000@0000
  0x52fc0	0a 18 00 00 00 00 00 00 f8 96 05 40 01 00 00 00 	00000000000@0000
  0x52fd0	0c 18 00 00 00 00 00 00 08 97 05 40 01 00 00 00 	00000000000@0000
  0x52fe0	1a 18 00 00 00 00 00 00 18 97 05 40 01 00 00 00 	00000000000@0000
  0x52ff0	3b 18 00 00 00 00 00 00 30 97 05 40 01 00 00 00 	;0000000000@0000
  0x53000	01 1c 00 00 00 00 00 00 40 97 05 40 01 00 00 00 	00000000@00@0000
  0x53010	09 1c 00 00 00 00 00 00 50 97 05 40 01 00 00 00 	00000000P00@0000
  0x53020	0a 1c 00 00 00 00 00 00 60 97 05 40 01 00 00 00 	00000000`00@0000
  0x53030	1a 1c 00 00 00 00 00 00 70 97 05 40 01 00 00 00 	00000000p00@0000
  0x53040	3b 1c 00 00 00 00 00 00 88 97 05 40 01 00 00 00 	;0000000000@0000
  0x53050	01 20 00 00 00 00 00 00 98 97 05 40 01 00 00 00 	0 000000000@0000
  0x53060	09 20 00 00 00 00 00 00 a8 97 05 40 01 00 00 00 	0 000000000@0000
  0x53070	0a 20 00 00 00 00 00 00 b8 97 05 40 01 00 00 00 	0 000000000@0000
  0x53080	3b 20 00 00 00 00 00 00 c8 97 05 40 01 00 00 00 	; 000000000@0000
  0x53090	01 24 00 00 00 00 00 00 d8 97 05 40 01 00 00 00 	0$000000000@0000
  0x530a0	09 24 00 00 00 00 00 00 e8 97 05 40 01 00 00 00 	0$000000000@0000
  0x530b0	0a 24 00 00 00 00 00 00 f8 97 05 40 01 00 00 00 	0$000000000@0000
  0x530c0	3b 24 00 00 00 00 00 00 08 98 05 40 01 00 00 00 	;$000000000@0000
  0x530d0	01 28 00 00 00 00 00 00 18 98 05 40 01 00 00 00 	0(000000000@0000
  0x530e0	09 28 00 00 00 00 00 00 28 98 05 40 01 00 00 00 	0(000000(00@0000
  0x530f0	0a 28 00 00 00 00 00 00 38 98 05 40 01 00 00 00 	0(000000800@0000
  0x53100	01 2c 00 00 00 00 00 00 48 98 05 40 01 00 00 00 	0,000000H00@0000
  0x53110	09 2c 00 00 00 00 00 00 58 98 05 40 01 00 00 00 	0,000000X00@0000
  0x53120	0a 2c 00 00 00 00 00 00 68 98 05 40 01 00 00 00 	0,000000h00@0000
  0x53130	01 30 00 00 00 00 00 00 78 98 05 40 01 00 00 00 	00000000x00@0000
  0x53140	09 30 00 00 00 00 00 00 88 98 05 40 01 00 00 00 	00000000000@0000
  0x53150	0a 30 00 00 00 00 00 00 98 98 05 40 01 00 00 00 	00000000000@0000
  0x53160	01 34 00 00 00 00 00 00 a8 98 05 40 01 00 00 00 	04000000000@0000
  0x53170	09 34 00 00 00 00 00 00 b8 98 05 40 01 00 00 00 	04000000000@0000
  0x53180	0a 34 00 00 00 00 00 00 c8 98 05 40 01 00 00 00 	04000000000@0000
  0x53190	01 38 00 00 00 00 00 00 d8 98 05 40 01 00 00 00 	08000000000@0000
  0x531a0	0a 38 00 00 00 00 00 00 e8 98 05 40 01 00 00 00 	08000000000@0000
  0x531b0	01 3c 00 00 00 00 00 00 f8 98 05 40 01 00 00 00 	0<000000000@0000
  0x531c0	0a 3c 00 00 00 00 00 00 08 99 05 40 01 00 00 00 	0<000000000@0000
  0x531d0	01 40 00 00 00 00 00 00 18 99 05 40 01 00 00 00 	0@000000000@0000
  0x531e0	0a 40 00 00 00 00 00 00 28 99 05 40 01 00 00 00 	0@000000(00@0000
  0x531f0	0a 44 00 00 00 00 00 00 38 99 05 40 01 00 00 00 	0D000000800@0000
  0x53200	0a 48 00 00 00 00 00 00 48 99 05 40 01 00 00 00 	0H000000H00@0000
  0x53210	0a 4c 00 00 00 00 00 00 58 99 05 40 01 00 00 00 	0L000000X00@0000
  0x53220	0a 50 00 00 00 00 00 00 68 99 05 40 01 00 00 00 	0P000000h00@0000
  0x53230	04 7c 00 00 00 00 00 00 78 99 05 40 01 00 00 00 	0|000000x00@0000
  0x53240	1a 7c 00 00 00 00 00 00 88 99 05 40 01 00 00 00 	0|000000000@0000
  0x53250	5c e4 05 40 01 00 00 00 42 00 00 00 00 00 00 00 	000@0000B0000000
  0x53260	e0 8e 05 40 01 00 00 00 2c 00 00 00 00 00 00 00 	000@0000,0000000
  0x53270	90 99 05 40 01 00 00 00 71 00 00 00 00 00 00 00 	000@0000q0000000
  0x53280	80 8d 05 40 01 00 00 00 00 00 00 00 00 00 00 00 	000@000000000000
  0x53290	a0 99 05 40 01 00 00 00 d8 00 00 00 00 00 00 00 	000@000000000000
  0x532a0	b0 99 05 40 01 00 00 00 da 00 00 00 00 00 00 00 	000@000000000000
  0x532b0	c0 99 05 40 01 00 00 00 b1 00 00 00 00 00 00 00 	000@000000000000
  0x532c0	d0 99 05 40 01 00 00 00 a0 00 00 00 00 00 00 00 	000@000000000000
  0x532d0	e0 99 05 40 01 00 00 00 8f 00 00 00 00 00 00 00 	000@000000000000
  0x532e0	f0 99 05 40 01 00 00 00 cf 00 00 00 00 00 00 00 	000@000000000000
  0x532f0	00 9a 05 40 01 00 00 00 d5 00 00 00 00 00 00 00 	000@000000000000
  0x53300	10 9a 05 40 01 00 00 00 d2 00 00 00 00 00 00 00 	000@000000000000
  0x53310	20 9a 05 40 01 00 00 00 a9 00 00 00 00 00 00 00 	 00@000000000000
  0x53320	30 9a 05 40 01 00 00 00 b9 00 00 00 00 00 00 00 	000@000000000000
  0x53330	40 9a 05 40 01 00 00 00 c4 00 00 00 00 00 00 00 	@00@000000000000
  0x53340	50 9a 05 40 01 00 00 00 dc 00 00 00 00 00 00 00 	P00@000000000000
  0x53350	60 9a 05 40 01 00 00 00 43 00 00 00 00 00 00 00 	`00@0000C0000000
  0x53360	70 9a 05 40 01 00 00 00 cc 00 00 00 00 00 00 00 	p00@000000000000
  0x53370	80 9a 05 40 01 00 00 00 bf 00 00 00 00 00 00 00 	000@000000000000
  0x53380	90 9a 05 40 01 00 00 00 c8 00 00 00 00 00 00 00 	000@000000000000
  0x53390	c8 8e 05 40 01 00 00 00 29 00 00 00 00 00 00 00 	000@0000)0000000
  0x533a0	a0 9a 05 40 01 00 00 00 9b 00 00 00 00 00 00 00 	000@000000000000
  0x533b0	b8 9a 05 40 01 00 00 00 6b 00 00 00 00 00 00 00 	000@0000k0000000
  0x533c0	88 8e 05 40 01 00 00 00 21 00 00 00 00 00 00 00 	000@0000!0000000
  0x533d0	d0 9a 05 40 01 00 00 00 63 00 00 00 00 00 00 00 	000@0000c0000000
  0x533e0	88 8d 05 40 01 00 00 00 01 00 00 00 00 00 00 00 	000@000000000000
  0x533f0	e0 9a 05 40 01 00 00 00 44 00 00 00 00 00 00 00 	000@0000D0000000
  0x53400	f0 9a 05 40 01 00 00 00 7d 00 00 00 00 00 00 00 	000@0000}0000000
  0x53410	00 9b 05 40 01 00 00 00 b7 00 00 00 00 00 00 00 	000@000000000000
  0x53420	90 8d 05 40 01 00 00 00 02 00 00 00 00 00 00 00 	000@000000000000
  0x53430	18 9b 05 40 01 00 00 00 45 00 00 00 00 00 00 00 	000@0000E0000000
  0x53440	a8 8d 05 40 01 00 00 00 04 00 00 00 00 00 00 00 	000@000000000000
  0x53450	28 9b 05 40 01 00 00 00 47 00 00 00 00 00 00 00 	(00@0000G0000000
  0x53460	38 9b 05 40 01 00 00 00 87 00 00 00 00 00 00 00 	800@000000000000
  0x53470	b0 8d 05 40 01 00 00 00 05 00 00 00 00 00 00 00 	000@000000000000
  0x53480	48 9b 05 40 01 00 00 00 48 00 00 00 00 00 00 00 	H00@0000H0000000
  0x53490	b8 8d 05 40 01 00 00 00 06 00 00 00 00 00 00 00 	000@000000000000
  0x534a0	58 9b 05 40 01 00 00 00 a2 00 00 00 00 00 00 00 	X00@000000000000
  0x534b0	68 9b 05 40 01 00 00 00 91 00 00 00 00 00 00 00 	h00@000000000000
  0x534c0	78 9b 05 40 01 00 00 00 49 00 00 00 00 00 00 00 	x00@0000I0000000
  0x534d0	88 9b 05 40 01 00 00 00 b3 00 00 00 00 00 00 00 	000@000000000000
  0x534e0	98 9b 05 40 01 00 00 00 ab 00 00 00 00 00 00 00 	000@000000000000
  0x534f0	88 8f 05 40 01 00 00 00 41 00 00 00 00 00 00 00 	000@0000A0000000
  0x53500	a8 9b 05 40 01 00 00 00 8b 00 00 00 00 00 00 00 	000@000000000000
  0x53510	c0 8d 05 40 01 00 00 00 07 00 00 00 00 00 00 00 	000@000000000000
  0x53520	b8 9b 05 40 01 00 00 00 4a 00 00 00 00 00 00 00 	000@0000J0000000
  0x53530	c8 8d 05 40 01 00 00 00 08 00 00 00 00 00 00 00 	000@000000000000
  0x53540	c8 9b 05 40 01 00 00 00 a3 00 00 00 00 00 00 00 	000@000000000000
  0x53550	d8 9b 05 40 01 00 00 00 cd 00 00 00 00 00 00 00 	000@000000000000
  0x53560	e8 9b 05 40 01 00 00 00 ac 00 00 00 00 00 00 00 	000@000000000000
  0x53570	f8 9b 05 40 01 00 00 00 c9 00 00 00 00 00 00 00 	000@000000000000
  0x53580	08 9c 05 40 01 00 00 00 92 00 00 00 00 00 00 00 	000@000000000000
  0x53590	18 9c 05 40 01 00 00 00 ba 00 00 00 00 00 00 00 	000@000000000000
  0x535a0	28 9c 05 40 01 00 00 00 c5 00 00 00 00 00 00 00 	(00@000000000000
  0x535b0	38 9c 05 40 01 00 00 00 b4 00 00 00 00 00 00 00 	800@000000000000
  0x535c0	48 9c 05 40 01 00 00 00 d6 00 00 00 00 00 00 00 	H00@000000000000
  0x535d0	58 9c 05 40 01 00 00 00 d0 00 00 00 00 00 00 00 	X00@000000000000
  0x535e0	68 9c 05 40 01 00 00 00 4b 00 00 00 00 00 00 00 	h00@0000K0000000
  0x535f0	78 9c 05 40 01 00 00 00 c0 00 00 00 00 00 00 00 	x00@000000000000
  0x53600	88 9c 05 40 01 00 00 00 d3 00 00 00 00 00 00 00 	000@000000000000
  0x53610	d0 8d 05 40 01 00 00 00 09 00 00 00 00 00 00 00 	000@000000000000
  0x53620	98 9c 05 40 01 00 00 00 d1 00 00 00 00 00 00 00 	000@000000000000
  0x53630	a8 9c 05 40 01 00 00 00 dd 00 00 00 00 00 00 00 	000@000000000000
  0x53640	b8 9c 05 40 01 00 00 00 d7 00 00 00 00 00 00 00 	000@000000000000
  0x53650	c8 9c 05 40 01 00 00 00 ca 00 00 00 00 00 00 00 	000@000000000000
  0x53660	d8 9c 05 40 01 00 00 00 b5 00 00 00 00 00 00 00 	000@000000000000
  0x53670	e8 9c 05 40 01 00 00 00 c1 00 00 00 00 00 00 00 	000@000000000000
  0x53680	f8 9c 05 40 01 00 00 00 d4 00 00 00 00 00 00 00 	000@000000000000
  0x53690	08 9d 05 40 01 00 00 00 a4 00 00 00 00 00 00 00 	000@000000000000
  0x536a0	18 9d 05 40 01 00 00 00 ad 00 00 00 00 00 00 00 	000@000000000000
  0x536b0	28 9d 05 40 01 00 00 00 df 00 00 00 00 00 00 00 	(00@000000000000
  0x536c0	38 9d 05 40 01 00 00 00 93 00 00 00 00 00 00 00 	800@000000000000
  0x536d0	48 9d 05 40 01 00 00 00 e0 00 00 00 00 00 00 00 	H00@000000000000
  0x536e0	58 9d 05 40 01 00 00 00 bb 00 00 00 00 00 00 00 	X00@000000000000
  0x536f0	68 9d 05 40 01 00 00 00 ce 00 00 00 00 00 00 00 	h00@000000000000
  0x53700	78 9d 05 40 01 00 00 00 e1 00 00 00 00 00 00 00 	x00@000000000000
  0x53710	88 9d 05 40 01 00 00 00 db 00 00 00 00 00 00 00 	000@000000000000
  0x53720	98 9d 05 40 01 00 00 00 de 00 00 00 00 00 00 00 	000@000000000000
  0x53730	a8 9d 05 40 01 00 00 00 d9 00 00 00 00 00 00 00 	000@000000000000
  0x53740	b8 9d 05 40 01 00 00 00 c6 00 00 00 00 00 00 00 	000@000000000000
  0x53750	98 8e 05 40 01 00 00 00 23 00 00 00 00 00 00 00 	000@0000#0000000
  0x53760	c8 9d 05 40 01 00 00 00 65 00 00 00 00 00 00 00 	000@0000e0000000
  0x53770	d0 8e 05 40 01 00 00 00 2a 00 00 00 00 00 00 00 	000@0000*0000000
  0x53780	d8 9d 05 40 01 00 00 00 6c 00 00 00 00 00 00 00 	000@0000l0000000
  0x53790	b0 8e 05 40 01 00 00 00 26 00 00 00 00 00 00 00 	000@0000&0000000
  0x537a0	e8 9d 05 40 01 00 00 00 68 00 00 00 00 00 00 00 	000@0000h0000000
  0x537b0	d8 8d 05 40 01 00 00 00 0a 00 00 00 00 00 00 00 	000@000000000000
  0x537c0	f8 9d 05 40 01 00 00 00 4c 00 00 00 00 00 00 00 	000@0000L0000000
  0x537d0	f0 8e 05 40 01 00 00 00 2e 00 00 00 00 00 00 00 	000@0000.0000000
  0x537e0	08 9e 05 40 01 00 00 00 73 00 00 00 00 00 00 00 	000@0000s0000000
  0x537f0	e0 8d 05 40 01 00 00 00 0b 00 00 00 00 00 00 00 	000@000000000000
  0x53800	18 9e 05 40 01 00 00 00 94 00 00 00 00 00 00 00 	000@000000000000
  0x53810	28 9e 05 40 01 00 00 00 a5 00 00 00 00 00 00 00 	(00@000000000000
  0x53820	38 9e 05 40 01 00 00 00 ae 00 00 00 00 00 00 00 	800@000000000000
  0x53830	48 9e 05 40 01 00 00 00 4d 00 00 00 00 00 00 00 	H00@0000M0000000
  0x53840	58 9e 05 40 01 00 00 00 b6 00 00 00 00 00 00 00 	X00@000000000000
  0x53850	68 9e 05 40 01 00 00 00 bc 00 00 00 00 00 00 00 	h00@000000000000
  0x53860	70 8f 05 40 01 00 00 00 3e 00 00 00 00 00 00 00 	p00@0000>0000000
  0x53870	78 9e 05 40 01 00 00 00 88 00 00 00 00 00 00 00 	x00@000000000000
  0x53880	38 8f 05 40 01 00 00 00 37 00 00 00 00 00 00 00 	800@000070000000
  0x53890	88 9e 05 40 01 00 00 00 7f 00 00 00 00 00 00 00 	000@000000000000
  0x538a0	e8 8d 05 40 01 00 00 00 0c 00 00 00 00 00 00 00 	000@000000000000
  0x538b0	98 9e 05 40 01 00 00 00 4e 00 00 00 00 00 00 00 	000@0000N0000000
  0x538c0	f8 8e 05 40 01 00 00 00 2f 00 00 00 00 00 00 00 	000@0000/0000000
  0x538d0	a8 9e 05 40 01 00 00 00 74 00 00 00 00 00 00 00 	000@0000t0000000
  0x538e0	48 8e 05 40 01 00 00 00 18 00 00 00 00 00 00 00 	H00@000000000000
  0x538f0	b8 9e 05 40 01 00 00 00 af 00 00 00 00 00 00 00 	000@000000000000
  0x53900	c8 9e 05 40 01 00 00 00 5a 00 00 00 00 00 00 00 	000@0000Z0000000
  0x53910	f0 8d 05 40 01 00 00 00 0d 00 00 00 00 00 00 00 	000@000000000000
  0x53920	d8 9e 05 40 01 00 00 00 4f 00 00 00 00 00 00 00 	000@0000O0000000
  0x53930	c0 8e 05 40 01 00 00 00 28 00 00 00 00 00 00 00 	000@0000(0000000
  0x53940	e8 9e 05 40 01 00 00 00 6a 00 00 00 00 00 00 00 	000@0000j0000000
  0x53950	80 8e 05 40 01 00 00 00 1f 00 00 00 00 00 00 00 	000@000000000000
  0x53960	f8 9e 05 40 01 00 00 00 61 00 00 00 00 00 00 00 	000@0000a0000000
  0x53970	f8 8d 05 40 01 00 00 00 0e 00 00 00 00 00 00 00 	000@000000000000
  0x53980	08 9f 05 40 01 00 00 00 50 00 00 00 00 00 00 00 	000@0000P0000000
  0x53990	00 8e 05 40 01 00 00 00 0f 00 00 00 00 00 00 00 	000@000000000000
  0x539a0	18 9f 05 40 01 00 00 00 95 00 00 00 00 00 00 00 	000@000000000000
  0x539b0	28 9f 05 40 01 00 00 00 51 00 00 00 00 00 00 00 	(00@0000Q0000000
  0x539c0	08 8e 05 40 01 00 00 00 10 00 00 00 00 00 00 00 	000@000000000000
  0x539d0	38 9f 05 40 01 00 00 00 52 00 00 00 00 00 00 00 	800@0000R0000000
  0x539e0	e8 8e 05 40 01 00 00 00 2d 00 00 00 00 00 00 00 	000@0000-0000000
  0x539f0	48 9f 05 40 01 00 00 00 72 00 00 00 00 00 00 00 	H00@0000r0000000
  0x53a00	08 8f 05 40 01 00 00 00 31 00 00 00 00 00 00 00 	000@000010000000
  0x53a10	58 9f 05 40 01 00 00 00 78 00 00 00 00 00 00 00 	X00@0000x0000000
  0x53a20	50 8f 05 40 01 00 00 00 3a 00 00 00 00 00 00 00 	P00@0000:0000000
  0x53a30	68 9f 05 40 01 00 00 00 82 00 00 00 00 00 00 00 	h00@000000000000
  0x53a40	10 8e 05 40 01 00 00 00 11 00 00 00 00 00 00 00 	000@000000000000
  0x53a50	78 8f 05 40 01 00 00 00 3f 00 00 00 00 00 00 00 	x00@0000?0000000
  0x53a60	78 9f 05 40 01 00 00 00 89 00 00 00 00 00 00 00 	x00@000000000000
  0x53a70	88 9f 05 40 01 00 00 00 53 00 00 00 00 00 00 00 	000@0000S0000000
  0x53a80	10 8f 05 40 01 00 00 00 32 00 00 00 00 00 00 00 	000@000020000000
  0x53a90	98 9f 05 40 01 00 00 00 79 00 00 00 00 00 00 00 	000@0000y0000000
  0x53aa0	a8 8e 05 40 01 00 00 00 25 00 00 00 00 00 00 00 	000@0000%0000000
  0x53ab0	a8 9f 05 40 01 00 00 00 67 00 00 00 00 00 00 00 	000@0000g0000000
  0x53ac0	a0 8e 05 40 01 00 00 00 24 00 00 00 00 00 00 00 	000@0000$0000000
  0x53ad0	b8 9f 05 40 01 00 00 00 66 00 00 00 00 00 00 00 	000@0000f0000000
  0x53ae0	c8 9f 05 40 01 00 00 00 8e 00 00 00 00 00 00 00 	000@000000000000
  0x53af0	d8 8e 05 40 01 00 00 00 2b 00 00 00 00 00 00 00 	000@0000+0000000
  0x53b00	d8 9f 05 40 01 00 00 00 6d 00 00 00 00 00 00 00 	000@0000m0000000
  0x53b10	e8 9f 05 40 01 00 00 00 83 00 00 00 00 00 00 00 	000@000000000000
  0x53b20	68 8f 05 40 01 00 00 00 3d 00 00 00 00 00 00 00 	h00@0000=0000000
  0x53b30	f8 9f 05 40 01 00 00 00 86 00 00 00 00 00 00 00 	000@000000000000
  0x53b40	58 8f 05 40 01 00 00 00 3b 00 00 00 00 00 00 00 	X00@0000;0000000
  0x53b50	08 a0 05 40 01 00 00 00 84 00 00 00 00 00 00 00 	000@000000000000
  0x53b60	00 8f 05 40 01 00 00 00 30 00 00 00 00 00 00 00 	000@000000000000
  0x53b70	18 a0 05 40 01 00 00 00 9d 00 00 00 00 00 00 00 	000@000000000000
  0x53b80	28 a0 05 40 01 00 00 00 77 00 00 00 00 00 00 00 	(00@0000w0000000
  0x53b90	38 a0 05 40 01 00 00 00 75 00 00 00 00 00 00 00 	800@0000u0000000
  0x53ba0	48 a0 05 40 01 00 00 00 55 00 00 00 00 00 00 00 	H00@0000U0000000
  0x53bb0	18 8e 05 40 01 00 00 00 12 00 00 00 00 00 00 00 	000@000000000000
  0x53bc0	58 a0 05 40 01 00 00 00 96 00 00 00 00 00 00 00 	X00@000000000000
  0x53bd0	68 a0 05 40 01 00 00 00 54 00 00 00 00 00 00 00 	h00@0000T0000000
  0x53be0	78 a0 05 40 01 00 00 00 97 00 00 00 00 00 00 00 	x00@000000000000
  0x53bf0	20 8e 05 40 01 00 00 00 13 00 00 00 00 00 00 00 	 00@000000000000
  0x53c00	88 a0 05 40 01 00 00 00 8d 00 00 00 00 00 00 00 	000@000000000000
  0x53c10	30 8f 05 40 01 00 00 00 36 00 00 00 00 00 00 00 	000@000060000000
  0x53c20	98 a0 05 40 01 00 00 00 7e 00 00 00 00 00 00 00 	000@0000~0000000
  0x53c30	28 8e 05 40 01 00 00 00 14 00 00 00 00 00 00 00 	(00@000000000000
  0x53c40	a8 a0 05 40 01 00 00 00 56 00 00 00 00 00 00 00 	000@0000V0000000
  0x53c50	30 8e 05 40 01 00 00 00 15 00 00 00 00 00 00 00 	000@000000000000
  0x53c60	b8 a0 05 40 01 00 00 00 57 00 00 00 00 00 00 00 	000@0000W0000000
  0x53c70	c8 a0 05 40 01 00 00 00 98 00 00 00 00 00 00 00 	000@000000000000
  0x53c80	d8 a0 05 40 01 00 00 00 8c 00 00 00 00 00 00 00 	000@000000000000
  0x53c90	e8 a0 05 40 01 00 00 00 9f 00 00 00 00 00 00 00 	000@000000000000
  0x53ca0	f8 a0 05 40 01 00 00 00 a8 00 00 00 00 00 00 00 	000@000000000000
  0x53cb0	38 8e 05 40 01 00 00 00 16 00 00 00 00 00 00 00 	800@000000000000
  0x53cc0	08 a1 05 40 01 00 00 00 58 00 00 00 00 00 00 00 	000@0000X0000000
  0x53cd0	40 8e 05 40 01 00 00 00 17 00 00 00 00 00 00 00 	@00@000000000000
  0x53ce0	18 a1 05 40 01 00 00 00 59 00 00 00 00 00 00 00 	000@0000Y0000000
  0x53cf0	60 8f 05 40 01 00 00 00 3c 00 00 00 00 00 00 00 	`00@0000<0000000
  0x53d00	28 a1 05 40 01 00 00 00 85 00 00 00 00 00 00 00 	(00@000000000000
  0x53d10	38 a1 05 40 01 00 00 00 a7 00 00 00 00 00 00 00 	800@000000000000
  0x53d20	48 a1 05 40 01 00 00 00 76 00 00 00 00 00 00 00 	H00@0000v0000000
  0x53d30	58 a1 05 40 01 00 00 00 9c 00 00 00 00 00 00 00 	X00@000000000000
  0x53d40	50 8e 05 40 01 00 00 00 19 00 00 00 00 00 00 00 	P00@000000000000
  0x53d50	68 a1 05 40 01 00 00 00 5b 00 00 00 00 00 00 00 	h00@0000[0000000
  0x53d60	90 8e 05 40 01 00 00 00 22 00 00 00 00 00 00 00 	000@0000"0000000
  0x53d70	78 a1 05 40 01 00 00 00 64 00 00 00 00 00 00 00 	x00@0000d0000000
  0x53d80	88 a1 05 40 01 00 00 00 be 00 00 00 00 00 00 00 	000@000000000000
  0x53d90	98 a1 05 40 01 00 00 00 c3 00 00 00 00 00 00 00 	000@000000000000
  0x53da0	a8 a1 05 40 01 00 00 00 b0 00 00 00 00 00 00 00 	000@000000000000
  0x53db0	b8 a1 05 40 01 00 00 00 b8 00 00 00 00 00 00 00 	000@000000000000
  0x53dc0	c8 a1 05 40 01 00 00 00 cb 00 00 00 00 00 00 00 	000@000000000000
  0x53dd0	d8 a1 05 40 01 00 00 00 c7 00 00 00 00 00 00 00 	000@000000000000
  0x53de0	58 8e 05 40 01 00 00 00 1a 00 00 00 00 00 00 00 	X00@000000000000
  0x53df0	e8 a1 05 40 01 00 00 00 5c 00 00 00 00 00 00 00 	000@000000000000
  0x53e00	88 99 05 40 01 00 00 00 e3 00 00 00 00 00 00 00 	000@000000000000
  0x53e10	f8 a1 05 40 01 00 00 00 c2 00 00 00 00 00 00 00 	000@000000000000
  0x53e20	10 a2 05 40 01 00 00 00 bd 00 00 00 00 00 00 00 	000@000000000000
  0x53e30	28 a2 05 40 01 00 00 00 a6 00 00 00 00 00 00 00 	(00@000000000000
  0x53e40	40 a2 05 40 01 00 00 00 99 00 00 00 00 00 00 00 	@00@000000000000
  0x53e50	60 8e 05 40 01 00 00 00 1b 00 00 00 00 00 00 00 	`00@000000000000
  0x53e60	58 a2 05 40 01 00 00 00 9a 00 00 00 00 00 00 00 	X00@000000000000
  0x53e70	68 a2 05 40 01 00 00 00 5d 00 00 00 00 00 00 00 	h00@0000]0000000
  0x53e80	18 8f 05 40 01 00 00 00 33 00 00 00 00 00 00 00 	000@000030000000
  0x53e90	78 a2 05 40 01 00 00 00 7a 00 00 00 00 00 00 00 	x00@0000z0000000
  0x53ea0	80 8f 05 40 01 00 00 00 40 00 00 00 00 00 00 00 	000@0000@0000000
  0x53eb0	88 a2 05 40 01 00 00 00 8a 00 00 00 00 00 00 00 	000@000000000000
  0x53ec0	40 8f 05 40 01 00 00 00 38 00 00 00 00 00 00 00 	@00@000080000000
  0x53ed0	98 a2 05 40 01 00 00 00 80 00 00 00 00 00 00 00 	000@000000000000
  0x53ee0	48 8f 05 40 01 00 00 00 39 00 00 00 00 00 00 00 	H00@000090000000
  0x53ef0	a8 a2 05 40 01 00 00 00 81 00 00 00 00 00 00 00 	000@000000000000
  0x53f00	68 8e 05 40 01 00 00 00 1c 00 00 00 00 00 00 00 	h00@000000000000
  0x53f10	b8 a2 05 40 01 00 00 00 5e 00 00 00 00 00 00 00 	000@0000^0000000
  0x53f20	c8 a2 05 40 01 00 00 00 6e 00 00 00 00 00 00 00 	000@0000n0000000
  0x53f30	70 8e 05 40 01 00 00 00 1d 00 00 00 00 00 00 00 	p00@000000000000
  0x53f40	d8 a2 05 40 01 00 00 00 5f 00 00 00 00 00 00 00 	000@0000_0000000
  0x53f50	28 8f 05 40 01 00 00 00 35 00 00 00 00 00 00 00 	(00@000050000000
  0x53f60	e8 a2 05 40 01 00 00 00 7c 00 00 00 00 00 00 00 	000@0000|0000000
  0x53f70	78 8d 05 40 01 00 00 00 20 00 00 00 00 00 00 00 	x00@0000 0000000
  0x53f80	f8 a2 05 40 01 00 00 00 62 00 00 00 00 00 00 00 	000@0000b0000000
  0x53f90	78 8e 05 40 01 00 00 00 1e 00 00 00 00 00 00 00 	x00@000000000000
  0x53fa0	08 a3 05 40 01 00 00 00 60 00 00 00 00 00 00 00 	000@0000`0000000
  0x53fb0	20 8f 05 40 01 00 00 00 34 00 00 00 00 00 00 00 	 00@000040000000
  0x53fc0	18 a3 05 40 01 00 00 00 9e 00 00 00 00 00 00 00 	000@000000000000
  0x53fd0	30 a3 05 40 01 00 00 00 7b 00 00 00 00 00 00 00 	000@0000{0000000
  0x53fe0	b8 8e 05 40 01 00 00 00 27 00 00 00 00 00 00 00 	000@0000'0000000
  0x53ff0	48 a3 05 40 01 00 00 00 69 00 00 00 00 00 00 00 	H00@0000i0000000
  0x54000	58 a3 05 40 01 00 00 00 6f 00 00 00 00 00 00 00 	X00@0000o0000000
  0x54010	68 a3 05 40 01 00 00 00 03 00 00 00 00 00 00 00 	h00@000000000000
  0x54020	78 a3 05 40 01 00 00 00 e2 00 00 00 00 00 00 00 	x00@000000000000
  0x54030	88 a3 05 40 01 00 00 00 90 00 00 00 00 00 00 00 	000@000000000000
  0x54040	98 a3 05 40 01 00 00 00 a1 00 00 00 00 00 00 00 	000@000000000000
  0x54050	a8 a3 05 40 01 00 00 00 b2 00 00 00 00 00 00 00 	000@000000000000
  0x54060	b8 a3 05 40 01 00 00 00 aa 00 00 00 00 00 00 00 	000@000000000000
  0x54070	c8 a3 05 40 01 00 00 00 46 00 00 00 00 00 00 00 	000@0000F0000000
  0x54080	d8 a3 05 40 01 00 00 00 70 00 00 00 00 00 00 00 	000@0000p0000000
  0x54090	00 0c 06 40 01 00 00 00 00 53 04 40 01 00 00 00 	000@00000S0@0000
  0x540a0	20 25 07 40 01 00 00 00 c0 25 07 40 01 00 00 00 	 %0@00000%0@0000
  0x540b0	f0 10 06 40 01 00 00 00 f0 80 00 40 01 00 00 00 	000@0000000@0000
  0x540c0	c0 81 00 40 01 00 00 00 78 10 06 40 01 00 00 00 	000@0000x00@0000
  0x540d0	f0 80 00 40 01 00 00 00 c0 81 00 40 01 00 00 00 	000@0000000@0000
  0x540e0	f8 0f 06 40 01 00 00 00 f0 80 00 40 01 00 00 00 	000@0000000@0000
  0x540f0	c0 81 00 40 01 00 00 00 00 6d 04 40 01 00 00 00 	000@00000m0@0000
  0x54100	78 0c 06 40 01 00 00 00 60 a3 04 40 01 00 00 00 	x00@0000`00@0000
  0x54110	c0 81 00 40 01 00 00 00 00 00 00 00 00 00 00 00 	000@000000000000
  0x54120	60 bb 04 40 01 00 00 00 00 00 00 00 00 00 00 00 	`00@000000000000
  0x54130	e0 bb 04 40 01 00 00 00 00 00 00 00 00 00 00 00 	000@000000000000
  0x54140	30 8f 03 40 01 00 00 00 60 8f 03 40 01 00 00 00 	000@0000`00@0000
  0x54150	20 5f 04 40 01 00 00 00 b0 bb 04 40 01 00 00 00 	 _0@0000000@0000
  0x54160	50 d0 03 40 01 00 00 00 c0 d0 03 40 01 00 00 00 	P00@0000000@0000
  0x54170	b0 9c 03 40 01 00 00 00 e0 9c 03 40 01 00 00 00 	000@0000000@0000
  0x54180	00 00 00 00 00 00 00 00 30 bc 04 40 01 00 00 00 	00000000000@0000
  0x54190	c0 83 03 40 01 00 00 00 10 84 03 40 01 00 00 00 	000@0000000@0000
  0x541a0	60 87 03 40 01 00 00 00 b0 87 03 40 01 00 00 00 	`00@0000000@0000
  0x541b0	a0 c7 04 40 01 00 00 00 b0 bb 04 40 01 00 00 00 	000@0000000@0000
  0x541c0	b0 a9 03 40 01 00 00 00 00 00 00 00 00 00 00 00 	000@000000000000
  0x541d0	00 00 00 00 00 00 00 00 b0 bb 04 40 01 00 00 00 	00000000000@0000
  0x541e0	00 00 00 00 00 00 00 00 90 bc 04 40 01 00 00 00 	00000000000@0000
  0x541f0	00 00 00 00 00 00 00 00 40 bc 04 40 01 00 00 00 	00000000@00@0000
  0x54200	20 5f 04 40 01 00 00 00 c0 bb 04 40 01 00 00 00 	 _0@0000000@0000
  0x54210	80 bb 04 40 01 00 00 00 b0 bb 04 40 01 00 00 00 	000@0000000@0000
  0x54220	f8 0e 06 40 01 00 00 00 10 7f 00 40 01 00 00 00 	000@0000000@0000
  0x54230	e0 7e 00 40 01 00 00 00 c0 7e 00 40 01 00 00 00 	0~0@00000~0@0000
  0x54240	b0 7e 00 40 01 00 00 00 80 7e 00 40 01 00 00 00 	0~0@00000~0@0000
  0x54250	a0 7e 00 40 01 00 00 00 20 0f 06 40 01 00 00 00 	0~0@0000 00@0000
  0x54260	00 80 00 40 01 00 00 00 e0 7f 00 40 01 00 00 00 	000@0000000@0000
  0x54270	70 7f 00 40 01 00 00 00 60 7f 00 40 01 00 00 00 	p00@0000`00@0000
  0x54280	40 7f 00 40 01 00 00 00 a0 7e 00 40 01 00 00 00 	@00@00000~0@0000
  0x54290	48 0f 06 40 01 00 00 00 90 80 00 40 01 00 00 00 	H00@0000000@0000
  0x542a0	70 80 00 40 01 00 00 00 50 80 00 40 01 00 00 00 	p00@0000P00@0000
  0x542b0	40 80 00 40 01 00 00 00 20 80 00 40 01 00 00 00 	@00@0000 00@0000
  0x542c0	a0 7e 00 40 01 00 00 00 70 0f 06 40 01 00 00 00 	0~0@0000p00@0000
  0x542d0	00 1f 00 40 01 00 00 00 70 23 00 40 01 00 00 00 	000@0000p#0@0000
  0x542e0	80 3f 00 40 01 00 00 00 78 17 06 40 01 00 00 00 	0?0@0000x00@0000
  0x542f0	b0 c3 00 40 01 00 00 00 90 c3 00 40 01 00 00 00 	000@0000000@0000
  0x54300	50 c3 00 40 01 00 00 00 40 c3 00 40 01 00 00 00 	P00@0000@00@0000
  0x54310	20 c3 00 40 01 00 00 00 a0 7e 00 40 01 00 00 00 	 00@00000~0@0000
  0x54320	a0 17 06 40 01 00 00 00 40 c4 00 40 01 00 00 00 	000@0000@00@0000
  0x54330	20 c4 00 40 01 00 00 00 e0 c3 00 40 01 00 00 00 	 00@0000000@0000
  0x54340	d0 c3 00 40 01 00 00 00 20 c3 00 40 01 00 00 00 	000@0000 00@0000
  0x54350	a0 7e 00 40 01 00 00 00 80 19 06 40 01 00 00 00 	0~0@0000000@0000
  0x54360	10 ae 00 40 01 00 00 00 40 22 02 40 01 00 00 00 	000@0000@"0@0000
  0x54370	e0 b9 00 40 01 00 00 00 20 b9 00 40 01 00 00 00 	000@0000 00@0000
  0x54380	c8 17 06 40 01 00 00 00 b0 ad 00 40 01 00 00 00 	000@0000000@0000
  0x54390	80 a8 00 40 01 00 00 00 90 1d 02 40 01 00 00 00 	000@0000000@0000
  0x543a0	80 ac 00 40 01 00 00 00 b0 1d 02 40 01 00 00 00 	000@0000000@0000
  0x543b0	c0 1d 02 40 01 00 00 00 d0 1d 02 40 01 00 00 00 	000@0000000@0000
  0x543c0	f0 1d 02 40 01 00 00 00 00 ad 00 40 01 00 00 00 	000@0000000@0000
  0x543d0	60 ad 00 40 01 00 00 00 60 1e 02 40 01 00 00 00 	`00@0000`00@0000
  0x543e0	10 1e 02 40 01 00 00 00 20 1e 02 40 01 00 00 00 	000@0000 00@0000
  0x543f0	30 1e 02 40 01 00 00 00 50 1e 02 40 01 00 00 00 	000@0000P00@0000
  0x54400	f0 ac 00 40 01 00 00 00 f0 17 06 40 01 00 00 00 	000@0000000@0000
  0x54410	00 a8 00 40 01 00 00 00 10 a8 00 40 01 00 00 00 	000@0000000@0000
  0x54420	50 a8 00 40 01 00 00 00 18 18 06 40 01 00 00 00 	P00@0000000@0000
  0x54430	d0 a1 00 40 01 00 00 00 d0 a4 00 40 01 00 00 00 	000@0000000@0000
  0x54440	90 1d 02 40 01 00 00 00 70 a5 00 40 01 00 00 00 	000@0000p00@0000
  0x54450	b0 1d 02 40 01 00 00 00 60 a6 00 40 01 00 00 00 	000@0000`00@0000
  0x54460	d0 1d 02 40 01 00 00 00 60 a7 00 40 01 00 00 00 	000@0000`00@0000
  0x54470	e0 1d 02 40 01 00 00 00 00 1e 02 40 01 00 00 00 	000@0000000@0000
  0x54480	60 1e 02 40 01 00 00 00 10 1e 02 40 01 00 00 00 	`00@0000000@0000
  0x54490	20 1e 02 40 01 00 00 00 30 1e 02 40 01 00 00 00 	 00@0000000@0000
  0x544a0	50 1e 02 40 01 00 00 00 40 1e 02 40 01 00 00 00 	P00@0000@00@0000
  0x544b0	40 18 06 40 01 00 00 00 80 8d 00 40 01 00 00 00 	@00@0000000@0000
  0x544c0	10 a2 00 40 01 00 00 00 90 1d 02 40 01 00 00 00 	000@0000000@0000
  0x544d0	90 a2 00 40 01 00 00 00 b0 1d 02 40 01 00 00 00 	000@0000000@0000
  0x544e0	30 a4 00 40 01 00 00 00 80 a4 00 40 01 00 00 00 	000@0000000@0000
  0x544f0	f0 1d 02 40 01 00 00 00 e0 1d 02 40 01 00 00 00 	000@0000000@0000
  0x54500	f0 a2 00 40 01 00 00 00 60 1e 02 40 01 00 00 00 	000@0000`00@0000
  0x54510	10 1e 02 40 01 00 00 00 20 1e 02 40 01 00 00 00 	000@0000 00@0000
  0x54520	30 1e 02 40 01 00 00 00 50 1e 02 40 01 00 00 00 	000@0000P00@0000
  0x54530	40 1e 02 40 01 00 00 00 68 18 06 40 01 00 00 00 	@00@0000h00@0000
  0x54540	d0 a1 00 40 01 00 00 00 b0 9f 00 40 01 00 00 00 	000@0000000@0000
  0x54550	90 1d 02 40 01 00 00 00 30 a0 00 40 01 00 00 00 	000@0000000@0000
  0x54560	b0 1d 02 40 01 00 00 00 80 a1 00 40 01 00 00 00 	000@0000000@0000
  0x54570	d0 1d 02 40 01 00 00 00 f0 1d 02 40 01 00 00 00 	000@0000000@0000
  0x54580	e0 1d 02 40 01 00 00 00 60 a0 00 40 01 00 00 00 	000@0000`00@0000
  0x54590	60 1e 02 40 01 00 00 00 10 1e 02 40 01 00 00 00 	`00@0000000@0000
  0x545a0	20 1e 02 40 01 00 00 00 30 1e 02 40 01 00 00 00 	 00@0000000@0000
  0x545b0	50 1e 02 40 01 00 00 00 40 1e 02 40 01 00 00 00 	P00@0000@00@0000
  0x545c0	90 18 06 40 01 00 00 00 80 8d 00 40 01 00 00 00 	000@0000000@0000
  0x545d0	60 9e 00 40 01 00 00 00 90 1d 02 40 01 00 00 00 	`00@0000000@0000
  0x545e0	e0 9e 00 40 01 00 00 00 b0 1d 02 40 01 00 00 00 	000@0000000@0000
  0x545f0	40 9f 00 40 01 00 00 00 d0 1d 02 40 01 00 00 00 	@00@0000000@0000
  0x54600	90 9f 00 40 01 00 00 00 e0 1d 02 40 01 00 00 00 	000@0000000@0000
  0x54610	00 1e 02 40 01 00 00 00 60 1e 02 40 01 00 00 00 	000@0000`00@0000
  0x54620	10 1e 02 40 01 00 00 00 20 1e 02 40 01 00 00 00 	000@0000 00@0000
  0x54630	30 1e 02 40 01 00 00 00 50 1e 02 40 01 00 00 00 	000@0000P00@0000
  0x54640	40 1e 02 40 01 00 00 00 b8 18 06 40 01 00 00 00 	@00@0000000@0000
  0x54650	90 9b 00 40 01 00 00 00 b0 9b 00 40 01 00 00 00 	000@0000000@0000
  0x54660	a0 9b 00 40 01 00 00 00 80 9d 00 40 01 00 00 00 	000@0000000@0000
  0x54670	e0 18 06 40 01 00 00 00 e0 9d 00 40 01 00 00 00 	000@0000000@0000
  0x54680	80 1d 02 40 01 00 00 00 90 1d 02 40 01 00 00 00 	000@0000000@0000
  0x54690	40 8f 00 40 01 00 00 00 b0 1d 02 40 01 00 00 00 	@00@0000000@0000
  0x546a0	b0 94 00 40 01 00 00 00 d0 1d 02 40 01 00 00 00 	000@0000000@0000
  0x546b0	c0 95 00 40 01 00 00 00 e0 1d 02 40 01 00 00 00 	000@0000000@0000
  0x546c0	00 1e 02 40 01 00 00 00 60 1e 02 40 01 00 00 00 	000@0000`00@0000
  0x546d0	10 1e 02 40 01 00 00 00 20 1e 02 40 01 00 00 00 	000@0000 00@0000
  0x546e0	80 9a 00 40 01 00 00 00 f0 95 00 40 01 00 00 00 	000@0000000@0000
  0x546f0	40 1e 02 40 01 00 00 00 08 19 06 40 01 00 00 00 	@00@0000000@0000
  0x54700	80 8d 00 40 01 00 00 00 80 1d 02 40 01 00 00 00 	000@0000000@0000
  0x54710	90 1d 02 40 01 00 00 00 e0 8b 00 40 01 00 00 00 	000@0000000@0000
  0x54720	b0 1d 02 40 01 00 00 00 c0 1d 02 40 01 00 00 00 	000@0000000@0000
  0x54730	c0 8b 00 40 01 00 00 00 f0 1d 02 40 01 00 00 00 	000@0000000@0000
  0x54740	e0 1d 02 40 01 00 00 00 f0 8b 00 40 01 00 00 00 	000@0000000@0000
  0x54750	60 1e 02 40 01 00 00 00 10 1e 02 40 01 00 00 00 	`00@0000000@0000
  0x54760	20 1e 02 40 01 00 00 00 30 1e 02 40 01 00 00 00 	 00@0000000@0000
  0x54770	50 1e 02 40 01 00 00 00 40 1e 02 40 01 00 00 00 	P00@0000@00@0000
  0x54780	30 19 06 40 01 00 00 00 30 8a 00 40 01 00 00 00 	000@0000000@0000
  0x54790	70 8a 00 40 01 00 00 00 90 1d 02 40 01 00 00 00 	p00@0000000@0000
  0x547a0	e0 8a 00 40 01 00 00 00 b0 1d 02 40 01 00 00 00 	000@0000000@0000
  0x547b0	c0 1d 02 40 01 00 00 00 d0 1d 02 40 01 00 00 00 	000@0000000@0000
  0x547c0	f0 1d 02 40 01 00 00 00 e0 1d 02 40 01 00 00 00 	000@0000000@0000
  0x547d0	20 8b 00 40 01 00 00 00 60 1e 02 40 01 00 00 00 	 00@0000`00@0000
  0x547e0	10 1e 02 40 01 00 00 00 20 1e 02 40 01 00 00 00 	000@0000 00@0000
  0x547f0	30 1e 02 40 01 00 00 00 50 1e 02 40 01 00 00 00 	000@0000P00@0000
  0x54800	10 8b 00 40 01 00 00 00 58 19 06 40 01 00 00 00 	000@0000X00@0000
  0x54810	30 8a 00 40 01 00 00 00 c0 82 00 40 01 00 00 00 	000@0000000@0000
  0x54820	90 1d 02 40 01 00 00 00 c0 84 00 40 01 00 00 00 	000@0000000@0000
  0x54830	00 85 00 40 01 00 00 00 c0 1d 02 40 01 00 00 00 	000@0000000@0000
  0x54840	d0 1d 02 40 01 00 00 00 f0 1d 02 40 01 00 00 00 	000@0000000@0000
  0x54850	e0 1d 02 40 01 00 00 00 20 85 00 40 01 00 00 00 	000@0000 00@0000
  0x54860	60 1e 02 40 01 00 00 00 10 1e 02 40 01 00 00 00 	`00@0000000@0000
  0x54870	20 1e 02 40 01 00 00 00 30 1e 02 40 01 00 00 00 	 00@0000000@0000
  0x54880	50 1e 02 40 01 00 00 00 f0 84 00 40 01 00 00 00 	P00@0000000@0000
  0x54890	a0 1b 06 40 01 00 00 00 70 d7 00 40 01 00 00 00 	000@0000p00@0000
  0x548a0	60 d7 00 40 01 00 00 00 40 d7 00 40 01 00 00 00 	`00@0000@00@0000
  0x548b0	30 d7 00 40 01 00 00 00 10 d7 00 40 01 00 00 00 	000@0000000@0000
  0x548c0	a0 7e 00 40 01 00 00 00 c8 1b 06 40 01 00 00 00 	0~0@0000000@0000
  0x548d0	20 d8 00 40 01 00 00 00 f0 d7 00 40 01 00 00 00 	 00@0000000@0000
  0x548e0	d0 d7 00 40 01 00 00 00 c0 d7 00 40 01 00 00 00 	000@0000000@0000
  0x548f0	80 7e 00 40 01 00 00 00 a0 7e 00 40 01 00 00 00 	0~0@00000~0@0000
  0x54900	f0 1b 06 40 01 00 00 00 a0 c4 00 40 01 00 00 00 	000@0000000@0000
  0x54910	20 31 02 40 01 00 00 00 30 31 02 40 01 00 00 00 	 10@0000010@0000
  0x54920	40 31 02 40 01 00 00 00 50 31 02 40 01 00 00 00 	@10@0000P10@0000
  0x54930	30 2f 02 40 01 00 00 00 10 2f 02 40 01 00 00 00 	0/0@00000/0@0000
  0x54940	00 2f 02 40 01 00 00 00 80 c5 00 40 01 00 00 00 	0/0@0000000@0000
  0x54950	90 c5 00 40 01 00 00 00 b0 c5 00 40 01 00 00 00 	000@0000000@0000
  0x54960	d0 2e 02 40 01 00 00 00 60 c4 00 40 01 00 00 00 	0.0@0000`00@0000
  0x54970	c8 1c 06 40 01 00 00 00 80 e1 00 40 01 00 00 00 	000@0000000@0000
  0x54980	50 e1 00 40 01 00 00 00 90 df 00 40 01 00 00 00 	P00@0000000@0000
  0x54990	80 df 00 40 01 00 00 00 60 df 00 40 01 00 00 00 	000@0000`00@0000
  0x549a0	a0 7e 00 40 01 00 00 00 f0 1c 06 40 01 00 00 00 	0~0@0000000@0000
  0x549b0	70 dc 00 40 01 00 00 00 80 de 00 40 01 00 00 00 	p00@0000000@0000
  0x549c0	30 31 02 40 01 00 00 00 40 31 02 40 01 00 00 00 	010@0000@10@0000
  0x549d0	50 31 02 40 01 00 00 00 30 2f 02 40 01 00 00 00 	P10@00000/0@0000
  0x549e0	10 2f 02 40 01 00 00 00 00 2f 02 40 01 00 00 00 	0/0@00000/0@0000
  0x549f0	20 2f 02 40 01 00 00 00 70 db 00 40 01 00 00 00 	 /0@0000p00@0000
  0x54a00	90 db 00 40 01 00 00 00 d0 2e 02 40 01 00 00 00 	000@00000.0@0000
  0x54a10	30 db 00 40 01 00 00 00 90 20 06 40 01 00 00 00 	000@00000 0@0000
  0x54a20	30 85 01 40 01 00 00 00 10 85 01 40 01 00 00 00 	000@0000000@0000
  0x54a30	10 84 01 40 01 00 00 00 00 84 01 40 01 00 00 00 	000@0000000@0000
  0x54a40	20 80 00 40 01 00 00 00 a0 7e 00 40 01 00 00 00 	 00@00000~0@0000
  0x54a50	b8 20 06 40 01 00 00 00 50 86 01 40 01 00 00 00 	0 0@0000P00@0000
  0x54a60	30 86 01 40 01 00 00 00 60 85 01 40 01 00 00 00 	000@0000`00@0000
  0x54a70	50 85 01 40 01 00 00 00 40 7f 00 40 01 00 00 00 	P00@0000@00@0000
  0x54a80	a0 7e 00 40 01 00 00 00 58 21 06 40 01 00 00 00 	0~0@0000X!0@0000
  0x54a90	10 65 01 40 01 00 00 00 00 67 01 40 01 00 00 00 	0e0@00000g0@0000
  0x54aa0	40 61 01 40 01 00 00 00 70 63 01 40 01 00 00 00 	@a0@0000pc0@0000
  0x54ab0	a0 5e 01 40 01 00 00 00 00 5f 01 40 01 00 00 00 	0^0@00000_0@0000
  0x54ac0	60 5f 01 40 01 00 00 00 e0 5f 01 40 01 00 00 00 	`_0@00000_0@0000
  0x54ad0	20 51 01 40 01 00 00 00 d0 52 01 40 01 00 00 00 	 Q0@00000R0@0000
  0x54ae0	70 52 01 40 01 00 00 00 30 52 01 40 01 00 00 00 	pR0@00000R0@0000
  0x54af0	50 52 01 40 01 00 00 00 70 48 01 40 01 00 00 00 	PR0@0000pH0@0000
  0x54b00	d0 49 01 40 01 00 00 00 e0 4a 01 40 01 00 00 00 	0I0@00000J0@0000
  0x54b10	60 4b 01 40 01 00 00 00 90 57 01 40 01 00 00 00 	`K0@00000W0@0000
  0x54b20	d0 57 01 40 01 00 00 00 30 58 01 40 01 00 00 00 	0W0@00000X0@0000
  0x54b30	90 58 01 40 01 00 00 00 f0 58 01 40 01 00 00 00 	0X0@00000X0@0000
  0x54b40	60 59 01 40 01 00 00 00 d0 59 01 40 01 00 00 00 	`Y0@00000Y0@0000
  0x54b50	40 5a 01 40 01 00 00 00 40 5b 01 40 01 00 00 00 	@Z0@0000@[0@0000
  0x54b60	e0 5a 01 40 01 00 00 00 c0 5b 01 40 01 00 00 00 	0Z0@00000[0@0000
  0x54b70	40 5c 01 40 01 00 00 00 b0 5c 01 40 01 00 00 00 	@00@0000000@0000
  0x54b80	20 5d 01 40 01 00 00 00 a0 5d 01 40 01 00 00 00 	 ]0@00000]0@0000
  0x54b90	00 5e 01 40 01 00 00 00 b0 4d 01 40 01 00 00 00 	0^0@00000M0@0000
  0x54ba0	c0 4d 01 40 01 00 00 00 80 4e 01 40 01 00 00 00 	0M0@00000N0@0000
  0x54bb0	40 4f 01 40 01 00 00 00 80 21 06 40 01 00 00 00 	@O0@00000!0@0000
  0x54bc0	00 2e 01 40 01 00 00 00 60 36 01 40 01 00 00 00 	0.0@0000`60@0000
  0x54bd0	90 38 01 40 01 00 00 00 40 3a 01 40 01 00 00 00 	080@0000@:0@0000
  0x54be0	f0 38 01 40 01 00 00 00 90 31 01 40 01 00 00 00 	080@0000010@0000
  0x54bf0	10 35 01 40 01 00 00 00 50 2f 01 40 01 00 00 00 	050@0000P/0@0000
  0x54c00	a0 3b 01 40 01 00 00 00 b0 3b 01 40 01 00 00 00 	0;0@00000;0@0000
  0x54c10	c0 3b 01 40 01 00 00 00 60 3c 01 40 01 00 00 00 	0;0@0000`<0@0000
  0x54c20	a0 3c 01 40 01 00 00 00 a8 21 06 40 01 00 00 00 	0<0@00000!0@0000
  0x54c30	f0 1e 01 40 01 00 00 00 80 72 04 40 01 00 00 00 	000@00000r0@0000
  0x54c40	80 72 04 40 01 00 00 00 80 72 04 40 01 00 00 00 	0r0@00000r0@0000
  0x54c50	30 29 01 40 01 00 00 00 80 72 04 40 01 00 00 00 	0)0@00000r0@0000
  0x54c60	d0 1f 01 40 01 00 00 00 60 1f 01 40 01 00 00 00 	000@0000`00@0000
  0x54c70	e0 20 06 40 01 00 00 00 b0 1d 01 40 01 00 00 00 	0 0@0000000@0000
  0x54c80	00 1e 01 40 01 00 00 00 c0 1c 01 40 01 00 00 00 	000@0000000@0000
  0x54c90	e0 1c 01 40 01 00 00 00 00 1d 01 40 01 00 00 00 	000@0000000@0000
  0x54ca0	20 1d 01 40 01 00 00 00 40 1d 01 40 01 00 00 00 	 00@0000@00@0000
  0x54cb0	60 1d 01 40 01 00 00 00 80 1e 01 40 01 00 00 00 	`00@0000000@0000
  0x54cc0	90 1e 01 40 01 00 00 00 a0 1e 01 40 01 00 00 00 	000@0000000@0000
  0x54cd0	b0 1e 01 40 01 00 00 00 08 21 06 40 01 00 00 00 	000@00000!0@0000
  0x54ce0	80 19 01 40 01 00 00 00 a0 19 01 40 01 00 00 00 	000@0000000@0000
  0x54cf0	70 19 01 40 01 00 00 00 60 19 01 40 01 00 00 00 	p00@0000`00@0000
  0x54d00	c0 19 01 40 01 00 00 00 f0 1a 01 40 01 00 00 00 	000@0000000@0000
  0x54d10	00 1c 01 40 01 00 00 00 30 21 06 40 01 00 00 00 	000@00000!0@0000
  0x54d20	10 19 01 40 01 00 00 00 c0 23 06 40 01 00 00 00 	000@00000#0@0000
  0x54d30	d0 92 01 40 01 00 00 00 38 24 06 40 01 00 00 00 	000@00008$0@0000
  0x54d40	f0 ad 01 40 01 00 00 00 10 25 06 40 01 00 00 00 	000@00000%0@0000
  0x54d50	f0 80 00 40 01 00 00 00 c0 81 00 40 01 00 00 00 	000@0000000@0000
  0x54d60	68 25 06 40 01 00 00 00 f0 80 00 40 01 00 00 00 	h%0@0000000@0000
  0x54d70	c0 81 00 40 01 00 00 00 a8 24 06 40 01 00 00 00 	000@00000$0@0000
  0x54d80	f0 80 00 40 01 00 00 00 30 bf 01 40 01 00 00 00 	000@0000000@0000
  0x54d90	b0 26 06 40 01 00 00 00 f0 f9 01 40 01 00 00 00 	0&0@0000000@0000
  0x54da0	30 fa 01 40 01 00 00 00 50 fa 01 40 01 00 00 00 	000@0000P00@0000
  0x54db0	70 f8 01 40 01 00 00 00 f0 30 06 40 01 00 00 00 	p00@0000000@0000
  0x54dc0	d0 f9 01 40 01 00 00 00 30 fa 01 40 01 00 00 00 	000@0000000@0000
  0x54dd0	10 fa 01 40 01 00 00 00 70 f8 01 40 01 00 00 00 	000@0000p00@0000
  0x54de0	e0 29 06 40 01 00 00 00 10 f5 01 40 01 00 00 00 	0)0@0000000@0000
  0x54df0	70 f2 01 40 01 00 00 00 50 f4 01 40 01 00 00 00 	p00@0000P00@0000
  0x54e00	e0 f3 01 40 01 00 00 00 20 f1 01 40 01 00 00 00 	000@0000 00@0000
  0x54e10	10 f1 01 40 01 00 00 00 d0 c1 01 40 01 00 00 00 	000@0000000@0000
  0x54e20	a0 c3 01 40 01 00 00 00 c0 c3 01 40 01 00 00 00 	000@0000000@0000
  0x54e30	e0 c3 01 40 01 00 00 00 f0 c3 01 40 01 00 00 00 	000@0000000@0000
  0x54e40	48 36 06 40 01 00 00 00 10 f5 01 40 01 00 00 00 	H60@0000000@0000
  0x54e50	70 f2 01 40 01 00 00 00 50 f4 01 40 01 00 00 00 	p00@0000P00@0000
  0x54e60	e0 f3 01 40 01 00 00 00 20 f1 01 40 01 00 00 00 	000@0000 00@0000
  0x54e70	10 f1 01 40 01 00 00 00 80 72 04 40 01 00 00 00 	000@00000r0@0000
  0x54e80	80 72 04 40 01 00 00 00 80 72 04 40 01 00 00 00 	0r0@00000r0@0000
  0x54e90	20 f6 01 40 01 00 00 00 f0 f7 01 40 01 00 00 00 	 00@0000000@0000
  0x54ea0	08 36 06 40 01 00 00 00 d0 f2 01 40 01 00 00 00 	060@0000000@0000
  0x54eb0	70 f2 01 40 01 00 00 00 b0 f1 01 40 01 00 00 00 	p00@0000000@0000
  0x54ec0	40 f1 01 40 01 00 00 00 20 f1 01 40 01 00 00 00 	@00@0000 00@0000
  0x54ed0	10 f1 01 40 01 00 00 00 80 72 04 40 01 00 00 00 	000@00000r0@0000
  0x54ee0	f0 f7 01 40 01 00 00 00 40 2e 06 40 01 00 00 00 	000@0000@.0@0000
  0x54ef0	00 f0 01 40 01 00 00 00 c0 ef 01 40 01 00 00 00 	000@0000000@0000
  0x54f00	40 ef 01 40 01 00 00 00 00 ef 01 40 01 00 00 00 	@00@0000000@0000
  0x54f10	80 f9 01 40 01 00 00 00 f0 36 06 40 01 00 00 00 	000@0000060@0000
  0x54f20	f0 f9 01 40 01 00 00 00 30 fa 01 40 01 00 00 00 	000@0000000@0000
  0x54f30	50 fa 01 40 01 00 00 00 70 f8 01 40 01 00 00 00 	P00@0000p00@0000
  0x54f40	c0 2a 06 40 01 00 00 00 d0 f2 01 40 01 00 00 00 	0*0@0000000@0000
  0x54f50	70 f2 01 40 01 00 00 00 b0 f1 01 40 01 00 00 00 	p00@0000000@0000
  0x54f60	40 f1 01 40 01 00 00 00 20 f1 01 40 01 00 00 00 	@00@0000 00@0000
  0x54f70	10 f1 01 40 01 00 00 00 50 c4 01 40 01 00 00 00 	000@0000P00@0000
  0x54f80	10 c5 01 40 01 00 00 00 f0 2d 06 40 01 00 00 00 	000@00000-0@0000
  0x54f90	40 f7 01 40 01 00 00 00 c0 ef 01 40 01 00 00 00 	@00@0000000@0000
  0x54fa0	40 ef 01 40 01 00 00 00 80 c0 01 40 01 00 00 00 	@00@0000000@0000
  0x54fb0	00 c1 01 40 01 00 00 00 58 35 06 40 01 00 00 00 	000@0000X50@0000
  0x54fc0	00 f0 01 40 01 00 00 00 c0 ef 01 40 01 00 00 00 	000@0000000@0000
  0x54fd0	40 ef 01 40 01 00 00 00 80 72 04 40 01 00 00 00 	@00@00000r0@0000
  0x54fe0	40 f8 01 40 01 00 00 00 b8 27 06 40 01 00 00 00 	@00@00000'0@0000
  0x54ff0	40 f7 01 40 01 00 00 00 c0 ef 01 40 01 00 00 00 	@00@0000000@0000
  0x55000	40 ef 01 40 01 00 00 00 80 72 04 40 01 00 00 00 	@00@00000r0@0000
  0x55010	40 f8 01 40 01 00 00 00 f8 28 06 40 01 00 00 00 	@00@00000(0@0000
  0x55020	80 72 04 40 01 00 00 00 80 72 04 40 01 00 00 00 	0r0@00000r0@0000
  0x55030	80 72 04 40 01 00 00 00 80 72 04 40 01 00 00 00 	0r0@00000r0@0000
  0x55040	10 26 06 40 01 00 00 00 d0 f9 01 40 01 00 00 00 	0&0@0000000@0000
  0x55050	30 fa 01 40 01 00 00 00 10 fa 01 40 01 00 00 00 	000@0000000@0000
  0x55060	70 f8 01 40 01 00 00 00 40 3c 06 40 01 00 00 00 	p00@0000@<0@0000
  0x55070	70 fa 01 40 01 00 00 00 50 fe 01 40 01 00 00 00 	p00@0000P00@0000
  0x55080	80 72 04 40 01 00 00 00 b8 3c 06 40 01 00 00 00 	0r0@00000<0@0000
  0x55090	70 0a 02 40 01 00 00 00 b0 3d 06 40 01 00 00 00 	p00@00000=0@0000
  0x550a0	20 12 02 40 01 00 00 00 d8 3d 06 40 01 00 00 00 	 00@00000=0@0000
  0x550b0	90 1f 02 40 01 00 00 00 40 22 02 40 01 00 00 00 	000@0000@"0@0000
  0x550c0	50 27 02 40 01 00 00 00 40 27 02 40 01 00 00 00 	P'0@0000@'0@0000
  0x550d0	00 3e 06 40 01 00 00 00 50 18 02 40 01 00 00 00 	0>0@0000P00@0000
  0x550e0	80 1d 02 40 01 00 00 00 90 1d 02 40 01 00 00 00 	000@0000000@0000
  0x550f0	a0 1d 02 40 01 00 00 00 b0 1d 02 40 01 00 00 00 	000@0000000@0000
  0x55100	c0 1d 02 40 01 00 00 00 d0 1d 02 40 01 00 00 00 	000@0000000@0000
  0x55110	f0 1d 02 40 01 00 00 00 e0 1d 02 40 01 00 00 00 	000@0000000@0000
  0x55120	00 1e 02 40 01 00 00 00 60 1e 02 40 01 00 00 00 	000@0000`00@0000
  0x55130	10 1e 02 40 01 00 00 00 20 1e 02 40 01 00 00 00 	000@0000 00@0000
  0x55140	30 1e 02 40 01 00 00 00 50 1e 02 40 01 00 00 00 	000@0000P00@0000
  0x55150	40 1e 02 40 01 00 00 00 28 3e 06 40 01 00 00 00 	@00@0000(>0@0000
  0x55160	10 31 02 40 01 00 00 00 20 31 02 40 01 00 00 00 	010@0000 10@0000
  0x55170	30 31 02 40 01 00 00 00 40 31 02 40 01 00 00 00 	010@0000@10@0000
  0x55180	50 31 02 40 01 00 00 00 30 2f 02 40 01 00 00 00 	P10@00000/0@0000
  0x55190	10 2f 02 40 01 00 00 00 00 2f 02 40 01 00 00 00 	0/0@00000/0@0000
  0x551a0	20 2f 02 40 01 00 00 00 e0 2e 02 40 01 00 00 00 	 /0@00000.0@0000
  0x551b0	f0 2e 02 40 01 00 00 00 d0 2e 02 40 01 00 00 00 	0.0@00000.0@0000
  0x551c0	00 2c 02 40 01 00 00 00 90 53 02 40 01 00 00 00 	0,0@00000S0@0000
  0x551d0	90 52 02 40 01 00 00 00 78 3e 06 40 01 00 00 00 	0R0@0000x>0@0000
  0x551e0	80 72 04 40 01 00 00 00 80 72 04 40 01 00 00 00 	0r0@00000r0@0000
  0x551f0	d0 61 02 40 01 00 00 00 30 3f 06 40 01 00 00 00 	0a0@00000?0@0000
  0x55200	f0 7a 02 40 01 00 00 00 a0 7a 02 40 01 00 00 00 	0z0@00000z0@0000
  0x55210	d0 72 02 40 01 00 00 00 80 71 02 40 01 00 00 00 	0r0@00000q0@0000
  0x55220	b0 70 02 40 01 00 00 00 c0 72 02 40 01 00 00 00 	0p0@00000r0@0000
  0x55230	f0 40 06 40 01 00 00 00 f0 80 00 40 01 00 00 00 	0@0@0000000@0000
  0x55240	c0 81 00 40 01 00 00 00 80 72 04 40 01 00 00 00 	000@00000r0@0000
  0x55250	10 40 06 40 01 00 00 00 b0 8c 02 40 01 00 00 00 	0@0@0000000@0000
  0x55260	a0 8c 02 40 01 00 00 00 90 8c 02 40 01 00 00 00 	000@0000000@0000
  0x55270	f8 42 06 40 01 00 00 00 d0 90 02 40 01 00 00 00 	0B0@0000000@0000
  0x55280	60 43 06 40 01 00 00 00 f0 7a 02 40 01 00 00 00 	`C0@00000z0@0000
  0x55290	a0 7a 02 40 01 00 00 00 50 9f 02 40 01 00 00 00 	0z0@0000P00@0000
  0x552a0	a0 96 02 40 01 00 00 00 c0 97 02 40 01 00 00 00 	000@0000000@0000
  0x552b0	40 98 02 40 01 00 00 00 20 43 06 40 01 00 00 00 	@00@0000 C0@0000
  0x552c0	f0 7a 02 40 01 00 00 00 a0 7a 02 40 01 00 00 00 	0z0@00000z0@0000
  0x552d0	20 90 02 40 01 00 00 00 90 8e 02 40 01 00 00 00 	 00@0000000@0000
  0x552e0	10 90 02 40 01 00 00 00 70 45 06 40 01 00 00 00 	000@0000pE0@0000
  0x552f0	20 c8 02 40 01 00 00 00 90 c5 02 40 01 00 00 00 	 00@0000000@0000
  0x55300	30 c6 02 40 01 00 00 00 d0 c6 02 40 01 00 00 00 	000@0000000@0000
  0x55310	48 44 06 40 01 00 00 00 b0 c7 02 40 01 00 00 00 	HD0@0000000@0000
  0x55320	90 c3 02 40 01 00 00 00 70 c7 02 40 01 00 00 00 	000@0000p00@0000
  0x55330	b0 45 06 40 01 00 00 00 10 c3 02 40 01 00 00 00 	0E0@0000000@0000
  0x55340	10 c1 02 40 01 00 00 00 b0 c1 02 40 01 00 00 00 	000@0000000@0000
  0x55350	d8 45 06 40 01 00 00 00 90 c2 02 40 01 00 00 00 	0E0@0000000@0000
  0x55360	20 bf 02 40 01 00 00 00 c0 bf 02 40 01 00 00 00 	 00@0000000@0000
  0x55370	70 c0 02 40 01 00 00 00 90 47 06 40 01 00 00 00 	p00@00000G0@0000
  0x55380	a0 d0 02 40 01 00 00 00 10 47 06 40 01 00 00 00 	000@00000G0@0000
  0x55390	80 cf 02 40 01 00 00 00 f8 47 06 40 01 00 00 00 	000@00000G0@0000
  0x553a0	00 e4 02 40 01 00 00 00 d8 48 06 40 01 00 00 00 	000@00000H0@0000
  0x553b0	b0 e3 02 40 01 00 00 00 28 49 06 40 01 00 00 00 	000@0000(I0@0000
  0x553c0	f0 7a 02 40 01 00 00 00 a0 7a 02 40 01 00 00 00 	0z0@00000z0@0000
  0x553d0	10 ea 02 40 01 00 00 00 c0 e6 02 40 01 00 00 00 	000@0000000@0000
  0x553e0	10 e6 02 40 01 00 00 00 a0 e8 02 40 01 00 00 00 	000@0000000@0000
  0x553f0	e0 fa 02 40 01 00 00 00 10 fb 02 40 01 00 00 00 	000@0000000@0000
  0x55400	30 fb 02 40 01 00 00 00 20 fc 02 40 01 00 00 00 	000@0000 00@0000
  0x55410	80 00 00 00 14 00 00 00 40 00 00 00 60 00 00 00 	00000000@000`000
  0x55420	20 00 00 00 00 00 00 00 00 00 00 00 00 00 00 00 	 000000000000000
  0x55430	a8 f0 05 40 01 00 00 00 e0 f0 05 40 01 00 00 00 	000@0000000@0000
  0x55440	30 ed 05 40 01 00 00 00 00 00 00 00 00 00 00 00 	000@000000000000
  0x55450	58 ed 05 40 01 00 00 00 01 00 00 00 00 00 00 00 	X00@000000000000
  0x55460	78 ed 05 40 01 00 00 00 00 00 00 00 00 00 00 00 	x00@000000000000
  0x55470	a8 ed 05 40 01 00 00 00 00 00 00 00 00 00 00 00 	000@000000000000
  0x55480	d0 ed 05 40 01 00 00 00 02 00 00 00 00 00 00 00 	000@000000000000
  0x55490	e8 ea 05 40 01 00 00 00 00 00 00 00 00 00 00 00 	000@000000000000
  0x554a0	08 eb 05 40 01 00 00 00 00 00 00 00 00 00 00 00 	000@000000000000
  0x554b0	40 eb 05 40 01 00 00 00 01 00 00 00 00 00 00 00 	@00@000000000000
  0x554c0	60 eb 05 40 01 00 00 00 01 00 00 00 00 00 00 00 	`00@000000000000
  0x554d0	88 eb 05 40 01 00 00 00 01 00 00 00 00 00 00 00 	000@000000000000
  0x554e0	f8 eb 05 40 01 00 00 00 01 00 00 00 00 00 00 00 	000@000000000000
  0x554f0	30 ec 05 40 01 00 00 00 00 00 00 00 00 00 00 00 	000@000000000000
  0x55500	70 ec 05 40 01 00 00 00 00 00 00 00 00 00 00 00 	p00@000000000000
  0x55510	90 ec 05 40 01 00 00 00 00 00 00 00 00 00 00 00 	000@000000000000
  0x55520	a8 ec 05 40 01 00 00 00 00 00 00 00 00 00 00 00 	000@000000000000
  0x55530	e0 ec 05 40 01 00 00 00 00 00 00 00 00 00 00 00 	000@000000000000
  0x55540	08 ed 05 40 01 00 00 00 00 00 00 00 00 00 00 00 	000@000000000000
  0x55550	90 49 06 40 01 00 00 00 60 a3 04 40 01 00 00 00 	0I0@0000`00@0000
  0x55560	c0 81 00 40 01 00 00 00 10 4a 06 40 01 00 00 00 	000@00000J0@0000
  0x55570	60 a3 04 40 01 00 00 00 c0 81 00 40 01 00 00 00 	`00@0000000@0000
  0x55580	90 4a 06 40 01 00 00 00 60 a3 04 40 01 00 00 00 	0J0@0000`00@0000
  0x55590	c0 81 00 40 01 00 00 00 00 00 00 00 00 00 00 00 	000@000000000000
  0x555a0	40 01 00 00 00 00 00 00 00 00 00 00 00 00 00 00 	@000000000000000
  0x555b0	00 00 00 00 00 00 00 00 00 00 00 00 00 00 00 00 	0000000000000000
  0x555c0	00 00 00 00 00 00 00 00 00 00 00 00 00 00 00 00 	0000000000000000
  0x555d0	00 00 00 00 00 00 00 00 00 00 00 00 00 00 00 00 	0000000000000000
  0x555e0	00 00 00 00 00 00 00 00 00 00 00 00 00 00 00 00 	0000000000000000
  0x555f0	00 00 00 00 00 00 00 00 60 1a 07 40 01 00 00 00 	00000000`00@0000
  0x55600	00 00 00 00 00 00 00 00 00 00 00 00 00 00 00 00 	0000000000000000
  0x55610	18 60 05 40 01 00 00 00 28 60 05 40 01 00 00 00 	0`0@0000(`0@0000
  0x55620	f8 63 05 40 01 00 00 00 a0 01 00 00 00 00 00 00 	0c0@000000000000
  0x55630	00 75 c1 10 00 00 00 00 00 00 00 00 00 00 00 00 	0u00000000000000
  0x55640	18 6c 05 40 01 00 00 00 05 00 00 00 00 00 00 00 	0l0@000000000000
  0x55650	00 00 00 00 00 00 00 00 00 00 00 00 00 00 00 00 	0000000000000000
  0x55660	00 00 00 00 00 00 00 00 00 00 00 00 00 00 00 00 	0000000000000000
  0x55670	00 00 00 00 00 00 00 00 00 00 00 00 00 00 00 00 	0000000000000000
  0x55680	00 00 00 00 00 00 00 00 00 00 00 00 00 00 00 00 	0000000000000000
  0x55690	00 00 00 00 00 00 00 00 00 00 00 00 00 00 00 00 	0000000000000000
  0x556a0	00 00 00 00 00 00 00 00 30 61 05 40 01 00 00 00 	000000000a0@0000
  0x556b0	8e 00 00 00 00 00 00 00 20 60 05 40 01 00 00 00 	00000000 `0@0000
  0x556c0	30 60 05 40 01 00 00 00 38 60 05 40 01 00 00 00 	0`0@00008`0@0000
  0x556d0	40 60 05 40 01 00 00 00 48 60 05 40 01 00 00 00 	@`0@0000H`0@0000
  0x556e0	b0 5d 06 40 01 00 00 00 b8 5d 06 40 01 00 00 00 	0]0@00000]0@0000
  0x556f0	b8 2e 07 40 01 00 00 00 f0 60 05 40 01 00 00 00 	0.0@00000`0@0000
  0x55700	00 00 00 00 00 00 30 00 38 c0 06 00 00 00 00 00 	0000000080000000
  0x55710	50 c0 06 00 00 00 00 00 66 c0 06 00 00 00 00 00 	P0000000f0000000
  0x55720	7c c0 06 00 00 00 00 00 92 c0 06 00 00 00 00 00 	|000000000000000
  0x55730	a2 c0 06 00 00 00 00 00 be c0 06 00 00 00 00 00 	0000000000000000
  0x55740	cc c0 06 00 00 00 00 00 e6 c0 06 00 00 00 00 00 	0000000000000000
  0x55750	fc c0 06 00 00 00 00 00 da c9 06 00 00 00 00 00 	0000000000000000
  0x55760	d0 c9 06 00 00 00 00 00 b6 c9 06 00 00 00 00 00 	0000000000000000
  0x55770	ac c9 06 00 00 00 00 00 94 c9 06 00 00 00 00 00 	0000000000000000
  0x55780	7a c9 06 00 00 00 00 00 6a c9 06 00 00 00 00 00 	z0000000j0000000
  0x55790	54 c9 06 00 00 00 00 00 3e c9 06 00 00 00 00 00 	T0000000>0000000
  0x557a0	2c c9 06 00 00 00 00 00 1c c9 06 00 00 00 00 00 	,000000000000000
  0x557b0	06 c9 06 00 00 00 00 00 f6 c8 06 00 00 00 00 00 	0000000000000000
  0x557c0	e6 c8 06 00 00 00 00 00 d4 c8 06 00 00 00 00 00 	0000000000000000
  0x557d0	c2 c8 06 00 00 00 00 00 b2 c8 06 00 00 00 00 00 	0000000000000000
  0x557e0	a0 c8 06 00 00 00 00 00 8c c8 06 00 00 00 00 00 	0000000000000000
  0x557f0	78 c8 06 00 00 00 00 00 66 c8 06 00 00 00 00 00 	x0000000f0000000
  0x55800	56 c8 06 00 00 00 00 00 44 c8 06 00 00 00 00 00 	V0000000D0000000
  0x55810	2c c8 06 00 00 00 00 00 14 c8 06 00 00 00 00 00 	,000000000000000
  0x55820	fc c7 06 00 00 00 00 00 c4 c7 06 00 00 00 00 00 	0000000000000000
  0x55830	00 00 00 00 00 00 00 00 be d2 06 00 00 00 00 00 	0000000000000000
  0x55840	a6 d2 06 00 00 00 00 00 00 00 00 00 00 00 00 00 	0000000000000000
  0x55850	b4 d3 06 00 00 00 00 00 0a d4 06 00 00 00 00 00 	0000000000000000
  0x55860	f6 d3 06 00 00 00 00 00 e6 d3 06 00 00 00 00 00 	0000000000000000
  0x55870	c8 d3 06 00 00 00 00 00 90 d3 06 00 00 00 00 00 	0000000000000000
  0x55880	00 00 00 00 00 00 00 00 24 d1 06 00 00 00 00 00 	00000000$0000000
  0x55890	00 00 00 00 00 00 00 00 06 d1 06 00 00 00 00 00 	0000000000000000
  0x558a0	ec d0 06 00 00 00 00 00 d4 d0 06 00 00 00 00 00 	0000000000000000
  0x558b0	be d0 06 00 00 00 00 00 a0 d0 06 00 00 00 00 00 	0000000000000000
  0x558c0	16 d1 06 00 00 00 00 00 6a d4 06 00 00 00 00 00 	00000000j0000000
  0x558d0	7a d4 06 00 00 00 00 00 88 d4 06 00 00 00 00 00 	z000000000000000
  0x558e0	a4 d4 06 00 00 00 00 00 b8 d4 06 00 00 00 00 00 	0000000000000000
  0x558f0	ca d4 06 00 00 00 00 00 a0 c3 06 00 00 00 00 00 	0000000000000000
  0x55900	8e c3 06 00 00 00 00 00 82 c3 06 00 00 00 00 00 	0000000000000000
  0x55910	6c c3 06 00 00 00 00 00 56 c3 06 00 00 00 00 00 	l0000000V0000000
  0x55920	4a c3 06 00 00 00 00 00 3a c3 06 00 00 00 00 00 	J0000000:0000000
  0x55930	26 c3 06 00 00 00 00 00 16 c3 06 00 00 00 00 00 	&000000000000000
  0x55940	06 c3 06 00 00 00 00 00 ee c2 06 00 00 00 00 00 	0000000000000000
  0x55950	e0 c2 06 00 00 00 00 00 d8 c2 06 00 00 00 00 00 	0000000000000000
  0x55960	c8 c2 06 00 00 00 00 00 ba c2 06 00 00 00 00 00 	0000000000000000
  0x55970	ac c2 06 00 00 00 00 00 9c c2 06 00 00 00 00 00 	0000000000000000
  0x55980	88 c2 06 00 00 00 00 00 6e c2 06 00 00 00 00 00 	00000000n0000000
  0x55990	5c c2 06 00 00 00 00 00 42 c2 06 00 00 00 00 00 	00000000B0000000
  0x559a0	2a c2 06 00 00 00 00 00 1a c2 06 00 00 00 00 00 	*000000000000000
  0x559b0	04 c2 06 00 00 00 00 00 f4 c1 06 00 00 00 00 00 	0000000000000000
  0x559c0	e6 c1 06 00 00 00 00 00 d2 c1 06 00 00 00 00 00 	0000000000000000
  0x559d0	be c1 06 00 00 00 00 00 b0 c1 06 00 00 00 00 00 	0000000000000000
  0x559e0	a4 c1 06 00 00 00 00 00 92 c1 06 00 00 00 00 00 	0000000000000000
  0x559f0	80 c1 06 00 00 00 00 00 6a c1 06 00 00 00 00 00 	00000000j0000000
  0x55a00	4e c1 06 00 00 00 00 00 30 c1 06 00 00 00 00 00 	N000000000000000
  0x55a10	20 c1 06 00 00 00 00 00 f6 c9 06 00 00 00 00 00 	 000000000000000
  0x55a20	06 ca 06 00 00 00 00 00 1a ca 06 00 00 00 00 00 	0000000000000000
  0x55a30	36 ca 06 00 00 00 00 00 54 ca 06 00 00 00 00 00 	60000000T0000000
  0x55a40	68 ca 06 00 00 00 00 00 7c ca 06 00 00 00 00 00 	h0000000|0000000
  0x55a50	98 ca 06 00 00 00 00 00 a4 ca 06 00 00 00 00 00 	0000000000000000
  0x55a60	b0 ca 06 00 00 00 00 00 c8 ca 06 00 00 00 00 00 	0000000000000000
  0x55a70	e0 ca 06 00 00 00 00 00 f8 ca 06 00 00 00 00 00 	0000000000000000
  0x55a80	0c cb 06 00 00 00 00 00 22 cb 06 00 00 00 00 00 	00000000"0000000
  0x55a90	32 cb 06 00 00 00 00 00 40 cb 06 00 00 00 00 00 	20000000@0000000
  0x55aa0	52 cb 06 00 00 00 00 00 62 cb 06 00 00 00 00 00 	R0000000b0000000
  0x55ab0	6e cb 06 00 00 00 00 00 7c cb 06 00 00 00 00 00 	n0000000|0000000
  0x55ac0	8a cb 06 00 00 00 00 00 94 cb 06 00 00 00 00 00 	0000000000000000
  0x55ad0	bc cb 06 00 00 00 00 00 ce cb 06 00 00 00 00 00 	0000000000000000
  0x55ae0	e0 cb 06 00 00 00 00 00 f2 cb 06 00 00 00 00 00 	0000000000000000
  0x55af0	02 cc 06 00 00 00 00 00 10 cc 06 00 00 00 00 00 	0000000000000000
  0x55b00	26 cc 06 00 00 00 00 00 38 cc 06 00 00 00 00 00 	&000000080000000
  0x55b10	4a cc 06 00 00 00 00 00 54 cc 06 00 00 00 00 00 	J0000000T0000000
  0x55b20	60 cc 06 00 00 00 00 00 6c cc 06 00 00 00 00 00 	`0000000l0000000
  0x55b30	82 cc 06 00 00 00 00 00 98 cc 06 00 00 00 00 00 	0000000000000000
  0x55b40	a8 cc 06 00 00 00 00 00 bc cc 06 00 00 00 00 00 	0000000000000000
  0x55b50	ce cc 06 00 00 00 00 00 de cc 06 00 00 00 00 00 	0000000000000000
  0x55b60	f8 cc 06 00 00 00 00 00 0c cd 06 00 00 00 00 00 	0000000000000000
  0x55b70	22 cd 06 00 00 00 00 00 34 cd 06 00 00 00 00 00 	"000000040000000
  0x55b80	4a cd 06 00 00 00 00 00 5a cd 06 00 00 00 00 00 	J0000000Z0000000
  0x55b90	70 cd 06 00 00 00 00 00 7c cd 06 00 00 00 00 00 	p0000000|0000000
  0x55ba0	8a cd 06 00 00 00 00 00 9c cd 06 00 00 00 00 00 	0000000000000000
  0x55bb0	ac cd 06 00 00 00 00 00 c6 cd 06 00 00 00 00 00 	0000000000000000
  0x55bc0	e0 cd 06 00 00 00 00 00 fa cd 06 00 00 00 00 00 	0000000000000000
  0x55bd0	14 ce 06 00 00 00 00 00 2a ce 06 00 00 00 00 00 	00000000*0000000
  0x55be0	3a ce 06 00 00 00 00 00 58 ce 06 00 00 00 00 00 	:0000000X0000000
  0x55bf0	6a ce 06 00 00 00 00 00 76 ce 06 00 00 00 00 00 	j0000000v0000000
  0x55c00	82 ce 06 00 00 00 00 00 92 ce 06 00 00 00 00 00 	0000000000000000
  0x55c10	a2 ce 06 00 00 00 00 00 bc ce 06 00 00 00 00 00 	0000000000000000
  0x55c20	ca ce 06 00 00 00 00 00 e0 ce 06 00 00 00 00 00 	0000000000000000
  0x55c30	f4 ce 06 00 00 00 00 00 04 cf 06 00 00 00 00 00 	0000000000000000
  0x55c40	14 cf 06 00 00 00 00 00 24 cf 06 00 00 00 00 00 	00000000$0000000
  0x55c50	36 cf 06 00 00 00 00 00 42 cf 06 00 00 00 00 00 	60000000B0000000
  0x55c60	50 cf 06 00 00 00 00 00 62 cf 06 00 00 00 00 00 	P0000000b0000000
  0x55c70	76 cf 06 00 00 00 00 00 88 cf 06 00 00 00 00 00 	v000000000000000
  0x55c80	9c cf 06 00 00 00 00 00 ac cf 06 00 00 00 00 00 	0000000000000000
  0x55c90	c8 cf 06 00 00 00 00 00 de cf 06 00 00 00 00 00 	0000000000000000
  0x55ca0	f4 cf 06 00 00 00 00 00 04 d0 06 00 00 00 00 00 	0000000000000000
  0x55cb0	12 d0 06 00 00 00 00 00 26 d0 06 00 00 00 00 00 	00000000&0000000
  0x55cc0	3c d0 06 00 00 00 00 00 52 d0 06 00 00 00 00 00 	<0000000R0000000
  0x55cd0	68 d0 06 00 00 00 00 00 7a d0 06 00 00 00 00 00 	h0000000z0000000
  0x55ce0	90 d0 06 00 00 00 00 00 dc d4 06 00 00 00 00 00 	0000000000000000
  0x55cf0	00 00 00 00 00 00 00 00 08 00 00 00 00 00 00 80 	0000000000000000
  0x55d00	04 00 00 00 00 00 00 80 07 00 00 00 00 00 00 80 	0000000000000000
  0x55d10	02 00 00 00 00 00 00 80 06 00 00 00 00 00 00 80 	0000000000000000
  0x55d20	09 00 00 00 00 00 00 80 14 00 00 00 00 00 00 80 	0000000000000000
  0x55d30	13 00 00 00 00 00 00 80 19 00 00 00 00 00 00 80 	0000000000000000
  0x55d40	00 00 00 00 00 00 00 00 88 c6 06 00 00 00 00 00 	0000000000000000
  0x55d50	00 00 00 00 00 00 00 00 a6 c6 06 00 00 00 00 00 	0000000000000000
  0x55d60	dc c6 06 00 00 00 00 00 00 c7 06 00 00 00 00 00 	0000000000000000
  0x55d70	be c6 06 00 00 00 00 00 00 00 00 00 00 00 00 00 	0000000000000000
  0x55d80	de d2 06 00 00 00 00 00 b0 c5 06 00 00 00 00 00 	0000000000000000
  0x55d90	c2 c5 06 00 00 00 00 00 da c5 06 00 00 00 00 00 	0000000000000000
  0x55da0	f0 c5 06 00 00 00 00 00 06 c6 06 00 00 00 00 00 	0000000000000000
  0x55db0	00 00 00 00 00 00 00 00 04 c4 06 00 00 00 00 00 	0000000000000000
  0x55dc0	60 c4 06 00 00 00 00 00 52 c4 06 00 00 00 00 00 	`0000000R0000000
  0x55dd0	40 c4 06 00 00 00 00 00 30 c4 06 00 00 00 00 00 	@000000000000000
  0x55de0	14 c4 06 00 00 00 00 00 f8 c3 06 00 00 00 00 00 	0000000000000000
  0x55df0	92 c5 06 00 00 00 00 00 80 c5 06 00 00 00 00 00 	0000000000000000
  0x55e00	70 c5 06 00 00 00 00 00 5c c5 06 00 00 00 00 00 	p000000000000000
  0x55e10	48 c5 06 00 00 00 00 00 ec c3 06 00 00 00 00 00 	H000000000000000
  0x55e20	28 c5 06 00 00 00 00 00 14 c5 06 00 00 00 00 00 	(000000000000000
  0x55e30	02 c5 06 00 00 00 00 00 22 c4 06 00 00 00 00 00 	00000000"0000000
  0x55e40	dc c4 06 00 00 00 00 00 ca c4 06 00 00 00 00 00 	0000000000000000
  0x55e50	ba c4 06 00 00 00 00 00 a6 c4 06 00 00 00 00 00 	0000000000000000
  0x55e60	3e d1 06 00 00 00 00 00 4c d1 06 00 00 00 00 00 	>0000000L0000000
  0x55e70	62 d1 06 00 00 00 00 00 74 d1 06 00 00 00 00 00 	b0000000t0000000
  0x55e80	86 d1 06 00 00 00 00 00 98 d1 06 00 00 00 00 00 	0000000000000000
  0x55e90	a4 d1 06 00 00 00 00 00 b2 d1 06 00 00 00 00 00 	0000000000000000
  0x55ea0	be d1 06 00 00 00 00 00 d4 d1 06 00 00 00 00 00 	0000000000000000
  0x55eb0	e8 d1 06 00 00 00 00 00 fa d1 06 00 00 00 00 00 	0000000000000000
  0x55ec0	06 d2 06 00 00 00 00 00 1e d2 06 00 00 00 00 00 	0000000000000000
  0x55ed0	30 d2 06 00 00 00 00 00 38 d2 06 00 00 00 00 00 	0000000080000000
  0x55ee0	44 d2 06 00 00 00 00 00 50 d2 06 00 00 00 00 00 	D0000000P0000000
  0x55ef0	5c d2 06 00 00 00 00 00 68 d2 06 00 00 00 00 00 	00000000h0000000
  0x55f00	78 d2 06 00 00 00 00 00 86 d2 06 00 00 00 00 00 	x000000000000000
  0x55f10	98 d2 06 00 00 00 00 00 92 c4 06 00 00 00 00 00 	0000000000000000
  0x55f20	7e c4 06 00 00 00 00 00 6e c4 06 00 00 00 00 00 	~0000000n0000000
  0x55f30	ee c4 06 00 00 00 00 00 dc c3 06 00 00 00 00 00 	0000000000000000
  0x55f40	c8 c3 06 00 00 00 00 00 bc c3 06 00 00 00 00 00 	0000000000000000
  0x55f50	3a c5 06 00 00 00 00 00 00 00 00 00 00 00 00 00 	:000000000000000
  0x55f60	44 d4 06 00 00 00 00 00 2a d4 06 00 00 00 00 00 	D0000000*0000000
  0x55f70	00 00 00 00 00 00 00 00 70 d3 06 00 00 00 00 00 	00000000p0000000
  0x55f80	2e d3 06 00 00 00 00 00 4e d3 06 00 00 00 00 00 	.0000000N0000000
  0x55f90	00 00 00 00 00 00 00 00 7e c7 06 00 00 00 00 00 	00000000~0000000
  0x55fa0	70 c7 06 00 00 00 00 00 92 c7 06 00 00 00 00 00 	p000000000000000
  0x55fb0	aa c7 06 00 00 00 00 00 2e c7 06 00 00 00 00 00 	00000000.0000000
  0x55fc0	42 c7 06 00 00 00 00 00 5c c7 06 00 00 00 00 00 	B000000000000000
  0x55fd0	00 00 00 00 00 00 00 00 4a c6 06 00 00 00 00 00 	00000000J0000000
  0x55fe0	3a c6 06 00 00 00 00 00 26 c6 06 00 00 00 00 00 	:0000000&0000000
  0x55ff0	ee d2 06 00 00 00 00 00 00 d3 06 00 00 00 00 00 	0000000000000000
  0x56000	1c d3 06 00 00 00 00 00 5c c6 06 00 00 00 00 00 	0000000000000000
  0x56010	00 00 00 00 00 00 00 00 60 59 04 40 01 00 00 00 	00000000`Y0@0000
  0x56020	60 59 04 40 01 00 00 00 40 ee 04 40 01 00 00 00 	`Y0@0000@00@0000
  0x56030	60 ee 04 40 01 00 00 00 60 ee 04 40 01 00 00 00 	`00@0000`00@0000
  0x56040	00 00 00 00 00 00 00 00 d0 74 04 40 01 00 00 00 	000000000t0@0000
  0x56050	00 00 00 00 00 00 00 00 f0 50 04 40 01 00 00 00 	000000000P0@0000
  0x56060	b0 17 00 40 01 00 00 00 d0 17 00 40 01 00 00 00 	000@0000000@0000
  0x56070	10 18 00 40 01 00 00 00 30 18 00 40 01 00 00 00 	000@0000000@0000
  0x56080	00 00 00 00 00 00 00 00 00 00 00 00 00 00 00 00 	0000000000000000
  0x56090	20 50 04 40 01 00 00 00 d0 50 04 40 01 00 00 00 	 P0@00000P0@0000
  0x560a0	60 10 03 40 01 00 00 00 90 10 03 40 01 00 00 00 	`00@0000000@0000
  0x560b0	70 7b 03 40 01 00 00 00 d0 f5 03 40 01 00 00 00 	p{0@0000000@0000
  0x560c0	80 dd 03 40 01 00 00 00 b0 2e 04 40 01 00 00 00 	000@00000.0@0000
  0x560d0	d0 c7 04 40 01 00 00 00 00 e5 04 40 01 00 00 00 	000@0000000@0000
  0x560e0	00 00 00 00 00 00 00 00 00 00 00 00 00 00 00 00 	0000000000000000
  0x560f0	00 00 00 00 00 00 00 00 00 00 00 00 00 00 00 00 	0000000000000000
  0x56100	c0 84 03 40 01 00 00 00 70 49 04 40 01 00 00 00 	000@0000pI0@0000
  0x56110	a0 7c 03 40 01 00 00 00 00 00 00 00 00 00 00 00 	0|0@000000000000
  0x56120	00 00 00 00 00 00 00 00 00 00 00 00 00 00 00 00 	0000000000000000
  0x56130	31 32 00 00 00 62 32 00 00 00 8c 3a 00 00 00 c6 	12000b20000:0000
  0x56140	3a 00 00 00 89 3c 00 00 00 a0 3c 00 00 00 41 52 	:0000<0000<000AR
  0x56150	00 00 00 1a 5f 00 00 00 2f 5f 00 00 00 9a 83 00 	0000_000/_000000
  0x56160	00 00 17 89 00 00 00 2b 89 00 00 00 3d 97 00 00 	0000000+0000=000
  0x56170	00 7a 97 00 00 00 e8 b2 00 00 00 0a b3 00 00 00 	0z00000000000000
  0x56180	15 bd 00 00 00 8e c0 00 00 00 62 c8 00 00 00 47 	0000000000b0000G
  0x56190	cf 00 00 00 55 cf 00 00 00 38 d1 00 00 00 9d d1 	0000U00008000000
  0x561a0	00 00 00 ab d2 00 00 00 4c dc 00 00 00 5f dc 00 	00000000L0000_00
  0x561b0	00 00 16 e5 00 00 00 ce eb 00 00 00 e5 eb 00 00 	0000000000000000
  0x561c0	00 8d ec 00 00 00 a4 ec 00 00 00 ba ed 00 00 00 	0000000000000000
  0x561d0	1c 04 01 00 00 52 04 01 00 00 6c 0b 01 00 00 8b 	00000R0000l00000
  0x561e0	0b 01 00 00 ed 0f 01 00 00 f3 0f 01 00 00 7d 1b 	00000000000000}0
  0x561f0	01 00 00 9e 1b 01 00 00 50 25 01 00 00 0c 26 01 	00000000P%0000&0
  0x56200	00 00 16 26 01 00 00 2a 38 01 00 00 31 38 01 00 	000&000*80001800
  0x56210	00 58 3d 01 00 00 e3 3d 01 00 00 08 41 01 00 00 	0X=0000=0000A000
  0x56220	f1 43 01 00 00 32 49 01 00 00 3d 49 01 00 00 77 	0C0002I000=I000w
  0x56230	4d 01 00 00 a1 4d 01 00 00 c3 55 01 00 00 c5 56 	M0000M0000U0000V
  0x56240	01 00 00 78 5e 01 00 00 c8 8e 01 00 00 d4 8e 01 	000x^00000000000
  0x56250	00 00 4a 92 01 00 00 66 92 01 00 00 55 95 01 00 	00J0000f0000U000
  0x56260	00 61 95 01 00 00 34 b2 01 00 00 41 b2 01 00 00 	0a000040000A0000
  0x56270	2d ea 01 00 00 3b ea 01 00 00 10 ee 01 00 00 21 	-0000;000000000!
  0x56280	ee 01 00 00 c6 fd 01 00 00 d3 fd 01 00 00 24 18 	00000000000000$0
  0x56290	02 00 00 2a 18 02 00 00 e6 18 02 00 00 fa 18 02 	000*000000000000
  0x562a0	00 00 58 1f 02 00 00 63 1f 02 00 00 02 29 02 00 	00X0000c00000)00
  0x562b0	00 63 30 02 00 00 ba 31 02 00 00 ce 31 02 00 00 	0c00000100001000
  0x562c0	73 32 02 00 00 8c 32 02 00 00 41 34 02 00 00 50 	s200002000A4000P
  0x562d0	34 02 00 00 78 55 02 00 00 54 57 02 00 00 76 58 	4000xU000TW000vX
  0x562e0	02 00 00 28 59 02 00 00 71 7b 02 00 00 77 7b 02 	000(Y000q{000w{0
  0x562f0	00 00 4b 8e 02 00 00 54 8e 02 00 00 56 8e 02 00 	00K0000T0000V000
  0x56300	00 58 8e 02 00 00 ea 8f 02 00 00 f6 8f 02 00 00 	0X00000000000000
  0x56310	cf 91 02 00 00 db 91 02 00 00 17 9e 02 00 00 1d 	0000000000000000
  0x56320	9e 02 00 00 a6 cb 02 00 00 ac cb 02 00 00 0a cc 	0000000000000000
  0x56330	02 00 00 10 cc 02 00 00 d9 d8 02 00 00 e3 d8 02 	0000000000000000
  0x56340	00 00 70 df 02 00 00 76 df 02 00 00 1e e3 02 00 	00p0000v00000000
  0x56350	00 24 e3 02 00 00 86 e3 02 00 00 8c e3 02 00 00 	0$00000000000000
  0x56360	3f e5 02 00 00 45 e5 02 00 00 df e9 02 00 00 f3 	?0000E0000000000
  0x56370	e9 02 00 00 31 ed 02 00 00 37 ed 02 00 00 88 fa 	0000100007000000
  0x56380	02 00 00 94 fa 02 00 00 7d 97 03 00 00 b4 f1 03 	00000000}0000000
  0x56390	00 00 40 2b 04 00 00 ad 48 04 00 00 3e 52 04 00 	00@+0000H000>R00
  0x563a0	00 01 56 04 00 00 95 5d 04 00 00 7d 60 04 00 00 	00V0000]000}`000
  0x563b0	d9 60 04 00 00 48 6d 04 00 00 16 86 04 00 00 21 	0`000Hm00000000!
  0x563c0	88 04 00 00 e2 88 04 00 00 a3 89 04 00 00 aa a4 	0000000000000000
  0x563d0	04 00 00 fd a6 04 00 00 68 ab 04 00 00 6d ae 04 	00000000h0000m00
  0x563e0	00 00 42 be 04 00 00 10 e4 04 00 00 e8 e4 04 00 	00B0000000000000
  0x563f0	00 e3 ed 04 00 00 00 00 10 17 00 00 08 b0 17 00 	0000000000000000
  0x56400	00 08 d0 17 00 00 08 10 18 00 00 08 30 18 00 00 	0000000000000000
  0x56410	08 60 18 00 00 08 00 1f 00 00 08 70 23 00 00 08 	0`000000000p#000
  0x56420	80 3f 00 00 08 d0 57 00 00 08 50 6e 00 00 08 a0 	0?0000W000Pn0000
  0x56430	77 00 00 08 e0 7a 00 00 08 80 7e 00 00 08 a0 7e 	w0000z0000~0000~
  0x56440	00 00 08 b0 7e 00 00 08 c0 7e 00 00 08 e0 7e 00 	0000~0000~0000~0
  0x56450	00 08 10 7f 00 00 08 40 7f 00 00 08 60 7f 00 00 	0000000@0000`000
  0x56460	08 70 7f 00 00 08 e0 7f 00 00 08 00 80 00 00 08 	0p00000000000000
  0x56470	20 80 00 00 08 40 80 00 00 08 50 80 00 00 08 70 	 0000@0000P0000p
  0x56480	80 00 00 08 90 80 00 00 08 f0 80 00 00 08 c0 81 	0000000000000000
  0x56490	00 00 08 90 82 00 00 08 c0 82 00 00 08 c0 84 00 	0000000000000000
  0x564a0	00 08 f0 84 00 00 08 00 85 00 00 08 20 85 00 00 	000000000000 000
  0x564b0	08 30 8a 00 00 08 70 8a 00 00 08 e0 8a 00 00 08 	000000p000000000
  0x564c0	10 8b 00 00 08 20 8b 00 00 08 c0 8b 00 00 08 e0 	00000 0000000000
  0x564d0	8b 00 00 08 f0 8b 00 00 08 80 8d 00 00 08 40 8f 	00000000000000@0
  0x564e0	00 00 08 b0 94 00 00 08 c0 95 00 00 08 f0 95 00 	0000000000000000
  0x564f0	00 08 80 9a 00 00 08 90 9b 00 00 08 a0 9b 00 00 	0000000000000000
  0x56500	08 b0 9b 00 00 08 80 9d 00 00 08 e0 9d 00 00 08 	0000000000000000
  0x56510	60 9e 00 00 08 e0 9e 00 00 08 40 9f 00 00 08 90 	`000000000@00000
  0x56520	9f 00 00 08 b0 9f 00 00 08 30 a0 00 00 08 60 a0 	00000000000000`0
  0x56530	00 00 08 80 a1 00 00 08 d0 a1 00 00 08 10 a2 00 	0000000000000000
  0x56540	00 08 90 a2 00 00 08 f0 a2 00 00 08 30 a4 00 00 	0000000000000000
  0x56550	08 80 a4 00 00 08 d0 a4 00 00 08 70 a5 00 00 08 	00000000000p0000
  0x56560	60 a6 00 00 08 60 a7 00 00 08 00 a8 00 00 08 10 	`0000`0000000000
  0x56570	a8 00 00 08 50 a8 00 00 08 80 a8 00 00 08 80 ac 	0000P00000000000
  0x56580	00 00 08 f0 ac 00 00 08 00 ad 00 00 08 60 ad 00 	0000000000000`00
  0x56590	00 08 b0 ad 00 00 08 10 ae 00 00 08 00 b2 00 00 	0000000000000000
  0x565a0	08 20 b9 00 00 08 e0 b9 00 00 08 20 c3 00 00 08 	0 000000000 0000
  0x565b0	40 c3 00 00 08 50 c3 00 00 08 90 c3 00 00 08 b0 	@0000P0000000000
  0x565c0	c3 00 00 08 d0 c3 00 00 08 e0 c3 00 00 08 20 c4 	00000000000000 0
  0x565d0	00 00 08 40 c4 00 00 08 60 c4 00 00 08 a0 c4 00 	000@0000`0000000
  0x565e0	00 08 80 c5 00 00 08 90 c5 00 00 08 b0 c5 00 00 	0000000000000000
  0x565f0	08 10 d7 00 00 08 30 d7 00 00 08 40 d7 00 00 08 	00000000000@0000
  0x56600	60 d7 00 00 08 70 d7 00 00 08 c0 d7 00 00 08 d0 	`0000p0000000000
  0x56610	d7 00 00 08 f0 d7 00 00 08 20 d8 00 00 08 30 db 	000000000 000000
  0x56620	00 00 08 70 db 00 00 08 90 db 00 00 08 70 dc 00 	000p000000000p00
  0x56630	00 08 80 de 00 00 08 60 df 00 00 08 80 df 00 00 	0000000`00000000
  0x56640	08 90 df 00 00 08 50 e1 00 00 08 80 e1 00 00 08 	000000P000000000
  0x56650	b0 e3 00 00 08 30 e4 00 00 08 20 e6 00 00 08 10 	0000000000 00000
  0x56660	19 01 00 08 60 19 01 00 08 70 19 01 00 08 80 19 	0000`0000p000000
  0x56670	01 00 08 a0 19 01 00 08 c0 19 01 00 08 f0 1a 01 	0000000000000000
  0x56680	00 08 00 1c 01 00 08 c0 1c 01 00 08 e0 1c 01 00 	0000000000000000
  0x56690	08 00 1d 01 00 08 20 1d 01 00 08 40 1d 01 00 08 	000000 0000@0000
  0x566a0	60 1d 01 00 08 b0 1d 01 00 08 00 1e 01 00 08 80 	`000000000000000
  0x566b0	1e 01 00 08 90 1e 01 00 08 a0 1e 01 00 08 b0 1e 	0000000000000000
  0x566c0	01 00 08 f0 1e 01 00 08 60 1f 01 00 08 d0 1f 01 	00000000`0000000
  0x566d0	00 08 b0 28 01 00 08 f0 28 01 00 08 30 29 01 00 	000(0000(0000)00
  0x566e0	08 00 2e 01 00 08 50 2f 01 00 08 90 31 01 00 08 	00.000P/00001000
  0x566f0	10 35 01 00 08 60 36 01 00 08 90 38 01 00 08 f0 	05000`6000080000
  0x56700	38 01 00 08 40 3a 01 00 08 a0 3b 01 00 08 b0 3b 	8000@:0000;0000;
  0x56710	01 00 08 c0 3b 01 00 08 60 3c 01 00 08 a0 3c 01 	0000;000`<0000<0
  0x56720	00 08 70 48 01 00 08 d0 49 01 00 08 e0 4a 01 00 	00pH0000I0000J00
  0x56730	08 60 4b 01 00 08 b0 4d 01 00 08 c0 4d 01 00 08 	0`K0000M0000M000
  0x56740	80 4e 01 00 08 40 4f 01 00 08 20 51 01 00 08 30 	0N000@O000 Q0000
  0x56750	52 01 00 08 50 52 01 00 08 70 52 01 00 08 d0 52 	R000PR000pR0000R
  0x56760	01 00 08 90 57 01 00 08 d0 57 01 00 08 10 58 01 	0000W0000W0000X0
  0x56770	00 08 30 58 01 00 08 70 58 01 00 08 90 58 01 00 	000X000pX0000X00
  0x56780	08 d0 58 01 00 08 f0 58 01 00 08 30 59 01 00 08 	00X0000X0000Y000
  0x56790	60 59 01 00 08 a0 59 01 00 08 d0 59 01 00 08 10 	`Y0000Y0000Y0000
  0x567a0	5a 01 00 08 40 5a 01 00 08 e0 5a 01 00 08 20 5b 	Z000@Z0000Z000 [
  0x567b0	01 00 08 40 5b 01 00 08 c0 5b 01 00 08 40 5c 01 	000@[0000[000@00
  0x567c0	00 08 80 5c 01 00 08 b0 5c 01 00 08 f0 5c 01 00 	0000000000000000
  0x567d0	08 20 5d 01 00 08 a0 5d 01 00 08 e0 5d 01 00 08 	0 ]0000]0000]000
  0x567e0	00 5e 01 00 08 a0 5e 01 00 08 00 5f 01 00 08 60 	0^0000^0000_000`
  0x567f0	5f 01 00 08 e0 5f 01 00 08 d0 60 01 00 08 40 61 	_0000_0000`000@a
  0x56800	01 00 08 20 63 01 00 08 70 63 01 00 08 10 65 01 	000 c000pc0000e0
  0x56810	00 08 00 67 01 00 08 00 84 01 00 08 10 84 01 00 	000g000000000000
  0x56820	08 10 85 01 00 08 30 85 01 00 08 50 85 01 00 08 	00000000000P0000
  0x56830	60 85 01 00 08 30 86 01 00 08 50 86 01 00 08 d0 	`000000000P00000
  0x56840	92 01 00 08 f0 ad 01 00 08 30 bf 01 00 08 80 c0 	0000000000000000
  0x56850	01 00 08 00 c1 01 00 08 d0 c1 01 00 08 a0 c3 01 	0000000000000000
  0x56860	00 08 c0 c3 01 00 08 e0 c3 01 00 08 f0 c3 01 00 	0000000000000000
  0x56870	08 50 c4 01 00 08 10 c5 01 00 08 00 ef 01 00 08 	0P00000000000000
  0x56880	40 ef 01 00 08 c0 ef 01 00 08 00 f0 01 00 08 10 	@000000000000000
  0x56890	f1 01 00 08 20 f1 01 00 08 40 f1 01 00 08 b0 f1 	0000 0000@000000
  0x568a0	01 00 08 70 f2 01 00 08 d0 f2 01 00 08 e0 f3 01 	000p000000000000
  0x568b0	00 08 50 f4 01 00 08 10 f5 01 00 08 20 f6 01 00 	00P000000000 000
  0x568c0	08 40 f7 01 00 08 f0 f7 01 00 08 40 f8 01 00 08 	0@000000000@0000
  0x568d0	70 f8 01 00 08 80 f9 01 00 08 d0 f9 01 00 08 f0 	p000000000000000
  0x568e0	f9 01 00 08 10 fa 01 00 08 30 fa 01 00 08 50 fa 	00000000000000P0
  0x568f0	01 00 08 70 fa 01 00 08 50 fe 01 00 08 40 06 02 	000p0000P0000@00
  0x56900	00 08 70 0a 02 00 08 d0 0e 02 00 08 f0 0e 02 00 	00p0000000000000
  0x56910	08 90 10 02 00 08 e0 10 02 00 08 20 12 02 00 08 	00000000000 0000
  0x56920	50 18 02 00 08 80 1d 02 00 08 90 1d 02 00 08 a0 	P000000000000000
  0x56930	1d 02 00 08 b0 1d 02 00 08 c0 1d 02 00 08 d0 1d 	0000000000000000
  0x56940	02 00 08 e0 1d 02 00 08 f0 1d 02 00 08 00 1e 02 	0000000000000000
  0x56950	00 08 10 1e 02 00 08 20 1e 02 00 08 30 1e 02 00 	0000000 00000000
  0x56960	08 40 1e 02 00 08 50 1e 02 00 08 60 1e 02 00 08 	0@0000P0000`0000
  0x56970	70 1f 02 00 08 90 1f 02 00 08 40 22 02 00 08 c0 	p000000000@"0000
  0x56980	22 02 00 08 40 27 02 00 08 50 27 02 00 08 00 2c 	"000@'000P'0000,
  0x56990	02 00 08 40 2c 02 00 08 d0 2e 02 00 08 e0 2e 02 	000@,0000.0000.0
  0x569a0	00 08 f0 2e 02 00 08 00 2f 02 00 08 10 2f 02 00 	000.0000/0000/00
  0x569b0	08 20 2f 02 00 08 30 2f 02 00 08 10 31 02 00 08 	0 /0000/00001000
  0x569c0	20 31 02 00 08 30 31 02 00 08 40 31 02 00 08 50 	 100001000@1000P
  0x569d0	31 02 00 08 90 52 02 00 08 90 53 02 00 08 d0 58 	10000R0000S0000X
  0x569e0	02 00 08 d0 61 02 00 08 b0 70 02 00 08 80 71 02 	0000a0000p0000q0
  0x569f0	00 08 c0 72 02 00 08 d0 72 02 00 08 a0 7a 02 00 	000r0000r0000z00
  0x56a00	08 f0 7a 02 00 08 90 7e 02 00 08 90 8c 02 00 08 	00z0000~00000000
  0x56a10	a0 8c 02 00 08 b0 8c 02 00 08 90 8e 02 00 08 10 	0000000000000000
  0x56a20	90 02 00 08 20 90 02 00 08 d0 90 02 00 08 a0 96 	0000 00000000000
  0x56a30	02 00 08 c0 97 02 00 08 40 98 02 00 08 50 9f 02 	00000000@0000P00
  0x56a40	00 08 20 bf 02 00 08 c0 bf 02 00 08 70 c0 02 00 	00 000000000p000
  0x56a50	08 10 c1 02 00 08 b0 c1 02 00 08 90 c2 02 00 08 	0000000000000000
  0x56a60	10 c3 02 00 08 90 c3 02 00 08 90 c5 02 00 08 30 	0000000000000000
  0x56a70	c6 02 00 08 d0 c6 02 00 08 70 c7 02 00 08 b0 c7 	000000000p000000
  0x56a80	02 00 08 20 c8 02 00 08 80 cf 02 00 08 a0 d0 02 	000 000000000000
  0x56a90	00 08 60 e0 02 00 08 a0 e0 02 00 08 f0 e0 02 00 	00`0000000000000
  0x56aa0	08 b0 e3 02 00 08 00 e4 02 00 08 10 e6 02 00 08 	0000000000000000
  0x56ab0	c0 e6 02 00 08 a0 e8 02 00 08 10 ea 02 00 08 10 	0000000000000000
  0x56ac0	f3 02 00 08 30 f3 02 00 08 50 f3 02 00 08 70 f3 	000000000P0000p0
  0x56ad0	02 00 08 a0 f3 02 00 08 80 f4 02 00 08 00 f5 02 	0000000000000000
  0x56ae0	00 08 50 f5 02 00 08 e0 fa 02 00 08 10 fb 02 00 	00P0000000000000
  0x56af0	08 30 fb 02 00 08 20 fc 02 00 08 60 10 03 00 08 	000000 0000`0000
  0x56b00	90 10 03 00 08 70 7b 03 00 08 a0 7c 03 00 08 30 	00000p{0000|0000
  0x56b10	7f 03 00 08 c0 83 03 00 08 10 84 03 00 08 c0 84 	0000000000000000
  0x56b20	03 00 08 60 87 03 00 08 b0 87 03 00 08 30 8f 03 	000`000000000000
  0x56b30	00 08 60 8f 03 00 08 b0 9c 03 00 08 e0 9c 03 00 	00`0000000000000
  0x56b40	08 b0 a9 03 00 08 50 d0 03 00 08 c0 d0 03 00 08 	000000P000000000
  0x56b50	80 dd 03 00 08 d0 f5 03 00 08 b0 2e 04 00 08 30 	00000000000.0000
  0x56b60	2f 04 00 08 70 49 04 00 08 20 50 04 00 08 d0 50 	/000pI000 P0000P
  0x56b70	04 00 08 f0 50 04 00 08 90 52 04 00 08 00 53 04 	0000P0000R0000S0
  0x56b80	00 08 70 53 04 00 08 f0 58 04 00 08 60 59 04 00 	00pS0000X000`Y00
  0x56b90	08 20 5f 04 00 08 b0 5f 04 00 08 00 6d 04 00 08 	0 _0000_0000m000
  0x56ba0	80 72 04 00 08 d0 74 04 00 00 a0 80 04 00 08 60 	0r0000t00000000`
  0x56bb0	a3 04 00 08 b0 a3 04 00 08 b0 a5 04 00 08 50 b3 	00000000000000P0
  0x56bc0	04 00 00 80 b3 04 00 00 60 bb 04 00 08 80 bb 04 	00000000`0000000
  0x56bd0	00 08 b0 bb 04 00 08 c0 bb 04 00 08 e0 bb 04 00 	0000000000000000
  0x56be0	08 30 bc 04 00 08 40 bc 04 00 08 90 bc 04 00 08 	000000@000000000
  0x56bf0	e0 bd 04 00 08 00 c2 04 00 08 a0 c7 04 00 08 d0 	0000000000000000
  0x56c00	c7 04 00 08 00 e5 04 00 08 e0 e5 04 00 08 90 0d 	0000000000000000
  0x56c10	05 00 08 b0 0d 05 00 08 b8 58 05 00 00 88 59 05 	000000000X0000Y0
  0x56c20	00 00 c0 59 05 00 00 28 5c 05 00 00 b8 5c 05 00 	000Y000(00000000
  0x56c30	00 00 00 00 00 00 00 00 00 00 00 00 00 00 00 00 	0000000000000000
  0x56c40	00 00 00 00 00 00 00 00 00 00 00 00 00 00 00 00 	0000000000000000
  0x56c50	00 00 00 00 00 00 00 00 00 00 00 00 00 00 00 00 	0000000000000000
  0x56c60	00 00 00 00 00 00 00 00 00 00 00 00 00 00 00 00 	0000000000000000
  0x56c70	00 00 00 00 00 00 00 00 00 00 00 00 00 00 00 00 	0000000000000000
  0x56c80	00 00 00 00 00 00 00 00 00 00 00 00 00 00 00 00 	0000000000000000
  0x56c90	00 00 00 00 00 00 00 00 00 00 00 00 00 00 00 00 	0000000000000000
  0x56ca0	00 00 00 00 00 00 00 00 00 00 00 00 00 00 00 00 	0000000000000000
  0x56cb0	00 00 00 00 00 00 00 00 00 00 00 00 00 00 00 00 	0000000000000000
  0x56cc0	00 00 00 00 00 00 00 00 00 00 00 00 00 00 00 00 	0000000000000000
  0x56cd0	00 00 00 00 00 00 00 00 00 00 00 00 00 00 00 00 	0000000000000000
  0x56ce0	00 00 00 00 00 00 00 00 00 00 00 00 00 00 00 00 	0000000000000000
  0x56cf0	00 00 00 00 00 00 00 00 00 00 00 00 00 00 00 00 	0000000000000000
  0x56d00	00 06 00 00 00 00 00 06 00 00 00 01 00 00 00 00 	0000000000000000
  0x56d10	01 00 00 00 00 03 00 06 00 00 00 06 00 02 01 00 	0000000000000000
  0x56d20	00 04 04 05 04 05 04 05 00 05 00 05 00 05 00 05 	0000000000000000
  0x56d30	00 05 03 05 03 00 00 00 05 00 00 00 00 00 00 00 	0000000000000000
  0x56d40	00 00 02 08 02 00 03 08 05 00 05 08 00 07 00 08 	0000000000000000
  0x56d50	00 00 03 07 03 00 03 00 05 07 05 00 00 07 00 00 	0000000000000000
  0x56d60	00 00 02 00 02 00 00 08 00 07 00 00 00 00 00 00 	0000000000000000
  0x56d70	00 08 06 00 06 08 06 00 06 00 06 00 06 00 00 00 	0000000000000000
  0x56d80	00 00 07 08 07 00 07 08 07 08 07 08 07 08 00 08 	0000000000000000
  0x56d90	00 07 00 08 00 07 00 00 00 07 00 00 00 08 00 08 	0000000000000000
  0x56da0	00 08 00 00 00 00 00 08 00 07 00 08 00 00 00 07 	0000000000000000
  0x56db0	00 08 00 00 00 07 00 00 00 00 00 00 00 00 00 00 	0000000000000000
  0x56dc0	00 00 00 00 00 00 00 00 00 00 00 00 00 00 00 00 	0000000000000000
  0x56dd0	00 00 00 00 00 00 00 00 00 00 00 00 00 00 00 00 	0000000000000000
  0x56de0	00 00 00 00 00 00 00 00 00 00 00 00 00 00 00 00 	0000000000000000
  0x56df0	00 00 00 00 00 00 00 00 00 00 00 00 00 00 00 00 	0000000000000000
  0x56e00	00 06 08 00 08 00 08 06 08 00 08 01 08 00 00 00 	0000000000000000
  0x56e10	00 00 01 00 00 03 08 06 08 00 08 06 08 02 08 00 	0000000000000000
  0x56e20	01 04 00 05 00 05 04 05 04 05 04 05 08 05 08 05 	0000000000000000
  0x56e30	08 05 00 05 00 00 00 00 03 00 03 00 08 00 05 00 	0000000000000000
  0x56e40	08 00 08 08 00 00 00 08 00 00 02 08 02 07 03 08 	0000000000000000
  0x56e50	05 00 05 07 08 00 00 00 00 07 00 00 03 07 03 00 	0000000000000000
  0x56e60	03 00 05 00 05 00 08 08 00 07 00 00 00 00 02 00 	0000000000000000
  0x56e70	02 08 08 00 08 08 08 00 08 00 00 00 00 00 00 00 	0000000000000000
  0x56e80	06 00 06 08 06 00 06 08 06 08 06 08 00 08 00 08 	0000000000000000
  0x56e90	00 07 07 08 07 07 07 00 07 07 07 00 07 00 00 08 	0000000000000000
  0x56ea0	00 08 00 00 00 00 00 08 00 07 00 08 00 00 00 07 	0000000000000000
  0x56eb0	00 08 00 00 00 07 00 00 00 00 00 00 00 00 00 00 	0000000000000000
  0x56ec0	00 00 00 00 00 00 00 00 00 00 00 00 00 00 00 00 	0000000000000000
  0x56ed0	00 00 00 00 00 00 00 00 00 00 00 00 00 00 00 00 	0000000000000000
  0x56ee0	00 00 00 00 00 00 00 00 00 00 00 00 00 00 00 00 	0000000000000000
  0x56ef0	00 00 00 00 00 00 00 00 00 00 00 00 00 00 00 00 	0000000000000000
  0x56f00	28 00 6e 00 75 00 6c 00 6c 00 29 00 00 00 00 00 	(0n0u0l0l0)00000
  0x56f10	28 6e 75 6c 6c 29 00 00 00 00 00 00 00 00 00 00 	(null)0000000000
  0x56f20	01 00 00 00 16 00 00 00 02 00 00 00 02 00 00 00 	0000000000000000
  0x56f30	03 00 00 00 02 00 00 00 04 00 00 00 18 00 00 00 	0000000000000000
  0x56f40	05 00 00 00 0d 00 00 00 06 00 00 00 09 00 00 00 	0000000000000000
  0x56f50	07 00 00 00 0c 00 00 00 08 00 00 00 0c 00 00 00 	0000000000000000
  0x56f60	09 00 00 00 0c 00 00 00 0a 00 00 00 07 00 00 00 	0000000000000000
  0x56f70	0b 00 00 00 08 00 00 00 0c 00 00 00 16 00 00 00 	0000000000000000
  0x56f80	0d 00 00 00 16 00 00 00 0f 00 00 00 02 00 00 00 	0000000000000000
  0x56f90	10 00 00 00 0d 00 00 00 11 00 00 00 12 00 00 00 	0000000000000000
  0x56fa0	12 00 00 00 02 00 00 00 21 00 00 00 0d 00 00 00 	00000000!0000000
  0x56fb0	35 00 00 00 02 00 00 00 41 00 00 00 0d 00 00 00 	50000000A0000000
  0x56fc0	43 00 00 00 02 00 00 00 50 00 00 00 11 00 00 00 	C0000000P0000000
  0x56fd0	52 00 00 00 0d 00 00 00 53 00 00 00 0d 00 00 00 	R0000000S0000000
  0x56fe0	57 00 00 00 16 00 00 00 59 00 00 00 0b 00 00 00 	W0000000Y0000000
  0x56ff0	6c 00 00 00 0d 00 00 00 6d 00 00 00 20 00 00 00 	l0000000m000 000
  0x57000	70 00 00 00 1c 00 00 00 72 00 00 00 09 00 00 00 	p0000000r0000000
  0x57010	80 00 00 00 0a 00 00 00 81 00 00 00 0a 00 00 00 	0000000000000000
  0x57020	82 00 00 00 09 00 00 00 83 00 00 00 16 00 00 00 	0000000000000000
  0x57030	84 00 00 00 0d 00 00 00 91 00 00 00 29 00 00 00 	000000000000)000
  0x57040	9e 00 00 00 0d 00 00 00 a1 00 00 00 02 00 00 00 	0000000000000000
  0x57050	a4 00 00 00 0b 00 00 00 a7 00 00 00 0d 00 00 00 	0000000000000000
  0x57060	b7 00 00 00 11 00 00 00 ce 00 00 00 02 00 00 00 	0000000000000000
  0x57070	d7 00 00 00 0b 00 00 00 59 04 00 00 2a 00 00 00 	00000000Y000*000
  0x57080	18 07 00 00 0c 00 00 00 49 4e 46 00 69 6e 66 00 	00000000INF0inf0
  0x57090	4e 41 4e 00 6e 61 6e 00 4e 41 4e 28 53 4e 41 4e 	NAN0nan0NAN(SNAN
  0x570a0	29 00 00 00 00 00 00 00 6e 61 6e 28 73 6e 61 6e 	)0000000nan(snan
  0x570b0	29 00 00 00 00 00 00 00 4e 41 4e 28 49 4e 44 29 	)0000000NAN(IND)
  0x570c0	00 00 00 00 00 00 00 00 6e 61 6e 28 69 6e 64 29 	00000000nan(ind)
  0x570d0	00 00 00 00 65 2b 30 30 30 00 00 00 53 75 6e 00 	0000e+000000Sun0
  0x570e0	4d 6f 6e 00 54 75 65 00 57 65 64 00 54 68 75 00 	Mon0Tue0Wed0Thu0
  0x570f0	46 72 69 00 53 61 74 00 53 75 6e 64 61 79 00 00 	Fri0Sat0Sunday00
  0x57100	4d 6f 6e 64 61 79 00 00 54 75 65 73 64 61 79 00 	Monday00Tuesday0
  0x57110	57 65 64 6e 65 73 64 61 79 00 00 00 00 00 00 00 	Wednesday0000000
  0x57120	54 68 75 72 73 64 61 79 00 00 00 00 46 72 69 64 	Thursday0000Frid
  0x57130	61 79 00 00 00 00 00 00 53 61 74 75 72 64 61 79 	ay000000Saturday
  0x57140	00 00 00 00 4a 61 6e 00 46 65 62 00 4d 61 72 00 	0000Jan0Feb0Mar0
  0x57150	41 70 72 00 4d 61 79 00 4a 75 6e 00 4a 75 6c 00 	Apr0May0Jun0Jul0
  0x57160	41 75 67 00 53 65 70 00 4f 63 74 00 4e 6f 76 00 	Aug0Sep0Oct0Nov0
  0x57170	44 65 63 00 00 00 00 00 4a 61 6e 75 61 72 79 00 	Dec00000January0
  0x57180	46 65 62 72 75 61 72 79 00 00 00 00 4d 61 72 63 	February0000Marc
  0x57190	68 00 00 00 41 70 72 69 6c 00 00 00 4a 75 6e 65 	h000April000June
  0x571a0	00 00 00 00 4a 75 6c 79 00 00 00 00 41 75 67 75 	0000July0000Augu
  0x571b0	73 74 00 00 00 00 00 00 53 65 70 74 65 6d 62 65 	st000000Septembe
  0x571c0	72 00 00 00 00 00 00 00 4f 63 74 6f 62 65 72 00 	r0000000October0
  0x571d0	4e 6f 76 65 6d 62 65 72 00 00 00 00 00 00 00 00 	November00000000
  0x571e0	44 65 63 65 6d 62 65 72 00 00 00 00 41 4d 00 00 	December0000AM00
  0x571f0	50 4d 00 00 00 00 00 00 4d 4d 2f 64 64 2f 79 79 	PM000000MM/dd/yy
  0x57200	00 00 00 00 00 00 00 00 64 64 64 64 2c 20 4d 4d 	00000000dddd, MM
  0x57210	4d 4d 20 64 64 2c 20 79 79 79 79 00 00 00 00 00 	MM dd, yyyy00000
  0x57220	48 48 3a 6d 6d 3a 73 73 00 00 00 00 00 00 00 00 	HH:mm:ss00000000
  0x57230	53 00 75 00 6e 00 00 00 4d 00 6f 00 6e 00 00 00 	S0u0n000M0o0n000
  0x57240	54 00 75 00 65 00 00 00 57 00 65 00 64 00 00 00 	T0u0e000W0e0d000
  0x57250	54 00 68 00 75 00 00 00 46 00 72 00 69 00 00 00 	T0h0u000F0r0i000
  0x57260	53 00 61 00 74 00 00 00 53 00 75 00 6e 00 64 00 	S0a0t000S0u0n0d0
  0x57270	61 00 79 00 00 00 00 00 4d 00 6f 00 6e 00 64 00 	a0y00000M0o0n0d0
  0x57280	61 00 79 00 00 00 00 00 54 00 75 00 65 00 73 00 	a0y00000T0u0e0s0
  0x57290	64 00 61 00 79 00 00 00 57 00 65 00 64 00 6e 00 	d0a0y000W0e0d0n0
  0x572a0	65 00 73 00 64 00 61 00 79 00 00 00 00 00 00 00 	e0s0d0a0y0000000
  0x572b0	54 00 68 00 75 00 72 00 73 00 64 00 61 00 79 00 	T0h0u0r0s0d0a0y0
  0x572c0	00 00 00 00 00 00 00 00 46 00 72 00 69 00 64 00 	00000000F0r0i0d0
  0x572d0	61 00 79 00 00 00 00 00 53 00 61 00 74 00 75 00 	a0y00000S0a0t0u0
  0x572e0	72 00 64 00 61 00 79 00 00 00 00 00 00 00 00 00 	r0d0a0y000000000
  0x572f0	4a 00 61 00 6e 00 00 00 46 00 65 00 62 00 00 00 	J0a0n000F0e0b000
  0x57300	4d 00 61 00 72 00 00 00 41 00 70 00 72 00 00 00 	M0a0r000A0p0r000
  0x57310	4a 00 75 00 6e 00 00 00 4a 00 75 00 6c 00 00 00 	J0u0n000J0u0l000
  0x57320	41 00 75 00 67 00 00 00 53 00 65 00 70 00 00 00 	A0u0g000S0e0p000
  0x57330	4f 00 63 00 74 00 00 00 4e 00 6f 00 76 00 00 00 	O0c0t000N0o0v000
  0x57340	44 00 65 00 63 00 00 00 41 00 4d 00 00 00 00 00 	D0e0c000A0M00000
  0x57350	50 00 4d 00 00 00 00 00 4d 00 4d 00 2f 00 64 00 	P0M00000M0M0/0d0
  0x57360	64 00 2f 00 79 00 79 00 00 00 00 00 00 00 00 00 	d0/0y0y000000000
  0x57370	64 00 64 00 64 00 64 00 2c 00 20 00 4d 00 4d 00 	d0d0d0d0,0 0M0M0
  0x57380	4d 00 4d 00 20 00 64 00 64 00 2c 00 20 00 79 00 	M0M0 0d0d0,0 0y0
  0x57390	79 00 79 00 79 00 00 00 48 00 48 00 3a 00 6d 00 	y0y0y000H0H0:0m0
  0x573a0	6d 00 3a 00 73 00 73 00 00 00 00 00 00 00 00 00 	m0:0s0s000000000
  0x573b0	65 00 6e 00 2d 00 55 00 53 00 00 00 00 00 00 00 	e0n0-0U0S0000000
  0x573c0	00 00 00 00 00 00 00 00 00 00 00 00 00 00 00 00 	0000000000000000
  0x573d0	00 00 00 00 00 00 00 00 00 00 00 00 00 00 00 00 	0000000000000000
  0x573e0	00 00 00 00 00 00 00 00 00 00 00 00 00 00 00 00 	0000000000000000
  0x573f0	00 00 00 00 00 00 00 00 00 00 00 00 00 00 00 00 	0000000000000000
  0x57400	00 00 00 00 00 00 00 00 00 00 00 00 00 00 00 00 	0000000000000000
  0x57410	00 00 00 00 00 00 00 00 00 00 00 00 00 00 00 00 	0000000000000000
  0x57420	00 00 00 00 00 00 00 00 00 00 00 00 00 00 00 00 	0000000000000000
  0x57430	00 00 00 00 00 00 00 00 00 00 00 00 00 00 00 00 	0000000000000000
  0x57440	00 00 00 00 00 00 00 00 00 00 00 00 00 00 00 00 	0000000000000000
  0x57450	00 00 00 00 00 00 00 00 00 00 00 00 00 00 00 00 	0000000000000000
  0x57460	00 00 00 00 00 00 00 00 00 00 00 00 00 00 00 00 	0000000000000000
  0x57470	00 00 00 00 00 00 00 00 00 00 00 00 00 00 00 00 	0000000000000000
  0x57480	00 00 00 00 00 00 00 00 00 00 00 00 00 00 00 00 	0000000000000000
  0x57490	00 00 00 00 00 00 00 00 00 00 00 00 00 00 00 00 	0000000000000000
  0x574a0	00 00 00 00 00 00 00 00 00 00 00 00 00 00 00 00 	0000000000000000
  0x574b0	00 00 00 00 00 00 00 00 00 00 00 00 00 00 00 00 	0000000000000000
  0x574c0	20 00 20 00 20 00 20 00 20 00 20 00 20 00 20 00 	 0 0 0 0 0 0 0 0
  0x574d0	20 00 28 00 28 00 28 00 28 00 28 00 20 00 20 00 	 0(0(0(0(0(0 0 0
  0x574e0	20 00 20 00 20 00 20 00 20 00 20 00 20 00 20 00 	 0 0 0 0 0 0 0 0
  0x574f0	20 00 20 00 20 00 20 00 20 00 20 00 20 00 20 00 	 0 0 0 0 0 0 0 0
  0x57500	48 00 10 00 10 00 10 00 10 00 10 00 10 00 10 00 	H000000000000000
  0x57510	10 00 10 00 10 00 10 00 10 00 10 00 10 00 10 00 	0000000000000000
  0x57520	84 00 84 00 84 00 84 00 84 00 84 00 84 00 84 00 	0000000000000000
  0x57530	84 00 84 00 10 00 10 00 10 00 10 00 10 00 10 00 	0000000000000000
  0x57540	10 00 81 00 81 00 81 00 81 00 81 00 81 00 01 00 	0000000000000000
  0x57550	01 00 01 00 01 00 01 00 01 00 01 00 01 00 01 00 	0000000000000000
  0x57560	01 00 01 00 01 00 01 00 01 00 01 00 01 00 01 00 	0000000000000000
  0x57570	01 00 01 00 01 00 10 00 10 00 10 00 10 00 10 00 	0000000000000000
  0x57580	10 00 82 00 82 00 82 00 82 00 82 00 82 00 02 00 	0000000000000000
  0x57590	02 00 02 00 02 00 02 00 02 00 02 00 02 00 02 00 	0000000000000000
  0x575a0	02 00 02 00 02 00 02 00 02 00 02 00 02 00 02 00 	0000000000000000
  0x575b0	02 00 02 00 02 00 10 00 10 00 10 00 10 00 20 00 	00000000000000 0
  0x575c0	00 00 00 00 00 00 00 00 00 00 00 00 00 00 00 00 	0000000000000000
  0x575d0	00 00 00 00 00 00 00 00 00 00 00 00 00 00 00 00 	0000000000000000
  0x575e0	00 00 00 00 00 00 00 00 00 00 00 00 00 00 00 00 	0000000000000000
  0x575f0	00 00 00 00 00 00 00 00 00 00 00 00 00 00 00 00 	0000000000000000
  0x57600	00 00 00 00 00 00 00 00 00 00 00 00 00 00 00 00 	0000000000000000
  0x57610	00 00 00 00 00 00 00 00 00 00 00 00 00 00 00 00 	0000000000000000
  0x57620	00 00 00 00 00 00 00 00 00 00 00 00 00 00 00 00 	0000000000000000
  0x57630	00 00 00 00 00 00 00 00 00 00 00 00 00 00 00 00 	0000000000000000
  0x57640	00 00 00 00 00 00 00 00 00 00 00 00 00 00 00 00 	0000000000000000
  0x57650	00 00 00 00 00 00 00 00 00 00 00 00 00 00 00 00 	0000000000000000
  0x57660	00 00 00 00 00 00 00 00 00 00 00 00 00 00 00 00 	0000000000000000
  0x57670	00 00 00 00 00 00 00 00 00 00 00 00 00 00 00 00 	0000000000000000
  0x57680	00 00 00 00 00 00 00 00 00 00 00 00 00 00 00 00 	0000000000000000
  0x57690	00 00 00 00 00 00 00 00 00 00 00 00 00 00 00 00 	0000000000000000
  0x576a0	00 00 00 00 00 00 00 00 00 00 00 00 00 00 00 00 	0000000000000000
  0x576b0	00 00 00 00 00 00 00 00 00 00 00 00 00 00 00 00 	0000000000000000
  0x576c0	80 81 82 83 84 85 86 87 88 89 8a 8b 8c 8d 8e 8f 	0000000000000000
  0x576d0	90 91 92 93 94 95 96 97 98 99 9a 9b 9c 9d 9e 9f 	0000000000000000
  0x576e0	a0 a1 a2 a3 a4 a5 a6 a7 a8 a9 aa ab ac ad ae af 	0000000000000000
  0x576f0	b0 b1 b2 b3 b4 b5 b6 b7 b8 b9 ba bb bc bd be bf 	0000000000000000
  0x57700	c0 c1 c2 c3 c4 c5 c6 c7 c8 c9 ca cb cc cd ce cf 	0000000000000000
  0x57710	d0 d1 d2 d3 d4 d5 d6 d7 d8 d9 da db dc dd de df 	0000000000000000
  0x57720	e0 e1 e2 e3 e4 e5 e6 e7 e8 e9 ea eb ec ed ee ef 	0000000000000000
  0x57730	f0 f1 f2 f3 f4 f5 f6 f7 f8 f9 fa fb fc fd fe ff 	0000000000000000
  0x57740	00 01 02 03 04 05 06 07 08 09 0a 0b 0c 0d 0e 0f 	0000000000000000
  0x57750	10 11 12 13 14 15 16 17 18 19 1a 1b 1c 1d 1e 1f 	0000000000000000
  0x57760	20 21 22 23 24 25 26 27 28 29 2a 2b 2c 2d 2e 2f 	 !"#$%&'()*+,-./
  0x57770	30 31 32 33 34 35 36 37 38 39 3a 3b 3c 3d 3e 3f 	0123456789:;<=>?
  0x57780	40 61 62 63 64 65 66 67 68 69 6a 6b 6c 6d 6e 6f 	@abcdefghijklmno
  0x57790	70 71 72 73 74 75 76 77 78 79 7a 5b 5c 5d 5e 5f 	pqrstuvwxyz[0]^_
  0x577a0	60 61 62 63 64 65 66 67 68 69 6a 6b 6c 6d 6e 6f 	`abcdefghijklmno
  0x577b0	70 71 72 73 74 75 76 77 78 79 7a 7b 7c 7d 7e 7f 	pqrstuvwxyz{|}~0
  0x577c0	80 81 82 83 84 85 86 87 88 89 8a 8b 8c 8d 8e 8f 	0000000000000000
  0x577d0	90 91 92 93 94 95 96 97 98 99 9a 9b 9c 9d 9e 9f 	0000000000000000
  0x577e0	a0 a1 a2 a3 a4 a5 a6 a7 a8 a9 aa ab ac ad ae af 	0000000000000000
  0x577f0	b0 b1 b2 b3 b4 b5 b6 b7 b8 b9 ba bb bc bd be bf 	0000000000000000
  0x57800	c0 c1 c2 c3 c4 c5 c6 c7 c8 c9 ca cb cc cd ce cf 	0000000000000000
  0x57810	d0 d1 d2 d3 d4 d5 d6 d7 d8 d9 da db dc dd de df 	0000000000000000
  0x57820	e0 e1 e2 e3 e4 e5 e6 e7 e8 e9 ea eb ec ed ee ef 	0000000000000000
  0x57830	f0 f1 f2 f3 f4 f5 f6 f7 f8 f9 fa fb fc fd fe ff 	0000000000000000
  0x57840	80 81 82 83 84 85 86 87 88 89 8a 8b 8c 8d 8e 8f 	0000000000000000
  0x57850	90 91 92 93 94 95 96 97 98 99 9a 9b 9c 9d 9e 9f 	0000000000000000
  0x57860	a0 a1 a2 a3 a4 a5 a6 a7 a8 a9 aa ab ac ad ae af 	0000000000000000
  0x57870	b0 b1 b2 b3 b4 b5 b6 b7 b8 b9 ba bb bc bd be bf 	0000000000000000
  0x57880	c0 c1 c2 c3 c4 c5 c6 c7 c8 c9 ca cb cc cd ce cf 	0000000000000000
  0x57890	d0 d1 d2 d3 d4 d5 d6 d7 d8 d9 da db dc dd de df 	0000000000000000
  0x578a0	e0 e1 e2 e3 e4 e5 e6 e7 e8 e9 ea eb ec ed ee ef 	0000000000000000
  0x578b0	f0 f1 f2 f3 f4 f5 f6 f7 f8 f9 fa fb fc fd fe ff 	0000000000000000
  0x578c0	00 01 02 03 04 05 06 07 08 09 0a 0b 0c 0d 0e 0f 	0000000000000000
  0x578d0	10 11 12 13 14 15 16 17 18 19 1a 1b 1c 1d 1e 1f 	0000000000000000
  0x578e0	20 21 22 23 24 25 26 27 28 29 2a 2b 2c 2d 2e 2f 	 !"#$%&'()*+,-./
  0x578f0	30 31 32 33 34 35 36 37 38 39 3a 3b 3c 3d 3e 3f 	0123456789:;<=>?
  0x57900	40 41 42 43 44 45 46 47 48 49 4a 4b 4c 4d 4e 4f 	@ABCDEFGHIJKLMNO
  0x57910	50 51 52 53 54 55 56 57 58 59 5a 5b 5c 5d 5e 5f 	PQRSTUVWXYZ[0]^_
  0x57920	60 41 42 43 44 45 46 47 48 49 4a 4b 4c 4d 4e 4f 	`ABCDEFGHIJKLMNO
  0x57930	50 51 52 53 54 55 56 57 58 59 5a 7b 7c 7d 7e 7f 	PQRSTUVWXYZ{|}~0
  0x57940	80 81 82 83 84 85 86 87 88 89 8a 8b 8c 8d 8e 8f 	0000000000000000
  0x57950	90 91 92 93 94 95 96 97 98 99 9a 9b 9c 9d 9e 9f 	0000000000000000
  0x57960	a0 a1 a2 a3 a4 a5 a6 a7 a8 a9 aa ab ac ad ae af 	0000000000000000
  0x57970	b0 b1 b2 b3 b4 b5 b6 b7 b8 b9 ba bb bc bd be bf 	0000000000000000
  0x57980	c0 c1 c2 c3 c4 c5 c6 c7 c8 c9 ca cb cc cd ce cf 	0000000000000000
  0x57990	d0 d1 d2 d3 d4 d5 d6 d7 d8 d9 da db dc dd de df 	0000000000000000
  0x579a0	e0 e1 e2 e3 e4 e5 e6 e7 e8 e9 ea eb ec ed ee ef 	0000000000000000
  0x579b0	f0 f1 f2 f3 f4 f5 f6 f7 f8 f9 fa fb fc fd fe ff 	0000000000000000
  0x579c0	00 00 20 00 20 00 20 00 20 00 20 00 20 00 20 00 	00 0 0 0 0 0 0 0
  0x579d0	20 00 20 00 28 00 28 00 28 00 28 00 28 00 20 00 	 0 0(0(0(0(0(0 0
  0x579e0	20 00 20 00 20 00 20 00 20 00 20 00 20 00 20 00 	 0 0 0 0 0 0 0 0
  0x579f0	20 00 20 00 20 00 20 00 20 00 20 00 20 00 20 00 	 0 0 0 0 0 0 0 0
  0x57a00	20 00 48 00 10 00 10 00 10 00 10 00 10 00 10 00 	 0H0000000000000
  0x57a10	10 00 10 00 10 00 10 00 10 00 10 00 10 00 10 00 	0000000000000000
  0x57a20	10 00 84 00 84 00 84 00 84 00 84 00 84 00 84 00 	0000000000000000
  0x57a30	84 00 84 00 84 00 10 00 10 00 10 00 10 00 10 00 	0000000000000000
  0x57a40	10 00 10 00 81 01 81 01 81 01 81 01 81 01 81 01 	0000000000000000
  0x57a50	01 01 01 01 01 01 01 01 01 01 01 01 01 01 01 01 	0000000000000000
  0x57a60	01 01 01 01 01 01 01 01 01 01 01 01 01 01 01 01 	0000000000000000
  0x57a70	01 01 01 01 01 01 01 01 10 00 10 00 10 00 10 00 	0000000000000000
  0x57a80	10 00 10 00 82 01 82 01 82 01 82 01 82 01 82 01 	0000000000000000
  0x57a90	02 01 02 01 02 01 02 01 02 01 02 01 02 01 02 01 	0000000000000000
  0x57aa0	02 01 02 01 02 01 02 01 02 01 02 01 02 01 02 01 	0000000000000000
  0x57ab0	02 01 02 01 02 01 02 01 10 00 10 00 10 00 10 00 	0000000000000000
  0x57ac0	20 00 20 00 20 00 20 00 20 00 20 00 28 00 20 00 	 0 0 0 0 0 0(0 0
  0x57ad0	20 00 20 00 20 00 20 00 20 00 20 00 20 00 20 00 	 0 0 0 0 0 0 0 0
  0x57ae0	20 00 20 00 20 00 20 00 20 00 20 00 20 00 20 00 	 0 0 0 0 0 0 0 0
  0x57af0	20 00 20 00 20 00 20 00 20 00 20 00 20 00 20 00 	 0 0 0 0 0 0 0 0
  0x57b00	20 00 08 00 10 00 10 00 10 00 10 00 10 00 10 00 	 000000000000000
  0x57b10	10 00 10 00 10 00 12 01 10 00 10 00 30 00 10 00 	0000000000000000
  0x57b20	10 00 10 00 10 00 14 00 14 00 10 00 12 01 10 00 	0000000000000000
  0x57b30	10 00 10 00 14 00 12 01 10 00 10 00 10 00 10 00 	0000000000000000
  0x57b40	10 00 01 01 01 01 01 01 01 01 01 01 01 01 01 01 	0000000000000000
  0x57b50	01 01 01 01 01 01 01 01 01 01 01 01 01 01 01 01 	0000000000000000
  0x57b60	01 01 01 01 01 01 01 01 01 01 01 01 01 01 01 01 	0000000000000000
  0x57b70	10 00 01 01 01 01 01 01 01 01 01 01 01 01 01 01 	0000000000000000
  0x57b80	02 01 02 01 02 01 02 01 02 01 02 01 02 01 02 01 	0000000000000000
  0x57b90	02 01 02 01 02 01 02 01 02 01 02 01 02 01 02 01 	0000000000000000
  0x57ba0	02 01 02 01 02 01 02 01 02 01 02 01 02 01 02 01 	0000000000000000
  0x57bb0	10 00 02 01 02 01 02 01 02 01 02 01 02 01 02 01 	0000000000000000
  0x57bc0	02 01 01 01 00 00 00 00 00 00 00 00 00 00 00 00 	0000000000000000
  0x57bd0	61 00 70 00 69 00 2d 00 6d 00 73 00 2d 00 77 00 	a0p0i0-0m0s0-0w0
  0x57be0	69 00 6e 00 2d 00 63 00 6f 00 72 00 65 00 2d 00 	i0n0-0c0o0r0e0-0
  0x57bf0	64 00 61 00 74 00 65 00 74 00 69 00 6d 00 65 00 	d0a0t0e0t0i0m0e0
  0x57c00	2d 00 6c 00 31 00 2d 00 31 00 2d 00 31 00 00 00 	-0l010-010-01000
  0x57c10	61 00 70 00 69 00 2d 00 6d 00 73 00 2d 00 77 00 	a0p0i0-0m0s0-0w0
  0x57c20	69 00 6e 00 2d 00 63 00 6f 00 72 00 65 00 2d 00 	i0n0-0c0o0r0e0-0
  0x57c30	66 00 69 00 6c 00 65 00 2d 00 6c 00 31 00 2d 00 	f0i0l0e0-0l010-0
  0x57c40	32 00 2d 00 34 00 00 00 61 00 70 00 69 00 2d 00 	20-04000a0p0i0-0
  0x57c50	6d 00 73 00 2d 00 77 00 69 00 6e 00 2d 00 63 00 	m0s0-0w0i0n0-0c0
  0x57c60	6f 00 72 00 65 00 2d 00 66 00 69 00 6c 00 65 00 	o0r0e0-0f0i0l0e0
  0x57c70	2d 00 6c 00 31 00 2d 00 32 00 2d 00 32 00 00 00 	-0l010-020-02000
  0x57c80	61 00 70 00 69 00 2d 00 6d 00 73 00 2d 00 77 00 	a0p0i0-0m0s0-0w0
  0x57c90	69 00 6e 00 2d 00 63 00 6f 00 72 00 65 00 2d 00 	i0n0-0c0o0r0e0-0
  0x57ca0	6c 00 6f 00 63 00 61 00 6c 00 69 00 7a 00 61 00 	l0o0c0a0l0i0z0a0
  0x57cb0	74 00 69 00 6f 00 6e 00 2d 00 6c 00 31 00 2d 00 	t0i0o0n0-0l010-0
  0x57cc0	32 00 2d 00 31 00 00 00 00 00 00 00 00 00 00 00 	20-0100000000000
  0x57cd0	61 00 70 00 69 00 2d 00 6d 00 73 00 2d 00 77 00 	a0p0i0-0m0s0-0w0
  0x57ce0	69 00 6e 00 2d 00 63 00 6f 00 72 00 65 00 2d 00 	i0n0-0c0o0r0e0-0
  0x57cf0	6c 00 6f 00 63 00 61 00 6c 00 69 00 7a 00 61 00 	l0o0c0a0l0i0z0a0
  0x57d00	74 00 69 00 6f 00 6e 00 2d 00 6f 00 62 00 73 00 	t0i0o0n0-0o0b0s0
  0x57d10	6f 00 6c 00 65 00 74 00 65 00 2d 00 6c 00 31 00 	o0l0e0t0e0-0l010
  0x57d20	2d 00 32 00 2d 00 30 00 00 00 00 00 00 00 00 00 	-020-00000000000
  0x57d30	61 00 70 00 69 00 2d 00 6d 00 73 00 2d 00 77 00 	a0p0i0-0m0s0-0w0
  0x57d40	69 00 6e 00 2d 00 63 00 6f 00 72 00 65 00 2d 00 	i0n0-0c0o0r0e0-0
  0x57d50	70 00 72 00 6f 00 63 00 65 00 73 00 73 00 74 00 	p0r0o0c0e0s0s0t0
  0x57d60	68 00 72 00 65 00 61 00 64 00 73 00 2d 00 6c 00 	h0r0e0a0d0s0-0l0
  0x57d70	31 00 2d 00 31 00 2d 00 32 00 00 00 00 00 00 00 	10-010-020000000
  0x57d80	61 00 70 00 69 00 2d 00 6d 00 73 00 2d 00 77 00 	a0p0i0-0m0s0-0w0
  0x57d90	69 00 6e 00 2d 00 63 00 6f 00 72 00 65 00 2d 00 	i0n0-0c0o0r0e0-0
  0x57da0	73 00 74 00 72 00 69 00 6e 00 67 00 2d 00 6c 00 	s0t0r0i0n0g0-0l0
  0x57db0	31 00 2d 00 31 00 2d 00 30 00 00 00 00 00 00 00 	10-010-000000000
  0x57dc0	61 00 70 00 69 00 2d 00 6d 00 73 00 2d 00 77 00 	a0p0i0-0m0s0-0w0
  0x57dd0	69 00 6e 00 2d 00 63 00 6f 00 72 00 65 00 2d 00 	i0n0-0c0o0r0e0-0
  0x57de0	73 00 79 00 6e 00 63 00 68 00 2d 00 6c 00 31 00 	s0y0n0c0h0-0l010
  0x57df0	2d 00 32 00 2d 00 30 00 00 00 00 00 00 00 00 00 	-020-00000000000
  0x57e00	61 00 70 00 69 00 2d 00 6d 00 73 00 2d 00 77 00 	a0p0i0-0m0s0-0w0
  0x57e10	69 00 6e 00 2d 00 63 00 6f 00 72 00 65 00 2d 00 	i0n0-0c0o0r0e0-0
  0x57e20	73 00 79 00 73 00 69 00 6e 00 66 00 6f 00 2d 00 	s0y0s0i0n0f0o0-0
  0x57e30	6c 00 31 00 2d 00 32 00 2d 00 31 00 00 00 00 00 	l010-020-0100000
  0x57e40	61 00 70 00 69 00 2d 00 6d 00 73 00 2d 00 77 00 	a0p0i0-0m0s0-0w0
  0x57e50	69 00 6e 00 2d 00 63 00 6f 00 72 00 65 00 2d 00 	i0n0-0c0o0r0e0-0
  0x57e60	77 00 69 00 6e 00 72 00 74 00 2d 00 6c 00 31 00 	w0i0n0r0t0-0l010
  0x57e70	2d 00 31 00 2d 00 30 00 00 00 00 00 00 00 00 00 	-010-00000000000
  0x57e80	61 00 70 00 69 00 2d 00 6d 00 73 00 2d 00 77 00 	a0p0i0-0m0s0-0w0
  0x57e90	69 00 6e 00 2d 00 63 00 6f 00 72 00 65 00 2d 00 	i0n0-0c0o0r0e0-0
  0x57ea0	78 00 73 00 74 00 61 00 74 00 65 00 2d 00 6c 00 	x0s0t0a0t0e0-0l0
  0x57eb0	32 00 2d 00 31 00 2d 00 30 00 00 00 00 00 00 00 	20-010-000000000
  0x57ec0	61 00 70 00 69 00 2d 00 6d 00 73 00 2d 00 77 00 	a0p0i0-0m0s0-0w0
  0x57ed0	69 00 6e 00 2d 00 72 00 74 00 63 00 6f 00 72 00 	i0n0-0r0t0c0o0r0
  0x57ee0	65 00 2d 00 6e 00 74 00 75 00 73 00 65 00 72 00 	e0-0n0t0u0s0e0r0
  0x57ef0	2d 00 77 00 69 00 6e 00 64 00 6f 00 77 00 2d 00 	-0w0i0n0d0o0w0-0
  0x57f00	6c 00 31 00 2d 00 31 00 2d 00 30 00 00 00 00 00 	l010-010-0000000
  0x57f10	61 00 70 00 69 00 2d 00 6d 00 73 00 2d 00 77 00 	a0p0i0-0m0s0-0w0
  0x57f20	69 00 6e 00 2d 00 73 00 65 00 63 00 75 00 72 00 	i0n0-0s0e0c0u0r0
  0x57f30	69 00 74 00 79 00 2d 00 73 00 79 00 73 00 74 00 	i0t0y0-0s0y0s0t0
  0x57f40	65 00 6d 00 66 00 75 00 6e 00 63 00 74 00 69 00 	e0m0f0u0n0c0t0i0
  0x57f50	6f 00 6e 00 73 00 2d 00 6c 00 31 00 2d 00 31 00 	o0n0s0-0l010-010
  0x57f60	2d 00 30 00 00 00 00 00 00 00 00 00 00 00 00 00 	-000000000000000
  0x57f70	65 00 78 00 74 00 2d 00 6d 00 73 00 2d 00 77 00 	e0x0t0-0m0s0-0w0
  0x57f80	69 00 6e 00 2d 00 6e 00 74 00 75 00 73 00 65 00 	i0n0-0n0t0u0s0e0
  0x57f90	72 00 2d 00 64 00 69 00 61 00 6c 00 6f 00 67 00 	r0-0d0i0a0l0o0g0
  0x57fa0	62 00 6f 00 78 00 2d 00 6c 00 31 00 2d 00 31 00 	b0o0x0-0l010-010
  0x57fb0	2d 00 30 00 00 00 00 00 00 00 00 00 00 00 00 00 	-000000000000000
  0x57fc0	65 00 78 00 74 00 2d 00 6d 00 73 00 2d 00 77 00 	e0x0t0-0m0s0-0w0
  0x57fd0	69 00 6e 00 2d 00 6e 00 74 00 75 00 73 00 65 00 	i0n0-0n0t0u0s0e0
  0x57fe0	72 00 2d 00 77 00 69 00 6e 00 64 00 6f 00 77 00 	r0-0w0i0n0d0o0w0
  0x57ff0	73 00 74 00 61 00 74 00 69 00 6f 00 6e 00 2d 00 	s0t0a0t0i0o0n0-0
  0x58000	6c 00 31 00 2d 00 31 00 2d 00 30 00 00 00 00 00 	l010-010-0000000
  0x58010	61 00 64 00 76 00 61 00 70 00 69 00 33 00 32 00 	a0d0v0a0p0i03020
  0x58020	00 00 00 00 00 00 00 00 6b 00 65 00 72 00 6e 00 	00000000k0e0r0n0
  0x58030	65 00 6c 00 33 00 32 00 00 00 00 00 00 00 00 00 	e0l0302000000000
  0x58040	6b 00 65 00 72 00 6e 00 65 00 6c 00 62 00 61 00 	k0e0r0n0e0l0b0a0
  0x58050	73 00 65 00 00 00 00 00 6e 00 74 00 64 00 6c 00 	s0e00000n0t0d0l0
  0x58060	6c 00 00 00 00 00 00 00 00 00 00 00 00 00 00 00 	l000000000000000
  0x58070	61 00 70 00 69 00 2d 00 6d 00 73 00 2d 00 77 00 	a0p0i0-0m0s0-0w0
  0x58080	69 00 6e 00 2d 00 61 00 70 00 70 00 6d 00 6f 00 	i0n0-0a0p0p0m0o0
  0x58090	64 00 65 00 6c 00 2d 00 72 00 75 00 6e 00 74 00 	d0e0l0-0r0u0n0t0
  0x580a0	69 00 6d 00 65 00 2d 00 6c 00 31 00 2d 00 31 00 	i0m0e0-0l010-010
  0x580b0	2d 00 32 00 00 00 00 00 75 00 73 00 65 00 72 00 	-0200000u0s0e0r0
  0x580c0	33 00 32 00 00 00 00 00 61 00 70 00 69 00 2d 00 	30200000a0p0i0-0
  0x580d0	6d 00 73 00 2d 00 00 00 65 00 78 00 74 00 2d 00 	m0s0-000e0x0t0-0
  0x580e0	6d 00 73 00 2d 00 00 00 10 00 00 00 00 00 00 00 	m0s0-00000000000
  0x580f0	41 72 65 46 69 6c 65 41 70 69 73 41 4e 53 49 00 	AreFileApisANSI0
  0x58100	06 00 00 00 10 00 00 00 43 6f 6d 70 61 72 65 53 	00000000CompareS
  0x58110	74 72 69 6e 67 45 78 00 07 00 00 00 10 00 00 00 	tringEx000000000
  0x58120	49 6e 69 74 69 61 6c 69 7a 65 43 72 69 74 69 63 	InitializeCritic
  0x58130	61 6c 53 65 63 74 69 6f 6e 45 78 00 00 00 00 00 	alSectionEx00000
  0x58140	03 00 00 00 10 00 00 00 4c 43 4d 61 70 53 74 72 	00000000LCMapStr
  0x58150	69 6e 67 45 78 00 00 00 03 00 00 00 10 00 00 00 	ingEx00000000000
  0x58160	4c 6f 63 61 6c 65 4e 61 6d 65 54 6f 4c 43 49 44 	LocaleNameToLCID
  0x58170	00 00 00 00 09 00 00 00 09 00 00 00 13 00 00 00 	0000000000000000
  0x58180	41 70 70 50 6f 6c 69 63 79 47 65 74 50 72 6f 63 	AppPolicyGetProc
  0x58190	65 73 73 54 65 72 6d 69 6e 61 74 69 6f 6e 4d 65 	essTerminationMe
  0x581a0	74 68 6f 64 00 00 00 00 13 00 00 00 00 00 00 00 	thod000000000000
  0x581b0	41 70 70 50 6f 6c 69 63 79 47 65 74 54 68 72 65 	AppPolicyGetThre
  0x581c0	61 64 49 6e 69 74 69 61 6c 69 7a 61 74 69 6f 6e 	adInitialization
  0x581d0	54 79 70 65 00 00 00 00 00 00 00 00 00 00 00 00 	Type000000000000
  0x581e0	ff ff ff ff ff ff ff ff ff ff ff ff ff ff ff ff 	0000000000000000
  0x581f0	22 05 93 19 00 00 00 00 00 00 00 00 00 00 00 00 	"000000000000000
  0x58200	00 00 00 00 01 00 00 00 a8 a0 06 00 20 00 00 00 	000000000000 000
  0x58210	00 00 00 00 05 00 00 00 22 05 93 19 01 00 00 00 	00000000"0000000
  0x58220	c4 a0 06 00 00 00 00 00 00 00 00 00 01 00 00 00 	0000000000000000
  0x58230	d0 a0 06 00 30 00 00 00 00 00 00 00 05 00 00 00 	0000000000000000
  0x58240	6d 00 73 00 63 00 6f 00 72 00 65 00 65 00 2e 00 	m0s0c0o0r0e0e0.0
  0x58250	64 00 6c 00 6c 00 00 00 43 6f 72 45 78 69 74 50 	d0l0l000CorExitP
  0x58260	72 6f 63 65 73 73 00 00 6a 00 61 00 2d 00 4a 00 	rocess00j0a0-0J0
  0x58270	50 00 00 00 00 00 00 00 7a 00 68 00 2d 00 43 00 	P0000000z0h0-0C0
  0x58280	4e 00 00 00 00 00 00 00 6b 00 6f 00 2d 00 4b 00 	N0000000k0o0-0K0
  0x58290	52 00 00 00 00 00 00 00 7a 00 68 00 2d 00 54 00 	R0000000z0h0-0T0
  0x582a0	57 00 00 00 00 00 00 00 00 00 00 00 00 00 00 00 	W000000000000000
  0x582b0	00 e4 0b 54 02 00 00 00 00 00 10 63 2d 5e c7 6b 	000T0000000c-^0k
  0x582c0	05 00 00 00 00 00 00 40 ea ed 74 46 d0 9c 2c 9f 	0000000@00tF00,0
  0x582d0	0c 00 00 00 00 61 f5 b9 ab bf a4 5c c3 f1 29 63 	00000a00000000)c
  0x582e0	1d 00 00 00 00 00 64 b5 fd 34 05 c4 d2 87 66 92 	000000d0040000f0
  0x582f0	f9 15 3b 6c 44 00 00 00 00 00 00 10 d9 90 65 94 	00;lD000000000e0
  0x58300	2c 42 62 d7 01 45 22 9a 17 26 27 4f 9f 00 00 00 	,Bb00E"00&'O0000
  0x58310	40 02 95 07 c1 89 56 24 1c a7 fa c5 67 6d c8 73 	@00000V$0000gm0s
  0x58320	dc 6d ad eb 72 01 00 00 00 00 c1 ce 64 27 a2 63 	0m00r0000000d'0c
  0x58330	ca 18 a4 ef 25 7b d1 cd 70 ef df 6b 1f 3e ea 9d 	0000%{00p00k0>00
  0x58340	5f 03 00 00 00 00 00 e4 6e fe c3 cd 6a 0c bc 66 	_0000000n000j00f
  0x58350	32 1f 39 2e 03 02 45 5a 25 f8 d2 71 56 4a c2 c3 	209.00EZ%00qVJ00
  0x58360	da 07 00 00 10 8f 2e a8 08 43 b2 aa 7c 1a 21 8e 	000000.00C00|0!0
  0x58370	40 ce 8a f3 0b ce c4 84 27 0b eb 7c c3 94 25 ad 	@0000000'00|00%0
  0x58380	49 12 00 00 00 40 1a dd da 54 9f cc bf 61 59 dc 	I0000@000T000aY0
  0x58390	ab ab 5c c7 0c 44 05 f5 67 16 bc d1 52 af b7 fb 	00000D00g000R000
  0x583a0	29 8d 8f 60 94 2a 00 00 00 00 00 21 0c 8a bb 17 	)00`0*00000!0000
  0x583b0	a4 8e af 56 a9 9f 47 06 36 b2 4b 5d e0 5f dc 80 	000V00G060K]0_00
  0x583c0	0a aa fe f0 40 d9 8e a8 d0 80 1a 6b 23 63 00 00 	0000@000000k#c00
  0x583d0	64 38 4c 32 96 c7 57 83 d5 42 4a e4 61 22 a9 d9 	d8L200W00BJ0a"00
  0x583e0	3d 10 3c bd 72 f3 e5 91 74 15 59 c0 0d a6 1d ec 	=0<0r000t0Y00000
  0x583f0	6c d9 2a 10 d3 e6 00 00 00 10 85 1e 5b 61 4f 6e 	l0*000000000[aOn
  0x58400	69 2a 7b 18 1c e2 50 04 2b 34 dd 2f ee 27 50 63 	i*{000P0+40/0'Pc
  0x58410	99 71 c9 a6 16 e9 4a 8e 28 2e 08 17 6f 6e 49 1a 	0q0000J0(.00onI0
  0x58420	6e 19 02 00 00 00 40 32 26 40 ad 04 50 72 1e f9 	n00000@2&@00Pr00
  0x58430	d5 d1 94 29 bb cd 5b 66 96 2e 3b a2 db 7d fa 65 	000)00[f0.;00}0e
  0x58440	ac 53 de 77 9b a2 20 b0 53 f9 bf c6 ab 25 94 4b 	0S0w00 0S0000%0K
  0x58450	4d e3 04 00 81 2d c3 fb f4 d0 22 52 50 28 0f b7 	M0000-0000"RP(00
  0x58460	f3 f2 13 57 13 14 42 dc 7d 5d 39 d6 99 19 59 f8 	000W00B0}]9000Y0
  0x58470	1c 38 92 00 d6 14 b3 86 b9 77 a5 7a 61 fe b7 12 	080000000w0za000
  0x58480	6a 61 0b 00 00 e4 11 1d 8d 67 c3 56 20 1f 94 3a 	ja0000000g0V 00:
  0x58490	8b 36 09 9b 08 69 70 bd be 65 76 20 eb c4 26 9b 	06000ip00ev 00&0
  0x584a0	9d e8 67 15 6e 09 15 9d 2b f2 32 71 13 51 48 be 	00g0n000+02q0QH0
  0x584b0	ce a2 e5 45 52 7f 1a 00 00 00 10 bb 78 94 f7 02 	000ER0000000x000
  0x584c0	c0 74 1b 8c 00 5d f0 b0 75 c6 db a9 14 b9 d9 e2 	0t000]00u0000000
  0x584d0	df 72 0f 65 4c 4b 28 77 16 e0 f6 6d c2 91 43 51 	0r0eLK(w000m00CQ
  0x584e0	cf c9 95 27 55 ab e2 d6 27 e6 a8 9c a6 b1 3d 00 	000'U000'00000=0
  0x584f0	00 00 00 40 4a d0 ec f4 f0 88 23 7f c5 6d 0a 58 	000@J00000#00m0X
  0x58500	6f 04 bf 43 c3 5d 2d f8 48 08 11 ee 1c 59 a0 fa 	o00C0]-0H0000Y00
  0x58510	28 f0 f4 cd 3f a5 2e 19 a0 71 d6 bc 87 44 69 7d 	(000?0.00q000Di}
  0x58520	01 6e f9 10 9d 56 1a 79 75 a4 8f 00 00 e1 b2 b9 	0n000V0yu0000000
  0x58530	3c 75 88 82 93 16 3f cd 6b 3a b4 89 de 87 9e 08 	<u0000?0k:000000
  0x58540	46 45 4d 68 0c a6 db fd 91 93 24 df 13 ec 68 30 	FEMh000000$000h0
  0x58550	27 44 b4 99 ee 41 81 b6 c3 ca 02 58 f1 51 68 d9 	'D000A00000X0Qh0
  0x58560	a2 25 76 7d 8d 71 4e 01 00 00 64 fb e6 83 5a f2 	0%v}0qN000d000Z0
  0x58570	0f ad 57 94 11 b5 80 00 66 b5 29 20 cf d2 c5 d7 	00W00000f0) 0000
  0x58580	7d 6d 3f a5 1c 4d b7 cd de 70 9d da 3d 41 16 b7 	}m?00M000p00=A00
  0x58590	4e ca d0 71 98 13 e4 d7 90 3a 40 4f e2 3f ab f9 	N00q00000:@O0?00
  0x585a0	6f 77 4d 26 e6 af 0a 03 00 00 00 10 31 55 ab 09 	owM&000000001U00
  0x585b0	d2 58 0c a6 cb 26 61 56 87 83 1c 6a c1 f4 87 75 	0X000&aV000j000u
  0x585c0	76 e8 44 2c cf 47 a0 41 9e 05 08 c9 3e 06 ba a0 	v0D,0G0A0000>000
  0x585d0	e8 c8 cf e7 55 c0 fa e1 b2 44 01 ef b0 7e 20 24 	0000U0000D000~ $
  0x585e0	73 25 72 d1 81 f9 b8 e4 ae 05 15 07 40 62 3b 7a 	s%r000000000@b;z
  0x585f0	4f 5d a4 ce 33 41 e2 4f 6d 6d 0f 21 f2 33 56 e5 	O]003A0Omm0!03V0
  0x58600	56 13 c1 25 97 d7 eb 28 84 eb 96 d3 77 3b 49 1e 	V00%000(0000w;I0
  0x58610	ae 2d 1f 47 20 38 ad 96 d1 ce fa 8a db cd de 4e 	0-0G 8000000000N
  0x58620	86 c0 68 55 a1 5d 69 b2 89 3c 12 24 71 45 7d 10 	00hU0]i00<0$qE}0
  0x58630	00 00 41 1c 27 4a 17 6e 57 ae 62 ec aa 89 22 ef 	00A0'J0nW0b000"0
  0x58640	dd fb a2 b6 e4 ef e1 17 f2 bd 66 33 80 88 b4 37 	0000000000f30007
  0x58650	3e 2c b8 bf 91 de ac 19 08 64 f4 d4 4e 6a ff 35 	>,0000000d00Nj05
  0x58660	0e 6a 56 67 14 b9 db 40 ca 3b 2a 78 68 9b 32 6b 	0jVg000@0;*xh02k
  0x58670	d9 c5 af f5 bc 69 64 26 00 00 00 e4 f4 5f 80 fb 	00000id&00000_00
  0x58680	af d1 55 ed a8 20 4a 9b f8 57 97 ab 0a fe ae 01 	00U00 J00W000000
  0x58690	7b a6 2c 4a 69 95 bf 1e 29 1c c4 c7 aa d2 d5 d8 	{0,Ji000)0000000
  0x586a0	76 c7 36 d1 0c 55 da 93 90 9d c7 9a a8 cb 4b 25 	v0600U00000000K%
  0x586b0	18 76 f0 0d 09 88 a8 f7 74 10 1f 3a fc 11 48 e5 	0v000000t00:00H0
  0x586c0	ad 8e 63 59 10 e7 cb 97 e8 69 d7 26 3e 72 e4 b4 	00cY00000i0&>r00
  0x586d0	86 aa 90 5b 22 39 33 9c 75 07 7a 4b 91 e9 47 2d 	000["930u0zK00G-
  0x586e0	77 f9 6e 9a e7 40 0b 16 c4 f8 92 0c 10 f0 5f f2 	w0n00@00000000_0
  0x586f0	11 6c c3 25 42 8b f9 c9 9d 91 0b 73 af 7c ff 05 	0l0%B000000s0|00
  0x58700	85 2d 43 b0 69 75 2b 2d 2c 84 57 a6 10 ef 1f d0 	0-C0iu+-,0W00000
  0x58710	00 40 7a c7 e5 62 b8 e8 6a 88 d8 10 e5 98 cd c8 	0@z00b00j0000000
  0x58720	c5 55 89 10 55 b6 59 d0 d4 be fb 58 31 82 b8 03 	0U00U0Y0000X1000
  0x58730	19 45 4c 03 39 c9 4d 19 ac 00 c5 1f e2 c0 4c 79 	0EL090M0000000Ly
  0x58740	a1 80 c9 3b d1 2d b1 e9 f8 22 6d 5e 9a 89 38 7b 	000;0-000"m^008{
  0x58750	d8 19 79 ce 72 76 c6 78 9f b9 e5 79 4e 03 94 e4 	00y0rv0x000yN000
  0x58760	01 00 00 00 00 00 00 a1 e9 d4 5c 6c 6f 7d e4 9b 	00000000000lo}00
  0x58770	e7 d9 3b f9 a1 6f 62 77 51 34 8b c6 e8 59 2b de 	00;00obwQ4000Y+0
  0x58780	58 de 3c cf 58 ff 46 22 15 7c 57 a8 59 75 e7 26 	X0<0X0F"0|W0Yu0&
  0x58790	53 67 77 17 63 b7 e6 eb 5f 0a fd e3 69 39 e8 33 	Sgw0c000_000i903
  0x587a0	35 a0 05 a8 87 b9 31 f6 43 0f 1f 21 db 43 5a d8 	50000010C00!0CZ0
  0x587b0	96 f5 1b ab a2 19 3f 68 04 00 00 00 64 fe 7d be 	000000?h0000d0}0
  0x587c0	2f 04 c9 4b b0 ed f5 e1 da 4e a1 8f 73 db 09 e4 	/00K00000N00s000
  0x587d0	9c ee 4f 67 0d 9f 15 a9 d6 b5 b5 f6 0e 96 38 73 	00Og00000000008s
  0x587e0	91 c2 49 eb cc 97 2b 5f 95 3f 38 0f f6 b3 91 20 	00I000+_0?80000 
  0x587f0	14 37 78 d1 df 42 d1 c1 de 22 3e 15 57 df af 8a 	07x00B000">0W000
  0x58800	5f e5 f5 77 8b ca e7 a3 5b 52 2f 03 3d 4f e7 42 	_00w0000[R/0=O0B
  0x58810	0a 00 00 00 00 10 dd f4 52 09 45 5d e1 42 b4 ae 	00000000R0E]0B00
  0x58820	2e 34 b3 a3 6f a3 cd 3f 6e 7a 28 b4 f7 77 c1 4b 	.400o00?nz(00w0K
  0x58830	d0 c8 d2 67 e0 f8 a8 ae 67 3b c9 ad b3 56 c8 6c 	000g0000g;000V0l
  0x58840	0b 9d 9d 95 00 c1 48 5b 3d 8a be 4a f4 36 d9 52 	000000H[=00J060R
  0x58850	4d e8 db 71 c5 21 1c f9 09 81 45 4a 6a d8 aa d7 	M00q0!0000EJj000
  0x58860	7c 4c e1 08 9c a5 9b 75 00 88 3c e4 17 00 00 00 	|L00000u00<00000
  0x58870	00 00 40 92 d4 10 f1 04 be 72 64 18 0c c1 36 87 	00@000000rd00060
  0x58880	fb ab 78 14 29 af 51 fc 39 97 eb 25 15 30 2b 4c 	00x0)0Q0900%00+L
  0x58890	0b 0e 03 a1 3b 3c fe 28 ba fc 88 77 58 43 9e b8 	0000;<0(000wXC00
  0x588a0	a4 e4 3d 73 c2 f2 46 7c 98 62 74 8f 0f 21 19 db 	00=s00F|0bt00!00
  0x588b0	ae b6 a3 2e b2 14 50 aa 8d ab 39 ea 42 34 96 97 	000.00P00090B400
  0x588c0	a9 df df 01 fe d3 f3 d2 80 02 79 a0 37 00 00 00 	0000000000y07000
  0x588d0	01 9b 9c 50 f1 ad dc c7 2c ad 3d 38 37 4d c6 73 	000P0000,0=87M0s
  0x588e0	d0 67 6d ea 06 a8 9b 51 f8 f2 03 c4 a2 e1 52 a0 	0gm0000Q000000R0
  0x588f0	3a 23 10 d7 a9 73 85 44 ba d9 12 cf 03 18 87 70 	:#000s0D0000000p
  0x58900	9b 3a dc 52 e8 52 b2 e5 4e fb 17 07 2f a6 4d be 	0:0R0R00N000/0M0
  0x58910	e1 d7 ab 0a 4f ed 62 8c 7b ec b9 ce 21 40 66 d4 	0000O0b0{000!@f0
  0x58920	00 83 15 a1 e6 75 e3 cc f2 29 2f 84 81 00 00 00 	00000u000)/00000
  0x58930	00 e4 17 77 64 fb f5 d3 71 3d 76 a0 e9 2f 14 7d 	000wd000q=v00/0}
  0x58940	66 4c f4 33 2e f1 b8 f3 8e 0d 0f 13 69 94 4c 73 	fL03.0000000i0Ls
  0x58950	a8 0f 26 60 40 13 01 3c 0a 88 71 cc 21 2d a5 37 	00&`@00<00q0!-07
  0x58960	ef c9 da 8a b4 31 bb 42 41 4c f9 d6 6c 05 8b c8 	0000010BAL00l000
  0x58970	b8 01 05 e2 7c ed 97 52 c4 61 c3 62 aa d8 da 87 	0000|00R0a0b0000
  0x58980	de ea 33 b8 61 68 f0 94 bd 9a cc 13 6a d5 c1 8d 	0030ah000000j000
  0x58990	2d 01 00 00 00 00 10 13 e8 36 7a c6 9e 29 16 f4 	-000000006z00)00
  0x589a0	0a 3f 49 f3 cf a6 a5 77 a3 23 be a4 82 5b a2 cc 	0?I0000w0#000[00
  0x589b0	2f 72 10 35 7f 44 9d be b8 13 c2 a8 4e 32 4c c9 	/r050D000000N2L0
  0x589c0	ad 33 9e bc ba fe ac 76 32 21 4c 2e 32 cd 13 3e 	0300000v2!L.200>
  0x589d0	b4 91 fe 70 36 d9 5c bb 85 97 14 42 fd 1a cc 46 	000p6000000B000F
  0x589e0	f8 dd 38 e6 d2 87 07 69 17 d1 02 1a fe f1 b5 3e 	0080000i0000000>
  0x589f0	ae ab b9 c3 6f ee 08 1c be 02 00 00 00 00 00 40 	0000o0000000000@
  0x58a00	aa c2 40 81 d9 77 f8 2c 3d d7 e1 71 98 2f e7 d5 	00@00w0,=00q0/00
  0x58a10	09 63 51 72 dd 19 a8 af 46 5a 2a d6 ce dc 02 2a 	0cQr0000FZ*0000*
  0x58a20	fe dd 46 ce 8d 24 13 27 ad d2 23 b7 19 bb 04 c4 	00F00$0'00#00000
  0x58a30	2b cc 06 b7 ca eb b1 47 dc 4b 09 9d ca 02 dc c5 	+000000G0K000000
  0x58a40	8e 51 e6 31 80 56 c3 8e a8 58 2f 34 42 1e 04 8b 	0Q010V000X/4B000
  0x58a50	14 e5 bf fe 13 fc ff 05 0f 79 63 67 fd 36 d5 66 	000000000ycg060f
  0x58a60	76 50 e1 b9 62 06 00 00 00 61 b0 67 1a 0a 01 d2 	vP00b0000a0g0000
  0x58a70	c0 e1 05 d0 3b 73 12 db 3f 2e 9f a3 e2 9d b2 61 	0000;s00?.00000a
  0x58a80	e2 dc 63 2a bc 04 26 94 9b d5 70 61 96 25 e3 c2 	00c*00&000pa0%00
  0x58a90	b9 75 0b 14 21 2c 1d 1f 60 6a 13 b8 a2 3b d2 89 	0u00!,00`j000;00
  0x58aa0	73 7d f1 60 df d7 ca c6 2b df 69 06 37 87 b8 24 	s}0`0000+0i0700$
  0x58ab0	ed 06 93 66 eb 6e 49 19 6f db 8d 93 75 82 74 5e 	000f0nI0o000u0t^
  0x58ac0	36 9a 6e c5 31 b7 90 36 c5 42 28 c8 8e 79 ae 24 	60n010060B(00y0$
  0x58ad0	de 0e 00 00 00 00 64 41 c1 9a 88 d5 99 2c 43 d9 	000000dA00000,C0
  0x58ae0	1a e7 80 a2 2e 3d f6 6b 3d 79 49 82 43 a9 e7 79 	0000.=0k=yI0C00y
  0x58af0	4a e6 fd 22 9a 70 d6 e0 ef cf ca 05 d7 a4 8d bd 	J00"0p0000000000
  0x58b00	6c 00 64 e3 b3 dc 4e a5 6e 08 a8 a1 9e 45 8f 74 	l0d000N0n0000E0t
  0x58b10	c8 54 8e fc 57 c6 74 cc d4 c3 b8 42 6e 63 d9 57 	0T00W0t0000Bnc0W
  0x58b20	cc 5b b5 35 e9 fe 13 6c 61 51 c4 1a db ba 95 b5 	0[05000laQ000000
  0x58b30	9d 4e f1 a1 50 e7 f9 dc 71 7f 63 07 2b 9f 2f de 	0N00P000q0c0+0/0
  0x58b40	9d 22 00 00 00 00 00 10 89 bd 5e 3c 56 37 77 e3 	0"00000000^<V7w0
  0x58b50	38 a3 cb 3d 4f 9e d2 81 2c 9e f7 a4 74 c7 f9 c3 	800=O000,000t000
  0x58b60	97 e7 1c 6a 38 e4 5f ac 9c 8b f3 07 fa ec 88 d5 	000j80_000000000
  0x58b70	ac c1 5a 3e ce cc af 85 70 3f 1f 9d d3 6d 2d e8 	00Z>0000p?000m-0
  0x58b80	0c 18 7d 17 6f 94 69 5e e1 2c 8e 64 48 39 a1 95 	00}0o0i^0,0dH900
  0x58b90	11 e0 0f 34 58 3c 17 b4 94 f6 48 27 bd 57 26 7c 	0004X<0000H'0W&|
  0x58ba0	2e da 8b 75 a0 90 80 3b 13 b6 db 2d 90 48 cf 6d 	.00u000;000-0H0m
  0x58bb0	7e 04 e4 24 99 50 00 00 00 00 00 00 00 00 00 00 	~00$0P0000000000
  0x58bc0	00 00 00 02 02 00 00 03 05 00 00 04 09 00 01 04 	0000000000000000
  0x58bd0	0d 00 01 05 12 00 01 06 18 00 02 06 1e 00 02 07 	0000000000000000
  0x58be0	25 00 02 08 2d 00 03 08 35 00 03 09 3e 00 03 0a 	%000-0005000>000
  0x58bf0	48 00 04 0a 52 00 04 0b 5d 00 04 0c 69 00 05 0c 	H000R000]000i000
  0x58c00	75 00 05 0d 82 00 05 0e 90 00 05 0f 9f 00 06 0f 	u000000000000000
  0x58c10	ae 00 06 10 be 00 06 11 cf 00 07 11 e0 00 07 12 	0000000000000000
  0x58c20	f2 00 07 13 05 01 08 13 18 01 08 15 2d 01 08 16 	000000000000-000
  0x58c30	43 01 09 16 59 01 09 17 70 01 09 18 88 01 0a 18 	C000Y000p0000000
  0x58c40	a0 01 0a 19 b9 01 0a 1a d3 01 0a 1b ee 01 0b 1b 	0000000000000000
  0x58c50	09 02 0b 1c 25 02 0b 1d 0a 00 00 00 64 00 00 00 	0000%0000000d000
  0x58c60	e8 03 00 00 10 27 00 00 a0 86 01 00 40 42 0f 00 	00000'000000@B00
  0x58c70	80 96 98 00 00 e1 f5 05 00 ca 9a 3b 30 00 00 00 	00000000000;0000
  0x58c80	31 23 49 4e 46 00 00 00 31 23 51 4e 41 4e 00 00 	1#INF0001#QNAN00
  0x58c90	31 23 53 4e 41 4e 00 00 31 23 49 4e 44 00 00 00 	1#SNAN001#IND000
  0x58ca0	05 00 00 c0 0b 00 00 00 00 00 00 00 00 00 00 00 	0000000000000000
  0x58cb0	1d 00 00 c0 04 00 00 00 00 00 00 00 00 00 00 00 	0000000000000000
  0x58cc0	96 00 00 c0 04 00 00 00 00 00 00 00 00 00 00 00 	0000000000000000
  0x58cd0	8d 00 00 c0 08 00 00 00 00 00 00 00 00 00 00 00 	0000000000000000
  0x58ce0	8e 00 00 c0 08 00 00 00 00 00 00 00 00 00 00 00 	0000000000000000
  0x58cf0	8f 00 00 c0 08 00 00 00 00 00 00 00 00 00 00 00 	0000000000000000
  0x58d00	90 00 00 c0 08 00 00 00 00 00 00 00 00 00 00 00 	0000000000000000
  0x58d10	91 00 00 c0 08 00 00 00 00 00 00 00 00 00 00 00 	0000000000000000
  0x58d20	92 00 00 c0 08 00 00 00 00 00 00 00 00 00 00 00 	0000000000000000
  0x58d30	93 00 00 c0 08 00 00 00 00 00 00 00 00 00 00 00 	0000000000000000
  0x58d40	b4 02 00 c0 08 00 00 00 00 00 00 00 00 00 00 00 	0000000000000000
  0x58d50	b5 02 00 c0 08 00 00 00 00 00 00 00 00 00 00 00 	0000000000000000
  0x58d60	0c 00 00 00 00 00 00 00 03 00 00 00 00 00 00 00 	0000000000000000
  0x58d70	09 00 00 00 00 00 00 00 75 00 6b 00 00 00 00 00 	00000000u0k00000
  0x58d80	61 00 72 00 00 00 00 00 62 00 67 00 00 00 00 00 	a0r00000b0g00000
  0x58d90	63 00 61 00 00 00 00 00 7a 00 68 00 2d 00 43 00 	c0a00000z0h0-0C0
  0x58da0	48 00 53 00 00 00 00 00 63 00 73 00 00 00 00 00 	H0S00000c0s00000
  0x58db0	64 00 61 00 00 00 00 00 64 00 65 00 00 00 00 00 	d0a00000d0e00000
  0x58dc0	65 00 6c 00 00 00 00 00 65 00 6e 00 00 00 00 00 	e0l00000e0n00000
  0x58dd0	65 00 73 00 00 00 00 00 66 00 69 00 00 00 00 00 	e0s00000f0i00000
  0x58de0	66 00 72 00 00 00 00 00 68 00 65 00 00 00 00 00 	f0r00000h0e00000
  0x58df0	68 00 75 00 00 00 00 00 69 00 73 00 00 00 00 00 	h0u00000i0s00000
  0x58e00	69 00 74 00 00 00 00 00 6a 00 61 00 00 00 00 00 	i0t00000j0a00000
  0x58e10	6b 00 6f 00 00 00 00 00 6e 00 6c 00 00 00 00 00 	k0o00000n0l00000
  0x58e20	6e 00 6f 00 00 00 00 00 70 00 6c 00 00 00 00 00 	n0o00000p0l00000
  0x58e30	70 00 74 00 00 00 00 00 72 00 6f 00 00 00 00 00 	p0t00000r0o00000
  0x58e40	72 00 75 00 00 00 00 00 68 00 72 00 00 00 00 00 	r0u00000h0r00000
  0x58e50	73 00 6b 00 00 00 00 00 73 00 71 00 00 00 00 00 	s0k00000s0q00000
  0x58e60	73 00 76 00 00 00 00 00 74 00 68 00 00 00 00 00 	s0v00000t0h00000
  0x58e70	74 00 72 00 00 00 00 00 75 00 72 00 00 00 00 00 	t0r00000u0r00000
  0x58e80	69 00 64 00 00 00 00 00 62 00 65 00 00 00 00 00 	i0d00000b0e00000
  0x58e90	73 00 6c 00 00 00 00 00 65 00 74 00 00 00 00 00 	s0l00000e0t00000
  0x58ea0	6c 00 76 00 00 00 00 00 6c 00 74 00 00 00 00 00 	l0v00000l0t00000
  0x58eb0	66 00 61 00 00 00 00 00 76 00 69 00 00 00 00 00 	f0a00000v0i00000
  0x58ec0	68 00 79 00 00 00 00 00 61 00 7a 00 00 00 00 00 	h0y00000a0z00000
  0x58ed0	65 00 75 00 00 00 00 00 6d 00 6b 00 00 00 00 00 	e0u00000m0k00000
  0x58ee0	61 00 66 00 00 00 00 00 6b 00 61 00 00 00 00 00 	a0f00000k0a00000
  0x58ef0	66 00 6f 00 00 00 00 00 68 00 69 00 00 00 00 00 	f0o00000h0i00000
  0x58f00	6d 00 73 00 00 00 00 00 6b 00 6b 00 00 00 00 00 	m0s00000k0k00000
  0x58f10	6b 00 79 00 00 00 00 00 73 00 77 00 00 00 00 00 	k0y00000s0w00000
  0x58f20	75 00 7a 00 00 00 00 00 74 00 74 00 00 00 00 00 	u0z00000t0t00000
  0x58f30	70 00 61 00 00 00 00 00 67 00 75 00 00 00 00 00 	p0a00000g0u00000
  0x58f40	74 00 61 00 00 00 00 00 74 00 65 00 00 00 00 00 	t0a00000t0e00000
  0x58f50	6b 00 6e 00 00 00 00 00 6d 00 72 00 00 00 00 00 	k0n00000m0r00000
  0x58f60	73 00 61 00 00 00 00 00 6d 00 6e 00 00 00 00 00 	s0a00000m0n00000
  0x58f70	67 00 6c 00 00 00 00 00 6b 00 6f 00 6b 00 00 00 	g0l00000k0o0k000
  0x58f80	73 00 79 00 72 00 00 00 64 00 69 00 76 00 00 00 	s0y0r000d0i0v000
  0x58f90	61 00 72 00 2d 00 53 00 41 00 00 00 00 00 00 00 	a0r0-0S0A0000000
  0x58fa0	62 00 67 00 2d 00 42 00 47 00 00 00 00 00 00 00 	b0g0-0B0G0000000
  0x58fb0	63 00 61 00 2d 00 45 00 53 00 00 00 00 00 00 00 	c0a0-0E0S0000000
  0x58fc0	63 00 73 00 2d 00 43 00 5a 00 00 00 00 00 00 00 	c0s0-0C0Z0000000
  0x58fd0	64 00 61 00 2d 00 44 00 4b 00 00 00 00 00 00 00 	d0a0-0D0K0000000
  0x58fe0	64 00 65 00 2d 00 44 00 45 00 00 00 00 00 00 00 	d0e0-0D0E0000000
  0x58ff0	65 00 6c 00 2d 00 47 00 52 00 00 00 00 00 00 00 	e0l0-0G0R0000000
  0x59000	66 00 69 00 2d 00 46 00 49 00 00 00 00 00 00 00 	f0i0-0F0I0000000
  0x59010	66 00 72 00 2d 00 46 00 52 00 00 00 00 00 00 00 	f0r0-0F0R0000000
  0x59020	68 00 65 00 2d 00 49 00 4c 00 00 00 00 00 00 00 	h0e0-0I0L0000000
  0x59030	68 00 75 00 2d 00 48 00 55 00 00 00 00 00 00 00 	h0u0-0H0U0000000
  0x59040	69 00 73 00 2d 00 49 00 53 00 00 00 00 00 00 00 	i0s0-0I0S0000000
  0x59050	69 00 74 00 2d 00 49 00 54 00 00 00 00 00 00 00 	i0t0-0I0T0000000
  0x59060	6e 00 6c 00 2d 00 4e 00 4c 00 00 00 00 00 00 00 	n0l0-0N0L0000000
  0x59070	6e 00 62 00 2d 00 4e 00 4f 00 00 00 00 00 00 00 	n0b0-0N0O0000000
  0x59080	70 00 6c 00 2d 00 50 00 4c 00 00 00 00 00 00 00 	p0l0-0P0L0000000
  0x59090	70 00 74 00 2d 00 42 00 52 00 00 00 00 00 00 00 	p0t0-0B0R0000000
  0x590a0	72 00 6f 00 2d 00 52 00 4f 00 00 00 00 00 00 00 	r0o0-0R0O0000000
  0x590b0	72 00 75 00 2d 00 52 00 55 00 00 00 00 00 00 00 	r0u0-0R0U0000000
  0x590c0	68 00 72 00 2d 00 48 00 52 00 00 00 00 00 00 00 	h0r0-0H0R0000000
  0x590d0	73 00 6b 00 2d 00 53 00 4b 00 00 00 00 00 00 00 	s0k0-0S0K0000000
  0x590e0	73 00 71 00 2d 00 41 00 4c 00 00 00 00 00 00 00 	s0q0-0A0L0000000
  0x590f0	73 00 76 00 2d 00 53 00 45 00 00 00 00 00 00 00 	s0v0-0S0E0000000
  0x59100	74 00 68 00 2d 00 54 00 48 00 00 00 00 00 00 00 	t0h0-0T0H0000000
  0x59110	74 00 72 00 2d 00 54 00 52 00 00 00 00 00 00 00 	t0r0-0T0R0000000
  0x59120	75 00 72 00 2d 00 50 00 4b 00 00 00 00 00 00 00 	u0r0-0P0K0000000
  0x59130	69 00 64 00 2d 00 49 00 44 00 00 00 00 00 00 00 	i0d0-0I0D0000000
  0x59140	75 00 6b 00 2d 00 55 00 41 00 00 00 00 00 00 00 	u0k0-0U0A0000000
  0x59150	62 00 65 00 2d 00 42 00 59 00 00 00 00 00 00 00 	b0e0-0B0Y0000000
  0x59160	73 00 6c 00 2d 00 53 00 49 00 00 00 00 00 00 00 	s0l0-0S0I0000000
  0x59170	65 00 74 00 2d 00 45 00 45 00 00 00 00 00 00 00 	e0t0-0E0E0000000
  0x59180	6c 00 76 00 2d 00 4c 00 56 00 00 00 00 00 00 00 	l0v0-0L0V0000000
  0x59190	6c 00 74 00 2d 00 4c 00 54 00 00 00 00 00 00 00 	l0t0-0L0T0000000
  0x591a0	66 00 61 00 2d 00 49 00 52 00 00 00 00 00 00 00 	f0a0-0I0R0000000
  0x591b0	76 00 69 00 2d 00 56 00 4e 00 00 00 00 00 00 00 	v0i0-0V0N0000000
  0x591c0	68 00 79 00 2d 00 41 00 4d 00 00 00 00 00 00 00 	h0y0-0A0M0000000
  0x591d0	61 00 7a 00 2d 00 41 00 5a 00 2d 00 4c 00 61 00 	a0z0-0A0Z0-0L0a0
  0x591e0	74 00 6e 00 00 00 00 00 65 00 75 00 2d 00 45 00 	t0n00000e0u0-0E0
  0x591f0	53 00 00 00 00 00 00 00 6d 00 6b 00 2d 00 4d 00 	S0000000m0k0-0M0
  0x59200	4b 00 00 00 00 00 00 00 74 00 6e 00 2d 00 5a 00 	K0000000t0n0-0Z0
  0x59210	41 00 00 00 00 00 00 00 78 00 68 00 2d 00 5a 00 	A0000000x0h0-0Z0
  0x59220	41 00 00 00 00 00 00 00 7a 00 75 00 2d 00 5a 00 	A0000000z0u0-0Z0
  0x59230	41 00 00 00 00 00 00 00 61 00 66 00 2d 00 5a 00 	A0000000a0f0-0Z0
  0x59240	41 00 00 00 00 00 00 00 6b 00 61 00 2d 00 47 00 	A0000000k0a0-0G0
  0x59250	45 00 00 00 00 00 00 00 66 00 6f 00 2d 00 46 00 	E0000000f0o0-0F0
  0x59260	4f 00 00 00 00 00 00 00 68 00 69 00 2d 00 49 00 	O0000000h0i0-0I0
  0x59270	4e 00 00 00 00 00 00 00 6d 00 74 00 2d 00 4d 00 	N0000000m0t0-0M0
  0x59280	54 00 00 00 00 00 00 00 73 00 65 00 2d 00 4e 00 	T0000000s0e0-0N0
  0x59290	4f 00 00 00 00 00 00 00 6d 00 73 00 2d 00 4d 00 	O0000000m0s0-0M0
  0x592a0	59 00 00 00 00 00 00 00 6b 00 6b 00 2d 00 4b 00 	Y0000000k0k0-0K0
  0x592b0	5a 00 00 00 00 00 00 00 6b 00 79 00 2d 00 4b 00 	Z0000000k0y0-0K0
  0x592c0	47 00 00 00 00 00 00 00 73 00 77 00 2d 00 4b 00 	G0000000s0w0-0K0
  0x592d0	45 00 00 00 00 00 00 00 75 00 7a 00 2d 00 55 00 	E0000000u0z0-0U0
  0x592e0	5a 00 2d 00 4c 00 61 00 74 00 6e 00 00 00 00 00 	Z0-0L0a0t0n00000
  0x592f0	74 00 74 00 2d 00 52 00 55 00 00 00 00 00 00 00 	t0t0-0R0U0000000
  0x59300	62 00 6e 00 2d 00 49 00 4e 00 00 00 00 00 00 00 	b0n0-0I0N0000000
  0x59310	70 00 61 00 2d 00 49 00 4e 00 00 00 00 00 00 00 	p0a0-0I0N0000000
  0x59320	67 00 75 00 2d 00 49 00 4e 00 00 00 00 00 00 00 	g0u0-0I0N0000000
  0x59330	74 00 61 00 2d 00 49 00 4e 00 00 00 00 00 00 00 	t0a0-0I0N0000000
  0x59340	74 00 65 00 2d 00 49 00 4e 00 00 00 00 00 00 00 	t0e0-0I0N0000000
  0x59350	6b 00 6e 00 2d 00 49 00 4e 00 00 00 00 00 00 00 	k0n0-0I0N0000000
  0x59360	6d 00 6c 00 2d 00 49 00 4e 00 00 00 00 00 00 00 	m0l0-0I0N0000000
  0x59370	6d 00 72 00 2d 00 49 00 4e 00 00 00 00 00 00 00 	m0r0-0I0N0000000
  0x59380	73 00 61 00 2d 00 49 00 4e 00 00 00 00 00 00 00 	s0a0-0I0N0000000
  0x59390	6d 00 6e 00 2d 00 4d 00 4e 00 00 00 00 00 00 00 	m0n0-0M0N0000000
  0x593a0	63 00 79 00 2d 00 47 00 42 00 00 00 00 00 00 00 	c0y0-0G0B0000000
  0x593b0	67 00 6c 00 2d 00 45 00 53 00 00 00 00 00 00 00 	g0l0-0E0S0000000
  0x593c0	6b 00 6f 00 6b 00 2d 00 49 00 4e 00 00 00 00 00 	k0o0k0-0I0N00000
  0x593d0	73 00 79 00 72 00 2d 00 53 00 59 00 00 00 00 00 	s0y0r0-0S0Y00000
  0x593e0	64 00 69 00 76 00 2d 00 4d 00 56 00 00 00 00 00 	d0i0v0-0M0V00000
  0x593f0	71 00 75 00 7a 00 2d 00 42 00 4f 00 00 00 00 00 	q0u0z0-0B0O00000
  0x59400	6e 00 73 00 2d 00 5a 00 41 00 00 00 00 00 00 00 	n0s0-0Z0A0000000
  0x59410	6d 00 69 00 2d 00 4e 00 5a 00 00 00 00 00 00 00 	m0i0-0N0Z0000000
  0x59420	61 00 72 00 2d 00 49 00 51 00 00 00 00 00 00 00 	a0r0-0I0Q0000000
  0x59430	64 00 65 00 2d 00 43 00 48 00 00 00 00 00 00 00 	d0e0-0C0H0000000
  0x59440	65 00 6e 00 2d 00 47 00 42 00 00 00 00 00 00 00 	e0n0-0G0B0000000
  0x59450	65 00 73 00 2d 00 4d 00 58 00 00 00 00 00 00 00 	e0s0-0M0X0000000
  0x59460	66 00 72 00 2d 00 42 00 45 00 00 00 00 00 00 00 	f0r0-0B0E0000000
  0x59470	69 00 74 00 2d 00 43 00 48 00 00 00 00 00 00 00 	i0t0-0C0H0000000
  0x59480	6e 00 6c 00 2d 00 42 00 45 00 00 00 00 00 00 00 	n0l0-0B0E0000000
  0x59490	6e 00 6e 00 2d 00 4e 00 4f 00 00 00 00 00 00 00 	n0n0-0N0O0000000
  0x594a0	70 00 74 00 2d 00 50 00 54 00 00 00 00 00 00 00 	p0t0-0P0T0000000
  0x594b0	73 00 72 00 2d 00 53 00 50 00 2d 00 4c 00 61 00 	s0r0-0S0P0-0L0a0
  0x594c0	74 00 6e 00 00 00 00 00 73 00 76 00 2d 00 46 00 	t0n00000s0v0-0F0
  0x594d0	49 00 00 00 00 00 00 00 61 00 7a 00 2d 00 41 00 	I0000000a0z0-0A0
  0x594e0	5a 00 2d 00 43 00 79 00 72 00 6c 00 00 00 00 00 	Z0-0C0y0r0l00000
  0x594f0	73 00 65 00 2d 00 53 00 45 00 00 00 00 00 00 00 	s0e0-0S0E0000000
  0x59500	6d 00 73 00 2d 00 42 00 4e 00 00 00 00 00 00 00 	m0s0-0B0N0000000
  0x59510	75 00 7a 00 2d 00 55 00 5a 00 2d 00 43 00 79 00 	u0z0-0U0Z0-0C0y0
  0x59520	72 00 6c 00 00 00 00 00 71 00 75 00 7a 00 2d 00 	r0l00000q0u0z0-0
  0x59530	45 00 43 00 00 00 00 00 61 00 72 00 2d 00 45 00 	E0C00000a0r0-0E0
  0x59540	47 00 00 00 00 00 00 00 7a 00 68 00 2d 00 48 00 	G0000000z0h0-0H0
  0x59550	4b 00 00 00 00 00 00 00 64 00 65 00 2d 00 41 00 	K0000000d0e0-0A0
  0x59560	54 00 00 00 00 00 00 00 65 00 6e 00 2d 00 41 00 	T0000000e0n0-0A0
  0x59570	55 00 00 00 00 00 00 00 65 00 73 00 2d 00 45 00 	U0000000e0s0-0E0
  0x59580	53 00 00 00 00 00 00 00 66 00 72 00 2d 00 43 00 	S0000000f0r0-0C0
  0x59590	41 00 00 00 00 00 00 00 73 00 72 00 2d 00 53 00 	A0000000s0r0-0S0
  0x595a0	50 00 2d 00 43 00 79 00 72 00 6c 00 00 00 00 00 	P0-0C0y0r0l00000
  0x595b0	73 00 65 00 2d 00 46 00 49 00 00 00 00 00 00 00 	s0e0-0F0I0000000
  0x595c0	71 00 75 00 7a 00 2d 00 50 00 45 00 00 00 00 00 	q0u0z0-0P0E00000
  0x595d0	61 00 72 00 2d 00 4c 00 59 00 00 00 00 00 00 00 	a0r0-0L0Y0000000
  0x595e0	7a 00 68 00 2d 00 53 00 47 00 00 00 00 00 00 00 	z0h0-0S0G0000000
  0x595f0	64 00 65 00 2d 00 4c 00 55 00 00 00 00 00 00 00 	d0e0-0L0U0000000
  0x59600	65 00 6e 00 2d 00 43 00 41 00 00 00 00 00 00 00 	e0n0-0C0A0000000
  0x59610	65 00 73 00 2d 00 47 00 54 00 00 00 00 00 00 00 	e0s0-0G0T0000000
  0x59620	66 00 72 00 2d 00 43 00 48 00 00 00 00 00 00 00 	f0r0-0C0H0000000
  0x59630	68 00 72 00 2d 00 42 00 41 00 00 00 00 00 00 00 	h0r0-0B0A0000000
  0x59640	73 00 6d 00 6a 00 2d 00 4e 00 4f 00 00 00 00 00 	s0m0j0-0N0O00000
  0x59650	61 00 72 00 2d 00 44 00 5a 00 00 00 00 00 00 00 	a0r0-0D0Z0000000
  0x59660	7a 00 68 00 2d 00 4d 00 4f 00 00 00 00 00 00 00 	z0h0-0M0O0000000
  0x59670	64 00 65 00 2d 00 4c 00 49 00 00 00 00 00 00 00 	d0e0-0L0I0000000
  0x59680	65 00 6e 00 2d 00 4e 00 5a 00 00 00 00 00 00 00 	e0n0-0N0Z0000000
  0x59690	65 00 73 00 2d 00 43 00 52 00 00 00 00 00 00 00 	e0s0-0C0R0000000
  0x596a0	66 00 72 00 2d 00 4c 00 55 00 00 00 00 00 00 00 	f0r0-0L0U0000000
  0x596b0	62 00 73 00 2d 00 42 00 41 00 2d 00 4c 00 61 00 	b0s0-0B0A0-0L0a0
  0x596c0	74 00 6e 00 00 00 00 00 73 00 6d 00 6a 00 2d 00 	t0n00000s0m0j0-0
  0x596d0	53 00 45 00 00 00 00 00 61 00 72 00 2d 00 4d 00 	S0E00000a0r0-0M0
  0x596e0	41 00 00 00 00 00 00 00 65 00 6e 00 2d 00 49 00 	A0000000e0n0-0I0
  0x596f0	45 00 00 00 00 00 00 00 65 00 73 00 2d 00 50 00 	E0000000e0s0-0P0
  0x59700	41 00 00 00 00 00 00 00 66 00 72 00 2d 00 4d 00 	A0000000f0r0-0M0
  0x59710	43 00 00 00 00 00 00 00 73 00 72 00 2d 00 42 00 	C0000000s0r0-0B0
  0x59720	41 00 2d 00 4c 00 61 00 74 00 6e 00 00 00 00 00 	A0-0L0a0t0n00000
  0x59730	73 00 6d 00 61 00 2d 00 4e 00 4f 00 00 00 00 00 	s0m0a0-0N0O00000
  0x59740	61 00 72 00 2d 00 54 00 4e 00 00 00 00 00 00 00 	a0r0-0T0N0000000
  0x59750	65 00 6e 00 2d 00 5a 00 41 00 00 00 00 00 00 00 	e0n0-0Z0A0000000
  0x59760	65 00 73 00 2d 00 44 00 4f 00 00 00 00 00 00 00 	e0s0-0D0O0000000
  0x59770	73 00 72 00 2d 00 42 00 41 00 2d 00 43 00 79 00 	s0r0-0B0A0-0C0y0
  0x59780	72 00 6c 00 00 00 00 00 73 00 6d 00 61 00 2d 00 	r0l00000s0m0a0-0
  0x59790	53 00 45 00 00 00 00 00 61 00 72 00 2d 00 4f 00 	S0E00000a0r0-0O0
  0x597a0	4d 00 00 00 00 00 00 00 65 00 6e 00 2d 00 4a 00 	M0000000e0n0-0J0
  0x597b0	4d 00 00 00 00 00 00 00 65 00 73 00 2d 00 56 00 	M0000000e0s0-0V0
  0x597c0	45 00 00 00 00 00 00 00 73 00 6d 00 73 00 2d 00 	E0000000s0m0s0-0
  0x597d0	46 00 49 00 00 00 00 00 61 00 72 00 2d 00 59 00 	F0I00000a0r0-0Y0
  0x597e0	45 00 00 00 00 00 00 00 65 00 6e 00 2d 00 43 00 	E0000000e0n0-0C0
  0x597f0	42 00 00 00 00 00 00 00 65 00 73 00 2d 00 43 00 	B0000000e0s0-0C0
  0x59800	4f 00 00 00 00 00 00 00 73 00 6d 00 6e 00 2d 00 	O0000000s0m0n0-0
  0x59810	46 00 49 00 00 00 00 00 61 00 72 00 2d 00 53 00 	F0I00000a0r0-0S0
  0x59820	59 00 00 00 00 00 00 00 65 00 6e 00 2d 00 42 00 	Y0000000e0n0-0B0
  0x59830	5a 00 00 00 00 00 00 00 65 00 73 00 2d 00 50 00 	Z0000000e0s0-0P0
  0x59840	45 00 00 00 00 00 00 00 61 00 72 00 2d 00 4a 00 	E0000000a0r0-0J0
  0x59850	4f 00 00 00 00 00 00 00 65 00 6e 00 2d 00 54 00 	O0000000e0n0-0T0
  0x59860	54 00 00 00 00 00 00 00 65 00 73 00 2d 00 41 00 	T0000000e0s0-0A0
  0x59870	52 00 00 00 00 00 00 00 61 00 72 00 2d 00 4c 00 	R0000000a0r0-0L0
  0x59880	42 00 00 00 00 00 00 00 65 00 6e 00 2d 00 5a 00 	B0000000e0n0-0Z0
  0x59890	57 00 00 00 00 00 00 00 65 00 73 00 2d 00 45 00 	W0000000e0s0-0E0
  0x598a0	43 00 00 00 00 00 00 00 61 00 72 00 2d 00 4b 00 	C0000000a0r0-0K0
  0x598b0	57 00 00 00 00 00 00 00 65 00 6e 00 2d 00 50 00 	W0000000e0n0-0P0
  0x598c0	48 00 00 00 00 00 00 00 65 00 73 00 2d 00 43 00 	H0000000e0s0-0C0
  0x598d0	4c 00 00 00 00 00 00 00 61 00 72 00 2d 00 41 00 	L0000000a0r0-0A0
  0x598e0	45 00 00 00 00 00 00 00 65 00 73 00 2d 00 55 00 	E0000000e0s0-0U0
  0x598f0	59 00 00 00 00 00 00 00 61 00 72 00 2d 00 42 00 	Y0000000a0r0-0B0
  0x59900	48 00 00 00 00 00 00 00 65 00 73 00 2d 00 50 00 	H0000000e0s0-0P0
  0x59910	59 00 00 00 00 00 00 00 61 00 72 00 2d 00 51 00 	Y0000000a0r0-0Q0
  0x59920	41 00 00 00 00 00 00 00 65 00 73 00 2d 00 42 00 	A0000000e0s0-0B0
  0x59930	4f 00 00 00 00 00 00 00 65 00 73 00 2d 00 53 00 	O0000000e0s0-0S0
  0x59940	56 00 00 00 00 00 00 00 65 00 73 00 2d 00 48 00 	V0000000e0s0-0H0
  0x59950	4e 00 00 00 00 00 00 00 65 00 73 00 2d 00 4e 00 	N0000000e0s0-0N0
  0x59960	49 00 00 00 00 00 00 00 65 00 73 00 2d 00 50 00 	I0000000e0s0-0P0
  0x59970	52 00 00 00 00 00 00 00 7a 00 68 00 2d 00 43 00 	R0000000z0h0-0C0
  0x59980	48 00 54 00 00 00 00 00 73 00 72 00 00 00 00 00 	H0T00000s0r00000
  0x59990	61 00 66 00 2d 00 7a 00 61 00 00 00 00 00 00 00 	a0f0-0z0a0000000
  0x599a0	61 00 72 00 2d 00 61 00 65 00 00 00 00 00 00 00 	a0r0-0a0e0000000
  0x599b0	61 00 72 00 2d 00 62 00 68 00 00 00 00 00 00 00 	a0r0-0b0h0000000
  0x599c0	61 00 72 00 2d 00 64 00 7a 00 00 00 00 00 00 00 	a0r0-0d0z0000000
  0x599d0	61 00 72 00 2d 00 65 00 67 00 00 00 00 00 00 00 	a0r0-0e0g0000000
  0x599e0	61 00 72 00 2d 00 69 00 71 00 00 00 00 00 00 00 	a0r0-0i0q0000000
  0x599f0	61 00 72 00 2d 00 6a 00 6f 00 00 00 00 00 00 00 	a0r0-0j0o0000000
  0x59a00	61 00 72 00 2d 00 6b 00 77 00 00 00 00 00 00 00 	a0r0-0k0w0000000
  0x59a10	61 00 72 00 2d 00 6c 00 62 00 00 00 00 00 00 00 	a0r0-0l0b0000000
  0x59a20	61 00 72 00 2d 00 6c 00 79 00 00 00 00 00 00 00 	a0r0-0l0y0000000
  0x59a30	61 00 72 00 2d 00 6d 00 61 00 00 00 00 00 00 00 	a0r0-0m0a0000000
  0x59a40	61 00 72 00 2d 00 6f 00 6d 00 00 00 00 00 00 00 	a0r0-0o0m0000000
  0x59a50	61 00 72 00 2d 00 71 00 61 00 00 00 00 00 00 00 	a0r0-0q0a0000000
  0x59a60	61 00 72 00 2d 00 73 00 61 00 00 00 00 00 00 00 	a0r0-0s0a0000000
  0x59a70	61 00 72 00 2d 00 73 00 79 00 00 00 00 00 00 00 	a0r0-0s0y0000000
  0x59a80	61 00 72 00 2d 00 74 00 6e 00 00 00 00 00 00 00 	a0r0-0t0n0000000
  0x59a90	61 00 72 00 2d 00 79 00 65 00 00 00 00 00 00 00 	a0r0-0y0e0000000
  0x59aa0	61 00 7a 00 2d 00 61 00 7a 00 2d 00 63 00 79 00 	a0z0-0a0z0-0c0y0
  0x59ab0	72 00 6c 00 00 00 00 00 61 00 7a 00 2d 00 61 00 	r0l00000a0z0-0a0
  0x59ac0	7a 00 2d 00 6c 00 61 00 74 00 6e 00 00 00 00 00 	z0-0l0a0t0n00000
  0x59ad0	62 00 65 00 2d 00 62 00 79 00 00 00 00 00 00 00 	b0e0-0b0y0000000
  0x59ae0	62 00 67 00 2d 00 62 00 67 00 00 00 00 00 00 00 	b0g0-0b0g0000000
  0x59af0	62 00 6e 00 2d 00 69 00 6e 00 00 00 00 00 00 00 	b0n0-0i0n0000000
  0x59b00	62 00 73 00 2d 00 62 00 61 00 2d 00 6c 00 61 00 	b0s0-0b0a0-0l0a0
  0x59b10	74 00 6e 00 00 00 00 00 63 00 61 00 2d 00 65 00 	t0n00000c0a0-0e0
  0x59b20	73 00 00 00 00 00 00 00 63 00 73 00 2d 00 63 00 	s0000000c0s0-0c0
  0x59b30	7a 00 00 00 00 00 00 00 63 00 79 00 2d 00 67 00 	z0000000c0y0-0g0
  0x59b40	62 00 00 00 00 00 00 00 64 00 61 00 2d 00 64 00 	b0000000d0a0-0d0
  0x59b50	6b 00 00 00 00 00 00 00 64 00 65 00 2d 00 61 00 	k0000000d0e0-0a0
  0x59b60	74 00 00 00 00 00 00 00 64 00 65 00 2d 00 63 00 	t0000000d0e0-0c0
  0x59b70	68 00 00 00 00 00 00 00 64 00 65 00 2d 00 64 00 	h0000000d0e0-0d0
  0x59b80	65 00 00 00 00 00 00 00 64 00 65 00 2d 00 6c 00 	e0000000d0e0-0l0
  0x59b90	69 00 00 00 00 00 00 00 64 00 65 00 2d 00 6c 00 	i0000000d0e0-0l0
  0x59ba0	75 00 00 00 00 00 00 00 64 00 69 00 76 00 2d 00 	u0000000d0i0v0-0
  0x59bb0	6d 00 76 00 00 00 00 00 65 00 6c 00 2d 00 67 00 	m0v00000e0l0-0g0
  0x59bc0	72 00 00 00 00 00 00 00 65 00 6e 00 2d 00 61 00 	r0000000e0n0-0a0
  0x59bd0	75 00 00 00 00 00 00 00 65 00 6e 00 2d 00 62 00 	u0000000e0n0-0b0
  0x59be0	7a 00 00 00 00 00 00 00 65 00 6e 00 2d 00 63 00 	z0000000e0n0-0c0
  0x59bf0	61 00 00 00 00 00 00 00 65 00 6e 00 2d 00 63 00 	a0000000e0n0-0c0
  0x59c00	62 00 00 00 00 00 00 00 65 00 6e 00 2d 00 67 00 	b0000000e0n0-0g0
  0x59c10	62 00 00 00 00 00 00 00 65 00 6e 00 2d 00 69 00 	b0000000e0n0-0i0
  0x59c20	65 00 00 00 00 00 00 00 65 00 6e 00 2d 00 6a 00 	e0000000e0n0-0j0
  0x59c30	6d 00 00 00 00 00 00 00 65 00 6e 00 2d 00 6e 00 	m0000000e0n0-0n0
  0x59c40	7a 00 00 00 00 00 00 00 65 00 6e 00 2d 00 70 00 	z0000000e0n0-0p0
  0x59c50	68 00 00 00 00 00 00 00 65 00 6e 00 2d 00 74 00 	h0000000e0n0-0t0
  0x59c60	74 00 00 00 00 00 00 00 65 00 6e 00 2d 00 75 00 	t0000000e0n0-0u0
  0x59c70	73 00 00 00 00 00 00 00 65 00 6e 00 2d 00 7a 00 	s0000000e0n0-0z0
  0x59c80	61 00 00 00 00 00 00 00 65 00 6e 00 2d 00 7a 00 	a0000000e0n0-0z0
  0x59c90	77 00 00 00 00 00 00 00 65 00 73 00 2d 00 61 00 	w0000000e0s0-0a0
  0x59ca0	72 00 00 00 00 00 00 00 65 00 73 00 2d 00 62 00 	r0000000e0s0-0b0
  0x59cb0	6f 00 00 00 00 00 00 00 65 00 73 00 2d 00 63 00 	o0000000e0s0-0c0
  0x59cc0	6c 00 00 00 00 00 00 00 65 00 73 00 2d 00 63 00 	l0000000e0s0-0c0
  0x59cd0	6f 00 00 00 00 00 00 00 65 00 73 00 2d 00 63 00 	o0000000e0s0-0c0
  0x59ce0	72 00 00 00 00 00 00 00 65 00 73 00 2d 00 64 00 	r0000000e0s0-0d0
  0x59cf0	6f 00 00 00 00 00 00 00 65 00 73 00 2d 00 65 00 	o0000000e0s0-0e0
  0x59d00	63 00 00 00 00 00 00 00 65 00 73 00 2d 00 65 00 	c0000000e0s0-0e0
  0x59d10	73 00 00 00 00 00 00 00 65 00 73 00 2d 00 67 00 	s0000000e0s0-0g0
  0x59d20	74 00 00 00 00 00 00 00 65 00 73 00 2d 00 68 00 	t0000000e0s0-0h0
  0x59d30	6e 00 00 00 00 00 00 00 65 00 73 00 2d 00 6d 00 	n0000000e0s0-0m0
  0x59d40	78 00 00 00 00 00 00 00 65 00 73 00 2d 00 6e 00 	x0000000e0s0-0n0
  0x59d50	69 00 00 00 00 00 00 00 65 00 73 00 2d 00 70 00 	i0000000e0s0-0p0
  0x59d60	61 00 00 00 00 00 00 00 65 00 73 00 2d 00 70 00 	a0000000e0s0-0p0
  0x59d70	65 00 00 00 00 00 00 00 65 00 73 00 2d 00 70 00 	e0000000e0s0-0p0
  0x59d80	72 00 00 00 00 00 00 00 65 00 73 00 2d 00 70 00 	r0000000e0s0-0p0
  0x59d90	79 00 00 00 00 00 00 00 65 00 73 00 2d 00 73 00 	y0000000e0s0-0s0
  0x59da0	76 00 00 00 00 00 00 00 65 00 73 00 2d 00 75 00 	v0000000e0s0-0u0
  0x59db0	79 00 00 00 00 00 00 00 65 00 73 00 2d 00 76 00 	y0000000e0s0-0v0
  0x59dc0	65 00 00 00 00 00 00 00 65 00 74 00 2d 00 65 00 	e0000000e0t0-0e0
  0x59dd0	65 00 00 00 00 00 00 00 65 00 75 00 2d 00 65 00 	e0000000e0u0-0e0
  0x59de0	73 00 00 00 00 00 00 00 66 00 61 00 2d 00 69 00 	s0000000f0a0-0i0
  0x59df0	72 00 00 00 00 00 00 00 66 00 69 00 2d 00 66 00 	r0000000f0i0-0f0
  0x59e00	69 00 00 00 00 00 00 00 66 00 6f 00 2d 00 66 00 	i0000000f0o0-0f0
  0x59e10	6f 00 00 00 00 00 00 00 66 00 72 00 2d 00 62 00 	o0000000f0r0-0b0
  0x59e20	65 00 00 00 00 00 00 00 66 00 72 00 2d 00 63 00 	e0000000f0r0-0c0
  0x59e30	61 00 00 00 00 00 00 00 66 00 72 00 2d 00 63 00 	a0000000f0r0-0c0
  0x59e40	68 00 00 00 00 00 00 00 66 00 72 00 2d 00 66 00 	h0000000f0r0-0f0
  0x59e50	72 00 00 00 00 00 00 00 66 00 72 00 2d 00 6c 00 	r0000000f0r0-0l0
  0x59e60	75 00 00 00 00 00 00 00 66 00 72 00 2d 00 6d 00 	u0000000f0r0-0m0
  0x59e70	63 00 00 00 00 00 00 00 67 00 6c 00 2d 00 65 00 	c0000000g0l0-0e0
  0x59e80	73 00 00 00 00 00 00 00 67 00 75 00 2d 00 69 00 	s0000000g0u0-0i0
  0x59e90	6e 00 00 00 00 00 00 00 68 00 65 00 2d 00 69 00 	n0000000h0e0-0i0
  0x59ea0	6c 00 00 00 00 00 00 00 68 00 69 00 2d 00 69 00 	l0000000h0i0-0i0
  0x59eb0	6e 00 00 00 00 00 00 00 68 00 72 00 2d 00 62 00 	n0000000h0r0-0b0
  0x59ec0	61 00 00 00 00 00 00 00 68 00 72 00 2d 00 68 00 	a0000000h0r0-0h0
  0x59ed0	72 00 00 00 00 00 00 00 68 00 75 00 2d 00 68 00 	r0000000h0u0-0h0
  0x59ee0	75 00 00 00 00 00 00 00 68 00 79 00 2d 00 61 00 	u0000000h0y0-0a0
  0x59ef0	6d 00 00 00 00 00 00 00 69 00 64 00 2d 00 69 00 	m0000000i0d0-0i0
  0x59f00	64 00 00 00 00 00 00 00 69 00 73 00 2d 00 69 00 	d0000000i0s0-0i0
  0x59f10	73 00 00 00 00 00 00 00 69 00 74 00 2d 00 63 00 	s0000000i0t0-0c0
  0x59f20	68 00 00 00 00 00 00 00 69 00 74 00 2d 00 69 00 	h0000000i0t0-0i0
  0x59f30	74 00 00 00 00 00 00 00 6a 00 61 00 2d 00 6a 00 	t0000000j0a0-0j0
  0x59f40	70 00 00 00 00 00 00 00 6b 00 61 00 2d 00 67 00 	p0000000k0a0-0g0
  0x59f50	65 00 00 00 00 00 00 00 6b 00 6b 00 2d 00 6b 00 	e0000000k0k0-0k0
  0x59f60	7a 00 00 00 00 00 00 00 6b 00 6e 00 2d 00 69 00 	z0000000k0n0-0i0
  0x59f70	6e 00 00 00 00 00 00 00 6b 00 6f 00 6b 00 2d 00 	n0000000k0o0k0-0
  0x59f80	69 00 6e 00 00 00 00 00 6b 00 6f 00 2d 00 6b 00 	i0n00000k0o0-0k0
  0x59f90	72 00 00 00 00 00 00 00 6b 00 79 00 2d 00 6b 00 	r0000000k0y0-0k0
  0x59fa0	67 00 00 00 00 00 00 00 6c 00 74 00 2d 00 6c 00 	g0000000l0t0-0l0
  0x59fb0	74 00 00 00 00 00 00 00 6c 00 76 00 2d 00 6c 00 	t0000000l0v0-0l0
  0x59fc0	76 00 00 00 00 00 00 00 6d 00 69 00 2d 00 6e 00 	v0000000m0i0-0n0
  0x59fd0	7a 00 00 00 00 00 00 00 6d 00 6b 00 2d 00 6d 00 	z0000000m0k0-0m0
  0x59fe0	6b 00 00 00 00 00 00 00 6d 00 6c 00 2d 00 69 00 	k0000000m0l0-0i0
  0x59ff0	6e 00 00 00 00 00 00 00 6d 00 6e 00 2d 00 6d 00 	n0000000m0n0-0m0
  0x5a000	6e 00 00 00 00 00 00 00 6d 00 72 00 2d 00 69 00 	n0000000m0r0-0i0
  0x5a010	6e 00 00 00 00 00 00 00 6d 00 73 00 2d 00 62 00 	n0000000m0s0-0b0
  0x5a020	6e 00 00 00 00 00 00 00 6d 00 73 00 2d 00 6d 00 	n0000000m0s0-0m0
  0x5a030	79 00 00 00 00 00 00 00 6d 00 74 00 2d 00 6d 00 	y0000000m0t0-0m0
  0x5a040	74 00 00 00 00 00 00 00 6e 00 62 00 2d 00 6e 00 	t0000000n0b0-0n0
  0x5a050	6f 00 00 00 00 00 00 00 6e 00 6c 00 2d 00 62 00 	o0000000n0l0-0b0
  0x5a060	65 00 00 00 00 00 00 00 6e 00 6c 00 2d 00 6e 00 	e0000000n0l0-0n0
  0x5a070	6c 00 00 00 00 00 00 00 6e 00 6e 00 2d 00 6e 00 	l0000000n0n0-0n0
  0x5a080	6f 00 00 00 00 00 00 00 6e 00 73 00 2d 00 7a 00 	o0000000n0s0-0z0
  0x5a090	61 00 00 00 00 00 00 00 70 00 61 00 2d 00 69 00 	a0000000p0a0-0i0
  0x5a0a0	6e 00 00 00 00 00 00 00 70 00 6c 00 2d 00 70 00 	n0000000p0l0-0p0
  0x5a0b0	6c 00 00 00 00 00 00 00 70 00 74 00 2d 00 62 00 	l0000000p0t0-0b0
  0x5a0c0	72 00 00 00 00 00 00 00 70 00 74 00 2d 00 70 00 	r0000000p0t0-0p0
  0x5a0d0	74 00 00 00 00 00 00 00 71 00 75 00 7a 00 2d 00 	t0000000q0u0z0-0
  0x5a0e0	62 00 6f 00 00 00 00 00 71 00 75 00 7a 00 2d 00 	b0o00000q0u0z0-0
  0x5a0f0	65 00 63 00 00 00 00 00 71 00 75 00 7a 00 2d 00 	e0c00000q0u0z0-0
  0x5a100	70 00 65 00 00 00 00 00 72 00 6f 00 2d 00 72 00 	p0e00000r0o0-0r0
  0x5a110	6f 00 00 00 00 00 00 00 72 00 75 00 2d 00 72 00 	o0000000r0u0-0r0
  0x5a120	75 00 00 00 00 00 00 00 73 00 61 00 2d 00 69 00 	u0000000s0a0-0i0
  0x5a130	6e 00 00 00 00 00 00 00 73 00 65 00 2d 00 66 00 	n0000000s0e0-0f0
  0x5a140	69 00 00 00 00 00 00 00 73 00 65 00 2d 00 6e 00 	i0000000s0e0-0n0
  0x5a150	6f 00 00 00 00 00 00 00 73 00 65 00 2d 00 73 00 	o0000000s0e0-0s0
  0x5a160	65 00 00 00 00 00 00 00 73 00 6b 00 2d 00 73 00 	e0000000s0k0-0s0
  0x5a170	6b 00 00 00 00 00 00 00 73 00 6c 00 2d 00 73 00 	k0000000s0l0-0s0
  0x5a180	69 00 00 00 00 00 00 00 73 00 6d 00 61 00 2d 00 	i0000000s0m0a0-0
  0x5a190	6e 00 6f 00 00 00 00 00 73 00 6d 00 61 00 2d 00 	n0o00000s0m0a0-0
  0x5a1a0	73 00 65 00 00 00 00 00 73 00 6d 00 6a 00 2d 00 	s0e00000s0m0j0-0
  0x5a1b0	6e 00 6f 00 00 00 00 00 73 00 6d 00 6a 00 2d 00 	n0o00000s0m0j0-0
  0x5a1c0	73 00 65 00 00 00 00 00 73 00 6d 00 6e 00 2d 00 	s0e00000s0m0n0-0
  0x5a1d0	66 00 69 00 00 00 00 00 73 00 6d 00 73 00 2d 00 	f0i00000s0m0s0-0
  0x5a1e0	66 00 69 00 00 00 00 00 73 00 71 00 2d 00 61 00 	f0i00000s0q0-0a0
  0x5a1f0	6c 00 00 00 00 00 00 00 73 00 72 00 2d 00 62 00 	l0000000s0r0-0b0
  0x5a200	61 00 2d 00 63 00 79 00 72 00 6c 00 00 00 00 00 	a0-0c0y0r0l00000
  0x5a210	73 00 72 00 2d 00 62 00 61 00 2d 00 6c 00 61 00 	s0r0-0b0a0-0l0a0
  0x5a220	74 00 6e 00 00 00 00 00 73 00 72 00 2d 00 73 00 	t0n00000s0r0-0s0
  0x5a230	70 00 2d 00 63 00 79 00 72 00 6c 00 00 00 00 00 	p0-0c0y0r0l00000
  0x5a240	73 00 72 00 2d 00 73 00 70 00 2d 00 6c 00 61 00 	s0r0-0s0p0-0l0a0
  0x5a250	74 00 6e 00 00 00 00 00 73 00 76 00 2d 00 66 00 	t0n00000s0v0-0f0
  0x5a260	69 00 00 00 00 00 00 00 73 00 76 00 2d 00 73 00 	i0000000s0v0-0s0
  0x5a270	65 00 00 00 00 00 00 00 73 00 77 00 2d 00 6b 00 	e0000000s0w0-0k0
  0x5a280	65 00 00 00 00 00 00 00 73 00 79 00 72 00 2d 00 	e0000000s0y0r0-0
  0x5a290	73 00 79 00 00 00 00 00 74 00 61 00 2d 00 69 00 	s0y00000t0a0-0i0
  0x5a2a0	6e 00 00 00 00 00 00 00 74 00 65 00 2d 00 69 00 	n0000000t0e0-0i0
  0x5a2b0	6e 00 00 00 00 00 00 00 74 00 68 00 2d 00 74 00 	n0000000t0h0-0t0
  0x5a2c0	68 00 00 00 00 00 00 00 74 00 6e 00 2d 00 7a 00 	h0000000t0n0-0z0
  0x5a2d0	61 00 00 00 00 00 00 00 74 00 72 00 2d 00 74 00 	a0000000t0r0-0t0
  0x5a2e0	72 00 00 00 00 00 00 00 74 00 74 00 2d 00 72 00 	r0000000t0t0-0r0
  0x5a2f0	75 00 00 00 00 00 00 00 75 00 6b 00 2d 00 75 00 	u0000000u0k0-0u0
  0x5a300	61 00 00 00 00 00 00 00 75 00 72 00 2d 00 70 00 	a0000000u0r0-0p0
  0x5a310	6b 00 00 00 00 00 00 00 75 00 7a 00 2d 00 75 00 	k0000000u0z0-0u0
  0x5a320	7a 00 2d 00 63 00 79 00 72 00 6c 00 00 00 00 00 	z0-0c0y0r0l00000
  0x5a330	75 00 7a 00 2d 00 75 00 7a 00 2d 00 6c 00 61 00 	u0z0-0u0z0-0l0a0
  0x5a340	74 00 6e 00 00 00 00 00 76 00 69 00 2d 00 76 00 	t0n00000v0i0-0v0
  0x5a350	6e 00 00 00 00 00 00 00 78 00 68 00 2d 00 7a 00 	n0000000x0h0-0z0
  0x5a360	61 00 00 00 00 00 00 00 7a 00 68 00 2d 00 63 00 	a0000000z0h0-0c0
  0x5a370	68 00 73 00 00 00 00 00 7a 00 68 00 2d 00 63 00 	h0s00000z0h0-0c0
  0x5a380	68 00 74 00 00 00 00 00 7a 00 68 00 2d 00 63 00 	h0t00000z0h0-0c0
  0x5a390	6e 00 00 00 00 00 00 00 7a 00 68 00 2d 00 68 00 	n0000000z0h0-0h0
  0x5a3a0	6b 00 00 00 00 00 00 00 7a 00 68 00 2d 00 6d 00 	k0000000z0h0-0m0
  0x5a3b0	6f 00 00 00 00 00 00 00 7a 00 68 00 2d 00 73 00 	o0000000z0h0-0s0
  0x5a3c0	67 00 00 00 00 00 00 00 7a 00 68 00 2d 00 74 00 	g0000000z0h0-0t0
  0x5a3d0	77 00 00 00 00 00 00 00 7a 00 75 00 2d 00 7a 00 	w0000000z0u0-0z0
  0x5a3e0	61 00 00 00 00 00 00 00 53 75 6e 4d 6f 6e 54 75 	a0000000SunMonTu
  0x5a3f0	65 57 65 64 54 68 75 46 72 69 53 61 74 00 00 00 	eWedThuFriSat000
  0x5a400	4a 61 6e 46 65 62 4d 61 72 41 70 72 4d 61 79 4a 	JanFebMarAprMayJ
  0x5a410	75 6e 4a 75 6c 41 75 67 53 65 70 4f 63 74 4e 6f 	unJulAugSepOctNo
  0x5a420	76 44 65 63 00 00 00 00 ff ff ff ff 1e 00 00 00 	vDec000000000000
  0x5a430	3a 00 00 00 59 00 00 00 77 00 00 00 96 00 00 00 	:000Y000w0000000
  0x5a440	b4 00 00 00 d3 00 00 00 f2 00 00 00 10 01 00 00 	0000000000000000
  0x5a450	2f 01 00 00 4d 01 00 00 6c 01 00 00 00 00 00 00 	/000M000l0000000
  0x5a460	ff ff ff ff 1e 00 00 00 3b 00 00 00 5a 00 00 00 	00000000;000Z000
  0x5a470	78 00 00 00 97 00 00 00 b5 00 00 00 d4 00 00 00 	x000000000000000
  0x5a480	f3 00 00 00 11 01 00 00 30 01 00 00 4e 01 00 00 	000000000000N000
  0x5a490	6d 01 00 00 54 00 5a 00 00 00 00 00 00 00 00 00 	m000T0Z000000000
  0x5a4a0	22 05 93 19 01 00 00 00 c4 a0 06 00 00 00 00 00 	"000000000000000
  0x5a4b0	00 00 00 00 01 00 00 00 c0 a4 06 00 28 00 00 00 	000000000000(000
  0x5a4c0	00 00 00 00 01 00 00 00 00 00 00 00 00 00 f0 3f 	000000000000000?
  0x5a4d0	00 00 00 00 00 00 f0 ff 00 00 00 00 00 00 00 00 	0000000000000000
  0x5a4e0	00 00 00 00 00 00 f0 7f 00 00 00 00 00 00 00 00 	0000000000000000
  0x5a4f0	00 00 00 00 00 00 f8 ff 00 00 00 00 00 00 00 00 	0000000000000000
  0x5a500	00 00 00 00 00 00 08 00 00 00 00 00 00 00 00 00 	0000000000000000
  0x5a510	ff 03 00 00 00 00 00 00 00 00 00 00 00 00 00 00 	0000000000000000
  0x5a520	01 00 00 00 00 00 00 00 00 00 00 00 00 00 00 00 	0000000000000000
  0x5a530	ff ff ff ff ff ff 0f 00 00 00 00 00 00 00 00 00 	0000000000000000
  0x5a540	00 00 00 00 00 f0 0f 00 00 00 00 00 00 00 00 00 	0000000000000000
  0x5a550	00 00 00 00 00 08 00 00 00 00 00 00 00 00 00 00 	0000000000000000
  0x5a560	0e e5 26 15 7b cb db 3f 00 00 00 00 00 00 00 00 	00&0{00?00000000
  0x5a570	00 00 00 00 78 cb db 3f 00 00 00 00 00 00 00 00 	0000x00?00000000
  0x5a580	35 95 71 28 37 a9 a8 3e 00 00 00 00 00 00 00 00 	50q(700>00000000
  0x5a590	00 00 00 50 13 44 d3 3f 00 00 00 00 00 00 00 00 	000P0D0?00000000
  0x5a5a0	25 3e 62 de 3f ef 03 3e 00 00 00 00 00 00 00 00 	%>b0?00>00000000
  0x5a5b0	00 00 00 00 00 00 00 40 00 00 00 00 00 00 00 00 	0000000@00000000
  0x5a5c0	00 00 00 00 00 00 f0 3f 00 00 00 00 00 00 00 00 	0000000?00000000
  0x5a5d0	00 00 00 00 00 00 e0 3f 00 00 00 00 00 00 00 00 	0000000?00000000
  0x5a5e0	00 01 00 00 00 00 00 00 00 00 00 00 00 00 00 00 	0000000000000000
  0x5a5f0	00 00 00 00 00 00 60 3f 00 00 00 00 00 00 00 00 	000000`?00000000
  0x5a600	00 00 00 00 00 00 e0 3f 00 00 00 00 00 00 00 00 	0000000?00000000
  0x5a610	55 55 55 55 55 55 d5 3f 00 00 00 00 00 00 00 00 	UUUUUU0?00000000
  0x5a620	00 00 00 00 00 00 d0 3f 00 00 00 00 00 00 00 00 	0000000?00000000
  0x5a630	9a 99 99 99 99 99 c9 3f 00 00 00 00 00 00 00 00 	0000000?00000000
  0x5a640	55 55 55 55 55 55 c5 3f 00 00 00 00 00 00 00 00 	UUUUUU0?00000000
  0x5a650	00 00 00 00 00 f8 8f c0 00 00 00 00 00 00 00 00 	0000000000000000
  0x5a660	fd 07 00 00 00 00 00 00 00 00 00 00 00 00 00 00 	0000000000000000
  0x5a670	00 00 00 00 00 00 b0 3f 00 00 00 00 00 00 00 00 	0000000?00000000
  0x5a680	00 00 00 00 00 00 ee 3f 00 00 00 00 00 00 00 00 	0000000?00000000
  0x5a690	00 00 00 00 00 00 f1 3f 00 00 00 00 00 00 00 00 	0000000?00000000
  0x5a6a0	00 00 00 00 00 00 10 00 00 00 00 00 00 00 00 00 	0000000000000000
  0x5a6b0	ff ff ff ff ff ff ff 7f 00 00 00 00 00 00 00 00 	0000000000000000
  0x5a6c0	e6 54 55 55 55 55 b5 3f 00 00 00 00 00 00 00 00 	0TUUUU0?00000000
  0x5a6d0	d4 c6 ba 99 99 99 89 3f 00 00 00 00 00 00 00 00 	0000000?00000000
  0x5a6e0	9f 51 f1 07 23 49 62 3f 00 00 00 00 00 00 00 00 	0Q00#Ib?00000000
  0x5a6f0	f0 ff 5d c8 34 80 3c 3f 00 00 00 00 00 00 00 00 	00]040<?00000000
  0x5a700	00 00 00 00 ff ff ff ff 00 00 00 00 00 00 00 00 	0000000000000000
  0x5a710	01 00 00 00 02 00 00 00 03 00 00 00 00 00 00 00 	0000000000000000
  0x5a720	22 05 93 19 00 00 00 00 00 00 00 00 00 00 00 00 	"000000000000000
  0x5a730	00 00 00 00 01 00 00 00 70 a6 06 00 a8 00 00 00 	00000000p0000000
  0x5a740	00 00 00 00 05 00 00 00 00 00 00 00 00 00 00 00 	0000000000000000
  0x5a750	00 00 00 00 00 00 00 00 00 00 00 90 9e bd 5b 3f 	00000000000000[?
  0x5a760	00 00 00 70 d4 af 6b 3f 00 00 00 60 95 b9 74 3f 	000p00k?000`00t?
  0x5a770	00 00 00 a0 76 94 7b 3f 00 00 00 a0 4d 34 81 3f 	0000v0{?0000M40?
  0x5a780	00 00 00 50 08 9b 84 3f 00 00 00 c0 71 fe 87 3f 	000P000?0000q00?
  0x5a790	00 00 00 80 90 5e 8b 3f 00 00 00 f0 6a bb 8e 3f 	00000^0?0000j00?
  0x5a7a0	00 00 00 a0 83 0a 91 3f 00 00 00 e0 b5 b5 92 3f 	0000000?0000000?
  0x5a7b0	00 00 00 50 4f 5f 94 3f 00 00 00 00 53 07 96 3f 	000PO_0?0000S00?
  0x5a7c0	00 00 00 d0 c3 ad 97 3f 00 00 00 f0 a4 52 99 3f 	0000000?00000R0?
  0x5a7d0	00 00 00 20 f9 f5 9a 3f 00 00 00 70 c3 97 9c 3f 	000 000?000p000?
  0x5a7e0	00 00 00 a0 06 38 9e 3f 00 00 00 b0 c5 d6 9f 3f 	0000080?0000000?
  0x5a7f0	00 00 00 a0 01 ba a0 3f 00 00 00 20 e1 87 a1 3f 	0000000?000 000?
  0x5a800	00 00 00 c0 02 55 a2 3f 00 00 00 c0 67 21 a3 3f 	00000U0?0000g!0?
  0x5a810	00 00 00 90 11 ed a3 3f 00 00 00 80 01 b8 a4 3f 	0000000?0000000?
  0x5a820	00 00 00 e0 38 82 a5 3f 00 00 00 10 b9 4b a6 3f 	0000800?00000K0?
  0x5a830	00 00 00 40 83 14 a7 3f 00 00 00 c0 98 dc a7 3f 	000@000?0000000?
  0x5a840	00 00 00 d0 fa a3 a8 3f 00 00 00 c0 aa 6a a9 3f 	0000000?00000j0?
  0x5a850	00 00 00 d0 a9 30 aa 3f 00 00 00 20 f9 f5 aa 3f 	0000000?000 000?
  0x5a860	00 00 00 00 9a ba ab 3f 00 00 00 90 8d 7e ac 3f 	0000000?00000~0?
  0x5a870	00 00 00 10 d5 41 ad 3f 00 00 00 a0 71 04 ae 3f 	00000A0?0000q00?
  0x5a880	00 00 00 70 64 c6 ae 3f 00 00 00 b0 ae 87 af 3f 	000pd00?0000000?
  0x5a890	00 00 00 c0 28 24 b0 3f 00 00 00 f0 26 84 b0 3f 	0000($0?0000&00?
  0x5a8a0	00 00 00 90 d2 e3 b0 3f 00 00 00 30 2c 43 b1 3f 	0000000?0000,C0?
  0x5a8b0	00 00 00 40 34 a2 b1 3f 00 00 00 60 eb 00 b2 3f 	000@400?000`000?
  0x5a8c0	00 00 00 10 52 5f b2 3f 00 00 00 e0 68 bd b2 3f 	0000R_0?0000h00?
  0x5a8d0	00 00 00 50 30 1b b3 3f 00 00 00 e0 a8 78 b3 3f 	000P000?00000x0?
  0x5a8e0	00 00 00 30 d3 d5 b3 3f 00 00 00 a0 af 32 b4 3f 	0000000?0000020?
  0x5a8f0	00 00 00 d0 3e 8f b4 3f 00 00 00 20 81 eb b4 3f 	0000>00?000 000?
  0x5a900	00 00 00 30 77 47 b5 3f 00 00 00 60 21 a3 b5 3f 	0000wG0?000`!00?
  0x5a910	00 00 00 40 80 fe b5 3f 00 00 00 40 94 59 b6 3f 	000@000?000@0Y0?
  0x5a920	00 00 00 f0 5d b4 b6 3f 00 00 00 b0 dd 0e b7 3f 	0000]00?0000000?
  0x5a930	00 00 00 00 14 69 b7 3f 00 00 00 60 01 c3 b7 3f 	00000i0?000`000?
  0x5a940	00 00 00 30 a6 1c b8 3f 00 00 00 00 03 76 b8 3f 	0000000?00000v0?
  0x5a950	00 00 00 30 18 cf b8 3f 00 00 00 40 e6 27 b9 3f 	0000000?000@0'0?
  0x5a960	00 00 00 90 6d 80 b9 3f 00 00 00 a0 ae d8 b9 3f 	0000m00?0000000?
  0x5a970	00 00 00 d0 a9 30 ba 3f 00 00 00 a0 5f 88 ba 3f 	0000000?0000_00?
  0x5a980	00 00 00 70 d0 df ba 3f 00 00 00 b0 fc 36 bb 3f 	000p000?0000060?
  0x5a990	00 00 00 d0 e4 8d bb 3f 00 00 00 30 89 e4 bb 3f 	0000000?0000000?
  0x5a9a0	00 00 00 40 ea 3a bc 3f 00 00 00 70 08 91 bc 3f 	000@0:0?000p000?
  0x5a9b0	00 00 00 10 e4 e6 bc 3f 00 00 00 a0 7d 3c bd 3f 	0000000?0000}<0?
  0x5a9c0	00 00 00 80 d5 91 bd 3f 00 00 00 00 ec e6 bd 3f 	0000000?0000000?
  0x5a9d0	00 00 00 a0 c1 3b be 3f 00 00 00 b0 56 90 be 3f 	00000;0?0000V00?
  0x5a9e0	00 00 00 a0 ab e4 be 3f 00 00 00 c0 c0 38 bf 3f 	0000000?0000080?
  0x5a9f0	00 00 00 80 96 8c bf 3f 00 00 00 30 2d e0 bf 3f 	0000000?0000-00?
  0x5aa00	00 00 00 a0 c2 19 c0 3f 00 00 00 70 4f 43 c0 3f 	0000000?000pOC0?
  0x5aa10	00 00 00 60 bd 6c c0 3f 00 00 00 80 0c 96 c0 3f 	000`0l0?0000000?
  0x5aa20	00 00 00 00 3d bf c0 3f 00 00 00 10 4f e8 c0 3f 	0000=00?0000O00?
  0x5aa30	00 00 00 f0 42 11 c1 3f 00 00 00 a0 18 3a c1 3f 	0000B00?00000:0?
  0x5aa40	00 00 00 80 d0 62 c1 3f 00 00 00 90 6a 8b c1 3f 	00000b0?0000j00?
  0x5aa50	00 00 00 10 e7 b3 c1 3f 00 00 00 30 46 dc c1 3f 	0000000?0000F00?
  0x5aa60	00 00 00 10 88 04 c2 3f 00 00 00 e0 ac 2c c2 3f 	0000000?00000,0?
  0x5aa70	00 00 00 d0 b4 54 c2 3f 00 00 00 f0 9f 7c c2 3f 	00000T0?00000|0?
  0x5aa80	00 00 00 80 6e a4 c2 3f 00 00 00 b0 20 cc c2 3f 	0000n00?0000 00?
  0x5aa90	00 00 00 90 b6 f3 c2 3f 00 00 00 50 30 1b c3 3f 	0000000?000P000?
  0x5aaa0	00 00 00 20 8e 42 c3 3f 00 00 00 20 d0 69 c3 3f 	000 0B0?000 0i0?
  0x5aab0	00 00 00 80 f6 90 c3 3f 00 00 00 60 01 b8 c3 3f 	0000000?000`000?
  0x5aac0	00 00 00 e0 f0 de c3 3f 00 00 00 30 c5 05 c4 3f 	0000000?0000000?
  0x5aad0	00 00 00 70 7e 2c c4 3f 00 00 00 d0 1c 53 c4 3f 	000p~,0?00000S0?
  0x5aae0	00 00 00 70 a0 79 c4 3f 00 00 00 70 09 a0 c4 3f 	000p0y0?000p000?
  0x5aaf0	00 00 00 00 58 c6 c4 3f 00 00 00 30 8c ec c4 3f 	0000X00?0000000?
  0x5ab00	00 00 00 40 a6 12 c5 3f 00 00 00 30 a6 38 c5 3f 	000@000?0000080?
  0x5ab10	00 00 00 50 8c 5e c5 3f 00 00 00 90 58 84 c5 3f 	000P0^0?0000X00?
  0x5ab20	00 00 00 40 0b aa c5 3f 00 00 00 70 a4 cf c5 3f 	000@000?000p000?
  0x5ab30	00 00 00 40 24 f5 c5 3f 00 00 00 d0 8a 1a c6 3f 	000@$00?0000000?
  0x5ab40	00 00 00 50 d8 3f c6 3f 00 00 00 d0 0c 65 c6 3f 	000P0?0?00000e0?
  0x5ab50	00 00 00 80 28 8a c6 3f 00 00 00 80 2b af c6 3f 	0000(00?0000+00?
  0x5ab60	00 00 00 e0 15 d4 c6 3f 00 00 00 d0 e7 f8 c6 3f 	0000000?0000000?
  0x5ab70	00 00 00 70 a1 1d c7 3f 00 00 00 e0 42 42 c7 3f 	000p000?0000BB0?
  0x5ab80	00 00 00 40 cc 66 c7 3f 00 00 00 a0 3d 8b c7 3f 	000@0f0?0000=00?
  0x5ab90	00 00 00 30 97 af c7 3f 00 00 00 10 d9 d3 c7 3f 	0000000?0000000?
  0x5aba0	00 00 00 50 03 f8 c7 3f 00 00 00 20 16 1c c8 3f 	000P000?000 000?
  0x5abb0	00 00 00 90 11 40 c8 3f 00 00 00 c0 f5 63 c8 3f 	00000@0?00000c0?
  0x5abc0	00 00 00 e0 c2 87 c8 3f 00 00 00 00 79 ab c8 3f 	0000000?0000y00?
  0x5abd0	00 00 00 30 18 cf c8 3f 00 00 00 a0 a0 f2 c8 3f 	0000000?0000000?
  0x5abe0	00 00 00 70 12 16 c9 3f 00 00 00 b0 6d 39 c9 3f 	000p000?0000m90?
  0x5abf0	00 00 00 80 b2 5c c9 3f 00 00 00 00 e1 7f c9 3f 	0000000?0000000?
  0x5ac00	00 00 00 50 f9 a2 c9 3f 00 00 00 70 fb c5 c9 3f 	000P000?000p000?
  0x5ac10	00 00 00 b0 e7 e8 c9 3f 00 00 00 f0 bd 0b ca 3f 	0000000?0000000?
  0x5ac20	00 00 00 80 7e 2e ca 3f 00 00 00 60 29 51 ca 3f 	0000~.0?000`)Q0?
  0x5ac30	00 00 00 a0 be 73 ca 3f 00 00 00 70 3e 96 ca 3f 	00000s0?000p>00?
  0x5ac40	00 00 00 f0 a8 b8 ca 3f 00 00 00 20 fe da ca 3f 	0000000?000 000?
  0x5ac50	00 00 00 30 3e fd ca 3f 00 00 00 30 69 1f cb 3f 	0000>00?0000i00?
  0x5ac60	00 00 00 40 7f 41 cb 3f 00 00 00 70 80 63 cb 3f 	000@0A0?000p0c0?
  0x5ac70	00 00 00 f0 6c 85 cb 3f 00 00 00 b0 44 a7 cb 3f 	0000l00?0000D00?
  0x5ac80	00 00 00 f0 07 c9 cb 3f 00 00 00 c0 b6 ea cb 3f 	0000000?0000000?
  0x5ac90	00 00 00 30 51 0c cc 3f 00 00 00 50 d7 2d cc 3f 	0000Q00?000P0-0?
  0x5aca0	00 00 00 50 49 4f cc 3f 00 00 00 40 a7 70 cc 3f 	000PIO0?000@0p0?
  0x5acb0	00 00 00 30 f1 91 cc 3f 00 00 00 40 27 b3 cc 3f 	0000000?000@'00?
  0x5acc0	00 00 00 80 49 d4 cc 3f 00 00 00 10 58 f5 cc 3f 	0000I00?0000X00?
  0x5acd0	00 00 00 00 53 16 cd 3f 00 00 00 60 3a 37 cd 3f 	0000S00?000`:70?
  0x5ace0	00 00 00 60 0e 58 cd 3f 00 00 00 00 cf 78 cd 3f 	000`0X0?00000x0?
  0x5acf0	00 00 00 70 7c 99 cd 3f 00 00 00 a0 16 ba cd 3f 	000p|00?0000000?
  0x5ad00	00 00 00 d0 9d da cd 3f 00 00 00 f0 11 fb cd 3f 	0000000?0000000?
  0x5ad10	00 00 00 30 73 1b ce 3f 00 00 00 a0 c1 3b ce 3f 	0000s00?00000;0?
  0x5ad20	00 00 00 50 fd 5b ce 3f 00 00 00 60 26 7c ce 3f 	000P0[0?000`&|0?
  0x5ad30	00 00 00 e0 3c 9c ce 3f 00 00 00 e0 40 bc ce 3f 	0000<00?0000@00?
  0x5ad40	00 00 00 80 32 dc ce 3f 00 00 00 d0 11 fc ce 3f 	0000200?0000000?
  0x5ad50	00 00 00 e0 de 1b cf 3f 00 00 00 d0 99 3b cf 3f 	0000000?00000;0?
  0x5ad60	00 00 00 a0 42 5b cf 3f 00 00 00 80 d9 7a cf 3f 	0000B[0?00000z0?
  0x5ad70	00 00 00 70 5e 9a cf 3f 00 00 00 90 d1 b9 cf 3f 	000p^00?0000000?
  0x5ad80	00 00 00 f0 32 d9 cf 3f 00 00 00 a0 82 f8 cf 3f 	0000200?0000000?
  0x5ad90	00 00 00 50 e0 0b d0 3f 00 00 00 a0 76 1b d0 3f 	000P000?0000v00?
  0x5ada0	00 00 00 30 04 2b d0 3f 00 00 00 10 89 3a d0 3f 	00000+0?00000:0?
  0x5adb0	00 00 00 40 05 4a d0 3f 00 00 00 e0 78 59 d0 3f 	000@0J0?0000xY0?
  0x5adc0	00 00 00 f0 e3 68 d0 3f 00 00 00 70 46 78 d0 3f 	00000h0?000pFx0?
  0x5add0	00 00 00 80 a0 87 d0 3f 00 00 00 10 f2 96 d0 3f 	0000000?0000000?
  0x5ade0	00 00 00 30 3b a6 d0 3f 00 00 00 f0 7b b5 d0 3f 	0000;00?0000{00?
  0x5adf0	00 00 00 50 b4 c4 d0 3f 00 00 00 60 e4 d3 d0 3f 	000P000?000`000?
  0x5ae00	00 00 00 30 0c e3 d0 3f 00 00 00 c0 2b f2 d0 3f 	0000000?0000+00?
  0x5ae10	00 00 00 10 43 01 d1 3f 00 00 00 40 52 10 d1 3f 	0000C00?000@R00?
  0x5ae20	00 00 00 40 59 1f d1 3f 00 00 00 30 58 2e d1 3f 	000@Y00?0000X.0?
  0x5ae30	00 00 00 00 4f 3d d1 3f 00 00 00 d0 3d 4c d1 3f 	0000O=0?0000=L0?
  0x5ae40	00 00 00 a0 24 5b d1 3f 00 00 00 70 03 6a d1 3f 	0000$[0?000p0j0?
  0x5ae50	00 00 00 50 da 78 d1 3f 00 00 00 40 a9 87 d1 3f 	000P0x0?000@000?
  0x5ae60	00 00 00 60 70 96 d1 3f 00 00 00 a0 2f a5 d1 3f 	000`p00?0000/00?
  0x5ae70	00 00 00 10 e7 b3 d1 3f 00 00 00 c0 96 c2 d1 3f 	0000000?0000000?
  0x5ae80	00 00 00 b0 3e d1 d1 3f 00 00 00 f0 de df d1 3f 	0000>00?0000000?
  0x5ae90	00 00 00 70 77 ee d1 3f 00 00 00 60 08 fd d1 3f 	000pw00?000`000?
  0x5aea0	00 00 00 a0 91 0b d2 3f 00 00 00 50 13 1a d2 3f 	0000000?000P000?
  0x5aeb0	00 00 00 70 8d 28 d2 3f 00 00 00 10 00 37 d2 3f 	000p0(0?0000070?
  0x5aec0	00 00 00 30 6b 45 d2 3f 00 00 00 d0 ce 53 d2 3f 	0000kE0?00000S0?
  0x5aed0	00 00 00 00 2b 62 d2 3f 00 00 00 d0 7f 70 d2 3f 	0000+b0?00000p0?
  0x5aee0	00 00 00 40 cd 7e d2 3f 00 00 00 60 13 8d d2 3f 	000@0~0?000`000?
  0x5aef0	00 00 00 20 52 9b d2 3f 00 00 00 a0 89 a9 d2 3f 	000 R00?0000000?
  0x5af00	00 00 00 e0 b9 b7 d2 3f 00 00 00 e0 e2 c5 d2 3f 	0000000?0000000?
  0x5af10	00 00 00 b0 04 d4 d2 3f 00 00 00 50 1f e2 d2 3f 	0000000?000P000?
  0x5af20	00 00 00 c0 32 f0 d2 3f 00 00 00 20 3f fe d2 3f 	0000200?000 ?00?
  0x5af30	00 00 00 70 44 0c d3 3f 00 00 00 b0 42 1a d3 3f 	000pD00?0000B00?
  0x5af40	00 00 00 e0 39 28 d3 3f 00 00 00 10 2a 36 d3 3f 	00009(0?0000*60?
  0x5af50	00 00 00 50 13 44 d3 3f 00 00 00 00 00 00 00 00 	000P0D0?00000000
  0x5af60	00 00 00 00 00 00 00 00 8f 20 b2 22 bc 0a b2 3d 	000000000 0"000=
  0x5af70	d4 0d 2e 33 69 0f b1 3d 57 d2 7e e8 0d 95 ce 3d 	00.3i00=W0~0000=
  0x5af80	69 6d 62 3b 44 f3 d3 3d 57 3e 36 a5 ea 5a f4 3d 	imb;D00=W>600Z0=
  0x5af90	0b bf e1 3c 68 43 c4 3d 11 a5 c6 60 cd 89 f9 3d 	000<hC0=000`000=
  0x5afa0	9f 2e 1f 20 6f 62 fd 3d cd bd da b8 8b 4f e9 3d 	0.0 ob0=00000O0=
  0x5afb0	15 30 42 ef d8 88 00 3e ad 79 2b a6 13 04 08 3e 	00B0000>0y+0000>
  0x5afc0	c4 d3 ee c0 17 97 05 3e 02 49 d4 ad 77 4a ad 3d 	0000000>0I00wJ0=
  0x5afd0	0e 30 37 f0 3f 76 0e 3e c3 f6 06 47 d7 62 e1 3d 	0070?v0>000G0b0=
  0x5afe0	14 bc 4d 1f cc 01 06 3e bf e5 f6 51 e0 f3 ea 3d 	00M0000>000Q000=
  0x5aff0	eb f3 1a 1e 0b 7a 09 3e c7 02 c0 70 89 a3 c0 3d 	00000z0>000p000=
  0x5b000	51 c7 57 00 00 2e 10 3e 0e 6e cd ee 00 5b 15 3e 	Q0W00.0>0n000[0>
  0x5b010	af b5 03 70 29 86 df 3d 6d a3 36 b3 b9 57 10 3e 	000p)00=m0600W0>
  0x5b020	4f ea 06 4a c8 4b 13 3e ad bc a1 9e da 43 16 3e 	O00J0K0>00000C0>
  0x5b030	2a ea f7 b4 a7 66 1d 3e ef fc f7 38 e0 b2 f6 3d 	*0000f0>0008000=
  0x5b040	88 f0 70 c6 54 e9 f3 3d b3 ca 3a 09 09 72 04 3e 	00p0T00=00:00r0>
  0x5b050	a7 5d 27 e7 8f 70 1d 3e e7 b9 71 77 9e df 1f 3e 	0]'00p0>00qw000>
  0x5b060	60 06 0a a7 bf 27 08 3e 14 bc 4d 1f cc 01 16 3e 	`0000'0>00M0000>
  0x5b070	5b 5e 6a 10 f6 37 06 3e 4b 62 7c f1 13 6a 12 3e 	[^j0070>Kb|00j0>
  0x5b080	3a 62 80 ce b2 3e 09 3e de 94 15 e9 d1 30 14 3e 	:b000>0>0000000>
  0x5b090	31 a0 8f 10 10 6b 1d 3e 41 f2 ba 0b 9c 87 16 3e 	10000k0>A000000>
  0x5b0a0	2b bc a6 5e 01 08 ff 3d 6c 67 c6 cd 3d b6 29 3e 	+00^000=lg00=0)>
  0x5b0b0	2c ab c4 bc 2c 02 2b 3e 44 65 dd 7d d0 17 f9 3d 	,000,0+>De0}000=
  0x5b0c0	9e 37 03 57 60 40 15 3e 60 1b 7a 94 8b d1 0c 3e 	070W`@0>`0z0000>
  0x5b0d0	7e a9 7c 27 65 ad 17 3e a9 5f 9f c5 4d 88 11 3e 	~0|'e00>0_00M00>
  0x5b0e0	82 d0 06 60 c4 11 17 3e f8 08 31 3c 2e 09 2f 3e 	000`000>001<.0/>
  0x5b0f0	3a e1 2b e3 c5 14 17 3e 9a 4f 73 fd a7 bb 26 3e 	:0+0000>0Os000&>
  0x5b100	83 84 e0 b5 8f f4 fd 3d 95 0b 4d c7 9b 2f 23 3e 	0000000=00M00/#>
  0x5b110	13 0c 79 48 e8 73 f9 3d 6e 58 c6 08 bc cc 1e 3e 	00yH0s0=nX00000>
  0x5b120	98 4a 52 f9 e9 15 21 3e b8 31 31 59 40 17 2f 3e 	0JR000!>011Y@0/>
  0x5b130	35 38 64 25 8b cf 1b 3e 80 ed 8b 1d a8 5f 1f 3e 	58d%000>00000_0>
  0x5b140	e4 d9 29 f9 4d 4a 24 3e 94 0c 22 d8 20 98 12 3e 	00)0MJ$>00"0 00>
  0x5b150	09 e3 04 93 48 0b 2a 3e fe 65 a6 ab 56 4d 1f 3e 	0000H0*>0e00VM0>
  0x5b160	63 51 36 19 90 0c 21 3e 36 27 59 fe 78 0f f8 3d 	cQ6000!>6'Y0x00=
  0x5b170	ca 1c c8 25 88 52 10 3e 6a 74 6d 7d 53 95 e0 3d 	000%0R0>jtm}S00=
  0x5b180	60 06 0a a7 bf 27 18 3e 3c 93 45 ec a8 b0 06 3e 	`0000'0><0E0000>
  0x5b190	a9 db f5 1b f8 5a 10 3e 15 d5 55 26 fa e2 17 3e 	00000Z0>00U&000>
  0x5b1a0	bf e4 ae bf ec 59 0d 3e a3 3f 68 da 2f 8b 1d 3e 	00000Y0>0?h0/00>
  0x5b1b0	37 37 3a fd dd b8 24 3e 04 12 ae 61 7e 82 13 3e 	77:000$>000a~00>
  0x5b1c0	9f 0f e9 49 7b 8c 2c 3e 1d 59 97 15 f0 ea 29 3e 	000I{0,>0Y0000)>
  0x5b1d0	36 7b 31 6e a6 aa 19 3e 55 06 72 09 56 72 2e 3e 	6{1n000>U0r0Vr.>
  0x5b1e0	54 ac 7a fc 33 1c 26 3e 52 a2 61 cf 2b 66 29 3e 	T0z030&>R0a0+f)>
  0x5b1f0	30 27 c4 11 c8 43 18 3e 36 cb 5a 0b bb 64 20 3e 	0'000C0>60Z00d >
  0x5b200	a4 01 27 84 0c 34 0a 3e d6 79 8f b5 55 8e 1a 3e 	00'0040>0y00U00>
  0x5b210	9a 9d 5e 9c 21 2d e9 3d 6a fd 7f 0d e6 63 3f 3e 	00^0!-0=j0000c?>
  0x5b220	14 63 51 d9 0e 9b 2e 3e 0c 35 62 19 90 23 29 3e 	0cQ000.>05b00#)>
  0x5b230	81 5e 78 38 88 6f 32 3e af a6 ab 4c 6a 5b 3b 3e 	0^x80o2>000Lj[;>
  0x5b240	1c 76 8e dc 6a 22 f0 3d ed 1a 3a 31 d7 4a 3c 3e 	0v00j"0=00:10J<>
  0x5b250	17 8d 73 7c e8 64 15 3e 18 66 8a f1 ec 8f 33 3e 	00s|0d0>0f00003>
  0x5b260	66 76 77 f5 9e 92 3d 3e b8 a0 8d f0 3b 48 39 3e 	fvw000=>0000;H9>
  0x5b270	26 58 aa ee 0e dd 3b 3e ba 37 02 59 dd c4 39 3e 	&X0000;>070Y009>
  0x5b280	c7 ca eb e0 e9 f3 1a 3e ac 0d 27 82 53 ce 35 3e 	0000000>00'0S05>
  0x5b290	ba b9 2a 53 74 4f 39 3e 54 86 88 95 27 34 07 3e 	00*StO9>T000'40>
  0x5b2a0	f0 4b e3 0b 00 5a 0c 3e 82 d0 06 60 c4 11 27 3e 	0K000Z0>000`00'>
  0x5b2b0	f8 8c ed b4 25 00 25 3e a0 d2 f2 ce 8b d1 2e 3e 	0000%0%>000000.>
  0x5b2c0	54 75 0a 0c 2e 28 21 3e ca a7 59 33 f3 70 0d 3e 	Tu00.(!>00Y30p0>
  0x5b2d0	25 40 a8 13 7e 7f 2b 3e 1e 89 21 c3 6e 30 33 3e 	%@00~0+>00!0n03>
  0x5b2e0	50 75 8b 03 f8 c7 3f 3e 64 1d d7 8c 35 b0 3e 3e 	Pu0000?>d00050>>
  0x5b2f0	74 94 85 22 c8 76 3a 3e e3 86 de 52 c6 0e 3d 3e 	t00"0v:>000R00=>
  0x5b300	af 58 86 e0 cc a4 2f 3e 9e 0a c0 d2 a2 84 3b 3e 	0X0000/>000000;>
  0x5b310	d1 5b c2 f2 b0 a5 20 3e 99 f6 5b 22 60 d6 3d 3e 	0[0000 >00["`0=>
  0x5b320	37 f0 9b 85 0f b1 08 3e e1 cb 90 b5 23 88 3e 3e 	7000000>0000#0>>
  0x5b330	f6 96 1e f3 11 13 36 3e 9a 0f a2 5c 87 1f 2e 3e 	0000006>000000.>
  0x5b340	a5 b9 39 49 72 95 2c 3e e2 58 3e 7a 95 05 38 3e 	009Ir0,>0X>z008>
  0x5b350	34 03 9f ea 26 f1 2f 3e 09 56 8e 59 f5 53 39 3e 	4000&0/>0V0Y0S9>
  0x5b360	48 c4 56 f8 6f c1 36 3e f4 61 f2 0f 22 cb 24 3e 	H0V0o06>0a00"0$>
  0x5b370	a2 53 3d d5 20 e1 35 3e 56 f2 89 61 7f 52 3a 3e 	0S=0 05>V00a0R:>
  0x5b380	0f 9c d4 ff fc 56 38 3e da d7 28 82 2e 0c 30 3e 	00000V8>00(0.00>
  0x5b390	e0 df 44 94 d0 13 f1 3d a6 59 ea 0e 63 10 25 3e 	00D0000=0Y00c0%>
  0x5b3a0	11 d7 32 0f 78 2e 26 3e cf f8 10 1a d9 3e ed 3d 	0020x.&>00000>0=
  0x5b3b0	85 cd 4b 7e 4a 65 23 3e 21 ad 80 49 78 5b 05 3e 	00K~Je#>!00Ix[0>
  0x5b3c0	64 6e b1 d4 2d 2f 21 3e 0c f5 39 d9 ad c4 37 3e 	dn00-/!>0090007>
  0x5b3d0	fc 80 71 62 84 17 28 3e 61 49 e1 c7 62 51 ea 3d 	00qb00(>aI00bQ0=
  0x5b3e0	63 51 36 19 90 0c 31 3e 88 76 a1 2b 4d 3c 37 3e 	cQ60001>0v0+M<7>
  0x5b3f0	81 3d e9 e0 a5 e8 2a 3e af 21 16 f0 c6 b0 2a 3e 	0=0000*>0!0000*>
  0x5b400	66 5b dd 74 8b 1e 30 3e 94 54 bb ec 6f 20 2d 3e 	f[0t000>0T00o ->
  0x5b410	00 cc 4f 72 8b b4 f0 3d 29 e2 61 0b 1f 83 3f 3e 	00Or000=)0a000?>
  0x5b420	af bc 07 c4 97 1a f8 3d aa b7 cb 1c 6c 28 3e 3e 	0000000=0000l(>>
  0x5b430	93 0a 22 49 0b 63 28 3e 5c 2c a2 c1 15 0b ff 3d 	00"I0c(>0,00000=
  0x5b440	46 09 1c e7 45 54 35 3e 85 6d 06 f8 30 e6 3b 3e 	F000ET5>0m0000;>
  0x5b450	39 6c d9 f0 df 99 25 3e 81 b0 8f b1 85 cc 36 3e 	9l0000%>0000006>
  0x5b460	c8 a8 1e 00 6d 47 34 3e 1f d3 16 9e 88 3f 37 3e 	0000mG4>00000?7>
  0x5b470	87 2a 79 0d 10 57 33 3e f6 01 61 ae 79 d1 3b 3e 	0*y00W3>00a0y0;>
  0x5b480	e2 f6 c3 56 10 a3 0c 3e fb 08 9c 62 70 28 3d 3e 	000V000>000bp(=>
  0x5b490	3f 67 d2 80 38 ba 3a 3e a6 7d 29 cb 33 36 2c 3e 	?g0080:>0})036,>
  0x5b4a0	02 ea ef 99 38 84 21 3e e6 08 20 9d c9 cc 3b 3e 	000080!>00 000;>
  0x5b4b0	50 d3 bd 44 05 00 38 3e e1 6a 60 26 c2 91 2b 3e 	P00D008>0j`&00+>
  0x5b4c0	df 2b b6 26 df 7a 2a 3e c9 6e 82 c8 4f 76 18 3e 	0+0&0z*>0n00Ov0>
  0x5b4d0	f0 68 0f e5 3d 4f 1f 3e e3 95 79 75 ca 60 f7 3d 	0h00=O0>00yu0`0=
  0x5b4e0	47 51 80 d3 7e 66 fc 3d 6f df 6a 19 f6 33 37 3e 	GQ00~f0=o0j0037>
  0x5b4f0	6b 83 3e f3 10 b7 2f 3e 13 10 64 ba 6e 88 39 3e 	k0>000/>00d0n09>
  0x5b500	1a 8c af d0 68 53 fb 3d 71 29 8d 1b 69 8c 35 3e 	0000hS0=q)00i05>
  0x5b510	fb 08 6d 22 65 94 fe 3d 97 00 3f 06 7e 58 33 3e 	00m"e00=00?0~X3>
  0x5b520	18 9f 12 02 e7 18 36 3e 54 ac 7a fc 33 1c 36 3e 	0000006>T0z0306>
  0x5b530	4a 60 08 84 a6 07 3f 3e 21 54 94 e4 bf 34 3c 3e 	J`0000?>!T0004<>
  0x5b540	0b 30 41 0e f0 b1 38 3e 63 1b d6 84 42 43 3f 3e 	00A0008>c000BC?>
  0x5b550	36 74 39 5e 09 63 3a 3e de 19 b9 56 86 42 34 3e 	6t9^0c:>000V0B4>
  0x5b560	a6 d9 b2 01 92 ca 36 3e 1c 93 2a 3a 82 38 27 3e 	0000006>00*:08'>
  0x5b570	30 92 17 0e 88 11 3c 3e fe 52 6d 8d dc 3d 31 3e 	000000<>0Rm00=1>
  0x5b580	17 e9 22 89 d5 ee 33 3e 50 dd 6b 84 92 59 29 3e 	00"0003>P0k00Y)>
  0x5b590	8b 27 2e 5f 4d db 0d 3e c4 35 06 2a f1 a5 f1 3d 	0'._M00>050*000=
  0x5b5a0	34 3c 2c 88 f0 42 46 3e 5e 47 f6 a7 9b ee 2a 3e 	4<,00BF>^G0000*>
  0x5b5b0	e4 60 4a 83 7f 4b 26 3e 2e 79 43 e2 42 0d 29 3e 	0`J00K&>.yC0B0)>
  0x5b5c0	01 4f 13 08 20 27 4c 3e 5b cf d6 16 2e 78 4a 3e 	0O00 'L>[000.xJ>
  0x5b5d0	48 66 da 79 5c 50 44 3e 21 cd 4d ea d4 a9 4c 3e 	Hf0y0PD>!0M000L>
  0x5b5e0	bc d5 7c 62 3d 7d 29 3e 13 aa bc f9 5c b1 20 3e 	00|b=})>000000 >
  0x5b5f0	dd 76 cf 63 20 5b 31 3e 48 27 aa f3 e6 83 29 3e 	0v0c [1>H'0000)>
  0x5b600	94 e9 ff f4 64 4c 3f 3e 0f 5a e8 7c ba be 46 3e 	0000dL?>0Z0|00F>
  0x5b610	b8 a6 4e fd 69 9c 3b 3e ab a4 5f 83 a5 6a 2b 3e 	00N0i0;>00_00j+>
  0x5b620	d1 ed 0f 79 c3 cc 43 3e e0 4f 40 c4 4c c0 29 3e 	000y00C>0O@0L0)>
  0x5b630	9d d8 75 7a 4b 73 40 3e 12 16 e0 c4 04 44 1b 3e 	00uzKs@>00000D0>
  0x5b640	94 48 ce c2 65 c5 40 3e cd 35 d9 41 14 c7 33 3e 	0H00e0@>050A003>
  0x5b650	4e 3b 6b 55 92 a4 72 3d 43 dc 41 03 09 fa 20 3e 	N;kU00r=C0A000 >
  0x5b660	f4 d9 e3 09 70 8f 2e 3e 45 8a 04 8b f6 1b 4b 3e 	0000p0.>E00000K>
  0x5b670	56 a9 fa df 52 ee 3e 3e bd 65 e4 00 09 6b 45 3e 	V000R0>>0e000kE>
  0x5b680	66 76 77 f5 9e 92 4d 3e 60 e2 37 86 a2 6e 48 3e 	fvw000M>`0700nH>
  0x5b690	f0 a2 0c f1 af 65 46 3e 74 ec 48 af fd 11 2f 3e 	00000eF>t0H000/>
  0x5b6a0	c7 d1 a4 86 1b be 4c 3e 65 76 a8 fe 5b b0 25 3e 	000000L>ev00[0%>
  0x5b6b0	1d 4a 1a 0a c2 ce 41 3e 9f 9b 40 0a 5f cd 41 3e 	0J0000A>00@0_0A>
  0x5b6c0	70 50 26 c8 56 36 45 3e 60 22 28 35 d8 7e 37 3e 	pP&0V6E>`"(50~7>
  0x5b6d0	d2 b9 40 30 bc 17 24 3e f2 ef 79 7b ef 8e 40 3e 	00@000$>00y{00@>
  0x5b6e0	e9 57 dc 39 6f c7 4d 3e 57 f4 0c a7 93 04 4c 3e 	0W09o0M>W00000L>
  0x5b6f0	0c a6 a5 ce d6 83 4a 3e ba 57 c5 0d 70 d6 30 3e 	000000J>0W00p00>
  0x5b700	0a bd e8 12 6c c9 44 3e 15 23 e3 93 19 2c 3d 3e 	0000l0D>0#000,=>
  0x5b710	42 82 5f 13 21 c7 22 3e 7d 74 da 4d 3e 9a 27 3e 	B0_0!0">}t0M>0'>
  0x5b720	2b a7 41 69 9f f8 fc 3d 31 08 f1 02 a7 49 21 3e 	+0Ai000=10000I!>
  0x5b730	db 75 81 7c 4b ad 4e 3e 0a e7 63 fe 30 69 4e 3e 	0u0|K0N>00c00iN>
  0x5b740	2f ee d9 be 06 e1 41 3e 92 1c f1 82 2b 68 2d 3e 	/00000A>0000+h->
  0x5b750	7c a4 db 88 f1 07 3a 3e f6 72 c1 2d 34 f9 40 3e 	|00000:>0r0-40@>
  0x5b760	25 3e 62 de 3f ef 03 3e 00 00 00 00 00 00 00 00 	%>b0?00>00000000
  0x5b770	00 00 00 00 00 00 00 40 20 e0 1f e0 1f e0 ff 3f 	0000000@ 000000?
  0x5b780	f0 07 fc 01 7f c0 ff 3f 12 fa 01 aa 1c a1 ff 3f 	0000000?0000000?
  0x5b790	20 f8 81 1f f8 81 ff 3f b5 db a0 ac 10 63 ff 3f 	 000000?00000c0?
  0x5b7a0	71 42 4a 9e 65 44 ff 3f b5 0a 23 44 f6 25 ff 3f 	qBJ0eD0?00#D0%0?
  0x5b7b0	08 1f 7c f0 c1 07 ff 3f 02 8e 45 f8 c7 e9 fe 3f 	00|0000?00E0000?
  0x5b7c0	c0 ec 01 b3 07 cc fe 3f eb 01 ba 7a 80 ae fe 3f 	0000000?000z000?
  0x5b7d0	67 b7 f0 ab 31 91 fe 3f e4 50 97 a5 1a 74 fe 3f 	g000100?0P000t0?
  0x5b7e0	74 e5 01 c9 3a 57 fe 3f 73 1a dc 79 91 3a fe 3f 	t000:W0?s00y0:0?
  0x5b7f0	1e 1e 1e 1e 1e 1e fe 3f 1e e0 01 1e e0 01 fe 3f 	0000000?0000000?
  0x5b800	8a 86 f8 e3 d6 e5 fd 3f ca 1d a0 dc 01 ca fd 3f 	0000000?0000000?
  0x5b810	db 81 b9 76 60 ae fd 3f 8a 7f 1e 23 f2 92 fd 3f 	000v`00?000#000?
  0x5b820	34 2c b8 54 b6 77 fd 3f b2 72 75 80 ac 5c fd 3f 	4,0T0w0?0ru0000?
  0x5b830	1d d4 41 1d d4 41 fd 3f 1a 5b fc a3 2c 27 fd 3f 	00A00A0?0[00,'0?
  0x5b840	74 c0 6e 8f b5 0c fd 3f c6 bf 44 5c 6e f2 fc 3f 	t0n0000?00D0n00?
  0x5b850	0b 9b 03 89 56 d8 fc 3f e7 cb 01 96 6d be fc 3f 	0000V00?0000m00?
  0x5b860	91 e1 5e 05 b3 a4 fc 3f 42 8a fb 5a 26 8b fc 3f 	00^0000?B00Z&00?
  0x5b870	1c c7 71 1c c7 71 fc 3f 86 49 0d d1 94 58 fc 3f 	00q00q0?0I000X0?
  0x5b880	f0 f8 c3 01 8f 3f fc 3f 1c a0 2e 39 b5 26 fc 3f 	00000?0?00.90&0?
  0x5b890	e0 c0 81 03 07 0e fc 3f 8b 8d 86 ee 83 f5 fb 3f 	0000000?0000000?
  0x5b8a0	f7 06 94 89 2b dd fb 3f 7b 3e 88 65 fd c4 fb 3f 	0000+00?{>0e000?
  0x5b8b0	d0 ba c1 14 f9 ac fb 3f 23 ff 18 2b 1e 95 fb 3f 	0000000?#00+000?
  0x5b8c0	8b 33 da 3d 6c 7d fb 3f 05 ee be e3 e2 65 fb 3f 	030=l}0?00000e0?
  0x5b8d0	4f 1b e8 b4 81 4e fb 3f ce 06 d8 4a 48 37 fb 3f 	O0000N0?000JH70?
  0x5b8e0	d9 80 6c 40 36 20 fb 3f a4 22 d9 31 4b 09 fb 3f 	00l@6 0?0"01K00?
  0x5b8f0	28 af a1 bc 86 f2 fa 3f 5e 90 94 7f e8 db fa 3f 	(000000?^000000?
  0x5b900	1b 70 c5 1a 70 c5 fa 3f fd eb 87 2f 1d af fa 3f 	0p00p00?000/000?
  0x5b910	be 63 6a 60 ef 98 fa 3f 59 e1 30 51 e6 82 fa 3f 	0cj`000?Y00Q000?
  0x5b920	6d 1a d0 a6 01 6d fa 3f 4a 8a 68 07 41 57 fa 3f 	m0000m0?J0h0AW0?
  0x5b930	1a a4 41 1a a4 41 fa 3f a0 1c c5 87 2a 2c fa 3f 	00A00A0?0000*,0?
  0x5b940	02 4b 7a f9 d3 16 fa 3f 1a a0 01 1a a0 01 fa 3f 	0Kz0000?0000000?
  0x5b950	d9 33 10 95 8e ec f9 3f 2d 68 6b 17 9f d7 f9 3f 	0300000?-hk0000?
  0x5b960	02 a1 e4 4e d1 c2 f9 3f da 10 55 ea 24 ae f9 3f 	000N000?00U0$00?
  0x5b970	9a 99 99 99 99 99 f9 3f ff c0 8e 0d 2f 85 f9 3f 	0000000?0000/00?
  0x5b980	72 b8 0c f8 e4 70 f9 3f ae 77 e3 0b bb 5c f9 3f 	r0000p0?0w00000?
  0x5b990	e0 e9 d6 fc b0 48 f9 3f e6 2c 9b 7f c6 34 f9 3f 	00000H0?0,00040?
  0x5b9a0	29 e2 d0 49 fb 20 f9 3f d5 90 01 12 4f 0d f9 3f 	)00I0 0?0000O00?
  0x5b9b0	fa 18 9c 8f c1 f9 f8 3f 3f 37 f1 7a 52 e6 f8 3f 	0000000??70zR00?
  0x5b9c0	d3 18 30 8d 01 d3 f8 3f 3a ff 62 80 ce bf f8 3f 	0000000?:0b0000?
  0x5b9d0	aa f3 6b 0f b9 ac f8 3f 9c 89 01 f6 c0 99 f8 3f 	00k0000?0000000?
  0x5b9e0	4a b0 ab f0 e5 86 f8 3f b9 92 c0 bc 27 74 f8 3f 	J000000?0000't0?
  0x5b9f0	18 86 61 18 86 61 f8 3f 14 06 78 c2 00 4f f8 3f 	00a00a0?00x00O0?
  0x5ba00	dd be b2 7a 97 3c f8 3f a0 a4 82 01 4a 2a f8 3f 	000z0<0?0000J*0?
  0x5ba10	18 18 18 18 18 18 f8 3f 06 18 60 80 01 06 f8 3f 	0000000?00`0000?
  0x5ba20	40 7f 01 fd 05 f4 f7 3f 1d 4f 5a 51 25 e2 f7 3f 	@000000?0OZQ%00?
  0x5ba30	f4 05 7d 41 5f d0 f7 3f 7c 01 2e 92 b3 be f7 3f 	00}A_00?|0.0000?
  0x5ba40	c3 ec e0 08 22 ad f7 3f 8b 39 b6 6b aa 9b f7 3f 	0000"00?090k000?
  0x5ba50	c8 a4 78 81 4c 8a f7 3f 0d c6 9a 11 08 79 f7 3f 	00x0L00?00000y0?
  0x5ba60	b1 a9 34 e4 dc 67 f7 3f 6d 75 01 c2 ca 56 f7 3f 	00400g0?mu000V0?
  0x5ba70	46 17 5d 74 d1 45 f7 3f 8d fe 41 c5 f0 34 f7 3f 	F0]t0E0?00A0040?
  0x5ba80	bc de 46 7f 28 24 f7 3f 09 7c 9c 6d 78 13 f7 3f 	00F0($0?0|0mx00?
  0x5ba90	70 81 0b 5c e0 02 f7 3f 17 60 f2 16 60 f2 f6 3f 	p000000?0`00`00?
  0x5baa0	c7 37 43 6b f7 e1 f6 3f 61 c8 81 26 a6 d1 f6 3f 	07Ck000?a00&000?
  0x5bab0	17 6c c1 16 6c c1 f6 3f 3d 1a a3 0a 49 b1 f6 3f 	0l00l00?=000I00?
  0x5bac0	90 72 53 d1 3c a1 f6 3f c0 d0 88 3a 47 91 f6 3f 	0rS0<00?000:G00?
  0x5bad0	17 68 81 16 68 81 f6 3f 1a 67 01 36 9f 71 f6 3f 	0h00h00?0g060q0?
  0x5bae0	f9 22 51 6a ec 61 f6 3f a3 4a 3b 85 4f 52 f6 3f 	0"Qj0a0?0J;0OR0?
  0x5baf0	64 21 0b 59 c8 42 f6 3f de c0 8a b8 56 33 f6 3f 	d!0Y0B0?0000V30?
  0x5bb00	40 62 01 77 fa 23 f6 3f 94 ae 31 68 b3 14 f6 3f 	@b0w0#0?001h000?
  0x5bb10	06 16 58 60 81 05 f6 3f fc 2d 29 34 64 f6 f5 3f 	00X`000?0-)4d00?
  0x5bb20	e7 15 d0 b8 5b e7 f5 3f a5 e2 ec c3 67 d8 f5 3f 	0000[00?0000g00?
  0x5bb30	57 10 93 2b 88 c9 f5 3f 91 fa 47 c6 bc ba f5 3f 	W00+000?00G0000?
  0x5bb40	c0 5a 01 6b 05 ac f5 3f aa cc 23 f1 61 9d f5 3f 	0Z0k000?00#0a00?
  0x5bb50	ed 58 81 30 d2 8e f5 3f 60 05 58 01 56 80 f5 3f 	0X00000?`0X0V00?
  0x5bb60	3a 6b 50 3c ed 71 f5 3f e2 52 7c ba 97 63 f5 3f 	:kP<0q0?0R|00c0?
  0x5bb70	55 55 55 55 55 55 f5 3f fe 82 bb e6 25 47 f5 3f 	UUUUUU0?0000%G0?
  0x5bb80	eb 0f f4 48 09 39 f5 3f 4b 05 a8 56 ff 2a f5 3f 	000H090?K00V0*0?
  0x5bb90	15 f8 e2 ea 07 1d f5 3f c5 c4 11 e1 22 0f f5 3f 	0000000?0000"00?
  0x5bba0	15 50 01 15 50 01 f5 3f 9b 4c dd 62 8f f3 f4 3f 	0P00P00?0L0b000?
  0x5bbb0	39 05 2f a7 e0 e5 f4 3f 4c 2c dc be 43 d8 f4 3f 	90/0000?L,00C00?
  0x5bbc0	6e af 25 87 b8 ca f4 3f e1 8f a6 dd 3e bd f4 3f 	n0%0000?0000>00?
  0x5bbd0	5b bf 52 a0 d6 af f4 3f 4a 01 76 ad 7f a2 f4 3f 	[0R0000?J0v0000?
  0x5bbe0	67 d0 b2 e3 39 95 f4 3f 80 48 01 22 05 88 f4 3f 	g000900?0H0"000?
  0x5bbf0	7b 14 ae 47 e1 7a f4 3f 66 60 59 34 ce 6d f4 3f 	{00G0z0?f`Y40m0?
  0x5bc00	9a cf f5 c7 cb 60 f4 3f ca 76 c7 e2 d9 53 f4 3f 	00000`0?0v000S0?
  0x5bc10	fb d9 62 65 f8 46 f4 3f 4d ee ab 30 27 3a f4 3f 	00be0F0?M000':0?
  0x5bc20	87 1f d5 25 66 2d f4 3f 51 59 5e 26 b5 20 f4 3f 	000%f-0?QY^&0 0?
  0x5bc30	14 14 14 14 14 14 f4 3f 66 65 0e d1 82 07 f4 3f 	0000000?fe00000?
  0x5bc40	fb 13 b0 3f 01 fb f3 3f 07 af a5 42 8f ee f3 3f 	000?000?000B000?
  0x5bc50	02 a9 e4 bc 2c e2 f3 3f c6 75 aa 91 d9 d5 f3 3f 	0000,00?0u00000?
  0x5bc60	e7 ab 7b a4 95 c9 f3 3f 55 29 23 d9 60 bd f3 3f 	00{0000?U)#0`00?
  0x5bc70	14 3b b1 13 3b b1 f3 3f 22 c8 7a 38 24 a5 f3 3f 	0;00;00?"0z8$00?
  0x5bc80	63 7f 18 2c 1c 99 f3 3f 8e 08 66 d3 22 8d f3 3f 	c00,000?00f0"00?
  0x5bc90	14 38 81 13 38 81 f3 3f ee 45 c9 d1 5b 75 f3 3f 	0800800?0E00[u0?
  0x5bca0	48 07 de f3 8d 69 f3 3f f8 2a 9f 5f ce 5d f3 3f 	H0000i0?0*0_0]0?
  0x5bcb0	c1 78 2b fb 1c 52 f3 3f 46 13 e0 ac 79 46 f3 3f 	0x+00R0?F000yF0?
  0x5bcc0	b2 bc 57 5b e4 3a f3 3f fa 1d 6a ed 5c 2f f3 3f 	00W[0:0?00j00/0?
  0x5bcd0	bf 10 2b 4a e3 23 f3 3f b6 eb e9 58 77 18 f3 3f 	00+J0#0?000Xw00?
  0x5bce0	90 d1 30 01 19 0d f3 3f 60 02 c4 2a c8 01 f3 3f 	0000000?`00*000?
  0x5bcf0	68 2f a1 bd 84 f6 f2 3f 4b d1 fe a1 4e eb f2 3f 	h/00000?K000N00?
  0x5bd00	97 80 4b c0 25 e0 f2 3f a0 50 2d 01 0a d5 f2 3f 	00K0%00?0P-0000?
  0x5bd10	a0 2c 81 4d fb c9 f2 3f 11 37 5a 8e f9 be f2 3f 	0,0M000?07Z0000?
  0x5bd20	40 2b 01 ad 04 b4 f2 3f 05 c1 f3 92 1c a9 f2 3f 	@+00000?0000000?
  0x5bd30	9e 12 e4 29 41 9e f2 3f a5 04 b8 5b 72 93 f2 3f 	000)A00?000[r00?
  0x5bd40	13 b0 88 12 b0 88 f2 3f 4d ce a1 38 fa 7d f2 3f 	0000000?M0080}0?
  0x5bd50	35 27 81 b8 50 73 f2 3f 27 01 d6 7c b3 68 f2 3f 	5'00Ps0?'00|0h0?
  0x5bd60	f1 92 80 70 22 5e f2 3f b2 77 91 7e 9d 53 f2 3f 	000p"^0?0w0~0S0?
  0x5bd70	92 24 49 92 24 49 f2 3f 5b 60 17 97 b7 3e f2 3f 	0$I0$I0?[`000>0?
  0x5bd80	df bc 9a 78 56 34 f2 3f 2a 12 a0 22 01 2a f2 3f 	000xV40?*00"0*0?
  0x5bd90	78 fb 21 81 b7 1f f2 3f e6 55 48 80 79 15 f2 3f 	x0!0000?0UH0y00?
  0x5bda0	d9 c0 67 0c 47 0b f2 3f 12 20 01 12 20 01 f2 3f 	00g0G00?0 00 00?
  0x5bdb0	70 1f c1 7d 04 f7 f1 3f 4c b8 7f 3c f4 ec f1 3f 	p00}000?L00<000?
  0x5bdc0	74 b8 3f 3b ef e2 f1 3f bd 4a 2e 67 f5 d8 f1 3f 	t0?;000?0J.g000?
  0x5bdd0	1d 81 a2 ad 06 cf f1 3f 59 e0 1c fc 22 c5 f1 3f 	0000000?Y000"00?
  0x5bde0	29 ed 46 40 4a bb f1 3f e3 ba f2 67 7c b1 f1 3f 	)0F@J00?000g|00?
  0x5bdf0	96 7b 1a 61 b9 a7 f1 3f 9e 11 e0 19 01 9e f1 3f 	0{0a000?0000000?
  0x5be00	9c a2 8c 80 53 94 f1 3f db 2b 90 83 b0 8a f1 3f 	0000S00?0+00000?
  0x5be10	12 18 81 11 18 81 f1 3f 84 d6 1b 19 8a 77 f1 3f 	0000000?00000w0?
  0x5be20	79 73 42 89 06 6e f1 3f 01 32 fc 50 8d 64 f1 3f 	ysB00n0?020P0d0?
  0x5be30	0d 27 75 5f 1e 5b f1 3f c9 d5 fd a3 b9 51 f1 3f 	0'u_0[0?00000Q0?
  0x5be40	3b cd 0a 0e 5f 48 f1 3f 24 47 34 8d 0e 3f f1 3f 	;000_H0?$G400?0?
  0x5be50	11 c8 35 11 c8 35 f1 3f ac c0 ed 89 8b 2c f1 3f 	0050050?00000,0?
  0x5be60	33 30 5d e7 58 23 f1 3f 26 48 a7 19 30 1a f1 3f 	30]0X#0?&H00000?
  0x5be70	11 11 11 11 11 11 f1 3f 80 10 01 be fb 07 f1 3f 	0000000?0000000?
  0x5be80	11 f0 fe 10 f0 fe f0 3f a2 25 b3 fa ed f5 f0 3f 	0000000?0%00000?
  0x5be90	90 9c e6 6b f5 ec f0 3f 11 60 82 55 06 e4 f0 3f 	000k000?0`0U000?
  0x5bea0	96 46 8f a8 20 db f0 3f 3a 9e 35 56 44 d2 f0 3f 	0F00 00?:05VD00?
  0x5beb0	3b da bc 4f 71 c9 f0 3f 71 41 8b 86 a7 c0 f0 3f 	;00Oq00?qA00000?
  0x5bec0	c8 9d 25 ec e6 b7 f0 3f b5 ec 2e 72 2f af f0 3f 	00%0000?00.r/00?
  0x5bed0	a7 10 68 0a 81 a6 f0 3f 60 83 af a6 db 9d f0 3f 	00h0000?`000000?
  0x5bee0	54 09 01 39 3f 95 f0 3f e2 65 75 b3 ab 8c f0 3f 	T009?00?0eu0000?
  0x5bef0	84 10 42 08 21 84 f0 3f e2 ea b8 29 9f 7b f0 3f 	00B0!00?000)0{0?
  0x5bf00	c6 f7 47 0a 26 73 f0 3f fb 12 79 9c b5 6a f0 3f 	00G0&s0?00y00j0?
  0x5bf10	fc a9 f1 d2 4d 62 f0 3f 86 75 72 a0 ee 59 f0 3f 	0000Mb0?0ur00Y0?
  0x5bf20	04 34 d7 f7 97 51 f0 3f c5 64 16 cc 49 49 f0 3f 	04000Q0?0d00II0?
  0x5bf30	10 04 41 10 04 41 f0 3f fc 47 82 b7 c6 38 f0 3f 	00A00A0?0G00080?
  0x5bf40	1a 5e 1f b5 91 30 f0 3f e9 29 77 fc 64 28 f0 3f 	0^00000?0)w0d(0?
  0x5bf50	08 04 02 81 40 20 f0 3f 37 7a 51 36 24 18 f0 3f 	0000@ 0?7zQ6$00?
  0x5bf60	10 10 10 10 10 10 f0 3f 80 00 01 02 04 08 f0 3f 	0000000?0000000?
  0x5bf70	00 00 00 00 00 00 f0 3f 00 00 00 00 00 00 00 00 	0000000?00000000
  0x5bf80	6c 6f 67 31 30 00 00 00 22 05 93 19 01 00 00 00 	log10000"0000000
  0x5bf90	c4 a0 06 00 00 00 00 00 00 00 00 00 00 00 00 00 	0000000000000000
  0x5bfa0	00 00 00 00 20 00 00 00 00 00 00 00 01 00 00 00 	0000 00000000000
  0x5bfb0	ff ff ff ff ff ff 3f 43 ff ff ff ff ff ff 3f c3 	000000?C000000?0
  0x5bfc0	43 00 4f 00 4e 00 4f 00 55 00 54 00 24 00 00 00 	C0O0N0O0U0T0$000
  0x5bfd0	ff fe ff fd ff fe ff fc ff fe ff fd ff fe ff fb 	0000000000000000
  0x5bfe0	19 12 19 0b 19 12 19 04 19 12 19 0b 19 12 19 00 	0000000000000000
  0x5bff0	29 00 00 80 01 00 00 00 00 00 00 00 00 00 00 00 	)000000000000000
  0x5c000	00 00 00 00 00 00 00 00 0f 00 00 00 00 00 00 00 	0000000000000000
  0x5c010	20 05 93 19 00 00 00 00 00 00 00 00 00 00 00 00 	 000000000000000
  0x5c020	00 00 00 00 00 00 00 00 00 00 00 00 00 00 00 00 	0000000000000000
  0x5c030	00 00 00 00 00 00 00 00 00 00 00 00 00 00 00 00 	0000000000000000
  0x5c040	00 00 00 00 00 00 00 00 00 00 00 00 00 00 00 00 	0000000000000000
  0x5c050	00 00 00 00 00 00 00 00 00 00 00 00 00 00 00 00 	0000000000000000
  0x5c060	00 00 00 00 00 00 00 00 00 00 00 00 00 00 00 00 	0000000000000000
  0x5c070	00 00 00 00 00 00 00 00 00 00 00 00 00 00 00 00 	0000000000000000
  0x5c080	00 00 00 00 00 00 00 00 00 00 00 00 00 00 00 00 	0000000000000000
  0x5c090	29 00 00 80 01 00 00 00 00 00 00 00 00 00 00 00 	)000000000000000
  0x5c0a0	00 00 00 00 00 00 00 00 0f 00 00 00 00 00 00 00 	0000000000000000
  0x5c0b0	20 05 93 19 00 00 00 00 00 00 00 00 00 00 00 00 	 000000000000000
  0x5c0c0	00 00 00 00 00 00 00 00 00 00 00 00 00 00 00 00 	0000000000000000
  0x5c0d0	00 00 00 00 00 00 00 00 00 00 00 00 00 00 00 00 	0000000000000000
  0x5c0e0	00 00 00 00 00 00 00 00 00 00 00 00 00 00 00 00 	0000000000000000
  0x5c0f0	00 00 00 00 00 00 00 00 00 00 00 00 00 00 00 00 	0000000000000000
  0x5c100	00 00 00 00 00 00 00 00 00 00 00 00 00 00 00 00 	0000000000000000
  0x5c110	00 00 00 00 00 00 00 00 00 00 00 00 00 00 00 00 	0000000000000000
  0x5c120	00 00 00 00 00 00 00 00 62 61 64 20 65 78 63 65 	00000000bad exce
  0x5c130	70 74 69 6f 6e 00 00 00 9c 5a 1c dc 8a e8 de 4d 	ption0000Z00000M
  0x5c140	a5 a1 60 f8 2a 20 ae f7 87 a6 12 dc 7f 73 cf 11 	00`0* 0000000s00
  0x5c150	88 4d 00 aa 00 4b 2e 24 11 f8 90 45 3a 1d d0 11 	0M000K.$000E:000
  0x5c160	89 1f 00 aa 00 4b 2e 24 54 be df 47 76 cf d3 11 	00000K.$T00Gv000
  0x5c170	b3 8f 00 10 5a 1f 47 3a 63 00 63 00 73 00 00 00 	0000Z0G:c0c0s000
  0x5c180	55 00 54 00 46 00 2d 00 38 00 00 00 00 00 00 00 	U0T0F0-080000000
  0x5c190	55 00 54 00 46 00 2d 00 31 00 36 00 4c 00 45 00 	U0T0F0-01060L0E0
  0x5c1a0	55 00 4e 00 49 00 43 00 4f 00 44 00 45 00 00 00 	U0N0I0C0O0D0E000
  0x5c1b0	22 05 93 19 02 00 00 00 80 b0 06 00 01 00 00 00 	"000000000000000
  0x5c1c0	90 b0 06 00 01 00 00 00 b8 b0 06 00 20 00 00 00 	000000000000 000
  0x5c1d0	00 00 00 00 05 00 00 00 00 00 00 00 00 00 00 00 	0000000000000000
  0x5c1e0	61 00 70 00 69 00 2d 00 6d 00 73 00 2d 00 77 00 	a0p0i0-0m0s0-0w0
  0x5c1f0	69 00 6e 00 2d 00 63 00 6f 00 72 00 65 00 2d 00 	i0n0-0c0o0r0e0-0
  0x5c200	73 00 79 00 6e 00 63 00 68 00 2d 00 6c 00 31 00 	s0y0n0c0h0-0l010
  0x5c210	2d 00 32 00 2d 00 30 00 2e 00 64 00 6c 00 6c 00 	-020-000.0d0l0l0
  0x5c220	00 00 00 00 00 00 00 00 53 6c 65 65 70 43 6f 6e 	00000000SleepCon
  0x5c230	64 69 74 69 6f 6e 56 61 72 69 61 62 6c 65 43 53 	ditionVariableCS
  0x5c240	00 00 00 00 00 00 00 00 57 61 6b 65 41 6c 6c 43 	00000000WakeAllC
  0x5c250	6f 6e 64 69 74 69 6f 6e 56 61 72 69 61 62 6c 65 	onditionVariable
  0x5c260	00 00 00 00 00 00 00 00 01 0c b0 dc 0f 57 9b 4a 	0000000000000W0J
  0x5c270	8d 69 19 9f db a5 72 3b e8 cd 9d 30 b1 cc 62 40 	0i0000r;000000b@
  0x5c280	8f 78 60 01 15 a3 43 27 28 00 f8 12 b7 b4 2d 4b 	0x`000C'(00000-K
  0x5c290	ac a8 46 e0 ff 65 81 4c 34 ff d1 e2 58 34 a9 49 	00F00e0L4000X40I
  0x5c2a0	88 da 8e 69 15 ce 9b e5 15 67 6a 8e bc 9a 43 40 	000i00000gj000C@
  0x5c2b0	88 ef 9e 39 c6 f6 3e 0f 00 00 00 00 00 00 00 00 	000900>000000000
  0x5c2c0	53 00 6f 00 66 00 74 00 77 00 61 00 72 00 65 00 	S0o0f0t0w0a0r0e0
  0x5c2d0	5c 00 50 00 6f 00 6c 00 69 00 63 00 69 00 65 00 	00P0o0l0i0c0i0e0
  0x5c2e0	73 00 5c 00 4d 00 69 00 63 00 72 00 6f 00 73 00 	s000M0i0c0r0o0s0
  0x5c2f0	6f 00 66 00 74 00 5c 00 4d 00 52 00 54 00 00 00 	o0f0t000M0R0T000
  0x5c300	44 00 65 00 62 00 75 00 67 00 5c 00 6d 00 72 00 	D0e0b0u0g000m0r0
  0x5c310	74 00 2e 00 6c 00 6f 00 67 00 00 00 00 00 00 00 	t0.0l0o0g0000000
  0x5c320	4d 00 69 00 63 00 72 00 6f 00 73 00 6f 00 66 00 	M0i0c0r0o0s0o0f0
  0x5c330	74 00 20 00 57 00 69 00 6e 00 64 00 6f 00 77 00 	t0 0W0i0n0d0o0w0
  0x5c340	73 00 20 00 4d 00 61 00 6c 00 69 00 63 00 69 00 	s0 0M0a0l0i0c0i0
  0x5c350	6f 00 75 00 73 00 20 00 53 00 6f 00 66 00 74 00 	o0u0s0 0S0o0f0t0
  0x5c360	77 00 61 00 72 00 65 00 20 00 52 00 65 00 6d 00 	w0a0r0e0 0R0e0m0
  0x5c370	6f 00 76 00 61 00 6c 00 20 00 54 00 6f 00 6f 00 	o0v0a0l0 0T0o0o0
  0x5c380	6c 00 00 00 00 00 00 00 00 00 00 00 00 00 00 00 	l000000000000000
  0x5c390	53 00 6f 00 66 00 74 00 77 00 61 00 72 00 65 00 	S0o0f0t0w0a0r0e0
  0x5c3a0	5c 00 4d 00 69 00 63 00 72 00 6f 00 73 00 6f 00 	00M0i0c0r0o0s0o0
  0x5c3b0	66 00 74 00 5c 00 52 00 65 00 6d 00 6f 00 76 00 	f0t000R0e0m0o0v0
  0x5c3c0	61 00 6c 00 54 00 6f 00 6f 00 6c 00 73 00 5c 00 	a0l0T0o0o0l0s000
  0x5c3d0	4d 00 52 00 54 00 00 00 00 00 00 00 00 00 00 00 	M0R0T00000000000
  0x5c3e0	43 00 45 00 37 00 42 00 46 00 30 00 46 00 33 00 	C0E070B0F000F030
  0x5c3f0	2d 00 45 00 36 00 36 00 34 00 2d 00 34 00 32 00 	-0E0606040-04020
  0x5c400	32 00 46 00 2d 00 41 00 41 00 34 00 37 00 2d 00 	20F0-0A0A04070-0
  0x5c410	44 00 35 00 35 00 38 00 38 00 38 00 37 00 31 00 	D050508080807010
  0x5c420	46 00 34 00 35 00 41 00 00 00 00 00 00 00 00 00 	F04050A000000000
  0x5c430	4d 00 52 00 54 00 00 00 0d 37 93 1f ef 29 94 4f 	M0R0T00007000)0O
  0x5c440	9a 67 ea 12 a1 b8 03 13 4e 00 55 00 4c 00 4c 00 	0g000000N0U0L0L0
  0x5c450	00 00 00 00 00 00 00 00 25 00 77 00 73 00 5c 00 	00000000%0w0s000
  0x5c460	25 00 77 00 73 00 00 00 25 00 77 00 73 00 5c 00 	%0w0s000%0w0s000
  0x5c470	2a 00 00 00 00 00 00 00 52 75 6e 20 53 74 6f 70 	*0000000Run Stop
  0x5c480	70 65 64 00 3f 00 00 00 48 00 65 00 6c 00 70 00 	ped0?000H0e0l0p0
  0x5c490	00 00 00 00 51 00 00 00 51 00 75 00 69 00 65 00 	0000Q000Q0u0i0e0
  0x5c4a0	74 00 00 00 56 00 00 00 56 00 65 00 72 00 62 00 	t000V000V0e0r0b0
  0x5c4b0	6f 00 73 00 65 00 00 00 57 00 00 00 00 00 00 00 	o0s0e000W0000000
  0x5c4c0	57 00 69 00 6e 00 64 00 6f 00 77 00 73 00 55 00 	W0i0n0d0o0w0s0U0
  0x5c4d0	70 00 64 00 61 00 74 00 65 00 00 00 52 00 00 00 	p0d0a0t0e000R000
  0x5c4e0	52 00 65 00 62 00 6f 00 6f 00 74 00 4e 00 6f 00 	R0e0b0o0o0t0N0o0
  0x5c4f0	74 00 69 00 66 00 69 00 63 00 61 00 74 00 69 00 	t0i0f0i0c0a0t0i0
  0x5c500	6f 00 6e 00 00 00 00 00 41 00 43 00 00 00 00 00 	o0n00000A0C00000
  0x5c510	41 00 75 00 74 00 6f 00 43 00 6c 00 65 00 61 00 	A0u0t0o0C0l0e0a0
  0x5c520	6e 00 00 00 52 00 45 00 00 00 00 00 00 00 00 00 	n000R0E000000000
  0x5c530	52 00 65 00 6c 00 61 00 75 00 6e 00 63 00 68 00 	R0e0l0a0u0n0c0h0
  0x5c540	65 00 64 00 00 00 00 00 4e 00 00 00 00 00 00 00 	e0d00000N0000000
  0x5c550	4e 00 6f 00 52 00 65 00 6d 00 65 00 64 00 69 00 	N0o0R0e0m0e0d0i0
  0x5c560	61 00 74 00 69 00 6f 00 6e 00 00 00 4c 00 00 00 	a0t0i0o0n000L000
  0x5c570	4c 00 6f 00 6e 00 67 00 68 00 6f 00 72 00 6e 00 	L0o0n0g0h0o0r0n0
  0x5c580	55 00 70 00 67 00 72 00 61 00 64 00 65 00 00 00 	U0p0g0r0a0d0e000
  0x5c590	49 00 00 00 00 00 00 00 49 00 45 00 49 00 6e 00 	I0000000I0E0I0n0
  0x5c5a0	73 00 74 00 61 00 6c 00 6c 00 00 00 00 00 00 00 	s0t0a0l0l0000000
  0x5c5b0	46 00 3a 00 59 00 00 00 43 00 6c 00 65 00 61 00 	F0:0Y000C0l0e0a0
  0x5c5c0	6e 00 49 00 6e 00 66 00 65 00 63 00 74 00 6f 00 	n0I0n0f0e0c0t0o0
  0x5c5d0	72 00 73 00 00 00 00 00 46 00 00 00 00 00 00 00 	r0s00000F0000000
  0x5c5e0	46 00 75 00 6c 00 6c 00 53 00 63 00 61 00 6e 00 	F0u0l0l0S0c0a0n0
  0x5c5f0	00 00 00 00 48 00 00 00 48 00 69 00 67 00 68 00 	0000H000H0i0g0h0
  0x5c600	00 00 00 00 58 00 00 00 45 00 78 00 74 00 72 00 	0000X000E0x0t0r0
  0x5c610	61 00 63 00 74 00 00 00 44 00 56 00 00 00 00 00 	a0c0t000D0V00000
  0x5c620	44 00 69 00 73 00 70 00 6c 00 61 00 79 00 56 00 	D0i0s0p0l0a0y0V0
  0x5c630	65 00 72 00 73 00 69 00 6f 00 6e 00 00 00 00 00 	e0r0s0i0o0n00000
  0x5c640	45 00 48 00 42 00 00 00 45 00 48 00 42 00 44 00 	E0H0B000E0H0B0D0
  0x5c650	53 00 00 00 00 00 00 00 45 00 48 00 42 00 44 00 	S0000000E0H0B0D0
  0x5c660	65 00 6c 00 65 00 74 00 65 00 53 00 63 00 68 00 	e0l0e0t0e0S0c0h0
  0x5c670	65 00 64 00 75 00 6c 00 65 00 00 00 00 00 00 00 	e0d0u0l0e0000000
  0x5c680	45 00 48 00 42 00 44 00 53 00 43 00 6f 00 6e 00 	E0H0B0D0S0C0o0n0
  0x5c690	74 00 00 00 00 00 00 00 45 00 48 00 42 00 44 00 	t0000000E0H0B0D0
  0x5c6a0	65 00 6c 00 65 00 74 00 65 00 53 00 63 00 68 00 	e0l0e0t0e0S0c0h0
  0x5c6b0	65 00 64 00 75 00 6c 00 65 00 43 00 6f 00 6e 00 	e0d0u0l0e0C0o0n0
  0x5c6c0	74 00 00 00 00 00 00 00 44 00 65 00 76 00 69 00 	t0000000D0e0v0i0
  0x5c6d0	63 00 65 00 49 00 44 00 00 00 00 00 00 00 00 00 	c0e0I0D000000000
  0x5c6e0	4d 00 53 00 41 00 00 00 53 00 46 00 61 00 69 00 	M0S0A000S0F0a0i0
  0x5c6f0	6c 00 00 00 00 00 00 00 53 00 65 00 72 00 76 00 	l0000000S0e0r0v0
  0x5c700	69 00 63 00 65 00 46 00 61 00 69 00 6c 00 75 00 	i0c0e0F0a0i0l0u0
  0x5c710	72 00 65 00 00 00 00 00 53 00 45 00 72 00 72 00 	r0e00000S0E0r0r0
  0x5c720	00 00 00 00 00 00 00 00 53 00 65 00 72 00 76 00 	00000000S0e0r0v0
  0x5c730	69 00 63 00 65 00 45 00 72 00 72 00 6f 00 72 00 	i0c0e0E0r0r0o0r0
  0x5c740	00 00 00 00 00 00 00 00 48 00 46 00 61 00 69 00 	00000000H0F0a0i0
  0x5c750	6c 00 00 00 00 00 00 00 48 00 65 00 61 00 72 00 	l0000000H0e0a0r0
  0x5c760	74 00 62 00 65 00 61 00 74 00 46 00 61 00 69 00 	t0b0e0a0t0F0a0i0
  0x5c770	6c 00 75 00 72 00 65 00 00 00 00 00 00 00 00 00 	l0u0r0e000000000
  0x5c780	48 00 45 00 72 00 72 00 00 00 00 00 00 00 00 00 	H0E0r0r000000000
  0x5c790	48 00 65 00 61 00 72 00 74 00 62 00 65 00 61 00 	H0e0a0r0t0b0e0a0
  0x5c7a0	74 00 45 00 72 00 72 00 6f 00 72 00 00 00 00 00 	t0E0r0r0o0r00000
  0x5c7b0	53 00 53 00 74 00 61 00 72 00 74 00 00 00 00 00 	S0S0t0a0r0t00000
  0x5c7c0	53 00 74 00 61 00 72 00 74 00 53 00 65 00 72 00 	S0t0a0r0t0S0e0r0
  0x5c7d0	76 00 69 00 63 00 65 00 00 00 00 00 44 00 46 00 	v0i0c0e00000D0F0
  0x5c7e0	00 00 00 00 00 00 00 00 44 00 65 00 66 00 65 00 	00000000D0e0f0e0
  0x5c7f0	6e 00 64 00 65 00 72 00 00 00 00 00 00 00 00 00 	n0d0e0r000000000
  0x5c800	57 00 69 00 6e 00 38 00 55 00 4e 00 50 00 00 00 	W0i0n080U0N0P000
  0x5c810	57 00 69 00 6e 00 38 00 55 00 4e 00 50 00 53 00 	W0i0n080U0N0P0S0
  0x5c820	74 00 61 00 72 00 74 00 75 00 70 00 00 00 00 00 	t0a0r0t0u0p00000
  0x5c830	4e 00 54 00 43 00 00 00 4e 00 6f 00 54 00 72 00 	N0T0C000N0o0T0r0
  0x5c840	75 00 73 00 74 00 43 00 68 00 65 00 63 00 6b 00 	u0s0t0C0h0e0c0k0
  0x5c850	00 00 00 00 00 00 00 00 53 00 63 00 61 00 6e 00 	00000000S0c0a0n0
  0x5c860	20 00 52 00 75 00 6e 00 20 00 46 00 72 00 6f 00 	 0R0u0n0 0F0r0o0
  0x5c870	6d 00 20 00 57 00 69 00 6e 00 64 00 6f 00 77 00 	m0 0W0i0n0d0o0w0
  0x5c880	73 00 20 00 55 00 70 00 64 00 61 00 74 00 65 00 	s0 0U0p0d0a0t0e0
  0x5c890	00 00 00 00 00 00 00 00 57 00 55 00 4d 00 6f 00 	00000000W0U0M0o0
  0x5c8a0	64 00 65 00 00 00 00 00 50 00 6f 00 73 00 74 00 	d0e00000P0o0s0t0
  0x5c8b0	20 00 52 00 65 00 62 00 6f 00 6f 00 74 00 20 00 	 0R0e0b0o0o0t0 0
  0x5c8c0	41 00 63 00 74 00 69 00 6f 00 6e 00 73 00 00 00 	A0c0t0i0o0n0s000
  0x5c8d0	52 00 65 00 62 00 6f 00 6f 00 74 00 4d 00 6f 00 	R0e0b0o0o0t0M0o0
  0x5c8e0	64 00 65 00 00 00 00 00 50 00 72 00 65 00 70 00 	d0e00000P0r0e0p0
  0x5c8f0	61 00 72 00 69 00 6e 00 67 00 20 00 48 00 65 00 	a0r0i0n0g0 0H0e0
  0x5c900	61 00 72 00 74 00 62 00 65 00 61 00 74 00 20 00 	a0r0t0b0e0a0t0 0
  0x5c910	54 00 65 00 6c 00 65 00 6d 00 65 00 74 00 72 00 	T0e0l0e0m0e0t0r0
  0x5c920	79 00 00 00 00 00 00 00 48 00 65 00 61 00 72 00 	y0000000H0e0a0r0
  0x5c930	74 00 62 00 65 00 61 00 74 00 4d 00 6f 00 64 00 	t0b0e0a0t0M0o0d0
  0x5c940	65 00 00 00 00 00 00 00 53 00 63 00 61 00 6e 00 	e0000000S0c0a0n0
  0x5c950	20 00 52 00 75 00 6e 00 20 00 69 00 6e 00 20 00 	 0R0u0n0 0i0n0 0
  0x5c960	51 00 75 00 69 00 65 00 74 00 20 00 4d 00 6f 00 	Q0u0i0e0t0 0M0o0
  0x5c970	64 00 65 00 00 00 00 00 51 00 75 00 69 00 65 00 	d0e00000Q0u0i0e0
  0x5c980	74 00 4d 00 6f 00 64 00 65 00 00 00 00 00 00 00 	t0M0o0d0e0000000
  0x5c990	49 00 6e 00 74 00 65 00 72 00 61 00 63 00 74 00 	I0n0t0e0r0a0c0t0
  0x5c9a0	69 00 76 00 65 00 20 00 47 00 72 00 61 00 70 00 	i0v0e0 0G0r0a0p0
  0x5c9b0	68 00 69 00 63 00 61 00 6c 00 20 00 4d 00 6f 00 	h0i0c0a0l0 0M0o0
  0x5c9c0	64 00 65 00 00 00 00 00 47 00 75 00 69 00 4d 00 	d0e00000G0u0i0M0
  0x5c9d0	6f 00 64 00 65 00 00 00 25 00 64 00 2e 00 25 00 	o0d0e000%0d0.0%0
  0x5c9e0	64 00 2e 00 25 00 64 00 2e 00 25 00 64 00 00 00 	d0.0%0d0.0%0d000
  0x5c9f0	72 00 75 00 6e 00 70 00 61 00 74 00 68 00 00 00 	r0u0n0p0a0t0h000
  0x5ca00	25 00 73 00 5c 00 25 00 73 00 5c 00 25 00 73 00 	%0s000%0s000%0s0
  0x5ca10	00 00 00 00 00 00 00 00 4d 00 70 00 44 00 69 00 	00000000M0p0D0i0
  0x5ca20	73 00 61 00 62 00 6c 00 65 00 4c 00 6f 00 63 00 	s0a0b0l0e0L0o0c0
  0x5ca30	61 00 6c 00 43 00 6c 00 65 00 61 00 6e 00 53 00 	a0l0C0l0e0a0n0S0
  0x5ca40	74 00 6f 00 72 00 65 00 00 00 00 00 00 00 00 00 	t0o0r0e000000000
  0x5ca50	52 00 65 00 73 00 6f 00 75 00 72 00 63 00 65 00 	R0e0s0o0u0r0c0e0
  0x5ca60	4f 00 6e 00 6c 00 79 00 00 00 00 00 00 00 00 00 	O0n0l0y000000000
  0x5ca70	45 00 72 00 72 00 6f 00 72 00 20 00 73 00 65 00 	E0r0r0o0r0 0s0e0
  0x5ca80	74 00 74 00 69 00 6e 00 67 00 20 00 73 00 63 00 	t0t0i0n0g0 0s0c0
  0x5ca90	61 00 6e 00 20 00 49 00 44 00 3a 00 20 00 68 00 	a0n0 0I0D0:0 0h0
  0x5caa0	72 00 20 00 3d 00 20 00 30 00 78 00 25 00 30 00 	r0 0=0 000x0%000
  0x5cab0	38 00 58 00 0d 00 0a 00 00 00 00 00 00 00 00 00 	80X0000000000000
  0x5cac0	44 00 69 00 73 00 69 00 6e 00 66 00 65 00 63 00 	D0i0s0i0n0f0e0c0
  0x5cad0	74 00 69 00 6f 00 6e 00 20 00 66 00 61 00 69 00 	t0i0o0n0 0f0a0i0
  0x5cae0	6c 00 65 00 64 00 3a 00 20 00 68 00 72 00 20 00 	l0e0d0:0 0h0r0 0
  0x5caf0	3d 00 20 00 30 00 78 00 25 00 30 00 38 00 58 00 	=0 000x0%00080X0
  0x5cb00	0d 00 0a 00 00 00 00 00 4d 00 52 00 54 00 2e 00 	00000000M0R0T0.0
  0x5cb10	64 00 61 00 74 00 00 00 77 00 72 00 69 00 74 00 	d0a0t000w0r0i0t0
  0x5cb20	69 00 6e 00 67 00 00 00 72 00 65 00 61 00 64 00 	i0n0g000r0e0a0d0
  0x5cb30	69 00 6e 00 67 00 00 00 00 00 00 00 00 00 00 00 	i0n0g00000000000
  0x5cb40	45 00 72 00 72 00 6f 00 72 00 20 00 25 00 73 00 	E0r0r0o0r0 0%0s0
  0x5cb50	20 00 4d 00 52 00 54 00 20 00 70 00 65 00 72 00 	 0M0R0T0 0p0e0r0
  0x5cb60	73 00 69 00 73 00 74 00 65 00 64 00 20 00 64 00 	s0i0s0t0e0d0 0d0
  0x5cb70	61 00 74 00 61 00 20 00 66 00 69 00 6c 00 65 00 	a0t0a0 0f0i0l0e0
  0x5cb80	3a 00 20 00 68 00 72 00 20 00 3d 00 20 00 30 00 	:0 0h0r0 0=0 000
  0x5cb90	78 00 25 00 30 00 38 00 58 00 0d 00 0a 00 00 00 	x0%00080X0000000
  0x5cba0	74 00 68 00 72 00 65 00 61 00 64 00 00 00 00 00 	t0h0r0e0a0d00000
  0x5cbb0	72 00 65 00 73 00 6f 00 75 00 72 00 63 00 65 00 	r0e0s0o0u0r0c0e0
  0x5cbc0	3a 00 25 00 77 00 73 00 3a 00 2f 00 2f 00 25 00 	:0%0w0s0:0/0/0%0
  0x5cbd0	77 00 73 00 00 00 00 00 00 00 00 00 00 00 00 00 	w0s0000000000000
  0x5cbe0	45 00 72 00 72 00 6f 00 72 00 20 00 73 00 65 00 	E0r0r0o0r0 0s0e0
  0x5cbf0	74 00 74 00 69 00 6e 00 67 00 20 00 6c 00 6f 00 	t0t0i0n0g0 0l0o0
  0x5cc00	61 00 64 00 20 00 73 00 63 00 61 00 6e 00 20 00 	a0d0 0s0c0a0n0 0
  0x5cc10	70 00 65 00 72 00 73 00 69 00 73 00 74 00 61 00 	p0e0r0s0i0s0t0a0
  0x5cc20	6e 00 63 00 65 00 3a 00 20 00 68 00 72 00 20 00 	n0c0e0:0 0h0r0 0
  0x5cc30	3d 00 20 00 30 00 78 00 25 00 30 00 38 00 58 00 	=0 000x0%00080X0
  0x5cc40	0d 00 0a 00 00 00 00 00 00 00 00 00 00 00 00 00 	0000000000000000
  0x5cc50	45 00 72 00 72 00 6f 00 72 00 20 00 65 00 6e 00 	E0r0r0o0r0 0e0n0
  0x5cc60	75 00 6d 00 65 00 72 00 61 00 74 00 69 00 6e 00 	u0m0e0r0a0t0i0n0
  0x5cc70	67 00 20 00 74 00 68 00 72 00 65 00 61 00 74 00 	g0 0t0h0r0e0a0t0
  0x5cc80	20 00 64 00 61 00 74 00 61 00 3a 00 20 00 68 00 	 0d0a0t0a0:0 0h0
  0x5cc90	72 00 20 00 3d 00 20 00 30 00 78 00 25 00 30 00 	r0 0=0 000x0%000
  0x5cca0	38 00 58 00 0d 00 0a 00 00 00 00 00 00 00 00 00 	80X0000000000000
  0x5ccb0	45 00 72 00 72 00 6f 00 72 00 20 00 72 00 65 00 	E0r0r0o0r0 0r0e0
  0x5ccc0	6f 00 70 00 65 00 6e 00 69 00 6e 00 67 00 20 00 	o0p0e0n0i0n0g0 0
  0x5ccd0	73 00 63 00 61 00 6e 00 20 00 68 00 61 00 6e 00 	s0c0a0n0 0h0a0n0
  0x5cce0	64 00 6c 00 65 00 3a 00 20 00 68 00 72 00 20 00 	d0l0e0:0 0h0r0 0
  0x5ccf0	3d 00 20 00 30 00 78 00 25 00 30 00 38 00 58 00 	=0 000x0%00080X0
  0x5cd00	0d 00 0a 00 00 00 00 00 4e 00 6f 00 44 00 69 00 	00000000N0o0D0i0
  0x5cd10	72 00 65 00 63 00 74 00 65 00 64 00 53 00 63 00 	r0e0c0t0e0d0S0c0
  0x5cd20	61 00 6e 00 00 00 00 00 00 00 00 00 00 00 00 00 	a0n0000000000000
  0x5cd30	45 00 72 00 72 00 6f 00 72 00 20 00 73 00 65 00 	E0r0r0o0r0 0s0e0
  0x5cd40	74 00 74 00 69 00 6e 00 67 00 20 00 64 00 69 00 	t0t0i0n0g0 0d0i0
  0x5cd50	72 00 65 00 63 00 74 00 65 00 64 00 20 00 73 00 	r0e0c0t0e0d0 0s0
  0x5cd60	63 00 61 00 6e 00 20 00 6f 00 70 00 74 00 69 00 	c0a0n0 0o0p0t0i0
  0x5cd70	6f 00 6e 00 3a 00 20 00 68 00 72 00 20 00 3d 00 	o0n0:0 0h0r0 0=0
  0x5cd80	20 00 30 00 78 00 25 00 30 00 38 00 58 00 0d 00 	 000x0%00080X000
  0x5cd90	0a 00 00 00 00 00 00 00 00 00 00 00 00 00 00 00 	0000000000000000
  0x5cda0	45 00 72 00 72 00 6f 00 72 00 20 00 72 00 65 00 	E0r0r0o0r0 0r0e0
  0x5cdb0	73 00 63 00 61 00 6e 00 6e 00 69 00 6e 00 67 00 	s0c0a0n0n0i0n0g0
  0x5cdc0	20 00 72 00 65 00 73 00 6f 00 75 00 72 00 63 00 	 0r0e0s0o0u0r0c0
  0x5cdd0	65 00 73 00 3a 00 20 00 68 00 72 00 20 00 3d 00 	e0s0:0 0h0r0 0=0
  0x5cde0	20 00 30 00 78 00 25 00 30 00 38 00 58 00 0d 00 	 000x0%00080X000
  0x5cdf0	0a 00 00 00 00 00 00 00 00 00 00 00 00 00 00 00 	0000000000000000
  0x5ce00	45 00 72 00 72 00 6f 00 72 00 20 00 73 00 65 00 	E0r0r0o0r0 0s0e0
  0x5ce10	74 00 74 00 69 00 6e 00 67 00 20 00 73 00 63 00 	t0t0i0n0g0 0s0c0
  0x5ce20	61 00 6e 00 20 00 70 00 65 00 72 00 73 00 69 00 	a0n0 0p0e0r0s0i0
  0x5ce30	73 00 74 00 61 00 6e 00 63 00 65 00 3a 00 20 00 	s0t0a0n0c0e0:0 0
  0x5ce40	68 00 72 00 20 00 3d 00 20 00 30 00 78 00 25 00 	h0r0 0=0 000x0%0
  0x5ce50	30 00 38 00 58 00 0d 00 0a 00 00 00 00 00 00 00 	0080X00000000000
  0x5ce60	53 00 63 00 61 00 6e 00 6e 00 69 00 6e 00 67 00 	S0c0a0n0n0i0n0g0
  0x5ce70	20 00 66 00 61 00 69 00 6c 00 65 00 64 00 3a 00 	 0f0a0i0l0e0d0:0
  0x5ce80	20 00 68 00 72 00 20 00 3d 00 20 00 30 00 78 00 	 0h0r0 0=0 000x0
  0x5ce90	25 00 30 00 38 00 58 00 0d 00 0a 00 00 00 00 00 	%00080X000000000
  0x5cea0	2f 00 52 00 20 00 2f 00 41 00 43 00 00 00 00 00 	/0R0 0/0A0C00000
  0x5ceb0	2f 00 52 00 00 00 00 00 00 00 00 00 00 00 00 00 	/0R0000000000000
  0x5cec0	45 00 72 00 72 00 6f 00 72 00 20 00 73 00 65 00 	E0r0r0o0r0 0s0e0
  0x5ced0	74 00 74 00 69 00 6e 00 67 00 20 00 72 00 65 00 	t0t0i0n0g0 0r0e0
  0x5cee0	62 00 6f 00 6f 00 74 00 20 00 72 00 75 00 6e 00 	b0o0o0t0 0r0u0n0
  0x5cef0	20 00 6b 00 65 00 79 00 3a 00 20 00 68 00 72 00 	 0k0e0y0:0 0h0r0
  0x5cf00	20 00 3d 00 20 00 30 00 78 00 25 00 30 00 38 00 	 0=0 000x0%00080
  0x5cf10	58 00 0d 00 0a 00 00 00 00 00 00 00 00 00 00 00 	X000000000000000
  0x5cf20	45 00 72 00 72 00 6f 00 72 00 20 00 73 00 65 00 	E0r0r0o0r0 0s0e0
  0x5cf30	74 00 74 00 69 00 6e 00 67 00 20 00 70 00 65 00 	t0t0i0n0g0 0p0e0
  0x5cf40	72 00 73 00 69 00 73 00 74 00 61 00 6e 00 63 00 	r0s0i0s0t0a0n0c0
  0x5cf50	65 00 3a 00 20 00 68 00 72 00 20 00 3d 00 20 00 	e0:0 0h0r0 0=0 0
  0x5cf60	30 00 78 00 25 00 30 00 38 00 58 00 0d 00 0a 00 	00x0%00080X00000
  0x5cf70	00 00 00 00 2e 00 5c 00 00 00 00 00 00 00 00 00 	0000.00000000000
  0x5cf80	25 00 77 00 73 00 20 00 2f 00 52 00 45 00 00 00 	%0w0s0 0/0R0E000
  0x5cf90	25 00 75 00 2e 00 25 00 75 00 2e 00 25 00 75 00 	%0u0.0%0u0.0%0u0
  0x5cfa0	2e 00 25 00 75 00 00 00 30 00 2e 00 30 00 2e 00 	.0%0u00000.000.0
  0x5cfb0	30 00 2e 00 30 00 00 00 00 00 00 00 00 00 00 00 	00.0000000000000
  0x5cfc0	45 00 6e 00 67 00 69 00 6e 00 65 00 3a 00 20 00 	E0n0g0i0n0e0:0 0
  0x5cfd0	25 00 73 00 0d 00 0a 00 53 00 69 00 67 00 6e 00 	%0s00000S0i0g0n0
  0x5cfe0	61 00 74 00 75 00 72 00 65 00 73 00 3a 00 20 00 	a0t0u0r0e0s0:0 0
  0x5cff0	25 00 73 00 0d 00 0a 00 4d 00 70 00 47 00 65 00 	%0s00000M0p0G0e0
  0x5d000	61 00 72 00 3a 00 20 00 25 00 73 00 0d 00 0a 00 	a0r0:0 0%0s00000
  0x5d010	52 00 75 00 6e 00 20 00 4d 00 6f 00 64 00 65 00 	R0u0n0 0M0o0d0e0
  0x5d020	3a 00 20 00 25 00 73 00 0d 00 0a 00 00 00 00 00 	:0 0%0s000000000
  0x5d030	25 00 73 00 3a 00 20 00 25 00 73 00 0a 00 45 00 	%0s0:0 0%0s000E0
  0x5d040	6e 00 67 00 69 00 6e 00 65 00 3a 00 20 00 25 00 	n0g0i0n0e0:0 0%0
  0x5d050	73 00 0a 00 53 00 69 00 67 00 6e 00 61 00 74 00 	s000S0i0g0n0a0t0
  0x5d060	75 00 72 00 65 00 73 00 3a 00 20 00 25 00 73 00 	u0r0e0s0:0 0%0s0
  0x5d070	20 00 28 00 43 00 6f 00 75 00 6e 00 74 00 20 00 	 0(0C0o0u0n0t0 0
  0x5d080	3d 00 20 00 25 00 7a 00 75 00 29 00 0a 00 4d 00 	=0 0%0z0u0)000M0
  0x5d090	70 00 47 00 65 00 61 00 72 00 3a 00 20 00 25 00 	p0G0e0a0r0:0 0%0
  0x5d0a0	73 00 0a 00 47 00 55 00 49 00 44 00 3a 00 20 00 	s000G0U0I0D0:0 0
  0x5d0b0	25 00 73 00 00 00 00 00 56 00 65 00 72 00 73 00 	%0s00000V0e0r0s0
  0x5d0c0	69 00 6f 00 6e 00 20 00 69 00 6e 00 66 00 6f 00 	i0o0n0 0i0n0f0o0
  0x5d0d0	00 00 00 00 00 00 00 00 0d 00 0a 00 45 00 78 00 	000000000000E0x0
  0x5d0e0	63 00 65 00 70 00 74 00 69 00 6f 00 6e 00 20 00 	c0e0p0t0i0o0n0 0
  0x5d0f0	43 00 61 00 75 00 67 00 68 00 74 00 3a 00 20 00 	C0a0u0g0h0t0:0 0
  0x5d100	30 00 78 00 25 00 30 00 38 00 58 00 0d 00 0a 00 	00x0%00080X00000
  0x5d110	00 00 00 00 00 00 00 00 57 00 69 00 6e 00 64 00 	00000000W0i0n0d0
  0x5d120	6f 00 77 00 73 00 20 00 55 00 70 00 64 00 61 00 	o0w0s0 0U0p0d0a0
  0x5d130	74 00 65 00 00 00 00 00 2f 00 57 00 69 00 6e 00 	t0e00000/0W0i0n0
  0x5d140	38 00 55 00 4e 00 50 00 53 00 74 00 61 00 72 00 	80U0N0P0S0t0a0r0
  0x5d150	74 00 75 00 70 00 00 00 0d 00 0a 00 00 00 00 00 	t0u0p00000000000
  0x5d160	4a 00 61 00 6e 00 75 00 61 00 72 00 79 00 00 00 	J0a0n0u0a0r0y000
  0x5d170	46 00 65 00 62 00 72 00 75 00 61 00 72 00 79 00 	F0e0b0r0u0a0r0y0
  0x5d180	00 00 00 00 00 00 00 00 4d 00 61 00 72 00 63 00 	00000000M0a0r0c0
  0x5d190	68 00 00 00 00 00 00 00 41 00 70 00 72 00 69 00 	h0000000A0p0r0i0
  0x5d1a0	6c 00 00 00 00 00 00 00 4d 00 61 00 79 00 00 00 	l0000000M0a0y000
  0x5d1b0	4a 00 75 00 6e 00 65 00 00 00 00 00 00 00 00 00 	J0u0n0e000000000
  0x5d1c0	4a 00 75 00 6c 00 79 00 00 00 00 00 00 00 00 00 	J0u0l0y000000000
  0x5d1d0	41 00 75 00 67 00 75 00 73 00 74 00 00 00 00 00 	A0u0g0u0s0t00000
  0x5d1e0	53 00 65 00 70 00 74 00 65 00 6d 00 62 00 65 00 	S0e0p0t0e0m0b0e0
  0x5d1f0	72 00 00 00 00 00 00 00 4f 00 63 00 74 00 6f 00 	r0000000O0c0t0o0
  0x5d200	62 00 65 00 72 00 00 00 4e 00 6f 00 76 00 65 00 	b0e0r000N0o0v0e0
  0x5d210	6d 00 62 00 65 00 72 00 00 00 00 00 00 00 00 00 	m0b0e0r000000000
  0x5d220	44 00 65 00 63 00 65 00 6d 00 62 00 65 00 72 00 	D0e0c0e0m0b0e0r0
  0x5d230	00 00 00 00 00 00 00 00 00 00 00 00 00 00 00 00 	0000000000000000
  0x5d240	0d 00 0a 00 2d 00 2d 00 2d 00 2d 00 2d 00 2d 00 	0000-0-0-0-0-0-0
  0x5d250	2d 00 2d 00 2d 00 2d 00 2d 00 2d 00 2d 00 2d 00 	-0-0-0-0-0-0-0-0
  0x5d260	2d 00 2d 00 2d 00 2d 00 2d 00 2d 00 2d 00 2d 00 	-0-0-0-0-0-0-0-0
  0x5d270	2d 00 2d 00 2d 00 2d 00 2d 00 2d 00 2d 00 2d 00 	-0-0-0-0-0-0-0-0
  0x5d280	2d 00 2d 00 2d 00 2d 00 2d 00 2d 00 2d 00 2d 00 	-0-0-0-0-0-0-0-0
  0x5d290	2d 00 2d 00 2d 00 2d 00 2d 00 2d 00 2d 00 2d 00 	-0-0-0-0-0-0-0-0
  0x5d2a0	2d 00 2d 00 2d 00 2d 00 2d 00 2d 00 2d 00 2d 00 	-0-0-0-0-0-0-0-0
  0x5d2b0	2d 00 2d 00 2d 00 2d 00 2d 00 2d 00 2d 00 2d 00 	-0-0-0-0-0-0-0-0
  0x5d2c0	2d 00 2d 00 2d 00 2d 00 2d 00 2d 00 2d 00 2d 00 	-0-0-0-0-0-0-0-0
  0x5d2d0	2d 00 2d 00 2d 00 2d 00 2d 00 2d 00 2d 00 2d 00 	-0-0-0-0-0-0-0-0
  0x5d2e0	2d 00 2d 00 2d 00 2d 00 2d 00 2d 00 2d 00 2d 00 	-0-0-0-0-0-0-0-0
  0x5d2f0	2d 00 0d 00 0a 00 00 00 00 00 00 00 00 00 00 00 	-000000000000000
  0x5d300	28 00 62 00 75 00 69 00 6c 00 64 00 20 00 25 00 	(0b0u0i0l0d0 0%0
  0x5d310	64 00 2e 00 25 00 64 00 2e 00 25 00 64 00 2e 00 	d0.0%0d0.0%0d0.0
  0x5d320	25 00 64 00 29 00 20 00 76 00 25 00 64 00 2e 00 	%0d0)0 0v0%0d0.0
  0x5d330	25 00 64 00 2c 00 20 00 25 00 73 00 0d 00 0a 00 	%0d0,0 0%0s00000
  0x5d340	00 00 00 00 00 00 00 00 00 00 00 00 00 00 00 00 	0000000000000000
  0x5d350	25 00 73 00 20 00 76 00 25 00 64 00 2e 00 25 00 	%0s0 0v0%0d0.0%0
  0x5d360	64 00 2c 00 20 00 28 00 62 00 75 00 69 00 6c 00 	d0,0 0(0b0u0i0l0
  0x5d370	64 00 20 00 25 00 64 00 2e 00 25 00 64 00 2e 00 	d0 0%0d0.0%0d0.0
  0x5d380	25 00 64 00 2e 00 25 00 64 00 29 00 0d 00 0a 00 	%0d0.0%0d0)00000
  0x5d390	00 00 00 00 00 00 00 00 53 00 74 00 61 00 72 00 	00000000S0t0a0r0
  0x5d3a0	74 00 65 00 64 00 20 00 4f 00 6e 00 20 00 25 00 	t0e0d0 0O0n0 0%0
  0x5d3b0	73 00 0d 00 0a 00 00 00 25 00 73 00 20 00 46 00 	s0000000%0s0 0F0
  0x5d3c0	69 00 6e 00 69 00 73 00 68 00 65 00 64 00 20 00 	i0n0i0s0h0e0d0 0
  0x5d3d0	4f 00 6e 00 20 00 25 00 73 00 0d 00 0a 00 00 00 	O0n0 0%0s0000000
  0x5d3e0	0d 00 0a 00 52 00 65 00 74 00 75 00 72 00 6e 00 	0000R0e0t0u0r0n0
  0x5d3f0	20 00 63 00 6f 00 64 00 65 00 3a 00 20 00 25 00 	 0c0o0d0e0:0 0%0
  0x5d400	75 00 20 00 28 00 30 00 78 00 25 00 78 00 29 00 	u0 0(000x0%0x0)0
  0x5d410	0d 00 0a 00 00 00 00 00 4d 00 52 00 54 00 00 00 	00000000M0R0T000
  0x5d420	20 00 00 00 00 00 00 00 00 00 00 00 00 00 00 00 	 000000000000000
  0x5d430	0d 00 0a 00 46 00 75 00 6c 00 6c 00 20 00 53 00 	0000F0u0l0l0 0S0
  0x5d440	63 00 61 00 6e 00 20 00 52 00 65 00 73 00 75 00 	c0a0n0 0R0e0s0u0
  0x5d450	6c 00 74 00 73 00 3a 00 0d 00 0a 00 2d 00 2d 00 	l0t0s0:00000-0-0
  0x5d460	2d 00 2d 00 2d 00 2d 00 2d 00 2d 00 2d 00 2d 00 	-0-0-0-0-0-0-0-0
  0x5d470	2d 00 2d 00 2d 00 2d 00 2d 00 2d 00 2d 00 2d 00 	-0-0-0-0-0-0-0-0
  0x5d480	0d 00 0a 00 00 00 00 00 00 00 00 00 00 00 00 00 	0000000000000000
  0x5d490	0d 00 0a 00 51 00 75 00 69 00 63 00 6b 00 20 00 	0000Q0u0i0c0k0 0
  0x5d4a0	53 00 63 00 61 00 6e 00 20 00 52 00 65 00 73 00 	S0c0a0n0 0R0e0s0
  0x5d4b0	75 00 6c 00 74 00 73 00 3a 00 0d 00 0a 00 2d 00 	u0l0t0s0:00000-0
  0x5d4c0	2d 00 2d 00 2d 00 2d 00 2d 00 2d 00 2d 00 2d 00 	-0-0-0-0-0-0-0-0
  0x5d4d0	2d 00 2d 00 2d 00 2d 00 2d 00 2d 00 2d 00 2d 00 	-0-0-0-0-0-0-0-0
  0x5d4e0	2d 00 2d 00 0d 00 0a 00 00 00 00 00 00 00 00 00 	-0-0000000000000
  0x5d4f0	0d 00 0a 00 53 00 63 00 61 00 6e 00 20 00 52 00 	0000S0c0a0n0 0R0
  0x5d500	65 00 73 00 75 00 6c 00 74 00 73 00 3a 00 0d 00 	e0s0u0l0t0s0:000
  0x5d510	0a 00 2d 00 2d 00 2d 00 2d 00 2d 00 2d 00 2d 00 	00-0-0-0-0-0-0-0
  0x5d520	2d 00 2d 00 2d 00 2d 00 2d 00 2d 00 0d 00 0a 00 	-0-0-0-0-0-00000
  0x5d530	00 00 00 00 00 00 00 00 2c 00 20 00 28 00 64 00 	00000000,0 0(0d0
  0x5d540	65 00 74 00 65 00 63 00 74 00 65 00 64 00 20 00 	e0t0e0c0t0e0d0 0
  0x5d550	73 00 75 00 73 00 70 00 69 00 63 00 69 00 6f 00 	s0u0s0p0i0c0i0o0
  0x5d560	75 00 73 00 6c 00 79 00 29 00 2e 00 0d 00 0a 00 	u0s0l0y0)0.00000
  0x5d570	00 00 00 00 00 00 00 00 2c 00 20 00 6e 00 6f 00 	00000000,0 0n0o0
  0x5d580	74 00 20 00 72 00 65 00 6d 00 6f 00 76 00 65 00 	t0 0r0e0m0o0v0e0
  0x5d590	64 00 2e 00 0d 00 0a 00 00 00 00 00 00 00 00 00 	d0.0000000000000
  0x5d5a0	2c 00 20 00 66 00 6f 00 72 00 20 00 63 00 6c 00 	,0 0f0o0r0 0c0l0
  0x5d5b0	65 00 61 00 6e 00 69 00 6e 00 67 00 2c 00 20 00 	e0a0n0i0n0g0,0 0
  0x5d5c0	74 00 68 00 65 00 20 00 73 00 79 00 73 00 74 00 	t0h0e0 0s0y0s0t0
  0x5d5d0	65 00 6d 00 20 00 6e 00 65 00 65 00 64 00 73 00 	e0m0 0n0e0e0d0s0
  0x5d5e0	20 00 74 00 6f 00 20 00 62 00 65 00 20 00 72 00 	 0t0o0 0b0e0 0r0
  0x5d5f0	65 00 73 00 74 00 61 00 72 00 74 00 65 00 64 00 	e0s0t0a0r0t0e0d0
  0x5d600	2e 00 0d 00 0a 00 00 00 00 00 00 00 00 00 00 00 	.000000000000000
  0x5d610	2c 00 20 00 66 00 75 00 6c 00 6c 00 20 00 73 00 	,0 0f0u0l0l0 0s0
  0x5d620	79 00 73 00 74 00 65 00 6d 00 20 00 73 00 63 00 	y0s0t0e0m0 0s0c0
  0x5d630	61 00 6e 00 20 00 6e 00 65 00 65 00 64 00 65 00 	a0n0 0n0e0e0d0e0
  0x5d640	64 00 20 00 74 00 6f 00 20 00 63 00 6f 00 6d 00 	d0 0t0o0 0c0o0m0
  0x5d650	70 00 6c 00 65 00 74 00 65 00 20 00 72 00 65 00 	p0l0e0t0e0 0r0e0
  0x5d660	6d 00 6f 00 76 00 61 00 6c 00 2e 00 0d 00 0a 00 	m0o0v0a0l0.00000
  0x5d670	00 00 00 00 00 00 00 00 00 00 00 00 00 00 00 00 	0000000000000000
  0x5d680	2c 00 20 00 70 00 61 00 72 00 74 00 69 00 61 00 	,0 0p0a0r0t0i0a0
  0x5d690	6c 00 6c 00 79 00 20 00 72 00 65 00 6d 00 6f 00 	l0l0y0 0r0e0m0o0
  0x5d6a0	76 00 65 00 64 00 20 00 61 00 6e 00 64 00 20 00 	v0e0d0 0a0n0d0 0
  0x5d6b0	72 00 65 00 71 00 75 00 69 00 72 00 65 00 73 00 	r0e0q0u0i0r0e0s0
  0x5d6c0	20 00 61 00 64 00 64 00 69 00 74 00 69 00 6f 00 	 0a0d0d0i0t0i0o0
  0x5d6d0	6e 00 61 00 6c 00 20 00 72 00 65 00 6d 00 6f 00 	n0a0l0 0r0e0m0o0
  0x5d6e0	76 00 61 00 6c 00 20 00 73 00 74 00 65 00 70 00 	v0a0l0 0s0t0e0p0
  0x5d6f0	73 00 2e 00 0d 00 0a 00 00 00 00 00 00 00 00 00 	s0.0000000000000
  0x5d700	2c 00 20 00 70 00 61 00 72 00 74 00 69 00 61 00 	,0 0p0a0r0t0i0a0
  0x5d710	6c 00 6c 00 79 00 20 00 72 00 65 00 6d 00 6f 00 	l0l0y0 0r0e0m0o0
  0x5d720	76 00 65 00 64 00 2e 00 0d 00 0a 00 00 00 00 00 	v0e0d0.000000000
  0x5d730	2c 00 20 00 72 00 65 00 6d 00 6f 00 76 00 65 00 	,0 0r0e0m0o0v0e0
  0x5d740	64 00 20 00 61 00 6e 00 64 00 20 00 72 00 65 00 	d0 0a0n0d0 0r0e0
  0x5d750	71 00 75 00 69 00 72 00 65 00 73 00 20 00 61 00 	q0u0i0r0e0s0 0a0
  0x5d760	64 00 64 00 69 00 74 00 69 00 6f 00 6e 00 61 00 	d0d0i0t0i0o0n0a0
  0x5d770	6c 00 20 00 72 00 65 00 6d 00 6f 00 76 00 61 00 	l0 0r0e0m0o0v0a0
  0x5d780	6c 00 20 00 73 00 74 00 65 00 70 00 73 00 2e 00 	l0 0s0t0e0p0s0.0
  0x5d790	0d 00 0a 00 00 00 00 00 20 00 61 00 6e 00 64 00 	00000000 0a0n0d0
  0x5d7a0	20 00 52 00 65 00 6d 00 6f 00 76 00 65 00 64 00 	 0R0e0m0o0v0e0d0
  0x5d7b0	21 00 0d 00 0a 00 00 00 54 00 68 00 72 00 65 00 	!0000000T0h0r0e0
  0x5d7c0	61 00 74 00 20 00 44 00 65 00 74 00 65 00 63 00 	a0t0 0D0e0t0e0c0
  0x5d7d0	74 00 65 00 64 00 3a 00 20 00 25 00 73 00 25 00 	t0e0d0:0 0%0s0%0
  0x5d7e0	73 00 00 00 00 00 00 00 4e 00 6f 00 41 00 63 00 	s0000000N0o0A0c0
  0x5d7f0	74 00 69 00 6f 00 6e 00 00 00 00 00 00 00 00 00 	t0i0o0n000000000
  0x5d800	2e 00 20 00 50 00 6c 00 65 00 61 00 73 00 65 00 	.0 0P0l0e0a0s0e0
  0x5d810	20 00 75 00 73 00 65 00 20 00 61 00 20 00 66 00 	 0u0s0e0 0a0 0f0
  0x5d820	75 00 6c 00 6c 00 20 00 61 00 6e 00 74 00 69 00 	u0l0l0 0a0n0t0i0
  0x5d830	76 00 69 00 72 00 75 00 73 00 20 00 70 00 72 00 	v0i0r0u0s0 0p0r0
  0x5d840	6f 00 64 00 75 00 63 00 74 00 20 00 21 00 20 00 	o0d0u0c0t0 0!0 0
  0x5d850	21 00 20 00 00 00 00 00 4f 00 70 00 65 00 72 00 	!0 00000O0p0e0r0
  0x5d860	61 00 74 00 69 00 6f 00 6e 00 20 00 66 00 61 00 	a0t0i0o0n0 0f0a0
  0x5d870	69 00 6c 00 65 00 64 00 2e 00 20 00 00 00 00 00 	i0l0e0d0.0 00000
  0x5d880	20 00 20 00 25 00 73 00 41 00 63 00 74 00 69 00 	 0 0%0s0A0c0t0i0
  0x5d890	6f 00 6e 00 3a 00 20 00 25 00 73 00 2c 00 20 00 	o0n0:0 0%0s0,0 0
  0x5d8a0	52 00 65 00 73 00 75 00 6c 00 74 00 3a 00 20 00 	R0e0s0u0l0t0:0 0
  0x5d8b0	30 00 78 00 25 00 30 00 38 00 58 00 25 00 73 00 	00x0%00080X0%0s0
  0x5d8c0	0d 00 0a 00 00 00 00 00 20 00 20 00 20 00 20 00 	00000000 0 0 0 0
  0x5d8d0	25 00 77 00 73 00 3a 00 2f 00 2f 00 25 00 77 00 	%0w0s0:0/0/0%0w0
  0x5d8e0	73 00 0d 00 0a 00 00 00 20 00 20 00 20 00 20 00 	s0000000 0 0 0 0
  0x5d8f0	20 00 20 00 20 00 20 00 53 00 69 00 67 00 53 00 	 0 0 0 0S0i0g0S0
  0x5d900	65 00 71 00 3a 00 20 00 30 00 78 00 25 00 30 00 	e0q0:0 000x0%000
  0x5d910	31 00 36 00 49 00 36 00 34 00 58 00 0d 00 0a 00 	1060I06040X00000
  0x5d920	00 00 00 00 00 00 00 00 00 00 00 00 00 00 00 00 	0000000000000000
  0x5d930	0d 00 0a 00 52 00 65 00 73 00 75 00 6c 00 74 00 	0000R0e0s0u0l0t0
  0x5d940	73 00 20 00 53 00 75 00 6d 00 6d 00 61 00 72 00 	s0 0S0u0m0m0a0r0
  0x5d950	79 00 3a 00 0d 00 0a 00 2d 00 2d 00 2d 00 2d 00 	y0:00000-0-0-0-0
  0x5d960	2d 00 2d 00 2d 00 2d 00 2d 00 2d 00 2d 00 2d 00 	-0-0-0-0-0-0-0-0
  0x5d970	2d 00 2d 00 2d 00 2d 00 0d 00 0a 00 00 00 00 00 	-0-0-0-000000000
  0x5d980	4e 00 6f 00 20 00 69 00 6e 00 66 00 65 00 63 00 	N0o0 0i0n0f0e0c0
  0x5d990	74 00 69 00 6f 00 6e 00 20 00 66 00 6f 00 75 00 	t0i0o0n0 0f0o0u0
  0x5d9a0	6e 00 64 00 2e 00 0d 00 0a 00 00 00 00 00 00 00 	n0d0.00000000000
  0x5d9b0	46 00 6f 00 75 00 6e 00 64 00 20 00 25 00 73 00 	F0o0u0n0d0 0%0s0
  0x5d9c0	25 00 73 00 00 00 00 00 00 00 00 00 00 00 00 00 	%0s0000000000000
  0x5d9d0	2a 00 5c 00 73 00 68 00 65 00 6c 00 6c 00 65 00 	*000s0h0e0l0l0e0
  0x5d9e0	78 00 5c 00 43 00 6f 00 6e 00 74 00 65 00 78 00 	x000C0o0n0t0e0x0
  0x5d9f0	74 00 4d 00 65 00 6e 00 75 00 48 00 61 00 6e 00 	t0M0e0n0u0H0a0n0
  0x5da00	64 00 6c 00 65 00 72 00 73 00 5c 00 45 00 50 00 	d0l0e0r0s000E0P0
  0x5da10	50 00 00 00 00 00 00 00 00 00 00 00 00 00 00 00 	P000000000000000
  0x5da20	44 00 69 00 72 00 65 00 63 00 74 00 6f 00 72 00 	D0i0r0e0c0t0o0r0
  0x5da30	79 00 5c 00 73 00 68 00 65 00 6c 00 6c 00 65 00 	y000s0h0e0l0l0e0
  0x5da40	78 00 5c 00 43 00 6f 00 6e 00 74 00 65 00 78 00 	x000C0o0n0t0e0x0
  0x5da50	74 00 4d 00 65 00 6e 00 75 00 48 00 61 00 6e 00 	t0M0e0n0u0H0a0n0
  0x5da60	64 00 6c 00 65 00 72 00 73 00 5c 00 45 00 50 00 	d0l0e0r0s000E0P0
  0x5da70	50 00 00 00 00 00 00 00 00 00 00 00 00 00 00 00 	P000000000000000
  0x5da80	44 00 72 00 69 00 76 00 65 00 5c 00 73 00 68 00 	D0r0i0v0e000s0h0
  0x5da90	65 00 6c 00 6c 00 65 00 78 00 5c 00 43 00 6f 00 	e0l0l0e0x000C0o0
  0x5daa0	6e 00 74 00 65 00 78 00 74 00 4d 00 65 00 6e 00 	n0t0e0x0t0M0e0n0
  0x5dab0	75 00 48 00 61 00 6e 00 64 00 6c 00 65 00 72 00 	u0H0a0n0d0l0e0r0
  0x5dac0	73 00 5c 00 45 00 50 00 50 00 00 00 00 00 00 00 	s000E0P0P0000000
  0x5dad0	53 00 4f 00 46 00 54 00 57 00 41 00 52 00 45 00 	S0O0F0T0W0A0R0E0
  0x5dae0	5c 00 4d 00 69 00 63 00 72 00 6f 00 73 00 6f 00 	00M0i0c0r0o0s0o0
  0x5daf0	66 00 74 00 5c 00 57 00 69 00 6e 00 64 00 6f 00 	f0t000W0i0n0d0o0
  0x5db00	77 00 73 00 20 00 44 00 65 00 66 00 65 00 6e 00 	w0s0 0D0e0f0e0n0
  0x5db10	64 00 65 00 72 00 00 00 44 00 69 00 73 00 61 00 	d0e0r000D0i0s0a0
  0x5db20	62 00 6c 00 65 00 41 00 6e 00 74 00 69 00 56 00 	b0l0e0A0n0t0i0V0
  0x5db30	69 00 72 00 75 00 73 00 00 00 00 00 00 00 00 00 	i0r0u0s000000000
  0x5db40	44 00 69 00 73 00 61 00 62 00 6c 00 65 00 41 00 	D0i0s0a0b0l0e0A0
  0x5db50	6e 00 74 00 69 00 53 00 70 00 79 00 77 00 61 00 	n0t0i0S0p0y0w0a0
  0x5db60	72 00 65 00 00 00 00 00 00 00 00 00 00 00 00 00 	r0e0000000000000
  0x5db70	53 00 4f 00 46 00 54 00 57 00 41 00 52 00 45 00 	S0O0F0T0W0A0R0E0
  0x5db80	5c 00 50 00 6f 00 6c 00 69 00 63 00 69 00 65 00 	00P0o0l0i0c0i0e0
  0x5db90	73 00 5c 00 4d 00 69 00 63 00 72 00 6f 00 73 00 	s000M0i0c0r0o0s0
  0x5dba0	6f 00 66 00 74 00 5c 00 57 00 69 00 6e 00 64 00 	o0f0t000W0i0n0d0
  0x5dbb0	6f 00 77 00 73 00 20 00 44 00 65 00 66 00 65 00 	o0w0s0 0D0e0f0e0
  0x5dbc0	6e 00 64 00 65 00 72 00 00 00 00 00 00 00 00 00 	n0d0e0r000000000
  0x5dbd0	25 00 77 00 73 00 5c 00 3f 00 3f 00 3f 00 3f 00 	%0w0s000?0?0?0?0
  0x5dbe0	3f 00 3f 00 3f 00 3f 00 2d 00 3f 00 3f 00 3f 00 	?0?0?0?0-0?0?0?0
  0x5dbf0	3f 00 2d 00 3f 00 3f 00 3f 00 3f 00 2d 00 3f 00 	?0-0?0?0?0?0-0?0
  0x5dc00	3f 00 3f 00 3f 00 2d 00 3f 00 3f 00 3f 00 3f 00 	?0?0?0-0?0?0?0?0
  0x5dc10	3f 00 3f 00 3f 00 3f 00 3f 00 3f 00 3f 00 3f 00 	?0?0?0?0?0?0?0?0
  0x5dc20	00 00 00 00 00 00 00 00 00 00 00 00 00 00 00 00 	0000000000000000
  0x5dc30	7b 00 30 00 39 00 41 00 34 00 37 00 38 00 36 00 	{00090A040708060
  0x5dc40	30 00 2d 00 31 00 31 00 42 00 30 00 2d 00 34 00 	00-01010B000-040
  0x5dc50	44 00 41 00 35 00 2d 00 41 00 46 00 41 00 35 00 	D0A050-0A0F0A050
  0x5dc60	2d 00 32 00 36 00 44 00 38 00 36 00 31 00 39 00 	-02060D080601090
  0x5dc70	38 00 41 00 37 00 38 00 30 00 7d 00 00 00 00 00 	80A0708000}00000
  0x5dc80	46 00 39 00 37 00 33 00 36 00 31 00 31 00 45 00 	F0907030601010E0
  0x5dc90	2d 00 38 00 37 00 43 00 30 00 2d 00 34 00 37 00 	-08070C000-04070
  0x5dca0	32 00 33 00 2d 00 41 00 36 00 46 00 43 00 2d 00 	2030-0A060F0C0-0
  0x5dcb0	31 00 42 00 41 00 43 00 42 00 39 00 41 00 41 00 	10B0A0C0B090A0A0
  0x5dcc0	46 00 38 00 43 00 37 00 00 00 00 00 00 00 00 00 	F080C07000000000
  0x5dcd0	36 00 41 00 38 00 37 00 46 00 35 00 35 00 45 00 	60A08070F05050E0
  0x5dce0	2d 00 38 00 31 00 46 00 33 00 2d 00 34 00 32 00 	-08010F030-04020
  0x5dcf0	36 00 34 00 2d 00 42 00 36 00 33 00 33 00 2d 00 	6040-0B0603030-0
  0x5dd00	30 00 34 00 32 00 30 00 41 00 32 00 34 00 32 00 	00402000A0204020
  0x5dd10	44 00 36 00 42 00 41 00 00 00 00 00 00 00 00 00 	D060B0A000000000
  0x5dd20	42 00 44 00 43 00 32 00 42 00 35 00 33 00 35 00 	B0D0C020B0503050
  0x5dd30	2d 00 34 00 30 00 44 00 45 00 2d 00 34 00 30 00 	-04000D0E0-04000
  0x5dd40	39 00 42 00 2d 00 39 00 36 00 34 00 43 00 2d 00 	90B0-0906040C0-0
  0x5dd50	34 00 46 00 35 00 38 00 34 00 44 00 39 00 46 00 	40F0508040D090F0
  0x5dd60	35 00 39 00 32 00 37 00 00 00 00 00 00 00 00 00 	5090207000000000
  0x5dd70	43 00 46 00 31 00 33 00 39 00 42 00 39 00 37 00 	C0F0103090B09070
  0x5dd80	2d 00 42 00 43 00 39 00 31 00 2d 00 34 00 32 00 	-0B0C09010-04020
  0x5dd90	34 00 31 00 2d 00 39 00 39 00 30 00 37 00 2d 00 	4010-090900070-0
  0x5dda0	42 00 32 00 44 00 43 00 36 00 33 00 35 00 36 00 	B020D0C060305060
  0x5ddb0	43 00 34 00 38 00 35 00 00 00 00 00 00 00 00 00 	C040805000000000
  0x5ddc0	39 00 41 00 42 00 30 00 38 00 39 00 46 00 35 00 	90A0B0008090F050
  0x5ddd0	2d 00 33 00 34 00 42 00 39 00 2d 00 34 00 46 00 	-03040B090-040F0
  0x5dde0	41 00 31 00 2d 00 38 00 41 00 32 00 31 00 2d 00 	A010-080A02010-0
  0x5ddf0	34 00 34 00 32 00 37 00 32 00 30 00 37 00 31 00 	4040207020007010
  0x5de00	45 00 33 00 30 00 44 00 00 00 00 00 00 00 00 00 	E03000D000000000
  0x5de10	43 00 35 00 41 00 43 00 39 00 44 00 35 00 45 00 	C050A0C090D050E0
  0x5de20	2d 00 43 00 45 00 43 00 30 00 2d 00 34 00 39 00 	-0C0E0C000-04090
  0x5de30	32 00 46 00 2d 00 39 00 43 00 44 00 35 00 2d 00 	20F0-090C0D050-0
  0x5de40	33 00 33 00 42 00 44 00 46 00 36 00 45 00 41 00 	3030B0D0F060E0A0
  0x5de50	31 00 33 00 42 00 42 00 00 00 00 00 00 00 00 00 	1030B0B000000000
  0x5de60	37 00 46 00 46 00 32 00 38 00 36 00 32 00 31 00 	70F0F02080602010
  0x5de70	2d 00 30 00 44 00 44 00 44 00 2d 00 34 00 37 00 	-000D0D0D0-04070
  0x5de80	33 00 39 00 2d 00 39 00 35 00 43 00 33 00 2d 00 	3090-09050C030-0
  0x5de90	44 00 31 00 36 00 45 00 30 00 34 00 30 00 36 00 	D01060E000400060
  0x5dea0	44 00 36 00 31 00 43 00 00 00 00 00 00 00 00 00 	D06010C000000000
  0x5deb0	31 00 37 00 38 00 36 00 35 00 33 00 35 00 36 00 	1070806050305060
  0x5dec0	2d 00 41 00 33 00 43 00 37 00 2d 00 34 00 30 00 	-0A030C070-04000
  0x5ded0	46 00 34 00 2d 00 39 00 39 00 39 00 34 00 2d 00 	F040-090909040-0
  0x5dee0	37 00 33 00 38 00 45 00 42 00 35 00 33 00 31 00 	703080E0B0503010
  0x5def0	32 00 41 00 43 00 42 00 00 00 00 00 00 00 00 00 	20A0C0B000000000
  0x5df00	25 00 73 00 20 00 28 00 25 00 73 00 29 00 00 00 	%0s0 0(0%0s0)000
  0x5df10	25 00 73 00 00 00 00 00 00 00 00 00 00 00 00 00 	%0s0000000000000
  0x5df20	46 00 61 00 69 00 6c 00 65 00 64 00 20 00 74 00 	F0a0i0l0e0d0 0t0
  0x5df30	6f 00 20 00 63 00 6f 00 6e 00 73 00 74 00 72 00 	o0 0c0o0n0s0t0r0
  0x5df40	75 00 63 00 74 00 20 00 72 00 65 00 70 00 6f 00 	u0c0t0 0r0e0p0o0
  0x5df50	72 00 74 00 69 00 6e 00 67 00 20 00 73 00 6f 00 	r0t0i0n0g0 0s0o0
  0x5df60	75 00 72 00 63 00 65 00 20 00 73 00 74 00 72 00 	u0r0c0e0 0s0t0r0
  0x5df70	69 00 6e 00 67 00 3a 00 20 00 30 00 78 00 25 00 	i0n0g0:0 000x0%0
  0x5df80	30 00 38 00 58 00 0d 00 0a 00 00 00 00 00 00 00 	0080X00000000000
  0x5df90	46 00 61 00 69 00 6c 00 65 00 64 00 20 00 74 00 	F0a0i0l0e0d0 0t0
  0x5dfa0	6f 00 20 00 73 00 75 00 62 00 6d 00 69 00 74 00 	o0 0s0u0b0m0i0t0
  0x5dfb0	20 00 73 00 61 00 6d 00 70 00 6c 00 65 00 73 00 	 0s0a0m0p0l0e0s0
  0x5dfc0	3a 00 20 00 30 00 78 00 25 00 30 00 38 00 58 00 	:0 000x0%00080X0
  0x5dfd0	0d 00 0a 00 00 00 00 00 52 65 70 6f 72 74 69 6e 	00000000Reportin
  0x5dfe0	67 20 53 74 61 72 74 65 64 00 00 00 00 00 00 00 	g Started0000000
  0x5dff0	46 00 61 00 69 00 6c 00 65 00 64 00 20 00 74 00 	F0a0i0l0e0d0 0t0
  0x5e000	6f 00 20 00 73 00 75 00 62 00 6d 00 69 00 74 00 	o0 0s0u0b0m0i0t0
  0x5e010	20 00 4d 00 41 00 50 00 53 00 20 00 72 00 65 00 	 0M0A0P0S0 0r0e0
  0x5e020	70 00 6f 00 72 00 74 00 3a 00 20 00 30 00 78 00 	p0o0r0t0:0 000x0
  0x5e030	25 00 30 00 38 00 58 00 0d 00 0a 00 00 00 00 00 	%00080X000000000
  0x5e040	53 00 75 00 62 00 6d 00 69 00 74 00 52 00 65 00 	S0u0b0m0i0t0R0e0
  0x5e050	70 00 6f 00 72 00 74 00 00 00 00 00 00 00 00 00 	p0o0r0t000000000
  0x5e060	46 00 61 00 69 00 6c 00 65 00 64 00 20 00 74 00 	F0a0i0l0e0d0 0t0
  0x5e070	6f 00 20 00 43 00 72 00 65 00 61 00 74 00 65 00 	o0 0C0r0e0a0t0e0
  0x5e080	20 00 48 00 65 00 61 00 72 00 74 00 62 00 65 00 	 0H0e0a0r0t0b0e0
  0x5e090	61 00 74 00 20 00 45 00 72 00 72 00 6f 00 72 00 	a0t0 0E0r0r0o0r0
  0x5e0a0	20 00 74 00 61 00 73 00 6b 00 3a 00 20 00 30 00 	 0t0a0s0k0:0 000
  0x5e0b0	78 00 25 00 30 00 38 00 58 00 0d 00 0a 00 00 00 	x0%00080X0000000
  0x5e0c0	53 00 75 00 63 00 63 00 65 00 73 00 73 00 66 00 	S0u0c0c0e0s0s0f0
  0x5e0d0	75 00 6c 00 6c 00 79 00 20 00 53 00 75 00 62 00 	u0l0l0y0 0S0u0b0
  0x5e0e0	6d 00 69 00 74 00 74 00 65 00 64 00 20 00 4d 00 	m0i0t0t0e0d0 0M0
  0x5e0f0	41 00 50 00 53 00 20 00 52 00 65 00 70 00 6f 00 	A0P0S0 0R0e0p0o0
  0x5e100	72 00 74 00 0d 00 0a 00 00 00 00 00 00 00 00 00 	r0t0000000000000
  0x5e110	77 00 69 00 6e 00 64 00 65 00 66 00 65 00 6e 00 	w0i0n0d0e0f0e0n0
  0x5e120	64 00 00 00 00 00 00 00 4d 00 53 00 52 00 54 00 	d0000000M0S0R0T0
  0x5e130	00 00 00 00 00 00 00 00 00 00 00 00 00 00 00 00 	0000000000000000
  0x5e140	45 00 72 00 72 00 6f 00 72 00 20 00 43 00 6f 00 	E0r0r0o0r0 0C0o0
  0x5e150	6c 00 6c 00 65 00 63 00 74 00 69 00 6e 00 67 00 	l0l0e0c0t0i0n0g0
  0x5e160	20 00 44 00 65 00 66 00 65 00 6e 00 64 00 65 00 	 0D0e0f0e0n0d0e0
  0x5e170	72 00 20 00 44 00 65 00 74 00 61 00 69 00 6c 00 	r0 0D0e0t0a0i0l0
  0x5e180	73 00 00 00 00 00 00 00 45 00 72 00 72 00 6f 00 	s0000000E0r0r0o0
  0x5e190	72 00 3a 00 20 00 25 00 23 00 6c 00 78 00 00 00 	r0:0 0%0#0l0x000
  0x5e1a0	45 00 72 00 72 00 6f 00 72 00 20 00 43 00 6f 00 	E0r0r0o0r0 0C0o0
  0x5e1b0	6c 00 6c 00 65 00 63 00 74 00 69 00 6e 00 67 00 	l0l0e0c0t0i0n0g0
  0x5e1c0	20 00 49 00 6e 00 74 00 65 00 6c 00 20 00 41 00 	 0I0n0t0e0l0 0A0
  0x5e1d0	4d 00 54 00 20 00 44 00 65 00 74 00 61 00 69 00 	M0T0 0D0e0t0a0i0
  0x5e1e0	6c 00 73 00 00 00 00 00 4e 00 6f 00 20 00 45 00 	l0s00000N0o0 0E0
  0x5e1f0	72 00 72 00 6f 00 72 00 00 00 00 00 00 00 00 00 	r0r0o0r000000000
  0x5e200	41 00 76 00 53 00 74 00 61 00 74 00 65 00 20 00 	A0v0S0t0a0t0e0 0
  0x5e210	00 00 00 00 00 00 00 00 00 00 00 00 00 00 00 00 	0000000000000000
  0x5e220	46 00 61 00 69 00 6c 00 65 00 64 00 20 00 74 00 	F0a0i0l0e0d0 0t0
  0x5e230	6f 00 20 00 73 00 75 00 62 00 6d 00 69 00 74 00 	o0 0s0u0b0m0i0t0
  0x5e240	20 00 63 00 6c 00 65 00 61 00 6e 00 20 00 68 00 	 0c0l0e0a0n0 0h0
  0x5e250	65 00 61 00 72 00 62 00 65 00 61 00 74 00 20 00 	e0a0r0b0e0a0t0 0
  0x5e260	4d 00 41 00 50 00 53 00 20 00 72 00 65 00 70 00 	M0A0P0S0 0r0e0p0
  0x5e270	6f 00 72 00 74 00 3a 00 20 00 30 00 78 00 25 00 	o0r0t0:0 000x0%0
  0x5e280	30 00 38 00 58 00 0d 00 0a 00 00 00 00 00 00 00 	0080X00000000000
  0x5e290	53 00 75 00 62 00 6d 00 69 00 74 00 48 00 65 00 	S0u0b0m0i0t0H0e0
  0x5e2a0	61 00 72 00 74 00 62 00 65 00 61 00 74 00 52 00 	a0r0t0b0e0a0t0R0
  0x5e2b0	65 00 70 00 6f 00 72 00 74 00 44 00 61 00 74 00 	e0p0o0r0t0D0a0t0
  0x5e2c0	61 00 00 00 00 00 00 00 00 00 00 00 00 00 00 00 	a000000000000000
  0x5e2d0	53 00 75 00 63 00 63 00 65 00 73 00 73 00 66 00 	S0u0c0c0e0s0s0f0
  0x5e2e0	75 00 6c 00 6c 00 79 00 20 00 53 00 75 00 62 00 	u0l0l0y0 0S0u0b0
  0x5e2f0	6d 00 69 00 74 00 74 00 65 00 64 00 20 00 48 00 	m0i0t0t0e0d0 0H0
  0x5e300	65 00 61 00 72 00 74 00 62 00 65 00 61 00 74 00 	e0a0r0t0b0e0a0t0
  0x5e310	20 00 52 00 65 00 70 00 6f 00 72 00 74 00 0d 00 	 0R0e0p0o0r0t000
  0x5e320	0a 00 00 00 00 00 00 00 4f 00 6e 00 20 00 53 00 	00000000O0n0 0S0
  0x5e330	74 00 61 00 72 00 74 00 20 00 48 00 65 00 61 00 	t0a0r0t0 0H0e0a0
  0x5e340	72 00 62 00 65 00 61 00 74 00 00 00 00 00 00 00 	r0b0e0a0t0000000
  0x5e350	76 65 63 74 6f 72 20 74 6f 6f 20 6c 6f 6e 67 00 	vector too long0
  0x5e360	00 00 00 00 00 00 00 00 62 61 64 20 61 72 72 61 	00000000bad arra
  0x5e370	79 20 6e 65 77 20 6c 65 6e 67 74 68 00 00 00 00 	y new length0000
  0x5e380	55 6e 6b 6e 6f 77 6e 20 65 78 63 65 70 74 69 6f 	Unknown exceptio
  0x5e390	6e 00 00 00 00 00 00 00 47 00 55 00 49 00 44 00 	n0000000G0U0I0D0
  0x5e3a0	00 00 00 00 00 00 00 00 44 00 6f 00 6e 00 74 00 	00000000D0o0n0t0
  0x5e3b0	52 00 65 00 70 00 6f 00 72 00 74 00 49 00 6e 00 	R0e0p0o0r0t0I0n0
  0x5e3c0	66 00 65 00 63 00 74 00 69 00 6f 00 6e 00 49 00 	f0e0c0t0i0o0n0I0
  0x5e3d0	6e 00 66 00 6f 00 72 00 6d 00 61 00 74 00 69 00 	n0f0o0r0m0a0t0i0
  0x5e3e0	6f 00 6e 00 00 00 00 00 45 00 55 00 4c 00 41 00 	o0n00000E0U0L0A0
  0x5e3f0	32 00 00 00 00 00 00 00 56 00 65 00 72 00 73 00 	20000000V0e0r0s0
  0x5e400	69 00 6f 00 6e 00 00 00 00 00 00 00 00 00 00 00 	i0o0n00000000000
  0x5e410	43 00 45 00 37 00 42 00 46 00 30 00 46 00 33 00 	C0E070B0F000F030
  0x5e420	2d 00 45 00 36 00 36 00 34 00 2d 00 34 00 32 00 	-0E0606040-04020
  0x5e430	32 00 46 00 2d 00 41 00 41 00 34 00 37 00 2d 00 	20F0-0A0A04070-0
  0x5e440	44 00 35 00 35 00 38 00 38 00 38 00 37 00 31 00 	D050508080807010
  0x5e450	46 00 34 00 35 00 41 00 00 00 00 00 00 00 00 00 	F04050A000000000
  0x5e460	4d 00 52 00 54 00 00 00 71 2f e0 ba 80 ab 3a 32 	M0R0T000q/0000:2
  0x5e470	65 3b 4f 7c 9d b3 ff 28 25 00 73 00 25 00 73 00 	e;O|000(%0s0%0s0
  0x5e480	25 00 73 00 25 00 73 00 25 00 73 00 00 00 00 00 	%0s0%0s0%0s00000
  0x5e490	54 00 58 00 54 00 00 00 66 00 69 00 6c 00 65 00 	T0X0T000f0i0l0e0
  0x5e4a0	00 00 00 00 00 00 00 00 36 51 f8 42 7e db 9c 43 	000000006Q0B~00C
  0x5e4b0	85 f1 e4 07 5d 13 5f c8 55 e3 16 41 87 59 55 31 	0000]0_0U00A0YU1
  0x5e4c0	6c c4 0b a2 ee 83 28 0a 2c 00 20 00 00 00 00 00 	l00000(0,0 00000
  0x5e4d0	25 00 73 00 25 00 73 00 25 00 73 00 25 00 73 00 	%0s0%0s0%0s0%0s0
  0x5e4e0	25 00 73 00 25 00 73 00 25 00 73 00 00 00 00 00 	%0s0%0s0%0s00000
  0x5e4f0	73 74 72 69 6e 67 20 74 6f 6f 20 6c 6f 6e 67 00 	string too long0
  0x5e500	d0 15 32 a3 26 09 27 32 8b f7 ae ff da dc 0d 55 	0020&0'20000000U
  0x5e510	77 00 73 00 63 00 61 00 70 00 69 00 2e 00 64 00 	w0s0c0a0p0i0.0d0
  0x5e520	6c 00 6c 00 00 00 00 00 77 73 63 53 68 6f 77 41 	l0l00000wscShowA
  0x5e530	4d 53 43 4e 00 00 00 00 22 00 25 00 77 00 73 00 	MSCN0000"0%0w0s0
  0x5e540	22 00 20 00 20 00 2f 00 57 00 69 00 6e 00 38 00 	"0 0 0/0W0i0n080
  0x5e550	55 00 4e 00 50 00 00 00 77 00 73 00 63 00 73 00 	U0N0P000w0s0c0s0
  0x5e560	76 00 63 00 00 00 00 00 50 00 54 00 33 00 30 00 	v0c00000P0T03000
  0x5e570	4d 00 00 00 00 00 00 00 50 00 31 00 44 00 00 00 	M0000000P010D000
  0x5e580	50 00 37 00 44 00 00 00 4d 00 70 00 44 00 69 00 	P070D000M0p0D0i0
  0x5e590	73 00 61 00 62 00 6c 00 65 00 45 00 6e 00 68 00 	s0a0b0l0e0E0n0h0
  0x5e5a0	61 00 6e 00 63 00 65 00 64 00 4d 00 61 00 70 00 	a0n0c0e0d0M0a0p0
  0x5e5b0	73 00 48 00 65 00 61 00 72 00 74 00 62 00 65 00 	s0H0e0a0r0t0b0e0
  0x5e5c0	61 00 74 00 00 00 00 00 4d 00 70 00 45 00 6e 00 	a0t00000M0p0E0n0
  0x5e5d0	68 00 61 00 6e 00 63 00 65 00 64 00 4d 00 61 00 	h0a0n0c0e0d0M0a0
  0x5e5e0	70 00 73 00 48 00 65 00 61 00 72 00 74 00 62 00 	p0s0H0e0a0r0t0b0
  0x5e5f0	65 00 61 00 74 00 44 00 65 00 6c 00 61 00 79 00 	e0a0t0D0e0l0a0y0
  0x5e600	00 00 00 00 00 00 00 00 4d 00 70 00 45 00 6e 00 	00000000M0p0E0n0
  0x5e610	68 00 61 00 6e 00 63 00 65 00 64 00 4d 00 61 00 	h0a0n0c0e0d0M0a0
  0x5e620	70 00 73 00 48 00 65 00 61 00 72 00 74 00 62 00 	p0s0H0e0a0r0t0b0
  0x5e630	65 00 61 00 74 00 52 00 61 00 74 00 65 00 00 00 	e0a0t0R0a0t0e000
  0x5e640	4d 00 70 00 44 00 69 00 73 00 61 00 62 00 6c 00 	M0p0D0i0s0a0b0l0
  0x5e650	65 00 4f 00 66 00 66 00 6c 00 69 00 6e 00 65 00 	e0O0f0f0l0i0n0e0
  0x5e660	45 00 6e 00 68 00 61 00 6e 00 63 00 65 00 64 00 	E0n0h0a0n0c0e0d0
  0x5e670	4d 00 61 00 70 00 73 00 48 00 65 00 61 00 72 00 	M0a0p0s0H0e0a0r0
  0x5e680	74 00 62 00 65 00 61 00 74 00 00 00 00 00 00 00 	t0b0e0a0t0000000
  0x5e690	4d 00 70 00 4f 00 66 00 66 00 6c 00 69 00 6e 00 	M0p0O0f0f0l0i0n0
  0x5e6a0	65 00 45 00 6e 00 68 00 61 00 6e 00 63 00 65 00 	e0E0n0h0a0n0c0e0
  0x5e6b0	64 00 4d 00 61 00 70 00 73 00 48 00 65 00 61 00 	d0M0a0p0s0H0e0a0
  0x5e6c0	72 00 74 00 62 00 65 00 61 00 74 00 44 00 65 00 	r0t0b0e0a0t0D0e0
  0x5e6d0	6c 00 61 00 79 00 00 00 00 00 00 00 00 00 00 00 	l0a0y00000000000
  0x5e6e0	4d 00 70 00 4f 00 66 00 66 00 6c 00 69 00 6e 00 	M0p0O0f0f0l0i0n0
  0x5e6f0	65 00 45 00 6e 00 68 00 61 00 6e 00 63 00 65 00 	e0E0n0h0a0n0c0e0
  0x5e700	64 00 4d 00 61 00 70 00 73 00 48 00 65 00 61 00 	d0M0a0p0s0H0e0a0
  0x5e710	72 00 74 00 62 00 65 00 61 00 74 00 52 00 61 00 	r0t0b0e0a0t0R0a0
  0x5e720	74 00 65 00 00 00 00 00 00 00 00 00 00 00 00 00 	t0e0000000000000
  0x5e730	4d 00 70 00 44 00 69 00 73 00 61 00 62 00 6c 00 	M0p0D0i0s0a0b0l0
  0x5e740	65 00 50 00 61 00 69 00 64 00 45 00 6e 00 68 00 	e0P0a0i0d0E0n0h0
  0x5e750	61 00 6e 00 63 00 65 00 64 00 4d 00 61 00 70 00 	a0n0c0e0d0M0a0p0
  0x5e760	73 00 48 00 65 00 61 00 72 00 74 00 62 00 65 00 	s0H0e0a0r0t0b0e0
  0x5e770	61 00 74 00 00 00 00 00 00 00 00 00 00 00 00 00 	a0t0000000000000
  0x5e780	4d 00 70 00 50 00 61 00 69 00 64 00 45 00 6e 00 	M0p0P0a0i0d0E0n0
  0x5e790	68 00 61 00 6e 00 63 00 65 00 64 00 4d 00 61 00 	h0a0n0c0e0d0M0a0
  0x5e7a0	70 00 73 00 48 00 65 00 61 00 72 00 74 00 62 00 	p0s0H0e0a0r0t0b0
  0x5e7b0	65 00 61 00 74 00 44 00 65 00 6c 00 61 00 79 00 	e0a0t0D0e0l0a0y0
  0x5e7c0	00 00 00 00 00 00 00 00 25 00 30 00 34 00 75 00 	00000000%00040u0
  0x5e7d0	2d 00 25 00 30 00 32 00 75 00 2d 00 25 00 30 00 	-0%00020u0-0%000
  0x5e7e0	32 00 75 00 54 00 25 00 30 00 32 00 75 00 3a 00 	20u0T0%00020u0:0
  0x5e7f0	25 00 30 00 32 00 75 00 3a 00 25 00 30 00 32 00 	%00020u0:0%00020
  0x5e800	75 00 5a 00 00 00 00 00 00 00 00 00 00 00 00 00 	u0Z0000000000000
  0x5e810	48 00 65 00 61 00 72 00 74 00 62 00 65 00 61 00 	H0e0a0r0t0b0e0a0
  0x5e820	74 00 20 00 57 00 69 00 6c 00 6c 00 20 00 62 00 	t0 0W0i0l0l0 0b0
  0x5e830	65 00 20 00 53 00 65 00 6e 00 74 00 20 00 69 00 	e0 0S0e0n0t0 0i0
  0x5e840	6e 00 20 00 25 00 64 00 20 00 44 00 61 00 79 00 	n0 0%0d0 0D0a0y0
  0x5e850	73 00 0d 00 0a 00 00 00 74 00 72 00 75 00 65 00 	s0000000t0r0u0e0
  0x5e860	00 00 00 00 00 00 00 00 66 00 61 00 6c 00 73 00 	00000000f0a0l0s0
  0x5e870	65 00 00 00 00 00 00 00 00 00 00 00 00 00 00 00 	e000000000000000
  0x5e880	56 00 65 00 72 00 69 00 66 00 79 00 48 00 65 00 	V0e0r0i0f0y0H0e0
  0x5e890	61 00 72 00 74 00 62 00 65 00 61 00 74 00 43 00 	a0r0t0b0e0a0t0C0
  0x5e8a0	61 00 6e 00 52 00 75 00 6e 00 28 00 62 00 43 00 	a0n0R0u0n0(0b0C0
  0x5e8b0	6f 00 6c 00 6c 00 65 00 63 00 74 00 69 00 6e 00 	o0l0l0e0c0t0i0n0
  0x5e8c0	67 00 20 00 3d 00 20 00 25 00 73 00 29 00 20 00 	g0 0=0 0%0s0)0 0
  0x5e8d0	3d 00 20 00 25 00 30 00 38 00 58 00 0d 00 0a 00 	=0 0%00080X00000
  0x5e8e0	00 00 00 00 00 00 00 00 00 00 00 00 00 00 00 00 	0000000000000000
  0x5e8f0	52 00 65 00 62 00 6f 00 6f 00 74 00 20 00 6f 00 	R0e0b0o0o0t0 0o0
  0x5e900	63 00 63 00 75 00 72 00 65 00 64 00 20 00 61 00 	c0c0u0r0e0d0 0a0
  0x5e910	66 00 74 00 65 00 72 00 20 00 6c 00 61 00 73 00 	f0t0e0r0 0l0a0s0
  0x5e920	74 00 20 00 68 00 65 00 61 00 72 00 74 00 62 00 	t0 0h0e0a0r0t0b0
  0x5e930	65 00 61 00 74 00 2e 00 20 00 75 00 6c 00 6c 00 	e0a0t0.0 0u0l0l0
  0x5e940	4c 00 61 00 73 00 74 00 53 00 75 00 63 00 63 00 	L0a0s0t0S0u0c0c0
  0x5e950	65 00 73 00 73 00 66 00 75 00 6c 00 4d 00 61 00 	e0s0s0f0u0l0M0a0
  0x5e960	70 00 73 00 20 00 3d 00 20 00 30 00 0d 00 0a 00 	p0s0 0=0 0000000
  0x5e970	00 00 00 00 00 00 00 00 00 00 00 00 00 00 00 00 	0000000000000000
  0x5e980	46 00 61 00 69 00 6c 00 65 00 64 00 20 00 74 00 	F0a0i0l0e0d0 0t0
  0x5e990	6f 00 20 00 63 00 6f 00 6c 00 6c 00 65 00 63 00 	o0 0c0o0l0l0e0c0
  0x5e9a0	74 00 2f 00 73 00 65 00 6e 00 64 00 20 00 68 00 	t0/0s0e0n0d0 0h0
  0x5e9b0	65 00 61 00 72 00 74 00 62 00 65 00 61 00 74 00 	e0a0r0t0b0e0a0t0
  0x5e9c0	2e 00 20 00 48 00 52 00 20 00 3d 00 20 00 25 00 	.0 0H0R0 0=0 0%0
  0x5e9d0	30 00 38 00 58 00 0d 00 0a 00 00 00 00 00 00 00 	0080X00000000000
  0x5e9e0	2f 00 45 00 48 00 42 00 20 00 2f 00 51 00 00 00 	/0E0H0B0 0/0Q000
  0x5e9f0	2f 00 45 00 48 00 42 00 20 00 2f 00 48 00 65 00 	/0E0H0B0 0/0H0e0
  0x5ea00	61 00 72 00 74 00 62 00 65 00 61 00 74 00 46 00 	a0r0t0b0e0a0t0F0
  0x5ea10	61 00 69 00 6c 00 75 00 72 00 65 00 20 00 22 00 	a0i0l0u0r0e0 0"0
  0x5ea20	25 00 77 00 73 00 22 00 20 00 2f 00 48 00 65 00 	%0w0s0"0 0/0H0e0
  0x5ea30	61 00 72 00 74 00 62 00 65 00 61 00 74 00 45 00 	a0r0t0b0e0a0t0E0
  0x5ea40	72 00 72 00 6f 00 72 00 20 00 22 00 25 00 23 00 	r0r0o0r0 0"0%0#0
  0x5ea50	6c 00 78 00 22 00 00 00 00 00 00 00 00 00 00 00 	l0x0"00000000000
  0x5ea60	52 00 4f 00 4f 00 54 00 5c 00 4d 00 69 00 63 00 	R0O0O0T000M0i0c0
  0x5ea70	72 00 6f 00 73 00 6f 00 66 00 74 00 5c 00 57 00 	r0o0s0o0f0t000W0
  0x5ea80	69 00 6e 00 64 00 6f 00 77 00 73 00 5c 00 44 00 	i0n0d0o0w0s000D0
  0x5ea90	65 00 66 00 65 00 6e 00 64 00 65 00 72 00 00 00 	e0f0e0n0d0e0r000
  0x5eaa0	53 00 45 00 4c 00 45 00 43 00 54 00 20 00 2a 00 	S0E0L0E0C0T0 0*0
  0x5eab0	20 00 46 00 52 00 4f 00 4d 00 20 00 4d 00 53 00 	 0F0R0O0M0 0M0S0
  0x5eac0	46 00 54 00 5f 00 4d 00 70 00 50 00 72 00 65 00 	F0T0_0M0p0P0r0e0
  0x5ead0	66 00 65 00 72 00 65 00 6e 00 63 00 65 00 00 00 	f0e0r0e0n0c0e000
  0x5eae0	57 00 51 00 4c 00 00 00 4d 00 41 00 50 00 53 00 	W0Q0L000M0A0P0S0
  0x5eaf0	52 00 65 00 70 00 6f 00 72 00 74 00 69 00 6e 00 	R0e0p0o0r0t0i0n0
  0x5eb00	67 00 00 00 00 00 00 00 44 00 69 00 73 00 61 00 	g0000000D0i0s0a0
  0x5eb10	62 00 6c 00 65 00 52 00 65 00 61 00 6c 00 74 00 	b0l0e0R0e0a0l0t0
  0x5eb20	69 00 6d 00 65 00 4d 00 6f 00 6e 00 69 00 74 00 	i0m0e0M0o0n0i0t0
  0x5eb30	6f 00 72 00 69 00 6e 00 67 00 00 00 00 00 00 00 	o0r0i0n0g0000000
  0x5eb40	45 00 78 00 63 00 6c 00 75 00 73 00 69 00 6f 00 	E0x0c0l0u0s0i0o0
  0x5eb50	6e 00 50 00 61 00 74 00 68 00 00 00 2c 00 00 00 	n0P0a0t0h000,000
  0x5eb60	45 00 78 00 63 00 6c 00 75 00 73 00 69 00 6f 00 	E0x0c0l0u0s0i0o0
  0x5eb70	6e 00 45 00 78 00 74 00 65 00 6e 00 73 00 69 00 	n0E0x0t0e0n0s0i0
  0x5eb80	6f 00 6e 00 00 00 00 00 45 00 78 00 63 00 6c 00 	o0n00000E0x0c0l0
  0x5eb90	75 00 73 00 69 00 6f 00 6e 00 50 00 72 00 6f 00 	u0s0i0o0n0P0r0o0
  0x5eba0	63 00 65 00 73 00 73 00 00 00 00 00 00 00 00 00 	c0e0s0s000000000
  0x5ebb0	53 00 45 00 4c 00 45 00 43 00 54 00 20 00 2a 00 	S0E0L0E0C0T0 0*0
  0x5ebc0	20 00 46 00 52 00 4f 00 4d 00 20 00 4d 00 53 00 	 0F0R0O0M0 0M0S0
  0x5ebd0	46 00 54 00 5f 00 4d 00 70 00 43 00 6f 00 6d 00 	F0T0_0M0p0C0o0m0
  0x5ebe0	70 00 75 00 74 00 65 00 72 00 53 00 74 00 61 00 	p0u0t0e0r0S0t0a0
  0x5ebf0	74 00 75 00 73 00 00 00 41 00 6e 00 74 00 69 00 	t0u0s000A0n0t0i0
  0x5ec00	76 00 69 00 72 00 75 00 73 00 53 00 69 00 67 00 	v0i0r0u0s0S0i0g0
  0x5ec10	6e 00 61 00 74 00 75 00 72 00 65 00 56 00 65 00 	n0a0t0u0r0e0V0e0
  0x5ec20	72 00 73 00 69 00 6f 00 6e 00 00 00 00 00 00 00 	r0s0i0o0n0000000
  0x5ec30	41 00 6e 00 74 00 69 00 76 00 69 00 72 00 75 00 	A0n0t0i0v0i0r0u0
  0x5ec40	73 00 53 00 69 00 67 00 6e 00 61 00 74 00 75 00 	s0S0i0g0n0a0t0u0
  0x5ec50	72 00 65 00 4c 00 61 00 73 00 74 00 55 00 70 00 	r0e0L0a0s0t0U0p0
  0x5ec60	64 00 61 00 74 00 65 00 64 00 00 00 00 00 00 00 	d0a0t0e0d0000000
  0x5ec70	51 00 75 00 69 00 63 00 6b 00 53 00 63 00 61 00 	Q0u0i0c0k0S0c0a0
  0x5ec80	6e 00 41 00 67 00 65 00 00 00 00 00 00 00 00 00 	n0A0g0e000000000
  0x5ec90	46 00 75 00 6c 00 6c 00 53 00 63 00 61 00 6e 00 	F0u0l0l0S0c0a0n0
  0x5eca0	41 00 67 00 65 00 00 00 52 00 65 00 61 00 6c 00 	A0g0e000R0e0a0l0
  0x5ecb0	54 00 69 00 6d 00 65 00 50 00 72 00 6f 00 74 00 	T0i0m0e0P0r0o0t0
  0x5ecc0	65 00 63 00 74 00 69 00 6f 00 6e 00 45 00 6e 00 	e0c0t0i0o0n0E0n0
  0x5ecd0	61 00 62 00 6c 00 65 00 64 00 00 00 00 00 00 00 	a0b0l0e0d0000000
  0x5ece0	41 00 6e 00 74 00 69 00 76 00 69 00 72 00 75 00 	A0n0t0i0v0i0r0u0
  0x5ecf0	73 00 45 00 6e 00 61 00 62 00 6c 00 65 00 64 00 	s0E0n0a0b0l0e0d0
  0x5ed00	00 00 00 00 00 00 00 00 41 00 6e 00 74 00 69 00 	00000000A0n0t0i0
  0x5ed10	73 00 70 00 79 00 77 00 61 00 72 00 65 00 45 00 	s0p0y0w0a0r0e0E0
  0x5ed20	6e 00 61 00 62 00 6c 00 65 00 64 00 00 00 00 00 	n0a0b0l0e0d00000
  0x5ed30	49 00 6e 00 74 00 65 00 6c 00 53 00 41 00 30 00 	I0n0t0e0l0S0A000
  0x5ed40	30 00 30 00 37 00 35 00 53 00 74 00 61 00 74 00 	00007050S0t0a0t0
  0x5ed50	65 00 00 00 00 00 00 00 46 00 69 00 72 00 6d 00 	e0000000F0i0r0m0
  0x5ed60	77 00 61 00 72 00 65 00 56 00 65 00 72 00 73 00 	w0a0r0e0V0e0r0s0
  0x5ed70	69 00 6f 00 6e 00 00 00 49 00 73 00 49 00 6e 00 	i0o0n000I0s0I0n0
  0x5ed80	74 00 65 00 6c 00 4d 00 45 00 43 00 6f 00 72 00 	t0e0l0M0E0C0o0r0
  0x5ed90	70 00 6f 00 72 00 61 00 74 00 65 00 53 00 4b 00 	p0o0r0a0t0e0S0K0
  0x5eda0	55 00 00 00 00 00 00 00 49 00 73 00 41 00 4d 00 	U0000000I0s0A0M0
  0x5edb0	54 00 50 00 72 00 6f 00 76 00 69 00 73 00 69 00 	T0P0r0o0v0i0s0i0
  0x5edc0	6f 00 6e 00 65 00 64 00 00 00 00 00 00 00 00 00 	o0n0e0d000000000
  0x5edd0	48 00 52 00 65 00 73 00 75 00 6c 00 74 00 00 00 	H0R0e0s0u0l0t000
  0x5ede0	57 00 69 00 6e 00 44 00 65 00 66 00 65 00 6e 00 	W0i0n0D0e0f0e0n0
  0x5edf0	64 00 00 00 00 00 00 00 4d 00 73 00 4d 00 70 00 	d0000000M0s0M0p0
  0x5ee00	53 00 76 00 63 00 00 00 53 00 65 00 72 00 76 00 	S0v0c000S0e0r0v0
  0x5ee10	69 00 63 00 65 00 45 00 72 00 72 00 6f 00 72 00 	i0c0e0E0r0r0o0r0
  0x5ee20	52 00 65 00 70 00 6f 00 72 00 74 00 00 00 00 00 	R0e0p0o0r0t00000
  0x5ee30	48 00 65 00 61 00 72 00 62 00 65 00 61 00 74 00 	H0e0a0r0b0e0a0t0
  0x5ee40	45 00 72 00 72 00 6f 00 72 00 52 00 65 00 70 00 	E0r0r0o0r0R0e0p0
  0x5ee50	6f 00 72 00 74 00 00 00 25 00 73 00 20 00 2d 00 	o0r0t000%0s0 0-0
  0x5ee60	20 00 46 00 61 00 69 00 6c 00 75 00 72 00 65 00 	 0F0a0i0l0u0r0e0
  0x5ee70	3d 00 25 00 73 00 0d 00 0a 00 00 00 00 00 00 00 	=0%0s00000000000
  0x5ee80	25 00 73 00 20 00 2d 00 20 00 45 00 72 00 72 00 	%0s0 0-0 0E0r0r0
  0x5ee90	6f 00 72 00 3d 00 20 00 20 00 25 00 73 00 0d 00 	o0r0=0 0 0%0s000
  0x5eea0	0a 00 00 00 00 00 00 00 53 00 2d 00 31 00 2d 00 	00000000S0-010-0
  0x5eeb0	35 00 2d 00 31 00 38 00 00 00 00 00 00 00 00 00 	50-0108000000000
  0x5eec0	43 00 6f 00 75 00 6c 00 64 00 6e 00 27 00 74 00 	C0o0u0l0d0n0'0t0
  0x5eed0	20 00 44 00 65 00 6c 00 65 00 74 00 65 00 20 00 	 0D0e0l0e0t0e0 0
  0x5eee0	48 00 65 00 61 00 72 00 74 00 62 00 65 00 61 00 	H0e0a0r0t0b0e0a0
  0x5eef0	74 00 20 00 45 00 72 00 72 00 6f 00 72 00 20 00 	t0 0E0r0r0o0r0 0
  0x5ef00	74 00 61 00 73 00 6b 00 3a 00 20 00 30 00 78 00 	t0a0s0k0:0 000x0
  0x5ef10	25 00 30 00 38 00 58 00 0d 00 0a 00 00 00 00 00 	%00080X000000000
  0x5ef20	46 00 61 00 69 00 6c 00 65 00 64 00 20 00 74 00 	F0a0i0l0e0d0 0t0
  0x5ef30	6f 00 20 00 63 00 6f 00 6c 00 6c 00 65 00 63 00 	o0 0c0o0l0l0e0c0
  0x5ef40	74 00 2f 00 73 00 65 00 6e 00 64 00 20 00 25 00 	t0/0s0e0n0d0 0%0
  0x5ef50	77 00 73 00 20 00 68 00 65 00 61 00 72 00 74 00 	w0s0 0h0e0a0r0t0
  0x5ef60	62 00 65 00 61 00 74 00 2e 00 20 00 48 00 52 00 	b0e0a0t0.0 0H0R0
  0x5ef70	20 00 3d 00 20 00 25 00 30 00 38 00 58 00 0d 00 	 0=0 0%00080X000
  0x5ef80	0a 00 00 00 00 00 00 00 45 00 72 00 72 00 6f 00 	00000000E0r0r0o0
  0x5ef90	72 00 53 00 74 00 61 00 63 00 6b 00 2c 00 50 00 	r0S0t0a0c0k0,0P0
  0x5efa0	72 00 65 00 76 00 69 00 6f 00 75 00 73 00 3d 00 	r0e0v0i0o0u0s0=0
  0x5efb0	25 00 73 00 2c 00 48 00 72 00 3d 00 25 00 73 00 	%0s0,0H0r0=0%0s0
  0x5efc0	00 00 00 00 00 00 00 00 45 00 72 00 72 00 6f 00 	00000000E0r0r0o0
  0x5efd0	72 00 53 00 74 00 61 00 63 00 6b 00 00 00 00 00 	r0S0t0a0c0k00000
  0x5efe0	45 00 48 00 42 00 44 00 65 00 6c 00 65 00 74 00 	E0H0B0D0e0l0e0t0
  0x5eff0	65 00 53 00 63 00 68 00 65 00 64 00 75 00 6c 00 	e0S0c0h0e0d0u0l0
  0x5f000	65 00 41 00 6e 00 64 00 43 00 6f 00 6e 00 74 00 	e0A0n0d0C0o0n0t0
  0x5f010	69 00 6e 00 75 00 65 00 00 00 00 00 00 00 00 00 	i0n0u0e000000000
  0x5f020	8a 45 97 5e 77 cf d3 11 b3 8f 00 10 5a 1f 47 3a 	0E0^w0000000Z0G:
  0x5f030	53 00 6f 00 66 00 74 00 77 00 61 00 72 00 65 00 	S0o0f0t0w0a0r0e0
  0x5f040	5c 00 4d 00 69 00 63 00 72 00 6f 00 73 00 6f 00 	00M0i0c0r0o0s0o0
  0x5f050	66 00 74 00 5c 00 52 00 65 00 6d 00 6f 00 76 00 	f0t000R0e0m0o0v0
  0x5f060	61 00 6c 00 54 00 6f 00 6f 00 6c 00 73 00 5c 00 	a0l0T0o0o0l0s000
  0x5f070	4d 00 52 00 54 00 00 00 4c 00 61 00 73 00 74 00 	M0R0T000L0a0s0t0
  0x5f080	53 00 65 00 72 00 76 00 69 00 63 00 65 00 52 00 	S0e0r0v0i0c0e0R0
  0x5f090	65 00 70 00 6f 00 72 00 74 00 54 00 69 00 6d 00 	e0p0o0r0t0T0i0m0
  0x5f0a0	65 00 00 00 00 00 00 00 4c 00 61 00 73 00 74 00 	e0000000L0a0s0t0
  0x5f0b0	50 00 61 00 69 00 64 00 48 00 65 00 61 00 72 00 	P0a0i0d0H0e0a0r0
  0x5f0c0	74 00 62 00 65 00 61 00 74 00 52 00 65 00 70 00 	t0b0e0a0t0R0e0p0
  0x5f0d0	6f 00 72 00 74 00 54 00 69 00 6d 00 65 00 00 00 	o0r0t0T0i0m0e000
  0x5f0e0	4c 00 61 00 73 00 74 00 48 00 65 00 61 00 72 00 	L0a0s0t0H0e0a0r0
  0x5f0f0	74 00 62 00 65 00 61 00 74 00 52 00 65 00 70 00 	t0b0e0a0t0R0e0p0
  0x5f100	6f 00 72 00 74 00 54 00 69 00 6d 00 65 00 00 00 	o0r0t0T0i0m0e000
  0x5f110	5c 00 4d 00 69 00 63 00 72 00 6f 00 73 00 6f 00 	00M0i0c0r0o0s0o0
  0x5f120	66 00 74 00 5c 00 57 00 69 00 6e 00 64 00 6f 00 	f0t000W0i0n0d0o0
  0x5f130	77 00 73 00 5c 00 52 00 65 00 6d 00 6f 00 76 00 	w0s000R0e0m0o0v0
  0x5f140	61 00 6c 00 54 00 6f 00 6f 00 6c 00 73 00 00 00 	a0l0T0o0o0l0s000
  0x5f150	48 00 65 00 61 00 72 00 74 00 62 00 65 00 61 00 	H0e0a0r0t0b0e0a0
  0x5f160	74 00 20 00 53 00 65 00 6e 00 64 00 20 00 46 00 	t0 0S0e0n0d0 0F0
  0x5f170	61 00 69 00 6c 00 75 00 72 00 65 00 00 00 00 00 	a0i0l0u0r0e00000
  0x5f180	53 00 65 00 72 00 76 00 69 00 63 00 65 00 20 00 	S0e0r0v0i0c0e0 0
  0x5f190	53 00 74 00 61 00 72 00 74 00 20 00 46 00 61 00 	S0t0a0r0t0 0F0a0
  0x5f1a0	69 00 6c 00 75 00 72 00 65 00 00 00 00 00 00 00 	i0l0u0r0e0000000
  0x5f1b0	4d 00 52 00 54 00 5f 00 45 00 52 00 52 00 4f 00 	M0R0T0_0E0R0R0O0
  0x5f1c0	52 00 5f 00 48 00 42 00 00 00 00 00 00 00 00 00 	R0_0H0B000000000
  0x5f1d0	4d 00 52 00 54 00 5f 00 48 00 42 00 00 00 00 00 	M0R0T0_0H0B00000
  0x5f1e0	f4 5c 3e 59 53 ba 74 33 ce f8 c7 b4 f0 18 83 1a 	00>YS0t300000000
  0x5f1f0	4e 55 4c 4c 00 00 00 00 43 00 6c 00 65 00 61 00 	NULL0000C0l0e0a0
  0x5f200	6e 00 00 00 00 00 00 00 51 00 75 00 61 00 72 00 	n0000000Q0u0a0r0
  0x5f210	61 00 6e 00 74 00 69 00 6e 00 65 00 00 00 00 00 	a0n0t0i0n0e00000
  0x5f220	52 00 65 00 6d 00 6f 00 76 00 65 00 00 00 00 00 	R0e0m0o0v0e00000
  0x5f230	49 00 67 00 6e 00 6f 00 72 00 65 00 00 00 00 00 	I0g0n0o0r0e00000
  0x5f240	52 00 65 00 76 00 65 00 72 00 74 00 00 00 00 00 	R0e0v0e0r0t00000
  0x5f250	55 00 73 00 65 00 72 00 44 00 65 00 66 00 69 00 	U0s0e0r0D0e0f0i0
  0x5f260	6e 00 65 00 64 00 00 00 44 00 65 00 66 00 61 00 	n0e0d000D0e0f0a0
  0x5f270	75 00 6c 00 74 00 41 00 63 00 74 00 69 00 6f 00 	u0l0t0A0c0t0i0o0
  0x5f280	6e 00 00 00 00 00 00 00 55 00 6e 00 6b 00 6e 00 	n0000000U0n0k0n0
  0x5f290	6f 00 77 00 6e 00 00 00 6d 00 70 00 67 00 65 00 	o0w0n000m0p0g0e0
  0x5f2a0	61 00 72 00 2e 00 64 00 6c 00 6c 00 00 00 00 00 	a0r0.0d0l0l00000
  0x5f2b0	4d 70 47 65 61 72 43 72 65 61 74 65 4d 61 6e 61 	MpGearCreateMana
  0x5f2c0	67 65 72 00 00 00 00 00 4d 70 47 65 61 72 53 65 	ger00000MpGearSe
  0x5f2d0	74 45 6e 67 69 6e 65 00 4d 70 47 65 61 72 53 65 	tEngine0MpGearSe
  0x5f2e0	74 45 6e 67 69 6e 65 57 69 74 68 52 65 73 6f 75 	tEngineWithResou
  0x5f2f0	72 63 65 53 69 67 73 00 4d 70 47 65 61 72 43 6c 	rceSigs0MpGearCl
  0x5f300	6f 73 65 48 61 6e 64 6c 65 00 00 00 00 00 00 00 	oseHandle0000000
  0x5f310	4d 70 47 65 61 72 46 72 65 65 44 61 74 61 00 00 	MpGearFreeData00
  0x5f320	4d 70 47 65 61 72 47 65 74 4d 61 6e 61 67 65 72 	MpGearGetManager
  0x5f330	49 6e 66 6f 00 00 00 00 4d 70 47 65 61 72 52 65 	Info0000MpGearRe
  0x5f340	62 6f 6f 74 41 63 74 69 6f 6e 73 00 00 00 00 00 	bootActions00000
  0x5f350	4d 70 47 65 61 72 44 79 6e 61 6d 69 63 43 6f 6e 	MpGearDynamicCon
  0x5f360	66 69 67 41 64 64 42 6f 6f 6c 00 00 00 00 00 00 	figAddBool000000
  0x5f370	4d 70 47 65 61 72 44 79 6e 61 6d 69 63 43 6f 6e 	MpGearDynamicCon
  0x5f380	66 69 67 53 65 6e 64 00 4d 70 47 65 61 72 53 63 	figSend0MpGearSc
  0x5f390	61 6e 4f 70 65 6e 00 00 4d 70 47 65 61 72 53 63 	anOpen00MpGearSc
  0x5f3a0	61 6e 53 65 74 4f 70 74 69 6f 6e 45 78 00 00 00 	anSetOptionEx000
  0x5f3b0	4d 70 47 65 61 72 53 63 61 6e 51 75 69 63 6b 00 	MpGearScanQuick0
  0x5f3c0	4d 70 47 65 61 72 53 63 61 6e 46 75 6c 6c 00 00 	MpGearScanFull00
  0x5f3d0	4d 70 47 65 61 72 53 63 61 6e 50 61 74 68 00 00 	MpGearScanPath00
  0x5f3e0	4d 70 47 65 61 72 53 63 61 6e 43 6f 6e 74 72 6f 	MpGearScanContro
  0x5f3f0	6c 00 00 00 00 00 00 00 4d 70 47 65 61 72 53 63 	l0000000MpGearSc
  0x5f400	61 6e 4f 70 65 6e 54 68 72 65 61 74 45 6e 75 6d 	anOpenThreatEnum
  0x5f410	65 72 61 74 6f 72 00 00 4d 70 47 65 61 72 53 63 	erator00MpGearSc
  0x5f420	61 6e 47 65 74 4e 65 78 74 54 68 72 65 61 74 00 	anGetNextThreat0
  0x5f430	4d 70 47 65 61 72 53 63 61 6e 53 65 74 54 68 72 	MpGearScanSetThr
  0x5f440	65 61 74 41 63 74 69 6f 6e 00 00 00 00 00 00 00 	eatAction0000000
  0x5f450	4d 70 47 65 61 72 53 63 61 6e 53 65 74 44 65 66 	MpGearScanSetDef
  0x5f460	61 75 6c 74 54 68 72 65 61 74 41 63 74 69 6f 6e 	aultThreatAction
  0x5f470	73 00 00 00 00 00 00 00 4d 70 47 65 61 72 53 63 	s0000000MpGearSc
  0x5f480	61 6e 54 61 6b 65 41 63 74 69 6f 6e 73 00 00 00 	anTakeActions000
  0x5f490	4d 70 47 65 61 72 53 63 61 6e 4f 70 65 6e 41 63 	MpGearScanOpenAc
  0x5f4a0	74 69 6f 6e 52 65 73 75 6c 74 73 45 6e 75 6d 65 	tionResultsEnume
  0x5f4b0	72 61 74 6f 72 00 00 00 4d 70 47 65 61 72 53 63 	rator000MpGearSc
  0x5f4c0	61 6e 47 65 74 4e 65 78 74 41 63 74 69 6f 6e 52 	anGetNextActionR
  0x5f4d0	65 73 75 6c 74 00 00 00 4d 70 47 65 61 72 53 63 	esult000MpGearSc
  0x5f4e0	61 6e 47 65 74 53 74 61 74 69 73 74 69 63 73 00 	anGetStatistics0
  0x5f4f0	4d 70 47 65 61 72 53 63 61 6e 53 75 62 6d 69 74 	MpGearScanSubmit
  0x5f500	52 65 70 6f 72 74 44 61 74 61 00 00 00 00 00 00 	ReportData000000
  0x5f510	4d 70 47 65 61 72 47 65 74 56 69 72 75 73 4e 61 	MpGearGetVirusNa
  0x5f520	6d 65 73 00 00 00 00 00 4d 70 47 65 61 72 47 65 	mes00000MpGearGe
  0x5f530	74 53 69 67 44 61 74 61 44 57 4f 52 44 00 00 00 	tSigDataDWORD000
  0x5f540	4d 70 47 65 61 72 53 75 62 6d 69 74 48 65 61 72 	MpGearSubmitHear
  0x5f550	74 62 65 61 74 52 65 70 6f 72 74 44 61 74 61 00 	tbeatReportData0
  0x5f560	62 6f 6e 64 00 00 00 00 78 6d 6c 00 00 00 00 00 	bond0000xml00000
  0x5f570	25 00 73 00 2f 00 25 00 73 00 00 00 2f 00 00 00 	%0s0/0%0s000/000
  0x5f580	6d 61 70 2f 73 65 74 20 74 6f 6f 20 6c 6f 6e 67 	map/set too long
  0x5f590	00 00 00 00 00 00 00 00 75 29 37 e8 c6 44 19 3c 	00000000u)700D0<
  0x5f5a0	6e e4 d7 6a 88 87 2f 0e 25 00 6c 00 64 00 00 00 	n00j00/0%0l0d000
  0x5f5b0	30 00 78 00 25 00 30 00 38 00 6c 00 78 00 00 00 	00x0%00080l0x000
  0x5f5c0	2d 00 31 00 00 00 00 00 30 00 78 00 46 00 46 00 	-010000000x0F0F0
  0x5f5d0	46 00 46 00 46 00 46 00 46 00 46 00 00 00 00 00 	F0F0F0F0F0F00000
  0x5f5e0	55 00 4e 00 4b 00 4e 00 4f 00 57 00 4e 00 00 00 	U0N0K0N0O0W0N000
  0x5f5f0	3d 00 00 00 3b 00 00 00 44 00 65 00 66 00 65 00 	=000;000D0e0f0e0
  0x5f600	6e 00 64 00 65 00 72 00 20 00 44 00 65 00 74 00 	n0d0e0r0 0D0e0t0
  0x5f610	61 00 69 00 6c 00 73 00 00 00 00 00 00 00 00 00 	a0i0l0s000000000
  0x5f620	49 00 6e 00 74 00 65 00 6c 00 20 00 41 00 4d 00 	I0n0t0e0l0 0A0M0
  0x5f630	54 00 20 00 53 00 75 00 72 00 76 00 65 00 79 00 	T0 0S0u0r0v0e0y0
  0x5f640	00 00 00 00 00 00 00 00 26 00 61 00 6d 00 70 00 	00000000&0a0m0p0
  0x5f650	3b 00 23 00 78 00 25 00 30 00 32 00 58 00 3b 00 	;0#0x0%00020X0;0
  0x5f660	00 00 00 00 00 00 00 00 26 00 6c 00 74 00 3b 00 	00000000&0l0t0;0
  0x5f670	00 00 00 00 00 00 00 00 26 00 67 00 74 00 3b 00 	00000000&0g0t0;0
  0x5f680	00 00 00 00 00 00 00 00 26 00 61 00 6d 00 70 00 	00000000&0a0m0p0
  0x5f690	3b 00 00 00 00 00 00 00 26 00 71 00 75 00 6f 00 	;0000000&0q0u0o0
  0x5f6a0	74 00 3b 00 00 00 00 00 26 00 23 00 33 00 39 00 	t0;00000&0#03090
  0x5f6b0	3b 00 00 00 00 00 00 00 75 6e 6f 72 64 65 72 65 	;0000000unordere
  0x5f6c0	64 5f 6d 61 70 2f 73 65 74 20 74 6f 6f 20 6c 6f 	d_map/set too lo
  0x5f6d0	6e 67 00 00 00 00 00 00 69 6e 76 61 6c 69 64 20 	ng000000invalid 
  0x5f6e0	68 61 73 68 20 62 75 63 6b 65 74 20 63 6f 75 6e 	hash bucket coun
  0x5f6f0	74 00 00 00 00 00 00 00 ff a3 c7 dc 71 63 54 32 	t00000000000qcT2
  0x5f700	da d9 2b 17 3f 6c cd d7 52 75 6e 20 53 74 61 72 	00+0?l00Run Star
  0x5f710	74 65 64 00 00 00 00 00 58 26 f4 8c 32 46 65 38 	ted00000X&002Fe8
  0x5f720	ed b1 cb e4 7d 33 f8 e2 01 01 00 00 11 00 00 04 	0000}30000000000
  0x5f730	00 00 00 00 00 00 00 00 62 61 64 20 61 6c 6c 6f 	00000000bad allo
  0x5f740	63 61 74 69 6f 6e 00 00 62 61 64 20 66 75 6e 63 	cation00bad func
  0x5f750	74 69 6f 6e 20 63 61 6c 6c 00 00 00 00 00 00 00 	tion call0000000
  0x5f760	34 00 37 00 34 00 61 00 2d 00 38 00 37 00 61 00 	407040a0-08070a0
  0x5f770	64 00 2d 00 32 00 66 00 39 00 61 00 38 00 37 00 	d0-020f090a08070
  0x5f780	36 00 31 00 35 00 66 00 61 00 33 00 2d 00 64 00 	601050f0a030-0d0
  0x5f790	63 00 31 00 2d 00 74 00 69 00 70 00 2e 00 63 00 	c010-0t0i0p0.0c0
  0x5f7a0	6c 00 6f 00 75 00 64 00 61 00 70 00 70 00 2e 00 	l0o0u0d0a0p0p0.0
  0x5f7b0	6e 00 65 00 74 00 00 00 4d 00 42 00 49 00 5f 00 	n0e0t000M0B0I0_0
  0x5f7c0	53 00 53 00 4c 00 00 00 63 00 6f 00 6d 00 62 00 	S0S0L000c0o0m0b0
  0x5f7d0	61 00 73 00 65 00 2e 00 64 00 6c 00 6c 00 00 00 	a0s0e0.0d0l0l000
  0x5f7e0	52 6f 49 6e 69 74 69 61 6c 69 7a 65 00 00 00 00 	RoInitialize0000
  0x5f7f0	52 6f 55 6e 69 6e 69 74 69 61 6c 69 7a 65 00 00 	RoUninitialize00
  0x5f800	52 6f 41 63 74 69 76 61 74 65 49 6e 73 74 61 6e 	RoActivateInstan
  0x5f810	63 65 00 00 00 00 00 00 52 6f 47 65 74 41 63 74 	ce000000RoGetAct
  0x5f820	69 76 61 74 69 6f 6e 46 61 63 74 6f 72 79 00 00 	ivationFactory00
  0x5f830	52 6f 4f 72 69 67 69 6e 61 74 65 45 72 72 6f 72 	RoOriginateError
  0x5f840	00 00 00 00 00 00 00 00 57 69 6e 64 6f 77 73 43 	00000000WindowsC
  0x5f850	72 65 61 74 65 53 74 72 69 6e 67 00 00 00 00 00 	reateString00000
  0x5f860	57 69 6e 64 6f 77 73 43 72 65 61 74 65 53 74 72 	WindowsCreateStr
  0x5f870	69 6e 67 52 65 66 65 72 65 6e 63 65 00 00 00 00 	ingReference0000
  0x5f880	57 69 6e 64 6f 77 73 44 65 6c 65 74 65 53 74 72 	WindowsDeleteStr
  0x5f890	69 6e 67 00 00 00 00 00 57 69 6e 64 6f 77 73 47 	ing00000WindowsG
  0x5f8a0	65 74 53 74 72 69 6e 67 52 61 77 42 75 66 66 65 	etStringRawBuffe
  0x5f8b0	72 00 00 00 00 00 00 00 77 00 74 00 73 00 61 00 	r0000000w0t0s0a0
  0x5f8c0	70 00 69 00 33 00 32 00 2e 00 64 00 6c 00 6c 00 	p0i03020.0d0l0l0
  0x5f8d0	00 00 00 00 00 00 00 00 73 00 61 00 6d 00 63 00 	00000000s0a0m0c0
  0x5f8e0	6c 00 69 00 2e 00 64 00 6c 00 6c 00 00 00 00 00 	l0i0.0d0l0l00000
  0x5f8f0	6e 00 65 00 74 00 75 00 74 00 69 00 6c 00 73 00 	n0e0t0u0t0i0l0s0
  0x5f900	2e 00 64 00 6c 00 6c 00 00 00 00 00 00 00 00 00 	.0d0l0l000000000
  0x5f910	57 54 53 45 6e 75 6d 65 72 61 74 65 53 65 73 73 	WTSEnumerateSess
  0x5f920	69 6f 6e 73 45 78 57 00 57 54 53 46 72 65 65 4d 	ionsExW0WTSFreeM
  0x5f930	65 6d 6f 72 79 45 78 57 00 00 00 00 00 00 00 00 	emoryExW00000000
  0x5f940	57 54 53 51 75 65 72 79 55 73 65 72 54 6f 6b 65 	WTSQueryUserToke
  0x5f950	6e 00 00 00 00 00 00 00 4e 65 74 55 73 65 72 47 	n0000000NetUserG
  0x5f960	65 74 49 6e 66 6f 00 00 4e 65 74 41 70 69 42 75 	etInfo00NetApiBu
  0x5f970	66 66 65 72 46 72 65 65 00 00 00 00 00 00 00 00 	fferFree00000000
  0x5f980	22 00 25 00 73 00 22 00 20 00 25 00 73 00 00 00 	"0%0s0"0 0%0s000
  0x5f990	44 00 3a 00 28 00 41 00 3b 00 4f 00 49 00 43 00 	D0:0(0A0;0O0I0C0
  0x5f9a0	49 00 3b 00 47 00 41 00 3b 00 3b 00 3b 00 25 00 	I0;0G0A0;0;0;0%0
  0x5f9b0	73 00 29 00 00 00 00 00 25 00 73 00 45 00 76 00 	s0)00000%0s0E0v0
  0x5f9c0	30 00 00 00 00 00 00 00 25 00 73 00 45 00 76 00 	00000000%0s0E0v0
  0x5f9d0	31 00 00 00 00 00 00 00 47 00 6c 00 6f 00 62 00 	10000000G0l0o0b0
  0x5f9e0	61 00 6c 00 5c 00 00 00 25 00 73 00 53 00 4d 00 	a0l00000%0s0S0M0
  0x5f9f0	30 00 00 00 00 00 00 00 2f 00 44 00 65 00 76 00 	00000000/0D0e0v0
  0x5fa00	69 00 63 00 65 00 49 00 44 00 20 00 2f 00 4d 00 	i0c0e0I0D0 0/0M0
  0x5fa10	53 00 41 00 20 00 25 00 73 00 00 00 00 00 00 00 	S0A0 0%0s0000000
  0x5fa20	25 00 73 00 53 00 4d 00 31 00 00 00 00 00 00 00 	%0s0S0M010000000
  0x5fa30	25 00 73 00 53 00 4d 00 25 00 7a 00 75 00 00 00 	%0s0S0M0%0z0u000
  0x5fa40	f4 fd ae e6 a5 49 d9 3f 92 44 28 51 8e fb e4 81 	00000I0?0D(Q0000
  0x5fa50	fd 76 ed cd 41 78 a0 52 a7 71 76 cd 75 1d 13 cd 	0v00Ax0R0qv0u000
  0x5fa60	57 00 69 00 6e 00 64 00 6f 00 77 00 73 00 2e 00 	W0i0n0d0o0w0s0.0
  0x5fa70	53 00 65 00 63 00 75 00 72 00 69 00 74 00 79 00 	S0e0c0u0r0i0t0y0
  0x5fa80	2e 00 41 00 75 00 74 00 68 00 65 00 6e 00 74 00 	.0A0u0t0h0e0n0t0
  0x5fa90	69 00 63 00 61 00 74 00 69 00 6f 00 6e 00 2e 00 	i0c0a0t0i0o0n0.0
  0x5faa0	4f 00 6e 00 6c 00 69 00 6e 00 65 00 49 00 64 00 	O0n0l0i0n0e0I0d0
  0x5fab0	2e 00 4f 00 6e 00 6c 00 69 00 6e 00 65 00 49 00 	.0O0n0l0i0n0e0I0
  0x5fac0	64 00 53 00 65 00 72 00 76 00 69 00 63 00 65 00 	d0S0e0r0v0i0c0e0
  0x5fad0	54 00 69 00 63 00 6b 00 65 00 74 00 52 00 65 00 	T0i0c0k0e0t0R0e0
  0x5fae0	71 00 75 00 65 00 73 00 74 00 00 00 00 00 00 00 	q0u0e0s0t0000000
  0x5faf0	00 00 00 00 00 00 00 00 c0 00 00 00 00 00 00 46 	000000000000000F
  0x5fb00	37 00 00 00 00 00 00 00 c0 00 00 00 00 00 00 46 	700000000000000F
  0x5fb10	36 00 00 00 00 00 00 00 c0 00 00 00 00 00 00 46 	600000000000000F
  0x5fb20	57 00 69 00 6e 00 64 00 6f 00 77 00 73 00 2e 00 	W0i0n0d0o0w0s0.0
  0x5fb30	53 00 65 00 63 00 75 00 72 00 69 00 74 00 79 00 	S0e0c0u0r0i0t0y0
  0x5fb40	2e 00 41 00 75 00 74 00 68 00 65 00 6e 00 74 00 	.0A0u0t0h0e0n0t0
  0x5fb50	69 00 63 00 61 00 74 00 69 00 6f 00 6e 00 2e 00 	i0c0a0t0i0o0n0.0
  0x5fb60	4f 00 6e 00 6c 00 69 00 6e 00 65 00 49 00 64 00 	O0n0l0i0n0e0I0d0
  0x5fb70	2e 00 4f 00 6e 00 6c 00 69 00 6e 00 65 00 49 00 	.0O0n0l0i0n0e0I0
  0x5fb80	64 00 41 00 75 00 74 00 68 00 65 00 6e 00 74 00 	d0A0u0t0h0e0n0t0
  0x5fb90	69 00 63 00 61 00 74 00 6f 00 72 00 00 00 00 00 	i0c0a0t0o0r00000
  0x5fba0	08 0a bb be 73 9e 77 40 96 14 08 61 4c 0b c2 45 	0000s0w@000aL00E
  0x5fbb0	e0 e2 86 af 2d b1 6a 4c 9c 5a d7 aa 65 10 1e 90 	0000-0jL0Z00e000
  0x5fbc0	86 d6 72 cb 16 95 0d 52 a2 74 fa 4c d1 76 2c b2 	00r0000R0t0L0v,0
  0x5fbd0	38 00 00 00 00 00 00 00 c0 00 00 00 00 00 00 46 	800000000000000F
  0x5fbe0	e4 c8 a5 b6 3c 6e 37 5c 92 cf cf 9f 1c 38 33 35 	0000<n7000000835
  0x5fbf0	6b 00 65 00 72 00 6e 00 65 00 6c 00 33 00 32 00 	k0e0r0n0e0l03020
  0x5fc00	2e 00 64 00 6c 00 6c 00 00 00 00 00 00 00 00 00 	.0d0l0l000000000
  0x5fc10	72 00 75 00 6e 00 61 00 73 00 00 00 00 00 00 00 	r0u0n0a0s0000000
  0x5fc20	25 00 2e 00 2a 00 73 00 00 00 00 00 00 00 00 00 	%0.0*0s000000000
  0x5fc30	6f 00 70 00 65 00 6e 00 00 00 00 00 00 00 00 00 	o0p0e0n000000000
  0x5fc40	53 00 65 00 53 00 68 00 75 00 74 00 64 00 6f 00 	S0e0S0h0u0t0d0o0
  0x5fc50	77 00 6e 00 50 00 72 00 69 00 76 00 69 00 6c 00 	w0n0P0r0i0v0i0l0
  0x5fc60	65 00 67 00 65 00 00 00 22 00 25 00 77 00 73 00 	e0g0e000"0%0w0s0
  0x5fc70	22 00 20 00 25 00 77 00 73 00 00 00 00 00 00 00 	"0 0%0w0s0000000
  0x5fc80	53 00 6f 00 66 00 74 00 77 00 61 00 72 00 65 00 	S0o0f0t0w0a0r0e0
  0x5fc90	5c 00 4d 00 69 00 63 00 72 00 6f 00 73 00 6f 00 	00M0i0c0r0o0s0o0
  0x5fca0	66 00 74 00 5c 00 57 00 69 00 6e 00 64 00 6f 00 	f0t000W0i0n0d0o0
  0x5fcb0	77 00 73 00 5c 00 43 00 75 00 72 00 72 00 65 00 	w0s000C0u0r0r0e0
  0x5fcc0	6e 00 74 00 56 00 65 00 72 00 73 00 69 00 6f 00 	n0t0V0e0r0s0i0o0
  0x5fcd0	6e 00 5c 00 52 00 75 00 6e 00 4f 00 6e 00 63 00 	n000R0u0n0O0n0c0
  0x5fce0	65 00 00 00 00 00 00 00 00 00 00 00 00 00 00 00 	e000000000000000
  0x5fcf0	53 00 6f 00 66 00 74 00 77 00 61 00 72 00 65 00 	S0o0f0t0w0a0r0e0
  0x5fd00	5c 00 4d 00 69 00 63 00 72 00 6f 00 73 00 6f 00 	00M0i0c0r0o0s0o0
  0x5fd10	66 00 74 00 5c 00 57 00 69 00 6e 00 64 00 6f 00 	f0t000W0i0n0d0o0
  0x5fd20	77 00 73 00 5c 00 43 00 75 00 72 00 72 00 65 00 	w0s000C0u0r0r0e0
  0x5fd30	6e 00 74 00 56 00 65 00 72 00 73 00 69 00 6f 00 	n0t0V0e0r0s0i0o0
  0x5fd40	6e 00 5c 00 52 00 75 00 6e 00 00 00 00 00 00 00 	n000R0u0n0000000
  0x5fd50	9a 7d 8d c0 46 48 9f 3d ab 3d 02 6c 76 1b a9 00 	0}00FH0=0=0lv000
  0x5fd60	e6 a7 2e 92 b1 c2 6b 3c aa ea 93 03 09 6c 80 c5 	00.000k<00000l00
  0x5fd70	42 00 49 00 4e 00 41 00 52 00 59 00 00 00 00 00 	B0I0N0A0R0Y00000
  0x5fd80	26 00 70 00 72 00 6f 00 64 00 75 00 63 00 74 00 	&0p0r0o0d0u0c0t0
  0x5fd90	3d 00 31 00 33 00 00 00 25 00 73 00 25 00 73 00 	=0103000%0s0%0s0
  0x5fda0	25 00 73 00 00 00 00 00 4d 00 69 00 63 00 72 00 	%0s00000M0i0c0r0
  0x5fdb0	6f 00 73 00 6f 00 66 00 74 00 00 00 00 00 00 00 	o0s0o0f0t0000000
  0x5fdc0	50 00 54 00 25 00 7a 00 75 00 25 00 63 00 00 00 	P0T0%0z0u0%0c000
  0x5fdd0	4c 00 6f 00 63 00 61 00 6c 00 53 00 79 00 73 00 	L0o0c0a0l0S0y0s0
  0x5fde0	74 00 65 00 6d 00 00 00 4e 00 54 00 20 00 41 00 	t0e0m000N0T0 0A0
  0x5fdf0	55 00 54 00 48 00 4f 00 52 00 49 00 54 00 59 00 	U0T0H0O0R0I0T0Y0
  0x5fe00	5c 00 53 00 59 00 53 00 54 00 45 00 4d 00 00 00 	00S0Y0S0T0E0M000
  0x5fe10	52 00 75 00 6e 00 41 00 73 00 53 00 74 00 64 00 	R0u0n0A0s0S0t0d0
  0x5fe20	55 00 73 00 65 00 72 00 5f 00 50 00 72 00 69 00 	U0s0e0r0_0P0r0i0
  0x5fe30	6e 00 63 00 69 00 70 00 61 00 6c 00 00 00 00 00 	n0c0i0p0a0l00000
  0x5fe40	5c 00 00 00 00 00 00 00 c7 a4 ab 2f a9 4d 13 40 	00000000000/0M0@
  0x5fe50	96 97 20 cc 3f d4 0f 85 57 54 48 65 6c 70 65 72 	00 0?000WTHelper
  0x5fe60	50 72 6f 76 44 61 74 61 46 72 6f 6d 53 74 61 74 	ProvDataFromStat
  0x5fe70	65 44 61 74 61 00 00 00 57 54 48 65 6c 70 65 72 	eData000WTHelper
  0x5fe80	47 65 74 50 72 6f 76 53 69 67 6e 65 72 46 72 6f 	GetProvSignerFro
  0x5fe90	6d 43 68 61 69 6e 00 00 31 2e 32 2e 38 34 30 2e 	mChain001.2.840.
  0x5fea0	31 31 33 35 34 39 2e 31 2e 39 2e 35 00 00 00 00 	113549.1.9.50000
  0x5feb0	31 2e 32 2e 38 34 30 2e 31 31 33 35 34 39 2e 31 	1.2.840.113549.1
  0x5fec0	2e 39 2e 36 00 00 00 00 81 82 04 cf 37 e4 78 32 	.9.60000000070x2
  0x5fed0	15 df 6c e8 52 3b 3f c2 08 00 b0 dc 0f 57 9b 4a 	00l0R;?000000W0J
  0x5fee0	8d 69 19 9f db a5 72 3b 9f bb 0e 61 ea 09 8b 30 	0i0000r;000a0000
  0x5fef0	72 2a e1 30 e9 91 92 70 53 00 79 00 73 00 74 00 	r*00000pS0y0s0t0
  0x5ff00	65 00 6d 00 55 00 70 00 54 00 69 00 6d 00 65 00 	e0m0U0p0T0i0m0e0
  0x5ff10	00 00 00 00 00 00 00 00 5c 00 5c 00 2e 00 5c 00 	000000000000.000
  0x5ff20	72 00 6f 00 6f 00 74 00 5c 00 63 00 69 00 6d 00 	r0o0o0t000c0i0m0
  0x5ff30	76 00 32 00 00 00 00 00 00 00 00 00 00 00 00 00 	v020000000000000
  0x5ff40	57 00 69 00 6e 00 33 00 32 00 5f 00 50 00 65 00 	W0i0n03020_0P0e0
  0x5ff50	72 00 66 00 46 00 6f 00 72 00 6d 00 61 00 74 00 	r0f0F0o0r0m0a0t0
  0x5ff60	74 00 65 00 64 00 44 00 61 00 74 00 61 00 5f 00 	t0e0d0D0a0t0a0_0
  0x5ff70	50 00 65 00 72 00 66 00 4f 00 53 00 5f 00 53 00 	P0e0r0f0O0S0_0S0
  0x5ff80	79 00 73 00 74 00 65 00 6d 00 00 00 00 00 00 00 	y0s0t0e0m0000000
  0x5ff90	53 00 6f 00 66 00 74 00 77 00 61 00 72 00 65 00 	S0o0f0t0w0a0r0e0
  0x5ffa0	5c 00 4d 00 69 00 63 00 72 00 6f 00 73 00 6f 00 	00M0i0c0r0o0s0o0
  0x5ffb0	66 00 74 00 5c 00 57 00 69 00 6e 00 64 00 6f 00 	f0t000W0i0n0d0o0
  0x5ffc0	77 00 73 00 20 00 44 00 65 00 66 00 65 00 6e 00 	w0s0 0D0e0f0e0n0
  0x5ffd0	64 00 65 00 72 00 5c 00 46 00 65 00 61 00 74 00 	d0e0r000F0e0a0t0
  0x5ffe0	75 00 72 00 65 00 73 00 00 00 00 00 00 00 00 00 	u0r0e0s000000000
  0x5fff0	53 00 65 00 6e 00 73 00 65 00 45 00 6e 00 61 00 	S0e0n0s0e0E0n0a0
  0x60000	62 00 6c 00 65 00 64 00 00 00 00 00 00 00 00 00 	b0l0e0d000000000
  0x60010	53 00 6f 00 66 00 74 00 77 00 61 00 72 00 65 00 	S0o0f0t0w0a0r0e0
  0x60020	5c 00 4d 00 69 00 63 00 72 00 6f 00 73 00 6f 00 	00M0i0c0r0o0s0o0
  0x60030	66 00 74 00 5c 00 57 00 69 00 6e 00 64 00 6f 00 	f0t000W0i0n0d0o0
  0x60040	77 00 73 00 20 00 44 00 65 00 66 00 65 00 6e 00 	w0s0 0D0e0f0e0n0
  0x60050	64 00 65 00 72 00 5c 00 4d 00 70 00 45 00 6e 00 	d0e0r000M0p0E0n0
  0x60060	67 00 69 00 6e 00 65 00 00 00 00 00 00 00 00 00 	g0i0n0e000000000
  0x60070	4d 00 70 00 45 00 6e 00 67 00 69 00 6e 00 65 00 	M0p0E0n0g0i0n0e0
  0x60080	52 00 69 00 6e 00 67 00 00 00 00 00 00 00 00 00 	R0i0n0g000000000
  0x60090	4d 00 70 00 43 00 61 00 6d 00 70 00 52 00 69 00 	M0p0C0a0m0p0R0i0
  0x600a0	6e 00 67 00 00 00 00 00 4d 00 70 00 53 00 69 00 	n0g00000M0p0S0i0
  0x600b0	67 00 6e 00 61 00 74 00 75 00 72 00 65 00 52 00 	g0n0a0t0u0r0e0R0
  0x600c0	69 00 6e 00 67 00 00 00 00 00 00 00 00 00 00 00 	i0n0g00000000000
  0x600d0	53 00 6f 00 66 00 74 00 77 00 61 00 72 00 65 00 	S0o0f0t0w0a0r0e0
  0x600e0	5c 00 4d 00 69 00 63 00 72 00 6f 00 73 00 6f 00 	00M0i0c0r0o0s0o0
  0x600f0	66 00 74 00 5c 00 4d 00 69 00 63 00 72 00 6f 00 	f0t000M0i0c0r0o0
  0x60100	73 00 6f 00 66 00 74 00 20 00 41 00 6e 00 74 00 	s0o0f0t0 0A0n0t0
  0x60110	69 00 6d 00 61 00 6c 00 77 00 61 00 72 00 65 00 	i0m0a0l0w0a0r0e0
  0x60120	5c 00 4d 00 70 00 45 00 6e 00 67 00 69 00 6e 00 	00M0p0E0n0g0i0n0
  0x60130	65 00 00 00 00 00 00 00 61 00 64 00 76 00 61 00 	e0000000a0d0v0a0
  0x60140	70 00 69 00 33 00 32 00 2e 00 64 00 6c 00 6c 00 	p0i03020.0d0l0l0
  0x60150	00 00 00 00 00 00 00 00 45 76 65 6e 74 53 65 74 	00000000EventSet
  0x60160	49 6e 66 6f 72 6d 61 74 69 6f 6e 00 00 00 00 00 	Information00000
  0x60170	25 00 6c 00 73 00 25 00 30 00 38 00 6c 00 58 00 	%0l0s0%00080l0X0
  0x60180	2d 00 25 00 30 00 34 00 58 00 2d 00 25 00 30 00 	-0%00040X0-0%000
  0x60190	34 00 58 00 2d 00 25 00 30 00 32 00 58 00 25 00 	40X0-0%00020X0%0
  0x601a0	30 00 32 00 58 00 2d 00 25 00 30 00 32 00 58 00 	0020X0-0%00020X0
  0x601b0	25 00 30 00 32 00 58 00 25 00 30 00 32 00 58 00 	%00020X0%00020X0
  0x601c0	25 00 30 00 32 00 58 00 25 00 30 00 32 00 58 00 	%00020X0%00020X0
  0x601d0	25 00 30 00 32 00 58 00 25 00 6c 00 73 00 00 00 	%00020X0%0l0s000
  0x601e0	25 00 6c 00 73 00 25 00 6c 00 73 00 2a 00 00 00 	%0l0s0%0l0s0*000
  0x601f0	25 00 6c 00 73 00 25 00 6c 00 73 00 25 00 6c 00 	%0l0s0%0l0s0%0l0
  0x60200	73 00 00 00 2a 00 00 00 55 4f d9 8f ae 43 c7 3f 	s000*000UO000C0?
  0x60210	b4 e0 01 55 83 ff 6c c9 47 65 74 54 65 6d 70 50 	000U00l0GetTempP
  0x60220	61 74 68 32 57 00 00 00 6b 00 65 00 72 00 6e 00 	ath2W000k0e0r0n0
  0x60230	65 00 6c 00 62 00 61 00 73 00 65 00 2e 00 64 00 	e0l0b0a0s0e0.0d0
  0x60240	6c 00 6c 00 00 00 00 00 25 00 6c 00 73 00 5c 00 	l0l00000%0l0s000
  0x60250	25 00 6c 00 73 00 00 00 25 00 6c 00 73 00 5c 00 	%0l0s000%0l0s000
  0x60260	54 00 65 00 6d 00 70 00 5c 00 25 00 6c 00 73 00 	T0e0m0p000%0l0s0
  0x60270	00 00 00 00 00 00 00 00 25 00 6c 00 73 00 5c 00 	00000000%0l0s000
  0x60280	54 00 65 00 6d 00 70 00 00 00 00 00 00 00 00 00 	T0e0m0p000000000
  0x60290	66 00 6f 00 72 00 77 00 61 00 72 00 64 00 65 00 	f0o0r0w0a0r0d0e0
  0x602a0	72 00 73 00 5c 00 25 00 6c 00 73 00 00 00 00 00 	r0s000%0l0s00000
  0x602b0	22 00 25 00 2e 00 2a 00 6c 00 73 00 22 00 25 00 	"0%0.0*0l0s0"0%0
  0x602c0	6c 00 73 00 00 00 00 00 49 73 57 6f 77 36 34 50 	l0s00000IsWow64P
  0x602d0	72 6f 63 65 73 73 32 00 49 73 57 6f 77 36 34 50 	rocess20IsWow64P
  0x602e0	72 6f 63 65 73 73 00 00 f1 36 1a f9 34 9d f8 35 	rocess0006004005
  0x602f0	11 67 52 8b 80 1c 01 51 68 72 3d 30 78 25 30 38 	0gR0000Qhr=0x%08
  0x60300	58 00 00 00 00 00 00 00 39 f3 cb 02 39 07 a5 37 	X000000090009007
  0x60310	0a f6 94 d1 e8 83 bc b3 72 00 00 00 00 00 00 00 	00000000r0000000
  0x60320	5f 00 5f 00 4e 00 4f 00 5f 00 53 00 54 00 52 00 	_0_0N0O0_0S0T0R0
  0x60330	49 00 4e 00 47 00 5f 00 45 00 58 00 50 00 41 00 	I0N0G0_0E0X0P0A0
  0x60340	4e 00 53 00 49 00 4f 00 4e 00 00 00 00 00 00 00 	N0S0I0O0N0000000
  0x60350	0b 00 00 00 00 00 00 00 17 00 00 00 00 00 00 00 	0000000000000000
  0x60360	35 00 00 00 00 00 00 00 61 00 00 00 00 00 00 00 	50000000a0000000
  0x60370	c1 00 00 00 00 00 00 00 fb 00 00 00 00 00 00 00 	0000000000000000
  0x60380	25 01 00 00 00 00 00 00 5b 01 00 00 00 00 00 00 	%0000000[0000000
  0x60390	85 01 00 00 00 00 00 00 eb 01 00 00 00 00 00 00 	0000000000000000
  0x603a0	4b 02 00 00 00 00 00 00 ab 02 00 00 00 00 00 00 	K000000000000000
  0x603b0	01 03 00 00 00 00 00 00 c7 03 00 00 00 00 00 00 	0000000000000000
  0x603c0	8b 04 00 00 00 00 00 00 51 05 00 00 00 00 00 00 	00000000Q0000000
  0x603d0	07 06 00 00 00 00 00 00 8b 07 00 00 00 00 00 00 	0000000000000000
  0x603e0	07 09 00 00 00 00 00 00 8b 0a 00 00 00 00 00 00 	0000000000000000
  0x603f0	07 0c 00 00 00 00 00 00 0b 0f 00 00 00 00 00 00 	0000000000000000
  0x60400	0d 12 00 00 00 00 00 00 0b 15 00 00 00 00 00 00 	0000000000000000
  0x60410	07 18 00 00 00 00 00 00 07 1e 00 00 00 00 00 00 	0000000000000000
  0x60420	05 24 00 00 00 00 00 00 13 2a 00 00 00 00 00 00 	0$0000000*000000
  0x60430	01 30 00 00 00 00 00 00 0d 3c 00 00 00 00 00 00 	000000000<000000
  0x60440	0b 48 00 00 00 00 00 00 11 54 00 00 00 00 00 00 	0H0000000T000000
  0x60450	11 60 00 00 00 00 00 00 25 78 00 00 00 00 00 00 	0`000000%x000000
  0x60460	0d 90 00 00 00 00 00 00 0b a8 00 00 00 00 00 00 	0000000000000000
  0x60470	05 c0 00 00 00 00 00 00 17 f0 00 00 00 00 00 00 	0000000000000000
  0x60480	17 20 01 00 00 00 00 00 35 50 01 00 00 00 00 00 	0 0000005P000000
  0x60490	0d 80 01 00 00 00 00 00 29 e0 01 00 00 00 00 00 	00000000)0000000
  0x604a0	19 40 02 00 00 00 00 00 11 a0 02 00 00 00 00 00 	0@00000000000000
  0x604b0	05 00 03 00 00 00 00 00 17 c0 03 00 00 00 00 00 	0000000000000000
  0x604c0	23 80 04 00 00 00 00 00 2f 40 05 00 00 00 00 00 	#0000000/@000000
  0x604d0	19 00 06 00 00 00 00 00 3d 80 07 00 00 00 00 00 	00000000=0000000
  0x604e0	17 00 09 00 00 00 00 00 13 80 0a 00 00 00 00 00 	0000000000000000
  0x604f0	01 00 0c 00 00 00 00 00 17 00 0f 00 00 00 00 00 	0000000000000000
  0x60500	1d 00 12 00 00 00 00 00 3d 00 15 00 00 00 00 00 	00000000=0000000
  0x60510	05 00 18 00 00 00 00 00 2b 00 1e 00 00 00 00 00 	00000000+0000000
  0x60520	0b 00 24 00 00 00 00 00 0b 00 2a 00 00 00 00 00 	00$0000000*00000
  0x60530	0b 00 30 00 00 00 00 00 13 00 3c 00 00 00 00 00 	0000000000<00000
  0x60540	19 00 48 00 00 00 00 00 1d 00 54 00 00 00 00 00 	00H0000000T00000
  0x60550	0d 00 60 00 00 00 00 00 29 00 78 00 00 00 00 00 	00`00000)0x00000
  0x60560	13 00 90 00 00 00 00 00 41 00 a8 00 00 00 00 00 	00000000A0000000
  0x60570	05 00 c0 00 00 00 00 00 29 00 f0 00 00 00 00 00 	00000000)0000000
  0x60580	1f 00 20 01 00 00 00 00 1f 00 50 01 00 00 00 00 	00 0000000P00000
  0x60590	13 00 80 01 00 00 00 00 31 00 e0 01 00 00 00 00 	0000000010000000
  0x605a0	37 00 40 02 00 00 00 00 3d 00 a0 02 00 00 00 00 	70@00000=0000000
  0x605b0	05 00 00 03 00 00 00 00 3b 00 c0 03 00 00 00 00 	00000000;0000000
  0x605c0	11 00 80 04 00 00 00 00 17 00 40 05 00 00 00 00 	0000000000@00000
  0x605d0	17 00 00 06 00 00 00 00 29 00 80 07 00 00 00 00 	00000000)0000000
  0x605e0	23 00 00 09 00 00 00 00 35 00 80 0a 00 00 00 00 	#000000050000000
  0x605f0	13 00 00 0c 00 00 00 00 1f 00 00 0f 00 00 00 00 	0000000000000000
  0x60600	1d 00 00 12 00 00 00 00 11 00 00 15 00 00 00 00 	0000000000000000
  0x60610	05 00 00 18 00 00 00 00 4d 00 00 1e 00 00 00 00 	00000000M0000000
  0x60620	3d 00 00 24 00 00 00 00 61 00 00 2a 00 00 00 00 	=00$0000a00*0000
  0x60630	59 00 00 30 00 00 00 00 5b 00 00 3c 00 00 00 00 	Y0000000[00<0000
  0x60640	31 00 00 48 00 00 00 00 1d 00 00 54 00 00 00 00 	100H0000000T0000
  0x60650	05 00 00 60 00 00 00 00 13 00 00 78 00 00 00 00 	000`0000000x0000
  0x60660	05 00 00 90 00 00 00 00 17 00 00 a8 00 00 00 00 	0000000000000000
  0x60670	01 00 00 c0 00 00 00 00 01 00 00 d0 00 00 00 00 	0000000000000000
  0x60680	ff ff ff df 00 00 00 00 0d 00 00 f0 00 00 00 00 	0000000000000000
  0x60690	fb ff ff ff 00 00 00 00 d3 84 64 fe 5c 81 9e 36 	0000000000d00006
  0x606a0	1e 23 c1 d9 41 1e 15 98 f3 79 c9 fb 25 a3 b4 3b 	0#00A0000y00%00;
  0x606b0	7c b5 af 4a 05 8a f5 49 3c 00 75 00 6e 00 6b 00 	|00J000I<0u0n0k0
  0x606c0	6e 00 6f 00 77 00 6e 00 3e 00 00 00 00 00 00 00 	n0o0w0n0>0000000
  0x606d0	94 f6 2a 71 ff af 58 38 a0 18 e8 1b ae 07 cf fc 	00*q00X800000000
  0x606e0	47 65 74 53 79 73 74 65 6d 54 69 6d 65 50 72 65 	GetSystemTimePre
  0x606f0	63 69 73 65 41 73 46 69 6c 65 54 69 6d 65 00 00 	ciseAsFileTime00
  0x60700	30 00 31 00 32 00 33 00 34 00 35 00 36 00 37 00 	0010203040506070
  0x60710	38 00 39 00 61 00 62 00 63 00 64 00 65 00 66 00 	8090a0b0c0d0e0f0
  0x60720	00 00 00 00 00 00 00 00 42 43 72 79 70 74 47 65 	00000000BCryptGe
  0x60730	74 50 72 6f 70 65 72 74 79 00 00 00 00 00 00 00 	tProperty0000000
  0x60740	62 00 63 00 72 00 79 00 70 00 74 00 2e 00 64 00 	b0c0r0y0p0t0.0d0
  0x60750	6c 00 6c 00 00 00 00 00 42 43 72 79 70 74 43 72 	l0l00000BCryptCr
  0x60760	65 61 74 65 48 61 73 68 00 00 00 00 00 00 00 00 	eateHash00000000
  0x60770	42 43 72 79 70 74 44 65 73 74 72 6f 79 48 61 73 	BCryptDestroyHas
  0x60780	68 00 00 00 00 00 00 00 42 43 72 79 70 74 48 61 	h0000000BCryptHa
  0x60790	73 68 44 61 74 61 00 00 42 43 72 79 70 74 46 69 	shData00BCryptFi
  0x607a0	6e 69 73 68 48 61 73 68 00 00 00 00 00 00 00 00 	nishHash00000000
  0x607b0	4f 00 62 00 6a 00 65 00 63 00 74 00 4c 00 65 00 	O0b0j0e0c0t0L0e0
  0x607c0	6e 00 67 00 74 00 68 00 00 00 00 00 00 00 00 00 	n0g0t0h000000000
  0x607d0	48 00 61 00 73 00 68 00 44 00 69 00 67 00 65 00 	H0a0s0h0D0i0g0e0
  0x607e0	73 00 74 00 4c 00 65 00 6e 00 67 00 74 00 68 00 	s0t0L0e0n0g0t0h0
  0x607f0	00 00 00 00 00 00 00 00 52 00 4e 00 47 00 00 00 	00000000R0N0G000
  0x60800	53 00 48 00 41 00 31 00 00 00 00 00 00 00 00 00 	S0H0A01000000000
  0x60810	42 43 72 79 70 74 4f 70 65 6e 41 6c 67 6f 72 69 	BCryptOpenAlgori
  0x60820	74 68 6d 50 72 6f 76 69 64 65 72 00 00 00 00 00 	thmProvider00000
  0x60830	42 43 72 79 70 74 43 6c 6f 73 65 41 6c 67 6f 72 	BCryptCloseAlgor
  0x60840	69 74 68 6d 50 72 6f 76 69 64 65 72 00 00 00 00 	ithmProvider0000
  0x60850	42 43 72 79 70 74 47 65 6e 52 61 6e 64 6f 6d 00 	BCryptGenRandom0
  0x60860	43 72 79 70 74 43 72 65 61 74 65 48 61 73 68 00 	CryptCreateHash0
  0x60870	43 72 79 70 74 44 65 73 74 72 6f 79 48 61 73 68 	CryptDestroyHash
  0x60880	00 00 00 00 00 00 00 00 43 72 79 70 74 48 61 73 	00000000CryptHas
  0x60890	68 44 61 74 61 00 00 00 43 72 79 70 74 47 65 74 	hData000CryptGet
  0x608a0	48 61 73 68 50 61 72 61 6d 00 00 00 00 00 00 00 	HashParam0000000
  0x608b0	43 72 79 70 74 41 63 71 75 69 72 65 43 6f 6e 74 	CryptAcquireCont
  0x608c0	65 78 74 57 00 00 00 00 43 72 79 70 74 52 65 6c 	extW0000CryptRel
  0x608d0	65 61 73 65 43 6f 6e 74 65 78 74 00 00 00 00 00 	easeContext00000
  0x608e0	43 72 79 70 74 47 65 6e 52 61 6e 64 6f 6d 00 00 	CryptGenRandom00
  0x608f0	89 70 15 50 fe a0 fe 33 a2 23 8b 96 41 21 74 a3 	0p0P00030#00A!t0
  0x60900	05 e0 b9 20 ae ea 0e 30 ca 48 67 b6 4e 27 cf ef 	000 00000Hg0N'00
  0x60910	25 66 00 00 00 00 00 00 93 63 75 f6 83 e7 fa 37 	%f0000000cu00007
  0x60920	c3 55 f7 53 5b 1a d1 7f 47 65 74 46 69 6c 65 56 	0U0S[000GetFileV
  0x60930	65 72 73 69 6f 6e 49 6e 66 6f 53 69 7a 65 45 78 	ersionInfoSizeEx
  0x60940	57 00 00 00 00 00 00 00 47 65 74 46 69 6c 65 56 	W0000000GetFileV
  0x60950	65 72 73 69 6f 6e 49 6e 66 6f 53 69 7a 65 57 00 	ersionInfoSizeW0
  0x60960	47 65 74 46 69 6c 65 56 65 72 73 69 6f 6e 49 6e 	GetFileVersionIn
  0x60970	66 6f 57 00 00 00 00 00 47 65 74 46 69 6c 65 56 	foW00000GetFileV
  0x60980	65 72 73 69 6f 6e 49 6e 66 6f 45 78 57 00 00 00 	ersionInfoExW000
  0x60990	56 65 72 51 75 65 72 79 56 61 6c 75 65 57 00 00 	VerQueryValueW00
  0x609a0	86 9f 9e ff 84 1a 49 3f ad b1 ea b8 d6 bf 53 32 	000000I?000000S2
  0x609b0	01 23 45 67 89 ab cd ef fe dc ba 98 76 54 32 10 	0#Eg00000000vT20
  0x609c0	f0 e1 d2 c3 00 00 00 00 00 00 00 00 00 00 00 00 	0000000000000000
  0x609d0	76 2e 5f 6d 61 73 74 65 72 5f 32 30 32 30 2d 31 	v._master_2020-1
  0x609e0	32 2d 31 34 54 30 39 3a 32 30 3a 34 39 2d 30 38 	2-14T09:20:49-08
  0x609f0	3a 30 30 5f 35 62 33 61 63 62 31 5f 32 30 32 30 	:00_5b3acb1_2020
  0x60a00	2d 31 32 2d 32 32 54 31 36 3a 32 30 3a 35 31 00 	-12-22T16:20:510
  0x60a10	01 02 1e 00 00 02 00 00 01 02 01 00 08 00 00 00 	0000000000000000
  0x60a20	01 02 19 00 04 00 00 00 01 03 19 00 03 00 00 00 	0000000000000000
  0x60a30	01 03 1a 00 03 00 00 00 01 02 00 00 02 00 00 00 	0000000000000000
  0x60a40	01 02 09 00 02 00 00 00 01 02 1c 00 10 08 00 00 	0000000000000000
  0x60a50	07 01 05 00 10 00 00 00 07 01 12 00 00 04 00 00 	0000000000000000
  0x60a60	07 01 1d 00 40 00 00 00 07 01 13 00 00 01 00 00 	0000@00000000000
  0x60a70	07 01 08 00 80 00 00 00 07 01 10 00 00 10 00 00 	0000000000000000
  0x60a80	07 01 1f 00 00 10 00 00 07 01 1e 00 00 10 00 00 	0000000000000000
  0x60a90	07 01 11 00 00 10 00 00 07 02 09 00 00 18 00 00 	0000000000000000
  0x60aa0	07 02 0a 00 00 18 00 00 00 00 00 00 00 00 00 00 	0000000000000000
  0x60ab0	9f 36 87 0f e5 a4 fc 4c bd 3e 73 e6 15 45 72 dd 	0600000L0>s00Er0
  0x60ac0	4d 62 3d 4c 6b fd a3 49 b9 b7 09 cb 3c d3 f0 47 	Mb=Lk00I0000<00G
  0x60ad0	d7 d0 d9 0a 7f 0c bb 4e 9a 5f d1 c6 48 dc a5 28 	0000000N0_00H00(
  0x60ae0	e0 47 57 b4 a7 eb 76 42 9f 29 85 c5 bb 30 00 06 	0GW000vB0)000000
  0x60af0	00 00 80 3f 00 00 00 00 38 32 8f fc c1 c0 f3 3f 	000?00008200000?
  0x60b00	00 00 00 00 00 88 c3 40 00 00 00 00 c0 ff df 40 	0000000@0000000@
  0x60b10	00 00 c0 ff ff ff df 41 00 00 00 5f 00 00 00 00 	0000000A000_0000
  0x60b20	ff ff ff ff ff ff ff ff 00 00 00 00 00 00 00 00 	0000000000000000
  0x60b30	07 00 00 00 00 00 00 00 01 00 00 00 00 00 00 00 	0000000000000000
  0x60b40	00 00 00 00 00 00 00 00 07 00 00 00 00 00 00 00 	0000000000000000
  0x60b50	41 63 63 65 73 73 20 76 69 6f 6c 61 74 69 6f 6e 	Access violation
  0x60b60	20 2d 20 6e 6f 20 52 54 54 49 20 64 61 74 61 21 	 - no RTTI data!
  0x60b70	00 00 00 00 00 00 00 00 42 61 64 20 64 79 6e 61 	00000000Bad dyna
  0x60b80	6d 69 63 5f 63 61 73 74 21 00 00 00 00 00 00 00 	mic_cast!0000000
  0x60b90	bf 18 96 d5 00 00 00 00 02 00 00 00 20 00 00 00 	000000000000 000
  0x60ba0	70 58 06 00 70 48 06 00 00 00 00 00 bf 18 96 d5 	pX00pH0000000000
  0x60bb0	00 00 00 00 0d 00 00 00 b0 04 00 00 90 58 06 00 	0000000000000X00
  0x60bc0	90 48 06 00 00 00 00 00 bf 18 96 d5 00 00 00 00 	0H00000000000000
  0x60bd0	10 00 00 00 24 00 00 00 68 5d 06 00 68 4d 06 00 	0000$000h]00hM00
  0x60be0	00 00 00 00 bf 18 96 d5 00 00 00 00 14 00 00 00 	0000000000000000
  0x60bf0	04 00 00 00 8c 5d 06 00 8c 4d 06 00 00 00 00 00 	00000]000M000000
  0x60c00	01 00 00 00 00 00 00 00 00 00 00 00 00 e8 06 00 	0000000000000000
  0x60c10	28 0c 06 00 00 0c 06 00 00 00 00 00 00 00 00 00 	(000000000000000
  0x60c20	00 00 00 00 00 00 00 00 00 00 00 00 00 00 00 00 	0000000000000000
  0x60c30	01 00 00 00 40 0c 06 00 00 00 00 00 00 00 00 00 	0000@00000000000
  0x60c40	50 0c 06 00 00 00 00 00 00 00 00 00 00 00 00 00 	P000000000000000
  0x60c50	00 e8 06 00 00 00 00 00 00 00 00 00 ff ff ff ff 	0000000000000000
  0x60c60	00 00 00 00 40 00 00 00 28 0c 06 00 00 00 00 00 	0000@000(0000000
  0x60c70	00 00 00 00 00 00 00 00 01 00 00 00 00 00 00 00 	0000000000000000
  0x60c80	00 00 00 00 b0 e2 06 00 a0 0c 06 00 78 0c 06 00 	000000000000x000
  0x60c90	00 00 00 00 00 00 00 00 00 00 00 00 00 00 00 00 	0000000000000000
  0x60ca0	00 00 00 00 00 00 00 00 02 00 00 00 b8 0c 06 00 	0000000000000000
  0x60cb0	00 00 00 00 00 00 00 00 d0 0c 06 00 a0 10 06 00 	0000000000000000
  0x60cc0	00 00 00 00 00 00 00 00 00 00 00 00 00 00 00 00 	0000000000000000
  0x60cd0	b0 e2 06 00 01 00 00 00 00 00 00 00 ff ff ff ff 	0000000000000000
  0x60ce0	00 00 00 00 40 00 00 00 a0 0c 06 00 00 00 00 00 	0000@00000000000
  0x60cf0	00 00 00 00 00 00 00 00 78 0d 06 00 f0 0d 06 00 	00000000x0000000
  0x60d00	00 00 00 00 00 00 00 00 00 00 00 00 00 00 00 00 	0000000000000000
  0x60d10	a0 0d 06 00 f0 0d 06 00 00 00 00 00 00 00 00 00 	0000000000000000
  0x60d20	00 00 00 00 00 00 00 00 c8 0d 06 00 f0 0d 06 00 	0000000000000000
  0x60d30	00 00 00 00 00 00 00 00 00 00 00 00 00 00 00 00 	0000000000000000
  0x60d40	f0 0d 06 00 00 00 00 00 00 00 00 00 00 00 00 00 	0000000000000000
  0x60d50	18 0e 06 00 40 0e 06 00 00 00 00 00 00 00 00 00 	0000@00000000000
  0x60d60	00 00 00 00 00 00 00 00 40 0e 06 00 00 00 00 00 	00000000@0000000
  0x60d70	00 00 00 00 00 00 00 00 20 e8 06 00 01 00 00 00 	00000000 0000000
  0x60d80	00 00 00 00 ff ff ff ff 00 00 00 00 40 00 00 00 	000000000000@000
  0x60d90	68 0e 06 00 00 00 00 00 00 00 00 00 00 00 00 00 	h000000000000000
  0x60da0	90 e8 06 00 01 00 00 00 00 00 00 00 ff ff ff ff 	0000000000000000
  0x60db0	00 00 00 00 40 00 00 00 80 0e 06 00 00 00 00 00 	0000@00000000000
  0x60dc0	00 00 00 00 00 00 00 00 00 e9 06 00 01 00 00 00 	0000000000000000
  0x60dd0	00 00 00 00 ff ff ff ff 00 00 00 00 40 00 00 00 	000000000000@000
  0x60de0	98 0e 06 00 00 00 00 00 00 00 00 00 00 00 00 00 	0000000000000000
  0x60df0	70 e9 06 00 00 00 00 00 00 00 00 00 ff ff ff ff 	p000000000000000
  0x60e00	00 00 00 00 40 00 00 00 b0 0e 06 00 00 00 00 00 	0000@00000000000
  0x60e10	00 00 00 00 00 00 00 00 d8 e9 06 00 01 00 00 00 	0000000000000000
  0x60e20	00 00 00 00 ff ff ff ff 00 00 00 00 40 00 00 00 	000000000000@000
  0x60e30	e0 0e 06 00 00 00 00 00 00 00 00 00 00 00 00 00 	0000000000000000
  0x60e40	b0 e9 06 00 00 00 00 00 00 00 00 00 ff ff ff ff 	0000000000000000
  0x60e50	00 00 00 00 40 00 00 00 c8 0e 06 00 00 00 00 00 	0000@00000000000
  0x60e60	00 00 00 00 00 00 00 00 00 00 00 00 00 00 00 00 	0000000000000000
  0x60e70	02 00 00 00 f8 0c 06 00 00 00 00 00 00 00 00 00 	0000000000000000
  0x60e80	00 00 00 00 00 00 00 00 02 00 00 00 10 0d 06 00 	0000000000000000
  0x60e90	00 00 00 00 00 00 00 00 00 00 00 00 00 00 00 00 	0000000000000000
  0x60ea0	02 00 00 00 28 0d 06 00 00 00 00 00 00 00 00 00 	0000(00000000000
  0x60eb0	00 00 00 00 00 00 00 00 01 00 00 00 40 0d 06 00 	000000000000@000
  0x60ec0	00 00 00 00 00 00 00 00 00 00 00 00 00 00 00 00 	0000000000000000
  0x60ed0	01 00 00 00 68 0d 06 00 00 00 00 00 00 00 00 00 	0000h00000000000
  0x60ee0	00 00 00 00 00 00 00 00 02 00 00 00 50 0d 06 00 	000000000000P000
  0x60ef0	00 00 00 00 00 00 00 00 01 00 00 00 00 00 00 00 	0000000000000000
  0x60f00	00 00 00 00 20 e8 06 00 68 0e 06 00 f8 0e 06 00 	0000 000h0000000
  0x60f10	00 00 00 00 00 00 00 00 00 00 00 00 00 00 00 00 	0000000000000000
  0x60f20	01 00 00 00 00 00 00 00 00 00 00 00 90 e8 06 00 	0000000000000000
  0x60f30	80 0e 06 00 20 0f 06 00 00 00 00 00 00 00 00 00 	0000 00000000000
  0x60f40	00 00 00 00 00 00 00 00 01 00 00 00 00 00 00 00 	0000000000000000
  0x60f50	00 00 00 00 00 e9 06 00 98 0e 06 00 48 0f 06 00 	000000000000H000
  0x60f60	00 00 00 00 00 00 00 00 00 00 00 00 00 00 00 00 	0000000000000000
  0x60f70	01 00 00 00 00 00 00 00 00 00 00 00 d8 e9 06 00 	0000000000000000
  0x60f80	e0 0e 06 00 70 0f 06 00 00 00 00 00 00 00 00 00 	0000p00000000000
  0x60f90	00 00 00 00 00 00 00 00 a0 e3 06 00 02 00 00 00 	0000000000000000
  0x60fa0	00 00 00 00 ff ff ff ff 00 00 00 00 40 00 00 00 	000000000000@000
  0x60fb0	e0 0f 06 00 00 00 00 00 00 00 00 00 00 00 00 00 	0000000000000000
  0x60fc0	98 0f 06 00 20 10 06 00 a0 10 06 00 00 00 00 00 	0000 00000000000
  0x60fd0	00 00 00 00 00 00 00 00 00 00 00 00 00 00 00 00 	0000000000000000
  0x60fe0	00 00 00 00 00 00 00 00 03 00 00 00 c0 0f 06 00 	0000000000000000
  0x60ff0	00 00 00 00 00 00 00 00 01 00 00 00 00 00 00 00 	0000000000000000
  0x61000	00 00 00 00 a0 e3 06 00 e0 0f 06 00 f8 0f 06 00 	0000000000000000
  0x61010	00 00 00 00 00 00 00 00 00 00 00 00 00 00 00 00 	0000000000000000
  0x61020	d0 e3 06 00 01 00 00 00 00 00 00 00 ff ff ff ff 	0000000000000000
  0x61030	00 00 00 00 40 00 00 00 60 10 06 00 00 00 00 00 	0000@000`0000000
  0x61040	00 00 00 00 00 00 00 00 20 10 06 00 a0 10 06 00 	00000000 0000000
  0x61050	00 00 00 00 00 00 00 00 00 00 00 00 00 00 00 00 	0000000000000000
  0x61060	00 00 00 00 00 00 00 00 02 00 00 00 48 10 06 00 	000000000000H000
  0x61070	00 00 00 00 00 00 00 00 01 00 00 00 00 00 00 00 	0000000000000000
  0x61080	00 00 00 00 d0 e3 06 00 60 10 06 00 78 10 06 00 	00000000`000x000
  0x61090	00 00 00 00 00 00 00 00 00 00 00 00 00 00 00 00 	0000000000000000
  0x610a0	f8 e3 06 00 00 00 00 00 00 00 00 00 ff ff ff ff 	0000000000000000
  0x610b0	00 00 00 00 40 00 00 00 d8 10 06 00 00 00 00 00 	0000@00000000000
  0x610c0	00 00 00 00 00 00 00 00 a0 10 06 00 00 00 00 00 	0000000000000000
  0x610d0	00 00 00 00 00 00 00 00 00 00 00 00 00 00 00 00 	0000000000000000
  0x610e0	01 00 00 00 c8 10 06 00 00 00 00 00 00 00 00 00 	0000000000000000
  0x610f0	01 00 00 00 00 00 00 00 00 00 00 00 f8 e3 06 00 	0000000000000000
  0x61100	d8 10 06 00 f0 10 06 00 00 00 00 00 00 00 00 00 	0000000000000000
  0x61110	00 00 00 00 00 00 00 00 e8 12 06 00 f0 0d 06 00 	0000000000000000
  0x61120	00 00 00 00 00 00 00 00 00 00 00 00 00 00 00 00 	0000000000000000
  0x61130	10 13 06 00 f0 0d 06 00 00 00 00 00 00 00 00 00 	0000000000000000
  0x61140	00 00 00 00 00 00 00 00 38 13 06 00 f0 14 06 00 	0000000080000000
  0x61150	18 15 06 00 00 00 00 00 00 00 00 00 00 00 00 00 	0000000000000000
  0x61160	00 00 00 00 00 00 00 00 88 13 06 00 f0 14 06 00 	0000000000000000
  0x61170	18 15 06 00 60 13 06 00 00 00 00 00 00 00 00 00 	0000`00000000000
  0x61180	00 00 00 00 00 00 00 00 00 00 00 00 00 00 00 00 	0000000000000000
  0x61190	b0 13 06 00 f0 14 06 00 18 15 06 00 00 00 00 00 	0000000000000000
  0x611a0	00 00 00 00 00 00 00 00 00 00 00 00 00 00 00 00 	0000000000000000
  0x611b0	d8 13 06 00 f0 14 06 00 18 15 06 00 00 00 00 00 	0000000000000000
  0x611c0	00 00 00 00 00 00 00 00 00 00 00 00 00 00 00 00 	0000000000000000
  0x611d0	00 14 06 00 f0 14 06 00 18 15 06 00 00 00 00 00 	0000000000000000
  0x611e0	00 00 00 00 00 00 00 00 00 00 00 00 00 00 00 00 	0000000000000000
  0x611f0	50 14 06 00 f0 14 06 00 18 15 06 00 28 14 06 00 	P00000000000(000
  0x61200	00 00 00 00 00 00 00 00 00 00 00 00 00 00 00 00 	0000000000000000
  0x61210	00 00 00 00 00 00 00 00 78 14 06 00 f0 14 06 00 	00000000x0000000
  0x61220	18 15 06 00 00 00 00 00 00 00 00 00 00 00 00 00 	0000000000000000
  0x61230	00 00 00 00 00 00 00 00 a0 14 06 00 f0 14 06 00 	0000000000000000
  0x61240	18 15 06 00 00 00 00 00 00 00 00 00 00 00 00 00 	0000000000000000
  0x61250	00 00 00 00 00 00 00 00 c8 14 06 00 f0 14 06 00 	0000000000000000
  0x61260	18 15 06 00 00 00 00 00 00 00 00 00 00 00 00 00 	0000000000000000
  0x61270	00 00 00 00 00 00 00 00 f0 14 06 00 18 15 06 00 	0000000000000000
  0x61280	00 00 00 00 00 00 00 00 00 00 00 00 00 00 00 00 	0000000000000000
  0x61290	18 15 06 00 00 00 00 00 00 00 00 00 00 00 00 00 	0000000000000000
  0x612a0	40 15 06 00 68 15 06 00 00 00 00 00 00 00 00 00 	@000h00000000000
  0x612b0	00 00 00 00 00 00 00 00 68 15 06 00 00 00 00 00 	00000000h0000000
  0x612c0	00 00 00 00 00 00 00 00 90 15 06 00 00 00 00 00 	0000000000000000
  0x612d0	00 00 00 00 00 00 00 00 b8 15 06 00 00 00 00 00 	0000000000000000
  0x612e0	00 00 00 00 00 00 00 00 00 ea 06 00 01 00 00 00 	0000000000000000
  0x612f0	00 00 00 00 ff ff ff ff 00 00 00 00 40 00 00 00 	000000000000@000
  0x61300	e0 15 06 00 00 00 00 00 00 00 00 00 00 00 00 00 	0000000000000000
  0x61310	70 ea 06 00 01 00 00 00 00 00 00 00 ff ff ff ff 	p000000000000000
  0x61320	00 00 00 00 40 00 00 00 f8 15 06 00 00 00 00 00 	0000@00000000000
  0x61330	00 00 00 00 00 00 00 00 e0 ea 06 00 02 00 00 00 	0000000000000000
  0x61340	00 00 00 00 ff ff ff ff 00 00 00 00 40 00 00 00 	000000000000@000
  0x61350	10 16 06 00 00 00 00 00 00 00 00 00 00 00 00 00 	0000000000000000
  0x61360	f8 ec 06 00 00 00 00 00 38 00 00 00 ff ff ff ff 	0000000080000000
  0x61370	00 00 00 00 40 00 00 00 48 17 06 00 00 00 00 00 	0000@000H0000000
  0x61380	00 00 00 00 00 00 00 00 08 eb 06 00 03 00 00 00 	0000000000000000
  0x61390	00 00 00 00 ff ff ff ff 00 00 00 00 40 00 00 00 	000000000000@000
  0x613a0	28 16 06 00 00 00 00 00 00 00 00 00 00 00 00 00 	(000000000000000
  0x613b0	30 eb 06 00 02 00 00 00 00 00 00 00 ff ff ff ff 	0000000000000000
  0x613c0	00 00 00 00 40 00 00 00 40 16 06 00 00 00 00 00 	0000@000@0000000
  0x613d0	00 00 00 00 00 00 00 00 60 eb 06 00 02 00 00 00 	00000000`0000000
  0x613e0	00 00 00 00 ff ff ff ff 00 00 00 00 40 00 00 00 	000000000000@000
  0x613f0	58 16 06 00 00 00 00 00 00 00 00 00 00 00 00 00 	X000000000000000
  0x61400	88 eb 06 00 02 00 00 00 00 00 00 00 ff ff ff ff 	0000000000000000
  0x61410	00 00 00 00 40 00 00 00 70 16 06 00 00 00 00 00 	0000@000p0000000
  0x61420	00 00 00 00 00 00 00 00 28 ed 06 00 00 00 00 00 	00000000(0000000
  0x61430	38 00 00 00 ff ff ff ff 00 00 00 00 40 00 00 00 	800000000000@000
  0x61440	60 17 06 00 00 00 00 00 00 00 00 00 00 00 00 00 	`000000000000000
  0x61450	b0 eb 06 00 03 00 00 00 00 00 00 00 ff ff ff ff 	0000000000000000
  0x61460	00 00 00 00 40 00 00 00 88 16 06 00 00 00 00 00 	0000@00000000000
  0x61470	00 00 00 00 00 00 00 00 e0 eb 06 00 02 00 00 00 	0000000000000000
  0x61480	00 00 00 00 ff ff ff ff 00 00 00 00 40 00 00 00 	000000000000@000
  0x61490	a0 16 06 00 00 00 00 00 00 00 00 00 00 00 00 00 	0000000000000000
  0x614a0	08 ec 06 00 02 00 00 00 00 00 00 00 ff ff ff ff 	0000000000000000
  0x614b0	00 00 00 00 40 00 00 00 b8 16 06 00 00 00 00 00 	0000@00000000000
  0x614c0	00 00 00 00 00 00 00 00 30 ec 06 00 02 00 00 00 	0000000000000000
  0x614d0	00 00 00 00 ff ff ff ff 00 00 00 00 40 00 00 00 	000000000000@000
  0x614e0	d0 16 06 00 00 00 00 00 00 00 00 00 00 00 00 00 	0000000000000000
  0x614f0	80 ec 06 00 01 00 00 00 00 00 00 00 ff ff ff ff 	0000000000000000
  0x61500	00 00 00 00 40 00 00 00 00 17 06 00 00 00 00 00 	0000@00000000000
  0x61510	00 00 00 00 00 00 00 00 58 ec 06 00 00 00 00 00 	00000000X0000000
  0x61520	00 00 00 00 ff ff ff ff 00 00 00 00 40 00 00 00 	000000000000@000
  0x61530	e8 16 06 00 00 00 00 00 00 00 00 00 00 00 00 00 	0000000000000000
  0x61540	d0 ec 06 00 01 00 00 00 00 00 00 00 ff ff ff ff 	0000000000000000
  0x61550	00 00 00 00 40 00 00 00 30 17 06 00 00 00 00 00 	0000@00000000000
  0x61560	00 00 00 00 00 00 00 00 b0 ec 06 00 00 00 00 00 	0000000000000000
  0x61570	00 00 00 00 ff ff ff ff 00 00 00 00 40 00 00 00 	000000000000@000
  0x61580	18 17 06 00 00 00 00 00 00 00 00 00 00 00 00 00 	0000000000000000
  0x61590	f8 ec 06 00 00 00 00 00 00 00 00 00 ff ff ff ff 	0000000000000000
  0x615a0	00 00 00 00 40 00 00 00 48 17 06 00 00 00 00 00 	0000@000H0000000
  0x615b0	00 00 00 00 00 00 00 00 28 ed 06 00 00 00 00 00 	00000000(0000000
  0x615c0	00 00 00 00 ff ff ff ff 00 00 00 00 40 00 00 00 	000000000000@000
  0x615d0	60 17 06 00 00 00 00 00 00 00 00 00 00 00 00 00 	`000000000000000
  0x615e0	00 00 00 00 00 00 00 00 02 00 00 00 18 11 06 00 	0000000000000000
  0x615f0	00 00 00 00 00 00 00 00 00 00 00 00 00 00 00 00 	0000000000000000
  0x61600	02 00 00 00 30 11 06 00 00 00 00 00 00 00 00 00 	0000000000000000
  0x61610	00 00 00 00 00 00 00 00 03 00 00 00 48 11 06 00 	000000000000H000
  0x61620	00 00 00 00 00 00 00 00 00 00 00 00 01 00 00 00 	0000000000000000
  0x61630	04 00 00 00 68 11 06 00 00 00 00 00 00 00 00 00 	0000h00000000000
  0x61640	00 00 00 00 00 00 00 00 03 00 00 00 90 11 06 00 	0000000000000000
  0x61650	00 00 00 00 00 00 00 00 00 00 00 00 00 00 00 00 	0000000000000000
  0x61660	03 00 00 00 b0 11 06 00 00 00 00 00 00 00 00 00 	0000000000000000
  0x61670	00 00 00 00 00 00 00 00 03 00 00 00 d0 11 06 00 	0000000000000000
  0x61680	00 00 00 00 00 00 00 00 00 00 00 00 01 00 00 00 	0000000000000000
  0x61690	04 00 00 00 f0 11 06 00 00 00 00 00 00 00 00 00 	0000000000000000
  0x616a0	00 00 00 00 00 00 00 00 03 00 00 00 18 12 06 00 	0000000000000000
  0x616b0	00 00 00 00 00 00 00 00 00 00 00 00 00 00 00 00 	0000000000000000
  0x616c0	03 00 00 00 38 12 06 00 00 00 00 00 00 00 00 00 	0000800000000000
  0x616d0	00 00 00 00 00 00 00 00 03 00 00 00 58 12 06 00 	000000000000X000
  0x616e0	00 00 00 00 00 00 00 00 00 00 00 00 00 00 00 00 	0000000000000000
  0x616f0	01 00 00 00 90 12 06 00 00 00 00 00 00 00 00 00 	0000000000000000
  0x61700	00 00 00 00 00 00 00 00 02 00 00 00 78 12 06 00 	000000000000x000
  0x61710	00 00 00 00 00 00 00 00 00 00 00 00 00 00 00 00 	0000000000000000
  0x61720	01 00 00 00 b8 12 06 00 00 00 00 00 00 00 00 00 	0000000000000000
  0x61730	00 00 00 00 00 00 00 00 02 00 00 00 a0 12 06 00 	0000000000000000
  0x61740	00 00 00 00 00 00 00 00 00 00 00 00 00 00 00 00 	0000000000000000
  0x61750	01 00 00 00 c8 12 06 00 00 00 00 00 00 00 00 00 	0000000000000000
  0x61760	00 00 00 00 00 00 00 00 01 00 00 00 d8 12 06 00 	0000000000000000
  0x61770	00 00 00 00 00 00 00 00 01 00 00 00 00 00 00 00 	0000000000000000
  0x61780	00 00 00 00 00 ea 06 00 e0 15 06 00 78 17 06 00 	000000000000x000
  0x61790	00 00 00 00 00 00 00 00 00 00 00 00 00 00 00 00 	0000000000000000
  0x617a0	01 00 00 00 00 00 00 00 00 00 00 00 70 ea 06 00 	000000000000p000
  0x617b0	f8 15 06 00 a0 17 06 00 00 00 00 00 00 00 00 00 	0000000000000000
  0x617c0	00 00 00 00 00 00 00 00 01 00 00 00 00 00 00 00 	0000000000000000
  0x617d0	00 00 00 00 e0 ea 06 00 10 16 06 00 c8 17 06 00 	0000000000000000
  0x617e0	00 00 00 00 00 00 00 00 00 00 00 00 00 00 00 00 	0000000000000000
  0x617f0	01 00 00 00 38 00 00 00 00 00 00 00 08 eb 06 00 	0000800000000000
  0x61800	28 16 06 00 f0 17 06 00 00 00 00 00 00 00 00 00 	(000000000000000
  0x61810	00 00 00 00 00 00 00 00 01 00 00 00 00 00 00 00 	0000000000000000
  0x61820	00 00 00 00 08 eb 06 00 28 16 06 00 18 18 06 00 	00000000(0000000
  0x61830	00 00 00 00 00 00 00 00 00 00 00 00 00 00 00 00 	0000000000000000
  0x61840	01 00 00 00 00 00 00 00 00 00 00 00 30 eb 06 00 	0000000000000000
  0x61850	40 16 06 00 40 18 06 00 00 00 00 00 00 00 00 00 	@000@00000000000
  0x61860	00 00 00 00 00 00 00 00 01 00 00 00 00 00 00 00 	0000000000000000
  0x61870	00 00 00 00 60 eb 06 00 58 16 06 00 68 18 06 00 	0000`000X000h000
  0x61880	00 00 00 00 00 00 00 00 00 00 00 00 00 00 00 00 	0000000000000000
  0x61890	01 00 00 00 00 00 00 00 00 00 00 00 88 eb 06 00 	0000000000000000
  0x618a0	70 16 06 00 90 18 06 00 00 00 00 00 00 00 00 00 	p000000000000000
  0x618b0	00 00 00 00 00 00 00 00 01 00 00 00 38 00 00 00 	0000000000008000
  0x618c0	00 00 00 00 b0 eb 06 00 88 16 06 00 b8 18 06 00 	0000000000000000
  0x618d0	00 00 00 00 00 00 00 00 00 00 00 00 00 00 00 00 	0000000000000000
  0x618e0	01 00 00 00 00 00 00 00 00 00 00 00 b0 eb 06 00 	0000000000000000
  0x618f0	88 16 06 00 e0 18 06 00 00 00 00 00 00 00 00 00 	0000000000000000
  0x61900	00 00 00 00 00 00 00 00 01 00 00 00 00 00 00 00 	0000000000000000
  0x61910	00 00 00 00 e0 eb 06 00 a0 16 06 00 08 19 06 00 	0000000000000000
  0x61920	00 00 00 00 00 00 00 00 00 00 00 00 00 00 00 00 	0000000000000000
  0x61930	01 00 00 00 00 00 00 00 00 00 00 00 08 ec 06 00 	0000000000000000
  0x61940	b8 16 06 00 30 19 06 00 00 00 00 00 00 00 00 00 	0000000000000000
  0x61950	00 00 00 00 00 00 00 00 01 00 00 00 00 00 00 00 	0000000000000000
  0x61960	00 00 00 00 30 ec 06 00 d0 16 06 00 58 19 06 00 	000000000000X000
  0x61970	00 00 00 00 00 00 00 00 00 00 00 00 00 00 00 00 	0000000000000000
  0x61980	01 00 00 00 00 00 00 00 00 00 00 00 d0 ec 06 00 	0000000000000000
  0x61990	30 17 06 00 80 19 06 00 00 00 00 00 00 00 00 00 	0000000000000000
  0x619a0	00 00 00 00 00 00 00 00 20 1a 06 00 70 1a 06 00 	00000000 000p000
  0x619b0	00 00 00 00 00 00 00 00 00 00 00 00 00 00 00 00 	0000000000000000
  0x619c0	48 1a 06 00 98 1a 06 00 00 00 00 00 00 00 00 00 	H000000000000000
  0x619d0	00 00 00 00 00 00 00 00 70 1a 06 00 00 00 00 00 	00000000p0000000
  0x619e0	00 00 00 00 00 00 00 00 98 1a 06 00 00 00 00 00 	0000000000000000
  0x619f0	00 00 00 00 00 00 00 00 c0 1a 06 00 e8 1a 06 00 	0000000000000000
  0x61a00	00 00 00 00 00 00 00 00 00 00 00 00 00 00 00 00 	0000000000000000
  0x61a10	e8 1a 06 00 00 00 00 00 00 00 00 00 00 00 00 00 	0000000000000000
  0x61a20	50 ed 06 00 01 00 00 00 00 00 00 00 ff ff ff ff 	P000000000000000
  0x61a30	00 00 00 00 40 00 00 00 10 1b 06 00 00 00 00 00 	0000@00000000000
  0x61a40	00 00 00 00 00 00 00 00 c0 ed 06 00 01 00 00 00 	0000000000000000
  0x61a50	00 00 00 00 ff ff ff ff 00 00 00 00 40 00 00 00 	000000000000@000
  0x61a60	28 1b 06 00 00 00 00 00 00 00 00 00 00 00 00 00 	(000000000000000
  0x61a70	28 ee 06 00 00 00 00 00 00 00 00 00 ff ff ff ff 	(000000000000000
  0x61a80	00 00 00 00 40 00 00 00 40 1b 06 00 00 00 00 00 	0000@000@0000000
  0x61a90	00 00 00 00 00 00 00 00 68 ee 06 00 00 00 00 00 	00000000h0000000
  0x61aa0	00 00 00 00 ff ff ff ff 00 00 00 00 40 00 00 00 	000000000000@000
  0x61ab0	58 1b 06 00 00 00 00 00 00 00 00 00 00 00 00 00 	X000000000000000
  0x61ac0	b8 ee 06 00 01 00 00 00 00 00 00 00 ff ff ff ff 	0000000000000000
  0x61ad0	00 00 00 00 40 00 00 00 88 1b 06 00 00 00 00 00 	0000@00000000000
  0x61ae0	00 00 00 00 00 00 00 00 98 ee 06 00 00 00 00 00 	0000000000000000
  0x61af0	00 00 00 00 ff ff ff ff 00 00 00 00 40 00 00 00 	000000000000@000
  0x61b00	70 1b 06 00 00 00 00 00 00 00 00 00 00 00 00 00 	p000000000000000
  0x61b10	00 00 00 00 00 00 00 00 02 00 00 00 a8 19 06 00 	0000000000000000
  0x61b20	00 00 00 00 00 00 00 00 00 00 00 00 00 00 00 00 	0000000000000000
  0x61b30	02 00 00 00 c0 19 06 00 00 00 00 00 00 00 00 00 	0000000000000000
  0x61b40	00 00 00 00 00 00 00 00 01 00 00 00 d8 19 06 00 	0000000000000000
  0x61b50	00 00 00 00 00 00 00 00 00 00 00 00 00 00 00 00 	0000000000000000
  0x61b60	01 00 00 00 e8 19 06 00 00 00 00 00 00 00 00 00 	0000000000000000
  0x61b70	00 00 00 00 00 00 00 00 01 00 00 00 10 1a 06 00 	0000000000000000
  0x61b80	00 00 00 00 00 00 00 00 00 00 00 00 00 00 00 00 	0000000000000000
  0x61b90	02 00 00 00 f8 19 06 00 00 00 00 00 00 00 00 00 	0000000000000000
  0x61ba0	01 00 00 00 00 00 00 00 00 00 00 00 50 ed 06 00 	000000000000P000
  0x61bb0	10 1b 06 00 a0 1b 06 00 00 00 00 00 00 00 00 00 	0000000000000000
  0x61bc0	00 00 00 00 00 00 00 00 01 00 00 00 00 00 00 00 	0000000000000000
  0x61bd0	00 00 00 00 c0 ed 06 00 28 1b 06 00 c8 1b 06 00 	00000000(0000000
  0x61be0	00 00 00 00 00 00 00 00 00 00 00 00 00 00 00 00 	0000000000000000
  0x61bf0	01 00 00 00 00 00 00 00 00 00 00 00 b8 ee 06 00 	0000000000000000
  0x61c00	88 1b 06 00 f0 1b 06 00 00 00 00 00 00 00 00 00 	0000000000000000
  0x61c10	00 00 00 00 00 00 00 00 48 1c 06 00 f0 0d 06 00 	00000000H0000000
  0x61c20	00 00 00 00 00 00 00 00 00 00 00 00 00 00 00 00 	0000000000000000
  0x61c30	70 1c 06 00 e8 1a 06 00 00 00 00 00 00 00 00 00 	p000000000000000
  0x61c40	00 00 00 00 00 00 00 00 e0 ee 06 00 01 00 00 00 	0000000000000000
  0x61c50	00 00 00 00 ff ff ff ff 00 00 00 00 40 00 00 00 	000000000000@000
  0x61c60	98 1c 06 00 00 00 00 00 00 00 00 00 00 00 00 00 	0000000000000000
  0x61c70	50 ef 06 00 01 00 00 00 00 00 00 00 ff ff ff ff 	P000000000000000
  0x61c80	00 00 00 00 40 00 00 00 b0 1c 06 00 00 00 00 00 	0000@00000000000
  0x61c90	00 00 00 00 00 00 00 00 00 00 00 00 00 00 00 00 	0000000000000000
  0x61ca0	02 00 00 00 18 1c 06 00 00 00 00 00 00 00 00 00 	0000000000000000
  0x61cb0	00 00 00 00 00 00 00 00 02 00 00 00 30 1c 06 00 	0000000000000000
  0x61cc0	00 00 00 00 00 00 00 00 01 00 00 00 00 00 00 00 	0000000000000000
  0x61cd0	00 00 00 00 e0 ee 06 00 98 1c 06 00 c8 1c 06 00 	0000000000000000
  0x61ce0	00 00 00 00 00 00 00 00 00 00 00 00 00 00 00 00 	0000000000000000
  0x61cf0	01 00 00 00 00 00 00 00 00 00 00 00 50 ef 06 00 	000000000000P000
  0x61d00	b0 1c 06 00 f0 1c 06 00 00 00 00 00 00 00 00 00 	0000000000000000
  0x61d10	00 00 00 00 00 00 00 00 c8 1d 06 00 f0 0d 06 00 	0000000000000000
  0x61d20	00 00 00 00 00 00 00 00 00 00 00 00 00 00 00 00 	0000000000000000
  0x61d30	f0 1d 06 00 f0 0d 06 00 00 00 00 00 00 00 00 00 	0000000000000000
  0x61d40	00 00 00 00 00 00 00 00 68 1e 06 00 40 1e 06 00 	00000000h000@000
  0x61d50	00 00 00 00 00 00 00 00 00 00 00 00 00 00 00 00 	0000000000000000
  0x61d60	e0 1e 06 00 b8 1e 06 00 00 00 00 00 00 00 00 00 	0000000000000000
  0x61d70	00 00 00 00 00 00 00 00 08 1f 06 00 00 00 00 00 	0000000000000000
  0x61d80	00 00 00 00 00 00 00 00 58 1f 06 00 80 1f 06 00 	00000000X0000000
  0x61d90	30 1f 06 00 00 00 00 00 00 00 00 00 00 00 00 00 	0000000000000000
  0x61da0	00 00 00 00 00 00 00 00 80 1f 06 00 00 00 00 00 	0000000000000000
  0x61db0	00 00 00 00 00 00 00 00 a8 1f 06 00 00 00 00 00 	0000000000000000
  0x61dc0	00 00 00 00 00 00 00 00 b0 ef 06 00 01 00 00 00 	0000000000000000
  0x61dd0	00 00 00 00 ff ff ff ff 00 00 00 00 40 00 00 00 	000000000000@000
  0x61de0	d0 1f 06 00 00 00 00 00 00 00 00 00 00 00 00 00 	0000000000000000
  0x61df0	20 f0 06 00 01 00 00 00 00 00 00 00 ff ff ff ff 	 000000000000000
  0x61e00	00 00 00 00 40 00 00 00 e8 1f 06 00 00 00 00 00 	0000@00000000000
  0x61e10	00 00 00 00 00 00 00 00 40 1e 06 00 00 00 00 00 	00000000@0000000
  0x61e20	00 00 00 00 00 00 00 00 00 00 00 00 00 00 00 00 	0000000000000000
  0x61e30	01 00 00 00 18 1e 06 00 00 00 00 00 00 00 00 00 	0000000000000000
  0x61e40	e0 e5 06 00 00 00 00 00 00 00 00 00 ff ff ff ff 	0000000000000000
  0x61e50	00 00 00 00 40 00 00 00 28 1e 06 00 00 00 00 00 	0000@000(0000000
  0x61e60	00 00 00 00 00 00 00 00 08 e6 06 00 01 00 00 00 	0000000000000000
  0x61e70	00 00 00 00 ff ff ff ff 00 00 00 00 40 00 00 00 	000000000000@000
  0x61e80	00 20 06 00 00 00 00 00 00 00 00 00 00 00 00 00 	0 00000000000000
  0x61e90	b8 1e 06 00 00 00 00 00 00 00 00 00 00 00 00 00 	0000000000000000
  0x61ea0	00 00 00 00 00 00 00 00 01 00 00 00 90 1e 06 00 	0000000000000000
  0x61eb0	00 00 00 00 00 00 00 00 80 ef 06 00 00 00 00 00 	0000000000000000
  0x61ec0	00 00 00 00 ff ff ff ff 00 00 00 00 40 00 00 00 	000000000000@000
  0x61ed0	a0 1e 06 00 00 00 00 00 00 00 00 00 00 00 00 00 	0000000000000000
  0x61ee0	90 f0 06 00 01 00 00 00 00 00 00 00 ff ff ff ff 	0000000000000000
  0x61ef0	00 00 00 00 40 00 00 00 18 20 06 00 00 00 00 00 	0000@0000 000000
  0x61f00	00 00 00 00 00 00 00 00 b8 f0 06 00 00 00 00 00 	0000000000000000
  0x61f10	00 00 00 00 ff ff ff ff 00 00 00 00 40 00 00 00 	000000000000@000
  0x61f20	30 20 06 00 00 00 00 00 00 00 00 00 00 00 00 00 	0 00000000000000
  0x61f30	20 f1 06 00 00 00 00 00 80 00 00 00 ff ff ff ff 	 000000000000000
  0x61f40	00 00 00 00 40 00 00 00 78 20 06 00 00 00 00 00 	0000@000x 000000
  0x61f50	00 00 00 00 00 00 00 00 e0 f0 06 00 02 00 00 00 	0000000000000000
  0x61f60	00 00 00 00 ff ff ff ff 00 00 00 00 40 00 00 00 	000000000000@000
  0x61f70	48 20 06 00 00 00 00 00 00 00 00 00 00 00 00 00 	H 00000000000000
  0x61f80	00 f1 06 00 00 00 00 00 00 00 00 00 ff ff ff ff 	0000000000000000
  0x61f90	00 00 00 00 40 00 00 00 60 20 06 00 00 00 00 00 	0000@000` 000000
  0x61fa0	00 00 00 00 00 00 00 00 20 f1 06 00 00 00 00 00 	00000000 0000000
  0x61fb0	00 00 00 00 ff ff ff ff 00 00 00 00 40 00 00 00 	000000000000@000
  0x61fc0	78 20 06 00 00 00 00 00 00 00 00 00 00 00 00 00 	x 00000000000000
  0x61fd0	00 00 00 00 00 00 00 00 02 00 00 00 18 1d 06 00 	0000000000000000
  0x61fe0	00 00 00 00 00 00 00 00 00 00 00 00 00 00 00 00 	0000000000000000
  0x61ff0	02 00 00 00 30 1d 06 00 00 00 00 00 00 00 00 00 	0000000000000000
  0x62000	00 00 00 00 00 00 00 00 02 00 00 00 48 1d 06 00 	000000000000H000
  0x62010	00 00 00 00 00 00 00 00 00 00 00 00 00 00 00 00 	0000000000000000
  0x62020	02 00 00 00 60 1d 06 00 00 00 00 00 00 00 00 00 	0000`00000000000
  0x62030	00 00 00 00 00 00 00 00 01 00 00 00 78 1d 06 00 	000000000000x000
  0x62040	00 00 00 00 00 00 00 00 00 00 00 00 01 00 00 00 	0000000000000000
  0x62050	03 00 00 00 88 1d 06 00 00 00 00 00 00 00 00 00 	0000000000000000
  0x62060	00 00 00 00 00 00 00 00 01 00 00 00 a8 1d 06 00 	0000000000000000
  0x62070	00 00 00 00 00 00 00 00 00 00 00 00 00 00 00 00 	0000000000000000
  0x62080	01 00 00 00 b8 1d 06 00 00 00 00 00 00 00 00 00 	0000000000000000
  0x62090	01 00 00 00 00 00 00 00 00 00 00 00 b0 ef 06 00 	0000000000000000
  0x620a0	d0 1f 06 00 90 20 06 00 00 00 00 00 00 00 00 00 	00000 0000000000
  0x620b0	00 00 00 00 00 00 00 00 01 00 00 00 00 00 00 00 	0000000000000000
  0x620c0	00 00 00 00 20 f0 06 00 e8 1f 06 00 b8 20 06 00 	0000 00000000 00
  0x620d0	00 00 00 00 00 00 00 00 00 00 00 00 00 00 00 00 	0000000000000000
  0x620e0	01 00 00 00 00 00 00 00 00 00 00 00 08 e6 06 00 	0000000000000000
  0x620f0	00 20 06 00 e0 20 06 00 00 00 00 00 00 00 00 00 	0 000 0000000000
  0x62100	00 00 00 00 00 00 00 00 01 00 00 00 00 00 00 00 	0000000000000000
  0x62110	00 00 00 00 90 f0 06 00 18 20 06 00 08 21 06 00 	000000000 000!00
  0x62120	00 00 00 00 00 00 00 00 00 00 00 00 00 00 00 00 	0000000000000000
  0x62130	01 00 00 00 00 00 00 00 00 00 00 00 b8 f0 06 00 	0000000000000000
  0x62140	30 20 06 00 30 21 06 00 00 00 00 00 00 00 00 00 	0 000!0000000000
  0x62150	00 00 00 00 00 00 00 00 01 00 00 00 80 00 00 00 	0000000000000000
  0x62160	00 00 00 00 e0 f0 06 00 48 20 06 00 58 21 06 00 	00000000H 00X!00
  0x62170	00 00 00 00 00 00 00 00 00 00 00 00 00 00 00 00 	0000000000000000
  0x62180	01 00 00 00 00 00 00 00 00 00 00 00 e0 f0 06 00 	0000000000000000
  0x62190	48 20 06 00 80 21 06 00 00 00 00 00 00 00 00 00 	H 000!0000000000
  0x621a0	00 00 00 00 00 00 00 00 01 00 00 00 00 00 00 00 	0000000000000000
  0x621b0	00 00 00 00 00 f1 06 00 60 20 06 00 a8 21 06 00 	00000000` 000!00
  0x621c0	00 00 00 00 00 00 00 00 00 00 00 00 00 00 00 00 	0000000000000000
  0x621d0	c0 22 06 00 98 22 06 00 70 22 06 00 48 22 06 00 	0"000"00p"00H"00
  0x621e0	e8 23 06 00 00 00 00 00 00 00 00 00 00 00 00 00 	0#00000000000000
  0x621f0	00 00 00 00 00 00 00 00 00 00 00 00 00 00 00 00 	0000000000000000
  0x62200	e8 22 06 00 10 23 06 00 38 23 06 00 00 00 00 00 	0"000#008#000000
  0x62210	00 00 00 00 00 00 00 00 00 00 00 00 00 00 00 00 	0000000000000000
  0x62220	10 23 06 00 38 23 06 00 00 00 00 00 00 00 00 00 	0#008#0000000000
  0x62230	00 00 00 00 00 00 00 00 38 23 06 00 00 00 00 00 	000000008#000000
  0x62240	00 00 00 00 00 00 00 00 c0 f2 06 00 00 00 00 00 	0000000000000000
  0x62250	10 00 00 00 ff ff ff ff 00 00 00 00 40 00 00 00 	000000000000@000
  0x62260	78 23 06 00 00 00 00 00 00 00 00 00 00 00 00 00 	x#00000000000000
  0x62270	40 f1 06 00 01 00 00 00 10 00 00 00 ff ff ff ff 	@000000000000000
  0x62280	00 00 00 00 40 00 00 00 60 23 06 00 00 00 00 00 	0000@000`#000000
  0x62290	00 00 00 00 00 00 00 00 a0 f4 06 00 02 00 00 00 	0000000000000000
  0x622a0	10 00 00 00 ff ff ff ff 00 00 00 00 40 00 00 00 	000000000000@000
  0x622b0	90 23 06 00 00 00 00 00 00 00 00 00 00 00 00 00 	0#00000000000000
  0x622c0	18 f6 06 00 04 00 00 00 00 00 00 00 ff ff ff ff 	0000000000000000
  0x622d0	00 00 00 00 40 00 00 00 a8 23 06 00 00 00 00 00 	0000@0000#000000
  0x622e0	00 00 00 00 00 00 00 00 a0 f4 06 00 02 00 00 00 	0000000000000000
  0x622f0	00 00 00 00 ff ff ff ff 00 00 00 00 40 00 00 00 	000000000000@000
  0x62300	90 23 06 00 00 00 00 00 00 00 00 00 00 00 00 00 	0#00000000000000
  0x62310	40 f1 06 00 01 00 00 00 00 00 00 00 ff ff ff ff 	@000000000000000
  0x62320	00 00 00 00 40 00 00 00 60 23 06 00 00 00 00 00 	0000@000`#000000
  0x62330	00 00 00 00 00 00 00 00 c0 f2 06 00 00 00 00 00 	0000000000000000
  0x62340	00 00 00 00 ff ff ff ff 00 00 00 00 40 00 00 00 	000000000000@000
  0x62350	78 23 06 00 00 00 00 00 00 00 00 00 00 00 00 00 	x#00000000000000
  0x62360	00 00 00 00 00 00 00 00 02 00 00 00 20 22 06 00 	000000000000 "00
  0x62370	00 00 00 00 00 00 00 00 00 00 00 00 00 00 00 00 	0000000000000000
  0x62380	01 00 00 00 38 22 06 00 00 00 00 00 00 00 00 00 	00008"0000000000
  0x62390	00 00 00 00 00 00 00 00 03 00 00 00 00 22 06 00 	0000000000000"00
  0x623a0	00 00 00 00 00 00 00 00 00 00 00 00 01 00 00 00 	0000000000000000
  0x623b0	05 00 00 00 d0 21 06 00 00 00 00 00 00 00 00 00 	00000!0000000000
  0x623c0	01 00 00 00 00 00 00 00 00 00 00 00 18 f6 06 00 	0000000000000000
  0x623d0	a8 23 06 00 c0 23 06 00 00 00 00 00 00 00 00 00 	0#000#0000000000
  0x623e0	00 00 00 00 00 00 00 00 48 f6 06 00 00 00 00 00 	00000000H0000000
  0x623f0	00 00 00 00 ff ff ff ff 00 00 00 00 40 00 00 00 	000000000000@000
  0x62400	20 24 06 00 00 00 00 00 00 00 00 00 00 00 00 00 	 $00000000000000
  0x62410	e8 23 06 00 00 00 00 00 00 00 00 00 00 00 00 00 	0#00000000000000
  0x62420	00 00 00 00 00 00 00 00 01 00 00 00 10 24 06 00 	0000000000000$00
  0x62430	00 00 00 00 00 00 00 00 01 00 00 00 00 00 00 00 	0000000000000000
  0x62440	00 00 00 00 48 f6 06 00 20 24 06 00 38 24 06 00 	0000H000 $008$00
  0x62450	00 00 00 00 00 00 00 00 00 00 00 00 00 00 00 00 	0000000000000000
  0x62460	58 e6 06 00 01 00 00 00 00 00 00 00 ff ff ff ff 	X000000000000000
  0x62470	00 00 00 00 40 00 00 00 50 25 06 00 00 00 00 00 	0000@000P%000000
  0x62480	00 00 00 00 00 00 00 00 a8 25 06 00 60 24 06 00 	000000000%00`$00
  0x62490	a0 10 06 00 00 00 00 00 00 00 00 00 00 00 00 00 	0000000000000000
  0x624a0	00 00 00 00 00 00 00 00 01 00 00 00 00 00 00 00 	0000000000000000
  0x624b0	00 00 00 00 d8 e6 06 00 90 25 06 00 a8 24 06 00 	000000000%000$00
  0x624c0	00 00 00 00 00 00 00 00 00 00 00 00 00 00 00 00 	0000000000000000
  0x624d0	60 24 06 00 a0 10 06 00 00 00 00 00 00 00 00 00 	`$00000000000000
  0x624e0	00 00 00 00 00 00 00 00 d8 e6 06 00 01 00 00 00 	0000000000000000
  0x624f0	00 00 00 00 ff ff ff ff 00 00 00 00 40 00 00 00 	000000000000@000
  0x62500	90 25 06 00 00 00 00 00 00 00 00 00 00 00 00 00 	0%00000000000000
  0x62510	01 00 00 00 00 00 00 00 00 00 00 00 30 e6 06 00 	0000000000000000
  0x62520	38 25 06 00 10 25 06 00 00 00 00 00 00 00 00 00 	8%000%0000000000
  0x62530	00 00 00 00 00 00 00 00 00 00 00 00 00 00 00 00 	0000000000000000
  0x62540	03 00 00 00 88 24 06 00 00 00 00 00 00 00 00 00 	00000$0000000000
  0x62550	00 00 00 00 00 00 00 00 02 00 00 00 d0 24 06 00 	0000000000000$00
  0x62560	00 00 00 00 00 00 00 00 01 00 00 00 00 00 00 00 	0000000000000000
  0x62570	00 00 00 00 58 e6 06 00 50 25 06 00 68 25 06 00 	0000X000P%00h%00
  0x62580	00 00 00 00 00 00 00 00 00 00 00 00 00 00 00 00 	0000000000000000
  0x62590	00 00 00 00 00 00 00 00 02 00 00 00 d0 25 06 00 	0000000000000%00
  0x625a0	00 00 00 00 00 00 00 00 30 e6 06 00 02 00 00 00 	0000000000000000
  0x625b0	00 00 00 00 ff ff ff ff 00 00 00 00 40 00 00 00 	000000000000@000
  0x625c0	38 25 06 00 00 00 00 00 00 00 00 00 00 00 00 00 	8%00000000000000
  0x625d0	e8 24 06 00 a0 10 06 00 00 00 00 00 00 00 00 00 	0$00000000000000
  0x625e0	00 00 00 00 00 00 00 00 a0 fa 06 00 02 00 00 00 	0000000000000000
  0x625f0	00 00 00 00 ff ff ff ff 00 00 00 00 40 00 00 00 	000000000000@000
  0x62600	60 34 06 00 00 00 00 00 00 00 00 00 00 00 00 00 	`400000000000000
  0x62610	01 00 00 00 08 00 00 00 00 00 00 00 40 fe 06 00 	000000000000@000
  0x62620	68 2e 06 00 10 26 06 00 00 00 00 00 00 00 00 00 	h.000&0000000000
  0x62630	00 00 00 00 00 00 00 00 90 09 07 00 00 00 00 00 	0000000000000000
  0x62640	08 00 00 00 ff ff ff ff 00 00 00 00 40 00 00 00 	000000000000@000
  0x62650	e8 2f 06 00 00 00 00 00 00 00 00 00 00 00 00 00 	0/00000000000000
  0x62660	00 00 00 00 00 00 00 00 02 00 00 00 d8 2b 06 00 	0000000000000+00
  0x62670	00 00 00 00 00 00 00 00 30 2c 06 00 00 00 00 00 	000000000,000000
  0x62680	00 00 00 00 00 00 00 00 78 f9 06 00 00 00 00 00 	00000000x0000000
  0x62690	00 00 00 00 ff ff ff ff 00 00 00 00 40 00 00 00 	000000000000@000
  0x626a0	e0 28 06 00 00 00 00 00 00 00 00 00 00 00 00 00 	0(00000000000000
  0x626b0	01 00 00 00 08 00 00 00 00 00 00 00 90 fb 06 00 	0000000000000000
  0x626c0	a0 28 06 00 b0 26 06 00 00 00 00 00 00 00 00 00 	0(000&0000000000
  0x626d0	00 00 00 00 00 00 00 00 00 00 00 00 00 00 00 00 	0000000000000000
  0x626e0	08 2c 06 00 80 2e 06 00 58 2c 06 00 f0 34 06 00 	0,000.00X,000400
  0x626f0	38 34 06 00 e8 25 06 00 60 31 06 00 40 30 06 00 	84000%00`100@000
  0x62700	c0 2c 06 00 c8 2d 06 00 78 2d 06 00 e0 37 06 00 	0,000-00x-000700
  0x62710	80 2a 06 00 90 37 06 00 28 39 06 00 00 00 00 00 	0*000700(9000000
  0x62720	00 00 00 00 00 00 00 00 00 00 00 00 00 00 00 00 	0000000000000000
  0x62730	00 00 00 00 00 00 00 00 00 00 00 00 00 00 00 00 	0000000000000000
  0x62740	00 00 00 00 00 00 00 00 00 00 00 00 00 00 00 00 	0000000000000000
  0x62750	00 00 00 00 00 00 00 00 00 00 00 00 00 00 00 00 	0000000000000000
  0x62760	00 00 00 00 00 00 00 00 01 00 00 00 30 2f 06 00 	0000000000000/00
  0x62770	00 00 00 00 00 00 00 00 60 04 07 00 01 00 00 00 	00000000`0000000
  0x62780	00 00 00 00 ff ff ff ff 00 00 00 00 40 00 00 00 	000000000000@000
  0x62790	28 2d 06 00 00 00 00 00 00 00 00 00 00 00 00 00 	(-00000000000000
  0x627a0	78 27 06 00 08 3a 06 00 00 00 00 00 00 00 00 00 	x'000:0000000000
  0x627b0	00 00 00 00 00 00 00 00 01 00 00 00 00 00 00 00 	0000000000000000
  0x627c0	00 00 00 00 20 09 07 00 18 31 06 00 b8 27 06 00 	0000 00001000'00
  0x627d0	00 00 00 00 00 00 00 00 00 00 00 00 00 00 00 00 	0000000000000000
  0x627e0	78 39 06 00 30 3a 06 00 e8 2a 06 00 60 31 06 00 	x9000:000*00`100
  0x627f0	40 30 06 00 c0 2c 06 00 c8 2d 06 00 78 2d 06 00 	@0000,000-00x-00
  0x62800	e0 37 06 00 00 00 00 00 00 00 00 00 00 00 00 00 	0700000000000000
  0x62810	00 00 00 00 00 00 00 00 00 00 00 00 00 00 00 00 	0000000000000000
  0x62820	00 00 00 00 00 00 00 00 00 00 00 00 00 00 00 00 	0000000000000000
  0x62830	40 08 07 00 00 00 00 00 00 00 00 00 ff ff ff ff 	@000000000000000
  0x62840	00 00 00 00 40 00 00 00 f0 2b 06 00 00 00 00 00 	0000@0000+000000
  0x62850	00 00 00 00 00 00 00 00 28 3b 06 00 a8 35 06 00 	00000000(;000500
  0x62860	58 32 06 00 30 38 06 00 a0 2d 06 00 00 00 00 00 	X20008000-000000
  0x62870	00 00 00 00 00 00 00 00 00 00 00 00 00 00 00 00 	0000000000000000
  0x62880	00 00 00 00 00 00 00 00 00 00 00 00 01 00 00 00 	0000000000000000
  0x62890	05 00 00 00 58 28 06 00 00 00 00 00 00 00 00 00 	0000X(0000000000
  0x628a0	00 00 00 00 01 00 00 00 0e 00 00 00 b0 3a 06 00 	0000000000000:00
  0x628b0	00 00 00 00 00 00 00 00 40 08 07 00 00 00 00 00 	00000000@0000000
  0x628c0	0b 00 00 00 ff ff ff ff 00 00 00 00 40 00 00 00 	000000000000@000
  0x628d0	f0 2b 06 00 00 00 00 00 00 00 00 00 00 00 00 00 	0+00000000000000
  0x628e0	00 00 00 00 00 00 00 00 01 00 00 00 20 29 06 00 	000000000000 )00
  0x628f0	00 00 00 00 00 00 00 00 01 00 00 00 00 00 00 00 	0000000000000000
  0x62900	00 00 00 00 10 00 07 00 a8 2a 06 00 f8 28 06 00 	000000000*000(00
  0x62910	00 00 00 00 00 00 00 00 00 00 00 00 00 00 00 00 	0000000000000000
  0x62920	88 26 06 00 00 00 00 00 00 00 00 00 00 00 00 00 	0&00000000000000
  0x62930	d0 00 07 00 08 00 00 00 00 00 00 00 ff ff ff ff 	0000000000000000
  0x62940	00 00 00 00 40 00 00 00 10 2b 06 00 00 00 00 00 	0000@0000+000000
  0x62950	00 00 00 00 00 00 00 00 00 00 00 00 01 00 00 00 	0000000000000000
  0x62960	0f 00 00 00 70 36 06 00 00 00 00 00 00 00 00 00 	0000p60000000000
  0x62970	58 2c 06 00 f0 34 06 00 38 34 06 00 e8 25 06 00 	X,00040084000%00
  0x62980	60 31 06 00 40 30 06 00 c0 2c 06 00 c8 2d 06 00 	`100@0000,000-00
  0x62990	78 2d 06 00 e0 37 06 00 80 2a 06 00 90 37 06 00 	x-0007000*000700
  0x629a0	28 39 06 00 00 00 00 00 00 00 00 00 00 00 00 00 	(900000000000000
  0x629b0	00 00 00 00 00 00 00 00 00 00 00 00 00 00 00 00 	0000000000000000
  0x629c0	00 00 00 00 00 00 00 00 00 00 00 00 00 00 00 00 	0000000000000000
  0x629d0	00 00 00 00 00 00 00 00 00 00 00 00 00 00 00 00 	0000000000000000
  0x629e0	01 00 00 00 00 00 00 00 00 00 00 00 80 08 07 00 	0000000000000000
  0x629f0	a8 2b 06 00 e0 29 06 00 00 00 00 00 00 00 00 00 	0+000)0000000000
  0x62a00	00 00 00 00 00 00 00 00 f0 3b 06 00 00 00 00 00 	000000000;000000
  0x62a10	00 00 00 00 00 00 00 00 00 00 00 00 00 00 00 00 	0000000000000000
  0x62a20	58 3a 06 00 18 3c 06 00 28 3b 06 00 a8 35 06 00 	X:000<00(;000500
  0x62a30	58 32 06 00 30 38 06 00 a0 2d 06 00 e0 39 06 00 	X20008000-000900
  0x62a40	c0 2f 06 00 68 37 06 00 b8 28 06 00 00 00 00 00 	0/00h7000(000000
  0x62a50	00 00 00 00 00 00 00 00 00 00 00 00 00 00 00 00 	0000000000000000
  0x62a60	00 00 00 00 00 00 00 00 00 00 00 00 00 00 00 00 	0000000000000000
  0x62a70	00 00 00 00 00 00 00 00 00 00 00 00 00 00 00 00 	0000000000000000
  0x62a80	e0 06 07 00 01 00 00 00 11 00 00 00 ff ff ff ff 	0000000000000000
  0x62a90	00 00 00 00 40 00 00 00 78 3b 06 00 00 00 00 00 	0000@000x;000000
  0x62aa0	00 00 00 00 00 00 00 00 00 00 00 00 00 00 00 00 	0000000000000000
  0x62ab0	03 00 00 00 d0 3b 06 00 00 00 00 00 00 00 00 00 	00000;0000000000
  0x62ac0	01 00 00 00 00 00 00 00 00 00 00 00 98 00 07 00 	0000000000000000
  0x62ad0	58 29 06 00 c0 2a 06 00 00 00 00 00 00 00 00 00 	X)000*0000000000
  0x62ae0	00 00 00 00 00 00 00 00 80 f6 06 00 02 00 00 00 	0000000000000000
  0x62af0	00 00 00 00 ff ff ff ff 00 00 00 00 40 00 00 00 	000000000000@000
  0x62b00	b0 31 06 00 00 00 00 00 00 00 00 00 00 00 00 00 	0100000000000000
  0x62b10	00 00 00 00 01 00 00 00 09 00 00 00 b0 38 06 00 	0000000000000800
  0x62b20	00 00 00 00 00 00 00 00 00 00 00 00 00 00 00 00 	0000000000000000
  0x62b30	80 2e 06 00 58 2c 06 00 f0 34 06 00 38 34 06 00 	0.00X,0004008400
  0x62b40	e8 25 06 00 60 31 06 00 40 30 06 00 c0 2c 06 00 	0%00`100@0000,00
  0x62b50	c8 2d 06 00 78 2d 06 00 e0 37 06 00 80 2a 06 00 	0-00x-0007000*00
  0x62b60	90 37 06 00 28 39 06 00 00 00 00 00 00 00 00 00 	0700(90000000000
  0x62b70	00 00 00 00 00 00 00 00 00 00 00 00 00 00 00 00 	0000000000000000
  0x62b80	00 00 00 00 00 00 00 00 00 00 00 00 00 00 00 00 	0000000000000000
  0x62b90	00 00 00 00 00 00 00 00 00 00 00 00 00 00 00 00 	0000000000000000
  0x62ba0	00 00 00 00 00 00 00 00 00 00 00 00 01 00 00 00 	0000000000000000
  0x62bb0	0f 00 00 00 e0 26 06 00 00 00 00 00 00 00 00 00 	00000&0000000000
  0x62bc0	00 00 00 00 00 00 00 00 01 00 00 00 08 38 06 00 	0000000000000800
  0x62bd0	00 00 00 00 00 00 00 00 18 2e 06 00 30 38 06 00 	000000000.000800
  0x62be0	00 00 00 00 00 00 00 00 00 00 00 00 00 00 00 00 	0000000000000000
  0x62bf0	00 00 00 00 00 00 00 00 01 00 00 00 f8 35 06 00 	0000000000000500
  0x62c00	00 00 00 00 00 00 00 00 80 08 07 00 0e 00 00 00 	0000000000000000
  0x62c10	00 00 00 00 ff ff ff ff 00 00 00 00 40 00 00 00 	000000000000@000
  0x62c20	a8 2b 06 00 00 00 00 00 00 00 00 00 00 00 00 00 	0+00000000000000
  0x62c30	70 f7 06 00 00 00 00 00 00 00 00 00 ff ff ff ff 	p000000000000000
  0x62c40	00 00 00 00 40 00 00 00 30 36 06 00 00 00 00 00 	0000@00006000000
  0x62c50	00 00 00 00 00 00 00 00 20 ff 06 00 0c 00 00 00 	00000000 0000000
  0x62c60	00 00 00 00 ff ff ff ff 00 00 00 00 40 00 00 00 	000000000000@000
  0x62c70	d8 33 06 00 00 00 00 00 00 00 00 00 00 00 00 00 	0300000000000000
  0x62c80	00 00 00 00 00 00 00 00 02 00 00 00 00 30 06 00 	0000000000000000
  0x62c90	00 00 00 00 00 00 00 00 b0 08 07 00 00 00 00 00 	0000000000000000
  0x62ca0	00 00 00 00 ff ff ff ff 00 00 00 00 40 00 00 00 	000000000000@000
  0x62cb0	40 2d 06 00 00 00 00 00 00 00 00 00 00 00 00 00 	@-00000000000000
  0x62cc0	90 f8 06 00 03 00 00 00 08 00 00 00 ff ff ff ff 	0000000000000000
  0x62cd0	00 00 00 00 40 00 00 00 18 38 06 00 00 00 00 00 	0000@00008000000
  0x62ce0	00 00 00 00 00 00 00 00 00 00 00 00 01 00 00 00 	0000000000000000
  0x62cf0	0c 00 00 00 40 2f 06 00 00 00 00 00 00 00 00 00 	0000@/0000000000
  0x62d00	30 07 07 00 03 00 00 00 00 00 00 00 ff ff ff ff 	0000000000000000
  0x62d10	00 00 00 00 40 00 00 00 58 38 06 00 00 00 00 00 	0000@000X8000000
  0x62d20	00 00 00 00 00 00 00 00 00 00 00 00 00 00 00 00 	0000000000000000
  0x62d30	02 00 00 00 a0 27 06 00 00 00 00 00 00 00 00 00 	00000'0000000000
  0x62d40	00 00 00 00 00 00 00 00 01 00 00 00 c0 3b 06 00 	0000000000000;00
  0x62d50	00 00 00 00 00 00 00 00 e8 25 06 00 60 31 06 00 	000000000%00`100
  0x62d60	30 38 06 00 00 00 00 00 00 00 00 00 00 00 00 00 	0800000000000000
  0x62d70	00 00 00 00 00 00 00 00 18 f9 06 00 00 00 00 00 	0000000000000000
  0x62d80	08 00 00 00 ff ff ff ff 00 00 00 00 42 00 00 00 	000000000000B000
  0x62d90	c0 2b 06 00 00 00 00 00 00 00 00 00 00 00 00 00 	0+00000000000000
  0x62da0	70 f7 06 00 00 00 00 00 08 00 00 00 ff ff ff ff 	p000000000000000
  0x62db0	00 00 00 00 40 00 00 00 30 36 06 00 00 00 00 00 	0000@00006000000
  0x62dc0	00 00 00 00 00 00 00 00 58 f8 06 00 01 00 00 00 	00000000X0000000
  0x62dd0	08 00 00 00 ff ff ff ff 00 00 00 00 40 00 00 00 	000000000000@000
  0x62de0	d8 34 06 00 00 00 00 00 00 00 00 00 00 00 00 00 	0400000000000000
  0x62df0	01 00 00 00 00 00 00 00 00 00 00 00 00 fe 06 00 	0000000000000000
  0x62e00	e8 2c 06 00 f0 2d 06 00 00 00 00 00 00 00 00 00 	0,000-0000000000
  0x62e10	00 00 00 00 00 00 00 00 e0 f7 06 00 01 00 00 00 	0000000000000000
  0x62e20	00 00 00 00 ff ff ff ff 00 00 00 00 40 00 00 00 	000000000000@000
  0x62e30	60 26 06 00 00 00 00 00 00 00 00 00 00 00 00 00 	`&00000000000000
  0x62e40	01 00 00 00 00 00 00 00 00 00 00 00 50 03 07 00 	000000000000P000
  0x62e50	20 34 06 00 40 2e 06 00 00 00 00 00 00 00 00 00 	 400@.0000000000
  0x62e60	00 00 00 00 00 00 00 00 00 00 00 00 01 00 00 00 	0000000000000000
  0x62e70	0e 00 00 00 30 2b 06 00 00 00 00 00 00 00 00 00 	00000+0000000000
  0x62e80	40 fe 06 00 0d 00 00 00 00 00 00 00 ff ff ff ff 	@000000000000000
  0x62e90	00 00 00 00 40 00 00 00 68 2e 06 00 00 00 00 00 	0000@000h.000000
  0x62ea0	00 00 00 00 00 00 00 00 00 00 00 00 00 00 00 00 	0000000000000000
  0x62eb0	b8 39 06 00 30 29 06 00 00 2d 06 00 18 2e 06 00 	09000)000-000.00
  0x62ec0	30 38 06 00 88 31 06 00 18 35 06 00 c0 2f 06 00 	0800010005000/00
  0x62ed0	68 37 06 00 b8 28 06 00 00 00 00 00 00 00 00 00 	h7000(0000000000
  0x62ee0	00 00 00 00 00 00 00 00 00 00 00 00 00 00 00 00 	0000000000000000
  0x62ef0	00 00 00 00 00 00 00 00 00 00 00 00 00 00 00 00 	0000000000000000
  0x62f00	00 00 00 00 00 00 00 00 58 f8 06 00 01 00 00 00 	00000000X0000000
  0x62f10	00 00 00 00 ff ff ff ff 00 00 00 00 40 00 00 00 	000000000000@000
  0x62f20	d8 34 06 00 00 00 00 00 00 00 00 00 00 00 00 00 	0400000000000000
  0x62f30	80 3a 06 00 00 00 00 00 00 00 00 00 00 00 00 00 	0:00000000000000
  0x62f40	80 32 06 00 b8 39 06 00 30 29 06 00 00 2d 06 00 	020009000)000-00
  0x62f50	18 2e 06 00 30 38 06 00 88 31 06 00 18 35 06 00 	0.00080001000500
  0x62f60	c0 2f 06 00 68 37 06 00 b8 28 06 00 b8 37 06 00 	0/00h7000(000700
  0x62f70	00 00 00 00 00 00 00 00 00 00 00 00 00 00 00 00 	0000000000000000
  0x62f80	00 00 00 00 00 00 00 00 00 00 00 00 00 00 00 00 	0000000000000000
  0x62f90	00 00 00 00 00 00 00 00 00 00 00 00 00 00 00 00 	0000000000000000
  0x62fa0	00 00 00 00 00 00 00 00 00 00 00 00 01 00 00 00 	0000000000000000
  0x62fb0	0a 00 00 00 80 34 06 00 00 00 00 00 00 00 00 00 	0000040000000000
  0x62fc0	38 f9 06 00 00 00 00 00 09 00 00 00 ff ff ff ff 	8000000000000000
  0x62fd0	00 00 00 00 4d 00 00 00 48 31 06 00 00 00 00 00 	0000M000H1000000
  0x62fe0	00 00 00 00 00 00 00 00 00 00 00 00 00 00 00 00 	0000000000000000
  0x62ff0	01 00 00 00 08 2a 06 00 00 00 00 00 00 00 00 00 	00000*0000000000
  0x63000	18 32 06 00 08 3a 06 00 00 00 00 00 00 00 00 00 	02000:0000000000
  0x63010	00 00 00 00 00 00 00 00 90 f8 06 00 03 00 00 00 	0000000000000000
  0x63020	00 00 00 00 ff ff ff ff 00 00 00 00 40 00 00 00 	000000000000@000
  0x63030	18 38 06 00 00 00 00 00 00 00 00 00 00 00 00 00 	0800000000000000
  0x63040	18 f9 06 00 00 00 00 00 00 00 00 00 ff ff ff ff 	0000000000000000
  0x63050	00 00 00 00 42 00 00 00 c0 2b 06 00 00 00 00 00 	0000B0000+000000
  0x63060	00 00 00 00 00 00 00 00 00 00 00 00 01 00 00 00 	0000000000000000
  0x63070	09 00 00 00 e0 27 06 00 00 00 00 00 00 00 00 00 	00000'0000000000
  0x63080	18 33 06 00 78 39 06 00 30 3a 06 00 e8 2a 06 00 	0300x9000:000*00
  0x63090	60 31 06 00 40 30 06 00 c0 2c 06 00 c8 2d 06 00 	`100@0000,000-00
  0x630a0	78 2d 06 00 e0 37 06 00 80 2a 06 00 90 37 06 00 	x-0007000*000700
  0x630b0	28 39 06 00 00 00 00 00 00 00 00 00 00 00 00 00 	(900000000000000
  0x630c0	00 00 00 00 00 00 00 00 00 00 00 00 00 00 00 00 	0000000000000000
  0x630d0	00 00 00 00 00 00 00 00 00 00 00 00 00 00 00 00 	0000000000000000
  0x630e0	00 00 00 00 00 00 00 00 00 00 00 00 00 00 00 00 	0000000000000000
  0x630f0	01 00 00 00 08 00 00 00 00 00 00 00 80 08 07 00 	0000000000000000
  0x63100	a8 2b 06 00 f0 30 06 00 00 00 00 00 00 00 00 00 	0+00000000000000
  0x63110	00 00 00 00 00 00 00 00 00 00 00 00 01 00 00 00 	0000000000000000
  0x63120	0a 00 00 00 b0 2e 06 00 00 00 00 00 00 00 00 00 	00000.0000000000
  0x63130	40 33 06 00 08 3a 06 00 00 00 00 00 00 00 00 00 	@3000:0000000000
  0x63140	00 00 00 00 00 00 00 00 00 00 00 00 00 00 00 00 	0000000000000000
  0x63150	01 00 00 00 08 32 06 00 00 00 00 00 00 00 00 00 	0000020000000000
  0x63160	68 fc 06 00 01 00 00 00 00 00 00 00 ff ff ff ff 	h000000000000000
  0x63170	00 00 00 00 40 00 00 00 a0 39 06 00 00 00 00 00 	0000@00009000000
  0x63180	00 00 00 00 00 00 00 00 b0 08 07 00 00 00 00 00 	0000000000000000
  0x63190	08 00 00 00 ff ff ff ff 00 00 00 00 40 00 00 00 	000000000000@000
  0x631a0	40 2d 06 00 00 00 00 00 00 00 00 00 00 00 00 00 	@-00000000000000
  0x631b0	00 00 00 00 00 00 00 00 03 00 00 00 88 38 06 00 	0000000000000800
  0x631c0	00 00 00 00 00 00 00 00 00 00 00 00 01 00 00 00 	0000000000000000
  0x631d0	0b 00 00 00 20 2a 06 00 00 00 00 00 00 00 00 00 	0000 *0000000000
  0x631e0	38 34 06 00 e8 25 06 00 60 31 06 00 30 38 06 00 	84000%00`1000800
  0x631f0	00 00 00 00 00 00 00 00 00 00 00 00 00 00 00 00 	0000000000000000
  0x63200	00 00 00 00 00 00 00 00 50 39 06 00 00 00 00 00 	00000000P9000000
  0x63210	00 00 00 00 00 00 00 00 10 f8 06 00 01 00 00 00 	0000000000000000
  0x63220	00 00 00 00 ff ff ff ff 00 00 00 00 40 00 00 00 	000000000000@000
  0x63230	80 2c 06 00 00 00 00 00 00 00 00 00 00 00 00 00 	0,00000000000000
  0x63240	00 00 00 00 00 00 00 00 02 00 00 00 00 33 06 00 	0000000000000300
  0x63250	00 00 00 00 00 00 00 00 c0 f9 06 00 01 00 00 00 	0000000000000000
  0x63260	00 00 00 00 ff ff ff ff 00 00 00 00 40 00 00 00 	000000000000@000
  0x63270	40 32 06 00 00 00 00 00 00 00 00 00 00 00 00 00 	@200000000000000
  0x63280	00 fe 06 00 0b 00 00 00 00 00 00 00 ff ff ff ff 	0000000000000000
  0x63290	00 00 00 00 40 00 00 00 e8 2c 06 00 00 00 00 00 	0000@0000,000000
  0x632a0	00 00 00 00 00 00 00 00 00 00 00 00 00 00 00 00 	0000000000000000
  0x632b0	f0 34 06 00 38 34 06 00 e8 25 06 00 60 31 06 00 	040084000%00`100
  0x632c0	40 30 06 00 c0 2c 06 00 c8 2d 06 00 78 2d 06 00 	@0000,000-00x-00
  0x632d0	e0 37 06 00 00 00 00 00 00 00 00 00 00 00 00 00 	0700000000000000
  0x632e0	00 00 00 00 00 00 00 00 00 00 00 00 00 00 00 00 	0000000000000000
  0x632f0	00 00 00 00 00 00 00 00 00 00 00 00 00 00 00 00 	0000000000000000
  0x63300	58 32 06 00 30 38 06 00 00 00 00 00 00 00 00 00 	X200080000000000
  0x63310	00 00 00 00 00 00 00 00 f0 05 07 00 0c 00 00 00 	0000000000000000
  0x63320	00 00 00 00 ff ff ff ff 00 00 00 00 40 00 00 00 	000000000000@000
  0x63330	40 35 06 00 00 00 00 00 00 00 00 00 00 00 00 00 	@500000000000000
  0x63340	e0 06 07 00 01 00 00 00 00 00 00 00 ff ff ff ff 	0000000000000000
  0x63350	00 00 00 00 40 00 00 00 78 3b 06 00 00 00 00 00 	0000@000x;000000
  0x63360	00 00 00 00 00 00 00 00 00 00 00 00 00 00 00 00 	0000000000000000
  0x63370	00 39 06 00 58 3a 06 00 18 3c 06 00 28 3b 06 00 	0900X:000<00(;00
  0x63380	a8 35 06 00 58 32 06 00 30 38 06 00 a0 2d 06 00 	0500X20008000-00
  0x63390	e0 39 06 00 c0 2f 06 00 68 37 06 00 b8 28 06 00 	09000/00h7000(00
  0x633a0	00 00 00 00 00 00 00 00 00 00 00 00 00 00 00 00 	0000000000000000
  0x633b0	00 00 00 00 00 00 00 00 00 00 00 00 00 00 00 00 	0000000000000000
  0x633c0	00 00 00 00 00 00 00 00 00 00 00 00 00 00 00 00 	0000000000000000
  0x633d0	00 00 00 00 00 00 00 00 00 00 00 00 01 00 00 00 	0000000000000000
  0x633e0	0d 00 00 00 70 29 06 00 00 00 00 00 00 00 00 00 	0000p)0000000000
  0x633f0	00 00 00 00 00 00 00 00 04 00 00 00 e0 31 06 00 	0000000000000100
  0x63400	00 00 00 00 00 00 00 00 00 00 00 00 00 00 00 00 	0000000000000000
  0x63410	04 00 00 00 d0 35 06 00 00 00 00 00 00 00 00 00 	0000050000000000
  0x63420	00 00 00 00 01 00 00 00 0c 00 00 00 70 33 06 00 	000000000000p300
  0x63430	00 00 00 00 00 00 00 00 b0 07 07 00 03 00 00 00 	0000000000000000
  0x63440	00 00 00 00 ff ff ff ff 00 00 00 00 40 00 00 00 	000000000000@000
  0x63450	f0 33 06 00 00 00 00 00 00 00 00 00 00 00 00 00 	0300000000000000
  0x63460	00 00 00 00 00 00 00 00 03 00 00 00 58 2d 06 00 	000000000000X-00
  0x63470	00 00 00 00 00 00 00 00 00 00 00 00 00 00 00 00 	0000000000000000
  0x63480	18 3c 06 00 28 3b 06 00 a8 35 06 00 58 32 06 00 	0<00(;000500X200
  0x63490	30 38 06 00 a0 2d 06 00 e0 39 06 00 c0 2f 06 00 	08000-0009000/00
  0x634a0	68 37 06 00 b8 28 06 00 00 00 00 00 00 00 00 00 	h7000(0000000000
  0x634b0	00 00 00 00 00 00 00 00 00 00 00 00 00 00 00 00 	0000000000000000
  0x634c0	00 00 00 00 00 00 00 00 00 00 00 00 00 00 00 00 	0000000000000000
  0x634d0	00 00 00 00 00 00 00 00 00 00 00 00 00 00 00 00 	0000000000000000
  0x634e0	02 00 00 00 70 38 06 00 00 00 00 00 00 00 00 00 	0000p80000000000
  0x634f0	60 01 07 00 08 00 00 00 00 00 00 00 ff ff ff ff 	`000000000000000
  0x63500	00 00 00 00 40 00 00 00 a8 3b 06 00 00 00 00 00 	0000@0000;000000
  0x63510	00 00 00 00 00 00 00 00 60 04 07 00 01 00 00 00 	00000000`0000000
  0x63520	09 00 00 00 ff ff ff ff 00 00 00 00 40 00 00 00 	000000000000@000
  0x63530	28 2d 06 00 00 00 00 00 00 00 00 00 00 00 00 00 	(-00000000000000
  0x63540	00 00 00 00 01 00 00 00 0d 00 00 00 80 30 06 00 	0000000000000000
  0x63550	00 00 00 00 00 00 00 00 01 00 00 00 00 00 00 00 	0000000000000000
  0x63560	00 00 00 00 90 fc 06 00 c8 31 06 00 58 35 06 00 	000000000100X500
  0x63570	00 00 00 00 00 00 00 00 00 00 00 00 00 00 00 00 	0000000000000000
  0x63580	18 30 06 00 08 2f 06 00 30 38 06 00 38 26 06 00 	00000/0008008&00
  0x63590	00 00 00 00 00 00 00 00 00 00 00 00 00 00 00 00 	0000000000000000
  0x635a0	00 00 00 00 00 00 00 00 10 00 07 00 02 00 00 00 	0000000000000000
  0x635b0	00 00 00 00 ff ff ff ff 00 00 00 00 40 00 00 00 	000000000000@000
  0x635c0	a8 2a 06 00 00 00 00 00 00 00 00 00 00 00 00 00 	0*00000000000000
  0x635d0	30 3a 06 00 e8 2a 06 00 60 31 06 00 30 38 06 00 	0:000*00`1000800
  0x635e0	00 00 00 00 00 00 00 00 00 00 00 00 00 00 00 00 	0000000000000000
  0x635f0	00 00 00 00 00 00 00 00 30 28 06 00 00 00 00 00 	000000000(000000
  0x63600	00 00 00 00 00 00 00 00 01 00 00 00 00 00 00 00 	0000000000000000
  0x63610	00 00 00 00 90 fb 06 00 a0 28 06 00 08 36 06 00 	000000000(000600
  0x63620	00 00 00 00 00 00 00 00 00 00 00 00 00 00 00 00 	0000000000000000
  0x63630	00 00 00 00 00 00 00 00 01 00 00 00 78 26 06 00 	000000000000x&00
  0x63640	00 00 00 00 00 00 00 00 01 00 00 00 00 00 00 00 	0000000000000000
  0x63650	00 00 00 00 40 fe 06 00 68 2e 06 00 48 36 06 00 	0000@000h.00H600
  0x63660	00 00 00 00 00 00 00 00 00 00 00 00 00 00 00 00 	0000000000000000
  0x63670	50 3b 06 00 40 37 06 00 18 33 06 00 78 39 06 00 	P;00@7000300x900
  0x63680	30 3a 06 00 e8 2a 06 00 60 31 06 00 40 30 06 00 	0:000*00`100@000
  0x63690	c0 2c 06 00 c8 2d 06 00 78 2d 06 00 e0 37 06 00 	0,000-00x-000700
  0x636a0	80 2a 06 00 90 37 06 00 28 39 06 00 00 00 00 00 	0*000700(9000000
  0x636b0	00 00 00 00 00 00 00 00 00 00 00 00 00 00 00 00 	0000000000000000
  0x636c0	00 00 00 00 00 00 00 00 00 00 00 00 00 00 00 00 	0000000000000000
  0x636d0	00 00 00 00 00 00 00 00 00 00 00 00 00 00 00 00 	0000000000000000
  0x636e0	00 00 00 00 00 00 00 00 00 00 00 00 00 00 00 00 	0000000000000000
  0x636f0	01 00 00 00 08 00 00 00 00 00 00 00 98 00 07 00 	0000000000000000
  0x63700	58 29 06 00 f0 36 06 00 00 00 00 00 00 00 00 00 	X)00060000000000
  0x63710	00 00 00 00 00 00 00 00 00 2d 06 00 18 2e 06 00 	000000000-000.00
  0x63720	30 38 06 00 88 31 06 00 00 00 00 00 00 00 00 00 	0800010000000000
  0x63730	00 00 00 00 00 00 00 00 00 00 00 00 00 00 00 00 	0000000000000000
  0x63740	90 fb 06 00 0d 00 00 00 00 00 00 00 ff ff ff ff 	0000000000000000
  0x63750	00 00 00 00 40 00 00 00 a0 28 06 00 00 00 00 00 	0000@0000(000000
  0x63760	00 00 00 00 00 00 00 00 b0 05 07 00 00 00 00 00 	0000000000000000
  0x63770	0a 00 00 00 ff ff ff ff 00 00 00 00 4d 00 00 00 	000000000000M000
  0x63780	60 27 06 00 00 00 00 00 00 00 00 00 00 00 00 00 	`'00000000000000
  0x63790	38 f9 06 00 00 00 00 00 11 00 00 00 ff ff ff ff 	8000000000000000
  0x637a0	00 00 00 00 4d 00 00 00 48 31 06 00 00 00 00 00 	0000M000H1000000
  0x637b0	00 00 00 00 00 00 00 00 78 f9 06 00 00 00 00 00 	00000000x0000000
  0x637c0	10 00 00 00 ff ff ff ff 00 00 00 00 40 00 00 00 	000000000000@000
  0x637d0	e0 28 06 00 00 00 00 00 00 00 00 00 00 00 00 00 	0(00000000000000
  0x637e0	90 09 07 00 00 00 00 00 10 00 00 00 ff ff ff ff 	0000000000000000
  0x637f0	00 00 00 00 40 00 00 00 e8 2f 06 00 00 00 00 00 	0000@0000/000000
  0x63800	00 00 00 00 00 00 00 00 30 38 06 00 00 00 00 00 	0000000008000000
  0x63810	00 00 00 00 00 00 00 00 00 00 00 00 01 00 00 00 	0000000000000000
  0x63820	04 00 00 00 80 35 06 00 00 00 00 00 00 00 00 00 	0000050000000000
  0x63830	18 f9 06 00 00 00 00 00 00 00 00 00 ff ff ff ff 	0000000000000000
  0x63840	00 00 00 00 40 00 00 00 c0 2b 06 00 00 00 00 00 	0000@0000+000000
  0x63850	00 00 00 00 00 00 00 00 00 00 00 00 01 00 00 00 	0000000000000000
  0x63860	04 00 00 00 18 37 06 00 00 00 00 00 00 00 00 00 	0000070000000000
  0x63870	08 2f 06 00 30 38 06 00 00 00 00 00 00 00 00 00 	0/00080000000000
  0x63880	00 00 00 00 00 00 00 00 e8 2a 06 00 60 31 06 00 	000000000*00`100
  0x63890	30 38 06 00 00 00 00 00 00 00 00 00 00 00 00 00 	0800000000000000
  0x638a0	00 00 00 00 00 00 00 00 00 00 00 00 00 00 00 00 	0000000000000000
  0x638b0	30 29 06 00 00 2d 06 00 18 2e 06 00 30 38 06 00 	0)000-000.000800
  0x638c0	88 31 06 00 18 35 06 00 c0 2f 06 00 68 37 06 00 	010005000/00h700
  0x638d0	b8 28 06 00 00 00 00 00 00 00 00 00 00 00 00 00 	0(00000000000000
  0x638e0	00 00 00 00 00 00 00 00 00 00 00 00 00 00 00 00 	0000000000000000
  0x638f0	00 00 00 00 00 00 00 00 00 00 00 00 00 00 00 00 	0000000000000000
  0x63900	50 03 07 00 0b 00 00 00 00 00 00 00 ff ff ff ff 	P000000000000000
  0x63910	00 00 00 00 40 00 00 00 20 34 06 00 00 00 00 00 	0000@000 4000000
  0x63920	00 00 00 00 00 00 00 00 40 08 07 00 00 00 00 00 	00000000@0000000
  0x63930	12 00 00 00 ff ff ff ff 00 00 00 00 40 00 00 00 	000000000000@000
  0x63940	f0 2b 06 00 00 00 00 00 00 00 00 00 00 00 00 00 	0+00000000000000
  0x63950	38 f9 06 00 00 00 00 00 00 00 00 00 ff ff ff ff 	8000000000000000
  0x63960	00 00 00 00 40 00 00 00 48 31 06 00 00 00 00 00 	0000@000H1000000
  0x63970	00 00 00 00 00 00 00 00 b0 04 07 00 08 00 00 00 	0000000000000000
  0x63980	00 00 00 00 ff ff ff ff 00 00 00 00 40 00 00 00 	000000000000@000
  0x63990	68 30 06 00 00 00 00 00 00 00 00 00 00 00 00 00 	h000000000000000
  0x639a0	00 00 00 00 00 00 00 00 02 00 00 00 90 3b 06 00 	0000000000000;00
  0x639b0	00 00 00 00 00 00 00 00 20 09 07 00 09 00 00 00 	00000000 0000000
  0x639c0	00 00 00 00 ff ff ff ff 00 00 00 00 40 00 00 00 	000000000000@000
  0x639d0	18 31 06 00 00 00 00 00 00 00 00 00 00 00 00 00 	0100000000000000
  0x639e0	10 f8 06 00 01 00 00 00 09 00 00 00 ff ff ff ff 	0000000000000000
  0x639f0	00 00 00 00 40 00 00 00 80 2c 06 00 00 00 00 00 	0000@0000,000000
  0x63a00	00 00 00 00 00 00 00 00 38 f9 06 00 00 00 00 00 	0000000080000000
  0x63a10	00 00 00 00 ff ff ff ff 00 00 00 00 4d 00 00 00 	000000000000M000
  0x63a20	48 31 06 00 00 00 00 00 00 00 00 00 00 00 00 00 	H100000000000000
  0x63a30	70 fd 06 00 03 00 00 00 00 00 00 00 ff ff ff ff 	p000000000000000
  0x63a40	00 00 00 00 40 00 00 00 08 34 06 00 00 00 00 00 	0000@00004000000
  0x63a50	00 00 00 00 00 00 00 00 90 fc 06 00 0a 00 00 00 	0000000000000000
  0x63a60	00 00 00 00 ff ff ff ff 00 00 00 00 40 00 00 00 	000000000000@000
  0x63a70	c8 31 06 00 00 00 00 00 00 00 00 00 00 00 00 00 	0100000000000000
  0x63a80	b0 05 07 00 00 00 00 00 00 00 00 00 ff ff ff ff 	0000000000000000
  0x63a90	00 00 00 00 40 00 00 00 60 27 06 00 00 00 00 00 	0000@000`'000000
  0x63aa0	00 00 00 00 00 00 00 00 00 00 00 00 00 00 00 00 	0000000000000000
  0x63ab0	40 37 06 00 18 33 06 00 78 39 06 00 30 3a 06 00 	@7000300x9000:00
  0x63ac0	e8 2a 06 00 60 31 06 00 40 30 06 00 c0 2c 06 00 	0*00`100@0000,00
  0x63ad0	c8 2d 06 00 78 2d 06 00 e0 37 06 00 80 2a 06 00 	0-00x-0007000*00
  0x63ae0	90 37 06 00 28 39 06 00 00 00 00 00 00 00 00 00 	0700(90000000000
  0x63af0	00 00 00 00 00 00 00 00 00 00 00 00 00 00 00 00 	0000000000000000
  0x63b00	00 00 00 00 00 00 00 00 00 00 00 00 00 00 00 00 	0000000000000000
  0x63b10	00 00 00 00 00 00 00 00 00 00 00 00 00 00 00 00 	0000000000000000
  0x63b20	00 00 00 00 00 00 00 00 00 0a 07 00 04 00 00 00 	0000000000000000
  0x63b30	00 00 00 00 ff ff ff ff 00 00 00 00 40 00 00 00 	000000000000@000
  0x63b40	88 28 06 00 00 00 00 00 00 00 00 00 00 00 00 00 	0(00000000000000
  0x63b50	98 00 07 00 0e 00 00 00 00 00 00 00 ff ff ff ff 	0000000000000000
  0x63b60	00 00 00 00 40 00 00 00 58 29 06 00 00 00 00 00 	0000@000X)000000
  0x63b70	00 00 00 00 00 00 00 00 00 00 00 00 00 00 00 00 	0000000000000000
  0x63b80	02 00 00 00 30 31 06 00 00 00 00 00 00 00 00 00 	0000010000000000
  0x63b90	60 31 06 00 30 38 06 00 00 00 00 00 00 00 00 00 	`100080000000000
  0x63ba0	00 00 00 00 00 00 00 00 00 00 00 00 05 00 00 00 	0000000000000000
  0x63bb0	09 00 00 00 b0 32 06 00 00 00 00 00 00 00 00 00 	0000020000000000
  0x63bc0	98 2c 06 00 00 00 00 00 00 00 00 00 00 00 00 00 	0,00000000000000
  0x63bd0	a8 35 06 00 58 32 06 00 30 38 06 00 00 00 00 00 	0500X20008000000
  0x63be0	00 00 00 00 00 00 00 00 00 00 00 00 00 00 00 00 	0000000000000000
  0x63bf0	90 09 07 00 00 00 00 00 00 00 00 00 ff ff ff ff 	0000000000000000
  0x63c00	00 00 00 00 40 00 00 00 e8 2f 06 00 00 00 00 00 	0000@0000/000000
  0x63c10	00 00 00 00 00 00 00 00 60 02 07 00 09 00 00 00 	00000000`0000000
  0x63c20	00 00 00 00 ff ff ff ff 00 00 00 00 40 00 00 00 	000000000000@000
  0x63c30	a8 2f 06 00 00 00 00 00 00 00 00 00 00 00 00 00 	0/00000000000000
  0x63c40	01 00 00 00 00 00 00 00 00 00 00 00 b0 e9 06 00 	0000000000000000
  0x63c50	c8 0e 06 00 40 3c 06 00 00 00 00 00 00 00 00 00 	0000@<0000000000
  0x63c60	00 00 00 00 00 00 00 00 78 3c 06 00 00 00 00 00 	00000000x<000000
  0x63c70	00 00 00 00 00 00 00 00 e8 0a 07 00 00 00 00 00 	0000000000000000
  0x63c80	00 00 00 00 ff ff ff ff 00 00 00 00 40 00 00 00 	000000000000@000
  0x63c90	a0 3c 06 00 00 00 00 00 00 00 00 00 00 00 00 00 	0<00000000000000
  0x63ca0	00 00 00 00 00 00 00 00 01 00 00 00 68 3c 06 00 	000000000000h<00
  0x63cb0	00 00 00 00 00 00 00 00 01 00 00 00 00 00 00 00 	0000000000000000
  0x63cc0	00 00 00 00 e8 0a 07 00 a0 3c 06 00 b8 3c 06 00 	000000000<000<00
  0x63cd0	00 00 00 00 00 00 00 00 00 00 00 00 00 00 00 00 	0000000000000000
  0x63ce0	08 3d 06 00 30 3d 06 00 00 00 00 00 00 00 00 00 	0=000=0000000000
  0x63cf0	00 00 00 00 00 00 00 00 58 3d 06 00 00 00 00 00 	00000000X=000000
  0x63d00	00 00 00 00 00 00 00 00 08 0b 07 00 01 00 00 00 	0000000000000000
  0x63d10	00 00 00 00 ff ff ff ff 00 00 00 00 40 00 00 00 	000000000000@000
  0x63d20	80 3d 06 00 00 00 00 00 00 00 00 00 00 00 00 00 	0=00000000000000
  0x63d30	30 0b 07 00 00 00 00 00 08 00 00 00 ff ff ff ff 	0000000000000000
  0x63d40	00 00 00 00 40 00 00 00 98 3d 06 00 00 00 00 00 	0000@0000=000000
  0x63d50	00 00 00 00 00 00 00 00 30 0b 07 00 00 00 00 00 	0000000000000000
  0x63d60	00 00 00 00 ff ff ff ff 00 00 00 00 40 00 00 00 	000000000000@000
  0x63d70	98 3d 06 00 00 00 00 00 00 00 00 00 00 00 00 00 	0=00000000000000
  0x63d80	00 00 00 00 00 00 00 00 02 00 00 00 e0 3c 06 00 	0000000000000<00
  0x63d90	00 00 00 00 00 00 00 00 00 00 00 00 00 00 00 00 	0000000000000000
  0x63da0	01 00 00 00 f8 3c 06 00 00 00 00 00 00 00 00 00 	00000<0000000000
  0x63db0	01 00 00 00 00 00 00 00 00 00 00 00 08 0b 07 00 	0000000000000000
  0x63dc0	80 3d 06 00 b0 3d 06 00 00 00 00 00 00 00 00 00 	0=000=0000000000
  0x63dd0	00 00 00 00 00 00 00 00 01 00 00 00 00 00 00 00 	0000000000000000
  0x63de0	00 00 00 00 b0 ec 06 00 18 17 06 00 d8 3d 06 00 	0000000000000=00
  0x63df0	00 00 00 00 00 00 00 00 00 00 00 00 00 00 00 00 	0000000000000000
  0x63e00	01 00 00 00 00 00 00 00 00 00 00 00 58 ec 06 00 	000000000000X000
  0x63e10	e8 16 06 00 00 3e 06 00 00 00 00 00 00 00 00 00 	00000>0000000000
  0x63e20	00 00 00 00 00 00 00 00 01 00 00 00 00 00 00 00 	0000000000000000
  0x63e30	00 00 00 00 98 ee 06 00 70 1b 06 00 28 3e 06 00 	00000000p000(>00
  0x63e40	00 00 00 00 00 00 00 00 00 00 00 00 00 00 00 00 	0000000000000000
  0x63e50	c0 0b 07 00 02 00 00 00 00 00 00 00 ff ff ff ff 	0000000000000000
  0x63e60	00 00 00 00 40 00 00 00 c8 3e 06 00 00 00 00 00 	0000@0000>000000
  0x63e70	00 00 00 00 00 00 00 00 01 00 00 00 00 00 00 00 	0000000000000000
  0x63e80	00 00 00 00 10 0c 07 00 e0 3f 06 00 78 3e 06 00 	000000000?00x>00
  0x63e90	00 00 00 00 00 00 00 00 00 00 00 00 00 00 00 00 	0000000000000000
  0x63ea0	60 0b 07 00 03 00 00 00 00 00 00 00 ff ff ff ff 	`000000000000000
  0x63eb0	00 00 00 00 40 00 00 00 e0 3e 06 00 00 00 00 00 	0000@0000>000000
  0x63ec0	00 00 00 00 00 00 00 00 00 00 00 00 00 00 00 00 	0000000000000000
  0x63ed0	03 00 00 00 58 3f 06 00 00 00 00 00 00 00 00 00 	0000X?0000000000
  0x63ee0	00 00 00 00 00 00 00 00 04 00 00 00 f8 3e 06 00 	0000000000000>00
  0x63ef0	00 00 00 00 00 00 00 00 a0 3e 06 00 50 3e 06 00 	000000000>00P>00
  0x63f00	78 3f 06 00 b8 3f 06 00 00 00 00 00 00 00 00 00 	x?000?0000000000
  0x63f10	00 00 00 00 00 00 00 00 00 00 00 00 00 00 00 00 	0000000000000000
  0x63f20	b8 3f 06 00 00 00 00 00 00 00 00 00 00 00 00 00 	0?00000000000000
  0x63f30	01 00 00 00 00 00 00 00 00 00 00 00 60 0b 07 00 	000000000000`000
  0x63f40	e0 3e 06 00 30 3f 06 00 00 00 00 00 00 00 00 00 	0>000?0000000000
  0x63f50	00 00 00 00 00 00 00 00 50 3e 06 00 78 3f 06 00 	00000000P>00x?00
  0x63f60	b8 3f 06 00 00 00 00 00 00 00 00 00 00 00 00 00 	0?00000000000000
  0x63f70	00 00 00 00 00 00 00 00 90 0b 07 00 01 00 00 00 	0000000000000000
  0x63f80	00 00 00 00 ff ff ff ff 00 00 00 00 40 00 00 00 	000000000000@000
  0x63f90	a0 3f 06 00 00 00 00 00 00 00 00 00 00 00 00 00 	0?00000000000000
  0x63fa0	00 00 00 00 00 00 00 00 02 00 00 00 f8 3f 06 00 	0000000000000?00
  0x63fb0	00 00 00 00 00 00 00 00 10 0c 07 00 00 00 00 00 	0000000000000000
  0x63fc0	00 00 00 00 ff ff ff ff 00 00 00 00 40 00 00 00 	000000000000@000
  0x63fd0	e0 3f 06 00 00 00 00 00 00 00 00 00 00 00 00 00 	0?00000000000000
  0x63fe0	00 00 00 00 00 00 00 00 01 00 00 00 20 3f 06 00 	000000000000 ?00
  0x63ff0	00 00 00 00 00 00 00 00 78 3f 06 00 b8 3f 06 00 	00000000x?000?00
  0x64000	00 00 00 00 00 00 00 00 00 00 00 00 00 00 00 00 	0000000000000000
  0x64010	01 00 00 00 00 00 00 00 00 00 00 00 08 e7 06 00 	0000000000000000
  0x64020	78 40 06 00 10 40 06 00 00 00 00 00 00 00 00 00 	x@000@0000000000
  0x64030	00 00 00 00 00 00 00 00 00 00 00 00 00 00 00 00 	0000000000000000
  0x64040	02 00 00 00 90 40 06 00 00 00 00 00 00 00 00 00 	00000@0000000000
  0x64050	08 e7 06 00 02 00 00 00 00 00 00 00 ff ff ff ff 	0000000000000000
  0x64060	00 00 00 00 40 00 00 00 78 40 06 00 00 00 00 00 	0000@000x@000000
  0x64070	00 00 00 00 00 00 00 00 00 00 00 00 00 00 00 00 	0000000000000000
  0x64080	03 00 00 00 a8 40 06 00 00 00 00 00 00 00 00 00 	00000@0000000000
  0x64090	c8 40 06 00 a0 10 06 00 00 00 00 00 00 00 00 00 	0@00000000000000
  0x640a0	00 00 00 00 00 00 00 00 50 40 06 00 c8 40 06 00 	00000000P@000@00
  0x640b0	a0 10 06 00 00 00 00 00 00 00 00 00 00 00 00 00 	0000000000000000
  0x640c0	00 00 00 00 00 00 00 00 40 e7 06 00 01 00 00 00 	00000000@0000000
  0x640d0	00 00 00 00 ff ff ff ff 00 00 00 00 40 00 00 00 	000000000000@000
  0x640e0	38 40 06 00 00 00 00 00 00 00 00 00 00 00 00 00 	8@00000000000000
  0x640f0	01 00 00 00 00 00 00 00 00 00 00 00 40 e7 06 00 	000000000000@000
  0x64100	38 40 06 00 f0 40 06 00 00 00 00 00 00 00 00 00 	8@000@0000000000
  0x64110	00 00 00 00 00 00 00 00 00 00 00 00 00 00 00 00 	0000000000000000
  0x64120	02 00 00 00 a8 43 06 00 00 00 00 00 00 00 00 00 	00000C0000000000
  0x64130	78 42 06 00 50 41 06 00 b8 3f 06 00 00 00 00 00 	xB00PA000?000000
  0x64140	00 00 00 00 00 00 00 00 00 00 00 00 00 00 00 00 	0000000000000000
  0x64150	40 0c 07 00 01 00 00 00 00 00 00 00 ff ff ff ff 	@000000000000000
  0x64160	00 00 00 00 40 00 00 00 c0 43 06 00 00 00 00 00 	0000@0000C000000
  0x64170	00 00 00 00 00 00 00 00 08 0d 07 00 01 00 00 00 	0000000000000000
  0x64180	00 00 00 00 ff ff ff ff 00 00 00 00 40 00 00 00 	000000000000@000
  0x64190	18 41 06 00 00 00 00 00 00 00 00 00 00 00 00 00 	0A00000000000000
  0x641a0	00 00 00 00 00 00 00 00 03 00 00 00 88 43 06 00 	0000000000000C00
  0x641b0	00 00 00 00 00 00 00 00 00 00 00 00 00 00 00 00 	0000000000000000
  0x641c0	02 00 00 00 f8 41 06 00 00 00 00 00 00 00 00 00 	00000A0000000000
  0x641d0	b0 0c 07 00 02 00 00 00 00 00 00 00 ff ff ff ff 	0000000000000000
  0x641e0	00 00 00 00 40 00 00 00 a0 41 06 00 00 00 00 00 	0000@0000A000000
  0x641f0	00 00 00 00 00 00 00 00 a0 42 06 00 e8 23 06 00 	000000000B000#00
  0x64200	00 00 00 00 00 00 00 00 00 00 00 00 00 00 00 00 	0000000000000000
  0x64210	78 0c 07 00 03 00 00 00 00 00 00 00 ff ff ff ff 	x000000000000000
  0x64220	00 00 00 00 40 00 00 00 c8 42 06 00 00 00 00 00 	0000@0000B000000
  0x64230	00 00 00 00 00 00 00 00 50 41 06 00 b8 3f 06 00 	00000000PA000?00
  0x64240	00 00 00 00 00 00 00 00 00 00 00 00 00 00 00 00 	0000000000000000
  0x64250	10 42 06 00 d0 41 06 00 78 41 06 00 b8 3f 06 00 	0B000A00xA000?00
  0x64260	00 00 00 00 00 00 00 00 00 00 00 00 00 00 00 00 	0000000000000000
  0x64270	00 00 00 00 00 00 00 00 d0 0d 07 00 02 00 00 00 	0000000000000000
  0x64280	00 00 00 00 ff ff ff ff 00 00 00 00 40 00 00 00 	000000000000@000
  0x64290	e0 42 06 00 00 00 00 00 00 00 00 00 00 00 00 00 	0B00000000000000
  0x642a0	80 0d 07 00 01 00 00 00 00 00 00 00 ff ff ff ff 	0000000000000000
  0x642b0	00 00 00 00 40 00 00 00 b8 41 06 00 00 00 00 00 	0000@0000A000000
  0x642c0	00 00 00 00 00 00 00 00 00 00 00 00 00 00 00 00 	0000000000000000
  0x642d0	04 00 00 00 50 42 06 00 00 00 00 00 00 00 00 00 	0000PB0000000000
  0x642e0	00 00 00 00 00 00 00 00 03 00 00 00 30 41 06 00 	0000000000000A00
  0x642f0	00 00 00 00 00 00 00 00 01 00 00 00 00 00 00 00 	0000000000000000
  0x64300	00 00 00 00 80 0d 07 00 b8 41 06 00 f8 42 06 00 	000000000A000B00
  0x64310	00 00 00 00 00 00 00 00 00 00 00 00 00 00 00 00 	0000000000000000
  0x64320	01 00 00 00 00 00 00 00 00 00 00 00 48 0d 07 00 	000000000000H000
  0x64330	48 43 06 00 20 43 06 00 00 00 00 00 00 00 00 00 	HC00 C0000000000
  0x64340	00 00 00 00 00 00 00 00 00 00 00 00 00 00 00 00 	0000000000000000
  0x64350	04 00 00 00 d8 43 06 00 00 00 00 00 00 00 00 00 	00000C0000000000
  0x64360	01 00 00 00 00 00 00 00 00 00 00 00 78 0c 07 00 	000000000000x000
  0x64370	c8 42 06 00 60 43 06 00 00 00 00 00 00 00 00 00 	0B00`C0000000000
  0x64380	00 00 00 00 00 00 00 00 d0 41 06 00 78 41 06 00 	000000000A00xA00
  0x64390	b8 3f 06 00 00 00 00 00 00 00 00 00 00 00 00 00 	0?00000000000000
  0x643a0	00 00 00 00 00 00 00 00 78 41 06 00 b8 3f 06 00 	00000000xA000?00
  0x643b0	00 00 00 00 00 00 00 00 00 00 00 00 00 00 00 00 	0000000000000000
  0x643c0	00 00 00 00 00 00 00 00 02 00 00 00 38 42 06 00 	0000000000008B00
  0x643d0	00 00 00 00 00 00 00 00 00 44 06 00 78 42 06 00 	000000000D00xB00
  0x643e0	50 41 06 00 b8 3f 06 00 00 00 00 00 00 00 00 00 	PA000?0000000000
  0x643f0	00 00 00 00 00 00 00 00 00 00 00 00 00 00 00 00 	0000000000000000
  0x64400	48 0d 07 00 03 00 00 00 00 00 00 00 ff ff ff ff 	H000000000000000
  0x64410	00 00 00 00 40 00 00 00 48 43 06 00 00 00 00 00 	0000@000HC000000
  0x64420	00 00 00 00 00 00 00 00 40 46 06 00 18 46 06 00 	00000000@F000F00
  0x64430	e8 23 06 00 00 00 00 00 00 00 00 00 00 00 00 00 	0#00000000000000
  0x64440	00 00 00 00 00 00 00 00 01 00 00 00 00 00 00 00 	0000000000000000
  0x64450	00 00 00 00 40 0f 07 00 b8 46 06 00 48 44 06 00 	0000@0000F00HD00
  0x64460	00 00 00 00 00 00 00 00 00 00 00 00 00 00 00 00 	0000000000000000
  0x64470	00 00 00 00 00 00 00 00 03 00 00 00 a0 44 06 00 	0000000000000D00
  0x64480	00 00 00 00 00 00 00 00 00 00 00 00 00 00 00 00 	0000000000000000
  0x64490	03 00 00 00 68 46 06 00 00 00 00 00 00 00 00 00 	0000hF0000000000
  0x644a0	f8 44 06 00 18 46 06 00 e8 23 06 00 00 00 00 00 	0D000F000#000000
  0x644b0	00 00 00 00 00 00 00 00 00 00 00 00 00 00 00 00 	0000000000000000
  0x644c0	18 46 06 00 e8 23 06 00 00 00 00 00 00 00 00 00 	0F000#0000000000
  0x644d0	00 00 00 00 00 00 00 00 20 45 06 00 48 45 06 00 	00000000 E00HE00
  0x644e0	e8 23 06 00 00 00 00 00 00 00 00 00 00 00 00 00 	0#00000000000000
  0x644f0	00 00 00 00 00 00 00 00 80 0f 07 00 02 00 00 00 	0000000000000000
  0x64500	00 00 00 00 ff ff ff ff 00 00 00 00 40 00 00 00 	000000000000@000
  0x64510	70 44 06 00 00 00 00 00 00 00 00 00 00 00 00 00 	pD00000000000000
  0x64520	60 0e 07 00 02 00 00 00 00 00 00 00 ff ff ff ff 	`000000000000000
  0x64530	00 00 00 00 40 00 00 00 98 45 06 00 00 00 00 00 	0000@0000E000000
  0x64540	00 00 00 00 00 00 00 00 28 0e 07 00 01 00 00 00 	00000000(0000000
  0x64550	00 00 00 00 ff ff ff ff 00 00 00 00 40 00 00 00 	000000000000@000
  0x64560	00 46 06 00 00 00 00 00 00 00 00 00 00 00 00 00 	0F00000000000000
  0x64570	01 00 00 00 00 00 00 00 00 00 00 00 b0 0e 07 00 	0000000000000000
  0x64580	88 44 06 00 70 45 06 00 00 00 00 00 00 00 00 00 	0D00pE0000000000
  0x64590	00 00 00 00 00 00 00 00 00 00 00 00 00 00 00 00 	0000000000000000
  0x645a0	03 00 00 00 d8 44 06 00 00 00 00 00 00 00 00 00 	00000D0000000000
  0x645b0	01 00 00 00 00 00 00 00 00 00 00 00 80 0f 07 00 	0000000000000000
  0x645c0	70 44 06 00 b0 45 06 00 00 00 00 00 00 00 00 00 	pD000E0000000000
  0x645d0	00 00 00 00 00 00 00 00 01 00 00 00 00 00 00 00 	0000000000000000
  0x645e0	00 00 00 00 60 0e 07 00 98 45 06 00 d8 45 06 00 	0000`0000E000E00
  0x645f0	00 00 00 00 00 00 00 00 00 00 00 00 00 00 00 00 	0000000000000000
  0x64600	00 00 00 00 00 00 00 00 02 00 00 00 88 46 06 00 	0000000000000F00
  0x64610	00 00 00 00 00 00 00 00 08 0f 07 00 01 00 00 00 	0000000000000000
  0x64620	00 00 00 00 ff ff ff ff 00 00 00 00 40 00 00 00 	000000000000@000
  0x64630	a0 46 06 00 00 00 00 00 00 00 00 00 00 00 00 00 	0F00000000000000
  0x64640	40 0f 07 00 02 00 00 00 00 00 00 00 ff ff ff ff 	@000000000000000
  0x64650	00 00 00 00 40 00 00 00 b8 46 06 00 00 00 00 00 	0000@0000F000000
  0x64660	00 00 00 00 00 00 00 00 d0 46 06 00 48 45 06 00 	000000000F00HE00
  0x64670	e8 23 06 00 00 00 00 00 00 00 00 00 00 00 00 00 	0#00000000000000
  0x64680	00 00 00 00 00 00 00 00 48 45 06 00 e8 23 06 00 	00000000HE000#00
  0x64690	00 00 00 00 00 00 00 00 00 00 00 00 00 00 00 00 	0000000000000000
  0x646a0	00 00 00 00 00 00 00 00 02 00 00 00 c0 44 06 00 	0000000000000D00
  0x646b0	00 00 00 00 00 00 00 00 00 00 00 00 00 00 00 00 	0000000000000000
  0x646c0	03 00 00 00 28 44 06 00 00 00 00 00 00 00 00 00 	0000(D0000000000
  0x646d0	b0 0e 07 00 02 00 00 00 00 00 00 00 ff ff ff ff 	0000000000000000
  0x646e0	00 00 00 00 40 00 00 00 88 44 06 00 00 00 00 00 	0000@0000D000000
  0x646f0	00 00 00 00 00 00 00 00 38 47 06 00 e8 23 06 00 	000000008G000#00
  0x64700	00 00 00 00 00 00 00 00 00 00 00 00 00 00 00 00 	0000000000000000
  0x64710	01 00 00 00 00 00 00 00 00 00 00 00 b8 0f 07 00 	0000000000000000
  0x64720	b8 47 06 00 10 47 06 00 00 00 00 00 00 00 00 00 	0G000G0000000000
  0x64730	00 00 00 00 00 00 00 00 f0 0f 07 00 01 00 00 00 	0000000000000000
  0x64740	00 00 00 00 ff ff ff ff 00 00 00 00 40 00 00 00 	000000000000@000
  0x64750	78 47 06 00 00 00 00 00 00 00 00 00 00 00 00 00 	xG00000000000000
  0x64760	d0 47 06 00 e8 23 06 00 00 00 00 00 00 00 00 00 	0G000#0000000000
  0x64770	00 00 00 00 00 00 00 00 00 00 00 00 00 00 00 00 	0000000000000000
  0x64780	02 00 00 00 f8 46 06 00 00 00 00 00 00 00 00 00 	00000F0000000000
  0x64790	01 00 00 00 00 00 00 00 00 00 00 00 f0 0f 07 00 	0000000000000000
  0x647a0	78 47 06 00 90 47 06 00 00 00 00 00 00 00 00 00 	xG000G0000000000
  0x647b0	00 00 00 00 00 00 00 00 00 00 00 00 00 00 00 00 	0000000000000000
  0x647c0	02 00 00 00 60 47 06 00 00 00 00 00 00 00 00 00 	0000`G0000000000
  0x647d0	b8 0f 07 00 01 00 00 00 00 00 00 00 ff ff ff ff 	0000000000000000
  0x647e0	00 00 00 00 40 00 00 00 b8 47 06 00 00 00 00 00 	0000@0000G000000
  0x647f0	00 00 00 00 00 00 00 00 01 00 00 00 00 00 00 00 	0000000000000000
  0x64800	00 00 00 00 60 10 07 00 a8 48 06 00 f8 47 06 00 	0000`0000H000G00
  0x64810	00 00 00 00 00 00 00 00 00 00 00 00 00 00 00 00 	0000000000000000
  0x64820	00 00 00 00 00 00 00 00 02 00 00 00 c0 48 06 00 	0000000000000H00
  0x64830	00 00 00 00 00 00 00 00 80 48 06 00 58 48 06 00 	000000000H00XH00
  0x64840	30 3d 06 00 00 00 00 00 00 00 00 00 00 00 00 00 	0=00000000000000
  0x64850	00 00 00 00 00 00 00 00 28 10 07 00 01 00 00 00 	00000000(0000000
  0x64860	00 00 00 00 ff ff ff ff 00 00 00 00 40 00 00 00 	000000000000@000
  0x64870	20 48 06 00 00 00 00 00 00 00 00 00 00 00 00 00 	 H00000000000000
  0x64880	60 10 07 00 02 00 00 00 00 00 00 00 ff ff ff ff 	`000000000000000
  0x64890	00 00 00 00 40 00 00 00 a8 48 06 00 00 00 00 00 	0000@0000H000000
  0x648a0	00 00 00 00 00 00 00 00 00 00 00 00 00 00 00 00 	0000000000000000
  0x648b0	03 00 00 00 38 48 06 00 00 00 00 00 00 00 00 00 	00008H0000000000
  0x648c0	58 48 06 00 30 3d 06 00 00 00 00 00 00 00 00 00 	XH000=0000000000
  0x648d0	00 00 00 00 00 00 00 00 01 00 00 00 00 00 00 00 	0000000000000000
  0x648e0	00 00 00 00 28 10 07 00 20 48 06 00 d8 48 06 00 	0000(000 H000H00
  0x648f0	00 00 00 00 00 00 00 00 00 00 00 00 00 00 00 00 	0000000000000000
  0x64900	a0 10 07 00 03 00 00 00 00 00 00 00 ff ff ff ff 	0000000000000000
  0x64910	00 00 00 00 40 00 00 00 78 49 06 00 00 00 00 00 	0000@000xI000000
  0x64920	00 00 00 00 00 00 00 00 01 00 00 00 00 00 00 00 	0000000000000000
  0x64930	00 00 00 00 a0 10 07 00 78 49 06 00 28 49 06 00 	00000000xI00(I00
  0x64940	00 00 00 00 00 00 00 00 00 00 00 00 00 00 00 00 	0000000000000000
  0x64950	00 49 06 00 50 3e 06 00 78 3f 06 00 b8 3f 06 00 	0I00P>00x?000?00
  0x64960	00 00 00 00 00 00 00 00 00 00 00 00 00 00 00 00 	0000000000000000
  0x64970	00 00 00 00 00 00 00 00 00 00 00 00 00 00 00 00 	0000000000000000
  0x64980	04 00 00 00 50 49 06 00 00 00 00 00 00 00 00 00 	0000PI0000000000
  0x64990	01 00 00 00 00 00 00 00 00 00 00 00 d0 e7 06 00 	0000000000000000
  0x649a0	b8 49 06 00 90 49 06 00 00 00 00 00 00 00 00 00 	0I000I0000000000
  0x649b0	00 00 00 00 00 00 00 00 00 00 00 00 00 00 00 00 	0000000000000000
  0x649c0	02 00 00 00 d0 49 06 00 00 00 00 00 00 00 00 00 	00000I0000000000
  0x649d0	e8 49 06 00 a0 10 06 00 00 00 00 00 00 00 00 00 	0I00000000000000
  0x649e0	00 00 00 00 00 00 00 00 d0 e7 06 00 01 00 00 00 	0000000000000000
  0x649f0	00 00 00 00 ff ff ff ff 00 00 00 00 40 00 00 00 	000000000000@000
  0x64a00	b8 49 06 00 00 00 00 00 00 00 00 00 00 00 00 00 	0I00000000000000
  0x64a10	01 00 00 00 00 00 00 00 00 00 00 00 a8 e7 06 00 	0000000000000000
  0x64a20	38 4a 06 00 10 4a 06 00 00 00 00 00 00 00 00 00 	8J000J0000000000
  0x64a30	00 00 00 00 00 00 00 00 00 00 00 00 00 00 00 00 	0000000000000000
  0x64a40	02 00 00 00 50 4a 06 00 00 00 00 00 00 00 00 00 	0000PJ0000000000
  0x64a50	68 4a 06 00 a0 10 06 00 00 00 00 00 00 00 00 00 	hJ00000000000000
  0x64a60	00 00 00 00 00 00 00 00 a8 e7 06 00 01 00 00 00 	0000000000000000
  0x64a70	00 00 00 00 ff ff ff ff 00 00 00 00 40 00 00 00 	000000000000@000
  0x64a80	38 4a 06 00 00 00 00 00 00 00 00 00 00 00 00 00 	8J00000000000000
  0x64a90	01 00 00 00 00 00 00 00 00 00 00 00 78 e7 06 00 	000000000000x000
  0x64aa0	b8 4a 06 00 90 4a 06 00 00 00 00 00 00 00 00 00 	0J000J0000000000
  0x64ab0	00 00 00 00 00 00 00 00 00 00 00 00 00 00 00 00 	0000000000000000
  0x64ac0	03 00 00 00 d0 4a 06 00 00 00 00 00 00 00 00 00 	00000J0000000000
  0x64ad0	f0 4a 06 00 68 4a 06 00 a0 10 06 00 00 00 00 00 	0J00hJ0000000000
  0x64ae0	00 00 00 00 00 00 00 00 00 00 00 00 00 00 00 00 	0000000000000000
  0x64af0	78 e7 06 00 02 00 00 00 00 00 00 00 ff ff ff ff 	x000000000000000
  0x64b00	00 00 00 00 40 00 00 00 b8 4a 06 00 00 00 00 00 	0000@0000J000000
  0x64b10	00 00 00 00 18 00 00 00 02 80 02 80 2c 4b 06 00 	000000000000,K00
  0x64b20	c8 05 00 00 f4 50 06 00 58 00 00 00 ef 16 00 00 	00000P00X0000000
  0x64b30	7a 86 01 00 a0 86 01 00 9d 8d 01 00 9d 8e 01 00 	z000000000000000
  0x64b40	c2 90 01 00 d9 90 01 00 04 91 01 00 1d 92 01 00 	0000000000000000
  0x64b50	60 94 01 00 1d 95 01 00 97 98 01 00 8b 99 01 00 	`000000000000000
  0x64b60	60 9a 01 00 e0 9a 01 00 f2 a3 01 00 9a c0 01 00 	`000000000000000
  0x64b70	1b c1 01 00 5e c1 01 00 a8 c1 01 00 3b cb 01 00 	0000^0000000;000
  0x64b80	55 ef 01 00 5c ef 01 00 cf ef 01 00 d6 ef 01 00 	U000000000000000
  0x64b90	b6 f1 01 00 d4 f1 01 00 f4 f1 01 00 fc f1 01 00 	0000000000000000
  0x64ba0	70 f2 01 00 8e f2 01 00 a7 f2 01 00 af f2 01 00 	p000000000000000
  0x64bb0	56 f4 01 00 74 f4 01 00 94 f4 01 00 9c f4 01 00 	V000t00000000000
  0x64bc0	46 f8 01 00 7f f8 01 00 a1 f8 01 00 a9 f8 01 00 	F000000000000000
  0x64bd0	e9 f8 01 00 00 f9 01 00 3e f9 01 00 56 f9 01 00 	00000000>000V000
  0x64be0	5d f9 01 00 9e f9 01 00 a7 7a 02 00 f5 7a 02 00 	]00000000z000z00
  0x64bf0	f7 7e 02 00 5d 7f 02 00 64 7f 02 00 75 7f 02 00 	0~00]000d000u000
  0x64c00	a5 8f 02 00 bd 8f 02 00 8a 98 02 00 a8 98 02 00 	0000000000000000
  0x64c10	02 9a 02 00 37 9a 02 00 32 9d 02 00 d9 c9 02 00 	0000700020000000
  0x64c20	0b cb 02 00 96 cb 02 00 fa cb 02 00 0a ce 02 00 	0000000000000000
  0x64c30	1f ce 02 00 2c ce 02 00 3e ce 02 00 2b d0 02 00 	0000,000>000+000
  0x64c40	5c d0 02 00 3d d3 02 00 e5 d3 02 00 78 d4 02 00 	0000=0000000x000
  0x64c50	b4 d4 02 00 72 d5 02 00 9a d6 02 00 be d6 02 00 	0000r00000000000
  0x64c60	f3 d6 02 00 33 d7 02 00 b4 d7 02 00 cc d7 02 00 	0000300000000000
  0x64c70	f9 d7 02 00 3b d8 02 00 6f d8 02 00 7d de 02 00 	0000;000o000}000
  0x64c80	4b e1 02 00 a2 e1 02 00 ec e1 02 00 3d e2 02 00 	K00000000000=000
  0x64c90	7c e2 02 00 0e e3 02 00 76 e3 02 00 94 0d 03 00 	|0000000v0000000
  0x64ca0	9c 0d 03 00 a4 0d 03 00 ac 0d 03 00 b4 0d 03 00 	0000000000000000
  0x64cb0	bc 0d 03 00 c4 0d 03 00 cc 0d 03 00 d4 0d 03 00 	0000000000000000
  0x64cc0	d8 0d 03 00 dc 0d 03 00 e0 0d 03 00 e4 0d 03 00 	0000000000000000
  0x64cd0	e8 0d 03 00 86 5e 03 00 aa 5e 03 00 70 64 03 00 	00000^000^00pd00
  0x64ce0	78 64 03 00 52 7b 03 00 56 7d 03 00 26 7e 03 00 	xd00R{00V}00&~00
  0x64cf0	a9 84 03 00 4f 89 03 00 8d 89 03 00 28 8a 03 00 	0000O0000000(000
  0x64d00	57 8a 03 00 88 8a 03 00 ce 8a 03 00 d3 96 03 00 	W000000000000000
  0x64d10	6c 9d 03 00 92 9d 03 00 a0 9d 03 00 b0 9d 03 00 	l000000000000000
  0x64d20	bf 9d 03 00 ce 9d 03 00 dd 9d 03 00 ff 9d 03 00 	0000000000000000
  0x64d30	12 9e 03 00 ba 9f 03 00 e5 9f 03 00 18 a0 03 00 	0000000000000000
  0x64d40	3d a0 03 00 4e a0 03 00 5e a0 03 00 6e a0 03 00 	=000N000^000n000
  0x64d50	7e a0 03 00 a1 a0 03 00 b5 a0 03 00 1d a3 03 00 	~000000000000000
  0x64d60	65 a3 03 00 26 a8 03 00 46 a9 03 00 74 a9 03 00 	e000&000F000t000
  0x64d70	dc cb 03 00 7d cc 03 00 b0 cc 03 00 3c cd 03 00 	0000}0000000<000
  0x64d80	4a ce 03 00 8b ce 03 00 95 ce 03 00 a0 ce 03 00 	J000000000000000
  0x64d90	21 cf 03 00 9e cf 03 00 ac cf 03 00 c0 cf 03 00 	!000000000000000
  0x64da0	08 dd 03 00 38 dd 03 00 88 ec 03 00 9c ec 03 00 	0000800000000000
  0x64db0	ac ec 03 00 bc f1 03 00 d8 f1 03 00 17 f7 03 00 	0000000000000000
  0x64dc0	1d f7 03 00 82 f7 03 00 87 f7 03 00 b8 f7 03 00 	0000000000000000
  0x64dd0	bd f7 03 00 ff ff 03 00 75 00 04 00 c1 02 04 00 	00000000u0000000
  0x64de0	34 03 04 00 a2 13 04 00 a9 13 04 00 8c 2d 04 00 	4000000000000-00
  0x64df0	91 2d 04 00 79 2e 04 00 7e 2e 04 00 8c 2e 04 00 	0-00y.00~.000.00
  0x64e00	90 2e 04 00 f1 2e 04 00 f6 2e 04 00 fc 32 04 00 	0.000.000.000200
  0x64e10	42 33 04 00 55 33 04 00 59 33 04 00 62 33 04 00 	B300U300Y300b300
  0x64e20	ba 33 04 00 9b 53 04 00 17 54 04 00 2c 54 04 00 	03000S000T00,T00
  0x64e30	92 57 04 00 c4 57 04 00 8c 5a 04 00 91 5a 04 00 	0W000W000Z000Z00
  0x64e40	db 5a 04 00 fd 5b 04 00 13 5c 04 00 b3 5d 04 00 	0Z000[0000000]00
  0x64e50	73 60 04 00 cf 60 04 00 60 72 04 00 aa a4 04 00 	s`000`00`r000000
  0x64e60	fd a6 04 00 84 b3 04 00 97 b3 04 00 10 ba 04 00 	0000000000000000
  0x64e70	39 ba 04 00 50 bc 04 00 dd c1 04 00 da c8 04 00 	9000P00000000000
  0x64e80	6f c9 04 00 da ca 04 00 81 cb 04 00 85 cb 04 00 	o000000000000000
  0x64e90	b9 cb 04 00 de cb 04 00 e3 cb 04 00 b4 cf 04 00 	0000000000000000
  0x64ea0	51 d4 04 00 5c d4 04 00 67 d4 04 00 71 d4 04 00 	Q0000000g000q000
  0x64eb0	78 d4 04 00 7d d4 04 00 d4 d4 04 00 e1 d4 04 00 	x000}00000000000
  0x64ec0	42 d5 04 00 50 d5 04 00 5b d5 04 00 ec d5 04 00 	B000P000[0000000
  0x64ed0	f7 d5 04 00 02 d6 04 00 0c d6 04 00 13 d6 04 00 	0000000000000000
  0x64ee0	18 d6 04 00 5c d6 04 00 69 d6 04 00 cc d6 04 00 	00000000i0000000
  0x64ef0	da d6 04 00 e5 d6 04 00 0b e6 04 00 11 e6 04 00 	0000000000000000
  0x64f00	46 e6 04 00 4e e6 04 00 73 e6 04 00 77 e6 04 00 	F000N000s000w000
  0x64f10	b8 ee 04 00 de ee 04 00 0f ef 04 00 35 ef 04 00 	0000000000005000
  0x64f20	66 ef 04 00 8e ef 04 00 3b f0 04 00 6a f0 04 00 	f0000000;000j000
  0x64f30	c8 f0 04 00 e6 f0 04 00 0a f1 04 00 5b f1 04 00 	000000000000[000
  0x64f40	7f f1 04 00 b5 f1 04 00 da f1 04 00 55 f2 04 00 	000000000000U000
  0x64f50	7b f2 04 00 bd f2 04 00 db f2 04 00 0b f3 04 00 	{000000000000000
  0x64f60	31 f3 04 00 56 f3 04 00 7c f3 04 00 a1 f3 04 00 	1000V000|0000000
  0x64f70	bf f3 04 00 ef f3 04 00 15 f4 04 00 52 f4 04 00 	000000000000R000
  0x64f80	7a f4 04 00 a3 f4 04 00 c9 f4 04 00 ee f4 04 00 	z000000000000000
  0x64f90	0c f5 04 00 30 f5 04 00 4e f5 04 00 8a f5 04 00 	00000000N0000000
  0x64fa0	af f5 04 00 ed f5 04 00 16 f6 04 00 4c f6 04 00 	000000000000L000
  0x64fb0	71 f6 04 00 27 f7 04 00 4c f7 04 00 7e f7 04 00 	q000'000L000~000
  0x64fc0	a4 f7 04 00 c9 f7 04 00 f1 f7 04 00 6b f8 04 00 	000000000000k000
  0x64fd0	90 f8 04 00 b6 f8 04 00 db f8 04 00 01 f9 04 00 	0000000000000000
  0x64fe0	2a f9 04 00 5e f9 04 00 87 f9 04 00 51 fa 04 00 	*000^0000000Q000
  0x64ff0	77 fa 04 00 a8 fa 04 00 dc fa 04 00 10 fb 04 00 	w000000000000000
  0x65000	4a fb 04 00 b7 fc 04 00 e6 fc 04 00 99 fe 04 00 	J000000000000000
  0x65010	c1 fe 04 00 02 ff 04 00 27 ff 04 00 59 ff 04 00 	00000000'000Y000
  0x65020	7d ff 04 00 a2 ff 04 00 08 01 05 00 31 01 05 00 	}000000000001000
  0x65030	65 01 05 00 8e 01 05 00 c2 01 05 00 eb 01 05 00 	e000000000000000
  0x65040	1f 02 05 00 45 02 05 00 6a 02 05 00 8f 02 05 00 	0000E000j0000000
  0x65050	c1 02 05 00 07 03 05 00 2c 03 05 00 51 03 05 00 	00000000,000Q000
  0x65060	bb 03 05 00 e1 03 05 00 29 05 05 00 4f 05 05 00 	00000000)000O000
  0x65070	11 06 05 00 14 06 05 00 34 08 05 00 38 08 05 00 	0000000040008000
  0x65080	3f 08 05 00 43 08 05 00 4f 08 05 00 56 08 05 00 	?000C000O000V000
  0x65090	60 08 05 00 67 08 05 00 ab 08 05 00 bf 08 05 00 	`000g00000000000
  0x650a0	d3 08 05 00 1a 09 05 00 3c 09 05 00 50 09 05 00 	00000000<000P000
  0x650b0	72 09 05 00 b9 09 05 00 db 09 05 00 e5 09 05 00 	r000000000000000
  0x650c0	ec 09 05 00 f0 09 05 00 fc 09 05 00 06 0a 05 00 	0000000000000000
  0x650d0	13 0a 05 00 20 0a 05 00 32 0a 05 00 3a 0a 05 00 	0000 0002000:000
  0x650e0	51 0a 05 00 58 0a 05 00 40 0d 05 00 b4 0d 05 00 	Q000X000@0000000
  0x650f0	c0 0d 05 00 00 10 00 00 e0 e7 03 00 8c fd 03 00 	0000000000000000
  0x65100	94 46 00 00 80 44 04 00 30 0e 00 00 e0 52 04 00 	0F000D0000000R00
  0x65110	30 08 00 00 70 5b 04 00 30 19 00 00 10 7d 04 00 	0000p[0000000}00
  0x65120	40 01 00 00 28 7f 04 00 18 34 00 00 84 b3 04 00 	@000(00004000000
  0x65130	bc 00 00 00 14 b6 04 00 2c 07 00 00 e0 bd 04 00 	00000000,0000000
  0x65140	50 30 00 00 70 ee 04 00 62 1f 00 00 00 00 00 00 	P000p000b0000000
  0x65150	45 54 57 30 10 00 00 01 86 0e 04 88 2b 05 8a bb 	ETW000000000+000
  0x65160	06 0b 05 02 00 00 00 00 00 40 00 00 20 00 00 41 	000000000@00 00A
  0x65170	63 74 69 76 69 74 79 53 74 6f 70 70 65 64 41 75 	ctivityStoppedAu
  0x65180	74 6f 6d 61 74 69 63 61 6c 6c 79 00 06 0b 05 00 	tomatically00000
  0x65190	00 00 00 00 00 40 00 00 f3 00 00 4d 53 52 54 2e 	00000@00000MSRT.
  0x651a0	46 69 6e 61 6c 69 7a 65 52 65 70 6f 72 74 69 6e 	FinalizeReportin
  0x651b0	67 2e 48 65 61 72 74 62 65 61 74 52 65 73 75 6c 	g.HeartbeatResul
  0x651c0	74 00 50 61 72 74 41 5f 50 72 69 76 54 61 67 73 	t0PartA_PrivTags
  0x651d0	00 0a 50 72 6f 64 75 63 74 47 75 69 64 00 01 45 	00ProductGuid00E
  0x651e0	6e 67 69 6e 65 56 65 72 73 69 6f 6e 00 01 53 69 	ngineVersion00Si
  0x651f0	67 56 65 72 73 69 6f 6e 00 01 41 70 70 56 65 72 	gVersion00AppVer
  0x65200	73 69 6f 6e 00 01 49 73 42 65 74 61 00 0d 49 73 	sion00IsBeta00Is
  0x65210	4d 61 6e 61 67 65 64 00 0d 49 73 50 61 73 73 69 	Managed00IsPassi
  0x65220	76 65 4d 6f 64 65 00 0d 49 73 53 78 73 50 61 73 	veMode00IsSxsPas
  0x65230	73 69 76 65 4d 6f 64 65 00 0d 53 68 6f 75 6c 64 	siveMode00Should
  0x65240	48 61 73 68 49 64 73 00 0d 45 6e 67 69 6e 65 52 	HashIds00EngineR
  0x65250	69 6e 67 00 08 43 61 6d 70 52 69 6e 67 00 08 53 	ing00CampRing00S
  0x65260	69 67 6e 61 74 75 72 65 52 69 6e 67 00 08 48 65 	ignatureRing00He
  0x65270	61 72 74 62 65 61 74 20 52 65 70 6f 72 74 69 6e 	artbeat Reportin
  0x65280	67 20 52 65 73 75 6c 74 00 87 0f 06 0b 05 00 00 	g Result00000000
  0x65290	00 00 00 00 40 00 00 ed 00 00 4d 53 52 54 2e 46 	0000@00000MSRT.F
  0x652a0	69 6e 61 6c 69 7a 65 52 65 70 6f 72 74 69 6e 67 	inalizeReporting
  0x652b0	2e 45 6e 67 69 6e 65 52 65 73 75 6c 74 00 50 61 	.EngineResult0Pa
  0x652c0	72 74 41 5f 50 72 69 76 54 61 67 73 00 0a 50 72 	rtA_PrivTags00Pr
  0x652d0	6f 64 75 63 74 47 75 69 64 00 01 45 6e 67 69 6e 	oductGuid00Engin
  0x652e0	65 56 65 72 73 69 6f 6e 00 01 53 69 67 56 65 72 	eVersion00SigVer
  0x652f0	73 69 6f 6e 00 01 41 70 70 56 65 72 73 69 6f 6e 	sion00AppVersion
  0x65300	00 01 49 73 42 65 74 61 00 0d 49 73 4d 61 6e 61 	00IsBeta00IsMana
  0x65310	67 65 64 00 0d 49 73 50 61 73 73 69 76 65 4d 6f 	ged00IsPassiveMo
  0x65320	64 65 00 0d 49 73 53 78 73 50 61 73 73 69 76 65 	de00IsSxsPassive
  0x65330	4d 6f 64 65 00 0d 53 68 6f 75 6c 64 48 61 73 68 	Mode00ShouldHash
  0x65340	49 64 73 00 0d 45 6e 67 69 6e 65 52 69 6e 67 00 	Ids00EngineRing0
  0x65350	08 43 61 6d 70 52 69 6e 67 00 08 53 69 67 6e 61 	0CampRing00Signa
  0x65360	74 75 72 65 52 69 6e 67 00 08 45 6e 67 69 6e 65 	tureRing00Engine
  0x65370	20 52 65 70 6f 72 74 69 6e 67 20 52 65 73 75 6c 	 Reporting Resul
  0x65380	74 00 87 0f 06 0b 05 00 00 00 00 00 00 40 00 00 	t000000000000@00
  0x65390	e1 00 00 4d 53 52 54 2e 46 69 6e 61 6c 69 7a 65 	000MSRT.Finalize
  0x653a0	52 65 70 6f 72 74 69 6e 67 2e 53 74 61 72 74 00 	Reporting.Start0
  0x653b0	50 61 72 74 41 5f 50 72 69 76 54 61 67 73 00 0a 	PartA_PrivTags00
  0x653c0	50 72 6f 64 75 63 74 47 75 69 64 00 01 45 6e 67 	ProductGuid00Eng
  0x653d0	69 6e 65 56 65 72 73 69 6f 6e 00 01 53 69 67 56 	ineVersion00SigV
  0x653e0	65 72 73 69 6f 6e 00 01 41 70 70 56 65 72 73 69 	ersion00AppVersi
  0x653f0	6f 6e 00 01 49 73 42 65 74 61 00 0d 49 73 4d 61 	on00IsBeta00IsMa
  0x65400	6e 61 67 65 64 00 0d 49 73 50 61 73 73 69 76 65 	naged00IsPassive
  0x65410	4d 6f 64 65 00 0d 49 73 53 78 73 50 61 73 73 69 	Mode00IsSxsPassi
  0x65420	76 65 4d 6f 64 65 00 0d 53 68 6f 75 6c 64 48 61 	veMode00ShouldHa
  0x65430	73 68 49 64 73 00 0d 45 6e 67 69 6e 65 52 69 6e 	shIds00EngineRin
  0x65440	67 00 08 43 61 6d 70 52 69 6e 67 00 08 53 69 67 	g00CampRing00Sig
  0x65450	6e 61 74 75 72 65 52 69 6e 67 00 08 22 52 65 70 	natureRing00"Rep
  0x65460	6f 72 74 69 6e 67 20 53 74 61 72 74 65 64 22 00 	orting Started"0
  0x65470	02 06 0b 05 00 00 00 00 00 00 40 00 00 f3 00 00 	0000000000@00000
  0x65480	4d 53 52 54 2e 54 69 74 61 6e 41 70 70 2e 46 6f 	MSRT.TitanApp.Fo
  0x65490	6c 64 65 72 43 6c 65 61 6e 75 70 52 65 73 75 6c 	lderCleanupResul
  0x654a0	74 00 50 61 72 74 41 5f 50 72 69 76 54 61 67 73 	t0PartA_PrivTags
  0x654b0	00 0a 50 72 6f 64 75 63 74 47 75 69 64 00 01 45 	00ProductGuid00E
  0x654c0	6e 67 69 6e 65 56 65 72 73 69 6f 6e 00 01 53 69 	ngineVersion00Si
  0x654d0	67 56 65 72 73 69 6f 6e 00 01 41 70 70 56 65 72 	gVersion00AppVer
  0x654e0	73 69 6f 6e 00 01 49 73 42 65 74 61 00 0d 49 73 	sion00IsBeta00Is
  0x654f0	4d 61 6e 61 67 65 64 00 0d 49 73 50 61 73 73 69 	Managed00IsPassi
  0x65500	76 65 4d 6f 64 65 00 0d 49 73 53 78 73 50 61 73 	veMode00IsSxsPas
  0x65510	73 69 76 65 4d 6f 64 65 00 0d 53 68 6f 75 6c 64 	siveMode00Should
  0x65520	48 61 73 68 49 64 73 00 0d 45 6e 67 69 6e 65 52 	HashIds00EngineR
  0x65530	69 6e 67 00 08 43 61 6d 70 52 69 6e 67 00 08 53 	ing00CampRing00S
  0x65540	69 67 6e 61 74 75 72 65 52 69 6e 67 00 08 68 72 	ignatureRing00hr
  0x65550	43 6c 65 61 6e 75 70 52 65 73 75 6c 74 00 87 0f 	CleanupResult000
  0x65560	46 6f 6c 64 65 72 73 43 6c 65 61 6e 65 64 00 08 	FoldersCleaned00
  0x65570	06 0b 05 00 00 00 00 00 00 40 00 00 f6 00 00 4d 	000000000@00000M
  0x65580	53 52 54 2e 54 69 74 61 6e 41 70 70 2e 52 43 53 	SRT.TitanApp.RCS
  0x65590	52 65 6d 65 64 69 61 74 69 6f 6e 52 65 73 75 6c 	RemediationResul
  0x655a0	74 00 50 61 72 74 41 5f 50 72 69 76 54 61 67 73 	t0PartA_PrivTags
  0x655b0	00 0a 50 72 6f 64 75 63 74 47 75 69 64 00 01 45 	00ProductGuid00E
  0x655c0	6e 67 69 6e 65 56 65 72 73 69 6f 6e 00 01 53 69 	ngineVersion00Si
  0x655d0	67 56 65 72 73 69 6f 6e 00 01 41 70 70 56 65 72 	gVersion00AppVer
  0x655e0	73 69 6f 6e 00 01 49 73 42 65 74 61 00 0d 49 73 	sion00IsBeta00Is
  0x655f0	4d 61 6e 61 67 65 64 00 0d 49 73 50 61 73 73 69 	Managed00IsPassi
  0x65600	76 65 4d 6f 64 65 00 0d 49 73 53 78 73 50 61 73 	veMode00IsSxsPas
  0x65610	73 69 76 65 4d 6f 64 65 00 0d 53 68 6f 75 6c 64 	siveMode00Should
  0x65620	48 61 73 68 49 64 73 00 0d 45 6e 67 69 6e 65 52 	HashIds00EngineR
  0x65630	69 6e 67 00 08 43 61 6d 70 52 69 6e 67 00 08 53 	ing00CampRing00S
  0x65640	69 67 6e 61 74 75 72 65 52 69 6e 67 00 08 53 68 	ignatureRing00Sh
  0x65650	6f 75 6c 64 52 65 6d 65 64 69 61 74 65 00 87 0f 	ouldRemediate000
  0x65660	68 72 43 6c 65 61 6e 75 70 52 65 73 75 6c 74 00 	hrCleanupResult0
  0x65670	87 0f 06 0b 05 02 00 00 00 00 00 40 00 00 d1 00 	00000000000@0000
  0x65680	00 4d 53 52 54 2e 54 69 74 61 6e 41 70 70 2e 53 	0MSRT.TitanApp.S
  0x65690	74 6f 70 00 50 61 72 74 41 5f 50 72 69 76 54 61 	top0PartA_PrivTa
  0x656a0	67 73 00 0a 50 72 6f 64 75 63 74 47 75 69 64 00 	gs00ProductGuid0
  0x656b0	01 45 6e 67 69 6e 65 56 65 72 73 69 6f 6e 00 01 	0EngineVersion00
  0x656c0	53 69 67 56 65 72 73 69 6f 6e 00 01 41 70 70 56 	SigVersion00AppV
  0x656d0	65 72 73 69 6f 6e 00 01 49 73 42 65 74 61 00 0d 	ersion00IsBeta00
  0x656e0	49 73 4d 61 6e 61 67 65 64 00 0d 49 73 50 61 73 	IsManaged00IsPas
  0x656f0	73 69 76 65 4d 6f 64 65 00 0d 49 73 53 78 73 50 	siveMode00IsSxsP
  0x65700	61 73 73 69 76 65 4d 6f 64 65 00 0d 53 68 6f 75 	assiveMode00Shou
  0x65710	6c 64 48 61 73 68 49 64 73 00 0d 45 6e 67 69 6e 	ldHashIds00Engin
  0x65720	65 52 69 6e 67 00 08 43 61 6d 70 52 69 6e 67 00 	eRing00CampRing0
  0x65730	08 53 69 67 6e 61 74 75 72 65 52 69 6e 67 00 08 	0SignatureRing00
  0x65740	22 52 75 6e 20 53 74 6f 70 70 65 64 22 00 02 06 	"Run Stopped"000
  0x65750	0b 05 01 00 00 00 00 00 40 00 00 d2 00 00 4d 53 	00000000@00000MS
  0x65760	52 54 2e 54 69 74 61 6e 41 70 70 2e 53 74 61 72 	RT.TitanApp.Star
  0x65770	74 00 50 61 72 74 41 5f 50 72 69 76 54 61 67 73 	t0PartA_PrivTags
  0x65780	00 0a 50 72 6f 64 75 63 74 47 75 69 64 00 01 45 	00ProductGuid00E
  0x65790	6e 67 69 6e 65 56 65 72 73 69 6f 6e 00 01 53 69 	ngineVersion00Si
  0x657a0	67 56 65 72 73 69 6f 6e 00 01 41 70 70 56 65 72 	gVersion00AppVer
  0x657b0	73 69 6f 6e 00 01 49 73 42 65 74 61 00 0d 49 73 	sion00IsBeta00Is
  0x657c0	4d 61 6e 61 67 65 64 00 0d 49 73 50 61 73 73 69 	Managed00IsPassi
  0x657d0	76 65 4d 6f 64 65 00 0d 49 73 53 78 73 50 61 73 	veMode00IsSxsPas
  0x657e0	73 69 76 65 4d 6f 64 65 00 0d 53 68 6f 75 6c 64 	siveMode00Should
  0x657f0	48 61 73 68 49 64 73 00 0d 45 6e 67 69 6e 65 52 	HashIds00EngineR
  0x65800	69 6e 67 00 08 43 61 6d 70 52 69 6e 67 00 08 53 	ing00CampRing00S
  0x65810	69 67 6e 61 74 75 72 65 52 69 6e 67 00 08 22 52 	ignatureRing00"R
  0x65820	75 6e 20 53 74 61 72 74 65 64 22 00 02 04 d7 98 	un Started"00000
  0x65830	f8 7a 0e 7e 8d 51 5f 96 b1 e7 92 39 48 4c 30 00 	0z0~0Q_00009HL00
  0x65840	4d 69 63 72 6f 73 6f 66 74 2e 57 69 6e 64 6f 77 	Microsoft.Window
  0x65850	73 2e 44 65 66 65 6e 64 65 72 00 13 00 01 1a 73 	s.Defender00000s
  0x65860	50 4f cf 89 82 47 b3 e0 dc e8 c9 04 76 ba 01 00 	PO000G000000v000
  0x65870	52 53 44 53 0c 50 81 77 b3 32 54 ac 6e 3d 6c 6b 	RSDS0P0w02T0n=lk
  0x65880	29 53 e8 ec 01 00 00 00 6d 72 74 2e 70 64 62 00 	)S000000mrt.pdb0
  0x65890	47 43 54 4c 00 10 00 00 a0 07 00 00 2e 74 65 78 	GCTL00000000.tex
  0x658a0	74 00 00 00 a0 17 00 00 b0 00 00 00 2e 74 65 78 	t00000000000.tex
  0x658b0	74 24 64 69 00 00 00 00 50 18 00 00 e0 d5 04 00 	t$di0000P0000000
  0x658c0	2e 74 65 78 74 24 6d 6e 00 00 00 00 30 ee 04 00 	.text$mn00000000
  0x658d0	40 00 00 00 2e 74 65 78 74 24 6d 6e 24 30 30 00 	@000.text$mn$000
  0x658e0	70 ee 04 00 10 1f 00 00 2e 74 65 78 74 24 78 00 	p0000000.text$x0
  0x658f0	80 0d 05 00 52 00 00 00 2e 74 65 78 74 24 79 64 	0000R000.text$yd
  0x65900	00 00 00 00 00 10 05 00 04 00 00 00 2e 69 6d 72 	000000000000.imr
  0x65910	73 69 76 00 00 20 05 00 e0 36 00 00 2e 72 64 61 	siv00 000600.rda
  0x65920	74 61 24 62 72 63 00 00 e0 56 05 00 28 00 00 00 	ta$brc000V00(000
  0x65930	2e 72 64 61 74 61 24 54 24 62 72 63 00 00 00 00 	.rdata$T$brc0000
  0x65940	08 57 05 00 10 09 00 00 2e 69 64 61 74 61 24 35 	0W000000.idata$5
  0x65950	00 00 00 00 18 60 05 00 38 00 00 00 2e 30 30 63 	00000`008000.00c
  0x65960	66 67 00 00 50 60 05 00 08 00 00 00 2e 43 52 54 	fg00P`000000.CRT
  0x65970	24 58 43 41 00 00 00 00 58 60 05 00 08 00 00 00 	$XCA0000X`000000
  0x65980	2e 43 52 54 24 58 43 41 41 00 00 00 60 60 05 00 	.CRT$XCAA000``00
  0x65990	20 00 00 00 2e 43 52 54 24 58 43 55 00 00 00 00 	 000.CRT$XCU0000
  0x659a0	80 60 05 00 08 00 00 00 2e 43 52 54 24 58 43 5a 	0`000000.CRT$XCZ
  0x659b0	00 00 00 00 88 60 05 00 08 00 00 00 2e 43 52 54 	00000`000000.CRT
  0x659c0	24 58 49 41 00 00 00 00 90 60 05 00 08 00 00 00 	$XIA00000`000000
  0x659d0	2e 43 52 54 24 58 49 41 41 00 00 00 98 60 05 00 	.CRT$XIAA0000`00
  0x659e0	08 00 00 00 2e 43 52 54 24 58 49 41 43 00 00 00 	0000.CRT$XIAC000
  0x659f0	a0 60 05 00 40 00 00 00 2e 43 52 54 24 58 49 43 	0`00@000.CRT$XIC
  0x65a00	00 00 00 00 e0 60 05 00 08 00 00 00 2e 43 52 54 	00000`000000.CRT
  0x65a10	24 58 49 5a 00 00 00 00 e8 60 05 00 08 00 00 00 	$XIZ00000`000000
  0x65a20	2e 43 52 54 24 58 4c 41 00 00 00 00 f0 60 05 00 	.CRT$XLA00000`00
  0x65a30	08 00 00 00 2e 43 52 54 24 58 4c 5a 00 00 00 00 	0000.CRT$XLZ0000
  0x65a40	f8 60 05 00 08 00 00 00 2e 43 52 54 24 58 50 41 	0`000000.CRT$XPA
  0x65a50	00 00 00 00 00 61 05 00 10 00 00 00 2e 43 52 54 	00000a000000.CRT
  0x65a60	24 58 50 58 00 00 00 00 10 61 05 00 08 00 00 00 	$XPX00000a000000
  0x65a70	2e 43 52 54 24 58 50 58 41 00 00 00 18 61 05 00 	.CRT$XPXA0000a00
  0x65a80	08 00 00 00 2e 43 52 54 24 58 50 5a 00 00 00 00 	0000.CRT$XPZ0000
  0x65a90	20 61 05 00 08 00 00 00 2e 43 52 54 24 58 54 41 	 a000000.CRT$XTA
  0x65aa0	00 00 00 00 28 61 05 00 08 00 00 00 2e 43 52 54 	0000(a000000.CRT
  0x65ab0	24 58 54 5a 00 00 00 00 30 61 05 00 c8 02 00 00 	$XTZ00000a000000
  0x65ac0	2e 67 65 68 63 6f 6e 74 00 00 00 00 f8 63 05 00 	.gehcont00000c00
  0x65ad0	20 08 00 00 2e 67 66 69 64 73 00 00 18 6c 05 00 	 000.gfids000l00
  0x65ae0	e8 00 00 00 2e 67 69 61 74 73 00 00 00 6d 05 00 	0000.giats000m00
  0x65af0	00 9f 00 00 2e 72 64 61 74 61 00 00 00 0c 06 00 	0000.rdata000000
  0x65b00	14 3f 00 00 2e 72 64 61 74 61 24 72 00 00 00 00 	0?00.rdata$r0000
  0x65b10	14 4b 06 00 3c 06 00 00 2e 72 64 61 74 61 24 76 	0K00<000.rdata$v
  0x65b20	6f 6c 74 6d 64 00 00 00 50 51 06 00 10 00 00 00 	oltmd000PQ000000
  0x65b30	2e 72 64 61 74 61 24 7a 45 54 57 30 00 00 00 00 	.rdata$zETW00000
  0x65b40	60 51 06 00 cd 06 00 00 2e 72 64 61 74 61 24 7a 	`Q000000.rdata$z
  0x65b50	45 54 57 31 00 00 00 00 2d 58 06 00 41 00 00 00 	ETW10000-X00A000
  0x65b60	2e 72 64 61 74 61 24 7a 45 54 57 32 00 00 00 00 	.rdata$zETW20000
  0x65b70	6e 58 06 00 02 00 00 00 2e 72 64 61 74 61 24 7a 	nX000000.rdata$z
  0x65b80	45 54 57 39 00 00 00 00 70 58 06 00 20 05 00 00 	ETW90000pX00 000
  0x65b90	2e 72 64 61 74 61 24 7a 7a 7a 64 62 67 00 00 00 	.rdata$zzzdbg000
  0x65ba0	90 5d 06 00 08 00 00 00 2e 72 74 63 24 49 41 41 	0]000000.rtc$IAA
  0x65bb0	00 00 00 00 98 5d 06 00 08 00 00 00 2e 72 74 63 	00000]000000.rtc
  0x65bc0	24 49 5a 5a 00 00 00 00 a0 5d 06 00 08 00 00 00 	$IZZ00000]000000
  0x65bd0	2e 72 74 63 24 54 41 41 00 00 00 00 a8 5d 06 00 	.rtc$TAA00000]00
  0x65be0	08 00 00 00 2e 72 74 63 24 54 5a 5a 00 00 00 00 	0000.rtc$TZZ0000
  0x65bf0	b0 5d 06 00 04 00 00 00 2e 74 6c 73 00 00 00 00 	0]000000.tls0000
  0x65c00	b4 5d 06 00 04 00 00 00 2e 74 6c 73 24 00 00 00 	0]000000.tls$000
  0x65c10	b8 5d 06 00 08 00 00 00 2e 74 6c 73 24 5a 5a 5a 	0]000000.tls$ZZZ
  0x65c20	00 00 00 00 c0 5d 06 00 80 53 00 00 2e 78 64 61 	00000]000S00.xda
  0x65c30	74 61 00 00 40 b1 06 00 c0 03 00 00 2e 78 64 61 	ta00@0000000.xda
  0x65c40	74 61 24 78 00 00 00 00 00 b5 06 00 f8 00 00 00 	ta$x000000000000
  0x65c50	5f 52 44 41 54 41 00 00 f8 b5 06 00 18 01 00 00 	_RDATA0000000000
  0x65c60	2e 69 64 61 74 61 24 32 00 00 00 00 10 b7 06 00 	.idata$200000000
  0x65c70	18 00 00 00 2e 69 64 61 74 61 24 33 00 00 00 00 	0000.idata$30000
  0x65c80	28 b7 06 00 10 09 00 00 2e 69 64 61 74 61 24 34 	(0000000.idata$4
  0x65c90	00 00 00 00 38 c0 06 00 b4 14 00 00 2e 69 64 61 	000080000000.ida
  0x65ca0	74 61 24 36 00 00 00 00 00 e0 06 00 b0 02 00 00 	ta$6000000000000
  0x65cb0	2e 64 61 74 61 24 62 72 63 00 00 00 b0 e2 06 00 	.data$brc0000000
  0x65cc0	50 05 00 00 2e 64 61 74 61 24 72 24 62 72 63 00 	P000.data$r$brc0
  0x65cd0	00 e8 06 00 e0 28 00 00 2e 64 61 74 61 24 72 73 	00000(00.data$rs
  0x65ce0	24 62 72 63 00 00 00 00 e0 10 07 00 f0 09 00 00 	$brc000000000000
  0x65cf0	2e 64 61 74 61 00 00 00 d0 1a 07 00 80 17 00 00 	.data00000000000
  0x65d00	2e 62 73 73 00 00 00 00 00 40 07 00 8c 3d 00 00 	.bss00000@000=00
  0x65d10	2e 70 64 61 74 61 00 00 00 80 07 00 10 0a 00 00 	.pdata0000000000
  0x65d20	2e 72 73 72 63 24 30 31 00 00 00 00 10 8a 07 00 	.rsrc$0100000000
  0x65d30	b0 40 99 08 2e 72 73 72 63 24 30 32 00 00 00 00 	0@00.rsrc$020000
  0x65d40	00 00 00 00 00 00 00 00 00 00 00 00 00 00 00 00 	0000000000000000
  0x65d50	00 00 00 00 00 00 00 00 00 00 00 00 00 00 00 00 	0000000000000000
  0x65d60	00 00 00 00 00 00 00 00 20 00 00 00 0c 50 81 77 	00000000 0000P0w
  0x65d70	b3 32 54 ac 6e 3d 6c 6b 29 53 e8 ec 53 e6 5e 85 	02T0n=lk)S00S0^0
  0x65d80	59 df dd de 68 92 b0 44 bf 18 96 d5 01 00 00 00 	Y000h00D00000000
  0x65d90	00 00 00 00 00 00 00 00 00 00 00 00 00 00 00 00 	0000000000000000
  0x65da0	00 00 00 00 00 00 00 00 00 00 00 00 00 00 00 00 	0000000000000000
  0x65db0	00 00 00 00 00 00 00 80 00 00 00 00 00 00 00 00 	0000000000000000
  0x65dc0	01 0f 06 00 0f 64 07 00 0f 34 06 00 0f 32 0b 70 	00000d000400020p
  0x65dd0	19 32 0b 00 21 64 71 00 21 34 70 00 21 01 6a 00 	0200!dq0!4p0!0j0
  0x65de0	12 f0 10 e0 0e c0 0c 70 0b 50 00 00 64 56 04 00 	0000000p0P00dV00
  0x65df0	40 03 00 00 01 04 01 00 04 62 00 00 01 0b 01 00 	@00000000b000000
  0x65e00	0b 82 00 00 01 0f 06 00 0f 64 0d 00 0f 34 0c 00 	000000000d000400
  0x65e10	0f 92 0b 70 01 04 01 00 04 a2 00 00 01 0b 01 00 	000p000000000000
  0x65e20	0b a2 00 00 19 2e 09 00 1d 64 58 00 1d 34 57 00 	00000.000dX004W0
  0x65e30	1d 01 52 00 0e e0 0c 70 0b 50 00 00 64 56 04 00 	00R0000p0P00dV00
  0x65e40	80 02 00 00 01 0a 04 00 0a 34 06 00 0a 32 06 70 	000000000400020p
  0x65e50	19 11 06 00 11 01 1b 00 05 70 04 60 03 30 02 50 	000000000p0`000P
  0x65e60	30 6c 04 00 68 5e 06 00 60 6d 5e 06 00 02 8c 00 	0l00h^00`m^00000
  0x65e70	01 04 01 00 04 42 00 00 19 37 0d 00 26 74 a9 00 	00000B000700&t00
  0x65e80	26 64 a8 00 26 34 a7 00 26 01 a0 00 18 f0 16 e0 	&d00&400&0000000
  0x65e90	14 d0 12 c0 10 50 00 00 90 e6 04 00 a4 5e 06 00 	00000P0000000^00
  0x65ea0	f3 04 00 00 60 a9 5e 06 00 02 99 18 00 00 00 00 	0000`0^000000000
  0x65eb0	11 18 0a 00 18 64 11 00 18 54 10 00 18 34 0f 00 	00000d000T000400
  0x65ec0	18 92 14 f0 12 e0 10 70 30 6c 04 00 d0 5e 06 00 	0000000p0l000^00
  0x65ed0	28 d9 5e 06 00 e6 5e 06 00 04 0a 90 82 00 00 80 	(0^000^000000000
  0x65ee0	32 90 82 00 00 e0 06 76 00 36 02 70 04 00 00 00 	2000000v060p0000
  0x65ef0	19 21 08 00 12 54 0f 00 12 34 0e 00 12 72 0e e0 	0!000T0004000r00
  0x65f00	0c 70 0b 60 90 e6 04 00 10 5f 06 00 3b 00 00 00 	0p0`00000_00;000
  0x65f10	68 19 5f 06 00 1f 5f 06 00 02 0e 60 6e 04 00 04 	h0_000_0000`n000
  0x65f20	5d 02 02 e5 03 00 00 00 19 2c 0b 00 1a 64 2a 00 	]00000000,000d*0
  0x65f30	1a 34 29 00 1a 01 22 00 13 f0 11 e0 0f d0 0d c0 	04)000"000000000
  0x65f40	0b 70 00 00 90 e6 04 00 50 5f 06 00 0b 01 00 00 	0p000000P_000000
  0x65f50	78 5d 5f 06 00 85 5f 06 00 a4 5f 06 00 10 08 0a 	x]_000_000_00000
  0x65f60	90 82 00 00 f0 32 90 82 00 00 d0 32 90 82 00 00 	0000020000020000
  0x65f70	e0 32 90 82 00 00 21 02 3a 90 82 00 00 b0 36 60 	020000!0:000006`
  0x65f80	6e 04 00 61 02 02 00 0c 0e 8d 5f 06 00 04 17 12 	n00a000000_00000
  0x65f90	f8 e3 06 00 01 04 b8 ee 04 00 79 15 11 80 de ee 	0000000000y00000
  0x65fa0	04 00 b5 14 18 39 06 08 ca 0a fd 03 0c 86 0e ca 	0000090000000000
  0x65fb0	0c 2d 05 0a ae 00 4c 04 10 06 28 08 10 0c 4c 00 	0-0000L000(000L0
  0x65fc0	19 0a 02 00 0a 92 06 50 30 6c 04 00 d0 5f 06 00 	0000000P0l000_00
  0x65fd0	69 da 5f 06 00 dc 5f 06 00 d0 02 08 00 00 00 00 	i0_000_000000000
  0x65fe0	19 21 06 00 12 64 14 00 12 34 13 00 12 f2 0b 70 	0!000d000400000p
  0x65ff0	64 56 04 00 70 00 00 00 01 19 0a 00 19 64 12 00 	dV00p00000000d00
  0x66000	19 34 11 00 19 92 12 f0 10 e0 0e d0 0c 70 0b 50 	0400000000000p0P
  0x66010	19 17 09 00 17 01 18 00 10 f0 0e e0 0c d0 0a c0 	0000000000000000
  0x66020	08 70 07 60 06 30 00 00 30 6c 04 00 30 60 06 00 	0p0`00000l000`00
  0x66030	78 3d 60 06 00 46 60 06 00 65 60 06 00 06 0a ec 	x=`00F`00e`00000
  0x66040	3a 00 00 90 30 38 02 02 02 04 4e 60 06 00 04 17 	:000080000N`0000
  0x66050	12 f8 e3 06 00 c1 02 0f ef 04 00 41 12 11 80 35 	00000000000A0005
  0x66060	ef 04 00 29 13 04 0d 09 02 99 05 04 19 0a 02 00 	000)000000000000
  0x66070	0a 52 06 50 30 6c 04 00 7c 60 06 00 69 da 5f 06 	0R0P0l00|`00i0_0
  0x66080	00 dc 5f 06 00 90 00 00 19 17 07 00 17 c2 13 f0 	00_0000000000000
  0x66090	11 e0 0f c0 0d 70 0c 60 0b 30 00 00 30 6c 04 00 	00000p0`00000l00
  0x660a0	a4 60 06 00 38 b1 60 06 00 ba 60 06 00 d8 60 06 	0`0080`000`000`0
  0x660b0	00 06 08 0a 90 82 00 00 90 40 02 00 02 04 c2 60 	000000000@00000`
  0x660c0	06 00 04 17 12 f8 e3 06 00 b0 8e ef 04 00 d1 04 	0000000000000000
  0x660d0	11 80 66 ef 04 00 75 04 04 61 03 02 7a 04 00 00 	00f000u00a00z000
  0x660e0	01 0a 02 00 0a 52 06 50 01 06 02 00 06 32 02 30 	00000R0P00000200
  0x660f0	11 0e 06 00 0e 92 07 f0 05 70 04 60 03 30 02 50 	000000000p0`000P
  0x66100	30 6c 04 00 08 61 06 00 28 11 61 06 00 18 61 06 	0l000a00(0a000a0
  0x66110	00 02 0a c0 7b 00 00 60 02 15 02 02 19 2c 0b 00 	0000{00`00000,00
  0x66120	1a 64 40 00 1a 34 3f 00 1a 01 38 00 13 f0 11 e0 	0d@004?000800000
  0x66130	0f d0 0d c0 0b 70 00 00 90 e6 04 00 44 61 06 00 	00000p000000Da00
  0x66140	b3 01 00 00 38 51 61 06 00 b5 61 06 00 d4 61 06 	00008Qa000a000a0
  0x66150	00 20 08 0a 90 82 00 00 a1 02 42 90 82 00 00 e1 	0 00000000B00000
  0x66160	04 3a 90 82 00 00 a1 02 3a 90 82 00 00 41 03 ea 	0:000000:0000A00
  0x66170	90 82 00 00 41 04 3a 94 7b 00 00 01 06 3a 94 7b 	0000A0:0{0000:0{
  0x66180	00 00 61 05 3a 90 82 00 00 e1 04 3a 90 82 00 00 	00a0:000000:0000
  0x66190	a1 04 3a 90 82 00 00 81 04 3a 90 82 00 00 01 04 	00:000000:000000
  0x661a0	3a 90 82 00 00 61 04 1d 03 60 6e 04 00 ed 03 60 	:0000a000`n0000`
  0x661b0	6e 04 00 21 06 02 00 1c 1e bd 61 06 00 04 17 12 	n00!000000a00000
  0x661c0	f8 e3 06 00 a1 06 3b f0 04 00 05 4b 11 80 6a f0 	000000;0000K00j0
  0x661d0	04 00 05 4b 2c b1 05 02 a1 05 04 59 04 02 ac 0c 	000K,000000Y0000
  0x661e0	71 07 10 c4 12 9c 14 78 16 a1 02 18 e5 04 1a 6c 	q000000x0000000l
  0x661f0	18 99 1a 10 39 06 1c b9 02 10 60 02 1d 02 00 f5 	0000900000`00000
  0x66200	09 04 1e 08 10 0a 10 04 10 0c 10 00 01 0d 03 00 	0000000000000000
  0x66210	0d 01 14 00 06 50 00 00 01 18 0a 00 18 64 15 00 	00000P0000000d00
  0x66220	18 54 14 00 18 34 13 00 18 d2 14 f0 12 e0 10 70 	0T0004000000000p
  0x66230	19 0f 06 00 0f 64 07 00 0f 34 06 00 0f 32 0b 70 	00000d000400020p
  0x66240	30 6c 04 00 48 62 06 00 68 19 5f 06 00 51 62 06 	0l00Hb00h0_00Qb0
  0x66250	00 04 fe 00 80 02 00 00 01 13 01 00 13 62 00 00 	0000000000000b00
  0x66260	01 15 08 00 15 74 10 00 15 64 0f 00 15 34 0e 00 	00000t000d000400
  0x66270	15 b2 11 e0 11 0e 06 00 0e 72 07 e0 05 70 04 60 	000000000r000p0`
  0x66280	03 30 02 50 30 6c 04 00 8c 62 06 00 28 95 62 06 	000P0l000b00(0b0
  0x66290	00 ac 62 06 00 0a 0a 90 82 00 00 01 02 3a 90 82 	00b0000000000:00
  0x662a0	00 00 21 02 3a 90 82 00 00 70 68 08 06 46 02 c8 	00!0:0000ph00F00
  0x662b0	04 f4 06 00 11 21 0b 00 21 34 2b 00 21 01 20 00 	00000!00!4+0!0 0
  0x662c0	15 f0 13 e0 11 d0 0f c0 0d 70 0c 60 0b 50 00 00 	000000000p0`0P00
  0x662d0	30 6c 04 00 d8 62 06 00 28 e1 62 06 00 ef 62 06 	0l000b00(0b000b0
  0x662e0	00 04 0a 44 ae 00 00 40 32 90 82 00 00 41 05 06 	000D000@20000A00
  0x662f0	fd 06 02 4a 04 85 02 02 19 12 07 00 12 64 1b 00 	000J000000000d00
  0x66300	12 34 19 00 12 01 16 00 0b 70 00 00 30 6c 04 00 	040000000p000l00
  0x66310	14 63 06 00 78 21 63 06 00 24 63 06 00 dc 5f 06 	0c00x!c00$c000_0
  0x66320	00 04 08 10 02 00 00 02 2c 63 06 00 04 17 12 f8 	00000000,c000000
  0x66330	e3 06 00 a1 02 e6 f0 04 00 79 06 11 80 c8 f0 04 	000000000y000000
  0x66340	00 cd 06 00 01 17 0a 00 17 34 14 00 17 b2 10 f0 	0000000004000000
  0x66350	0e e0 0c d0 0a c0 08 70 07 60 06 50 19 37 0d 00 	0000000p0`0P0700
  0x66360	26 74 5f 00 26 64 5e 00 26 34 5c 00 26 01 56 00 	&t_0&d^0&400&0V0
  0x66370	18 f0 16 e0 14 d0 12 c0 10 50 00 00 64 56 04 00 	000000000P00dV00
  0x66380	a0 02 00 00 01 13 06 00 13 52 0c f0 0a e0 08 70 	000000000R00000p
  0x66390	07 30 06 50 01 06 02 00 06 32 02 70 19 29 09 00 	000P0000020p0)00
  0x663a0	17 64 53 00 17 54 52 00 17 34 51 00 17 01 4e 00 	0dS00TR004Q000N0
  0x663b0	10 70 00 00 64 56 04 00 60 02 00 00 19 1f 06 00 	0p00dV00`0000000
  0x663c0	10 64 13 00 10 34 12 00 10 d2 0c 70 64 56 04 00 	0d000400000pdV00
  0x663d0	60 00 00 00 19 1d 0a 00 1d 01 31 00 11 f0 0f e0 	`000000000100000
  0x663e0	0d d0 0b c0 09 70 08 60 07 30 06 50 30 6c 04 00 	00000p0`000P0l00
  0x663f0	f4 63 06 00 60 f9 63 06 00 02 41 11 00 00 00 00 	0c00`0c000A00000
  0x66400	01 17 07 00 17 74 17 00 17 34 16 00 17 01 14 00 	00000t0004000000
  0x66410	0b 50 00 00 19 2d 0c 00 1f c4 15 00 1f 74 14 00 	0P000-0000000t00
  0x66420	1f 64 13 00 1f 34 12 00 1f d2 18 f0 16 e0 14 50 	0d0004000000000P
  0x66430	90 e6 04 00 3c 64 06 00 63 00 00 00 68 19 5f 06 	0000<d00c000h0_0
  0x66440	00 45 64 06 00 04 51 03 02 51 04 00 19 04 01 00 	0Ed000Q00Q000000
  0x66450	04 42 00 00 30 6c 04 00 5c 64 06 00 60 61 64 06 	0B000l000d00`ad0
  0x66460	00 02 3c 00 19 1f 06 00 11 01 29 00 05 70 04 60 	00<0000000)00p0`
  0x66470	03 30 02 50 64 56 04 00 30 01 00 00 19 1c 03 00 	000PdV0000000000
  0x66480	0e 01 2a 00 02 50 00 00 64 56 04 00 40 01 00 00 	00*00P00dV00@000
  0x66490	19 1c 03 00 0e 01 28 00 02 50 00 00 64 56 04 00 	000000(00P00dV00
  0x664a0	30 01 00 00 19 13 01 00 04 c2 00 00 64 56 04 00 	000000000000dV00
  0x664b0	50 00 00 00 19 14 08 00 14 32 10 f0 0e e0 0c d0 	P000000002000000
  0x664c0	0a c0 08 70 07 60 06 30 30 6c 04 00 d0 64 06 00 	000p0`000l000d00
  0x664d0	38 21 63 06 00 dd 64 06 00 ec 64 06 00 02 00 00 	8!c000d000d00000
  0x664e0	02 e5 64 06 00 02 01 80 0a f1 04 00 06 81 02 00 	00d0000000000000
  0x664f0	88 02 85 02 00 00 00 00 01 0a 02 00 0a 32 06 50 	000000000000020P
  0x66500	01 04 01 00 04 82 00 00 01 13 05 00 13 82 0f 70 	000000000000000p
  0x66510	0e 60 0d 50 0c 30 00 00 19 2a 09 00 18 74 1d 00 	0`0P00000*000t00
  0x66520	18 64 1c 00 18 34 1b 00 18 01 18 00 11 e0 00 00 	0d00040000000000
  0x66530	90 e6 04 00 3c 65 06 00 b3 00 00 00 78 49 65 06 	0000<e000000xIe0
  0x66540	00 51 65 06 00 70 65 06 00 06 0e 2e f1 04 00 28 	0Qe00pe0000.000(
  0x66550	30 02 02 02 04 59 65 06 00 04 17 12 f8 e3 06 00 	00000Ye000000000
  0x66560	a1 02 5b f1 04 00 69 03 11 80 7f f1 04 00 69 03 	00[000i0000000i0
  0x66570	06 a4 00 88 04 9d 04 00 01 06 02 00 06 32 02 50 	000000000000020P
  0x66580	19 0a 02 00 0a 72 06 50 30 6c 04 00 90 65 06 00 	00000r0P0l000e00
  0x66590	69 da 5f 06 00 dc 5f 06 00 b0 00 00 01 0a 04 00 	i0_000_000000000
  0x665a0	0a 34 08 00 0a 52 06 70 19 2e 0b 00 1c 74 68 00 	04000R0p0.000th0
  0x665b0	1c 64 67 00 1c 34 66 00 1c 01 62 00 15 f0 13 e0 	0dg004f000b00000
  0x665c0	11 c0 00 00 90 e6 04 00 d0 65 06 00 0b 03 00 00 	000000000e000000
  0x665d0	78 dd 65 06 00 ec 65 06 00 0b 66 06 00 08 0a 90 	x0e000e000f00000
  0x665e0	82 00 00 a0 32 e4 35 00 00 b0 30 38 02 04 04 06 	0000205000080000
  0x665f0	f4 65 06 00 04 17 12 f8 e3 06 00 01 0c da f1 04 	0e00000000000000
  0x66600	00 4d 0e 11 80 b5 f1 04 00 fd 0d 04 e1 0b 06 c1 	0M00000000000000
  0x66610	05 00 00 00 19 13 01 00 04 82 00 00 64 56 04 00 	000000000000dV00
  0x66620	38 00 00 00 01 04 01 00 04 e2 00 00 01 19 0a 00 	8000000000000000
  0x66630	19 74 09 00 19 64 08 00 19 54 07 00 19 34 06 00 	0t000d000T000400
  0x66640	19 32 15 e0 11 0f 04 00 0f 34 08 00 0f 32 0b 70 	020000000400020p
  0x66650	30 6c 04 00 58 66 06 00 28 61 66 06 00 7c 66 06 	0l00Xf00(af00|f0
  0x66660	00 0a 0c a8 82 00 00 60 36 0c f2 04 00 2e 1c f2 	0000000`60000.00
  0x66670	04 00 2e 2f f2 04 00 2e 42 f2 04 00 04 bd 02 0a 	00./000.B0000000
  0x66680	05 03 00 00 19 31 0d 00 23 74 29 00 23 64 28 00 	00000100#t)0#d(0
  0x66690	23 34 27 00 23 01 20 00 18 f0 16 e0 14 d0 12 c0 	#4'0#0 000000000
  0x666a0	10 50 00 00 90 e6 04 00 b0 66 06 00 f3 00 00 00 	0P0000000f000000
  0x666b0	60 b5 66 06 00 02 4d 14 00 00 00 00 19 0a 04 00 	`0f000M000000000
  0x666c0	0a 34 0a 00 0a 72 06 70 30 6c 04 00 d0 66 06 00 	04000r0p0l000f00
  0x666d0	60 d5 66 06 00 02 b1 03 00 00 00 00 19 24 07 00 	`0f0000000000$00
  0x666e0	12 64 18 00 12 34 17 00 12 01 14 00 0b 70 00 00 	0d00040000000p00
  0x666f0	90 e6 04 00 fc 66 06 00 9b 00 00 00 78 09 67 06 	00000f000000x0g0
  0x66700	00 12 67 06 00 31 67 06 00 06 0a 90 82 00 00 80 	00g001g000000000
  0x66710	30 38 02 02 02 04 1a 67 06 00 04 17 12 f8 e3 06 	0800000g00000000
  0x66720	00 41 02 55 f2 04 00 b5 04 11 80 7b f2 04 00 a9 	0A0U0000000{0000
  0x66730	05 04 b9 03 04 81 03 00 01 15 08 00 15 74 0b 00 	0000000000000t00
  0x66740	15 64 0a 00 15 54 09 00 15 52 11 e0 19 0f 06 00 	0d000T000R000000
  0x66750	0f 64 0b 00 0f 34 0a 00 0f 72 0b 70 30 6c 04 00 	0d0004000r0p0l00
  0x66760	64 67 06 00 60 69 67 06 00 02 79 02 00 00 00 00 	dg00`ig000y00000
  0x66770	01 16 0a 00 16 34 11 00 16 72 12 f0 10 e0 0e d0 	000004000r000000
  0x66780	0c c0 0a 70 09 60 08 50 01 06 02 00 06 52 02 30 	000p0`0P00000R00
  0x66790	19 16 01 00 07 a2 00 00 64 56 04 00 48 00 00 00 	00000000dV00H000
  0x667a0	01 13 06 00 13 64 13 00 13 34 12 00 13 f2 0c 70 	00000d000400000p
  0x667b0	19 15 02 00 06 72 02 30 64 56 04 00 38 00 00 00 	00000r00dV008000
  0x667c0	01 18 08 00 18 74 14 00 18 64 13 00 18 34 12 00 	00000t000d000400
  0x667d0	18 f2 11 e0 19 0a 04 00 0a 34 0a 00 0a 72 06 70 	0000000004000r0p
  0x667e0	30 6c 04 00 e8 67 06 00 60 ed 67 06 00 02 c9 02 	0l000g00`0g00000
  0x667f0	00 00 00 00 19 0a 04 00 0a 34 0a 00 0a 72 06 70 	0000000004000r0p
  0x66800	30 6c 04 00 08 68 06 00 60 0d 68 06 00 02 79 03 	0l000h00`0h000y0
  0x66810	00 00 00 00 19 06 02 00 06 72 02 30 30 6c 04 00 	000000000r000l00
  0x66820	24 68 06 00 60 29 68 06 00 02 7e 00 19 31 0d 00 	$h00`)h000~00100
  0x66830	23 74 25 00 23 64 24 00 23 34 23 00 23 01 1c 00 	#t%0#d$0#4#0#000
  0x66840	18 f0 16 e0 14 d0 12 c0 10 50 00 00 64 56 04 00 	000000000P00dV00
  0x66850	d0 00 00 00 11 12 08 00 12 54 0a 00 12 34 09 00 	000000000T000400
  0x66860	12 32 0e e0 0c 70 0b 60 30 6c 04 00 70 68 06 00 	02000p0`0l00ph00
  0x66870	28 79 68 06 00 7f 68 06 00 02 0e a0 f2 04 00 06 	(yh000h000000000
  0x66880	a2 00 05 04 02 26 00 00 19 1d 05 00 0b 01 4e 00 	00000&00000000N0
  0x66890	04 70 03 60 02 30 00 00 90 e6 04 00 a4 68 06 00 	0p0`000000000h00
  0x668a0	6b 02 00 00 38 b1 68 06 00 ba 68 06 00 d9 68 06 	k00080h000h000h0
  0x668b0	00 06 08 0a 90 82 00 00 80 40 02 00 02 04 c2 68 	000000000@00000h
  0x668c0	06 00 04 17 12 f8 e3 06 00 81 09 db f2 04 00 a1 	0000000000000000
  0x668d0	03 11 80 bd f2 04 00 29 04 04 51 03 04 4c 00 00 	0000000)00Q00L00
  0x668e0	01 0a 02 00 0a 72 06 50 19 2b 07 00 1a 74 58 00 	00000r0P0+000tX0
  0x668f0	1a 34 57 00 1a 01 54 00 0b 50 00 00 64 56 04 00 	04W000T00P00dV00
  0x66900	90 02 00 00 19 0b 04 00 0b 72 04 70 03 30 02 50 	000000000r0p000P
  0x66910	30 6c 04 00 18 69 06 00 68 19 5f 06 00 21 69 06 	0l000i00h0_00!i0
  0x66920	00 1c 9d 02 02 52 00 b0 02 4e 00 b0 02 46 00 b0 	00000R000N000F00
  0x66930	02 5a 00 b0 02 50 00 f0 02 84 00 e2 02 50 00 00 	0Z000P0000000P00
  0x66940	19 14 06 00 14 64 09 00 14 34 08 00 14 52 10 70 	00000d0004000R0p
  0x66950	30 6c 04 00 58 69 06 00 78 65 69 06 00 6e 69 06 	0l00Xi00xei00ni0
  0x66960	00 8a 69 06 00 06 08 0a 90 82 00 00 40 40 02 00 	00i000000000@@00
  0x66970	02 04 76 69 06 00 04 17 12 f8 e3 06 00 50 0b f3 	00vi000000000P00
  0x66980	04 00 f2 11 80 31 f3 04 00 f2 04 52 02 90 04 00 	00000100000R0000
  0x66990	19 0a 02 00 0a 32 06 50 30 6c 04 00 a0 69 06 00 	0000020P0l000i00
  0x669a0	69 da 5f 06 00 dc 5f 06 00 70 00 00 01 10 06 00 	i0_000_00p000000
  0x669b0	10 64 11 00 10 34 10 00 10 d2 0c 70 19 0c 04 00 	0d000400000p0000
  0x669c0	0c 34 0d 00 0c 92 08 70 30 6c 04 00 d0 69 06 00 	0400000p0l000i00
  0x669d0	78 21 63 06 00 dd 69 06 00 f9 69 06 00 02 00 00 	x!c000i000i00000
  0x669e0	02 e5 69 06 00 04 17 12 f8 e3 06 00 80 56 f3 04 	00i0000000000V00
  0x669f0	00 84 11 80 7c f3 04 00 84 02 5a 02 01 0a 04 00 	0000|00000Z00000
  0x66a00	0a 34 10 00 0a d2 06 70 19 25 08 00 17 74 0e 00 	0400000p0%000t00
  0x66a10	17 64 0d 00 17 34 0c 00 17 92 10 50 64 56 04 00 	0d000400000PdV00
  0x66a20	48 00 00 00 01 0d 04 00 0d 34 12 00 0d f2 06 60 	H00000000400000`
  0x66a30	19 19 04 00 0a 34 11 00 0a d2 06 70 64 56 04 00 	00000400000pdV00
  0x66a40	60 00 00 00 19 0a 02 00 0a 52 06 30 30 6c 04 00 	`00000000R000l00
  0x66a50	54 6a 06 00 38 21 63 06 00 61 6a 06 00 7d 6a 06 	Tj008!c00aj00}j0
  0x66a60	00 02 00 00 02 69 6a 06 00 04 17 12 f8 e3 06 00 	00000ij000000000
  0x66a70	40 bf f3 04 00 9c 11 80 a1 f3 04 00 9c 02 40 02 	@0000000000000@0
  0x66a80	19 26 0a 00 14 01 1d 01 0d f0 0b e0 09 d0 07 c0 	0&00000000000000
  0x66a90	05 70 04 60 03 50 02 30 64 56 04 00 d0 08 00 00 	0p0`0P00dV000000
  0x66aa0	19 28 09 00 16 64 26 00 16 34 25 00 16 01 20 00 	0(000d&004%000 0
  0x66ab0	0f f0 0d e0 0b 70 00 00 90 e6 04 00 c4 6a 06 00 	00000p0000000j00
  0x66ac0	fb 00 00 00 78 d1 6a 06 00 db 6a 06 00 fa 6a 06 	0000x0j000j000j0
  0x66ad0	00 06 08 0a 40 d8 00 00 41 02 48 02 00 02 04 e3 	0000@000A0H00000
  0x66ae0	6a 06 00 04 17 12 f8 e3 06 00 c1 03 ef f3 04 00 	j000000000000000
  0x66af0	0d 12 11 80 15 f4 04 00 45 12 08 d0 02 a2 04 b1 	00000000E0000000
  0x66b00	05 02 b1 0a 00 00 00 00 19 12 07 00 12 34 23 00 	00000000000004#0
  0x66b10	12 01 1c 00 0b e0 09 70 08 60 00 00 30 6c 04 00 	0000000p0`000l00
  0x66b20	24 6b 06 00 78 31 6b 06 00 41 6b 06 00 60 6b 06 	$k00x1k00Ak00`k0
  0x66b30	00 08 08 0a e8 d2 00 00 c0 34 d0 3c 00 00 41 04 	00000000040<00A0
  0x66b40	78 02 00 04 06 49 6b 06 00 04 17 12 f8 e3 06 00 	x0000Ik000000000
  0x66b50	61 03 7a f4 04 00 f1 05 11 80 52 f4 04 00 f1 05 	a0z0000000R00000
  0x66b60	02 51 04 06 19 06 02 00 06 72 02 30 30 6c 04 00 	0Q0000000r000l00
  0x66b70	74 6b 06 00 38 21 63 06 00 81 6b 06 00 9d 6b 06 	tk008!c000k000k0
  0x66b80	00 02 00 00 02 89 6b 06 00 04 17 12 f8 e3 06 00 	000000k000000000
  0x66b90	60 a3 f4 04 00 8a 11 80 c9 f4 04 00 8a 02 52 02 	`0000000000000R0
  0x66ba0	19 24 07 00 12 64 17 00 12 34 16 00 12 01 12 00 	0$000d0004000000
  0x66bb0	0b 70 00 00 90 e6 04 00 c0 6b 06 00 8b 00 00 00 	0p0000000k000000
  0x66bc0	38 21 63 06 00 cd 6b 06 00 ec 6b 06 00 02 00 00 	8!c000k000k00000
  0x66bd0	02 d5 6b 06 00 04 17 12 f8 e3 06 00 01 02 0c f5 	00k0000000000000
  0x66be0	04 00 0d 04 11 80 ee f4 04 00 0d 04 04 c4 02 7d 	000000000000000}
  0x66bf0	02 00 00 00 01 14 08 00 14 64 0a 00 14 54 09 00 	000000000d000T00
  0x66c00	14 34 08 00 14 52 10 70 01 18 0a 00 18 64 0a 00 	04000R0p00000d00
  0x66c10	18 54 09 00 18 34 08 00 18 32 14 f0 12 e0 10 70 	0T0004000200000p
  0x66c20	01 20 0c 00 20 64 0c 00 20 54 0b 00 20 34 0a 00 	0 00 d00 T00 400
  0x66c30	20 32 1c f0 1a e0 18 d0 16 c0 14 70 01 1d 0c 00 	 2000000000p0000
  0x66c40	1d 74 0b 00 1d 64 0a 00 1d 54 09 00 1d 34 08 00 	0t000d000T000400
  0x66c50	1d 32 19 f0 17 e0 15 c0 01 16 07 00 16 82 12 f0 	0200000000000000
  0x66c60	10 e0 0e 70 0d 60 0c 50 0b 30 00 00 19 0d 05 00 	000p0`0P00000000
  0x66c70	0d 64 14 00 0d 01 12 00 06 70 00 00 30 6c 04 00 	0d0000000p000l00
  0x66c80	84 6c 06 00 78 21 63 06 00 91 6c 06 00 dc 5f 06 	0l00x!c000l000_0
  0x66c90	00 02 00 00 02 99 6c 06 00 04 17 12 f8 e3 06 00 	000000l000000000
  0x66ca0	01 02 4e f5 04 00 f1 02 11 80 30 f5 04 00 3d 03 	00N00000000000=0
  0x66cb0	19 13 07 00 13 01 12 00 07 e0 05 70 04 60 03 30 	00000000000p0`00
  0x66cc0	02 50 00 00 30 6c 04 00 cc 6c 06 00 60 d1 6c 06 	0P000l000l00`0l0
  0x66cd0	00 02 4d 04 00 00 00 00 01 12 06 00 12 64 13 00 	00M0000000000d00
  0x66ce0	12 34 12 00 12 f2 0b 70 01 18 09 00 18 34 27 00 	0400000p000004'0
  0x66cf0	18 01 1e 00 0c f0 0a e0 08 70 07 60 06 50 00 00 	000000000p0`0P00
  0x66d00	19 2c 09 00 1b 34 95 00 1b 01 8e 00 0c f0 0a e0 	0,00040000000000
  0x66d10	08 70 07 60 06 50 00 00 64 56 04 00 60 04 00 00 	0p0`0P00dV00`000
  0x66d20	19 0c 04 00 0c 52 08 70 07 60 06 30 30 6c 04 00 	00000R0p0`000l00
  0x66d30	34 6d 06 00 38 41 6d 06 00 50 6d 06 00 6e 6d 06 	4m008Am00Pm00nm0
  0x66d40	00 08 08 0a b8 e7 00 00 c0 32 a0 e7 00 00 d0 70 	000000000200000p
  0x66d50	02 00 04 06 58 6d 06 00 04 17 12 f8 e3 06 00 50 	0000Xm000000000P
  0x66d60	af f5 04 00 99 03 11 80 8a f5 04 00 99 03 02 f1 	0000000000000000
  0x66d70	02 06 00 00 01 06 02 00 06 92 02 60 19 25 08 00 	00000000000`0%00
  0x66d80	17 e4 10 00 17 74 0f 00 17 34 0e 00 17 b2 10 50 	00000t000400000P
  0x66d90	64 56 04 00 58 00 00 00 01 0b 01 00 0b e2 00 00 	dV00X00000000000
  0x66da0	01 06 02 00 06 52 02 70 01 19 0a 00 19 74 0d 00 	00000R0p00000t00
  0x66db0	19 64 0c 00 19 54 0b 00 19 34 0a 00 19 72 15 e0 	0d000T0004000r00
  0x66dc0	19 21 09 00 21 01 1a 00 1a f0 18 e0 16 d0 14 c0 	0!00!00000000000
  0x66dd0	12 70 11 60 10 30 00 00 30 6c 04 00 e0 6d 06 00 	0p0`00000l000m00
  0x66de0	78 ed 6d 06 00 0b 6e 06 00 48 6e 06 00 10 08 0a 	x0m000n00Hn00000
  0x66df0	90 82 00 00 b0 32 90 82 00 00 c1 02 3a b8 e7 00 	000002000000:000
  0x66e00	00 c0 32 b0 ec 00 00 e0 30 38 e8 04 0a 0a 0c 1a 	0020000008000000
  0x66e10	6e 06 00 00 0c 0e 31 6e 06 00 04 17 12 f8 e3 06 	n000001n00000000
  0x66e20	00 e1 02 ed f5 04 00 29 07 11 80 16 f6 04 00 85 	0000000)00000000
  0x66e30	07 04 17 12 f8 e3 06 00 01 03 b8 ee 04 00 81 0a 	0000000000000000
  0x66e40	11 80 de ee 04 00 25 0a 0c aa 04 c5 03 08 38 0c 	000000%000000080
  0x66e50	cc 0a ec 08 cc 04 00 00 19 10 06 00 10 64 0d 00 	0000000000000d00
  0x66e60	10 34 0a 00 10 72 0c 70 30 6c 04 00 70 6e 06 00 	04000r0p0l00pn00
  0x66e70	78 7d 6e 06 00 97 6e 06 00 b5 6e 06 00 0c 08 0a 	x}n000n000n00000
  0x66e80	b8 e7 00 00 c0 32 b0 ec 00 00 40 32 b4 17 01 00 	0000020000@20000
  0x66e90	b0 66 60 6e 04 00 c8 02 00 08 0a 9f 6e 06 00 04 	0f`n00000000n000
  0x66ea0	17 12 f8 e3 06 00 60 71 f6 04 00 19 03 11 80 4c 	000000`q0000000L
  0x66eb0	f6 04 00 19 03 06 a4 04 36 08 42 0a 19 20 05 00 	0000000060B00 00
  0x66ec0	12 34 17 00 12 01 12 00 06 50 00 00 64 56 04 00 	040000000P00dV00
  0x66ed0	80 00 00 00 01 16 0a 00 16 54 15 00 16 34 14 00 	000000000T000400
  0x66ee0	16 b2 12 f0 10 e0 0e c0 0c 70 0b 60 01 1c 09 00 	000000000p0`0000
  0x66ef0	1c c2 15 f0 13 e0 11 d0 0f c0 0d 70 0c 60 0b 30 	00000000000p0`00
  0x66f00	0a 50 00 00 01 18 09 00 18 34 1a 00 18 01 14 00 	0P00000004000000
  0x66f10	0c f0 0a e0 08 70 07 60 06 50 00 00 19 14 08 00 	00000p0`0P000000
  0x66f20	14 64 0e 00 14 54 0d 00 14 34 0c 00 14 92 10 70 	0d000T000400000p
  0x66f30	30 6c 04 00 38 6f 06 00 68 19 5f 06 00 41 6f 06 	0l008o00h0_00Ao0
  0x66f40	00 02 ed 03 02 00 00 00 19 2d 0b 00 1b 64 48 00 	000000000-000dH0
  0x66f50	1b 34 47 00 1b 01 40 00 14 f0 12 e0 10 d0 0e c0 	04G000@000000000
  0x66f60	0c 70 00 00 90 e6 04 00 70 6f 06 00 fb 01 00 00 	0p000000po000000
  0x66f70	78 7d 6f 06 00 1f 70 06 00 5c 70 06 00 3a 0a b4 	x}o000p000p00:00
  0x66f80	17 01 00 01 02 3e 60 6e 04 00 6e 60 6e 04 00 8a 	00000>`n00n`n000
  0x66f90	b4 17 01 00 f0 36 60 6e 04 00 5a b4 17 01 00 e0 	000006`n00Z00000
  0x66fa0	36 60 6e 04 00 5a b4 17 01 00 b0 32 90 82 00 00 	6`n00Z0000020000
  0x66fb0	21 03 3e 60 6e 04 00 60 0a 40 d8 00 00 c1 04 3a 	!0>`n00`0@00000:
  0x66fc0	dc ec 00 00 c0 32 40 d8 00 00 41 03 3a 90 82 00 	000002@000A0:000
  0x66fd0	00 01 03 da 40 d8 00 00 41 04 3a dc ec 00 00 c0 	0000@000A0:00000
  0x66fe0	6a 40 d8 00 00 c1 03 3a dc ec 00 00 c0 32 40 d8 	j@00000:000002@0
  0x66ff0	00 00 41 03 3a 90 82 00 00 01 03 01 05 21 05 12 	00A0:00000000!00
  0x67000	dc ec 00 00 01 03 3a b4 17 01 00 21 02 3e 60 6e 	000000:0000!0>`n
  0x67010	04 00 62 dc ec 00 00 c0 ce 60 6e 04 00 21 07 04 	00b000000`n00!00
  0x67020	14 28 2a 2e 70 06 00 2c 36 38 45 70 06 00 04 17 	0(*.p00,68Ep0000
  0x67030	12 f8 e3 06 00 a1 07 b8 ee 04 00 61 31 11 80 de 	00000000000a1000
  0x67040	ee 04 00 39 32 04 17 12 f8 e3 06 00 c1 07 b8 ee 	0009200000000000
  0x67050	04 00 a1 4e 11 80 de ee 04 00 1d 4f 92 69 02 06 	000N0000000O0i00
  0x67060	ac 08 4e 04 4a 06 ae 04 4a 06 9a 0c 4e 0a 44 04 	00N0J000J000N0D0
  0x67070	4a 06 a8 14 70 12 56 0e 44 0a 44 04 4a 06 c0 16 	J000p0V0D0D0J000
  0x67080	65 04 18 e5 02 1a 5a 1c 59 03 1e 9c 1c 1d 03 18 	e00000Z0Y0000000
  0x67090	46 20 b5 02 22 3e 20 05 03 24 e5 02 26 5a 28 59 	F 00"> 00$00&Z(Y
  0x670a0	03 2a 9c 28 5d 04 0e 44 0a 44 04 4a 06 78 14 7c 	0*0(]00D0D0J0x0|
  0x670b0	12 56 0e 44 0a 44 04 4a 06 78 14 70 12 56 0e 44 	0V0D0D0J0x0p0V0D
  0x670c0	0a 44 04 4a 06 c0 2e 2d 03 32 68 36 55 0b 32 5e 	0D0J00.-02h6U02^
  0x670d0	38 ae 0e 44 0a 44 04 4a 06 58 0e 48 0a 44 04 4a 	800D0D0J0X0H0D0J
  0x670e0	06 28 00 48 16 60 1a 2c 18 2c 22 2c 20 2c 26 2c 	0(0H0`0,0,", ,&,
  0x670f0	24 1e 2e 10 30 32 32 1e 36 f0 00 00 19 0c 04 00 	$0.0022060000000
  0x67100	0c 72 08 f0 06 e0 04 30 30 6c 04 00 10 71 06 00 	0r0000000l000q00
  0x67110	78 1d 71 06 00 26 71 06 00 44 71 06 00 06 08 0a 	x0q00&q00Dq00000
  0x67120	90 82 00 00 d0 40 02 00 02 04 2e 71 06 00 04 17 	00000@0000.q0000
  0x67130	12 f8 e3 06 00 60 4c f7 04 00 dd 06 11 80 27 f7 	00000`L0000000'0
  0x67140	04 00 c5 06 08 35 07 02 10 04 36 02 12 00 00 00 	0000050000600000
  0x67150	01 14 06 00 14 64 0b 00 14 34 0a 00 14 52 10 70 	00000d0004000R0p
  0x67160	19 25 0b 00 25 34 22 00 25 01 1a 00 1a f0 18 e0 	0%00%4"0%0000000
  0x67170	16 d0 14 c0 12 70 11 60 10 50 00 00 30 6c 04 00 	00000p0`0P000l00
  0x67180	84 71 06 00 60 89 71 06 00 02 29 10 00 00 00 00 	0q00`0q000)00000
  0x67190	19 04 01 00 04 42 00 00 30 6c 04 00 a0 71 06 00 	00000B000l000q00
  0x671a0	60 a5 71 06 00 02 3a 00 19 25 0a 00 16 54 15 00 	`0q000:00%000T00
  0x671b0	16 34 14 00 16 b2 12 f0 10 e0 0e c0 0c 70 0b 60 	0400000000000p0`
  0x671c0	90 e6 04 00 cc 71 06 00 52 00 00 00 28 d5 71 06 	00000q00R000(0q0
  0x671d0	00 dc 71 06 00 02 0a e8 18 01 00 40 06 05 02 00 	00q00000000@0000
  0x671e0	be 02 44 00 19 0d 06 00 0d 34 0c 00 0d 72 09 e0 	00D0000004000r00
  0x671f0	07 70 06 60 30 6c 04 00 fc 71 06 00 78 21 63 06 	0p0`0l000q00x!c0
  0x67200	00 09 72 06 00 27 72 06 00 02 00 00 02 11 72 06 	00r00'r0000000r0
  0x67210	00 04 17 12 f8 e3 06 00 60 7e f7 04 00 35 02 11 	00000000`~000500
  0x67220	80 a4 f7 04 00 b9 02 04 0d 02 02 ec 00 00 00 00 	0000000000000000
  0x67230	19 06 02 00 06 32 02 30 30 6c 04 00 40 72 06 00 	000002000l00@r00
  0x67240	60 45 72 06 00 02 66 00 19 0a 04 00 0a 34 06 00 	`Er000f000000400
  0x67250	0a 32 06 70 30 6c 04 00 5c 72 06 00 68 19 5f 06 	020p0l000r00h0_0
  0x67260	00 65 72 06 00 02 32 02 19 04 01 00 04 42 00 00 	0er0002000000B00
  0x67270	30 6c 04 00 78 72 06 00 60 7d 72 06 00 02 1c 00 	0l00xr00`}r00000
  0x67280	19 1e 09 00 1e 34 18 00 1e 01 12 00 17 f0 15 e0 	0000040000000000
  0x67290	13 c0 11 70 10 60 00 00 30 6c 04 00 a0 72 06 00 	000p0`000l000r00
  0x672a0	38 ad 72 06 00 b7 72 06 00 d6 72 06 00 06 08 0a 	80r000r000r00000
  0x672b0	90 82 00 00 21 03 48 02 00 02 04 bf 72 06 00 04 	0000!0H00000r000
  0x672c0	17 12 f8 e3 06 00 21 02 f1 f7 04 00 f1 14 11 80 	000000!000000000
  0x672d0	c9 f7 04 00 f1 14 04 2d 12 04 01 02 02 00 00 00 	0000000-00000000
  0x672e0	19 12 06 00 12 34 0c 00 12 52 0e e0 0c 70 0b 60 	000004000R000p0`
  0x672f0	30 6c 04 00 f8 72 06 00 38 21 63 06 00 05 73 06 	0l000r008!c000s0
  0x67300	00 23 73 06 00 02 00 00 02 0d 73 06 00 04 17 12 	0#s0000000s00000
  0x67310	f8 e3 06 00 40 af f5 04 00 61 02 11 80 8a f5 04 	0000@0000a000000
  0x67320	00 89 02 08 d0 02 5c 00 da 02 32 00 19 27 0a 00 	0000000000200'00
  0x67330	19 01 1b 00 0d f0 0b e0 09 d0 07 c0 05 70 04 60 	0000000000000p0`
  0x67340	03 30 02 50 64 56 04 00 c0 00 00 00 19 27 0a 00 	000PdV0000000'00
  0x67350	19 01 13 00 0d f0 0b e0 09 d0 07 c0 05 70 04 60 	0000000000000p0`
  0x67360	03 30 02 50 90 e6 04 00 70 73 06 00 83 00 00 00 	000P0000ps000000
  0x67370	60 75 73 06 00 02 89 02 00 00 00 00 01 19 0a 00 	`us0000000000000
  0x67380	19 e4 09 00 19 74 08 00 19 64 07 00 19 34 06 00 	00000t000d000400
  0x67390	19 32 15 f0 19 0a 04 00 0a 34 06 00 0a 32 06 70 	020000000400020p
  0x673a0	30 6c 04 00 a8 73 06 00 60 ad 73 06 00 02 28 00 	0l000s00`0s000(0
  0x673b0	11 14 06 00 14 64 08 00 14 34 07 00 14 32 10 70 	00000d000400020p
  0x673c0	30 6c 04 00 c8 73 06 00 28 d1 73 06 00 e7 73 06 	0l000s00(0s000s0
  0x673d0	00 08 0c 30 1f 01 00 60 36 26 f8 04 00 2e 39 f8 	0000000`6&000.90
  0x673e0	04 00 2e 4c f8 04 00 04 fe 02 d2 08 19 0f 06 00 	00.L000000000000
  0x673f0	0f 64 07 00 0f 34 06 00 0f 32 0b 70 30 6c 04 00 	0d000400020p0l00
  0x67400	04 74 06 00 68 19 5f 06 00 0d 74 06 00 02 79 02 	0t00h0_000t000y0
  0x67410	02 00 00 00 01 14 08 00 14 64 09 00 14 54 08 00 	000000000d000T00
  0x67420	14 34 07 00 14 32 10 70 19 13 08 00 13 64 0e 00 	0400020p00000d00
  0x67430	13 34 0d 00 13 72 0f f0 0d e0 0b 70 30 6c 04 00 	04000r00000p0l00
  0x67440	44 74 06 00 38 51 74 06 00 5a 74 06 00 78 74 06 	Dt008Qt00Zt00xt0
  0x67450	00 06 08 0a 24 69 01 00 c0 40 02 00 02 04 62 74 	0000$i000@0000bt
  0x67460	06 00 04 17 12 f8 e3 06 00 60 90 f8 04 00 45 07 	000000000`0000E0
  0x67470	11 80 6b f8 04 00 29 07 06 80 02 05 02 04 a0 02 	00k000)000000000
  0x67480	01 0f 06 00 0f 64 09 00 0f 34 08 00 0f 52 0b 70 	00000d0004000R0p
  0x67490	01 0a 04 00 0a 34 0a 00 0a 72 06 70 19 0f 06 00 	000004000r0p0000
  0x674a0	0f 64 0b 00 0f 34 0a 00 0f 72 0b 70 30 6c 04 00 	0d0004000r0p0l00
  0x674b0	b4 74 06 00 78 21 63 06 00 c1 74 06 00 dd 74 06 	0t00x!c000t000t0
  0x674c0	00 02 00 00 02 c9 74 06 00 04 17 12 f8 e3 06 00 	000000t000000000
  0x674d0	60 db f8 04 00 f8 11 80 b6 f8 04 00 f8 02 86 02 	`000000000000000
  0x674e0	19 15 08 00 15 74 11 00 15 64 0f 00 15 34 0e 00 	00000t000d000400
  0x674f0	15 b2 11 e0 30 6c 04 00 fc 74 06 00 78 21 63 06 	00000l000t00x!c0
  0x67500	00 09 75 06 00 25 75 06 00 02 00 00 02 11 75 06 	00u00%u0000000u0
  0x67510	00 04 17 12 f8 e3 06 00 b0 01 f9 04 00 e6 11 80 	0000000000000000
  0x67520	2a f9 04 00 e6 02 d6 02 19 07 01 00 07 62 00 00 	*000000000000b00
  0x67530	30 6c 04 00 38 75 06 00 68 41 75 06 00 dc 5f 06 	0l008u00hAu000_0
  0x67540	00 06 08 08 18 00 00 00 19 1e 08 00 1e 72 1a f0 	0000000000000r00
  0x67550	18 e0 16 d0 14 c0 12 70 11 60 10 30 30 6c 04 00 	0000000p0`000l00
  0x67560	64 75 06 00 78 71 75 06 00 7a 75 06 00 98 75 06 	du00xqu00zu000u0
  0x67570	00 06 08 0a f4 68 01 00 40 40 02 00 02 04 82 75 	00000h00@@00000u
  0x67580	06 00 04 17 12 f8 e3 06 00 70 5e f9 04 00 71 0b 	000000000p^000q0
  0x67590	11 80 87 f9 04 00 71 0b 08 71 02 00 9d 05 02 72 	000000q00q00000r
  0x675a0	04 68 02 00 19 26 0a 00 17 64 15 00 17 34 14 00 	0h000&000d000400
  0x675b0	17 b2 13 f0 11 e0 0f d0 0d c0 0b 70 90 e6 04 00 	00000000000p0000
  0x675c0	c8 75 06 00 5b 00 00 00 78 d5 75 06 00 f4 75 06 	0u00[000x0u000u0
  0x675d0	00 12 76 06 00 0e 08 0a 90 82 00 00 40 36 af f9 	00v000000000@600
  0x675e0	04 00 2a 40 d8 00 00 60 36 e4 f9 04 00 b2 c4 68 	00*@000`6000000h
  0x675f0	01 00 50 f0 02 00 0a 0c fc 75 06 00 04 17 12 f8 	00P000000u000000
  0x67600	e3 06 00 a0 ef f3 04 00 55 09 11 80 15 f4 04 00 	00000000U0000000
  0x67610	55 09 0e 3d 03 04 68 06 1c 08 7e 0a ac 0c 45 02 	U00=00h000~000E0
  0x67620	04 5c 00 00 19 0f 04 00 0f 52 08 70 07 30 06 50 	000000000R0p000P
  0x67630	30 6c 04 00 38 76 06 00 60 3d 76 06 00 02 68 00 	0l008v00`=v000h0
  0x67640	19 13 08 00 13 34 14 00 13 d2 0c d0 0a c0 08 70 	000004000000000p
  0x67650	07 60 06 50 30 6c 04 00 5c 76 06 00 60 61 76 06 	0`0P0l000v00`av0
  0x67660	00 02 09 02 00 00 00 00 19 19 0a 00 19 74 09 00 	0000000000000t00
  0x67670	19 64 08 00 19 54 07 00 19 34 06 00 19 32 15 f0 	0d000T0004000200
  0x67680	30 6c 04 00 88 76 06 00 60 8d 76 06 00 02 21 02 	0l000v00`0v000!0
  0x67690	00 00 00 00 19 18 08 00 18 64 0d 00 18 34 0b 00 	000000000d000400
  0x676a0	18 52 14 f0 12 e0 10 70 30 6c 04 00 b0 76 06 00 	0R00000p0l000v00
  0x676b0	78 bd 76 06 00 c6 76 06 00 e4 76 06 00 06 0c d0 	x0v000v000v00000
  0x676c0	3c 00 00 c0 30 38 02 02 02 04 ce 76 06 00 04 17 	<0000800000v0000
  0x676d0	12 f8 e3 06 00 40 0b f3 04 00 35 03 11 80 31 f3 	00000@0000500010
  0x676e0	04 00 09 03 04 b9 02 04 95 02 00 00 01 14 08 00 	0000000000000000
  0x676f0	14 64 08 00 14 54 07 00 14 34 06 00 14 32 10 70 	0d000T000400020p
  0x67700	19 06 02 00 06 32 02 30 30 6c 04 00 10 77 06 00 	000002000l000w00
  0x67710	68 19 77 06 00 dc 5f 06 00 06 0c d0 3c 00 00 80 	h0w000_00000<000
  0x67720	30 38 00 00 19 29 0a 00 1a 64 18 00 1a 34 17 00 	08000)000d000400
  0x67730	1a f2 13 f0 11 e0 0f d0 0d c0 0b 70 90 e6 04 00 	00000000000p0000
  0x67740	48 77 06 00 73 00 00 00 38 21 63 06 00 55 77 06 	Hw00s0008!c00Uw0
  0x67750	00 73 77 06 00 02 00 00 02 5d 77 06 00 04 17 12 	0sw000000]w00000
  0x67760	f8 e3 06 00 d0 bf f3 04 00 4d 08 11 80 a1 f3 04 	000000000M000000
  0x67770	00 f5 08 04 e0 02 ad 06 00 00 00 00 19 14 08 00 	0000000000000000
  0x67780	14 64 09 00 14 54 08 00 14 34 07 00 14 32 10 70 	0d000T000400020p
  0x67790	30 6c 04 00 98 77 06 00 60 9d 77 06 00 02 b4 00 	0l000w00`0w00000
  0x677a0	19 19 0a 00 19 74 09 00 19 64 08 00 19 54 07 00 	00000t000d000T00
  0x677b0	19 34 06 00 19 32 15 e0 30 6c 04 00 c0 77 06 00 	040002000l000w00
  0x677c0	60 c5 77 06 00 02 a8 00 19 14 08 00 14 64 08 00 	`0w0000000000d00
  0x677d0	14 54 07 00 14 34 06 00 14 32 10 70 30 6c 04 00 	0T000400020p0l00
  0x677e0	e4 77 06 00 60 e9 77 06 00 02 8e 00 19 15 08 00 	0w00`0w000000000
  0x677f0	15 64 11 00 15 34 10 00 15 b2 0e e0 0c 70 0b 50 	0d00040000000p0P
  0x67800	30 6c 04 00 08 78 06 00 60 0d 78 06 00 02 f0 00 	0l000x00`0x00000
  0x67810	19 14 08 00 14 64 09 00 14 54 08 00 14 34 06 00 	00000d000T000400
  0x67820	14 32 10 70 30 6c 04 00 2c 78 06 00 60 31 78 06 	020p0l00,x00`1x0
  0x67830	00 02 d0 00 19 26 0a 00 17 64 17 00 17 34 16 00 	00000&000d000400
  0x67840	17 d2 13 f0 11 e0 0f d0 0d c0 0b 70 90 e6 04 00 	00000000000p0000
  0x67850	58 78 06 00 63 00 00 00 78 65 78 06 00 7e 78 06 	Xx00c000xex00~x0
  0x67860	00 9c 78 06 00 0c 08 0a 40 d8 00 00 70 36 18 fa 	00x00000@000p600
  0x67870	04 00 2e 41 fa 04 00 82 c4 68 01 00 40 c0 02 00 	00.A00000h00@000
  0x67880	08 0a 86 78 06 00 04 17 12 f8 e3 06 00 b0 ef f3 	000x000000000000
  0x67890	04 00 dd 09 11 80 15 f4 04 00 dd 09 0e f8 02 e8 	0000000000000000
  0x678a0	04 5d 02 06 7e 08 70 0a a8 04 96 00 19 06 02 00 	0]00~0p000000000
  0x678b0	06 52 02 30 30 6c 04 00 bc 78 06 00 78 21 63 06 	0R000l000x00x!c0
  0x678c0	00 c9 78 06 00 e5 78 06 00 02 00 00 02 d1 78 06 	00x000x0000000x0
  0x678d0	00 04 17 12 f8 e3 06 00 40 51 fa 04 00 5a 11 80 	00000000@Q000Z00
  0x678e0	77 fa 04 00 5a 02 4a 02 19 13 08 00 13 64 0c 00 	w000Z0J000000d00
  0x678f0	13 34 0a 00 13 52 0f f0 0d e0 0b 70 30 6c 04 00 	04000R00000p0l00
  0x67900	04 79 06 00 78 21 63 06 00 11 79 06 00 2d 79 06 	0y00x!c000y00-y0
  0x67910	00 02 00 00 02 19 79 06 00 04 17 12 f8 e3 06 00 	000000y000000000
  0x67920	40 71 f6 04 00 e8 11 80 4c f6 04 00 e8 02 b8 02 	@q000000L0000000
  0x67930	19 06 02 00 06 32 02 30 30 6c 04 00 40 79 06 00 	000002000l00@y00
  0x67940	60 45 79 06 00 02 b0 00 19 0f 06 00 0f 64 08 00 	`Ey0000000000d00
  0x67950	0f 34 07 00 0f 32 0b 70 30 6c 04 00 60 79 06 00 	0400020p0l00`y00
  0x67960	60 65 79 06 00 02 d9 02 00 00 00 00 01 14 08 00 	`ey0000000000000
  0x67970	14 64 10 00 14 54 0f 00 14 34 0e 00 14 b2 10 70 	0d000T000400000p
  0x67980	19 1f 0c 00 1f 74 14 00 1f 64 13 00 1f 34 12 00 	00000t000d000400
  0x67990	1f b2 18 f0 16 e0 14 d0 12 c0 10 50 30 6c 04 00 	00000000000P0l00
  0x679a0	a4 79 06 00 60 a9 79 06 00 02 e9 02 00 00 00 00 	0y00`0y000000000
  0x679b0	01 19 0a 00 19 74 0f 00 19 64 0e 00 19 54 0d 00 	00000t000d000T00
  0x679c0	19 34 0c 00 19 92 15 e0 19 1d 0c 00 1d 74 0d 00 	0400000000000t00
  0x679d0	1d 64 0c 00 1d 54 0b 00 1d 34 0a 00 1d 52 19 f0 	0d000T0004000R00
  0x679e0	17 e0 15 c0 30 6c 04 00 ec 79 06 00 60 f1 79 06 	00000l000y00`0y0
  0x679f0	00 02 7d 03 00 00 00 00 19 18 0a 00 18 64 12 00 	00}0000000000d00
  0x67a00	18 54 11 00 18 34 10 00 18 b2 14 f0 12 e0 10 70 	0T0004000000000p
  0x67a10	30 6c 04 00 18 7a 06 00 60 1d 7a 06 00 02 09 04 	0l000z00`0z00000
  0x67a20	00 00 00 00 01 15 08 00 15 74 08 00 15 64 07 00 	000000000t000d00
  0x67a30	15 34 06 00 15 32 11 e0 11 19 0a 00 19 74 0f 00 	0400020000000t00
  0x67a40	19 64 0e 00 19 54 0d 00 19 34 0c 00 19 92 15 e0 	0d000T0004000000
  0x67a50	30 6c 04 00 58 7a 06 00 28 61 7a 06 00 68 7a 06 	0l00Xz00(az00hz0
  0x67a60	00 02 0a f8 88 01 00 40 04 55 02 02 d2 00 00 00 	0000000@0U000000
  0x67a70	19 14 08 00 14 52 10 f0 0e e0 0c d0 0a c0 08 70 	00000R000000000p
  0x67a80	07 60 06 30 30 6c 04 00 8c 7a 06 00 38 21 63 06 	0`000l000z008!c0
  0x67a90	00 99 7a 06 00 a8 7a 06 00 02 00 00 02 a1 7a 06 	00z000z0000000z0
  0x67aa0	00 02 01 80 a8 fa 04 00 06 45 03 00 d6 02 5d 08 	000000000E0000]0
  0x67ab0	00 00 00 00 01 0f 04 00 0f 34 06 00 0f 32 0b 70 	000000000400020p
  0x67ac0	19 10 08 00 10 52 0c f0 0a e0 08 d0 06 c0 04 70 	00000R000000000p
  0x67ad0	03 60 02 30 30 6c 04 00 dc 7a 06 00 38 21 63 06 	0`000l000z008!c0
  0x67ae0	00 e9 7a 06 00 f8 7a 06 00 02 00 00 02 f1 7a 06 	00z000z0000000z0
  0x67af0	00 02 01 80 dc fa 04 00 06 91 02 00 b4 02 75 04 	00000000000000u0
  0x67b00	00 00 00 00 19 10 08 00 10 72 0c f0 0a e0 08 d0 	000000000r000000
  0x67b10	06 c0 04 70 03 60 02 30 30 6c 04 00 20 7b 06 00 	000p0`000l00 {00
  0x67b20	38 21 63 06 00 2d 7b 06 00 3c 7b 06 00 02 00 00 	8!c00-{00<{00000
  0x67b30	02 35 7b 06 00 02 01 80 10 fb 04 00 06 a1 02 00 	05{0000000000000
  0x67b40	d4 02 75 04 00 00 00 00 19 10 08 00 10 52 0c f0 	00u0000000000R00
  0x67b50	0a e0 08 d0 06 c0 04 70 03 60 02 30 30 6c 04 00 	0000000p0`000l00
  0x67b60	64 7b 06 00 38 21 63 06 00 71 7b 06 00 f8 7a 06 	d{008!c00q{000z0
  0x67b70	00 02 00 00 02 79 7b 06 00 02 01 80 4a fb 04 00 	00000y{00000J000
  0x67b80	01 14 06 00 14 64 07 00 14 34 06 00 14 32 10 70 	00000d000400020p
  0x67b90	01 0f 06 00 0f 74 03 00 0a 64 02 00 05 34 01 00 	00000t000d000400
  0x67ba0	11 1d 09 00 1d 82 16 f0 14 e0 12 d0 10 c0 0e 70 	000000000000000p
  0x67bb0	0d 60 0c 30 0b 50 00 00 30 6c 04 00 c0 7b 06 00 	0`000P000l000{00
  0x67bc0	28 c9 7b 06 00 d1 7b 06 00 02 0a c4 68 01 00 41 	(0{000{00000h00A
  0x67bd0	02 0c b0 00 39 08 02 69 02 00 66 02 61 02 00 09 	0000900i00f0a000
  0x67be0	02 02 00 00 01 05 02 00 05 34 01 00 01 1c 0c 00 	0000000004000000
  0x67bf0	1c 64 0c 00 1c 54 0b 00 1c 34 0a 00 1c 32 18 f0 	0d000T0004000200
  0x67c00	16 e0 14 d0 12 c0 10 70 19 23 08 00 11 01 1b 00 	0000000p0#000000
  0x67c10	0a f0 08 e0 06 c0 04 70 03 60 02 30 90 e6 04 00 	0000000p0`000000
  0x67c20	28 7c 06 00 cb 00 00 00 78 35 7c 06 00 59 7c 06 	(|000000x5|00Y|0
  0x67c30	00 78 7c 06 00 0e 08 0a 88 98 01 00 70 32 40 d8 	0x|000000000p2@0
  0x67c40	00 00 80 32 40 d8 00 00 c0 32 40 d8 00 00 01 02 	0002@00002@00000
  0x67c50	6a 8c 9a 01 00 01 02 21 02 02 00 0a 0c 61 7c 06 	j000000!00000a|0
  0x67c60	00 04 17 12 f8 e3 06 00 01 03 ef f3 04 00 91 07 	0000000000000000
  0x67c70	11 80 15 f4 04 00 c1 07 0e 29 03 04 1c 06 26 08 	000000000)0000&0
  0x67c80	26 0a 2e 0c 01 02 08 7d 02 00 00 00 01 15 08 00 	&0.0000}00000000
  0x67c90	15 74 0a 00 15 64 09 00 15 54 08 00 15 52 11 e0 	0t000d000T000R00
  0x67ca0	19 27 09 00 15 34 2a 00 15 01 22 00 0e f0 0c e0 	0'0004*000"00000
  0x67cb0	0a d0 08 c0 06 60 00 00 90 e6 04 00 c4 7c 06 00 	00000`0000000|00
  0x67cc0	0b 01 00 00 78 d1 7c 06 00 0b 7d 06 00 2a 7d 06 	0000x0|000}00*}0
  0x67cd0	00 16 08 0e c6 fb 04 00 2e 07 fc 04 00 2e 17 fc 	00000000.0000.00
  0x67ce0	04 00 82 88 98 01 00 40 32 50 9a 01 00 80 62 40 	0000000@2P0000b@
  0x67cf0	d8 00 00 61 02 3a 40 d8 00 00 f0 32 40 d8 00 00 	000a0:@00002@000
  0x67d00	01 03 6a 8c 9a 01 00 01 03 81 03 02 00 12 14 13 	00j0000000000000
  0x67d10	7d 06 00 04 17 12 f8 e3 06 00 01 04 ef f3 04 00 	}000000000000000
  0x67d20	49 0a 11 80 15 f4 04 00 b9 0a 14 01 02 02 68 04 	I0000000000000h0
  0x67d30	84 08 86 0c 3d 02 0a 28 0e 26 10 2c 12 2e 14 51 	0000=00(0&0,0.0Q
  0x67d40	03 00 00 00 19 29 08 00 1a 64 17 00 1a 34 14 00 	00000)000d000400
  0x67d50	1a f2 13 f0 11 e0 0f 70 90 e6 04 00 64 7d 06 00 	0000000p0000d}00
  0x67d60	73 00 00 00 78 71 7d 06 00 86 7d 06 00 a4 7d 06 	s000xq}000}000}0
  0x67d70	00 0a 08 0a 40 d8 00 00 50 32 88 98 01 00 40 32 	0000@000P20000@2
  0x67d80	40 d8 00 00 90 a0 02 00 06 08 8e 7d 06 00 04 17 	@0000000000}0000
  0x67d90	12 f8 e3 06 00 d0 ef f3 04 00 95 07 11 80 15 f4 	0000000000000000
  0x67da0	04 00 c5 07 0a 94 00 15 03 06 9e 08 78 06 81 02 	000000000000x000
  0x67db0	08 00 00 00 01 0e 04 00 0e 34 06 00 0e 32 0a 70 	000000000400020p
  0x67dc0	11 1c 0c 00 1c 64 0e 00 1c 54 0d 00 1c 34 0c 00 	00000d000T000400
  0x67dd0	1c 52 18 f0 16 e0 14 d0 12 c0 10 70 30 6c 04 00 	0R000000000p0l00
  0x67de0	e4 7d 06 00 28 ed 7d 06 00 fa 7d 06 00 04 0a 64 	0}00(0}000}0000d
  0x67df0	a7 01 00 40 3a d4 a3 01 00 40 06 5d 02 02 f9 02 	000@:0000@0]0000
  0x67e00	04 99 03 00 11 1c 0c 00 1c 64 10 00 1c 54 0f 00 	000000000d000T00
  0x67e10	1c 34 0e 00 1c 72 18 f0 16 e0 14 d0 12 c0 10 70 	04000r000000000p
  0x67e20	30 6c 04 00 28 7e 06 00 28 31 7e 06 00 3e 7e 06 	0l00(~00(1~00>~0
  0x67e30	00 04 0a 48 a7 01 00 60 3a 8c a3 01 00 60 06 ed 	000H000`:0000`00
  0x67e40	02 02 8e 04 05 05 00 00 01 15 08 00 15 74 09 00 	0000000000000t00
  0x67e50	15 64 08 00 15 34 07 00 15 32 11 e0 01 1c 0c 00 	0d00040002000000
  0x67e60	1c 64 0d 00 1c 54 0c 00 1c 34 0a 00 1c 32 18 f0 	0d000T0004000200
  0x67e70	16 e0 14 d0 12 c0 10 70 01 15 09 00 15 62 11 f0 	0000000p00000b00
  0x67e80	0f e0 0d d0 0b c0 09 70 08 60 07 50 06 30 00 00 	0000000p0`0P0000
  0x67e90	01 0a 04 00 0a 64 02 00 05 34 01 00 19 1c 0b 00 	00000d0004000000
  0x67ea0	1c 74 2c 00 1c 64 2b 00 1c 34 2a 00 1c 01 26 00 	0t,00d+004*000&0
  0x67eb0	15 f0 13 e0 11 c0 00 00 30 6c 04 00 c0 7e 06 00 	000000000l000~00
  0x67ec0	78 cd 7e 06 00 ec 7e 06 00 0b 7f 06 00 0c 08 0a 	x0~000~000000000
  0x67ed0	08 b3 01 00 c1 03 3a 90 82 00 00 e1 03 3a 90 82 	000000:000000:00
  0x67ee0	00 00 01 04 3a 90 82 00 00 21 04 f0 02 00 08 0a 	0000:0000!000000
  0x67ef0	f4 7e 06 00 04 17 12 f8 e3 06 00 81 04 b7 fc 04 	0~00000000000000
  0x67f00	00 31 10 11 80 e6 fc 04 00 65 10 08 7e 04 66 06 	010000000e00~0f0
  0x67f10	66 08 66 0a 19 0d 03 00 0d 01 12 00 06 50 00 00 	f0f0000000000P00
  0x67f20	30 6c 04 00 28 7f 06 00 69 da 5f 06 00 dc 5f 06 	0l00(000i0_000_0
  0x67f30	00 a1 02 00 01 18 0a 00 18 64 10 00 18 54 0f 00 	000000000d000T00
  0x67f40	18 34 0e 00 18 92 14 f0 12 e0 10 70 01 17 08 00 	04000000000p0000
  0x67f50	17 54 11 00 17 34 10 00 17 b2 13 e0 11 70 10 60 	0T00040000000p0`
  0x67f60	19 29 0a 00 1b 74 15 00 1b 64 14 00 1b 34 13 00 	0)000t000d000400
  0x67f70	1b d2 14 f0 12 e0 10 50 64 56 04 00 68 00 00 00 	0000000PdV00h000
  0x67f80	19 28 08 00 1a e4 15 00 1a 74 14 00 1a 34 13 00 	0(0000000t000400
  0x67f90	1a f2 10 50 64 56 04 00 70 00 00 00 19 2a 0b 00 	000PdV00p0000*00
  0x67fa0	1c 34 20 00 1c 01 16 00 10 f0 0e e0 0c d0 0a c0 	04 0000000000000
  0x67fb0	08 70 07 60 06 50 00 00 64 56 04 00 a0 00 00 00 	0p0`0P00dV000000
  0x67fc0	11 0a 04 00 0a 34 06 00 0a 32 06 70 30 6c 04 00 	00000400020p0l00
  0x67fd0	d4 7f 06 00 28 19 5f 06 00 dd 7f 06 00 02 a8 02 	0000(0_000000000
  0x67fe0	11 0f 06 00 0f 34 0b 00 0f 52 08 70 07 60 06 50 	000004000R0p0`0P
  0x67ff0	30 6c 04 00 f8 7f 06 00 28 01 80 06 00 1e 80 06 	0l000000(0000000
  0x68000	00 0c 0a c8 ee 01 00 a0 36 60 6e 04 00 60 62 c8 	000000006`n00`b0
  0x68010	ee 01 00 c0 36 60 6e 04 00 c6 60 6e 04 00 0a 88 	00006`n000`n0000
  0x68020	02 e8 08 c2 04 4c 0c 76 00 00 00 00 11 0f 06 00 	00000L0v00000000
  0x68030	0f 64 07 00 0f 34 06 00 0f 32 0b 70 30 6c 04 00 	0d000400020p0l00
  0x68040	44 80 06 00 28 19 5f 06 00 4d 80 06 00 02 d2 02 	D000(0_00M000000
  0x68050	11 0f 06 00 0f 64 09 00 0f 34 08 00 0f 52 0b 70 	00000d0004000R0p
  0x68060	30 6c 04 00 68 80 06 00 28 71 80 06 00 78 80 06 	0l00h000(q000x00
  0x68070	00 02 0a ac f0 01 00 40 04 35 06 02 4a 00 00 00 	0000000@0500J000
  0x68080	19 06 02 00 06 32 02 30 30 6c 04 00 90 80 06 00 	000002000l000000
  0x68090	60 95 80 06 00 02 2e 00 11 17 09 00 17 01 16 00 	`00000.000000000
  0x680a0	0b f0 09 e0 07 c0 05 70 04 60 03 30 02 50 00 00 	0000000p0`000P00
  0x680b0	30 6c 04 00 b8 80 06 00 28 c1 80 06 00 20 81 06 	0l000000(0000 00
  0x680c0	00 28 0a c8 ee 01 00 01 04 3e 60 6e 04 00 6e 60 	0(0000000>`n00n`
  0x680d0	6e 04 00 8a c8 ee 01 00 01 02 3a c8 ee 01 00 21 	n000000000:0000!
  0x680e0	04 3e 60 6e 04 00 9e 60 6e 04 00 8a c8 ee 01 00 	0>`n000`n0000000
  0x680f0	60 36 60 6e 04 00 5a c8 ee 01 00 70 36 60 6e 04 	`6`n00Z0000p6`n0
  0x68100	00 2e 60 6e 04 00 d8 d1 02 61 03 91 04 c1 04 ca 	0.`n00000a000000
  0x68110	c8 ee 01 00 80 36 60 6e 04 00 5a c8 ee 01 00 90 	000006`n00Z00000
  0x68120	b6 a2 00 79 02 02 44 06 4a 00 74 02 54 06 19 02 	000y00D0J0t0T000
  0x68130	04 d8 06 4a 00 a5 02 0a be 0c 90 0a 26 0c 4c 0a 	000J00000000&0L0
  0x68140	54 0e 40 04 4a 06 64 10 5c 0c 4a 0e 40 04 4a 06 	T0@0J0d000J0@0J0
  0x68150	4a 10 5c 0c 4a 0e 40 04 4a 06 5e 16 5c 12 4a 0c 	J000J0@0J0^000J0
  0x68160	4a 0e 40 04 4a 06 ca 12 4a 0c 4a 0e 40 04 4a 06 	J0@0J000J0J0@0J0
  0x68170	52 14 5c 12 4a 0c 4a 0e 40 04 4a 06 74 12 4a 0c 	R000J0J0@0J0t0J0
  0x68180	4a 0e 40 04 4a 06 52 24 5c 16 4a 12 4a 0c 4a 0e 	J0@0J0R$00J0J0J0
  0x68190	40 04 4a 06 8e 12 4a 0c 4a 0e 40 04 4a 06 4a 28 	@0J000J0J0@0J0J(
  0x681a0	5c 26 4a 16 4a 12 4a 0c 4a 0e 40 04 4a 06 86 26 	0&J0J0J0J0@0J00&
  0x681b0	4a 16 4a 12 4a 0c 4a 0e 40 04 4a 06 42 28 5c 26 	J0J0J0J0@0J0B(0&
  0x681c0	4a 16 4a 12 4a 0c 4a 0e 40 04 4a 06 54 26 4a 16 	J0J0J0J0@0J0T&J0
  0x681d0	4a 12 4a 0c 4a 0e 40 04 4a 06 00 00 19 0e 06 00 	J0J0J0@0J0000000
  0x681e0	0e 32 07 e0 05 70 04 60 03 30 02 50 30 6c 04 00 	02000p0`000P0l00
  0x681f0	f4 81 06 00 68 19 5f 06 00 fd 81 06 00 10 11 02 	0000h0_000000000
  0x68200	00 05 03 02 4c 00 c2 02 4c 00 f4 02 4c 00 48 02 	0000L000L000L0H0
  0x68210	11 14 08 00 14 64 0d 00 14 54 0c 00 14 34 0b 00 	00000d000T000400
  0x68220	14 72 10 70 30 6c 04 00 2c 82 06 00 28 35 82 06 	0r0p0l00,000(500
  0x68230	00 3c 82 06 00 02 0a 20 e6 00 00 a0 06 88 00 66 	0<00000 0000000f
  0x68240	02 f2 00 00 01 1f 0b 00 1f c4 26 00 1f 64 25 00 	0000000000&00d%0
  0x68250	1f 34 24 00 1f 01 20 00 14 f0 12 e0 10 50 00 00 	04$000 000000P00
  0x68260	11 1c 0a 00 1c 64 0f 00 1c 54 0e 00 1c 34 0d 00 	00000d000T000400
  0x68270	1c 72 18 f0 16 e0 14 70 30 6c 04 00 80 82 06 00 	0r00000p0l000000
  0x68280	28 89 82 06 00 94 82 06 00 04 0e 98 fd 04 00 2e 	(00000000000000.
  0x68290	a8 fd 04 00 02 d9 07 04 11 1b 0a 00 1b 74 0e 00 	0000000000000t00
  0x682a0	1b 64 0d 00 1b 34 0c 00 1b 72 14 e0 12 c0 10 50 	0d0004000r00000P
  0x682b0	30 6c 04 00 b8 82 06 00 28 c1 82 06 00 c7 82 06 	0l000000(0000000
  0x682c0	00 02 0e b8 fd 04 00 04 8c 00 f1 04 02 00 00 00 	0000000000000000
  0x682d0	11 10 06 00 10 64 08 00 10 34 07 00 10 32 0c 70 	00000d000400020p
  0x682e0	30 6c 04 00 e8 82 06 00 28 f1 82 06 00 f8 82 06 	0l000000(0000000
  0x682f0	00 02 0a 90 82 00 00 60 02 ec 02 00 19 2e 0b 00 	0000000`00000.00
  0x68300	1c 74 31 00 1c 64 30 00 1c 34 2f 00 1c 01 2a 00 	0t100d0004/000*0
  0x68310	15 f0 13 d0 11 c0 00 00 90 e6 04 00 24 83 06 00 	000000000000$000
  0x68320	43 01 00 00 78 31 83 06 00 85 83 06 00 a4 83 06 	C000x10000000000
  0x68330	00 1e 08 0a 90 82 00 00 e0 32 20 e6 00 00 b0 32 	0000000002 00002
  0x68340	9c da 01 00 01 02 3e 60 6e 04 00 62 90 82 00 00 	000000>`n00b0000
  0x68350	61 03 3a 90 82 00 00 90 6e 12 fe 04 00 2a 20 e6 	a0:00000n0000* 0
  0x68360	00 00 c0 32 90 82 00 00 70 32 68 eb 01 00 01 03 	00020000p2h00000
  0x68370	3a 90 82 00 00 90 ca 90 82 00 00 90 32 68 eb 01 	:000000000002h00
  0x68380	00 01 03 21 05 02 00 1a 1c 8d 83 06 00 04 17 12 	000!000000000000
  0x68390	f8 e3 06 00 e1 04 55 f2 04 00 65 1c 11 80 7b f2 	000000U000e000{0
  0x683a0	04 00 9d 1c 2a 89 08 0a 51 03 08 4a 0a c8 0c ec 	0000*000Q00J0000
  0x683b0	10 50 12 e0 14 5d 03 18 d9 02 1a b8 1c c4 0c a9 	0P000]0000000000
  0x683c0	02 00 bc 06 10 08 1a 0c 10 0e 1a 14 10 18 48 1a 	00000000000000H0
  0x683d0	10 1c 24 00 19 17 09 00 17 01 18 00 10 f0 0e e0 	00$0000000000000
  0x683e0	0c d0 0a c0 08 70 07 60 06 30 00 00 30 6c 04 00 	00000p0`00000l00
  0x683f0	f4 83 06 00 78 01 84 06 00 1c 84 06 00 3b 84 06 	0000x00000000;00
  0x68400	00 0c 08 0a 4c c7 01 00 c0 36 63 fe 04 00 2a 90 	0000L00006c000*0
  0x68410	82 00 00 41 04 3a 68 eb 01 00 80 d0 02 00 08 0a 	000A0:h000000000
  0x68420	24 84 06 00 04 17 12 f8 e3 06 00 c1 02 c1 fe 04 	$000000000000000
  0x68430	00 25 0a 11 80 99 fe 04 00 e1 09 16 9e 02 1c 04 	0%00000000000000
  0x68440	4d 02 06 72 08 9e 0a f6 04 c9 03 06 16 08 10 0a 	M00r000000000000
  0x68450	24 06 16 00 19 04 01 00 04 42 00 00 30 6c 04 00 	$00000000B000l00
  0x68460	64 84 06 00 68 19 5f 06 00 6d 84 06 00 02 48 02 	d000h0_00m0000H0
  0x68470	11 06 02 00 06 32 02 30 30 6c 04 00 80 84 06 00 	000002000l000000
  0x68480	28 19 5f 06 00 89 84 06 00 04 88 02 be 00 00 00 	(0_0000000000000
  0x68490	11 06 02 00 06 32 02 30 30 6c 04 00 a0 84 06 00 	000002000l000000
  0x684a0	28 19 5f 06 00 a9 84 06 00 04 da 02 31 02 00 00 	(0_0000000001000
  0x684b0	01 18 0a 00 18 64 0b 00 18 54 0a 00 18 34 08 00 	00000d000T000400
  0x684c0	18 32 14 f0 12 e0 10 70 11 06 02 00 06 32 02 30 	0200000p00000200
  0x684d0	30 6c 04 00 d8 84 06 00 28 19 5f 06 00 e1 84 06 	0l000000(0_00000
  0x684e0	00 04 88 02 b8 00 00 00 19 1c 08 00 1c 34 0d 00 	0000000000000400
  0x684f0	1c 52 18 f0 16 e0 14 d0 12 c0 10 70 30 6c 04 00 	0R000000000p0l00
  0x68500	04 85 06 00 78 11 85 06 00 1a 85 06 00 38 85 06 	0000x00000000800
  0x68510	00 06 08 0a 50 0a 02 00 f0 40 02 00 02 04 22 85 	0000P0000@0000"0
  0x68520	06 00 04 17 12 f8 e3 06 00 40 01 f9 04 00 e9 0a 	000000000@000000
  0x68530	11 80 2a f9 04 00 1d 0b 08 a5 0a 04 da 02 26 04 	00*00000000000&0
  0x68540	1a 00 00 00 01 1b 09 00 1b 74 18 00 1b 64 17 00 	000000000t000d00
  0x68550	1b 34 16 00 1b 01 14 00 10 50 00 00 19 2b 07 00 	040000000P000+00
  0x68560	1a 74 0e 01 1a 34 0d 01 1a 01 0a 01 0b 50 00 00 	0t00040000000P00
  0x68570	64 56 04 00 40 08 00 00 01 17 06 00 17 e4 11 00 	dV00@00000000000
  0x68580	17 64 0f 00 17 b2 10 50 11 15 08 00 15 64 0d 00 	0d00000P00000d00
  0x68590	15 34 0c 00 15 72 0e e0 0c 70 0b 50 30 6c 04 00 	04000r000p0P0l00
  0x685a0	a4 85 06 00 28 ad 85 06 00 ba 85 06 00 04 0a 90 	0000(00000000000
  0x685b0	82 00 00 60 32 90 82 00 00 50 06 be 00 b9 03 04 	000`20000P000000
  0x685c0	10 00 00 00 01 0c 04 00 0c 34 0c 00 0c 92 08 70 	000000000400000p
  0x685d0	11 14 08 00 14 64 10 00 14 54 0f 00 14 34 0e 00 	00000d000T000400
  0x685e0	14 b2 10 70 30 6c 04 00 ec 85 06 00 28 f5 85 06 	000p0l000000(000
  0x685f0	00 02 86 06 00 04 0a 90 82 00 00 a0 32 90 82 00 	0000000000002000
  0x68600	00 80 06 5c 00 6a 02 9a 04 00 00 00 01 1f 08 00 	00000j0000000000
  0x68610	1f 74 0d 00 1f 34 0c 00 1f 52 18 f0 16 e0 14 50 	0t0004000R00000P
  0x68620	19 29 0a 00 1b 74 12 00 1b 64 11 00 1b 34 10 00 	0)000t000d000400
  0x68630	1b b2 14 f0 12 e0 10 50 64 56 04 00 50 00 00 00 	0000000PdV00P000
  0x68640	01 17 08 00 17 54 0e 00 17 34 0c 00 17 72 13 c0 	00000T0004000r00
  0x68650	11 70 10 60 01 1c 0c 00 1c 64 0e 00 1c 54 0d 00 	0p0`00000d000T00
  0x68660	1c 34 0c 00 1c 52 18 f0 16 e0 14 d0 12 c0 10 70 	04000R000000000p
  0x68670	01 16 0a 00 16 54 0d 00 16 34 0c 00 16 52 12 f0 	00000T0004000R00
  0x68680	10 e0 0e d0 0c 70 0b 60 19 30 0b 00 1f 34 55 00 	00000p0`000004U0
  0x68690	1f 01 4a 00 10 f0 0e e0 0c d0 0a c0 08 70 07 60 	00J0000000000p0`
  0x686a0	06 50 00 00 64 56 04 00 40 02 00 00 11 11 08 00 	0P00dV00@0000000
  0x686b0	11 54 14 00 11 b2 0d f0 0b e0 09 c0 07 70 06 60 	0T00000000000p0`
  0x686c0	30 6c 04 00 c8 86 06 00 28 19 5f 06 00 d1 86 06 	0l000000(0_00000
  0x686d0	00 04 75 05 02 78 00 00 11 17 0a 00 17 34 16 00 	00u00x0000000400
  0x686e0	17 b2 10 f0 0e e0 0c d0 0a c0 08 70 07 60 06 50 	00000000000p0`0P
  0x686f0	30 6c 04 00 f8 86 06 00 28 19 5f 06 00 01 87 06 	0l000000(0_00000
  0x68700	00 04 61 06 02 6c 00 00 19 06 02 00 06 52 02 30 	00a00l0000000R00
  0x68710	30 6c 04 00 18 87 06 00 38 21 63 06 00 25 87 06 	0l0000008!c00%00
  0x68720	00 dc 5f 06 00 02 00 00 02 2d 87 06 00 04 17 12 	00_000000-000000
  0x68730	f8 e3 06 00 40 27 ff 04 00 9c 11 80 02 ff 04 00 	0000@'0000000000
  0x68740	90 00 00 00 19 0f 06 00 0f 64 0a 00 0f 34 09 00 	000000000d000400
  0x68750	0f 52 0b 70 30 6c 04 00 5c 87 06 00 78 21 63 06 	0R0p0l000000x!c0
  0x68760	00 69 87 06 00 85 87 06 00 02 00 00 02 71 87 06 	0i00000000000q00
  0x68770	00 04 17 12 f8 e3 06 00 40 4e f5 04 00 fc 11 80 	00000000@N000000
  0x68780	30 f5 04 00 d4 02 56 02 19 25 0a 00 17 34 14 00 	000000V00%000400
  0x68790	17 92 10 f0 0e e0 0c d0 0a c0 08 70 07 60 06 50 	00000000000p0`0P
  0x687a0	64 56 04 00 48 00 00 00 19 21 08 00 13 34 12 00 	dV00H0000!000400
  0x687b0	13 92 0c f0 0a e0 08 70 07 60 06 50 64 56 04 00 	0000000p0`0PdV00
  0x687c0	40 00 00 00 19 30 0a 00 22 64 15 00 22 34 14 00 	@0000000"d00"400
  0x687d0	22 b2 1b f0 19 e0 17 c0 15 70 14 50 64 56 04 00 	"00000000p0PdV00
  0x687e0	50 00 00 00 01 0d 05 00 0d 34 14 00 0d 01 12 00 	P000000004000000
  0x687f0	06 70 00 00 19 0a 04 00 0a 34 09 00 0a 52 06 70 	0p00000004000R0p
  0x68800	30 6c 04 00 08 88 06 00 78 21 63 06 00 15 88 06 	0l000000x!c00000
  0x68810	00 33 88 06 00 02 00 00 02 1d 88 06 00 04 17 12 	0300000000000000
  0x68820	f8 e3 06 00 40 4e f5 04 00 5d 02 11 80 30 f5 04 	0000@N000]000000
  0x68830	00 31 02 02 3e 02 00 00 11 20 07 00 20 74 16 00 	0100>0000 00 t00
  0x68840	20 34 14 00 20 01 12 00 14 50 00 00 30 6c 04 00 	 400 0000P000l00
  0x68850	54 88 06 00 28 5d 88 06 00 65 88 06 00 02 0a 04 	T000(]000e000000
  0x68860	22 02 00 a1 02 02 15 04 02 00 00 00 01 1c 0c 00 	"000000000000000
  0x68870	1c 64 10 00 1c 54 0f 00 1c 34 0e 00 1c 72 18 f0 	0d000T0004000r00
  0x68880	16 e0 14 d0 12 c0 10 70 19 28 09 00 16 64 14 01 	0000000p0(000d00
  0x68890	16 34 13 01 16 01 0e 01 0f f0 0d e0 0b 70 00 00 	0400000000000p00
  0x688a0	90 e6 04 00 ac 88 06 00 6b 08 00 00 78 21 63 06 	00000000k000x!c0
  0x688b0	00 b9 88 06 00 d8 88 06 00 02 00 00 02 c1 88 06 	0000000000000000
  0x688c0	00 04 17 12 f8 e3 06 00 81 21 55 f2 04 00 b9 06 	000000000!U00000
  0x688d0	11 80 7b f2 04 00 b9 06 04 80 02 fd 05 00 00 00 	00{0000000000000
  0x688e0	19 14 08 00 14 32 10 f0 0e e0 0c d0 0a c0 08 70 	000002000000000p
  0x688f0	07 60 06 30 30 6c 04 00 fc 88 06 00 38 21 63 06 	0`000l0000008!c0
  0x68900	00 09 89 06 00 18 89 06 00 02 00 00 02 11 89 06 	0000000000000000
  0x68910	00 02 01 80 59 ff 04 00 06 05 03 00 88 02 e5 03 	0000Y00000000000
  0x68920	00 00 00 00 01 18 0a 00 18 64 0e 00 18 54 0d 00 	000000000d000T00
  0x68930	18 34 0c 00 18 72 14 f0 12 e0 10 70 19 26 09 00 	04000r00000p0&00
  0x68940	14 34 14 01 14 01 0c 01 0d f0 0b e0 09 c0 07 70 	040000000000000p
  0x68950	06 60 00 00 90 e6 04 00 60 89 06 00 5b 08 00 00 	0`000000`000[000
  0x68960	78 21 63 06 00 6d 89 06 00 8c 89 06 00 02 00 00 	x!c00m0000000000
  0x68970	02 75 89 06 00 04 17 12 f8 e3 06 00 41 21 a2 ff 	0u0000000000A!00
  0x68980	04 00 cd 04 11 80 7d ff 04 00 cd 04 04 cc 02 85 	000000}000000000
  0x68990	03 00 00 00 19 0f 06 00 0f 64 0a 00 0f 34 09 00 	000000000d000400
  0x689a0	0f 52 0b 70 30 6c 04 00 ac 89 06 00 78 21 63 06 	0R0p0l000000x!c0
  0x689b0	00 b9 89 06 00 d5 89 06 00 02 00 00 02 c1 89 06 	0000000000000000
  0x689c0	00 04 17 12 f8 e3 06 00 40 4e f5 04 00 f4 11 80 	00000000@N000000
  0x689d0	30 f5 04 00 cc 02 4e 02 19 0f 06 00 0f 64 12 00 	000000N000000d00
  0x689e0	0f 34 11 00 0f d2 0b 70 30 6c 04 00 f0 89 06 00 	0400000p0l000000
  0x689f0	78 21 63 06 00 fd 89 06 00 85 87 06 00 02 00 00 	x!c0000000000000
  0x68a00	02 05 8a 06 00 04 17 12 f8 e3 06 00 c0 4e f5 04 	0000000000000N00
  0x68a10	00 f1 02 11 80 30 f5 04 00 8d 02 00 19 0e 04 00 	0000000000000000
  0x68a20	0e 34 0a 00 0e 52 0a 70 30 6c 04 00 30 8a 06 00 	04000R0p0l000000
  0x68a30	78 21 63 06 00 3d 8a 06 00 6d 84 06 00 02 00 00 	x!c00=000m000000
  0x68a40	02 45 8a 06 00 04 17 12 f8 e3 06 00 40 4e f5 04 	0E0000000000@N00
  0x68a50	00 e0 11 80 30 f5 04 00 c2 00 00 00 11 14 04 00 	0000000000000000
  0x68a60	14 34 08 00 14 32 10 70 30 6c 04 00 70 8a 06 00 	0400020p0l00p000
  0x68a70	28 79 8a 06 00 85 8a 06 00 04 0c dc ec 00 00 60 	(y0000000000000`
  0x68a80	36 d4 ff 04 00 04 5c 04 ca 00 00 00 11 23 0d 00 	6000000000000#00
  0x68a90	23 74 30 00 23 64 2f 00 23 34 2e 00 23 01 28 00 	#t00#d/0#4.0#0(0
  0x68aa0	18 f0 16 e0 14 d0 12 c0 10 50 00 00 30 6c 04 00 	000000000P000l00
  0x68ab0	b4 8a 06 00 28 bd 8a 06 00 9f 8b 06 00 4c 0a b4 	0000(00000000L00
  0x68ac0	17 01 00 01 02 3a b4 17 01 00 e0 36 60 6e 04 00 	00000:000006`n00
  0x68ad0	5a b4 17 01 00 c0 36 60 6e 04 00 5a dc ec 00 00 	Z000006`n00Z0000
  0x68ae0	a0 e2 b4 17 01 00 b0 32 b4 17 01 00 c0 32 b4 17 	0000000200000200
  0x68af0	01 00 d0 36 60 6e 04 00 8e 60 6e 04 00 e6 60 6e 	0006`n000`n000`n
  0x68b00	04 00 15 02 dc ec 00 00 d0 45 04 b4 17 01 00 b0 	000000000E000000
  0x68b10	3e 60 6e 04 00 62 dc ec 00 00 a0 92 b4 17 01 00 	>`n00b0000000000
  0x68b20	a0 36 60 6e 04 00 5a b4 17 01 00 c0 36 60 6e 04 	06`n00Z000006`n0
  0x68b30	00 5a dc ec 00 00 d0 25 07 b4 17 01 00 b0 3a b4 	0Z00000%000000:0
  0x68b40	17 01 00 c0 32 b4 17 01 00 a0 36 60 6e 04 00 8e 	00002000006`n000
  0x68b50	60 6e 04 00 ee 60 6e 04 00 25 02 dc ec 00 00 a0 	`n000`n00%000000
  0x68b60	b5 09 b4 17 01 00 f0 3e 60 6e 04 00 62 dc ec 00 	0000000>`n00b000
  0x68b70	00 a0 92 b4 17 01 00 21 02 3e 60 6e 04 00 62 0c 	0000000!0>`n00b0
  0x68b80	48 02 00 01 03 3a 0c 48 02 00 a1 02 3a 0c 48 02 	H0000:0H0000:0H0
  0x68b90	00 41 02 5d 0d 60 6e 04 00 cd 0d 60 6e 04 00 9e 	0A0]0`n0000`n000
  0x68ba0	8e 04 4a 08 58 0c 46 08 58 06 8c 12 6a 14 4c 12 	00J0X0F0X000j0L0
  0x68bb0	52 16 72 10 54 18 44 0e 74 1a 48 0e 5a 1a 42 0e 	R0r0T0D0t0H0Z0B0
  0x68bc0	ca 1a 46 0e 58 06 82 30 6a 32 44 30 52 34 70 2e 	00F0X000j2D0R4p.
  0x68bd0	54 36 44 2c 3c 38 42 2c 66 38 42 2c 66 38 42 2c 	T6D,<8B,f8B,f8B,
  0x68be0	58 06 4e 3a 86 3e 42 3a 5c 3e 42 3a 50 1c f9 03 	X0N:0>B:0>B:P000
  0x68bf0	20 42 1c a0 22 62 26 a8 2a 42 26 60 2a 42 26 58 	 B00"b&0*B&`*B&X
  0x68c00	24 44 1e 44 06 52 3a 32 3e 74 3a 70 40 51 02 48 	$D0D0R:2>t:p@Q0H
  0x68c10	bc 3c 44 06 44 4a 42 4c 54 48 10 08 10 0c 10 12 	0<D0DJBLTH000000
  0x68c20	1c 10 10 1a 20 0e 10 1a 10 30 10 1c 50 20 10 22 	0000 0000000P 0"
  0x68c30	10 26 20 2a 20 30 10 2e 10 38 30 3a 10 3e 30 3a 	0& * 00.080:0>0:
  0x68c40	11 12 06 00 12 74 0d 00 12 34 0c 00 12 92 0b 50 	00000t000400000P
  0x68c50	30 6c 04 00 58 8c 06 00 28 61 8c 06 00 a6 8c 06 	0l00X000(a000000
  0x68c60	00 18 0a b4 17 01 00 90 32 b4 17 01 00 70 36 60 	0000000020000p6`
  0x68c70	6e 04 00 5a b4 17 01 00 50 36 60 6e 04 00 5a 90 	n00Z0000P6`n00Z0
  0x68c80	82 00 00 80 32 b4 17 01 00 60 36 60 6e 04 00 5a 	000020000`6`n00Z
  0x68c90	dc ec 00 00 f0 be 60 6e 04 00 8d 03 60 6e 04 00 	000000`n0000`n00
  0x68ca0	fd 03 60 6e 04 00 1a 54 04 46 08 7e 0c 52 0e 5c 	00`n000T0F0~0R00
  0x68cb0	12 e6 14 50 06 42 16 42 18 3e 12 10 08 1c 0e 10 	000P0B0B0>000000
  0x68cc0	12 00 00 00 11 23 0d 00 23 74 2e 00 23 64 2d 00 	00000#00#t.0#d-0
  0x68cd0	23 34 2c 00 23 01 26 00 18 f0 16 e0 14 d0 12 c0 	#4,0#0&000000000
  0x68ce0	10 50 00 00 30 6c 04 00 ec 8c 06 00 28 f5 8c 06 	0P000l000000(000
  0x68cf0	00 46 8d 06 00 1a 0a b4 17 01 00 70 36 60 6e 04 	0F000000000p6`n0
  0x68d00	00 5a 0c 48 02 00 80 32 0c 48 02 00 c1 02 3a 0c 	0Z0H00020H0000:0
  0x68d10	48 02 00 61 02 3a 0c 48 02 00 01 02 65 02 b4 17 	H00a0:0H0000e000
  0x68d20	01 00 60 3e 60 6e 04 00 62 dc ec 00 00 b0 92 0c 	00`>`n00b0000000
  0x68d30	48 02 00 80 e5 03 b4 17 01 00 60 3e 60 6e 04 00 	H000000000`>`n00
  0x68d40	bd 04 60 6e 04 00 28 91 03 0c f8 04 40 02 7e 0e 	00`n00(00000@0~0
  0x68d50	3c 12 86 10 82 14 7a 04 4c 02 88 16 a0 04 44 1a 	<00000z0L00000D0
  0x68d60	44 00 46 16 10 02 1c 0c 10 02 10 12 10 14 10 16 	D0F0000000000000
  0x68d70	01 17 08 00 17 74 12 00 17 64 11 00 17 34 10 00 	00000t000d000400
  0x68d80	17 d2 10 50 19 25 07 00 17 e4 19 00 17 34 18 00 	000P0%0000000400
  0x68d90	17 01 16 00 0b 50 00 00 64 56 04 00 a0 00 00 00 	00000P00dV000000
  0x68da0	01 13 08 00 13 54 0f 00 13 34 0d 00 13 72 0f e0 	00000T0004000r00
  0x68db0	0d 70 0c 60 11 0f 06 00 0f 34 0e 00 0f 92 0b e0 	0p0`000004000000
  0x68dc0	09 70 08 60 a4 72 04 00 01 00 00 00 f1 4c 02 00 	0p0`0r0000000L00
  0x68dd0	88 4e 02 00 bc 00 05 00 00 00 00 00 01 06 02 00 	0N00000000000000
  0x68de0	06 72 02 50 01 15 07 00 15 34 16 00 15 01 12 00 	0r0P000004000000
  0x68df0	0a 70 09 60 08 50 00 00 19 0a 04 00 0a 34 08 00 	0p0`0P0000000400
  0x68e00	0a 52 06 70 30 6c 04 00 0c 8e 06 00 68 19 5f 06 	0R0p0l000000h0_0
  0x68e10	00 15 8e 06 00 08 c0 02 58 00 4e 02 cc 00 00 00 	00000000X0N00000
  0x68e20	11 0f 04 00 0f 34 07 00 0f 32 0b 70 30 6c 04 00 	00000400020p0l00
  0x68e30	34 8e 06 00 28 3d 8e 06 00 4d 8e 06 00 06 0e cc 	4000(=000M000000
  0x68e40	00 05 00 2e dc 00 05 00 2e ec 00 05 00 02 91 02 	000.0000.0000000
  0x68e50	06 00 00 00 19 06 02 00 06 32 02 30 30 6c 04 00 	0000000002000l00
  0x68e60	64 8e 06 00 68 19 5f 06 00 6d 8e 06 00 04 5a 02 	d000h0_00m0000Z0
  0x68e70	50 00 00 00 19 1c 08 00 1c 64 13 00 1c 34 10 00 	P00000000d000400
  0x68e80	1c b2 18 f0 16 e0 14 70 30 6c 04 00 90 8e 06 00 	0000000p0l000000
  0x68e90	78 9d 8e 06 00 ac 8e 06 00 ca 8e 06 00 08 08 0a 	x000000000000000
  0x68ea0	dc ec 00 00 21 02 3e 60 6e 04 00 70 02 00 04 06 	0000!0>`n00p0000
  0x68eb0	b4 8e 06 00 04 17 12 f8 e3 06 00 a0 08 01 05 00 	0000000000000000
  0x68ec0	21 05 11 80 31 01 05 00 21 05 0a f2 06 b8 04 ce 	!0001000!0000000
  0x68ed0	02 6c 04 36 00 00 00 00 19 1c 08 00 1c 64 11 00 	0l06000000000d00
  0x68ee0	1c 34 0e 00 1c 92 18 f0 16 e0 14 70 30 6c 04 00 	04000000000p0l00
  0x68ef0	f4 8e 06 00 78 01 8f 06 00 26 8f 06 00 44 8f 06 	0000x0000&000D00
  0x68f00	00 10 08 0a dc ec 00 00 70 32 b4 17 01 00 60 36 	00000000p20000`6
  0x68f10	60 6e 04 00 5a b4 17 01 00 f0 36 60 6e 04 00 e6 	`n00Z000006`n000
  0x68f20	60 6e 04 00 31 02 02 00 0c 0e 2e 8f 06 00 04 17 	`n00100000.00000
  0x68f30	12 f8 e3 06 00 80 65 01 05 00 51 06 11 80 8e 01 	000000e000Q00000
  0x68f40	05 00 51 06 12 29 02 06 7e 0c 6c 0a 80 08 44 0e 	00Q00)00~0l000D0
  0x68f50	44 02 76 04 10 06 10 0a 19 1a 08 00 1a 74 13 00 	D0v0000000000t00
  0x68f60	1a 64 11 00 1a 34 10 00 1a d2 16 e0 30 6c 04 00 	0d00040000000l00
  0x68f70	74 8f 06 00 78 81 8f 06 00 8a 8f 06 00 a8 8f 06 	t000x00000000000
  0x68f80	00 06 08 0a 64 52 02 00 80 40 02 00 02 04 92 8f 	0000dR000@000000
  0x68f90	06 00 04 17 12 f8 e3 06 00 c0 c2 01 05 00 79 03 	00000000000000y0
  0x68fa0	11 80 eb 01 05 00 79 03 06 19 02 04 51 02 02 16 	000000y00000Q000
  0x68fb0	00 00 00 00 19 06 02 00 06 92 02 30 30 6c 04 00 	0000000000000l00
  0x68fc0	c4 8f 06 00 78 d1 8f 06 00 da 8f 06 00 f6 8f 06 	0000x00000000000
  0x68fd0	00 06 08 0a c4 53 02 00 40 40 02 00 02 04 e2 8f 	00000S00@@000000
  0x68fe0	06 00 04 17 12 f8 e3 06 00 90 1f 02 05 00 a0 11 	0000000000000000
  0x68ff0	80 45 02 05 00 a0 04 24 02 98 04 00 19 25 0a 00 	0E00000$00000%00
  0x69000	17 34 14 00 17 92 10 f0 0e e0 0c d0 0a c0 08 70 	040000000000000p
  0x69010	07 60 06 50 90 e6 04 00 20 90 06 00 43 00 00 00 	0`0P0000 000C000
  0x69020	60 25 90 06 00 02 3d 08 00 00 00 00 19 06 02 00 	`%0000=000000000
  0x69030	06 32 02 30 30 6c 04 00 3c 90 06 00 60 41 90 06 	02000l00<000`A00
  0x69040	00 02 52 00 19 04 01 00 04 42 00 00 30 6c 04 00 	00R000000B000l00
  0x69050	54 90 06 00 68 19 5f 06 00 dc 5f 06 00 00 00 00 	T000h0_000_00000
  0x69060	01 0c 04 00 0c 34 09 00 0c 52 08 70 11 14 02 00 	000004000R0p0000
  0x69070	14 52 10 30 30 6c 04 00 7c 90 06 00 28 85 90 06 	0R000l00|000(000
  0x69080	00 8c 90 06 00 02 0a 90 82 00 00 50 02 8a 02 00 	00000000000P0000
  0x69090	01 14 08 00 14 64 0c 00 14 54 0b 00 14 34 0a 00 	00000d000T000400
  0x690a0	14 72 10 70 19 32 09 00 20 01 4c 00 19 f0 17 e0 	0r0p0200 0L00000
  0x690b0	15 c0 13 70 12 60 11 50 10 30 00 00 64 56 04 00 	000p0`0P0000dV00
  0x690c0	50 02 00 00 19 24 09 00 12 01 4c 00 0b f0 09 e0 	P0000$0000L00000
  0x690d0	07 c0 05 70 04 60 03 50 02 30 00 00 64 56 04 00 	000p0`0P0000dV00
  0x690e0	50 02 00 00 01 04 01 00 04 c2 00 00 01 0f 06 00 	P000000000000000
  0x690f0	0f 64 0a 00 0f 34 08 00 0f 52 0b 70 01 20 0c 00 	0d0004000R0p0 00
  0x69100	20 74 17 00 20 64 16 00 20 54 15 00 20 34 14 00 	 t00 d00 T00 400
  0x69110	20 f2 19 f0 17 e0 15 c0 01 0f 06 00 0f 54 09 00 	 000000000000T00
  0x69120	0f 34 08 00 0f 52 0b 70 01 1c 0c 00 1c 64 0d 00 	04000R0p00000d00
  0x69130	1c 54 0c 00 1c 34 0b 00 1c 32 18 f0 16 e0 14 d0 	0T00040002000000
  0x69140	12 c0 10 70 19 29 09 00 17 64 57 00 17 54 56 00 	000p0)000dW00TV0
  0x69150	17 34 55 00 17 01 52 00 10 70 00 00 64 56 04 00 	04U000R00p00dV00
  0x69160	80 02 00 00 01 14 08 00 14 64 0b 00 14 54 0a 00 	000000000d000T00
  0x69170	14 34 09 00 14 52 10 70 01 12 08 00 12 54 0c 00 	04000R0p00000T00
  0x69180	12 34 0b 00 12 52 0e e0 0c 70 0b 60 01 18 0a 00 	04000R000p0`0000
  0x69190	18 64 0b 00 18 54 0a 00 18 34 09 00 18 32 14 f0 	0d000T0004000200
  0x691a0	12 e0 10 70 01 0e 06 00 0e 32 07 e0 05 70 04 60 	000p000002000p0`
  0x691b0	03 30 02 50 19 27 09 00 15 54 51 00 15 34 50 00 	000P0'000TQ004P0
  0x691c0	15 01 4a 00 0e e0 0c 70 0b 60 00 00 64 56 04 00 	00J0000p0`00dV00
  0x691d0	40 02 00 00 01 10 04 00 10 34 08 00 10 52 0c 70 	@000000004000R0p
  0x691e0	19 0a 04 00 0a 34 08 00 0a 52 06 70 30 6c 04 00 	000004000R0p0l00
  0x691f0	f4 91 06 00 78 21 63 06 00 01 92 06 00 dc 5f 06 	0000x!c0000000_0
  0x69200	00 02 00 00 02 09 92 06 00 04 17 12 f8 e3 06 00 	0000000000000000
  0x69210	40 8f 02 05 00 ee 11 80 6a 02 05 00 e2 00 00 00 	@0000000j0000000
  0x69220	01 0e 02 00 0e 01 15 00 01 0d 06 00 0d 34 08 00 	0000000000000400
  0x69230	0d 32 09 e0 07 70 06 60 11 0a 04 00 0a 34 06 00 	02000p0`00000400
  0x69240	0a 32 06 70 30 6c 04 00 4c 92 06 00 28 55 92 06 	020p0l00L000(U00
  0x69250	00 5c 92 06 00 02 0a a0 e7 00 00 90 02 f1 03 02 	0000000000000000
  0x69260	19 12 08 00 12 54 0a 00 12 34 09 00 12 32 0e e0 	00000T0004000200
  0x69270	0c 70 0b 60 30 6c 04 00 7c 92 06 00 60 81 92 06 	0p0`0l00|000`000
  0x69280	00 02 5e 00 01 10 06 00 10 64 09 00 10 34 08 00 	00^000000d000400
  0x69290	10 52 0c 70 01 10 06 00 10 64 07 00 10 34 06 00 	0R0p00000d000400
  0x692a0	10 32 0c 70 01 15 08 00 15 64 09 00 15 34 08 00 	020p00000d000400
  0x692b0	15 32 0e e0 0c 70 0b 50 01 0f 06 00 0f 64 0b 00 	02000p0P00000d00
  0x692c0	0f 34 0a 00 0f 72 0b 70 19 2e 09 00 1d 64 51 00 	04000r0p0.000dQ0
  0x692d0	1d 34 50 00 1d 01 4a 00 0e e0 0c 70 0b 50 00 00 	04P000J0000p0P00
  0x692e0	64 56 04 00 40 02 00 00 01 27 0d 00 27 74 25 00 	dV00@0000'00't%0
  0x692f0	27 64 23 00 27 34 22 00 27 01 1c 00 1c f0 1a e0 	'd#0'4"0'0000000
  0x69300	18 d0 16 c0 14 50 00 00 01 10 06 00 10 64 0b 00 	00000P0000000d00
  0x69310	10 34 0a 00 10 72 0c 70 19 0f 06 00 0f 34 0e 00 	04000r0p00000400
  0x69320	0f 92 08 70 07 60 06 50 30 6c 04 00 5c 76 06 00 	000p0`0P0l000v00
  0x69330	01 15 06 00 15 72 11 f0 0f e0 0d 70 0c 60 0b 50 	00000r00000p0`0P
  0x69340	01 0a 04 00 0a 34 0d 00 0a 92 06 70 19 09 01 00 	00000400000p0000
  0x69350	09 a2 00 00 30 6c 04 00 5c 93 06 00 78 21 63 06 	00000l000000x!c0
  0x69360	00 69 93 06 00 ae 93 06 00 02 00 00 02 71 93 06 	0i00000000000q00
  0x69370	00 0a 17 12 40 e7 06 00 40 c1 02 05 00 26 17 12 	0000@000@0000&00
  0x69380	d0 e3 06 00 50 07 03 05 00 38 17 12 80 e6 06 00 	0000P00008000000
  0x69390	60 2c 03 05 00 3c 17 12 a8 e6 06 00 70 51 03 05 	`,000<000000pQ00
  0x693a0	00 40 17 12 f8 e3 06 00 80 45 02 05 00 26 02 1a 	0@0000000E000&00
  0x693b0	02 00 00 00 01 0a 02 00 0a 52 06 30 19 12 06 00 	000000000R000000
  0x693c0	12 34 0e 00 12 72 0e e0 0c 70 0b 60 30 6c 04 00 	04000r000p0`0l00
  0x693d0	d4 93 06 00 38 e1 93 06 00 fa 93 06 00 18 94 06 	0000800000000000
  0x693e0	00 0c 08 0e 76 03 05 00 2c 1c ae 01 00 c0 36 ab 	0000v000,0000060
  0x693f0	03 05 00 8a 88 98 01 00 c0 c0 02 00 08 0a 02 94 	0000000000000000
  0x69400	06 00 04 17 12 f8 e3 06 00 60 bb 03 05 00 e9 03 	000000000`000000
  0x69410	11 80 e1 03 05 00 19 04 08 01 02 02 44 06 1a 08 	000000000000D000
  0x69420	2a 0a 00 00 19 10 06 00 10 74 0b 00 10 64 08 00 	*00000000t000d00
  0x69430	10 52 0c e0 30 6c 04 00 3c 94 06 00 38 49 94 06 	0R000l00<0008I00
  0x69440	00 61 94 06 00 7f 94 06 00 0c 08 0e 06 04 05 00 	0a00000000000000
  0x69450	2c 90 9a 02 00 90 36 2f 04 05 00 2e 3f 04 05 00 	,000006/000.?000
  0x69460	b8 02 00 08 0a 69 94 06 00 04 17 12 f8 e3 06 00 	00000i0000000000
  0x69470	40 27 ff 04 00 cd 02 11 80 02 ff 04 00 fd 02 06 	@'00000000000000
  0x69480	30 02 6c 06 82 0a 00 00 11 1f 0a 00 1f 74 0f 00 	00l0000000000t00
  0x69490	1f 34 0e 00 1f 72 18 f0 16 e0 14 d0 12 c0 10 50 	04000r000000000P
  0x694a0	30 6c 04 00 a8 94 06 00 28 b1 94 06 00 c6 94 06 	0l000000(0000000
  0x694b0	00 06 0a 44 98 02 00 01 02 3a 90 82 00 00 40 32 	000D00000:0000@2
  0x694c0	90 82 00 00 21 02 02 8d 05 06 00 00 19 18 08 00 	0000!00000000000
  0x694d0	18 34 0d 00 18 52 11 f0 0f e0 0d 70 0c 60 0b 50 	04000R00000p0`0P
  0x694e0	30 6c 04 00 e8 94 06 00 60 ed 94 06 00 02 56 00 	0l000000`00000V0
  0x694f0	11 1f 0c 00 1f 74 15 00 1f 64 14 00 1f 34 13 00 	00000t000d000400
  0x69500	1f b2 18 f0 16 e0 14 d0 12 c0 10 50 30 6c 04 00 	00000000000P0l00
  0x69510	14 95 06 00 28 1d 95 06 00 37 95 06 00 08 0a 88 	0000(00007000000
  0x69520	98 01 00 41 02 3a 50 9a 01 00 40 32 64 a7 01 00 	000A0:P000@2d000
  0x69530	80 62 d4 a3 01 00 80 06 a9 02 06 fc 08 11 04 04 	0b00000000000000
  0x69540	19 0a 04 00 0a 34 08 00 0a 52 06 70 30 6c 04 00 	000004000R0p0l00
  0x69550	54 95 06 00 78 21 63 06 00 61 95 06 00 dc 5f 06 	T000x!c00a0000_0
  0x69560	00 02 00 00 02 69 95 06 00 04 17 12 f8 e3 06 00 	00000i0000000000
  0x69570	40 8f 02 05 00 c2 11 80 6a 02 05 00 b6 00 00 00 	@0000000j0000000
  0x69580	01 19 08 00 19 74 09 00 19 64 08 00 19 34 07 00 	00000t000d000400
  0x69590	19 32 15 e0 11 06 02 00 06 52 02 30 30 6c 04 00 	020000000R000l00
  0x695a0	a4 95 06 00 28 ad 95 06 00 b4 95 06 00 02 0a 90 	0000(00000000000
  0x695b0	82 00 00 a0 02 60 02 00 01 10 06 00 10 64 0a 00 	00000`0000000d00
  0x695c0	10 34 09 00 10 52 0c 70 01 17 06 00 17 34 0e 00 	04000R0p00000400
  0x695d0	17 92 13 e0 11 70 10 60 01 0f 06 00 0f 64 07 00 	00000p0`00000d00
  0x695e0	0f 54 06 00 0f 32 0b 70 01 18 0a 00 18 64 0c 00 	0T00020p00000d00
  0x695f0	18 54 0b 00 18 34 0a 00 18 52 14 f0 12 e0 10 70 	0T0004000R00000p
  0x69600	19 26 09 00 18 01 2e 00 0c f0 0a e0 08 d0 06 c0 	0&0000.000000000
  0x69610	04 70 03 30 02 50 00 00 64 56 04 00 60 01 00 00 	0p000P00dV00`000
  0x69620	01 07 01 00 07 82 00 00 01 10 04 00 10 34 0c 00 	0000000000000400
  0x69630	10 92 0c 70 01 18 0a 00 18 64 0a 00 18 54 09 00 	000p00000d000T00
  0x69640	18 34 08 00 18 32 14 e0 12 d0 10 70 01 13 01 00 	04000200000p0000
  0x69650	13 22 00 00 01 07 01 00 07 a2 00 00 11 06 02 00 	0"00000000000000
  0x69660	06 52 02 30 30 6c 04 00 6c 96 06 00 28 75 96 06 	0R000l00l000(u00
  0x69670	00 7c 96 06 00 02 0a dc ec 00 00 a0 02 70 02 00 	0|00000000000p00
  0x69680	11 14 02 00 14 52 10 30 30 6c 04 00 90 96 06 00 	00000R000l000000
  0x69690	28 99 96 06 00 8c 90 06 00 02 0a dc ec 00 00 50 	(00000000000000P
  0x696a0	19 1f 05 00 0d 34 4c 00 0d 01 48 00 06 70 00 00 	000004L000H00p00
  0x696b0	64 56 04 00 30 02 00 00 01 14 06 00 14 64 09 00 	dV00000000000d00
  0x696c0	14 34 08 00 14 52 10 70 19 19 04 00 0a 34 0d 00 	04000R0p00000400
  0x696d0	0a 92 06 70 64 56 04 00 40 00 00 00 19 04 01 00 	000pdV00@0000000
  0x696e0	04 42 00 00 30 6c 04 00 ec 96 06 00 60 f1 96 06 	0B000l000000`000
  0x696f0	00 02 be 00 01 14 08 00 14 64 09 00 14 54 07 00 	000000000d000T00
  0x69700	14 34 06 00 14 32 10 70 19 1c 04 00 0e f2 04 70 	0400020p0000000p
  0x69710	03 30 02 50 64 56 04 00 78 00 00 00 01 1b 0a 00 	000PdV00x0000000
  0x69720	1b 74 0b 00 1b 64 0a 00 1b 34 08 00 1b 32 14 f0 	0t000d0004000200
  0x69730	12 e0 10 50 01 10 06 00 10 64 10 00 10 54 0f 00 	000P00000d000T00
  0x69740	10 b2 0c 70 19 04 01 00 04 42 00 00 30 6c 04 00 	000p00000B000l00
  0x69750	54 97 06 00 60 59 97 06 00 02 44 00 11 19 0a 00 	T000`Y0000D00000
  0x69760	19 34 11 00 19 72 15 f0 13 e0 11 d0 0f c0 0d 70 	04000r000000000p
  0x69770	0c 60 0b 50 30 6c 04 00 7c 97 06 00 28 85 97 06 	0`0P0l00|000(000
  0x69780	00 92 97 06 00 04 0c 1c ae 01 00 01 02 3e a3 04 	0000000000000>00
  0x69790	05 00 06 dd 04 04 a9 03 00 3a 04 00 01 06 02 00 	000000000:000000
  0x697a0	06 72 02 30 11 06 02 00 06 72 02 30 30 6c 04 00 	0r0000000r000l00
  0x697b0	b4 97 06 00 28 bd 97 06 00 ce 97 06 00 06 0a 6c 	0000(0000000000l
  0x697c0	bc 02 00 60 36 bf 04 05 00 66 60 6e 04 00 0a 62 	000`60000f`n000b
  0x697d0	02 b2 04 20 06 4c 00 16 02 00 00 00 19 0a 04 00 	000 0L0000000000
  0x697e0	0a 34 06 00 0a 32 06 70 30 6c 04 00 f0 97 06 00 	0400020p0l000000
  0x697f0	68 19 5f 06 00 85 87 06 00 00 00 00 19 0a 04 00 	h0_0000000000000
  0x69800	0a 34 06 00 0a 32 06 70 30 6c 04 00 10 98 06 00 	0400020p0l000000
  0x69810	68 19 5f 06 00 19 98 06 00 02 58 02 11 1b 0a 00 	h0_0000000X00000
  0x69820	1b 54 0e 00 1b 34 0d 00 1b 52 17 f0 15 e0 13 c0 	0T0004000R000000
  0x69830	11 70 10 60 30 6c 04 00 3c 98 06 00 28 45 98 06 	0p0`0l00<000(E00
  0x69840	00 4c 98 06 00 02 0c 1c ae 01 00 c0 02 a9 03 02 	0L00000000000000
  0x69850	11 06 02 00 06 32 02 30 30 6c 04 00 60 98 06 00 	000002000l00`000
  0x69860	28 69 98 06 00 6f 98 06 00 02 0e dc 04 05 00 04 	(i000o0000000000
  0x69870	1c 00 22 02 19 0a 04 00 0a 34 06 00 0a 32 06 70 	00"000000400020p
  0x69880	30 6c 04 00 88 98 06 00 68 19 5f 06 00 91 98 06 	0l000000h0_00000
  0x69890	00 02 64 02 01 15 08 00 15 34 0c 00 15 52 11 f0 	00d0000004000R00
  0x698a0	0f e0 0d 70 0c 60 0b 50 19 10 06 00 10 64 0a 00 	000p0`0P00000d00
  0x698b0	10 34 09 00 10 52 0c 70 30 6c 04 00 c0 98 06 00 	04000R0p0l000000
  0x698c0	68 19 5f 06 00 c9 98 06 00 02 89 04 02 00 00 00 	h0_0000000000000
  0x698d0	19 06 02 00 06 52 02 30 30 6c 04 00 e0 98 06 00 	00000R000l000000
  0x698e0	78 21 63 06 00 ed 98 06 00 dc 5f 06 00 02 00 00 	x!c0000000_00000
  0x698f0	02 f5 98 06 00 04 17 12 f8 e3 06 00 40 8f 02 05 	000000000000@000
  0x69900	00 b8 11 80 6a 02 05 00 ac 00 00 00 19 06 02 00 	0000j00000000000
  0x69910	06 52 02 30 30 6c 04 00 1c 99 06 00 78 21 63 06 	0R000l000000x!c0
  0x69920	00 29 99 06 00 dc 5f 06 00 02 00 00 02 31 99 06 	0)0000_000000100
  0x69930	00 04 17 12 f8 e3 06 00 40 8f 02 05 00 a8 11 80 	00000000@0000000
  0x69940	6a 02 05 00 9c 00 00 00 19 12 06 00 12 34 0b 00 	j000000000000400
  0x69950	12 52 0e e0 0c 70 0b 60 30 6c 04 00 60 99 06 00 	0R000p0`0l00`000
  0x69960	68 19 5f 06 00 69 99 06 00 04 72 02 b5 02 00 00 	h0_00i0000r00000
  0x69970	01 08 02 00 08 32 04 30 01 0a 04 00 0a 34 07 00 	0000020000000400
  0x69980	0a 32 06 70 01 07 02 00 07 01 29 00 01 0a 04 00 	020p000000)00000
  0x69990	0a 34 09 00 0a 52 06 60 11 1a 0a 00 1a 34 18 00 	04000R0`00000400
  0x699a0	1a f2 10 f0 0e e0 0c d0 0a c0 08 70 07 60 06 50 	00000000000p0`0P
  0x699b0	30 6c 04 00 b8 99 06 00 28 c1 99 06 00 e0 99 06 	0l000000(0000000
  0x699c0	00 0a 0a 88 98 01 00 80 32 44 23 00 00 90 62 88 	000000002D#000b0
  0x699d0	98 01 00 41 03 3e 60 6e 04 00 62 44 23 00 00 c0 	000A0>`n00bD#000
  0x699e0	0c 31 02 02 45 06 08 c1 07 06 de 0a 16 04 10 06 	0100E00000000000
  0x699f0	19 06 02 00 06 52 02 30 30 6c 04 00 00 9a 06 00 	00000R000l000000
  0x69a00	38 21 63 06 00 0d 9a 06 00 29 9a 06 00 02 00 00 	8!c000000)000000
  0x69a10	02 15 9a 06 00 04 17 12 f8 e3 06 00 40 29 05 05 	000000000000@)00
  0x69a20	00 4a 11 80 4f 05 05 00 5e 02 2e 02 19 0a 04 00 	0J00O000^0.00000
  0x69a30	0a 34 0d 00 0a 92 06 70 30 6c 04 00 40 9a 06 00 	0400000p0l00@000
  0x69a40	78 21 63 06 00 4d 9a 06 00 dc 5f 06 00 02 00 00 	x!c00M0000_00000
  0x69a50	02 55 9a 06 00 04 17 12 f8 e3 06 00 90 1f 02 05 	0U00000000000000
  0x69a60	00 79 02 11 80 45 02 05 00 61 02 00 01 19 0a 00 	0y000E000a000000
  0x69a70	19 64 0d 00 19 34 0c 00 19 32 12 e0 10 d0 0e c0 	0d00040002000000
  0x69a80	0c 70 0b 50 19 06 02 00 06 52 02 30 30 6c 04 00 	0p0P00000R000l00
  0x69a90	94 9a 06 00 78 21 63 06 00 a1 9a 06 00 dc 5f 06 	0000x!c0000000_0
  0x69aa0	00 02 00 00 02 a9 9a 06 00 04 17 12 f8 e3 06 00 	0000000000000000
  0x69ab0	40 8f 02 05 00 b0 11 80 6a 02 05 00 a4 00 00 00 	@0000000j0000000
  0x69ac0	19 0a 04 00 0a 34 08 00 0a 52 06 70 30 6c 04 00 	000004000R0p0l00
  0x69ad0	d4 9a 06 00 38 21 63 06 00 e1 9a 06 00 dc 5f 06 	00008!c0000000_0
  0x69ae0	00 02 00 00 02 e9 9a 06 00 04 17 12 f8 e3 06 00 	0000000000000000
  0x69af0	40 27 ff 04 00 da 11 80 02 ff 04 00 ce 00 00 00 	@'00000000000000
  0x69b00	19 14 08 00 14 64 09 00 14 54 08 00 14 34 07 00 	00000d000T000400
  0x69b10	14 32 10 70 30 6c 04 00 1c 9b 06 00 60 21 9b 06 	020p0l000000`!00
  0x69b20	00 02 de 00 19 13 08 00 13 64 0d 00 13 34 0a 00 	000000000d000400
  0x69b30	13 52 0f f0 0d e0 0b 70 30 6c 04 00 40 9b 06 00 	0R00000p0l00@000
  0x69b40	38 4d 9b 06 00 56 9b 06 00 74 9b 06 00 06 0a 90 	8M000V000t000000
  0x69b50	82 00 00 c0 30 38 02 02 02 04 5e 9b 06 00 04 17 	0000080000^00000
  0x69b60	12 f8 e3 06 00 40 af f5 04 00 dd 04 11 80 8a f5 	00000@0000000000
  0x69b70	04 00 2d 05 02 39 04 04 19 0a 04 00 0a 34 08 00 	00-0090000000400
  0x69b80	0a 52 06 70 30 6c 04 00 8c 9b 06 00 78 21 63 06 	0R0p0l000000x!c0
  0x69b90	00 99 9b 06 00 dc 5f 06 00 02 00 00 02 a1 9b 06 	000000_000000000
  0x69ba0	00 04 17 12 f8 e3 06 00 40 8f 02 05 00 0d 02 11 	00000000@0000000
  0x69bb0	80 6a 02 05 00 fa 00 00 01 0a 04 00 0a 74 02 00 	0j00000000000t00
  0x69bc0	05 34 01 00 19 04 01 00 04 42 00 00 30 6c 04 00 	040000000B000l00
  0x69bd0	d4 9b 06 00 60 d9 9b 06 00 02 36 00 19 06 02 00 	0000`00000600000
  0x69be0	06 52 02 30 30 6c 04 00 e8 94 06 00 19 04 01 00 	0R000l0000000000
  0x69bf0	04 62 00 00 30 6c 04 00 fc 9b 06 00 60 01 9c 06 	0b000l000000`000
  0x69c00	00 02 38 00 19 20 06 00 12 74 10 00 12 34 0f 00 	00800 000t000400
  0x69c10	12 b2 0b 50 90 e6 04 00 20 9c 06 00 52 00 00 00 	000P0000 000R000
  0x69c20	28 29 9c 06 00 3c 9c 06 00 06 0c a0 e7 00 00 60 	()000<000000000`
  0x69c30	32 a0 e7 00 00 50 32 28 f4 02 00 40 08 a5 04 00 	20000P2(000@0000
  0x69c40	32 06 1c 04 10 06 00 00 01 13 04 00 13 34 06 00 	2000000000000400
  0x69c50	13 32 0f 70 11 0a 04 00 0a 34 06 00 0a 32 06 70 	020p00000400020p
  0x69c60	30 6c 04 00 68 9c 06 00 28 19 5f 06 00 dc 5f 06 	0l00h000(0_000_0
  0x69c70	00 00 00 00 19 14 08 00 14 64 09 00 14 54 08 00 	000000000d000T00
  0x69c80	14 34 07 00 14 32 10 70 30 6c 04 00 90 9c 06 00 	0400020p0l000000
  0x69c90	68 19 5f 06 00 21 9b 06 00 00 00 00 11 0a 04 00 	h0_00!0000000000
  0x69ca0	0a 34 06 00 0a 32 06 70 30 6c 04 00 b0 9c 06 00 	0400020p0l000000
  0x69cb0	28 19 5f 06 00 b9 9c 06 00 02 a2 00 19 06 02 00 	(0_0000000000000
  0x69cc0	06 52 02 30 30 6c 04 00 cc 9c 06 00 78 21 63 06 	0R000l000000x!c0
  0x69cd0	00 d9 9c 06 00 f5 9c 06 00 02 00 00 02 e1 9c 06 	0000000000000000
  0x69ce0	00 04 17 12 f8 e3 06 00 40 51 fa 04 00 40 11 80 	00000000@Q000@00
  0x69cf0	77 fa 04 00 58 02 2c 02 01 12 08 00 12 54 0a 00 	w000X0,000000T00
  0x69d00	12 34 09 00 12 32 0e e0 0c 70 0b 60 01 17 0b 00 	040002000p0`0000
  0x69d10	17 34 23 00 17 01 1a 00 10 f0 0e e0 0c d0 0a c0 	04#0000000000000
  0x69d20	08 70 07 60 06 50 00 00 01 18 0a 00 18 64 0d 00 	0p0`0P0000000d00
  0x69d30	18 54 0c 00 18 34 0b 00 18 52 14 f0 12 e0 10 70 	0T0004000R00000p
  0x69d40	19 25 08 00 17 74 08 00 17 64 07 00 17 34 06 00 	0%000t000d000400
  0x69d50	17 32 10 50 64 56 04 00 10 00 00 00 19 2b 09 00 	020PdV0000000+00
  0x69d60	1a 01 a2 00 0b f0 09 e0 07 c0 05 70 04 60 03 30 	00000000000p0`00
  0x69d70	02 50 00 00 64 56 04 00 00 05 00 00 21 05 02 00 	0P00dV000000!000
  0x69d80	05 34 07 00 e0 31 03 00 ef 31 03 00 94 63 06 00 	0400010001000c00
  0x69d90	21 00 00 00 e0 31 03 00 ef 31 03 00 94 63 06 00 	!000010001000c00
  0x69da0	01 22 0a 00 22 74 09 00 22 64 08 00 22 54 07 00 	0"00"t00"d00"T00
  0x69db0	22 34 06 00 22 32 1e e0 01 19 0a 00 19 74 0b 00 	"400"20000000t00
  0x69dc0	19 64 0a 00 19 54 09 00 19 34 08 00 19 52 15 e0 	0d000T0004000R00
  0x69dd0	19 2d 0c 00 1f 74 13 00 1f 64 12 00 1f 34 11 00 	0-000t000d000400
  0x69de0	1f 92 18 f0 16 e0 14 d0 12 c0 10 50 64 56 04 00 	00000000000PdV00
  0x69df0	40 00 00 00 01 14 08 00 14 64 0f 00 14 54 0e 00 	@00000000d000T00
  0x69e00	14 34 0d 00 14 92 10 70 01 21 0a 00 21 64 0a 00 	0400000p0!00!d00
  0x69e10	21 54 09 00 21 34 08 00 21 32 1d f0 1b e0 19 70 	!T00!400!200000p
  0x69e20	19 2b 0c 00 1c 64 13 00 1c 54 12 00 1c 34 11 00 	0+000d000T000400
  0x69e30	1c 92 18 f0 16 e0 14 d0 12 c0 10 70 64 56 04 00 	00000000000pdV00
  0x69e40	40 00 00 00 01 0f 06 00 0f 64 08 00 0f 34 07 00 	@00000000d000400
  0x69e50	0f 32 0b 70 01 12 08 00 12 54 10 00 12 34 0f 00 	020p00000T000400
  0x69e60	12 92 0e c0 0c 70 0b 60 19 2b 09 00 1a 01 9a 00 	00000p0`0+000000
  0x69e70	0b f0 09 e0 07 c0 05 70 04 60 03 30 02 50 00 00 	0000000p0`000P00
  0x69e80	64 56 04 00 c0 04 00 00 01 1c 0b 00 1c 34 1e 00 	dV00000000000400
  0x69e90	1c 01 14 00 15 f0 13 e0 11 d0 0f c0 0d 70 0c 60 	0000000000000p0`
  0x69ea0	0b 50 00 00 19 15 02 00 06 92 02 30 64 56 04 00 	0P0000000000dV00
  0x69eb0	48 00 00 00 19 2e 09 00 1d 64 c4 00 1d 34 c3 00 	H0000.000d000400
  0x69ec0	1d 01 be 00 0e e0 0c 70 0b 50 00 00 64 56 04 00 	0000000p0P00dV00
  0x69ed0	e0 05 00 00 01 0d 04 00 0d 34 10 00 0d d2 06 50 	000000000400000P
  0x69ee0	01 09 01 00 09 a2 00 00 01 0a 02 00 0a 32 06 30 	0000000000000200
  0x69ef0	01 1d 0c 00 1d 74 0d 00 1d 64 0c 00 1d 54 0b 00 	00000t000d000T00
  0x69f00	1d 34 0a 00 1d 52 19 f0 17 e0 15 d0 01 1c 0c 00 	04000R0000000000
  0x69f10	1c 64 13 00 1c 54 12 00 1c 34 10 00 1c 92 18 f0 	0d000T0004000000
  0x69f20	16 e0 14 d0 12 c0 10 70 01 14 08 00 14 64 0e 00 	0000000p00000d00
  0x69f30	14 54 0d 00 14 34 0c 00 14 92 10 70 01 19 0a 00 	0T000400000p0000
  0x69f40	19 e4 0f 00 19 74 0e 00 19 54 0d 00 19 34 0c 00 	00000t000T000400
  0x69f50	19 92 15 f0 01 18 08 00 18 54 0e 00 18 34 0c 00 	000000000T000400
  0x69f60	18 72 14 e0 12 70 11 60 01 12 06 00 12 74 0f 00 	0r000p0`00000t00
  0x69f70	12 34 0e 00 12 b2 0b 50 01 09 02 00 09 92 02 50 	0400000P0000000P
  0x69f80	01 09 02 00 09 72 02 50 11 0f 04 00 0f 34 06 00 	00000r0P00000400
  0x69f90	0f 32 0b 70 a4 72 04 00 01 00 00 00 49 7d 03 00 	020p0r000000I}00
  0x69fa0	59 7d 03 00 a4 05 05 00 00 00 00 00 11 0f 04 00 	Y}00000000000000
  0x69fb0	0f 34 06 00 0f 32 0b 70 a4 72 04 00 01 00 00 00 	0400020p0r000000
  0x69fc0	c9 7d 03 00 df 7d 03 00 a4 05 05 00 00 00 00 00 	0}000}0000000000
  0x69fd0	11 0f 04 00 0f 34 06 00 0f 32 0b 70 a4 72 04 00 	00000400020p0r00
  0x69fe0	01 00 00 00 11 7e 03 00 41 7e 03 00 a4 05 05 00 	00000~00A~000000
  0x69ff0	00 00 00 00 11 0f 04 00 0f 34 06 00 0f 32 0b 70 	000000000400020p
  0x6a000	a4 72 04 00 01 00 00 00 89 7d 03 00 97 7d 03 00 	0r0000000}000}00
  0x6a010	a4 05 05 00 00 00 00 00 01 07 01 00 07 42 00 00 	0000000000000B00
  0x6a020	11 14 06 00 14 64 09 00 14 34 08 00 14 52 10 70 	00000d0004000R0p
  0x6a030	a4 72 04 00 01 00 00 00 53 84 03 00 8b 84 03 00 	0r000000S0000000
  0x6a040	be 05 05 00 00 00 00 00 11 06 02 00 06 32 02 30 	0000000000000200
  0x6a050	a4 72 04 00 01 00 00 00 72 87 03 00 89 87 03 00 	0r000000r0000000
  0x6a060	d8 05 05 00 00 00 00 00 01 1c 0b 00 1c 74 17 00 	0000000000000t00
  0x6a070	1c 64 16 00 1c 54 15 00 1c 34 14 00 1c 01 12 00 	0d000T0004000000
  0x6a080	15 e0 00 00 01 05 02 00 05 74 01 00 01 0b 04 00 	000000000t000000
  0x6a090	0b 72 04 70 03 30 02 50 19 0f 02 00 06 52 02 30 	0r0p000P00000R00
  0x6a0a0	a8 6b 04 00 f0 81 05 00 f6 98 03 00 ff ff ff ff 	0k00000000000000
  0x6a0b0	19 1e 04 00 1e 34 0c 00 11 92 0a 50 a8 6b 04 00 	00000400000P0k00
  0x6a0c0	18 82 05 00 ff ff ff ff 60 6e 04 00 00 00 00 00 	00000000`n000000
  0x6a0d0	2a 98 03 00 00 00 00 00 09 06 02 00 06 52 02 30 	*000000000000R00
  0x6a0e0	a4 72 04 00 01 00 00 00 d9 96 03 00 32 97 03 00 	0r00000000002000
  0x6a0f0	f1 05 05 00 7d 97 03 00 11 0f 04 00 0f 34 06 00 	0000}00000000400
  0x6a100	0f 32 0b 70 a4 72 04 00 01 00 00 00 9d 96 03 00 	020p0r0000000000
  0x6a110	a6 96 03 00 a4 05 05 00 00 00 00 00 11 17 0a 00 	0000000000000000
  0x6a120	17 64 11 00 17 34 10 00 17 72 13 f0 11 e0 0f d0 	0d0004000r000000
  0x6a130	0d c0 0b 70 a4 72 04 00 02 00 00 00 59 9b 03 00 	000p0r000000Y000
  0x6a140	0e 9c 03 00 1e 06 05 00 00 00 00 00 8c 9c 03 00 	0000000000000000
  0x6a150	a4 9c 03 00 1e 06 05 00 00 00 00 00 11 0f 04 00 	0000000000000000
  0x6a160	0f 34 06 00 0f 32 0b 70 a4 72 04 00 01 00 00 00 	0400020p0r000000
  0x6a170	ae 99 03 00 c7 99 03 00 a4 05 05 00 00 00 00 00 	0000000000000000
  0x6a180	11 06 02 00 06 32 02 30 a4 72 04 00 01 00 00 00 	000002000r000000
  0x6a190	42 9d 03 00 5b 9d 03 00 3f 06 05 00 00 00 00 00 	B000[000?0000000
  0x6a1a0	11 0a 04 00 0a 34 06 00 0a 32 06 70 a4 72 04 00 	00000400020p0r00
  0x6a1b0	01 00 00 00 0d a1 03 00 1f a1 03 00 55 06 05 00 	000000000000U000
  0x6a1c0	00 00 00 00 19 25 0a 00 16 54 11 00 16 34 10 00 	00000%000T000400
  0x6a1d0	16 72 12 f0 10 e0 0e c0 0c 70 0b 60 64 56 04 00 	0r0000000p0`dV00
  0x6a1e0	38 00 00 00 19 0f 06 00 0f 64 08 00 0f 34 07 00 	800000000d000400
  0x6a1f0	0f 32 0b 70 28 7f 04 00 01 00 00 00 2d a9 03 00 	020p(0000000-000
  0x6a200	7c a9 03 00 88 06 05 00 00 00 00 00 01 25 09 00 	|000000000000%00
  0x6a210	25 64 53 00 25 34 52 00 25 01 4e 00 17 e0 15 70 	%dS0%4R0%0N0000p
  0x6a220	14 50 00 00 19 2b 07 00 1a 74 f4 00 1a 34 f3 00 	0P000+000t000400
  0x6a230	1a 01 f0 00 0b 50 00 00 64 56 04 00 70 07 00 00 	00000P00dV00p000
  0x6a240	11 0f 04 00 0f 34 0a 00 0f 72 0b 70 a4 72 04 00 	000004000r0p0r00
  0x6a250	01 00 00 00 c9 a1 03 00 68 a3 03 00 6e 06 05 00 	00000000h000n000
  0x6a260	00 00 00 00 19 2b 09 00 1a 01 fe 00 0b f0 09 e0 	00000+0000000000
  0x6a270	07 c0 05 70 04 60 03 30 02 50 00 00 64 56 04 00 	000p0`000P00dV00
  0x6a280	e0 07 00 00 01 16 09 00 16 01 44 00 0f f0 0d e0 	0000000000D00000
  0x6a290	0b c0 09 70 08 60 07 50 06 30 00 00 21 08 02 00 	000p0`0P0000!000
  0x6a2a0	08 d4 43 00 30 af 03 00 8a b1 03 00 84 a2 06 00 	00C0000000000000
  0x6a2b0	21 00 00 00 30 af 03 00 8a b1 03 00 84 a2 06 00 	!000000000000000
  0x6a2c0	01 06 03 00 06 34 02 00 06 70 00 00 01 17 0a 00 	000004000p000000
  0x6a2d0	17 54 0e 00 17 34 0d 00 17 52 13 f0 11 e0 0f d0 	0T0004000R000000
  0x6a2e0	0d c0 0b 70 11 0a 04 00 0a 34 09 00 0a 52 06 70 	000p000004000R0p
  0x6a2f0	a4 72 04 00 01 00 00 00 b6 cb 03 00 35 cc 03 00 	0r00000000005000
  0x6a300	a1 06 05 00 00 00 00 00 01 0c 02 00 0c 72 05 50 	0000000000000r0P
  0x6a310	11 0f 04 00 0f 34 06 00 0f 32 0b 70 a4 72 04 00 	00000400020p0r00
  0x6a320	01 00 00 00 6e cc 03 00 d9 cc 03 00 ba 06 05 00 	0000n00000000000
  0x6a330	00 00 00 00 11 12 06 00 12 34 10 00 12 b2 0e e0 	0000000004000000
  0x6a340	0c 70 0b 60 a4 72 04 00 01 00 00 00 0c cd 03 00 	0p0`0r0000000000
  0x6a350	b5 cd 03 00 d5 06 05 00 00 00 00 00 01 0e 02 00 	0000000000000000
  0x6a360	0e 32 0a 30 01 18 06 00 18 54 07 00 18 34 06 00 	020000000T000400
  0x6a370	18 32 14 60 19 2d 0d 35 1f 74 14 00 1b 64 13 00 	020`0-050t000d00
  0x6a380	17 34 12 00 13 33 0e b2 0a f0 08 e0 06 d0 04 c0 	0400030000000000
  0x6a390	02 50 00 00 64 56 04 00 58 00 00 00 11 19 0a 00 	0P00dV00X0000000
  0x6a3a0	19 74 0c 00 19 64 0b 00 19 34 0a 00 19 52 15 f0 	0t000d0004000R00
  0x6a3b0	13 e0 11 c0 a4 72 04 00 01 00 00 00 13 da 03 00 	00000r0000000000
  0x6a3c0	03 db 03 00 d8 05 05 00 00 00 00 00 11 15 08 00 	0000000000000000
  0x6a3d0	15 74 0a 00 15 64 09 00 15 34 08 00 15 52 11 f0 	0t000d0004000R00
  0x6a3e0	a4 72 04 00 01 00 00 00 87 d8 03 00 ce d8 03 00 	0r00000000000000
  0x6a3f0	d8 05 05 00 00 00 00 00 11 06 02 00 06 32 02 30 	0000000000000200
  0x6a400	a4 72 04 00 01 00 00 00 dc ec 03 00 e6 ec 03 00 	0r00000000000000
  0x6a410	f2 06 05 00 00 00 00 00 11 04 01 00 04 42 00 00 	0000000000000B00
  0x6a420	a4 72 04 00 01 00 00 00 9c ec 03 00 b3 ec 03 00 	0r00000000000000
  0x6a430	f2 06 05 00 00 00 00 00 01 0f 06 00 0f 34 0d 00 	0000000000000400
  0x6a440	0f 52 08 70 07 60 06 50 01 0f 06 00 0f 64 0f 00 	0R0p0`0P00000d00
  0x6a450	0f 34 0e 00 0f b2 0b 70 01 12 08 00 12 52 0b f0 	0400000p00000R00
  0x6a460	09 e0 07 c0 05 70 04 60 03 30 02 50 19 24 07 00 	00000p0`000P0$00
  0x6a470	12 64 4b 00 12 34 4a 00 12 01 48 00 0b 70 00 00 	0dK004J000H00p00
  0x6a480	64 56 04 00 30 02 00 00 01 1c 0c 00 1c 64 15 00 	dV00000000000d00
  0x6a490	1c 54 14 00 1c 34 12 00 1c b2 18 f0 16 e0 14 d0 	0T00040000000000
  0x6a4a0	12 c0 10 70 01 12 02 00 12 72 0b 50 11 13 01 00 	000p00000r0P0000
  0x6a4b0	0b 62 00 00 a8 6b 04 00 a0 a4 05 00 00 00 00 00 	0b000k0000000000
  0x6a4c0	14 f1 03 00 00 00 00 00 11 0f 04 00 0f 34 06 00 	0000000000000400
  0x6a4d0	0f 32 0b 70 a4 72 04 00 01 00 00 00 a1 ed 03 00 	020p0r0000000000
  0x6a4e0	ab ed 03 00 a4 05 05 00 00 00 00 00 11 0f 04 00 	0000000000000000
  0x6a4f0	0f 34 06 00 0f 32 0b 70 a4 72 04 00 01 00 00 00 	0400020p0r000000
  0x6a500	dd ed 03 00 e7 ed 03 00 a4 05 05 00 00 00 00 00 	0000000000000000
  0x6a510	19 04 01 00 04 42 00 00 28 7f 04 00 01 00 00 00 	00000B00(0000000
  0x6a520	a2 f1 03 00 b4 f1 03 00 01 00 00 00 b4 f1 03 00 	0000000000000000
  0x6a530	01 0f 06 00 0f 64 11 00 0f 34 10 00 0f d2 0b 70 	00000d000400000p
  0x6a540	19 2d 0d 55 1f 74 14 00 1b 64 13 00 17 34 12 00 	0-0U0t000d000400
  0x6a550	13 53 0e b2 0a f0 08 e0 06 d0 04 c0 02 50 00 00 	0S00000000000P00
  0x6a560	64 56 04 00 58 00 00 00 01 0a 03 00 0a 68 02 00 	dV00X00000000h00
  0x6a570	04 a2 00 00 01 05 02 00 05 74 02 00 01 0f 06 00 	000000000t000000
  0x6a580	0f 74 04 00 0a 64 03 00 05 34 02 00 19 1e 08 00 	0t000d0004000000
  0x6a590	0f 72 0b f0 09 e0 07 c0 05 70 04 60 03 50 02 30 	0r0000000p0`0P00
  0x6a5a0	64 56 04 00 30 00 00 00 11 10 04 00 10 34 09 00 	dV00000000000400
  0x6a5b0	10 52 0c 70 a4 72 04 00 01 00 00 00 d9 02 04 00 	0R0p0r0000000000
  0x6a5c0	e6 02 04 00 0b 07 05 00 00 00 00 00 01 06 02 00 	0000000000000000
  0x6a5d0	06 52 02 50 01 08 01 00 08 62 00 00 11 0f 04 00 	0R0P00000b000000
  0x6a5e0	0f 34 06 00 0f 32 0b 70 a4 72 04 00 01 00 00 00 	0400020p0r000000
  0x6a5f0	51 04 04 00 ab 04 04 00 23 07 05 00 00 00 00 00 	Q0000000#0000000
  0x6a600	01 14 09 00 14 e2 0d f0 0b e0 09 d0 07 c0 05 70 	000000000000000p
  0x6a610	04 60 03 30 02 50 00 00 11 1b 08 00 1b 34 0e 00 	0`000P0000000400
  0x6a620	1b 52 17 f0 15 e0 13 d0 11 c0 0f 60 a4 72 04 00 	0R000000000`0r00
  0x6a630	01 00 00 00 c5 0e 04 00 02 0f 04 00 3d 07 05 00 	000000000000=000
  0x6a640	00 00 00 00 19 33 0b 00 25 34 22 00 19 01 1a 00 	00000300%4"00000
  0x6a650	0e f0 0c e0 0a d0 08 c0 06 70 05 60 04 50 00 00 	000000000p0`0P00
  0x6a660	70 5b 04 00 20 a7 05 00 cb 00 00 00 00 00 00 00 	p[00 00000000000
  0x6a670	30 07 04 00 ff ff ff ff 19 2d 09 00 1b 54 90 02 	000000000-000T00
  0x6a680	1b 34 8e 02 1b 01 8a 02 0e e0 0c 70 0b 60 00 00 	04000000000p0`00
  0x6a690	64 56 04 00 40 14 00 00 19 31 0b 00 1f 54 96 02 	dV00@00001000T00
  0x6a6a0	1f 34 94 02 1f 01 8e 02 12 f0 10 e0 0e c0 0c 70 	040000000000000p
  0x6a6b0	0b 60 00 00 64 56 04 00 60 14 00 00 01 1d 0c 00 	0`00dV00`0000000
  0x6a6c0	1d 74 0f 00 1d 64 0e 00 1d 54 0d 00 1d 34 0c 00 	0t000d000T000400
  0x6a6d0	1d 72 19 f0 17 e0 15 c0 01 12 06 00 12 74 11 00 	0r00000000000t00
  0x6a6e0	12 34 10 00 12 d2 0b 50 19 19 0a 00 19 e4 0b 00 	0400000P00000000
  0x6a6f0	19 74 0a 00 19 64 09 00 19 34 08 00 19 52 15 f0 	0t000d0004000R00
  0x6a700	28 7f 04 00 02 00 00 00 90 27 04 00 1a 28 04 00 	(00000000'000(00
  0x6a710	54 07 05 00 00 00 00 00 41 28 04 00 56 28 04 00 	T0000000A(00V(00
  0x6a720	54 07 05 00 00 00 00 00 09 14 08 00 14 64 0a 00 	T000000000000d00
  0x6a730	14 34 09 00 14 32 10 f0 0e e0 0c c0 a4 72 04 00 	0400020000000r00
  0x6a740	01 00 00 00 37 2b 04 00 40 2b 04 00 6d 07 05 00 	00007+00@+00m000
  0x6a750	40 2b 04 00 01 08 02 00 08 92 04 30 19 26 09 00 	@+00000000000&00
  0x6a760	18 68 0d 00 14 01 1c 00 09 e0 07 70 06 60 05 30 	0h000000000p0`00
  0x6a770	04 50 00 00 64 56 04 00 c0 00 00 00 01 06 02 00 	0P00dV0000000000
  0x6a780	06 12 02 30 01 0b 03 00 0b 68 05 00 07 c2 00 00 	000000000h000000
  0x6a790	01 08 01 00 08 a2 00 00 11 0f 04 00 0f 34 06 00 	0000000000000400
  0x6a7a0	0f 32 0b 70 a4 72 04 00 01 00 00 00 05 30 04 00 	020p0r0000000000
  0x6a7b0	4b 30 04 00 23 07 05 00 00 00 00 00 19 06 02 00 	K000#00000000000
  0x6a7c0	06 32 02 30 28 7f 04 00 01 00 00 00 a4 32 04 00 	0200(00000000200
  0x6a7d0	cf 32 04 00 a1 06 05 00 00 00 00 00 01 14 08 00 	0200000000000000
  0x6a7e0	14 64 09 00 14 54 08 00 14 34 06 00 14 32 10 70 	0d000T000400020p
  0x6a7f0	01 09 01 00 09 42 00 00 11 1c 0a 00 1c c4 0b 00 	00000B0000000000
  0x6a800	1c 64 0a 00 1c 34 09 00 1c 32 18 f0 16 e0 14 d0 	0d00040002000000
  0x6a810	a4 72 04 00 01 00 00 00 89 39 04 00 c0 39 04 00 	0r00000009000900
  0x6a820	99 07 05 00 00 00 00 00 01 19 0a 00 19 34 16 00 	0000000000000400
  0x6a830	19 b2 15 f0 13 e0 11 d0 0f c0 0d 70 0c 60 0b 50 	00000000000p0`0P
  0x6a840	01 16 0a 00 16 54 0f 00 16 34 0e 00 16 52 12 f0 	00000T0004000R00
  0x6a850	10 e0 0e c0 0c 70 0b 60 01 14 0a 00 14 34 11 00 	00000p0`00000400
  0x6a860	14 52 10 f0 0e e0 0c d0 0a c0 08 70 07 60 06 50 	0R000000000p0`0P
  0x6a870	11 0d 01 00 04 62 00 00 a8 6b 04 00 88 bf 05 00 	00000b000k000000
  0x6a880	01 04 01 00 04 02 00 00 01 1b 08 00 1b 74 09 00 	0000000000000t00
  0x6a890	1b 64 08 00 1b 34 07 00 1b 32 14 50 09 0f 06 00 	0d000400020P0000
  0x6a8a0	0f 64 09 00 0f 34 08 00 0f 32 0b 70 a4 72 04 00 	0d000400020p0r00
  0x6a8b0	01 00 00 00 a6 48 04 00 ad 48 04 00 6d 07 05 00 	00000H000H00m000
  0x6a8c0	ad 48 04 00 09 0a 04 00 0a 34 08 00 0a 52 06 70 	0H00000004000R0p
  0x6a8d0	a4 72 04 00 02 00 00 00 30 51 04 00 3e 52 04 00 	0r0000000Q00>R00
  0x6a8e0	b0 07 05 00 3e 52 04 00 6d 52 04 00 7f 52 04 00 	0000>R00mR000R00
  0x6a8f0	b0 07 05 00 3e 52 04 00 01 00 00 00 01 09 01 00 	0000>R0000000000
  0x6a900	09 62 00 00 01 08 04 00 08 72 04 70 03 60 02 30 	0b0000000r0p0`00
  0x6a910	11 1c 08 00 1c 64 0d 00 1c 34 0c 00 1c 52 18 f0 	00000d0004000R00
  0x6a920	16 e0 14 70 a4 72 04 00 01 00 00 00 e9 54 04 00 	000p0r0000000T00
  0x6a930	1e 55 04 00 ce 07 05 00 00 00 00 00 11 18 05 00 	0U00000000000000
  0x6a940	18 62 14 e0 12 70 11 60 10 30 00 00 a4 72 04 00 	0b000p0`00000r00
  0x6a950	01 00 00 00 67 55 04 00 9f 55 04 00 fa 07 05 00 	0000gU000U000000
  0x6a960	00 00 00 00 09 18 08 00 18 64 10 00 18 34 0f 00 	000000000d000400
  0x6a970	18 92 14 f0 12 e0 10 70 a4 72 04 00 01 00 00 00 	0000000p0r000000
  0x6a980	d0 55 04 00 01 56 04 00 26 08 05 00 01 56 04 00 	0U000V00&0000V00
  0x6a990	01 07 03 00 07 42 03 50 02 30 00 00 01 02 01 00 	00000B0P00000000
  0x6a9a0	02 30 00 00 01 07 02 00 07 01 13 00 01 15 05 00 	0000000000000000
  0x6a9b0	15 34 ba 00 15 01 b8 00 06 50 00 00 01 0f 06 00 	040000000P000000
  0x6a9c0	0f 64 06 00 0f 34 05 00 0f 12 0b 70 00 00 00 00 	0d000400000p0000
  0x6a9d0	01 04 01 00 04 12 00 00 09 04 01 00 04 22 00 00 	0000000000000"00
  0x6a9e0	a4 72 04 00 01 00 00 00 0b 5d 04 00 95 5d 04 00 	0r0000000]000]00
  0x6a9f0	85 08 05 00 95 5d 04 00 01 02 01 00 02 50 00 00 	00000]0000000P00
  0x6aa00	01 0d 04 00 0d 34 09 00 0d 32 06 50 00 00 00 00 	00000400020P0000
  0x6aa10	01 00 00 00 00 00 00 00 01 00 00 00 01 15 09 00 	0000000000000000
  0x6aa20	15 74 05 00 15 64 04 00 15 54 03 00 15 34 02 00 	0t000d000T000400
  0x6aa30	15 e0 00 00 01 16 0a 00 16 54 0c 00 16 34 0b 00 	000000000T000400
  0x6aa40	16 32 12 f0 10 e0 0e c0 0c 70 0b 60 19 1c 03 00 	020000000p0`0000
  0x6aa50	0e 01 1c 00 02 50 00 00 64 56 04 00 d0 00 00 00 	00000P00dV000000
  0x6aa60	01 25 0c 00 25 68 05 00 19 74 11 00 19 64 10 00 	0%00%h000t000d00
  0x6aa70	19 54 0f 00 19 34 0e 00 19 b2 15 e0 01 14 08 00 	0T00040000000000
  0x6aa80	14 64 0d 00 14 54 0c 00 14 34 0b 00 14 72 10 70 	0d000T0004000r0p
  0x6aa90	01 14 08 00 14 64 11 00 14 54 10 00 14 34 0f 00 	00000d000T000400
  0x6aaa0	14 b2 10 70 09 18 02 00 18 d2 14 30 a4 72 04 00 	000p000000000r00
  0x6aab0	01 00 00 00 af 60 04 00 d9 60 04 00 2e 09 05 00 	00000`000`00.000
  0x6aac0	d9 60 04 00 01 07 03 00 07 82 03 50 02 30 00 00 	0`000000000P0000
  0x6aad0	09 18 02 00 18 d2 14 30 a4 72 04 00 01 00 00 00 	000000000r000000
  0x6aae0	53 60 04 00 7d 60 04 00 9d 08 05 00 7d 60 04 00 	S`00}`000000}`00
  0x6aaf0	09 0d 01 00 0d 82 00 00 a4 72 04 00 01 00 00 00 	000000000r000000
  0x6ab00	39 6d 04 00 48 6d 04 00 cd 09 05 00 48 6d 04 00 	9m00Hm000000Hm00
  0x6ab10	01 13 08 00 13 74 04 00 0f 64 03 00 0b 54 02 00 	00000t000d000T00
  0x6ab20	07 34 01 00 00 00 00 00 02 02 04 00 03 16 00 06 	0400000000000000
  0x6ab30	02 60 01 70 01 00 00 00 02 01 03 00 02 16 00 06 	0`0p000000000000
  0x6ab40	01 70 00 00 01 00 00 00 01 00 00 00 01 0f 06 00 	0p00000000000000
  0x6ab50	0f 64 0f 00 0f 34 0e 00 0f 92 0b 70 01 1e 0a 00 	0d000400000p0000
  0x6ab60	1e 34 0e 00 1e 32 1a f0 18 e0 16 d0 14 c0 12 70 	040002000000000p
  0x6ab70	11 60 10 50 19 1e 08 00 1e 52 1a f0 18 e0 16 d0 	0`0P00000R000000
  0x6ab80	14 c0 12 70 11 60 10 30 a4 72 04 00 03 00 00 00 	000p0`000r000000
  0x6ab90	d6 aa 04 00 68 ab 04 00 ce 0b 05 00 68 ab 04 00 	0000h0000000h000
  0x6aba0	9b aa 04 00 8f ab 04 00 e4 0b 05 00 00 00 00 00 	0000000000000000
  0x6abb0	ca ab 04 00 d0 ab 04 00 e4 0b 05 00 00 00 00 00 	0000000000000000
  0x6abc0	19 10 08 00 10 d2 0c f0 0a e0 08 d0 06 c0 04 70 	000000000000000p
  0x6abd0	03 60 02 30 a4 72 04 00 02 00 00 00 85 a4 04 00 	0`000r0000000000
  0x6abe0	aa a4 04 00 63 0a 05 00 aa a4 04 00 85 a4 04 00 	0000c00000000000
  0x6abf0	22 a5 04 00 88 0a 05 00 00 00 00 00 19 2b 0b 00 	"000000000000+00
  0x6ac00	19 68 0f 00 15 01 20 00 0e f0 0c e0 0a d0 08 c0 	0h0000 000000000
  0x6ac10	06 70 05 60 04 30 00 00 4c e4 04 00 02 00 00 00 	0p0`0000L0000000
  0x6ac20	0d ae 04 00 6d ae 04 00 07 0c 05 00 6d ae 04 00 	0000m0000000m000
  0x6ac30	29 ad 04 00 8d ae 04 00 1d 0c 05 00 00 00 00 00 	)000000000000000
  0x6ac40	e3 00 00 00 19 13 08 00 13 01 15 00 0c f0 0a d0 	0000000000000000
  0x6ac50	08 c0 06 70 05 60 04 30 a4 72 04 00 04 00 00 00 	000p0`000r000000
  0x6ac60	b2 a6 04 00 fd a6 04 00 0e 0b 05 00 fd a6 04 00 	0000000000000000
  0x6ac70	b2 a6 04 00 79 a7 04 00 3d 0b 05 00 00 00 00 00 	0000y000=0000000
  0x6ac80	f9 a7 04 00 ff a7 04 00 0e 0b 05 00 fd a6 04 00 	0000000000000000
  0x6ac90	f9 a7 04 00 ff a7 04 00 3d 0b 05 00 00 00 00 00 	00000000=0000000
  0x6aca0	01 1b 0a 00 1b 64 16 00 1b 54 15 00 1b 34 14 00 	00000d000T000400
  0x6acb0	1b f2 14 f0 12 e0 10 70 09 19 0a 00 19 74 0c 00 	0000000p00000t00
  0x6acc0	19 64 0b 00 19 34 0a 00 19 52 15 f0 13 e0 11 d0 	0d0004000R000000
  0x6acd0	a4 72 04 00 02 00 00 00 9d 84 04 00 dc 85 04 00 	0r00000000000000
  0x6ace0	01 00 00 00 16 86 04 00 fc 85 04 00 16 86 04 00 	0000000000000000
  0x6acf0	01 00 00 00 16 86 04 00 09 19 0a 00 19 74 0c 00 	0000000000000t00
  0x6ad00	19 64 0b 00 19 34 0a 00 19 52 15 f0 13 e0 11 d0 	0d0004000R000000
  0x6ad10	a4 72 04 00 02 00 00 00 a6 86 04 00 e7 87 04 00 	0r00000000000000
  0x6ad20	01 00 00 00 21 88 04 00 07 88 04 00 21 88 04 00 	0000!0000000!000
  0x6ad30	01 00 00 00 21 88 04 00 09 15 08 00 15 74 08 00 	0000!00000000t00
  0x6ad40	15 64 07 00 15 34 06 00 15 32 11 e0 a4 72 04 00 	0d00040002000r00
  0x6ad50	01 00 00 00 56 88 04 00 cc 88 04 00 01 00 00 00 	0000V00000000000
  0x6ad60	e2 88 04 00 09 15 08 00 15 74 08 00 15 64 07 00 	000000000t000d00
  0x6ad70	15 34 06 00 15 32 11 e0 a4 72 04 00 01 00 00 00 	040002000r000000
  0x6ad80	17 89 04 00 8d 89 04 00 01 00 00 00 a3 89 04 00 	0000000000000000
  0x6ad90	19 27 0a 00 19 01 25 00 0d f0 0b e0 09 d0 07 c0 	0'0000%000000000
  0x6ada0	05 70 04 60 03 30 02 50 64 56 04 00 10 01 00 00 	0p0`000PdV000000
  0x6adb0	19 2a 0a 00 1c 01 31 00 0d f0 0b e0 09 d0 07 c0 	0*00001000000000
  0x6adc0	05 70 04 60 03 30 02 50 64 56 04 00 70 01 00 00 	0p0`000PdV00p000
  0x6add0	01 1a 0a 00 1a 34 14 00 1a b2 16 f0 14 e0 12 d0 	0000040000000000
  0x6ade0	10 c0 0e 70 0d 60 0c 50 01 25 0b 00 25 34 23 00 	000p0`0P0%00%4#0
  0x6adf0	25 01 18 00 1a f0 18 e0 16 d0 14 c0 12 70 11 60 	%000000000000p0`
  0x6ae00	10 50 00 00 19 27 0a 00 19 01 27 00 0d f0 0b e0 	0P000'0000'00000
  0x6ae10	09 d0 07 c0 05 70 04 60 03 30 02 50 64 56 04 00 	00000p0`000PdV00
  0x6ae20	28 01 00 00 00 00 00 00 01 00 00 00 01 00 00 00 	(000000000000000
  0x6ae30	01 00 00 00 00 00 00 00 01 04 01 00 04 42 00 00 	0000000000000B00
  0x6ae40	01 04 01 00 04 42 00 00 01 04 01 00 04 42 00 00 	00000B0000000B00
  0x6ae50	01 04 01 00 04 42 00 00 01 00 00 00 01 13 08 00 	00000B0000000000
  0x6ae60	13 34 0c 00 13 52 0c f0 0a e0 08 70 07 60 06 50 	04000R00000p0`0P
  0x6ae70	01 15 09 00 15 e4 05 00 15 74 04 00 15 64 03 00 	000000000t000d00
  0x6ae80	15 34 02 00 15 f0 00 00 01 0f 06 00 0f e4 03 00 	0400000000000000
  0x6ae90	0a 74 02 00 05 34 01 00 01 00 00 00 01 14 08 00 	0t00040000000000
  0x6aea0	14 64 0b 00 14 54 09 00 14 34 08 00 14 52 10 70 	0d000T0004000R0p
  0x6aeb0	19 06 02 00 06 32 02 30 28 7f 04 00 01 00 00 00 	00000200(0000000
  0x6aec0	23 be 04 00 42 be 04 00 b0 07 05 00 42 be 04 00 	#000B0000000B000
  0x6aed0	19 15 08 00 15 74 0b 00 15 64 0a 00 15 34 09 00 	00000t000d000400
  0x6aee0	15 52 11 e0 28 7f 04 00 01 00 00 00 92 c0 04 00 	0R00(00000000000
  0x6aef0	a8 c0 04 00 40 0c 05 00 00 00 00 00 19 16 08 00 	0000@00000000000
  0x6af00	16 34 0d 00 16 52 12 f0 10 e0 0e c0 0c 70 0b 60 	04000R0000000p0`
  0x6af10	28 7f 04 00 01 00 00 00 55 c1 04 00 a7 c1 04 00 	(0000000U0000000
  0x6af20	6b 0c 05 00 00 00 00 00 19 30 0b 00 1f 34 62 00 	k0000000000004b0
  0x6af30	1f 01 58 00 10 f0 0e e0 0c d0 0a c0 08 70 07 60 	00X0000000000p0`
  0x6af40	06 50 00 00 64 56 04 00 b8 02 00 00 01 12 08 00 	0P00dV0000000000
  0x6af50	12 54 0b 00 12 34 0a 00 12 32 0e c0 0c 70 0b 60 	0T00040002000p0`
  0x6af60	11 0f 04 00 0f 34 06 00 0f 32 0b 70 a4 72 04 00 	00000400020p0r00
  0x6af70	01 00 00 00 30 cc 04 00 3c cc 04 00 83 0c 05 00 	00000000<0000000
  0x6af80	00 00 00 00 01 14 08 00 14 64 0f 00 14 54 0d 00 	000000000d000T00
  0x6af90	14 34 0c 00 14 92 10 70 19 1f 05 00 0d 01 8a 00 	0400000p00000000
  0x6afa0	06 e0 04 d0 02 c0 00 00 64 56 04 00 10 04 00 00 	00000000dV000000
  0x6afb0	21 28 0a 00 28 f4 85 00 20 74 86 00 18 64 87 00 	!(00(000 t000d00
  0x6afc0	10 54 88 00 08 34 89 00 f0 cf 04 00 4b d0 04 00 	0T0004000000K000
  0x6afd0	98 af 06 00 21 00 00 00 f0 cf 04 00 4b d0 04 00 	0000!0000000K000
  0x6afe0	98 af 06 00 01 27 0d 00 27 74 21 00 27 64 1f 00 	00000'00't!0'd00
  0x6aff0	27 34 1e 00 27 01 18 00 1c f0 1a e0 18 d0 16 c0 	'400'00000000000
  0x6b000	14 50 00 00 19 0a 04 00 0a 34 0c 00 0a 92 06 70 	0P0000000400000p
  0x6b010	28 7f 04 00 01 00 00 00 6f d7 04 00 96 d7 04 00 	(0000000o0000000
  0x6b020	9b 0c 05 00 00 00 00 00 01 12 08 00 12 54 0c 00 	0000000000000T00
  0x6b030	12 34 0a 00 12 52 0e e0 0c 70 0b 60 01 0f 06 00 	04000R000p0`0000
  0x6b040	0f 54 08 00 0f 34 07 00 0f 32 0b 70 09 0a 04 00 	0T000400020p0000
  0x6b050	0a 34 06 00 0a 32 06 70 a4 72 04 00 01 00 00 00 	0400020p0r000000
  0x6b060	dd e3 04 00 10 e4 04 00 20 0d 05 00 10 e4 04 00 	00000000 0000000
  0x6b070	19 0d 01 00 04 62 00 00 a8 6b 04 00 b0 c1 05 00 	00000b000k000000
  0x6b080	ff ff ff ff 00 00 00 00 ff ff ff ff 00 00 00 00 	0000000000000000
  0x6b090	00 00 00 00 00 00 00 00 01 00 00 00 01 00 00 00 	0000000000000000
  0x6b0a0	a4 b0 06 00 40 00 00 00 00 00 00 00 00 00 00 00 	0000@00000000000
  0x6b0b0	40 0d 05 00 38 00 00 00 e1 e4 04 00 00 00 00 00 	@000800000000000
  0x6b0c0	19 0a 02 00 0a 32 06 50 a8 6b 04 00 b0 c1 05 00 	0000020P0k000000
  0x6b0d0	09 17 0a 00 17 64 12 00 17 34 11 00 17 92 13 f0 	00000d0004000000
  0x6b0e0	11 e0 0f d0 0d c0 0b 70 a4 72 04 00 02 00 00 00 	0000000p0r000000
  0x6b0f0	0a ed 04 00 e3 ed 04 00 5b 0d 05 00 e3 ed 04 00 	00000000[0000000
  0x6b100	06 ee 04 00 29 ee 04 00 5b 0d 05 00 e3 ed 04 00 	0000)000[0000000
  0x6b110	01 1d 0a 00 1d 54 09 00 1d 34 08 00 1d f0 1b e0 	00000T0004000000
  0x6b120	19 d0 17 c0 15 70 14 60 01 1b 08 00 1b f0 19 e0 	00000p0`00000000
  0x6b130	17 d0 15 c0 13 70 12 60 11 50 10 30 00 00 00 00 	00000p0`0P000000
  0x6b140	00 00 00 00 c8 80 00 00 00 00 00 00 60 b1 06 00 	000000000000`000
  0x6b150	00 00 00 00 00 00 00 00 00 00 00 00 00 00 00 00 	0000000000000000
  0x6b160	02 00 00 00 78 b1 06 00 f0 b1 06 00 00 00 00 00 	0000x00000000000
  0x6b170	00 00 00 00 00 00 00 00 00 00 00 00 b0 e2 06 00 	0000000000000000
  0x6b180	00 00 00 00 ff ff ff ff 00 00 00 00 18 00 00 00 	0000000000000000
  0x6b190	f0 a2 04 00 00 00 00 00 00 00 00 00 00 00 00 00 	0000000000000000
  0x6b1a0	00 00 00 00 a0 e3 06 00 00 00 00 00 ff ff ff ff 	0000000000000000
  0x6b1b0	00 00 00 00 18 00 00 00 34 81 00 00 00 00 00 00 	0000000040000000
  0x6b1c0	00 00 00 00 00 00 00 00 10 00 00 00 d0 e3 06 00 	0000000000000000
  0x6b1d0	00 00 00 00 ff ff ff ff 00 00 00 00 18 00 00 00 	0000000000000000
  0x6b1e0	70 81 00 00 00 00 00 00 00 00 00 00 00 00 00 00 	p000000000000000
  0x6b1f0	00 00 00 00 f8 e3 06 00 00 00 00 00 ff ff ff ff 	0000000000000000
  0x6b200	00 00 00 00 18 00 00 00 d4 81 00 00 00 00 00 00 	0000000000000000
  0x6b210	00 00 00 00 00 00 00 00 03 00 00 00 a0 b1 06 00 	0000000000000000
  0x6b220	c8 b1 06 00 f0 b1 06 00 00 00 00 00 00 00 00 00 	0000000000000000
  0x6b230	00 00 00 00 00 00 00 00 00 00 00 00 c8 80 00 00 	0000000000000000
  0x6b240	00 00 00 00 18 b2 06 00 00 00 00 00 00 00 00 00 	0000000000000000
  0x6b250	00 00 00 00 00 00 00 00 00 00 00 00 58 e6 06 00 	000000000000X000
  0x6b260	00 00 00 00 ff ff ff ff 00 00 00 00 18 00 00 00 	0000000000000000
  0x6b270	80 bf 01 00 00 00 00 00 00 00 00 00 00 00 00 00 	0000000000000000
  0x6b280	02 00 00 00 98 b2 06 00 f0 b1 06 00 00 00 00 00 	0000000000000000
  0x6b290	00 00 00 00 00 00 00 00 00 00 00 00 d8 e6 06 00 	0000000000000000
  0x6b2a0	00 00 00 00 ff ff ff ff 00 00 00 00 18 00 00 00 	0000000000000000
  0x6b2b0	3c c0 01 00 00 00 00 00 00 00 00 00 00 00 00 00 	<000000000000000
  0x6b2c0	02 00 00 00 c8 b1 06 00 f0 b1 06 00 00 00 00 00 	0000000000000000
  0x6b2d0	00 00 00 00 00 00 00 00 03 00 00 00 f8 b2 06 00 	0000000000000000
  0x6b2e0	58 b2 06 00 f0 b1 06 00 00 00 00 00 00 00 00 00 	X000000000000000
  0x6b2f0	00 00 00 00 00 00 00 00 00 00 00 00 30 e6 06 00 	0000000000000000
  0x6b300	00 00 00 00 ff ff ff ff 00 00 00 00 18 00 00 00 	0000000000000000
  0x6b310	e0 bf 01 00 00 00 00 00 00 00 00 00 00 00 00 00 	0000000000000000
  0x6b320	00 00 00 00 c8 80 00 00 00 00 00 00 80 b2 06 00 	0000000000000000
  0x6b330	00 00 00 00 00 00 00 00 00 00 00 00 00 00 00 00 	0000000000000000
  0x6b340	00 00 00 00 c8 80 00 00 00 00 00 00 d8 b2 06 00 	0000000000000000
  0x6b350	00 00 00 00 00 00 00 00 00 00 00 00 00 00 00 00 	0000000000000000
  0x6b360	00 00 00 00 c8 80 00 00 00 00 00 00 c0 b2 06 00 	0000000000000000
  0x6b370	00 00 00 00 00 00 00 00 00 00 00 00 00 00 00 00 	0000000000000000
  0x6b380	00 00 00 00 08 e7 06 00 00 00 00 00 ff ff ff ff 	0000000000000000
  0x6b390	00 00 00 00 30 00 00 00 88 8d 02 00 00 00 00 00 	0000000000000000
  0x6b3a0	00 00 00 00 00 00 00 00 00 00 00 00 40 e7 06 00 	000000000000@000
  0x6b3b0	00 00 00 00 ff ff ff ff 00 00 00 00 18 00 00 00 	0000000000000000
  0x6b3c0	ec 8d 02 00 00 00 00 00 00 00 00 00 00 00 00 00 	0000000000000000
  0x6b3d0	03 00 00 00 80 b3 06 00 a8 b3 06 00 f0 b1 06 00 	0000000000000000
  0x6b3e0	00 00 00 00 00 00 00 00 00 00 00 00 00 00 00 00 	0000000000000000
  0x6b3f0	00 00 00 00 c8 80 00 00 00 00 00 00 d0 b3 06 00 	0000000000000000
  0x6b400	00 00 00 00 00 00 00 00 00 00 00 00 00 00 00 00 	0000000000000000
  0x6b410	00 00 00 00 c8 80 00 00 00 00 00 00 30 b4 06 00 	0000000000000000
  0x6b420	00 00 00 00 00 00 00 00 00 00 00 00 00 00 00 00 	0000000000000000
  0x6b430	03 00 00 00 50 b4 06 00 78 b4 06 00 f0 b1 06 00 	0000P000x0000000
  0x6b440	00 00 00 00 00 00 00 00 00 00 00 00 00 00 00 00 	0000000000000000
  0x6b450	00 00 00 00 78 e7 06 00 00 00 00 00 ff ff ff ff 	0000x00000000000
  0x6b460	00 00 00 00 18 00 00 00 10 e7 04 00 00 00 00 00 	0000000000000000
  0x6b470	00 00 00 00 00 00 00 00 00 00 00 00 a8 e7 06 00 	0000000000000000
  0x6b480	00 00 00 00 ff ff ff ff 00 00 00 00 18 00 00 00 	0000000000000000
  0x6b490	88 e7 04 00 00 00 00 00 00 00 00 00 00 00 00 00 	0000000000000000
  0x6b4a0	00 00 00 00 c8 80 00 00 00 00 00 00 c0 b4 06 00 	0000000000000000
  0x6b4b0	00 00 00 00 00 00 00 00 00 00 00 00 00 00 00 00 	0000000000000000
  0x6b4c0	02 00 00 00 d8 b4 06 00 f0 b1 06 00 00 00 00 00 	0000000000000000
  0x6b4d0	00 00 00 00 00 00 00 00 00 00 00 00 d0 e7 06 00 	0000000000000000
  0x6b4e0	00 00 00 00 ff ff ff ff 00 00 00 00 18 00 00 00 	0000000000000000
  0x6b4f0	4c e7 04 00 00 00 00 00 00 00 00 00 00 00 00 00 	L000000000000000
  0x6b500	fe 74 04 00 e4 75 04 00 38 75 04 00 6f 75 04 00 	0t000u008u00ou00
  0x6b510	ea 75 04 00 cf 75 04 00 c0 75 04 00 40 75 04 00 	0u000u000u00@u00
  0x6b520	dd 75 04 00 a5 75 04 00 96 75 04 00 20 75 04 00 	0u000u000u00 u00
  0x6b530	b3 75 04 00 80 75 04 00 58 75 04 00 00 75 04 00 	0u000u00Xu000u00
  0x6b540	c6 77 04 00 bf 77 04 00 b1 77 04 00 a3 77 04 00 	0w000w000w000w00
  0x6b550	95 77 04 00 81 77 04 00 6d 77 04 00 59 77 04 00 	0w000w00mw00Yw00
  0x6b560	45 77 04 00 f6 78 04 00 ef 78 04 00 e1 78 04 00 	Ew000x000x000x00
  0x6b570	d3 78 04 00 c5 78 04 00 b1 78 04 00 9d 78 04 00 	0x000x000x000x00
  0x6b580	89 78 04 00 75 78 04 00 52 7a 04 00 4b 7a 04 00 	0x00ux00Rz00Kz00
  0x6b590	3d 7a 04 00 2f 7a 04 00 21 7a 04 00 13 7a 04 00 	=z00/z00!z000z00
  0x6b5a0	05 7a 04 00 f7 79 04 00 e9 79 04 00 00 00 00 00 	0z000y000y000000
  0x6b5b0	be 7c 04 00 bb 7c 04 00 e7 7c 04 00 b7 7c 04 00 	0|000|000|000|00
  0x6b5c0	c4 7c 04 00 d4 7c 04 00 e4 7c 04 00 b4 7c 04 00 	0|000|000|000|00
  0x6b5d0	ec 7c 04 00 c8 7c 04 00 00 7d 04 00 f0 7c 04 00 	0|000|000}000|00
  0x6b5e0	c0 7c 04 00 d0 7c 04 00 e0 7c 04 00 b0 7c 04 00 	0|000|000|000|00
  0x6b5f0	08 7d 04 00 00 00 00 00 28 b7 06 00 00 00 00 00 	0}000000(0000000
  0x6b600	00 00 00 00 12 c1 06 00 08 57 05 00 b8 b8 06 00 	000000000W000000
  0x6b610	00 00 00 00 00 00 00 00 ae c3 06 00 98 58 05 00 	0000000000000X00
  0x6b620	d8 bd 06 00 00 00 00 00 00 00 00 00 a4 c5 06 00 	0000000000000000
  0x6b630	b8 5d 05 00 a0 bd 06 00 00 00 00 00 00 00 00 00 	0]00000000000000
  0x6b640	1a c6 06 00 80 5d 05 00 f8 bf 06 00 00 00 00 00 	00000]0000000000
  0x6b650	00 00 00 00 70 c6 06 00 d8 5f 05 00 18 bd 06 00 	0000p0000_000000
  0x6b660	00 00 00 00 00 00 00 00 7a c6 06 00 f8 5c 05 00 	00000000z0000000
  0x6b670	68 bd 06 00 00 00 00 00 00 00 00 00 9a c6 06 00 	h000000000000000
  0x6b680	48 5d 05 00 78 bd 06 00 00 00 00 00 00 00 00 00 	H]00x00000000000
  0x6b690	20 c7 06 00 58 5d 05 00 b8 bf 06 00 00 00 00 00 	 000X]0000000000
  0x6b6a0	00 00 00 00 ba c7 06 00 98 5f 05 00 a8 b8 06 00 	000000000_000000
  0x6b6b0	00 00 00 00 00 00 00 00 34 d1 06 00 88 58 05 00 	0000000040000X00
  0x6b6c0	58 b8 06 00 00 00 00 00 00 00 00 00 d0 d2 06 00 	X000000000000000
  0x6b6d0	38 58 05 00 98 bf 06 00 00 00 00 00 00 00 00 00 	8X00000000000000
  0x6b6e0	82 d3 06 00 78 5f 05 00 70 b8 06 00 00 00 00 00 	0000x_00p0000000
  0x6b6f0	00 00 00 00 1e d4 06 00 50 58 05 00 80 bf 06 00 	00000000PX000000
  0x6b700	00 00 00 00 00 00 00 00 5e d4 06 00 60 5f 05 00 	00000000^000`_00
  0x6b710	00 00 00 00 00 00 00 00 00 00 00 00 00 00 00 00 	0000000000000000
  0x6b720	00 00 00 00 00 00 00 00 38 c0 06 00 00 00 00 00 	0000000080000000
  0x6b730	50 c0 06 00 00 00 00 00 66 c0 06 00 00 00 00 00 	P0000000f0000000
  0x6b740	7c c0 06 00 00 00 00 00 92 c0 06 00 00 00 00 00 	|000000000000000
  0x6b750	a2 c0 06 00 00 00 00 00 be c0 06 00 00 00 00 00 	0000000000000000
  0x6b760	cc c0 06 00 00 00 00 00 e6 c0 06 00 00 00 00 00 	0000000000000000
  0x6b770	fc c0 06 00 00 00 00 00 da c9 06 00 00 00 00 00 	0000000000000000
  0x6b780	d0 c9 06 00 00 00 00 00 b6 c9 06 00 00 00 00 00 	0000000000000000
  0x6b790	ac c9 06 00 00 00 00 00 94 c9 06 00 00 00 00 00 	0000000000000000
  0x6b7a0	7a c9 06 00 00 00 00 00 6a c9 06 00 00 00 00 00 	z0000000j0000000
  0x6b7b0	54 c9 06 00 00 00 00 00 3e c9 06 00 00 00 00 00 	T0000000>0000000
  0x6b7c0	2c c9 06 00 00 00 00 00 1c c9 06 00 00 00 00 00 	,000000000000000
  0x6b7d0	06 c9 06 00 00 00 00 00 f6 c8 06 00 00 00 00 00 	0000000000000000
  0x6b7e0	e6 c8 06 00 00 00 00 00 d4 c8 06 00 00 00 00 00 	0000000000000000
  0x6b7f0	c2 c8 06 00 00 00 00 00 b2 c8 06 00 00 00 00 00 	0000000000000000
  0x6b800	a0 c8 06 00 00 00 00 00 8c c8 06 00 00 00 00 00 	0000000000000000
  0x6b810	78 c8 06 00 00 00 00 00 66 c8 06 00 00 00 00 00 	x0000000f0000000
  0x6b820	56 c8 06 00 00 00 00 00 44 c8 06 00 00 00 00 00 	V0000000D0000000
  0x6b830	2c c8 06 00 00 00 00 00 14 c8 06 00 00 00 00 00 	,000000000000000
  0x6b840	fc c7 06 00 00 00 00 00 c4 c7 06 00 00 00 00 00 	0000000000000000
  0x6b850	00 00 00 00 00 00 00 00 be d2 06 00 00 00 00 00 	0000000000000000
  0x6b860	a6 d2 06 00 00 00 00 00 00 00 00 00 00 00 00 00 	0000000000000000
  0x6b870	b4 d3 06 00 00 00 00 00 0a d4 06 00 00 00 00 00 	0000000000000000
  0x6b880	f6 d3 06 00 00 00 00 00 e6 d3 06 00 00 00 00 00 	0000000000000000
  0x6b890	c8 d3 06 00 00 00 00 00 90 d3 06 00 00 00 00 00 	0000000000000000
  0x6b8a0	00 00 00 00 00 00 00 00 24 d1 06 00 00 00 00 00 	00000000$0000000
  0x6b8b0	00 00 00 00 00 00 00 00 06 d1 06 00 00 00 00 00 	0000000000000000
  0x6b8c0	ec d0 06 00 00 00 00 00 d4 d0 06 00 00 00 00 00 	0000000000000000
  0x6b8d0	be d0 06 00 00 00 00 00 a0 d0 06 00 00 00 00 00 	0000000000000000
  0x6b8e0	16 d1 06 00 00 00 00 00 6a d4 06 00 00 00 00 00 	00000000j0000000
  0x6b8f0	7a d4 06 00 00 00 00 00 88 d4 06 00 00 00 00 00 	z000000000000000
  0x6b900	a4 d4 06 00 00 00 00 00 b8 d4 06 00 00 00 00 00 	0000000000000000
  0x6b910	ca d4 06 00 00 00 00 00 a0 c3 06 00 00 00 00 00 	0000000000000000
  0x6b920	8e c3 06 00 00 00 00 00 82 c3 06 00 00 00 00 00 	0000000000000000
  0x6b930	6c c3 06 00 00 00 00 00 56 c3 06 00 00 00 00 00 	l0000000V0000000
  0x6b940	4a c3 06 00 00 00 00 00 3a c3 06 00 00 00 00 00 	J0000000:0000000
  0x6b950	26 c3 06 00 00 00 00 00 16 c3 06 00 00 00 00 00 	&000000000000000
  0x6b960	06 c3 06 00 00 00 00 00 ee c2 06 00 00 00 00 00 	0000000000000000
  0x6b970	e0 c2 06 00 00 00 00 00 d8 c2 06 00 00 00 00 00 	0000000000000000
  0x6b980	c8 c2 06 00 00 00 00 00 ba c2 06 00 00 00 00 00 	0000000000000000
  0x6b990	ac c2 06 00 00 00 00 00 9c c2 06 00 00 00 00 00 	0000000000000000
  0x6b9a0	88 c2 06 00 00 00 00 00 6e c2 06 00 00 00 00 00 	00000000n0000000
  0x6b9b0	5c c2 06 00 00 00 00 00 42 c2 06 00 00 00 00 00 	00000000B0000000
  0x6b9c0	2a c2 06 00 00 00 00 00 1a c2 06 00 00 00 00 00 	*000000000000000
  0x6b9d0	04 c2 06 00 00 00 00 00 f4 c1 06 00 00 00 00 00 	0000000000000000
  0x6b9e0	e6 c1 06 00 00 00 00 00 d2 c1 06 00 00 00 00 00 	0000000000000000
  0x6b9f0	be c1 06 00 00 00 00 00 b0 c1 06 00 00 00 00 00 	0000000000000000
  0x6ba00	a4 c1 06 00 00 00 00 00 92 c1 06 00 00 00 00 00 	0000000000000000
  0x6ba10	80 c1 06 00 00 00 00 00 6a c1 06 00 00 00 00 00 	00000000j0000000
  0x6ba20	4e c1 06 00 00 00 00 00 30 c1 06 00 00 00 00 00 	N000000000000000
  0x6ba30	20 c1 06 00 00 00 00 00 f6 c9 06 00 00 00 00 00 	 000000000000000
  0x6ba40	06 ca 06 00 00 00 00 00 1a ca 06 00 00 00 00 00 	0000000000000000
  0x6ba50	36 ca 06 00 00 00 00 00 54 ca 06 00 00 00 00 00 	60000000T0000000
  0x6ba60	68 ca 06 00 00 00 00 00 7c ca 06 00 00 00 00 00 	h0000000|0000000
  0x6ba70	98 ca 06 00 00 00 00 00 a4 ca 06 00 00 00 00 00 	0000000000000000
  0x6ba80	b0 ca 06 00 00 00 00 00 c8 ca 06 00 00 00 00 00 	0000000000000000
  0x6ba90	e0 ca 06 00 00 00 00 00 f8 ca 06 00 00 00 00 00 	0000000000000000
  0x6baa0	0c cb 06 00 00 00 00 00 22 cb 06 00 00 00 00 00 	00000000"0000000
  0x6bab0	32 cb 06 00 00 00 00 00 40 cb 06 00 00 00 00 00 	20000000@0000000
  0x6bac0	52 cb 06 00 00 00 00 00 62 cb 06 00 00 00 00 00 	R0000000b0000000
  0x6bad0	6e cb 06 00 00 00 00 00 7c cb 06 00 00 00 00 00 	n0000000|0000000
  0x6bae0	8a cb 06 00 00 00 00 00 94 cb 06 00 00 00 00 00 	0000000000000000
  0x6baf0	bc cb 06 00 00 00 00 00 ce cb 06 00 00 00 00 00 	0000000000000000
  0x6bb00	e0 cb 06 00 00 00 00 00 f2 cb 06 00 00 00 00 00 	0000000000000000
  0x6bb10	02 cc 06 00 00 00 00 00 10 cc 06 00 00 00 00 00 	0000000000000000
  0x6bb20	26 cc 06 00 00 00 00 00 38 cc 06 00 00 00 00 00 	&000000080000000
  0x6bb30	4a cc 06 00 00 00 00 00 54 cc 06 00 00 00 00 00 	J0000000T0000000
  0x6bb40	60 cc 06 00 00 00 00 00 6c cc 06 00 00 00 00 00 	`0000000l0000000
  0x6bb50	82 cc 06 00 00 00 00 00 98 cc 06 00 00 00 00 00 	0000000000000000
  0x6bb60	a8 cc 06 00 00 00 00 00 bc cc 06 00 00 00 00 00 	0000000000000000
  0x6bb70	ce cc 06 00 00 00 00 00 de cc 06 00 00 00 00 00 	0000000000000000
  0x6bb80	f8 cc 06 00 00 00 00 00 0c cd 06 00 00 00 00 00 	0000000000000000
  0x6bb90	22 cd 06 00 00 00 00 00 34 cd 06 00 00 00 00 00 	"000000040000000
  0x6bba0	4a cd 06 00 00 00 00 00 5a cd 06 00 00 00 00 00 	J0000000Z0000000
  0x6bbb0	70 cd 06 00 00 00 00 00 7c cd 06 00 00 00 00 00 	p0000000|0000000
  0x6bbc0	8a cd 06 00 00 00 00 00 9c cd 06 00 00 00 00 00 	0000000000000000
  0x6bbd0	ac cd 06 00 00 00 00 00 c6 cd 06 00 00 00 00 00 	0000000000000000
  0x6bbe0	e0 cd 06 00 00 00 00 00 fa cd 06 00 00 00 00 00 	0000000000000000
  0x6bbf0	14 ce 06 00 00 00 00 00 2a ce 06 00 00 00 00 00 	00000000*0000000
  0x6bc00	3a ce 06 00 00 00 00 00 58 ce 06 00 00 00 00 00 	:0000000X0000000
  0x6bc10	6a ce 06 00 00 00 00 00 76 ce 06 00 00 00 00 00 	j0000000v0000000
  0x6bc20	82 ce 06 00 00 00 00 00 92 ce 06 00 00 00 00 00 	0000000000000000
  0x6bc30	a2 ce 06 00 00 00 00 00 bc ce 06 00 00 00 00 00 	0000000000000000
  0x6bc40	ca ce 06 00 00 00 00 00 e0 ce 06 00 00 00 00 00 	0000000000000000
  0x6bc50	f4 ce 06 00 00 00 00 00 04 cf 06 00 00 00 00 00 	0000000000000000
  0x6bc60	14 cf 06 00 00 00 00 00 24 cf 06 00 00 00 00 00 	00000000$0000000
  0x6bc70	36 cf 06 00 00 00 00 00 42 cf 06 00 00 00 00 00 	60000000B0000000
  0x6bc80	50 cf 06 00 00 00 00 00 62 cf 06 00 00 00 00 00 	P0000000b0000000
  0x6bc90	76 cf 06 00 00 00 00 00 88 cf 06 00 00 00 00 00 	v000000000000000
  0x6bca0	9c cf 06 00 00 00 00 00 ac cf 06 00 00 00 00 00 	0000000000000000
  0x6bcb0	c8 cf 06 00 00 00 00 00 de cf 06 00 00 00 00 00 	0000000000000000
  0x6bcc0	f4 cf 06 00 00 00 00 00 04 d0 06 00 00 00 00 00 	0000000000000000
  0x6bcd0	12 d0 06 00 00 00 00 00 26 d0 06 00 00 00 00 00 	00000000&0000000
  0x6bce0	3c d0 06 00 00 00 00 00 52 d0 06 00 00 00 00 00 	<0000000R0000000
  0x6bcf0	68 d0 06 00 00 00 00 00 7a d0 06 00 00 00 00 00 	h0000000z0000000
  0x6bd00	90 d0 06 00 00 00 00 00 dc d4 06 00 00 00 00 00 	0000000000000000
  0x6bd10	00 00 00 00 00 00 00 00 08 00 00 00 00 00 00 80 	0000000000000000
  0x6bd20	04 00 00 00 00 00 00 80 07 00 00 00 00 00 00 80 	0000000000000000
  0x6bd30	02 00 00 00 00 00 00 80 06 00 00 00 00 00 00 80 	0000000000000000
  0x6bd40	09 00 00 00 00 00 00 80 14 00 00 00 00 00 00 80 	0000000000000000
  0x6bd50	13 00 00 00 00 00 00 80 19 00 00 00 00 00 00 80 	0000000000000000
  0x6bd60	00 00 00 00 00 00 00 00 88 c6 06 00 00 00 00 00 	0000000000000000
  0x6bd70	00 00 00 00 00 00 00 00 a6 c6 06 00 00 00 00 00 	0000000000000000
  0x6bd80	dc c6 06 00 00 00 00 00 00 c7 06 00 00 00 00 00 	0000000000000000
  0x6bd90	be c6 06 00 00 00 00 00 00 00 00 00 00 00 00 00 	0000000000000000
  0x6bda0	de d2 06 00 00 00 00 00 b0 c5 06 00 00 00 00 00 	0000000000000000
  0x6bdb0	c2 c5 06 00 00 00 00 00 da c5 06 00 00 00 00 00 	0000000000000000
  0x6bdc0	f0 c5 06 00 00 00 00 00 06 c6 06 00 00 00 00 00 	0000000000000000
  0x6bdd0	00 00 00 00 00 00 00 00 04 c4 06 00 00 00 00 00 	0000000000000000
  0x6bde0	60 c4 06 00 00 00 00 00 52 c4 06 00 00 00 00 00 	`0000000R0000000
  0x6bdf0	40 c4 06 00 00 00 00 00 30 c4 06 00 00 00 00 00 	@000000000000000
  0x6be00	14 c4 06 00 00 00 00 00 f8 c3 06 00 00 00 00 00 	0000000000000000
  0x6be10	92 c5 06 00 00 00 00 00 80 c5 06 00 00 00 00 00 	0000000000000000
  0x6be20	70 c5 06 00 00 00 00 00 5c c5 06 00 00 00 00 00 	p000000000000000
  0x6be30	48 c5 06 00 00 00 00 00 ec c3 06 00 00 00 00 00 	H000000000000000
  0x6be40	28 c5 06 00 00 00 00 00 14 c5 06 00 00 00 00 00 	(000000000000000
  0x6be50	02 c5 06 00 00 00 00 00 22 c4 06 00 00 00 00 00 	00000000"0000000
  0x6be60	dc c4 06 00 00 00 00 00 ca c4 06 00 00 00 00 00 	0000000000000000
  0x6be70	ba c4 06 00 00 00 00 00 a6 c4 06 00 00 00 00 00 	0000000000000000
  0x6be80	3e d1 06 00 00 00 00 00 4c d1 06 00 00 00 00 00 	>0000000L0000000
  0x6be90	62 d1 06 00 00 00 00 00 74 d1 06 00 00 00 00 00 	b0000000t0000000
  0x6bea0	86 d1 06 00 00 00 00 00 98 d1 06 00 00 00 00 00 	0000000000000000
  0x6beb0	a4 d1 06 00 00 00 00 00 b2 d1 06 00 00 00 00 00 	0000000000000000
  0x6bec0	be d1 06 00 00 00 00 00 d4 d1 06 00 00 00 00 00 	0000000000000000
  0x6bed0	e8 d1 06 00 00 00 00 00 fa d1 06 00 00 00 00 00 	0000000000000000
  0x6bee0	06 d2 06 00 00 00 00 00 1e d2 06 00 00 00 00 00 	0000000000000000
  0x6bef0	30 d2 06 00 00 00 00 00 38 d2 06 00 00 00 00 00 	0000000080000000
  0x6bf00	44 d2 06 00 00 00 00 00 50 d2 06 00 00 00 00 00 	D0000000P0000000
  0x6bf10	5c d2 06 00 00 00 00 00 68 d2 06 00 00 00 00 00 	00000000h0000000
  0x6bf20	78 d2 06 00 00 00 00 00 86 d2 06 00 00 00 00 00 	x000000000000000
  0x6bf30	98 d2 06 00 00 00 00 00 92 c4 06 00 00 00 00 00 	0000000000000000
  0x6bf40	7e c4 06 00 00 00 00 00 6e c4 06 00 00 00 00 00 	~0000000n0000000
  0x6bf50	ee c4 06 00 00 00 00 00 dc c3 06 00 00 00 00 00 	0000000000000000
  0x6bf60	c8 c3 06 00 00 00 00 00 bc c3 06 00 00 00 00 00 	0000000000000000
  0x6bf70	3a c5 06 00 00 00 00 00 00 00 00 00 00 00 00 00 	:000000000000000
  0x6bf80	44 d4 06 00 00 00 00 00 2a d4 06 00 00 00 00 00 	D0000000*0000000
  0x6bf90	00 00 00 00 00 00 00 00 70 d3 06 00 00 00 00 00 	00000000p0000000
  0x6bfa0	2e d3 06 00 00 00 00 00 4e d3 06 00 00 00 00 00 	.0000000N0000000
  0x6bfb0	00 00 00 00 00 00 00 00 7e c7 06 00 00 00 00 00 	00000000~0000000
  0x6bfc0	70 c7 06 00 00 00 00 00 92 c7 06 00 00 00 00 00 	p000000000000000
  0x6bfd0	aa c7 06 00 00 00 00 00 2e c7 06 00 00 00 00 00 	00000000.0000000
  0x6bfe0	42 c7 06 00 00 00 00 00 5c c7 06 00 00 00 00 00 	B000000000000000
  0x6bff0	00 00 00 00 00 00 00 00 4a c6 06 00 00 00 00 00 	00000000J0000000
  0x6c000	3a c6 06 00 00 00 00 00 26 c6 06 00 00 00 00 00 	:0000000&0000000
  0x6c010	ee d2 06 00 00 00 00 00 00 d3 06 00 00 00 00 00 	0000000000000000
  0x6c020	1c d3 06 00 00 00 00 00 5c c6 06 00 00 00 00 00 	0000000000000000
  0x6c030	00 00 00 00 00 00 00 00 5e 01 47 65 74 54 72 61 	00000000^0GetTra
  0x6c040	63 65 4c 6f 67 67 65 72 48 61 6e 64 6c 65 00 00 	ceLoggerHandle00
  0x6c050	5d 01 47 65 74 54 72 61 63 65 45 6e 61 62 6c 65 	]0GetTraceEnable
  0x6c060	4c 65 76 65 6c 00 5c 01 47 65 74 54 72 61 63 65 	Level000GetTrace
  0x6c070	45 6e 61 62 6c 65 46 6c 61 67 73 00 ab 02 52 65 	EnableFlags000Re
  0x6c080	67 69 73 74 65 72 54 72 61 63 65 47 75 69 64 73 	gisterTraceGuids
  0x6c090	57 00 1e 03 54 72 61 63 65 4d 65 73 73 61 67 65 	W000TraceMessage
  0x6c0a0	00 00 80 01 49 6e 69 74 69 61 74 65 53 79 73 74 	0000InitiateSyst
  0x6c0b0	65 6d 53 68 75 74 64 6f 77 6e 45 78 57 00 51 02 	emShutdownExW0Q0
  0x6c0c0	52 65 67 43 6c 6f 73 65 4b 65 79 00 09 01 45 76 	RegCloseKey000Ev
  0x6c0d0	65 6e 74 41 63 74 69 76 69 74 79 49 64 43 6f 6e 	entActivityIdCon
  0x6c0e0	74 72 6f 6c 00 00 14 01 45 76 65 6e 74 57 72 69 	trol0000EventWri
  0x6c0f0	74 65 54 72 61 6e 73 66 65 72 00 00 65 00 43 6c 	teTransfer00e0Cl
  0x6c100	6f 73 65 53 65 72 76 69 63 65 48 61 6e 64 6c 65 	oseServiceHandle
  0x6c110	00 00 41 44 56 41 50 49 33 32 2e 64 6c 6c 00 00 	00ADVAPI32.dll00
  0x6c120	74 02 47 65 74 4c 61 73 74 45 72 72 6f 72 00 00 	t0GetLastError00
  0x6c130	f6 02 47 65 74 53 79 73 74 65 6d 44 65 66 61 75 	00GetSystemDefau
  0x6c140	6c 74 55 49 4c 61 6e 67 75 61 67 65 00 00 04 01 	ltUILanguage0000
  0x6c150	43 72 65 61 74 65 54 6f 6f 6c 68 65 6c 70 33 32 	CreateToolhelp32
  0x6c160	53 6e 61 70 73 68 6f 74 00 00 2b 02 47 65 74 43 	Snapshot00+0GetC
  0x6c170	75 72 72 65 6e 74 50 72 6f 63 65 73 73 49 64 00 	urrentProcessId0
  0x6c180	43 04 50 72 6f 63 65 73 73 33 32 46 69 72 73 74 	C0Process32First
  0x6c190	57 00 45 04 50 72 6f 63 65 73 73 33 32 4e 65 78 	W0E0Process32Nex
  0x6c1a0	74 57 00 00 87 01 46 69 6e 64 43 6c 6f 73 65 00 	tW0000FindClose0
  0x6c1b0	8e 00 43 6c 6f 73 65 48 61 6e 64 6c 65 00 8c 02 	00CloseHandle000
  0x6c1c0	47 65 74 4d 6f 64 75 6c 65 48 61 6e 64 6c 65 57 	GetModuleHandleW
  0x6c1d0	00 00 0c 03 47 65 74 54 65 6d 70 46 69 6c 65 4e 	0000GetTempFileN
  0x6c1e0	61 6d 65 57 00 00 20 01 44 65 6c 65 74 65 46 69 	ameW00 0DeleteFi
  0x6c1f0	6c 65 57 00 23 03 47 65 74 54 69 63 6b 43 6f 75 	leW0#0GetTickCou
  0x6c200	6e 74 00 00 3c 02 47 65 74 44 69 73 6b 46 72 65 	nt00<0GetDiskFre
  0x6c210	65 53 70 61 63 65 45 78 57 00 75 02 47 65 74 4c 	eSpaceExW0u0GetL
  0x6c220	6f 63 61 6c 54 69 6d 65 00 00 b2 05 53 79 73 74 	ocalTime0000Syst
  0x6c230	65 6d 54 69 6d 65 54 6f 46 69 6c 65 54 69 6d 65 	emTimeToFileTime
  0x6c240	00 00 e5 03 4c 6f 63 61 6c 46 69 6c 65 54 69 6d 	0000LocalFileTim
  0x6c250	65 54 6f 46 69 6c 65 54 69 6d 65 00 28 03 47 65 	eToFileTime0(0Ge
  0x6c260	74 54 69 6d 65 46 6f 72 6d 61 74 57 00 00 01 03 	tTimeFormatW0000
  0x6c270	47 65 74 53 79 73 74 65 6d 54 69 6d 65 41 73 46 	GetSystemTimeAsF
  0x6c280	69 6c 65 54 69 6d 65 00 7b 02 47 65 74 4c 6f 67 	ileTime0{0GetLog
  0x6c290	69 63 61 6c 44 72 69 76 65 73 00 00 43 02 47 65 	icalDrives00C0Ge
  0x6c2a0	74 44 72 69 76 65 54 79 70 65 57 00 4b 03 47 6c 	tDriveTypeW0K0Gl
  0x6c2b0	6f 62 61 6c 41 6c 6c 6f 63 00 56 03 47 6c 6f 62 	obalAlloc0V0Glob
  0x6c2c0	61 6c 4c 6f 63 6b 00 00 5d 03 47 6c 6f 62 61 6c 	alLock00]0Global
  0x6c2d0	55 6e 6c 6f 63 6b 00 00 a7 05 53 6c 65 65 70 00 	Unlock0000Sleep0
  0x6c2e0	bd 01 46 72 65 65 4c 69 62 72 61 72 79 00 fc 02 	00FreeLibrary000
  0x6c2f0	47 65 74 53 79 73 74 65 6d 50 6f 77 65 72 53 74 	GetSystemPowerSt
  0x6c300	61 74 75 73 00 00 af 05 53 75 73 70 65 6e 64 54 	atus0000SuspendT
  0x6c310	68 72 65 61 64 00 e7 04 52 65 73 75 6d 65 54 68 	hread000ResumeTh
  0x6c320	72 65 61 64 00 00 51 02 47 65 74 45 78 69 74 43 	read00Q0GetExitC
  0x6c330	6f 64 65 54 68 72 65 61 64 00 c7 00 43 72 65 61 	odeThread000Crea
  0x6c340	74 65 45 76 65 6e 74 57 00 00 3d 06 57 72 69 74 	teEventW00=0Writ
  0x6c350	65 46 69 6c 65 00 02 06 57 61 69 74 46 6f 72 53 	eFile000WaitForS
  0x6c360	69 6e 67 6c 65 4f 62 6a 65 63 74 00 ae 02 47 65 	ingleObject000Ge
  0x6c370	74 4f 76 65 72 6c 61 70 70 65 64 52 65 73 75 6c 	tOverlappedResul
  0x6c380	74 00 8c 04 52 65 61 64 46 69 6c 65 00 00 2b 01 	t000ReadFile00+0
  0x6c390	44 65 76 69 63 65 49 6f 43 6f 6e 74 72 6f 6c 00 	DeviceIoControl0
  0x6c3a0	d3 00 43 72 65 61 74 65 46 69 6c 65 57 00 4b 45 	00CreateFileW0KE
  0x6c3b0	52 4e 45 4c 33 32 2e 64 6c 6c 00 00 14 03 53 65 	RNEL32.dll0000Se
  0x6c3c0	6e 64 49 6e 70 75 74 00 46 01 47 65 74 44 65 73 	ndInput0F0GetDes
  0x6c3d0	6b 74 6f 70 57 69 6e 64 6f 77 00 00 ef 00 45 6e 	ktopWindow0000En
  0x6c3e0	61 62 6c 65 57 69 6e 64 6f 77 00 00 71 03 53 65 	ableWindow00q0Se
  0x6c3f0	74 54 69 6d 65 72 00 00 50 02 4b 69 6c 6c 54 69 	tTimer00P0KillTi
  0x6c400	6d 65 72 00 ad 02 50 6f 73 74 4d 65 73 73 61 67 	mer000PostMessag
  0x6c410	65 57 00 00 b1 00 44 65 73 74 72 6f 79 49 63 6f 	eW0000DestroyIco
  0x6c420	6e 00 5c 02 4c 6f 61 64 49 6d 61 67 65 57 00 00 	n000LoadImageW00
  0x6c430	f1 01 47 65 74 57 69 6e 64 6f 77 52 65 63 74 00 	00GetWindowRect0
  0x6c440	7e 02 4d 61 70 57 69 6e 64 6f 77 50 6f 69 6e 74 	~0MapWindowPoint
  0x6c450	73 00 95 03 53 68 6f 77 57 69 6e 64 6f 77 00 00 	s000ShowWindow00
  0x6c460	90 02 4d 6f 76 65 57 69 6e 64 6f 77 00 00 1a 03 	00MoveWindow0000
  0x6c470	53 65 6e 64 4d 65 73 73 61 67 65 57 00 00 e9 01 	SendMessageW0000
  0x6c480	47 65 74 57 69 6e 64 6f 77 4c 6f 6e 67 50 74 72 	GetWindowLongPtr
  0x6c490	57 00 7e 03 53 65 74 57 69 6e 64 6f 77 4c 6f 6e 	W0~0SetWindowLon
  0x6c4a0	67 50 74 72 57 00 bc 01 47 65 74 53 63 72 6f 6c 	gPtrW000GetScrol
  0x6c4b0	6c 42 61 72 49 6e 66 6f 00 00 9b 02 4f 70 65 6e 	lBarInfo0000Open
  0x6c4c0	43 6c 69 70 62 6f 61 72 64 00 e8 00 45 6d 70 74 	Clipboard000Empt
  0x6c4d0	79 43 6c 69 70 62 6f 61 72 64 00 00 4f 00 43 6c 	yClipboard00O0Cl
  0x6c4e0	6f 73 65 43 6c 69 70 62 6f 61 72 64 00 00 27 03 	oseClipboard00'0
  0x6c4f0	53 65 74 43 6c 69 70 62 6f 61 72 64 44 61 74 61 	SetClipboardData
  0x6c500	00 00 df 02 52 65 67 69 73 74 65 72 43 6c 61 73 	0000RegisterClas
  0x6c510	73 57 00 00 c0 03 55 6e 72 65 67 69 73 74 65 72 	sW0000Unregister
  0x6c520	43 6c 61 73 73 57 00 00 76 00 43 72 65 61 74 65 	ClassW00v0Create
  0x6c530	57 69 6e 64 6f 77 45 78 57 00 8a 01 47 65 74 4d 	WindowExW000GetM
  0x6c540	65 73 73 61 67 65 57 00 b5 03 54 72 61 6e 73 6c 	essageW000Transl
  0x6c550	61 74 65 4d 65 73 73 61 67 65 00 00 bd 00 44 69 	ateMessage0000Di
  0x6c560	73 70 61 74 63 68 4d 65 73 73 61 67 65 57 00 00 	spatchMessageW00
  0x6c570	b5 00 44 65 73 74 72 6f 79 57 69 6e 64 6f 77 00 	00DestroyWindow0
  0x6c580	ae 02 50 6f 73 74 51 75 69 74 4d 65 73 73 61 67 	00PostQuitMessag
  0x6c590	65 00 a7 00 44 65 66 57 69 6e 64 6f 77 50 72 6f 	e000DefWindowPro
  0x6c5a0	63 57 00 00 55 53 45 52 33 32 2e 64 6c 6c 00 00 	cW00USER32.dll00
  0x6c5b0	af 01 53 68 65 6c 6c 45 78 65 63 75 74 65 45 78 	00ShellExecuteEx
  0x6c5c0	57 00 64 01 53 48 47 65 74 50 61 74 68 46 72 6f 	W0d0SHGetPathFro
  0x6c5d0	6d 49 44 4c 69 73 74 57 00 00 4b 01 53 48 47 65 	mIDListW00K0SHGe
  0x6c5e0	74 46 6f 6c 64 65 72 4c 6f 63 61 74 69 6f 6e 00 	tFolderLocation0
  0x6c5f0	89 00 53 48 42 72 6f 77 73 65 46 6f 72 46 6f 6c 	00SHBrowseForFol
  0x6c600	64 65 72 57 00 00 bc 01 53 68 65 6c 6c 5f 4e 6f 	derW0000Shell_No
  0x6c610	74 69 66 79 49 63 6f 6e 57 00 53 48 45 4c 4c 33 	tifyIconW0SHELL3
  0x6c620	32 2e 64 6c 6c 00 2b 00 43 6f 43 72 65 61 74 65 	2.dll0+0CoCreate
  0x6c630	49 6e 73 74 61 6e 63 65 00 00 8c 00 43 6f 54 61 	Instance0000CoTa
  0x6c640	73 6b 4d 65 6d 46 72 65 65 00 91 00 43 6f 55 6e 	skMemFree000CoUn
  0x6c650	69 6e 69 74 69 61 6c 69 7a 65 00 00 87 00 43 6f 	initialize0000Co
  0x6c660	53 65 74 50 72 6f 78 79 42 6c 61 6e 6b 65 74 00 	SetProxyBlanket0
  0x6c670	6f 6c 65 33 32 2e 64 6c 6c 00 4f 4c 45 41 55 54 	ole32.dll0OLEAUT
  0x6c680	33 32 2e 64 6c 6c 00 00 23 02 55 75 69 64 46 72 	32.dll00#0UuidFr
  0x6c690	6f 6d 53 74 72 69 6e 67 57 00 52 50 43 52 54 34 	omStringW0RPCRT4
  0x6c6a0	2e 64 6c 6c 00 00 54 01 53 65 74 75 70 44 69 47 	.dll00T0SetupDiG
  0x6c6b0	65 74 43 6c 61 73 73 44 65 76 73 57 00 00 41 01 	etClassDevsW00A0
  0x6c6c0	53 65 74 75 70 44 69 45 6e 75 6d 44 65 76 69 63 	SetupDiEnumDevic
  0x6c6d0	65 49 6e 74 65 72 66 61 63 65 73 00 6c 01 53 65 	eInterfaces0l0Se
  0x6c6e0	74 75 70 44 69 47 65 74 44 65 76 69 63 65 49 6e 	tupDiGetDeviceIn
  0x6c6f0	74 65 72 66 61 63 65 44 65 74 61 69 6c 57 00 00 	terfaceDetailW00
  0x6c700	3d 01 53 65 74 75 70 44 69 44 65 73 74 72 6f 79 	=0SetupDiDestroy
  0x6c710	44 65 76 69 63 65 49 6e 66 6f 4c 69 73 74 00 00 	DeviceInfoList00
  0x6c720	53 45 54 55 50 41 50 49 2e 64 6c 6c 00 00 05 03 	SETUPAPI.dll0000
  0x6c730	52 74 6c 43 61 70 74 75 72 65 43 6f 6e 74 65 78 	RtlCaptureContex
  0x6c740	74 00 09 05 52 74 6c 4c 6f 6f 6b 75 70 46 75 6e 	t000RtlLookupFun
  0x6c750	63 74 69 6f 6e 45 6e 74 72 79 00 00 4e 06 52 74 	ctionEntry00N0Rt
  0x6c760	6c 56 69 72 74 75 61 6c 55 6e 77 69 6e 64 00 00 	lVirtualUnwind00
  0x6c770	34 06 52 74 6c 55 6e 77 69 6e 64 45 78 00 32 05 	40RtlUnwindEx020
  0x6c780	52 74 6c 50 63 54 6f 46 69 6c 65 48 65 61 64 65 	RtlPcToFileHeade
  0x6c790	72 00 1e 05 52 74 6c 4e 74 53 74 61 74 75 73 54 	r000RtlNtStatusT
  0x6c7a0	6f 44 6f 73 45 72 72 6f 72 00 6b 04 52 74 6c 47 	oDosError0k0RtlG
  0x6c7b0	65 74 56 65 72 73 69 6f 6e 00 6e 74 64 6c 6c 2e 	etVersion0ntdll.
  0x6c7c0	64 6c 6c 00 81 00 43 6f 6e 76 65 72 74 53 74 72 	dll000ConvertStr
  0x6c7d0	69 6e 67 53 65 63 75 72 69 74 79 44 65 73 63 72 	ingSecurityDescr
  0x6c7e0	69 70 74 6f 72 54 6f 53 65 63 75 72 69 74 79 44 	iptorToSecurityD
  0x6c7f0	65 73 63 72 69 70 74 6f 72 57 00 00 8b 00 43 72 	escriptorW0000Cr
  0x6c800	65 61 74 65 50 72 6f 63 65 73 73 41 73 55 73 65 	eateProcessAsUse
  0x6c810	72 57 00 00 9a 01 4c 6f 6f 6b 75 70 50 72 69 76 	rW0000LookupPriv
  0x6c820	69 6c 65 67 65 56 61 6c 75 65 57 00 1f 00 41 64 	ilegeValueW000Ad
  0x6c830	6a 75 73 74 54 6f 6b 65 6e 50 72 69 76 69 6c 65 	justTokenPrivile
  0x6c840	67 65 73 00 0e 01 45 76 65 6e 74 55 6e 72 65 67 	ges000EventUnreg
  0x6c850	69 73 74 65 72 00 0c 01 45 76 65 6e 74 52 65 67 	ister000EventReg
  0x6c860	69 73 74 65 72 00 10 02 4f 70 65 6e 54 68 72 65 	ister000OpenThre
  0x6c870	61 64 54 6f 6b 65 6e 00 0b 02 4f 70 65 6e 50 72 	adToken000OpenPr
  0x6c880	6f 63 65 73 73 54 6f 6b 65 6e 00 00 8f 02 52 65 	ocessToken0000Re
  0x6c890	67 51 75 65 72 79 56 61 6c 75 65 45 78 57 00 00 	gQueryValueExW00
  0x6c8a0	69 02 52 65 67 44 65 6c 65 74 65 56 61 6c 75 65 	i0RegDeleteValue
  0x6c8b0	57 00 82 02 52 65 67 4f 70 65 6e 4b 65 79 45 78 	W000RegOpenKeyEx
  0x6c8c0	57 00 9f 02 52 65 67 53 65 74 56 61 6c 75 65 45 	W000RegSetValueE
  0x6c8d0	78 57 00 00 5a 02 52 65 67 43 72 65 61 74 65 4b 	xW00Z0RegCreateK
  0x6c8e0	65 79 45 78 57 00 65 02 52 65 67 44 65 6c 65 74 	eyExW0e0RegDelet
  0x6c8f0	65 4b 65 79 57 00 0f 02 4f 70 65 6e 53 65 72 76 	eKeyW000OpenServ
  0x6c900	69 63 65 57 00 00 41 02 51 75 65 72 79 53 65 72 	iceW00A0QuerySer
  0x6c910	76 69 63 65 43 6f 6e 66 69 67 57 00 f1 02 53 74 	viceConfigW000St
  0x6c920	61 72 74 53 65 72 76 69 63 65 57 00 0d 02 4f 70 	artServiceW000Op
  0x6c930	65 6e 53 43 4d 61 6e 61 67 65 72 57 00 00 46 02 	enSCManagerW00F0
  0x6c940	51 75 65 72 79 53 65 72 76 69 63 65 53 74 61 74 	QueryServiceStat
  0x6c950	75 73 00 00 5b 01 47 65 74 54 6f 6b 65 6e 49 6e 	us00[0GetTokenIn
  0x6c960	66 6f 72 6d 61 74 69 6f 6e 00 36 01 47 65 74 4c 	formation060GetL
  0x6c970	65 6e 67 74 68 53 69 64 00 00 7b 00 43 6f 6e 76 	engthSid00{0Conv
  0x6c980	65 72 74 53 69 64 54 6f 53 74 72 69 6e 67 53 69 	ertSidToStringSi
  0x6c990	64 57 00 00 5f 00 43 68 65 63 6b 54 6f 6b 65 6e 	dW00_0CheckToken
  0x6c9a0	4d 65 6d 62 65 72 73 68 69 70 00 00 1f 01 46 72 	Membership0000Fr
  0x6c9b0	65 65 53 69 64 00 83 00 43 6f 6e 76 65 72 74 53 	eeSid000ConvertS
  0x6c9c0	74 72 69 6e 67 53 69 64 54 6f 53 69 64 57 00 00 	tringSidToSidW00
  0x6c9d0	85 00 43 6f 70 79 53 69 64 00 20 00 41 6c 6c 6f 	00CopySid0 0Allo
  0x6c9e0	63 61 74 65 41 6e 64 49 6e 69 74 69 61 6c 69 7a 	cateAndInitializ
  0x6c9f0	65 53 69 64 00 00 57 05 53 65 74 4c 61 73 74 45 	eSid00W0SetLastE
  0x6ca00	72 72 6f 72 00 00 97 03 49 73 44 65 62 75 67 67 	rror0000IsDebugg
  0x6ca10	65 72 50 72 65 73 65 6e 74 00 d8 05 55 6e 68 61 	erPresent000Unha
  0x6ca20	6e 64 6c 65 64 45 78 63 65 70 74 69 6f 6e 46 69 	ndledExceptionFi
  0x6ca30	6c 74 65 72 00 00 97 05 53 65 74 55 6e 68 61 6e 	lter0000SetUnhan
  0x6ca40	64 6c 65 64 45 78 63 65 70 74 69 6f 6e 46 69 6c 	dledExceptionFil
  0x6ca50	74 65 72 00 2a 02 47 65 74 43 75 72 72 65 6e 74 	ter0*0GetCurrent
  0x6ca60	50 72 6f 63 65 73 73 00 b6 05 54 65 72 6d 69 6e 	Process000Termin
  0x6ca70	61 74 65 50 72 6f 63 65 73 73 00 00 9e 03 49 73 	ateProcess0000Is
  0x6ca80	50 72 6f 63 65 73 73 6f 72 46 65 61 74 75 72 65 	ProcessorFeature
  0x6ca90	50 72 65 73 65 6e 74 00 67 03 48 65 61 70 46 72 	Present0g0HeapFr
  0x6caa0	65 65 00 00 63 03 48 65 61 70 41 6c 6c 6f 63 00 	ee00c0HeapAlloc0
  0x6cab0	41 01 45 6e 74 65 72 43 72 69 74 69 63 61 6c 53 	A0EnterCriticalS
  0x6cac0	65 63 74 69 6f 6e 00 00 d6 03 4c 65 61 76 65 43 	ection0000LeaveC
  0x6cad0	72 69 74 69 63 61 6c 53 65 63 74 69 6f 6e 00 00 	riticalSection00
  0x6cae0	1b 01 44 65 6c 65 74 65 43 72 69 74 69 63 61 6c 	00DeleteCritical
  0x6caf0	53 65 63 74 69 6f 6e 00 2e 02 47 65 74 43 75 72 	Section0.0GetCur
  0x6cb00	72 65 6e 74 54 68 72 65 61 64 00 00 2f 02 47 65 	rentThread00/0Ge
  0x6cb10	74 43 75 72 72 65 6e 74 54 68 72 65 61 64 49 64 	tCurrentThreadId
  0x6cb20	00 00 ea 02 47 65 74 53 74 64 48 61 6e 64 6c 65 	0000GetStdHandle
  0x6cb30	00 00 62 02 47 65 74 46 69 6c 65 54 79 70 65 00 	00b0GetFileType0
  0x6cb40	e8 02 47 65 74 53 74 61 72 74 75 70 49 6e 66 6f 	00GetStartupInfo
  0x6cb50	57 00 10 03 47 65 74 54 65 6d 70 50 61 74 68 57 	W000GetTempPathW
  0x6cb60	00 00 ac 01 46 6c 73 41 6c 6c 6f 63 00 00 ae 01 	0000FlsAlloc0000
  0x6cb70	46 6c 73 47 65 74 56 61 6c 75 65 00 af 01 46 6c 	FlsGetValue000Fl
  0x6cb80	73 53 65 74 56 61 6c 75 65 00 ad 01 46 6c 73 46 	sSetValue000FlsF
  0x6cb90	72 65 65 00 7d 03 49 6e 69 74 69 61 6c 69 7a 65 	ree0}0Initialize
  0x6cba0	43 72 69 74 69 63 61 6c 53 65 63 74 69 6f 6e 41 	CriticalSectionA
  0x6cbb0	6e 64 53 70 69 6e 43 6f 75 6e 74 00 c4 02 47 65 	ndSpinCount000Ge
  0x6cbc0	74 50 72 6f 63 41 64 64 72 65 73 73 00 00 dc 03 	tProcAddress0000
  0x6cbd0	4c 6f 61 64 4c 69 62 72 61 72 79 45 78 57 00 00 	LoadLibraryExW00
  0x6cbe0	a3 00 43 6f 6d 70 61 72 65 53 74 72 69 6e 67 57 	00CompareStringW
  0x6cbf0	00 00 ca 03 4c 43 4d 61 70 53 74 72 69 6e 67 57 	0000LCMapStringW
  0x6cc00	00 00 70 01 45 78 69 74 50 72 6f 63 65 73 73 00 	00p0ExitProcess0
  0x6cc10	8b 02 47 65 74 4d 6f 64 75 6c 65 48 61 6e 64 6c 	00GetModuleHandl
  0x6cc20	65 45 78 57 00 00 cb 02 47 65 74 50 72 6f 63 65 	eExW0000GetProce
  0x6cc30	73 73 48 65 61 70 00 00 a4 03 49 73 56 61 6c 69 	ssHeap0000IsVali
  0x6cc40	64 43 6f 64 65 50 61 67 65 00 c4 01 47 65 74 41 	dCodePage000GetA
  0x6cc50	43 50 00 00 ad 02 47 65 74 4f 45 4d 43 50 00 00 	CP0000GetOEMCP00
  0x6cc60	d3 01 47 65 74 43 50 49 6e 66 6f 00 29 06 57 69 	00GetCPInfo0)0Wi
  0x6cc70	64 65 43 68 61 72 54 6f 4d 75 6c 74 69 42 79 74 	deCharToMultiByt
  0x6cc80	65 00 08 04 4d 75 6c 74 69 42 79 74 65 54 6f 57 	e000MultiByteToW
  0x6cc90	69 64 65 43 68 61 72 00 60 02 47 65 74 46 69 6c 	ideChar0`0GetFil
  0x6cca0	65 53 69 7a 65 45 78 00 49 05 53 65 74 46 69 6c 	eSizeEx0I0SetFil
  0x6ccb0	65 50 6f 69 6e 74 65 72 45 78 00 00 ef 02 47 65 	ePointerEx0000Ge
  0x6ccc0	74 53 74 72 69 6e 67 54 79 70 65 57 00 00 72 05 	tStringTypeW00r0
  0x6ccd0	53 65 74 53 74 64 48 61 6e 64 6c 65 00 00 2a 03 	SetStdHandle00*0
  0x6cce0	47 65 74 54 69 6d 65 5a 6f 6e 65 49 6e 66 6f 72 	GetTimeZoneInfor
  0x6ccf0	6d 61 74 69 6f 6e 00 00 b1 01 46 6c 75 73 68 46 	mation0000FlushF
  0x6cd00	69 6c 65 42 75 66 66 65 72 73 00 00 12 02 47 65 	ileBuffers0000Ge
  0x6cd10	74 43 6f 6e 73 6f 6c 65 4f 75 74 70 75 74 43 50 	tConsoleOutputCP
  0x6cd20	00 00 0e 02 47 65 74 43 6f 6e 73 6f 6c 65 4d 6f 	0000GetConsoleMo
  0x6cd30	64 65 00 00 88 02 47 65 74 4d 6f 64 75 6c 65 46 	de0000GetModuleF
  0x6cd40	69 6c 65 4e 61 6d 65 57 00 00 89 04 52 65 61 64 	ileNameW0000Read
  0x6cd50	43 6f 6e 73 6f 6c 65 57 00 00 30 04 4f 75 74 70 	ConsoleW0000Outp
  0x6cd60	75 74 44 65 62 75 67 53 74 72 69 6e 67 57 00 00 	utDebugStringW00
  0x6cd70	6c 03 48 65 61 70 53 69 7a 65 00 00 6a 03 48 65 	l0HeapSize00j0He
  0x6cd80	61 70 52 65 41 6c 6c 6f 63 00 7b 04 52 61 69 73 	apReAlloc0{0Rais
  0x6cd90	65 45 78 63 65 70 74 69 6f 6e 00 00 3c 06 57 72 	eException00<0Wr
  0x6cda0	69 74 65 43 6f 6e 73 6f 6c 65 57 00 4b 02 47 65 	iteConsoleW0K0Ge
  0x6cdb0	74 45 6e 76 69 72 6f 6e 6d 65 6e 74 53 74 72 69 	tEnvironmentStri
  0x6cdc0	6e 67 73 57 00 00 bc 01 46 72 65 65 45 6e 76 69 	ngsW0000FreeEnvi
  0x6cdd0	72 6f 6e 6d 65 6e 74 53 74 72 69 6e 67 73 57 00 	ronmentStringsW0
  0x6cde0	3a 05 53 65 74 45 6e 76 69 72 6f 6e 6d 65 6e 74 	:0SetEnvironment
  0x6cdf0	56 61 72 69 61 62 6c 65 57 00 64 04 51 75 65 72 	VariableW0d0Quer
  0x6ce00	79 50 65 72 66 6f 72 6d 61 6e 63 65 43 6f 75 6e 	yPerformanceCoun
  0x6ce10	74 65 72 00 81 03 49 6e 69 74 69 61 6c 69 7a 65 	ter000Initialize
  0x6ce20	53 4c 69 73 74 48 65 61 64 00 3d 01 45 6e 63 6f 	SListHead0=0Enco
  0x6ce30	64 65 50 6f 69 6e 74 65 72 00 7e 03 49 6e 69 74 	dePointer0~0Init
  0x6ce40	69 61 6c 69 7a 65 43 72 69 74 69 63 61 6c 53 65 	ializeCriticalSe
  0x6ce50	63 74 69 6f 6e 45 78 00 db 05 55 6e 6d 61 70 56 	ctionEx000UnmapV
  0x6ce60	69 65 77 4f 66 46 69 6c 65 00 3c 05 53 65 74 45 	iewOfFile0<0SetE
  0x6ce70	76 65 6e 74 00 00 e8 03 4c 6f 63 61 6c 46 72 65 	vent0000LocalFre
  0x6ce80	65 00 3b 05 53 65 74 45 72 72 6f 72 4d 6f 64 65 	e0;0SetErrorMode
  0x6ce90	00 00 ff 02 47 65 74 53 79 73 74 65 6d 54 69 6d 	0000GetSystemTim
  0x6cea0	65 00 7b 01 46 69 6c 65 54 69 6d 65 54 6f 4c 6f 	e0{0FileTimeToLo
  0x6ceb0	63 61 6c 46 69 6c 65 54 69 6d 65 00 01 04 4d 6f 	calFileTime000Mo
  0x6cec0	76 65 46 69 6c 65 45 78 57 00 57 01 45 6e 75 6d 	veFileExW0W0Enum
  0x6ced0	52 65 73 6f 75 72 63 65 4e 61 6d 65 73 57 00 00 	ResourceNamesW00
  0x6cee0	d3 04 52 65 6d 6f 76 65 44 69 72 65 63 74 6f 72 	00RemoveDirector
  0x6cef0	79 57 00 00 a8 01 46 69 6e 64 52 65 73 6f 75 72 	yW0000FindResour
  0x6cf00	63 65 57 00 e0 03 4c 6f 61 64 52 65 73 6f 75 72 	ceW000LoadResour
  0x6cf10	63 65 00 00 f4 03 4c 6f 63 6b 52 65 73 6f 75 72 	ce0000LockResour
  0x6cf20	63 65 00 00 a6 05 53 69 7a 65 6f 66 52 65 73 6f 	ce0000SizeofReso
  0x6cf30	75 72 63 65 00 00 5e 06 6c 73 74 72 63 6d 70 41 	urce00^0lstrcmpA
  0x6cf40	00 00 e3 03 4c 6f 63 61 6c 41 6c 6c 6f 63 00 00 	0000LocalAlloc00
  0x6cf50	b9 01 46 6f 72 6d 61 74 4d 65 73 73 61 67 65 57 	00FormatMessageW
  0x6cf60	00 00 c2 00 43 72 65 61 74 65 44 69 72 65 63 74 	0000CreateDirect
  0x6cf70	6f 72 79 57 00 00 92 01 46 69 6e 64 46 69 72 73 	oryW0000FindFirs
  0x6cf80	74 46 69 6c 65 57 00 00 6d 02 47 65 74 46 75 6c 	tFileW00m0GetFul
  0x6cf90	6c 50 61 74 68 4e 61 6d 65 57 00 00 9e 01 46 69 	lPathNameW0000Fi
  0x6cfa0	6e 64 4e 65 78 74 46 69 6c 65 57 00 74 01 45 78 	ndNextFileW0t0Ex
  0x6cfb0	70 61 6e 64 45 6e 76 69 72 6f 6e 6d 65 6e 74 53 	pandEnvironmentS
  0x6cfc0	74 72 69 6e 67 73 57 00 59 02 47 65 74 46 69 6c 	tringsW0Y0GetFil
  0x6cfd0	65 41 74 74 72 69 62 75 74 65 73 57 00 00 43 05 	eAttributesW00C0
  0x6cfe0	53 65 74 46 69 6c 65 41 74 74 72 69 62 75 74 65 	SetFileAttribute
  0x6cff0	73 57 00 00 dd 03 4c 6f 61 64 4c 69 62 72 61 72 	sW0000LoadLibrar
  0x6d000	79 57 00 00 18 04 4f 70 65 6e 45 76 65 6e 74 57 	yW0000OpenEventW
  0x6d010	00 00 1c 04 4f 70 65 6e 46 69 6c 65 4d 61 70 70 	0000OpenFileMapp
  0x6d020	69 6e 67 57 00 00 f8 02 47 65 74 53 79 73 74 65 	ingW0000GetSyste
  0x6d030	6d 44 69 72 65 63 74 6f 72 79 57 00 99 02 47 65 	mDirectoryW000Ge
  0x6d040	74 4e 61 74 69 76 65 53 79 73 74 65 6d 49 6e 66 	tNativeSystemInf
  0x6d050	6f 00 6b 03 48 65 61 70 53 65 74 49 6e 66 6f 72 	o0k0HeapSetInfor
  0x6d060	6d 61 74 69 6f 6e 00 00 ee 00 43 72 65 61 74 65 	mation0000Create
  0x6d070	50 72 6f 63 65 73 73 57 00 00 d0 00 43 72 65 61 	ProcessW0000Crea
  0x6d080	74 65 46 69 6c 65 4d 61 70 70 69 6e 67 57 00 00 	teFileMappingW00
  0x6d090	f7 03 4d 61 70 56 69 65 77 4f 66 46 69 6c 65 00 	00MapViewOfFile0
  0x6d0a0	05 03 47 65 74 53 79 73 74 65 6d 57 69 6e 64 6f 	00GetSystemWindo
  0x6d0b0	77 73 44 69 72 65 63 74 6f 72 79 57 00 00 50 02 	wsDirectoryW00P0
  0x6d0c0	47 65 74 45 78 69 74 43 6f 64 65 50 72 6f 63 65 	GetExitCodeProce
  0x6d0d0	73 73 00 00 7c 01 46 69 6c 65 54 69 6d 65 54 6f 	ss00|0FileTimeTo
  0x6d0e0	53 79 73 74 65 6d 54 69 6d 65 00 00 00 06 57 61 	SystemTime0000Wa
  0x6d0f0	69 74 46 6f 72 4d 75 6c 74 69 70 6c 65 4f 62 6a 	itForMultipleObj
  0x6d100	65 63 74 73 00 00 14 01 44 65 63 6f 64 65 50 6f 	ects0000DecodePo
  0x6d110	69 6e 74 65 72 00 f6 05 56 69 72 74 75 61 6c 4c 	inter000VirtualL
  0x6d120	6f 63 6b 00 74 03 53 65 6c 65 63 74 4f 62 6a 65 	ock0t0SelectObje
  0x6d130	63 74 00 00 47 44 49 33 32 2e 64 6c 6c 00 8a 02 	ct00GDI32.dll000
  0x6d140	4d 65 73 73 61 67 65 42 6f 78 57 00 59 01 47 65 	MessageBoxW0Y0Ge
  0x6d150	74 46 6f 72 65 67 72 6f 75 6e 64 57 69 6e 64 6f 	tForegroundWindo
  0x6d160	77 00 ba 00 44 69 61 6c 6f 67 42 6f 78 50 61 72 	w000DialogBoxPar
  0x6d170	61 6d 57 00 37 03 53 65 74 44 6c 67 49 74 65 6d 	amW070SetDlgItem
  0x6d180	54 65 78 74 57 00 86 03 53 65 74 57 69 6e 64 6f 	TextW000SetWindo
  0x6d190	77 54 65 78 74 57 00 00 5a 02 4c 6f 61 64 49 63 	wTextW00Z0LoadIc
  0x6d1a0	6f 6e 57 00 4d 01 47 65 74 44 6c 67 49 74 65 6d 	onW0M0GetDlgItem
  0x6d1b0	00 00 f2 00 45 6e 64 44 69 61 6c 6f 67 00 11 03 	0000EndDialog000
  0x6d1c0	53 65 6e 64 44 6c 67 49 74 65 6d 4d 65 73 73 61 	SendDlgItemMessa
  0x6d1d0	67 65 57 00 47 00 43 68 65 63 6b 52 61 64 69 6f 	geW0G0CheckRadio
  0x6d1e0	42 75 74 74 6f 6e 00 00 42 00 43 68 65 63 6b 44 	Button00B0CheckD
  0x6d1f0	6c 67 42 75 74 74 6f 6e 00 00 5b 00 43 6f 70 79 	lgButton00[0Copy
  0x6d200	52 65 63 74 00 00 f7 01 47 65 74 57 69 6e 64 6f 	Rect0000GetWindo
  0x6d210	77 54 65 78 74 4c 65 6e 67 74 68 57 00 00 f8 01 	wTextLengthW0000
  0x6d220	47 65 74 57 69 6e 64 6f 77 54 65 78 74 57 00 00 	GetWindowTextW00
  0x6d230	42 01 47 65 74 44 43 00 de 00 44 72 61 77 54 65 	B0GetDC000DrawTe
  0x6d240	78 74 57 00 fe 02 52 65 6c 65 61 73 65 44 43 00 	xtW000ReleaseDC0
  0x6d250	91 01 47 65 74 50 61 72 65 6e 74 00 3a 03 53 65 	00GetParent0:0Se
  0x6d260	74 46 6f 63 75 73 00 00 60 03 53 65 74 52 65 63 	tFocus00`0SetRec
  0x6d270	74 45 6d 70 74 79 00 00 dd 00 44 72 61 77 54 65 	tEmpty0000DrawTe
  0x6d280	78 74 45 78 57 00 0b 03 53 63 72 65 65 6e 54 6f 	xtExW000ScreenTo
  0x6d290	43 6c 69 65 6e 74 00 00 69 01 47 65 74 4b 65 79 	Client00i0GetKey
  0x6d2a0	53 74 61 74 65 00 7c 00 49 6e 69 74 43 6f 6d 6d 	State0|0InitComm
  0x6d2b0	6f 6e 43 6f 6e 74 72 6f 6c 73 45 78 00 00 86 00 	onControlsEx0000
  0x6d2c0	50 72 6f 70 65 72 74 79 53 68 65 65 74 57 00 00 	PropertySheetW00
  0x6d2d0	43 4f 4d 43 54 4c 33 32 2e 64 6c 6c 00 00 b0 01 	COMCTL32.dll0000
  0x6d2e0	53 68 65 6c 6c 45 78 65 63 75 74 65 57 00 8b 00 	ShellExecuteW000
  0x6d2f0	43 6f 54 61 73 6b 4d 65 6d 41 6c 6c 6f 63 00 00 	CoTaskMemAlloc00
  0x6d300	98 00 43 6f 57 61 69 74 46 6f 72 4d 75 6c 74 69 	00CoWaitForMulti
  0x6d310	70 6c 65 48 61 6e 64 6c 65 73 00 00 61 00 43 6f 	pleHandles00a0Co
  0x6d320	49 6e 69 74 69 61 6c 69 7a 65 45 78 00 00 6d 00 	InitializeEx00m0
  0x6d330	57 54 48 65 6c 70 65 72 50 72 6f 76 44 61 74 61 	WTHelperProvData
  0x6d340	46 72 6f 6d 53 74 61 74 65 44 61 74 61 00 68 00 	FromStateData0h0
  0x6d350	57 54 48 65 6c 70 65 72 47 65 74 50 72 6f 76 53 	WTHelperGetProvS
  0x6d360	69 67 6e 65 72 46 72 6f 6d 43 68 61 69 6e 00 00 	ignerFromChain00
  0x6d370	90 00 57 69 6e 56 65 72 69 66 79 54 72 75 73 74 	00WinVerifyTrust
  0x6d380	00 00 57 49 4e 54 52 55 53 54 2e 64 6c 6c 00 00 	00WINTRUST.dll00
  0x6d390	76 00 43 65 72 74 56 65 72 69 66 79 43 65 72 74 	v0CertVerifyCert
  0x6d3a0	69 66 69 63 61 74 65 43 68 61 69 6e 50 6f 6c 69 	ificateChainPoli
  0x6d3b0	63 79 00 00 82 00 43 72 79 70 74 44 65 63 6f 64 	cy0000CryptDecod
  0x6d3c0	65 4f 62 6a 65 63 74 00 40 00 43 65 72 74 46 72 	eObject0@0CertFr
  0x6d3d0	65 65 43 65 72 74 69 66 69 63 61 74 65 43 6f 6e 	eeCertificateCon
  0x6d3e0	74 65 78 74 00 00 ae 00 43 72 79 70 74 4d 73 67 	text0000CryptMsg
  0x6d3f0	43 6c 6f 73 65 00 c5 00 43 72 79 70 74 51 75 65 	Close000CryptQue
  0x6d400	72 79 4f 62 6a 65 63 74 00 00 b5 00 43 72 79 70 	ryObject0000Cryp
  0x6d410	74 4d 73 67 47 65 74 50 61 72 61 6d 00 00 43 52 	tMsgGetParam00CR
  0x6d420	59 50 54 33 32 2e 64 6c 6c 00 0a 00 44 65 73 74 	YPT32.dll000Dest
  0x6d430	72 6f 79 45 6e 76 69 72 6f 6e 6d 65 6e 74 42 6c 	royEnvironmentBl
  0x6d440	6f 63 6b 00 03 00 43 72 65 61 74 65 45 6e 76 69 	ock000CreateEnvi
  0x6d450	72 6f 6e 6d 65 6e 74 42 6c 6f 63 6b 00 00 55 53 	ronmentBlock00US
  0x6d460	45 52 45 4e 56 2e 64 6c 6c 00 fb 00 43 72 65 61 	ERENV.dll000Crea
  0x6d470	74 65 54 68 72 65 61 64 00 00 71 01 45 78 69 74 	teThread00q0Exit
  0x6d480	54 68 72 65 61 64 00 00 be 01 46 72 65 65 4c 69 	Thread0000FreeLi
  0x6d490	62 72 61 72 79 41 6e 64 45 78 69 74 54 68 72 65 	braryAndExitThre
  0x6d4a0	61 64 00 00 8d 01 46 69 6e 64 46 69 72 73 74 46 	ad0000FindFirstF
  0x6d4b0	69 6c 65 45 78 57 00 00 e8 01 47 65 74 43 6f 6d 	ileExW0000GetCom
  0x6d4c0	6d 61 6e 64 4c 69 6e 65 41 00 e9 01 47 65 74 43 	mandLineA000GetC
  0x6d4d0	6f 6d 6d 61 6e 64 4c 69 6e 65 57 00 36 05 53 65 	ommandLineW060Se
  0x6d4e0	74 45 6e 64 4f 66 46 69 6c 65 00 00 00 00 00 00 	tEndOfFile000000
  0x6d4f0	00 00 00 00 00 00 00 00 00 00 00 00 00 00 00 00 	0000000000000000
  0x6d500	00 00 00 00 00 00 00 00 00 00 00 00 00 00 00 00 	0000000000000000
  0x6d510	00 00 00 00 00 00 00 00 00 00 00 00 00 00 00 00 	0000000000000000
  0x6d520	00 00 00 00 00 00 00 00 00 00 00 00 00 00 00 00 	0000000000000000
  0x6d530	00 00 00 00 00 00 00 00 00 00 00 00 00 00 00 00 	0000000000000000
  0x6d540	00 00 00 00 00 00 00 00 00 00 00 00 00 00 00 00 	0000000000000000
  0x6d550	00 00 00 00 00 00 00 00 00 00 00 00 00 00 00 00 	0000000000000000
  0x6d560	00 00 00 00 00 00 00 00 00 00 00 00 00 00 00 00 	0000000000000000
  0x6d570	00 00 00 00 00 00 00 00 00 00 00 00 00 00 00 00 	0000000000000000
  0x6d580	00 00 00 00 00 00 00 00 00 00 00 00 00 00 00 00 	0000000000000000
  0x6d590	00 00 00 00 00 00 00 00 00 00 00 00 00 00 00 00 	0000000000000000
  0x6d5a0	00 00 00 00 00 00 00 00 00 00 00 00 00 00 00 00 	0000000000000000
  0x6d5b0	00 00 00 00 00 00 00 00 00 00 00 00 00 00 00 00 	0000000000000000
  0x6d5c0	00 00 00 00 00 00 00 00 00 00 00 00 00 00 00 00 	0000000000000000
  0x6d5d0	00 00 00 00 00 00 00 00 00 00 00 00 00 00 00 00 	0000000000000000
  0x6d5e0	00 00 00 00 00 00 00 00 00 00 00 00 00 00 00 00 	0000000000000000
  0x6d5f0	00 00 00 00 00 00 00 00 00 00 00 00 00 00 00 00 	0000000000000000
  0x6d600	00 00 00 00 00 00 00 00 00 00 00 00 00 00 00 00 	0000000000000000
  0x6d610	00 00 00 00 00 00 00 00 00 00 00 00 00 00 00 00 	0000000000000000
  0x6d620	00 00 00 00 00 00 00 00 00 00 00 00 00 00 00 00 	0000000000000000
  0x6d630	00 00 00 00 00 00 00 00 00 00 00 00 00 00 00 00 	0000000000000000
  0x6d640	00 00 00 00 00 00 00 00 00 00 00 00 00 00 00 00 	0000000000000000
  0x6d650	00 00 00 00 00 00 00 00 00 00 00 00 00 00 00 00 	0000000000000000
  0x6d660	00 00 00 00 00 00 00 00 00 00 00 00 00 00 00 00 	0000000000000000
  0x6d670	00 00 00 00 00 00 00 00 00 00 00 00 00 00 00 00 	0000000000000000
  0x6d680	00 00 00 00 00 00 00 00 00 00 00 00 00 00 00 00 	0000000000000000
  0x6d690	00 00 00 00 00 00 00 00 00 00 00 00 00 00 00 00 	0000000000000000
  0x6d6a0	00 00 00 00 00 00 00 00 00 00 00 00 00 00 00 00 	0000000000000000
  0x6d6b0	00 00 00 00 00 00 00 00 00 00 00 00 00 00 00 00 	0000000000000000
  0x6d6c0	00 00 00 00 00 00 00 00 00 00 00 00 00 00 00 00 	0000000000000000
  0x6d6d0	00 00 00 00 00 00 00 00 00 00 00 00 00 00 00 00 	0000000000000000
  0x6d6e0	00 00 00 00 00 00 00 00 00 00 00 00 00 00 00 00 	0000000000000000
  0x6d6f0	00 00 00 00 00 00 00 00 00 00 00 00 00 00 00 00 	0000000000000000
  0x6d700	00 00 00 00 00 00 00 00 00 00 00 00 00 00 00 00 	0000000000000000
  0x6d710	00 00 00 00 00 00 00 00 00 00 00 00 00 00 00 00 	0000000000000000
  0x6d720	00 00 00 00 00 00 00 00 00 00 00 00 00 00 00 00 	0000000000000000
  0x6d730	00 00 00 00 00 00 00 00 00 00 00 00 00 00 00 00 	0000000000000000
  0x6d740	00 00 00 00 00 00 00 00 00 00 00 00 00 00 00 00 	0000000000000000
  0x6d750	00 00 00 00 00 00 00 00 00 00 00 00 00 00 00 00 	0000000000000000
  0x6d760	00 00 00 00 00 00 00 00 00 00 00 00 00 00 00 00 	0000000000000000
  0x6d770	00 00 00 00 00 00 00 00 00 00 00 00 00 00 00 00 	0000000000000000
  0x6d780	00 00 00 00 00 00 00 00 00 00 00 00 00 00 00 00 	0000000000000000
  0x6d790	00 00 00 00 00 00 00 00 00 00 00 00 00 00 00 00 	0000000000000000
  0x6d7a0	00 00 00 00 00 00 00 00 00 00 00 00 00 00 00 00 	0000000000000000
  0x6d7b0	00 00 00 00 00 00 00 00 00 00 00 00 00 00 00 00 	0000000000000000
  0x6d7c0	00 00 00 00 00 00 00 00 00 00 00 00 00 00 00 00 	0000000000000000
  0x6d7d0	00 00 00 00 00 00 00 00 00 00 00 00 00 00 00 00 	0000000000000000
  0x6d7e0	00 00 00 00 00 00 00 00 00 00 00 00 00 00 00 00 	0000000000000000
  0x6d7f0	00 00 00 00 00 00 00 00 00 00 00 00 00 00 00 00 	0000000000000000
  0x6d800	00 00 00 00 00 00 00 00 00 00 00 00 00 00 00 00 	0000000000000000
  0x6d810	00 00 00 00 00 00 00 00 00 00 00 00 00 00 00 00 	0000000000000000
  0x6d820	00 00 00 00 00 00 00 00 00 00 00 00 00 00 00 00 	0000000000000000
  0x6d830	00 00 00 00 00 00 00 00 00 00 00 00 00 00 00 00 	0000000000000000
  0x6d840	00 00 00 00 00 00 00 00 00 00 00 00 00 00 00 00 	0000000000000000
  0x6d850	00 00 00 00 00 00 00 00 00 00 00 00 00 00 00 00 	0000000000000000
  0x6d860	00 00 00 00 00 00 00 00 00 00 00 00 00 00 00 00 	0000000000000000
  0x6d870	00 00 00 00 00 00 00 00 00 00 00 00 00 00 00 00 	0000000000000000
  0x6d880	00 00 00 00 00 00 00 00 00 00 00 00 00 00 00 00 	0000000000000000
  0x6d890	00 00 00 00 00 00 00 00 00 00 00 00 00 00 00 00 	0000000000000000
  0x6d8a0	00 00 00 00 00 00 00 00 00 00 00 00 00 00 00 00 	0000000000000000
  0x6d8b0	00 00 00 00 00 00 00 00 00 00 00 00 00 00 00 00 	0000000000000000
  0x6d8c0	00 00 00 00 00 00 00 00 00 00 00 00 00 00 00 00 	0000000000000000
  0x6d8d0	00 00 00 00 00 00 00 00 00 00 00 00 00 00 00 00 	0000000000000000
  0x6d8e0	00 00 00 00 00 00 00 00 00 00 00 00 00 00 00 00 	0000000000000000
  0x6d8f0	00 00 00 00 00 00 00 00 00 00 00 00 00 00 00 00 	0000000000000000
  0x6d900	00 00 00 00 00 00 00 00 00 00 00 00 00 00 00 00 	0000000000000000
  0x6d910	00 00 00 00 00 00 00 00 00 00 00 00 00 00 00 00 	0000000000000000
  0x6d920	00 00 00 00 00 00 00 00 00 00 00 00 00 00 00 00 	0000000000000000
  0x6d930	00 00 00 00 00 00 00 00 00 00 00 00 00 00 00 00 	0000000000000000
  0x6d940	00 00 00 00 00 00 00 00 00 00 00 00 00 00 00 00 	0000000000000000
  0x6d950	00 00 00 00 00 00 00 00 00 00 00 00 00 00 00 00 	0000000000000000
  0x6d960	00 00 00 00 00 00 00 00 00 00 00 00 00 00 00 00 	0000000000000000
  0x6d970	00 00 00 00 00 00 00 00 00 00 00 00 00 00 00 00 	0000000000000000
  0x6d980	00 00 00 00 00 00 00 00 00 00 00 00 00 00 00 00 	0000000000000000
  0x6d990	00 00 00 00 00 00 00 00 00 00 00 00 00 00 00 00 	0000000000000000
  0x6d9a0	00 00 00 00 00 00 00 00 00 00 00 00 00 00 00 00 	0000000000000000
  0x6d9b0	00 00 00 00 00 00 00 00 00 00 00 00 00 00 00 00 	0000000000000000
  0x6d9c0	00 00 00 00 00 00 00 00 00 00 00 00 00 00 00 00 	0000000000000000
  0x6d9d0	00 00 00 00 00 00 00 00 00 00 00 00 00 00 00 00 	0000000000000000
  0x6d9e0	00 00 00 00 00 00 00 00 00 00 00 00 00 00 00 00 	0000000000000000
  0x6d9f0	00 00 00 00 00 00 00 00 00 00 00 00 00 00 00 00 	0000000000000000
  0x6da00	00 00 00 00 00 00 00 00 00 00 00 00 00 00 00 00 	0000000000000000
  0x6da10	00 00 00 00 00 00 00 00 00 00 00 00 00 00 00 00 	0000000000000000
  0x6da20	00 00 00 00 00 00 00 00 00 00 00 00 00 00 00 00 	0000000000000000
  0x6da30	00 00 00 00 00 00 00 00 00 00 00 00 00 00 00 00 	0000000000000000
  0x6da40	00 00 00 00 00 00 00 00 00 00 00 00 00 00 00 00 	0000000000000000
  0x6da50	00 00 00 00 00 00 00 00 00 00 00 00 00 00 00 00 	0000000000000000
  0x6da60	00 00 00 00 00 00 00 00 00 00 00 00 00 00 00 00 	0000000000000000
  0x6da70	00 00 00 00 00 00 00 00 00 00 00 00 00 00 00 00 	0000000000000000
  0x6da80	00 00 00 00 00 00 00 00 00 00 00 00 00 00 00 00 	0000000000000000
  0x6da90	00 00 00 00 00 00 00 00 00 00 00 00 00 00 00 00 	0000000000000000
  0x6daa0	00 00 00 00 00 00 00 00 00 00 00 00 00 00 00 00 	0000000000000000
  0x6dab0	00 00 00 00 00 00 00 00 00 00 00 00 00 00 00 00 	0000000000000000
  0x6dac0	00 00 00 00 00 00 00 00 00 00 00 00 00 00 00 00 	0000000000000000
  0x6dad0	00 00 00 00 00 00 00 00 00 00 00 00 00 00 00 00 	0000000000000000
  0x6dae0	00 00 00 00 00 00 00 00 00 00 00 00 00 00 00 00 	0000000000000000
  0x6daf0	00 00 00 00 00 00 00 00 00 00 00 00 00 00 00 00 	0000000000000000
  0x6db00	00 00 00 00 00 00 00 00 00 00 00 00 00 00 00 00 	0000000000000000
  0x6db10	00 00 00 00 00 00 00 00 00 00 00 00 00 00 00 00 	0000000000000000
  0x6db20	00 00 00 00 00 00 00 00 00 00 00 00 00 00 00 00 	0000000000000000
  0x6db30	00 00 00 00 00 00 00 00 00 00 00 00 00 00 00 00 	0000000000000000
  0x6db40	00 00 00 00 00 00 00 00 00 00 00 00 00 00 00 00 	0000000000000000
  0x6db50	00 00 00 00 00 00 00 00 00 00 00 00 00 00 00 00 	0000000000000000
  0x6db60	00 00 00 00 00 00 00 00 00 00 00 00 00 00 00 00 	0000000000000000
  0x6db70	00 00 00 00 00 00 00 00 00 00 00 00 00 00 00 00 	0000000000000000
  0x6db80	00 00 00 00 00 00 00 00 00 00 00 00 00 00 00 00 	0000000000000000
  0x6db90	00 00 00 00 00 00 00 00 00 00 00 00 00 00 00 00 	0000000000000000
  0x6dba0	00 00 00 00 00 00 00 00 00 00 00 00 00 00 00 00 	0000000000000000
  0x6dbb0	00 00 00 00 00 00 00 00 00 00 00 00 00 00 00 00 	0000000000000000
  0x6dbc0	00 00 00 00 00 00 00 00 00 00 00 00 00 00 00 00 	0000000000000000
  0x6dbd0	00 00 00 00 00 00 00 00 00 00 00 00 00 00 00 00 	0000000000000000
  0x6dbe0	00 00 00 00 00 00 00 00 00 00 00 00 00 00 00 00 	0000000000000000
  0x6dbf0	00 00 00 00 00 00 00 00 00 00 00 00 00 00 00 00 	0000000000000000
  0x6dc00	00 00 00 00 00 00 00 00 00 00 00 00 00 00 00 00 	0000000000000000
  0x6dc10	00 00 00 00 00 00 00 00 00 00 00 00 00 00 00 00 	0000000000000000
  0x6dc20	00 00 00 00 00 00 00 00 00 00 00 00 00 00 00 00 	0000000000000000
  0x6dc30	00 00 00 00 00 00 00 00 00 00 00 00 00 00 00 00 	0000000000000000
  0x6dc40	00 00 00 00 00 00 00 00 00 00 00 00 00 00 00 00 	0000000000000000
  0x6dc50	00 00 00 00 00 00 00 00 00 00 00 00 00 00 00 00 	0000000000000000
  0x6dc60	00 00 00 00 00 00 00 00 00 00 00 00 00 00 00 00 	0000000000000000
  0x6dc70	00 00 00 00 00 00 00 00 00 00 00 00 00 00 00 00 	0000000000000000
  0x6dc80	00 00 00 00 00 00 00 00 00 00 00 00 00 00 00 00 	0000000000000000
  0x6dc90	00 00 00 00 00 00 00 00 00 00 00 00 00 00 00 00 	0000000000000000
  0x6dca0	00 00 00 00 00 00 00 00 00 00 00 00 00 00 00 00 	0000000000000000
  0x6dcb0	00 00 00 00 00 00 00 00 00 00 00 00 00 00 00 00 	0000000000000000
  0x6dcc0	00 00 00 00 00 00 00 00 00 00 00 00 00 00 00 00 	0000000000000000
  0x6dcd0	00 00 00 00 00 00 00 00 00 00 00 00 00 00 00 00 	0000000000000000
  0x6dce0	00 00 00 00 00 00 00 00 00 00 00 00 00 00 00 00 	0000000000000000
  0x6dcf0	00 00 00 00 00 00 00 00 00 00 00 00 00 00 00 00 	0000000000000000
  0x6dd00	00 00 00 00 00 00 00 00 00 00 00 00 00 00 00 00 	0000000000000000
  0x6dd10	00 00 00 00 00 00 00 00 00 00 00 00 00 00 00 00 	0000000000000000
  0x6dd20	00 00 00 00 00 00 00 00 00 00 00 00 00 00 00 00 	0000000000000000
  0x6dd30	00 00 00 00 00 00 00 00 00 00 00 00 00 00 00 00 	0000000000000000
  0x6dd40	00 00 00 00 00 00 00 00 00 00 00 00 00 00 00 00 	0000000000000000
  0x6dd50	00 00 00 00 00 00 00 00 00 00 00 00 00 00 00 00 	0000000000000000
  0x6dd60	00 00 00 00 00 00 00 00 00 00 00 00 00 00 00 00 	0000000000000000
  0x6dd70	00 00 00 00 00 00 00 00 00 00 00 00 00 00 00 00 	0000000000000000
  0x6dd80	00 00 00 00 00 00 00 00 00 00 00 00 00 00 00 00 	0000000000000000
  0x6dd90	00 00 00 00 00 00 00 00 00 00 00 00 00 00 00 00 	0000000000000000
  0x6dda0	00 00 00 00 00 00 00 00 00 00 00 00 00 00 00 00 	0000000000000000
  0x6ddb0	00 00 00 00 00 00 00 00 00 00 00 00 00 00 00 00 	0000000000000000
  0x6ddc0	00 00 00 00 00 00 00 00 00 00 00 00 00 00 00 00 	0000000000000000
  0x6ddd0	00 00 00 00 00 00 00 00 00 00 00 00 00 00 00 00 	0000000000000000
  0x6dde0	00 00 00 00 00 00 00 00 00 00 00 00 00 00 00 00 	0000000000000000
  0x6ddf0	00 00 00 00 00 00 00 00 00 00 00 00 00 00 00 00 	0000000000000000
  0x6de00	00 00 00 00 00 00 00 00 00 00 00 00 00 00 00 00 	0000000000000000
  0x6de10	00 00 00 00 00 00 00 00 00 00 00 00 00 00 00 00 	0000000000000000
  0x6de20	00 00 00 00 00 00 00 00 00 00 00 00 00 00 00 00 	0000000000000000
  0x6de30	00 00 00 00 00 00 00 00 00 00 00 00 00 00 00 00 	0000000000000000
  0x6de40	00 00 00 00 00 00 00 00 00 00 00 00 00 00 00 00 	0000000000000000
  0x6de50	00 00 00 00 00 00 00 00 00 00 00 00 00 00 00 00 	0000000000000000
  0x6de60	00 00 00 00 00 00 00 00 00 00 00 00 00 00 00 00 	0000000000000000
  0x6de70	00 00 00 00 00 00 00 00 00 00 00 00 00 00 00 00 	0000000000000000
  0x6de80	00 00 00 00 00 00 00 00 00 00 00 00 00 00 00 00 	0000000000000000
  0x6de90	00 00 00 00 00 00 00 00 00 00 00 00 00 00 00 00 	0000000000000000
  0x6dea0	00 00 00 00 00 00 00 00 00 00 00 00 00 00 00 00 	0000000000000000
  0x6deb0	00 00 00 00 00 00 00 00 00 00 00 00 00 00 00 00 	0000000000000000
  0x6dec0	00 00 00 00 00 00 00 00 00 00 00 00 00 00 00 00 	0000000000000000
  0x6ded0	00 00 00 00 00 00 00 00 00 00 00 00 00 00 00 00 	0000000000000000
  0x6dee0	00 00 00 00 00 00 00 00 00 00 00 00 00 00 00 00 	0000000000000000
  0x6def0	00 00 00 00 00 00 00 00 00 00 00 00 00 00 00 00 	0000000000000000
  0x6df00	00 00 00 00 00 00 00 00 00 00 00 00 00 00 00 00 	0000000000000000
  0x6df10	00 00 00 00 00 00 00 00 00 00 00 00 00 00 00 00 	0000000000000000
  0x6df20	00 00 00 00 00 00 00 00 00 00 00 00 00 00 00 00 	0000000000000000
  0x6df30	00 00 00 00 00 00 00 00 00 00 00 00 00 00 00 00 	0000000000000000
  0x6df40	00 00 00 00 00 00 00 00 00 00 00 00 00 00 00 00 	0000000000000000
  0x6df50	00 00 00 00 00 00 00 00 00 00 00 00 00 00 00 00 	0000000000000000
  0x6df60	00 00 00 00 00 00 00 00 00 00 00 00 00 00 00 00 	0000000000000000
  0x6df70	00 00 00 00 00 00 00 00 00 00 00 00 00 00 00 00 	0000000000000000
  0x6df80	00 00 00 00 00 00 00 00 00 00 00 00 00 00 00 00 	0000000000000000
  0x6df90	00 00 00 00 00 00 00 00 00 00 00 00 00 00 00 00 	0000000000000000
  0x6dfa0	00 00 00 00 00 00 00 00 00 00 00 00 00 00 00 00 	0000000000000000
  0x6dfb0	00 00 00 00 00 00 00 00 00 00 00 00 00 00 00 00 	0000000000000000
  0x6dfc0	00 00 00 00 00 00 00 00 00 00 00 00 00 00 00 00 	0000000000000000
  0x6dfd0	00 00 00 00 00 00 00 00 00 00 00 00 00 00 00 00 	0000000000000000
  0x6dfe0	00 00 00 00 00 00 00 00 00 00 00 00 00 00 00 00 	0000000000000000
  0x6dff0	00 00 00 00 00 00 00 00 00 00 00 00 00 00 00 00 	0000000000000000
=== DATA BLOCK END ===

=== DATA BLOCK ADDRESS 0x6e000 ===
  0x6e000	c0 74 05 40 01 00 00 00 01 00 00 00 00 00 00 00 	0t0@000000000000
  0x6e010	01 00 00 00 00 00 00 00 00 00 00 00 01 00 00 00 	0000000000000000
  0x6e020	00 00 00 00 00 00 00 00 00 00 00 00 00 00 00 00 	0000000000000000
  0x6e030	00 00 00 00 00 00 00 00 00 00 00 00 00 00 00 00 	0000000000000000
  0x6e040	00 00 00 00 00 00 00 00 fc 11 07 40 01 00 00 00 	00000000000@0000
  0x6e050	00 00 00 00 00 00 00 00 00 00 00 00 00 00 00 00 	0000000000000000
  0x6e060	00 00 00 00 00 00 00 00 fc 11 07 40 01 00 00 00 	00000000000@0000
  0x6e070	00 00 00 00 00 00 00 00 00 00 00 00 00 00 00 00 	0000000000000000
  0x6e080	00 00 00 00 00 00 00 00 fc 11 07 40 01 00 00 00 	00000000000@0000
  0x6e090	00 00 00 00 00 00 00 00 00 00 00 00 00 00 00 00 	0000000000000000
  0x6e0a0	00 00 00 00 00 00 00 00 fc 11 07 40 01 00 00 00 	00000000000@0000
  0x6e0b0	00 00 00 00 00 00 00 00 00 00 00 00 00 00 00 00 	0000000000000000
  0x6e0c0	00 00 00 00 00 00 00 00 fc 11 07 40 01 00 00 00 	00000000000@0000
  0x6e0d0	00 00 00 00 00 00 00 00 00 00 00 00 00 00 00 00 	0000000000000000
  0x6e0e0	00 00 00 00 00 00 00 00 00 00 00 00 00 00 00 00 	0000000000000000
  0x6e0f0	00 00 00 00 00 00 00 00 70 e1 06 40 01 00 00 00 	00000000p00@0000
  0x6e100	00 00 00 00 00 00 00 00 00 00 00 00 00 00 00 00 	0000000000000000
  0x6e110	40 77 05 40 01 00 00 00 c0 78 05 40 01 00 00 00 	@w0@00000x0@0000
  0x6e120	80 20 05 40 01 00 00 00 00 00 00 00 00 00 00 00 	0 0@000000000000
  0x6e130	00 00 00 00 00 00 00 00 00 00 00 00 00 00 00 00 	0000000000000000
  0x6e140	00 00 00 00 00 00 00 00 00 00 00 00 00 00 00 00 	0000000000000000
  0x6e150	00 00 00 00 00 00 00 00 00 e0 06 40 01 00 00 00 	00000000000@0000
  0x6e160	50 12 07 40 01 00 00 00 c2 79 05 40 01 00 00 00 	P00@00000y0@0000
  0x6e170	94 17 07 40 01 00 00 00 b4 23 07 40 01 00 00 00 	000@00000#0@0000
  0x6e180	b4 23 07 40 01 00 00 00 b4 23 07 40 01 00 00 00 	0#0@00000#0@0000
  0x6e190	b4 23 07 40 01 00 00 00 b4 23 07 40 01 00 00 00 	0#0@00000#0@0000
  0x6e1a0	b4 23 07 40 01 00 00 00 b4 23 07 40 01 00 00 00 	0#0@00000#0@0000
  0x6e1b0	b4 23 07 40 01 00 00 00 b4 23 07 40 01 00 00 00 	0#0@00000#0@0000
  0x6e1c0	7f 7f 7f 7f 7f 7f 7f 7f 98 17 07 40 01 00 00 00 	00000000000@0000
  0x6e1d0	b8 23 07 40 01 00 00 00 b8 23 07 40 01 00 00 00 	0#0@00000#0@0000
  0x6e1e0	b8 23 07 40 01 00 00 00 b8 23 07 40 01 00 00 00 	0#0@00000#0@0000
  0x6e1f0	b8 23 07 40 01 00 00 00 b8 23 07 40 01 00 00 00 	0#0@00000#0@0000
  0x6e200	b8 23 07 40 01 00 00 00 a0 17 07 40 01 00 00 00 	0#0@0000000@0000
  0x6e210	e0 17 07 40 01 00 00 00 20 18 07 40 01 00 00 00 	000@0000 00@0000
  0x6e220	a0 18 07 40 01 00 00 00 a0 f3 02 40 01 00 00 00 	000@0000000@0000
  0x6e230	50 f3 02 40 01 00 00 00 10 f3 02 40 01 00 00 00 	P00@0000000@0000
  0x6e240	70 f3 02 40 01 00 00 00 30 f3 02 40 01 00 00 00 	p00@0000000@0000
  0x6e250	50 e2 06 40 01 00 00 00 00 00 00 00 00 00 00 00 	P00@000000000000
  0x6e260	00 00 00 00 00 00 00 00 3e 58 06 40 01 00 00 00 	00000000>X0@0000
  0x6e270	00 00 00 00 00 00 00 00 00 00 00 00 00 00 00 00 	0000000000000000
  0x6e280	00 00 00 00 00 00 00 00 00 00 00 00 00 00 00 00 	0000000000000000
  0x6e290	00 00 00 00 00 00 00 00 98 e2 06 40 01 00 00 00 	00000000000@0000
  0x6e2a0	98 e2 06 40 01 00 00 00 00 00 00 00 00 00 00 00 	000@000000000000
  0x6e2b0	98 40 05 40 01 00 00 00 00 00 00 00 00 00 00 00 	0@0@000000000000
  0x6e2c0	2e 3f 41 56 62 61 64 5f 65 78 63 65 70 74 69 6f 	.?AVbad_exceptio
  0x6e2d0	6e 40 73 74 64 40 40 00 00 00 00 00 00 00 00 00 	n@std@@000000000
  0x6e2e0	98 40 05 40 01 00 00 00 00 00 00 00 00 00 00 00 	0@0@000000000000
  0x6e2f0	2e 3f 41 56 3c 6c 61 6d 62 64 61 5f 31 64 36 35 	.?AV<lambda_1d65
  0x6e300	37 34 34 34 36 31 36 38 62 62 62 61 66 32 38 38 	74446168bbbaf288
  0x6e310	39 30 63 32 37 64 30 64 64 31 64 62 3e 40 40 00 	90c27d0dd1db>@@0
  0x6e320	98 40 05 40 01 00 00 00 00 00 00 00 00 00 00 00 	0@0@000000000000
  0x6e330	2e 3f 41 56 3c 6c 61 6d 62 64 61 5f 39 35 35 35 	.?AV<lambda_9555
  0x6e340	36 62 64 63 35 39 65 35 65 38 65 36 39 36 31 33 	6bdc59e5e8e69613
  0x6e350	32 31 62 36 64 31 36 61 37 61 35 30 3e 40 40 00 	21b6d16a7a50>@@0
  0x6e360	98 40 05 40 01 00 00 00 00 00 00 00 00 00 00 00 	0@0@000000000000
  0x6e370	2e 3f 41 56 3c 6c 61 6d 62 64 61 5f 33 34 35 31 	.?AV<lambda_3451
  0x6e380	34 39 38 37 32 36 65 32 38 34 37 31 66 62 32 35 	498726e28471fb25
  0x6e390	39 38 65 62 37 61 66 30 66 65 36 33 3e 40 40 00 	98eb7af0fe63>@@0
  0x6e3a0	98 40 05 40 01 00 00 00 00 00 00 00 00 00 00 00 	0@0@000000000000
  0x6e3b0	2e 3f 41 56 62 61 64 5f 61 72 72 61 79 5f 6e 65 	.?AVbad_array_ne
  0x6e3c0	77 5f 6c 65 6e 67 74 68 40 73 74 64 40 40 00 00 	w_length@std@@00
  0x6e3d0	98 40 05 40 01 00 00 00 00 00 00 00 00 00 00 00 	0@0@000000000000
  0x6e3e0	2e 3f 41 56 62 61 64 5f 61 6c 6c 6f 63 40 73 74 	.?AVbad_alloc@st
  0x6e3f0	64 40 40 00 00 00 00 00 98 40 05 40 01 00 00 00 	d@@000000@0@0000
  0x6e400	00 00 00 00 00 00 00 00 2e 3f 41 56 65 78 63 65 	00000000.?AVexce
  0x6e410	70 74 69 6f 6e 40 73 74 64 40 40 00 00 00 00 00 	ption@std@@00000
  0x6e420	98 40 05 40 01 00 00 00 00 00 00 00 00 00 00 00 	0@0@000000000000
  0x6e430	2e 3f 41 56 3c 6c 61 6d 62 64 61 5f 30 39 36 30 	.?AV<lambda_0960
  0x6e440	31 35 39 66 62 36 39 63 35 33 34 66 36 32 37 31 	159fb69c534f6271
  0x6e450	36 38 65 35 37 64 36 65 32 33 62 65 3e 40 40 00 	68e57d6e23be>@@0
  0x6e460	98 40 05 40 01 00 00 00 00 00 00 00 00 00 00 00 	0@0@000000000000
  0x6e470	2e 3f 41 56 3c 6c 61 6d 62 64 61 5f 34 33 37 32 	.?AV<lambda_4372
  0x6e480	63 34 36 66 39 36 36 65 64 63 61 30 33 37 38 33 	c46f966edca03783
  0x6e490	37 39 62 64 64 61 30 63 63 37 63 30 3e 40 40 00 	79bdda0cc7c0>@@0
  0x6e4a0	98 40 05 40 01 00 00 00 00 00 00 00 00 00 00 00 	0@0@000000000000
  0x6e4b0	2e 3f 41 56 3c 6c 61 6d 62 64 61 5f 62 65 30 65 	.?AV<lambda_be0e
  0x6e4c0	35 38 36 30 63 32 62 30 36 66 31 36 62 33 37 36 	5860c2b06f16b376
  0x6e4d0	35 62 38 31 61 30 61 37 66 62 62 38 3e 40 40 00 	5b81a0a7fbb8>@@0
  0x6e4e0	98 40 05 40 01 00 00 00 00 00 00 00 00 00 00 00 	0@0@000000000000
  0x6e4f0	2e 3f 41 56 3c 6c 61 6d 62 64 61 5f 32 63 30 37 	.?AV<lambda_2c07
  0x6e500	65 65 38 30 38 63 62 64 37 35 37 61 63 33 33 63 	ee808cbd757ac33c
  0x6e510	33 36 37 61 35 31 62 33 33 65 66 31 3e 40 40 00 	367a51b33ef1>@@0
  0x6e520	98 40 05 40 01 00 00 00 00 00 00 00 00 00 00 00 	0@0@000000000000
  0x6e530	2e 3f 41 56 3c 6c 61 6d 62 64 61 5f 32 34 30 64 	.?AV<lambda_240d
  0x6e540	31 31 66 38 33 63 61 39 62 39 30 65 64 35 36 34 	11f83ca9b90ed564
  0x6e550	34 39 31 34 64 33 61 32 38 66 63 38 3e 40 40 00 	4914d3a28fc8>@@0
  0x6e560	98 40 05 40 01 00 00 00 00 00 00 00 00 00 00 00 	0@0@000000000000
  0x6e570	2e 3f 41 56 3c 6c 61 6d 62 64 61 5f 30 64 37 36 	.?AV<lambda_0d76
  0x6e580	62 66 33 63 38 33 35 33 61 34 34 38 38 37 35 34 	bf3c8353a4488754
  0x6e590	34 63 38 63 31 66 66 64 33 64 65 39 3e 40 40 00 	4c8c1ffd3de9>@@0
  0x6e5a0	98 40 05 40 01 00 00 00 00 00 00 00 00 00 00 00 	0@0@000000000000
  0x6e5b0	2e 3f 41 56 3c 6c 61 6d 62 64 61 5f 62 65 31 37 	.?AV<lambda_be17
  0x6e5c0	63 61 62 33 33 32 64 36 32 61 38 38 66 31 32 36 	cab332d62a88f126
  0x6e5d0	61 35 35 36 61 62 36 32 65 35 61 63 3e 40 40 00 	a556ab62e5ac>@@0
  0x6e5e0	98 40 05 40 01 00 00 00 00 00 00 00 00 00 00 00 	0@0@000000000000
  0x6e5f0	2e 3f 41 56 49 54 68 72 65 61 74 44 61 74 61 40 	.?AVIThreatData@
  0x6e600	40 00 00 00 00 00 00 00 98 40 05 40 01 00 00 00 	@00000000@0@0000
  0x6e610	00 00 00 00 00 00 00 00 2e 3f 41 56 54 68 72 65 	00000000.?AVThre
  0x6e620	61 74 44 61 74 61 40 40 00 00 00 00 00 00 00 00 	atData@@00000000
  0x6e630	98 40 05 40 01 00 00 00 00 00 00 00 00 00 00 00 	0@0@000000000000
  0x6e640	2e 3f 41 56 6c 65 6e 67 74 68 5f 65 72 72 6f 72 	.?AVlength_error
  0x6e650	40 73 74 64 40 40 00 00 98 40 05 40 01 00 00 00 	@std@@000@0@0000
  0x6e660	00 00 00 00 00 00 00 00 2e 3f 41 56 6c 6f 67 69 	00000000.?AVlogi
  0x6e670	63 5f 65 72 72 6f 72 40 73 74 64 40 40 00 00 00 	c_error@std@@000
  0x6e680	98 40 05 40 01 00 00 00 00 00 00 00 00 00 00 00 	0@0@000000000000
  0x6e690	2e 3f 41 56 6f 75 74 5f 6f 66 5f 72 61 6e 67 65 	.?AVout_of_range
  0x6e6a0	40 73 74 64 40 40 00 00 98 40 05 40 01 00 00 00 	@std@@000@0@0000
  0x6e6b0	00 00 00 00 00 00 00 00 2e 3f 41 56 69 6e 76 61 	00000000.?AVinva
  0x6e6c0	6c 69 64 5f 61 72 67 75 6d 65 6e 74 40 73 74 64 	lid_argument@std
  0x6e6d0	40 40 00 00 00 00 00 00 98 40 05 40 01 00 00 00 	@@0000000@0@0000
  0x6e6e0	00 00 00 00 00 00 00 00 2e 3f 41 56 62 61 64 5f 	00000000.?AVbad_
  0x6e6f0	66 75 6e 63 74 69 6f 6e 5f 63 61 6c 6c 40 73 74 	function_call@st
  0x6e700	64 40 40 00 00 00 00 00 98 40 05 40 01 00 00 00 	d@@000000@0@0000
  0x6e710	00 00 00 00 00 00 00 00 2e 3f 41 56 43 48 52 65 	00000000.?AVCHRe
  0x6e720	73 75 6c 74 45 78 63 65 70 74 69 6f 6e 49 6d 70 	sultExceptionImp
  0x6e730	6c 40 43 6f 6d 6d 6f 6e 55 74 69 6c 40 40 00 00 	l@CommonUtil@@00
  0x6e740	98 40 05 40 01 00 00 00 00 00 00 00 00 00 00 00 	0@0@000000000000
  0x6e750	2e 3f 41 56 43 48 52 65 73 75 6c 74 45 78 63 65 	.?AVCHResultExce
  0x6e760	70 74 69 6f 6e 40 43 6f 6d 6d 6f 6e 55 74 69 6c 	ption@CommonUtil
  0x6e770	40 40 00 00 00 00 00 00 98 40 05 40 01 00 00 00 	@@0000000@0@0000
  0x6e780	00 00 00 00 00 00 00 00 2e 3f 41 56 5f 5f 6e 6f 	00000000.?AV__no
  0x6e790	6e 5f 72 74 74 69 5f 6f 62 6a 65 63 74 40 73 74 	n_rtti_object@st
  0x6e7a0	64 40 40 00 00 00 00 00 98 40 05 40 01 00 00 00 	d@@000000@0@0000
  0x6e7b0	00 00 00 00 00 00 00 00 2e 3f 41 56 62 61 64 5f 	00000000.?AVbad_
  0x6e7c0	74 79 70 65 69 64 40 73 74 64 40 40 00 00 00 00 	typeid@std@@0000
  0x6e7d0	98 40 05 40 01 00 00 00 00 00 00 00 00 00 00 00 	0@0@000000000000
  0x6e7e0	2e 3f 41 56 62 61 64 5f 63 61 73 74 40 73 74 64 	.?AVbad_cast@std
  0x6e7f0	40 40 00 00 00 00 00 00 00 00 00 00 00 00 00 00 	@@00000000000000
  0x6e800	98 40 05 40 01 00 00 00 00 00 00 00 00 00 00 00 	0@0@000000000000
  0x6e810	2e 3f 41 56 74 79 70 65 5f 69 6e 66 6f 40 40 00 	.?AVtype_info@@0
  0x6e820	98 40 05 40 01 00 00 00 00 00 00 00 00 00 00 00 	0@0@000000000000
  0x6e830	2e 3f 41 56 3f 24 5f 46 75 6e 63 5f 69 6d 70 6c 	.?AV?$_Func_impl
  0x6e840	5f 6e 6f 5f 61 6c 6c 6f 63 40 56 3c 6c 61 6d 62 	_no_alloc@V<lamb
  0x6e850	64 61 5f 33 34 35 31 34 39 38 37 32 36 65 32 38 	da_3451498726e28
  0x6e860	34 37 31 66 62 32 35 39 38 65 62 37 61 66 30 66 	471fb2598eb7af0f
  0x6e870	65 36 33 3e 40 40 4a 50 45 41 56 49 54 68 72 65 	e63>@@JPEAVIThre
  0x6e880	61 74 44 61 74 61 40 40 40 73 74 64 40 40 00 00 	atData@@@std@@00
  0x6e890	98 40 05 40 01 00 00 00 00 00 00 00 00 00 00 00 	0@0@000000000000
  0x6e8a0	2e 3f 41 56 3f 24 5f 46 75 6e 63 5f 69 6d 70 6c 	.?AV?$_Func_impl
  0x6e8b0	5f 6e 6f 5f 61 6c 6c 6f 63 40 56 3c 6c 61 6d 62 	_no_alloc@V<lamb
  0x6e8c0	64 61 5f 39 35 35 35 36 62 64 63 35 39 65 35 65 	da_95556bdc59e5e
  0x6e8d0	38 65 36 39 36 31 33 32 31 62 36 64 31 36 61 37 	8e6961321b6d16a7
  0x6e8e0	61 35 30 3e 40 40 4a 50 45 41 56 49 54 68 72 65 	a50>@@JPEAVIThre
  0x6e8f0	61 74 44 61 74 61 40 40 40 73 74 64 40 40 00 00 	atData@@@std@@00
  0x6e900	98 40 05 40 01 00 00 00 00 00 00 00 00 00 00 00 	0@0@000000000000
  0x6e910	2e 3f 41 56 3f 24 5f 46 75 6e 63 5f 69 6d 70 6c 	.?AV?$_Func_impl
  0x6e920	5f 6e 6f 5f 61 6c 6c 6f 63 40 56 3c 6c 61 6d 62 	_no_alloc@V<lamb
  0x6e930	64 61 5f 31 64 36 35 37 34 34 34 36 31 36 38 62 	da_1d6574446168b
  0x6e940	62 62 61 66 32 38 38 39 30 63 32 37 64 30 64 64 	bbaf28890c27d0dd
  0x6e950	31 64 62 3e 40 40 4a 50 45 41 56 49 54 68 72 65 	1db>@@JPEAVIThre
  0x6e960	61 74 44 61 74 61 40 40 40 73 74 64 40 40 00 00 	atData@@@std@@00
  0x6e970	98 40 05 40 01 00 00 00 00 00 00 00 00 00 00 00 	0@0@000000000000
  0x6e980	2e 3f 41 56 3f 24 5f 46 75 6e 63 5f 62 61 73 65 	.?AV?$_Func_base
  0x6e990	40 4a 50 45 41 56 49 54 68 72 65 61 74 44 61 74 	@JPEAVIThreatDat
  0x6e9a0	61 40 40 40 73 74 64 40 40 00 00 00 00 00 00 00 	a@@@std@@0000000
  0x6e9b0	98 40 05 40 01 00 00 00 00 00 00 00 00 00 00 00 	0@0@000000000000
  0x6e9c0	2e 3f 41 56 43 41 70 70 6c 69 63 61 74 69 6f 6e 	.?AVCApplication
  0x6e9d0	40 40 00 00 00 00 00 00 98 40 05 40 01 00 00 00 	@@0000000@0@0000
  0x6e9e0	00 00 00 00 00 00 00 00 2e 3f 41 56 43 54 69 74 	00000000.?AVCTit
  0x6e9f0	61 6e 41 70 70 40 40 00 00 00 00 00 00 00 00 00 	anApp@@000000000
  0x6ea00	98 40 05 40 01 00 00 00 00 00 00 00 00 00 00 00 	0@0@000000000000
  0x6ea10	2e 3f 41 56 3f 24 5f 46 75 6e 63 5f 69 6d 70 6c 	.?AV?$_Func_impl
  0x6ea20	5f 6e 6f 5f 61 6c 6c 6f 63 40 56 3c 6c 61 6d 62 	_no_alloc@V<lamb
  0x6ea30	64 61 5f 34 33 37 32 63 34 36 66 39 36 36 65 64 	da_4372c46f966ed
  0x6ea40	63 61 30 33 37 38 33 37 39 62 64 64 61 30 63 63 	ca0378379bdda0cc
  0x6ea50	37 63 30 3e 40 40 4a 50 45 41 56 49 54 68 72 65 	7c0>@@JPEAVIThre
  0x6ea60	61 74 44 61 74 61 40 40 40 73 74 64 40 40 00 00 	atData@@@std@@00
  0x6ea70	98 40 05 40 01 00 00 00 00 00 00 00 00 00 00 00 	0@0@000000000000
  0x6ea80	2e 3f 41 56 3f 24 5f 46 75 6e 63 5f 69 6d 70 6c 	.?AV?$_Func_impl
  0x6ea90	5f 6e 6f 5f 61 6c 6c 6f 63 40 56 3c 6c 61 6d 62 	_no_alloc@V<lamb
  0x6eaa0	64 61 5f 30 39 36 30 31 35 39 66 62 36 39 63 35 	da_0960159fb69c5
  0x6eab0	33 34 66 36 32 37 31 36 38 65 35 37 64 36 65 32 	34f627168e57d6e2
  0x6eac0	33 62 65 3e 40 40 4a 50 45 41 56 49 54 68 72 65 	3be>@@JPEAVIThre
  0x6ead0	61 74 44 61 74 61 40 40 40 73 74 64 40 40 00 00 	atData@@@std@@00
  0x6eae0	98 40 05 40 01 00 00 00 00 00 00 00 00 00 00 00 	0@0@000000000000
  0x6eaf0	2e 3f 41 56 43 50 61 67 65 5f 52 65 73 75 6c 74 	.?AVCPage_Result
  0x6eb00	73 40 40 00 00 00 00 00 98 40 05 40 01 00 00 00 	s@@000000@0@0000
  0x6eb10	00 00 00 00 00 00 00 00 2e 3f 41 56 43 50 61 67 	00000000.?AVCPag
  0x6eb20	65 5f 44 69 73 69 6e 66 65 63 74 40 40 00 00 00 	e_Disinfect@@000
  0x6eb30	98 40 05 40 01 00 00 00 00 00 00 00 00 00 00 00 	0@0@000000000000
  0x6eb40	2e 3f 41 56 43 50 61 67 65 5f 41 73 6b 43 6c 65 	.?AVCPage_AskCle
  0x6eb50	61 6e 4c 6f 77 4d 65 64 40 40 00 00 00 00 00 00 	anLowMed@@000000
  0x6eb60	98 40 05 40 01 00 00 00 00 00 00 00 00 00 00 00 	0@0@000000000000
  0x6eb70	2e 3f 41 56 43 50 61 67 65 5f 41 73 6b 43 6c 65 	.?AVCPage_AskCle
  0x6eb80	61 6e 40 40 00 00 00 00 98 40 05 40 01 00 00 00 	an@@00000@0@0000
  0x6eb90	00 00 00 00 00 00 00 00 2e 3f 41 56 43 50 61 67 	00000000.?AVCPag
  0x6eba0	65 5f 41 73 6b 46 75 6c 6c 53 63 61 6e 40 40 00 	e_AskFullScan@@0
  0x6ebb0	98 40 05 40 01 00 00 00 00 00 00 00 00 00 00 00 	0@0@000000000000
  0x6ebc0	2e 3f 41 56 43 50 61 67 65 5f 53 63 61 6e 50 72 	.?AVCPage_ScanPr
  0x6ebd0	6f 67 72 65 73 73 40 40 00 00 00 00 00 00 00 00 	ogress@@00000000
  0x6ebe0	98 40 05 40 01 00 00 00 00 00 00 00 00 00 00 00 	0@0@000000000000
  0x6ebf0	2e 3f 41 56 43 50 61 67 65 5f 53 63 61 6e 54 79 	.?AVCPage_ScanTy
  0x6ec00	70 65 40 40 00 00 00 00 98 40 05 40 01 00 00 00 	pe@@00000@0@0000
  0x6ec10	00 00 00 00 00 00 00 00 2e 3f 41 56 43 50 61 67 	00000000.?AVCPag
  0x6ec20	65 5f 57 65 6c 63 6f 6d 65 40 40 00 00 00 00 00 	e_Welcome@@00000
  0x6ec30	98 40 05 40 01 00 00 00 00 00 00 00 00 00 00 00 	0@0@000000000000
  0x6ec40	2e 3f 41 56 43 50 61 67 65 5f 45 55 4c 41 40 40 	.?AVCPage_EULA@@
  0x6ec50	00 00 00 00 00 00 00 00 98 40 05 40 01 00 00 00 	000000000@0@0000
  0x6ec60	00 00 00 00 00 00 00 00 2e 3f 41 56 43 57 69 7a 	00000000.?AVCWiz
  0x6ec70	61 72 64 50 61 67 65 40 40 00 00 00 00 00 00 00 	ardPage@@0000000
  0x6ec80	98 40 05 40 01 00 00 00 00 00 00 00 00 00 00 00 	0@0@000000000000
  0x6ec90	2e 3f 41 56 43 54 69 74 61 6e 57 69 7a 61 72 64 	.?AVCTitanWizard
  0x6eca0	50 61 67 65 42 61 73 65 40 40 00 00 00 00 00 00 	PageBase@@000000
  0x6ecb0	98 40 05 40 01 00 00 00 00 00 00 00 00 00 00 00 	0@0@000000000000
  0x6ecc0	2e 3f 41 56 43 57 69 7a 61 72 64 40 40 00 00 00 	.?AVCWizard@@000
  0x6ecd0	98 40 05 40 01 00 00 00 00 00 00 00 00 00 00 00 	0@0@000000000000
  0x6ece0	2e 3f 41 56 43 54 69 74 61 6e 57 69 7a 61 72 64 	.?AVCTitanWizard
  0x6ecf0	40 40 00 00 00 00 00 00 98 40 05 40 01 00 00 00 	@@0000000@0@0000
  0x6ed00	00 00 00 00 00 00 00 00 2e 3f 41 56 49 44 69 73 	00000000.?AVIDis
  0x6ed10	69 6e 66 65 63 74 43 61 6c 6c 62 61 63 6b 40 40 	infectCallback@@
  0x6ed20	00 00 00 00 00 00 00 00 98 40 05 40 01 00 00 00 	000000000@0@0000
  0x6ed30	00 00 00 00 00 00 00 00 2e 3f 41 56 49 53 63 61 	00000000.?AVISca
  0x6ed40	6e 43 61 6c 6c 62 61 63 6b 40 40 00 00 00 00 00 	nCallback@@00000
  0x6ed50	98 40 05 40 01 00 00 00 00 00 00 00 00 00 00 00 	0@0@000000000000
  0x6ed60	2e 3f 41 56 3f 24 5f 46 75 6e 63 5f 69 6d 70 6c 	.?AV?$_Func_impl
  0x6ed70	5f 6e 6f 5f 61 6c 6c 6f 63 40 56 3c 6c 61 6d 62 	_no_alloc@V<lamb
  0x6ed80	64 61 5f 32 63 30 37 65 65 38 30 38 63 62 64 37 	da_2c07ee808cbd7
  0x6ed90	35 37 61 63 33 33 63 33 36 37 61 35 31 62 33 33 	57ac33c367a51b33
  0x6eda0	65 66 31 3e 40 40 4a 50 45 41 56 49 56 69 72 75 	ef1>@@JPEAVIViru
  0x6edb0	73 46 61 6d 69 6c 79 40 40 40 73 74 64 40 40 00 	sFamily@@@std@@0
  0x6edc0	98 40 05 40 01 00 00 00 00 00 00 00 00 00 00 00 	0@0@000000000000
  0x6edd0	2e 3f 41 56 3f 24 5f 46 75 6e 63 5f 69 6d 70 6c 	.?AV?$_Func_impl
  0x6ede0	5f 6e 6f 5f 61 6c 6c 6f 63 40 56 3c 6c 61 6d 62 	_no_alloc@V<lamb
  0x6edf0	64 61 5f 62 65 30 65 35 38 36 30 63 32 62 30 36 	da_be0e5860c2b06
  0x6ee00	66 31 36 62 33 37 36 35 62 38 31 61 30 61 37 66 	f16b3765b81a0a7f
  0x6ee10	62 62 38 3e 40 40 4a 50 45 42 5f 57 4b 40 73 74 	bb8>@@JPEB_WK@st
  0x6ee20	64 40 40 00 00 00 00 00 98 40 05 40 01 00 00 00 	d@@000000@0@0000
  0x6ee30	00 00 00 00 00 00 00 00 2e 3f 41 56 3f 24 5f 46 	00000000.?AV?$_F
  0x6ee40	75 6e 63 5f 62 61 73 65 40 4a 50 45 41 56 49 56 	unc_base@JPEAVIV
  0x6ee50	69 72 75 73 46 61 6d 69 6c 79 40 40 40 73 74 64 	irusFamily@@@std
  0x6ee60	40 40 00 00 00 00 00 00 98 40 05 40 01 00 00 00 	@@0000000@0@0000
  0x6ee70	00 00 00 00 00 00 00 00 2e 3f 41 56 3f 24 5f 46 	00000000.?AV?$_F
  0x6ee80	75 6e 63 5f 62 61 73 65 40 4a 50 45 42 5f 57 4b 	unc_base@JPEB_WK
  0x6ee90	40 73 74 64 40 40 00 00 98 40 05 40 01 00 00 00 	@std@@000@0@0000
  0x6eea0	00 00 00 00 00 00 00 00 2e 3f 41 56 43 44 69 61 	00000000.?AVCDia
  0x6eeb0	6c 6f 67 40 40 00 00 00 98 40 05 40 01 00 00 00 	log@@0000@0@0000
  0x6eec0	00 00 00 00 00 00 00 00 2e 3f 41 56 43 54 69 74 	00000000.?AVCTit
  0x6eed0	61 6e 54 68 72 65 61 74 73 44 6c 67 40 40 00 00 	anThreatsDlg@@00
  0x6eee0	98 40 05 40 01 00 00 00 00 00 00 00 00 00 00 00 	0@0@000000000000
  0x6eef0	2e 3f 41 56 3f 24 5f 46 75 6e 63 5f 69 6d 70 6c 	.?AV?$_Func_impl
  0x6ef00	5f 6e 6f 5f 61 6c 6c 6f 63 40 56 3c 6c 61 6d 62 	_no_alloc@V<lamb
  0x6ef10	64 61 5f 32 34 30 64 31 31 66 38 33 63 61 39 62 	da_240d11f83ca9b
  0x6ef20	39 30 65 64 35 36 34 34 39 31 34 64 33 61 32 38 	90ed5644914d3a28
  0x6ef30	66 63 38 3e 40 40 4a 50 45 41 56 49 54 68 72 65 	fc8>@@JPEAVIThre
  0x6ef40	61 74 44 61 74 61 40 40 40 73 74 64 40 40 00 00 	atData@@@std@@00
  0x6ef50	98 40 05 40 01 00 00 00 00 00 00 00 00 00 00 00 	0@0@000000000000
  0x6ef60	2e 3f 41 56 43 54 69 74 61 6e 44 69 73 69 6e 66 	.?AVCTitanDisinf
  0x6ef70	65 63 74 44 6c 67 40 40 00 00 00 00 00 00 00 00 	ectDlg@@00000000
  0x6ef80	98 40 05 40 01 00 00 00 00 00 00 00 00 00 00 00 	0@0@000000000000
  0x6ef90	2e 3f 41 56 49 56 69 72 75 73 46 61 6d 69 6c 79 	.?AVIVirusFamily
  0x6efa0	40 40 00 00 00 00 00 00 00 00 00 00 00 00 00 00 	@@00000000000000
  0x6efb0	98 40 05 40 01 00 00 00 00 00 00 00 00 00 00 00 	0@0@000000000000
  0x6efc0	2e 3f 41 56 3f 24 5f 46 75 6e 63 5f 69 6d 70 6c 	.?AV?$_Func_impl
  0x6efd0	5f 6e 6f 5f 61 6c 6c 6f 63 40 56 3c 6c 61 6d 62 	_no_alloc@V<lamb
  0x6efe0	64 61 5f 62 65 31 37 63 61 62 33 33 32 64 36 32 	da_be17cab332d62
  0x6eff0	61 38 38 66 31 32 36 61 35 35 36 61 62 36 32 65 	a88f126a556ab62e
  0x6f000	35 61 63 3e 40 40 4a 50 45 41 56 49 54 68 72 65 	5ac>@@JPEAVIThre
  0x6f010	61 74 44 61 74 61 40 40 40 73 74 64 40 40 00 00 	atData@@@std@@00
  0x6f020	98 40 05 40 01 00 00 00 00 00 00 00 00 00 00 00 	0@0@000000000000
  0x6f030	2e 3f 41 56 3f 24 5f 46 75 6e 63 5f 69 6d 70 6c 	.?AV?$_Func_impl
  0x6f040	5f 6e 6f 5f 61 6c 6c 6f 63 40 56 3c 6c 61 6d 62 	_no_alloc@V<lamb
  0x6f050	64 61 5f 30 64 37 36 62 66 33 63 38 33 35 33 61 	da_0d76bf3c8353a
  0x6f060	34 34 38 38 37 35 34 34 63 38 63 31 66 66 64 33 	44887544c8c1ffd3
  0x6f070	64 65 39 3e 40 40 4a 50 45 41 56 49 54 68 72 65 	de9>@@JPEAVIThre
  0x6f080	61 74 44 61 74 61 40 40 40 73 74 64 40 40 00 00 	atData@@@std@@00
  0x6f090	98 40 05 40 01 00 00 00 00 00 00 00 00 00 00 00 	0@0@000000000000
  0x6f0a0	2e 3f 41 56 56 69 72 75 73 46 61 6d 69 6c 79 40 	.?AVVirusFamily@
  0x6f0b0	40 00 00 00 00 00 00 00 98 40 05 40 01 00 00 00 	@00000000@0@0000
  0x6f0c0	00 00 00 00 00 00 00 00 2e 3f 41 56 56 61 72 69 	00000000.?AVVari
  0x6f0d0	61 6e 74 44 61 74 61 40 40 00 00 00 00 00 00 00 	antData@@0000000
  0x6f0e0	98 40 05 40 01 00 00 00 00 00 00 00 00 00 00 00 	0@0@000000000000
  0x6f0f0	2e 3f 41 56 43 47 65 61 72 53 63 61 6e 40 40 00 	.?AVCGearScan@@0
  0x6f100	98 40 05 40 01 00 00 00 00 00 00 00 00 00 00 00 	0@0@000000000000
  0x6f110	2e 3f 41 56 43 47 65 61 72 4c 69 62 40 40 00 00 	.?AVCGearLib@@00
  0x6f120	98 40 05 40 01 00 00 00 00 00 00 00 00 00 00 00 	0@0@000000000000
  0x6f130	2e 3f 41 56 49 53 63 61 6e 40 40 00 00 00 00 00 	.?AVIScan@@00000
  0x6f140	98 40 05 40 01 00 00 00 00 00 00 00 00 00 00 00 	0@0@000000000000
  0x6f150	2e 3f 41 56 3f 24 75 6e 6f 72 64 65 72 65 64 5f 	.?AV?$unordered_
  0x6f160	6d 61 70 40 56 3f 24 62 61 73 69 63 5f 73 74 72 	map@V?$basic_str
  0x6f170	69 6e 67 40 5f 57 55 3f 24 63 68 61 72 5f 74 72 	ing@_WU?$char_tr
  0x6f180	61 69 74 73 40 5f 57 40 73 74 64 40 40 56 3f 24 	aits@_W@std@@V?$
  0x6f190	61 6c 6c 6f 63 61 74 6f 72 40 5f 57 40 32 40 40 	allocator@_W@2@@
  0x6f1a0	73 74 64 40 40 56 31 32 40 55 3f 24 68 61 73 68 	std@@V12@U?$hash
  0x6f1b0	40 56 3f 24 62 61 73 69 63 5f 73 74 72 69 6e 67 	@V?$basic_string
  0x6f1c0	40 5f 57 55 3f 24 63 68 61 72 5f 74 72 61 69 74 	@_WU?$char_trait
  0x6f1d0	73 40 5f 57 40 73 74 64 40 40 56 3f 24 61 6c 6c 	s@_W@std@@V?$all
  0x6f1e0	6f 63 61 74 6f 72 40 5f 57 40 32 40 40 73 74 64 	ocator@_W@2@@std
  0x6f1f0	40 40 40 32 40 55 3f 24 65 71 75 61 6c 5f 74 6f 	@@@2@U?$equal_to
  0x6f200	40 56 3f 24 62 61 73 69 63 5f 73 74 72 69 6e 67 	@V?$basic_string
  0x6f210	40 5f 57 55 3f 24 63 68 61 72 5f 74 72 61 69 74 	@_WU?$char_trait
  0x6f220	73 40 5f 57 40 73 74 64 40 40 56 3f 24 61 6c 6c 	s@_W@std@@V?$all
  0x6f230	6f 63 61 74 6f 72 40 5f 57 40 32 40 40 73 74 64 	ocator@_W@2@@std
  0x6f240	40 40 40 32 40 56 3f 24 61 6c 6c 6f 63 61 74 6f 	@@@2@V?$allocato
  0x6f250	72 40 55 3f 24 70 61 69 72 40 24 24 43 42 56 3f 	r@U?$pair@$$CBV?
  0x6f260	24 62 61 73 69 63 5f 73 74 72 69 6e 67 40 5f 57 	$basic_string@_W
  0x6f270	55 3f 24 63 68 61 72 5f 74 72 61 69 74 73 40 5f 	U?$char_traits@_
  0x6f280	57 40 73 74 64 40 40 56 3f 24 61 6c 6c 6f 63 61 	W@std@@V?$alloca
  0x6f290	74 6f 72 40 5f 57 40 32 40 40 73 74 64 40 40 56 	tor@_W@2@@std@@V
  0x6f2a0	31 32 40 40 73 74 64 40 40 40 32 40 40 73 74 64 	12@@std@@@2@@std
  0x6f2b0	40 40 00 00 00 00 00 00 00 00 00 00 00 00 00 00 	@@00000000000000
  0x6f2c0	98 40 05 40 01 00 00 00 00 00 00 00 00 00 00 00 	0@0@000000000000
  0x6f2d0	2e 3f 41 56 3f 24 5f 48 61 73 68 40 56 3f 24 5f 	.?AV?$_Hash@V?$_
  0x6f2e0	55 6d 61 70 5f 74 72 61 69 74 73 40 56 3f 24 62 	Umap_traits@V?$b
  0x6f2f0	61 73 69 63 5f 73 74 72 69 6e 67 40 5f 57 55 3f 	asic_string@_WU?
  0x6f300	24 63 68 61 72 5f 74 72 61 69 74 73 40 5f 57 40 	$char_traits@_W@
  0x6f310	73 74 64 40 40 56 3f 24 61 6c 6c 6f 63 61 74 6f 	std@@V?$allocato
  0x6f320	72 40 5f 57 40 32 40 40 73 74 64 40 40 56 31 32 	r@_W@2@@std@@V12
  0x6f330	40 56 3f 24 5f 55 68 61 73 68 5f 63 6f 6d 70 61 	@V?$_Uhash_compa
  0x6f340	72 65 40 56 3f 24 62 61 73 69 63 5f 73 74 72 69 	re@V?$basic_stri
  0x6f350	6e 67 40 5f 57 55 3f 24 63 68 61 72 5f 74 72 61 	ng@_WU?$char_tra
  0x6f360	69 74 73 40 5f 57 40 73 74 64 40 40 56 3f 24 61 	its@_W@std@@V?$a
  0x6f370	6c 6c 6f 63 61 74 6f 72 40 5f 57 40 32 40 40 73 	llocator@_W@2@@s
  0x6f380	74 64 40 40 55 3f 24 68 61 73 68 40 56 3f 24 62 	td@@U?$hash@V?$b
  0x6f390	61 73 69 63 5f 73 74 72 69 6e 67 40 5f 57 55 3f 	asic_string@_WU?
  0x6f3a0	24 63 68 61 72 5f 74 72 61 69 74 73 40 5f 57 40 	$char_traits@_W@
  0x6f3b0	73 74 64 40 40 56 3f 24 61 6c 6c 6f 63 61 74 6f 	std@@V?$allocato
  0x6f3c0	72 40 5f 57 40 32 40 40 73 74 64 40 40 40 32 40 	r@_W@2@@std@@@2@
  0x6f3d0	55 3f 24 65 71 75 61 6c 5f 74 6f 40 56 3f 24 62 	U?$equal_to@V?$b
  0x6f3e0	61 73 69 63 5f 73 74 72 69 6e 67 40 5f 57 55 3f 	asic_string@_WU?
  0x6f3f0	24 63 68 61 72 5f 74 72 61 69 74 73 40 5f 57 40 	$char_traits@_W@
  0x6f400	73 74 64 40 40 56 3f 24 61 6c 6c 6f 63 61 74 6f 	std@@V?$allocato
  0x6f410	72 40 5f 57 40 32 40 40 73 74 64 40 40 40 32 40 	r@_W@2@@std@@@2@
  0x6f420	40 32 40 56 3f 24 61 6c 6c 6f 63 61 74 6f 72 40 	@2@V?$allocator@
  0x6f430	55 3f 24 70 61 69 72 40 24 24 43 42 56 3f 24 62 	U?$pair@$$CBV?$b
  0x6f440	61 73 69 63 5f 73 74 72 69 6e 67 40 5f 57 55 3f 	asic_string@_WU?
  0x6f450	24 63 68 61 72 5f 74 72 61 69 74 73 40 5f 57 40 	$char_traits@_W@
  0x6f460	73 74 64 40 40 56 3f 24 61 6c 6c 6f 63 61 74 6f 	std@@V?$allocato
  0x6f470	72 40 5f 57 40 32 40 40 73 74 64 40 40 56 31 32 	r@_W@2@@std@@V12
  0x6f480	40 40 73 74 64 40 40 40 32 40 24 30 41 40 40 73 	@@std@@@2@$0A@@s
  0x6f490	74 64 40 40 40 73 74 64 40 40 00 00 00 00 00 00 	td@@@std@@000000
  0x6f4a0	98 40 05 40 01 00 00 00 00 00 00 00 00 00 00 00 	0@0@000000000000
  0x6f4b0	2e 3f 41 56 3f 24 43 53 74 64 48 61 73 68 4d 61 	.?AV?$CStdHashMa
  0x6f4c0	70 40 56 3f 24 62 61 73 69 63 5f 73 74 72 69 6e 	p@V?$basic_strin
  0x6f4d0	67 40 5f 57 55 3f 24 63 68 61 72 5f 74 72 61 69 	g@_WU?$char_trai
  0x6f4e0	74 73 40 5f 57 40 73 74 64 40 40 56 3f 24 61 6c 	ts@_W@std@@V?$al
  0x6f4f0	6c 6f 63 61 74 6f 72 40 5f 57 40 32 40 40 73 74 	locator@_W@2@@st
  0x6f500	64 40 40 56 31 32 40 55 3f 24 68 61 73 68 40 56 	d@@V12@U?$hash@V
  0x6f510	3f 24 62 61 73 69 63 5f 73 74 72 69 6e 67 40 5f 	?$basic_string@_
  0x6f520	57 55 3f 24 63 68 61 72 5f 74 72 61 69 74 73 40 	WU?$char_traits@
  0x6f530	5f 57 40 73 74 64 40 40 56 3f 24 61 6c 6c 6f 63 	_W@std@@V?$alloc
  0x6f540	61 74 6f 72 40 5f 57 40 32 40 40 73 74 64 40 40 	ator@_W@2@@std@@
  0x6f550	40 32 40 55 3f 24 65 71 75 61 6c 5f 74 6f 40 56 	@2@U?$equal_to@V
  0x6f560	3f 24 62 61 73 69 63 5f 73 74 72 69 6e 67 40 5f 	?$basic_string@_
  0x6f570	57 55 3f 24 63 68 61 72 5f 74 72 61 69 74 73 40 	WU?$char_traits@
  0x6f580	5f 57 40 73 74 64 40 40 56 3f 24 61 6c 6c 6f 63 	_W@std@@V?$alloc
  0x6f590	61 74 6f 72 40 5f 57 40 32 40 40 73 74 64 40 40 	ator@_W@2@@std@@
  0x6f5a0	40 32 40 56 3f 24 61 6c 6c 6f 63 61 74 6f 72 40 	@2@V?$allocator@
  0x6f5b0	55 3f 24 70 61 69 72 40 24 24 43 42 56 3f 24 62 	U?$pair@$$CBV?$b
  0x6f5c0	61 73 69 63 5f 73 74 72 69 6e 67 40 5f 57 55 3f 	asic_string@_WU?
  0x6f5d0	24 63 68 61 72 5f 74 72 61 69 74 73 40 5f 57 40 	$char_traits@_W@
  0x6f5e0	73 74 64 40 40 56 3f 24 61 6c 6c 6f 63 61 74 6f 	std@@V?$allocato
  0x6f5f0	72 40 5f 57 40 32 40 40 73 74 64 40 40 56 31 32 	r@_W@2@@std@@V12
  0x6f600	40 40 73 74 64 40 40 40 32 40 40 43 6f 6d 6d 6f 	@@std@@@2@@Commo
  0x6f610	6e 55 74 69 6c 40 40 00 98 40 05 40 01 00 00 00 	nUtil@@00@0@0000
  0x6f620	00 00 00 00 00 00 00 00 2e 3f 41 56 41 72 62 69 	00000000.?AVArbi
  0x6f630	74 72 61 72 79 53 70 79 6e 65 74 4d 61 70 40 40 	trarySpynetMap@@
  0x6f640	00 00 00 00 00 00 00 00 98 40 05 40 01 00 00 00 	000000000@0@0000
  0x6f650	00 00 00 00 00 00 00 00 2e 3f 41 56 43 52 65 66 	00000000.?AVCRef
  0x6f660	4f 62 6a 65 63 74 40 43 6f 6d 6d 6f 6e 55 74 69 	Object@CommonUti
  0x6f670	6c 40 40 00 00 00 00 00 00 00 00 00 00 00 00 00 	l@@0000000000000
  0x6f680	98 40 05 40 01 00 00 00 00 00 00 00 00 00 00 00 	0@0@000000000000
  0x6f690	2e 3f 41 55 3f 24 49 49 74 65 72 61 62 6c 65 5f 	.?AU?$IIterable_
  0x6f6a0	69 6d 70 6c 40 55 3f 24 41 67 67 72 65 67 61 74 	impl@U?$Aggregat
  0x6f6b0	65 54 79 70 65 40 50 45 41 56 4f 6e 6c 69 6e 65 	eType@PEAVOnline
  0x6f6c0	49 64 53 65 72 76 69 63 65 54 69 63 6b 65 74 52 	IdServiceTicketR
  0x6f6d0	65 71 75 65 73 74 40 4f 6e 6c 69 6e 65 49 64 40 	equest@OnlineId@
  0x6f6e0	41 75 74 68 65 6e 74 69 63 61 74 69 6f 6e 40 53 	Authentication@S
  0x6f6f0	65 63 75 72 69 74 79 40 57 69 6e 64 6f 77 73 40 	ecurity@Windows@
  0x6f700	40 50 45 41 55 49 4f 6e 6c 69 6e 65 49 64 53 65 	@PEAUIOnlineIdSe
  0x6f710	72 76 69 63 65 54 69 63 6b 65 74 52 65 71 75 65 	rviceTicketReque
  0x6f720	73 74 40 32 33 34 35 40 40 49 6e 74 65 72 6e 61 	st@2345@@Interna
  0x6f730	6c 40 46 6f 75 6e 64 61 74 69 6f 6e 40 57 69 6e 	l@Foundation@Win
  0x6f740	64 6f 77 73 40 40 40 43 6f 6c 6c 65 63 74 69 6f 	dows@@@Collectio
  0x6f750	6e 73 40 46 6f 75 6e 64 61 74 69 6f 6e 40 57 69 	ns@Foundation@Wi
  0x6f760	6e 64 6f 77 73 40 40 00 00 00 00 00 00 00 00 00 	ndows@@000000000
  0x6f770	98 40 05 40 01 00 00 00 00 00 00 00 00 00 00 00 	0@0@000000000000
  0x6f780	2e 3f 41 55 3f 24 49 6d 70 6c 65 6d 65 6e 74 73 	.?AU?$Implements
  0x6f790	48 65 6c 70 65 72 40 55 3f 24 52 75 6e 74 69 6d 	Helper@U?$Runtim
  0x6f7a0	65 43 6c 61 73 73 46 6c 61 67 73 40 24 30 42 43 	eClassFlags@$0BC
  0x6f7b0	40 40 57 52 4c 40 4d 69 63 72 6f 73 6f 66 74 40 	@@WRL@Microsoft@
  0x6f7c0	40 24 30 30 24 24 56 40 44 65 74 61 69 6c 73 40 	@$00$$V@Details@
  0x6f7d0	57 52 4c 40 4d 69 63 72 6f 73 6f 66 74 40 40 00 	WRL@Microsoft@@0
  0x6f7e0	98 40 05 40 01 00 00 00 00 00 00 00 00 00 00 00 	0@0@000000000000
  0x6f7f0	2e 3f 41 55 49 57 65 61 6b 52 65 66 65 72 65 6e 	.?AUIWeakReferen
  0x6f800	63 65 40 40 00 00 00 00 00 00 00 00 00 00 00 00 	ce@@000000000000
  0x6f810	98 40 05 40 01 00 00 00 00 00 00 00 00 00 00 00 	0@0@000000000000
  0x6f820	2e 3f 41 56 3f 24 52 75 6e 74 69 6d 65 43 6c 61 	.?AV?$RuntimeCla
  0x6f830	73 73 42 61 73 65 54 40 24 30 42 43 40 40 44 65 	ssBaseT@$0BC@@De
  0x6f840	74 61 69 6c 73 40 57 52 4c 40 4d 69 63 72 6f 73 	tails@WRL@Micros
  0x6f850	6f 66 74 40 40 00 00 00 98 40 05 40 01 00 00 00 	oft@@0000@0@0000
  0x6f860	00 00 00 00 00 00 00 00 2e 3f 41 55 49 57 65 61 	00000000.?AUIWea
  0x6f870	6b 52 65 66 65 72 65 6e 63 65 53 6f 75 72 63 65 	kReferenceSource
  0x6f880	40 40 00 00 00 00 00 00 00 00 00 00 00 00 00 00 	@@00000000000000
  0x6f890	98 40 05 40 01 00 00 00 00 00 00 00 00 00 00 00 	0@0@000000000000
  0x6f8a0	2e 3f 41 55 3f 24 49 6d 70 6c 65 6d 65 6e 74 73 	.?AU?$Implements
  0x6f8b0	48 65 6c 70 65 72 40 55 3f 24 52 75 6e 74 69 6d 	Helper@U?$Runtim
  0x6f8c0	65 43 6c 61 73 73 46 6c 61 67 73 40 24 30 42 44 	eClassFlags@$0BD
  0x6f8d0	40 40 57 52 4c 40 4d 69 63 72 6f 73 6f 66 74 40 	@@WRL@Microsoft@
  0x6f8e0	40 24 30 30 55 49 57 65 61 6b 52 65 66 65 72 65 	@$00UIWeakRefere
  0x6f8f0	6e 63 65 53 6f 75 72 63 65 40 40 40 44 65 74 61 	nceSource@@@Deta
  0x6f900	69 6c 73 40 57 52 4c 40 4d 69 63 72 6f 73 6f 66 	ils@WRL@Microsof
  0x6f910	74 40 40 00 00 00 00 00 98 40 05 40 01 00 00 00 	t@@000000@0@0000
  0x6f920	00 00 00 00 00 00 00 00 2e 3f 41 55 49 55 6e 6b 	00000000.?AUIUnk
  0x6f930	6e 6f 77 6e 40 40 00 00 98 40 05 40 01 00 00 00 	nown@@000@0@0000
  0x6f940	00 00 00 00 00 00 00 00 2e 3f 41 56 52 75 6e 74 	00000000.?AVRunt
  0x6f950	69 6d 65 43 6c 61 73 73 42 61 73 65 40 44 65 74 	imeClassBase@Det
  0x6f960	61 69 6c 73 40 57 52 4c 40 4d 69 63 72 6f 73 6f 	ails@WRL@Microso
  0x6f970	66 74 40 40 00 00 00 00 98 40 05 40 01 00 00 00 	ft@@00000@0@0000
  0x6f980	00 00 00 00 00 00 00 00 2e 3f 41 56 53 74 72 6f 	00000000.?AVStro
  0x6f990	6e 67 52 65 66 65 72 65 6e 63 65 40 44 65 74 61 	ngReference@Deta
  0x6f9a0	69 6c 73 40 57 52 4c 40 4d 69 63 72 6f 73 6f 66 	ils@WRL@Microsof
  0x6f9b0	74 40 40 00 00 00 00 00 00 00 00 00 00 00 00 00 	t@@0000000000000
  0x6f9c0	98 40 05 40 01 00 00 00 00 00 00 00 00 00 00 00 	0@0@000000000000
  0x6f9d0	2e 3f 41 55 3f 24 49 41 73 79 6e 63 4f 70 65 72 	.?AU?$IAsyncOper
  0x6f9e0	61 74 69 6f 6e 43 6f 6d 70 6c 65 74 65 64 48 61 	ationCompletedHa
  0x6f9f0	6e 64 6c 65 72 5f 69 6d 70 6c 40 55 3f 24 41 67 	ndler_impl@U?$Ag
  0x6fa00	67 72 65 67 61 74 65 54 79 70 65 40 50 45 41 56 	gregateType@PEAV
  0x6fa10	55 73 65 72 49 64 65 6e 74 69 74 79 40 4f 6e 6c 	UserIdentity@Onl
  0x6fa20	69 6e 65 49 64 40 41 75 74 68 65 6e 74 69 63 61 	ineId@Authentica
  0x6fa30	74 69 6f 6e 40 53 65 63 75 72 69 74 79 40 57 69 	tion@Security@Wi
  0x6fa40	6e 64 6f 77 73 40 40 50 45 41 55 49 55 73 65 72 	ndows@@PEAUIUser
  0x6fa50	49 64 65 6e 74 69 74 79 40 32 33 34 35 40 40 49 	Identity@2345@@I
  0x6fa60	6e 74 65 72 6e 61 6c 40 46 6f 75 6e 64 61 74 69 	nternal@Foundati
  0x6fa70	6f 6e 40 57 69 6e 64 6f 77 73 40 40 40 46 6f 75 	on@Windows@@@Fou
  0x6fa80	6e 64 61 74 69 6f 6e 40 57 69 6e 64 6f 77 73 40 	ndation@Windows@
  0x6fa90	40 00 00 00 00 00 00 00 00 00 00 00 00 00 00 00 	@000000000000000
  0x6faa0	98 40 05 40 01 00 00 00 00 00 00 00 00 00 00 00 	0@0@000000000000
  0x6fab0	2e 3f 41 55 3f 24 49 49 74 65 72 61 74 6f 72 5f 	.?AU?$IIterator_
  0x6fac0	69 6d 70 6c 40 55 3f 24 41 67 67 72 65 67 61 74 	impl@U?$Aggregat
  0x6fad0	65 54 79 70 65 40 50 45 41 56 4f 6e 6c 69 6e 65 	eType@PEAVOnline
  0x6fae0	49 64 53 65 72 76 69 63 65 54 69 63 6b 65 74 52 	IdServiceTicketR
  0x6faf0	65 71 75 65 73 74 40 4f 6e 6c 69 6e 65 49 64 40 	equest@OnlineId@
  0x6fb00	41 75 74 68 65 6e 74 69 63 61 74 69 6f 6e 40 53 	Authentication@S
  0x6fb10	65 63 75 72 69 74 79 40 57 69 6e 64 6f 77 73 40 	ecurity@Windows@
  0x6fb20	40 50 45 41 55 49 4f 6e 6c 69 6e 65 49 64 53 65 	@PEAUIOnlineIdSe
  0x6fb30	72 76 69 63 65 54 69 63 6b 65 74 52 65 71 75 65 	rviceTicketReque
  0x6fb40	73 74 40 32 33 34 35 40 40 49 6e 74 65 72 6e 61 	st@2345@@Interna
  0x6fb50	6c 40 46 6f 75 6e 64 61 74 69 6f 6e 40 57 69 6e 	l@Foundation@Win
  0x6fb60	64 6f 77 73 40 40 24 30 30 40 43 6f 6c 6c 65 63 	dows@@$00@Collec
  0x6fb70	74 69 6f 6e 73 40 46 6f 75 6e 64 61 74 69 6f 6e 	tions@Foundation
  0x6fb80	40 57 69 6e 64 6f 77 73 40 40 00 00 00 00 00 00 	@Windows@@000000
  0x6fb90	98 40 05 40 01 00 00 00 00 00 00 00 00 00 00 00 	0@0@000000000000
  0x6fba0	2e 3f 41 56 3f 24 52 75 6e 74 69 6d 65 43 6c 61 	.?AV?$RuntimeCla
  0x6fbb0	73 73 40 55 3f 24 52 75 6e 74 69 6d 65 43 6c 61 	ss@U?$RuntimeCla
  0x6fbc0	73 73 46 6c 61 67 73 40 24 30 42 44 40 40 57 52 	ssFlags@$0BD@@WR
  0x6fbd0	4c 40 4d 69 63 72 6f 73 6f 66 74 40 40 55 3f 24 	L@Microsoft@@U?$
  0x6fbe0	49 49 74 65 72 61 62 6c 65 40 50 45 41 56 4f 6e 	IIterable@PEAVOn
  0x6fbf0	6c 69 6e 65 49 64 53 65 72 76 69 63 65 54 69 63 	lineIdServiceTic
  0x6fc00	6b 65 74 52 65 71 75 65 73 74 40 4f 6e 6c 69 6e 	ketRequest@Onlin
  0x6fc10	65 49 64 40 41 75 74 68 65 6e 74 69 63 61 74 69 	eId@Authenticati
  0x6fc20	6f 6e 40 53 65 63 75 72 69 74 79 40 57 69 6e 64 	on@Security@Wind
  0x6fc30	6f 77 73 40 40 40 43 6f 6c 6c 65 63 74 69 6f 6e 	ows@@@Collection
  0x6fc40	73 40 46 6f 75 6e 64 61 74 69 6f 6e 40 57 69 6e 	s@Foundation@Win
  0x6fc50	64 6f 77 73 40 40 40 57 52 4c 40 4d 69 63 72 6f 	dows@@@WRL@Micro
  0x6fc60	73 6f 66 74 40 40 00 00 98 40 05 40 01 00 00 00 	soft@@000@0@0000
  0x6fc70	00 00 00 00 00 00 00 00 2e 3f 41 55 49 49 6e 73 	00000000.?AUIIns
  0x6fc80	70 65 63 74 61 62 6c 65 40 40 00 00 00 00 00 00 	pectable@@000000
  0x6fc90	98 40 05 40 01 00 00 00 00 00 00 00 00 00 00 00 	0@0@000000000000
  0x6fca0	2e 3f 41 56 3f 24 52 75 6e 74 69 6d 65 43 6c 61 	.?AV?$RuntimeCla
  0x6fcb0	73 73 40 55 3f 24 52 75 6e 74 69 6d 65 43 6c 61 	ss@U?$RuntimeCla
  0x6fcc0	73 73 46 6c 61 67 73 40 24 30 42 43 40 40 57 52 	ssFlags@$0BC@@WR
  0x6fcd0	4c 40 4d 69 63 72 6f 73 6f 66 74 40 40 55 3f 24 	L@Microsoft@@U?$
  0x6fce0	49 41 73 79 6e 63 4f 70 65 72 61 74 69 6f 6e 43 	IAsyncOperationC
  0x6fcf0	6f 6d 70 6c 65 74 65 64 48 61 6e 64 6c 65 72 40 	ompletedHandler@
  0x6fd00	50 45 41 56 55 73 65 72 49 64 65 6e 74 69 74 79 	PEAVUserIdentity
  0x6fd10	40 4f 6e 6c 69 6e 65 49 64 40 41 75 74 68 65 6e 	@OnlineId@Authen
  0x6fd20	74 69 63 61 74 69 6f 6e 40 53 65 63 75 72 69 74 	tication@Securit
  0x6fd30	79 40 57 69 6e 64 6f 77 73 40 40 40 46 6f 75 6e 	y@Windows@@@Foun
  0x6fd40	64 61 74 69 6f 6e 40 57 69 6e 64 6f 77 73 40 40 	dation@Windows@@
  0x6fd50	40 57 52 4c 40 4d 69 63 72 6f 73 6f 66 74 40 40 	@WRL@Microsoft@@
  0x6fd60	00 00 00 00 00 00 00 00 00 00 00 00 00 00 00 00 	0000000000000000
  0x6fd70	98 40 05 40 01 00 00 00 00 00 00 00 00 00 00 00 	0@0@000000000000
  0x6fd80	2e 3f 41 55 3f 24 49 49 74 65 72 61 62 6c 65 40 	.?AU?$IIterable@
  0x6fd90	50 45 41 56 4f 6e 6c 69 6e 65 49 64 53 65 72 76 	PEAVOnlineIdServ
  0x6fda0	69 63 65 54 69 63 6b 65 74 52 65 71 75 65 73 74 	iceTicketRequest
  0x6fdb0	40 4f 6e 6c 69 6e 65 49 64 40 41 75 74 68 65 6e 	@OnlineId@Authen
  0x6fdc0	74 69 63 61 74 69 6f 6e 40 53 65 63 75 72 69 74 	tication@Securit
  0x6fdd0	79 40 57 69 6e 64 6f 77 73 40 40 40 43 6f 6c 6c 	y@Windows@@@Coll
  0x6fde0	65 63 74 69 6f 6e 73 40 46 6f 75 6e 64 61 74 69 	ections@Foundati
  0x6fdf0	6f 6e 40 57 69 6e 64 6f 77 73 40 40 00 00 00 00 	on@Windows@@0000
  0x6fe00	98 40 05 40 01 00 00 00 00 00 00 00 00 00 00 00 	0@0@000000000000
  0x6fe10	2e 3f 41 56 57 65 61 6b 52 65 66 65 72 65 6e 63 	.?AVWeakReferenc
  0x6fe20	65 49 6d 70 6c 40 44 65 74 61 69 6c 73 40 57 52 	eImpl@Details@WR
  0x6fe30	4c 40 4d 69 63 72 6f 73 6f 66 74 40 40 00 00 00 	L@Microsoft@@000
  0x6fe40	98 40 05 40 01 00 00 00 00 00 00 00 00 00 00 00 	0@0@000000000000
  0x6fe50	2e 3f 41 56 3f 24 52 75 6e 74 69 6d 65 43 6c 61 	.?AV?$RuntimeCla
  0x6fe60	73 73 40 55 3f 24 52 75 6e 74 69 6d 65 43 6c 61 	ss@U?$RuntimeCla
  0x6fe70	73 73 46 6c 61 67 73 40 24 30 42 44 40 40 57 52 	ssFlags@$0BD@@WR
  0x6fe80	4c 40 4d 69 63 72 6f 73 6f 66 74 40 40 55 3f 24 	L@Microsoft@@U?$
  0x6fe90	49 49 74 65 72 61 74 6f 72 40 50 45 41 56 4f 6e 	IIterator@PEAVOn
  0x6fea0	6c 69 6e 65 49 64 53 65 72 76 69 63 65 54 69 63 	lineIdServiceTic
  0x6feb0	6b 65 74 52 65 71 75 65 73 74 40 4f 6e 6c 69 6e 	ketRequest@Onlin
  0x6fec0	65 49 64 40 41 75 74 68 65 6e 74 69 63 61 74 69 	eId@Authenticati
  0x6fed0	6f 6e 40 53 65 63 75 72 69 74 79 40 57 69 6e 64 	on@Security@Wind
  0x6fee0	6f 77 73 40 40 40 43 6f 6c 6c 65 63 74 69 6f 6e 	ows@@@Collection
  0x6fef0	73 40 46 6f 75 6e 64 61 74 69 6f 6e 40 57 69 6e 	s@Foundation@Win
  0x6ff00	64 6f 77 73 40 40 40 57 52 4c 40 4d 69 63 72 6f 	dows@@@WRL@Micro
  0x6ff10	73 6f 66 74 40 40 00 00 00 00 00 00 00 00 00 00 	soft@@0000000000
  0x6ff20	98 40 05 40 01 00 00 00 00 00 00 00 00 00 00 00 	0@0@000000000000
  0x6ff30	2e 3f 41 56 3f 24 52 75 6e 74 69 6d 65 43 6c 61 	.?AV?$RuntimeCla
  0x6ff40	73 73 49 6d 70 6c 40 55 3f 24 52 75 6e 74 69 6d 	ssImpl@U?$Runtim
  0x6ff50	65 43 6c 61 73 73 46 6c 61 67 73 40 24 30 42 44 	eClassFlags@$0BD
  0x6ff60	40 40 57 52 4c 40 4d 69 63 72 6f 73 6f 66 74 40 	@@WRL@Microsoft@
  0x6ff70	40 24 30 30 24 30 30 24 30 41 40 55 3f 24 49 49 	@$00$00$0A@U?$II
  0x6ff80	74 65 72 61 74 6f 72 40 50 45 41 56 4f 6e 6c 69 	terator@PEAVOnli
  0x6ff90	6e 65 49 64 53 65 72 76 69 63 65 54 69 63 6b 65 	neIdServiceTicke
  0x6ffa0	74 52 65 71 75 65 73 74 40 4f 6e 6c 69 6e 65 49 	tRequest@OnlineI
  0x6ffb0	64 40 41 75 74 68 65 6e 74 69 63 61 74 69 6f 6e 	d@Authentication
  0x6ffc0	40 53 65 63 75 72 69 74 79 40 57 69 6e 64 6f 77 	@Security@Window
  0x6ffd0	73 40 40 40 43 6f 6c 6c 65 63 74 69 6f 6e 73 40 	s@@@Collections@
  0x6ffe0	46 6f 75 6e 64 61 74 69 6f 6e 40 57 69 6e 64 6f 	Foundation@Windo
  0x6fff0	77 73 40 40 40 44 65 74 61 69 6c 73 40 57 52 4c 	ws@@@Details@WRL
  0x70000	40 4d 69 63 72 6f 73 6f 66 74 40 40 00 00 00 00 	@Microsoft@@0000
  0x70010	98 40 05 40 01 00 00 00 00 00 00 00 00 00 00 00 	0@0@000000000000
  0x70020	2e 3f 41 55 3f 24 49 41 73 79 6e 63 4f 70 65 72 	.?AU?$IAsyncOper
  0x70030	61 74 69 6f 6e 43 6f 6d 70 6c 65 74 65 64 48 61 	ationCompletedHa
  0x70040	6e 64 6c 65 72 40 50 45 41 56 55 73 65 72 49 64 	ndler@PEAVUserId
  0x70050	65 6e 74 69 74 79 40 4f 6e 6c 69 6e 65 49 64 40 	entity@OnlineId@
  0x70060	41 75 74 68 65 6e 74 69 63 61 74 69 6f 6e 40 53 	Authentication@S
  0x70070	65 63 75 72 69 74 79 40 57 69 6e 64 6f 77 73 40 	ecurity@Windows@
  0x70080	40 40 46 6f 75 6e 64 61 74 69 6f 6e 40 57 69 6e 	@@Foundation@Win
  0x70090	64 6f 77 73 40 40 00 00 98 40 05 40 01 00 00 00 	dows@@000@0@0000
  0x700a0	00 00 00 00 00 00 00 00 2e 3f 41 56 4f 6e 6c 69 	00000000.?AVOnli
  0x700b0	6e 65 49 64 54 69 63 6b 65 74 56 65 63 74 6f 72 	neIdTicketVector
  0x700c0	40 40 00 00 00 00 00 00 00 00 00 00 00 00 00 00 	@@00000000000000
  0x700d0	98 40 05 40 01 00 00 00 00 00 00 00 00 00 00 00 	0@0@000000000000
  0x700e0	2e 3f 41 56 3f 24 52 75 6e 74 69 6d 65 43 6c 61 	.?AV?$RuntimeCla
  0x700f0	73 73 49 6d 70 6c 40 55 3f 24 52 75 6e 74 69 6d 	ssImpl@U?$Runtim
  0x70100	65 43 6c 61 73 73 46 6c 61 67 73 40 24 30 31 40 	eClassFlags@$01@
  0x70110	57 52 4c 40 4d 69 63 72 6f 73 6f 66 74 40 40 24 	WRL@Microsoft@@$
  0x70120	30 30 24 30 41 40 24 30 41 40 55 49 57 65 61 6b 	00$0A@$0A@UIWeak
  0x70130	52 65 66 65 72 65 6e 63 65 40 40 40 44 65 74 61 	Reference@@@Deta
  0x70140	69 6c 73 40 57 52 4c 40 4d 69 63 72 6f 73 6f 66 	ils@WRL@Microsof
  0x70150	74 40 40 00 00 00 00 00 00 00 00 00 00 00 00 00 	t@@0000000000000
  0x70160	98 40 05 40 01 00 00 00 00 00 00 00 00 00 00 00 	0@0@000000000000
  0x70170	2e 3f 41 55 3f 24 49 6d 70 6c 65 6d 65 6e 74 73 	.?AU?$Implements
  0x70180	48 65 6c 70 65 72 40 55 3f 24 52 75 6e 74 69 6d 	Helper@U?$Runtim
  0x70190	65 43 6c 61 73 73 46 6c 61 67 73 40 24 30 42 44 	eClassFlags@$0BD
  0x701a0	40 40 57 52 4c 40 4d 69 63 72 6f 73 6f 66 74 40 	@@WRL@Microsoft@
  0x701b0	40 24 30 41 40 55 3f 24 49 49 74 65 72 61 74 6f 	@$0A@U?$IIterato
  0x701c0	72 40 50 45 41 56 4f 6e 6c 69 6e 65 49 64 53 65 	r@PEAVOnlineIdSe
  0x701d0	72 76 69 63 65 54 69 63 6b 65 74 52 65 71 75 65 	rviceTicketReque
  0x701e0	73 74 40 4f 6e 6c 69 6e 65 49 64 40 41 75 74 68 	st@OnlineId@Auth
  0x701f0	65 6e 74 69 63 61 74 69 6f 6e 40 53 65 63 75 72 	entication@Secur
  0x70200	69 74 79 40 57 69 6e 64 6f 77 73 40 40 40 43 6f 	ity@Windows@@@Co
  0x70210	6c 6c 65 63 74 69 6f 6e 73 40 46 6f 75 6e 64 61 	llections@Founda
  0x70220	74 69 6f 6e 40 57 69 6e 64 6f 77 73 40 40 55 49 	tion@Windows@@UI
  0x70230	57 65 61 6b 52 65 66 65 72 65 6e 63 65 53 6f 75 	WeakReferenceSou
  0x70240	72 63 65 40 40 40 44 65 74 61 69 6c 73 40 57 52 	rce@@@Details@WR
  0x70250	4c 40 4d 69 63 72 6f 73 6f 66 74 40 40 00 00 00 	L@Microsoft@@000
  0x70260	98 40 05 40 01 00 00 00 00 00 00 00 00 00 00 00 	0@0@000000000000
  0x70270	2e 3f 41 56 3f 24 52 75 6e 74 69 6d 65 43 6c 61 	.?AV?$RuntimeCla
  0x70280	73 73 49 6d 70 6c 40 55 3f 24 52 75 6e 74 69 6d 	ssImpl@U?$Runtim
  0x70290	65 43 6c 61 73 73 46 6c 61 67 73 40 24 30 42 43 	eClassFlags@$0BC
  0x702a0	40 40 57 52 4c 40 4d 69 63 72 6f 73 6f 66 74 40 	@@WRL@Microsoft@
  0x702b0	40 24 30 30 24 30 41 40 24 30 41 40 55 3f 24 49 	@$00$0A@$0A@U?$I
  0x702c0	41 73 79 6e 63 4f 70 65 72 61 74 69 6f 6e 43 6f 	AsyncOperationCo
  0x702d0	6d 70 6c 65 74 65 64 48 61 6e 64 6c 65 72 40 50 	mpletedHandler@P
  0x702e0	45 41 56 55 73 65 72 49 64 65 6e 74 69 74 79 40 	EAVUserIdentity@
  0x702f0	4f 6e 6c 69 6e 65 49 64 40 41 75 74 68 65 6e 74 	OnlineId@Authent
  0x70300	69 63 61 74 69 6f 6e 40 53 65 63 75 72 69 74 79 	ication@Security
  0x70310	40 57 69 6e 64 6f 77 73 40 40 40 46 6f 75 6e 64 	@Windows@@@Found
  0x70320	61 74 69 6f 6e 40 57 69 6e 64 6f 77 73 40 40 40 	ation@Windows@@@
  0x70330	44 65 74 61 69 6c 73 40 57 52 4c 40 4d 69 63 72 	Details@WRL@Micr
  0x70340	6f 73 6f 66 74 40 40 00 00 00 00 00 00 00 00 00 	osoft@@000000000
  0x70350	98 40 05 40 01 00 00 00 00 00 00 00 00 00 00 00 	0@0@000000000000
  0x70360	2e 3f 41 56 3f 24 41 75 74 68 65 6e 74 69 63 61 	.?AV?$Authentica
  0x70370	74 69 6f 6e 43 6f 6d 70 6c 65 74 65 64 48 61 6e 	tionCompletedHan
  0x70380	64 6c 65 72 40 55 3f 24 49 41 73 79 6e 63 4f 70 	dler@U?$IAsyncOp
  0x70390	65 72 61 74 69 6f 6e 40 50 45 41 56 55 73 65 72 	eration@PEAVUser
  0x703a0	49 64 65 6e 74 69 74 79 40 4f 6e 6c 69 6e 65 49 	Identity@OnlineI
  0x703b0	64 40 41 75 74 68 65 6e 74 69 63 61 74 69 6f 6e 	d@Authentication
  0x703c0	40 53 65 63 75 72 69 74 79 40 57 69 6e 64 6f 77 	@Security@Window
  0x703d0	73 40 40 40 46 6f 75 6e 64 61 74 69 6f 6e 40 57 	s@@@Foundation@W
  0x703e0	69 6e 64 6f 77 73 40 40 55 3f 24 49 41 73 79 6e 	indows@@U?$IAsyn
  0x703f0	63 4f 70 65 72 61 74 69 6f 6e 43 6f 6d 70 6c 65 	cOperationComple
  0x70400	74 65 64 48 61 6e 64 6c 65 72 40 50 45 41 56 55 	tedHandler@PEAVU
  0x70410	73 65 72 49 64 65 6e 74 69 74 79 40 4f 6e 6c 69 	serIdentity@Onli
  0x70420	6e 65 49 64 40 41 75 74 68 65 6e 74 69 63 61 74 	neId@Authenticat
  0x70430	69 6f 6e 40 53 65 63 75 72 69 74 79 40 57 69 6e 	ion@Security@Win
  0x70440	64 6f 77 73 40 40 40 32 33 40 40 4d 70 57 69 6e 	dows@@@23@@MpWin
  0x70450	52 54 40 40 00 00 00 00 00 00 00 00 00 00 00 00 	RT@@000000000000
  0x70460	98 40 05 40 01 00 00 00 00 00 00 00 00 00 00 00 	0@0@000000000000
  0x70470	2e 3f 41 56 3f 24 52 75 6e 74 69 6d 65 43 6c 61 	.?AV?$RuntimeCla
  0x70480	73 73 42 61 73 65 54 40 24 30 31 40 44 65 74 61 	ssBaseT@$01@Deta
  0x70490	69 6c 73 40 57 52 4c 40 4d 69 63 72 6f 73 6f 66 	ils@WRL@Microsof
  0x704a0	74 40 40 00 00 00 00 00 00 00 00 00 00 00 00 00 	t@@0000000000000
  0x704b0	98 40 05 40 01 00 00 00 00 00 00 00 00 00 00 00 	0@0@000000000000
  0x704c0	2e 3f 41 55 3f 24 49 6d 70 6c 65 6d 65 6e 74 73 	.?AU?$Implements
  0x704d0	48 65 6c 70 65 72 40 55 3f 24 52 75 6e 74 69 6d 	Helper@U?$Runtim
  0x704e0	65 43 6c 61 73 73 46 6c 61 67 73 40 24 30 42 44 	eClassFlags@$0BD
  0x704f0	40 40 57 52 4c 40 4d 69 63 72 6f 73 6f 66 74 40 	@@WRL@Microsoft@
  0x70500	40 24 30 41 40 55 3f 24 49 49 74 65 72 61 62 6c 	@$0A@U?$IIterabl
  0x70510	65 40 50 45 41 56 4f 6e 6c 69 6e 65 49 64 53 65 	e@PEAVOnlineIdSe
  0x70520	72 76 69 63 65 54 69 63 6b 65 74 52 65 71 75 65 	rviceTicketReque
  0x70530	73 74 40 4f 6e 6c 69 6e 65 49 64 40 41 75 74 68 	st@OnlineId@Auth
  0x70540	65 6e 74 69 63 61 74 69 6f 6e 40 53 65 63 75 72 	entication@Secur
  0x70550	69 74 79 40 57 69 6e 64 6f 77 73 40 40 40 43 6f 	ity@Windows@@@Co
  0x70560	6c 6c 65 63 74 69 6f 6e 73 40 46 6f 75 6e 64 61 	llections@Founda
  0x70570	74 69 6f 6e 40 57 69 6e 64 6f 77 73 40 40 55 49 	tion@Windows@@UI
  0x70580	57 65 61 6b 52 65 66 65 72 65 6e 63 65 53 6f 75 	WeakReferenceSou
  0x70590	72 63 65 40 40 40 44 65 74 61 69 6c 73 40 57 52 	rce@@@Details@WR
  0x705a0	4c 40 4d 69 63 72 6f 73 6f 66 74 40 40 00 00 00 	L@Microsoft@@000
  0x705b0	98 40 05 40 01 00 00 00 00 00 00 00 00 00 00 00 	0@0@000000000000
  0x705c0	2e 3f 41 55 3f 24 52 75 6e 74 69 6d 65 43 6c 61 	.?AU?$RuntimeCla
  0x705d0	73 73 46 6c 61 67 73 40 24 30 33 40 57 52 4c 40 	ssFlags@$03@WRL@
  0x705e0	4d 69 63 72 6f 73 6f 66 74 40 40 00 00 00 00 00 	Microsoft@@00000
  0x705f0	98 40 05 40 01 00 00 00 00 00 00 00 00 00 00 00 	0@0@000000000000
  0x70600	2e 3f 41 56 3f 24 52 75 6e 74 69 6d 65 43 6c 61 	.?AV?$RuntimeCla
  0x70610	73 73 49 6d 70 6c 40 55 3f 24 52 75 6e 74 69 6d 	ssImpl@U?$Runtim
  0x70620	65 43 6c 61 73 73 46 6c 61 67 73 40 24 30 42 44 	eClassFlags@$0BD
  0x70630	40 40 57 52 4c 40 4d 69 63 72 6f 73 6f 66 74 40 	@@WRL@Microsoft@
  0x70640	40 24 30 30 24 30 30 24 30 41 40 55 3f 24 49 49 	@$00$00$0A@U?$II
  0x70650	74 65 72 61 62 6c 65 40 50 45 41 56 4f 6e 6c 69 	terable@PEAVOnli
  0x70660	6e 65 49 64 53 65 72 76 69 63 65 54 69 63 6b 65 	neIdServiceTicke
  0x70670	74 52 65 71 75 65 73 74 40 4f 6e 6c 69 6e 65 49 	tRequest@OnlineI
  0x70680	64 40 41 75 74 68 65 6e 74 69 63 61 74 69 6f 6e 	d@Authentication
  0x70690	40 53 65 63 75 72 69 74 79 40 57 69 6e 64 6f 77 	@Security@Window
  0x706a0	73 40 40 40 43 6f 6c 6c 65 63 74 69 6f 6e 73 40 	s@@@Collections@
  0x706b0	46 6f 75 6e 64 61 74 69 6f 6e 40 57 69 6e 64 6f 	Foundation@Windo
  0x706c0	77 73 40 40 40 44 65 74 61 69 6c 73 40 57 52 4c 	ws@@@Details@WRL
  0x706d0	40 4d 69 63 72 6f 73 6f 66 74 40 40 00 00 00 00 	@Microsoft@@0000
  0x706e0	98 40 05 40 01 00 00 00 00 00 00 00 00 00 00 00 	0@0@000000000000
  0x706f0	2e 3f 41 56 3f 24 52 75 6e 74 69 6d 65 43 6c 61 	.?AV?$RuntimeCla
  0x70700	73 73 42 61 73 65 54 40 24 30 42 44 40 40 44 65 	ssBaseT@$0BD@@De
  0x70710	74 61 69 6c 73 40 57 52 4c 40 4d 69 63 72 6f 73 	tails@WRL@Micros
  0x70720	6f 66 74 40 40 00 00 00 00 00 00 00 00 00 00 00 	oft@@00000000000
  0x70730	98 40 05 40 01 00 00 00 00 00 00 00 00 00 00 00 	0@0@000000000000
  0x70740	2e 3f 41 55 3f 24 49 6d 70 6c 65 6d 65 6e 74 73 	.?AU?$Implements
  0x70750	48 65 6c 70 65 72 40 55 3f 24 52 75 6e 74 69 6d 	Helper@U?$Runtim
  0x70760	65 43 6c 61 73 73 46 6c 61 67 73 40 24 30 31 40 	eClassFlags@$01@
  0x70770	57 52 4c 40 4d 69 63 72 6f 73 6f 66 74 40 40 24 	WRL@Microsoft@@$
  0x70780	30 41 40 55 49 57 65 61 6b 52 65 66 65 72 65 6e 	0A@UIWeakReferen
  0x70790	63 65 40 40 40 44 65 74 61 69 6c 73 40 57 52 4c 	ce@@@Details@WRL
  0x707a0	40 4d 69 63 72 6f 73 6f 66 74 40 40 00 00 00 00 	@Microsoft@@0000
  0x707b0	98 40 05 40 01 00 00 00 00 00 00 00 00 00 00 00 	0@0@000000000000
  0x707c0	2e 3f 41 55 3f 24 49 49 74 65 72 61 74 6f 72 40 	.?AU?$IIterator@
  0x707d0	50 45 41 56 4f 6e 6c 69 6e 65 49 64 53 65 72 76 	PEAVOnlineIdServ
  0x707e0	69 63 65 54 69 63 6b 65 74 52 65 71 75 65 73 74 	iceTicketRequest
  0x707f0	40 4f 6e 6c 69 6e 65 49 64 40 41 75 74 68 65 6e 	@OnlineId@Authen
  0x70800	74 69 63 61 74 69 6f 6e 40 53 65 63 75 72 69 74 	tication@Securit
  0x70810	79 40 57 69 6e 64 6f 77 73 40 40 40 43 6f 6c 6c 	y@Windows@@@Coll
  0x70820	65 63 74 69 6f 6e 73 40 46 6f 75 6e 64 61 74 69 	ections@Foundati
  0x70830	6f 6e 40 57 69 6e 64 6f 77 73 40 40 00 00 00 00 	on@Windows@@0000
  0x70840	98 40 05 40 01 00 00 00 00 00 00 00 00 00 00 00 	0@0@000000000000
  0x70850	2e 3f 41 56 44 6f 6e 74 55 73 65 4e 65 77 55 73 	.?AVDontUseNewUs
  0x70860	65 4d 61 6b 65 40 44 65 74 61 69 6c 73 40 57 52 	eMake@Details@WR
  0x70870	4c 40 4d 69 63 72 6f 73 6f 66 74 40 40 00 00 00 	L@Microsoft@@000
  0x70880	98 40 05 40 01 00 00 00 00 00 00 00 00 00 00 00 	0@0@000000000000
  0x70890	2e 3f 41 56 4f 6e 6c 69 6e 65 49 64 54 69 63 6b 	.?AVOnlineIdTick
  0x708a0	65 74 49 74 65 72 61 74 6f 72 40 40 00 00 00 00 	etIterator@@0000
  0x708b0	98 40 05 40 01 00 00 00 00 00 00 00 00 00 00 00 	0@0@000000000000
  0x708c0	2e 3f 41 55 3f 24 49 6d 70 6c 65 6d 65 6e 74 73 	.?AU?$Implements
  0x708d0	48 65 6c 70 65 72 40 55 3f 24 52 75 6e 74 69 6d 	Helper@U?$Runtim
  0x708e0	65 43 6c 61 73 73 46 6c 61 67 73 40 24 30 31 40 	eClassFlags@$01@
  0x708f0	57 52 4c 40 4d 69 63 72 6f 73 6f 66 74 40 40 24 	WRL@Microsoft@@$
  0x70900	30 30 24 24 56 40 44 65 74 61 69 6c 73 40 57 52 	00$$V@Details@WR
  0x70910	4c 40 4d 69 63 72 6f 73 6f 66 74 40 40 00 00 00 	L@Microsoft@@000
  0x70920	98 40 05 40 01 00 00 00 00 00 00 00 00 00 00 00 	0@0@000000000000
  0x70930	2e 3f 41 56 3f 24 52 75 6e 74 69 6d 65 43 6c 61 	.?AV?$RuntimeCla
  0x70940	73 73 40 55 3f 24 52 75 6e 74 69 6d 65 43 6c 61 	ss@U?$RuntimeCla
  0x70950	73 73 46 6c 61 67 73 40 24 30 31 40 57 52 4c 40 	ssFlags@$01@WRL@
  0x70960	4d 69 63 72 6f 73 6f 66 74 40 40 55 49 57 65 61 	Microsoft@@UIWea
  0x70970	6b 52 65 66 65 72 65 6e 63 65 40 40 40 57 52 4c 	kReference@@@WRL
  0x70980	40 4d 69 63 72 6f 73 6f 66 74 40 40 00 00 00 00 	@Microsoft@@0000
  0x70990	98 40 05 40 01 00 00 00 00 00 00 00 00 00 00 00 	0@0@000000000000
  0x709a0	2e 3f 41 55 3f 24 49 6d 70 6c 65 6d 65 6e 74 73 	.?AU?$Implements
  0x709b0	48 65 6c 70 65 72 40 55 3f 24 52 75 6e 74 69 6d 	Helper@U?$Runtim
  0x709c0	65 43 6c 61 73 73 46 6c 61 67 73 40 24 30 42 44 	eClassFlags@$0BD
  0x709d0	40 40 57 52 4c 40 4d 69 63 72 6f 73 6f 66 74 40 	@@WRL@Microsoft@
  0x709e0	40 24 30 30 24 24 56 40 44 65 74 61 69 6c 73 40 	@$00$$V@Details@
  0x709f0	57 52 4c 40 4d 69 63 72 6f 73 6f 66 74 40 40 00 	WRL@Microsoft@@0
  0x70a00	98 40 05 40 01 00 00 00 00 00 00 00 00 00 00 00 	0@0@000000000000
  0x70a10	2e 3f 41 55 3f 24 49 6d 70 6c 65 6d 65 6e 74 73 	.?AU?$Implements
  0x70a20	48 65 6c 70 65 72 40 55 3f 24 52 75 6e 74 69 6d 	Helper@U?$Runtim
  0x70a30	65 43 6c 61 73 73 46 6c 61 67 73 40 24 30 42 43 	eClassFlags@$0BC
  0x70a40	40 40 57 52 4c 40 4d 69 63 72 6f 73 6f 66 74 40 	@@WRL@Microsoft@
  0x70a50	40 24 30 41 40 55 3f 24 49 41 73 79 6e 63 4f 70 	@$0A@U?$IAsyncOp
  0x70a60	65 72 61 74 69 6f 6e 43 6f 6d 70 6c 65 74 65 64 	erationCompleted
  0x70a70	48 61 6e 64 6c 65 72 40 50 45 41 56 55 73 65 72 	Handler@PEAVUser
  0x70a80	49 64 65 6e 74 69 74 79 40 4f 6e 6c 69 6e 65 49 	Identity@OnlineI
  0x70a90	64 40 41 75 74 68 65 6e 74 69 63 61 74 69 6f 6e 	d@Authentication
  0x70aa0	40 53 65 63 75 72 69 74 79 40 57 69 6e 64 6f 77 	@Security@Window
  0x70ab0	73 40 40 40 46 6f 75 6e 64 61 74 69 6f 6e 40 57 	s@@@Foundation@W
  0x70ac0	69 6e 64 6f 77 73 40 40 40 44 65 74 61 69 6c 73 	indows@@@Details
  0x70ad0	40 57 52 4c 40 4d 69 63 72 6f 73 6f 66 74 40 40 	@WRL@Microsoft@@
  0x70ae0	00 00 00 00 00 00 00 00 98 40 05 40 01 00 00 00 	000000000@0@0000
  0x70af0	00 00 00 00 00 00 00 00 2e 3f 41 56 4c 6f 67 46 	00000000.?AVLogF
  0x70b00	69 6c 65 40 40 00 00 00 98 40 05 40 01 00 00 00 	ile@@0000@0@0000
  0x70b10	00 00 00 00 00 00 00 00 2e 3f 41 56 43 45 6d 62 	00000000.?AVCEmb
  0x70b20	65 64 64 65 64 46 69 6c 65 73 40 40 00 00 00 00 	eddedFiles@@0000
  0x70b30	98 40 05 40 01 00 00 00 00 00 00 00 00 00 00 00 	0@0@000000000000
  0x70b40	2e 3f 41 56 43 50 74 72 4f 62 6a 65 63 74 40 43 	.?AVCPtrObject@C
  0x70b50	6f 6d 6d 6f 6e 55 74 69 6c 40 40 00 00 00 00 00 	ommonUtil@@00000
  0x70b60	98 40 05 40 01 00 00 00 00 00 00 00 00 00 00 00 	0@0@000000000000
  0x70b70	2e 3f 41 56 43 46 6c 61 74 45 6e 75 6d 46 69 6c 	.?AVCFlatEnumFil
  0x70b80	65 73 40 43 6f 6d 6d 6f 6e 55 74 69 6c 40 40 00 	es@CommonUtil@@0
  0x70b90	98 40 05 40 01 00 00 00 00 00 00 00 00 00 00 00 	0@0@000000000000
  0x70ba0	2e 3f 41 55 49 45 6e 75 6d 46 69 6c 65 73 40 43 	.?AUIEnumFiles@C
  0x70bb0	6f 6d 6d 6f 6e 55 74 69 6c 40 40 00 00 00 00 00 	ommonUtil@@00000
  0x70bc0	98 40 05 40 01 00 00 00 00 00 00 00 00 00 00 00 	0@0@000000000000
  0x70bd0	2e 3f 41 56 3f 24 43 52 65 66 4f 62 6a 65 63 74 	.?AV?$CRefObject
  0x70be0	46 6f 72 40 55 49 45 6e 75 6d 46 69 6c 65 73 40 	For@UIEnumFiles@
  0x70bf0	43 6f 6d 6d 6f 6e 55 74 69 6c 40 40 40 43 6f 6d 	CommonUtil@@@Com
  0x70c00	6d 6f 6e 55 74 69 6c 40 40 00 00 00 00 00 00 00 	monUtil@@0000000
  0x70c10	98 40 05 40 01 00 00 00 00 00 00 00 00 00 00 00 	0@0@000000000000
  0x70c20	2e 3f 41 55 49 52 65 66 4f 62 6a 65 63 74 40 43 	.?AUIRefObject@C
  0x70c30	6f 6d 6d 6f 6e 55 74 69 6c 40 40 00 00 00 00 00 	ommonUtil@@00000
  0x70c40	98 40 05 40 01 00 00 00 00 00 00 00 00 00 00 00 	0@0@000000000000
  0x70c50	2e 3f 41 55 49 43 6d 64 4f 70 74 69 6f 6e 73 4c 	.?AUICmdOptionsL
  0x70c60	6f 6f 6b 75 70 40 43 6f 6d 6d 6f 6e 55 74 69 6c 	ookup@CommonUtil
  0x70c70	40 40 00 00 00 00 00 00 98 40 05 40 01 00 00 00 	@@0000000@0@0000
  0x70c80	00 00 00 00 00 00 00 00 2e 3f 41 56 43 53 74 72 	00000000.?AVCStr
  0x70c90	41 72 67 73 49 74 65 72 40 43 6f 6d 6d 6f 6e 55 	ArgsIter@CommonU
  0x70ca0	74 69 6c 40 40 00 00 00 00 00 00 00 00 00 00 00 	til@@00000000000
  0x70cb0	98 40 05 40 01 00 00 00 00 00 00 00 00 00 00 00 	0@0@000000000000
  0x70cc0	2e 3f 41 56 3f 24 43 52 65 66 4f 62 6a 65 63 74 	.?AV?$CRefObject
  0x70cd0	46 6f 72 40 55 3f 24 49 53 69 6d 70 6c 65 49 74 	For@U?$ISimpleIt
  0x70ce0	65 72 61 74 6f 72 40 24 24 43 42 5f 57 40 43 6f 	erator@$$CB_W@Co
  0x70cf0	6d 6d 6f 6e 55 74 69 6c 40 40 40 43 6f 6d 6d 6f 	mmonUtil@@@Commo
  0x70d00	6e 55 74 69 6c 40 40 00 98 40 05 40 01 00 00 00 	nUtil@@00@0@0000
  0x70d10	00 00 00 00 00 00 00 00 2e 3f 41 55 3f 24 49 53 	00000000.?AU?$IS
  0x70d20	69 6d 70 6c 65 49 74 65 72 61 74 6f 72 40 24 24 	impleIterator@$$
  0x70d30	43 42 5f 57 40 43 6f 6d 6d 6f 6e 55 74 69 6c 40 	CB_W@CommonUtil@
  0x70d40	40 00 00 00 00 00 00 00 98 40 05 40 01 00 00 00 	@00000000@0@0000
  0x70d50	00 00 00 00 00 00 00 00 2e 3f 41 56 43 43 6d 64 	00000000.?AVCCmd
  0x70d60	4f 70 74 69 6f 6e 73 4c 6f 6f 6b 75 70 4d 61 70 	OptionsLookupMap
  0x70d70	40 43 6f 6d 6d 6f 6e 55 74 69 6c 40 40 00 00 00 	@CommonUtil@@000
  0x70d80	98 40 05 40 01 00 00 00 00 00 00 00 00 00 00 00 	0@0@000000000000
  0x70d90	2e 3f 41 56 43 53 69 6d 70 6c 65 4d 61 70 49 74 	.?AVCSimpleMapIt
  0x70da0	65 6d 40 43 43 6d 64 4f 70 74 69 6f 6e 73 4c 6f 	em@CCmdOptionsLo
  0x70db0	6f 6b 75 70 4d 61 70 40 43 6f 6d 6d 6f 6e 55 74 	okupMap@CommonUt
  0x70dc0	69 6c 40 40 00 00 00 00 00 00 00 00 00 00 00 00 	il@@000000000000
  0x70dd0	98 40 05 40 01 00 00 00 00 00 00 00 00 00 00 00 	0@0@000000000000
  0x70de0	2e 3f 41 56 3f 24 43 52 65 66 4f 62 6a 65 63 74 	.?AV?$CRefObject
  0x70df0	46 6f 72 40 55 49 43 6d 64 4f 70 74 69 6f 6e 73 	For@UICmdOptions
  0x70e00	4c 6f 6f 6b 75 70 40 43 6f 6d 6d 6f 6e 55 74 69 	Lookup@CommonUti
  0x70e10	6c 40 40 40 43 6f 6d 6d 6f 6e 55 74 69 6c 40 40 	l@@@CommonUtil@@
  0x70e20	00 00 00 00 00 00 00 00 98 40 05 40 01 00 00 00 	000000000@0@0000
  0x70e30	00 00 00 00 00 00 00 00 2e 3f 41 56 49 4d 70 43 	00000000.?AVIMpC
  0x70e40	72 79 70 74 48 61 73 68 53 74 72 65 61 6d 40 43 	ryptHashStream@C
  0x70e50	6f 6d 6d 6f 6e 55 74 69 6c 40 40 00 00 00 00 00 	ommonUtil@@00000
  0x70e60	98 40 05 40 01 00 00 00 00 00 00 00 00 00 00 00 	0@0@000000000000
  0x70e70	2e 3f 41 56 43 4d 70 43 72 79 70 74 48 61 73 68 	.?AVCMpCryptHash
  0x70e80	53 74 72 65 61 6d 56 69 73 74 61 40 43 4d 70 43 	StreamVista@CMpC
  0x70e90	72 79 70 74 50 72 6f 76 69 64 65 72 56 69 73 74 	ryptProviderVist
  0x70ea0	61 40 43 6f 6d 6d 6f 6e 55 74 69 6c 40 40 00 00 	a@CommonUtil@@00
  0x70eb0	98 40 05 40 01 00 00 00 00 00 00 00 00 00 00 00 	0@0@000000000000
  0x70ec0	2e 3f 41 56 43 4d 70 43 72 79 70 74 48 61 73 68 	.?AVCMpCryptHash
  0x70ed0	53 74 72 65 61 6d 44 6f 77 6e 6c 65 76 65 6c 40 	StreamDownlevel@
  0x70ee0	43 4d 70 43 72 79 70 74 50 72 6f 76 69 64 65 72 	CMpCryptProvider
  0x70ef0	44 6f 77 6e 6c 65 76 65 6c 40 43 6f 6d 6d 6f 6e 	Downlevel@Common
  0x70f00	55 74 69 6c 40 40 00 00 98 40 05 40 01 00 00 00 	Util@@000@0@0000
  0x70f10	00 00 00 00 00 00 00 00 2e 3f 41 56 49 4d 70 43 	00000000.?AVIMpC
  0x70f20	72 79 70 74 50 72 6f 76 69 64 65 72 40 43 6f 6d 	ryptProvider@Com
  0x70f30	6d 6f 6e 55 74 69 6c 40 40 00 00 00 00 00 00 00 	monUtil@@0000000
  0x70f40	98 40 05 40 01 00 00 00 00 00 00 00 00 00 00 00 	0@0@000000000000
  0x70f50	2e 3f 41 56 43 4d 70 43 72 79 70 74 50 72 6f 76 	.?AVCMpCryptProv
  0x70f60	69 64 65 72 44 6f 77 6e 6c 65 76 65 6c 40 43 6f 	iderDownlevel@Co
  0x70f70	6d 6d 6f 6e 55 74 69 6c 40 40 00 00 00 00 00 00 	mmonUtil@@000000
  0x70f80	98 40 05 40 01 00 00 00 00 00 00 00 00 00 00 00 	0@0@000000000000
  0x70f90	2e 3f 41 56 43 4d 70 43 72 79 70 74 50 72 6f 76 	.?AVCMpCryptProv
  0x70fa0	69 64 65 72 56 69 73 74 61 40 43 6f 6d 6d 6f 6e 	iderVista@Common
  0x70fb0	55 74 69 6c 40 40 00 00 98 40 05 40 01 00 00 00 	Util@@000@0@0000
  0x70fc0	00 00 00 00 00 00 00 00 2e 3f 41 56 43 4d 70 47 	00000000.?AVCMpG
  0x70fd0	6c 6f 62 61 6c 56 61 72 73 54 61 62 6c 65 40 43 	lobalVarsTable@C
  0x70fe0	6f 6d 6d 6f 6e 55 74 69 6c 40 40 00 00 00 00 00 	ommonUtil@@00000
  0x70ff0	98 40 05 40 01 00 00 00 00 00 00 00 00 00 00 00 	0@0@000000000000
  0x71000	2e 3f 41 56 43 4d 70 55 74 69 6c 73 4c 69 62 72 	.?AVCMpUtilsLibr
  0x71010	61 72 79 40 43 6f 6d 6d 6f 6e 55 74 69 6c 40 40 	ary@CommonUtil@@
  0x71020	00 00 00 00 00 00 00 00 98 40 05 40 01 00 00 00 	000000000@0@0000
  0x71030	00 00 00 00 00 00 00 00 2e 3f 41 56 43 50 74 72 	00000000.?AVCPtr
  0x71040	4f 62 6a 65 63 74 50 72 6f 63 65 73 73 48 65 61 	ObjectProcessHea
  0x71050	70 40 43 6f 6d 6d 6f 6e 55 74 69 6c 40 40 00 00 	p@CommonUtil@@00
  0x71060	98 40 05 40 01 00 00 00 00 00 00 00 00 00 00 00 	0@0@000000000000
  0x71070	2e 3f 41 56 43 50 72 65 64 65 66 69 6e 65 64 4d 	.?AVCPredefinedM
  0x71080	70 48 65 61 70 73 48 6f 6c 64 65 72 40 43 6f 6d 	pHeapsHolder@Com
  0x71090	6d 6f 6e 55 74 69 6c 40 40 00 00 00 00 00 00 00 	monUtil@@0000000
  0x710a0	98 40 05 40 01 00 00 00 00 00 00 00 00 00 00 00 	0@0@000000000000
  0x710b0	2e 3f 41 56 43 52 65 63 75 72 73 69 76 65 45 6e 	.?AVCRecursiveEn
  0x710c0	75 6d 46 69 6c 65 73 40 43 6f 6d 6d 6f 6e 55 74 	umFiles@CommonUt
  0x710d0	69 6c 40 40 00 00 00 00 00 00 00 00 00 00 00 00 	il@@000000000000
  0x710e0	0c 00 00 00 08 00 00 00 02 00 00 00 00 00 00 00 	0000000000000000
  0x710f0	00 00 00 00 00 00 00 00 00 00 00 00 00 00 00 00 	0000000000000000
  0x71100	00 00 00 00 01 20 00 00 00 00 00 00 00 00 00 00 	00000 0000000000
  0x71110	00 00 00 00 00 00 00 00 00 00 00 00 00 00 00 00 	0000000000000000
  0x71120	00 00 00 00 00 00 00 00 00 00 00 00 00 00 00 00 	0000000000000000
  0x71130	00 00 00 00 00 00 00 00 00 00 00 00 00 00 00 00 	0000000000000000
  0x71140	00 00 00 00 00 00 00 00 00 00 00 00 00 00 00 00 	0000000000000000
  0x71150	00 00 00 00 00 00 00 00 00 00 00 00 02 20 00 00 	0000000000000 00
  0x71160	01 00 00 00 00 00 00 00 00 00 00 00 00 00 00 00 	0000000000000000
  0x71170	00 00 00 00 00 00 00 00 00 00 00 00 00 00 00 00 	0000000000000000
  0x71180	00 00 00 00 00 00 00 00 00 00 00 00 00 00 00 00 	0000000000000000
  0x71190	00 00 00 00 00 00 00 00 00 00 00 00 00 00 00 00 	0000000000000000
  0x711a0	00 00 00 00 00 00 00 00 00 00 00 00 00 00 00 00 	0000000000000000
  0x711b0	00 00 00 00 02 20 00 00 02 00 00 00 00 00 00 00 	00000 0000000000
  0x711c0	00 00 00 00 00 00 00 00 00 00 00 00 00 00 00 00 	0000000000000000
  0x711d0	00 00 00 00 00 00 00 00 00 00 00 00 00 00 00 00 	0000000000000000
  0x711e0	00 00 00 00 00 00 00 00 00 00 00 00 00 00 00 00 	0000000000000000
  0x711f0	00 00 00 00 00 00 00 00 ff ff ff ff 43 00 00 00 	000000000000C000
  0x71200	00 00 00 00 00 00 00 00 00 00 00 00 00 00 00 00 	0000000000000000
  0x71210	00 00 00 00 00 00 00 00 00 00 00 00 00 00 00 00 	0000000000000000
  0x71220	00 00 00 00 00 00 00 00 ff ff ff ff ff ff ff ff 	0000000000000000
  0x71230	00 00 00 00 00 00 00 00 80 00 0a 0a 0a 00 00 00 	0000000000000000
  0x71240	00 00 00 00 00 00 00 00 00 00 00 00 00 00 00 00 	0000000000000000
  0x71250	00 00 00 00 00 00 00 00 00 00 00 00 00 00 00 00 	0000000000000000
  0x71260	00 00 00 00 00 00 00 00 00 00 00 00 00 00 00 00 	0000000000000000
  0x71270	00 00 00 00 00 00 00 00 00 00 00 00 00 00 00 00 	0000000000000000
  0x71280	00 00 00 00 00 00 00 00 00 00 00 00 00 00 00 00 	0000000000000000
  0x71290	00 00 00 00 00 00 00 00 00 00 00 00 00 00 00 00 	0000000000000000
  0x712a0	00 00 00 00 00 00 00 00 00 00 10 10 10 10 10 10 	0000000000000000
  0x712b0	10 10 10 10 10 10 10 10 10 10 10 10 10 10 10 10 	0000000000000000
  0x712c0	10 10 10 10 00 00 00 00 00 00 20 20 20 20 20 20 	0000000000      
  0x712d0	20 20 20 20 20 20 20 20 20 20 20 20 20 20 20 20 	                
  0x712e0	20 20 20 20 00 00 00 00 00 00 00 00 00 00 00 00 	    000000000000
  0x712f0	00 00 00 00 00 00 00 00 00 00 00 00 00 00 00 00 	0000000000000000
  0x71300	00 00 00 00 00 00 00 00 00 00 00 00 00 00 00 00 	0000000000000000
  0x71310	00 00 00 00 00 00 00 00 00 00 00 00 00 00 00 00 	0000000000000000
  0x71320	00 00 00 00 00 00 00 00 00 00 00 00 00 00 00 00 	0000000000000000
  0x71330	00 00 00 00 00 00 00 00 00 00 00 00 00 00 00 00 	0000000000000000
  0x71340	00 00 00 00 00 00 00 00 00 00 00 00 00 00 00 00 	0000000000000000
  0x71350	00 00 00 00 00 00 00 00 00 00 00 00 00 00 00 00 	0000000000000000
  0x71360	00 00 00 00 00 00 00 00 00 00 00 00 00 00 00 00 	0000000000000000
  0x71370	00 00 00 00 00 00 00 00 00 00 00 00 00 00 00 00 	0000000000000000
  0x71380	00 00 00 00 00 00 00 00 00 00 00 00 00 00 00 00 	0000000000000000
  0x71390	00 00 00 00 00 00 00 00 00 00 00 00 00 00 00 00 	0000000000000000
  0x713a0	00 00 00 00 00 00 00 00 00 00 61 62 63 64 65 66 	0000000000abcdef
  0x713b0	67 68 69 6a 6b 6c 6d 6e 6f 70 71 72 73 74 75 76 	ghijklmnopqrstuv
  0x713c0	77 78 79 7a 00 00 00 00 00 00 41 42 43 44 45 46 	wxyz000000ABCDEF
  0x713d0	47 48 49 4a 4b 4c 4d 4e 4f 50 51 52 53 54 55 56 	GHIJKLMNOPQRSTUV
  0x713e0	57 58 59 5a 00 00 00 00 00 00 00 00 00 00 00 00 	WXYZ000000000000
  0x713f0	00 00 00 00 00 00 00 00 00 00 00 00 00 00 00 00 	0000000000000000
  0x71400	00 00 00 00 00 00 00 00 00 00 00 00 00 00 00 00 	0000000000000000
  0x71410	00 00 00 00 00 00 00 00 00 00 00 00 00 00 00 00 	0000000000000000
  0x71420	00 00 00 00 00 00 00 00 00 00 00 00 00 00 00 00 	0000000000000000
  0x71430	00 00 00 00 00 00 00 00 00 00 00 00 00 00 00 00 	0000000000000000
  0x71440	00 00 00 00 00 00 00 00 00 00 00 00 00 00 00 00 	0000000000000000
  0x71450	00 00 00 00 00 00 00 00 00 00 00 00 00 00 00 00 	0000000000000000
  0x71460	00 00 00 00 00 00 00 00 00 00 00 00 00 00 00 00 	0000000000000000
  0x71470	00 00 00 00 00 00 00 00 00 00 00 00 00 00 00 00 	0000000000000000
  0x71480	00 00 00 00 00 00 00 00 00 00 00 00 00 00 00 00 	0000000000000000
  0x71490	00 00 00 00 00 00 00 00 00 00 00 00 00 00 00 00 	0000000000000000
  0x714a0	00 00 00 00 00 00 00 00 00 00 00 00 00 00 00 00 	0000000000000000
  0x714b0	00 00 00 00 00 00 00 00 00 00 00 00 00 00 00 00 	0000000000000000
  0x714c0	00 00 10 10 10 10 10 10 10 10 10 10 10 10 10 10 	0000000000000000
  0x714d0	10 10 10 10 10 10 10 10 10 10 10 10 00 00 00 00 	0000000000000000
  0x714e0	00 00 20 20 20 20 20 20 20 20 20 20 20 20 20 20 	00              
  0x714f0	20 20 20 20 20 20 20 20 20 20 20 20 00 00 00 00 	            0000
  0x71500	00 00 00 00 00 00 00 00 00 00 00 00 00 00 00 00 	0000000000000000
  0x71510	00 00 00 00 00 00 00 00 00 00 00 00 00 00 00 00 	0000000000000000
  0x71520	00 00 00 00 00 00 00 00 00 00 00 00 00 00 00 00 	0000000000000000
  0x71530	00 00 00 00 00 00 00 00 00 00 00 00 00 00 00 00 	0000000000000000
  0x71540	00 00 00 00 00 00 00 00 00 00 00 00 00 00 00 00 	0000000000000000
  0x71550	00 00 00 00 00 00 00 00 00 00 00 00 00 00 00 00 	0000000000000000
  0x71560	00 00 00 00 00 00 00 00 00 00 00 00 00 00 00 00 	0000000000000000
  0x71570	00 00 00 00 00 00 00 00 00 00 00 00 00 00 00 00 	0000000000000000
  0x71580	00 00 00 00 00 00 00 00 00 00 00 00 00 00 00 00 	0000000000000000
  0x71590	00 00 00 00 00 00 00 00 00 00 00 00 00 00 00 00 	0000000000000000
  0x715a0	00 00 00 00 00 00 00 00 00 00 00 00 00 00 00 00 	0000000000000000
  0x715b0	00 00 00 00 00 00 00 00 00 00 00 00 00 00 00 00 	0000000000000000
  0x715c0	00 00 00 00 00 00 00 00 00 00 00 00 00 00 00 00 	0000000000000000
  0x715d0	00 61 62 63 64 65 66 67 68 69 6a 6b 6c 6d 6e 6f 	0abcdefghijklmno
  0x715e0	70 71 72 73 74 75 76 77 78 79 7a 00 00 00 00 00 	pqrstuvwxyz00000
  0x715f0	00 41 42 43 44 45 46 47 48 49 4a 4b 4c 4d 4e 4f 	0ABCDEFGHIJKLMNO
  0x71600	50 51 52 53 54 55 56 57 58 59 5a 00 00 00 00 00 	PQRSTUVWXYZ00000
  0x71610	00 00 00 00 00 00 00 00 00 00 00 00 00 00 00 00 	0000000000000000
  0x71620	00 00 00 00 00 00 00 00 00 00 00 00 00 00 00 00 	0000000000000000
  0x71630	00 00 00 00 00 00 00 00 00 00 00 00 00 00 00 00 	0000000000000000
  0x71640	00 00 00 00 00 00 00 00 00 00 00 00 00 00 00 00 	0000000000000000
  0x71650	00 00 00 00 00 00 00 00 00 00 00 00 00 00 00 00 	0000000000000000
  0x71660	00 00 00 00 00 00 00 00 00 00 00 00 00 00 00 00 	0000000000000000
  0x71670	00 00 00 00 00 00 00 00 00 00 00 00 00 00 00 00 	0000000000000000
  0x71680	00 00 00 00 00 00 00 00 00 00 00 00 00 00 00 00 	0000000000000000
  0x71690	01 02 04 08 00 00 00 00 00 00 00 00 00 00 00 00 	0000000000000000
  0x716a0	a4 03 00 00 60 82 79 82 21 00 00 00 00 00 00 00 	0000`0y0!0000000
  0x716b0	a6 df 00 00 00 00 00 00 a1 a5 00 00 00 00 00 00 	0000000000000000
  0x716c0	81 9f e0 fc 00 00 00 00 40 7e 80 fc 00 00 00 00 	00000000@~000000
  0x716d0	a8 03 00 00 c1 a3 da a3 20 00 00 00 00 00 00 00 	00000000 0000000
  0x716e0	00 00 00 00 00 00 00 00 00 00 00 00 00 00 00 00 	0000000000000000
  0x716f0	81 fe 00 00 00 00 00 00 40 fe 00 00 00 00 00 00 	00000000@0000000
  0x71700	b5 03 00 00 c1 a3 da a3 20 00 00 00 00 00 00 00 	00000000 0000000
  0x71710	00 00 00 00 00 00 00 00 00 00 00 00 00 00 00 00 	0000000000000000
  0x71720	81 fe 00 00 00 00 00 00 41 fe 00 00 00 00 00 00 	00000000A0000000
  0x71730	b6 03 00 00 cf a2 e4 a2 1a 00 e5 a2 e8 a2 5b 00 	00000000000000[0
  0x71740	00 00 00 00 00 00 00 00 00 00 00 00 00 00 00 00 	0000000000000000
  0x71750	81 fe 00 00 00 00 00 00 40 7e a1 fe 00 00 00 00 	00000000@~000000
  0x71760	51 05 00 00 51 da 5e da 20 00 5f da 6a da 32 00 	Q000Q0^0 0_0j020
  0x71770	00 00 00 00 00 00 00 00 00 00 00 00 00 00 00 00 	0000000000000000
  0x71780	81 d3 d8 de e0 f9 00 00 31 7e 81 fe 00 00 00 00 	000000001~000000
  0x71790	fe ff ff ff 2e 00 00 00 2e 00 00 00 00 00 00 00 	0000.000.0000000
  0x717a0	50 53 54 00 00 00 00 00 00 00 00 00 00 00 00 00 	PST0000000000000
  0x717b0	00 00 00 00 00 00 00 00 00 00 00 00 00 00 00 00 	0000000000000000
  0x717c0	00 00 00 00 00 00 00 00 00 00 00 00 00 00 00 00 	0000000000000000
  0x717d0	00 00 00 00 00 00 00 00 00 00 00 00 00 00 00 00 	0000000000000000
  0x717e0	50 44 54 00 00 00 00 00 00 00 00 00 00 00 00 00 	PDT0000000000000
  0x717f0	00 00 00 00 00 00 00 00 00 00 00 00 00 00 00 00 	0000000000000000
  0x71800	00 00 00 00 00 00 00 00 00 00 00 00 00 00 00 00 	0000000000000000
  0x71810	00 00 00 00 00 00 00 00 00 00 00 00 00 00 00 00 	0000000000000000
  0x71820	50 00 53 00 54 00 00 00 00 00 00 00 00 00 00 00 	P0S0T00000000000
  0x71830	00 00 00 00 00 00 00 00 00 00 00 00 00 00 00 00 	0000000000000000
  0x71840	00 00 00 00 00 00 00 00 00 00 00 00 00 00 00 00 	0000000000000000
  0x71850	00 00 00 00 00 00 00 00 00 00 00 00 00 00 00 00 	0000000000000000
  0x71860	00 00 00 00 00 00 00 00 00 00 00 00 00 00 00 00 	0000000000000000
  0x71870	00 00 00 00 00 00 00 00 00 00 00 00 00 00 00 00 	0000000000000000
  0x71880	00 00 00 00 00 00 00 00 00 00 00 00 00 00 00 00 	0000000000000000
  0x71890	00 00 00 00 00 00 00 00 00 00 00 00 00 00 00 00 	0000000000000000
  0x718a0	50 00 44 00 54 00 00 00 00 00 00 00 00 00 00 00 	P0D0T00000000000
  0x718b0	00 00 00 00 00 00 00 00 00 00 00 00 00 00 00 00 	0000000000000000
  0x718c0	00 00 00 00 00 00 00 00 00 00 00 00 00 00 00 00 	0000000000000000
  0x718d0	00 00 00 00 00 00 00 00 00 00 00 00 00 00 00 00 	0000000000000000
  0x718e0	00 00 00 00 00 00 00 00 00 00 00 00 00 00 00 00 	0000000000000000
  0x718f0	00 00 00 00 00 00 00 00 00 00 00 00 00 00 00 00 	0000000000000000
  0x71900	00 00 00 00 00 00 00 00 00 00 00 00 00 00 00 00 	0000000000000000
  0x71910	00 00 00 00 00 00 00 00 00 00 00 00 00 00 00 00 	0000000000000000
  0x71920	ff ff ff ff 00 00 00 00 00 00 00 00 00 00 00 00 	0000000000000000
  0x71930	ff ff ff ff 00 00 00 00 00 00 00 00 00 00 00 00 	0000000000000000
  0x71940	01 00 00 00 00 00 00 00 00 00 00 00 00 00 00 00 	0000000000000000
  0x71950	00 00 00 00 00 00 00 00 00 00 00 00 00 00 00 00 	0000000000000000
  0x71960	00 00 00 00 00 00 00 00 00 00 00 00 00 00 00 00 	0000000000000000
  0x71970	00 00 00 00 00 00 00 00 00 00 00 00 00 00 00 00 	0000000000000000
  0x71980	00 00 00 00 00 00 00 00 00 00 00 00 00 00 00 00 	0000000000000000
  0x71990	00 00 00 00 00 00 00 00 00 00 00 00 00 00 00 00 	0000000000000000
  0x719a0	00 00 00 00 00 00 00 00 00 00 00 00 00 00 00 00 	0000000000000000
  0x719b0	00 00 00 00 00 00 00 00 00 00 00 00 00 00 00 00 	0000000000000000
  0x719c0	00 00 00 00 00 00 00 00 00 00 00 00 00 00 00 00 	0000000000000000
  0x719d0	00 00 00 00 00 00 00 00 00 00 00 00 00 00 00 00 	0000000000000000
  0x719e0	00 00 00 00 00 00 00 00 00 00 00 00 00 00 00 00 	0000000000000000
  0x719f0	00 00 00 00 00 00 00 00 00 00 00 00 00 00 00 00 	0000000000000000
  0x71a00	00 00 00 00 00 00 00 00 00 00 00 00 00 00 00 00 	0000000000000000
  0x71a10	01 01 01 01 01 01 01 01 01 01 01 01 01 01 01 01 	0000000000000000
  0x71a20	01 01 01 01 01 01 01 01 01 01 01 01 01 01 01 01 	0000000000000000
  0x71a30	02 02 02 02 02 02 02 02 02 02 02 02 02 02 02 02 	0000000000000000
  0x71a40	03 03 03 03 03 03 03 03 00 00 00 00 00 00 00 00 	0000000000000000
  0x71a50	01 00 00 00 00 00 00 00 fe ff ff ff ff ff ff ff 	0000000000000000
  0x71a60	32 a2 df 2d 99 2b 00 00 cd 5d 20 d2 66 d4 ff ff 	200-0+000] 0f000
  0x71a70	01 00 00 00 02 00 00 00 2f 20 00 00 00 00 00 00 	00000000/ 000000
  0x71a80	00 f8 00 00 00 00 00 00 00 00 00 00 00 00 00 00 	0000000000000000
  0x71a90	ff ff ff ff 00 00 00 00 00 00 00 00 00 00 00 00 	0000000000000000
  0x71aa0	ff ff ff ff 00 00 00 00 00 00 00 00 00 00 00 00 	0000000000000000
  0x71ab0	00 00 00 00 00 00 00 00 00 00 00 00 00 00 00 00 	0000000000000000
  0x71ac0	07 00 00 00 00 00 00 00 00 00 00 00 00 00 00 00 	0000000000000000
  0x71ad0	00 00 00 00 00 00 00 00 00 00 00 00 00 00 00 00 	0000000000000000
  0x71ae0	00 00 00 00 00 00 00 00 00 00 00 00 00 00 00 00 	0000000000000000
  0x71af0	00 00 00 00 00 00 00 00 00 00 00 00 00 00 00 00 	0000000000000000
  0x71b00	00 00 00 00 00 00 00 00 00 00 00 00 00 00 00 00 	0000000000000000
  0x71b10	00 00 00 00 00 00 00 00 00 00 00 00 00 00 00 00 	0000000000000000
  0x71b20	00 00 00 00 00 00 00 00 00 00 00 00 00 00 00 00 	0000000000000000
  0x71b30	00 00 00 00 00 00 00 00 00 00 00 00 00 00 00 00 	0000000000000000
  0x71b40	00 00 00 00 00 00 00 00 00 00 00 00 00 00 00 00 	0000000000000000
  0x71b50	00 00 00 00 00 00 00 00 00 00 00 00 00 00 00 00 	0000000000000000
  0x71b60	00 00 00 00 00 00 00 00 00 00 00 00 00 00 00 00 	0000000000000000
  0x71b70	00 00 00 00 00 00 00 00 00 00 00 00 00 00 00 00 	0000000000000000
  0x71b80	00 00 00 00 00 00 00 00 00 00 00 00 00 00 00 00 	0000000000000000
  0x71b90	00 00 00 00 00 00 00 00 00 00 00 00 00 00 00 00 	0000000000000000
  0x71ba0	00 00 00 00 00 00 00 00 00 00 00 00 00 00 00 00 	0000000000000000
  0x71bb0	00 00 00 00 00 00 00 00 00 00 00 00 00 00 00 00 	0000000000000000
  0x71bc0	00 00 00 00 00 00 00 00 00 00 00 00 00 00 00 00 	0000000000000000
  0x71bd0	00 00 00 00 00 00 00 00 00 00 00 00 00 00 00 00 	0000000000000000
  0x71be0	00 00 00 00 00 00 00 00 00 00 00 00 00 00 00 00 	0000000000000000
  0x71bf0	00 00 00 00 00 00 00 00 00 00 00 00 00 00 00 00 	0000000000000000
  0x71c00	00 00 00 00 00 00 00 00 00 00 00 00 00 00 00 00 	0000000000000000
  0x71c10	00 00 00 00 00 00 00 00 00 00 00 00 00 00 00 00 	0000000000000000
  0x71c20	00 00 00 00 00 00 00 00 00 00 00 00 00 00 00 00 	0000000000000000
  0x71c30	00 00 00 00 00 00 00 00 00 00 00 00 00 00 00 00 	0000000000000000
  0x71c40	00 00 00 00 00 00 00 00 00 00 00 00 00 00 00 00 	0000000000000000
  0x71c50	00 00 00 00 00 00 00 00 00 00 00 00 00 00 00 00 	0000000000000000
  0x71c60	00 00 00 00 00 00 00 00 00 00 00 00 00 00 00 00 	0000000000000000
  0x71c70	00 00 00 00 00 00 00 00 00 00 00 00 00 00 00 00 	0000000000000000
  0x71c80	00 00 00 00 00 00 00 00 00 00 00 00 00 00 00 00 	0000000000000000
  0x71c90	00 00 00 00 00 00 00 00 00 00 00 00 00 00 00 00 	0000000000000000
  0x71ca0	00 00 00 00 00 00 00 00 00 00 00 00 00 00 00 00 	0000000000000000
  0x71cb0	00 00 00 00 00 00 00 00 00 00 00 00 00 00 00 00 	0000000000000000
  0x71cc0	00 00 00 00 00 00 00 00 00 00 00 00 00 00 00 00 	0000000000000000
  0x71cd0	00 00 00 00 00 00 00 00 00 00 00 00 00 00 00 00 	0000000000000000
  0x71ce0	00 00 00 00 00 00 00 00 00 00 00 00 00 00 00 00 	0000000000000000
  0x71cf0	00 00 00 00 00 00 00 00 00 00 00 00 00 00 00 00 	0000000000000000
  0x71d00	00 00 00 00 00 00 00 00 00 00 00 00 00 00 00 00 	0000000000000000
  0x71d10	00 00 00 00 00 00 00 00 00 00 00 00 00 00 00 00 	0000000000000000
  0x71d20	00 00 00 00 00 00 00 00 00 00 00 00 00 00 00 00 	0000000000000000
  0x71d30	00 00 00 00 00 00 00 00 00 00 00 00 00 00 00 00 	0000000000000000
  0x71d40	00 00 00 00 00 00 00 00 00 00 00 00 00 00 00 00 	0000000000000000
  0x71d50	00 00 00 00 00 00 00 00 00 00 00 00 00 00 00 00 	0000000000000000
  0x71d60	00 00 00 00 00 00 00 00 00 00 00 00 00 00 00 00 	0000000000000000
  0x71d70	00 00 00 00 00 00 00 00 00 00 00 00 00 00 00 00 	0000000000000000
  0x71d80	00 00 00 00 00 00 00 00 00 00 00 00 00 00 00 00 	0000000000000000
  0x71d90	00 00 00 00 00 00 00 00 00 00 00 00 00 00 00 00 	0000000000000000
  0x71da0	00 00 00 00 00 00 00 00 00 00 00 00 00 00 00 00 	0000000000000000
  0x71db0	00 00 00 00 00 00 00 00 00 00 00 00 00 00 00 00 	0000000000000000
  0x71dc0	00 00 00 00 00 00 00 00 00 00 00 00 00 00 00 00 	0000000000000000
  0x71dd0	00 00 00 00 00 00 00 00 00 00 00 00 00 00 00 00 	0000000000000000
  0x71de0	00 00 00 00 00 00 00 00 00 00 00 00 00 00 00 00 	0000000000000000
  0x71df0	00 00 00 00 00 00 00 00 00 00 00 00 00 00 00 00 	0000000000000000
  0x71e00	00 00 00 00 00 00 00 00 00 00 00 00 00 00 00 00 	0000000000000000
  0x71e10	00 00 00 00 00 00 00 00 00 00 00 00 00 00 00 00 	0000000000000000
  0x71e20	00 00 00 00 00 00 00 00 00 00 00 00 00 00 00 00 	0000000000000000
  0x71e30	00 00 00 00 00 00 00 00 00 00 00 00 00 00 00 00 	0000000000000000
  0x71e40	00 00 00 00 00 00 00 00 00 00 00 00 00 00 00 00 	0000000000000000
  0x71e50	00 00 00 00 00 00 00 00 00 00 00 00 00 00 00 00 	0000000000000000
  0x71e60	00 00 00 00 00 00 00 00 00 00 00 00 00 00 00 00 	0000000000000000
  0x71e70	00 00 00 00 00 00 00 00 00 00 00 00 00 00 00 00 	0000000000000000
  0x71e80	00 00 00 00 00 00 00 00 00 00 00 00 00 00 00 00 	0000000000000000
  0x71e90	00 00 00 00 00 00 00 00 00 00 00 00 00 00 00 00 	0000000000000000
  0x71ea0	00 00 00 00 00 00 00 00 00 00 00 00 00 00 00 00 	0000000000000000
  0x71eb0	00 00 00 00 00 00 00 00 00 00 00 00 00 00 00 00 	0000000000000000
  0x71ec0	00 00 00 00 00 00 00 00 00 00 00 00 00 00 00 00 	0000000000000000
  0x71ed0	00 00 00 00 00 00 00 00 00 00 00 00 00 00 00 00 	0000000000000000
  0x71ee0	00 00 00 00 00 00 00 00 00 00 00 00 00 00 00 00 	0000000000000000
  0x71ef0	00 00 00 00 00 00 00 00 00 00 00 00 00 00 00 00 	0000000000000000
  0x71f00	00 00 00 00 00 00 00 00 00 00 00 00 00 00 00 00 	0000000000000000
  0x71f10	00 00 00 00 00 00 00 00 00 00 00 00 00 00 00 00 	0000000000000000
  0x71f20	00 00 00 00 00 00 00 00 00 00 00 00 00 00 00 00 	0000000000000000
  0x71f30	00 00 00 00 00 00 00 00 00 00 00 00 00 00 00 00 	0000000000000000
  0x71f40	00 00 00 00 00 00 00 00 00 00 00 00 00 00 00 00 	0000000000000000
  0x71f50	00 00 00 00 00 00 00 00 00 00 00 00 00 00 00 00 	0000000000000000
  0x71f60	00 00 00 00 00 00 00 00 00 00 00 00 00 00 00 00 	0000000000000000
  0x71f70	00 00 00 00 00 00 00 00 00 00 00 00 00 00 00 00 	0000000000000000
  0x71f80	00 00 00 00 00 00 00 00 00 00 00 00 00 00 00 00 	0000000000000000
  0x71f90	00 00 00 00 00 00 00 00 00 00 00 00 00 00 00 00 	0000000000000000
  0x71fa0	00 00 00 00 00 00 00 00 00 00 00 00 00 00 00 00 	0000000000000000
  0x71fb0	00 00 00 00 00 00 00 00 00 00 00 00 00 00 00 00 	0000000000000000
  0x71fc0	00 00 00 00 00 00 00 00 00 00 00 00 00 00 00 00 	0000000000000000
  0x71fd0	00 00 00 00 00 00 00 00 00 00 00 00 00 00 00 00 	0000000000000000
  0x71fe0	00 00 00 00 00 00 00 00 00 00 00 00 00 00 00 00 	0000000000000000
  0x71ff0	00 00 00 00 00 00 00 00 00 00 00 00 00 00 00 00 	0000000000000000
=== DATA BLOCK END ===

=== DATA BLOCK ADDRESS 0x74000 ===
  0x74000	00 10 00 00 3c 12 00 00 64 64 06 00 3c 12 00 00 	0000<000dd00<000
  0x74010	65 14 00 00 7c 64 06 00 68 14 00 00 78 16 00 00 	e000|d00h000x000
  0x74020	90 64 06 00 78 16 00 00 06 17 00 00 00 65 06 00 	0d00x00000000e00
  0x74030	10 17 00 00 9b 17 00 00 90 74 06 00 d0 17 00 00 	000000000t000000
  0x74040	fe 17 00 00 70 5e 06 00 60 18 00 00 df 18 00 00 	0000p^00`0000000
  0x74050	c0 5d 06 00 e0 18 00 00 26 1b 00 00 d0 5d 06 00 	0]000000&0000]00
  0x74060	28 1b 00 00 46 1b 00 00 f4 5d 06 00 48 1b 00 00 	(000F0000]00H000
  0x74070	7c 1b 00 00 fc 5d 06 00 7c 1b 00 00 34 1c 00 00 	|0000]00|0004000
  0x74080	04 5e 06 00 34 1c 00 00 aa 1c 00 00 14 5e 06 00 	0^00400000000^00
  0x74090	ac 1c 00 00 e0 1c 00 00 fc 5d 06 00 e0 1c 00 00 	000000000]000000
  0x740a0	22 1d 00 00 1c 5e 06 00 24 1d 00 00 eb 1e 00 00 	"0000^00$0000000
  0x740b0	24 5e 06 00 00 1f 00 00 34 1f 00 00 44 5e 06 00 	$^0000004000D^00
  0x740c0	34 1f 00 00 41 23 00 00 50 5e 06 00 44 23 00 00 	4000A#00P^00D#00
  0x740d0	5c 23 00 00 70 5e 06 00 70 23 00 00 8b 2a 00 00 	0#00p^00p#000*00
  0x740e0	78 5e 06 00 8c 2a 00 00 5a 2b 00 00 b0 5e 06 00 	x^000*00Z+000^00
  0x740f0	5c 2b 00 00 04 2d 00 00 f0 5e 06 00 04 2d 00 00 	0+000-000^000-00
  0x74100	b1 32 00 00 28 5f 06 00 b4 32 00 00 60 33 00 00 	0200(_000200`300
  0x74110	e0 5f 06 00 60 33 00 00 12 34 00 00 c0 5d 06 00 	0_00`30004000]00
  0x74120	14 34 00 00 e1 35 00 00 f8 5f 06 00 e4 35 00 00 	040005000_000500
  0x74130	fc 35 00 00 70 5e 06 00 fc 35 00 00 e9 3a 00 00 	0500p^0005000:00
  0x74140	10 60 06 00 ec 3a 00 00 6b 3b 00 00 44 5e 06 00 	0`000:00k;00D^00
  0x74150	6c 3b 00 00 cd 3c 00 00 88 60 06 00 d0 3c 00 00 	l;000<000`000<00
  0x74160	0a 3d 00 00 e8 60 06 00 0c 3d 00 00 6c 3f 00 00 	0=000`000=00l?00
  0x74170	f0 60 06 00 80 3f 00 00 e5 54 00 00 1c 61 06 00 	0`000?000T000a00
  0x74180	e8 54 00 00 60 56 00 00 18 62 06 00 60 56 00 00 	0T00`V000b00`V00
  0x74190	c4 57 00 00 30 62 06 00 d0 57 00 00 02 58 00 00 	0W000b000W000X00
  0x741a0	70 5e 06 00 04 58 00 00 30 58 00 00 58 62 06 00 	p^000X000X00Xb00
  0x741b0	30 58 00 00 e7 59 00 00 60 62 06 00 e8 59 00 00 	0X000Y00`b000Y00
  0x741c0	ef 5a 00 00 74 62 06 00 f0 5a 00 00 7b 5d 00 00 	0Z00tb000Z00{]00
  0x741d0	b4 62 06 00 7c 5d 00 00 38 5f 00 00 f8 62 06 00 	0b00|]008_000b00
  0x741e0	38 5f 00 00 71 62 00 00 44 63 06 00 74 62 00 00 	8_00qb00Dc00tb00
  0x741f0	cb 62 00 00 f4 5d 06 00 cc 62 00 00 2a 63 00 00 	0b000]000b00*c00
  0x74200	f4 5d 06 00 2c 63 00 00 d8 66 00 00 5c 63 06 00 	0]00,c000f000c00
  0x74210	d8 66 00 00 3f 6a 00 00 84 63 06 00 40 6a 00 00 	0f00?j000c00@j00
  0x74220	b3 6a 00 00 94 63 06 00 b4 6a 00 00 24 6d 00 00 	0j000c000j00$m00
  0x74230	9c 63 06 00 24 6d 00 00 3f 6e 00 00 bc 63 06 00 	0c00$m00?n000c00
  0x74240	50 6e 00 00 8c 77 00 00 d4 63 06 00 a8 77 00 00 	Pn000w000c000w00
  0x74250	c7 78 00 00 00 64 06 00 c8 78 00 00 d3 7a 00 00 	0x000d000x000z00
  0x74260	14 64 06 00 e0 7a 00 00 93 7b 00 00 44 5e 06 00 	0d000z000{00D^00
  0x74270	94 7b 00 00 be 7b 00 00 4c 64 06 00 c0 7b 00 00 	0{000{00Ld000{00
  0x74280	1c 7c 00 00 e8 60 06 00 1c 7c 00 00 5e 7c 00 00 	0|000`000|00^|00
  0x74290	70 5e 06 00 60 7c 00 00 cb 7c 00 00 a4 64 06 00 	p^00`|000|000d00
  0x742a0	cc 7c 00 00 63 7e 00 00 b4 64 06 00 64 7e 00 00 	0|00c~000d00d~00
  0x742b0	75 7e 00 00 70 5e 06 00 80 7e 00 00 97 7e 00 00 	u~00p^000~000~00
  0x742c0	70 5e 06 00 40 7f 00 00 57 7f 00 00 70 5e 06 00 	p^00@000W000p^00
  0x742d0	70 7f 00 00 d4 7f 00 00 c0 5d 06 00 20 80 00 00 	p00000000]00 000
  0x742e0	37 80 00 00 70 5e 06 00 f0 80 00 00 32 81 00 00 	7000p^0000002000
  0x742f0	44 5e 06 00 34 81 00 00 70 81 00 00 e8 60 06 00 	D^004000p0000`00
  0x74300	70 81 00 00 ac 81 00 00 e8 60 06 00 d4 81 00 00 	p00000000`000000
  0x74310	06 82 00 00 e8 60 06 00 08 82 00 00 28 82 00 00 	00000`000000(000
  0x74320	00 65 06 00 30 82 00 00 82 82 00 00 08 65 06 00 	0e00000000000e00
  0x74330	90 82 00 00 a6 82 00 00 70 5e 06 00 c0 82 00 00 	00000000p^000000
  0x74340	af 84 00 00 18 65 06 00 00 85 00 00 10 85 00 00 	00000e0000000000
  0x74350	70 5e 06 00 20 85 00 00 95 85 00 00 9c 65 06 00 	p^00 00000000e00
  0x74360	98 85 00 00 23 8a 00 00 a8 65 06 00 30 8a 00 00 	0000#0000e000000
  0x74370	5b 8a 00 00 e8 60 06 00 70 8a 00 00 d5 8a 00 00 	[0000`00p0000000
  0x74380	14 66 06 00 20 8b 00 00 b8 8b 00 00 24 66 06 00 	0f00 0000000$f00
  0x74390	f0 8b 00 00 51 8c 00 00 e8 60 06 00 54 8c 00 00 	0000Q0000`00T000
  0x743a0	6d 8d 00 00 2c 66 06 00 80 8d 00 00 ab 8d 00 00 	m000,f0000000000
  0x743b0	e8 60 06 00 ac 8d 00 00 2a 8f 00 00 44 66 06 00 	0`000000*000Df00
  0x743c0	40 8f 00 00 9f 94 00 00 84 66 06 00 b0 94 00 00 	@00000000f000000
  0x743d0	ae 95 00 00 bc 66 06 00 c0 95 00 00 e0 95 00 00 	00000f0000000000
  0x743e0	70 5e 06 00 f0 95 00 00 10 96 00 00 e8 60 06 00 	p^00000000000`00
  0x743f0	10 96 00 00 f8 97 00 00 dc 66 06 00 f8 97 00 00 	000000000f000000
  0x74400	e2 98 00 00 9c 65 06 00 e4 98 00 00 75 9a 00 00 	00000e000000u000
  0x74410	38 67 06 00 80 9a 00 00 82 9b 00 00 4c 67 06 00 	8g0000000000Lg00
  0x74420	b0 9b 00 00 73 9d 00 00 70 67 06 00 80 9d 00 00 	0000s000pg000000
  0x74430	cc 9d 00 00 e8 60 06 00 e0 9d 00 00 57 9e 00 00 	00000`000000W000
  0x74440	44 5e 06 00 60 9e 00 00 cb 9e 00 00 14 66 06 00 	D^00`00000000f00
  0x74450	e0 9e 00 00 33 9f 00 00 88 67 06 00 40 9f 00 00 	000030000g00@000
  0x74460	7c 9f 00 00 88 67 06 00 b0 9f 00 00 21 a0 00 00 	|0000g000000!000
  0x74470	90 67 06 00 60 a0 00 00 6b a1 00 00 a0 67 06 00 	0g00`000k0000g00
  0x74480	80 a1 00 00 bc a1 00 00 88 67 06 00 d0 a1 00 00 	000000000g000000
  0x74490	fb a1 00 00 e8 60 06 00 10 a2 00 00 7e a2 00 00 	00000`000000~000
  0x744a0	b0 67 06 00 90 a2 00 00 e1 a2 00 00 e8 60 06 00 	0g00000000000`00
  0x744b0	f0 a2 00 00 23 a4 00 00 c0 67 06 00 30 a4 00 00 	0000#0000g000000
  0x744c0	6b a4 00 00 88 67 06 00 80 a4 00 00 bb a4 00 00 	k0000g0000000000
  0x744d0	88 67 06 00 d0 a4 00 00 59 a5 00 00 9c 65 06 00 	0g000000Y0000e00
  0x744e0	70 a5 00 00 56 a6 00 00 d4 67 06 00 60 a6 00 00 	p000V0000g00`000
  0x744f0	50 a7 00 00 f4 67 06 00 60 a7 00 00 f3 a7 00 00 	P0000g00`0000000
  0x74500	14 68 06 00 10 a8 00 00 39 a8 00 00 f4 5d 06 00 	0h00000090000]00
  0x74510	50 a8 00 00 75 a8 00 00 70 5e 06 00 80 a8 00 00 	P000u000p^000000
  0x74520	6b ac 00 00 2c 68 06 00 80 ac 00 00 e3 ac 00 00 	k000,h0000000000
  0x74530	e8 60 06 00 00 ad 00 00 4b ad 00 00 44 5e 06 00 	0`000000K000D^00
  0x74540	60 ad 00 00 a4 ad 00 00 e8 60 06 00 b0 ad 00 00 	`00000000`000000
  0x74550	03 ae 00 00 44 5e 06 00 10 ae 00 00 44 ae 00 00 	0000D^000000D000
  0x74560	44 5e 06 00 44 ae 00 00 c7 ae 00 00 e8 60 06 00 	D^00D00000000`00
  0x74570	c8 ae 00 00 ef b1 00 00 54 68 06 00 00 b2 00 00 	00000000Th000000
  0x74580	0c b3 00 00 88 68 06 00 0c b3 00 00 ec b4 00 00 	00000h0000000000
  0x74590	e8 68 06 00 ec b4 00 00 18 b9 00 00 04 69 06 00 	0h00000000000i00
  0x745a0	20 b9 00 00 ce b9 00 00 44 5e 06 00 e0 b9 00 00 	 0000000D^000000
  0x745b0	4f bb 00 00 44 5e 06 00 50 bb 00 00 99 bc 00 00 	O000D^00P0000000
  0x745c0	2c 66 06 00 9c bc 00 00 2b bd 00 00 40 69 06 00 	,f000000+000@i00
  0x745d0	2c bd 00 00 77 bd 00 00 44 5e 06 00 78 bd 00 00 	,000w000D^00x000
  0x745e0	19 be 00 00 ac 69 06 00 1c be 00 00 4a c0 00 00 	00000i000000J000
  0x745f0	c0 5d 06 00 4c c0 00 00 a2 c0 00 00 bc 69 06 00 	0]00L00000000i00
  0x74600	a4 c0 00 00 cc c1 00 00 fc 69 06 00 cc c1 00 00 	000000000i000000
  0x74610	17 c3 00 00 08 6a 06 00 20 c3 00 00 37 c3 00 00 	00000j00 0007000
  0x74620	70 5e 06 00 50 c3 00 00 7f c3 00 00 70 5e 06 00 	p^00P0000000p^00
  0x74630	e0 c3 00 00 12 c4 00 00 70 5e 06 00 60 c4 00 00 	00000000p^00`000
  0x74640	8b c4 00 00 e8 60 06 00 a0 c4 00 00 76 c5 00 00 	00000`000000v000
  0x74650	44 5e 06 00 b0 c5 00 00 58 c6 00 00 24 6a 06 00 	D^000000X000$j00
  0x74660	58 c6 00 00 13 c8 00 00 30 6a 06 00 14 c8 00 00 	X00000000j000000
  0x74670	7c c8 00 00 44 6a 06 00 7c c8 00 00 c4 ca 00 00 	|000Dj00|0000000
  0x74680	80 6a 06 00 c4 ca 00 00 ba cf 00 00 a0 6a 06 00 	0j00000000000j00
  0x74690	bc cf 00 00 55 d1 00 00 08 6b 06 00 58 d1 00 00 	0000U0000k00X000
  0x746a0	a7 d1 00 00 64 6b 06 00 a8 d1 00 00 e8 d2 00 00 	0000dk0000000000
  0x746b0	a0 6b 06 00 e8 d2 00 00 58 d3 00 00 e8 60 06 00 	0k000000X0000`00
  0x746c0	58 d3 00 00 e5 d3 00 00 f4 6b 06 00 e8 d3 00 00 	X00000000k000000
  0x746d0	51 d5 00 00 08 6c 06 00 54 d5 00 00 06 d7 00 00 	Q0000l00T0000000
  0x746e0	20 6c 06 00 10 d7 00 00 27 d7 00 00 70 5e 06 00 	 l000000'000p^00
  0x746f0	70 d7 00 00 b3 d7 00 00 e8 60 06 00 40 d8 00 00 	p00000000`00@000
  0x74700	a1 d8 00 00 e8 60 06 00 a4 d8 00 00 b5 d8 00 00 	00000`0000000000
  0x74710	70 5e 06 00 b8 d8 00 00 1e da 00 00 3c 6c 06 00 	p^0000000000<l00
  0x74720	20 da 00 00 8b da 00 00 c0 5d 06 00 8c da 00 00 	 00000000]000000
  0x74730	27 db 00 00 58 6c 06 00 30 db 00 00 5b db 00 00 	'000Xl000000[000
  0x74740	e8 60 06 00 90 db 00 00 61 dc 00 00 6c 6c 06 00 	0`000000a000ll00
  0x74750	70 dc 00 00 78 de 00 00 b0 6c 06 00 80 de 00 00 	p000x0000l000000
  0x74760	4e df 00 00 d8 6c 06 00 60 df 00 00 77 df 00 00 	N0000l00`000w000
  0x74770	70 5e 06 00 90 df 00 00 47 e1 00 00 e8 6c 06 00 	p^000000G0000l00
  0x74780	a8 e1 00 00 a6 e3 00 00 00 6d 06 00 b0 e3 00 00 	000000000m000000
  0x74790	19 e4 00 00 e8 60 06 00 30 e4 00 00 30 e5 00 00 	00000`0000000000
  0x747a0	20 6d 06 00 30 e5 00 00 0c e6 00 00 74 6d 06 00 	 m0000000000tm00
  0x747b0	20 e6 00 00 37 e6 00 00 70 5e 06 00 38 e6 00 00 	 0007000p^008000
  0x747c0	a0 e7 00 00 7c 6d 06 00 a0 e7 00 00 b7 e7 00 00 	0000|m0000000000
  0x747d0	70 5e 06 00 b8 e7 00 00 cd e7 00 00 70 5e 06 00 	p^0000000000p^00
  0x747e0	d0 e7 00 00 34 e8 00 00 98 6d 06 00 34 e8 00 00 	000040000m004000
  0x747f0	aa e8 00 00 14 5e 06 00 ac e8 00 00 43 e9 00 00 	00000^000000C000
  0x74800	a0 6d 06 00 44 e9 00 00 02 ea 00 00 a8 6d 06 00 	0m00D00000000m00
  0x74810	04 ea 00 00 af ec 00 00 c0 6d 06 00 b0 ec 00 00 	000000000m000000
  0x74820	dc ec 00 00 e8 60 06 00 dc ec 00 00 f3 ec 00 00 	00000`0000000000
  0x74830	70 5e 06 00 f4 ec 00 00 d0 ed 00 00 58 6e 06 00 	p^0000000000Xn00
  0x74840	d0 ed 00 00 a8 ee 00 00 bc 6e 06 00 a8 ee 00 00 	000000000n000000
  0x74850	9b ef 00 00 d4 6e 06 00 9c ef 00 00 3d f3 00 00 	00000n000000=000
  0x74860	ec 6e 06 00 40 f3 00 00 42 f6 00 00 04 6f 06 00 	0n00@000B0000o00
  0x74870	44 f6 00 00 c4 f7 00 00 1c 6f 06 00 c4 f7 00 00 	D00000000o000000
  0x74880	39 0e 01 00 48 6f 06 00 3c 0e 01 00 36 10 01 00 	9000Ho00<0006000
  0x74890	fc 70 06 00 38 10 01 00 65 11 01 00 50 71 06 00 	0p008000e000Pq00
  0x748a0	68 11 01 00 8b 16 01 00 60 71 06 00 8c 16 01 00 	h0000000`q000000
  0x748b0	b1 17 01 00 2c 66 06 00 b4 17 01 00 dd 17 01 00 	0000,f0000000000
  0x748c0	90 71 06 00 e0 17 01 00 29 18 01 00 1c 5e 06 00 	0q000000)0000^00
  0x748d0	2c 18 01 00 8c 18 01 00 00 65 06 00 8c 18 01 00 	,00000000e000000
  0x748e0	e7 18 01 00 00 65 06 00 10 19 01 00 52 19 01 00 	00000e000000R000
  0x748f0	44 5e 06 00 c0 19 01 00 e0 1a 01 00 a8 71 06 00 	D^00000000000q00
  0x74900	f0 1a 01 00 ea 1b 01 00 e4 71 06 00 00 1c 01 00 	000000000q000000
  0x74910	4a 1c 01 00 44 5e 06 00 4c 1c 01 00 b2 1c 01 00 	J000D^00L0000000
  0x74920	30 72 06 00 b0 1e 01 00 e4 1e 01 00 44 5e 06 00 	0r0000000000D^00
  0x74930	f0 1e 01 00 2f 1f 01 00 48 72 06 00 30 1f 01 00 	0000/000Hr000000
  0x74940	49 1f 01 00 68 72 06 00 60 1f 01 00 b9 1f 01 00 	I000hr00`0000000
  0x74950	e8 60 06 00 14 20 01 00 71 25 01 00 80 72 06 00 	0`000 00q%000r00
  0x74960	74 25 01 00 91 26 01 00 e0 72 06 00 94 26 01 00 	t%000&000r000&00
  0x74970	a7 28 01 00 2c 73 06 00 b0 28 01 00 d9 28 01 00 	0(00,s000(000(00
  0x74980	f4 5d 06 00 f0 28 01 00 19 29 01 00 f4 5d 06 00 	0]000(000)000]00
  0x74990	30 29 01 00 6d 29 01 00 70 5e 06 00 70 29 01 00 	0)00m)00p^00p)00
  0x749a0	a7 29 01 00 e8 60 06 00 a8 29 01 00 01 2b 01 00 	0)000`000)000+00
  0x749b0	4c 73 06 00 04 2b 01 00 b6 2b 01 00 7c 73 06 00 	Ls000+000+00|s00
  0x749c0	b8 2b 01 00 34 2c 01 00 94 73 06 00 34 2c 01 00 	0+004,000s004,00
  0x749d0	f3 2d 01 00 b0 73 06 00 00 2e 01 00 34 2e 01 00 	0-000s000.004.00
  0x749e0	44 5e 06 00 34 2e 01 00 86 2e 01 00 44 5e 06 00 	D^004.000.00D^00
  0x749f0	88 2e 01 00 3c 2f 01 00 ec 73 06 00 50 2f 01 00 	0.00</000s00P/00
  0x74a00	7e 31 01 00 2c 66 06 00 90 31 01 00 02 35 01 00 	~100,f0001000500
  0x74a10	14 74 06 00 10 35 01 00 e1 35 01 00 e8 60 06 00 	0t00050005000`00
  0x74a20	e4 35 01 00 54 36 01 00 44 5e 06 00 60 36 01 00 	0500T600D^00`600
  0x74a30	83 38 01 00 28 74 06 00 90 38 01 00 de 38 01 00 	0800(t0008000800
  0x74a40	44 5e 06 00 f0 38 01 00 30 3a 01 00 44 5e 06 00 	D^0008000:00D^00
  0x74a50	40 3a 01 00 90 3b 01 00 80 74 06 00 c0 3b 01 00 	@:000;000t000;00
  0x74a60	4d 3c 01 00 90 74 06 00 60 3c 01 00 93 3c 01 00 	M<000t00`<000<00
  0x74a70	70 5e 06 00 a0 3c 01 00 da 3c 01 00 70 5e 06 00 	p^000<000<00p^00
  0x74a80	dc 3c 01 00 6e 3d 01 00 9c 74 06 00 70 3d 01 00 	0<00n=000t00p=00
  0x74a90	03 3e 01 00 e0 74 06 00 04 3e 01 00 2c 3e 01 00 	0>000t000>00,>00
  0x74aa0	28 75 06 00 2c 3e 01 00 99 41 01 00 48 75 06 00 	(u00,>000A00Hu00
  0x74ab0	9c 41 01 00 20 44 01 00 a4 75 06 00 20 44 01 00 	0A00 D000u00 D00
  0x74ac0	1a 45 01 00 24 76 06 00 1c 45 01 00 38 47 01 00 	0E00$v000E008G00
  0x74ad0	40 76 06 00 38 47 01 00 63 48 01 00 68 76 06 00 	@v008G00cH00hv00
  0x74ae0	70 48 01 00 c4 49 01 00 94 76 06 00 d0 49 01 00 	pH000I000v000I00
  0x74af0	53 4a 01 00 ec 76 06 00 54 4a 01 00 d7 4a 01 00 	SJ000v00TJ000J00
  0x74b00	70 5e 06 00 e0 4a 01 00 54 4b 01 00 00 77 06 00 	p^000J00TK000w00
  0x74b10	64 4b 01 00 a3 4d 01 00 24 77 06 00 c0 4d 01 00 	dK000M00$w000M00
  0x74b20	78 4e 01 00 7c 77 06 00 80 4e 01 00 38 4f 01 00 	xN00|w000N008O00
  0x74b30	a0 77 06 00 40 4f 01 00 db 4f 01 00 c8 77 06 00 	0w00@O000O000w00
  0x74b40	dc 4f 01 00 0b 51 01 00 ec 77 06 00 20 51 01 00 	0O000Q000w00 Q00
  0x74b50	1b 52 01 00 10 78 06 00 70 52 01 00 be 52 01 00 	0R000x00pR000R00
  0x74b60	e8 60 06 00 d0 52 01 00 4a 53 01 00 c0 5d 06 00 	0`000R00JS000]00
  0x74b70	4c 53 01 00 98 56 01 00 34 78 06 00 98 56 01 00 	LS000V004x000V00
  0x74b80	d1 56 01 00 ac 78 06 00 d4 56 01 00 84 57 01 00 	0V000x000V000W00
  0x74b90	c0 5d 06 00 d0 57 01 00 ff 57 01 00 70 5e 06 00 	0]000W000W00p^00
  0x74ba0	30 58 01 00 5f 58 01 00 70 5e 06 00 90 58 01 00 	0X00_X00p^000X00
  0x74bb0	bf 58 01 00 70 5e 06 00 f0 58 01 00 1f 59 01 00 	0X00p^000X000Y00
  0x74bc0	70 5e 06 00 60 59 01 00 8f 59 01 00 70 5e 06 00 	p^00`Y000Y00p^00
  0x74bd0	d0 59 01 00 ff 59 01 00 70 5e 06 00 40 5a 01 00 	0Y000Y00p^00@Z00
  0x74be0	d1 5a 01 00 c0 5d 06 00 e0 5a 01 00 0f 5b 01 00 	0Z000]000Z000[00
  0x74bf0	70 5e 06 00 40 5b 01 00 ad 5b 01 00 c0 5d 06 00 	p^00@[000[000]00
  0x74c00	c0 5b 01 00 2d 5c 01 00 c0 5d 06 00 40 5c 01 00 	0[00-0000]00@000
  0x74c10	75 5c 01 00 70 5e 06 00 b0 5c 01 00 df 5c 01 00 	u000p^0000000000
  0x74c20	70 5e 06 00 20 5d 01 00 8d 5d 01 00 c0 5d 06 00 	p^00 ]000]000]00
  0x74c30	a0 5d 01 00 cf 5d 01 00 70 5e 06 00 04 5e 01 00 	0]000]00p^000^00
  0x74c40	90 5e 01 00 e8 78 06 00 a0 5e 01 00 eb 5e 01 00 	0^000x000^000^00
  0x74c50	e8 60 06 00 00 5f 01 00 4b 5f 01 00 e8 60 06 00 	0`000_00K_000`00
  0x74c60	60 5f 01 00 cb 5f 01 00 30 79 06 00 e0 5f 01 00 	`_000_000y000_00
  0x74c70	bc 60 01 00 48 79 06 00 d0 60 01 00 36 61 01 00 	0`00Hy000`006a00
  0x74c80	6c 79 06 00 40 61 01 00 11 63 01 00 80 79 06 00 	ly00@a000c000y00
  0x74c90	20 63 01 00 66 63 01 00 44 5e 06 00 70 63 01 00 	 c00fc00D^00pc00
  0x74ca0	fd 64 01 00 b0 79 06 00 10 65 01 00 f4 66 01 00 	0d000y000e000f00
  0x74cb0	c8 79 06 00 00 67 01 00 c3 68 01 00 f8 79 06 00 	0y000g000h000y00
  0x74cc0	c4 68 01 00 f1 68 01 00 70 5e 06 00 f4 68 01 00 	0h000h00p^000h00
  0x74cd0	21 69 01 00 70 5e 06 00 24 69 01 00 4d 69 01 00 	!i00p^00$i00Mi00
  0x74ce0	e8 60 06 00 50 69 01 00 06 6a 01 00 c0 5d 06 00 	0`00Pi000j000]00
  0x74cf0	08 6a 01 00 85 6a 01 00 24 7a 06 00 88 6a 01 00 	0j000j00$z000j00
  0x74d00	2d 6b 01 00 c0 5d 06 00 30 6b 01 00 d8 6b 01 00 	-k000]000k000k00
  0x74d10	ec 76 06 00 d8 6b 01 00 61 6c 01 00 c0 5d 06 00 	0v000k00al000]00
  0x74d20	64 6c 01 00 09 6d 01 00 c0 5d 06 00 0c 6d 01 00 	dl000m000]000m00
  0x74d30	4e 6d 01 00 70 5e 06 00 50 6d 01 00 92 6d 01 00 	Nm00p^00Pm000m00
  0x74d40	70 5e 06 00 94 6d 01 00 98 6e 01 00 38 7a 06 00 	p^000m000n008z00
  0x74d50	98 6e 01 00 fd 71 01 00 70 7a 06 00 00 72 01 00 	0n000q00pz000r00
  0x74d60	4d 72 01 00 b4 7a 06 00 50 72 01 00 7d 74 01 00 	Mr000z00Pr00}t00
  0x74d70	c0 7a 06 00 80 74 01 00 c1 76 01 00 04 7b 06 00 	0z000t000v000{00
  0x74d80	c4 76 01 00 18 77 01 00 c0 5d 06 00 18 77 01 00 	0v000w000]000w00
  0x74d90	45 79 01 00 48 7b 06 00 48 79 01 00 8c 79 01 00 	Ey00H{00Hy000y00
  0x74da0	b4 7a 06 00 8c 79 01 00 dc 79 01 00 80 7b 06 00 	0z000y000y000{00
  0x74db0	dc 79 01 00 29 7a 01 00 b4 7a 06 00 2c 7a 01 00 	0y00)z000z00,z00
  0x74dc0	91 7e 01 00 90 7b 06 00 94 7e 01 00 6a 83 01 00 	0~000{000~00j000
  0x74dd0	a0 7b 06 00 6c 83 01 00 ea 83 01 00 2c 66 06 00 	0{00l0000000,f00
  0x74de0	10 84 01 00 fd 84 01 00 2c 66 06 00 60 85 01 00 	00000000,f00`000
  0x74df0	24 86 01 00 80 74 06 00 68 86 01 00 ca 86 01 00 	$0000t00h0000000
  0x74e00	e8 60 06 00 cc 86 01 00 f5 88 01 00 e4 7b 06 00 	0`00000000000{00
  0x74e10	f8 88 01 00 14 89 01 00 70 5e 06 00 14 89 01 00 	00000000p^000000
  0x74e20	ad 8a 01 00 ec 7b 06 00 b0 8a 01 00 ce 8c 01 00 	00000{0000000000
  0x74e30	3c 6c 06 00 d0 8c 01 00 e1 8c 01 00 70 5e 06 00 	<l0000000000p^00
  0x74e40	e4 8c 01 00 39 8f 01 00 08 7c 06 00 3c 8f 01 00 	000090000|00<000
  0x74e50	b5 8f 01 00 8c 7c 06 00 b8 8f 01 00 c6 92 01 00 	00000|0000000000
  0x74e60	a0 7c 06 00 d0 92 01 00 04 93 01 00 44 5e 06 00 	0|0000000000D^00
  0x74e70	04 93 01 00 6e 93 01 00 e8 60 06 00 70 93 01 00 	0000n0000`00p000
  0x74e80	b1 95 01 00 44 7d 06 00 b4 95 01 00 6e 96 01 00 	0000D}000000n000
  0x74e90	b4 7d 06 00 70 96 01 00 d0 96 01 00 e8 60 06 00 	0}00p00000000`00
  0x74ea0	d0 96 01 00 85 98 01 00 3c 6c 06 00 88 98 01 00 	00000000<l000000
  0x74eb0	c1 98 01 00 70 5e 06 00 c4 98 01 00 cc 99 01 00 	0000p^0000000000
  0x74ec0	44 5e 06 00 cc 99 01 00 4f 9a 01 00 80 74 06 00 	D^000000O0000t00
  0x74ed0	50 9a 01 00 8a 9a 01 00 70 5e 06 00 8c 9a 01 00 	P0000000p^000000
  0x74ee0	ab 9a 01 00 e8 60 06 00 ac 9a 01 00 36 9b 01 00 	00000`0000006000
  0x74ef0	c0 5d 06 00 38 9b 01 00 8e 9b 01 00 e8 60 06 00 	0]00800000000`00
  0x74f00	90 9b 01 00 07 9c 01 00 24 7a 06 00 08 9c 01 00 	00000000$z000000
  0x74f10	3d 9d 01 00 08 6c 06 00 40 9d 01 00 81 9f 01 00 	=0000l00@0000000
  0x74f20	c0 7d 06 00 84 9f 01 00 f5 a1 01 00 04 7e 06 00 	0}00000000000~00
  0x74f30	f8 a1 01 00 89 a3 01 00 ec 7b 06 00 8c a3 01 00 	000000000{000000
  0x74f40	d2 a3 01 00 44 5e 06 00 d4 a3 01 00 30 a4 01 00 	0000D^0000000000
  0x74f50	e8 60 06 00 30 a4 01 00 4b a6 01 00 48 7e 06 00 	0`000000K000H~00
  0x74f60	4c a6 01 00 46 a7 01 00 2c 66 06 00 48 a7 01 00 	L000F000,f00H000
  0x74f70	64 a7 01 00 70 5e 06 00 64 a7 01 00 80 a7 01 00 	d000p^00d0000000
  0x74f80	70 5e 06 00 80 a7 01 00 19 aa 01 00 5c 7e 06 00 	p^00000000000~00
  0x74f90	1c aa 01 00 01 ab 01 00 2c 66 06 00 04 ab 01 00 	00000000,f000000
  0x74fa0	23 ad 01 00 78 7e 06 00 24 ad 01 00 e8 ad 01 00 	#000x~00$0000000
  0x74fb0	90 7e 06 00 f0 ad 01 00 1b ae 01 00 e8 60 06 00 	0~00000000000`00
  0x74fc0	28 ae 01 00 99 b2 01 00 9c 7e 06 00 9c b2 01 00 	(00000000~000000
  0x74fd0	06 b3 01 00 e8 60 06 00 08 b3 01 00 34 b3 01 00 	00000`0000004000
  0x74fe0	70 5e 06 00 34 b3 01 00 4d b4 01 00 34 7f 06 00 	p^004000M0004000
  0x74ff0	50 b4 01 00 75 b5 01 00 34 7f 06 00 78 b5 01 00 	P000u0004000x000
  0x75000	c6 b6 01 00 4c 7f 06 00 c8 b6 01 00 ba b8 01 00 	0000L00000000000
  0x75010	60 7f 06 00 bc b8 01 00 11 ba 01 00 80 7f 06 00 	`000000000000000
  0x75020	14 ba 01 00 e6 be 01 00 9c 7f 06 00 38 bf 01 00 	0000000000008000
  0x75030	7f bf 01 00 88 67 06 00 80 bf 01 00 bc bf 01 00 	00000g0000000000
  0x75040	e8 60 06 00 bc bf 01 00 df bf 01 00 00 65 06 00 	0`00000000000e00
  0x75050	e0 bf 01 00 1c c0 01 00 e8 60 06 00 1c c0 01 00 	000000000`000000
  0x75060	3c c0 01 00 00 65 06 00 3c c0 01 00 78 c0 01 00 	<0000e00<000x000
  0x75070	e8 60 06 00 80 c0 01 00 f2 c0 01 00 44 5e 06 00 	0`0000000000D^00
  0x75080	00 c1 01 00 36 c1 01 00 e8 60 06 00 38 c1 01 00 	000060000`008000
  0x75090	c1 c1 01 00 c0 7f 06 00 d0 c1 01 00 93 c3 01 00 	0000000000000000
  0x750a0	e0 7f 06 00 f0 c3 01 00 46 c4 01 00 44 5e 06 00 	00000000F000D^00
  0x750b0	50 c4 01 00 00 c5 01 00 2c 80 06 00 10 c5 01 00 	P0000000,0000000
  0x750c0	51 c5 01 00 44 5e 06 00 54 c5 01 00 4c c7 01 00 	Q000D^00T000L000
  0x750d0	50 80 06 00 4c c7 01 00 ae c7 01 00 80 80 06 00 	P000L00000000000
  0x750e0	b0 c7 01 00 cf d7 01 00 98 80 06 00 d0 d7 01 00 	0000000000000000
  0x750f0	9a da 01 00 dc 81 06 00 9c da 01 00 fe da 01 00 	0000000000000000
  0x75100	e8 60 06 00 00 db 01 00 0d dc 01 00 10 82 06 00 	0`00000000000000
  0x75110	10 dc 01 00 0b de 01 00 44 82 06 00 0c de 01 00 	00000000D0000000
  0x75120	16 e0 01 00 60 82 06 00 18 e0 01 00 d5 e0 01 00 	0000`00000000000
  0x75130	ec 76 06 00 d8 e0 01 00 8a e2 01 00 98 82 06 00 	0v00000000000000
  0x75140	8c e2 01 00 13 e3 01 00 d0 82 06 00 14 e3 01 00 	0000000000000000
  0x75150	65 eb 01 00 fc 82 06 00 68 eb 01 00 95 eb 01 00 	e0000000h0000000
  0x75160	e8 60 06 00 98 eb 01 00 ae ee 01 00 d4 83 06 00 	0`00000000000000
  0x75170	b0 ee 01 00 c7 ee 01 00 70 5e 06 00 c8 ee 01 00 	00000000p^000000
  0x75180	f8 ee 01 00 54 84 06 00 00 ef 01 00 32 ef 01 00 	0000T00000002000
  0x75190	e8 60 06 00 40 ef 01 00 b7 ef 01 00 e8 60 06 00 	0`00@00000000`00
  0x751a0	00 f0 01 00 ab f0 01 00 70 84 06 00 ac f0 01 00 	00000000p0000000
  0x751b0	00 f1 01 00 e8 60 06 00 40 f1 01 00 a3 f1 01 00 	00000`00@0000000
  0x751c0	c0 5d 06 00 b0 f1 01 00 5b f2 01 00 e8 60 06 00 	0]000000[0000`00
  0x751d0	d0 f2 01 00 d1 f3 01 00 90 84 06 00 e0 f3 01 00 	0000000000000000
  0x751e0	43 f4 01 00 c0 5d 06 00 50 f4 01 00 fb f4 01 00 	C0000]00P0000000
  0x751f0	e8 60 06 00 10 f5 01 00 11 f6 01 00 90 84 06 00 	0`00000000000000
  0x75200	20 f6 01 00 2d f7 01 00 b0 84 06 00 40 f7 01 00 	 000-0000000@000
  0x75210	e8 f7 01 00 c8 84 06 00 f0 f7 01 00 31 f8 01 00 	0000000000001000
  0x75220	44 5e 06 00 40 f8 01 00 68 f8 01 00 e8 60 06 00 	D^00@000h0000`00
  0x75230	70 f8 01 00 6a f9 01 00 c0 5d 06 00 80 f9 01 00 	p000j0000]000000
  0x75240	c6 f9 01 00 44 5e 06 00 70 fa 01 00 a4 fa 01 00 	0000D^00p0000000
  0x75250	44 5e 06 00 a4 fa 01 00 0b fb 01 00 e8 60 06 00 	D^00000000000`00
  0x75260	0c fb 01 00 43 fe 01 00 e8 84 06 00 54 fe 01 00 	0000C0000000T000
  0x75270	43 ff 01 00 08 6c 06 00 44 ff 01 00 d4 00 02 00 	C0000l00D0000000
  0x75280	44 85 06 00 d4 00 02 00 ff 01 02 00 5c 85 06 00 	D000000000000000
  0x75290	00 02 02 00 be 02 02 00 78 85 06 00 c0 02 02 00 	00000000x0000000
  0x752a0	26 04 02 00 88 85 06 00 28 04 02 00 40 05 02 00 	&0000000(000@000
  0x752b0	c4 85 06 00 40 05 02 00 2c 06 02 00 d0 85 06 00 	0000@000,0000000
  0x752c0	40 06 02 00 b8 07 02 00 f4 6b 06 00 b8 07 02 00 	@00000000k000000
  0x752d0	ff 08 02 00 0c 86 06 00 00 09 02 00 44 0a 02 00 	000000000000D000
  0x752e0	20 86 06 00 44 0a 02 00 4e 0a 02 00 70 5e 06 00 	 000D000N000p^00
  0x752f0	70 0a 02 00 a4 0a 02 00 44 5e 06 00 a4 0a 02 00 	p0000000D^000000
  0x75300	4e 0b 02 00 e8 60 06 00 50 0b 02 00 15 0d 02 00 	N0000`00P0000000
  0x75310	40 86 06 00 18 0d 02 00 81 0e 02 00 54 86 06 00 	@00000000000T000
  0x75320	84 0e 02 00 c4 0e 02 00 e8 60 06 00 f0 0e 02 00 	000000000`000000
  0x75330	52 0f 02 00 c0 5d 06 00 54 0f 02 00 e0 0f 02 00 	R0000]00T0000000
  0x75340	24 7a 06 00 e0 0f 02 00 86 10 02 00 08 6c 06 00 	$z00000000000l00
  0x75350	90 10 02 00 d0 10 02 00 44 5e 06 00 e0 10 02 00 	00000000D^000000
  0x75360	17 12 02 00 70 86 06 00 20 12 02 00 54 12 02 00 	0000p000 000T000
  0x75370	44 5e 06 00 54 12 02 00 04 14 02 00 88 86 06 00 	D^00T00000000000
  0x75380	04 14 02 00 b9 15 02 00 ac 86 06 00 bc 15 02 00 	0000000000000000
  0x75390	a8 17 02 00 d8 86 06 00 ac 17 02 00 dc 17 02 00 	0000000000000000
  0x753a0	e8 60 06 00 dc 17 02 00 3b 18 02 00 08 87 06 00 	0`000000;0000000
  0x753b0	50 18 02 00 7b 18 02 00 e8 60 06 00 7c 18 02 00 	P000{0000`00|000
  0x753c0	fc 18 02 00 44 87 06 00 fc 18 02 00 6b 1b 02 00 	0000D0000000k000
  0x753d0	88 87 06 00 6c 1b 02 00 7a 1c 02 00 a8 87 06 00 	0000l000z0000000
  0x753e0	7c 1c 02 00 6f 1d 02 00 c4 87 06 00 64 1e 02 00 	|000o0000000d000
  0x753f0	cb 1e 02 00 e4 87 06 00 cc 1e 02 00 65 1f 02 00 	000000000000e000
  0x75400	f4 87 06 00 90 1f 02 00 c4 1f 02 00 44 5e 06 00 	000000000000D^00
  0x75410	c4 1f 02 00 59 20 02 00 c0 5d 06 00 5c 20 02 00 	0000Y 000]000 00
  0x75420	e4 20 02 00 9c 65 06 00 e4 20 02 00 04 22 02 00 	0 000e000 000"00
  0x75430	38 88 06 00 04 22 02 00 30 22 02 00 70 5e 06 00 	80000"000"00p^00
  0x75440	40 22 02 00 b0 22 02 00 e8 60 06 00 c0 22 02 00 	@"000"000`000"00
  0x75450	2d 27 02 00 6c 88 06 00 54 27 02 00 31 29 02 00 	-'00l000T'001)00
  0x75460	88 88 06 00 34 29 02 00 a2 29 02 00 e8 60 06 00 	00004)000)000`00
  0x75470	a4 29 02 00 e2 29 02 00 70 5e 06 00 e4 29 02 00 	0)000)00p^000)00
  0x75480	f4 2b 02 00 e0 88 06 00 00 2c 02 00 2b 2c 02 00 	0+0000000,00+,00
  0x75490	e8 60 06 00 40 2c 02 00 c4 2e 02 00 24 89 06 00 	0`00@,000.00$000
  0x754a0	30 2f 02 00 94 30 02 00 3c 89 06 00 94 30 02 00 	0/000000<0000000
  0x754b0	fb 30 02 00 e4 87 06 00 54 31 02 00 d0 31 02 00 	00000000T1000100
  0x754c0	94 89 06 00 d0 31 02 00 8e 32 02 00 d8 89 06 00 	0000010002000000
  0x754d0	90 32 02 00 19 33 02 00 d8 6c 06 00 1c 33 02 00 	020003000l000300
  0x754e0	dd 33 02 00 ec 76 06 00 e0 33 02 00 52 34 02 00 	03000v000300R400
  0x754f0	1c 8a 06 00 54 34 02 00 f5 34 02 00 5c 8a 06 00 	0000T40004000000
  0x75500	f8 34 02 00 f9 41 02 00 8c 8a 06 00 fc 41 02 00 	04000A0000000A00
  0x75510	09 44 02 00 40 8c 06 00 0c 44 02 00 09 48 02 00 	0D00@0000D000H00
  0x75520	c4 8c 06 00 0c 48 02 00 21 48 02 00 70 5e 06 00 	00000H00!H00p^00
  0x75530	24 48 02 00 95 48 02 00 14 5e 06 00 98 48 02 00 	$H000H000^000H00
  0x75540	4d 4a 02 00 70 8d 06 00 50 4a 02 00 cc 4b 02 00 	MJ00p000PJ000K00
  0x75550	84 8d 06 00 cc 4b 02 00 d2 4c 02 00 a0 8d 06 00 	00000K000L000000
  0x75560	d4 4c 02 00 9d 4e 02 00 b4 8d 06 00 a0 4e 02 00 	0L000N0000000N00
  0x75570	39 51 02 00 e4 8d 06 00 3c 51 02 00 62 52 02 00 	9Q000000<Q00bR00
  0x75580	f8 8d 06 00 90 52 02 00 d3 52 02 00 44 5e 06 00 	00000R000R00D^00
  0x75590	d4 52 02 00 7e 53 02 00 20 8e 06 00 90 53 02 00 	0R00~S00 0000S00
  0x755a0	c4 53 02 00 44 5e 06 00 c4 53 02 00 2d 54 02 00 	0S00D^000S00-T00
  0x755b0	54 8e 06 00 30 54 02 00 be 55 02 00 74 8e 06 00 	T0000T000U00t000
  0x755c0	c0 55 02 00 95 57 02 00 d8 8e 06 00 98 57 02 00 	0U000W0000000W00
  0x755d0	be 58 02 00 58 8f 06 00 d8 58 02 00 3d 59 02 00 	0X00X0000X00=Y00
  0x755e0	b4 8f 06 00 4c 59 02 00 11 5c 02 00 fc 8f 06 00 	0000LY0000000000
  0x755f0	14 5c 02 00 c3 5c 02 00 2c 90 06 00 c4 5c 02 00 	00000000,0000000
  0x75600	0a 5d 02 00 44 90 06 00 0c 5d 02 00 37 5d 02 00 	0]00D0000]007]00
  0x75610	70 5e 06 00 38 5d 02 00 96 5d 02 00 60 90 06 00 	p^008]000]00`000
  0x75620	98 5d 02 00 b9 5d 02 00 58 62 06 00 bc 5d 02 00 	0]000]00Xb000]00
  0x75630	07 5e 02 00 6c 90 06 00 08 5e 02 00 97 5e 02 00 	0^00l0000^000^00
  0x75640	90 90 06 00 98 5e 02 00 20 60 02 00 a4 90 06 00 	00000^00 `000000
  0x75650	20 60 02 00 bf 61 02 00 c4 90 06 00 d0 61 02 00 	 `000a0000000a00
  0x75660	fb 61 02 00 e8 60 06 00 fc 61 02 00 3e 62 02 00 	0a000`000a00>b00
  0x75670	1c 5e 06 00 40 62 02 00 d1 62 02 00 e4 90 06 00 	0^00@b000b000000
  0x75680	d4 62 02 00 78 63 02 00 e4 90 06 00 78 63 02 00 	0b00xc000000xc00
  0x75690	e9 63 02 00 14 5e 06 00 ec 63 02 00 4f 64 02 00 	0c000^000c00Od00
  0x756a0	e8 60 06 00 50 64 02 00 99 64 02 00 70 5e 06 00 	0`00Pd000d00p^00
  0x756b0	9c 64 02 00 16 65 02 00 88 67 06 00 18 65 02 00 	0d000e000g000e00
  0x756c0	61 65 02 00 70 5e 06 00 64 65 02 00 27 66 02 00 	ae00p^00de00'f00
  0x756d0	90 74 06 00 28 66 02 00 e7 66 02 00 ec 90 06 00 	0t00(f000f000000
  0x756e0	e8 66 02 00 58 67 02 00 e8 60 06 00 58 67 02 00 	0f00Xg000`00Xg00
  0x756f0	07 68 02 00 9c 65 06 00 08 68 02 00 db 68 02 00 	0h000e000h000h00
  0x75700	9c 65 06 00 dc 68 02 00 93 69 02 00 fc 90 06 00 	0e000h000i000000
  0x75710	94 69 02 00 36 6a 02 00 80 74 06 00 38 6a 02 00 	0i006j000t008j00
  0x75720	e9 6a 02 00 18 91 06 00 ec 6a 02 00 a5 6b 02 00 	0j0000000j000k00
  0x75730	9c 65 06 00 a8 6b 02 00 20 6c 02 00 9c 65 06 00 	0e000k00 l000e00
  0x75740	20 6c 02 00 86 6c 02 00 e8 60 06 00 88 6c 02 00 	 l000l000`000l00
  0x75750	ee 6c 02 00 e8 60 06 00 f0 6c 02 00 77 6d 02 00 	0l000`000l00wm00
  0x75760	9c 65 06 00 78 6d 02 00 27 6f 02 00 28 91 06 00 	0e00xm00'o00(000
  0x75770	28 6f 02 00 a8 70 02 00 44 91 06 00 b0 70 02 00 	(o000p00D0000p00
  0x75780	6d 71 02 00 64 91 06 00 80 71 02 00 aa 72 02 00 	mq00d0000q000r00
  0x75790	78 91 06 00 d0 72 02 00 4c 73 02 00 44 5e 06 00 	x0000r00Ls00D^00
  0x757a0	4c 73 02 00 4f 74 02 00 8c 91 06 00 50 74 02 00 	Ls00Ot000000Pt00
  0x757b0	bf 74 02 00 9c 65 06 00 c0 74 02 00 2f 75 02 00 	0t000e000t00/u00
  0x757c0	9c 65 06 00 30 75 02 00 74 75 02 00 e8 60 06 00 	0e000u00tu000`00
  0x757d0	74 75 02 00 fa 76 02 00 a4 91 06 00 fc 76 02 00 	tu000v0000000v00
  0x757e0	81 77 02 00 e8 60 06 00 84 77 02 00 ee 77 02 00 	0w000`000w000w00
  0x757f0	9c 65 06 00 f0 77 02 00 9b 78 02 00 f4 6b 06 00 	0e000w000x000k00
  0x75800	9c 78 02 00 aa 79 02 00 b4 91 06 00 ac 79 02 00 	0x000y0000000y00
  0x75810	8d 7a 02 00 d4 91 06 00 a0 7a 02 00 d9 7a 02 00 	0z0000000z000z00
  0x75820	70 5e 06 00 00 7b 02 00 8c 7b 02 00 e0 91 06 00 	p^000{000{000000
  0x75830	8c 7b 02 00 12 7c 02 00 20 92 06 00 14 7c 02 00 	0{000|00 0000|00
  0x75840	b5 7c 02 00 24 66 06 00 b8 7c 02 00 36 7d 02 00 	0|00$f000|006}00
  0x75850	9c 65 06 00 38 7d 02 00 ad 7d 02 00 e8 60 06 00 	0e008}000}000`00
  0x75860	b0 7d 02 00 7b 7e 02 00 28 92 06 00 90 7e 02 00 	0}00{~00(0000~00
  0x75870	98 7f 02 00 38 92 06 00 98 7f 02 00 67 80 02 00 	000080000000g000
  0x75880	60 92 06 00 68 80 02 00 ed 80 02 00 84 92 06 00 	`000h00000000000
  0x75890	f0 80 02 00 82 81 02 00 94 92 06 00 84 81 02 00 	0000000000000000
  0x758a0	cc 82 02 00 a4 92 06 00 cc 82 02 00 73 83 02 00 	000000000000s000
  0x758b0	b8 92 06 00 74 83 02 00 37 84 02 00 ec 76 06 00 	0000t00070000v00
  0x758c0	38 84 02 00 93 85 02 00 c8 92 06 00 94 85 02 00 	8000000000000000
  0x758d0	02 86 02 00 9c 65 06 00 04 86 02 00 34 88 02 00 	00000e0000004000
  0x758e0	e8 92 06 00 34 88 02 00 09 89 02 00 08 93 06 00 	0000400000000000
  0x758f0	0c 89 02 00 eb 89 02 00 84 92 06 00 ec 89 02 00 	0000000000000000
  0x75900	a8 8b 02 00 18 93 06 00 a8 8b 02 00 42 8c 02 00 	000000000000B000
  0x75910	30 93 06 00 44 8c 02 00 82 8c 02 00 e8 60 06 00 	0000D00000000`00
  0x75920	b0 8c 02 00 f2 8c 02 00 44 5e 06 00 f4 8c 02 00 	00000000D^000000
  0x75930	88 8d 02 00 40 93 06 00 88 8d 02 00 eb 8d 02 00 	0000@00000000000
  0x75940	44 5e 06 00 ec 8d 02 00 28 8e 02 00 e8 60 06 00 	D^000000(0000`00
  0x75950	28 8e 02 00 37 8e 02 00 70 5e 06 00 38 8e 02 00 	(0007000p^008000
  0x75960	5a 8e 02 00 4c 93 06 00 90 8e 02 00 ed 8e 02 00 	Z000L00000000000
  0x75970	b4 93 06 00 f0 8e 02 00 08 90 02 00 bc 93 06 00 	0000000000000000
  0x75980	20 90 02 00 54 90 02 00 44 5e 06 00 54 90 02 00 	 000T000D^00T000
  0x75990	bf 90 02 00 e8 60 06 00 d0 90 02 00 1b 91 02 00 	00000`0000000000
  0x759a0	44 5e 06 00 1c 91 02 00 f0 91 02 00 24 94 06 00 	D^0000000000$000
  0x759b0	f0 91 02 00 3b 92 02 00 c0 5d 06 00 3c 92 02 00 	0000;0000]00<000
  0x759c0	ec 92 02 00 08 6c 06 00 ec 92 02 00 dc 94 02 00 	00000l0000000000
  0x759d0	88 94 06 00 dc 94 02 00 8f 96 02 00 cc 94 06 00 	0000000000000000
  0x759e0	a0 96 02 00 b7 97 02 00 2c 66 06 00 f4 97 02 00 	00000000,f000000
  0x759f0	2d 98 02 00 70 5e 06 00 44 98 02 00 5a 98 02 00 	-000p^00D000Z000
  0x75a00	70 5e 06 00 5c 98 02 00 8e 9a 02 00 f0 94 06 00 	p^00000000000000
  0x75a10	9c 9a 02 00 e2 9c 02 00 28 91 06 00 e4 9c 02 00 	00000000(0000000
  0x75a20	bb 9d 02 00 ec 76 06 00 bc 9d 02 00 32 9e 02 00 	00000v0000002000
  0x75a30	40 95 06 00 34 9e 02 00 af 9e 02 00 80 95 06 00 	@000400000000000
  0x75a40	b0 9e 02 00 3b 9f 02 00 24 7a 06 00 50 9f 02 00 	0000;000$z00P000
  0x75a50	98 9f 02 00 44 5e 06 00 98 9f 02 00 c8 9f 02 00 	0000D^0000000000
  0x75a60	e8 60 06 00 c8 9f 02 00 26 a0 02 00 ec 76 06 00 	0`000000&0000v00
  0x75a70	28 a0 02 00 5e a0 02 00 94 95 06 00 8c a0 02 00 	(000^00000000000
  0x75a80	c0 a0 02 00 fc 5d 06 00 c0 a0 02 00 fc a0 02 00 	00000]0000000000
  0x75a90	fc 5d 06 00 fc a0 02 00 07 a2 02 00 b8 95 06 00 	0]00000000000000
  0x75aa0	08 a2 02 00 01 a3 02 00 c8 95 06 00 04 a3 02 00 	0000000000000000
  0x75ab0	9f a3 02 00 d8 95 06 00 a0 a3 02 00 f1 a4 02 00 	0000000000000000
  0x75ac0	e8 95 06 00 f4 a4 02 00 1d a7 02 00 00 96 06 00 	0000000000000000
  0x75ad0	20 a7 02 00 77 a7 02 00 20 96 06 00 78 a7 02 00 	 000w000 000x000
  0x75ae0	ed a7 02 00 28 96 06 00 f0 a7 02 00 80 a8 02 00 	0000(00000000000
  0x75af0	9c 65 06 00 80 a8 02 00 0d a9 02 00 80 74 06 00 	0e00000000000t00
  0x75b00	10 a9 02 00 8b a9 02 00 9c 65 06 00 8c a9 02 00 	000000000e000000
  0x75b10	31 aa 02 00 70 5e 06 00 34 aa 02 00 c2 ac 02 00 	1000p^0040000000
  0x75b20	c0 5d 06 00 c4 ac 02 00 2a ad 02 00 44 5e 06 00 	0]000000*000D^00
  0x75b30	2c ad 02 00 2a ae 02 00 34 96 06 00 2c ae 02 00 	,000*0004000,000
  0x75b40	ba af 02 00 08 6c 06 00 00 b0 02 00 29 b0 02 00 	00000l000000)000
  0x75b50	70 5e 06 00 2c b0 02 00 44 b0 02 00 4c 96 06 00 	p^00,000D000L000
  0x75b60	44 b0 02 00 87 b0 02 00 54 96 06 00 88 b0 02 00 	D0000000T0000000
  0x75b70	c6 b0 02 00 5c 96 06 00 c8 b0 02 00 3f b2 02 00 	000000000000?000
  0x75b80	c4 90 06 00 40 b2 02 00 bf b2 02 00 80 74 06 00 	0000@00000000t00
  0x75b90	c0 b2 02 00 28 b3 02 00 9c 65 06 00 28 b3 02 00 	0000(0000e00(000
  0x75ba0	73 b3 02 00 80 96 06 00 74 b3 02 00 d6 b3 02 00 	s0000000t0000000
  0x75bb0	e8 60 06 00 d8 b3 02 00 4f b4 02 00 9c 65 06 00 	0`000000O0000e00
  0x75bc0	50 b4 02 00 f5 b4 02 00 a0 96 06 00 f8 b4 02 00 	P000000000000000
  0x75bd0	9d b5 02 00 80 74 06 00 a0 b5 02 00 58 b6 02 00 	00000t000000X000
  0x75be0	b8 96 06 00 58 b6 02 00 84 b7 02 00 c8 96 06 00 	0000X00000000000
  0x75bf0	84 b7 02 00 f3 b7 02 00 dc 96 06 00 f4 b7 02 00 	0000000000000000
  0x75c00	8d b8 02 00 f4 96 06 00 90 b8 02 00 88 b9 02 00 	0000000000000000
  0x75c10	08 97 06 00 88 b9 02 00 1a ba 02 00 9c 65 06 00 	0000000000000e00
  0x75c20	1c ba 02 00 66 bb 02 00 1c 97 06 00 68 bb 02 00 	0000f0000000h000
  0x75c30	e2 bb 02 00 e8 60 06 00 e4 bb 02 00 69 bc 02 00 	00000`000000i000
  0x75c40	34 97 06 00 6c bc 02 00 9a bc 02 00 44 97 06 00 	4000l0000000D000
  0x75c50	9c bc 02 00 18 bf 02 00 5c 97 06 00 20 bf 02 00 	000000000000 000
  0x75c60	ac bf 02 00 88 67 06 00 c0 bf 02 00 5d c0 02 00 	00000g000000]000
  0x75c70	9c 97 06 00 70 c0 02 00 fc c0 02 00 88 67 06 00 	0000p00000000g00
  0x75c80	10 c1 02 00 9c c1 02 00 88 67 06 00 b0 c1 02 00 	000000000g000000
  0x75c90	81 c2 02 00 a4 97 06 00 90 c2 02 00 fa c2 02 00 	0000000000000000
  0x75ca0	dc 97 06 00 10 c3 02 00 7d c3 02 00 fc 97 06 00 	00000000}0000000
  0x75cb0	90 c3 02 00 11 c4 02 00 e8 60 06 00 14 c4 02 00 	000000000`000000
  0x75cc0	86 c5 02 00 1c 98 06 00 90 c5 02 00 1d c6 02 00 	0000000000000000
  0x75cd0	88 67 06 00 30 c6 02 00 bd c6 02 00 88 67 06 00 	0g00000000000g00
  0x75ce0	d0 c6 02 00 64 c7 02 00 88 67 06 00 70 c7 02 00 	0000d0000g00p000
  0x75cf0	9b c7 02 00 50 98 06 00 b0 c7 02 00 13 c8 02 00 	0000P00000000000
  0x75d00	74 98 06 00 20 c8 02 00 7b c8 02 00 dc 97 06 00 	t000 000{0000000
  0x75d10	7c c8 02 00 97 c9 02 00 94 98 06 00 98 c9 02 00 	|000000000000000
  0x75d20	4e cb 02 00 a8 98 06 00 50 cb 02 00 bc cb 02 00 	N0000000P0000000
  0x75d30	d0 98 06 00 bc cb 02 00 20 cc 02 00 0c 99 06 00 	00000000 0000000
  0x75d40	20 cc 02 00 63 cd 02 00 48 99 06 00 64 cd 02 00 	 000c000H000d000
  0x75d50	c3 cd 02 00 70 99 06 00 c4 cd 02 00 65 ce 02 00 	0000p0000000e000
  0x75d60	78 99 06 00 68 ce 02 00 cf ce 02 00 e8 60 06 00 	x000h00000000`00
  0x75d70	d0 ce 02 00 74 cf 02 00 e8 95 06 00 80 cf 02 00 	0000t00000000000
  0x75d80	cc cf 02 00 44 5e 06 00 cc cf 02 00 91 d0 02 00 	0000D^0000000000
  0x75d90	e8 60 06 00 a0 d0 02 00 d4 d0 02 00 44 5e 06 00 	0`0000000000D^00
  0x75da0	d4 d0 02 00 ea d1 02 00 84 99 06 00 ec d1 02 00 	0000000000000000
  0x75db0	a2 d3 02 00 8c 99 06 00 a4 d3 02 00 1c d4 02 00 	0000000000000000
  0x75dc0	70 5e 06 00 1c d4 02 00 b1 d8 02 00 98 99 06 00 	p^00000000000000
  0x75dd0	b4 d8 02 00 1c d9 02 00 f0 99 06 00 1c d9 02 00 	0000000000000000
  0x75de0	d6 d9 02 00 ec 76 06 00 d8 d9 02 00 a4 db 02 00 	00000v0000000000
  0x75df0	ec 7b 06 00 a4 db 02 00 7c dd 02 00 3c 6c 06 00 	0{000000|000<l00
  0x75e00	7c dd 02 00 26 de 02 00 f4 6b 06 00 28 de 02 00 	|000&0000k00(000
  0x75e10	d5 de 02 00 ec 76 06 00 d8 de 02 00 8b df 02 00 	00000v0000000000
  0x75e20	2c 9a 06 00 8c df 02 00 54 e0 02 00 e8 60 06 00 	,0000000T0000`00
  0x75e30	60 e0 02 00 93 e0 02 00 e8 60 06 00 a0 e0 02 00 	`00000000`000000
  0x75e40	dc e0 02 00 e8 60 06 00 f0 e0 02 00 06 e1 02 00 	00000`0000000000
  0x75e50	70 5e 06 00 08 e1 02 00 cf e2 02 00 6c 9a 06 00 	p^0000000000l000
  0x75e60	d0 e2 02 00 34 e3 02 00 0c 99 06 00 34 e3 02 00 	0000400000004000
  0x75e70	9c e3 02 00 84 9a 06 00 b0 e3 02 00 f6 e3 02 00 	0000000000000000
  0x75e80	e8 60 06 00 00 e4 02 00 51 e4 02 00 44 5e 06 00 	0`000000Q000D^00
  0x75e90	54 e4 02 00 d7 e4 02 00 e8 60 06 00 d8 e4 02 00 	T00000000`000000
  0x75ea0	5b e5 02 00 c0 9a 06 00 5c e5 02 00 04 e6 02 00 	[000000000000000
  0x75eb0	f4 6b 06 00 10 e6 02 00 b5 e6 02 00 14 74 06 00 	0k00000000000t00
  0x75ec0	c0 e6 02 00 94 e8 02 00 00 9b 06 00 a8 e8 02 00 	0000000000000000
  0x75ed0	01 ea 02 00 24 9b 06 00 10 ea 02 00 44 ea 02 00 	0000$0000000D000
  0x75ee0	44 5e 06 00 44 ea 02 00 c2 ea 02 00 e8 60 06 00 	D^00D00000000`00
  0x75ef0	c4 ea 02 00 19 ec 02 00 8c 91 06 00 1c ec 02 00 	0000000000000000
  0x75f00	b1 ec 02 00 44 5e 06 00 b4 ec 02 00 4c ed 02 00 	0000D^000000L000
  0x75f10	78 9b 06 00 4c ed 02 00 fe f2 02 00 b8 9b 06 00 	x000L00000000000
  0x75f20	10 f3 02 00 26 f3 02 00 70 5e 06 00 30 f3 02 00 	0000&000p^000000
  0x75f30	46 f3 02 00 70 5e 06 00 50 f3 02 00 66 f3 02 00 	F000p^00P000f000
  0x75f40	70 5e 06 00 70 f3 02 00 97 f3 02 00 c4 9b 06 00 	p^00p00000000000
  0x75f50	a0 f3 02 00 d8 f3 02 00 dc 9b 06 00 d8 f3 02 00 	0000000000000000
  0x75f60	25 f4 02 00 ec 9b 06 00 80 f4 02 00 f4 f4 02 00 	%000000000000000
  0x75f70	e8 60 06 00 00 f5 02 00 3c f5 02 00 e8 60 06 00 	0`000000<0000`00
  0x75f80	50 f5 02 00 b8 f6 02 00 04 9c 06 00 b8 f6 02 00 	P000000000000000
  0x75f90	9d f7 02 00 48 9c 06 00 a0 f7 02 00 00 f8 02 00 	0000H00000000000
  0x75fa0	70 5e 06 00 00 f8 02 00 94 f8 02 00 e8 60 06 00 	p^00000000000`00
  0x75fb0	94 f8 02 00 f3 f8 02 00 54 9c 06 00 f4 f8 02 00 	00000000T0000000
  0x75fc0	fa f9 02 00 74 9c 06 00 fc f9 02 00 67 fa 02 00 	0000t0000000g000
  0x75fd0	9c 9c 06 00 68 fa 02 00 d1 fa 02 00 bc 9c 06 00 	0000h00000000000
  0x75fe0	30 fb 02 00 18 fc 02 00 f8 9c 06 00 20 fc 02 00 	000000000000 000
  0x75ff0	ff 0d 03 00 0c 9d 06 00 00 0e 03 00 fb 0e 03 00 	0000000000000000
  0x76000	28 9d 06 00 fc 0e 03 00 4d 10 03 00 40 9d 06 00 	(0000000M000@000
  0x76010	60 10 03 00 7d 10 03 00 70 5e 06 00 90 10 03 00 	`000}000p^000000
  0x76020	ad 10 03 00 70 5e 06 00 b0 10 03 00 66 12 03 00 	0000p^000000f000
  0x76030	68 9e 06 00 68 12 03 00 10 13 03 00 ec 76 06 00 	h000h00000000v00
  0x76040	10 13 03 00 bc 13 03 00 ec 76 06 00 fc 13 03 00 	000000000v000000
  0x76050	af 16 03 00 54 86 06 00 b0 16 03 00 25 1e 03 00 	0000T0000000%000
  0x76060	88 9e 06 00 28 1e 03 00 2b 20 03 00 b8 9d 06 00 	0000(000+ 000000
  0x76070	2c 20 03 00 35 22 03 00 b8 9d 06 00 38 22 03 00 	, 005"0000008"00
  0x76080	3b 24 03 00 b8 9d 06 00 3c 24 03 00 45 26 03 00 	;$000000<$00E&00
  0x76090	b8 9d 06 00 48 26 03 00 4b 28 03 00 b8 9d 06 00 	0000H&00K(000000
  0x760a0	4c 28 03 00 55 2a 03 00 b8 9d 06 00 4c 2b 03 00 	L(00U*000000L+00
  0x760b0	f6 2b 03 00 e4 7b 06 00 f8 2b 03 00 b5 2c 03 00 	0+000{000+000,00
  0x760c0	e4 7b 06 00 d4 2e 03 00 84 2f 03 00 e4 7b 06 00 	0{000.000/000{00
  0x760d0	84 2f 03 00 47 30 03 00 e4 7b 06 00 e0 31 03 00 	0/00G0000{000100
  0x760e0	ef 31 03 00 94 63 06 00 ef 31 03 00 38 32 03 00 	01000c0001008200
  0x760f0	7c 9d 06 00 38 32 03 00 47 32 03 00 90 9d 06 00 	|0008200G2000000
  0x76100	48 32 03 00 d5 32 03 00 64 91 06 00 d8 32 03 00 	H2000200d0000200
  0x76110	66 33 03 00 64 91 06 00 68 33 03 00 e8 36 03 00 	f300d000h3000600
  0x76120	b8 9d 06 00 e8 36 03 00 be 39 03 00 b8 9d 06 00 	0000060009000000
  0x76130	c0 39 03 00 96 3c 03 00 b8 9d 06 00 98 3c 03 00 	09000<0000000<00
  0x76140	1f 3e 03 00 f4 5d 06 00 20 3e 03 00 cd 3f 03 00 	0>000]00 >000?00
  0x76150	f4 5d 06 00 d0 3f 03 00 d1 43 03 00 d0 9d 06 00 	0]000?000C000000
  0x76160	d4 43 03 00 38 48 03 00 20 9e 06 00 b4 48 03 00 	0C008H00 0000H00
  0x76170	31 49 03 00 c0 5d 06 00 34 49 03 00 85 4b 03 00 	1I000]004I000K00
  0x76180	f4 9d 06 00 88 4b 03 00 ef 4d 03 00 54 9e 06 00 	00000K000M00T000
  0x76190	f0 4d 03 00 c2 4e 03 00 9c 65 06 00 c4 4e 03 00 	0M000N000e000N00
  0x761a0	88 4f 03 00 44 9e 06 00 88 4f 03 00 3e 50 03 00 	0O00D0000O00>P00
  0x761b0	9c 65 06 00 40 50 03 00 d9 50 03 00 e8 60 06 00 	0e00@P000P000`00
  0x761c0	dc 50 03 00 78 51 03 00 c0 5d 06 00 78 51 03 00 	0P00xQ000]00xQ00
  0x761d0	eb 51 03 00 c0 5d 06 00 f0 51 03 00 66 52 03 00 	0Q000]000Q00fR00
  0x761e0	c0 5d 06 00 68 52 03 00 0b 53 03 00 a0 9d 06 00 	0]00hR000S000000
  0x761f0	0c 53 03 00 b1 53 03 00 08 9e 06 00 b4 53 03 00 	0S000S0000000S00
  0x76200	05 56 03 00 5c 9d 06 00 08 56 03 00 61 58 03 00 	0V0000000V00aX00
  0x76210	5c 9d 06 00 64 58 03 00 75 59 03 00 70 8d 06 00 	0000dX00uY00p000
  0x76220	78 59 03 00 13 5a 03 00 c0 5d 06 00 54 5a 03 00 	xY000Z000]00TZ00
  0x76230	9a 5a 03 00 70 5e 06 00 9c 5a 03 00 cd 5b 03 00 	0Z00p^000Z000[00
  0x76240	24 89 06 00 d0 5b 03 00 41 5c 03 00 e8 60 06 00 	$0000[00A0000`00
  0x76250	44 5c 03 00 b8 5c 03 00 a4 9e 06 00 b8 5c 03 00 	D000000000000000
  0x76260	e1 5c 03 00 70 5e 06 00 e4 5c 03 00 fa 5c 03 00 	0000p^0000000000
  0x76270	e8 60 06 00 fc 5c 03 00 66 5d 03 00 44 9e 06 00 	0`000000f]00D000
  0x76280	68 5d 03 00 b4 5d 03 00 c0 5d 06 00 b4 5d 03 00 	h]000]000]000]00
  0x76290	0f 5f 03 00 b4 9e 06 00 18 5f 03 00 b3 5f 03 00 	0_0000000_000_00
  0x762a0	d4 9e 06 00 b4 5f 03 00 80 60 03 00 f4 6b 06 00 	00000_000`000k00
  0x762b0	80 60 03 00 9e 60 03 00 f4 5d 06 00 a0 60 03 00 	0`000`000]000`00
  0x762c0	cf 60 03 00 f4 5d 06 00 d0 60 03 00 17 61 03 00 	0`000]000`000a00
  0x762d0	70 5e 06 00 18 61 03 00 14 62 03 00 c0 5d 06 00 	p^000a000b000]00
  0x762e0	14 62 03 00 79 62 03 00 e8 60 06 00 c4 62 03 00 	0b00yb000`000b00
  0x762f0	0b 63 03 00 e8 60 06 00 0c 63 03 00 2e 63 03 00 	0c000`000c00.c00
  0x76300	e8 60 06 00 30 63 03 00 50 63 03 00 70 5e 06 00 	0`000c00Pc00p^00
  0x76310	50 63 03 00 70 63 03 00 70 5e 06 00 70 63 03 00 	Pc00pc00p^00pc00
  0x76320	5f 64 03 00 e0 9e 06 00 84 64 03 00 da 64 03 00 	_d0000000d000d00
  0x76330	70 5e 06 00 dc 64 03 00 18 65 03 00 e8 9e 06 00 	p^000d000e000000
  0x76340	18 65 03 00 76 65 03 00 e8 60 06 00 a0 68 03 00 	0e00ve000`000h00
  0x76350	d1 68 03 00 e8 60 06 00 d4 68 03 00 09 69 03 00 	0h000`000h000i00
  0x76360	e8 60 06 00 0c 69 03 00 3d 69 03 00 e8 60 06 00 	0`000i00=i000`00
  0x76370	40 69 03 00 75 69 03 00 e8 60 06 00 78 69 03 00 	@i00ui000`00xi00
  0x76380	0f 6d 03 00 0c 9f 06 00 10 6d 03 00 0c 6e 03 00 	0m0000000m000n00
  0x76390	b0 79 06 00 0c 6e 03 00 ed 6f 03 00 f0 9e 06 00 	0y000n000o000000
  0x763a0	f0 6f 03 00 c5 70 03 00 28 9f 06 00 c8 70 03 00 	0o000p00(0000p00
  0x763b0	1e 72 03 00 08 6c 06 00 20 72 03 00 72 73 03 00 	0r000l00 r00rs00
  0x763c0	3c 9f 06 00 74 73 03 00 8a 74 03 00 3c 6c 06 00 	<000ts000t00<l00
  0x763d0	8c 74 03 00 71 77 03 00 04 5e 06 00 74 77 03 00 	0t00qw000^00tw00
  0x763e0	24 79 03 00 54 9f 06 00 24 79 03 00 9c 7a 03 00 	$y00T000$y000z00
  0x763f0	b8 9d 06 00 9c 7a 03 00 34 7b 03 00 68 9f 06 00 	00000z004{00h000
  0x76400	34 7b 03 00 5b 7b 03 00 70 5e 06 00 70 7b 03 00 	4{00[{00p^00p{00
  0x76410	8f 7c 03 00 2c 66 06 00 a0 7c 03 00 fb 7c 03 00 	0|00,f000|000|00
  0x76420	e8 60 06 00 2c 7d 03 00 6b 7d 03 00 88 9f 06 00 	0`00,}00k}000000
  0x76430	6c 7d 03 00 a9 7d 03 00 f4 9f 06 00 ac 7d 03 00 	l}000}0000000}00
  0x76440	f1 7d 03 00 ac 9f 06 00 f4 7d 03 00 53 7e 03 00 	0}0000000}00S~00
  0x76450	d0 9f 06 00 54 7e 03 00 21 7f 03 00 78 9f 06 00 	0000T~00!000x000
  0x76460	30 7f 03 00 50 7f 03 00 e8 9e 06 00 50 7f 03 00 	0000P0000000P000
  0x76470	45 80 03 00 80 9f 06 00 48 80 03 00 af 80 03 00 	E0000000H0000000
  0x76480	44 5e 06 00 b0 80 03 00 83 81 03 00 c0 5d 06 00 	D^00000000000]00
  0x76490	84 81 03 00 26 82 03 00 e8 60 06 00 28 82 03 00 	0000&0000`00(000
  0x764a0	f0 82 03 00 c0 5d 06 00 f0 82 03 00 ae 83 03 00 	00000]0000000000
  0x764b0	c0 5d 06 00 c0 83 03 00 f9 83 03 00 70 5e 06 00 	0]0000000000p^00
  0x764c0	10 84 03 00 32 84 03 00 70 5e 06 00 34 84 03 00 	00002000p^004000
  0x764d0	a2 84 03 00 20 a0 06 00 c0 84 03 00 ee 84 03 00 	0000 00000000000
  0x764e0	18 a0 06 00 f0 84 03 00 59 85 03 00 e8 60 06 00 	00000000Y0000`00
  0x764f0	5c 85 03 00 49 86 03 00 68 a0 06 00 4c 86 03 00 	0000I000h000L000
  0x76500	54 87 03 00 2c 66 06 00 60 87 03 00 9b 87 03 00 	T000,f00`0000000
  0x76510	48 a0 06 00 b0 87 03 00 f0 87 03 00 44 5e 06 00 	H00000000000D^00
  0x76520	f0 87 03 00 e1 88 03 00 e0 9e 06 00 ec 88 03 00 	0000000000000000
  0x76530	1b 89 03 00 70 5e 06 00 1c 89 03 00 d8 8a 03 00 	0000p^0000000000
  0x76540	ec 7b 06 00 d8 8a 03 00 30 8b 03 00 e8 60 06 00 	0{00000000000`00
  0x76550	30 8b 03 00 88 8b 03 00 e8 60 06 00 88 8b 03 00 	000000000`000000
  0x76560	cc 8b 03 00 70 5e 06 00 cc 8b 03 00 b8 8c 03 00 	0000p^0000000000
  0x76570	28 9f 06 00 d8 8c 03 00 48 8d 03 00 c0 5d 06 00 	(0000000H0000]00
  0x76580	48 8d 03 00 34 8e 03 00 28 9f 06 00 34 8e 03 00 	H0004000(0004000
  0x76590	91 8e 03 00 44 5e 06 00 94 8e 03 00 de 8e 03 00 	0000D^0000000000
  0x765a0	e8 60 06 00 e0 8e 03 00 1d 8f 03 00 70 5e 06 00 	0`0000000000p^00
  0x765b0	30 8f 03 00 53 8f 03 00 84 a0 06 00 60 8f 03 00 	0000S0000000`000
  0x765c0	a1 8f 03 00 e8 60 06 00 00 90 03 00 09 92 03 00 	00000`0000000000
  0x765d0	2c 66 06 00 74 92 03 00 ed 92 03 00 c0 5d 06 00 	,f00t00000000]00
  0x765e0	f0 92 03 00 ed 95 03 00 8c a0 06 00 f8 95 03 00 	0000000000000000
  0x765f0	7f 96 03 00 28 9f 06 00 80 96 03 00 b8 96 03 00 	0000(00000000000
  0x76600	f8 a0 06 00 b8 96 03 00 83 97 03 00 d8 a0 06 00 	0000000000000000
  0x76610	84 97 03 00 49 98 03 00 b0 a0 06 00 4c 98 03 00 	0000I0000000L000
  0x76620	7e 98 03 00 e8 60 06 00 80 98 03 00 a1 98 03 00 	~0000`0000000000
  0x76630	70 5e 06 00 a4 98 03 00 13 99 03 00 98 a0 06 00 	p^00000000000000
  0x76640	48 99 03 00 86 99 03 00 70 5e 06 00 94 99 03 00 	H0000000p^000000
  0x76650	dc 99 03 00 5c a1 06 00 dc 99 03 00 0a 9a 03 00 	0000000000000000
  0x76660	18 a0 06 00 2c 9a 03 00 a5 9c 03 00 1c a1 06 00 	0000,00000000000
  0x76670	b0 9c 03 00 cc 9c 03 00 70 5e 06 00 f4 9c 03 00 	00000000p^000000
  0x76680	32 9d 03 00 44 5e 06 00 34 9d 03 00 6b 9d 03 00 	2000D^004000k000
  0x76690	80 a1 06 00 74 9d 03 00 9f 9d 03 00 70 5e 06 00 	0000t0000000p^00
  0x766a0	2c 9e 03 00 a2 9f 03 00 ec 76 06 00 cc 9f 03 00 	,00000000v000000
  0x766b0	03 a0 03 00 e8 9e 06 00 2c a0 03 00 d4 a0 03 00 	00000000,0000000
  0x766c0	70 5e 06 00 d4 a0 03 00 42 a1 03 00 a0 a1 06 00 	p^000000B0000000
  0x766d0	44 a1 03 00 a9 a1 03 00 44 5e 06 00 ac a1 03 00 	D0000000D^000000
  0x766e0	7a a3 03 00 40 a2 06 00 7c a3 03 00 f9 a3 03 00 	z000@000|0000000
  0x766f0	9c 97 06 00 fc a3 03 00 94 a4 03 00 44 5e 06 00 	000000000000D^00
  0x76700	94 a4 03 00 7b a6 03 00 24 a2 06 00 7c a6 03 00 	0000{000$000|000
  0x76710	eb a8 03 00 0c a2 06 00 ec a8 03 00 a4 a9 03 00 	0000000000000000
  0x76720	e4 a1 06 00 b0 a9 03 00 10 aa 03 00 70 5e 06 00 	000000000000p^00
  0x76730	10 aa 03 00 2c aa 03 00 70 5e 06 00 2c aa 03 00 	0000,000p^00,000
  0x76740	e9 ac 03 00 c4 a1 06 00 ec ac 03 00 4b ad 03 00 	000000000000K000
  0x76750	e8 60 06 00 4c ad 03 00 1c ae 03 00 ec 76 06 00 	0`00L00000000v00
  0x76760	1c ae 03 00 2c af 03 00 f4 6b 06 00 30 af 03 00 	0000,0000k000000
  0x76770	8a b1 03 00 84 a2 06 00 8a b1 03 00 79 b3 03 00 	000000000000y000
  0x76780	9c a2 06 00 79 b3 03 00 cc b3 03 00 b0 a2 06 00 	0000y00000000000
  0x76790	cc b3 03 00 5a c6 03 00 64 a2 06 00 5c c6 03 00 	0000Z000d0000000
  0x767a0	e3 c6 03 00 c0 5d 06 00 e4 c6 03 00 f8 c6 03 00 	00000]0000000000
  0x767b0	70 5e 06 00 f8 c6 03 00 27 c7 03 00 70 5e 06 00 	p^000000'000p^00
  0x767c0	28 c7 03 00 06 c8 03 00 c0 a2 06 00 3c c9 03 00 	(00000000000<000
  0x767d0	7f c9 03 00 9c 97 06 00 80 c9 03 00 22 cb 03 00 	000000000000"000
  0x767e0	cc a2 06 00 24 cb 03 00 99 cb 03 00 e8 60 06 00 	0000$00000000`00
  0x767f0	9c cb 03 00 4e cc 03 00 e4 a2 06 00 50 cc 03 00 	0000N0000000P000
  0x76800	ec cc 03 00 10 a3 06 00 ec cc 03 00 cd cd 03 00 	0000000000000000
  0x76810	34 a3 06 00 d0 cd 03 00 2d ce 03 00 08 a3 06 00 	40000000-0000000
  0x76820	30 ce 03 00 bc ce 03 00 ec 76 06 00 bc ce 03 00 	000000000v000000
  0x76830	8e cf 03 00 68 9f 06 00 98 cf 03 00 da cf 03 00 	0000h00000000000
  0x76840	e8 60 06 00 dc cf 03 00 3b d0 03 00 70 5e 06 00 	0`000000;000p^00
  0x76850	50 d0 03 00 98 d0 03 00 e8 60 06 00 c0 d0 03 00 	P00000000`000000
  0x76860	f7 d0 03 00 e8 60 06 00 14 d1 03 00 95 d2 03 00 	00000`0000000000
  0x76870	ec 76 06 00 98 d2 03 00 a2 d3 03 00 5c a3 06 00 	0v00000000000000
  0x76880	a4 d3 03 00 10 d4 03 00 e8 9e 06 00 10 d4 03 00 	0000000000000000
  0x76890	42 d4 03 00 44 5e 06 00 44 d4 03 00 4c d5 03 00 	B000D^00D000L000
  0x768a0	64 a3 06 00 ac d5 03 00 3b d7 03 00 74 a3 06 00 	d0000000;000t000
  0x768b0	3c d7 03 00 e1 d7 03 00 ec 76 06 00 e4 d7 03 00 	<00000000v000000
  0x768c0	34 d8 03 00 80 7b 06 00 34 d8 03 00 dc d8 03 00 	40000{0040000000
  0x768d0	cc a3 06 00 04 d9 03 00 c3 d9 03 00 2c 66 06 00 	000000000000,f00
  0x768e0	ec d9 03 00 2a db 03 00 9c a3 06 00 2c db 03 00 	0000*0000000,000
  0x768f0	e6 db 03 00 24 7a 06 00 e8 db 03 00 5d dc 03 00 	0000$z000000]000
  0x76900	70 5e 06 00 60 dc 03 00 03 dd 03 00 08 6c 06 00 	p^00`00000000l00
  0x76910	04 dd 03 00 43 dd 03 00 70 5e 06 00 44 dd 03 00 	0000C000p^00D000
  0x76920	73 dd 03 00 e8 60 06 00 f8 dd 03 00 27 de 03 00 	s0000`000000'000
  0x76930	70 5e 06 00 28 de 03 00 57 de 03 00 70 5e 06 00 	p^00(000W000p^00
  0x76940	58 de 03 00 87 de 03 00 70 5e 06 00 88 de 03 00 	X0000000p^000000
  0x76950	20 e0 03 00 78 99 06 00 20 e0 03 00 10 e1 03 00 	 000x000 0000000
  0x76960	24 7a 06 00 18 e1 03 00 12 e4 03 00 88 a4 06 00 	$z00000000000000
  0x76970	14 e4 03 00 09 e6 03 00 78 91 06 00 0c e6 03 00 	00000000x0000000
  0x76980	ed e6 03 00 48 a4 06 00 f0 e6 03 00 6a e9 03 00 	0000H0000000j000
  0x76990	58 a4 06 00 6c e9 03 00 f4 ea 03 00 38 a4 06 00 	X000l00000008000
  0x769a0	f4 ea 03 00 01 ec 03 00 6c a4 06 00 04 ec 03 00 	00000000l0000000
  0x769b0	84 ec 03 00 b8 92 06 00 84 ec 03 00 c6 ec 03 00 	0000000000000000
  0x769c0	18 a4 06 00 c8 ec 03 00 f8 ec 03 00 f8 a3 06 00 	0000000000000000
  0x769d0	f8 ec 03 00 39 ed 03 00 b4 7a 06 00 3c ed 03 00 	000090000z00<000
  0x769e0	83 ed 03 00 44 5e 06 00 84 ed 03 00 bf ed 03 00 	0000D^0000000000
  0x769f0	c8 a4 06 00 c0 ed 03 00 fb ed 03 00 ec a4 06 00 	0000000000000000
  0x76a00	fc ed 03 00 ac ef 03 00 08 6c 06 00 ac ef 03 00 	000000000l000000
  0x76a10	cc f0 03 00 08 6c 06 00 dc f0 03 00 1f f1 03 00 	00000l0000000000
  0x76a20	ac a4 06 00 48 f1 03 00 90 f1 03 00 a4 a4 06 00 	0000H00000000000
  0x76a30	90 f1 03 00 ba f1 03 00 10 a5 06 00 f0 f1 03 00 	0000000000000000
  0x76a40	21 f5 03 00 40 a5 06 00 24 f5 03 00 ba f5 03 00 	!000@000$0000000
  0x76a50	30 a5 06 00 d0 f5 03 00 e7 f5 03 00 70 5e 06 00 	000000000000p^00
  0x76a60	e8 f5 03 00 4b f6 03 00 e8 60 06 00 4c f6 03 00 	0000K0000`00L000
  0x76a70	6c f6 03 00 e8 60 06 00 6c f6 03 00 c4 f6 03 00 	l0000`00l0000000
  0x76a80	78 99 06 00 c4 f6 03 00 14 f7 03 00 e8 60 06 00 	x000000000000`00
  0x76a90	e0 f7 03 00 8b fd 03 00 68 a5 06 00 98 fd 03 00 	00000000h0000000
  0x76aa0	7a fe 03 00 74 a5 06 00 d4 fe 03 00 09 00 04 00 	z000t00000000000
  0x76ab0	7c a5 06 00 9c 00 04 00 75 02 04 00 8c a5 06 00 	|0000000u0000000
  0x76ac0	78 02 04 00 f2 02 04 00 a8 a5 06 00 f4 02 04 00 	x000000000000000
  0x76ad0	99 03 04 00 84 92 06 00 9c 03 04 00 34 04 04 00 	0000000000004000
  0x76ae0	68 9f 06 00 34 04 04 00 bf 04 04 00 dc a5 06 00 	h000400000000000
  0x76af0	c0 04 04 00 51 05 04 00 d4 a5 06 00 54 05 04 00 	0000Q0000000T000
  0x76b00	c9 09 04 00 44 a6 06 00 cc 09 04 00 ce 0a 04 00 	0000D00000000000
  0x76b10	78 a6 06 00 d0 0a 04 00 e9 0b 04 00 78 a6 06 00 	x00000000000x000
  0x76b20	ec 0b 04 00 5c 0d 04 00 98 a6 06 00 5c 0d 04 00 	0000000000000000
  0x76b30	f4 0d 04 00 68 9f 06 00 f4 0d 04 00 11 0f 04 00 	0000h00000000000
  0x76b40	18 a6 06 00 14 0f 04 00 1a 12 04 00 00 a6 06 00 	0000000000000000
  0x76b50	1c 12 04 00 c5 12 04 00 f4 6b 06 00 c8 12 04 00 	000000000k000000
  0x76b60	62 13 04 00 68 9f 06 00 6c 13 04 00 d7 13 04 00 	b000h000l0000000
  0x76b70	44 5e 06 00 10 14 04 00 aa 1b 04 00 88 9e 06 00 	D^00000000000000
  0x76b80	ac 1b 04 00 2d 23 04 00 88 9e 06 00 7c 23 04 00 	0000-#000000|#00
  0x76b90	c2 23 04 00 70 5e 06 00 c4 23 04 00 15 25 04 00 	0#00p^000#000%00
  0x76ba0	bc a6 06 00 60 25 04 00 13 26 04 00 d8 a6 06 00 	0000`%000&000000
  0x76bb0	14 26 04 00 c5 26 04 00 d8 a6 06 00 c8 26 04 00 	0&000&0000000&00
  0x76bc0	60 27 04 00 ec 76 06 00 60 27 04 00 57 28 04 00 	`'000v00`'00W(00
  0x76bd0	e8 a6 06 00 60 28 04 00 f5 28 04 00 ec 76 06 00 	0000`(000(000v00
  0x76be0	10 29 04 00 79 29 04 00 e8 60 06 00 84 29 04 00 	0)00y)000`000)00
  0x76bf0	1e 2c 04 00 28 a7 06 00 20 2c 04 00 85 2c 04 00 	0,00(000 ,000,00
  0x76c00	54 a7 06 00 88 2c 04 00 42 2d 04 00 c0 5d 06 00 	T0000,00B-000]00
  0x76c10	44 2d 04 00 6b 2e 04 00 5c a7 06 00 b0 2e 04 00 	D-00k.0000000.00
  0x76c20	20 2f 04 00 7c a7 06 00 30 2f 04 00 50 2f 04 00 	 /00|0000/00P/00
  0x76c30	f4 5d 06 00 50 2f 04 00 e6 2f 04 00 84 a7 06 00 	0]00P/000/000000
  0x76c40	e8 2f 04 00 5f 30 04 00 98 a7 06 00 60 30 04 00 	0/00_0000000`000
  0x76c50	21 31 04 00 90 a7 06 00 24 31 04 00 bc 31 04 00 	!1000000$1000100
  0x76c60	68 9f 06 00 bc 31 04 00 89 32 04 00 c0 5d 06 00 	h000010002000]00
  0x76c70	8c 32 04 00 e2 32 04 00 bc a7 06 00 00 33 04 00 	0200020000000300
  0x76c80	eb 33 04 00 dc a7 06 00 ec 33 04 00 27 34 04 00 	030000000300'400
  0x76c90	f0 a7 06 00 28 34 04 00 e6 35 04 00 58 a8 06 00 	0000(4000500X000
  0x76ca0	e8 35 04 00 ae 38 04 00 40 a8 06 00 b0 38 04 00 	05000800@0000800
  0x76cb0	ce 39 04 00 f8 a7 06 00 d0 39 04 00 1d 3e 04 00 	0900000009000>00
  0x76cc0	28 a8 06 00 20 3e 04 00 8c 3e 04 00 78 99 06 00 	(000 >000>00x000
  0x76cd0	8c 3e 04 00 db 3e 04 00 70 5e 06 00 dc 3e 04 00 	0>000>00p^000>00
  0x76ce0	cc 3f 04 00 28 9f 06 00 cc 3f 04 00 3a 40 04 00 	0?00(0000?00:@00
  0x76cf0	44 5e 06 00 3c 40 04 00 57 41 04 00 e8 95 06 00 	D^00<@00WA000000
  0x76d00	58 41 04 00 99 41 04 00 b4 7a 06 00 9c 41 04 00 	XA000A000z000A00
  0x76d10	dd 41 04 00 b4 7a 06 00 e0 41 04 00 9a 42 04 00 	0A000z000A000B00
  0x76d20	f4 6b 06 00 9c 42 04 00 b6 42 04 00 70 5e 06 00 	0k000B000B00p^00
  0x76d30	b8 42 04 00 d2 42 04 00 70 5e 06 00 d4 42 04 00 	0B000B00p^000B00
  0x76d40	0f 43 04 00 70 5e 06 00 10 43 04 00 53 43 04 00 	0C00p^000C00SC00
  0x76d50	70 a8 06 00 5c 43 04 00 95 43 04 00 70 5e 06 00 	p0000C000C00p^00
  0x76d60	98 43 04 00 12 44 04 00 44 5e 06 00 30 44 04 00 	0C000D00D^000D00
  0x76d70	40 44 04 00 80 a8 06 00 e4 44 04 00 0b 45 04 00 	@D0000000D000E00
  0x76d80	00 65 06 00 0c 45 04 00 14 48 04 00 88 a8 06 00 	0e000E000H000000
  0x76d90	14 48 04 00 44 48 04 00 70 5e 06 00 44 48 04 00 	0H00DH00p^00DH00
  0x76da0	61 48 04 00 e8 60 06 00 64 48 04 00 e0 48 04 00 	aH000`00dH000H00
  0x76db0	9c a8 06 00 e0 48 04 00 ff 48 04 00 e8 60 06 00 	00000H000H000`00
  0x76dc0	00 49 04 00 11 49 04 00 70 5e 06 00 14 49 04 00 	0I000I00p^000I00
  0x76dd0	66 49 04 00 9c 97 06 00 70 49 04 00 8c 49 04 00 	fI000000pI000I00
  0x76de0	70 5e 06 00 8c 49 04 00 4a 4a 04 00 90 90 06 00 	p^000I00JJ000000
  0x76df0	54 4a 04 00 11 4b 04 00 b0 79 06 00 14 4b 04 00 	TJ000K000y000K00
  0x76e00	b0 4b 04 00 ec 76 06 00 b0 4b 04 00 14 4f 04 00 	0K000v000K000O00
  0x76e10	54 86 06 00 14 4f 04 00 03 50 04 00 b8 9d 06 00 	T0000O000P000000
  0x76e20	20 50 04 00 c1 50 04 00 e8 60 06 00 d0 50 04 00 	 P000P000`000P00
  0x76e30	e0 50 04 00 70 5e 06 00 f0 50 04 00 09 51 04 00 	0P00p^000P000Q00
  0x76e40	70 5e 06 00 0c 51 04 00 87 52 04 00 c4 a8 06 00 	p^000Q000R000000
  0x76e50	90 52 04 00 a2 52 04 00 70 5e 06 00 c0 52 04 00 	0R000R00p^000R00
  0x76e60	de 52 04 00 f8 a8 06 00 00 53 04 00 26 53 04 00 	0R0000000S00&S00
  0x76e70	e8 60 06 00 28 53 04 00 5c 53 04 00 e8 60 06 00 	0`00(S000S000`00
  0x76e80	70 53 04 00 42 54 04 00 fc a8 06 00 44 54 04 00 	pS00BT000000DT00
  0x76e90	b5 54 04 00 04 a9 06 00 b8 54 04 00 32 55 04 00 	0T0000000T002U00
  0x76ea0	10 a9 06 00 34 55 04 00 a9 55 04 00 3c a9 06 00 	00004U000U00<000
  0x76eb0	ac 55 04 00 17 56 04 00 64 a9 06 00 18 56 04 00 	0U000V00d0000V00
  0x76ec0	54 56 04 00 e8 60 06 00 64 56 04 00 81 56 04 00 	TV000`00dV000V00
  0x76ed0	70 5e 06 00 84 56 04 00 df 56 04 00 9c a9 06 00 	p^000V000V000000
  0x76ee0	e8 56 04 00 33 58 04 00 ac a9 06 00 34 58 04 00 	0V003X0000004X00
  0x76ef0	6e 58 04 00 a4 a9 06 00 7c 58 04 00 cd 58 04 00 	nX000000|X000X00
  0x76f00	70 5e 06 00 f0 58 04 00 4b 59 04 00 44 5e 06 00 	p^000X00KY00D^00
  0x76f10	64 59 04 00 05 5b 04 00 bc a9 06 00 20 5b 04 00 	dY000[000000 [00
  0x76f20	6e 5b 04 00 d0 a9 06 00 70 5b 04 00 ef 5b 04 00 	n[000000p[000[00
  0x76f30	2c 66 06 00 f0 5b 04 00 29 5c 04 00 70 5e 06 00 	,f000[00)000p^00
  0x76f40	2c 5c 04 00 75 5c 04 00 e8 60 06 00 78 5c 04 00 	,000u0000`00x000
  0x76f50	03 5d 04 00 e8 60 06 00 04 5d 04 00 9c 5d 04 00 	0]000`000]000]00
  0x76f60	d8 a9 06 00 9c 5d 04 00 c0 5d 04 00 e8 60 06 00 	00000]000]000`00
  0x76f70	c0 5d 04 00 e9 5d 04 00 e8 60 06 00 ec 5d 04 00 	0]000]000`000]00
  0x76f80	26 5e 04 00 e8 60 06 00 28 5e 04 00 3f 5e 04 00 	&^000`00(^00?^00
  0x76f90	70 5e 06 00 40 5e 04 00 ec 5e 04 00 00 aa 06 00 	p^00@^000^000000
  0x76fa0	28 5f 04 00 43 5f 04 00 70 5e 06 00 54 5f 04 00 	(_00C_00p^00T_00
  0x76fb0	9a 5f 04 00 44 5e 06 00 b0 5f 04 00 f6 5f 04 00 	0_00D^000_000_00
  0x76fc0	44 5e 06 00 f8 5f 04 00 18 60 04 00 00 65 06 00 	D^000_000`000e00
  0x76fd0	2c 60 04 00 87 60 04 00 d0 aa 06 00 88 60 04 00 	,`000`0000000`00
  0x76fe0	e3 60 04 00 a4 aa 06 00 e4 60 04 00 46 61 04 00 	0`0000000`00Fa00
  0x76ff0	ec 76 06 00 48 61 04 00 6a 62 04 00 1c aa 06 00 	0v00Ha00jb000000
  0x77000	6c 62 04 00 96 62 04 00 e8 60 06 00 a0 62 04 00 	lb000b000`000b00
  0x77010	04 63 04 00 c0 5d 06 00 04 63 04 00 36 63 04 00 	0c000]000c006c00
  0x77020	70 5e 06 00 38 63 04 00 07 64 04 00 34 aa 06 00 	p^008c000d004000
  0x77030	2c 64 04 00 6a 65 04 00 6c 88 06 00 6c 65 04 00 	,d00je00l000le00
  0x77040	d5 66 04 00 60 aa 06 00 d8 66 04 00 db 67 04 00 	0f00`0000f000g00
  0x77050	4c aa 06 00 dc 67 04 00 fb 68 04 00 4c aa 06 00 	L0000g000h00L000
  0x77060	c0 6a 04 00 fa 6a 04 00 e8 60 06 00 fc 6a 04 00 	0j000j000`000j00
  0x77070	4f 6b 04 00 44 5e 06 00 50 6b 04 00 62 6b 04 00 	Ok00D^00Pk00bk00
  0x77080	70 5e 06 00 64 6b 04 00 76 6b 04 00 70 5e 06 00 	p^00dk00vk00p^00
  0x77090	78 6b 04 00 90 6b 04 00 e8 60 06 00 90 6b 04 00 	xk000k000`000k00
  0x770a0	a8 6b 04 00 e8 60 06 00 a8 6b 04 00 2e 6c 04 00 	0k000`000k00.l00
  0x770b0	7c aa 06 00 30 6c 04 00 ef 6c 04 00 90 aa 06 00 	|0000l000l000000
  0x770c0	00 6d 04 00 77 6d 04 00 f0 aa 06 00 7c 6d 04 00 	0m00wm000000|m00
  0x770d0	ab 6d 04 00 e8 60 06 00 d0 6d 04 00 36 6e 04 00 	0m000`000m006n00
  0x770e0	44 5e 06 00 38 6e 04 00 4a 6e 04 00 70 5e 06 00 	D^008n00Jn00p^00
  0x770f0	4c 6e 04 00 5e 6e 04 00 70 5e 06 00 60 6e 04 00 	Ln00^n00p^00`n00
  0x77100	6a 6e 04 00 70 5e 06 00 6c 6e 04 00 f9 6e 04 00 	jn00p^00ln000n00
  0x77110	24 7a 06 00 fc 6e 04 00 21 6f 04 00 e8 60 06 00 	$z000n00!o000`00
  0x77120	4c 70 04 00 5e 72 04 00 10 ab 06 00 80 72 04 00 	Lp00^r0000000r00
  0x77130	a4 72 04 00 70 5e 06 00 a4 72 04 00 9b 74 04 00 	0r00p^000r000t00
  0x77140	6c 88 06 00 b0 74 04 00 c0 74 04 00 28 ab 06 00 	l0000t000t00(000
  0x77150	d0 74 04 00 45 7b 04 00 34 ab 06 00 60 7b 04 00 	0t00E{004000`{00
  0x77160	70 7b 04 00 38 ab 06 00 80 7b 04 00 10 7d 04 00 	p{0080000{000}00
  0x77170	44 ab 06 00 10 7d 04 00 4b 7e 04 00 e4 7b 06 00 	D0000}00K~000{00
  0x77180	60 7e 04 00 27 7f 04 00 48 ab 06 00 28 7f 04 00 	`~00'000H000(000
  0x77190	73 7f 04 00 44 5e 06 00 74 7f 04 00 9c 7f 04 00 	s000D^00t0000000
  0x771a0	70 5e 06 00 9c 7f 04 00 b5 7f 04 00 70 5e 06 00 	p^0000000000p^00
  0x771b0	e0 7f 04 00 8a 80 04 00 4c ab 06 00 a0 80 04 00 	00000000L0000000
  0x771c0	bf 80 04 00 70 5e 06 00 c0 80 04 00 d9 80 04 00 	0000p^0000000000
  0x771d0	70 5e 06 00 dc 80 04 00 9f 81 04 00 c0 5d 06 00 	p^00000000000]00
  0x771e0	a0 81 04 00 e9 81 04 00 70 5e 06 00 ec 81 04 00 	00000000p^000000
  0x771f0	0f 82 04 00 70 5e 06 00 10 82 04 00 37 82 04 00 	0000p^0000007000
  0x77200	70 5e 06 00 38 82 04 00 61 82 04 00 e8 60 06 00 	p^008000a0000`00
  0x77210	70 82 04 00 ab 82 04 00 44 5e 06 00 bc 82 04 00 	p0000000D^000000
  0x77220	22 83 04 00 e8 60 06 00 24 83 04 00 11 84 04 00 	"0000`00$0000000
  0x77230	1c aa 06 00 14 84 04 00 1c 86 04 00 b8 ac 06 00 	0000000000000000
  0x77240	1c 86 04 00 27 88 04 00 f8 ac 06 00 28 88 04 00 	0000'0000000(000
  0x77250	e8 88 04 00 38 ad 06 00 e8 88 04 00 a9 89 04 00 	0000800000000000
  0x77260	64 ad 06 00 ac 89 04 00 7d 8a 04 00 d0 ad 06 00 	d0000000}0000000
  0x77270	80 8a 04 00 51 8b 04 00 d0 ad 06 00 54 8b 04 00 	0000Q0000000T000
  0x77280	29 90 04 00 90 ad 06 00 2c 90 04 00 27 95 04 00 	)0000000,000'000
  0x77290	b0 ad 06 00 28 95 04 00 41 97 04 00 e8 ad 06 00 	0000(000A0000000
  0x772a0	44 97 04 00 33 9a 04 00 04 ae 06 00 34 9a 04 00 	D000300000004000
  0x772b0	71 9b 04 00 2c 66 06 00 74 9b 04 00 b6 9c 04 00 	q000,f00t0000000
  0x772c0	2c 66 06 00 b8 9c 04 00 f9 9e 04 00 b0 79 06 00 	,f00000000000y00
  0x772d0	fc 9e 04 00 9a a1 04 00 a0 ac 06 00 9c a1 04 00 	0000000000000000
  0x772e0	16 a2 04 00 e8 60 06 00 f0 a2 04 00 2c a3 04 00 	00000`000000,000
  0x772f0	e8 60 06 00 60 a3 04 00 9d a3 04 00 44 5e 06 00 	0`00`0000000D^00
  0x77300	b0 a3 04 00 9a a5 04 00 c0 ab 06 00 b0 a5 04 00 	0000000000000000
  0x77310	00 a8 04 00 44 ac 06 00 94 a9 04 00 1a aa 04 00 	0000D00000000000
  0x77320	44 5e 06 00 1c aa 04 00 4c aa 04 00 44 5e 06 00 	D^000000L000D^00
  0x77330	4c aa 04 00 d6 ab 04 00 74 ab 06 00 d8 ab 04 00 	L0000000t0000000
  0x77340	d1 ae 04 00 fc ab 06 00 d4 ae 04 00 6a af 04 00 	000000000000j000
  0x77350	ec 76 06 00 6c af 04 00 59 b0 04 00 5c 7e 06 00 	0v00l000Y0000~00
  0x77360	5c b0 04 00 e4 b0 04 00 ec 76 06 00 9c b1 04 00 	000000000v000000
  0x77370	6a b2 04 00 5c ab 06 00 6c b2 04 00 37 b3 04 00 	j0000000l0007000
  0x77380	80 74 06 00 50 b3 04 00 68 b3 04 00 28 ae 06 00 	0t00P000h000(000
  0x77390	70 b3 04 00 71 b3 04 00 2c ae 06 00 80 b3 04 00 	p000q000,0000000
  0x773a0	81 b3 04 00 30 ae 06 00 bc b3 04 00 03 b4 04 00 	0000000000000000
  0x773b0	e8 60 06 00 04 b4 04 00 3b b4 04 00 e8 60 06 00 	0`000000;0000`00
  0x773c0	50 b4 04 00 90 b4 04 00 38 ae 06 00 a0 b4 04 00 	P000000080000000
  0x773d0	ca b4 04 00 40 ae 06 00 d0 b4 04 00 f6 b4 04 00 	0000@00000000000
  0x773e0	48 ae 06 00 00 b5 04 00 47 b5 04 00 50 ae 06 00 	H0000000G000P000
  0x773f0	60 b5 04 00 11 b6 04 00 58 ae 06 00 14 b6 04 00 	`0000000X0000000
  0x77400	b6 b7 04 00 70 ae 06 00 b8 b7 04 00 15 b8 04 00 	0000p00000000000
  0x77410	e8 60 06 00 18 b8 04 00 9a b9 04 00 5c ae 06 00 	0`00000000000000
  0x77420	f0 b9 04 00 20 ba 04 00 70 5e 06 00 20 ba 04 00 	0000 000p^00 000
  0x77430	5d ba 04 00 70 5e 06 00 60 ba 04 00 44 bb 04 00 	]000p^00`000D000
  0x77440	88 ae 06 00 80 bb 04 00 a3 bb 04 00 70 5e 06 00 	000000000000p^00
  0x77450	c0 bb 04 00 d0 bb 04 00 70 5e 06 00 e0 bb 04 00 	00000000p^000000
  0x77460	1d bc 04 00 e8 60 06 00 40 bc 04 00 80 bc 04 00 	00000`00@0000000
  0x77470	e8 60 06 00 90 bc 04 00 eb bc 04 00 70 5e 06 00 	0`0000000000p^00
  0x77480	00 bd 04 00 35 bd 04 00 70 5e 06 00 50 bd 04 00 	00005000p^00P000
  0x77490	cd bd 04 00 98 ae 06 00 e0 bd 04 00 50 be 04 00 	000000000000P000
  0x774a0	b0 ae 06 00 50 be 04 00 b1 be 04 00 44 5e 06 00 	0000P0000000D^00
  0x774b0	b4 be 04 00 15 bf 04 00 c0 5d 06 00 18 bf 04 00 	000000000]000000
  0x774c0	f2 bf 04 00 9c ae 06 00 f4 bf 04 00 fe bf 04 00 	0000000000000000
  0x774d0	70 5e 06 00 00 c0 04 00 c9 c0 04 00 d0 ae 06 00 	p^00000000000000
  0x774e0	e4 c0 04 00 b7 c1 04 00 fc ae 06 00 c0 c1 04 00 	0000000000000000
  0x774f0	ec c1 04 00 70 5e 06 00 14 c2 04 00 01 c6 04 00 	0000p^0000000000
  0x77500	28 af 06 00 04 c6 04 00 8a c7 04 00 54 86 06 00 	(00000000000T000
  0x77510	a0 c7 04 00 c5 c7 04 00 70 5e 06 00 ec c7 04 00 	00000000p^000000
  0x77520	80 c8 04 00 c0 5d 06 00 80 c8 04 00 c6 c8 04 00 	00000]0000000000
  0x77530	44 5e 06 00 c8 c8 04 00 79 ca 04 00 4c af 06 00 	D^000000y000L000
  0x77540	84 ca 04 00 c7 ca 04 00 70 5e 06 00 d0 ca 04 00 	00000000p^000000
  0x77550	ee cb 04 00 44 5e 06 00 f0 cb 04 00 48 cc 04 00 	0000D^000000H000
  0x77560	60 af 06 00 48 cc 04 00 4a cf 04 00 2c 66 06 00 	`000H000J000,f00
  0x77570	4c cf 04 00 e8 cf 04 00 84 af 06 00 f0 cf 04 00 	L000000000000000
  0x77580	4b d0 04 00 98 af 06 00 4b d0 04 00 e0 d3 04 00 	K0000000K0000000
  0x77590	b0 af 06 00 e0 d3 04 00 fe d3 04 00 d4 af 06 00 	0000000000000000
  0x775a0	00 d4 04 00 a1 d5 04 00 2c 66 06 00 a4 d5 04 00 	00000000,f000000
  0x775b0	0b d7 04 00 24 7a 06 00 14 d7 04 00 d7 d7 04 00 	0000$z0000000000
  0x775c0	04 b0 06 00 d8 d7 04 00 58 da 04 00 28 9d 06 00 	00000000X000(000
  0x775d0	58 da 04 00 5e dc 04 00 28 b0 06 00 60 dc 04 00 	X000^000(000`000
  0x775e0	21 dd 04 00 3c b0 06 00 24 dd 04 00 13 e1 04 00 	!000<000$0000000
  0x775f0	e4 af 06 00 14 e1 04 00 46 e1 04 00 f4 5d 06 00 	00000000F0000]00
  0x77600	48 e1 04 00 e0 e1 04 00 68 9f 06 00 e0 e1 04 00 	H0000000h0000000
  0x77610	73 e3 04 00 3c 6c 06 00 d0 e3 04 00 1d e4 04 00 	s000<l0000000000
  0x77620	4c b0 06 00 4c e4 04 00 d1 e4 04 00 2c 66 06 00 	L000L0000000,f00
  0x77630	d4 e4 04 00 f0 e4 04 00 70 b0 06 00 00 e5 04 00 	00000000p0000000
  0x77640	d0 e5 04 00 44 5e 06 00 e0 e5 04 00 08 e6 04 00 	0000D^0000000000
  0x77650	70 5e 06 00 90 e6 04 00 0f e7 04 00 2c 66 06 00 	p^0000000000,f00
  0x77660	10 e7 04 00 4c e7 04 00 e8 60 06 00 4c e7 04 00 	0000L0000`00L000
  0x77670	88 e7 04 00 e8 60 06 00 88 e7 04 00 c4 e7 04 00 	00000`0000000000
  0x77680	e8 60 06 00 c4 e7 04 00 46 e9 04 00 10 b1 06 00 	0`000000F0000000
  0x77690	48 e9 04 00 80 ea 04 00 1c aa 06 00 80 ea 04 00 	H000000000000000
  0x776a0	92 ec 04 00 28 b1 06 00 c4 ec 04 00 2a ee 04 00 	0000(0000000*000
  0x776b0	d0 b0 06 00 40 ee 04 00 42 ee 04 00 10 aa 06 00 	0000@000B0000000
  0x776c0	60 ee 04 00 66 ee 04 00 18 aa 06 00 b8 ee 04 00 	`000f00000000000
  0x776d0	de ee 04 00 c0 5f 06 00 de ee 04 00 03 ef 04 00 	00000_0000000000
  0x776e0	c0 5f 06 00 0f ef 04 00 35 ef 04 00 6c 60 06 00 	0_0000005000l`00
  0x776f0	35 ef 04 00 5a ef 04 00 6c 60 06 00 66 ef 04 00 	5000Z000l`00f000
  0x77700	8e ef 04 00 e0 60 06 00 8e ef 04 00 b7 ef 04 00 	00000`0000000000
  0x77710	e0 60 06 00 3b f0 04 00 6a f0 04 00 0c 62 06 00 	0`00;000j0000b00
  0x77720	6a f0 04 00 98 f0 04 00 0c 62 06 00 c8 f0 04 00 	j00000000b000000
  0x77730	e6 f0 04 00 6c 60 06 00 e6 f0 04 00 0a f1 04 00 	0000l`0000000000
  0x77740	6c 60 06 00 0a f1 04 00 2e f1 04 00 f8 64 06 00 	l`000000.0000d00
  0x77750	2e f1 04 00 5b f1 04 00 78 65 06 00 5b f1 04 00 	.000[000xe00[000
  0x77760	7f f1 04 00 80 65 06 00 7f f1 04 00 9d f1 04 00 	00000e0000000000
  0x77770	80 65 06 00 b5 f1 04 00 da f1 04 00 80 65 06 00 	0e00000000000e00
  0x77780	da f1 04 00 00 f2 04 00 80 65 06 00 55 f2 04 00 	000000000e00U000
  0x77790	7b f2 04 00 6c 60 06 00 7b f2 04 00 a0 f2 04 00 	{000l`00{0000000
  0x777a0	6c 60 06 00 a0 f2 04 00 bd f2 04 00 78 65 06 00 	l`0000000000xe00
  0x777b0	bd f2 04 00 db f2 04 00 e0 68 06 00 db f2 04 00 	000000000h000000
  0x777c0	ff f2 04 00 e0 68 06 00 0b f3 04 00 31 f3 04 00 	00000h0000001000
  0x777d0	90 69 06 00 31 f3 04 00 56 f3 04 00 90 69 06 00 	0i001000V0000i00
  0x777e0	56 f3 04 00 7c f3 04 00 80 65 06 00 7c f3 04 00 	V000|0000e00|000
  0x777f0	a1 f3 04 00 80 65 06 00 a1 f3 04 00 bf f3 04 00 	00000e0000000000
  0x77800	f8 64 06 00 bf f3 04 00 e3 f3 04 00 f8 64 06 00 	0d00000000000d00
  0x77810	ef f3 04 00 15 f4 04 00 90 69 06 00 15 f4 04 00 	000000000i000000
  0x77820	3a f4 04 00 90 69 06 00 52 f4 04 00 7a f4 04 00 	:0000i00R000z000
  0x77830	90 69 06 00 7a f4 04 00 a3 f4 04 00 90 69 06 00 	0i00z00000000i00
  0x77840	a3 f4 04 00 c9 f4 04 00 e0 60 06 00 c9 f4 04 00 	000000000`000000
  0x77850	ee f4 04 00 e0 60 06 00 ee f4 04 00 0c f5 04 00 	00000`0000000000
  0x77860	e0 60 06 00 0c f5 04 00 30 f5 04 00 e0 60 06 00 	0`00000000000`00
  0x77870	30 f5 04 00 4e f5 04 00 90 69 06 00 4e f5 04 00 	0000N0000i00N000
  0x77880	72 f5 04 00 90 69 06 00 8a f5 04 00 af f5 04 00 	r0000i0000000000
  0x77890	f8 64 06 00 af f5 04 00 d5 f5 04 00 f8 64 06 00 	0d00000000000d00
  0x778a0	ed f5 04 00 16 f6 04 00 c0 5f 06 00 16 f6 04 00 	000000000_000000
  0x778b0	34 f6 04 00 c0 5f 06 00 4c f6 04 00 71 f6 04 00 	40000_00L000q000
  0x778c0	90 69 06 00 71 f6 04 00 97 f6 04 00 90 69 06 00 	0i00q00000000i00
  0x778d0	27 f7 04 00 4c f7 04 00 6c 60 06 00 4c f7 04 00 	'000L000l`00L000
  0x778e0	72 f7 04 00 6c 60 06 00 7e f7 04 00 a4 f7 04 00 	r000l`00~0000000
  0x778f0	90 69 06 00 a4 f7 04 00 c9 f7 04 00 90 69 06 00 	0i00000000000i00
  0x77900	c9 f7 04 00 f1 f7 04 00 e0 68 06 00 f1 f7 04 00 	000000000h000000
  0x77910	1a f8 04 00 e0 68 06 00 6b f8 04 00 90 f8 04 00 	00000h00k0000000
  0x77920	e0 60 06 00 90 f8 04 00 b6 f8 04 00 e0 60 06 00 	0`00000000000`00
  0x77930	b6 f8 04 00 db f8 04 00 6c 60 06 00 db f8 04 00 	00000000l`000000
  0x77940	01 f9 04 00 6c 60 06 00 01 f9 04 00 2a f9 04 00 	0000l`000000*000
  0x77950	90 69 06 00 2a f9 04 00 52 f9 04 00 90 69 06 00 	0i00*000R0000i00
  0x77960	5e f9 04 00 87 f9 04 00 90 69 06 00 87 f9 04 00 	^00000000i000000
  0x77970	af f9 04 00 90 69 06 00 af f9 04 00 cc f9 04 00 	00000i0000000000
  0x77980	78 65 06 00 18 fa 04 00 35 fa 04 00 78 65 06 00 	xe0000005000xe00
  0x77990	51 fa 04 00 77 fa 04 00 90 69 06 00 77 fa 04 00 	Q000w0000i00w000
  0x779a0	9c fa 04 00 90 69 06 00 a8 fa 04 00 dc fa 04 00 	00000i0000000000
  0x779b0	f8 64 06 00 dc fa 04 00 10 fb 04 00 f8 64 06 00 	0d00000000000d00
  0x779c0	10 fb 04 00 4a fb 04 00 f8 64 06 00 4a fb 04 00 	0000J0000d00J000
  0x779d0	7e fb 04 00 f8 64 06 00 c6 fb 04 00 e3 fb 04 00 	~0000d0000000000
  0x779e0	78 65 06 00 b7 fc 04 00 e6 fc 04 00 14 7f 06 00 	xe00000000000000
  0x779f0	e6 fc 04 00 14 fd 04 00 14 7f 06 00 b8 fd 04 00 	0000000000000000
  0x77a00	e2 fd 04 00 78 65 06 00 12 fe 04 00 3f fe 04 00 	0000xe000000?000
  0x77a10	78 65 06 00 63 fe 04 00 8d fe 04 00 78 65 06 00 	xe00c0000000xe00
  0x77a20	99 fe 04 00 c1 fe 04 00 6c 60 06 00 c1 fe 04 00 	00000000l`000000
  0x77a30	ea fe 04 00 6c 60 06 00 02 ff 04 00 27 ff 04 00 	0000l`000000'000
  0x77a40	f8 64 06 00 27 ff 04 00 4d ff 04 00 f8 64 06 00 	0d00'000M0000d00
  0x77a50	59 ff 04 00 7d ff 04 00 f8 64 06 00 7d ff 04 00 	Y000}0000d00}000
  0x77a60	a2 ff 04 00 80 65 06 00 a2 ff 04 00 c8 ff 04 00 	00000e0000000000
  0x77a70	80 65 06 00 bc 00 05 00 cc 00 05 00 dc 8d 06 00 	0e00000000000000
  0x77a80	08 01 05 00 31 01 05 00 c0 5f 06 00 31 01 05 00 	000010000_001000
  0x77a90	59 01 05 00 c0 5f 06 00 65 01 05 00 8e 01 05 00 	Y0000_00e0000000
  0x77aa0	6c 60 06 00 8e 01 05 00 b6 01 05 00 6c 60 06 00 	l`0000000000l`00
  0x77ab0	c2 01 05 00 eb 01 05 00 80 65 06 00 eb 01 05 00 	000000000e000000
  0x77ac0	13 02 05 00 80 65 06 00 1f 02 05 00 45 02 05 00 	00000e000000E000
  0x77ad0	90 69 06 00 45 02 05 00 6a 02 05 00 90 69 06 00 	0i00E000j0000i00
  0x77ae0	6a 02 05 00 8f 02 05 00 90 69 06 00 8f 02 05 00 	j00000000i000000
  0x77af0	b5 02 05 00 90 69 06 00 c1 02 05 00 07 03 05 00 	00000i0000000000
  0x77b00	90 69 06 00 07 03 05 00 2c 03 05 00 90 69 06 00 	0i000000,0000i00
  0x77b10	2c 03 05 00 51 03 05 00 90 69 06 00 51 03 05 00 	,000Q0000i00Q000
  0x77b20	76 03 05 00 90 69 06 00 76 03 05 00 93 03 05 00 	v0000i00v0000000
  0x77b30	78 65 06 00 bb 03 05 00 e1 03 05 00 f8 64 06 00 	xe00000000000d00
  0x77b40	e1 03 05 00 06 04 05 00 f8 64 06 00 06 04 05 00 	000000000d000000
  0x77b50	23 04 05 00 78 65 06 00 bf 04 05 00 dc 04 05 00 	#000xe0000000000
  0x77b60	78 65 06 00 dc 04 05 00 f9 04 05 00 78 65 06 00 	xe0000000000xe00
  0x77b70	29 05 05 00 4f 05 05 00 f8 64 06 00 4f 05 05 00 	)000O0000d00O000
  0x77b80	74 05 05 00 f8 64 06 00 a4 05 05 00 be 05 05 00 	t0000d0000000000
  0x77b90	78 65 06 00 be 05 05 00 d8 05 05 00 78 65 06 00 	xe0000000000xe00
  0x77ba0	d8 05 05 00 f1 05 05 00 78 65 06 00 f1 05 05 00 	00000000xe000000
  0x77bb0	1e 06 05 00 78 65 06 00 1e 06 05 00 3f 06 05 00 	0000xe000000?000
  0x77bc0	78 65 06 00 3f 06 05 00 55 06 05 00 78 65 06 00 	xe00?000U000xe00
  0x77bd0	55 06 05 00 6e 06 05 00 78 65 06 00 6e 06 05 00 	U000n000xe00n000
  0x77be0	88 06 05 00 78 65 06 00 88 06 05 00 a1 06 05 00 	0000xe0000000000
  0x77bf0	78 65 06 00 a1 06 05 00 ba 06 05 00 78 65 06 00 	xe0000000000xe00
  0x77c00	ba 06 05 00 d5 06 05 00 78 65 06 00 d5 06 05 00 	00000000xe000000
  0x77c10	f2 06 05 00 78 65 06 00 f2 06 05 00 0b 07 05 00 	0000xe0000000000
  0x77c20	78 65 06 00 0b 07 05 00 23 07 05 00 cc a5 06 00 	xe000000#0000000
  0x77c30	23 07 05 00 3d 07 05 00 78 65 06 00 3d 07 05 00 	#000=000xe00=000
  0x77c40	54 07 05 00 cc a5 06 00 54 07 05 00 6d 07 05 00 	T0000000T000m000
  0x77c50	cc a5 06 00 6d 07 05 00 99 07 05 00 78 65 06 00 	0000m0000000xe00
  0x77c60	99 07 05 00 b0 07 05 00 78 65 06 00 b0 07 05 00 	00000000xe000000
  0x77c70	ce 07 05 00 78 65 06 00 ce 07 05 00 fa 07 05 00 	0000xe0000000000
  0x77c80	78 65 06 00 fa 07 05 00 26 08 05 00 78 65 06 00 	xe000000&000xe00
  0x77c90	26 08 05 00 85 08 05 00 90 a9 06 00 85 08 05 00 	&000000000000000
  0x77ca0	9d 08 05 00 f8 a9 06 00 9d 08 05 00 2e 09 05 00 	000000000000.000
  0x77cb0	c4 aa 06 00 2e 09 05 00 cd 09 05 00 c4 aa 06 00 	0000.00000000000
  0x77cc0	cd 09 05 00 63 0a 05 00 90 a9 06 00 63 0a 05 00 	0000c0000000c000
  0x77cd0	88 0a 05 00 78 65 06 00 88 0a 05 00 0e 0b 05 00 	0000xe0000000000
  0x77ce0	90 a9 06 00 0e 0b 05 00 3d 0b 05 00 78 65 06 00 	00000000=000xe00
  0x77cf0	3d 0b 05 00 ce 0b 05 00 90 a9 06 00 ce 0b 05 00 	=000000000000000
  0x77d00	e4 0b 05 00 78 65 06 00 e4 0b 05 00 07 0c 05 00 	0000xe0000000000
  0x77d10	78 65 06 00 07 0c 05 00 1d 0c 05 00 cc a5 06 00 	xe00000000000000
  0x77d20	1d 0c 05 00 40 0c 05 00 cc a5 06 00 40 0c 05 00 	0000@0000000@000
  0x77d30	6b 0c 05 00 78 65 06 00 6b 0c 05 00 83 0c 05 00 	k000xe00k0000000
  0x77d40	78 65 06 00 83 0c 05 00 9b 0c 05 00 78 65 06 00 	xe0000000000xe00
  0x77d50	9b 0c 05 00 13 0d 05 00 dc 8d 06 00 20 0d 05 00 	000000000000 000
  0x77d60	40 0d 05 00 78 65 06 00 40 0d 05 00 5b 0d 05 00 	@000xe00@000[000
  0x77d70	c0 b0 06 00 5b 0d 05 00 7b 0d 05 00 cc a5 06 00 	0000[000{0000000
  0x77d80	b0 0d 05 00 d2 0d 05 00 70 5e 06 00 00 00 00 00 	00000000p^000000
  0x77d90	00 00 00 00 00 00 00 00 00 00 00 00 00 00 00 00 	0000000000000000
  0x77da0	00 00 00 00 00 00 00 00 00 00 00 00 00 00 00 00 	0000000000000000
  0x77db0	00 00 00 00 00 00 00 00 00 00 00 00 00 00 00 00 	0000000000000000
  0x77dc0	00 00 00 00 00 00 00 00 00 00 00 00 00 00 00 00 	0000000000000000
  0x77dd0	00 00 00 00 00 00 00 00 00 00 00 00 00 00 00 00 	0000000000000000
  0x77de0	00 00 00 00 00 00 00 00 00 00 00 00 00 00 00 00 	0000000000000000
  0x77df0	00 00 00 00 00 00 00 00 00 00 00 00 00 00 00 00 	0000000000000000
  0x77e00	00 00 00 00 00 00 00 00 00 00 00 00 00 00 00 00 	0000000000000000
  0x77e10	00 00 00 00 00 00 00 00 00 00 00 00 00 00 00 00 	0000000000000000
  0x77e20	00 00 00 00 00 00 00 00 00 00 00 00 00 00 00 00 	0000000000000000
  0x77e30	00 00 00 00 00 00 00 00 00 00 00 00 00 00 00 00 	0000000000000000
  0x77e40	00 00 00 00 00 00 00 00 00 00 00 00 00 00 00 00 	0000000000000000
  0x77e50	00 00 00 00 00 00 00 00 00 00 00 00 00 00 00 00 	0000000000000000
  0x77e60	00 00 00 00 00 00 00 00 00 00 00 00 00 00 00 00 	0000000000000000
  0x77e70	00 00 00 00 00 00 00 00 00 00 00 00 00 00 00 00 	0000000000000000
  0x77e80	00 00 00 00 00 00 00 00 00 00 00 00 00 00 00 00 	0000000000000000
  0x77e90	00 00 00 00 00 00 00 00 00 00 00 00 00 00 00 00 	0000000000000000
  0x77ea0	00 00 00 00 00 00 00 00 00 00 00 00 00 00 00 00 	0000000000000000
  0x77eb0	00 00 00 00 00 00 00 00 00 00 00 00 00 00 00 00 	0000000000000000
  0x77ec0	00 00 00 00 00 00 00 00 00 00 00 00 00 00 00 00 	0000000000000000
  0x77ed0	00 00 00 00 00 00 00 00 00 00 00 00 00 00 00 00 	0000000000000000
  0x77ee0	00 00 00 00 00 00 00 00 00 00 00 00 00 00 00 00 	0000000000000000
  0x77ef0	00 00 00 00 00 00 00 00 00 00 00 00 00 00 00 00 	0000000000000000
  0x77f00	00 00 00 00 00 00 00 00 00 00 00 00 00 00 00 00 	0000000000000000
  0x77f10	00 00 00 00 00 00 00 00 00 00 00 00 00 00 00 00 	0000000000000000
  0x77f20	00 00 00 00 00 00 00 00 00 00 00 00 00 00 00 00 	0000000000000000
  0x77f30	00 00 00 00 00 00 00 00 00 00 00 00 00 00 00 00 	0000000000000000
  0x77f40	00 00 00 00 00 00 00 00 00 00 00 00 00 00 00 00 	0000000000000000
  0x77f50	00 00 00 00 00 00 00 00 00 00 00 00 00 00 00 00 	0000000000000000
  0x77f60	00 00 00 00 00 00 00 00 00 00 00 00 00 00 00 00 	0000000000000000
  0x77f70	00 00 00 00 00 00 00 00 00 00 00 00 00 00 00 00 	0000000000000000
  0x77f80	00 00 00 00 00 00 00 00 00 00 00 00 00 00 00 00 	0000000000000000
  0x77f90	00 00 00 00 00 00 00 00 00 00 00 00 00 00 00 00 	0000000000000000
  0x77fa0	00 00 00 00 00 00 00 00 00 00 00 00 00 00 00 00 	0000000000000000
  0x77fb0	00 00 00 00 00 00 00 00 00 00 00 00 00 00 00 00 	0000000000000000
  0x77fc0	00 00 00 00 00 00 00 00 00 00 00 00 00 00 00 00 	0000000000000000
  0x77fd0	00 00 00 00 00 00 00 00 00 00 00 00 00 00 00 00 	0000000000000000
  0x77fe0	00 00 00 00 00 00 00 00 00 00 00 00 00 00 00 00 	0000000000000000
  0x77ff0	00 00 00 00 00 00 00 00 00 00 00 00 00 00 00 00 	0000000000000000
=== DATA BLOCK END ===
