===== Assembly blocks =====

=== CODE BLOCK ADDRESS 0x1000 ===
  0x1000	int3   	
  0x1001	int3   	
  0x1002	int3   	
  0x1003	int3   	
  0x1004	int3   	
  === BLOCK LINK ===
    0x1005
=== CODE BLOCK END ===

=== CODE BLOCK ADDRESS 0x1005 ===
  0x1005	int3   	
  0x1006	int3   	
  0x1007	int3   	
  === BLOCK LINK ===
    0x1008
=== CODE BLOCK END ===

=== CODE BLOCK ADDRESS 0x100d ===
  0x100d	push   	edi
  0x100e	dec    	eax
  0x100f	sub    	esp, 0x240
  0x1015	dec    	eax
  0x1016	mov    	eax, dword ptr [0x205c]
  === BLOCK LINK ===
    0x101c
=== CODE BLOCK END ===

=== CODE BLOCK ADDRESS 0x101c ===
  0x101c	dec    	eax
  0x101d	xor    	eax, esp
  0x101f	dec    	eax
  0x1020	mov    	dword ptr [esp + 0x230], eax
  0x1027	dec    	eax
  === BLOCK LINK ===
    0x1028
=== CODE BLOCK END ===

=== CODE BLOCK ADDRESS 0x1028 ===
  0x1028	mov    	edi, edx
  0x102a	cmp    	ecx, 1
  0x102d	jl     	0x11a2
  === BLOCK LINK ===
    0x1033
    0x11a2
=== CODE BLOCK END ===

=== CODE BLOCK ADDRESS 0x1033 ===
  0x1033	inc    	ebp
  0x1034	xor    	eax, eax
  0x1036	dec    	eax
  0x1037	lea    	ecx, [0x1363]
  0x103d	xor    	edx, edx
  === BLOCK LINK ===
    0x103f
=== CODE BLOCK END ===

=== CODE BLOCK ADDRESS 0x103f ===
  0x103f	dec    	eax
  0x1040	call   	dword ptr [0x1162]
  === BLOCK LINK ===
    0x1046
=== CODE BLOCK END ===

=== CODE BLOCK ADDRESS 0x1046 ===
  0x1046	nop    	dword ptr [eax + eax]
  0x104b	dec    	eax
  0x104c	mov    	ebx, eax
  0x104e	dec    	eax
  0x104f	test   	eax, eax
  === BLOCK LINK ===
    0x1051
=== CODE BLOCK END ===

=== CODE BLOCK ADDRESS 0x1051 ===
  0x1051	jne    	0x1073
  === BLOCK LINK ===
    0x1053
    0x1073
=== CODE BLOCK END ===

=== CODE BLOCK ADDRESS 0x1053 ===
  0x1053	dec    	eax
  0x1054	call   	dword ptr [0x1156]
  === BLOCK LINK ===
    0x105a
=== CODE BLOCK END ===

=== CODE BLOCK ADDRESS 0x105a ===
  0x105a	nop    	dword ptr [eax + eax]
  0x105f	mov    	ecx, eax
  0x1061	movzx  	eax, ax
  0x1064	or     	eax, 0x80070000
  0x1069	test   	ecx, ecx
  === BLOCK LINK ===
    0x106b
=== CODE BLOCK END ===

=== CODE BLOCK ADDRESS 0x106b ===
  0x106b	cmovle  	eax, ecx
  0x106e	jmp    	0x11a7
  === BLOCK LINK ===
    0x1073
    0x11a7
=== CODE BLOCK END ===

=== CODE BLOCK ADDRESS 0x1073 ===
  0x1073	dec    	eax
  0x1074	mov    	ecx, dword ptr [edi]
  0x1076	dec    	eax
  0x1077	lea    	edx, [0x134b]
  0x107d	dec    	eax
  === BLOCK LINK ===
    0x107e
=== CODE BLOCK END ===

=== CODE BLOCK ADDRESS 0x107e ===
  0x107e	call   	dword ptr [0x124c]
  === BLOCK LINK ===
    0x1084
=== CODE BLOCK END ===

=== CODE BLOCK ADDRESS 0x1084 ===
  0x1084	nop    	dword ptr [eax + eax]
  0x1089	test   	eax, eax
  0x108b	jne    	0x10f2
  === BLOCK LINK ===
    0x108d
    0x10f2
=== CODE BLOCK END ===

=== CODE BLOCK ADDRESS 0x108d ===
  0x108d	xor    	edx, edx
  0x108f	dec    	eax
  0x1090	lea    	ecx, [esp + 0x20]
  0x1094	inc    	ecx
  0x1095	mov    	eax, 0x20a
  === BLOCK LINK ===
    0x109a
=== CODE BLOCK END ===

=== CODE BLOCK ADDRESS 0x109a ===
  0x109a	call   	0x1dbd
  === BLOCK LINK ===
    0x109f
    0x1dbd
=== CODE BLOCK END ===

=== CODE BLOCK ADDRESS 0x109f ===
  0x109f	mov    	edx, 0x104
  0x10a4	dec    	eax
  0x10a5	lea    	ecx, [esp + 0x20]
  0x10a9	dec    	eax
  0x10aa	call   	dword ptr [0x1108]
  === BLOCK LINK ===
    0x10b0
=== CODE BLOCK END ===

=== CODE BLOCK ADDRESS 0x10b0 ===
  0x10b0	nop    	dword ptr [eax + eax]
  0x10b5	test   	eax, eax
  0x10b7	je     	0x1053
  === BLOCK LINK ===
    0x10b9
    0x1053
=== CODE BLOCK END ===

=== CODE BLOCK ADDRESS 0x10b9 ===
  0x10b9	dec    	eax
  0x10ba	lea    	edx, [0x1320]
  0x10c0	dec    	eax
  0x10c1	mov    	ecx, ebx
  0x10c3	dec    	eax
  === BLOCK LINK ===
    0x10c4
=== CODE BLOCK END ===

=== CODE BLOCK ADDRESS 0x10c4 ===
  0x10c4	call   	dword ptr [0x10f6]
  === BLOCK LINK ===
    0x10ca
=== CODE BLOCK END ===

=== CODE BLOCK ADDRESS 0x10ca ===
  0x10ca	nop    	dword ptr [eax + eax]
  0x10cf	dec    	eax
  0x10d0	test   	eax, eax
  0x10d2	je     	0x119b
  === BLOCK LINK ===
    0x10d8
    0x119b
=== CODE BLOCK END ===

=== CODE BLOCK ADDRESS 0x10d8 ===
  0x10d8	movzx  	ecx, word ptr [esp + 0x20]
  0x10dd	call   	dword ptr [0x121d]
  === BLOCK LINK ===
    0x10e3
=== CODE BLOCK END ===

=== CODE BLOCK ADDRESS 0x10e3 ===
  0x10e3	test   	eax, eax
  0x10e5	js     	0x11a7
  === BLOCK LINK ===
    0x10eb
    0x11a7
=== CODE BLOCK END ===

=== CODE BLOCK ADDRESS 0x10eb ===
  0x10eb	xor    	eax, eax
  0x10ed	jmp    	0x11a7
  === BLOCK LINK ===
    0x10f2
    0x11a7
=== CODE BLOCK END ===

=== CODE BLOCK ADDRESS 0x10f2 ===
  0x10f2	dec    	eax
  0x10f3	mov    	ecx, dword ptr [edi]
  0x10f5	dec    	eax
  0x10f6	lea    	edx, [0x12f4]
  0x10fc	dec    	eax
  === BLOCK LINK ===
    0x10fd
=== CODE BLOCK END ===

=== CODE BLOCK ADDRESS 0x10fd ===
  0x10fd	call   	dword ptr [0x11cd]
  === BLOCK LINK ===
    0x1103
=== CODE BLOCK END ===

=== CODE BLOCK ADDRESS 0x1103 ===
  0x1103	nop    	dword ptr [eax + eax]
  0x1108	test   	eax, eax
  0x110a	jne    	0x112f
  === BLOCK LINK ===
    0x110c
    0x112f
=== CODE BLOCK END ===

=== CODE BLOCK ADDRESS 0x110c ===
  0x110c	dec    	eax
  0x110d	lea    	edx, [0x12fd]
  === BLOCK LINK ===
    0x1113
=== CODE BLOCK END ===

=== CODE BLOCK ADDRESS 0x1117 ===
  0x1117	call   	dword ptr [0x10a3]
  === BLOCK LINK ===
    0x111d
=== CODE BLOCK END ===

=== CODE BLOCK ADDRESS 0x111d ===
  0x111d	nop    	dword ptr [eax + eax]
  0x1122	dec    	eax
  0x1123	test   	eax, eax
  0x1125	je     	0x119b
  === BLOCK LINK ===
    0x1127
    0x119b
=== CODE BLOCK END ===

=== CODE BLOCK ADDRESS 0x1127 ===
  0x1127	call   	dword ptr [0x11d3]
  === BLOCK LINK ===
    0x112d
=== CODE BLOCK END ===

=== CODE BLOCK ADDRESS 0x112d ===
  0x112d	jmp    	0x10e3
  === BLOCK LINK ===
    0x112f
    0x10e3
=== CODE BLOCK END ===

=== CODE BLOCK ADDRESS 0x112f ===
  0x112f	dec    	eax
  0x1130	mov    	ecx, dword ptr [edi]
  0x1132	dec    	eax
  0x1133	lea    	edx, [0x12ef]
  0x1139	dec    	eax
  === BLOCK LINK ===
    0x113a
=== CODE BLOCK END ===

=== CODE BLOCK ADDRESS 0x113a ===
  0x113a	call   	dword ptr [0x1190]
  === BLOCK LINK ===
    0x1140
=== CODE BLOCK END ===

=== CODE BLOCK ADDRESS 0x1140 ===
  0x1140	nop    	dword ptr [eax + eax]
  0x1145	test   	eax, eax
  0x1147	jne    	0x1152
  === BLOCK LINK ===
    0x1149
    0x1152
=== CODE BLOCK END ===

=== CODE BLOCK ADDRESS 0x1149 ===
  0x1149	dec    	eax
  0x114a	lea    	edx, [0x12e8]
  0x1150	jmp    	0x1113
  === BLOCK LINK ===
    0x1152
    0x1113
=== CODE BLOCK END ===

=== CODE BLOCK ADDRESS 0x1152 ===
  0x1152	dec    	eax
  0x1153	mov    	ecx, dword ptr [edi]
  0x1155	dec    	eax
  0x1156	lea    	edx, [0x12ec]
  0x115c	dec    	eax
  === BLOCK LINK ===
    0x115d
=== CODE BLOCK END ===

=== CODE BLOCK ADDRESS 0x115d ===
  0x115d	call   	dword ptr [0x116d]
  === BLOCK LINK ===
    0x1163
=== CODE BLOCK END ===

=== CODE BLOCK ADDRESS 0x1163 ===
  0x1163	nop    	dword ptr [eax + eax]
  0x1168	test   	eax, eax
  0x116a	jne    	0x1175
  === BLOCK LINK ===
    0x116c
    0x1175
=== CODE BLOCK END ===

=== CODE BLOCK ADDRESS 0x116c ===
  0x116c	dec    	eax
  0x116d	lea    	edx, [0x12e5]
  0x1173	jmp    	0x1113
  === BLOCK LINK ===
    0x1175
    0x1113
=== CODE BLOCK END ===

=== CODE BLOCK ADDRESS 0x1175 ===
  0x1175	dec    	eax
  0x1176	mov    	ecx, dword ptr [edi]
  0x1178	dec    	eax
  0x1179	lea    	edx, [0x12e9]
  0x117f	dec    	eax
  === BLOCK LINK ===
    0x1180
=== CODE BLOCK END ===

=== CODE BLOCK ADDRESS 0x1180 ===
  0x1180	call   	dword ptr [0x114a]
  === BLOCK LINK ===
    0x1186
=== CODE BLOCK END ===

=== CODE BLOCK ADDRESS 0x1186 ===
  0x1186	nop    	dword ptr [eax + eax]
  0x118b	test   	eax, eax
  0x118d	jne    	0x11a2
  === BLOCK LINK ===
    0x118f
    0x11a2
=== CODE BLOCK END ===

=== CODE BLOCK ADDRESS 0x118f ===
  0x118f	dec    	eax
  0x1190	lea    	edx, [0x12ea]
  0x1196	jmp    	0x1113
  === BLOCK LINK ===
    0x119b
    0x1113
=== CODE BLOCK END ===

=== CODE BLOCK ADDRESS 0x119b ===
  0x119b	mov    	eax, 0x8007007f
  0x11a0	jmp    	0x11a7
  === BLOCK LINK ===
    0x11a2
    0x11a7
=== CODE BLOCK END ===

=== CODE BLOCK ADDRESS 0x11a2 ===
  0x11a2	mov    	eax, 0x80070057
  === BLOCK LINK ===
    0x11a7
=== CODE BLOCK END ===

=== CODE BLOCK ADDRESS 0x11b2 ===
  0x11b2	call   	0x17e0
  === BLOCK LINK ===
    0x11b7
    0x17e0
=== CODE BLOCK END ===

=== CODE BLOCK ADDRESS 0x11b7 ===
  0x11b7	dec    	eax
  0x11b8	mov    	ebx, dword ptr [esp + 0x250]
  0x11bf	dec    	eax
  0x11c0	add    	esp, 0x240
  0x11c6	pop    	edi
  === BLOCK LINK ===
    0x11c7
=== CODE BLOCK END ===

=== CODE BLOCK ADDRESS 0x11c7 ===
  0x11c7	ret    	
  0x11c8	int3   	
  0x11c9	int3   	
  0x11ca	int3   	
  0x11cb	int3   	
  === BLOCK LINK ===
    0x11cc
=== CODE BLOCK END ===

=== CODE BLOCK ADDRESS 0x11cc ===
  0x11cc	int3   	
  0x11cd	int3   	
  0x11ce	int3   	
  0x11cf	int3   	
  0x11d0	dec    	eax
  === BLOCK LINK ===
    0x11d1
=== CODE BLOCK END ===

=== CODE BLOCK ADDRESS 0x11d1 ===
  0x11d1	mov    	dword ptr [esp + 8], ebx
  0x11d5	dec    	eax
  0x11d6	mov    	dword ptr [esp + 0x10], edi
  0x11da	push   	ebp
  0x11db	dec    	eax
  === BLOCK LINK ===
    0x11dc
=== CODE BLOCK END ===

=== CODE BLOCK ADDRESS 0x11dc ===
  0x11dc	mov    	ebp, esp
  0x11de	dec    	eax
  0x11df	sub    	esp, 0x40
  0x11e2	and    	dword ptr [ebp - 0x20], 0
  0x11e6	dec    	eax
  === BLOCK LINK ===
    0x11e7
=== CODE BLOCK END ===

=== CODE BLOCK ADDRESS 0x11e7 ===
  0x11e7	lea    	edx, [ebp - 0x20]
  0x11ea	dec    	ecx
  0x11eb	mov    	ecx, eax
  0x11ed	dec    	eax
  0x11ee	call   	dword ptr [0x105c]
  === BLOCK LINK ===
    0x11f4
=== CODE BLOCK END ===

=== CODE BLOCK ADDRESS 0x11f4 ===
  0x11f4	nop    	dword ptr [eax + eax]
  0x11f9	dec    	eax
  0x11fa	and    	dword ptr [ebp - 0x18], 0
  0x11fe	dec    	eax
  0x11ff	lea    	edi, [0xe1b]
  === BLOCK LINK ===
    0x1205
=== CODE BLOCK END ===

=== CODE BLOCK ADDRESS 0x1205 ===
  0x1205	dec    	eax
  0x1206	mov    	dword ptr [ebp - 8], eax
  0x1209	dec    	eax
  0x120a	lea    	edx, [ebp - 0x18]
  0x120d	dec    	eax
  === BLOCK LINK ===
    0x120e
=== CODE BLOCK END ===

=== CODE BLOCK ADDRESS 0x120e ===
  0x120e	mov    	eax, dword ptr [0xe44]
  0x1214	dec    	eax
  0x1215	lea    	ecx, [ebp - 0x10]
  0x1218	dec    	eax
  0x1219	mov    	dword ptr [ebp - 0x10], edi
  === BLOCK LINK ===
    0x121c
=== CODE BLOCK END ===

=== CODE BLOCK ADDRESS 0x121c ===
  0x121c	call   	dword ptr [0x10de]
  === BLOCK LINK ===
    0x1222
=== CODE BLOCK END ===

=== CODE BLOCK ADDRESS 0x1222 ===
  0x1222	test   	al, al
  0x1224	je     	0x1234
  === BLOCK LINK ===
    0x1226
    0x1234
=== CODE BLOCK END ===

=== CODE BLOCK ADDRESS 0x1226 ===
  0x1226	dec    	eax
  0x1227	call   	dword ptr [0xf83]
  === BLOCK LINK ===
    0x122d
=== CODE BLOCK END ===

=== CODE BLOCK ADDRESS 0x122d ===
  0x122d	nop    	dword ptr [eax + eax]
  0x1232	jmp    	0x1251
  === BLOCK LINK ===
    0x1234
    0x1251
=== CODE BLOCK END ===

=== CODE BLOCK ADDRESS 0x1234 ===
  0x1234	dec    	eax
  0x1235	mov    	eax, dword ptr [ebp - 0x10]
  0x1238	dec    	eax
  0x1239	lea    	ecx, [ebp - 0x10]
  0x123c	dec    	eax
  === BLOCK LINK ===
    0x123d
=== CODE BLOCK END ===

=== CODE BLOCK ADDRESS 0x123d ===
  0x123d	mov    	eax, dword ptr [eax + 0x20]
  0x1240	call   	dword ptr [0x10ba]
  === BLOCK LINK ===
    0x1246
=== CODE BLOCK END ===

=== CODE BLOCK ADDRESS 0x1246 ===
  0x1246	mov    	ecx, dword ptr [ebp - 0x20]
  0x1249	dec    	eax
  0x124a	mov    	edx, eax
  0x124c	call   	0x1008
  === BLOCK LINK ===
    0x1251
    0x1008
=== CODE BLOCK END ===

=== CODE BLOCK ADDRESS 0x1251 ===
  0x1251	dec    	eax
  0x1252	mov    	ecx, dword ptr [ebp - 8]
  0x1255	mov    	ebx, eax
  0x1257	dec    	eax
  0x1258	mov    	dword ptr [ebp - 0x10], edi
  === BLOCK LINK ===
    0x125b
=== CODE BLOCK END ===

=== CODE BLOCK ADDRESS 0x125b ===
  0x125b	dec    	eax
  0x125c	test   	ecx, ecx
  0x125e	je     	0x126c
  === BLOCK LINK ===
    0x1260
    0x126c
=== CODE BLOCK END ===

=== CODE BLOCK ADDRESS 0x1260 ===
  0x1260	dec    	eax
  0x1261	call   	dword ptr [0xf61]
  === BLOCK LINK ===
    0x1267
=== CODE BLOCK END ===

=== CODE BLOCK ADDRESS 0x1267 ===
  0x1267	nop    	dword ptr [eax + eax]
  === BLOCK LINK ===
    0x126c
=== CODE BLOCK END ===

=== CODE BLOCK ADDRESS 0x1274 ===
  0x1274	mov    	ebx, dword ptr [esp + 0x50]
  0x1278	dec    	eax
  0x1279	add    	esp, 0x40
  0x127c	pop    	ebp
  0x127d	ret    	
  === BLOCK LINK ===
    0x127e
=== CODE BLOCK END ===

=== CODE BLOCK ADDRESS 0x127e ===
  0x127e	int3   	
  0x127f	int3   	
  0x1280	int3   	
  0x1281	int3   	
  0x1282	int3   	
  === BLOCK LINK ===
    0x1283
=== CODE BLOCK END ===

=== CODE BLOCK ADDRESS 0x1283 ===
  0x1283	int3   	
  0x1284	int3   	
  0x1285	int3   	
  0x1286	int3   	
  0x1287	int3   	
  === BLOCK LINK ===
    0x1288
=== CODE BLOCK END ===

=== CODE BLOCK ADDRESS 0x1288 ===
  0x1288	int3   	
  0x1289	int3   	
  0x128a	int3   	
  0x128b	int3   	
  0x128c	int3   	
  === BLOCK LINK ===
    0x128d
=== CODE BLOCK END ===

=== CODE BLOCK ADDRESS 0x128d ===
  0x128d	int3   	
  0x128e	int3   	
  0x128f	int3   	
  0x1290	dec    	eax
  0x1291	and    	dword ptr [ecx + 8], 0
  === BLOCK LINK ===
    0x1295
=== CODE BLOCK END ===

=== CODE BLOCK ADDRESS 0x1295 ===
  0x1295	ret    	
  0x1296	int3   	
  0x1297	int3   	
  0x1298	int3   	
  0x1299	int3   	
  === BLOCK LINK ===
    0x129a
=== CODE BLOCK END ===

=== CODE BLOCK ADDRESS 0x11a7 ===
  0x11a7	dec    	eax
  0x11a8	mov    	ecx, dword ptr [esp + 0x230]
  0x11af	dec    	eax
  0x11b0	xor    	ecx, esp
  === BLOCK LINK ===
    0x11b2
=== CODE BLOCK END ===

=== CODE BLOCK ADDRESS 0x129a ===
  0x129a	int3   	
  0x129b	int3   	
  0x129c	int3   	
  0x129d	int3   	
  0x129e	int3   	
  === BLOCK LINK ===
    0x129f
=== CODE BLOCK END ===

=== CODE BLOCK ADDRESS 0x129f ===
  0x129f	int3   	
  0x12a0	dec    	eax
  0x12a1	mov    	eax, dword ptr [ecx + 8]
  0x12a4	dec    	eax
  0x12a5	and    	dword ptr [ecx + 8], 0
  === BLOCK LINK ===
    0x12a9
=== CODE BLOCK END ===

=== CODE BLOCK ADDRESS 0x12a9 ===
  0x12a9	ret    	
  0x12aa	int3   	
  0x12ab	int3   	
  0x12ac	int3   	
  0x12ad	int3   	
  === BLOCK LINK ===
    0x12ae
=== CODE BLOCK END ===

=== CODE BLOCK ADDRESS 0x12ae ===
  0x12ae	int3   	
  0x12af	int3   	
  0x12b0	int3   	
  0x12b1	int3   	
  0x12b2	int3   	
  === BLOCK LINK ===
    0x12b3
=== CODE BLOCK END ===

=== CODE BLOCK ADDRESS 0x12b3 ===
  0x12b3	int3   	
  0x12b4	int3   	
  0x12b5	int3   	
  0x12b6	int3   	
  0x12b7	int3   	
  === BLOCK LINK ===
    0x12b8
=== CODE BLOCK END ===

=== CODE BLOCK ADDRESS 0x12b8 ===
  0x12b8	int3   	
  0x12b9	int3   	
  0x12ba	int3   	
  0x12bb	int3   	
  0x12bc	int3   	
  === BLOCK LINK ===
    0x12bd
=== CODE BLOCK END ===

=== CODE BLOCK ADDRESS 0x12bd ===
  0x12bd	int3   	
  0x12be	int3   	
  0x12bf	int3   	
  0x12c0	dec    	eax
  0x12c1	cmp    	dword ptr [ecx + 8], 0
  === BLOCK LINK ===
    0x12c5
=== CODE BLOCK END ===

=== CODE BLOCK ADDRESS 0x12c5 ===
  0x12c5	sete   	al
  0x12c8	ret    	
  0x12c9	int3   	
  0x12ca	int3   	
  0x12cb	int3   	
  === BLOCK LINK ===
    0x12cc
=== CODE BLOCK END ===

=== CODE BLOCK ADDRESS 0x1dbd ===
=== CODE BLOCK END ===

=== CODE BLOCK ADDRESS 0x12cc ===
  0x12cc	int3   	
  0x12cd	int3   	
  0x12ce	int3   	
  0x12cf	int3   	
  0x12d0	dec    	eax
  === BLOCK LINK ===
    0x12d1
=== CODE BLOCK END ===

=== CODE BLOCK ADDRESS 0x12d1 ===
  0x12d1	mov    	eax, dword ptr [edx]
  0x12d3	dec    	eax
  0x12d4	cmp    	dword ptr [ecx + 8], eax
  0x12d7	setne  	al
  0x12da	ret    	
  === BLOCK LINK ===
    0x12db
=== CODE BLOCK END ===

=== CODE BLOCK ADDRESS 0x12db ===
  0x12db	int3   	
  0x12dc	int3   	
  0x12dd	int3   	
  0x12de	int3   	
  0x12df	int3   	
  === BLOCK LINK ===
    0x12e0
=== CODE BLOCK END ===

=== CODE BLOCK ADDRESS 0x12e0 ===
  0x12e0	int3   	
  0x12e1	int3   	
  0x12e2	int3   	
  0x12e3	int3   	
  0x12e4	int3   	
  === BLOCK LINK ===
    0x12e5
=== CODE BLOCK END ===

=== CODE BLOCK ADDRESS 0x12e5 ===
  0x12e5	int3   	
  0x12e6	int3   	
  0x12e7	int3   	
  0x12e8	int3   	
  0x12e9	int3   	
  === BLOCK LINK ===
    0x12ea
=== CODE BLOCK END ===

=== CODE BLOCK ADDRESS 0x12ea ===
  0x12ea	int3   	
  0x12eb	int3   	
  0x12ec	int3   	
  0x12ed	int3   	
  0x12ee	int3   	
  === BLOCK LINK ===
    0x12ef
=== CODE BLOCK END ===

=== CODE BLOCK ADDRESS 0x12ef ===
  0x12ef	int3   	
  0x12f0	dec    	eax
  0x12f1	mov    	eax, dword ptr [edx]
  0x12f3	dec    	eax
  0x12f4	cmp    	dword ptr [ecx + 8], eax
  === BLOCK LINK ===
    0x12f7
=== CODE BLOCK END ===

=== CODE BLOCK ADDRESS 0x12f7 ===
  0x12f7	sete   	al
  0x12fa	ret    	
  0x12fb	int3   	
  0x12fc	int3   	
  0x12fd	int3   	
  === BLOCK LINK ===
    0x12fe
=== CODE BLOCK END ===

=== CODE BLOCK ADDRESS 0x12fe ===
  0x12fe	int3   	
  0x12ff	int3   	
  0x1300	int3   	
  0x1301	int3   	
  0x1302	int3   	
  === BLOCK LINK ===
    0x1303
=== CODE BLOCK END ===

=== CODE BLOCK ADDRESS 0x1303 ===
  0x1303	int3   	
  0x1304	int3   	
  0x1305	int3   	
  0x1306	int3   	
  0x1307	int3   	
  === BLOCK LINK ===
    0x1308
=== CODE BLOCK END ===

=== CODE BLOCK ADDRESS 0x1308 ===
  0x1308	int3   	
  0x1309	int3   	
  0x130a	int3   	
  0x130b	int3   	
  0x130c	int3   	
  === BLOCK LINK ===
    0x130d
=== CODE BLOCK END ===

=== CODE BLOCK ADDRESS 0x130d ===
  0x130d	int3   	
  0x130e	int3   	
  0x130f	int3   	
  0x1310	dec    	eax
  0x1311	mov    	eax, dword ptr [ecx + 8]
  === BLOCK LINK ===
    0x1314
=== CODE BLOCK END ===

=== CODE BLOCK ADDRESS 0x1314 ===
  0x1314	ret    	
  0x1315	int3   	
  0x1316	int3   	
  0x1317	int3   	
  0x1318	int3   	
  === BLOCK LINK ===
    0x1319
=== CODE BLOCK END ===

=== CODE BLOCK ADDRESS 0x1319 ===
  0x1319	int3   	
  0x131a	int3   	
  0x131b	int3   	
  0x131c	int3   	
  0x131d	int3   	
  === BLOCK LINK ===
    0x131e
=== CODE BLOCK END ===

=== CODE BLOCK ADDRESS 0x131e ===
  0x131e	int3   	
  0x131f	int3   	
  0x1320	dec    	eax
  0x1321	lea    	eax, [ecx + 8]
  0x1324	ret    	
  === BLOCK LINK ===
    0x1325
=== CODE BLOCK END ===

=== CODE BLOCK ADDRESS 0x1325 ===
  0x1325	int3   	
  0x1326	int3   	
  0x1327	int3   	
  0x1328	int3   	
  0x1329	int3   	
  === BLOCK LINK ===
    0x132a
=== CODE BLOCK END ===

=== CODE BLOCK ADDRESS 0x132a ===
  0x132a	int3   	
  0x132b	int3   	
  0x132c	int3   	
  0x132d	int3   	
  0x132e	int3   	
  === BLOCK LINK ===
    0x132f
=== CODE BLOCK END ===

=== CODE BLOCK ADDRESS 0x132f ===
  0x132f	int3   	
  0x1330	dec    	eax
  0x1331	mov    	dword ptr [esp + 8], ebx
  0x1335	push   	edi
  0x1336	dec    	eax
  === BLOCK LINK ===
    0x1337
=== CODE BLOCK END ===

=== CODE BLOCK ADDRESS 0x1337 ===
  0x1337	sub    	esp, 0x20
  0x133a	dec    	eax
  0x133b	mov    	ebx, ecx
  0x133d	dec    	eax
  0x133e	mov    	edi, edx
  === BLOCK LINK ===
    0x1340
=== CODE BLOCK END ===

=== CODE BLOCK ADDRESS 0x1340 ===
  0x1340	dec    	eax
  0x1341	mov    	ecx, dword ptr [ecx + 8]
  0x1344	dec    	eax
  0x1345	test   	ecx, ecx
  0x1347	je     	0x1355
  === BLOCK LINK ===
    0x1349
    0x1355
=== CODE BLOCK END ===

=== CODE BLOCK ADDRESS 0x1349 ===
  0x1349	dec    	eax
  0x134a	call   	dword ptr [0xe78]
  === BLOCK LINK ===
    0x1350
=== CODE BLOCK END ===

=== CODE BLOCK ADDRESS 0x1350 ===
  0x1350	nop    	dword ptr [eax + eax]
  === BLOCK LINK ===
    0x1355
=== CODE BLOCK END ===

=== CODE BLOCK ADDRESS 0x135e ===
  0x135e	dec    	eax
  0x135f	add    	esp, 0x20
  0x1362	pop    	edi
  0x1363	ret    	
  0x1364	int3   	
  === BLOCK LINK ===
    0x1365
=== CODE BLOCK END ===

=== CODE BLOCK ADDRESS 0x1365 ===
  0x1365	int3   	
  0x1366	int3   	
  0x1367	int3   	
  0x1368	int3   	
  0x1369	int3   	
  === BLOCK LINK ===
    0x136a
=== CODE BLOCK END ===

=== CODE BLOCK ADDRESS 0x136a ===
  0x136a	int3   	
  0x136b	int3   	
  0x136c	int3   	
  0x136d	int3   	
  0x136e	int3   	
  === BLOCK LINK ===
    0x136f
=== CODE BLOCK END ===

=== CODE BLOCK ADDRESS 0x136f ===
  0x136f	int3   	
  0x1370	inc    	eax
  0x1371	push   	ebx
  0x1372	dec    	eax
  0x1373	sub    	esp, 0x20
  === BLOCK LINK ===
    0x1376
=== CODE BLOCK END ===

=== CODE BLOCK ADDRESS 0x1376 ===
  0x1376	dec    	eax
  0x1377	mov    	ebx, ecx
  0x1379	dec    	eax
  0x137a	mov    	ecx, dword ptr [ecx + 8]
  0x137d	dec    	eax
  === BLOCK LINK ===
    0x137e
=== CODE BLOCK END ===

=== CODE BLOCK ADDRESS 0x137e ===
  0x137e	test   	ecx, ecx
  0x1380	je     	0x1393
  === BLOCK LINK ===
    0x1382
    0x1393
=== CODE BLOCK END ===

=== CODE BLOCK ADDRESS 0x1382 ===
  0x1382	dec    	eax
  0x1383	call   	dword ptr [0xe3f]
  === BLOCK LINK ===
    0x1389
=== CODE BLOCK END ===

=== CODE BLOCK ADDRESS 0x1389 ===
  0x1389	nop    	dword ptr [eax + eax]
  0x138e	dec    	eax
  0x138f	and    	dword ptr [ebx + 8], 0
  === BLOCK LINK ===
    0x1393
=== CODE BLOCK END ===

=== CODE BLOCK ADDRESS 0x1397 ===
  0x1397	pop    	ebx
  0x1398	ret    	
  0x1399	int3   	
  0x139a	int3   	
  0x139b	int3   	
  === BLOCK LINK ===
    0x139c
=== CODE BLOCK END ===

=== CODE BLOCK ADDRESS 0x139c ===
  0x139c	int3   	
  0x139d	int3   	
  0x139e	int3   	
  0x139f	int3   	
  0x13a0	dec    	eax
  === BLOCK LINK ===
    0x13a1
=== CODE BLOCK END ===

=== CODE BLOCK ADDRESS 0x13a1 ===
  0x13a1	mov    	dword ptr [esp + 8], ebx
  0x13a5	push   	edi
  0x13a6	dec    	eax
  0x13a7	sub    	esp, 0x20
  0x13aa	dec    	eax
  === BLOCK LINK ===
    0x13ab
=== CODE BLOCK END ===

=== CODE BLOCK ADDRESS 0x13ab ===
  0x13ab	lea    	eax, [0xc6f]
  0x13b1	dec    	eax
  0x13b2	mov    	ebx, ecx
  0x13b4	dec    	eax
  0x13b5	mov    	dword ptr [ecx], eax
  === BLOCK LINK ===
    0x13b7
=== CODE BLOCK END ===

=== CODE BLOCK ADDRESS 0x13b7 ===
  0x13b7	mov    	edi, edx
  0x13b9	dec    	eax
  0x13ba	mov    	ecx, dword ptr [ecx + 8]
  0x13bd	dec    	eax
  0x13be	test   	ecx, ecx
  === BLOCK LINK ===
    0x13c0
=== CODE BLOCK END ===

=== CODE BLOCK ADDRESS 0x13c0 ===
  0x13c0	je     	0x13d3
  === BLOCK LINK ===
    0x13c2
    0x13d3
=== CODE BLOCK END ===

=== CODE BLOCK ADDRESS 0x13c2 ===
  0x13c2	dec    	eax
  0x13c3	call   	dword ptr [0xdff]
  === BLOCK LINK ===
    0x13c9
=== CODE BLOCK END ===

=== CODE BLOCK ADDRESS 0x13c9 ===
  0x13c9	nop    	dword ptr [eax + eax]
  0x13ce	dec    	eax
  0x13cf	and    	dword ptr [ebx + 8], 0
  === BLOCK LINK ===
    0x13d3
=== CODE BLOCK END ===

=== CODE BLOCK ADDRESS 0x13d7 ===
  0x13d7	je     	0x13e1
  === BLOCK LINK ===
    0x13d9
    0x13e1
=== CODE BLOCK END ===

=== CODE BLOCK ADDRESS 0x13d9 ===
  0x13d9	dec    	eax
  0x13da	mov    	ecx, ebx
  0x13dc	call   	0x13f8
  === BLOCK LINK ===
    0x13e1
    0x13f8
=== CODE BLOCK END ===

=== CODE BLOCK ADDRESS 0x13e1 ===
  0x13e1	dec    	eax
  0x13e2	mov    	eax, ebx
  0x13e4	dec    	eax
  0x13e5	mov    	ebx, dword ptr [esp + 0x30]
  0x13e9	dec    	eax
  === BLOCK LINK ===
    0x13ea
=== CODE BLOCK END ===

=== CODE BLOCK ADDRESS 0x13ea ===
  0x13ea	add    	esp, 0x20
  0x13ed	pop    	edi
  0x13ee	ret    	
  0x13ef	int3   	
  0x13f0	int3   	
  === BLOCK LINK ===
    0x13f1
=== CODE BLOCK END ===

=== CODE BLOCK ADDRESS 0x13f1 ===
  0x13f1	int3   	
  0x13f2	int3   	
  0x13f3	int3   	
  0x13f4	int3   	
  0x13f5	int3   	
  === BLOCK LINK ===
    0x13f6
=== CODE BLOCK END ===

=== CODE BLOCK ADDRESS 0x13f6 ===
  0x13f6	int3   	
  0x13f7	int3   	
  === BLOCK LINK ===
    0x13f8
=== CODE BLOCK END ===

=== CODE BLOCK ADDRESS 0x13ff ===
  0x13ff	int3   	
  0x1400	int3   	
  0x1401	int3   	
  0x1402	int3   	
  0x1403	int3   	
  === BLOCK LINK ===
    0x1404
=== CODE BLOCK END ===

=== CODE BLOCK ADDRESS 0x1404 ===
  0x1404	int3   	
  0x1405	int3   	
  0x1406	int3   	
  0x1407	int3   	
  0x1408	int3   	
  === BLOCK LINK ===
    0x1409
=== CODE BLOCK END ===

=== CODE BLOCK ADDRESS 0x1409 ===
  0x1409	int3   	
  0x140a	int3   	
  0x140b	int3   	
  0x140c	int3   	
  0x140d	int3   	
  === BLOCK LINK ===
    0x140e
=== CODE BLOCK END ===

=== CODE BLOCK ADDRESS 0x140e ===
  0x140e	int3   	
  0x140f	int3   	
  0x1410	dec    	eax
  0x1411	sub    	esp, 0x28
  0x1414	mov    	eax, 0x5a4d
  === BLOCK LINK ===
    0x1419
=== CODE BLOCK END ===

=== CODE BLOCK ADDRESS 0x1419 ===
  0x1419	cmp    	word ptr [0xffffebe0], ax
  0x1420	je     	0x1426
  === BLOCK LINK ===
    0x1422
    0x1426
=== CODE BLOCK END ===

=== CODE BLOCK ADDRESS 0x1422 ===
  0x1422	xor    	eax, eax
  0x1424	jmp    	0x1479
  === BLOCK LINK ===
    0x1426
    0x1479
=== CODE BLOCK END ===

=== CODE BLOCK ADDRESS 0x1426 ===
  0x1426	dec    	eax
  0x1427	arpl   	word ptr [0xffffec0f], cx
  0x142d	dec    	eax
  0x142e	lea    	eax, [0xffffebcc]
  0x1434	dec    	eax
  === BLOCK LINK ===
    0x1435
=== CODE BLOCK END ===

=== CODE BLOCK ADDRESS 0x1435 ===
  0x1435	add    	ecx, eax
  0x1437	cmp    	dword ptr [ecx], 0x4550
  0x143d	jne    	0x1422
  === BLOCK LINK ===
    0x143f
    0x1422
=== CODE BLOCK END ===

=== CODE BLOCK ADDRESS 0x143f ===
  0x143f	mov    	eax, 0x10b
  0x1444	cmp    	word ptr [ecx + 0x18], ax
  0x1448	je     	0x1468
  === BLOCK LINK ===
    0x144a
=== CODE BLOCK END ===

=== CODE BLOCK ADDRESS 0x144a ===
  0x144a	mov    	eax, 0x20b
  0x144f	cmp    	word ptr [ecx + 0x18], ax
  0x1453	jne    	0x1422
  === BLOCK LINK ===
    0x1455
=== CODE BLOCK END ===

=== CODE BLOCK ADDRESS 0x1455 ===
  0x1455	xor    	eax, eax
  0x1457	cmp    	dword ptr [ecx + 0x84], 0xe
  0x145e	jbe    	0x1479
  === BLOCK LINK ===
    0x1460
=== CODE BLOCK END ===

=== CODE BLOCK ADDRESS 0x1460 ===
  0x1460	cmp    	dword ptr [ecx + 0xf8], eax
  0x1466	jmp    	0x1476
  === BLOCK LINK ===
    0x1468
=== CODE BLOCK END ===

=== CODE BLOCK ADDRESS 0x1468 ===
  0x1468	xor    	eax, eax
  0x146a	cmp    	dword ptr [ecx + 0x74], 0xe
  0x146e	jbe    	0x1479
  === BLOCK LINK ===
    0x1470
=== CODE BLOCK END ===

=== CODE BLOCK ADDRESS 0x1470 ===
  0x1470	cmp    	dword ptr [ecx + 0xe8], eax
  0x1476	setne  	al
  === BLOCK LINK ===
    0x1479
=== CODE BLOCK END ===

=== CODE BLOCK ADDRESS 0x1489 ===
  0x1489	mov    	ecx, eax
  0x148b	call   	dword ptr [0xe47]
  === BLOCK LINK ===
    0x1491
=== CODE BLOCK END ===

=== CODE BLOCK ADDRESS 0x1491 ===
  0x1491	dec    	eax
  0x1492	mov    	ecx, dword ptr [0xdf0]
  0x1498	dec    	eax
  0x1499	or     	eax, 0xffffffff
  0x149c	dec    	eax
  === BLOCK LINK ===
    0x149d
=== CODE BLOCK END ===

=== CODE BLOCK ADDRESS 0x149d ===
  0x149d	mov    	dword ptr [0x21a5], eax
  0x14a3	dec    	eax
  0x14a4	mov    	dword ptr [0x21a6], eax
  0x14aa	mov    	eax, dword ptr [0x1c14]
  0x14b0	mov    	dword ptr [ecx], eax
  === BLOCK LINK ===
    0x14b2
=== CODE BLOCK END ===

=== CODE BLOCK ADDRESS 0x14b2 ===
  0x14b2	dec    	eax
  0x14b3	mov    	ecx, dword ptr [0xdff]
  0x14b9	mov    	eax, dword ptr [0x1bf9]
  0x14bf	mov    	dword ptr [ecx], eax
  0x14c1	call   	0x1970
  === BLOCK LINK ===
    0x14c6
=== CODE BLOCK END ===

=== CODE BLOCK ADDRESS 0x14c6 ===
  0x14c6	cmp    	dword ptr [0x1ba3], 0
  0x14cd	jne    	0x14dc
  === BLOCK LINK ===
    0x14cf
=== CODE BLOCK END ===

=== CODE BLOCK ADDRESS 0x14cf ===
  0x14cf	dec    	eax
  0x14d0	lea    	ecx, [0x49a]
  0x14d6	call   	dword ptr [0xd8c]
  === BLOCK LINK ===
    0x14dc
=== CODE BLOCK END ===

=== CODE BLOCK ADDRESS 0x14dc ===
  0x14dc	xor    	eax, eax
  0x14de	dec    	eax
  0x14df	add    	esp, 0x28
  0x14e2	ret    	
  0x14e3	int3   	
  === BLOCK LINK ===
    0x14e4
=== CODE BLOCK END ===

=== CODE BLOCK ADDRESS 0x14e4 ===
  0x14e4	int3   	
  0x14e5	int3   	
  0x14e6	int3   	
  0x14e7	int3   	
  0x14e8	int3   	
  === BLOCK LINK ===
    0x14e9
=== CODE BLOCK END ===

=== CODE BLOCK ADDRESS 0x14e9 ===
  0x14e9	int3   	
  0x14ea	int3   	
  0x14eb	int3   	
  0x14ec	int3   	
  0x14ed	int3   	
  === BLOCK LINK ===
    0x14ee
=== CODE BLOCK END ===

=== CODE BLOCK ADDRESS 0x14ee ===
  0x14ee	int3   	
  0x14ef	int3   	
  0x14f0	dec    	eax
  0x14f1	sub    	esp, 0x38
  0x14f4	mov    	eax, dword ptr [0x1bc6]
  === BLOCK LINK ===
    0x14fa
=== CODE BLOCK END ===

=== CODE BLOCK ADDRESS 0x14fa ===
  0x14fa	dec    	esp
  0x14fb	lea    	eax, [0x1ba7]
  0x1501	inc    	esp
  0x1502	mov    	ecx, dword ptr [0x1bb4]
  0x1508	dec    	eax
  === BLOCK LINK ===
    0x1509
=== CODE BLOCK END ===

=== CODE BLOCK ADDRESS 0x1509 ===
  0x1509	lea    	edx, [0x1b91]
  0x150f	mov    	dword ptr [0x1b9f], eax
  0x1515	dec    	eax
  0x1516	lea    	ecx, [0x1b7c]
  0x151c	dec    	eax
  === BLOCK LINK ===
    0x151d
=== CODE BLOCK END ===

=== CODE BLOCK ADDRESS 0x151d ===
  0x151d	lea    	eax, [0x1b91]
  0x1523	dec    	eax
  0x1524	mov    	dword ptr [esp + 0x20], eax
  0x1528	call   	dword ptr [0xd4a]
  === BLOCK LINK ===
    0x152e
=== CODE BLOCK END ===

=== CODE BLOCK ADDRESS 0x152e ===
  0x152e	mov    	dword ptr [0x1b68], eax
  0x1534	dec    	eax
  0x1535	add    	esp, 0x38
  0x1538	ret    	
  0x1539	int3   	
  === BLOCK LINK ===
    0x153a
=== CODE BLOCK END ===

=== CODE BLOCK ADDRESS 0x1113 ===
  0x1113	dec    	eax
  0x1114	mov    	ecx, ebx
  0x1116	dec    	eax
  === BLOCK LINK ===
    0x1117
=== CODE BLOCK END ===

=== CODE BLOCK ADDRESS 0x153a ===
  0x153a	int3   	
  0x153b	int3   	
  0x153c	int3   	
  0x153d	int3   	
  0x153e	int3   	
  === BLOCK LINK ===
    0x153f
=== CODE BLOCK END ===

=== CODE BLOCK ADDRESS 0x153f ===
  0x153f	int3   	
  0x1540	dec    	eax
  0x1541	mov    	eax, esp
  0x1543	dec    	eax
  0x1544	mov    	dword ptr [eax + 8], ebx
  === BLOCK LINK ===
    0x1547
=== CODE BLOCK END ===

=== CODE BLOCK ADDRESS 0x1547 ===
  0x1547	dec    	eax
  0x1548	mov    	dword ptr [eax + 0x10], esi
  0x154b	dec    	eax
  0x154c	mov    	dword ptr [eax + 0x18], edi
  0x154f	dec    	esp
  === BLOCK LINK ===
    0x1550
=== CODE BLOCK END ===

=== CODE BLOCK ADDRESS 0x1550 ===
  0x1550	mov    	dword ptr [eax + 0x20], esi
  0x1553	inc    	ecx
  0x1554	push   	edi
  0x1555	dec    	eax
  0x1556	sub    	esp, 0xb0
  === BLOCK LINK ===
    0x155c
=== CODE BLOCK END ===

=== CODE BLOCK ADDRESS 0x155c ===
  0x155c	inc    	ebp
  0x155d	xor    	esi, esi
  0x155f	inc    	esp
  0x1560	mov    	dword ptr [esp + 0x20], esi
  0x1564	dec    	eax
  === BLOCK LINK ===
    0x1565
=== CODE BLOCK END ===

=== CODE BLOCK ADDRESS 0x1565 ===
  0x1565	lea    	ecx, [eax - 0x78]
  0x1568	call   	dword ptr [0xcba]
  === BLOCK LINK ===
    0x156e
=== CODE BLOCK END ===

=== CODE BLOCK ADDRESS 0x156e ===
  0x156e	nop    	
  0x156f	dec    	eax
  0x1571	mov    	eax, dword ptr [0x30]
  0x1578	dec    	eax
  0x1579	mov    	ebx, dword ptr [eax + 8]
  === BLOCK LINK ===
    0x157c
=== CODE BLOCK END ===

=== CODE BLOCK ADDRESS 0x157c ===
  0x157c	inc    	ecx
  0x157d	mov    	esi, esi
  0x157f	xor    	eax, eax
  0x1581	.byte  	0xf0
  0x1582	dec    	eax
  === BLOCK LINK ===
    0x1583
=== CODE BLOCK END ===

=== CODE BLOCK ADDRESS 0x1583 ===
  0x1583	cmpxchg  	dword ptr [0x20ce], ebx
  0x158a	je     	0x15a7
  === BLOCK LINK ===
    0x158c
=== CODE BLOCK END ===

=== CODE BLOCK ADDRESS 0x158c ===
  0x158c	dec    	eax
  0x158d	cmp    	eax, ebx
  0x158f	jne    	0x159a
  === BLOCK LINK ===
    0x1591
=== CODE BLOCK END ===

=== CODE BLOCK ADDRESS 0x1591 ===
  0x1591	mov    	ebx, 1
  0x1596	mov    	esi, ebx
  0x1598	jmp    	0x15ac
  === BLOCK LINK ===
    0x159a
=== CODE BLOCK END ===

=== CODE BLOCK ADDRESS 0x159a ===
  0x159a	mov    	ecx, 0x3e8
  0x159f	call   	dword ptr [0xc8b]
  === BLOCK LINK ===
    0x15a5
=== CODE BLOCK END ===

=== CODE BLOCK ADDRESS 0x15a5 ===
  0x15a5	jmp    	0x157f
  === BLOCK LINK ===
    0x15a7
=== CODE BLOCK END ===

=== CODE BLOCK ADDRESS 0x15a7 ===
  0x15a7	mov    	ebx, 1
  0x15ac	mov    	eax, dword ptr [0x20ae]
  0x15b2	cmp    	eax, ebx
  0x15b4	jne    	0x15c4
  === BLOCK LINK ===
    0x15b6
=== CODE BLOCK END ===

=== CODE BLOCK ADDRESS 0x15b6 ===
  0x15b6	mov    	edi, 0x1f
  0x15bb	mov    	ecx, edi
  0x15bd	call   	0x1963
  === BLOCK LINK ===
    0x15c2
=== CODE BLOCK END ===

=== CODE BLOCK ADDRESS 0x15c2 ===
  0x15c2	jmp    	0x1630
  === BLOCK LINK ===
    0x15c4
=== CODE BLOCK END ===

=== CODE BLOCK ADDRESS 0x15c4 ===
  0x15c4	mov    	eax, dword ptr [0x2096]
  0x15ca	test   	eax, eax
  0x15cc	jne    	0x1625
  === BLOCK LINK ===
    0x15ce
=== CODE BLOCK END ===

=== CODE BLOCK ADDRESS 0x15ce ===
  0x15ce	mov    	dword ptr [0x208c], ebx
  0x15d4	dec    	esp
  0x15d5	lea    	edi, [0xd5d]
  0x15db	dec    	eax
  0x15dc	lea    	edi, [0xd3e]
  === BLOCK LINK ===
    0x15e2
=== CODE BLOCK END ===

=== CODE BLOCK ADDRESS 0x15e2 ===
  0x15e2	dec    	eax
  0x15e3	mov    	dword ptr [esp + 0x30], edi
  0x15e7	inc    	ecx
  0x15e8	mov    	eax, esi
  0x15ea	mov    	dword ptr [esp + 0x24], eax
  === BLOCK LINK ===
    0x15ee
=== CODE BLOCK END ===

=== CODE BLOCK ADDRESS 0x15ee ===
  0x15ee	dec    	ecx
  0x15ef	cmp    	edi, edi
  0x15f1	jae    	0x1617
  === BLOCK LINK ===
    0x15f3
=== CODE BLOCK END ===

=== CODE BLOCK ADDRESS 0x15f3 ===
  0x15f3	test   	eax, eax
  0x15f5	jne    	0x161b
  === BLOCK LINK ===
    0x15f7
=== CODE BLOCK END ===

=== CODE BLOCK ADDRESS 0x15f7 ===
  0x15f7	dec    	esp
  0x15f8	cmp    	dword ptr [edi], esi
  0x15fa	je     	0x160c
  === BLOCK LINK ===
    0x15fc
=== CODE BLOCK END ===

=== CODE BLOCK ADDRESS 0x15fc ===
  0x15fc	dec    	eax
  0x15fd	mov    	eax, dword ptr [edi]
  0x15ff	dec    	eax
  0x1600	mov    	ecx, dword ptr [0xcfa]
  0x1606	call   	ecx
  === BLOCK LINK ===
    0x1608
=== CODE BLOCK END ===

=== CODE BLOCK ADDRESS 0x1608 ===
  0x1608	mov    	dword ptr [esp + 0x24], eax
  0x160c	dec    	eax
  0x160d	add    	edi, 8
  0x1610	dec    	eax
  0x1611	mov    	dword ptr [esp + 0x30], edi
  === BLOCK LINK ===
    0x1615
=== CODE BLOCK END ===

=== CODE BLOCK ADDRESS 0x1615 ===
  0x1615	jmp    	0x15ee
  === BLOCK LINK ===
    0x1617
=== CODE BLOCK END ===

=== CODE BLOCK ADDRESS 0x1617 ===
  0x1617	test   	eax, eax
  0x1619	je     	0x162b
  === BLOCK LINK ===
    0x161b
=== CODE BLOCK END ===

=== CODE BLOCK ADDRESS 0x161b ===
  0x161b	mov    	eax, 0xff
  0x1620	jmp    	0x1786
  === BLOCK LINK ===
    0x1625
=== CODE BLOCK END ===

=== CODE BLOCK ADDRESS 0x1625 ===
  0x1625	mov    	dword ptr [0x1a69], ebx
  0x162b	mov    	edi, 0x1f
  0x1630	mov    	eax, dword ptr [0x202a]
  0x1636	cmp    	eax, ebx
  0x1638	jne    	0x1657
  === BLOCK LINK ===
    0x163a
=== CODE BLOCK END ===

=== CODE BLOCK ADDRESS 0x163a ===
  0x163a	dec    	eax
  0x163b	lea    	edx, [0xcd7]
  0x1641	dec    	eax
  0x1642	lea    	ecx, [0xcc0]
  0x1648	call   	0x1b3e
  === BLOCK LINK ===
    0x164d
=== CODE BLOCK END ===

=== CODE BLOCK ADDRESS 0x164d ===
  0x164d	mov    	dword ptr [0x2009], 2
  0x1657	test   	esi, esi
  0x1659	jne    	0x1665
  === BLOCK LINK ===
    0x165b
=== CODE BLOCK END ===

=== CODE BLOCK ADDRESS 0x165b ===
  0x165b	dec    	ecx
  0x165c	mov    	eax, esi
  0x165e	dec    	eax
  0x165f	xchg   	dword ptr [0x1ff3], eax
  0x1665	dec    	esp
  === BLOCK LINK ===
    0x1666
=== CODE BLOCK END ===

=== CODE BLOCK ADDRESS 0x1666 ===
  0x1666	cmp    	dword ptr [0x1ffc], esi
  0x166c	je     	0x1698
  === BLOCK LINK ===
    0x166e
=== CODE BLOCK END ===

=== CODE BLOCK ADDRESS 0x166e ===
  0x166e	dec    	eax
  0x166f	lea    	ecx, [0x1ff3]
  0x1675	call   	0x19d0
  === BLOCK LINK ===
    0x167a
=== CODE BLOCK END ===

=== CODE BLOCK ADDRESS 0x167a ===
  0x167a	test   	eax, eax
  0x167c	je     	0x1698
  === BLOCK LINK ===
    0x167e
=== CODE BLOCK END ===

=== CODE BLOCK ADDRESS 0x167e ===
  0x167e	inc    	ebp
  0x167f	xor    	eax, eax
  0x1681	inc    	ecx
  0x1682	lea    	edx, [eax + 2]
  0x1685	xor    	ecx, ecx
  === BLOCK LINK ===
    0x1687
=== CODE BLOCK END ===

=== CODE BLOCK ADDRESS 0x1687 ===
  0x1687	dec    	eax
  0x1688	mov    	eax, dword ptr [0x1fda]
  0x168e	dec    	esp
  0x168f	mov    	ecx, dword ptr [0xc6b]
  0x1695	inc    	ecx
  === BLOCK LINK ===
    0x1696
=== CODE BLOCK END ===

=== CODE BLOCK ADDRESS 0x1696 ===
  0x1696	call   	ecx
  === BLOCK LINK ===
    0x1698
=== CODE BLOCK END ===

=== CODE BLOCK ADDRESS 0x1698 ===
  0x1698	dec    	eax
  0x1699	mov    	eax, dword ptr [0xbe1]
  0x169f	dec    	eax
  0x16a0	mov    	ecx, dword ptr [eax]
  0x16a2	dec    	eax
  === BLOCK LINK ===
    0x16a3
=== CODE BLOCK END ===

=== CODE BLOCK ADDRESS 0x16a3 ===
  0x16a3	test   	ecx, ecx
  0x16a5	jne    	0x16b1
  === BLOCK LINK ===
    0x16a7
=== CODE BLOCK END ===

=== CODE BLOCK ADDRESS 0x16a7 ===
  0x16a7	mov    	eax, 0xff
  0x16ac	jmp    	0x1786
  === BLOCK LINK ===
    0x16b1
=== CODE BLOCK END ===

=== CODE BLOCK ADDRESS 0x16b1 ===
  0x16b1	dec    	eax
  0x16b2	mov    	dword ptr [esp + 0x28], ecx
  0x16b6	mov    	edx, dword ptr [esp + 0x20]
  0x16ba	movzx  	eax, word ptr [ecx]
  0x16bd	cmp    	ax, 0x20
  === BLOCK LINK ===
    0x16c1
=== CODE BLOCK END ===

=== CODE BLOCK ADDRESS 0x16c1 ===
  0x16c1	ja     	0x1737
  === BLOCK LINK ===
    0x16c3
=== CODE BLOCK END ===

=== CODE BLOCK ADDRESS 0x16c3 ===
  0x16c3	test   	ax, ax
  0x16c6	je     	0x16cc
  === BLOCK LINK ===
    0x16c8
=== CODE BLOCK END ===

=== CODE BLOCK ADDRESS 0x16c8 ===
  0x16c8	test   	edx, edx
  0x16ca	jne    	0x1737
  === BLOCK LINK ===
    0x16cc
=== CODE BLOCK END ===

=== CODE BLOCK ADDRESS 0x16cc ===
  0x16cc	sub    	ax, bx
  0x16cf	cmp    	ax, di
  0x16d2	ja     	0x16e2
  === BLOCK LINK ===
    0x16d4
=== CODE BLOCK END ===

=== CODE BLOCK ADDRESS 0x16d4 ===
  0x16d4	dec    	eax
  0x16d5	add    	ecx, 2
  0x16d8	dec    	eax
  0x16d9	mov    	dword ptr [esp + 0x28], ecx
  0x16dd	movzx  	eax, word ptr [ecx]
  === BLOCK LINK ===
    0x16e0
=== CODE BLOCK END ===

=== CODE BLOCK ADDRESS 0x16e0 ===
  0x16e0	jmp    	0x16cc
  === BLOCK LINK ===
    0x16e2
=== CODE BLOCK END ===

=== CODE BLOCK ADDRESS 0x16e2 ===
  0x16e2	test   	byte ptr [esp + 0x7c], bl
  0x16e6	movzx  	eax, word ptr [esp + 0x80]
  0x16ee	inc    	ecx
  0x16ef	mov    	ecx, 0xa
  0x16f4	inc    	esp
  === BLOCK LINK ===
    0x16f5
=== CODE BLOCK END ===

=== CODE BLOCK ADDRESS 0x16f5 ===
  0x16f5	cmovne  	ecx, eax
  0x16f8	dec    	esp
  0x16f9	mov    	eax, ecx
  0x16fb	xor    	edx, edx
  0x16fd	dec    	eax
  === BLOCK LINK ===
    0x16fe
=== CODE BLOCK END ===

=== CODE BLOCK ADDRESS 0x16fe ===
  0x16fe	lea    	ecx, [0xffffe8fc]
  0x1704	call   	0x11d0
  === BLOCK LINK ===
    0x1709
=== CODE BLOCK END ===

=== CODE BLOCK ADDRESS 0x1709 ===
  0x1709	mov    	dword ptr [0x1981], eax
  0x170f	inc    	esp
  0x1710	cmp    	dword ptr [0x199a], esi
  0x1716	jne    	0x1720
  === BLOCK LINK ===
    0x1718
=== CODE BLOCK END ===

=== CODE BLOCK ADDRESS 0x1718 ===
  0x1718	mov    	ecx, eax
  0x171a	call   	dword ptr [0xb90]
  === BLOCK LINK ===
    0x1720
=== CODE BLOCK END ===

=== CODE BLOCK ADDRESS 0x1720 ===
  0x1720	inc    	esp
  0x1721	cmp    	dword ptr [0x196d], esi
  0x1727	jne    	0x1735
  === BLOCK LINK ===
    0x1729
=== CODE BLOCK END ===

=== CODE BLOCK ADDRESS 0x1729 ===
  0x1729	call   	dword ptr [0xb31]
  === BLOCK LINK ===
    0x172f
=== CODE BLOCK END ===

=== CODE BLOCK ADDRESS 0x172f ===
  0x172f	mov    	eax, dword ptr [0x195b]
  0x1735	jmp    	0x1786
  === BLOCK LINK ===
    0x1737
=== CODE BLOCK END ===

=== CODE BLOCK ADDRESS 0x1737 ===
  0x1737	cmp    	ax, 0x22
  0x173b	jne    	0x174b
  === BLOCK LINK ===
    0x173d
=== CODE BLOCK END ===

=== CODE BLOCK ADDRESS 0x173d ===
  0x173d	inc    	ecx
  0x173e	mov    	eax, esi
  0x1740	test   	edx, edx
  0x1742	sete   	al
  0x1745	mov    	edx, eax
  === BLOCK LINK ===
    0x1747
=== CODE BLOCK END ===

=== CODE BLOCK ADDRESS 0x1747 ===
  0x1747	mov    	dword ptr [esp + 0x20], eax
  0x174b	dec    	eax
  0x174c	add    	ecx, 2
  0x174f	dec    	eax
  0x1750	mov    	dword ptr [esp + 0x28], ecx
  === BLOCK LINK ===
    0x1754
=== CODE BLOCK END ===

=== CODE BLOCK ADDRESS 0x1754 ===
  0x1754	jmp    	0x16ba
  === BLOCK LINK ===
    0x1759
=== CODE BLOCK END ===

=== CODE BLOCK ADDRESS 0x1759 ===
  0x1759	mov    	dword ptr [0x1931], eax
  0x175f	cmp    	dword ptr [0x194a], 0
  0x1766	jne    	0x1771
  === BLOCK LINK ===
    0x1768
=== CODE BLOCK END ===

=== CODE BLOCK ADDRESS 0x1768 ===
  0x1768	mov    	ecx, eax
  0x176a	call   	dword ptr [0xb20]
  === BLOCK LINK ===
    0x1770
=== CODE BLOCK END ===

=== CODE BLOCK ADDRESS 0x1770 ===
  0x1770	int3   	
  0x1771	cmp    	dword ptr [0x191c], 0
  0x1778	jne    	0x1786
  === BLOCK LINK ===
    0x177a
=== CODE BLOCK END ===

=== CODE BLOCK ADDRESS 0x177a ===
  0x177a	call   	dword ptr [0xae0]
  === BLOCK LINK ===
    0x1780
=== CODE BLOCK END ===

=== CODE BLOCK ADDRESS 0x1780 ===
  0x1780	mov    	eax, dword ptr [0x190a]
  0x1786	dec    	esp
  0x1787	lea    	ebx, [esp + 0xb0]
  0x178e	dec    	ecx
  0x178f	mov    	ebx, dword ptr [ebx + 0x10]
  === BLOCK LINK ===
    0x1792
=== CODE BLOCK END ===

=== CODE BLOCK ADDRESS 0x1792 ===
  0x1792	dec    	ecx
  0x1793	mov    	esi, dword ptr [ebx + 0x18]
  0x1796	dec    	ecx
  0x1797	mov    	edi, dword ptr [ebx + 0x20]
  0x179a	dec    	ebp
  === BLOCK LINK ===
    0x179b
=== CODE BLOCK END ===

=== CODE BLOCK ADDRESS 0x179b ===
  0x179b	mov    	esi, dword ptr [ebx + 0x28]
  0x179e	dec    	ecx
  0x179f	mov    	esp, ebx
  0x17a1	inc    	ecx
  0x17a2	pop    	edi
  === BLOCK LINK ===
    0x17a3
=== CODE BLOCK END ===

=== CODE BLOCK ADDRESS 0x17a3 ===
  0x17a3	ret    	
  0x17a4	int3   	
  0x17a5	int3   	
  0x17a6	int3   	
  0x17a7	int3   	
  === BLOCK LINK ===
    0x17a8
=== CODE BLOCK END ===

=== CODE BLOCK ADDRESS 0x17a8 ===
  0x17a8	int3   	
  0x17a9	int3   	
  0x17aa	int3   	
  0x17ab	int3   	
  0x17ac	int3   	
  === BLOCK LINK ===
    0x17ad
=== CODE BLOCK END ===

=== CODE BLOCK ADDRESS 0x17ad ===
  0x17ad	int3   	
  0x17ae	int3   	
  0x17af	int3   	
  0x17b0	dec    	eax
  0x17b1	sub    	esp, 0x28
  === BLOCK LINK ===
    0x17b4
=== CODE BLOCK END ===

=== CODE BLOCK ADDRESS 0x17b4 ===
  0x17b4	call   	0x1a64
  === BLOCK LINK ===
    0x17b9
=== CODE BLOCK END ===

=== CODE BLOCK ADDRESS 0x17b9 ===
  0x17b9	dec    	eax
  0x17ba	add    	esp, 0x28
  0x17bd	jmp    	0x1540
  === BLOCK LINK ===
    0x17c2
=== CODE BLOCK END ===

=== CODE BLOCK ADDRESS 0x17c2 ===
  0x17c2	int3   	
  0x17c3	int3   	
  0x17c4	int3   	
  0x17c5	int3   	
  0x17c6	int3   	
  === BLOCK LINK ===
    0x17c7
=== CODE BLOCK END ===

=== CODE BLOCK ADDRESS 0x17c7 ===
  0x17c7	int3   	
  0x17c8	int3   	
  0x17c9	int3   	
  0x17ca	int3   	
  0x17cb	int3   	
  === BLOCK LINK ===
    0x17cc
=== CODE BLOCK END ===

=== CODE BLOCK ADDRESS 0x17cc ===
  0x17cc	int3   	
  0x17cd	int3   	
  0x17ce	int3   	
  0x17cf	int3   	
  0x17d0	int3   	
  === BLOCK LINK ===
    0x17d1
=== CODE BLOCK END ===

=== CODE BLOCK ADDRESS 0x17d1 ===
  0x17d1	int3   	
  0x17d2	int3   	
  0x17d3	int3   	
  0x17d4	int3   	
  0x17d5	int3   	
  === BLOCK LINK ===
    0x17d6
=== CODE BLOCK END ===

=== CODE BLOCK ADDRESS 0x17d6 ===
  0x17d6	nop    	word ptr [eax + eax]
  === BLOCK LINK ===
    0x17e0
=== CODE BLOCK END ===

=== CODE BLOCK ADDRESS 0x17e9 ===
  0x17e9	dec    	eax
  0x17ea	rol    	ecx, 0x10
  0x17ed	test   	cx, 0xffff
  0x17f2	jne    	0x17f5
  === BLOCK LINK ===
    0x17f4
=== CODE BLOCK END ===

=== CODE BLOCK ADDRESS 0x17f4 ===
  0x17f4	ret    	
  0x17f5	dec    	eax
  0x17f6	ror    	ecx, 0x10
  0x17f9	jmp    	0x1bb0
  === BLOCK LINK ===
    0x17fe
=== CODE BLOCK END ===

=== CODE BLOCK ADDRESS 0x17fe ===
  0x17fe	int3   	
  0x17ff	int3   	
  0x1800	int3   	
  0x1801	int3   	
  0x1802	int3   	
  === BLOCK LINK ===
    0x1803
=== CODE BLOCK END ===

=== CODE BLOCK ADDRESS 0x1803 ===
  0x1803	int3   	
  0x1804	int3   	
  0x1805	int3   	
  0x1806	int3   	
  0x1807	int3   	
  === BLOCK LINK ===
    0x1808
=== CODE BLOCK END ===

=== CODE BLOCK ADDRESS 0x1808 ===
  0x1808	int3   	
  0x1809	int3   	
  0x180a	int3   	
  0x180b	int3   	
  0x180c	int3   	
  === BLOCK LINK ===
    0x180d
=== CODE BLOCK END ===

=== CODE BLOCK ADDRESS 0x180d ===
  0x180d	int3   	
  0x180e	int3   	
  0x180f	int3   	
  0x1810	dec    	eax
  0x1811	mov    	dword ptr [esp + 8], ebx
  === BLOCK LINK ===
    0x1815
=== CODE BLOCK END ===

=== CODE BLOCK ADDRESS 0x1815 ===
  0x1815	push   	edi
  0x1816	dec    	eax
  0x1817	sub    	esp, 0x20
  0x181a	mov    	ebx, edx
  0x181c	dec    	eax
  === BLOCK LINK ===
    0x181d
=== CODE BLOCK END ===

=== CODE BLOCK ADDRESS 0x181d ===
  0x181d	mov    	edi, ecx
  0x181f	call   	dword ptr [0xa7b]
  === BLOCK LINK ===
    0x1825
=== CODE BLOCK END ===

=== CODE BLOCK ADDRESS 0x1825 ===
  0x1825	test   	bl, 1
  0x1828	je     	0x1832
  === BLOCK LINK ===
    0x182a
=== CODE BLOCK END ===

=== CODE BLOCK ADDRESS 0x182a ===
  0x182a	dec    	eax
  0x182b	mov    	ecx, edi
  0x182d	call   	0x13f8
  === BLOCK LINK ===
    0x1832
=== CODE BLOCK END ===

=== CODE BLOCK ADDRESS 0x1832 ===
  0x1832	dec    	eax
  0x1833	mov    	ebx, dword ptr [esp + 0x30]
  0x1837	dec    	eax
  0x1838	mov    	eax, edi
  0x183a	dec    	eax
  === BLOCK LINK ===
    0x183b
=== CODE BLOCK END ===

=== CODE BLOCK ADDRESS 0x183b ===
  0x183b	add    	esp, 0x20
  0x183e	pop    	edi
  0x183f	ret    	
  0x1840	int3   	
  0x1841	int3   	
  === BLOCK LINK ===
    0x1842
=== CODE BLOCK END ===

=== CODE BLOCK ADDRESS 0x1842 ===
  0x1842	int3   	
  0x1843	int3   	
  0x1844	int3   	
  0x1845	int3   	
  0x1846	int3   	
  === BLOCK LINK ===
    0x1847
=== CODE BLOCK END ===

=== CODE BLOCK ADDRESS 0x1847 ===
  0x1847	int3   	
  0x1848	int3   	
  0x1849	int3   	
  0x184a	int3   	
  0x184b	int3   	
  === BLOCK LINK ===
    0x184c
=== CODE BLOCK END ===

=== CODE BLOCK ADDRESS 0x184c ===
  0x184c	int3   	
  0x184d	int3   	
  0x184e	int3   	
  0x184f	int3   	
  0x1850	dec    	eax
  === BLOCK LINK ===
    0x1851
=== CODE BLOCK END ===

=== CODE BLOCK ADDRESS 0x1851 ===
  0x1851	sub    	esp, 0x28
  0x1854	dec    	eax
  0x1855	mov    	eax, dword ptr [ecx]
  0x1857	cmp    	dword ptr [eax], 0xe06d7363
  0x185d	jne    	0x1882
  === BLOCK LINK ===
    0x185f
=== CODE BLOCK END ===

=== CODE BLOCK ADDRESS 0x185f ===
  0x185f	cmp    	dword ptr [eax + 0x18], 4
  0x1863	jne    	0x1882
  === BLOCK LINK ===
    0x1865
=== CODE BLOCK END ===

=== CODE BLOCK ADDRESS 0x1865 ===
  0x1865	mov    	ecx, dword ptr [eax + 0x20]
  0x1868	lea    	eax, [ecx - 0x19930520]
  0x186e	cmp    	eax, 2
  0x1871	jbe    	0x187b
  === BLOCK LINK ===
    0x1873
=== CODE BLOCK END ===

=== CODE BLOCK ADDRESS 0x1873 ===
  0x1873	cmp    	ecx, 0x1994000
  0x1879	jne    	0x1882
  === BLOCK LINK ===
    0x187b
=== CODE BLOCK END ===

=== CODE BLOCK ADDRESS 0x187b ===
  0x187b	call   	dword ptr [0xa17]
  === BLOCK LINK ===
    0x1881
=== CODE BLOCK END ===

=== CODE BLOCK ADDRESS 0x1881 ===
  0x1881	int3   	
  0x1882	xor    	eax, eax
  0x1884	dec    	eax
  0x1885	add    	esp, 0x28
  0x1888	ret    	
  === BLOCK LINK ===
    0x1889
=== CODE BLOCK END ===

=== CODE BLOCK ADDRESS 0x1889 ===
  0x1889	int3   	
  0x188a	int3   	
  0x188b	int3   	
  0x188c	int3   	
  0x188d	int3   	
  === BLOCK LINK ===
    0x188e
=== CODE BLOCK END ===

=== CODE BLOCK ADDRESS 0x188e ===
  0x188e	int3   	
  0x188f	int3   	
  0x1890	dec    	eax
  0x1891	sub    	esp, 0x28
  0x1894	dec    	eax
  === BLOCK LINK ===
    0x1895
=== CODE BLOCK END ===

=== CODE BLOCK ADDRESS 0x1895 ===
  0x1895	lea    	ecx, [0xffffffb5]
  0x189b	call   	dword ptr [0x97f]
  === BLOCK LINK ===
    0x18a1
=== CODE BLOCK END ===

=== CODE BLOCK ADDRESS 0x18a1 ===
  0x18a1	xor    	eax, eax
  0x18a3	dec    	eax
  0x18a4	add    	esp, 0x28
  0x18a7	ret    	
  0x18a8	int3   	
  === BLOCK LINK ===
    0x18a9
=== CODE BLOCK END ===

=== CODE BLOCK ADDRESS 0x18a9 ===
  0x18a9	int3   	
  0x18aa	int3   	
  0x18ab	int3   	
  0x18ac	int3   	
  0x18ad	int3   	
  === BLOCK LINK ===
    0x18ae
=== CODE BLOCK END ===

=== CODE BLOCK ADDRESS 0x18ae ===
  0x18ae	jmp    	dword ptr [0xa0c]
  === BLOCK LINK ===
    0x18b4
=== CODE BLOCK END ===

=== CODE BLOCK ADDRESS 0x18b4 ===
  0x18b4	int3   	
  0x18b5	int3   	
  0x18b6	int3   	
  0x18b7	int3   	
  0x18b8	int3   	
  === BLOCK LINK ===
    0x18b9
=== CODE BLOCK END ===

=== CODE BLOCK ADDRESS 0x18b9 ===
  0x18b9	int3   	
  0x18ba	int3   	
  0x18bb	int3   	
  0x18bc	dec    	eax
  0x18bd	sub    	esp, 0x18
  === BLOCK LINK ===
    0x18c0
=== CODE BLOCK END ===

=== CODE BLOCK ADDRESS 0x18c0 ===
  0x18c0	xor    	edx, edx
  0x18c2	dec    	eax
  0x18c3	lea    	eax, [ecx - 1]
  0x18c6	dec    	eax
  0x18c7	cmp    	eax, -3
  === BLOCK LINK ===
    0x18ca
=== CODE BLOCK END ===

=== CODE BLOCK ADDRESS 0x18ca ===
  0x18ca	ja     	0x1908
  === BLOCK LINK ===
    0x18cc
=== CODE BLOCK END ===

=== CODE BLOCK ADDRESS 0x18cc ===
  0x18cc	mov    	eax, 0x5a4d
  0x18d1	cmp    	word ptr [ecx], ax
  0x18d4	jne    	0x1900
  === BLOCK LINK ===
    0x18d6
=== CODE BLOCK END ===

=== CODE BLOCK ADDRESS 0x18d6 ===
  0x18d6	cmp    	dword ptr [ecx + 0x3c], edx
  0x18d9	jl     	0x1900
  === BLOCK LINK ===
    0x18db
=== CODE BLOCK END ===

=== CODE BLOCK ADDRESS 0x18db ===
  0x18db	cmp    	dword ptr [ecx + 0x3c], 0x10000000
  0x18e2	jae    	0x1900
  === BLOCK LINK ===
    0x18e4
=== CODE BLOCK END ===

=== CODE BLOCK ADDRESS 0x18e4 ===
  0x18e4	dec    	eax
  0x18e5	arpl   	word ptr [ecx + 0x3c], ax
  0x18e8	dec    	eax
  0x18e9	add    	eax, ecx
  0x18eb	dec    	eax
  === BLOCK LINK ===
    0x18ec
=== CODE BLOCK END ===

=== CODE BLOCK ADDRESS 0x18ec ===
  0x18ec	mov    	dword ptr [esp], eax
  0x18ef	cmp    	dword ptr [eax], 0x4550
  0x18f5	dec    	eax
  0x18f6	cmovne  	eax, edx
  0x18f9	dec    	eax
  === BLOCK LINK ===
    0x18fa
=== CODE BLOCK END ===

=== CODE BLOCK ADDRESS 0x18fa ===
  0x18fa	mov    	edx, eax
  0x18fc	dec    	eax
  0x18fd	mov    	dword ptr [esp], eax
  0x1900	jmp    	0x1908
  === BLOCK LINK ===
    0x1902
=== CODE BLOCK END ===

=== CODE BLOCK ADDRESS 0x1902 ===
  0x1902	xor    	edx, edx
  0x1904	dec    	eax
  0x1905	mov    	dword ptr [esp], edx
  0x1908	dec    	eax
  0x1909	mov    	eax, edx
  === BLOCK LINK ===
    0x190b
=== CODE BLOCK END ===

=== CODE BLOCK ADDRESS 0x190b ===
  0x190b	dec    	eax
  0x190c	add    	esp, 0x18
  0x190f	ret    	
  0x1910	int3   	
  0x1911	int3   	
  === BLOCK LINK ===
    0x1912
=== CODE BLOCK END ===

=== CODE BLOCK ADDRESS 0x17e0 ===
  0x17e0	dec    	eax
  0x17e1	cmp    	ecx, dword ptr [0x1891]
  0x17e7	jne    	0x17f9
  === BLOCK LINK ===
    0x17e9
=== CODE BLOCK END ===

=== CODE BLOCK ADDRESS 0x1912 ===
  0x1912	int3   	
  0x1913	int3   	
  0x1914	int3   	
  0x1915	int3   	
  0x1916	int3   	
  === BLOCK LINK ===
    0x1917
=== CODE BLOCK END ===

=== CODE BLOCK ADDRESS 0x1917 ===
  0x1917	int3   	
  0x1918	inc    	eax
  0x1919	push   	ebx
  0x191a	dec    	eax
  0x191b	sub    	esp, 0x20
  === BLOCK LINK ===
    0x191e
=== CODE BLOCK END ===

=== CODE BLOCK ADDRESS 0x191e ===
  0x191e	mov    	ebx, ecx
  0x1920	xor    	ecx, ecx
  0x1922	call   	dword ptr [0x8f0]
  === BLOCK LINK ===
    0x1928
=== CODE BLOCK END ===

=== CODE BLOCK ADDRESS 0x1928 ===
  0x1928	dec    	eax
  0x1929	test   	eax, eax
  0x192b	je     	0x1955
  === BLOCK LINK ===
    0x192d
=== CODE BLOCK END ===

=== CODE BLOCK ADDRESS 0x192d ===
  0x192d	dec    	eax
  0x192e	mov    	ecx, eax
  0x1930	call   	0x18bc
  === BLOCK LINK ===
    0x1935
=== CODE BLOCK END ===

=== CODE BLOCK ADDRESS 0x1935 ===
  0x1935	dec    	eax
  0x1936	test   	eax, eax
  0x1938	je     	0x1955
  === BLOCK LINK ===
    0x193a
=== CODE BLOCK END ===

=== CODE BLOCK ADDRESS 0x193a ===
  0x193a	mov    	ecx, 2
  0x193f	cmp    	word ptr [eax + 0x5c], cx
  0x1943	jne    	0x1949
  === BLOCK LINK ===
    0x1945
=== CODE BLOCK END ===

=== CODE BLOCK ADDRESS 0x1945 ===
  0x1945	mov    	eax, ecx
  0x1947	jmp    	0x1957
  === BLOCK LINK ===
    0x1949
=== CODE BLOCK END ===

=== CODE BLOCK ADDRESS 0x1949 ===
  0x1949	cmp    	word ptr [eax + 0x5c], 3
  0x194e	mov    	eax, 1
  0x1953	je     	0x1957
  === BLOCK LINK ===
    0x1955
=== CODE BLOCK END ===

=== CODE BLOCK ADDRESS 0x1955 ===
  0x1955	mov    	eax, ebx
  0x1957	dec    	eax
  0x1958	add    	esp, 0x20
  0x195b	pop    	ebx
  0x195c	ret    	
  === BLOCK LINK ===
    0x195d
=== CODE BLOCK END ===

=== CODE BLOCK ADDRESS 0x195d ===
  0x195d	int3   	
  0x195e	int3   	
  0x195f	int3   	
  0x1960	int3   	
  0x1961	int3   	
  === BLOCK LINK ===
    0x1962
=== CODE BLOCK END ===

=== CODE BLOCK ADDRESS 0x1962 ===
  0x1962	int3   	
  0x1963	jmp    	dword ptr [0x93f]
  === BLOCK LINK ===
    0x1969
=== CODE BLOCK END ===

=== CODE BLOCK ADDRESS 0x1969 ===
  0x1969	int3   	
  0x196a	int3   	
  0x196b	int3   	
  0x196c	int3   	
  0x196d	int3   	
  === BLOCK LINK ===
    0x196e
=== CODE BLOCK END ===

=== CODE BLOCK ADDRESS 0x196e ===
  0x196e	int3   	
  0x196f	int3   	
  0x1970	xor    	eax, eax
  0x1972	ret    	
  0x1973	int3   	
  === BLOCK LINK ===
    0x1974
=== CODE BLOCK END ===

=== CODE BLOCK ADDRESS 0x1974 ===
  0x1974	int3   	
  0x1975	int3   	
  0x1976	int3   	
  0x1977	int3   	
  0x1978	int3   	
  === BLOCK LINK ===
    0x1979
=== CODE BLOCK END ===

=== CODE BLOCK ADDRESS 0x1979 ===
  0x1979	int3   	
  0x197a	int3   	
  0x197b	int3   	
  0x197c	int3   	
  0x197d	int3   	
  === BLOCK LINK ===
    0x197e
=== CODE BLOCK END ===

=== CODE BLOCK ADDRESS 0x197e ===
  0x197e	int3   	
  0x197f	int3   	
  0x1980	dec    	esp
  0x1981	arpl   	word ptr [ecx + 0x3c], ax
  0x1984	inc    	ebp
  === BLOCK LINK ===
    0x1985
=== CODE BLOCK END ===

=== CODE BLOCK ADDRESS 0x1985 ===
  0x1985	xor    	ecx, ecx
  0x1987	dec    	esp
  0x1988	add    	eax, ecx
  0x198a	dec    	esp
  0x198b	mov    	edx, edx
  === BLOCK LINK ===
    0x198d
=== CODE BLOCK END ===

=== CODE BLOCK ADDRESS 0x198d ===
  0x198d	inc    	ecx
  0x198e	movzx  	eax, word ptr [eax + 0x14]
  0x1992	inc    	ebp
  0x1993	movzx  	ebx, word ptr [eax + 6]
  0x1997	dec    	eax
  === BLOCK LINK ===
    0x1998
=== CODE BLOCK END ===

=== CODE BLOCK ADDRESS 0x1998 ===
  0x1998	add    	eax, 0x18
  0x199b	dec    	ecx
  0x199c	add    	eax, eax
  0x199e	inc    	ebp
  0x199f	test   	ebx, ebx
  === BLOCK LINK ===
    0x19a1
=== CODE BLOCK END ===

=== CODE BLOCK ADDRESS 0x19a1 ===
  0x19a1	je     	0x19c1
  === BLOCK LINK ===
    0x19a3
=== CODE BLOCK END ===

=== CODE BLOCK ADDRESS 0x19a3 ===
  0x19a3	mov    	edx, dword ptr [eax + 0xc]
  0x19a6	dec    	esp
  0x19a7	cmp    	edx, edx
  0x19a9	jb     	0x19b5
  === BLOCK LINK ===
    0x19ab
=== CODE BLOCK END ===

=== CODE BLOCK ADDRESS 0x19ab ===
  0x19ab	mov    	ecx, dword ptr [eax + 8]
  0x19ae	add    	ecx, edx
  0x19b0	dec    	esp
  0x19b1	cmp    	edx, ecx
  0x19b3	jb     	0x19c3
  === BLOCK LINK ===
    0x19b5
=== CODE BLOCK END ===

=== CODE BLOCK ADDRESS 0x19b5 ===
  0x19b5	inc    	ecx
  0x19b6	inc    	ecx
  0x19b8	dec    	eax
  0x19b9	add    	eax, 0x28
  0x19bc	inc    	ebp
  === BLOCK LINK ===
    0x19bd
=== CODE BLOCK END ===

=== CODE BLOCK ADDRESS 0x19bd ===
  0x19bd	cmp    	ecx, ebx
  0x19bf	jb     	0x19a3
  === BLOCK LINK ===
    0x19c1
=== CODE BLOCK END ===

=== CODE BLOCK ADDRESS 0x19c1 ===
  0x19c1	xor    	eax, eax
  0x19c3	ret    	
  0x19c4	int3   	
  0x19c5	int3   	
  0x19c6	int3   	
  === BLOCK LINK ===
    0x19c7
=== CODE BLOCK END ===

=== CODE BLOCK ADDRESS 0x1008 ===
  0x1008	dec    	eax
  0x1009	mov    	dword ptr [esp + 8], ebx
  === BLOCK LINK ===
    0x100d
=== CODE BLOCK END ===

=== CODE BLOCK ADDRESS 0x19c7 ===
  0x19c7	int3   	
  0x19c8	int3   	
  0x19c9	int3   	
  0x19ca	int3   	
  0x19cb	int3   	
  === BLOCK LINK ===
    0x19cc
=== CODE BLOCK END ===

=== CODE BLOCK ADDRESS 0x19cc ===
  0x19cc	int3   	
  0x19cd	int3   	
  0x19ce	int3   	
  0x19cf	int3   	
  0x19d0	dec    	eax
  === BLOCK LINK ===
    0x19d1
=== CODE BLOCK END ===

=== CODE BLOCK ADDRESS 0x19d1 ===
  0x19d1	mov    	dword ptr [esp + 8], ebx
  0x19d5	push   	edi
  0x19d6	dec    	eax
  0x19d7	sub    	esp, 0x20
  0x19da	dec    	eax
  === BLOCK LINK ===
    0x19db
=== CODE BLOCK END ===

=== CODE BLOCK ADDRESS 0x19db ===
  0x19db	mov    	ebx, ecx
  0x19dd	dec    	eax
  0x19de	lea    	edi, [0xffffe61c]
  0x19e4	dec    	eax
  0x19e5	mov    	ecx, edi
  === BLOCK LINK ===
    0x19e7
=== CODE BLOCK END ===

=== CODE BLOCK ADDRESS 0x19e7 ===
  0x19e7	call   	0x1a30
  === BLOCK LINK ===
    0x19ec
=== CODE BLOCK END ===

=== CODE BLOCK ADDRESS 0x19ec ===
  0x19ec	test   	eax, eax
  0x19ee	je     	0x1a12
  === BLOCK LINK ===
    0x19f0
=== CODE BLOCK END ===

=== CODE BLOCK ADDRESS 0x19f0 ===
  0x19f0	dec    	eax
  0x19f1	sub    	ebx, edi
  0x19f3	dec    	eax
  0x19f4	mov    	edx, ebx
  0x19f6	dec    	eax
  === BLOCK LINK ===
    0x19f7
=== CODE BLOCK END ===

=== CODE BLOCK ADDRESS 0x19f7 ===
  0x19f7	mov    	ecx, edi
  0x19f9	call   	0x1980
  === BLOCK LINK ===
    0x19fe
=== CODE BLOCK END ===

=== CODE BLOCK ADDRESS 0x19fe ===
  0x19fe	dec    	eax
  0x19ff	test   	eax, eax
  0x1a01	je     	0x1a12
  === BLOCK LINK ===
    0x1a03
=== CODE BLOCK END ===

=== CODE BLOCK ADDRESS 0x1a03 ===
  0x1a03	mov    	eax, dword ptr [eax + 0x24]
  0x1a06	shr    	eax, 0x1f
  0x1a09	not    	eax
  0x1a0b	and    	eax, 1
  0x1a0e	jmp    	0x1a12
  === BLOCK LINK ===
    0x1a10
=== CODE BLOCK END ===

=== CODE BLOCK ADDRESS 0x1a10 ===
  0x1a10	xor    	eax, eax
  0x1a12	dec    	eax
  0x1a13	mov    	ebx, dword ptr [esp + 0x30]
  0x1a17	dec    	eax
  0x1a18	add    	esp, 0x20
  === BLOCK LINK ===
    0x1a1b
=== CODE BLOCK END ===

=== CODE BLOCK ADDRESS 0x1a1b ===
  0x1a1b	pop    	edi
  0x1a1c	ret    	
  0x1a1d	int3   	
  0x1a1e	int3   	
  0x1a1f	int3   	
  === BLOCK LINK ===
    0x1a20
=== CODE BLOCK END ===

=== CODE BLOCK ADDRESS 0x126c ===
  0x126c	dec    	eax
  0x126d	mov    	edi, dword ptr [esp + 0x58]
  0x1271	mov    	eax, ebx
  0x1273	dec    	eax
  === BLOCK LINK ===
    0x1274
=== CODE BLOCK END ===

=== CODE BLOCK ADDRESS 0x1a20 ===
  0x1a20	int3   	
  0x1a21	int3   	
  0x1a22	int3   	
  0x1a23	int3   	
  0x1a24	int3   	
  === BLOCK LINK ===
    0x1a25
=== CODE BLOCK END ===

=== CODE BLOCK ADDRESS 0x1a25 ===
  0x1a25	int3   	
  0x1a26	int3   	
  0x1a27	int3   	
  0x1a28	int3   	
  0x1a29	int3   	
  === BLOCK LINK ===
    0x1a2a
=== CODE BLOCK END ===

=== CODE BLOCK ADDRESS 0x1a2a ===
  0x1a2a	int3   	
  0x1a2b	int3   	
  0x1a2c	int3   	
  0x1a2d	int3   	
  0x1a2e	int3   	
  === BLOCK LINK ===
    0x1a2f
=== CODE BLOCK END ===

=== CODE BLOCK ADDRESS 0x1a2f ===
  0x1a2f	int3   	
  0x1a30	mov    	eax, 0x5a4d
  0x1a35	cmp    	word ptr [ecx], ax
  0x1a38	jne    	0x1a5a
  === BLOCK LINK ===
    0x1a3a
=== CODE BLOCK END ===

=== CODE BLOCK ADDRESS 0x1a3a ===
  0x1a3a	dec    	eax
  0x1a3b	arpl   	word ptr [ecx + 0x3c], ax
  0x1a3e	dec    	eax
  0x1a3f	add    	eax, ecx
  0x1a41	cmp    	dword ptr [eax], 0x4550
  === BLOCK LINK ===
    0x1a47
=== CODE BLOCK END ===

=== CODE BLOCK ADDRESS 0x1a47 ===
  0x1a47	jne    	0x1a5a
  === BLOCK LINK ===
    0x1a49
=== CODE BLOCK END ===

=== CODE BLOCK ADDRESS 0x1a49 ===
  0x1a49	mov    	ecx, 0x20b
  0x1a4e	cmp    	word ptr [eax + 0x18], cx
  0x1a52	jne    	0x1a5a
  === BLOCK LINK ===
    0x1a54
=== CODE BLOCK END ===

=== CODE BLOCK ADDRESS 0x1a54 ===
  0x1a54	mov    	eax, 1
  0x1a59	ret    	
  0x1a5a	xor    	eax, eax
  0x1a5c	ret    	
  0x1a5d	int3   	
  === BLOCK LINK ===
    0x1a5e
=== CODE BLOCK END ===

=== CODE BLOCK ADDRESS 0x1355 ===
  0x1355	dec    	eax
  0x1356	mov    	dword ptr [ebx + 8], edi
  0x1359	dec    	eax
  0x135a	mov    	ebx, dword ptr [esp + 0x30]
  === BLOCK LINK ===
    0x135e
=== CODE BLOCK END ===

=== CODE BLOCK ADDRESS 0x1393 ===
  0x1393	dec    	eax
  0x1394	add    	esp, 0x20
  === BLOCK LINK ===
    0x1397
=== CODE BLOCK END ===

=== CODE BLOCK ADDRESS 0x1a5e ===
  0x1a5e	int3   	
  0x1a5f	int3   	
  0x1a60	int3   	
  0x1a61	int3   	
  0x1a62	int3   	
  === BLOCK LINK ===
    0x1a63
=== CODE BLOCK END ===

=== CODE BLOCK ADDRESS 0x1a63 ===
  0x1a63	int3   	
  0x1a64	dec    	eax
  0x1a65	mov    	dword ptr [esp + 0x20], ebx
  0x1a69	push   	ebp
  0x1a6a	dec    	eax
  === BLOCK LINK ===
    0x1a6b
=== CODE BLOCK END ===

=== CODE BLOCK ADDRESS 0x1a6b ===
  0x1a6b	mov    	ebp, esp
  0x1a6d	dec    	eax
  0x1a6e	sub    	esp, 0x20
  0x1a71	dec    	eax
  0x1a72	and    	dword ptr [ebp + 0x18], 0
  === BLOCK LINK ===
    0x1a76
=== CODE BLOCK END ===

=== CODE BLOCK ADDRESS 0x1a76 ===
  0x1a76	dec    	eax
  0x1a77	mov    	ebx, 0x2ddfa232
  0x1a7c	cdq    	
  0x1a7d	sub    	eax, dword ptr [eax]
  0x1a7f	add    	byte ptr [eax - 0x75], cl
  === BLOCK LINK ===
    0x1a82
=== CODE BLOCK END ===

=== CODE BLOCK ADDRESS 0x1a82 ===
  0x1a82	add    	eax, 0x15f1
  0x1a87	dec    	eax
  0x1a88	cmp    	eax, ebx
  0x1a8a	jne    	0x1b23
  === BLOCK LINK ===
    0x1a90
=== CODE BLOCK END ===

=== CODE BLOCK ADDRESS 0x1a90 ===
  0x1a90	dec    	eax
  0x1a91	lea    	ecx, [ebp + 0x18]
  0x1a94	call   	dword ptr [0x75e]
  === BLOCK LINK ===
    0x1a9a
=== CODE BLOCK END ===

=== CODE BLOCK ADDRESS 0x1a9a ===
  0x1a9a	dec    	eax
  0x1a9b	mov    	eax, dword ptr [ebp + 0x18]
  0x1a9e	dec    	eax
  0x1a9f	mov    	dword ptr [ebp + 0x10], eax
  0x1aa2	call   	dword ptr [0x760]
  === BLOCK LINK ===
    0x1aa8
=== CODE BLOCK END ===

=== CODE BLOCK ADDRESS 0x1aa8 ===
  0x1aa8	mov    	eax, eax
  0x1aaa	dec    	eax
  0x1aab	xor    	dword ptr [ebp + 0x10], eax
  0x1aae	call   	dword ptr [0x74c]
  === BLOCK LINK ===
    0x1ab4
=== CODE BLOCK END ===

=== CODE BLOCK ADDRESS 0x1ab4 ===
  0x1ab4	mov    	eax, eax
  0x1ab6	dec    	eax
  0x1ab7	xor    	dword ptr [ebp + 0x10], eax
  0x1aba	call   	dword ptr [0x730]
  === BLOCK LINK ===
    0x1ac0
=== CODE BLOCK END ===

=== CODE BLOCK ADDRESS 0x1ac0 ===
  0x1ac0	mov    	eax, eax
  0x1ac2	dec    	eax
  0x1ac3	shl    	eax, 0x18
  0x1ac6	dec    	eax
  0x1ac7	xor    	dword ptr [ebp + 0x10], eax
  === BLOCK LINK ===
    0x1aca
=== CODE BLOCK END ===

=== CODE BLOCK ADDRESS 0x1aca ===
  0x1aca	call   	dword ptr [0x720]
  === BLOCK LINK ===
    0x1ad0
=== CODE BLOCK END ===

=== CODE BLOCK ADDRESS 0x1ad0 ===
  0x1ad0	mov    	eax, eax
  0x1ad2	dec    	eax
  0x1ad3	lea    	ecx, [ebp + 0x10]
  0x1ad6	dec    	eax
  0x1ad7	xor    	eax, dword ptr [ebp + 0x10]
  === BLOCK LINK ===
    0x1ada
=== CODE BLOCK END ===

=== CODE BLOCK ADDRESS 0x1ada ===
  0x1ada	dec    	eax
  0x1adb	xor    	eax, ecx
  0x1add	dec    	eax
  0x1ade	lea    	ecx, [ebp + 0x20]
  0x1ae1	dec    	eax
  === BLOCK LINK ===
    0x1ae2
=== CODE BLOCK END ===

=== CODE BLOCK ADDRESS 0x1ae2 ===
  0x1ae2	mov    	dword ptr [ebp + 0x10], eax
  0x1ae5	call   	dword ptr [0x725]
  === BLOCK LINK ===
    0x1aeb
=== CODE BLOCK END ===

=== CODE BLOCK ADDRESS 0x1aeb ===
  0x1aeb	mov    	eax, dword ptr [ebp + 0x20]
  0x1aee	dec    	eax
  0x1aef	mov    	ecx, 0xffffffff
  0x1af4	.byte  	0xff
  0x1af5	inc    	dword ptr [eax]
  === BLOCK LINK ===
    0x1af7
=== CODE BLOCK END ===

=== CODE BLOCK ADDRESS 0x1af7 ===
  0x1af7	add    	byte ptr [eax - 0x3f], cl
  0x1afa	loopne  	0x1b1c
  === BLOCK LINK ===
    0x1afc
=== CODE BLOCK END ===

=== CODE BLOCK ADDRESS 0x1afc ===
  0x1afc	dec    	eax
  0x1afd	xor    	eax, dword ptr [ebp + 0x20]
  0x1b00	dec    	eax
  0x1b01	xor    	eax, dword ptr [ebp + 0x10]
  0x1b04	dec    	eax
  === BLOCK LINK ===
    0x1b05
=== CODE BLOCK END ===

=== CODE BLOCK ADDRESS 0x1b05 ===
  0x1b05	and    	eax, ecx
  0x1b07	dec    	eax
  0x1b08	mov    	ecx, eax
  0x1b0a	dec    	eax
  0x1b0b	cmp    	eax, ebx
  === BLOCK LINK ===
    0x1b0d
=== CODE BLOCK END ===

=== CODE BLOCK ADDRESS 0x1b0d ===
  0x1b0d	jne    	0x1b1c
  === BLOCK LINK ===
    0x1b0f
=== CODE BLOCK END ===

=== CODE BLOCK ADDRESS 0x1b0f ===
  0x1b0f	dec    	eax
  0x1b10	mov    	eax, 0x2ddfa233
  0x1b15	cdq    	
  0x1b16	sub    	eax, dword ptr [eax]
  0x1b18	add    	byte ptr [eax - 0x75], cl
  === BLOCK LINK ===
    0x1b1b
=== CODE BLOCK END ===

=== CODE BLOCK ADDRESS 0x1b1b ===
  0x1b1b	enter  	-0x76b8, 0xd
  0x1b1f	push   	ebp
  0x1b20	adc    	eax, 0x8b480000
  0x1b25	pop    	esp
  0x1b26	and    	al, 0x48
  === BLOCK LINK ===
    0x1b28
=== CODE BLOCK END ===

=== CODE BLOCK ADDRESS 0x1b28 ===
  0x1b28	dec    	eax
  0x1b29	not    	eax
  0x1b2b	dec    	eax
  0x1b2c	mov    	dword ptr [0x154e], eax
  0x1b32	dec    	eax
  === BLOCK LINK ===
    0x1b33
=== CODE BLOCK END ===

=== CODE BLOCK ADDRESS 0x1b33 ===
  0x1b33	add    	esp, 0x20
  0x1b36	pop    	ebp
  0x1b37	ret    	
  0x1b38	int3   	
  0x1b39	int3   	
  === BLOCK LINK ===
    0x1b3a
=== CODE BLOCK END ===

=== CODE BLOCK ADDRESS 0x13d3 ===
  0x13d3	inc    	eax
  0x13d4	test   	bh, 1
  === BLOCK LINK ===
    0x13d7
=== CODE BLOCK END ===

=== CODE BLOCK ADDRESS 0x1b3a ===
  0x1b3a	int3   	
  0x1b3b	int3   	
  0x1b3c	int3   	
  0x1b3d	int3   	
  0x1b3e	jmp    	dword ptr [0x72c]
  === BLOCK LINK ===
    0x1b44
=== CODE BLOCK END ===

=== CODE BLOCK ADDRESS 0x1b44 ===
  0x1b44	int3   	
  0x1b45	int3   	
  0x1b46	int3   	
  0x1b47	int3   	
  0x1b48	int3   	
  === BLOCK LINK ===
    0x1b49
=== CODE BLOCK END ===

=== CODE BLOCK ADDRESS 0x1b49 ===
  0x1b49	int3   	
  0x1b4a	jmp    	dword ptr [0x790]
  === BLOCK LINK ===
    0x1b50
=== CODE BLOCK END ===

=== CODE BLOCK ADDRESS 0x1b50 ===
  0x1b50	int3   	
  0x1b51	int3   	
  0x1b52	int3   	
  0x1b53	int3   	
  0x1b54	int3   	
  === BLOCK LINK ===
    0x1b55
=== CODE BLOCK END ===

=== CODE BLOCK ADDRESS 0x1b55 ===
  0x1b55	int3   	
  0x1b56	int3   	
  0x1b57	int3   	
  0x1b58	int3   	
  0x1b59	int3   	
  === BLOCK LINK ===
    0x1b5a
=== CODE BLOCK END ===

=== CODE BLOCK ADDRESS 0x1b5a ===
  0x1b5a	int3   	
  0x1b5b	int3   	
  0x1b5c	int3   	
  0x1b5d	int3   	
  0x1b5e	int3   	
  === BLOCK LINK ===
    0x1b5f
=== CODE BLOCK END ===

=== CODE BLOCK ADDRESS 0x1b5f ===
  0x1b5f	int3   	
  0x1b60	ret    	0
  0x1b63	int3   	
  0x1b64	int3   	
  0x1b65	int3   	
  === BLOCK LINK ===
    0x1b66
=== CODE BLOCK END ===

=== CODE BLOCK ADDRESS 0x1b66 ===
  0x1b66	int3   	
  0x1b67	int3   	
  0x1b68	int3   	
  0x1b69	int3   	
  0x1b6a	int3   	
  === BLOCK LINK ===
    0x1b6b
=== CODE BLOCK END ===

=== CODE BLOCK ADDRESS 0x1b6b ===
  0x1b6b	int3   	
  0x1b6c	inc    	eax
  0x1b6d	push   	ebx
  0x1b6e	dec    	eax
  0x1b6f	sub    	esp, 0x20
  === BLOCK LINK ===
    0x1b72
=== CODE BLOCK END ===

=== CODE BLOCK ADDRESS 0x1b72 ===
  0x1b72	dec    	eax
  0x1b73	mov    	ebx, ecx
  0x1b75	xor    	ecx, ecx
  0x1b77	call   	dword ptr [0x6a3]
  === BLOCK LINK ===
    0x1b7d
=== CODE BLOCK END ===

=== CODE BLOCK ADDRESS 0x1b7d ===
  0x1b7d	dec    	eax
  0x1b7e	mov    	ecx, ebx
  0x1b80	call   	dword ptr [0x64a]
  === BLOCK LINK ===
    0x1b86
=== CODE BLOCK END ===

=== CODE BLOCK ADDRESS 0x1b86 ===
  0x1b86	call   	dword ptr [0x6b4]
  === BLOCK LINK ===
    0x1b8c
=== CODE BLOCK END ===

=== CODE BLOCK ADDRESS 0x1b8c ===
  0x1b8c	dec    	eax
  0x1b8d	mov    	ecx, eax
  0x1b8f	mov    	edx, 0xc0000409
  0x1b94	dec    	eax
  0x1b95	add    	esp, 0x20
  === BLOCK LINK ===
    0x1b98
=== CODE BLOCK END ===

=== CODE BLOCK ADDRESS 0x1b98 ===
  0x1b98	pop    	ebx
  0x1b99	dec    	eax
  0x1b9a	jmp    	dword ptr [0x698]
  === BLOCK LINK ===
    0x1ba0
=== CODE BLOCK END ===

=== CODE BLOCK ADDRESS 0x1ba0 ===
  0x1ba0	int3   	
  0x1ba1	int3   	
  0x1ba2	int3   	
  0x1ba3	int3   	
  0x1ba4	int3   	
  === BLOCK LINK ===
    0x1ba5
=== CODE BLOCK END ===

=== CODE BLOCK ADDRESS 0x1ba5 ===
  0x1ba5	int3   	
  0x1ba6	int3   	
  0x1ba7	int3   	
  0x1ba8	int3   	
  0x1ba9	int3   	
  === BLOCK LINK ===
    0x1baa
=== CODE BLOCK END ===

=== CODE BLOCK ADDRESS 0x1baa ===
  0x1baa	int3   	
  0x1bab	int3   	
  0x1bac	int3   	
  0x1bad	int3   	
  0x1bae	int3   	
  === BLOCK LINK ===
    0x1baf
=== CODE BLOCK END ===

=== CODE BLOCK ADDRESS 0x1baf ===
  0x1baf	int3   	
  0x1bb0	dec    	eax
  0x1bb1	mov    	dword ptr [esp + 8], ecx
  0x1bb5	dec    	eax
  0x1bb6	sub    	esp, 0x88
  === BLOCK LINK ===
    0x1bbc
=== CODE BLOCK END ===

=== CODE BLOCK ADDRESS 0x1bbc ===
  0x1bbc	dec    	eax
  0x1bbd	lea    	ecx, [0x15ad]
  0x1bc3	call   	dword ptr [0x61f]
  === BLOCK LINK ===
    0x1bc9
=== CODE BLOCK END ===

=== CODE BLOCK ADDRESS 0x1bc9 ===
  0x1bc9	dec    	eax
  0x1bca	mov    	eax, dword ptr [0x1698]
  0x1bd0	dec    	eax
  0x1bd1	mov    	dword ptr [esp + 0x48], eax
  0x1bd5	inc    	ebp
  === BLOCK LINK ===
    0x1bd6
=== CODE BLOCK END ===

=== CODE BLOCK ADDRESS 0x1bd6 ===
  0x1bd6	xor    	eax, eax
  0x1bd8	dec    	eax
  0x1bd9	lea    	edx, [esp + 0x50]
  0x1bdd	dec    	eax
  0x1bde	mov    	ecx, dword ptr [esp + 0x48]
  === BLOCK LINK ===
    0x1be2
=== CODE BLOCK END ===

=== CODE BLOCK ADDRESS 0x1be2 ===
  0x1be2	call   	dword ptr [0x5f8]
  === BLOCK LINK ===
    0x1be8
=== CODE BLOCK END ===

=== CODE BLOCK ADDRESS 0x1be8 ===
  0x1be8	dec    	eax
  0x1be9	mov    	dword ptr [esp + 0x40], eax
  0x1bed	dec    	eax
  0x1bee	cmp    	dword ptr [esp + 0x40], 0
  0x1bf3	je     	0x1c37
  === BLOCK LINK ===
    0x1bf5
=== CODE BLOCK END ===

=== CODE BLOCK ADDRESS 0x1bf5 ===
  0x1bf5	dec    	eax
  0x1bf6	mov    	dword ptr [esp + 0x38], 0
  0x1bfe	dec    	eax
  0x1bff	lea    	eax, [esp + 0x58]
  0x1c03	dec    	eax
  === BLOCK LINK ===
    0x1c04
=== CODE BLOCK END ===

=== CODE BLOCK ADDRESS 0x1c04 ===
  0x1c04	mov    	dword ptr [esp + 0x30], eax
  0x1c08	dec    	eax
  0x1c09	lea    	eax, [esp + 0x60]
  0x1c0d	dec    	eax
  0x1c0e	mov    	dword ptr [esp + 0x28], eax
  === BLOCK LINK ===
    0x1c12
=== CODE BLOCK END ===

=== CODE BLOCK ADDRESS 0x1c12 ===
  0x1c12	dec    	eax
  0x1c13	lea    	eax, [0x1557]
  0x1c19	dec    	eax
  0x1c1a	mov    	dword ptr [esp + 0x20], eax
  0x1c1e	dec    	esp
  === BLOCK LINK ===
    0x1c1f
=== CODE BLOCK END ===

=== CODE BLOCK ADDRESS 0x1c1f ===
  0x1c1f	mov    	ecx, dword ptr [esp + 0x40]
  0x1c23	dec    	esp
  0x1c24	mov    	eax, dword ptr [esp + 0x48]
  0x1c28	dec    	eax
  0x1c29	mov    	edx, dword ptr [esp + 0x50]
  === BLOCK LINK ===
    0x1c2d
=== CODE BLOCK END ===

=== CODE BLOCK ADDRESS 0x1c2d ===
  0x1c2d	xor    	ecx, ecx
  0x1c2f	call   	dword ptr [0x5a3]
  === BLOCK LINK ===
    0x1c35
=== CODE BLOCK END ===

=== CODE BLOCK ADDRESS 0x1c35 ===
  0x1c35	jmp    	0x1c5a
  === BLOCK LINK ===
    0x1c37
=== CODE BLOCK END ===

=== CODE BLOCK ADDRESS 0x1c37 ===
  0x1c37	dec    	eax
  0x1c38	mov    	eax, dword ptr [0x15ca]
  0x1c3e	dec    	eax
  0x1c3f	mov    	eax, dword ptr [eax]
  0x1c41	dec    	eax
  === BLOCK LINK ===
    0x1c42
=== CODE BLOCK END ===

=== CODE BLOCK ADDRESS 0x1c42 ===
  0x1c42	mov    	dword ptr [0x1620], eax
  0x1c48	dec    	eax
  0x1c49	mov    	eax, dword ptr [0x15b9]
  0x1c4f	dec    	eax
  0x1c50	add    	eax, 8
  === BLOCK LINK ===
    0x1c53
=== CODE BLOCK END ===

=== CODE BLOCK ADDRESS 0x1c53 ===
  0x1c53	dec    	eax
  0x1c54	mov    	dword ptr [0x15ae], eax
  0x1c5a	dec    	eax
  0x1c5b	mov    	eax, dword ptr [0x1607]
  0x1c61	dec    	eax
  === BLOCK LINK ===
    0x1c62
=== CODE BLOCK END ===

=== CODE BLOCK ADDRESS 0x1c62 ===
  0x1c62	mov    	dword ptr [0x1478], eax
  0x1c68	dec    	eax
  0x1c69	mov    	eax, dword ptr [esp + 0x90]
  0x1c70	dec    	eax
  0x1c71	mov    	dword ptr [0x1579], eax
  === BLOCK LINK ===
    0x1c77
=== CODE BLOCK END ===

=== CODE BLOCK ADDRESS 0x1c77 ===
  0x1c77	mov    	dword ptr [0x144f], 0xc0000409
  0x1c81	mov    	dword ptr [0x1449], 1
  0x1c8b	mov    	dword ptr [0x1453], 3
  0x1c95	mov    	eax, 8
  0x1c9a	dec    	eax
  === BLOCK LINK ===
    0x1c9b
=== CODE BLOCK END ===

=== CODE BLOCK ADDRESS 0x1c9b ===
  0x1c9b	imul   	eax, eax, 0
  0x1c9e	dec    	eax
  0x1c9f	lea    	ecx, [0x144b]
  0x1ca5	dec    	eax
  0x1ca6	mov    	dword ptr [ecx + eax], 2
  === BLOCK LINK ===
    0x1cad
=== CODE BLOCK END ===

=== CODE BLOCK ADDRESS 0x1cad ===
  0x1cad	mov    	eax, 8
  0x1cb2	dec    	eax
  0x1cb3	imul   	eax, eax, 1
  0x1cb6	dec    	eax
  0x1cb7	lea    	ecx, [0x1433]
  === BLOCK LINK ===
    0x1cbd
=== CODE BLOCK END ===

=== CODE BLOCK ADDRESS 0x1cbd ===
  0x1cbd	dec    	eax
  0x1cbe	mov    	edx, dword ptr [0x13b4]
  0x1cc4	dec    	eax
  0x1cc5	mov    	dword ptr [ecx + eax], edx
  0x1cc8	mov    	eax, 8
  === BLOCK LINK ===
    0x1ccd
=== CODE BLOCK END ===

=== CODE BLOCK ADDRESS 0x1ccd ===
  0x1ccd	dec    	eax
  0x1cce	imul   	eax, eax, 2
  0x1cd1	dec    	eax
  0x1cd2	lea    	ecx, [0x1418]
  0x1cd8	dec    	eax
  === BLOCK LINK ===
    0x1cd9
=== CODE BLOCK END ===

=== CODE BLOCK ADDRESS 0x1cd9 ===
  0x1cd9	mov    	edx, dword ptr [0x13a1]
  0x1cdf	dec    	eax
  0x1ce0	mov    	dword ptr [ecx + eax], edx
  0x1ce3	mov    	eax, 8
  0x1ce8	dec    	eax
  === BLOCK LINK ===
    0x1ce9
=== CODE BLOCK END ===

=== CODE BLOCK ADDRESS 0x1ce9 ===
  0x1ce9	imul   	eax, eax, 0
  0x1cec	dec    	eax
  0x1ced	mov    	ecx, dword ptr [0x1385]
  0x1cf3	dec    	eax
  0x1cf4	mov    	dword ptr [esp + eax + 0x68], ecx
  === BLOCK LINK ===
    0x1cf8
=== CODE BLOCK END ===

=== CODE BLOCK ADDRESS 0x1cf8 ===
  0x1cf8	mov    	eax, 8
  0x1cfd	dec    	eax
  0x1cfe	imul   	eax, eax, 1
  0x1d01	dec    	eax
  0x1d02	mov    	ecx, dword ptr [0x1378]
  === BLOCK LINK ===
    0x1d08
=== CODE BLOCK END ===

=== CODE BLOCK ADDRESS 0x1d08 ===
  0x1d08	dec    	eax
  0x1d09	mov    	dword ptr [esp + eax + 0x68], ecx
  0x1d0d	dec    	eax
  0x1d0e	lea    	ecx, [0x2f4]
  0x1d14	call   	0x1b6c
  === BLOCK LINK ===
    0x1d19
=== CODE BLOCK END ===

=== CODE BLOCK ADDRESS 0x1d19 ===
  0x1d19	dec    	eax
  0x1d1a	add    	esp, 0x88
  0x1d20	ret    	
  0x1d21	int3   	
  0x1d22	int3   	
  === BLOCK LINK ===
    0x1d23
=== CODE BLOCK END ===

=== CODE BLOCK ADDRESS 0x13f8 ===
  0x13f8	dec    	eax
  0x13f9	jmp    	dword ptr [0xec9]
  === BLOCK LINK ===
    0x13ff
=== CODE BLOCK END ===

=== CODE BLOCK ADDRESS 0x1d23 ===
  0x1d23	int3   	
  0x1d24	int3   	
  0x1d25	int3   	
  0x1d26	int3   	
  0x1d27	int3   	
  === BLOCK LINK ===
    0x1d28
=== CODE BLOCK END ===

=== CODE BLOCK ADDRESS 0x1d28 ===
  0x1d28	int3   	
  0x1d29	int3   	
  0x1d2a	int3   	
  0x1d2b	int3   	
  0x1d2c	int3   	
  === BLOCK LINK ===
    0x1d2d
=== CODE BLOCK END ===

=== CODE BLOCK ADDRESS 0x1d2d ===
  0x1d2d	int3   	
  0x1d2e	int3   	
  0x1d2f	int3   	
  0x1d30	int3   	
  0x1d31	int3   	
  === BLOCK LINK ===
    0x1d32
=== CODE BLOCK END ===

=== CODE BLOCK ADDRESS 0x1d32 ===
  0x1d32	int3   	
  0x1d33	int3   	
  0x1d34	int3   	
  0x1d35	int3   	
  0x1d36	int3   	
  === BLOCK LINK ===
    0x1d37
=== CODE BLOCK END ===

=== CODE BLOCK ADDRESS 0x1d37 ===
  0x1d37	int3   	
  0x1d38	dec    	eax
  0x1d39	sub    	esp, 0x28
  0x1d3c	dec    	ebp
  0x1d3d	mov    	eax, dword ptr [ecx + 0x38]
  === BLOCK LINK ===
    0x1d40
=== CODE BLOCK END ===

=== CODE BLOCK ADDRESS 0x1d40 ===
  0x1d40	dec    	eax
  0x1d41	mov    	ecx, edx
  0x1d43	dec    	ecx
  0x1d44	mov    	edx, ecx
  0x1d46	call   	0x1d5c
  === BLOCK LINK ===
    0x1d4b
=== CODE BLOCK END ===

=== CODE BLOCK ADDRESS 0x1d4b ===
  0x1d4b	mov    	eax, 1
  0x1d50	dec    	eax
  0x1d51	add    	esp, 0x28
  0x1d54	ret    	
  0x1d55	int3   	
  === BLOCK LINK ===
    0x1d56
=== CODE BLOCK END ===

=== CODE BLOCK ADDRESS 0x1d56 ===
  0x1d56	int3   	
  0x1d57	int3   	
  0x1d58	int3   	
  0x1d59	int3   	
  0x1d5a	int3   	
  === BLOCK LINK ===
    0x1d5b
=== CODE BLOCK END ===

=== CODE BLOCK ADDRESS 0x1d5b ===
  0x1d5b	int3   	
  0x1d5c	inc    	eax
  0x1d5d	push   	ebx
  0x1d5e	inc    	ebp
  0x1d5f	mov    	ebx, dword ptr [eax]
  === BLOCK LINK ===
    0x1d61
=== CODE BLOCK END ===

=== CODE BLOCK ADDRESS 0x1d61 ===
  0x1d61	dec    	eax
  0x1d62	mov    	ebx, edx
  0x1d64	inc    	ecx
  0x1d65	and    	ebx, 0xfffffff8
  0x1d68	dec    	esp
  === BLOCK LINK ===
    0x1d69
=== CODE BLOCK END ===

=== CODE BLOCK ADDRESS 0x1d69 ===
  0x1d69	mov    	ecx, ecx
  0x1d6b	inc    	ecx
  0x1d6c	test   	byte ptr [eax], 4
  0x1d6f	dec    	esp
  0x1d70	mov    	edx, ecx
  === BLOCK LINK ===
    0x1d72
=== CODE BLOCK END ===

=== CODE BLOCK ADDRESS 0x1d72 ===
  0x1d72	je     	0x1d87
  === BLOCK LINK ===
    0x1d74
=== CODE BLOCK END ===

=== CODE BLOCK ADDRESS 0x1d74 ===
  0x1d74	inc    	ecx
  0x1d75	mov    	eax, dword ptr [eax + 8]
  0x1d78	dec    	ebp
  0x1d79	arpl   	word ptr [eax + 4], dx
  0x1d7c	neg    	eax
  === BLOCK LINK ===
    0x1d7e
=== CODE BLOCK END ===

=== CODE BLOCK ADDRESS 0x1d7e ===
  0x1d7e	dec    	esp
  0x1d7f	add    	edx, ecx
  0x1d81	dec    	eax
  0x1d82	arpl   	ax, cx
  0x1d84	dec    	esp
  === BLOCK LINK ===
    0x1d85
=== CODE BLOCK END ===

=== CODE BLOCK ADDRESS 0x1d85 ===
  0x1d85	and    	edx, ecx
  0x1d87	dec    	ecx
  0x1d88	arpl   	bx, ax
  0x1d8a	dec    	edx
  0x1d8b	mov    	edx, dword ptr [eax + edx]
  === BLOCK LINK ===
    0x1d8e
=== CODE BLOCK END ===

=== CODE BLOCK ADDRESS 0x1d8e ===
  0x1d8e	dec    	eax
  0x1d8f	mov    	eax, dword ptr [ebx + 0x10]
  0x1d92	mov    	ecx, dword ptr [eax + 8]
  0x1d95	dec    	eax
  0x1d96	mov    	eax, dword ptr [ebx + 8]
  === BLOCK LINK ===
    0x1d99
=== CODE BLOCK END ===

=== CODE BLOCK ADDRESS 0x1d99 ===
  0x1d99	test   	byte ptr [ecx + eax + 3], 0xf
  0x1d9e	je     	0x1dab
  === BLOCK LINK ===
    0x1da0
=== CODE BLOCK END ===

=== CODE BLOCK ADDRESS 0x1da0 ===
  0x1da0	movzx  	eax, byte ptr [ecx + eax + 3]
  0x1da5	and    	eax, 0xfffffff0
  0x1da8	dec    	esp
  0x1da9	add    	ecx, eax
  0x1dab	dec    	esp
  === BLOCK LINK ===
    0x1dac
=== CODE BLOCK END ===

=== CODE BLOCK ADDRESS 0x1dac ===
  0x1dac	xor    	ecx, edx
  0x1dae	dec    	ecx
  0x1daf	mov    	ecx, ecx
  0x1db1	pop    	ebx
  0x1db2	jmp    	0x17e0
  === BLOCK LINK ===
    0x1db7
=== CODE BLOCK END ===

=== CODE BLOCK ADDRESS 0x1db7 ===
  0x1db7	int3   	
  0x1db8	int3   	
  0x1db9	int3   	
  0x1dba	int3   	
  0x1dbb	int3   	
  === BLOCK LINK ===
    0x1dbc
=== CODE BLOCK END ===

=== CODE BLOCK ADDRESS 0x1dbc ===
  0x1dbc	int3   	
  0x1dbd	jmp    	dword ptr [0x525]
  === BLOCK LINK ===
    0x1dc3
=== CODE BLOCK END ===

=== CODE BLOCK ADDRESS 0x1dc3 ===
  0x1dc3	int3   	
  0x1dc4	int3   	
  0x1dc5	int3   	
  0x1dc6	int3   	
  0x1dc7	int3   	
  === BLOCK LINK ===
    0x1dc8
=== CODE BLOCK END ===

=== CODE BLOCK ADDRESS 0x1dc8 ===
  0x1dc8	int3   	
  0x1dc9	int3   	
  0x1dca	int3   	
  0x1dcb	int3   	
  0x1dcc	int3   	
  === BLOCK LINK ===
    0x1dcd
=== CODE BLOCK END ===

=== CODE BLOCK ADDRESS 0x1dcd ===
  0x1dcd	int3   	
  0x1dce	int3   	
  0x1dcf	int3   	
  0x1dd0	int3   	
  0x1dd1	int3   	
  === BLOCK LINK ===
    0x1dd2
=== CODE BLOCK END ===

=== CODE BLOCK ADDRESS 0x1dd2 ===
  0x1dd2	int3   	
  0x1dd3	int3   	
  0x1dd4	int3   	
  0x1dd5	int3   	
  0x1dd6	nop    	word ptr [eax + eax]
  === BLOCK LINK ===
    0x1de0
=== CODE BLOCK END ===

=== CODE BLOCK ADDRESS 0x1de0 ===
  0x1de0	jmp    	eax
  === BLOCK LINK ===
    0x1de2
=== CODE BLOCK END ===

=== CODE BLOCK ADDRESS 0x1de2 ===
  0x1de2	int3   	
  0x1de3	int3   	
  0x1de4	int3   	
  0x1de5	int3   	
  0x1de6	int3   	
  === BLOCK LINK ===
    0x1de7
=== CODE BLOCK END ===

=== CODE BLOCK ADDRESS 0x1de7 ===
  0x1de7	int3   	
  0x1de8	int3   	
  0x1de9	int3   	
  0x1dea	int3   	
  0x1deb	int3   	
  === BLOCK LINK ===
    0x1dec
=== CODE BLOCK END ===

=== CODE BLOCK ADDRESS 0x1dec ===
  0x1dec	int3   	
  0x1ded	int3   	
  0x1dee	int3   	
  0x1def	int3   	
  0x1df0	inc    	eax
  === BLOCK LINK ===
    0x1df1
=== CODE BLOCK END ===

=== CODE BLOCK ADDRESS 0x1df1 ===
  0x1df1	push   	ebp
  0x1df2	dec    	eax
  0x1df3	sub    	esp, 0x20
  0x1df6	dec    	eax
  0x1df7	mov    	ebp, edx
  === BLOCK LINK ===
    0x1df9
=== CODE BLOCK END ===

=== CODE BLOCK ADDRESS 0x1df9 ===
  0x1df9	dec    	eax
  0x1dfa	mov    	eax, dword ptr [ecx]
  0x1dfc	dec    	eax
  0x1dfd	mov    	edx, ecx
  0x1dff	mov    	ecx, dword ptr [eax]
  === BLOCK LINK ===
    0x1e01
=== CODE BLOCK END ===

=== CODE BLOCK ADDRESS 0x1e01 ===
  0x1e01	call   	0x18ae
  === BLOCK LINK ===
    0x1e06
=== CODE BLOCK END ===

=== CODE BLOCK ADDRESS 0x1e06 ===
  0x1e06	nop    	
  0x1e07	dec    	eax
  0x1e08	add    	esp, 0x20
  0x1e0b	pop    	ebp
  0x1e0c	ret    	
  === BLOCK LINK ===
    0x1e0d
=== CODE BLOCK END ===

=== CODE BLOCK ADDRESS 0x1479 ===
  0x1479	mov    	ecx, 2
  0x147e	mov    	dword ptr [0x1c2c], eax
  0x1484	call   	0x1918
  === BLOCK LINK ===
    0x1489
=== CODE BLOCK END ===

=== CODE BLOCK ADDRESS 0x1e0d ===
  0x1e0d	int3   	
  0x1e0e	int3   	
  0x1e0f	int3   	
  0x1e10	int3   	
  0x1e11	int3   	
  === BLOCK LINK ===
    0x1e12
=== CODE BLOCK END ===

=== CODE BLOCK ADDRESS 0x1e12 ===
  0x1e12	int3   	
  0x1e13	int3   	
  0x1e14	int3   	
  0x1e15	int3   	
  0x1e16	int3   	
  === BLOCK LINK ===
    0x1e17
=== CODE BLOCK END ===

=== CODE BLOCK ADDRESS 0x1e17 ===
  0x1e17	int3   	
  0x1e18	int3   	
  0x1e19	int3   	
  0x1e1a	int3   	
  0x1e1b	int3   	
  === BLOCK LINK ===
    0x1e1c
=== CODE BLOCK END ===

=== CODE BLOCK ADDRESS 0x1e1c ===
  0x1e1c	int3   	
  0x1e1d	int3   	
  0x1e1e	int3   	
  0x1e1f	int3   	
  0x1e20	inc    	eax
  === BLOCK LINK ===
    0x1e21
=== CODE BLOCK END ===

=== CODE BLOCK ADDRESS 0x1e21 ===
  0x1e21	push   	ebp
  0x1e22	dec    	eax
  0x1e23	sub    	esp, 0x20
  0x1e26	dec    	eax
  0x1e27	mov    	ebp, edx
  === BLOCK LINK ===
    0x1e29
=== CODE BLOCK END ===

=== CODE BLOCK ADDRESS 0x1e29 ===
  0x1e29	dec    	eax
  0x1e2a	mov    	eax, dword ptr [ecx]
  0x1e2c	xor    	ecx, ecx
  0x1e2e	cmp    	dword ptr [eax], 0xc0000005
  0x1e34	sete   	cl
  === BLOCK LINK ===
    0x1e37
=== CODE BLOCK END ===

=== CODE BLOCK ADDRESS 0x1e37 ===
  0x1e37	mov    	eax, ecx
  0x1e39	dec    	eax
  0x1e3a	add    	esp, 0x20
  0x1e3d	pop    	ebp
  0x1e3e	ret    	
  === BLOCK LINK ===
    0x1e3f
=== CODE BLOCK END ===

=== CODE BLOCK ADDRESS 0x1e3f ===
  0x1e3f	int3   	
  0x1e40	add    	byte ptr [eax], al
  0x1e42	add    	byte ptr [eax], al
  0x1e44	add    	byte ptr [eax], al
  0x1e46	add    	byte ptr [eax], al
  === BLOCK LINK ===
    0x1e48
=== CODE BLOCK END ===

=== CODE BLOCK ADDRESS 0x1e48 ===
  0x1e48	add    	byte ptr [eax], al
  0x1e4a	add    	byte ptr [eax], al
  0x1e4c	add    	byte ptr [eax], al
  0x1e4e	add    	byte ptr [eax], al
  0x1e50	add    	byte ptr [eax], al
  === BLOCK LINK ===
    0x1e52
=== CODE BLOCK END ===

=== CODE BLOCK ADDRESS 0x1e52 ===
  0x1e52	add    	byte ptr [eax], al
  0x1e54	add    	byte ptr [eax], al
  0x1e56	add    	byte ptr [eax], al
  0x1e58	add    	byte ptr [eax], al
  0x1e5a	add    	byte ptr [eax], al
  === BLOCK LINK ===
    0x1e5c
=== CODE BLOCK END ===

=== CODE BLOCK ADDRESS 0x1e5c ===
  0x1e5c	add    	byte ptr [eax], al
  0x1e5e	add    	byte ptr [eax], al
  0x1e60	add    	byte ptr [eax], al
  0x1e62	add    	byte ptr [eax], al
  0x1e64	add    	byte ptr [eax], al
  === BLOCK LINK ===
    0x1e66
=== CODE BLOCK END ===

=== CODE BLOCK ADDRESS 0x1e66 ===
  0x1e66	add    	byte ptr [eax], al
  0x1e68	add    	byte ptr [eax], al
  0x1e6a	add    	byte ptr [eax], al
  0x1e6c	add    	byte ptr [eax], al
  0x1e6e	add    	byte ptr [eax], al
  === BLOCK LINK ===
    0x1e70
=== CODE BLOCK END ===

=== CODE BLOCK ADDRESS 0x1e70 ===
  0x1e70	add    	byte ptr [eax], al
  0x1e72	add    	byte ptr [eax], al
  0x1e74	add    	byte ptr [eax], al
  0x1e76	add    	byte ptr [eax], al
  0x1e78	add    	byte ptr [eax], al
  === BLOCK LINK ===
    0x1e7a
=== CODE BLOCK END ===

=== CODE BLOCK ADDRESS 0x1e7a ===
  0x1e7a	add    	byte ptr [eax], al
  0x1e7c	add    	byte ptr [eax], al
  0x1e7e	add    	byte ptr [eax], al
  0x1e80	add    	byte ptr [eax], al
  0x1e82	add    	byte ptr [eax], al
  === BLOCK LINK ===
    0x1e84
=== CODE BLOCK END ===

=== CODE BLOCK ADDRESS 0x1e84 ===
  0x1e84	add    	byte ptr [eax], al
  0x1e86	add    	byte ptr [eax], al
  0x1e88	add    	byte ptr [eax], al
  0x1e8a	add    	byte ptr [eax], al
  0x1e8c	add    	byte ptr [eax], al
  === BLOCK LINK ===
    0x1e8e
=== CODE BLOCK END ===

=== CODE BLOCK ADDRESS 0x1e8e ===
  0x1e8e	add    	byte ptr [eax], al
  0x1e90	add    	byte ptr [eax], al
  0x1e92	add    	byte ptr [eax], al
  0x1e94	add    	byte ptr [eax], al
  0x1e96	add    	byte ptr [eax], al
  === BLOCK LINK ===
    0x1e98
=== CODE BLOCK END ===

=== CODE BLOCK ADDRESS 0x1e98 ===
  0x1e98	add    	byte ptr [eax], al
  0x1e9a	add    	byte ptr [eax], al
  0x1e9c	add    	byte ptr [eax], al
  0x1e9e	add    	byte ptr [eax], al
  0x1ea0	add    	byte ptr [eax], al
  === BLOCK LINK ===
    0x1ea2
=== CODE BLOCK END ===

=== CODE BLOCK ADDRESS 0x1ea2 ===
  0x1ea2	add    	byte ptr [eax], al
  0x1ea4	add    	byte ptr [eax], al
  0x1ea6	add    	byte ptr [eax], al
  0x1ea8	add    	byte ptr [eax], al
  0x1eaa	add    	byte ptr [eax], al
  === BLOCK LINK ===
    0x1eac
=== CODE BLOCK END ===

=== CODE BLOCK ADDRESS 0x1eac ===
  0x1eac	add    	byte ptr [eax], al
  0x1eae	add    	byte ptr [eax], al
  0x1eb0	add    	byte ptr [eax], al
  0x1eb2	add    	byte ptr [eax], al
  0x1eb4	add    	byte ptr [eax], al
  === BLOCK LINK ===
    0x1eb6
=== CODE BLOCK END ===

=== CODE BLOCK ADDRESS 0x1eb6 ===
  0x1eb6	add    	byte ptr [eax], al
  0x1eb8	add    	byte ptr [eax], al
  0x1eba	add    	byte ptr [eax], al
  0x1ebc	add    	byte ptr [eax], al
  0x1ebe	add    	byte ptr [eax], al
  === BLOCK LINK ===
    0x1ec0
=== CODE BLOCK END ===

=== CODE BLOCK ADDRESS 0x1ec0 ===
  0x1ec0	add    	byte ptr [eax], al
  0x1ec2	add    	byte ptr [eax], al
  0x1ec4	add    	byte ptr [eax], al
  0x1ec6	add    	byte ptr [eax], al
  0x1ec8	add    	byte ptr [eax], al
  === BLOCK LINK ===
    0x1eca
=== CODE BLOCK END ===

=== CODE BLOCK ADDRESS 0x1eca ===
  0x1eca	add    	byte ptr [eax], al
  0x1ecc	add    	byte ptr [eax], al
  0x1ece	add    	byte ptr [eax], al
  0x1ed0	add    	byte ptr [eax], al
  0x1ed2	add    	byte ptr [eax], al
  === BLOCK LINK ===
    0x1ed4
=== CODE BLOCK END ===

=== CODE BLOCK ADDRESS 0x1ed4 ===
  0x1ed4	add    	byte ptr [eax], al
  0x1ed6	add    	byte ptr [eax], al
  0x1ed8	add    	byte ptr [eax], al
  0x1eda	add    	byte ptr [eax], al
  0x1edc	add    	byte ptr [eax], al
  === BLOCK LINK ===
    0x1ede
=== CODE BLOCK END ===

=== CODE BLOCK ADDRESS 0x1ede ===
  0x1ede	add    	byte ptr [eax], al
  0x1ee0	add    	byte ptr [eax], al
  0x1ee2	add    	byte ptr [eax], al
  0x1ee4	add    	byte ptr [eax], al
  0x1ee6	add    	byte ptr [eax], al
  === BLOCK LINK ===
    0x1ee8
=== CODE BLOCK END ===

=== CODE BLOCK ADDRESS 0x1ee8 ===
  0x1ee8	add    	byte ptr [eax], al
  0x1eea	add    	byte ptr [eax], al
  0x1eec	add    	byte ptr [eax], al
  0x1eee	add    	byte ptr [eax], al
  0x1ef0	add    	byte ptr [eax], al
  === BLOCK LINK ===
    0x1ef2
=== CODE BLOCK END ===

=== CODE BLOCK ADDRESS 0x1ef2 ===
  0x1ef2	add    	byte ptr [eax], al
  0x1ef4	add    	byte ptr [eax], al
  0x1ef6	add    	byte ptr [eax], al
  0x1ef8	add    	byte ptr [eax], al
  0x1efa	add    	byte ptr [eax], al
  === BLOCK LINK ===
    0x1efc
=== CODE BLOCK END ===

=== CODE BLOCK ADDRESS 0x1efc ===
  0x1efc	add    	byte ptr [eax], al
  0x1efe	add    	byte ptr [eax], al
  0x1f00	add    	byte ptr [eax], al
  0x1f02	add    	byte ptr [eax], al
  0x1f04	add    	byte ptr [eax], al
  === BLOCK LINK ===
    0x1f06
=== CODE BLOCK END ===

=== CODE BLOCK ADDRESS 0x1f06 ===
  0x1f06	add    	byte ptr [eax], al
  0x1f08	add    	byte ptr [eax], al
  0x1f0a	add    	byte ptr [eax], al
  0x1f0c	add    	byte ptr [eax], al
  0x1f0e	add    	byte ptr [eax], al
  === BLOCK LINK ===
    0x1f10
=== CODE BLOCK END ===

=== CODE BLOCK ADDRESS 0x1f10 ===
  0x1f10	add    	byte ptr [eax], al
  0x1f12	add    	byte ptr [eax], al
  0x1f14	add    	byte ptr [eax], al
  0x1f16	add    	byte ptr [eax], al
  0x1f18	add    	byte ptr [eax], al
  === BLOCK LINK ===
    0x1f1a
=== CODE BLOCK END ===

=== CODE BLOCK ADDRESS 0x1f1a ===
  0x1f1a	add    	byte ptr [eax], al
  0x1f1c	add    	byte ptr [eax], al
  0x1f1e	add    	byte ptr [eax], al
  0x1f20	add    	byte ptr [eax], al
  0x1f22	add    	byte ptr [eax], al
  === BLOCK LINK ===
    0x1f24
=== CODE BLOCK END ===

=== CODE BLOCK ADDRESS 0x1f24 ===
  0x1f24	add    	byte ptr [eax], al
  0x1f26	add    	byte ptr [eax], al
  0x1f28	add    	byte ptr [eax], al
  0x1f2a	add    	byte ptr [eax], al
  0x1f2c	add    	byte ptr [eax], al
  === BLOCK LINK ===
    0x1f2e
=== CODE BLOCK END ===

=== CODE BLOCK ADDRESS 0x1f2e ===
  0x1f2e	add    	byte ptr [eax], al
  0x1f30	add    	byte ptr [eax], al
  0x1f32	add    	byte ptr [eax], al
  0x1f34	add    	byte ptr [eax], al
  0x1f36	add    	byte ptr [eax], al
  === BLOCK LINK ===
    0x1f38
=== CODE BLOCK END ===

=== CODE BLOCK ADDRESS 0x1f38 ===
  0x1f38	add    	byte ptr [eax], al
  0x1f3a	add    	byte ptr [eax], al
  0x1f3c	add    	byte ptr [eax], al
  0x1f3e	add    	byte ptr [eax], al
  0x1f40	add    	byte ptr [eax], al
  === BLOCK LINK ===
    0x1f42
=== CODE BLOCK END ===

=== CODE BLOCK ADDRESS 0x1f42 ===
  0x1f42	add    	byte ptr [eax], al
  0x1f44	add    	byte ptr [eax], al
  0x1f46	add    	byte ptr [eax], al
  0x1f48	add    	byte ptr [eax], al
  0x1f4a	add    	byte ptr [eax], al
  === BLOCK LINK ===
    0x1f4c
=== CODE BLOCK END ===

=== CODE BLOCK ADDRESS 0x1f4c ===
  0x1f4c	add    	byte ptr [eax], al
  0x1f4e	add    	byte ptr [eax], al
  0x1f50	add    	byte ptr [eax], al
  0x1f52	add    	byte ptr [eax], al
  0x1f54	add    	byte ptr [eax], al
  === BLOCK LINK ===
    0x1f56
=== CODE BLOCK END ===

=== CODE BLOCK ADDRESS 0x1f56 ===
  0x1f56	add    	byte ptr [eax], al
  0x1f58	add    	byte ptr [eax], al
  0x1f5a	add    	byte ptr [eax], al
  0x1f5c	add    	byte ptr [eax], al
  0x1f5e	add    	byte ptr [eax], al
  === BLOCK LINK ===
    0x1f60
=== CODE BLOCK END ===

=== CODE BLOCK ADDRESS 0x1f60 ===
  0x1f60	add    	byte ptr [eax], al
  0x1f62	add    	byte ptr [eax], al
  0x1f64	add    	byte ptr [eax], al
  0x1f66	add    	byte ptr [eax], al
  0x1f68	add    	byte ptr [eax], al
  === BLOCK LINK ===
    0x1f6a
=== CODE BLOCK END ===

=== CODE BLOCK ADDRESS 0x1f6a ===
  0x1f6a	add    	byte ptr [eax], al
  0x1f6c	add    	byte ptr [eax], al
  0x1f6e	add    	byte ptr [eax], al
  0x1f70	add    	byte ptr [eax], al
  0x1f72	add    	byte ptr [eax], al
  === BLOCK LINK ===
    0x1f74
=== CODE BLOCK END ===

=== CODE BLOCK ADDRESS 0x1f74 ===
  0x1f74	add    	byte ptr [eax], al
  0x1f76	add    	byte ptr [eax], al
  0x1f78	add    	byte ptr [eax], al
  0x1f7a	add    	byte ptr [eax], al
  0x1f7c	add    	byte ptr [eax], al
  === BLOCK LINK ===
    0x1f7e
=== CODE BLOCK END ===

=== CODE BLOCK ADDRESS 0x1f7e ===
  0x1f7e	add    	byte ptr [eax], al
  0x1f80	add    	byte ptr [eax], al
  0x1f82	add    	byte ptr [eax], al
  0x1f84	add    	byte ptr [eax], al
  0x1f86	add    	byte ptr [eax], al
  === BLOCK LINK ===
    0x1f88
=== CODE BLOCK END ===

=== CODE BLOCK ADDRESS 0x1f88 ===
  0x1f88	add    	byte ptr [eax], al
  0x1f8a	add    	byte ptr [eax], al
  0x1f8c	add    	byte ptr [eax], al
  0x1f8e	add    	byte ptr [eax], al
  0x1f90	add    	byte ptr [eax], al
  === BLOCK LINK ===
    0x1f92
=== CODE BLOCK END ===

=== CODE BLOCK ADDRESS 0x1f92 ===
  0x1f92	add    	byte ptr [eax], al
  0x1f94	add    	byte ptr [eax], al
  0x1f96	add    	byte ptr [eax], al
  0x1f98	add    	byte ptr [eax], al
  0x1f9a	add    	byte ptr [eax], al
  === BLOCK LINK ===
    0x1f9c
=== CODE BLOCK END ===

=== CODE BLOCK ADDRESS 0x1f9c ===
  0x1f9c	add    	byte ptr [eax], al
  0x1f9e	add    	byte ptr [eax], al
  0x1fa0	add    	byte ptr [eax], al
  0x1fa2	add    	byte ptr [eax], al
  0x1fa4	add    	byte ptr [eax], al
  === BLOCK LINK ===
    0x1fa6
=== CODE BLOCK END ===

=== CODE BLOCK ADDRESS 0x1fa6 ===
  0x1fa6	add    	byte ptr [eax], al
  0x1fa8	add    	byte ptr [eax], al
  0x1faa	add    	byte ptr [eax], al
  0x1fac	add    	byte ptr [eax], al
  0x1fae	add    	byte ptr [eax], al
  === BLOCK LINK ===
    0x1fb0
=== CODE BLOCK END ===

=== CODE BLOCK ADDRESS 0x1fb0 ===
  0x1fb0	add    	byte ptr [eax], al
  0x1fb2	add    	byte ptr [eax], al
  0x1fb4	add    	byte ptr [eax], al
  0x1fb6	add    	byte ptr [eax], al
  0x1fb8	add    	byte ptr [eax], al
  === BLOCK LINK ===
    0x1fba
=== CODE BLOCK END ===

=== CODE BLOCK ADDRESS 0x1fba ===
  0x1fba	add    	byte ptr [eax], al
  0x1fbc	add    	byte ptr [eax], al
  0x1fbe	add    	byte ptr [eax], al
  0x1fc0	add    	byte ptr [eax], al
  0x1fc2	add    	byte ptr [eax], al
  === BLOCK LINK ===
    0x1fc4
=== CODE BLOCK END ===

=== CODE BLOCK ADDRESS 0x1fc4 ===
  0x1fc4	add    	byte ptr [eax], al
  0x1fc6	add    	byte ptr [eax], al
  0x1fc8	add    	byte ptr [eax], al
  0x1fca	add    	byte ptr [eax], al
  0x1fcc	add    	byte ptr [eax], al
  === BLOCK LINK ===
    0x1fce
=== CODE BLOCK END ===

=== CODE BLOCK ADDRESS 0x1fce ===
  0x1fce	add    	byte ptr [eax], al
  0x1fd0	add    	byte ptr [eax], al
  0x1fd2	add    	byte ptr [eax], al
  0x1fd4	add    	byte ptr [eax], al
  0x1fd6	add    	byte ptr [eax], al
  === BLOCK LINK ===
    0x1fd8
=== CODE BLOCK END ===

=== CODE BLOCK ADDRESS 0x1fd8 ===
  0x1fd8	add    	byte ptr [eax], al
  0x1fda	add    	byte ptr [eax], al
  0x1fdc	add    	byte ptr [eax], al
  0x1fde	add    	byte ptr [eax], al
  0x1fe0	add    	byte ptr [eax], al
  === BLOCK LINK ===
    0x1fe2
=== CODE BLOCK END ===

=== CODE BLOCK ADDRESS 0x1fe2 ===
  0x1fe2	add    	byte ptr [eax], al
  0x1fe4	add    	byte ptr [eax], al
  0x1fe6	add    	byte ptr [eax], al
  0x1fe8	add    	byte ptr [eax], al
  0x1fea	add    	byte ptr [eax], al
  === BLOCK LINK ===
    0x1fec
=== CODE BLOCK END ===

=== CODE BLOCK ADDRESS 0x1fec ===
  0x1fec	add    	byte ptr [eax], al
  0x1fee	add    	byte ptr [eax], al
  0x1ff0	add    	byte ptr [eax], al
  0x1ff2	add    	byte ptr [eax], al
  0x1ff4	add    	byte ptr [eax], al
  === BLOCK LINK ===
    0x1ff6
=== CODE BLOCK END ===

=== CODE BLOCK ADDRESS 0x1ff6 ===
  0x1ff6	add    	byte ptr [eax], al
  0x1ff8	add    	byte ptr [eax], al
  0x1ffa	add    	byte ptr [eax], al
  0x1ffc	add    	byte ptr [eax], al
=== CODE BLOCK END ===

=== DATA BLOCK ADDRESS 0x2000 ===
  0x2000	10 18 00 40 01 00 00 00 d0 30 00 40 01 00 00 00 	000@0000000@0000
  0x2010	70 31 00 40 01 00 00 00 a0 25 00 40 01 00 00 00 	p10@00000%0@0000
  0x2020	20 13 00 40 01 00 00 00 20 13 00 40 01 00 00 00 	 00@0000 00@0000
  0x2030	10 13 00 40 01 00 00 00 10 13 00 40 01 00 00 00 	000@0000000@0000
  0x2040	10 13 00 40 01 00 00 00 10 13 00 40 01 00 00 00 	000@0000000@0000
  0x2050	30 13 00 40 01 00 00 00 f0 12 00 40 01 00 00 00 	000@0000000@0000
  0x2060	d0 12 00 40 01 00 00 00 c0 12 00 40 01 00 00 00 	000@0000000@0000
  0x2070	a0 12 00 40 01 00 00 00 90 12 00 40 01 00 00 00 	000@0000000@0000
  0x2080	70 13 00 40 01 00 00 00 a0 13 00 40 01 00 00 00 	p00@0000000@0000
  0x2090	18 01 00 00 00 00 00 00 00 00 00 00 00 00 00 00 	0000000000000000
  0x20a0	00 00 00 00 00 00 00 00 00 00 00 00 00 00 00 00 	0000000000000000
  0x20b0	00 00 00 00 00 00 00 00 00 00 00 00 00 00 00 00 	0000000000000000
  0x20c0	00 00 00 00 00 00 00 00 00 00 00 00 00 00 00 00 	0000000000000000
  0x20d0	00 00 00 00 00 00 00 00 00 00 00 00 00 00 00 00 	0000000000000000
  0x20e0	00 00 00 00 00 00 00 00 78 30 00 40 01 00 00 00 	00000000x00@0000
  0x20f0	00 00 00 00 00 00 00 00 00 00 00 00 00 00 00 00 	0000000000000000
  0x2100	f8 22 00 40 01 00 00 00 00 23 00 40 01 00 00 00 	0"0@00000#0@0000
  0x2110	4c 23 00 40 01 00 00 00 13 00 00 00 00 00 00 00 	L#0@000000000000
  0x2120	00 75 41 00 00 00 00 00 00 00 00 00 00 00 00 00 	0uA0000000000000
  0x2130	00 00 00 00 00 00 00 00 00 00 00 00 00 00 00 00 	0000000000000000
  0x2140	00 00 00 00 00 00 00 00 00 00 00 00 00 00 00 00 	0000000000000000
  0x2150	00 00 00 00 00 00 00 00 00 00 00 00 00 00 00 00 	0000000000000000
  0x2160	00 00 00 00 00 00 00 00 00 00 00 00 00 00 00 00 	0000000000000000
  0x2170	00 00 00 00 00 00 00 00 00 00 00 00 00 00 00 00 	0000000000000000
  0x2180	00 00 00 00 00 00 00 00 00 00 00 00 00 00 00 00 	0000000000000000
  0x2190	00 00 00 00 00 00 00 00 40 23 00 40 01 00 00 00 	00000000@#0@0000
  0x21a0	03 00 00 00 00 00 00 00 d8 2a 00 00 00 00 00 00 	000000000*000000
  0x21b0	ea 2a 00 00 00 00 00 00 fa 2a 00 00 00 00 00 00 	0*0000000*000000
  0x21c0	18 2b 00 00 00 00 00 00 2a 2b 00 00 00 00 00 00 	0+000000*+000000
  0x21d0	62 2d 00 00 00 00 00 00 4e 2d 00 00 00 00 00 00 	b-000000N-000000
  0x21e0	34 2d 00 00 00 00 00 00 20 2d 00 00 00 00 00 00 	4-000000 -000000
  0x21f0	10 2d 00 00 00 00 00 00 f6 2c 00 00 00 00 00 00 	0-0000000,000000
  0x2200	e0 2c 00 00 00 00 00 00 ca 2c 00 00 00 00 00 00 	0,0000000,000000
  0x2210	b0 2c 00 00 00 00 00 00 9c 2c 00 00 00 00 00 00 	0,0000000,000000
  0x2220	7e 2c 00 00 00 00 00 00 6c 2c 00 00 00 00 00 00 	~,000000l,000000
  0x2230	64 2c 00 00 00 00 00 00 92 2d 00 00 00 00 00 00 	d,0000000-000000
  0x2240	7e 2d 00 00 00 00 00 00 00 00 00 00 00 00 00 00 	~-00000000000000
  0x2250	42 2c 00 00 00 00 00 00 00 00 00 00 00 00 00 00 	B,00000000000000
  0x2260	a8 2b 00 00 00 00 00 00 b2 2b 00 00 00 00 00 00 	0+0000000+000000
  0x2270	c6 2b 00 00 00 00 00 00 74 2b 00 00 00 00 00 00 	0+000000t+000000
  0x2280	ea 2b 00 00 00 00 00 00 f4 2b 00 00 00 00 00 00 	0+0000000+000000
  0x2290	a0 2b 00 00 00 00 00 00 16 2c 00 00 00 00 00 00 	0+0000000,000000
  0x22a0	2a 2c 00 00 00 00 00 00 66 2b 00 00 00 00 00 00 	*,000000f+000000
  0x22b0	98 2b 00 00 00 00 00 00 fe 2b 00 00 00 00 00 00 	0+0000000+000000
  0x22c0	58 2b 00 00 00 00 00 00 50 2b 00 00 00 00 00 00 	X+000000P+000000
  0x22d0	44 2b 00 00 00 00 00 00 86 2b 00 00 00 00 00 00 	D+0000000+000000
  0x22e0	d2 2b 00 00 00 00 00 00 a6 2d 00 00 00 00 00 00 	0+0000000-000000
  0x22f0	00 00 00 00 00 00 00 00 60 1b 00 40 01 00 00 00 	00000000`00@0000
  0x2300	e0 1d 00 40 01 00 00 00 00 00 00 00 00 00 00 00 	000@000000000000
  0x2310	f0 14 00 40 01 00 00 00 00 00 00 00 00 00 00 00 	000@000000000000
  0x2320	00 00 00 00 00 00 00 00 10 14 00 40 01 00 00 00 	00000000000@0000
  0x2330	90 18 00 40 01 00 00 00 00 00 00 00 00 00 00 00 	000@000000000000
  0x2340	59 17 00 00 02 19 00 00 10 1a 00 00 90 12 00 00 	Y000000000000000
  0x2350	a0 12 00 00 c0 12 00 00 d0 12 00 00 f0 12 00 00 	0000000000000000
  0x2360	10 13 00 00 20 13 00 00 30 13 00 00 70 13 00 00 	0000 0000000p000
  0x2370	a0 13 00 00 10 14 00 00 f0 14 00 00 b0 17 00 00 	0000000000000000
  0x2380	10 18 00 00 50 18 00 00 90 18 00 00 70 19 00 00 	0000P0000000p000
  0x2390	60 1b 00 00 b0 1b 00 00 00 00 00 00 00 00 00 00 	`000000000000000
  0x23a0	2e 00 5c 00 52 00 65 00 73 00 65 00 74 00 45 00 	.000R0e0s0e0t0E0
  0x23b0	6e 00 67 00 69 00 6e 00 65 00 2e 00 64 00 6c 00 	n0g0i0n0e0.0d0l0
  0x23c0	6c 00 00 00 00 00 00 00 2d 00 45 00 78 00 65 00 	l0000000-0E0x0e0
  0x23d0	63 00 4f 00 6e 00 6c 00 69 00 6e 00 65 00 00 00 	c0O0n0l0i0n0e000
  0x23e0	52 65 73 65 74 45 78 65 63 4f 6e 6c 69 6e 65 00 	ResetExecOnline0
  0x23f0	2d 00 45 00 78 00 65 00 63 00 43 00 6c 00 65 00 	-0E0x0e0c0C0l0e0
  0x2400	61 00 6e 00 75 00 70 00 00 00 00 00 00 00 00 00 	a0n0u0p000000000
  0x2410	52 65 73 65 74 45 78 65 63 43 6c 65 61 6e 75 70 	ResetExecCleanup
  0x2420	00 00 00 00 00 00 00 00 2d 00 4f 00 4f 00 42 00 	00000000-0O0O0B0
  0x2430	45 00 00 00 00 00 00 00 52 65 73 65 74 45 6e 74 	E0000000ResetEnt
  0x2440	65 72 4f 4f 42 45 00 00 2d 00 4c 00 6f 00 67 00 	erOOBE00-0L0o0g0
  0x2450	6f 00 6e 00 00 00 00 00 52 65 73 65 74 55 73 65 	o0n00000ResetUse
  0x2460	72 4c 6f 67 6f 6e 00 00 2d 00 52 00 65 00 74 00 	rLogon00-0R0e0t0
  0x2470	75 00 72 00 6e 00 65 00 64 00 00 00 00 00 00 00 	u0r0n0e0d0000000
  0x2480	52 65 73 65 74 52 65 74 75 72 6e 54 6f 4f 6c 64 	ResetReturnToOld
  0x2490	4f 53 00 00 00 00 00 00 00 00 00 00 00 00 00 00 	OS00000000000000
  0x24a0	00 00 00 00 8f 43 ab 1b 00 00 00 00 02 00 00 00 	00000C0000000000
  0x24b0	28 00 00 00 c4 25 00 00 c4 19 00 00 00 00 00 00 	(0000%0000000000
  0x24c0	8f 43 ab 1b 00 00 00 00 0d 00 00 00 2c 02 00 00 	0C0000000000,000
  0x24d0	ec 25 00 00 ec 19 00 00 00 00 00 00 8f 43 ab 1b 	0%00000000000C00
  0x24e0	00 00 00 00 10 00 00 00 24 00 00 00 18 28 00 00 	00000000$0000(00
  0x24f0	18 1c 00 00 00 00 00 00 20 25 00 00 48 25 00 00 	00000000 %00H%00
  0x2500	00 00 00 00 00 00 00 00 00 00 00 00 00 00 00 00 	0000000000000000
  0x2510	48 25 00 00 00 00 00 00 00 00 00 00 00 00 00 00 	H%00000000000000
  0x2520	38 30 00 00 01 00 00 00 00 00 00 00 ff ff ff ff 	8000000000000000
  0x2530	00 00 00 00 40 00 00 00 88 25 00 00 00 00 00 00 	0000@0000%000000
  0x2540	00 00 00 00 00 00 00 00 00 30 00 00 00 00 00 00 	0000000000000000
  0x2550	00 00 00 00 ff ff ff ff 00 00 00 00 40 00 00 00 	000000000000@000
  0x2560	70 25 00 00 00 00 00 00 00 00 00 00 00 00 00 00 	p%00000000000000
  0x2570	00 00 00 00 00 00 00 00 01 00 00 00 10 25 00 00 	0000000000000%00
  0x2580	00 00 00 00 00 00 00 00 00 00 00 00 00 00 00 00 	0000000000000000
  0x2590	02 00 00 00 f8 24 00 00 00 00 00 00 00 00 00 00 	00000$0000000000
  0x25a0	01 00 00 00 00 00 00 00 00 00 00 00 38 30 00 00 	0000000000008000
  0x25b0	88 25 00 00 a0 25 00 00 00 00 00 00 00 00 00 00 	0%000%0000000000
  0x25c0	00 00 00 00 52 53 44 53 5d a6 b6 35 14 03 2b d1 	0000RSDS]00500+0
  0x25d0	89 2d 53 49 9d 4c 1f 51 01 00 00 00 52 65 73 65 	0-SI0L0Q0000Rese
  0x25e0	74 45 6e 67 69 6e 65 2e 70 64 62 00 47 43 54 4c 	tEngine.pdb0GCTL
  0x25f0	00 10 00 00 d0 0d 00 00 2e 74 65 78 74 24 6d 6e 	00000000.text$mn
  0x2600	00 00 00 00 d0 1d 00 00 20 00 00 00 2e 74 65 78 	00000000 000.tex
  0x2610	74 24 6d 6e 24 30 30 00 f0 1d 00 00 50 00 00 00 	t$mn$0000000P000
  0x2620	2e 74 65 78 74 24 78 00 00 20 00 00 a8 01 00 00 	.text$x00 000000
  0x2630	2e 72 64 61 74 61 24 62 72 63 00 00 a8 21 00 00 	.rdata$brc000!00
  0x2640	50 01 00 00 2e 69 64 61 74 61 24 35 00 00 00 00 	P000.idata$50000
  0x2650	f8 22 00 00 10 00 00 00 2e 30 30 63 66 67 00 00 	0"000000.00cfg00
  0x2660	08 23 00 00 08 00 00 00 2e 43 52 54 24 58 43 41 	0#000000.CRT$XCA
  0x2670	00 00 00 00 10 23 00 00 08 00 00 00 2e 43 52 54 	00000#000000.CRT
  0x2680	24 58 43 41 41 00 00 00 18 23 00 00 08 00 00 00 	$XCAA0000#000000
  0x2690	2e 43 52 54 24 58 43 5a 00 00 00 00 20 23 00 00 	.CRT$XCZ0000 #00
  0x26a0	08 00 00 00 2e 43 52 54 24 58 49 41 00 00 00 00 	0000.CRT$XIA0000
  0x26b0	28 23 00 00 08 00 00 00 2e 43 52 54 24 58 49 41 	(#000000.CRT$XIA
  0x26c0	41 00 00 00 30 23 00 00 08 00 00 00 2e 43 52 54 	A0000#000000.CRT
  0x26d0	24 58 49 59 00 00 00 00 38 23 00 00 08 00 00 00 	$XIY00008#000000
  0x26e0	2e 43 52 54 24 58 49 5a 00 00 00 00 40 23 00 00 	.CRT$XIZ0000@#00
  0x26f0	0c 00 00 00 2e 67 65 68 63 6f 6e 74 00 00 00 00 	0000.gehcont0000
  0x2700	4c 23 00 00 54 00 00 00 2e 67 66 69 64 73 00 00 	L#00T000.gfids00
  0x2710	a0 23 00 00 58 01 00 00 2e 72 64 61 74 61 00 00 	0#00X000.rdata00
  0x2720	f8 24 00 00 cc 00 00 00 2e 72 64 61 74 61 24 72 	0$000000.rdata$r
  0x2730	00 00 00 00 c4 25 00 00 7c 02 00 00 2e 72 64 61 	00000%00|000.rda
  0x2740	74 61 24 7a 7a 7a 64 62 67 00 00 00 40 28 00 00 	ta$zzzdbg000@(00
  0x2750	f8 00 00 00 2e 78 64 61 74 61 00 00 38 29 00 00 	0000.xdata008)00
  0x2760	3c 00 00 00 2e 69 64 61 74 61 24 32 00 00 00 00 	<000.idata$20000
  0x2770	74 29 00 00 14 00 00 00 2e 69 64 61 74 61 24 33 	t)000000.idata$3
  0x2780	00 00 00 00 88 29 00 00 50 01 00 00 2e 69 64 61 	00000)00P000.ida
  0x2790	74 61 24 34 00 00 00 00 d8 2a 00 00 d8 02 00 00 	ta$400000*000000
  0x27a0	2e 69 64 61 74 61 24 36 00 00 00 00 00 30 00 00 	.idata$600000000
  0x27b0	70 00 00 00 2e 64 61 74 61 24 72 24 62 72 63 00 	p000.data$r$brc0
  0x27c0	70 30 00 00 20 00 00 00 2e 64 61 74 61 00 00 00 	p000 000.data000
  0x27d0	90 30 00 00 60 06 00 00 2e 62 73 73 00 00 00 00 	0000`000.bss0000
  0x27e0	00 40 00 00 20 01 00 00 2e 70 64 61 74 61 00 00 	0@00 000.pdata00
  0x27f0	00 50 00 00 60 00 00 00 2e 72 73 72 63 24 30 31 	0P00`000.rsrc$01
  0x2800	00 00 00 00 60 50 00 00 b0 03 00 00 2e 72 73 72 	0000`P000000.rsr
  0x2810	63 24 30 32 00 00 00 00 20 00 00 00 5d a6 b6 35 	c$020000 000]005
  0x2820	14 03 2b d1 89 2d 53 49 9d 4c 1f 51 6b 98 97 e6 	00+00-SI0L0Qk000
  0x2830	ea 42 87 2b 91 dd 35 01 8f 43 ab 1b 00 00 00 00 	0B0+00500C000000
  0x2840	19 1f 05 00 0d 34 4a 00 0d 01 48 00 06 70 00 00 	000004J000H00p00
  0x2850	38 1d 00 00 30 02 00 00 01 12 06 00 12 74 0b 00 	8000000000000t00
  0x2860	12 34 0a 00 12 72 0b 50 01 0a 04 00 0a 34 06 00 	04000r0P00000400
  0x2870	0a 32 06 70 01 06 02 00 06 32 02 30 01 04 01 00 	020p000002000000
  0x2880	04 42 00 00 01 04 01 00 04 62 00 00 09 1c 0b 00 	0B0000000b000000
  0x2890	1c e4 1b 00 1c 74 1a 00 1c 64 19 00 1c 34 18 00 	00000t000d000400
  0x28a0	1c 01 16 00 15 f0 00 00 4a 1b 00 00 01 00 00 00 	00000000J0000000
  0x28b0	6f 15 00 00 59 17 00 00 f0 1d 00 00 59 17 00 00 	o000Y0000000Y000
  0x28c0	01 06 02 00 06 32 02 50 01 00 00 00 09 04 01 00 	0000020P00000000
  0x28d0	04 22 00 00 4a 1b 00 00 01 00 00 00 cc 18 00 00 	0"00J00000000000
  0x28e0	02 19 00 00 01 00 00 00 02 19 00 00 09 0a 04 00 	0000000000000000
  0x28f0	0a 34 06 00 0a 32 06 70 4a 1b 00 00 01 00 00 00 	0400020pJ0000000
  0x2900	dd 19 00 00 10 1a 00 00 20 1e 00 00 10 1a 00 00 	00000000 0000000
  0x2910	01 0d 04 00 0d 34 09 00 0d 32 06 50 01 0c 02 00 	00000400020P0000
  0x2920	0c 01 11 00 00 00 00 00 01 00 00 00 01 02 01 00 	0000000000000000
  0x2930	02 30 00 00 00 00 00 00 88 29 00 00 00 00 00 00 	000000000)000000
  0x2940	00 00 00 00 36 2b 00 00 a8 21 00 00 40 2a 00 00 	00006+000!00@*00
  0x2950	00 00 00 00 00 00 00 00 0a 2c 00 00 60 22 00 00 	000000000,00`"00
  0x2960	30 2a 00 00 00 00 00 00 00 00 00 00 58 2c 00 00 	0*0000000000X,00
  0x2970	50 22 00 00 00 00 00 00 00 00 00 00 00 00 00 00 	P"00000000000000
  0x2980	00 00 00 00 00 00 00 00 d8 2a 00 00 00 00 00 00 	000000000*000000
  0x2990	ea 2a 00 00 00 00 00 00 fa 2a 00 00 00 00 00 00 	0*0000000*000000
  0x29a0	18 2b 00 00 00 00 00 00 2a 2b 00 00 00 00 00 00 	0+000000*+000000
  0x29b0	62 2d 00 00 00 00 00 00 4e 2d 00 00 00 00 00 00 	b-000000N-000000
  0x29c0	34 2d 00 00 00 00 00 00 20 2d 00 00 00 00 00 00 	4-000000 -000000
  0x29d0	10 2d 00 00 00 00 00 00 f6 2c 00 00 00 00 00 00 	0-0000000,000000
  0x29e0	e0 2c 00 00 00 00 00 00 ca 2c 00 00 00 00 00 00 	0,0000000,000000
  0x29f0	b0 2c 00 00 00 00 00 00 9c 2c 00 00 00 00 00 00 	0,0000000,000000
  0x2a00	7e 2c 00 00 00 00 00 00 6c 2c 00 00 00 00 00 00 	~,000000l,000000
  0x2a10	64 2c 00 00 00 00 00 00 92 2d 00 00 00 00 00 00 	d,0000000-000000
  0x2a20	7e 2d 00 00 00 00 00 00 00 00 00 00 00 00 00 00 	~-00000000000000
  0x2a30	42 2c 00 00 00 00 00 00 00 00 00 00 00 00 00 00 	B,00000000000000
  0x2a40	a8 2b 00 00 00 00 00 00 b2 2b 00 00 00 00 00 00 	0+0000000+000000
  0x2a50	c6 2b 00 00 00 00 00 00 74 2b 00 00 00 00 00 00 	0+000000t+000000
  0x2a60	ea 2b 00 00 00 00 00 00 f4 2b 00 00 00 00 00 00 	0+0000000+000000
  0x2a70	a0 2b 00 00 00 00 00 00 16 2c 00 00 00 00 00 00 	0+0000000,000000
  0x2a80	2a 2c 00 00 00 00 00 00 66 2b 00 00 00 00 00 00 	*,000000f+000000
  0x2a90	98 2b 00 00 00 00 00 00 fe 2b 00 00 00 00 00 00 	0+0000000+000000
  0x2aa0	58 2b 00 00 00 00 00 00 50 2b 00 00 00 00 00 00 	X+000000P+000000
  0x2ab0	44 2b 00 00 00 00 00 00 86 2b 00 00 00 00 00 00 	D+0000000+000000
  0x2ac0	d2 2b 00 00 00 00 00 00 a6 2d 00 00 00 00 00 00 	0+0000000-000000
  0x2ad0	00 00 00 00 00 00 00 00 ca 03 4c 6f 61 64 4c 69 	0000000000LoadLi
  0x2ae0	62 72 61 72 79 45 78 57 00 00 6a 02 47 65 74 4c 	braryExW00j0GetL
  0x2af0	61 73 74 45 72 72 6f 72 00 00 f7 02 47 65 74 53 	astError0000GetS
  0x2b00	79 73 74 65 6d 57 69 6e 64 6f 77 73 44 69 72 65 	ystemWindowsDire
  0x2b10	63 74 6f 72 79 57 00 00 b8 02 47 65 74 50 72 6f 	ctoryW0000GetPro
  0x2b20	63 41 64 64 72 65 73 73 00 00 d6 03 4c 6f 63 61 	cAddress0000Loca
  0x2b30	6c 46 72 65 65 00 4b 45 52 4e 45 4c 33 32 2e 64 	lFree0KERNEL32.d
  0x2b40	6c 6c 00 00 8a 03 5f 77 63 73 69 63 6d 70 00 00 	ll0000_wcsicmp00
  0x2b50	4c 04 66 72 65 65 00 00 55 00 5f 58 63 70 74 46 	L0free00U0_XcptF
  0x2b60	69 6c 74 65 72 00 ae 00 5f 61 6d 73 67 5f 65 78 	ilter000_amsg_ex
  0x2b70	69 74 00 00 9d 00 5f 5f 77 67 65 74 6d 61 69 6e 	it0000__wgetmain
  0x2b80	61 72 67 73 00 00 8e 00 5f 5f 73 65 74 5f 61 70 	args0000__set_ap
  0x2b90	70 5f 74 79 70 65 00 00 32 04 65 78 69 74 00 00 	p_type0020exit00
  0x2ba0	0e 01 5f 65 78 69 74 00 c1 00 5f 63 65 78 69 74 	00_exit000_cexit
  0x2bb0	00 00 90 00 5f 5f 73 65 74 75 73 65 72 6d 61 74 	0000__setusermat
  0x2bc0	68 65 72 72 00 00 7d 01 5f 69 6e 69 74 74 65 72 	herr00}0_initter
  0x2bd0	6d 00 57 00 5f 5f 43 5f 73 70 65 63 69 66 69 63 	m0W0__C_specific
  0x2be0	5f 68 61 6e 64 6c 65 72 00 00 82 03 5f 77 63 6d 	_handler0000_wcm
  0x2bf0	64 6c 6e 00 27 01 5f 66 6d 6f 64 65 00 00 d2 00 	dln0'0_fmode0000
  0x2c00	5f 63 6f 6d 6d 6f 64 65 00 00 6d 73 76 63 72 74 	_commode00msvcrt
  0x2c10	2e 64 6c 6c 00 00 2f 00 3f 74 65 72 6d 69 6e 61 	.dll00/0?termina
  0x2c20	74 65 40 40 59 41 58 58 5a 00 12 00 3f 3f 31 74 	te@@YAXXZ000??1t
  0x2c30	79 70 65 5f 69 6e 66 6f 40 40 55 45 41 41 40 58 	ype_info@@UEAA@X
  0x2c40	5a 00 09 00 43 6f 6d 6d 61 6e 64 4c 69 6e 65 54 	Z000CommandLineT
  0x2c50	6f 41 72 67 76 57 00 00 53 48 45 4c 4c 33 32 2e 	oArgvW00SHELL32.
  0x2c60	64 6c 6c 00 8f 05 53 6c 65 65 70 00 da 02 47 65 	dll000Sleep000Ge
  0x2c70	74 53 74 61 72 74 75 70 49 6e 66 6f 57 00 7f 05 	tStartupInfoW000
  0x2c80	53 65 74 55 6e 68 61 6e 64 6c 65 64 45 78 63 65 	SetUnhandledExce
  0x2c90	70 74 69 6f 6e 46 69 6c 74 65 72 00 81 02 47 65 	ptionFilter000Ge
  0x2ca0	74 4d 6f 64 75 6c 65 48 61 6e 64 6c 65 57 00 00 	tModuleHandleW00
  0x2cb0	52 04 51 75 65 72 79 50 65 72 66 6f 72 6d 61 6e 	R0QueryPerforman
  0x2cc0	63 65 43 6f 75 6e 74 65 72 00 21 02 47 65 74 43 	ceCounter0!0GetC
  0x2cd0	75 72 72 65 6e 74 50 72 6f 63 65 73 73 49 64 00 	urrentProcessId0
  0x2ce0	25 02 47 65 74 43 75 72 72 65 6e 74 54 68 72 65 	%0GetCurrentThre
  0x2cf0	61 64 49 64 00 00 f3 02 47 65 74 53 79 73 74 65 	adId0000GetSyste
  0x2d00	6d 54 69 6d 65 41 73 46 69 6c 65 54 69 6d 65 00 	mTimeAsFileTime0
  0x2d10	11 03 47 65 74 54 69 63 6b 43 6f 75 6e 74 00 00 	00GetTickCount00
  0x2d20	d5 04 52 74 6c 43 61 70 74 75 72 65 43 6f 6e 74 	00RtlCaptureCont
  0x2d30	65 78 74 00 dc 04 52 74 6c 4c 6f 6f 6b 75 70 46 	ext000RtlLookupF
  0x2d40	75 6e 63 74 69 6f 6e 45 6e 74 72 79 00 00 e3 04 	unctionEntry0000
  0x2d50	52 74 6c 56 69 72 74 75 61 6c 55 6e 77 69 6e 64 	RtlVirtualUnwind
  0x2d60	00 00 c0 05 55 6e 68 61 6e 64 6c 65 64 45 78 63 	0000UnhandledExc
  0x2d70	65 70 74 69 6f 6e 46 69 6c 74 65 72 00 00 20 02 	eptionFilter00 0
  0x2d80	47 65 74 43 75 72 72 65 6e 74 50 72 6f 63 65 73 	GetCurrentProces
  0x2d90	73 00 9e 05 54 65 72 6d 69 6e 61 74 65 50 72 6f 	s000TerminatePro
  0x2da0	63 65 73 73 00 00 96 04 6d 65 6d 73 65 74 00 00 	cess0000memset00
  0x2db0	00 00 00 00 00 00 00 00 00 00 00 00 00 00 00 00 	0000000000000000
  0x2dc0	00 00 00 00 00 00 00 00 00 00 00 00 00 00 00 00 	0000000000000000
  0x2dd0	00 00 00 00 00 00 00 00 00 00 00 00 00 00 00 00 	0000000000000000
  0x2de0	00 00 00 00 00 00 00 00 00 00 00 00 00 00 00 00 	0000000000000000
  0x2df0	00 00 00 00 00 00 00 00 00 00 00 00 00 00 00 00 	0000000000000000
=== DATA BLOCK END ===

=== DATA BLOCK ADDRESS 0x3000 ===
  0x3000	00 20 00 40 01 00 00 00 00 00 00 00 00 00 00 00 	0 0@000000000000
  0x3010	2e 3f 41 56 3f 24 43 41 75 74 6f 43 6c 65 61 6e 	.?AV?$CAutoClean
  0x3020	75 70 42 61 73 65 40 50 45 41 50 45 41 47 40 52 	upBase@PEAPEAG@R
  0x3030	41 49 49 40 40 00 00 00 00 20 00 40 01 00 00 00 	AII@@0000 0@0000
  0x3040	00 00 00 00 00 00 00 00 2e 3f 41 56 3f 24 43 41 	00000000.?AV?$CA
  0x3050	75 74 6f 4c 6f 63 61 6c 46 72 65 65 40 50 45 41 	utoLocalFree@PEA
  0x3060	50 45 41 47 40 52 41 49 49 40 40 00 00 00 00 00 	PEAG@RAII@@00000
  0x3070	01 00 00 00 00 00 00 00 32 a2 df 2d 99 2b 00 00 	00000000200-0+00
  0x3080	cd 5d 20 d2 66 d4 ff ff 00 00 00 00 00 00 00 00 	0] 0f00000000000
  0x3090	00 00 00 00 00 00 00 00 00 00 00 00 00 00 00 00 	0000000000000000
  0x30a0	00 00 00 00 00 00 00 00 00 00 00 00 00 00 00 00 	0000000000000000
  0x30b0	00 00 00 00 00 00 00 00 00 00 00 00 00 00 00 00 	0000000000000000
  0x30c0	00 00 00 00 00 00 00 00 00 00 00 00 00 00 00 00 	0000000000000000
  0x30d0	00 00 00 00 00 00 00 00 00 00 00 00 00 00 00 00 	0000000000000000
  0x30e0	00 00 00 00 00 00 00 00 00 00 00 00 00 00 00 00 	0000000000000000
  0x30f0	00 00 00 00 00 00 00 00 00 00 00 00 00 00 00 00 	0000000000000000
  0x3100	00 00 00 00 00 00 00 00 00 00 00 00 00 00 00 00 	0000000000000000
  0x3110	00 00 00 00 00 00 00 00 00 00 00 00 00 00 00 00 	0000000000000000
  0x3120	00 00 00 00 00 00 00 00 00 00 00 00 00 00 00 00 	0000000000000000
  0x3130	00 00 00 00 00 00 00 00 00 00 00 00 00 00 00 00 	0000000000000000
  0x3140	00 00 00 00 00 00 00 00 00 00 00 00 00 00 00 00 	0000000000000000
  0x3150	00 00 00 00 00 00 00 00 00 00 00 00 00 00 00 00 	0000000000000000
  0x3160	00 00 00 00 00 00 00 00 00 00 00 00 00 00 00 00 	0000000000000000
  0x3170	00 00 00 00 00 00 00 00 00 00 00 00 00 00 00 00 	0000000000000000
  0x3180	00 00 00 00 00 00 00 00 00 00 00 00 00 00 00 00 	0000000000000000
  0x3190	00 00 00 00 00 00 00 00 00 00 00 00 00 00 00 00 	0000000000000000
  0x31a0	00 00 00 00 00 00 00 00 00 00 00 00 00 00 00 00 	0000000000000000
  0x31b0	00 00 00 00 00 00 00 00 00 00 00 00 00 00 00 00 	0000000000000000
  0x31c0	00 00 00 00 00 00 00 00 00 00 00 00 00 00 00 00 	0000000000000000
  0x31d0	00 00 00 00 00 00 00 00 00 00 00 00 00 00 00 00 	0000000000000000
  0x31e0	00 00 00 00 00 00 00 00 00 00 00 00 00 00 00 00 	0000000000000000
  0x31f0	00 00 00 00 00 00 00 00 00 00 00 00 00 00 00 00 	0000000000000000
=== DATA BLOCK END ===

=== DATA BLOCK ADDRESS 0x4000 ===
  0x4000	08 10 00 00 c9 11 00 00 40 28 00 00 d0 11 00 00 	00000000@(000000
  0x4010	7f 12 00 00 58 28 00 00 30 13 00 00 65 13 00 00 	0000X(000000e000
  0x4020	68 28 00 00 70 13 00 00 9a 13 00 00 74 28 00 00 	h(00p0000000t(00
  0x4030	a0 13 00 00 f0 13 00 00 68 28 00 00 10 14 00 00 	00000000h(000000
  0x4040	e3 14 00 00 7c 28 00 00 f0 14 00 00 39 15 00 00 	0000|(0000009000
  0x4050	84 28 00 00 40 15 00 00 a4 17 00 00 8c 28 00 00 	0(00@00000000(00
  0x4060	b0 17 00 00 c2 17 00 00 7c 28 00 00 e0 17 00 00 	00000000|(000000
  0x4070	fe 17 00 00 c8 28 00 00 10 18 00 00 40 18 00 00 	00000(000000@000
  0x4080	68 28 00 00 50 18 00 00 89 18 00 00 7c 28 00 00 	h(00P0000000|(00
  0x4090	90 18 00 00 a8 18 00 00 7c 28 00 00 bc 18 00 00 	00000000|(000000
  0x40a0	10 19 00 00 cc 28 00 00 18 19 00 00 5d 19 00 00 	00000(000000]000
  0x40b0	74 28 00 00 d0 19 00 00 1d 1a 00 00 ec 28 00 00 	t(00000000000(00
  0x40c0	64 1a 00 00 38 1b 00 00 10 29 00 00 6c 1b 00 00 	d00080000)00l000
  0x40d0	a0 1b 00 00 74 28 00 00 b0 1b 00 00 21 1d 00 00 	0000t(000000!000
  0x40e0	1c 29 00 00 38 1d 00 00 55 1d 00 00 7c 28 00 00 	0)008000U000|(00
  0x40f0	5c 1d 00 00 b7 1d 00 00 2c 29 00 00 e0 1d 00 00 	00000000,)000000
  0x4100	e2 1d 00 00 28 29 00 00 f0 1d 00 00 0e 1e 00 00 	0000()0000000000
  0x4110	c0 28 00 00 20 1e 00 00 40 1e 00 00 c0 28 00 00 	0(00 000@0000(00
  0x4120	00 00 00 00 00 00 00 00 00 00 00 00 00 00 00 00 	0000000000000000
  0x4130	00 00 00 00 00 00 00 00 00 00 00 00 00 00 00 00 	0000000000000000
  0x4140	00 00 00 00 00 00 00 00 00 00 00 00 00 00 00 00 	0000000000000000
  0x4150	00 00 00 00 00 00 00 00 00 00 00 00 00 00 00 00 	0000000000000000
  0x4160	00 00 00 00 00 00 00 00 00 00 00 00 00 00 00 00 	0000000000000000
  0x4170	00 00 00 00 00 00 00 00 00 00 00 00 00 00 00 00 	0000000000000000
  0x4180	00 00 00 00 00 00 00 00 00 00 00 00 00 00 00 00 	0000000000000000
  0x4190	00 00 00 00 00 00 00 00 00 00 00 00 00 00 00 00 	0000000000000000
  0x41a0	00 00 00 00 00 00 00 00 00 00 00 00 00 00 00 00 	0000000000000000
  0x41b0	00 00 00 00 00 00 00 00 00 00 00 00 00 00 00 00 	0000000000000000
  0x41c0	00 00 00 00 00 00 00 00 00 00 00 00 00 00 00 00 	0000000000000000
  0x41d0	00 00 00 00 00 00 00 00 00 00 00 00 00 00 00 00 	0000000000000000
  0x41e0	00 00 00 00 00 00 00 00 00 00 00 00 00 00 00 00 	0000000000000000
  0x41f0	00 00 00 00 00 00 00 00 00 00 00 00 00 00 00 00 	0000000000000000
=== DATA BLOCK END ===
