===== Assembly blocks =====

=== CODE BLOCK ADDRESS 0x1000 ===
  0x1000	int3   	
  0x1001	int3   	
  0x1002	int3   	
  0x1003	int3   	
  0x1004	int3   	
  === BLOCK LINK ===
    0x1005
=== CODE BLOCK END ===

=== CODE BLOCK ADDRESS 0x1005 ===
  0x1005	int3   	
  0x1006	int3   	
  0x1007	int3   	
  === BLOCK LINK ===
    0x1008
=== CODE BLOCK END ===

=== CODE BLOCK ADDRESS 0x100e ===
  0x100e	mov    	edx, eax
  0x1010	inc    	esp
  0x1011	mov    	ecx, edx
  0x1013	dec    	eax
  0x1014	mov    	eax, ecx
  === BLOCK LINK ===
    0x1016
=== CODE BLOCK END ===

=== CODE BLOCK ADDRESS 0x1016 ===
  0x1016	inc    	ebp
  0x1017	xor    	ebx, ebx
  === BLOCK LINK ===
    0x1019
=== CODE BLOCK END ===

=== CODE BLOCK ADDRESS 0x101f ===
  0x101f	dec    	eax
  0x1020	add    	eax, 2
  0x1023	dec    	ecx
  0x1024	sub    	ecx, 1
  0x1027	jne    	0x1019
  === BLOCK LINK ===
    0x1029
    0x1019
=== CODE BLOCK END ===

=== CODE BLOCK ADDRESS 0x1029 ===
  0x1029	dec    	ecx
  0x102a	mov    	eax, ecx
  0x102c	dec    	eax
  0x102d	neg    	eax
  0x102f	sbb    	eax, eax
  === BLOCK LINK ===
    0x1031
=== CODE BLOCK END ===

=== CODE BLOCK ADDRESS 0x1031 ===
  0x1031	not    	eax
  0x1033	and    	eax, 0x80070057
  0x1038	dec    	ebp
  0x1039	test   	ecx, ecx
  0x103b	je     	0x1045
  === BLOCK LINK ===
    0x103d
    0x1045
=== CODE BLOCK END ===

=== CODE BLOCK ADDRESS 0x103d ===
  0x103d	dec    	esp
  0x103e	mov    	eax, edx
  0x1040	dec    	ebp
  0x1041	sub    	eax, ecx
  0x1043	jmp    	0x1048
  === BLOCK LINK ===
    0x1045
    0x1048
=== CODE BLOCK END ===

=== CODE BLOCK ADDRESS 0x1045 ===
  0x1045	dec    	ebp
  0x1046	mov    	eax, ebx
  === BLOCK LINK ===
    0x1048
    0x109f
=== CODE BLOCK END ===

=== CODE BLOCK ADDRESS 0x104d ===
  0x104d	dec    	edx
  0x104e	lea    	ecx, [ecx + eax*2]
  0x1051	dec    	ecx
  0x1052	sub    	edx, eax
  0x1054	je     	0x1084
  === BLOCK LINK ===
    0x1056
    0x1084
=== CODE BLOCK END ===

=== CODE BLOCK ADDRESS 0x1056 ===
  0x1056	dec    	ecx
  0x1057	lea    	eax, [eax + 0x7fffe9fe]
  0x105d	dec    	eax
  0x105e	add    	eax, edx
  0x1060	dec    	esp
  === BLOCK LINK ===
    0x1061
=== CODE BLOCK END ===

=== CODE BLOCK ADDRESS 0x1061 ===
  0x1061	sub    	edx, ecx
  === BLOCK LINK ===
    0x1063
=== CODE BLOCK END ===

=== CODE BLOCK ADDRESS 0x1068 ===
  0x1068	inc    	ebp
  0x1069	movzx  	eax, word ptr [edx + ecx]
  0x106d	inc    	bp
  0x106f	test   	eax, eax
  0x1071	je     	0x1084
  === BLOCK LINK ===
    0x1073
    0x1084
=== CODE BLOCK END ===

=== CODE BLOCK ADDRESS 0x1073 ===
  0x1073	inc    	sp
  0x1075	mov    	dword ptr [ecx], eax
  0x1077	dec    	eax
  0x1078	dec    	eax
  0x107a	dec    	eax
  === BLOCK LINK ===
    0x107b
=== CODE BLOCK END ===

=== CODE BLOCK ADDRESS 0x107b ===
  0x107b	add    	ecx, 2
  0x107e	dec    	eax
  0x107f	sub    	edx, 1
  0x1082	jne    	0x1063
  === BLOCK LINK ===
    0x1084
    0x1063
=== CODE BLOCK END ===

=== CODE BLOCK ADDRESS 0x1084 ===
  0x1084	dec    	eax
  0x1085	test   	edx, edx
  0x1087	dec    	eax
  0x1088	lea    	eax, [ecx - 2]
  0x108b	dec    	eax
  === BLOCK LINK ===
    0x108c
=== CODE BLOCK END ===

=== CODE BLOCK ADDRESS 0x108c ===
  0x108c	cmovne  	eax, ecx
  0x108f	dec    	eax
  0x1090	neg    	edx
  0x1092	inc    	sp
  0x1094	mov    	dword ptr [eax], ebx
  === BLOCK LINK ===
    0x1096
=== CODE BLOCK END ===

=== CODE BLOCK ADDRESS 0x1096 ===
  0x1096	sbb    	eax, eax
  0x1098	not    	eax
  0x109a	and    	eax, 0x8007007a
  === BLOCK LINK ===
    0x109f
=== CODE BLOCK END ===

=== CODE BLOCK ADDRESS 0x10a1 ===
  0x10a1	int3   	
  0x10a2	int3   	
  0x10a3	int3   	
  0x10a4	int3   	
  0x10a5	int3   	
  === BLOCK LINK ===
    0x10a6
=== CODE BLOCK END ===

=== CODE BLOCK ADDRESS 0x10a6 ===
  0x10a6	int3   	
  0x10a7	int3   	
  0x10a8	dec    	esp
  0x10a9	mov    	dword ptr [esp + 0x18], eax
  0x10ad	dec    	esp
  === BLOCK LINK ===
    0x10ae
=== CODE BLOCK END ===

=== CODE BLOCK ADDRESS 0x10ae ===
  0x10ae	mov    	dword ptr [esp + 0x20], ecx
  0x10b2	push   	ebx
  0x10b3	push   	ebp
  0x10b4	push   	esi
  0x10b5	push   	edi
  === BLOCK LINK ===
    0x10b6
=== CODE BLOCK END ===

=== CODE BLOCK ADDRESS 0x10b6 ===
  0x10b6	dec    	eax
  0x10b7	sub    	esp, 0x28
  0x10ba	dec    	eax
  0x10bb	shr    	edx, 1
  0x10bd	xor    	ebp, ebp
  === BLOCK LINK ===
    0x10bf
=== CODE BLOCK END ===

=== CODE BLOCK ADDRESS 0x10bf ===
  0x10bf	dec    	eax
  0x10c0	mov    	edi, ecx
  0x10c2	mov    	esi, ebp
  0x10c4	mov    	ecx, 0x80070057
  0x10c9	dec    	eax
  === BLOCK LINK ===
    0x10ca
=== CODE BLOCK END ===

=== CODE BLOCK ADDRESS 0x10ca ===
  0x10ca	lea    	eax, [edx - 1]
  0x10cd	dec    	eax
  0x10ce	cmp    	eax, 0x7ffffffe
  0x10d3	cmova  	esi, ecx
  0x10d6	test   	esi, esi
  === BLOCK LINK ===
    0x10d8
=== CODE BLOCK END ===

=== CODE BLOCK ADDRESS 0x10d8 ===
  0x10d8	js     	0x1115
  === BLOCK LINK ===
    0x10da
    0x1115
=== CODE BLOCK END ===

=== CODE BLOCK ADDRESS 0x10da ===
  0x10da	dec    	eax
  0x10db	lea    	ebx, [edx - 1]
  0x10de	dec    	eax
  0x10df	mov    	ecx, edi
  0x10e1	dec    	eax
  === BLOCK LINK ===
    0x10e2
=== CODE BLOCK END ===

=== CODE BLOCK ADDRESS 0x10e2 ===
  0x10e2	mov    	edx, ebx
  0x10e4	dec    	esp
  0x10e5	lea    	ecx, [esp + 0x68]
  0x10e9	mov    	esi, ebp
  0x10eb	dec    	eax
  === BLOCK LINK ===
    0x10ec
=== CODE BLOCK END ===

=== CODE BLOCK ADDRESS 0x10ec ===
  0x10ec	call   	dword ptr [0x220e]
  === BLOCK LINK ===
    0x10f2
=== CODE BLOCK END ===

=== CODE BLOCK ADDRESS 0x10f2 ===
  0x10f2	nop    	dword ptr [eax + eax]
  0x10f7	test   	eax, eax
  0x10f9	js     	0x110a
  === BLOCK LINK ===
    0x10fb
    0x110a
=== CODE BLOCK END ===

=== CODE BLOCK ADDRESS 0x10fb ===
  0x10fb	dec    	eax
  0x10fc	cwde   	
  0x10fd	dec    	eax
  0x10fe	cmp    	eax, ebx
  0x1100	ja     	0x110a
  === BLOCK LINK ===
    0x1102
    0x110a
=== CODE BLOCK END ===

=== CODE BLOCK ADDRESS 0x1102 ===
  0x1102	jne    	0x111d
  === BLOCK LINK ===
    0x1104
    0x111d
=== CODE BLOCK END ===

=== CODE BLOCK ADDRESS 0x1104 ===
  0x1104	mov    	word ptr [edi + ebx*2], bp
  0x1108	jmp    	0x111d
  === BLOCK LINK ===
    0x110a
    0x111d
=== CODE BLOCK END ===

=== CODE BLOCK ADDRESS 0x110a ===
  0x110a	mov    	word ptr [edi + ebx*2], bp
  0x110e	mov    	esi, 0x8007007a
  0x1113	jmp    	0x111d
  === BLOCK LINK ===
    0x1115
    0x111d
=== CODE BLOCK END ===

=== CODE BLOCK ADDRESS 0x1115 ===
  0x1115	dec    	eax
  0x1116	test   	edx, edx
  0x1118	je     	0x111d
  === BLOCK LINK ===
    0x111a
    0x111d
=== CODE BLOCK END ===

=== CODE BLOCK ADDRESS 0x111a ===
  0x111a	mov    	word ptr [edi], bp
  === BLOCK LINK ===
    0x111d
=== CODE BLOCK END ===

=== CODE BLOCK ADDRESS 0x1124 ===
  0x1124	pop    	esi
  0x1125	pop    	ebp
  0x1126	pop    	ebx
  0x1127	ret    	
  0x1128	int3   	
  === BLOCK LINK ===
    0x1129
=== CODE BLOCK END ===

=== CODE BLOCK ADDRESS 0x1019 ===
  0x1019	inc    	sp
  0x101b	cmp    	dword ptr [eax], ebx
  0x101d	je     	0x1029
  === BLOCK LINK ===
    0x101f
    0x1029
=== CODE BLOCK END ===

=== CODE BLOCK ADDRESS 0x1129 ===
  0x1129	int3   	
  0x112a	int3   	
  0x112b	int3   	
  0x112c	int3   	
  0x112d	int3   	
  === BLOCK LINK ===
    0x112e
=== CODE BLOCK END ===

=== CODE BLOCK ADDRESS 0x112e ===
  0x112e	int3   	
  0x112f	int3   	
  0x1130	dec    	eax
  0x1131	sub    	esp, 0x438
  0x1137	dec    	eax
  === BLOCK LINK ===
    0x1138
=== CODE BLOCK END ===

=== CODE BLOCK ADDRESS 0x1138 ===
  0x1138	mov    	eax, dword ptr [0x3eca]
  0x113e	dec    	eax
  0x113f	xor    	eax, esp
  0x1141	dec    	eax
  0x1142	mov    	dword ptr [esp + 0x420], eax
  === BLOCK LINK ===
    0x1149
=== CODE BLOCK END ===

=== CODE BLOCK ADDRESS 0x1149 ===
  0x1149	cmp    	byte ptr [0x4488], 0
  0x1150	jne    	0x1193
  === BLOCK LINK ===
    0x1152
    0x1193
=== CODE BLOCK END ===

=== CODE BLOCK ADDRESS 0x1152 ===
  0x1152	mov    	edx, ecx
  0x1154	dec    	esp
  0x1155	lea    	eax, [esp + 0x20]
  0x1159	dec    	eax
  0x115a	mov    	ecx, dword ptr [0x44b8]
  === BLOCK LINK ===
    0x1160
=== CODE BLOCK END ===

=== CODE BLOCK ADDRESS 0x1160 ===
  0x1160	inc    	ecx
  0x1161	mov    	ecx, 0x200
  0x1166	dec    	eax
  0x1167	call   	dword ptr [0x210b]
  === BLOCK LINK ===
    0x116d
=== CODE BLOCK END ===

=== CODE BLOCK ADDRESS 0x116d ===
  0x116d	nop    	dword ptr [eax + eax]
  0x1172	test   	eax, eax
  0x1174	je     	0x1193
  === BLOCK LINK ===
    0x1176
    0x1193
=== CODE BLOCK END ===

=== CODE BLOCK ADDRESS 0x1176 ===
  0x1176	inc    	ebp
  0x1177	xor    	ecx, ecx
  0x1179	dec    	esp
  0x117a	lea    	eax, [0x44a0]
  0x1180	dec    	eax
  === BLOCK LINK ===
    0x1181
=== CODE BLOCK END ===

=== CODE BLOCK ADDRESS 0x1181 ===
  0x1181	lea    	edx, [esp + 0x20]
  0x1185	xor    	ecx, ecx
  0x1187	dec    	eax
  0x1188	call   	dword ptr [0x20e2]
  === BLOCK LINK ===
    0x118e
=== CODE BLOCK END ===

=== CODE BLOCK ADDRESS 0x118e ===
  0x118e	nop    	dword ptr [eax + eax]
  === BLOCK LINK ===
    0x1193
=== CODE BLOCK END ===

=== CODE BLOCK ADDRESS 0x119e ===
  0x119e	call   	0x24f0
  === BLOCK LINK ===
    0x11a3
    0x24f0
=== CODE BLOCK END ===

=== CODE BLOCK ADDRESS 0x11a3 ===
  0x11a3	dec    	eax
  0x11a4	add    	esp, 0x438
  0x11aa	ret    	
  0x11ab	int3   	
  0x11ac	int3   	
  === BLOCK LINK ===
    0x11ad
=== CODE BLOCK END ===

=== CODE BLOCK ADDRESS 0x11ad ===
  0x11ad	int3   	
  0x11ae	int3   	
  0x11af	int3   	
  0x11b0	int3   	
  0x11b1	int3   	
  === BLOCK LINK ===
    0x11b2
=== CODE BLOCK END ===

=== CODE BLOCK ADDRESS 0x11b2 ===
  0x11b2	int3   	
  0x11b3	int3   	
  0x11b4	dec    	eax
  0x11b5	mov    	dword ptr [esp + 8], ebx
  0x11b9	dec    	eax
  === BLOCK LINK ===
    0x11ba
=== CODE BLOCK END ===

=== CODE BLOCK ADDRESS 0x11ba ===
  0x11ba	mov    	dword ptr [esp + 0x10], edi
  0x11be	push   	ebp
  0x11bf	dec    	eax
  0x11c0	lea    	ebp, [esp - 0x330]
  0x11c7	dec    	eax
  === BLOCK LINK ===
    0x11c8
=== CODE BLOCK END ===

=== CODE BLOCK ADDRESS 0x11c8 ===
  0x11c8	sub    	esp, 0x430
  0x11ce	dec    	eax
  0x11cf	mov    	eax, dword ptr [0x3e33]
  0x11d5	dec    	eax
  0x11d6	xor    	eax, esp
  === BLOCK LINK ===
    0x11d8
=== CODE BLOCK END ===

=== CODE BLOCK ADDRESS 0x11d8 ===
  0x11d8	dec    	eax
  0x11d9	mov    	dword ptr [ebp + 0x320], eax
  0x11df	cmp    	byte ptr [0x43f2], 0
  0x11e6	jne    	0x1463
  === BLOCK LINK ===
    0x11ec
    0x1463
=== CODE BLOCK END ===

=== CODE BLOCK ADDRESS 0x11ec ===
  0x11ec	mov    	edx, 0x2c00
  0x11f1	mov    	ecx, 0x40
  0x11f6	dec    	eax
  0x11f7	call   	dword ptr [0x1fb3]
  === BLOCK LINK ===
    0x11fd
=== CODE BLOCK END ===

=== CODE BLOCK ADDRESS 0x11fd ===
  0x11fd	nop    	dword ptr [eax + eax]
  0x1202	dec    	eax
  0x1203	mov    	ebx, eax
  0x1205	dec    	eax
  0x1206	test   	eax, eax
  === BLOCK LINK ===
    0x1208
=== CODE BLOCK END ===

=== CODE BLOCK ADDRESS 0x1208 ===
  0x1208	je     	0x1463
  === BLOCK LINK ===
    0x120e
    0x1463
=== CODE BLOCK END ===

=== CODE BLOCK ADDRESS 0x120e ===
  0x120e	dec    	eax
  0x120f	mov    	ecx, dword ptr [0x4403]
  0x1215	mov    	edi, 0x200
  0x121a	inc    	esp
  0x121b	mov    	ecx, edi
  === BLOCK LINK ===
    0x121d
=== CODE BLOCK END ===

=== CODE BLOCK ADDRESS 0x121d ===
  0x121d	dec    	esp
  0x121e	mov    	eax, eax
  0x1220	mov    	edx, 0xfb2
  0x1225	dec    	eax
  0x1226	call   	dword ptr [0x204c]
  === BLOCK LINK ===
    0x122c
=== CODE BLOCK END ===

=== CODE BLOCK ADDRESS 0x122c ===
  0x122c	nop    	dword ptr [eax + eax]
  0x1231	dec    	eax
  0x1232	mov    	ecx, dword ptr [0x43e0]
  0x1238	dec    	esp
  0x1239	lea    	eax, [esp + 0x20]
  === BLOCK LINK ===
    0x123d
=== CODE BLOCK END ===

=== CODE BLOCK ADDRESS 0x123d ===
  0x123d	inc    	esp
  0x123e	mov    	ecx, edi
  0x1240	mov    	edx, 0xfb3
  0x1245	dec    	eax
  0x1246	call   	dword ptr [0x202c]
  === BLOCK LINK ===
    0x124c
=== CODE BLOCK END ===

=== CODE BLOCK ADDRESS 0x124c ===
  0x124c	nop    	dword ptr [eax + eax]
  0x1251	test   	eax, eax
  0x1253	je     	0x1262
  === BLOCK LINK ===
    0x1255
    0x1262
=== CODE BLOCK END ===

=== CODE BLOCK ADDRESS 0x1255 ===
  0x1255	dec    	esp
  0x1256	lea    	eax, [esp + 0x20]
  0x125a	dec    	eax
  0x125b	mov    	ecx, ebx
  0x125d	call   	0x1008
  === BLOCK LINK ===
    0x1262
    0x1008
=== CODE BLOCK END ===

=== CODE BLOCK ADDRESS 0x1262 ===
  0x1262	dec    	eax
  0x1263	mov    	ecx, dword ptr [0x43af]
  0x1269	dec    	esp
  0x126a	lea    	eax, [esp + 0x20]
  0x126e	inc    	esp
  === BLOCK LINK ===
    0x126f
=== CODE BLOCK END ===

=== CODE BLOCK ADDRESS 0x126f ===
  0x126f	mov    	ecx, edi
  0x1271	mov    	edx, 0xfb4
  0x1276	dec    	eax
  0x1277	call   	dword ptr [0x1ffb]
  === BLOCK LINK ===
    0x127d
=== CODE BLOCK END ===

=== CODE BLOCK ADDRESS 0x127d ===
  0x127d	nop    	dword ptr [eax + eax]
  0x1282	test   	eax, eax
  0x1284	je     	0x1293
  === BLOCK LINK ===
    0x1286
    0x1293
=== CODE BLOCK END ===

=== CODE BLOCK ADDRESS 0x1286 ===
  0x1286	dec    	esp
  0x1287	lea    	eax, [esp + 0x20]
  0x128b	dec    	eax
  0x128c	mov    	ecx, ebx
  0x128e	call   	0x1008
  === BLOCK LINK ===
    0x1293
    0x1008
=== CODE BLOCK END ===

=== CODE BLOCK ADDRESS 0x1293 ===
  0x1293	dec    	eax
  0x1294	mov    	ecx, dword ptr [0x437e]
  0x129a	dec    	esp
  0x129b	lea    	eax, [esp + 0x20]
  0x129f	inc    	esp
  === BLOCK LINK ===
    0x12a0
=== CODE BLOCK END ===

=== CODE BLOCK ADDRESS 0x12a0 ===
  0x12a0	mov    	ecx, edi
  0x12a2	mov    	edx, 0xfb5
  0x12a7	dec    	eax
  0x12a8	call   	dword ptr [0x1fca]
  === BLOCK LINK ===
    0x12ae
=== CODE BLOCK END ===

=== CODE BLOCK ADDRESS 0x12ae ===
  0x12ae	nop    	dword ptr [eax + eax]
  0x12b3	test   	eax, eax
  0x12b5	je     	0x12c4
  === BLOCK LINK ===
    0x12b7
    0x12c4
=== CODE BLOCK END ===

=== CODE BLOCK ADDRESS 0x12b7 ===
  0x12b7	dec    	esp
  0x12b8	lea    	eax, [esp + 0x20]
  0x12bc	dec    	eax
  0x12bd	mov    	ecx, ebx
  0x12bf	call   	0x1008
  === BLOCK LINK ===
    0x12c4
    0x1008
=== CODE BLOCK END ===

=== CODE BLOCK ADDRESS 0x12c4 ===
  0x12c4	dec    	eax
  0x12c5	mov    	ecx, dword ptr [0x434d]
  0x12cb	dec    	esp
  0x12cc	lea    	eax, [esp + 0x20]
  0x12d0	inc    	esp
  === BLOCK LINK ===
    0x12d1
=== CODE BLOCK END ===

=== CODE BLOCK ADDRESS 0x12d1 ===
  0x12d1	mov    	ecx, edi
  0x12d3	mov    	edx, 0xfb6
  0x12d8	dec    	eax
  0x12d9	call   	dword ptr [0x1f99]
  === BLOCK LINK ===
    0x12df
=== CODE BLOCK END ===

=== CODE BLOCK ADDRESS 0x12df ===
  0x12df	nop    	dword ptr [eax + eax]
  0x12e4	test   	eax, eax
  0x12e6	je     	0x12f5
  === BLOCK LINK ===
    0x12e8
    0x12f5
=== CODE BLOCK END ===

=== CODE BLOCK ADDRESS 0x12e8 ===
  0x12e8	dec    	esp
  0x12e9	lea    	eax, [esp + 0x20]
  0x12ed	dec    	eax
  0x12ee	mov    	ecx, ebx
  0x12f0	call   	0x1008
  === BLOCK LINK ===
    0x12f5
    0x1008
=== CODE BLOCK END ===

=== CODE BLOCK ADDRESS 0x12f5 ===
  0x12f5	dec    	eax
  0x12f6	mov    	ecx, dword ptr [0x431c]
  0x12fc	dec    	esp
  0x12fd	lea    	eax, [esp + 0x20]
  0x1301	inc    	esp
  === BLOCK LINK ===
    0x1302
=== CODE BLOCK END ===

=== CODE BLOCK ADDRESS 0x1302 ===
  0x1302	mov    	ecx, edi
  0x1304	mov    	edx, 0xfb7
  0x1309	dec    	eax
  0x130a	call   	dword ptr [0x1f68]
  === BLOCK LINK ===
    0x1310
=== CODE BLOCK END ===

=== CODE BLOCK ADDRESS 0x1310 ===
  0x1310	nop    	dword ptr [eax + eax]
  0x1315	test   	eax, eax
  0x1317	je     	0x1326
  === BLOCK LINK ===
    0x1319
    0x1326
=== CODE BLOCK END ===

=== CODE BLOCK ADDRESS 0x1319 ===
  0x1319	dec    	esp
  0x131a	lea    	eax, [esp + 0x20]
  0x131e	dec    	eax
  0x131f	mov    	ecx, ebx
  0x1321	call   	0x1008
  === BLOCK LINK ===
    0x1326
    0x1008
=== CODE BLOCK END ===

=== CODE BLOCK ADDRESS 0x1326 ===
  0x1326	dec    	eax
  0x1327	mov    	ecx, dword ptr [0x42eb]
  0x132d	dec    	esp
  0x132e	lea    	eax, [esp + 0x20]
  0x1332	inc    	esp
  === BLOCK LINK ===
    0x1333
=== CODE BLOCK END ===

=== CODE BLOCK ADDRESS 0x1333 ===
  0x1333	mov    	ecx, edi
  0x1335	mov    	edx, 0xfb8
  0x133a	dec    	eax
  0x133b	call   	dword ptr [0x1f37]
  === BLOCK LINK ===
    0x1341
=== CODE BLOCK END ===

=== CODE BLOCK ADDRESS 0x1341 ===
  0x1341	nop    	dword ptr [eax + eax]
  0x1346	test   	eax, eax
  0x1348	je     	0x1357
  === BLOCK LINK ===
    0x134a
=== CODE BLOCK END ===

=== CODE BLOCK ADDRESS 0x134a ===
  0x134a	dec    	esp
  0x134b	lea    	eax, [esp + 0x20]
  0x134f	dec    	eax
  0x1350	mov    	ecx, ebx
  0x1352	call   	0x1008
  === BLOCK LINK ===
    0x1357
=== CODE BLOCK END ===

=== CODE BLOCK ADDRESS 0x1357 ===
  0x1357	dec    	eax
  0x1358	mov    	ecx, dword ptr [0x42ba]
  0x135e	dec    	esp
  0x135f	lea    	eax, [esp + 0x20]
  0x1363	inc    	esp
  === BLOCK LINK ===
    0x1364
=== CODE BLOCK END ===

=== CODE BLOCK ADDRESS 0x1364 ===
  0x1364	mov    	ecx, edi
  0x1366	mov    	edx, 0xfb9
  0x136b	dec    	eax
  0x136c	call   	dword ptr [0x1f06]
  === BLOCK LINK ===
    0x1372
=== CODE BLOCK END ===

=== CODE BLOCK ADDRESS 0x1372 ===
  0x1372	nop    	dword ptr [eax + eax]
  0x1377	test   	eax, eax
  0x1379	je     	0x1388
  === BLOCK LINK ===
    0x137b
=== CODE BLOCK END ===

=== CODE BLOCK ADDRESS 0x137b ===
  0x137b	dec    	esp
  0x137c	lea    	eax, [esp + 0x20]
  0x1380	dec    	eax
  0x1381	mov    	ecx, ebx
  0x1383	call   	0x1008
  === BLOCK LINK ===
    0x1388
=== CODE BLOCK END ===

=== CODE BLOCK ADDRESS 0x1388 ===
  0x1388	dec    	eax
  0x1389	mov    	ecx, dword ptr [0x4289]
  0x138f	dec    	esp
  0x1390	lea    	eax, [esp + 0x20]
  0x1394	inc    	esp
  === BLOCK LINK ===
    0x1395
=== CODE BLOCK END ===

=== CODE BLOCK ADDRESS 0x1395 ===
  0x1395	mov    	ecx, edi
  0x1397	mov    	edx, 0xfba
  0x139c	dec    	eax
  0x139d	call   	dword ptr [0x1ed5]
  === BLOCK LINK ===
    0x13a3
=== CODE BLOCK END ===

=== CODE BLOCK ADDRESS 0x13a3 ===
  0x13a3	nop    	dword ptr [eax + eax]
  0x13a8	test   	eax, eax
  0x13aa	je     	0x13b9
  === BLOCK LINK ===
    0x13ac
=== CODE BLOCK END ===

=== CODE BLOCK ADDRESS 0x13ac ===
  0x13ac	dec    	esp
  0x13ad	lea    	eax, [esp + 0x20]
  0x13b1	dec    	eax
  0x13b2	mov    	ecx, ebx
  0x13b4	call   	0x1008
  === BLOCK LINK ===
    0x13b9
=== CODE BLOCK END ===

=== CODE BLOCK ADDRESS 0x13b9 ===
  0x13b9	dec    	eax
  0x13ba	mov    	ecx, dword ptr [0x4258]
  0x13c0	dec    	esp
  0x13c1	lea    	eax, [esp + 0x20]
  0x13c5	inc    	esp
  === BLOCK LINK ===
    0x13c6
=== CODE BLOCK END ===

=== CODE BLOCK ADDRESS 0x13c6 ===
  0x13c6	mov    	ecx, edi
  0x13c8	mov    	edx, 0xfbb
  0x13cd	dec    	eax
  0x13ce	call   	dword ptr [0x1ea4]
  === BLOCK LINK ===
    0x13d4
=== CODE BLOCK END ===

=== CODE BLOCK ADDRESS 0x13d4 ===
  0x13d4	nop    	dword ptr [eax + eax]
  0x13d9	test   	eax, eax
  0x13db	je     	0x13ea
  === BLOCK LINK ===
    0x13dd
=== CODE BLOCK END ===

=== CODE BLOCK ADDRESS 0x13dd ===
  0x13dd	dec    	esp
  0x13de	lea    	eax, [esp + 0x20]
  0x13e2	dec    	eax
  0x13e3	mov    	ecx, ebx
  0x13e5	call   	0x1008
  === BLOCK LINK ===
    0x13ea
=== CODE BLOCK END ===

=== CODE BLOCK ADDRESS 0x13ea ===
  0x13ea	dec    	eax
  0x13eb	mov    	ecx, dword ptr [0x4227]
  0x13f1	dec    	esp
  0x13f2	lea    	eax, [esp + 0x20]
  0x13f6	inc    	esp
  === BLOCK LINK ===
    0x13f7
=== CODE BLOCK END ===

=== CODE BLOCK ADDRESS 0x13f7 ===
  0x13f7	mov    	ecx, edi
  0x13f9	mov    	edx, 0xfbc
  0x13fe	dec    	eax
  0x13ff	call   	dword ptr [0x1e73]
  === BLOCK LINK ===
    0x1405
=== CODE BLOCK END ===

=== CODE BLOCK ADDRESS 0x1405 ===
  0x1405	nop    	dword ptr [eax + eax]
  0x140a	test   	eax, eax
  0x140c	je     	0x141b
  === BLOCK LINK ===
    0x140e
=== CODE BLOCK END ===

=== CODE BLOCK ADDRESS 0x140e ===
  0x140e	dec    	esp
  0x140f	lea    	eax, [esp + 0x20]
  0x1413	dec    	eax
  0x1414	mov    	ecx, ebx
  0x1416	call   	0x1008
  === BLOCK LINK ===
    0x141b
=== CODE BLOCK END ===

=== CODE BLOCK ADDRESS 0x141b ===
  0x141b	dec    	eax
  0x141c	mov    	ecx, dword ptr [0x41f6]
  0x1422	dec    	esp
  0x1423	lea    	eax, [esp + 0x20]
  0x1427	inc    	esp
  === BLOCK LINK ===
    0x1428
=== CODE BLOCK END ===

=== CODE BLOCK ADDRESS 0x1428 ===
  0x1428	mov    	ecx, edi
  0x142a	mov    	edx, 0xfbd
  0x142f	dec    	eax
  0x1430	call   	dword ptr [0x1e42]
  === BLOCK LINK ===
    0x1436
=== CODE BLOCK END ===

=== CODE BLOCK ADDRESS 0x1436 ===
  0x1436	nop    	dword ptr [eax + eax]
  0x143b	inc    	ebp
  0x143c	xor    	ecx, ecx
  0x143e	dec    	esp
  0x143f	lea    	eax, [esp + 0x20]
  === BLOCK LINK ===
    0x1443
=== CODE BLOCK END ===

=== CODE BLOCK ADDRESS 0x1443 ===
  0x1443	dec    	eax
  0x1444	mov    	edx, ebx
  0x1446	xor    	ecx, ecx
  0x1448	dec    	eax
  0x1449	call   	dword ptr [0x1e21]
  === BLOCK LINK ===
    0x144f
=== CODE BLOCK END ===

=== CODE BLOCK ADDRESS 0x144f ===
  0x144f	nop    	dword ptr [eax + eax]
  0x1454	dec    	eax
  0x1455	mov    	ecx, ebx
  0x1457	dec    	eax
  0x1458	call   	dword ptr [0x1d5a]
  === BLOCK LINK ===
    0x145e
=== CODE BLOCK END ===

=== CODE BLOCK ADDRESS 0x145e ===
  0x145e	nop    	dword ptr [eax + eax]
  === BLOCK LINK ===
    0x1463
=== CODE BLOCK END ===

=== CODE BLOCK ADDRESS 0x146d ===
  0x146d	call   	0x24f0
  === BLOCK LINK ===
    0x1472
=== CODE BLOCK END ===

=== CODE BLOCK ADDRESS 0x1472 ===
  0x1472	dec    	esp
  0x1473	lea    	ebx, [esp + 0x430]
  0x147a	dec    	ecx
  0x147b	mov    	ebx, dword ptr [ebx + 0x10]
  0x147e	dec    	ecx
  === BLOCK LINK ===
    0x147f
=== CODE BLOCK END ===

=== CODE BLOCK ADDRESS 0x147f ===
  0x147f	mov    	edi, dword ptr [ebx + 0x18]
  0x1482	dec    	ecx
  0x1483	mov    	esp, ebx
  0x1485	pop    	ebp
  0x1486	ret    	
  === BLOCK LINK ===
    0x1487
=== CODE BLOCK END ===

=== CODE BLOCK ADDRESS 0x1048 ===
  0x1048	dec    	ebp
  0x1049	test   	ecx, ecx
  0x104b	je     	0x109f
  === BLOCK LINK ===
    0x104d
=== CODE BLOCK END ===

=== CODE BLOCK ADDRESS 0x1487 ===
  0x1487	int3   	
  0x1488	int3   	
  0x1489	int3   	
  0x148a	int3   	
  0x148b	int3   	
  === BLOCK LINK ===
    0x148c
=== CODE BLOCK END ===

=== CODE BLOCK ADDRESS 0x148c ===
  0x148c	int3   	
  0x148d	int3   	
  0x148e	int3   	
  0x148f	int3   	
  0x1490	dec    	eax
  === BLOCK LINK ===
    0x1491
=== CODE BLOCK END ===

=== CODE BLOCK ADDRESS 0x1491 ===
  0x1491	mov    	eax, dword ptr [0x4149]
  0x1497	inc    	ebp
  0x1498	xor    	ecx, ecx
  0x149a	dec    	eax
  0x149b	test   	ecx, ecx
  === BLOCK LINK ===
    0x149d
=== CODE BLOCK END ===

=== CODE BLOCK ADDRESS 0x149d ===
  0x149d	dec    	eax
  0x149e	cmovne  	eax, ecx
  0x14a1	dec    	eax
  0x14a2	mov    	dword ptr [0x4138], eax
  0x14a8	dec    	eax
  === BLOCK LINK ===
    0x14a9
=== CODE BLOCK END ===

=== CODE BLOCK ADDRESS 0x14a9 ===
  0x14a9	test   	eax, eax
  0x14ab	je     	0x1520
  === BLOCK LINK ===
    0x14ad
=== CODE BLOCK END ===

=== CODE BLOCK ADDRESS 0x14ad ===
  0x14ad	movzx  	ecx, word ptr [eax]
  0x14b0	test   	cx, cx
  0x14b3	je     	0x1520
  === BLOCK LINK ===
    0x14b5
=== CODE BLOCK END ===

=== CODE BLOCK ADDRESS 0x14b5 ===
  0x14b5	cmp    	cx, 0x20
  0x14b9	je     	0x14c1
  === BLOCK LINK ===
    0x14bb
=== CODE BLOCK END ===

=== CODE BLOCK ADDRESS 0x14bb ===
  0x14bb	cmp    	cx, 9
  0x14bf	jne    	0x14cd
  === BLOCK LINK ===
    0x14c1
=== CODE BLOCK END ===

=== CODE BLOCK ADDRESS 0x14c1 ===
  0x14c1	dec    	eax
  0x14c2	add    	eax, 2
  0x14c5	movzx  	ecx, word ptr [eax]
  0x14c8	test   	cx, cx
  0x14cb	jne    	0x14b5
  === BLOCK LINK ===
    0x14cd
=== CODE BLOCK END ===

=== CODE BLOCK ADDRESS 0x14cd ===
  0x14cd	dec    	eax
  0x14ce	mov    	dword ptr [0x410c], eax
  0x14d4	inc    	sp
  0x14d6	cmp    	dword ptr [eax], ecx
  0x14d8	je     	0x1520
  === BLOCK LINK ===
    0x14da
=== CODE BLOCK END ===

=== CODE BLOCK ADDRESS 0x14da ===
  0x14da	dec    	eax
  0x14db	mov    	edx, eax
  0x14dd	dec    	eax
  0x14de	mov    	ecx, eax
  0x14e0	cmp    	word ptr [eax], 0x20
  === BLOCK LINK ===
    0x14e4
=== CODE BLOCK END ===

=== CODE BLOCK ADDRESS 0x14e4 ===
  0x14e4	dec    	esp
  0x14e5	mov    	eax, ecx
  0x14e7	je     	0x14ff
  === BLOCK LINK ===
    0x14e9
=== CODE BLOCK END ===

=== CODE BLOCK ADDRESS 0x14e9 ===
  0x14e9	cmp    	word ptr [eax], 9
  0x14ed	je     	0x14ff
  === BLOCK LINK ===
    0x14ef
=== CODE BLOCK END ===

=== CODE BLOCK ADDRESS 0x14ef ===
  0x14ef	dec    	eax
  0x14f0	lea    	eax, [ecx + 2]
  0x14f3	dec    	eax
  0x14f4	mov    	ecx, eax
  0x14f6	dec    	esp
  === BLOCK LINK ===
    0x14f7
=== CODE BLOCK END ===

=== CODE BLOCK ADDRESS 0x14f7 ===
  0x14f7	mov    	eax, eax
  0x14f9	inc    	sp
  0x14fb	cmp    	dword ptr [eax], ecx
  0x14fd	jne    	0x14e0
  === BLOCK LINK ===
    0x14ff
=== CODE BLOCK END ===

=== CODE BLOCK ADDRESS 0x14ff ===
  0x14ff	dec    	eax
  0x1500	mov    	dword ptr [0x40da], eax
  0x1506	inc    	sp
  0x1508	cmp    	dword ptr [eax], ecx
  0x150a	je     	0x151b
  === BLOCK LINK ===
    0x150c
=== CODE BLOCK END ===

=== CODE BLOCK ADDRESS 0x150c ===
  0x150c	dec    	ecx
  0x150d	lea    	ecx, [eax + 2]
  0x1510	inc    	sp
  0x1512	mov    	dword ptr [eax], ecx
  0x1514	dec    	eax
  === BLOCK LINK ===
    0x1515
=== CODE BLOCK END ===

=== CODE BLOCK ADDRESS 0x1515 ===
  0x1515	mov    	dword ptr [0x40c5], ecx
  0x151b	dec    	eax
  0x151c	mov    	eax, edx
  0x151e	ret    	
  0x151f	int3   	
  === BLOCK LINK ===
    0x1520
=== CODE BLOCK END ===

=== CODE BLOCK ADDRESS 0x109f ===
  0x109f	ret    	
  0x10a0	int3   	
  === BLOCK LINK ===
    0x10a1
=== CODE BLOCK END ===

=== CODE BLOCK ADDRESS 0x1520 ===
  0x1520	xor    	eax, eax
  0x1522	ret    	
  0x1523	int3   	
  0x1524	int3   	
  0x1525	int3   	
  === BLOCK LINK ===
    0x1526
=== CODE BLOCK END ===

=== CODE BLOCK ADDRESS 0x1526 ===
  0x1526	int3   	
  0x1527	int3   	
  0x1528	int3   	
  0x1529	int3   	
  0x152a	int3   	
  === BLOCK LINK ===
    0x152b
=== CODE BLOCK END ===

=== CODE BLOCK ADDRESS 0x152b ===
  0x152b	int3   	
  0x152c	inc    	eax
  0x152d	push   	ebx
  0x152e	dec    	eax
  0x152f	sub    	esp, 0x20
  === BLOCK LINK ===
    0x1532
=== CODE BLOCK END ===

=== CODE BLOCK ADDRESS 0x1532 ===
  0x1532	movzx  	eax, word ptr [ecx]
  0x1535	inc    	ebp
  0x1536	xor    	eax, eax
  0x1538	inc    	cx
  0x153a	mov    	ebx, 0x83660020
  === BLOCK LINK ===
    0x153f
=== CODE BLOCK END ===

=== CODE BLOCK ADDRESS 0x153f ===
  0x153f	clc    	
  0x1540	and    	dh, byte ptr [ebp + 0x3b]
  0x1543	dec    	eax
  0x1544	add    	ecx, 2
  0x1547	movzx  	edx, word ptr [ecx]
  === BLOCK LINK ===
    0x154a
=== CODE BLOCK END ===

=== CODE BLOCK ADDRESS 0x154a ===
  0x154a	test   	dx, dx
  0x154d	je     	0x156a
  === BLOCK LINK ===
    0x154f
=== CODE BLOCK END ===

=== CODE BLOCK ADDRESS 0x154f ===
  0x154f	movzx  	eax, dx
  0x1552	movzx  	edx, ax
  0x1555	cmp    	ax, 0x22
  0x1559	je     	0x156a
  === BLOCK LINK ===
    0x155b
=== CODE BLOCK END ===

=== CODE BLOCK ADDRESS 0x155b ===
  0x155b	dec    	eax
  0x155c	add    	ecx, 2
  0x155f	movzx  	edx, word ptr [ecx]
  0x1562	movzx  	eax, dx
  0x1565	test   	dx, dx
  === BLOCK LINK ===
    0x1568
=== CODE BLOCK END ===

=== CODE BLOCK ADDRESS 0x1568 ===
  0x1568	jne    	0x1552
  === BLOCK LINK ===
    0x156a
=== CODE BLOCK END ===

=== CODE BLOCK ADDRESS 0x156a ===
  0x156a	dec    	eax
  0x156b	lea    	eax, [ecx + 2]
  0x156e	cmp    	dx, 0x22
  0x1572	dec    	eax
  0x1573	cmovne  	eax, ecx
  === BLOCK LINK ===
    0x1576
=== CODE BLOCK END ===

=== CODE BLOCK ADDRESS 0x1576 ===
  0x1576	dec    	eax
  0x1577	mov    	ecx, eax
  0x1579	movzx  	eax, word ptr [eax]
  0x157c	jmp    	0x15b4
  === BLOCK LINK ===
    0x157e
=== CODE BLOCK END ===

=== CODE BLOCK ADDRESS 0x157e ===
  0x157e	test   	ax, ax
  0x1581	je     	0x169e
  === BLOCK LINK ===
    0x1587
=== CODE BLOCK END ===

=== CODE BLOCK ADDRESS 0x1587 ===
  0x1587	movzx  	edx, ax
  0x158a	movzx  	eax, dx
  0x158d	inc    	cx
  0x158f	cmp    	edx, ebx
  0x1591	je     	0x15b4
  === BLOCK LINK ===
    0x1593
=== CODE BLOCK END ===

=== CODE BLOCK ADDRESS 0x1593 ===
  0x1593	cmp    	dx, 9
  0x1597	je     	0x15b4
  === BLOCK LINK ===
    0x1599
=== CODE BLOCK END ===

=== CODE BLOCK ADDRESS 0x1599 ===
  0x1599	cmp    	dx, 0xa
  0x159d	je     	0x15b4
  === BLOCK LINK ===
    0x159f
=== CODE BLOCK END ===

=== CODE BLOCK ADDRESS 0x159f ===
  0x159f	cmp    	dx, 0xd
  0x15a3	je     	0x15b4
  === BLOCK LINK ===
    0x15a5
=== CODE BLOCK END ===

=== CODE BLOCK ADDRESS 0x15a5 ===
  0x15a5	dec    	eax
  0x15a6	add    	ecx, 2
  0x15a9	movzx  	eax, word ptr [ecx]
  0x15ac	movzx  	edx, ax
  0x15af	test   	ax, ax
  === BLOCK LINK ===
    0x15b2
=== CODE BLOCK END ===

=== CODE BLOCK ADDRESS 0x15b2 ===
  0x15b2	jne    	0x158a
  === BLOCK LINK ===
    0x15b4
=== CODE BLOCK END ===

=== CODE BLOCK ADDRESS 0x15b4 ===
  0x15b4	test   	ax, ax
  0x15b7	je     	0x169e
  === BLOCK LINK ===
    0x15bd
=== CODE BLOCK END ===

=== CODE BLOCK ADDRESS 0x15bd ===
  0x15bd	mov    	ebx, 0xffdf
  0x15c2	dec    	ecx
  0x15c3	mov    	edx, 0x2600
  0x15c8	add    	dword ptr [eax], eax
  0x15ca	add    	byte ptr [eax], al
  === BLOCK LINK ===
    0x15cc
=== CODE BLOCK END ===

=== CODE BLOCK ADDRESS 0x15cc ===
  0x15cc	movzx  	edx, word ptr [ecx]
  0x15cf	inc    	cx
  0x15d1	cmp    	edx, ebx
  0x15d3	ja     	0x15e1
  === BLOCK LINK ===
    0x15d5
=== CODE BLOCK END ===

=== CODE BLOCK ADDRESS 0x15d5 ===
  0x15d5	dec    	ecx
  0x15d6	bt     	edx, edx
  0x15d9	jae    	0x15e1
  === BLOCK LINK ===
    0x15db
=== CODE BLOCK END ===

=== CODE BLOCK ADDRESS 0x15db ===
  0x15db	dec    	eax
  0x15dc	add    	ecx, 2
  0x15df	jmp    	0x15cc
  === BLOCK LINK ===
    0x15e1
=== CODE BLOCK END ===

=== CODE BLOCK ADDRESS 0x15e1 ===
  0x15e1	sub    	dx, 0x2d
  0x15e5	mov    	eax, 0xfffd
  0x15ea	test   	ax, dx
  0x15ed	jne    	0x169e
  === BLOCK LINK ===
    0x15f3
=== CODE BLOCK END ===

=== CODE BLOCK ADDRESS 0x15f3 ===
  0x15f3	movzx  	edx, word ptr [ecx + 2]
  0x15f7	lea    	eax, [edx - 0x52]
  0x15fa	test   	bx, ax
  0x15fd	je     	0x164e
  === BLOCK LINK ===
    0x15ff
=== CODE BLOCK END ===

=== CODE BLOCK ADDRESS 0x15ff ===
  0x15ff	lea    	eax, [edx - 0x51]
  0x1602	test   	bx, ax
  0x1605	je     	0x1632
  === BLOCK LINK ===
    0x1607
=== CODE BLOCK END ===

=== CODE BLOCK ADDRESS 0x1607 ===
  0x1607	lea    	eax, [edx - 0x58]
  0x160a	test   	bx, ax
  0x160d	jne    	0x1678
  === BLOCK LINK ===
    0x160f
=== CODE BLOCK END ===

=== CODE BLOCK ADDRESS 0x160f ===
  0x160f	dec    	eax
  0x1610	add    	ecx, 4
  0x1613	inc    	sp
  0x1615	cmp    	dword ptr [ecx], ebx
  0x1617	ja     	0x169e
  === BLOCK LINK ===
    0x161d
=== CODE BLOCK END ===

=== CODE BLOCK ADDRESS 0x161d ===
  0x161d	movzx  	eax, word ptr [ecx]
  0x1620	dec    	ecx
  0x1621	bt     	edx, eax
  0x1624	jae    	0x169e
  === BLOCK LINK ===
    0x1626
=== CODE BLOCK END ===

=== CODE BLOCK ADDRESS 0x1626 ===
  0x1626	mov    	dword ptr [0x3fb8], 1
  0x1630	jmp    	0x166b
  === BLOCK LINK ===
    0x1632
=== CODE BLOCK END ===

=== CODE BLOCK ADDRESS 0x1632 ===
  0x1632	dec    	eax
  0x1633	add    	ecx, 4
  0x1636	movzx  	edx, word ptr [ecx]
  0x1639	inc    	cx
  0x163b	cmp    	edx, ebx
  === BLOCK LINK ===
    0x163d
=== CODE BLOCK END ===

=== CODE BLOCK ADDRESS 0x163d ===
  0x163d	ja     	0x169e
  === BLOCK LINK ===
    0x163f
=== CODE BLOCK END ===

=== CODE BLOCK ADDRESS 0x163f ===
  0x163f	dec    	ecx
  0x1640	bt     	edx, edx
  0x1643	jae    	0x169e
  === BLOCK LINK ===
    0x1645
=== CODE BLOCK END ===

=== CODE BLOCK ADDRESS 0x1645 ===
  0x1645	mov    	byte ptr [0x3f8c], 1
  0x164c	jmp    	0x166e
  === BLOCK LINK ===
    0x164e
=== CODE BLOCK END ===

=== CODE BLOCK ADDRESS 0x164e ===
  0x164e	dec    	eax
  0x164f	add    	ecx, 4
  0x1652	inc    	sp
  0x1654	cmp    	dword ptr [ecx], ebx
  0x1656	ja     	0x169e
  === BLOCK LINK ===
    0x1658
=== CODE BLOCK END ===

=== CODE BLOCK ADDRESS 0x1658 ===
  0x1658	movzx  	eax, word ptr [ecx]
  0x165b	dec    	ecx
  0x165c	bt     	edx, eax
  0x165f	jae    	0x169e
  === BLOCK LINK ===
    0x1661
=== CODE BLOCK END ===

=== CODE BLOCK ADDRESS 0x1661 ===
  0x1661	mov    	dword ptr [0x3f71], 1
  0x166b	movzx  	edx, word ptr [ecx]
  0x166e	test   	dx, dx
  0x1671	je     	0x169e
  === BLOCK LINK ===
    0x1673
=== CODE BLOCK END ===

=== CODE BLOCK ADDRESS 0x1673 ===
  0x1673	jmp    	0x15cc
  === BLOCK LINK ===
    0x1678
=== CODE BLOCK END ===

=== CODE BLOCK ADDRESS 0x1678 ===
  0x1678	sub    	dx, 0x43
  0x167c	test   	bx, dx
  0x167f	jne    	0x169e
  === BLOCK LINK ===
    0x1681
=== CODE BLOCK END ===

=== CODE BLOCK ADDRESS 0x1681 ===
  0x1681	inc    	sp
  0x1683	cmp    	dword ptr [ecx + 4], ebx
  0x1686	ja     	0x169e
  === BLOCK LINK ===
    0x1688
=== CODE BLOCK END ===

=== CODE BLOCK ADDRESS 0x1688 ===
  0x1688	movzx  	eax, word ptr [ecx + 4]
  0x168c	dec    	ecx
  0x168d	bt     	edx, eax
  0x1690	jae    	0x169e
  === BLOCK LINK ===
    0x1692
=== CODE BLOCK END ===

=== CODE BLOCK ADDRESS 0x1692 ===
  0x1692	dec    	eax
  0x1693	add    	ecx, 6
  0x1696	call   	0x2050
  === BLOCK LINK ===
    0x169b
=== CODE BLOCK END ===

=== CODE BLOCK ADDRESS 0x169b ===
  0x169b	inc    	esp
  0x169c	mov    	eax, eax
  0x169e	inc    	ecx
  0x169f	mov    	eax, eax
  0x16a1	dec    	eax
  === BLOCK LINK ===
    0x16a2
=== CODE BLOCK END ===

=== CODE BLOCK ADDRESS 0x16a2 ===
  0x16a2	add    	esp, 0x20
  0x16a5	pop    	ebx
  0x16a6	ret    	
  0x16a7	int3   	
  0x16a8	int3   	
  === BLOCK LINK ===
    0x16a9
=== CODE BLOCK END ===

=== CODE BLOCK ADDRESS 0x16a9 ===
  0x16a9	int3   	
  0x16aa	int3   	
  0x16ab	int3   	
  0x16ac	int3   	
  0x16ad	int3   	
  === BLOCK LINK ===
    0x16ae
=== CODE BLOCK END ===

=== CODE BLOCK ADDRESS 0x16ae ===
  0x16ae	int3   	
  0x16af	int3   	
  0x16b0	dec    	eax
  0x16b1	mov    	dword ptr [esp + 8], ebx
  0x16b5	push   	ebp
  === BLOCK LINK ===
    0x16b6
=== CODE BLOCK END ===

=== CODE BLOCK ADDRESS 0x16b6 ===
  0x16b6	dec    	eax
  0x16b7	mov    	ebp, esp
  0x16b9	dec    	eax
  0x16ba	sub    	esp, 0x80
  0x16c0	dec    	eax
  === BLOCK LINK ===
    0x16c1
=== CODE BLOCK END ===

=== CODE BLOCK ADDRESS 0x16c1 ===
  0x16c1	mov    	eax, dword ptr [0x3941]
  0x16c7	dec    	eax
  0x16c8	xor    	eax, esp
  0x16ca	dec    	eax
  0x16cb	mov    	dword ptr [ebp - 8], eax
  === BLOCK LINK ===
    0x16ce
=== CODE BLOCK END ===

=== CODE BLOCK ADDRESS 0x16ce ===
  0x16ce	inc    	ebp
  0x16cf	xor    	ecx, ecx
  0x16d1	inc    	ebp
  0x16d2	xor    	eax, eax
  0x16d4	xor    	ecx, ecx
  === BLOCK LINK ===
    0x16d6
=== CODE BLOCK END ===

=== CODE BLOCK ADDRESS 0x16d6 ===
  0x16d6	inc    	ecx
  0x16d7	lea    	edx, [ecx + 1]
  0x16da	dec    	eax
  0x16db	call   	dword ptr [0x1ae7]
  === BLOCK LINK ===
    0x16e1
=== CODE BLOCK END ===

=== CODE BLOCK ADDRESS 0x16e1 ===
  0x16e1	nop    	dword ptr [eax + eax]
  0x16e6	xor    	ecx, ecx
  0x16e8	dec    	eax
  0x16e9	call   	dword ptr [0x1ae1]
  === BLOCK LINK ===
    0x16ef
=== CODE BLOCK END ===

=== CODE BLOCK ADDRESS 0x16ef ===
  0x16ef	nop    	dword ptr [eax + eax]
  0x16f4	inc    	ecx
  0x16f5	mov    	ecx, 0x200
  0x16fa	dec    	esp
  0x16fb	lea    	eax, [0x3f1f]
  === BLOCK LINK ===
    0x1701
=== CODE BLOCK END ===

=== CODE BLOCK ADDRESS 0x1701 ===
  0x1701	dec    	eax
  0x1702	mov    	ecx, eax
  0x1704	dec    	eax
  0x1705	mov    	dword ptr [0x3f0d], eax
  0x170b	mov    	edx, 0xfb0
  === BLOCK LINK ===
    0x1710
=== CODE BLOCK END ===

=== CODE BLOCK ADDRESS 0x1710 ===
  0x1710	dec    	eax
  0x1711	call   	dword ptr [0x1b61]
  === BLOCK LINK ===
    0x1717
=== CODE BLOCK END ===

=== CODE BLOCK ADDRESS 0x1717 ===
  0x1717	nop    	dword ptr [eax + eax]
  0x171c	xor    	ebx, ebx
  0x171e	mov    	word ptr [ebp - 0xc], 0x500
  0x1724	dec    	eax
  0x1725	lea    	eax, [ebp - 0x18]
  === BLOCK LINK ===
    0x1728
=== CODE BLOCK END ===

=== CODE BLOCK ADDRESS 0x1728 ===
  0x1728	mov    	dword ptr [ebp - 0x20], ebx
  0x172b	dec    	eax
  0x172c	mov    	dword ptr [esp + 0x50], eax
  0x1730	dec    	eax
  0x1731	lea    	ecx, [ebp - 0x10]
  === BLOCK LINK ===
    0x1734
=== CODE BLOCK END ===

=== CODE BLOCK ADDRESS 0x1734 ===
  0x1734	mov    	dword ptr [esp + 0x48], ebx
  0x1738	inc    	ecx
  0x1739	mov    	ecx, 0x220
  0x173e	mov    	dword ptr [esp + 0x40], ebx
  0x1742	inc    	esp
  === BLOCK LINK ===
    0x1743
=== CODE BLOCK END ===

=== CODE BLOCK ADDRESS 0x1743 ===
  0x1743	lea    	eax, [ebx + 0x20]
  0x1746	mov    	dword ptr [esp + 0x38], ebx
  0x174a	mov    	dl, 2
  0x174c	mov    	dword ptr [esp + 0x30], ebx
  0x1750	mov    	dword ptr [esp + 0x28], ebx
  === BLOCK LINK ===
    0x1754
=== CODE BLOCK END ===

=== CODE BLOCK ADDRESS 0x1754 ===
  0x1754	mov    	dword ptr [esp + 0x20], ebx
  0x1758	mov    	dword ptr [ebp - 0x10], ebx
  0x175b	dec    	eax
  0x175c	call   	dword ptr [0x19fe]
  === BLOCK LINK ===
    0x1762
=== CODE BLOCK END ===

=== CODE BLOCK ADDRESS 0x1762 ===
  0x1762	nop    	dword ptr [eax + eax]
  0x1767	test   	eax, eax
  0x1769	je     	0x1791
  === BLOCK LINK ===
    0x176b
=== CODE BLOCK END ===

=== CODE BLOCK ADDRESS 0x176b ===
  0x176b	dec    	eax
  0x176c	mov    	edx, dword ptr [ebp - 0x18]
  0x176f	dec    	esp
  0x1770	lea    	eax, [ebp - 0x20]
  0x1773	xor    	ecx, ecx
  === BLOCK LINK ===
    0x1775
=== CODE BLOCK END ===

=== CODE BLOCK ADDRESS 0x1775 ===
  0x1775	dec    	eax
  0x1776	call   	dword ptr [0x19bc]
  === BLOCK LINK ===
    0x177c
=== CODE BLOCK END ===

=== CODE BLOCK ADDRESS 0x177c ===
  0x177c	nop    	dword ptr [eax + eax]
  0x1781	dec    	eax
  0x1782	mov    	ecx, dword ptr [ebp - 0x18]
  0x1785	dec    	eax
  0x1786	call   	dword ptr [0x19b4]
  === BLOCK LINK ===
    0x178c
=== CODE BLOCK END ===

=== CODE BLOCK ADDRESS 0x178c ===
  0x178c	nop    	dword ptr [eax + eax]
  0x1791	cmp    	dword ptr [ebp - 0x20], ebx
  0x1794	jne    	0x17a7
  === BLOCK LINK ===
    0x1796
=== CODE BLOCK END ===

=== CODE BLOCK ADDRESS 0x1796 ===
  0x1796	mov    	ecx, 0xfa0
  0x179b	call   	0x1130
  === BLOCK LINK ===
    0x17a0
=== CODE BLOCK END ===

=== CODE BLOCK ADDRESS 0x17a0 ===
  0x17a0	mov    	eax, 1
  0x17a5	jmp    	0x17d2
  === BLOCK LINK ===
    0x17a7
=== CODE BLOCK END ===

=== CODE BLOCK ADDRESS 0x17a7 ===
  0x17a7	dec    	eax
  0x17a8	call   	dword ptr [0x19da]
  === BLOCK LINK ===
    0x17ae
=== CODE BLOCK END ===

=== CODE BLOCK ADDRESS 0x17ae ===
  0x17ae	nop    	dword ptr [eax + eax]
  0x17b3	dec    	eax
  0x17b4	test   	eax, eax
  0x17b6	jne    	0x17bf
  === BLOCK LINK ===
    0x17b8
=== CODE BLOCK END ===

=== CODE BLOCK ADDRESS 0x17b8 ===
  0x17b8	mov    	eax, 2
  0x17bd	jmp    	0x17d2
  === BLOCK LINK ===
    0x17bf
=== CODE BLOCK END ===

=== CODE BLOCK ADDRESS 0x17bf ===
  0x17bf	dec    	eax
  0x17c0	mov    	ecx, eax
  0x17c2	call   	0x152c
  === BLOCK LINK ===
    0x17c7
=== CODE BLOCK END ===

=== CODE BLOCK ADDRESS 0x17c7 ===
  0x17c7	test   	eax, eax
  0x17c9	jne    	0x17d0
  === BLOCK LINK ===
    0x17cb
=== CODE BLOCK END ===

=== CODE BLOCK ADDRESS 0x17cb ===
  0x17cb	call   	0x11b4
  === BLOCK LINK ===
    0x17d0
=== CODE BLOCK END ===

=== CODE BLOCK ADDRESS 0x17d0 ===
  0x17d0	xor    	eax, eax
  0x17d2	dec    	eax
  0x17d3	mov    	ecx, dword ptr [ebp - 8]
  0x17d6	dec    	eax
  0x17d7	xor    	ecx, esp
  === BLOCK LINK ===
    0x17d9
=== CODE BLOCK END ===

=== CODE BLOCK ADDRESS 0x17d9 ===
  0x17d9	call   	0x24f0
  === BLOCK LINK ===
    0x17de
=== CODE BLOCK END ===

=== CODE BLOCK ADDRESS 0x17de ===
  0x17de	dec    	eax
  0x17df	mov    	ebx, dword ptr [esp + 0x90]
  0x17e6	dec    	eax
  0x17e7	add    	esp, 0x80
  0x17ed	pop    	ebp
  === BLOCK LINK ===
    0x17ee
=== CODE BLOCK END ===

=== CODE BLOCK ADDRESS 0x17ee ===
  0x17ee	ret    	
  0x17ef	int3   	
  0x17f0	int3   	
  0x17f1	int3   	
  0x17f2	int3   	
  === BLOCK LINK ===
    0x17f3
=== CODE BLOCK END ===

=== CODE BLOCK ADDRESS 0x17f3 ===
  0x17f3	int3   	
  0x17f4	int3   	
  0x17f5	int3   	
  0x17f6	int3   	
  0x17f7	int3   	
  === BLOCK LINK ===
    0x17f8
=== CODE BLOCK END ===

=== CODE BLOCK ADDRESS 0x17f8 ===
  0x17f8	dec    	eax
  0x17f9	mov    	dword ptr [esp + 0x18], ebx
  0x17fd	dec    	eax
  0x17fe	mov    	dword ptr [esp + 0x20], esi
  0x1802	push   	edi
  === BLOCK LINK ===
    0x1803
=== CODE BLOCK END ===

=== CODE BLOCK ADDRESS 0x1803 ===
  0x1803	dec    	eax
  0x1804	sub    	esp, 0x260
  0x180a	dec    	eax
  0x180b	mov    	eax, dword ptr [0x37f7]
  0x1811	dec    	eax
  === BLOCK LINK ===
    0x1812
=== CODE BLOCK END ===

=== CODE BLOCK ADDRESS 0x1812 ===
  0x1812	xor    	eax, esp
  0x1814	dec    	eax
  0x1815	mov    	dword ptr [esp + 0x250], eax
  0x181c	dec    	eax
  0x181d	mov    	esi, ecx
  === BLOCK LINK ===
    0x181f
=== CODE BLOCK END ===

=== CODE BLOCK ADDRESS 0x181f ===
  0x181f	dec    	eax
  0x1820	mov    	edi, edx
  0x1822	dec    	eax
  0x1823	mov    	ecx, edx
  0x1825	dec    	eax
  === BLOCK LINK ===
    0x1826
=== CODE BLOCK END ===

=== CODE BLOCK ADDRESS 0x1826 ===
  0x1826	call   	dword ptr [0x1964]
  === BLOCK LINK ===
    0x182c
=== CODE BLOCK END ===

=== CODE BLOCK ADDRESS 0x182c ===
  0x182c	nop    	dword ptr [eax + eax]
  0x1831	test   	eax, eax
  0x1833	je     	0x18f0
  === BLOCK LINK ===
    0x1839
=== CODE BLOCK END ===

=== CODE BLOCK ADDRESS 0x1839 ===
  0x1839	dec    	eax
  0x183a	lea    	eax, [esp + 0x48]
  0x183e	inc    	ecx
  0x183f	mov    	ecx, 0x10008
  0x1844	inc    	ebp
  === BLOCK LINK ===
    0x1845
=== CODE BLOCK END ===

=== CODE BLOCK ADDRESS 0x1845 ===
  0x1845	xor    	eax, eax
  0x1847	dec    	eax
  0x1848	mov    	dword ptr [esp + 0x20], eax
  0x184c	dec    	eax
  0x184d	mov    	edx, edi
  === BLOCK LINK ===
    0x184f
=== CODE BLOCK END ===

=== CODE BLOCK ADDRESS 0x184f ===
  0x184f	dec    	eax
  0x1850	mov    	ecx, esi
  0x1852	dec    	eax
  0x1853	call   	dword ptr [0x18d7]
  === BLOCK LINK ===
    0x1859
=== CODE BLOCK END ===

=== CODE BLOCK ADDRESS 0x1859 ===
  0x1859	nop    	dword ptr [eax + eax]
  0x185e	mov    	ebx, eax
  0x1860	test   	eax, eax
  0x1862	jne    	0x18f5
  === BLOCK LINK ===
    0x1868
=== CODE BLOCK END ===

=== CODE BLOCK ADDRESS 0x1868 ===
  0x1868	dec    	eax
  0x1869	and    	dword ptr [esp + 0x38], 0
  0x186e	dec    	esp
  0x186f	lea    	ecx, [esp + 0x40]
  0x1873	dec    	eax
  === BLOCK LINK ===
    0x1874
=== CODE BLOCK END ===

=== CODE BLOCK ADDRESS 0x1874 ===
  0x1874	and    	dword ptr [esp + 0x30], 0
  0x1879	dec    	esp
  0x187a	lea    	eax, [esp + 0x50]
  0x187e	dec    	eax
  0x187f	and    	dword ptr [esp + 0x28], 0
  === BLOCK LINK ===
    0x1884
=== CODE BLOCK END ===

=== CODE BLOCK ADDRESS 0x1884 ===
  0x1884	xor    	edx, edx
  0x1886	dec    	eax
  0x1887	mov    	ecx, dword ptr [esp + 0x48]
  0x188b	dec    	eax
  0x188c	and    	dword ptr [esp + 0x20], 0
  === BLOCK LINK ===
    0x1891
=== CODE BLOCK END ===

=== CODE BLOCK ADDRESS 0x1891 ===
  0x1891	mov    	dword ptr [esp + 0x40], 0x100
  0x1899	dec    	eax
  0x189a	call   	dword ptr [0x18b0]
  === BLOCK LINK ===
    0x18a0
=== CODE BLOCK END ===

=== CODE BLOCK ADDRESS 0x18a0 ===
  0x18a0	nop    	dword ptr [eax + eax]
  0x18a5	mov    	ebx, eax
  0x18a7	cmp    	eax, 0x103
  0x18ac	je     	0x18c9
  === BLOCK LINK ===
    0x18ae
=== CODE BLOCK END ===

=== CODE BLOCK ADDRESS 0x18ae ===
  0x18ae	test   	eax, eax
  0x18b0	jne    	0x18dd
  === BLOCK LINK ===
    0x18b2
=== CODE BLOCK END ===

=== CODE BLOCK ADDRESS 0x18b2 ===
  0x18b2	dec    	eax
  0x18b3	mov    	ecx, dword ptr [esp + 0x48]
  0x18b7	dec    	eax
  0x18b8	lea    	edx, [esp + 0x50]
  0x18bc	call   	0x17f8
  === BLOCK LINK ===
    0x18c1
=== CODE BLOCK END ===

=== CODE BLOCK ADDRESS 0x18c1 ===
  0x18c1	mov    	ebx, eax
  0x18c3	test   	eax, eax
  0x18c5	je     	0x1868
  === BLOCK LINK ===
    0x18c7
=== CODE BLOCK END ===

=== CODE BLOCK ADDRESS 0x18c7 ===
  0x18c7	jmp    	0x18dd
  === BLOCK LINK ===
    0x18c9
=== CODE BLOCK END ===

=== CODE BLOCK ADDRESS 0x18c9 ===
  0x18c9	dec    	eax
  0x18ca	mov    	edx, edi
  0x18cc	dec    	eax
  0x18cd	mov    	ecx, esi
  0x18cf	dec    	eax
  === BLOCK LINK ===
    0x18d0
=== CODE BLOCK END ===

=== CODE BLOCK ADDRESS 0x18d0 ===
  0x18d0	call   	dword ptr [0x1892]
  === BLOCK LINK ===
    0x18d6
=== CODE BLOCK END ===

=== CODE BLOCK ADDRESS 0x18d6 ===
  0x18d6	nop    	dword ptr [eax + eax]
  0x18db	mov    	ebx, eax
  0x18dd	dec    	eax
  0x18de	mov    	ecx, dword ptr [esp + 0x48]
  0x18e2	dec    	eax
  === BLOCK LINK ===
    0x18e3
=== CODE BLOCK END ===

=== CODE BLOCK ADDRESS 0x18e3 ===
  0x18e3	call   	dword ptr [0x1887]
  === BLOCK LINK ===
    0x18e9
=== CODE BLOCK END ===

=== CODE BLOCK ADDRESS 0x18e9 ===
  0x18e9	nop    	dword ptr [eax + eax]
  0x18ee	jmp    	0x18f5
  === BLOCK LINK ===
    0x18f0
=== CODE BLOCK END ===

=== CODE BLOCK ADDRESS 0x18f0 ===
  0x18f0	mov    	ebx, 0x3f2
  0x18f5	mov    	eax, ebx
  0x18f7	dec    	eax
  0x18f8	mov    	ecx, dword ptr [esp + 0x250]
  0x18ff	dec    	eax
  === BLOCK LINK ===
    0x1900
=== CODE BLOCK END ===

=== CODE BLOCK ADDRESS 0x1900 ===
  0x1900	xor    	ecx, esp
  0x1902	call   	0x24f0
  === BLOCK LINK ===
    0x1907
=== CODE BLOCK END ===

=== CODE BLOCK ADDRESS 0x1907 ===
  0x1907	dec    	esp
  0x1908	lea    	ebx, [esp + 0x260]
  0x190f	dec    	ecx
  0x1910	mov    	ebx, dword ptr [ebx + 0x20]
  0x1913	dec    	ecx
  === BLOCK LINK ===
    0x1914
=== CODE BLOCK END ===

=== CODE BLOCK ADDRESS 0x1914 ===
  0x1914	mov    	esi, dword ptr [ebx + 0x28]
  0x1917	dec    	ecx
  0x1918	mov    	esp, ebx
  0x191a	pop    	edi
  0x191b	ret    	
  === BLOCK LINK ===
    0x191c
=== CODE BLOCK END ===

=== CODE BLOCK ADDRESS 0x1063 ===
  0x1063	dec    	eax
  0x1064	test   	eax, eax
  0x1066	je     	0x1084
  === BLOCK LINK ===
    0x1068
    0x1084
=== CODE BLOCK END ===

=== CODE BLOCK ADDRESS 0x191c ===
  0x191c	int3   	
  0x191d	int3   	
  0x191e	int3   	
  0x191f	int3   	
  0x1920	int3   	
  === BLOCK LINK ===
    0x1921
=== CODE BLOCK END ===

=== CODE BLOCK ADDRESS 0x1921 ===
  0x1921	int3   	
  0x1922	int3   	
  0x1923	int3   	
  0x1924	dec    	eax
  0x1925	mov    	dword ptr [esp + 8], ebx
  === BLOCK LINK ===
    0x1929
=== CODE BLOCK END ===

=== CODE BLOCK ADDRESS 0x1929 ===
  0x1929	dec    	eax
  0x192a	mov    	dword ptr [esp + 0x10], edi
  0x192e	push   	ebp
  0x192f	dec    	eax
  0x1930	lea    	ebp, [esp - 0x370]
  === BLOCK LINK ===
    0x1937
=== CODE BLOCK END ===

=== CODE BLOCK ADDRESS 0x1937 ===
  0x1937	dec    	eax
  0x1938	sub    	esp, 0x470
  0x193e	dec    	eax
  0x193f	mov    	eax, dword ptr [0x36c3]
  0x1945	dec    	eax
  === BLOCK LINK ===
    0x1946
=== CODE BLOCK END ===

=== CODE BLOCK ADDRESS 0x1946 ===
  0x1946	xor    	eax, esp
  0x1948	dec    	eax
  0x1949	mov    	dword ptr [ebp + 0x360], eax
  0x194f	dec    	eax
  0x1950	lea    	eax, [esp + 0x40]
  === BLOCK LINK ===
    0x1954
=== CODE BLOCK END ===

=== CODE BLOCK ADDRESS 0x1954 ===
  0x1954	xor    	ebx, ebx
  0x1956	dec    	eax
  0x1957	mov    	edi, 0x80000002
  0x195d	dec    	eax
  0x195e	mov    	dword ptr [esp + 0x20], eax
  === BLOCK LINK ===
    0x1962
=== CODE BLOCK END ===

=== CODE BLOCK ADDRESS 0x1962 ===
  0x1962	inc    	ebp
  0x1963	xor    	eax, eax
  0x1965	dec    	eax
  0x1966	lea    	edx, [0x1be4]
  0x196c	dec    	eax
  === BLOCK LINK ===
    0x196d
=== CODE BLOCK END ===

=== CODE BLOCK ADDRESS 0x196d ===
  0x196d	mov    	ecx, edi
  0x196f	inc    	esp
  0x1970	lea    	ecx, [ebx + 1]
  0x1973	dec    	eax
  0x1974	call   	dword ptr [0x17b6]
  === BLOCK LINK ===
    0x197a
=== CODE BLOCK END ===

=== CODE BLOCK ADDRESS 0x197a ===
  0x197a	nop    	dword ptr [eax + eax]
  0x197f	test   	eax, eax
  0x1981	je     	0x198a
  === BLOCK LINK ===
    0x1983
=== CODE BLOCK END ===

=== CODE BLOCK ADDRESS 0x1983 ===
  0x1983	xor    	eax, eax
  0x1985	jmp    	0x1b3c
  === BLOCK LINK ===
    0x198a
=== CODE BLOCK END ===

=== CODE BLOCK ADDRESS 0x198a ===
  0x198a	dec    	eax
  0x198b	lea    	eax, [esp + 0x50]
  0x198f	inc    	ecx
  0x1990	mov    	ecx, 1
  0x1995	inc    	ebp
  === BLOCK LINK ===
    0x1996
=== CODE BLOCK END ===

=== CODE BLOCK ADDRESS 0x1996 ===
  0x1996	xor    	eax, eax
  0x1998	dec    	eax
  0x1999	mov    	dword ptr [esp + 0x20], eax
  0x199d	dec    	eax
  0x199e	lea    	edx, [0x1b0c]
  === BLOCK LINK ===
    0x19a4
=== CODE BLOCK END ===

=== CODE BLOCK ADDRESS 0x19a4 ===
  0x19a4	dec    	eax
  0x19a5	mov    	ecx, edi
  0x19a7	dec    	eax
  0x19a8	call   	dword ptr [0x1782]
  === BLOCK LINK ===
    0x19ae
=== CODE BLOCK END ===

=== CODE BLOCK ADDRESS 0x19ae ===
  0x19ae	nop    	dword ptr [eax + eax]
  0x19b3	test   	eax, eax
  0x19b5	jne    	0x1b29
  === BLOCK LINK ===
    0x19bb
=== CODE BLOCK END ===

=== CODE BLOCK ADDRESS 0x19bb ===
  0x19bb	dec    	eax
  0x19bc	mov    	ecx, dword ptr [esp + 0x40]
  0x19c0	dec    	eax
  0x19c1	lea    	eax, [esp + 0x30]
  0x19c5	dec    	eax
  === BLOCK LINK ===
    0x19c6
=== CODE BLOCK END ===

=== CODE BLOCK ADDRESS 0x19c6 ===
  0x19c6	mov    	dword ptr [esp + 0x28], eax
  0x19ca	dec    	esp
  0x19cb	lea    	ecx, [esp + 0x38]
  0x19cf	dec    	eax
  0x19d0	lea    	eax, [esp + 0x34]
  === BLOCK LINK ===
    0x19d4
=== CODE BLOCK END ===

=== CODE BLOCK ADDRESS 0x19d4 ===
  0x19d4	mov    	dword ptr [esp + 0x30], 4
  0x19dc	inc    	ebp
  0x19dd	xor    	eax, eax
  0x19df	dec    	eax
  0x19e0	mov    	dword ptr [esp + 0x20], eax
  === BLOCK LINK ===
    0x19e4
=== CODE BLOCK END ===

=== CODE BLOCK ADDRESS 0x19e4 ===
  0x19e4	dec    	eax
  0x19e5	lea    	edx, [0x1a65]
  0x19eb	dec    	eax
  0x19ec	call   	dword ptr [0x1736]
  === BLOCK LINK ===
    0x19f2
=== CODE BLOCK END ===

=== CODE BLOCK ADDRESS 0x19f2 ===
  0x19f2	nop    	dword ptr [eax + eax]
  0x19f7	test   	eax, eax
  0x19f9	jne    	0x1b18
  === BLOCK LINK ===
    0x19ff
=== CODE BLOCK END ===

=== CODE BLOCK ADDRESS 0x19ff ===
  0x19ff	mov    	eax, dword ptr [esp + 0x34]
  0x1a03	mov    	edi, ebx
  0x1a05	test   	eax, eax
  0x1a07	je     	0x1b13
  === BLOCK LINK ===
    0x1a0d
=== CODE BLOCK END ===

=== CODE BLOCK ADDRESS 0x1a0d ===
  0x1a0d	dec    	esp
  0x1a0e	lea    	ecx, [0x1b14]
  0x1a14	mov    	dword ptr [esp + 0x20], edi
  0x1a18	dec    	esp
  0x1a19	lea    	eax, [0x1969]
  === BLOCK LINK ===
    0x1a1f
=== CODE BLOCK END ===

=== CODE BLOCK ADDRESS 0x1a1f ===
  0x1a1f	mov    	edx, 0x200
  0x1a24	dec    	eax
  0x1a25	lea    	ecx, [esp + 0x60]
  0x1a29	call   	0x10a8
  === BLOCK LINK ===
    0x1a2e
=== CODE BLOCK END ===

=== CODE BLOCK ADDRESS 0x1a2e ===
  0x1a2e	dec    	eax
  0x1a2f	mov    	ecx, dword ptr [esp + 0x40]
  0x1a33	dec    	eax
  0x1a34	lea    	eax, [esp + 0x30]
  0x1a38	dec    	eax
  === BLOCK LINK ===
    0x1a39
=== CODE BLOCK END ===

=== CODE BLOCK ADDRESS 0x1a39 ===
  0x1a39	mov    	dword ptr [esp + 0x28], eax
  0x1a3d	dec    	esp
  0x1a3e	lea    	ecx, [esp + 0x38]
  0x1a42	dec    	eax
  0x1a43	lea    	eax, [ebp + 0x160]
  === BLOCK LINK ===
    0x1a49
=== CODE BLOCK END ===

=== CODE BLOCK ADDRESS 0x1a49 ===
  0x1a49	mov    	dword ptr [esp + 0x30], 0x100
  0x1a51	inc    	ebp
  0x1a52	xor    	eax, eax
  0x1a54	dec    	eax
  0x1a55	mov    	dword ptr [esp + 0x20], eax
  === BLOCK LINK ===
    0x1a59
=== CODE BLOCK END ===

=== CODE BLOCK ADDRESS 0x1a59 ===
  0x1a59	dec    	eax
  0x1a5a	lea    	edx, [esp + 0x60]
  0x1a5e	dec    	eax
  0x1a5f	call   	dword ptr [0x16c3]
  === BLOCK LINK ===
    0x1a65
=== CODE BLOCK END ===

=== CODE BLOCK ADDRESS 0x1a65 ===
  0x1a65	nop    	dword ptr [eax + eax]
  0x1a6a	test   	eax, eax
  0x1a6c	jne    	0x1a8c
  === BLOCK LINK ===
    0x1a6e
=== CODE BLOCK END ===

=== CODE BLOCK ADDRESS 0x1a6e ===
  0x1a6e	dec    	eax
  0x1a6f	lea    	edx, [0x195b]
  0x1a75	dec    	eax
  0x1a76	lea    	ecx, [ebp + 0x160]
  0x1a7c	dec    	eax
  === BLOCK LINK ===
    0x1a7d
=== CODE BLOCK END ===

=== CODE BLOCK ADDRESS 0x1a7d ===
  0x1a7d	call   	dword ptr [0x1755]
  === BLOCK LINK ===
    0x1a83
=== CODE BLOCK END ===

=== CODE BLOCK ADDRESS 0x1a83 ===
  0x1a83	nop    	dword ptr [eax + eax]
  0x1a88	test   	eax, eax
  0x1a8a	je     	0x1a9b
  === BLOCK LINK ===
    0x1a8c
=== CODE BLOCK END ===

=== CODE BLOCK ADDRESS 0x1a8c ===
  0x1a8c	mov    	eax, dword ptr [esp + 0x34]
  0x1a90	inc    	edi
  0x1a92	cmp    	edi, eax
  0x1a94	jae    	0x1b15
  === BLOCK LINK ===
    0x1a96
=== CODE BLOCK END ===

=== CODE BLOCK ADDRESS 0x1a96 ===
  0x1a96	jmp    	0x1a0d
  === BLOCK LINK ===
    0x1a9b
=== CODE BLOCK END ===

=== CODE BLOCK ADDRESS 0x1a9b ===
  0x1a9b	dec    	esp
  0x1a9c	lea    	ecx, [0x1996]
  0x1aa2	mov    	dword ptr [esp + 0x20], edi
  0x1aa6	dec    	esp
  0x1aa7	lea    	eax, [0x18db]
  === BLOCK LINK ===
    0x1aad
=== CODE BLOCK END ===

=== CODE BLOCK ADDRESS 0x1aad ===
  0x1aad	mov    	edx, 0x200
  0x1ab2	dec    	eax
  0x1ab3	lea    	ecx, [esp + 0x60]
  0x1ab7	call   	0x10a8
  === BLOCK LINK ===
    0x1abc
=== CODE BLOCK END ===

=== CODE BLOCK ADDRESS 0x1abc ===
  0x1abc	dec    	eax
  0x1abd	mov    	ecx, dword ptr [esp + 0x40]
  0x1ac1	dec    	eax
  0x1ac2	lea    	eax, [esp + 0x30]
  0x1ac6	dec    	eax
  === BLOCK LINK ===
    0x1ac7
=== CODE BLOCK END ===

=== CODE BLOCK ADDRESS 0x1ac7 ===
  0x1ac7	mov    	dword ptr [esp + 0x28], eax
  0x1acb	dec    	esp
  0x1acc	lea    	ecx, [esp + 0x38]
  0x1ad0	dec    	eax
  0x1ad1	lea    	eax, [esp + 0x48]
  === BLOCK LINK ===
    0x1ad5
=== CODE BLOCK END ===

=== CODE BLOCK ADDRESS 0x1ad5 ===
  0x1ad5	mov    	dword ptr [esp + 0x30], 4
  0x1add	inc    	ebp
  0x1ade	xor    	eax, eax
  0x1ae0	dec    	eax
  0x1ae1	mov    	dword ptr [esp + 0x20], eax
  === BLOCK LINK ===
    0x1ae5
=== CODE BLOCK END ===

=== CODE BLOCK ADDRESS 0x1ae5 ===
  0x1ae5	dec    	eax
  0x1ae6	lea    	edx, [esp + 0x60]
  0x1aea	dec    	eax
  0x1aeb	call   	dword ptr [0x1637]
  === BLOCK LINK ===
    0x1af1
=== CODE BLOCK END ===

=== CODE BLOCK ADDRESS 0x1af1 ===
  0x1af1	nop    	dword ptr [eax + eax]
  0x1af6	test   	eax, eax
  0x1af8	jne    	0x1b18
  === BLOCK LINK ===
    0x1afa
=== CODE BLOCK END ===

=== CODE BLOCK ADDRESS 0x1afa ===
  0x1afa	mov    	ecx, dword ptr [esp + 0x48]
  0x1afe	xor    	edx, edx
  0x1b00	dec    	eax
  0x1b01	call   	dword ptr [0x1751]
  === BLOCK LINK ===
    0x1b07
=== CODE BLOCK END ===

=== CODE BLOCK ADDRESS 0x1b07 ===
  0x1b07	nop    	dword ptr [eax + eax]
  0x1b0c	test   	eax, eax
  0x1b0e	sete   	bl
  0x1b11	jmp    	0x1b18
  === BLOCK LINK ===
    0x1b13
=== CODE BLOCK END ===

=== CODE BLOCK ADDRESS 0x1b13 ===
  0x1b13	cmp    	edi, eax
  0x1b15	cmove  	ebx, ebx
  0x1b18	dec    	eax
  0x1b19	mov    	ecx, dword ptr [esp + 0x50]
  0x1b1d	dec    	eax
  === BLOCK LINK ===
    0x1b1e
=== CODE BLOCK END ===

=== CODE BLOCK ADDRESS 0x1b1e ===
  0x1b1e	call   	dword ptr [0x164c]
  === BLOCK LINK ===
    0x1b24
=== CODE BLOCK END ===

=== CODE BLOCK ADDRESS 0x1b24 ===
  0x1b24	nop    	dword ptr [eax + eax]
  0x1b29	dec    	eax
  0x1b2a	mov    	ecx, dword ptr [esp + 0x40]
  0x1b2e	dec    	eax
  0x1b2f	call   	dword ptr [0x163b]
  === BLOCK LINK ===
    0x1b35
=== CODE BLOCK END ===

=== CODE BLOCK ADDRESS 0x1b35 ===
  0x1b35	nop    	dword ptr [eax + eax]
  0x1b3a	mov    	eax, ebx
  0x1b3c	dec    	eax
  0x1b3d	mov    	ecx, dword ptr [ebp + 0x360]
  0x1b43	dec    	eax
  === BLOCK LINK ===
    0x1b44
=== CODE BLOCK END ===

=== CODE BLOCK ADDRESS 0x1b44 ===
  0x1b44	xor    	ecx, esp
  0x1b46	call   	0x24f0
  === BLOCK LINK ===
    0x1b4b
=== CODE BLOCK END ===

=== CODE BLOCK ADDRESS 0x1b4b ===
  0x1b4b	dec    	esp
  0x1b4c	lea    	ebx, [esp + 0x470]
  0x1b53	dec    	ecx
  0x1b54	mov    	ebx, dword ptr [ebx + 0x10]
  0x1b57	dec    	ecx
  === BLOCK LINK ===
    0x1b58
=== CODE BLOCK END ===

=== CODE BLOCK ADDRESS 0x1b58 ===
  0x1b58	mov    	edi, dword ptr [ebx + 0x18]
  0x1b5b	dec    	ecx
  0x1b5c	mov    	esp, ebx
  0x1b5e	pop    	ebp
  0x1b5f	ret    	
  === BLOCK LINK ===
    0x1b60
=== CODE BLOCK END ===

=== CODE BLOCK ADDRESS 0x1b60 ===
  0x1b60	int3   	
  0x1b61	int3   	
  0x1b62	int3   	
  0x1b63	int3   	
  0x1b64	int3   	
  === BLOCK LINK ===
    0x1b65
=== CODE BLOCK END ===

=== CODE BLOCK ADDRESS 0x1b65 ===
  0x1b65	int3   	
  0x1b66	int3   	
  0x1b67	int3   	
  0x1b68	dec    	eax
  0x1b69	mov    	eax, esp
  === BLOCK LINK ===
    0x1b6b
=== CODE BLOCK END ===

=== CODE BLOCK ADDRESS 0x1b6b ===
  0x1b6b	dec    	eax
  0x1b6c	mov    	dword ptr [eax + 8], ebx
  0x1b6f	dec    	eax
  0x1b70	mov    	dword ptr [eax + 0x10], esi
  0x1b73	dec    	eax
  === BLOCK LINK ===
    0x1b74
=== CODE BLOCK END ===

=== CODE BLOCK ADDRESS 0x1b74 ===
  0x1b74	mov    	dword ptr [eax + 0x18], edi
  0x1b77	dec    	esp
  0x1b78	mov    	dword ptr [eax + 0x20], esp
  0x1b7b	push   	ebp
  0x1b7c	inc    	ecx
  === BLOCK LINK ===
    0x1b7d
=== CODE BLOCK END ===

=== CODE BLOCK ADDRESS 0x1b7d ===
  0x1b7d	push   	ebp
  0x1b7e	inc    	ecx
  0x1b7f	push   	esi
  0x1b80	dec    	eax
  0x1b81	lea    	ebp, [eax - 0x3b8]
  === BLOCK LINK ===
    0x1b87
=== CODE BLOCK END ===

=== CODE BLOCK ADDRESS 0x1b87 ===
  0x1b87	dec    	eax
  0x1b88	sub    	esp, 0x4a0
  0x1b8e	dec    	eax
  0x1b8f	mov    	eax, dword ptr [0x3473]
  0x1b95	dec    	eax
  === BLOCK LINK ===
    0x1b96
=== CODE BLOCK END ===

=== CODE BLOCK ADDRESS 0x1b96 ===
  0x1b96	xor    	eax, esp
  0x1b98	dec    	eax
  0x1b99	mov    	dword ptr [ebp + 0x390], eax
  0x1b9f	dec    	eax
  0x1ba0	mov    	ebx, dword ptr [0x3a2a]
  === BLOCK LINK ===
    0x1ba6
=== CODE BLOCK END ===

=== CODE BLOCK ADDRESS 0x1ba6 ===
  0x1ba6	dec    	eax
  0x1ba7	lea    	eax, [esp + 0x58]
  0x1bab	xor    	esi, esi
  0x1bad	dec    	eax
  0x1bae	mov    	dword ptr [esp + 0x20], eax
  === BLOCK LINK ===
    0x1bb2
=== CODE BLOCK END ===

=== CODE BLOCK ADDRESS 0x1bb2 ===
  0x1bb2	inc    	ebp
  0x1bb3	xor    	eax, eax
  0x1bb5	dec    	eax
  0x1bb6	mov    	dword ptr [esp + 0x78], esi
  0x1bba	dec    	eax
  === BLOCK LINK ===
    0x1bbb
=== CODE BLOCK END ===

=== CODE BLOCK ADDRESS 0x1bbb ===
  0x1bbb	lea    	edx, [0x198f]
  0x1bc1	dec    	eax
  0x1bc2	mov    	ecx, 0x80000002
  0x1bc8	inc    	esp
  0x1bc9	lea    	ecx, [esi + 1]
  === BLOCK LINK ===
    0x1bcc
=== CODE BLOCK END ===

=== CODE BLOCK ADDRESS 0x1bcc ===
  0x1bcc	dec    	eax
  0x1bcd	call   	dword ptr [0x155d]
  === BLOCK LINK ===
    0x1bd3
=== CODE BLOCK END ===

=== CODE BLOCK ADDRESS 0x1bd3 ===
  0x1bd3	nop    	dword ptr [eax + eax]
  0x1bd8	test   	eax, eax
  0x1bda	jne    	0x1c2d
  === BLOCK LINK ===
    0x1bdc
=== CODE BLOCK END ===

=== CODE BLOCK ADDRESS 0x1bdc ===
  0x1bdc	dec    	eax
  0x1bdd	mov    	ecx, dword ptr [esp + 0x58]
  0x1be1	dec    	eax
  0x1be2	lea    	eax, [esp + 0x50]
  0x1be6	dec    	eax
  === BLOCK LINK ===
    0x1be7
=== CODE BLOCK END ===

=== CODE BLOCK ADDRESS 0x1be7 ===
  0x1be7	mov    	dword ptr [esp + 0x28], eax
  0x1beb	inc    	esp
  0x1bec	lea    	esi, [esi + 4]
  0x1bef	dec    	eax
  0x1bf0	lea    	eax, [ebp - 0x80]
  === BLOCK LINK ===
    0x1bf3
=== CODE BLOCK END ===

=== CODE BLOCK ADDRESS 0x1bf3 ===
  0x1bf3	inc    	esp
  0x1bf4	mov    	dword ptr [esp + 0x50], esi
  0x1bf8	dec    	esp
  0x1bf9	lea    	ecx, [esp + 0x70]
  0x1bfd	dec    	eax
  === BLOCK LINK ===
    0x1bfe
=== CODE BLOCK END ===

=== CODE BLOCK ADDRESS 0x1bfe ===
  0x1bfe	mov    	dword ptr [esp + 0x20], eax
  0x1c02	inc    	ebp
  0x1c03	xor    	eax, eax
  0x1c05	dec    	eax
  0x1c06	lea    	edx, [0x1844]
  === BLOCK LINK ===
    0x1c0c
=== CODE BLOCK END ===

=== CODE BLOCK ADDRESS 0x1c0c ===
  0x1c0c	dec    	eax
  0x1c0d	call   	dword ptr [0x1515]
  === BLOCK LINK ===
    0x1c13
=== CODE BLOCK END ===

=== CODE BLOCK ADDRESS 0x1c13 ===
  0x1c13	nop    	dword ptr [eax + eax]
  0x1c18	test   	eax, eax
  0x1c1a	je     	0x1c60
  === BLOCK LINK ===
    0x1c1c
=== CODE BLOCK END ===

=== CODE BLOCK ADDRESS 0x1c1c ===
  0x1c1c	dec    	eax
  0x1c1d	mov    	ecx, dword ptr [esp + 0x58]
  0x1c21	dec    	eax
  0x1c22	call   	dword ptr [0x1548]
  === BLOCK LINK ===
    0x1c28
=== CODE BLOCK END ===

=== CODE BLOCK ADDRESS 0x1c28 ===
  0x1c28	nop    	dword ptr [eax + eax]
  0x1c2d	xor    	eax, eax
  0x1c2f	dec    	eax
  0x1c30	mov    	ecx, dword ptr [ebp + 0x390]
  0x1c36	dec    	eax
  === BLOCK LINK ===
    0x1c37
=== CODE BLOCK END ===

=== CODE BLOCK ADDRESS 0x1c37 ===
  0x1c37	xor    	ecx, esp
  0x1c39	call   	0x24f0
  === BLOCK LINK ===
    0x1c3e
=== CODE BLOCK END ===

=== CODE BLOCK ADDRESS 0x1c3e ===
  0x1c3e	dec    	esp
  0x1c3f	lea    	ebx, [esp + 0x4a0]
  0x1c46	dec    	ecx
  0x1c47	mov    	ebx, dword ptr [ebx + 0x20]
  0x1c4a	dec    	ecx
  === BLOCK LINK ===
    0x1c4b
=== CODE BLOCK END ===

=== CODE BLOCK ADDRESS 0x1c4b ===
  0x1c4b	mov    	esi, dword ptr [ebx + 0x28]
  0x1c4e	dec    	ecx
  0x1c4f	mov    	edi, dword ptr [ebx + 0x30]
  0x1c52	dec    	ebp
  0x1c53	mov    	esp, dword ptr [ebx + 0x38]
  === BLOCK LINK ===
    0x1c56
=== CODE BLOCK END ===

=== CODE BLOCK ADDRESS 0x1c56 ===
  0x1c56	dec    	ecx
  0x1c57	mov    	esp, ebx
  0x1c59	inc    	ecx
  0x1c5a	pop    	esi
  0x1c5b	inc    	ecx
  === BLOCK LINK ===
    0x1c5c
=== CODE BLOCK END ===

=== CODE BLOCK ADDRESS 0x1c5c ===
  0x1c5c	pop    	ebp
  0x1c5d	pop    	ebp
  0x1c5e	ret    	
  0x1c5f	int3   	
  0x1c60	dec    	esp
  === BLOCK LINK ===
    0x1c61
=== CODE BLOCK END ===

=== CODE BLOCK ADDRESS 0x1c61 ===
  0x1c61	lea    	ebp, [0x1721]
  0x1c67	mov    	edi, esi
  0x1c69	inc    	ecx
  0x1c6a	mov    	esp, 0x200
  0x1c6f	cmp    	dword ptr [ebp - 0x80], esi
  === BLOCK LINK ===
    0x1c72
=== CODE BLOCK END ===

=== CODE BLOCK ADDRESS 0x1c72 ===
  0x1c72	jbe    	0x1dd1
  === BLOCK LINK ===
    0x1c78
=== CODE BLOCK END ===

=== CODE BLOCK ADDRESS 0x1c78 ===
  0x1c78	dec    	esp
  0x1c79	lea    	ecx, [0x18a9]
  0x1c7f	mov    	dword ptr [esp + 0x20], edi
  0x1c83	dec    	ebp
  0x1c84	mov    	eax, ebp
  === BLOCK LINK ===
    0x1c86
=== CODE BLOCK END ===

=== CODE BLOCK ADDRESS 0x1c86 ===
  0x1c86	dec    	eax
  0x1c87	lea    	ecx, [ebp - 0x70]
  0x1c8a	dec    	ecx
  0x1c8b	mov    	edx, esp
  0x1c8d	call   	0x10a8
  === BLOCK LINK ===
    0x1c92
=== CODE BLOCK END ===

=== CODE BLOCK ADDRESS 0x1c92 ===
  0x1c92	dec    	eax
  0x1c93	mov    	ecx, dword ptr [esp + 0x58]
  0x1c97	dec    	eax
  0x1c98	lea    	eax, [esp + 0x50]
  0x1c9c	dec    	eax
  === BLOCK LINK ===
    0x1c9d
=== CODE BLOCK END ===

=== CODE BLOCK ADDRESS 0x1c9d ===
  0x1c9d	mov    	dword ptr [esp + 0x28], eax
  0x1ca1	dec    	esp
  0x1ca2	lea    	ecx, [esp + 0x70]
  0x1ca6	dec    	eax
  0x1ca7	lea    	eax, [ebp + 0x190]
  === BLOCK LINK ===
    0x1cad
=== CODE BLOCK END ===

=== CODE BLOCK ADDRESS 0x1cad ===
  0x1cad	inc    	esp
  0x1cae	mov    	dword ptr [esp + 0x50], esp
  0x1cb2	inc    	ebp
  0x1cb3	xor    	eax, eax
  0x1cb5	dec    	eax
  === BLOCK LINK ===
    0x1cb6
=== CODE BLOCK END ===

=== CODE BLOCK ADDRESS 0x1cb6 ===
  0x1cb6	mov    	dword ptr [esp + 0x20], eax
  0x1cba	dec    	eax
  0x1cbb	lea    	edx, [ebp - 0x70]
  0x1cbe	dec    	eax
  0x1cbf	call   	dword ptr [0x1463]
  === BLOCK LINK ===
    0x1cc5
=== CODE BLOCK END ===

=== CODE BLOCK ADDRESS 0x1cc5 ===
  0x1cc5	nop    	dword ptr [eax + eax]
  0x1cca	test   	eax, eax
  0x1ccc	jne    	0x1dc6
  === BLOCK LINK ===
    0x1cd2
=== CODE BLOCK END ===

=== CODE BLOCK ADDRESS 0x1cd2 ===
  0x1cd2	dec    	eax
  0x1cd3	lea    	edx, [0x16f7]
  0x1cd9	mov    	word ptr [ebp + 0x38e], si
  0x1ce0	dec    	eax
  0x1ce1	lea    	ecx, [ebp + 0x190]
  === BLOCK LINK ===
    0x1ce7
=== CODE BLOCK END ===

=== CODE BLOCK ADDRESS 0x1ce7 ===
  0x1ce7	dec    	eax
  0x1ce8	call   	dword ptr [0x14ea]
  === BLOCK LINK ===
    0x1cee
=== CODE BLOCK END ===

=== CODE BLOCK ADDRESS 0x1cee ===
  0x1cee	nop    	dword ptr [eax + eax]
  0x1cf3	test   	eax, eax
  0x1cf5	jne    	0x1dc6
  === BLOCK LINK ===
    0x1cfb
=== CODE BLOCK END ===

=== CODE BLOCK ADDRESS 0x1cfb ===
  0x1cfb	dec    	esp
  0x1cfc	lea    	ecx, [0x1736]
  0x1d02	mov    	dword ptr [esp + 0x20], edi
  0x1d06	dec    	ebp
  0x1d07	mov    	eax, ebp
  === BLOCK LINK ===
    0x1d09
=== CODE BLOCK END ===

=== CODE BLOCK ADDRESS 0x1d09 ===
  0x1d09	dec    	eax
  0x1d0a	lea    	ecx, [ebp - 0x70]
  0x1d0d	dec    	ecx
  0x1d0e	mov    	edx, esp
  0x1d10	call   	0x10a8
  === BLOCK LINK ===
    0x1d15
=== CODE BLOCK END ===

=== CODE BLOCK ADDRESS 0x1d15 ===
  0x1d15	dec    	eax
  0x1d16	mov    	ecx, dword ptr [esp + 0x58]
  0x1d1a	dec    	eax
  0x1d1b	lea    	eax, [esp + 0x50]
  0x1d1f	dec    	eax
  === BLOCK LINK ===
    0x1d20
=== CODE BLOCK END ===

=== CODE BLOCK ADDRESS 0x1d20 ===
  0x1d20	mov    	dword ptr [esp + 0x28], eax
  0x1d24	dec    	esp
  0x1d25	lea    	ecx, [esp + 0x70]
  0x1d29	dec    	eax
  0x1d2a	lea    	eax, [esp + 0x60]
  === BLOCK LINK ===
    0x1d2e
=== CODE BLOCK END ===

=== CODE BLOCK ADDRESS 0x1d2e ===
  0x1d2e	inc    	esp
  0x1d2f	mov    	dword ptr [esp + 0x50], esi
  0x1d33	inc    	ebp
  0x1d34	xor    	eax, eax
  0x1d36	dec    	eax
  === BLOCK LINK ===
    0x1d37
=== CODE BLOCK END ===

=== CODE BLOCK ADDRESS 0x1d37 ===
  0x1d37	mov    	dword ptr [esp + 0x20], eax
  0x1d3b	dec    	eax
  0x1d3c	lea    	edx, [ebp - 0x70]
  0x1d3f	dec    	eax
  0x1d40	call   	dword ptr [0x13e2]
  === BLOCK LINK ===
    0x1d46
=== CODE BLOCK END ===

=== CODE BLOCK ADDRESS 0x1d46 ===
  0x1d46	nop    	dword ptr [eax + eax]
  0x1d4b	mov    	ecx, dword ptr [esp + 0x60]
  0x1d4f	xor    	edx, edx
  0x1d51	dec    	eax
  0x1d52	call   	dword ptr [0x1500]
  === BLOCK LINK ===
    0x1d58
=== CODE BLOCK END ===

=== CODE BLOCK ADDRESS 0x1d58 ===
  0x1d58	nop    	dword ptr [eax + eax]
  0x1d5d	test   	eax, eax
  0x1d5f	jne    	0x1c1c
  === BLOCK LINK ===
    0x1d65
=== CODE BLOCK END ===

=== CODE BLOCK ADDRESS 0x1d65 ===
  0x1d65	dec    	eax
  0x1d66	lea    	eax, [esp + 0x78]
  0x1d6a	inc    	ecx
  0x1d6b	mov    	ecx, 0x2001f
  0x1d70	inc    	ebp
  === BLOCK LINK ===
    0x1d71
=== CODE BLOCK END ===

=== CODE BLOCK ADDRESS 0x1d71 ===
  0x1d71	xor    	eax, eax
  0x1d73	dec    	eax
  0x1d74	mov    	dword ptr [esp + 0x20], eax
  0x1d78	dec    	eax
  0x1d79	lea    	edx, [0x1731]
  === BLOCK LINK ===
    0x1d7f
=== CODE BLOCK END ===

=== CODE BLOCK ADDRESS 0x1d7f ===
  0x1d7f	dec    	eax
  0x1d80	mov    	ecx, 0x80000002
  0x1d86	dec    	eax
  0x1d87	call   	dword ptr [0x13a3]
  === BLOCK LINK ===
    0x1d8d
=== CODE BLOCK END ===

=== CODE BLOCK ADDRESS 0x1d8d ===
  0x1d8d	nop    	dword ptr [eax + eax]
  0x1d92	test   	eax, eax
  0x1d94	jne    	0x1c2d
  === BLOCK LINK ===
    0x1d9a
=== CODE BLOCK END ===

=== CODE BLOCK ADDRESS 0x1d9a ===
  0x1d9a	mov    	eax, dword ptr [esp + 0x60]
  0x1d9e	dec    	esp
  0x1d9f	lea    	ecx, [0x182b]
  0x1da5	dec    	ebp
  0x1da6	mov    	eax, ebp
  === BLOCK LINK ===
    0x1da8
=== CODE BLOCK END ===

=== CODE BLOCK ADDRESS 0x1da8 ===
  0x1da8	mov    	dword ptr [esp + 0x20], eax
  0x1dac	dec    	ecx
  0x1dad	mov    	edx, esp
  0x1daf	dec    	eax
  0x1db0	lea    	ecx, [ebp - 0x70]
  === BLOCK LINK ===
    0x1db3
=== CODE BLOCK END ===

=== CODE BLOCK ADDRESS 0x1db3 ===
  0x1db3	call   	0x10a8
  === BLOCK LINK ===
    0x1db8
=== CODE BLOCK END ===

=== CODE BLOCK ADDRESS 0x1db8 ===
  0x1db8	dec    	eax
  0x1db9	mov    	ecx, dword ptr [esp + 0x78]
  0x1dbd	dec    	eax
  0x1dbe	lea    	edx, [ebp - 0x70]
  0x1dc1	call   	0x17f8
  === BLOCK LINK ===
    0x1dc6
=== CODE BLOCK END ===

=== CODE BLOCK ADDRESS 0x1dc6 ===
  0x1dc6	inc    	edi
  0x1dc8	cmp    	edi, dword ptr [ebp - 0x80]
  0x1dcb	jb     	0x1c78
  === BLOCK LINK ===
    0x1dd1
=== CODE BLOCK END ===

=== CODE BLOCK ADDRESS 0x1dd1 ===
  0x1dd1	dec    	eax
  0x1dd2	mov    	ecx, dword ptr [esp + 0x58]
  0x1dd6	dec    	eax
  0x1dd7	lea    	eax, [esp + 0x50]
  0x1ddb	dec    	eax
  === BLOCK LINK ===
    0x1ddc
=== CODE BLOCK END ===

=== CODE BLOCK ADDRESS 0x1ddc ===
  0x1ddc	mov    	dword ptr [esp + 0x28], eax
  0x1de0	dec    	esp
  0x1de1	lea    	ecx, [esp + 0x70]
  0x1de5	dec    	eax
  0x1de6	lea    	eax, [esp + 0x60]
  === BLOCK LINK ===
    0x1dea
=== CODE BLOCK END ===

=== CODE BLOCK ADDRESS 0x1dea ===
  0x1dea	inc    	esp
  0x1deb	mov    	dword ptr [esp + 0x50], esi
  0x1def	inc    	ebp
  0x1df0	xor    	eax, eax
  0x1df2	dec    	eax
  === BLOCK LINK ===
    0x1df3
=== CODE BLOCK END ===

=== CODE BLOCK ADDRESS 0x1df3 ===
  0x1df3	mov    	dword ptr [esp + 0x20], eax
  0x1df7	dec    	eax
  0x1df8	lea    	edx, [0x1672]
  0x1dfe	dec    	eax
  0x1dff	call   	dword ptr [0x1323]
  === BLOCK LINK ===
    0x1e05
=== CODE BLOCK END ===

=== CODE BLOCK ADDRESS 0x1e05 ===
  0x1e05	nop    	dword ptr [eax + eax]
  0x1e0a	test   	eax, eax
  0x1e0c	jne    	0x1c1c
  === BLOCK LINK ===
    0x1e12
=== CODE BLOCK END ===

=== CODE BLOCK ADDRESS 0x1e12 ===
  0x1e12	dec    	eax
  0x1e13	cmp    	dword ptr [esp + 0x78], esi
  0x1e17	jne    	0x1e4e
  === BLOCK LINK ===
    0x1e19
=== CODE BLOCK END ===

=== CODE BLOCK ADDRESS 0x1e19 ===
  0x1e19	dec    	eax
  0x1e1a	lea    	eax, [esp + 0x78]
  0x1e1e	inc    	ecx
  0x1e1f	mov    	ecx, 0x2001f
  0x1e24	inc    	ebp
  === BLOCK LINK ===
    0x1e25
=== CODE BLOCK END ===

=== CODE BLOCK ADDRESS 0x1e25 ===
  0x1e25	xor    	eax, eax
  0x1e27	dec    	eax
  0x1e28	mov    	dword ptr [esp + 0x20], eax
  0x1e2c	dec    	eax
  0x1e2d	lea    	edx, [0x167d]
  === BLOCK LINK ===
    0x1e33
=== CODE BLOCK END ===

=== CODE BLOCK ADDRESS 0x1e33 ===
  0x1e33	dec    	eax
  0x1e34	mov    	ecx, 0x80000002
  0x1e3a	dec    	eax
  0x1e3b	call   	dword ptr [0x12ef]
  === BLOCK LINK ===
    0x1e41
=== CODE BLOCK END ===

=== CODE BLOCK ADDRESS 0x1e41 ===
  0x1e41	nop    	dword ptr [eax + eax]
  0x1e46	test   	eax, eax
  0x1e48	jne    	0x1c2d
  === BLOCK LINK ===
    0x1e4e
=== CODE BLOCK END ===

=== CODE BLOCK ADDRESS 0x1e4e ===
  0x1e4e	mov    	eax, dword ptr [esp + 0x60]
  0x1e52	dec    	esp
  0x1e53	lea    	ecx, [0x1777]
  0x1e59	dec    	ebp
  0x1e5a	mov    	eax, ebp
  === BLOCK LINK ===
    0x1e5c
=== CODE BLOCK END ===

=== CODE BLOCK ADDRESS 0x1e5c ===
  0x1e5c	mov    	dword ptr [esp + 0x20], eax
  0x1e60	dec    	ecx
  0x1e61	mov    	edx, esp
  0x1e63	dec    	eax
  0x1e64	lea    	ecx, [ebp - 0x70]
  === BLOCK LINK ===
    0x1e67
=== CODE BLOCK END ===

=== CODE BLOCK ADDRESS 0x1e67 ===
  0x1e67	call   	0x10a8
  === BLOCK LINK ===
    0x1e6c
=== CODE BLOCK END ===

=== CODE BLOCK ADDRESS 0x1e6c ===
  0x1e6c	dec    	eax
  0x1e6d	mov    	ecx, dword ptr [esp + 0x78]
  0x1e71	dec    	eax
  0x1e72	lea    	eax, [ebp - 0x7c]
  0x1e75	dec    	eax
  === BLOCK LINK ===
    0x1e76
=== CODE BLOCK END ===

=== CODE BLOCK ADDRESS 0x1e76 ===
  0x1e76	mov    	dword ptr [esp + 0x40], eax
  0x1e7a	dec    	eax
  0x1e7b	lea    	edx, [ebp - 0x70]
  0x1e7e	dec    	eax
  0x1e7f	lea    	eax, [esp + 0x68]
  === BLOCK LINK ===
    0x1e83
=== CODE BLOCK END ===

=== CODE BLOCK ADDRESS 0x1e83 ===
  0x1e83	inc    	ebp
  0x1e84	xor    	ecx, ecx
  0x1e86	dec    	eax
  0x1e87	mov    	dword ptr [esp + 0x38], eax
  0x1e8b	inc    	ebp
  === BLOCK LINK ===
    0x1e8c
=== CODE BLOCK END ===

=== CODE BLOCK ADDRESS 0x1e8c ===
  0x1e8c	xor    	eax, eax
  0x1e8e	dec    	eax
  0x1e8f	mov    	dword ptr [esp + 0x30], esi
  0x1e93	mov    	dword ptr [esp + 0x28], 2
  0x1e9b	mov    	dword ptr [esp + 0x20], esi
  === BLOCK LINK ===
    0x1e9f
=== CODE BLOCK END ===

=== CODE BLOCK ADDRESS 0x1e9f ===
  0x1e9f	dec    	eax
  0x1ea0	call   	dword ptr [0x12b2]
  === BLOCK LINK ===
    0x1ea6
=== CODE BLOCK END ===

=== CODE BLOCK ADDRESS 0x1ea6 ===
  0x1ea6	nop    	dword ptr [eax + eax]
  0x1eab	test   	eax, eax
  0x1ead	je     	0x1eb9
  === BLOCK LINK ===
    0x1eaf
=== CODE BLOCK END ===

=== CODE BLOCK ADDRESS 0x1eaf ===
  0x1eaf	dec    	eax
  0x1eb0	mov    	ecx, dword ptr [esp + 0x78]
  0x1eb4	jmp    	0x1c21
  === BLOCK LINK ===
    0x1eb9
=== CODE BLOCK END ===

=== CODE BLOCK ADDRESS 0x1eb9 ===
  0x1eb9	mov    	eax, esi
  0x1ebb	jmp    	0x1f32
  === BLOCK LINK ===
    0x1ebd
=== CODE BLOCK END ===

=== CODE BLOCK ADDRESS 0x1ebd ===
  0x1ebd	dec    	esp
  0x1ebe	lea    	ecx, [0x1654]
  0x1ec4	mov    	dword ptr [esp + 0x20], eax
  0x1ec8	dec    	ebp
  0x1ec9	mov    	eax, ebp
  === BLOCK LINK ===
    0x1ecb
=== CODE BLOCK END ===

=== CODE BLOCK ADDRESS 0x1ecb ===
  0x1ecb	dec    	eax
  0x1ecc	lea    	ecx, [ebp - 0x70]
  0x1ecf	dec    	ecx
  0x1ed0	mov    	edx, esp
  0x1ed2	call   	0x10a8
  === BLOCK LINK ===
    0x1ed7
=== CODE BLOCK END ===

=== CODE BLOCK ADDRESS 0x1ed7 ===
  0x1ed7	dec    	eax
  0x1ed8	mov    	eax, ebx
  0x1eda	mov    	ecx, esi
  0x1edc	cmp    	word ptr [ebx], si
  0x1edf	je     	0x1eec
  === BLOCK LINK ===
    0x1ee1
=== CODE BLOCK END ===

=== CODE BLOCK ADDRESS 0x1ee1 ===
  0x1ee1	inc    	ecx
  0x1ee3	dec    	eax
  0x1ee4	lea    	eax, [eax + 2]
  0x1ee7	cmp    	word ptr [eax], si
  0x1eea	jne    	0x1ee1
  === BLOCK LINK ===
    0x1eec
=== CODE BLOCK END ===

=== CODE BLOCK ADDRESS 0x1eec ===
  0x1eec	lea    	eax, [ecx*2 + 2]
  0x1ef3	inc    	ecx
  0x1ef4	mov    	ecx, 1
  0x1ef9	dec    	eax
  0x1efa	mov    	ecx, dword ptr [esp + 0x68]
  === BLOCK LINK ===
    0x1efe
=== CODE BLOCK END ===

=== CODE BLOCK ADDRESS 0x1efe ===
  0x1efe	dec    	eax
  0x1eff	lea    	edx, [ebp - 0x70]
  0x1f02	mov    	dword ptr [esp + 0x28], eax
  0x1f06	inc    	ebp
  0x1f07	xor    	eax, eax
  === BLOCK LINK ===
    0x1f09
=== CODE BLOCK END ===

=== CODE BLOCK ADDRESS 0x1f09 ===
  0x1f09	dec    	eax
  0x1f0a	mov    	dword ptr [esp + 0x20], ebx
  0x1f0e	dec    	eax
  0x1f0f	call   	dword ptr [0x1233]
  === BLOCK LINK ===
    0x1f15
=== CODE BLOCK END ===

=== CODE BLOCK ADDRESS 0x1f15 ===
  0x1f15	nop    	dword ptr [eax + eax]
  0x1f1a	test   	eax, eax
  0x1f1c	jne    	0x2031
  === BLOCK LINK ===
    0x1f22
=== CODE BLOCK END ===

=== CODE BLOCK ADDRESS 0x1f22 ===
  0x1f22	xor    	ecx, ecx
  0x1f24	call   	0x1490
  === BLOCK LINK ===
    0x1f29
=== CODE BLOCK END ===

=== CODE BLOCK ADDRESS 0x1f29 ===
  0x1f29	dec    	eax
  0x1f2a	mov    	ebx, eax
  0x1f2c	mov    	eax, dword ptr [esp + 0x74]
  0x1f30	inc    	eax
  0x1f32	mov    	dword ptr [esp + 0x74], eax
  === BLOCK LINK ===
    0x1f36
=== CODE BLOCK END ===

=== CODE BLOCK ADDRESS 0x1f36 ===
  0x1f36	dec    	eax
  0x1f37	test   	ebx, ebx
  0x1f39	jne    	0x1ebd
  === BLOCK LINK ===
    0x1f3b
=== CODE BLOCK END ===

=== CODE BLOCK ADDRESS 0x1f3b ===
  0x1f3b	dec    	eax
  0x1f3c	mov    	ecx, dword ptr [esp + 0x68]
  0x1f40	dec    	eax
  0x1f41	lea    	eax, [esp + 0x74]
  0x1f45	inc    	esp
  === BLOCK LINK ===
    0x1f46
=== CODE BLOCK END ===

=== CODE BLOCK ADDRESS 0x1f46 ===
  0x1f46	mov    	dword ptr [esp + 0x28], esi
  0x1f4a	dec    	eax
  0x1f4b	lea    	edx, [0x14cf]
  0x1f51	inc    	ebp
  0x1f52	mov    	ecx, esi
  === BLOCK LINK ===
    0x1f54
=== CODE BLOCK END ===

=== CODE BLOCK ADDRESS 0x1f54 ===
  0x1f54	dec    	eax
  0x1f55	mov    	dword ptr [esp + 0x20], eax
  0x1f59	inc    	ebp
  0x1f5a	xor    	eax, eax
  0x1f5c	dec    	eax
  === BLOCK LINK ===
    0x1f5d
=== CODE BLOCK END ===

=== CODE BLOCK ADDRESS 0x1f5d ===
  0x1f5d	call   	dword ptr [0x11e5]
  === BLOCK LINK ===
    0x1f63
=== CODE BLOCK END ===

=== CODE BLOCK ADDRESS 0x1f63 ===
  0x1f63	nop    	dword ptr [eax + eax]
  0x1f68	dec    	eax
  0x1f69	mov    	ecx, dword ptr [esp + 0x68]
  0x1f6d	test   	eax, eax
  0x1f6f	jne    	0x2036
  === BLOCK LINK ===
    0x1f75
=== CODE BLOCK END ===

=== CODE BLOCK ADDRESS 0x1f75 ===
  0x1f75	dec    	eax
  0x1f76	lea    	eax, [0x366c]
  0x1f7c	inc    	esp
  0x1f7d	mov    	dword ptr [esp + 0x28], esi
  0x1f81	inc    	ebp
  === BLOCK LINK ===
    0x1f82
=== CODE BLOCK END ===

=== CODE BLOCK ADDRESS 0x1f82 ===
  0x1f82	mov    	ecx, esi
  0x1f84	dec    	eax
  0x1f85	mov    	dword ptr [esp + 0x20], eax
  0x1f89	inc    	ebp
  0x1f8a	xor    	eax, eax
  === BLOCK LINK ===
    0x1f8c
=== CODE BLOCK END ===

=== CODE BLOCK ADDRESS 0x1f8c ===
  0x1f8c	dec    	eax
  0x1f8d	lea    	edx, [0x145d]
  0x1f93	dec    	eax
  0x1f94	call   	dword ptr [0x11ae]
  === BLOCK LINK ===
    0x1f9a
=== CODE BLOCK END ===

=== CODE BLOCK ADDRESS 0x1f9a ===
  0x1f9a	nop    	dword ptr [eax + eax]
  0x1f9f	dec    	eax
  0x1fa0	mov    	ecx, dword ptr [esp + 0x68]
  0x1fa4	test   	eax, eax
  0x1fa6	jne    	0x2036
  === BLOCK LINK ===
    0x1fac
=== CODE BLOCK END ===

=== CODE BLOCK ADDRESS 0x1fac ===
  0x1fac	dec    	eax
  0x1fad	lea    	eax, [0x3629]
  0x1fb3	inc    	esp
  0x1fb4	mov    	dword ptr [esp + 0x28], esi
  0x1fb8	inc    	ebp
  === BLOCK LINK ===
    0x1fb9
=== CODE BLOCK END ===

=== CODE BLOCK ADDRESS 0x1fb9 ===
  0x1fb9	mov    	ecx, esi
  0x1fbb	dec    	eax
  0x1fbc	mov    	dword ptr [esp + 0x20], eax
  0x1fc0	inc    	ebp
  0x1fc1	xor    	eax, eax
  === BLOCK LINK ===
    0x1fc3
=== CODE BLOCK END ===

=== CODE BLOCK ADDRESS 0x1fc3 ===
  0x1fc3	dec    	eax
  0x1fc4	lea    	edx, [0x14c6]
  0x1fca	dec    	eax
  0x1fcb	call   	dword ptr [0x1177]
  === BLOCK LINK ===
    0x1fd1
=== CODE BLOCK END ===

=== CODE BLOCK ADDRESS 0x1fd1 ===
  0x1fd1	nop    	dword ptr [eax + eax]
  0x1fd6	test   	eax, eax
  0x1fd8	jne    	0x2031
  === BLOCK LINK ===
    0x1fda
=== CODE BLOCK END ===

=== CODE BLOCK ADDRESS 0x1fda ===
  0x1fda	dec    	esp
  0x1fdb	lea    	eax, [esp + 0x60]
  0x1fdf	xor    	edx, edx
  0x1fe1	dec    	eax
  0x1fe2	lea    	ecx, [0x13e8]
  === BLOCK LINK ===
    0x1fe8
=== CODE BLOCK END ===

=== CODE BLOCK ADDRESS 0x1fe8 ===
  0x1fe8	dec    	eax
  0x1fe9	call   	dword ptr [0x1271]
  === BLOCK LINK ===
    0x1fef
=== CODE BLOCK END ===

=== CODE BLOCK ADDRESS 0x1fef ===
  0x1fef	nop    	dword ptr [eax + eax]
  0x1ff4	dec    	eax
  0x1ff5	mov    	ecx, dword ptr [esp + 0x68]
  0x1ff9	dec    	eax
  0x1ffa	call   	dword ptr [0x1170]
  === BLOCK LINK ===
    0x2000
=== CODE BLOCK END ===

=== CODE BLOCK ADDRESS 0x2000 ===
  0x2000	nop    	dword ptr [eax + eax]
  0x2005	dec    	eax
  0x2006	mov    	ecx, dword ptr [esp + 0x58]
  0x200a	dec    	eax
  0x200b	call   	dword ptr [0x115f]
  === BLOCK LINK ===
    0x2011
=== CODE BLOCK END ===

=== CODE BLOCK ADDRESS 0x2011 ===
  0x2011	nop    	dword ptr [eax + eax]
  0x2016	dec    	eax
  0x2017	mov    	ecx, dword ptr [esp + 0x78]
  0x201b	dec    	eax
  0x201c	call   	dword ptr [0x114e]
  === BLOCK LINK ===
    0x2022
=== CODE BLOCK END ===

=== CODE BLOCK ADDRESS 0x2022 ===
  0x2022	nop    	dword ptr [eax + eax]
  0x2027	mov    	eax, 1
  0x202c	jmp    	0x1c2f
  === BLOCK LINK ===
    0x2031
=== CODE BLOCK END ===

=== CODE BLOCK ADDRESS 0x2031 ===
  0x2031	dec    	eax
  0x2032	mov    	ecx, dword ptr [esp + 0x68]
  0x2036	dec    	eax
  0x2037	call   	dword ptr [0x1133]
  === BLOCK LINK ===
    0x203d
=== CODE BLOCK END ===

=== CODE BLOCK ADDRESS 0x203d ===
  0x203d	nop    	dword ptr [eax + eax]
  0x2042	jmp    	0x1c1c
  === BLOCK LINK ===
    0x2047
=== CODE BLOCK END ===

=== CODE BLOCK ADDRESS 0x2047 ===
  0x2047	int3   	
  0x2048	int3   	
  0x2049	int3   	
  0x204a	int3   	
  0x204b	int3   	
  === BLOCK LINK ===
    0x204c
=== CODE BLOCK END ===

=== CODE BLOCK ADDRESS 0x204c ===
  0x204c	int3   	
  0x204d	int3   	
  0x204e	int3   	
  0x204f	int3   	
  0x2050	dec    	eax
  === BLOCK LINK ===
    0x2051
=== CODE BLOCK END ===

=== CODE BLOCK ADDRESS 0x2051 ===
  0x2051	mov    	dword ptr [esp + 8], ebx
  0x2055	push   	edi
  0x2056	dec    	eax
  0x2057	sub    	esp, 0x30
  0x205a	xor    	ebx, ebx
  === BLOCK LINK ===
    0x205c
=== CODE BLOCK END ===

=== CODE BLOCK ADDRESS 0x205c ===
  0x205c	call   	0x1490
  === BLOCK LINK ===
    0x2061
=== CODE BLOCK END ===

=== CODE BLOCK ADDRESS 0x2061 ===
  0x2061	dec    	eax
  0x2062	mov    	dword ptr [0x3568], eax
  0x2068	dec    	eax
  0x2069	test   	eax, eax
  0x206b	je     	0x2139
  === BLOCK LINK ===
    0x2071
=== CODE BLOCK END ===

=== CODE BLOCK ADDRESS 0x2071 ===
  0x2071	dec    	esp
  0x2072	lea    	eax, [0x1320]
  0x2078	xor    	edx, edx
  0x207a	xor    	ecx, ecx
  0x207c	dec    	eax
  === BLOCK LINK ===
    0x207d
=== CODE BLOCK END ===

=== CODE BLOCK ADDRESS 0x207d ===
  0x207d	call   	dword ptr [0x1115]
  === BLOCK LINK ===
    0x2083
=== CODE BLOCK END ===

=== CODE BLOCK ADDRESS 0x2083 ===
  0x2083	nop    	dword ptr [eax + eax]
  0x2088	dec    	eax
  0x2089	mov    	edi, eax
  0x208b	dec    	eax
  0x208c	test   	eax, eax
  === BLOCK LINK ===
    0x208e
=== CODE BLOCK END ===

=== CODE BLOCK ADDRESS 0x208e ===
  0x208e	jne    	0x209f
  === BLOCK LINK ===
    0x2090
=== CODE BLOCK END ===

=== CODE BLOCK ADDRESS 0x2090 ===
  0x2090	mov    	ecx, 0xfc9
  0x2095	call   	0x1130
  === BLOCK LINK ===
    0x209a
=== CODE BLOCK END ===

=== CODE BLOCK ADDRESS 0x209a ===
  0x209a	jmp    	0x2139
  === BLOCK LINK ===
    0x209f
=== CODE BLOCK END ===

=== CODE BLOCK ADDRESS 0x209f ===
  0x209f	or     	edx, 0xffffffff
  0x20a2	dec    	eax
  0x20a3	mov    	ecx, edi
  0x20a5	dec    	eax
  0x20a6	call   	dword ptr [0x10f4]
  === BLOCK LINK ===
    0x20ac
=== CODE BLOCK END ===

=== CODE BLOCK ADDRESS 0x20ac ===
  0x20ac	nop    	dword ptr [eax + eax]
  0x20b1	dec    	esp
  0x20b2	mov    	eax, dword ptr [0x3518]
  0x20b8	dec    	eax
  0x20b9	lea    	eax, [0x12c1]
  === BLOCK LINK ===
    0x20bf
=== CODE BLOCK END ===

=== CODE BLOCK ADDRESS 0x20bf ===
  0x20bf	inc    	ecx
  0x20c0	or     	ecx, 0xffffffff
  0x20c3	inc    	esp
  0x20c4	mov    	dword ptr [esp + 0x28], ecx
  0x20c8	dec    	eax
  === BLOCK LINK ===
    0x20c9
=== CODE BLOCK END ===

=== CODE BLOCK ADDRESS 0x20c9 ===
  0x20c9	mov    	dword ptr [esp + 0x20], eax
  0x20cd	inc    	ecx
  0x20ce	lea    	edx, [ecx + 2]
  0x20d1	lea    	ecx, [edx + 0x7e]
  0x20d4	dec    	eax
  === BLOCK LINK ===
    0x20d5
=== CODE BLOCK END ===

=== CODE BLOCK ADDRESS 0x20d5 ===
  0x20d5	call   	dword ptr [0x10a5]
  === BLOCK LINK ===
    0x20db
=== CODE BLOCK END ===

=== CODE BLOCK ADDRESS 0x20db ===
  0x20db	nop    	dword ptr [eax + eax]
  0x20e0	cmp    	eax, 2
  0x20e3	jne    	0x20fc
  === BLOCK LINK ===
    0x20e5
=== CODE BLOCK END ===

=== CODE BLOCK ADDRESS 0x20e5 ===
  0x20e5	call   	0x1924
  === BLOCK LINK ===
    0x20ea
=== CODE BLOCK END ===

=== CODE BLOCK ADDRESS 0x20ea ===
  0x20ea	test   	eax, eax
  0x20ec	jne    	0x20f5
  === BLOCK LINK ===
    0x20ee
=== CODE BLOCK END ===

=== CODE BLOCK ADDRESS 0x20ee ===
  0x20ee	mov    	ecx, 0xfc0
  0x20f3	jmp    	0x2116
  === BLOCK LINK ===
    0x20f5
=== CODE BLOCK END ===

=== CODE BLOCK ADDRESS 0x20f5 ===
  0x20f5	mov    	ecx, 0xfae
  0x20fa	jmp    	0x2111
  === BLOCK LINK ===
    0x20fc
=== CODE BLOCK END ===

=== CODE BLOCK ADDRESS 0x20fc ===
  0x20fc	call   	0x1b68
  === BLOCK LINK ===
    0x2101
=== CODE BLOCK END ===

=== CODE BLOCK ADDRESS 0x2101 ===
  0x2101	test   	eax, eax
  0x2103	jne    	0x210c
  === BLOCK LINK ===
    0x2105
=== CODE BLOCK END ===

=== CODE BLOCK ADDRESS 0x2105 ===
  0x2105	mov    	ecx, 0xfc1
  0x210a	jmp    	0x2116
  === BLOCK LINK ===
    0x210c
=== CODE BLOCK END ===

=== CODE BLOCK ADDRESS 0x210c ===
  0x210c	mov    	ecx, 0xfaf
  0x2111	mov    	ebx, 1
  0x2116	call   	0x1130
  === BLOCK LINK ===
    0x211b
=== CODE BLOCK END ===

=== CODE BLOCK ADDRESS 0x211b ===
  0x211b	dec    	eax
  0x211c	mov    	ecx, edi
  0x211e	dec    	eax
  0x211f	call   	dword ptr [0x1083]
  === BLOCK LINK ===
    0x2125
=== CODE BLOCK END ===

=== CODE BLOCK ADDRESS 0x2125 ===
  0x2125	nop    	dword ptr [eax + eax]
  0x212a	dec    	eax
  0x212b	mov    	ecx, edi
  0x212d	dec    	eax
  0x212e	call   	dword ptr [0x108c]
  === BLOCK LINK ===
    0x2134
=== CODE BLOCK END ===

=== CODE BLOCK ADDRESS 0x2134 ===
  0x2134	nop    	dword ptr [eax + eax]
  0x2139	mov    	eax, ebx
  0x213b	dec    	eax
  0x213c	mov    	ebx, dword ptr [esp + 0x40]
  0x2140	dec    	eax
  === BLOCK LINK ===
    0x2141
=== CODE BLOCK END ===

=== CODE BLOCK ADDRESS 0x2141 ===
  0x2141	add    	esp, 0x30
  0x2144	pop    	edi
  0x2145	ret    	
  0x2146	int3   	
  0x2147	int3   	
  === BLOCK LINK ===
    0x2148
=== CODE BLOCK END ===

=== CODE BLOCK ADDRESS 0x2148 ===
  0x2148	int3   	
  0x2149	int3   	
  0x214a	int3   	
  0x214b	int3   	
  0x214c	int3   	
  === BLOCK LINK ===
    0x214d
=== CODE BLOCK END ===

=== CODE BLOCK ADDRESS 0x214d ===
  0x214d	int3   	
  0x214e	int3   	
  0x214f	int3   	
  0x2150	dec    	eax
  0x2151	sub    	esp, 0x28
  === BLOCK LINK ===
    0x2154
=== CODE BLOCK END ===

=== CODE BLOCK ADDRESS 0x2154 ===
  0x2154	mov    	eax, 0x5a4d
  0x2159	cmp    	word ptr [0xffffdea0], ax
  0x2160	je     	0x2166
  === BLOCK LINK ===
    0x2162
=== CODE BLOCK END ===

=== CODE BLOCK ADDRESS 0x2162 ===
  0x2162	xor    	eax, eax
  0x2164	jmp    	0x21b9
  === BLOCK LINK ===
    0x2166
=== CODE BLOCK END ===

=== CODE BLOCK ADDRESS 0x2166 ===
  0x2166	dec    	eax
  0x2167	arpl   	word ptr [0xffffdecf], cx
  0x216d	dec    	eax
  0x216e	lea    	eax, [0xffffde8c]
  0x2174	dec    	eax
  === BLOCK LINK ===
    0x2175
=== CODE BLOCK END ===

=== CODE BLOCK ADDRESS 0x2175 ===
  0x2175	add    	ecx, eax
  0x2177	cmp    	dword ptr [ecx], 0x4550
  0x217d	jne    	0x2162
  === BLOCK LINK ===
    0x217f
=== CODE BLOCK END ===

=== CODE BLOCK ADDRESS 0x217f ===
  0x217f	mov    	eax, 0x10b
  0x2184	cmp    	word ptr [ecx + 0x18], ax
  0x2188	je     	0x21a8
  === BLOCK LINK ===
    0x218a
=== CODE BLOCK END ===

=== CODE BLOCK ADDRESS 0x218a ===
  0x218a	mov    	eax, 0x20b
  0x218f	cmp    	word ptr [ecx + 0x18], ax
  0x2193	jne    	0x2162
  === BLOCK LINK ===
    0x2195
=== CODE BLOCK END ===

=== CODE BLOCK ADDRESS 0x2195 ===
  0x2195	xor    	eax, eax
  0x2197	cmp    	dword ptr [ecx + 0x84], 0xe
  0x219e	jbe    	0x21b9
  === BLOCK LINK ===
    0x21a0
=== CODE BLOCK END ===

=== CODE BLOCK ADDRESS 0x21a0 ===
  0x21a0	cmp    	dword ptr [ecx + 0xf8], eax
  0x21a6	jmp    	0x21b6
  === BLOCK LINK ===
    0x21a8
=== CODE BLOCK END ===

=== CODE BLOCK ADDRESS 0x21a8 ===
  0x21a8	xor    	eax, eax
  0x21aa	cmp    	dword ptr [ecx + 0x74], 0xe
  0x21ae	jbe    	0x21b9
  === BLOCK LINK ===
    0x21b0
=== CODE BLOCK END ===

=== CODE BLOCK ADDRESS 0x21b0 ===
  0x21b0	cmp    	dword ptr [ecx + 0xe8], eax
  0x21b6	setne  	al
  0x21b9	mov    	ecx, 2
  0x21be	mov    	dword ptr [0x2e7c], eax
  0x21c4	call   	0x2798
  === BLOCK LINK ===
    0x21c9
=== CODE BLOCK END ===

=== CODE BLOCK ADDRESS 0x21c9 ===
  0x21c9	mov    	ecx, eax
  0x21cb	call   	dword ptr [0x1107]
  === BLOCK LINK ===
    0x21d1
=== CODE BLOCK END ===

=== CODE BLOCK ADDRESS 0x21d1 ===
  0x21d1	dec    	eax
  0x21d2	mov    	ecx, dword ptr [0x10c0]
  0x21d8	dec    	eax
  0x21d9	or     	eax, 0xffffffff
  0x21dc	dec    	eax
  === BLOCK LINK ===
    0x21dd
=== CODE BLOCK END ===

=== CODE BLOCK ADDRESS 0x21dd ===
  0x21dd	mov    	dword ptr [0x340d], eax
  0x21e3	dec    	eax
  0x21e4	mov    	dword ptr [0x340e], eax
  0x21ea	mov    	eax, dword ptr [0x33dc]
  0x21f0	mov    	dword ptr [ecx], eax
  === BLOCK LINK ===
    0x21f2
=== CODE BLOCK END ===

=== CODE BLOCK ADDRESS 0x21f2 ===
  0x21f2	dec    	eax
  0x21f3	mov    	ecx, dword ptr [0x1097]
  0x21f9	mov    	eax, dword ptr [0x33c1]
  0x21ff	mov    	dword ptr [ecx], eax
  0x2201	call   	0x27f0
  === BLOCK LINK ===
    0x2206
=== CODE BLOCK END ===

=== CODE BLOCK ADDRESS 0x2206 ===
  0x2206	cmp    	dword ptr [0x2df3], 0
  0x220d	jne    	0x221c
  === BLOCK LINK ===
    0x220f
=== CODE BLOCK END ===

=== CODE BLOCK ADDRESS 0x220f ===
  0x220f	dec    	eax
  0x2210	lea    	ecx, [0x5da]
  0x2216	call   	dword ptr [0x10dc]
  === BLOCK LINK ===
    0x221c
=== CODE BLOCK END ===

=== CODE BLOCK ADDRESS 0x221c ===
  0x221c	xor    	eax, eax
  0x221e	dec    	eax
  0x221f	add    	esp, 0x28
  0x2222	ret    	
  0x2223	int3   	
  === BLOCK LINK ===
    0x2224
=== CODE BLOCK END ===

=== CODE BLOCK ADDRESS 0x111d ===
  0x111d	mov    	eax, esi
  0x111f	dec    	eax
  0x1120	add    	esp, 0x28
  0x1123	pop    	edi
  === BLOCK LINK ===
    0x1124
=== CODE BLOCK END ===

=== CODE BLOCK ADDRESS 0x2224 ===
  0x2224	int3   	
  0x2225	int3   	
  0x2226	int3   	
  0x2227	int3   	
  0x2228	int3   	
  === BLOCK LINK ===
    0x2229
=== CODE BLOCK END ===

=== CODE BLOCK ADDRESS 0x2229 ===
  0x2229	int3   	
  0x222a	int3   	
  0x222b	int3   	
  0x222c	int3   	
  0x222d	int3   	
  === BLOCK LINK ===
    0x222e
=== CODE BLOCK END ===

=== CODE BLOCK ADDRESS 0x222e ===
  0x222e	int3   	
  0x222f	int3   	
  0x2230	dec    	eax
  0x2231	sub    	esp, 0x38
  0x2234	mov    	eax, dword ptr [0x338e]
  === BLOCK LINK ===
    0x223a
=== CODE BLOCK END ===

=== CODE BLOCK ADDRESS 0x223a ===
  0x223a	dec    	esp
  0x223b	lea    	eax, [0x2df7]
  0x2241	inc    	esp
  0x2242	mov    	ecx, dword ptr [0x337c]
  0x2248	dec    	eax
  === BLOCK LINK ===
    0x2249
=== CODE BLOCK END ===

=== CODE BLOCK ADDRESS 0x2249 ===
  0x2249	lea    	edx, [0x2de1]
  0x224f	mov    	dword ptr [0x2def], eax
  0x2255	dec    	eax
  0x2256	lea    	ecx, [0x2dcc]
  0x225c	dec    	eax
  === BLOCK LINK ===
    0x225d
=== CODE BLOCK END ===

=== CODE BLOCK ADDRESS 0x225d ===
  0x225d	lea    	eax, [0x2de1]
  0x2263	dec    	eax
  0x2264	mov    	dword ptr [esp + 0x20], eax
  0x2268	call   	dword ptr [0x1072]
  === BLOCK LINK ===
    0x226e
=== CODE BLOCK END ===

=== CODE BLOCK ADDRESS 0x226e ===
  0x226e	mov    	dword ptr [0x2db8], eax
  0x2274	dec    	eax
  0x2275	add    	esp, 0x38
  0x2278	ret    	
  0x2279	int3   	
  === BLOCK LINK ===
    0x227a
=== CODE BLOCK END ===

=== CODE BLOCK ADDRESS 0x227a ===
  0x227a	int3   	
  0x227b	int3   	
  0x227c	int3   	
  0x227d	int3   	
  0x227e	int3   	
  === BLOCK LINK ===
    0x227f
=== CODE BLOCK END ===

=== CODE BLOCK ADDRESS 0x227f ===
  0x227f	int3   	
  0x2280	dec    	eax
  0x2281	sub    	esp, 0x28
  0x2284	call   	0x28e4
  === BLOCK LINK ===
    0x2289
=== CODE BLOCK END ===

=== CODE BLOCK ADDRESS 0x2289 ===
  0x2289	dec    	eax
  0x228a	add    	esp, 0x28
  0x228d	jmp    	0x2298
  === BLOCK LINK ===
    0x2292
=== CODE BLOCK END ===

=== CODE BLOCK ADDRESS 0x2292 ===
  0x2292	int3   	
  0x2293	int3   	
  0x2294	int3   	
  0x2295	int3   	
  0x2296	int3   	
  === BLOCK LINK ===
    0x2297
=== CODE BLOCK END ===

=== CODE BLOCK ADDRESS 0x2297 ===
  0x2297	int3   	
  0x2298	dec    	eax
  0x2299	mov    	dword ptr [esp + 8], ebx
  0x229d	dec    	eax
  0x229e	mov    	dword ptr [esp + 0x10], edi
  === BLOCK LINK ===
    0x22a2
=== CODE BLOCK END ===

=== CODE BLOCK ADDRESS 0x22a2 ===
  0x22a2	inc    	ecx
  0x22a3	push   	esi
  0x22a4	dec    	eax
  0x22a5	sub    	esp, 0xb0
  0x22ab	and    	dword ptr [esp + 0x20], 0
  === BLOCK LINK ===
    0x22b0
=== CODE BLOCK END ===

=== CODE BLOCK ADDRESS 0x22b0 ===
  0x22b0	dec    	eax
  0x22b1	lea    	ecx, [esp + 0x40]
  0x22b5	call   	dword ptr [0xf85]
  === BLOCK LINK ===
    0x22bb
=== CODE BLOCK END ===

=== CODE BLOCK ADDRESS 0x22bb ===
  0x22bb	nop    	
  0x22bc	dec    	eax
  0x22be	mov    	eax, dword ptr [0x30]
  0x22c5	dec    	eax
  0x22c6	mov    	ebx, dword ptr [eax + 8]
  === BLOCK LINK ===
    0x22c9
=== CODE BLOCK END ===

=== CODE BLOCK ADDRESS 0x22c9 ===
  0x22c9	xor    	edi, edi
  0x22cb	xor    	eax, eax
  0x22cd	.byte  	0xf0
  0x22ce	dec    	eax
  0x22cf	cmpxchg  	dword ptr [0x332a], ebx
  === BLOCK LINK ===
    0x22d6
=== CODE BLOCK END ===

=== CODE BLOCK ADDRESS 0x22d6 ===
  0x22d6	je     	0x22e2
  === BLOCK LINK ===
    0x22d8
=== CODE BLOCK END ===

=== CODE BLOCK ADDRESS 0x22d8 ===
  0x22d8	dec    	eax
  0x22d9	cmp    	eax, ebx
  0x22db	jne    	0x22f7
  === BLOCK LINK ===
    0x22dd
=== CODE BLOCK END ===

=== CODE BLOCK ADDRESS 0x22dd ===
  0x22dd	mov    	edi, 1
  0x22e2	mov    	eax, dword ptr [0x3320]
  0x22e8	cmp    	eax, 1
  0x22eb	jne    	0x2304
  === BLOCK LINK ===
    0x22ed
=== CODE BLOCK END ===

=== CODE BLOCK ADDRESS 0x22ed ===
  0x22ed	lea    	ecx, [eax + 0x1e]
  0x22f0	call   	0x27e3
  === BLOCK LINK ===
    0x22f5
=== CODE BLOCK END ===

=== CODE BLOCK ADDRESS 0x22f5 ===
  0x22f5	jmp    	0x2371
  === BLOCK LINK ===
    0x22f7
=== CODE BLOCK END ===

=== CODE BLOCK ADDRESS 0x22f7 ===
  0x22f7	mov    	ecx, 0x3e8
  0x22fc	call   	dword ptr [0xf46]
  === BLOCK LINK ===
    0x2302
=== CODE BLOCK END ===

=== CODE BLOCK ADDRESS 0x2302 ===
  0x2302	jmp    	0x22cb
  === BLOCK LINK ===
    0x2304
=== CODE BLOCK END ===

=== CODE BLOCK ADDRESS 0x2304 ===
  0x2304	mov    	eax, dword ptr [0x32fe]
  0x230a	test   	eax, eax
  0x230c	jne    	0x2367
  === BLOCK LINK ===
    0x230e
=== CODE BLOCK END ===

=== CODE BLOCK ADDRESS 0x230e ===
  0x230e	mov    	dword ptr [0x32f0], 1
  0x2318	dec    	esp
  0x2319	lea    	esi, [0x1031]
  0x231f	dec    	eax
  0x2320	lea    	ebx, [0x1012]
  === BLOCK LINK ===
    0x2326
=== CODE BLOCK END ===

=== CODE BLOCK ADDRESS 0x2326 ===
  0x2326	dec    	eax
  0x2327	mov    	dword ptr [esp + 0x30], ebx
  0x232b	mov    	dword ptr [esp + 0x24], eax
  0x232f	dec    	ecx
  0x2330	cmp    	ebx, esi
  === BLOCK LINK ===
    0x2332
=== CODE BLOCK END ===

=== CODE BLOCK ADDRESS 0x2332 ===
  0x2332	jae    	0x2359
  === BLOCK LINK ===
    0x2334
=== CODE BLOCK END ===

=== CODE BLOCK ADDRESS 0x2334 ===
  0x2334	test   	eax, eax
  0x2336	jne    	0x235d
  === BLOCK LINK ===
    0x2338
=== CODE BLOCK END ===

=== CODE BLOCK ADDRESS 0x2338 ===
  0x2338	dec    	eax
  0x2339	cmp    	dword ptr [ebx], 0
  0x233c	je     	0x234e
  === BLOCK LINK ===
    0x233e
=== CODE BLOCK END ===

=== CODE BLOCK ADDRESS 0x233e ===
  0x233e	dec    	eax
  0x233f	mov    	eax, dword ptr [ebx]
  0x2341	dec    	eax
  0x2342	mov    	ecx, dword ptr [0xfd0]
  0x2348	call   	ecx
  === BLOCK LINK ===
    0x234a
=== CODE BLOCK END ===

=== CODE BLOCK ADDRESS 0x234a ===
  0x234a	mov    	dword ptr [esp + 0x24], eax
  0x234e	dec    	eax
  0x234f	add    	ebx, 8
  0x2352	dec    	eax
  0x2353	mov    	dword ptr [esp + 0x30], ebx
  === BLOCK LINK ===
    0x2357
=== CODE BLOCK END ===

=== CODE BLOCK ADDRESS 0x2357 ===
  0x2357	jmp    	0x232f
  === BLOCK LINK ===
    0x2359
=== CODE BLOCK END ===

=== CODE BLOCK ADDRESS 0x2359 ===
  0x2359	test   	eax, eax
  0x235b	je     	0x2371
  === BLOCK LINK ===
    0x235d
=== CODE BLOCK END ===

=== CODE BLOCK ADDRESS 0x235d ===
  0x235d	mov    	eax, 0xff
  0x2362	jmp    	0x24c4
  === BLOCK LINK ===
    0x2367
=== CODE BLOCK END ===

=== CODE BLOCK ADDRESS 0x2367 ===
  0x2367	mov    	dword ptr [0x2cb3], 1
  0x2371	mov    	eax, dword ptr [0x3291]
  0x2377	cmp    	eax, 1
  0x237a	jne    	0x2399
  === BLOCK LINK ===
    0x237c
=== CODE BLOCK END ===

=== CODE BLOCK ADDRESS 0x237c ===
  0x237c	dec    	eax
  0x237d	lea    	edx, [0xfad]
  0x2383	dec    	eax
  0x2384	lea    	ecx, [0xf96]
  0x238a	call   	0x29be
  === BLOCK LINK ===
    0x238f
=== CODE BLOCK END ===

=== CODE BLOCK ADDRESS 0x238f ===
  0x238f	mov    	dword ptr [0x326f], 2
  0x2399	test   	edi, edi
  0x239b	jne    	0x23a6
  === BLOCK LINK ===
    0x239d
=== CODE BLOCK END ===

=== CODE BLOCK ADDRESS 0x239d ===
  0x239d	xor    	eax, eax
  0x239f	dec    	eax
  0x23a0	xchg   	dword ptr [0x325a], eax
  0x23a6	dec    	eax
  0x23a7	cmp    	dword ptr [0x3262], 0
  === BLOCK LINK ===
    0x23ae
=== CODE BLOCK END ===

=== CODE BLOCK ADDRESS 0x23ae ===
  0x23ae	je     	0x23da
  === BLOCK LINK ===
    0x23b0
=== CODE BLOCK END ===

=== CODE BLOCK ADDRESS 0x23b0 ===
  0x23b0	dec    	eax
  0x23b1	lea    	ecx, [0x3259]
  0x23b7	call   	0x2850
  === BLOCK LINK ===
    0x23bc
=== CODE BLOCK END ===

=== CODE BLOCK ADDRESS 0x23bc ===
  0x23bc	test   	eax, eax
  0x23be	je     	0x23da
  === BLOCK LINK ===
    0x23c0
=== CODE BLOCK END ===

=== CODE BLOCK ADDRESS 0x23c0 ===
  0x23c0	inc    	ebp
  0x23c1	xor    	eax, eax
  0x23c3	inc    	ecx
  0x23c4	lea    	edx, [eax + 2]
  0x23c7	xor    	ecx, ecx
  === BLOCK LINK ===
    0x23c9
=== CODE BLOCK END ===

=== CODE BLOCK ADDRESS 0x23c9 ===
  0x23c9	dec    	eax
  0x23ca	mov    	eax, dword ptr [0x3240]
  0x23d0	dec    	esp
  0x23d1	mov    	ecx, dword ptr [0xf41]
  0x23d7	inc    	ecx
  === BLOCK LINK ===
    0x23d8
=== CODE BLOCK END ===

=== CODE BLOCK ADDRESS 0x23d8 ===
  0x23d8	call   	ecx
  === BLOCK LINK ===
    0x23da
=== CODE BLOCK END ===

=== CODE BLOCK ADDRESS 0x23da ===
  0x23da	dec    	eax
  0x23db	mov    	eax, dword ptr [0xebf]
  0x23e1	dec    	eax
  0x23e2	mov    	ebx, dword ptr [eax]
  0x23e4	dec    	eax
  === BLOCK LINK ===
    0x23e5
=== CODE BLOCK END ===

=== CODE BLOCK ADDRESS 0x23e5 ===
  0x23e5	mov    	dword ptr [esp + 0x28], ebx
  0x23e9	mov    	edi, dword ptr [esp + 0x20]
  0x23ed	movzx  	ecx, byte ptr [ebx]
  0x23f0	cmp    	cl, 0x20
  0x23f3	ja     	0x2466
  === BLOCK LINK ===
    0x23f5
=== CODE BLOCK END ===

=== CODE BLOCK ADDRESS 0x23f5 ===
  0x23f5	test   	cl, cl
  0x23f7	je     	0x23fd
  === BLOCK LINK ===
    0x23f9
=== CODE BLOCK END ===

=== CODE BLOCK ADDRESS 0x23f9 ===
  0x23f9	test   	edi, edi
  0x23fb	jne    	0x2466
  === BLOCK LINK ===
    0x23fd
=== CODE BLOCK END ===

=== CODE BLOCK ADDRESS 0x23fd ===
  0x23fd	dec    	cl
  0x23ff	cmp    	cl, 0x1f
  0x2402	ja     	0x2410
  === BLOCK LINK ===
    0x2404
=== CODE BLOCK END ===

=== CODE BLOCK ADDRESS 0x2404 ===
  0x2404	dec    	eax
  0x2405	inc    	ebx
  0x2407	dec    	eax
  0x2408	mov    	dword ptr [esp + 0x28], ebx
  0x240c	mov    	cl, byte ptr [ebx]
  === BLOCK LINK ===
    0x240e
=== CODE BLOCK END ===

=== CODE BLOCK ADDRESS 0x240e ===
  0x240e	jmp    	0x23fd
  === BLOCK LINK ===
    0x2410
=== CODE BLOCK END ===

=== CODE BLOCK ADDRESS 0x2410 ===
  0x2410	test   	byte ptr [esp + 0x7c], 1
  0x2415	movzx  	eax, word ptr [esp + 0x80]
  0x241d	inc    	ecx
  0x241e	mov    	ecx, 0xa
  0x2423	inc    	esp
  === BLOCK LINK ===
    0x2424
=== CODE BLOCK END ===

=== CODE BLOCK ADDRESS 0x2424 ===
  0x2424	cmovne  	ecx, eax
  0x2427	dec    	esp
  0x2428	mov    	eax, ebx
  0x242a	xor    	edx, edx
  0x242c	dec    	eax
  === BLOCK LINK ===
    0x242d
=== CODE BLOCK END ===

=== CODE BLOCK ADDRESS 0x242d ===
  0x242d	lea    	ecx, [0xffffdbcd]
  0x2433	call   	0x16b0
  === BLOCK LINK ===
    0x2438
=== CODE BLOCK END ===

=== CODE BLOCK ADDRESS 0x2438 ===
  0x2438	mov    	dword ptr [0x2be2], eax
  0x243e	cmp    	dword ptr [0x2bfb], 0
  0x2445	jne    	0x244f
  === BLOCK LINK ===
    0x2447
=== CODE BLOCK END ===

=== CODE BLOCK ADDRESS 0x2447 ===
  0x2447	mov    	ecx, eax
  0x2449	call   	dword ptr [0xe81]
  === BLOCK LINK ===
    0x244f
=== CODE BLOCK END ===

=== CODE BLOCK ADDRESS 0x244f ===
  0x244f	cmp    	dword ptr [0x2bce], 0
  0x2456	jne    	0x2464
  === BLOCK LINK ===
    0x2458
=== CODE BLOCK END ===

=== CODE BLOCK ADDRESS 0x2458 ===
  0x2458	call   	dword ptr [0xe62]
  === BLOCK LINK ===
    0x245e
=== CODE BLOCK END ===

=== CODE BLOCK ADDRESS 0x245e ===
  0x245e	mov    	eax, dword ptr [0x2bbc]
  0x2464	jmp    	0x24c4
  === BLOCK LINK ===
    0x2466
=== CODE BLOCK END ===

=== CODE BLOCK ADDRESS 0x2466 ===
  0x2466	cmp    	cl, 0x22
  0x2469	jne    	0x2478
  === BLOCK LINK ===
    0x246b
=== CODE BLOCK END ===

=== CODE BLOCK ADDRESS 0x246b ===
  0x246b	xor    	eax, eax
  0x246d	test   	edi, edi
  0x246f	sete   	al
  0x2472	mov    	edi, eax
  0x2474	mov    	dword ptr [esp + 0x20], eax
  === BLOCK LINK ===
    0x2478
=== CODE BLOCK END ===

=== CODE BLOCK ADDRESS 0x2478 ===
  0x2478	call   	dword ptr [0xe3a]
  === BLOCK LINK ===
    0x247e
=== CODE BLOCK END ===

=== CODE BLOCK ADDRESS 0x247e ===
  0x247e	test   	eax, eax
  0x2480	je     	0x248a
  === BLOCK LINK ===
    0x2482
=== CODE BLOCK END ===

=== CODE BLOCK ADDRESS 0x2482 ===
  0x2482	dec    	eax
  0x2483	inc    	ebx
  0x2485	dec    	eax
  0x2486	mov    	dword ptr [esp + 0x28], ebx
  0x248a	dec    	eax
  === BLOCK LINK ===
    0x248b
=== CODE BLOCK END ===

=== CODE BLOCK ADDRESS 0x248b ===
  0x248b	inc    	ebx
  0x248d	dec    	eax
  0x248e	mov    	dword ptr [esp + 0x28], ebx
  0x2492	jmp    	0x23ed
  === BLOCK LINK ===
    0x2497
=== CODE BLOCK END ===

=== CODE BLOCK ADDRESS 0x2497 ===
  0x2497	mov    	dword ptr [0x2b83], eax
  0x249d	cmp    	dword ptr [0x2b9c], 0
  0x24a4	jne    	0x24af
  === BLOCK LINK ===
    0x24a6
=== CODE BLOCK END ===

=== CODE BLOCK ADDRESS 0x24a6 ===
  0x24a6	mov    	ecx, eax
  0x24a8	call   	dword ptr [0xe1a]
  === BLOCK LINK ===
    0x24ae
=== CODE BLOCK END ===

=== CODE BLOCK ADDRESS 0x24ae ===
  0x24ae	int3   	
  0x24af	cmp    	dword ptr [0x2b6e], 0
  0x24b6	jne    	0x24c4
  === BLOCK LINK ===
    0x24b8
=== CODE BLOCK END ===

=== CODE BLOCK ADDRESS 0x24b8 ===
  0x24b8	call   	dword ptr [0xe02]
  === BLOCK LINK ===
    0x24be
=== CODE BLOCK END ===

=== CODE BLOCK ADDRESS 0x24be ===
  0x24be	mov    	eax, dword ptr [0x2b5c]
  0x24c4	dec    	esp
  0x24c5	lea    	ebx, [esp + 0xb0]
  0x24cc	dec    	ecx
  0x24cd	mov    	ebx, dword ptr [ebx + 0x10]
  === BLOCK LINK ===
    0x24d0
=== CODE BLOCK END ===

=== CODE BLOCK ADDRESS 0x24d0 ===
  0x24d0	dec    	ecx
  0x24d1	mov    	edi, dword ptr [ebx + 0x18]
  0x24d4	dec    	ecx
  0x24d5	mov    	esp, ebx
  0x24d7	inc    	ecx
  === BLOCK LINK ===
    0x24d8
=== CODE BLOCK END ===

=== CODE BLOCK ADDRESS 0x24d8 ===
  0x24d8	pop    	esi
  0x24d9	ret    	
  0x24da	int3   	
  0x24db	int3   	
  0x24dc	int3   	
  === BLOCK LINK ===
    0x24dd
=== CODE BLOCK END ===

=== CODE BLOCK ADDRESS 0x24dd ===
  0x24dd	int3   	
  0x24de	int3   	
  0x24df	int3   	
  0x24e0	int3   	
  0x24e1	int3   	
  === BLOCK LINK ===
    0x24e2
=== CODE BLOCK END ===

=== CODE BLOCK ADDRESS 0x24e2 ===
  0x24e2	int3   	
  0x24e3	int3   	
  0x24e4	int3   	
  0x24e5	int3   	
  0x24e6	nop    	word ptr [eax + eax]
  === BLOCK LINK ===
    0x24f0
=== CODE BLOCK END ===

=== CODE BLOCK ADDRESS 0x24f0 ===
  0x24f0	dec    	eax
  0x24f1	cmp    	ecx, dword ptr [0x2b11]
  0x24f7	jne    	0x2509
  === BLOCK LINK ===
    0x24f9
=== CODE BLOCK END ===

=== CODE BLOCK ADDRESS 0x24f9 ===
  0x24f9	dec    	eax
  0x24fa	rol    	ecx, 0x10
  0x24fd	test   	cx, 0xffff
  0x2502	jne    	0x2505
  === BLOCK LINK ===
    0x2504
=== CODE BLOCK END ===

=== CODE BLOCK ADDRESS 0x2504 ===
  0x2504	ret    	
  0x2505	dec    	eax
  0x2506	ror    	ecx, 0x10
  0x2509	jmp    	0x2550
  === BLOCK LINK ===
    0x250e
=== CODE BLOCK END ===

=== CODE BLOCK ADDRESS 0x250e ===
  0x250e	int3   	
  0x250f	int3   	
  0x2510	int3   	
  0x2511	int3   	
  0x2512	int3   	
  === BLOCK LINK ===
    0x2513
=== CODE BLOCK END ===

=== CODE BLOCK ADDRESS 0x2513 ===
  0x2513	int3   	
  0x2514	inc    	eax
  0x2515	push   	ebx
  0x2516	dec    	eax
  0x2517	sub    	esp, 0x20
  === BLOCK LINK ===
    0x251a
=== CODE BLOCK END ===

=== CODE BLOCK ADDRESS 0x251a ===
  0x251a	dec    	eax
  0x251b	mov    	ebx, ecx
  0x251d	xor    	ecx, ecx
  0x251f	call   	dword ptr [0xcf3]
  === BLOCK LINK ===
    0x2525
=== CODE BLOCK END ===

=== CODE BLOCK ADDRESS 0x2525 ===
  0x2525	dec    	eax
  0x2526	mov    	ecx, ebx
  0x2528	call   	dword ptr [0xcf2]
  === BLOCK LINK ===
    0x252e
=== CODE BLOCK END ===

=== CODE BLOCK ADDRESS 0x252e ===
  0x252e	call   	dword ptr [0xcdc]
  === BLOCK LINK ===
    0x2534
=== CODE BLOCK END ===

=== CODE BLOCK ADDRESS 0x2534 ===
  0x2534	dec    	eax
  0x2535	mov    	ecx, eax
  0x2537	mov    	edx, 0xc0000409
  0x253c	dec    	eax
  0x253d	add    	esp, 0x20
  === BLOCK LINK ===
    0x2540
=== CODE BLOCK END ===

=== CODE BLOCK ADDRESS 0x2540 ===
  0x2540	pop    	ebx
  0x2541	dec    	eax
  0x2542	jmp    	dword ptr [0xcc0]
  === BLOCK LINK ===
    0x2548
=== CODE BLOCK END ===

=== CODE BLOCK ADDRESS 0x2548 ===
  0x2548	int3   	
  0x2549	int3   	
  0x254a	int3   	
  0x254b	int3   	
  0x254c	int3   	
  === BLOCK LINK ===
    0x254d
=== CODE BLOCK END ===

=== CODE BLOCK ADDRESS 0x254d ===
  0x254d	int3   	
  0x254e	int3   	
  0x254f	int3   	
  0x2550	dec    	eax
  0x2551	mov    	dword ptr [esp + 8], ecx
  === BLOCK LINK ===
    0x2555
=== CODE BLOCK END ===

=== CODE BLOCK ADDRESS 0x2555 ===
  0x2555	dec    	eax
  0x2556	sub    	esp, 0x88
  0x255c	dec    	eax
  0x255d	lea    	ecx, [0x2b8d]
  0x2563	call   	dword ptr [0xccf]
  === BLOCK LINK ===
    0x2569
=== CODE BLOCK END ===

=== CODE BLOCK ADDRESS 0x2569 ===
  0x2569	dec    	eax
  0x256a	mov    	eax, dword ptr [0x2c78]
  0x2570	dec    	eax
  0x2571	mov    	dword ptr [esp + 0x48], eax
  0x2575	inc    	ebp
  === BLOCK LINK ===
    0x2576
=== CODE BLOCK END ===

=== CODE BLOCK ADDRESS 0x2576 ===
  0x2576	xor    	eax, eax
  0x2578	dec    	eax
  0x2579	lea    	edx, [esp + 0x50]
  0x257d	dec    	eax
  0x257e	mov    	ecx, dword ptr [esp + 0x48]
  === BLOCK LINK ===
    0x2582
=== CODE BLOCK END ===

=== CODE BLOCK ADDRESS 0x2582 ===
  0x2582	call   	dword ptr [0xca8]
  === BLOCK LINK ===
    0x2588
=== CODE BLOCK END ===

=== CODE BLOCK ADDRESS 0x2588 ===
  0x2588	dec    	eax
  0x2589	mov    	dword ptr [esp + 0x40], eax
  0x258d	dec    	eax
  0x258e	cmp    	dword ptr [esp + 0x40], 0
  0x2593	je     	0x25d7
  === BLOCK LINK ===
    0x2595
=== CODE BLOCK END ===

=== CODE BLOCK ADDRESS 0x2595 ===
  0x2595	dec    	eax
  0x2596	mov    	dword ptr [esp + 0x38], 0
  0x259e	dec    	eax
  0x259f	lea    	eax, [esp + 0x58]
  0x25a3	dec    	eax
  === BLOCK LINK ===
    0x25a4
=== CODE BLOCK END ===

=== CODE BLOCK ADDRESS 0x25a4 ===
  0x25a4	mov    	dword ptr [esp + 0x30], eax
  0x25a8	dec    	eax
  0x25a9	lea    	eax, [esp + 0x60]
  0x25ad	dec    	eax
  0x25ae	mov    	dword ptr [esp + 0x28], eax
  === BLOCK LINK ===
    0x25b2
=== CODE BLOCK END ===

=== CODE BLOCK ADDRESS 0x25b2 ===
  0x25b2	dec    	eax
  0x25b3	lea    	eax, [0x2b37]
  0x25b9	dec    	eax
  0x25ba	mov    	dword ptr [esp + 0x20], eax
  0x25be	dec    	esp
  === BLOCK LINK ===
    0x25bf
=== CODE BLOCK END ===

=== CODE BLOCK ADDRESS 0x25bf ===
  0x25bf	mov    	ecx, dword ptr [esp + 0x40]
  0x25c3	dec    	esp
  0x25c4	mov    	eax, dword ptr [esp + 0x48]
  0x25c8	dec    	eax
  0x25c9	mov    	edx, dword ptr [esp + 0x50]
  === BLOCK LINK ===
    0x25cd
=== CODE BLOCK END ===

=== CODE BLOCK ADDRESS 0x25cd ===
  0x25cd	xor    	ecx, ecx
  0x25cf	call   	dword ptr [0xc53]
  === BLOCK LINK ===
    0x25d5
=== CODE BLOCK END ===

=== CODE BLOCK ADDRESS 0x25d5 ===
  0x25d5	jmp    	0x25fa
  === BLOCK LINK ===
    0x25d7
=== CODE BLOCK END ===

=== CODE BLOCK ADDRESS 0x25d7 ===
  0x25d7	dec    	eax
  0x25d8	mov    	eax, dword ptr [0x2baa]
  0x25de	dec    	eax
  0x25df	mov    	eax, dword ptr [eax]
  0x25e1	dec    	eax
  === BLOCK LINK ===
    0x25e2
=== CODE BLOCK END ===

=== CODE BLOCK ADDRESS 0x25e2 ===
  0x25e2	mov    	dword ptr [0x2c00], eax
  0x25e8	dec    	eax
  0x25e9	mov    	eax, dword ptr [0x2b99]
  0x25ef	dec    	eax
  0x25f0	add    	eax, 8
  === BLOCK LINK ===
    0x25f3
=== CODE BLOCK END ===

=== CODE BLOCK ADDRESS 0x25f3 ===
  0x25f3	dec    	eax
  0x25f4	mov    	dword ptr [0x2b8e], eax
  0x25fa	dec    	eax
  0x25fb	mov    	eax, dword ptr [0x2be7]
  0x2601	dec    	eax
  === BLOCK LINK ===
    0x2602
=== CODE BLOCK END ===

=== CODE BLOCK ADDRESS 0x2602 ===
  0x2602	mov    	dword ptr [0x2a58], eax
  0x2608	dec    	eax
  0x2609	mov    	eax, dword ptr [esp + 0x90]
  0x2610	dec    	eax
  0x2611	mov    	dword ptr [0x2b59], eax
  === BLOCK LINK ===
    0x2617
=== CODE BLOCK END ===

=== CODE BLOCK ADDRESS 0x2617 ===
  0x2617	mov    	dword ptr [0x2a2f], 0xc0000409
  0x2621	mov    	dword ptr [0x2a29], 1
  0x262b	mov    	dword ptr [0x2a33], 3
  0x2635	mov    	eax, 8
  0x263a	dec    	eax
  === BLOCK LINK ===
    0x263b
=== CODE BLOCK END ===

=== CODE BLOCK ADDRESS 0x263b ===
  0x263b	imul   	eax, eax, 0
  0x263e	dec    	eax
  0x263f	lea    	ecx, [0x2a2b]
  0x2645	dec    	eax
  0x2646	mov    	dword ptr [ecx + eax], 2
  === BLOCK LINK ===
    0x264d
=== CODE BLOCK END ===

=== CODE BLOCK ADDRESS 0x264d ===
  0x264d	mov    	eax, 8
  0x2652	dec    	eax
  0x2653	imul   	eax, eax, 1
  0x2656	dec    	eax
  0x2657	lea    	ecx, [0x2a13]
  === BLOCK LINK ===
    0x265d
=== CODE BLOCK END ===

=== CODE BLOCK ADDRESS 0x265d ===
  0x265d	dec    	eax
  0x265e	mov    	edx, dword ptr [0x29a4]
  0x2664	dec    	eax
  0x2665	mov    	dword ptr [ecx + eax], edx
  0x2668	mov    	eax, 8
  === BLOCK LINK ===
    0x266d
=== CODE BLOCK END ===

=== CODE BLOCK ADDRESS 0x266d ===
  0x266d	dec    	eax
  0x266e	imul   	eax, eax, 2
  0x2671	dec    	eax
  0x2672	lea    	ecx, [0x29f8]
  0x2678	dec    	eax
  === BLOCK LINK ===
    0x2679
=== CODE BLOCK END ===

=== CODE BLOCK ADDRESS 0x2679 ===
  0x2679	mov    	edx, dword ptr [0x2991]
  0x267f	dec    	eax
  0x2680	mov    	dword ptr [ecx + eax], edx
  0x2683	mov    	eax, 8
  0x2688	dec    	eax
  === BLOCK LINK ===
    0x2689
=== CODE BLOCK END ===

=== CODE BLOCK ADDRESS 0x2689 ===
  0x2689	imul   	eax, eax, 0
  0x268c	dec    	eax
  0x268d	mov    	ecx, dword ptr [0x2975]
  0x2693	dec    	eax
  0x2694	mov    	dword ptr [esp + eax + 0x68], ecx
  === BLOCK LINK ===
    0x2698
=== CODE BLOCK END ===

=== CODE BLOCK ADDRESS 0x2698 ===
  0x2698	mov    	eax, 8
  0x269d	dec    	eax
  0x269e	imul   	eax, eax, 1
  0x26a1	dec    	eax
  0x26a2	mov    	ecx, dword ptr [0x2968]
  === BLOCK LINK ===
    0x26a8
=== CODE BLOCK END ===

=== CODE BLOCK ADDRESS 0x26a8 ===
  0x26a8	dec    	eax
  0x26a9	mov    	dword ptr [esp + eax + 0x68], ecx
  0x26ad	dec    	eax
  0x26ae	lea    	ecx, [0x94c]
  0x26b4	call   	0x2514
  === BLOCK LINK ===
    0x26b9
=== CODE BLOCK END ===

=== CODE BLOCK ADDRESS 0x26b9 ===
  0x26b9	dec    	eax
  0x26ba	add    	esp, 0x88
  0x26c0	ret    	
  0x26c1	int3   	
  0x26c2	int3   	
  === BLOCK LINK ===
    0x26c3
=== CODE BLOCK END ===

=== CODE BLOCK ADDRESS 0x1193 ===
  0x1193	dec    	eax
  0x1194	mov    	ecx, dword ptr [esp + 0x420]
  0x119b	dec    	eax
  0x119c	xor    	ecx, esp
  === BLOCK LINK ===
    0x119e
=== CODE BLOCK END ===

=== CODE BLOCK ADDRESS 0x26c3 ===
  0x26c3	int3   	
  0x26c4	int3   	
  0x26c5	int3   	
  0x26c6	int3   	
  0x26c7	int3   	
  === BLOCK LINK ===
    0x26c8
=== CODE BLOCK END ===

=== CODE BLOCK ADDRESS 0x26c8 ===
  0x26c8	int3   	
  0x26c9	int3   	
  0x26ca	int3   	
  0x26cb	int3   	
  0x26cc	int3   	
  === BLOCK LINK ===
    0x26cd
=== CODE BLOCK END ===

=== CODE BLOCK ADDRESS 0x26cd ===
  0x26cd	int3   	
  0x26ce	int3   	
  0x26cf	int3   	
  0x26d0	dec    	eax
  0x26d1	sub    	esp, 0x28
  === BLOCK LINK ===
    0x26d4
=== CODE BLOCK END ===

=== CODE BLOCK ADDRESS 0x26d4 ===
  0x26d4	dec    	eax
  0x26d5	mov    	eax, dword ptr [ecx]
  0x26d7	cmp    	dword ptr [eax], 0xe06d7363
  0x26dd	jne    	0x2702
  === BLOCK LINK ===
    0x26df
=== CODE BLOCK END ===

=== CODE BLOCK ADDRESS 0x26df ===
  0x26df	cmp    	dword ptr [eax + 0x18], 4
  0x26e3	jne    	0x2702
  === BLOCK LINK ===
    0x26e5
=== CODE BLOCK END ===

=== CODE BLOCK ADDRESS 0x26e5 ===
  0x26e5	mov    	ecx, dword ptr [eax + 0x20]
  0x26e8	lea    	eax, [ecx - 0x19930520]
  0x26ee	cmp    	eax, 2
  0x26f1	jbe    	0x26fb
  === BLOCK LINK ===
    0x26f3
=== CODE BLOCK END ===

=== CODE BLOCK ADDRESS 0x26f3 ===
  0x26f3	cmp    	ecx, 0x1994000
  0x26f9	jne    	0x2702
  === BLOCK LINK ===
    0x26fb
=== CODE BLOCK END ===

=== CODE BLOCK ADDRESS 0x26fb ===
  0x26fb	call   	dword ptr [0xb87]
  === BLOCK LINK ===
    0x2701
=== CODE BLOCK END ===

=== CODE BLOCK ADDRESS 0x2701 ===
  0x2701	int3   	
  0x2702	xor    	eax, eax
  0x2704	dec    	eax
  0x2705	add    	esp, 0x28
  0x2708	ret    	
  === BLOCK LINK ===
    0x2709
=== CODE BLOCK END ===

=== CODE BLOCK ADDRESS 0x2709 ===
  0x2709	int3   	
  0x270a	int3   	
  0x270b	int3   	
  0x270c	int3   	
  0x270d	int3   	
  === BLOCK LINK ===
    0x270e
=== CODE BLOCK END ===

=== CODE BLOCK ADDRESS 0x270e ===
  0x270e	int3   	
  0x270f	int3   	
  0x2710	dec    	eax
  0x2711	sub    	esp, 0x28
  0x2714	dec    	eax
  === BLOCK LINK ===
    0x2715
=== CODE BLOCK END ===

=== CODE BLOCK ADDRESS 0x2715 ===
  0x2715	lea    	ecx, [0xffffffb5]
  0x271b	call   	dword ptr [0xaf7]
  === BLOCK LINK ===
    0x2721
=== CODE BLOCK END ===

=== CODE BLOCK ADDRESS 0x2721 ===
  0x2721	xor    	eax, eax
  0x2723	dec    	eax
  0x2724	add    	esp, 0x28
  0x2727	ret    	
  0x2728	int3   	
  === BLOCK LINK ===
    0x2729
=== CODE BLOCK END ===

=== CODE BLOCK ADDRESS 0x2729 ===
  0x2729	int3   	
  0x272a	int3   	
  0x272b	int3   	
  0x272c	int3   	
  0x272d	int3   	
  === BLOCK LINK ===
    0x272e
=== CODE BLOCK END ===

=== CODE BLOCK ADDRESS 0x272e ===
  0x272e	jmp    	dword ptr [0xbbc]
  === BLOCK LINK ===
    0x2734
=== CODE BLOCK END ===

=== CODE BLOCK ADDRESS 0x2734 ===
  0x2734	int3   	
  0x2735	int3   	
  0x2736	int3   	
  0x2737	int3   	
  0x2738	int3   	
  === BLOCK LINK ===
    0x2739
=== CODE BLOCK END ===

=== CODE BLOCK ADDRESS 0x2739 ===
  0x2739	int3   	
  0x273a	int3   	
  0x273b	int3   	
  0x273c	dec    	eax
  0x273d	sub    	esp, 0x18
  === BLOCK LINK ===
    0x2740
=== CODE BLOCK END ===

=== CODE BLOCK ADDRESS 0x2740 ===
  0x2740	xor    	edx, edx
  0x2742	dec    	eax
  0x2743	lea    	eax, [ecx - 1]
  0x2746	dec    	eax
  0x2747	cmp    	eax, -3
  === BLOCK LINK ===
    0x274a
=== CODE BLOCK END ===

=== CODE BLOCK ADDRESS 0x274a ===
  0x274a	ja     	0x2788
  === BLOCK LINK ===
    0x274c
=== CODE BLOCK END ===

=== CODE BLOCK ADDRESS 0x274c ===
  0x274c	mov    	eax, 0x5a4d
  0x2751	cmp    	word ptr [ecx], ax
  0x2754	jne    	0x2780
  === BLOCK LINK ===
    0x2756
=== CODE BLOCK END ===

=== CODE BLOCK ADDRESS 0x2756 ===
  0x2756	cmp    	dword ptr [ecx + 0x3c], edx
  0x2759	jl     	0x2780
  === BLOCK LINK ===
    0x275b
=== CODE BLOCK END ===

=== CODE BLOCK ADDRESS 0x275b ===
  0x275b	cmp    	dword ptr [ecx + 0x3c], 0x10000000
  0x2762	jae    	0x2780
  === BLOCK LINK ===
    0x2764
=== CODE BLOCK END ===

=== CODE BLOCK ADDRESS 0x2764 ===
  0x2764	dec    	eax
  0x2765	arpl   	word ptr [ecx + 0x3c], ax
  0x2768	dec    	eax
  0x2769	add    	eax, ecx
  0x276b	dec    	eax
  === BLOCK LINK ===
    0x276c
=== CODE BLOCK END ===

=== CODE BLOCK ADDRESS 0x276c ===
  0x276c	mov    	dword ptr [esp], eax
  0x276f	cmp    	dword ptr [eax], 0x4550
  0x2775	dec    	eax
  0x2776	cmovne  	eax, edx
  0x2779	dec    	eax
  === BLOCK LINK ===
    0x277a
=== CODE BLOCK END ===

=== CODE BLOCK ADDRESS 0x277a ===
  0x277a	mov    	edx, eax
  0x277c	dec    	eax
  0x277d	mov    	dword ptr [esp], eax
  0x2780	jmp    	0x2788
  === BLOCK LINK ===
    0x2782
=== CODE BLOCK END ===

=== CODE BLOCK ADDRESS 0x2782 ===
  0x2782	xor    	edx, edx
  0x2784	dec    	eax
  0x2785	mov    	dword ptr [esp], edx
  0x2788	dec    	eax
  0x2789	mov    	eax, edx
  === BLOCK LINK ===
    0x278b
=== CODE BLOCK END ===

=== CODE BLOCK ADDRESS 0x278b ===
  0x278b	dec    	eax
  0x278c	add    	esp, 0x18
  0x278f	ret    	
  0x2790	int3   	
  0x2791	int3   	
  === BLOCK LINK ===
    0x2792
=== CODE BLOCK END ===

=== CODE BLOCK ADDRESS 0x1463 ===
  0x1463	dec    	eax
  0x1464	mov    	ecx, dword ptr [ebp + 0x320]
  0x146a	dec    	eax
  0x146b	xor    	ecx, esp
  === BLOCK LINK ===
    0x146d
=== CODE BLOCK END ===

=== CODE BLOCK ADDRESS 0x2792 ===
  0x2792	int3   	
  0x2793	int3   	
  0x2794	int3   	
  0x2795	int3   	
  0x2796	int3   	
  === BLOCK LINK ===
    0x2797
=== CODE BLOCK END ===

=== CODE BLOCK ADDRESS 0x2797 ===
  0x2797	int3   	
  0x2798	inc    	eax
  0x2799	push   	ebx
  0x279a	dec    	eax
  0x279b	sub    	esp, 0x20
  === BLOCK LINK ===
    0x279e
=== CODE BLOCK END ===

=== CODE BLOCK ADDRESS 0x279e ===
  0x279e	mov    	ebx, ecx
  0x27a0	xor    	ecx, ecx
  0x27a2	call   	dword ptr [0xa28]
  === BLOCK LINK ===
    0x27a8
=== CODE BLOCK END ===

=== CODE BLOCK ADDRESS 0x27a8 ===
  0x27a8	dec    	eax
  0x27a9	test   	eax, eax
  0x27ab	je     	0x27d5
  === BLOCK LINK ===
    0x27ad
=== CODE BLOCK END ===

=== CODE BLOCK ADDRESS 0x27ad ===
  0x27ad	dec    	eax
  0x27ae	mov    	ecx, eax
  0x27b0	call   	0x273c
  === BLOCK LINK ===
    0x27b5
=== CODE BLOCK END ===

=== CODE BLOCK ADDRESS 0x27b5 ===
  0x27b5	dec    	eax
  0x27b6	test   	eax, eax
  0x27b8	je     	0x27d5
  === BLOCK LINK ===
    0x27ba
=== CODE BLOCK END ===

=== CODE BLOCK ADDRESS 0x27ba ===
  0x27ba	mov    	ecx, 2
  0x27bf	cmp    	word ptr [eax + 0x5c], cx
  0x27c3	jne    	0x27c9
  === BLOCK LINK ===
    0x27c5
=== CODE BLOCK END ===

=== CODE BLOCK ADDRESS 0x27c5 ===
  0x27c5	mov    	eax, ecx
  0x27c7	jmp    	0x27d7
  === BLOCK LINK ===
    0x27c9
=== CODE BLOCK END ===

=== CODE BLOCK ADDRESS 0x27c9 ===
  0x27c9	cmp    	word ptr [eax + 0x5c], 3
  0x27ce	mov    	eax, 1
  0x27d3	je     	0x27d7
  === BLOCK LINK ===
    0x27d5
=== CODE BLOCK END ===

=== CODE BLOCK ADDRESS 0x27d5 ===
  0x27d5	mov    	eax, ebx
  0x27d7	dec    	eax
  0x27d8	add    	esp, 0x20
  0x27db	pop    	ebx
  0x27dc	ret    	
  === BLOCK LINK ===
    0x27dd
=== CODE BLOCK END ===

=== CODE BLOCK ADDRESS 0x27dd ===
  0x27dd	int3   	
  0x27de	int3   	
  0x27df	int3   	
  0x27e0	int3   	
  0x27e1	int3   	
  === BLOCK LINK ===
    0x27e2
=== CODE BLOCK END ===

=== CODE BLOCK ADDRESS 0x27e2 ===
  0x27e2	int3   	
  0x27e3	jmp    	dword ptr [0xaff]
  === BLOCK LINK ===
    0x27e9
=== CODE BLOCK END ===

=== CODE BLOCK ADDRESS 0x27e9 ===
  0x27e9	int3   	
  0x27ea	int3   	
  0x27eb	int3   	
  0x27ec	int3   	
  0x27ed	int3   	
  === BLOCK LINK ===
    0x27ee
=== CODE BLOCK END ===

=== CODE BLOCK ADDRESS 0x27ee ===
  0x27ee	int3   	
  0x27ef	int3   	
  0x27f0	xor    	eax, eax
  0x27f2	ret    	
  0x27f3	int3   	
  === BLOCK LINK ===
    0x27f4
=== CODE BLOCK END ===

=== CODE BLOCK ADDRESS 0x27f4 ===
  0x27f4	int3   	
  0x27f5	int3   	
  0x27f6	int3   	
  0x27f7	int3   	
  0x27f8	int3   	
  === BLOCK LINK ===
    0x27f9
=== CODE BLOCK END ===

=== CODE BLOCK ADDRESS 0x27f9 ===
  0x27f9	int3   	
  0x27fa	int3   	
  0x27fb	int3   	
  0x27fc	int3   	
  0x27fd	int3   	
  === BLOCK LINK ===
    0x27fe
=== CODE BLOCK END ===

=== CODE BLOCK ADDRESS 0x27fe ===
  0x27fe	int3   	
  0x27ff	int3   	
  0x2800	dec    	esp
  0x2801	arpl   	word ptr [ecx + 0x3c], ax
  0x2804	inc    	ebp
  === BLOCK LINK ===
    0x2805
=== CODE BLOCK END ===

=== CODE BLOCK ADDRESS 0x2805 ===
  0x2805	xor    	ecx, ecx
  0x2807	dec    	esp
  0x2808	add    	eax, ecx
  0x280a	dec    	esp
  0x280b	mov    	edx, edx
  === BLOCK LINK ===
    0x280d
=== CODE BLOCK END ===

=== CODE BLOCK ADDRESS 0x280d ===
  0x280d	inc    	ecx
  0x280e	movzx  	eax, word ptr [eax + 0x14]
  0x2812	inc    	ebp
  0x2813	movzx  	ebx, word ptr [eax + 6]
  0x2817	dec    	eax
  === BLOCK LINK ===
    0x2818
=== CODE BLOCK END ===

=== CODE BLOCK ADDRESS 0x2818 ===
  0x2818	add    	eax, 0x18
  0x281b	dec    	ecx
  0x281c	add    	eax, eax
  0x281e	inc    	ebp
  0x281f	test   	ebx, ebx
  === BLOCK LINK ===
    0x2821
=== CODE BLOCK END ===

=== CODE BLOCK ADDRESS 0x2821 ===
  0x2821	je     	0x2841
  === BLOCK LINK ===
    0x2823
=== CODE BLOCK END ===

=== CODE BLOCK ADDRESS 0x2823 ===
  0x2823	mov    	edx, dword ptr [eax + 0xc]
  0x2826	dec    	esp
  0x2827	cmp    	edx, edx
  0x2829	jb     	0x2835
  === BLOCK LINK ===
    0x282b
=== CODE BLOCK END ===

=== CODE BLOCK ADDRESS 0x282b ===
  0x282b	mov    	ecx, dword ptr [eax + 8]
  0x282e	add    	ecx, edx
  0x2830	dec    	esp
  0x2831	cmp    	edx, ecx
  0x2833	jb     	0x2843
  === BLOCK LINK ===
    0x2835
=== CODE BLOCK END ===

=== CODE BLOCK ADDRESS 0x2835 ===
  0x2835	inc    	ecx
  0x2836	inc    	ecx
  0x2838	dec    	eax
  0x2839	add    	eax, 0x28
  0x283c	inc    	ebp
  === BLOCK LINK ===
    0x283d
=== CODE BLOCK END ===

=== CODE BLOCK ADDRESS 0x283d ===
  0x283d	cmp    	ecx, ebx
  0x283f	jb     	0x2823
  === BLOCK LINK ===
    0x2841
=== CODE BLOCK END ===

=== CODE BLOCK ADDRESS 0x2841 ===
  0x2841	xor    	eax, eax
  0x2843	ret    	
  0x2844	int3   	
  0x2845	int3   	
  0x2846	int3   	
  === BLOCK LINK ===
    0x2847
=== CODE BLOCK END ===

=== CODE BLOCK ADDRESS 0x1008 ===
  0x1008	mov    	edx, 0x1600
  0x100d	dec    	ebp
  === BLOCK LINK ===
    0x100e
=== CODE BLOCK END ===

=== CODE BLOCK ADDRESS 0x2847 ===
  0x2847	int3   	
  0x2848	int3   	
  0x2849	int3   	
  0x284a	int3   	
  0x284b	int3   	
  === BLOCK LINK ===
    0x284c
=== CODE BLOCK END ===

=== CODE BLOCK ADDRESS 0x284c ===
  0x284c	int3   	
  0x284d	int3   	
  0x284e	int3   	
  0x284f	int3   	
  0x2850	dec    	eax
  === BLOCK LINK ===
    0x2851
=== CODE BLOCK END ===

=== CODE BLOCK ADDRESS 0x2851 ===
  0x2851	mov    	dword ptr [esp + 8], ebx
  0x2855	push   	edi
  0x2856	dec    	eax
  0x2857	sub    	esp, 0x20
  0x285a	dec    	eax
  === BLOCK LINK ===
    0x285b
=== CODE BLOCK END ===

=== CODE BLOCK ADDRESS 0x285b ===
  0x285b	mov    	ebx, ecx
  0x285d	dec    	eax
  0x285e	lea    	edi, [0xffffd79c]
  0x2864	dec    	eax
  0x2865	mov    	ecx, edi
  === BLOCK LINK ===
    0x2867
=== CODE BLOCK END ===

=== CODE BLOCK ADDRESS 0x2867 ===
  0x2867	call   	0x28b0
  === BLOCK LINK ===
    0x286c
=== CODE BLOCK END ===

=== CODE BLOCK ADDRESS 0x286c ===
  0x286c	test   	eax, eax
  0x286e	je     	0x2892
  === BLOCK LINK ===
    0x2870
=== CODE BLOCK END ===

=== CODE BLOCK ADDRESS 0x2870 ===
  0x2870	dec    	eax
  0x2871	sub    	ebx, edi
  0x2873	dec    	eax
  0x2874	mov    	edx, ebx
  0x2876	dec    	eax
  === BLOCK LINK ===
    0x2877
=== CODE BLOCK END ===

=== CODE BLOCK ADDRESS 0x2877 ===
  0x2877	mov    	ecx, edi
  0x2879	call   	0x2800
  === BLOCK LINK ===
    0x287e
=== CODE BLOCK END ===

=== CODE BLOCK ADDRESS 0x287e ===
  0x287e	dec    	eax
  0x287f	test   	eax, eax
  0x2881	je     	0x2892
  === BLOCK LINK ===
    0x2883
=== CODE BLOCK END ===

=== CODE BLOCK ADDRESS 0x2883 ===
  0x2883	mov    	eax, dword ptr [eax + 0x24]
  0x2886	shr    	eax, 0x1f
  0x2889	not    	eax
  0x288b	and    	eax, 1
  0x288e	jmp    	0x2892
  === BLOCK LINK ===
    0x2890
=== CODE BLOCK END ===

=== CODE BLOCK ADDRESS 0x2890 ===
  0x2890	xor    	eax, eax
  0x2892	dec    	eax
  0x2893	mov    	ebx, dword ptr [esp + 0x30]
  0x2897	dec    	eax
  0x2898	add    	esp, 0x20
  === BLOCK LINK ===
    0x289b
=== CODE BLOCK END ===

=== CODE BLOCK ADDRESS 0x289b ===
  0x289b	pop    	edi
  0x289c	ret    	
  0x289d	int3   	
  0x289e	int3   	
  0x289f	int3   	
  === BLOCK LINK ===
    0x28a0
=== CODE BLOCK END ===

=== CODE BLOCK ADDRESS 0x28a0 ===
  0x28a0	int3   	
  0x28a1	int3   	
  0x28a2	int3   	
  0x28a3	int3   	
  0x28a4	int3   	
  === BLOCK LINK ===
    0x28a5
=== CODE BLOCK END ===

=== CODE BLOCK ADDRESS 0x28a5 ===
  0x28a5	int3   	
  0x28a6	int3   	
  0x28a7	int3   	
  0x28a8	int3   	
  0x28a9	int3   	
  === BLOCK LINK ===
    0x28aa
=== CODE BLOCK END ===

=== CODE BLOCK ADDRESS 0x28aa ===
  0x28aa	int3   	
  0x28ab	int3   	
  0x28ac	int3   	
  0x28ad	int3   	
  0x28ae	int3   	
  === BLOCK LINK ===
    0x28af
=== CODE BLOCK END ===

=== CODE BLOCK ADDRESS 0x28af ===
  0x28af	int3   	
  0x28b0	mov    	eax, 0x5a4d
  0x28b5	cmp    	word ptr [ecx], ax
  0x28b8	jne    	0x28da
  === BLOCK LINK ===
    0x28ba
=== CODE BLOCK END ===

=== CODE BLOCK ADDRESS 0x28ba ===
  0x28ba	dec    	eax
  0x28bb	arpl   	word ptr [ecx + 0x3c], ax
  0x28be	dec    	eax
  0x28bf	add    	eax, ecx
  0x28c1	cmp    	dword ptr [eax], 0x4550
  === BLOCK LINK ===
    0x28c7
=== CODE BLOCK END ===

=== CODE BLOCK ADDRESS 0x28c7 ===
  0x28c7	jne    	0x28da
  === BLOCK LINK ===
    0x28c9
=== CODE BLOCK END ===

=== CODE BLOCK ADDRESS 0x28c9 ===
  0x28c9	mov    	ecx, 0x20b
  0x28ce	cmp    	word ptr [eax + 0x18], cx
  0x28d2	jne    	0x28da
  === BLOCK LINK ===
    0x28d4
=== CODE BLOCK END ===

=== CODE BLOCK ADDRESS 0x28d4 ===
  0x28d4	mov    	eax, 1
  0x28d9	ret    	
  0x28da	xor    	eax, eax
  0x28dc	ret    	
  0x28dd	int3   	
  === BLOCK LINK ===
    0x28de
=== CODE BLOCK END ===

=== CODE BLOCK ADDRESS 0x28de ===
  0x28de	int3   	
  0x28df	int3   	
  0x28e0	int3   	
  0x28e1	int3   	
  0x28e2	int3   	
  === BLOCK LINK ===
    0x28e3
=== CODE BLOCK END ===

=== CODE BLOCK ADDRESS 0x28e3 ===
  0x28e3	int3   	
  0x28e4	dec    	eax
  0x28e5	mov    	dword ptr [esp + 0x20], ebx
  0x28e9	push   	ebp
  0x28ea	dec    	eax
  === BLOCK LINK ===
    0x28eb
=== CODE BLOCK END ===

=== CODE BLOCK ADDRESS 0x28eb ===
  0x28eb	mov    	ebp, esp
  0x28ed	dec    	eax
  0x28ee	sub    	esp, 0x20
  0x28f1	dec    	eax
  0x28f2	and    	dword ptr [ebp + 0x18], 0
  === BLOCK LINK ===
    0x28f6
=== CODE BLOCK END ===

=== CODE BLOCK ADDRESS 0x28f6 ===
  0x28f6	dec    	eax
  0x28f7	mov    	ebx, 0x2ddfa232
  0x28fc	cdq    	
  0x28fd	sub    	eax, dword ptr [eax]
  0x28ff	add    	byte ptr [eax - 0x75], cl
  === BLOCK LINK ===
    0x2902
=== CODE BLOCK END ===

=== CODE BLOCK ADDRESS 0x2902 ===
  0x2902	add    	eax, 0x2701
  0x2907	dec    	eax
  0x2908	cmp    	eax, ebx
  0x290a	jne    	0x29a3
  === BLOCK LINK ===
    0x2910
=== CODE BLOCK END ===

=== CODE BLOCK ADDRESS 0x2910 ===
  0x2910	dec    	eax
  0x2911	lea    	ecx, [ebp + 0x18]
  0x2914	call   	dword ptr [0x8c6]
  === BLOCK LINK ===
    0x291a
=== CODE BLOCK END ===

=== CODE BLOCK ADDRESS 0x291a ===
  0x291a	dec    	eax
  0x291b	mov    	eax, dword ptr [ebp + 0x18]
  0x291e	dec    	eax
  0x291f	mov    	dword ptr [ebp + 0x10], eax
  0x2922	call   	dword ptr [0x8c8]
  === BLOCK LINK ===
    0x2928
=== CODE BLOCK END ===

=== CODE BLOCK ADDRESS 0x2928 ===
  0x2928	mov    	eax, eax
  0x292a	dec    	eax
  0x292b	xor    	dword ptr [ebp + 0x10], eax
  0x292e	call   	dword ptr [0x8b4]
  === BLOCK LINK ===
    0x2934
=== CODE BLOCK END ===

=== CODE BLOCK ADDRESS 0x2934 ===
  0x2934	mov    	eax, eax
  0x2936	dec    	eax
  0x2937	xor    	dword ptr [ebp + 0x10], eax
  0x293a	call   	dword ptr [0x8c0]
  === BLOCK LINK ===
    0x2940
=== CODE BLOCK END ===

=== CODE BLOCK ADDRESS 0x2940 ===
  0x2940	mov    	eax, eax
  0x2942	dec    	eax
  0x2943	shl    	eax, 0x18
  0x2946	dec    	eax
  0x2947	xor    	dword ptr [ebp + 0x10], eax
  === BLOCK LINK ===
    0x294a
=== CODE BLOCK END ===

=== CODE BLOCK ADDRESS 0x294a ===
  0x294a	call   	dword ptr [0x8b0]
  === BLOCK LINK ===
    0x2950
=== CODE BLOCK END ===

=== CODE BLOCK ADDRESS 0x2950 ===
  0x2950	mov    	eax, eax
  0x2952	dec    	eax
  0x2953	lea    	ecx, [ebp + 0x10]
  0x2956	dec    	eax
  0x2957	xor    	eax, dword ptr [ebp + 0x10]
  === BLOCK LINK ===
    0x295a
=== CODE BLOCK END ===

=== CODE BLOCK ADDRESS 0x295a ===
  0x295a	dec    	eax
  0x295b	xor    	eax, ecx
  0x295d	dec    	eax
  0x295e	lea    	ecx, [ebp + 0x20]
  0x2961	dec    	eax
  === BLOCK LINK ===
    0x2962
=== CODE BLOCK END ===

=== CODE BLOCK ADDRESS 0x2962 ===
  0x2962	mov    	dword ptr [ebp + 0x10], eax
  0x2965	call   	dword ptr [0x88d]
  === BLOCK LINK ===
    0x296b
=== CODE BLOCK END ===

=== CODE BLOCK ADDRESS 0x296b ===
  0x296b	mov    	eax, dword ptr [ebp + 0x20]
  0x296e	dec    	eax
  0x296f	mov    	ecx, 0xffffffff
  0x2974	.byte  	0xff
  0x2975	inc    	dword ptr [eax]
  === BLOCK LINK ===
    0x2977
=== CODE BLOCK END ===

=== CODE BLOCK ADDRESS 0x2977 ===
  0x2977	add    	byte ptr [eax - 0x3f], cl
  0x297a	loopne  	0x299c
  === BLOCK LINK ===
    0x297c
=== CODE BLOCK END ===

=== CODE BLOCK ADDRESS 0x297c ===
  0x297c	dec    	eax
  0x297d	xor    	eax, dword ptr [ebp + 0x20]
  0x2980	dec    	eax
  0x2981	xor    	eax, dword ptr [ebp + 0x10]
  0x2984	dec    	eax
  === BLOCK LINK ===
    0x2985
=== CODE BLOCK END ===

=== CODE BLOCK ADDRESS 0x2985 ===
  0x2985	and    	eax, ecx
  0x2987	dec    	eax
  0x2988	mov    	ecx, eax
  0x298a	dec    	eax
  0x298b	cmp    	eax, ebx
  === BLOCK LINK ===
    0x298d
=== CODE BLOCK END ===

=== CODE BLOCK ADDRESS 0x298d ===
  0x298d	jne    	0x299c
  === BLOCK LINK ===
    0x298f
=== CODE BLOCK END ===

=== CODE BLOCK ADDRESS 0x298f ===
  0x298f	dec    	eax
  0x2990	mov    	eax, 0x2ddfa233
  0x2995	cdq    	
  0x2996	sub    	eax, dword ptr [eax]
  0x2998	add    	byte ptr [eax - 0x75], cl
  === BLOCK LINK ===
    0x299b
=== CODE BLOCK END ===

=== CODE BLOCK ADDRESS 0x299b ===
  0x299b	enter  	-0x76b8, 0xd
  0x299f	add    	byte ptr es:[eax], al
  0x29a3	dec    	eax
  0x29a4	mov    	ebx, dword ptr [esp + 0x48]
  0x29a8	dec    	eax
  === BLOCK LINK ===
    0x29a9
=== CODE BLOCK END ===

=== CODE BLOCK ADDRESS 0x29a9 ===
  0x29a9	not    	eax
  0x29ab	dec    	eax
  0x29ac	mov    	dword ptr [0x265e], eax
  0x29b2	dec    	eax
  0x29b3	add    	esp, 0x20
  === BLOCK LINK ===
    0x29b6
=== CODE BLOCK END ===

=== CODE BLOCK ADDRESS 0x29b6 ===
  0x29b6	pop    	ebp
  0x29b7	ret    	
  0x29b8	int3   	
  0x29b9	int3   	
  0x29ba	int3   	
  === BLOCK LINK ===
    0x29bb
=== CODE BLOCK END ===

=== CODE BLOCK ADDRESS 0x29bb ===
  0x29bb	int3   	
  0x29bc	int3   	
  0x29bd	int3   	
  0x29be	jmp    	dword ptr [0x8ec]
  === BLOCK LINK ===
    0x29c4
=== CODE BLOCK END ===

=== CODE BLOCK ADDRESS 0x29c4 ===
  0x29c4	int3   	
  0x29c5	int3   	
  0x29c6	int3   	
  0x29c7	int3   	
  0x29c8	int3   	
  === BLOCK LINK ===
    0x29c9
=== CODE BLOCK END ===

=== CODE BLOCK ADDRESS 0x29c9 ===
  0x29c9	int3   	
  0x29ca	jmp    	dword ptr [0x8d8]
  === BLOCK LINK ===
    0x29d0
=== CODE BLOCK END ===

=== CODE BLOCK ADDRESS 0x29d0 ===
  0x29d0	int3   	
  0x29d1	int3   	
  0x29d2	int3   	
  0x29d3	int3   	
  0x29d4	int3   	
  === BLOCK LINK ===
    0x29d5
=== CODE BLOCK END ===

=== CODE BLOCK ADDRESS 0x29d5 ===
  0x29d5	int3   	
  0x29d6	int3   	
  0x29d7	int3   	
  0x29d8	int3   	
  0x29d9	int3   	
  === BLOCK LINK ===
    0x29da
=== CODE BLOCK END ===

=== CODE BLOCK ADDRESS 0x29da ===
  0x29da	int3   	
  0x29db	int3   	
  0x29dc	int3   	
  0x29dd	int3   	
  0x29de	int3   	
  === BLOCK LINK ===
    0x29df
=== CODE BLOCK END ===

=== CODE BLOCK ADDRESS 0x29df ===
  0x29df	int3   	
  0x29e0	ret    	0
  0x29e3	int3   	
  0x29e4	int3   	
  0x29e5	int3   	
  === BLOCK LINK ===
    0x29e6
=== CODE BLOCK END ===

=== CODE BLOCK ADDRESS 0x29e6 ===
  0x29e6	int3   	
  0x29e7	int3   	
  0x29e8	int3   	
  0x29e9	int3   	
  0x29ea	int3   	
  === BLOCK LINK ===
    0x29eb
=== CODE BLOCK END ===

=== CODE BLOCK ADDRESS 0x29eb ===
  0x29eb	int3   	
  0x29ec	int3   	
  0x29ed	int3   	
  0x29ee	int3   	
  0x29ef	int3   	
  === BLOCK LINK ===
    0x29f0
=== CODE BLOCK END ===

=== CODE BLOCK ADDRESS 0x29f0 ===
  0x29f0	int3   	
  0x29f1	int3   	
  0x29f2	int3   	
  0x29f3	int3   	
  0x29f4	int3   	
  === BLOCK LINK ===
    0x29f5
=== CODE BLOCK END ===

=== CODE BLOCK ADDRESS 0x29f5 ===
  0x29f5	int3   	
  0x29f6	int3   	
  0x29f7	int3   	
  0x29f8	dec    	eax
  0x29f9	sub    	esp, 0x28
  === BLOCK LINK ===
    0x29fc
=== CODE BLOCK END ===

=== CODE BLOCK ADDRESS 0x29fc ===
  0x29fc	dec    	ebp
  0x29fd	mov    	eax, dword ptr [ecx + 0x38]
  0x2a00	dec    	eax
  0x2a01	mov    	ecx, edx
  0x2a03	dec    	ecx
  === BLOCK LINK ===
    0x2a04
=== CODE BLOCK END ===

=== CODE BLOCK ADDRESS 0x2a04 ===
  0x2a04	mov    	edx, ecx
  0x2a06	call   	0x2a1c
  === BLOCK LINK ===
    0x2a0b
=== CODE BLOCK END ===

=== CODE BLOCK ADDRESS 0x2a0b ===
  0x2a0b	mov    	eax, 1
  0x2a10	dec    	eax
  0x2a11	add    	esp, 0x28
  0x2a14	ret    	
  0x2a15	int3   	
  === BLOCK LINK ===
    0x2a16
=== CODE BLOCK END ===

=== CODE BLOCK ADDRESS 0x2a16 ===
  0x2a16	int3   	
  0x2a17	int3   	
  0x2a18	int3   	
  0x2a19	int3   	
  0x2a1a	int3   	
  === BLOCK LINK ===
    0x2a1b
=== CODE BLOCK END ===

=== CODE BLOCK ADDRESS 0x2a1b ===
  0x2a1b	int3   	
  0x2a1c	inc    	eax
  0x2a1d	push   	ebx
  0x2a1e	inc    	ebp
  0x2a1f	mov    	ebx, dword ptr [eax]
  === BLOCK LINK ===
    0x2a21
=== CODE BLOCK END ===

=== CODE BLOCK ADDRESS 0x2a21 ===
  0x2a21	dec    	eax
  0x2a22	mov    	ebx, edx
  0x2a24	inc    	ecx
  0x2a25	and    	ebx, 0xfffffff8
  0x2a28	dec    	esp
  === BLOCK LINK ===
    0x2a29
=== CODE BLOCK END ===

=== CODE BLOCK ADDRESS 0x2a29 ===
  0x2a29	mov    	ecx, ecx
  0x2a2b	inc    	ecx
  0x2a2c	test   	byte ptr [eax], 4
  0x2a2f	dec    	esp
  0x2a30	mov    	edx, ecx
  === BLOCK LINK ===
    0x2a32
=== CODE BLOCK END ===

=== CODE BLOCK ADDRESS 0x2a32 ===
  0x2a32	je     	0x2a47
  === BLOCK LINK ===
    0x2a34
=== CODE BLOCK END ===

=== CODE BLOCK ADDRESS 0x2a34 ===
  0x2a34	inc    	ecx
  0x2a35	mov    	eax, dword ptr [eax + 8]
  0x2a38	dec    	ebp
  0x2a39	arpl   	word ptr [eax + 4], dx
  0x2a3c	neg    	eax
  === BLOCK LINK ===
    0x2a3e
=== CODE BLOCK END ===

=== CODE BLOCK ADDRESS 0x2a3e ===
  0x2a3e	dec    	esp
  0x2a3f	add    	edx, ecx
  0x2a41	dec    	eax
  0x2a42	arpl   	ax, cx
  0x2a44	dec    	esp
  === BLOCK LINK ===
    0x2a45
=== CODE BLOCK END ===

=== CODE BLOCK ADDRESS 0x2a45 ===
  0x2a45	and    	edx, ecx
  0x2a47	dec    	ecx
  0x2a48	arpl   	bx, ax
  0x2a4a	dec    	edx
  0x2a4b	mov    	edx, dword ptr [eax + edx]
  === BLOCK LINK ===
    0x2a4e
=== CODE BLOCK END ===

=== CODE BLOCK ADDRESS 0x2a4e ===
  0x2a4e	dec    	eax
  0x2a4f	mov    	eax, dword ptr [ebx + 0x10]
  0x2a52	mov    	ecx, dword ptr [eax + 8]
  0x2a55	dec    	eax
  0x2a56	mov    	eax, dword ptr [ebx + 8]
  === BLOCK LINK ===
    0x2a59
=== CODE BLOCK END ===

=== CODE BLOCK ADDRESS 0x2a59 ===
  0x2a59	test   	byte ptr [ecx + eax + 3], 0xf
  0x2a5e	je     	0x2a6b
  === BLOCK LINK ===
    0x2a60
=== CODE BLOCK END ===

=== CODE BLOCK ADDRESS 0x2a60 ===
  0x2a60	movzx  	eax, byte ptr [ecx + eax + 3]
  0x2a65	and    	eax, 0xfffffff0
  0x2a68	dec    	esp
  0x2a69	add    	ecx, eax
  0x2a6b	dec    	esp
  === BLOCK LINK ===
    0x2a6c
=== CODE BLOCK END ===

=== CODE BLOCK ADDRESS 0x2a6c ===
  0x2a6c	xor    	ecx, edx
  0x2a6e	dec    	ecx
  0x2a6f	mov    	ecx, ecx
  0x2a71	pop    	ebx
  0x2a72	jmp    	0x24f0
  === BLOCK LINK ===
    0x2a77
=== CODE BLOCK END ===

=== CODE BLOCK ADDRESS 0x2a77 ===
  0x2a77	int3   	
  0x2a78	int3   	
  0x2a79	int3   	
  0x2a7a	int3   	
  0x2a7b	int3   	
  === BLOCK LINK ===
    0x2a7c
=== CODE BLOCK END ===

=== CODE BLOCK ADDRESS 0x2a7c ===
  0x2a7c	int3   	
  0x2a7d	int3   	
  0x2a7e	int3   	
  0x2a7f	int3   	
  0x2a80	int3   	
  === BLOCK LINK ===
    0x2a81
=== CODE BLOCK END ===

=== CODE BLOCK ADDRESS 0x2a81 ===
  0x2a81	int3   	
  0x2a82	int3   	
  0x2a83	int3   	
  0x2a84	int3   	
  0x2a85	int3   	
  === BLOCK LINK ===
    0x2a86
=== CODE BLOCK END ===

=== CODE BLOCK ADDRESS 0x2a86 ===
  0x2a86	nop    	word ptr [eax + eax]
  0x2a90	jmp    	eax
  === BLOCK LINK ===
    0x2a92
=== CODE BLOCK END ===

=== CODE BLOCK ADDRESS 0x2a92 ===
  0x2a92	int3   	
  0x2a93	int3   	
  0x2a94	int3   	
  0x2a95	int3   	
  0x2a96	int3   	
  === BLOCK LINK ===
    0x2a97
=== CODE BLOCK END ===

=== CODE BLOCK ADDRESS 0x2a97 ===
  0x2a97	int3   	
  0x2a98	int3   	
  0x2a99	int3   	
  0x2a9a	int3   	
  0x2a9b	int3   	
  === BLOCK LINK ===
    0x2a9c
=== CODE BLOCK END ===

=== CODE BLOCK ADDRESS 0x2a9c ===
  0x2a9c	int3   	
  0x2a9d	int3   	
  0x2a9e	int3   	
  0x2a9f	int3   	
  0x2aa0	inc    	eax
  === BLOCK LINK ===
    0x2aa1
=== CODE BLOCK END ===

=== CODE BLOCK ADDRESS 0x2aa1 ===
  0x2aa1	push   	ebp
  0x2aa2	dec    	eax
  0x2aa3	sub    	esp, 0x20
  0x2aa6	dec    	eax
  0x2aa7	mov    	ebp, edx
  === BLOCK LINK ===
    0x2aa9
=== CODE BLOCK END ===

=== CODE BLOCK ADDRESS 0x2aa9 ===
  0x2aa9	dec    	eax
  0x2aaa	mov    	eax, dword ptr [ecx]
  0x2aac	dec    	eax
  0x2aad	mov    	edx, ecx
  0x2aaf	mov    	ecx, dword ptr [eax]
  === BLOCK LINK ===
    0x2ab1
=== CODE BLOCK END ===

=== CODE BLOCK ADDRESS 0x2ab1 ===
  0x2ab1	call   	0x272e
  === BLOCK LINK ===
    0x2ab6
=== CODE BLOCK END ===

=== CODE BLOCK ADDRESS 0x2ab6 ===
  0x2ab6	nop    	
  0x2ab7	dec    	eax
  0x2ab8	add    	esp, 0x20
  0x2abb	pop    	ebp
  0x2abc	ret    	
  === BLOCK LINK ===
    0x2abd
=== CODE BLOCK END ===

=== CODE BLOCK ADDRESS 0x2abd ===
  0x2abd	int3   	
  0x2abe	int3   	
  0x2abf	int3   	
  0x2ac0	int3   	
  0x2ac1	int3   	
  === BLOCK LINK ===
    0x2ac2
=== CODE BLOCK END ===

=== CODE BLOCK ADDRESS 0x2ac2 ===
  0x2ac2	int3   	
  0x2ac3	int3   	
  0x2ac4	int3   	
  0x2ac5	int3   	
  0x2ac6	int3   	
  === BLOCK LINK ===
    0x2ac7
=== CODE BLOCK END ===

=== CODE BLOCK ADDRESS 0x2ac7 ===
  0x2ac7	int3   	
  0x2ac8	int3   	
  0x2ac9	int3   	
  0x2aca	int3   	
  0x2acb	int3   	
  === BLOCK LINK ===
    0x2acc
=== CODE BLOCK END ===

=== CODE BLOCK ADDRESS 0x2acc ===
  0x2acc	int3   	
  0x2acd	int3   	
  0x2ace	int3   	
  0x2acf	int3   	
  0x2ad0	inc    	eax
  === BLOCK LINK ===
    0x2ad1
=== CODE BLOCK END ===

=== CODE BLOCK ADDRESS 0x2ad1 ===
  0x2ad1	push   	ebp
  0x2ad2	dec    	eax
  0x2ad3	sub    	esp, 0x20
  0x2ad6	dec    	eax
  0x2ad7	mov    	ebp, edx
  === BLOCK LINK ===
    0x2ad9
=== CODE BLOCK END ===

=== CODE BLOCK ADDRESS 0x2ad9 ===
  0x2ad9	dec    	eax
  0x2ada	mov    	eax, dword ptr [ecx]
  0x2adc	xor    	ecx, ecx
  0x2ade	cmp    	dword ptr [eax], 0xc0000005
  0x2ae4	sete   	cl
  === BLOCK LINK ===
    0x2ae7
=== CODE BLOCK END ===

=== CODE BLOCK ADDRESS 0x2ae7 ===
  0x2ae7	mov    	eax, ecx
  0x2ae9	dec    	eax
  0x2aea	add    	esp, 0x20
  0x2aed	pop    	ebp
  0x2aee	ret    	
  === BLOCK LINK ===
    0x2aef
=== CODE BLOCK END ===

=== CODE BLOCK ADDRESS 0x2aef ===
  0x2aef	int3   	
  0x2af0	add    	byte ptr [eax], al
  0x2af2	add    	byte ptr [eax], al
  0x2af4	add    	byte ptr [eax], al
  0x2af6	add    	byte ptr [eax], al
  === BLOCK LINK ===
    0x2af8
=== CODE BLOCK END ===

=== CODE BLOCK ADDRESS 0x2af8 ===
  0x2af8	add    	byte ptr [eax], al
  0x2afa	add    	byte ptr [eax], al
  0x2afc	add    	byte ptr [eax], al
  0x2afe	add    	byte ptr [eax], al
  0x2b00	add    	byte ptr [eax], al
  === BLOCK LINK ===
    0x2b02
=== CODE BLOCK END ===

=== CODE BLOCK ADDRESS 0x2b02 ===
  0x2b02	add    	byte ptr [eax], al
  0x2b04	add    	byte ptr [eax], al
  0x2b06	add    	byte ptr [eax], al
  0x2b08	add    	byte ptr [eax], al
  0x2b0a	add    	byte ptr [eax], al
  === BLOCK LINK ===
    0x2b0c
=== CODE BLOCK END ===

=== CODE BLOCK ADDRESS 0x2b0c ===
  0x2b0c	add    	byte ptr [eax], al
  0x2b0e	add    	byte ptr [eax], al
  0x2b10	add    	byte ptr [eax], al
  0x2b12	add    	byte ptr [eax], al
  0x2b14	add    	byte ptr [eax], al
  === BLOCK LINK ===
    0x2b16
=== CODE BLOCK END ===

=== CODE BLOCK ADDRESS 0x2b16 ===
  0x2b16	add    	byte ptr [eax], al
  0x2b18	add    	byte ptr [eax], al
  0x2b1a	add    	byte ptr [eax], al
  0x2b1c	add    	byte ptr [eax], al
  0x2b1e	add    	byte ptr [eax], al
  === BLOCK LINK ===
    0x2b20
=== CODE BLOCK END ===

=== CODE BLOCK ADDRESS 0x2b20 ===
  0x2b20	add    	byte ptr [eax], al
  0x2b22	add    	byte ptr [eax], al
  0x2b24	add    	byte ptr [eax], al
  0x2b26	add    	byte ptr [eax], al
  0x2b28	add    	byte ptr [eax], al
  === BLOCK LINK ===
    0x2b2a
=== CODE BLOCK END ===

=== CODE BLOCK ADDRESS 0x2b2a ===
  0x2b2a	add    	byte ptr [eax], al
  0x2b2c	add    	byte ptr [eax], al
  0x2b2e	add    	byte ptr [eax], al
  0x2b30	add    	byte ptr [eax], al
  0x2b32	add    	byte ptr [eax], al
  === BLOCK LINK ===
    0x2b34
=== CODE BLOCK END ===

=== CODE BLOCK ADDRESS 0x2b34 ===
  0x2b34	add    	byte ptr [eax], al
  0x2b36	add    	byte ptr [eax], al
  0x2b38	add    	byte ptr [eax], al
  0x2b3a	add    	byte ptr [eax], al
  0x2b3c	add    	byte ptr [eax], al
  === BLOCK LINK ===
    0x2b3e
=== CODE BLOCK END ===

=== CODE BLOCK ADDRESS 0x2b3e ===
  0x2b3e	add    	byte ptr [eax], al
  0x2b40	add    	byte ptr [eax], al
  0x2b42	add    	byte ptr [eax], al
  0x2b44	add    	byte ptr [eax], al
  0x2b46	add    	byte ptr [eax], al
  === BLOCK LINK ===
    0x2b48
=== CODE BLOCK END ===

=== CODE BLOCK ADDRESS 0x2b48 ===
  0x2b48	add    	byte ptr [eax], al
  0x2b4a	add    	byte ptr [eax], al
  0x2b4c	add    	byte ptr [eax], al
  0x2b4e	add    	byte ptr [eax], al
  0x2b50	add    	byte ptr [eax], al
  === BLOCK LINK ===
    0x2b52
=== CODE BLOCK END ===

=== CODE BLOCK ADDRESS 0x2b52 ===
  0x2b52	add    	byte ptr [eax], al
  0x2b54	add    	byte ptr [eax], al
  0x2b56	add    	byte ptr [eax], al
  0x2b58	add    	byte ptr [eax], al
  0x2b5a	add    	byte ptr [eax], al
  === BLOCK LINK ===
    0x2b5c
=== CODE BLOCK END ===

=== CODE BLOCK ADDRESS 0x2b5c ===
  0x2b5c	add    	byte ptr [eax], al
  0x2b5e	add    	byte ptr [eax], al
  0x2b60	add    	byte ptr [eax], al
  0x2b62	add    	byte ptr [eax], al
  0x2b64	add    	byte ptr [eax], al
  === BLOCK LINK ===
    0x2b66
=== CODE BLOCK END ===

=== CODE BLOCK ADDRESS 0x2b66 ===
  0x2b66	add    	byte ptr [eax], al
  0x2b68	add    	byte ptr [eax], al
  0x2b6a	add    	byte ptr [eax], al
  0x2b6c	add    	byte ptr [eax], al
  0x2b6e	add    	byte ptr [eax], al
  === BLOCK LINK ===
    0x2b70
=== CODE BLOCK END ===

=== CODE BLOCK ADDRESS 0x2b70 ===
  0x2b70	add    	byte ptr [eax], al
  0x2b72	add    	byte ptr [eax], al
  0x2b74	add    	byte ptr [eax], al
  0x2b76	add    	byte ptr [eax], al
  0x2b78	add    	byte ptr [eax], al
  === BLOCK LINK ===
    0x2b7a
=== CODE BLOCK END ===

=== CODE BLOCK ADDRESS 0x2b7a ===
  0x2b7a	add    	byte ptr [eax], al
  0x2b7c	add    	byte ptr [eax], al
  0x2b7e	add    	byte ptr [eax], al
  0x2b80	add    	byte ptr [eax], al
  0x2b82	add    	byte ptr [eax], al
  === BLOCK LINK ===
    0x2b84
=== CODE BLOCK END ===

=== CODE BLOCK ADDRESS 0x2b84 ===
  0x2b84	add    	byte ptr [eax], al
  0x2b86	add    	byte ptr [eax], al
  0x2b88	add    	byte ptr [eax], al
  0x2b8a	add    	byte ptr [eax], al
  0x2b8c	add    	byte ptr [eax], al
  === BLOCK LINK ===
    0x2b8e
=== CODE BLOCK END ===

=== CODE BLOCK ADDRESS 0x2b8e ===
  0x2b8e	add    	byte ptr [eax], al
  0x2b90	add    	byte ptr [eax], al
  0x2b92	add    	byte ptr [eax], al
  0x2b94	add    	byte ptr [eax], al
  0x2b96	add    	byte ptr [eax], al
  === BLOCK LINK ===
    0x2b98
=== CODE BLOCK END ===

=== CODE BLOCK ADDRESS 0x2b98 ===
  0x2b98	add    	byte ptr [eax], al
  0x2b9a	add    	byte ptr [eax], al
  0x2b9c	add    	byte ptr [eax], al
  0x2b9e	add    	byte ptr [eax], al
  0x2ba0	add    	byte ptr [eax], al
  === BLOCK LINK ===
    0x2ba2
=== CODE BLOCK END ===

=== CODE BLOCK ADDRESS 0x2ba2 ===
  0x2ba2	add    	byte ptr [eax], al
  0x2ba4	add    	byte ptr [eax], al
  0x2ba6	add    	byte ptr [eax], al
  0x2ba8	add    	byte ptr [eax], al
  0x2baa	add    	byte ptr [eax], al
  === BLOCK LINK ===
    0x2bac
=== CODE BLOCK END ===

=== CODE BLOCK ADDRESS 0x2bac ===
  0x2bac	add    	byte ptr [eax], al
  0x2bae	add    	byte ptr [eax], al
  0x2bb0	add    	byte ptr [eax], al
  0x2bb2	add    	byte ptr [eax], al
  0x2bb4	add    	byte ptr [eax], al
  === BLOCK LINK ===
    0x2bb6
=== CODE BLOCK END ===

=== CODE BLOCK ADDRESS 0x2bb6 ===
  0x2bb6	add    	byte ptr [eax], al
  0x2bb8	add    	byte ptr [eax], al
  0x2bba	add    	byte ptr [eax], al
  0x2bbc	add    	byte ptr [eax], al
  0x2bbe	add    	byte ptr [eax], al
  === BLOCK LINK ===
    0x2bc0
=== CODE BLOCK END ===

=== CODE BLOCK ADDRESS 0x2bc0 ===
  0x2bc0	add    	byte ptr [eax], al
  0x2bc2	add    	byte ptr [eax], al
  0x2bc4	add    	byte ptr [eax], al
  0x2bc6	add    	byte ptr [eax], al
  0x2bc8	add    	byte ptr [eax], al
  === BLOCK LINK ===
    0x2bca
=== CODE BLOCK END ===

=== CODE BLOCK ADDRESS 0x2bca ===
  0x2bca	add    	byte ptr [eax], al
  0x2bcc	add    	byte ptr [eax], al
  0x2bce	add    	byte ptr [eax], al
  0x2bd0	add    	byte ptr [eax], al
  0x2bd2	add    	byte ptr [eax], al
  === BLOCK LINK ===
    0x2bd4
=== CODE BLOCK END ===

=== CODE BLOCK ADDRESS 0x2bd4 ===
  0x2bd4	add    	byte ptr [eax], al
  0x2bd6	add    	byte ptr [eax], al
  0x2bd8	add    	byte ptr [eax], al
  0x2bda	add    	byte ptr [eax], al
  0x2bdc	add    	byte ptr [eax], al
  === BLOCK LINK ===
    0x2bde
=== CODE BLOCK END ===

=== CODE BLOCK ADDRESS 0x2bde ===
  0x2bde	add    	byte ptr [eax], al
  0x2be0	add    	byte ptr [eax], al
  0x2be2	add    	byte ptr [eax], al
  0x2be4	add    	byte ptr [eax], al
  0x2be6	add    	byte ptr [eax], al
  === BLOCK LINK ===
    0x2be8
=== CODE BLOCK END ===

=== CODE BLOCK ADDRESS 0x2be8 ===
  0x2be8	add    	byte ptr [eax], al
  0x2bea	add    	byte ptr [eax], al
  0x2bec	add    	byte ptr [eax], al
  0x2bee	add    	byte ptr [eax], al
  0x2bf0	add    	byte ptr [eax], al
  === BLOCK LINK ===
    0x2bf2
=== CODE BLOCK END ===

=== CODE BLOCK ADDRESS 0x2bf2 ===
  0x2bf2	add    	byte ptr [eax], al
  0x2bf4	add    	byte ptr [eax], al
  0x2bf6	add    	byte ptr [eax], al
  0x2bf8	add    	byte ptr [eax], al
  0x2bfa	add    	byte ptr [eax], al
  === BLOCK LINK ===
    0x2bfc
=== CODE BLOCK END ===

=== CODE BLOCK ADDRESS 0x2bfc ===
  0x2bfc	add    	byte ptr [eax], al
=== CODE BLOCK END ===

=== DATA BLOCK ADDRESS 0x3000 ===
  0x3000	50 50 00 40 01 00 00 00 f0 50 00 40 01 00 00 00 	PP0@00000P0@0000
  0x3010	18 01 00 00 00 00 00 00 00 00 00 00 00 00 00 00 	0000000000000000
  0x3020	00 00 00 00 00 00 00 00 00 00 00 00 00 00 00 00 	0000000000000000
  0x3030	00 00 00 00 00 00 00 00 00 00 00 00 00 00 00 00 	0000000000000000
  0x3040	00 00 00 00 00 00 00 00 00 00 00 00 00 00 00 00 	0000000000000000
  0x3050	00 00 00 00 00 00 00 00 00 00 00 00 00 00 00 00 	0000000000000000
  0x3060	00 00 00 00 00 00 00 00 08 50 00 40 01 00 00 00 	000000000P0@0000
  0x3070	00 00 00 00 00 00 00 00 00 00 00 00 00 00 00 00 	0000000000000000
  0x3080	10 33 00 40 01 00 00 00 18 33 00 40 01 00 00 00 	030@0000030@0000
  0x3090	58 33 00 40 01 00 00 00 08 00 00 00 00 00 00 00 	X30@000000000000
  0x30a0	00 75 01 00 00 00 00 00 00 00 00 00 00 00 00 00 	0u00000000000000
  0x30b0	00 00 00 00 00 00 00 00 00 00 00 00 00 00 00 00 	0000000000000000
  0x30c0	00 00 00 00 00 00 00 00 00 00 00 00 00 00 00 00 	0000000000000000
  0x30d0	00 00 00 00 00 00 00 00 00 00 00 00 00 00 00 00 	0000000000000000
  0x30e0	00 00 00 00 00 00 00 00 00 00 00 00 00 00 00 00 	0000000000000000
  0x30f0	00 00 00 00 00 00 00 00 00 00 00 00 00 00 00 00 	0000000000000000
  0x3100	00 00 00 00 00 00 00 00 00 00 00 00 00 00 00 00 	0000000000000000
  0x3110	00 00 00 00 00 00 00 00 00 00 00 00 00 00 00 00 	0000000000000000
  0x3120	00 00 00 00 00 00 00 00 58 3c 00 00 00 00 00 00 	00000000X<000000
  0x3130	6c 3c 00 00 00 00 00 00 7c 3c 00 00 00 00 00 00 	l<000000|<000000
  0x3140	94 3c 00 00 00 00 00 00 9e 3c 00 00 00 00 00 00 	0<0000000<000000
  0x3150	b0 3c 00 00 00 00 00 00 c0 3c 00 00 00 00 00 00 	0<0000000<000000
  0x3160	d2 3c 00 00 00 00 00 00 ee 3c 00 00 00 00 00 00 	0<0000000<000000
  0x3170	fe 3c 00 00 00 00 00 00 00 00 00 00 00 00 00 00 	0<00000000000000
  0x3180	1a 3d 00 00 00 00 00 00 2c 3d 00 00 00 00 00 00 	0=000000,=000000
  0x3190	3e 3d 00 00 00 00 00 00 4a 3d 00 00 00 00 00 00 	>=000000J=000000
  0x31a0	5a 3d 00 00 00 00 00 00 70 3d 00 00 00 00 00 00 	Z=000000p=000000
  0x31b0	80 3d 00 00 00 00 00 00 8e 3d 00 00 00 00 00 00 	0=0000000=000000
  0x31c0	9c 3d 00 00 00 00 00 00 aa 3d 00 00 00 00 00 00 	0=0000000=000000
  0x31d0	c0 3d 00 00 00 00 00 00 d4 3d 00 00 00 00 00 00 	0=0000000=000000
  0x31e0	3c 40 00 00 00 00 00 00 26 40 00 00 00 00 00 00 	<@000000&@000000
  0x31f0	10 40 00 00 00 00 00 00 f6 3f 00 00 00 00 00 00 	0@0000000?000000
  0x3200	56 40 00 00 00 00 00 00 e2 3f 00 00 00 00 00 00 	V@0000000?000000
  0x3210	ce 3f 00 00 00 00 00 00 b0 3f 00 00 00 00 00 00 	0?0000000?000000
  0x3220	94 3f 00 00 00 00 00 00 80 3f 00 00 00 00 00 00 	0?0000000?000000
  0x3230	66 3f 00 00 00 00 00 00 52 3f 00 00 00 00 00 00 	f?000000R?000000
  0x3240	40 3f 00 00 00 00 00 00 38 3f 00 00 00 00 00 00 	@?0000008?000000
  0x3250	00 00 00 00 00 00 00 00 02 3f 00 00 00 00 00 00 	000000000?000000
  0x3260	18 3f 00 00 00 00 00 00 00 00 00 00 00 00 00 00 	0?00000000000000
  0x3270	fc 3d 00 00 00 00 00 00 ee 3d 00 00 00 00 00 00 	0=0000000=000000
  0x3280	00 00 00 00 00 00 00 00 ee 3e 00 00 00 00 00 00 	000000000>000000
  0x3290	d6 3e 00 00 00 00 00 00 cc 3e 00 00 00 00 00 00 	0>0000000>000000
  0x32a0	c2 3e 00 00 00 00 00 00 aa 3e 00 00 00 00 00 00 	0>0000000>000000
  0x32b0	9e 3e 00 00 00 00 00 00 7c 3e 00 00 00 00 00 00 	0>000000|>000000
  0x32c0	72 3e 00 00 00 00 00 00 6a 3e 00 00 00 00 00 00 	r>000000j>000000
  0x32d0	62 3e 00 00 00 00 00 00 50 3e 00 00 00 00 00 00 	b>000000P>000000
  0x32e0	40 3e 00 00 00 00 00 00 32 3e 00 00 00 00 00 00 	@>0000002>000000
  0x32f0	24 3e 00 00 00 00 00 00 8a 3e 00 00 00 00 00 00 	$>0000000>000000
  0x3300	16 3e 00 00 00 00 00 00 00 00 00 00 00 00 00 00 	0>00000000000000
  0x3310	e0 29 00 40 01 00 00 00 90 2a 00 40 01 00 00 00 	0)0@00000*0@0000
  0x3320	00 00 00 00 00 00 00 00 30 22 00 40 01 00 00 00 	000000000"0@0000
  0x3330	00 00 00 00 00 00 00 00 00 00 00 00 00 00 00 00 	0000000000000000
  0x3340	50 21 00 40 01 00 00 00 10 27 00 40 01 00 00 00 	P!0@00000'0@0000
  0x3350	00 00 00 00 00 00 00 00 50 21 00 00 30 22 00 00 	00000000P!000"00
  0x3360	80 22 00 00 50 25 00 00 d0 26 00 00 10 27 00 00 	0"00P%000&000'00
  0x3370	f0 27 00 00 e0 29 00 00 00 00 00 00 00 00 00 00 	0'000)0000000000
  0x3380	2f 00 64 00 00 00 00 00 25 00 73 00 25 00 64 00 	/0d00000%0s0%0d0
  0x3390	00 00 00 00 00 00 00 00 54 00 61 00 70 00 69 00 	00000000T0a0p0i0
  0x33a0	73 00 72 00 76 00 50 00 72 00 6f 00 76 00 69 00 	s0r0v0P0r0o0v0i0
  0x33b0	64 00 65 00 72 00 4c 00 69 00 73 00 74 00 4d 00 	d0e0r0L0i0s0t0M0
  0x33c0	75 00 74 00 65 00 78 00 00 00 00 00 00 00 00 00 	u0t0e0x000000000
  0x33d0	52 00 65 00 6d 00 6f 00 74 00 65 00 53 00 50 00 	R0e0m0o0t0e0S0P0
  0x33e0	2e 00 54 00 53 00 50 00 00 00 00 00 00 00 00 00 	.0T0S0P000000000
  0x33f0	43 00 6f 00 6e 00 6e 00 65 00 63 00 74 00 69 00 	C0o0n0n0e0c0t0i0
  0x3400	6f 00 6e 00 4f 00 72 00 69 00 65 00 6e 00 74 00 	o0n0O0r0i0e0n0t0
  0x3410	65 00 64 00 4f 00 6e 00 6c 00 79 00 00 00 00 00 	e0d0O0n0l0y00000
  0x3420	4e 00 75 00 6d 00 53 00 65 00 72 00 76 00 65 00 	N0u0m0S0e0r0v0e0
  0x3430	72 00 73 00 00 00 00 00 50 00 72 00 6f 00 76 00 	r0s00000P0r0o0v0
  0x3440	69 00 64 00 65 00 72 00 49 00 44 00 00 00 00 00 	i0d0e0r0I0D00000
  0x3450	4e 00 75 00 6d 00 50 00 72 00 6f 00 76 00 69 00 	N0u0m0P0r0o0v0i0
  0x3460	64 00 65 00 72 00 73 00 00 00 00 00 00 00 00 00 	d0e0r0s000000000
  0x3470	4e 00 65 00 78 00 74 00 50 00 72 00 6f 00 76 00 	N0e0x0t0P0r0o0v0
  0x3480	69 00 64 00 65 00 72 00 49 00 44 00 00 00 00 00 	i0d0e0r0I0D00000
  0x3490	4e 00 6f 00 44 00 53 00 51 00 75 00 65 00 72 00 	N0o0D0S0Q0u0e0r0
  0x34a0	79 00 00 00 00 00 00 00 00 00 00 00 00 00 00 00 	y000000000000000
  0x34b0	53 00 6f 00 66 00 74 00 77 00 61 00 72 00 65 00 	S0o0f0t0w0a0r0e0
  0x34c0	5c 00 4d 00 69 00 63 00 72 00 6f 00 73 00 6f 00 	00M0i0c0r0o0s0o0
  0x34d0	66 00 74 00 5c 00 57 00 69 00 6e 00 64 00 6f 00 	f0t000W0i0n0d0o0
  0x34e0	77 00 73 00 5c 00 43 00 75 00 72 00 72 00 65 00 	w0s000C0u0r0r0e0
  0x34f0	6e 00 74 00 56 00 65 00 72 00 73 00 69 00 6f 00 	n0t0V0e0r0s0i0o0
  0x3500	6e 00 5c 00 54 00 65 00 6c 00 65 00 70 00 68 00 	n000T0e0l0e0p0h0
  0x3510	6f 00 6e 00 79 00 00 00 53 00 65 00 72 00 76 00 	o0n0y000S0e0r0v0
  0x3520	65 00 72 00 00 00 00 00 50 00 72 00 6f 00 76 00 	e0r00000P0r0o0v0
  0x3530	69 00 64 00 65 00 72 00 46 00 69 00 6c 00 65 00 	i0d0e0r0F0i0l0e0
  0x3540	6e 00 61 00 6d 00 65 00 00 00 00 00 00 00 00 00 	n0a0m0e000000000
  0x3550	53 00 6f 00 66 00 74 00 77 00 61 00 72 00 65 00 	S0o0f0t0w0a0r0e0
  0x3560	5c 00 4d 00 69 00 63 00 72 00 6f 00 73 00 6f 00 	00M0i0c0r0o0s0o0
  0x3570	66 00 74 00 5c 00 57 00 69 00 6e 00 64 00 6f 00 	f0t000W0i0n0d0o0
  0x3580	77 00 73 00 5c 00 43 00 75 00 72 00 72 00 65 00 	w0s000C0u0r0r0e0
  0x3590	6e 00 74 00 56 00 65 00 72 00 73 00 69 00 6f 00 	n0t0V0e0r0s0i0o0
  0x35a0	6e 00 5c 00 54 00 65 00 6c 00 65 00 70 00 68 00 	n000T0e0l0e0p0h0
  0x35b0	6f 00 6e 00 79 00 5c 00 50 00 72 00 6f 00 76 00 	o0n0y000P0r0o0v0
  0x35c0	69 00 64 00 65 00 72 00 73 00 00 00 00 00 00 00 	i0d0e0r0s0000000
  0x35d0	50 00 72 00 6f 00 76 00 69 00 64 00 65 00 72 00 	P0r0o0v0i0d0e0r0
  0x35e0	00 00 00 00 00 00 00 00 00 00 00 00 00 00 00 00 	0000000000000000
  0x35f0	00 00 00 00 20 27 80 58 00 00 00 00 02 00 00 00 	0000 '0X00000000
  0x3600	25 00 00 00 44 36 00 00 44 26 00 00 00 00 00 00 	%000D600D&000000
  0x3610	20 27 80 58 00 00 00 00 0d 00 00 00 f0 01 00 00 	 '0X000000000000
  0x3620	6c 36 00 00 6c 26 00 00 00 00 00 00 20 27 80 58 	l600l&000000 '0X
  0x3630	00 00 00 00 10 00 00 00 24 00 00 00 5c 38 00 00 	00000000$0000800
  0x3640	5c 28 00 00 52 53 44 53 ff f4 01 76 0c 48 ae 3e 	0(00RSDS000v0H0>
  0x3650	6f 4e 5d f2 8e ea 9b c7 01 00 00 00 74 63 6d 73 	oN]000000000tcms
  0x3660	65 74 75 70 2e 70 64 62 00 00 00 00 47 43 54 4c 	etup.pdb0000GCTL
  0x3670	00 10 00 00 80 1a 00 00 2e 74 65 78 74 24 6d 6e 	00000000.text$mn
  0x3680	00 00 00 00 80 2a 00 00 20 00 00 00 2e 74 65 78 	00000*00 000.tex
  0x3690	74 24 6d 6e 24 30 30 00 a0 2a 00 00 50 00 00 00 	t$mn$0000*00P000
  0x36a0	2e 74 65 78 74 24 78 00 00 30 00 00 28 01 00 00 	.text$x00000(000
  0x36b0	2e 72 64 61 74 61 24 62 72 63 00 00 28 31 00 00 	.rdata$brc00(100
  0x36c0	e8 01 00 00 2e 69 64 61 74 61 24 35 00 00 00 00 	0000.idata$50000
  0x36d0	10 33 00 00 10 00 00 00 2e 30 30 63 66 67 00 00 	03000000.00cfg00
  0x36e0	20 33 00 00 08 00 00 00 2e 43 52 54 24 58 43 41 	 3000000.CRT$XCA
  0x36f0	00 00 00 00 28 33 00 00 08 00 00 00 2e 43 52 54 	0000(3000000.CRT
  0x3700	24 58 43 41 41 00 00 00 30 33 00 00 08 00 00 00 	$XCAA00003000000
  0x3710	2e 43 52 54 24 58 43 5a 00 00 00 00 38 33 00 00 	.CRT$XCZ00008300
  0x3720	08 00 00 00 2e 43 52 54 24 58 49 41 00 00 00 00 	0000.CRT$XIA0000
  0x3730	40 33 00 00 08 00 00 00 2e 43 52 54 24 58 49 41 	@3000000.CRT$XIA
  0x3740	41 00 00 00 48 33 00 00 08 00 00 00 2e 43 52 54 	A000H3000000.CRT
  0x3750	24 58 49 59 00 00 00 00 50 33 00 00 08 00 00 00 	$XIY0000P3000000
  0x3760	2e 43 52 54 24 58 49 5a 00 00 00 00 58 33 00 00 	.CRT$XIZ0000X300
  0x3770	28 00 00 00 2e 67 66 69 64 73 00 00 80 33 00 00 	(000.gfids000300
  0x3780	c4 02 00 00 2e 72 64 61 74 61 00 00 44 36 00 00 	0000.rdata00D600
  0x3790	3c 02 00 00 2e 72 64 61 74 61 24 7a 7a 7a 64 62 	<000.rdata$zzzdb
  0x37a0	67 00 00 00 80 38 00 00 74 01 00 00 2e 78 64 61 	g0000800t000.xda
  0x37b0	74 61 00 00 f4 39 00 00 64 00 00 00 2e 69 64 61 	ta000900d000.ida
  0x37c0	74 61 24 32 00 00 00 00 58 3a 00 00 18 00 00 00 	ta$20000X:000000
  0x37d0	2e 69 64 61 74 61 24 33 00 00 00 00 70 3a 00 00 	.idata$30000p:00
  0x37e0	e8 01 00 00 2e 69 64 61 74 61 24 34 00 00 00 00 	0000.idata$40000
  0x37f0	58 3c 00 00 0e 04 00 00 2e 69 64 61 74 61 24 36 	X<000000.idata$6
  0x3800	00 00 00 00 00 50 00 00 20 00 00 00 2e 64 61 74 	00000P00 000.dat
  0x3810	61 00 00 00 20 50 00 00 80 0a 00 00 2e 62 73 73 	a000 P000000.bss
  0x3820	00 00 00 00 00 60 00 00 44 01 00 00 2e 70 64 61 	00000`00D000.pda
  0x3830	74 61 00 00 00 70 00 00 f0 00 00 00 2e 72 73 72 	ta000p000000.rsr
  0x3840	63 24 30 31 00 00 00 00 f0 70 00 00 60 08 00 00 	c$0100000p00`000
  0x3850	2e 72 73 72 63 24 30 32 00 00 00 00 20 00 00 00 	.rsrc$020000 000
  0x3860	ff f4 01 76 0c 48 ae 3e 6f 4e 5d f2 8e ea 9b c7 	000v0H0>oN]00000
  0x3870	d6 d3 3f d2 b0 0c 2d 5a 23 a3 7b 56 20 27 80 58 	00?000-Z#0{V '0X
  0x3880	01 12 05 00 12 42 0e 70 0d 60 0c 50 0b 30 00 00 	00000B0p0`0P0000
  0x3890	19 19 02 00 07 01 87 00 f8 29 00 00 20 04 00 00 	000000000)00 000
  0x38a0	19 2b 07 00 1a 74 89 00 1a 34 88 00 1a 01 86 00 	0+000t0004000000
  0x38b0	0b 50 00 00 f8 29 00 00 20 04 00 00 01 06 02 00 	0P000)00 0000000
  0x38c0	06 32 02 30 19 1e 04 00 10 34 12 00 10 f2 06 50 	020000000400000P
  0x38d0	f8 29 00 00 78 00 00 00 19 24 07 00 12 64 51 00 	0)00x0000$000dQ0
  0x38e0	12 34 50 00 12 01 4c 00 0b 70 00 00 f8 29 00 00 	04P000L00p000)00
  0x38f0	50 02 00 00 19 2b 07 00 1a 74 91 00 1a 34 90 00 	P0000+000t000400
  0x3900	1a 01 8e 00 0b 50 00 00 f8 29 00 00 60 04 00 00 	00000P000)00`000
  0x3910	19 37 0d 00 26 c4 9b 00 26 74 9a 00 26 64 99 00 	0700&000&t00&d00
  0x3920	26 34 98 00 26 01 94 00 18 e0 16 d0 14 50 00 00 	&400&00000000P00
  0x3930	f8 29 00 00 90 04 00 00 01 0a 04 00 0a 34 08 00 	0)00000000000400
  0x3940	0a 52 06 70 01 04 01 00 04 42 00 00 01 04 01 00 	0R0p00000B000000
  0x3950	04 62 00 00 09 13 07 00 13 74 19 00 13 34 18 00 	0b0000000t000400
  0x3960	13 01 16 00 0c e0 00 00 ca 29 00 00 01 00 00 00 	000000000)000000
  0x3970	bc 22 00 00 97 24 00 00 a0 2a 00 00 97 24 00 00 	0"000$000*000$00
  0x3980	01 06 02 00 06 32 02 50 01 00 00 00 01 0c 02 00 	0000020P00000000
  0x3990	0c 01 11 00 09 04 01 00 04 22 00 00 ca 29 00 00 	000000000"000)00
  0x39a0	01 00 00 00 4c 27 00 00 82 27 00 00 01 00 00 00 	0000L'000'000000
  0x39b0	82 27 00 00 09 0a 04 00 0a 34 06 00 0a 32 06 70 	0'0000000400020p
  0x39c0	ca 29 00 00 01 00 00 00 5d 28 00 00 90 28 00 00 	0)000000](000(00
  0x39d0	d0 2a 00 00 90 28 00 00 01 0d 04 00 0d 34 09 00 	0*000(0000000400
  0x39e0	0d 32 06 50 00 00 00 00 01 00 00 00 01 02 01 00 	020P000000000000
  0x39f0	02 30 00 00 70 3a 00 00 00 00 00 00 00 00 00 00 	0000p:0000000000
  0x3a00	0c 3d 00 00 28 31 00 00 c8 3a 00 00 00 00 00 00 	0=00(1000:000000
  0x3a10	00 00 00 00 e0 3d 00 00 80 31 00 00 b8 3b 00 00 	00000=0001000;00
  0x3a20	00 00 00 00 00 00 00 00 0a 3e 00 00 70 32 00 00 	000000000>00p200
  0x3a30	d0 3b 00 00 00 00 00 00 00 00 00 00 e2 3e 00 00 	0;00000000000>00
  0x3a40	88 32 00 00 a0 3b 00 00 00 00 00 00 00 00 00 00 	02000;0000000000
  0x3a50	2c 3f 00 00 58 32 00 00 00 00 00 00 00 00 00 00 	,?00X20000000000
  0x3a60	00 00 00 00 00 00 00 00 00 00 00 00 00 00 00 00 	0000000000000000
  0x3a70	58 3c 00 00 00 00 00 00 6c 3c 00 00 00 00 00 00 	X<000000l<000000
  0x3a80	7c 3c 00 00 00 00 00 00 94 3c 00 00 00 00 00 00 	|<0000000<000000
  0x3a90	9e 3c 00 00 00 00 00 00 b0 3c 00 00 00 00 00 00 	0<0000000<000000
  0x3aa0	c0 3c 00 00 00 00 00 00 d2 3c 00 00 00 00 00 00 	0<0000000<000000
  0x3ab0	ee 3c 00 00 00 00 00 00 fe 3c 00 00 00 00 00 00 	0<0000000<000000
  0x3ac0	00 00 00 00 00 00 00 00 1a 3d 00 00 00 00 00 00 	000000000=000000
  0x3ad0	2c 3d 00 00 00 00 00 00 3e 3d 00 00 00 00 00 00 	,=000000>=000000
  0x3ae0	4a 3d 00 00 00 00 00 00 5a 3d 00 00 00 00 00 00 	J=000000Z=000000
  0x3af0	70 3d 00 00 00 00 00 00 80 3d 00 00 00 00 00 00 	p=0000000=000000
  0x3b00	8e 3d 00 00 00 00 00 00 9c 3d 00 00 00 00 00 00 	0=0000000=000000
  0x3b10	aa 3d 00 00 00 00 00 00 c0 3d 00 00 00 00 00 00 	0=0000000=000000
  0x3b20	d4 3d 00 00 00 00 00 00 3c 40 00 00 00 00 00 00 	0=000000<@000000
  0x3b30	26 40 00 00 00 00 00 00 10 40 00 00 00 00 00 00 	&@0000000@000000
  0x3b40	f6 3f 00 00 00 00 00 00 56 40 00 00 00 00 00 00 	0?000000V@000000
  0x3b50	e2 3f 00 00 00 00 00 00 ce 3f 00 00 00 00 00 00 	0?0000000?000000
  0x3b60	b0 3f 00 00 00 00 00 00 94 3f 00 00 00 00 00 00 	0?0000000?000000
  0x3b70	80 3f 00 00 00 00 00 00 66 3f 00 00 00 00 00 00 	0?000000f?000000
  0x3b80	52 3f 00 00 00 00 00 00 40 3f 00 00 00 00 00 00 	R?000000@?000000
  0x3b90	38 3f 00 00 00 00 00 00 00 00 00 00 00 00 00 00 	8?00000000000000
  0x3ba0	02 3f 00 00 00 00 00 00 18 3f 00 00 00 00 00 00 	0?0000000?000000
  0x3bb0	00 00 00 00 00 00 00 00 fc 3d 00 00 00 00 00 00 	000000000=000000
  0x3bc0	ee 3d 00 00 00 00 00 00 00 00 00 00 00 00 00 00 	0=00000000000000
  0x3bd0	ee 3e 00 00 00 00 00 00 d6 3e 00 00 00 00 00 00 	0>0000000>000000
  0x3be0	cc 3e 00 00 00 00 00 00 c2 3e 00 00 00 00 00 00 	0>0000000>000000
  0x3bf0	aa 3e 00 00 00 00 00 00 9e 3e 00 00 00 00 00 00 	0>0000000>000000
  0x3c00	7c 3e 00 00 00 00 00 00 72 3e 00 00 00 00 00 00 	|>000000r>000000
  0x3c10	6a 3e 00 00 00 00 00 00 62 3e 00 00 00 00 00 00 	j>000000b>000000
  0x3c20	50 3e 00 00 00 00 00 00 40 3e 00 00 00 00 00 00 	P>000000@>000000
  0x3c30	32 3e 00 00 00 00 00 00 24 3e 00 00 00 00 00 00 	2>000000$>000000
  0x3c40	8a 3e 00 00 00 00 00 00 16 3e 00 00 00 00 00 00 	0>0000000>000000
  0x3c50	00 00 00 00 00 00 00 00 99 02 52 65 67 51 75 65 	0000000000RegQue
  0x3c60	72 79 56 61 6c 75 65 45 78 57 00 00 8c 02 52 65 	ryValueExW0000Re
  0x3c70	67 4f 70 65 6e 4b 65 79 45 78 57 00 5f 00 43 68 	gOpenKeyExW0_0Ch
  0x3c80	65 63 6b 54 6f 6b 65 6e 4d 65 6d 62 65 72 73 68 	eckTokenMembersh
  0x3c90	69 70 00 00 34 01 46 72 65 65 53 69 64 00 a9 02 	ip0040FreeSid000
  0x3ca0	52 65 67 53 65 74 56 61 6c 75 65 45 78 57 00 00 	RegSetValueExW00
  0x3cb0	7a 02 52 65 67 45 6e 75 6d 4b 65 79 45 78 57 00 	z0RegEnumKeyExW0
  0x3cc0	64 02 52 65 67 43 72 65 61 74 65 4b 65 79 45 78 	d0RegCreateKeyEx
  0x3cd0	57 00 20 00 41 6c 6c 6f 63 61 74 65 41 6e 64 49 	W0 0AllocateAndI
  0x3ce0	6e 69 74 69 61 6c 69 7a 65 53 69 64 00 00 6f 02 	nitializeSid00o0
  0x3cf0	52 65 67 44 65 6c 65 74 65 4b 65 79 57 00 5b 02 	RegDeleteKeyW0[0
  0x3d00	52 65 67 43 6c 6f 73 65 4b 65 79 00 41 44 56 41 	RegCloseKey0ADVA
  0x3d10	50 49 33 32 2e 64 6c 6c 00 00 9d 00 43 6f 6d 70 	PI32.dll0000Comp
  0x3d20	61 72 65 53 74 72 69 6e 67 57 00 00 df 01 47 65 	areStringW0000Ge
  0x3d30	74 43 6f 6d 6d 61 6e 64 4c 69 6e 65 57 00 51 06 	tCommandLineW0Q0
  0x3d40	6c 73 74 72 6c 65 6e 57 00 00 dc 00 43 72 65 61 	lstrlenW0000Crea
  0x3d50	74 65 4d 75 74 65 78 57 00 00 e8 05 57 61 69 74 	teMutexW0000Wait
  0x3d60	46 6f 72 53 69 6e 67 6c 65 4f 62 6a 65 63 74 00 	ForSingleObject0
  0x3d70	b5 04 52 65 6c 65 61 73 65 4d 75 74 65 78 00 00 	00ReleaseMutex00
  0x3d80	38 03 47 6c 6f 62 61 6c 41 6c 6c 6f 63 00 3f 03 	80GlobalAlloc0?0
  0x3d90	47 6c 6f 62 61 6c 46 72 65 65 00 00 88 00 43 6c 	GlobalFree0000Cl
  0x3da0	6f 73 65 48 61 6e 64 6c 65 00 58 03 48 65 61 70 	oseHandle0X0Heap
  0x3db0	53 65 74 49 6e 66 6f 72 6d 61 74 69 6f 6e 00 00 	SetInformation00
  0x3dc0	80 02 47 65 74 4d 6f 64 75 6c 65 48 61 6e 64 6c 	00GetModuleHandl
  0x3dd0	65 57 00 00 48 06 6c 73 74 72 63 6d 70 69 57 00 	eW00H0lstrcmpiW0
  0x3de0	4b 45 52 4e 45 4c 33 32 2e 64 6c 6c 00 00 67 02 	KERNEL32.dll00g0
  0x3df0	4c 6f 61 64 53 74 72 69 6e 67 57 00 8c 02 4d 65 	LoadStringW000Me
  0x3e00	73 73 61 67 65 42 6f 78 57 00 55 53 45 52 33 32 	ssageBoxW0USER32
  0x3e10	2e 64 6c 6c 00 00 69 03 5f 76 73 6e 77 70 72 69 	.dll00i0_vsnwpri
  0x3e20	6e 74 66 00 55 00 5f 58 63 70 74 46 69 6c 74 65 	ntf0U0_XcptFilte
  0x3e30	72 00 ae 00 5f 61 6d 73 67 5f 65 78 69 74 00 00 	r000_amsg_exit00
  0x3e40	7f 00 5f 5f 67 65 74 6d 61 69 6e 61 72 67 73 00 	00__getmainargs0
  0x3e50	8e 00 5f 5f 73 65 74 5f 61 70 70 5f 74 79 70 65 	00__set_app_type
  0x3e60	00 00 32 04 65 78 69 74 00 00 0e 01 5f 65 78 69 	0020exit0000_exi
  0x3e70	74 00 c1 00 5f 63 65 78 69 74 00 00 99 01 5f 69 	t000_cexit0000_i
  0x3e80	73 6d 62 62 6c 65 61 64 00 00 90 00 5f 5f 73 65 	smbblead0000__se
  0x3e90	74 75 73 65 72 6d 61 74 68 65 72 72 00 00 7d 01 	tusermatherr00}0
  0x3ea0	5f 69 6e 69 74 74 65 72 6d 00 57 00 5f 5f 43 5f 	_initterm0W0__C_
  0x3eb0	73 70 65 63 69 66 69 63 5f 68 61 6e 64 6c 65 72 	specific_handler
  0x3ec0	00 00 a2 00 5f 61 63 6d 64 6c 6e 00 27 01 5f 66 	0000_acmdln0'0_f
  0x3ed0	6d 6f 64 65 00 00 d2 00 5f 63 6f 6d 6d 6f 64 65 	mode0000_commode
  0x3ee0	00 00 6d 73 76 63 72 74 2e 64 6c 6c 00 00 2f 00 	00msvcrt.dll00/0
  0x3ef0	3f 74 65 72 6d 69 6e 61 74 65 40 40 59 41 58 58 	?terminate@@YAXX
  0x3f00	5a 00 aa 00 6c 69 6e 65 52 65 6d 6f 76 65 50 72 	Z000lineRemovePr
  0x3f10	6f 76 69 64 65 72 00 00 20 00 6c 69 6e 65 41 64 	ovider00 0lineAd
  0x3f20	64 50 72 6f 76 69 64 65 72 57 00 00 54 41 50 49 	dProviderW00TAPI
  0x3f30	33 32 2e 64 6c 6c 00 00 8d 05 53 6c 65 65 70 00 	32.dll0000Sleep0
  0x3f40	d9 02 47 65 74 53 74 61 72 74 75 70 49 6e 66 6f 	00GetStartupInfo
  0x3f50	57 00 d4 04 52 74 6c 43 61 70 74 75 72 65 43 6f 	W000RtlCaptureCo
  0x3f60	6e 74 65 78 74 00 db 04 52 74 6c 4c 6f 6f 6b 75 	ntext000RtlLooku
  0x3f70	70 46 75 6e 63 74 69 6f 6e 45 6e 74 72 79 00 00 	pFunctionEntry00
  0x3f80	e2 04 52 74 6c 56 69 72 74 75 61 6c 55 6e 77 69 	00RtlVirtualUnwi
  0x3f90	6e 64 00 00 be 05 55 6e 68 61 6e 64 6c 65 64 45 	nd0000UnhandledE
  0x3fa0	78 63 65 70 74 69 6f 6e 46 69 6c 74 65 72 00 00 	xceptionFilter00
  0x3fb0	7d 05 53 65 74 55 6e 68 61 6e 64 6c 65 64 45 78 	}0SetUnhandledEx
  0x3fc0	63 65 70 74 69 6f 6e 46 69 6c 74 65 72 00 1f 02 	ceptionFilter000
  0x3fd0	47 65 74 43 75 72 72 65 6e 74 50 72 6f 63 65 73 	GetCurrentProces
  0x3fe0	73 00 9c 05 54 65 72 6d 69 6e 61 74 65 50 72 6f 	s000TerminatePro
  0x3ff0	63 65 73 73 00 00 51 04 51 75 65 72 79 50 65 72 	cess00Q0QueryPer
  0x4000	66 6f 72 6d 61 6e 63 65 43 6f 75 6e 74 65 72 00 	formanceCounter0
  0x4010	20 02 47 65 74 43 75 72 72 65 6e 74 50 72 6f 63 	 0GetCurrentProc
  0x4020	65 73 73 49 64 00 24 02 47 65 74 43 75 72 72 65 	essId0$0GetCurre
  0x4030	6e 74 54 68 72 65 61 64 49 64 00 00 f2 02 47 65 	ntThreadId0000Ge
  0x4040	74 53 79 73 74 65 6d 54 69 6d 65 41 73 46 69 6c 	tSystemTimeAsFil
  0x4050	65 54 69 6d 65 00 10 03 47 65 74 54 69 63 6b 43 	eTime000GetTickC
  0x4060	6f 75 6e 74 00 00 00 00 00 00 00 00 00 00 00 00 	ount000000000000
  0x4070	00 00 00 00 00 00 00 00 00 00 00 00 00 00 00 00 	0000000000000000
  0x4080	00 00 00 00 00 00 00 00 00 00 00 00 00 00 00 00 	0000000000000000
  0x4090	00 00 00 00 00 00 00 00 00 00 00 00 00 00 00 00 	0000000000000000
  0x40a0	00 00 00 00 00 00 00 00 00 00 00 00 00 00 00 00 	0000000000000000
  0x40b0	00 00 00 00 00 00 00 00 00 00 00 00 00 00 00 00 	0000000000000000
  0x40c0	00 00 00 00 00 00 00 00 00 00 00 00 00 00 00 00 	0000000000000000
  0x40d0	00 00 00 00 00 00 00 00 00 00 00 00 00 00 00 00 	0000000000000000
  0x40e0	00 00 00 00 00 00 00 00 00 00 00 00 00 00 00 00 	0000000000000000
  0x40f0	00 00 00 00 00 00 00 00 00 00 00 00 00 00 00 00 	0000000000000000
  0x4100	00 00 00 00 00 00 00 00 00 00 00 00 00 00 00 00 	0000000000000000
  0x4110	00 00 00 00 00 00 00 00 00 00 00 00 00 00 00 00 	0000000000000000
  0x4120	00 00 00 00 00 00 00 00 00 00 00 00 00 00 00 00 	0000000000000000
  0x4130	00 00 00 00 00 00 00 00 00 00 00 00 00 00 00 00 	0000000000000000
  0x4140	00 00 00 00 00 00 00 00 00 00 00 00 00 00 00 00 	0000000000000000
  0x4150	00 00 00 00 00 00 00 00 00 00 00 00 00 00 00 00 	0000000000000000
  0x4160	00 00 00 00 00 00 00 00 00 00 00 00 00 00 00 00 	0000000000000000
  0x4170	00 00 00 00 00 00 00 00 00 00 00 00 00 00 00 00 	0000000000000000
  0x4180	00 00 00 00 00 00 00 00 00 00 00 00 00 00 00 00 	0000000000000000
  0x4190	00 00 00 00 00 00 00 00 00 00 00 00 00 00 00 00 	0000000000000000
  0x41a0	00 00 00 00 00 00 00 00 00 00 00 00 00 00 00 00 	0000000000000000
  0x41b0	00 00 00 00 00 00 00 00 00 00 00 00 00 00 00 00 	0000000000000000
  0x41c0	00 00 00 00 00 00 00 00 00 00 00 00 00 00 00 00 	0000000000000000
  0x41d0	00 00 00 00 00 00 00 00 00 00 00 00 00 00 00 00 	0000000000000000
  0x41e0	00 00 00 00 00 00 00 00 00 00 00 00 00 00 00 00 	0000000000000000
  0x41f0	00 00 00 00 00 00 00 00 00 00 00 00 00 00 00 00 	0000000000000000
=== DATA BLOCK END ===

=== DATA BLOCK ADDRESS 0x5000 ===
  0x5000	01 00 00 00 00 00 00 00 32 a2 df 2d 99 2b 00 00 	00000000200-0+00
  0x5010	cd 5d 20 d2 66 d4 ff ff 00 00 00 00 00 00 00 00 	0] 0f00000000000
  0x5020	00 00 00 00 00 00 00 00 00 00 00 00 00 00 00 00 	0000000000000000
  0x5030	00 00 00 00 00 00 00 00 00 00 00 00 00 00 00 00 	0000000000000000
  0x5040	00 00 00 00 00 00 00 00 00 00 00 00 00 00 00 00 	0000000000000000
  0x5050	00 00 00 00 00 00 00 00 00 00 00 00 00 00 00 00 	0000000000000000
  0x5060	00 00 00 00 00 00 00 00 00 00 00 00 00 00 00 00 	0000000000000000
  0x5070	00 00 00 00 00 00 00 00 00 00 00 00 00 00 00 00 	0000000000000000
  0x5080	00 00 00 00 00 00 00 00 00 00 00 00 00 00 00 00 	0000000000000000
  0x5090	00 00 00 00 00 00 00 00 00 00 00 00 00 00 00 00 	0000000000000000
  0x50a0	00 00 00 00 00 00 00 00 00 00 00 00 00 00 00 00 	0000000000000000
  0x50b0	00 00 00 00 00 00 00 00 00 00 00 00 00 00 00 00 	0000000000000000
  0x50c0	00 00 00 00 00 00 00 00 00 00 00 00 00 00 00 00 	0000000000000000
  0x50d0	00 00 00 00 00 00 00 00 00 00 00 00 00 00 00 00 	0000000000000000
  0x50e0	00 00 00 00 00 00 00 00 00 00 00 00 00 00 00 00 	0000000000000000
  0x50f0	00 00 00 00 00 00 00 00 00 00 00 00 00 00 00 00 	0000000000000000
  0x5100	00 00 00 00 00 00 00 00 00 00 00 00 00 00 00 00 	0000000000000000
  0x5110	00 00 00 00 00 00 00 00 00 00 00 00 00 00 00 00 	0000000000000000
  0x5120	00 00 00 00 00 00 00 00 00 00 00 00 00 00 00 00 	0000000000000000
  0x5130	00 00 00 00 00 00 00 00 00 00 00 00 00 00 00 00 	0000000000000000
  0x5140	00 00 00 00 00 00 00 00 00 00 00 00 00 00 00 00 	0000000000000000
  0x5150	00 00 00 00 00 00 00 00 00 00 00 00 00 00 00 00 	0000000000000000
  0x5160	00 00 00 00 00 00 00 00 00 00 00 00 00 00 00 00 	0000000000000000
  0x5170	00 00 00 00 00 00 00 00 00 00 00 00 00 00 00 00 	0000000000000000
  0x5180	00 00 00 00 00 00 00 00 00 00 00 00 00 00 00 00 	0000000000000000
  0x5190	00 00 00 00 00 00 00 00 00 00 00 00 00 00 00 00 	0000000000000000
  0x51a0	00 00 00 00 00 00 00 00 00 00 00 00 00 00 00 00 	0000000000000000
  0x51b0	00 00 00 00 00 00 00 00 00 00 00 00 00 00 00 00 	0000000000000000
  0x51c0	00 00 00 00 00 00 00 00 00 00 00 00 00 00 00 00 	0000000000000000
  0x51d0	00 00 00 00 00 00 00 00 00 00 00 00 00 00 00 00 	0000000000000000
  0x51e0	00 00 00 00 00 00 00 00 00 00 00 00 00 00 00 00 	0000000000000000
  0x51f0	00 00 00 00 00 00 00 00 00 00 00 00 00 00 00 00 	0000000000000000
=== DATA BLOCK END ===

=== DATA BLOCK ADDRESS 0x6000 ===
  0x6000	a8 10 00 00 29 11 00 00 80 38 00 00 30 11 00 00 	0000)00008000000
  0x6010	ac 11 00 00 90 38 00 00 b4 11 00 00 88 14 00 00 	0000080000000000
  0x6020	a0 38 00 00 2c 15 00 00 a8 16 00 00 bc 38 00 00 	0800,00000000800
  0x6030	b0 16 00 00 f0 17 00 00 c4 38 00 00 f8 17 00 00 	0000000008000000
  0x6040	1d 19 00 00 d8 38 00 00 24 19 00 00 61 1b 00 00 	00000800$000a000
  0x6050	f4 38 00 00 68 1b 00 00 47 20 00 00 10 39 00 00 	0800h000G 000900
  0x6060	50 20 00 00 47 21 00 00 38 39 00 00 50 21 00 00 	P 00G!008900P!00
  0x6070	23 22 00 00 44 39 00 00 30 22 00 00 79 22 00 00 	#"00D9000"00y"00
  0x6080	4c 39 00 00 80 22 00 00 92 22 00 00 44 39 00 00 	L9000"000"00D900
  0x6090	98 22 00 00 da 24 00 00 54 39 00 00 f0 24 00 00 	0"000$00T9000$00
  0x60a0	0e 25 00 00 88 39 00 00 14 25 00 00 48 25 00 00 	0%0009000%00H%00
  0x60b0	bc 38 00 00 50 25 00 00 c1 26 00 00 8c 39 00 00 	0800P%000&000900
  0x60c0	d0 26 00 00 09 27 00 00 44 39 00 00 10 27 00 00 	0&000'00D9000'00
  0x60d0	28 27 00 00 44 39 00 00 3c 27 00 00 90 27 00 00 	('00D900<'000'00
  0x60e0	94 39 00 00 98 27 00 00 dd 27 00 00 bc 38 00 00 	09000'000'000800
  0x60f0	50 28 00 00 9d 28 00 00 b4 39 00 00 e4 28 00 00 	P(000(0009000(00
  0x6100	b8 29 00 00 d8 39 00 00 f8 29 00 00 15 2a 00 00 	0)0009000)000*00
  0x6110	44 39 00 00 1c 2a 00 00 77 2a 00 00 ec 39 00 00 	D9000*00w*000900
  0x6120	90 2a 00 00 92 2a 00 00 e8 39 00 00 a0 2a 00 00 	0*000*0009000*00
  0x6130	be 2a 00 00 80 39 00 00 d0 2a 00 00 f0 2a 00 00 	0*0009000*000*00
  0x6140	80 39 00 00 00 00 00 00 00 00 00 00 00 00 00 00 	0900000000000000
  0x6150	00 00 00 00 00 00 00 00 00 00 00 00 00 00 00 00 	0000000000000000
  0x6160	00 00 00 00 00 00 00 00 00 00 00 00 00 00 00 00 	0000000000000000
  0x6170	00 00 00 00 00 00 00 00 00 00 00 00 00 00 00 00 	0000000000000000
  0x6180	00 00 00 00 00 00 00 00 00 00 00 00 00 00 00 00 	0000000000000000
  0x6190	00 00 00 00 00 00 00 00 00 00 00 00 00 00 00 00 	0000000000000000
  0x61a0	00 00 00 00 00 00 00 00 00 00 00 00 00 00 00 00 	0000000000000000
  0x61b0	00 00 00 00 00 00 00 00 00 00 00 00 00 00 00 00 	0000000000000000
  0x61c0	00 00 00 00 00 00 00 00 00 00 00 00 00 00 00 00 	0000000000000000
  0x61d0	00 00 00 00 00 00 00 00 00 00 00 00 00 00 00 00 	0000000000000000
  0x61e0	00 00 00 00 00 00 00 00 00 00 00 00 00 00 00 00 	0000000000000000
  0x61f0	00 00 00 00 00 00 00 00 00 00 00 00 00 00 00 00 	0000000000000000
=== DATA BLOCK END ===
