===== Assembly blocks =====

=== CODE BLOCK ADDRESS 0x1000 ===
  0x1000	int3   	
  0x1001	int3   	
  0x1002	int3   	
  0x1003	int3   	
  0x1004	int3   	
  === BLOCK LINK ===
    0x1005
=== CODE BLOCK END ===

=== CODE BLOCK ADDRESS 0x1005 ===
  0x1005	int3   	
  0x1006	int3   	
  0x1007	int3   	
  === BLOCK LINK ===
    0x1008
=== CODE BLOCK END ===

=== CODE BLOCK ADDRESS 0x100d ===
  0x100d	dec    	esp
  0x100e	mov    	dword ptr [esp + 0x20], ecx
  0x1012	push   	ebx
  0x1013	push   	ebp
  0x1014	push   	esi
  === BLOCK LINK ===
    0x1015
=== CODE BLOCK END ===

=== CODE BLOCK ADDRESS 0x1015 ===
  0x1015	push   	edi
  0x1016	dec    	eax
  0x1017	sub    	esp, 0x28
  0x101a	dec    	eax
  0x101b	shr    	edx, 1
  === BLOCK LINK ===
    0x101d
=== CODE BLOCK END ===

=== CODE BLOCK ADDRESS 0x101d ===
  0x101d	xor    	ebp, ebp
  0x101f	dec    	eax
  0x1020	mov    	edi, ecx
  0x1022	mov    	esi, ebp
  0x1024	mov    	ecx, 0x80070057
  === BLOCK LINK ===
    0x1029
=== CODE BLOCK END ===

=== CODE BLOCK ADDRESS 0x1029 ===
  0x1029	dec    	eax
  0x102a	lea    	eax, [edx - 1]
  0x102d	dec    	eax
  0x102e	cmp    	eax, 0x7ffffffe
  0x1033	cmova  	esi, ecx
  === BLOCK LINK ===
    0x1036
=== CODE BLOCK END ===

=== CODE BLOCK ADDRESS 0x1036 ===
  0x1036	test   	esi, esi
  0x1038	js     	0x1075
  === BLOCK LINK ===
    0x103a
    0x1075
=== CODE BLOCK END ===

=== CODE BLOCK ADDRESS 0x103a ===
  0x103a	dec    	eax
  0x103b	lea    	ebx, [edx - 1]
  0x103e	dec    	eax
  0x103f	mov    	ecx, edi
  0x1041	dec    	eax
  === BLOCK LINK ===
    0x1042
=== CODE BLOCK END ===

=== CODE BLOCK ADDRESS 0x1042 ===
  0x1042	mov    	edx, ebx
  0x1044	dec    	esp
  0x1045	lea    	ecx, [esp + 0x68]
  0x1049	mov    	esi, ebp
  0x104b	dec    	eax
  === BLOCK LINK ===
    0x104c
=== CODE BLOCK END ===

=== CODE BLOCK ADDRESS 0x104c ===
  0x104c	call   	dword ptr [0x223e]
  === BLOCK LINK ===
    0x1052
=== CODE BLOCK END ===

=== CODE BLOCK ADDRESS 0x1052 ===
  0x1052	nop    	dword ptr [eax + eax]
  0x1057	test   	eax, eax
  0x1059	js     	0x106a
  === BLOCK LINK ===
    0x105b
    0x106a
=== CODE BLOCK END ===

=== CODE BLOCK ADDRESS 0x105b ===
  0x105b	dec    	eax
  0x105c	cwde   	
  0x105d	dec    	eax
  0x105e	cmp    	eax, ebx
  0x1060	ja     	0x106a
  === BLOCK LINK ===
    0x1062
    0x106a
=== CODE BLOCK END ===

=== CODE BLOCK ADDRESS 0x1062 ===
  0x1062	jne    	0x107d
  === BLOCK LINK ===
    0x1064
    0x107d
=== CODE BLOCK END ===

=== CODE BLOCK ADDRESS 0x1064 ===
  0x1064	mov    	word ptr [edi + ebx*2], bp
  0x1068	jmp    	0x107d
  === BLOCK LINK ===
    0x106a
    0x107d
=== CODE BLOCK END ===

=== CODE BLOCK ADDRESS 0x106a ===
  0x106a	mov    	word ptr [edi + ebx*2], bp
  0x106e	mov    	esi, 0x8007007a
  0x1073	jmp    	0x107d
  === BLOCK LINK ===
    0x1075
    0x107d
=== CODE BLOCK END ===

=== CODE BLOCK ADDRESS 0x1075 ===
  0x1075	dec    	eax
  0x1076	test   	edx, edx
  0x1078	je     	0x107d
  === BLOCK LINK ===
    0x107a
    0x107d
=== CODE BLOCK END ===

=== CODE BLOCK ADDRESS 0x107a ===
  0x107a	mov    	word ptr [edi], bp
  === BLOCK LINK ===
    0x107d
=== CODE BLOCK END ===

=== CODE BLOCK ADDRESS 0x1084 ===
  0x1084	pop    	esi
  0x1085	pop    	ebp
  0x1086	pop    	ebx
  0x1087	ret    	
  0x1088	int3   	
  === BLOCK LINK ===
    0x1089
=== CODE BLOCK END ===

=== CODE BLOCK ADDRESS 0x1089 ===
  0x1089	int3   	
  0x108a	int3   	
  0x108b	int3   	
  0x108c	int3   	
  0x108d	int3   	
  === BLOCK LINK ===
    0x108e
=== CODE BLOCK END ===

=== CODE BLOCK ADDRESS 0x108e ===
  0x108e	int3   	
  0x108f	int3   	
  0x1090	dec    	eax
  0x1091	mov    	dword ptr [esp + 8], ebx
  0x1095	push   	edi
  === BLOCK LINK ===
    0x1096
=== CODE BLOCK END ===

=== CODE BLOCK ADDRESS 0x1096 ===
  0x1096	dec    	eax
  0x1097	sub    	esp, 0x250
  0x109d	dec    	eax
  0x109e	mov    	eax, dword ptr [0x2f64]
  0x10a4	dec    	eax
  === BLOCK LINK ===
    0x10a5
=== CODE BLOCK END ===

=== CODE BLOCK ADDRESS 0x10a5 ===
  0x10a5	xor    	eax, esp
  0x10a7	dec    	eax
  0x10a8	mov    	dword ptr [esp + 0x240], eax
  0x10af	xor    	edi, edi
  0x10b1	cmp    	ecx, 2
  === BLOCK LINK ===
    0x10b4
=== CODE BLOCK END ===

=== CODE BLOCK ADDRESS 0x10b4 ===
  0x10b4	jne    	0x10f0
  === BLOCK LINK ===
    0x10b6
    0x10f0
=== CODE BLOCK END ===

=== CODE BLOCK ADDRESS 0x10b6 ===
  0x10b6	dec    	eax
  0x10b7	mov    	edi, dword ptr [edx + 8]
  0x10ba	dec    	eax
  0x10bb	test   	edi, edi
  0x10bd	je     	0x1184
  === BLOCK LINK ===
    0x10c3
    0x1184
=== CODE BLOCK END ===

=== CODE BLOCK ADDRESS 0x10c3 ===
  0x10c3	dec    	eax
  0x10c4	mov    	edx, edi
  0x10c6	dec    	eax
  0x10c7	lea    	ecx, [0x22db]
  0x10cd	call   	0x133c
  === BLOCK LINK ===
    0x10d2
    0x133c
=== CODE BLOCK END ===

=== CODE BLOCK ADDRESS 0x10d2 ===
  0x10d2	dec    	eax
  0x10d3	mov    	edx, edi
  0x10d5	dec    	eax
  0x10d6	lea    	ecx, [0x22dc]
  0x10dc	call   	0x133c
  === BLOCK LINK ===
    0x10e1
    0x133c
=== CODE BLOCK END ===

=== CODE BLOCK ADDRESS 0x10e1 ===
  0x10e1	dec    	eax
  0x10e2	mov    	edx, edi
  0x10e4	dec    	eax
  0x10e5	lea    	ecx, [0x22e5]
  0x10eb	call   	0x133c
  === BLOCK LINK ===
    0x10f0
    0x133c
=== CODE BLOCK END ===

=== CODE BLOCK ADDRESS 0x10f0 ===
  0x10f0	dec    	eax
  0x10f1	test   	edi, edi
  0x10f3	je     	0x1184
  === BLOCK LINK ===
    0x10f9
    0x1184
=== CODE BLOCK END ===

=== CODE BLOCK ADDRESS 0x10f9 ===
  0x10f9	xor    	edx, edx
  0x10fb	inc    	ecx
  0x10fc	mov    	eax, 0x208
  0x1101	dec    	eax
  0x1102	lea    	ecx, [esp + 0x30]
  === BLOCK LINK ===
    0x1106
=== CODE BLOCK END ===

=== CODE BLOCK ADDRESS 0x1106 ===
  0x1106	call   	0x2140
  === BLOCK LINK ===
    0x110b
    0x2140
=== CODE BLOCK END ===

=== CODE BLOCK ADDRESS 0x110b ===
  0x110b	xor    	ebx, ebx
  0x110d	dec    	eax
  0x110e	mov    	dword ptr [esp + 0x20], ebx
  0x1112	dec    	esp
  0x1113	mov    	ecx, edi
  === BLOCK LINK ===
    0x1115
=== CODE BLOCK END ===

=== CODE BLOCK ADDRESS 0x1115 ===
  0x1115	dec    	esp
  0x1116	lea    	eax, [0x22c4]
  0x111c	mov    	edx, 0x208
  0x1121	dec    	eax
  0x1122	lea    	ecx, [esp + 0x30]
  === BLOCK LINK ===
    0x1126
=== CODE BLOCK END ===

=== CODE BLOCK ADDRESS 0x1126 ===
  0x1126	call   	0x1008
  === BLOCK LINK ===
    0x112b
    0x1008
=== CODE BLOCK END ===

=== CODE BLOCK ADDRESS 0x112b ===
  0x112b	test   	eax, eax
  0x112d	js     	0x1170
  === BLOCK LINK ===
    0x112f
    0x1170
=== CODE BLOCK END ===

=== CODE BLOCK ADDRESS 0x112f ===
  0x112f	dec    	esp
  0x1130	lea    	eax, [esp + 0x30]
  0x1134	xor    	edx, edx
  0x1136	lea    	ecx, [ebx + 2]
  0x1139	dec    	eax
  === BLOCK LINK ===
    0x113a
=== CODE BLOCK END ===

=== CODE BLOCK ADDRESS 0x113a ===
  0x113a	call   	dword ptr [0x20a8]
  === BLOCK LINK ===
    0x1140
=== CODE BLOCK END ===

=== CODE BLOCK ADDRESS 0x1140 ===
  0x1140	nop    	dword ptr [eax + eax]
  0x1145	dec    	eax
  0x1146	mov    	ebx, eax
  0x1148	dec    	eax
  0x1149	mov    	dword ptr [esp + 0x20], eax
  === BLOCK LINK ===
    0x114d
=== CODE BLOCK END ===

=== CODE BLOCK ADDRESS 0x114d ===
  0x114d	dec    	eax
  0x114e	test   	eax, eax
  0x1150	jne    	0x1160
  === BLOCK LINK ===
    0x1152
    0x1160
=== CODE BLOCK END ===

=== CODE BLOCK ADDRESS 0x1152 ===
  0x1152	dec    	eax
  0x1153	call   	dword ptr [0x2087]
  === BLOCK LINK ===
    0x1159
=== CODE BLOCK END ===

=== CODE BLOCK ADDRESS 0x1159 ===
  0x1159	nop    	dword ptr [eax + eax]
  0x115e	jmp    	0x1170
  === BLOCK LINK ===
    0x1160
    0x1170
=== CODE BLOCK END ===

=== CODE BLOCK ADDRESS 0x1160 ===
  0x1160	dec    	eax
  0x1161	mov    	ecx, eax
  0x1163	dec    	eax
  0x1164	call   	dword ptr [0x201e]
  === BLOCK LINK ===
    0x116a
=== CODE BLOCK END ===

=== CODE BLOCK ADDRESS 0x116a ===
  0x116a	nop    	dword ptr [eax + eax]
  0x116f	nop    	
  === BLOCK LINK ===
    0x1170
    0x1184
=== CODE BLOCK END ===

=== CODE BLOCK ADDRESS 0x1175 ===
  0x1175	dec    	eax
  0x1176	mov    	ecx, ebx
  0x1178	dec    	eax
  0x1179	call   	dword ptr [0x2001]
  === BLOCK LINK ===
    0x117f
=== CODE BLOCK END ===

=== CODE BLOCK ADDRESS 0x117f ===
  0x117f	nop    	dword ptr [eax + eax]
  === BLOCK LINK ===
    0x1184
=== CODE BLOCK END ===

=== CODE BLOCK ADDRESS 0x118f ===
  0x118f	xor    	ecx, esp
  0x1191	call   	0x1970
  === BLOCK LINK ===
    0x1196
    0x1970
=== CODE BLOCK END ===

=== CODE BLOCK ADDRESS 0x1196 ===
  0x1196	dec    	eax
  0x1197	mov    	ebx, dword ptr [esp + 0x260]
  0x119e	dec    	eax
  0x119f	add    	esp, 0x250
  0x11a5	pop    	edi
  === BLOCK LINK ===
    0x11a6
=== CODE BLOCK END ===

=== CODE BLOCK ADDRESS 0x11a6 ===
  0x11a6	ret    	
  0x11a7	int3   	
  0x11a8	jmp    	0x1186
  === BLOCK LINK ===
    0x11aa
    0x1186
=== CODE BLOCK END ===

=== CODE BLOCK ADDRESS 0x11aa ===
  0x11aa	int3   	
  0x11ab	int3   	
  0x11ac	int3   	
  0x11ad	int3   	
  0x11ae	int3   	
  === BLOCK LINK ===
    0x11af
=== CODE BLOCK END ===

=== CODE BLOCK ADDRESS 0x11af ===
  0x11af	int3   	
  0x11b0	dec    	eax
  0x11b1	mov    	dword ptr [esp + 0x18], ebx
  0x11b5	push   	ebp
  0x11b6	push   	esi
  === BLOCK LINK ===
    0x11b7
=== CODE BLOCK END ===

=== CODE BLOCK ADDRESS 0x11b7 ===
  0x11b7	push   	edi
  0x11b8	inc    	ecx
  0x11b9	push   	esp
  0x11ba	inc    	ecx
  0x11bb	push   	esi
  === BLOCK LINK ===
    0x11bc
=== CODE BLOCK END ===

=== CODE BLOCK ADDRESS 0x11bc ===
  0x11bc	dec    	eax
  0x11bd	sub    	esp, 0x280
  0x11c3	dec    	eax
  0x11c4	mov    	eax, dword ptr [0x2e3e]
  0x11ca	dec    	eax
  === BLOCK LINK ===
    0x11cb
=== CODE BLOCK END ===

=== CODE BLOCK ADDRESS 0x11cb ===
  0x11cb	xor    	eax, esp
  0x11cd	dec    	eax
  0x11ce	mov    	dword ptr [esp + 0x270], eax
  0x11d5	dec    	esp
  0x11d6	mov    	esi, edx
  === BLOCK LINK ===
    0x11d8
=== CODE BLOCK END ===

=== CODE BLOCK ADDRESS 0x11d8 ===
  0x11d8	dec    	eax
  0x11d9	mov    	ebp, ecx
  0x11db	xor    	edx, edx
  0x11dd	xor    	ecx, ecx
  0x11df	xor    	esi, esi
  === BLOCK LINK ===
    0x11e1
=== CODE BLOCK END ===

=== CODE BLOCK ADDRESS 0x11e1 ===
  0x11e1	dec    	eax
  0x11e2	call   	dword ptr [0x4e40]
  === BLOCK LINK ===
    0x11e8
=== CODE BLOCK END ===

=== CODE BLOCK ADDRESS 0x11e8 ===
  0x11e8	nop    	dword ptr [eax + eax]
  0x11ed	dec    	eax
  0x11ee	mov    	edi, eax
  0x11f0	inc    	ecx
  0x11f1	mov    	esp, 0x80004005
  === BLOCK LINK ===
    0x11f6
=== CODE BLOCK END ===

=== CODE BLOCK ADDRESS 0x11f6 ===
  0x11f6	dec    	eax
  0x11f7	cmp    	eax, -1
  0x11fa	je     	0x12cb
  === BLOCK LINK ===
    0x1200
    0x12cb
=== CODE BLOCK END ===

=== CODE BLOCK ADDRESS 0x1200 ===
  0x1200	dec    	eax
  0x1201	and    	dword ptr [esp + 0x20], esi
  0x1205	dec    	esp
  0x1206	lea    	eax, [esp + 0x60]
  0x120a	inc    	ecx
  === BLOCK LINK ===
    0x120b
=== CODE BLOCK END ===

=== CODE BLOCK ADDRESS 0x120b ===
  0x120b	mov    	ecx, 0x104
  0x1210	dec    	ecx
  0x1211	mov    	edx, esi
  0x1213	dec    	eax
  0x1214	mov    	ecx, ebp
  === BLOCK LINK ===
    0x1216
=== CODE BLOCK END ===

=== CODE BLOCK ADDRESS 0x1216 ===
  0x1216	dec    	eax
  0x1217	call   	dword ptr [0x1f4b]
  === BLOCK LINK ===
    0x121d
=== CODE BLOCK END ===

=== CODE BLOCK ADDRESS 0x121d ===
  0x121d	nop    	dword ptr [eax + eax]
  0x1222	test   	eax, eax
  0x1224	je     	0x122a
  === BLOCK LINK ===
    0x1226
    0x122a
=== CODE BLOCK END ===

=== CODE BLOCK ADDRESS 0x1226 ===
  0x1226	xor    	ebx, ebx
  0x1228	jmp    	0x124e
  === BLOCK LINK ===
    0x122a
    0x124e
=== CODE BLOCK END ===

=== CODE BLOCK ADDRESS 0x122a ===
  0x122a	dec    	eax
  0x122b	call   	dword ptr [0x1faf]
  === BLOCK LINK ===
    0x1231
=== CODE BLOCK END ===

=== CODE BLOCK ADDRESS 0x1231 ===
  0x1231	nop    	dword ptr [eax + eax]
  0x1236	movzx  	ebx, ax
  0x1239	or     	ebx, 0x80070000
  0x123f	test   	eax, eax
  0x1241	cmovle  	ebx, eax
  === BLOCK LINK ===
    0x1244
=== CODE BLOCK END ===

=== CODE BLOCK ADDRESS 0x1244 ===
  0x1244	test   	ebx, ebx
  0x1246	inc    	ecx
  0x1247	cmovns  	ebx, esp
  0x124a	test   	ebx, ebx
  0x124c	js     	0x12b8
  === BLOCK LINK ===
    0x124e
    0x12b8
=== CODE BLOCK END ===

=== CODE BLOCK ADDRESS 0x124e ===
  0x124e	xor    	eax, eax
  0x1250	mov    	dword ptr [esp + 0x38], 0x20
  0x1258	dec    	eax
  0x1259	mov    	dword ptr [esp + 0x4c], eax
  0x125d	dec    	eax
  === BLOCK LINK ===
    0x125e
=== CODE BLOCK END ===

=== CODE BLOCK ADDRESS 0x125e ===
  0x125e	lea    	edx, [esp + 0x60]
  0x1262	mov    	dword ptr [esp + 0x54], eax
  0x1266	xorps  	xmm0, xmm0
  0x1269	dec    	eax
  0x126a	lea    	eax, [esp + 0x38]
  === BLOCK LINK ===
    0x126e
=== CODE BLOCK END ===

=== CODE BLOCK ADDRESS 0x126e ===
  0x126e	inc    	ebp
  0x126f	xor    	ecx, ecx
  0x1271	inc    	ebp
  0x1272	xor    	eax, eax
  0x1274	dec    	eax
  === BLOCK LINK ===
    0x1275
=== CODE BLOCK END ===

=== CODE BLOCK ADDRESS 0x1275 ===
  0x1275	mov    	dword ptr [esp + 0x20], eax
  0x1279	dec    	eax
  0x127a	mov    	ecx, edi
  0x127c	movups  	xmmword ptr [esp + 0x3c], xmm0
  0x1281	dec    	eax
  === BLOCK LINK ===
    0x1282
=== CODE BLOCK END ===

=== CODE BLOCK ADDRESS 0x1282 ===
  0x1282	call   	dword ptr [0x4d98]
  === BLOCK LINK ===
    0x1288
=== CODE BLOCK END ===

=== CODE BLOCK ADDRESS 0x1288 ===
  0x1288	nop    	dword ptr [eax + eax]
  0x128d	test   	eax, eax
  0x128f	je     	0x12b8
  === BLOCK LINK ===
    0x1291
    0x12b8
=== CODE BLOCK END ===

=== CODE BLOCK ADDRESS 0x1291 ===
  0x1291	dec    	eax
  0x1292	lea    	eax, [esp + 0x30]
  0x1296	inc    	ebp
  0x1297	xor    	ecx, ecx
  0x1299	dec    	esp
  === BLOCK LINK ===
    0x129a
=== CODE BLOCK END ===

=== CODE BLOCK ADDRESS 0x129a ===
  0x129a	lea    	eax, [esp + 0x38]
  0x129e	dec    	eax
  0x129f	mov    	dword ptr [esp + 0x20], eax
  0x12a3	dec    	eax
  0x12a4	mov    	edx, edi
  === BLOCK LINK ===
    0x12a6
=== CODE BLOCK END ===

=== CODE BLOCK ADDRESS 0x12a6 ===
  0x12a6	dec    	eax
  0x12a7	or     	ecx, 0xffffffff
  0x12aa	dec    	eax
  0x12ab	call   	dword ptr [0x4d4f]
  === BLOCK LINK ===
    0x12b1
=== CODE BLOCK END ===

=== CODE BLOCK ADDRESS 0x12b1 ===
  0x12b1	nop    	dword ptr [eax + eax]
  0x12b6	mov    	esi, eax
  === BLOCK LINK ===
    0x12b8
=== CODE BLOCK END ===

=== CODE BLOCK ADDRESS 0x12bc ===
  0x12bc	call   	dword ptr [0x4d4e]
  === BLOCK LINK ===
    0x12c2
=== CODE BLOCK END ===

=== CODE BLOCK ADDRESS 0x12c2 ===
  0x12c2	nop    	dword ptr [eax + eax]
  0x12c7	test   	esi, esi
  0x12c9	jne    	0x130b
  === BLOCK LINK ===
    0x12cb
=== CODE BLOCK END ===

=== CODE BLOCK ADDRESS 0x12cb ===
  0x12cb	inc    	ebp
  0x12cc	xor    	ecx, ecx
  0x12ce	inc    	ebp
  0x12cf	xor    	eax, eax
  0x12d1	dec    	ecx
  === BLOCK LINK ===
    0x12d2
=== CODE BLOCK END ===

=== CODE BLOCK ADDRESS 0x12d2 ===
  0x12d2	mov    	edx, esi
  0x12d4	dec    	eax
  0x12d5	mov    	ecx, ebp
  0x12d7	dec    	eax
  0x12d8	call   	dword ptr [0x1e6a]
  === BLOCK LINK ===
    0x12de
=== CODE BLOCK END ===

=== CODE BLOCK ADDRESS 0x12de ===
  0x12de	nop    	dword ptr [eax + eax]
  0x12e3	test   	eax, eax
  0x12e5	je     	0x12eb
  === BLOCK LINK ===
    0x12e7
=== CODE BLOCK END ===

=== CODE BLOCK ADDRESS 0x12e7 ===
  0x12e7	xor    	ebx, ebx
  0x12e9	jmp    	0x130b
  === BLOCK LINK ===
    0x12eb
=== CODE BLOCK END ===

=== CODE BLOCK ADDRESS 0x12eb ===
  0x12eb	dec    	eax
  0x12ec	call   	dword ptr [0x1eee]
  === BLOCK LINK ===
    0x12f2
=== CODE BLOCK END ===

=== CODE BLOCK ADDRESS 0x12f2 ===
  0x12f2	nop    	dword ptr [eax + eax]
  0x12f7	movzx  	ebx, ax
  0x12fa	or     	ebx, 0x80070000
  0x1300	test   	eax, eax
  0x1302	cmovle  	ebx, eax
  === BLOCK LINK ===
    0x1305
=== CODE BLOCK END ===

=== CODE BLOCK ADDRESS 0x1305 ===
  0x1305	test   	ebx, ebx
  0x1307	inc    	ecx
  0x1308	cmovns  	ebx, esp
  0x130b	mov    	eax, ebx
  0x130d	dec    	eax
  === BLOCK LINK ===
    0x130e
=== CODE BLOCK END ===

=== CODE BLOCK ADDRESS 0x130e ===
  0x130e	mov    	ecx, dword ptr [esp + 0x270]
  0x1315	dec    	eax
  0x1316	xor    	ecx, esp
  0x1318	call   	0x1970
  === BLOCK LINK ===
    0x131d
=== CODE BLOCK END ===

=== CODE BLOCK ADDRESS 0x131d ===
  0x131d	dec    	eax
  0x131e	mov    	ebx, dword ptr [esp + 0x2c0]
  0x1325	dec    	eax
  0x1326	add    	esp, 0x280
  0x132c	inc    	ecx
  === BLOCK LINK ===
    0x132d
=== CODE BLOCK END ===

=== CODE BLOCK ADDRESS 0x132d ===
  0x132d	pop    	esi
  0x132e	inc    	ecx
  0x132f	pop    	esp
  0x1330	pop    	edi
  0x1331	pop    	esi
  === BLOCK LINK ===
    0x1332
=== CODE BLOCK END ===

=== CODE BLOCK ADDRESS 0x1332 ===
  0x1332	pop    	ebp
  0x1333	ret    	
  0x1334	int3   	
  0x1335	int3   	
  0x1336	int3   	
  === BLOCK LINK ===
    0x1337
=== CODE BLOCK END ===

=== CODE BLOCK ADDRESS 0x1337 ===
  0x1337	int3   	
  0x1338	int3   	
  0x1339	int3   	
  0x133a	int3   	
  0x133b	int3   	
  === BLOCK LINK ===
    0x133c
=== CODE BLOCK END ===

=== CODE BLOCK ADDRESS 0x133c ===
  0x133c	dec    	eax
  0x133d	mov    	dword ptr [esp + 0x18], ebx
  0x1341	dec    	eax
  0x1342	mov    	dword ptr [esp + 0x20], esi
  0x1346	push   	ebp
  === BLOCK LINK ===
    0x1347
=== CODE BLOCK END ===

=== CODE BLOCK ADDRESS 0x1347 ===
  0x1347	push   	edi
  0x1348	inc    	ecx
  0x1349	push   	esp
  0x134a	inc    	ecx
  0x134b	push   	esi
  === BLOCK LINK ===
    0x134c
=== CODE BLOCK END ===

=== CODE BLOCK ADDRESS 0x134c ===
  0x134c	inc    	ecx
  0x134d	push   	edi
  0x134e	dec    	eax
  0x134f	lea    	ebp, [esp - 0x37]
  0x1353	dec    	eax
  === BLOCK LINK ===
    0x1354
=== CODE BLOCK END ===

=== CODE BLOCK ADDRESS 0x1354 ===
  0x1354	sub    	esp, 0x100
  0x135a	dec    	eax
  0x135b	mov    	eax, dword ptr [0x2ca7]
  0x1361	dec    	eax
  0x1362	xor    	eax, esp
  === BLOCK LINK ===
    0x1364
=== CODE BLOCK END ===

=== CODE BLOCK ADDRESS 0x1364 ===
  0x1364	dec    	eax
  0x1365	mov    	dword ptr [ebp + 0x27], eax
  0x1368	dec    	esp
  0x1369	mov    	edi, edx
  0x136b	dec    	eax
  === BLOCK LINK ===
    0x136c
=== CODE BLOCK END ===

=== CODE BLOCK ADDRESS 0x136c ===
  0x136c	mov    	esi, ecx
  0x136e	inc    	ebp
  0x136f	xor    	esp, esp
  0x1371	xor    	edx, edx
  0x1373	xor    	ecx, ecx
  === BLOCK LINK ===
    0x1375
=== CODE BLOCK END ===

=== CODE BLOCK ADDRESS 0x1375 ===
  0x1375	dec    	esp
  0x1376	mov    	dword ptr [esp + 0x20], esp
  0x137a	inc    	ebp
  0x137b	xor    	ecx, ecx
  0x137d	inc    	ebp
  === BLOCK LINK ===
    0x137e
=== CODE BLOCK END ===

=== CODE BLOCK ADDRESS 0x137e ===
  0x137e	xor    	eax, eax
  0x1380	dec    	eax
  0x1381	call   	dword ptr [0x1dd1]
  === BLOCK LINK ===
    0x1387
=== CODE BLOCK END ===

=== CODE BLOCK ADDRESS 0x1387 ===
  0x1387	nop    	dword ptr [eax + eax]
  0x138c	dec    	eax
  0x138d	mov    	edi, eax
  0x138f	dec    	eax
  0x1390	cmp    	eax, -1
  === BLOCK LINK ===
    0x1393
=== CODE BLOCK END ===

=== CODE BLOCK ADDRESS 0x1393 ===
  0x1393	jne    	0x13b1
  === BLOCK LINK ===
    0x1395
=== CODE BLOCK END ===

=== CODE BLOCK ADDRESS 0x1395 ===
  0x1395	dec    	eax
  0x1396	call   	dword ptr [0x1e44]
  === BLOCK LINK ===
    0x139c
=== CODE BLOCK END ===

=== CODE BLOCK ADDRESS 0x139c ===
  0x139c	nop    	dword ptr [eax + eax]
  0x13a1	movzx  	ebx, ax
  0x13a4	or     	ebx, 0x80070000
  0x13aa	test   	eax, eax
  0x13ac	cmovle  	ebx, eax
  === BLOCK LINK ===
    0x13af
=== CODE BLOCK END ===

=== CODE BLOCK ADDRESS 0x13af ===
  0x13af	jmp    	0x13b4
  === BLOCK LINK ===
    0x13b1
=== CODE BLOCK END ===

=== CODE BLOCK ADDRESS 0x13b1 ===
  0x13b1	inc    	ecx
  0x13b2	mov    	ebx, esp
  0x13b4	test   	ebx, ebx
  0x13b6	js     	0x159e
  === BLOCK LINK ===
    0x13bc
=== CODE BLOCK END ===

=== CODE BLOCK ADDRESS 0x13bc ===
  0x13bc	dec    	esp
  0x13bd	mov    	dword ptr [esp + 0x28], esp
  0x13c1	inc    	ecx
  0x13c2	mov    	ecx, 4
  0x13c7	dec    	esp
  === BLOCK LINK ===
    0x13c8
=== CODE BLOCK END ===

=== CODE BLOCK ADDRESS 0x13c8 ===
  0x13c8	mov    	eax, esi
  0x13ca	dec    	esp
  0x13cb	mov    	dword ptr [esp + 0x20], esp
  0x13cf	xor    	edx, edx
  0x13d1	dec    	eax
  === BLOCK LINK ===
    0x13d2
=== CODE BLOCK END ===

=== CODE BLOCK ADDRESS 0x13d2 ===
  0x13d2	mov    	ecx, edi
  0x13d4	dec    	eax
  0x13d5	call   	dword ptr [0x1d65]
  === BLOCK LINK ===
    0x13db
=== CODE BLOCK END ===

=== CODE BLOCK ADDRESS 0x13db ===
  0x13db	nop    	dword ptr [eax + eax]
  0x13e0	inc    	ecx
  0x13e1	mov    	esi, 0x80004005
  0x13e6	test   	eax, eax
  0x13e8	jne    	0x1412
  === BLOCK LINK ===
    0x13ea
=== CODE BLOCK END ===

=== CODE BLOCK ADDRESS 0x13ea ===
  0x13ea	dec    	eax
  0x13eb	call   	dword ptr [0x1def]
  === BLOCK LINK ===
    0x13f1
=== CODE BLOCK END ===

=== CODE BLOCK ADDRESS 0x13f1 ===
  0x13f1	nop    	dword ptr [eax + eax]
  0x13f6	movzx  	ebx, ax
  0x13f9	or     	ebx, 0x80070000
  0x13ff	test   	eax, eax
  0x1401	cmovle  	ebx, eax
  === BLOCK LINK ===
    0x1404
=== CODE BLOCK END ===

=== CODE BLOCK ADDRESS 0x1404 ===
  0x1404	test   	ebx, ebx
  0x1406	inc    	ecx
  0x1407	cmovns  	ebx, esi
  0x140a	test   	ebx, ebx
  0x140c	js     	0x1594
  === BLOCK LINK ===
    0x1412
=== CODE BLOCK END ===

=== CODE BLOCK ADDRESS 0x1412 ===
  0x1412	inc    	ecx
  0x1413	mov    	esi, esp
  0x1415	xorps  	xmm0, xmm0
  0x1418	dec    	esp
  0x1419	lea    	eax, [esp + 0x38]
  === BLOCK LINK ===
    0x141d
=== CODE BLOCK END ===

=== CODE BLOCK ADDRESS 0x141d ===
  0x141d	movups  	xmmword ptr [esp + 0x38], xmm0
  0x1422	mov    	edx, esi
  0x1424	mov    	dword ptr [esp + 0x38], 0x30
  0x142c	dec    	eax
  0x142d	mov    	ecx, edi
  === BLOCK LINK ===
    0x142f
=== CODE BLOCK END ===

=== CODE BLOCK ADDRESS 0x142f ===
  0x142f	movups  	xmmword ptr [esp + 0x48], xmm0
  0x1434	movups  	xmmword ptr [ebp - 0x71], xmm0
  0x1438	dec    	eax
  0x1439	call   	dword ptr [0x1d21]
  === BLOCK LINK ===
    0x143f
=== CODE BLOCK END ===

=== CODE BLOCK ADDRESS 0x143f ===
  0x143f	nop    	dword ptr [eax + eax]
  0x1444	test   	eax, eax
  0x1446	jne    	0x1470
  === BLOCK LINK ===
    0x1448
=== CODE BLOCK END ===

=== CODE BLOCK ADDRESS 0x1448 ===
  0x1448	dec    	eax
  0x1449	call   	dword ptr [0x1d91]
  === BLOCK LINK ===
    0x144f
=== CODE BLOCK END ===

=== CODE BLOCK ADDRESS 0x144f ===
  0x144f	nop    	dword ptr [eax + eax]
  0x1454	movzx  	ebx, ax
  0x1457	or     	ebx, 0x80070000
  0x145d	test   	eax, eax
  0x145f	cmovle  	ebx, eax
  === BLOCK LINK ===
    0x1462
=== CODE BLOCK END ===

=== CODE BLOCK ADDRESS 0x1462 ===
  0x1462	test   	ebx, ebx
  0x1464	inc    	ecx
  0x1465	cmovns  	ebx, esi
  0x1468	test   	ebx, ebx
  0x146a	js     	0x158a
  === BLOCK LINK ===
    0x1470
=== CODE BLOCK END ===

=== CODE BLOCK ADDRESS 0x1470 ===
  0x1470	inc    	ebp
  0x1471	xor    	ecx, ecx
  0x1473	mov    	dword ptr [esp + 0x28], 0x20019
  0x147b	dec    	eax
  0x147c	lea    	edx, [esp + 0x38]
  === BLOCK LINK ===
    0x1480
=== CODE BLOCK END ===

=== CODE BLOCK ADDRESS 0x1480 ===
  0x1480	mov    	dword ptr [esp + 0x20], 1
  0x1488	dec    	eax
  0x1489	mov    	ecx, edi
  0x148b	inc    	ebp
  0x148c	lea    	eax, [ecx + 1]
  === BLOCK LINK ===
    0x148f
=== CODE BLOCK END ===

=== CODE BLOCK ADDRESS 0x148f ===
  0x148f	dec    	eax
  0x1490	call   	dword ptr [0x1cba]
  === BLOCK LINK ===
    0x1496
=== CODE BLOCK END ===

=== CODE BLOCK ADDRESS 0x1496 ===
  0x1496	nop    	dword ptr [eax + eax]
  0x149b	dec    	esp
  0x149c	mov    	esi, eax
  0x149e	dec    	eax
  0x149f	cmp    	eax, -1
  === BLOCK LINK ===
    0x14a2
=== CODE BLOCK END ===

=== CODE BLOCK ADDRESS 0x14a2 ===
  0x14a2	jne    	0x14c0
  === BLOCK LINK ===
    0x14a4
=== CODE BLOCK END ===

=== CODE BLOCK ADDRESS 0x14a4 ===
  0x14a4	dec    	eax
  0x14a5	call   	dword ptr [0x1d35]
  === BLOCK LINK ===
    0x14ab
=== CODE BLOCK END ===

=== CODE BLOCK ADDRESS 0x14ab ===
  0x14ab	nop    	dword ptr [eax + eax]
  0x14b0	movzx  	ebx, ax
  0x14b3	or     	ebx, 0x80070000
  0x14b9	test   	eax, eax
  0x14bb	cmovle  	ebx, eax
  === BLOCK LINK ===
    0x14be
=== CODE BLOCK END ===

=== CODE BLOCK ADDRESS 0x14be ===
  0x14be	jmp    	0x14c3
  === BLOCK LINK ===
    0x14c0
=== CODE BLOCK END ===

=== CODE BLOCK ADDRESS 0x14c0 ===
  0x14c0	inc    	ecx
  0x14c1	mov    	ebx, esp
  0x14c3	test   	ebx, ebx
  0x14c5	js     	0x1584
  === BLOCK LINK ===
    0x14cb
=== CODE BLOCK END ===

=== CODE BLOCK ADDRESS 0x14cb ===
  0x14cb	mov    	ebx, 0x7c
  0x14d0	inc    	esp
  0x14d1	mov    	dword ptr [esp + 0x30], esp
  0x14d5	inc    	esp
  0x14d6	mov    	eax, ebx
  === BLOCK LINK ===
    0x14d8
=== CODE BLOCK END ===

=== CODE BLOCK ADDRESS 0x14d8 ===
  0x14d8	dec    	eax
  0x14d9	lea    	ecx, [ebp - 0x59]
  0x14dc	xor    	edx, edx
  0x14de	call   	0x2140
  === BLOCK LINK ===
    0x14e3
=== CODE BLOCK END ===

=== CODE BLOCK ADDRESS 0x14e3 ===
  0x14e3	dec    	eax
  0x14e4	lea    	eax, [esp + 0x34]
  0x14e8	mov    	dword ptr [esp + 0x34], ebx
  0x14ec	dec    	eax
  0x14ed	mov    	dword ptr [esp + 0x28], eax
  === BLOCK LINK ===
    0x14f1
=== CODE BLOCK END ===

=== CODE BLOCK ADDRESS 0x14f1 ===
  0x14f1	dec    	esp
  0x14f2	lea    	ecx, [esp + 0x30]
  0x14f6	dec    	eax
  0x14f7	lea    	eax, [ebp - 0x59]
  0x14fa	inc    	ebp
  === BLOCK LINK ===
    0x14fb
=== CODE BLOCK END ===

=== CODE BLOCK ADDRESS 0x14fb ===
  0x14fb	xor    	eax, eax
  0x14fd	dec    	eax
  0x14fe	lea    	edx, [0x1f1c]
  0x1504	dec    	eax
  0x1505	mov    	dword ptr [esp + 0x20], eax
  === BLOCK LINK ===
    0x1509
=== CODE BLOCK END ===

=== CODE BLOCK ADDRESS 0x1509 ===
  0x1509	dec    	ecx
  0x150a	mov    	ecx, esi
  0x150c	dec    	eax
  0x150d	call   	dword ptr [0x1c15]
  === BLOCK LINK ===
    0x1513
=== CODE BLOCK END ===

=== CODE BLOCK ADDRESS 0x1513 ===
  0x1513	nop    	dword ptr [eax + eax]
  0x1518	movzx  	ebx, ax
  0x151b	dec    	ecx
  0x151c	mov    	ecx, esi
  0x151e	or     	ebx, 0x80070000
  === BLOCK LINK ===
    0x1524
=== CODE BLOCK END ===

=== CODE BLOCK ADDRESS 0x1524 ===
  0x1524	test   	eax, eax
  0x1526	cmovle  	ebx, eax
  0x1529	dec    	eax
  0x152a	call   	dword ptr [0x1c00]
  === BLOCK LINK ===
    0x1530
=== CODE BLOCK END ===

=== CODE BLOCK ADDRESS 0x1530 ===
  0x1530	nop    	dword ptr [eax + eax]
  0x1535	cmp    	ebx, 0xe000020b
  0x153b	inc    	ecx
  0x153c	mov    	eax, esp
  0x153e	cmovne  	eax, ebx
  === BLOCK LINK ===
    0x1541
=== CODE BLOCK END ===

=== CODE BLOCK ADDRESS 0x1541 ===
  0x1541	mov    	ebx, eax
  0x1543	test   	eax, eax
  0x1545	js     	0x1584
  === BLOCK LINK ===
    0x1547
=== CODE BLOCK END ===

=== CODE BLOCK ADDRESS 0x1547 ===
  0x1547	cmp    	dword ptr [esp + 0x30], 1
  0x154c	jne    	0x1584
  === BLOCK LINK ===
    0x154e
=== CODE BLOCK END ===

=== CODE BLOCK ADDRESS 0x154e ===
  0x154e	inc    	ecx
  0x154f	or     	ecx, 0xffffffff
  0x1552	mov    	dword ptr [esp + 0x20], 1
  0x155a	inc    	ecx
  0x155b	or     	edx, ecx
  === BLOCK LINK ===
    0x155d
=== CODE BLOCK END ===

=== CODE BLOCK ADDRESS 0x155d ===
  0x155d	dec    	esp
  0x155e	lea    	eax, [ebp - 0x59]
  0x1561	dec    	ecx
  0x1562	mov    	ecx, edi
  0x1564	dec    	eax
  === BLOCK LINK ===
    0x1565
=== CODE BLOCK END ===

=== CODE BLOCK ADDRESS 0x1565 ===
  0x1565	call   	dword ptr [0x1c35]
  === BLOCK LINK ===
    0x156b
=== CODE BLOCK END ===

=== CODE BLOCK ADDRESS 0x156b ===
  0x156b	nop    	dword ptr [eax + eax]
  0x1570	cmp    	eax, 2
  0x1573	jne    	0x1584
  === BLOCK LINK ===
    0x1575
=== CODE BLOCK END ===

=== CODE BLOCK ADDRESS 0x1575 ===
  0x1575	dec    	eax
  0x1576	lea    	edx, [esp + 0x38]
  0x157a	dec    	eax
  0x157b	mov    	ecx, edi
  0x157d	call   	0x11b0
  === BLOCK LINK ===
    0x1582
=== CODE BLOCK END ===

=== CODE BLOCK ADDRESS 0x1582 ===
  0x1582	mov    	ebx, eax
  0x1584	inc    	ecx
  0x1585	mov    	esi, 0x80004005
  0x158a	inc    	esi
  0x158c	test   	ebx, ebx
  === BLOCK LINK ===
    0x158e
=== CODE BLOCK END ===

=== CODE BLOCK ADDRESS 0x158e ===
  0x158e	jns    	0x1415
  === BLOCK LINK ===
    0x1594
=== CODE BLOCK END ===

=== CODE BLOCK ADDRESS 0x1594 ===
  0x1594	cmp    	ebx, 0x80070103
  0x159a	inc    	ecx
  0x159b	cmove  	ebx, esp
  0x159e	dec    	eax
  0x159f	cmp    	edi, -1
  === BLOCK LINK ===
    0x15a2
=== CODE BLOCK END ===

=== CODE BLOCK ADDRESS 0x15a2 ===
  0x15a2	je     	0x15b3
  === BLOCK LINK ===
    0x15a4
=== CODE BLOCK END ===

=== CODE BLOCK ADDRESS 0x15a4 ===
  0x15a4	dec    	eax
  0x15a5	mov    	ecx, edi
  0x15a7	dec    	eax
  0x15a8	call   	dword ptr [0x1bc2]
  === BLOCK LINK ===
    0x15ae
=== CODE BLOCK END ===

=== CODE BLOCK ADDRESS 0x15ae ===
  0x15ae	nop    	dword ptr [eax + eax]
  0x15b3	mov    	eax, ebx
  0x15b5	dec    	eax
  0x15b6	mov    	ecx, dword ptr [ebp + 0x27]
  0x15b9	dec    	eax
  === BLOCK LINK ===
    0x15ba
=== CODE BLOCK END ===

=== CODE BLOCK ADDRESS 0x15ba ===
  0x15ba	xor    	ecx, esp
  0x15bc	call   	0x1970
  === BLOCK LINK ===
    0x15c1
=== CODE BLOCK END ===

=== CODE BLOCK ADDRESS 0x15c1 ===
  0x15c1	dec    	esp
  0x15c2	lea    	ebx, [esp + 0x100]
  0x15c9	dec    	ecx
  0x15ca	mov    	ebx, dword ptr [ebx + 0x40]
  0x15cd	dec    	ecx
  === BLOCK LINK ===
    0x15ce
=== CODE BLOCK END ===

=== CODE BLOCK ADDRESS 0x15ce ===
  0x15ce	mov    	esi, dword ptr [ebx + 0x48]
  0x15d1	dec    	ecx
  0x15d2	mov    	esp, ebx
  0x15d4	inc    	ecx
  0x15d5	pop    	edi
  === BLOCK LINK ===
    0x15d6
=== CODE BLOCK END ===

=== CODE BLOCK ADDRESS 0x15d6 ===
  0x15d6	inc    	ecx
  0x15d7	pop    	esi
  0x15d8	inc    	ecx
  0x15d9	pop    	esp
  0x15da	pop    	edi
  === BLOCK LINK ===
    0x15db
=== CODE BLOCK END ===

=== CODE BLOCK ADDRESS 0x15db ===
  0x15db	pop    	ebp
  0x15dc	ret    	
  0x15dd	int3   	
  0x15de	int3   	
  0x15df	int3   	
  === BLOCK LINK ===
    0x15e0
=== CODE BLOCK END ===

=== CODE BLOCK ADDRESS 0x107d ===
  0x107d	mov    	eax, esi
  0x107f	dec    	eax
  0x1080	add    	esp, 0x28
  0x1083	pop    	edi
  === BLOCK LINK ===
    0x1084
=== CODE BLOCK END ===

=== CODE BLOCK ADDRESS 0x15e0 ===
  0x15e0	int3   	
  0x15e1	int3   	
  0x15e2	int3   	
  0x15e3	int3   	
  0x15e4	int3   	
  === BLOCK LINK ===
    0x15e5
=== CODE BLOCK END ===

=== CODE BLOCK ADDRESS 0x15e5 ===
  0x15e5	int3   	
  0x15e6	int3   	
  0x15e7	int3   	
  0x15e8	int3   	
  0x15e9	int3   	
  === BLOCK LINK ===
    0x15ea
=== CODE BLOCK END ===

=== CODE BLOCK ADDRESS 0x15ea ===
  0x15ea	int3   	
  0x15eb	int3   	
  0x15ec	int3   	
  0x15ed	int3   	
  0x15ee	int3   	
  === BLOCK LINK ===
    0x15ef
=== CODE BLOCK END ===

=== CODE BLOCK ADDRESS 0x15ef ===
  0x15ef	int3   	
  0x15f0	dec    	eax
  0x15f1	sub    	esp, 0x38
  0x15f4	mov    	eax, dword ptr [0x1e4e]
  0x15fa	dec    	esp
  === BLOCK LINK ===
    0x15fb
=== CODE BLOCK END ===

=== CODE BLOCK ADDRESS 0x15fb ===
  0x15fb	mov    	ecx, dword ptr [0x1b8f]
  0x1601	dec    	esp
  0x1602	mov    	eax, dword ptr [0x1e48]
  0x1608	mov    	dword ptr [esp + 0x28], eax
  0x160c	dec    	eax
  === BLOCK LINK ===
    0x160d
=== CODE BLOCK END ===

=== CODE BLOCK ADDRESS 0x160d ===
  0x160d	mov    	dword ptr [esp + 0x20], edx
  0x1611	dec    	eax
  0x1612	mov    	edx, ecx
  0x1614	dec    	eax
  0x1615	lea    	ecx, [0xffffe9e5]
  === BLOCK LINK ===
    0x161b
=== CODE BLOCK END ===

=== CODE BLOCK ADDRESS 0x161b ===
  0x161b	dec    	eax
  0x161c	call   	dword ptr [0x1b76]
  === BLOCK LINK ===
    0x1622
=== CODE BLOCK END ===

=== CODE BLOCK ADDRESS 0x1622 ===
  0x1622	nop    	dword ptr [eax + eax]
  0x1627	dec    	eax
  0x1628	add    	esp, 0x38
  0x162b	ret    	
  0x162c	int3   	
  === BLOCK LINK ===
    0x162d
=== CODE BLOCK END ===

=== CODE BLOCK ADDRESS 0x162d ===
  0x162d	int3   	
  0x162e	int3   	
  0x162f	int3   	
  0x1630	int3   	
  0x1631	int3   	
  === BLOCK LINK ===
    0x1632
=== CODE BLOCK END ===

=== CODE BLOCK ADDRESS 0x1632 ===
  0x1632	int3   	
  0x1633	int3   	
  0x1634	int3   	
  0x1635	int3   	
  0x1636	int3   	
  === BLOCK LINK ===
    0x1637
=== CODE BLOCK END ===

=== CODE BLOCK ADDRESS 0x1637 ===
  0x1637	int3   	
  0x1638	int3   	
  0x1639	int3   	
  0x163a	int3   	
  0x163b	int3   	
  === BLOCK LINK ===
    0x163c
=== CODE BLOCK END ===

=== CODE BLOCK ADDRESS 0x163c ===
  0x163c	int3   	
  0x163d	int3   	
  0x163e	int3   	
  0x163f	int3   	
  0x1640	dec    	eax
  === BLOCK LINK ===
    0x1641
=== CODE BLOCK END ===

=== CODE BLOCK ADDRESS 0x1641 ===
  0x1641	sub    	esp, 0x28
  0x1644	mov    	eax, 0x5a4d
  0x1649	cmp    	word ptr [0xffffe9b0], ax
  0x1650	je     	0x1656
  === BLOCK LINK ===
    0x1652
=== CODE BLOCK END ===

=== CODE BLOCK ADDRESS 0x1652 ===
  0x1652	xor    	eax, eax
  0x1654	jmp    	0x16a9
  === BLOCK LINK ===
    0x1656
=== CODE BLOCK END ===

=== CODE BLOCK ADDRESS 0x1656 ===
  0x1656	dec    	eax
  0x1657	arpl   	word ptr [0xffffe9df], cx
  0x165d	dec    	eax
  0x165e	lea    	eax, [0xffffe99c]
  0x1664	dec    	eax
  === BLOCK LINK ===
    0x1665
=== CODE BLOCK END ===

=== CODE BLOCK ADDRESS 0x1665 ===
  0x1665	add    	ecx, eax
  0x1667	cmp    	dword ptr [ecx], 0x4550
  0x166d	jne    	0x1652
  === BLOCK LINK ===
    0x166f
=== CODE BLOCK END ===

=== CODE BLOCK ADDRESS 0x166f ===
  0x166f	mov    	eax, 0x10b
  0x1674	cmp    	word ptr [ecx + 0x18], ax
  0x1678	je     	0x1698
  === BLOCK LINK ===
    0x167a
=== CODE BLOCK END ===

=== CODE BLOCK ADDRESS 0x167a ===
  0x167a	mov    	eax, 0x20b
  0x167f	cmp    	word ptr [ecx + 0x18], ax
  0x1683	jne    	0x1652
  === BLOCK LINK ===
    0x1685
=== CODE BLOCK END ===

=== CODE BLOCK ADDRESS 0x1685 ===
  0x1685	xor    	eax, eax
  0x1687	cmp    	dword ptr [ecx + 0x84], 0xe
  0x168e	jbe    	0x16a9
  === BLOCK LINK ===
    0x1690
=== CODE BLOCK END ===

=== CODE BLOCK ADDRESS 0x1690 ===
  0x1690	cmp    	dword ptr [ecx + 0xf8], eax
  0x1696	jmp    	0x16a6
  === BLOCK LINK ===
    0x1698
=== CODE BLOCK END ===

=== CODE BLOCK ADDRESS 0x1698 ===
  0x1698	xor    	eax, eax
  0x169a	cmp    	dword ptr [ecx + 0x74], 0xe
  0x169e	jbe    	0x16a9
  === BLOCK LINK ===
    0x16a0
=== CODE BLOCK END ===

=== CODE BLOCK ADDRESS 0x16a0 ===
  0x16a0	cmp    	dword ptr [ecx + 0xe8], eax
  0x16a6	setne  	al
  0x16a9	mov    	ecx, 1
  0x16ae	mov    	dword ptr [0x298c], eax
  0x16b4	call   	0x1a68
  === BLOCK LINK ===
    0x16b9
=== CODE BLOCK END ===

=== CODE BLOCK ADDRESS 0x16b9 ===
  0x16b9	mov    	ecx, eax
  0x16bb	call   	dword ptr [0x1baf]
  === BLOCK LINK ===
    0x16c1
=== CODE BLOCK END ===

=== CODE BLOCK ADDRESS 0x16c1 ===
  0x16c1	dec    	eax
  0x16c2	mov    	ecx, dword ptr [0x1b78]
  0x16c8	dec    	eax
  0x16c9	or     	eax, 0xffffffff
  0x16cc	dec    	eax
  === BLOCK LINK ===
    0x16cd
=== CODE BLOCK END ===

=== CODE BLOCK ADDRESS 0x16cd ===
  0x16cd	mov    	dword ptr [0x2f15], eax
  0x16d3	dec    	eax
  0x16d4	mov    	dword ptr [0x2f16], eax
  0x16da	mov    	eax, dword ptr [0x2974]
  0x16e0	mov    	dword ptr [ecx], eax
  === BLOCK LINK ===
    0x16e2
=== CODE BLOCK END ===

=== CODE BLOCK ADDRESS 0x16e2 ===
  0x16e2	dec    	eax
  0x16e3	mov    	ecx, dword ptr [0x1b4f]
  0x16e9	mov    	eax, dword ptr [0x2959]
  0x16ef	mov    	dword ptr [ecx], eax
  0x16f1	call   	0x1ac0
  === BLOCK LINK ===
    0x16f6
=== CODE BLOCK END ===

=== CODE BLOCK ADDRESS 0x16f6 ===
  0x16f6	cmp    	dword ptr [0x2903], 0
  0x16fd	jne    	0x170c
  === BLOCK LINK ===
    0x16ff
=== CODE BLOCK END ===

=== CODE BLOCK ADDRESS 0x16ff ===
  0x16ff	dec    	eax
  0x1700	lea    	ecx, [0x3ba]
  0x1706	call   	dword ptr [0x1b44]
  === BLOCK LINK ===
    0x170c
=== CODE BLOCK END ===

=== CODE BLOCK ADDRESS 0x170c ===
  0x170c	xor    	eax, eax
  0x170e	dec    	eax
  0x170f	add    	esp, 0x28
  0x1712	ret    	
  0x1713	int3   	
  === BLOCK LINK ===
    0x1714
=== CODE BLOCK END ===

=== CODE BLOCK ADDRESS 0x1714 ===
  0x1714	int3   	
  0x1715	int3   	
  0x1716	int3   	
  0x1717	int3   	
  0x1718	int3   	
  === BLOCK LINK ===
    0x1719
=== CODE BLOCK END ===

=== CODE BLOCK ADDRESS 0x1719 ===
  0x1719	int3   	
  0x171a	int3   	
  0x171b	int3   	
  0x171c	int3   	
  0x171d	int3   	
  === BLOCK LINK ===
    0x171e
=== CODE BLOCK END ===

=== CODE BLOCK ADDRESS 0x171e ===
  0x171e	int3   	
  0x171f	int3   	
  0x1720	dec    	eax
  0x1721	sub    	esp, 0x38
  0x1724	mov    	eax, dword ptr [0x2926]
  === BLOCK LINK ===
    0x172a
=== CODE BLOCK END ===

=== CODE BLOCK ADDRESS 0x172a ===
  0x172a	dec    	esp
  0x172b	lea    	eax, [0x2907]
  0x1731	inc    	esp
  0x1732	mov    	ecx, dword ptr [0x2914]
  0x1738	dec    	eax
  === BLOCK LINK ===
    0x1739
=== CODE BLOCK END ===

=== CODE BLOCK ADDRESS 0x1739 ===
  0x1739	lea    	edx, [0x28f1]
  0x173f	mov    	dword ptr [0x28ff], eax
  0x1745	dec    	eax
  0x1746	lea    	ecx, [0x28dc]
  0x174c	dec    	eax
  === BLOCK LINK ===
    0x174d
=== CODE BLOCK END ===

=== CODE BLOCK ADDRESS 0x174d ===
  0x174d	lea    	eax, [0x28f1]
  0x1753	dec    	eax
  0x1754	mov    	dword ptr [esp + 0x20], eax
  0x1758	call   	dword ptr [0x1b1a]
  === BLOCK LINK ===
    0x175e
=== CODE BLOCK END ===

=== CODE BLOCK ADDRESS 0x175e ===
  0x175e	mov    	dword ptr [0x28c8], eax
  0x1764	dec    	eax
  0x1765	add    	esp, 0x38
  0x1768	ret    	
  0x1769	int3   	
  === BLOCK LINK ===
    0x176a
=== CODE BLOCK END ===

=== CODE BLOCK ADDRESS 0x176a ===
  0x176a	int3   	
  0x176b	int3   	
  0x176c	int3   	
  0x176d	int3   	
  0x176e	int3   	
  === BLOCK LINK ===
    0x176f
=== CODE BLOCK END ===

=== CODE BLOCK ADDRESS 0x176f ===
  0x176f	int3   	
  0x1770	dec    	eax
  0x1771	mov    	dword ptr [esp + 8], ebx
  0x1775	dec    	eax
  0x1776	mov    	dword ptr [esp + 0x10], esi
  === BLOCK LINK ===
    0x177a
=== CODE BLOCK END ===

=== CODE BLOCK ADDRESS 0x177a ===
  0x177a	dec    	eax
  0x177b	mov    	dword ptr [esp + 0x18], edi
  0x177f	inc    	ecx
  0x1780	push   	edi
  0x1781	dec    	eax
  === BLOCK LINK ===
    0x1782
=== CODE BLOCK END ===

=== CODE BLOCK ADDRESS 0x1782 ===
  0x1782	sub    	esp, 0x30
  0x1785	dec    	eax
  0x1787	mov    	eax, dword ptr [0x30]
  0x178e	dec    	eax
  0x178f	mov    	ebx, dword ptr [eax + 8]
  === BLOCK LINK ===
    0x1792
=== CODE BLOCK END ===

=== CODE BLOCK ADDRESS 0x1792 ===
  0x1792	xor    	esi, esi
  0x1794	xor    	eax, eax
  0x1796	.byte  	0xf0
  0x1797	dec    	eax
  0x1798	cmpxchg  	dword ptr [0x2e59], ebx
  === BLOCK LINK ===
    0x179f
=== CODE BLOCK END ===

=== CODE BLOCK ADDRESS 0x179f ===
  0x179f	je     	0x17bc
  === BLOCK LINK ===
    0x17a1
=== CODE BLOCK END ===

=== CODE BLOCK ADDRESS 0x17a1 ===
  0x17a1	dec    	eax
  0x17a2	cmp    	eax, ebx
  0x17a4	jne    	0x17af
  === BLOCK LINK ===
    0x17a6
=== CODE BLOCK END ===

=== CODE BLOCK ADDRESS 0x17a6 ===
  0x17a6	mov    	ebx, 1
  0x17ab	mov    	esi, ebx
  0x17ad	jmp    	0x17c1
  === BLOCK LINK ===
    0x17af
=== CODE BLOCK END ===

=== CODE BLOCK ADDRESS 0x17af ===
  0x17af	mov    	ecx, 0x3e8
  0x17b4	call   	dword ptr [0x1a36]
  === BLOCK LINK ===
    0x17ba
=== CODE BLOCK END ===

=== CODE BLOCK ADDRESS 0x17ba ===
  0x17ba	jmp    	0x1794
  === BLOCK LINK ===
    0x17bc
=== CODE BLOCK END ===

=== CODE BLOCK ADDRESS 0x17bc ===
  0x17bc	mov    	ebx, 1
  0x17c1	mov    	eax, dword ptr [0x2e39]
  0x17c7	cmp    	eax, ebx
  0x17c9	jne    	0x17d7
  === BLOCK LINK ===
    0x17cb
=== CODE BLOCK END ===

=== CODE BLOCK ADDRESS 0x17cb ===
  0x17cb	mov    	ecx, 0x1f
  0x17d0	call   	0x1ab3
  === BLOCK LINK ===
    0x17d5
=== CODE BLOCK END ===

=== CODE BLOCK ADDRESS 0x17d5 ===
  0x17d5	jmp    	0x183c
  === BLOCK LINK ===
    0x17d7
=== CODE BLOCK END ===

=== CODE BLOCK ADDRESS 0x17d7 ===
  0x17d7	mov    	eax, dword ptr [0x2e23]
  0x17dd	test   	eax, eax
  0x17df	jne    	0x1836
  === BLOCK LINK ===
    0x17e1
=== CODE BLOCK END ===

=== CODE BLOCK ADDRESS 0x17e1 ===
  0x17e1	mov    	dword ptr [0x2e19], ebx
  0x17e7	dec    	esp
  0x17e8	lea    	edi, [0x1b02]
  0x17ee	dec    	eax
  0x17ef	lea    	edi, [0x1ae3]
  === BLOCK LINK ===
    0x17f5
=== CODE BLOCK END ===

=== CODE BLOCK ADDRESS 0x17f5 ===
  0x17f5	dec    	eax
  0x17f6	mov    	dword ptr [esp + 0x28], edi
  0x17fa	mov    	dword ptr [esp + 0x20], eax
  0x17fe	dec    	ecx
  0x17ff	cmp    	edi, edi
  === BLOCK LINK ===
    0x1801
=== CODE BLOCK END ===

=== CODE BLOCK ADDRESS 0x1801 ===
  0x1801	jae    	0x1828
  === BLOCK LINK ===
    0x1803
=== CODE BLOCK END ===

=== CODE BLOCK ADDRESS 0x1803 ===
  0x1803	test   	eax, eax
  0x1805	jne    	0x182c
  === BLOCK LINK ===
    0x1807
=== CODE BLOCK END ===

=== CODE BLOCK ADDRESS 0x1807 ===
  0x1807	dec    	eax
  0x1808	cmp    	dword ptr [edi], 0
  0x180b	je     	0x181d
  === BLOCK LINK ===
    0x180d
=== CODE BLOCK END ===

=== CODE BLOCK ADDRESS 0x180d ===
  0x180d	dec    	eax
  0x180e	mov    	eax, dword ptr [edi]
  0x1810	dec    	eax
  0x1811	mov    	ecx, dword ptr [0x1aa1]
  0x1817	call   	ecx
  === BLOCK LINK ===
    0x1819
=== CODE BLOCK END ===

=== CODE BLOCK ADDRESS 0x1819 ===
  0x1819	mov    	dword ptr [esp + 0x20], eax
  0x181d	dec    	eax
  0x181e	add    	edi, 8
  0x1821	dec    	eax
  0x1822	mov    	dword ptr [esp + 0x28], edi
  === BLOCK LINK ===
    0x1826
=== CODE BLOCK END ===

=== CODE BLOCK ADDRESS 0x1826 ===
  0x1826	jmp    	0x17fe
  === BLOCK LINK ===
    0x1828
=== CODE BLOCK END ===

=== CODE BLOCK ADDRESS 0x1828 ===
  0x1828	test   	eax, eax
  0x182a	je     	0x183c
  === BLOCK LINK ===
    0x182c
=== CODE BLOCK END ===

=== CODE BLOCK ADDRESS 0x182c ===
  0x182c	mov    	eax, 0xff
  0x1831	jmp    	0x1918
  === BLOCK LINK ===
    0x1836
=== CODE BLOCK END ===

=== CODE BLOCK ADDRESS 0x1836 ===
  0x1836	mov    	dword ptr [0x27e8], ebx
  0x183c	mov    	eax, dword ptr [0x2dbe]
  0x1842	cmp    	eax, ebx
  0x1844	jne    	0x1863
  === BLOCK LINK ===
    0x1846
=== CODE BLOCK END ===

=== CODE BLOCK ADDRESS 0x1846 ===
  0x1846	dec    	eax
  0x1847	lea    	edx, [0x1a83]
  0x184d	dec    	eax
  0x184e	lea    	ecx, [0x1a6c]
  0x1854	call   	0x1c8e
  === BLOCK LINK ===
    0x1859
=== CODE BLOCK END ===

=== CODE BLOCK ADDRESS 0x1859 ===
  0x1859	mov    	dword ptr [0x2d9d], 2
  0x1863	test   	esi, esi
  0x1865	jne    	0x1870
  === BLOCK LINK ===
    0x1867
=== CODE BLOCK END ===

=== CODE BLOCK ADDRESS 0x1867 ===
  0x1867	xor    	eax, eax
  0x1869	dec    	eax
  0x186a	xchg   	dword ptr [0x2d88], eax
  0x1870	dec    	eax
  0x1871	cmp    	dword ptr [0x2d90], 0
  === BLOCK LINK ===
    0x1878
=== CODE BLOCK END ===

=== CODE BLOCK ADDRESS 0x1878 ===
  0x1878	je     	0x18a4
  === BLOCK LINK ===
    0x187a
=== CODE BLOCK END ===

=== CODE BLOCK ADDRESS 0x187a ===
  0x187a	dec    	eax
  0x187b	lea    	ecx, [0x2d87]
  0x1881	call   	0x1b20
  === BLOCK LINK ===
    0x1886
=== CODE BLOCK END ===

=== CODE BLOCK ADDRESS 0x1886 ===
  0x1886	test   	eax, eax
  0x1888	je     	0x18a4
  === BLOCK LINK ===
    0x188a
=== CODE BLOCK END ===

=== CODE BLOCK ADDRESS 0x188a ===
  0x188a	inc    	ebp
  0x188b	xor    	eax, eax
  0x188d	inc    	ecx
  0x188e	lea    	edx, [eax + 2]
  0x1891	xor    	ecx, ecx
  === BLOCK LINK ===
    0x1893
=== CODE BLOCK END ===

=== CODE BLOCK ADDRESS 0x1893 ===
  0x1893	dec    	eax
  0x1894	mov    	eax, dword ptr [0x2d6e]
  0x189a	dec    	esp
  0x189b	mov    	ecx, dword ptr [0x1a17]
  0x18a1	inc    	ecx
  === BLOCK LINK ===
    0x18a2
=== CODE BLOCK END ===

=== CODE BLOCK ADDRESS 0x18a2 ===
  0x18a2	call   	ecx
  === BLOCK LINK ===
    0x18a4
=== CODE BLOCK END ===

=== CODE BLOCK ADDRESS 0x18a4 ===
  0x18a4	dec    	esp
  0x18a5	mov    	eax, dword ptr [0x278d]
  0x18ab	dec    	eax
  0x18ac	mov    	edx, dword ptr [0x277e]
  0x18b2	mov    	ecx, dword ptr [0x2770]
  === BLOCK LINK ===
    0x18b8
=== CODE BLOCK END ===

=== CODE BLOCK ADDRESS 0x18b8 ===
  0x18b8	call   	0x1090
  === BLOCK LINK ===
    0x18bd
=== CODE BLOCK END ===

=== CODE BLOCK ADDRESS 0x18bd ===
  0x18bd	mov    	dword ptr [0x275d], eax
  0x18c3	cmp    	dword ptr [0x2776], 0
  0x18ca	jne    	0x18d4
  === BLOCK LINK ===
    0x18cc
=== CODE BLOCK END ===

=== CODE BLOCK ADDRESS 0x18cc ===
  0x18cc	mov    	ecx, eax
  0x18ce	call   	dword ptr [0x1994]
  === BLOCK LINK ===
    0x18d4
=== CODE BLOCK END ===

=== CODE BLOCK ADDRESS 0x18d4 ===
  0x18d4	cmp    	dword ptr [0x2749], 0
  0x18db	jne    	0x18e9
  === BLOCK LINK ===
    0x18dd
=== CODE BLOCK END ===

=== CODE BLOCK ADDRESS 0x18dd ===
  0x18dd	call   	dword ptr [0x19bd]
  === BLOCK LINK ===
    0x18e3
=== CODE BLOCK END ===

=== CODE BLOCK ADDRESS 0x18e3 ===
  0x18e3	mov    	eax, dword ptr [0x2737]
  0x18e9	jmp    	0x1918
  === BLOCK LINK ===
    0x18eb
=== CODE BLOCK END ===

=== CODE BLOCK ADDRESS 0x18eb ===
  0x18eb	mov    	dword ptr [0x272f], eax
  0x18f1	cmp    	dword ptr [0x2748], 0
  0x18f8	jne    	0x1903
  === BLOCK LINK ===
    0x18fa
=== CODE BLOCK END ===

=== CODE BLOCK ADDRESS 0x18fa ===
  0x18fa	mov    	ecx, eax
  0x18fc	call   	dword ptr [0x195e]
  === BLOCK LINK ===
    0x1902
=== CODE BLOCK END ===

=== CODE BLOCK ADDRESS 0x1902 ===
  0x1902	int3   	
  0x1903	cmp    	dword ptr [0x271a], 0
  0x190a	jne    	0x1918
  === BLOCK LINK ===
    0x190c
=== CODE BLOCK END ===

=== CODE BLOCK ADDRESS 0x190c ===
  0x190c	call   	dword ptr [0x198e]
  === BLOCK LINK ===
    0x1912
=== CODE BLOCK END ===

=== CODE BLOCK ADDRESS 0x1912 ===
  0x1912	mov    	eax, dword ptr [0x2708]
  0x1918	dec    	eax
  0x1919	mov    	ebx, dword ptr [esp + 0x40]
  0x191d	dec    	eax
  0x191e	mov    	esi, dword ptr [esp + 0x48]
  === BLOCK LINK ===
    0x1922
=== CODE BLOCK END ===

=== CODE BLOCK ADDRESS 0x1922 ===
  0x1922	dec    	eax
  0x1923	mov    	edi, dword ptr [esp + 0x50]
  0x1927	dec    	eax
  0x1928	add    	esp, 0x30
  0x192b	inc    	ecx
  === BLOCK LINK ===
    0x192c
=== CODE BLOCK END ===

=== CODE BLOCK ADDRESS 0x192c ===
  0x192c	pop    	edi
  0x192d	ret    	
  0x192e	int3   	
  0x192f	int3   	
  0x1930	int3   	
  === BLOCK LINK ===
    0x1931
=== CODE BLOCK END ===

=== CODE BLOCK ADDRESS 0x1931 ===
  0x1931	int3   	
  0x1932	int3   	
  0x1933	int3   	
  0x1934	int3   	
  0x1935	int3   	
  === BLOCK LINK ===
    0x1936
=== CODE BLOCK END ===

=== CODE BLOCK ADDRESS 0x1936 ===
  0x1936	int3   	
  0x1937	int3   	
  0x1938	int3   	
  0x1939	int3   	
  0x193a	int3   	
  === BLOCK LINK ===
    0x193b
=== CODE BLOCK END ===

=== CODE BLOCK ADDRESS 0x193b ===
  0x193b	int3   	
  0x193c	int3   	
  0x193d	int3   	
  0x193e	int3   	
  0x193f	int3   	
  === BLOCK LINK ===
    0x1940
=== CODE BLOCK END ===

=== CODE BLOCK ADDRESS 0x1940 ===
  0x1940	dec    	eax
  0x1941	sub    	esp, 0x28
  0x1944	call   	0x1bb4
  === BLOCK LINK ===
    0x1949
=== CODE BLOCK END ===

=== CODE BLOCK ADDRESS 0x1949 ===
  0x1949	dec    	eax
  0x194a	add    	esp, 0x28
  0x194d	jmp    	0x1770
  === BLOCK LINK ===
    0x1952
=== CODE BLOCK END ===

=== CODE BLOCK ADDRESS 0x1952 ===
  0x1952	int3   	
  0x1953	int3   	
  0x1954	int3   	
  0x1955	int3   	
  0x1956	int3   	
  === BLOCK LINK ===
    0x1957
=== CODE BLOCK END ===

=== CODE BLOCK ADDRESS 0x1957 ===
  0x1957	int3   	
  0x1958	jmp    	dword ptr [0x193a]
  === BLOCK LINK ===
    0x195e
=== CODE BLOCK END ===

=== CODE BLOCK ADDRESS 0x195e ===
  0x195e	int3   	
  0x195f	int3   	
  0x1960	int3   	
  0x1961	int3   	
  0x1962	int3   	
  === BLOCK LINK ===
    0x1963
=== CODE BLOCK END ===

=== CODE BLOCK ADDRESS 0x1963 ===
  0x1963	int3   	
  0x1964	int3   	
  0x1965	int3   	
  0x1966	nop    	word ptr [eax + eax]
  0x1970	dec    	eax
  === BLOCK LINK ===
    0x1971
=== CODE BLOCK END ===

=== CODE BLOCK ADDRESS 0x1971 ===
  0x1971	cmp    	ecx, dword ptr [0x2691]
  0x1977	jne    	0x1989
  === BLOCK LINK ===
    0x1979
=== CODE BLOCK END ===

=== CODE BLOCK ADDRESS 0x1979 ===
  0x1979	dec    	eax
  0x197a	rol    	ecx, 0x10
  0x197d	test   	cx, 0xffff
  0x1982	jne    	0x1985
  === BLOCK LINK ===
    0x1984
=== CODE BLOCK END ===

=== CODE BLOCK ADDRESS 0x1984 ===
  0x1984	ret    	
  0x1985	dec    	eax
  0x1986	ror    	ecx, 0x10
  0x1989	jmp    	0x1cf0
  === BLOCK LINK ===
    0x198e
=== CODE BLOCK END ===

=== CODE BLOCK ADDRESS 0x1184 ===
  0x1184	xor    	eax, eax
  === BLOCK LINK ===
    0x1186
=== CODE BLOCK END ===

=== CODE BLOCK ADDRESS 0x198e ===
  0x198e	int3   	
  0x198f	int3   	
  0x1990	int3   	
  0x1991	int3   	
  0x1992	int3   	
  === BLOCK LINK ===
    0x1993
=== CODE BLOCK END ===

=== CODE BLOCK ADDRESS 0x1993 ===
  0x1993	int3   	
  0x1994	int3   	
  0x1995	int3   	
  0x1996	int3   	
  0x1997	int3   	
  === BLOCK LINK ===
    0x1998
=== CODE BLOCK END ===

=== CODE BLOCK ADDRESS 0x1998 ===
  0x1998	int3   	
  0x1999	int3   	
  0x199a	int3   	
  0x199b	int3   	
  0x199c	int3   	
  === BLOCK LINK ===
    0x199d
=== CODE BLOCK END ===

=== CODE BLOCK ADDRESS 0x199d ===
  0x199d	int3   	
  0x199e	int3   	
  0x199f	int3   	
  0x19a0	dec    	eax
  0x19a1	sub    	esp, 0x28
  === BLOCK LINK ===
    0x19a4
=== CODE BLOCK END ===

=== CODE BLOCK ADDRESS 0x19a4 ===
  0x19a4	dec    	eax
  0x19a5	mov    	eax, dword ptr [ecx]
  0x19a7	cmp    	dword ptr [eax], 0xe06d7363
  0x19ad	jne    	0x19d2
  === BLOCK LINK ===
    0x19af
=== CODE BLOCK END ===

=== CODE BLOCK ADDRESS 0x19af ===
  0x19af	cmp    	dword ptr [eax + 0x18], 4
  0x19b3	jne    	0x19d2
  === BLOCK LINK ===
    0x19b5
=== CODE BLOCK END ===

=== CODE BLOCK ADDRESS 0x19b5 ===
  0x19b5	mov    	ecx, dword ptr [eax + 0x20]
  0x19b8	lea    	eax, [ecx - 0x19930520]
  0x19be	cmp    	eax, 2
  0x19c1	jbe    	0x19cb
  === BLOCK LINK ===
    0x19c3
=== CODE BLOCK END ===

=== CODE BLOCK ADDRESS 0x19c3 ===
  0x19c3	cmp    	ecx, 0x1994000
  0x19c9	jne    	0x19d2
  === BLOCK LINK ===
    0x19cb
=== CODE BLOCK END ===

=== CODE BLOCK ADDRESS 0x19cb ===
  0x19cb	call   	dword ptr [0x185f]
  === BLOCK LINK ===
    0x19d1
=== CODE BLOCK END ===

=== CODE BLOCK ADDRESS 0x19d1 ===
  0x19d1	int3   	
  0x19d2	xor    	eax, eax
  0x19d4	dec    	eax
  0x19d5	add    	esp, 0x28
  0x19d8	ret    	
  === BLOCK LINK ===
    0x19d9
=== CODE BLOCK END ===

=== CODE BLOCK ADDRESS 0x19d9 ===
  0x19d9	int3   	
  0x19da	int3   	
  0x19db	int3   	
  0x19dc	int3   	
  0x19dd	int3   	
  === BLOCK LINK ===
    0x19de
=== CODE BLOCK END ===

=== CODE BLOCK ADDRESS 0x19de ===
  0x19de	int3   	
  0x19df	int3   	
  0x19e0	dec    	eax
  0x19e1	sub    	esp, 0x28
  0x19e4	dec    	eax
  === BLOCK LINK ===
    0x19e5
=== CODE BLOCK END ===

=== CODE BLOCK ADDRESS 0x19e5 ===
  0x19e5	lea    	ecx, [0xffffffb5]
  0x19eb	call   	dword ptr [0x1807]
  === BLOCK LINK ===
    0x19f1
=== CODE BLOCK END ===

=== CODE BLOCK ADDRESS 0x19f1 ===
  0x19f1	xor    	eax, eax
  0x19f3	dec    	eax
  0x19f4	add    	esp, 0x28
  0x19f7	ret    	
  0x19f8	int3   	
  === BLOCK LINK ===
    0x19f9
=== CODE BLOCK END ===

=== CODE BLOCK ADDRESS 0x19f9 ===
  0x19f9	int3   	
  0x19fa	int3   	
  0x19fb	int3   	
  0x19fc	int3   	
  0x19fd	int3   	
  === BLOCK LINK ===
    0x19fe
=== CODE BLOCK END ===

=== CODE BLOCK ADDRESS 0x19fe ===
  0x19fe	jmp    	dword ptr [0x1884]
  === BLOCK LINK ===
    0x1a04
=== CODE BLOCK END ===

=== CODE BLOCK ADDRESS 0x1a04 ===
  0x1a04	int3   	
  0x1a05	int3   	
  0x1a06	int3   	
  0x1a07	int3   	
  0x1a08	int3   	
  === BLOCK LINK ===
    0x1a09
=== CODE BLOCK END ===

=== CODE BLOCK ADDRESS 0x1a09 ===
  0x1a09	int3   	
  0x1a0a	int3   	
  0x1a0b	int3   	
  0x1a0c	dec    	eax
  0x1a0d	sub    	esp, 0x18
  === BLOCK LINK ===
    0x1a10
=== CODE BLOCK END ===

=== CODE BLOCK ADDRESS 0x1a10 ===
  0x1a10	xor    	edx, edx
  0x1a12	dec    	eax
  0x1a13	lea    	eax, [ecx - 1]
  0x1a16	dec    	eax
  0x1a17	cmp    	eax, -3
  === BLOCK LINK ===
    0x1a1a
=== CODE BLOCK END ===

=== CODE BLOCK ADDRESS 0x1a1a ===
  0x1a1a	ja     	0x1a58
  === BLOCK LINK ===
    0x1a1c
=== CODE BLOCK END ===

=== CODE BLOCK ADDRESS 0x1a1c ===
  0x1a1c	mov    	eax, 0x5a4d
  0x1a21	cmp    	word ptr [ecx], ax
  0x1a24	jne    	0x1a50
  === BLOCK LINK ===
    0x1a26
=== CODE BLOCK END ===

=== CODE BLOCK ADDRESS 0x1a26 ===
  0x1a26	cmp    	dword ptr [ecx + 0x3c], edx
  0x1a29	jl     	0x1a50
  === BLOCK LINK ===
    0x1a2b
=== CODE BLOCK END ===

=== CODE BLOCK ADDRESS 0x1a2b ===
  0x1a2b	cmp    	dword ptr [ecx + 0x3c], 0x10000000
  0x1a32	jae    	0x1a50
  === BLOCK LINK ===
    0x1a34
=== CODE BLOCK END ===

=== CODE BLOCK ADDRESS 0x1a34 ===
  0x1a34	dec    	eax
  0x1a35	arpl   	word ptr [ecx + 0x3c], ax
  0x1a38	dec    	eax
  0x1a39	add    	eax, ecx
  0x1a3b	dec    	eax
  === BLOCK LINK ===
    0x1a3c
=== CODE BLOCK END ===

=== CODE BLOCK ADDRESS 0x1a3c ===
  0x1a3c	mov    	dword ptr [esp], eax
  0x1a3f	cmp    	dword ptr [eax], 0x4550
  0x1a45	dec    	eax
  0x1a46	cmovne  	eax, edx
  0x1a49	dec    	eax
  === BLOCK LINK ===
    0x1a4a
=== CODE BLOCK END ===

=== CODE BLOCK ADDRESS 0x1a4a ===
  0x1a4a	mov    	edx, eax
  0x1a4c	dec    	eax
  0x1a4d	mov    	dword ptr [esp], eax
  0x1a50	jmp    	0x1a58
  === BLOCK LINK ===
    0x1a52
=== CODE BLOCK END ===

=== CODE BLOCK ADDRESS 0x1a52 ===
  0x1a52	xor    	edx, edx
  0x1a54	dec    	eax
  0x1a55	mov    	dword ptr [esp], edx
  0x1a58	dec    	eax
  0x1a59	mov    	eax, edx
  === BLOCK LINK ===
    0x1a5b
=== CODE BLOCK END ===

=== CODE BLOCK ADDRESS 0x1a5b ===
  0x1a5b	dec    	eax
  0x1a5c	add    	esp, 0x18
  0x1a5f	ret    	
  0x1a60	int3   	
  0x1a61	int3   	
  === BLOCK LINK ===
    0x1a62
=== CODE BLOCK END ===

=== CODE BLOCK ADDRESS 0x1a62 ===
  0x1a62	int3   	
  0x1a63	int3   	
  0x1a64	int3   	
  0x1a65	int3   	
  0x1a66	int3   	
  === BLOCK LINK ===
    0x1a67
=== CODE BLOCK END ===

=== CODE BLOCK ADDRESS 0x1a67 ===
  0x1a67	int3   	
  0x1a68	inc    	eax
  0x1a69	push   	ebx
  0x1a6a	dec    	eax
  0x1a6b	sub    	esp, 0x20
  === BLOCK LINK ===
    0x1a6e
=== CODE BLOCK END ===

=== CODE BLOCK ADDRESS 0x1a6e ===
  0x1a6e	mov    	ebx, ecx
  0x1a70	xor    	ecx, ecx
  0x1a72	call   	dword ptr [0x1788]
  === BLOCK LINK ===
    0x1a78
=== CODE BLOCK END ===

=== CODE BLOCK ADDRESS 0x1a78 ===
  0x1a78	dec    	eax
  0x1a79	test   	eax, eax
  0x1a7b	je     	0x1aa5
  === BLOCK LINK ===
    0x1a7d
=== CODE BLOCK END ===

=== CODE BLOCK ADDRESS 0x1a7d ===
  0x1a7d	dec    	eax
  0x1a7e	mov    	ecx, eax
  0x1a80	call   	0x1a0c
  === BLOCK LINK ===
    0x1a85
=== CODE BLOCK END ===

=== CODE BLOCK ADDRESS 0x1a85 ===
  0x1a85	dec    	eax
  0x1a86	test   	eax, eax
  0x1a88	je     	0x1aa5
  === BLOCK LINK ===
    0x1a8a
=== CODE BLOCK END ===

=== CODE BLOCK ADDRESS 0x1a8a ===
  0x1a8a	mov    	ecx, 2
  0x1a8f	cmp    	word ptr [eax + 0x5c], cx
  0x1a93	jne    	0x1a99
  === BLOCK LINK ===
    0x1a95
=== CODE BLOCK END ===

=== CODE BLOCK ADDRESS 0x1a95 ===
  0x1a95	mov    	eax, ecx
  0x1a97	jmp    	0x1aa7
  === BLOCK LINK ===
    0x1a99
=== CODE BLOCK END ===

=== CODE BLOCK ADDRESS 0x1a99 ===
  0x1a99	cmp    	word ptr [eax + 0x5c], 3
  0x1a9e	mov    	eax, 1
  0x1aa3	je     	0x1aa7
  === BLOCK LINK ===
    0x1aa5
=== CODE BLOCK END ===

=== CODE BLOCK ADDRESS 0x1aa5 ===
  0x1aa5	mov    	eax, ebx
  0x1aa7	dec    	eax
  0x1aa8	add    	esp, 0x20
  0x1aab	pop    	ebx
  0x1aac	ret    	
  === BLOCK LINK ===
    0x1aad
=== CODE BLOCK END ===

=== CODE BLOCK ADDRESS 0x1aad ===
  0x1aad	int3   	
  0x1aae	int3   	
  0x1aaf	int3   	
  0x1ab0	int3   	
  0x1ab1	int3   	
  === BLOCK LINK ===
    0x1ab2
=== CODE BLOCK END ===

=== CODE BLOCK ADDRESS 0x1ab2 ===
  0x1ab2	int3   	
  0x1ab3	jmp    	dword ptr [0x17c7]
  === BLOCK LINK ===
    0x1ab9
=== CODE BLOCK END ===

=== CODE BLOCK ADDRESS 0x1ab9 ===
  0x1ab9	int3   	
  0x1aba	int3   	
  0x1abb	int3   	
  0x1abc	int3   	
  0x1abd	int3   	
  === BLOCK LINK ===
    0x1abe
=== CODE BLOCK END ===

=== CODE BLOCK ADDRESS 0x1abe ===
  0x1abe	int3   	
  0x1abf	int3   	
  0x1ac0	xor    	eax, eax
  0x1ac2	ret    	
  0x1ac3	int3   	
  === BLOCK LINK ===
    0x1ac4
=== CODE BLOCK END ===

=== CODE BLOCK ADDRESS 0x2140 ===
=== CODE BLOCK END ===

=== CODE BLOCK ADDRESS 0x1ac4 ===
  0x1ac4	int3   	
  0x1ac5	int3   	
  0x1ac6	int3   	
  0x1ac7	int3   	
  0x1ac8	int3   	
  === BLOCK LINK ===
    0x1ac9
=== CODE BLOCK END ===

=== CODE BLOCK ADDRESS 0x1ac9 ===
  0x1ac9	int3   	
  0x1aca	int3   	
  0x1acb	int3   	
  0x1acc	int3   	
  0x1acd	int3   	
  === BLOCK LINK ===
    0x1ace
=== CODE BLOCK END ===

=== CODE BLOCK ADDRESS 0x1ace ===
  0x1ace	int3   	
  0x1acf	int3   	
  0x1ad0	dec    	esp
  0x1ad1	arpl   	word ptr [ecx + 0x3c], ax
  0x1ad4	inc    	ebp
  === BLOCK LINK ===
    0x1ad5
=== CODE BLOCK END ===

=== CODE BLOCK ADDRESS 0x1ad5 ===
  0x1ad5	xor    	ecx, ecx
  0x1ad7	dec    	esp
  0x1ad8	add    	eax, ecx
  0x1ada	dec    	esp
  0x1adb	mov    	edx, edx
  === BLOCK LINK ===
    0x1add
=== CODE BLOCK END ===

=== CODE BLOCK ADDRESS 0x1add ===
  0x1add	inc    	ecx
  0x1ade	movzx  	eax, word ptr [eax + 0x14]
  0x1ae2	inc    	ebp
  0x1ae3	movzx  	ebx, word ptr [eax + 6]
  0x1ae7	dec    	eax
  === BLOCK LINK ===
    0x1ae8
=== CODE BLOCK END ===

=== CODE BLOCK ADDRESS 0x1ae8 ===
  0x1ae8	add    	eax, 0x18
  0x1aeb	dec    	ecx
  0x1aec	add    	eax, eax
  0x1aee	inc    	ebp
  0x1aef	test   	ebx, ebx
  === BLOCK LINK ===
    0x1af1
=== CODE BLOCK END ===

=== CODE BLOCK ADDRESS 0x1af1 ===
  0x1af1	je     	0x1b11
  === BLOCK LINK ===
    0x1af3
=== CODE BLOCK END ===

=== CODE BLOCK ADDRESS 0x1af3 ===
  0x1af3	mov    	edx, dword ptr [eax + 0xc]
  0x1af6	dec    	esp
  0x1af7	cmp    	edx, edx
  0x1af9	jb     	0x1b05
  === BLOCK LINK ===
    0x1afb
=== CODE BLOCK END ===

=== CODE BLOCK ADDRESS 0x1afb ===
  0x1afb	mov    	ecx, dword ptr [eax + 8]
  0x1afe	add    	ecx, edx
  0x1b00	dec    	esp
  0x1b01	cmp    	edx, ecx
  0x1b03	jb     	0x1b13
  === BLOCK LINK ===
    0x1b05
=== CODE BLOCK END ===

=== CODE BLOCK ADDRESS 0x1b05 ===
  0x1b05	inc    	ecx
  0x1b06	inc    	ecx
  0x1b08	dec    	eax
  0x1b09	add    	eax, 0x28
  0x1b0c	inc    	ebp
  === BLOCK LINK ===
    0x1b0d
=== CODE BLOCK END ===

=== CODE BLOCK ADDRESS 0x1b0d ===
  0x1b0d	cmp    	ecx, ebx
  0x1b0f	jb     	0x1af3
  === BLOCK LINK ===
    0x1b11
=== CODE BLOCK END ===

=== CODE BLOCK ADDRESS 0x1b11 ===
  0x1b11	xor    	eax, eax
  0x1b13	ret    	
  0x1b14	int3   	
  0x1b15	int3   	
  0x1b16	int3   	
  === BLOCK LINK ===
    0x1b17
=== CODE BLOCK END ===

=== CODE BLOCK ADDRESS 0x1008 ===
  0x1008	dec    	esp
  0x1009	mov    	dword ptr [esp + 0x18], eax
  === BLOCK LINK ===
    0x100d
=== CODE BLOCK END ===

=== CODE BLOCK ADDRESS 0x1b17 ===
  0x1b17	int3   	
  0x1b18	int3   	
  0x1b19	int3   	
  0x1b1a	int3   	
  0x1b1b	int3   	
  === BLOCK LINK ===
    0x1b1c
=== CODE BLOCK END ===

=== CODE BLOCK ADDRESS 0x1b1c ===
  0x1b1c	int3   	
  0x1b1d	int3   	
  0x1b1e	int3   	
  0x1b1f	int3   	
  0x1b20	dec    	eax
  === BLOCK LINK ===
    0x1b21
=== CODE BLOCK END ===

=== CODE BLOCK ADDRESS 0x1b21 ===
  0x1b21	mov    	dword ptr [esp + 8], ebx
  0x1b25	push   	edi
  0x1b26	dec    	eax
  0x1b27	sub    	esp, 0x20
  0x1b2a	dec    	eax
  === BLOCK LINK ===
    0x1b2b
=== CODE BLOCK END ===

=== CODE BLOCK ADDRESS 0x1b2b ===
  0x1b2b	mov    	ebx, ecx
  0x1b2d	dec    	eax
  0x1b2e	lea    	edi, [0xffffe4cc]
  0x1b34	dec    	eax
  0x1b35	mov    	ecx, edi
  === BLOCK LINK ===
    0x1b37
=== CODE BLOCK END ===

=== CODE BLOCK ADDRESS 0x1b37 ===
  0x1b37	call   	0x1b80
  === BLOCK LINK ===
    0x1b3c
=== CODE BLOCK END ===

=== CODE BLOCK ADDRESS 0x1b3c ===
  0x1b3c	test   	eax, eax
  0x1b3e	je     	0x1b62
  === BLOCK LINK ===
    0x1b40
=== CODE BLOCK END ===

=== CODE BLOCK ADDRESS 0x1b40 ===
  0x1b40	dec    	eax
  0x1b41	sub    	ebx, edi
  0x1b43	dec    	eax
  0x1b44	mov    	edx, ebx
  0x1b46	dec    	eax
  === BLOCK LINK ===
    0x1b47
=== CODE BLOCK END ===

=== CODE BLOCK ADDRESS 0x1b47 ===
  0x1b47	mov    	ecx, edi
  0x1b49	call   	0x1ad0
  === BLOCK LINK ===
    0x1b4e
=== CODE BLOCK END ===

=== CODE BLOCK ADDRESS 0x1b4e ===
  0x1b4e	dec    	eax
  0x1b4f	test   	eax, eax
  0x1b51	je     	0x1b62
  === BLOCK LINK ===
    0x1b53
=== CODE BLOCK END ===

=== CODE BLOCK ADDRESS 0x1b53 ===
  0x1b53	mov    	eax, dword ptr [eax + 0x24]
  0x1b56	shr    	eax, 0x1f
  0x1b59	not    	eax
  0x1b5b	and    	eax, 1
  0x1b5e	jmp    	0x1b62
  === BLOCK LINK ===
    0x1b60
=== CODE BLOCK END ===

=== CODE BLOCK ADDRESS 0x1b60 ===
  0x1b60	xor    	eax, eax
  0x1b62	dec    	eax
  0x1b63	mov    	ebx, dword ptr [esp + 0x30]
  0x1b67	dec    	eax
  0x1b68	add    	esp, 0x20
  === BLOCK LINK ===
    0x1b6b
=== CODE BLOCK END ===

=== CODE BLOCK ADDRESS 0x1b6b ===
  0x1b6b	pop    	edi
  0x1b6c	ret    	
  0x1b6d	int3   	
  0x1b6e	int3   	
  0x1b6f	int3   	
  === BLOCK LINK ===
    0x1b70
=== CODE BLOCK END ===

=== CODE BLOCK ADDRESS 0x1170 ===
  0x1170	dec    	eax
  0x1171	test   	ebx, ebx
  0x1173	je     	0x1184
  === BLOCK LINK ===
    0x1175
=== CODE BLOCK END ===

=== CODE BLOCK ADDRESS 0x1b70 ===
  0x1b70	int3   	
  0x1b71	int3   	
  0x1b72	int3   	
  0x1b73	int3   	
  0x1b74	int3   	
  === BLOCK LINK ===
    0x1b75
=== CODE BLOCK END ===

=== CODE BLOCK ADDRESS 0x1b75 ===
  0x1b75	int3   	
  0x1b76	int3   	
  0x1b77	int3   	
  0x1b78	int3   	
  0x1b79	int3   	
  === BLOCK LINK ===
    0x1b7a
=== CODE BLOCK END ===

=== CODE BLOCK ADDRESS 0x1b7a ===
  0x1b7a	int3   	
  0x1b7b	int3   	
  0x1b7c	int3   	
  0x1b7d	int3   	
  0x1b7e	int3   	
  === BLOCK LINK ===
    0x1b7f
=== CODE BLOCK END ===

=== CODE BLOCK ADDRESS 0x1b7f ===
  0x1b7f	int3   	
  0x1b80	mov    	eax, 0x5a4d
  0x1b85	cmp    	word ptr [ecx], ax
  0x1b88	jne    	0x1baa
  === BLOCK LINK ===
    0x1b8a
=== CODE BLOCK END ===

=== CODE BLOCK ADDRESS 0x1b8a ===
  0x1b8a	dec    	eax
  0x1b8b	arpl   	word ptr [ecx + 0x3c], ax
  0x1b8e	dec    	eax
  0x1b8f	add    	eax, ecx
  0x1b91	cmp    	dword ptr [eax], 0x4550
  === BLOCK LINK ===
    0x1b97
=== CODE BLOCK END ===

=== CODE BLOCK ADDRESS 0x1b97 ===
  0x1b97	jne    	0x1baa
  === BLOCK LINK ===
    0x1b99
=== CODE BLOCK END ===

=== CODE BLOCK ADDRESS 0x1b99 ===
  0x1b99	mov    	ecx, 0x20b
  0x1b9e	cmp    	word ptr [eax + 0x18], cx
  0x1ba2	jne    	0x1baa
  === BLOCK LINK ===
    0x1ba4
=== CODE BLOCK END ===

=== CODE BLOCK ADDRESS 0x1ba4 ===
  0x1ba4	mov    	eax, 1
  0x1ba9	ret    	
  0x1baa	xor    	eax, eax
  0x1bac	ret    	
  0x1bad	int3   	
  === BLOCK LINK ===
    0x1bae
=== CODE BLOCK END ===

=== CODE BLOCK ADDRESS 0x1bae ===
  0x1bae	int3   	
  0x1baf	int3   	
  0x1bb0	int3   	
  0x1bb1	int3   	
  0x1bb2	int3   	
  === BLOCK LINK ===
    0x1bb3
=== CODE BLOCK END ===

=== CODE BLOCK ADDRESS 0x1bb3 ===
  0x1bb3	int3   	
  0x1bb4	dec    	eax
  0x1bb5	mov    	dword ptr [esp + 0x20], ebx
  0x1bb9	push   	ebp
  0x1bba	dec    	eax
  === BLOCK LINK ===
    0x1bbb
=== CODE BLOCK END ===

=== CODE BLOCK ADDRESS 0x1bbb ===
  0x1bbb	mov    	ebp, esp
  0x1bbd	dec    	eax
  0x1bbe	sub    	esp, 0x20
  0x1bc1	dec    	eax
  0x1bc2	and    	dword ptr [ebp + 0x18], 0
  === BLOCK LINK ===
    0x1bc6
=== CODE BLOCK END ===

=== CODE BLOCK ADDRESS 0x1bc6 ===
  0x1bc6	dec    	eax
  0x1bc7	mov    	ebx, 0x2ddfa232
  0x1bcc	cdq    	
  0x1bcd	sub    	eax, dword ptr [eax]
  0x1bcf	add    	byte ptr [eax - 0x75], cl
  === BLOCK LINK ===
    0x1bd2
=== CODE BLOCK END ===

=== CODE BLOCK ADDRESS 0x1bd2 ===
  0x1bd2	add    	eax, 0x2431
  0x1bd7	dec    	eax
  0x1bd8	cmp    	eax, ebx
  0x1bda	jne    	0x1c73
  === BLOCK LINK ===
    0x1be0
=== CODE BLOCK END ===

=== CODE BLOCK ADDRESS 0x1be0 ===
  0x1be0	dec    	eax
  0x1be1	lea    	ecx, [ebp + 0x18]
  0x1be4	call   	dword ptr [0x1636]
  === BLOCK LINK ===
    0x1bea
=== CODE BLOCK END ===

=== CODE BLOCK ADDRESS 0x1bea ===
  0x1bea	dec    	eax
  0x1beb	mov    	eax, dword ptr [ebp + 0x18]
  0x1bee	dec    	eax
  0x1bef	mov    	dword ptr [ebp + 0x10], eax
  0x1bf2	call   	dword ptr [0x1618]
  === BLOCK LINK ===
    0x1bf8
=== CODE BLOCK END ===

=== CODE BLOCK ADDRESS 0x1bf8 ===
  0x1bf8	mov    	eax, eax
  0x1bfa	dec    	eax
  0x1bfb	xor    	dword ptr [ebp + 0x10], eax
  0x1bfe	call   	dword ptr [0x1614]
  === BLOCK LINK ===
    0x1c04
=== CODE BLOCK END ===

=== CODE BLOCK ADDRESS 0x1c04 ===
  0x1c04	mov    	eax, eax
  0x1c06	dec    	eax
  0x1c07	xor    	dword ptr [ebp + 0x10], eax
  0x1c0a	call   	dword ptr [0x15c8]
  === BLOCK LINK ===
    0x1c10
=== CODE BLOCK END ===

=== CODE BLOCK ADDRESS 0x1c10 ===
  0x1c10	mov    	eax, eax
  0x1c12	dec    	eax
  0x1c13	shl    	eax, 0x18
  0x1c16	dec    	eax
  0x1c17	xor    	dword ptr [ebp + 0x10], eax
  === BLOCK LINK ===
    0x1c1a
=== CODE BLOCK END ===

=== CODE BLOCK ADDRESS 0x1c1a ===
  0x1c1a	call   	dword ptr [0x15b8]
  === BLOCK LINK ===
    0x1c20
=== CODE BLOCK END ===

=== CODE BLOCK ADDRESS 0x1c20 ===
  0x1c20	mov    	eax, eax
  0x1c22	dec    	eax
  0x1c23	lea    	ecx, [ebp + 0x10]
  0x1c26	dec    	eax
  0x1c27	xor    	eax, dword ptr [ebp + 0x10]
  === BLOCK LINK ===
    0x1c2a
=== CODE BLOCK END ===

=== CODE BLOCK ADDRESS 0x1c2a ===
  0x1c2a	dec    	eax
  0x1c2b	xor    	eax, ecx
  0x1c2d	dec    	eax
  0x1c2e	lea    	ecx, [ebp + 0x20]
  0x1c31	dec    	eax
  === BLOCK LINK ===
    0x1c32
=== CODE BLOCK END ===

=== CODE BLOCK ADDRESS 0x1c32 ===
  0x1c32	mov    	dword ptr [ebp + 0x10], eax
  0x1c35	call   	dword ptr [0x15cd]
  === BLOCK LINK ===
    0x1c3b
=== CODE BLOCK END ===

=== CODE BLOCK ADDRESS 0x1c3b ===
  0x1c3b	mov    	eax, dword ptr [ebp + 0x20]
  0x1c3e	dec    	eax
  0x1c3f	mov    	ecx, 0xffffffff
  0x1c44	.byte  	0xff
  0x1c45	inc    	dword ptr [eax]
  === BLOCK LINK ===
    0x1c47
=== CODE BLOCK END ===

=== CODE BLOCK ADDRESS 0x1c47 ===
  0x1c47	add    	byte ptr [eax - 0x3f], cl
  0x1c4a	loopne  	0x1c6c
  === BLOCK LINK ===
    0x1c4c
=== CODE BLOCK END ===

=== CODE BLOCK ADDRESS 0x1c4c ===
  0x1c4c	dec    	eax
  0x1c4d	xor    	eax, dword ptr [ebp + 0x20]
  0x1c50	dec    	eax
  0x1c51	xor    	eax, dword ptr [ebp + 0x10]
  0x1c54	dec    	eax
  === BLOCK LINK ===
    0x1c55
=== CODE BLOCK END ===

=== CODE BLOCK ADDRESS 0x1c55 ===
  0x1c55	and    	eax, ecx
  0x1c57	dec    	eax
  0x1c58	mov    	ecx, eax
  0x1c5a	dec    	eax
  0x1c5b	cmp    	eax, ebx
  === BLOCK LINK ===
    0x1c5d
=== CODE BLOCK END ===

=== CODE BLOCK ADDRESS 0x1c5d ===
  0x1c5d	jne    	0x1c6c
  === BLOCK LINK ===
    0x1c5f
=== CODE BLOCK END ===

=== CODE BLOCK ADDRESS 0x1c5f ===
  0x1c5f	dec    	eax
  0x1c60	mov    	eax, 0x2ddfa233
  0x1c65	cdq    	
  0x1c66	sub    	eax, dword ptr [eax]
  0x1c68	add    	byte ptr [eax - 0x75], cl
  === BLOCK LINK ===
    0x1c6b
=== CODE BLOCK END ===

=== CODE BLOCK ADDRESS 0x1c6b ===
  0x1c6b	enter  	-0x76b8, 0xd
  0x1c6f	xchg   	eax, ebp
  0x1c70	and    	eax, dword ptr [eax]
  0x1c72	add    	byte ptr [eax - 0x75], cl
  0x1c75	pop    	esp
  === BLOCK LINK ===
    0x1c76
=== CODE BLOCK END ===

=== CODE BLOCK ADDRESS 0x1c76 ===
  0x1c76	and    	al, 0x48
  0x1c78	dec    	eax
  0x1c79	not    	eax
  0x1c7b	dec    	eax
  0x1c7c	mov    	dword ptr [0x238e], eax
  === BLOCK LINK ===
    0x1c82
=== CODE BLOCK END ===

=== CODE BLOCK ADDRESS 0x1c82 ===
  0x1c82	dec    	eax
  0x1c83	add    	esp, 0x20
  0x1c86	pop    	ebp
  0x1c87	ret    	
  0x1c88	int3   	
  === BLOCK LINK ===
    0x1c89
=== CODE BLOCK END ===

=== CODE BLOCK ADDRESS 0x1c89 ===
  0x1c89	int3   	
  0x1c8a	int3   	
  0x1c8b	int3   	
  0x1c8c	int3   	
  0x1c8d	int3   	
  === BLOCK LINK ===
    0x1c8e
=== CODE BLOCK END ===

=== CODE BLOCK ADDRESS 0x1c8e ===
  0x1c8e	jmp    	dword ptr [0x15b4]
  === BLOCK LINK ===
    0x1c94
=== CODE BLOCK END ===

=== CODE BLOCK ADDRESS 0x1c94 ===
  0x1c94	int3   	
  0x1c95	int3   	
  0x1c96	int3   	
  0x1c97	int3   	
  0x1c98	int3   	
  === BLOCK LINK ===
    0x1c99
=== CODE BLOCK END ===

=== CODE BLOCK ADDRESS 0x1c99 ===
  0x1c99	int3   	
  0x1c9a	int3   	
  0x1c9b	int3   	
  0x1c9c	int3   	
  0x1c9d	int3   	
  === BLOCK LINK ===
    0x1c9e
=== CODE BLOCK END ===

=== CODE BLOCK ADDRESS 0x1c9e ===
  0x1c9e	int3   	
  0x1c9f	int3   	
  0x1ca0	ret    	0
  0x1ca3	int3   	
  0x1ca4	int3   	
  === BLOCK LINK ===
    0x1ca5
=== CODE BLOCK END ===

=== CODE BLOCK ADDRESS 0x1970 ===
=== CODE BLOCK END ===

=== CODE BLOCK ADDRESS 0x1ca5 ===
  0x1ca5	int3   	
  0x1ca6	int3   	
  0x1ca7	int3   	
  0x1ca8	int3   	
  0x1ca9	int3   	
  === BLOCK LINK ===
    0x1caa
=== CODE BLOCK END ===

=== CODE BLOCK ADDRESS 0x1caa ===
  0x1caa	int3   	
  0x1cab	int3   	
  0x1cac	inc    	eax
  0x1cad	push   	ebx
  0x1cae	dec    	eax
  === BLOCK LINK ===
    0x1caf
=== CODE BLOCK END ===

=== CODE BLOCK ADDRESS 0x1caf ===
  0x1caf	sub    	esp, 0x20
  0x1cb2	dec    	eax
  0x1cb3	mov    	ebx, ecx
  0x1cb5	xor    	ecx, ecx
  0x1cb7	call   	dword ptr [0x153b]
  === BLOCK LINK ===
    0x1cbd
=== CODE BLOCK END ===

=== CODE BLOCK ADDRESS 0x1cbd ===
  0x1cbd	dec    	eax
  0x1cbe	mov    	ecx, ebx
  0x1cc0	call   	dword ptr [0x14f2]
  === BLOCK LINK ===
    0x1cc6
=== CODE BLOCK END ===

=== CODE BLOCK ADDRESS 0x1cc6 ===
  0x1cc6	call   	dword ptr [0x14e4]
  === BLOCK LINK ===
    0x1ccc
=== CODE BLOCK END ===

=== CODE BLOCK ADDRESS 0x1ccc ===
  0x1ccc	dec    	eax
  0x1ccd	mov    	ecx, eax
  0x1ccf	mov    	edx, 0xc0000409
  0x1cd4	dec    	eax
  0x1cd5	add    	esp, 0x20
  === BLOCK LINK ===
    0x1cd8
=== CODE BLOCK END ===

=== CODE BLOCK ADDRESS 0x1cd8 ===
  0x1cd8	pop    	ebx
  0x1cd9	dec    	eax
  0x1cda	jmp    	dword ptr [0x14c8]
  === BLOCK LINK ===
    0x1ce0
=== CODE BLOCK END ===

=== CODE BLOCK ADDRESS 0x1ce0 ===
  0x1ce0	int3   	
  0x1ce1	int3   	
  0x1ce2	int3   	
  0x1ce3	int3   	
  0x1ce4	int3   	
  === BLOCK LINK ===
    0x1ce5
=== CODE BLOCK END ===

=== CODE BLOCK ADDRESS 0x1ce5 ===
  0x1ce5	int3   	
  0x1ce6	int3   	
  0x1ce7	int3   	
  0x1ce8	int3   	
  0x1ce9	int3   	
  === BLOCK LINK ===
    0x1cea
=== CODE BLOCK END ===

=== CODE BLOCK ADDRESS 0x1cea ===
  0x1cea	int3   	
  0x1ceb	int3   	
  0x1cec	int3   	
  0x1ced	int3   	
  0x1cee	int3   	
  === BLOCK LINK ===
    0x1cef
=== CODE BLOCK END ===

=== CODE BLOCK ADDRESS 0x1cef ===
  0x1cef	int3   	
  0x1cf0	dec    	eax
  0x1cf1	mov    	dword ptr [esp + 8], ecx
  0x1cf5	dec    	eax
  0x1cf6	sub    	esp, 0x88
  === BLOCK LINK ===
    0x1cfc
=== CODE BLOCK END ===

=== CODE BLOCK ADDRESS 0x1cfc ===
  0x1cfc	dec    	eax
  0x1cfd	lea    	ecx, [0x23fd]
  0x1d03	call   	dword ptr [0x14c7]
  === BLOCK LINK ===
    0x1d09
=== CODE BLOCK END ===

=== CODE BLOCK ADDRESS 0x1d09 ===
  0x1d09	dec    	eax
  0x1d0a	mov    	eax, dword ptr [0x24e8]
  0x1d10	dec    	eax
  0x1d11	mov    	dword ptr [esp + 0x48], eax
  0x1d15	inc    	ebp
  === BLOCK LINK ===
    0x1d16
=== CODE BLOCK END ===

=== CODE BLOCK ADDRESS 0x1d16 ===
  0x1d16	xor    	eax, eax
  0x1d18	dec    	eax
  0x1d19	lea    	edx, [esp + 0x50]
  0x1d1d	dec    	eax
  0x1d1e	mov    	ecx, dword ptr [esp + 0x48]
  === BLOCK LINK ===
    0x1d22
=== CODE BLOCK END ===

=== CODE BLOCK ADDRESS 0x1d22 ===
  0x1d22	call   	dword ptr [0x14a0]
  === BLOCK LINK ===
    0x1d28
=== CODE BLOCK END ===

=== CODE BLOCK ADDRESS 0x1d28 ===
  0x1d28	dec    	eax
  0x1d29	mov    	dword ptr [esp + 0x40], eax
  0x1d2d	dec    	eax
  0x1d2e	cmp    	dword ptr [esp + 0x40], 0
  0x1d33	je     	0x1d77
  === BLOCK LINK ===
    0x1d35
=== CODE BLOCK END ===

=== CODE BLOCK ADDRESS 0x1d35 ===
  0x1d35	dec    	eax
  0x1d36	mov    	dword ptr [esp + 0x38], 0
  0x1d3e	dec    	eax
  0x1d3f	lea    	eax, [esp + 0x58]
  0x1d43	dec    	eax
  === BLOCK LINK ===
    0x1d44
=== CODE BLOCK END ===

=== CODE BLOCK ADDRESS 0x1d44 ===
  0x1d44	mov    	dword ptr [esp + 0x30], eax
  0x1d48	dec    	eax
  0x1d49	lea    	eax, [esp + 0x60]
  0x1d4d	dec    	eax
  0x1d4e	mov    	dword ptr [esp + 0x28], eax
  === BLOCK LINK ===
    0x1d52
=== CODE BLOCK END ===

=== CODE BLOCK ADDRESS 0x1d52 ===
  0x1d52	dec    	eax
  0x1d53	lea    	eax, [0x23a7]
  0x1d59	dec    	eax
  0x1d5a	mov    	dword ptr [esp + 0x20], eax
  0x1d5e	dec    	esp
  === BLOCK LINK ===
    0x1d5f
=== CODE BLOCK END ===

=== CODE BLOCK ADDRESS 0x1d5f ===
  0x1d5f	mov    	ecx, dword ptr [esp + 0x40]
  0x1d63	dec    	esp
  0x1d64	mov    	eax, dword ptr [esp + 0x48]
  0x1d68	dec    	eax
  0x1d69	mov    	edx, dword ptr [esp + 0x50]
  === BLOCK LINK ===
    0x1d6d
=== CODE BLOCK END ===

=== CODE BLOCK ADDRESS 0x1d6d ===
  0x1d6d	xor    	ecx, ecx
  0x1d6f	call   	dword ptr [0x144b]
  === BLOCK LINK ===
    0x1d75
=== CODE BLOCK END ===

=== CODE BLOCK ADDRESS 0x1d75 ===
  0x1d75	jmp    	0x1d9a
  === BLOCK LINK ===
    0x1d77
=== CODE BLOCK END ===

=== CODE BLOCK ADDRESS 0x1d77 ===
  0x1d77	dec    	eax
  0x1d78	mov    	eax, dword ptr [0x241a]
  0x1d7e	dec    	eax
  0x1d7f	mov    	eax, dword ptr [eax]
  0x1d81	dec    	eax
  === BLOCK LINK ===
    0x1d82
=== CODE BLOCK END ===

=== CODE BLOCK ADDRESS 0x1d82 ===
  0x1d82	mov    	dword ptr [0x2470], eax
  0x1d88	dec    	eax
  0x1d89	mov    	eax, dword ptr [0x2409]
  0x1d8f	dec    	eax
  0x1d90	add    	eax, 8
  === BLOCK LINK ===
    0x1d93
=== CODE BLOCK END ===

=== CODE BLOCK ADDRESS 0x1d93 ===
  0x1d93	dec    	eax
  0x1d94	mov    	dword ptr [0x23fe], eax
  0x1d9a	dec    	eax
  0x1d9b	mov    	eax, dword ptr [0x2457]
  0x1da1	dec    	eax
  === BLOCK LINK ===
    0x1da2
=== CODE BLOCK END ===

=== CODE BLOCK ADDRESS 0x1da2 ===
  0x1da2	mov    	dword ptr [0x22c8], eax
  0x1da8	dec    	eax
  0x1da9	mov    	eax, dword ptr [esp + 0x90]
  0x1db0	dec    	eax
  0x1db1	mov    	dword ptr [0x23c9], eax
  === BLOCK LINK ===
    0x1db7
=== CODE BLOCK END ===

=== CODE BLOCK ADDRESS 0x1db7 ===
  0x1db7	mov    	dword ptr [0x229f], 0xc0000409
  0x1dc1	mov    	dword ptr [0x2299], 1
  0x1dcb	mov    	dword ptr [0x22a3], 3
  0x1dd5	mov    	eax, 8
  0x1dda	dec    	eax
  === BLOCK LINK ===
    0x1ddb
=== CODE BLOCK END ===

=== CODE BLOCK ADDRESS 0x1ddb ===
  0x1ddb	imul   	eax, eax, 0
  0x1dde	dec    	eax
  0x1ddf	lea    	ecx, [0x229b]
  0x1de5	dec    	eax
  0x1de6	mov    	dword ptr [ecx + eax], 2
  === BLOCK LINK ===
    0x1ded
=== CODE BLOCK END ===

=== CODE BLOCK ADDRESS 0x1ded ===
  0x1ded	mov    	eax, 8
  0x1df2	dec    	eax
  0x1df3	imul   	eax, eax, 1
  0x1df6	dec    	eax
  0x1df7	lea    	ecx, [0x2283]
  === BLOCK LINK ===
    0x1dfd
=== CODE BLOCK END ===

=== CODE BLOCK ADDRESS 0x1dfd ===
  0x1dfd	dec    	eax
  0x1dfe	mov    	edx, dword ptr [0x2204]
  0x1e04	dec    	eax
  0x1e05	mov    	dword ptr [ecx + eax], edx
  0x1e08	mov    	eax, 8
  === BLOCK LINK ===
    0x1e0d
=== CODE BLOCK END ===

=== CODE BLOCK ADDRESS 0x1e0d ===
  0x1e0d	dec    	eax
  0x1e0e	imul   	eax, eax, 2
  0x1e11	dec    	eax
  0x1e12	lea    	ecx, [0x2268]
  0x1e18	dec    	eax
  === BLOCK LINK ===
    0x1e19
=== CODE BLOCK END ===

=== CODE BLOCK ADDRESS 0x1e19 ===
  0x1e19	mov    	edx, dword ptr [0x21f1]
  0x1e1f	dec    	eax
  0x1e20	mov    	dword ptr [ecx + eax], edx
  0x1e23	mov    	eax, 8
  0x1e28	dec    	eax
  === BLOCK LINK ===
    0x1e29
=== CODE BLOCK END ===

=== CODE BLOCK ADDRESS 0x1e29 ===
  0x1e29	imul   	eax, eax, 0
  0x1e2c	dec    	eax
  0x1e2d	mov    	ecx, dword ptr [0x21d5]
  0x1e33	dec    	eax
  0x1e34	mov    	dword ptr [esp + eax + 0x68], ecx
  === BLOCK LINK ===
    0x1e38
=== CODE BLOCK END ===

=== CODE BLOCK ADDRESS 0x1e38 ===
  0x1e38	mov    	eax, 8
  0x1e3d	dec    	eax
  0x1e3e	imul   	eax, eax, 1
  0x1e41	dec    	eax
  0x1e42	mov    	ecx, dword ptr [0x21c8]
  === BLOCK LINK ===
    0x1e48
=== CODE BLOCK END ===

=== CODE BLOCK ADDRESS 0x1e48 ===
  0x1e48	dec    	eax
  0x1e49	mov    	dword ptr [esp + eax + 0x68], ecx
  0x1e4d	dec    	eax
  0x1e4e	lea    	ecx, [0x11ac]
  0x1e54	call   	0x1cac
  === BLOCK LINK ===
    0x1e59
=== CODE BLOCK END ===

=== CODE BLOCK ADDRESS 0x1e59 ===
  0x1e59	dec    	eax
  0x1e5a	add    	esp, 0x88
  0x1e60	ret    	
  0x1e61	int3   	
  0x1e62	int3   	
  === BLOCK LINK ===
    0x1e63
=== CODE BLOCK END ===

=== CODE BLOCK ADDRESS 0x1186 ===
  0x1186	dec    	eax
  0x1187	mov    	ecx, dword ptr [esp + 0x240]
  0x118e	dec    	eax
  === BLOCK LINK ===
    0x118f
=== CODE BLOCK END ===

=== CODE BLOCK ADDRESS 0x1e63 ===
  0x1e63	int3   	
  0x1e64	int3   	
  0x1e65	int3   	
  0x1e66	int3   	
  0x1e67	int3   	
  === BLOCK LINK ===
    0x1e68
=== CODE BLOCK END ===

=== CODE BLOCK ADDRESS 0x1e68 ===
  0x1e68	int3   	
  0x1e69	int3   	
  0x1e6a	int3   	
  0x1e6b	int3   	
  0x1e6c	int3   	
  === BLOCK LINK ===
    0x1e6d
=== CODE BLOCK END ===

=== CODE BLOCK ADDRESS 0x1e6d ===
  0x1e6d	int3   	
  0x1e6e	int3   	
  0x1e6f	int3   	
  0x1e70	int3   	
  0x1e71	int3   	
  === BLOCK LINK ===
    0x1e72
=== CODE BLOCK END ===

=== CODE BLOCK ADDRESS 0x1e72 ===
  0x1e72	int3   	
  0x1e73	int3   	
  0x1e74	int3   	
  0x1e75	int3   	
  0x1e76	dec    	eax
  === BLOCK LINK ===
    0x1e77
=== CODE BLOCK END ===

=== CODE BLOCK ADDRESS 0x1e77 ===
  0x1e77	lea    	eax, [0x4193]
  0x1e7d	jmp    	0x1e82
  === BLOCK LINK ===
    0x1e82
=== CODE BLOCK END ===

=== CODE BLOCK ADDRESS 0x1e82 ===
  0x1e82	dec    	eax
  0x1e83	mov    	dword ptr [esp + 8], ecx
  0x1e87	dec    	eax
  0x1e88	mov    	dword ptr [esp + 0x10], edx
  0x1e8c	dec    	esp
  === BLOCK LINK ===
    0x1e8d
=== CODE BLOCK END ===

=== CODE BLOCK ADDRESS 0x1e8d ===
  0x1e8d	mov    	dword ptr [esp + 0x18], eax
  0x1e91	dec    	esp
  0x1e92	mov    	dword ptr [esp + 0x20], ecx
  0x1e96	dec    	eax
  0x1e97	sub    	esp, 0x68
  === BLOCK LINK ===
    0x1e9a
=== CODE BLOCK END ===

=== CODE BLOCK ADDRESS 0x1e9a ===
  0x1e9a	movdqa  	xmmword ptr [esp + 0x20], xmm0
  0x1ea0	movdqa  	xmmword ptr [esp + 0x30], xmm1
  0x1ea6	movdqa  	xmmword ptr [esp + 0x40], xmm2
  0x1eac	movdqa  	xmmword ptr [esp + 0x50], xmm3
  0x1eb2	dec    	eax
  === BLOCK LINK ===
    0x1eb3
=== CODE BLOCK END ===

=== CODE BLOCK ADDRESS 0x1eb3 ===
  0x1eb3	mov    	edx, eax
  0x1eb5	dec    	eax
  0x1eb6	lea    	ecx, [0x1a28]
  0x1ebc	call   	0x15f0
  === BLOCK LINK ===
    0x1ec1
=== CODE BLOCK END ===

=== CODE BLOCK ADDRESS 0x1ec1 ===
  0x1ec1	movdqa  	xmm0, xmmword ptr [esp + 0x20]
  0x1ec7	movdqa  	xmm1, xmmword ptr [esp + 0x30]
  0x1ecd	movdqa  	xmm2, xmmword ptr [esp + 0x40]
  0x1ed3	movdqa  	xmm3, xmmword ptr [esp + 0x50]
  0x1ed9	dec    	eax
  === BLOCK LINK ===
    0x1eda
=== CODE BLOCK END ===

=== CODE BLOCK ADDRESS 0x1eda ===
  0x1eda	mov    	ecx, dword ptr [esp + 0x70]
  0x1ede	dec    	eax
  0x1edf	mov    	edx, dword ptr [esp + 0x78]
  0x1ee3	dec    	esp
  0x1ee4	mov    	eax, dword ptr [esp + 0x80]
  === BLOCK LINK ===
    0x1eeb
=== CODE BLOCK END ===

=== CODE BLOCK ADDRESS 0x1eeb ===
  0x1eeb	dec    	esp
  0x1eec	mov    	ecx, dword ptr [esp + 0x88]
  0x1ef3	dec    	eax
  0x1ef4	add    	esp, 0x68
  0x1ef7	jmp    	0x1ef9
  === BLOCK LINK ===
    0x1ef9
=== CODE BLOCK END ===

=== CODE BLOCK ADDRESS 0x1ef9 ===
  0x1ef9	jmp    	eax
  === BLOCK LINK ===
    0x1efb
=== CODE BLOCK END ===

=== CODE BLOCK ADDRESS 0x1efb ===
  0x1efb	int3   	
  0x1efc	int3   	
  0x1efd	int3   	
  0x1efe	int3   	
  0x1eff	int3   	
  === BLOCK LINK ===
    0x1f00
=== CODE BLOCK END ===

=== CODE BLOCK ADDRESS 0x1f00 ===
  0x1f00	int3   	
  0x1f01	dec    	eax
  0x1f02	lea    	eax, [0x4120]
  0x1f08	jmp    	0x1f0d
  === BLOCK LINK ===
    0x1f0d
=== CODE BLOCK END ===

=== CODE BLOCK ADDRESS 0x1f0d ===
  0x1f0d	dec    	eax
  0x1f0e	mov    	dword ptr [esp + 8], ecx
  0x1f12	dec    	eax
  0x1f13	mov    	dword ptr [esp + 0x10], edx
  0x1f17	dec    	esp
  === BLOCK LINK ===
    0x1f18
=== CODE BLOCK END ===

=== CODE BLOCK ADDRESS 0x1f18 ===
  0x1f18	mov    	dword ptr [esp + 0x18], eax
  0x1f1c	dec    	esp
  0x1f1d	mov    	dword ptr [esp + 0x20], ecx
  0x1f21	dec    	eax
  0x1f22	sub    	esp, 0x68
  === BLOCK LINK ===
    0x1f25
=== CODE BLOCK END ===

=== CODE BLOCK ADDRESS 0x1f25 ===
  0x1f25	movdqa  	xmmword ptr [esp + 0x20], xmm0
  0x1f2b	movdqa  	xmmword ptr [esp + 0x30], xmm1
  0x1f31	movdqa  	xmmword ptr [esp + 0x40], xmm2
  0x1f37	movdqa  	xmmword ptr [esp + 0x50], xmm3
  0x1f3d	dec    	eax
  === BLOCK LINK ===
    0x1f3e
=== CODE BLOCK END ===

=== CODE BLOCK ADDRESS 0x1f3e ===
  0x1f3e	mov    	edx, eax
  0x1f40	dec    	eax
  0x1f41	lea    	ecx, [0x19bd]
  0x1f47	call   	0x15f0
  === BLOCK LINK ===
    0x1f4c
=== CODE BLOCK END ===

=== CODE BLOCK ADDRESS 0x1f4c ===
  0x1f4c	movdqa  	xmm0, xmmword ptr [esp + 0x20]
  0x1f52	movdqa  	xmm1, xmmword ptr [esp + 0x30]
  0x1f58	movdqa  	xmm2, xmmword ptr [esp + 0x40]
  0x1f5e	movdqa  	xmm3, xmmword ptr [esp + 0x50]
  0x1f64	dec    	eax
  === BLOCK LINK ===
    0x1f65
=== CODE BLOCK END ===

=== CODE BLOCK ADDRESS 0x1f65 ===
  0x1f65	mov    	ecx, dword ptr [esp + 0x70]
  0x1f69	dec    	eax
  0x1f6a	mov    	edx, dword ptr [esp + 0x78]
  0x1f6e	dec    	esp
  0x1f6f	mov    	eax, dword ptr [esp + 0x80]
  === BLOCK LINK ===
    0x1f76
=== CODE BLOCK END ===

=== CODE BLOCK ADDRESS 0x1f76 ===
  0x1f76	dec    	esp
  0x1f77	mov    	ecx, dword ptr [esp + 0x88]
  0x1f7e	dec    	eax
  0x1f7f	add    	esp, 0x68
  0x1f82	jmp    	0x1f84
  === BLOCK LINK ===
    0x1f84
=== CODE BLOCK END ===

=== CODE BLOCK ADDRESS 0x1f84 ===
  0x1f84	jmp    	eax
  === BLOCK LINK ===
    0x1f86
=== CODE BLOCK END ===

=== CODE BLOCK ADDRESS 0x1f86 ===
  0x1f86	int3   	
  0x1f87	int3   	
  0x1f88	int3   	
  0x1f89	int3   	
  0x1f8a	int3   	
  === BLOCK LINK ===
    0x1f8b
=== CODE BLOCK END ===

=== CODE BLOCK ADDRESS 0x1f8b ===
  0x1f8b	int3   	
  0x1f8c	dec    	eax
  0x1f8d	lea    	eax, [0x408d]
  0x1f93	jmp    	0x1f0d
  === BLOCK LINK ===
    0x1f98
=== CODE BLOCK END ===

=== CODE BLOCK ADDRESS 0x1f98 ===
  0x1f98	int3   	
  0x1f99	int3   	
  0x1f9a	int3   	
  0x1f9b	int3   	
  0x1f9c	int3   	
  === BLOCK LINK ===
    0x1f9d
=== CODE BLOCK END ===

=== CODE BLOCK ADDRESS 0x1f9d ===
  0x1f9d	int3   	
  0x1f9e	dec    	eax
  0x1f9f	lea    	eax, [0x405b]
  0x1fa5	jmp    	0x1faa
  === BLOCK LINK ===
    0x1faa
=== CODE BLOCK END ===

=== CODE BLOCK ADDRESS 0x1faa ===
  0x1faa	dec    	eax
  0x1fab	mov    	dword ptr [esp + 8], ecx
  0x1faf	dec    	eax
  0x1fb0	mov    	dword ptr [esp + 0x10], edx
  0x1fb4	dec    	esp
  === BLOCK LINK ===
    0x1fb5
=== CODE BLOCK END ===

=== CODE BLOCK ADDRESS 0x1fb5 ===
  0x1fb5	mov    	dword ptr [esp + 0x18], eax
  0x1fb9	dec    	esp
  0x1fba	mov    	dword ptr [esp + 0x20], ecx
  0x1fbe	dec    	eax
  0x1fbf	sub    	esp, 0x68
  === BLOCK LINK ===
    0x1fc2
=== CODE BLOCK END ===

=== CODE BLOCK ADDRESS 0x1fc2 ===
  0x1fc2	movdqa  	xmmword ptr [esp + 0x20], xmm0
  0x1fc8	movdqa  	xmmword ptr [esp + 0x30], xmm1
  0x1fce	movdqa  	xmmword ptr [esp + 0x40], xmm2
  0x1fd4	movdqa  	xmmword ptr [esp + 0x50], xmm3
  0x1fda	dec    	eax
  === BLOCK LINK ===
    0x1fdb
=== CODE BLOCK END ===

=== CODE BLOCK ADDRESS 0x1fdb ===
  0x1fdb	mov    	edx, eax
  0x1fdd	dec    	eax
  0x1fde	lea    	ecx, [0x1940]
  0x1fe4	call   	0x15f0
  === BLOCK LINK ===
    0x1fe9
=== CODE BLOCK END ===

=== CODE BLOCK ADDRESS 0x1fe9 ===
  0x1fe9	movdqa  	xmm0, xmmword ptr [esp + 0x20]
  0x1fef	movdqa  	xmm1, xmmword ptr [esp + 0x30]
  0x1ff5	movdqa  	xmm2, xmmword ptr [esp + 0x40]
  0x1ffb	movdqa  	xmm3, xmmword ptr [esp + 0x50]
  0x2001	dec    	eax
  === BLOCK LINK ===
    0x2002
=== CODE BLOCK END ===

=== CODE BLOCK ADDRESS 0x2002 ===
  0x2002	mov    	ecx, dword ptr [esp + 0x70]
  0x2006	dec    	eax
  0x2007	mov    	edx, dword ptr [esp + 0x78]
  0x200b	dec    	esp
  0x200c	mov    	eax, dword ptr [esp + 0x80]
  === BLOCK LINK ===
    0x2013
=== CODE BLOCK END ===

=== CODE BLOCK ADDRESS 0x2013 ===
  0x2013	dec    	esp
  0x2014	mov    	ecx, dword ptr [esp + 0x88]
  0x201b	dec    	eax
  0x201c	add    	esp, 0x68
  0x201f	jmp    	0x2021
  === BLOCK LINK ===
    0x2021
=== CODE BLOCK END ===

=== CODE BLOCK ADDRESS 0x2021 ===
  0x2021	jmp    	eax
  === BLOCK LINK ===
    0x2023
=== CODE BLOCK END ===

=== CODE BLOCK ADDRESS 0x2023 ===
  0x2023	int3   	
  0x2024	int3   	
  0x2025	int3   	
  0x2026	int3   	
  0x2027	int3   	
  === BLOCK LINK ===
    0x2028
=== CODE BLOCK END ===

=== CODE BLOCK ADDRESS 0x2028 ===
  0x2028	int3   	
  0x2029	int3   	
  0x202a	int3   	
  0x202b	int3   	
  0x202c	dec    	eax
  === BLOCK LINK ===
    0x202d
=== CODE BLOCK END ===

=== CODE BLOCK ADDRESS 0x202d ===
  0x202d	sub    	esp, 0x28
  0x2030	dec    	ebp
  0x2031	mov    	eax, dword ptr [ecx + 0x38]
  0x2034	dec    	eax
  0x2035	mov    	ecx, edx
  === BLOCK LINK ===
    0x2037
=== CODE BLOCK END ===

=== CODE BLOCK ADDRESS 0x2037 ===
  0x2037	dec    	ecx
  0x2038	mov    	edx, ecx
  0x203a	call   	0x2050
  === BLOCK LINK ===
    0x203f
=== CODE BLOCK END ===

=== CODE BLOCK ADDRESS 0x203f ===
  0x203f	mov    	eax, 1
  0x2044	dec    	eax
  0x2045	add    	esp, 0x28
  0x2048	ret    	
  0x2049	int3   	
  === BLOCK LINK ===
    0x204a
=== CODE BLOCK END ===

=== CODE BLOCK ADDRESS 0x204a ===
  0x204a	int3   	
  0x204b	int3   	
  0x204c	int3   	
  0x204d	int3   	
  0x204e	int3   	
  === BLOCK LINK ===
    0x204f
=== CODE BLOCK END ===

=== CODE BLOCK ADDRESS 0x204f ===
  0x204f	int3   	
  0x2050	inc    	eax
  0x2051	push   	ebx
  0x2052	inc    	ebp
  0x2053	mov    	ebx, dword ptr [eax]
  === BLOCK LINK ===
    0x2055
=== CODE BLOCK END ===

=== CODE BLOCK ADDRESS 0x2055 ===
  0x2055	dec    	eax
  0x2056	mov    	ebx, edx
  0x2058	inc    	ecx
  0x2059	and    	ebx, 0xfffffff8
  0x205c	dec    	esp
  === BLOCK LINK ===
    0x205d
=== CODE BLOCK END ===

=== CODE BLOCK ADDRESS 0x205d ===
  0x205d	mov    	ecx, ecx
  0x205f	inc    	ecx
  0x2060	test   	byte ptr [eax], 4
  0x2063	dec    	esp
  0x2064	mov    	edx, ecx
  === BLOCK LINK ===
    0x2066
=== CODE BLOCK END ===

=== CODE BLOCK ADDRESS 0x2066 ===
  0x2066	je     	0x207b
  === BLOCK LINK ===
    0x2068
=== CODE BLOCK END ===

=== CODE BLOCK ADDRESS 0x2068 ===
  0x2068	inc    	ecx
  0x2069	mov    	eax, dword ptr [eax + 8]
  0x206c	dec    	ebp
  0x206d	arpl   	word ptr [eax + 4], dx
  0x2070	neg    	eax
  === BLOCK LINK ===
    0x2072
=== CODE BLOCK END ===

=== CODE BLOCK ADDRESS 0x2072 ===
  0x2072	dec    	esp
  0x2073	add    	edx, ecx
  0x2075	dec    	eax
  0x2076	arpl   	ax, cx
  0x2078	dec    	esp
  === BLOCK LINK ===
    0x2079
=== CODE BLOCK END ===

=== CODE BLOCK ADDRESS 0x2079 ===
  0x2079	and    	edx, ecx
  0x207b	dec    	ecx
  0x207c	arpl   	bx, ax
  0x207e	dec    	edx
  0x207f	mov    	edx, dword ptr [eax + edx]
  === BLOCK LINK ===
    0x2082
=== CODE BLOCK END ===

=== CODE BLOCK ADDRESS 0x2082 ===
  0x2082	dec    	eax
  0x2083	mov    	eax, dword ptr [ebx + 0x10]
  0x2086	mov    	ecx, dword ptr [eax + 8]
  0x2089	dec    	eax
  0x208a	mov    	eax, dword ptr [ebx + 8]
  === BLOCK LINK ===
    0x208d
=== CODE BLOCK END ===

=== CODE BLOCK ADDRESS 0x208d ===
  0x208d	test   	byte ptr [ecx + eax + 3], 0xf
  0x2092	je     	0x209f
  === BLOCK LINK ===
    0x2094
=== CODE BLOCK END ===

=== CODE BLOCK ADDRESS 0x2094 ===
  0x2094	movzx  	eax, byte ptr [ecx + eax + 3]
  0x2099	and    	eax, 0xfffffff0
  0x209c	dec    	esp
  0x209d	add    	ecx, eax
  0x209f	dec    	esp
  === BLOCK LINK ===
    0x20a0
=== CODE BLOCK END ===

=== CODE BLOCK ADDRESS 0x20a0 ===
  0x20a0	xor    	ecx, edx
  0x20a2	dec    	ecx
  0x20a3	mov    	ecx, ecx
  0x20a5	pop    	ebx
  0x20a6	jmp    	0x1970
  === BLOCK LINK ===
    0x20ab
=== CODE BLOCK END ===

=== CODE BLOCK ADDRESS 0x20ab ===
  0x20ab	int3   	
  0x20ac	int3   	
  0x20ad	int3   	
  0x20ae	int3   	
  0x20af	int3   	
  === BLOCK LINK ===
    0x20b0
=== CODE BLOCK END ===

=== CODE BLOCK ADDRESS 0x20b0 ===
  0x20b0	int3   	
  0x20b1	int3   	
  0x20b2	int3   	
  0x20b3	int3   	
  0x20b4	dec    	eax
  === BLOCK LINK ===
    0x20b5
=== CODE BLOCK END ===

=== CODE BLOCK ADDRESS 0x20b5 ===
  0x20b5	mov    	eax, esp
  0x20b7	dec    	eax
  0x20b8	mov    	dword ptr [eax + 8], ebx
  0x20bb	dec    	eax
  0x20bc	mov    	dword ptr [eax + 0x10], ebp
  === BLOCK LINK ===
    0x20bf
=== CODE BLOCK END ===

=== CODE BLOCK ADDRESS 0x20bf ===
  0x20bf	dec    	eax
  0x20c0	mov    	dword ptr [eax + 0x18], esi
  0x20c3	dec    	eax
  0x20c4	mov    	dword ptr [eax + 0x20], edi
  0x20c7	inc    	ecx
  === BLOCK LINK ===
    0x20c8
=== CODE BLOCK END ===

=== CODE BLOCK ADDRESS 0x20c8 ===
  0x20c8	push   	esi
  0x20c9	dec    	eax
  0x20ca	sub    	esp, 0x20
  0x20cd	dec    	ebp
  0x20ce	mov    	edx, dword ptr [ecx + 0x38]
  === BLOCK LINK ===
    0x20d1
=== CODE BLOCK END ===

=== CODE BLOCK ADDRESS 0x20d1 ===
  0x20d1	dec    	eax
  0x20d2	mov    	esi, edx
  0x20d4	dec    	ebp
  0x20d5	mov    	esi, eax
  0x20d7	dec    	eax
  === BLOCK LINK ===
    0x20d8
=== CODE BLOCK END ===

=== CODE BLOCK ADDRESS 0x20d8 ===
  0x20d8	mov    	ebp, ecx
  0x20da	dec    	ecx
  0x20db	mov    	edx, ecx
  0x20dd	dec    	eax
  0x20de	mov    	ecx, esi
  === BLOCK LINK ===
    0x20e0
=== CODE BLOCK END ===

=== CODE BLOCK ADDRESS 0x20e0 ===
  0x20e0	dec    	ecx
  0x20e1	mov    	edi, ecx
  0x20e3	inc    	ecx
  0x20e4	mov    	ebx, dword ptr [edx]
  0x20e6	dec    	eax
  === BLOCK LINK ===
    0x20e7
=== CODE BLOCK END ===

=== CODE BLOCK ADDRESS 0x20e7 ===
  0x20e7	shl    	ebx, 4
  0x20ea	dec    	ecx
  0x20eb	add    	ebx, edx
  0x20ed	dec    	esp
  0x20ee	lea    	eax, [ebx + 4]
  === BLOCK LINK ===
    0x20f1
=== CODE BLOCK END ===

=== CODE BLOCK ADDRESS 0x20f1 ===
  0x20f1	call   	0x2050
  === BLOCK LINK ===
    0x20f6
=== CODE BLOCK END ===

=== CODE BLOCK ADDRESS 0x20f6 ===
  0x20f6	mov    	eax, dword ptr [ebp + 4]
  0x20f9	and    	al, 0x66
  0x20fb	neg    	al
  0x20fd	mov    	eax, 1
  0x2102	sbb    	edx, edx
  === BLOCK LINK ===
    0x2104
=== CODE BLOCK END ===

=== CODE BLOCK ADDRESS 0x2104 ===
  0x2104	neg    	edx
  0x2106	add    	edx, eax
  0x2108	test   	dword ptr [ebx + 4], edx
  0x210b	je     	0x211f
  === BLOCK LINK ===
    0x210d
=== CODE BLOCK END ===

=== CODE BLOCK ADDRESS 0x210d ===
  0x210d	dec    	esp
  0x210e	mov    	ecx, edi
  0x2110	dec    	ebp
  0x2111	mov    	eax, esi
  0x2113	dec    	eax
  === BLOCK LINK ===
    0x2114
=== CODE BLOCK END ===

=== CODE BLOCK ADDRESS 0x2114 ===
  0x2114	mov    	edx, esi
  0x2116	dec    	eax
  0x2117	mov    	ecx, ebp
  0x2119	call   	dword ptr [0x1179]
  === BLOCK LINK ===
    0x211f
=== CODE BLOCK END ===

=== CODE BLOCK ADDRESS 0x211f ===
  0x211f	dec    	eax
  0x2120	mov    	ebx, dword ptr [esp + 0x30]
  0x2124	dec    	eax
  0x2125	mov    	ebp, dword ptr [esp + 0x38]
  0x2129	dec    	eax
  === BLOCK LINK ===
    0x212a
=== CODE BLOCK END ===

=== CODE BLOCK ADDRESS 0x212a ===
  0x212a	mov    	esi, dword ptr [esp + 0x40]
  0x212e	dec    	eax
  0x212f	mov    	edi, dword ptr [esp + 0x48]
  0x2133	dec    	eax
  0x2134	add    	esp, 0x20
  === BLOCK LINK ===
    0x2137
=== CODE BLOCK END ===

=== CODE BLOCK ADDRESS 0x2137 ===
  0x2137	inc    	ecx
  0x2138	pop    	esi
  0x2139	ret    	
  0x213a	int3   	
  0x213b	int3   	
  === BLOCK LINK ===
    0x213c
=== CODE BLOCK END ===

=== CODE BLOCK ADDRESS 0x213c ===
  0x213c	int3   	
  0x213d	int3   	
  0x213e	int3   	
  0x213f	int3   	
  0x2140	jmp    	dword ptr [0x1112]
  === BLOCK LINK ===
    0x2146
=== CODE BLOCK END ===

=== CODE BLOCK ADDRESS 0x2146 ===
  0x2146	int3   	
  0x2147	int3   	
  0x2148	int3   	
  0x2149	int3   	
  0x214a	int3   	
  === BLOCK LINK ===
    0x214b
=== CODE BLOCK END ===

=== CODE BLOCK ADDRESS 0x214b ===
  0x214b	int3   	
  0x214c	int3   	
  0x214d	int3   	
  0x214e	int3   	
  0x214f	int3   	
  === BLOCK LINK ===
    0x2150
=== CODE BLOCK END ===

=== CODE BLOCK ADDRESS 0x2150 ===
  0x2150	int3   	
  0x2151	int3   	
  0x2152	int3   	
  0x2153	int3   	
  0x2154	int3   	
  === BLOCK LINK ===
    0x2155
=== CODE BLOCK END ===

=== CODE BLOCK ADDRESS 0x2155 ===
  0x2155	int3   	
  0x2156	nop    	word ptr [eax + eax]
  0x2160	jmp    	eax
  === BLOCK LINK ===
    0x2162
=== CODE BLOCK END ===

=== CODE BLOCK ADDRESS 0x2162 ===
  0x2162	int3   	
  0x2163	int3   	
  0x2164	int3   	
  0x2165	int3   	
  0x2166	int3   	
  === BLOCK LINK ===
    0x2167
=== CODE BLOCK END ===

=== CODE BLOCK ADDRESS 0x2167 ===
  0x2167	int3   	
  0x2168	int3   	
  0x2169	int3   	
  0x216a	int3   	
  0x216b	int3   	
  === BLOCK LINK ===
    0x216c
=== CODE BLOCK END ===

=== CODE BLOCK ADDRESS 0x216c ===
  0x216c	int3   	
  0x216d	int3   	
  0x216e	int3   	
  0x216f	int3   	
  0x2170	inc    	eax
  === BLOCK LINK ===
    0x2171
=== CODE BLOCK END ===

=== CODE BLOCK ADDRESS 0x2171 ===
  0x2171	push   	ebp
  0x2172	dec    	eax
  0x2173	sub    	esp, 0x20
  0x2176	dec    	eax
  0x2177	mov    	ebp, edx
  === BLOCK LINK ===
    0x2179
=== CODE BLOCK END ===

=== CODE BLOCK ADDRESS 0x2179 ===
  0x2179	dec    	eax
  0x217a	mov    	ecx, dword ptr [ebp + 0x20]
  0x217d	dec    	eax
  0x217e	test   	ecx, ecx
  0x2180	je     	0x218f
  === BLOCK LINK ===
    0x2182
=== CODE BLOCK END ===

=== CODE BLOCK ADDRESS 0x2182 ===
  0x2182	dec    	eax
  0x2183	call   	dword ptr [0xff7]
  === BLOCK LINK ===
    0x2189
=== CODE BLOCK END ===

=== CODE BLOCK ADDRESS 0x2189 ===
  0x2189	nop    	dword ptr [eax + eax]
  0x218e	nop    	
  0x218f	dec    	eax
  0x2190	add    	esp, 0x20
  0x2193	pop    	ebp
  === BLOCK LINK ===
    0x2194
=== CODE BLOCK END ===

=== CODE BLOCK ADDRESS 0x2194 ===
  0x2194	ret    	
  0x2195	int3   	
  0x2196	int3   	
  0x2197	int3   	
  0x2198	int3   	
  === BLOCK LINK ===
    0x2199
=== CODE BLOCK END ===

=== CODE BLOCK ADDRESS 0x2199 ===
  0x2199	int3   	
  0x219a	int3   	
  0x219b	int3   	
  0x219c	inc    	eax
  0x219d	push   	ebp
  === BLOCK LINK ===
    0x219e
=== CODE BLOCK END ===

=== CODE BLOCK ADDRESS 0x219e ===
  0x219e	dec    	eax
  0x219f	sub    	esp, 0x20
  0x21a2	dec    	eax
  0x21a3	mov    	ebp, edx
  0x21a5	dec    	eax
  === BLOCK LINK ===
    0x21a6
=== CODE BLOCK END ===

=== CODE BLOCK ADDRESS 0x21a6 ===
  0x21a6	mov    	eax, dword ptr [ecx]
  0x21a8	dec    	eax
  0x21a9	mov    	edx, ecx
  0x21ab	mov    	ecx, dword ptr [eax]
  0x21ad	call   	0x19fe
  === BLOCK LINK ===
    0x21b2
=== CODE BLOCK END ===

=== CODE BLOCK ADDRESS 0x21b2 ===
  0x21b2	nop    	
  0x21b3	dec    	eax
  0x21b4	add    	esp, 0x20
  0x21b7	pop    	ebp
  0x21b8	ret    	
  === BLOCK LINK ===
    0x21b9
=== CODE BLOCK END ===

=== CODE BLOCK ADDRESS 0x12b8 ===
  0x12b8	dec    	eax
  0x12b9	mov    	ecx, edi
  0x12bb	dec    	eax
  === BLOCK LINK ===
    0x12bc
=== CODE BLOCK END ===

=== CODE BLOCK ADDRESS 0x21b9 ===
  0x21b9	int3   	
  0x21ba	int3   	
  0x21bb	int3   	
  0x21bc	int3   	
  0x21bd	int3   	
  === BLOCK LINK ===
    0x21be
=== CODE BLOCK END ===

=== CODE BLOCK ADDRESS 0x21be ===
  0x21be	int3   	
  0x21bf	int3   	
  0x21c0	inc    	eax
  0x21c1	push   	ebp
  0x21c2	dec    	eax
  === BLOCK LINK ===
    0x21c3
=== CODE BLOCK END ===

=== CODE BLOCK ADDRESS 0x21c3 ===
  0x21c3	sub    	esp, 0x20
  0x21c6	dec    	eax
  0x21c7	mov    	ebp, edx
  0x21c9	dec    	eax
  0x21ca	mov    	eax, dword ptr [ecx]
  === BLOCK LINK ===
    0x21cc
=== CODE BLOCK END ===

=== CODE BLOCK ADDRESS 0x21cc ===
  0x21cc	xor    	ecx, ecx
  0x21ce	cmp    	dword ptr [eax], 0xc0000005
  0x21d4	sete   	cl
  0x21d7	mov    	eax, ecx
  0x21d9	dec    	eax
  === BLOCK LINK ===
    0x21da
=== CODE BLOCK END ===

=== CODE BLOCK ADDRESS 0x21da ===
  0x21da	add    	esp, 0x20
  0x21dd	pop    	ebp
  0x21de	ret    	
  0x21df	int3   	
  0x21e0	add    	byte ptr [eax], al
  === BLOCK LINK ===
    0x21e2
=== CODE BLOCK END ===

=== CODE BLOCK ADDRESS 0x21e2 ===
  0x21e2	add    	byte ptr [eax], al
  0x21e4	add    	byte ptr [eax], al
  0x21e6	add    	byte ptr [eax], al
  0x21e8	add    	byte ptr [eax], al
  0x21ea	add    	byte ptr [eax], al
  === BLOCK LINK ===
    0x21ec
=== CODE BLOCK END ===

=== CODE BLOCK ADDRESS 0x21ec ===
  0x21ec	add    	byte ptr [eax], al
  0x21ee	add    	byte ptr [eax], al
  0x21f0	add    	byte ptr [eax], al
  0x21f2	add    	byte ptr [eax], al
  0x21f4	add    	byte ptr [eax], al
  === BLOCK LINK ===
    0x21f6
=== CODE BLOCK END ===

=== CODE BLOCK ADDRESS 0x21f6 ===
  0x21f6	add    	byte ptr [eax], al
  0x21f8	add    	byte ptr [eax], al
  0x21fa	add    	byte ptr [eax], al
  0x21fc	add    	byte ptr [eax], al
=== CODE BLOCK END ===

=== DATA BLOCK ADDRESS 0x3000 ===
  0x3000	60 40 00 40 01 00 00 00 00 41 00 40 01 00 00 00 	`@0@00000A0@0000
  0x3010	18 01 00 00 00 00 00 00 00 00 00 00 00 00 00 00 	0000000000000000
  0x3020	00 00 00 00 00 00 00 00 00 00 00 00 00 00 00 00 	0000000000000000
  0x3030	00 00 00 00 00 00 00 00 00 00 00 00 00 00 00 00 	0000000000000000
  0x3040	00 00 00 00 00 00 00 00 00 00 00 00 00 00 00 00 	0000000000000000
  0x3050	00 00 00 00 00 00 00 00 00 00 00 00 00 00 00 00 	0000000000000000
  0x3060	00 00 00 00 00 00 00 00 08 40 00 40 01 00 00 00 	000000000@0@0000
  0x3070	00 00 00 00 00 00 00 00 00 00 00 00 00 00 00 00 	0000000000000000
  0x3080	b0 32 00 40 01 00 00 00 b8 32 00 40 01 00 00 00 	020@0000020@0000
  0x3090	f8 32 00 40 01 00 00 00 09 00 00 00 00 00 00 00 	020@000000000000
  0x30a0	00 75 01 00 00 00 00 00 00 00 00 00 00 00 00 00 	0u00000000000000
  0x30b0	1c 33 00 40 01 00 00 00 01 00 00 00 00 00 00 00 	030@000000000000
  0x30c0	00 00 00 00 00 00 00 00 00 00 00 00 00 00 00 00 	0000000000000000
  0x30d0	00 00 00 00 00 00 00 00 00 00 00 00 00 00 00 00 	0000000000000000
  0x30e0	00 00 00 00 00 00 00 00 00 00 00 00 00 00 00 00 	0000000000000000
  0x30f0	00 00 00 00 00 00 00 00 00 00 00 00 00 00 00 00 	0000000000000000
  0x3100	00 00 00 00 00 00 00 00 00 00 00 00 00 00 00 00 	0000000000000000
  0x3110	00 00 00 00 00 00 00 00 00 00 00 00 00 00 00 00 	0000000000000000
  0x3120	00 00 00 00 00 00 00 00 54 3d 00 00 00 00 00 00 	00000000T=000000
  0x3130	68 3d 00 00 00 00 00 00 00 00 00 00 00 00 00 00 	h=00000000000000
  0x3140	66 3f 00 00 00 00 00 00 14 3f 00 00 00 00 00 00 	f?0000000?000000
  0x3150	9a 3f 00 00 00 00 00 00 7c 3f 00 00 00 00 00 00 	0?000000|?000000
  0x3160	fc 3e 00 00 00 00 00 00 4a 3f 00 00 00 00 00 00 	0>000000J?000000
  0x3170	2c 3f 00 00 00 00 00 00 00 00 00 00 00 00 00 00 	,?00000000000000
  0x3180	62 3c 00 00 00 00 00 00 56 3c 00 00 00 00 00 00 	b<000000V<000000
  0x3190	e4 3e 00 00 00 00 00 00 cc 3e 00 00 00 00 00 00 	0>0000000>000000
  0x31a0	b4 3e 00 00 00 00 00 00 a0 3e 00 00 00 00 00 00 	0>0000000>000000
  0x31b0	8c 3e 00 00 00 00 00 00 70 3e 00 00 00 00 00 00 	0>000000p>000000
  0x31c0	5c 3e 00 00 00 00 00 00 42 3e 00 00 00 00 00 00 	0>000000B>000000
  0x31d0	2e 3e 00 00 00 00 00 00 1e 3e 00 00 00 00 00 00 	.>0000000>000000
  0x31e0	46 3c 00 00 00 00 00 00 38 3c 00 00 00 00 00 00 	F<0000008<000000
  0x31f0	84 3d 00 00 00 00 00 00 8c 3d 00 00 00 00 00 00 	0=0000000=000000
  0x3200	aa 3d 00 00 00 00 00 00 be 3d 00 00 00 00 00 00 	0=0000000=000000
  0x3210	d8 3d 00 00 00 00 00 00 ee 3d 00 00 00 00 00 00 	0=0000000=000000
  0x3220	04 3e 00 00 00 00 00 00 00 00 00 00 00 00 00 00 	0>00000000000000
  0x3230	40 3d 00 00 00 00 00 00 28 3d 00 00 00 00 00 00 	@=000000(=000000
  0x3240	1e 3d 00 00 00 00 00 00 12 3d 00 00 00 00 00 00 	0=0000000=000000
  0x3250	fe 3c 00 00 00 00 00 00 bc 3f 00 00 00 00 00 00 	0<0000000?000000
  0x3260	ec 3c 00 00 00 00 00 00 e4 3c 00 00 00 00 00 00 	0<0000000<000000
  0x3270	d2 3c 00 00 00 00 00 00 c0 3c 00 00 00 00 00 00 	0<0000000<000000
  0x3280	b2 3c 00 00 00 00 00 00 a4 3c 00 00 00 00 00 00 	0<0000000<000000
  0x3290	96 3c 00 00 00 00 00 00 7e 3c 00 00 00 00 00 00 	0<000000~<000000
  0x32a0	f4 3c 00 00 00 00 00 00 00 00 00 00 00 00 00 00 	0<00000000000000
  0x32b0	a0 1c 00 40 01 00 00 00 60 21 00 40 01 00 00 00 	000@0000`!0@0000
  0x32c0	00 00 00 00 00 00 00 00 20 17 00 40 01 00 00 00 	00000000 00@0000
  0x32d0	00 00 00 00 00 00 00 00 00 00 00 00 00 00 00 00 	0000000000000000
  0x32e0	40 16 00 40 01 00 00 00 e0 19 00 40 01 00 00 00 	@00@0000000@0000
  0x32f0	00 00 00 00 00 00 00 00 f0 15 00 00 40 16 00 00 	000000000000@000
  0x3300	20 17 00 00 40 19 00 00 a0 19 00 00 e0 19 00 00 	 000@00000000000
  0x3310	c0 1a 00 00 a0 1c 00 00 f0 1c 00 00 90 31 00 00 	0000000000000100
  0x3320	65 78 74 2d 6d 73 2d 77 69 6e 2d 73 65 74 75 70 	ext-ms-win-setup
  0x3330	61 70 69 2d 63 6c 61 73 73 69 6e 73 74 61 6c 6c 	api-classinstall
  0x3340	65 72 73 2d 6c 31 2d 31 2d 30 2e 64 6c 6c 00 00 	ers-l1-1-0.dll00
  0x3350	65 78 74 2d 6d 73 2d 77 69 6e 2d 73 65 74 75 70 	ext-ms-win-setup
  0x3360	61 70 69 2d 63 6c 61 73 73 69 6e 73 74 61 6c 6c 	api-classinstall
  0x3370	65 72 73 2d 6c 31 2d 31 2d 31 2e 64 6c 6c 00 00 	ers-l1-1-1.dll00
  0x3380	65 78 74 2d 6d 73 2d 77 69 6e 2d 6e 65 77 64 65 	ext-ms-win-newde
  0x3390	76 2d 63 6f 6e 66 69 67 2d 6c 31 2d 31 2d 30 2e 	v-config-l1-1-0.
  0x33a0	64 6c 6c 00 00 00 00 00 62 00 74 00 68 00 65 00 	dll00000b0t0h0e0
  0x33b0	6e 00 75 00 6d 00 00 00 42 00 54 00 48 00 4c 00 	n0u0m000B0T0H0L0
  0x33c0	45 00 44 00 65 00 76 00 69 00 63 00 65 00 00 00 	E0D0e0v0i0c0e000
  0x33d0	42 00 54 00 48 00 4c 00 45 00 00 00 00 00 00 00 	B0T0H0L0E0000000
  0x33e0	47 00 6c 00 6f 00 62 00 61 00 6c 00 5c 00 42 00 	G0l0o0b0a0l000B0
  0x33f0	54 00 48 00 5f 00 55 00 4e 00 49 00 4e 00 53 00 	T0H0_0U0N0I0N0S0
  0x3400	54 00 41 00 4c 00 4c 00 5f 00 44 00 45 00 56 00 	T0A0L0L0_0D0E0V0
  0x3410	49 00 43 00 45 00 5f 00 25 00 73 00 00 00 00 00 	I0C0E0_0%0s00000
  0x3420	42 00 6c 00 75 00 65 00 74 00 6f 00 6f 00 74 00 	B0l0u0e0t0o0o0t0
  0x3430	68 00 5f 00 55 00 6e 00 69 00 71 00 75 00 65 00 	h0_0U0n0i0q0u0e0
  0x3440	49 00 44 00 00 00 00 00 00 00 00 00 00 00 00 00 	I0D0000000000000
  0x3450	00 00 00 00 00 00 00 00 00 00 00 00 00 00 00 00 	0000000000000000
  0x3460	00 00 00 00 76 d9 bf 8e 00 00 00 00 02 00 00 00 	0000v00000000000
  0x3470	26 00 00 00 b4 34 00 00 b4 1a 00 00 00 00 00 00 	&000040000000000
  0x3480	76 d9 bf 8e 00 00 00 00 0d 00 00 00 78 02 00 00 	v00000000000x000
  0x3490	dc 34 00 00 dc 1a 00 00 00 00 00 00 76 d9 bf 8e 	040000000000v000
  0x34a0	00 00 00 00 10 00 00 00 24 00 00 00 54 37 00 00 	00000000$000T700
  0x34b0	54 1d 00 00 52 53 44 53 52 91 2b 56 16 d9 b0 c0 	T000RSDSR0+V0000
  0x34c0	54 55 7d ef 0a cc ac ec 01 00 00 00 42 74 68 55 	TU}000000000BthU
  0x34d0	64 54 61 73 6b 2e 70 64 62 00 00 00 47 43 54 4c 	dTask.pdb000GCTL
  0x34e0	00 10 00 00 50 11 00 00 2e 74 65 78 74 24 6d 6e 	0000P000.text$mn
  0x34f0	00 00 00 00 50 21 00 00 20 00 00 00 2e 74 65 78 	0000P!00 000.tex
  0x3500	74 24 6d 6e 24 30 30 00 70 21 00 00 70 00 00 00 	t$mn$000p!00p000
  0x3510	2e 74 65 78 74 24 78 00 00 30 00 00 28 01 00 00 	.text$x00000(000
  0x3520	2e 72 64 61 74 61 24 62 72 63 00 00 28 31 00 00 	.rdata$brc00(100
  0x3530	88 01 00 00 2e 69 64 61 74 61 24 35 00 00 00 00 	0000.idata$50000
  0x3540	b0 32 00 00 10 00 00 00 2e 30 30 63 66 67 00 00 	02000000.00cfg00
  0x3550	c0 32 00 00 08 00 00 00 2e 43 52 54 24 58 43 41 	02000000.CRT$XCA
  0x3560	00 00 00 00 c8 32 00 00 08 00 00 00 2e 43 52 54 	000002000000.CRT
  0x3570	24 58 43 41 41 00 00 00 d0 32 00 00 08 00 00 00 	$XCAA00002000000
  0x3580	2e 43 52 54 24 58 43 5a 00 00 00 00 d8 32 00 00 	.CRT$XCZ00000200
  0x3590	08 00 00 00 2e 43 52 54 24 58 49 41 00 00 00 00 	0000.CRT$XIA0000
  0x35a0	e0 32 00 00 08 00 00 00 2e 43 52 54 24 58 49 41 	02000000.CRT$XIA
  0x35b0	41 00 00 00 e8 32 00 00 08 00 00 00 2e 43 52 54 	A00002000000.CRT
  0x35c0	24 58 49 59 00 00 00 00 f0 32 00 00 08 00 00 00 	$XIY000002000000
  0x35d0	2e 43 52 54 24 58 49 5a 00 00 00 00 f8 32 00 00 	.CRT$XIZ00000200
  0x35e0	24 00 00 00 2e 67 66 69 64 73 00 00 1c 33 00 00 	$000.gfids000300
  0x35f0	04 00 00 00 2e 67 69 61 74 73 00 00 20 33 00 00 	0000.giats00 300
  0x3600	94 01 00 00 2e 72 64 61 74 61 00 00 b4 34 00 00 	0000.rdata000400
  0x3610	c4 02 00 00 2e 72 64 61 74 61 24 7a 7a 7a 64 62 	0000.rdata$zzzdb
  0x3620	67 00 00 00 78 37 00 00 6c 01 00 00 2e 78 64 61 	g000x700l000.xda
  0x3630	74 61 00 00 e4 38 00 00 60 00 00 00 2e 64 69 64 	ta000800`000.did
  0x3640	61 74 24 32 00 00 00 00 44 39 00 00 24 00 00 00 	at$20000D900$000
  0x3650	2e 64 69 64 61 74 24 33 00 00 00 00 68 39 00 00 	.didat$30000h900
  0x3660	38 00 00 00 2e 64 69 64 61 74 24 34 00 00 00 00 	8000.didat$40000
  0x3670	a0 39 00 00 70 00 00 00 2e 64 69 64 61 74 24 36 	0900p000.didat$6
  0x3680	00 00 00 00 10 3a 00 00 38 00 00 00 2e 64 69 64 	00000:008000.did
  0x3690	61 74 24 37 00 00 00 00 48 3a 00 00 50 00 00 00 	at$70000H:00P000
  0x36a0	2e 69 64 61 74 61 24 32 00 00 00 00 98 3a 00 00 	.idata$200000:00
  0x36b0	18 00 00 00 2e 69 64 61 74 61 24 33 00 00 00 00 	0000.idata$30000
  0x36c0	b0 3a 00 00 88 01 00 00 2e 69 64 61 74 61 24 34 	0:000000.idata$4
  0x36d0	00 00 00 00 38 3c 00 00 8e 03 00 00 2e 69 64 61 	00008<000000.ida
  0x36e0	74 61 24 36 00 00 00 00 00 40 00 00 20 00 00 00 	ta$600000@00 000
  0x36f0	2e 64 61 74 61 00 00 00 20 40 00 00 70 06 00 00 	.data000 @00p000
  0x3700	2e 62 73 73 00 00 00 00 00 50 00 00 50 01 00 00 	.bss00000P00P000
  0x3710	2e 70 64 61 74 61 00 00 00 60 00 00 38 00 00 00 	.pdata000`008000
  0x3720	2e 64 69 64 61 74 24 35 00 00 00 00 00 70 00 00 	.didat$500000p00
  0x3730	70 03 00 00 2e 72 73 72 63 24 30 31 00 00 00 00 	p000.rsrc$010000
  0x3740	70 73 00 00 f8 6b 00 00 2e 72 73 72 63 24 30 32 	ps000k00.rsrc$02
  0x3750	00 00 00 00 20 00 00 00 52 91 2b 56 16 d9 b0 c0 	0000 000R0+V0000
  0x3760	54 55 7d ef 0a cc ac ec 00 1b 7a 65 e1 9c 0a d4 	TU}0000000ze0000
  0x3770	cf 8f 9d 06 76 d9 bf 8e 01 12 05 00 12 42 0e 70 	0000v00000000B0p
  0x3780	0d 60 0c 50 0b 30 00 00 19 1f 05 00 0d 34 4c 00 	0`0P0000000004L0
  0x3790	0d 01 4a 00 06 70 00 00 b4 20 00 00 01 00 00 00 	00J00p000 000000
  0x37a0	12 11 00 00 70 11 00 00 70 21 00 00 00 00 00 00 	0000p000p!000000
  0x37b0	42 02 00 00 01 06 02 00 06 32 02 50 19 25 09 00 	B0000000020P0%00
  0x37c0	13 34 58 00 13 01 50 00 0c e0 0a c0 08 70 07 60 	04X000P000000p0`
  0x37d0	06 50 00 00 2c 20 00 00 70 02 00 00 19 2c 0b 00 	0P00, 00p0000,00
  0x37e0	1e 64 29 00 1e 34 28 00 1e 01 20 00 12 f0 10 e0 	0d)004(000 00000
  0x37f0	0e c0 0c 70 0b 50 00 00 2c 20 00 00 f0 00 00 00 	000p0P00, 000000
  0x3800	01 04 01 00 04 62 00 00 01 04 01 00 04 42 00 00 	00000b0000000B00
  0x3810	09 15 08 00 15 74 0a 00 15 64 09 00 15 34 08 00 	00000t000d000400
  0x3820	15 52 11 f0 58 19 00 00 01 00 00 00 85 17 00 00 	0R00X00000000000
  0x3830	eb 18 00 00 9c 21 00 00 eb 18 00 00 00 00 00 00 	00000!0000000000
  0x3840	01 00 00 00 09 04 01 00 04 22 00 00 58 19 00 00 	000000000"00X000
  0x3850	01 00 00 00 1c 1a 00 00 52 1a 00 00 01 00 00 00 	00000000R0000000
  0x3860	52 1a 00 00 01 06 02 00 06 32 02 30 09 0a 04 00 	R000000002000000
  0x3870	0a 34 06 00 0a 32 06 70 58 19 00 00 01 00 00 00 	0400020pX0000000
  0x3880	2d 1b 00 00 60 1b 00 00 c0 21 00 00 60 1b 00 00 	-000`0000!00`000
  0x3890	01 0d 04 00 0d 34 09 00 0d 32 06 50 01 0c 02 00 	00000400020P0000
  0x38a0	0c 01 11 00 00 00 00 00 01 00 00 00 01 18 01 00 	0000000000000000
  0x38b0	18 c2 00 00 01 18 01 00 18 c2 00 00 01 18 01 00 	0000000000000000
  0x38c0	18 c2 00 00 01 02 01 00 02 30 00 00 01 19 0a 00 	0000000000000000
  0x38d0	19 74 09 00 19 64 08 00 19 54 07 00 19 34 06 00 	0t000d000T000400
  0x38e0	19 32 15 e0 01 00 00 00 20 33 00 00 d0 45 00 00 	02000000 3000E00
  0x38f0	10 60 00 00 78 39 00 00 10 3a 00 00 00 00 00 00 	0`00x9000:000000
  0x3900	00 00 00 00 01 00 00 00 50 33 00 00 d8 45 00 00 	00000000P3000E00
  0x3910	20 60 00 00 88 39 00 00 20 3a 00 00 00 00 00 00 	 `000900 :000000
  0x3920	00 00 00 00 01 00 00 00 80 33 00 00 e0 45 00 00 	0000000003000E00
  0x3930	00 60 00 00 68 39 00 00 38 3a 00 00 00 00 00 00 	0`00h9008:000000
  0x3940	00 00 00 00 00 00 00 00 00 00 00 00 00 00 00 00 	0000000000000000
  0x3950	00 00 00 00 00 00 00 00 00 00 00 00 00 00 00 00 	0000000000000000
  0x3960	00 00 00 00 00 00 00 00 f8 39 00 00 00 00 00 00 	0000000009000000
  0x3970	00 00 00 00 00 00 00 00 a0 39 00 00 00 00 00 00 	0000000009000000
  0x3980	00 00 00 00 00 00 00 00 de 39 00 00 00 00 00 00 	0000000009000000
  0x3990	c0 39 00 00 00 00 00 00 00 00 00 00 00 00 00 00 	0900000000000000
  0x39a0	07 00 53 65 74 75 70 44 69 44 65 73 74 72 6f 79 	00SetupDiDestroy
  0x39b0	44 65 76 69 63 65 49 6e 66 6f 4c 69 73 74 00 00 	DeviceInfoList00
  0x39c0	05 00 53 65 74 75 70 44 69 43 72 65 61 74 65 44 	00SetupDiCreateD
  0x39d0	65 76 69 63 65 49 6e 66 6f 4c 69 73 74 00 1b 00 	eviceInfoList000
  0x39e0	53 65 74 75 70 44 69 4f 70 65 6e 44 65 76 69 63 	SetupDiOpenDevic
  0x39f0	65 49 6e 66 6f 57 00 00 03 00 44 69 55 6e 69 6e 	eInfoW0000DiUnin
  0x3a00	73 74 61 6c 6c 44 65 76 69 63 65 00 00 00 00 00 	stallDevice00000
  0x3a10	00 00 00 00 00 00 00 00 00 00 00 00 00 00 00 00 	0000000000000000
  0x3a20	00 00 00 00 00 00 00 00 00 00 00 00 00 00 00 00 	0000000000000000
  0x3a30	00 00 00 00 00 00 00 00 00 00 00 00 00 00 00 00 	0000000000000000
  0x3a40	00 00 00 00 00 00 00 00 08 3b 00 00 00 00 00 00 	000000000;000000
  0x3a50	00 00 00 00 70 3c 00 00 80 31 00 00 b8 3b 00 00 	0000p<0001000;00
  0x3a60	00 00 00 00 00 00 00 00 34 3d 00 00 30 32 00 00 	000000004=000200
  0x3a70	b0 3a 00 00 00 00 00 00 00 00 00 00 76 3d 00 00 	0:0000000000v=00
  0x3a80	28 31 00 00 c8 3a 00 00 00 00 00 00 00 00 00 00 	(1000:0000000000
  0x3a90	b0 3f 00 00 40 31 00 00 00 00 00 00 00 00 00 00 	0?00@10000000000
  0x3aa0	00 00 00 00 00 00 00 00 00 00 00 00 00 00 00 00 	0000000000000000
  0x3ab0	54 3d 00 00 00 00 00 00 68 3d 00 00 00 00 00 00 	T=000000h=000000
  0x3ac0	00 00 00 00 00 00 00 00 66 3f 00 00 00 00 00 00 	00000000f?000000
  0x3ad0	14 3f 00 00 00 00 00 00 9a 3f 00 00 00 00 00 00 	0?0000000?000000
  0x3ae0	7c 3f 00 00 00 00 00 00 fc 3e 00 00 00 00 00 00 	|?0000000>000000
  0x3af0	4a 3f 00 00 00 00 00 00 2c 3f 00 00 00 00 00 00 	J?000000,?000000
  0x3b00	00 00 00 00 00 00 00 00 62 3c 00 00 00 00 00 00 	00000000b<000000
  0x3b10	56 3c 00 00 00 00 00 00 e4 3e 00 00 00 00 00 00 	V<0000000>000000
  0x3b20	cc 3e 00 00 00 00 00 00 b4 3e 00 00 00 00 00 00 	0>0000000>000000
  0x3b30	a0 3e 00 00 00 00 00 00 8c 3e 00 00 00 00 00 00 	0>0000000>000000
  0x3b40	70 3e 00 00 00 00 00 00 5c 3e 00 00 00 00 00 00 	p>0000000>000000
  0x3b50	42 3e 00 00 00 00 00 00 2e 3e 00 00 00 00 00 00 	B>000000.>000000
  0x3b60	1e 3e 00 00 00 00 00 00 46 3c 00 00 00 00 00 00 	0>000000F<000000
  0x3b70	38 3c 00 00 00 00 00 00 84 3d 00 00 00 00 00 00 	8<0000000=000000
  0x3b80	8c 3d 00 00 00 00 00 00 aa 3d 00 00 00 00 00 00 	0=0000000=000000
  0x3b90	be 3d 00 00 00 00 00 00 d8 3d 00 00 00 00 00 00 	0=0000000=000000
  0x3ba0	ee 3d 00 00 00 00 00 00 04 3e 00 00 00 00 00 00 	0=0000000>000000
  0x3bb0	00 00 00 00 00 00 00 00 40 3d 00 00 00 00 00 00 	00000000@=000000
  0x3bc0	28 3d 00 00 00 00 00 00 1e 3d 00 00 00 00 00 00 	(=0000000=000000
  0x3bd0	12 3d 00 00 00 00 00 00 fe 3c 00 00 00 00 00 00 	0=0000000<000000
  0x3be0	bc 3f 00 00 00 00 00 00 ec 3c 00 00 00 00 00 00 	0?0000000<000000
  0x3bf0	e4 3c 00 00 00 00 00 00 d2 3c 00 00 00 00 00 00 	0<0000000<000000
  0x3c00	c0 3c 00 00 00 00 00 00 b2 3c 00 00 00 00 00 00 	0<0000000<000000
  0x3c10	a4 3c 00 00 00 00 00 00 96 3c 00 00 00 00 00 00 	0<0000000<000000
  0x3c20	7e 3c 00 00 00 00 00 00 f4 3c 00 00 00 00 00 00 	~<0000000<000000
  0x3c30	00 00 00 00 00 00 00 00 05 04 4f 70 65 6e 45 76 	0000000000OpenEv
  0x3c40	65 6e 74 57 00 00 69 02 47 65 74 4c 61 73 74 45 	entW00i0GetLastE
  0x3c50	72 72 6f 72 00 00 25 05 53 65 74 45 76 65 6e 74 	rror00%0SetEvent
  0x3c60	00 00 88 00 43 6c 6f 73 65 48 61 6e 64 6c 65 00 	0000CloseHandle0
  0x3c70	4b 45 52 4e 45 4c 33 32 2e 64 6c 6c 00 00 57 00 	KERNEL32.dll00W0
  0x3c80	5f 5f 43 5f 73 70 65 63 69 66 69 63 5f 68 61 6e 	__C_specific_han
  0x3c90	64 6c 65 72 00 00 69 03 5f 76 73 6e 77 70 72 69 	dler00i0_vsnwpri
  0x3ca0	6e 74 66 00 55 00 5f 58 63 70 74 46 69 6c 74 65 	ntf0U0_XcptFilte
  0x3cb0	72 00 ae 00 5f 61 6d 73 67 5f 65 78 69 74 00 00 	r000_amsg_exit00
  0x3cc0	9d 00 5f 5f 77 67 65 74 6d 61 69 6e 61 72 67 73 	00__wgetmainargs
  0x3cd0	00 00 8e 00 5f 5f 73 65 74 5f 61 70 70 5f 74 79 	0000__set_app_ty
  0x3ce0	70 65 00 00 32 04 65 78 69 74 00 00 0e 01 5f 65 	pe0020exit0000_e
  0x3cf0	78 69 74 00 c1 00 5f 63 65 78 69 74 00 00 90 00 	xit000_cexit0000
  0x3d00	5f 5f 73 65 74 75 73 65 72 6d 61 74 68 65 72 72 	__setusermatherr
  0x3d10	00 00 7d 01 5f 69 6e 69 74 74 65 72 6d 00 27 01 	00}0_initterm0'0
  0x3d20	5f 66 6d 6f 64 65 00 00 d2 00 5f 63 6f 6d 6d 6f 	_fmode0000_commo
  0x3d30	64 65 00 00 6d 73 76 63 72 74 2e 64 6c 6c 00 00 	de00msvcrt.dll00
  0x3d40	2f 00 3f 74 65 72 6d 69 6e 61 74 65 40 40 59 41 	/0?terminate@@YA
  0x3d50	58 58 5a 00 99 02 52 65 67 51 75 65 72 79 56 61 	XXZ000RegQueryVa
  0x3d60	6c 75 65 45 78 57 00 00 5b 02 52 65 67 43 6c 6f 	lueExW00[0RegClo
  0x3d70	73 65 4b 65 79 00 41 44 56 41 50 49 33 32 2e 64 	seKey0ADVAPI32.d
  0x3d80	6c 6c 00 00 8d 05 53 6c 65 65 70 00 7d 05 53 65 	ll0000Sleep0}0Se
  0x3d90	74 55 6e 68 61 6e 64 6c 65 64 45 78 63 65 70 74 	tUnhandledExcept
  0x3da0	69 6f 6e 46 69 6c 74 65 72 00 80 02 47 65 74 4d 	ionFilter000GetM
  0x3db0	6f 64 75 6c 65 48 61 6e 64 6c 65 57 00 00 51 04 	oduleHandleW00Q0
  0x3dc0	51 75 65 72 79 50 65 72 66 6f 72 6d 61 6e 63 65 	QueryPerformance
  0x3dd0	43 6f 75 6e 74 65 72 00 20 02 47 65 74 43 75 72 	Counter0 0GetCur
  0x3de0	72 65 6e 74 50 72 6f 63 65 73 73 49 64 00 24 02 	rentProcessId0$0
  0x3df0	47 65 74 43 75 72 72 65 6e 74 54 68 72 65 61 64 	GetCurrentThread
  0x3e00	49 64 00 00 f2 02 47 65 74 53 79 73 74 65 6d 54 	Id0000GetSystemT
  0x3e10	69 6d 65 41 73 46 69 6c 65 54 69 6d 65 00 10 03 	imeAsFileTime000
  0x3e20	47 65 74 54 69 63 6b 43 6f 75 6e 74 00 00 d4 04 	GetTickCount0000
  0x3e30	52 74 6c 43 61 70 74 75 72 65 43 6f 6e 74 65 78 	RtlCaptureContex
  0x3e40	74 00 db 04 52 74 6c 4c 6f 6f 6b 75 70 46 75 6e 	t000RtlLookupFun
  0x3e50	63 74 69 6f 6e 45 6e 74 72 79 00 00 e2 04 52 74 	ctionEntry0000Rt
  0x3e60	6c 56 69 72 74 75 61 6c 55 6e 77 69 6e 64 00 00 	lVirtualUnwind00
  0x3e70	be 05 55 6e 68 61 6e 64 6c 65 64 45 78 63 65 70 	00UnhandledExcep
  0x3e80	74 69 6f 6e 46 69 6c 74 65 72 00 00 1f 02 47 65 	tionFilter0000Ge
  0x3e90	74 43 75 72 72 65 6e 74 50 72 6f 63 65 73 73 00 	tCurrentProcess0
  0x3ea0	9c 05 54 65 72 6d 69 6e 61 74 65 50 72 6f 63 65 	00TerminateProce
  0x3eb0	73 73 00 00 9c 00 43 6f 6d 70 61 72 65 53 74 72 	ss0000CompareStr
  0x3ec0	69 6e 67 4f 72 64 69 6e 61 6c 00 00 ce 04 52 65 	ingOrdinal0000Re
  0x3ed0	73 6f 6c 76 65 44 65 6c 61 79 4c 6f 61 64 65 64 	solveDelayLoaded
  0x3ee0	41 50 49 00 10 01 44 65 6c 61 79 4c 6f 61 64 46 	API000DelayLoadF
  0x3ef0	61 69 6c 75 72 65 48 6f 6f 6b 00 00 11 00 44 65 	ailureHook0000De
  0x3f00	76 4f 62 6a 45 6e 75 6d 44 65 76 69 63 65 49 6e 	vObjEnumDeviceIn
  0x3f10	66 6f 00 00 33 00 44 65 76 4f 62 6a 55 6e 69 6e 	fo0030DevObjUnin
  0x3f20	73 74 61 6c 6c 44 65 76 69 63 65 00 10 00 44 65 	stallDevice000De
  0x3f30	76 4f 62 6a 44 65 73 74 72 6f 79 44 65 76 69 63 	vObjDestroyDevic
  0x3f40	65 49 6e 66 6f 4c 69 73 74 00 1b 00 44 65 76 4f 	eInfoList000DevO
  0x3f50	62 6a 47 65 74 44 65 76 69 63 65 49 6e 73 74 61 	bjGetDeviceInsta
  0x3f60	6e 63 65 49 64 00 14 00 44 65 76 4f 62 6a 47 65 	nceId000DevObjGe
  0x3f70	74 43 6c 61 73 73 44 65 76 73 00 00 07 00 44 65 	tClassDevs0000De
  0x3f80	76 4f 62 6a 43 72 65 61 74 65 44 65 76 69 63 65 	vObjCreateDevice
  0x3f90	49 6e 66 6f 4c 69 73 74 00 00 25 00 44 65 76 4f 	InfoList00%0DevO
  0x3fa0	62 6a 4f 70 65 6e 44 65 76 52 65 67 4b 65 79 00 	bjOpenDevRegKey0
  0x3fb0	44 45 56 4f 42 4a 2e 64 6c 6c 00 00 96 04 6d 65 	DEVOBJ.dll0000me
  0x3fc0	6d 73 65 74 00 00 00 00 00 00 00 00 00 00 00 00 	mset000000000000
  0x3fd0	00 00 00 00 00 00 00 00 00 00 00 00 00 00 00 00 	0000000000000000
  0x3fe0	00 00 00 00 00 00 00 00 00 00 00 00 00 00 00 00 	0000000000000000
  0x3ff0	00 00 00 00 00 00 00 00 00 00 00 00 00 00 00 00 	0000000000000000
=== DATA BLOCK END ===

=== DATA BLOCK ADDRESS 0x4000 ===
  0x4000	01 00 00 00 00 00 00 00 32 a2 df 2d 99 2b 00 00 	00000000200-0+00
  0x4010	cd 5d 20 d2 66 d4 ff ff 00 00 00 00 00 00 00 00 	0] 0f00000000000
  0x4020	00 00 00 00 00 00 00 00 00 00 00 00 00 00 00 00 	0000000000000000
  0x4030	00 00 00 00 00 00 00 00 00 00 00 00 00 00 00 00 	0000000000000000
  0x4040	00 00 00 00 00 00 00 00 00 00 00 00 00 00 00 00 	0000000000000000
  0x4050	00 00 00 00 00 00 00 00 00 00 00 00 00 00 00 00 	0000000000000000
  0x4060	00 00 00 00 00 00 00 00 00 00 00 00 00 00 00 00 	0000000000000000
  0x4070	00 00 00 00 00 00 00 00 00 00 00 00 00 00 00 00 	0000000000000000
  0x4080	00 00 00 00 00 00 00 00 00 00 00 00 00 00 00 00 	0000000000000000
  0x4090	00 00 00 00 00 00 00 00 00 00 00 00 00 00 00 00 	0000000000000000
  0x40a0	00 00 00 00 00 00 00 00 00 00 00 00 00 00 00 00 	0000000000000000
  0x40b0	00 00 00 00 00 00 00 00 00 00 00 00 00 00 00 00 	0000000000000000
  0x40c0	00 00 00 00 00 00 00 00 00 00 00 00 00 00 00 00 	0000000000000000
  0x40d0	00 00 00 00 00 00 00 00 00 00 00 00 00 00 00 00 	0000000000000000
  0x40e0	00 00 00 00 00 00 00 00 00 00 00 00 00 00 00 00 	0000000000000000
  0x40f0	00 00 00 00 00 00 00 00 00 00 00 00 00 00 00 00 	0000000000000000
  0x4100	00 00 00 00 00 00 00 00 00 00 00 00 00 00 00 00 	0000000000000000
  0x4110	00 00 00 00 00 00 00 00 00 00 00 00 00 00 00 00 	0000000000000000
  0x4120	00 00 00 00 00 00 00 00 00 00 00 00 00 00 00 00 	0000000000000000
  0x4130	00 00 00 00 00 00 00 00 00 00 00 00 00 00 00 00 	0000000000000000
  0x4140	00 00 00 00 00 00 00 00 00 00 00 00 00 00 00 00 	0000000000000000
  0x4150	00 00 00 00 00 00 00 00 00 00 00 00 00 00 00 00 	0000000000000000
  0x4160	00 00 00 00 00 00 00 00 00 00 00 00 00 00 00 00 	0000000000000000
  0x4170	00 00 00 00 00 00 00 00 00 00 00 00 00 00 00 00 	0000000000000000
  0x4180	00 00 00 00 00 00 00 00 00 00 00 00 00 00 00 00 	0000000000000000
  0x4190	00 00 00 00 00 00 00 00 00 00 00 00 00 00 00 00 	0000000000000000
  0x41a0	00 00 00 00 00 00 00 00 00 00 00 00 00 00 00 00 	0000000000000000
  0x41b0	00 00 00 00 00 00 00 00 00 00 00 00 00 00 00 00 	0000000000000000
  0x41c0	00 00 00 00 00 00 00 00 00 00 00 00 00 00 00 00 	0000000000000000
  0x41d0	00 00 00 00 00 00 00 00 00 00 00 00 00 00 00 00 	0000000000000000
  0x41e0	00 00 00 00 00 00 00 00 00 00 00 00 00 00 00 00 	0000000000000000
  0x41f0	00 00 00 00 00 00 00 00 00 00 00 00 00 00 00 00 	0000000000000000
=== DATA BLOCK END ===

=== DATA BLOCK ADDRESS 0x5000 ===
  0x5000	08 10 00 00 89 10 00 00 78 37 00 00 90 10 00 00 	00000000x7000000
  0x5010	aa 11 00 00 88 37 00 00 b0 11 00 00 35 13 00 00 	0000070000005000
  0x5020	bc 37 00 00 3c 13 00 00 de 15 00 00 dc 37 00 00 	0700<00000000700
  0x5030	f0 15 00 00 2d 16 00 00 00 38 00 00 40 16 00 00 	0000-0000800@000
  0x5040	13 17 00 00 08 38 00 00 20 17 00 00 69 17 00 00 	00000800 000i000
  0x5050	00 38 00 00 70 17 00 00 2e 19 00 00 10 38 00 00 	0800p000.0000800
  0x5060	40 19 00 00 52 19 00 00 08 38 00 00 70 19 00 00 	@000R0000800p000
  0x5070	8e 19 00 00 40 38 00 00 a0 19 00 00 d9 19 00 00 	0000@80000000000
  0x5080	08 38 00 00 e0 19 00 00 f8 19 00 00 08 38 00 00 	0800000000000800
  0x5090	0c 1a 00 00 60 1a 00 00 44 38 00 00 68 1a 00 00 	0000`000D800h000
  0x50a0	ad 1a 00 00 64 38 00 00 20 1b 00 00 6d 1b 00 00 	0000d800 000m000
  0x50b0	6c 38 00 00 b4 1b 00 00 88 1c 00 00 90 38 00 00 	l800000000000800
  0x50c0	ac 1c 00 00 e0 1c 00 00 64 38 00 00 f0 1c 00 00 	00000000d8000000
  0x50d0	61 1e 00 00 9c 38 00 00 82 1e 00 00 f9 1e 00 00 	a000080000000000
  0x50e0	ac 38 00 00 0d 1f 00 00 84 1f 00 00 b4 38 00 00 	0800000000000800
  0x50f0	aa 1f 00 00 21 20 00 00 bc 38 00 00 2c 20 00 00 	0000! 000800, 00
  0x5100	49 20 00 00 08 38 00 00 50 20 00 00 ab 20 00 00 	I 000800P 000 00
  0x5110	c4 38 00 00 b4 20 00 00 3a 21 00 00 cc 38 00 00 	08000 00:!000800
  0x5120	60 21 00 00 62 21 00 00 a8 38 00 00 70 21 00 00 	`!00b!000800p!00
  0x5130	96 21 00 00 b4 37 00 00 9c 21 00 00 ba 21 00 00 	0!0007000!000!00
  0x5140	b4 37 00 00 c0 21 00 00 e0 21 00 00 b4 37 00 00 	07000!000!000700
  0x5150	00 00 00 00 00 00 00 00 00 00 00 00 00 00 00 00 	0000000000000000
  0x5160	00 00 00 00 00 00 00 00 00 00 00 00 00 00 00 00 	0000000000000000
  0x5170	00 00 00 00 00 00 00 00 00 00 00 00 00 00 00 00 	0000000000000000
  0x5180	00 00 00 00 00 00 00 00 00 00 00 00 00 00 00 00 	0000000000000000
  0x5190	00 00 00 00 00 00 00 00 00 00 00 00 00 00 00 00 	0000000000000000
  0x51a0	00 00 00 00 00 00 00 00 00 00 00 00 00 00 00 00 	0000000000000000
  0x51b0	00 00 00 00 00 00 00 00 00 00 00 00 00 00 00 00 	0000000000000000
  0x51c0	00 00 00 00 00 00 00 00 00 00 00 00 00 00 00 00 	0000000000000000
  0x51d0	00 00 00 00 00 00 00 00 00 00 00 00 00 00 00 00 	0000000000000000
  0x51e0	00 00 00 00 00 00 00 00 00 00 00 00 00 00 00 00 	0000000000000000
  0x51f0	00 00 00 00 00 00 00 00 00 00 00 00 00 00 00 00 	0000000000000000
=== DATA BLOCK END ===
