===== Assembly blocks =====

=== CODE BLOCK ADDRESS 0x1000 ===
  0x1000	int3   	
  0x1001	int3   	
  0x1002	int3   	
  0x1003	int3   	
  0x1004	int3   	
  === BLOCK LINK ===
    0x1005
=== CODE BLOCK END ===

=== CODE BLOCK ADDRESS 0x1005 ===
  0x1005	int3   	
  0x1006	int3   	
  0x1007	int3   	
  0x1008	int3   	
  0x1009	int3   	
  === BLOCK LINK ===
    0x100a
=== CODE BLOCK END ===

=== CODE BLOCK ADDRESS 0x100a ===
  0x100a	int3   	
  0x100b	int3   	
  0x100c	int3   	
  0x100d	int3   	
  0x100e	int3   	
  === BLOCK LINK ===
    0x100f
=== CODE BLOCK END ===

=== CODE BLOCK ADDRESS 0x100f ===
  0x100f	int3   	
  0x1010	dec    	eax
  0x1011	mov    	eax, dword ptr [0x2331]
  0x1017	dec    	esp
  0x1018	mov    	eax, dword ptr [eax + 8]
  === BLOCK LINK ===
    0x101b
=== CODE BLOCK END ===

=== CODE BLOCK ADDRESS 0x101b ===
  0x101b	dec    	eax
  0x101c	mov    	eax, dword ptr [ecx]
  0x101e	dec    	ecx
  0x101f	cmp    	eax, dword ptr [eax]
  0x1021	jne    	0x1037
  === BLOCK LINK ===
    0x1023
    0x1037
=== CODE BLOCK END ===

=== CODE BLOCK ADDRESS 0x1023 ===
  0x1023	dec    	eax
  0x1024	mov    	eax, dword ptr [ecx + 8]
  0x1027	dec    	ecx
  0x1028	cmp    	eax, dword ptr [eax + 8]
  0x102b	jne    	0x1037
  === BLOCK LINK ===
    0x102d
    0x1037
=== CODE BLOCK END ===

=== CODE BLOCK ADDRESS 0x102d ===
  0x102d	and    	dword ptr [edx], 0
  0x1030	mov    	eax, 1
  0x1035	ret    	
  0x1036	int3   	
  0x1037	xor    	eax, eax
  === BLOCK LINK ===
    0x1039
=== CODE BLOCK END ===

=== CODE BLOCK ADDRESS 0x1037 ===
=== CODE BLOCK END ===

=== CODE BLOCK ADDRESS 0x1039 ===
  0x1039	ret    	
  0x103a	int3   	
  0x103b	int3   	
  0x103c	int3   	
  0x103d	int3   	
  === BLOCK LINK ===
    0x103e
=== CODE BLOCK END ===

=== CODE BLOCK ADDRESS 0x103e ===
  0x103e	int3   	
  0x103f	int3   	
  0x1040	int3   	
  0x1041	int3   	
  0x1042	int3   	
  === BLOCK LINK ===
    0x1043
=== CODE BLOCK END ===

=== CODE BLOCK ADDRESS 0x1043 ===
  0x1043	int3   	
  0x1044	dec    	eax
  0x1045	sub    	esp, 0x148
  0x104b	dec    	eax
  0x104c	mov    	eax, dword ptr [0x4fb6]
  === BLOCK LINK ===
    0x1052
=== CODE BLOCK END ===

=== CODE BLOCK ADDRESS 0x1052 ===
  0x1052	dec    	eax
  0x1053	xor    	eax, esp
  0x1055	dec    	eax
  0x1056	mov    	dword ptr [esp + 0x130], eax
  0x105d	dec    	ecx
  === BLOCK LINK ===
    0x105e
=== CODE BLOCK END ===

=== CODE BLOCK ADDRESS 0x105e ===
  0x105e	mov    	ecx, eax
  0x1060	call   	0x1638
  === BLOCK LINK ===
    0x1065
    0x1638
=== CODE BLOCK END ===

=== CODE BLOCK ADDRESS 0x1065 ===
  0x1065	test   	eax, eax
  0x1067	je     	0x1109
  === BLOCK LINK ===
    0x106d
    0x1109
=== CODE BLOCK END ===

=== CODE BLOCK ADDRESS 0x106d ===
  0x106d	dec    	eax
  0x106e	lea    	ecx, [0x2fcc]
  0x1074	dec    	eax
  0x1075	call   	dword ptr [0x2c05]
  === BLOCK LINK ===
    0x107b
=== CODE BLOCK END ===

=== CODE BLOCK ADDRESS 0x107b ===
  0x107b	nop    	dword ptr [eax + eax]
  0x1080	dec    	eax
  0x1081	test   	eax, eax
  0x1083	jne    	0x109a
  === BLOCK LINK ===
    0x1085
    0x109a
=== CODE BLOCK END ===

=== CODE BLOCK ADDRESS 0x1085 ===
  0x1085	dec    	eax
  0x1086	call   	dword ptr [0x2bec]
  === BLOCK LINK ===
    0x108c
=== CODE BLOCK END ===

=== CODE BLOCK ADDRESS 0x108c ===
  0x108c	nop    	dword ptr [eax + eax]
  0x1091	dec    	esp
  0x1092	lea    	eax, [0x2fb8]
  0x1098	jmp    	0x10c8
  === BLOCK LINK ===
    0x109a
    0x10c8
=== CODE BLOCK END ===

=== CODE BLOCK ADDRESS 0x109a ===
  0x109a	dec    	eax
  0x109b	lea    	edx, [0x2fcf]
  0x10a1	dec    	eax
  0x10a2	mov    	ecx, eax
  0x10a4	dec    	eax
  === BLOCK LINK ===
    0x10a5
=== CODE BLOCK END ===

=== CODE BLOCK ADDRESS 0x10a5 ===
  0x10a5	call   	dword ptr [0x2bdd]
  === BLOCK LINK ===
    0x10ab
=== CODE BLOCK END ===

=== CODE BLOCK ADDRESS 0x10ab ===
  0x10ab	nop    	dword ptr [eax + eax]
  0x10b0	dec    	eax
  0x10b1	test   	eax, eax
  0x10b3	jne    	0x1103
  === BLOCK LINK ===
    0x10b5
    0x1103
=== CODE BLOCK END ===

=== CODE BLOCK ADDRESS 0x10b5 ===
  0x10b5	dec    	eax
  0x10b6	call   	dword ptr [0x2bbc]
  === BLOCK LINK ===
    0x10bc
=== CODE BLOCK END ===

=== CODE BLOCK ADDRESS 0x10bc ===
  0x10bc	nop    	dword ptr [eax + eax]
  0x10c1	dec    	esp
  0x10c2	lea    	eax, [0x2fb0]
  === BLOCK LINK ===
    0x10c8
=== CODE BLOCK END ===

=== CODE BLOCK ADDRESS 0x10cb ===
  0x10cb	dec    	eax
  0x10cc	lea    	ecx, [esp + 0x20]
  0x10d0	mov    	edx, 0x104
  0x10d5	dec    	eax
  0x10d6	call   	dword ptr [0x2d8c]
  === BLOCK LINK ===
    0x10dc
=== CODE BLOCK END ===

=== CODE BLOCK ADDRESS 0x10dc ===
  0x10dc	nop    	dword ptr [eax + eax]
  0x10e1	inc    	ecx
  0x10e2	mov    	ecx, 0x10010
  0x10e7	dec    	esp
  0x10e8	lea    	eax, [0x2fb2]
  === BLOCK LINK ===
    0x10ee
=== CODE BLOCK END ===

=== CODE BLOCK ADDRESS 0x10ee ===
  0x10ee	dec    	eax
  0x10ef	lea    	edx, [esp + 0x20]
  0x10f3	xor    	ecx, ecx
  0x10f5	dec    	eax
  0x10f6	call   	dword ptr [0x2cc4]
  === BLOCK LINK ===
    0x10fc
=== CODE BLOCK END ===

=== CODE BLOCK ADDRESS 0x10fc ===
  0x10fc	nop    	dword ptr [eax + eax]
  0x1101	jmp    	0x1109
  === BLOCK LINK ===
    0x1103
    0x1109
=== CODE BLOCK END ===

=== CODE BLOCK ADDRESS 0x1103 ===
  0x1103	call   	dword ptr [0x2e0f]
  === BLOCK LINK ===
    0x1109
=== CODE BLOCK END ===

=== CODE BLOCK ADDRESS 0x1109 ===
  0x1109	xor    	eax, eax
  0x110b	dec    	eax
  0x110c	mov    	ecx, dword ptr [esp + 0x130]
  0x1113	dec    	eax
  0x1114	xor    	ecx, esp
  === BLOCK LINK ===
    0x1116
=== CODE BLOCK END ===

=== CODE BLOCK ADDRESS 0x1116 ===
  0x1116	call   	0x25b0
  === BLOCK LINK ===
    0x111b
    0x25b0
=== CODE BLOCK END ===

=== CODE BLOCK ADDRESS 0x111b ===
  0x111b	dec    	eax
  0x111c	add    	esp, 0x148
  0x1122	ret    	
  0x1123	int3   	
  0x1124	int3   	
  === BLOCK LINK ===
    0x1125
=== CODE BLOCK END ===

=== CODE BLOCK ADDRESS 0x1638 ===
=== CODE BLOCK END ===

=== CODE BLOCK ADDRESS 0x1125 ===
  0x1125	int3   	
  0x1126	int3   	
  0x1127	int3   	
  0x1128	int3   	
  0x1129	int3   	
  === BLOCK LINK ===
    0x112a
=== CODE BLOCK END ===

=== CODE BLOCK ADDRESS 0x112a ===
  0x112a	int3   	
  0x112b	int3   	
  0x112c	int3   	
  0x112d	int3   	
  0x112e	int3   	
  === BLOCK LINK ===
    0x112f
=== CODE BLOCK END ===

=== CODE BLOCK ADDRESS 0x112f ===
  0x112f	int3   	
  0x1130	dec    	eax
  0x1131	mov    	dword ptr [esp + 8], ebx
  0x1135	push   	edi
  0x1136	dec    	eax
  === BLOCK LINK ===
    0x1137
=== CODE BLOCK END ===

=== CODE BLOCK ADDRESS 0x1137 ===
  0x1137	sub    	esp, 0x20
  0x113a	mov    	ebx, edx
  0x113c	dec    	eax
  0x113d	mov    	edi, ecx
  0x113f	call   	0x1168
  === BLOCK LINK ===
    0x1144
    0x1168
=== CODE BLOCK END ===

=== CODE BLOCK ADDRESS 0x1144 ===
  0x1144	test   	bl, 1
  0x1147	je     	0x1151
  === BLOCK LINK ===
    0x1149
    0x1151
=== CODE BLOCK END ===

=== CODE BLOCK ADDRESS 0x1149 ===
  0x1149	dec    	eax
  0x114a	mov    	ecx, edi
  0x114c	call   	0x21fc
  === BLOCK LINK ===
    0x1151
    0x21fc
=== CODE BLOCK END ===

=== CODE BLOCK ADDRESS 0x1151 ===
  0x1151	dec    	eax
  0x1152	mov    	ebx, dword ptr [esp + 0x30]
  0x1156	dec    	eax
  0x1157	mov    	eax, edi
  0x1159	dec    	eax
  === BLOCK LINK ===
    0x115a
=== CODE BLOCK END ===

=== CODE BLOCK ADDRESS 0x115a ===
  0x115a	add    	esp, 0x20
  0x115d	pop    	edi
  0x115e	ret    	
  0x115f	int3   	
  0x1160	int3   	
  === BLOCK LINK ===
    0x1161
=== CODE BLOCK END ===

=== CODE BLOCK ADDRESS 0x1161 ===
  0x1161	int3   	
  0x1162	int3   	
  0x1163	int3   	
  0x1164	int3   	
  0x1165	int3   	
  === BLOCK LINK ===
    0x1166
=== CODE BLOCK END ===

=== CODE BLOCK ADDRESS 0x1166 ===
  0x1166	int3   	
  0x1167	int3   	
  === BLOCK LINK ===
    0x1168
=== CODE BLOCK END ===

=== CODE BLOCK ADDRESS 0x116d ===
  0x116d	lea    	eax, [0x1e9d]
  0x1173	dec    	eax
  0x1174	mov    	dword ptr [ecx], eax
  0x1176	lock dec  	dword ptr [0x5453]
  0x117d	cmp    	dword ptr [0x5450], 0
  === BLOCK LINK ===
    0x1184
=== CODE BLOCK END ===

=== CODE BLOCK ADDRESS 0x1184 ===
  0x1184	jne    	0x119d
  === BLOCK LINK ===
    0x1186
    0x119d
=== CODE BLOCK END ===

=== CODE BLOCK ADDRESS 0x1186 ===
  0x1186	cmp    	dword ptr [0x5443], 0
  0x118d	jne    	0x119d
  === BLOCK LINK ===
    0x118f
    0x119d
=== CODE BLOCK END ===

=== CODE BLOCK ADDRESS 0x118f ===
  0x118f	xor    	ecx, ecx
  0x1191	dec    	eax
  0x1192	call   	dword ptr [0x2c30]
  === BLOCK LINK ===
    0x1198
=== CODE BLOCK END ===

=== CODE BLOCK ADDRESS 0x1198 ===
  0x1198	nop    	dword ptr [eax + eax]
  === BLOCK LINK ===
    0x119d
=== CODE BLOCK END ===

=== CODE BLOCK ADDRESS 0x11a3 ===
  0x11a3	int3   	
  0x11a4	int3   	
  0x11a5	int3   	
  0x11a6	int3   	
  0x11a7	int3   	
  === BLOCK LINK ===
    0x11a8
=== CODE BLOCK END ===

=== CODE BLOCK ADDRESS 0x11a8 ===
  0x11a8	int3   	
  0x11a9	int3   	
  0x11aa	int3   	
  0x11ab	int3   	
  0x11ac	int3   	
  === BLOCK LINK ===
    0x11ad
=== CODE BLOCK END ===

=== CODE BLOCK ADDRESS 0x11ad ===
  0x11ad	int3   	
  0x11ae	int3   	
  0x11af	int3   	
  0x11b0	dec    	eax
  0x11b1	mov    	eax, esp
  === BLOCK LINK ===
    0x11b3
=== CODE BLOCK END ===

=== CODE BLOCK ADDRESS 0x11b3 ===
  0x11b3	dec    	eax
  0x11b4	mov    	dword ptr [eax + 8], ebx
  0x11b7	dec    	eax
  0x11b8	mov    	dword ptr [eax + 0x10], ebp
  0x11bb	dec    	eax
  === BLOCK LINK ===
    0x11bc
=== CODE BLOCK END ===

=== CODE BLOCK ADDRESS 0x11bc ===
  0x11bc	mov    	dword ptr [eax + 0x18], esi
  0x11bf	dec    	eax
  0x11c0	mov    	dword ptr [eax + 0x20], edi
  0x11c3	inc    	ecx
  0x11c4	push   	esi
  === BLOCK LINK ===
    0x11c5
=== CODE BLOCK END ===

=== CODE BLOCK ADDRESS 0x11c5 ===
  0x11c5	dec    	eax
  0x11c6	sub    	esp, 0x30
  0x11c9	dec    	eax
  0x11ca	mov    	esi, dword ptr [esp + 0x68]
  0x11ce	dec    	esp
  === BLOCK LINK ===
    0x11cf
=== CODE BLOCK END ===

=== CODE BLOCK ADDRESS 0x11cf ===
  0x11cf	mov    	esi, edx
  0x11d1	dec    	eax
  0x11d2	lea    	edx, [eax + 0x30]
  0x11d5	dec    	ecx
  0x11d6	mov    	ecx, eax
  === BLOCK LINK ===
    0x11d8
=== CODE BLOCK END ===

=== CODE BLOCK ADDRESS 0x11d8 ===
  0x11d8	inc    	ecx
  0x11d9	mov    	ebp, ecx
  0x11db	mov    	dword ptr [esi], 2
  0x11e1	call   	0x1dc8
  === BLOCK LINK ===
    0x11e6
    0x1dc8
=== CODE BLOCK END ===

=== CODE BLOCK ADDRESS 0x11e6 ===
  0x11e6	mov    	ebx, eax
  0x11e8	test   	eax, eax
  0x11ea	js     	0x1253
  === BLOCK LINK ===
    0x11ec
    0x1253
=== CODE BLOCK END ===

=== CODE BLOCK ADDRESS 0x11ec ===
  0x11ec	dec    	eax
  0x11ed	lea    	ecx, [0x2ec5]
  0x11f3	dec    	eax
  0x11f4	call   	dword ptr [0x2a86]
  === BLOCK LINK ===
    0x11fa
=== CODE BLOCK END ===

=== CODE BLOCK ADDRESS 0x11fa ===
  0x11fa	nop    	dword ptr [eax + eax]
  0x11ff	dec    	eax
  0x1200	mov    	edi, eax
  0x1202	dec    	eax
  0x1203	test   	eax, eax
  === BLOCK LINK ===
    0x1205
=== CODE BLOCK END ===

=== CODE BLOCK ADDRESS 0x1205 ===
  0x1205	je     	0x1249
  === BLOCK LINK ===
    0x1207
    0x1249
=== CODE BLOCK END ===

=== CODE BLOCK ADDRESS 0x1207 ===
  0x1207	dec    	eax
  0x1208	lea    	edx, [0x2eba]
  0x120e	dec    	eax
  0x120f	mov    	ecx, eax
  0x1211	dec    	eax
  === BLOCK LINK ===
    0x1212
=== CODE BLOCK END ===

=== CODE BLOCK ADDRESS 0x1212 ===
  0x1212	call   	dword ptr [0x2a70]
  === BLOCK LINK ===
    0x1218
=== CODE BLOCK END ===

=== CODE BLOCK ADDRESS 0x1218 ===
  0x1218	nop    	dword ptr [eax + eax]
  0x121d	mov    	edx, dword ptr [esp + 0x60]
  0x1221	inc    	esp
  0x1222	mov    	ecx, ebp
  0x1224	dec    	esp
  === BLOCK LINK ===
    0x1225
=== CODE BLOCK END ===

=== CODE BLOCK ADDRESS 0x1225 ===
  0x1225	mov    	eax, dword ptr [esp + 0x68]
  0x1229	xor    	ecx, ecx
  0x122b	mov    	dword ptr [esp + 0x20], edx
  0x122f	dec    	ecx
  0x1230	mov    	edx, esi
  === BLOCK LINK ===
    0x1232
=== CODE BLOCK END ===

=== CODE BLOCK ADDRESS 0x1232 ===
  0x1232	call   	dword ptr [0x2ce0]
  === BLOCK LINK ===
    0x1238
=== CODE BLOCK END ===

=== CODE BLOCK ADDRESS 0x1238 ===
  0x1238	dec    	eax
  0x1239	mov    	ecx, edi
  0x123b	mov    	dword ptr [esi], eax
  0x123d	dec    	eax
  0x123e	call   	dword ptr [0x2a54]
  === BLOCK LINK ===
    0x1244
=== CODE BLOCK END ===

=== CODE BLOCK ADDRESS 0x1244 ===
  0x1244	nop    	dword ptr [eax + eax]
  === BLOCK LINK ===
    0x1249
    0x181c
=== CODE BLOCK END ===

=== CODE BLOCK ADDRESS 0x1253 ===
  0x1253	dec    	eax
  0x1254	mov    	ebp, dword ptr [esp + 0x48]
  0x1258	mov    	eax, ebx
  0x125a	dec    	eax
  0x125b	mov    	ebx, dword ptr [esp + 0x40]
  === BLOCK LINK ===
    0x125f
=== CODE BLOCK END ===

=== CODE BLOCK ADDRESS 0x125f ===
  0x125f	dec    	eax
  0x1260	mov    	esi, dword ptr [esp + 0x50]
  0x1264	dec    	eax
  0x1265	mov    	edi, dword ptr [esp + 0x58]
  0x1269	dec    	eax
  === BLOCK LINK ===
    0x126a
=== CODE BLOCK END ===

=== CODE BLOCK ADDRESS 0x126a ===
  0x126a	add    	esp, 0x30
  0x126d	inc    	ecx
  0x126e	pop    	esi
  0x126f	ret    	
  0x1270	int3   	
  === BLOCK LINK ===
    0x1271
=== CODE BLOCK END ===

=== CODE BLOCK ADDRESS 0x10c8 ===
  0x10c8	inc    	esp
  0x10c9	mov    	ecx, eax
  === BLOCK LINK ===
    0x10cb
=== CODE BLOCK END ===

=== CODE BLOCK ADDRESS 0x1271 ===
  0x1271	int3   	
  0x1272	int3   	
  0x1273	int3   	
  0x1274	int3   	
  0x1275	int3   	
  === BLOCK LINK ===
    0x1276
=== CODE BLOCK END ===

=== CODE BLOCK ADDRESS 0x1276 ===
  0x1276	int3   	
  0x1277	int3   	
  0x1278	int3   	
  0x1279	int3   	
  0x127a	int3   	
  === BLOCK LINK ===
    0x127b
=== CODE BLOCK END ===

=== CODE BLOCK ADDRESS 0x127b ===
  0x127b	int3   	
  0x127c	int3   	
  0x127d	int3   	
  0x127e	int3   	
  0x127f	int3   	
  === BLOCK LINK ===
    0x1280
=== CODE BLOCK END ===

=== CODE BLOCK ADDRESS 0x1280 ===
  0x1280	dec    	eax
  0x1281	mov    	eax, esp
  0x1283	dec    	eax
  0x1284	mov    	dword ptr [eax + 8], ebx
  0x1287	dec    	eax
  === BLOCK LINK ===
    0x1288
=== CODE BLOCK END ===

=== CODE BLOCK ADDRESS 0x1288 ===
  0x1288	mov    	dword ptr [eax + 0x10], ebp
  0x128b	dec    	eax
  0x128c	mov    	dword ptr [eax + 0x18], esi
  0x128f	dec    	eax
  0x1290	mov    	dword ptr [eax + 0x20], edi
  === BLOCK LINK ===
    0x1293
=== CODE BLOCK END ===

=== CODE BLOCK ADDRESS 0x1293 ===
  0x1293	inc    	ecx
  0x1294	push   	esi
  0x1295	dec    	eax
  0x1296	sub    	esp, 0x30
  0x1299	dec    	eax
  === BLOCK LINK ===
    0x129a
=== CODE BLOCK END ===

=== CODE BLOCK ADDRESS 0x129a ===
  0x129a	mov    	edi, dword ptr [esp + 0x68]
  0x129e	dec    	eax
  0x129f	lea    	ecx, [0x2e33]
  0x12a5	inc    	ecx
  0x12a6	mov    	esi, ecx
  === BLOCK LINK ===
    0x12a8
=== CODE BLOCK END ===

=== CODE BLOCK ADDRESS 0x12a8 ===
  0x12a8	dec    	ecx
  0x12a9	mov    	ebp, eax
  0x12ab	dec    	esp
  0x12ac	mov    	esi, edx
  0x12ae	mov    	dword ptr [edi], 2
  === BLOCK LINK ===
    0x12b4
=== CODE BLOCK END ===

=== CODE BLOCK ADDRESS 0x12b4 ===
  0x12b4	dec    	eax
  0x12b5	call   	dword ptr [0x29d5]
  === BLOCK LINK ===
    0x12bb
=== CODE BLOCK END ===

=== CODE BLOCK ADDRESS 0x12bb ===
  0x12bb	nop    	dword ptr [eax + eax]
  0x12c0	dec    	eax
  0x12c1	mov    	ebx, eax
  0x12c3	dec    	eax
  0x12c4	test   	eax, eax
  === BLOCK LINK ===
    0x12c6
=== CODE BLOCK END ===

=== CODE BLOCK ADDRESS 0x12c6 ===
  0x12c6	je     	0x1308
  === BLOCK LINK ===
    0x12c8
    0x1308
=== CODE BLOCK END ===

=== CODE BLOCK ADDRESS 0x12c8 ===
  0x12c8	dec    	eax
  0x12c9	lea    	edx, [0x2e21]
  0x12cf	dec    	eax
  0x12d0	mov    	ecx, eax
  0x12d2	dec    	eax
  === BLOCK LINK ===
    0x12d3
=== CODE BLOCK END ===

=== CODE BLOCK ADDRESS 0x12d3 ===
  0x12d3	call   	dword ptr [0x29af]
  === BLOCK LINK ===
    0x12d9
=== CODE BLOCK END ===

=== CODE BLOCK ADDRESS 0x12d9 ===
  0x12d9	nop    	dword ptr [eax + eax]
  0x12de	mov    	ecx, dword ptr [esp + 0x60]
  0x12e2	inc    	esp
  0x12e3	mov    	ecx, esi
  0x12e5	mov    	dword ptr [esp + 0x20], ecx
  === BLOCK LINK ===
    0x12e9
=== CODE BLOCK END ===

=== CODE BLOCK ADDRESS 0x12e9 ===
  0x12e9	dec    	esp
  0x12ea	mov    	eax, ebp
  0x12ec	xor    	ecx, ecx
  0x12ee	dec    	ecx
  0x12ef	mov    	edx, esi
  === BLOCK LINK ===
    0x12f1
=== CODE BLOCK END ===

=== CODE BLOCK ADDRESS 0x12f1 ===
  0x12f1	call   	dword ptr [0x2c21]
  === BLOCK LINK ===
    0x12f7
=== CODE BLOCK END ===

=== CODE BLOCK ADDRESS 0x12f7 ===
  0x12f7	dec    	eax
  0x12f8	mov    	ecx, ebx
  0x12fa	mov    	dword ptr [edi], eax
  0x12fc	dec    	eax
  0x12fd	call   	dword ptr [0x2995]
  === BLOCK LINK ===
    0x1303
=== CODE BLOCK END ===

=== CODE BLOCK ADDRESS 0x1303 ===
  0x1303	nop    	dword ptr [eax + eax]
  === BLOCK LINK ===
    0x1308
=== CODE BLOCK END ===

=== CODE BLOCK ADDRESS 0x1310 ===
  0x1310	mov    	ebp, dword ptr [esp + 0x48]
  0x1314	dec    	eax
  0x1315	mov    	esi, dword ptr [esp + 0x50]
  0x1319	dec    	eax
  0x131a	mov    	edi, dword ptr [esp + 0x58]
  === BLOCK LINK ===
    0x131e
=== CODE BLOCK END ===

=== CODE BLOCK ADDRESS 0x131e ===
  0x131e	dec    	eax
  0x131f	add    	esp, 0x30
  0x1322	inc    	ecx
  0x1323	pop    	esi
  0x1324	ret    	
  === BLOCK LINK ===
    0x1325
=== CODE BLOCK END ===

=== CODE BLOCK ADDRESS 0x1325 ===
  0x1325	int3   	
  0x1326	int3   	
  0x1327	int3   	
  0x1328	int3   	
  0x1329	int3   	
  === BLOCK LINK ===
    0x132a
=== CODE BLOCK END ===

=== CODE BLOCK ADDRESS 0x132a ===
  0x132a	int3   	
  0x132b	int3   	
  0x132c	int3   	
  0x132d	int3   	
  0x132e	int3   	
  === BLOCK LINK ===
    0x132f
=== CODE BLOCK END ===

=== CODE BLOCK ADDRESS 0x132f ===
  0x132f	int3   	
  0x1330	inc    	eax
  0x1331	push   	ebx
  0x1332	dec    	eax
  0x1333	sub    	esp, 0x20
  === BLOCK LINK ===
    0x1336
=== CODE BLOCK END ===

=== CODE BLOCK ADDRESS 0x1336 ===
  0x1336	xor    	ebx, ebx
  0x1338	dec    	ecx
  0x1339	mov    	dword ptr [eax], ebx
  0x133b	dec    	eax
  0x133c	mov    	eax, dword ptr [edx]
  === BLOCK LINK ===
    0x133e
=== CODE BLOCK END ===

=== CODE BLOCK ADDRESS 0x133e ===
  0x133e	dec    	eax
  0x133f	cmp    	eax, dword ptr [0x2cdb]
  0x1345	jne    	0x1354
  === BLOCK LINK ===
    0x1347
    0x1354
=== CODE BLOCK END ===

=== CODE BLOCK ADDRESS 0x1347 ===
  0x1347	dec    	eax
  0x1348	mov    	eax, dword ptr [edx + 8]
  0x134b	dec    	eax
  0x134c	cmp    	eax, dword ptr [0x2cd6]
  0x1352	je     	0x136d
  === BLOCK LINK ===
    0x1354
    0x136d
=== CODE BLOCK END ===

=== CODE BLOCK ADDRESS 0x1354 ===
  0x1354	dec    	eax
  0x1355	mov    	eax, dword ptr [edx]
  0x1357	dec    	eax
  0x1358	cmp    	eax, dword ptr [0x2e0a]
  0x135e	jne    	0x137f
  === BLOCK LINK ===
    0x1360
    0x137f
=== CODE BLOCK END ===

=== CODE BLOCK ADDRESS 0x1360 ===
  0x1360	dec    	eax
  0x1361	mov    	eax, dword ptr [edx + 8]
  0x1364	dec    	eax
  0x1365	cmp    	eax, dword ptr [0x2e05]
  0x136b	jne    	0x137f
  === BLOCK LINK ===
    0x136d
    0x137f
=== CODE BLOCK END ===

=== CODE BLOCK ADDRESS 0x136d ===
  0x136d	dec    	ecx
  0x136e	mov    	dword ptr [eax], ecx
  0x1370	dec    	eax
  0x1371	mov    	eax, dword ptr [ecx]
  0x1373	dec    	eax
  === BLOCK LINK ===
    0x1374
=== CODE BLOCK END ===

=== CODE BLOCK ADDRESS 0x1374 ===
  0x1374	mov    	eax, dword ptr [eax + 8]
  0x1377	call   	dword ptr [0x2b9b]
  === BLOCK LINK ===
    0x137d
=== CODE BLOCK END ===

=== CODE BLOCK ADDRESS 0x137d ===
  0x137d	jmp    	0x1384
  === BLOCK LINK ===
    0x137f
    0x1384
=== CODE BLOCK END ===

=== CODE BLOCK ADDRESS 0x137f ===
  0x137f	mov    	ebx, 0x80004002
  === BLOCK LINK ===
    0x1384
=== CODE BLOCK END ===

=== CODE BLOCK ADDRESS 0x138b ===
  0x138b	ret    	
  0x138c	int3   	
  0x138d	int3   	
  0x138e	int3   	
  0x138f	int3   	
  === BLOCK LINK ===
    0x1390
=== CODE BLOCK END ===

=== CODE BLOCK ADDRESS 0x1390 ===
  0x1390	int3   	
  0x1391	int3   	
  0x1392	int3   	
  0x1393	int3   	
  0x1394	int3   	
  === BLOCK LINK ===
    0x1395
=== CODE BLOCK END ===

=== CODE BLOCK ADDRESS 0x1395 ===
  0x1395	int3   	
  0x1396	int3   	
  0x1397	int3   	
  0x1398	int3   	
  0x1399	int3   	
  === BLOCK LINK ===
    0x139a
=== CODE BLOCK END ===

=== CODE BLOCK ADDRESS 0x139a ===
  0x139a	int3   	
  0x139b	int3   	
  0x139c	int3   	
  0x139d	int3   	
  0x139e	int3   	
  === BLOCK LINK ===
    0x139f
=== CODE BLOCK END ===

=== CODE BLOCK ADDRESS 0x139f ===
  0x139f	int3   	
  0x13a0	mov    	eax, 1
  0x13a5	lock xadd  	dword ptr [ecx + 8], eax
  0x13aa	inc    	eax
  0x13ac	ret    	
  === BLOCK LINK ===
    0x13ad
=== CODE BLOCK END ===

=== CODE BLOCK ADDRESS 0x25b0 ===
  0x25b0	dec    	eax
  0x25b1	cmp    	ecx, dword ptr [0x3a51]
  0x25b7	jne    	0x25c9
  === BLOCK LINK ===
    0x25b9
=== CODE BLOCK END ===

=== CODE BLOCK ADDRESS 0x13ad ===
  0x13ad	int3   	
  0x13ae	int3   	
  0x13af	int3   	
  0x13b0	int3   	
  0x13b1	int3   	
  === BLOCK LINK ===
    0x13b2
=== CODE BLOCK END ===

=== CODE BLOCK ADDRESS 0x13b2 ===
  0x13b2	int3   	
  0x13b3	int3   	
  0x13b4	int3   	
  0x13b5	int3   	
  0x13b6	int3   	
  === BLOCK LINK ===
    0x13b7
=== CODE BLOCK END ===

=== CODE BLOCK ADDRESS 0x13b7 ===
  0x13b7	int3   	
  0x13b8	int3   	
  0x13b9	int3   	
  0x13ba	int3   	
  0x13bb	int3   	
  === BLOCK LINK ===
    0x13bc
=== CODE BLOCK END ===

=== CODE BLOCK ADDRESS 0x13bc ===
  0x13bc	int3   	
  0x13bd	int3   	
  0x13be	int3   	
  0x13bf	int3   	
  0x13c0	inc    	eax
  === BLOCK LINK ===
    0x13c1
=== CODE BLOCK END ===

=== CODE BLOCK ADDRESS 0x13c1 ===
  0x13c1	push   	ebx
  0x13c2	dec    	eax
  0x13c3	sub    	esp, 0x20
  0x13c6	or     	ebx, 0xffffffff
  0x13c9	lock xadd  	dword ptr [ecx + 8], ebx
  === BLOCK LINK ===
    0x13ce
=== CODE BLOCK END ===

=== CODE BLOCK ADDRESS 0x13ce ===
  0x13ce	sub    	ebx, 1
  0x13d1	jne    	0x13e8
  === BLOCK LINK ===
    0x13d3
    0x13e8
=== CODE BLOCK END ===

=== CODE BLOCK ADDRESS 0x13d3 ===
  0x13d3	dec    	eax
  0x13d4	test   	ecx, ecx
  0x13d6	je     	0x13e8
  === BLOCK LINK ===
    0x13d8
    0x13e8
=== CODE BLOCK END ===

=== CODE BLOCK ADDRESS 0x13d8 ===
  0x13d8	dec    	eax
  0x13d9	mov    	edx, dword ptr [ecx]
  0x13db	dec    	eax
  0x13dc	mov    	eax, dword ptr [edx + 0x28]
  0x13df	lea    	edx, [ebx + 1]
  === BLOCK LINK ===
    0x13e2
=== CODE BLOCK END ===

=== CODE BLOCK ADDRESS 0x13e2 ===
  0x13e2	call   	dword ptr [0x2b30]
  === BLOCK LINK ===
    0x13e8
=== CODE BLOCK END ===

=== CODE BLOCK ADDRESS 0x13e8 ===
  0x13e8	mov    	eax, ebx
  0x13ea	dec    	eax
  0x13eb	add    	esp, 0x20
  0x13ee	pop    	ebx
  0x13ef	ret    	
  === BLOCK LINK ===
    0x13f0
=== CODE BLOCK END ===

=== CODE BLOCK ADDRESS 0x1168 ===
  0x1168	dec    	eax
  0x1169	sub    	esp, 0x28
  0x116c	dec    	eax
  === BLOCK LINK ===
    0x116d
=== CODE BLOCK END ===

=== CODE BLOCK ADDRESS 0x13f0 ===
  0x13f0	int3   	
  0x13f1	int3   	
  0x13f2	int3   	
  0x13f3	int3   	
  0x13f4	int3   	
  === BLOCK LINK ===
    0x13f5
=== CODE BLOCK END ===

=== CODE BLOCK ADDRESS 0x13f5 ===
  0x13f5	int3   	
  0x13f6	int3   	
  0x13f7	int3   	
  0x13f8	int3   	
  0x13f9	int3   	
  === BLOCK LINK ===
    0x13fa
=== CODE BLOCK END ===

=== CODE BLOCK ADDRESS 0x13fa ===
  0x13fa	int3   	
  0x13fb	int3   	
  0x13fc	int3   	
  0x13fd	int3   	
  0x13fe	int3   	
  === BLOCK LINK ===
    0x13ff
=== CODE BLOCK END ===

=== CODE BLOCK ADDRESS 0x13ff ===
  0x13ff	int3   	
  0x1400	dec    	eax
  0x1401	sub    	esp, 0x28
  0x1404	dec    	eax
  0x1405	mov    	eax, dword ptr [edx]
  === BLOCK LINK ===
    0x1407
=== CODE BLOCK END ===

=== CODE BLOCK ADDRESS 0x1407 ===
  0x1407	dec    	eax
  0x1408	cmp    	eax, dword ptr [0x2c12]
  0x140e	jne    	0x141d
  === BLOCK LINK ===
    0x1410
    0x141d
=== CODE BLOCK END ===

=== CODE BLOCK ADDRESS 0x1410 ===
  0x1410	dec    	eax
  0x1411	mov    	eax, dword ptr [edx + 8]
  0x1414	dec    	eax
  0x1415	cmp    	eax, dword ptr [0x2c0d]
  0x141b	je     	0x1436
  === BLOCK LINK ===
    0x141d
    0x1436
=== CODE BLOCK END ===

=== CODE BLOCK ADDRESS 0x141d ===
  0x141d	dec    	eax
  0x141e	mov    	eax, dword ptr [edx]
  0x1420	dec    	eax
  0x1421	cmp    	eax, dword ptr [0x2c09]
  0x1427	jne    	0x144a
  === BLOCK LINK ===
    0x1429
    0x144a
=== CODE BLOCK END ===

=== CODE BLOCK ADDRESS 0x1429 ===
  0x1429	dec    	eax
  0x142a	mov    	eax, dword ptr [edx + 8]
  0x142d	dec    	eax
  0x142e	cmp    	eax, dword ptr [0x2c04]
  0x1434	jne    	0x144a
  === BLOCK LINK ===
    0x1436
    0x144a
=== CODE BLOCK END ===

=== CODE BLOCK ADDRESS 0x1436 ===
  0x1436	dec    	ecx
  0x1437	mov    	dword ptr [eax], ecx
  0x1439	dec    	eax
  0x143a	mov    	eax, dword ptr [ecx]
  0x143c	dec    	eax
  === BLOCK LINK ===
    0x143d
=== CODE BLOCK END ===

=== CODE BLOCK ADDRESS 0x143d ===
  0x143d	mov    	eax, dword ptr [eax + 8]
  0x1440	call   	dword ptr [0x2ad2]
  === BLOCK LINK ===
    0x1446
=== CODE BLOCK END ===

=== CODE BLOCK ADDRESS 0x1446 ===
  0x1446	xor    	eax, eax
  0x1448	jmp    	0x1453
  === BLOCK LINK ===
    0x144a
    0x1453
=== CODE BLOCK END ===

=== CODE BLOCK ADDRESS 0x144a ===
  0x144a	dec    	ecx
  0x144b	and    	dword ptr [eax], 0
  0x144e	mov    	eax, 0x80004002
  === BLOCK LINK ===
    0x1453
=== CODE BLOCK END ===

=== CODE BLOCK ADDRESS 0x1457 ===
  0x1457	ret    	
  0x1458	int3   	
  0x1459	int3   	
  0x145a	int3   	
  0x145b	int3   	
  === BLOCK LINK ===
    0x145c
=== CODE BLOCK END ===

=== CODE BLOCK ADDRESS 0x145c ===
  0x145c	int3   	
  0x145d	int3   	
  0x145e	int3   	
  0x145f	int3   	
  0x1460	inc    	eax
  === BLOCK LINK ===
    0x1461
=== CODE BLOCK END ===

=== CODE BLOCK ADDRESS 0x1461 ===
  0x1461	push   	ebx
  0x1462	dec    	eax
  0x1463	sub    	esp, 0x20
  0x1466	or     	ebx, 0xffffffff
  0x1469	lock xadd  	dword ptr [ecx + 8], ebx
  === BLOCK LINK ===
    0x146e
=== CODE BLOCK END ===

=== CODE BLOCK ADDRESS 0x146e ===
  0x146e	sub    	ebx, 1
  0x1471	jne    	0x1487
  === BLOCK LINK ===
    0x1473
    0x1487
=== CODE BLOCK END ===

=== CODE BLOCK ADDRESS 0x1473 ===
  0x1473	dec    	eax
  0x1474	test   	ecx, ecx
  0x1476	je     	0x1487
  === BLOCK LINK ===
    0x1478
    0x1487
=== CODE BLOCK END ===

=== CODE BLOCK ADDRESS 0x1478 ===
  0x1478	dec    	eax
  0x1479	lea    	eax, [0x1bc1]
  0x147f	dec    	eax
  0x1480	mov    	dword ptr [ecx], eax
  0x1482	call   	0x21fc
  === BLOCK LINK ===
    0x1487
    0x21fc
=== CODE BLOCK END ===

=== CODE BLOCK ADDRESS 0x1487 ===
  0x1487	mov    	eax, ebx
  0x1489	dec    	eax
  0x148a	add    	esp, 0x20
  0x148d	pop    	ebx
  0x148e	ret    	
  === BLOCK LINK ===
    0x148f
=== CODE BLOCK END ===

=== CODE BLOCK ADDRESS 0x21fc ===
  0x21fc	jmp    	0x25ec
  === BLOCK LINK ===
    0x2201
=== CODE BLOCK END ===

=== CODE BLOCK ADDRESS 0x148f ===
  0x148f	int3   	
  0x1490	int3   	
  0x1491	int3   	
  0x1492	int3   	
  0x1493	int3   	
  === BLOCK LINK ===
    0x1494
=== CODE BLOCK END ===

=== CODE BLOCK ADDRESS 0x1494 ===
  0x1494	int3   	
  0x1495	int3   	
  0x1496	int3   	
  0x1497	int3   	
  0x1498	int3   	
  === BLOCK LINK ===
    0x1499
=== CODE BLOCK END ===

=== CODE BLOCK ADDRESS 0x1499 ===
  0x1499	int3   	
  0x149a	int3   	
  0x149b	int3   	
  0x149c	int3   	
  0x149d	int3   	
  === BLOCK LINK ===
    0x149e
=== CODE BLOCK END ===

=== CODE BLOCK ADDRESS 0x149e ===
  0x149e	int3   	
  0x149f	int3   	
  0x14a0	dec    	eax
  0x14a1	mov    	dword ptr [esp + 8], ebx
  0x14a5	dec    	eax
  === BLOCK LINK ===
    0x14a6
=== CODE BLOCK END ===

=== CODE BLOCK ADDRESS 0x14a6 ===
  0x14a6	mov    	dword ptr [esp + 0x10], ebp
  0x14aa	dec    	eax
  0x14ab	mov    	dword ptr [esp + 0x18], esi
  0x14af	push   	edi
  0x14b0	dec    	eax
  === BLOCK LINK ===
    0x14b1
=== CODE BLOCK END ===

=== CODE BLOCK ADDRESS 0x14b1 ===
  0x14b1	sub    	esp, 0x20
  0x14b4	dec    	ecx
  0x14b5	and    	dword ptr [ecx], 0
  0x14b8	dec    	ecx
  0x14b9	mov    	esi, ecx
  === BLOCK LINK ===
    0x14bb
=== CODE BLOCK END ===

=== CODE BLOCK ADDRESS 0x14bb ===
  0x14bb	dec    	ecx
  0x14bc	mov    	ebp, eax
  0x14be	dec    	eax
  0x14bf	test   	edx, edx
  0x14c1	je     	0x14cd
  === BLOCK LINK ===
    0x14c3
    0x14cd
=== CODE BLOCK END ===

=== CODE BLOCK ADDRESS 0x14c3 ===
  0x14c3	mov    	ebx, 0x80040110
  0x14c8	jmp    	0x15c3
  === BLOCK LINK ===
    0x14cd
    0x15c3
=== CODE BLOCK END ===

=== CODE BLOCK ADDRESS 0x14cd ===
  0x14cd	dec    	eax
  0x14ce	mov    	eax, dword ptr [ecx + 0xc]
  0x14d1	dec    	eax
  0x14d2	cmp    	eax, dword ptr [0x2c70]
  0x14d8	jne    	0x1543
  === BLOCK LINK ===
    0x14da
    0x1543
=== CODE BLOCK END ===

=== CODE BLOCK ADDRESS 0x14da ===
  0x14da	dec    	eax
  0x14db	mov    	eax, dword ptr [ecx + 0x14]
  0x14de	dec    	eax
  0x14df	cmp    	eax, dword ptr [0x2c6b]
  0x14e5	jne    	0x1543
  === BLOCK LINK ===
    0x14e7
    0x1543
=== CODE BLOCK END ===

=== CODE BLOCK ADDRESS 0x14e7 ===
  0x14e7	mov    	ecx, 0x10
  0x14ec	mov    	ebx, 0x8007000e
  0x14f1	call   	0x21bc
  === BLOCK LINK ===
    0x14f6
    0x21bc
=== CODE BLOCK END ===

=== CODE BLOCK ADDRESS 0x14f6 ===
  0x14f6	dec    	eax
  0x14f7	mov    	edi, eax
  0x14f9	dec    	eax
  0x14fa	test   	eax, eax
  0x14fc	je     	0x1518
  === BLOCK LINK ===
    0x14fe
    0x1518
=== CODE BLOCK END ===

=== CODE BLOCK ADDRESS 0x14fe ===
  0x14fe	dec    	eax
  0x14ff	lea    	eax, [0x1b0b]
  0x1505	mov    	dword ptr [edi + 8], 1
  0x150c	dec    	eax
  0x150d	mov    	dword ptr [edi], eax
  === BLOCK LINK ===
    0x150f
=== CODE BLOCK END ===

=== CODE BLOCK ADDRESS 0x150f ===
  0x150f	lock inc  	dword ptr [0x50ba]
  0x1516	jmp    	0x151a
  === BLOCK LINK ===
    0x1518
    0x151a
=== CODE BLOCK END ===

=== CODE BLOCK ADDRESS 0x1518 ===
  0x1518	xor    	edi, edi
  === BLOCK LINK ===
    0x151a
    0x15c3
=== CODE BLOCK END ===

=== CODE BLOCK ADDRESS 0x1523 ===
  0x1523	dec    	eax
  0x1524	mov    	eax, dword ptr [edi]
  0x1526	dec    	esp
  0x1527	mov    	eax, esi
  0x1529	dec    	eax
  === BLOCK LINK ===
    0x152a
=== CODE BLOCK END ===

=== CODE BLOCK ADDRESS 0x152a ===
  0x152a	mov    	edx, ebp
  0x152c	dec    	eax
  0x152d	mov    	ecx, edi
  0x152f	dec    	eax
  0x1530	mov    	eax, dword ptr [eax]
  === BLOCK LINK ===
    0x1532
=== CODE BLOCK END ===

=== CODE BLOCK ADDRESS 0x1532 ===
  0x1532	call   	dword ptr [0x29e0]
  === BLOCK LINK ===
    0x1538
=== CODE BLOCK END ===

=== CODE BLOCK ADDRESS 0x1538 ===
  0x1538	dec    	eax
  0x1539	mov    	edx, dword ptr [edi]
  0x153b	mov    	ebx, eax
  0x153d	dec    	eax
  0x153e	mov    	eax, dword ptr [edx + 0x10]
  === BLOCK LINK ===
    0x1541
=== CODE BLOCK END ===

=== CODE BLOCK ADDRESS 0x1541 ===
  0x1541	jmp    	0x15b3
  === BLOCK LINK ===
    0x1543
    0x15b3
=== CODE BLOCK END ===

=== CODE BLOCK ADDRESS 0x1543 ===
  0x1543	dec    	eax
  0x1544	mov    	eax, dword ptr [ecx + 0xc]
  0x1547	dec    	eax
  0x1548	cmp    	eax, dword ptr [0x2c0a]
  0x154e	jne    	0x15be
  === BLOCK LINK ===
    0x1550
=== CODE BLOCK END ===

=== CODE BLOCK ADDRESS 0x1550 ===
  0x1550	dec    	eax
  0x1551	mov    	eax, dword ptr [ecx + 0x14]
  0x1554	dec    	eax
  0x1555	cmp    	eax, dword ptr [0x2c05]
  0x155b	jne    	0x15be
  === BLOCK LINK ===
    0x155d
=== CODE BLOCK END ===

=== CODE BLOCK ADDRESS 0x155d ===
  0x155d	mov    	ecx, 0x10
  0x1562	mov    	ebx, 0x8007000e
  0x1567	call   	0x21bc
  === BLOCK LINK ===
    0x156c
=== CODE BLOCK END ===

=== CODE BLOCK ADDRESS 0x156c ===
  0x156c	dec    	eax
  0x156d	mov    	edi, eax
  0x156f	dec    	eax
  0x1570	test   	eax, eax
  0x1572	je     	0x158e
  === BLOCK LINK ===
    0x1574
=== CODE BLOCK END ===

=== CODE BLOCK ADDRESS 0x1574 ===
  0x1574	dec    	eax
  0x1575	lea    	eax, [0x1a95]
  0x157b	mov    	dword ptr [edi + 8], 1
  0x1582	dec    	eax
  0x1583	mov    	dword ptr [edi], eax
  === BLOCK LINK ===
    0x1585
=== CODE BLOCK END ===

=== CODE BLOCK ADDRESS 0x1585 ===
  0x1585	lock inc  	dword ptr [0x5044]
  0x158c	jmp    	0x1590
  === BLOCK LINK ===
    0x158e
=== CODE BLOCK END ===

=== CODE BLOCK ADDRESS 0x158e ===
  0x158e	xor    	edi, edi
  0x1590	dec    	eax
  0x1591	test   	edi, edi
  0x1593	je     	0x15c3
  === BLOCK LINK ===
    0x1595
=== CODE BLOCK END ===

=== CODE BLOCK ADDRESS 0x1595 ===
  0x1595	dec    	eax
  0x1596	mov    	eax, dword ptr [edi]
  0x1598	dec    	esp
  0x1599	mov    	eax, esi
  0x159b	dec    	eax
  === BLOCK LINK ===
    0x159c
=== CODE BLOCK END ===

=== CODE BLOCK ADDRESS 0x159c ===
  0x159c	mov    	edx, ebp
  0x159e	dec    	eax
  0x159f	mov    	ecx, edi
  0x15a1	dec    	eax
  0x15a2	mov    	eax, dword ptr [eax]
  === BLOCK LINK ===
    0x15a4
=== CODE BLOCK END ===

=== CODE BLOCK ADDRESS 0x15a4 ===
  0x15a4	call   	dword ptr [0x296e]
  === BLOCK LINK ===
    0x15aa
=== CODE BLOCK END ===

=== CODE BLOCK ADDRESS 0x15aa ===
  0x15aa	mov    	ebx, eax
  0x15ac	dec    	eax
  0x15ad	mov    	eax, dword ptr [edi]
  0x15af	dec    	eax
  0x15b0	mov    	eax, dword ptr [eax + 0x10]
  === BLOCK LINK ===
    0x15b3
=== CODE BLOCK END ===

=== CODE BLOCK ADDRESS 0x15b3 ===
  0x15b3	dec    	eax
  0x15b4	mov    	ecx, edi
  0x15b6	call   	dword ptr [0x295c]
  === BLOCK LINK ===
    0x15bc
=== CODE BLOCK END ===

=== CODE BLOCK ADDRESS 0x15bc ===
  0x15bc	jmp    	0x15c3
  === BLOCK LINK ===
    0x15be
=== CODE BLOCK END ===

=== CODE BLOCK ADDRESS 0x15be ===
  0x15be	mov    	ebx, 0x80040111
  === BLOCK LINK ===
    0x15c3
=== CODE BLOCK END ===

=== CODE BLOCK ADDRESS 0x15cb ===
  0x15cb	mov    	ebx, dword ptr [esp + 0x30]
  0x15cf	dec    	eax
  0x15d0	mov    	esi, dword ptr [esp + 0x40]
  0x15d4	dec    	eax
  0x15d5	add    	esp, 0x20
  === BLOCK LINK ===
    0x15d8
=== CODE BLOCK END ===

=== CODE BLOCK ADDRESS 0x15d8 ===
  0x15d8	pop    	edi
  0x15d9	ret    	
  0x15da	int3   	
  0x15db	int3   	
  0x15dc	int3   	
  === BLOCK LINK ===
    0x15dd
=== CODE BLOCK END ===

=== CODE BLOCK ADDRESS 0x119d ===
  0x119d	dec    	eax
  0x119e	add    	esp, 0x28
  0x11a1	ret    	
  0x11a2	int3   	
  === BLOCK LINK ===
    0x11a3
=== CODE BLOCK END ===

=== CODE BLOCK ADDRESS 0x15dd ===
  0x15dd	int3   	
  0x15de	int3   	
  0x15df	int3   	
  0x15e0	int3   	
  0x15e1	int3   	
  === BLOCK LINK ===
    0x15e2
=== CODE BLOCK END ===

=== CODE BLOCK ADDRESS 0x15e2 ===
  0x15e2	int3   	
  0x15e3	int3   	
  0x15e4	int3   	
  0x15e5	int3   	
  0x15e6	int3   	
  === BLOCK LINK ===
    0x15e7
=== CODE BLOCK END ===

=== CODE BLOCK ADDRESS 0x15e7 ===
  0x15e7	int3   	
  0x15e8	int3   	
  0x15e9	int3   	
  0x15ea	int3   	
  0x15eb	int3   	
  === BLOCK LINK ===
    0x15ec
=== CODE BLOCK END ===

=== CODE BLOCK ADDRESS 0x15ec ===
  0x15ec	int3   	
  0x15ed	int3   	
  0x15ee	int3   	
  0x15ef	int3   	
  0x15f0	dec    	eax
  === BLOCK LINK ===
    0x15f1
=== CODE BLOCK END ===

=== CODE BLOCK ADDRESS 0x15f1 ===
  0x15f1	sub    	esp, 0x28
  0x15f4	test   	edx, edx
  0x15f6	je     	0x1601
  === BLOCK LINK ===
    0x15f8
=== CODE BLOCK END ===

=== CODE BLOCK ADDRESS 0x15f8 ===
  0x15f8	lock inc  	dword ptr [0x4fd5]
  0x15ff	jmp    	0x1608
  === BLOCK LINK ===
    0x1601
=== CODE BLOCK END ===

=== CODE BLOCK ADDRESS 0x1601 ===
  0x1601	lock dec  	dword ptr [0x4fcc]
  0x1608	cmp    	dword ptr [0x4fc5], 0
  0x160f	jne    	0x1628
  === BLOCK LINK ===
    0x1611
=== CODE BLOCK END ===

=== CODE BLOCK ADDRESS 0x1611 ===
  0x1611	cmp    	dword ptr [0x4fb8], 0
  0x1618	jne    	0x1628
  === BLOCK LINK ===
    0x161a
=== CODE BLOCK END ===

=== CODE BLOCK ADDRESS 0x161a ===
  0x161a	xor    	ecx, ecx
  0x161c	dec    	eax
  0x161d	call   	dword ptr [0x27a5]
  === BLOCK LINK ===
    0x1623
=== CODE BLOCK END ===

=== CODE BLOCK ADDRESS 0x1623 ===
  0x1623	nop    	dword ptr [eax + eax]
  0x1628	xor    	eax, eax
  0x162a	dec    	eax
  0x162b	add    	esp, 0x28
  0x162e	ret    	
  === BLOCK LINK ===
    0x162f
=== CODE BLOCK END ===

=== CODE BLOCK ADDRESS 0x162f ===
  0x162f	int3   	
  0x1630	int3   	
  0x1631	int3   	
  0x1632	int3   	
  0x1633	int3   	
  === BLOCK LINK ===
    0x1634
=== CODE BLOCK END ===

=== CODE BLOCK ADDRESS 0x1634 ===
  0x1634	int3   	
  0x1635	int3   	
  0x1636	int3   	
  0x1637	int3   	
  0x1638	dec    	eax
  === BLOCK LINK ===
    0x1639
=== CODE BLOCK END ===

=== CODE BLOCK ADDRESS 0x1639 ===
  0x1639	mov    	dword ptr [esp + 0x10], ebx
  0x163d	push   	ebp
  0x163e	dec    	eax
  0x163f	lea    	ebp, [esp - 0x57]
  0x1643	dec    	eax
  === BLOCK LINK ===
    0x1644
=== CODE BLOCK END ===

=== CODE BLOCK ADDRESS 0x1644 ===
  0x1644	sub    	esp, 0xa0
  0x164a	dec    	eax
  0x164b	mov    	eax, dword ptr [0x49b7]
  0x1651	dec    	eax
  0x1652	xor    	eax, esp
  === BLOCK LINK ===
    0x1654
=== CODE BLOCK END ===

=== CODE BLOCK ADDRESS 0x1654 ===
  0x1654	dec    	eax
  0x1655	mov    	dword ptr [ebp + 0x47], eax
  0x1658	movzx  	eax, word ptr [0x2aa1]
  0x165f	dec    	eax
  0x1660	lea    	edx, [ebp - 0x19]
  === BLOCK LINK ===
    0x1663
=== CODE BLOCK END ===

=== CODE BLOCK ADDRESS 0x1663 ===
  0x1663	mov    	word ptr [ebp - 0x19], ax
  0x1667	mov    	al, byte ptr [0x2a95]
  0x166d	mov    	byte ptr [ebp - 0x17], al
  0x1670	dec    	eax
  0x1671	call   	dword ptr [0x27e9]
  === BLOCK LINK ===
    0x1677
=== CODE BLOCK END ===

=== CODE BLOCK ADDRESS 0x1677 ===
  0x1677	nop    	dword ptr [eax + eax]
  0x167c	dec    	eax
  0x167d	mov    	ecx, eax
  0x167f	dec    	eax
  0x1680	lea    	edx, [0x2a82]
  === BLOCK LINK ===
    0x1686
=== CODE BLOCK END ===

=== CODE BLOCK ADDRESS 0x1686 ===
  0x1686	dec    	eax
  0x1687	mov    	ebx, eax
  0x1689	dec    	eax
  0x168a	call   	dword ptr [0x2610]
  === BLOCK LINK ===
    0x1690
=== CODE BLOCK END ===

=== CODE BLOCK ADDRESS 0x1690 ===
  0x1690	nop    	dword ptr [eax + eax]
  0x1695	test   	eax, eax
  0x1697	je     	0x17ed
  === BLOCK LINK ===
    0x169d
=== CODE BLOCK END ===

=== CODE BLOCK ADDRESS 0x169d ===
  0x169d	dec    	eax
  0x169e	lea    	edx, [0x2a74]
  0x16a4	dec    	eax
  0x16a5	mov    	ecx, ebx
  0x16a7	dec    	eax
  === BLOCK LINK ===
    0x16a8
=== CODE BLOCK END ===

=== CODE BLOCK ADDRESS 0x16a8 ===
  0x16a8	call   	dword ptr [0x25f2]
  === BLOCK LINK ===
    0x16ae
=== CODE BLOCK END ===

=== CODE BLOCK ADDRESS 0x16ae ===
  0x16ae	nop    	dword ptr [eax + eax]
  0x16b3	test   	eax, eax
  0x16b5	je     	0x17ed
  === BLOCK LINK ===
    0x16bb
=== CODE BLOCK END ===

=== CODE BLOCK ADDRESS 0x16bb ===
  0x16bb	dec    	eax
  0x16bc	lea    	edx, [0x2a66]
  0x16c2	dec    	eax
  0x16c3	mov    	ecx, ebx
  0x16c5	dec    	eax
  === BLOCK LINK ===
    0x16c6
=== CODE BLOCK END ===

=== CODE BLOCK ADDRESS 0x16c6 ===
  0x16c6	call   	dword ptr [0x25d4]
  === BLOCK LINK ===
    0x16cc
=== CODE BLOCK END ===

=== CODE BLOCK ADDRESS 0x16cc ===
  0x16cc	nop    	dword ptr [eax + eax]
  0x16d1	test   	eax, eax
  0x16d3	jne    	0x180d
  === BLOCK LINK ===
    0x16d9
=== CODE BLOCK END ===

=== CODE BLOCK ADDRESS 0x16d9 ===
  0x16d9	xor    	ecx, ecx
  0x16db	dec    	eax
  0x16dc	call   	dword ptr [0x2816]
  === BLOCK LINK ===
    0x16e2
=== CODE BLOCK END ===

=== CODE BLOCK ADDRESS 0x16e2 ===
  0x16e2	nop    	dword ptr [eax + eax]
  0x16e7	test   	eax, eax
  0x16e9	js     	0x17ed
  === BLOCK LINK ===
    0x16ef
=== CODE BLOCK END ===

=== CODE BLOCK ADDRESS 0x16ef ===
  0x16ef	movups  	xmm0, xmmword ptr [0x2a62]
  0x16f6	dec    	eax
  0x16f7	lea    	edx, [ebp - 0x11]
  0x16fa	dec    	eax
  0x16fb	lea    	ecx, [ebp - 9]
  === BLOCK LINK ===
    0x16fe
=== CODE BLOCK END ===

=== CODE BLOCK ADDRESS 0x16fe ===
  0x16fe	movdqu  	xmmword ptr [ebp + 0x37], xmm0
  0x1703	call   	0x2078
  === BLOCK LINK ===
    0x1708
=== CODE BLOCK END ===

=== CODE BLOCK ADDRESS 0x1708 ===
  0x1708	test   	eax, eax
  0x170a	js     	0x17e1
  === BLOCK LINK ===
    0x1710
=== CODE BLOCK END ===

=== CODE BLOCK ADDRESS 0x1710 ===
  0x1710	mov    	ecx, 0x20
  0x1715	call   	0x21bc
  === BLOCK LINK ===
    0x171a
=== CODE BLOCK END ===

=== CODE BLOCK ADDRESS 0x171a ===
  0x171a	dec    	eax
  0x171b	mov    	ebx, eax
  0x171d	dec    	eax
  0x171e	test   	eax, eax
  0x1720	je     	0x173e
  === BLOCK LINK ===
    0x1722
=== CODE BLOCK END ===

=== CODE BLOCK ADDRESS 0x1722 ===
  0x1722	movaps  	xmm0, xmmword ptr [ebp + 0x37]
  0x1726	dec    	eax
  0x1727	lea    	eax, [0x1913]
  0x172d	dec    	eax
  0x172e	mov    	dword ptr [ebx], eax
  === BLOCK LINK ===
    0x1730
=== CODE BLOCK END ===

=== CODE BLOCK ADDRESS 0x1730 ===
  0x1730	movdqu  	xmmword ptr [ebx + 0xc], xmm0
  0x1735	mov    	dword ptr [ebx + 8], 1
  0x173c	jmp    	0x1740
  === BLOCK LINK ===
    0x173e
=== CODE BLOCK END ===

=== CODE BLOCK ADDRESS 0x173e ===
  0x173e	xor    	ebx, ebx
  0x1740	dec    	eax
  0x1741	test   	ebx, ebx
  0x1743	je     	0x17b9
  === BLOCK LINK ===
    0x1745
=== CODE BLOCK END ===

=== CODE BLOCK ADDRESS 0x1745 ===
  0x1745	inc    	ebp
  0x1746	xor    	ecx, ecx
  0x1748	dec    	eax
  0x1749	lea    	eax, [ebp - 0x15]
  0x174c	dec    	eax
  === BLOCK LINK ===
    0x174d
=== CODE BLOCK END ===

=== CODE BLOCK ADDRESS 0x174d ===
  0x174d	mov    	edx, ebx
  0x174f	dec    	eax
  0x1750	mov    	dword ptr [esp + 0x20], eax
  0x1754	dec    	eax
  0x1755	lea    	ecx, [ebp + 0x37]
  === BLOCK LINK ===
    0x1758
=== CODE BLOCK END ===

=== CODE BLOCK ADDRESS 0x1758 ===
  0x1758	inc    	ebp
  0x1759	lea    	eax, [ecx + 4]
  0x175c	dec    	eax
  0x175d	call   	dword ptr [0x2785]
  === BLOCK LINK ===
    0x1763
=== CODE BLOCK END ===

=== CODE BLOCK ADDRESS 0x1763 ===
  0x1763	nop    	dword ptr [eax + eax]
  0x1768	test   	eax, eax
  0x176a	js     	0x17a9
  === BLOCK LINK ===
    0x176c
=== CODE BLOCK END ===

=== CODE BLOCK ADDRESS 0x176c ===
  0x176c	jmp    	0x177e
  === BLOCK LINK ===
    0x176e
=== CODE BLOCK END ===

=== CODE BLOCK ADDRESS 0x176e ===
  0x176e	dec    	eax
  0x176f	lea    	ecx, [ebp - 1]
  0x1772	dec    	eax
  0x1773	call   	dword ptr [0x2637]
  === BLOCK LINK ===
    0x1779
=== CODE BLOCK END ===

=== CODE BLOCK ADDRESS 0x1779 ===
  0x1779	nop    	dword ptr [eax + eax]
  0x177e	inc    	ebp
  0x177f	xor    	ecx, ecx
  0x1781	dec    	eax
  0x1782	lea    	ecx, [ebp - 1]
  === BLOCK LINK ===
    0x1785
=== CODE BLOCK END ===

=== CODE BLOCK ADDRESS 0x1785 ===
  0x1785	inc    	ebp
  0x1786	xor    	eax, eax
  0x1788	xor    	edx, edx
  0x178a	dec    	eax
  0x178b	call   	dword ptr [0x2627]
  === BLOCK LINK ===
    0x1791
=== CODE BLOCK END ===

=== CODE BLOCK ADDRESS 0x1791 ===
  0x1791	nop    	dword ptr [eax + eax]
  0x1796	test   	eax, eax
  0x1798	jne    	0x176e
  === BLOCK LINK ===
    0x179a
=== CODE BLOCK END ===

=== CODE BLOCK ADDRESS 0x179a ===
  0x179a	mov    	ecx, dword ptr [ebp - 0x15]
  0x179d	dec    	eax
  0x179e	call   	dword ptr [0x273c]
  === BLOCK LINK ===
    0x17a4
=== CODE BLOCK END ===

=== CODE BLOCK ADDRESS 0x17a4 ===
  0x17a4	nop    	dword ptr [eax + eax]
  0x17a9	dec    	eax
  0x17aa	mov    	eax, dword ptr [ebx]
  0x17ac	dec    	eax
  0x17ad	mov    	ecx, ebx
  === BLOCK LINK ===
    0x17af
=== CODE BLOCK END ===

=== CODE BLOCK ADDRESS 0x17af ===
  0x17af	dec    	eax
  0x17b0	mov    	eax, dword ptr [eax + 0x10]
  0x17b3	call   	dword ptr [0x275f]
  === BLOCK LINK ===
    0x17b9
=== CODE BLOCK END ===

=== CODE BLOCK ADDRESS 0x17b9 ===
  0x17b9	mov    	ecx, dword ptr [ebp - 0x11]
  0x17bc	dec    	eax
  0x17bd	mov    	ebx, dword ptr [ebp - 9]
  0x17c0	dec    	eax
  0x17c1	call   	dword ptr [0x2719]
  === BLOCK LINK ===
    0x17c7
=== CODE BLOCK END ===

=== CODE BLOCK ADDRESS 0x17c7 ===
  0x17c7	nop    	dword ptr [eax + eax]
  0x17cc	dec    	eax
  0x17cd	test   	ebx, ebx
  0x17cf	je     	0x17e1
  === BLOCK LINK ===
    0x17d1
=== CODE BLOCK END ===

=== CODE BLOCK ADDRESS 0x17d1 ===
  0x17d1	dec    	eax
  0x17d2	mov    	eax, dword ptr [ebx]
  0x17d4	dec    	eax
  0x17d5	mov    	ecx, ebx
  0x17d7	dec    	eax
  === BLOCK LINK ===
    0x17d8
=== CODE BLOCK END ===

=== CODE BLOCK ADDRESS 0x17d8 ===
  0x17d8	mov    	eax, dword ptr [eax + 0x10]
  0x17db	call   	dword ptr [0x2737]
  === BLOCK LINK ===
    0x17e1
=== CODE BLOCK END ===

=== CODE BLOCK ADDRESS 0x17e1 ===
  0x17e1	dec    	eax
  0x17e2	call   	dword ptr [0x2708]
  === BLOCK LINK ===
    0x17e8
=== CODE BLOCK END ===

=== CODE BLOCK ADDRESS 0x17e8 ===
  0x17e8	nop    	dword ptr [eax + eax]
  0x17ed	xor    	eax, eax
  0x17ef	dec    	eax
  0x17f0	mov    	ecx, dword ptr [ebp + 0x47]
  0x17f3	dec    	eax
  === BLOCK LINK ===
    0x17f4
=== CODE BLOCK END ===

=== CODE BLOCK ADDRESS 0x17f4 ===
  0x17f4	xor    	ecx, esp
  0x17f6	call   	0x25b0
  === BLOCK LINK ===
    0x17fb
=== CODE BLOCK END ===

=== CODE BLOCK ADDRESS 0x17fb ===
  0x17fb	dec    	eax
  0x17fc	mov    	ebx, dword ptr [esp + 0xb8]
  0x1803	dec    	eax
  0x1804	add    	esp, 0xa0
  0x180a	pop    	ebp
  === BLOCK LINK ===
    0x180b
=== CODE BLOCK END ===

=== CODE BLOCK ADDRESS 0x180b ===
  0x180b	ret    	
  0x180c	int3   	
  0x180d	mov    	eax, 1
  0x1812	jmp    	0x17ef
  === BLOCK LINK ===
    0x1814
=== CODE BLOCK END ===

=== CODE BLOCK ADDRESS 0x1dc8 ===
  0x1dc8	dec    	eax
  0x1dc9	mov    	dword ptr [esp + 0x10], edx
  0x1dcd	push   	ebp
  0x1dce	push   	ebx
  0x1dcf	push   	esi
  === BLOCK LINK ===
    0x1dd0
=== CODE BLOCK END ===

=== CODE BLOCK ADDRESS 0x1814 ===
  0x1814	int3   	
  0x1815	int3   	
  0x1816	int3   	
  0x1817	int3   	
  0x1818	int3   	
  === BLOCK LINK ===
    0x1819
=== CODE BLOCK END ===

=== CODE BLOCK ADDRESS 0x1819 ===
  0x1819	int3   	
  0x181a	int3   	
  0x181b	int3   	
  === BLOCK LINK ===
    0x181c
=== CODE BLOCK END ===

=== CODE BLOCK ADDRESS 0x181f ===
  0x181f	je     	0x1990
  === BLOCK LINK ===
    0x1825
=== CODE BLOCK END ===

=== CODE BLOCK ADDRESS 0x1825 ===
  0x1825	dec    	eax
  0x1826	mov    	dword ptr [esp + 8], ebx
  0x182a	dec    	eax
  0x182b	mov    	dword ptr [esp + 0x10], ebp
  0x182f	dec    	eax
  === BLOCK LINK ===
    0x1830
=== CODE BLOCK END ===

=== CODE BLOCK ADDRESS 0x1830 ===
  0x1830	mov    	dword ptr [esp + 0x18], esi
  0x1834	push   	edi
  0x1835	dec    	eax
  0x1836	sub    	esp, 0x20
  0x1839	dec    	eax
  === BLOCK LINK ===
    0x183a
=== CODE BLOCK END ===

=== CODE BLOCK ADDRESS 0x183a ===
  0x183a	mov    	edi, dword ptr [ecx + 0x38]
  0x183d	xor    	ebp, ebp
  0x183f	dec    	eax
  0x1840	mov    	ebx, ecx
  0x1842	dec    	eax
  === BLOCK LINK ===
    0x1843
=== CODE BLOCK END ===

=== CODE BLOCK ADDRESS 0x1843 ===
  0x1843	test   	edi, edi
  0x1845	je     	0x1874
  === BLOCK LINK ===
    0x1847
=== CODE BLOCK END ===

=== CODE BLOCK ADDRESS 0x1847 ===
  0x1847	dec    	eax
  0x1848	mov    	ecx, dword ptr [edi + 8]
  0x184b	call   	0x21fc
  === BLOCK LINK ===
    0x1850
=== CODE BLOCK END ===

=== CODE BLOCK ADDRESS 0x1850 ===
  0x1850	dec    	eax
  0x1851	mov    	ecx, dword ptr [edi + 0x10]
  0x1854	call   	0x21fc
  === BLOCK LINK ===
    0x1859
=== CODE BLOCK END ===

=== CODE BLOCK ADDRESS 0x1859 ===
  0x1859	dec    	eax
  0x185a	mov    	ecx, dword ptr [edi + 0x20]
  0x185d	call   	0x21fc
  === BLOCK LINK ===
    0x1862
=== CODE BLOCK END ===

=== CODE BLOCK ADDRESS 0x1862 ===
  0x1862	dec    	eax
  0x1863	mov    	dword ptr [edi], ebp
  0x1865	dec    	eax
  0x1866	mov    	dword ptr [edi + 8], ebp
  0x1869	dec    	eax
  === BLOCK LINK ===
    0x186a
=== CODE BLOCK END ===

=== CODE BLOCK ADDRESS 0x186a ===
  0x186a	mov    	dword ptr [edi + 0x10], ebp
  0x186d	mov    	dword ptr [edi + 0x18], ebp
  0x1870	dec    	eax
  0x1871	mov    	dword ptr [edi + 0x20], ebp
  0x1874	dec    	eax
  === BLOCK LINK ===
    0x1875
=== CODE BLOCK END ===

=== CODE BLOCK ADDRESS 0x1875 ===
  0x1875	mov    	edi, dword ptr [ebx + 0x48]
  0x1878	dec    	eax
  0x1879	test   	edi, edi
  0x187b	je     	0x18bf
  === BLOCK LINK ===
    0x187d
=== CODE BLOCK END ===

=== CODE BLOCK ADDRESS 0x187d ===
  0x187d	cmp    	dword ptr [ebx + 0x40], ebp
  0x1880	jbe    	0x18bf
  === BLOCK LINK ===
    0x1882
=== CODE BLOCK END ===

=== CODE BLOCK ADDRESS 0x1882 ===
  0x1882	mov    	esi, dword ptr [ebx + 0x40]
  0x1885	dec    	eax
  0x1886	add    	edi, 8
  0x1889	dec    	eax
  0x188a	mov    	ecx, dword ptr [edi]
  === BLOCK LINK ===
    0x188c
=== CODE BLOCK END ===

=== CODE BLOCK ADDRESS 0x188c ===
  0x188c	call   	0x21fc
  === BLOCK LINK ===
    0x1891
=== CODE BLOCK END ===

=== CODE BLOCK ADDRESS 0x1891 ===
  0x1891	dec    	eax
  0x1892	mov    	ecx, dword ptr [edi + 8]
  0x1895	call   	0x21fc
  === BLOCK LINK ===
    0x189a
=== CODE BLOCK END ===

=== CODE BLOCK ADDRESS 0x189a ===
  0x189a	dec    	eax
  0x189b	mov    	ecx, dword ptr [edi + 0x18]
  0x189e	call   	0x21fc
  === BLOCK LINK ===
    0x18a3
=== CODE BLOCK END ===

=== CODE BLOCK ADDRESS 0x18a3 ===
  0x18a3	dec    	eax
  0x18a4	mov    	dword ptr [edi - 8], ebp
  0x18a7	dec    	eax
  0x18a8	mov    	dword ptr [edi], ebp
  0x18aa	dec    	eax
  === BLOCK LINK ===
    0x18ab
=== CODE BLOCK END ===

=== CODE BLOCK ADDRESS 0x18ab ===
  0x18ab	mov    	dword ptr [edi + 8], ebp
  0x18ae	mov    	dword ptr [edi + 0x10], ebp
  0x18b1	dec    	eax
  0x18b2	mov    	dword ptr [edi + 0x18], ebp
  0x18b5	dec    	eax
  === BLOCK LINK ===
    0x18b6
=== CODE BLOCK END ===

=== CODE BLOCK ADDRESS 0x18b6 ===
  0x18b6	lea    	edi, [edi + 0x28]
  0x18b9	dec    	eax
  0x18ba	sub    	esi, 1
  0x18bd	jne    	0x1889
  === BLOCK LINK ===
    0x18bf
=== CODE BLOCK END ===

=== CODE BLOCK ADDRESS 0x18bf ===
  0x18bf	dec    	eax
  0x18c0	mov    	edi, dword ptr [ebx + 0x58]
  0x18c3	dec    	eax
  0x18c4	test   	edi, edi
  0x18c6	je     	0x1901
  === BLOCK LINK ===
    0x18c8
=== CODE BLOCK END ===

=== CODE BLOCK ADDRESS 0x18c8 ===
  0x18c8	cmp    	dword ptr [ebx + 0x50], ebp
  0x18cb	jbe    	0x1901
  === BLOCK LINK ===
    0x18cd
=== CODE BLOCK END ===

=== CODE BLOCK ADDRESS 0x18cd ===
  0x18cd	mov    	esi, dword ptr [ebx + 0x50]
  0x18d0	dec    	eax
  0x18d1	add    	edi, 0x10
  0x18d4	dec    	eax
  0x18d5	mov    	ecx, dword ptr [edi]
  === BLOCK LINK ===
    0x18d7
=== CODE BLOCK END ===

=== CODE BLOCK ADDRESS 0x18d7 ===
  0x18d7	call   	0x21fc
  === BLOCK LINK ===
    0x18dc
=== CODE BLOCK END ===

=== CODE BLOCK ADDRESS 0x18dc ===
  0x18dc	dec    	eax
  0x18dd	mov    	ecx, dword ptr [edi + 8]
  0x18e0	call   	0x21fc
  === BLOCK LINK ===
    0x18e5
=== CODE BLOCK END ===

=== CODE BLOCK ADDRESS 0x18e5 ===
  0x18e5	dec    	eax
  0x18e6	mov    	dword ptr [edi - 0x10], ebp
  0x18e9	mov    	dword ptr [edi - 8], ebp
  0x18ec	dec    	eax
  0x18ed	mov    	dword ptr [edi], ebp
  === BLOCK LINK ===
    0x18ef
=== CODE BLOCK END ===

=== CODE BLOCK ADDRESS 0x18ef ===
  0x18ef	dec    	eax
  0x18f0	mov    	dword ptr [edi + 8], ebp
  0x18f3	dec    	eax
  0x18f4	mov    	dword ptr [edi + 0x10], ebp
  0x18f7	dec    	eax
  === BLOCK LINK ===
    0x18f8
=== CODE BLOCK END ===

=== CODE BLOCK ADDRESS 0x18f8 ===
  0x18f8	lea    	edi, [edi + 0x28]
  0x18fb	dec    	eax
  0x18fc	sub    	esi, 1
  0x18ff	jne    	0x18d4
  === BLOCK LINK ===
    0x1901
=== CODE BLOCK END ===

=== CODE BLOCK ADDRESS 0x1901 ===
  0x1901	dec    	eax
  0x1902	mov    	ecx, dword ptr [ebx + 8]
  0x1905	call   	0x21fc
  === BLOCK LINK ===
    0x190a
=== CODE BLOCK END ===

=== CODE BLOCK ADDRESS 0x190a ===
  0x190a	dec    	eax
  0x190b	mov    	ecx, dword ptr [ebx + 0x10]
  0x190e	call   	0x21fc
  === BLOCK LINK ===
    0x1913
=== CODE BLOCK END ===

=== CODE BLOCK ADDRESS 0x1913 ===
  0x1913	dec    	eax
  0x1914	mov    	ecx, dword ptr [ebx + 0x18]
  0x1917	call   	0x21fc
  === BLOCK LINK ===
    0x191c
=== CODE BLOCK END ===

=== CODE BLOCK ADDRESS 0x191c ===
  0x191c	dec    	eax
  0x191d	mov    	ecx, dword ptr [ebx + 0x20]
  0x1920	call   	0x21fc
  === BLOCK LINK ===
    0x1925
=== CODE BLOCK END ===

=== CODE BLOCK ADDRESS 0x1925 ===
  0x1925	dec    	eax
  0x1926	mov    	ecx, dword ptr [ebx + 0x28]
  0x1929	call   	0x21fc
  === BLOCK LINK ===
    0x192e
=== CODE BLOCK END ===

=== CODE BLOCK ADDRESS 0x192e ===
  0x192e	dec    	eax
  0x192f	mov    	ecx, dword ptr [ebx + 0x38]
  0x1932	call   	0x21fc
  === BLOCK LINK ===
    0x1937
=== CODE BLOCK END ===

=== CODE BLOCK ADDRESS 0x1937 ===
  0x1937	dec    	eax
  0x1938	mov    	ecx, dword ptr [ebx + 0x48]
  0x193b	call   	0x21fc
  === BLOCK LINK ===
    0x1940
=== CODE BLOCK END ===

=== CODE BLOCK ADDRESS 0x1940 ===
  0x1940	dec    	eax
  0x1941	mov    	ecx, dword ptr [ebx + 0x58]
  0x1944	call   	0x21fc
  === BLOCK LINK ===
    0x1949
=== CODE BLOCK END ===

=== CODE BLOCK ADDRESS 0x1949 ===
  0x1949	dec    	eax
  0x194a	mov    	ecx, ebx
  0x194c	mov    	dword ptr [ebx], ebp
  0x194e	dec    	eax
  0x194f	mov    	dword ptr [ebx + 8], ebp
  === BLOCK LINK ===
    0x1952
=== CODE BLOCK END ===

=== CODE BLOCK ADDRESS 0x1952 ===
  0x1952	dec    	eax
  0x1953	mov    	dword ptr [ebx + 0x10], ebp
  0x1956	dec    	eax
  0x1957	mov    	dword ptr [ebx + 0x18], ebp
  0x195a	dec    	eax
  === BLOCK LINK ===
    0x195b
=== CODE BLOCK END ===

=== CODE BLOCK ADDRESS 0x195b ===
  0x195b	mov    	dword ptr [ebx + 0x20], ebp
  0x195e	dec    	eax
  0x195f	mov    	dword ptr [ebx + 0x28], ebp
  0x1962	mov    	dword ptr [ebx + 0x30], ebp
  0x1965	dec    	eax
  === BLOCK LINK ===
    0x1966
=== CODE BLOCK END ===

=== CODE BLOCK ADDRESS 0x1966 ===
  0x1966	mov    	dword ptr [ebx + 0x38], ebp
  0x1969	mov    	dword ptr [ebx + 0x40], ebp
  0x196c	dec    	eax
  0x196d	mov    	dword ptr [ebx + 0x48], ebp
  0x1970	mov    	dword ptr [ebx + 0x50], ebp
  === BLOCK LINK ===
    0x1973
=== CODE BLOCK END ===

=== CODE BLOCK ADDRESS 0x1973 ===
  0x1973	dec    	eax
  0x1974	mov    	dword ptr [ebx + 0x58], ebp
  0x1977	call   	0x21fc
  === BLOCK LINK ===
    0x197c
=== CODE BLOCK END ===

=== CODE BLOCK ADDRESS 0x197c ===
  0x197c	dec    	eax
  0x197d	mov    	ebx, dword ptr [esp + 0x30]
  0x1981	dec    	eax
  0x1982	mov    	ebp, dword ptr [esp + 0x38]
  0x1986	dec    	eax
  === BLOCK LINK ===
    0x1987
=== CODE BLOCK END ===

=== CODE BLOCK ADDRESS 0x1987 ===
  0x1987	mov    	esi, dword ptr [esp + 0x40]
  0x198b	dec    	eax
  0x198c	add    	esp, 0x20
  0x198f	pop    	edi
  0x1990	ret    	
  === BLOCK LINK ===
    0x1991
=== CODE BLOCK END ===

=== CODE BLOCK ADDRESS 0x1991 ===
  0x1991	int3   	
  0x1992	int3   	
  0x1993	int3   	
  0x1994	int3   	
  0x1995	int3   	
  === BLOCK LINK ===
    0x1996
=== CODE BLOCK END ===

=== CODE BLOCK ADDRESS 0x1996 ===
  0x1996	int3   	
  0x1997	int3   	
  0x1998	dec    	eax
  0x1999	mov    	dword ptr [esp + 8], ebx
  0x199d	dec    	eax
  === BLOCK LINK ===
    0x199e
=== CODE BLOCK END ===

=== CODE BLOCK ADDRESS 0x199e ===
  0x199e	mov    	dword ptr [esp + 0x10], ebp
  0x19a2	dec    	eax
  0x19a3	mov    	dword ptr [esp + 0x18], esi
  0x19a7	push   	edi
  0x19a8	inc    	ecx
  === BLOCK LINK ===
    0x19a9
=== CODE BLOCK END ===

=== CODE BLOCK ADDRESS 0x19a9 ===
  0x19a9	push   	esi
  0x19aa	inc    	ecx
  0x19ab	push   	edi
  0x19ac	dec    	eax
  0x19ad	sub    	esp, 0x20
  === BLOCK LINK ===
    0x19b0
=== CODE BLOCK END ===

=== CODE BLOCK ADDRESS 0x19b0 ===
  0x19b0	dec    	ecx
  0x19b1	and    	dword ptr [eax], 0
  0x19b4	xor    	ebx, ebx
  0x19b6	mov    	ebp, edx
  0x19b8	dec    	ecx
  === BLOCK LINK ===
    0x19b9
=== CODE BLOCK END ===

=== CODE BLOCK ADDRESS 0x19b9 ===
  0x19b9	mov    	edi, eax
  0x19bb	dec    	esp
  0x19bc	mov    	edi, ecx
  0x19be	dec    	eax
  0x19bf	test   	ecx, ecx
  === BLOCK LINK ===
    0x19c1
=== CODE BLOCK END ===

=== CODE BLOCK ADDRESS 0x19c1 ===
  0x19c1	je     	0x1a98
  === BLOCK LINK ===
    0x19c7
=== CODE BLOCK END ===

=== CODE BLOCK ADDRESS 0x19c7 ===
  0x19c7	xor    	esi, esi
  0x19c9	mov    	ebx, 0x80070057
  0x19ce	test   	edx, edx
  0x19d0	je     	0x1a15
  === BLOCK LINK ===
    0x19d2
=== CODE BLOCK END ===

=== CODE BLOCK ADDRESS 0x19d2 ===
  0x19d2	dec    	eax
  0x19d3	lea    	ecx, [esi - 1]
  0x19d6	lea    	eax, [esi + 0x28]
  0x19d9	dec    	eax
  0x19da	mul    	ebp
  === BLOCK LINK ===
    0x19dc
=== CODE BLOCK END ===

=== CODE BLOCK ADDRESS 0x19dc ===
  0x19dc	dec    	eax
  0x19dd	cmovo  	eax, ecx
  0x19e0	dec    	eax
  0x19e1	mov    	ecx, eax
  0x19e3	call   	0x21bc
  === BLOCK LINK ===
    0x19e8
=== CODE BLOCK END ===

=== CODE BLOCK ADDRESS 0x19e8 ===
  0x19e8	dec    	eax
  0x19e9	mov    	esi, eax
  0x19eb	dec    	eax
  0x19ec	test   	eax, eax
  0x19ee	jne    	0x19fa
  === BLOCK LINK ===
    0x19f0
=== CODE BLOCK END ===

=== CODE BLOCK ADDRESS 0x19f0 ===
  0x19f0	mov    	ebx, 0x8007000e
  0x19f5	jmp    	0x1a98
  === BLOCK LINK ===
    0x19fa
=== CODE BLOCK END ===

=== CODE BLOCK ADDRESS 0x19fa ===
  0x19fa	dec    	esp
  0x19fb	lea    	eax, [ebp*4]
  0x1a02	xor    	edx, edx
  0x1a04	dec    	esp
  0x1a05	add    	eax, ebp
  === BLOCK LINK ===
    0x1a07
=== CODE BLOCK END ===

=== CODE BLOCK ADDRESS 0x1a07 ===
  0x1a07	dec    	eax
  0x1a08	mov    	ecx, eax
  0x1a0a	dec    	ecx
  0x1a0b	shl    	eax, 3
  0x1a0e	call   	0x2cfd
  === BLOCK LINK ===
    0x1a13
=== CODE BLOCK END ===

=== CODE BLOCK ADDRESS 0x1a13 ===
  0x1a13	xor    	ebx, ebx
  0x1a15	test   	ebx, ebx
  0x1a17	js     	0x1a98
  === BLOCK LINK ===
    0x1a19
=== CODE BLOCK END ===

=== CODE BLOCK ADDRESS 0x1a19 ===
  0x1a19	inc    	ebp
  0x1a1a	xor    	esi, esi
  0x1a1c	test   	ebp, ebp
  0x1a1e	je     	0x1a45
  === BLOCK LINK ===
    0x1a20
=== CODE BLOCK END ===

=== CODE BLOCK ADDRESS 0x1a20 ===
  0x1a20	test   	ebx, ebx
  0x1a22	js     	0x1a4e
  === BLOCK LINK ===
    0x1a24
=== CODE BLOCK END ===

=== CODE BLOCK ADDRESS 0x1a24 ===
  0x1a24	dec    	ebx
  0x1a25	lea    	eax, [esi + esi*4]
  0x1a28	inc    	ecx
  0x1a29	mov    	ecx, esi
  0x1a2b	dec    	eax
  === BLOCK LINK ===
    0x1a2c
=== CODE BLOCK END ===

=== CODE BLOCK ADDRESS 0x1a2c ===
  0x1a2c	shl    	ecx, 5
  0x1a2f	dec    	eax
  0x1a30	lea    	edx, [esi + eax*8]
  0x1a33	dec    	ecx
  0x1a34	add    	ecx, edi
  === BLOCK LINK ===
    0x1a36
=== CODE BLOCK END ===

=== CODE BLOCK ADDRESS 0x1a36 ===
  0x1a36	call   	0x1abc
  === BLOCK LINK ===
    0x1a3b
=== CODE BLOCK END ===

=== CODE BLOCK ADDRESS 0x1a3b ===
  0x1a3b	inc    	ecx
  0x1a3c	inc    	esi
  0x1a3e	mov    	ebx, eax
  0x1a40	inc    	esp
  0x1a41	cmp    	esi, ebp
  === BLOCK LINK ===
    0x1a43
=== CODE BLOCK END ===

=== CODE BLOCK ADDRESS 0x1a43 ===
  0x1a43	jb     	0x1a20
  === BLOCK LINK ===
    0x1a45
=== CODE BLOCK END ===

=== CODE BLOCK ADDRESS 0x1a45 ===
  0x1a45	test   	ebx, ebx
  0x1a47	js     	0x1a4e
  === BLOCK LINK ===
    0x1a49
=== CODE BLOCK END ===

=== CODE BLOCK ADDRESS 0x1a49 ===
  0x1a49	dec    	eax
  0x1a4a	mov    	dword ptr [edi], esi
  0x1a4c	jmp    	0x1a98
  === BLOCK LINK ===
    0x1a4e
=== CODE BLOCK END ===

=== CODE BLOCK ADDRESS 0x1a4e ===
  0x1a4e	dec    	eax
  0x1a4f	test   	esi, esi
  0x1a51	je     	0x1a90
  === BLOCK LINK ===
    0x1a53
=== CODE BLOCK END ===

=== CODE BLOCK ADDRESS 0x1a53 ===
  0x1a53	test   	ebp, ebp
  0x1a55	je     	0x1a90
  === BLOCK LINK ===
    0x1a57
=== CODE BLOCK END ===

=== CODE BLOCK ADDRESS 0x1a57 ===
  0x1a57	dec    	eax
  0x1a58	lea    	edi, [esi + 0x10]
  0x1a5b	dec    	eax
  0x1a5c	mov    	ecx, dword ptr [edi]
  0x1a5e	call   	0x21fc
  === BLOCK LINK ===
    0x1a63
=== CODE BLOCK END ===

=== CODE BLOCK ADDRESS 0x1a63 ===
  0x1a63	dec    	eax
  0x1a64	mov    	ecx, dword ptr [edi + 8]
  0x1a67	call   	0x21fc
  === BLOCK LINK ===
    0x1a6c
=== CODE BLOCK END ===

=== CODE BLOCK ADDRESS 0x1a6c ===
  0x1a6c	and    	dword ptr [edi - 0x10], 0
  0x1a70	and    	dword ptr [edi - 0xc], 0
  0x1a74	and    	dword ptr [edi - 8], 0
  0x1a78	dec    	eax
  0x1a79	and    	dword ptr [edi], 0
  === BLOCK LINK ===
    0x1a7c
=== CODE BLOCK END ===

=== CODE BLOCK ADDRESS 0x1a7c ===
  0x1a7c	dec    	eax
  0x1a7d	and    	dword ptr [edi + 8], 0
  0x1a81	dec    	eax
  0x1a82	and    	dword ptr [edi + 0x10], 0
  0x1a86	dec    	eax
  === BLOCK LINK ===
    0x1a87
=== CODE BLOCK END ===

=== CODE BLOCK ADDRESS 0x1a87 ===
  0x1a87	lea    	edi, [edi + 0x28]
  0x1a8a	dec    	eax
  0x1a8b	sub    	ebp, 1
  0x1a8e	jne    	0x1a5b
  === BLOCK LINK ===
    0x1a90
=== CODE BLOCK END ===

=== CODE BLOCK ADDRESS 0x1a90 ===
  0x1a90	dec    	eax
  0x1a91	mov    	ecx, esi
  0x1a93	call   	0x21fc
  === BLOCK LINK ===
    0x1a98
=== CODE BLOCK END ===

=== CODE BLOCK ADDRESS 0x1a98 ===
  0x1a98	dec    	eax
  0x1a99	mov    	ebp, dword ptr [esp + 0x48]
  0x1a9d	mov    	eax, ebx
  0x1a9f	dec    	eax
  0x1aa0	mov    	ebx, dword ptr [esp + 0x40]
  === BLOCK LINK ===
    0x1aa4
=== CODE BLOCK END ===

=== CODE BLOCK ADDRESS 0x1aa4 ===
  0x1aa4	dec    	eax
  0x1aa5	mov    	esi, dword ptr [esp + 0x50]
  0x1aa9	dec    	eax
  0x1aaa	add    	esp, 0x20
  0x1aad	inc    	ecx
  === BLOCK LINK ===
    0x1aae
=== CODE BLOCK END ===

=== CODE BLOCK ADDRESS 0x1aae ===
  0x1aae	pop    	edi
  0x1aaf	inc    	ecx
  0x1ab0	pop    	esi
  0x1ab1	pop    	edi
  0x1ab2	ret    	
  === BLOCK LINK ===
    0x1ab3
=== CODE BLOCK END ===

=== CODE BLOCK ADDRESS 0x1249 ===
  0x1249	dec    	eax
  0x124a	mov    	ecx, dword ptr [esp + 0x68]
  0x124e	call   	0x181c
  === BLOCK LINK ===
    0x1253
=== CODE BLOCK END ===

=== CODE BLOCK ADDRESS 0x1ab3 ===
  0x1ab3	int3   	
  0x1ab4	int3   	
  0x1ab5	int3   	
  0x1ab6	int3   	
  0x1ab7	int3   	
  === BLOCK LINK ===
    0x1ab8
=== CODE BLOCK END ===

=== CODE BLOCK ADDRESS 0x1ab8 ===
  0x1ab8	int3   	
  0x1ab9	int3   	
  0x1aba	int3   	
  0x1abb	int3   	
  0x1abc	dec    	eax
  === BLOCK LINK ===
    0x1abd
=== CODE BLOCK END ===

=== CODE BLOCK ADDRESS 0x1abd ===
  0x1abd	mov    	eax, esp
  0x1abf	dec    	eax
  0x1ac0	mov    	dword ptr [eax + 0x10], ebx
  0x1ac3	dec    	eax
  0x1ac4	mov    	dword ptr [eax + 0x18], esi
  === BLOCK LINK ===
    0x1ac7
=== CODE BLOCK END ===

=== CODE BLOCK ADDRESS 0x1ac7 ===
  0x1ac7	dec    	eax
  0x1ac8	mov    	dword ptr [eax + 0x20], edi
  0x1acb	inc    	ecx
  0x1acc	push   	esi
  0x1acd	dec    	eax
  === BLOCK LINK ===
    0x1ace
=== CODE BLOCK END ===

=== CODE BLOCK ADDRESS 0x1ace ===
  0x1ace	sub    	esp, 0x20
  0x1ad1	dec    	esp
  0x1ad2	mov    	esi, edx
  0x1ad4	dec    	eax
  0x1ad5	mov    	edi, ecx
  === BLOCK LINK ===
    0x1ad7
=== CODE BLOCK END ===

=== CODE BLOCK ADDRESS 0x1ad7 ===
  0x1ad7	mov    	ebx, 0x80070057
  0x1adc	dec    	eax
  0x1add	test   	ecx, ecx
  0x1adf	je     	0x1b5d
  === BLOCK LINK ===
    0x1ae1
=== CODE BLOCK END ===

=== CODE BLOCK ADDRESS 0x1ae1 ===
  0x1ae1	dec    	eax
  0x1ae2	test   	edx, edx
  0x1ae4	je     	0x1b5d
  === BLOCK LINK ===
    0x1ae6
=== CODE BLOCK END ===

=== CODE BLOCK ADDRESS 0x1ae6 ===
  0x1ae6	dec    	eax
  0x1ae7	mov    	ecx, dword ptr [ecx + 0x10]
  0x1aea	xor    	esi, esi
  0x1aec	dec    	eax
  0x1aed	mov    	dword ptr [eax + 8], esi
  === BLOCK LINK ===
    0x1af0
=== CODE BLOCK END ===

=== CODE BLOCK ADDRESS 0x1af0 ===
  0x1af0	dec    	eax
  0x1af1	test   	ecx, ecx
  0x1af3	je     	0x1b09
  === BLOCK LINK ===
    0x1af5
=== CODE BLOCK END ===

=== CODE BLOCK ADDRESS 0x1af5 ===
  0x1af5	dec    	eax
  0x1af6	lea    	edx, [eax + 8]
  0x1af9	call   	0x1fa4
  === BLOCK LINK ===
    0x1afe
=== CODE BLOCK END ===

=== CODE BLOCK ADDRESS 0x1afe ===
  0x1afe	mov    	ebx, eax
  0x1b00	test   	eax, eax
  0x1b02	js     	0x1b5d
  === BLOCK LINK ===
    0x1b04
=== CODE BLOCK END ===

=== CODE BLOCK ADDRESS 0x1b04 ===
  0x1b04	dec    	eax
  0x1b05	mov    	esi, dword ptr [esp + 0x30]
  0x1b09	xor    	ecx, ecx
  0x1b0b	dec    	eax
  0x1b0c	mov    	dword ptr [esp + 0x30], ecx
  === BLOCK LINK ===
    0x1b10
=== CODE BLOCK END ===

=== CODE BLOCK ADDRESS 0x1b10 ===
  0x1b10	dec    	eax
  0x1b11	cmp    	dword ptr [edi + 0x18], ecx
  0x1b14	jne    	0x1b1a
  === BLOCK LINK ===
    0x1b16
=== CODE BLOCK END ===

=== CODE BLOCK ADDRESS 0x1b16 ===
  0x1b16	xor    	ebx, ebx
  0x1b18	jmp    	0x1b33
  === BLOCK LINK ===
    0x1b1a
=== CODE BLOCK END ===

=== CODE BLOCK ADDRESS 0x1b1a ===
  0x1b1a	dec    	eax
  0x1b1b	mov    	ecx, dword ptr [edi + 0x18]
  0x1b1e	dec    	eax
  0x1b1f	lea    	edx, [esp + 0x30]
  0x1b23	call   	0x1fa4
  === BLOCK LINK ===
    0x1b28
=== CODE BLOCK END ===

=== CODE BLOCK ADDRESS 0x1b28 ===
  0x1b28	mov    	ebx, eax
  0x1b2a	test   	eax, eax
  0x1b2c	js     	0x1b55
  === BLOCK LINK ===
    0x1b2e
=== CODE BLOCK END ===

=== CODE BLOCK ADDRESS 0x1b2e ===
  0x1b2e	dec    	eax
  0x1b2f	mov    	ecx, dword ptr [esp + 0x30]
  0x1b33	mov    	eax, dword ptr [edi]
  0x1b35	inc    	ecx
  0x1b36	mov    	dword ptr [esi], eax
  === BLOCK LINK ===
    0x1b38
=== CODE BLOCK END ===

=== CODE BLOCK ADDRESS 0x1b38 ===
  0x1b38	mov    	eax, dword ptr [edi + 4]
  0x1b3b	inc    	ecx
  0x1b3c	mov    	dword ptr [esi + 4], eax
  0x1b3f	mov    	eax, dword ptr [edi + 8]
  0x1b42	dec    	ecx
  === BLOCK LINK ===
    0x1b43
=== CODE BLOCK END ===

=== CODE BLOCK ADDRESS 0x1b43 ===
  0x1b43	and    	dword ptr [esi + 0x20], 0
  0x1b47	inc    	ecx
  0x1b48	mov    	dword ptr [esi + 8], eax
  0x1b4b	dec    	ecx
  0x1b4c	mov    	dword ptr [esi + 0x10], esi
  === BLOCK LINK ===
    0x1b4f
=== CODE BLOCK END ===

=== CODE BLOCK ADDRESS 0x1b4f ===
  0x1b4f	dec    	ecx
  0x1b50	mov    	dword ptr [esi + 0x18], ecx
  0x1b53	jmp    	0x1b5d
  === BLOCK LINK ===
    0x1b55
=== CODE BLOCK END ===

=== CODE BLOCK ADDRESS 0x1b55 ===
  0x1b55	dec    	eax
  0x1b56	mov    	ecx, esi
  0x1b58	call   	0x21fc
  === BLOCK LINK ===
    0x1b5d
=== CODE BLOCK END ===

=== CODE BLOCK ADDRESS 0x1b5d ===
  0x1b5d	dec    	eax
  0x1b5e	mov    	esi, dword ptr [esp + 0x40]
  0x1b62	mov    	eax, ebx
  0x1b64	dec    	eax
  0x1b65	mov    	ebx, dword ptr [esp + 0x38]
  === BLOCK LINK ===
    0x1b69
=== CODE BLOCK END ===

=== CODE BLOCK ADDRESS 0x1b69 ===
  0x1b69	dec    	eax
  0x1b6a	mov    	edi, dword ptr [esp + 0x48]
  0x1b6e	dec    	eax
  0x1b6f	add    	esp, 0x20
  0x1b72	inc    	ecx
  === BLOCK LINK ===
    0x1b73
=== CODE BLOCK END ===

=== CODE BLOCK ADDRESS 0x1b73 ===
  0x1b73	pop    	esi
  0x1b74	ret    	
  0x1b75	int3   	
  0x1b76	int3   	
  0x1b77	int3   	
  === BLOCK LINK ===
    0x1b78
=== CODE BLOCK END ===

=== CODE BLOCK ADDRESS 0x181c ===
  0x181c	dec    	eax
  0x181d	test   	ecx, ecx
  === BLOCK LINK ===
    0x181f
=== CODE BLOCK END ===

=== CODE BLOCK ADDRESS 0x1b78 ===
  0x1b78	int3   	
  0x1b79	int3   	
  0x1b7a	int3   	
  0x1b7b	int3   	
  0x1b7c	dec    	eax
  === BLOCK LINK ===
    0x1b7d
=== CODE BLOCK END ===

=== CODE BLOCK ADDRESS 0x1b7d ===
  0x1b7d	mov    	dword ptr [esp + 8], ebx
  0x1b81	dec    	eax
  0x1b82	mov    	dword ptr [esp + 0x10], ebp
  0x1b86	dec    	eax
  0x1b87	mov    	dword ptr [esp + 0x18], esi
  === BLOCK LINK ===
    0x1b8b
=== CODE BLOCK END ===

=== CODE BLOCK ADDRESS 0x1b8b ===
  0x1b8b	push   	edi
  0x1b8c	inc    	ecx
  0x1b8d	push   	esi
  0x1b8e	inc    	ecx
  0x1b8f	push   	edi
  === BLOCK LINK ===
    0x1b90
=== CODE BLOCK END ===

=== CODE BLOCK ADDRESS 0x1b90 ===
  0x1b90	dec    	eax
  0x1b91	sub    	esp, 0x20
  0x1b94	dec    	ecx
  0x1b95	and    	dword ptr [eax], 0
  0x1b98	xor    	ebx, ebx
  === BLOCK LINK ===
    0x1b9a
=== CODE BLOCK END ===

=== CODE BLOCK ADDRESS 0x1b9a ===
  0x1b9a	mov    	ebp, edx
  0x1b9c	dec    	ecx
  0x1b9d	mov    	edi, eax
  0x1b9f	dec    	esp
  0x1ba0	mov    	edi, ecx
  === BLOCK LINK ===
    0x1ba2
=== CODE BLOCK END ===

=== CODE BLOCK ADDRESS 0x1ba2 ===
  0x1ba2	dec    	eax
  0x1ba3	test   	ecx, ecx
  0x1ba5	je     	0x1c83
  === BLOCK LINK ===
    0x1bab
=== CODE BLOCK END ===

=== CODE BLOCK ADDRESS 0x1bab ===
  0x1bab	xor    	esi, esi
  0x1bad	mov    	ebx, 0x80070057
  0x1bb2	test   	edx, edx
  0x1bb4	je     	0x1bf9
  === BLOCK LINK ===
    0x1bb6
=== CODE BLOCK END ===

=== CODE BLOCK ADDRESS 0x1bb6 ===
  0x1bb6	dec    	eax
  0x1bb7	lea    	ecx, [esi - 1]
  0x1bba	lea    	eax, [esi + 0x28]
  0x1bbd	dec    	eax
  0x1bbe	mul    	ebp
  === BLOCK LINK ===
    0x1bc0
=== CODE BLOCK END ===

=== CODE BLOCK ADDRESS 0x1bc0 ===
  0x1bc0	dec    	eax
  0x1bc1	cmovo  	eax, ecx
  0x1bc4	dec    	eax
  0x1bc5	mov    	ecx, eax
  0x1bc7	call   	0x21bc
  === BLOCK LINK ===
    0x1bcc
=== CODE BLOCK END ===

=== CODE BLOCK ADDRESS 0x1bcc ===
  0x1bcc	dec    	eax
  0x1bcd	mov    	esi, eax
  0x1bcf	dec    	eax
  0x1bd0	test   	eax, eax
  0x1bd2	jne    	0x1bde
  === BLOCK LINK ===
    0x1bd4
=== CODE BLOCK END ===

=== CODE BLOCK ADDRESS 0x1bd4 ===
  0x1bd4	mov    	ebx, 0x8007000e
  0x1bd9	jmp    	0x1c83
  === BLOCK LINK ===
    0x1bde
=== CODE BLOCK END ===

=== CODE BLOCK ADDRESS 0x1bde ===
  0x1bde	dec    	esp
  0x1bdf	lea    	eax, [ebp*4]
  0x1be6	xor    	edx, edx
  0x1be8	dec    	esp
  0x1be9	add    	eax, ebp
  === BLOCK LINK ===
    0x1beb
=== CODE BLOCK END ===

=== CODE BLOCK ADDRESS 0x1beb ===
  0x1beb	dec    	eax
  0x1bec	mov    	ecx, eax
  0x1bee	dec    	ecx
  0x1bef	shl    	eax, 3
  0x1bf2	call   	0x2cfd
  === BLOCK LINK ===
    0x1bf7
=== CODE BLOCK END ===

=== CODE BLOCK ADDRESS 0x1bf7 ===
  0x1bf7	xor    	ebx, ebx
  0x1bf9	test   	ebx, ebx
  0x1bfb	js     	0x1c83
  === BLOCK LINK ===
    0x1c01
=== CODE BLOCK END ===

=== CODE BLOCK ADDRESS 0x1c01 ===
  0x1c01	inc    	ebp
  0x1c02	xor    	esi, esi
  0x1c04	test   	ebp, ebp
  0x1c06	je     	0x1c27
  === BLOCK LINK ===
    0x1c08
=== CODE BLOCK END ===

=== CODE BLOCK ADDRESS 0x1c08 ===
  0x1c08	test   	ebx, ebx
  0x1c0a	js     	0x1c30
  === BLOCK LINK ===
    0x1c0c
=== CODE BLOCK END ===

=== CODE BLOCK ADDRESS 0x1c0c ===
  0x1c0c	dec    	ebx
  0x1c0d	lea    	ecx, [esi + esi*4]
  0x1c10	dec    	eax
  0x1c11	lea    	edx, [esi + ecx*8]
  0x1c14	dec    	ecx
  === BLOCK LINK ===
    0x1c15
=== CODE BLOCK END ===

=== CODE BLOCK ADDRESS 0x1c15 ===
  0x1c15	lea    	ecx, [edi + ecx*8]
  0x1c18	call   	0x1ca8
  === BLOCK LINK ===
    0x1c1d
=== CODE BLOCK END ===

=== CODE BLOCK ADDRESS 0x1c1d ===
  0x1c1d	inc    	ecx
  0x1c1e	inc    	esi
  0x1c20	mov    	ebx, eax
  0x1c22	inc    	esp
  0x1c23	cmp    	esi, ebp
  === BLOCK LINK ===
    0x1c25
=== CODE BLOCK END ===

=== CODE BLOCK ADDRESS 0x1c25 ===
  0x1c25	jb     	0x1c08
  === BLOCK LINK ===
    0x1c27
=== CODE BLOCK END ===

=== CODE BLOCK ADDRESS 0x1c27 ===
  0x1c27	test   	ebx, ebx
  0x1c29	js     	0x1c30
  === BLOCK LINK ===
    0x1c2b
=== CODE BLOCK END ===

=== CODE BLOCK ADDRESS 0x1c2b ===
  0x1c2b	dec    	eax
  0x1c2c	mov    	dword ptr [edi], esi
  0x1c2e	jmp    	0x1c83
  === BLOCK LINK ===
    0x1c30
=== CODE BLOCK END ===

=== CODE BLOCK ADDRESS 0x1c30 ===
  0x1c30	dec    	eax
  0x1c31	test   	esi, esi
  0x1c33	je     	0x1c7b
  === BLOCK LINK ===
    0x1c35
=== CODE BLOCK END ===

=== CODE BLOCK ADDRESS 0x1c35 ===
  0x1c35	test   	ebp, ebp
  0x1c37	je     	0x1c7b
  === BLOCK LINK ===
    0x1c39
=== CODE BLOCK END ===

=== CODE BLOCK ADDRESS 0x1c39 ===
  0x1c39	dec    	eax
  0x1c3a	lea    	edi, [esi + 8]
  0x1c3d	dec    	eax
  0x1c3e	mov    	ecx, dword ptr [edi]
  0x1c40	call   	0x21fc
  === BLOCK LINK ===
    0x1c45
=== CODE BLOCK END ===

=== CODE BLOCK ADDRESS 0x1c45 ===
  0x1c45	dec    	eax
  0x1c46	mov    	ecx, dword ptr [edi + 8]
  0x1c49	call   	0x21fc
  === BLOCK LINK ===
    0x1c4e
=== CODE BLOCK END ===

=== CODE BLOCK ADDRESS 0x1c4e ===
  0x1c4e	dec    	eax
  0x1c4f	mov    	ecx, dword ptr [edi + 0x18]
  0x1c52	call   	0x21fc
  === BLOCK LINK ===
    0x1c57
=== CODE BLOCK END ===

=== CODE BLOCK ADDRESS 0x1c57 ===
  0x1c57	and    	dword ptr [edi - 8], 0
  0x1c5b	and    	dword ptr [edi - 4], 0
  0x1c5f	dec    	eax
  0x1c60	and    	dword ptr [edi], 0
  0x1c63	dec    	eax
  === BLOCK LINK ===
    0x1c64
=== CODE BLOCK END ===

=== CODE BLOCK ADDRESS 0x1c64 ===
  0x1c64	and    	dword ptr [edi + 8], 0
  0x1c68	and    	dword ptr [edi + 0x10], 0
  0x1c6c	dec    	eax
  0x1c6d	and    	dword ptr [edi + 0x18], 0
  0x1c71	dec    	eax
  === BLOCK LINK ===
    0x1c72
=== CODE BLOCK END ===

=== CODE BLOCK ADDRESS 0x1c72 ===
  0x1c72	lea    	edi, [edi + 0x28]
  0x1c75	dec    	eax
  0x1c76	sub    	ebp, 1
  0x1c79	jne    	0x1c3d
  === BLOCK LINK ===
    0x1c7b
=== CODE BLOCK END ===

=== CODE BLOCK ADDRESS 0x1c7b ===
  0x1c7b	dec    	eax
  0x1c7c	mov    	ecx, esi
  0x1c7e	call   	0x21fc
  === BLOCK LINK ===
    0x1c83
=== CODE BLOCK END ===

=== CODE BLOCK ADDRESS 0x1c83 ===
  0x1c83	dec    	eax
  0x1c84	mov    	ebp, dword ptr [esp + 0x48]
  0x1c88	mov    	eax, ebx
  0x1c8a	dec    	eax
  0x1c8b	mov    	ebx, dword ptr [esp + 0x40]
  === BLOCK LINK ===
    0x1c8f
=== CODE BLOCK END ===

=== CODE BLOCK ADDRESS 0x1c8f ===
  0x1c8f	dec    	eax
  0x1c90	mov    	esi, dword ptr [esp + 0x50]
  0x1c94	dec    	eax
  0x1c95	add    	esp, 0x20
  0x1c98	inc    	ecx
  === BLOCK LINK ===
    0x1c99
=== CODE BLOCK END ===

=== CODE BLOCK ADDRESS 0x1c99 ===
  0x1c99	pop    	edi
  0x1c9a	inc    	ecx
  0x1c9b	pop    	esi
  0x1c9c	pop    	edi
  0x1c9d	ret    	
  === BLOCK LINK ===
    0x1c9e
=== CODE BLOCK END ===

=== CODE BLOCK ADDRESS 0x1308 ===
  0x1308	dec    	eax
  0x1309	mov    	ebx, dword ptr [esp + 0x40]
  0x130d	xor    	eax, eax
  0x130f	dec    	eax
  === BLOCK LINK ===
    0x1310
=== CODE BLOCK END ===

=== CODE BLOCK ADDRESS 0x1c9e ===
  0x1c9e	int3   	
  0x1c9f	int3   	
  0x1ca0	int3   	
  0x1ca1	int3   	
  0x1ca2	int3   	
  === BLOCK LINK ===
    0x1ca3
=== CODE BLOCK END ===

=== CODE BLOCK ADDRESS 0x1ca3 ===
  0x1ca3	int3   	
  0x1ca4	int3   	
  0x1ca5	int3   	
  0x1ca6	int3   	
  0x1ca7	int3   	
  === BLOCK LINK ===
    0x1ca8
=== CODE BLOCK END ===

=== CODE BLOCK ADDRESS 0x1ca8 ===
  0x1ca8	dec    	eax
  0x1ca9	mov    	eax, esp
  0x1cab	dec    	eax
  0x1cac	mov    	dword ptr [eax + 0x10], ebx
  0x1caf	dec    	eax
  === BLOCK LINK ===
    0x1cb0
=== CODE BLOCK END ===

=== CODE BLOCK ADDRESS 0x1cb0 ===
  0x1cb0	mov    	dword ptr [eax + 0x18], ebp
  0x1cb3	dec    	eax
  0x1cb4	mov    	dword ptr [eax + 0x20], esi
  0x1cb7	push   	edi
  0x1cb8	inc    	ecx
  === BLOCK LINK ===
    0x1cb9
=== CODE BLOCK END ===

=== CODE BLOCK ADDRESS 0x1cb9 ===
  0x1cb9	push   	esi
  0x1cba	inc    	ecx
  0x1cbb	push   	edi
  0x1cbc	dec    	eax
  0x1cbd	sub    	esp, 0x20
  === BLOCK LINK ===
    0x1cc0
=== CODE BLOCK END ===

=== CODE BLOCK ADDRESS 0x1cc0 ===
  0x1cc0	dec    	eax
  0x1cc1	mov    	esi, edx
  0x1cc3	dec    	eax
  0x1cc4	mov    	edi, ecx
  0x1cc6	mov    	ebx, 0x80070057
  === BLOCK LINK ===
    0x1ccb
=== CODE BLOCK END ===

=== CODE BLOCK ADDRESS 0x1ccb ===
  0x1ccb	dec    	eax
  0x1ccc	test   	ecx, ecx
  0x1cce	je     	0x1da3
  === BLOCK LINK ===
    0x1cd4
=== CODE BLOCK END ===

=== CODE BLOCK ADDRESS 0x1cd4 ===
  0x1cd4	dec    	eax
  0x1cd5	test   	edx, edx
  0x1cd7	je     	0x1da3
  === BLOCK LINK ===
    0x1cdd
=== CODE BLOCK END ===

=== CODE BLOCK ADDRESS 0x1cdd ===
  0x1cdd	dec    	eax
  0x1cde	mov    	ecx, dword ptr [ecx + 8]
  0x1ce1	xor    	ebp, ebp
  0x1ce3	dec    	eax
  0x1ce4	mov    	dword ptr [eax + 8], ebp
  === BLOCK LINK ===
    0x1ce7
=== CODE BLOCK END ===

=== CODE BLOCK ADDRESS 0x1ce7 ===
  0x1ce7	dec    	eax
  0x1ce8	test   	ecx, ecx
  0x1cea	je     	0x1d04
  === BLOCK LINK ===
    0x1cec
=== CODE BLOCK END ===

=== CODE BLOCK ADDRESS 0x1cec ===
  0x1cec	dec    	eax
  0x1ced	lea    	edx, [eax + 8]
  0x1cf0	call   	0x1fa4
  === BLOCK LINK ===
    0x1cf5
=== CODE BLOCK END ===

=== CODE BLOCK ADDRESS 0x1cf5 ===
  0x1cf5	mov    	ebx, eax
  0x1cf7	test   	eax, eax
  0x1cf9	js     	0x1da3
  === BLOCK LINK ===
    0x1cff
=== CODE BLOCK END ===

=== CODE BLOCK ADDRESS 0x1cff ===
  0x1cff	dec    	eax
  0x1d00	mov    	ebp, dword ptr [esp + 0x40]
  0x1d04	dec    	eax
  0x1d05	mov    	ecx, dword ptr [edi + 0x10]
  0x1d08	inc    	ebp
  === BLOCK LINK ===
    0x1d09
=== CODE BLOCK END ===

=== CODE BLOCK ADDRESS 0x1d09 ===
  0x1d09	xor    	esi, esi
  0x1d0b	dec    	esp
  0x1d0c	mov    	dword ptr [esp + 0x40], esi
  0x1d10	dec    	eax
  0x1d11	test   	ecx, ecx
  === BLOCK LINK ===
    0x1d13
=== CODE BLOCK END ===

=== CODE BLOCK ADDRESS 0x1d13 ===
  0x1d13	jne    	0x1d19
  === BLOCK LINK ===
    0x1d15
=== CODE BLOCK END ===

=== CODE BLOCK ADDRESS 0x1d15 ===
  0x1d15	xor    	ebx, ebx
  0x1d17	jmp    	0x1d2e
  === BLOCK LINK ===
    0x1d19
=== CODE BLOCK END ===

=== CODE BLOCK ADDRESS 0x1d19 ===
  0x1d19	dec    	eax
  0x1d1a	lea    	edx, [esp + 0x40]
  0x1d1e	call   	0x1fa4
  === BLOCK LINK ===
    0x1d23
=== CODE BLOCK END ===

=== CODE BLOCK ADDRESS 0x1d23 ===
  0x1d23	mov    	ebx, eax
  0x1d25	test   	eax, eax
  0x1d27	js     	0x1d9b
  === BLOCK LINK ===
    0x1d29
=== CODE BLOCK END ===

=== CODE BLOCK ADDRESS 0x1d29 ===
  0x1d29	dec    	esp
  0x1d2a	mov    	esi, dword ptr [esp + 0x40]
  0x1d2e	dec    	eax
  0x1d2f	cmp    	dword ptr [edi + 0x20], 0
  0x1d33	je     	0x1d6e
  === BLOCK LINK ===
    0x1d35
=== CODE BLOCK END ===

=== CODE BLOCK ADDRESS 0x1d35 ===
  0x1d35	cmp    	dword ptr [edi + 0x18], 0
  0x1d39	je     	0x1d6e
  === BLOCK LINK ===
    0x1d3b
=== CODE BLOCK END ===

=== CODE BLOCK ADDRESS 0x1d3b ===
  0x1d3b	mov    	ecx, dword ptr [edi + 0x18]
  0x1d3e	call   	0x21bc
  === BLOCK LINK ===
    0x1d43
=== CODE BLOCK END ===

=== CODE BLOCK ADDRESS 0x1d43 ===
  0x1d43	dec    	esp
  0x1d44	mov    	edi, eax
  0x1d46	dec    	eax
  0x1d47	test   	eax, eax
  0x1d49	je     	0x1d67
  === BLOCK LINK ===
    0x1d4b
=== CODE BLOCK END ===

=== CODE BLOCK ADDRESS 0x1d4b ===
  0x1d4b	inc    	esp
  0x1d4c	mov    	eax, dword ptr [edi + 0x18]
  0x1d4f	dec    	eax
  0x1d50	mov    	ecx, eax
  0x1d52	dec    	eax
  === BLOCK LINK ===
    0x1d53
=== CODE BLOCK END ===

=== CODE BLOCK ADDRESS 0x1d53 ===
  0x1d53	mov    	edx, dword ptr [edi + 0x20]
  0x1d56	call   	0x2cf1
  === BLOCK LINK ===
    0x1d5b
=== CODE BLOCK END ===

=== CODE BLOCK ADDRESS 0x1d5b ===
  0x1d5b	dec    	esp
  0x1d5c	mov    	dword ptr [esi + 0x20], edi
  0x1d5f	mov    	eax, dword ptr [edi + 0x18]
  0x1d62	mov    	dword ptr [esi + 0x18], eax
  0x1d65	jmp    	0x1d77
  === BLOCK LINK ===
    0x1d67
=== CODE BLOCK END ===

=== CODE BLOCK ADDRESS 0x1d67 ===
  0x1d67	mov    	ebx, 0x8007000e
  0x1d6c	jmp    	0x1d77
  === BLOCK LINK ===
    0x1d6e
=== CODE BLOCK END ===

=== CODE BLOCK ADDRESS 0x1d6e ===
  0x1d6e	dec    	eax
  0x1d6f	and    	dword ptr [esi + 0x20], 0
  0x1d73	and    	dword ptr [esi + 0x18], 0
  0x1d77	test   	ebx, ebx
  0x1d79	js     	0x1d8f
  === BLOCK LINK ===
    0x1d7b
=== CODE BLOCK END ===

=== CODE BLOCK ADDRESS 0x1d7b ===
  0x1d7b	mov    	eax, dword ptr [edi]
  0x1d7d	mov    	dword ptr [esi], eax
  0x1d7f	mov    	eax, dword ptr [edi + 4]
  0x1d82	mov    	dword ptr [esi + 4], eax
  0x1d85	dec    	eax
  === BLOCK LINK ===
    0x1d86
=== CODE BLOCK END ===

=== CODE BLOCK ADDRESS 0x1d86 ===
  0x1d86	mov    	dword ptr [esi + 8], ebp
  0x1d89	dec    	esp
  0x1d8a	mov    	dword ptr [esi + 0x10], esi
  0x1d8d	jmp    	0x1d97
  === BLOCK LINK ===
    0x1d8f
=== CODE BLOCK END ===

=== CODE BLOCK ADDRESS 0x1d8f ===
  0x1d8f	dec    	ecx
  0x1d90	mov    	ecx, esi
  0x1d92	call   	0x21fc
  === BLOCK LINK ===
    0x1d97
=== CODE BLOCK END ===

=== CODE BLOCK ADDRESS 0x1d97 ===
  0x1d97	test   	ebx, ebx
  0x1d99	jns    	0x1da3
  === BLOCK LINK ===
    0x1d9b
=== CODE BLOCK END ===

=== CODE BLOCK ADDRESS 0x1d9b ===
  0x1d9b	dec    	eax
  0x1d9c	mov    	ecx, ebp
  0x1d9e	call   	0x21fc
  === BLOCK LINK ===
    0x1da3
=== CODE BLOCK END ===

=== CODE BLOCK ADDRESS 0x1da3 ===
  0x1da3	dec    	eax
  0x1da4	mov    	ebp, dword ptr [esp + 0x50]
  0x1da8	mov    	eax, ebx
  0x1daa	dec    	eax
  0x1dab	mov    	ebx, dword ptr [esp + 0x48]
  === BLOCK LINK ===
    0x1daf
=== CODE BLOCK END ===

=== CODE BLOCK ADDRESS 0x1daf ===
  0x1daf	dec    	eax
  0x1db0	mov    	esi, dword ptr [esp + 0x58]
  0x1db4	dec    	eax
  0x1db5	add    	esp, 0x20
  0x1db8	inc    	ecx
  === BLOCK LINK ===
    0x1db9
=== CODE BLOCK END ===

=== CODE BLOCK ADDRESS 0x1db9 ===
  0x1db9	pop    	edi
  0x1dba	inc    	ecx
  0x1dbb	pop    	esi
  0x1dbc	pop    	edi
  0x1dbd	ret    	
  === BLOCK LINK ===
    0x1dbe
=== CODE BLOCK END ===

=== CODE BLOCK ADDRESS 0x1dbe ===
  0x1dbe	int3   	
  0x1dbf	int3   	
  0x1dc0	int3   	
  0x1dc1	int3   	
  0x1dc2	int3   	
  === BLOCK LINK ===
    0x1dc3
=== CODE BLOCK END ===

=== CODE BLOCK ADDRESS 0x1dc3 ===
  0x1dc3	int3   	
  0x1dc4	int3   	
  0x1dc5	int3   	
  0x1dc6	int3   	
  0x1dc7	int3   	
  === BLOCK LINK ===
    0x1dc8
=== CODE BLOCK END ===

=== CODE BLOCK ADDRESS 0x1dd0 ===
  0x1dd0	push   	edi
  0x1dd1	inc    	ecx
  0x1dd2	push   	esp
  0x1dd3	inc    	ecx
  0x1dd4	push   	ebp
  === BLOCK LINK ===
    0x1dd5
=== CODE BLOCK END ===

=== CODE BLOCK ADDRESS 0x1dd5 ===
  0x1dd5	inc    	ecx
  0x1dd6	push   	esi
  0x1dd7	inc    	ecx
  0x1dd8	push   	edi
  0x1dd9	dec    	eax
  === BLOCK LINK ===
    0x1dda
=== CODE BLOCK END ===

=== CODE BLOCK ADDRESS 0x1dda ===
  0x1dda	mov    	ebp, esp
  0x1ddc	dec    	eax
  0x1ddd	sub    	esp, 0x38
  0x1de0	dec    	eax
  0x1de1	and    	dword ptr [edx], 0
  === BLOCK LINK ===
    0x1de4
=== CODE BLOCK END ===

=== CODE BLOCK ADDRESS 0x1de4 ===
  0x1de4	xor    	ebx, ebx
  0x1de6	dec    	eax
  0x1de7	mov    	edi, ecx
  0x1de9	dec    	eax
  0x1dea	test   	ecx, ecx
  === BLOCK LINK ===
    0x1dec
=== CODE BLOCK END ===

=== CODE BLOCK ADDRESS 0x1dec ===
  0x1dec	je     	0x1f88
  === BLOCK LINK ===
    0x1df2
=== CODE BLOCK END ===

=== CODE BLOCK ADDRESS 0x1df2 ===
  0x1df2	mov    	ebx, 0x60
  0x1df7	mov    	ecx, ebx
  0x1df9	call   	0x21bc
  === BLOCK LINK ===
    0x1dfe
=== CODE BLOCK END ===

=== CODE BLOCK ADDRESS 0x1dfe ===
  0x1dfe	dec    	eax
  0x1dff	mov    	esi, eax
  0x1e01	dec    	eax
  0x1e02	test   	eax, eax
  0x1e04	jne    	0x1e10
  === BLOCK LINK ===
    0x1e06
=== CODE BLOCK END ===

=== CODE BLOCK ADDRESS 0x1e06 ===
  0x1e06	mov    	eax, 0x8007000e
  0x1e0b	jmp    	0x1f8a
  === BLOCK LINK ===
    0x1e10
=== CODE BLOCK END ===

=== CODE BLOCK ADDRESS 0x1e10 ===
  0x1e10	dec    	esp
  0x1e11	mov    	eax, ebx
  0x1e13	xor    	edx, edx
  0x1e15	dec    	eax
  0x1e16	mov    	ecx, esi
  === BLOCK LINK ===
    0x1e18
=== CODE BLOCK END ===

=== CODE BLOCK ADDRESS 0x1e18 ===
  0x1e18	call   	0x2cfd
  === BLOCK LINK ===
    0x1e1d
=== CODE BLOCK END ===

=== CODE BLOCK ADDRESS 0x1e1d ===
  0x1e1d	dec    	eax
  0x1e1e	mov    	ecx, dword ptr [edi + 8]
  0x1e21	dec    	eax
  0x1e22	and    	dword ptr [ebp + 0x58], 0
  0x1e26	dec    	eax
  === BLOCK LINK ===
    0x1e27
=== CODE BLOCK END ===

=== CODE BLOCK ADDRESS 0x1e27 ===
  0x1e27	test   	ecx, ecx
  0x1e29	je     	0x1e3e
  === BLOCK LINK ===
    0x1e2b
=== CODE BLOCK END ===

=== CODE BLOCK ADDRESS 0x1e2b ===
  0x1e2b	dec    	eax
  0x1e2c	lea    	edx, [ebp + 0x58]
  0x1e2f	call   	0x1fa4
  === BLOCK LINK ===
    0x1e34
=== CODE BLOCK END ===

=== CODE BLOCK ADDRESS 0x1e34 ===
  0x1e34	mov    	ebx, eax
  0x1e36	test   	eax, eax
  0x1e38	js     	0x1f80
  === BLOCK LINK ===
    0x1e3e
=== CODE BLOCK END ===

=== CODE BLOCK ADDRESS 0x1e3e ===
  0x1e3e	dec    	eax
  0x1e3f	mov    	ecx, dword ptr [edi + 0x10]
  0x1e42	inc    	ebp
  0x1e43	xor    	ebp, ebp
  0x1e45	dec    	esp
  === BLOCK LINK ===
    0x1e46
=== CODE BLOCK END ===

=== CODE BLOCK ADDRESS 0x1e46 ===
  0x1e46	mov    	dword ptr [ebp + 0x48], ebp
  0x1e49	dec    	eax
  0x1e4a	test   	ecx, ecx
  0x1e4c	je     	0x1e65
  === BLOCK LINK ===
    0x1e4e
=== CODE BLOCK END ===

=== CODE BLOCK ADDRESS 0x1e4e ===
  0x1e4e	dec    	eax
  0x1e4f	lea    	edx, [ebp + 0x48]
  0x1e52	call   	0x1fa4
  === BLOCK LINK ===
    0x1e57
=== CODE BLOCK END ===

=== CODE BLOCK ADDRESS 0x1e57 ===
  0x1e57	mov    	ebx, eax
  0x1e59	test   	eax, eax
  0x1e5b	js     	0x1f80
  === BLOCK LINK ===
    0x1e61
=== CODE BLOCK END ===

=== CODE BLOCK ADDRESS 0x1e61 ===
  0x1e61	dec    	esp
  0x1e62	mov    	ebp, dword ptr [ebp + 0x48]
  0x1e65	dec    	eax
  0x1e66	mov    	ecx, dword ptr [edi + 0x18]
  0x1e69	inc    	ebp
  === BLOCK LINK ===
    0x1e6a
=== CODE BLOCK END ===

=== CODE BLOCK ADDRESS 0x1e6a ===
  0x1e6a	xor    	esp, esp
  0x1e6c	dec    	esp
  0x1e6d	mov    	dword ptr [ebp + 0x48], esp
  0x1e70	dec    	eax
  0x1e71	test   	ecx, ecx
  === BLOCK LINK ===
    0x1e73
=== CODE BLOCK END ===

=== CODE BLOCK ADDRESS 0x1e73 ===
  0x1e73	je     	0x1e8c
  === BLOCK LINK ===
    0x1e75
=== CODE BLOCK END ===

=== CODE BLOCK ADDRESS 0x1e75 ===
  0x1e75	dec    	eax
  0x1e76	lea    	edx, [ebp + 0x48]
  0x1e79	call   	0x1fa4
  === BLOCK LINK ===
    0x1e7e
=== CODE BLOCK END ===

=== CODE BLOCK ADDRESS 0x1e7e ===
  0x1e7e	mov    	ebx, eax
  0x1e80	test   	eax, eax
  0x1e82	js     	0x1f80
  === BLOCK LINK ===
    0x1e88
=== CODE BLOCK END ===

=== CODE BLOCK ADDRESS 0x1e88 ===
  0x1e88	dec    	esp
  0x1e89	mov    	esp, dword ptr [ebp + 0x48]
  0x1e8c	dec    	eax
  0x1e8d	mov    	ecx, dword ptr [edi + 0x20]
  0x1e90	inc    	ebp
  === BLOCK LINK ===
    0x1e91
=== CODE BLOCK END ===

=== CODE BLOCK ADDRESS 0x1e91 ===
  0x1e91	xor    	edi, edi
  0x1e93	dec    	esp
  0x1e94	mov    	dword ptr [ebp + 0x48], edi
  0x1e97	dec    	eax
  0x1e98	test   	ecx, ecx
  === BLOCK LINK ===
    0x1e9a
=== CODE BLOCK END ===

=== CODE BLOCK ADDRESS 0x1e9a ===
  0x1e9a	je     	0x1eb3
  === BLOCK LINK ===
    0x1e9c
=== CODE BLOCK END ===

=== CODE BLOCK ADDRESS 0x1e9c ===
  0x1e9c	dec    	eax
  0x1e9d	lea    	edx, [ebp + 0x48]
  0x1ea0	call   	0x1fa4
  === BLOCK LINK ===
    0x1ea5
=== CODE BLOCK END ===

=== CODE BLOCK ADDRESS 0x1ea5 ===
  0x1ea5	mov    	ebx, eax
  0x1ea7	test   	eax, eax
  0x1ea9	js     	0x1f80
  === BLOCK LINK ===
    0x1eaf
=== CODE BLOCK END ===

=== CODE BLOCK ADDRESS 0x1eaf ===
  0x1eaf	dec    	esp
  0x1eb0	mov    	edi, dword ptr [ebp + 0x48]
  0x1eb3	dec    	eax
  0x1eb4	mov    	ecx, dword ptr [edi + 0x28]
  0x1eb7	inc    	ebp
  === BLOCK LINK ===
    0x1eb8
=== CODE BLOCK END ===

=== CODE BLOCK ADDRESS 0x1eb8 ===
  0x1eb8	xor    	esi, esi
  0x1eba	dec    	esp
  0x1ebb	mov    	dword ptr [ebp + 0x48], esi
  0x1ebe	dec    	eax
  0x1ebf	test   	ecx, ecx
  === BLOCK LINK ===
    0x1ec1
=== CODE BLOCK END ===

=== CODE BLOCK ADDRESS 0x1ec1 ===
  0x1ec1	je     	0x1eda
  === BLOCK LINK ===
    0x1ec3
=== CODE BLOCK END ===

=== CODE BLOCK ADDRESS 0x1ec3 ===
  0x1ec3	dec    	eax
  0x1ec4	lea    	edx, [ebp + 0x48]
  0x1ec7	call   	0x1fa4
  === BLOCK LINK ===
    0x1ecc
=== CODE BLOCK END ===

=== CODE BLOCK ADDRESS 0x1ecc ===
  0x1ecc	mov    	ebx, eax
  0x1ece	test   	eax, eax
  0x1ed0	js     	0x1f80
  === BLOCK LINK ===
    0x1ed6
=== CODE BLOCK END ===

=== CODE BLOCK ADDRESS 0x1ed6 ===
  0x1ed6	dec    	esp
  0x1ed7	mov    	esi, dword ptr [ebp + 0x48]
  0x1eda	dec    	eax
  0x1edb	mov    	ecx, dword ptr [edi + 0x38]
  0x1ede	dec    	esp
  === BLOCK LINK ===
    0x1edf
=== CODE BLOCK END ===

=== CODE BLOCK ADDRESS 0x1edf ===
  0x1edf	lea    	eax, [ebp + 0x48]
  0x1ee2	dec    	eax
  0x1ee3	and    	dword ptr [ebp + 0x48], 0
  0x1ee7	mov    	edx, 1
  0x1eec	call   	0x1b7c
  === BLOCK LINK ===
    0x1ef1
=== CODE BLOCK END ===

=== CODE BLOCK ADDRESS 0x1ef1 ===
  0x1ef1	mov    	ebx, eax
  0x1ef3	test   	eax, eax
  0x1ef5	js     	0x1f80
  === BLOCK LINK ===
    0x1efb
=== CODE BLOCK END ===

=== CODE BLOCK ADDRESS 0x1efb ===
  0x1efb	mov    	edx, dword ptr [edi + 0x40]
  0x1efe	dec    	esp
  0x1eff	lea    	eax, [ebp + 0x60]
  0x1f02	dec    	eax
  0x1f03	mov    	ecx, dword ptr [edi + 0x48]
  === BLOCK LINK ===
    0x1f06
=== CODE BLOCK END ===

=== CODE BLOCK ADDRESS 0x1f06 ===
  0x1f06	dec    	eax
  0x1f07	and    	dword ptr [ebp + 0x60], 0
  0x1f0b	call   	0x1b7c
  === BLOCK LINK ===
    0x1f10
=== CODE BLOCK END ===

=== CODE BLOCK ADDRESS 0x1f10 ===
  0x1f10	mov    	ebx, eax
  0x1f12	test   	eax, eax
  0x1f14	js     	0x1f80
  === BLOCK LINK ===
    0x1f16
=== CODE BLOCK END ===

=== CODE BLOCK ADDRESS 0x1f16 ===
  0x1f16	mov    	edx, dword ptr [edi + 0x50]
  0x1f19	dec    	esp
  0x1f1a	lea    	eax, [ebp - 0x18]
  0x1f1d	dec    	eax
  0x1f1e	mov    	ecx, dword ptr [edi + 0x58]
  === BLOCK LINK ===
    0x1f21
=== CODE BLOCK END ===

=== CODE BLOCK ADDRESS 0x1f21 ===
  0x1f21	dec    	eax
  0x1f22	and    	dword ptr [ebp - 0x18], 0
  0x1f26	call   	0x1998
  === BLOCK LINK ===
    0x1f2b
=== CODE BLOCK END ===

=== CODE BLOCK ADDRESS 0x1f2b ===
  0x1f2b	mov    	ebx, eax
  0x1f2d	test   	eax, eax
  0x1f2f	js     	0x1f80
  === BLOCK LINK ===
    0x1f31
=== CODE BLOCK END ===

=== CODE BLOCK ADDRESS 0x1f31 ===
  0x1f31	mov    	eax, dword ptr [edi]
  0x1f33	mov    	dword ptr [esi], eax
  0x1f35	dec    	eax
  0x1f36	mov    	eax, dword ptr [ebp + 0x58]
  0x1f39	dec    	eax
  === BLOCK LINK ===
    0x1f3a
=== CODE BLOCK END ===

=== CODE BLOCK ADDRESS 0x1f3a ===
  0x1f3a	mov    	dword ptr [esi + 8], eax
  0x1f3d	dec    	esp
  0x1f3e	mov    	dword ptr [esi + 0x10], ebp
  0x1f41	dec    	esp
  0x1f42	mov    	dword ptr [esi + 0x18], esp
  === BLOCK LINK ===
    0x1f45
=== CODE BLOCK END ===

=== CODE BLOCK ADDRESS 0x1f45 ===
  0x1f45	dec    	esp
  0x1f46	mov    	dword ptr [esi + 0x20], edi
  0x1f49	dec    	esp
  0x1f4a	mov    	dword ptr [esi + 0x28], esi
  0x1f4d	mov    	eax, dword ptr [edi + 0x30]
  === BLOCK LINK ===
    0x1f50
=== CODE BLOCK END ===

=== CODE BLOCK ADDRESS 0x1f50 ===
  0x1f50	mov    	dword ptr [esi + 0x30], eax
  0x1f53	dec    	eax
  0x1f54	mov    	eax, dword ptr [ebp + 0x48]
  0x1f57	dec    	eax
  0x1f58	mov    	dword ptr [esi + 0x38], eax
  === BLOCK LINK ===
    0x1f5b
=== CODE BLOCK END ===

=== CODE BLOCK ADDRESS 0x1f5b ===
  0x1f5b	mov    	eax, dword ptr [edi + 0x40]
  0x1f5e	mov    	dword ptr [esi + 0x40], eax
  0x1f61	dec    	eax
  0x1f62	mov    	eax, dword ptr [ebp + 0x60]
  0x1f65	dec    	eax
  === BLOCK LINK ===
    0x1f66
=== CODE BLOCK END ===

=== CODE BLOCK ADDRESS 0x1f66 ===
  0x1f66	mov    	dword ptr [esi + 0x48], eax
  0x1f69	mov    	eax, dword ptr [edi + 0x50]
  0x1f6c	mov    	dword ptr [esi + 0x50], eax
  0x1f6f	dec    	eax
  0x1f70	mov    	eax, dword ptr [ebp - 0x18]
  === BLOCK LINK ===
    0x1f73
=== CODE BLOCK END ===

=== CODE BLOCK ADDRESS 0x1f73 ===
  0x1f73	dec    	eax
  0x1f74	mov    	dword ptr [esi + 0x58], eax
  0x1f77	dec    	eax
  0x1f78	mov    	eax, dword ptr [ebp + 0x50]
  0x1f7b	dec    	eax
  === BLOCK LINK ===
    0x1f7c
=== CODE BLOCK END ===

=== CODE BLOCK ADDRESS 0x1f7c ===
  0x1f7c	mov    	dword ptr [eax], esi
  0x1f7e	jmp    	0x1f88
  === BLOCK LINK ===
    0x1f80
=== CODE BLOCK END ===

=== CODE BLOCK ADDRESS 0x1f80 ===
  0x1f80	dec    	eax
  0x1f81	mov    	ecx, esi
  0x1f83	call   	0x181c
  === BLOCK LINK ===
    0x1f88
=== CODE BLOCK END ===

=== CODE BLOCK ADDRESS 0x1f88 ===
  0x1f88	mov    	eax, ebx
  0x1f8a	dec    	eax
  0x1f8b	add    	esp, 0x38
  0x1f8e	inc    	ecx
  0x1f8f	pop    	edi
  === BLOCK LINK ===
    0x1f90
=== CODE BLOCK END ===

=== CODE BLOCK ADDRESS 0x1f90 ===
  0x1f90	inc    	ecx
  0x1f91	pop    	esi
  0x1f92	inc    	ecx
  0x1f93	pop    	ebp
  0x1f94	inc    	ecx
  === BLOCK LINK ===
    0x1f95
=== CODE BLOCK END ===

=== CODE BLOCK ADDRESS 0x1f95 ===
  0x1f95	pop    	esp
  0x1f96	pop    	edi
  0x1f97	pop    	esi
  0x1f98	pop    	ebx
  0x1f99	pop    	ebp
  === BLOCK LINK ===
    0x1f9a
=== CODE BLOCK END ===

=== CODE BLOCK ADDRESS 0x1f9a ===
  0x1f9a	ret    	
  0x1f9b	int3   	
  0x1f9c	int3   	
  0x1f9d	int3   	
  0x1f9e	int3   	
  === BLOCK LINK ===
    0x1f9f
=== CODE BLOCK END ===

=== CODE BLOCK ADDRESS 0x1f9f ===
  0x1f9f	int3   	
  0x1fa0	int3   	
  0x1fa1	int3   	
  0x1fa2	int3   	
  0x1fa3	int3   	
  === BLOCK LINK ===
    0x1fa4
=== CODE BLOCK END ===

=== CODE BLOCK ADDRESS 0x1fa4 ===
  0x1fa4	dec    	eax
  0x1fa5	mov    	dword ptr [esp + 8], ebx
  0x1fa9	dec    	eax
  0x1faa	mov    	dword ptr [esp + 0x10], esi
  0x1fae	dec    	eax
  === BLOCK LINK ===
    0x1faf
=== CODE BLOCK END ===

=== CODE BLOCK ADDRESS 0x1faf ===
  0x1faf	mov    	dword ptr [esp + 0x18], edi
  0x1fb3	inc    	ecx
  0x1fb4	push   	esi
  0x1fb5	dec    	eax
  0x1fb6	sub    	esp, 0x20
  === BLOCK LINK ===
    0x1fb9
=== CODE BLOCK END ===

=== CODE BLOCK ADDRESS 0x1fb9 ===
  0x1fb9	dec    	esp
  0x1fba	mov    	esi, edx
  0x1fbc	dec    	eax
  0x1fbd	mov    	esi, ecx
  0x1fbf	dec    	eax
  === BLOCK LINK ===
    0x1fc0
=== CODE BLOCK END ===

=== CODE BLOCK ADDRESS 0x1fc0 ===
  0x1fc0	or     	ebx, 0xffffffff
  0x1fc3	dec    	eax
  0x1fc4	inc    	ebx
  0x1fc6	cmp    	byte ptr [ecx + ebx], 0
  0x1fca	jne    	0x1fc3
  === BLOCK LINK ===
    0x1fcc
=== CODE BLOCK END ===

=== CODE BLOCK ADDRESS 0x1fcc ===
  0x1fcc	dec    	eax
  0x1fcd	inc    	ebx
  0x1fcf	dec    	eax
  0x1fd0	mov    	ecx, ebx
  0x1fd2	call   	0x21bc
  === BLOCK LINK ===
    0x1fd7
=== CODE BLOCK END ===

=== CODE BLOCK ADDRESS 0x1fd7 ===
  0x1fd7	dec    	eax
  0x1fd8	mov    	edx, eax
  0x1fda	dec    	eax
  0x1fdb	test   	eax, eax
  0x1fdd	jne    	0x1fe6
  === BLOCK LINK ===
    0x1fdf
=== CODE BLOCK END ===

=== CODE BLOCK ADDRESS 0x1fdf ===
  0x1fdf	mov    	edi, 0x8007000e
  0x1fe4	jmp    	0x2057
  === BLOCK LINK ===
    0x1fe6
=== CODE BLOCK END ===

=== CODE BLOCK ADDRESS 0x1fe6 ===
  0x1fe6	xor    	edi, edi
  0x1fe8	dec    	eax
  0x1fe9	lea    	eax, [ebx - 1]
  0x1fec	inc    	ecx
  0x1fed	mov    	eax, 0x7ffffffe
  === BLOCK LINK ===
    0x1ff2
=== CODE BLOCK END ===

=== CODE BLOCK ADDRESS 0x1ff2 ===
  0x1ff2	mov    	ecx, 0x80070057
  0x1ff7	dec    	ecx
  0x1ff8	cmp    	eax, eax
  0x1ffa	cmova  	edi, ecx
  0x1ffd	test   	edi, edi
  === BLOCK LINK ===
    0x1fff
=== CODE BLOCK END ===

=== CODE BLOCK ADDRESS 0x1fff ===
  0x1fff	js     	0x203e
  === BLOCK LINK ===
    0x2001
=== CODE BLOCK END ===

=== CODE BLOCK ADDRESS 0x2001 ===
  0x2001	xor    	edi, edi
  0x2003	dec    	eax
  0x2004	mov    	ecx, edx
  0x2006	dec    	eax
  0x2007	test   	ebx, ebx
  === BLOCK LINK ===
    0x2009
=== CODE BLOCK END ===

=== CODE BLOCK ADDRESS 0x2009 ===
  0x2009	je     	0x2031
  === BLOCK LINK ===
    0x200b
=== CODE BLOCK END ===

=== CODE BLOCK ADDRESS 0x200b ===
  0x200b	dec    	esp
  0x200c	sub    	eax, ebx
  0x200e	dec    	eax
  0x200f	sub    	esi, edx
  0x2011	dec    	ecx
  === BLOCK LINK ===
    0x2012
=== CODE BLOCK END ===

=== CODE BLOCK ADDRESS 0x2012 ===
  0x2012	lea    	eax, [eax + ebx]
  0x2015	dec    	eax
  0x2016	test   	eax, eax
  0x2018	je     	0x202c
  === BLOCK LINK ===
    0x201a
=== CODE BLOCK END ===

=== CODE BLOCK ADDRESS 0x201a ===
  0x201a	mov    	al, byte ptr [esi + ecx]
  0x201d	test   	al, al
  0x201f	je     	0x202c
  === BLOCK LINK ===
    0x2021
=== CODE BLOCK END ===

=== CODE BLOCK ADDRESS 0x2021 ===
  0x2021	mov    	byte ptr [ecx], al
  0x2023	dec    	eax
  0x2024	inc    	ecx
  0x2026	dec    	eax
  0x2027	sub    	ebx, 1
  === BLOCK LINK ===
    0x202a
=== CODE BLOCK END ===

=== CODE BLOCK ADDRESS 0x202a ===
  0x202a	jne    	0x2011
  === BLOCK LINK ===
    0x202c
=== CODE BLOCK END ===

=== CODE BLOCK ADDRESS 0x202c ===
  0x202c	dec    	eax
  0x202d	test   	ebx, ebx
  0x202f	jne    	0x2039
  === BLOCK LINK ===
    0x2031
=== CODE BLOCK END ===

=== CODE BLOCK ADDRESS 0x2031 ===
  0x2031	dec    	eax
  0x2032	dec    	ecx
  0x2034	mov    	edi, 0x8007007a
  0x2039	mov    	byte ptr [ecx], 0
  0x203c	jmp    	0x2046
  === BLOCK LINK ===
    0x203e
=== CODE BLOCK END ===

=== CODE BLOCK ADDRESS 0x203e ===
  0x203e	dec    	eax
  0x203f	test   	ebx, ebx
  0x2041	je     	0x2046
  === BLOCK LINK ===
    0x2043
=== CODE BLOCK END ===

=== CODE BLOCK ADDRESS 0x2043 ===
  0x2043	mov    	byte ptr [edx], 0
  0x2046	test   	edi, edi
  0x2048	js     	0x204f
  === BLOCK LINK ===
    0x204a
=== CODE BLOCK END ===

=== CODE BLOCK ADDRESS 0x204a ===
  0x204a	dec    	ecx
  0x204b	mov    	dword ptr [esi], edx
  0x204d	jmp    	0x2057
  === BLOCK LINK ===
    0x204f
=== CODE BLOCK END ===

=== CODE BLOCK ADDRESS 0x204f ===
  0x204f	dec    	eax
  0x2050	mov    	ecx, edx
  0x2052	call   	0x21fc
  === BLOCK LINK ===
    0x2057
=== CODE BLOCK END ===

=== CODE BLOCK ADDRESS 0x2057 ===
  0x2057	dec    	eax
  0x2058	mov    	ebx, dword ptr [esp + 0x30]
  0x205c	mov    	eax, edi
  0x205e	dec    	eax
  0x205f	mov    	edi, dword ptr [esp + 0x40]
  === BLOCK LINK ===
    0x2063
=== CODE BLOCK END ===

=== CODE BLOCK ADDRESS 0x2063 ===
  0x2063	dec    	eax
  0x2064	mov    	esi, dword ptr [esp + 0x38]
  0x2068	dec    	eax
  0x2069	add    	esp, 0x20
  0x206c	inc    	ecx
  === BLOCK LINK ===
    0x206d
=== CODE BLOCK END ===

=== CODE BLOCK ADDRESS 0x206d ===
  0x206d	pop    	esi
  0x206e	ret    	
  0x206f	int3   	
  0x2070	int3   	
  0x2071	int3   	
  === BLOCK LINK ===
    0x2072
=== CODE BLOCK END ===

=== CODE BLOCK ADDRESS 0x2072 ===
  0x2072	int3   	
  0x2073	int3   	
  0x2074	int3   	
  0x2075	int3   	
  0x2076	int3   	
  === BLOCK LINK ===
    0x2077
=== CODE BLOCK END ===

=== CODE BLOCK ADDRESS 0x2077 ===
  0x2077	int3   	
  0x2078	dec    	eax
  0x2079	mov    	dword ptr [esp + 0x18], ebx
  0x207d	dec    	eax
  0x207e	mov    	dword ptr [esp + 0x20], esi
  === BLOCK LINK ===
    0x2082
=== CODE BLOCK END ===

=== CODE BLOCK ADDRESS 0x2082 ===
  0x2082	push   	edi
  0x2083	dec    	eax
  0x2084	sub    	esp, 0x50
  0x2087	dec    	eax
  0x2088	mov    	eax, dword ptr [0x3f7a]
  === BLOCK LINK ===
    0x208e
=== CODE BLOCK END ===

=== CODE BLOCK ADDRESS 0x208e ===
  0x208e	dec    	eax
  0x208f	xor    	eax, esp
  0x2091	dec    	eax
  0x2092	mov    	dword ptr [esp + 0x40], eax
  0x2096	dec    	eax
  === BLOCK LINK ===
    0x2097
=== CODE BLOCK END ===

=== CODE BLOCK ADDRESS 0x2097 ===
  0x2097	and    	dword ptr [ecx], 0
  0x209a	dec    	eax
  0x209b	mov    	esi, edx
  0x209d	and    	dword ptr [edx], 0
  0x20a0	dec    	eax
  === BLOCK LINK ===
    0x20a1
=== CODE BLOCK END ===

=== CODE BLOCK ADDRESS 0x20a1 ===
  0x20a1	mov    	edi, ecx
  0x20a3	dec    	eax
  0x20a4	mov    	eax, dword ptr [0x11a6]
  0x20aa	dec    	esp
  0x20ab	mov    	eax, dword ptr [eax + 8]
  === BLOCK LINK ===
    0x20ae
=== CODE BLOCK END ===

=== CODE BLOCK ADDRESS 0x20ae ===
  0x20ae	dec    	ecx
  0x20af	mov    	eax, dword ptr [eax]
  0x20b1	dec    	eax
  0x20b2	test   	eax, eax
  0x20b4	je     	0x20b9
  === BLOCK LINK ===
    0x20b6
=== CODE BLOCK END ===

=== CODE BLOCK ADDRESS 0x20b6 ===
  0x20b6	dec    	eax
  0x20b7	mov    	eax, dword ptr [eax]
  0x20b9	dec    	eax
  0x20ba	lea    	ecx, [0x4518]
  0x20c0	dec    	esp
  === BLOCK LINK ===
    0x20c1
=== CODE BLOCK END ===

=== CODE BLOCK ADDRESS 0x20c1 ===
  0x20c1	mov    	eax, edi
  0x20c3	dec    	eax
  0x20c4	mov    	dword ptr [esp + 0x28], ecx
  0x20c8	dec    	esp
  0x20c9	lea    	ecx, [0x1181]
  === BLOCK LINK ===
    0x20cf
=== CODE BLOCK END ===

=== CODE BLOCK ADDRESS 0x20cf ===
  0x20cf	dec    	eax
  0x20d0	lea    	ecx, [0x2092]
  0x20d6	dec    	eax
  0x20d7	mov    	dword ptr [esp + 0x20], eax
  0x20db	dec    	eax
  === BLOCK LINK ===
    0x20dc
=== CODE BLOCK END ===

=== CODE BLOCK ADDRESS 0x20dc ===
  0x20dc	lea    	edx, [0x1f3e]
  0x20e2	dec    	eax
  0x20e3	call   	dword ptr [0x1c3f]
  === BLOCK LINK ===
    0x20e9
=== CODE BLOCK END ===

=== CODE BLOCK ADDRESS 0x20e9 ===
  0x20e9	nop    	dword ptr [eax + eax]
  0x20ee	mov    	ebx, eax
  0x20f0	test   	eax, eax
  0x20f2	js     	0x2147
  === BLOCK LINK ===
    0x20f4
=== CODE BLOCK END ===

=== CODE BLOCK ADDRESS 0x20f4 ===
  0x20f4	movups  	xmm0, xmmword ptr [0x203d]
  0x20fb	dec    	eax
  0x20fc	mov    	edx, dword ptr [edi]
  0x20fe	dec    	eax
  0x20ff	lea    	ecx, [esp + 0x30]
  === BLOCK LINK ===
    0x2103
=== CODE BLOCK END ===

=== CODE BLOCK ADDRESS 0x2103 ===
  0x2103	inc    	ecx
  0x2104	mov    	eax, 1
  0x2109	dec    	eax
  0x210a	mov    	dword ptr [esp + 0x20], esi
  0x210e	inc    	ebp
  === BLOCK LINK ===
    0x210f
=== CODE BLOCK END ===

=== CODE BLOCK ADDRESS 0x210f ===
  0x210f	mov    	ecx, eax
  0x2111	movdqu  	xmmword ptr [esp + 0x30], xmm0
  0x2117	dec    	eax
  0x2118	call   	dword ptr [0x1dca]
  === BLOCK LINK ===
    0x211e
=== CODE BLOCK END ===

=== CODE BLOCK ADDRESS 0x211e ===
  0x211e	nop    	dword ptr [eax + eax]
  0x2123	mov    	ebx, eax
  0x2125	test   	eax, eax
  0x2127	js     	0x2147
  === BLOCK LINK ===
    0x2129
=== CODE BLOCK END ===

=== CODE BLOCK ADDRESS 0x2129 ===
  0x2129	dec    	eax
  0x212a	lea    	edx, [esp + 0x30]
  0x212e	dec    	eax
  0x212f	lea    	ecx, [0x2033]
  0x2135	dec    	eax
  === BLOCK LINK ===
    0x2136
=== CODE BLOCK END ===

=== CODE BLOCK ADDRESS 0x2136 ===
  0x2136	call   	dword ptr [0x1d9c]
  === BLOCK LINK ===
    0x213c
=== CODE BLOCK END ===

=== CODE BLOCK ADDRESS 0x213c ===
  0x213c	nop    	dword ptr [eax + eax]
  0x2141	mov    	ebx, eax
  0x2143	test   	eax, eax
  0x2145	jns    	0x2175
  === BLOCK LINK ===
    0x2147
=== CODE BLOCK END ===

=== CODE BLOCK ADDRESS 0x2147 ===
  0x2147	dec    	eax
  0x2148	mov    	ecx, dword ptr [edi]
  0x214a	dec    	eax
  0x214b	test   	ecx, ecx
  0x214d	je     	0x2160
  === BLOCK LINK ===
    0x214f
=== CODE BLOCK END ===

=== CODE BLOCK ADDRESS 0x214f ===
  0x214f	dec    	eax
  0x2150	mov    	eax, dword ptr [ecx]
  0x2152	dec    	eax
  0x2153	mov    	eax, dword ptr [eax + 0x10]
  0x2156	call   	dword ptr [0x1dbc]
  === BLOCK LINK ===
    0x215c
=== CODE BLOCK END ===

=== CODE BLOCK ADDRESS 0x215c ===
  0x215c	dec    	eax
  0x215d	and    	dword ptr [edi], 0
  0x2160	mov    	ecx, dword ptr [esi]
  0x2162	test   	ecx, ecx
  0x2164	je     	0x2175
  === BLOCK LINK ===
    0x2166
=== CODE BLOCK END ===

=== CODE BLOCK ADDRESS 0x2166 ===
  0x2166	dec    	eax
  0x2167	call   	dword ptr [0x1d73]
  === BLOCK LINK ===
    0x216d
=== CODE BLOCK END ===

=== CODE BLOCK ADDRESS 0x216d ===
  0x216d	nop    	dword ptr [eax + eax]
  0x2172	and    	dword ptr [esi], 0
  0x2175	mov    	eax, ebx
  0x2177	dec    	eax
  0x2178	mov    	ecx, dword ptr [esp + 0x40]
  === BLOCK LINK ===
    0x217c
=== CODE BLOCK END ===

=== CODE BLOCK ADDRESS 0x217c ===
  0x217c	dec    	eax
  0x217d	xor    	ecx, esp
  0x217f	call   	0x25b0
  === BLOCK LINK ===
    0x2184
=== CODE BLOCK END ===

=== CODE BLOCK ADDRESS 0x2184 ===
  0x2184	dec    	eax
  0x2185	mov    	ebx, dword ptr [esp + 0x70]
  0x2189	dec    	eax
  0x218a	mov    	esi, dword ptr [esp + 0x78]
  0x218e	dec    	eax
  === BLOCK LINK ===
    0x218f
=== CODE BLOCK END ===

=== CODE BLOCK ADDRESS 0x218f ===
  0x218f	add    	esp, 0x50
  0x2192	pop    	edi
  0x2193	ret    	
  0x2194	int3   	
  0x2195	int3   	
  === BLOCK LINK ===
    0x2196
=== CODE BLOCK END ===

=== CODE BLOCK ADDRESS 0x2196 ===
  0x2196	int3   	
  0x2197	int3   	
  0x2198	int3   	
  0x2199	int3   	
  0x219a	int3   	
  === BLOCK LINK ===
    0x219b
=== CODE BLOCK END ===

=== CODE BLOCK ADDRESS 0x219b ===
  0x219b	int3   	
  0x219c	int3   	
  0x219d	int3   	
  0x219e	int3   	
  0x219f	int3   	
  === BLOCK LINK ===
    0x21a0
=== CODE BLOCK END ===

=== CODE BLOCK ADDRESS 0x21a0 ===
  0x21a0	dec    	eax
  0x21a1	lea    	edx, [0x4431]
  0x21a7	dec    	eax
  0x21a8	jmp    	dword ptr [0x1b82]
  === BLOCK LINK ===
    0x21ae
=== CODE BLOCK END ===

=== CODE BLOCK ADDRESS 0x21ae ===
  0x21ae	int3   	
  0x21af	int3   	
  0x21b0	int3   	
  0x21b1	int3   	
  0x21b2	int3   	
  === BLOCK LINK ===
    0x21b3
=== CODE BLOCK END ===

=== CODE BLOCK ADDRESS 0x21b3 ===
  0x21b3	int3   	
  0x21b4	int3   	
  0x21b5	int3   	
  0x21b6	int3   	
  0x21b7	int3   	
  === BLOCK LINK ===
    0x21b8
=== CODE BLOCK END ===

=== CODE BLOCK ADDRESS 0x21b8 ===
  0x21b8	int3   	
  0x21b9	int3   	
  0x21ba	int3   	
  0x21bb	int3   	
  0x21bc	dec    	eax
  === BLOCK LINK ===
    0x21bd
=== CODE BLOCK END ===

=== CODE BLOCK ADDRESS 0x21bd ===
  0x21bd	mov    	dword ptr [esp + 8], ebx
  0x21c1	push   	edi
  0x21c2	dec    	eax
  0x21c3	sub    	esp, 0x20
  0x21c6	dec    	eax
  === BLOCK LINK ===
    0x21c7
=== CODE BLOCK END ===

=== CODE BLOCK ADDRESS 0x21c7 ===
  0x21c7	mov    	edi, ecx
  0x21c9	jmp    	0x21da
  === BLOCK LINK ===
    0x21cb
=== CODE BLOCK END ===

=== CODE BLOCK ADDRESS 0x21cb ===
  0x21cb	dec    	eax
  0x21cc	mov    	ecx, edi
  0x21ce	call   	0x25e0
  === BLOCK LINK ===
    0x21d3
=== CODE BLOCK END ===

=== CODE BLOCK ADDRESS 0x21d3 ===
  0x21d3	test   	eax, eax
  0x21d5	je     	0x21e7
  === BLOCK LINK ===
    0x21d7
=== CODE BLOCK END ===

=== CODE BLOCK ADDRESS 0x21d7 ===
  0x21d7	dec    	eax
  0x21d8	mov    	ecx, edi
  0x21da	call   	0x25d4
  === BLOCK LINK ===
    0x21df
=== CODE BLOCK END ===

=== CODE BLOCK ADDRESS 0x21df ===
  0x21df	dec    	eax
  0x21e0	mov    	ebx, eax
  0x21e2	dec    	eax
  0x21e3	test   	eax, eax
  0x21e5	je     	0x21cb
  === BLOCK LINK ===
    0x21e7
=== CODE BLOCK END ===

=== CODE BLOCK ADDRESS 0x21e7 ===
  0x21e7	dec    	eax
  0x21e8	mov    	eax, ebx
  0x21ea	dec    	eax
  0x21eb	mov    	ebx, dword ptr [esp + 0x30]
  0x21ef	dec    	eax
  === BLOCK LINK ===
    0x21f0
=== CODE BLOCK END ===

=== CODE BLOCK ADDRESS 0x21f0 ===
  0x21f0	add    	esp, 0x20
  0x21f3	pop    	edi
  0x21f4	ret    	
  0x21f5	int3   	
  0x21f6	int3   	
  === BLOCK LINK ===
    0x21f7
=== CODE BLOCK END ===

=== CODE BLOCK ADDRESS 0x1384 ===
  0x1384	mov    	eax, ebx
  0x1386	dec    	eax
  0x1387	add    	esp, 0x20
  0x138a	pop    	ebx
  === BLOCK LINK ===
    0x138b
=== CODE BLOCK END ===

=== CODE BLOCK ADDRESS 0x21f7 ===
  0x21f7	int3   	
  0x21f8	int3   	
  0x21f9	int3   	
  0x21fa	int3   	
  0x21fb	int3   	
  === BLOCK LINK ===
    0x21fc
=== CODE BLOCK END ===

=== CODE BLOCK ADDRESS 0x2201 ===
  0x2201	int3   	
  0x2202	int3   	
  0x2203	int3   	
  0x2204	int3   	
  0x2205	int3   	
  === BLOCK LINK ===
    0x2206
=== CODE BLOCK END ===

=== CODE BLOCK ADDRESS 0x2206 ===
  0x2206	int3   	
  0x2207	int3   	
  0x2208	int3   	
  0x2209	int3   	
  0x220a	int3   	
  === BLOCK LINK ===
    0x220b
=== CODE BLOCK END ===

=== CODE BLOCK ADDRESS 0x220b ===
  0x220b	int3   	
  0x220c	int3   	
  0x220d	int3   	
  0x220e	int3   	
  0x220f	int3   	
  === BLOCK LINK ===
    0x2210
=== CODE BLOCK END ===

=== CODE BLOCK ADDRESS 0x2210 ===
  0x2210	dec    	eax
  0x2211	sub    	esp, 0x28
  0x2214	mov    	eax, 0x5a4d
  0x2219	cmp    	word ptr [0xffffdde0], ax
  0x2220	je     	0x2226
  === BLOCK LINK ===
    0x2222
=== CODE BLOCK END ===

=== CODE BLOCK ADDRESS 0x2222 ===
  0x2222	xor    	eax, eax
  0x2224	jmp    	0x2279
  === BLOCK LINK ===
    0x2226
=== CODE BLOCK END ===

=== CODE BLOCK ADDRESS 0x2226 ===
  0x2226	dec    	eax
  0x2227	arpl   	word ptr [0xffffde0f], cx
  0x222d	dec    	eax
  0x222e	lea    	eax, [0xffffddcc]
  0x2234	dec    	eax
  === BLOCK LINK ===
    0x2235
=== CODE BLOCK END ===

=== CODE BLOCK ADDRESS 0x2235 ===
  0x2235	add    	ecx, eax
  0x2237	cmp    	dword ptr [ecx], 0x4550
  0x223d	jne    	0x2222
  === BLOCK LINK ===
    0x223f
=== CODE BLOCK END ===

=== CODE BLOCK ADDRESS 0x223f ===
  0x223f	mov    	eax, 0x10b
  0x2244	cmp    	word ptr [ecx + 0x18], ax
  0x2248	je     	0x2268
  === BLOCK LINK ===
    0x224a
=== CODE BLOCK END ===

=== CODE BLOCK ADDRESS 0x224a ===
  0x224a	mov    	eax, 0x20b
  0x224f	cmp    	word ptr [ecx + 0x18], ax
  0x2253	jne    	0x2222
  === BLOCK LINK ===
    0x2255
=== CODE BLOCK END ===

=== CODE BLOCK ADDRESS 0x2255 ===
  0x2255	xor    	eax, eax
  0x2257	cmp    	dword ptr [ecx + 0x84], 0xe
  0x225e	jbe    	0x2279
  === BLOCK LINK ===
    0x2260
=== CODE BLOCK END ===

=== CODE BLOCK ADDRESS 0x2260 ===
  0x2260	cmp    	dword ptr [ecx + 0xf8], eax
  0x2266	jmp    	0x2276
  === BLOCK LINK ===
    0x2268
=== CODE BLOCK END ===

=== CODE BLOCK ADDRESS 0x2268 ===
  0x2268	xor    	eax, eax
  0x226a	cmp    	dword ptr [ecx + 0x74], 0xe
  0x226e	jbe    	0x2279
  === BLOCK LINK ===
    0x2270
=== CODE BLOCK END ===

=== CODE BLOCK ADDRESS 0x2270 ===
  0x2270	cmp    	dword ptr [ecx + 0xe8], eax
  0x2276	setne  	al
  0x2279	mov    	ecx, 2
  0x227e	mov    	dword ptr [0x3dbc], eax
  0x2284	call   	0x26c8
  === BLOCK LINK ===
    0x2289
=== CODE BLOCK END ===

=== CODE BLOCK ADDRESS 0x2289 ===
  0x2289	mov    	ecx, eax
  0x228b	call   	dword ptr [0x1b97]
  === BLOCK LINK ===
    0x2291
=== CODE BLOCK END ===

=== CODE BLOCK ADDRESS 0x2291 ===
  0x2291	dec    	eax
  0x2292	mov    	ecx, dword ptr [0x1b48]
  0x2298	dec    	eax
  0x2299	or     	eax, 0xffffffff
  0x229c	dec    	eax
  === BLOCK LINK ===
    0x229d
=== CODE BLOCK END ===

=== CODE BLOCK ADDRESS 0x229d ===
  0x229d	mov    	dword ptr [0x4355], eax
  0x22a3	dec    	eax
  0x22a4	mov    	dword ptr [0x4356], eax
  0x22aa	mov    	eax, dword ptr [0x3da4]
  0x22b0	mov    	dword ptr [ecx], eax
  === BLOCK LINK ===
    0x22b2
=== CODE BLOCK END ===

=== CODE BLOCK ADDRESS 0x22b2 ===
  0x22b2	dec    	eax
  0x22b3	mov    	ecx, dword ptr [0x1b1f]
  0x22b9	mov    	eax, dword ptr [0x3d89]
  0x22bf	mov    	dword ptr [ecx], eax
  0x22c1	call   	0x2720
  === BLOCK LINK ===
    0x22c6
=== CODE BLOCK END ===

=== CODE BLOCK ADDRESS 0x22c6 ===
  0x22c6	cmp    	dword ptr [0x3d33], 0
  0x22cd	jne    	0x22dc
  === BLOCK LINK ===
    0x22cf
=== CODE BLOCK END ===

=== CODE BLOCK ADDRESS 0x22cf ===
  0x22cf	dec    	eax
  0x22d0	lea    	ecx, [0x44a]
  0x22d6	call   	dword ptr [0x1b24]
  === BLOCK LINK ===
    0x22dc
=== CODE BLOCK END ===

=== CODE BLOCK ADDRESS 0x22dc ===
  0x22dc	xor    	eax, eax
  0x22de	dec    	eax
  0x22df	add    	esp, 0x28
  0x22e2	ret    	
  0x22e3	int3   	
  === BLOCK LINK ===
    0x22e4
=== CODE BLOCK END ===

=== CODE BLOCK ADDRESS 0x22e4 ===
  0x22e4	int3   	
  0x22e5	int3   	
  0x22e6	int3   	
  0x22e7	int3   	
  0x22e8	int3   	
  === BLOCK LINK ===
    0x22e9
=== CODE BLOCK END ===

=== CODE BLOCK ADDRESS 0x22e9 ===
  0x22e9	int3   	
  0x22ea	int3   	
  0x22eb	int3   	
  0x22ec	int3   	
  0x22ed	int3   	
  === BLOCK LINK ===
    0x22ee
=== CODE BLOCK END ===

=== CODE BLOCK ADDRESS 0x22ee ===
  0x22ee	int3   	
  0x22ef	int3   	
  0x22f0	dec    	eax
  0x22f1	sub    	esp, 0x38
  0x22f4	mov    	eax, dword ptr [0x3d56]
  === BLOCK LINK ===
    0x22fa
=== CODE BLOCK END ===

=== CODE BLOCK ADDRESS 0x22fa ===
  0x22fa	dec    	esp
  0x22fb	lea    	eax, [0x3d37]
  0x2301	inc    	esp
  0x2302	mov    	ecx, dword ptr [0x3d44]
  0x2308	dec    	eax
  === BLOCK LINK ===
    0x2309
=== CODE BLOCK END ===

=== CODE BLOCK ADDRESS 0x2309 ===
  0x2309	lea    	edx, [0x3d21]
  0x230f	mov    	dword ptr [0x3d2f], eax
  0x2315	dec    	eax
  0x2316	lea    	ecx, [0x3d0c]
  0x231c	dec    	eax
  === BLOCK LINK ===
    0x231d
=== CODE BLOCK END ===

=== CODE BLOCK ADDRESS 0x231d ===
  0x231d	lea    	eax, [0x3d21]
  0x2323	dec    	eax
  0x2324	mov    	dword ptr [esp + 0x20], eax
  0x2328	call   	dword ptr [0x1b02]
  === BLOCK LINK ===
    0x232e
=== CODE BLOCK END ===

=== CODE BLOCK ADDRESS 0x232e ===
  0x232e	mov    	dword ptr [0x3cf8], eax
  0x2334	dec    	eax
  0x2335	add    	esp, 0x38
  0x2338	ret    	
  0x2339	int3   	
  === BLOCK LINK ===
    0x233a
=== CODE BLOCK END ===

=== CODE BLOCK ADDRESS 0x233a ===
  0x233a	int3   	
  0x233b	int3   	
  0x233c	int3   	
  0x233d	int3   	
  0x233e	int3   	
  === BLOCK LINK ===
    0x233f
=== CODE BLOCK END ===

=== CODE BLOCK ADDRESS 0x233f ===
  0x233f	int3   	
  0x2340	dec    	eax
  0x2341	sub    	esp, 0x28
  0x2344	call   	0x2814
  === BLOCK LINK ===
    0x2349
=== CODE BLOCK END ===

=== CODE BLOCK ADDRESS 0x2349 ===
  0x2349	dec    	eax
  0x234a	add    	esp, 0x28
  0x234d	jmp    	0x2358
  === BLOCK LINK ===
    0x2352
=== CODE BLOCK END ===

=== CODE BLOCK ADDRESS 0x2352 ===
  0x2352	int3   	
  0x2353	int3   	
  0x2354	int3   	
  0x2355	int3   	
  0x2356	int3   	
  === BLOCK LINK ===
    0x2357
=== CODE BLOCK END ===

=== CODE BLOCK ADDRESS 0x2357 ===
  0x2357	int3   	
  0x2358	dec    	eax
  0x2359	mov    	dword ptr [esp + 8], ebx
  0x235d	dec    	eax
  0x235e	mov    	dword ptr [esp + 0x10], edi
  === BLOCK LINK ===
    0x2362
=== CODE BLOCK END ===

=== CODE BLOCK ADDRESS 0x2362 ===
  0x2362	inc    	ecx
  0x2363	push   	esi
  0x2364	dec    	eax
  0x2365	sub    	esp, 0xb0
  0x236b	and    	dword ptr [esp + 0x20], 0
  === BLOCK LINK ===
    0x2370
=== CODE BLOCK END ===

=== CODE BLOCK ADDRESS 0x2370 ===
  0x2370	dec    	eax
  0x2371	lea    	ecx, [esp + 0x40]
  0x2375	call   	dword ptr [0x198d]
  === BLOCK LINK ===
    0x237b
=== CODE BLOCK END ===

=== CODE BLOCK ADDRESS 0x237b ===
  0x237b	nop    	
  0x237c	dec    	eax
  0x237e	mov    	eax, dword ptr [0x30]
  0x2385	dec    	eax
  0x2386	mov    	ebx, dword ptr [eax + 8]
  === BLOCK LINK ===
    0x2389
=== CODE BLOCK END ===

=== CODE BLOCK ADDRESS 0x2389 ===
  0x2389	xor    	edi, edi
  0x238b	xor    	eax, eax
  0x238d	.byte  	0xf0
  0x238e	dec    	eax
  0x238f	cmpxchg  	dword ptr [0x4272], ebx
  === BLOCK LINK ===
    0x2396
=== CODE BLOCK END ===

=== CODE BLOCK ADDRESS 0x2396 ===
  0x2396	je     	0x23a2
  === BLOCK LINK ===
    0x2398
=== CODE BLOCK END ===

=== CODE BLOCK ADDRESS 0x2398 ===
  0x2398	dec    	eax
  0x2399	cmp    	eax, ebx
  0x239b	jne    	0x23b7
  === BLOCK LINK ===
    0x239d
=== CODE BLOCK END ===

=== CODE BLOCK ADDRESS 0x239d ===
  0x239d	mov    	edi, 1
  0x23a2	mov    	eax, dword ptr [0x4268]
  0x23a8	cmp    	eax, 1
  0x23ab	jne    	0x23c4
  === BLOCK LINK ===
    0x23ad
=== CODE BLOCK END ===

=== CODE BLOCK ADDRESS 0x23ad ===
  0x23ad	lea    	ecx, [eax + 0x1e]
  0x23b0	call   	0x2713
  === BLOCK LINK ===
    0x23b5
=== CODE BLOCK END ===

=== CODE BLOCK ADDRESS 0x23b5 ===
  0x23b5	jmp    	0x2431
  === BLOCK LINK ===
    0x23b7
=== CODE BLOCK END ===

=== CODE BLOCK ADDRESS 0x23b7 ===
  0x23b7	mov    	ecx, 0x3e8
  0x23bc	call   	dword ptr [0x1956]
  === BLOCK LINK ===
    0x23c2
=== CODE BLOCK END ===

=== CODE BLOCK ADDRESS 0x23c2 ===
  0x23c2	jmp    	0x238b
  === BLOCK LINK ===
    0x23c4
=== CODE BLOCK END ===

=== CODE BLOCK ADDRESS 0x23c4 ===
  0x23c4	mov    	eax, dword ptr [0x4246]
  0x23ca	test   	eax, eax
  0x23cc	jne    	0x2427
  === BLOCK LINK ===
    0x23ce
=== CODE BLOCK END ===

=== CODE BLOCK ADDRESS 0x23ce ===
  0x23ce	mov    	dword ptr [0x4238], 1
  0x23d8	dec    	esp
  0x23d9	lea    	esi, [0x1b71]
  0x23df	dec    	eax
  0x23e0	lea    	ebx, [0x1b52]
  === BLOCK LINK ===
    0x23e6
=== CODE BLOCK END ===

=== CODE BLOCK ADDRESS 0x23e6 ===
  0x23e6	dec    	eax
  0x23e7	mov    	dword ptr [esp + 0x30], ebx
  0x23eb	mov    	dword ptr [esp + 0x24], eax
  0x23ef	dec    	ecx
  0x23f0	cmp    	ebx, esi
  === BLOCK LINK ===
    0x23f2
=== CODE BLOCK END ===

=== CODE BLOCK ADDRESS 0x23f2 ===
  0x23f2	jae    	0x2419
  === BLOCK LINK ===
    0x23f4
=== CODE BLOCK END ===

=== CODE BLOCK ADDRESS 0x23f4 ===
  0x23f4	test   	eax, eax
  0x23f6	jne    	0x241d
  === BLOCK LINK ===
    0x23f8
=== CODE BLOCK END ===

=== CODE BLOCK ADDRESS 0x23f8 ===
  0x23f8	dec    	eax
  0x23f9	cmp    	dword ptr [ebx], 0
  0x23fc	je     	0x240e
  === BLOCK LINK ===
    0x23fe
=== CODE BLOCK END ===

=== CODE BLOCK ADDRESS 0x23fe ===
  0x23fe	dec    	eax
  0x23ff	mov    	eax, dword ptr [ebx]
  0x2401	dec    	eax
  0x2402	mov    	ecx, dword ptr [0x1b10]
  0x2408	call   	ecx
  === BLOCK LINK ===
    0x240a
=== CODE BLOCK END ===

=== CODE BLOCK ADDRESS 0x240a ===
  0x240a	mov    	dword ptr [esp + 0x24], eax
  0x240e	dec    	eax
  0x240f	add    	ebx, 8
  0x2412	dec    	eax
  0x2413	mov    	dword ptr [esp + 0x30], ebx
  === BLOCK LINK ===
    0x2417
=== CODE BLOCK END ===

=== CODE BLOCK ADDRESS 0x2417 ===
  0x2417	jmp    	0x23ef
  === BLOCK LINK ===
    0x2419
=== CODE BLOCK END ===

=== CODE BLOCK ADDRESS 0x2419 ===
  0x2419	test   	eax, eax
  0x241b	je     	0x2431
  === BLOCK LINK ===
    0x241d
=== CODE BLOCK END ===

=== CODE BLOCK ADDRESS 0x241d ===
  0x241d	mov    	eax, 0xff
  0x2422	jmp    	0x2584
  === BLOCK LINK ===
    0x2427
=== CODE BLOCK END ===

=== CODE BLOCK ADDRESS 0x2427 ===
  0x2427	mov    	dword ptr [0x3bf3], 1
  0x2431	mov    	eax, dword ptr [0x41d9]
  0x2437	cmp    	eax, 1
  0x243a	jne    	0x2459
  === BLOCK LINK ===
    0x243c
=== CODE BLOCK END ===

=== CODE BLOCK ADDRESS 0x243c ===
  0x243c	dec    	eax
  0x243d	lea    	edx, [0x1aed]
  0x2443	dec    	eax
  0x2444	lea    	ecx, [0x1ad6]
  0x244a	call   	0x28ee
  === BLOCK LINK ===
    0x244f
=== CODE BLOCK END ===

=== CODE BLOCK ADDRESS 0x244f ===
  0x244f	mov    	dword ptr [0x41b7], 2
  0x2459	test   	edi, edi
  0x245b	jne    	0x2466
  === BLOCK LINK ===
    0x245d
=== CODE BLOCK END ===

=== CODE BLOCK ADDRESS 0x245d ===
  0x245d	xor    	eax, eax
  0x245f	dec    	eax
  0x2460	xchg   	dword ptr [0x41a2], eax
  0x2466	dec    	eax
  0x2467	cmp    	dword ptr [0x41aa], 0
  === BLOCK LINK ===
    0x246e
=== CODE BLOCK END ===

=== CODE BLOCK ADDRESS 0x246e ===
  0x246e	je     	0x249a
  === BLOCK LINK ===
    0x2470
=== CODE BLOCK END ===

=== CODE BLOCK ADDRESS 0x2470 ===
  0x2470	dec    	eax
  0x2471	lea    	ecx, [0x41a1]
  0x2477	call   	0x2780
  === BLOCK LINK ===
    0x247c
=== CODE BLOCK END ===

=== CODE BLOCK ADDRESS 0x247c ===
  0x247c	test   	eax, eax
  0x247e	je     	0x249a
  === BLOCK LINK ===
    0x2480
=== CODE BLOCK END ===

=== CODE BLOCK ADDRESS 0x2480 ===
  0x2480	inc    	ebp
  0x2481	xor    	eax, eax
  0x2483	inc    	ecx
  0x2484	lea    	edx, [eax + 2]
  0x2487	xor    	ecx, ecx
  === BLOCK LINK ===
    0x2489
=== CODE BLOCK END ===

=== CODE BLOCK ADDRESS 0x2489 ===
  0x2489	dec    	eax
  0x248a	mov    	eax, dword ptr [0x4188]
  0x2490	dec    	esp
  0x2491	mov    	ecx, dword ptr [0x1a81]
  0x2497	inc    	ecx
  === BLOCK LINK ===
    0x2498
=== CODE BLOCK END ===

=== CODE BLOCK ADDRESS 0x2498 ===
  0x2498	call   	ecx
  === BLOCK LINK ===
    0x249a
=== CODE BLOCK END ===

=== CODE BLOCK ADDRESS 0x249a ===
  0x249a	dec    	eax
  0x249b	mov    	eax, dword ptr [0x1947]
  0x24a1	dec    	eax
  0x24a2	mov    	ebx, dword ptr [eax]
  0x24a4	dec    	eax
  === BLOCK LINK ===
    0x24a5
=== CODE BLOCK END ===

=== CODE BLOCK ADDRESS 0x24a5 ===
  0x24a5	mov    	dword ptr [esp + 0x28], ebx
  0x24a9	mov    	edi, dword ptr [esp + 0x20]
  0x24ad	movzx  	ecx, byte ptr [ebx]
  0x24b0	cmp    	cl, 0x20
  0x24b3	ja     	0x2526
  === BLOCK LINK ===
    0x24b5
=== CODE BLOCK END ===

=== CODE BLOCK ADDRESS 0x24b5 ===
  0x24b5	test   	cl, cl
  0x24b7	je     	0x24bd
  === BLOCK LINK ===
    0x24b9
=== CODE BLOCK END ===

=== CODE BLOCK ADDRESS 0x24b9 ===
  0x24b9	test   	edi, edi
  0x24bb	jne    	0x2526
  === BLOCK LINK ===
    0x24bd
=== CODE BLOCK END ===

=== CODE BLOCK ADDRESS 0x24bd ===
  0x24bd	dec    	cl
  0x24bf	cmp    	cl, 0x1f
  0x24c2	ja     	0x24d0
  === BLOCK LINK ===
    0x24c4
=== CODE BLOCK END ===

=== CODE BLOCK ADDRESS 0x24c4 ===
  0x24c4	dec    	eax
  0x24c5	inc    	ebx
  0x24c7	dec    	eax
  0x24c8	mov    	dword ptr [esp + 0x28], ebx
  0x24cc	mov    	cl, byte ptr [ebx]
  === BLOCK LINK ===
    0x24ce
=== CODE BLOCK END ===

=== CODE BLOCK ADDRESS 0x24ce ===
  0x24ce	jmp    	0x24bd
  === BLOCK LINK ===
    0x24d0
=== CODE BLOCK END ===

=== CODE BLOCK ADDRESS 0x24d0 ===
  0x24d0	test   	byte ptr [esp + 0x7c], 1
  0x24d5	movzx  	eax, word ptr [esp + 0x80]
  0x24dd	inc    	ecx
  0x24de	mov    	ecx, 0xa
  0x24e3	inc    	esp
  === BLOCK LINK ===
    0x24e4
=== CODE BLOCK END ===

=== CODE BLOCK ADDRESS 0x24e4 ===
  0x24e4	cmovne  	ecx, eax
  0x24e7	dec    	esp
  0x24e8	mov    	eax, ebx
  0x24ea	xor    	edx, edx
  0x24ec	dec    	eax
  === BLOCK LINK ===
    0x24ed
=== CODE BLOCK END ===

=== CODE BLOCK ADDRESS 0x24ed ===
  0x24ed	lea    	ecx, [0xffffdb0d]
  0x24f3	call   	0x1044
  === BLOCK LINK ===
    0x24f8
=== CODE BLOCK END ===

=== CODE BLOCK ADDRESS 0x24f8 ===
  0x24f8	mov    	dword ptr [0x3b22], eax
  0x24fe	cmp    	dword ptr [0x3b3b], 0
  0x2505	jne    	0x250f
  === BLOCK LINK ===
    0x2507
=== CODE BLOCK END ===

=== CODE BLOCK ADDRESS 0x2507 ===
  0x2507	mov    	ecx, eax
  0x2509	call   	dword ptr [0x1911]
  === BLOCK LINK ===
    0x250f
=== CODE BLOCK END ===

=== CODE BLOCK ADDRESS 0x250f ===
  0x250f	cmp    	dword ptr [0x3b0e], 0
  0x2516	jne    	0x2524
  === BLOCK LINK ===
    0x2518
=== CODE BLOCK END ===

=== CODE BLOCK ADDRESS 0x2518 ===
  0x2518	call   	dword ptr [0x18f2]
  === BLOCK LINK ===
    0x251e
=== CODE BLOCK END ===

=== CODE BLOCK ADDRESS 0x251e ===
  0x251e	mov    	eax, dword ptr [0x3afc]
  0x2524	jmp    	0x2584
  === BLOCK LINK ===
    0x2526
=== CODE BLOCK END ===

=== CODE BLOCK ADDRESS 0x2526 ===
  0x2526	cmp    	cl, 0x22
  0x2529	jne    	0x2538
  === BLOCK LINK ===
    0x252b
=== CODE BLOCK END ===

=== CODE BLOCK ADDRESS 0x252b ===
  0x252b	xor    	eax, eax
  0x252d	test   	edi, edi
  0x252f	sete   	al
  0x2532	mov    	edi, eax
  0x2534	mov    	dword ptr [esp + 0x20], eax
  === BLOCK LINK ===
    0x2538
=== CODE BLOCK END ===

=== CODE BLOCK ADDRESS 0x2538 ===
  0x2538	call   	dword ptr [0x18ca]
  === BLOCK LINK ===
    0x253e
=== CODE BLOCK END ===

=== CODE BLOCK ADDRESS 0x253e ===
  0x253e	test   	eax, eax
  0x2540	je     	0x254a
  === BLOCK LINK ===
    0x2542
=== CODE BLOCK END ===

=== CODE BLOCK ADDRESS 0x2542 ===
  0x2542	dec    	eax
  0x2543	inc    	ebx
  0x2545	dec    	eax
  0x2546	mov    	dword ptr [esp + 0x28], ebx
  0x254a	dec    	eax
  === BLOCK LINK ===
    0x254b
=== CODE BLOCK END ===

=== CODE BLOCK ADDRESS 0x254b ===
  0x254b	inc    	ebx
  0x254d	dec    	eax
  0x254e	mov    	dword ptr [esp + 0x28], ebx
  0x2552	jmp    	0x24ad
  === BLOCK LINK ===
    0x2557
=== CODE BLOCK END ===

=== CODE BLOCK ADDRESS 0x2557 ===
  0x2557	mov    	dword ptr [0x3ac3], eax
  0x255d	cmp    	dword ptr [0x3adc], 0
  0x2564	jne    	0x256f
  === BLOCK LINK ===
    0x2566
=== CODE BLOCK END ===

=== CODE BLOCK ADDRESS 0x2566 ===
  0x2566	mov    	ecx, eax
  0x2568	call   	dword ptr [0x190a]
  === BLOCK LINK ===
    0x256e
=== CODE BLOCK END ===

=== CODE BLOCK ADDRESS 0x256e ===
  0x256e	int3   	
  0x256f	cmp    	dword ptr [0x3aae], 0
  0x2576	jne    	0x2584
  === BLOCK LINK ===
    0x2578
=== CODE BLOCK END ===

=== CODE BLOCK ADDRESS 0x2578 ===
  0x2578	call   	dword ptr [0x1892]
  === BLOCK LINK ===
    0x257e
=== CODE BLOCK END ===

=== CODE BLOCK ADDRESS 0x257e ===
  0x257e	mov    	eax, dword ptr [0x3a9c]
  0x2584	dec    	esp
  0x2585	lea    	ebx, [esp + 0xb0]
  0x258c	dec    	ecx
  0x258d	mov    	ebx, dword ptr [ebx + 0x10]
  === BLOCK LINK ===
    0x2590
=== CODE BLOCK END ===

=== CODE BLOCK ADDRESS 0x2590 ===
  0x2590	dec    	ecx
  0x2591	mov    	edi, dword ptr [ebx + 0x18]
  0x2594	dec    	ecx
  0x2595	mov    	esp, ebx
  0x2597	inc    	ecx
  === BLOCK LINK ===
    0x2598
=== CODE BLOCK END ===

=== CODE BLOCK ADDRESS 0x2598 ===
  0x2598	pop    	esi
  0x2599	ret    	
  0x259a	int3   	
  0x259b	int3   	
  0x259c	int3   	
  === BLOCK LINK ===
    0x259d
=== CODE BLOCK END ===

=== CODE BLOCK ADDRESS 0x259d ===
  0x259d	int3   	
  0x259e	int3   	
  0x259f	int3   	
  0x25a0	int3   	
  0x25a1	int3   	
  === BLOCK LINK ===
    0x25a2
=== CODE BLOCK END ===

=== CODE BLOCK ADDRESS 0x25a2 ===
  0x25a2	int3   	
  0x25a3	int3   	
  0x25a4	int3   	
  0x25a5	int3   	
  0x25a6	nop    	word ptr [eax + eax]
  === BLOCK LINK ===
    0x25b0
=== CODE BLOCK END ===

=== CODE BLOCK ADDRESS 0x25b9 ===
  0x25b9	dec    	eax
  0x25ba	rol    	ecx, 0x10
  0x25bd	test   	cx, 0xffff
  0x25c2	jne    	0x25c5
  === BLOCK LINK ===
    0x25c4
=== CODE BLOCK END ===

=== CODE BLOCK ADDRESS 0x25c4 ===
  0x25c4	ret    	
  0x25c5	dec    	eax
  0x25c6	ror    	ecx, 0x10
  0x25c9	jmp    	0x2960
  === BLOCK LINK ===
    0x25ce
=== CODE BLOCK END ===

=== CODE BLOCK ADDRESS 0x25ce ===
  0x25ce	int3   	
  0x25cf	int3   	
  0x25d0	int3   	
  0x25d1	int3   	
  0x25d2	int3   	
  === BLOCK LINK ===
    0x25d3
=== CODE BLOCK END ===

=== CODE BLOCK ADDRESS 0x25d3 ===
  0x25d3	int3   	
  0x25d4	jmp    	dword ptr [0x187e]
  === BLOCK LINK ===
    0x25da
=== CODE BLOCK END ===

=== CODE BLOCK ADDRESS 0x25da ===
  0x25da	int3   	
  0x25db	int3   	
  0x25dc	int3   	
  0x25dd	int3   	
  0x25de	int3   	
  === BLOCK LINK ===
    0x25df
=== CODE BLOCK END ===

=== CODE BLOCK ADDRESS 0x25df ===
  0x25df	int3   	
  0x25e0	jmp    	dword ptr [0x186a]
  === BLOCK LINK ===
    0x25e6
=== CODE BLOCK END ===

=== CODE BLOCK ADDRESS 0x25e6 ===
  0x25e6	int3   	
  0x25e7	int3   	
  0x25e8	int3   	
  0x25e9	int3   	
  0x25ea	int3   	
  === BLOCK LINK ===
    0x25eb
=== CODE BLOCK END ===

=== CODE BLOCK ADDRESS 0x25eb ===
  0x25eb	int3   	
  0x25ec	jmp    	dword ptr [0x1856]
  === BLOCK LINK ===
    0x25f2
=== CODE BLOCK END ===

=== CODE BLOCK ADDRESS 0x25f2 ===
  0x25f2	int3   	
  0x25f3	int3   	
  0x25f4	int3   	
  0x25f5	int3   	
  0x25f6	int3   	
  === BLOCK LINK ===
    0x25f7
=== CODE BLOCK END ===

=== CODE BLOCK ADDRESS 0x25f7 ===
  0x25f7	int3   	
  0x25f8	int3   	
  0x25f9	int3   	
  0x25fa	int3   	
  0x25fb	int3   	
  === BLOCK LINK ===
    0x25fc
=== CODE BLOCK END ===

=== CODE BLOCK ADDRESS 0x25fc ===
  0x25fc	int3   	
  0x25fd	int3   	
  0x25fe	int3   	
  0x25ff	int3   	
  0x2600	dec    	eax
  === BLOCK LINK ===
    0x2601
=== CODE BLOCK END ===

=== CODE BLOCK ADDRESS 0x2601 ===
  0x2601	sub    	esp, 0x28
  0x2604	dec    	eax
  0x2605	mov    	eax, dword ptr [ecx]
  0x2607	cmp    	dword ptr [eax], 0xe06d7363
  0x260d	jne    	0x2632
  === BLOCK LINK ===
    0x260f
=== CODE BLOCK END ===

=== CODE BLOCK ADDRESS 0x260f ===
  0x260f	cmp    	dword ptr [eax + 0x18], 4
  0x2613	jne    	0x2632
  === BLOCK LINK ===
    0x2615
=== CODE BLOCK END ===

=== CODE BLOCK ADDRESS 0x2615 ===
  0x2615	mov    	ecx, dword ptr [eax + 0x20]
  0x2618	lea    	eax, [ecx - 0x19930520]
  0x261e	cmp    	eax, 2
  0x2621	jbe    	0x262b
  === BLOCK LINK ===
    0x2623
=== CODE BLOCK END ===

=== CODE BLOCK ADDRESS 0x2623 ===
  0x2623	cmp    	ecx, 0x1994000
  0x2629	jne    	0x2632
  === BLOCK LINK ===
    0x262b
=== CODE BLOCK END ===

=== CODE BLOCK ADDRESS 0x262b ===
  0x262b	call   	dword ptr [0x17e7]
  === BLOCK LINK ===
    0x2631
=== CODE BLOCK END ===

=== CODE BLOCK ADDRESS 0x2631 ===
  0x2631	int3   	
  0x2632	xor    	eax, eax
  0x2634	dec    	eax
  0x2635	add    	esp, 0x28
  0x2638	ret    	
  === BLOCK LINK ===
    0x2639
=== CODE BLOCK END ===

=== CODE BLOCK ADDRESS 0x2639 ===
  0x2639	int3   	
  0x263a	int3   	
  0x263b	int3   	
  0x263c	int3   	
  0x263d	int3   	
  === BLOCK LINK ===
    0x263e
=== CODE BLOCK END ===

=== CODE BLOCK ADDRESS 0x263e ===
  0x263e	int3   	
  0x263f	int3   	
  0x2640	dec    	eax
  0x2641	sub    	esp, 0x28
  0x2644	dec    	eax
  === BLOCK LINK ===
    0x2645
=== CODE BLOCK END ===

=== CODE BLOCK ADDRESS 0x2645 ===
  0x2645	lea    	ecx, [0xffffffb5]
  0x264b	call   	dword ptr [0x16af]
  === BLOCK LINK ===
    0x2651
=== CODE BLOCK END ===

=== CODE BLOCK ADDRESS 0x2651 ===
  0x2651	xor    	eax, eax
  0x2653	dec    	eax
  0x2654	add    	esp, 0x28
  0x2657	ret    	
  0x2658	int3   	
  === BLOCK LINK ===
    0x2659
=== CODE BLOCK END ===

=== CODE BLOCK ADDRESS 0x2659 ===
  0x2659	int3   	
  0x265a	int3   	
  0x265b	int3   	
  0x265c	int3   	
  0x265d	int3   	
  === BLOCK LINK ===
    0x265e
=== CODE BLOCK END ===

=== CODE BLOCK ADDRESS 0x265e ===
  0x265e	jmp    	dword ptr [0x17dc]
  === BLOCK LINK ===
    0x2664
=== CODE BLOCK END ===

=== CODE BLOCK ADDRESS 0x2664 ===
  0x2664	int3   	
  0x2665	int3   	
  0x2666	int3   	
  0x2667	int3   	
  0x2668	int3   	
  === BLOCK LINK ===
    0x2669
=== CODE BLOCK END ===

=== CODE BLOCK ADDRESS 0x2669 ===
  0x2669	int3   	
  0x266a	int3   	
  0x266b	int3   	
  0x266c	dec    	eax
  0x266d	sub    	esp, 0x18
  === BLOCK LINK ===
    0x2670
=== CODE BLOCK END ===

=== CODE BLOCK ADDRESS 0x2670 ===
  0x2670	xor    	edx, edx
  0x2672	dec    	eax
  0x2673	lea    	eax, [ecx - 1]
  0x2676	dec    	eax
  0x2677	cmp    	eax, -3
  === BLOCK LINK ===
    0x267a
=== CODE BLOCK END ===

=== CODE BLOCK ADDRESS 0x267a ===
  0x267a	ja     	0x26b8
  === BLOCK LINK ===
    0x267c
=== CODE BLOCK END ===

=== CODE BLOCK ADDRESS 0x267c ===
  0x267c	mov    	eax, 0x5a4d
  0x2681	cmp    	word ptr [ecx], ax
  0x2684	jne    	0x26b0
  === BLOCK LINK ===
    0x2686
=== CODE BLOCK END ===

=== CODE BLOCK ADDRESS 0x2686 ===
  0x2686	cmp    	dword ptr [ecx + 0x3c], edx
  0x2689	jl     	0x26b0
  === BLOCK LINK ===
    0x268b
=== CODE BLOCK END ===

=== CODE BLOCK ADDRESS 0x268b ===
  0x268b	cmp    	dword ptr [ecx + 0x3c], 0x10000000
  0x2692	jae    	0x26b0
  === BLOCK LINK ===
    0x2694
=== CODE BLOCK END ===

=== CODE BLOCK ADDRESS 0x2694 ===
  0x2694	dec    	eax
  0x2695	arpl   	word ptr [ecx + 0x3c], ax
  0x2698	dec    	eax
  0x2699	add    	eax, ecx
  0x269b	dec    	eax
  === BLOCK LINK ===
    0x269c
=== CODE BLOCK END ===

=== CODE BLOCK ADDRESS 0x269c ===
  0x269c	mov    	dword ptr [esp], eax
  0x269f	cmp    	dword ptr [eax], 0x4550
  0x26a5	dec    	eax
  0x26a6	cmovne  	eax, edx
  0x26a9	dec    	eax
  === BLOCK LINK ===
    0x26aa
=== CODE BLOCK END ===

=== CODE BLOCK ADDRESS 0x26aa ===
  0x26aa	mov    	edx, eax
  0x26ac	dec    	eax
  0x26ad	mov    	dword ptr [esp], eax
  0x26b0	jmp    	0x26b8
  === BLOCK LINK ===
    0x26b2
=== CODE BLOCK END ===

=== CODE BLOCK ADDRESS 0x26b2 ===
  0x26b2	xor    	edx, edx
  0x26b4	dec    	eax
  0x26b5	mov    	dword ptr [esp], edx
  0x26b8	dec    	eax
  0x26b9	mov    	eax, edx
  === BLOCK LINK ===
    0x26bb
=== CODE BLOCK END ===

=== CODE BLOCK ADDRESS 0x26bb ===
  0x26bb	dec    	eax
  0x26bc	add    	esp, 0x18
  0x26bf	ret    	
  0x26c0	int3   	
  0x26c1	int3   	
  === BLOCK LINK ===
    0x26c2
=== CODE BLOCK END ===

=== CODE BLOCK ADDRESS 0x1453 ===
  0x1453	dec    	eax
  0x1454	add    	esp, 0x28
  === BLOCK LINK ===
    0x1457
=== CODE BLOCK END ===

=== CODE BLOCK ADDRESS 0x26c2 ===
  0x26c2	int3   	
  0x26c3	int3   	
  0x26c4	int3   	
  0x26c5	int3   	
  0x26c6	int3   	
  === BLOCK LINK ===
    0x26c7
=== CODE BLOCK END ===

=== CODE BLOCK ADDRESS 0x26c7 ===
  0x26c7	int3   	
  0x26c8	inc    	eax
  0x26c9	push   	ebx
  0x26ca	dec    	eax
  0x26cb	sub    	esp, 0x20
  === BLOCK LINK ===
    0x26ce
=== CODE BLOCK END ===

=== CODE BLOCK ADDRESS 0x26ce ===
  0x26ce	mov    	ebx, ecx
  0x26d0	xor    	ecx, ecx
  0x26d2	call   	dword ptr [0x1620]
  === BLOCK LINK ===
    0x26d8
=== CODE BLOCK END ===

=== CODE BLOCK ADDRESS 0x26d8 ===
  0x26d8	dec    	eax
  0x26d9	test   	eax, eax
  0x26db	je     	0x2705
  === BLOCK LINK ===
    0x26dd
=== CODE BLOCK END ===

=== CODE BLOCK ADDRESS 0x26dd ===
  0x26dd	dec    	eax
  0x26de	mov    	ecx, eax
  0x26e0	call   	0x266c
  === BLOCK LINK ===
    0x26e5
=== CODE BLOCK END ===

=== CODE BLOCK ADDRESS 0x26e5 ===
  0x26e5	dec    	eax
  0x26e6	test   	eax, eax
  0x26e8	je     	0x2705
  === BLOCK LINK ===
    0x26ea
=== CODE BLOCK END ===

=== CODE BLOCK ADDRESS 0x26ea ===
  0x26ea	mov    	ecx, 2
  0x26ef	cmp    	word ptr [eax + 0x5c], cx
  0x26f3	jne    	0x26f9
  === BLOCK LINK ===
    0x26f5
=== CODE BLOCK END ===

=== CODE BLOCK ADDRESS 0x26f5 ===
  0x26f5	mov    	eax, ecx
  0x26f7	jmp    	0x2707
  === BLOCK LINK ===
    0x26f9
=== CODE BLOCK END ===

=== CODE BLOCK ADDRESS 0x26f9 ===
  0x26f9	cmp    	word ptr [eax + 0x5c], 3
  0x26fe	mov    	eax, 1
  0x2703	je     	0x2707
  === BLOCK LINK ===
    0x2705
=== CODE BLOCK END ===

=== CODE BLOCK ADDRESS 0x2705 ===
  0x2705	mov    	eax, ebx
  0x2707	dec    	eax
  0x2708	add    	esp, 0x20
  0x270b	pop    	ebx
  0x270c	ret    	
  === BLOCK LINK ===
    0x270d
=== CODE BLOCK END ===

=== CODE BLOCK ADDRESS 0x270d ===
  0x270d	int3   	
  0x270e	int3   	
  0x270f	int3   	
  0x2710	int3   	
  0x2711	int3   	
  === BLOCK LINK ===
    0x2712
=== CODE BLOCK END ===

=== CODE BLOCK ADDRESS 0x2712 ===
  0x2712	int3   	
  0x2713	jmp    	dword ptr [0x171f]
  === BLOCK LINK ===
    0x2719
=== CODE BLOCK END ===

=== CODE BLOCK ADDRESS 0x2719 ===
  0x2719	int3   	
  0x271a	int3   	
  0x271b	int3   	
  0x271c	int3   	
  0x271d	int3   	
  === BLOCK LINK ===
    0x271e
=== CODE BLOCK END ===

=== CODE BLOCK ADDRESS 0x271e ===
  0x271e	int3   	
  0x271f	int3   	
  0x2720	xor    	eax, eax
  0x2722	ret    	
  0x2723	int3   	
  === BLOCK LINK ===
    0x2724
=== CODE BLOCK END ===

=== CODE BLOCK ADDRESS 0x2724 ===
  0x2724	int3   	
  0x2725	int3   	
  0x2726	int3   	
  0x2727	int3   	
  0x2728	int3   	
  === BLOCK LINK ===
    0x2729
=== CODE BLOCK END ===

=== CODE BLOCK ADDRESS 0x2729 ===
  0x2729	int3   	
  0x272a	int3   	
  0x272b	int3   	
  0x272c	int3   	
  0x272d	int3   	
  === BLOCK LINK ===
    0x272e
=== CODE BLOCK END ===

=== CODE BLOCK ADDRESS 0x272e ===
  0x272e	int3   	
  0x272f	int3   	
  0x2730	dec    	esp
  0x2731	arpl   	word ptr [ecx + 0x3c], ax
  0x2734	inc    	ebp
  === BLOCK LINK ===
    0x2735
=== CODE BLOCK END ===

=== CODE BLOCK ADDRESS 0x2735 ===
  0x2735	xor    	ecx, ecx
  0x2737	dec    	esp
  0x2738	add    	eax, ecx
  0x273a	dec    	esp
  0x273b	mov    	edx, edx
  === BLOCK LINK ===
    0x273d
=== CODE BLOCK END ===

=== CODE BLOCK ADDRESS 0x273d ===
  0x273d	inc    	ecx
  0x273e	movzx  	eax, word ptr [eax + 0x14]
  0x2742	inc    	ebp
  0x2743	movzx  	ebx, word ptr [eax + 6]
  0x2747	dec    	eax
  === BLOCK LINK ===
    0x2748
=== CODE BLOCK END ===

=== CODE BLOCK ADDRESS 0x2748 ===
  0x2748	add    	eax, 0x18
  0x274b	dec    	ecx
  0x274c	add    	eax, eax
  0x274e	inc    	ebp
  0x274f	test   	ebx, ebx
  === BLOCK LINK ===
    0x2751
=== CODE BLOCK END ===

=== CODE BLOCK ADDRESS 0x2751 ===
  0x2751	je     	0x2771
  === BLOCK LINK ===
    0x2753
=== CODE BLOCK END ===

=== CODE BLOCK ADDRESS 0x2753 ===
  0x2753	mov    	edx, dword ptr [eax + 0xc]
  0x2756	dec    	esp
  0x2757	cmp    	edx, edx
  0x2759	jb     	0x2765
  === BLOCK LINK ===
    0x275b
=== CODE BLOCK END ===

=== CODE BLOCK ADDRESS 0x275b ===
  0x275b	mov    	ecx, dword ptr [eax + 8]
  0x275e	add    	ecx, edx
  0x2760	dec    	esp
  0x2761	cmp    	edx, ecx
  0x2763	jb     	0x2773
  === BLOCK LINK ===
    0x2765
=== CODE BLOCK END ===

=== CODE BLOCK ADDRESS 0x2765 ===
  0x2765	inc    	ecx
  0x2766	inc    	ecx
  0x2768	dec    	eax
  0x2769	add    	eax, 0x28
  0x276c	inc    	ebp
  === BLOCK LINK ===
    0x276d
=== CODE BLOCK END ===

=== CODE BLOCK ADDRESS 0x276d ===
  0x276d	cmp    	ecx, ebx
  0x276f	jb     	0x2753
  === BLOCK LINK ===
    0x2771
=== CODE BLOCK END ===

=== CODE BLOCK ADDRESS 0x2771 ===
  0x2771	xor    	eax, eax
  0x2773	ret    	
  0x2774	int3   	
  0x2775	int3   	
  0x2776	int3   	
  === BLOCK LINK ===
    0x2777
=== CODE BLOCK END ===

=== CODE BLOCK ADDRESS 0x2777 ===
  0x2777	int3   	
  0x2778	int3   	
  0x2779	int3   	
  0x277a	int3   	
  0x277b	int3   	
  === BLOCK LINK ===
    0x277c
=== CODE BLOCK END ===

=== CODE BLOCK ADDRESS 0x277c ===
  0x277c	int3   	
  0x277d	int3   	
  0x277e	int3   	
  0x277f	int3   	
  0x2780	dec    	eax
  === BLOCK LINK ===
    0x2781
=== CODE BLOCK END ===

=== CODE BLOCK ADDRESS 0x2781 ===
  0x2781	mov    	dword ptr [esp + 8], ebx
  0x2785	push   	edi
  0x2786	dec    	eax
  0x2787	sub    	esp, 0x20
  0x278a	dec    	eax
  === BLOCK LINK ===
    0x278b
=== CODE BLOCK END ===

=== CODE BLOCK ADDRESS 0x278b ===
  0x278b	mov    	ebx, ecx
  0x278d	dec    	eax
  0x278e	lea    	edi, [0xffffd86c]
  0x2794	dec    	eax
  0x2795	mov    	ecx, edi
  === BLOCK LINK ===
    0x2797
=== CODE BLOCK END ===

=== CODE BLOCK ADDRESS 0x2797 ===
  0x2797	call   	0x27e0
  === BLOCK LINK ===
    0x279c
=== CODE BLOCK END ===

=== CODE BLOCK ADDRESS 0x279c ===
  0x279c	test   	eax, eax
  0x279e	je     	0x27c2
  === BLOCK LINK ===
    0x27a0
=== CODE BLOCK END ===

=== CODE BLOCK ADDRESS 0x27a0 ===
  0x27a0	dec    	eax
  0x27a1	sub    	ebx, edi
  0x27a3	dec    	eax
  0x27a4	mov    	edx, ebx
  0x27a6	dec    	eax
  === BLOCK LINK ===
    0x27a7
=== CODE BLOCK END ===

=== CODE BLOCK ADDRESS 0x27a7 ===
  0x27a7	mov    	ecx, edi
  0x27a9	call   	0x2730
  === BLOCK LINK ===
    0x27ae
=== CODE BLOCK END ===

=== CODE BLOCK ADDRESS 0x27ae ===
  0x27ae	dec    	eax
  0x27af	test   	eax, eax
  0x27b1	je     	0x27c2
  === BLOCK LINK ===
    0x27b3
=== CODE BLOCK END ===

=== CODE BLOCK ADDRESS 0x27b3 ===
  0x27b3	mov    	eax, dword ptr [eax + 0x24]
  0x27b6	shr    	eax, 0x1f
  0x27b9	not    	eax
  0x27bb	and    	eax, 1
  0x27be	jmp    	0x27c2
  === BLOCK LINK ===
    0x27c0
=== CODE BLOCK END ===

=== CODE BLOCK ADDRESS 0x27c0 ===
  0x27c0	xor    	eax, eax
  0x27c2	dec    	eax
  0x27c3	mov    	ebx, dword ptr [esp + 0x30]
  0x27c7	dec    	eax
  0x27c8	add    	esp, 0x20
  === BLOCK LINK ===
    0x27cb
=== CODE BLOCK END ===

=== CODE BLOCK ADDRESS 0x27cb ===
  0x27cb	pop    	edi
  0x27cc	ret    	
  0x27cd	int3   	
  0x27ce	int3   	
  0x27cf	int3   	
  === BLOCK LINK ===
    0x27d0
=== CODE BLOCK END ===

=== CODE BLOCK ADDRESS 0x27d0 ===
  0x27d0	int3   	
  0x27d1	int3   	
  0x27d2	int3   	
  0x27d3	int3   	
  0x27d4	int3   	
  === BLOCK LINK ===
    0x27d5
=== CODE BLOCK END ===

=== CODE BLOCK ADDRESS 0x27d5 ===
  0x27d5	int3   	
  0x27d6	int3   	
  0x27d7	int3   	
  0x27d8	int3   	
  0x27d9	int3   	
  === BLOCK LINK ===
    0x27da
=== CODE BLOCK END ===

=== CODE BLOCK ADDRESS 0x27da ===
  0x27da	int3   	
  0x27db	int3   	
  0x27dc	int3   	
  0x27dd	int3   	
  0x27de	int3   	
  === BLOCK LINK ===
    0x27df
=== CODE BLOCK END ===

=== CODE BLOCK ADDRESS 0x27df ===
  0x27df	int3   	
  0x27e0	mov    	eax, 0x5a4d
  0x27e5	cmp    	word ptr [ecx], ax
  0x27e8	jne    	0x280a
  === BLOCK LINK ===
    0x27ea
=== CODE BLOCK END ===

=== CODE BLOCK ADDRESS 0x27ea ===
  0x27ea	dec    	eax
  0x27eb	arpl   	word ptr [ecx + 0x3c], ax
  0x27ee	dec    	eax
  0x27ef	add    	eax, ecx
  0x27f1	cmp    	dword ptr [eax], 0x4550
  === BLOCK LINK ===
    0x27f7
=== CODE BLOCK END ===

=== CODE BLOCK ADDRESS 0x27f7 ===
  0x27f7	jne    	0x280a
  === BLOCK LINK ===
    0x27f9
=== CODE BLOCK END ===

=== CODE BLOCK ADDRESS 0x27f9 ===
  0x27f9	mov    	ecx, 0x20b
  0x27fe	cmp    	word ptr [eax + 0x18], cx
  0x2802	jne    	0x280a
  === BLOCK LINK ===
    0x2804
=== CODE BLOCK END ===

=== CODE BLOCK ADDRESS 0x2804 ===
  0x2804	mov    	eax, 1
  0x2809	ret    	
  0x280a	xor    	eax, eax
  0x280c	ret    	
  0x280d	int3   	
  === BLOCK LINK ===
    0x280e
=== CODE BLOCK END ===

=== CODE BLOCK ADDRESS 0x15c3 ===
  0x15c3	dec    	eax
  0x15c4	mov    	ebp, dword ptr [esp + 0x38]
  0x15c8	mov    	eax, ebx
  0x15ca	dec    	eax
  === BLOCK LINK ===
    0x15cb
=== CODE BLOCK END ===

=== CODE BLOCK ADDRESS 0x280e ===
  0x280e	int3   	
  0x280f	int3   	
  0x2810	int3   	
  0x2811	int3   	
  0x2812	int3   	
  === BLOCK LINK ===
    0x2813
=== CODE BLOCK END ===

=== CODE BLOCK ADDRESS 0x2813 ===
  0x2813	int3   	
  0x2814	dec    	eax
  0x2815	mov    	dword ptr [esp + 0x20], ebx
  0x2819	push   	ebp
  0x281a	dec    	eax
  === BLOCK LINK ===
    0x281b
=== CODE BLOCK END ===

=== CODE BLOCK ADDRESS 0x281b ===
  0x281b	mov    	ebp, esp
  0x281d	dec    	eax
  0x281e	sub    	esp, 0x20
  0x2821	dec    	eax
  0x2822	and    	dword ptr [ebp + 0x18], 0
  === BLOCK LINK ===
    0x2826
=== CODE BLOCK END ===

=== CODE BLOCK ADDRESS 0x2826 ===
  0x2826	dec    	eax
  0x2827	mov    	ebx, 0x2ddfa232
  0x282c	cdq    	
  0x282d	sub    	eax, dword ptr [eax]
  0x282f	add    	byte ptr [eax - 0x75], cl
  === BLOCK LINK ===
    0x2832
=== CODE BLOCK END ===

=== CODE BLOCK ADDRESS 0x2832 ===
  0x2832	add    	eax, 0x37d1
  0x2837	dec    	eax
  0x2838	cmp    	eax, ebx
  0x283a	jne    	0x28d3
  === BLOCK LINK ===
    0x2840
=== CODE BLOCK END ===

=== CODE BLOCK ADDRESS 0x2840 ===
  0x2840	dec    	eax
  0x2841	lea    	ecx, [ebp + 0x18]
  0x2844	call   	dword ptr [0x148e]
  === BLOCK LINK ===
    0x284a
=== CODE BLOCK END ===

=== CODE BLOCK ADDRESS 0x284a ===
  0x284a	dec    	eax
  0x284b	mov    	eax, dword ptr [ebp + 0x18]
  0x284e	dec    	eax
  0x284f	mov    	dword ptr [ebp + 0x10], eax
  0x2852	call   	dword ptr [0x1490]
  === BLOCK LINK ===
    0x2858
=== CODE BLOCK END ===

=== CODE BLOCK ADDRESS 0x2858 ===
  0x2858	mov    	eax, eax
  0x285a	dec    	eax
  0x285b	xor    	dword ptr [ebp + 0x10], eax
  0x285e	call   	dword ptr [0x147c]
  === BLOCK LINK ===
    0x2864
=== CODE BLOCK END ===

=== CODE BLOCK ADDRESS 0x2864 ===
  0x2864	mov    	eax, eax
  0x2866	dec    	eax
  0x2867	xor    	dword ptr [ebp + 0x10], eax
  0x286a	call   	dword ptr [0x1460]
  === BLOCK LINK ===
    0x2870
=== CODE BLOCK END ===

=== CODE BLOCK ADDRESS 0x2870 ===
  0x2870	mov    	eax, eax
  0x2872	dec    	eax
  0x2873	shl    	eax, 0x18
  0x2876	dec    	eax
  0x2877	xor    	dword ptr [ebp + 0x10], eax
  === BLOCK LINK ===
    0x287a
=== CODE BLOCK END ===

=== CODE BLOCK ADDRESS 0x287a ===
  0x287a	call   	dword ptr [0x1450]
  === BLOCK LINK ===
    0x2880
=== CODE BLOCK END ===

=== CODE BLOCK ADDRESS 0x2880 ===
  0x2880	mov    	eax, eax
  0x2882	dec    	eax
  0x2883	lea    	ecx, [ebp + 0x10]
  0x2886	dec    	eax
  0x2887	xor    	eax, dword ptr [ebp + 0x10]
  === BLOCK LINK ===
    0x288a
=== CODE BLOCK END ===

=== CODE BLOCK ADDRESS 0x288a ===
  0x288a	dec    	eax
  0x288b	xor    	eax, ecx
  0x288d	dec    	eax
  0x288e	lea    	ecx, [ebp + 0x20]
  0x2891	dec    	eax
  === BLOCK LINK ===
    0x2892
=== CODE BLOCK END ===

=== CODE BLOCK ADDRESS 0x2892 ===
  0x2892	mov    	dword ptr [ebp + 0x10], eax
  0x2895	call   	dword ptr [0x1455]
  === BLOCK LINK ===
    0x289b
=== CODE BLOCK END ===

=== CODE BLOCK ADDRESS 0x289b ===
  0x289b	mov    	eax, dword ptr [ebp + 0x20]
  0x289e	dec    	eax
  0x289f	mov    	ecx, 0xffffffff
  0x28a4	.byte  	0xff
  0x28a5	inc    	dword ptr [eax]
  === BLOCK LINK ===
    0x28a7
=== CODE BLOCK END ===

=== CODE BLOCK ADDRESS 0x28a7 ===
  0x28a7	add    	byte ptr [eax - 0x3f], cl
  0x28aa	loopne  	0x28cc
  === BLOCK LINK ===
    0x28ac
=== CODE BLOCK END ===

=== CODE BLOCK ADDRESS 0x28ac ===
  0x28ac	dec    	eax
  0x28ad	xor    	eax, dword ptr [ebp + 0x20]
  0x28b0	dec    	eax
  0x28b1	xor    	eax, dword ptr [ebp + 0x10]
  0x28b4	dec    	eax
  === BLOCK LINK ===
    0x28b5
=== CODE BLOCK END ===

=== CODE BLOCK ADDRESS 0x28b5 ===
  0x28b5	and    	eax, ecx
  0x28b7	dec    	eax
  0x28b8	mov    	ecx, eax
  0x28ba	dec    	eax
  0x28bb	cmp    	eax, ebx
  === BLOCK LINK ===
    0x28bd
=== CODE BLOCK END ===

=== CODE BLOCK ADDRESS 0x28bd ===
  0x28bd	jne    	0x28cc
  === BLOCK LINK ===
    0x28bf
=== CODE BLOCK END ===

=== CODE BLOCK ADDRESS 0x28bf ===
  0x28bf	dec    	eax
  0x28c0	mov    	eax, 0x2ddfa233
  0x28c5	cdq    	
  0x28c6	sub    	eax, dword ptr [eax]
  0x28c8	add    	byte ptr [eax - 0x75], cl
  === BLOCK LINK ===
    0x28cb
=== CODE BLOCK END ===

=== CODE BLOCK ADDRESS 0x28cb ===
  0x28cb	enter  	-0x76b8, 0xd
  0x28cf	xor    	eax, 0x48000037
  0x28d4	mov    	ebx, dword ptr [esp + 0x48]
  0x28d8	dec    	eax
  0x28d9	not    	eax
  === BLOCK LINK ===
    0x28db
=== CODE BLOCK END ===

=== CODE BLOCK ADDRESS 0x28db ===
  0x28db	dec    	eax
  0x28dc	mov    	dword ptr [0x372e], eax
  0x28e2	dec    	eax
  0x28e3	add    	esp, 0x20
  0x28e6	pop    	ebp
  === BLOCK LINK ===
    0x28e7
=== CODE BLOCK END ===

=== CODE BLOCK ADDRESS 0x28e7 ===
  0x28e7	ret    	
  0x28e8	int3   	
  0x28e9	int3   	
  0x28ea	int3   	
  0x28eb	int3   	
  === BLOCK LINK ===
    0x28ec
=== CODE BLOCK END ===

=== CODE BLOCK ADDRESS 0x28ec ===
  0x28ec	int3   	
  0x28ed	int3   	
  0x28ee	jmp    	dword ptr [0x1504]
  === BLOCK LINK ===
    0x28f4
=== CODE BLOCK END ===

=== CODE BLOCK ADDRESS 0x28f4 ===
  0x28f4	int3   	
  0x28f5	int3   	
  0x28f6	int3   	
  0x28f7	int3   	
  0x28f8	int3   	
  === BLOCK LINK ===
    0x28f9
=== CODE BLOCK END ===

=== CODE BLOCK ADDRESS 0x28f9 ===
  0x28f9	int3   	
  0x28fa	jmp    	dword ptr [0x14f0]
  === BLOCK LINK ===
    0x2900
=== CODE BLOCK END ===

=== CODE BLOCK ADDRESS 0x2900 ===
  0x2900	int3   	
  0x2901	int3   	
  0x2902	int3   	
  0x2903	int3   	
  0x2904	int3   	
  === BLOCK LINK ===
    0x2905
=== CODE BLOCK END ===

=== CODE BLOCK ADDRESS 0x2905 ===
  0x2905	int3   	
  0x2906	int3   	
  0x2907	int3   	
  0x2908	int3   	
  0x2909	int3   	
  === BLOCK LINK ===
    0x290a
=== CODE BLOCK END ===

=== CODE BLOCK ADDRESS 0x290a ===
  0x290a	int3   	
  0x290b	int3   	
  0x290c	int3   	
  0x290d	int3   	
  0x290e	int3   	
  === BLOCK LINK ===
    0x290f
=== CODE BLOCK END ===

=== CODE BLOCK ADDRESS 0x290f ===
  0x290f	int3   	
  0x2910	ret    	0
  0x2913	int3   	
  0x2914	int3   	
  0x2915	int3   	
  === BLOCK LINK ===
    0x2916
=== CODE BLOCK END ===

=== CODE BLOCK ADDRESS 0x21bc ===
=== CODE BLOCK END ===

=== CODE BLOCK ADDRESS 0x2916 ===
  0x2916	int3   	
  0x2917	int3   	
  0x2918	int3   	
  0x2919	int3   	
  0x291a	int3   	
  === BLOCK LINK ===
    0x291b
=== CODE BLOCK END ===

=== CODE BLOCK ADDRESS 0x291b ===
  0x291b	int3   	
  0x291c	inc    	eax
  0x291d	push   	ebx
  0x291e	dec    	eax
  0x291f	sub    	esp, 0x20
  === BLOCK LINK ===
    0x2922
=== CODE BLOCK END ===

=== CODE BLOCK ADDRESS 0x2922 ===
  0x2922	dec    	eax
  0x2923	mov    	ebx, ecx
  0x2925	xor    	ecx, ecx
  0x2927	call   	dword ptr [0x13d3]
  === BLOCK LINK ===
    0x292d
=== CODE BLOCK END ===

=== CODE BLOCK ADDRESS 0x292d ===
  0x292d	dec    	eax
  0x292e	mov    	ecx, ebx
  0x2930	call   	dword ptr [0x137a]
  === BLOCK LINK ===
    0x2936
=== CODE BLOCK END ===

=== CODE BLOCK ADDRESS 0x2936 ===
  0x2936	call   	dword ptr [0x136c]
  === BLOCK LINK ===
    0x293c
=== CODE BLOCK END ===

=== CODE BLOCK ADDRESS 0x293c ===
  0x293c	dec    	eax
  0x293d	mov    	ecx, eax
  0x293f	mov    	edx, 0xc0000409
  0x2944	dec    	eax
  0x2945	add    	esp, 0x20
  === BLOCK LINK ===
    0x2948
=== CODE BLOCK END ===

=== CODE BLOCK ADDRESS 0x2948 ===
  0x2948	pop    	ebx
  0x2949	dec    	eax
  0x294a	jmp    	dword ptr [0x13c0]
  === BLOCK LINK ===
    0x2950
=== CODE BLOCK END ===

=== CODE BLOCK ADDRESS 0x2950 ===
  0x2950	int3   	
  0x2951	int3   	
  0x2952	int3   	
  0x2953	int3   	
  0x2954	int3   	
  === BLOCK LINK ===
    0x2955
=== CODE BLOCK END ===

=== CODE BLOCK ADDRESS 0x2955 ===
  0x2955	int3   	
  0x2956	int3   	
  0x2957	int3   	
  0x2958	int3   	
  0x2959	int3   	
  === BLOCK LINK ===
    0x295a
=== CODE BLOCK END ===

=== CODE BLOCK ADDRESS 0x295a ===
  0x295a	int3   	
  0x295b	int3   	
  0x295c	int3   	
  0x295d	int3   	
  0x295e	int3   	
  === BLOCK LINK ===
    0x295f
=== CODE BLOCK END ===

=== CODE BLOCK ADDRESS 0x295f ===
  0x295f	int3   	
  0x2960	dec    	eax
  0x2961	mov    	dword ptr [esp + 8], ecx
  0x2965	dec    	eax
  0x2966	sub    	esp, 0x88
  === BLOCK LINK ===
    0x296c
=== CODE BLOCK END ===

=== CODE BLOCK ADDRESS 0x296c ===
  0x296c	dec    	eax
  0x296d	lea    	ecx, [0x378d]
  0x2973	call   	dword ptr [0x134f]
  === BLOCK LINK ===
    0x2979
=== CODE BLOCK END ===

=== CODE BLOCK ADDRESS 0x2979 ===
  0x2979	dec    	eax
  0x297a	mov    	eax, dword ptr [0x3878]
  0x2980	dec    	eax
  0x2981	mov    	dword ptr [esp + 0x48], eax
  0x2985	inc    	ebp
  === BLOCK LINK ===
    0x2986
=== CODE BLOCK END ===

=== CODE BLOCK ADDRESS 0x2986 ===
  0x2986	xor    	eax, eax
  0x2988	dec    	eax
  0x2989	lea    	edx, [esp + 0x50]
  0x298d	dec    	eax
  0x298e	mov    	ecx, dword ptr [esp + 0x48]
  === BLOCK LINK ===
    0x2992
=== CODE BLOCK END ===

=== CODE BLOCK ADDRESS 0x2992 ===
  0x2992	call   	dword ptr [0x1328]
  === BLOCK LINK ===
    0x2998
=== CODE BLOCK END ===

=== CODE BLOCK ADDRESS 0x2998 ===
  0x2998	dec    	eax
  0x2999	mov    	dword ptr [esp + 0x40], eax
  0x299d	dec    	eax
  0x299e	cmp    	dword ptr [esp + 0x40], 0
  0x29a3	je     	0x29e7
  === BLOCK LINK ===
    0x29a5
=== CODE BLOCK END ===

=== CODE BLOCK ADDRESS 0x29a5 ===
  0x29a5	dec    	eax
  0x29a6	mov    	dword ptr [esp + 0x38], 0
  0x29ae	dec    	eax
  0x29af	lea    	eax, [esp + 0x58]
  0x29b3	dec    	eax
  === BLOCK LINK ===
    0x29b4
=== CODE BLOCK END ===

=== CODE BLOCK ADDRESS 0x29b4 ===
  0x29b4	mov    	dword ptr [esp + 0x30], eax
  0x29b8	dec    	eax
  0x29b9	lea    	eax, [esp + 0x60]
  0x29bd	dec    	eax
  0x29be	mov    	dword ptr [esp + 0x28], eax
  === BLOCK LINK ===
    0x29c2
=== CODE BLOCK END ===

=== CODE BLOCK ADDRESS 0x29c2 ===
  0x29c2	dec    	eax
  0x29c3	lea    	eax, [0x3737]
  0x29c9	dec    	eax
  0x29ca	mov    	dword ptr [esp + 0x20], eax
  0x29ce	dec    	esp
  === BLOCK LINK ===
    0x29cf
=== CODE BLOCK END ===

=== CODE BLOCK ADDRESS 0x29cf ===
  0x29cf	mov    	ecx, dword ptr [esp + 0x40]
  0x29d3	dec    	esp
  0x29d4	mov    	eax, dword ptr [esp + 0x48]
  0x29d8	dec    	eax
  0x29d9	mov    	edx, dword ptr [esp + 0x50]
  === BLOCK LINK ===
    0x29dd
=== CODE BLOCK END ===

=== CODE BLOCK ADDRESS 0x29dd ===
  0x29dd	xor    	ecx, ecx
  0x29df	call   	dword ptr [0x12d3]
  === BLOCK LINK ===
    0x29e5
=== CODE BLOCK END ===

=== CODE BLOCK ADDRESS 0x29e5 ===
  0x29e5	jmp    	0x2a0a
  === BLOCK LINK ===
    0x29e7
=== CODE BLOCK END ===

=== CODE BLOCK ADDRESS 0x29e7 ===
  0x29e7	dec    	eax
  0x29e8	mov    	eax, dword ptr [0x37aa]
  0x29ee	dec    	eax
  0x29ef	mov    	eax, dword ptr [eax]
  0x29f1	dec    	eax
  === BLOCK LINK ===
    0x29f2
=== CODE BLOCK END ===

=== CODE BLOCK ADDRESS 0x29f2 ===
  0x29f2	mov    	dword ptr [0x3800], eax
  0x29f8	dec    	eax
  0x29f9	mov    	eax, dword ptr [0x3799]
  0x29ff	dec    	eax
  0x2a00	add    	eax, 8
  === BLOCK LINK ===
    0x2a03
=== CODE BLOCK END ===

=== CODE BLOCK ADDRESS 0x2a03 ===
  0x2a03	dec    	eax
  0x2a04	mov    	dword ptr [0x378e], eax
  0x2a0a	dec    	eax
  0x2a0b	mov    	eax, dword ptr [0x37e7]
  0x2a11	dec    	eax
  === BLOCK LINK ===
    0x2a12
=== CODE BLOCK END ===

=== CODE BLOCK ADDRESS 0x2a12 ===
  0x2a12	mov    	dword ptr [0x3658], eax
  0x2a18	dec    	eax
  0x2a19	mov    	eax, dword ptr [esp + 0x90]
  0x2a20	dec    	eax
  0x2a21	mov    	dword ptr [0x3759], eax
  === BLOCK LINK ===
    0x2a27
=== CODE BLOCK END ===

=== CODE BLOCK ADDRESS 0x2a27 ===
  0x2a27	mov    	dword ptr [0x362f], 0xc0000409
  0x2a31	mov    	dword ptr [0x3629], 1
  0x2a3b	mov    	dword ptr [0x3633], 3
  0x2a45	mov    	eax, 8
  0x2a4a	dec    	eax
  === BLOCK LINK ===
    0x2a4b
=== CODE BLOCK END ===

=== CODE BLOCK ADDRESS 0x2a4b ===
  0x2a4b	imul   	eax, eax, 0
  0x2a4e	dec    	eax
  0x2a4f	lea    	ecx, [0x362b]
  0x2a55	dec    	eax
  0x2a56	mov    	dword ptr [ecx + eax], 2
  === BLOCK LINK ===
    0x2a5d
=== CODE BLOCK END ===

=== CODE BLOCK ADDRESS 0x2a5d ===
  0x2a5d	mov    	eax, 8
  0x2a62	dec    	eax
  0x2a63	imul   	eax, eax, 1
  0x2a66	dec    	eax
  0x2a67	lea    	ecx, [0x3613]
  === BLOCK LINK ===
    0x2a6d
=== CODE BLOCK END ===

=== CODE BLOCK ADDRESS 0x2a6d ===
  0x2a6d	dec    	eax
  0x2a6e	mov    	edx, dword ptr [0x3594]
  0x2a74	dec    	eax
  0x2a75	mov    	dword ptr [ecx + eax], edx
  0x2a78	mov    	eax, 8
  === BLOCK LINK ===
    0x2a7d
=== CODE BLOCK END ===

=== CODE BLOCK ADDRESS 0x2a7d ===
  0x2a7d	dec    	eax
  0x2a7e	imul   	eax, eax, 2
  0x2a81	dec    	eax
  0x2a82	lea    	ecx, [0x35f8]
  0x2a88	dec    	eax
  === BLOCK LINK ===
    0x2a89
=== CODE BLOCK END ===

=== CODE BLOCK ADDRESS 0x2a89 ===
  0x2a89	mov    	edx, dword ptr [0x3581]
  0x2a8f	dec    	eax
  0x2a90	mov    	dword ptr [ecx + eax], edx
  0x2a93	mov    	eax, 8
  0x2a98	dec    	eax
  === BLOCK LINK ===
    0x2a99
=== CODE BLOCK END ===

=== CODE BLOCK ADDRESS 0x2a99 ===
  0x2a99	imul   	eax, eax, 0
  0x2a9c	dec    	eax
  0x2a9d	mov    	ecx, dword ptr [0x3565]
  0x2aa3	dec    	eax
  0x2aa4	mov    	dword ptr [esp + eax + 0x68], ecx
  === BLOCK LINK ===
    0x2aa8
=== CODE BLOCK END ===

=== CODE BLOCK ADDRESS 0x2aa8 ===
  0x2aa8	mov    	eax, 8
  0x2aad	dec    	eax
  0x2aae	imul   	eax, eax, 1
  0x2ab1	dec    	eax
  0x2ab2	mov    	ecx, dword ptr [0x3558]
  === BLOCK LINK ===
    0x2ab8
=== CODE BLOCK END ===

=== CODE BLOCK ADDRESS 0x2ab8 ===
  0x2ab8	dec    	eax
  0x2ab9	mov    	dword ptr [esp + eax + 0x68], ecx
  0x2abd	dec    	eax
  0x2abe	lea    	ecx, [0x53c]
  0x2ac4	call   	0x291c
  === BLOCK LINK ===
    0x2ac9
=== CODE BLOCK END ===

=== CODE BLOCK ADDRESS 0x2ac9 ===
  0x2ac9	dec    	eax
  0x2aca	add    	esp, 0x88
  0x2ad0	ret    	
  0x2ad1	int3   	
  0x2ad2	int3   	
  === BLOCK LINK ===
    0x2ad3
=== CODE BLOCK END ===

=== CODE BLOCK ADDRESS 0x2ad3 ===
  0x2ad3	int3   	
  0x2ad4	int3   	
  0x2ad5	int3   	
  0x2ad6	int3   	
  0x2ad7	int3   	
  === BLOCK LINK ===
    0x2ad8
=== CODE BLOCK END ===

=== CODE BLOCK ADDRESS 0x2ad8 ===
  0x2ad8	int3   	
  0x2ad9	int3   	
  0x2ada	int3   	
  0x2adb	int3   	
  0x2adc	int3   	
  === BLOCK LINK ===
    0x2add
=== CODE BLOCK END ===

=== CODE BLOCK ADDRESS 0x2add ===
  0x2add	int3   	
  0x2ade	int3   	
  0x2adf	int3   	
  0x2ae0	int3   	
  0x2ae1	int3   	
  === BLOCK LINK ===
    0x2ae2
=== CODE BLOCK END ===

=== CODE BLOCK ADDRESS 0x2ae2 ===
  0x2ae2	int3   	
  0x2ae3	int3   	
  0x2ae4	int3   	
  0x2ae5	int3   	
  0x2ae6	int3   	
  === BLOCK LINK ===
    0x2ae7
=== CODE BLOCK END ===

=== CODE BLOCK ADDRESS 0x2ae7 ===
  0x2ae7	int3   	
  0x2ae8	int3   	
  0x2ae9	int3   	
  0x2aea	int3   	
  0x2aeb	int3   	
  === BLOCK LINK ===
    0x2aec
=== CODE BLOCK END ===

=== CODE BLOCK ADDRESS 0x2aec ===
  0x2aec	int3   	
  0x2aed	int3   	
  0x2aee	int3   	
  0x2aef	int3   	
  0x2af0	jmp    	dword ptr [0x140a]
  === BLOCK LINK ===
    0x2af6
=== CODE BLOCK END ===

=== CODE BLOCK ADDRESS 0x2af6 ===
  0x2af6	int3   	
  0x2af7	int3   	
  0x2af8	int3   	
  0x2af9	int3   	
  0x2afa	int3   	
  === BLOCK LINK ===
    0x2afb
=== CODE BLOCK END ===

=== CODE BLOCK ADDRESS 0x2afb ===
  0x2afb	int3   	
  0x2afc	int3   	
  0x2afd	int3   	
  0x2afe	int3   	
  0x2aff	int3   	
  === BLOCK LINK ===
    0x2b00
=== CODE BLOCK END ===

=== CODE BLOCK ADDRESS 0x2b00 ===
  0x2b00	jmp    	dword ptr [0x13ca]
  === BLOCK LINK ===
    0x2b06
=== CODE BLOCK END ===

=== CODE BLOCK ADDRESS 0x2b06 ===
  0x2b06	int3   	
  0x2b07	int3   	
  0x2b08	int3   	
  0x2b09	int3   	
  0x2b0a	int3   	
  === BLOCK LINK ===
    0x2b0b
=== CODE BLOCK END ===

=== CODE BLOCK ADDRESS 0x2b0b ===
  0x2b0b	int3   	
  0x2b0c	int3   	
  0x2b0d	int3   	
  0x2b0e	int3   	
  0x2b0f	int3   	
  === BLOCK LINK ===
    0x2b10
=== CODE BLOCK END ===

=== CODE BLOCK ADDRESS 0x2b10 ===
  0x2b10	jmp    	dword ptr [0x13b2]
  === BLOCK LINK ===
    0x2b16
=== CODE BLOCK END ===

=== CODE BLOCK ADDRESS 0x2b16 ===
  0x2b16	int3   	
  0x2b17	int3   	
  0x2b18	int3   	
  0x2b19	int3   	
  0x2b1a	int3   	
  === BLOCK LINK ===
    0x2b1b
=== CODE BLOCK END ===

=== CODE BLOCK ADDRESS 0x2b1b ===
  0x2b1b	int3   	
  0x2b1c	int3   	
  0x2b1d	int3   	
  0x2b1e	int3   	
  0x2b1f	int3   	
  === BLOCK LINK ===
    0x2b20
=== CODE BLOCK END ===

=== CODE BLOCK ADDRESS 0x2b20 ===
  0x2b20	jmp    	dword ptr [0x139a]
  === BLOCK LINK ===
    0x2b26
=== CODE BLOCK END ===

=== CODE BLOCK ADDRESS 0x2b26 ===
  0x2b26	int3   	
  0x2b27	int3   	
  0x2b28	int3   	
  0x2b29	int3   	
  0x2b2a	int3   	
  === BLOCK LINK ===
    0x2b2b
=== CODE BLOCK END ===

=== CODE BLOCK ADDRESS 0x2b2b ===
  0x2b2b	int3   	
  0x2b2c	int3   	
  0x2b2d	int3   	
  0x2b2e	int3   	
  0x2b2f	int3   	
  === BLOCK LINK ===
    0x2b30
=== CODE BLOCK END ===

=== CODE BLOCK ADDRESS 0x2b30 ===
  0x2b30	jmp    	dword ptr [0x1382]
  === BLOCK LINK ===
    0x2b36
=== CODE BLOCK END ===

=== CODE BLOCK ADDRESS 0x2b36 ===
  0x2b36	int3   	
  0x2b37	int3   	
  0x2b38	int3   	
  0x2b39	int3   	
  0x2b3a	int3   	
  === BLOCK LINK ===
    0x2b3b
=== CODE BLOCK END ===

=== CODE BLOCK ADDRESS 0x2b3b ===
  0x2b3b	int3   	
  0x2b3c	int3   	
  0x2b3d	int3   	
  0x2b3e	int3   	
  0x2b3f	int3   	
  === BLOCK LINK ===
    0x2b40
=== CODE BLOCK END ===

=== CODE BLOCK ADDRESS 0x2b40 ===
  0x2b40	jmp    	dword ptr [0x136a]
  === BLOCK LINK ===
    0x2b46
=== CODE BLOCK END ===

=== CODE BLOCK ADDRESS 0x2b46 ===
  0x2b46	int3   	
  0x2b47	int3   	
  0x2b48	int3   	
  0x2b49	int3   	
  0x2b4a	int3   	
  === BLOCK LINK ===
    0x2b4b
=== CODE BLOCK END ===

=== CODE BLOCK ADDRESS 0x2b4b ===
  0x2b4b	int3   	
  0x2b4c	int3   	
  0x2b4d	int3   	
  0x2b4e	int3   	
  0x2b4f	int3   	
  === BLOCK LINK ===
    0x2b50
=== CODE BLOCK END ===

=== CODE BLOCK ADDRESS 0x2b50 ===
  0x2b50	jmp    	dword ptr [0x1352]
  === BLOCK LINK ===
    0x2b56
=== CODE BLOCK END ===

=== CODE BLOCK ADDRESS 0x2b56 ===
  0x2b56	int3   	
  0x2b57	int3   	
  0x2b58	int3   	
  0x2b59	int3   	
  0x2b5a	int3   	
  === BLOCK LINK ===
    0x2b5b
=== CODE BLOCK END ===

=== CODE BLOCK ADDRESS 0x2b5b ===
  0x2b5b	int3   	
  0x2b5c	int3   	
  0x2b5d	int3   	
  0x2b5e	int3   	
  0x2b5f	int3   	
  === BLOCK LINK ===
    0x2b60
=== CODE BLOCK END ===

=== CODE BLOCK ADDRESS 0x2b60 ===
  0x2b60	jmp    	dword ptr [0x133a]
  === BLOCK LINK ===
    0x2b66
=== CODE BLOCK END ===

=== CODE BLOCK ADDRESS 0x2b66 ===
  0x2b66	int3   	
  0x2b67	int3   	
  0x2b68	int3   	
  0x2b69	int3   	
  0x2b6a	int3   	
  === BLOCK LINK ===
    0x2b6b
=== CODE BLOCK END ===

=== CODE BLOCK ADDRESS 0x2b6b ===
  0x2b6b	int3   	
  0x2b6c	int3   	
  0x2b6d	int3   	
  0x2b6e	int3   	
  0x2b6f	int3   	
  === BLOCK LINK ===
    0x2b70
=== CODE BLOCK END ===

=== CODE BLOCK ADDRESS 0x2b70 ===
  0x2b70	jmp    	dword ptr [0x1322]
  === BLOCK LINK ===
    0x2b76
=== CODE BLOCK END ===

=== CODE BLOCK ADDRESS 0x2b76 ===
  0x2b76	int3   	
  0x2b77	int3   	
  0x2b78	int3   	
  0x2b79	int3   	
  0x2b7a	int3   	
  === BLOCK LINK ===
    0x2b7b
=== CODE BLOCK END ===

=== CODE BLOCK ADDRESS 0x2b7b ===
  0x2b7b	int3   	
  0x2b7c	int3   	
  0x2b7d	int3   	
  0x2b7e	int3   	
  0x2b7f	int3   	
  === BLOCK LINK ===
    0x2b80
=== CODE BLOCK END ===

=== CODE BLOCK ADDRESS 0x2b80 ===
  0x2b80	jmp    	dword ptr [0x130a]
  === BLOCK LINK ===
    0x2b86
=== CODE BLOCK END ===

=== CODE BLOCK ADDRESS 0x2b86 ===
  0x2b86	int3   	
  0x2b87	int3   	
  0x2b88	int3   	
  0x2b89	int3   	
  0x2b8a	int3   	
  === BLOCK LINK ===
    0x2b8b
=== CODE BLOCK END ===

=== CODE BLOCK ADDRESS 0x2b8b ===
  0x2b8b	int3   	
  0x2b8c	int3   	
  0x2b8d	int3   	
  0x2b8e	int3   	
  0x2b8f	int3   	
  === BLOCK LINK ===
    0x2b90
=== CODE BLOCK END ===

=== CODE BLOCK ADDRESS 0x2b90 ===
  0x2b90	jmp    	dword ptr [0x120a]
  === BLOCK LINK ===
    0x2b96
=== CODE BLOCK END ===

=== CODE BLOCK ADDRESS 0x2b96 ===
  0x2b96	int3   	
  0x2b97	int3   	
  0x2b98	int3   	
  0x2b99	int3   	
  0x2b9a	int3   	
  === BLOCK LINK ===
    0x2b9b
=== CODE BLOCK END ===

=== CODE BLOCK ADDRESS 0x2b9b ===
  0x2b9b	int3   	
  0x2b9c	int3   	
  0x2b9d	int3   	
  0x2b9e	int3   	
  0x2b9f	int3   	
  === BLOCK LINK ===
    0x2ba0
=== CODE BLOCK END ===

=== CODE BLOCK ADDRESS 0x2ba0 ===
  0x2ba0	jmp    	dword ptr [0x1192]
  === BLOCK LINK ===
    0x2ba6
=== CODE BLOCK END ===

=== CODE BLOCK ADDRESS 0x2ba6 ===
  0x2ba6	int3   	
  0x2ba7	int3   	
  0x2ba8	int3   	
  0x2ba9	int3   	
  0x2baa	int3   	
  === BLOCK LINK ===
    0x2bab
=== CODE BLOCK END ===

=== CODE BLOCK ADDRESS 0x2bab ===
  0x2bab	int3   	
  0x2bac	int3   	
  0x2bad	int3   	
  0x2bae	int3   	
  0x2baf	int3   	
  === BLOCK LINK ===
    0x2bb0
=== CODE BLOCK END ===

=== CODE BLOCK ADDRESS 0x2bb0 ===
  0x2bb0	jmp    	dword ptr [0x118a]
  === BLOCK LINK ===
    0x2bb6
=== CODE BLOCK END ===

=== CODE BLOCK ADDRESS 0x2bb6 ===
  0x2bb6	int3   	
  0x2bb7	int3   	
  0x2bb8	int3   	
  0x2bb9	int3   	
  0x2bba	int3   	
  === BLOCK LINK ===
    0x2bbb
=== CODE BLOCK END ===

=== CODE BLOCK ADDRESS 0x2bbb ===
  0x2bbb	int3   	
  0x2bbc	int3   	
  0x2bbd	int3   	
  0x2bbe	int3   	
  0x2bbf	int3   	
  === BLOCK LINK ===
    0x2bc0
=== CODE BLOCK END ===

=== CODE BLOCK ADDRESS 0x2bc0 ===
  0x2bc0	jmp    	dword ptr [0x1182]
  === BLOCK LINK ===
    0x2bc6
=== CODE BLOCK END ===

=== CODE BLOCK ADDRESS 0x2bc6 ===
  0x2bc6	int3   	
  0x2bc7	int3   	
  0x2bc8	int3   	
  0x2bc9	int3   	
  0x2bca	int3   	
  === BLOCK LINK ===
    0x2bcb
=== CODE BLOCK END ===

=== CODE BLOCK ADDRESS 0x2bcb ===
  0x2bcb	int3   	
  0x2bcc	int3   	
  0x2bcd	int3   	
  0x2bce	int3   	
  0x2bcf	int3   	
  === BLOCK LINK ===
    0x2bd0
=== CODE BLOCK END ===

=== CODE BLOCK ADDRESS 0x2bd0 ===
  0x2bd0	jmp    	dword ptr [0x117a]
  === BLOCK LINK ===
    0x2bd6
=== CODE BLOCK END ===

=== CODE BLOCK ADDRESS 0x2bd6 ===
  0x2bd6	int3   	
  0x2bd7	int3   	
  0x2bd8	int3   	
  0x2bd9	int3   	
  0x2bda	int3   	
  === BLOCK LINK ===
    0x2bdb
=== CODE BLOCK END ===

=== CODE BLOCK ADDRESS 0x2bdb ===
  0x2bdb	int3   	
  0x2bdc	int3   	
  0x2bdd	int3   	
  0x2bde	int3   	
  0x2bdf	int3   	
  === BLOCK LINK ===
    0x2be0
=== CODE BLOCK END ===

=== CODE BLOCK ADDRESS 0x2be0 ===
  0x2be0	jmp    	dword ptr [0x1172]
  === BLOCK LINK ===
    0x2be6
=== CODE BLOCK END ===

=== CODE BLOCK ADDRESS 0x2be6 ===
  0x2be6	int3   	
  0x2be7	int3   	
  0x2be8	int3   	
  0x2be9	int3   	
  0x2bea	int3   	
  === BLOCK LINK ===
    0x2beb
=== CODE BLOCK END ===

=== CODE BLOCK ADDRESS 0x2beb ===
  0x2beb	int3   	
  0x2bec	int3   	
  0x2bed	int3   	
  0x2bee	int3   	
  0x2bef	int3   	
  === BLOCK LINK ===
    0x2bf0
=== CODE BLOCK END ===

=== CODE BLOCK ADDRESS 0x2bf0 ===
  0x2bf0	jmp    	dword ptr [0x116a]
  === BLOCK LINK ===
    0x2bf6
=== CODE BLOCK END ===

=== CODE BLOCK ADDRESS 0x2bf6 ===
  0x2bf6	int3   	
  0x2bf7	int3   	
  0x2bf8	int3   	
  0x2bf9	int3   	
  0x2bfa	int3   	
  === BLOCK LINK ===
    0x2bfb
=== CODE BLOCK END ===

=== CODE BLOCK ADDRESS 0x2bfb ===
  0x2bfb	int3   	
  0x2bfc	int3   	
  0x2bfd	int3   	
  0x2bfe	int3   	
  0x2bff	int3   	
  === BLOCK LINK ===
    0x2c00
=== CODE BLOCK END ===

=== CODE BLOCK ADDRESS 0x2c00 ===
  0x2c00	jmp    	dword ptr [0x1162]
  === BLOCK LINK ===
    0x2c06
=== CODE BLOCK END ===

=== CODE BLOCK ADDRESS 0x2c06 ===
  0x2c06	int3   	
  0x2c07	int3   	
  0x2c08	int3   	
  0x2c09	int3   	
  0x2c0a	int3   	
  === BLOCK LINK ===
    0x2c0b
=== CODE BLOCK END ===

=== CODE BLOCK ADDRESS 0x2c0b ===
  0x2c0b	int3   	
  0x2c0c	int3   	
  0x2c0d	int3   	
  0x2c0e	int3   	
  0x2c0f	int3   	
  === BLOCK LINK ===
    0x2c10
=== CODE BLOCK END ===

=== CODE BLOCK ADDRESS 0x2c10 ===
  0x2c10	jmp    	dword ptr [0x115a]
  === BLOCK LINK ===
    0x2c16
=== CODE BLOCK END ===

=== CODE BLOCK ADDRESS 0x2c16 ===
  0x2c16	int3   	
  0x2c17	int3   	
  0x2c18	int3   	
  0x2c19	int3   	
  0x2c1a	int3   	
  === BLOCK LINK ===
    0x2c1b
=== CODE BLOCK END ===

=== CODE BLOCK ADDRESS 0x2c1b ===
  0x2c1b	int3   	
  0x2c1c	int3   	
  0x2c1d	int3   	
  0x2c1e	int3   	
  0x2c1f	int3   	
  === BLOCK LINK ===
    0x2c20
=== CODE BLOCK END ===

=== CODE BLOCK ADDRESS 0x2c20 ===
  0x2c20	jmp    	dword ptr [0x1152]
  === BLOCK LINK ===
    0x2c26
=== CODE BLOCK END ===

=== CODE BLOCK ADDRESS 0x2c26 ===
  0x2c26	int3   	
  0x2c27	int3   	
  0x2c28	int3   	
  0x2c29	int3   	
  0x2c2a	int3   	
  === BLOCK LINK ===
    0x2c2b
=== CODE BLOCK END ===

=== CODE BLOCK ADDRESS 0x2c2b ===
  0x2c2b	int3   	
  0x2c2c	int3   	
  0x2c2d	int3   	
  0x2c2e	int3   	
  0x2c2f	int3   	
  === BLOCK LINK ===
    0x2c30
=== CODE BLOCK END ===

=== CODE BLOCK ADDRESS 0x2c30 ===
  0x2c30	jmp    	dword ptr [0x114a]
  === BLOCK LINK ===
    0x2c36
=== CODE BLOCK END ===

=== CODE BLOCK ADDRESS 0x2c36 ===
  0x2c36	int3   	
  0x2c37	int3   	
  0x2c38	int3   	
  0x2c39	int3   	
  0x2c3a	int3   	
  === BLOCK LINK ===
    0x2c3b
=== CODE BLOCK END ===

=== CODE BLOCK ADDRESS 0x2c3b ===
  0x2c3b	int3   	
  0x2c3c	int3   	
  0x2c3d	int3   	
  0x2c3e	int3   	
  0x2c3f	int3   	
  === BLOCK LINK ===
    0x2c40
=== CODE BLOCK END ===

=== CODE BLOCK ADDRESS 0x2c40 ===
  0x2c40	jmp    	dword ptr [0x1142]
  === BLOCK LINK ===
    0x2c46
=== CODE BLOCK END ===

=== CODE BLOCK ADDRESS 0x2c46 ===
  0x2c46	int3   	
  0x2c47	int3   	
  0x2c48	int3   	
  0x2c49	int3   	
  0x2c4a	int3   	
  === BLOCK LINK ===
    0x2c4b
=== CODE BLOCK END ===

=== CODE BLOCK ADDRESS 0x2c4b ===
  0x2c4b	int3   	
  0x2c4c	int3   	
  0x2c4d	int3   	
  0x2c4e	int3   	
  0x2c4f	int3   	
  === BLOCK LINK ===
    0x2c50
=== CODE BLOCK END ===

=== CODE BLOCK ADDRESS 0x2c50 ===
  0x2c50	jmp    	dword ptr [0x113a]
  === BLOCK LINK ===
    0x2c56
=== CODE BLOCK END ===

=== CODE BLOCK ADDRESS 0x2c56 ===
  0x2c56	int3   	
  0x2c57	int3   	
  0x2c58	int3   	
  0x2c59	int3   	
  0x2c5a	int3   	
  === BLOCK LINK ===
    0x2c5b
=== CODE BLOCK END ===

=== CODE BLOCK ADDRESS 0x2c5b ===
  0x2c5b	int3   	
  0x2c5c	int3   	
  0x2c5d	int3   	
  0x2c5e	int3   	
  0x2c5f	int3   	
  === BLOCK LINK ===
    0x2c60
=== CODE BLOCK END ===

=== CODE BLOCK ADDRESS 0x2c60 ===
  0x2c60	jmp    	dword ptr [0x1132]
  === BLOCK LINK ===
    0x2c66
=== CODE BLOCK END ===

=== CODE BLOCK ADDRESS 0x2c66 ===
  0x2c66	int3   	
  0x2c67	int3   	
  0x2c68	int3   	
  0x2c69	int3   	
  0x2c6a	int3   	
  === BLOCK LINK ===
    0x2c6b
=== CODE BLOCK END ===

=== CODE BLOCK ADDRESS 0x2c6b ===
  0x2c6b	int3   	
  0x2c6c	dec    	eax
  0x2c6d	sub    	esp, 0x28
  0x2c70	dec    	ebp
  0x2c71	mov    	eax, dword ptr [ecx + 0x38]
  === BLOCK LINK ===
    0x2c74
=== CODE BLOCK END ===

=== CODE BLOCK ADDRESS 0x2c74 ===
  0x2c74	dec    	eax
  0x2c75	mov    	ecx, edx
  0x2c77	dec    	ecx
  0x2c78	mov    	edx, ecx
  0x2c7a	call   	0x2c90
  === BLOCK LINK ===
    0x2c7f
=== CODE BLOCK END ===

=== CODE BLOCK ADDRESS 0x2c7f ===
  0x2c7f	mov    	eax, 1
  0x2c84	dec    	eax
  0x2c85	add    	esp, 0x28
  0x2c88	ret    	
  0x2c89	int3   	
  === BLOCK LINK ===
    0x2c8a
=== CODE BLOCK END ===

=== CODE BLOCK ADDRESS 0x151a ===
  0x151a	dec    	eax
  0x151b	test   	edi, edi
  0x151d	je     	0x15c3
  === BLOCK LINK ===
    0x1523
=== CODE BLOCK END ===

=== CODE BLOCK ADDRESS 0x2c8a ===
  0x2c8a	int3   	
  0x2c8b	int3   	
  0x2c8c	int3   	
  0x2c8d	int3   	
  0x2c8e	int3   	
  === BLOCK LINK ===
    0x2c8f
=== CODE BLOCK END ===

=== CODE BLOCK ADDRESS 0x2c8f ===
  0x2c8f	int3   	
  0x2c90	inc    	eax
  0x2c91	push   	ebx
  0x2c92	inc    	ebp
  0x2c93	mov    	ebx, dword ptr [eax]
  === BLOCK LINK ===
    0x2c95
=== CODE BLOCK END ===

=== CODE BLOCK ADDRESS 0x2c95 ===
  0x2c95	dec    	eax
  0x2c96	mov    	ebx, edx
  0x2c98	inc    	ecx
  0x2c99	and    	ebx, 0xfffffff8
  0x2c9c	dec    	esp
  === BLOCK LINK ===
    0x2c9d
=== CODE BLOCK END ===

=== CODE BLOCK ADDRESS 0x2c9d ===
  0x2c9d	mov    	ecx, ecx
  0x2c9f	inc    	ecx
  0x2ca0	test   	byte ptr [eax], 4
  0x2ca3	dec    	esp
  0x2ca4	mov    	edx, ecx
  === BLOCK LINK ===
    0x2ca6
=== CODE BLOCK END ===

=== CODE BLOCK ADDRESS 0x2ca6 ===
  0x2ca6	je     	0x2cbb
  === BLOCK LINK ===
    0x2ca8
=== CODE BLOCK END ===

=== CODE BLOCK ADDRESS 0x2ca8 ===
  0x2ca8	inc    	ecx
  0x2ca9	mov    	eax, dword ptr [eax + 8]
  0x2cac	dec    	ebp
  0x2cad	arpl   	word ptr [eax + 4], dx
  0x2cb0	neg    	eax
  === BLOCK LINK ===
    0x2cb2
=== CODE BLOCK END ===

=== CODE BLOCK ADDRESS 0x2cb2 ===
  0x2cb2	dec    	esp
  0x2cb3	add    	edx, ecx
  0x2cb5	dec    	eax
  0x2cb6	arpl   	ax, cx
  0x2cb8	dec    	esp
  === BLOCK LINK ===
    0x2cb9
=== CODE BLOCK END ===

=== CODE BLOCK ADDRESS 0x2cb9 ===
  0x2cb9	and    	edx, ecx
  0x2cbb	dec    	ecx
  0x2cbc	arpl   	bx, ax
  0x2cbe	dec    	edx
  0x2cbf	mov    	edx, dword ptr [eax + edx]
  === BLOCK LINK ===
    0x2cc2
=== CODE BLOCK END ===

=== CODE BLOCK ADDRESS 0x2cc2 ===
  0x2cc2	dec    	eax
  0x2cc3	mov    	eax, dword ptr [ebx + 0x10]
  0x2cc6	mov    	ecx, dword ptr [eax + 8]
  0x2cc9	dec    	eax
  0x2cca	mov    	eax, dword ptr [ebx + 8]
  === BLOCK LINK ===
    0x2ccd
=== CODE BLOCK END ===

=== CODE BLOCK ADDRESS 0x2ccd ===
  0x2ccd	test   	byte ptr [ecx + eax + 3], 0xf
  0x2cd2	je     	0x2cdf
  === BLOCK LINK ===
    0x2cd4
=== CODE BLOCK END ===

=== CODE BLOCK ADDRESS 0x2cd4 ===
  0x2cd4	movzx  	eax, byte ptr [ecx + eax + 3]
  0x2cd9	and    	eax, 0xfffffff0
  0x2cdc	dec    	esp
  0x2cdd	add    	ecx, eax
  0x2cdf	dec    	esp
  === BLOCK LINK ===
    0x2ce0
=== CODE BLOCK END ===

=== CODE BLOCK ADDRESS 0x2ce0 ===
  0x2ce0	xor    	ecx, edx
  0x2ce2	dec    	ecx
  0x2ce3	mov    	ecx, ecx
  0x2ce5	pop    	ebx
  0x2ce6	jmp    	0x25b0
  === BLOCK LINK ===
    0x2ceb
=== CODE BLOCK END ===

=== CODE BLOCK ADDRESS 0x2ceb ===
  0x2ceb	int3   	
  0x2cec	int3   	
  0x2ced	int3   	
  0x2cee	int3   	
  0x2cef	int3   	
  === BLOCK LINK ===
    0x2cf0
=== CODE BLOCK END ===

=== CODE BLOCK ADDRESS 0x2cf0 ===
  0x2cf0	int3   	
  0x2cf1	jmp    	dword ptr [0x1189]
  === BLOCK LINK ===
    0x2cf7
=== CODE BLOCK END ===

=== CODE BLOCK ADDRESS 0x2cf7 ===
  0x2cf7	int3   	
  0x2cf8	int3   	
  0x2cf9	int3   	
  0x2cfa	int3   	
  0x2cfb	int3   	
  === BLOCK LINK ===
    0x2cfc
=== CODE BLOCK END ===

=== CODE BLOCK ADDRESS 0x2cfc ===
  0x2cfc	int3   	
  0x2cfd	jmp    	dword ptr [0x116d]
  === BLOCK LINK ===
    0x2d03
=== CODE BLOCK END ===

=== CODE BLOCK ADDRESS 0x2d03 ===
  0x2d03	int3   	
  0x2d04	int3   	
  0x2d05	int3   	
  0x2d06	int3   	
  0x2d07	int3   	
  === BLOCK LINK ===
    0x2d08
=== CODE BLOCK END ===

=== CODE BLOCK ADDRESS 0x2d08 ===
  0x2d08	int3   	
  0x2d09	int3   	
  0x2d0a	int3   	
  0x2d0b	int3   	
  0x2d0c	int3   	
  === BLOCK LINK ===
    0x2d0d
=== CODE BLOCK END ===

=== CODE BLOCK ADDRESS 0x2d0d ===
  0x2d0d	int3   	
  0x2d0e	int3   	
  0x2d0f	int3   	
  0x2d10	int3   	
  0x2d11	int3   	
  === BLOCK LINK ===
    0x2d12
=== CODE BLOCK END ===

=== CODE BLOCK ADDRESS 0x2d12 ===
  0x2d12	int3   	
  0x2d13	int3   	
  0x2d14	int3   	
  0x2d15	int3   	
  0x2d16	nop    	word ptr [eax + eax]
  === BLOCK LINK ===
    0x2d20
=== CODE BLOCK END ===

=== CODE BLOCK ADDRESS 0x2d20 ===
  0x2d20	jmp    	eax
  === BLOCK LINK ===
    0x2d22
=== CODE BLOCK END ===

=== CODE BLOCK ADDRESS 0x2d22 ===
  0x2d22	int3   	
  0x2d23	int3   	
  0x2d24	int3   	
  0x2d25	int3   	
  0x2d26	int3   	
  === BLOCK LINK ===
    0x2d27
=== CODE BLOCK END ===

=== CODE BLOCK ADDRESS 0x2d27 ===
  0x2d27	int3   	
  0x2d28	int3   	
  0x2d29	int3   	
  0x2d2a	int3   	
  0x2d2b	int3   	
  === BLOCK LINK ===
    0x2d2c
=== CODE BLOCK END ===

=== CODE BLOCK ADDRESS 0x2d2c ===
  0x2d2c	int3   	
  0x2d2d	int3   	
  0x2d2e	int3   	
  0x2d2f	int3   	
  0x2d30	inc    	eax
  === BLOCK LINK ===
    0x2d31
=== CODE BLOCK END ===

=== CODE BLOCK ADDRESS 0x2d31 ===
  0x2d31	push   	ebp
  0x2d32	dec    	eax
  0x2d33	sub    	esp, 0x20
  0x2d36	dec    	eax
  0x2d37	mov    	ebp, edx
  === BLOCK LINK ===
    0x2d39
=== CODE BLOCK END ===

=== CODE BLOCK ADDRESS 0x2d39 ===
  0x2d39	dec    	eax
  0x2d3a	mov    	eax, dword ptr [ecx]
  0x2d3c	dec    	eax
  0x2d3d	mov    	edx, ecx
  0x2d3f	mov    	ecx, dword ptr [eax]
  === BLOCK LINK ===
    0x2d41
=== CODE BLOCK END ===

=== CODE BLOCK ADDRESS 0x2d41 ===
  0x2d41	call   	0x265e
  === BLOCK LINK ===
    0x2d46
=== CODE BLOCK END ===

=== CODE BLOCK ADDRESS 0x2d46 ===
  0x2d46	nop    	
  0x2d47	dec    	eax
  0x2d48	add    	esp, 0x20
  0x2d4b	pop    	ebp
  0x2d4c	ret    	
  === BLOCK LINK ===
    0x2d4d
=== CODE BLOCK END ===

=== CODE BLOCK ADDRESS 0x2d4d ===
  0x2d4d	int3   	
  0x2d4e	int3   	
  0x2d4f	int3   	
  0x2d50	int3   	
  0x2d51	int3   	
  === BLOCK LINK ===
    0x2d52
=== CODE BLOCK END ===

=== CODE BLOCK ADDRESS 0x2d52 ===
  0x2d52	int3   	
  0x2d53	int3   	
  0x2d54	int3   	
  0x2d55	int3   	
  0x2d56	int3   	
  === BLOCK LINK ===
    0x2d57
=== CODE BLOCK END ===

=== CODE BLOCK ADDRESS 0x2d57 ===
  0x2d57	int3   	
  0x2d58	int3   	
  0x2d59	int3   	
  0x2d5a	int3   	
  0x2d5b	int3   	
  === BLOCK LINK ===
    0x2d5c
=== CODE BLOCK END ===

=== CODE BLOCK ADDRESS 0x2d5c ===
  0x2d5c	int3   	
  0x2d5d	int3   	
  0x2d5e	int3   	
  0x2d5f	int3   	
  0x2d60	inc    	eax
  === BLOCK LINK ===
    0x2d61
=== CODE BLOCK END ===

=== CODE BLOCK ADDRESS 0x2d61 ===
  0x2d61	push   	ebp
  0x2d62	dec    	eax
  0x2d63	sub    	esp, 0x20
  0x2d66	dec    	eax
  0x2d67	mov    	ebp, edx
  === BLOCK LINK ===
    0x2d69
=== CODE BLOCK END ===

=== CODE BLOCK ADDRESS 0x2d69 ===
  0x2d69	dec    	eax
  0x2d6a	mov    	eax, dword ptr [ecx]
  0x2d6c	xor    	ecx, ecx
  0x2d6e	cmp    	dword ptr [eax], 0xc0000005
  0x2d74	sete   	cl
  === BLOCK LINK ===
    0x2d77
=== CODE BLOCK END ===

=== CODE BLOCK ADDRESS 0x2d77 ===
  0x2d77	mov    	eax, ecx
  0x2d79	dec    	eax
  0x2d7a	add    	esp, 0x20
  0x2d7d	pop    	ebp
  0x2d7e	ret    	
  === BLOCK LINK ===
    0x2d7f
=== CODE BLOCK END ===

=== CODE BLOCK ADDRESS 0x2d7f ===
  0x2d7f	int3   	
  0x2d80	add    	byte ptr [eax], al
  0x2d82	add    	byte ptr [eax], al
  0x2d84	add    	byte ptr [eax], al
  0x2d86	add    	byte ptr [eax], al
  === BLOCK LINK ===
    0x2d88
=== CODE BLOCK END ===

=== CODE BLOCK ADDRESS 0x2d88 ===
  0x2d88	add    	byte ptr [eax], al
  0x2d8a	add    	byte ptr [eax], al
  0x2d8c	add    	byte ptr [eax], al
  0x2d8e	add    	byte ptr [eax], al
  0x2d90	add    	byte ptr [eax], al
  === BLOCK LINK ===
    0x2d92
=== CODE BLOCK END ===

=== CODE BLOCK ADDRESS 0x2d92 ===
  0x2d92	add    	byte ptr [eax], al
  0x2d94	add    	byte ptr [eax], al
  0x2d96	add    	byte ptr [eax], al
  0x2d98	add    	byte ptr [eax], al
  0x2d9a	add    	byte ptr [eax], al
  === BLOCK LINK ===
    0x2d9c
=== CODE BLOCK END ===

=== CODE BLOCK ADDRESS 0x2d9c ===
  0x2d9c	add    	byte ptr [eax], al
  0x2d9e	add    	byte ptr [eax], al
  0x2da0	add    	byte ptr [eax], al
  0x2da2	add    	byte ptr [eax], al
  0x2da4	add    	byte ptr [eax], al
  === BLOCK LINK ===
    0x2da6
=== CODE BLOCK END ===

=== CODE BLOCK ADDRESS 0x2da6 ===
  0x2da6	add    	byte ptr [eax], al
  0x2da8	add    	byte ptr [eax], al
  0x2daa	add    	byte ptr [eax], al
  0x2dac	add    	byte ptr [eax], al
  0x2dae	add    	byte ptr [eax], al
  === BLOCK LINK ===
    0x2db0
=== CODE BLOCK END ===

=== CODE BLOCK ADDRESS 0x2db0 ===
  0x2db0	add    	byte ptr [eax], al
  0x2db2	add    	byte ptr [eax], al
  0x2db4	add    	byte ptr [eax], al
  0x2db6	add    	byte ptr [eax], al
  0x2db8	add    	byte ptr [eax], al
  === BLOCK LINK ===
    0x2dba
=== CODE BLOCK END ===

=== CODE BLOCK ADDRESS 0x2dba ===
  0x2dba	add    	byte ptr [eax], al
  0x2dbc	add    	byte ptr [eax], al
  0x2dbe	add    	byte ptr [eax], al
  0x2dc0	add    	byte ptr [eax], al
  0x2dc2	add    	byte ptr [eax], al
  === BLOCK LINK ===
    0x2dc4
=== CODE BLOCK END ===

=== CODE BLOCK ADDRESS 0x2dc4 ===
  0x2dc4	add    	byte ptr [eax], al
  0x2dc6	add    	byte ptr [eax], al
  0x2dc8	add    	byte ptr [eax], al
  0x2dca	add    	byte ptr [eax], al
  0x2dcc	add    	byte ptr [eax], al
  === BLOCK LINK ===
    0x2dce
=== CODE BLOCK END ===

=== CODE BLOCK ADDRESS 0x2dce ===
  0x2dce	add    	byte ptr [eax], al
  0x2dd0	add    	byte ptr [eax], al
  0x2dd2	add    	byte ptr [eax], al
  0x2dd4	add    	byte ptr [eax], al
  0x2dd6	add    	byte ptr [eax], al
  === BLOCK LINK ===
    0x2dd8
=== CODE BLOCK END ===

=== CODE BLOCK ADDRESS 0x2dd8 ===
  0x2dd8	add    	byte ptr [eax], al
  0x2dda	add    	byte ptr [eax], al
  0x2ddc	add    	byte ptr [eax], al
  0x2dde	add    	byte ptr [eax], al
  0x2de0	add    	byte ptr [eax], al
  === BLOCK LINK ===
    0x2de2
=== CODE BLOCK END ===

=== CODE BLOCK ADDRESS 0x2de2 ===
  0x2de2	add    	byte ptr [eax], al
  0x2de4	add    	byte ptr [eax], al
  0x2de6	add    	byte ptr [eax], al
  0x2de8	add    	byte ptr [eax], al
  0x2dea	add    	byte ptr [eax], al
  === BLOCK LINK ===
    0x2dec
=== CODE BLOCK END ===

=== CODE BLOCK ADDRESS 0x2dec ===
  0x2dec	add    	byte ptr [eax], al
  0x2dee	add    	byte ptr [eax], al
  0x2df0	add    	byte ptr [eax], al
  0x2df2	add    	byte ptr [eax], al
  0x2df4	add    	byte ptr [eax], al
  === BLOCK LINK ===
    0x2df6
=== CODE BLOCK END ===

=== CODE BLOCK ADDRESS 0x2df6 ===
  0x2df6	add    	byte ptr [eax], al
  0x2df8	add    	byte ptr [eax], al
  0x2dfa	add    	byte ptr [eax], al
  0x2dfc	add    	byte ptr [eax], al
=== CODE BLOCK END ===

=== DATA BLOCK ADDRESS 0x3000 ===
  0x3000	60 60 00 40 01 00 00 00 00 61 00 40 01 00 00 00 	``0@00000a0@0000
  0x3010	30 13 00 40 01 00 00 00 a0 13 00 40 01 00 00 00 	000@0000000@0000
  0x3020	c0 13 00 40 01 00 00 00 b0 11 00 40 01 00 00 00 	000@0000000@0000
  0x3030	80 12 00 40 01 00 00 00 30 11 00 40 01 00 00 00 	000@0000000@0000
  0x3040	00 14 00 40 01 00 00 00 a0 13 00 40 01 00 00 00 	000@0000000@0000
  0x3050	60 14 00 40 01 00 00 00 a0 14 00 40 01 00 00 00 	`00@0000000@0000
  0x3060	f0 15 00 40 01 00 00 00 00 00 00 00 00 00 00 00 	000@000000000000
  0x3070	48 33 00 40 01 00 00 00 78 39 00 40 01 00 00 00 	H30@0000x90@0000
  0x3080	a0 34 00 40 01 00 00 00 00 00 00 00 00 00 00 00 	040@000000000000
  0x3090	10 10 00 40 01 00 00 00 01 00 02 00 00 00 00 00 	000@000000000000
  0x30a0	00 00 00 00 00 00 00 00 00 00 00 00 00 00 00 00 	0000000000000000
  0x30b0	00 00 00 00 00 00 00 00 00 00 00 00 00 00 00 00 	0000000000000000
  0x30c0	60 32 00 40 01 00 00 00 68 41 00 40 01 00 00 00 	`20@0000hA0@0000
  0x30d0	40 2c 00 40 01 00 00 00 a0 2b 00 40 01 00 00 00 	@,0@00000+0@0000
  0x30e0	e0 2b 00 40 01 00 00 00 f0 2a 00 40 01 00 00 00 	0+0@00000*0@0000
  0x30f0	80 2b 00 40 01 00 00 00 00 00 00 00 00 00 00 00 	0+0@000000000000
  0x3100	00 00 00 00 00 00 00 00 10 2c 00 40 01 00 00 00 	000000000,0@0000
  0x3110	c0 2b 00 40 01 00 00 00 00 00 00 00 00 00 00 00 	0+0@000000000000
  0x3120	00 00 00 00 00 00 00 00 00 00 00 00 00 00 00 00 	0000000000000000
  0x3130	00 00 00 00 00 00 00 00 00 00 00 00 00 00 00 00 	0000000000000000
  0x3140	a2 41 00 40 01 00 00 00 01 00 00 00 00 00 0a 00 	0A0@000000000000
  0x3150	00 00 00 00 00 00 00 00 6e 02 01 08 00 00 00 00 	00000000n0000000
  0x3160	00 00 00 00 00 00 00 00 98 31 00 40 01 00 00 00 	00000000010@0000
  0x3170	00 00 00 00 00 00 00 00 01 00 00 02 00 00 00 00 	0000000000000000
  0x3180	00 00 00 00 00 00 00 00 00 00 00 00 00 00 00 00 	0000000000000000
  0x3190	00 00 00 00 00 00 00 00 40 2b 00 40 01 00 00 00 	00000000@+0@0000
  0x31a0	50 2b 00 40 01 00 00 00 00 2b 00 40 01 00 00 00 	P+0@00000+0@0000
  0x31b0	10 2b 00 40 01 00 00 00 30 2b 00 40 01 00 00 00 	0+0@00000+0@0000
  0x31c0	60 2b 00 40 01 00 00 00 70 2b 00 40 01 00 00 00 	`+0@0000p+0@0000
  0x31d0	20 2b 00 40 01 00 00 00 00 00 00 00 00 00 00 00 	 +0@000000000000
  0x31e0	68 41 00 40 01 00 00 00 60 34 00 40 01 00 00 00 	hA0@0000`40@0000
  0x31f0	05 00 00 00 00 00 00 00 00 00 00 00 00 00 00 00 	0000000000000000
  0x3200	00 2c 00 40 01 00 00 00 d0 2b 00 40 01 00 00 00 	0,0@00000+0@0000
  0x3210	a0 21 00 40 01 00 00 00 60 2c 00 40 01 00 00 00 	0!0@0000`,0@0000
  0x3220	30 2c 00 40 01 00 00 00 90 2b 00 40 01 00 00 00 	0,0@00000+0@0000
  0x3230	50 2c 00 40 01 00 00 00 f0 2b 00 40 01 00 00 00 	P,0@00000+0@0000
  0x3240	b0 2b 00 40 01 00 00 00 20 2c 00 40 01 00 00 00 	0+0@0000 ,0@0000
  0x3250	70 30 00 40 01 00 00 00 00 00 00 00 00 00 00 00 	p00@000000000000
  0x3260	00 31 00 40 01 00 00 00 b2 43 00 40 01 00 00 00 	010@00000C0@0000
  0x3270	4e 44 00 40 01 00 00 00 78 43 00 40 01 00 00 00 	ND0@0000xC0@0000
  0x3280	02 00 00 00 00 00 00 00 60 37 00 40 01 00 00 00 	00000000`70@0000
  0x3290	46 07 02 01 00 00 00 00 20 39 00 40 01 00 00 00 	F0000000 90@0000
  0x32a0	38 44 00 40 01 00 00 00 00 00 00 00 00 00 00 00 	8D0@000000000000
  0x32b0	00 00 00 00 00 00 00 00 00 00 00 00 00 00 00 00 	0000000000000000
  0x32c0	50 03 00 05 04 00 00 00 08 00 00 00 00 00 00 00 	P000000000000000
  0x32d0	00 03 00 00 02 00 00 00 57 64 74 48 00 00 00 00 	00000000WdtH0000
  0x32e0	48 43 00 40 01 00 00 00 00 00 00 00 00 00 00 00 	HC0@000000000000
  0x32f0	57 64 74 52 00 00 00 00 48 43 00 40 01 00 00 00 	WdtR0000HC0@0000
  0x3300	00 00 00 00 00 00 00 00 ff ff ff ff 00 00 00 00 	0000000000000000
  0x3310	21 00 00 00 00 00 00 00 80 33 00 40 01 00 00 00 	!0000000030@0000
  0x3320	46 07 02 01 00 00 00 00 10 35 00 40 01 00 00 00 	F0000000050@0000
  0x3330	48 44 00 40 01 00 00 00 00 00 00 00 00 00 00 00 	HD0@000000000000
  0x3340	00 00 00 00 00 00 00 00 c0 30 00 40 01 00 00 00 	00000000000@0000
  0x3350	00 00 00 00 00 00 00 00 46 07 02 01 00 00 00 00 	00000000F0000000
  0x3360	b0 34 00 40 01 00 00 00 38 44 00 40 01 00 00 00 	040@00008D0@0000
  0x3370	00 00 00 00 00 00 00 00 00 00 00 00 00 00 00 00 	0000000000000000
  0x3380	35 07 03 00 60 00 00 00 00 00 00 00 00 00 00 00 	5000`00000000000
  0x3390	00 00 00 00 00 00 00 00 20 36 00 40 01 00 00 00 	00000000 60@0000
  0x33a0	05 00 00 00 00 00 00 00 90 00 04 00 00 00 00 00 	0000000000000000
  0x33b0	14 00 00 00 00 00 00 00 14 00 00 00 00 00 00 00 	0000000000000000
  0x33c0	14 00 00 00 00 00 00 00 14 00 00 00 00 00 00 00 	0000000000000000
  0x33d0	14 00 00 00 00 00 00 00 05 00 00 00 00 00 00 00 	0000000000000000
  0x33e0	90 00 04 00 00 00 00 00 14 00 00 00 00 00 00 00 	0000000000000000
  0x33f0	05 00 00 00 00 00 00 00 90 00 04 00 00 00 00 00 	0000000000000000
  0x3400	14 00 00 00 00 00 00 00 05 00 00 00 00 00 00 00 	0000000000000000
  0x3410	90 00 04 00 00 00 00 00 14 00 00 00 00 00 00 00 	0000000000000000
  0x3420	93 00 00 00 00 00 00 00 21 00 00 00 00 00 00 00 	00000000!0000000
  0x3430	30 44 00 40 01 00 00 00 21 00 00 00 00 00 00 00 	0D0@0000!0000000
  0x3440	30 44 00 40 01 00 00 00 21 20 00 00 00 00 00 00 	0D0@0000! 000000
  0x3450	00 38 00 40 01 00 00 00 00 00 00 00 00 00 00 00 	080@000000000000
  0x3460	00 31 00 40 01 00 00 00 00 00 00 00 00 00 00 00 	010@000000000000
  0x3470	b2 43 00 40 01 00 00 00 4e 44 00 40 01 00 00 00 	0C0@0000ND0@0000
  0x3480	00 00 00 00 00 00 00 00 90 43 00 40 01 00 00 00 	000000000C0@0000
  0x3490	02 00 00 00 00 00 00 00 60 37 00 40 01 00 00 00 	00000000`70@0000
  0x34a0	78 41 00 40 01 00 00 00 00 00 00 00 00 00 00 00 	xA0@000000000000
  0x34b0	35 07 03 00 28 00 00 00 00 00 00 00 00 00 00 00 	5000(00000000000
  0x34c0	00 00 00 00 00 00 00 00 08 3a 00 40 01 00 00 00 	000000000:0@0000
  0x34d0	05 00 00 00 00 00 00 00 05 00 00 00 00 00 00 00 	0000000000000000
  0x34e0	05 00 00 00 00 00 00 00 90 00 04 00 00 00 00 00 	0000000000000000
  0x34f0	14 00 00 00 00 00 00 00 14 00 00 00 00 00 00 00 	0000000000000000
  0x3500	14 00 00 00 00 00 00 00 93 00 00 00 00 00 00 00 	0000000000000000
  0x3510	35 07 03 00 28 00 00 00 00 00 00 00 00 00 00 00 	5000(00000000000
  0x3520	00 00 00 00 00 00 00 00 28 34 00 40 01 00 00 00 	00000000(40@0000
  0x3530	05 00 00 00 00 00 00 00 05 00 00 00 00 00 00 00 	0000000000000000
  0x3540	14 00 00 00 00 00 00 00 14 00 00 00 00 00 00 00 	0000000000000000
  0x3550	05 00 00 00 00 00 00 00 90 00 04 00 00 00 00 00 	0000000000000000
  0x3560	14 00 00 00 00 00 00 00 93 00 00 00 00 00 00 00 	0000000000000000
  0x3570	46 07 02 01 00 00 00 00 a0 36 00 40 01 00 00 00 	F0000000060@0000
  0x3580	48 44 00 40 01 00 00 00 00 00 00 00 00 00 00 00 	HD0@000000000000
  0x3590	00 00 00 00 00 00 00 00 a2 80 00 00 07 00 08 00 	0000000000000000
  0x35a0	08 00 00 00 00 00 00 00 20 37 00 40 01 00 00 00 	00000000 70@0000
  0x35b0	35 07 03 00 20 00 00 00 00 00 00 00 00 00 00 00 	5000 00000000000
  0x35c0	00 00 00 00 00 00 00 00 00 37 00 40 01 00 00 00 	00000000070@0000
  0x35d0	05 00 00 00 00 00 00 00 05 00 00 00 00 00 00 00 	0000000000000000
  0x35e0	14 00 00 00 00 00 00 00 05 00 00 00 00 00 00 00 	0000000000000000
  0x35f0	90 00 04 00 00 00 00 00 14 00 00 00 00 00 00 00 	0000000000000000
  0x3600	93 00 00 00 00 00 00 00 a0 38 00 40 01 00 00 00 	00000000080@0000
  0x3610	90 39 00 40 01 00 00 00 00 00 00 00 00 00 00 00 	090@000000000000
  0x3620	21 00 00 00 00 00 00 00 60 43 00 40 01 00 00 00 	!0000000`C0@0000
  0x3630	21 00 00 00 00 00 00 00 60 43 00 40 01 00 00 00 	!0000000`C0@0000
  0x3640	21 00 00 00 00 00 00 00 60 43 00 40 01 00 00 00 	!0000000`C0@0000
  0x3650	21 00 00 00 00 00 00 00 60 43 00 40 01 00 00 00 	!0000000`C0@0000
  0x3660	21 00 00 00 00 00 00 00 60 43 00 40 01 00 00 00 	!0000000`C0@0000
  0x3670	21 00 00 00 00 00 00 00 a0 36 00 40 01 00 00 00 	!0000000060@0000
  0x3680	21 20 00 00 00 00 00 00 70 35 00 40 01 00 00 00 	! 000000p50@0000
  0x3690	21 20 00 00 00 00 00 00 58 33 00 40 01 00 00 00 	! 000000X30@0000
  0x36a0	35 07 03 00 28 00 00 00 00 00 00 00 00 00 00 00 	5000(00000000000
  0x36b0	00 00 00 00 00 00 00 00 30 37 00 40 01 00 00 00 	00000000070@0000
  0x36c0	05 00 00 00 00 00 00 00 05 00 00 00 00 00 00 00 	0000000000000000
  0x36d0	14 00 00 00 00 00 00 00 14 00 00 00 00 00 00 00 	0000000000000000
  0x36e0	05 00 00 00 00 00 00 00 90 00 04 00 00 00 00 00 	0000000000000000
  0x36f0	14 00 00 00 00 00 00 00 93 00 00 00 00 00 00 00 	0000000000000000
  0x3700	21 20 00 00 00 00 00 00 08 3b 00 40 01 00 00 00 	! 0000000;0@0000
  0x3710	21 20 00 00 00 00 00 00 28 3b 00 40 01 00 00 00 	! 000000(;0@0000
  0x3720	21 00 00 00 00 00 00 00 c0 32 00 40 01 00 00 00 	!0000000020@0000
  0x3730	21 00 00 00 00 00 00 00 60 43 00 40 01 00 00 00 	!0000000`C0@0000
  0x3740	21 00 00 00 00 00 00 00 60 43 00 40 01 00 00 00 	!0000000`C0@0000
  0x3750	21 20 00 00 00 00 00 00 00 38 00 40 01 00 00 00 	! 000000080@0000
  0x3760	04 5d 88 8a eb 1c c9 11 9f e8 08 00 2b 10 48 60 	0]0000000000+0H`
  0x3770	02 00 00 00 00 00 00 00 00 00 00 00 00 00 00 00 	0000000000000000
  0x3780	b2 43 00 40 01 00 00 00 4e 44 00 40 01 00 00 00 	0C0@0000ND0@0000
  0x3790	a2 41 00 40 01 00 00 00 98 31 00 40 01 00 00 00 	0A0@0000010@0000
  0x37a0	00 00 00 00 00 00 00 00 00 00 00 00 00 00 00 00 	0000000000000000
  0x37b0	33 05 71 71 ba be 37 49 83 19 b5 db ef 9c cc 36 	30qq007I00000006
  0x37c0	01 00 00 00 00 00 00 00 00 00 00 00 00 00 00 00 	0000000000000000
  0x37d0	00 00 00 00 00 00 00 00 f0 35 00 40 01 00 00 00 	00000000050@0000
  0x37e0	00 00 00 00 00 00 00 00 b8 31 00 40 01 00 00 00 	00000000010@0000
  0x37f0	00 00 00 00 00 00 00 00 00 00 00 00 00 00 00 00 	0000000000000000
  0x3800	41 00 00 00 01 00 00 00 50 43 00 40 01 00 00 00 	A0000000PC0@0000
  0x3810	01 00 00 00 00 00 00 00 5c 43 00 40 01 00 00 00 	000000000C0@0000
  0x3820	21 00 00 00 00 00 00 00 30 44 00 40 01 00 00 00 	!00000000D0@0000
  0x3830	21 00 00 00 00 00 00 00 30 44 00 40 01 00 00 00 	!00000000D0@0000
  0x3840	21 00 00 00 00 00 00 00 30 44 00 40 01 00 00 00 	!00000000D0@0000
  0x3850	21 00 00 00 00 00 00 00 30 44 00 40 01 00 00 00 	!00000000D0@0000
  0x3860	21 00 00 00 00 00 00 00 30 44 00 40 01 00 00 00 	!00000000D0@0000
  0x3870	21 00 00 00 00 00 00 00 10 35 00 40 01 00 00 00 	!0000000050@0000
  0x3880	21 20 00 00 00 00 00 00 20 33 00 40 01 00 00 00 	! 000000 30@0000
  0x3890	21 20 00 00 00 00 00 00 90 32 00 40 01 00 00 00 	! 000000020@0000
  0x38a0	43 01 2c 00 38 00 00 00 10 00 00 00 28 00 00 00 	C0,080000000(000
  0x38b0	00 00 00 00 06 00 00 00 98 35 00 40 01 00 00 00 	00000000050@0000
  0x38c0	8b 00 00 00 08 00 00 00 48 3b 00 40 01 00 00 00 	00000000H;0@0000
  0x38d0	0b 00 00 00 10 00 00 00 48 43 00 40 01 00 00 00 	00000000HC0@0000
  0x38e0	c8 00 00 00 18 00 00 00 48 43 00 40 01 00 00 00 	00000000HC0@0000
  0x38f0	c8 00 00 00 20 00 00 00 48 43 00 40 01 00 00 00 	0000 000HC0@0000
  0x3900	50 81 00 00 28 00 00 00 48 43 00 40 01 00 00 00 	P000(000HC0@0000
  0x3910	f0 00 00 00 30 00 00 00 00 00 00 00 00 00 00 00 	0000000000000000
  0x3920	35 07 03 00 20 00 00 00 00 00 00 00 00 00 00 00 	5000 00000000000
  0x3930	00 00 00 00 00 00 00 00 e8 3a 00 40 01 00 00 00 	000000000:0@0000
  0x3940	05 00 00 00 00 00 00 00 05 00 00 00 00 00 00 00 	0000000000000000
  0x3950	05 00 00 00 00 00 00 00 90 00 04 00 00 00 00 00 	0000000000000000
  0x3960	14 00 00 00 00 00 00 00 14 00 00 00 00 00 00 00 	0000000000000000
  0x3970	93 00 00 00 00 00 00 00 e0 31 00 40 01 00 00 00 	00000000010@0000
  0x3980	00 00 00 00 00 00 00 00 00 00 00 00 00 00 00 00 	0000000000000000
  0x3990	43 01 2c 00 38 00 00 00 10 00 00 00 28 00 00 00 	C0,080000000(000
  0x39a0	00 00 00 00 06 00 00 00 98 35 00 40 01 00 00 00 	00000000050@0000
  0x39b0	8b 00 00 00 08 00 00 00 10 33 00 40 01 00 00 00 	00000000030@0000
  0x39c0	0b 00 00 00 10 00 00 00 48 43 00 40 01 00 00 00 	00000000HC0@0000
  0x39d0	c8 00 00 00 18 00 00 00 48 43 00 40 01 00 00 00 	00000000HC0@0000
  0x39e0	c8 00 00 00 20 00 00 00 48 43 00 40 01 00 00 00 	0000 000HC0@0000
  0x39f0	50 81 00 00 28 00 00 00 48 43 00 40 01 00 00 00 	P000(000HC0@0000
  0x3a00	f0 00 00 00 30 00 00 00 21 00 00 00 00 00 00 00 	00000000!0000000
  0x3a10	60 43 00 40 01 00 00 00 21 00 00 00 00 00 00 00 	`C0@0000!0000000
  0x3a20	60 43 00 40 01 00 00 00 21 00 00 00 00 00 00 00 	`C0@0000!0000000
  0x3a30	b0 35 00 40 01 00 00 00 00 00 00 00 00 00 00 00 	050@000000000000
  0x3a40	35 07 03 00 60 00 00 00 00 00 00 00 00 00 00 00 	5000`00000000000
  0x3a50	00 00 00 00 00 00 00 00 20 38 00 40 01 00 00 00 	00000000 80@0000
  0x3a60	05 00 00 00 00 00 00 00 90 00 04 00 00 00 00 00 	0000000000000000
  0x3a70	14 00 00 00 00 00 00 00 14 00 00 00 00 00 00 00 	0000000000000000
  0x3a80	14 00 00 00 00 00 00 00 14 00 00 00 00 00 00 00 	0000000000000000
  0x3a90	14 00 00 00 00 00 00 00 05 00 00 00 00 00 00 00 	0000000000000000
  0x3aa0	90 00 04 00 00 00 00 00 14 00 00 00 00 00 00 00 	0000000000000000
  0x3ab0	05 00 00 00 00 00 00 00 90 00 04 00 00 00 00 00 	0000000000000000
  0x3ac0	14 00 00 00 00 00 00 00 05 00 00 00 00 00 00 00 	0000000000000000
  0x3ad0	90 00 04 00 00 00 00 00 14 00 00 00 00 00 00 00 	0000000000000000
  0x3ae0	93 00 00 00 00 00 00 00 21 00 00 00 00 00 00 00 	00000000!0000000
  0x3af0	30 44 00 40 01 00 00 00 21 00 00 00 00 00 00 00 	0D0@0000!0000000
  0x3b00	30 44 00 40 01 00 00 00 41 00 00 00 01 00 00 00 	0D0@0000A0000000
  0x3b10	88 41 00 40 01 00 00 00 01 00 00 00 00 00 00 00 	0A0@000000000000
  0x3b20	5c 43 00 40 01 00 00 00 41 00 00 00 01 00 00 00 	0C0@0000A0000000
  0x3b30	68 43 00 40 01 00 00 00 01 00 00 00 00 00 00 00 	hC0@000000000000
  0x3b40	5c 43 00 40 01 00 00 00 21 00 00 00 00 00 00 00 	0C0@0000!0000000
  0x3b50	40 3a 00 40 01 00 00 00 00 00 00 00 00 00 00 00 	@:0@000000000000
  0x3b60	18 01 00 00 00 00 00 00 00 00 00 00 00 00 00 00 	0000000000000000
  0x3b70	00 00 00 00 00 00 00 00 00 00 00 00 00 00 00 00 	0000000000000000
  0x3b80	00 00 00 00 00 00 00 00 00 00 00 00 00 00 00 00 	0000000000000000
  0x3b90	00 00 00 00 00 00 00 00 00 00 00 00 00 00 00 00 	0000000000000000
  0x3ba0	00 00 00 00 00 00 00 00 00 00 00 00 00 00 00 00 	0000000000000000
  0x3bb0	00 00 00 00 00 00 00 00 08 60 00 40 01 00 00 00 	000000000`0@0000
  0x3bc0	00 00 00 00 00 00 00 00 00 00 00 00 00 00 00 00 	0000000000000000
  0x3bd0	10 3f 00 40 01 00 00 00 18 3f 00 40 01 00 00 00 	0?0@00000?0@0000
  0x3be0	64 3f 00 40 01 00 00 00 2c 00 00 00 00 00 00 00 	d?0@0000,0000000
  0x3bf0	00 75 41 00 00 00 00 00 00 00 00 00 00 00 00 00 	0uA0000000000000
  0x3c00	00 00 00 00 00 00 00 00 00 00 00 00 00 00 00 00 	0000000000000000
  0x3c10	00 00 00 00 00 00 00 00 00 00 00 00 00 00 00 00 	0000000000000000
  0x3c20	00 00 00 00 00 00 00 00 00 00 00 00 00 00 00 00 	0000000000000000
  0x3c30	00 00 00 00 00 00 00 00 00 00 00 00 00 00 00 00 	0000000000000000
  0x3c40	00 00 00 00 00 00 00 00 00 00 00 00 00 00 00 00 	0000000000000000
  0x3c50	00 00 00 00 00 00 00 00 00 00 00 00 00 00 00 00 	0000000000000000
  0x3c60	00 00 00 00 00 00 00 00 58 3f 00 40 01 00 00 00 	00000000X?0@0000
  0x3c70	03 00 00 00 00 00 00 00 d8 4b 00 00 00 00 00 00 	000000000K000000
  0x3c80	e8 4b 00 00 00 00 00 00 f8 4b 00 00 00 00 00 00 	0K0000000K000000
  0x3c90	0a 4c 00 00 00 00 00 00 1a 4c 00 00 00 00 00 00 	0L0000000L000000
  0x3ca0	28 4c 00 00 00 00 00 00 ba 51 00 00 00 00 00 00 	(L0000000Q000000
  0x3cb0	9e 51 00 00 00 00 00 00 8a 51 00 00 00 00 00 00 	0Q0000000Q000000
  0x3cc0	70 51 00 00 00 00 00 00 5c 51 00 00 00 00 00 00 	pQ0000000Q000000
  0x3cd0	4c 51 00 00 00 00 00 00 32 51 00 00 00 00 00 00 	LQ0000002Q000000
  0x3ce0	1c 51 00 00 00 00 00 00 06 51 00 00 00 00 00 00 	0Q0000000Q000000
  0x3cf0	ec 50 00 00 00 00 00 00 d8 50 00 00 00 00 00 00 	0P0000000P000000
  0x3d00	ba 50 00 00 00 00 00 00 a8 50 00 00 00 00 00 00 	0P0000000P000000
  0x3d10	ce 51 00 00 00 00 00 00 a0 50 00 00 00 00 00 00 	0Q0000000P000000
  0x3d20	00 00 00 00 00 00 00 00 dc 4e 00 00 00 00 00 00 	000000000N000000
  0x3d30	f4 4e 00 00 00 00 00 00 28 4f 00 00 00 00 00 00 	0N000000(O000000
  0x3d40	40 4f 00 00 00 00 00 00 6c 4f 00 00 00 00 00 00 	@O000000lO000000
  0x3d50	7a 4f 00 00 00 00 00 00 92 4f 00 00 00 00 00 00 	zO0000000O000000
  0x3d60	ac 4f 00 00 00 00 00 00 c8 4f 00 00 00 00 00 00 	0O0000000O000000
  0x3d70	e8 4f 00 00 00 00 00 00 fa 4f 00 00 00 00 00 00 	0O0000000O000000
  0x3d80	1e 50 00 00 00 00 00 00 3a 50 00 00 00 00 00 00 	0P000000:P000000
  0x3d90	5a 50 00 00 00 00 00 00 7a 50 00 00 00 00 00 00 	ZP000000zP000000
  0x3da0	10 4f 00 00 00 00 00 00 00 00 00 00 00 00 00 00 	0O00000000000000
  0x3db0	62 4c 00 00 00 00 00 00 76 4c 00 00 00 00 00 00 	bL000000vL000000
  0x3dc0	42 4c 00 00 00 00 00 00 50 4c 00 00 00 00 00 00 	BL000000PL000000
  0x3dd0	00 00 00 00 00 00 00 00 76 4d 00 00 00 00 00 00 	00000000vM000000
  0x3de0	6c 4d 00 00 00 00 00 00 62 4d 00 00 00 00 00 00 	lM000000bM000000
  0x3df0	4a 4d 00 00 00 00 00 00 3e 4d 00 00 00 00 00 00 	JM000000>M000000
  0x3e00	2a 4d 00 00 00 00 00 00 1c 4d 00 00 00 00 00 00 	*M0000000M000000
  0x3e10	12 4d 00 00 00 00 00 00 8e 4d 00 00 00 00 00 00 	0M0000000M000000
  0x3e20	02 4d 00 00 00 00 00 00 f0 4c 00 00 00 00 00 00 	0M0000000L000000
  0x3e30	e0 4c 00 00 00 00 00 00 d2 4c 00 00 00 00 00 00 	0L0000000L000000
  0x3e40	c4 4c 00 00 00 00 00 00 bc 4c 00 00 00 00 00 00 	0L0000000L000000
  0x3e50	b0 4c 00 00 00 00 00 00 a6 4c 00 00 00 00 00 00 	0L0000000L000000
  0x3e60	9c 4c 00 00 00 00 00 00 90 4c 00 00 00 00 00 00 	0L0000000L000000
  0x3e70	ec 51 00 00 00 00 00 00 0a 4d 00 00 00 00 00 00 	0Q0000000M000000
  0x3e80	e2 51 00 00 00 00 00 00 00 00 00 00 00 00 00 00 	0Q00000000000000
  0x3e90	ba 4e 00 00 00 00 00 00 a2 4e 00 00 00 00 00 00 	0N0000000N000000
  0x3ea0	8c 4e 00 00 00 00 00 00 78 4e 00 00 00 00 00 00 	0N000000xN000000
  0x3eb0	68 4e 00 00 00 00 00 00 56 4e 00 00 00 00 00 00 	hN000000VN000000
  0x3ec0	44 4e 00 00 00 00 00 00 34 4e 00 00 00 00 00 00 	DN0000004N000000
  0x3ed0	1e 4e 00 00 00 00 00 00 f2 4d 00 00 00 00 00 00 	0N0000000M000000
  0x3ee0	dc 4d 00 00 00 00 00 00 c4 4d 00 00 00 00 00 00 	0M0000000M000000
  0x3ef0	b2 4d 00 00 00 00 00 00 a2 4d 00 00 00 00 00 00 	0M0000000M000000
  0x3f00	06 4e 00 00 00 00 00 00 00 00 00 00 00 00 00 00 	0N00000000000000
  0x3f10	10 29 00 40 01 00 00 00 20 2d 00 40 01 00 00 00 	0)0@0000 -0@0000
  0x3f20	00 00 00 00 00 00 00 00 f0 22 00 40 01 00 00 00 	000000000"0@0000
  0x3f30	00 00 00 00 00 00 00 00 00 00 00 00 00 00 00 00 	0000000000000000
  0x3f40	10 22 00 40 01 00 00 00 40 26 00 40 01 00 00 00 	0"0@0000@&0@0000
  0x3f50	00 00 00 00 00 00 00 00 57 25 00 00 b2 26 00 00 	00000000W%000&00
  0x3f60	c0 27 00 00 10 10 00 00 30 11 00 00 b0 11 00 00 	0'00000000000000
  0x3f70	80 12 00 00 30 13 00 00 a0 13 00 00 c0 13 00 00 	0000000000000000
  0x3f80	00 14 00 00 60 14 00 00 a0 14 00 00 f0 15 00 00 	0000`00000000000
  0x3f90	a0 21 00 00 10 22 00 00 f0 22 00 00 40 23 00 00 	0!000"000"00@#00
  0x3fa0	00 26 00 00 40 26 00 00 20 27 00 00 10 29 00 00 	0&00@&00 '000)00
  0x3fb0	60 29 00 00 f0 2a 00 00 00 2b 00 00 10 2b 00 00 	`)000*000+000+00
  0x3fc0	20 2b 00 00 30 2b 00 00 40 2b 00 00 50 2b 00 00 	 +000+00@+00P+00
  0x3fd0	60 2b 00 00 70 2b 00 00 80 2b 00 00 90 2b 00 00 	`+00p+000+000+00
  0x3fe0	a0 2b 00 00 b0 2b 00 00 c0 2b 00 00 d0 2b 00 00 	0+000+000+000+00
  0x3ff0	e0 2b 00 00 f0 2b 00 00 00 2c 00 00 10 2c 00 00 	0+000+000,000,00
  0x4000	20 2c 00 00 30 2c 00 00 40 2c 00 00 50 2c 00 00 	 ,000,00@,00P,00
  0x4010	60 2c 00 00 00 00 00 00 00 00 00 00 00 00 00 00 	`,00000000000000
  0x4020	00 00 00 00 00 00 00 00 c0 00 00 00 00 00 00 46 	000000000000000F
  0x4030	01 00 00 00 00 00 00 00 c0 00 00 00 00 00 00 46 	000000000000000F
  0x4040	6d 61 70 69 73 74 75 62 2e 64 6c 6c 00 00 00 00 	mapistub.dll0000
  0x4050	4c 6f 61 64 4c 69 62 72 61 72 79 3a 20 47 65 74 	LoadLibrary: Get
  0x4060	4c 61 73 74 45 72 72 6f 72 20 3d 20 25 64 00 00 	LastError = %d00
  0x4070	46 69 78 4d 41 50 49 00 47 65 74 50 72 6f 63 41 	FixMAPI0GetProcA
  0x4080	64 64 72 65 73 73 3a 20 47 65 74 4c 61 73 74 45 	ddress: GetLastE
  0x4090	72 72 6f 72 20 3d 20 25 64 00 00 00 00 00 00 00 	rror = %d0000000
  0x40a0	4d 41 50 49 20 52 65 70 61 69 72 20 54 6f 6f 6c 	MAPI Repair Tool
  0x40b0	00 00 00 00 00 00 00 00 4d 41 50 49 33 32 2e 44 	00000000MAPI32.D
  0x40c0	4c 4c 00 00 00 00 00 00 4d 41 50 49 53 65 6e 64 	LL000000MAPISend
  0x40d0	4d 61 69 6c 00 00 00 00 4d 00 41 00 50 00 49 00 	Mail0000M0A0P0I0
  0x40e0	33 00 32 00 2e 00 44 00 4c 00 4c 00 00 00 00 00 	3020.0D0L0L00000
  0x40f0	4d 41 50 49 53 65 6e 64 4d 61 69 6c 57 00 00 00 	MAPISendMailW000
  0x4100	2d 2f 00 00 00 00 00 00 55 6e 72 65 67 53 65 72 	-/000000UnregSer
  0x4110	76 65 72 00 00 00 00 00 52 65 67 53 65 72 76 65 	ver00000RegServe
  0x4120	72 00 00 00 00 00 00 00 45 6d 62 65 64 64 69 6e 	r0000000Embeddin
  0x4130	67 00 00 00 00 00 00 00 5a 53 a7 c3 55 47 76 4e 	g0000000ZS00UGvN
  0x4140	9d a5 6a 67 fc ee cc ca cd 02 7a dc 47 2e 6c 40 	00jg000000z0G.l@
  0x4150	ba 5a b0 8e c0 0c 42 38 0c 38 cb 9e 33 23 68 4c 	0Z0000B808003#hL
  0x4160	96 91 a5 69 fe 44 68 20 23 34 1b f7 7b 0c 63 4f 	000i0Dh #400{0cO
  0x4170	84 96 c0 4f 0f 14 6f 43 49 4d 41 50 49 53 65 6e 	000O00oCIMAPISen
  0x4180	64 4d 61 69 6c 00 00 00 01 00 00 00 03 06 00 00 	dMail00000000000
  0x4190	04 00 00 00 00 00 00 00 00 00 00 00 00 00 00 00 	0000000000000000
  0x41a0	00 00 00 00 12 00 02 00 2a 48 04 00 02 00 57 64 	00000000*H0000Wd
  0x41b0	74 48 08 80 57 64 74 52 08 80 ff ff b4 83 00 00 	tH00WdtR00000000
  0x41c0	08 00 00 00 e0 ff 12 00 6e 00 1b 00 01 00 19 00 	00000000n0000000
  0x41d0	18 00 01 00 01 5b 1a 03 28 00 00 00 0a 00 08 08 	00000[00(0000000
  0x41e0	36 36 08 40 36 5b 12 08 22 5c 12 08 22 5c 12 20 	660@6[00"000"00 
  0x41f0	da ff 21 03 00 00 19 00 40 00 01 00 ff ff ff ff 	00!00000@0000000
  0x4200	00 00 4c 00 d2 ff 5c 5b 1a 03 20 00 00 00 0a 00 	00L0000[00 00000
  0x4210	08 08 08 40 36 36 5c 5b 12 08 22 5c 12 08 22 5c 	000@660[00"000"0
  0x4220	21 03 00 00 19 00 50 00 01 00 ff ff ff ff 00 00 	!00000P000000000
  0x4230	4c 00 d6 ff 5c 5b 1a 03 60 00 00 00 14 00 08 40 	L0000[00`000000@
  0x4240	36 36 36 36 36 08 40 36 08 40 36 08 40 36 5c 5b 	666660@60@60@60[
  0x4250	12 08 22 5c 12 08 22 5c 12 08 22 5c 12 08 22 5c 	00"000"000"000"0
  0x4260	12 08 22 5c 12 00 70 ff 12 20 88 ff 12 20 b2 ff 	00"000p00 000 00
  0x4270	11 0c 08 5c 12 00 96 00 1a 03 28 00 00 00 0a 00 	0000000000(00000
  0x4280	08 08 36 36 08 40 36 5b 12 08 25 5c 12 08 25 5c 	00660@6[00%000%0
  0x4290	12 20 38 ff 21 03 00 00 19 00 40 00 01 00 ff ff 	0 80!00000@00000
  0x42a0	ff ff 00 00 4c 00 d2 ff 5c 5b 1b 00 01 00 19 00 	0000L0000[000000
  0x42b0	04 00 01 00 01 5b 1b 00 01 00 19 00 10 00 01 00 	00000[0000000000
  0x42c0	01 5b 1a 03 20 00 00 00 0a 00 08 08 36 08 40 36 	0[00 000000060@6
  0x42d0	5c 5b 12 20 d6 ff 12 20 de ff 1a 03 28 00 00 00 	0[0 000 0000(000
  0x42e0	0a 00 08 08 08 40 36 36 36 5b 12 08 25 5c 12 08 	00000@666[00%000
  0x42f0	25 5c 12 00 ce ff 21 03 00 00 19 00 50 00 01 00 	%00000!00000P000
  0x4300	ff ff ff ff 00 00 4c 00 d2 ff 5c 5b 1a 03 60 00 	000000L0000[00`0
  0x4310	00 00 14 00 08 40 36 36 36 36 36 08 40 36 08 40 	00000@666660@60@
  0x4320	36 08 40 36 5c 5b 12 08 25 5c 12 08 25 5c 12 08 	60@60[00%000%000
  0x4330	25 5c 12 08 25 5c 12 08 25 5c 12 00 3c ff 12 20 	%000%000%000<00 
  0x4340	54 ff 12 20 b2 ff 00 00 05 00 00 00 00 00 00 00 	T00 000000000000
  0x4350	01 00 00 00 03 06 00 00 18 00 00 00 02 00 00 00 	0000000000000000
  0x4360	64 00 02 00 00 00 00 00 01 00 00 00 03 06 00 00 	d000000000000000
  0x4370	10 00 00 00 00 00 00 00 04 5d 88 8a eb 1c c9 11 	000000000]000000
  0x4380	9f e8 08 00 2b 10 48 60 02 00 00 00 00 00 00 00 	0000+0H`00000000
  0x4390	33 05 71 71 ba be 37 49 83 19 b5 db ef 9c cc 36 	30qq007I00000006
  0x43a0	01 00 00 00 00 00 00 00 00 00 00 00 00 00 00 00 	0000000000000000
  0x43b0	00 00 33 6c 00 00 00 00 03 00 38 00 10 00 24 00 	003l0000008000$0
  0x43c0	46 06 0a 05 00 00 01 00 00 00 00 00 8b 00 08 00 	F000000000000000
  0x43d0	1a 00 0b 00 10 00 24 00 48 00 18 00 08 00 48 00 	000000$0H00000H0
  0x43e0	20 00 08 00 50 21 28 00 08 00 70 00 30 00 08 00 	 000P!(000p00000
  0x43f0	33 6c 00 00 00 00 04 00 38 00 10 00 24 00 46 06 	3l0000008000$0F0
  0x4400	0a 05 00 00 01 00 00 00 00 00 8b 00 08 00 1a 00 	0000000000000000
  0x4410	0b 00 10 00 d2 00 48 00 18 00 08 00 48 00 20 00 	000000H00000H0 0
  0x4420	08 00 50 21 28 00 08 00 70 00 30 00 08 00 00 00 	00P!(000p0000000
  0x4430	63 00 01 00 00 00 00 00 01 00 00 00 03 06 00 00 	c000000000000000
  0x4440	50 00 00 00 00 00 00 00 01 00 00 00 03 06 00 00 	P000000000000000
  0x4450	40 00 00 00 00 00 3e 00 00 00 00 00 00 00 00 00 	@00000>000000000
  0x4460	00 00 00 00 e3 85 3e d5 00 00 00 00 02 00 00 00 	000000>000000000
  0x4470	24 00 00 00 b4 44 00 00 b4 36 00 00 00 00 00 00 	$0000D0006000000
  0x4480	e3 85 3e d5 00 00 00 00 0d 00 00 00 14 02 00 00 	00>0000000000000
  0x4490	d8 44 00 00 d8 36 00 00 00 00 00 00 e3 85 3e d5 	0D000600000000>0
  0x44a0	00 00 00 00 10 00 00 00 24 00 00 00 ec 46 00 00 	00000000$0000F00
  0x44b0	ec 38 00 00 52 53 44 53 d5 a8 6d 30 20 d7 63 22 	0800RSDS00m0 0c"
  0x44c0	c7 d5 24 e9 c6 dc 89 e6 01 00 00 00 66 69 78 6d 	00$000000000fixm
  0x44d0	61 70 69 2e 70 64 62 00 47 43 54 4c 00 10 00 00 	api.pdb0GCTL0000
  0x44e0	40 00 00 00 2e 6f 72 70 63 00 00 00 40 10 00 00 	@000.orpc000@000
  0x44f0	d0 1c 00 00 2e 74 65 78 74 24 6d 6e 00 00 00 00 	0000.text$mn0000
  0x4500	10 2d 00 00 20 00 00 00 2e 74 65 78 74 24 6d 6e 	0-00 000.text$mn
  0x4510	24 30 30 00 30 2d 00 00 50 00 00 00 2e 74 65 78 	$0000-00P000.tex
  0x4520	74 24 78 00 00 30 00 00 78 0c 00 00 2e 72 64 61 	t$x00000x000.rda
  0x4530	74 61 24 62 72 63 00 00 78 3c 00 00 98 02 00 00 	ta$brc00x<000000
  0x4540	2e 69 64 61 74 61 24 35 00 00 00 00 10 3f 00 00 	.idata$500000?00
  0x4550	10 00 00 00 2e 30 30 63 66 67 00 00 20 3f 00 00 	0000.00cfg00 ?00
  0x4560	08 00 00 00 2e 43 52 54 24 58 43 41 00 00 00 00 	0000.CRT$XCA0000
  0x4570	28 3f 00 00 08 00 00 00 2e 43 52 54 24 58 43 41 	(?000000.CRT$XCA
  0x4580	41 00 00 00 30 3f 00 00 08 00 00 00 2e 43 52 54 	A0000?000000.CRT
  0x4590	24 58 43 5a 00 00 00 00 38 3f 00 00 08 00 00 00 	$XCZ00008?000000
  0x45a0	2e 43 52 54 24 58 49 41 00 00 00 00 40 3f 00 00 	.CRT$XIA0000@?00
  0x45b0	08 00 00 00 2e 43 52 54 24 58 49 41 41 00 00 00 	0000.CRT$XIAA000
  0x45c0	48 3f 00 00 08 00 00 00 2e 43 52 54 24 58 49 59 	H?000000.CRT$XIY
  0x45d0	00 00 00 00 50 3f 00 00 08 00 00 00 2e 43 52 54 	0000P?000000.CRT
  0x45e0	24 58 49 5a 00 00 00 00 58 3f 00 00 0c 00 00 00 	$XIZ0000X?000000
  0x45f0	2e 67 65 68 63 6f 6e 74 00 00 00 00 64 3f 00 00 	.gehcont0000d?00
  0x4600	bc 00 00 00 2e 67 66 69 64 73 00 00 20 40 00 00 	0000.gfids00 @00
  0x4610	94 04 00 00 2e 72 64 61 74 61 00 00 b4 44 00 00 	0000.rdata000D00
  0x4620	5c 02 00 00 2e 72 64 61 74 61 24 7a 7a 7a 64 62 	0000.rdata$zzzdb
  0x4630	67 00 00 00 10 47 00 00 b4 01 00 00 2e 78 64 61 	g0000G000000.xda
  0x4640	74 61 00 00 c4 48 00 00 64 00 00 00 2e 69 64 61 	ta000H00d000.ida
  0x4650	74 61 24 32 00 00 00 00 28 49 00 00 18 00 00 00 	ta$20000(I000000
  0x4660	2e 69 64 61 74 61 24 33 00 00 00 00 40 49 00 00 	.idata$30000@I00
  0x4670	98 02 00 00 2e 69 64 61 74 61 24 34 00 00 00 00 	0000.idata$40000
  0x4680	d8 4b 00 00 1e 06 00 00 2e 69 64 61 74 61 24 36 	0K000000.idata$6
  0x4690	00 00 00 00 00 60 00 00 20 00 00 00 2e 64 61 74 	00000`00 000.dat
  0x46a0	61 00 00 00 20 60 00 00 80 06 00 00 2e 62 73 73 	a000 `000000.bss
  0x46b0	00 00 00 00 00 70 00 00 d4 01 00 00 2e 70 64 61 	00000p000000.pda
  0x46c0	74 61 00 00 00 80 00 00 b0 01 00 00 2e 72 73 72 	ta0000000000.rsr
  0x46d0	63 24 30 31 00 00 00 00 b0 81 00 00 50 07 00 00 	c$0100000000P000
  0x46e0	2e 72 73 72 63 24 30 32 00 00 00 00 20 00 00 00 	.rsrc$020000 000
  0x46f0	d5 a8 6d 30 20 d7 63 22 c7 d5 24 e9 c6 dc 89 e6 	00m0 0c"00$00000
  0x4700	cf 55 43 98 30 59 50 8e 40 5d b7 25 e3 85 3e d5 	0UC00YP0@]0%00>0
  0x4710	19 19 02 00 07 01 29 00 6c 2c 00 00 30 01 00 00 	000000)0l,000000
  0x4720	01 0a 04 00 0a 34 06 00 0a 32 06 70 01 04 01 00 	00000400020p0000
  0x4730	04 42 00 00 01 19 0a 00 19 74 0b 00 19 64 0a 00 	0B0000000t000d00
  0x4740	19 54 09 00 19 34 08 00 19 52 15 e0 01 06 02 00 	0T0004000R000000
  0x4750	06 32 02 30 01 14 08 00 14 64 08 00 14 54 07 00 	020000000d000T00
  0x4760	14 34 06 00 14 32 10 70 19 20 05 00 12 34 17 00 	0400020p0 000400
  0x4770	12 01 14 00 06 50 00 00 6c 2c 00 00 90 00 00 00 	00000P00l,000000
  0x4780	01 1d 08 00 1d 64 08 00 1d 54 07 00 1d 34 06 00 	00000d000T000400
  0x4790	1d 32 19 70 01 18 0a 00 18 64 0a 00 18 54 09 00 	020p00000d000T00
  0x47a0	18 34 08 00 18 32 14 f0 12 e0 10 70 01 15 08 00 	04000200000p0000
  0x47b0	15 74 09 00 15 64 08 00 15 34 07 00 15 32 11 e0 	0t000d0004000200
  0x47c0	01 18 0a 00 18 64 0b 00 18 54 0a 00 18 34 09 00 	00000d000T000400
  0x47d0	18 32 14 f0 12 e0 10 70 01 18 09 00 18 62 11 f0 	0200000p00000b00
  0x47e0	0f e0 0d d0 0b c0 09 70 08 60 07 30 06 50 00 00 	0000000p0`000P00
  0x47f0	01 15 08 00 15 74 08 00 15 64 07 00 15 34 06 00 	00000t000d000400
  0x4800	15 32 11 e0 19 1e 06 00 0f 64 0f 00 0f 34 0e 00 	020000000d000400
  0x4810	0f 92 0b 70 6c 2c 00 00 40 00 00 00 01 04 01 00 	000pl,00@0000000
  0x4820	04 62 00 00 09 13 07 00 13 74 19 00 13 34 18 00 	0b0000000t000400
  0x4830	13 01 16 00 0c e0 00 00 fa 28 00 00 01 00 00 00 	000000000(000000
  0x4840	7c 23 00 00 57 25 00 00 30 2d 00 00 57 25 00 00 	|#00W%000-00W%00
  0x4850	01 06 02 00 06 32 02 50 01 00 00 00 09 04 01 00 	0000020P00000000
  0x4860	04 22 00 00 fa 28 00 00 01 00 00 00 7c 26 00 00 	0"000(000000|&00
  0x4870	b2 26 00 00 01 00 00 00 b2 26 00 00 09 0a 04 00 	0&0000000&000000
  0x4880	0a 34 06 00 0a 32 06 70 fa 28 00 00 01 00 00 00 	0400020p0(000000
  0x4890	8d 27 00 00 c0 27 00 00 60 2d 00 00 c0 27 00 00 	0'000'00`-000'00
  0x48a0	01 0d 04 00 0d 34 09 00 0d 32 06 50 01 0c 02 00 	00000400020P0000
  0x48b0	0c 01 11 00 00 00 00 00 01 00 00 00 01 02 01 00 	0000000000000000
  0x48c0	02 30 00 00 40 49 00 00 00 00 00 00 00 00 00 00 	0000@I0000000000
  0x48d0	34 4c 00 00 78 3c 00 00 78 4a 00 00 00 00 00 00 	4L00x<00xJ000000
  0x48e0	00 00 00 00 84 4c 00 00 b0 3d 00 00 a0 4a 00 00 	00000L000=000J00
  0x48f0	00 00 00 00 00 00 00 00 82 4d 00 00 d8 3d 00 00 	000000000M000=00
  0x4900	58 4b 00 00 00 00 00 00 00 00 00 00 d2 4e 00 00 	XK00000000000N00
  0x4910	90 3e 00 00 f0 49 00 00 00 00 00 00 00 00 00 00 	0>000I0000000000
  0x4920	94 50 00 00 28 3d 00 00 00 00 00 00 00 00 00 00 	0P00(=0000000000
  0x4930	00 00 00 00 00 00 00 00 00 00 00 00 00 00 00 00 	0000000000000000
  0x4940	d8 4b 00 00 00 00 00 00 e8 4b 00 00 00 00 00 00 	0K0000000K000000
  0x4950	f8 4b 00 00 00 00 00 00 0a 4c 00 00 00 00 00 00 	0K0000000L000000
  0x4960	1a 4c 00 00 00 00 00 00 28 4c 00 00 00 00 00 00 	0L000000(L000000
  0x4970	ba 51 00 00 00 00 00 00 9e 51 00 00 00 00 00 00 	0Q0000000Q000000
  0x4980	8a 51 00 00 00 00 00 00 70 51 00 00 00 00 00 00 	0Q000000pQ000000
  0x4990	5c 51 00 00 00 00 00 00 4c 51 00 00 00 00 00 00 	0Q000000LQ000000
  0x49a0	32 51 00 00 00 00 00 00 1c 51 00 00 00 00 00 00 	2Q0000000Q000000
  0x49b0	06 51 00 00 00 00 00 00 ec 50 00 00 00 00 00 00 	0Q0000000P000000
  0x49c0	d8 50 00 00 00 00 00 00 ba 50 00 00 00 00 00 00 	0P0000000P000000
  0x49d0	a8 50 00 00 00 00 00 00 ce 51 00 00 00 00 00 00 	0P0000000Q000000
  0x49e0	a0 50 00 00 00 00 00 00 00 00 00 00 00 00 00 00 	0P00000000000000
  0x49f0	dc 4e 00 00 00 00 00 00 f4 4e 00 00 00 00 00 00 	0N0000000N000000
  0x4a00	28 4f 00 00 00 00 00 00 40 4f 00 00 00 00 00 00 	(O000000@O000000
  0x4a10	6c 4f 00 00 00 00 00 00 7a 4f 00 00 00 00 00 00 	lO000000zO000000
  0x4a20	92 4f 00 00 00 00 00 00 ac 4f 00 00 00 00 00 00 	0O0000000O000000
  0x4a30	c8 4f 00 00 00 00 00 00 e8 4f 00 00 00 00 00 00 	0O0000000O000000
  0x4a40	fa 4f 00 00 00 00 00 00 1e 50 00 00 00 00 00 00 	0O0000000P000000
  0x4a50	3a 50 00 00 00 00 00 00 5a 50 00 00 00 00 00 00 	:P000000ZP000000
  0x4a60	7a 50 00 00 00 00 00 00 10 4f 00 00 00 00 00 00 	zP0000000O000000
  0x4a70	00 00 00 00 00 00 00 00 62 4c 00 00 00 00 00 00 	00000000bL000000
  0x4a80	76 4c 00 00 00 00 00 00 42 4c 00 00 00 00 00 00 	vL000000BL000000
  0x4a90	50 4c 00 00 00 00 00 00 00 00 00 00 00 00 00 00 	PL00000000000000
  0x4aa0	76 4d 00 00 00 00 00 00 6c 4d 00 00 00 00 00 00 	vM000000lM000000
  0x4ab0	62 4d 00 00 00 00 00 00 4a 4d 00 00 00 00 00 00 	bM000000JM000000
  0x4ac0	3e 4d 00 00 00 00 00 00 2a 4d 00 00 00 00 00 00 	>M000000*M000000
  0x4ad0	1c 4d 00 00 00 00 00 00 12 4d 00 00 00 00 00 00 	0M0000000M000000
  0x4ae0	8e 4d 00 00 00 00 00 00 02 4d 00 00 00 00 00 00 	0M0000000M000000
  0x4af0	f0 4c 00 00 00 00 00 00 e0 4c 00 00 00 00 00 00 	0L0000000L000000
  0x4b00	d2 4c 00 00 00 00 00 00 c4 4c 00 00 00 00 00 00 	0L0000000L000000
  0x4b10	bc 4c 00 00 00 00 00 00 b0 4c 00 00 00 00 00 00 	0L0000000L000000
  0x4b20	a6 4c 00 00 00 00 00 00 9c 4c 00 00 00 00 00 00 	0L0000000L000000
  0x4b30	90 4c 00 00 00 00 00 00 ec 51 00 00 00 00 00 00 	0L0000000Q000000
  0x4b40	0a 4d 00 00 00 00 00 00 e2 51 00 00 00 00 00 00 	0M0000000Q000000
  0x4b50	00 00 00 00 00 00 00 00 ba 4e 00 00 00 00 00 00 	000000000N000000
  0x4b60	a2 4e 00 00 00 00 00 00 8c 4e 00 00 00 00 00 00 	0N0000000N000000
  0x4b70	78 4e 00 00 00 00 00 00 68 4e 00 00 00 00 00 00 	xN000000hN000000
  0x4b80	56 4e 00 00 00 00 00 00 44 4e 00 00 00 00 00 00 	VN000000DN000000
  0x4b90	34 4e 00 00 00 00 00 00 1e 4e 00 00 00 00 00 00 	4N0000000N000000
  0x4ba0	f2 4d 00 00 00 00 00 00 dc 4d 00 00 00 00 00 00 	0M0000000M000000
  0x4bb0	c4 4d 00 00 00 00 00 00 b2 4d 00 00 00 00 00 00 	0M0000000M000000
  0x4bc0	a2 4d 00 00 00 00 00 00 06 4e 00 00 00 00 00 00 	0M0000000N000000
  0x4bd0	00 00 00 00 00 00 00 00 6a 02 47 65 74 4c 61 73 	00000000j0GetLas
  0x4be0	74 45 72 72 6f 72 00 00 c8 03 4c 6f 61 64 4c 69 	tError0000LoadLi
  0x4bf0	62 72 61 72 79 41 00 00 b8 02 47 65 74 50 72 6f 	braryA0000GetPro
  0x4c00	63 41 64 64 72 65 73 73 00 00 cb 03 4c 6f 61 64 	cAddress0000Load
  0x4c10	4c 69 62 72 61 72 79 57 00 00 b4 01 46 72 65 65 	LibraryW0000Free
  0x4c20	4c 69 62 72 61 72 79 00 49 06 6c 73 74 72 63 6d 	Library0I0lstrcm
  0x4c30	70 69 41 00 4b 45 52 4e 45 4c 33 32 2e 64 6c 6c 	piA0KERNEL32.dll
  0x4c40	00 00 85 02 4d 65 73 73 61 67 65 42 6f 78 41 00 	0000MessageBoxA0
  0x4c50	b0 02 50 6f 73 74 51 75 69 74 4d 65 73 73 61 67 	00PostQuitMessag
  0x4c60	65 00 bc 00 44 69 73 70 61 74 63 68 4d 65 73 73 	e000DispatchMess
  0x4c70	61 67 65 41 00 00 85 01 47 65 74 4d 65 73 73 61 	ageA0000GetMessa
  0x4c80	67 65 41 00 55 53 45 52 33 32 2e 64 6c 6c 00 00 	geA0USER32.dll00
  0x4c90	b9 04 73 70 72 69 6e 74 66 5f 73 00 d6 04 73 74 	00sprintf_s000st
  0x4ca0	72 74 6f 6b 00 00 86 04 6d 61 6c 6c 6f 63 00 00 	rtok0000malloc00
  0x4cb0	bf 00 5f 63 61 6c 6c 6e 65 77 68 00 4c 04 66 72 	00_callnewh0L0fr
  0x4cc0	65 65 00 00 55 00 5f 58 63 70 74 46 69 6c 74 65 	ee00U0_XcptFilte
  0x4cd0	72 00 ae 00 5f 61 6d 73 67 5f 65 78 69 74 00 00 	r000_amsg_exit00
  0x4ce0	7f 00 5f 5f 67 65 74 6d 61 69 6e 61 72 67 73 00 	00__getmainargs0
  0x4cf0	8e 00 5f 5f 73 65 74 5f 61 70 70 5f 74 79 70 65 	00__set_app_type
  0x4d00	00 00 32 04 65 78 69 74 00 00 0e 01 5f 65 78 69 	0020exit0000_exi
  0x4d10	74 00 c1 00 5f 63 65 78 69 74 00 00 99 01 5f 69 	t000_cexit0000_i
  0x4d20	73 6d 62 62 6c 65 61 64 00 00 90 00 5f 5f 73 65 	smbblead0000__se
  0x4d30	74 75 73 65 72 6d 61 74 68 65 72 72 00 00 7d 01 	tusermatherr00}0
  0x4d40	5f 69 6e 69 74 74 65 72 6d 00 57 00 5f 5f 43 5f 	_initterm0W0__C_
  0x4d50	73 70 65 63 69 66 69 63 5f 68 61 6e 64 6c 65 72 	specific_handler
  0x4d60	00 00 a2 00 5f 61 63 6d 64 6c 6e 00 27 01 5f 66 	0000_acmdln0'0_f
  0x4d70	6d 6f 64 65 00 00 d2 00 5f 63 6f 6d 6d 6f 64 65 	mode0000_commode
  0x4d80	00 00 6d 73 76 63 72 74 2e 64 6c 6c 00 00 2f 00 	00msvcrt.dll00/0
  0x4d90	3f 74 65 72 6d 69 6e 61 74 65 40 40 59 41 58 58 	?terminate@@YAXX
  0x4da0	5a 00 60 00 43 6f 49 6e 69 74 69 61 6c 69 7a 65 	Z0`0CoInitialize
  0x4db0	00 00 90 00 43 6f 55 6e 69 6e 69 74 69 61 6c 69 	0000CoUninitiali
  0x4dc0	7a 65 00 00 76 00 43 6f 52 65 67 69 73 74 65 72 	ze00v0CoRegister
  0x4dd0	43 6c 61 73 73 4f 62 6a 65 63 74 00 82 00 43 6f 	ClassObject000Co
  0x4de0	52 65 76 6f 6b 65 43 6c 61 73 73 4f 62 6a 65 63 	RevokeClassObjec
  0x4df0	74 00 7a 00 43 6f 52 65 67 69 73 74 65 72 50 53 	t0z0CoRegisterPS
  0x4e00	43 6c 73 69 64 00 7c 01 4f 62 6a 65 63 74 53 74 	Clsid0|0ObjectSt
  0x4e10	75 62 6c 65 73 73 43 6c 69 65 6e 74 33 00 38 01 	ublessClient3080
  0x4e20	48 57 4e 44 5f 55 73 65 72 55 6e 6d 61 72 73 68 	HWND_UserUnmarsh
  0x4e30	61 6c 00 00 2c 01 48 57 4e 44 5f 55 73 65 72 46 	al00,0HWND_UserF
  0x4e40	72 65 65 00 2d 01 48 57 4e 44 5f 55 73 65 72 46 	ree0-0HWND_UserF
  0x4e50	72 65 65 36 34 00 35 01 48 57 4e 44 5f 55 73 65 	ree64050HWND_Use
  0x4e60	72 53 69 7a 65 36 34 00 34 01 48 57 4e 44 5f 55 	rSize64040HWND_U
  0x4e70	73 65 72 53 69 7a 65 00 30 01 48 57 4e 44 5f 55 	serSize000HWND_U
  0x4e80	73 65 72 4d 61 72 73 68 61 6c 00 00 31 01 48 57 	serMarshal0010HW
  0x4e90	4e 44 5f 55 73 65 72 4d 61 72 73 68 61 6c 36 34 	ND_UserMarshal64
  0x4ea0	00 00 39 01 48 57 4e 44 5f 55 73 65 72 55 6e 6d 	0090HWND_UserUnm
  0x4eb0	61 72 73 68 61 6c 36 34 00 00 80 01 4f 62 6a 65 	arshal640000Obje
  0x4ec0	63 74 53 74 75 62 6c 65 73 73 43 6c 69 65 6e 74 	ctStublessClient
  0x4ed0	34 00 6f 6c 65 33 32 2e 64 6c 6c 00 d6 00 4e 64 	40ole32.dll000Nd
  0x4ee0	72 44 6c 6c 47 65 74 43 6c 61 73 73 4f 62 6a 65 	rDllGetClassObje
  0x4ef0	63 74 00 00 a1 00 4e 64 72 43 53 74 64 53 74 75 	ct0000NdrCStdStu
  0x4f00	62 42 75 66 66 65 72 5f 52 65 6c 65 61 73 65 00 	bBuffer_Release0
  0x4f10	06 00 43 53 74 64 53 74 75 62 42 75 66 66 65 72 	00CStdStubBuffer
  0x4f20	5f 49 6e 76 6f 6b 65 00 0f 00 49 55 6e 6b 6e 6f 	_Invoke000IUnkno
  0x4f30	77 6e 5f 41 64 64 52 65 66 5f 50 72 6f 78 79 00 	wn_AddRef_Proxy0
  0x4f40	03 00 43 53 74 64 53 74 75 62 42 75 66 66 65 72 	00CStdStubBuffer
  0x4f50	5f 44 65 62 75 67 53 65 72 76 65 72 51 75 65 72 	_DebugServerQuer
  0x4f60	79 49 6e 74 65 72 66 61 63 65 00 00 18 01 4e 64 	yInterface0000Nd
  0x4f70	72 4f 6c 65 46 72 65 65 00 00 00 00 43 53 74 64 	rOleFree0000CStd
  0x4f80	53 74 75 62 42 75 66 66 65 72 5f 41 64 64 52 65 	StubBuffer_AddRe
  0x4f90	66 00 11 00 49 55 6e 6b 6e 6f 77 6e 5f 52 65 6c 	f000IUnknown_Rel
  0x4fa0	65 61 73 65 5f 50 72 6f 78 79 00 00 02 00 43 53 	ease_Proxy0000CS
  0x4fb0	74 64 53 74 75 62 42 75 66 66 65 72 5f 43 6f 75 	tdStubBuffer_Cou
  0x4fc0	6e 74 52 65 66 73 00 00 08 00 43 53 74 64 53 74 	ntRefs0000CStdSt
  0x4fd0	75 62 42 75 66 66 65 72 5f 51 75 65 72 79 49 6e 	ubBuffer_QueryIn
  0x4fe0	74 65 72 66 61 63 65 00 17 01 4e 64 72 4f 6c 65 	terface000NdrOle
  0x4ff0	41 6c 6c 6f 63 61 74 65 00 00 04 00 43 53 74 64 	Allocate0000CStd
  0x5000	53 74 75 62 42 75 66 66 65 72 5f 44 65 62 75 67 	StubBuffer_Debug
  0x5010	53 65 72 76 65 72 52 65 6c 65 61 73 65 00 05 00 	ServerRelease000
  0x5020	43 53 74 64 53 74 75 62 42 75 66 66 65 72 5f 44 	CStdStubBuffer_D
  0x5030	69 73 63 6f 6e 6e 65 63 74 00 10 00 49 55 6e 6b 	isconnect000IUnk
  0x5040	6e 6f 77 6e 5f 51 75 65 72 79 49 6e 74 65 72 66 	nown_QueryInterf
  0x5050	61 63 65 5f 50 72 6f 78 79 00 07 00 43 53 74 64 	ace_Proxy000CStd
  0x5060	53 74 75 62 42 75 66 66 65 72 5f 49 73 49 49 44 	StubBuffer_IsIID
  0x5070	53 75 70 70 6f 72 74 65 64 00 01 00 43 53 74 64 	Supported000CStd
  0x5080	53 74 75 62 42 75 66 66 65 72 5f 43 6f 6e 6e 65 	StubBuffer_Conne
  0x5090	63 74 00 00 52 50 43 52 54 34 2e 64 6c 6c 00 00 	ct00RPCRT4.dll00
  0x50a0	8f 05 53 6c 65 65 70 00 da 02 47 65 74 53 74 61 	00Sleep000GetSta
  0x50b0	72 74 75 70 49 6e 66 6f 57 00 7f 05 53 65 74 55 	rtupInfoW000SetU
  0x50c0	6e 68 61 6e 64 6c 65 64 45 78 63 65 70 74 69 6f 	nhandledExceptio
  0x50d0	6e 46 69 6c 74 65 72 00 81 02 47 65 74 4d 6f 64 	nFilter000GetMod
  0x50e0	75 6c 65 48 61 6e 64 6c 65 57 00 00 52 04 51 75 	uleHandleW00R0Qu
  0x50f0	65 72 79 50 65 72 66 6f 72 6d 61 6e 63 65 43 6f 	eryPerformanceCo
  0x5100	75 6e 74 65 72 00 21 02 47 65 74 43 75 72 72 65 	unter0!0GetCurre
  0x5110	6e 74 50 72 6f 63 65 73 73 49 64 00 25 02 47 65 	ntProcessId0%0Ge
  0x5120	74 43 75 72 72 65 6e 74 54 68 72 65 61 64 49 64 	tCurrentThreadId
  0x5130	00 00 f3 02 47 65 74 53 79 73 74 65 6d 54 69 6d 	0000GetSystemTim
  0x5140	65 41 73 46 69 6c 65 54 69 6d 65 00 11 03 47 65 	eAsFileTime000Ge
  0x5150	74 54 69 63 6b 43 6f 75 6e 74 00 00 d5 04 52 74 	tTickCount0000Rt
  0x5160	6c 43 61 70 74 75 72 65 43 6f 6e 74 65 78 74 00 	lCaptureContext0
  0x5170	dc 04 52 74 6c 4c 6f 6f 6b 75 70 46 75 6e 63 74 	00RtlLookupFunct
  0x5180	69 6f 6e 45 6e 74 72 79 00 00 e3 04 52 74 6c 56 	ionEntry0000RtlV
  0x5190	69 72 74 75 61 6c 55 6e 77 69 6e 64 00 00 c0 05 	irtualUnwind0000
  0x51a0	55 6e 68 61 6e 64 6c 65 64 45 78 63 65 70 74 69 	UnhandledExcepti
  0x51b0	6f 6e 46 69 6c 74 65 72 00 00 20 02 47 65 74 43 	onFilter00 0GetC
  0x51c0	75 72 72 65 6e 74 50 72 6f 63 65 73 73 00 9e 05 	urrentProcess000
  0x51d0	54 65 72 6d 69 6e 61 74 65 50 72 6f 63 65 73 73 	TerminateProcess
  0x51e0	00 00 92 04 6d 65 6d 63 70 79 00 00 96 04 6d 65 	0000memcpy0000me
  0x51f0	6d 73 65 74 00 00 00 00 00 00 00 00 00 00 00 00 	mset000000000000
=== DATA BLOCK END ===

=== DATA BLOCK ADDRESS 0x6000 ===
  0x6000	01 00 00 00 00 00 00 00 32 a2 df 2d 99 2b 00 00 	00000000200-0+00
  0x6010	cd 5d 20 d2 66 d4 ff ff 00 00 00 00 00 00 00 00 	0] 0f00000000000
  0x6020	00 00 00 00 00 00 00 00 00 00 00 00 00 00 00 00 	0000000000000000
  0x6030	00 00 00 00 00 00 00 00 00 00 00 00 00 00 00 00 	0000000000000000
  0x6040	00 00 00 00 00 00 00 00 00 00 00 00 00 00 00 00 	0000000000000000
  0x6050	00 00 00 00 00 00 00 00 00 00 00 00 00 00 00 00 	0000000000000000
  0x6060	00 00 00 00 00 00 00 00 00 00 00 00 00 00 00 00 	0000000000000000
  0x6070	00 00 00 00 00 00 00 00 00 00 00 00 00 00 00 00 	0000000000000000
  0x6080	00 00 00 00 00 00 00 00 00 00 00 00 00 00 00 00 	0000000000000000
  0x6090	00 00 00 00 00 00 00 00 00 00 00 00 00 00 00 00 	0000000000000000
  0x60a0	00 00 00 00 00 00 00 00 00 00 00 00 00 00 00 00 	0000000000000000
  0x60b0	00 00 00 00 00 00 00 00 00 00 00 00 00 00 00 00 	0000000000000000
  0x60c0	00 00 00 00 00 00 00 00 00 00 00 00 00 00 00 00 	0000000000000000
  0x60d0	00 00 00 00 00 00 00 00 00 00 00 00 00 00 00 00 	0000000000000000
  0x60e0	00 00 00 00 00 00 00 00 00 00 00 00 00 00 00 00 	0000000000000000
  0x60f0	00 00 00 00 00 00 00 00 00 00 00 00 00 00 00 00 	0000000000000000
  0x6100	00 00 00 00 00 00 00 00 00 00 00 00 00 00 00 00 	0000000000000000
  0x6110	00 00 00 00 00 00 00 00 00 00 00 00 00 00 00 00 	0000000000000000
  0x6120	00 00 00 00 00 00 00 00 00 00 00 00 00 00 00 00 	0000000000000000
  0x6130	00 00 00 00 00 00 00 00 00 00 00 00 00 00 00 00 	0000000000000000
  0x6140	00 00 00 00 00 00 00 00 00 00 00 00 00 00 00 00 	0000000000000000
  0x6150	00 00 00 00 00 00 00 00 00 00 00 00 00 00 00 00 	0000000000000000
  0x6160	00 00 00 00 00 00 00 00 00 00 00 00 00 00 00 00 	0000000000000000
  0x6170	00 00 00 00 00 00 00 00 00 00 00 00 00 00 00 00 	0000000000000000
  0x6180	00 00 00 00 00 00 00 00 00 00 00 00 00 00 00 00 	0000000000000000
  0x6190	00 00 00 00 00 00 00 00 00 00 00 00 00 00 00 00 	0000000000000000
  0x61a0	00 00 00 00 00 00 00 00 00 00 00 00 00 00 00 00 	0000000000000000
  0x61b0	00 00 00 00 00 00 00 00 00 00 00 00 00 00 00 00 	0000000000000000
  0x61c0	00 00 00 00 00 00 00 00 00 00 00 00 00 00 00 00 	0000000000000000
  0x61d0	00 00 00 00 00 00 00 00 00 00 00 00 00 00 00 00 	0000000000000000
  0x61e0	00 00 00 00 00 00 00 00 00 00 00 00 00 00 00 00 	0000000000000000
  0x61f0	00 00 00 00 00 00 00 00 00 00 00 00 00 00 00 00 	0000000000000000
=== DATA BLOCK END ===

=== DATA BLOCK ADDRESS 0x7000 ===
  0x7000	44 10 00 00 24 11 00 00 10 47 00 00 30 11 00 00 	D000$0000G000000
  0x7010	60 11 00 00 20 47 00 00 68 11 00 00 a3 11 00 00 	`000 G00h0000000
  0x7020	2c 47 00 00 b0 11 00 00 71 12 00 00 34 47 00 00 	,G000000q0004G00
  0x7030	80 12 00 00 26 13 00 00 34 47 00 00 30 13 00 00 	0000&0004G000000
  0x7040	8d 13 00 00 4c 47 00 00 c0 13 00 00 f1 13 00 00 	0000LG0000000000
  0x7050	4c 47 00 00 00 14 00 00 59 14 00 00 2c 47 00 00 	LG000000Y000,G00
  0x7060	60 14 00 00 90 14 00 00 4c 47 00 00 a0 14 00 00 	`0000000LG000000
  0x7070	db 15 00 00 54 47 00 00 f0 15 00 00 30 16 00 00 	0000TG0000000000
  0x7080	2c 47 00 00 38 16 00 00 14 18 00 00 68 47 00 00 	,G0080000000hG00
  0x7090	1c 18 00 00 92 19 00 00 80 47 00 00 98 19 00 00 	000000000G000000
  0x70a0	b4 1a 00 00 94 47 00 00 bc 1a 00 00 76 1b 00 00 	00000G000000v000
  0x70b0	ac 47 00 00 7c 1b 00 00 9f 1c 00 00 94 47 00 00 	0G00|00000000G00
  0x70c0	a8 1c 00 00 bf 1d 00 00 c0 47 00 00 c8 1d 00 00 	000000000G000000
  0x70d0	9c 1f 00 00 d8 47 00 00 a4 1f 00 00 70 20 00 00 	00000G000000p 00
  0x70e0	f0 47 00 00 78 20 00 00 95 21 00 00 04 48 00 00 	0G00x 000!000H00
  0x70f0	bc 21 00 00 f5 21 00 00 20 47 00 00 10 22 00 00 	0!000!00 G000"00
  0x7100	e3 22 00 00 2c 47 00 00 f0 22 00 00 39 23 00 00 	0"00,G000"009#00
  0x7110	1c 48 00 00 40 23 00 00 52 23 00 00 2c 47 00 00 	0H00@#00R#00,G00
  0x7120	58 23 00 00 9a 25 00 00 24 48 00 00 b0 25 00 00 	X#000%00$H000%00
  0x7130	ce 25 00 00 58 48 00 00 00 26 00 00 39 26 00 00 	0%00XH000&009&00
  0x7140	2c 47 00 00 40 26 00 00 58 26 00 00 2c 47 00 00 	,G00@&00X&00,G00
  0x7150	6c 26 00 00 c0 26 00 00 5c 48 00 00 c8 26 00 00 	l&000&000H000&00
  0x7160	0d 27 00 00 4c 47 00 00 80 27 00 00 cd 27 00 00 	0'00LG000'000'00
  0x7170	7c 48 00 00 14 28 00 00 e8 28 00 00 a0 48 00 00 	|H000(000(000H00
  0x7180	1c 29 00 00 50 29 00 00 4c 47 00 00 60 29 00 00 	0)00P)00LG00`)00
  0x7190	d1 2a 00 00 ac 48 00 00 6c 2c 00 00 89 2c 00 00 	0*000H00l,000,00
  0x71a0	2c 47 00 00 90 2c 00 00 eb 2c 00 00 bc 48 00 00 	,G000,000,000H00
  0x71b0	20 2d 00 00 22 2d 00 00 b8 48 00 00 30 2d 00 00 	 -00"-000H000-00
  0x71c0	4e 2d 00 00 50 48 00 00 60 2d 00 00 80 2d 00 00 	N-00PH00`-000-00
  0x71d0	50 48 00 00 00 00 00 00 00 00 00 00 00 00 00 00 	PH00000000000000
  0x71e0	00 00 00 00 00 00 00 00 00 00 00 00 00 00 00 00 	0000000000000000
  0x71f0	00 00 00 00 00 00 00 00 00 00 00 00 00 00 00 00 	0000000000000000
=== DATA BLOCK END ===
