===== Assembly blocks =====

=== CODE BLOCK ADDRESS 0x1000 ===
  0x1000	int3   	
  0x1001	int3   	
  0x1002	int3   	
  0x1003	int3   	
  0x1004	int3   	
  === BLOCK LINK ===
    0x1005
=== CODE BLOCK END ===

=== CODE BLOCK ADDRESS 0x1005 ===
  0x1005	int3   	
  0x1006	int3   	
  0x1007	int3   	
  0x1008	jno    	0x1052
  === BLOCK LINK ===
    0x100a
    0x1052
=== CODE BLOCK END ===

=== CODE BLOCK ADDRESS 0x100a ===
  0x100a	ficom  	dword ptr [esi - 0x6a]
  0x100d	int1   	
  0x100f	test   	dword ptr [eax - 0x73], ecx
  0x1012	add    	eax, 0x3be9
  0x1017	dec    	eax
  === BLOCK LINK ===
    0x1018
=== CODE BLOCK END ===

=== CODE BLOCK ADDRESS 0x1018 ===
  0x1018	mov    	dword ptr [0x97ba], eax
  0x101e	dec    	eax
  0x101f	lea    	eax, [0x478b]
  0x1025	dec    	eax
  0x1026	mov    	dword ptr [0x97cc], eax
  === BLOCK LINK ===
    0x102c
=== CODE BLOCK END ===

=== CODE BLOCK ADDRESS 0x102c ===
  0x102c	ret    	
  0x102d	int3   	
  0x102e	int3   	
  0x102f	int3   	
  0x1030	int3   	
  === BLOCK LINK ===
    0x1031
=== CODE BLOCK END ===

=== CODE BLOCK ADDRESS 0x1052 ===
=== CODE BLOCK END ===

=== CODE BLOCK ADDRESS 0x1031 ===
  0x1031	int3   	
  0x1032	int3   	
  0x1033	int3   	
  0x1034	int3   	
  0x1035	int3   	
  === BLOCK LINK ===
    0x1036
=== CODE BLOCK END ===

=== CODE BLOCK ADDRESS 0x1036 ===
  0x1036	int3   	
  0x1037	int3   	
  0x1038	jno    	0x1082
  === BLOCK LINK ===
    0x103a
    0x1082
=== CODE BLOCK END ===

=== CODE BLOCK ADDRESS 0x103a ===
  0x103a	ficom  	dword ptr [esi - 0x6a]
  0x103d	int1   	
  0x103f	test   	dword ptr [eax - 0x73], ecx
  0x1042	add    	eax, 0x2529
  0x1047	dec    	eax
  === BLOCK LINK ===
    0x1048
=== CODE BLOCK END ===

=== CODE BLOCK ADDRESS 0x1048 ===
  0x1048	mov    	dword ptr [0x9772], eax
  0x104e	dec    	eax
  0x104f	lea    	eax, [0x8fab]
  0x1055	dec    	eax
  0x1056	mov    	dword ptr [0x970c], eax
  === BLOCK LINK ===
    0x105c
=== CODE BLOCK END ===

=== CODE BLOCK ADDRESS 0x105c ===
  0x105c	dec    	eax
  0x105d	lea    	eax, [0x90ad]
  0x1063	dec    	eax
  0x1064	mov    	dword ptr [0x9726], eax
  0x106a	ret    	
  === BLOCK LINK ===
    0x106b
=== CODE BLOCK END ===

=== CODE BLOCK ADDRESS 0x1082 ===
=== CODE BLOCK END ===

=== CODE BLOCK ADDRESS 0x106b ===
  0x106b	int3   	
  0x106c	int3   	
  0x106d	int3   	
  0x106e	int3   	
  0x106f	int3   	
  === BLOCK LINK ===
    0x1070
=== CODE BLOCK END ===

=== CODE BLOCK ADDRESS 0x1070 ===
  0x1070	int3   	
  0x1071	int3   	
  0x1072	int3   	
  0x1073	int3   	
  0x1074	int3   	
  === BLOCK LINK ===
    0x1075
=== CODE BLOCK END ===

=== CODE BLOCK ADDRESS 0x1075 ===
  0x1075	int3   	
  0x1076	int3   	
  0x1077	int3   	
  0x1078	jno    	0x10c2
  === BLOCK LINK ===
    0x107a
    0x10c2
=== CODE BLOCK END ===

=== CODE BLOCK ADDRESS 0x107a ===
  0x107a	ficom  	dword ptr [esi - 0x6a]
  0x107d	int1   	
  0x107f	test   	dword ptr [eax - 0x73], ecx
  0x1082	add    	eax, 0x2669
  0x1087	dec    	eax
  === BLOCK LINK ===
    0x1088
=== CODE BLOCK END ===

=== CODE BLOCK ADDRESS 0x1088 ===
  0x1088	mov    	dword ptr [0x977a], eax
  0x108e	dec    	eax
  0x108f	lea    	eax, [0x23ab]
  0x1095	dec    	eax
  0x1096	mov    	dword ptr [0x9734], eax
  === BLOCK LINK ===
    0x109c
=== CODE BLOCK END ===

=== CODE BLOCK ADDRESS 0x109c ===
  0x109c	dec    	eax
  0x109d	lea    	eax, [0x4c6d]
  0x10a3	dec    	eax
  0x10a4	mov    	dword ptr [0x9756], eax
  0x10aa	dec    	eax
  === BLOCK LINK ===
    0x10ab
=== CODE BLOCK END ===

=== CODE BLOCK ADDRESS 0x10ab ===
  0x10ab	lea    	eax, [0x3c5f]
  0x10b1	dec    	eax
  0x10b2	mov    	dword ptr [0x9710], eax
  0x10b8	dec    	eax
  0x10b9	lea    	eax, [0x3bb1]
  === BLOCK LINK ===
    0x10bf
=== CODE BLOCK END ===

=== CODE BLOCK ADDRESS 0x10bf ===
  0x10bf	dec    	eax
  0x10c0	mov    	dword ptr [0x96f2], eax
  === BLOCK LINK ===
    0x10c2
=== CODE BLOCK END ===

=== CODE BLOCK ADDRESS 0x10ce ===
  0x10ce	mov    	dword ptr [0x96d4], eax
  0x10d4	dec    	eax
  0x10d5	lea    	eax, [0x3705]
  0x10db	dec    	eax
  0x10dc	mov    	dword ptr [0x96a6], eax
  === BLOCK LINK ===
    0x10e2
=== CODE BLOCK END ===

=== CODE BLOCK ADDRESS 0x10e2 ===
  0x10e2	ret    	
  0x10e3	int3   	
  0x10e4	int3   	
  0x10e5	int3   	
  0x10e6	int3   	
  === BLOCK LINK ===
    0x10e7
=== CODE BLOCK END ===

=== CODE BLOCK ADDRESS 0x10c2 ===
  0x10c6	dec    	eax
  0x10c7	lea    	eax, [0x2403]
  0x10cd	dec    	eax
  === BLOCK LINK ===
    0x10ce
=== CODE BLOCK END ===

=== CODE BLOCK ADDRESS 0x10e7 ===
  0x10e7	int3   	
  0x10e8	jno    	0x1132
  === BLOCK LINK ===
    0x10ea
    0x1132
=== CODE BLOCK END ===

=== CODE BLOCK ADDRESS 0x10ea ===
  0x10ea	ficom  	dword ptr [esi - 0x6a]
  0x10ed	int1   	
  0x10ef	test   	dword ptr [eax - 0x73], ecx
  0x10f2	or     	eax, 0x5b09
  0x10f7	jmp    	0x184c
  === BLOCK LINK ===
    0x10fc
    0x184c
=== CODE BLOCK END ===

=== CODE BLOCK ADDRESS 0x10fc ===
  0x10fc	int3   	
  0x10fd	int3   	
  0x10fe	int3   	
  0x10ff	int3   	
  0x1100	int3   	
  === BLOCK LINK ===
    0x1101
=== CODE BLOCK END ===

=== CODE BLOCK ADDRESS 0x1101 ===
  0x1101	int3   	
  0x1102	int3   	
  0x1103	int3   	
  0x1104	int3   	
  0x1105	int3   	
  === BLOCK LINK ===
    0x1106
=== CODE BLOCK END ===

=== CODE BLOCK ADDRESS 0x1106 ===
  0x1106	int3   	
  0x1107	int3   	
  0x1108	jno    	0x1152
  === BLOCK LINK ===
    0x110a
    0x1152
=== CODE BLOCK END ===

=== CODE BLOCK ADDRESS 0x110a ===
  0x110a	ficom  	dword ptr [esi - 0x6a]
  0x110d	int1   	
  0x110f	test   	dword ptr [eax - 0x73], ecx
  0x1112	or     	eax, 0x5b19
  0x1117	jmp    	0x184c
  === BLOCK LINK ===
    0x111c
    0x184c
=== CODE BLOCK END ===

=== CODE BLOCK ADDRESS 0x111c ===
  0x111c	int3   	
  0x111d	int3   	
  0x111e	int3   	
  0x111f	int3   	
  0x1120	int3   	
  === BLOCK LINK ===
    0x1121
=== CODE BLOCK END ===

=== CODE BLOCK ADDRESS 0x1121 ===
  0x1121	int3   	
  0x1122	int3   	
  0x1123	int3   	
  0x1124	int3   	
  0x1125	int3   	
  === BLOCK LINK ===
    0x1126
=== CODE BLOCK END ===

=== CODE BLOCK ADDRESS 0x1126 ===
  0x1126	int3   	
  0x1127	int3   	
  0x1128	jno    	0x115a
  === BLOCK LINK ===
    0x112a
    0x115a
=== CODE BLOCK END ===

=== CODE BLOCK ADDRESS 0x112a ===
  0x112a	push   	edx
  0x112b	pop    	esi
  0x112c	inc    	edi
  0x112d	daa    	
  0x112e	add    	eax, 0xec8348d3
  === BLOCK LINK ===
    0x1133
=== CODE BLOCK END ===

=== CODE BLOCK ADDRESS 0x1133 ===
  0x1133	sub    	al, ch
  0x1135	pop    	ss
  0x1136	add    	byte ptr [eax], al
  0x1138	add    	byte ptr [eax - 0x7d], cl
  0x113b	or     	byte ptr [eax + ebp*8], al
  === BLOCK LINK ===
    0x113e
=== CODE BLOCK END ===

=== CODE BLOCK ADDRESS 0x113e ===
  0x113e	push   	ss
  0x113f	add    	byte ptr [eax], al
  0x1141	add    	byte ptr [eax - 0x7d], cl
  0x1144	or     	byte ptr [edx], al
  0x1146	xor    	eax, eax
  === BLOCK LINK ===
    0x1148
=== CODE BLOCK END ===

=== CODE BLOCK ADDRESS 0x1148 ===
  0x1148	dec    	eax
  0x1149	add    	esp, 0x28
  0x114c	ret    	
  0x114d	int3   	
  0x114e	int3   	
  === BLOCK LINK ===
    0x114f
=== CODE BLOCK END ===

=== CODE BLOCK ADDRESS 0x1132 ===
=== CODE BLOCK END ===

=== CODE BLOCK ADDRESS 0x114f ===
  0x114f	int3   	
  0x1150	dec    	eax
  0x1151	lea    	eax, [0x9019]
  === BLOCK LINK ===
    0x1152
=== CODE BLOCK END ===

=== CODE BLOCK ADDRESS 0x184c ===
=== CODE BLOCK END ===

=== CODE BLOCK ADDRESS 0x1159 ===
  0x1159	lea    	eax, [0x9019]
  === BLOCK LINK ===
    0x115a
=== CODE BLOCK END ===

=== CODE BLOCK ADDRESS 0x1152 ===
  0x1157	ret    	
  0x1158	dec    	eax
  === BLOCK LINK ===
    0x1159
=== CODE BLOCK END ===

=== CODE BLOCK ADDRESS 0x1163 ===
  0x1163	int3   	
  0x1164	int3   	
  0x1165	int3   	
  0x1166	int3   	
  0x1167	int3   	
  === BLOCK LINK ===
    0x1168
=== CODE BLOCK END ===

=== CODE BLOCK ADDRESS 0x1168 ===
  0x1168	jno    	0x119a
  === BLOCK LINK ===
    0x116a
    0x119a
=== CODE BLOCK END ===

=== CODE BLOCK ADDRESS 0x116a ===
  0x116a	push   	edx
  0x116b	pop    	esi
  0x116c	inc    	edi
  0x116d	daa    	
  0x116e	add    	eax, 0xec8348d3
  === BLOCK LINK ===
    0x1173
=== CODE BLOCK END ===

=== CODE BLOCK ADDRESS 0x1173 ===
  0x1173	sub    	al, ch
  0x1175	xlatb  	
  0x1176	.byte  	0xff
  0x1177	.byte  	0xff
  0x1178	dec    	dword ptr [eax - 0x7d]
  === BLOCK LINK ===
    0x117b
=== CODE BLOCK END ===

=== CODE BLOCK ADDRESS 0x117b ===
  0x117b	or     	byte ptr [eax], bl
  0x117d	call   	0x1158
  === BLOCK LINK ===
    0x1182
    0x1158
=== CODE BLOCK END ===

=== CODE BLOCK ADDRESS 0x1182 ===
  0x1182	dec    	eax
  0x1183	or     	dword ptr [eax], 4
  0x1186	xor    	eax, eax
  0x1188	dec    	eax
  0x1189	add    	esp, 0x28
  === BLOCK LINK ===
    0x118c
=== CODE BLOCK END ===

=== CODE BLOCK ADDRESS 0x118c ===
  0x118c	ret    	
  0x118d	int3   	
  0x118e	int3   	
  0x118f	int3   	
  0x1190	int3   	
  === BLOCK LINK ===
    0x1191
=== CODE BLOCK END ===

=== CODE BLOCK ADDRESS 0x1191 ===
  0x1191	int3   	
  0x1192	int3   	
  0x1193	int3   	
  0x1194	int3   	
  0x1195	int3   	
  === BLOCK LINK ===
    0x1196
=== CODE BLOCK END ===

=== CODE BLOCK ADDRESS 0x1196 ===
  0x1196	int3   	
  0x1197	int3   	
  0x1198	jno    	0x11ca
  === BLOCK LINK ===
    0x119a
    0x11ca
=== CODE BLOCK END ===

=== CODE BLOCK ADDRESS 0x119a ===
  0x119a	push   	edx
  0x119b	pop    	esi
  0x119c	inc    	edi
  0x119d	daa    	
  0x119e	add    	eax, 0x485340d3
  === BLOCK LINK ===
    0x11a3
=== CODE BLOCK END ===

=== CODE BLOCK ADDRESS 0x11a3 ===
  0x11a3	sub    	esp, 0x20
  0x11a6	mov    	ecx, 1
  0x11ab	call   	0x2082
  === BLOCK LINK ===
    0x11b0
    0x2082
=== CODE BLOCK END ===

=== CODE BLOCK ADDRESS 0x11b0 ===
  0x11b0	call   	0x1960
  === BLOCK LINK ===
    0x11b5
    0x1960
=== CODE BLOCK END ===

=== CODE BLOCK ADDRESS 0x11b5 ===
  0x11b5	mov    	ecx, eax
  0x11b7	call   	0x2088
  === BLOCK LINK ===
    0x11bc
    0x2088
=== CODE BLOCK END ===

=== CODE BLOCK ADDRESS 0x11bc ===
  0x11bc	call   	0x195c
  === BLOCK LINK ===
    0x11c1
    0x195c
=== CODE BLOCK END ===

=== CODE BLOCK ADDRESS 0x11c1 ===
  0x11c1	mov    	ebx, eax
  0x11c3	call   	0x200a
  === BLOCK LINK ===
    0x11c8
    0x200a
=== CODE BLOCK END ===

=== CODE BLOCK ADDRESS 0x11c8 ===
  0x11c8	mov    	ecx, 1
  === BLOCK LINK ===
    0x11ca
    0x169c
=== CODE BLOCK END ===

=== CODE BLOCK ADDRESS 0x11d4 ===
  0x11d4	test   	al, al
  0x11d6	je     	0x1236
  === BLOCK LINK ===
    0x11d8
    0x1236
=== CODE BLOCK END ===

=== CODE BLOCK ADDRESS 0x11d8 ===
  0x11d8	call   	0x1bdc
  === BLOCK LINK ===
    0x11dd
    0x1bdc
=== CODE BLOCK END ===

=== CODE BLOCK ADDRESS 0x11dd ===
  0x11dd	dec    	eax
  0x11de	lea    	ecx, [0xa4c]
  0x11e4	call   	0x184c
  === BLOCK LINK ===
    0x11e9
    0x184c
=== CODE BLOCK END ===

=== CODE BLOCK ADDRESS 0x11e9 ===
  0x11e9	call   	0x1954
  === BLOCK LINK ===
    0x11ee
    0x1954
=== CODE BLOCK END ===

=== CODE BLOCK ADDRESS 0x11ee ===
  0x11ee	mov    	ecx, eax
  0x11f0	call   	0x203a
  === BLOCK LINK ===
    0x11f5
    0x203a
=== CODE BLOCK END ===

=== CODE BLOCK ADDRESS 0x11f5 ===
  0x11f5	test   	eax, eax
  0x11f7	jne    	0x1236
  === BLOCK LINK ===
    0x11f9
    0x1236
=== CODE BLOCK END ===

=== CODE BLOCK ADDRESS 0x11f9 ===
  0x11f9	call   	0x1968
  === BLOCK LINK ===
    0x11fe
    0x1968
=== CODE BLOCK END ===

=== CODE BLOCK ADDRESS 0x11fe ===
  0x11fe	call   	0x197c
  === BLOCK LINK ===
    0x1203
    0x197c
=== CODE BLOCK END ===

=== CODE BLOCK ADDRESS 0x1203 ===
  0x1203	call   	0x197c
  === BLOCK LINK ===
    0x1208
    0x197c
=== CODE BLOCK END ===

=== CODE BLOCK ADDRESS 0x1208 ===
  0x1208	call   	0x195c
  === BLOCK LINK ===
    0x120d
    0x195c
=== CODE BLOCK END ===

=== CODE BLOCK ADDRESS 0x120d ===
  0x120d	mov    	ecx, eax
  0x120f	call   	0x2034
  === BLOCK LINK ===
    0x1214
    0x2034
=== CODE BLOCK END ===

=== CODE BLOCK ADDRESS 0x1214 ===
  0x1214	call   	0x1978
  === BLOCK LINK ===
    0x1219
    0x1978
=== CODE BLOCK END ===

=== CODE BLOCK ADDRESS 0x1219 ===
  0x1219	test   	al, al
  0x121b	je     	0x1222
  === BLOCK LINK ===
    0x121d
    0x1222
=== CODE BLOCK END ===

=== CODE BLOCK ADDRESS 0x121d ===
  0x121d	call   	0x2058
  === BLOCK LINK ===
    0x1222
    0x2058
=== CODE BLOCK END ===

=== CODE BLOCK ADDRESS 0x1222 ===
  0x1222	call   	0x195c
  === BLOCK LINK ===
    0x1227
    0x195c
=== CODE BLOCK END ===

=== CODE BLOCK ADDRESS 0x1227 ===
  0x1227	call   	0x1b00
  === BLOCK LINK ===
    0x122c
    0x1b00
=== CODE BLOCK END ===

=== CODE BLOCK ADDRESS 0x122c ===
  0x122c	test   	eax, eax
  0x122e	jne    	0x1236
  === BLOCK LINK ===
    0x1230
    0x1236
=== CODE BLOCK END ===

=== CODE BLOCK ADDRESS 0x1230 ===
  0x1230	dec    	eax
  0x1231	add    	esp, 0x20
  0x1234	pop    	ebx
  0x1235	ret    	
  0x1236	mov    	ecx, 7
  === BLOCK LINK ===
    0x123b
=== CODE BLOCK END ===

=== CODE BLOCK ADDRESS 0x115a ===
  0x115f	ret    	
  0x1160	int3   	
  0x1161	int3   	
  0x1162	int3   	
  === BLOCK LINK ===
    0x1163
=== CODE BLOCK END ===

=== CODE BLOCK ADDRESS 0x123b ===
  0x123b	call   	0x19b4
  === BLOCK LINK ===
    0x1240
    0x19b4
=== CODE BLOCK END ===

=== CODE BLOCK ADDRESS 0x1240 ===
  0x1240	int3   	
  0x1241	int3   	
  0x1242	int3   	
  0x1243	int3   	
  0x1244	int3   	
  === BLOCK LINK ===
    0x1245
=== CODE BLOCK END ===

=== CODE BLOCK ADDRESS 0x1245 ===
  0x1245	int3   	
  0x1246	int3   	
  0x1247	int3   	
  0x1248	jno    	0x127a
  === BLOCK LINK ===
    0x124a
    0x127a
=== CODE BLOCK END ===

=== CODE BLOCK ADDRESS 0x124a ===
  0x124a	push   	edx
  0x124b	pop    	esi
  0x124c	inc    	edi
  0x124d	daa    	
  0x124e	add    	eax, 0xec8348d3
  === BLOCK LINK ===
    0x1253
=== CODE BLOCK END ===

=== CODE BLOCK ADDRESS 0x1253 ===
  0x1253	sub    	al, ch
  0x1255	daa    	
  0x1256	pop    	es
  0x1257	add    	byte ptr [eax], al
  0x1259	xor    	eax, eax
  === BLOCK LINK ===
    0x125b
=== CODE BLOCK END ===

=== CODE BLOCK ADDRESS 0x125b ===
  0x125b	dec    	eax
  0x125c	add    	esp, 0x28
  0x125f	ret    	
  0x1260	int3   	
  0x1261	int3   	
  === BLOCK LINK ===
    0x1262
=== CODE BLOCK END ===

=== CODE BLOCK ADDRESS 0x1262 ===
  0x1262	int3   	
  0x1263	int3   	
  0x1264	int3   	
  0x1265	int3   	
  0x1266	int3   	
  === BLOCK LINK ===
    0x1267
=== CODE BLOCK END ===

=== CODE BLOCK ADDRESS 0x1267 ===
  0x1267	int3   	
  0x1268	jno    	0x12b2
  === BLOCK LINK ===
    0x126a
    0x12b2
=== CODE BLOCK END ===

=== CODE BLOCK ADDRESS 0x126a ===
  0x126a	ficom  	dword ptr [esi - 0x6a]
  0x126d	int1   	
  0x126f	test   	dword ptr [eax - 0x7d], ecx
  0x1272	in     	al, dx
  0x1273	sub    	al, ch
  === BLOCK LINK ===
    0x1275
=== CODE BLOCK END ===

=== CODE BLOCK ADDRESS 0x1275 ===
  0x1275	jecxz  	0x127f
  === BLOCK LINK ===
    0x1277
    0x127f
=== CODE BLOCK END ===

=== CODE BLOCK ADDRESS 0x1277 ===
  0x1277	add    	byte ptr [eax], al
  0x1279	call   	0x195c
  === BLOCK LINK ===
    0x127e
    0x195c
=== CODE BLOCK END ===

=== CODE BLOCK ADDRESS 0x127e ===
  0x127e	mov    	ecx, eax
  === BLOCK LINK ===
    0x127f
    0x208e
=== CODE BLOCK END ===

=== CODE BLOCK ADDRESS 0x1289 ===
  0x1289	int3   	
  0x128a	int3   	
  0x128b	int3   	
  === BLOCK LINK ===
    0x128c
=== CODE BLOCK END ===

=== CODE BLOCK ADDRESS 0x1291 ===
  0x1291	dec    	eax
  0x1292	mov    	dword ptr [esp + 0x10], esi
  0x1296	push   	edi
  0x1297	dec    	eax
  0x1298	sub    	esp, 0x30
  === BLOCK LINK ===
    0x129b
=== CODE BLOCK END ===

=== CODE BLOCK ADDRESS 0x129b ===
  0x129b	mov    	ecx, 1
  0x12a0	call   	0x1650
  === BLOCK LINK ===
    0x12a5
    0x1650
=== CODE BLOCK END ===

=== CODE BLOCK ADDRESS 0x12a5 ===
  0x12a5	test   	al, al
  0x12a7	je     	0x13ed
  === BLOCK LINK ===
    0x12ad
    0x13ed
=== CODE BLOCK END ===

=== CODE BLOCK ADDRESS 0x12ad ===
  0x12ad	inc    	eax
  0x12ae	xor    	dh, dh
  0x12b0	inc    	eax
  0x12b1	mov    	byte ptr [esp + 0x20], dh
  === BLOCK LINK ===
    0x12b2
    0x1614
=== CODE BLOCK END ===

=== CODE BLOCK ADDRESS 0x12ba ===
  0x12ba	mov    	bl, al
  0x12bc	mov    	ecx, dword ptr [0x9462]
  0x12c2	cmp    	ecx, 1
  0x12c5	je     	0x13f8
  === BLOCK LINK ===
    0x12cb
    0x13f8
=== CODE BLOCK END ===

=== CODE BLOCK ADDRESS 0x12cb ===
  0x12cb	test   	ecx, ecx
  0x12cd	jne    	0x1319
  === BLOCK LINK ===
    0x12cf
    0x1319
=== CODE BLOCK END ===

=== CODE BLOCK ADDRESS 0x12cf ===
  0x12cf	mov    	dword ptr [0x944b], 1
  0x12d9	dec    	eax
  0x12da	lea    	edx, [0x6330]
  0x12e0	dec    	eax
  0x12e1	lea    	ecx, [0x6301]
  === BLOCK LINK ===
    0x12e7
=== CODE BLOCK END ===

=== CODE BLOCK ADDRESS 0x12e7 ===
  0x12e7	call   	0x1fe6
  === BLOCK LINK ===
    0x12ec
    0x1fe6
=== CODE BLOCK END ===

=== CODE BLOCK ADDRESS 0x12ec ===
  0x12ec	test   	eax, eax
  0x12ee	je     	0x12fa
  === BLOCK LINK ===
    0x12f0
    0x12fa
=== CODE BLOCK END ===

=== CODE BLOCK ADDRESS 0x12f0 ===
  0x12f0	mov    	eax, 0xff
  0x12f5	jmp    	0x13dd
  === BLOCK LINK ===
    0x12fa
    0x13dd
=== CODE BLOCK END ===

=== CODE BLOCK ADDRESS 0x12fa ===
  0x12fa	dec    	eax
  0x12fb	lea    	edx, [0x62df]
  0x1301	dec    	eax
  0x1302	lea    	ecx, [0x62a0]
  0x1308	call   	0x1fe0
  === BLOCK LINK ===
    0x130d
    0x1fe0
=== CODE BLOCK END ===

=== CODE BLOCK ADDRESS 0x130d ===
  0x130d	mov    	dword ptr [0x940d], 2
  0x1317	jmp    	0x1321
  === BLOCK LINK ===
    0x1319
    0x1321
=== CODE BLOCK END ===

=== CODE BLOCK ADDRESS 0x1319 ===
  0x1319	inc    	eax
  0x131a	mov    	dh, 1
  0x131c	inc    	eax
  0x131d	mov    	byte ptr [esp + 0x20], dh
  0x1321	mov    	cl, bl
  === BLOCK LINK ===
    0x1323
=== CODE BLOCK END ===

=== CODE BLOCK ADDRESS 0x1323 ===
  0x1323	call   	0x17c0
  === BLOCK LINK ===
    0x1328
    0x17c0
=== CODE BLOCK END ===

=== CODE BLOCK ADDRESS 0x1328 ===
  0x1328	call   	0x199c
  === BLOCK LINK ===
    0x132d
    0x199c
=== CODE BLOCK END ===

=== CODE BLOCK ADDRESS 0x132d ===
  0x132d	dec    	eax
  0x132e	mov    	ebx, eax
  0x1330	dec    	eax
  0x1331	cmp    	dword ptr [eax], 0
  0x1334	je     	0x135e
  === BLOCK LINK ===
    0x1336
    0x135e
=== CODE BLOCK END ===

=== CODE BLOCK ADDRESS 0x1336 ===
  0x1336	dec    	eax
  0x1337	mov    	ecx, eax
  0x1339	call   	0x1728
  === BLOCK LINK ===
    0x133e
    0x1728
=== CODE BLOCK END ===

=== CODE BLOCK ADDRESS 0x133e ===
  0x133e	test   	al, al
  0x1340	je     	0x135e
  === BLOCK LINK ===
    0x1342
    0x135e
=== CODE BLOCK END ===

=== CODE BLOCK ADDRESS 0x1342 ===
  0x1342	dec    	ecx
  0x1343	mov    	edx, 0x78d92870
  0x1348	inc    	ebp
  0x1349	add    	dword ptr cs:[ecx + 0x41c03345], ebx
  0x1350	lea    	edx, [eax + 2]
  === BLOCK LINK ===
    0x1353
=== CODE BLOCK END ===

=== CODE BLOCK ADDRESS 0x1353 ===
  0x1353	xor    	ecx, ecx
  0x1355	dec    	eax
  0x1356	mov    	eax, dword ptr [ebx]
  0x1358	call   	dword ptr [0x6232]
  === BLOCK LINK ===
    0x135e
=== CODE BLOCK END ===

=== CODE BLOCK ADDRESS 0x135e ===
  0x135e	call   	0x19a4
  === BLOCK LINK ===
    0x1363
    0x19a4
=== CODE BLOCK END ===

=== CODE BLOCK ADDRESS 0x1363 ===
  0x1363	dec    	eax
  0x1364	mov    	ebx, eax
  0x1366	dec    	eax
  0x1367	cmp    	dword ptr [eax], 0
  0x136a	je     	0x1380
  === BLOCK LINK ===
    0x136c
    0x1380
=== CODE BLOCK END ===

=== CODE BLOCK ADDRESS 0x136c ===
  0x136c	dec    	eax
  0x136d	mov    	ecx, eax
  0x136f	call   	0x1728
  === BLOCK LINK ===
    0x1374
    0x1728
=== CODE BLOCK END ===

=== CODE BLOCK ADDRESS 0x1374 ===
  0x1374	test   	al, al
  0x1376	je     	0x1380
  === BLOCK LINK ===
    0x1378
    0x1380
=== CODE BLOCK END ===

=== CODE BLOCK ADDRESS 0x1378 ===
  0x1378	dec    	eax
  0x1379	mov    	ecx, dword ptr [ebx]
  0x137b	call   	0x1ff2
  === BLOCK LINK ===
    0x1380
    0x1ff2
=== CODE BLOCK END ===

=== CODE BLOCK ADDRESS 0x1380 ===
  0x1380	call   	0x204c
  === BLOCK LINK ===
    0x1385
    0x204c
=== CODE BLOCK END ===

=== CODE BLOCK ADDRESS 0x1385 ===
  0x1385	dec    	eax
  0x1386	mov    	edi, eax
  0x1388	call   	0x2004
  === BLOCK LINK ===
    0x138d
    0x2004
=== CODE BLOCK END ===

=== CODE BLOCK ADDRESS 0x138d ===
  0x138d	dec    	eax
  0x138e	mov    	ebx, dword ptr [eax]
  0x1390	call   	0x1ffe
  === BLOCK LINK ===
    0x1395
    0x1ffe
=== CODE BLOCK END ===

=== CODE BLOCK ADDRESS 0x1395 ===
  0x1395	dec    	esp
  0x1396	mov    	eax, edi
  0x1398	dec    	eax
  0x1399	mov    	edx, ebx
  0x139b	mov    	ecx, dword ptr [eax]
  === BLOCK LINK ===
    0x139d
=== CODE BLOCK END ===

=== CODE BLOCK ADDRESS 0x139d ===
  0x139d	call   	0x6180
  === BLOCK LINK ===
    0x13a2
    0x6180
=== CODE BLOCK END ===

=== CODE BLOCK ADDRESS 0x13a2 ===
  0x13a2	mov    	ebx, eax
  0x13a4	call   	0x1b08
  === BLOCK LINK ===
    0x13a9
    0x1b08
=== CODE BLOCK END ===

=== CODE BLOCK ADDRESS 0x13a9 ===
  0x13a9	test   	al, al
  0x13ab	je     	0x1402
  === BLOCK LINK ===
    0x13ad
    0x1402
=== CODE BLOCK END ===

=== CODE BLOCK ADDRESS 0x13ad ===
  0x13ad	inc    	eax
  0x13ae	test   	dh, dh
  0x13b0	jne    	0x13b7
  === BLOCK LINK ===
    0x13b2
    0x13b7
=== CODE BLOCK END ===

=== CODE BLOCK ADDRESS 0x13b2 ===
  0x13b2	call   	0x202e
  === BLOCK LINK ===
    0x13b7
    0x202e
=== CODE BLOCK END ===

=== CODE BLOCK ADDRESS 0x13b7 ===
  0x13b7	xor    	edx, edx
  0x13b9	mov    	cl, 1
  0x13bb	call   	0x17e4
  === BLOCK LINK ===
    0x13c0
    0x17e4
=== CODE BLOCK END ===

=== CODE BLOCK ADDRESS 0x13c0 ===
  0x13c0	mov    	eax, ebx
  0x13c2	jmp    	0x13dd
  === BLOCK LINK ===
    0x13c4
    0x13dd
=== CODE BLOCK END ===

=== CODE BLOCK ADDRESS 0x13c4 ===
  0x13c4	mov    	ebx, eax
  0x13c6	call   	0x1b08
  === BLOCK LINK ===
    0x13cb
    0x1b08
=== CODE BLOCK END ===

=== CODE BLOCK ADDRESS 0x13cb ===
  0x13cb	test   	al, al
  0x13cd	je     	0x140a
  === BLOCK LINK ===
    0x13cf
    0x140a
=== CODE BLOCK END ===

=== CODE BLOCK ADDRESS 0x13cf ===
  0x13cf	cmp    	byte ptr [esp + 0x20], 0
  0x13d4	jne    	0x13db
  === BLOCK LINK ===
    0x13d6
    0x13db
=== CODE BLOCK END ===

=== CODE BLOCK ADDRESS 0x13d6 ===
  0x13d6	call   	0x1fec
  === BLOCK LINK ===
    0x13db
    0x1fec
=== CODE BLOCK END ===

=== CODE BLOCK ADDRESS 0x13db ===
  0x13db	mov    	eax, ebx
  === BLOCK LINK ===
    0x13dd
=== CODE BLOCK END ===

=== CODE BLOCK ADDRESS 0x13e7 ===
  0x13e7	dec    	eax
  0x13e8	add    	esp, 0x30
  0x13eb	pop    	edi
  0x13ec	ret    	
  0x13ed	mov    	ecx, 7
  === BLOCK LINK ===
    0x13f2
=== CODE BLOCK END ===

=== CODE BLOCK ADDRESS 0x1158 ===
=== CODE BLOCK END ===

=== CODE BLOCK ADDRESS 0x13f2 ===
  0x13f2	call   	0x19b4
  === BLOCK LINK ===
    0x13f7
    0x19b4
=== CODE BLOCK END ===

=== CODE BLOCK ADDRESS 0x13f7 ===
  0x13f7	nop    	
  === BLOCK LINK ===
    0x13f8
    0x19b4
=== CODE BLOCK END ===

=== CODE BLOCK ADDRESS 0x1402 ===
  0x1402	mov    	ecx, ebx
  0x1404	call   	0x2094
  === BLOCK LINK ===
    0x1409
    0x2094
=== CODE BLOCK END ===

=== CODE BLOCK ADDRESS 0x1409 ===
  0x1409	nop    	
  === BLOCK LINK ===
    0x140a
    0x2046
=== CODE BLOCK END ===

=== CODE BLOCK ADDRESS 0x1411 ===
  0x1411	nop    	
  0x1412	int3   	
  0x1413	int3   	
  0x1414	int3   	
  0x1415	int3   	
  === BLOCK LINK ===
    0x1416
=== CODE BLOCK END ===

=== CODE BLOCK ADDRESS 0x1416 ===
  0x1416	int3   	
  0x1417	int3   	
  0x1418	jno    	0x13bc
  === BLOCK LINK ===
    0x141a
    0x13bc
=== CODE BLOCK END ===

=== CODE BLOCK ADDRESS 0x141a ===
  0x141a	fcom   	qword ptr [edx]
  0x141c	push   	-0x69
  0x141e	cdq    	
  0x141f	mov    	al, 0x48
  0x1421	sub    	esp, 0x28
  === BLOCK LINK ===
    0x1424
=== CODE BLOCK END ===

=== CODE BLOCK ADDRESS 0x1424 ===
  0x1424	call   	0x18a8
  === BLOCK LINK ===
    0x1429
    0x18a8
=== CODE BLOCK END ===

=== CODE BLOCK ADDRESS 0x1429 ===
  0x1429	dec    	eax
  0x142a	add    	esp, 0x28
  0x142d	jmp    	0x128c
  === BLOCK LINK ===
    0x1432
    0x128c
=== CODE BLOCK END ===

=== CODE BLOCK ADDRESS 0x1432 ===
  0x1432	int3   	
  0x1433	int3   	
  0x1434	int3   	
  0x1435	int3   	
  0x1436	int3   	
  === BLOCK LINK ===
    0x1437
=== CODE BLOCK END ===

=== CODE BLOCK ADDRESS 0x1437 ===
  0x1437	int3   	
  0x1438	int3   	
  0x1439	int3   	
  0x143a	int3   	
  0x143b	int3   	
  === BLOCK LINK ===
    0x143c
=== CODE BLOCK END ===

=== CODE BLOCK ADDRESS 0x143c ===
  0x143c	int3   	
  0x143d	int3   	
  0x143e	int3   	
  0x143f	int3   	
  0x1440	int3   	
  === BLOCK LINK ===
    0x1441
=== CODE BLOCK END ===

=== CODE BLOCK ADDRESS 0x1441 ===
  0x1441	int3   	
  0x1442	int3   	
  0x1443	int3   	
  0x1444	int3   	
  0x1445	int3   	
  === BLOCK LINK ===
    0x1446
=== CODE BLOCK END ===

=== CODE BLOCK ADDRESS 0x1446 ===
  0x1446	nop    	word ptr [eax + eax]
  0x1450	dec    	eax
  0x1451	cmp    	ecx, dword ptr [0x8c89]
  0x1457	jne    	0x1469
  === BLOCK LINK ===
    0x1459
    0x1469
=== CODE BLOCK END ===

=== CODE BLOCK ADDRESS 0x1459 ===
  0x1459	dec    	eax
  0x145a	rol    	ecx, 0x10
  0x145d	test   	cx, 0xffff
  0x1462	jne    	0x1465
  === BLOCK LINK ===
    0x1464
    0x1465
=== CODE BLOCK END ===

=== CODE BLOCK ADDRESS 0x1464 ===
  0x1464	ret    	
  === BLOCK LINK ===
    0x1465
    0x14b0
=== CODE BLOCK END ===

=== CODE BLOCK ADDRESS 0x11ca ===
  0x11cd	mov    	dword ptr [eax], ebx
  0x11cf	call   	0x169c
  === BLOCK LINK ===
    0x11d4
=== CODE BLOCK END ===

=== CODE BLOCK ADDRESS 0x146e ===
  0x146e	int3   	
  0x146f	int3   	
  === BLOCK LINK ===
    0x1470
=== CODE BLOCK END ===

=== CODE BLOCK ADDRESS 0x1473 ===
  0x1473	sub    	esp, 0x20
  === BLOCK LINK ===
    0x1474
=== CODE BLOCK END ===

=== CODE BLOCK ADDRESS 0x1481 ===
  0x1481	dec    	eax
  0x1482	mov    	ecx, ebx
  0x1484	call   	dword ptr [0x5dee]
  === BLOCK LINK ===
    0x148a
=== CODE BLOCK END ===

=== CODE BLOCK ADDRESS 0x148a ===
  0x148a	call   	dword ptr [0x5ea0]
  === BLOCK LINK ===
    0x1490
=== CODE BLOCK END ===

=== CODE BLOCK ADDRESS 0x1490 ===
  0x1490	dec    	eax
  0x1491	mov    	ecx, eax
  0x1493	mov    	edx, 0xc0000409
  0x1498	dec    	eax
  0x1499	add    	esp, 0x20
  === BLOCK LINK ===
    0x149c
=== CODE BLOCK END ===

=== CODE BLOCK ADDRESS 0x149c ===
  0x149c	pop    	ebx
  0x149d	dec    	eax
  0x149e	jmp    	dword ptr [0x5e84]
  === BLOCK LINK ===
    0x14a4
=== CODE BLOCK END ===

=== CODE BLOCK ADDRESS 0x14a4 ===
  0x14a4	int3   	
  0x14a5	int3   	
  0x14a6	int3   	
  0x14a7	int3   	
  0x14a8	jno    	0x1474
  === BLOCK LINK ===
    0x14aa
    0x1474
=== CODE BLOCK END ===

=== CODE BLOCK ADDRESS 0x14aa ===
  0x14aa	ficomp  	dword ptr [edx]
  0x14ac	mov    	dh, 0x17
  0x14ae	mov    	eax, 0x4c894899
  === BLOCK LINK ===
    0x14b0
=== CODE BLOCK END ===

=== CODE BLOCK ADDRESS 0x14b6 ===
  0x14b6	sub    	esp, 0x38
  0x14b9	mov    	ecx, 0x17
  0x14be	call   	dword ptr [0x5e7c]
  === BLOCK LINK ===
    0x14c4
=== CODE BLOCK END ===

=== CODE BLOCK ADDRESS 0x14c4 ===
  0x14c4	test   	eax, eax
  0x14c6	je     	0x14cf
  === BLOCK LINK ===
    0x14c8
    0x14cf
=== CODE BLOCK END ===

=== CODE BLOCK ADDRESS 0x14c8 ===
  0x14c8	mov    	ecx, 2
  0x14cd	int    	0x29
  === BLOCK LINK ===
    0x14cf
    0x1584
=== CODE BLOCK END ===

=== CODE BLOCK ADDRESS 0x14db ===
  0x14db	dec    	eax
  0x14dc	mov    	eax, dword ptr [esp + 0x38]
  0x14e0	dec    	eax
  0x14e1	mov    	dword ptr [0x8e31], eax
  0x14e7	dec    	eax
  === BLOCK LINK ===
    0x14e8
=== CODE BLOCK END ===

=== CODE BLOCK ADDRESS 0x14e8 ===
  0x14e8	lea    	eax, [esp + 0x38]
  0x14ec	dec    	eax
  0x14ed	add    	eax, 8
  0x14f0	dec    	eax
  0x14f1	mov    	dword ptr [0x8dc1], eax
  === BLOCK LINK ===
    0x14f7
=== CODE BLOCK END ===

=== CODE BLOCK ADDRESS 0x14f7 ===
  0x14f7	dec    	eax
  0x14f8	mov    	eax, dword ptr [0x8e1a]
  0x14fe	dec    	eax
  0x14ff	mov    	dword ptr [0x8c8b], eax
  0x1505	dec    	eax
  === BLOCK LINK ===
    0x1506
=== CODE BLOCK END ===

=== CODE BLOCK ADDRESS 0x1506 ===
  0x1506	mov    	eax, dword ptr [esp + 0x40]
  0x150a	dec    	eax
  0x150b	mov    	dword ptr [0x8d8f], eax
  0x1511	mov    	dword ptr [0x8c65], 0xc0000409
  0x151b	mov    	dword ptr [0x8c5f], 1
  === BLOCK LINK ===
    0x1525
=== CODE BLOCK END ===

=== CODE BLOCK ADDRESS 0x1525 ===
  0x1525	mov    	dword ptr [0x8c69], 1
  0x152f	mov    	eax, 8
  0x1534	dec    	eax
  0x1535	imul   	eax, eax, 0
  0x1538	dec    	eax
  === BLOCK LINK ===
    0x1539
=== CODE BLOCK END ===

=== CODE BLOCK ADDRESS 0x1539 ===
  0x1539	lea    	ecx, [0x8c61]
  0x153f	dec    	eax
  0x1540	mov    	dword ptr [ecx + eax], 2
  0x1547	mov    	eax, 8
  0x154c	dec    	eax
  === BLOCK LINK ===
    0x154d
=== CODE BLOCK END ===

=== CODE BLOCK ADDRESS 0x154d ===
  0x154d	imul   	eax, eax, 0
  0x1550	dec    	eax
  0x1551	mov    	ecx, dword ptr [0x8b89]
  0x1557	dec    	eax
  0x1558	mov    	dword ptr [esp + eax + 0x20], ecx
  === BLOCK LINK ===
    0x155c
=== CODE BLOCK END ===

=== CODE BLOCK ADDRESS 0x155c ===
  0x155c	mov    	eax, 8
  0x1561	dec    	eax
  0x1562	imul   	eax, eax, 1
  0x1565	dec    	eax
  0x1566	mov    	ecx, dword ptr [0x8b7c]
  === BLOCK LINK ===
    0x156c
=== CODE BLOCK END ===

=== CODE BLOCK ADDRESS 0x156c ===
  0x156c	dec    	eax
  0x156d	mov    	dword ptr [esp + eax + 0x20], ecx
  0x1571	dec    	eax
  0x1572	lea    	ecx, [0x5a88]
  0x1578	call   	0x1470
  === BLOCK LINK ===
    0x157d
    0x1470
=== CODE BLOCK END ===

=== CODE BLOCK ADDRESS 0x157d ===
  0x157d	dec    	eax
  0x157e	add    	esp, 0x38
  0x1581	ret    	
  0x1582	int3   	
  0x1583	int3   	
  === BLOCK LINK ===
    0x1584
=== CODE BLOCK END ===

=== CODE BLOCK ADDRESS 0x2082 ===
  0x2082	jmp    	dword ptr [0x5408]
  === BLOCK LINK ===
    0x2088
=== CODE BLOCK END ===

=== CODE BLOCK ADDRESS 0x1584 ===
  0x1584	inc    	eax
  0x1585	push   	ebx
  0x1586	push   	esi
  0x1587	push   	edi
  0x1588	dec    	eax
  === BLOCK LINK ===
    0x1589
=== CODE BLOCK END ===

=== CODE BLOCK ADDRESS 0x1589 ===
  0x1589	sub    	esp, 0x40
  0x158c	dec    	eax
  0x158d	mov    	ebx, ecx
  0x158f	call   	dword ptr [0x5dd3]
  === BLOCK LINK ===
    0x1595
=== CODE BLOCK END ===

=== CODE BLOCK ADDRESS 0x1595 ===
  0x1595	dec    	eax
  0x1596	mov    	esi, dword ptr [ebx + 0xf8]
  0x159c	xor    	edi, edi
  === BLOCK LINK ===
    0x159e
=== CODE BLOCK END ===

=== CODE BLOCK ADDRESS 0x15a1 ===
  0x15a1	dec    	eax
  0x15a2	lea    	edx, [esp + 0x60]
  0x15a6	dec    	eax
  0x15a7	mov    	ecx, esi
  0x15a9	call   	dword ptr [0x5dc1]
  === BLOCK LINK ===
    0x15af
=== CODE BLOCK END ===

=== CODE BLOCK ADDRESS 0x15af ===
  0x15af	dec    	eax
  0x15b0	test   	eax, eax
  0x15b2	je     	0x15ed
  === BLOCK LINK ===
    0x15b4
    0x15ed
=== CODE BLOCK END ===

=== CODE BLOCK ADDRESS 0x15b4 ===
  0x15b4	dec    	eax
  0x15b5	and    	dword ptr [esp + 0x38], 0
  0x15ba	dec    	eax
  0x15bb	lea    	ecx, [esp + 0x68]
  0x15bf	dec    	eax
  === BLOCK LINK ===
    0x15c0
=== CODE BLOCK END ===

=== CODE BLOCK ADDRESS 0x15c0 ===
  0x15c0	mov    	edx, dword ptr [esp + 0x60]
  0x15c4	dec    	esp
  0x15c5	mov    	ecx, eax
  0x15c7	dec    	eax
  0x15c8	mov    	dword ptr [esp + 0x30], ecx
  === BLOCK LINK ===
    0x15cc
=== CODE BLOCK END ===

=== CODE BLOCK ADDRESS 0x15cc ===
  0x15cc	dec    	esp
  0x15cd	mov    	eax, esi
  0x15cf	dec    	eax
  0x15d0	lea    	ecx, [esp + 0x70]
  0x15d4	dec    	eax
  === BLOCK LINK ===
    0x15d5
=== CODE BLOCK END ===

=== CODE BLOCK ADDRESS 0x15d5 ===
  0x15d5	mov    	dword ptr [esp + 0x28], ecx
  0x15d9	xor    	ecx, ecx
  0x15db	dec    	eax
  0x15dc	mov    	dword ptr [esp + 0x20], ebx
  0x15e0	call   	dword ptr [0x5d7a]
  === BLOCK LINK ===
    0x15e6
=== CODE BLOCK END ===

=== CODE BLOCK ADDRESS 0x15e6 ===
  0x15e6	inc    	edi
  0x15e8	cmp    	edi, 2
  0x15eb	jl     	0x159e
  === BLOCK LINK ===
    0x15ed
    0x159e
=== CODE BLOCK END ===

=== CODE BLOCK ADDRESS 0x15ed ===
  0x15ed	dec    	eax
  0x15ee	add    	esp, 0x40
  0x15f1	pop    	edi
  0x15f2	pop    	esi
  0x15f3	pop    	ebx
  === BLOCK LINK ===
    0x15f4
=== CODE BLOCK END ===

=== CODE BLOCK ADDRESS 0x15f4 ===
  0x15f4	ret    	
  0x15f5	int3   	
  0x15f6	int3   	
  0x15f7	int3   	
  0x15f8	dec    	eax
  === BLOCK LINK ===
    0x15f9
=== CODE BLOCK END ===

=== CODE BLOCK ADDRESS 0x1960 ===
=== CODE BLOCK END ===

=== CODE BLOCK ADDRESS 0x15f9 ===
  0x15f9	sub    	esp, 0x38
  0x15fc	dec    	eax
  0x15fd	mov    	dword ptr [esp + 0x20], 0xfffffffe
  0x1605	call   	0x1c84
  === BLOCK LINK ===
    0x160a
    0x1c84
=== CODE BLOCK END ===

=== CODE BLOCK ADDRESS 0x160a ===
  0x160a	jmp    	0x160e
  === BLOCK LINK ===
    0x160c
    0x160e
=== CODE BLOCK END ===

=== CODE BLOCK ADDRESS 0x160c ===
  0x160c	xor    	eax, eax
  === BLOCK LINK ===
    0x160e
=== CODE BLOCK END ===

=== CODE BLOCK ADDRESS 0x2088 ===
  0x2088	jmp    	dword ptr [0x540a]
  === BLOCK LINK ===
    0x208e
=== CODE BLOCK END ===

=== CODE BLOCK ADDRESS 0x1614 ===
  0x1614	dec    	eax
  0x1615	sub    	esp, 0x28
  0x1618	call   	0x1e64
  === BLOCK LINK ===
    0x161d
    0x1e64
=== CODE BLOCK END ===

=== CODE BLOCK ADDRESS 0x161d ===
  0x161d	test   	eax, eax
  0x161f	je     	0x1642
  === BLOCK LINK ===
    0x1621
    0x1642
=== CODE BLOCK END ===

=== CODE BLOCK ADDRESS 0x1621 ===
  0x1621	dec    	eax
  0x1623	mov    	eax, dword ptr [0x30]
  0x162a	dec    	eax
  0x162b	mov    	ecx, dword ptr [eax + 8]
  0x162e	jmp    	0x1635
  === BLOCK LINK ===
    0x1630
    0x1635
=== CODE BLOCK END ===

=== CODE BLOCK ADDRESS 0x1630 ===
  0x1630	dec    	eax
  0x1631	cmp    	ecx, eax
  0x1633	je     	0x1649
  === BLOCK LINK ===
    0x1635
    0x1649
=== CODE BLOCK END ===

=== CODE BLOCK ADDRESS 0x1635 ===
  0x1635	xor    	eax, eax
  0x1637	.byte  	0xf0
  0x1638	dec    	eax
  0x1639	cmpxchg  	dword ptr [0x90e8], ecx
  0x1640	jne    	0x1630
  === BLOCK LINK ===
    0x1642
    0x1630
=== CODE BLOCK END ===

=== CODE BLOCK ADDRESS 0x1642 ===
  0x1642	xor    	al, al
  === BLOCK LINK ===
    0x1644
=== CODE BLOCK END ===

=== CODE BLOCK ADDRESS 0x195c ===
=== CODE BLOCK END ===

=== CODE BLOCK ADDRESS 0x164b ===
  0x164b	jmp    	0x1644
  === BLOCK LINK ===
    0x164d
    0x1644
=== CODE BLOCK END ===

=== CODE BLOCK ADDRESS 0x164d ===
  0x164d	int3   	
  0x164e	int3   	
  0x164f	int3   	
  === BLOCK LINK ===
    0x1650
=== CODE BLOCK END ===

=== CODE BLOCK ADDRESS 0x1652 ===
  0x1652	dec    	eax
  0x1653	sub    	esp, 0x20
  0x1656	movzx  	eax, byte ptr [0x90d3]
  0x165d	test   	ecx, ecx
  0x165f	mov    	ebx, 1
  === BLOCK LINK ===
    0x1664
=== CODE BLOCK END ===

=== CODE BLOCK ADDRESS 0x1664 ===
  0x1664	cmove  	eax, ebx
  0x1667	mov    	byte ptr [0x90c3], al
  0x166d	call   	0x1cc0
  === BLOCK LINK ===
    0x1672
    0x1cc0
=== CODE BLOCK END ===

=== CODE BLOCK ADDRESS 0x1672 ===
  0x1672	call   	0x1978
  === BLOCK LINK ===
    0x1677
    0x1978
=== CODE BLOCK END ===

=== CODE BLOCK ADDRESS 0x1677 ===
  0x1677	test   	al, al
  0x1679	jne    	0x167f
  === BLOCK LINK ===
    0x167b
    0x167f
=== CODE BLOCK END ===

=== CODE BLOCK ADDRESS 0x167b ===
  0x167b	xor    	al, al
  0x167d	jmp    	0x1693
  === BLOCK LINK ===
    0x167f
    0x1693
=== CODE BLOCK END ===

=== CODE BLOCK ADDRESS 0x167f ===
  0x167f	call   	0x1978
  === BLOCK LINK ===
    0x1684
    0x1978
=== CODE BLOCK END ===

=== CODE BLOCK ADDRESS 0x1684 ===
  0x1684	test   	al, al
  0x1686	jne    	0x1691
  === BLOCK LINK ===
    0x1688
    0x1691
=== CODE BLOCK END ===

=== CODE BLOCK ADDRESS 0x1688 ===
  0x1688	xor    	ecx, ecx
  0x168a	call   	0x2198
  === BLOCK LINK ===
    0x168f
    0x2198
=== CODE BLOCK END ===

=== CODE BLOCK ADDRESS 0x168f ===
  0x168f	jmp    	0x167b
  === BLOCK LINK ===
    0x1691
    0x167b
=== CODE BLOCK END ===

=== CODE BLOCK ADDRESS 0x1691 ===
  0x1691	mov    	al, bl
  === BLOCK LINK ===
    0x1693
=== CODE BLOCK END ===

=== CODE BLOCK ADDRESS 0x200a ===
  0x200a	jmp    	dword ptr [0x5508]
  === BLOCK LINK ===
    0x2010
=== CODE BLOCK END ===

=== CODE BLOCK ADDRESS 0x1699 ===
  0x1699	int3   	
  0x169a	int3   	
  0x169b	int3   	
  === BLOCK LINK ===
    0x169c
=== CODE BLOCK END ===

=== CODE BLOCK ADDRESS 0x169e ===
  0x169e	dec    	eax
  0x169f	sub    	esp, 0x20
  0x16a2	cmp    	byte ptr [0x9077], 0
  0x16a9	mov    	ebx, ecx
  0x16ab	jne    	0x1714
  === BLOCK LINK ===
    0x16ad
    0x1714
=== CODE BLOCK END ===

=== CODE BLOCK ADDRESS 0x16ad ===
  0x16ad	cmp    	ecx, 1
  0x16b0	ja     	0x171c
  === BLOCK LINK ===
    0x16b2
    0x171c
=== CODE BLOCK END ===

=== CODE BLOCK ADDRESS 0x16b2 ===
  0x16b2	call   	0x1e64
  === BLOCK LINK ===
    0x16b7
    0x1e64
=== CODE BLOCK END ===

=== CODE BLOCK ADDRESS 0x16b7 ===
  0x16b7	test   	eax, eax
  0x16b9	je     	0x16e3
  === BLOCK LINK ===
    0x16bb
    0x16e3
=== CODE BLOCK END ===

=== CODE BLOCK ADDRESS 0x16bb ===
  0x16bb	test   	ebx, ebx
  0x16bd	jne    	0x16e3
  === BLOCK LINK ===
    0x16bf
    0x16e3
=== CODE BLOCK END ===

=== CODE BLOCK ADDRESS 0x16bf ===
  0x16bf	dec    	eax
  0x16c0	lea    	ecx, [0x902a]
  0x16c6	call   	0x2052
  === BLOCK LINK ===
    0x16cb
    0x2052
=== CODE BLOCK END ===

=== CODE BLOCK ADDRESS 0x16cb ===
  0x16cb	test   	eax, eax
  0x16cd	jne    	0x16df
  === BLOCK LINK ===
    0x16cf
    0x16df
=== CODE BLOCK END ===

=== CODE BLOCK ADDRESS 0x16cf ===
  0x16cf	dec    	eax
  0x16d0	lea    	ecx, [0x9032]
  0x16d6	call   	0x2052
  === BLOCK LINK ===
    0x16db
    0x2052
=== CODE BLOCK END ===

=== CODE BLOCK ADDRESS 0x16db ===
  0x16db	test   	eax, eax
  0x16dd	je     	0x170d
  === BLOCK LINK ===
    0x16df
    0x170d
=== CODE BLOCK END ===

=== CODE BLOCK ADDRESS 0x16df ===
  0x16df	xor    	al, al
  0x16e1	jmp    	0x1716
  === BLOCK LINK ===
    0x16e3
    0x1716
=== CODE BLOCK END ===

=== CODE BLOCK ADDRESS 0x16e3 ===
  0x16e3	movdqa  	xmm0, xmmword ptr [0x6065]
  0x16eb	dec    	eax
  0x16ec	or     	eax, 0xffffffff
  0x16ef	movdqu  	xmmword ptr [0x8ff9], xmm0
  0x16f7	dec    	eax
  === BLOCK LINK ===
    0x16f8
=== CODE BLOCK END ===

=== CODE BLOCK ADDRESS 0x16f8 ===
  0x16f8	mov    	dword ptr [0x9002], eax
  0x16fe	movdqu  	xmmword ptr [0x9002], xmm0
  0x1706	dec    	eax
  0x1707	mov    	dword ptr [0x900b], eax
  0x170d	mov    	byte ptr [0x900c], 1
  === BLOCK LINK ===
    0x1714
=== CODE BLOCK END ===

=== CODE BLOCK ADDRESS 0x1714 ===
  0x1714	mov    	al, 1
  === BLOCK LINK ===
    0x1716
=== CODE BLOCK END ===

=== CODE BLOCK ADDRESS 0x169c ===
  0x169c	inc    	eax
  0x169d	push   	ebx
  === BLOCK LINK ===
    0x169e
=== CODE BLOCK END ===

=== CODE BLOCK ADDRESS 0x171c ===
  0x171c	mov    	ecx, 5
  0x1721	call   	0x19b4
  === BLOCK LINK ===
    0x1726
    0x19b4
=== CODE BLOCK END ===

=== CODE BLOCK ADDRESS 0x1726 ===
  0x1726	int3   	
  0x1727	int3   	
  === BLOCK LINK ===
    0x1728
=== CODE BLOCK END ===

=== CODE BLOCK ADDRESS 0x172d ===
  0x172d	mov    	eax, ecx
  0x172f	mov    	eax, 0x5a4d
  0x1734	cmp    	word ptr [0xffffe8c5], ax
  0x173b	jne    	0x17b5
  === BLOCK LINK ===
    0x173d
    0x17b5
=== CODE BLOCK END ===

=== CODE BLOCK ADDRESS 0x173d ===
  0x173d	dec    	eax
  0x173e	arpl   	word ptr [0xffffe8f8], cx
  0x1744	dec    	eax
  0x1745	lea    	edx, [0xffffe8b5]
  0x174b	dec    	eax
  === BLOCK LINK ===
    0x174c
=== CODE BLOCK END ===

=== CODE BLOCK ADDRESS 0x174c ===
  0x174c	add    	ecx, edx
  0x174e	cmp    	dword ptr [ecx], 0x4550
  0x1754	jne    	0x17b5
  === BLOCK LINK ===
    0x1756
    0x17b5
=== CODE BLOCK END ===

=== CODE BLOCK ADDRESS 0x1756 ===
  0x1756	mov    	eax, 0x20b
  0x175b	cmp    	word ptr [ecx + 0x18], ax
  0x175f	jne    	0x17b5
  === BLOCK LINK ===
    0x1761
    0x17b5
=== CODE BLOCK END ===

=== CODE BLOCK ADDRESS 0x1761 ===
  0x1761	dec    	esp
  0x1762	sub    	eax, edx
  0x1764	movzx  	eax, word ptr [ecx + 0x14]
  0x1768	dec    	eax
  0x1769	lea    	edx, [ecx + 0x18]
  === BLOCK LINK ===
    0x176c
=== CODE BLOCK END ===

=== CODE BLOCK ADDRESS 0x176c ===
  0x176c	dec    	eax
  0x176d	add    	edx, eax
  0x176f	movzx  	eax, word ptr [ecx + 6]
  0x1773	dec    	eax
  0x1774	lea    	ecx, [eax + eax*4]
  === BLOCK LINK ===
    0x1777
=== CODE BLOCK END ===

=== CODE BLOCK ADDRESS 0x1777 ===
  0x1777	dec    	esp
  0x1778	lea    	ecx, [edx + ecx*8]
  === BLOCK LINK ===
    0x177b
=== CODE BLOCK END ===

=== CODE BLOCK ADDRESS 0x1780 ===
  0x1780	cmp    	edx, ecx
  0x1782	je     	0x179c
  === BLOCK LINK ===
    0x1784
    0x179c
=== CODE BLOCK END ===

=== CODE BLOCK ADDRESS 0x1784 ===
  0x1784	mov    	ecx, dword ptr [edx + 0xc]
  0x1787	dec    	esp
  0x1788	cmp    	eax, ecx
  0x178a	jb     	0x1796
  === BLOCK LINK ===
    0x178c
    0x1796
=== CODE BLOCK END ===

=== CODE BLOCK ADDRESS 0x178c ===
  0x178c	mov    	eax, dword ptr [edx + 8]
  0x178f	add    	eax, ecx
  0x1791	dec    	esp
  0x1792	cmp    	eax, eax
  0x1794	jb     	0x179e
  === BLOCK LINK ===
    0x1796
    0x179e
=== CODE BLOCK END ===

=== CODE BLOCK ADDRESS 0x1796 ===
  0x1796	dec    	eax
  0x1797	add    	edx, 0x28
  0x179a	jmp    	0x177b
  === BLOCK LINK ===
    0x179c
    0x177b
=== CODE BLOCK END ===

=== CODE BLOCK ADDRESS 0x179c ===
  0x179c	xor    	edx, edx
  === BLOCK LINK ===
    0x179e
    0x17a7
=== CODE BLOCK END ===

=== CODE BLOCK ADDRESS 0x17a3 ===
  0x17a3	xor    	al, al
  0x17a5	jmp    	0x17bb
  === BLOCK LINK ===
    0x17a7
    0x17bb
=== CODE BLOCK END ===

=== CODE BLOCK ADDRESS 0x17a7 ===
  0x17a7	cmp    	dword ptr [edx + 0x24], 0
  0x17ab	jge    	0x17b1
  === BLOCK LINK ===
    0x17ad
    0x17b1
=== CODE BLOCK END ===

=== CODE BLOCK ADDRESS 0x17ad ===
  0x17ad	xor    	al, al
  0x17af	jmp    	0x17bb
  === BLOCK LINK ===
    0x17b1
    0x17bb
=== CODE BLOCK END ===

=== CODE BLOCK ADDRESS 0x17b1 ===
  0x17b1	mov    	al, 1
  0x17b3	jmp    	0x17bb
  === BLOCK LINK ===
    0x17b5
    0x17bb
=== CODE BLOCK END ===

=== CODE BLOCK ADDRESS 0x17b5 ===
  0x17b5	xor    	al, al
  0x17b7	jmp    	0x17bb
  === BLOCK LINK ===
    0x17b9
    0x17bb
=== CODE BLOCK END ===

=== CODE BLOCK ADDRESS 0x17b9 ===
  0x17b9	xor    	al, al
  === BLOCK LINK ===
    0x17bb
=== CODE BLOCK END ===

=== CODE BLOCK ADDRESS 0x1236 ===
=== CODE BLOCK END ===

=== CODE BLOCK ADDRESS 0x17c1 ===
  0x17c1	push   	ebx
  0x17c2	dec    	eax
  0x17c3	sub    	esp, 0x20
  0x17c6	mov    	bl, cl
  0x17c8	call   	0x1e64
  === BLOCK LINK ===
    0x17cd
    0x1e64
=== CODE BLOCK END ===

=== CODE BLOCK ADDRESS 0x17cd ===
  0x17cd	xor    	edx, edx
  0x17cf	test   	eax, eax
  0x17d1	je     	0x17de
  === BLOCK LINK ===
    0x17d3
    0x17de
=== CODE BLOCK END ===

=== CODE BLOCK ADDRESS 0x17d3 ===
  0x17d3	test   	bl, bl
  0x17d5	jne    	0x17de
  === BLOCK LINK ===
    0x17d7
    0x17de
=== CODE BLOCK END ===

=== CODE BLOCK ADDRESS 0x17d7 ===
  0x17d7	dec    	eax
  0x17d8	xchg   	dword ptr [0x8f4a], edx
  === BLOCK LINK ===
    0x17de
=== CODE BLOCK END ===

=== CODE BLOCK ADDRESS 0x17e3 ===
  0x17e3	ret    	
  === BLOCK LINK ===
    0x17e4
=== CODE BLOCK END ===

=== CODE BLOCK ADDRESS 0x1bdc ===
=== CODE BLOCK END ===

=== CODE BLOCK ADDRESS 0x17ea ===
  0x17ea	cmp    	byte ptr [0x8f3f], 0
  0x17f1	mov    	bl, cl
  0x17f3	je     	0x17f9
  === BLOCK LINK ===
    0x17f5
    0x17f9
=== CODE BLOCK END ===

=== CODE BLOCK ADDRESS 0x17f5 ===
  0x17f5	test   	dl, dl
  0x17f7	jne    	0x1805
  === BLOCK LINK ===
    0x17f9
    0x1805
=== CODE BLOCK END ===

=== CODE BLOCK ADDRESS 0x17f9 ===
  0x17f9	call   	0x2198
  === BLOCK LINK ===
    0x17fe
    0x2198
=== CODE BLOCK END ===

=== CODE BLOCK ADDRESS 0x17fe ===
  0x17fe	mov    	cl, bl
  0x1800	call   	0x2198
  === BLOCK LINK ===
    0x1805
    0x2198
=== CODE BLOCK END ===

=== CODE BLOCK ADDRESS 0x1805 ===
  0x1805	mov    	al, 1
  0x1807	dec    	eax
  0x1808	add    	esp, 0x20
  0x180b	pop    	ebx
  0x180c	ret    	
  === BLOCK LINK ===
    0x180d
=== CODE BLOCK END ===

=== CODE BLOCK ADDRESS 0x180d ===
  0x180d	int3   	
  0x180e	int3   	
  0x180f	int3   	
  0x1810	inc    	eax
  0x1811	push   	ebx
  === BLOCK LINK ===
    0x1812
=== CODE BLOCK END ===

=== CODE BLOCK ADDRESS 0x1812 ===
  0x1812	dec    	eax
  0x1813	sub    	esp, 0x20
  0x1816	dec    	eax
  0x1817	cmp    	dword ptr [0x8ed2], -1
  0x181e	dec    	eax
  === BLOCK LINK ===
    0x181f
=== CODE BLOCK END ===

=== CODE BLOCK ADDRESS 0x181f ===
  0x181f	mov    	ebx, ecx
  0x1821	jne    	0x182a
  === BLOCK LINK ===
    0x1823
=== CODE BLOCK END ===

=== CODE BLOCK ADDRESS 0x1823 ===
  0x1823	call   	0x2040
  === BLOCK LINK ===
    0x1828
=== CODE BLOCK END ===

=== CODE BLOCK ADDRESS 0x1828 ===
  0x1828	jmp    	0x1839
  === BLOCK LINK ===
    0x182a
=== CODE BLOCK END ===

=== CODE BLOCK ADDRESS 0x182a ===
  0x182a	dec    	eax
  0x182b	mov    	edx, ebx
  0x182d	dec    	eax
  0x182e	lea    	ecx, [0x8ebc]
  0x1834	call   	0x2076
  === BLOCK LINK ===
    0x1839
=== CODE BLOCK END ===

=== CODE BLOCK ADDRESS 0x1839 ===
  0x1839	xor    	edx, edx
  0x183b	test   	eax, eax
  0x183d	dec    	eax
  0x183e	cmove  	edx, ebx
  0x1841	dec    	eax
  === BLOCK LINK ===
    0x1842
=== CODE BLOCK END ===

=== CODE BLOCK ADDRESS 0x1842 ===
  0x1842	mov    	eax, edx
  0x1844	dec    	eax
  0x1845	add    	esp, 0x20
  0x1848	pop    	ebx
  0x1849	ret    	
  === BLOCK LINK ===
    0x184a
=== CODE BLOCK END ===

=== CODE BLOCK ADDRESS 0x1954 ===
  0x1954	mov    	eax, 1
  0x1959	ret    	
  0x195a	int3   	
  0x195b	int3   	
  0x195c	xor    	eax, eax
  === BLOCK LINK ===
    0x195e
=== CODE BLOCK END ===

=== CODE BLOCK ADDRESS 0x184a ===
  0x184a	int3   	
  0x184b	int3   	
  0x184c	dec    	eax
  0x184d	sub    	esp, 0x28
  0x1850	call   	0x1810
  === BLOCK LINK ===
    0x1855
=== CODE BLOCK END ===

=== CODE BLOCK ADDRESS 0x1855 ===
  0x1855	dec    	eax
  0x1856	neg    	eax
  0x1858	sbb    	eax, eax
  0x185a	neg    	eax
  0x185c	dec    	eax
  === BLOCK LINK ===
    0x185e
=== CODE BLOCK END ===

=== CODE BLOCK ADDRESS 0x185e ===
  0x185e	dec    	eax
  0x185f	add    	esp, 0x28
  0x1862	ret    	
  0x1863	int3   	
  0x1864	jmp    	0x1e70
  === BLOCK LINK ===
    0x1869
=== CODE BLOCK END ===

=== CODE BLOCK ADDRESS 0x203a ===
  0x203a	jmp    	dword ptr [0x53f8]
  === BLOCK LINK ===
    0x2040
=== CODE BLOCK END ===

=== CODE BLOCK ADDRESS 0x1869 ===
  0x1869	int3   	
  0x186a	int3   	
  0x186b	int3   	
  0x186c	int3   	
  0x186d	int3   	
  === BLOCK LINK ===
    0x186e
=== CODE BLOCK END ===

=== CODE BLOCK ADDRESS 0x186e ===
  0x186e	int3   	
  0x186f	int3   	
  0x1870	int3   	
  0x1871	int3   	
  0x1872	int3   	
  === BLOCK LINK ===
    0x1873
=== CODE BLOCK END ===

=== CODE BLOCK ADDRESS 0x1873 ===
  0x1873	int3   	
  0x1874	int3   	
  0x1875	int3   	
  0x1876	int3   	
  0x1877	int3   	
  === BLOCK LINK ===
    0x1878
=== CODE BLOCK END ===

=== CODE BLOCK ADDRESS 0x1878 ===
  0x1878	jno    	0x183b
  === BLOCK LINK ===
    0x187a
=== CODE BLOCK END ===

=== CODE BLOCK ADDRESS 0x187a ===
  0x187a	pop    	edx
  0x187b	cmp    	byte ptr [ebx], bl
  0x187d	pop    	eax
  0x187f	nop    	
  0x1880	inc    	eax
  === BLOCK LINK ===
    0x1881
=== CODE BLOCK END ===

=== CODE BLOCK ADDRESS 0x1881 ===
  0x1881	push   	ebx
  0x1882	dec    	eax
  0x1883	sub    	esp, 0x20
  0x1886	dec    	eax
  0x1887	lea    	eax, [0x578b]
  === BLOCK LINK ===
    0x188d
=== CODE BLOCK END ===

=== CODE BLOCK ADDRESS 0x188d ===
  0x188d	dec    	eax
  0x188e	mov    	ebx, ecx
  0x1890	dec    	eax
  0x1891	mov    	dword ptr [ecx], eax
  0x1893	test   	dl, 1
  === BLOCK LINK ===
    0x1896
=== CODE BLOCK END ===

=== CODE BLOCK ADDRESS 0x1896 ===
  0x1896	je     	0x189d
  === BLOCK LINK ===
    0x1898
=== CODE BLOCK END ===

=== CODE BLOCK ADDRESS 0x1898 ===
  0x1898	call   	0x1e70
  === BLOCK LINK ===
    0x189d
=== CODE BLOCK END ===

=== CODE BLOCK ADDRESS 0x189d ===
  0x189d	dec    	eax
  0x189e	mov    	eax, ebx
  0x18a0	dec    	eax
  0x18a1	add    	esp, 0x20
  0x18a4	pop    	ebx
  === BLOCK LINK ===
    0x18a5
=== CODE BLOCK END ===

=== CODE BLOCK ADDRESS 0x18a5 ===
  0x18a5	ret    	
  0x18a6	int3   	
  0x18a7	int3   	
  === BLOCK LINK ===
    0x18a8
=== CODE BLOCK END ===

=== CODE BLOCK ADDRESS 0x18ad ===
  0x18ad	push   	ebp
  0x18ae	dec    	eax
  0x18af	mov    	ebp, esp
  0x18b1	dec    	eax
  0x18b2	sub    	esp, 0x20
  === BLOCK LINK ===
    0x18b5
=== CODE BLOCK END ===

=== CODE BLOCK ADDRESS 0x18b5 ===
  0x18b5	dec    	eax
  0x18b6	mov    	eax, dword ptr [0x8824]
  0x18bc	dec    	eax
  0x18bd	mov    	ebx, 0x2ddfa232
  0x18c2	cdq    	
  === BLOCK LINK ===
    0x18c3
=== CODE BLOCK END ===

=== CODE BLOCK ADDRESS 0x18c3 ===
  0x18c3	sub    	eax, dword ptr [eax]
  0x18c5	add    	byte ptr [eax + 0x3b], cl
  0x18c8	ret    	
  0x18c9	jne    	0x193f
  === BLOCK LINK ===
    0x18cb
=== CODE BLOCK END ===

=== CODE BLOCK ADDRESS 0x1968 ===
=== CODE BLOCK END ===

=== CODE BLOCK ADDRESS 0x18cb ===
  0x18cb	dec    	eax
  0x18cc	and    	dword ptr [ebp + 0x18], 0
  0x18d0	dec    	eax
  0x18d1	lea    	ecx, [ebp + 0x18]
  0x18d4	call   	dword ptr [0x5af6]
  === BLOCK LINK ===
    0x18da
=== CODE BLOCK END ===

=== CODE BLOCK ADDRESS 0x18da ===
  0x18da	dec    	eax
  0x18db	mov    	eax, dword ptr [ebp + 0x18]
  0x18de	dec    	eax
  0x18df	mov    	dword ptr [ebp + 0x10], eax
  0x18e2	call   	dword ptr [0x5a38]
  === BLOCK LINK ===
    0x18e8
=== CODE BLOCK END ===

=== CODE BLOCK ADDRESS 0x18e8 ===
  0x18e8	mov    	eax, eax
  0x18ea	dec    	eax
  0x18eb	xor    	dword ptr [ebp + 0x10], eax
  0x18ee	call   	dword ptr [0x5a24]
  === BLOCK LINK ===
    0x18f4
=== CODE BLOCK END ===

=== CODE BLOCK ADDRESS 0x18f4 ===
  0x18f4	mov    	eax, eax
  0x18f6	dec    	eax
  0x18f7	lea    	ecx, [ebp + 0x20]
  0x18fa	dec    	eax
  0x18fb	xor    	dword ptr [ebp + 0x10], eax
  === BLOCK LINK ===
    0x18fe
=== CODE BLOCK END ===

=== CODE BLOCK ADDRESS 0x18fe ===
  0x18fe	call   	dword ptr [0x5a4c]
  === BLOCK LINK ===
    0x1904
=== CODE BLOCK END ===

=== CODE BLOCK ADDRESS 0x1904 ===
  0x1904	mov    	eax, dword ptr [ebp + 0x20]
  0x1907	dec    	eax
  0x1908	lea    	ecx, [ebp + 0x10]
  0x190b	dec    	eax
  0x190c	shl    	eax, 0x20
  === BLOCK LINK ===
    0x190f
=== CODE BLOCK END ===

=== CODE BLOCK ADDRESS 0x190f ===
  0x190f	dec    	eax
  0x1910	xor    	eax, dword ptr [ebp + 0x20]
  0x1913	dec    	eax
  0x1914	xor    	eax, dword ptr [ebp + 0x10]
  0x1917	dec    	eax
  === BLOCK LINK ===
    0x1918
=== CODE BLOCK END ===

=== CODE BLOCK ADDRESS 0x1918 ===
  0x1918	xor    	eax, ecx
  0x191a	dec    	eax
  0x191b	mov    	ecx, 0xffffffff
  0x1920	.byte  	0xff
  0x1921	inc    	dword ptr [eax]
  === BLOCK LINK ===
    0x1923
=== CODE BLOCK END ===

=== CODE BLOCK ADDRESS 0x1923 ===
  0x1923	add    	byte ptr [eax + 0x23], cl
  0x1926	ror    	dword ptr [eax - 0x47], 0x33
  0x192a	mov    	byte ptr [0x2b992ddf], al
  0x192f	add    	byte ptr [eax], al
  0x1931	dec    	eax
  === BLOCK LINK ===
    0x1932
=== CODE BLOCK END ===

=== CODE BLOCK ADDRESS 0x1932 ===
  0x1932	cmp    	eax, ebx
  0x1934	dec    	eax
  0x1935	cmove  	eax, ecx
  0x1938	dec    	eax
  0x1939	mov    	dword ptr [0x87a1], eax
  === BLOCK LINK ===
    0x193f
=== CODE BLOCK END ===

=== CODE BLOCK ADDRESS 0x193f ===
  0x193f	dec    	eax
  0x1940	mov    	ebx, dword ptr [esp + 0x48]
  0x1944	dec    	eax
  0x1945	not    	eax
  0x1947	dec    	eax
  === BLOCK LINK ===
    0x1948
=== CODE BLOCK END ===

=== CODE BLOCK ADDRESS 0x1948 ===
  0x1948	mov    	dword ptr [0x879a], eax
  0x194e	dec    	eax
  0x194f	add    	esp, 0x20
  0x1952	pop    	ebp
  0x1953	ret    	
  === BLOCK LINK ===
    0x1954
=== CODE BLOCK END ===

=== CODE BLOCK ADDRESS 0x197c ===
  0x197c	ret    	0
  0x197f	int3   	
  0x1980	dec    	eax
  0x1981	sub    	esp, 0x28
  0x1984	call   	0x1150
  === BLOCK LINK ===
    0x1989
=== CODE BLOCK END ===

=== CODE BLOCK ADDRESS 0x195e ===
  0x195e	ret    	
  0x195f	int3   	
  0x1960	mov    	eax, 0x4000
  0x1965	ret    	
  0x1966	int3   	
  === BLOCK LINK ===
    0x1967
=== CODE BLOCK END ===

=== CODE BLOCK ADDRESS 0x2034 ===
  0x2034	jmp    	dword ptr [0x53f6]
  === BLOCK LINK ===
    0x203a
=== CODE BLOCK END ===

=== CODE BLOCK ADDRESS 0x1967 ===
  0x1967	int3   	
  0x1968	dec    	eax
  0x1969	lea    	ecx, [0x8dd1]
  0x196f	dec    	eax
  0x1970	jmp    	dword ptr [0x595a]
  === BLOCK LINK ===
    0x1976
=== CODE BLOCK END ===

=== CODE BLOCK ADDRESS 0x1976 ===
  0x1976	int3   	
  0x1977	int3   	
  0x1978	mov    	al, 1
  0x197a	ret    	
  0x197b	int3   	
  === BLOCK LINK ===
    0x197c
=== CODE BLOCK END ===

=== CODE BLOCK ADDRESS 0x1978 ===
=== CODE BLOCK END ===

=== CODE BLOCK ADDRESS 0x1989 ===
  0x1989	dec    	eax
  0x198a	or     	dword ptr [eax], 0x24
  0x198d	call   	0x1158
  === BLOCK LINK ===
    0x1992
=== CODE BLOCK END ===

=== CODE BLOCK ADDRESS 0x1992 ===
  0x1992	dec    	eax
  0x1993	or     	dword ptr [eax], 2
  0x1996	dec    	eax
  0x1997	add    	esp, 0x28
  0x199a	ret    	
  === BLOCK LINK ===
    0x199b
=== CODE BLOCK END ===

=== CODE BLOCK ADDRESS 0x2058 ===
  0x2058	jmp    	dword ptr [0x540a]
  === BLOCK LINK ===
    0x205e
=== CODE BLOCK END ===

=== CODE BLOCK ADDRESS 0x199b ===
  0x199b	int3   	
  === BLOCK LINK ===
    0x199c
=== CODE BLOCK END ===

=== CODE BLOCK ADDRESS 0x19a5 ===
  0x19a5	lea    	eax, [0x8f15]
  0x19ab	ret    	
  0x19ac	and    	dword ptr [0x8d9d], 0
  0x19b3	ret    	
  0x19b4	dec    	eax
  === BLOCK LINK ===
    0x19b5
=== CODE BLOCK END ===

=== CODE BLOCK ADDRESS 0x1b00 ===
=== CODE BLOCK END ===

=== CODE BLOCK ADDRESS 0x19b5 ===
  0x19b5	mov    	dword ptr [esp + 8], ebx
  0x19b9	push   	ebp
  0x19ba	dec    	eax
  0x19bb	lea    	ebp, [esp - 0x4c0]
  0x19c2	dec    	eax
  === BLOCK LINK ===
    0x19c3
=== CODE BLOCK END ===

=== CODE BLOCK ADDRESS 0x19c3 ===
  0x19c3	sub    	esp, 0x5c0
  0x19c9	mov    	ebx, ecx
  0x19cb	mov    	ecx, 0x17
  0x19d0	call   	dword ptr [0x596a]
  === BLOCK LINK ===
    0x19d6
=== CODE BLOCK END ===

=== CODE BLOCK ADDRESS 0x19d6 ===
  0x19d6	test   	eax, eax
  0x19d8	je     	0x19de
  === BLOCK LINK ===
    0x19da
=== CODE BLOCK END ===

=== CODE BLOCK ADDRESS 0x19da ===
  0x19da	mov    	ecx, ebx
  0x19dc	int    	0x29
  0x19de	mov    	ecx, 3
  0x19e3	call   	0x19ac
  === BLOCK LINK ===
    0x19e8
=== CODE BLOCK END ===

=== CODE BLOCK ADDRESS 0x19e8 ===
  0x19e8	xor    	edx, edx
  0x19ea	dec    	eax
  0x19eb	lea    	ecx, [ebp - 0x10]
  0x19ee	inc    	ecx
  0x19ef	mov    	eax, 0x4d0
  === BLOCK LINK ===
    0x19f4
=== CODE BLOCK END ===

=== CODE BLOCK ADDRESS 0x19f4 ===
  0x19f4	call   	0x20be
  === BLOCK LINK ===
    0x19f9
=== CODE BLOCK END ===

=== CODE BLOCK ADDRESS 0x19f9 ===
  0x19f9	dec    	eax
  0x19fa	lea    	ecx, [ebp - 0x10]
  0x19fd	call   	dword ptr [0x5965]
  === BLOCK LINK ===
    0x1a03
=== CODE BLOCK END ===

=== CODE BLOCK ADDRESS 0x1a03 ===
  0x1a03	dec    	eax
  0x1a04	mov    	ebx, dword ptr [ebp + 0xe8]
  0x1a0a	dec    	eax
  0x1a0b	lea    	edx, [ebp + 0x4d8]
  0x1a11	dec    	eax
  === BLOCK LINK ===
    0x1a12
=== CODE BLOCK END ===

=== CODE BLOCK ADDRESS 0x1a12 ===
  0x1a12	mov    	ecx, ebx
  0x1a14	inc    	ebp
  0x1a15	xor    	eax, eax
  0x1a17	call   	dword ptr [0x5953]
  === BLOCK LINK ===
    0x1a1d
=== CODE BLOCK END ===

=== CODE BLOCK ADDRESS 0x1a1d ===
  0x1a1d	dec    	eax
  0x1a1e	test   	eax, eax
  0x1a20	je     	0x1a5e
  === BLOCK LINK ===
    0x1a22
=== CODE BLOCK END ===

=== CODE BLOCK ADDRESS 0x1a22 ===
  0x1a22	dec    	eax
  0x1a23	and    	dword ptr [esp + 0x38], 0
  0x1a28	dec    	eax
  0x1a29	lea    	ecx, [ebp + 0x4e0]
  0x1a2f	dec    	eax
  === BLOCK LINK ===
    0x1a30
=== CODE BLOCK END ===

=== CODE BLOCK ADDRESS 0x1a30 ===
  0x1a30	mov    	edx, dword ptr [ebp + 0x4d8]
  0x1a36	dec    	esp
  0x1a37	mov    	ecx, eax
  0x1a39	dec    	eax
  0x1a3a	mov    	dword ptr [esp + 0x30], ecx
  === BLOCK LINK ===
    0x1a3e
=== CODE BLOCK END ===

=== CODE BLOCK ADDRESS 0x1a3e ===
  0x1a3e	dec    	esp
  0x1a3f	mov    	eax, ebx
  0x1a41	dec    	eax
  0x1a42	lea    	ecx, [ebp + 0x4e8]
  0x1a48	dec    	eax
  === BLOCK LINK ===
    0x1a49
=== CODE BLOCK END ===

=== CODE BLOCK ADDRESS 0x1a49 ===
  0x1a49	mov    	dword ptr [esp + 0x28], ecx
  0x1a4d	dec    	eax
  0x1a4e	lea    	ecx, [ebp - 0x10]
  0x1a51	dec    	eax
  0x1a52	mov    	dword ptr [esp + 0x20], ecx
  === BLOCK LINK ===
    0x1a56
=== CODE BLOCK END ===

=== CODE BLOCK ADDRESS 0x1a56 ===
  0x1a56	xor    	ecx, ecx
  0x1a58	call   	dword ptr [0x5902]
  === BLOCK LINK ===
    0x1a5e
=== CODE BLOCK END ===

=== CODE BLOCK ADDRESS 0x1a5e ===
  0x1a5e	dec    	eax
  0x1a5f	mov    	eax, dword ptr [ebp + 0x4c8]
  0x1a65	dec    	eax
  0x1a66	lea    	ecx, [esp + 0x50]
  0x1a6a	dec    	eax
  === BLOCK LINK ===
    0x1a6b
=== CODE BLOCK END ===

=== CODE BLOCK ADDRESS 0x1a6b ===
  0x1a6b	mov    	dword ptr [ebp + 0xe8], eax
  0x1a71	xor    	edx, edx
  0x1a73	dec    	eax
  0x1a74	lea    	eax, [ebp + 0x4c8]
  0x1a7a	inc    	ecx
  === BLOCK LINK ===
    0x1a7b
=== CODE BLOCK END ===

=== CODE BLOCK ADDRESS 0x1a7b ===
  0x1a7b	mov    	eax, 0x98
  0x1a80	dec    	eax
  0x1a81	add    	eax, 8
  0x1a84	dec    	eax
  0x1a85	mov    	dword ptr [ebp + 0x88], eax
  === BLOCK LINK ===
    0x1a8b
=== CODE BLOCK END ===

=== CODE BLOCK ADDRESS 0x1a8b ===
  0x1a8b	call   	0x20be
  === BLOCK LINK ===
    0x1a90
=== CODE BLOCK END ===

=== CODE BLOCK ADDRESS 0x1a90 ===
  0x1a90	dec    	eax
  0x1a91	mov    	eax, dword ptr [ebp + 0x4c8]
  0x1a97	dec    	eax
  0x1a98	mov    	dword ptr [esp + 0x60], eax
  0x1a9c	mov    	dword ptr [esp + 0x50], 0x40000015
  === BLOCK LINK ===
    0x1aa4
=== CODE BLOCK END ===

=== CODE BLOCK ADDRESS 0x1aa4 ===
  0x1aa4	mov    	dword ptr [esp + 0x54], 1
  0x1aac	call   	dword ptr [0x57a6]
  === BLOCK LINK ===
    0x1ab2
=== CODE BLOCK END ===

=== CODE BLOCK ADDRESS 0x1ab2 ===
  0x1ab2	cmp    	eax, 1
  0x1ab5	dec    	eax
  0x1ab6	lea    	eax, [esp + 0x50]
  0x1aba	dec    	eax
  0x1abb	mov    	dword ptr [esp + 0x40], eax
  === BLOCK LINK ===
    0x1abf
=== CODE BLOCK END ===

=== CODE BLOCK ADDRESS 0x1abf ===
  0x1abf	dec    	eax
  0x1ac0	lea    	eax, [ebp - 0x10]
  0x1ac3	sete   	bl
  0x1ac6	dec    	eax
  0x1ac7	mov    	dword ptr [esp + 0x48], eax
  === BLOCK LINK ===
    0x1acb
=== CODE BLOCK END ===

=== CODE BLOCK ADDRESS 0x1acb ===
  0x1acb	xor    	ecx, ecx
  0x1acd	call   	dword ptr [0x579d]
  === BLOCK LINK ===
    0x1ad3
=== CODE BLOCK END ===

=== CODE BLOCK ADDRESS 0x1ad3 ===
  0x1ad3	dec    	eax
  0x1ad4	lea    	ecx, [esp + 0x40]
  0x1ad8	call   	dword ptr [0x579a]
  === BLOCK LINK ===
    0x1ade
=== CODE BLOCK END ===

=== CODE BLOCK ADDRESS 0x1ade ===
  0x1ade	test   	eax, eax
  0x1ae0	jne    	0x1aee
  === BLOCK LINK ===
    0x1ae2
=== CODE BLOCK END ===

=== CODE BLOCK ADDRESS 0x1ae2 ===
  0x1ae2	test   	bl, bl
  0x1ae4	jne    	0x1aee
  === BLOCK LINK ===
    0x1ae6
=== CODE BLOCK END ===

=== CODE BLOCK ADDRESS 0x1ae6 ===
  0x1ae6	lea    	ecx, [eax + 3]
  0x1ae9	call   	0x19ac
  === BLOCK LINK ===
    0x1aee
=== CODE BLOCK END ===

=== CODE BLOCK ADDRESS 0x1aee ===
  0x1aee	dec    	eax
  0x1aef	mov    	ebx, dword ptr [esp + 0x5d0]
  0x1af6	dec    	eax
  0x1af7	add    	esp, 0x5c0
  0x1afd	pop    	ebp
  === BLOCK LINK ===
    0x1afe
=== CODE BLOCK END ===

=== CODE BLOCK ADDRESS 0x1afe ===
  0x1afe	ret    	
  0x1aff	int3   	
  0x1b00	jmp    	0x195c
  === BLOCK LINK ===
    0x1b05
=== CODE BLOCK END ===

=== CODE BLOCK ADDRESS 0x19b4 ===
=== CODE BLOCK END ===

=== CODE BLOCK ADDRESS 0x1b05 ===
  0x1b05	int3   	
  0x1b06	int3   	
  0x1b07	int3   	
  === BLOCK LINK ===
    0x1b08
=== CODE BLOCK END ===

=== CODE BLOCK ADDRESS 0x1b0c ===
  0x1b0c	xor    	ecx, ecx
  0x1b0e	call   	dword ptr [0x57d4]
  === BLOCK LINK ===
    0x1b14
=== CODE BLOCK END ===

=== CODE BLOCK ADDRESS 0x1b14 ===
  0x1b14	dec    	eax
  0x1b15	test   	eax, eax
  0x1b17	je     	0x1b52
  === BLOCK LINK ===
    0x1b19
=== CODE BLOCK END ===

=== CODE BLOCK ADDRESS 0x1b19 ===
  0x1b19	mov    	ecx, 0x5a4d
  0x1b1e	cmp    	word ptr [eax], cx
  0x1b21	jne    	0x1b52
  === BLOCK LINK ===
    0x1b23
=== CODE BLOCK END ===

=== CODE BLOCK ADDRESS 0x1b23 ===
  0x1b23	dec    	eax
  0x1b24	arpl   	word ptr [eax + 0x3c], cx
  0x1b27	dec    	eax
  0x1b28	add    	ecx, eax
  0x1b2a	cmp    	dword ptr [ecx], 0x4550
  === BLOCK LINK ===
    0x1b30
=== CODE BLOCK END ===

=== CODE BLOCK ADDRESS 0x1b30 ===
  0x1b30	jne    	0x1b52
  === BLOCK LINK ===
    0x1b32
=== CODE BLOCK END ===

=== CODE BLOCK ADDRESS 0x1b32 ===
  0x1b32	mov    	eax, 0x20b
  0x1b37	cmp    	word ptr [ecx + 0x18], ax
  0x1b3b	jne    	0x1b52
  === BLOCK LINK ===
    0x1b3d
=== CODE BLOCK END ===

=== CODE BLOCK ADDRESS 0x1b3d ===
  0x1b3d	cmp    	dword ptr [ecx + 0x84], 0xe
  0x1b44	jbe    	0x1b52
  === BLOCK LINK ===
    0x1b46
=== CODE BLOCK END ===

=== CODE BLOCK ADDRESS 0x1b46 ===
  0x1b46	cmp    	dword ptr [ecx + 0xf8], 0
  0x1b4d	setne  	al
  0x1b50	jmp    	0x1b54
  === BLOCK LINK ===
    0x1b52
=== CODE BLOCK END ===

=== CODE BLOCK ADDRESS 0x1b52 ===
  0x1b52	xor    	al, al
  0x1b54	dec    	eax
  0x1b55	add    	esp, 0x28
  0x1b58	ret    	
  0x1b59	int3   	
  === BLOCK LINK ===
    0x1b5a
=== CODE BLOCK END ===

=== CODE BLOCK ADDRESS 0x127a ===
=== CODE BLOCK END ===

=== CODE BLOCK ADDRESS 0x1b5a ===
  0x1b5a	int3   	
  0x1b5b	int3   	
  0x1b5c	dec    	eax
  0x1b5d	lea    	ecx, [0x1d]
  0x1b63	dec    	eax
  === BLOCK LINK ===
    0x1b64
=== CODE BLOCK END ===

=== CODE BLOCK ADDRESS 0x1b64 ===
  0x1b64	jmp    	dword ptr [0x5706]
  === BLOCK LINK ===
    0x1b6a
=== CODE BLOCK END ===

=== CODE BLOCK ADDRESS 0x1b6a ===
  0x1b6a	int3   	
  0x1b6b	int3   	
  0x1b6c	int3   	
  0x1b6d	int3   	
  0x1b6e	int3   	
  === BLOCK LINK ===
    0x1b6f
=== CODE BLOCK END ===

=== CODE BLOCK ADDRESS 0x1b6f ===
  0x1b6f	int3   	
  0x1b70	int3   	
  0x1b71	int3   	
  0x1b72	int3   	
  0x1b73	int3   	
  === BLOCK LINK ===
    0x1b74
=== CODE BLOCK END ===

=== CODE BLOCK ADDRESS 0x1b74 ===
  0x1b74	int3   	
  0x1b75	int3   	
  0x1b76	int3   	
  0x1b77	int3   	
  0x1b78	jno    	0x1b0d
  === BLOCK LINK ===
    0x1b7a
=== CODE BLOCK END ===

=== CODE BLOCK ADDRESS 0x1b7a ===
  0x1b7a	rcl    	dword ptr [edx], cl
  0x1b7c	sar    	dword ptr [edi], 0xc1
  0x1b7f	jecxz  	0x1bc9
  === BLOCK LINK ===
    0x1b81
=== CODE BLOCK END ===

=== CODE BLOCK ADDRESS 0x1b81 ===
  0x1b81	mov    	dword ptr [esp + 8], ebx
  0x1b85	push   	edi
  0x1b86	dec    	eax
  0x1b87	sub    	esp, 0x20
  0x1b8a	dec    	eax
  === BLOCK LINK ===
    0x1b8b
=== CODE BLOCK END ===

=== CODE BLOCK ADDRESS 0x1b8b ===
  0x1b8b	mov    	ebx, dword ptr [ecx]
  0x1b8d	dec    	eax
  0x1b8e	mov    	edi, ecx
  0x1b90	cmp    	dword ptr [ebx], 0xe06d7363
  0x1b96	jne    	0x1bb4
  === BLOCK LINK ===
    0x1b98
=== CODE BLOCK END ===

=== CODE BLOCK ADDRESS 0x1b98 ===
  0x1b98	cmp    	dword ptr [ebx + 0x18], 4
  0x1b9c	jne    	0x1bb4
  === BLOCK LINK ===
    0x1b9e
=== CODE BLOCK END ===

=== CODE BLOCK ADDRESS 0x1b9e ===
  0x1b9e	mov    	edx, dword ptr [ebx + 0x20]
  0x1ba1	lea    	eax, [edx - 0x19930520]
  0x1ba7	cmp    	eax, 2
  0x1baa	jbe    	0x1bc1
  === BLOCK LINK ===
    0x1bac
=== CODE BLOCK END ===

=== CODE BLOCK ADDRESS 0x1bac ===
  0x1bac	cmp    	edx, 0x1994000
  0x1bb2	je     	0x1bc1
  === BLOCK LINK ===
    0x1bb4
=== CODE BLOCK END ===

=== CODE BLOCK ADDRESS 0x1bb4 ===
  0x1bb4	dec    	eax
  0x1bb5	mov    	ebx, dword ptr [esp + 0x30]
  0x1bb9	xor    	eax, eax
  0x1bbb	dec    	eax
  0x1bbc	add    	esp, 0x20
  === BLOCK LINK ===
    0x1bbf
=== CODE BLOCK END ===

=== CODE BLOCK ADDRESS 0x1bbf ===
  0x1bbf	pop    	edi
  0x1bc0	ret    	
  0x1bc1	call   	0x20b2
  === BLOCK LINK ===
    0x1bc6
=== CODE BLOCK END ===

=== CODE BLOCK ADDRESS 0x12b2 ===
  0x12b5	call   	0x1614
  === BLOCK LINK ===
    0x12ba
=== CODE BLOCK END ===

=== CODE BLOCK ADDRESS 0x1bc6 ===
  0x1bc6	dec    	eax
  0x1bc7	mov    	dword ptr [eax], ebx
  0x1bc9	dec    	eax
  0x1bca	mov    	ebx, dword ptr [edi + 8]
  0x1bcd	call   	0x20b8
  === BLOCK LINK ===
    0x1bd2
=== CODE BLOCK END ===

=== CODE BLOCK ADDRESS 0x1bd2 ===
  0x1bd2	dec    	eax
  0x1bd3	mov    	dword ptr [eax], ebx
  0x1bd5	call   	0x20a6
  === BLOCK LINK ===
    0x1bda
=== CODE BLOCK END ===

=== CODE BLOCK ADDRESS 0x1bda ===
  0x1bda	int3   	
  0x1bdb	int3   	
  0x1bdc	dec    	eax
  0x1bdd	mov    	dword ptr [esp + 8], ebx
  0x1be1	push   	edi
  === BLOCK LINK ===
    0x1be2
=== CODE BLOCK END ===

=== CODE BLOCK ADDRESS 0x1be2 ===
  0x1be2	dec    	eax
  0x1be3	sub    	esp, 0x20
  0x1be6	dec    	eax
  0x1be7	lea    	ebx, [0x6b03]
  0x1bed	dec    	eax
  === BLOCK LINK ===
    0x1bee
=== CODE BLOCK END ===

=== CODE BLOCK ADDRESS 0x1bee ===
  0x1bee	lea    	edi, [0x6afc]
  0x1bf4	jmp    	0x1c12
  === BLOCK LINK ===
    0x1bf6
=== CODE BLOCK END ===

=== CODE BLOCK ADDRESS 0x1bf6 ===
  0x1bf6	dec    	eax
  0x1bf7	mov    	eax, dword ptr [ebx]
  0x1bf9	dec    	eax
  0x1bfa	test   	eax, eax
  0x1bfc	je     	0x1c0e
  === BLOCK LINK ===
    0x1bfe
=== CODE BLOCK END ===

=== CODE BLOCK ADDRESS 0x1bfe ===
  0x1bfe	dec    	ecx
  0x1bff	mov    	edx, 0x56da4870
  0x1c04	xchg   	eax, esi
  0x1c05	int1   	
  0x1c07	test   	edi, edi
  === BLOCK LINK ===
    0x1c09
=== CODE BLOCK END ===

=== CODE BLOCK ADDRESS 0x1c09 ===
  0x1c09	adc    	eax, 0x5982
  0x1c0e	dec    	eax
  0x1c0f	add    	ebx, 8
  0x1c12	dec    	eax
  0x1c13	cmp    	ebx, edi
  === BLOCK LINK ===
    0x1c15
=== CODE BLOCK END ===

=== CODE BLOCK ADDRESS 0x1c15 ===
  0x1c15	jb     	0x1bf6
  === BLOCK LINK ===
    0x1c17
=== CODE BLOCK END ===

=== CODE BLOCK ADDRESS 0x1c17 ===
  0x1c17	dec    	eax
  0x1c18	mov    	ebx, dword ptr [esp + 0x30]
  0x1c1c	dec    	eax
  0x1c1d	add    	esp, 0x20
  0x1c20	pop    	edi
  === BLOCK LINK ===
    0x1c21
=== CODE BLOCK END ===

=== CODE BLOCK ADDRESS 0x1c21 ===
  0x1c21	ret    	
  0x1c22	int3   	
  0x1c23	int3   	
  0x1c24	int3   	
  0x1c25	int3   	
  === BLOCK LINK ===
    0x1c26
=== CODE BLOCK END ===

=== CODE BLOCK ADDRESS 0x127f ===
  0x1280	dec    	eax
  0x1281	add    	esp, 0x28
  0x1284	jmp    	0x208e
  === BLOCK LINK ===
    0x1289
=== CODE BLOCK END ===

=== CODE BLOCK ADDRESS 0x1c26 ===
  0x1c26	int3   	
  0x1c27	int3   	
  0x1c28	jno    	0x1c72
  === BLOCK LINK ===
    0x1c2a
=== CODE BLOCK END ===

=== CODE BLOCK ADDRESS 0x1c2a ===
  0x1c2a	ficom  	dword ptr [esi - 0x6a]
  0x1c2d	int1   	
  0x1c2f	test   	dword ptr [eax - 0x77], ecx
  0x1c32	pop    	esp
  0x1c33	and    	al, 8
  === BLOCK LINK ===
    0x1c35
=== CODE BLOCK END ===

=== CODE BLOCK ADDRESS 0x1c35 ===
  0x1c35	push   	edi
  0x1c36	dec    	eax
  0x1c37	sub    	esp, 0x20
  0x1c3a	dec    	eax
  0x1c3b	lea    	ebx, [0x6abf]
  === BLOCK LINK ===
    0x1c41
=== CODE BLOCK END ===

=== CODE BLOCK ADDRESS 0x1c41 ===
  0x1c41	dec    	eax
  0x1c42	lea    	edi, [0x6ab8]
  0x1c48	jmp    	0x1c66
  === BLOCK LINK ===
    0x1c4a
=== CODE BLOCK END ===

=== CODE BLOCK ADDRESS 0x1c4a ===
  0x1c4a	dec    	eax
  0x1c4b	mov    	eax, dword ptr [ebx]
  0x1c4d	dec    	eax
  0x1c4e	test   	eax, eax
  0x1c50	je     	0x1c62
  === BLOCK LINK ===
    0x1c52
=== CODE BLOCK END ===

=== CODE BLOCK ADDRESS 0x1c52 ===
  0x1c52	dec    	ecx
  0x1c53	mov    	edx, 0x56da4870
  0x1c58	xchg   	eax, esi
  0x1c59	int1   	
  0x1c5b	test   	edi, edi
  === BLOCK LINK ===
    0x1c5d
=== CODE BLOCK END ===

=== CODE BLOCK ADDRESS 0x1c5d ===
  0x1c5d	adc    	eax, 0x592e
  0x1c62	dec    	eax
  0x1c63	add    	ebx, 8
  0x1c66	dec    	eax
  0x1c67	cmp    	ebx, edi
  === BLOCK LINK ===
    0x1c69
=== CODE BLOCK END ===

=== CODE BLOCK ADDRESS 0x1c69 ===
  0x1c69	jb     	0x1c4a
  === BLOCK LINK ===
    0x1c6b
=== CODE BLOCK END ===

=== CODE BLOCK ADDRESS 0x1c6b ===
  0x1c6b	dec    	eax
  0x1c6c	mov    	ebx, dword ptr [esp + 0x30]
  0x1c70	dec    	eax
  0x1c71	add    	esp, 0x20
  0x1c74	pop    	edi
  === BLOCK LINK ===
    0x1c75
=== CODE BLOCK END ===

=== CODE BLOCK ADDRESS 0x1c75 ===
  0x1c75	ret    	
  0x1c76	int3   	
  0x1c77	int3   	
  0x1c78	jno    	0x1c44
  === BLOCK LINK ===
    0x1c7a
=== CODE BLOCK END ===

=== CODE BLOCK ADDRESS 0x1c7a ===
  0x1c7a	ficomp  	dword ptr [edx]
  0x1c7c	mov    	dh, 0x17
  0x1c7e	mov    	eax, 0xc299
  0x1c83	int3   	
  0x1c84	inc    	eax
  === BLOCK LINK ===
    0x1c85
=== CODE BLOCK END ===

=== CODE BLOCK ADDRESS 0x1c85 ===
  0x1c85	push   	ebx
  0x1c86	dec    	eax
  0x1c87	sub    	esp, 0x20
  0x1c8a	dec    	eax
  0x1c8b	mov    	ebx, ecx
  === BLOCK LINK ===
    0x1c8d
=== CODE BLOCK END ===

=== CODE BLOCK ADDRESS 0x1c8d ===
  0x1c8d	jmp    	0x1c9e
  === BLOCK LINK ===
    0x1c8f
=== CODE BLOCK END ===

=== CODE BLOCK ADDRESS 0x1c8f ===
  0x1c8f	dec    	eax
  0x1c90	mov    	ecx, ebx
  0x1c92	call   	0x2028
  === BLOCK LINK ===
    0x1c97
=== CODE BLOCK END ===

=== CODE BLOCK ADDRESS 0x1c97 ===
  0x1c97	test   	eax, eax
  0x1c99	je     	0x1cae
  === BLOCK LINK ===
    0x1c9b
=== CODE BLOCK END ===

=== CODE BLOCK ADDRESS 0x1c9b ===
  0x1c9b	dec    	eax
  0x1c9c	mov    	ecx, ebx
  0x1c9e	call   	0x20a0
  === BLOCK LINK ===
    0x1ca3
=== CODE BLOCK END ===

=== CODE BLOCK ADDRESS 0x1ca3 ===
  0x1ca3	dec    	eax
  0x1ca4	test   	eax, eax
  0x1ca6	je     	0x1c8f
  === BLOCK LINK ===
    0x1ca8
=== CODE BLOCK END ===

=== CODE BLOCK ADDRESS 0x1ca8 ===
  0x1ca8	dec    	eax
  0x1ca9	add    	esp, 0x20
  0x1cac	pop    	ebx
  0x1cad	ret    	
  0x1cae	dec    	eax
  === BLOCK LINK ===
    0x1caf
=== CODE BLOCK END ===

=== CODE BLOCK ADDRESS 0x208e ===
  0x208e	jmp    	dword ptr [0x540c]
  === BLOCK LINK ===
    0x2094
=== CODE BLOCK END ===

=== CODE BLOCK ADDRESS 0x1caf ===
  0x1caf	cmp    	ebx, -1
  0x1cb2	je     	0x1cba
  === BLOCK LINK ===
    0x1cb4
=== CODE BLOCK END ===

=== CODE BLOCK ADDRESS 0x1cb4 ===
  0x1cb4	call   	0x1fa0
  === BLOCK LINK ===
    0x1cb9
=== CODE BLOCK END ===

=== CODE BLOCK ADDRESS 0x1cb9 ===
  0x1cb9	int3   	
  0x1cba	call   	0x1fc0
  === BLOCK LINK ===
    0x1cbf
=== CODE BLOCK END ===

=== CODE BLOCK ADDRESS 0x1cbf ===
  0x1cbf	int3   	
  === BLOCK LINK ===
    0x1cc0
=== CODE BLOCK END ===

=== CODE BLOCK ADDRESS 0x1cca ===
  0x1cca	push   	edi
  0x1ccb	dec    	eax
  0x1ccc	sub    	esp, 0x10
  0x1ccf	xor    	eax, eax
  0x1cd1	xor    	ecx, ecx
  === BLOCK LINK ===
    0x1cd3
=== CODE BLOCK END ===

=== CODE BLOCK ADDRESS 0x1cd3 ===
  0x1cd3	cpuid  	
  0x1cd5	inc    	esp
  0x1cd6	mov    	eax, ecx
  0x1cd8	inc    	ebp
  0x1cd9	xor    	ebx, ebx
  === BLOCK LINK ===
    0x1cdb
=== CODE BLOCK END ===

=== CODE BLOCK ADDRESS 0x1cdb ===
  0x1cdb	inc    	esp
  0x1cdc	mov    	edx, edx
  0x1cde	inc    	ecx
  0x1cdf	xor    	eax, 0x6c65746e
  0x1ce5	inc    	ecx
  === BLOCK LINK ===
    0x1ce6
=== CODE BLOCK END ===

=== CODE BLOCK ADDRESS 0x1ce6 ===
  0x1ce6	xor    	edx, 0x49656e69
  0x1cec	inc    	esp
  0x1ced	mov    	ecx, ebx
  0x1cef	mov    	esi, eax
  0x1cf1	xor    	ecx, ecx
  === BLOCK LINK ===
    0x1cf3
=== CODE BLOCK END ===

=== CODE BLOCK ADDRESS 0x1cf3 ===
  0x1cf3	inc    	ecx
  0x1cf4	lea    	eax, [ebx + 1]
  0x1cf7	inc    	ebp
  0x1cf8	or     	edx, eax
  0x1cfa	cpuid  	
  === BLOCK LINK ===
    0x1cfc
=== CODE BLOCK END ===

=== CODE BLOCK ADDRESS 0x1cfc ===
  0x1cfc	inc    	ecx
  0x1cfd	xor    	ecx, 0x756e6547
  0x1d03	mov    	dword ptr [esp], eax
  0x1d06	inc    	ebp
  0x1d07	or     	edx, ecx
  === BLOCK LINK ===
    0x1d09
=== CODE BLOCK END ===

=== CODE BLOCK ADDRESS 0x1d09 ===
  0x1d09	mov    	dword ptr [esp + 4], ebx
  0x1d0d	mov    	edi, ecx
  0x1d0f	mov    	dword ptr [esp + 8], ecx
  0x1d13	mov    	dword ptr [esp + 0xc], edx
  0x1d17	jne    	0x1d69
  === BLOCK LINK ===
    0x1d19
=== CODE BLOCK END ===

=== CODE BLOCK ADDRESS 0x1d19 ===
  0x1d19	dec    	eax
  0x1d1a	or     	dword ptr [0x83d7], 0xffffffff
  0x1d21	and    	eax, 0xfff3ff0
  0x1d26	cmp    	eax, 0x106c0
  0x1d2b	je     	0x1d55
  === BLOCK LINK ===
    0x1d2d
=== CODE BLOCK END ===

=== CODE BLOCK ADDRESS 0x1d2d ===
  0x1d2d	cmp    	eax, 0x20660
  0x1d32	je     	0x1d55
  === BLOCK LINK ===
    0x1d34
=== CODE BLOCK END ===

=== CODE BLOCK ADDRESS 0x1d34 ===
  0x1d34	cmp    	eax, 0x20670
  0x1d39	je     	0x1d55
  === BLOCK LINK ===
    0x1d3b
=== CODE BLOCK END ===

=== CODE BLOCK ADDRESS 0x1d3b ===
  0x1d3b	add    	eax, 0xfffcf9b0
  0x1d40	cmp    	eax, 0x20
  0x1d43	ja     	0x1d69
  === BLOCK LINK ===
    0x1d45
=== CODE BLOCK END ===

=== CODE BLOCK ADDRESS 0x1d45 ===
  0x1d45	dec    	eax
  0x1d46	mov    	ecx, 0x10001
  0x1d4b	add    	dword ptr [eax], eax
  0x1d4d	add    	byte ptr [eax], al
  0x1d4f	dec    	eax
  === BLOCK LINK ===
    0x1d50
=== CODE BLOCK END ===

=== CODE BLOCK ADDRESS 0x1d50 ===
  0x1d50	bt     	ecx, eax
  0x1d53	jae    	0x1d69
  === BLOCK LINK ===
    0x1d55
=== CODE BLOCK END ===

=== CODE BLOCK ADDRESS 0x1d55 ===
  0x1d55	inc    	esp
  0x1d56	mov    	eax, dword ptr [0x89f8]
  0x1d5c	inc    	ecx
  0x1d5d	or     	eax, 1
  0x1d60	inc    	esp
  === BLOCK LINK ===
    0x1d61
=== CODE BLOCK END ===

=== CODE BLOCK ADDRESS 0x1d61 ===
  0x1d61	mov    	dword ptr [0x89ed], eax
  0x1d67	jmp    	0x1d70
  === BLOCK LINK ===
    0x1d69
=== CODE BLOCK END ===

=== CODE BLOCK ADDRESS 0x1d69 ===
  0x1d69	inc    	esp
  0x1d6a	mov    	eax, dword ptr [0x89e4]
  0x1d70	mov    	eax, 7
  0x1d75	inc    	esp
  0x1d76	lea    	ecx, [eax - 5]
  === BLOCK LINK ===
    0x1d79
=== CODE BLOCK END ===

=== CODE BLOCK ADDRESS 0x1d79 ===
  0x1d79	cmp    	esi, eax
  0x1d7b	jl     	0x1da3
  === BLOCK LINK ===
    0x1d7d
=== CODE BLOCK END ===

=== CODE BLOCK ADDRESS 0x1d7d ===
  0x1d7d	xor    	ecx, ecx
  0x1d7f	cpuid  	
  0x1d81	mov    	dword ptr [esp], eax
  0x1d84	inc    	esp
  0x1d85	mov    	ebx, ebx
  === BLOCK LINK ===
    0x1d87
=== CODE BLOCK END ===

=== CODE BLOCK ADDRESS 0x1d87 ===
  0x1d87	mov    	dword ptr [esp + 4], ebx
  0x1d8b	mov    	dword ptr [esp + 8], ecx
  0x1d8f	mov    	dword ptr [esp + 0xc], edx
  0x1d93	bt     	ebx, 9
  0x1d97	jae    	0x1da3
  === BLOCK LINK ===
    0x1d99
=== CODE BLOCK END ===

=== CODE BLOCK ADDRESS 0x1d99 ===
  0x1d99	inc    	ebp
  0x1d9a	or     	eax, ecx
  0x1d9c	inc    	esp
  0x1d9d	mov    	dword ptr [0x89b1], eax
  0x1da3	mov    	dword ptr [0x8343], 1
  === BLOCK LINK ===
    0x1dad
=== CODE BLOCK END ===

=== CODE BLOCK ADDRESS 0x1dad ===
  0x1dad	inc    	esp
  0x1dae	mov    	dword ptr [0x8340], ecx
  0x1db4	bt     	edi, 0x14
  0x1db8	jae    	0x1e4f
  === BLOCK LINK ===
    0x1dbe
=== CODE BLOCK END ===

=== CODE BLOCK ADDRESS 0x1dbe ===
  0x1dbe	inc    	esp
  0x1dbf	mov    	dword ptr [0x832b], ecx
  0x1dc5	mov    	ebx, 6
  0x1dca	mov    	dword ptr [0x8324], ebx
  0x1dd0	bt     	edi, 0x1b
  === BLOCK LINK ===
    0x1dd4
=== CODE BLOCK END ===

=== CODE BLOCK ADDRESS 0x1dd4 ===
  0x1dd4	jae    	0x1e4f
  === BLOCK LINK ===
    0x1dd6
=== CODE BLOCK END ===

=== CODE BLOCK ADDRESS 0x1dd6 ===
  0x1dd6	bt     	edi, 0x1c
  0x1dda	jae    	0x1e4f
  === BLOCK LINK ===
    0x1ddc
=== CODE BLOCK END ===

=== CODE BLOCK ADDRESS 0x1ddc ===
  0x1ddc	xor    	ecx, ecx
  0x1dde	xgetbv  	
  0x1de1	dec    	eax
  0x1de2	shl    	edx, 0x20
  0x1de5	dec    	eax
  === BLOCK LINK ===
    0x1de6
=== CODE BLOCK END ===

=== CODE BLOCK ADDRESS 0x1de6 ===
  0x1de6	or     	edx, eax
  0x1de8	dec    	eax
  0x1de9	mov    	dword ptr [esp + 0x20], edx
  0x1ded	dec    	eax
  0x1dee	mov    	eax, dword ptr [esp + 0x20]
  === BLOCK LINK ===
    0x1df2
=== CODE BLOCK END ===

=== CODE BLOCK ADDRESS 0x1df2 ===
  0x1df2	and    	al, bl
  0x1df4	cmp    	al, bl
  0x1df6	jne    	0x1e4f
  === BLOCK LINK ===
    0x1df8
=== CODE BLOCK END ===

=== CODE BLOCK ADDRESS 0x1df8 ===
  0x1df8	mov    	eax, dword ptr [0x82f6]
  0x1dfe	or     	eax, 8
  0x1e01	mov    	dword ptr [0x82e5], 3
  0x1e0b	mov    	dword ptr [0x82e3], eax
  0x1e11	inc    	ecx
  === BLOCK LINK ===
    0x1e12
=== CODE BLOCK END ===

=== CODE BLOCK ADDRESS 0x1e12 ===
  0x1e12	test   	bl, 0x20
  0x1e15	je     	0x1e4f
  === BLOCK LINK ===
    0x1e17
=== CODE BLOCK END ===

=== CODE BLOCK ADDRESS 0x1e17 ===
  0x1e17	or     	eax, 0x20
  0x1e1a	mov    	dword ptr [0x82cc], 5
  0x1e24	mov    	dword ptr [0x82ca], eax
  0x1e2a	mov    	eax, 0xd0030000
  0x1e2f	inc    	esp
  === BLOCK LINK ===
    0x1e30
=== CODE BLOCK END ===

=== CODE BLOCK ADDRESS 0x1e30 ===
  0x1e30	and    	ebx, eax
  0x1e32	inc    	esp
  0x1e33	cmp    	ebx, eax
  0x1e35	jne    	0x1e4f
  === BLOCK LINK ===
    0x1e37
=== CODE BLOCK END ===

=== CODE BLOCK ADDRESS 0x1e37 ===
  0x1e37	dec    	eax
  0x1e38	mov    	eax, dword ptr [esp + 0x20]
  0x1e3c	and    	al, 0xe0
  0x1e3e	cmp    	al, 0xe0
  0x1e40	jne    	0x1e4f
  === BLOCK LINK ===
    0x1e42
=== CODE BLOCK END ===

=== CODE BLOCK ADDRESS 0x1e42 ===
  0x1e42	or     	dword ptr [0x82ab], 0x40
  0x1e49	mov    	dword ptr [0x82a1], ebx
  0x1e4f	dec    	eax
  0x1e50	mov    	ebx, dword ptr [esp + 0x28]
  0x1e54	xor    	eax, eax
  === BLOCK LINK ===
    0x1e56
=== CODE BLOCK END ===

=== CODE BLOCK ADDRESS 0x1e56 ===
  0x1e56	dec    	eax
  0x1e57	mov    	esi, dword ptr [esp + 0x30]
  0x1e5b	dec    	eax
  0x1e5c	add    	esp, 0x10
  0x1e5f	pop    	edi
  === BLOCK LINK ===
    0x1e60
=== CODE BLOCK END ===

=== CODE BLOCK ADDRESS 0x1e60 ===
  0x1e60	ret    	
  0x1e61	int3   	
  0x1e62	int3   	
  0x1e63	int3   	
  0x1e64	xor    	eax, eax
  === BLOCK LINK ===
    0x1e66
=== CODE BLOCK END ===

=== CODE BLOCK ADDRESS 0x1650 ===
  0x1650	inc    	eax
  0x1651	push   	ebx
  === BLOCK LINK ===
    0x1652
=== CODE BLOCK END ===

=== CODE BLOCK ADDRESS 0x1e66 ===
  0x1e66	cmp    	dword ptr [0x8294], eax
  0x1e6c	setne  	al
  0x1e6f	ret    	
  0x1e70	jmp    	0x209a
  === BLOCK LINK ===
    0x1e75
=== CODE BLOCK END ===

=== CODE BLOCK ADDRESS 0x13ed ===
=== CODE BLOCK END ===

=== CODE BLOCK ADDRESS 0x1e75 ===
  0x1e75	int3   	
  0x1e76	int3   	
  0x1e77	int3   	
  0x1e78	int3   	
  0x1e79	int3   	
  === BLOCK LINK ===
    0x1e7a
=== CODE BLOCK END ===

=== CODE BLOCK ADDRESS 0x1e7a ===
  0x1e7a	int3   	
  0x1e7b	int3   	
  0x1e7c	int3   	
  0x1e7d	int3   	
  0x1e7e	int3   	
  === BLOCK LINK ===
    0x1e7f
=== CODE BLOCK END ===

=== CODE BLOCK ADDRESS 0x1e7f ===
  0x1e7f	int3   	
  0x1e80	inc    	eax
  0x1e81	push   	ebx
  0x1e82	dec    	eax
  0x1e83	sub    	esp, 0x20
  === BLOCK LINK ===
    0x1e86
=== CODE BLOCK END ===

=== CODE BLOCK ADDRESS 0x1e86 ===
  0x1e86	dec    	eax
  0x1e87	mov    	ebx, ecx
  0x1e89	dec    	eax
  0x1e8a	mov    	eax, edx
  0x1e8c	dec    	eax
  === BLOCK LINK ===
    0x1e8d
=== CODE BLOCK END ===

=== CODE BLOCK ADDRESS 0x1e8d ===
  0x1e8d	lea    	ecx, [0x5195]
  0x1e93	xorps  	xmm0, xmm0
  0x1e96	dec    	eax
  0x1e97	mov    	dword ptr [ebx], ecx
  0x1e99	dec    	eax
  === BLOCK LINK ===
    0x1e9a
=== CODE BLOCK END ===

=== CODE BLOCK ADDRESS 0x1e9a ===
  0x1e9a	lea    	edx, [ebx + 8]
  0x1e9d	dec    	eax
  0x1e9e	lea    	ecx, [eax + 8]
  0x1ea1	movups  	xmmword ptr [edx], xmm0
  0x1ea4	call   	0x2010
  === BLOCK LINK ===
    0x1ea9
=== CODE BLOCK END ===

=== CODE BLOCK ADDRESS 0x1ea9 ===
  0x1ea9	dec    	eax
  0x1eaa	lea    	eax, [0x5190]
  0x1eb0	dec    	eax
  0x1eb1	mov    	dword ptr [ebx], eax
  0x1eb3	dec    	eax
  === BLOCK LINK ===
    0x1eb4
=== CODE BLOCK END ===

=== CODE BLOCK ADDRESS 0x1eb4 ===
  0x1eb4	mov    	eax, ebx
  0x1eb6	dec    	eax
  0x1eb7	add    	esp, 0x20
  0x1eba	pop    	ebx
  0x1ebb	ret    	
  === BLOCK LINK ===
    0x1ebc
=== CODE BLOCK END ===

=== CODE BLOCK ADDRESS 0x1ebc ===
  0x1ebc	dec    	eax
  0x1ebd	and    	dword ptr [ecx + 0x10], 0
  0x1ec1	dec    	eax
  0x1ec2	lea    	eax, [0x5898]
  0x1ec8	dec    	eax
  === BLOCK LINK ===
    0x1ec9
=== CODE BLOCK END ===

=== CODE BLOCK ADDRESS 0x1ec9 ===
  0x1ec9	mov    	dword ptr [ecx + 8], eax
  0x1ecc	dec    	eax
  0x1ecd	lea    	eax, [0x516d]
  0x1ed3	dec    	eax
  0x1ed4	mov    	dword ptr [ecx], eax
  === BLOCK LINK ===
    0x1ed6
=== CODE BLOCK END ===

=== CODE BLOCK ADDRESS 0x1ed6 ===
  0x1ed6	dec    	eax
  0x1ed7	mov    	eax, ecx
  0x1ed9	ret    	
  0x1eda	int3   	
  0x1edb	int3   	
  === BLOCK LINK ===
    0x1edc
=== CODE BLOCK END ===

=== CODE BLOCK ADDRESS 0x13f8 ===
  0x13f8	mov    	ecx, 7
  0x13fd	call   	0x19b4
  === BLOCK LINK ===
    0x1402
=== CODE BLOCK END ===

=== CODE BLOCK ADDRESS 0x1edc ===
  0x1edc	inc    	eax
  0x1edd	push   	ebx
  0x1ede	dec    	eax
  0x1edf	sub    	esp, 0x20
  0x1ee2	dec    	eax
  === BLOCK LINK ===
    0x1ee3
=== CODE BLOCK END ===

=== CODE BLOCK ADDRESS 0x1ee3 ===
  0x1ee3	mov    	ebx, ecx
  0x1ee5	dec    	eax
  0x1ee6	mov    	eax, edx
  0x1ee8	dec    	eax
  0x1ee9	lea    	ecx, [0x5139]
  === BLOCK LINK ===
    0x1eef
=== CODE BLOCK END ===

=== CODE BLOCK ADDRESS 0x1eef ===
  0x1eef	xorps  	xmm0, xmm0
  0x1ef2	dec    	eax
  0x1ef3	mov    	dword ptr [ebx], ecx
  0x1ef5	dec    	eax
  0x1ef6	lea    	edx, [ebx + 8]
  === BLOCK LINK ===
    0x1ef9
=== CODE BLOCK END ===

=== CODE BLOCK ADDRESS 0x1ef9 ===
  0x1ef9	dec    	eax
  0x1efa	lea    	ecx, [eax + 8]
  0x1efd	movups  	xmmword ptr [edx], xmm0
  0x1f00	call   	0x2010
  === BLOCK LINK ===
    0x1f05
=== CODE BLOCK END ===

=== CODE BLOCK ADDRESS 0x1f05 ===
  0x1f05	dec    	eax
  0x1f06	lea    	eax, [0x514c]
  0x1f0c	dec    	eax
  0x1f0d	mov    	dword ptr [ebx], eax
  0x1f0f	dec    	eax
  === BLOCK LINK ===
    0x1f10
=== CODE BLOCK END ===

=== CODE BLOCK ADDRESS 0x1f10 ===
  0x1f10	mov    	eax, ebx
  0x1f12	dec    	eax
  0x1f13	add    	esp, 0x20
  0x1f16	pop    	ebx
  0x1f17	ret    	
  === BLOCK LINK ===
    0x1f18
=== CODE BLOCK END ===

=== CODE BLOCK ADDRESS 0x1f18 ===
  0x1f18	dec    	eax
  0x1f19	and    	dword ptr [ecx + 0x10], 0
  0x1f1d	dec    	eax
  0x1f1e	lea    	eax, [0x584c]
  0x1f24	dec    	eax
  === BLOCK LINK ===
    0x1f25
=== CODE BLOCK END ===

=== CODE BLOCK ADDRESS 0x1f25 ===
  0x1f25	mov    	dword ptr [ecx + 8], eax
  0x1f28	dec    	eax
  0x1f29	lea    	eax, [0x5129]
  0x1f2f	dec    	eax
  0x1f30	mov    	dword ptr [ecx], eax
  === BLOCK LINK ===
    0x1f32
=== CODE BLOCK END ===

=== CODE BLOCK ADDRESS 0x1f32 ===
  0x1f32	dec    	eax
  0x1f33	mov    	eax, ecx
  0x1f35	ret    	
  0x1f36	int3   	
  0x1f37	int3   	
  === BLOCK LINK ===
    0x1f38
=== CODE BLOCK END ===

=== CODE BLOCK ADDRESS 0x1fe6 ===
  0x1fe6	jmp    	dword ptr [0x5554]
  === BLOCK LINK ===
    0x1fec
=== CODE BLOCK END ===

=== CODE BLOCK ADDRESS 0x1f38 ===
  0x1f38	dec    	eax
  0x1f39	lea    	eax, [0x50e9]
  0x1f3f	dec    	eax
  0x1f40	mov    	dword ptr [ecx], eax
  0x1f42	dec    	eax
  === BLOCK LINK ===
    0x1f43
=== CODE BLOCK END ===

=== CODE BLOCK ADDRESS 0x1f43 ===
  0x1f43	add    	ecx, 8
  0x1f46	jmp    	0x2016
  === BLOCK LINK ===
    0x1f4b
=== CODE BLOCK END ===

=== CODE BLOCK ADDRESS 0x1f4b ===
  0x1f4b	int3   	
  0x1f4c	int3   	
  0x1f4d	int3   	
  0x1f4e	int3   	
  0x1f4f	int3   	
  === BLOCK LINK ===
    0x1f50
=== CODE BLOCK END ===

=== CODE BLOCK ADDRESS 0x1f50 ===
  0x1f50	int3   	
  0x1f51	int3   	
  0x1f52	int3   	
  0x1f53	int3   	
  0x1f54	int3   	
  === BLOCK LINK ===
    0x1f55
=== CODE BLOCK END ===

=== CODE BLOCK ADDRESS 0x1f55 ===
  0x1f55	int3   	
  0x1f56	int3   	
  0x1f57	int3   	
  0x1f58	jno    	0x1ef4
  === BLOCK LINK ===
    0x1f5a
=== CODE BLOCK END ===

=== CODE BLOCK ADDRESS 0x1f5a ===
  0x1f5a	pop    	ebp
  0x1f5b	adc    	byte ptr [ebx + 0x26], cl
  0x1f5e	cmp    	ch, ch
  0x1f60	dec    	eax
  0x1f61	mov    	dword ptr [esp + 8], ebx
  === BLOCK LINK ===
    0x1f65
=== CODE BLOCK END ===

=== CODE BLOCK ADDRESS 0x1f65 ===
  0x1f65	push   	edi
  0x1f66	dec    	eax
  0x1f67	sub    	esp, 0x20
  0x1f6a	dec    	eax
  0x1f6b	lea    	eax, [0x50b7]
  === BLOCK LINK ===
    0x1f71
=== CODE BLOCK END ===

=== CODE BLOCK ADDRESS 0x1f71 ===
  0x1f71	dec    	eax
  0x1f72	mov    	edi, ecx
  0x1f74	dec    	eax
  0x1f75	mov    	dword ptr [ecx], eax
  0x1f77	mov    	ebx, edx
  === BLOCK LINK ===
    0x1f79
=== CODE BLOCK END ===

=== CODE BLOCK ADDRESS 0x1f79 ===
  0x1f79	dec    	eax
  0x1f7a	add    	ecx, 8
  0x1f7d	call   	0x2016
  === BLOCK LINK ===
    0x1f82
=== CODE BLOCK END ===

=== CODE BLOCK ADDRESS 0x1f82 ===
  0x1f82	test   	bl, 1
  0x1f85	je     	0x1f8f
  === BLOCK LINK ===
    0x1f87
=== CODE BLOCK END ===

=== CODE BLOCK ADDRESS 0x1f87 ===
  0x1f87	dec    	eax
  0x1f88	mov    	ecx, edi
  0x1f8a	call   	0x1e70
  === BLOCK LINK ===
    0x1f8f
=== CODE BLOCK END ===

=== CODE BLOCK ADDRESS 0x1f8f ===
  0x1f8f	dec    	eax
  0x1f90	mov    	ebx, dword ptr [esp + 0x30]
  0x1f94	dec    	eax
  0x1f95	mov    	eax, edi
  0x1f97	dec    	eax
  === BLOCK LINK ===
    0x1f98
=== CODE BLOCK END ===

=== CODE BLOCK ADDRESS 0x1f98 ===
  0x1f98	add    	esp, 0x20
  0x1f9b	pop    	edi
  0x1f9c	ret    	
  0x1f9d	int3   	
  0x1f9e	int3   	
  === BLOCK LINK ===
    0x1f9f
=== CODE BLOCK END ===

=== CODE BLOCK ADDRESS 0x1f9f ===
  0x1f9f	int3   	
  0x1fa0	dec    	eax
  0x1fa1	sub    	esp, 0x48
  0x1fa4	dec    	eax
  0x1fa5	lea    	ecx, [esp + 0x20]
  === BLOCK LINK ===
    0x1fa9
=== CODE BLOCK END ===

=== CODE BLOCK ADDRESS 0x1fa9 ===
  0x1fa9	call   	0x1ebc
  === BLOCK LINK ===
    0x1fae
=== CODE BLOCK END ===

=== CODE BLOCK ADDRESS 0x1fae ===
  0x1fae	dec    	eax
  0x1faf	lea    	edx, [0x6fc3]
  0x1fb5	dec    	eax
  0x1fb6	lea    	ecx, [esp + 0x20]
  0x1fba	call   	0x20c4
  === BLOCK LINK ===
    0x1fbf
=== CODE BLOCK END ===

=== CODE BLOCK ADDRESS 0x1fbf ===
  0x1fbf	int3   	
  0x1fc0	dec    	eax
  0x1fc1	sub    	esp, 0x48
  0x1fc4	dec    	eax
  0x1fc5	lea    	ecx, [esp + 0x20]
  === BLOCK LINK ===
    0x1fc9
=== CODE BLOCK END ===

=== CODE BLOCK ADDRESS 0x1fc9 ===
  0x1fc9	call   	0x1f18
  === BLOCK LINK ===
    0x1fce
=== CODE BLOCK END ===

=== CODE BLOCK ADDRESS 0x1fce ===
  0x1fce	dec    	eax
  0x1fcf	lea    	edx, [0x7003]
  0x1fd5	dec    	eax
  0x1fd6	lea    	ecx, [esp + 0x20]
  0x1fda	call   	0x20c4
  === BLOCK LINK ===
    0x1fdf
=== CODE BLOCK END ===

=== CODE BLOCK ADDRESS 0x1fdf ===
  0x1fdf	int3   	
  0x1fe0	jmp    	dword ptr [0x556a]
  === BLOCK LINK ===
    0x1fe6
=== CODE BLOCK END ===

=== CODE BLOCK ADDRESS 0x1fec ===
  0x1fec	jmp    	dword ptr [0x5556]
  === BLOCK LINK ===
    0x1ff2
=== CODE BLOCK END ===

=== CODE BLOCK ADDRESS 0x1ff2 ===
  0x1ff2	jmp    	dword ptr [0x5560]
  === BLOCK LINK ===
    0x1ff8
=== CODE BLOCK END ===

=== CODE BLOCK ADDRESS 0x1ff8 ===
  0x1ff8	jmp    	dword ptr [0x5532]
  === BLOCK LINK ===
    0x1ffe
=== CODE BLOCK END ===

=== CODE BLOCK ADDRESS 0x1ffe ===
  0x1ffe	jmp    	dword ptr [0x5524]
  === BLOCK LINK ===
    0x2004
=== CODE BLOCK END ===

=== CODE BLOCK ADDRESS 0x2004 ===
  0x2004	jmp    	dword ptr [0x5516]
  === BLOCK LINK ===
    0x200a
=== CODE BLOCK END ===

=== CODE BLOCK ADDRESS 0x2010 ===
  0x2010	jmp    	dword ptr [0x54fa]
  === BLOCK LINK ===
    0x2016
=== CODE BLOCK END ===

=== CODE BLOCK ADDRESS 0x2016 ===
  0x2016	jmp    	dword ptr [0x54ec]
  === BLOCK LINK ===
    0x201c
=== CODE BLOCK END ===

=== CODE BLOCK ADDRESS 0x201c ===
  0x201c	jmp    	dword ptr [0x54de]
  === BLOCK LINK ===
    0x2022
=== CODE BLOCK END ===

=== CODE BLOCK ADDRESS 0x2022 ===
  0x2022	jmp    	dword ptr [0x54d0]
  === BLOCK LINK ===
    0x2028
=== CODE BLOCK END ===

=== CODE BLOCK ADDRESS 0x2028 ===
  0x2028	jmp    	dword ptr [0x53f2]
  === BLOCK LINK ===
    0x202e
=== CODE BLOCK END ===

=== CODE BLOCK ADDRESS 0x202e ===
  0x202e	jmp    	dword ptr [0x53f4]
  === BLOCK LINK ===
    0x2034
=== CODE BLOCK END ===

=== CODE BLOCK ADDRESS 0x2040 ===
  0x2040	jmp    	dword ptr [0x53fa]
  === BLOCK LINK ===
    0x2046
=== CODE BLOCK END ===

=== CODE BLOCK ADDRESS 0x2046 ===
  0x2046	jmp    	dword ptr [0x5404]
  === BLOCK LINK ===
    0x204c
=== CODE BLOCK END ===

=== CODE BLOCK ADDRESS 0x204c ===
  0x204c	jmp    	dword ptr [0x5406]
  === BLOCK LINK ===
    0x2052
=== CODE BLOCK END ===

=== CODE BLOCK ADDRESS 0x2052 ===
  0x2052	jmp    	dword ptr [0x5408]
  === BLOCK LINK ===
    0x2058
=== CODE BLOCK END ===

=== CODE BLOCK ADDRESS 0x205e ===
  0x205e	jmp    	dword ptr [0x540c]
  === BLOCK LINK ===
    0x2064
=== CODE BLOCK END ===

=== CODE BLOCK ADDRESS 0x2064 ===
  0x2064	int3   	
  0x2065	int3   	
  0x2066	int3   	
  0x2067	int3   	
  0x2068	int3   	
  === BLOCK LINK ===
    0x2069
=== CODE BLOCK END ===

=== CODE BLOCK ADDRESS 0x2069 ===
  0x2069	int3   	
  0x206a	int3   	
  0x206b	int3   	
  0x206c	int3   	
  0x206d	int3   	
  === BLOCK LINK ===
    0x206e
=== CODE BLOCK END ===

=== CODE BLOCK ADDRESS 0x206e ===
  0x206e	int3   	
  0x206f	int3   	
  0x2070	jmp    	dword ptr [0x5402]
  === BLOCK LINK ===
    0x2076
=== CODE BLOCK END ===

=== CODE BLOCK ADDRESS 0x2076 ===
  0x2076	jmp    	dword ptr [0x5404]
  === BLOCK LINK ===
    0x207c
=== CODE BLOCK END ===

=== CODE BLOCK ADDRESS 0x207c ===
  0x207c	jmp    	dword ptr [0x5406]
  === BLOCK LINK ===
    0x2082
=== CODE BLOCK END ===

=== CODE BLOCK ADDRESS 0x2094 ===
  0x2094	jmp    	dword ptr [0x541e]
  === BLOCK LINK ===
    0x209a
=== CODE BLOCK END ===

=== CODE BLOCK ADDRESS 0x209a ===
  0x209a	jmp    	dword ptr [0x5420]
  === BLOCK LINK ===
    0x20a0
=== CODE BLOCK END ===

=== CODE BLOCK ADDRESS 0x20a0 ===
  0x20a0	jmp    	dword ptr [0x5422]
  === BLOCK LINK ===
    0x20a6
=== CODE BLOCK END ===

=== CODE BLOCK ADDRESS 0x20a6 ===
  0x20a6	jmp    	dword ptr [0x5424]
  === BLOCK LINK ===
    0x20ac
=== CODE BLOCK END ===

=== CODE BLOCK ADDRESS 0x20ac ===
  0x20ac	jmp    	dword ptr [0x5426]
  === BLOCK LINK ===
    0x20b2
=== CODE BLOCK END ===

=== CODE BLOCK ADDRESS 0x20b2 ===
  0x20b2	jmp    	dword ptr [0x5428]
  === BLOCK LINK ===
    0x20b8
=== CODE BLOCK END ===

=== CODE BLOCK ADDRESS 0x20b8 ===
  0x20b8	jmp    	dword ptr [0x542a]
  === BLOCK LINK ===
    0x20be
=== CODE BLOCK END ===

=== CODE BLOCK ADDRESS 0x20be ===
  0x20be	jmp    	dword ptr [0x54a4]
  === BLOCK LINK ===
    0x20c4
=== CODE BLOCK END ===

=== CODE BLOCK ADDRESS 0x20c4 ===
  0x20c4	jmp    	dword ptr [0x5426]
  === BLOCK LINK ===
    0x20ca
=== CODE BLOCK END ===

=== CODE BLOCK ADDRESS 0x20ca ===
  0x20ca	int3   	
  0x20cb	int3   	
  0x20cc	dec    	eax
  0x20cd	mov    	dword ptr [esp + 8], ebx
  0x20d1	dec    	eax
  === BLOCK LINK ===
    0x20d2
=== CODE BLOCK END ===

=== CODE BLOCK ADDRESS 0x20d2 ===
  0x20d2	mov    	dword ptr [esp + 0x10], ebp
  0x20d6	dec    	eax
  0x20d7	mov    	dword ptr [esp + 0x18], esi
  0x20db	push   	edi
  0x20dc	dec    	eax
  === BLOCK LINK ===
    0x20dd
=== CODE BLOCK END ===

=== CODE BLOCK ADDRESS 0x20dd ===
  0x20dd	sub    	esp, 0x30
  0x20e0	dec    	ecx
  0x20e1	mov    	ebx, ecx
  0x20e3	dec    	ecx
  0x20e4	mov    	edi, eax
  === BLOCK LINK ===
    0x20e6
=== CODE BLOCK END ===

=== CODE BLOCK ADDRESS 0x20e6 ===
  0x20e6	dec    	eax
  0x20e7	mov    	esi, edx
  0x20e9	dec    	eax
  0x20ea	mov    	ebp, ecx
  0x20ec	call   	0x1150
  === BLOCK LINK ===
    0x20f1
=== CODE BLOCK END ===

=== CODE BLOCK ADDRESS 0x20f1 ===
  0x20f1	dec    	eax
  0x20f2	mov    	dword ptr [esp + 0x28], ebx
  0x20f6	dec    	esp
  0x20f7	mov    	ecx, edi
  0x20f9	dec    	eax
  === BLOCK LINK ===
    0x20fa
=== CODE BLOCK END ===

=== CODE BLOCK ADDRESS 0x20fa ===
  0x20fa	and    	dword ptr [esp + 0x20], 0
  0x20ff	dec    	esp
  0x2100	mov    	eax, esi
  0x2102	dec    	eax
  0x2103	mov    	edx, ebp
  === BLOCK LINK ===
    0x2105
=== CODE BLOCK END ===

=== CODE BLOCK ADDRESS 0x2105 ===
  0x2105	dec    	eax
  0x2106	mov    	ecx, dword ptr [eax]
  0x2108	dec    	eax
  0x2109	or     	ecx, 1
  0x210c	call   	0x2022
  === BLOCK LINK ===
    0x2111
=== CODE BLOCK END ===

=== CODE BLOCK ADDRESS 0x2111 ===
  0x2111	dec    	eax
  0x2112	mov    	ebx, dword ptr [esp + 0x40]
  0x2116	or     	ecx, 0xffffffff
  0x2119	dec    	eax
  0x211a	mov    	ebp, dword ptr [esp + 0x48]
  === BLOCK LINK ===
    0x211e
=== CODE BLOCK END ===

=== CODE BLOCK ADDRESS 0x211e ===
  0x211e	test   	eax, eax
  0x2120	dec    	eax
  0x2121	mov    	esi, dword ptr [esp + 0x50]
  0x2125	cmovs  	eax, ecx
  0x2128	dec    	eax
  === BLOCK LINK ===
    0x2129
=== CODE BLOCK END ===

=== CODE BLOCK ADDRESS 0x2129 ===
  0x2129	add    	esp, 0x30
  0x212c	pop    	edi
  0x212d	ret    	
  0x212e	int3   	
  0x212f	int3   	
  === BLOCK LINK ===
    0x2130
=== CODE BLOCK END ===

=== CODE BLOCK ADDRESS 0x13dd ===
  0x13dd	dec    	eax
  0x13de	mov    	ebx, dword ptr [esp + 0x40]
  0x13e2	dec    	eax
  0x13e3	mov    	esi, dword ptr [esp + 0x48]
  === BLOCK LINK ===
    0x13e7
=== CODE BLOCK END ===

=== CODE BLOCK ADDRESS 0x2130 ===
  0x2130	dec    	eax
  0x2131	mov    	dword ptr [esp + 8], ebx
  0x2135	dec    	eax
  0x2136	mov    	dword ptr [esp + 0x10], ebp
  0x213a	dec    	eax
  === BLOCK LINK ===
    0x213b
=== CODE BLOCK END ===

=== CODE BLOCK ADDRESS 0x213b ===
  0x213b	mov    	dword ptr [esp + 0x18], esi
  0x213f	push   	edi
  0x2140	dec    	eax
  0x2141	sub    	esp, 0x40
  0x2144	dec    	ecx
  === BLOCK LINK ===
    0x2145
=== CODE BLOCK END ===

=== CODE BLOCK ADDRESS 0x2145 ===
  0x2145	mov    	ebx, ecx
  0x2147	dec    	ecx
  0x2148	mov    	edi, eax
  0x214a	dec    	eax
  0x214b	mov    	esi, edx
  === BLOCK LINK ===
    0x214d
=== CODE BLOCK END ===

=== CODE BLOCK ADDRESS 0x214d ===
  0x214d	dec    	eax
  0x214e	mov    	ebp, ecx
  0x2150	call   	0x1150
  === BLOCK LINK ===
    0x2155
=== CODE BLOCK END ===

=== CODE BLOCK ADDRESS 0x2155 ===
  0x2155	dec    	esp
  0x2156	mov    	edx, dword ptr [esp + 0x70]
  0x215a	dec    	esp
  0x215b	mov    	ecx, edi
  0x215d	dec    	esp
  === BLOCK LINK ===
    0x215e
=== CODE BLOCK END ===

=== CODE BLOCK ADDRESS 0x215e ===
  0x215e	mov    	dword ptr [esp + 0x30], edx
  0x2162	dec    	esp
  0x2163	mov    	eax, esi
  0x2165	dec    	eax
  0x2166	and    	dword ptr [esp + 0x28], 0
  === BLOCK LINK ===
    0x216b
=== CODE BLOCK END ===

=== CODE BLOCK ADDRESS 0x216b ===
  0x216b	dec    	eax
  0x216c	mov    	edx, ebp
  0x216e	dec    	eax
  0x216f	mov    	ecx, dword ptr [eax]
  0x2171	dec    	eax
  === BLOCK LINK ===
    0x2172
=== CODE BLOCK END ===

=== CODE BLOCK ADDRESS 0x2172 ===
  0x2172	mov    	dword ptr [esp + 0x20], ebx
  0x2176	call   	0x201c
  === BLOCK LINK ===
    0x217b
=== CODE BLOCK END ===

=== CODE BLOCK ADDRESS 0x217b ===
  0x217b	dec    	eax
  0x217c	mov    	ebx, dword ptr [esp + 0x50]
  0x2180	or     	ecx, 0xffffffff
  0x2183	dec    	eax
  0x2184	mov    	ebp, dword ptr [esp + 0x58]
  === BLOCK LINK ===
    0x2188
=== CODE BLOCK END ===

=== CODE BLOCK ADDRESS 0x2188 ===
  0x2188	test   	eax, eax
  0x218a	dec    	eax
  0x218b	mov    	esi, dword ptr [esp + 0x60]
  0x218f	cmovs  	eax, ecx
  0x2192	dec    	eax
  === BLOCK LINK ===
    0x2193
=== CODE BLOCK END ===

=== CODE BLOCK ADDRESS 0x2193 ===
  0x2193	add    	esp, 0x40
  0x2196	pop    	edi
  0x2197	ret    	
  === BLOCK LINK ===
    0x2198
=== CODE BLOCK END ===

=== CODE BLOCK ADDRESS 0x1fe0 ===
=== CODE BLOCK END ===

=== CODE BLOCK ADDRESS 0x1321 ===
=== CODE BLOCK END ===

=== CODE BLOCK ADDRESS 0x219b ===
  0x219b	int3   	
  0x219c	jmp    	0x2730
  === BLOCK LINK ===
    0x21a1
=== CODE BLOCK END ===

=== CODE BLOCK ADDRESS 0x21a1 ===
  0x21a1	int3   	
  0x21a2	int3   	
  0x21a3	int3   	
  0x21a4	dec    	esp
  0x21a5	mov    	ebx, esp
  === BLOCK LINK ===
    0x21a7
=== CODE BLOCK END ===

=== CODE BLOCK ADDRESS 0x21a7 ===
  0x21a7	dec    	eax
  0x21a8	sub    	esp, 0x58
  0x21ab	dec    	ecx
  0x21ac	and    	dword ptr [ebx - 0x20], 0
  0x21b0	dec    	eax
  === BLOCK LINK ===
    0x21b1
=== CODE BLOCK END ===

=== CODE BLOCK ADDRESS 0x21b1 ===
  0x21b1	mov    	eax, dword ptr [esp + 0x90]
  0x21b8	dec    	ecx
  0x21b9	mov    	dword ptr [ebx - 0x28], eax
  0x21bc	dec    	eax
  0x21bd	mov    	eax, dword ptr [esp + 0x88]
  === BLOCK LINK ===
    0x21c4
=== CODE BLOCK END ===

=== CODE BLOCK ADDRESS 0x21c4 ===
  0x21c4	dec    	ecx
  0x21c5	mov    	dword ptr [ebx - 0x30], eax
  0x21c8	dec    	eax
  0x21c9	mov    	eax, dword ptr [esp + 0x80]
  0x21d0	dec    	ecx
  === BLOCK LINK ===
    0x21d1
=== CODE BLOCK END ===

=== CODE BLOCK ADDRESS 0x21d1 ===
  0x21d1	mov    	dword ptr [ebx - 0x38], eax
  0x21d4	call   	0x2a1c
  === BLOCK LINK ===
    0x21d9
=== CODE BLOCK END ===

=== CODE BLOCK ADDRESS 0x21d9 ===
  0x21d9	dec    	eax
  0x21da	add    	esp, 0x58
  0x21dd	ret    	
  0x21de	int3   	
  0x21df	int3   	
  === BLOCK LINK ===
    0x21e0
=== CODE BLOCK END ===

=== CODE BLOCK ADDRESS 0x17c0 ===
=== CODE BLOCK END ===

=== CODE BLOCK ADDRESS 0x21e0 ===
  0x21e0	dec    	eax
  0x21e1	sub    	esp, 0x58
  0x21e4	dec    	eax
  0x21e5	mov    	eax, dword ptr [esp + 0x90]
  0x21ec	dec    	eax
  === BLOCK LINK ===
    0x21ed
=== CODE BLOCK END ===

=== CODE BLOCK ADDRESS 0x21ed ===
  0x21ed	mov    	dword ptr [esp + 0x30], eax
  0x21f1	dec    	eax
  0x21f2	mov    	eax, dword ptr [esp + 0x88]
  0x21f9	dec    	eax
  0x21fa	mov    	dword ptr [esp + 0x28], eax
  === BLOCK LINK ===
    0x21fe
=== CODE BLOCK END ===

=== CODE BLOCK ADDRESS 0x21fe ===
  0x21fe	call   	0x2460
  === BLOCK LINK ===
    0x2203
=== CODE BLOCK END ===

=== CODE BLOCK ADDRESS 0x2203 ===
  0x2203	int3   	
  0x2204	dec    	eax
  0x2205	mov    	dword ptr [esp + 8], ebx
  0x2209	dec    	eax
  0x220a	mov    	dword ptr [esp + 0x10], esi
  === BLOCK LINK ===
    0x220e
=== CODE BLOCK END ===

=== CODE BLOCK ADDRESS 0x220e ===
  0x220e	push   	edi
  0x220f	dec    	eax
  0x2210	sub    	esp, 0x70
  0x2213	dec    	eax
  0x2214	mov    	esi, dword ptr [esp + 0xa8]
  === BLOCK LINK ===
    0x221b
=== CODE BLOCK END ===

=== CODE BLOCK ADDRESS 0x221b ===
  0x221b	dec    	esp
  0x221c	lea    	eax, [0x5726]
  0x2222	dec    	eax
  0x2223	mov    	dword ptr [esp + 0x28], esi
  0x2227	mov    	ebx, edx
  === BLOCK LINK ===
    0x2229
=== CODE BLOCK END ===

=== CODE BLOCK ADDRESS 0x2229 ===
  0x2229	dec    	eax
  0x222a	mov    	edi, ecx
  0x222c	call   	0x39f4
  === BLOCK LINK ===
    0x2231
=== CODE BLOCK END ===

=== CODE BLOCK ADDRESS 0x2231 ===
  0x2231	test   	eax, eax
  0x2233	jle    	0x223d
  === BLOCK LINK ===
    0x2235
=== CODE BLOCK END ===

=== CODE BLOCK ADDRESS 0x2235 ===
  0x2235	movzx  	eax, ax
  0x2238	or     	eax, 0x80070000
  0x223d	mov    	edx, eax
  0x223f	dec    	eax
  0x2240	lea    	ecx, [esp + 0x60]
  === BLOCK LINK ===
    0x2244
=== CODE BLOCK END ===

=== CODE BLOCK ADDRESS 0x2244 ===
  0x2244	call   	0x3540
  === BLOCK LINK ===
    0x2249
=== CODE BLOCK END ===

=== CODE BLOCK ADDRESS 0x2249 ===
  0x2249	mov    	edx, ebx
  0x224b	dec    	eax
  0x224c	mov    	ecx, edi
  0x224e	movsd  	xmm0, qword ptr [eax]
  0x2252	mov    	eax, dword ptr [eax + 8]
  === BLOCK LINK ===
    0x2255
=== CODE BLOCK END ===

=== CODE BLOCK ADDRESS 0x2255 ===
  0x2255	mov    	dword ptr [esp + 0x58], eax
  0x2259	dec    	eax
  0x225a	lea    	eax, [esp + 0x50]
  0x225e	dec    	eax
  0x225f	mov    	dword ptr [esp + 0x30], eax
  === BLOCK LINK ===
    0x2263
=== CODE BLOCK END ===

=== CODE BLOCK ADDRESS 0x2263 ===
  0x2263	dec    	eax
  0x2264	mov    	dword ptr [esp + 0x28], esi
  0x2268	movsd  	qword ptr [esp + 0x50], xmm0
  0x226e	call   	0x21e0
  === BLOCK LINK ===
    0x2273
=== CODE BLOCK END ===

=== CODE BLOCK ADDRESS 0x2273 ===
  0x2273	int3   	
  0x2274	dec    	eax
  0x2275	mov    	eax, esp
  0x2277	push   	edi
  0x2278	dec    	eax
  === BLOCK LINK ===
    0x2279
=== CODE BLOCK END ===

=== CODE BLOCK ADDRESS 0x2279 ===
  0x2279	sub    	esp, 0x80
  0x227f	dec    	eax
  0x2280	mov    	dword ptr [eax - 0x38], 0xfffffffe
  0x2287	dec    	eax
  0x2288	mov    	dword ptr [eax + 8], ebx
  === BLOCK LINK ===
    0x228b
=== CODE BLOCK END ===

=== CODE BLOCK ADDRESS 0x228b ===
  0x228b	dec    	eax
  0x228c	mov    	dword ptr [eax + 0x10], ebp
  0x228f	dec    	eax
  0x2290	mov    	dword ptr [eax + 0x18], esi
  0x2293	mov    	edi, edx
  === BLOCK LINK ===
    0x2295
=== CODE BLOCK END ===

=== CODE BLOCK ADDRESS 0x2295 ===
  0x2295	dec    	eax
  0x2296	mov    	esi, ecx
  0x2298	call   	dword ptr [0x4ff2]
  === BLOCK LINK ===
    0x229e
=== CODE BLOCK END ===

=== CODE BLOCK ADDRESS 0x229e ===
  0x229e	mov    	ebx, eax
  0x22a0	dec    	eax
  0x22a1	mov    	ebp, dword ptr [esp + 0xb8]
  0x22a8	test   	eax, eax
  0x22aa	jne    	0x22d8
  === BLOCK LINK ===
    0x22ac
=== CODE BLOCK END ===

=== CODE BLOCK ADDRESS 0x22ac ===
  0x22ac	mov    	dword ptr [esp + 0x30], 0x8007029c
  0x22b4	dec    	eax
  0x22b5	mov    	dword ptr [esp + 0x28], ebp
  0x22b9	dec    	eax
  0x22ba	and    	dword ptr [esp + 0x20], 0
  === BLOCK LINK ===
    0x22bf
=== CODE BLOCK END ===

=== CODE BLOCK ADDRESS 0x22bf ===
  0x22bf	inc    	ebp
  0x22c0	xor    	ecx, ecx
  0x22c2	dec    	esp
  0x22c3	lea    	eax, [0x567b]
  0x22c9	mov    	edx, edi
  === BLOCK LINK ===
    0x22cb
=== CODE BLOCK END ===

=== CODE BLOCK ADDRESS 0x22cb ===
  0x22cb	dec    	eax
  0x22cc	mov    	ecx, esi
  0x22ce	call   	0x23a8
  === BLOCK LINK ===
    0x22d3
=== CODE BLOCK END ===

=== CODE BLOCK ADDRESS 0x22d3 ===
  0x22d3	mov    	ebx, 0x29c
  0x22d8	test   	ebx, ebx
  0x22da	jle    	0x22e5
  === BLOCK LINK ===
    0x22dc
=== CODE BLOCK END ===

=== CODE BLOCK ADDRESS 0x22dc ===
  0x22dc	movzx  	ebx, bx
  0x22df	or     	ebx, 0x80070000
  0x22e5	mov    	dword ptr [esp + 0x58], ebx
  0x22e9	mov    	ecx, ebx
  0x22eb	call   	0x3ee8
  === BLOCK LINK ===
    0x22f0
=== CODE BLOCK END ===

=== CODE BLOCK ADDRESS 0x22f0 ===
  0x22f0	mov    	dword ptr [esp + 0x5c], eax
  0x22f4	mov    	byte ptr [esp + 0x60], 0
  0x22f9	movsd  	xmm0, qword ptr [esp + 0x58]
  0x22ff	movsd  	qword ptr [esp + 0x68], xmm0
  0x2305	mov    	ecx, dword ptr [esp + 0x60]
  === BLOCK LINK ===
    0x2309
=== CODE BLOCK END ===

=== CODE BLOCK ADDRESS 0x2309 ===
  0x2309	mov    	dword ptr [esp + 0x70], ecx
  0x230d	dec    	eax
  0x230e	lea    	eax, [esp + 0x68]
  0x2312	dec    	eax
  0x2313	mov    	dword ptr [esp + 0x30], eax
  === BLOCK LINK ===
    0x2317
=== CODE BLOCK END ===

=== CODE BLOCK ADDRESS 0x2317 ===
  0x2317	dec    	eax
  0x2318	mov    	dword ptr [esp + 0x28], ebp
  0x231c	dec    	esp
  0x231d	lea    	eax, [0x5621]
  0x2323	mov    	edx, edi
  === BLOCK LINK ===
    0x2325
=== CODE BLOCK END ===

=== CODE BLOCK ADDRESS 0x2325 ===
  0x2325	dec    	eax
  0x2326	mov    	ecx, esi
  0x2328	call   	0x219c
  === BLOCK LINK ===
    0x232d
=== CODE BLOCK END ===

=== CODE BLOCK ADDRESS 0x232d ===
  0x232d	mov    	eax, ebx
  0x232f	dec    	esp
  0x2330	lea    	ebx, [esp + 0x80]
  0x2337	dec    	ecx
  0x2338	mov    	ebx, dword ptr [ebx + 0x10]
  === BLOCK LINK ===
    0x233b
=== CODE BLOCK END ===

=== CODE BLOCK ADDRESS 0x233b ===
  0x233b	dec    	ecx
  0x233c	mov    	ebp, dword ptr [ebx + 0x18]
  0x233f	dec    	ecx
  0x2340	mov    	esi, dword ptr [ebx + 0x20]
  0x2343	dec    	ecx
  === BLOCK LINK ===
    0x2344
=== CODE BLOCK END ===

=== CODE BLOCK ADDRESS 0x2344 ===
  0x2344	mov    	esp, ebx
  0x2346	pop    	edi
  0x2347	ret    	
  0x2348	dec    	eax
  0x2349	sub    	esp, 0x78
  === BLOCK LINK ===
    0x234c
=== CODE BLOCK END ===

=== CODE BLOCK ADDRESS 0x199c ===
  0x199c	dec    	eax
  0x199d	lea    	eax, [0x8f25]
  0x19a3	ret    	
  0x19a4	dec    	eax
  === BLOCK LINK ===
    0x19a5
=== CODE BLOCK END ===

=== CODE BLOCK ADDRESS 0x234c ===
  0x234c	dec    	esp
  0x234d	mov    	edx, ecx
  0x234f	inc    	esp
  0x2350	mov    	ecx, edx
  0x2352	mov    	ecx, dword ptr [esp + 0xb0]
  === BLOCK LINK ===
    0x2359
=== CODE BLOCK END ===

=== CODE BLOCK ADDRESS 0x2359 ===
  0x2359	mov    	dword ptr [esp + 0x50], ecx
  0x235d	call   	0x3ee8
  === BLOCK LINK ===
    0x2362
=== CODE BLOCK END ===

=== CODE BLOCK ADDRESS 0x2362 ===
  0x2362	mov    	dword ptr [esp + 0x54], eax
  0x2366	inc    	ecx
  0x2367	mov    	edx, ecx
  0x2369	movsd  	xmm0, qword ptr [esp + 0x50]
  0x236f	dec    	ecx
  === BLOCK LINK ===
    0x2370
=== CODE BLOCK END ===

=== CODE BLOCK ADDRESS 0x2370 ===
  0x2370	mov    	ecx, edx
  0x2372	mov    	byte ptr [esp + 0x58], 0
  0x2377	mov    	eax, dword ptr [esp + 0x58]
  0x237b	mov    	dword ptr [esp + 0x68], eax
  0x237f	dec    	eax
  === BLOCK LINK ===
    0x2380
=== CODE BLOCK END ===

=== CODE BLOCK ADDRESS 0x2380 ===
  0x2380	lea    	eax, [esp + 0x60]
  0x2384	dec    	eax
  0x2385	mov    	dword ptr [esp + 0x30], eax
  0x2389	dec    	eax
  0x238a	mov    	eax, dword ptr [esp + 0xa8]
  === BLOCK LINK ===
    0x2391
=== CODE BLOCK END ===

=== CODE BLOCK ADDRESS 0x2391 ===
  0x2391	dec    	eax
  0x2392	mov    	dword ptr [esp + 0x28], eax
  0x2396	movsd  	qword ptr [esp + 0x60], xmm0
  0x239c	call   	0x219c
  === BLOCK LINK ===
    0x23a1
=== CODE BLOCK END ===

=== CODE BLOCK ADDRESS 0x23a1 ===
  0x23a1	dec    	eax
  0x23a2	add    	esp, 0x78
  0x23a5	ret    	
  0x23a6	int3   	
  0x23a7	int3   	
  === BLOCK LINK ===
    0x23a8
=== CODE BLOCK END ===

=== CODE BLOCK ADDRESS 0x23a8 ===
  0x23a8	dec    	eax
  0x23a9	sub    	esp, 0x78
  0x23ac	dec    	esp
  0x23ad	mov    	ebx, ecx
  0x23af	inc    	esp
  === BLOCK LINK ===
    0x23b0
=== CODE BLOCK END ===

=== CODE BLOCK ADDRESS 0x23b0 ===
  0x23b0	mov    	edx, edx
  0x23b2	mov    	ecx, dword ptr [esp + 0xb0]
  0x23b9	mov    	dword ptr [esp + 0x50], ecx
  0x23bd	call   	0x3ee8
  === BLOCK LINK ===
    0x23c2
=== CODE BLOCK END ===

=== CODE BLOCK ADDRESS 0x23c2 ===
  0x23c2	mov    	dword ptr [esp + 0x54], eax
  0x23c6	inc    	ecx
  0x23c7	mov    	edx, edx
  0x23c9	movsd  	xmm0, qword ptr [esp + 0x50]
  0x23cf	dec    	ecx
  === BLOCK LINK ===
    0x23d0
=== CODE BLOCK END ===

=== CODE BLOCK ADDRESS 0x23d0 ===
  0x23d0	mov    	ecx, ebx
  0x23d2	mov    	byte ptr [esp + 0x58], 0
  0x23d7	mov    	eax, dword ptr [esp + 0x58]
  0x23db	mov    	dword ptr [esp + 0x68], eax
  0x23df	dec    	eax
  === BLOCK LINK ===
    0x23e0
=== CODE BLOCK END ===

=== CODE BLOCK ADDRESS 0x23e0 ===
  0x23e0	lea    	eax, [esp + 0x60]
  0x23e4	dec    	eax
  0x23e5	mov    	dword ptr [esp + 0x30], eax
  0x23e9	dec    	eax
  0x23ea	mov    	eax, dword ptr [esp + 0xa8]
  === BLOCK LINK ===
    0x23f1
=== CODE BLOCK END ===

=== CODE BLOCK ADDRESS 0x23f1 ===
  0x23f1	dec    	eax
  0x23f2	mov    	dword ptr [esp + 0x28], eax
  0x23f6	dec    	eax
  0x23f7	mov    	eax, dword ptr [esp + 0xa0]
  0x23fe	dec    	eax
  === BLOCK LINK ===
    0x23ff
=== CODE BLOCK END ===

=== CODE BLOCK ADDRESS 0x23ff ===
  0x23ff	mov    	dword ptr [esp + 0x20], eax
  0x2403	movsd  	qword ptr [esp + 0x60], xmm0
  0x2409	call   	0x21a4
  === BLOCK LINK ===
    0x240e
=== CODE BLOCK END ===

=== CODE BLOCK ADDRESS 0x240e ===
  0x240e	dec    	eax
  0x240f	add    	esp, 0x78
  0x2412	ret    	
  0x2413	int3   	
  0x2414	dec    	eax
  === BLOCK LINK ===
    0x2415
=== CODE BLOCK END ===

=== CODE BLOCK ADDRESS 0x1728 ===
  0x1728	dec    	eax
  0x1729	sub    	esp, 0x18
  0x172c	dec    	esp
  === BLOCK LINK ===
    0x172d
=== CODE BLOCK END ===

=== CODE BLOCK ADDRESS 0x2415 ===
  0x2415	sub    	esp, 0x78
  0x2418	dec    	esp
  0x2419	mov    	ecx, ecx
  0x241b	mov    	edx, 0x8000ffff
  0x2420	dec    	eax
  === BLOCK LINK ===
    0x2421
=== CODE BLOCK END ===

=== CODE BLOCK ADDRESS 0x2421 ===
  0x2421	lea    	ecx, [esp + 0x60]
  0x2425	call   	0x3540
  === BLOCK LINK ===
    0x242a
=== CODE BLOCK END ===

=== CODE BLOCK ADDRESS 0x242a ===
  0x242a	mov    	edx, 0xb6d
  0x242f	dec    	ecx
  0x2430	mov    	ecx, ecx
  0x2432	movsd  	xmm0, qword ptr [eax]
  0x2436	mov    	eax, dword ptr [eax + 8]
  === BLOCK LINK ===
    0x2439
=== CODE BLOCK END ===

=== CODE BLOCK ADDRESS 0x2439 ===
  0x2439	mov    	dword ptr [esp + 0x58], eax
  0x243d	dec    	eax
  0x243e	lea    	eax, [esp + 0x50]
  0x2442	dec    	eax
  0x2443	mov    	dword ptr [esp + 0x30], eax
  === BLOCK LINK ===
    0x2447
=== CODE BLOCK END ===

=== CODE BLOCK ADDRESS 0x2447 ===
  0x2447	dec    	eax
  0x2448	mov    	eax, dword ptr [esp + 0xa8]
  0x244f	dec    	eax
  0x2450	mov    	dword ptr [esp + 0x28], eax
  0x2454	movsd  	qword ptr [esp + 0x50], xmm0
  === BLOCK LINK ===
    0x245a
=== CODE BLOCK END ===

=== CODE BLOCK ADDRESS 0x245a ===
  0x245a	call   	0x21e0
  === BLOCK LINK ===
    0x245f
=== CODE BLOCK END ===

=== CODE BLOCK ADDRESS 0x245f ===
  0x245f	int3   	
  0x2460	inc    	eax
  0x2461	push   	ebp
  0x2462	push   	edi
  0x2463	inc    	ecx
  === BLOCK LINK ===
    0x2464
=== CODE BLOCK END ===

=== CODE BLOCK ADDRESS 0x2464 ===
  0x2464	push   	esp
  0x2465	inc    	ecx
  0x2466	push   	esi
  0x2467	inc    	ecx
  0x2468	push   	edi
  === BLOCK LINK ===
    0x2469
=== CODE BLOCK END ===

=== CODE BLOCK ADDRESS 0x2469 ===
  0x2469	dec    	eax
  0x246a	lea    	ebp, [esp - 0x13d0]
  0x2471	mov    	eax, 0x14d0
  0x2476	call   	0x6a90
  === BLOCK LINK ===
    0x247b
=== CODE BLOCK END ===

=== CODE BLOCK ADDRESS 0x247b ===
  0x247b	dec    	eax
  0x247c	sub    	esp, eax
  0x247e	dec    	eax
  0x247f	mov    	dword ptr [ebp - 0x40], 0xfffffffe
  0x2486	dec    	eax
  === BLOCK LINK ===
    0x2487
=== CODE BLOCK END ===

=== CODE BLOCK ADDRESS 0x2487 ===
  0x2487	mov    	dword ptr [esp + 0x1510], ebx
  0x248e	dec    	eax
  0x248f	mov    	dword ptr [esp + 0x1518], esi
  0x2496	inc    	esp
  0x2497	mov    	esi, edx
  === BLOCK LINK ===
    0x2499
=== CODE BLOCK END ===

=== CODE BLOCK ADDRESS 0x2499 ===
  0x2499	dec    	esp
  0x249a	mov    	edi, ecx
  0x249c	dec    	eax
  0x249d	mov    	esi, dword ptr [ebp + 0x1428]
  0x24a3	inc    	ebp
  === BLOCK LINK ===
    0x24a4
=== CODE BLOCK END ===

=== CODE BLOCK ADDRESS 0x24a4 ===
  0x24a4	xor    	esp, esp
  0x24a6	inc    	sp
  0x24a8	mov    	dword ptr [ebp + 0x3d0], esp
  0x24ae	inc    	esp
  0x24af	mov    	byte ptr [ebp - 0x30], ah
  === BLOCK LINK ===
    0x24b2
=== CODE BLOCK END ===

=== CODE BLOCK ADDRESS 0x24b2 ===
  0x24b2	dec    	eax
  0x24b3	mov    	ebx, dword ptr [ebp + 0x1430]
  0x24b9	mov    	ecx, dword ptr [ebx]
  0x24bb	mov    	dword ptr [esp + 0x28], ecx
  0x24bf	mov    	eax, dword ptr [ebx + 4]
  === BLOCK LINK ===
    0x24c2
=== CODE BLOCK END ===

=== CODE BLOCK ADDRESS 0x24c2 ===
  0x24c2	mov    	dword ptr [esp + 0x2c], eax
  0x24c6	call   	0x49a0
  === BLOCK LINK ===
    0x24cb
=== CODE BLOCK END ===

=== CODE BLOCK ADDRESS 0x24cb ===
  0x24cb	mov    	edi, eax
  0x24cd	mov    	dword ptr [esp + 0x20], 3
  0x24d5	inc    	ecx
  0x24d6	mov    	ecx, esp
  0x24d8	inc    	ecx
  === BLOCK LINK ===
    0x24d9
=== CODE BLOCK END ===

=== CODE BLOCK ADDRESS 0x24d9 ===
  0x24d9	lea    	eax, [esp + 8]
  0x24dd	inc    	esp
  0x24de	cmp    	byte ptr [ebx + 8], ah
  0x24e1	cmovne  	ecx, eax
  0x24e4	mov    	dword ptr [esp + 0x24], ecx
  === BLOCK LINK ===
    0x24e8
=== CODE BLOCK END ===

=== CODE BLOCK ADDRESS 0x24e8 ===
  0x24e8	lea    	ecx, [eax - 7]
  0x24eb	lock xadd  	dword ptr [0x8265], ecx
  0x24f3	inc    	ecx
  0x24f5	mov    	dword ptr [esp + 0x30], ecx
  0x24f9	dec    	esp
  === BLOCK LINK ===
    0x24fa
=== CODE BLOCK END ===

=== CODE BLOCK ADDRESS 0x24fa ===
  0x24fa	mov    	dword ptr [esp + 0x38], esp
  0x24fe	call   	dword ptr [0x4e1c]
  === BLOCK LINK ===
    0x2504
=== CODE BLOCK END ===

=== CODE BLOCK ADDRESS 0x2504 ===
  0x2504	mov    	dword ptr [esp + 0x40], eax
  0x2508	dec    	eax
  0x2509	lea    	eax, [0x5439]
  0x250f	dec    	eax
  0x2510	mov    	dword ptr [esp + 0x58], eax
  === BLOCK LINK ===
    0x2514
=== CODE BLOCK END ===

=== CODE BLOCK ADDRESS 0x2514 ===
  0x2514	inc    	esp
  0x2515	mov    	dword ptr [esp + 0x60], esi
  0x2519	mov    	dword ptr [esp + 0x64], edi
  0x251d	dec    	esp
  0x251e	mov    	dword ptr [esp + 0x48], esp
  === BLOCK LINK ===
    0x2522
=== CODE BLOCK END ===

=== CODE BLOCK ADDRESS 0x2522 ===
  0x2522	dec    	esp
  0x2523	mov    	dword ptr [esp + 0x50], esp
  0x2527	dec    	eax
  0x2528	mov    	dword ptr [ebp - 0x58], esi
  0x252b	dec    	esp
  === BLOCK LINK ===
    0x252c
=== CODE BLOCK END ===

=== CODE BLOCK ADDRESS 0x252c ===
  0x252c	mov    	dword ptr [ebp - 0x50], edi
  0x252f	xorps  	xmm0, xmm0
  0x2532	xor    	eax, eax
  0x2534	movups  	xmmword ptr [ebp - 0x78], xmm0
  0x2538	dec    	eax
  === BLOCK LINK ===
    0x2539
=== CODE BLOCK END ===

=== CODE BLOCK ADDRESS 0x2539 ===
  0x2539	mov    	dword ptr [ebp - 0x68], eax
  0x253c	xorps  	xmm1, xmm1
  0x253f	movups  	xmmword ptr [esp + 0x68], xmm1
  0x2544	movups  	xmmword ptr [esp + 0x78], xmm1
  0x2549	dec    	eax
  === BLOCK LINK ===
    0x254a
=== CODE BLOCK END ===

=== CODE BLOCK ADDRESS 0x254a ===
  0x254a	mov    	eax, dword ptr [0x82b8]
  0x2550	dec    	eax
  0x2551	test   	eax, eax
  0x2553	je     	0x256b
  === BLOCK LINK ===
    0x2555
=== CODE BLOCK END ===

=== CODE BLOCK ADDRESS 0x2555 ===
  0x2555	dec    	ecx
  0x2556	mov    	edx, 0x5ed9c370
  0x255b	adc    	al, 0x27
  0x255d	sub    	ebp, eax
  0x255f	call   	dword ptr [0x502b]
  === BLOCK LINK ===
    0x2565
=== CODE BLOCK END ===

=== CODE BLOCK ADDRESS 0x2565 ===
  0x2565	dec    	eax
  0x2566	mov    	dword ptr [ebp - 0x60], eax
  0x2569	jmp    	0x256f
  === BLOCK LINK ===
    0x256b
=== CODE BLOCK END ===

=== CODE BLOCK ADDRESS 0x256b ===
  0x256b	dec    	esp
  0x256c	mov    	dword ptr [ebp - 0x60], esp
  0x256f	dec    	eax
  0x2570	mov    	eax, dword ptr [0x8212]
  0x2576	dec    	eax
  === BLOCK LINK ===
    0x2577
=== CODE BLOCK END ===

=== CODE BLOCK ADDRESS 0x2577 ===
  0x2577	test   	eax, eax
  0x2579	je     	0x2590
  === BLOCK LINK ===
    0x257b
=== CODE BLOCK END ===

=== CODE BLOCK ADDRESS 0x257b ===
  0x257b	dec    	ecx
  0x257c	mov    	edx, 0x5e56ba70
  0x2581	add    	eax, 0x48d8113e
  0x2586	lea    	ecx, [esp + 0x20]
  0x258a	call   	dword ptr [0x5000]
  === BLOCK LINK ===
    0x2590
=== CODE BLOCK END ===

=== CODE BLOCK ADDRESS 0x2590 ===
  0x2590	dec    	eax
  0x2591	mov    	eax, dword ptr [0x8229]
  0x2597	dec    	eax
  0x2598	test   	eax, eax
  0x259a	je     	0x25bb
  === BLOCK LINK ===
    0x259c
=== CODE BLOCK END ===

=== CODE BLOCK ADDRESS 0x259c ===
  0x259c	dec    	ecx
  0x259d	mov    	edx, 0x58da1a70
  0x25a2	or     	cl, byte ptr [esi]
  0x25a4	sbb    	edx, ebp
  0x25a6	inc    	ecx
  === BLOCK LINK ===
    0x25a7
=== CODE BLOCK END ===

=== CODE BLOCK ADDRESS 0x25a7 ===
  0x25a7	mov    	eax, 0x400
  0x25ac	dec    	eax
  0x25ad	lea    	edx, [ebp - 0x30]
  0x25b0	dec    	eax
  0x25b1	lea    	ecx, [esp + 0x20]
  === BLOCK LINK ===
    0x25b5
=== CODE BLOCK END ===

=== CODE BLOCK ADDRESS 0x25b5 ===
  0x25b5	call   	dword ptr [0x4fd5]
  === BLOCK LINK ===
    0x25bb
=== CODE BLOCK END ===

=== CODE BLOCK ADDRESS 0x25bb ===
  0x25bb	dec    	eax
  0x25bc	mov    	eax, dword ptr [0x81ee]
  0x25c2	dec    	eax
  0x25c3	test   	eax, eax
  0x25c5	je     	0x25dc
  === BLOCK LINK ===
    0x25c7
=== CODE BLOCK END ===

=== CODE BLOCK ADDRESS 0x25c7 ===
  0x25c7	dec    	ecx
  0x25c8	mov    	edx, 0x3cd18a70
  0x25cd	mov    	bh, byte ptr [edi - 0x72b74c68]
  0x25d3	dec    	esp
  0x25d4	and    	al, 0x20
  === BLOCK LINK ===
    0x25d6
=== CODE BLOCK END ===

=== CODE BLOCK ADDRESS 0x25d6 ===
  0x25d6	call   	dword ptr [0x4fb4]
  === BLOCK LINK ===
    0x25dc
=== CODE BLOCK END ===

=== CODE BLOCK ADDRESS 0x25dc ===
  0x25dc	dec    	eax
  0x25dd	mov    	eax, dword ptr [0x81fd]
  0x25e3	dec    	eax
  0x25e4	test   	eax, eax
  0x25e6	je     	0x2604
  === BLOCK LINK ===
    0x25e8
=== CODE BLOCK END ===

=== CODE BLOCK ADDRESS 0x25e8 ===
  0x25e8	test   	byte ptr [esp + 0x24], 2
  0x25ed	jne    	0x2604
  === BLOCK LINK ===
    0x25ef
=== CODE BLOCK END ===

=== CODE BLOCK ADDRESS 0x25ef ===
  0x25ef	dec    	ecx
  0x25f0	mov    	edx, 0x3cd18a70
  0x25f5	mov    	bh, byte ptr [edi - 0x72b74c68]
  0x25fb	dec    	esp
  0x25fc	and    	al, 0x20
  === BLOCK LINK ===
    0x25fe
=== CODE BLOCK END ===

=== CODE BLOCK ADDRESS 0x25fe ===
  0x25fe	call   	dword ptr [0x4f8c]
  === BLOCK LINK ===
    0x2604
=== CODE BLOCK END ===

=== CODE BLOCK ADDRESS 0x2604 ===
  0x2604	inc    	esp
  0x2605	cmp    	dword ptr [esp + 0x28], esp
  0x2609	jl     	0x261d
  === BLOCK LINK ===
    0x260b
=== CODE BLOCK END ===

=== CODE BLOCK ADDRESS 0x260b ===
  0x260b	mov    	ecx, 0x8000ffff
  0x2610	mov    	dword ptr [esp + 0x28], ecx
  0x2614	call   	0x3ee8
  === BLOCK LINK ===
    0x2619
=== CODE BLOCK END ===

=== CODE BLOCK ADDRESS 0x2619 ===
  0x2619	mov    	dword ptr [esp + 0x2c], eax
  0x261d	inc    	esp
  0x261e	cmp    	byte ptr [0x814c], ah
  0x2624	jne    	0x2651
  === BLOCK LINK ===
    0x2626
=== CODE BLOCK END ===

=== CODE BLOCK ADDRESS 0x2626 ===
  0x2626	dec    	eax
  0x2627	mov    	eax, dword ptr [0x8133]
  0x262d	dec    	eax
  0x262e	test   	eax, eax
  0x2630	je     	0x2647
  === BLOCK LINK ===
    0x2632
=== CODE BLOCK END ===

=== CODE BLOCK ADDRESS 0x2632 ===
  0x2632	dec    	ecx
  0x2633	mov    	edx, 0x5c5ca270
  0x2638	les    	ebx, ptr [esi + 0x15ffdf94]
  0x263e	dec    	esi
  0x263f	dec    	edi
  === BLOCK LINK ===
    0x2640
=== CODE BLOCK END ===

=== CODE BLOCK ADDRESS 0x2640 ===
  0x2640	add    	byte ptr [eax], al
  0x2642	movzx  	eax, al
  0x2645	jmp    	0x264d
  === BLOCK LINK ===
    0x2647
=== CODE BLOCK END ===

=== CODE BLOCK ADDRESS 0x2647 ===
  0x2647	call   	dword ptr [0x4c0b]
  === BLOCK LINK ===
    0x264d
=== CODE BLOCK END ===

=== CODE BLOCK ADDRESS 0x264d ===
  0x264d	test   	eax, eax
  0x264f	je     	0x2658
  === BLOCK LINK ===
    0x2651
=== CODE BLOCK END ===

=== CODE BLOCK ADDRESS 0x2651 ===
  0x2651	test   	byte ptr [esp + 0x24], 2
  0x2656	je     	0x2691
  === BLOCK LINK ===
    0x2658
=== CODE BLOCK END ===

=== CODE BLOCK ADDRESS 0x2658 ===
  0x2658	dec    	eax
  0x2659	mov    	eax, dword ptr [0x8119]
  0x265f	dec    	eax
  0x2660	test   	eax, eax
  0x2662	je     	0x26f5
  === BLOCK LINK ===
    0x2668
=== CODE BLOCK END ===

=== CODE BLOCK ADDRESS 0x2668 ===
  0x2668	inc    	esp
  0x2669	cmp    	byte ptr [0x8129], ah
  0x266f	jne    	0x26f5
  === BLOCK LINK ===
    0x2675
=== CODE BLOCK END ===

=== CODE BLOCK ADDRESS 0x2675 ===
  0x2675	dec    	ecx
  0x2676	mov    	edx, 0x7ede8170
  0x267b	out    	0xb6, al
  0x267d	nop    	
  0x267e	stc    	
  === BLOCK LINK ===
    0x267f
=== CODE BLOCK END ===

=== CODE BLOCK ADDRESS 0x267f ===
  0x267f	inc    	ebp
  0x2680	xor    	eax, eax
  0x2682	xor    	edx, edx
  0x2684	dec    	eax
  0x2685	lea    	ecx, [esp + 0x20]
  === BLOCK LINK ===
    0x2689
=== CODE BLOCK END ===

=== CODE BLOCK ADDRESS 0x2689 ===
  0x2689	call   	dword ptr [0x4f01]
  === BLOCK LINK ===
    0x268f
=== CODE BLOCK END ===

=== CODE BLOCK ADDRESS 0x268f ===
  0x268f	jmp    	0x26f5
  === BLOCK LINK ===
    0x2691
=== CODE BLOCK END ===

=== CODE BLOCK ADDRESS 0x2691 ===
  0x2691	mov    	ebx, 0x800
  0x2696	dec    	eax
  0x2697	mov    	eax, dword ptr [0x80db]
  0x269d	dec    	eax
  0x269e	test   	eax, eax
  === BLOCK LINK ===
    0x26a0
=== CODE BLOCK END ===

=== CODE BLOCK ADDRESS 0x26a0 ===
  0x26a0	je     	0x26ca
  === BLOCK LINK ===
    0x26a2
=== CODE BLOCK END ===

=== CODE BLOCK ADDRESS 0x26a2 ===
  0x26a2	inc    	esp
  0x26a3	cmp    	byte ptr [0x80ef], ah
  0x26a9	jne    	0x26ca
  === BLOCK LINK ===
    0x26ab
=== CODE BLOCK END ===

=== CODE BLOCK ADDRESS 0x26ab ===
  0x26ab	dec    	ecx
  0x26ac	mov    	edx, 0x7ede8170
  0x26b1	out    	0xb6, al
  0x26b3	nop    	
  0x26b4	stc    	
  === BLOCK LINK ===
    0x26b5
=== CODE BLOCK END ===

=== CODE BLOCK ADDRESS 0x26b5 ===
  0x26b5	inc    	esp
  0x26b6	mov    	eax, ebx
  0x26b8	dec    	eax
  0x26b9	lea    	edx, [ebp + 0x3d0]
  0x26bf	dec    	eax
  === BLOCK LINK ===
    0x26c0
=== CODE BLOCK END ===

=== CODE BLOCK ADDRESS 0x26c0 ===
  0x26c0	lea    	ecx, [esp + 0x20]
  0x26c4	call   	dword ptr [0x4ec6]
  === BLOCK LINK ===
    0x26ca
=== CODE BLOCK END ===

=== CODE BLOCK ADDRESS 0x26ca ===
  0x26ca	inc    	sp
  0x26cc	cmp    	dword ptr [ebp + 0x3d0], esp
  0x26d2	jne    	0x26e8
  === BLOCK LINK ===
    0x26d4
=== CODE BLOCK END ===

=== CODE BLOCK ADDRESS 0x26d4 ===
  0x26d4	dec    	esp
  0x26d5	lea    	eax, [esp + 0x20]
  0x26d9	dec    	eax
  0x26da	mov    	edx, ebx
  0x26dc	dec    	eax
  === BLOCK LINK ===
    0x26dd
=== CODE BLOCK END ===

=== CODE BLOCK ADDRESS 0x26dd ===
  0x26dd	lea    	ecx, [ebp + 0x3d0]
  0x26e3	call   	0x372c
  === BLOCK LINK ===
    0x26e8
=== CODE BLOCK END ===

=== CODE BLOCK ADDRESS 0x26e8 ===
  0x26e8	dec    	eax
  0x26e9	lea    	ecx, [ebp + 0x3d0]
  0x26ef	call   	dword ptr [0x4b5b]
  === BLOCK LINK ===
    0x26f5
=== CODE BLOCK END ===

=== CODE BLOCK ADDRESS 0x26f5 ===
  0x26f5	test   	byte ptr [esp + 0x24], 4
  0x26fa	jne    	0x2705
  === BLOCK LINK ===
    0x26fc
=== CODE BLOCK END ===

=== CODE BLOCK ADDRESS 0x26fc ===
  0x26fc	inc    	esp
  0x26fd	cmp    	byte ptr [0x807d], ah
  0x2703	je     	0x2722
  === BLOCK LINK ===
    0x2705
=== CODE BLOCK END ===

=== CODE BLOCK ADDRESS 0x2705 ===
  0x2705	dec    	eax
  0x2706	mov    	eax, dword ptr [0x80c4]
  0x270c	dec    	eax
  0x270d	test   	eax, eax
  0x270f	je     	0x2722
  === BLOCK LINK ===
    0x2711
=== CODE BLOCK END ===

=== CODE BLOCK ADDRESS 0x2711 ===
  0x2711	dec    	ecx
  0x2712	mov    	edx, 0x56da4870
  0x2717	xchg   	eax, esi
  0x2718	int1   	
  0x271a	test   	edi, edi
  === BLOCK LINK ===
    0x271c
=== CODE BLOCK END ===

=== CODE BLOCK ADDRESS 0x271c ===
  0x271c	adc    	eax, 0x4e6f
  0x2721	nop    	
  0x2722	dec    	eax
  0x2723	lea    	ecx, [esp + 0x20]
  0x2727	call   	0x5d74
  === BLOCK LINK ===
    0x272c
=== CODE BLOCK END ===

=== CODE BLOCK ADDRESS 0x272c ===
  0x272c	int3   	
  0x272d	int3   	
  0x272e	int3   	
  0x272f	int3   	
  0x2730	inc    	eax
  === BLOCK LINK ===
    0x2731
=== CODE BLOCK END ===

=== CODE BLOCK ADDRESS 0x2731 ===
  0x2731	push   	ebp
  0x2732	push   	ebx
  0x2733	push   	esi
  0x2734	push   	edi
  0x2735	inc    	ecx
  === BLOCK LINK ===
    0x2736
=== CODE BLOCK END ===

=== CODE BLOCK ADDRESS 0x2736 ===
  0x2736	push   	esp
  0x2737	inc    	ecx
  0x2738	push   	esi
  0x2739	inc    	ecx
  0x273a	push   	edi
  === BLOCK LINK ===
    0x273b
=== CODE BLOCK END ===

=== CODE BLOCK ADDRESS 0x273b ===
  0x273b	dec    	eax
  0x273c	lea    	ebp, [esp - 0x13e0]
  0x2743	mov    	eax, 0x14e0
  0x2748	call   	0x6a90
  === BLOCK LINK ===
    0x274d
=== CODE BLOCK END ===

=== CODE BLOCK ADDRESS 0x274d ===
  0x274d	dec    	eax
  0x274e	sub    	esp, eax
  0x2750	dec    	eax
  0x2751	mov    	dword ptr [ebp - 0x40], 0xfffffffe
  0x2758	dec    	eax
  === BLOCK LINK ===
    0x2759
=== CODE BLOCK END ===

=== CODE BLOCK ADDRESS 0x2759 ===
  0x2759	mov    	eax, dword ptr [0x7981]
  0x275f	dec    	eax
  0x2760	xor    	eax, esp
  0x2762	dec    	eax
  0x2763	mov    	dword ptr [ebp + 0x13d0], eax
  === BLOCK LINK ===
    0x2769
=== CODE BLOCK END ===

=== CODE BLOCK ADDRESS 0x2769 ===
  0x2769	dec    	ebp
  0x276a	mov    	esi, eax
  0x276c	mov    	esi, edx
  0x276e	dec    	esp
  0x276f	mov    	edi, ecx
  === BLOCK LINK ===
    0x2771
=== CODE BLOCK END ===

=== CODE BLOCK ADDRESS 0x2771 ===
  0x2771	dec    	eax
  0x2772	mov    	edi, dword ptr [ebp + 0x1448]
  0x2778	inc    	ebp
  0x2779	xor    	esp, esp
  0x277b	inc    	sp
  === BLOCK LINK ===
    0x277d
=== CODE BLOCK END ===

=== CODE BLOCK ADDRESS 0x277d ===
  0x277d	mov    	dword ptr [ebp + 0x3d0], esp
  0x2783	inc    	esp
  0x2784	mov    	byte ptr [ebp - 0x30], ah
  0x2787	dec    	eax
  0x2788	mov    	edx, dword ptr [ebp + 0x1450]
  === BLOCK LINK ===
    0x278e
=== CODE BLOCK END ===

=== CODE BLOCK ADDRESS 0x278e ===
  0x278e	mov    	ecx, dword ptr [edx]
  0x2790	mov    	dword ptr [esp + 0x28], ecx
  0x2794	mov    	eax, dword ptr [edx + 4]
  0x2797	mov    	dword ptr [esp + 0x2c], eax
  0x279b	call   	0x49c4
  === BLOCK LINK ===
    0x27a0
=== CODE BLOCK END ===

=== CODE BLOCK ADDRESS 0x27a0 ===
  0x27a0	mov    	ebx, eax
  0x27a2	mov    	dword ptr [esp + 0x20], 1
  0x27aa	inc    	ecx
  0x27ab	mov    	ecx, esp
  0x27ad	inc    	ecx
  === BLOCK LINK ===
    0x27ae
=== CODE BLOCK END ===

=== CODE BLOCK ADDRESS 0x27ae ===
  0x27ae	lea    	eax, [esp + 8]
  0x27b2	inc    	esp
  0x27b3	cmp    	byte ptr [edx + 8], ah
  0x27b6	cmovne  	ecx, eax
  0x27b9	mov    	dword ptr [esp + 0x24], ecx
  === BLOCK LINK ===
    0x27bd
=== CODE BLOCK END ===

=== CODE BLOCK ADDRESS 0x27bd ===
  0x27bd	lea    	ecx, [eax - 7]
  0x27c0	lock xadd  	dword ptr [0x7f90], ecx
  0x27c8	inc    	ecx
  0x27ca	mov    	dword ptr [esp + 0x30], ecx
  0x27ce	dec    	esp
  === BLOCK LINK ===
    0x27cf
=== CODE BLOCK END ===

=== CODE BLOCK ADDRESS 0x27cf ===
  0x27cf	mov    	dword ptr [esp + 0x38], esp
  0x27d3	call   	dword ptr [0x4b47]
  === BLOCK LINK ===
    0x27d9
=== CODE BLOCK END ===

=== CODE BLOCK ADDRESS 0x27d9 ===
  0x27d9	mov    	dword ptr [esp + 0x40], eax
  0x27dd	dec    	esp
  0x27de	mov    	dword ptr [esp + 0x58], esi
  0x27e2	mov    	dword ptr [esp + 0x60], esi
  0x27e6	mov    	dword ptr [esp + 0x64], ebx
  === BLOCK LINK ===
    0x27ea
=== CODE BLOCK END ===

=== CODE BLOCK ADDRESS 0x27ea ===
  0x27ea	dec    	esp
  0x27eb	mov    	dword ptr [esp + 0x48], esp
  0x27ef	dec    	esp
  0x27f0	mov    	dword ptr [esp + 0x50], esp
  0x27f4	dec    	eax
  === BLOCK LINK ===
    0x27f5
=== CODE BLOCK END ===

=== CODE BLOCK ADDRESS 0x27f5 ===
  0x27f5	mov    	dword ptr [ebp - 0x58], edi
  0x27f8	dec    	esp
  0x27f9	mov    	dword ptr [ebp - 0x50], edi
  0x27fc	xorps  	xmm0, xmm0
  0x27ff	xor    	eax, eax
  === BLOCK LINK ===
    0x2801
=== CODE BLOCK END ===

=== CODE BLOCK ADDRESS 0x2801 ===
  0x2801	movups  	xmmword ptr [ebp - 0x78], xmm0
  0x2805	dec    	eax
  0x2806	mov    	dword ptr [ebp - 0x68], eax
  0x2809	xorps  	xmm1, xmm1
  0x280c	movups  	xmmword ptr [esp + 0x68], xmm1
  === BLOCK LINK ===
    0x2811
=== CODE BLOCK END ===

=== CODE BLOCK ADDRESS 0x2811 ===
  0x2811	movups  	xmmword ptr [esp + 0x78], xmm1
  0x2816	dec    	eax
  0x2817	mov    	eax, dword ptr [0x7feb]
  0x281d	dec    	eax
  0x281e	test   	eax, eax
  === BLOCK LINK ===
    0x2820
=== CODE BLOCK END ===

=== CODE BLOCK ADDRESS 0x2820 ===
  0x2820	je     	0x2838
  === BLOCK LINK ===
    0x2822
=== CODE BLOCK END ===

=== CODE BLOCK ADDRESS 0x2822 ===
  0x2822	dec    	ecx
  0x2823	mov    	edx, 0x5ed9c370
  0x2828	adc    	al, 0x27
  0x282a	sub    	ebp, eax
  0x282c	call   	dword ptr [0x4d5e]
  === BLOCK LINK ===
    0x2832
=== CODE BLOCK END ===

=== CODE BLOCK ADDRESS 0x2832 ===
  0x2832	dec    	eax
  0x2833	mov    	dword ptr [ebp - 0x60], eax
  0x2836	jmp    	0x283c
  === BLOCK LINK ===
    0x2838
=== CODE BLOCK END ===

=== CODE BLOCK ADDRESS 0x2838 ===
  0x2838	dec    	esp
  0x2839	mov    	dword ptr [ebp - 0x60], esp
  0x283c	dec    	eax
  0x283d	mov    	eax, dword ptr [0x7f45]
  0x2843	dec    	eax
  === BLOCK LINK ===
    0x2844
=== CODE BLOCK END ===

=== CODE BLOCK ADDRESS 0x2844 ===
  0x2844	test   	eax, eax
  0x2846	je     	0x285d
  === BLOCK LINK ===
    0x2848
=== CODE BLOCK END ===

=== CODE BLOCK ADDRESS 0x2848 ===
  0x2848	dec    	ecx
  0x2849	mov    	edx, 0x5e56ba70
  0x284e	add    	eax, 0x48d8113e
  0x2853	lea    	ecx, [esp + 0x20]
  0x2857	call   	dword ptr [0x4d33]
  === BLOCK LINK ===
    0x285d
=== CODE BLOCK END ===

=== CODE BLOCK ADDRESS 0x285d ===
  0x285d	dec    	eax
  0x285e	mov    	eax, dword ptr [0x7f5c]
  0x2864	dec    	eax
  0x2865	test   	eax, eax
  0x2867	je     	0x2888
  === BLOCK LINK ===
    0x2869
=== CODE BLOCK END ===

=== CODE BLOCK ADDRESS 0x2869 ===
  0x2869	dec    	ecx
  0x286a	mov    	edx, 0x58da1a70
  0x286f	or     	cl, byte ptr [esi]
  0x2871	sbb    	edx, ebp
  0x2873	inc    	ecx
  === BLOCK LINK ===
    0x2874
=== CODE BLOCK END ===

=== CODE BLOCK ADDRESS 0x2874 ===
  0x2874	mov    	eax, 0x400
  0x2879	dec    	eax
  0x287a	lea    	edx, [ebp - 0x30]
  0x287d	dec    	eax
  0x287e	lea    	ecx, [esp + 0x20]
  === BLOCK LINK ===
    0x2882
=== CODE BLOCK END ===

=== CODE BLOCK ADDRESS 0x2882 ===
  0x2882	call   	dword ptr [0x4d08]
  === BLOCK LINK ===
    0x2888
=== CODE BLOCK END ===

=== CODE BLOCK ADDRESS 0x2888 ===
  0x2888	dec    	eax
  0x2889	mov    	eax, dword ptr [0x7f21]
  0x288f	dec    	eax
  0x2890	test   	eax, eax
  0x2892	je     	0x28a9
  === BLOCK LINK ===
    0x2894
=== CODE BLOCK END ===

=== CODE BLOCK ADDRESS 0x2894 ===
  0x2894	dec    	ecx
  0x2895	mov    	edx, 0x3cd18a70
  0x289a	mov    	bh, byte ptr [edi - 0x72b74c68]
  0x28a0	dec    	esp
  0x28a1	and    	al, 0x20
  === BLOCK LINK ===
    0x28a3
=== CODE BLOCK END ===

=== CODE BLOCK ADDRESS 0x28a3 ===
  0x28a3	call   	dword ptr [0x4ce7]
  === BLOCK LINK ===
    0x28a9
=== CODE BLOCK END ===

=== CODE BLOCK ADDRESS 0x28a9 ===
  0x28a9	dec    	eax
  0x28aa	mov    	eax, dword ptr [0x7f30]
  0x28b0	dec    	eax
  0x28b1	test   	eax, eax
  0x28b3	je     	0x28d1
  === BLOCK LINK ===
    0x28b5
=== CODE BLOCK END ===

=== CODE BLOCK ADDRESS 0x28b5 ===
  0x28b5	test   	byte ptr [esp + 0x24], 2
  0x28ba	jne    	0x28d1
  === BLOCK LINK ===
    0x28bc
=== CODE BLOCK END ===

=== CODE BLOCK ADDRESS 0x28bc ===
  0x28bc	dec    	ecx
  0x28bd	mov    	edx, 0x3cd18a70
  0x28c2	mov    	bh, byte ptr [edi - 0x72b74c68]
  0x28c8	dec    	esp
  0x28c9	and    	al, 0x20
  === BLOCK LINK ===
    0x28cb
=== CODE BLOCK END ===

=== CODE BLOCK ADDRESS 0x28cb ===
  0x28cb	call   	dword ptr [0x4cbf]
  === BLOCK LINK ===
    0x28d1
=== CODE BLOCK END ===

=== CODE BLOCK ADDRESS 0x28d1 ===
  0x28d1	inc    	esp
  0x28d2	cmp    	dword ptr [esp + 0x28], esp
  0x28d6	jge    	0x2a14
  === BLOCK LINK ===
    0x28dc
=== CODE BLOCK END ===

=== CODE BLOCK ADDRESS 0x28dc ===
  0x28dc	inc    	esp
  0x28dd	cmp    	byte ptr [0x7e8d], ah
  0x28e3	jne    	0x2910
  === BLOCK LINK ===
    0x28e5
=== CODE BLOCK END ===

=== CODE BLOCK ADDRESS 0x28e5 ===
  0x28e5	dec    	eax
  0x28e6	mov    	eax, dword ptr [0x7e74]
  0x28ec	dec    	eax
  0x28ed	test   	eax, eax
  0x28ef	je     	0x2906
  === BLOCK LINK ===
    0x28f1
=== CODE BLOCK END ===

=== CODE BLOCK ADDRESS 0x28f1 ===
  0x28f1	dec    	ecx
  0x28f2	mov    	edx, 0x5c5ca270
  0x28f7	les    	ebx, ptr [esi + 0x15ffdf94]
  0x28fd	.byte  	0x8f
  0x28fe	dec    	esp
  === BLOCK LINK ===
    0x28ff
=== CODE BLOCK END ===

=== CODE BLOCK ADDRESS 0x28ff ===
  0x28ff	add    	byte ptr [eax], al
  0x2901	movzx  	eax, al
  0x2904	jmp    	0x290c
  === BLOCK LINK ===
    0x2906
=== CODE BLOCK END ===

=== CODE BLOCK ADDRESS 0x2906 ===
  0x2906	call   	dword ptr [0x494c]
  === BLOCK LINK ===
    0x290c
=== CODE BLOCK END ===

=== CODE BLOCK ADDRESS 0x290c ===
  0x290c	test   	eax, eax
  0x290e	je     	0x2917
  === BLOCK LINK ===
    0x2910
=== CODE BLOCK END ===

=== CODE BLOCK ADDRESS 0x2910 ===
  0x2910	test   	byte ptr [esp + 0x24], 2
  0x2915	je     	0x2950
  === BLOCK LINK ===
    0x2917
=== CODE BLOCK END ===

=== CODE BLOCK ADDRESS 0x2917 ===
  0x2917	dec    	eax
  0x2918	mov    	eax, dword ptr [0x7e5a]
  0x291e	dec    	eax
  0x291f	test   	eax, eax
  0x2921	je     	0x29b4
  === BLOCK LINK ===
    0x2927
=== CODE BLOCK END ===

=== CODE BLOCK ADDRESS 0x2927 ===
  0x2927	inc    	esp
  0x2928	cmp    	byte ptr [0x7e6a], ah
  0x292e	jne    	0x29b4
  === BLOCK LINK ===
    0x2934
=== CODE BLOCK END ===

=== CODE BLOCK ADDRESS 0x2934 ===
  0x2934	dec    	ecx
  0x2935	mov    	edx, 0x7ede8170
  0x293a	out    	0xb6, al
  0x293c	nop    	
  0x293d	stc    	
  === BLOCK LINK ===
    0x293e
=== CODE BLOCK END ===

=== CODE BLOCK ADDRESS 0x293e ===
  0x293e	inc    	ebp
  0x293f	xor    	eax, eax
  0x2941	xor    	edx, edx
  0x2943	dec    	eax
  0x2944	lea    	ecx, [esp + 0x20]
  === BLOCK LINK ===
    0x2948
=== CODE BLOCK END ===

=== CODE BLOCK ADDRESS 0x2948 ===
  0x2948	call   	dword ptr [0x4c42]
  === BLOCK LINK ===
    0x294e
=== CODE BLOCK END ===

=== CODE BLOCK ADDRESS 0x294e ===
  0x294e	jmp    	0x29b4
  === BLOCK LINK ===
    0x2950
=== CODE BLOCK END ===

=== CODE BLOCK ADDRESS 0x2950 ===
  0x2950	mov    	ebx, 0x800
  0x2955	dec    	eax
  0x2956	mov    	eax, dword ptr [0x7e1c]
  0x295c	dec    	eax
  0x295d	test   	eax, eax
  === BLOCK LINK ===
    0x295f
=== CODE BLOCK END ===

=== CODE BLOCK ADDRESS 0x295f ===
  0x295f	je     	0x2989
  === BLOCK LINK ===
    0x2961
=== CODE BLOCK END ===

=== CODE BLOCK ADDRESS 0x2961 ===
  0x2961	inc    	esp
  0x2962	cmp    	byte ptr [0x7e30], ah
  0x2968	jne    	0x2989
  === BLOCK LINK ===
    0x296a
=== CODE BLOCK END ===

=== CODE BLOCK ADDRESS 0x296a ===
  0x296a	dec    	ecx
  0x296b	mov    	edx, 0x7ede8170
  0x2970	out    	0xb6, al
  0x2972	nop    	
  0x2973	stc    	
  === BLOCK LINK ===
    0x2974
=== CODE BLOCK END ===

=== CODE BLOCK ADDRESS 0x2974 ===
  0x2974	inc    	esp
  0x2975	mov    	eax, ebx
  0x2977	dec    	eax
  0x2978	lea    	edx, [ebp + 0x3d0]
  0x297e	dec    	eax
  === BLOCK LINK ===
    0x297f
=== CODE BLOCK END ===

=== CODE BLOCK ADDRESS 0x297f ===
  0x297f	lea    	ecx, [esp + 0x20]
  0x2983	call   	dword ptr [0x4c07]
  === BLOCK LINK ===
    0x2989
=== CODE BLOCK END ===

=== CODE BLOCK ADDRESS 0x2989 ===
  0x2989	inc    	sp
  0x298b	cmp    	dword ptr [ebp + 0x3d0], esp
  0x2991	jne    	0x29a7
  === BLOCK LINK ===
    0x2993
=== CODE BLOCK END ===

=== CODE BLOCK ADDRESS 0x2993 ===
  0x2993	dec    	esp
  0x2994	lea    	eax, [esp + 0x20]
  0x2998	dec    	eax
  0x2999	mov    	edx, ebx
  0x299b	dec    	eax
  === BLOCK LINK ===
    0x299c
=== CODE BLOCK END ===

=== CODE BLOCK ADDRESS 0x299c ===
  0x299c	lea    	ecx, [ebp + 0x3d0]
  0x29a2	call   	0x372c
  === BLOCK LINK ===
    0x29a7
=== CODE BLOCK END ===

=== CODE BLOCK ADDRESS 0x29a7 ===
  0x29a7	dec    	eax
  0x29a8	lea    	ecx, [ebp + 0x3d0]
  0x29ae	call   	dword ptr [0x489c]
  === BLOCK LINK ===
    0x29b4
=== CODE BLOCK END ===

=== CODE BLOCK ADDRESS 0x29b4 ===
  0x29b4	test   	byte ptr [esp + 0x24], 4
  0x29b9	jne    	0x29c4
  === BLOCK LINK ===
    0x29bb
=== CODE BLOCK END ===

=== CODE BLOCK ADDRESS 0x29bb ===
  0x29bb	inc    	esp
  0x29bc	cmp    	byte ptr [0x7dbe], ah
  0x29c2	je     	0x29e1
  === BLOCK LINK ===
    0x29c4
=== CODE BLOCK END ===

=== CODE BLOCK ADDRESS 0x29c4 ===
  0x29c4	dec    	eax
  0x29c5	mov    	eax, dword ptr [0x7e05]
  0x29cb	dec    	eax
  0x29cc	test   	eax, eax
  0x29ce	je     	0x29e1
  === BLOCK LINK ===
    0x29d0
=== CODE BLOCK END ===

=== CODE BLOCK ADDRESS 0x29d0 ===
  0x29d0	dec    	ecx
  0x29d1	mov    	edx, 0x56da4870
  0x29d6	xchg   	eax, esi
  0x29d7	int1   	
  0x29d9	test   	edi, edi
  === BLOCK LINK ===
    0x29db
=== CODE BLOCK END ===

=== CODE BLOCK ADDRESS 0x29db ===
  0x29db	adc    	eax, 0x4bb0
  0x29e0	nop    	
  0x29e1	test   	byte ptr [esp + 0x24], 1
  0x29e6	jne    	0x2a09
  === BLOCK LINK ===
    0x29e8
=== CODE BLOCK END ===

=== CODE BLOCK ADDRESS 0x29e8 ===
  0x29e8	dec    	eax
  0x29e9	mov    	ecx, dword ptr [ebp + 0x13d0]
  0x29ef	dec    	eax
  0x29f0	xor    	ecx, esp
  0x29f2	call   	0x1450
  === BLOCK LINK ===
    0x29f7
=== CODE BLOCK END ===

=== CODE BLOCK ADDRESS 0x29f7 ===
  0x29f7	dec    	eax
  0x29f8	add    	esp, 0x14e0
  0x29fe	inc    	ecx
  0x29ff	pop    	edi
  0x2a00	inc    	ecx
  === BLOCK LINK ===
    0x2a01
=== CODE BLOCK END ===

=== CODE BLOCK ADDRESS 0x2a01 ===
  0x2a01	pop    	esi
  0x2a02	inc    	ecx
  0x2a03	pop    	esp
  0x2a04	pop    	edi
  0x2a05	pop    	esi
  === BLOCK LINK ===
    0x2a06
=== CODE BLOCK END ===

=== CODE BLOCK ADDRESS 0x2a06 ===
  0x2a06	pop    	ebx
  0x2a07	pop    	ebp
  0x2a08	ret    	
  0x2a09	dec    	eax
  0x2a0a	lea    	ecx, [esp + 0x20]
  === BLOCK LINK ===
    0x2a0e
=== CODE BLOCK END ===

=== CODE BLOCK ADDRESS 0x2a0e ===
  0x2a0e	call   	0x5d74
  === BLOCK LINK ===
    0x2a13
=== CODE BLOCK END ===

=== CODE BLOCK ADDRESS 0x2a13 ===
  0x2a13	nop    	
  0x2a14	call   	0x5e64
  === BLOCK LINK ===
    0x2a19
=== CODE BLOCK END ===

=== CODE BLOCK ADDRESS 0x2a19 ===
  0x2a19	nop    	
  0x2a1a	int3   	
  0x2a1b	int3   	
  0x2a1c	inc    	eax
  0x2a1d	push   	ebx
  === BLOCK LINK ===
    0x2a1e
=== CODE BLOCK END ===

=== CODE BLOCK ADDRESS 0x2a1e ===
  0x2a1e	push   	edi
  0x2a1f	mov    	eax, 0x1538
  0x2a24	call   	0x6a90
  === BLOCK LINK ===
    0x2a29
=== CODE BLOCK END ===

=== CODE BLOCK ADDRESS 0x2a29 ===
  0x2a29	dec    	eax
  0x2a2a	sub    	esp, eax
  0x2a2c	dec    	eax
  0x2a2d	mov    	eax, dword ptr [0x76ad]
  0x2a33	dec    	eax
  === BLOCK LINK ===
    0x2a34
=== CODE BLOCK END ===

=== CODE BLOCK ADDRESS 0x2a34 ===
  0x2a34	xor    	eax, esp
  0x2a36	dec    	eax
  0x2a37	mov    	dword ptr [esp + 0x1520], eax
  0x2a3e	dec    	eax
  0x2a3f	mov    	eax, dword ptr [esp + 0x1588]
  === BLOCK LINK ===
    0x2a46
=== CODE BLOCK END ===

=== CODE BLOCK ADDRESS 0x2a46 ===
  0x2a46	dec    	eax
  0x2a47	lea    	edi, [esp + 0x80]
  0x2a4e	dec    	esp
  0x2a4f	mov    	edx, dword ptr [esp + 0x1580]
  0x2a56	dec    	esp
  === BLOCK LINK ===
    0x2a57
=== CODE BLOCK END ===

=== CODE BLOCK ADDRESS 0x2a57 ===
  0x2a57	mov    	ebx, dword ptr [esp + 0x1578]
  0x2a5e	dec    	eax
  0x2a5f	mov    	ebx, dword ptr [esp + 0x1570]
  0x2a66	dec    	eax
  0x2a67	mov    	dword ptr [esp + 0x70], edi
  === BLOCK LINK ===
    0x2a6b
=== CODE BLOCK END ===

=== CODE BLOCK ADDRESS 0x2a6b ===
  0x2a6b	dec    	eax
  0x2a6c	lea    	edi, [esp + 0x120]
  0x2a73	dec    	eax
  0x2a74	mov    	dword ptr [esp + 0x68], 0x400
  0x2a7c	dec    	eax
  === BLOCK LINK ===
    0x2a7d
=== CODE BLOCK END ===

=== CODE BLOCK ADDRESS 0x2a7d ===
  0x2a7d	mov    	dword ptr [esp + 0x60], edi
  0x2a81	dec    	eax
  0x2a82	lea    	edi, [esp + 0x520]
  0x2a89	dec    	eax
  0x2a8a	mov    	dword ptr [esp + 0x58], 0x800
  === BLOCK LINK ===
    0x2a92
=== CODE BLOCK END ===

=== CODE BLOCK ADDRESS 0x2a92 ===
  0x2a92	dec    	eax
  0x2a93	mov    	dword ptr [esp + 0x50], edi
  0x2a97	mov    	byte ptr [esp + 0x48], 0
  0x2a9c	dec    	eax
  0x2a9d	mov    	dword ptr [esp + 0x40], eax
  === BLOCK LINK ===
    0x2aa1
=== CODE BLOCK END ===

=== CODE BLOCK ADDRESS 0x2aa1 ===
  0x2aa1	dec    	esp
  0x2aa2	mov    	dword ptr [esp + 0x38], edx
  0x2aa6	mov    	dword ptr [esp + 0x30], 2
  0x2aae	dec    	esp
  0x2aaf	mov    	dword ptr [esp + 0x28], ebx
  === BLOCK LINK ===
    0x2ab3
=== CODE BLOCK END ===

=== CODE BLOCK ADDRESS 0x2ab3 ===
  0x2ab3	dec    	eax
  0x2ab4	mov    	dword ptr [esp + 0x20], ebx
  0x2ab8	call   	0x4138
  === BLOCK LINK ===
    0x2abd
=== CODE BLOCK END ===

=== CODE BLOCK ADDRESS 0x2abd ===
  0x2abd	test   	byte ptr [esp + 0x84], 1
  0x2ac5	jne    	0x2ae1
  === BLOCK LINK ===
    0x2ac7
=== CODE BLOCK END ===

=== CODE BLOCK ADDRESS 0x2ac7 ===
  0x2ac7	dec    	eax
  0x2ac8	mov    	ecx, dword ptr [esp + 0x1520]
  0x2acf	dec    	eax
  0x2ad0	xor    	ecx, esp
  0x2ad2	call   	0x1450
  === BLOCK LINK ===
    0x2ad7
=== CODE BLOCK END ===

=== CODE BLOCK ADDRESS 0x2ad7 ===
  0x2ad7	dec    	eax
  0x2ad8	add    	esp, 0x1538
  0x2ade	pop    	edi
  0x2adf	pop    	ebx
  0x2ae0	ret    	
  === BLOCK LINK ===
    0x2ae1
=== CODE BLOCK END ===

=== CODE BLOCK ADDRESS 0x19a4 ===
=== CODE BLOCK END ===

=== CODE BLOCK ADDRESS 0x2ae1 ===
  0x2ae1	dec    	eax
  0x2ae2	lea    	ecx, [esp + 0x80]
  0x2ae9	call   	0x5d74
  === BLOCK LINK ===
    0x2aee
=== CODE BLOCK END ===

=== CODE BLOCK ADDRESS 0x2aee ===
  0x2aee	int3   	
  0x2aef	int3   	
  0x2af0	dec    	eax
  0x2af1	mov    	dword ptr [esp + 8], ebx
  0x2af5	dec    	eax
  === BLOCK LINK ===
    0x2af6
=== CODE BLOCK END ===

=== CODE BLOCK ADDRESS 0x2af6 ===
  0x2af6	mov    	dword ptr [esp + 0x10], ebp
  0x2afa	dec    	eax
  0x2afb	mov    	dword ptr [esp + 0x18], esi
  0x2aff	push   	edi
  0x2b00	dec    	eax
  === BLOCK LINK ===
    0x2b01
=== CODE BLOCK END ===

=== CODE BLOCK ADDRESS 0x2b01 ===
  0x2b01	sub    	esp, 0x20
  0x2b04	xor    	ebp, ebp
  0x2b06	dec    	ecx
  0x2b07	mov    	ebx, ecx
  0x2b09	dec    	eax
  === BLOCK LINK ===
    0x2b0a
=== CODE BLOCK END ===

=== CODE BLOCK ADDRESS 0x2b0a ===
  0x2b0a	mov    	edi, ecx
  0x2b0c	dec    	eax
  0x2b0d	cmp    	ecx, edx
  0x2b0f	je     	0x2b50
  === BLOCK LINK ===
    0x2b11
=== CODE BLOCK END ===

=== CODE BLOCK ADDRESS 0x2b11 ===
  0x2b11	dec    	ebp
  0x2b12	test   	eax, eax
  0x2b14	je     	0x2b50
  === BLOCK LINK ===
    0x2b16
=== CODE BLOCK END ===

=== CODE BLOCK ADDRESS 0x2b16 ===
  0x2b16	inc    	cx
  0x2b18	cmp    	dword ptr [eax], ebp
  0x2b1a	je     	0x2b50
  === BLOCK LINK ===
    0x2b1c
=== CODE BLOCK END ===

=== CODE BLOCK ADDRESS 0x2b1c ===
  0x2b1c	dec    	eax
  0x2b1d	or     	eax, 0xffffffff
  0x2b20	dec    	eax
  0x2b21	inc    	eax
  0x2b23	inc    	cx
  === BLOCK LINK ===
    0x2b25
=== CODE BLOCK END ===

=== CODE BLOCK ADDRESS 0x2b25 ===
  0x2b25	cmp    	dword ptr [eax + eax*2], ebp
  0x2b28	jne    	0x2b20
  === BLOCK LINK ===
    0x2b2a
=== CODE BLOCK END ===

=== CODE BLOCK ADDRESS 0x2b2a ===
  0x2b2a	dec    	eax
  0x2b2b	lea    	esi, [eax*2 + 2]
  0x2b32	dec    	eax
  0x2b33	sub    	edx, edi
  0x2b35	dec    	eax
  === BLOCK LINK ===
    0x2b36
=== CODE BLOCK END ===

=== CODE BLOCK ADDRESS 0x2b36 ===
  0x2b36	cmp    	edx, esi
  0x2b38	jb     	0x2b50
  === BLOCK LINK ===
    0x2b3a
=== CODE BLOCK END ===

=== CODE BLOCK ADDRESS 0x2b3a ===
  0x2b3a	dec    	esp
  0x2b3b	mov    	ecx, esi
  0x2b3d	call   	0x60f4
  === BLOCK LINK ===
    0x2b42
=== CODE BLOCK END ===

=== CODE BLOCK ADDRESS 0x2b42 ===
  0x2b42	dec    	eax
  0x2b43	test   	ebx, ebx
  0x2b45	je     	0x2b4a
  === BLOCK LINK ===
    0x2b47
=== CODE BLOCK END ===

=== CODE BLOCK ADDRESS 0x2b47 ===
  0x2b47	dec    	eax
  0x2b48	mov    	dword ptr [ebx], edi
  0x2b4a	dec    	eax
  0x2b4b	lea    	eax, [esi + edi]
  0x2b4e	jmp    	0x2b5b
  === BLOCK LINK ===
    0x2b50
=== CODE BLOCK END ===

=== CODE BLOCK ADDRESS 0x2b50 ===
  0x2b50	dec    	eax
  0x2b51	test   	ebx, ebx
  0x2b53	je     	0x2b58
  === BLOCK LINK ===
    0x2b55
=== CODE BLOCK END ===

=== CODE BLOCK ADDRESS 0x2b55 ===
  0x2b55	dec    	ecx
  0x2b56	mov    	dword ptr [ecx], ebp
  0x2b58	dec    	eax
  0x2b59	mov    	eax, edi
  0x2b5b	dec    	eax
  === BLOCK LINK ===
    0x2b5c
=== CODE BLOCK END ===

=== CODE BLOCK ADDRESS 0x2b5c ===
  0x2b5c	mov    	ebx, dword ptr [esp + 0x30]
  0x2b60	dec    	eax
  0x2b61	mov    	ebp, dword ptr [esp + 0x38]
  0x2b65	dec    	eax
  0x2b66	mov    	esi, dword ptr [esp + 0x40]
  === BLOCK LINK ===
    0x2b6a
=== CODE BLOCK END ===

=== CODE BLOCK ADDRESS 0x2b6a ===
  0x2b6a	dec    	eax
  0x2b6b	add    	esp, 0x20
  0x2b6e	pop    	edi
  0x2b6f	ret    	
  0x2b70	inc    	eax
  === BLOCK LINK ===
    0x2b71
=== CODE BLOCK END ===

=== CODE BLOCK ADDRESS 0x2b71 ===
  0x2b71	push   	ebx
  0x2b72	dec    	eax
  0x2b73	sub    	esp, 0x20
  0x2b76	xorps  	xmm0, xmm0
  0x2b79	dec    	eax
  === BLOCK LINK ===
    0x2b7a
=== CODE BLOCK END ===

=== CODE BLOCK ADDRESS 0x2b7a ===
  0x2b7a	lea    	eax, [0x4558]
  0x2b80	movups  	xmmword ptr [ecx + 8], xmm0
  0x2b84	dec    	eax
  0x2b85	mov    	dword ptr [ecx], eax
  0x2b87	dec    	eax
  === BLOCK LINK ===
    0x2b88
=== CODE BLOCK END ===

=== CODE BLOCK ADDRESS 0x2b88 ===
  0x2b88	mov    	ebx, ecx
  0x2b8a	dec    	eax
  0x2b8b	and    	dword ptr [ecx + 0xb0], 0
  0x2b92	dec    	eax
  0x2b93	add    	ecx, 0x18
  === BLOCK LINK ===
    0x2b96
=== CODE BLOCK END ===

=== CODE BLOCK ADDRESS 0x2b96 ===
  0x2b96	dec    	eax
  0x2b97	and    	dword ptr [ecx + 0xa0], 0
  0x2b9e	call   	0x4fcc
  === BLOCK LINK ===
    0x2ba3
=== CODE BLOCK END ===

=== CODE BLOCK ADDRESS 0x2ba3 ===
  0x2ba3	dec    	eax
  0x2ba4	and    	dword ptr [ebx + 0xc0], 0
  0x2bab	dec    	eax
  0x2bac	mov    	eax, ebx
  0x2bae	dec    	eax
  === BLOCK LINK ===
    0x2baf
=== CODE BLOCK END ===

=== CODE BLOCK ADDRESS 0x2baf ===
  0x2baf	and    	dword ptr [ebx + 0xc8], 0
  0x2bb6	dec    	eax
  0x2bb7	add    	esp, 0x20
  0x2bba	pop    	ebx
  0x2bbb	ret    	
  === BLOCK LINK ===
    0x2bbc
=== CODE BLOCK END ===

=== CODE BLOCK ADDRESS 0x2bbc ===
  0x2bbc	dec    	eax
  0x2bbd	mov    	dword ptr [esp + 8], ebx
  0x2bc1	push   	edi
  0x2bc2	dec    	eax
  0x2bc3	sub    	esp, 0x20
  === BLOCK LINK ===
    0x2bc6
=== CODE BLOCK END ===

=== CODE BLOCK ADDRESS 0x2bc6 ===
  0x2bc6	dec    	eax
  0x2bc7	mov    	edi, edx
  0x2bc9	dec    	eax
  0x2bca	lea    	eax, [0x4458]
  0x2bd0	dec    	eax
  === BLOCK LINK ===
    0x2bd1
=== CODE BLOCK END ===

=== CODE BLOCK ADDRESS 0x2bd1 ===
  0x2bd1	mov    	dword ptr [ecx], eax
  0x2bd3	dec    	eax
  0x2bd4	lea    	edx, [ecx + 8]
  0x2bd7	dec    	eax
  0x2bd8	mov    	ebx, ecx
  === BLOCK LINK ===
    0x2bda
=== CODE BLOCK END ===

=== CODE BLOCK ADDRESS 0x2bda ===
  0x2bda	xorps  	xmm0, xmm0
  0x2bdd	movups  	xmmword ptr [edx], xmm0
  0x2be0	dec    	eax
  0x2be1	lea    	ecx, [edi + 8]
  0x2be4	call   	0x2010
  === BLOCK LINK ===
    0x2be9
=== CODE BLOCK END ===

=== CODE BLOCK ADDRESS 0x2be9 ===
  0x2be9	inc    	ecx
  0x2bea	mov    	ecx, 0x80
  0x2bef	dec    	eax
  0x2bf0	lea    	eax, [0x44e2]
  0x2bf6	dec    	eax
  === BLOCK LINK ===
    0x2bf7
=== CODE BLOCK END ===

=== CODE BLOCK ADDRESS 0x2bf7 ===
  0x2bf7	mov    	dword ptr [ebx], eax
  0x2bf9	movups  	xmm0, xmmword ptr [edi + 0x18]
  0x2bfd	movups  	xmmword ptr [ebx + 0x18], xmm0
  0x2c01	movups  	xmm1, xmmword ptr [edi + 0x28]
  0x2c05	movups  	xmmword ptr [ebx + 0x28], xmm1
  === BLOCK LINK ===
    0x2c09
=== CODE BLOCK END ===

=== CODE BLOCK ADDRESS 0x2c09 ===
  0x2c09	movups  	xmm0, xmmword ptr [edi + 0x38]
  0x2c0d	movups  	xmmword ptr [ebx + 0x38], xmm0
  0x2c11	movups  	xmm1, xmmword ptr [edi + 0x48]
  0x2c15	movups  	xmmword ptr [ebx + 0x48], xmm1
  0x2c19	movups  	xmm0, xmmword ptr [edi + 0x58]
  === BLOCK LINK ===
    0x2c1d
=== CODE BLOCK END ===

=== CODE BLOCK ADDRESS 0x2c1d ===
  0x2c1d	movups  	xmmword ptr [ebx + 0x58], xmm0
  0x2c21	movups  	xmm1, xmmword ptr [edi + 0x68]
  0x2c25	movups  	xmmword ptr [ebx + 0x68], xmm1
  0x2c29	movups  	xmm0, xmmword ptr [edi + 0x78]
  0x2c2d	movups  	xmmword ptr [ebx + 0x78], xmm0
  === BLOCK LINK ===
    0x2c31
=== CODE BLOCK END ===

=== CODE BLOCK ADDRESS 0x2c31 ===
  0x2c31	movups  	xmm0, xmmword ptr [edi + 0x88]
  0x2c38	inc    	edx
  0x2c39	movups  	xmmword ptr [ebx + ecx + 8], xmm0
  0x2c3e	inc    	edx
  0x2c3f	movups  	xmm1, xmmword ptr [edi + ecx + 0x18]
  === BLOCK LINK ===
    0x2c44
=== CODE BLOCK END ===

=== CODE BLOCK ADDRESS 0x2c44 ===
  0x2c44	inc    	edx
  0x2c45	movups  	xmmword ptr [ebx + ecx + 0x18], xmm1
  0x2c4a	dec    	edx
  0x2c4b	mov    	eax, dword ptr [edi + ecx + 0x28]
  0x2c4f	dec    	edx
  === BLOCK LINK ===
    0x2c50
=== CODE BLOCK END ===

=== CODE BLOCK ADDRESS 0x2c50 ===
  0x2c50	mov    	dword ptr [ebx + ecx + 0x28], eax
  0x2c54	inc    	ebp
  0x2c55	xor    	ecx, ecx
  0x2c57	dec    	esp
  0x2c58	mov    	dword ptr [ebx + 0xb0], ecx
  === BLOCK LINK ===
    0x2c5e
=== CODE BLOCK END ===

=== CODE BLOCK ADDRESS 0x2c5e ===
  0x2c5e	dec    	esp
  0x2c5f	mov    	dword ptr [ebx + 0xb8], ecx
  0x2c65	dec    	eax
  0x2c66	mov    	eax, dword ptr [edi + 0xb0]
  0x2c6c	dec    	eax
  === BLOCK LINK ===
    0x2c6d
=== CODE BLOCK END ===

=== CODE BLOCK ADDRESS 0x2c6d ===
  0x2c6d	mov    	ecx, dword ptr [edi + 0xb8]
  0x2c73	dec    	eax
  0x2c74	test   	eax, eax
  0x2c76	je     	0x2c89
  === BLOCK LINK ===
    0x2c78
=== CODE BLOCK END ===

=== CODE BLOCK ADDRESS 0x2c78 ===
  0x2c78	dec    	eax
  0x2c79	mov    	dword ptr [ebx + 0xb0], eax
  0x2c7f	dec    	eax
  0x2c80	mov    	dword ptr [ebx + 0xb8], ecx
  0x2c86	lock inc  	dword ptr [eax]
  === BLOCK LINK ===
    0x2c89
=== CODE BLOCK END ===

=== CODE BLOCK ADDRESS 0x2c89 ===
  0x2c89	dec    	esp
  0x2c8a	mov    	dword ptr [ebx + 0xc0], ecx
  0x2c90	dec    	esp
  0x2c91	mov    	dword ptr [ebx + 0xc8], ecx
  0x2c97	dec    	eax
  === BLOCK LINK ===
    0x2c98
=== CODE BLOCK END ===

=== CODE BLOCK ADDRESS 0x2c98 ===
  0x2c98	mov    	eax, dword ptr [edi + 0xc0]
  0x2c9e	dec    	eax
  0x2c9f	mov    	ecx, dword ptr [edi + 0xc8]
  0x2ca5	dec    	eax
  0x2ca6	test   	eax, eax
  === BLOCK LINK ===
    0x2ca8
=== CODE BLOCK END ===

=== CODE BLOCK ADDRESS 0x2ca8 ===
  0x2ca8	je     	0x2cbb
  === BLOCK LINK ===
    0x2caa
=== CODE BLOCK END ===

=== CODE BLOCK ADDRESS 0x2caa ===
  0x2caa	dec    	eax
  0x2cab	mov    	dword ptr [ebx + 0xc0], eax
  0x2cb1	dec    	eax
  0x2cb2	mov    	dword ptr [ebx + 0xc8], ecx
  0x2cb8	lock inc  	dword ptr [eax]
  === BLOCK LINK ===
    0x2cbb
=== CODE BLOCK END ===

=== CODE BLOCK ADDRESS 0x2cbb ===
  0x2cbb	dec    	eax
  0x2cbc	mov    	eax, ebx
  0x2cbe	dec    	eax
  0x2cbf	mov    	ebx, dword ptr [esp + 0x30]
  0x2cc3	dec    	eax
  === BLOCK LINK ===
    0x2cc4
=== CODE BLOCK END ===

=== CODE BLOCK ADDRESS 0x2cc4 ===
  0x2cc4	add    	esp, 0x20
  0x2cc7	pop    	edi
  0x2cc8	ret    	
  0x2cc9	int3   	
  0x2cca	int3   	
  === BLOCK LINK ===
    0x2ccb
=== CODE BLOCK END ===

=== CODE BLOCK ADDRESS 0x2ccb ===
  0x2ccb	int3   	
  0x2ccc	inc    	eax
  0x2ccd	push   	ebx
  0x2cce	dec    	eax
  0x2ccf	sub    	esp, 0x20
  === BLOCK LINK ===
    0x2cd2
=== CODE BLOCK END ===

=== CODE BLOCK ADDRESS 0x2cd2 ===
  0x2cd2	dec    	eax
  0x2cd3	mov    	ebx, ecx
  0x2cd5	dec    	eax
  0x2cd6	mov    	eax, edx
  0x2cd8	dec    	eax
  === BLOCK LINK ===
    0x2cd9
=== CODE BLOCK END ===

=== CODE BLOCK ADDRESS 0x2cd9 ===
  0x2cd9	lea    	ecx, [0x4349]
  0x2cdf	xorps  	xmm0, xmm0
  0x2ce2	dec    	eax
  0x2ce3	mov    	dword ptr [ebx], ecx
  0x2ce5	dec    	eax
  === BLOCK LINK ===
    0x2ce6
=== CODE BLOCK END ===

=== CODE BLOCK ADDRESS 0x2ce6 ===
  0x2ce6	lea    	edx, [ebx + 8]
  0x2ce9	dec    	eax
  0x2cea	lea    	ecx, [eax + 8]
  0x2ced	movups  	xmmword ptr [edx], xmm0
  0x2cf0	call   	0x2010
  === BLOCK LINK ===
    0x2cf5
=== CODE BLOCK END ===

=== CODE BLOCK ADDRESS 0x2cf5 ===
  0x2cf5	dec    	eax
  0x2cf6	mov    	eax, ebx
  0x2cf8	dec    	eax
  0x2cf9	add    	esp, 0x20
  0x2cfc	pop    	ebx
  === BLOCK LINK ===
    0x2cfd
=== CODE BLOCK END ===

=== CODE BLOCK ADDRESS 0x2cfd ===
  0x2cfd	ret    	
  0x2cfe	int3   	
  0x2cff	int3   	
  0x2d00	dec    	eax
  0x2d01	sub    	esp, 0x38
  === BLOCK LINK ===
    0x2d04
=== CODE BLOCK END ===

=== CODE BLOCK ADDRESS 0x2d04 ===
  0x2d04	dec    	eax
  0x2d05	mov    	dword ptr [esp + 0x20], 0xfffffffe
  0x2d0d	dec    	eax
  0x2d0e	mov    	eax, ecx
  0x2d10	dec    	eax
  === BLOCK LINK ===
    0x2d11
=== CODE BLOCK END ===

=== CODE BLOCK ADDRESS 0x2d11 ===
  0x2d11	mov    	ecx, dword ptr [ecx]
  0x2d13	dec    	eax
  0x2d14	test   	ecx, ecx
  0x2d16	je     	0x2d34
  === BLOCK LINK ===
    0x2d18
=== CODE BLOCK END ===

=== CODE BLOCK ADDRESS 0x2d18 ===
  0x2d18	dec    	eax
  0x2d19	and    	dword ptr [eax], 0
  0x2d1c	dec    	eax
  0x2d1d	mov    	eax, dword ptr [ecx]
  0x2d1f	dec    	ecx
  === BLOCK LINK ===
    0x2d20
=== CODE BLOCK END ===

=== CODE BLOCK ADDRESS 0x2d20 ===
  0x2d20	mov    	edx, 0x365eb170
  0x2d25	adc    	byte ptr [edi], bl
  0x2d27	lodsb  	al, byte ptr [esi]
  0x2d28	mov    	edx, 0x10408b48
  0x2d2d	call   	dword ptr [0x485d]
  === BLOCK LINK ===
    0x2d33
=== CODE BLOCK END ===

=== CODE BLOCK ADDRESS 0x2d33 ===
  0x2d33	nop    	
  0x2d34	dec    	eax
  0x2d35	add    	esp, 0x38
  0x2d38	ret    	
  0x2d39	int3   	
  === BLOCK LINK ===
    0x2d3a
=== CODE BLOCK END ===

=== CODE BLOCK ADDRESS 0x2d3a ===
  0x2d3a	int3   	
  0x2d3b	int3   	
  0x2d3c	inc    	eax
  0x2d3d	push   	ebx
  0x2d3e	dec    	eax
  === BLOCK LINK ===
    0x2d3f
=== CODE BLOCK END ===

=== CODE BLOCK ADDRESS 0x2d3f ===
  0x2d3f	sub    	esp, 0x20
  0x2d42	dec    	eax
  0x2d43	mov    	ebx, ecx
  0x2d45	dec    	eax
  0x2d46	add    	ecx, 0x28
  === BLOCK LINK ===
    0x2d49
=== CODE BLOCK END ===

=== CODE BLOCK ADDRESS 0x2d49 ===
  0x2d49	call   	0x2e28
  === BLOCK LINK ===
    0x2d4e
=== CODE BLOCK END ===

=== CODE BLOCK ADDRESS 0x2d4e ===
  0x2d4e	dec    	eax
  0x2d4f	mov    	ecx, dword ptr [ebx + 0x18]
  0x2d52	dec    	eax
  0x2d53	test   	ecx, ecx
  0x2d55	je     	0x2d61
  === BLOCK LINK ===
    0x2d57
=== CODE BLOCK END ===

=== CODE BLOCK ADDRESS 0x2d57 ===
  0x2d57	call   	dword ptr [0x4543]
  === BLOCK LINK ===
    0x2d5d
=== CODE BLOCK END ===

=== CODE BLOCK ADDRESS 0x2d5d ===
  0x2d5d	test   	eax, eax
  0x2d5f	je     	0x2d9d
  === BLOCK LINK ===
    0x2d61
=== CODE BLOCK END ===

=== CODE BLOCK ADDRESS 0x2d61 ===
  0x2d61	dec    	eax
  0x2d62	mov    	ecx, dword ptr [ebx + 0x10]
  0x2d65	dec    	eax
  0x2d66	test   	ecx, ecx
  0x2d68	je     	0x2d74
  === BLOCK LINK ===
    0x2d6a
=== CODE BLOCK END ===

=== CODE BLOCK ADDRESS 0x2d6a ===
  0x2d6a	call   	dword ptr [0x4530]
  === BLOCK LINK ===
    0x2d70
=== CODE BLOCK END ===

=== CODE BLOCK ADDRESS 0x2d70 ===
  0x2d70	test   	eax, eax
  0x2d72	je     	0x2dad
  === BLOCK LINK ===
    0x2d74
=== CODE BLOCK END ===

=== CODE BLOCK ADDRESS 0x2d74 ===
  0x2d74	dec    	eax
  0x2d75	mov    	ecx, dword ptr [ebx + 8]
  0x2d78	dec    	eax
  0x2d79	test   	ecx, ecx
  0x2d7b	je     	0x2d87
  === BLOCK LINK ===
    0x2d7d
=== CODE BLOCK END ===

=== CODE BLOCK ADDRESS 0x2d7d ===
  0x2d7d	call   	dword ptr [0x451d]
  === BLOCK LINK ===
    0x2d83
=== CODE BLOCK END ===

=== CODE BLOCK ADDRESS 0x2d83 ===
  0x2d83	test   	eax, eax
  0x2d85	je     	0x2d8d
  === BLOCK LINK ===
    0x2d87
=== CODE BLOCK END ===

=== CODE BLOCK ADDRESS 0x2d87 ===
  0x2d87	dec    	eax
  0x2d88	add    	esp, 0x20
  0x2d8b	pop    	ebx
  0x2d8c	ret    	
  0x2d8d	dec    	eax
  === BLOCK LINK ===
    0x2d8e
=== CODE BLOCK END ===

=== CODE BLOCK ADDRESS 0x2d8e ===
  0x2d8e	mov    	ecx, dword ptr [esp + 0x28]
  0x2d92	mov    	edx, 0x937
  0x2d97	call   	0x5e6c
  === BLOCK LINK ===
    0x2d9c
=== CODE BLOCK END ===

=== CODE BLOCK ADDRESS 0x2d9c ===
  0x2d9c	int3   	
  0x2d9d	dec    	eax
  0x2d9e	mov    	ecx, dword ptr [esp + 0x28]
  0x2da2	mov    	edx, 0x937
  0x2da7	call   	0x5e6c
  === BLOCK LINK ===
    0x2dac
=== CODE BLOCK END ===

=== CODE BLOCK ADDRESS 0x2dac ===
  0x2dac	int3   	
  0x2dad	dec    	eax
  0x2dae	mov    	ecx, dword ptr [esp + 0x28]
  0x2db2	mov    	edx, 0x937
  0x2db7	call   	0x5e6c
  === BLOCK LINK ===
    0x2dbc
=== CODE BLOCK END ===

=== CODE BLOCK ADDRESS 0x2dbc ===
  0x2dbc	int3   	
  0x2dbd	int3   	
  0x2dbe	int3   	
  0x2dbf	int3   	
  0x2dc0	dec    	eax
  === BLOCK LINK ===
    0x2dc1
=== CODE BLOCK END ===

=== CODE BLOCK ADDRESS 0x2dc1 ===
  0x2dc1	mov    	dword ptr [esp + 8], ebx
  0x2dc5	dec    	eax
  0x2dc6	mov    	dword ptr [esp + 0x10], ebp
  0x2dca	dec    	eax
  0x2dcb	mov    	dword ptr [esp + 0x18], esi
  === BLOCK LINK ===
    0x2dcf
=== CODE BLOCK END ===

=== CODE BLOCK ADDRESS 0x2dcf ===
  0x2dcf	push   	edi
  0x2dd0	dec    	eax
  0x2dd1	sub    	esp, 0x20
  0x2dd4	dec    	eax
  0x2dd5	lea    	ebp, [ecx + 0x50]
  === BLOCK LINK ===
    0x2dd8
=== CODE BLOCK END ===

=== CODE BLOCK ADDRESS 0x2dd8 ===
  0x2dd8	dec    	eax
  0x2dd9	mov    	edi, ecx
  0x2ddb	dec    	eax
  0x2ddc	cmp    	ecx, ebp
  0x2dde	je     	0x2e11
  === BLOCK LINK ===
    0x2de0
=== CODE BLOCK END ===

=== CODE BLOCK ADDRESS 0x2de0 ===
  0x2de0	dec    	eax
  0x2de1	mov    	esi, dword ptr [edi]
  0x2de3	jmp    	0x2e00
  === BLOCK LINK ===
    0x2de5
=== CODE BLOCK END ===

=== CODE BLOCK ADDRESS 0x2de5 ===
  0x2de5	dec    	eax
  0x2de6	mov    	ebx, esi
  0x2de8	dec    	eax
  0x2de9	mov    	esi, dword ptr [esi + 8]
  0x2dec	call   	dword ptr [0x44ce]
  === BLOCK LINK ===
    0x2df2
=== CODE BLOCK END ===

=== CODE BLOCK ADDRESS 0x2df2 ===
  0x2df2	dec    	esp
  0x2df3	mov    	eax, ebx
  0x2df5	xor    	edx, edx
  0x2df7	dec    	eax
  0x2df8	mov    	ecx, eax
  === BLOCK LINK ===
    0x2dfa
=== CODE BLOCK END ===

=== CODE BLOCK ADDRESS 0x2dfa ===
  0x2dfa	call   	dword ptr [0x44b0]
  === BLOCK LINK ===
    0x2e00
=== CODE BLOCK END ===

=== CODE BLOCK ADDRESS 0x2e00 ===
  0x2e00	dec    	eax
  0x2e01	test   	esi, esi
  0x2e03	jne    	0x2de5
  === BLOCK LINK ===
    0x2e05
=== CODE BLOCK END ===

=== CODE BLOCK ADDRESS 0x2e05 ===
  0x2e05	dec    	eax
  0x2e06	mov    	dword ptr [edi], esi
  0x2e08	dec    	eax
  0x2e09	add    	edi, 8
  0x2e0c	dec    	eax
  === BLOCK LINK ===
    0x2e0d
=== CODE BLOCK END ===

=== CODE BLOCK ADDRESS 0x2e0d ===
  0x2e0d	cmp    	edi, ebp
  0x2e0f	jne    	0x2de0
  === BLOCK LINK ===
    0x2e11
=== CODE BLOCK END ===

=== CODE BLOCK ADDRESS 0x2e11 ===
  0x2e11	dec    	eax
  0x2e12	mov    	ebx, dword ptr [esp + 0x30]
  0x2e16	dec    	eax
  0x2e17	mov    	ebp, dword ptr [esp + 0x38]
  0x2e1b	dec    	eax
  === BLOCK LINK ===
    0x2e1c
=== CODE BLOCK END ===

=== CODE BLOCK ADDRESS 0x2e1c ===
  0x2e1c	mov    	esi, dword ptr [esp + 0x40]
  0x2e20	dec    	eax
  0x2e21	add    	esp, 0x20
  0x2e24	pop    	edi
  0x2e25	ret    	
  === BLOCK LINK ===
    0x2e26
=== CODE BLOCK END ===

=== CODE BLOCK ADDRESS 0x2e26 ===
  0x2e26	int3   	
  0x2e27	int3   	
  0x2e28	dec    	eax
  0x2e29	mov    	dword ptr [esp + 8], ebx
  0x2e2d	dec    	eax
  === BLOCK LINK ===
    0x2e2e
=== CODE BLOCK END ===

=== CODE BLOCK ADDRESS 0x2e2e ===
  0x2e2e	mov    	dword ptr [esp + 0x10], ebp
  0x2e32	dec    	eax
  0x2e33	mov    	dword ptr [esp + 0x18], esi
  0x2e37	push   	edi
  0x2e38	dec    	eax
  === BLOCK LINK ===
    0x2e39
=== CODE BLOCK END ===

=== CODE BLOCK ADDRESS 0x2e39 ===
  0x2e39	sub    	esp, 0x20
  0x2e3c	dec    	eax
  0x2e3d	lea    	ebp, [ecx + 0x50]
  0x2e40	dec    	eax
  0x2e41	mov    	edi, ecx
  === BLOCK LINK ===
    0x2e43
=== CODE BLOCK END ===

=== CODE BLOCK ADDRESS 0x2e43 ===
  0x2e43	dec    	eax
  0x2e44	cmp    	ecx, ebp
  0x2e46	je     	0x2e82
  === BLOCK LINK ===
    0x2e48
=== CODE BLOCK END ===

=== CODE BLOCK ADDRESS 0x2e48 ===
  0x2e48	dec    	eax
  0x2e49	mov    	esi, dword ptr [edi]
  0x2e4b	jmp    	0x2e71
  === BLOCK LINK ===
    0x2e4d
=== CODE BLOCK END ===

=== CODE BLOCK ADDRESS 0x2e4d ===
  0x2e4d	dec    	eax
  0x2e4e	mov    	ebx, esi
  0x2e50	dec    	eax
  0x2e51	mov    	esi, dword ptr [esi + 8]
  0x2e54	dec    	eax
  === BLOCK LINK ===
    0x2e55
=== CODE BLOCK END ===

=== CODE BLOCK ADDRESS 0x2e55 ===
  0x2e55	lea    	ecx, [ebx + 0x10]
  0x2e58	call   	0x2fa8
  === BLOCK LINK ===
    0x2e5d
=== CODE BLOCK END ===

=== CODE BLOCK ADDRESS 0x2e5d ===
  0x2e5d	call   	dword ptr [0x445d]
  === BLOCK LINK ===
    0x2e63
=== CODE BLOCK END ===

=== CODE BLOCK ADDRESS 0x2e63 ===
  0x2e63	dec    	esp
  0x2e64	mov    	eax, ebx
  0x2e66	xor    	edx, edx
  0x2e68	dec    	eax
  0x2e69	mov    	ecx, eax
  === BLOCK LINK ===
    0x2e6b
=== CODE BLOCK END ===

=== CODE BLOCK ADDRESS 0x2e6b ===
  0x2e6b	call   	dword ptr [0x443f]
  === BLOCK LINK ===
    0x2e71
=== CODE BLOCK END ===

=== CODE BLOCK ADDRESS 0x2e71 ===
  0x2e71	dec    	eax
  0x2e72	test   	esi, esi
  0x2e74	jne    	0x2e4d
  === BLOCK LINK ===
    0x2e76
=== CODE BLOCK END ===

=== CODE BLOCK ADDRESS 0x2e76 ===
  0x2e76	dec    	eax
  0x2e77	mov    	dword ptr [edi], esi
  0x2e79	dec    	eax
  0x2e7a	add    	edi, 8
  0x2e7d	dec    	eax
  === BLOCK LINK ===
    0x2e7e
=== CODE BLOCK END ===

=== CODE BLOCK ADDRESS 0x2e7e ===
  0x2e7e	cmp    	edi, ebp
  0x2e80	jne    	0x2e48
  === BLOCK LINK ===
    0x2e82
=== CODE BLOCK END ===

=== CODE BLOCK ADDRESS 0x2e82 ===
  0x2e82	dec    	eax
  0x2e83	mov    	ebx, dword ptr [esp + 0x30]
  0x2e87	dec    	eax
  0x2e88	mov    	ebp, dword ptr [esp + 0x38]
  0x2e8c	dec    	eax
  === BLOCK LINK ===
    0x2e8d
=== CODE BLOCK END ===

=== CODE BLOCK ADDRESS 0x2e8d ===
  0x2e8d	mov    	esi, dword ptr [esp + 0x40]
  0x2e91	dec    	eax
  0x2e92	add    	esp, 0x20
  0x2e95	pop    	edi
  0x2e96	ret    	
  === BLOCK LINK ===
    0x2e97
=== CODE BLOCK END ===

=== CODE BLOCK ADDRESS 0x6180 ===
=== CODE BLOCK END ===

=== CODE BLOCK ADDRESS 0x2e97 ===
  0x2e97	int3   	
  0x2e98	dec    	eax
  0x2e99	sub    	esp, 0x28
  0x2e9c	dec    	eax
  0x2e9d	mov    	ecx, dword ptr [ecx]
  === BLOCK LINK ===
    0x2e9f
=== CODE BLOCK END ===

=== CODE BLOCK ADDRESS 0x2e9f ===
  0x2e9f	dec    	eax
  0x2ea0	test   	ecx, ecx
  0x2ea2	je     	0x2eae
  === BLOCK LINK ===
    0x2ea4
=== CODE BLOCK END ===

=== CODE BLOCK ADDRESS 0x2ea4 ===
  0x2ea4	call   	dword ptr [0x43f6]
  === BLOCK LINK ===
    0x2eaa
=== CODE BLOCK END ===

=== CODE BLOCK ADDRESS 0x2eaa ===
  0x2eaa	test   	eax, eax
  0x2eac	je     	0x2eb3
  === BLOCK LINK ===
    0x2eae
=== CODE BLOCK END ===

=== CODE BLOCK ADDRESS 0x2eae ===
  0x2eae	dec    	eax
  0x2eaf	add    	esp, 0x28
  0x2eb2	ret    	
  0x2eb3	dec    	eax
  0x2eb4	mov    	ecx, dword ptr [esp + 0x28]
  === BLOCK LINK ===
    0x2eb8
=== CODE BLOCK END ===

=== CODE BLOCK ADDRESS 0x1b08 ===
  0x1b08	dec    	eax
  0x1b09	sub    	esp, 0x28
  === BLOCK LINK ===
    0x1b0c
=== CODE BLOCK END ===

=== CODE BLOCK ADDRESS 0x2eb8 ===
  0x2eb8	mov    	edx, 0x937
  0x2ebd	call   	0x5e6c
  === BLOCK LINK ===
    0x2ec2
=== CODE BLOCK END ===

=== CODE BLOCK ADDRESS 0x2ec2 ===
  0x2ec2	int3   	
  0x2ec3	int3   	
  0x2ec4	dec    	eax
  0x2ec5	sub    	esp, 0x28
  0x2ec8	dec    	eax
  === BLOCK LINK ===
    0x2ec9
=== CODE BLOCK END ===

=== CODE BLOCK ADDRESS 0x2ec9 ===
  0x2ec9	mov    	ecx, dword ptr [ecx]
  0x2ecb	dec    	eax
  0x2ecc	test   	ecx, ecx
  0x2ece	je     	0x2eda
  === BLOCK LINK ===
    0x2ed0
=== CODE BLOCK END ===

=== CODE BLOCK ADDRESS 0x2ed0 ===
  0x2ed0	call   	dword ptr [0x44aa]
  === BLOCK LINK ===
    0x2ed6
=== CODE BLOCK END ===

=== CODE BLOCK ADDRESS 0x2ed6 ===
  0x2ed6	test   	eax, eax
  0x2ed8	je     	0x2edf
  === BLOCK LINK ===
    0x2eda
=== CODE BLOCK END ===

=== CODE BLOCK ADDRESS 0x2eda ===
  0x2eda	dec    	eax
  0x2edb	add    	esp, 0x28
  0x2ede	ret    	
  0x2edf	dec    	eax
  0x2ee0	mov    	ecx, dword ptr [esp + 0x28]
  === BLOCK LINK ===
    0x2ee4
=== CODE BLOCK END ===

=== CODE BLOCK ADDRESS 0x2ee4 ===
  0x2ee4	mov    	edx, 0x941
  0x2ee9	call   	0x5e6c
  === BLOCK LINK ===
    0x2eee
=== CODE BLOCK END ===

=== CODE BLOCK ADDRESS 0x2eee ===
  0x2eee	int3   	
  0x2eef	int3   	
  0x2ef0	dec    	eax
  0x2ef1	and    	dword ptr [ecx + 0x18], 0
  0x2ef5	ret    	
  === BLOCK LINK ===
    0x2ef6
=== CODE BLOCK END ===

=== CODE BLOCK ADDRESS 0x2ef6 ===
  0x2ef6	int3   	
  0x2ef7	int3   	
  0x2ef8	dec    	eax
  0x2ef9	mov    	dword ptr [esp + 8], ebx
  0x2efd	push   	edi
  === BLOCK LINK ===
    0x2efe
=== CODE BLOCK END ===

=== CODE BLOCK ADDRESS 0x2efe ===
  0x2efe	dec    	eax
  0x2eff	sub    	esp, 0x20
  0x2f02	dec    	eax
  0x2f03	mov    	edi, ecx
  0x2f05	dec    	eax
  === BLOCK LINK ===
    0x2f06
=== CODE BLOCK END ===

=== CODE BLOCK ADDRESS 0x2f06 ===
  0x2f06	mov    	ecx, dword ptr [ecx + 0xc0]
  0x2f0c	dec    	eax
  0x2f0d	test   	ecx, ecx
  0x2f0f	je     	0x2f48
  === BLOCK LINK ===
    0x2f11
=== CODE BLOCK END ===

=== CODE BLOCK ADDRESS 0x2f11 ===
  0x2f11	or     	eax, 0xffffffff
  0x2f14	lock xadd  	dword ptr [ecx], eax
  0x2f18	cmp    	eax, 1
  0x2f1b	jne    	0x2f38
  === BLOCK LINK ===
    0x2f1d
=== CODE BLOCK END ===

=== CODE BLOCK ADDRESS 0x2f1d ===
  0x2f1d	dec    	eax
  0x2f1e	mov    	ebx, dword ptr [edi + 0xc0]
  0x2f24	call   	dword ptr [0x4396]
  === BLOCK LINK ===
    0x2f2a
=== CODE BLOCK END ===

=== CODE BLOCK ADDRESS 0x2f2a ===
  0x2f2a	dec    	esp
  0x2f2b	mov    	eax, ebx
  0x2f2d	xor    	edx, edx
  0x2f2f	dec    	eax
  0x2f30	mov    	ecx, eax
  === BLOCK LINK ===
    0x2f32
=== CODE BLOCK END ===

=== CODE BLOCK ADDRESS 0x2f32 ===
  0x2f32	call   	dword ptr [0x4378]
  === BLOCK LINK ===
    0x2f38
=== CODE BLOCK END ===

=== CODE BLOCK ADDRESS 0x2f38 ===
  0x2f38	dec    	eax
  0x2f39	and    	dword ptr [edi + 0xc0], 0
  0x2f40	dec    	eax
  0x2f41	and    	dword ptr [edi + 0xc8], 0
  0x2f48	dec    	eax
  === BLOCK LINK ===
    0x2f49
=== CODE BLOCK END ===

=== CODE BLOCK ADDRESS 0x2f49 ===
  0x2f49	mov    	ecx, dword ptr [edi + 0xb0]
  0x2f4f	dec    	eax
  0x2f50	test   	ecx, ecx
  0x2f52	je     	0x2f8b
  === BLOCK LINK ===
    0x2f54
=== CODE BLOCK END ===

=== CODE BLOCK ADDRESS 0x2f54 ===
  0x2f54	or     	eax, 0xffffffff
  0x2f57	lock xadd  	dword ptr [ecx], eax
  0x2f5b	cmp    	eax, 1
  0x2f5e	jne    	0x2f7b
  === BLOCK LINK ===
    0x2f60
=== CODE BLOCK END ===

=== CODE BLOCK ADDRESS 0x2f60 ===
  0x2f60	dec    	eax
  0x2f61	mov    	ebx, dword ptr [edi + 0xb0]
  0x2f67	call   	dword ptr [0x4353]
  === BLOCK LINK ===
    0x2f6d
=== CODE BLOCK END ===

=== CODE BLOCK ADDRESS 0x2f6d ===
  0x2f6d	dec    	esp
  0x2f6e	mov    	eax, ebx
  0x2f70	xor    	edx, edx
  0x2f72	dec    	eax
  0x2f73	mov    	ecx, eax
  === BLOCK LINK ===
    0x2f75
=== CODE BLOCK END ===

=== CODE BLOCK ADDRESS 0x2f75 ===
  0x2f75	call   	dword ptr [0x4335]
  === BLOCK LINK ===
    0x2f7b
=== CODE BLOCK END ===

=== CODE BLOCK ADDRESS 0x2f7b ===
  0x2f7b	dec    	eax
  0x2f7c	and    	dword ptr [edi + 0xb0], 0
  0x2f83	dec    	eax
  0x2f84	and    	dword ptr [edi + 0xb8], 0
  0x2f8b	dec    	eax
  === BLOCK LINK ===
    0x2f8c
=== CODE BLOCK END ===

=== CODE BLOCK ADDRESS 0x2f8c ===
  0x2f8c	lea    	eax, [0x4096]
  0x2f92	dec    	eax
  0x2f93	lea    	ecx, [edi + 8]
  0x2f96	dec    	eax
  0x2f97	mov    	dword ptr [edi], eax
  === BLOCK LINK ===
    0x2f99
=== CODE BLOCK END ===

=== CODE BLOCK ADDRESS 0x2f99 ===
  0x2f99	dec    	eax
  0x2f9a	mov    	ebx, dword ptr [esp + 0x30]
  0x2f9e	dec    	eax
  0x2f9f	add    	esp, 0x20
  0x2fa2	pop    	edi
  === BLOCK LINK ===
    0x2fa3
=== CODE BLOCK END ===

=== CODE BLOCK ADDRESS 0x2fa3 ===
  0x2fa3	jmp    	0x2016
  === BLOCK LINK ===
    0x2fa8
=== CODE BLOCK END ===

=== CODE BLOCK ADDRESS 0x2fa8 ===
  0x2fa8	dec    	eax
  0x2fa9	mov    	eax, esp
  0x2fab	dec    	eax
  0x2fac	mov    	dword ptr [eax + 8], ebx
  0x2faf	dec    	eax
  === BLOCK LINK ===
    0x2fb0
=== CODE BLOCK END ===

=== CODE BLOCK ADDRESS 0x2fb0 ===
  0x2fb0	mov    	dword ptr [eax + 0x10], ebp
  0x2fb3	dec    	eax
  0x2fb4	mov    	dword ptr [eax + 0x18], esi
  0x2fb7	dec    	eax
  0x2fb8	mov    	dword ptr [eax + 0x20], edi
  === BLOCK LINK ===
    0x2fbb
=== CODE BLOCK END ===

=== CODE BLOCK ADDRESS 0x2fbb ===
  0x2fbb	inc    	ecx
  0x2fbc	push   	esi
  0x2fbd	dec    	eax
  0x2fbe	sub    	esp, 0x20
  0x2fc1	dec    	eax
  === BLOCK LINK ===
    0x2fc2
=== CODE BLOCK END ===

=== CODE BLOCK ADDRESS 0x2fc2 ===
  0x2fc2	mov    	edi, dword ptr [ecx + 0x18]
  0x2fc5	inc    	ebp
  0x2fc6	xor    	esi, esi
  0x2fc8	movzx  	eax, word ptr [ecx + 0x20]
  0x2fcc	dec    	eax
  === BLOCK LINK ===
    0x2fcd
=== CODE BLOCK END ===

=== CODE BLOCK ADDRESS 0x2fcd ===
  0x2fcd	mov    	ebp, ecx
  0x2fcf	dec    	eax
  0x2fd0	lea    	esi, [eax + eax*4]
  0x2fd3	dec    	eax
  0x2fd4	shl    	esi, 4
  === BLOCK LINK ===
    0x2fd7
=== CODE BLOCK END ===

=== CODE BLOCK ADDRESS 0x2fd7 ===
  0x2fd7	dec    	eax
  0x2fd8	add    	esi, edi
  0x2fda	dec    	eax
  0x2fdb	cmp    	edi, esi
  0x2fdd	je     	0x300e
  === BLOCK LINK ===
    0x2fdf
=== CODE BLOCK END ===

=== CODE BLOCK ADDRESS 0x2fdf ===
  0x2fdf	dec    	eax
  0x2fe0	add    	edi, 0x40
  0x2fe3	dec    	eax
  0x2fe4	mov    	ebx, dword ptr [edi]
  0x2fe6	call   	dword ptr [0x42d4]
  === BLOCK LINK ===
    0x2fec
=== CODE BLOCK END ===

=== CODE BLOCK ADDRESS 0x2fec ===
  0x2fec	dec    	esp
  0x2fed	mov    	eax, ebx
  0x2fef	xor    	edx, edx
  0x2ff1	dec    	eax
  0x2ff2	mov    	ecx, eax
  === BLOCK LINK ===
    0x2ff4
=== CODE BLOCK END ===

=== CODE BLOCK ADDRESS 0x2ff4 ===
  0x2ff4	call   	dword ptr [0x42b6]
  === BLOCK LINK ===
    0x2ffa
=== CODE BLOCK END ===

=== CODE BLOCK ADDRESS 0x2ffa ===
  0x2ffa	dec    	esp
  0x2ffb	mov    	dword ptr [edi], esi
  0x2ffd	dec    	esp
  0x2ffe	mov    	dword ptr [edi + 8], esi
  0x3001	dec    	eax
  === BLOCK LINK ===
    0x3002
=== CODE BLOCK END ===

=== CODE BLOCK ADDRESS 0x3002 ===
  0x3002	lea    	edi, [edi + 0x50]
  0x3005	dec    	eax
  0x3006	lea    	eax, [edi - 0x40]
  0x3009	dec    	eax
  0x300a	cmp    	eax, esi
  === BLOCK LINK ===
    0x300c
=== CODE BLOCK END ===

=== CODE BLOCK ADDRESS 0x300c ===
  0x300c	jne    	0x2fe3
  === BLOCK LINK ===
    0x300e
=== CODE BLOCK END ===

=== CODE BLOCK ADDRESS 0x300e ===
  0x300e	dec    	eax
  0x300f	mov    	ebx, dword ptr [ebp + 0x18]
  0x3012	call   	dword ptr [0x42a8]
  === BLOCK LINK ===
    0x3018
=== CODE BLOCK END ===

=== CODE BLOCK ADDRESS 0x3018 ===
  0x3018	dec    	esp
  0x3019	mov    	eax, ebx
  0x301b	xor    	edx, edx
  0x301d	dec    	eax
  0x301e	mov    	ecx, eax
  === BLOCK LINK ===
    0x3020
=== CODE BLOCK END ===

=== CODE BLOCK ADDRESS 0x3020 ===
  0x3020	call   	dword ptr [0x428a]
  === BLOCK LINK ===
    0x3026
=== CODE BLOCK END ===

=== CODE BLOCK ADDRESS 0x3026 ===
  0x3026	dec    	eax
  0x3027	mov    	ebx, dword ptr [esp + 0x30]
  0x302b	dec    	eax
  0x302c	mov    	esi, dword ptr [esp + 0x40]
  0x3030	dec    	eax
  === BLOCK LINK ===
    0x3031
=== CODE BLOCK END ===

=== CODE BLOCK ADDRESS 0x3031 ===
  0x3031	mov    	edi, dword ptr [esp + 0x48]
  0x3035	inc    	esp
  0x3036	mov    	dword ptr [ebp + 0x20], esi
  0x3039	dec    	esp
  0x303a	mov    	dword ptr [ebp + 0x18], esi
  === BLOCK LINK ===
    0x303d
=== CODE BLOCK END ===

=== CODE BLOCK ADDRESS 0x303d ===
  0x303d	dec    	eax
  0x303e	mov    	ebp, dword ptr [esp + 0x38]
  0x3042	dec    	eax
  0x3043	add    	esp, 0x20
  0x3046	inc    	ecx
  === BLOCK LINK ===
    0x3047
=== CODE BLOCK END ===

=== CODE BLOCK ADDRESS 0x3047 ===
  0x3047	pop    	esi
  0x3048	ret    	
  0x3049	int3   	
  0x304a	int3   	
  0x304b	int3   	
  === BLOCK LINK ===
    0x304c
=== CODE BLOCK END ===

=== CODE BLOCK ADDRESS 0x304c ===
  0x304c	int3   	
  0x304d	int3   	
  0x304e	int3   	
  0x304f	int3   	
  0x3050	int3   	
  === BLOCK LINK ===
    0x3051
=== CODE BLOCK END ===

=== CODE BLOCK ADDRESS 0x3051 ===
  0x3051	int3   	
  0x3052	int3   	
  0x3053	int3   	
  0x3054	int3   	
  0x3055	int3   	
  === BLOCK LINK ===
    0x3056
=== CODE BLOCK END ===

=== CODE BLOCK ADDRESS 0x3056 ===
  0x3056	int3   	
  0x3057	int3   	
  0x3058	jno    	0x3043
  === BLOCK LINK ===
    0x305a
=== CODE BLOCK END ===

=== CODE BLOCK ADDRESS 0x305a ===
  0x305a	push   	eax
  0x305b	jl     	0x30ba
  === BLOCK LINK ===
    0x305d
=== CODE BLOCK END ===

=== CODE BLOCK ADDRESS 0x305d ===
  0x305d	push   	cs
  0x305e	sbb    	al, 0xbd
  0x3060	inc    	eax
  0x3061	push   	ebx
  0x3062	dec    	eax
  === BLOCK LINK ===
    0x3063
=== CODE BLOCK END ===

=== CODE BLOCK ADDRESS 0x3063 ===
  0x3063	sub    	esp, 0x20
  0x3066	mov    	dword ptr [ecx + 0xc], 0xc0000001
  0x306d	dec    	eax
  0x306e	mov    	ebx, ecx
  0x3070	test   	dl, 1
  === BLOCK LINK ===
    0x3073
=== CODE BLOCK END ===

=== CODE BLOCK ADDRESS 0x3073 ===
  0x3073	je     	0x307f
  === BLOCK LINK ===
    0x3075
=== CODE BLOCK END ===

=== CODE BLOCK ADDRESS 0x3075 ===
  0x3075	mov    	edx, 0x20
  0x307a	call   	0x1864
  === BLOCK LINK ===
    0x307f
=== CODE BLOCK END ===

=== CODE BLOCK ADDRESS 0x307f ===
  0x307f	dec    	eax
  0x3080	mov    	eax, ebx
  0x3082	dec    	eax
  0x3083	add    	esp, 0x20
  0x3086	pop    	ebx
  === BLOCK LINK ===
    0x3087
=== CODE BLOCK END ===

=== CODE BLOCK ADDRESS 0x3087 ===
  0x3087	ret    	
  0x3088	jno    	0x3073
  === BLOCK LINK ===
    0x308a
=== CODE BLOCK END ===

=== CODE BLOCK ADDRESS 0x17e4 ===
  0x17e4	inc    	eax
  0x17e5	push   	ebx
  0x17e6	dec    	eax
  0x17e7	sub    	esp, 0x20
  === BLOCK LINK ===
    0x17ea
=== CODE BLOCK END ===

=== CODE BLOCK ADDRESS 0x308a ===
  0x308a	push   	eax
  0x308b	jl     	0x30ea
  === BLOCK LINK ===
    0x308d
=== CODE BLOCK END ===

=== CODE BLOCK ADDRESS 0x308d ===
  0x308d	push   	cs
  0x308e	sbb    	al, 0xbd
  0x3090	inc    	eax
  0x3091	push   	ebx
  0x3092	dec    	eax
  === BLOCK LINK ===
    0x3093
=== CODE BLOCK END ===

=== CODE BLOCK ADDRESS 0x3093 ===
  0x3093	sub    	esp, 0x20
  0x3096	mov    	dword ptr [ecx + 0xc], 0xc0000001
  0x309d	dec    	eax
  0x309e	mov    	ebx, ecx
  0x30a0	test   	dl, 1
  === BLOCK LINK ===
    0x30a3
=== CODE BLOCK END ===

=== CODE BLOCK ADDRESS 0x30a3 ===
  0x30a3	je     	0x30af
  === BLOCK LINK ===
    0x30a5
=== CODE BLOCK END ===

=== CODE BLOCK ADDRESS 0x30a5 ===
  0x30a5	mov    	edx, 0x10
  0x30aa	call   	0x1864
  === BLOCK LINK ===
    0x30af
=== CODE BLOCK END ===

=== CODE BLOCK ADDRESS 0x30af ===
  0x30af	dec    	eax
  0x30b0	mov    	eax, ebx
  0x30b2	dec    	eax
  0x30b3	add    	esp, 0x20
  0x30b6	pop    	ebx
  === BLOCK LINK ===
    0x30b7
=== CODE BLOCK END ===

=== CODE BLOCK ADDRESS 0x30b7 ===
  0x30b7	ret    	
  0x30b8	jno    	0x3054
  === BLOCK LINK ===
    0x30ba
=== CODE BLOCK END ===

=== CODE BLOCK ADDRESS 0x30ba ===
  0x30ba	pop    	ebp
  0x30bb	adc    	byte ptr [ebx + 0x26], cl
  0x30be	cmp    	ch, ch
  0x30c0	dec    	eax
  0x30c1	mov    	dword ptr [esp + 8], ebx
  === BLOCK LINK ===
    0x30c5
=== CODE BLOCK END ===

=== CODE BLOCK ADDRESS 0x30c5 ===
  0x30c5	push   	edi
  0x30c6	dec    	eax
  0x30c7	sub    	esp, 0x20
  0x30ca	mov    	ebx, edx
  0x30cc	dec    	eax
  === BLOCK LINK ===
    0x30cd
=== CODE BLOCK END ===

=== CODE BLOCK ADDRESS 0x30cd ===
  0x30cd	mov    	edi, ecx
  0x30cf	call   	0x2ef8
  === BLOCK LINK ===
    0x30d4
=== CODE BLOCK END ===

=== CODE BLOCK ADDRESS 0x30d4 ===
  0x30d4	test   	bl, 1
  0x30d7	je     	0x30e6
  === BLOCK LINK ===
    0x30d9
=== CODE BLOCK END ===

=== CODE BLOCK ADDRESS 0x30d9 ===
  0x30d9	mov    	edx, 0xd0
  0x30de	dec    	eax
  0x30df	mov    	ecx, edi
  0x30e1	call   	0x1864
  === BLOCK LINK ===
    0x30e6
=== CODE BLOCK END ===

=== CODE BLOCK ADDRESS 0x30e6 ===
  0x30e6	dec    	eax
  0x30e7	mov    	ebx, dword ptr [esp + 0x30]
  0x30eb	dec    	eax
  0x30ec	mov    	eax, edi
  0x30ee	dec    	eax
  === BLOCK LINK ===
    0x30ef
=== CODE BLOCK END ===

=== CODE BLOCK ADDRESS 0x30ef ===
  0x30ef	add    	esp, 0x20
  0x30f2	pop    	edi
  0x30f3	ret    	
  0x30f4	int3   	
  0x30f5	int3   	
  === BLOCK LINK ===
    0x30f6
=== CODE BLOCK END ===

=== CODE BLOCK ADDRESS 0x30f6 ===
  0x30f6	int3   	
  0x30f7	int3   	
  0x30f8	jno    	0x3094
  === BLOCK LINK ===
    0x30fa
=== CODE BLOCK END ===

=== CODE BLOCK ADDRESS 0x30fa ===
  0x30fa	pop    	ebp
  0x30fb	adc    	byte ptr [ebx + 0x26], cl
  0x30fe	cmp    	ch, ch
  0x3100	dec    	eax
  0x3101	mov    	dword ptr [esp + 8], ebx
  === BLOCK LINK ===
    0x3105
=== CODE BLOCK END ===

=== CODE BLOCK ADDRESS 0x3105 ===
  0x3105	push   	edi
  0x3106	dec    	eax
  0x3107	sub    	esp, 0x20
  0x310a	dec    	eax
  0x310b	lea    	eax, [0x3f17]
  === BLOCK LINK ===
    0x3111
=== CODE BLOCK END ===

=== CODE BLOCK ADDRESS 0x3111 ===
  0x3111	dec    	eax
  0x3112	mov    	edi, ecx
  0x3114	dec    	eax
  0x3115	mov    	dword ptr [ecx], eax
  0x3117	mov    	ebx, edx
  === BLOCK LINK ===
    0x3119
=== CODE BLOCK END ===

=== CODE BLOCK ADDRESS 0x3119 ===
  0x3119	dec    	eax
  0x311a	add    	ecx, 8
  0x311d	call   	0x2016
  === BLOCK LINK ===
    0x3122
=== CODE BLOCK END ===

=== CODE BLOCK ADDRESS 0x3122 ===
  0x3122	test   	bl, 1
  0x3125	je     	0x3134
  === BLOCK LINK ===
    0x3127
=== CODE BLOCK END ===

=== CODE BLOCK ADDRESS 0x3127 ===
  0x3127	mov    	edx, 0x18
  0x312c	dec    	eax
  0x312d	mov    	ecx, edi
  0x312f	call   	0x1864
  === BLOCK LINK ===
    0x3134
=== CODE BLOCK END ===

=== CODE BLOCK ADDRESS 0x3134 ===
  0x3134	dec    	eax
  0x3135	mov    	ebx, dword ptr [esp + 0x30]
  0x3139	dec    	eax
  0x313a	mov    	eax, edi
  0x313c	dec    	eax
  === BLOCK LINK ===
    0x313d
=== CODE BLOCK END ===

=== CODE BLOCK ADDRESS 0x313d ===
  0x313d	add    	esp, 0x20
  0x3140	pop    	edi
  0x3141	ret    	
  0x3142	int3   	
  0x3143	int3   	
  === BLOCK LINK ===
    0x3144
=== CODE BLOCK END ===

=== CODE BLOCK ADDRESS 0x140a ===
  0x140a	mov    	ecx, ebx
  0x140c	call   	0x2046
  === BLOCK LINK ===
    0x1411
=== CODE BLOCK END ===

=== CODE BLOCK ADDRESS 0x3144 ===
  0x3144	dec    	eax
  0x3145	mov    	eax, esp
  0x3147	push   	ebp
  0x3148	push   	edi
  0x3149	inc    	ecx
  === BLOCK LINK ===
    0x314a
=== CODE BLOCK END ===

=== CODE BLOCK ADDRESS 0x314a ===
  0x314a	push   	esi
  0x314b	dec    	eax
  0x314c	lea    	ebp, [eax - 0x188]
  0x3152	dec    	eax
  0x3153	sub    	esp, 0x270
  === BLOCK LINK ===
    0x3159
=== CODE BLOCK END ===

=== CODE BLOCK ADDRESS 0x3159 ===
  0x3159	dec    	eax
  0x315a	mov    	dword ptr [esp + 0x40], 0xfffffffe
  0x3162	dec    	eax
  0x3163	mov    	dword ptr [eax + 0x18], ebx
  0x3166	dec    	eax
  === BLOCK LINK ===
    0x3167
=== CODE BLOCK END ===

=== CODE BLOCK ADDRESS 0x3167 ===
  0x3167	mov    	dword ptr [eax + 0x20], esi
  0x316a	dec    	eax
  0x316b	mov    	eax, dword ptr [0x6f6f]
  0x3171	dec    	eax
  0x3172	xor    	eax, esp
  === BLOCK LINK ===
    0x3174
=== CODE BLOCK END ===

=== CODE BLOCK ADDRESS 0x3174 ===
  0x3174	dec    	eax
  0x3175	mov    	dword ptr [ebp + 0x160], eax
  0x317b	dec    	esp
  0x317c	mov    	esi, edx
  0x317e	dec    	eax
  === BLOCK LINK ===
    0x317f
=== CODE BLOCK END ===

=== CODE BLOCK ADDRESS 0x317f ===
  0x317f	mov    	ebx, ecx
  0x3181	dec    	eax
  0x3182	and    	dword ptr [edx], 0
  0x3185	call   	dword ptr [0x418d]
  === BLOCK LINK ===
    0x318b
=== CODE BLOCK END ===

=== CODE BLOCK ADDRESS 0x318b ===
  0x318b	inc    	esp
  0x318c	mov    	ecx, eax
  0x318e	dec    	eax
  0x318f	mov    	dword ptr [esp + 0x28], ebx
  0x3193	mov    	dword ptr [esp + 0x20], 0x78
  === BLOCK LINK ===
    0x319b
=== CODE BLOCK END ===

=== CODE BLOCK ADDRESS 0x319b ===
  0x319b	dec    	esp
  0x319c	lea    	eax, [0x48f6]
  0x31a2	mov    	edx, 0x104
  0x31a7	dec    	eax
  0x31a8	lea    	ecx, [esp + 0x50]
  === BLOCK LINK ===
    0x31ac
=== CODE BLOCK END ===

=== CODE BLOCK ADDRESS 0x31ac ===
  0x31ac	call   	0x573c
  === BLOCK LINK ===
    0x31b1
=== CODE BLOCK END ===

=== CODE BLOCK ADDRESS 0x31b1 ===
  0x31b1	nop    	
  0x31b2	inc    	ecx
  0x31b3	mov    	ecx, 0x1f0001
  0x31b8	inc    	ebp
  0x31b9	xor    	eax, eax
  === BLOCK LINK ===
    0x31bb
=== CODE BLOCK END ===

=== CODE BLOCK ADDRESS 0x31bb ===
  0x31bb	dec    	eax
  0x31bc	lea    	edx, [esp + 0x50]
  0x31c0	xor    	ecx, ecx
  0x31c2	call   	dword ptr [0x41d8]
  === BLOCK LINK ===
    0x31c8
=== CODE BLOCK END ===

=== CODE BLOCK ADDRESS 0x31c8 ===
  0x31c8	dec    	eax
  0x31c9	mov    	edi, eax
  0x31cb	dec    	eax
  0x31cc	mov    	dword ptr [esp + 0x30], eax
  0x31d0	dec    	eax
  === BLOCK LINK ===
    0x31d1
=== CODE BLOCK END ===

=== CODE BLOCK ADDRESS 0x31d1 ===
  0x31d1	test   	eax, eax
  0x31d3	jne    	0x31e0
  === BLOCK LINK ===
    0x31d5
=== CODE BLOCK END ===

=== CODE BLOCK ADDRESS 0x31d5 ===
  0x31d5	call   	0x3a60
  === BLOCK LINK ===
    0x31da
=== CODE BLOCK END ===

=== CODE BLOCK ADDRESS 0x31da ===
  0x31da	nop    	
  0x31db	jmp    	0x3301
  === BLOCK LINK ===
    0x31e0
=== CODE BLOCK END ===

=== CODE BLOCK ADDRESS 0x31e0 ===
  0x31e0	inc    	ebp
  0x31e1	xor    	eax, eax
  0x31e3	or     	edx, 0xffffffff
  0x31e6	dec    	eax
  0x31e7	mov    	ecx, edi
  === BLOCK LINK ===
    0x31e9
=== CODE BLOCK END ===

=== CODE BLOCK ADDRESS 0x31e9 ===
  0x31e9	call   	dword ptr [0x4199]
  === BLOCK LINK ===
    0x31ef
=== CODE BLOCK END ===

=== CODE BLOCK ADDRESS 0x31ef ===
  0x31ef	cmp    	eax, 0x102
  0x31f4	je     	0x3206
  === BLOCK LINK ===
    0x31f6
=== CODE BLOCK END ===

=== CODE BLOCK ADDRESS 0x31f6 ===
  0x31f6	test   	eax, 0xffffff7f
  0x31fb	jne    	0x33a2
  === BLOCK LINK ===
    0x3201
=== CODE BLOCK END ===

=== CODE BLOCK ADDRESS 0x3201 ===
  0x3201	dec    	eax
  0x3202	mov    	ebx, edi
  0x3204	jmp    	0x3208
  === BLOCK LINK ===
    0x3206
=== CODE BLOCK END ===

=== CODE BLOCK ADDRESS 0x3206 ===
  0x3206	xor    	ebx, ebx
  0x3208	dec    	eax
  0x3209	mov    	dword ptr [esp + 0x48], ebx
  0x320d	dec    	eax
  0x320e	and    	dword ptr [esp + 0x38], 0
  === BLOCK LINK ===
    0x3213
=== CODE BLOCK END ===

=== CODE BLOCK ADDRESS 0x3213 ===
  0x3213	dec    	esp
  0x3214	lea    	eax, [esp + 0x38]
  0x3218	dec    	eax
  0x3219	lea    	ecx, [esp + 0x50]
  0x321d	call   	0x57d8
  === BLOCK LINK ===
    0x3222
=== CODE BLOCK END ===

=== CODE BLOCK ADDRESS 0x3222 ===
  0x3222	mov    	esi, eax
  0x3224	test   	eax, eax
  0x3226	jns    	0x32b0
  === BLOCK LINK ===
    0x322c
=== CODE BLOCK END ===

=== CODE BLOCK ADDRESS 0x322c ===
  0x322c	dec    	eax
  0x322d	mov    	ecx, dword ptr [ebp + 0x188]
  0x3233	inc    	esp
  0x3234	mov    	ecx, eax
  0x3236	dec    	esp
  === BLOCK LINK ===
    0x3237
=== CODE BLOCK END ===

=== CODE BLOCK ADDRESS 0x3237 ===
  0x3237	lea    	eax, [0x4707]
  0x323d	mov    	edx, 0x62
  0x3242	call   	0x4c34
  === BLOCK LINK ===
    0x3247
=== CODE BLOCK END ===

=== CODE BLOCK ADDRESS 0x3247 ===
  0x3247	dec    	eax
  0x3248	mov    	ecx, dword ptr [ebp + 0x188]
  0x324e	inc    	esp
  0x324f	mov    	ecx, esi
  0x3251	dec    	esp
  === BLOCK LINK ===
    0x3252
=== CODE BLOCK END ===

=== CODE BLOCK ADDRESS 0x3252 ===
  0x3252	lea    	eax, [0x46ec]
  0x3258	mov    	edx, 0x6b
  0x325d	call   	0x4c34
  === BLOCK LINK ===
    0x3262
=== CODE BLOCK END ===

=== CODE BLOCK ADDRESS 0x3262 ===
  0x3262	dec    	eax
  0x3263	mov    	ecx, dword ptr [ebp + 0x188]
  0x3269	inc    	esp
  0x326a	mov    	ecx, esi
  0x326c	dec    	esp
  === BLOCK LINK ===
    0x326d
=== CODE BLOCK END ===

=== CODE BLOCK ADDRESS 0x326d ===
  0x326d	lea    	eax, [0x46d1]
  0x3273	mov    	edx, 0x128
  0x3278	call   	0x4c34
  === BLOCK LINK ===
    0x327d
=== CODE BLOCK END ===

=== CODE BLOCK ADDRESS 0x327d ===
  0x327d	nop    	
  0x327e	dec    	eax
  0x327f	test   	ebx, ebx
  0x3281	je     	0x329b
  === BLOCK LINK ===
    0x3283
=== CODE BLOCK END ===

=== CODE BLOCK ADDRESS 0x3283 ===
  0x3283	dec    	eax
  0x3284	mov    	ecx, ebx
  0x3286	call   	dword ptr [0x40f4]
  === BLOCK LINK ===
    0x328c
=== CODE BLOCK END ===

=== CODE BLOCK ADDRESS 0x328c ===
  0x328c	dec    	eax
  0x328d	mov    	ecx, dword ptr [ebp + 0x188]
  0x3293	test   	eax, eax
  0x3295	je     	0x33af
  === BLOCK LINK ===
    0x329b
=== CODE BLOCK END ===

=== CODE BLOCK ADDRESS 0x329b ===
  0x329b	dec    	eax
  0x329c	mov    	ecx, edi
  0x329e	call   	dword ptr [0x3ffc]
  === BLOCK LINK ===
    0x32a4
=== CODE BLOCK END ===

=== CODE BLOCK ADDRESS 0x32a4 ===
  0x32a4	test   	eax, eax
  0x32a6	je     	0x33ba
  === BLOCK LINK ===
    0x32ac
=== CODE BLOCK END ===

=== CODE BLOCK ADDRESS 0x32ac ===
  0x32ac	mov    	eax, esi
  0x32ae	jmp    	0x3301
  === BLOCK LINK ===
    0x32b0
=== CODE BLOCK END ===

=== CODE BLOCK ADDRESS 0x32b0 ===
  0x32b0	dec    	eax
  0x32b1	mov    	eax, dword ptr [esp + 0x38]
  0x32b5	dec    	eax
  0x32b6	shl    	eax, 2
  0x32b9	dec    	eax
  === BLOCK LINK ===
    0x32ba
=== CODE BLOCK END ===

=== CODE BLOCK ADDRESS 0x32ba ===
  0x32ba	test   	eax, eax
  0x32bc	je     	0x3328
  === BLOCK LINK ===
    0x32be
=== CODE BLOCK END ===

=== CODE BLOCK ADDRESS 0x32be ===
  0x32be	dec    	ecx
  0x32bf	mov    	dword ptr [esi], eax
  0x32c1	mov    	ecx, dword ptr [eax]
  0x32c3	inc    	ecx
  0x32c5	dec    	ecx
  === BLOCK LINK ===
    0x32c6
=== CODE BLOCK END ===

=== CODE BLOCK ADDRESS 0x32c6 ===
  0x32c6	mov    	eax, dword ptr [esi]
  0x32c8	mov    	dword ptr [eax], ecx
  0x32ca	dec    	eax
  0x32cb	test   	ebx, ebx
  0x32cd	je     	0x32e7
  === BLOCK LINK ===
    0x32cf
=== CODE BLOCK END ===

=== CODE BLOCK ADDRESS 0x32cf ===
  0x32cf	dec    	eax
  0x32d0	mov    	ecx, ebx
  0x32d2	call   	dword ptr [0x40a8]
  === BLOCK LINK ===
    0x32d8
=== CODE BLOCK END ===

=== CODE BLOCK ADDRESS 0x32d8 ===
  0x32d8	dec    	eax
  0x32d9	mov    	ecx, dword ptr [ebp + 0x188]
  0x32df	test   	eax, eax
  0x32e1	je     	0x33cc
  === BLOCK LINK ===
    0x32e7
=== CODE BLOCK END ===

=== CODE BLOCK ADDRESS 0x32e7 ===
  0x32e7	dec    	eax
  0x32e8	mov    	ecx, dword ptr [esp + 0x30]
  0x32ec	dec    	eax
  0x32ed	test   	ecx, ecx
  0x32ef	je     	0x32ff
  === BLOCK LINK ===
    0x32f1
=== CODE BLOCK END ===

=== CODE BLOCK ADDRESS 0x32f1 ===
  0x32f1	call   	dword ptr [0x3fa9]
  === BLOCK LINK ===
    0x32f7
=== CODE BLOCK END ===

=== CODE BLOCK ADDRESS 0x32f7 ===
  0x32f7	test   	eax, eax
  0x32f9	je     	0x3390
  === BLOCK LINK ===
    0x32ff
=== CODE BLOCK END ===

=== CODE BLOCK ADDRESS 0x32ff ===
  0x32ff	xor    	eax, eax
  0x3301	dec    	eax
  0x3302	mov    	ecx, dword ptr [ebp + 0x160]
  0x3308	dec    	eax
  0x3309	xor    	ecx, esp
  === BLOCK LINK ===
    0x330b
=== CODE BLOCK END ===

=== CODE BLOCK ADDRESS 0x330b ===
  0x330b	call   	0x1450
  === BLOCK LINK ===
    0x3310
=== CODE BLOCK END ===

=== CODE BLOCK ADDRESS 0x3310 ===
  0x3310	dec    	esp
  0x3311	lea    	ebx, [esp + 0x270]
  0x3318	dec    	ecx
  0x3319	mov    	ebx, dword ptr [ebx + 0x30]
  0x331c	dec    	ecx
  === BLOCK LINK ===
    0x331d
=== CODE BLOCK END ===

=== CODE BLOCK ADDRESS 0x331d ===
  0x331d	mov    	esi, dword ptr [ebx + 0x38]
  0x3320	dec    	ecx
  0x3321	mov    	esp, ebx
  0x3323	inc    	ecx
  0x3324	pop    	esi
  === BLOCK LINK ===
    0x3325
=== CODE BLOCK END ===

=== CODE BLOCK ADDRESS 0x3325 ===
  0x3325	pop    	edi
  0x3326	pop    	ebp
  0x3327	ret    	
  0x3328	dec    	ebp
  0x3329	mov    	eax, esi
  === BLOCK LINK ===
    0x332b
=== CODE BLOCK END ===

=== CODE BLOCK ADDRESS 0x332b ===
  0x332b	dec    	eax
  0x332c	lea    	edx, [esp + 0x30]
  0x3330	dec    	eax
  0x3331	lea    	ecx, [esp + 0x50]
  0x3335	call   	0x450c
  === BLOCK LINK ===
    0x333a
=== CODE BLOCK END ===

=== CODE BLOCK ADDRESS 0x333a ===
  0x333a	mov    	edi, eax
  0x333c	test   	eax, eax
  0x333e	jns    	0x32ca
  === BLOCK LINK ===
    0x3340
=== CODE BLOCK END ===

=== CODE BLOCK ADDRESS 0x3340 ===
  0x3340	dec    	eax
  0x3341	mov    	ecx, dword ptr [ebp + 0x188]
  0x3347	inc    	esp
  0x3348	mov    	ecx, eax
  0x334a	dec    	esp
  === BLOCK LINK ===
    0x334b
=== CODE BLOCK END ===

=== CODE BLOCK ADDRESS 0x334b ===
  0x334b	lea    	eax, [0x45f3]
  0x3351	mov    	edx, 0x130
  0x3356	call   	0x4c34
  === BLOCK LINK ===
    0x335b
=== CODE BLOCK END ===

=== CODE BLOCK ADDRESS 0x335b ===
  0x335b	nop    	
  0x335c	dec    	eax
  0x335d	test   	ebx, ebx
  0x335f	je     	0x3375
  === BLOCK LINK ===
    0x3361
=== CODE BLOCK END ===

=== CODE BLOCK ADDRESS 0x3361 ===
  0x3361	dec    	eax
  0x3362	mov    	ecx, ebx
  0x3364	call   	dword ptr [0x4016]
  === BLOCK LINK ===
    0x336a
=== CODE BLOCK END ===

=== CODE BLOCK ADDRESS 0x336a ===
  0x336a	dec    	eax
  0x336b	mov    	ecx, dword ptr [ebp + 0x188]
  0x3371	test   	eax, eax
  0x3373	je     	0x33d7
  === BLOCK LINK ===
    0x3375
=== CODE BLOCK END ===

=== CODE BLOCK ADDRESS 0x3375 ===
  0x3375	dec    	eax
  0x3376	mov    	ecx, dword ptr [esp + 0x30]
  0x337a	dec    	eax
  0x337b	test   	ecx, ecx
  0x337d	je     	0x3389
  === BLOCK LINK ===
    0x337f
=== CODE BLOCK END ===

=== CODE BLOCK ADDRESS 0x337f ===
  0x337f	call   	dword ptr [0x3f1b]
  === BLOCK LINK ===
    0x3385
=== CODE BLOCK END ===

=== CODE BLOCK ADDRESS 0x3385 ===
  0x3385	test   	eax, eax
  0x3387	je     	0x33e2
  === BLOCK LINK ===
    0x3389
=== CODE BLOCK END ===

=== CODE BLOCK ADDRESS 0x3389 ===
  0x3389	mov    	eax, edi
  0x338b	jmp    	0x3301
  === BLOCK LINK ===
    0x3390
=== CODE BLOCK END ===

=== CODE BLOCK ADDRESS 0x3390 ===
  0x3390	dec    	eax
  0x3391	mov    	ecx, dword ptr [ebp + 0x188]
  0x3397	mov    	edx, 0x937
  0x339c	call   	0x5e6c
  === BLOCK LINK ===
    0x33a1
=== CODE BLOCK END ===

=== CODE BLOCK ADDRESS 0x33a1 ===
  0x33a1	nop    	
  0x33a2	dec    	eax
  0x33a3	mov    	ecx, dword ptr [ebp + 0x188]
  0x33a9	call   	0x34a4
  === BLOCK LINK ===
    0x33ae
=== CODE BLOCK END ===

=== CODE BLOCK ADDRESS 0x33ae ===
  0x33ae	int3   	
  0x33af	mov    	edx, 0x941
  0x33b4	call   	0x5e6c
  === BLOCK LINK ===
    0x33b9
=== CODE BLOCK END ===

=== CODE BLOCK ADDRESS 0x33b9 ===
  0x33b9	nop    	
  0x33ba	dec    	eax
  0x33bb	mov    	ecx, dword ptr [ebp + 0x188]
  0x33c1	mov    	edx, 0x937
  0x33c6	call   	0x5e6c
  === BLOCK LINK ===
    0x33cb
=== CODE BLOCK END ===

=== CODE BLOCK ADDRESS 0x33cb ===
  0x33cb	nop    	
  0x33cc	mov    	edx, 0x941
  0x33d1	call   	0x5e6c
  === BLOCK LINK ===
    0x33d6
=== CODE BLOCK END ===

=== CODE BLOCK ADDRESS 0x33d6 ===
  0x33d6	int3   	
  0x33d7	mov    	edx, 0x941
  0x33dc	call   	0x5e6c
  === BLOCK LINK ===
    0x33e1
=== CODE BLOCK END ===

=== CODE BLOCK ADDRESS 0x33e1 ===
  0x33e1	nop    	
  0x33e2	dec    	eax
  0x33e3	mov    	ecx, dword ptr [ebp + 0x188]
  0x33e9	mov    	edx, 0x937
  0x33ee	call   	0x5e6c
  === BLOCK LINK ===
    0x33f3
=== CODE BLOCK END ===

=== CODE BLOCK ADDRESS 0x33f3 ===
  0x33f3	int3   	
  0x33f4	int3   	
  0x33f5	int3   	
  0x33f6	int3   	
  0x33f7	int3   	
  === BLOCK LINK ===
    0x33f8
=== CODE BLOCK END ===

=== CODE BLOCK ADDRESS 0x33f8 ===
  0x33f8	jno    	0x33d2
  === BLOCK LINK ===
    0x33fa
=== CODE BLOCK END ===

=== CODE BLOCK ADDRESS 0x33fa ===
  0x33fa	ficom  	dword ptr [esi + 0x73]
  0x33fd	mov    	dh, 0x41
  0x33ff	std    	
  0x3400	inc    	ecx
  0x3401	mov    	ecx, 0x7fffffff
  === BLOCK LINK ===
    0x3406
=== CODE BLOCK END ===

=== CODE BLOCK ADDRESS 0x3406 ===
  0x3406	jmp    	0x3416
  === BLOCK LINK ===
    0x3408
=== CODE BLOCK END ===

=== CODE BLOCK ADDRESS 0x3408 ===
  0x3408	inc    	ecx
  0x3409	lea    	edx, [eax + 1]
  0x340c	inc    	ecx
  0x340d	mov    	eax, eax
  0x340f	lock cmpxchg  	dword ptr [ecx + 0xc], edx
  === BLOCK LINK ===
    0x3414
=== CODE BLOCK END ===

=== CODE BLOCK ADDRESS 0x3414 ===
  0x3414	je     	0x3421
  === BLOCK LINK ===
    0x3416
=== CODE BLOCK END ===

=== CODE BLOCK ADDRESS 0x3416 ===
  0x3416	inc    	esp
  0x3417	mov    	eax, dword ptr [ecx + 0xc]
  0x341a	inc    	ebp
  0x341b	cmp    	eax, ecx
  0x341d	jne    	0x3408
  === BLOCK LINK ===
    0x341f
=== CODE BLOCK END ===

=== CODE BLOCK ADDRESS 0x341f ===
  0x341f	jmp    	0x3425
  === BLOCK LINK ===
    0x3421
=== CODE BLOCK END ===

=== CODE BLOCK ADDRESS 0x3421 ===
  0x3421	inc    	ebp
  0x3422	lea    	ecx, [eax + 1]
  0x3425	inc    	ecx
  0x3426	mov    	eax, ecx
  0x3428	ret    	
  === BLOCK LINK ===
    0x3429
=== CODE BLOCK END ===

=== CODE BLOCK ADDRESS 0x3429 ===
  0x3429	int3   	
  0x342a	int3   	
  0x342b	int3   	
  0x342c	int3   	
  0x342d	int3   	
  === BLOCK LINK ===
    0x342e
=== CODE BLOCK END ===

=== CODE BLOCK ADDRESS 0x342e ===
  0x342e	int3   	
  0x342f	int3   	
  0x3430	int3   	
  0x3431	int3   	
  0x3432	int3   	
  === BLOCK LINK ===
    0x3433
=== CODE BLOCK END ===

=== CODE BLOCK ADDRESS 0x3433 ===
  0x3433	int3   	
  0x3434	int3   	
  0x3435	int3   	
  0x3436	int3   	
  0x3437	int3   	
  === BLOCK LINK ===
    0x3438
=== CODE BLOCK END ===

=== CODE BLOCK ADDRESS 0x3438 ===
  0x3438	jno    	0x3482
  === BLOCK LINK ===
    0x343a
=== CODE BLOCK END ===

=== CODE BLOCK ADDRESS 0x343a ===
  0x343a	ficom  	dword ptr [esi - 0x6a]
  0x343d	int1   	
  0x343f	test   	dword ptr [eax - 1], ecx
  0x3442	and    	eax, 0x3e19
  0x3447	int3   	
  === BLOCK LINK ===
    0x3448
=== CODE BLOCK END ===

=== CODE BLOCK ADDRESS 0x3448 ===
  0x3448	dec    	eax
  0x3449	sub    	esp, 0x38
  0x344c	dec    	eax
  0x344d	mov    	dword ptr [esp + 0x20], 0xfffffffe
  0x3455	dec    	eax
  === BLOCK LINK ===
    0x3456
=== CODE BLOCK END ===

=== CODE BLOCK ADDRESS 0x3456 ===
  0x3456	and    	dword ptr [esp + 0x48], 0
  0x345b	dec    	eax
  0x345c	lea    	edx, [esp + 0x48]
  0x3460	call   	dword ptr [0x3f8a]
  === BLOCK LINK ===
    0x3466
=== CODE BLOCK END ===

=== CODE BLOCK ADDRESS 0x3466 ===
  0x3466	test   	eax, eax
  0x3468	js     	0x3476
  === BLOCK LINK ===
    0x346a
=== CODE BLOCK END ===

=== CODE BLOCK ADDRESS 0x346a ===
  0x346a	dec    	eax
  0x346b	mov    	ecx, dword ptr [esp + 0x48]
  0x346f	call   	dword ptr [0x3f6b]
  === BLOCK LINK ===
    0x3475
=== CODE BLOCK END ===

=== CODE BLOCK ADDRESS 0x3475 ===
  0x3475	nop    	
  0x3476	dec    	eax
  0x3477	mov    	ecx, dword ptr [esp + 0x48]
  0x347b	dec    	eax
  0x347c	test   	ecx, ecx
  === BLOCK LINK ===
    0x347e
=== CODE BLOCK END ===

=== CODE BLOCK ADDRESS 0x347e ===
  0x347e	je     	0x349e
  === BLOCK LINK ===
    0x3480
=== CODE BLOCK END ===

=== CODE BLOCK ADDRESS 0x3480 ===
  0x3480	dec    	eax
  0x3481	and    	dword ptr [esp + 0x48], 0
  0x3486	dec    	eax
  0x3487	mov    	eax, dword ptr [ecx]
  0x3489	dec    	ecx
  === BLOCK LINK ===
    0x348a
=== CODE BLOCK END ===

=== CODE BLOCK ADDRESS 0x348a ===
  0x348a	mov    	edx, 0x365eb170
  0x348f	adc    	byte ptr [edi], bl
  0x3491	lodsb  	al, byte ptr [esi]
  0x3492	mov    	edx, 0x10408b48
  0x3497	call   	dword ptr [0x40f3]
  === BLOCK LINK ===
    0x349d
=== CODE BLOCK END ===

=== CODE BLOCK ADDRESS 0x349d ===
  0x349d	nop    	
  0x349e	dec    	eax
  0x349f	add    	esp, 0x38
  0x34a2	ret    	
  0x34a3	int3   	
  === BLOCK LINK ===
    0x34a4
=== CODE BLOCK END ===

=== CODE BLOCK ADDRESS 0x34a4 ===
  0x34a4	dec    	eax
  0x34a5	sub    	esp, 0x58
  0x34a8	dec    	eax
  0x34a9	mov    	dword ptr [esp + 0x40], 0xfffffffe
  0x34b1	dec    	eax
  === BLOCK LINK ===
    0x34b2
=== CODE BLOCK END ===

=== CODE BLOCK ADDRESS 0x34b2 ===
  0x34b2	mov    	eax, dword ptr [esp + 0x58]
  0x34b6	dec    	eax
  0x34b7	mov    	dword ptr [esp + 0x28], eax
  0x34bb	call   	0x2414
  === BLOCK LINK ===
    0x34c0
=== CODE BLOCK END ===

=== CODE BLOCK ADDRESS 0x34c0 ===
  0x34c0	int3   	
  0x34c1	int3   	
  0x34c2	int3   	
  0x34c3	int3   	
  0x34c4	int3   	
  === BLOCK LINK ===
    0x34c5
=== CODE BLOCK END ===

=== CODE BLOCK ADDRESS 0x34c5 ===
  0x34c5	int3   	
  0x34c6	int3   	
  0x34c7	int3   	
  0x34c8	jno    	0x34a5
  === BLOCK LINK ===
    0x34ca
=== CODE BLOCK END ===

=== CODE BLOCK ADDRESS 0x34ca ===
  0x34ca	sal    	dword ptr [edi], cl
  0x34cd	xchg   	dword ptr [eax - 0x75], esp
  0x34d0	dec    	eax
  0x34d1	mov    	dword ptr [esp + 8], ebx
  0x34d5	dec    	eax
  === BLOCK LINK ===
    0x34d6
=== CODE BLOCK END ===

=== CODE BLOCK ADDRESS 0x34d6 ===
  0x34d6	mov    	dword ptr [esp + 0x10], esi
  0x34da	push   	edi
  0x34db	dec    	eax
  0x34dc	sub    	esp, 0x40
  0x34df	dec    	eax
  === BLOCK LINK ===
    0x34e0
=== CODE BLOCK END ===

=== CODE BLOCK ADDRESS 0x34e0 ===
  0x34e0	mov    	eax, dword ptr [0x73a2]
  0x34e6	inc    	ecx
  0x34e7	mov    	ebx, eax
  0x34e9	dec    	eax
  0x34ea	mov    	edi, edx
  === BLOCK LINK ===
    0x34ec
=== CODE BLOCK END ===

=== CODE BLOCK ADDRESS 0x34ec ===
  0x34ec	mov    	esi, ecx
  0x34ee	dec    	eax
  0x34ef	test   	eax, eax
  0x34f1	jne    	0x3507
  === BLOCK LINK ===
    0x34f3
=== CODE BLOCK END ===

=== CODE BLOCK ADDRESS 0x34f3 ===
  0x34f3	dec    	eax
  0x34f4	lea    	ecx, [0x44a6]
  0x34fa	call   	dword ptr [0x3de8]
  === BLOCK LINK ===
    0x3500
=== CODE BLOCK END ===

=== CODE BLOCK ADDRESS 0x3500 ===
  0x3500	dec    	eax
  0x3501	mov    	dword ptr [0x7381], eax
  0x3507	dec    	eax
  0x3508	and    	dword ptr [esp + 0x30], 0
  0x350d	inc    	ecx
  === BLOCK LINK ===
    0x350e
=== CODE BLOCK END ===

=== CODE BLOCK ADDRESS 0x350e ===
  0x350e	mov    	ecx, 0x400
  0x3513	mov    	dword ptr [esp + 0x28], ebx
  0x3517	inc    	esp
  0x3518	mov    	eax, esi
  0x351a	dec    	eax
  === BLOCK LINK ===
    0x351b
=== CODE BLOCK END ===

=== CODE BLOCK ADDRESS 0x351b ===
  0x351b	mov    	edx, eax
  0x351d	dec    	eax
  0x351e	mov    	dword ptr [esp + 0x20], edi
  0x3522	mov    	ecx, 0x1a00
  0x3527	call   	dword ptr [0x3ddb]
  === BLOCK LINK ===
    0x352d
=== CODE BLOCK END ===

=== CODE BLOCK ADDRESS 0x352d ===
  0x352d	dec    	eax
  0x352e	mov    	ebx, dword ptr [esp + 0x50]
  0x3532	dec    	eax
  0x3533	mov    	esi, dword ptr [esp + 0x58]
  0x3537	dec    	eax
  === BLOCK LINK ===
    0x3538
=== CODE BLOCK END ===

=== CODE BLOCK ADDRESS 0x3538 ===
  0x3538	add    	esp, 0x40
  0x353b	pop    	edi
  0x353c	ret    	
  0x353d	int3   	
  0x353e	int3   	
  === BLOCK LINK ===
    0x353f
=== CODE BLOCK END ===

=== CODE BLOCK ADDRESS 0x353f ===
  0x353f	int3   	
  0x3540	dec    	eax
  0x3541	sub    	esp, 0x28
  0x3544	dec    	esp
  0x3545	mov    	eax, ecx
  === BLOCK LINK ===
    0x3547
=== CODE BLOCK END ===

=== CODE BLOCK ADDRESS 0x3547 ===
  0x3547	mov    	dword ptr [ecx], edx
  0x3549	mov    	ecx, edx
  0x354b	call   	0x3ee8
  === BLOCK LINK ===
    0x3550
=== CODE BLOCK END ===

=== CODE BLOCK ADDRESS 0x3550 ===
  0x3550	inc    	ecx
  0x3551	mov    	dword ptr [eax + 4], eax
  0x3554	dec    	ecx
  0x3555	mov    	eax, eax
  0x3557	inc    	ecx
  === BLOCK LINK ===
    0x3558
=== CODE BLOCK END ===

=== CODE BLOCK ADDRESS 0x3558 ===
  0x3558	mov    	byte ptr [eax + 8], 0
  0x355c	dec    	eax
  0x355d	add    	esp, 0x28
  0x3560	ret    	
  0x3561	int3   	
  === BLOCK LINK ===
    0x3562
=== CODE BLOCK END ===

=== CODE BLOCK ADDRESS 0x3562 ===
  0x3562	int3   	
  0x3563	int3   	
  0x3564	int3   	
  0x3565	int3   	
  0x3566	int3   	
  === BLOCK LINK ===
    0x3567
=== CODE BLOCK END ===

=== CODE BLOCK ADDRESS 0x3567 ===
  0x3567	int3   	
  0x3568	jno    	0x3584
  === BLOCK LINK ===
    0x356a
=== CODE BLOCK END ===

=== CODE BLOCK ADDRESS 0x356a ===
  0x356a	ficomp  	dword ptr [eax + 0xa]
  0x356d	push   	cs
  0x356e	sbb    	edx, ebp
  0x3570	dec    	eax
  0x3571	mov    	eax, esp
  === BLOCK LINK ===
    0x3573
=== CODE BLOCK END ===

=== CODE BLOCK ADDRESS 0x3573 ===
  0x3573	inc    	ecx
  0x3574	push   	esi
  0x3575	dec    	eax
  0x3576	sub    	esp, 0x30
  0x3579	dec    	eax
  === BLOCK LINK ===
    0x357a
=== CODE BLOCK END ===

=== CODE BLOCK ADDRESS 0x357a ===
  0x357a	mov    	dword ptr [eax - 0x18], 0xfffffffe
  0x3581	dec    	eax
  0x3582	mov    	dword ptr [eax + 8], ebx
  0x3585	dec    	eax
  0x3586	mov    	dword ptr [eax + 0x10], ebp
  === BLOCK LINK ===
    0x3589
=== CODE BLOCK END ===

=== CODE BLOCK ADDRESS 0x3589 ===
  0x3589	dec    	eax
  0x358a	mov    	dword ptr [eax + 0x18], esi
  0x358d	dec    	eax
  0x358e	mov    	dword ptr [eax + 0x20], edi
  0x3591	dec    	ebp
  === BLOCK LINK ===
    0x3592
=== CODE BLOCK END ===

=== CODE BLOCK ADDRESS 0x3592 ===
  0x3592	mov    	esi, eax
  0x3594	dec    	eax
  0x3595	mov    	esi, edx
  0x3597	dec    	eax
  0x3598	mov    	edi, ecx
  === BLOCK LINK ===
    0x359a
=== CODE BLOCK END ===

=== CODE BLOCK ADDRESS 0x359a ===
  0x359a	mov    	byte ptr [edx], 0
  0x359d	inc    	eax
  0x359e	xor    	ch, ch
  0x35a0	dec    	eax
  0x35a1	mov    	ebx, dword ptr [0x71e9]
  === BLOCK LINK ===
    0x35a7
=== CODE BLOCK END ===

=== CODE BLOCK ADDRESS 0x35a7 ===
  0x35a7	dec    	eax
  0x35a8	test   	ebx, ebx
  0x35aa	je     	0x363e
  === BLOCK LINK ===
    0x35b0
=== CODE BLOCK END ===

=== CODE BLOCK ADDRESS 0x35b0 ===
  0x35b0	call   	dword ptr [0x3d6a]
  === BLOCK LINK ===
    0x35b6
=== CODE BLOCK END ===

=== CODE BLOCK ADDRESS 0x35b6 ===
  0x35b6	inc    	esp
  0x35b7	mov    	ecx, eax
  0x35b9	inc    	esp
  0x35ba	mov    	eax, eax
  0x35bc	dec    	eax
  === BLOCK LINK ===
    0x35bd
=== CODE BLOCK END ===

=== CODE BLOCK ADDRESS 0x35bd ===
  0x35bd	mov    	eax, 0xcccccccd
  0x35c2	int3   	
  0x35c3	int3   	
  0x35c4	int3   	
  0x35c5	int3   	
  === BLOCK LINK ===
    0x35c6
=== CODE BLOCK END ===

=== CODE BLOCK ADDRESS 0x35c6 ===
  0x35c6	dec    	ecx
  0x35c7	mul    	ecx
  0x35c9	dec    	eax
  0x35ca	shr    	edx, 3
  0x35cd	dec    	eax
  === BLOCK LINK ===
    0x35ce
=== CODE BLOCK END ===

=== CODE BLOCK ADDRESS 0x35ce ===
  0x35ce	lea    	ecx, [edx + edx*4]
  0x35d1	dec    	eax
  0x35d2	add    	ecx, ecx
  0x35d4	dec    	esp
  0x35d5	sub    	eax, ecx
  === BLOCK LINK ===
    0x35d7
=== CODE BLOCK END ===

=== CODE BLOCK ADDRESS 0x35d7 ===
  0x35d7	dec    	edx
  0x35d8	mov    	ebx, dword ptr [ebx + eax*8]
  0x35db	jmp    	0x35e6
  === BLOCK LINK ===
    0x35dd
=== CODE BLOCK END ===

=== CODE BLOCK ADDRESS 0x35dd ===
  0x35dd	inc    	esp
  0x35de	cmp    	dword ptr [ebx], ecx
  0x35e0	je     	0x3659
  === BLOCK LINK ===
    0x35e2
=== CODE BLOCK END ===

=== CODE BLOCK ADDRESS 0x35e2 ===
  0x35e2	dec    	eax
  0x35e3	mov    	ebx, dword ptr [ebx + 8]
  0x35e6	dec    	eax
  0x35e7	test   	ebx, ebx
  0x35e9	jne    	0x35dd
  === BLOCK LINK ===
    0x35eb
=== CODE BLOCK END ===

=== CODE BLOCK ADDRESS 0x35eb ===
  0x35eb	dec    	eax
  0x35ec	test   	ebx, ebx
  0x35ee	je     	0x363e
  === BLOCK LINK ===
    0x35f0
=== CODE BLOCK END ===

=== CODE BLOCK ADDRESS 0x35f0 ===
  0x35f0	dec    	eax
  0x35f1	cmp    	dword ptr [ebx], 0
  0x35f4	je     	0x363e
  === BLOCK LINK ===
    0x35f6
=== CODE BLOCK END ===

=== CODE BLOCK ADDRESS 0x35f6 ===
  0x35f6	mov    	byte ptr [esi], 0
  0x35f9	dec    	ebp
  0x35fa	mov    	ecx, esi
  0x35fc	dec    	esp
  0x35fd	mov    	eax, esi
  === BLOCK LINK ===
    0x35ff
=== CODE BLOCK END ===

=== CODE BLOCK ADDRESS 0x35ff ===
  0x35ff	dec    	eax
  0x3600	mov    	edx, dword ptr [ebx]
  0x3602	dec    	eax
  0x3603	mov    	ecx, edi
  0x3605	call   	0x3be8
  === BLOCK LINK ===
    0x360a
=== CODE BLOCK END ===

=== CODE BLOCK ADDRESS 0x360a ===
  0x360a	test   	al, al
  0x360c	je     	0x3612
  === BLOCK LINK ===
    0x360e
=== CODE BLOCK END ===

=== CODE BLOCK ADDRESS 0x360e ===
  0x360e	dec    	eax
  0x360f	mov    	dword ptr [edi + 0x48], esi
  0x3612	dec    	eax
  0x3613	mov    	ebx, dword ptr [ebx]
  0x3615	dec    	eax
  === BLOCK LINK ===
    0x3616
=== CODE BLOCK END ===

=== CODE BLOCK ADDRESS 0x3616 ===
  0x3616	mov    	ecx, dword ptr [ebx + 8]
  0x3619	dec    	eax
  0x361a	mov    	eax, dword ptr [ecx]
  0x361c	dec    	ecx
  0x361d	mov    	edx, 0x7a5fe970
  === BLOCK LINK ===
    0x3622
=== CODE BLOCK END ===

=== CODE BLOCK ADDRESS 0x3622 ===
  0x3622	cli    	
  0x3623	push   	es
  0x3624	adc    	esi, eax
  0x3626	dec    	eax
  0x3627	mov    	edx, edi
  === BLOCK LINK ===
    0x3629
=== CODE BLOCK END ===

=== CODE BLOCK ADDRESS 0x3629 ===
  0x3629	dec    	eax
  0x362a	mov    	eax, dword ptr [eax]
  0x362c	call   	dword ptr [0x3f5e]
  === BLOCK LINK ===
    0x3632
=== CODE BLOCK END ===

=== CODE BLOCK ADDRESS 0x3632 ===
  0x3632	inc    	eax
  0x3633	or     	ch, al
  0x3635	dec    	eax
  0x3636	mov    	ebx, dword ptr [ebx + 0x10]
  0x3639	dec    	eax
  === BLOCK LINK ===
    0x363a
=== CODE BLOCK END ===

=== CODE BLOCK ADDRESS 0x363a ===
  0x363a	test   	ebx, ebx
  0x363c	jne    	0x3615
  === BLOCK LINK ===
    0x363e
=== CODE BLOCK END ===

=== CODE BLOCK ADDRESS 0x363e ===
  0x363e	dec    	eax
  0x363f	mov    	eax, dword ptr [0x715b]
  0x3645	dec    	eax
  0x3646	test   	eax, eax
  0x3648	je     	0x3675
  === BLOCK LINK ===
    0x364a
=== CODE BLOCK END ===

=== CODE BLOCK ADDRESS 0x364a ===
  0x364a	inc    	eax
  0x364b	test   	ch, ch
  0x364d	jne    	0x365f
  === BLOCK LINK ===
    0x364f
=== CODE BLOCK END ===

=== CODE BLOCK ADDRESS 0x364f ===
  0x364f	test   	byte ptr [edi + 4], 2
  0x3653	jne    	0x365f
  === BLOCK LINK ===
    0x3655
=== CODE BLOCK END ===

=== CODE BLOCK ADDRESS 0x3655 ===
  0x3655	xor    	ecx, ecx
  0x3657	jmp    	0x3661
  === BLOCK LINK ===
    0x3659
=== CODE BLOCK END ===

=== CODE BLOCK ADDRESS 0x3659 ===
  0x3659	dec    	eax
  0x365a	add    	ebx, 0x10
  0x365d	jmp    	0x35eb
  === BLOCK LINK ===
    0x365f
=== CODE BLOCK END ===

=== CODE BLOCK ADDRESS 0x365f ===
  0x365f	mov    	cl, 1
  0x3661	dec    	ecx
  0x3662	mov    	edx, 0x7a558170
  0x3667	add    	cl, byte ptr [edi - 0x74b77b6c]
  0x366d	xlatb  	
  === BLOCK LINK ===
    0x366e
=== CODE BLOCK END ===

=== CODE BLOCK ADDRESS 0x366e ===
  0x366e	call   	dword ptr [0x3f1c]
  === BLOCK LINK ===
    0x3674
=== CODE BLOCK END ===

=== CODE BLOCK ADDRESS 0x3674 ===
  0x3674	nop    	
  0x3675	call   	dword ptr [0x3ca5]
  === BLOCK LINK ===
    0x367b
=== CODE BLOCK END ===

=== CODE BLOCK ADDRESS 0x367b ===
  0x367b	mov    	ecx, dword ptr [0x71a7]
  0x3681	cmp    	ecx, eax
  0x3683	je     	0x36c5
  === BLOCK LINK ===
    0x3685
=== CODE BLOCK END ===

=== CODE BLOCK ADDRESS 0x3685 ===
  0x3685	mov    	ecx, 1
  0x368a	lock xadd  	dword ptr [0x719a], ecx
  0x3692	inc    	ecx
  0x3694	cmp    	ecx, 4
  0x3697	jge    	0x36be
  === BLOCK LINK ===
    0x3699
=== CODE BLOCK END ===

=== CODE BLOCK ADDRESS 0x3699 ===
  0x3699	mov    	dword ptr [0x7189], eax
  0x369f	call   	0x3cdc
  === BLOCK LINK ===
    0x36a4
=== CODE BLOCK END ===

=== CODE BLOCK ADDRESS 0x36a4 ===
  0x36a4	dec    	eax
  0x36a5	test   	eax, eax
  0x36a7	je     	0x36b4
  === BLOCK LINK ===
    0x36a9
=== CODE BLOCK END ===

=== CODE BLOCK ADDRESS 0x36a9 ===
  0x36a9	dec    	eax
  0x36aa	mov    	edx, edi
  0x36ac	dec    	eax
  0x36ad	mov    	ecx, eax
  0x36af	call   	0x54e8
  === BLOCK LINK ===
    0x36b4
=== CODE BLOCK END ===

=== CODE BLOCK ADDRESS 0x36b4 ===
  0x36b4	mov    	dword ptr [0x716a], 0
  0x36be	lock dec  	dword ptr [0x7167]
  0x36c5	dec    	eax
  0x36c6	mov    	ebx, dword ptr [esp + 0x40]
  0x36ca	dec    	eax
  === BLOCK LINK ===
    0x36cb
=== CODE BLOCK END ===

=== CODE BLOCK ADDRESS 0x36cb ===
  0x36cb	mov    	ebp, dword ptr [esp + 0x48]
  0x36cf	dec    	eax
  0x36d0	mov    	esi, dword ptr [esp + 0x50]
  0x36d4	dec    	eax
  0x36d5	mov    	edi, dword ptr [esp + 0x58]
  === BLOCK LINK ===
    0x36d9
=== CODE BLOCK END ===

=== CODE BLOCK ADDRESS 0x36d9 ===
  0x36d9	dec    	eax
  0x36da	add    	esp, 0x30
  0x36dd	inc    	ecx
  0x36de	pop    	esi
  0x36df	ret    	
  === BLOCK LINK ===
    0x36e0
=== CODE BLOCK END ===

=== CODE BLOCK ADDRESS 0x36e0 ===
  0x36e0	int3   	
  0x36e1	int3   	
  0x36e2	int3   	
  0x36e3	int3   	
  0x36e4	int3   	
  === BLOCK LINK ===
    0x36e5
=== CODE BLOCK END ===

=== CODE BLOCK ADDRESS 0x36e5 ===
  0x36e5	int3   	
  0x36e6	int3   	
  0x36e7	int3   	
  0x36e8	jno    	0x36ad
  === BLOCK LINK ===
    0x36ea
=== CODE BLOCK END ===

=== CODE BLOCK ADDRESS 0x36ea ===
  0x36ea	fstp   	dword ptr [esi + 0x14]
  0x36ed	daa    	
  0x36ee	sub    	ebp, eax
  0x36f0	dec    	eax
  0x36f1	sub    	esp, 0x28
  === BLOCK LINK ===
    0x36f4
=== CODE BLOCK END ===

=== CODE BLOCK ADDRESS 0x36f4 ===
  0x36f4	mov    	cl, byte ptr [0x7126]
  0x36fa	test   	cl, cl
  0x36fc	jne    	0x3720
  === BLOCK LINK ===
    0x36fe
=== CODE BLOCK END ===

=== CODE BLOCK ADDRESS 0x36fe ===
  0x36fe	inc    	ecx
  0x36ff	mov    	ecx, 0x40
  0x3704	dec    	esp
  0x3705	lea    	eax, [0x7135]
  0x370b	xor    	edx, edx
  === BLOCK LINK ===
    0x370d
=== CODE BLOCK END ===

=== CODE BLOCK ADDRESS 0x370d ===
  0x370d	dec    	eax
  0x370e	lea    	ecx, [0x128c]
  0x3714	call   	0x3ab8
  === BLOCK LINK ===
    0x3719
=== CODE BLOCK END ===

=== CODE BLOCK ADDRESS 0x3719 ===
  0x3719	mov    	byte ptr [0x7100], 1
  0x3720	dec    	eax
  0x3721	lea    	eax, [0x7119]
  0x3727	dec    	eax
  0x3728	add    	esp, 0x28
  === BLOCK LINK ===
    0x372b
=== CODE BLOCK END ===

=== CODE BLOCK ADDRESS 0x372b ===
  0x372b	ret    	
  0x372c	dec    	eax
  0x372d	mov    	eax, esp
  0x372f	push   	ebp
  0x3730	push   	esi
  === BLOCK LINK ===
    0x3731
=== CODE BLOCK END ===

=== CODE BLOCK ADDRESS 0x13bc ===
=== CODE BLOCK END ===

=== CODE BLOCK ADDRESS 0x3731 ===
  0x3731	push   	edi
  0x3732	inc    	ecx
  0x3733	push   	esi
  0x3734	inc    	ecx
  0x3735	push   	edi
  === BLOCK LINK ===
    0x3736
=== CODE BLOCK END ===

=== CODE BLOCK ADDRESS 0x3736 ===
  0x3736	dec    	eax
  0x3737	sub    	esp, 0x260
  0x373d	dec    	eax
  0x373e	mov    	dword ptr [esp + 0x40], 0xfffffffe
  0x3746	dec    	eax
  === BLOCK LINK ===
    0x3747
=== CODE BLOCK END ===

=== CODE BLOCK ADDRESS 0x3747 ===
  0x3747	mov    	dword ptr [eax + 0x20], ebx
  0x374a	dec    	eax
  0x374b	mov    	eax, dword ptr [0x698f]
  0x3751	dec    	eax
  0x3752	xor    	eax, esp
  === BLOCK LINK ===
    0x3754
=== CODE BLOCK END ===

=== CODE BLOCK ADDRESS 0x3754 ===
  0x3754	dec    	eax
  0x3755	mov    	dword ptr [esp + 0x250], eax
  0x375c	dec    	ecx
  0x375d	mov    	ebx, eax
  0x375f	dec    	eax
  === BLOCK LINK ===
    0x3760
=== CODE BLOCK END ===

=== CODE BLOCK ADDRESS 0x3760 ===
  0x3760	mov    	edi, edx
  0x3762	dec    	esp
  0x3763	mov    	esi, ecx
  0x3765	inc    	ebp
  0x3766	xor    	edi, edi
  === BLOCK LINK ===
    0x3768
=== CODE BLOCK END ===

=== CODE BLOCK ADDRESS 0x3768 ===
  0x3768	dec    	eax
  0x3769	test   	edx, edx
  0x376b	je     	0x39c9
  === BLOCK LINK ===
    0x3771
=== CODE BLOCK END ===

=== CODE BLOCK ADDRESS 0x3771 ===
  0x3771	dec    	eax
  0x3772	test   	ecx, ecx
  0x3774	je     	0x39c9
  === BLOCK LINK ===
    0x377a
=== CODE BLOCK END ===

=== CODE BLOCK ADDRESS 0x377a ===
  0x377a	inc    	sp
  0x377c	mov    	dword ptr [ecx], edi
  0x377e	dec    	eax
  0x377f	mov    	eax, dword ptr [0x6ff3]
  0x3785	dec    	eax
  === BLOCK LINK ===
    0x3786
=== CODE BLOCK END ===

=== CODE BLOCK ADDRESS 0x3786 ===
  0x3786	test   	eax, eax
  0x3788	je     	0x37b6
  === BLOCK LINK ===
    0x378a
=== CODE BLOCK END ===

=== CODE BLOCK ADDRESS 0x378a ===
  0x378a	inc    	esp
  0x378b	cmp    	byte ptr [0x7007], bh
  0x3791	je     	0x37b6
  === BLOCK LINK ===
    0x3793
=== CODE BLOCK END ===

=== CODE BLOCK ADDRESS 0x3793 ===
  0x3793	dec    	ecx
  0x3794	mov    	edx, 0x7ede8170
  0x3799	out    	0xb6, al
  0x379b	nop    	
  0x379c	stc    	
  === BLOCK LINK ===
    0x379d
=== CODE BLOCK END ===

=== CODE BLOCK ADDRESS 0x379d ===
  0x379d	dec    	esp
  0x379e	mov    	eax, edx
  0x37a0	dec    	eax
  0x37a1	mov    	edx, ecx
  0x37a3	dec    	eax
  === BLOCK LINK ===
    0x37a4
=== CODE BLOCK END ===

=== CODE BLOCK ADDRESS 0x37a4 ===
  0x37a4	mov    	ecx, ebx
  0x37a6	call   	dword ptr [0x3de4]
  === BLOCK LINK ===
    0x37ac
=== CODE BLOCK END ===

=== CODE BLOCK ADDRESS 0x37ac ===
  0x37ac	inc    	bp
  0x37ae	cmp    	dword ptr [esi], edi
  0x37b0	jne    	0x39c9
  === BLOCK LINK ===
    0x37b6
=== CODE BLOCK END ===

=== CODE BLOCK ADDRESS 0x37b6 ===
  0x37b6	dec    	eax
  0x37b7	lea    	esi, [0x3fc8]
  0x37bd	mov    	ecx, dword ptr [ebx]
  0x37bf	mov    	dl, 8
  0x37c1	test   	ecx, ecx
  === BLOCK LINK ===
    0x37c3
=== CODE BLOCK END ===

=== CODE BLOCK ADDRESS 0x37c3 ===
  0x37c3	je     	0x3804
  === BLOCK LINK ===
    0x37c5
=== CODE BLOCK END ===

=== CODE BLOCK ADDRESS 0x37c5 ===
  0x37c5	sub    	ecx, 1
  0x37c8	je     	0x37ed
  === BLOCK LINK ===
    0x37ca
=== CODE BLOCK END ===

=== CODE BLOCK ADDRESS 0x37ca ===
  0x37ca	sub    	ecx, 1
  0x37cd	je     	0x37dd
  === BLOCK LINK ===
    0x37cf
=== CODE BLOCK END ===

=== CODE BLOCK ADDRESS 0x37cf ===
  0x37cf	cmp    	ecx, 1
  0x37d2	jne    	0x380b
  === BLOCK LINK ===
    0x37d4
=== CODE BLOCK END ===

=== CODE BLOCK ADDRESS 0x37d4 ===
  0x37d4	dec    	eax
  0x37d5	lea    	esi, [0x4005]
  0x37db	jmp    	0x380b
  === BLOCK LINK ===
    0x37dd
=== CODE BLOCK END ===

=== CODE BLOCK ADDRESS 0x37dd ===
  0x37dd	dec    	eax
  0x37de	lea    	eax, [0x3ff0]
  0x37e4	dec    	eax
  0x37e5	lea    	esi, [0x3fe1]
  0x37eb	jmp    	0x37fb
  === BLOCK LINK ===
    0x37ed
=== CODE BLOCK END ===

=== CODE BLOCK ADDRESS 0x37ed ===
  0x37ed	dec    	eax
  0x37ee	lea    	eax, [0x3fcc]
  0x37f4	dec    	eax
  0x37f5	lea    	esi, [0x3fb5]
  0x37fb	test   	byte ptr [ebx + 4], dl
  === BLOCK LINK ===
    0x37fe
=== CODE BLOCK END ===

=== CODE BLOCK ADDRESS 0x37fe ===
  0x37fe	dec    	eax
  0x37ff	cmove  	esi, eax
  0x3802	jmp    	0x380b
  === BLOCK LINK ===
    0x3804
=== CODE BLOCK END ===

=== CODE BLOCK ADDRESS 0x3804 ===
  0x3804	dec    	eax
  0x3805	lea    	esi, [0x3f95]
  0x380b	inc    	sp
  0x380d	mov    	dword ptr [esp + 0x50], edi
  0x3811	test   	byte ptr [ebx + 4], dl
  === BLOCK LINK ===
    0x3814
=== CODE BLOCK END ===

=== CODE BLOCK ADDRESS 0x3814 ===
  0x3814	je     	0x3844
  === BLOCK LINK ===
    0x3816
=== CODE BLOCK END ===

=== CODE BLOCK ADDRESS 0x3816 ===
  0x3816	mov    	ebp, dword ptr [ebx + 0xc]
  0x3819	dec    	eax
  0x381a	mov    	eax, dword ptr [0x6f88]
  0x3820	dec    	eax
  0x3821	test   	eax, eax
  === BLOCK LINK ===
    0x3823
=== CODE BLOCK END ===

=== CODE BLOCK ADDRESS 0x3823 ===
  0x3823	je     	0x3874
  === BLOCK LINK ===
    0x3825
=== CODE BLOCK END ===

=== CODE BLOCK ADDRESS 0x3825 ===
  0x3825	dec    	ecx
  0x3826	mov    	edx, 0x34d3db70
  0x382b	daa    	
  0x382c	xchg   	dword ptr [eax - 0x75], esp
  0x382f	inc    	ecx
  === BLOCK LINK ===
    0x3830
=== CODE BLOCK END ===

=== CODE BLOCK ADDRESS 0x3830 ===
  0x3830	mov    	eax, 0x100
  0x3835	dec    	eax
  0x3836	lea    	edx, [esp + 0x50]
  0x383a	mov    	ecx, ebp
  0x383c	call   	dword ptr [0x3d4e]
  === BLOCK LINK ===
    0x3842
=== CODE BLOCK END ===

=== CODE BLOCK ADDRESS 0x3842 ===
  0x3842	jmp    	0x3874
  === BLOCK LINK ===
    0x3844
=== CODE BLOCK END ===

=== CODE BLOCK ADDRESS 0x3844 ===
  0x3844	mov    	ebp, dword ptr [ebx + 8]
  0x3847	dec    	esp
  0x3848	mov    	dword ptr [esp + 0x30], edi
  0x384c	mov    	dword ptr [esp + 0x28], 0x100
  0x3854	dec    	eax
  === BLOCK LINK ===
    0x3855
=== CODE BLOCK END ===

=== CODE BLOCK ADDRESS 0x3855 ===
  0x3855	lea    	eax, [esp + 0x50]
  0x3859	dec    	eax
  0x385a	mov    	dword ptr [esp + 0x20], eax
  0x385e	inc    	ecx
  0x385f	mov    	ecx, 0x400
  === BLOCK LINK ===
    0x3864
=== CODE BLOCK END ===

=== CODE BLOCK ADDRESS 0x3864 ===
  0x3864	inc    	esp
  0x3865	mov    	eax, ebp
  0x3867	xor    	edx, edx
  0x3869	mov    	ecx, 0x1200
  0x386e	call   	dword ptr [0x3a94]
  === BLOCK LINK ===
    0x3874
=== CODE BLOCK END ===

=== CODE BLOCK ADDRESS 0x3874 ===
  0x3874	dec    	ecx
  0x3875	lea    	edi, [esi + edi*2]
  0x3878	dec    	esp
  0x3879	mov    	ecx, dword ptr [ebx + 0x38]
  0x387c	dec    	eax
  === BLOCK LINK ===
    0x387d
=== CODE BLOCK END ===

=== CODE BLOCK ADDRESS 0x387d ===
  0x387d	mov    	eax, dword ptr [ebx + 0x88]
  0x3883	dec    	eax
  0x3884	mov    	ecx, dword ptr [ebx + 0x80]
  0x388a	dec    	eax
  0x388b	mov    	edx, edi
  === BLOCK LINK ===
    0x388d
=== CODE BLOCK END ===

=== CODE BLOCK ADDRESS 0x388d ===
  0x388d	dec    	ebp
  0x388e	test   	ecx, ecx
  0x3890	je     	0x38b4
  === BLOCK LINK ===
    0x3892
=== CODE BLOCK END ===

=== CODE BLOCK ADDRESS 0x3892 ===
  0x3892	dec    	eax
  0x3893	mov    	dword ptr [esp + 0x30], eax
  0x3897	dec    	eax
  0x3898	mov    	dword ptr [esp + 0x28], ecx
  0x389c	mov    	eax, dword ptr [ebx + 0x40]
  === BLOCK LINK ===
    0x389f
=== CODE BLOCK END ===

=== CODE BLOCK ADDRESS 0x389f ===
  0x389f	mov    	dword ptr [esp + 0x20], eax
  0x38a3	dec    	esp
  0x38a4	lea    	eax, [0x3f46]
  0x38aa	dec    	ecx
  0x38ab	mov    	ecx, esi
  === BLOCK LINK ===
    0x38ad
=== CODE BLOCK END ===

=== CODE BLOCK ADDRESS 0x38ad ===
  0x38ad	call   	0x4494
  === BLOCK LINK ===
    0x38b2
=== CODE BLOCK END ===

=== CODE BLOCK ADDRESS 0x38b2 ===
  0x38b2	jmp    	0x38cb
  === BLOCK LINK ===
    0x38b4
=== CODE BLOCK END ===

=== CODE BLOCK ADDRESS 0x38b4 ===
  0x38b4	dec    	eax
  0x38b5	mov    	dword ptr [esp + 0x20], eax
  0x38b9	dec    	esp
  0x38ba	mov    	ecx, ecx
  0x38bc	dec    	esp
  === BLOCK LINK ===
    0x38bd
=== CODE BLOCK END ===

=== CODE BLOCK ADDRESS 0x38bd ===
  0x38bd	lea    	eax, [0x3f55]
  0x38c3	dec    	ecx
  0x38c4	mov    	ecx, esi
  0x38c6	call   	0x4494
  === BLOCK LINK ===
    0x38cb
=== CODE BLOCK END ===

=== CODE BLOCK ADDRESS 0x38cb ===
  0x38cb	dec    	esp
  0x38cc	mov    	esi, eax
  0x38ce	dec    	esp
  0x38cf	mov    	ecx, dword ptr [ebx + 0x90]
  0x38d5	dec    	ebp
  === BLOCK LINK ===
    0x38d6
=== CODE BLOCK END ===

=== CODE BLOCK ADDRESS 0x38d6 ===
  0x38d6	test   	ecx, ecx
  0x38d8	je     	0x38ef
  === BLOCK LINK ===
    0x38da
=== CODE BLOCK END ===

=== CODE BLOCK ADDRESS 0x38da ===
  0x38da	dec    	esp
  0x38db	lea    	eax, [0x3f4f]
  0x38e1	dec    	eax
  0x38e2	mov    	edx, edi
  0x38e4	dec    	eax
  === BLOCK LINK ===
    0x38e5
=== CODE BLOCK END ===

=== CODE BLOCK ADDRESS 0x38e5 ===
  0x38e5	mov    	ecx, eax
  0x38e7	call   	0x4494
  === BLOCK LINK ===
    0x38ec
=== CODE BLOCK END ===

=== CODE BLOCK ADDRESS 0x38ec ===
  0x38ec	dec    	esp
  0x38ed	mov    	esi, eax
  0x38ef	call   	dword ptr [0x3a2b]
  === BLOCK LINK ===
    0x38f5
=== CODE BLOCK END ===

=== CODE BLOCK ADDRESS 0x38f5 ===
  0x38f5	mov    	ecx, dword ptr [ebx + 0x44]
  0x38f8	dec    	eax
  0x38f9	lea    	edx, [esp + 0x50]
  0x38fd	dec    	eax
  0x38fe	mov    	dword ptr [esp + 0x38], edx
  === BLOCK LINK ===
    0x3902
=== CODE BLOCK END ===

=== CODE BLOCK ADDRESS 0x3902 ===
  0x3902	mov    	dword ptr [esp + 0x30], ebp
  0x3906	mov    	dword ptr [esp + 0x28], eax
  0x390a	mov    	dword ptr [esp + 0x20], ecx
  0x390e	dec    	esp
  0x390f	mov    	ecx, esi
  === BLOCK LINK ===
    0x3911
=== CODE BLOCK END ===

=== CODE BLOCK ADDRESS 0x3911 ===
  0x3911	dec    	esp
  0x3912	lea    	eax, [0x3f38]
  0x3918	dec    	eax
  0x3919	mov    	edx, edi
  0x391b	dec    	ecx
  === BLOCK LINK ===
    0x391c
=== CODE BLOCK END ===

=== CODE BLOCK ADDRESS 0x391c ===
  0x391c	mov    	ecx, esi
  0x391e	call   	0x4494
  === BLOCK LINK ===
    0x3923
=== CODE BLOCK END ===

=== CODE BLOCK ADDRESS 0x3923 ===
  0x3923	dec    	esp
  0x3924	cmp    	dword ptr [ebx + 0x18], edi
  0x3927	jne    	0x3939
  === BLOCK LINK ===
    0x3929
=== CODE BLOCK END ===

=== CODE BLOCK ADDRESS 0x3929 ===
  0x3929	dec    	esp
  0x392a	cmp    	dword ptr [ebx + 0x48], edi
  0x392d	jne    	0x3939
  === BLOCK LINK ===
    0x392f
=== CODE BLOCK END ===

=== CODE BLOCK ADDRESS 0x392f ===
  0x392f	dec    	esp
  0x3930	cmp    	dword ptr [ebx + 0x30], edi
  0x3933	je     	0x39c9
  === BLOCK LINK ===
    0x3939
=== CODE BLOCK END ===

=== CODE BLOCK ADDRESS 0x3939 ===
  0x3939	dec    	esp
  0x393a	lea    	eax, [0x3f48]
  0x3940	dec    	eax
  0x3941	mov    	edx, edi
  0x3943	dec    	eax
  === BLOCK LINK ===
    0x3944
=== CODE BLOCK END ===

=== CODE BLOCK ADDRESS 0x3944 ===
  0x3944	mov    	ecx, eax
  0x3946	call   	0x4494
  === BLOCK LINK ===
    0x394b
=== CODE BLOCK END ===

=== CODE BLOCK ADDRESS 0x394b ===
  0x394b	dec    	esp
  0x394c	mov    	ecx, dword ptr [ebx + 0x18]
  0x394f	dec    	ebp
  0x3950	test   	ecx, ecx
  0x3952	je     	0x3966
  === BLOCK LINK ===
    0x3954
=== CODE BLOCK END ===

=== CODE BLOCK ADDRESS 0x3954 ===
  0x3954	dec    	esp
  0x3955	lea    	eax, [0x3f3d]
  0x395b	dec    	eax
  0x395c	mov    	edx, edi
  0x395e	dec    	eax
  === BLOCK LINK ===
    0x395f
=== CODE BLOCK END ===

=== CODE BLOCK ADDRESS 0x395f ===
  0x395f	mov    	ecx, eax
  0x3961	call   	0x4494
  === BLOCK LINK ===
    0x3966
=== CODE BLOCK END ===

=== CODE BLOCK ADDRESS 0x3966 ===
  0x3966	dec    	esp
  0x3967	mov    	ecx, dword ptr [ebx + 0x48]
  0x396a	dec    	ebp
  0x396b	test   	ecx, ecx
  0x396d	je     	0x3981
  === BLOCK LINK ===
    0x396f
=== CODE BLOCK END ===

=== CODE BLOCK ADDRESS 0x396f ===
  0x396f	dec    	esp
  0x3970	lea    	eax, [0x3f3a]
  0x3976	dec    	eax
  0x3977	mov    	edx, edi
  0x3979	dec    	eax
  === BLOCK LINK ===
    0x397a
=== CODE BLOCK END ===

=== CODE BLOCK ADDRESS 0x397a ===
  0x397a	mov    	ecx, eax
  0x397c	call   	0x4494
  === BLOCK LINK ===
    0x3981
=== CODE BLOCK END ===

=== CODE BLOCK ADDRESS 0x3981 ===
  0x3981	dec    	eax
  0x3982	mov    	ecx, dword ptr [ebx + 0x28]
  0x3985	dec    	esp
  0x3986	mov    	ecx, dword ptr [ebx + 0x30]
  0x3989	dec    	eax
  === BLOCK LINK ===
    0x398a
=== CODE BLOCK END ===

=== CODE BLOCK ADDRESS 0x398a ===
  0x398a	mov    	edx, edi
  0x398c	dec    	eax
  0x398d	test   	ecx, ecx
  0x398f	je     	0x39a7
  === BLOCK LINK ===
    0x3991
=== CODE BLOCK END ===

=== CODE BLOCK ADDRESS 0x3991 ===
  0x3991	dec    	eax
  0x3992	mov    	dword ptr [esp + 0x20], ecx
  0x3996	dec    	esp
  0x3997	lea    	eax, [0x3f3b]
  0x399d	dec    	eax
  === BLOCK LINK ===
    0x399e
=== CODE BLOCK END ===

=== CODE BLOCK ADDRESS 0x399e ===
  0x399e	mov    	ecx, eax
  0x39a0	call   	0x4494
  === BLOCK LINK ===
    0x39a5
=== CODE BLOCK END ===

=== CODE BLOCK ADDRESS 0x39a5 ===
  0x39a5	jmp    	0x39c9
  === BLOCK LINK ===
    0x39a7
=== CODE BLOCK END ===

=== CODE BLOCK ADDRESS 0x39a7 ===
  0x39a7	dec    	eax
  0x39a8	mov    	ecx, eax
  0x39aa	dec    	ebp
  0x39ab	test   	ecx, ecx
  0x39ad	je     	0x39bd
  === BLOCK LINK ===
    0x39af
=== CODE BLOCK END ===

=== CODE BLOCK ADDRESS 0x39af ===
  0x39af	dec    	esp
  0x39b0	lea    	eax, [0x3f3a]
  0x39b6	call   	0x4494
  === BLOCK LINK ===
    0x39bb
=== CODE BLOCK END ===

=== CODE BLOCK ADDRESS 0x39bb ===
  0x39bb	jmp    	0x39c9
  === BLOCK LINK ===
    0x39bd
=== CODE BLOCK END ===

=== CODE BLOCK ADDRESS 0x39bd ===
  0x39bd	dec    	esp
  0x39be	lea    	eax, [0x3f3c]
  0x39c4	call   	0x4494
  === BLOCK LINK ===
    0x39c9
=== CODE BLOCK END ===

=== CODE BLOCK ADDRESS 0x39c9 ===
  0x39c9	xor    	eax, eax
  0x39cb	dec    	eax
  0x39cc	mov    	ecx, dword ptr [esp + 0x250]
  0x39d3	dec    	eax
  0x39d4	xor    	ecx, esp
  === BLOCK LINK ===
    0x39d6
=== CODE BLOCK END ===

=== CODE BLOCK ADDRESS 0x39d6 ===
  0x39d6	call   	0x1450
  === BLOCK LINK ===
    0x39db
=== CODE BLOCK END ===

=== CODE BLOCK ADDRESS 0x39db ===
  0x39db	dec    	eax
  0x39dc	mov    	ebx, dword ptr [esp + 0x2a8]
  0x39e3	dec    	eax
  0x39e4	add    	esp, 0x260
  0x39ea	inc    	ecx
  === BLOCK LINK ===
    0x39eb
=== CODE BLOCK END ===

=== CODE BLOCK ADDRESS 0x39eb ===
  0x39eb	pop    	edi
  0x39ec	inc    	ecx
  0x39ed	pop    	esi
  0x39ee	pop    	edi
  0x39ef	pop    	esi
  === BLOCK LINK ===
    0x39f0
=== CODE BLOCK END ===

=== CODE BLOCK ADDRESS 0x39f0 ===
  0x39f0	pop    	ebp
  0x39f1	ret    	
  0x39f2	int3   	
  0x39f3	int3   	
  0x39f4	inc    	eax
  === BLOCK LINK ===
    0x39f5
=== CODE BLOCK END ===

=== CODE BLOCK ADDRESS 0x18a8 ===
  0x18a8	dec    	eax
  0x18a9	mov    	dword ptr [esp + 0x20], ebx
  === BLOCK LINK ===
    0x18ad
=== CODE BLOCK END ===

=== CODE BLOCK ADDRESS 0x39f5 ===
  0x39f5	push   	edi
  0x39f6	dec    	eax
  0x39f7	sub    	esp, 0x50
  0x39fa	dec    	eax
  0x39fb	mov    	dword ptr [esp + 0x40], 0xfffffffe
  === BLOCK LINK ===
    0x3a03
=== CODE BLOCK END ===

=== CODE BLOCK ADDRESS 0x3a03 ===
  0x3a03	dec    	eax
  0x3a04	mov    	dword ptr [esp + 0x60], ebx
  0x3a08	dec    	eax
  0x3a09	mov    	dword ptr [esp + 0x68], esi
  0x3a0d	dec    	ecx
  === BLOCK LINK ===
    0x3a0e
=== CODE BLOCK END ===

=== CODE BLOCK ADDRESS 0x3a0e ===
  0x3a0e	mov    	ebx, eax
  0x3a10	mov    	edi, edx
  0x3a12	dec    	eax
  0x3a13	mov    	esi, ecx
  0x3a15	call   	dword ptr [0x3875]
  === BLOCK LINK ===
    0x3a1b
=== CODE BLOCK END ===

=== CODE BLOCK ADDRESS 0x3a1b ===
  0x3a1b	test   	eax, eax
  0x3a1d	jne    	0x3a4f
  === BLOCK LINK ===
    0x3a1f
=== CODE BLOCK END ===

=== CODE BLOCK ADDRESS 0x3a1f ===
  0x3a1f	mov    	dword ptr [esp + 0x30], 0x8007029c
  0x3a27	dec    	eax
  0x3a28	mov    	eax, dword ptr [esp + 0x88]
  0x3a2f	dec    	eax
  0x3a30	mov    	dword ptr [esp + 0x28], eax
  === BLOCK LINK ===
    0x3a34
=== CODE BLOCK END ===

=== CODE BLOCK ADDRESS 0x3a34 ===
  0x3a34	dec    	eax
  0x3a35	and    	dword ptr [esp + 0x20], 0
  0x3a3a	inc    	ebp
  0x3a3b	xor    	ecx, ecx
  0x3a3d	dec    	esp
  === BLOCK LINK ===
    0x3a3e
=== CODE BLOCK END ===

=== CODE BLOCK ADDRESS 0x3a3e ===
  0x3a3e	mov    	eax, ebx
  0x3a40	mov    	edx, edi
  0x3a42	dec    	eax
  0x3a43	mov    	ecx, esi
  0x3a45	call   	0x23a8
  === BLOCK LINK ===
    0x3a4a
=== CODE BLOCK END ===

=== CODE BLOCK ADDRESS 0x3a4a ===
  0x3a4a	mov    	eax, 0x29c
  0x3a4f	dec    	eax
  0x3a50	mov    	ebx, dword ptr [esp + 0x60]
  0x3a54	dec    	eax
  0x3a55	mov    	esi, dword ptr [esp + 0x68]
  === BLOCK LINK ===
    0x3a59
=== CODE BLOCK END ===

=== CODE BLOCK ADDRESS 0x3a59 ===
  0x3a59	dec    	eax
  0x3a5a	add    	esp, 0x50
  0x3a5d	pop    	edi
  0x3a5e	ret    	
  0x3a5f	int3   	
  === BLOCK LINK ===
    0x3a60
=== CODE BLOCK END ===

=== CODE BLOCK ADDRESS 0x128c ===
  0x128c	dec    	eax
  0x128d	mov    	dword ptr [esp + 8], ebx
  === BLOCK LINK ===
    0x1291
=== CODE BLOCK END ===

=== CODE BLOCK ADDRESS 0x3a60 ===
  0x3a60	inc    	eax
  0x3a61	push   	ebx
  0x3a62	dec    	eax
  0x3a63	sub    	esp, 0x50
  0x3a66	dec    	eax
  === BLOCK LINK ===
    0x3a67
=== CODE BLOCK END ===

=== CODE BLOCK ADDRESS 0x3a67 ===
  0x3a67	mov    	dword ptr [esp + 0x40], 0xfffffffe
  0x3a6f	dec    	eax
  0x3a70	mov    	ebx, dword ptr [esp + 0x58]
  0x3a74	call   	dword ptr [0x3816]
  === BLOCK LINK ===
    0x3a7a
=== CODE BLOCK END ===

=== CODE BLOCK ADDRESS 0x3a7a ===
  0x3a7a	test   	eax, eax
  0x3a7c	jne    	0x3aa5
  === BLOCK LINK ===
    0x3a7e
=== CODE BLOCK END ===

=== CODE BLOCK ADDRESS 0x3a7e ===
  0x3a7e	mov    	dword ptr [esp + 0x30], 0x8007029c
  0x3a86	dec    	eax
  0x3a87	mov    	dword ptr [esp + 0x28], ebx
  0x3a8b	dec    	eax
  0x3a8c	and    	dword ptr [esp + 0x20], 0
  === BLOCK LINK ===
    0x3a91
=== CODE BLOCK END ===

=== CODE BLOCK ADDRESS 0x3a91 ===
  0x3a91	inc    	ebp
  0x3a92	xor    	ecx, ecx
  0x3a94	inc    	ebp
  0x3a95	xor    	eax, eax
  0x3a97	xor    	edx, edx
  === BLOCK LINK ===
    0x3a99
=== CODE BLOCK END ===

=== CODE BLOCK ADDRESS 0x3a99 ===
  0x3a99	xor    	ecx, ecx
  0x3a9b	call   	0x23a8
  === BLOCK LINK ===
    0x3aa0
=== CODE BLOCK END ===

=== CODE BLOCK ADDRESS 0x3aa0 ===
  0x3aa0	mov    	eax, 0x29c
  0x3aa5	test   	eax, eax
  0x3aa7	jle    	0x3ab1
  === BLOCK LINK ===
    0x3aa9
=== CODE BLOCK END ===

=== CODE BLOCK ADDRESS 0x3aa9 ===
  0x3aa9	movzx  	eax, ax
  0x3aac	or     	eax, 0x80070000
  0x3ab1	dec    	eax
  0x3ab2	add    	esp, 0x50
  0x3ab5	pop    	ebx
  === BLOCK LINK ===
    0x3ab6
=== CODE BLOCK END ===

=== CODE BLOCK ADDRESS 0x3ab6 ===
  0x3ab6	ret    	
  0x3ab7	int3   	
  0x3ab8	dec    	eax
  0x3ab9	mov    	dword ptr [esp + 0x20], ebx
  0x3abd	push   	esi
  === BLOCK LINK ===
    0x3abe
=== CODE BLOCK END ===

=== CODE BLOCK ADDRESS 0x1469 ===
=== CODE BLOCK END ===

=== CODE BLOCK ADDRESS 0x3abe ===
  0x3abe	push   	edi
  0x3abf	inc    	ecx
  0x3ac0	push   	esi
  0x3ac1	dec    	eax
  0x3ac2	sub    	esp, 0x150
  === BLOCK LINK ===
    0x3ac8
=== CODE BLOCK END ===

=== CODE BLOCK ADDRESS 0x3ac8 ===
  0x3ac8	dec    	eax
  0x3ac9	mov    	eax, dword ptr [0x6611]
  0x3acf	dec    	eax
  0x3ad0	xor    	eax, esp
  0x3ad2	dec    	eax
  === BLOCK LINK ===
    0x3ad3
=== CODE BLOCK END ===

=== CODE BLOCK ADDRESS 0x3ad3 ===
  0x3ad3	mov    	dword ptr [esp + 0x140], eax
  0x3ada	dec    	eax
  0x3adb	mov    	edi, ecx
  0x3add	dec    	ecx
  0x3ade	mov    	esi, ecx
  === BLOCK LINK ===
    0x3ae0
=== CODE BLOCK END ===

=== CODE BLOCK ADDRESS 0x3ae0 ===
  0x3ae0	xor    	ecx, ecx
  0x3ae2	dec    	ecx
  0x3ae3	mov    	ebx, eax
  0x3ae5	dec    	eax
  0x3ae6	mov    	dword ptr [esp + 0x20], ecx
  === BLOCK LINK ===
    0x3aea
=== CODE BLOCK END ===

=== CODE BLOCK ADDRESS 0x3aea ===
  0x3aea	dec    	esp
  0x3aeb	mov    	esi, edx
  0x3aed	dec    	eax
  0x3aee	test   	edi, edi
  0x3af0	je     	0x3b18
  === BLOCK LINK ===
    0x3af2
=== CODE BLOCK END ===

=== CODE BLOCK ADDRESS 0x3af2 ===
  0x3af2	dec    	esp
  0x3af3	lea    	eax, [esp + 0x20]
  0x3af7	dec    	eax
  0x3af8	mov    	edx, edi
  0x3afa	mov    	ecx, 6
  === BLOCK LINK ===
    0x3aff
=== CODE BLOCK END ===

=== CODE BLOCK ADDRESS 0x3aff ===
  0x3aff	call   	dword ptr [0x37db]
  === BLOCK LINK ===
    0x3b05
=== CODE BLOCK END ===

=== CODE BLOCK ADDRESS 0x3b05 ===
  0x3b05	test   	eax, eax
  0x3b07	jne    	0x3b13
  === BLOCK LINK ===
    0x3b09
=== CODE BLOCK END ===

=== CODE BLOCK ADDRESS 0x3b09 ===
  0x3b09	dec    	ebp
  0x3b0a	test   	esi, esi
  0x3b0c	je     	0x3b45
  === BLOCK LINK ===
    0x3b0e
=== CODE BLOCK END ===

=== CODE BLOCK ADDRESS 0x3b0e ===
  0x3b0e	inc    	ecx
  0x3b0f	and    	dword ptr [esi], eax
  0x3b11	jmp    	0x3b45
  === BLOCK LINK ===
    0x3b13
=== CODE BLOCK END ===

=== CODE BLOCK ADDRESS 0x3b13 ===
  0x3b13	dec    	eax
  0x3b14	mov    	ecx, dword ptr [esp + 0x20]
  0x3b18	dec    	ebp
  0x3b19	test   	esi, esi
  0x3b1b	je     	0x3b27
  === BLOCK LINK ===
    0x3b1d
=== CODE BLOCK END ===

=== CODE BLOCK ADDRESS 0x3b1d ===
  0x3b1d	dec    	eax
  0x3b1e	test   	edi, edi
  0x3b20	je     	0x3b24
  === BLOCK LINK ===
    0x3b22
=== CODE BLOCK END ===

=== CODE BLOCK ADDRESS 0x3b22 ===
  0x3b22	sub    	edi, ecx
  0x3b24	inc    	ecx
  0x3b25	mov    	dword ptr [esi], edi
  0x3b27	dec    	eax
  0x3b28	test   	ebx, ebx
  === BLOCK LINK ===
    0x3b2a
=== CODE BLOCK END ===

=== CODE BLOCK ADDRESS 0x3b2a ===
  0x3b2a	je     	0x3bc0
  === BLOCK LINK ===
    0x3b30
=== CODE BLOCK END ===

=== CODE BLOCK ADDRESS 0x3b30 ===
  0x3b30	inc    	ecx
  0x3b31	mov    	eax, 0x104
  0x3b36	dec    	eax
  0x3b37	lea    	edx, [esp + 0x30]
  0x3b3b	call   	dword ptr [0x37af]
  === BLOCK LINK ===
    0x3b41
=== CODE BLOCK END ===

=== CODE BLOCK ADDRESS 0x3b41 ===
  0x3b41	test   	eax, eax
  0x3b43	jne    	0x3b49
  === BLOCK LINK ===
    0x3b45
=== CODE BLOCK END ===

=== CODE BLOCK ADDRESS 0x3b45 ===
  0x3b45	xor    	al, al
  0x3b47	jmp    	0x3bc2
  === BLOCK LINK ===
    0x3b49
=== CODE BLOCK END ===

=== CODE BLOCK ADDRESS 0x3b49 ===
  0x3b49	dec    	eax
  0x3b4a	lea    	ecx, [esp + 0x30]
  0x3b4e	dec    	eax
  0x3b4f	or     	eax, 0xffffffff
  0x3b52	dec    	eax
  === BLOCK LINK ===
    0x3b53
=== CODE BLOCK END ===

=== CODE BLOCK ADDRESS 0x3b53 ===
  0x3b53	inc    	eax
  0x3b55	cmp    	byte ptr [ecx + eax], 0
  0x3b59	jne    	0x3b52
  === BLOCK LINK ===
    0x3b5b
=== CODE BLOCK END ===

=== CODE BLOCK ADDRESS 0x3b5b ===
  0x3b5b	dec    	eax
  0x3b5c	lea    	ecx, [esp + 0x30]
  0x3b60	dec    	eax
  0x3b61	add    	ecx, eax
  0x3b63	jmp    	0x3b6e
  === BLOCK LINK ===
    0x3b65
=== CODE BLOCK END ===

=== CODE BLOCK ADDRESS 0x3b65 ===
  0x3b65	cmp    	byte ptr [ecx - 1], 0x5c
  0x3b69	je     	0x3b78
  === BLOCK LINK ===
    0x3b6b
=== CODE BLOCK END ===

=== CODE BLOCK ADDRESS 0x3b6b ===
  0x3b6b	dec    	eax
  0x3b6c	dec    	ecx
  0x3b6e	dec    	eax
  0x3b6f	lea    	eax, [esp + 0x30]
  0x3b73	dec    	eax
  === BLOCK LINK ===
    0x3b74
=== CODE BLOCK END ===

=== CODE BLOCK ADDRESS 0x3b74 ===
  0x3b74	cmp    	ecx, eax
  0x3b76	ja     	0x3b65
  === BLOCK LINK ===
    0x3b78
=== CODE BLOCK END ===

=== CODE BLOCK ADDRESS 0x3b78 ===
  0x3b78	dec    	eax
  0x3b79	test   	esi, esi
  0x3b7b	je     	0x3bc0
  === BLOCK LINK ===
    0x3b7d
=== CODE BLOCK END ===

=== CODE BLOCK ADDRESS 0x3b7d ===
  0x3b7d	dec    	eax
  0x3b7e	cmp    	esi, 0x7fffffff
  0x3b84	jbe    	0x3b8b
  === BLOCK LINK ===
    0x3b86
=== CODE BLOCK END ===

=== CODE BLOCK ADDRESS 0x3b86 ===
  0x3b86	mov    	byte ptr [ebx], 0
  0x3b89	jmp    	0x3bc0
  === BLOCK LINK ===
    0x3b8b
=== CODE BLOCK END ===

=== CODE BLOCK ADDRESS 0x3b8b ===
  0x3b8b	inc    	ecx
  0x3b8c	mov    	eax, 0x7ffffffe
  0x3b91	dec    	esp
  0x3b92	sub    	eax, esi
  0x3b94	dec    	eax
  === BLOCK LINK ===
    0x3b95
=== CODE BLOCK END ===

=== CODE BLOCK ADDRESS 0x3b95 ===
  0x3b95	sub    	ecx, ebx
  0x3b97	dec    	ecx
  0x3b98	lea    	eax, [eax + esi]
  0x3b9b	dec    	eax
  0x3b9c	test   	eax, eax
  === BLOCK LINK ===
    0x3b9e
=== CODE BLOCK END ===

=== CODE BLOCK ADDRESS 0x3b9e ===
  0x3b9e	je     	0x3bb2
  === BLOCK LINK ===
    0x3ba0
=== CODE BLOCK END ===

=== CODE BLOCK ADDRESS 0x3ba0 ===
  0x3ba0	mov    	dl, byte ptr [ecx + ebx]
  0x3ba3	test   	dl, dl
  0x3ba5	je     	0x3bb2
  === BLOCK LINK ===
    0x3ba7
=== CODE BLOCK END ===

=== CODE BLOCK ADDRESS 0x3ba7 ===
  0x3ba7	mov    	byte ptr [ebx], dl
  0x3ba9	dec    	eax
  0x3baa	inc    	ebx
  0x3bac	dec    	eax
  0x3bad	sub    	esi, 1
  === BLOCK LINK ===
    0x3bb0
=== CODE BLOCK END ===

=== CODE BLOCK ADDRESS 0x3bb0 ===
  0x3bb0	jne    	0x3b97
  === BLOCK LINK ===
    0x3bb2
=== CODE BLOCK END ===

=== CODE BLOCK ADDRESS 0x3bb2 ===
  0x3bb2	dec    	eax
  0x3bb3	test   	esi, esi
  0x3bb5	dec    	eax
  0x3bb6	lea    	ecx, [ebx - 1]
  0x3bb9	dec    	eax
  === BLOCK LINK ===
    0x3bba
=== CODE BLOCK END ===

=== CODE BLOCK ADDRESS 0x3bba ===
  0x3bba	cmovne  	ecx, ebx
  0x3bbd	mov    	byte ptr [ecx], 0
  0x3bc0	mov    	al, 1
  0x3bc2	dec    	eax
  0x3bc3	mov    	ecx, dword ptr [esp + 0x140]
  === BLOCK LINK ===
    0x3bca
=== CODE BLOCK END ===

=== CODE BLOCK ADDRESS 0x3bca ===
  0x3bca	dec    	eax
  0x3bcb	xor    	ecx, esp
  0x3bcd	call   	0x1450
  === BLOCK LINK ===
    0x3bd2
=== CODE BLOCK END ===

=== CODE BLOCK ADDRESS 0x3bd2 ===
  0x3bd2	dec    	eax
  0x3bd3	mov    	ebx, dword ptr [esp + 0x188]
  0x3bda	dec    	eax
  0x3bdb	add    	esp, 0x150
  0x3be1	inc    	ecx
  === BLOCK LINK ===
    0x3be2
=== CODE BLOCK END ===

=== CODE BLOCK ADDRESS 0x3be2 ===
  0x3be2	pop    	esi
  0x3be3	pop    	edi
  0x3be4	pop    	esi
  0x3be5	ret    	
  0x3be6	int3   	
  === BLOCK LINK ===
    0x3be7
=== CODE BLOCK END ===

=== CODE BLOCK ADDRESS 0x1465 ===
  0x1465	dec    	eax
  0x1466	ror    	ecx, 0x10
  0x1469	jmp    	0x14b0
  === BLOCK LINK ===
    0x146e
=== CODE BLOCK END ===

=== CODE BLOCK ADDRESS 0x3be7 ===
  0x3be7	int3   	
  0x3be8	dec    	eax
  0x3be9	mov    	dword ptr [esp + 8], ebx
  0x3bed	dec    	eax
  0x3bee	mov    	dword ptr [esp + 0x10], ebp
  === BLOCK LINK ===
    0x3bf2
=== CODE BLOCK END ===

=== CODE BLOCK ADDRESS 0x3bf2 ===
  0x3bf2	dec    	eax
  0x3bf3	mov    	dword ptr [esp + 0x18], esi
  0x3bf7	push   	edi
  0x3bf8	dec    	eax
  0x3bf9	sub    	esp, 0x20
  === BLOCK LINK ===
    0x3bfc
=== CODE BLOCK END ===

=== CODE BLOCK ADDRESS 0x3bfc ===
  0x3bfc	xor    	al, al
  0x3bfe	inc    	ecx
  0x3bff	mov    	byte ptr [eax], 0
  0x3c02	dec    	ecx
  0x3c03	mov    	ebp, ecx
  === BLOCK LINK ===
    0x3c05
=== CODE BLOCK END ===

=== CODE BLOCK ADDRESS 0x3c05 ===
  0x3c05	dec    	ecx
  0x3c06	mov    	edi, eax
  0x3c08	dec    	eax
  0x3c09	mov    	esi, edx
  0x3c0b	dec    	eax
  === BLOCK LINK ===
    0x3c0c
=== CODE BLOCK END ===

=== CODE BLOCK ADDRESS 0x3c0c ===
  0x3c0c	mov    	ebx, ecx
  0x3c0e	dec    	eax
  0x3c0f	test   	edx, edx
  0x3c11	je     	0x3cc4
  === BLOCK LINK ===
    0x3c17
=== CODE BLOCK END ===

=== CODE BLOCK ADDRESS 0x3c17 ===
  0x3c17	dec    	eax
  0x3c18	mov    	edx, dword ptr [edx + 0x10]
  0x3c1b	call   	0x3be8
  === BLOCK LINK ===
    0x3c20
=== CODE BLOCK END ===

=== CODE BLOCK ADDRESS 0x3c20 ===
  0x3c20	dec    	eax
  0x3c21	mov    	edx, dword ptr [esi + 0x20]
  0x3c24	dec    	eax
  0x3c25	test   	edx, edx
  0x3c27	je     	0x3cc4
  === BLOCK LINK ===
    0x3c2d
=== CODE BLOCK END ===

=== CODE BLOCK ADDRESS 0x3c2d ===
  0x3c2d	cmp    	dword ptr [edx], 0
  0x3c30	jne    	0x3c43
  === BLOCK LINK ===
    0x3c32
=== CODE BLOCK END ===

=== CODE BLOCK ADDRESS 0x3c32 ===
  0x3c32	mov    	eax, 1
  0x3c37	lock xadd  	dword ptr [0x64c5], eax
  0x3c3f	inc    	eax
  0x3c41	mov    	dword ptr [edx], eax
  0x3c43	cmp    	dword ptr [ebx + 0x50], 0
  === BLOCK LINK ===
    0x3c47
=== CODE BLOCK END ===

=== CODE BLOCK ADDRESS 0x3c47 ===
  0x3c47	jne    	0x3c5a
  === BLOCK LINK ===
    0x3c49
=== CODE BLOCK END ===

=== CODE BLOCK ADDRESS 0x3c49 ===
  0x3c49	movups  	xmm0, xmmword ptr [edx]
  0x3c4c	movups  	xmmword ptr [ebx + 0x50], xmm0
  0x3c50	movsd  	xmm1, qword ptr [edx + 0x10]
  0x3c55	movsd  	qword ptr [ebx + 0x60], xmm1
  0x3c5a	movups  	xmm0, xmmword ptr [edx]
  === BLOCK LINK ===
    0x3c5d
=== CODE BLOCK END ===

=== CODE BLOCK ADDRESS 0x3c5d ===
  0x3c5d	dec    	eax
  0x3c5e	lea    	ecx, [edi + ebp]
  0x3c61	movups  	xmmword ptr [ebx + 0x68], xmm0
  0x3c65	movsd  	xmm1, qword ptr [edx + 0x10]
  0x3c6a	movsd  	qword ptr [ebx + 0x78], xmm1
  === BLOCK LINK ===
    0x3c6f
=== CODE BLOCK END ===

=== CODE BLOCK ADDRESS 0x3c6f ===
  0x3c6f	dec    	eax
  0x3c70	or     	ebx, 0xffffffff
  0x3c73	dec    	eax
  0x3c74	mov    	eax, ebx
  0x3c76	dec    	eax
  === BLOCK LINK ===
    0x3c77
=== CODE BLOCK END ===

=== CODE BLOCK ADDRESS 0x3c77 ===
  0x3c77	inc    	eax
  0x3c79	cmp    	byte ptr [edi + eax], 0
  0x3c7d	jne    	0x3c76
  === BLOCK LINK ===
    0x3c7f
=== CODE BLOCK END ===

=== CODE BLOCK ADDRESS 0x3c7f ===
  0x3c7f	dec    	eax
  0x3c80	add    	edi, eax
  0x3c82	dec    	eax
  0x3c83	mov    	eax, ecx
  0x3c85	dec    	eax
  === BLOCK LINK ===
    0x3c86
=== CODE BLOCK END ===

=== CODE BLOCK ADDRESS 0x3c86 ===
  0x3c86	sub    	eax, edi
  0x3c88	dec    	eax
  0x3c89	cmp    	eax, 2
  0x3c8c	jle    	0x3cc2
  === BLOCK LINK ===
    0x3c8e
=== CODE BLOCK END ===

=== CODE BLOCK ADDRESS 0x3c8e ===
  0x3c8e	mov    	byte ptr [edi], 0x5c
  0x3c91	dec    	eax
  0x3c92	inc    	edi
  0x3c94	dec    	esp
  0x3c95	mov    	eax, dword ptr [edx + 8]
  === BLOCK LINK ===
    0x3c98
=== CODE BLOCK END ===

=== CODE BLOCK ADDRESS 0x3c98 ===
  0x3c98	dec    	eax
  0x3c99	inc    	ebx
  0x3c9b	inc    	ecx
  0x3c9c	cmp    	byte ptr [eax + ebx], 0
  0x3ca0	jne    	0x3c98
  === BLOCK LINK ===
    0x3ca2
=== CODE BLOCK END ===

=== CODE BLOCK ADDRESS 0x3ca2 ===
  0x3ca2	dec    	eax
  0x3ca3	sub    	ecx, edi
  0x3ca5	dec    	eax
  0x3ca6	inc    	ebx
  0x3ca8	dec    	eax
  === BLOCK LINK ===
    0x3ca9
=== CODE BLOCK END ===

=== CODE BLOCK ADDRESS 0x3ca9 ===
  0x3ca9	cmp    	ebx, ecx
  0x3cab	dec    	eax
  0x3cac	mov    	edx, ecx
  0x3cae	dec    	eax
  0x3caf	cmovae  	ebx, ecx
  === BLOCK LINK ===
    0x3cb2
=== CODE BLOCK END ===

=== CODE BLOCK ADDRESS 0x3cb2 ===
  0x3cb2	dec    	eax
  0x3cb3	mov    	ecx, edi
  0x3cb5	dec    	esp
  0x3cb6	mov    	ecx, ebx
  0x3cb8	call   	0x60f4
  === BLOCK LINK ===
    0x3cbd
=== CODE BLOCK END ===

=== CODE BLOCK ADDRESS 0x3cbd ===
  0x3cbd	mov    	byte ptr [ebx + edi - 1], 0
  0x3cc2	mov    	al, 1
  0x3cc4	dec    	eax
  0x3cc5	mov    	ebx, dword ptr [esp + 0x30]
  0x3cc9	dec    	eax
  === BLOCK LINK ===
    0x3cca
=== CODE BLOCK END ===

=== CODE BLOCK ADDRESS 0x3cca ===
  0x3cca	mov    	ebp, dword ptr [esp + 0x38]
  0x3cce	dec    	eax
  0x3ccf	mov    	esi, dword ptr [esp + 0x40]
  0x3cd3	dec    	eax
  0x3cd4	add    	esp, 0x20
  === BLOCK LINK ===
    0x3cd7
=== CODE BLOCK END ===

=== CODE BLOCK ADDRESS 0x3cd7 ===
  0x3cd7	pop    	edi
  0x3cd8	ret    	
  0x3cd9	int3   	
  0x3cda	int3   	
  0x3cdb	int3   	
  === BLOCK LINK ===
    0x3cdc
=== CODE BLOCK END ===

=== CODE BLOCK ADDRESS 0x14b0 ===
  0x14b3	and    	al, 8
  0x14b5	dec    	eax
  === BLOCK LINK ===
    0x14b6
=== CODE BLOCK END ===

=== CODE BLOCK ADDRESS 0x3cdc ===
  0x3cdc	dec    	eax
  0x3cdd	mov    	eax, esp
  0x3cdf	push   	edi
  0x3ce0	dec    	eax
  0x3ce1	sub    	esp, 0x30
  === BLOCK LINK ===
    0x3ce4
=== CODE BLOCK END ===

=== CODE BLOCK ADDRESS 0x3ce4 ===
  0x3ce4	dec    	eax
  0x3ce5	mov    	dword ptr [eax - 0x18], 0xfffffffe
  0x3cec	dec    	eax
  0x3ced	mov    	dword ptr [eax + 8], ebx
  0x3cf0	xor    	ebx, ebx
  === BLOCK LINK ===
    0x3cf2
=== CODE BLOCK END ===

=== CODE BLOCK ADDRESS 0x3cf2 ===
  0x3cf2	dec    	eax
  0x3cf3	mov    	edi, dword ptr [0x6a6f]
  0x3cf9	dec    	eax
  0x3cfa	test   	edi, edi
  0x3cfc	je     	0x3d8e
  === BLOCK LINK ===
    0x3d02
=== CODE BLOCK END ===

=== CODE BLOCK ADDRESS 0x3d02 ===
  0x3d02	dec    	eax
  0x3d03	cmp    	dword ptr [edi + 8], ebx
  0x3d06	jne    	0x3d2b
  === BLOCK LINK ===
    0x3d08
=== CODE BLOCK END ===

=== CODE BLOCK ADDRESS 0x3d08 ===
  0x3d08	dec    	eax
  0x3d09	and    	dword ptr [eax + 0x10], ebx
  0x3d0c	dec    	eax
  0x3d0d	lea    	edx, [eax + 0x10]
  0x3d10	dec    	eax
  === BLOCK LINK ===
    0x3d11
=== CODE BLOCK END ===

=== CODE BLOCK ADDRESS 0x3d11 ===
  0x3d11	mov    	ecx, dword ptr [edi]
  0x3d13	call   	0x3144
  === BLOCK LINK ===
    0x3d18
=== CODE BLOCK END ===

=== CODE BLOCK ADDRESS 0x3d18 ===
  0x3d18	test   	eax, eax
  0x3d1a	js     	0x3d2b
  === BLOCK LINK ===
    0x3d1c
=== CODE BLOCK END ===

=== CODE BLOCK ADDRESS 0x3d1c ===
  0x3d1c	dec    	eax
  0x3d1d	cmp    	dword ptr [edi + 8], ebx
  0x3d20	jne    	0x3d2b
  === BLOCK LINK ===
    0x3d22
=== CODE BLOCK END ===

=== CODE BLOCK ADDRESS 0x3d22 ===
  0x3d22	dec    	eax
  0x3d23	mov    	eax, dword ptr [esp + 0x48]
  0x3d27	dec    	eax
  0x3d28	mov    	dword ptr [edi + 8], eax
  0x3d2b	dec    	eax
  === BLOCK LINK ===
    0x3d2c
=== CODE BLOCK END ===

=== CODE BLOCK ADDRESS 0x3d2c ===
  0x3d2c	mov    	ecx, dword ptr [edi + 8]
  0x3d2f	dec    	eax
  0x3d30	lea    	eax, [ecx + 0x20]
  0x3d33	dec    	eax
  0x3d34	neg    	ecx
  === BLOCK LINK ===
    0x3d36
=== CODE BLOCK END ===

=== CODE BLOCK ADDRESS 0x3d36 ===
  0x3d36	dec    	eax
  0x3d37	sbb    	edi, edi
  0x3d39	dec    	eax
  0x3d3a	and    	edi, eax
  0x3d3c	je     	0x3d8e
  === BLOCK LINK ===
    0x3d3e
=== CODE BLOCK END ===

=== CODE BLOCK ADDRESS 0x3d3e ===
  0x3d3e	call   	dword ptr [0x35dc]
  === BLOCK LINK ===
    0x3d44
=== CODE BLOCK END ===

=== CODE BLOCK ADDRESS 0x3d44 ===
  0x3d44	inc    	esp
  0x3d45	mov    	ecx, eax
  0x3d47	inc    	esp
  0x3d48	mov    	eax, eax
  0x3d4a	dec    	eax
  === BLOCK LINK ===
    0x3d4b
=== CODE BLOCK END ===

=== CODE BLOCK ADDRESS 0x3d4b ===
  0x3d4b	mov    	eax, 0xcccccccd
  0x3d50	int3   	
  0x3d51	int3   	
  0x3d52	int3   	
  0x3d53	int3   	
  === BLOCK LINK ===
    0x3d54
=== CODE BLOCK END ===

=== CODE BLOCK ADDRESS 0x3d54 ===
  0x3d54	dec    	ecx
  0x3d55	mul    	ecx
  0x3d57	dec    	eax
  0x3d58	shr    	edx, 3
  0x3d5b	dec    	eax
  === BLOCK LINK ===
    0x3d5c
=== CODE BLOCK END ===

=== CODE BLOCK ADDRESS 0x3d5c ===
  0x3d5c	lea    	ecx, [edx + edx*4]
  0x3d5f	dec    	eax
  0x3d60	add    	ecx, ecx
  0x3d62	dec    	esp
  0x3d63	sub    	eax, ecx
  === BLOCK LINK ===
    0x3d65
=== CODE BLOCK END ===

=== CODE BLOCK ADDRESS 0x3d65 ===
  0x3d65	dec    	edx
  0x3d66	mov    	ebx, dword ptr [edi + eax*8 + 8]
  0x3d6a	jmp    	0x3d75
  === BLOCK LINK ===
    0x3d6c
=== CODE BLOCK END ===

=== CODE BLOCK ADDRESS 0x3d6c ===
  0x3d6c	inc    	esp
  0x3d6d	cmp    	dword ptr [ebx], ecx
  0x3d6f	je     	0x3d9c
  === BLOCK LINK ===
    0x3d71
=== CODE BLOCK END ===

=== CODE BLOCK ADDRESS 0x3d71 ===
  0x3d71	dec    	eax
  0x3d72	mov    	ebx, dword ptr [ebx + 8]
  0x3d75	dec    	eax
  0x3d76	test   	ebx, ebx
  0x3d78	jne    	0x3d6c
  === BLOCK LINK ===
    0x3d7a
=== CODE BLOCK END ===

=== CODE BLOCK ADDRESS 0x3d7a ===
  0x3d7a	dec    	eax
  0x3d7b	test   	ebx, ebx
  0x3d7d	je     	0x3d8e
  === BLOCK LINK ===
    0x3d7f
=== CODE BLOCK END ===

=== CODE BLOCK ADDRESS 0x3d7f ===
  0x3d7f	dec    	eax
  0x3d80	cmp    	dword ptr [ebx + 8], 0
  0x3d84	jne    	0x3d8e
  === BLOCK LINK ===
    0x3d86
=== CODE BLOCK END ===

=== CODE BLOCK ADDRESS 0x3d86 ===
  0x3d86	dec    	eax
  0x3d87	lea    	ecx, [edi + 4]
  0x3d8a	dec    	eax
  0x3d8b	mov    	dword ptr [ebx + 8], ecx
  0x3d8e	dec    	eax
  === BLOCK LINK ===
    0x3d8f
=== CODE BLOCK END ===

=== CODE BLOCK ADDRESS 0x3d8f ===
  0x3d8f	mov    	eax, ebx
  0x3d91	dec    	eax
  0x3d92	mov    	ebx, dword ptr [esp + 0x40]
  0x3d96	dec    	eax
  0x3d97	add    	esp, 0x30
  === BLOCK LINK ===
    0x3d9a
=== CODE BLOCK END ===

=== CODE BLOCK ADDRESS 0x3d9a ===
  0x3d9a	pop    	edi
  0x3d9b	ret    	
  0x3d9c	dec    	eax
  0x3d9d	add    	ebx, 0x10
  0x3da0	jmp    	0x3d7a
  === BLOCK LINK ===
    0x3da2
=== CODE BLOCK END ===

=== CODE BLOCK ADDRESS 0x1474 ===
  0x1476	dec    	eax
  0x1477	mov    	ebx, ecx
  0x1479	xor    	ecx, ecx
  0x147b	call   	dword ptr [0x5def]
  === BLOCK LINK ===
    0x1481
=== CODE BLOCK END ===

=== CODE BLOCK ADDRESS 0x3da2 ===
  0x3da2	int3   	
  0x3da3	int3   	
  0x3da4	dec    	eax
  0x3da5	mov    	dword ptr [esp + 8], esi
  0x3da9	push   	edi
  === BLOCK LINK ===
    0x3daa
=== CODE BLOCK END ===

=== CODE BLOCK ADDRESS 0x3daa ===
  0x3daa	dec    	eax
  0x3dab	sub    	esp, 0x20
  0x3dae	dec    	eax
  0x3daf	mov    	esi, edx
  0x3db1	dec    	eax
  === BLOCK LINK ===
    0x3db2
=== CODE BLOCK END ===

=== CODE BLOCK ADDRESS 0x3db2 ===
  0x3db2	mov    	edi, ecx
  0x3db4	xor    	edx, edx
  0x3db6	call   	dword ptr [0x35ec]
  === BLOCK LINK ===
    0x3dbc
=== CODE BLOCK END ===

=== CODE BLOCK ADDRESS 0x3dbc ===
  0x3dbc	cmp    	eax, -1
  0x3dbf	jne    	0x3dd5
  === BLOCK LINK ===
    0x3dc1
=== CODE BLOCK END ===

=== CODE BLOCK ADDRESS 0x3dc1 ===
  0x3dc1	mov    	edx, 0x95
  0x3dc6	dec    	eax
  0x3dc7	mov    	ecx, dword ptr [esp + 0x28]
  0x3dcb	call   	0x4c10
  === BLOCK LINK ===
    0x3dd0
=== CODE BLOCK END ===

=== CODE BLOCK ADDRESS 0x3dd0 ===
  0x3dd0	jmp    	0x3edd
  === BLOCK LINK ===
    0x3dd5
=== CODE BLOCK END ===

=== CODE BLOCK ADDRESS 0x3dd5 ===
  0x3dd5	test   	eax, eax
  0x3dd7	je     	0x3dea
  === BLOCK LINK ===
    0x3dd9
=== CODE BLOCK END ===

=== CODE BLOCK ADDRESS 0x3dd9 ===
  0x3dd9	cmp    	eax, 0x102
  0x3dde	je     	0x3dea
  === BLOCK LINK ===
    0x3de0
=== CODE BLOCK END ===

=== CODE BLOCK ADDRESS 0x3de0 ===
  0x3de0	mov    	edx, 0x96
  0x3de5	jmp    	0x3ec1
  === BLOCK LINK ===
    0x3dea
=== CODE BLOCK END ===

=== CODE BLOCK ADDRESS 0x3dea ===
  0x3dea	and    	dword ptr [esp + 0x40], 0
  0x3def	mov    	edx, 1
  0x3df4	dec    	eax
  0x3df5	mov    	ecx, edi
  0x3df7	test   	eax, eax
  === BLOCK LINK ===
    0x3df9
=== CODE BLOCK END ===

=== CODE BLOCK ADDRESS 0x3df9 ===
  0x3df9	jne    	0x3e40
  === BLOCK LINK ===
    0x3dfb
=== CODE BLOCK END ===

=== CODE BLOCK ADDRESS 0x3dfb ===
  0x3dfb	dec    	esp
  0x3dfc	lea    	eax, [esp + 0x40]
  0x3e00	call   	dword ptr [0x35b2]
  === BLOCK LINK ===
    0x3e06
=== CODE BLOCK END ===

=== CODE BLOCK ADDRESS 0x3e06 ===
  0x3e06	test   	eax, eax
  0x3e08	jne    	0x3e11
  === BLOCK LINK ===
    0x3e0a
=== CODE BLOCK END ===

=== CODE BLOCK ADDRESS 0x3e0a ===
  0x3e0a	mov    	edx, 0x9e
  0x3e0f	jmp    	0x3dc6
  === BLOCK LINK ===
    0x3e11
=== CODE BLOCK END ===

=== CODE BLOCK ADDRESS 0x3e11 ===
  0x3e11	inc    	dword ptr [esp + 0x40]
  0x3e15	inc    	ebp
  0x3e16	xor    	eax, eax
  0x3e18	dec    	eax
  0x3e19	mov    	ecx, edi
  === BLOCK LINK ===
    0x3e1b
=== CODE BLOCK END ===

=== CODE BLOCK ADDRESS 0x3e1b ===
  0x3e1b	inc    	ecx
  0x3e1c	lea    	edx, [eax + 1]
  0x3e1f	call   	dword ptr [0x3593]
  === BLOCK LINK ===
    0x3e25
=== CODE BLOCK END ===

=== CODE BLOCK ADDRESS 0x3e25 ===
  0x3e25	test   	eax, eax
  0x3e27	jne    	0x3e36
  === BLOCK LINK ===
    0x3e29
=== CODE BLOCK END ===

=== CODE BLOCK ADDRESS 0x3e29 ===
  0x3e29	call   	dword ptr [0x3461]
  === BLOCK LINK ===
    0x3e2f
=== CODE BLOCK END ===

=== CODE BLOCK ADDRESS 0x3e2f ===
  0x3e2f	cmp    	eax, 0x12a
  0x3e34	je     	0x3eb2
  === BLOCK LINK ===
    0x3e36
=== CODE BLOCK END ===

=== CODE BLOCK ADDRESS 0x3e36 ===
  0x3e36	mov    	edx, 0xa3
  0x3e3b	jmp    	0x3ec1
  === BLOCK LINK ===
    0x3e40
=== CODE BLOCK END ===

=== CODE BLOCK ADDRESS 0x3e40 ===
  0x3e40	and    	dword ptr [esp + 0x48], 0
  0x3e45	dec    	esp
  0x3e46	lea    	eax, [esp + 0x48]
  0x3e4a	call   	dword ptr [0x3568]
  === BLOCK LINK ===
    0x3e50
=== CODE BLOCK END ===

=== CODE BLOCK ADDRESS 0x3e50 ===
  0x3e50	test   	eax, eax
  0x3e52	jne    	0x3e5e
  === BLOCK LINK ===
    0x3e54
=== CODE BLOCK END ===

=== CODE BLOCK ADDRESS 0x3e54 ===
  0x3e54	mov    	edx, 0xad
  0x3e59	jmp    	0x3dc6
  === BLOCK LINK ===
    0x3e5e
=== CODE BLOCK END ===

=== CODE BLOCK ADDRESS 0x3e5e ===
  0x3e5e	cmp    	dword ptr [esp + 0x48], 0
  0x3e63	je     	0x3e6c
  === BLOCK LINK ===
    0x3e65
=== CODE BLOCK END ===

=== CODE BLOCK ADDRESS 0x3e65 ===
  0x3e65	mov    	edx, 0xae
  0x3e6a	jmp    	0x3ec1
  === BLOCK LINK ===
    0x3e6c
=== CODE BLOCK END ===

=== CODE BLOCK ADDRESS 0x3e6c ===
  0x3e6c	inc    	ebp
  0x3e6d	xor    	eax, eax
  0x3e6f	dec    	eax
  0x3e70	mov    	ecx, edi
  0x3e72	inc    	ecx
  === BLOCK LINK ===
    0x3e73
=== CODE BLOCK END ===

=== CODE BLOCK ADDRESS 0x3e73 ===
  0x3e73	lea    	edx, [eax + 1]
  0x3e76	call   	dword ptr [0x353c]
  === BLOCK LINK ===
    0x3e7c
=== CODE BLOCK END ===

=== CODE BLOCK ADDRESS 0x3e7c ===
  0x3e7c	test   	eax, eax
  0x3e7e	jne    	0x3ebc
  === BLOCK LINK ===
    0x3e80
=== CODE BLOCK END ===

=== CODE BLOCK ADDRESS 0x3e80 ===
  0x3e80	call   	dword ptr [0x340a]
  === BLOCK LINK ===
    0x3e86
=== CODE BLOCK END ===

=== CODE BLOCK ADDRESS 0x3e86 ===
  0x3e86	cmp    	eax, 0x12a
  0x3e8b	jne    	0x3ebc
  === BLOCK LINK ===
    0x3e8d
=== CODE BLOCK END ===

=== CODE BLOCK ADDRESS 0x3e8d ===
  0x3e8d	xor    	edx, edx
  0x3e8f	dec    	eax
  0x3e90	mov    	ecx, edi
  0x3e92	call   	dword ptr [0x3510]
  === BLOCK LINK ===
    0x3e98
=== CODE BLOCK END ===

=== CODE BLOCK ADDRESS 0x3e98 ===
  0x3e98	cmp    	eax, -1
  0x3e9b	jne    	0x3ea7
  === BLOCK LINK ===
    0x3e9d
=== CODE BLOCK END ===

=== CODE BLOCK ADDRESS 0x3e9d ===
  0x3e9d	mov    	edx, 0xb4
  0x3ea2	jmp    	0x3dc6
  === BLOCK LINK ===
    0x3ea7
=== CODE BLOCK END ===

=== CODE BLOCK ADDRESS 0x3ea7 ===
  0x3ea7	test   	eax, eax
  0x3ea9	je     	0x3eb2
  === BLOCK LINK ===
    0x3eab
=== CODE BLOCK END ===

=== CODE BLOCK ADDRESS 0x3eab ===
  0x3eab	mov    	edx, 0xb5
  0x3eb0	jmp    	0x3ec1
  === BLOCK LINK ===
    0x3eb2
=== CODE BLOCK END ===

=== CODE BLOCK ADDRESS 0x3eb2 ===
  0x3eb2	mov    	eax, dword ptr [esp + 0x40]
  0x3eb6	mov    	dword ptr [esi], eax
  0x3eb8	xor    	eax, eax
  0x3eba	jmp    	0x3edd
  === BLOCK LINK ===
    0x3ebc
=== CODE BLOCK END ===

=== CODE BLOCK ADDRESS 0x3ebc ===
  0x3ebc	mov    	edx, 0xb1
  0x3ec1	dec    	eax
  0x3ec2	mov    	ecx, dword ptr [esp + 0x28]
  0x3ec6	dec    	esp
  0x3ec7	lea    	eax, [0x3a77]
  === BLOCK LINK ===
    0x3ecd
=== CODE BLOCK END ===

=== CODE BLOCK ADDRESS 0x3ecd ===
  0x3ecd	inc    	ecx
  0x3ece	mov    	ecx, 0x8000ffff
  0x3ed3	call   	0x4c34
  === BLOCK LINK ===
    0x3ed8
=== CODE BLOCK END ===

=== CODE BLOCK ADDRESS 0x3ed8 ===
  0x3ed8	mov    	eax, 0x8000ffff
  0x3edd	dec    	eax
  0x3ede	mov    	esi, dword ptr [esp + 0x30]
  0x3ee2	dec    	eax
  0x3ee3	add    	esp, 0x20
  === BLOCK LINK ===
    0x3ee6
=== CODE BLOCK END ===

=== CODE BLOCK ADDRESS 0x3ee6 ===
  0x3ee6	pop    	edi
  0x3ee7	ret    	
  0x3ee8	mov    	eax, 0x800700ea
  0x3eed	mov    	edx, ecx
  0x3eef	cmp    	ecx, eax
  === BLOCK LINK ===
    0x3ef1
=== CODE BLOCK END ===

=== CODE BLOCK ADDRESS 0x14cf ===
  0x14cf	dec    	eax
  0x14d0	lea    	ecx, [0x8d4a]
  0x14d6	call   	0x1584
  === BLOCK LINK ===
    0x14db
=== CODE BLOCK END ===

=== CODE BLOCK ADDRESS 0x3ef1 ===
  0x3ef1	jg     	0x3fc6
  === BLOCK LINK ===
    0x3ef7
=== CODE BLOCK END ===

=== CODE BLOCK ADDRESS 0x3ef7 ===
  0x3ef7	je     	0x3fbc
  === BLOCK LINK ===
    0x3efd
=== CODE BLOCK END ===

=== CODE BLOCK ADDRESS 0x3efd ===
  0x3efd	mov    	eax, 0x80070057
  0x3f02	cmp    	ecx, eax
  0x3f04	jg     	0x3f70
  === BLOCK LINK ===
    0x3f06
=== CODE BLOCK END ===

=== CODE BLOCK ADDRESS 0x3f06 ===
  0x3f06	je     	0x3f66
  === BLOCK LINK ===
    0x3f08
=== CODE BLOCK END ===

=== CODE BLOCK ADDRESS 0x3f08 ===
  0x3f08	cmp    	ecx, 0x80004005
  0x3f0e	je     	0x3f5c
  === BLOCK LINK ===
    0x3f10
=== CODE BLOCK END ===

=== CODE BLOCK ADDRESS 0x3f10 ===
  0x3f10	cmp    	ecx, 0x80070001
  0x3f16	je     	0x3f52
  === BLOCK LINK ===
    0x3f18
=== CODE BLOCK END ===

=== CODE BLOCK ADDRESS 0x3f18 ===
  0x3f18	cmp    	ecx, 0x80070002
  0x3f1e	je     	0x3f48
  === BLOCK LINK ===
    0x3f20
=== CODE BLOCK END ===

=== CODE BLOCK ADDRESS 0x3f20 ===
  0x3f20	cmp    	ecx, 0x80070003
  0x3f26	je     	0x3f3e
  === BLOCK LINK ===
    0x3f28
=== CODE BLOCK END ===

=== CODE BLOCK ADDRESS 0x3f28 ===
  0x3f28	cmp    	ecx, 0x8007000e
  0x3f2e	jne    	0x404e
  === BLOCK LINK ===
    0x3f34
=== CODE BLOCK END ===

=== CODE BLOCK ADDRESS 0x3f34 ===
  0x3f34	mov    	edx, 0xc0000017
  0x3f39	jmp    	0x40ae
  === BLOCK LINK ===
    0x3f3e
=== CODE BLOCK END ===

=== CODE BLOCK ADDRESS 0x3f3e ===
  0x3f3e	mov    	edx, 0xc000003a
  0x3f43	jmp    	0x40ae
  === BLOCK LINK ===
    0x3f48
=== CODE BLOCK END ===

=== CODE BLOCK ADDRESS 0x3f48 ===
  0x3f48	mov    	edx, 0xc0000034
  0x3f4d	jmp    	0x40ae
  === BLOCK LINK ===
    0x3f52
=== CODE BLOCK END ===

=== CODE BLOCK ADDRESS 0x3f52 ===
  0x3f52	mov    	edx, 0xc0000002
  0x3f57	jmp    	0x40ae
  === BLOCK LINK ===
    0x3f5c
=== CODE BLOCK END ===

=== CODE BLOCK ADDRESS 0x3f5c ===
  0x3f5c	mov    	edx, 0xc0000001
  0x3f61	jmp    	0x40ae
  === BLOCK LINK ===
    0x3f66
=== CODE BLOCK END ===

=== CODE BLOCK ADDRESS 0x3f66 ===
  0x3f66	mov    	edx, 0xc000000d
  0x3f6b	jmp    	0x40ae
  === BLOCK LINK ===
    0x3f70
=== CODE BLOCK END ===

=== CODE BLOCK ADDRESS 0x3f70 ===
  0x3f70	cmp    	edx, 0x80070070
  0x3f76	je     	0x3fb2
  === BLOCK LINK ===
    0x3f78
=== CODE BLOCK END ===

=== CODE BLOCK ADDRESS 0x3f78 ===
  0x3f78	cmp    	edx, 0x8007007a
  0x3f7e	je     	0x3fa8
  === BLOCK LINK ===
    0x3f80
=== CODE BLOCK END ===

=== CODE BLOCK ADDRESS 0x3f80 ===
  0x3f80	cmp    	edx, 0x8007007b
  0x3f86	je     	0x3f9e
  === BLOCK LINK ===
    0x3f88
=== CODE BLOCK END ===

=== CODE BLOCK ADDRESS 0x3f88 ===
  0x3f88	cmp    	edx, 0x8007007e
  0x3f8e	jne    	0x404e
  === BLOCK LINK ===
    0x3f94
=== CODE BLOCK END ===

=== CODE BLOCK ADDRESS 0x3f94 ===
  0x3f94	mov    	edx, 0xc0000135
  0x3f99	jmp    	0x40ae
  === BLOCK LINK ===
    0x3f9e
=== CODE BLOCK END ===

=== CODE BLOCK ADDRESS 0x3f9e ===
  0x3f9e	mov    	edx, 0xc0000033
  0x3fa3	jmp    	0x40ae
  === BLOCK LINK ===
    0x3fa8
=== CODE BLOCK END ===

=== CODE BLOCK ADDRESS 0x3fa8 ===
  0x3fa8	mov    	edx, 0xc0000023
  0x3fad	jmp    	0x40ae
  === BLOCK LINK ===
    0x3fb2
=== CODE BLOCK END ===

=== CODE BLOCK ADDRESS 0x3fb2 ===
  0x3fb2	mov    	edx, 0xc000007f
  0x3fb7	jmp    	0x40ae
  === BLOCK LINK ===
    0x3fbc
=== CODE BLOCK END ===

=== CODE BLOCK ADDRESS 0x3fbc ===
  0x3fbc	mov    	edx, 0x80000005
  0x3fc1	jmp    	0x40ae
  === BLOCK LINK ===
    0x3fc6
=== CODE BLOCK END ===

=== CODE BLOCK ADDRESS 0x3fc6 ===
  0x3fc6	mov    	eax, 0x8007047e
  0x3fcb	cmp    	edx, eax
  0x3fcd	jg     	0x4032
  === BLOCK LINK ===
    0x3fcf
=== CODE BLOCK END ===

=== CODE BLOCK ADDRESS 0x3fcf ===
  0x3fcf	je     	0x402b
  === BLOCK LINK ===
    0x3fd1
=== CODE BLOCK END ===

=== CODE BLOCK ADDRESS 0x3fd1 ===
  0x3fd1	cmp    	edx, 0x80070216
  0x3fd7	je     	0x4021
  === BLOCK LINK ===
    0x3fd9
=== CODE BLOCK END ===

=== CODE BLOCK ADDRESS 0x3fd9 ===
  0x3fd9	cmp    	edx, 0x8007023e
  0x3fdf	je     	0x4017
  === BLOCK LINK ===
    0x3fe1
=== CODE BLOCK END ===

=== CODE BLOCK ADDRESS 0x3fe1 ===
  0x3fe1	cmp    	edx, 0x80070246
  0x3fe7	je     	0x400d
  === BLOCK LINK ===
    0x3fe9
=== CODE BLOCK END ===

=== CODE BLOCK ADDRESS 0x3fe9 ===
  0x3fe9	cmp    	edx, 0x80070247
  0x3fef	je     	0x4003
  === BLOCK LINK ===
    0x3ff1
=== CODE BLOCK END ===

=== CODE BLOCK ADDRESS 0x3ff1 ===
  0x3ff1	cmp    	edx, 0x80070272
  0x3ff7	jne    	0x404e
  === BLOCK LINK ===
    0x3ff9
=== CODE BLOCK END ===

=== CODE BLOCK ADDRESS 0x3ff9 ===
  0x3ff9	mov    	edx, 0xc0000273
  0x3ffe	jmp    	0x40ae
  === BLOCK LINK ===
    0x4003
=== CODE BLOCK END ===

=== CODE BLOCK ADDRESS 0x4003 ===
  0x4003	mov    	edx, 0xc0000163
  0x4008	jmp    	0x40ae
  === BLOCK LINK ===
    0x400d
=== CODE BLOCK END ===

=== CODE BLOCK ADDRESS 0x400d ===
  0x400d	mov    	edx, 0xc0000161
  0x4012	jmp    	0x40ae
  === BLOCK LINK ===
    0x4017
=== CODE BLOCK END ===

=== CODE BLOCK ADDRESS 0x4017 ===
  0x4017	mov    	edx, 0xc0000025
  0x401c	jmp    	0x40ae
  === BLOCK LINK ===
    0x4021
=== CODE BLOCK END ===

=== CODE BLOCK ADDRESS 0x4021 ===
  0x4021	mov    	edx, 0xc0000095
  0x4026	jmp    	0x40ae
  === BLOCK LINK ===
    0x402b
=== CODE BLOCK END ===

=== CODE BLOCK ADDRESS 0x402b ===
  0x402b	mov    	edx, 0xc0000059
  0x4030	jmp    	0x40ae
  === BLOCK LINK ===
    0x4032
=== CODE BLOCK END ===

=== CODE BLOCK ADDRESS 0x4032 ===
  0x4032	cmp    	edx, 0x8007050c
  0x4038	je     	0x40a9
  === BLOCK LINK ===
    0x403a
=== CODE BLOCK END ===

=== CODE BLOCK ADDRESS 0x403a ===
  0x403a	cmp    	edx, 0x8007054f
  0x4040	je     	0x40a2
  === BLOCK LINK ===
    0x4042
=== CODE BLOCK END ===

=== CODE BLOCK ADDRESS 0x4042 ===
  0x4042	cmp    	edx, 0x800705b9
  0x4048	je     	0x409b
  === BLOCK LINK ===
    0x404a
=== CODE BLOCK END ===

=== CODE BLOCK ADDRESS 0x404a ===
  0x404a	test   	edx, edx
  0x404c	je     	0x4097
  === BLOCK LINK ===
    0x404e
=== CODE BLOCK END ===

=== CODE BLOCK ADDRESS 0x404e ===
  0x404e	bt     	edx, 0x1c
  0x4052	jae    	0x405a
  === BLOCK LINK ===
    0x4054
=== CODE BLOCK END ===

=== CODE BLOCK ADDRESS 0x4054 ===
  0x4054	btr    	edx, 0x1c
  0x4058	jmp    	0x40ae
  === BLOCK LINK ===
    0x405a
=== CODE BLOCK END ===

=== CODE BLOCK ADDRESS 0x405a ===
  0x405a	mov    	eax, edx
  0x405c	mov    	ecx, 0x1fff0000
  0x4061	and    	eax, ecx
  0x4063	cmp    	eax, 0x70000
  0x4068	jne    	0x407d
  === BLOCK LINK ===
    0x406a
=== CODE BLOCK END ===

=== CODE BLOCK ADDRESS 0x406a ===
  0x406a	movzx  	ecx, dx
  0x406d	mov    	eax, ecx
  0x406f	mov    	edx, ecx
  0x4071	or     	eax, 0xc0070000
  0x4076	test   	ecx, ecx
  === BLOCK LINK ===
    0x4078
=== CODE BLOCK END ===

=== CODE BLOCK ADDRESS 0x4078 ===
  0x4078	cmovne  	edx, eax
  0x407b	jmp    	0x40ae
  === BLOCK LINK ===
    0x407d
=== CODE BLOCK END ===

=== CODE BLOCK ADDRESS 0x407d ===
  0x407d	mov    	eax, edx
  0x407f	and    	eax, ecx
  0x4081	cmp    	eax, 0x90000
  0x4086	jne    	0x40a2
  === BLOCK LINK ===
    0x4088
=== CODE BLOCK END ===

=== CODE BLOCK ADDRESS 0x4088 ===
  0x4088	test   	edx, edx
  0x408a	jle    	0x40ae
  === BLOCK LINK ===
    0x408c
=== CODE BLOCK END ===

=== CODE BLOCK ADDRESS 0x408c ===
  0x408c	movzx  	edx, dx
  0x408f	or     	edx, 0xc0090000
  0x4095	jmp    	0x40ae
  === BLOCK LINK ===
    0x4097
=== CODE BLOCK END ===

=== CODE BLOCK ADDRESS 0x4097 ===
  0x4097	xor    	edx, edx
  0x4099	jmp    	0x40ae
  === BLOCK LINK ===
    0x409b
=== CODE BLOCK END ===

=== CODE BLOCK ADDRESS 0x409b ===
  0x409b	mov    	edx, 0xc000a083
  0x40a0	jmp    	0x40ae
  === BLOCK LINK ===
    0x40a2
=== CODE BLOCK END ===

=== CODE BLOCK ADDRESS 0x40a2 ===
  0x40a2	mov    	edx, 0xc00000e5
  0x40a7	jmp    	0x40ae
  === BLOCK LINK ===
    0x40a9
=== CODE BLOCK END ===

=== CODE BLOCK ADDRESS 0x40a9 ===
  0x40a9	mov    	edx, 0xc000042b
  0x40ae	mov    	eax, edx
  0x40b0	ret    	
  0x40b1	int3   	
  0x40b2	int3   	
  === BLOCK LINK ===
    0x40b3
=== CODE BLOCK END ===

=== CODE BLOCK ADDRESS 0x40b3 ===
  0x40b3	int3   	
  0x40b4	int3   	
  0x40b5	int3   	
  0x40b6	int3   	
  0x40b7	int3   	
  === BLOCK LINK ===
    0x40b8
=== CODE BLOCK END ===

=== CODE BLOCK ADDRESS 0x40b8 ===
  0x40b8	jno    	0x40ed
  === BLOCK LINK ===
    0x40ba
=== CODE BLOCK END ===

=== CODE BLOCK ADDRESS 0x40ba ===
  0x40ba	ficom  	dword ptr [eax + 0x41]
  0x40bd	mov    	dh, 0x59
  0x40bf	scasb  	al, byte ptr es:[edi]
  0x40c0	inc    	eax
  0x40c1	push   	edi
  === BLOCK LINK ===
    0x40c2
=== CODE BLOCK END ===

=== CODE BLOCK ADDRESS 0x40c2 ===
  0x40c2	dec    	eax
  0x40c3	sub    	esp, 0x30
  0x40c6	dec    	eax
  0x40c7	mov    	dword ptr [esp + 0x20], 0xfffffffe
  0x40cf	dec    	eax
  === BLOCK LINK ===
    0x40d0
=== CODE BLOCK END ===

=== CODE BLOCK ADDRESS 0x40d0 ===
  0x40d0	mov    	dword ptr [esp + 0x40], ebx
  0x40d4	dec    	eax
  0x40d5	mov    	edi, ecx
  0x40d7	xor    	ebx, ebx
  0x40d9	dec    	eax
  === BLOCK LINK ===
    0x40da
=== CODE BLOCK END ===

=== CODE BLOCK ADDRESS 0x40da ===
  0x40da	mov    	ecx, dword ptr [ecx + 0x18]
  0x40dd	dec    	eax
  0x40de	test   	ecx, ecx
  0x40e0	je     	0x40fb
  === BLOCK LINK ===
    0x40e2
=== CODE BLOCK END ===

=== CODE BLOCK ADDRESS 0x40e2 ===
  0x40e2	dec    	eax
  0x40e3	mov    	eax, dword ptr [ecx]
  0x40e5	dec    	ecx
  0x40e6	mov    	edx, 0x50da3370
  0x40eb	inc    	ecx
  === BLOCK LINK ===
    0x40ec
=== CODE BLOCK END ===

=== CODE BLOCK ADDRESS 0x40ec ===
  0x40ec	mov    	dh, 0x59
  0x40ee	scasb  	al, byte ptr es:[edi]
  0x40ef	dec    	eax
  0x40f0	mov    	eax, dword ptr [eax + 0x18]
  0x40f3	call   	dword ptr [0x3497]
  === BLOCK LINK ===
    0x40f9
=== CODE BLOCK END ===

=== CODE BLOCK ADDRESS 0x40f9 ===
  0x40f9	mov    	ebx, eax
  0x40fb	dec    	eax
  0x40fc	mov    	ecx, dword ptr [edi + 0x10]
  0x40ff	call   	dword ptr [0x328b]
  === BLOCK LINK ===
    0x4105
=== CODE BLOCK END ===

=== CODE BLOCK ADDRESS 0x4105 ===
  0x4105	test   	eax, eax
  0x4107	jne    	0x411e
  === BLOCK LINK ===
    0x4109
=== CODE BLOCK END ===

=== CODE BLOCK ADDRESS 0x4109 ===
  0x4109	call   	dword ptr [0x3181]
  === BLOCK LINK ===
    0x410f
=== CODE BLOCK END ===

=== CODE BLOCK ADDRESS 0x410f ===
  0x410f	mov    	ebx, eax
  0x4111	test   	eax, eax
  0x4113	jle    	0x411e
  === BLOCK LINK ===
    0x4115
=== CODE BLOCK END ===

=== CODE BLOCK ADDRESS 0x4115 ===
  0x4115	movzx  	ebx, ax
  0x4118	or     	ebx, 0x80070000
  0x411e	test   	ebx, ebx
  0x4120	jns    	0x4129
  === BLOCK LINK ===
    0x4122
=== CODE BLOCK END ===

=== CODE BLOCK ADDRESS 0x4122 ===
  0x4122	mov    	ecx, ebx
  0x4124	call   	0x3448
  === BLOCK LINK ===
    0x4129
=== CODE BLOCK END ===

=== CODE BLOCK ADDRESS 0x4129 ===
  0x4129	mov    	eax, ebx
  0x412b	dec    	eax
  0x412c	mov    	ebx, dword ptr [esp + 0x40]
  0x4130	dec    	eax
  0x4131	add    	esp, 0x30
  === BLOCK LINK ===
    0x4134
=== CODE BLOCK END ===

=== CODE BLOCK ADDRESS 0x4134 ===
  0x4134	pop    	edi
  0x4135	ret    	
  0x4136	int3   	
  0x4137	int3   	
  0x4138	dec    	eax
  === BLOCK LINK ===
    0x4139
=== CODE BLOCK END ===

=== CODE BLOCK ADDRESS 0x1470 ===
  0x1470	inc    	eax
  0x1471	push   	ebx
  0x1472	dec    	eax
  === BLOCK LINK ===
    0x1473
=== CODE BLOCK END ===

=== CODE BLOCK ADDRESS 0x4139 ===
  0x4139	mov    	eax, esp
  0x413b	mov    	dword ptr [eax + 0x10], edx
  0x413e	dec    	eax
  0x413f	mov    	dword ptr [eax + 8], ecx
  0x4142	push   	ebp
  === BLOCK LINK ===
    0x4143
=== CODE BLOCK END ===

=== CODE BLOCK ADDRESS 0x4143 ===
  0x4143	push   	esi
  0x4144	push   	edi
  0x4145	inc    	ecx
  0x4146	push   	esp
  0x4147	inc    	ecx
  === BLOCK LINK ===
    0x4148
=== CODE BLOCK END ===

=== CODE BLOCK ADDRESS 0x4148 ===
  0x4148	push   	ebp
  0x4149	inc    	ecx
  0x414a	push   	esi
  0x414b	inc    	ecx
  0x414c	push   	edi
  === BLOCK LINK ===
    0x414d
=== CODE BLOCK END ===

=== CODE BLOCK ADDRESS 0x414d ===
  0x414d	dec    	eax
  0x414e	sub    	esp, 0x50
  0x4151	dec    	eax
  0x4152	mov    	dword ptr [eax - 0x48], 0xfffffffe
  0x4159	dec    	eax
  === BLOCK LINK ===
    0x415a
=== CODE BLOCK END ===

=== CODE BLOCK ADDRESS 0x415a ===
  0x415a	mov    	dword ptr [eax + 0x18], ebx
  0x415d	dec    	ebp
  0x415e	mov    	esp, ecx
  0x4160	dec    	ebp
  0x4161	mov    	ebp, eax
  === BLOCK LINK ===
    0x4163
=== CODE BLOCK END ===

=== CODE BLOCK ADDRESS 0x4163 ===
  0x4163	dec    	esp
  0x4164	mov    	edx, ecx
  0x4166	inc    	ebp
  0x4167	xor    	eax, eax
  0x4169	dec    	esp
  === BLOCK LINK ===
    0x416a
=== CODE BLOCK END ===

=== CODE BLOCK ADDRESS 0x416a ===
  0x416a	mov    	esi, dword ptr [esp + 0xe0]
  0x4171	inc    	bp
  0x4173	mov    	dword ptr [esi], eax
  0x4175	dec    	eax
  0x4176	mov    	eax, dword ptr [esp + 0xf0]
  === BLOCK LINK ===
    0x417d
=== CODE BLOCK END ===

=== CODE BLOCK ADDRESS 0x417d ===
  0x417d	inc    	esp
  0x417e	mov    	byte ptr [eax], al
  0x4180	dec    	eax
  0x4181	mov    	ebx, dword ptr [esp + 0x100]
  0x4188	dec    	esp
  === BLOCK LINK ===
    0x4189
=== CODE BLOCK END ===

=== CODE BLOCK ADDRESS 0x4189 ===
  0x4189	mov    	edi, dword ptr [esp + 0xc8]
  0x4190	inc    	ecx
  0x4191	mov    	edi, dword ptr [edi]
  0x4193	mov    	dword ptr [ebx + 8], edi
  0x4196	inc    	ecx
  === BLOCK LINK ===
    0x4197
=== CODE BLOCK END ===

=== CODE BLOCK ADDRESS 0x4197 ===
  0x4197	mov    	eax, dword ptr [edi + 4]
  0x419a	mov    	dword ptr [ebx + 0xc], eax
  0x419d	inc    	ecx
  0x419e	mov    	esi, eax
  0x41a0	mov    	ebp, dword ptr [esp + 0xc0]
  === BLOCK LINK ===
    0x41a7
=== CODE BLOCK END ===

=== CODE BLOCK ADDRESS 0x41a7 ===
  0x41a7	mov    	ecx, ebp
  0x41a9	test   	ebp, ebp
  0x41ab	je     	0x4216
  === BLOCK LINK ===
    0x41ad
=== CODE BLOCK END ===

=== CODE BLOCK ADDRESS 0x41ad ===
  0x41ad	sub    	ecx, 1
  0x41b0	je     	0x420d
  === BLOCK LINK ===
    0x41b2
=== CODE BLOCK END ===

=== CODE BLOCK ADDRESS 0x41b2 ===
  0x41b2	sub    	ecx, 1
  0x41b5	je     	0x41c5
  === BLOCK LINK ===
    0x41b7
=== CODE BLOCK END ===

=== CODE BLOCK ADDRESS 0x41b7 ===
  0x41b7	cmp    	ecx, 1
  0x41ba	jne    	0x421f
  === BLOCK LINK ===
    0x41bc
=== CODE BLOCK END ===

=== CODE BLOCK ADDRESS 0x41bc ===
  0x41bc	mov    	ecx, edi
  0x41be	call   	0x49a0
  === BLOCK LINK ===
    0x41c3
=== CODE BLOCK END ===

=== CODE BLOCK ADDRESS 0x41c3 ===
  0x41c3	jmp    	0x421d
  === BLOCK LINK ===
    0x41c5
=== CODE BLOCK END ===

=== CODE BLOCK ADDRESS 0x41c5 ===
  0x41c5	test   	edi, edi
  0x41c7	js     	0x4204
  === BLOCK LINK ===
    0x41c9
=== CODE BLOCK END ===

=== CODE BLOCK ADDRESS 0x41c9 ===
  0x41c9	mov    	edi, 0x8007029c
  0x41ce	mov    	dword ptr [esp + 0x30], edi
  0x41d2	dec    	eax
  0x41d3	mov    	eax, dword ptr [esp + 0xb8]
  0x41da	dec    	eax
  === BLOCK LINK ===
    0x41db
=== CODE BLOCK END ===

=== CODE BLOCK ADDRESS 0x41db ===
  0x41db	mov    	dword ptr [esp + 0x28], eax
  0x41df	dec    	eax
  0x41e0	mov    	eax, dword ptr [esp + 0xb0]
  0x41e7	dec    	eax
  0x41e8	mov    	dword ptr [esp + 0x20], eax
  === BLOCK LINK ===
    0x41ec
=== CODE BLOCK END ===

=== CODE BLOCK ADDRESS 0x41ec ===
  0x41ec	dec    	ebp
  0x41ed	mov    	eax, ebp
  0x41ef	dec    	ecx
  0x41f0	mov    	ecx, edx
  0x41f2	call   	0x23a8
  === BLOCK LINK ===
    0x41f7
=== CODE BLOCK END ===

=== CODE BLOCK ADDRESS 0x41f7 ===
  0x41f7	mov    	dword ptr [ebx + 8], edi
  0x41fa	mov    	ecx, edi
  0x41fc	call   	0x3ee8
  === BLOCK LINK ===
    0x4201
=== CODE BLOCK END ===

=== CODE BLOCK ADDRESS 0x4201 ===
  0x4201	mov    	dword ptr [ebx + 0xc], eax
  0x4204	mov    	ecx, edi
  0x4206	call   	0x49ac
  === BLOCK LINK ===
    0x420b
=== CODE BLOCK END ===

=== CODE BLOCK ADDRESS 0x420b ===
  0x420b	jmp    	0x421d
  === BLOCK LINK ===
    0x420d
=== CODE BLOCK END ===

=== CODE BLOCK ADDRESS 0x420d ===
  0x420d	mov    	ecx, edi
  0x420f	call   	0x49c4
  === BLOCK LINK ===
    0x4214
=== CODE BLOCK END ===

=== CODE BLOCK ADDRESS 0x4214 ===
  0x4214	jmp    	0x421d
  === BLOCK LINK ===
    0x4216
=== CODE BLOCK END ===

=== CODE BLOCK ADDRESS 0x4216 ===
  0x4216	mov    	ecx, edi
  0x4218	call   	0x4980
  === BLOCK LINK ===
    0x421d
=== CODE BLOCK END ===

=== CODE BLOCK ADDRESS 0x421d ===
  0x421d	mov    	esi, eax
  0x421f	mov    	dword ptr [ebx], ebp
  0x4221	xor    	edi, edi
  0x4223	mov    	dword ptr [ebx + 4], edi
  0x4226	inc    	ecx
  === BLOCK LINK ===
    0x4227
=== CODE BLOCK END ===

=== CODE BLOCK ADDRESS 0x4227 ===
  0x4227	cmp    	byte ptr [edi + 8], bh
  0x422a	je     	0x4233
  === BLOCK LINK ===
    0x422c
=== CODE BLOCK END ===

=== CODE BLOCK ADDRESS 0x422c ===
  0x422c	mov    	dword ptr [ebx + 4], 8
  0x4233	mov    	eax, 1
  0x4238	lock xadd  	dword ptr [0x6518], eax
  0x4240	inc    	eax
  0x4242	mov    	dword ptr [ebx + 0x10], eax
  === BLOCK LINK ===
    0x4245
=== CODE BLOCK END ===

=== CODE BLOCK ADDRESS 0x4245 ===
  0x4245	dec    	eax
  0x4246	mov    	eax, dword ptr [esp + 0xd0]
  0x424d	dec    	eax
  0x424e	test   	eax, eax
  0x4250	je     	0x4257
  === BLOCK LINK ===
    0x4252
=== CODE BLOCK END ===

=== CODE BLOCK ADDRESS 0x4252 ===
  0x4252	cmp    	word ptr [eax], di
  0x4255	jne    	0x425a
  === BLOCK LINK ===
    0x4257
=== CODE BLOCK END ===

=== CODE BLOCK ADDRESS 0x4257 ===
  0x4257	dec    	eax
  0x4258	mov    	eax, edi
  0x425a	dec    	eax
  0x425b	mov    	dword ptr [ebx + 0x18], eax
  0x425e	call   	dword ptr [0x30bc]
  === BLOCK LINK ===
    0x4264
=== CODE BLOCK END ===

=== CODE BLOCK ADDRESS 0x4264 ===
  0x4264	mov    	dword ptr [ebx + 0x20], eax
  0x4267	dec    	esp
  0x4268	mov    	dword ptr [ebx + 0x38], ebp
  0x426b	mov    	eax, dword ptr [esp + 0x98]
  0x4272	mov    	dword ptr [ebx + 0x40], eax
  === BLOCK LINK ===
    0x4275
=== CODE BLOCK END ===

=== CODE BLOCK ADDRESS 0x4275 ===
  0x4275	mov    	dword ptr [ebx + 0x44], esi
  0x4278	dec    	eax
  0x4279	mov    	eax, dword ptr [esp + 0xb0]
  0x4280	dec    	eax
  0x4281	mov    	dword ptr [ebx + 0x28], eax
  === BLOCK LINK ===
    0x4284
=== CODE BLOCK END ===

=== CODE BLOCK ADDRESS 0x4284 ===
  0x4284	dec    	esp
  0x4285	mov    	dword ptr [ebx + 0x30], esp
  0x4288	dec    	eax
  0x4289	mov    	eax, dword ptr [esp + 0xb8]
  0x4290	dec    	eax
  === BLOCK LINK ===
    0x4291
=== CODE BLOCK END ===

=== CODE BLOCK ADDRESS 0x4291 ===
  0x4291	mov    	dword ptr [ebx + 0x88], eax
  0x4297	dec    	eax
  0x4298	mov    	eax, dword ptr [esp + 0x90]
  0x429f	dec    	eax
  0x42a0	mov    	dword ptr [ebx + 0x90], eax
  === BLOCK LINK ===
    0x42a6
=== CODE BLOCK END ===

=== CODE BLOCK ADDRESS 0x42a6 ===
  0x42a6	dec    	eax
  0x42a7	mov    	dword ptr [ebx + 0x48], edi
  0x42aa	xorps  	xmm0, xmm0
  0x42ad	movups  	xmmword ptr [ebx + 0x50], xmm0
  0x42b1	movups  	xmmword ptr [ebx + 0x60], xmm0
  === BLOCK LINK ===
    0x42b5
=== CODE BLOCK END ===

=== CODE BLOCK ADDRESS 0x42b5 ===
  0x42b5	movups  	xmmword ptr [ebx + 0x70], xmm0
  0x42b9	dec    	eax
  0x42ba	mov    	eax, dword ptr [0x6548]
  0x42c0	dec    	eax
  0x42c1	test   	eax, eax
  === BLOCK LINK ===
    0x42c3
=== CODE BLOCK END ===

=== CODE BLOCK ADDRESS 0x42c3 ===
  0x42c3	je     	0x42d7
  === BLOCK LINK ===
    0x42c5
=== CODE BLOCK END ===

=== CODE BLOCK ADDRESS 0x42c5 ===
  0x42c5	dec    	ecx
  0x42c6	mov    	edx, 0x5ed9c370
  0x42cb	adc    	al, 0x27
  0x42cd	sub    	ebp, eax
  0x42cf	call   	dword ptr [0x32bb]
  === BLOCK LINK ===
    0x42d5
=== CODE BLOCK END ===

=== CODE BLOCK ADDRESS 0x42d5 ===
  0x42d5	jmp    	0x42da
  === BLOCK LINK ===
    0x42d7
=== CODE BLOCK END ===

=== CODE BLOCK ADDRESS 0x42d7 ===
  0x42d7	dec    	eax
  0x42d8	mov    	eax, edi
  0x42da	dec    	eax
  0x42db	mov    	dword ptr [ebx + 0x80], eax
  0x42e1	dec    	eax
  === BLOCK LINK ===
    0x42e2
=== CODE BLOCK END ===

=== CODE BLOCK ADDRESS 0x42e2 ===
  0x42e2	mov    	eax, dword ptr [0x64a0]
  0x42e8	dec    	eax
  0x42e9	test   	eax, eax
  0x42eb	je     	0x4300
  === BLOCK LINK ===
    0x42ed
=== CODE BLOCK END ===

=== CODE BLOCK ADDRESS 0x42ed ===
  0x42ed	dec    	ecx
  0x42ee	mov    	edx, 0x5e56ba70
  0x42f3	add    	eax, 0x48d8113e
  0x42f8	mov    	ecx, ebx
  0x42fa	call   	dword ptr [0x3290]
  === BLOCK LINK ===
    0x4300
=== CODE BLOCK END ===

=== CODE BLOCK ADDRESS 0x4300 ===
  0x4300	dec    	eax
  0x4301	mov    	eax, dword ptr [0x64b9]
  0x4307	dec    	eax
  0x4308	test   	eax, eax
  0x430a	je     	0x432d
  === BLOCK LINK ===
    0x430c
=== CODE BLOCK END ===

=== CODE BLOCK ADDRESS 0x430c ===
  0x430c	dec    	ecx
  0x430d	mov    	edx, 0x58da1a70
  0x4312	or     	cl, byte ptr [esi]
  0x4314	sbb    	edx, ebp
  0x4316	inc    	ecx
  === BLOCK LINK ===
    0x4317
=== CODE BLOCK END ===

=== CODE BLOCK ADDRESS 0x4317 ===
  0x4317	mov    	eax, 0x400
  0x431c	dec    	eax
  0x431d	mov    	edx, dword ptr [esp + 0xf0]
  0x4324	dec    	eax
  0x4325	mov    	ecx, ebx
  === BLOCK LINK ===
    0x4327
=== CODE BLOCK END ===

=== CODE BLOCK ADDRESS 0x4327 ===
  0x4327	call   	dword ptr [0x3263]
  === BLOCK LINK ===
    0x432d
=== CODE BLOCK END ===

=== CODE BLOCK ADDRESS 0x432d ===
  0x432d	dec    	eax
  0x432e	mov    	eax, dword ptr [0x647c]
  0x4334	dec    	eax
  0x4335	test   	eax, eax
  0x4337	je     	0x434c
  === BLOCK LINK ===
    0x4339
=== CODE BLOCK END ===

=== CODE BLOCK ADDRESS 0x4339 ===
  0x4339	dec    	ecx
  0x433a	mov    	edx, 0x3cd18a70
  0x433f	mov    	bh, byte ptr [edi - 0x74b74c68]
  0x4345	retf   	
  0x4346	call   	dword ptr [0x3244]
  === BLOCK LINK ===
    0x434c
=== CODE BLOCK END ===

=== CODE BLOCK ADDRESS 0x434c ===
  0x434c	dec    	eax
  0x434d	mov    	eax, dword ptr [0x648d]
  0x4353	dec    	eax
  0x4354	test   	eax, eax
  0x4356	je     	0x4371
  === BLOCK LINK ===
    0x4358
=== CODE BLOCK END ===

=== CODE BLOCK ADDRESS 0x4358 ===
  0x4358	test   	byte ptr [ebx + 4], 2
  0x435c	jne    	0x4371
  === BLOCK LINK ===
    0x435e
=== CODE BLOCK END ===

=== CODE BLOCK ADDRESS 0x435e ===
  0x435e	dec    	ecx
  0x435f	mov    	edx, 0x3cd18a70
  0x4364	mov    	bh, byte ptr [edi - 0x74b74c68]
  0x436a	retf   	
  0x436b	call   	dword ptr [0x321f]
  === BLOCK LINK ===
    0x4371
=== CODE BLOCK END ===

=== CODE BLOCK ADDRESS 0x159e ===
  0x159e	inc    	ebp
  0x159f	xor    	eax, eax
  === BLOCK LINK ===
    0x15a1
=== CODE BLOCK END ===

=== CODE BLOCK ADDRESS 0x4371 ===
  0x4371	cmp    	dword ptr [ebx + 8], edi
  0x4374	jl     	0x438f
  === BLOCK LINK ===
    0x4376
=== CODE BLOCK END ===

=== CODE BLOCK ADDRESS 0x4376 ===
  0x4376	cmp    	ebp, 3
  0x4379	jne    	0x448c
  === BLOCK LINK ===
    0x437f
=== CODE BLOCK END ===

=== CODE BLOCK ADDRESS 0x437f ===
  0x437f	mov    	ecx, 0x8000ffff
  0x4384	mov    	dword ptr [ebx + 8], ecx
  0x4387	call   	0x3ee8
  === BLOCK LINK ===
    0x438c
=== CODE BLOCK END ===

=== CODE BLOCK ADDRESS 0x438c ===
  0x438c	mov    	dword ptr [ebx + 0xc], eax
  0x438f	inc    	eax
  0x4390	cmp    	byte ptr [0x63da], bh
  0x4396	jne    	0x43c3
  === BLOCK LINK ===
    0x4398
=== CODE BLOCK END ===

=== CODE BLOCK ADDRESS 0x4398 ===
  0x4398	dec    	eax
  0x4399	mov    	eax, dword ptr [0x63c1]
  0x439f	dec    	eax
  0x43a0	test   	eax, eax
  0x43a2	je     	0x43b9
  === BLOCK LINK ===
    0x43a4
=== CODE BLOCK END ===

=== CODE BLOCK ADDRESS 0x43a4 ===
  0x43a4	dec    	ecx
  0x43a5	mov    	edx, 0x5c5ca270
  0x43aa	les    	ebx, ptr [esi + 0x15ffdf94]
  0x43b0	fdiv   	qword ptr [ecx]
  0x43b2	add    	byte ptr [eax], al
  === BLOCK LINK ===
    0x43b4
=== CODE BLOCK END ===

=== CODE BLOCK ADDRESS 0x43b4 ===
  0x43b4	movzx  	eax, al
  0x43b7	jmp    	0x43bf
  === BLOCK LINK ===
    0x43b9
=== CODE BLOCK END ===

=== CODE BLOCK ADDRESS 0x43b9 ===
  0x43b9	call   	dword ptr [0x2e99]
  === BLOCK LINK ===
    0x43bf
=== CODE BLOCK END ===

=== CODE BLOCK ADDRESS 0x43bf ===
  0x43bf	test   	eax, eax
  0x43c1	je     	0x43c9
  === BLOCK LINK ===
    0x43c3
=== CODE BLOCK END ===

=== CODE BLOCK ADDRESS 0x43c3 ===
  0x43c3	test   	byte ptr [ebx + 4], 2
  0x43c7	je     	0x43f8
  === BLOCK LINK ===
    0x43c9
=== CODE BLOCK END ===

=== CODE BLOCK ADDRESS 0x43c9 ===
  0x43c9	dec    	eax
  0x43ca	mov    	eax, dword ptr [0x63a8]
  0x43d0	dec    	eax
  0x43d1	test   	eax, eax
  0x43d3	je     	0x4448
  === BLOCK LINK ===
    0x43d5
=== CODE BLOCK END ===

=== CODE BLOCK ADDRESS 0x43d5 ===
  0x43d5	inc    	eax
  0x43d6	cmp    	byte ptr [0x63bc], bh
  0x43dc	jne    	0x4448
  === BLOCK LINK ===
    0x43de
=== CODE BLOCK END ===

=== CODE BLOCK ADDRESS 0x43de ===
  0x43de	dec    	ecx
  0x43df	mov    	edx, 0x7ede8170
  0x43e4	out    	0xb6, al
  0x43e6	nop    	
  0x43e7	stc    	
  === BLOCK LINK ===
    0x43e8
=== CODE BLOCK END ===

=== CODE BLOCK ADDRESS 0x43e8 ===
  0x43e8	inc    	ebp
  0x43e9	xor    	eax, eax
  0x43eb	xor    	edx, edx
  0x43ed	dec    	eax
  0x43ee	mov    	ecx, ebx
  === BLOCK LINK ===
    0x43f0
=== CODE BLOCK END ===

=== CODE BLOCK ADDRESS 0x43f0 ===
  0x43f0	call   	dword ptr [0x319a]
  === BLOCK LINK ===
    0x43f6
=== CODE BLOCK END ===

=== CODE BLOCK ADDRESS 0x43f6 ===
  0x43f6	jmp    	0x4448
  === BLOCK LINK ===
    0x43f8
=== CODE BLOCK END ===

=== CODE BLOCK ADDRESS 0x43f8 ===
  0x43f8	mov    	esi, 0x800
  0x43fd	dec    	eax
  0x43fe	mov    	eax, dword ptr [0x6374]
  0x4404	dec    	eax
  0x4405	test   	eax, eax
  === BLOCK LINK ===
    0x4407
=== CODE BLOCK END ===

=== CODE BLOCK ADDRESS 0x4407 ===
  0x4407	je     	0x442b
  === BLOCK LINK ===
    0x4409
=== CODE BLOCK END ===

=== CODE BLOCK ADDRESS 0x4409 ===
  0x4409	inc    	eax
  0x440a	cmp    	byte ptr [0x6388], bh
  0x4410	jne    	0x442b
  === BLOCK LINK ===
    0x4412
=== CODE BLOCK END ===

=== CODE BLOCK ADDRESS 0x4412 ===
  0x4412	dec    	ecx
  0x4413	mov    	edx, 0x7ede8170
  0x4418	out    	0xb6, al
  0x441a	nop    	
  0x441b	stc    	
  === BLOCK LINK ===
    0x441c
=== CODE BLOCK END ===

=== CODE BLOCK ADDRESS 0x441c ===
  0x441c	inc    	esp
  0x441d	mov    	eax, esi
  0x441f	dec    	ecx
  0x4420	mov    	edx, esi
  0x4422	dec    	eax
  === BLOCK LINK ===
    0x4423
=== CODE BLOCK END ===

=== CODE BLOCK ADDRESS 0x4423 ===
  0x4423	mov    	ecx, ebx
  0x4425	call   	dword ptr [0x3165]
  === BLOCK LINK ===
    0x442b
=== CODE BLOCK END ===

=== CODE BLOCK ADDRESS 0x442b ===
  0x442b	inc    	cx
  0x442d	cmp    	dword ptr [esi], edi
  0x442f	jne    	0x443f
  === BLOCK LINK ===
    0x4431
=== CODE BLOCK END ===

=== CODE BLOCK ADDRESS 0x4431 ===
  0x4431	dec    	esp
  0x4432	mov    	eax, ebx
  0x4434	dec    	eax
  0x4435	mov    	edx, esi
  0x4437	dec    	ecx
  === BLOCK LINK ===
    0x4438
=== CODE BLOCK END ===

=== CODE BLOCK ADDRESS 0x4438 ===
  0x4438	mov    	ecx, esi
  0x443a	call   	0x372c
  === BLOCK LINK ===
    0x443f
=== CODE BLOCK END ===

=== CODE BLOCK ADDRESS 0x443f ===
  0x443f	dec    	ecx
  0x4440	mov    	ecx, esi
  0x4442	call   	dword ptr [0x2e08]
  === BLOCK LINK ===
    0x4448
=== CODE BLOCK END ===

=== CODE BLOCK ADDRESS 0x4448 ===
  0x4448	test   	byte ptr [ebx + 4], 4
  0x444c	jne    	0x4457
  === BLOCK LINK ===
    0x444e
=== CODE BLOCK END ===

=== CODE BLOCK ADDRESS 0x444e ===
  0x444e	inc    	eax
  0x444f	cmp    	byte ptr [0x632b], bh
  0x4455	je     	0x4474
  === BLOCK LINK ===
    0x4457
=== CODE BLOCK END ===

=== CODE BLOCK ADDRESS 0x4457 ===
  0x4457	dec    	eax
  0x4458	mov    	eax, dword ptr [0x6372]
  0x445e	dec    	eax
  0x445f	test   	eax, eax
  0x4461	je     	0x4474
  === BLOCK LINK ===
    0x4463
=== CODE BLOCK END ===

=== CODE BLOCK ADDRESS 0x4463 ===
  0x4463	dec    	ecx
  0x4464	mov    	edx, 0x56da4870
  0x4469	xchg   	eax, esi
  0x446a	int1   	
  0x446c	test   	edi, edi
  === BLOCK LINK ===
    0x446e
=== CODE BLOCK END ===

=== CODE BLOCK ADDRESS 0x446e ===
  0x446e	adc    	eax, 0x311d
  0x4473	nop    	
  0x4474	dec    	eax
  0x4475	mov    	ebx, dword ptr [esp + 0xa0]
  0x447c	dec    	eax
  === BLOCK LINK ===
    0x447d
=== CODE BLOCK END ===

=== CODE BLOCK ADDRESS 0x447d ===
  0x447d	add    	esp, 0x50
  0x4480	inc    	ecx
  0x4481	pop    	edi
  0x4482	inc    	ecx
  0x4483	pop    	esi
  === BLOCK LINK ===
    0x4484
=== CODE BLOCK END ===

=== CODE BLOCK ADDRESS 0x4484 ===
  0x4484	inc    	ecx
  0x4485	pop    	ebp
  0x4486	inc    	ecx
  0x4487	pop    	esp
  0x4488	pop    	edi
  === BLOCK LINK ===
    0x4489
=== CODE BLOCK END ===

=== CODE BLOCK ADDRESS 0x4489 ===
  0x4489	pop    	esi
  0x448a	pop    	ebp
  0x448b	ret    	
  0x448c	call   	0x5e64
  === BLOCK LINK ===
    0x4491
=== CODE BLOCK END ===

=== CODE BLOCK ADDRESS 0x1c84 ===
=== CODE BLOCK END ===

=== CODE BLOCK ADDRESS 0x4491 ===
  0x4491	int3   	
  0x4492	int3   	
  0x4493	int3   	
  0x4494	dec    	esp
  0x4495	mov    	dword ptr [esp + 0x18], eax
  === BLOCK LINK ===
    0x4499
=== CODE BLOCK END ===

=== CODE BLOCK ADDRESS 0x4499 ===
  0x4499	dec    	esp
  0x449a	mov    	dword ptr [esp + 0x20], ecx
  0x449e	push   	ebx
  0x449f	push   	ebp
  0x44a0	push   	esi
  === BLOCK LINK ===
    0x44a1
=== CODE BLOCK END ===

=== CODE BLOCK ADDRESS 0x44a1 ===
  0x44a1	push   	edi
  0x44a2	dec    	eax
  0x44a3	sub    	esp, 0x28
  0x44a6	dec    	eax
  0x44a7	mov    	edi, edx
  === BLOCK LINK ===
    0x44a9
=== CODE BLOCK END ===

=== CODE BLOCK ADDRESS 0x44a9 ===
  0x44a9	dec    	esp
  0x44aa	lea    	ecx, [esp + 0x68]
  0x44ae	dec    	eax
  0x44af	sub    	edi, ecx
  0x44b1	xor    	ebp, ebp
  === BLOCK LINK ===
    0x44b3
=== CODE BLOCK END ===

=== CODE BLOCK ADDRESS 0x44b3 ===
  0x44b3	dec    	eax
  0x44b4	sar    	edi, 1
  0x44b6	dec    	eax
  0x44b7	mov    	esi, edx
  0x44b9	dec    	eax
  === BLOCK LINK ===
    0x44ba
=== CODE BLOCK END ===

=== CODE BLOCK ADDRESS 0x44ba ===
  0x44ba	mov    	ebx, ecx
  0x44bc	je     	0x44e8
  === BLOCK LINK ===
    0x44be
=== CODE BLOCK END ===

=== CODE BLOCK ADDRESS 0x44be ===
  0x44be	dec    	eax
  0x44bf	cmp    	edi, 0x7fffffff
  0x44c5	ja     	0x44e5
  === BLOCK LINK ===
    0x44c7
=== CODE BLOCK END ===

=== CODE BLOCK ADDRESS 0x44c7 ===
  0x44c7	dec    	eax
  0x44c8	dec    	edi
  0x44ca	dec    	eax
  0x44cb	mov    	edx, edi
  0x44cd	call   	0x20cc
  === BLOCK LINK ===
    0x44d2
=== CODE BLOCK END ===

=== CODE BLOCK ADDRESS 0x44d2 ===
  0x44d2	test   	eax, eax
  0x44d4	js     	0x44df
  === BLOCK LINK ===
    0x44d6
=== CODE BLOCK END ===

=== CODE BLOCK ADDRESS 0x44d6 ===
  0x44d6	dec    	eax
  0x44d7	cwde   	
  0x44d8	dec    	eax
  0x44d9	cmp    	eax, edi
  0x44db	ja     	0x44df
  === BLOCK LINK ===
    0x44dd
=== CODE BLOCK END ===

=== CODE BLOCK ADDRESS 0x44dd ===
  0x44dd	jne    	0x44e8
  === BLOCK LINK ===
    0x44df
=== CODE BLOCK END ===

=== CODE BLOCK ADDRESS 0x44df ===
  0x44df	mov    	word ptr [ebx + edi*2], bp
  0x44e3	jmp    	0x44e8
  === BLOCK LINK ===
    0x44e5
=== CODE BLOCK END ===

=== CODE BLOCK ADDRESS 0x44e5 ===
  0x44e5	mov    	word ptr [ecx], bp
  0x44e8	dec    	eax
  0x44e9	cmp    	esi, ebx
  0x44eb	je     	0x44fe
  === BLOCK LINK ===
    0x44ed
=== CODE BLOCK END ===

=== CODE BLOCK ADDRESS 0x44ed ===
  0x44ed	dec    	eax
  0x44ee	or     	eax, 0xffffffff
  0x44f1	dec    	eax
  0x44f2	inc    	eax
  0x44f4	cmp    	word ptr [ebx + eax*2], bp
  === BLOCK LINK ===
    0x44f8
=== CODE BLOCK END ===

=== CODE BLOCK ADDRESS 0x44f8 ===
  0x44f8	jne    	0x44f1
  === BLOCK LINK ===
    0x44fa
=== CODE BLOCK END ===

=== CODE BLOCK ADDRESS 0x44fa ===
  0x44fa	dec    	eax
  0x44fb	lea    	ebx, [ebx + eax*2]
  0x44fe	dec    	eax
  0x44ff	mov    	eax, ebx
  0x4501	dec    	eax
  === BLOCK LINK ===
    0x4502
=== CODE BLOCK END ===

=== CODE BLOCK ADDRESS 0x4502 ===
  0x4502	add    	esp, 0x28
  0x4505	pop    	edi
  0x4506	pop    	esi
  0x4507	pop    	ebp
  0x4508	pop    	ebx
  === BLOCK LINK ===
    0x4509
=== CODE BLOCK END ===

=== CODE BLOCK ADDRESS 0x4509 ===
  0x4509	ret    	
  0x450a	int3   	
  0x450b	int3   	
  0x450c	dec    	eax
  0x450d	mov    	dword ptr [esp + 8], ebx
  === BLOCK LINK ===
    0x4511
=== CODE BLOCK END ===

=== CODE BLOCK ADDRESS 0x160e ===
  0x160e	dec    	eax
  0x160f	add    	esp, 0x38
  0x1612	ret    	
  0x1613	int3   	
  === BLOCK LINK ===
    0x1614
=== CODE BLOCK END ===

=== CODE BLOCK ADDRESS 0x4511 ===
  0x4511	dec    	eax
  0x4512	mov    	dword ptr [esp + 0x20], esi
  0x4516	push   	ebp
  0x4517	push   	edi
  0x4518	inc    	ecx
  === BLOCK LINK ===
    0x4519
=== CODE BLOCK END ===

=== CODE BLOCK ADDRESS 0x4519 ===
  0x4519	push   	esp
  0x451a	inc    	ecx
  0x451b	push   	esi
  0x451c	inc    	ecx
  0x451d	push   	edi
  === BLOCK LINK ===
    0x451e
=== CODE BLOCK END ===

=== CODE BLOCK ADDRESS 0x451e ===
  0x451e	dec    	eax
  0x451f	lea    	ebp, [esp - 0x160]
  0x4526	dec    	eax
  0x4527	sub    	esp, 0x260
  0x452d	dec    	eax
  === BLOCK LINK ===
    0x452e
=== CODE BLOCK END ===

=== CODE BLOCK ADDRESS 0x452e ===
  0x452e	mov    	eax, dword ptr [0x5bac]
  0x4534	dec    	eax
  0x4535	xor    	eax, esp
  0x4537	dec    	eax
  0x4538	mov    	dword ptr [ebp + 0x150], eax
  === BLOCK LINK ===
    0x453e
=== CODE BLOCK END ===

=== CODE BLOCK ADDRESS 0x453e ===
  0x453e	inc    	ebp
  0x453f	xor    	esp, esp
  0x4541	dec    	ebp
  0x4542	mov    	esi, eax
  0x4544	dec    	ebp
  === BLOCK LINK ===
    0x4545
=== CODE BLOCK END ===

=== CODE BLOCK ADDRESS 0x4545 ===
  0x4545	mov    	dword ptr [eax], esp
  0x4547	dec    	esp
  0x4548	mov    	edi, edx
  0x454a	dec    	eax
  0x454b	mov    	esi, ecx
  === BLOCK LINK ===
    0x454d
=== CODE BLOCK END ===

=== CODE BLOCK ADDRESS 0x454d ===
  0x454d	call   	dword ptr [0x2d6d]
  === BLOCK LINK ===
    0x4553
=== CODE BLOCK END ===

=== CODE BLOCK ADDRESS 0x4553 ===
  0x4553	dec    	eax
  0x4554	mov    	ecx, eax
  0x4556	inc    	ecx
  0x4557	lea    	edx, [esp + 8]
  0x455b	inc    	ebp
  === BLOCK LINK ===
    0x455c
=== CODE BLOCK END ===

=== CODE BLOCK ADDRESS 0x455c ===
  0x455c	lea    	eax, [esp + 0x78]
  0x4560	call   	dword ptr [0x2d52]
  === BLOCK LINK ===
    0x4566
=== CODE BLOCK END ===

=== CODE BLOCK ADDRESS 0x4566 ===
  0x4566	dec    	eax
  0x4567	mov    	edi, dword ptr [0x624b]
  0x456d	dec    	eax
  0x456e	mov    	ebx, eax
  0x4570	dec    	eax
  === BLOCK LINK ===
    0x4571
=== CODE BLOCK END ===

=== CODE BLOCK ADDRESS 0x4571 ===
  0x4571	test   	edi, edi
  0x4573	je     	0x4594
  === BLOCK LINK ===
    0x4575
=== CODE BLOCK END ===

=== CODE BLOCK ADDRESS 0x4575 ===
  0x4575	call   	dword ptr [0x2d45]
  === BLOCK LINK ===
    0x457b
=== CODE BLOCK END ===

=== CODE BLOCK ADDRESS 0x457b ===
  0x457b	dec    	eax
  0x457c	mov    	ecx, eax
  0x457e	dec    	ecx
  0x457f	mov    	edx, 0x1e57bb70
  0x4584	ret    	
  === BLOCK LINK ===
    0x4585
=== CODE BLOCK END ===

=== CODE BLOCK ADDRESS 0x1e64 ===
=== CODE BLOCK END ===

=== CODE BLOCK ADDRESS 0x4585 ===
  0x4585	xchg   	eax, edi
  0x4586	in     	al, 0xaf
  0x4588	dec    	eax
  0x4589	mov    	edx, ebx
  0x458b	dec    	eax
  === BLOCK LINK ===
    0x458c
=== CODE BLOCK END ===

=== CODE BLOCK ADDRESS 0x458c ===
  0x458c	mov    	eax, edi
  0x458e	call   	dword ptr [0x2ffc]
  === BLOCK LINK ===
    0x4594
=== CODE BLOCK END ===

=== CODE BLOCK ADDRESS 0x4594 ===
  0x4594	dec    	eax
  0x4595	test   	ebx, ebx
  0x4597	je     	0x4759
  === BLOCK LINK ===
    0x459d
=== CODE BLOCK END ===

=== CODE BLOCK ADDRESS 0x459d ===
  0x459d	xorps  	xmm0, xmm0
  0x45a0	movdqu  	xmmword ptr [esp + 0x30], xmm0
  0x45a6	test   	bl, 3
  0x45a9	jne    	0x47b8
  === BLOCK LINK ===
    0x45af
=== CODE BLOCK END ===

=== CODE BLOCK ADDRESS 0x45af ===
  0x45af	dec    	eax
  0x45b0	mov    	edi, ebx
  0x45b2	dec    	eax
  0x45b3	lea    	eax, [esp + 0x40]
  0x45b7	dec    	eax
  === BLOCK LINK ===
    0x45b8
=== CODE BLOCK END ===

=== CODE BLOCK ADDRESS 0x45b8 ===
  0x45b8	shr    	edi, 2
  0x45bb	dec    	eax
  0x45bc	lea    	ecx, [esp + 0x40]
  0x45c0	dec    	eax
  0x45c1	sub    	esi, eax
  === BLOCK LINK ===
    0x45c3
=== CODE BLOCK END ===

=== CODE BLOCK ADDRESS 0x45c3 ===
  0x45c3	mov    	edx, 0x104
  0x45c8	dec    	eax
  0x45c9	lea    	eax, [edx + 0x7ffffefa]
  0x45cf	dec    	eax
  0x45d0	test   	eax, eax
  === BLOCK LINK ===
    0x45d2
=== CODE BLOCK END ===

=== CODE BLOCK ADDRESS 0x45d2 ===
  0x45d2	je     	0x45ea
  === BLOCK LINK ===
    0x45d4
=== CODE BLOCK END ===

=== CODE BLOCK ADDRESS 0x45d4 ===
  0x45d4	movzx  	eax, word ptr [esi + ecx]
  0x45d8	test   	ax, ax
  0x45db	je     	0x45ea
  === BLOCK LINK ===
    0x45dd
=== CODE BLOCK END ===

=== CODE BLOCK ADDRESS 0x45dd ===
  0x45dd	mov    	word ptr [ecx], ax
  0x45e0	dec    	eax
  0x45e1	add    	ecx, 2
  0x45e4	dec    	eax
  0x45e5	sub    	edx, 1
  === BLOCK LINK ===
    0x45e8
=== CODE BLOCK END ===

=== CODE BLOCK ADDRESS 0x45e8 ===
  0x45e8	jne    	0x45c8
  === BLOCK LINK ===
    0x45ea
=== CODE BLOCK END ===

=== CODE BLOCK ADDRESS 0x45ea ===
  0x45ea	dec    	eax
  0x45eb	lea    	eax, [ecx - 2]
  0x45ee	dec    	eax
  0x45ef	test   	edx, edx
  0x45f1	dec    	esp
  === BLOCK LINK ===
    0x45f2
=== CODE BLOCK END ===

=== CODE BLOCK ADDRESS 0x45f2 ===
  0x45f2	lea    	eax, [0x3388]
  0x45f8	dec    	eax
  0x45f9	cmovne  	eax, ecx
  0x45fc	dec    	eax
  0x45fd	lea    	ecx, [esp + 0x40]
  === BLOCK LINK ===
    0x4601
=== CODE BLOCK END ===

=== CODE BLOCK ADDRESS 0x4601 ===
  0x4601	inc    	sp
  0x4603	mov    	dword ptr [eax], esp
  0x4605	call   	0x562c
  === BLOCK LINK ===
    0x460a
=== CODE BLOCK END ===

=== CODE BLOCK ADDRESS 0x460a ===
  0x460a	dec    	eax
  0x460b	mov    	esi, edi
  0x460d	dec    	esp
  0x460e	lea    	ecx, [esp + 0x40]
  0x4612	inc    	ecx
  === BLOCK LINK ===
    0x4613
=== CODE BLOCK END ===

=== CODE BLOCK ADDRESS 0x4613 ===
  0x4613	mov    	eax, 1
  0x4618	dec    	eax
  0x4619	shr    	esi, 0x1f
  0x461c	and    	edi, 0x7fffffff
  0x4622	dec    	eax
  === BLOCK LINK ===
    0x4623
=== CODE BLOCK END ===

=== CODE BLOCK ADDRESS 0x4623 ===
  0x4623	lea    	ecx, [esp + 0x30]
  0x4627	mov    	edx, edi
  0x4629	inc    	esp
  0x462a	cmova  	eax, edi
  0x462d	call   	0x5e8c
  === BLOCK LINK ===
    0x4632
=== CODE BLOCK END ===

=== CODE BLOCK ADDRESS 0x4632 ===
  0x4632	mov    	edi, eax
  0x4634	test   	eax, eax
  0x4636	jns    	0x463f
  === BLOCK LINK ===
    0x4638
=== CODE BLOCK END ===

=== CODE BLOCK ADDRESS 0x4638 ===
  0x4638	mov    	edx, 0x85
  0x463d	jmp    	0x467c
  === BLOCK LINK ===
    0x463f
=== CODE BLOCK END ===

=== CODE BLOCK ADDRESS 0x463f ===
  0x463f	dec    	esp
  0x4640	lea    	eax, [0x3342]
  0x4646	dec    	eax
  0x4647	lea    	ecx, [esp + 0x40]
  0x464b	call   	0x562c
  === BLOCK LINK ===
    0x4650
=== CODE BLOCK END ===

=== CODE BLOCK ADDRESS 0x4650 ===
  0x4650	inc    	ecx
  0x4651	mov    	eax, 1
  0x4656	dec    	esp
  0x4657	lea    	ecx, [esp + 0x40]
  0x465b	test   	esi, esi
  === BLOCK LINK ===
    0x465d
=== CODE BLOCK END ===

=== CODE BLOCK ADDRESS 0x465d ===
  0x465d	dec    	eax
  0x465e	lea    	ecx, [esp + 0x38]
  0x4662	mov    	edx, esi
  0x4664	inc    	esp
  0x4665	cmovne  	eax, esi
  === BLOCK LINK ===
    0x4668
=== CODE BLOCK END ===

=== CODE BLOCK ADDRESS 0x4668 ===
  0x4668	call   	0x5e8c
  === BLOCK LINK ===
    0x466d
=== CODE BLOCK END ===

=== CODE BLOCK ADDRESS 0x466d ===
  0x466d	mov    	edi, eax
  0x466f	test   	eax, eax
  0x4671	jns    	0x46f8
  === BLOCK LINK ===
    0x4677
=== CODE BLOCK END ===

=== CODE BLOCK ADDRESS 0x4677 ===
  0x4677	mov    	edx, 0x89
  0x467c	dec    	eax
  0x467d	mov    	ecx, dword ptr [ebp + 0x188]
  0x4683	dec    	esp
  0x4684	lea    	eax, [0x32ba]
  === BLOCK LINK ===
    0x468a
=== CODE BLOCK END ===

=== CODE BLOCK ADDRESS 0x468a ===
  0x468a	inc    	esp
  0x468b	mov    	ecx, eax
  0x468d	call   	0x4c34
  === BLOCK LINK ===
    0x4692
=== CODE BLOCK END ===

=== CODE BLOCK ADDRESS 0x4692 ===
  0x4692	dec    	eax
  0x4693	mov    	ecx, dword ptr [ebp + 0x188]
  0x4699	dec    	esp
  0x469a	lea    	eax, [0x32a4]
  0x46a0	inc    	esp
  === BLOCK LINK ===
    0x46a1
=== CODE BLOCK END ===

=== CODE BLOCK ADDRESS 0x46a1 ===
  0x46a1	mov    	ecx, edi
  0x46a3	mov    	edx, 0x147
  0x46a8	call   	0x4c34
  === BLOCK LINK ===
    0x46ad
=== CODE BLOCK END ===

=== CODE BLOCK ADDRESS 0x46ad ===
  0x46ad	dec    	eax
  0x46ae	mov    	ecx, dword ptr [esp + 0x38]
  0x46b2	dec    	eax
  0x46b3	test   	ecx, ecx
  0x46b5	je     	0x46c5
  === BLOCK LINK ===
    0x46b7
=== CODE BLOCK END ===

=== CODE BLOCK ADDRESS 0x46b7 ===
  0x46b7	call   	dword ptr [0x2be3]
  === BLOCK LINK ===
    0x46bd
=== CODE BLOCK END ===

=== CODE BLOCK ADDRESS 0x46bd ===
  0x46bd	test   	eax, eax
  0x46bf	je     	0x47be
  === BLOCK LINK ===
    0x46c5
=== CODE BLOCK END ===

=== CODE BLOCK ADDRESS 0x46c5 ===
  0x46c5	dec    	eax
  0x46c6	mov    	ecx, dword ptr [esp + 0x30]
  0x46ca	dec    	eax
  0x46cb	test   	ecx, ecx
  0x46cd	je     	0x46dd
  === BLOCK LINK ===
    0x46cf
=== CODE BLOCK END ===

=== CODE BLOCK ADDRESS 0x46cf ===
  0x46cf	call   	dword ptr [0x2bcb]
  === BLOCK LINK ===
    0x46d5
=== CODE BLOCK END ===

=== CODE BLOCK ADDRESS 0x46d5 ===
  0x46d5	test   	eax, eax
  0x46d7	je     	0x47a6
  === BLOCK LINK ===
    0x46dd
=== CODE BLOCK END ===

=== CODE BLOCK ADDRESS 0x46dd ===
  0x46dd	call   	dword ptr [0x2bdd]
  === BLOCK LINK ===
    0x46e3
=== CODE BLOCK END ===

=== CODE BLOCK ADDRESS 0x46e3 ===
  0x46e3	dec    	esp
  0x46e4	mov    	eax, ebx
  0x46e6	xor    	edx, edx
  0x46e8	dec    	eax
  0x46e9	mov    	ecx, eax
  === BLOCK LINK ===
    0x46eb
=== CODE BLOCK END ===

=== CODE BLOCK ADDRESS 0x46eb ===
  0x46eb	call   	dword ptr [0x2bbf]
  === BLOCK LINK ===
    0x46f1
=== CODE BLOCK END ===

=== CODE BLOCK ADDRESS 0x46f1 ===
  0x46f1	mov    	eax, edi
  0x46f3	jmp    	0x477b
  === BLOCK LINK ===
    0x46f8
=== CODE BLOCK END ===

=== CODE BLOCK ADDRESS 0x46f8 ===
  0x46f8	mov    	dword ptr [ebx], 1
  0x46fe	dec    	eax
  0x46ff	lea    	ecx, [ebx + 0x22]
  0x4702	dec    	ecx
  0x4703	mov    	eax, dword ptr [edi]
  === BLOCK LINK ===
    0x4705
=== CODE BLOCK END ===

=== CODE BLOCK ADDRESS 0x4705 ===
  0x4705	xor    	edx, edx
  0x4707	dec    	eax
  0x4708	mov    	dword ptr [ebx + 8], eax
  0x470b	dec    	eax
  0x470c	mov    	eax, dword ptr [esp + 0x30]
  === BLOCK LINK ===
    0x4710
=== CODE BLOCK END ===

=== CODE BLOCK ADDRESS 0x4710 ===
  0x4710	dec    	ebp
  0x4711	mov    	dword ptr [edi], esp
  0x4713	dec    	eax
  0x4714	mov    	dword ptr [ebx + 0x10], eax
  0x4717	inc    	esp
  === BLOCK LINK ===
    0x4718
=== CODE BLOCK END ===

=== CODE BLOCK ADDRESS 0x4718 ===
  0x4718	lea    	eax, [edx + 0x56]
  0x471b	dec    	eax
  0x471c	mov    	eax, dword ptr [esp + 0x38]
  0x4720	dec    	eax
  0x4721	mov    	dword ptr [ebx + 0x18], eax
  === BLOCK LINK ===
    0x4724
=== CODE BLOCK END ===

=== CODE BLOCK ADDRESS 0x4724 ===
  0x4724	dec    	esp
  0x4725	mov    	dword ptr [esp + 0x30], esp
  0x4729	dec    	esp
  0x472a	mov    	dword ptr [esp + 0x38], esp
  0x472e	call   	0x20be
  === BLOCK LINK ===
    0x4733
=== CODE BLOCK END ===

=== CODE BLOCK ADDRESS 0x4733 ===
  0x4733	mov    	eax, 0x58
  0x4738	dec    	eax
  0x4739	lea    	ecx, [ebx + 0x28]
  0x473c	mov    	word ptr [ebx + 0x20], ax
  0x4740	xor    	edx, edx
  === BLOCK LINK ===
    0x4742
=== CODE BLOCK END ===

=== CODE BLOCK ADDRESS 0x4742 ===
  0x4742	mov    	dword ptr [ebx + 0x24], 1
  0x4749	inc    	esp
  0x474a	lea    	eax, [eax - 8]
  0x474d	call   	0x20be
  === BLOCK LINK ===
    0x4752
=== CODE BLOCK END ===

=== CODE BLOCK ADDRESS 0x4752 ===
  0x4752	xor    	eax, eax
  0x4754	dec    	ecx
  0x4755	mov    	dword ptr [esi], ebx
  0x4757	jmp    	0x477b
  === BLOCK LINK ===
    0x4759
=== CODE BLOCK END ===

=== CODE BLOCK ADDRESS 0x4759 ===
  0x4759	dec    	eax
  0x475a	mov    	ecx, dword ptr [ebp + 0x188]
  0x4760	dec    	esp
  0x4761	lea    	eax, [0x31dd]
  0x4767	mov    	ebx, 0x8007000e
  === BLOCK LINK ===
    0x476c
=== CODE BLOCK END ===

=== CODE BLOCK ADDRESS 0x476c ===
  0x476c	mov    	edx, 0x144
  0x4771	inc    	esp
  0x4772	mov    	ecx, ebx
  0x4774	call   	0x4c34
  === BLOCK LINK ===
    0x4779
=== CODE BLOCK END ===

=== CODE BLOCK ADDRESS 0x4779 ===
  0x4779	mov    	eax, ebx
  0x477b	dec    	eax
  0x477c	mov    	ecx, dword ptr [ebp + 0x150]
  0x4782	dec    	eax
  0x4783	xor    	ecx, esp
  === BLOCK LINK ===
    0x4785
=== CODE BLOCK END ===

=== CODE BLOCK ADDRESS 0x4785 ===
  0x4785	call   	0x1450
  === BLOCK LINK ===
    0x478a
=== CODE BLOCK END ===

=== CODE BLOCK ADDRESS 0x478a ===
  0x478a	dec    	esp
  0x478b	lea    	ebx, [esp + 0x260]
  0x4792	dec    	ecx
  0x4793	mov    	ebx, dword ptr [ebx + 0x30]
  0x4796	dec    	ecx
  === BLOCK LINK ===
    0x4797
=== CODE BLOCK END ===

=== CODE BLOCK ADDRESS 0x4797 ===
  0x4797	mov    	esi, dword ptr [ebx + 0x48]
  0x479a	dec    	ecx
  0x479b	mov    	esp, ebx
  0x479d	inc    	ecx
  0x479e	pop    	edi
  === BLOCK LINK ===
    0x479f
=== CODE BLOCK END ===

=== CODE BLOCK ADDRESS 0x479f ===
  0x479f	inc    	ecx
  0x47a0	pop    	esi
  0x47a1	inc    	ecx
  0x47a2	pop    	esp
  0x47a3	pop    	edi
  === BLOCK LINK ===
    0x47a4
=== CODE BLOCK END ===

=== CODE BLOCK ADDRESS 0x47a4 ===
  0x47a4	pop    	ebp
  0x47a5	ret    	
  0x47a6	dec    	eax
  0x47a7	mov    	ecx, dword ptr [ebp + 0x188]
  0x47ad	mov    	edx, 0x937
  === BLOCK LINK ===
    0x47b2
=== CODE BLOCK END ===

=== CODE BLOCK ADDRESS 0x47b2 ===
  0x47b2	call   	0x5e6c
  === BLOCK LINK ===
    0x47b7
=== CODE BLOCK END ===

=== CODE BLOCK ADDRESS 0x47b7 ===
  0x47b7	int3   	
  0x47b8	call   	0x5e64
  === BLOCK LINK ===
    0x47bd
=== CODE BLOCK END ===

=== CODE BLOCK ADDRESS 0x47bd ===
  0x47bd	int3   	
  0x47be	dec    	eax
  0x47bf	mov    	ecx, dword ptr [ebp + 0x188]
  0x47c5	mov    	edx, 0x937
  0x47ca	call   	0x5e6c
  === BLOCK LINK ===
    0x47cf
=== CODE BLOCK END ===

=== CODE BLOCK ADDRESS 0x47cf ===
  0x47cf	int3   	
  0x47d0	int3   	
  0x47d1	int3   	
  0x47d2	int3   	
  0x47d3	int3   	
  === BLOCK LINK ===
    0x47d4
=== CODE BLOCK END ===

=== CODE BLOCK ADDRESS 0x47d4 ===
  0x47d4	int3   	
  0x47d5	int3   	
  0x47d6	int3   	
  0x47d7	int3   	
  0x47d8	jno    	0x4794
  === BLOCK LINK ===
    0x47da
=== CODE BLOCK END ===

=== CODE BLOCK ADDRESS 0x47da ===
  0x47da	push   	esi
  0x47db	pop    	esi
  0x47dc	add    	eax, 0x40d8113e
  0x47e1	push   	ebp
  0x47e2	dec    	eax
  === BLOCK LINK ===
    0x47e3
=== CODE BLOCK END ===

=== CODE BLOCK ADDRESS 0x47e3 ===
  0x47e3	mov    	ebp, esp
  0x47e5	dec    	eax
  0x47e6	sub    	esp, 0x60
  0x47e9	dec    	eax
  0x47ea	mov    	dword ptr [ebp - 0x40], 0xfffffffe
  === BLOCK LINK ===
    0x47f1
=== CODE BLOCK END ===

=== CODE BLOCK ADDRESS 0x47f1 ===
  0x47f1	dec    	eax
  0x47f2	mov    	dword ptr [esp + 0x78], ebx
  0x47f6	dec    	eax
  0x47f7	mov    	ebx, ecx
  0x47f9	mov    	eax, dword ptr [ecx + 8]
  === BLOCK LINK ===
    0x47fc
=== CODE BLOCK END ===

=== CODE BLOCK ADDRESS 0x47fc ===
  0x47fc	mov    	dword ptr [ebp - 0x38], eax
  0x47ff	dec    	eax
  0x4800	mov    	eax, dword ptr [ecx + 0x18]
  0x4803	dec    	eax
  0x4804	mov    	dword ptr [ebp - 0x30], eax
  === BLOCK LINK ===
    0x4807
=== CODE BLOCK END ===

=== CODE BLOCK ADDRESS 0x4807 ===
  0x4807	mov    	al, byte ptr [ecx]
  0x4809	mov    	byte ptr [ebp - 0x28], al
  0x480c	movzx  	eax, word ptr [0x6005]
  0x4813	mov    	word ptr [ebp - 0x26], ax
  0x4817	movzx  	eax, word ptr [ecx + 0x40]
  === BLOCK LINK ===
    0x481b
=== CODE BLOCK END ===

=== CODE BLOCK ADDRESS 0x481b ===
  0x481b	mov    	word ptr [ebp - 0x20], ax
  0x481f	and    	dword ptr [ebp - 0x1c], 0
  0x4823	dec    	eax
  0x4824	mov    	eax, dword ptr [ecx + 0x38]
  0x4827	dec    	eax
  === BLOCK LINK ===
    0x4828
=== CODE BLOCK END ===

=== CODE BLOCK ADDRESS 0x4828 ===
  0x4828	mov    	dword ptr [ebp - 0x18], eax
  0x482b	dec    	eax
  0x482c	mov    	eax, dword ptr [ecx + 0x80]
  0x4832	dec    	eax
  0x4833	mov    	dword ptr [ebp - 0x10], eax
  === BLOCK LINK ===
    0x4836
=== CODE BLOCK END ===

=== CODE BLOCK ADDRESS 0x4836 ===
  0x4836	dec    	eax
  0x4837	and    	dword ptr [ebp + 0x10], 0
  0x483b	dec    	eax
  0x483c	mov    	eax, dword ptr [0x603e]
  0x4842	dec    	eax
  === BLOCK LINK ===
    0x4843
=== CODE BLOCK END ===

=== CODE BLOCK ADDRESS 0x4843 ===
  0x4843	test   	eax, eax
  0x4845	jne    	0x4883
  === BLOCK LINK ===
    0x4847
=== CODE BLOCK END ===

=== CODE BLOCK ADDRESS 0x4847 ===
  0x4847	dec    	eax
  0x4848	mov    	eax, dword ptr [0x5fe2]
  0x484e	dec    	eax
  0x484f	test   	eax, eax
  0x4851	jne    	0x4867
  === BLOCK LINK ===
    0x4853
=== CODE BLOCK END ===

=== CODE BLOCK ADDRESS 0x4853 ===
  0x4853	dec    	eax
  0x4854	lea    	ecx, [0x30ae]
  0x485a	call   	dword ptr [0x2a88]
  === BLOCK LINK ===
    0x4860
=== CODE BLOCK END ===

=== CODE BLOCK ADDRESS 0x4860 ===
  0x4860	dec    	eax
  0x4861	mov    	dword ptr [0x5fc9], eax
  0x4867	dec    	eax
  0x4868	lea    	edx, [0x318a]
  0x486e	dec    	eax
  === BLOCK LINK ===
    0x486f
=== CODE BLOCK END ===

=== CODE BLOCK ADDRESS 0x486f ===
  0x486f	mov    	ecx, eax
  0x4871	call   	dword ptr [0x2a81]
  === BLOCK LINK ===
    0x4877
=== CODE BLOCK END ===

=== CODE BLOCK ADDRESS 0x4877 ===
  0x4877	dec    	eax
  0x4878	mov    	dword ptr [0x6002], eax
  0x487e	dec    	eax
  0x487f	test   	eax, eax
  0x4881	je     	0x489e
  === BLOCK LINK ===
    0x4883
=== CODE BLOCK END ===

=== CODE BLOCK ADDRESS 0x4883 ===
  0x4883	dec    	ecx
  0x4884	mov    	edx, 0x3cdc1a70
  0x4889	scasb  	al, byte ptr es:[edi]
  0x488b	mov    	ch, 0xb2
  0x488d	dec    	esp
  === BLOCK LINK ===
    0x488e
=== CODE BLOCK END ===

=== CODE BLOCK ADDRESS 0x488e ===
  0x488e	lea    	eax, [ebp + 0x10]
  0x4891	dec    	eax
  0x4892	lea    	edx, [ebp - 0x38]
  0x4895	xor    	ecx, ecx
  0x4897	call   	dword ptr [0x2cf3]
  === BLOCK LINK ===
    0x489d
=== CODE BLOCK END ===

=== CODE BLOCK ADDRESS 0x489d ===
  0x489d	nop    	
  0x489e	mov    	eax, dword ptr [ebp + 0x10]
  0x48a1	mov    	dword ptr [ebx + 0x10], eax
  0x48a4	movzx  	ecx, byte ptr [ebp + 0x14]
  0x48a8	sub    	ecx, 1
  === BLOCK LINK ===
    0x48ab
=== CODE BLOCK END ===

=== CODE BLOCK ADDRESS 0x48ab ===
  0x48ab	je     	0x48c3
  === BLOCK LINK ===
    0x48ad
=== CODE BLOCK END ===

=== CODE BLOCK ADDRESS 0x48ad ===
  0x48ad	sub    	ecx, 1
  0x48b0	je     	0x48bd
  === BLOCK LINK ===
    0x48b2
=== CODE BLOCK END ===

=== CODE BLOCK ADDRESS 0x48b2 ===
  0x48b2	cmp    	ecx, 1
  0x48b5	jne    	0x48c7
  === BLOCK LINK ===
    0x48b7
=== CODE BLOCK END ===

=== CODE BLOCK ADDRESS 0x48b7 ===
  0x48b7	or     	dword ptr [ebx + 4], 4
  0x48bb	jmp    	0x48c7
  === BLOCK LINK ===
    0x48bd
=== CODE BLOCK END ===

=== CODE BLOCK ADDRESS 0x48bd ===
  0x48bd	or     	dword ptr [ebx + 4], 2
  0x48c1	jmp    	0x48c7
  === BLOCK LINK ===
    0x48c3
=== CODE BLOCK END ===

=== CODE BLOCK ADDRESS 0x48c3 ===
  0x48c3	or     	dword ptr [ebx + 4], 1
  0x48c7	dec    	eax
  0x48c8	mov    	ebx, dword ptr [esp + 0x78]
  0x48cc	dec    	eax
  0x48cd	add    	esp, 0x60
  === BLOCK LINK ===
    0x48d0
=== CODE BLOCK END ===

=== CODE BLOCK ADDRESS 0x48d0 ===
  0x48d0	pop    	ebp
  0x48d1	ret    	
  0x48d2	int3   	
  0x48d3	int3   	
  0x48d4	int3   	
  === BLOCK LINK ===
    0x48d5
=== CODE BLOCK END ===

=== CODE BLOCK ADDRESS 0x48d5 ===
  0x48d5	int3   	
  0x48d6	int3   	
  0x48d7	int3   	
  0x48d8	jno    	0x4873
  === BLOCK LINK ===
    0x48da
=== CODE BLOCK END ===

=== CODE BLOCK ADDRESS 0x48da ===
  0x48da	aad    	0x74
  0x48dc	jns    	0x48fc
  === BLOCK LINK ===
    0x48de
=== CODE BLOCK END ===

=== CODE BLOCK ADDRESS 0x48de ===
  0x48de	loopne  	0x48be
  === BLOCK LINK ===
    0x48e0
=== CODE BLOCK END ===

=== CODE BLOCK ADDRESS 0x48e0 ===
  0x48e0	inc    	eax
  0x48e1	push   	ebx
  0x48e2	dec    	eax
  0x48e3	sub    	esp, 0x30
  0x48e6	dec    	eax
  === BLOCK LINK ===
    0x48e7
=== CODE BLOCK END ===

=== CODE BLOCK ADDRESS 0x48e7 ===
  0x48e7	mov    	dword ptr [esp + 0x20], 0xfffffffe
  0x48ef	xor    	ebx, ebx
  0x48f1	dec    	ecx
  0x48f2	mov    	dword ptr [eax], ebx
  0x48f4	cmp    	dword ptr [edx], ebx
  === BLOCK LINK ===
    0x48f6
=== CODE BLOCK END ===

=== CODE BLOCK ADDRESS 0x48f6 ===
  0x48f6	jne    	0x4919
  === BLOCK LINK ===
    0x48f8
=== CODE BLOCK END ===

=== CODE BLOCK ADDRESS 0x48f8 ===
  0x48f8	mov    	eax, dword ptr [0x3246]
  0x48fe	cmp    	dword ptr [edx + 4], eax
  0x4901	jne    	0x4919
  === BLOCK LINK ===
    0x4903
=== CODE BLOCK END ===

=== CODE BLOCK ADDRESS 0x4903 ===
  0x4903	mov    	eax, dword ptr [0x323f]
  0x4909	cmp    	dword ptr [edx + 8], eax
  0x490c	jne    	0x4919
  === BLOCK LINK ===
    0x490e
=== CODE BLOCK END ===

=== CODE BLOCK ADDRESS 0x490e ===
  0x490e	mov    	eax, dword ptr [0x3238]
  0x4914	cmp    	dword ptr [edx + 0xc], eax
  0x4917	je     	0x4942
  === BLOCK LINK ===
    0x4919
=== CODE BLOCK END ===

=== CODE BLOCK ADDRESS 0x4919 ===
  0x4919	cmp    	dword ptr [edx], 0x6e1c7129
  0x491f	jne    	0x495e
  === BLOCK LINK ===
    0x4921
=== CODE BLOCK END ===

=== CODE BLOCK ADDRESS 0x4921 ===
  0x4921	mov    	eax, dword ptr [0x328d]
  0x4927	cmp    	dword ptr [edx + 4], eax
  0x492a	jne    	0x495e
  === BLOCK LINK ===
    0x492c
=== CODE BLOCK END ===

=== CODE BLOCK ADDRESS 0x492c ===
  0x492c	mov    	eax, dword ptr [0x3286]
  0x4932	cmp    	dword ptr [edx + 8], eax
  0x4935	jne    	0x495e
  === BLOCK LINK ===
    0x4937
=== CODE BLOCK END ===

=== CODE BLOCK ADDRESS 0x4937 ===
  0x4937	mov    	eax, dword ptr [0x327f]
  0x493d	cmp    	dword ptr [edx + 0xc], eax
  0x4940	jne    	0x495e
  === BLOCK LINK ===
    0x4942
=== CODE BLOCK END ===

=== CODE BLOCK ADDRESS 0x4942 ===
  0x4942	dec    	ecx
  0x4943	mov    	dword ptr [eax], ecx
  0x4945	dec    	eax
  0x4946	mov    	eax, dword ptr [ecx]
  0x4948	dec    	ecx
  === BLOCK LINK ===
    0x4949
=== CODE BLOCK END ===

=== CODE BLOCK ADDRESS 0x4949 ===
  0x4949	mov    	edx, 0x56dad870
  0x494e	jae    	0x4906
  === BLOCK LINK ===
    0x4950
=== CODE BLOCK END ===

=== CODE BLOCK ADDRESS 0x4950 ===
  0x4950	inc    	ecx
  0x4951	std    	
  0x4952	dec    	eax
  0x4953	mov    	eax, dword ptr [eax + 8]
  0x4956	call   	dword ptr [0x2c34]
  === BLOCK LINK ===
    0x495c
=== CODE BLOCK END ===

=== CODE BLOCK ADDRESS 0x495c ===
  0x495c	jmp    	0x4963
  === BLOCK LINK ===
    0x495e
=== CODE BLOCK END ===

=== CODE BLOCK ADDRESS 0x495e ===
  0x495e	mov    	ebx, 0x80004002
  0x4963	mov    	eax, ebx
  0x4965	dec    	eax
  0x4966	add    	esp, 0x30
  0x4969	pop    	ebx
  === BLOCK LINK ===
    0x496a
=== CODE BLOCK END ===

=== CODE BLOCK ADDRESS 0x496a ===
  0x496a	ret    	
  0x496b	int3   	
  0x496c	inc    	ebp
  0x496d	xor    	ecx, ecx
  0x496f	inc    	ebp
  === BLOCK LINK ===
    0x4970
=== CODE BLOCK END ===

=== CODE BLOCK ADDRESS 0x1649 ===
=== CODE BLOCK END ===

=== CODE BLOCK ADDRESS 0x4970 ===
  0x4970	xor    	eax, eax
  0x4972	inc    	ecx
  0x4973	lea    	edx, [ecx + 1]
  0x4976	dec    	eax
  0x4977	jmp    	dword ptr [0x2903]
  === BLOCK LINK ===
    0x497d
=== CODE BLOCK END ===

=== CODE BLOCK ADDRESS 0x497d ===
  0x497d	int3   	
  0x497e	int3   	
  0x497f	int3   	
  0x4980	mov    	dword ptr [0x5e96], ecx
  0x4986	mov    	eax, 1
  === BLOCK LINK ===
    0x498b
=== CODE BLOCK END ===

=== CODE BLOCK ADDRESS 0x498b ===
  0x498b	lock xadd  	dword ptr [0x5f01], eax
  0x4993	inc    	eax
  0x4995	ret    	
  0x4996	int3   	
  0x4997	int3   	
  === BLOCK LINK ===
    0x4998
=== CODE BLOCK END ===

=== CODE BLOCK ADDRESS 0x4998 ===
  0x4998	jno    	0x49e5
  === BLOCK LINK ===
    0x499a
=== CODE BLOCK END ===

=== CODE BLOCK ADDRESS 0x499a ===
  0x499a	pop    	ebp
  0x499b	xor    	al, 0xe8
  0x499d	rcl    	byte ptr cs:[ebp + 0x5e7e0d89], 0
  0x49a5	add    	byte ptr [eax + 1], bh
  0x49ab	ret    	
  === BLOCK LINK ===
    0x49ac
=== CODE BLOCK END ===

=== CODE BLOCK ADDRESS 0x1644 ===
  0x1644	dec    	eax
  0x1645	add    	esp, 0x28
  0x1648	ret    	
  0x1649	mov    	al, 1
  === BLOCK LINK ===
    0x164b
=== CODE BLOCK END ===

=== CODE BLOCK ADDRESS 0x49ac ===
  0x49ac	mov    	dword ptr [0x5f0a], ecx
  0x49b2	mov    	eax, 1
  0x49b7	lock xadd  	dword ptr [0x5ed1], eax
  0x49bf	inc    	eax
  0x49c1	ret    	
  === BLOCK LINK ===
    0x49c2
=== CODE BLOCK END ===

=== CODE BLOCK ADDRESS 0x1cc0 ===
  0x1cc0	dec    	eax
  0x1cc1	mov    	dword ptr [esp + 0x10], ebx
  0x1cc5	dec    	eax
  0x1cc6	mov    	dword ptr [esp + 0x18], esi
  === BLOCK LINK ===
    0x1cca
=== CODE BLOCK END ===

=== CODE BLOCK ADDRESS 0x49c2 ===
  0x49c2	int3   	
  0x49c3	int3   	
  0x49c4	mov    	dword ptr [0x5ece], ecx
  0x49ca	mov    	eax, 1
  0x49cf	lock xadd  	dword ptr [0x5ee1], eax
  === BLOCK LINK ===
    0x49d7
=== CODE BLOCK END ===

=== CODE BLOCK ADDRESS 0x49d7 ===
  0x49d7	inc    	eax
  0x49d9	ret    	
  0x49da	int3   	
  0x49db	int3   	
  0x49dc	dec    	eax
  === BLOCK LINK ===
    0x49dd
=== CODE BLOCK END ===

=== CODE BLOCK ADDRESS 0x49dd ===
  0x49dd	mov    	dword ptr [esp + 8], ebx
  0x49e1	dec    	eax
  0x49e2	mov    	dword ptr [esp + 0x18], ebp
  0x49e6	dec    	eax
  0x49e7	mov    	dword ptr [esp + 0x20], esi
  === BLOCK LINK ===
    0x49eb
=== CODE BLOCK END ===

=== CODE BLOCK ADDRESS 0x49eb ===
  0x49eb	push   	edi
  0x49ec	dec    	eax
  0x49ed	sub    	esp, 0x20
  0x49f0	cmp    	byte ptr [0x5df9], 0
  0x49f7	dec    	eax
  === BLOCK LINK ===
    0x49f8
=== CODE BLOCK END ===

=== CODE BLOCK ADDRESS 0x49f8 ===
  0x49f8	mov    	edi, ecx
  0x49fa	jne    	0x4b0f
  === BLOCK LINK ===
    0x4a00
=== CODE BLOCK END ===

=== CODE BLOCK ADDRESS 0x4a00 ===
  0x4a00	dec    	eax
  0x4a01	mov    	eax, dword ptr [0x5dc1]
  0x4a07	dec    	eax
  0x4a08	test   	eax, eax
  0x4a0a	je     	0x4a24
  === BLOCK LINK ===
    0x4a0c
=== CODE BLOCK END ===

=== CODE BLOCK ADDRESS 0x4a0c ===
  0x4a0c	dec    	ecx
  0x4a0d	mov    	edx, 0x12548270
  0x4a12	test   	byte ptr [esi], al
  0x4a14	mov    	cl, 0xf7
  0x4a16	call   	dword ptr [0x2b74]
  === BLOCK LINK ===
    0x4a1c
=== CODE BLOCK END ===

=== CODE BLOCK ADDRESS 0x4a1c ===
  0x4a1c	test   	al, al
  0x4a1e	jne    	0x4b0f
  === BLOCK LINK ===
    0x4a24
=== CODE BLOCK END ===

=== CODE BLOCK ADDRESS 0x4a24 ===
  0x4a24	dec    	eax
  0x4a25	mov    	ebx, dword ptr [edi + 8]
  0x4a28	inc    	ebp
  0x4a29	xor    	eax, eax
  0x4a2b	dec    	eax
  === BLOCK LINK ===
    0x4a2c
=== CODE BLOCK END ===

=== CODE BLOCK ADDRESS 0x4a2c ===
  0x4a2c	mov    	ecx, ebx
  0x4a2e	or     	edx, 0xffffffff
  0x4a31	call   	dword ptr [0x2951]
  === BLOCK LINK ===
    0x4a37
=== CODE BLOCK END ===

=== CODE BLOCK ADDRESS 0x4a37 ===
  0x4a37	cmp    	eax, 0x102
  0x4a3c	je     	0x4a4b
  === BLOCK LINK ===
    0x4a3e
=== CODE BLOCK END ===

=== CODE BLOCK ADDRESS 0x4a3e ===
  0x4a3e	test   	eax, 0xffffff7f
  0x4a43	jne    	0x4b3c
  === BLOCK LINK ===
    0x4a49
=== CODE BLOCK END ===

=== CODE BLOCK ADDRESS 0x4a49 ===
  0x4a49	jmp    	0x4a4d
  === BLOCK LINK ===
    0x4a4b
=== CODE BLOCK END ===

=== CODE BLOCK ADDRESS 0x4a4b ===
  0x4a4b	xor    	ebx, ebx
  0x4a4d	mov    	eax, dword ptr [edi]
  0x4a4f	dec    	eax
  0x4a51	mov    	dword ptr [edi], eax
  0x4a53	mov    	eax, dword ptr [edi]
  === BLOCK LINK ===
    0x4a55
=== CODE BLOCK END ===

=== CODE BLOCK ADDRESS 0x4a55 ===
  0x4a55	test   	eax, eax
  0x4a57	jne    	0x4afb
  === BLOCK LINK ===
    0x4a5d
=== CODE BLOCK END ===

=== CODE BLOCK ADDRESS 0x4a5d ===
  0x4a5d	dec    	eax
  0x4a5e	mov    	esi, dword ptr [edi + 0x10]
  0x4a61	dec    	eax
  0x4a62	test   	esi, esi
  0x4a64	je     	0x4a87
  === BLOCK LINK ===
    0x4a66
=== CODE BLOCK END ===

=== CODE BLOCK ADDRESS 0x4a66 ===
  0x4a66	call   	dword ptr [0x2824]
  === BLOCK LINK ===
    0x4a6c
=== CODE BLOCK END ===

=== CODE BLOCK ADDRESS 0x4a6c ===
  0x4a6c	dec    	eax
  0x4a6d	mov    	ecx, esi
  0x4a6f	mov    	ebp, eax
  0x4a71	call   	dword ptr [0x2829]
  === BLOCK LINK ===
    0x4a77
=== CODE BLOCK END ===

=== CODE BLOCK ADDRESS 0x4a77 ===
  0x4a77	test   	eax, eax
  0x4a79	je     	0x4b57
  === BLOCK LINK ===
    0x4a7f
=== CODE BLOCK END ===

=== CODE BLOCK ADDRESS 0x4a7f ===
  0x4a7f	mov    	ecx, ebp
  0x4a81	call   	dword ptr [0x2801]
  === BLOCK LINK ===
    0x4a87
=== CODE BLOCK END ===

=== CODE BLOCK ADDRESS 0x4a87 ===
  0x4a87	dec    	eax
  0x4a88	and    	dword ptr [edi + 0x10], 0
  0x4a8c	dec    	eax
  0x4a8d	mov    	esi, dword ptr [edi + 0x18]
  0x4a90	dec    	eax
  === BLOCK LINK ===
    0x4a91
=== CODE BLOCK END ===

=== CODE BLOCK ADDRESS 0x4a91 ===
  0x4a91	test   	esi, esi
  0x4a93	je     	0x4ab6
  === BLOCK LINK ===
    0x4a95
=== CODE BLOCK END ===

=== CODE BLOCK ADDRESS 0x4a95 ===
  0x4a95	call   	dword ptr [0x27f5]
  === BLOCK LINK ===
    0x4a9b
=== CODE BLOCK END ===

=== CODE BLOCK ADDRESS 0x4a9b ===
  0x4a9b	dec    	eax
  0x4a9c	mov    	ecx, esi
  0x4a9e	mov    	ebp, eax
  0x4aa0	call   	dword ptr [0x27fa]
  === BLOCK LINK ===
    0x4aa6
=== CODE BLOCK END ===

=== CODE BLOCK ADDRESS 0x4aa6 ===
  0x4aa6	test   	eax, eax
  0x4aa8	je     	0x4b67
  === BLOCK LINK ===
    0x4aae
=== CODE BLOCK END ===

=== CODE BLOCK ADDRESS 0x4aae ===
  0x4aae	mov    	ecx, ebp
  0x4ab0	call   	dword ptr [0x27d2]
  === BLOCK LINK ===
    0x4ab6
=== CODE BLOCK END ===

=== CODE BLOCK ADDRESS 0x4ab6 ===
  0x4ab6	dec    	eax
  0x4ab7	and    	dword ptr [edi + 0x18], 0
  0x4abb	dec    	eax
  0x4abc	test   	ebx, ebx
  0x4abe	je     	0x4add
  === BLOCK LINK ===
    0x4ac0
=== CODE BLOCK END ===

=== CODE BLOCK ADDRESS 0x4ac0 ===
  0x4ac0	call   	dword ptr [0x27ca]
  === BLOCK LINK ===
    0x4ac6
=== CODE BLOCK END ===

=== CODE BLOCK ADDRESS 0x4ac6 ===
  0x4ac6	dec    	eax
  0x4ac7	mov    	ecx, ebx
  0x4ac9	mov    	esi, eax
  0x4acb	call   	dword ptr [0x28af]
  === BLOCK LINK ===
    0x4ad1
=== CODE BLOCK END ===

=== CODE BLOCK ADDRESS 0x4ad1 ===
  0x4ad1	test   	eax, eax
  0x4ad3	je     	0x4b2c
  === BLOCK LINK ===
    0x4ad5
=== CODE BLOCK END ===

=== CODE BLOCK ADDRESS 0x4ad5 ===
  0x4ad5	mov    	ecx, esi
  0x4ad7	call   	dword ptr [0x27ab]
  === BLOCK LINK ===
    0x4add
=== CODE BLOCK END ===

=== CODE BLOCK ADDRESS 0x4add ===
  0x4add	dec    	eax
  0x4ade	mov    	ecx, edi
  0x4ae0	call   	0x2d3c
  === BLOCK LINK ===
    0x4ae5
=== CODE BLOCK END ===

=== CODE BLOCK ADDRESS 0x4ae5 ===
  0x4ae5	call   	dword ptr [0x27d5]
  === BLOCK LINK ===
    0x4aeb
=== CODE BLOCK END ===

=== CODE BLOCK ADDRESS 0x4aeb ===
  0x4aeb	dec    	esp
  0x4aec	mov    	eax, edi
  0x4aee	xor    	edx, edx
  0x4af0	dec    	eax
  0x4af1	mov    	ecx, eax
  === BLOCK LINK ===
    0x4af3
=== CODE BLOCK END ===

=== CODE BLOCK ADDRESS 0x4af3 ===
  0x4af3	call   	dword ptr [0x27b7]
  === BLOCK LINK ===
    0x4af9
=== CODE BLOCK END ===

=== CODE BLOCK ADDRESS 0x4af9 ===
  0x4af9	jmp    	0x4b17
  === BLOCK LINK ===
    0x4afb
=== CODE BLOCK END ===

=== CODE BLOCK ADDRESS 0x4afb ===
  0x4afb	dec    	eax
  0x4afc	test   	ebx, ebx
  0x4afe	je     	0x4b17
  === BLOCK LINK ===
    0x4b00
=== CODE BLOCK END ===

=== CODE BLOCK ADDRESS 0x4b00 ===
  0x4b00	dec    	eax
  0x4b01	mov    	ecx, ebx
  0x4b03	call   	dword ptr [0x2877]
  === BLOCK LINK ===
    0x4b09
=== CODE BLOCK END ===

=== CODE BLOCK ADDRESS 0x4b09 ===
  0x4b09	test   	eax, eax
  0x4b0b	je     	0x4b47
  === BLOCK LINK ===
    0x4b0d
=== CODE BLOCK END ===

=== CODE BLOCK ADDRESS 0x4b0d ===
  0x4b0d	jmp    	0x4b17
  === BLOCK LINK ===
    0x4b0f
=== CODE BLOCK END ===

=== CODE BLOCK ADDRESS 0x4b0f ===
  0x4b0f	mov    	eax, dword ptr [edi]
  0x4b11	dec    	eax
  0x4b13	mov    	dword ptr [edi], eax
  0x4b15	mov    	eax, dword ptr [edi]
  0x4b17	dec    	eax
  === BLOCK LINK ===
    0x4b18
=== CODE BLOCK END ===

=== CODE BLOCK ADDRESS 0x4b18 ===
  0x4b18	mov    	ebx, dword ptr [esp + 0x30]
  0x4b1c	dec    	eax
  0x4b1d	mov    	ebp, dword ptr [esp + 0x40]
  0x4b21	dec    	eax
  0x4b22	mov    	esi, dword ptr [esp + 0x48]
  === BLOCK LINK ===
    0x4b26
=== CODE BLOCK END ===

=== CODE BLOCK ADDRESS 0x4b26 ===
  0x4b26	dec    	eax
  0x4b27	add    	esp, 0x20
  0x4b2a	pop    	edi
  0x4b2b	ret    	
  0x4b2c	dec    	eax
  === BLOCK LINK ===
    0x4b2d
=== CODE BLOCK END ===

=== CODE BLOCK ADDRESS 0x4b2d ===
  0x4b2d	mov    	ecx, dword ptr [esp + 0x28]
  0x4b31	mov    	edx, 0x941
  0x4b36	call   	0x5e6c
  === BLOCK LINK ===
    0x4b3b
=== CODE BLOCK END ===

=== CODE BLOCK ADDRESS 0x4b3b ===
  0x4b3b	int3   	
  0x4b3c	dec    	eax
  0x4b3d	mov    	ecx, dword ptr [esp + 0x28]
  0x4b41	call   	0x34a4
  === BLOCK LINK ===
    0x4b46
=== CODE BLOCK END ===

=== CODE BLOCK ADDRESS 0x4b46 ===
  0x4b46	int3   	
  0x4b47	dec    	eax
  0x4b48	mov    	ecx, dword ptr [esp + 0x28]
  0x4b4c	mov    	edx, 0x941
  0x4b51	call   	0x5e6c
  === BLOCK LINK ===
    0x4b56
=== CODE BLOCK END ===

=== CODE BLOCK ADDRESS 0x4b56 ===
  0x4b56	int3   	
  0x4b57	dec    	eax
  0x4b58	mov    	ecx, dword ptr [esp + 0x28]
  0x4b5c	mov    	edx, 0x937
  0x4b61	call   	0x5e6c
  === BLOCK LINK ===
    0x4b66
=== CODE BLOCK END ===

=== CODE BLOCK ADDRESS 0x4b66 ===
  0x4b66	int3   	
  0x4b67	dec    	eax
  0x4b68	mov    	ecx, dword ptr [esp + 0x28]
  0x4b6c	mov    	edx, 0x937
  0x4b71	call   	0x5e6c
  === BLOCK LINK ===
    0x4b76
=== CODE BLOCK END ===

=== CODE BLOCK ADDRESS 0x4b76 ===
  0x4b76	int3   	
  0x4b77	int3   	
  0x4b78	jno    	0x4b2b
  === BLOCK LINK ===
    0x4b7a
=== CODE BLOCK END ===

=== CODE BLOCK ADDRESS 0x4b7a ===
  0x4b7a	pop    	esi
  0x4b7b	adc    	byte ptr ss:[edi], bl
  0x4b7e	lodsb  	al, byte ptr [esi]
  0x4b7f	mov    	edx, 0x83485340
  0x4b84	in     	al, dx
  === BLOCK LINK ===
    0x4b85
=== CODE BLOCK END ===

=== CODE BLOCK ADDRESS 0x4b85 ===
  0x4b85	and    	byte ptr [ecx - 0x47], al
  0x4b88	.byte  	0xff
  0x4b89	.byte  	0xff
  0x4b8a	.byte  	0xff
  0x4b8b	jg     	0x4b78
  === BLOCK LINK ===
    0x4b8d
=== CODE BLOCK END ===

=== CODE BLOCK ADDRESS 0x4b8d ===
  0x4b8d	push   	cs
  0x4b8e	inc    	ecx
  0x4b8f	lea    	edx, [eax - 1]
  0x4b92	inc    	ecx
  0x4b93	mov    	eax, eax
  === BLOCK LINK ===
    0x4b95
=== CODE BLOCK END ===

=== CODE BLOCK ADDRESS 0x4b95 ===
  0x4b95	lock cmpxchg  	dword ptr [ecx + 0xc], edx
  0x4b9a	je     	0x4ba5
  === BLOCK LINK ===
    0x4b9c
=== CODE BLOCK END ===

=== CODE BLOCK ADDRESS 0x4b9c ===
  0x4b9c	inc    	esp
  0x4b9d	mov    	eax, dword ptr [ecx + 0xc]
  0x4ba0	inc    	ebp
  0x4ba1	cmp    	eax, ecx
  0x4ba3	jne    	0x4b8e
  === BLOCK LINK ===
    0x4ba5
=== CODE BLOCK END ===

=== CODE BLOCK ADDRESS 0x4ba5 ===
  0x4ba5	inc    	ecx
  0x4ba6	lea    	ebx, [eax - 1]
  0x4ba9	test   	ebx, ebx
  0x4bab	jne    	0x4bef
  === BLOCK LINK ===
    0x4bad
=== CODE BLOCK END ===

=== CODE BLOCK ADDRESS 0x4bad ===
  0x4bad	dec    	eax
  0x4bae	test   	ecx, ecx
  0x4bb0	je     	0x4bcc
  === BLOCK LINK ===
    0x4bb2
=== CODE BLOCK END ===

=== CODE BLOCK ADDRESS 0x4bb2 ===
  0x4bb2	dec    	eax
  0x4bb3	mov    	eax, dword ptr [ecx]
  0x4bb5	dec    	ecx
  0x4bb6	mov    	edx, 0x7c50e970
  0x4bbb	pop    	ebp
  === BLOCK LINK ===
    0x4bbc
=== CODE BLOCK END ===

=== CODE BLOCK ADDRESS 0x4bbc ===
  0x4bbc	push   	cs
  0x4bbd	sbb    	al, 0xbd
  0x4bbf	dec    	eax
  0x4bc0	mov    	eax, dword ptr [eax + 0x20]
  0x4bc3	lea    	edx, [ebx + 1]
  === BLOCK LINK ===
    0x4bc6
=== CODE BLOCK END ===

=== CODE BLOCK ADDRESS 0x4bc6 ===
  0x4bc6	call   	dword ptr [0x29c4]
  === BLOCK LINK ===
    0x4bcc
=== CODE BLOCK END ===

=== CODE BLOCK ADDRESS 0x4bcc ===
  0x4bcc	dec    	eax
  0x4bcd	mov    	ecx, dword ptr [0x5cdd]
  0x4bd3	dec    	eax
  0x4bd4	test   	ecx, ecx
  0x4bd6	je     	0x4bef
  === BLOCK LINK ===
    0x4bd8
=== CODE BLOCK END ===

=== CODE BLOCK ADDRESS 0x4bd8 ===
  0x4bd8	dec    	eax
  0x4bd9	mov    	edx, dword ptr [ecx]
  0x4bdb	dec    	ecx
  0x4bdc	mov    	edx, 0x145fb070
  0x4be1	push   	ds
  === BLOCK LINK ===
    0x4be3
=== CODE BLOCK END ===

=== CODE BLOCK ADDRESS 0x4be3 ===
  0x4be3	.byte  	0x8d
  0x4be4	salc   	
  0x4be5	dec    	eax
  0x4be6	mov    	eax, dword ptr [edx + 0x10]
  0x4be9	call   	dword ptr [0x29a1]
  === BLOCK LINK ===
    0x4bef
=== CODE BLOCK END ===

=== CODE BLOCK ADDRESS 0x4bef ===
  0x4bef	mov    	eax, ebx
  0x4bf1	dec    	eax
  0x4bf2	add    	esp, 0x20
  0x4bf5	pop    	ebx
  0x4bf6	ret    	
  === BLOCK LINK ===
    0x4bf7
=== CODE BLOCK END ===

=== CODE BLOCK ADDRESS 0x1693 ===
  0x1693	dec    	eax
  0x1694	add    	esp, 0x20
  0x1697	pop    	ebx
  0x1698	ret    	
  === BLOCK LINK ===
    0x1699
=== CODE BLOCK END ===

=== CODE BLOCK ADDRESS 0x4bf7 ===
  0x4bf7	int3   	
  0x4bf8	jno    	0x4c42
  === BLOCK LINK ===
    0x4bfa
=== CODE BLOCK END ===

=== CODE BLOCK ADDRESS 0x4bfa ===
  0x4bfa	ficom  	dword ptr [esi - 0x6a]
  0x4bfd	int1   	
  0x4bff	test   	dword ptr [eax - 0x7d], ecx
  0x4c02	in     	al, dx
  0x4c03	sub    	byte ptr [ebx], dh
  === BLOCK LINK ===
    0x4c05
=== CODE BLOCK END ===

=== CODE BLOCK ADDRESS 0x4c05 ===
  0x4c05	sal    	byte ptr [ebx], cl
  0x4c07	leave  	
  0x4c08	call   	0x20c4
  === BLOCK LINK ===
    0x4c0d
=== CODE BLOCK END ===

=== CODE BLOCK ADDRESS 0x4c0d ===
  0x4c0d	int3   	
  0x4c0e	int3   	
  0x4c0f	int3   	
  0x4c10	dec    	eax
  0x4c11	sub    	esp, 0x48
  === BLOCK LINK ===
    0x4c14
=== CODE BLOCK END ===

=== CODE BLOCK ADDRESS 0x4c14 ===
  0x4c14	dec    	eax
  0x4c15	mov    	dword ptr [esp + 0x30], 0xfffffffe
  0x4c1d	dec    	eax
  0x4c1e	mov    	eax, dword ptr [esp + 0x48]
  0x4c22	dec    	eax
  === BLOCK LINK ===
    0x4c23
=== CODE BLOCK END ===

=== CODE BLOCK ADDRESS 0x4c23 ===
  0x4c23	mov    	dword ptr [esp + 0x28], eax
  0x4c27	call   	0x2274
  === BLOCK LINK ===
    0x4c2c
=== CODE BLOCK END ===

=== CODE BLOCK ADDRESS 0x4c2c ===
  0x4c2c	nop    	
  0x4c2d	dec    	eax
  0x4c2e	add    	esp, 0x48
  0x4c31	ret    	
  0x4c32	int3   	
  === BLOCK LINK ===
    0x4c33
=== CODE BLOCK END ===

=== CODE BLOCK ADDRESS 0x4c33 ===
  0x4c33	int3   	
  0x4c34	dec    	eax
  0x4c35	sub    	esp, 0x58
  0x4c38	dec    	eax
  0x4c39	mov    	dword ptr [esp + 0x40], 0xfffffffe
  === BLOCK LINK ===
    0x4c41
=== CODE BLOCK END ===

=== CODE BLOCK ADDRESS 0x4c41 ===
  0x4c41	dec    	eax
  0x4c42	mov    	eax, dword ptr [esp + 0x58]
  0x4c46	inc    	esp
  0x4c47	mov    	dword ptr [esp + 0x30], ecx
  0x4c4b	dec    	eax
  === BLOCK LINK ===
    0x4c4c
=== CODE BLOCK END ===

=== CODE BLOCK ADDRESS 0x4c4c ===
  0x4c4c	mov    	dword ptr [esp + 0x28], eax
  0x4c50	call   	0x2348
  === BLOCK LINK ===
    0x4c55
=== CODE BLOCK END ===

=== CODE BLOCK ADDRESS 0x4c55 ===
  0x4c55	nop    	
  0x4c56	dec    	eax
  0x4c57	add    	esp, 0x58
  0x4c5a	ret    	
  0x4c5b	int3   	
  === BLOCK LINK ===
    0x4c5c
=== CODE BLOCK END ===

=== CODE BLOCK ADDRESS 0x4c5c ===
  0x4c5c	int3   	
  0x4c5d	int3   	
  0x4c5e	int3   	
  0x4c5f	int3   	
  0x4c60	int3   	
  === BLOCK LINK ===
    0x4c61
=== CODE BLOCK END ===

=== CODE BLOCK ADDRESS 0x4c61 ===
  0x4c61	int3   	
  0x4c62	int3   	
  0x4c63	int3   	
  0x4c64	int3   	
  0x4c65	int3   	
  === BLOCK LINK ===
    0x4c66
=== CODE BLOCK END ===

=== CODE BLOCK ADDRESS 0x4c66 ===
  0x4c66	int3   	
  0x4c67	int3   	
  0x4c68	jno    	0x4c25
  === BLOCK LINK ===
    0x4c6a
=== CODE BLOCK END ===

=== CODE BLOCK ADDRESS 0x4c6a ===
  0x4c6a	push   	edi
  0x4c6b	push   	ds
  0x4c6c	ret    	
  0x4c6d	xchg   	eax, edi
  0x4c6e	in     	al, 0xaf
  === BLOCK LINK ===
    0x4c70
=== CODE BLOCK END ===

=== CODE BLOCK ADDRESS 0x2198 ===
  0x2198	mov    	al, 1
  0x219a	ret    	
  === BLOCK LINK ===
    0x219b
=== CODE BLOCK END ===

=== CODE BLOCK ADDRESS 0x4c70 ===
  0x4c70	inc    	eax
  0x4c71	push   	edi
  0x4c72	dec    	eax
  0x4c73	sub    	esp, 0x30
  0x4c76	dec    	eax
  === BLOCK LINK ===
    0x4c77
=== CODE BLOCK END ===

=== CODE BLOCK ADDRESS 0x4c77 ===
  0x4c77	mov    	dword ptr [esp + 0x20], 0xfffffffe
  0x4c7f	dec    	eax
  0x4c80	mov    	dword ptr [esp + 0x40], ebx
  0x4c84	dec    	eax
  0x4c85	mov    	dword ptr [esp + 0x48], esi
  === BLOCK LINK ===
    0x4c89
=== CODE BLOCK END ===

=== CODE BLOCK ADDRESS 0x4c89 ===
  0x4c89	dec    	eax
  0x4c8a	mov    	edi, edx
  0x4c8c	dec    	eax
  0x4c8d	mov    	esi, ecx
  0x4c8f	dec    	eax
  === BLOCK LINK ===
    0x4c90
=== CODE BLOCK END ===

=== CODE BLOCK ADDRESS 0x4c90 ===
  0x4c90	mov    	eax, dword ptr [0x5c12]
  0x4c96	xor    	ebx, ebx
  0x4c98	dec    	eax
  0x4c99	test   	eax, eax
  0x4c9b	jne    	0x4cd9
  === BLOCK LINK ===
    0x4c9d
=== CODE BLOCK END ===

=== CODE BLOCK ADDRESS 0x4c9d ===
  0x4c9d	dec    	eax
  0x4c9e	mov    	eax, dword ptr [0x5be4]
  0x4ca4	dec    	eax
  0x4ca5	test   	eax, eax
  0x4ca7	jne    	0x4cbd
  === BLOCK LINK ===
    0x4ca9
=== CODE BLOCK END ===

=== CODE BLOCK ADDRESS 0x4ca9 ===
  0x4ca9	dec    	eax
  0x4caa	lea    	ecx, [0x2cf0]
  0x4cb0	call   	dword ptr [0x2632]
  === BLOCK LINK ===
    0x4cb6
=== CODE BLOCK END ===

=== CODE BLOCK ADDRESS 0x4cb6 ===
  0x4cb6	dec    	eax
  0x4cb7	mov    	dword ptr [0x5bcb], eax
  0x4cbd	dec    	eax
  0x4cbe	lea    	edx, [0x2d14]
  0x4cc4	dec    	eax
  === BLOCK LINK ===
    0x4cc5
=== CODE BLOCK END ===

=== CODE BLOCK ADDRESS 0x4cc5 ===
  0x4cc5	mov    	ecx, eax
  0x4cc7	call   	dword ptr [0x262b]
  === BLOCK LINK ===
    0x4ccd
=== CODE BLOCK END ===

=== CODE BLOCK ADDRESS 0x4ccd ===
  0x4ccd	dec    	eax
  0x4cce	mov    	dword ptr [0x5bd4], eax
  0x4cd4	dec    	eax
  0x4cd5	test   	eax, eax
  0x4cd7	je     	0x4cf1
  === BLOCK LINK ===
    0x4cd9
=== CODE BLOCK END ===

=== CODE BLOCK ADDRESS 0x4cd9 ===
  0x4cd9	dec    	ecx
  0x4cda	mov    	edx, 0x1e57bb70
  0x4cdf	ret    	
  0x4ce0	xchg   	eax, edi
  0x4ce1	in     	al, 0xaf
  === BLOCK LINK ===
    0x4ce3
=== CODE BLOCK END ===

=== CODE BLOCK ADDRESS 0x4ce3 ===
  0x4ce3	dec    	eax
  0x4ce4	mov    	edx, edi
  0x4ce6	dec    	eax
  0x4ce7	mov    	ecx, esi
  0x4ce9	call   	dword ptr [0x28a1]
  === BLOCK LINK ===
    0x4cef
=== CODE BLOCK END ===

=== CODE BLOCK ADDRESS 0x4cef ===
  0x4cef	mov    	ebx, eax
  0x4cf1	mov    	eax, ebx
  0x4cf3	dec    	eax
  0x4cf4	mov    	ebx, dword ptr [esp + 0x40]
  0x4cf8	dec    	eax
  === BLOCK LINK ===
    0x4cf9
=== CODE BLOCK END ===

=== CODE BLOCK ADDRESS 0x4cf9 ===
  0x4cf9	mov    	esi, dword ptr [esp + 0x48]
  0x4cfd	dec    	eax
  0x4cfe	add    	esp, 0x30
  0x4d01	pop    	edi
  0x4d02	ret    	
  === BLOCK LINK ===
    0x4d03
=== CODE BLOCK END ===

=== CODE BLOCK ADDRESS 0x4d03 ===
  0x4d03	int3   	
  0x4d04	int3   	
  0x4d05	int3   	
  0x4d06	int3   	
  0x4d07	int3   	
  === BLOCK LINK ===
    0x4d08
=== CODE BLOCK END ===

=== CODE BLOCK ADDRESS 0x4d08 ===
  0x4d08	jno    	0x4c8c
  === BLOCK LINK ===
    0x4d0a
=== CODE BLOCK END ===

=== CODE BLOCK ADDRESS 0x4d0a ===
  0x4d0a	push   	esp
  0x4d0b	adc    	al, byte ptr [esi + eax + 0x5340f7b1]
  0x4d12	dec    	eax
  0x4d13	sub    	esp, 0x30
  0x4d16	dec    	eax
  === BLOCK LINK ===
    0x4d17
=== CODE BLOCK END ===

=== CODE BLOCK ADDRESS 0x4d17 ===
  0x4d17	mov    	dword ptr [esp + 0x20], 0xfffffffe
  0x4d1f	dec    	eax
  0x4d20	mov    	eax, dword ptr [0x5b7a]
  0x4d26	xor    	ebx, ebx
  0x4d28	dec    	eax
  === BLOCK LINK ===
    0x4d29
=== CODE BLOCK END ===

=== CODE BLOCK ADDRESS 0x4d29 ===
  0x4d29	test   	eax, eax
  0x4d2b	jne    	0x4d69
  === BLOCK LINK ===
    0x4d2d
=== CODE BLOCK END ===

=== CODE BLOCK ADDRESS 0x4d2d ===
  0x4d2d	dec    	eax
  0x4d2e	mov    	eax, dword ptr [0x5b54]
  0x4d34	dec    	eax
  0x4d35	test   	eax, eax
  0x4d37	jne    	0x4d4d
  === BLOCK LINK ===
    0x4d39
=== CODE BLOCK END ===

=== CODE BLOCK ADDRESS 0x4d39 ===
  0x4d39	dec    	eax
  0x4d3a	lea    	ecx, [0x2c60]
  0x4d40	call   	dword ptr [0x25a2]
  === BLOCK LINK ===
    0x4d46
=== CODE BLOCK END ===

=== CODE BLOCK ADDRESS 0x4d46 ===
  0x4d46	dec    	eax
  0x4d47	mov    	dword ptr [0x5b3b], eax
  0x4d4d	dec    	eax
  0x4d4e	lea    	edx, [0x2c64]
  0x4d54	dec    	eax
  === BLOCK LINK ===
    0x4d55
=== CODE BLOCK END ===

=== CODE BLOCK ADDRESS 0x4d55 ===
  0x4d55	mov    	ecx, eax
  0x4d57	call   	dword ptr [0x259b]
  === BLOCK LINK ===
    0x4d5d
=== CODE BLOCK END ===

=== CODE BLOCK ADDRESS 0x4d5d ===
  0x4d5d	dec    	eax
  0x4d5e	mov    	dword ptr [0x5b3c], eax
  0x4d64	dec    	eax
  0x4d65	test   	eax, eax
  0x4d67	je     	0x4d7b
  === BLOCK LINK ===
    0x4d69
=== CODE BLOCK END ===

=== CODE BLOCK ADDRESS 0x4d69 ===
  0x4d69	dec    	ecx
  0x4d6a	mov    	edx, 0x12548270
  0x4d6f	test   	byte ptr [esi], al
  0x4d71	mov    	cl, 0xf7
  0x4d73	call   	dword ptr [0x2817]
  === BLOCK LINK ===
    0x4d79
=== CODE BLOCK END ===

=== CODE BLOCK ADDRESS 0x4d79 ===
  0x4d79	mov    	bl, al
  0x4d7b	mov    	al, bl
  0x4d7d	dec    	eax
  0x4d7e	add    	esp, 0x30
  0x4d81	pop    	ebx
  === BLOCK LINK ===
    0x4d82
=== CODE BLOCK END ===

=== CODE BLOCK ADDRESS 0x4d82 ===
  0x4d82	ret    	
  0x4d83	int3   	
  0x4d84	dec    	eax
  0x4d85	mov    	dword ptr [esp + 0x18], ebx
  0x4d89	dec    	eax
  === BLOCK LINK ===
    0x4d8a
=== CODE BLOCK END ===

=== CODE BLOCK ADDRESS 0x4d8a ===
  0x4d8a	mov    	dword ptr [esp + 0x10], edx
  0x4d8e	push   	ebp
  0x4d8f	push   	esi
  0x4d90	push   	edi
  0x4d91	inc    	ecx
  === BLOCK LINK ===
    0x4d92
=== CODE BLOCK END ===

=== CODE BLOCK ADDRESS 0x4d92 ===
  0x4d92	push   	esp
  0x4d93	inc    	ecx
  0x4d94	push   	ebp
  0x4d95	inc    	ecx
  0x4d96	push   	esi
  === BLOCK LINK ===
    0x4d97
=== CODE BLOCK END ===

=== CODE BLOCK ADDRESS 0x4d97 ===
  0x4d97	inc    	ecx
  0x4d98	push   	edi
  0x4d99	dec    	eax
  0x4d9a	sub    	esp, 0x20
  0x4d9d	inc    	esp
  === BLOCK LINK ===
    0x4d9e
=== CODE BLOCK END ===

=== CODE BLOCK ADDRESS 0x4d9e ===
  0x4d9e	mov    	dword ptr [ecx + 4], eax
  0x4da1	dec    	esp
  0x4da2	lea    	ebp, [ecx + 0x10]
  0x4da5	mov    	eax, dword ptr [edx + 8]
  0x4da8	dec    	esp
  === BLOCK LINK ===
    0x4da9
=== CODE BLOCK END ===

=== CODE BLOCK ADDRESS 0x4da9 ===
  0x4da9	lea    	edi, [ecx + 0x20]
  0x4dac	mov    	dword ptr [ecx + 8], eax
  0x4daf	inc    	ebp
  0x4db0	xor    	ecx, ecx
  0x4db2	dec    	ebp
  === BLOCK LINK ===
    0x4db3
=== CODE BLOCK END ===

=== CODE BLOCK ADDRESS 0x4db3 ===
  0x4db3	mov    	dword ptr [ebp], ecx
  0x4db6	dec    	eax
  0x4db7	mov    	ebp, ecx
  0x4db9	movzx  	eax, word ptr [edx + 0x40]
  0x4dbd	dec    	eax
  === BLOCK LINK ===
    0x4dbe
=== CODE BLOCK END ===

=== CODE BLOCK ADDRESS 0x4dbe ===
  0x4dbe	or     	esi, 0xffffffff
  0x4dc1	mov    	word ptr [ecx + 0x18], ax
  0x4dc5	dec    	esp
  0x4dc6	mov    	esp, edx
  0x4dc8	mov    	al, byte ptr [edx]
  === BLOCK LINK ===
    0x4dca
=== CODE BLOCK END ===

=== CODE BLOCK ADDRESS 0x4dca ===
  0x4dca	mov    	byte ptr [ecx + 0x1a], al
  0x4dcd	dec    	ebp
  0x4dce	mov    	dword ptr [edi], ecx
  0x4dd0	dec    	eax
  0x4dd1	mov    	eax, dword ptr [edx + 0x88]
  === BLOCK LINK ===
    0x4dd7
=== CODE BLOCK END ===

=== CODE BLOCK ADDRESS 0x4dd7 ===
  0x4dd7	dec    	eax
  0x4dd8	mov    	dword ptr [ecx + 0x28], eax
  0x4ddb	dec    	eax
  0x4ddc	mov    	eax, dword ptr [edx + 0x90]
  0x4de2	dec    	eax
  === BLOCK LINK ===
    0x4de3
=== CODE BLOCK END ===

=== CODE BLOCK ADDRESS 0x4de3 ===
  0x4de3	mov    	dword ptr [ecx + 0x30], eax
  0x4de6	dec    	eax
  0x4de7	lea    	eax, [ecx + 0x38]
  0x4dea	dec    	esp
  0x4deb	mov    	dword ptr [eax], ecx
  === BLOCK LINK ===
    0x4ded
=== CODE BLOCK END ===

=== CODE BLOCK ADDRESS 0x4ded ===
  0x4ded	dec    	eax
  0x4dee	mov    	ecx, dword ptr [edx + 0x38]
  0x4df1	dec    	eax
  0x4df2	mov    	dword ptr [esp + 0x60], eax
  0x4df6	dec    	eax
  === BLOCK LINK ===
    0x4df7
=== CODE BLOCK END ===

=== CODE BLOCK ADDRESS 0x4df7 ===
  0x4df7	test   	ecx, ecx
  0x4df9	jne    	0x4e00
  === BLOCK LINK ===
    0x4dfb
=== CODE BLOCK END ===

=== CODE BLOCK ADDRESS 0x4dfb ===
  0x4dfb	lea    	eax, [ecx + 1]
  0x4dfe	jmp    	0x4e0f
  === BLOCK LINK ===
    0x4e00
=== CODE BLOCK END ===

=== CODE BLOCK ADDRESS 0x4e00 ===
  0x4e00	dec    	eax
  0x4e01	mov    	eax, esi
  0x4e03	dec    	eax
  0x4e04	inc    	eax
  0x4e06	inc    	esp
  === BLOCK LINK ===
    0x4e07
=== CODE BLOCK END ===

=== CODE BLOCK ADDRESS 0x4e07 ===
  0x4e07	cmp    	byte ptr [ecx + eax], cl
  0x4e0a	jne    	0x4e03
  === BLOCK LINK ===
    0x4e0c
=== CODE BLOCK END ===

=== CODE BLOCK ADDRESS 0x4e0c ===
  0x4e0c	dec    	eax
  0x4e0d	inc    	eax
  0x4e0f	dec    	eax
  0x4e10	mov    	edx, dword ptr [edx + 0x80]
  0x4e16	dec    	eax
  === BLOCK LINK ===
    0x4e17
=== CODE BLOCK END ===

=== CODE BLOCK ADDRESS 0x4e17 ===
  0x4e17	test   	edx, edx
  0x4e19	jne    	0x4e20
  === BLOCK LINK ===
    0x4e1b
=== CODE BLOCK END ===

=== CODE BLOCK ADDRESS 0x4e1b ===
  0x4e1b	lea    	ecx, [edx + 1]
  0x4e1e	jmp    	0x4e2f
  === BLOCK LINK ===
    0x4e20
=== CODE BLOCK END ===

=== CODE BLOCK ADDRESS 0x4e20 ===
  0x4e20	dec    	eax
  0x4e21	mov    	ecx, esi
  0x4e23	dec    	eax
  0x4e24	inc    	ecx
  0x4e26	inc    	esp
  === BLOCK LINK ===
    0x4e27
=== CODE BLOCK END ===

=== CODE BLOCK ADDRESS 0x4e27 ===
  0x4e27	cmp    	byte ptr [edx + ecx], cl
  0x4e2a	jne    	0x4e23
  === BLOCK LINK ===
    0x4e2c
=== CODE BLOCK END ===

=== CODE BLOCK ADDRESS 0x4e2c ===
  0x4e2c	dec    	eax
  0x4e2d	inc    	ecx
  0x4e2f	dec    	ebp
  0x4e30	mov    	eax, dword ptr [esp + 0x18]
  0x4e34	dec    	ebp
  === BLOCK LINK ===
    0x4e35
=== CODE BLOCK END ===

=== CODE BLOCK ADDRESS 0x4e35 ===
  0x4e35	test   	eax, eax
  0x4e37	jne    	0x4e3f
  === BLOCK LINK ===
    0x4e39
=== CODE BLOCK END ===

=== CODE BLOCK ADDRESS 0x4e39 ===
  0x4e39	inc    	ecx
  0x4e3a	lea    	edx, [eax + 2]
  0x4e3d	jmp    	0x4e54
  === BLOCK LINK ===
    0x4e3f
=== CODE BLOCK END ===

=== CODE BLOCK ADDRESS 0x4e3f ===
  0x4e3f	dec    	eax
  0x4e40	mov    	edx, esi
  0x4e42	dec    	eax
  0x4e43	inc    	edx
  0x4e45	inc    	bp
  === BLOCK LINK ===
    0x4e47
=== CODE BLOCK END ===

=== CODE BLOCK ADDRESS 0x4e47 ===
  0x4e47	cmp    	dword ptr [eax + edx*2], ecx
  0x4e4a	jne    	0x4e42
  === BLOCK LINK ===
    0x4e4c
=== CODE BLOCK END ===

=== CODE BLOCK ADDRESS 0x4e4c ===
  0x4e4c	dec    	eax
  0x4e4d	lea    	edx, [edx*2 + 2]
  0x4e54	dec    	esp
  0x4e55	lea    	esi, [edx + ecx]
  0x4e58	dec    	esp
  === BLOCK LINK ===
    0x4e59
=== CODE BLOCK END ===

=== CODE BLOCK ADDRESS 0x4e59 ===
  0x4e59	add    	esi, eax
  0x4e5b	dec    	eax
  0x4e5c	lea    	edi, [ebp + 0x48]
  0x4e5f	dec    	esp
  0x4e60	cmp    	dword ptr [ebp + 0x40], ecx
  === BLOCK LINK ===
    0x4e63
=== CODE BLOCK END ===

=== CODE BLOCK ADDRESS 0x4e63 ===
  0x4e63	je     	0x4e6a
  === BLOCK LINK ===
    0x4e65
=== CODE BLOCK END ===

=== CODE BLOCK ADDRESS 0x4e65 ===
  0x4e65	dec    	esp
  0x4e66	cmp    	dword ptr [edi], esi
  0x4e68	jae    	0x4ee1
  === BLOCK LINK ===
    0x4e6a
=== CODE BLOCK END ===

=== CODE BLOCK ADDRESS 0x4e6a ===
  0x4e6a	call   	dword ptr [0x2450]
  === BLOCK LINK ===
    0x4e70
=== CODE BLOCK END ===

=== CODE BLOCK ADDRESS 0x4e70 ===
  0x4e70	dec    	ebp
  0x4e71	mov    	eax, esi
  0x4e73	mov    	edx, 8
  0x4e78	dec    	eax
  0x4e79	mov    	ecx, eax
  === BLOCK LINK ===
    0x4e7b
=== CODE BLOCK END ===

=== CODE BLOCK ADDRESS 0x4e7b ===
  0x4e7b	call   	dword ptr [0x2437]
  === BLOCK LINK ===
    0x4e81
=== CODE BLOCK END ===

=== CODE BLOCK ADDRESS 0x4e81 ===
  0x4e81	dec    	eax
  0x4e82	mov    	ebx, dword ptr [0x5930]
  0x4e88	inc    	ebp
  0x4e89	xor    	ecx, ecx
  0x4e8b	dec    	esp
  === BLOCK LINK ===
    0x4e8c
=== CODE BLOCK END ===

=== CODE BLOCK ADDRESS 0x4e8c ===
  0x4e8c	mov    	esp, eax
  0x4e8e	dec    	eax
  0x4e8f	test   	ebx, ebx
  0x4e91	je     	0x4eb5
  === BLOCK LINK ===
    0x4e93
=== CODE BLOCK END ===

=== CODE BLOCK ADDRESS 0x4e93 ===
  0x4e93	call   	dword ptr [0x2427]
  === BLOCK LINK ===
    0x4e99
=== CODE BLOCK END ===

=== CODE BLOCK ADDRESS 0x4e99 ===
  0x4e99	dec    	eax
  0x4e9a	mov    	ecx, eax
  0x4e9c	dec    	ecx
  0x4e9d	mov    	edx, 0x1e57bb70
  0x4ea2	ret    	
  === BLOCK LINK ===
    0x4ea3
=== CODE BLOCK END ===

=== CODE BLOCK ADDRESS 0x4ea3 ===
  0x4ea3	xchg   	eax, edi
  0x4ea4	in     	al, 0xaf
  0x4ea6	dec    	ecx
  0x4ea7	mov    	edx, esp
  0x4ea9	dec    	eax
  === BLOCK LINK ===
    0x4eaa
=== CODE BLOCK END ===

=== CODE BLOCK ADDRESS 0x4eaa ===
  0x4eaa	mov    	eax, ebx
  0x4eac	call   	dword ptr [0x26de]
  === BLOCK LINK ===
    0x4eb2
=== CODE BLOCK END ===

=== CODE BLOCK ADDRESS 0x4eb2 ===
  0x4eb2	inc    	ebp
  0x4eb3	xor    	ecx, ecx
  0x4eb5	dec    	ebp
  0x4eb6	test   	esp, esp
  0x4eb8	je     	0x4edc
  === BLOCK LINK ===
    0x4eba
=== CODE BLOCK END ===

=== CODE BLOCK ADDRESS 0x4eba ===
  0x4eba	dec    	eax
  0x4ebb	mov    	ebx, dword ptr [ebp + 0x40]
  0x4ebe	call   	dword ptr [0x23fc]
  === BLOCK LINK ===
    0x4ec4
=== CODE BLOCK END ===

=== CODE BLOCK ADDRESS 0x4ec4 ===
  0x4ec4	dec    	esp
  0x4ec5	mov    	eax, ebx
  0x4ec7	xor    	edx, edx
  0x4ec9	dec    	eax
  0x4eca	mov    	ecx, eax
  === BLOCK LINK ===
    0x4ecc
=== CODE BLOCK END ===

=== CODE BLOCK ADDRESS 0x4ecc ===
  0x4ecc	call   	dword ptr [0x23de]
  === BLOCK LINK ===
    0x4ed2
=== CODE BLOCK END ===

=== CODE BLOCK ADDRESS 0x4ed2 ===
  0x4ed2	inc    	ebp
  0x4ed3	xor    	ecx, ecx
  0x4ed5	dec    	esp
  0x4ed6	mov    	dword ptr [ebp + 0x40], esp
  0x4ed9	dec    	esp
  === BLOCK LINK ===
    0x4eda
=== CODE BLOCK END ===

=== CODE BLOCK ADDRESS 0x4eda ===
  0x4eda	mov    	dword ptr [edi], esi
  0x4edc	dec    	esp
  0x4edd	mov    	esp, dword ptr [esp + 0x68]
  0x4ee1	dec    	eax
  0x4ee2	mov    	ebx, dword ptr [ebp + 0x40]
  === BLOCK LINK ===
    0x4ee5
=== CODE BLOCK END ===

=== CODE BLOCK ADDRESS 0x4ee5 ===
  0x4ee5	dec    	eax
  0x4ee6	test   	ebx, ebx
  0x4ee8	je     	0x4fb5
  === BLOCK LINK ===
    0x4eee
=== CODE BLOCK END ===

=== CODE BLOCK ADDRESS 0x4eee ===
  0x4eee	dec    	eax
  0x4eef	mov    	edx, dword ptr [edi]
  0x4ef1	dec    	ebp
  0x4ef2	mov    	eax, dword ptr [esp + 0x38]
  0x4ef6	dec    	eax
  === BLOCK LINK ===
    0x4ef7
=== CODE BLOCK END ===

=== CODE BLOCK ADDRESS 0x4ef7 ===
  0x4ef7	lea    	ebp, [edx + ebx]
  0x4efa	dec    	eax
  0x4efb	cmp    	ebx, ebp
  0x4efd	je     	0x4f39
  === BLOCK LINK ===
    0x4eff
=== CODE BLOCK END ===

=== CODE BLOCK ADDRESS 0x4eff ===
  0x4eff	dec    	ebp
  0x4f00	test   	eax, eax
  0x4f02	je     	0x4f39
  === BLOCK LINK ===
    0x4f04
=== CODE BLOCK END ===

=== CODE BLOCK ADDRESS 0x4f04 ===
  0x4f04	inc    	ebp
  0x4f05	cmp    	byte ptr [eax], cl
  0x4f07	je     	0x4f39
  === BLOCK LINK ===
    0x4f09
=== CODE BLOCK END ===

=== CODE BLOCK ADDRESS 0x4f09 ===
  0x4f09	dec    	eax
  0x4f0a	mov    	edi, esi
  0x4f0c	dec    	eax
  0x4f0d	inc    	edi
  0x4f0f	inc    	ebp
  === BLOCK LINK ===
    0x4f10
=== CODE BLOCK END ===

=== CODE BLOCK ADDRESS 0x4f10 ===
  0x4f10	cmp    	byte ptr [eax + edi], cl
  0x4f13	jne    	0x4f0c
  === BLOCK LINK ===
    0x4f15
=== CODE BLOCK END ===

=== CODE BLOCK ADDRESS 0x4f15 ===
  0x4f15	dec    	eax
  0x4f16	inc    	edi
  0x4f18	dec    	eax
  0x4f19	cmp    	edx, edi
  0x4f1b	jb     	0x4f39
  === BLOCK LINK ===
    0x4f1d
=== CODE BLOCK END ===

=== CODE BLOCK ADDRESS 0x4f1d ===
  0x4f1d	dec    	esp
  0x4f1e	mov    	ecx, edi
  0x4f20	dec    	eax
  0x4f21	mov    	ecx, ebx
  0x4f23	call   	0x60f4
  === BLOCK LINK ===
    0x4f28
=== CODE BLOCK END ===

=== CODE BLOCK ADDRESS 0x4f28 ===
  0x4f28	inc    	ebp
  0x4f29	xor    	ecx, ecx
  0x4f2b	dec    	ebp
  0x4f2c	test   	ebp, ebp
  0x4f2e	je     	0x4f34
  === BLOCK LINK ===
    0x4f30
=== CODE BLOCK END ===

=== CODE BLOCK ADDRESS 0x4f30 ===
  0x4f30	dec    	ecx
  0x4f31	mov    	dword ptr [ebp], ebx
  0x4f34	dec    	eax
  0x4f35	add    	ebx, edi
  0x4f37	jmp    	0x4f42
  === BLOCK LINK ===
    0x4f39
=== CODE BLOCK END ===

=== CODE BLOCK ADDRESS 0x4f39 ===
  0x4f39	dec    	ebp
  0x4f3a	test   	ebp, ebp
  0x4f3c	je     	0x4f42
  === BLOCK LINK ===
    0x4f3e
=== CODE BLOCK END ===

=== CODE BLOCK ADDRESS 0x4f3e ===
  0x4f3e	dec    	ebp
  0x4f3f	mov    	dword ptr [ebp], ecx
  0x4f42	dec    	ebp
  0x4f43	mov    	eax, dword ptr [esp + 0x80]
  0x4f4a	dec    	eax
  === BLOCK LINK ===
    0x4f4b
=== CODE BLOCK END ===

=== CODE BLOCK ADDRESS 0x4f4b ===
  0x4f4b	cmp    	ebx, ebp
  0x4f4d	je     	0x4f88
  === BLOCK LINK ===
    0x4f4f
=== CODE BLOCK END ===

=== CODE BLOCK ADDRESS 0x4f4f ===
  0x4f4f	dec    	ebp
  0x4f50	test   	eax, eax
  0x4f52	je     	0x4f88
  === BLOCK LINK ===
    0x4f54
=== CODE BLOCK END ===

=== CODE BLOCK ADDRESS 0x4f54 ===
  0x4f54	inc    	ebp
  0x4f55	cmp    	byte ptr [eax], cl
  0x4f57	je     	0x4f88
  === BLOCK LINK ===
    0x4f59
=== CODE BLOCK END ===

=== CODE BLOCK ADDRESS 0x4f59 ===
  0x4f59	dec    	eax
  0x4f5a	inc    	esi
  0x4f5c	inc    	ebp
  0x4f5d	cmp    	byte ptr [eax + esi], cl
  0x4f60	jne    	0x4f59
  === BLOCK LINK ===
    0x4f62
=== CODE BLOCK END ===

=== CODE BLOCK ADDRESS 0x4f62 ===
  0x4f62	dec    	eax
  0x4f63	mov    	edx, ebp
  0x4f65	dec    	eax
  0x4f66	inc    	esi
  0x4f68	dec    	eax
  === BLOCK LINK ===
    0x4f69
=== CODE BLOCK END ===

=== CODE BLOCK ADDRESS 0x4f69 ===
  0x4f69	sub    	edx, ebx
  0x4f6b	dec    	eax
  0x4f6c	cmp    	edx, esi
  0x4f6e	jb     	0x4f88
  === BLOCK LINK ===
    0x4f70
=== CODE BLOCK END ===

=== CODE BLOCK ADDRESS 0x4f70 ===
  0x4f70	dec    	esp
  0x4f71	mov    	ecx, esi
  0x4f73	dec    	eax
  0x4f74	mov    	ecx, ebx
  0x4f76	call   	0x60f4
  === BLOCK LINK ===
    0x4f7b
=== CODE BLOCK END ===

=== CODE BLOCK ADDRESS 0x4f7b ===
  0x4f7b	dec    	ebp
  0x4f7c	test   	edi, edi
  0x4f7e	je     	0x4f83
  === BLOCK LINK ===
    0x4f80
=== CODE BLOCK END ===

=== CODE BLOCK ADDRESS 0x4f80 ===
  0x4f80	dec    	ecx
  0x4f81	mov    	dword ptr [edi], ebx
  0x4f83	dec    	eax
  0x4f84	add    	ebx, esi
  0x4f86	jmp    	0x4f90
  === BLOCK LINK ===
    0x4f88
=== CODE BLOCK END ===

=== CODE BLOCK ADDRESS 0x4f88 ===
  0x4f88	dec    	ebp
  0x4f89	test   	edi, edi
  0x4f8b	je     	0x4f90
  === BLOCK LINK ===
    0x4f8d
=== CODE BLOCK END ===

=== CODE BLOCK ADDRESS 0x4f8d ===
  0x4f8d	dec    	ebp
  0x4f8e	mov    	dword ptr [edi], ecx
  0x4f90	dec    	esp
  0x4f91	mov    	ecx, dword ptr [esp + 0x60]
  0x4f95	dec    	eax
  === BLOCK LINK ===
    0x4f96
=== CODE BLOCK END ===

=== CODE BLOCK ADDRESS 0x4f96 ===
  0x4f96	mov    	edx, ebp
  0x4f98	dec    	ebp
  0x4f99	mov    	eax, dword ptr [esp + 0x18]
  0x4f9d	dec    	eax
  0x4f9e	mov    	ecx, ebx
  === BLOCK LINK ===
    0x4fa0
=== CODE BLOCK END ===

=== CODE BLOCK ADDRESS 0x4fa0 ===
  0x4fa0	call   	0x2af0
  === BLOCK LINK ===
    0x4fa5
=== CODE BLOCK END ===

=== CODE BLOCK ADDRESS 0x4fa5 ===
  0x4fa5	dec    	eax
  0x4fa6	sub    	ebp, eax
  0x4fa8	xor    	edx, edx
  0x4faa	dec    	esp
  0x4fab	mov    	eax, ebp
  === BLOCK LINK ===
    0x4fad
=== CODE BLOCK END ===

=== CODE BLOCK ADDRESS 0x4fad ===
  0x4fad	dec    	eax
  0x4fae	mov    	ecx, eax
  0x4fb0	call   	0x20be
  === BLOCK LINK ===
    0x4fb5
=== CODE BLOCK END ===

=== CODE BLOCK ADDRESS 0x4fb5 ===
  0x4fb5	dec    	eax
  0x4fb6	mov    	ebx, dword ptr [esp + 0x70]
  0x4fba	dec    	eax
  0x4fbb	add    	esp, 0x20
  0x4fbe	inc    	ecx
  === BLOCK LINK ===
    0x4fbf
=== CODE BLOCK END ===

=== CODE BLOCK ADDRESS 0x4fbf ===
  0x4fbf	pop    	edi
  0x4fc0	inc    	ecx
  0x4fc1	pop    	esi
  0x4fc2	inc    	ecx
  0x4fc3	pop    	ebp
  === BLOCK LINK ===
    0x4fc4
=== CODE BLOCK END ===

=== CODE BLOCK ADDRESS 0x4fc4 ===
  0x4fc4	inc    	ecx
  0x4fc5	pop    	esp
  0x4fc6	pop    	edi
  0x4fc7	pop    	esi
  0x4fc8	pop    	ebp
  === BLOCK LINK ===
    0x4fc9
=== CODE BLOCK END ===

=== CODE BLOCK ADDRESS 0x4fc9 ===
  0x4fc9	ret    	
  0x4fca	int3   	
  0x4fcb	int3   	
  0x4fcc	dec    	eax
  0x4fcd	mov    	dword ptr [esp + 0x10], ebx
  === BLOCK LINK ===
    0x4fd1
=== CODE BLOCK END ===

=== CODE BLOCK ADDRESS 0x4fd1 ===
  0x4fd1	dec    	eax
  0x4fd2	mov    	dword ptr [esp + 0x18], ebp
  0x4fd6	dec    	eax
  0x4fd7	mov    	dword ptr [esp + 0x20], esi
  0x4fdb	push   	edi
  === BLOCK LINK ===
    0x4fdc
=== CODE BLOCK END ===

=== CODE BLOCK ADDRESS 0x4fdc ===
  0x4fdc	inc    	ecx
  0x4fdd	push   	esp
  0x4fde	inc    	ecx
  0x4fdf	push   	ebp
  0x4fe0	inc    	ecx
  === BLOCK LINK ===
    0x4fe1
=== CODE BLOCK END ===

=== CODE BLOCK ADDRESS 0x4fe1 ===
  0x4fe1	push   	esi
  0x4fe2	inc    	ecx
  0x4fe3	push   	edi
  0x4fe4	dec    	eax
  0x4fe5	sub    	esp, 0x20
  === BLOCK LINK ===
    0x4fe8
=== CODE BLOCK END ===

=== CODE BLOCK ADDRESS 0x4fe8 ===
  0x4fe8	movups  	xmm0, xmmword ptr [edx]
  0x4feb	dec    	esp
  0x4fec	mov    	esp, ecx
  0x4fee	dec    	eax
  0x4fef	or     	esi, 0xffffffff
  === BLOCK LINK ===
    0x4ff2
=== CODE BLOCK END ===

=== CODE BLOCK ADDRESS 0x4ff2 ===
  0x4ff2	xor    	edi, edi
  0x4ff4	dec    	esp
  0x4ff5	mov    	ebp, edx
  0x4ff7	movups  	xmmword ptr [ecx], xmm0
  0x4ffa	movups  	xmm1, xmmword ptr [edx + 0x10]
  === BLOCK LINK ===
    0x4ffe
=== CODE BLOCK END ===

=== CODE BLOCK ADDRESS 0x4ffe ===
  0x4ffe	inc    	esp
  0x4fff	lea    	esi, [esi + 3]
  0x5002	movups  	xmmword ptr [ecx + 0x10], xmm1
  0x5006	movups  	xmm0, xmmword ptr [edx + 0x20]
  0x500a	movups  	xmmword ptr [ecx + 0x20], xmm0
  === BLOCK LINK ===
    0x500e
=== CODE BLOCK END ===

=== CODE BLOCK ADDRESS 0x500e ===
  0x500e	movups  	xmm1, xmmword ptr [edx + 0x30]
  0x5012	movups  	xmmword ptr [ecx + 0x30], xmm1
  0x5016	movups  	xmm0, xmmword ptr [edx + 0x40]
  0x501a	movups  	xmmword ptr [ecx + 0x40], xmm0
  0x501e	movups  	xmm1, xmmword ptr [edx + 0x50]
  === BLOCK LINK ===
    0x5022
=== CODE BLOCK END ===

=== CODE BLOCK ADDRESS 0x5022 ===
  0x5022	movups  	xmmword ptr [ecx + 0x50], xmm1
  0x5026	movups  	xmm0, xmmword ptr [edx + 0x60]
  0x502a	movups  	xmmword ptr [ecx + 0x60], xmm0
  0x502e	mov    	ecx, 0x80
  0x5033	movups  	xmm0, xmmword ptr [edx + 0x70]
  === BLOCK LINK ===
    0x5037
=== CODE BLOCK END ===

=== CODE BLOCK ADDRESS 0x5037 ===
  0x5037	inc    	ecx
  0x5038	movups  	xmmword ptr [esp + ecx - 0x10], xmm0
  0x503d	movups  	xmm1, xmmword ptr [edx + ecx]
  0x5041	inc    	ecx
  0x5042	movups  	xmmword ptr [esp + ecx], xmm1
  === BLOCK LINK ===
    0x5046
=== CODE BLOCK END ===

=== CODE BLOCK ADDRESS 0x5046 ===
  0x5046	dec    	eax
  0x5047	mov    	eax, dword ptr [edx + ecx + 0x10]
  0x504b	dec    	ecx
  0x504c	mov    	dword ptr [esp + ecx + 0x10], eax
  0x5050	dec    	eax
  === BLOCK LINK ===
    0x5051
=== CODE BLOCK END ===

=== CODE BLOCK ADDRESS 0x5051 ===
  0x5051	mov    	ecx, dword ptr [edx + 0x18]
  0x5054	dec    	eax
  0x5055	test   	ecx, ecx
  0x5057	jne    	0x5060
  === BLOCK LINK ===
    0x5059
=== CODE BLOCK END ===

=== CODE BLOCK ADDRESS 0x5059 ===
  0x5059	dec    	esp
  0x505a	mov    	dword ptr [esp + 0x50], esi
  0x505e	jmp    	0x5079
  === BLOCK LINK ===
    0x5060
=== CODE BLOCK END ===

=== CODE BLOCK ADDRESS 0x5060 ===
  0x5060	dec    	eax
  0x5061	mov    	eax, esi
  0x5063	dec    	eax
  0x5064	inc    	eax
  0x5066	cmp    	word ptr [ecx + eax*2], di
  === BLOCK LINK ===
    0x506a
=== CODE BLOCK END ===

=== CODE BLOCK ADDRESS 0x506a ===
  0x506a	jne    	0x5063
  === BLOCK LINK ===
    0x506c
=== CODE BLOCK END ===

=== CODE BLOCK ADDRESS 0x506c ===
  0x506c	dec    	eax
  0x506d	lea    	eax, [eax*2 + 2]
  0x5074	dec    	eax
  0x5075	mov    	dword ptr [esp + 0x50], eax
  0x5079	dec    	eax
  === BLOCK LINK ===
    0x507a
=== CODE BLOCK END ===

=== CODE BLOCK ADDRESS 0x507a ===
  0x507a	mov    	eax, dword ptr [edx + 0x28]
  0x507d	dec    	eax
  0x507e	test   	eax, eax
  0x5080	jne    	0x508a
  === BLOCK LINK ===
    0x5082
=== CODE BLOCK END ===

=== CODE BLOCK ADDRESS 0x5082 ===
  0x5082	lea    	ebp, [eax + 1]
  0x5085	inc    	esp
  0x5086	mov    	eax, ebp
  0x5088	jmp    	0x509e
  === BLOCK LINK ===
    0x508a
=== CODE BLOCK END ===

=== CODE BLOCK ADDRESS 0x508a ===
  0x508a	dec    	esp
  0x508b	mov    	eax, esi
  0x508d	dec    	ecx
  0x508e	inc    	eax
  0x5090	inc    	edx
  === BLOCK LINK ===
    0x5091
=== CODE BLOCK END ===

=== CODE BLOCK ADDRESS 0x5091 ===
  0x5091	cmp    	byte ptr [eax + eax], bh
  0x5094	jne    	0x508d
  === BLOCK LINK ===
    0x5096
=== CODE BLOCK END ===

=== CODE BLOCK ADDRESS 0x5096 ===
  0x5096	mov    	ebp, 1
  0x509b	dec    	esp
  0x509c	add    	eax, ebp
  0x509e	dec    	eax
  0x509f	mov    	eax, dword ptr [edx + 0x30]
  === BLOCK LINK ===
    0x50a2
=== CODE BLOCK END ===

=== CODE BLOCK ADDRESS 0x50a2 ===
  0x50a2	dec    	eax
  0x50a3	test   	eax, eax
  0x50a5	jne    	0x50ac
  === BLOCK LINK ===
    0x50a7
=== CODE BLOCK END ===

=== CODE BLOCK ADDRESS 0x50a7 ===
  0x50a7	dec    	esp
  0x50a8	mov    	edx, ebp
  0x50aa	jmp    	0x50bb
  === BLOCK LINK ===
    0x50ac
=== CODE BLOCK END ===

=== CODE BLOCK ADDRESS 0x50ac ===
  0x50ac	dec    	esp
  0x50ad	mov    	edx, esi
  0x50af	dec    	ecx
  0x50b0	inc    	edx
  0x50b2	inc    	edx
  === BLOCK LINK ===
    0x50b3
=== CODE BLOCK END ===

=== CODE BLOCK ADDRESS 0x50b3 ===
  0x50b3	cmp    	byte ptr [eax + edx], bh
  0x50b6	jne    	0x50af
  === BLOCK LINK ===
    0x50b8
=== CODE BLOCK END ===

=== CODE BLOCK ADDRESS 0x50b8 ===
  0x50b8	dec    	esp
  0x50b9	add    	edx, ebp
  0x50bb	dec    	eax
  0x50bc	mov    	eax, dword ptr [edx + 0x38]
  0x50bf	dec    	eax
  === BLOCK LINK ===
    0x50c0
=== CODE BLOCK END ===

=== CODE BLOCK ADDRESS 0x50c0 ===
  0x50c0	test   	eax, eax
  0x50c2	jne    	0x50c9
  === BLOCK LINK ===
    0x50c4
=== CODE BLOCK END ===

=== CODE BLOCK ADDRESS 0x50c4 ===
  0x50c4	dec    	eax
  0x50c5	mov    	ebx, ebp
  0x50c7	jmp    	0x50d8
  === BLOCK LINK ===
    0x50c9
=== CODE BLOCK END ===

=== CODE BLOCK ADDRESS 0x50c9 ===
  0x50c9	dec    	eax
  0x50ca	mov    	ebx, esi
  0x50cc	dec    	eax
  0x50cd	inc    	ebx
  0x50cf	inc    	eax
  === BLOCK LINK ===
    0x50d0
=== CODE BLOCK END ===

=== CODE BLOCK ADDRESS 0x50d0 ===
  0x50d0	cmp    	byte ptr [eax + ebx], bh
  0x50d3	jne    	0x50cc
  === BLOCK LINK ===
    0x50d5
=== CODE BLOCK END ===

=== CODE BLOCK ADDRESS 0x50d5 ===
  0x50d5	dec    	eax
  0x50d6	add    	ebx, ebp
  0x50d8	dec    	eax
  0x50d9	mov    	eax, dword ptr [edx + 0x48]
  0x50dc	dec    	eax
  === BLOCK LINK ===
    0x50dd
=== CODE BLOCK END ===

=== CODE BLOCK ADDRESS 0x50dd ===
  0x50dd	test   	eax, eax
  0x50df	jne    	0x50e6
  === BLOCK LINK ===
    0x50e1
=== CODE BLOCK END ===

=== CODE BLOCK ADDRESS 0x50e1 ===
  0x50e1	dec    	esp
  0x50e2	mov    	ebx, ebp
  0x50e4	jmp    	0x50f5
  === BLOCK LINK ===
    0x50e6
=== CODE BLOCK END ===

=== CODE BLOCK ADDRESS 0x50e6 ===
  0x50e6	dec    	esp
  0x50e7	mov    	ebx, esi
  0x50e9	dec    	ecx
  0x50ea	inc    	ebx
  0x50ec	inc    	edx
  === BLOCK LINK ===
    0x50ed
=== CODE BLOCK END ===

=== CODE BLOCK ADDRESS 0x50ed ===
  0x50ed	cmp    	byte ptr [eax + ebx], bh
  0x50f0	jne    	0x50e9
  === BLOCK LINK ===
    0x50f2
=== CODE BLOCK END ===

=== CODE BLOCK ADDRESS 0x50f2 ===
  0x50f2	dec    	esp
  0x50f3	add    	ebx, ebp
  0x50f5	dec    	eax
  0x50f6	mov    	eax, dword ptr [edx + 0x80]
  0x50fc	dec    	eax
  === BLOCK LINK ===
    0x50fd
=== CODE BLOCK END ===

=== CODE BLOCK ADDRESS 0x50fd ===
  0x50fd	test   	eax, eax
  0x50ff	jne    	0x5106
  === BLOCK LINK ===
    0x5101
=== CODE BLOCK END ===

=== CODE BLOCK ADDRESS 0x5101 ===
  0x5101	dec    	esp
  0x5102	mov    	ecx, ebp
  0x5104	jmp    	0x5115
  === BLOCK LINK ===
    0x5106
=== CODE BLOCK END ===

=== CODE BLOCK ADDRESS 0x5106 ===
  0x5106	dec    	esp
  0x5107	mov    	ecx, esi
  0x5109	dec    	ecx
  0x510a	inc    	ecx
  0x510c	inc    	edx
  === BLOCK LINK ===
    0x510d
=== CODE BLOCK END ===

=== CODE BLOCK ADDRESS 0x510d ===
  0x510d	cmp    	byte ptr [eax + ecx], bh
  0x5110	jne    	0x5109
  === BLOCK LINK ===
    0x5112
=== CODE BLOCK END ===

=== CODE BLOCK ADDRESS 0x5112 ===
  0x5112	dec    	esp
  0x5113	add    	ecx, ebp
  0x5115	dec    	eax
  0x5116	mov    	eax, dword ptr [edx + 0x70]
  0x5119	dec    	eax
  === BLOCK LINK ===
    0x511a
=== CODE BLOCK END ===

=== CODE BLOCK ADDRESS 0x511a ===
  0x511a	test   	eax, eax
  0x511c	jne    	0x5123
  === BLOCK LINK ===
    0x511e
=== CODE BLOCK END ===

=== CODE BLOCK ADDRESS 0x511e ===
  0x511e	dec    	eax
  0x511f	mov    	edx, ebp
  0x5121	jmp    	0x5132
  === BLOCK LINK ===
    0x5123
=== CODE BLOCK END ===

=== CODE BLOCK ADDRESS 0x5123 ===
  0x5123	dec    	eax
  0x5124	mov    	edx, esi
  0x5126	dec    	eax
  0x5127	inc    	edx
  0x5129	inc    	eax
  === BLOCK LINK ===
    0x512a
=== CODE BLOCK END ===

=== CODE BLOCK ADDRESS 0x512a ===
  0x512a	cmp    	byte ptr [eax + edx], bh
  0x512d	jne    	0x5126
  === BLOCK LINK ===
    0x512f
=== CODE BLOCK END ===

=== CODE BLOCK ADDRESS 0x512f ===
  0x512f	dec    	eax
  0x5130	add    	edx, ebp
  0x5132	dec    	ecx
  0x5133	mov    	ecx, dword ptr [ebp + 0x78]
  0x5136	dec    	eax
  === BLOCK LINK ===
    0x5137
=== CODE BLOCK END ===

=== CODE BLOCK ADDRESS 0x5137 ===
  0x5137	test   	ecx, ecx
  0x5139	jne    	0x5140
  === BLOCK LINK ===
    0x513b
=== CODE BLOCK END ===

=== CODE BLOCK ADDRESS 0x513b ===
  0x513b	dec    	ebp
  0x513c	mov    	edi, esi
  0x513e	jmp    	0x5154
  === BLOCK LINK ===
    0x5140
=== CODE BLOCK END ===

=== CODE BLOCK ADDRESS 0x5140 ===
  0x5140	dec    	eax
  0x5141	mov    	eax, esi
  0x5143	dec    	eax
  0x5144	inc    	eax
  0x5146	cmp    	word ptr [ecx + eax*2], di
  === BLOCK LINK ===
    0x514a
=== CODE BLOCK END ===

=== CODE BLOCK ADDRESS 0x514a ===
  0x514a	jne    	0x5143
  === BLOCK LINK ===
    0x514c
=== CODE BLOCK END ===

=== CODE BLOCK ADDRESS 0x514c ===
  0x514c	dec    	esp
  0x514d	lea    	edi, [eax*2 + 2]
  0x5154	dec    	ecx
  0x5155	mov    	ecx, dword ptr [ebp + 0x58]
  0x5158	dec    	eax
  === BLOCK LINK ===
    0x5159
=== CODE BLOCK END ===

=== CODE BLOCK ADDRESS 0x5159 ===
  0x5159	test   	ecx, ecx
  0x515b	jne    	0x5162
  === BLOCK LINK ===
    0x515d
=== CODE BLOCK END ===

=== CODE BLOCK ADDRESS 0x515d ===
  0x515d	dec    	eax
  0x515e	mov    	eax, ebp
  0x5160	jmp    	0x5171
  === BLOCK LINK ===
    0x5162
=== CODE BLOCK END ===

=== CODE BLOCK ADDRESS 0x5162 ===
  0x5162	dec    	eax
  0x5163	mov    	eax, esi
  0x5165	dec    	eax
  0x5166	inc    	eax
  0x5168	inc    	eax
  === BLOCK LINK ===
    0x5169
=== CODE BLOCK END ===

=== CODE BLOCK ADDRESS 0x5169 ===
  0x5169	cmp    	byte ptr [ecx + eax], bh
  0x516c	jne    	0x5165
  === BLOCK LINK ===
    0x516e
=== CODE BLOCK END ===

=== CODE BLOCK ADDRESS 0x516e ===
  0x516e	dec    	eax
  0x516f	add    	eax, ebp
  0x5171	dec    	ecx
  0x5172	mov    	edi, dword ptr [ebp + 0x60]
  0x5175	dec    	eax
  === BLOCK LINK ===
    0x5176
=== CODE BLOCK END ===

=== CODE BLOCK ADDRESS 0x5176 ===
  0x5176	test   	edi, edi
  0x5178	je     	0x5192
  === BLOCK LINK ===
    0x517a
=== CODE BLOCK END ===

=== CODE BLOCK ADDRESS 0x517a ===
  0x517a	dec    	eax
  0x517b	mov    	ecx, esi
  0x517d	inc    	ebp
  0x517e	xor    	esi, esi
  0x5180	dec    	eax
  === BLOCK LINK ===
    0x5181
=== CODE BLOCK END ===

=== CODE BLOCK ADDRESS 0x5181 ===
  0x5181	inc    	ecx
  0x5183	inc    	sp
  0x5185	cmp    	dword ptr [edi + ecx*2], esi
  0x5188	jne    	0x5180
  === BLOCK LINK ===
    0x518a
=== CODE BLOCK END ===

=== CODE BLOCK ADDRESS 0x518a ===
  0x518a	dec    	esp
  0x518b	lea    	esi, [ecx*2 + 2]
  0x5192	dec    	esp
  0x5193	add    	esi, eax
  0x5195	dec    	ecx
  === BLOCK LINK ===
    0x5196
=== CODE BLOCK END ===

=== CODE BLOCK ADDRESS 0x5196 ===
  0x5196	lea    	edi, [esp + 0x98]
  0x519d	dec    	eax
  0x519e	mov    	ecx, dword ptr [edi]
  0x51a0	dec    	ebp
  0x51a1	add    	esi, edi
  === BLOCK LINK ===
    0x51a3
=== CODE BLOCK END ===

=== CODE BLOCK ADDRESS 0x51a3 ===
  0x51a3	dec    	esp
  0x51a4	add    	esi, edx
  0x51a6	inc    	ebp
  0x51a7	xor    	edi, edi
  0x51a9	dec    	ebp
  === BLOCK LINK ===
    0x51aa
=== CODE BLOCK END ===

=== CODE BLOCK ADDRESS 0x51aa ===
  0x51aa	add    	esi, ecx
  0x51ac	dec    	ebp
  0x51ad	add    	esi, ebx
  0x51af	dec    	esp
  0x51b0	add    	esi, ebx
  === BLOCK LINK ===
    0x51b2
=== CODE BLOCK END ===

=== CODE BLOCK ADDRESS 0x51b2 ===
  0x51b2	dec    	ebp
  0x51b3	add    	esi, edx
  0x51b5	dec    	ebp
  0x51b6	add    	esi, eax
  0x51b8	dec    	esp
  === BLOCK LINK ===
    0x51b9
=== CODE BLOCK END ===

=== CODE BLOCK ADDRESS 0x51b9 ===
  0x51b9	add    	esi, dword ptr [esp + 0x50]
  0x51bd	dec    	eax
  0x51be	test   	ecx, ecx
  0x51c0	je     	0x51fd
  === BLOCK LINK ===
    0x51c2
=== CODE BLOCK END ===

=== CODE BLOCK ADDRESS 0x51c2 ===
  0x51c2	cmp    	dword ptr [ecx], ebp
  0x51c4	jne    	0x51d0
  === BLOCK LINK ===
    0x51c6
=== CODE BLOCK END ===

=== CODE BLOCK ADDRESS 0x51c6 ===
  0x51c6	dec    	ebp
  0x51c7	cmp    	dword ptr [esp + 0xa0], esi
  0x51ce	jae    	0x520a
  === BLOCK LINK ===
    0x51d0
=== CODE BLOCK END ===

=== CODE BLOCK ADDRESS 0x51d0 ===
  0x51d0	dec    	eax
  0x51d1	test   	ecx, ecx
  0x51d3	je     	0x51fd
  === BLOCK LINK ===
    0x51d5
=== CODE BLOCK END ===

=== CODE BLOCK ADDRESS 0x51d5 ===
  0x51d5	mov    	eax, esi
  0x51d7	lock xadd  	dword ptr [ecx], eax
  0x51db	add    	eax, esi
  0x51dd	jne    	0x51f6
  === BLOCK LINK ===
    0x51df
=== CODE BLOCK END ===

=== CODE BLOCK ADDRESS 0x51df ===
  0x51df	dec    	eax
  0x51e0	mov    	ebx, dword ptr [edi]
  0x51e2	call   	dword ptr [0x20d8]
  === BLOCK LINK ===
    0x51e8
=== CODE BLOCK END ===

=== CODE BLOCK ADDRESS 0x51e8 ===
  0x51e8	dec    	esp
  0x51e9	mov    	eax, ebx
  0x51eb	xor    	edx, edx
  0x51ed	dec    	eax
  0x51ee	mov    	ecx, eax
  === BLOCK LINK ===
    0x51f0
=== CODE BLOCK END ===

=== CODE BLOCK ADDRESS 0x51f0 ===
  0x51f0	call   	dword ptr [0x20ba]
  === BLOCK LINK ===
    0x51f6
=== CODE BLOCK END ===

=== CODE BLOCK ADDRESS 0x51f6 ===
  0x51f6	dec    	esp
  0x51f7	mov    	dword ptr [edi], edi
  0x51f9	dec    	esp
  0x51fa	mov    	dword ptr [edi + 8], edi
  0x51fd	dec    	ebp
  === BLOCK LINK ===
    0x51fe
=== CODE BLOCK END ===

=== CODE BLOCK ADDRESS 0x51fe ===
  0x51fe	mov    	eax, esi
  0x5200	xor    	edx, edx
  0x5202	dec    	eax
  0x5203	mov    	ecx, edi
  0x5205	call   	0x5f24
  === BLOCK LINK ===
    0x520a
=== CODE BLOCK END ===

=== CODE BLOCK ADDRESS 0x520a ===
  0x520a	dec    	eax
  0x520b	mov    	eax, dword ptr [edi]
  0x520d	dec    	esp
  0x520e	mov    	eax, dword ptr [edi + 8]
  0x5211	dec    	eax
  === BLOCK LINK ===
    0x5212
=== CODE BLOCK END ===

=== CODE BLOCK ADDRESS 0x5212 ===
  0x5212	lea    	edx, [eax + 4]
  0x5215	dec    	eax
  0x5216	neg    	eax
  0x5218	dec    	eax
  0x5219	sbb    	ecx, ecx
  === BLOCK LINK ===
    0x521b
=== CODE BLOCK END ===

=== CODE BLOCK ADDRESS 0x521b ===
  0x521b	dec    	eax
  0x521c	and    	ecx, edx
  0x521e	je     	0x54c9
  === BLOCK LINK ===
    0x5224
=== CODE BLOCK END ===

=== CODE BLOCK ADDRESS 0x5224 ===
  0x5224	dec    	edx
  0x5225	lea    	edi, [ecx + eax]
  0x5228	dec    	ebp
  0x5229	mov    	eax, dword ptr [ebp + 0x18]
  0x522c	dec    	eax
  === BLOCK LINK ===
    0x522d
=== CODE BLOCK END ===

=== CODE BLOCK ADDRESS 0x522d ===
  0x522d	mov    	edx, edi
  0x522f	dec    	ebp
  0x5230	lea    	ecx, [esp + 0x18]
  0x5234	call   	0x2af0
  === BLOCK LINK ===
    0x5239
=== CODE BLOCK END ===

=== CODE BLOCK ADDRESS 0x5239 ===
  0x5239	dec    	ebp
  0x523a	mov    	eax, dword ptr [ebp + 0x28]
  0x523d	dec    	eax
  0x523e	mov    	ebx, eax
  0x5240	dec    	ebp
  === BLOCK LINK ===
    0x5241
=== CODE BLOCK END ===

=== CODE BLOCK ADDRESS 0x5241 ===
  0x5241	lea    	edi, [esp + 0x28]
  0x5245	dec    	eax
  0x5246	cmp    	eax, edi
  0x5248	je     	0x528a
  === BLOCK LINK ===
    0x524a
=== CODE BLOCK END ===

=== CODE BLOCK ADDRESS 0x524a ===
  0x524a	xor    	eax, eax
  0x524c	dec    	ebp
  0x524d	test   	eax, eax
  0x524f	je     	0x528c
  === BLOCK LINK ===
    0x5251
=== CODE BLOCK END ===

=== CODE BLOCK ADDRESS 0x5251 ===
  0x5251	inc    	ecx
  0x5252	cmp    	byte ptr [eax], al
  0x5254	je     	0x528c
  === BLOCK LINK ===
    0x5256
=== CODE BLOCK END ===

=== CODE BLOCK ADDRESS 0x5256 ===
  0x5256	dec    	esp
  0x5257	mov    	esi, esi
  0x5259	dec    	ecx
  0x525a	inc    	esi
  0x525c	inc    	ebx
  === BLOCK LINK ===
    0x525d
=== CODE BLOCK END ===

=== CODE BLOCK ADDRESS 0x525d ===
  0x525d	cmp    	byte ptr [eax + esi], al
  0x5260	jne    	0x5259
  === BLOCK LINK ===
    0x5262
=== CODE BLOCK END ===

=== CODE BLOCK ADDRESS 0x5262 ===
  0x5262	dec    	eax
  0x5263	mov    	edx, edi
  0x5265	dec    	esp
  0x5266	add    	esi, ebp
  0x5268	dec    	eax
  === BLOCK LINK ===
    0x5269
=== CODE BLOCK END ===

=== CODE BLOCK ADDRESS 0x5269 ===
  0x5269	sub    	edx, ebx
  0x526b	dec    	ecx
  0x526c	cmp    	edx, esi
  0x526e	jb     	0x528c
  === BLOCK LINK ===
    0x5270
=== CODE BLOCK END ===

=== CODE BLOCK ADDRESS 0x5270 ===
  0x5270	dec    	ebp
  0x5271	mov    	ecx, esi
  0x5273	dec    	eax
  0x5274	mov    	ecx, ebx
  0x5276	call   	0x60f4
  === BLOCK LINK ===
    0x527b
=== CODE BLOCK END ===

=== CODE BLOCK ADDRESS 0x527b ===
  0x527b	xor    	eax, eax
  0x527d	dec    	ebp
  0x527e	test   	edi, edi
  0x5280	je     	0x5285
  === BLOCK LINK ===
    0x5282
=== CODE BLOCK END ===

=== CODE BLOCK ADDRESS 0x5282 ===
  0x5282	dec    	ecx
  0x5283	mov    	dword ptr [edi], ebx
  0x5285	dec    	ecx
  0x5286	add    	ebx, esi
  0x5288	jmp    	0x5294
  === BLOCK LINK ===
    0x528a
=== CODE BLOCK END ===

=== CODE BLOCK ADDRESS 0x528a ===
  0x528a	xor    	eax, eax
  0x528c	dec    	ebp
  0x528d	test   	edi, edi
  0x528f	je     	0x5294
  === BLOCK LINK ===
    0x5291
=== CODE BLOCK END ===

=== CODE BLOCK ADDRESS 0x5291 ===
  0x5291	dec    	ecx
  0x5292	mov    	dword ptr [edi], eax
  0x5294	dec    	ebp
  0x5295	mov    	eax, dword ptr [ebp + 0x30]
  0x5298	dec    	ebp
  === BLOCK LINK ===
    0x5299
=== CODE BLOCK END ===

=== CODE BLOCK ADDRESS 0x5299 ===
  0x5299	lea    	edi, [esp + 0x30]
  0x529d	dec    	eax
  0x529e	cmp    	ebx, edi
  0x52a0	je     	0x52e0
  === BLOCK LINK ===
    0x52a2
=== CODE BLOCK END ===

=== CODE BLOCK ADDRESS 0x52a2 ===
  0x52a2	dec    	ebp
  0x52a3	test   	eax, eax
  0x52a5	je     	0x52e0
  === BLOCK LINK ===
    0x52a7
=== CODE BLOCK END ===

=== CODE BLOCK ADDRESS 0x52a7 ===
  0x52a7	inc    	ecx
  0x52a8	cmp    	byte ptr [eax], al
  0x52aa	je     	0x52e0
  === BLOCK LINK ===
    0x52ac
=== CODE BLOCK END ===

=== CODE BLOCK ADDRESS 0x52ac ===
  0x52ac	dec    	esp
  0x52ad	mov    	esi, esi
  0x52af	dec    	ecx
  0x52b0	inc    	esi
  0x52b2	inc    	ebx
  === BLOCK LINK ===
    0x52b3
=== CODE BLOCK END ===

=== CODE BLOCK ADDRESS 0x52b3 ===
  0x52b3	cmp    	byte ptr [eax + esi], al
  0x52b6	jne    	0x52af
  === BLOCK LINK ===
    0x52b8
=== CODE BLOCK END ===

=== CODE BLOCK ADDRESS 0x52b8 ===
  0x52b8	dec    	eax
  0x52b9	mov    	edx, edi
  0x52bb	dec    	esp
  0x52bc	add    	esi, ebp
  0x52be	dec    	eax
  === BLOCK LINK ===
    0x52bf
=== CODE BLOCK END ===

=== CODE BLOCK ADDRESS 0x52bf ===
  0x52bf	sub    	edx, ebx
  0x52c1	dec    	ecx
  0x52c2	cmp    	edx, esi
  0x52c4	jb     	0x52e0
  === BLOCK LINK ===
    0x52c6
=== CODE BLOCK END ===

=== CODE BLOCK ADDRESS 0x52c6 ===
  0x52c6	dec    	ebp
  0x52c7	mov    	ecx, esi
  0x52c9	dec    	eax
  0x52ca	mov    	ecx, ebx
  0x52cc	call   	0x60f4
  === BLOCK LINK ===
    0x52d1
=== CODE BLOCK END ===

=== CODE BLOCK ADDRESS 0x52d1 ===
  0x52d1	xor    	eax, eax
  0x52d3	dec    	ebp
  0x52d4	test   	edi, edi
  0x52d6	je     	0x52db
  === BLOCK LINK ===
    0x52d8
=== CODE BLOCK END ===

=== CODE BLOCK ADDRESS 0x52d8 ===
  0x52d8	dec    	ecx
  0x52d9	mov    	dword ptr [edi], ebx
  0x52db	dec    	ecx
  0x52dc	add    	ebx, esi
  0x52de	jmp    	0x52e8
  === BLOCK LINK ===
    0x52e0
=== CODE BLOCK END ===

=== CODE BLOCK ADDRESS 0x52e0 ===
  0x52e0	dec    	ebp
  0x52e1	test   	edi, edi
  0x52e3	je     	0x52e8
  === BLOCK LINK ===
    0x52e5
=== CODE BLOCK END ===

=== CODE BLOCK ADDRESS 0x52e5 ===
  0x52e5	dec    	ecx
  0x52e6	mov    	dword ptr [edi], eax
  0x52e8	dec    	ebp
  0x52e9	mov    	eax, dword ptr [ebp + 0x38]
  0x52ec	dec    	ebp
  === BLOCK LINK ===
    0x52ed
=== CODE BLOCK END ===

=== CODE BLOCK ADDRESS 0x52ed ===
  0x52ed	lea    	edi, [esp + 0x38]
  0x52f1	dec    	eax
  0x52f2	cmp    	ebx, edi
  0x52f4	je     	0x5334
  === BLOCK LINK ===
    0x52f6
=== CODE BLOCK END ===

=== CODE BLOCK ADDRESS 0x52f6 ===
  0x52f6	dec    	ebp
  0x52f7	test   	eax, eax
  0x52f9	je     	0x5334
  === BLOCK LINK ===
    0x52fb
=== CODE BLOCK END ===

=== CODE BLOCK ADDRESS 0x52fb ===
  0x52fb	inc    	ecx
  0x52fc	cmp    	byte ptr [eax], al
  0x52fe	je     	0x5334
  === BLOCK LINK ===
    0x5300
=== CODE BLOCK END ===

=== CODE BLOCK ADDRESS 0x5300 ===
  0x5300	dec    	esp
  0x5301	mov    	esi, esi
  0x5303	dec    	ecx
  0x5304	inc    	esi
  0x5306	inc    	ebx
  === BLOCK LINK ===
    0x5307
=== CODE BLOCK END ===

=== CODE BLOCK ADDRESS 0x5307 ===
  0x5307	cmp    	byte ptr [eax + esi], al
  0x530a	jne    	0x5303
  === BLOCK LINK ===
    0x530c
=== CODE BLOCK END ===

=== CODE BLOCK ADDRESS 0x530c ===
  0x530c	dec    	eax
  0x530d	mov    	edx, edi
  0x530f	dec    	esp
  0x5310	add    	esi, ebp
  0x5312	dec    	eax
  === BLOCK LINK ===
    0x5313
=== CODE BLOCK END ===

=== CODE BLOCK ADDRESS 0x5313 ===
  0x5313	sub    	edx, ebx
  0x5315	dec    	ecx
  0x5316	cmp    	edx, esi
  0x5318	jb     	0x5334
  === BLOCK LINK ===
    0x531a
=== CODE BLOCK END ===

=== CODE BLOCK ADDRESS 0x531a ===
  0x531a	dec    	ebp
  0x531b	mov    	ecx, esi
  0x531d	dec    	eax
  0x531e	mov    	ecx, ebx
  0x5320	call   	0x60f4
  === BLOCK LINK ===
    0x5325
=== CODE BLOCK END ===

=== CODE BLOCK ADDRESS 0x5325 ===
  0x5325	xor    	eax, eax
  0x5327	dec    	ebp
  0x5328	test   	edi, edi
  0x532a	je     	0x532f
  === BLOCK LINK ===
    0x532c
=== CODE BLOCK END ===

=== CODE BLOCK ADDRESS 0x532c ===
  0x532c	dec    	ecx
  0x532d	mov    	dword ptr [edi], ebx
  0x532f	dec    	ecx
  0x5330	add    	ebx, esi
  0x5332	jmp    	0x533c
  === BLOCK LINK ===
    0x5334
=== CODE BLOCK END ===

=== CODE BLOCK ADDRESS 0x5334 ===
  0x5334	dec    	ebp
  0x5335	test   	edi, edi
  0x5337	je     	0x533c
  === BLOCK LINK ===
    0x5339
=== CODE BLOCK END ===

=== CODE BLOCK ADDRESS 0x5339 ===
  0x5339	dec    	ecx
  0x533a	mov    	dword ptr [edi], eax
  0x533c	dec    	ebp
  0x533d	mov    	eax, dword ptr [ebp + 0x48]
  0x5340	dec    	ebp
  === BLOCK LINK ===
    0x5341
=== CODE BLOCK END ===

=== CODE BLOCK ADDRESS 0x5341 ===
  0x5341	lea    	edi, [esp + 0x48]
  0x5345	dec    	eax
  0x5346	cmp    	ebx, edi
  0x5348	je     	0x5388
  === BLOCK LINK ===
    0x534a
=== CODE BLOCK END ===

=== CODE BLOCK ADDRESS 0x534a ===
  0x534a	dec    	ebp
  0x534b	test   	eax, eax
  0x534d	je     	0x5388
  === BLOCK LINK ===
    0x534f
=== CODE BLOCK END ===

=== CODE BLOCK ADDRESS 0x534f ===
  0x534f	inc    	ecx
  0x5350	cmp    	byte ptr [eax], al
  0x5352	je     	0x5388
  === BLOCK LINK ===
    0x5354
=== CODE BLOCK END ===

=== CODE BLOCK ADDRESS 0x5354 ===
  0x5354	dec    	esp
  0x5355	mov    	esi, esi
  0x5357	dec    	ecx
  0x5358	inc    	esi
  0x535a	inc    	ebx
  === BLOCK LINK ===
    0x535b
=== CODE BLOCK END ===

=== CODE BLOCK ADDRESS 0x535b ===
  0x535b	cmp    	byte ptr [eax + esi], al
  0x535e	jne    	0x5357
  === BLOCK LINK ===
    0x5360
=== CODE BLOCK END ===

=== CODE BLOCK ADDRESS 0x5360 ===
  0x5360	dec    	eax
  0x5361	mov    	edx, edi
  0x5363	dec    	esp
  0x5364	add    	esi, ebp
  0x5366	dec    	eax
  === BLOCK LINK ===
    0x5367
=== CODE BLOCK END ===

=== CODE BLOCK ADDRESS 0x5367 ===
  0x5367	sub    	edx, ebx
  0x5369	dec    	ecx
  0x536a	cmp    	edx, esi
  0x536c	jb     	0x5388
  === BLOCK LINK ===
    0x536e
=== CODE BLOCK END ===

=== CODE BLOCK ADDRESS 0x536e ===
  0x536e	dec    	ebp
  0x536f	mov    	ecx, esi
  0x5371	dec    	eax
  0x5372	mov    	ecx, ebx
  0x5374	call   	0x60f4
  === BLOCK LINK ===
    0x5379
=== CODE BLOCK END ===

=== CODE BLOCK ADDRESS 0x5379 ===
  0x5379	xor    	eax, eax
  0x537b	dec    	ebp
  0x537c	test   	edi, edi
  0x537e	je     	0x5383
  === BLOCK LINK ===
    0x5380
=== CODE BLOCK END ===

=== CODE BLOCK ADDRESS 0x5380 ===
  0x5380	dec    	ecx
  0x5381	mov    	dword ptr [edi], ebx
  0x5383	dec    	ecx
  0x5384	add    	ebx, esi
  0x5386	jmp    	0x5390
  === BLOCK LINK ===
    0x5388
=== CODE BLOCK END ===

=== CODE BLOCK ADDRESS 0x5388 ===
  0x5388	dec    	ebp
  0x5389	test   	edi, edi
  0x538b	je     	0x5390
  === BLOCK LINK ===
    0x538d
=== CODE BLOCK END ===

=== CODE BLOCK ADDRESS 0x538d ===
  0x538d	dec    	ecx
  0x538e	mov    	dword ptr [edi], eax
  0x5390	dec    	ebp
  0x5391	mov    	eax, dword ptr [ebp + 0x80]
  0x5397	dec    	ebp
  === BLOCK LINK ===
    0x5398
=== CODE BLOCK END ===

=== CODE BLOCK ADDRESS 0x5398 ===
  0x5398	lea    	edi, [esp + 0x80]
  0x539f	dec    	eax
  0x53a0	cmp    	ebx, edi
  0x53a2	je     	0x53e2
  === BLOCK LINK ===
    0x53a4
=== CODE BLOCK END ===

=== CODE BLOCK ADDRESS 0x53a4 ===
  0x53a4	dec    	ebp
  0x53a5	test   	eax, eax
  0x53a7	je     	0x53e2
  === BLOCK LINK ===
    0x53a9
=== CODE BLOCK END ===

=== CODE BLOCK ADDRESS 0x53a9 ===
  0x53a9	inc    	ecx
  0x53aa	cmp    	byte ptr [eax], al
  0x53ac	je     	0x53e2
  === BLOCK LINK ===
    0x53ae
=== CODE BLOCK END ===

=== CODE BLOCK ADDRESS 0x53ae ===
  0x53ae	dec    	esp
  0x53af	mov    	esi, esi
  0x53b1	dec    	ecx
  0x53b2	inc    	esi
  0x53b4	inc    	ebx
  === BLOCK LINK ===
    0x53b5
=== CODE BLOCK END ===

=== CODE BLOCK ADDRESS 0x53b5 ===
  0x53b5	cmp    	byte ptr [eax + esi], al
  0x53b8	jne    	0x53b1
  === BLOCK LINK ===
    0x53ba
=== CODE BLOCK END ===

=== CODE BLOCK ADDRESS 0x53ba ===
  0x53ba	dec    	eax
  0x53bb	mov    	edx, edi
  0x53bd	dec    	esp
  0x53be	add    	esi, ebp
  0x53c0	dec    	eax
  === BLOCK LINK ===
    0x53c1
=== CODE BLOCK END ===

=== CODE BLOCK ADDRESS 0x53c1 ===
  0x53c1	sub    	edx, ebx
  0x53c3	dec    	ecx
  0x53c4	cmp    	edx, esi
  0x53c6	jb     	0x53e2
  === BLOCK LINK ===
    0x53c8
=== CODE BLOCK END ===

=== CODE BLOCK ADDRESS 0x53c8 ===
  0x53c8	dec    	ebp
  0x53c9	mov    	ecx, esi
  0x53cb	dec    	eax
  0x53cc	mov    	ecx, ebx
  0x53ce	call   	0x60f4
  === BLOCK LINK ===
    0x53d3
=== CODE BLOCK END ===

=== CODE BLOCK ADDRESS 0x53d3 ===
  0x53d3	xor    	eax, eax
  0x53d5	dec    	ebp
  0x53d6	test   	edi, edi
  0x53d8	je     	0x53dd
  === BLOCK LINK ===
    0x53da
=== CODE BLOCK END ===

=== CODE BLOCK ADDRESS 0x53da ===
  0x53da	dec    	ecx
  0x53db	mov    	dword ptr [edi], ebx
  0x53dd	dec    	ecx
  0x53de	add    	ebx, esi
  0x53e0	jmp    	0x53ea
  === BLOCK LINK ===
    0x53e2
=== CODE BLOCK END ===

=== CODE BLOCK ADDRESS 0x53e2 ===
  0x53e2	dec    	ebp
  0x53e3	test   	edi, edi
  0x53e5	je     	0x53ea
  === BLOCK LINK ===
    0x53e7
=== CODE BLOCK END ===

=== CODE BLOCK ADDRESS 0x53e7 ===
  0x53e7	dec    	ecx
  0x53e8	mov    	dword ptr [edi], eax
  0x53ea	dec    	ebp
  0x53eb	mov    	eax, dword ptr [ebp + 0x70]
  0x53ee	dec    	ebp
  === BLOCK LINK ===
    0x53ef
=== CODE BLOCK END ===

=== CODE BLOCK ADDRESS 0x53ef ===
  0x53ef	lea    	edi, [esp + 0x70]
  0x53f3	dec    	eax
  0x53f4	cmp    	ebx, edi
  0x53f6	je     	0x5434
  === BLOCK LINK ===
    0x53f8
=== CODE BLOCK END ===

=== CODE BLOCK ADDRESS 0x53f8 ===
  0x53f8	dec    	ebp
  0x53f9	test   	eax, eax
  0x53fb	je     	0x5434
  === BLOCK LINK ===
    0x53fd
=== CODE BLOCK END ===

=== CODE BLOCK ADDRESS 0x53fd ===
  0x53fd	inc    	ecx
  0x53fe	cmp    	byte ptr [eax], al
  0x5400	je     	0x5434
  === BLOCK LINK ===
    0x5402
=== CODE BLOCK END ===

=== CODE BLOCK ADDRESS 0x5402 ===
  0x5402	dec    	esp
  0x5403	mov    	esi, esi
  0x5405	dec    	ecx
  0x5406	inc    	esi
  0x5408	inc    	ebx
  === BLOCK LINK ===
    0x5409
=== CODE BLOCK END ===

=== CODE BLOCK ADDRESS 0x5409 ===
  0x5409	cmp    	byte ptr [eax + esi], al
  0x540c	jne    	0x5405
  === BLOCK LINK ===
    0x540e
=== CODE BLOCK END ===

=== CODE BLOCK ADDRESS 0x540e ===
  0x540e	dec    	eax
  0x540f	mov    	edx, edi
  0x5411	dec    	esp
  0x5412	add    	esi, ebp
  0x5414	dec    	eax
  === BLOCK LINK ===
    0x5415
=== CODE BLOCK END ===

=== CODE BLOCK ADDRESS 0x5415 ===
  0x5415	sub    	edx, ebx
  0x5417	dec    	ecx
  0x5418	cmp    	edx, esi
  0x541a	jb     	0x5434
  === BLOCK LINK ===
    0x541c
=== CODE BLOCK END ===

=== CODE BLOCK ADDRESS 0x541c ===
  0x541c	dec    	ebp
  0x541d	mov    	ecx, esi
  0x541f	dec    	eax
  0x5420	mov    	ecx, ebx
  0x5422	call   	0x60f4
  === BLOCK LINK ===
    0x5427
=== CODE BLOCK END ===

=== CODE BLOCK ADDRESS 0x5427 ===
  0x5427	dec    	ebp
  0x5428	test   	edi, edi
  0x542a	je     	0x542f
  === BLOCK LINK ===
    0x542c
=== CODE BLOCK END ===

=== CODE BLOCK ADDRESS 0x542c ===
  0x542c	dec    	ecx
  0x542d	mov    	dword ptr [edi], ebx
  0x542f	dec    	ecx
  0x5430	add    	ebx, esi
  0x5432	jmp    	0x543c
  === BLOCK LINK ===
    0x5434
=== CODE BLOCK END ===

=== CODE BLOCK ADDRESS 0x5434 ===
  0x5434	dec    	ebp
  0x5435	test   	edi, edi
  0x5437	je     	0x543c
  === BLOCK LINK ===
    0x5439
=== CODE BLOCK END ===

=== CODE BLOCK ADDRESS 0x5439 ===
  0x5439	dec    	ecx
  0x543a	mov    	dword ptr [edi], eax
  0x543c	dec    	ebp
  0x543d	mov    	eax, dword ptr [ebp + 0x78]
  0x5440	dec    	ebp
  === BLOCK LINK ===
    0x5441
=== CODE BLOCK END ===

=== CODE BLOCK ADDRESS 0x5441 ===
  0x5441	lea    	ecx, [esp + 0x78]
  0x5445	dec    	eax
  0x5446	mov    	edx, edi
  0x5448	dec    	eax
  0x5449	mov    	ecx, ebx
  === BLOCK LINK ===
    0x544b
=== CODE BLOCK END ===

=== CODE BLOCK ADDRESS 0x544b ===
  0x544b	call   	0x2af0
  === BLOCK LINK ===
    0x5450
=== CODE BLOCK END ===

=== CODE BLOCK ADDRESS 0x5450 ===
  0x5450	dec    	ebp
  0x5451	mov    	eax, dword ptr [ebp + 0x58]
  0x5454	dec    	ebp
  0x5455	lea    	esi, [esp + 0x58]
  0x5459	inc    	ebp
  === BLOCK LINK ===
    0x545a
=== CODE BLOCK END ===

=== CODE BLOCK ADDRESS 0x545a ===
  0x545a	xor    	edi, edi
  0x545c	dec    	eax
  0x545d	mov    	ebx, eax
  0x545f	dec    	eax
  0x5460	cmp    	eax, edi
  === BLOCK LINK ===
    0x5462
=== CODE BLOCK END ===

=== CODE BLOCK ADDRESS 0x5462 ===
  0x5462	je     	0x549d
  === BLOCK LINK ===
    0x5464
=== CODE BLOCK END ===

=== CODE BLOCK ADDRESS 0x5464 ===
  0x5464	dec    	ebp
  0x5465	test   	eax, eax
  0x5467	je     	0x549d
  === BLOCK LINK ===
    0x5469
=== CODE BLOCK END ===

=== CODE BLOCK ADDRESS 0x5469 ===
  0x5469	inc    	ebp
  0x546a	cmp    	byte ptr [eax], bh
  0x546c	je     	0x549d
  === BLOCK LINK ===
    0x546e
=== CODE BLOCK END ===

=== CODE BLOCK ADDRESS 0x546e ===
  0x546e	dec    	eax
  0x546f	inc    	esi
  0x5471	inc    	ebp
  0x5472	cmp    	byte ptr [eax + esi], bh
  0x5475	jne    	0x546e
  === BLOCK LINK ===
    0x5477
=== CODE BLOCK END ===

=== CODE BLOCK ADDRESS 0x5477 ===
  0x5477	dec    	eax
  0x5478	mov    	edx, edi
  0x547a	dec    	eax
  0x547b	add    	esi, ebp
  0x547d	dec    	eax
  === BLOCK LINK ===
    0x547e
=== CODE BLOCK END ===

=== CODE BLOCK ADDRESS 0x547e ===
  0x547e	sub    	edx, ebx
  0x5480	dec    	eax
  0x5481	cmp    	edx, esi
  0x5483	jb     	0x549d
  === BLOCK LINK ===
    0x5485
=== CODE BLOCK END ===

=== CODE BLOCK ADDRESS 0x5485 ===
  0x5485	dec    	esp
  0x5486	mov    	ecx, esi
  0x5488	dec    	eax
  0x5489	mov    	ecx, ebx
  0x548b	call   	0x60f4
  === BLOCK LINK ===
    0x5490
=== CODE BLOCK END ===

=== CODE BLOCK ADDRESS 0x5490 ===
  0x5490	dec    	ebp
  0x5491	test   	esi, esi
  0x5493	je     	0x5498
  === BLOCK LINK ===
    0x5495
=== CODE BLOCK END ===

=== CODE BLOCK ADDRESS 0x5495 ===
  0x5495	dec    	ecx
  0x5496	mov    	dword ptr [esi], ebx
  0x5498	dec    	eax
  0x5499	add    	ebx, esi
  0x549b	jmp    	0x54a5
  === BLOCK LINK ===
    0x549d
=== CODE BLOCK END ===

=== CODE BLOCK ADDRESS 0x549d ===
  0x549d	dec    	ebp
  0x549e	test   	esi, esi
  0x54a0	je     	0x54a5
  === BLOCK LINK ===
    0x54a2
=== CODE BLOCK END ===

=== CODE BLOCK ADDRESS 0x54a2 ===
  0x54a2	dec    	ebp
  0x54a3	mov    	dword ptr [esi], edi
  0x54a5	dec    	ebp
  0x54a6	mov    	eax, dword ptr [ebp + 0x60]
  0x54a9	dec    	ebp
  === BLOCK LINK ===
    0x54aa
=== CODE BLOCK END ===

=== CODE BLOCK ADDRESS 0x54aa ===
  0x54aa	lea    	ecx, [esp + 0x60]
  0x54ae	dec    	eax
  0x54af	mov    	edx, edi
  0x54b1	dec    	eax
  0x54b2	mov    	ecx, ebx
  === BLOCK LINK ===
    0x54b4
=== CODE BLOCK END ===

=== CODE BLOCK ADDRESS 0x54b4 ===
  0x54b4	call   	0x2af0
  === BLOCK LINK ===
    0x54b9
=== CODE BLOCK END ===

=== CODE BLOCK ADDRESS 0x54b9 ===
  0x54b9	dec    	eax
  0x54ba	sub    	edi, eax
  0x54bc	xor    	edx, edx
  0x54be	dec    	esp
  0x54bf	mov    	eax, edi
  === BLOCK LINK ===
    0x54c1
=== CODE BLOCK END ===

=== CODE BLOCK ADDRESS 0x54c1 ===
  0x54c1	dec    	eax
  0x54c2	mov    	ecx, eax
  0x54c4	call   	0x20be
  === BLOCK LINK ===
    0x54c9
=== CODE BLOCK END ===

=== CODE BLOCK ADDRESS 0x54c9 ===
  0x54c9	dec    	eax
  0x54ca	mov    	ebx, dword ptr [esp + 0x58]
  0x54ce	dec    	eax
  0x54cf	mov    	ebp, dword ptr [esp + 0x60]
  0x54d3	dec    	eax
  === BLOCK LINK ===
    0x54d4
=== CODE BLOCK END ===

=== CODE BLOCK ADDRESS 0x54d4 ===
  0x54d4	mov    	esi, dword ptr [esp + 0x68]
  0x54d8	dec    	eax
  0x54d9	add    	esp, 0x20
  0x54dc	inc    	ecx
  0x54dd	pop    	edi
  === BLOCK LINK ===
    0x54de
=== CODE BLOCK END ===

=== CODE BLOCK ADDRESS 0x54de ===
  0x54de	inc    	ecx
  0x54df	pop    	esi
  0x54e0	inc    	ecx
  0x54e1	pop    	ebp
  0x54e2	inc    	ecx
  === BLOCK LINK ===
    0x54e3
=== CODE BLOCK END ===

=== CODE BLOCK ADDRESS 0x54e3 ===
  0x54e3	pop    	esp
  0x54e4	pop    	edi
  0x54e5	ret    	
  0x54e6	int3   	
  0x54e7	int3   	
  === BLOCK LINK ===
    0x54e8
=== CODE BLOCK END ===

=== CODE BLOCK ADDRESS 0x54e8 ===
  0x54e8	dec    	eax
  0x54e9	mov    	eax, esp
  0x54eb	dec    	eax
  0x54ec	mov    	dword ptr [eax + 8], ebx
  0x54ef	dec    	eax
  === BLOCK LINK ===
    0x54f0
=== CODE BLOCK END ===

=== CODE BLOCK ADDRESS 0x54f0 ===
  0x54f0	mov    	dword ptr [eax + 0x10], ebp
  0x54f3	dec    	eax
  0x54f4	mov    	dword ptr [eax + 0x18], esi
  0x54f7	dec    	eax
  0x54f8	mov    	dword ptr [eax + 0x20], edi
  === BLOCK LINK ===
    0x54fb
=== CODE BLOCK END ===

=== CODE BLOCK ADDRESS 0x54fb ===
  0x54fb	inc    	ecx
  0x54fc	push   	esp
  0x54fd	inc    	ecx
  0x54fe	push   	esi
  0x54ff	inc    	ecx
  === BLOCK LINK ===
    0x5500
=== CODE BLOCK END ===

=== CODE BLOCK ADDRESS 0x5500 ===
  0x5500	push   	edi
  0x5501	dec    	eax
  0x5502	sub    	esp, 0x20
  0x5505	mov    	esi, dword ptr [ecx + 0x10]
  0x5508	inc    	ebp
  === BLOCK LINK ===
    0x5509
=== CODE BLOCK END ===

=== CODE BLOCK ADDRESS 0x5509 ===
  0x5509	xor    	edi, edi
  0x550b	dec    	esp
  0x550c	mov    	esi, edx
  0x550e	dec    	eax
  0x550f	mov    	edi, ecx
  === BLOCK LINK ===
    0x5511
=== CODE BLOCK END ===

=== CODE BLOCK ADDRESS 0x5511 ===
  0x5511	inc    	ecx
  0x5512	mov    	esp, 0x50
  0x5517	dec    	esp
  0x5518	cmp    	dword ptr [ecx + 0x18], edi
  0x551b	jne    	0x558e
  === BLOCK LINK ===
    0x551d
=== CODE BLOCK END ===

=== CODE BLOCK ADDRESS 0x551d ===
  0x551d	test   	esi, esi
  0x551f	je     	0x558e
  === BLOCK LINK ===
    0x5521
=== CODE BLOCK END ===

=== CODE BLOCK ADDRESS 0x5521 ===
  0x5521	call   	dword ptr [0x1d99]
  === BLOCK LINK ===
    0x5527
=== CODE BLOCK END ===

=== CODE BLOCK ADDRESS 0x5527 ===
  0x5527	inc    	ecx
  0x5528	lea    	edx, [esp - 0x48]
  0x552c	inc    	ecx
  0x552d	mov    	eax, 0x190
  0x5532	dec    	eax
  === BLOCK LINK ===
    0x5533
=== CODE BLOCK END ===

=== CODE BLOCK ADDRESS 0x5533 ===
  0x5533	mov    	ecx, eax
  0x5535	call   	dword ptr [0x1d7d]
  === BLOCK LINK ===
    0x553b
=== CODE BLOCK END ===

=== CODE BLOCK ADDRESS 0x553b ===
  0x553b	dec    	eax
  0x553c	mov    	ebp, dword ptr [0x5276]
  0x5542	dec    	eax
  0x5543	mov    	ebx, eax
  0x5545	dec    	eax
  === BLOCK LINK ===
    0x5546
=== CODE BLOCK END ===

=== CODE BLOCK ADDRESS 0x5546 ===
  0x5546	test   	ebp, ebp
  0x5548	je     	0x5569
  === BLOCK LINK ===
    0x554a
=== CODE BLOCK END ===

=== CODE BLOCK ADDRESS 0x554a ===
  0x554a	call   	dword ptr [0x1d70]
  === BLOCK LINK ===
    0x5550
=== CODE BLOCK END ===

=== CODE BLOCK ADDRESS 0x5550 ===
  0x5550	dec    	eax
  0x5551	mov    	ecx, eax
  0x5553	dec    	ecx
  0x5554	mov    	edx, 0x1e57bb70
  0x5559	ret    	
  === BLOCK LINK ===
    0x555a
=== CODE BLOCK END ===

=== CODE BLOCK ADDRESS 0x555a ===
  0x555a	xchg   	eax, edi
  0x555b	in     	al, 0xaf
  0x555d	dec    	eax
  0x555e	mov    	edx, ebx
  0x5560	dec    	eax
  === BLOCK LINK ===
    0x5561
=== CODE BLOCK END ===

=== CODE BLOCK ADDRESS 0x5561 ===
  0x5561	mov    	eax, ebp
  0x5563	call   	dword ptr [0x2027]
  === BLOCK LINK ===
    0x5569
=== CODE BLOCK END ===

=== CODE BLOCK ADDRESS 0x5569 ===
  0x5569	dec    	eax
  0x556a	mov    	dword ptr [edi + 0x18], ebx
  0x556d	dec    	eax
  0x556e	test   	ebx, ebx
  0x5570	je     	0x558e
  === BLOCK LINK ===
    0x5572
=== CODE BLOCK END ===

=== CODE BLOCK ADDRESS 0x5572 ===
  0x5572	mov    	dword ptr [edi + 0x20], 5
  0x5579	dec    	eax
  0x557a	lea    	eax, [ebx + 0x190]
  0x5580	jmp    	0x5589
  === BLOCK LINK ===
    0x5582
=== CODE BLOCK END ===

=== CODE BLOCK ADDRESS 0x5582 ===
  0x5582	inc    	sp
  0x5584	mov    	dword ptr [ebx], esp
  0x5586	dec    	ecx
  0x5587	add    	ebx, esp
  0x5589	dec    	eax
  === BLOCK LINK ===
    0x558a
=== CODE BLOCK END ===

=== CODE BLOCK ADDRESS 0x558a ===
  0x558a	cmp    	ebx, eax
  0x558c	jne    	0x5582
  === BLOCK LINK ===
    0x558e
=== CODE BLOCK END ===

=== CODE BLOCK ADDRESS 0x558e ===
  0x558e	dec    	esp
  0x558f	mov    	eax, dword ptr [edi + 0x18]
  0x5592	dec    	ebp
  0x5593	test   	eax, eax
  0x5595	je     	0x560b
  === BLOCK LINK ===
    0x5597
=== CODE BLOCK END ===

=== CODE BLOCK ADDRESS 0x5597 ===
  0x5597	test   	esi, esi
  0x5599	je     	0x55d1
  === BLOCK LINK ===
    0x559b
=== CODE BLOCK END ===

=== CODE BLOCK ADDRESS 0x559b ===
  0x559b	movzx  	eax, word ptr [edi + 0x20]
  0x559f	dec    	eax
  0x55a0	lea    	ecx, [eax + eax*4]
  0x55a3	dec    	eax
  0x55a4	shl    	ecx, 4
  === BLOCK LINK ===
    0x55a7
=== CODE BLOCK END ===

=== CODE BLOCK ADDRESS 0x55a7 ===
  0x55a7	dec    	ecx
  0x55a8	add    	ecx, eax
  0x55aa	dec    	esp
  0x55ab	cmp    	eax, ecx
  0x55ad	je     	0x55d1
  === BLOCK LINK ===
    0x55af
=== CODE BLOCK END ===

=== CODE BLOCK ADDRESS 0x55af ===
  0x55af	inc    	esp
  0x55b0	mov    	ecx, dword ptr [edi + 0x10]
  0x55b3	dec    	ecx
  0x55b4	lea    	edx, [eax + 8]
  0x55b7	inc    	esp
  === BLOCK LINK ===
    0x55b8
=== CODE BLOCK END ===

=== CODE BLOCK ADDRESS 0x55b8 ===
  0x55b8	cmp    	dword ptr [edx - 4], ecx
  0x55bb	jbe    	0x55c5
  === BLOCK LINK ===
    0x55bd
=== CODE BLOCK END ===

=== CODE BLOCK ADDRESS 0x55bd ===
  0x55bd	inc    	ecx
  0x55be	mov    	eax, dword ptr [esi + 8]
  0x55c1	cmp    	dword ptr [edx], eax
  0x55c3	je     	0x560b
  === BLOCK LINK ===
    0x55c5
=== CODE BLOCK END ===

=== CODE BLOCK ADDRESS 0x55c5 ===
  0x55c5	dec    	ecx
  0x55c6	add    	edx, esp
  0x55c8	dec    	eax
  0x55c9	lea    	eax, [edx - 8]
  0x55cc	dec    	eax
  === BLOCK LINK ===
    0x55cd
=== CODE BLOCK END ===

=== CODE BLOCK ADDRESS 0x55cd ===
  0x55cd	cmp    	eax, ecx
  0x55cf	jne    	0x55b7
  === BLOCK LINK ===
    0x55d1
=== CODE BLOCK END ===

=== CODE BLOCK ADDRESS 0x55d1 ===
  0x55d1	movzx  	eax, word ptr [edi + 0x22]
  0x55d5	xor    	edx, edx
  0x55d7	movzx  	ecx, word ptr [edi + 0x20]
  0x55db	inc    	eax
  0x55dd	div    	ecx
  === BLOCK LINK ===
    0x55df
=== CODE BLOCK END ===

=== CODE BLOCK ADDRESS 0x55df ===
  0x55df	movzx  	eax, dx
  0x55e2	mov    	word ptr [edi + 0x22], dx
  0x55e6	dec    	eax
  0x55e7	lea    	ecx, [eax + eax*4]
  0x55ea	dec    	eax
  === BLOCK LINK ===
    0x55eb
=== CODE BLOCK END ===

=== CODE BLOCK ADDRESS 0x55eb ===
  0x55eb	mov    	eax, dword ptr [edi + 8]
  0x55ee	dec    	eax
  0x55ef	shl    	ecx, 4
  0x55f2	dec    	ecx
  0x55f3	add    	ecx, eax
  === BLOCK LINK ===
    0x55f5
=== CODE BLOCK END ===

=== CODE BLOCK ADDRESS 0x55f5 ===
  0x55f5	inc    	ecx
  0x55f6	mov    	eax, 1
  0x55fb	.byte  	0xf0
  0x55fc	inc    	esp
  0x55fd	xadd   	dword ptr [eax], eax
  === BLOCK LINK ===
    0x5600
=== CODE BLOCK END ===

=== CODE BLOCK ADDRESS 0x5600 ===
  0x5600	inc    	ecx
  0x5601	inc    	eax
  0x5603	dec    	ecx
  0x5604	mov    	edx, esi
  0x5606	call   	0x4d84
  === BLOCK LINK ===
    0x560b
=== CODE BLOCK END ===

=== CODE BLOCK ADDRESS 0x560b ===
  0x560b	dec    	eax
  0x560c	mov    	ebx, dword ptr [esp + 0x40]
  0x5610	dec    	eax
  0x5611	mov    	ebp, dword ptr [esp + 0x48]
  0x5615	dec    	eax
  === BLOCK LINK ===
    0x5616
=== CODE BLOCK END ===

=== CODE BLOCK ADDRESS 0x5616 ===
  0x5616	mov    	esi, dword ptr [esp + 0x50]
  0x561a	dec    	eax
  0x561b	mov    	edi, dword ptr [esp + 0x58]
  0x561f	dec    	eax
  0x5620	add    	esp, 0x20
  === BLOCK LINK ===
    0x5623
=== CODE BLOCK END ===

=== CODE BLOCK ADDRESS 0x5623 ===
  0x5623	inc    	ecx
  0x5624	pop    	edi
  0x5625	inc    	ecx
  0x5626	pop    	esi
  0x5627	inc    	ecx
  === BLOCK LINK ===
    0x5628
=== CODE BLOCK END ===

=== CODE BLOCK ADDRESS 0x5628 ===
  0x5628	pop    	esp
  0x5629	ret    	
  0x562a	int3   	
  0x562b	int3   	
  0x562c	dec    	eax
  === BLOCK LINK ===
    0x562d
=== CODE BLOCK END ===

=== CODE BLOCK ADDRESS 0x562d ===
  0x562d	mov    	dword ptr [esp + 8], ebx
  0x5631	mov    	edx, 0x104
  0x5636	dec    	ebp
  0x5637	mov    	edx, eax
  0x5639	inc    	esp
  === BLOCK LINK ===
    0x563a
=== CODE BLOCK END ===

=== CODE BLOCK ADDRESS 0x563a ===
  0x563a	mov    	ecx, edx
  0x563c	dec    	esp
  0x563d	mov    	ebx, ecx
  0x563f	dec    	eax
  0x5640	mov    	eax, ecx
  === BLOCK LINK ===
    0x5642
=== CODE BLOCK END ===

=== CODE BLOCK ADDRESS 0x5642 ===
  0x5642	xor    	ebx, ebx
  0x5644	cmp    	word ptr [eax], bx
  0x5647	je     	0x5653
  === BLOCK LINK ===
    0x5649
=== CODE BLOCK END ===

=== CODE BLOCK ADDRESS 0x5649 ===
  0x5649	dec    	eax
  0x564a	add    	eax, 2
  0x564d	dec    	ecx
  0x564e	sub    	ecx, 1
  0x5651	jne    	0x5644
  === BLOCK LINK ===
    0x5653
=== CODE BLOCK END ===

=== CODE BLOCK ADDRESS 0x5653 ===
  0x5653	dec    	eax
  0x5654	mov    	ecx, edx
  0x5656	dec    	ecx
  0x5657	mov    	eax, ecx
  0x5659	dec    	ecx
  === BLOCK LINK ===
    0x565a
=== CODE BLOCK END ===

=== CODE BLOCK ADDRESS 0x565a ===
  0x565a	sub    	ecx, ecx
  0x565c	dec    	eax
  0x565d	neg    	eax
  0x565f	dec    	ecx
  0x5660	mov    	eax, ecx
  === BLOCK LINK ===
    0x5662
=== CODE BLOCK END ===

=== CODE BLOCK ADDRESS 0x5662 ===
  0x5662	dec    	ebp
  0x5663	sbb    	eax, eax
  0x5665	dec    	esp
  0x5666	and    	eax, ecx
  0x5668	dec    	eax
  === BLOCK LINK ===
    0x5669
=== CODE BLOCK END ===

=== CODE BLOCK ADDRESS 0x5669 ===
  0x5669	neg    	eax
  0x566b	sbb    	eax, eax
  0x566d	not    	eax
  0x566f	and    	eax, 0x80070057
  0x5674	dec    	ebp
  === BLOCK LINK ===
    0x5675
=== CODE BLOCK END ===

=== CODE BLOCK ADDRESS 0x5675 ===
  0x5675	test   	ecx, ecx
  0x5677	je     	0x56c5
  === BLOCK LINK ===
    0x5679
=== CODE BLOCK END ===

=== CODE BLOCK ADDRESS 0x5679 ===
  0x5679	dec    	ebx
  0x567a	lea    	ecx, [ebx + eax*2]
  0x567d	dec    	ecx
  0x567e	sub    	edx, eax
  0x5680	je     	0x56ab
  === BLOCK LINK ===
    0x5682
=== CODE BLOCK END ===

=== CODE BLOCK ADDRESS 0x5682 ===
  0x5682	mov    	eax, 0x7ffffffe
  0x5687	dec    	esp
  0x5688	sub    	edx, ecx
  0x568a	dec    	eax
  0x568b	test   	eax, eax
  === BLOCK LINK ===
    0x568d
=== CODE BLOCK END ===

=== CODE BLOCK ADDRESS 0x568d ===
  0x568d	je     	0x56ab
  === BLOCK LINK ===
    0x568f
=== CODE BLOCK END ===

=== CODE BLOCK ADDRESS 0x568f ===
  0x568f	inc    	ebp
  0x5690	movzx  	eax, word ptr [edx + ecx]
  0x5694	inc    	bp
  0x5696	test   	eax, eax
  0x5698	je     	0x56ab
  === BLOCK LINK ===
    0x569a
=== CODE BLOCK END ===

=== CODE BLOCK ADDRESS 0x569a ===
  0x569a	inc    	sp
  0x569c	mov    	dword ptr [ecx], eax
  0x569e	dec    	eax
  0x569f	dec    	eax
  0x56a1	dec    	eax
  === BLOCK LINK ===
    0x56a2
=== CODE BLOCK END ===

=== CODE BLOCK ADDRESS 0x56a2 ===
  0x56a2	add    	ecx, 2
  0x56a5	dec    	eax
  0x56a6	sub    	edx, 1
  0x56a9	jne    	0x568a
  === BLOCK LINK ===
    0x56ab
=== CODE BLOCK END ===

=== CODE BLOCK ADDRESS 0x56ab ===
  0x56ab	dec    	eax
  0x56ac	test   	edx, edx
  0x56ae	dec    	eax
  0x56af	lea    	eax, [ecx - 2]
  0x56b2	dec    	eax
  === BLOCK LINK ===
    0x56b3
=== CODE BLOCK END ===

=== CODE BLOCK ADDRESS 0x56b3 ===
  0x56b3	cmovne  	eax, ecx
  0x56b6	dec    	eax
  0x56b7	neg    	edx
  0x56b9	mov    	word ptr [eax], bx
  0x56bc	sbb    	eax, eax
  === BLOCK LINK ===
    0x56be
=== CODE BLOCK END ===

=== CODE BLOCK ADDRESS 0x56be ===
  0x56be	not    	eax
  0x56c0	and    	eax, 0x8007007a
  0x56c5	dec    	eax
  0x56c6	mov    	ebx, dword ptr [esp + 8]
  0x56ca	ret    	
  === BLOCK LINK ===
    0x56cb
=== CODE BLOCK END ===

=== CODE BLOCK ADDRESS 0x56cb ===
  0x56cb	int3   	
  0x56cc	dec    	esp
  0x56cd	mov    	dword ptr [esp + 0x18], eax
  0x56d1	dec    	esp
  0x56d2	mov    	dword ptr [esp + 0x20], ecx
  === BLOCK LINK ===
    0x56d6
=== CODE BLOCK END ===

=== CODE BLOCK ADDRESS 0x56d6 ===
  0x56d6	push   	ebx
  0x56d7	push   	esi
  0x56d8	push   	edi
  0x56d9	dec    	eax
  0x56da	sub    	esp, 0x30
  === BLOCK LINK ===
    0x56dd
=== CODE BLOCK END ===

=== CODE BLOCK ADDRESS 0x56dd ===
  0x56dd	dec    	eax
  0x56de	lea    	eax, [edx - 1]
  0x56e1	dec    	eax
  0x56e2	mov    	esi, ecx
  0x56e4	dec    	eax
  === BLOCK LINK ===
    0x56e5
=== CODE BLOCK END ===

=== CODE BLOCK ADDRESS 0x56e5 ===
  0x56e5	cmp    	eax, 0x7ffffffe
  0x56ea	jbe    	0x56fb
  === BLOCK LINK ===
    0x56ec
=== CODE BLOCK END ===

=== CODE BLOCK ADDRESS 0x56ec ===
  0x56ec	mov    	ebx, 0x80070057
  0x56f1	dec    	eax
  0x56f2	test   	edx, edx
  0x56f4	je     	0x5730
  === BLOCK LINK ===
    0x56f6
=== CODE BLOCK END ===

=== CODE BLOCK ADDRESS 0x56f6 ===
  0x56f6	mov    	byte ptr [ecx], 0
  0x56f9	jmp    	0x5730
  === BLOCK LINK ===
    0x56fb
=== CODE BLOCK END ===

=== CODE BLOCK ADDRESS 0x56fb ===
  0x56fb	dec    	eax
  0x56fc	lea    	edi, [edx - 1]
  0x56ff	dec    	ebp
  0x5700	mov    	ecx, eax
  0x5702	dec    	eax
  === BLOCK LINK ===
    0x5703
=== CODE BLOCK END ===

=== CODE BLOCK ADDRESS 0x5703 ===
  0x5703	lea    	eax, [esp + 0x68]
  0x5707	dec    	esp
  0x5708	mov    	eax, edi
  0x570a	xor    	ebx, ebx
  0x570c	dec    	eax
  === BLOCK LINK ===
    0x570d
=== CODE BLOCK END ===

=== CODE BLOCK ADDRESS 0x570d ===
  0x570d	mov    	dword ptr [esp + 0x20], eax
  0x5711	call   	0x2130
  === BLOCK LINK ===
    0x5716
=== CODE BLOCK END ===

=== CODE BLOCK ADDRESS 0x5716 ===
  0x5716	test   	eax, eax
  0x5718	js     	0x5728
  === BLOCK LINK ===
    0x571a
=== CODE BLOCK END ===

=== CODE BLOCK ADDRESS 0x571a ===
  0x571a	dec    	eax
  0x571b	cwde   	
  0x571c	dec    	eax
  0x571d	cmp    	eax, edi
  0x571f	ja     	0x5728
  === BLOCK LINK ===
    0x5721
=== CODE BLOCK END ===

=== CODE BLOCK ADDRESS 0x5721 ===
  0x5721	jne    	0x5730
  === BLOCK LINK ===
    0x5723
=== CODE BLOCK END ===

=== CODE BLOCK ADDRESS 0x5723 ===
  0x5723	mov    	byte ptr [edi + esi], bl
  0x5726	jmp    	0x5730
  === BLOCK LINK ===
    0x5728
=== CODE BLOCK END ===

=== CODE BLOCK ADDRESS 0x5728 ===
  0x5728	mov    	byte ptr [edi + esi], bl
  0x572b	mov    	ebx, 0x8007007a
  0x5730	mov    	eax, ebx
  0x5732	dec    	eax
  0x5733	add    	esp, 0x30
  === BLOCK LINK ===
    0x5736
=== CODE BLOCK END ===

=== CODE BLOCK ADDRESS 0x5736 ===
  0x5736	pop    	edi
  0x5737	pop    	esi
  0x5738	pop    	ebx
  0x5739	ret    	
  0x573a	int3   	
  === BLOCK LINK ===
    0x573b
=== CODE BLOCK END ===

=== CODE BLOCK ADDRESS 0x170d ===
=== CODE BLOCK END ===

=== CODE BLOCK ADDRESS 0x573b ===
  0x573b	int3   	
  0x573c	dec    	esp
  0x573d	mov    	dword ptr [esp + 0x18], eax
  0x5741	dec    	esp
  0x5742	mov    	dword ptr [esp + 0x20], ecx
  === BLOCK LINK ===
    0x5746
=== CODE BLOCK END ===

=== CODE BLOCK ADDRESS 0x5746 ===
  0x5746	push   	ebx
  0x5747	push   	esi
  0x5748	push   	edi
  0x5749	inc    	ecx
  0x574a	push   	esi
  === BLOCK LINK ===
    0x574b
=== CODE BLOCK END ===

=== CODE BLOCK ADDRESS 0x574b ===
  0x574b	dec    	eax
  0x574c	sub    	esp, 0x28
  0x574f	dec    	eax
  0x5750	lea    	eax, [edx - 1]
  0x5753	xor    	ebx, ebx
  === BLOCK LINK ===
    0x5755
=== CODE BLOCK END ===

=== CODE BLOCK ADDRESS 0x5755 ===
  0x5755	dec    	esp
  0x5756	mov    	esi, ecx
  0x5758	dec    	eax
  0x5759	cmp    	eax, 0x7ffffffe
  0x575e	jbe    	0x576f
  === BLOCK LINK ===
    0x5760
=== CODE BLOCK END ===

=== CODE BLOCK ADDRESS 0x5760 ===
  0x5760	mov    	edi, 0x80070057
  0x5765	dec    	eax
  0x5766	test   	edx, edx
  0x5768	je     	0x579b
  === BLOCK LINK ===
    0x576a
=== CODE BLOCK END ===

=== CODE BLOCK ADDRESS 0x576a ===
  0x576a	mov    	word ptr [ecx], bx
  0x576d	jmp    	0x579b
  === BLOCK LINK ===
    0x576f
=== CODE BLOCK END ===

=== CODE BLOCK ADDRESS 0x576f ===
  0x576f	dec    	eax
  0x5770	lea    	esi, [edx - 1]
  0x5773	mov    	edi, ebx
  0x5775	dec    	eax
  0x5776	mov    	edx, esi
  === BLOCK LINK ===
    0x5778
=== CODE BLOCK END ===

=== CODE BLOCK ADDRESS 0x5778 ===
  0x5778	dec    	esp
  0x5779	lea    	ecx, [esp + 0x68]
  0x577d	call   	0x20cc
  === BLOCK LINK ===
    0x5782
=== CODE BLOCK END ===

=== CODE BLOCK ADDRESS 0x5782 ===
  0x5782	test   	eax, eax
  0x5784	js     	0x5791
  === BLOCK LINK ===
    0x5786
=== CODE BLOCK END ===

=== CODE BLOCK ADDRESS 0x5786 ===
  0x5786	dec    	eax
  0x5787	cwde   	
  0x5788	dec    	eax
  0x5789	cmp    	eax, esi
  0x578b	ja     	0x5791
  === BLOCK LINK ===
    0x578d
=== CODE BLOCK END ===

=== CODE BLOCK ADDRESS 0x578d ===
  0x578d	jne    	0x579b
  === BLOCK LINK ===
    0x578f
=== CODE BLOCK END ===

=== CODE BLOCK ADDRESS 0x578f ===
  0x578f	jmp    	0x5796
  === BLOCK LINK ===
    0x5791
=== CODE BLOCK END ===

=== CODE BLOCK ADDRESS 0x5791 ===
  0x5791	mov    	edi, 0x8007007a
  0x5796	inc    	cx
  0x5798	mov    	dword ptr [esi + esi*2], ebx
  0x579b	mov    	eax, edi
  0x579d	dec    	eax
  === BLOCK LINK ===
    0x579e
=== CODE BLOCK END ===

=== CODE BLOCK ADDRESS 0x579e ===
  0x579e	add    	esp, 0x28
  0x57a1	inc    	ecx
  0x57a2	pop    	esi
  0x57a3	pop    	edi
  0x57a4	pop    	esi
  === BLOCK LINK ===
    0x57a5
=== CODE BLOCK END ===

=== CODE BLOCK ADDRESS 0x57a5 ===
  0x57a5	pop    	ebx
  0x57a6	ret    	
  0x57a7	int3   	
  0x57a8	jno    	0x5734
  === BLOCK LINK ===
    0x57aa
=== CODE BLOCK END ===

=== CODE BLOCK ADDRESS 0x1716 ===
  0x1716	dec    	eax
  0x1717	add    	esp, 0x20
  0x171a	pop    	ebx
  0x171b	ret    	
  === BLOCK LINK ===
    0x171c
=== CODE BLOCK END ===

=== CODE BLOCK ADDRESS 0x57aa ===
  0x57aa	sar    	dword ptr [edx + ecx*4], 1
  0x57ad	mov    	edi, 0x8148b398
  0x57b2	in     	al, dx
  0x57b3	clc    	
  0x57b4	add    	byte ptr [eax], al
  === BLOCK LINK ===
    0x57b6
=== CODE BLOCK END ===

=== CODE BLOCK ADDRESS 0x57b6 ===
  0x57b6	add    	byte ptr [eax - 0x75], cl
  0x57b9	ror    	dword ptr [eax - 0x73], 1
  0x57bc	dec    	esp
  0x57bd	and    	al, 0x20
  0x57bf	call   	0x2b70
  === BLOCK LINK ===
    0x57c4
=== CODE BLOCK END ===

=== CODE BLOCK ADDRESS 0x57c4 ===
  0x57c4	dec    	eax
  0x57c5	lea    	edx, [0x38dd]
  0x57cb	dec    	eax
  0x57cc	lea    	ecx, [esp + 0x20]
  0x57d0	call   	0x20c4
  === BLOCK LINK ===
    0x57d5
=== CODE BLOCK END ===

=== CODE BLOCK ADDRESS 0x57d5 ===
  0x57d5	int3   	
  0x57d6	int3   	
  0x57d7	int3   	
  0x57d8	dec    	eax
  0x57d9	mov    	eax, esp
  === BLOCK LINK ===
    0x57db
=== CODE BLOCK END ===

=== CODE BLOCK ADDRESS 0x57db ===
  0x57db	dec    	eax
  0x57dc	mov    	dword ptr [eax + 8], ebx
  0x57df	dec    	eax
  0x57e0	mov    	dword ptr [eax + 0x10], esi
  0x57e3	dec    	eax
  === BLOCK LINK ===
    0x57e4
=== CODE BLOCK END ===

=== CODE BLOCK ADDRESS 0x57e4 ===
  0x57e4	mov    	dword ptr [eax + 0x20], edi
  0x57e7	push   	ebp
  0x57e8	inc    	ecx
  0x57e9	push   	esi
  0x57ea	inc    	ecx
  === BLOCK LINK ===
    0x57eb
=== CODE BLOCK END ===

=== CODE BLOCK ADDRESS 0x57eb ===
  0x57eb	push   	edi
  0x57ec	dec    	eax
  0x57ed	lea    	ebp, [eax - 0x168]
  0x57f3	dec    	eax
  0x57f4	sub    	esp, 0x250
  === BLOCK LINK ===
    0x57fa
=== CODE BLOCK END ===

=== CODE BLOCK ADDRESS 0x57fa ===
  0x57fa	dec    	eax
  0x57fb	mov    	eax, dword ptr [0x48df]
  0x5801	dec    	eax
  0x5802	xor    	eax, esp
  0x5804	dec    	eax
  === BLOCK LINK ===
    0x5805
=== CODE BLOCK END ===

=== CODE BLOCK ADDRESS 0x5805 ===
  0x5805	mov    	dword ptr [ebp + 0x140], eax
  0x580b	inc    	ebp
  0x580c	xor    	edi, edi
  0x580e	dec    	eax
  0x580f	lea    	eax, [esp + 0x30]
  === BLOCK LINK ===
    0x5813
=== CODE BLOCK END ===

=== CODE BLOCK ADDRESS 0x5813 ===
  0x5813	dec    	ebp
  0x5814	mov    	dword ptr [eax], edi
  0x5816	dec    	eax
  0x5817	lea    	edx, [esp + 0x30]
  0x581b	dec    	eax
  === BLOCK LINK ===
    0x581c
=== CODE BLOCK END ===

=== CODE BLOCK ADDRESS 0x581c ===
  0x581c	sub    	ecx, eax
  0x581e	dec    	ebp
  0x581f	mov    	esi, eax
  0x5821	inc    	ecx
  0x5822	mov    	ecx, 0x104
  === BLOCK LINK ===
    0x5827
=== CODE BLOCK END ===

=== CODE BLOCK ADDRESS 0x5827 ===
  0x5827	dec    	ecx
  0x5828	lea    	eax, [ecx + 0x7ffffefa]
  0x582e	dec    	eax
  0x582f	test   	eax, eax
  0x5831	je     	0x5849
  === BLOCK LINK ===
    0x5833
=== CODE BLOCK END ===

=== CODE BLOCK ADDRESS 0x5833 ===
  0x5833	movzx  	eax, word ptr [ecx + edx]
  0x5837	test   	ax, ax
  0x583a	je     	0x5849
  === BLOCK LINK ===
    0x583c
=== CODE BLOCK END ===

=== CODE BLOCK ADDRESS 0x583c ===
  0x583c	mov    	word ptr [edx], ax
  0x583f	dec    	eax
  0x5840	add    	edx, 2
  0x5843	dec    	ecx
  0x5844	sub    	ecx, 1
  === BLOCK LINK ===
    0x5847
=== CODE BLOCK END ===

=== CODE BLOCK ADDRESS 0x5847 ===
  0x5847	jne    	0x5827
  === BLOCK LINK ===
    0x5849
=== CODE BLOCK END ===

=== CODE BLOCK ADDRESS 0x5849 ===
  0x5849	dec    	ebp
  0x584a	test   	ecx, ecx
  0x584c	dec    	eax
  0x584d	lea    	eax, [edx - 2]
  0x5850	dec    	esp
  === BLOCK LINK ===
    0x5851
=== CODE BLOCK END ===

=== CODE BLOCK ADDRESS 0x5851 ===
  0x5851	lea    	eax, [0x2129]
  0x5857	dec    	eax
  0x5858	cmovne  	eax, edx
  0x585b	dec    	eax
  0x585c	lea    	ecx, [esp + 0x30]
  === BLOCK LINK ===
    0x5860
=== CODE BLOCK END ===

=== CODE BLOCK ADDRESS 0x5860 ===
  0x5860	inc    	sp
  0x5862	mov    	dword ptr [eax], edi
  0x5864	call   	0x562c
  === BLOCK LINK ===
    0x5869
=== CODE BLOCK END ===

=== CODE BLOCK ADDRESS 0x5869 ===
  0x5869	mov    	esi, 0x1f0003
  0x586e	dec    	esp
  0x586f	lea    	eax, [esp + 0x30]
  0x5873	mov    	ecx, esi
  0x5875	xor    	edx, edx
  === BLOCK LINK ===
    0x5877
=== CODE BLOCK END ===

=== CODE BLOCK ADDRESS 0x5877 ===
  0x5877	call   	dword ptr [0x1b1b]
  === BLOCK LINK ===
    0x587d
=== CODE BLOCK END ===

=== CODE BLOCK ADDRESS 0x587d ===
  0x587d	dec    	eax
  0x587e	mov    	ebx, eax
  0x5880	dec    	eax
  0x5881	test   	eax, eax
  0x5883	je     	0x59b6
  === BLOCK LINK ===
    0x5889
=== CODE BLOCK END ===

=== CODE BLOCK ADDRESS 0x5889 ===
  0x5889	dec    	eax
  0x588a	lea    	edx, [esp + 0x24]
  0x588e	inc    	esp
  0x588f	mov    	dword ptr [esp + 0x24], edi
  0x5893	dec    	eax
  === BLOCK LINK ===
    0x5894
=== CODE BLOCK END ===

=== CODE BLOCK ADDRESS 0x5894 ===
  0x5894	mov    	ecx, eax
  0x5896	inc    	esp
  0x5897	mov    	dword ptr [esp + 0x20], edi
  0x589b	call   	0x3da4
  === BLOCK LINK ===
    0x58a0
=== CODE BLOCK END ===

=== CODE BLOCK ADDRESS 0x58a0 ===
  0x58a0	mov    	edi, eax
  0x58a2	test   	eax, eax
  0x58a4	jns    	0x58d9
  === BLOCK LINK ===
    0x58a6
=== CODE BLOCK END ===

=== CODE BLOCK ADDRESS 0x58a6 ===
  0x58a6	dec    	eax
  0x58a7	mov    	ecx, dword ptr [ebp + 0x168]
  0x58ad	dec    	esp
  0x58ae	lea    	eax, [0x2090]
  0x58b4	inc    	esp
  === BLOCK LINK ===
    0x58b5
=== CODE BLOCK END ===

=== CODE BLOCK ADDRESS 0x58b5 ===
  0x58b5	mov    	ecx, eax
  0x58b7	mov    	edx, 0xcf
  0x58bc	call   	0x4c34
  === BLOCK LINK ===
    0x58c1
=== CODE BLOCK END ===

=== CODE BLOCK ADDRESS 0x58c1 ===
  0x58c1	dec    	eax
  0x58c2	mov    	ecx, ebx
  0x58c4	call   	dword ptr [0x19d6]
  === BLOCK LINK ===
    0x58ca
=== CODE BLOCK END ===

=== CODE BLOCK ADDRESS 0x58ca ===
  0x58ca	test   	eax, eax
  0x58cc	je     	0x5a38
  === BLOCK LINK ===
    0x58d2
=== CODE BLOCK END ===

=== CODE BLOCK ADDRESS 0x58d2 ===
  0x58d2	mov    	eax, edi
  0x58d4	jmp    	0x59d6
  === BLOCK LINK ===
    0x58d9
=== CODE BLOCK END ===

=== CODE BLOCK ADDRESS 0x58d9 ===
  0x58d9	dec    	esp
  0x58da	lea    	eax, [0x20a8]
  0x58e0	dec    	eax
  0x58e1	lea    	ecx, [esp + 0x30]
  0x58e5	call   	0x562c
  === BLOCK LINK ===
    0x58ea
=== CODE BLOCK END ===

=== CODE BLOCK ADDRESS 0x58ea ===
  0x58ea	dec    	esp
  0x58eb	lea    	eax, [esp + 0x30]
  0x58ef	xor    	edx, edx
  0x58f1	mov    	ecx, esi
  0x58f3	call   	dword ptr [0x1a9f]
  === BLOCK LINK ===
    0x58f9
=== CODE BLOCK END ===

=== CODE BLOCK ADDRESS 0x58f9 ===
  0x58f9	dec    	eax
  0x58fa	mov    	edi, eax
  0x58fc	dec    	eax
  0x58fd	test   	eax, eax
  0x58ff	je     	0x5991
  === BLOCK LINK ===
    0x5905
=== CODE BLOCK END ===

=== CODE BLOCK ADDRESS 0x5905 ===
  0x5905	dec    	eax
  0x5906	lea    	edx, [esp + 0x20]
  0x590a	dec    	eax
  0x590b	mov    	ecx, eax
  0x590d	call   	0x3da4
  === BLOCK LINK ===
    0x5912
=== CODE BLOCK END ===

=== CODE BLOCK ADDRESS 0x5912 ===
  0x5912	mov    	esi, eax
  0x5914	test   	eax, eax
  0x5916	jns    	0x5959
  === BLOCK LINK ===
    0x5918
=== CODE BLOCK END ===

=== CODE BLOCK ADDRESS 0x5918 ===
  0x5918	dec    	eax
  0x5919	mov    	ecx, dword ptr [ebp + 0x168]
  0x591f	dec    	esp
  0x5920	lea    	eax, [0x201e]
  0x5926	inc    	esp
  === BLOCK LINK ===
    0x5927
=== CODE BLOCK END ===

=== CODE BLOCK ADDRESS 0x5927 ===
  0x5927	mov    	ecx, eax
  0x5929	mov    	edx, 0xd7
  0x592e	call   	0x4c34
  === BLOCK LINK ===
    0x5933
=== CODE BLOCK END ===

=== CODE BLOCK ADDRESS 0x5933 ===
  0x5933	dec    	eax
  0x5934	mov    	ecx, edi
  0x5936	call   	dword ptr [0x1964]
  === BLOCK LINK ===
    0x593c
=== CODE BLOCK END ===

=== CODE BLOCK ADDRESS 0x593c ===
  0x593c	test   	eax, eax
  0x593e	je     	0x5a4a
  === BLOCK LINK ===
    0x5944
=== CODE BLOCK END ===

=== CODE BLOCK ADDRESS 0x5944 ===
  0x5944	dec    	eax
  0x5945	mov    	ecx, ebx
  0x5947	call   	dword ptr [0x1953]
  === BLOCK LINK ===
    0x594d
=== CODE BLOCK END ===

=== CODE BLOCK ADDRESS 0x594d ===
  0x594d	test   	eax, eax
  0x594f	je     	0x5a5c
  === BLOCK LINK ===
    0x5955
=== CODE BLOCK END ===

=== CODE BLOCK ADDRESS 0x5955 ===
  0x5955	mov    	eax, esi
  0x5957	jmp    	0x59d6
  === BLOCK LINK ===
    0x5959
=== CODE BLOCK END ===

=== CODE BLOCK ADDRESS 0x5959 ===
  0x5959	dec    	eax
  0x595a	mov    	ecx, edi
  0x595c	call   	dword ptr [0x193e]
  === BLOCK LINK ===
    0x5962
=== CODE BLOCK END ===

=== CODE BLOCK ADDRESS 0x5962 ===
  0x5962	test   	eax, eax
  0x5964	je     	0x5a02
  === BLOCK LINK ===
    0x596a
=== CODE BLOCK END ===

=== CODE BLOCK ADDRESS 0x596a ===
  0x596a	dec    	eax
  0x596b	arpl   	word ptr [esp + 0x24], ax
  0x596f	dec    	eax
  0x5970	arpl   	word ptr [esp + 0x20], cx
  0x5974	dec    	eax
  === BLOCK LINK ===
    0x5975
=== CODE BLOCK END ===

=== CODE BLOCK ADDRESS 0x5975 ===
  0x5975	shl    	ecx, 0x1f
  0x5978	dec    	eax
  0x5979	or     	ecx, eax
  0x597b	dec    	ecx
  0x597c	mov    	dword ptr [esi], ecx
  === BLOCK LINK ===
    0x597e
=== CODE BLOCK END ===

=== CODE BLOCK ADDRESS 0x597e ===
  0x597e	dec    	eax
  0x597f	mov    	ecx, ebx
  0x5981	call   	dword ptr [0x1919]
  === BLOCK LINK ===
    0x5987
=== CODE BLOCK END ===

=== CODE BLOCK ADDRESS 0x5987 ===
  0x5987	test   	eax, eax
  0x5989	je     	0x5a14
  === BLOCK LINK ===
    0x598f
=== CODE BLOCK END ===

=== CODE BLOCK ADDRESS 0x598f ===
  0x598f	jmp    	0x59c1
  === BLOCK LINK ===
    0x5991
=== CODE BLOCK END ===

=== CODE BLOCK ADDRESS 0x5991 ===
  0x5991	dec    	eax
  0x5992	mov    	ecx, dword ptr [ebp + 0x168]
  0x5998	mov    	edx, 0xd5
  0x599d	call   	0x4c10
  === BLOCK LINK ===
    0x59a2
=== CODE BLOCK END ===

=== CODE BLOCK ADDRESS 0x59a2 ===
  0x59a2	dec    	eax
  0x59a3	mov    	ecx, ebx
  0x59a5	mov    	edi, eax
  0x59a7	call   	dword ptr [0x18f3]
  === BLOCK LINK ===
    0x59ad
=== CODE BLOCK END ===

=== CODE BLOCK ADDRESS 0x59ad ===
  0x59ad	test   	eax, eax
  0x59af	je     	0x5a26
  === BLOCK LINK ===
    0x59b1
=== CODE BLOCK END ===

=== CODE BLOCK ADDRESS 0x59b1 ===
  0x59b1	jmp    	0x58d2
  === BLOCK LINK ===
    0x59b6
=== CODE BLOCK END ===

=== CODE BLOCK ADDRESS 0x59b6 ===
  0x59b6	call   	dword ptr [0x18d4]
  === BLOCK LINK ===
    0x59bc
=== CODE BLOCK END ===

=== CODE BLOCK ADDRESS 0x59bc ===
  0x59bc	cmp    	eax, 2
  0x59bf	jne    	0x59c5
  === BLOCK LINK ===
    0x59c1
=== CODE BLOCK END ===

=== CODE BLOCK ADDRESS 0x59c1 ===
  0x59c1	xor    	eax, eax
  0x59c3	jmp    	0x59d6
  === BLOCK LINK ===
    0x59c5
=== CODE BLOCK END ===

=== CODE BLOCK ADDRESS 0x59c5 ===
  0x59c5	dec    	eax
  0x59c6	mov    	ecx, dword ptr [ebp + 0x168]
  0x59cc	mov    	edx, 0xc9
  0x59d1	call   	0x4c10
  === BLOCK LINK ===
    0x59d6
=== CODE BLOCK END ===

=== CODE BLOCK ADDRESS 0x59d6 ===
  0x59d6	dec    	eax
  0x59d7	mov    	ecx, dword ptr [ebp + 0x140]
  0x59dd	dec    	eax
  0x59de	xor    	ecx, esp
  0x59e0	call   	0x1450
  === BLOCK LINK ===
    0x59e5
=== CODE BLOCK END ===

=== CODE BLOCK ADDRESS 0x59e5 ===
  0x59e5	dec    	esp
  0x59e6	lea    	ebx, [esp + 0x250]
  0x59ed	dec    	ecx
  0x59ee	mov    	ebx, dword ptr [ebx + 0x20]
  0x59f1	dec    	ecx
  === BLOCK LINK ===
    0x59f2
=== CODE BLOCK END ===

=== CODE BLOCK ADDRESS 0x59f2 ===
  0x59f2	mov    	esi, dword ptr [ebx + 0x28]
  0x59f5	dec    	ecx
  0x59f6	mov    	edi, dword ptr [ebx + 0x38]
  0x59f9	dec    	ecx
  0x59fa	mov    	esp, ebx
  === BLOCK LINK ===
    0x59fc
=== CODE BLOCK END ===

=== CODE BLOCK ADDRESS 0x59fc ===
  0x59fc	inc    	ecx
  0x59fd	pop    	edi
  0x59fe	inc    	ecx
  0x59ff	pop    	esi
  0x5a00	pop    	ebp
  === BLOCK LINK ===
    0x5a01
=== CODE BLOCK END ===

=== CODE BLOCK ADDRESS 0x5a01 ===
  0x5a01	ret    	
  0x5a02	dec    	eax
  0x5a03	mov    	ecx, dword ptr [ebp + 0x168]
  0x5a09	mov    	edx, 0x937
  0x5a0e	call   	0x5e6c
  === BLOCK LINK ===
    0x5a13
=== CODE BLOCK END ===

=== CODE BLOCK ADDRESS 0x5a13 ===
  0x5a13	int3   	
  0x5a14	dec    	eax
  0x5a15	mov    	ecx, dword ptr [ebp + 0x168]
  0x5a1b	mov    	edx, 0x937
  0x5a20	call   	0x5e6c
  === BLOCK LINK ===
    0x5a25
=== CODE BLOCK END ===

=== CODE BLOCK ADDRESS 0x5a25 ===
  0x5a25	int3   	
  0x5a26	dec    	eax
  0x5a27	mov    	ecx, dword ptr [ebp + 0x168]
  0x5a2d	mov    	edx, 0x937
  0x5a32	call   	0x5e6c
  === BLOCK LINK ===
    0x5a37
=== CODE BLOCK END ===

=== CODE BLOCK ADDRESS 0x5a37 ===
  0x5a37	int3   	
  0x5a38	dec    	eax
  0x5a39	mov    	ecx, dword ptr [ebp + 0x168]
  0x5a3f	mov    	edx, 0x937
  0x5a44	call   	0x5e6c
  === BLOCK LINK ===
    0x5a49
=== CODE BLOCK END ===

=== CODE BLOCK ADDRESS 0x5a49 ===
  0x5a49	int3   	
  0x5a4a	dec    	eax
  0x5a4b	mov    	ecx, dword ptr [ebp + 0x168]
  0x5a51	mov    	edx, 0x937
  0x5a56	call   	0x5e6c
  === BLOCK LINK ===
    0x5a5b
=== CODE BLOCK END ===

=== CODE BLOCK ADDRESS 0x5a5b ===
  0x5a5b	int3   	
  0x5a5c	dec    	eax
  0x5a5d	mov    	ecx, dword ptr [ebp + 0x168]
  0x5a63	mov    	edx, 0x937
  0x5a68	call   	0x5e6c
  === BLOCK LINK ===
    0x5a6d
=== CODE BLOCK END ===

=== CODE BLOCK ADDRESS 0x5a6d ===
  0x5a6d	int3   	
  0x5a6e	int3   	
  0x5a6f	int3   	
  0x5a70	dec    	esp
  0x5a71	mov    	dword ptr [esp + 0x20], ecx
  === BLOCK LINK ===
    0x5a75
=== CODE BLOCK END ===

=== CODE BLOCK ADDRESS 0x5a75 ===
  0x5a75	dec    	esp
  0x5a76	mov    	dword ptr [esp + 0x18], eax
  0x5a7a	mov    	dword ptr [esp + 8], ecx
  0x5a7e	push   	ebp
  0x5a7f	push   	ebx
  === BLOCK LINK ===
    0x5a80
=== CODE BLOCK END ===

=== CODE BLOCK ADDRESS 0x5a80 ===
  0x5a80	push   	esi
  0x5a81	push   	edi
  0x5a82	inc    	ecx
  0x5a83	push   	esi
  0x5a84	dec    	eax
  === BLOCK LINK ===
    0x5a85
=== CODE BLOCK END ===

=== CODE BLOCK ADDRESS 0x5a85 ===
  0x5a85	mov    	ebp, esp
  0x5a87	dec    	eax
  0x5a88	sub    	esp, 0x40
  0x5a8b	dec    	eax
  0x5a8c	mov    	dword ptr [ebp - 0x20], 0xfffffffe
  === BLOCK LINK ===
    0x5a93
=== CODE BLOCK END ===

=== CODE BLOCK ADDRESS 0x5a93 ===
  0x5a93	dec    	esp
  0x5a94	mov    	esi, edx
  0x5a96	xor    	ebx, ebx
  0x5a98	dec    	eax
  0x5a99	mov    	dword ptr [ebp + 0x50], ebx
  === BLOCK LINK ===
    0x5a9c
=== CODE BLOCK END ===

=== CODE BLOCK ADDRESS 0x5a9c ===
  0x5a9c	dec    	eax
  0x5a9d	and    	dword ptr [ebp + 0x40], ebx
  0x5aa0	and    	dword ptr [ebp + 0x30], ebx
  0x5aa3	inc    	ecx
  0x5aa4	mov    	ecx, 0x1f0003
  === BLOCK LINK ===
    0x5aa9
=== CODE BLOCK END ===

=== CODE BLOCK ADDRESS 0x5aa9 ===
  0x5aa9	inc    	ebp
  0x5aaa	xor    	eax, eax
  0x5aac	xor    	edx, edx
  0x5aae	xor    	ecx, ecx
  0x5ab0	call   	dword ptr [0x190a]
  === BLOCK LINK ===
    0x5ab6
=== CODE BLOCK END ===

=== CODE BLOCK ADDRESS 0x5ab6 ===
  0x5ab6	dec    	eax
  0x5ab7	mov    	esi, eax
  0x5ab9	dec    	eax
  0x5aba	test   	eax, eax
  0x5abc	jne    	0x5adc
  === BLOCK LINK ===
    0x5abe
=== CODE BLOCK END ===

=== CODE BLOCK ADDRESS 0x5abe ===
  0x5abe	call   	dword ptr [0x17cc]
  === BLOCK LINK ===
    0x5ac4
=== CODE BLOCK END ===

=== CODE BLOCK ADDRESS 0x5ac4 ===
  0x5ac4	mov    	edi, eax
  0x5ac6	test   	eax, eax
  0x5ac8	jle    	0x5ca9
  === BLOCK LINK ===
    0x5ace
=== CODE BLOCK END ===

=== CODE BLOCK ADDRESS 0x5ace ===
  0x5ace	movzx  	edi, ax
  0x5ad1	or     	edi, 0x80070000
  0x5ad7	jmp    	0x5ca9
  === BLOCK LINK ===
    0x5adc
=== CODE BLOCK END ===

=== CODE BLOCK ADDRESS 0x5adc ===
  0x5adc	dec    	eax
  0x5add	mov    	dword ptr [ebp - 0x18], esi
  0x5ae0	dec    	eax
  0x5ae1	and    	dword ptr [ebp - 0x10], 0
  0x5ae5	dec    	eax
  === BLOCK LINK ===
    0x5ae6
=== CODE BLOCK END ===

=== CODE BLOCK ADDRESS 0x5ae6 ===
  0x5ae6	lea    	edx, [0x20d4]
  0x5aec	mov    	ecx, 0x20
  0x5af1	call   	0x15f8
  === BLOCK LINK ===
    0x5af6
=== CODE BLOCK END ===

=== CODE BLOCK ADDRESS 0x5af6 ===
  0x5af6	dec    	eax
  0x5af7	mov    	ebx, eax
  0x5af9	dec    	eax
  0x5afa	test   	eax, eax
  0x5afc	je     	0x5b52
  === BLOCK LINK ===
    0x5afe
=== CODE BLOCK END ===

=== CODE BLOCK ADDRESS 0x5afe ===
  0x5afe	dec    	eax
  0x5aff	lea    	eax, [0x1563]
  0x5b05	dec    	eax
  0x5b06	mov    	dword ptr [ebx], eax
  0x5b08	mov    	dword ptr [ebx + 0xc], 1
  === BLOCK LINK ===
    0x5b0f
=== CODE BLOCK END ===

=== CODE BLOCK ADDRESS 0x5b0f ===
  0x5b0f	dec    	eax
  0x5b10	lea    	eax, [0x159a]
  0x5b16	dec    	eax
  0x5b17	mov    	dword ptr [ebx], eax
  0x5b19	dec    	eax
  === BLOCK LINK ===
    0x5b1a
=== CODE BLOCK END ===

=== CODE BLOCK ADDRESS 0x5b1a ===
  0x5b1a	mov    	ecx, dword ptr [0x4d90]
  0x5b20	dec    	eax
  0x5b21	test   	ecx, ecx
  0x5b23	je     	0x5b3d
  === BLOCK LINK ===
    0x5b25
=== CODE BLOCK END ===

=== CODE BLOCK ADDRESS 0x5b25 ===
  0x5b25	dec    	eax
  0x5b26	mov    	eax, dword ptr [ecx]
  0x5b28	dec    	ecx
  0x5b29	mov    	edx, 0x30d8e370
  0x5b2e	mov    	byte ptr [0x48a0283e], al
  === BLOCK LINK ===
    0x5b33
=== CODE BLOCK END ===

=== CODE BLOCK ADDRESS 0x5b33 ===
  0x5b33	mov    	eax, dword ptr [eax + 8]
  0x5b36	call   	dword ptr [0x1a54]
  === BLOCK LINK ===
    0x5b3c
=== CODE BLOCK END ===

=== CODE BLOCK ADDRESS 0x5b3c ===
  0x5b3c	nop    	
  0x5b3d	movups  	xmm0, xmmword ptr [ebp - 0x18]
  0x5b41	movdqu  	xmmword ptr [ebx + 0x10], xmm0
  0x5b46	dec    	eax
  0x5b47	lea    	eax, [0x153b]
  === BLOCK LINK ===
    0x5b4d
=== CODE BLOCK END ===

=== CODE BLOCK ADDRESS 0x5b4d ===
  0x5b4d	dec    	eax
  0x5b4e	mov    	dword ptr [ebx], eax
  0x5b50	jmp    	0x5b54
  === BLOCK LINK ===
    0x5b52
=== CODE BLOCK END ===

=== CODE BLOCK ADDRESS 0x5b52 ===
  0x5b52	xor    	ebx, ebx
  0x5b54	dec    	eax
  0x5b55	mov    	dword ptr [ebp + 0x50], ebx
  0x5b58	dec    	eax
  0x5b59	test   	ebx, ebx
  === BLOCK LINK ===
    0x5b5b
=== CODE BLOCK END ===

=== CODE BLOCK ADDRESS 0x5b5b ===
  0x5b5b	jne    	0x5b67
  === BLOCK LINK ===
    0x5b5d
=== CODE BLOCK END ===

=== CODE BLOCK ADDRESS 0x5b5d ===
  0x5b5d	mov    	edi, 0x8007000e
  0x5b62	jmp    	0x5c9f
  === BLOCK LINK ===
    0x5b67
=== CODE BLOCK END ===

=== CODE BLOCK ADDRESS 0x5b67 ===
  0x5b67	dec    	ecx
  0x5b68	mov    	eax, dword ptr [esi]
  0x5b6a	dec    	eax
  0x5b6b	mov    	edi, dword ptr [eax]
  0x5b6d	dec    	eax
  === BLOCK LINK ===
    0x5b6e
=== CODE BLOCK END ===

=== CODE BLOCK ADDRESS 0x5b6e ===
  0x5b6e	mov    	ecx, dword ptr [ebp + 0x40]
  0x5b71	dec    	eax
  0x5b72	test   	ecx, ecx
  0x5b74	je     	0x5b93
  === BLOCK LINK ===
    0x5b76
=== CODE BLOCK END ===

=== CODE BLOCK ADDRESS 0x5b76 ===
  0x5b76	dec    	eax
  0x5b77	and    	dword ptr [ebp + 0x40], 0
  0x5b7b	dec    	eax
  0x5b7c	mov    	eax, dword ptr [ecx]
  0x5b7e	dec    	ecx
  === BLOCK LINK ===
    0x5b7f
=== CODE BLOCK END ===

=== CODE BLOCK ADDRESS 0x5b7f ===
  0x5b7f	mov    	edx, 0x365eb170
  0x5b84	adc    	byte ptr [edi], bl
  0x5b86	lodsb  	al, byte ptr [esi]
  0x5b87	mov    	edx, 0x10408b48
  0x5b8c	call   	dword ptr [0x19fe]
  === BLOCK LINK ===
    0x5b92
=== CODE BLOCK END ===

=== CODE BLOCK ADDRESS 0x5b92 ===
  0x5b92	nop    	
  0x5b93	dec    	ecx
  0x5b94	mov    	edx, 0x74d59970
  0x5b99	jns    	0x5bb9
  === BLOCK LINK ===
    0x5b9b
=== CODE BLOCK END ===

=== CODE BLOCK ADDRESS 0x5b9b ===
  0x5b9b	loopne  	0x5b7b
  === BLOCK LINK ===
    0x5b9d
=== CODE BLOCK END ===

=== CODE BLOCK ADDRESS 0x5b9d ===
  0x5b9d	dec    	esp
  0x5b9e	lea    	eax, [ebp + 0x40]
  0x5ba1	dec    	eax
  0x5ba2	lea    	edx, [0x1fb8]
  0x5ba8	dec    	ecx
  === BLOCK LINK ===
    0x5ba9
=== CODE BLOCK END ===

=== CODE BLOCK ADDRESS 0x5ba9 ===
  0x5ba9	mov    	ecx, esi
  0x5bab	dec    	eax
  0x5bac	mov    	eax, edi
  0x5bae	call   	dword ptr [0x19dc]
  === BLOCK LINK ===
    0x5bb4
=== CODE BLOCK END ===

=== CODE BLOCK ADDRESS 0x5bb4 ===
  0x5bb4	mov    	edi, eax
  0x5bb6	test   	eax, eax
  0x5bb8	js     	0x5c9f
  === BLOCK LINK ===
    0x5bbe
=== CODE BLOCK END ===

=== CODE BLOCK ADDRESS 0x5bbe ===
  0x5bbe	dec    	ecx
  0x5bbf	mov    	eax, dword ptr [esi]
  0x5bc1	dec    	ecx
  0x5bc2	mov    	edx, 0x72d1a970
  0x5bc7	arpl   	word ptr [esi - 0x74b71c1f], cx
  === BLOCK LINK ===
    0x5bcd
=== CODE BLOCK END ===

=== CODE BLOCK ADDRESS 0x5bcd ===
  0x5bcd	ror    	dword ptr [ecx - 0x75], cl
  0x5bd0	into   	
  0x5bd1	dec    	eax
  0x5bd2	mov    	eax, dword ptr [eax + 0x40]
  0x5bd5	call   	dword ptr [0x19b5]
  === BLOCK LINK ===
    0x5bdb
=== CODE BLOCK END ===

=== CODE BLOCK ADDRESS 0x5bdb ===
  0x5bdb	mov    	edi, eax
  0x5bdd	test   	eax, eax
  0x5bdf	js     	0x5c9f
  === BLOCK LINK ===
    0x5be5
=== CODE BLOCK END ===

=== CODE BLOCK ADDRESS 0x5be5 ===
  0x5be5	or     	edx, 0xffffffff
  0x5be8	dec    	eax
  0x5be9	mov    	ecx, esi
  0x5beb	call   	dword ptr [0x17b7]
  === BLOCK LINK ===
    0x5bf1
=== CODE BLOCK END ===

=== CODE BLOCK ADDRESS 0x5bf1 ===
  0x5bf1	cmp    	eax, 0x102
  0x5bf6	jne    	0x5c02
  === BLOCK LINK ===
    0x5bf8
=== CODE BLOCK END ===

=== CODE BLOCK ADDRESS 0x5bf8 ===
  0x5bf8	mov    	edi, 0x800705b4
  0x5bfd	jmp    	0x5c9f
  === BLOCK LINK ===
    0x5c02
=== CODE BLOCK END ===

=== CODE BLOCK ADDRESS 0x5c02 ===
  0x5c02	test   	eax, eax
  0x5c04	je     	0x5c21
  === BLOCK LINK ===
    0x5c06
=== CODE BLOCK END ===

=== CODE BLOCK ADDRESS 0x5c06 ===
  0x5c06	call   	dword ptr [0x1684]
  === BLOCK LINK ===
    0x5c0c
=== CODE BLOCK END ===

=== CODE BLOCK ADDRESS 0x5c0c ===
  0x5c0c	mov    	edi, eax
  0x5c0e	test   	eax, eax
  0x5c10	jle    	0x5c9f
  === BLOCK LINK ===
    0x5c16
=== CODE BLOCK END ===

=== CODE BLOCK ADDRESS 0x5c16 ===
  0x5c16	movzx  	edi, ax
  0x5c19	or     	edi, 0x80070000
  0x5c1f	jmp    	0x5c9f
  === BLOCK LINK ===
    0x5c21
=== CODE BLOCK END ===

=== CODE BLOCK ADDRESS 0x5c21 ===
  0x5c21	dec    	eax
  0x5c22	mov    	ecx, dword ptr [ebp + 0x40]
  0x5c25	dec    	eax
  0x5c26	mov    	eax, dword ptr [ecx]
  0x5c28	dec    	ecx
  === BLOCK LINK ===
    0x5c29
=== CODE BLOCK END ===

=== CODE BLOCK ADDRESS 0x5c29 ===
  0x5c29	mov    	edx, 0x3c5c9870
  0x5c2e	sub    	ch, byte ptr [esi - 0x72b757f3]
  0x5c34	push   	ebp
  0x5c35	xor    	byte ptr [eax - 0x75], cl
  0x5c38	inc    	eax
  === BLOCK LINK ===
    0x5c39
=== CODE BLOCK END ===

=== CODE BLOCK ADDRESS 0x5c39 ===
  0x5c39	cmp    	bh, bh
  0x5c3b	adc    	eax, 0x1950
  0x5c40	mov    	edi, eax
  0x5c42	test   	eax, eax
  0x5c44	js     	0x5c9f
  === BLOCK LINK ===
    0x5c46
=== CODE BLOCK END ===

=== CODE BLOCK ADDRESS 0x5c46 ===
  0x5c46	cmp    	dword ptr [ebp + 0x30], 2
  0x5c4a	jne    	0x5c53
  === BLOCK LINK ===
    0x5c4c
=== CODE BLOCK END ===

=== CODE BLOCK ADDRESS 0x5c4c ===
  0x5c4c	mov    	edi, 0x80073cf8
  0x5c51	jmp    	0x5c84
  === BLOCK LINK ===
    0x5c53
=== CODE BLOCK END ===

=== CODE BLOCK ADDRESS 0x5c53 ===
  0x5c53	cmp    	dword ptr [ebp + 0x30], 3
  0x5c57	jne    	0x5c84
  === BLOCK LINK ===
    0x5c59
=== CODE BLOCK END ===

=== CODE BLOCK ADDRESS 0x5c59 ===
  0x5c59	and    	dword ptr [ebp + 0x48], 0
  0x5c5d	dec    	eax
  0x5c5e	mov    	ecx, dword ptr [ebp + 0x40]
  0x5c61	dec    	eax
  0x5c62	mov    	eax, dword ptr [ecx]
  === BLOCK LINK ===
    0x5c64
=== CODE BLOCK END ===

=== CODE BLOCK ADDRESS 0x5c64 ===
  0x5c64	dec    	ecx
  0x5c65	mov    	edx, 0x14563b70
  0x5c6a	.byte  	0x66
  0x5c6b	.byte  	0x0f
  0x5c6c	add    	al, 0xf2
  === BLOCK LINK ===
    0x5c6e
=== CODE BLOCK END ===

=== CODE BLOCK ADDRESS 0x5c6e ===
  0x5c6e	dec    	eax
  0x5c6f	lea    	edx, [ebp + 0x48]
  0x5c72	dec    	eax
  0x5c73	mov    	eax, dword ptr [eax + 0x40]
  0x5c76	call   	dword ptr [0x1914]
  === BLOCK LINK ===
    0x5c7c
=== CODE BLOCK END ===

=== CODE BLOCK ADDRESS 0x5c7c ===
  0x5c7c	mov    	edi, eax
  0x5c7e	test   	eax, eax
  0x5c80	cmovns  	edi, dword ptr [ebp + 0x48]
  0x5c84	dec    	eax
  0x5c85	mov    	ecx, dword ptr [ebp + 0x40]
  === BLOCK LINK ===
    0x5c88
=== CODE BLOCK END ===

=== CODE BLOCK ADDRESS 0x5c88 ===
  0x5c88	dec    	eax
  0x5c89	mov    	eax, dword ptr [ecx]
  0x5c8b	dec    	ecx
  0x5c8c	mov    	edx, 0x72d4a070
  0x5c91	mov    	esp, 0x4886099f
  === BLOCK LINK ===
    0x5c96
=== CODE BLOCK END ===

=== CODE BLOCK ADDRESS 0x5c96 ===
  0x5c96	mov    	eax, dword ptr [eax + 0x50]
  0x5c99	call   	dword ptr [0x18f1]
  === BLOCK LINK ===
    0x5c9f
=== CODE BLOCK END ===

=== CODE BLOCK ADDRESS 0x5c9f ===
  0x5c9f	dec    	eax
  0x5ca0	mov    	ecx, esi
  0x5ca2	call   	dword ptr [0x15f8]
  === BLOCK LINK ===
    0x5ca8
=== CODE BLOCK END ===

=== CODE BLOCK ADDRESS 0x5ca8 ===
  0x5ca8	nop    	
  0x5ca9	dec    	eax
  0x5caa	mov    	ecx, dword ptr [ebp + 0x40]
  0x5cad	dec    	eax
  0x5cae	test   	ecx, ecx
  === BLOCK LINK ===
    0x5cb0
=== CODE BLOCK END ===

=== CODE BLOCK ADDRESS 0x5cb0 ===
  0x5cb0	je     	0x5ccf
  === BLOCK LINK ===
    0x5cb2
=== CODE BLOCK END ===

=== CODE BLOCK ADDRESS 0x5cb2 ===
  0x5cb2	dec    	eax
  0x5cb3	and    	dword ptr [ebp + 0x40], 0
  0x5cb7	dec    	eax
  0x5cb8	mov    	eax, dword ptr [ecx]
  0x5cba	dec    	ecx
  === BLOCK LINK ===
    0x5cbb
=== CODE BLOCK END ===

=== CODE BLOCK ADDRESS 0x5cbb ===
  0x5cbb	mov    	edx, 0x365eb170
  0x5cc0	adc    	byte ptr [edi], bl
  0x5cc2	lodsb  	al, byte ptr [esi]
  0x5cc3	mov    	edx, 0x10408b48
  0x5cc8	call   	dword ptr [0x18c2]
  === BLOCK LINK ===
    0x5cce
=== CODE BLOCK END ===

=== CODE BLOCK ADDRESS 0x5cce ===
  0x5cce	nop    	
  0x5ccf	dec    	eax
  0x5cd0	test   	ebx, ebx
  0x5cd2	je     	0x5cef
  === BLOCK LINK ===
    0x5cd4
=== CODE BLOCK END ===

=== CODE BLOCK ADDRESS 0x5cd4 ===
  0x5cd4	dec    	eax
  0x5cd5	mov    	eax, dword ptr [ebx]
  0x5cd7	dec    	ecx
  0x5cd8	mov    	edx, 0x365eb170
  0x5cdd	adc    	byte ptr [edi], bl
  === BLOCK LINK ===
    0x5cdf
=== CODE BLOCK END ===

=== CODE BLOCK ADDRESS 0x5cdf ===
  0x5cdf	lodsb  	al, byte ptr [esi]
  0x5ce0	mov    	edx, 0x48cb8b48
  0x5ce5	mov    	eax, dword ptr [eax + 0x10]
  0x5ce8	call   	dword ptr [0x18a2]
  === BLOCK LINK ===
    0x5cee
=== CODE BLOCK END ===

=== CODE BLOCK ADDRESS 0x5cee ===
  0x5cee	nop    	
  0x5cef	mov    	eax, edi
  0x5cf1	dec    	eax
  0x5cf2	add    	esp, 0x40
  0x5cf5	inc    	ecx
  === BLOCK LINK ===
    0x5cf6
=== CODE BLOCK END ===

=== CODE BLOCK ADDRESS 0x5cf6 ===
  0x5cf6	pop    	esi
  0x5cf7	pop    	edi
  0x5cf8	pop    	esi
  0x5cf9	pop    	ebx
  0x5cfa	pop    	ebp
  === BLOCK LINK ===
    0x5cfb
=== CODE BLOCK END ===

=== CODE BLOCK ADDRESS 0x5cfb ===
  0x5cfb	ret    	
  0x5cfc	int3   	
  0x5cfd	int3   	
  0x5cfe	int3   	
  0x5cff	int3   	
  === BLOCK LINK ===
    0x5d00
=== CODE BLOCK END ===

=== CODE BLOCK ADDRESS 0x5d00 ===
  0x5d00	int3   	
  0x5d01	int3   	
  0x5d02	int3   	
  0x5d03	int3   	
  0x5d04	int3   	
  === BLOCK LINK ===
    0x5d05
=== CODE BLOCK END ===

=== CODE BLOCK ADDRESS 0x5d05 ===
  0x5d05	int3   	
  0x5d06	int3   	
  0x5d07	int3   	
  0x5d08	jno    	0x5c93
  === BLOCK LINK ===
    0x5d0a
=== CODE BLOCK END ===

=== CODE BLOCK ADDRESS 0x5d0a ===
  0x5d0a	fstp   	dword ptr [eax + 0x11]
  0x5d0d	sahf   	
  0x5d0e	pushfd  	
  0x5d0f	stosd  	dword ptr es:[edi], eax
  0x5d10	dec    	eax
  === BLOCK LINK ===
    0x5d11
=== CODE BLOCK END ===

=== CODE BLOCK ADDRESS 0x5d11 ===
  0x5d11	mov    	dword ptr [esp + 8], ebx
  0x5d15	dec    	eax
  0x5d16	mov    	dword ptr [esp + 0x10], esi
  0x5d1a	push   	edi
  0x5d1b	dec    	eax
  === BLOCK LINK ===
    0x5d1c
=== CODE BLOCK END ===

=== CODE BLOCK ADDRESS 0x5d1c ===
  0x5d1c	sub    	esp, 0x20
  0x5d1f	dec    	eax
  0x5d20	mov    	esi, ecx
  0x5d22	inc    	ecx
  0x5d23	mov    	ebx, eax
  === BLOCK LINK ===
    0x5d25
=== CODE BLOCK END ===

=== CODE BLOCK ADDRESS 0x5d25 ===
  0x5d25	dec    	eax
  0x5d26	lea    	ecx, [0x1bdc]
  0x5d2c	dec    	eax
  0x5d2d	mov    	edi, edx
  0x5d2f	call   	dword ptr [0x15b3]
  === BLOCK LINK ===
    0x5d35
=== CODE BLOCK END ===

=== CODE BLOCK ADDRESS 0x5d35 ===
  0x5d35	dec    	eax
  0x5d36	mov    	ecx, eax
  0x5d38	dec    	eax
  0x5d39	lea    	edx, [0x1be9]
  0x5d3f	call   	dword ptr [0x15b3]
  === BLOCK LINK ===
    0x5d45
=== CODE BLOCK END ===

=== CODE BLOCK ADDRESS 0x5d45 ===
  0x5d45	dec    	eax
  0x5d46	test   	eax, eax
  0x5d48	je     	0x5d63
  === BLOCK LINK ===
    0x5d4a
=== CODE BLOCK END ===

=== CODE BLOCK ADDRESS 0x5d4a ===
  0x5d4a	dec    	ecx
  0x5d4b	mov    	edx, 0x58d98970
  0x5d50	adc    	dword ptr [esi - 0x74bb5464], ebx
  0x5d56	ret    	
  0x5d57	dec    	eax
  === BLOCK LINK ===
    0x5d58
=== CODE BLOCK END ===

=== CODE BLOCK ADDRESS 0x5d58 ===
  0x5d58	mov    	edx, edi
  0x5d5a	dec    	eax
  0x5d5b	mov    	ecx, esi
  0x5d5d	call   	dword ptr [0x182d]
  === BLOCK LINK ===
    0x5d63
=== CODE BLOCK END ===

=== CODE BLOCK ADDRESS 0x5d63 ===
  0x5d63	dec    	eax
  0x5d64	mov    	ebx, dword ptr [esp + 0x30]
  0x5d68	dec    	eax
  0x5d69	mov    	esi, dword ptr [esp + 0x38]
  0x5d6d	dec    	eax
  === BLOCK LINK ===
    0x5d6e
=== CODE BLOCK END ===

=== CODE BLOCK ADDRESS 0x5d6e ===
  0x5d6e	add    	esp, 0x20
  0x5d71	pop    	edi
  0x5d72	ret    	
  0x5d73	int3   	
  0x5d74	inc    	eax
  === BLOCK LINK ===
    0x5d75
=== CODE BLOCK END ===

=== CODE BLOCK ADDRESS 0x5d75 ===
  0x5d75	push   	ebx
  0x5d76	dec    	eax
  0x5d77	sub    	esp, 0xc0
  0x5d7d	dec    	eax
  0x5d7e	mov    	eax, dword ptr [0x4a8c]
  === BLOCK LINK ===
    0x5d84
=== CODE BLOCK END ===

=== CODE BLOCK ADDRESS 0x5d84 ===
  0x5d84	dec    	eax
  0x5d85	mov    	ebx, ecx
  0x5d87	dec    	eax
  0x5d88	test   	eax, eax
  0x5d8a	je     	0x5d9c
  === BLOCK LINK ===
    0x5d8c
=== CODE BLOCK END ===

=== CODE BLOCK ADDRESS 0x5d8c ===
  0x5d8c	dec    	ecx
  0x5d8d	mov    	edx, 0x325f8070
  0x5d92	xor    	cl, byte ptr [edi]
  0x5d94	jo     	0x5d63
  === BLOCK LINK ===
    0x5d96
=== CODE BLOCK END ===

=== CODE BLOCK ADDRESS 0x5d96 ===
  0x5d96	call   	dword ptr [0x17f4]
  === BLOCK LINK ===
    0x5d9c
=== CODE BLOCK END ===

=== CODE BLOCK ADDRESS 0x5d9c ===
  0x5d9c	dec    	eax
  0x5d9d	mov    	eax, dword ptr [0x4a45]
  0x5da3	dec    	eax
  0x5da4	test   	eax, eax
  0x5da6	je     	0x5dbb
  === BLOCK LINK ===
    0x5da8
=== CODE BLOCK END ===

=== CODE BLOCK ADDRESS 0x5da8 ===
  0x5da8	dec    	ecx
  0x5da9	mov    	edx, 0x3cd18a70
  0x5dae	mov    	bh, byte ptr [edi - 0x74b74c68]
  0x5db4	retf   	
  0x5db5	call   	dword ptr [0x17d5]
  === BLOCK LINK ===
    0x5dbb
=== CODE BLOCK END ===

=== CODE BLOCK ADDRESS 0x5dbb ===
  0x5dbb	xor    	edx, edx
  0x5dbd	dec    	eax
  0x5dbe	lea    	ecx, [esp + 0x20]
  0x5dc2	inc    	ecx
  0x5dc3	mov    	eax, 0x98
  === BLOCK LINK ===
    0x5dc8
=== CODE BLOCK END ===

=== CODE BLOCK ADDRESS 0x5dc8 ===
  0x5dc8	call   	0x20be
  === BLOCK LINK ===
    0x5dcd
=== CODE BLOCK END ===

=== CODE BLOCK ADDRESS 0x5dcd ===
  0x5dcd	dec    	eax
  0x5dce	mov    	ecx, dword ptr [ebx + 0x88]
  0x5dd4	inc    	ecx
  0x5dd5	mov    	eax, 1
  0x5dda	inc    	esp
  === BLOCK LINK ===
    0x5ddb
=== CODE BLOCK END ===

=== CODE BLOCK ADDRESS 0x5ddb ===
  0x5ddb	mov    	dword ptr [esp + 0x38], eax
  0x5ddf	mov    	dword ptr [esp + 0x20], 0xc0000409
  0x5de7	inc    	esp
  0x5de8	mov    	dword ptr [esp + 0x24], eax
  0x5dec	dec    	eax
  === BLOCK LINK ===
    0x5ded
=== CODE BLOCK END ===

=== CODE BLOCK ADDRESS 0x5ded ===
  0x5ded	mov    	dword ptr [esp + 0x40], 7
  0x5df5	dec    	eax
  0x5df6	test   	ecx, ecx
  0x5df8	jne    	0x5e05
  === BLOCK LINK ===
    0x5dfa
=== CODE BLOCK END ===

=== CODE BLOCK ADDRESS 0x5dfa ===
  0x5dfa	dec    	eax
  0x5dfb	lea    	ecx, [esp + 0x20]
  0x5dff	call   	0x5e34
  === BLOCK LINK ===
    0x5e04
=== CODE BLOCK END ===

=== CODE BLOCK ADDRESS 0x5e04 ===
  0x5e04	int3   	
  0x5e05	dec    	eax
  0x5e06	arpl   	word ptr [ebx + 8], ax
  0x5e09	inc    	ebp
  0x5e0a	xor    	eax, eax
  === BLOCK LINK ===
    0x5e0c
=== CODE BLOCK END ===

=== CODE BLOCK ADDRESS 0x5e0c ===
  0x5e0c	dec    	eax
  0x5e0d	mov    	dword ptr [esp + 0x48], eax
  0x5e11	mov    	eax, dword ptr [ebx + 0x40]
  0x5e14	dec    	eax
  0x5e15	mov    	dword ptr [esp + 0x30], ecx
  === BLOCK LINK ===
    0x5e19
=== CODE BLOCK END ===

=== CODE BLOCK ADDRESS 0x5e19 ===
  0x5e19	dec    	eax
  0x5e1a	lea    	ecx, [esp + 0x20]
  0x5e1e	dec    	eax
  0x5e1f	mov    	dword ptr [esp + 0x50], eax
  0x5e23	mov    	dword ptr [esp + 0x38], 3
  === BLOCK LINK ===
    0x5e2b
=== CODE BLOCK END ===

=== CODE BLOCK ADDRESS 0x5e2b ===
  0x5e2b	call   	0x5e34
  === BLOCK LINK ===
    0x5e30
=== CODE BLOCK END ===

=== CODE BLOCK ADDRESS 0x5e30 ===
  0x5e30	int3   	
  0x5e31	int3   	
  0x5e32	int3   	
  0x5e33	int3   	
  0x5e34	dec    	eax
  === BLOCK LINK ===
    0x5e35
=== CODE BLOCK END ===

=== CODE BLOCK ADDRESS 0x5e35 ===
  0x5e35	sub    	esp, 0x28
  0x5e38	dec    	eax
  0x5e39	mov    	eax, dword ptr [0x49c1]
  0x5e3f	dec    	eax
  0x5e40	test   	eax, eax
  === BLOCK LINK ===
    0x5e42
=== CODE BLOCK END ===

=== CODE BLOCK ADDRESS 0x5e42 ===
  0x5e42	je     	0x5e56
  === BLOCK LINK ===
    0x5e44
=== CODE BLOCK END ===

=== CODE BLOCK ADDRESS 0x5e44 ===
  0x5e44	dec    	ecx
  0x5e45	mov    	edx, 0x58d98970
  0x5e4a	adc    	dword ptr [esi - 0x2dcc5464], ebx
  0x5e50	call   	dword ptr [0x173a]
  === BLOCK LINK ===
    0x5e56
=== CODE BLOCK END ===

=== CODE BLOCK ADDRESS 0x5e56 ===
  0x5e56	mov    	ecx, 7
  0x5e5b	int    	0x29
  0x5e5d	dec    	eax
  0x5e5e	add    	esp, 0x28
  0x5e61	ret    	
  === BLOCK LINK ===
    0x5e62
=== CODE BLOCK END ===

=== CODE BLOCK ADDRESS 0x5e62 ===
  0x5e62	int3   	
  0x5e63	int3   	
  0x5e64	mov    	ecx, 7
  0x5e69	int    	0x29
  0x5e6b	ret    	
  === BLOCK LINK ===
    0x5e6c
=== CODE BLOCK END ===

=== CODE BLOCK ADDRESS 0x179e ===
  0x179e	dec    	eax
  0x179f	test   	edx, edx
  0x17a1	jne    	0x17a7
  === BLOCK LINK ===
    0x17a3
=== CODE BLOCK END ===

=== CODE BLOCK ADDRESS 0x5e6c ===
  0x5e6c	dec    	eax
  0x5e6d	sub    	esp, 0x48
  0x5e70	dec    	eax
  0x5e71	mov    	dword ptr [esp + 0x30], 0xfffffffe
  0x5e79	dec    	eax
  === BLOCK LINK ===
    0x5e7a
=== CODE BLOCK END ===

=== CODE BLOCK ADDRESS 0x5e7a ===
  0x5e7a	mov    	eax, dword ptr [esp + 0x48]
  0x5e7e	dec    	eax
  0x5e7f	mov    	dword ptr [esp + 0x28], eax
  0x5e83	call   	0x2204
  === BLOCK LINK ===
    0x5e88
=== CODE BLOCK END ===

=== CODE BLOCK ADDRESS 0x5e88 ===
  0x5e88	int3   	
  0x5e89	int3   	
  0x5e8a	int3   	
  0x5e8b	int3   	
  0x5e8c	dec    	eax
  === BLOCK LINK ===
    0x5e8d
=== CODE BLOCK END ===

=== CODE BLOCK ADDRESS 0x5e8d ===
  0x5e8d	mov    	eax, esp
  0x5e8f	dec    	eax
  0x5e90	mov    	dword ptr [eax + 8], ebx
  0x5e93	dec    	eax
  0x5e94	mov    	dword ptr [eax + 0x10], ebp
  === BLOCK LINK ===
    0x5e97
=== CODE BLOCK END ===

=== CODE BLOCK ADDRESS 0x5e97 ===
  0x5e97	dec    	eax
  0x5e98	mov    	dword ptr [eax + 0x18], esi
  0x5e9b	dec    	eax
  0x5e9c	mov    	dword ptr [eax + 0x20], edi
  0x5e9f	inc    	ecx
  === BLOCK LINK ===
    0x5ea0
=== CODE BLOCK END ===

=== CODE BLOCK ADDRESS 0x5ea0 ===
  0x5ea0	push   	esi
  0x5ea1	dec    	eax
  0x5ea2	sub    	esp, 0x30
  0x5ea5	dec    	eax
  0x5ea6	mov    	esi, ecx
  === BLOCK LINK ===
    0x5ea8
=== CODE BLOCK END ===

=== CODE BLOCK ADDRESS 0x5ea8 ===
  0x5ea8	mov    	dword ptr [eax - 0x10], 0x1f0003
  0x5eaf	xor    	ebx, ebx
  0x5eb1	xor    	ecx, ecx
  0x5eb3	mov    	dword ptr [eax - 0x18], ebx
  0x5eb6	call   	dword ptr [0x14f4]
  === BLOCK LINK ===
    0x5ebc
=== CODE BLOCK END ===

=== CODE BLOCK ADDRESS 0x5ebc ===
  0x5ebc	dec    	esp
  0x5ebd	mov    	esi, eax
  0x5ebf	dec    	eax
  0x5ec0	test   	eax, eax
  0x5ec2	je     	0x5eee
  === BLOCK LINK ===
    0x5ec4
=== CODE BLOCK END ===

=== CODE BLOCK ADDRESS 0x5ec4 ===
  0x5ec4	dec    	eax
  0x5ec5	mov    	edi, dword ptr [esi]
  0x5ec7	dec    	eax
  0x5ec8	test   	edi, edi
  0x5eca	je     	0x5ee9
  === BLOCK LINK ===
    0x5ecc
=== CODE BLOCK END ===

=== CODE BLOCK ADDRESS 0x5ecc ===
  0x5ecc	call   	dword ptr [0x13be]
  === BLOCK LINK ===
    0x5ed2
=== CODE BLOCK END ===

=== CODE BLOCK ADDRESS 0x5ed2 ===
  0x5ed2	dec    	eax
  0x5ed3	mov    	ecx, edi
  0x5ed5	mov    	ebp, eax
  0x5ed7	call   	dword ptr [0x13c3]
  === BLOCK LINK ===
    0x5edd
=== CODE BLOCK END ===

=== CODE BLOCK ADDRESS 0x5edd ===
  0x5edd	test   	eax, eax
  0x5edf	je     	0x5f12
  === BLOCK LINK ===
    0x5ee1
=== CODE BLOCK END ===

=== CODE BLOCK ADDRESS 0x5ee1 ===
  0x5ee1	mov    	ecx, ebp
  0x5ee3	call   	dword ptr [0x139f]
  === BLOCK LINK ===
    0x5ee9
=== CODE BLOCK END ===

=== CODE BLOCK ADDRESS 0x5ee9 ===
  0x5ee9	dec    	esp
  0x5eea	mov    	dword ptr [esi], esi
  0x5eec	jmp    	0x5ef5
  === BLOCK LINK ===
    0x5eee
=== CODE BLOCK END ===

=== CODE BLOCK ADDRESS 0x5eee ===
  0x5eee	call   	0x3a60
  === BLOCK LINK ===
    0x5ef3
=== CODE BLOCK END ===

=== CODE BLOCK ADDRESS 0x5ef3 ===
  0x5ef3	mov    	ebx, eax
  0x5ef5	dec    	eax
  0x5ef6	mov    	ebp, dword ptr [esp + 0x48]
  0x5efa	mov    	eax, ebx
  0x5efc	dec    	eax
  === BLOCK LINK ===
    0x5efd
=== CODE BLOCK END ===

=== CODE BLOCK ADDRESS 0x5efd ===
  0x5efd	mov    	ebx, dword ptr [esp + 0x40]
  0x5f01	dec    	eax
  0x5f02	mov    	esi, dword ptr [esp + 0x50]
  0x5f06	dec    	eax
  0x5f07	mov    	edi, dword ptr [esp + 0x58]
  === BLOCK LINK ===
    0x5f0b
=== CODE BLOCK END ===

=== CODE BLOCK ADDRESS 0x5f0b ===
  0x5f0b	dec    	eax
  0x5f0c	add    	esp, 0x30
  0x5f0f	inc    	ecx
  0x5f10	pop    	esi
  0x5f11	ret    	
  === BLOCK LINK ===
    0x5f12
=== CODE BLOCK END ===

=== CODE BLOCK ADDRESS 0x177b ===
  0x177b	dec    	eax
  0x177c	mov    	dword ptr [esp], edx
  0x177f	dec    	ecx
  === BLOCK LINK ===
    0x1780
=== CODE BLOCK END ===

=== CODE BLOCK ADDRESS 0x5f12 ===
  0x5f12	dec    	eax
  0x5f13	mov    	ecx, dword ptr [esp + 0x38]
  0x5f17	mov    	edx, 0x937
  0x5f1c	call   	0x5e6c
  === BLOCK LINK ===
    0x5f21
=== CODE BLOCK END ===

=== CODE BLOCK ADDRESS 0x5f21 ===
  0x5f21	int3   	
  0x5f22	int3   	
  0x5f23	int3   	
  0x5f24	dec    	eax
  0x5f25	mov    	eax, esp
  === BLOCK LINK ===
    0x5f27
=== CODE BLOCK END ===

=== CODE BLOCK ADDRESS 0x5f27 ===
  0x5f27	dec    	eax
  0x5f28	mov    	dword ptr [eax + 8], ebx
  0x5f2b	dec    	eax
  0x5f2c	mov    	dword ptr [eax + 0x10], ebp
  0x5f2f	dec    	eax
  === BLOCK LINK ===
    0x5f30
=== CODE BLOCK END ===

=== CODE BLOCK ADDRESS 0x5f30 ===
  0x5f30	mov    	dword ptr [eax + 0x18], esi
  0x5f33	dec    	eax
  0x5f34	mov    	dword ptr [eax + 0x20], edi
  0x5f37	inc    	ecx
  0x5f38	push   	esi
  === BLOCK LINK ===
    0x5f39
=== CODE BLOCK END ===

=== CODE BLOCK ADDRESS 0x5f39 ===
  0x5f39	dec    	eax
  0x5f3a	sub    	esp, 0x20
  0x5f3d	dec    	ecx
  0x5f3e	mov    	ebp, eax
  0x5f40	dec    	esp
  === BLOCK LINK ===
    0x5f41
=== CODE BLOCK END ===

=== CODE BLOCK ADDRESS 0x5f41 ===
  0x5f41	mov    	esi, edx
  0x5f43	dec    	eax
  0x5f44	mov    	edi, ecx
  0x5f46	dec    	ebp
  0x5f47	test   	eax, eax
  === BLOCK LINK ===
    0x5f49
=== CODE BLOCK END ===

=== CODE BLOCK ADDRESS 0x5f49 ===
  0x5f49	jne    	0x5f85
  === BLOCK LINK ===
    0x5f4b
=== CODE BLOCK END ===

=== CODE BLOCK ADDRESS 0x5f4b ===
  0x5f4b	dec    	eax
  0x5f4c	mov    	ecx, dword ptr [ecx]
  0x5f4e	dec    	eax
  0x5f4f	test   	ecx, ecx
  0x5f51	je     	0x5ff6
  === BLOCK LINK ===
    0x5f57
=== CODE BLOCK END ===

=== CODE BLOCK ADDRESS 0x5f57 ===
  0x5f57	or     	eax, 0xffffffff
  0x5f5a	lock xadd  	dword ptr [ecx], eax
  0x5f5e	cmp    	eax, 1
  0x5f61	jne    	0x5f7a
  === BLOCK LINK ===
    0x5f63
=== CODE BLOCK END ===

=== CODE BLOCK ADDRESS 0x5f63 ===
  0x5f63	dec    	eax
  0x5f64	mov    	ebx, dword ptr [edi]
  0x5f66	call   	dword ptr [0x1354]
  === BLOCK LINK ===
    0x5f6c
=== CODE BLOCK END ===

=== CODE BLOCK ADDRESS 0x5f6c ===
  0x5f6c	dec    	esp
  0x5f6d	mov    	eax, ebx
  0x5f6f	xor    	edx, edx
  0x5f71	dec    	eax
  0x5f72	mov    	ecx, eax
  === BLOCK LINK ===
    0x5f74
=== CODE BLOCK END ===

=== CODE BLOCK ADDRESS 0x5f74 ===
  0x5f74	call   	dword ptr [0x1336]
  === BLOCK LINK ===
    0x5f7a
=== CODE BLOCK END ===

=== CODE BLOCK ADDRESS 0x5f7a ===
  0x5f7a	dec    	eax
  0x5f7b	and    	dword ptr [edi], 0
  0x5f7e	dec    	eax
  0x5f7f	and    	dword ptr [edi + 8], 0
  0x5f83	jmp    	0x5ff6
  === BLOCK LINK ===
    0x5f85
=== CODE BLOCK END ===

=== CODE BLOCK ADDRESS 0x5f85 ===
  0x5f85	call   	dword ptr [0x1335]
  === BLOCK LINK ===
    0x5f8b
=== CODE BLOCK END ===

=== CODE BLOCK ADDRESS 0x5f8b ===
  0x5f8b	dec    	esp
  0x5f8c	lea    	eax, [ebp + 4]
  0x5f8f	xor    	edx, edx
  0x5f91	dec    	eax
  0x5f92	mov    	ecx, eax
  === BLOCK LINK ===
    0x5f94
=== CODE BLOCK END ===

=== CODE BLOCK ADDRESS 0x5f94 ===
  0x5f94	call   	dword ptr [0x131e]
  === BLOCK LINK ===
    0x5f9a
=== CODE BLOCK END ===

=== CODE BLOCK ADDRESS 0x5f9a ===
  0x5f9a	dec    	eax
  0x5f9b	mov    	esi, eax
  0x5f9d	dec    	eax
  0x5f9e	test   	eax, eax
  0x5fa0	je     	0x5ff8
  === BLOCK LINK ===
    0x5fa2
=== CODE BLOCK END ===

=== CODE BLOCK ADDRESS 0x5fa2 ===
  0x5fa2	and    	dword ptr [eax], 0
  0x5fa5	dec    	ebp
  0x5fa6	test   	esi, esi
  0x5fa8	je     	0x5fbc
  === BLOCK LINK ===
    0x5faa
=== CODE BLOCK END ===

=== CODE BLOCK ADDRESS 0x5faa ===
  0x5faa	dec    	eax
  0x5fab	lea    	ecx, [eax + 4]
  0x5fae	dec    	esp
  0x5faf	mov    	ecx, ebp
  0x5fb1	dec    	ebp
  === BLOCK LINK ===
    0x5fb2
=== CODE BLOCK END ===

=== CODE BLOCK ADDRESS 0x5fb2 ===
  0x5fb2	mov    	eax, esi
  0x5fb4	dec    	eax
  0x5fb5	mov    	edx, ebp
  0x5fb7	call   	0x60f4
  === BLOCK LINK ===
    0x5fbc
=== CODE BLOCK END ===

=== CODE BLOCK ADDRESS 0x5fbc ===
  0x5fbc	dec    	eax
  0x5fbd	mov    	ecx, dword ptr [edi]
  0x5fbf	dec    	eax
  0x5fc0	test   	ecx, ecx
  0x5fc2	je     	0x5fec
  === BLOCK LINK ===
    0x5fc4
=== CODE BLOCK END ===

=== CODE BLOCK ADDRESS 0x5fc4 ===
  0x5fc4	or     	eax, 0xffffffff
  0x5fc7	lock xadd  	dword ptr [ecx], eax
  0x5fcb	cmp    	eax, 1
  0x5fce	jne    	0x5fe7
  === BLOCK LINK ===
    0x5fd0
=== CODE BLOCK END ===

=== CODE BLOCK ADDRESS 0x5fd0 ===
  0x5fd0	dec    	eax
  0x5fd1	mov    	ebx, dword ptr [edi]
  0x5fd3	call   	dword ptr [0x12e7]
  === BLOCK LINK ===
    0x5fd9
=== CODE BLOCK END ===

=== CODE BLOCK ADDRESS 0x5fd9 ===
  0x5fd9	dec    	esp
  0x5fda	mov    	eax, ebx
  0x5fdc	xor    	edx, edx
  0x5fde	dec    	eax
  0x5fdf	mov    	ecx, eax
  === BLOCK LINK ===
    0x5fe1
=== CODE BLOCK END ===

=== CODE BLOCK ADDRESS 0x5fe1 ===
  0x5fe1	call   	dword ptr [0x12c9]
  === BLOCK LINK ===
    0x5fe7
=== CODE BLOCK END ===

=== CODE BLOCK ADDRESS 0x5fe7 ===
  0x5fe7	dec    	eax
  0x5fe8	and    	dword ptr [edi + 8], 0
  0x5fec	dec    	eax
  0x5fed	mov    	dword ptr [edi], esi
  0x5fef	dec    	eax
  === BLOCK LINK ===
    0x5ff0
=== CODE BLOCK END ===

=== CODE BLOCK ADDRESS 0x5ff0 ===
  0x5ff0	mov    	dword ptr [edi + 8], ebp
  0x5ff3	lock inc  	dword ptr [esi]
  0x5ff6	mov    	al, 1
  0x5ff8	dec    	eax
  0x5ff9	mov    	ebx, dword ptr [esp + 0x30]
  === BLOCK LINK ===
    0x5ffd
=== CODE BLOCK END ===

=== CODE BLOCK ADDRESS 0x5ffd ===
  0x5ffd	dec    	eax
  0x5ffe	mov    	ebp, dword ptr [esp + 0x38]
  0x6002	dec    	eax
  0x6003	mov    	esi, dword ptr [esp + 0x40]
  0x6007	dec    	eax
  === BLOCK LINK ===
    0x6008
=== CODE BLOCK END ===

=== CODE BLOCK ADDRESS 0x6008 ===
  0x6008	mov    	edi, dword ptr [esp + 0x48]
  0x600c	dec    	eax
  0x600d	add    	esp, 0x20
  0x6010	inc    	ecx
  0x6011	pop    	esi
  === BLOCK LINK ===
    0x6012
=== CODE BLOCK END ===

=== CODE BLOCK ADDRESS 0x6012 ===
  0x6012	ret    	
  0x6013	int3   	
  0x6014	int3   	
  0x6015	int3   	
  0x6016	int3   	
  === BLOCK LINK ===
    0x6017
=== CODE BLOCK END ===

=== CODE BLOCK ADDRESS 0x6017 ===
  0x6017	int3   	
  0x6018	jno    	0x6033
  === BLOCK LINK ===
    0x601a
=== CODE BLOCK END ===

=== CODE BLOCK ADDRESS 0x601a ===
  0x601a	push   	eax
  0x601b	push   	esi
  0x601c	stosd  	dword ptr es:[edi], eax
  0x601d	lahf   	
  0x601e	insd   	dword ptr es:[edi], dx
  === BLOCK LINK ===
    0x601f
=== CODE BLOCK END ===

=== CODE BLOCK ADDRESS 0x601f ===
  0x601f	in     	eax, 0x40
  0x6021	push   	ebx
  0x6022	mov    	eax, 0x1430
  0x6027	call   	0x6a90
  === BLOCK LINK ===
    0x602c
=== CODE BLOCK END ===

=== CODE BLOCK ADDRESS 0x602c ===
  0x602c	dec    	eax
  0x602d	sub    	esp, eax
  0x602f	dec    	eax
  0x6030	mov    	eax, dword ptr [0x40aa]
  0x6036	dec    	eax
  === BLOCK LINK ===
    0x6037
=== CODE BLOCK END ===

=== CODE BLOCK ADDRESS 0x6037 ===
  0x6037	xor    	eax, esp
  0x6039	dec    	eax
  0x603a	mov    	dword ptr [esp + 0x1420], eax
  0x6041	dec    	eax
  0x6042	lea    	ebx, [ecx + 0xc0]
  === BLOCK LINK ===
    0x6048
=== CODE BLOCK END ===

=== CODE BLOCK ADDRESS 0x6048 ===
  0x6048	dec    	eax
  0x6049	cmp    	dword ptr [ebx], 0
  0x604c	jne    	0x60a5
  === BLOCK LINK ===
    0x604e
=== CODE BLOCK END ===

=== CODE BLOCK ADDRESS 0x604e ===
  0x604e	dec    	esp
  0x604f	lea    	eax, [ecx + 0x18]
  0x6052	mov    	edx, 0x800
  0x6057	dec    	eax
  0x6058	lea    	ecx, [esp + 0x420]
  === BLOCK LINK ===
    0x605f
=== CODE BLOCK END ===

=== CODE BLOCK ADDRESS 0x605f ===
  0x605f	call   	0x372c
  === BLOCK LINK ===
    0x6064
=== CODE BLOCK END ===

=== CODE BLOCK ADDRESS 0x6064 ===
  0x6064	dec    	esp
  0x6065	lea    	ecx, [esp + 0x420]
  0x606c	mov    	edx, 0x400
  0x6071	dec    	esp
  0x6072	lea    	eax, [0x18c8]
  === BLOCK LINK ===
    0x6078
=== CODE BLOCK END ===

=== CODE BLOCK ADDRESS 0x6078 ===
  0x6078	dec    	eax
  0x6079	lea    	ecx, [esp + 0x20]
  0x607d	call   	0x56cc
  === BLOCK LINK ===
    0x6082
=== CODE BLOCK END ===

=== CODE BLOCK ADDRESS 0x6082 ===
  0x6082	dec    	eax
  0x6083	lea    	eax, [esp + 0x20]
  0x6087	dec    	ecx
  0x6088	or     	eax, 0xffffffff
  0x608b	dec    	ecx
  === BLOCK LINK ===
    0x608c
=== CODE BLOCK END ===

=== CODE BLOCK ADDRESS 0x608c ===
  0x608c	inc    	eax
  0x608e	inc    	edx
  0x608f	cmp    	byte ptr [eax + eax], 0
  0x6093	jne    	0x608b
  === BLOCK LINK ===
    0x6095
=== CODE BLOCK END ===

=== CODE BLOCK ADDRESS 0x6095 ===
  0x6095	dec    	ecx
  0x6096	inc    	eax
  0x6098	dec    	eax
  0x6099	lea    	edx, [esp + 0x20]
  0x609d	dec    	eax
  === BLOCK LINK ===
    0x609e
=== CODE BLOCK END ===

=== CODE BLOCK ADDRESS 0x609e ===
  0x609e	mov    	ecx, ebx
  0x60a0	call   	0x5f24
  === BLOCK LINK ===
    0x60a5
=== CODE BLOCK END ===

=== CODE BLOCK ADDRESS 0x60a5 ===
  0x60a5	dec    	eax
  0x60a6	mov    	eax, dword ptr [ebx]
  0x60a8	dec    	eax
  0x60a9	lea    	ecx, [eax + 4]
  0x60ac	dec    	eax
  === BLOCK LINK ===
    0x60ad
=== CODE BLOCK END ===

=== CODE BLOCK ADDRESS 0x60ad ===
  0x60ad	neg    	eax
  0x60af	dec    	eax
  0x60b0	sbb    	eax, eax
  0x60b2	dec    	eax
  0x60b3	and    	eax, ecx
  === BLOCK LINK ===
    0x60b5
=== CODE BLOCK END ===

=== CODE BLOCK ADDRESS 0x60b5 ===
  0x60b5	dec    	eax
  0x60b6	mov    	ecx, dword ptr [esp + 0x1420]
  0x60bd	dec    	eax
  0x60be	xor    	ecx, esp
  0x60c0	call   	0x1450
  === BLOCK LINK ===
    0x60c5
=== CODE BLOCK END ===

=== CODE BLOCK ADDRESS 0x60c5 ===
  0x60c5	dec    	eax
  0x60c6	add    	esp, 0x1430
  0x60cc	pop    	ebx
  0x60cd	ret    	
  0x60ce	int3   	
  === BLOCK LINK ===
    0x60cf
=== CODE BLOCK END ===

=== CODE BLOCK ADDRESS 0x17bb ===
  0x17bb	dec    	eax
  0x17bc	add    	esp, 0x18
  0x17bf	ret    	
  0x17c0	inc    	eax
  === BLOCK LINK ===
    0x17c1
=== CODE BLOCK END ===

=== CODE BLOCK ADDRESS 0x60cf ===
  0x60cf	int3   	
  0x60d0	int3   	
  0x60d1	int3   	
  0x60d2	int3   	
  0x60d3	int3   	
  === BLOCK LINK ===
    0x60d4
=== CODE BLOCK END ===

=== CODE BLOCK ADDRESS 0x60d4 ===
  0x60d4	int3   	
  0x60d5	int3   	
  0x60d6	int3   	
  0x60d7	int3   	
  0x60d8	jno    	0x60f3
  === BLOCK LINK ===
    0x60da
=== CODE BLOCK END ===

=== CODE BLOCK ADDRESS 0x60da ===
  0x60da	push   	eax
  0x60db	push   	esi
  0x60dc	stosd  	dword ptr es:[edi], eax
  0x60dd	lahf   	
  0x60de	insd   	dword ptr es:[edi], dx
  === BLOCK LINK ===
    0x60df
=== CODE BLOCK END ===

=== CODE BLOCK ADDRESS 0x60df ===
  0x60df	in     	eax, 0x48
  0x60e1	cmp    	dword ptr [ecx + 8], 0
  0x60e5	dec    	eax
  0x60e6	lea    	eax, [0x169c]
  0x60ec	dec    	eax
  === BLOCK LINK ===
    0x60ed
=== CODE BLOCK END ===

=== CODE BLOCK ADDRESS 0x60ed ===
  0x60ed	cmovne  	eax, dword ptr [ecx + 8]
  0x60f1	ret    	
  0x60f2	int3   	
  0x60f3	int3   	
  0x60f4	dec    	eax
  === BLOCK LINK ===
    0x60f5
=== CODE BLOCK END ===

=== CODE BLOCK ADDRESS 0x60f5 ===
  0x60f5	mov    	dword ptr [esp + 8], ebx
  0x60f9	dec    	eax
  0x60fa	mov    	dword ptr [esp + 0x10], esi
  0x60fe	push   	edi
  0x60ff	dec    	eax
  === BLOCK LINK ===
    0x6100
=== CODE BLOCK END ===

=== CODE BLOCK ADDRESS 0x6100 ===
  0x6100	sub    	esp, 0x20
  0x6103	dec    	ecx
  0x6104	mov    	ebx, ecx
  0x6106	dec    	ecx
  0x6107	mov    	esi, eax
  === BLOCK LINK ===
    0x6109
=== CODE BLOCK END ===

=== CODE BLOCK ADDRESS 0x6109 ===
  0x6109	dec    	eax
  0x610a	mov    	edi, edx
  0x610c	dec    	ebp
  0x610d	test   	ecx, ecx
  0x610f	jne    	0x6115
  === BLOCK LINK ===
    0x6111
=== CODE BLOCK END ===

=== CODE BLOCK ADDRESS 0x6111 ===
  0x6111	xor    	eax, eax
  0x6113	jmp    	0x616d
  === BLOCK LINK ===
    0x6115
=== CODE BLOCK END ===

=== CODE BLOCK ADDRESS 0x6115 ===
  0x6115	dec    	eax
  0x6116	test   	ecx, ecx
  0x6118	jne    	0x6130
  === BLOCK LINK ===
    0x611a
=== CODE BLOCK END ===

=== CODE BLOCK ADDRESS 0x611a ===
  0x611a	call   	dword ptr [0x1328]
  === BLOCK LINK ===
    0x6120
=== CODE BLOCK END ===

=== CODE BLOCK ADDRESS 0x6120 ===
  0x6120	mov    	ebx, 0x16
  0x6125	mov    	dword ptr [eax], ebx
  0x6127	call   	0x205e
  === BLOCK LINK ===
    0x612c
=== CODE BLOCK END ===

=== CODE BLOCK ADDRESS 0x612c ===
  0x612c	mov    	eax, ebx
  0x612e	jmp    	0x616d
  === BLOCK LINK ===
    0x6130
=== CODE BLOCK END ===

=== CODE BLOCK ADDRESS 0x6130 ===
  0x6130	dec    	eax
  0x6131	test   	esi, esi
  0x6133	je     	0x6147
  === BLOCK LINK ===
    0x6135
=== CODE BLOCK END ===

=== CODE BLOCK ADDRESS 0x6135 ===
  0x6135	dec    	eax
  0x6136	cmp    	edi, ebx
  0x6138	jb     	0x6147
  === BLOCK LINK ===
    0x613a
=== CODE BLOCK END ===

=== CODE BLOCK ADDRESS 0x613a ===
  0x613a	dec    	esp
  0x613b	mov    	eax, ebx
  0x613d	dec    	eax
  0x613e	mov    	edx, esi
  0x6140	call   	0x6ade
  === BLOCK LINK ===
    0x6145
=== CODE BLOCK END ===

=== CODE BLOCK ADDRESS 0x6145 ===
  0x6145	jmp    	0x6111
  === BLOCK LINK ===
    0x6147
=== CODE BLOCK END ===

=== CODE BLOCK ADDRESS 0x6147 ===
  0x6147	dec    	esp
  0x6148	mov    	eax, edi
  0x614a	xor    	edx, edx
  0x614c	call   	0x20be
  === BLOCK LINK ===
    0x6151
=== CODE BLOCK END ===

=== CODE BLOCK ADDRESS 0x6151 ===
  0x6151	dec    	eax
  0x6152	test   	esi, esi
  0x6154	je     	0x611a
  === BLOCK LINK ===
    0x6156
=== CODE BLOCK END ===

=== CODE BLOCK ADDRESS 0x6156 ===
  0x6156	dec    	eax
  0x6157	cmp    	edi, ebx
  0x6159	jae    	0x6168
  === BLOCK LINK ===
    0x615b
=== CODE BLOCK END ===

=== CODE BLOCK ADDRESS 0x615b ===
  0x615b	call   	dword ptr [0x12e7]
  === BLOCK LINK ===
    0x6161
=== CODE BLOCK END ===

=== CODE BLOCK ADDRESS 0x6161 ===
  0x6161	mov    	ebx, 0x22
  0x6166	jmp    	0x6125
  === BLOCK LINK ===
    0x6168
=== CODE BLOCK END ===

=== CODE BLOCK ADDRESS 0x6168 ===
  0x6168	mov    	eax, 0x16
  0x616d	dec    	eax
  0x616e	mov    	ebx, dword ptr [esp + 0x30]
  0x6172	dec    	eax
  0x6173	mov    	esi, dword ptr [esp + 0x38]
  === BLOCK LINK ===
    0x6177
=== CODE BLOCK END ===

=== CODE BLOCK ADDRESS 0x6177 ===
  0x6177	dec    	eax
  0x6178	add    	esp, 0x20
  0x617b	pop    	edi
  0x617c	ret    	
  0x617d	int3   	
  === BLOCK LINK ===
    0x617e
=== CODE BLOCK END ===

=== CODE BLOCK ADDRESS 0x617e ===
  0x617e	int3   	
  0x617f	int3   	
  0x6180	dec    	eax
  0x6181	mov    	eax, esp
  0x6183	push   	ebp
  === BLOCK LINK ===
    0x6184
=== CODE BLOCK END ===

=== CODE BLOCK ADDRESS 0x6184 ===
  0x6184	inc    	ecx
  0x6185	push   	esi
  0x6186	inc    	ecx
  0x6187	push   	edi
  0x6188	dec    	eax
  === BLOCK LINK ===
    0x6189
=== CODE BLOCK END ===

=== CODE BLOCK ADDRESS 0x6189 ===
  0x6189	lea    	ebp, [eax - 0x5f]
  0x618c	dec    	eax
  0x618d	sub    	esp, 0xa0
  0x6193	dec    	eax
  0x6194	mov    	dword ptr [ebp + 0x17], 0xfffffffe
  === BLOCK LINK ===
    0x619b
=== CODE BLOCK END ===

=== CODE BLOCK ADDRESS 0x619b ===
  0x619b	dec    	eax
  0x619c	mov    	dword ptr [eax + 8], ebx
  0x619f	dec    	eax
  0x61a0	mov    	dword ptr [eax + 0x18], esi
  0x61a3	dec    	eax
  === BLOCK LINK ===
    0x61a4
=== CODE BLOCK END ===

=== CODE BLOCK ADDRESS 0x61a4 ===
  0x61a4	mov    	dword ptr [eax + 0x20], edi
  0x61a7	dec    	eax
  0x61a8	mov    	eax, dword ptr [0x3f32]
  0x61ae	dec    	eax
  0x61af	xor    	eax, esp
  === BLOCK LINK ===
    0x61b1
=== CODE BLOCK END ===

=== CODE BLOCK ADDRESS 0x61b1 ===
  0x61b1	dec    	eax
  0x61b2	mov    	dword ptr [ebp + 0x3f], eax
  0x61b5	dec    	eax
  0x61b6	mov    	edi, edx
  0x61b8	mov    	esi, ecx
  === BLOCK LINK ===
    0x61ba
=== CODE BLOCK END ===

=== CODE BLOCK ADDRESS 0x61ba ===
  0x61ba	xor    	edx, edx
  0x61bc	xor    	ecx, ecx
  0x61be	call   	dword ptr [0x107c]
  === BLOCK LINK ===
    0x61c4
=== CODE BLOCK END ===

=== CODE BLOCK ADDRESS 0x61c4 ===
  0x61c4	mov    	ebx, eax
  0x61c6	inc    	ebp
  0x61c7	xor    	edi, edi
  0x61c9	test   	eax, eax
  0x61cb	jns    	0x61eb
  === BLOCK LINK ===
    0x61cd
=== CODE BLOCK END ===

=== CODE BLOCK ADDRESS 0x61cd ===
  0x61cd	dec    	eax
  0x61ce	mov    	ecx, dword ptr [ebp + 0x5f]
  0x61d1	inc    	esp
  0x61d2	mov    	ecx, eax
  0x61d4	dec    	esp
  === BLOCK LINK ===
    0x61d5
=== CODE BLOCK END ===

=== CODE BLOCK ADDRESS 0x61d5 ===
  0x61d5	lea    	eax, [0x183d]
  0x61db	inc    	ecx
  0x61dc	lea    	edx, [edi + 0x2a]
  0x61df	call   	0x4c34
  === BLOCK LINK ===
    0x61e4
=== CODE BLOCK END ===

=== CODE BLOCK ADDRESS 0x61e4 ===
  0x61e4	mov    	eax, ebx
  0x61e6	jmp    	0x690f
  === BLOCK LINK ===
    0x61eb
=== CODE BLOCK END ===

=== CODE BLOCK ADDRESS 0x61eb ===
  0x61eb	cmp    	esi, 3
  0x61ee	jne    	0x674f
  === BLOCK LINK ===
    0x61f4
=== CODE BLOCK END ===

=== CODE BLOCK ADDRESS 0x61f4 ===
  0x61f4	dec    	eax
  0x61f5	lea    	edx, [0x1855]
  0x61fb	dec    	eax
  0x61fc	mov    	ecx, dword ptr [edi + 8]
  0x61ff	call   	dword ptr [0x12ab]
  === BLOCK LINK ===
    0x6205
=== CODE BLOCK END ===

=== CODE BLOCK ADDRESS 0x6205 ===
  0x6205	test   	eax, eax
  0x6207	jne    	0x65eb
  === BLOCK LINK ===
    0x620d
=== CODE BLOCK END ===

=== CODE BLOCK ADDRESS 0x620d ===
  0x620d	dec    	eax
  0x620e	mov    	esi, dword ptr [edi + 0x10]
  0x6211	dec    	esp
  0x6212	mov    	dword ptr [ebp - 0x19], edi
  0x6215	dec    	esp
  === BLOCK LINK ===
    0x6216
=== CODE BLOCK END ===

=== CODE BLOCK ADDRESS 0x6216 ===
  0x6216	mov    	dword ptr [ebp + 7], edi
  0x6219	dec    	esp
  0x621a	mov    	dword ptr [ebp + 0x37], edi
  0x621d	dec    	esp
  0x621e	lea    	ecx, [ebp + 0x37]
  === BLOCK LINK ===
    0x6221
=== CODE BLOCK END ===

=== CODE BLOCK ADDRESS 0x6221 ===
  0x6221	dec    	esp
  0x6222	lea    	eax, [ebp + 0x1f]
  0x6225	lea    	edx, [eax + 0x2c]
  0x6228	dec    	eax
  0x6229	lea    	ecx, [0x18b1]
  === BLOCK LINK ===
    0x622f
=== CODE BLOCK END ===

=== CODE BLOCK ADDRESS 0x622f ===
  0x622f	call   	dword ptr [0x11db]
  === BLOCK LINK ===
    0x6235
=== CODE BLOCK END ===

=== CODE BLOCK ADDRESS 0x6235 ===
  0x6235	test   	eax, eax
  0x6237	js     	0x6943
  === BLOCK LINK ===
    0x623d
=== CODE BLOCK END ===

=== CODE BLOCK ADDRESS 0x623d ===
  0x623d	dec    	eax
  0x623e	mov    	ebx, dword ptr [ebp + 0x37]
  0x6241	dec    	eax
  0x6242	mov    	ecx, dword ptr [ebp - 0x19]
  0x6245	dec    	eax
  === BLOCK LINK ===
    0x6246
=== CODE BLOCK END ===

=== CODE BLOCK ADDRESS 0x6246 ===
  0x6246	test   	ecx, ecx
  0x6248	je     	0x6266
  === BLOCK LINK ===
    0x624a
=== CODE BLOCK END ===

=== CODE BLOCK ADDRESS 0x624a ===
  0x624a	dec    	esp
  0x624b	mov    	dword ptr [ebp - 0x19], edi
  0x624e	dec    	eax
  0x624f	mov    	eax, dword ptr [ecx]
  0x6251	dec    	ecx
  === BLOCK LINK ===
    0x6252
=== CODE BLOCK END ===

=== CODE BLOCK ADDRESS 0x6252 ===
  0x6252	mov    	edx, 0x365eb170
  0x6257	adc    	byte ptr [edi], bl
  0x6259	lodsb  	al, byte ptr [esi]
  0x625a	mov    	edx, 0x10408b48
  0x625f	call   	dword ptr [0x132b]
  === BLOCK LINK ===
    0x6265
=== CODE BLOCK END ===

=== CODE BLOCK ADDRESS 0x6265 ===
  0x6265	nop    	
  0x6266	dec    	esp
  0x6267	mov    	dword ptr [ebp - 0x19], edi
  0x626a	dec    	eax
  0x626b	lea    	edx, [ebp - 1]
  === BLOCK LINK ===
    0x626e
=== CODE BLOCK END ===

=== CODE BLOCK ADDRESS 0x626e ===
  0x626e	dec    	eax
  0x626f	mov    	ecx, ebx
  0x6271	call   	dword ptr [0x1189]
  === BLOCK LINK ===
    0x6277
=== CODE BLOCK END ===

=== CODE BLOCK ADDRESS 0x6277 ===
  0x6277	mov    	edi, eax
  0x6279	test   	eax, eax
  0x627b	js     	0x62e9
  === BLOCK LINK ===
    0x627d
=== CODE BLOCK END ===

=== CODE BLOCK ADDRESS 0x627d ===
  0x627d	dec    	eax
  0x627e	mov    	ecx, dword ptr [0x18cc]
  0x6284	dec    	eax
  0x6285	cmp    	ecx, dword ptr [0x18e5]
  0x628b	jne    	0x62a7
  === BLOCK LINK ===
    0x628d
=== CODE BLOCK END ===

=== CODE BLOCK ADDRESS 0x628d ===
  0x628d	dec    	eax
  0x628e	mov    	ecx, dword ptr [0x18c4]
  0x6294	dec    	eax
  0x6295	cmp    	ecx, dword ptr [0x18dd]
  0x629b	jne    	0x62a7
  === BLOCK LINK ===
    0x629d
=== CODE BLOCK END ===

=== CODE BLOCK ADDRESS 0x629d ===
  0x629d	dec    	eax
  0x629e	mov    	ebx, dword ptr [ebp - 1]
  0x62a1	dec    	eax
  0x62a2	mov    	dword ptr [ebp - 0x19], ebx
  0x62a5	jmp    	0x62ed
  === BLOCK LINK ===
    0x62a7
=== CODE BLOCK END ===

=== CODE BLOCK ADDRESS 0x62a7 ===
  0x62a7	dec    	eax
  0x62a8	mov    	ecx, dword ptr [ebp - 1]
  0x62ab	dec    	eax
  0x62ac	mov    	eax, dword ptr [ecx]
  0x62ae	dec    	ecx
  === BLOCK LINK ===
    0x62af
=== CODE BLOCK END ===

=== CODE BLOCK ADDRESS 0x62af ===
  0x62af	mov    	edx, 0x74d59970
  0x62b4	jns    	0x62d4
  === BLOCK LINK ===
    0x62b6
=== CODE BLOCK END ===

=== CODE BLOCK ADDRESS 0x62b6 ===
  0x62b6	loopne  	0x6296
  === BLOCK LINK ===
    0x62b8
=== CODE BLOCK END ===

=== CODE BLOCK ADDRESS 0x62b8 ===
  0x62b8	dec    	esp
  0x62b9	lea    	eax, [ebp - 0x19]
  0x62bc	dec    	eax
  0x62bd	lea    	edx, [0x188d]
  0x62c3	dec    	eax
  === BLOCK LINK ===
    0x62c4
=== CODE BLOCK END ===

=== CODE BLOCK ADDRESS 0x62c4 ===
  0x62c4	mov    	eax, dword ptr [eax]
  0x62c6	call   	dword ptr [0x12c4]
  === BLOCK LINK ===
    0x62cc
=== CODE BLOCK END ===

=== CODE BLOCK ADDRESS 0x62cc ===
  0x62cc	mov    	edi, eax
  0x62ce	dec    	eax
  0x62cf	mov    	ecx, dword ptr [ebp - 1]
  0x62d2	dec    	eax
  0x62d3	mov    	eax, dword ptr [ecx]
  === BLOCK LINK ===
    0x62d5
=== CODE BLOCK END ===

=== CODE BLOCK ADDRESS 0x62d5 ===
  0x62d5	dec    	ecx
  0x62d6	mov    	edx, 0x365eb170
  0x62db	adc    	byte ptr [edi], bl
  0x62dd	lodsb  	al, byte ptr [esi]
  0x62de	mov    	edx, 0x10408b48
  === BLOCK LINK ===
    0x62e3
=== CODE BLOCK END ===

=== CODE BLOCK ADDRESS 0x62e3 ===
  0x62e3	call   	dword ptr [0x12a7]
  === BLOCK LINK ===
    0x62e9
=== CODE BLOCK END ===

=== CODE BLOCK ADDRESS 0x62e9 ===
  0x62e9	dec    	eax
  0x62ea	mov    	ebx, dword ptr [ebp - 0x19]
  0x62ed	test   	edi, edi
  0x62ef	jns    	0x6336
  === BLOCK LINK ===
    0x62f1
=== CODE BLOCK END ===

=== CODE BLOCK ADDRESS 0x62f1 ===
  0x62f1	dec    	eax
  0x62f2	mov    	ecx, dword ptr [ebp + 0x5f]
  0x62f5	inc    	esp
  0x62f6	mov    	ecx, edi
  0x62f8	dec    	esp
  === BLOCK LINK ===
    0x62f9
=== CODE BLOCK END ===

=== CODE BLOCK ADDRESS 0x62f9 ===
  0x62f9	lea    	eax, [0x1719]
  0x62ff	mov    	edx, 0x3b
  0x6304	call   	0x4c34
  === BLOCK LINK ===
    0x6309
=== CODE BLOCK END ===

=== CODE BLOCK ADDRESS 0x6309 ===
  0x6309	nop    	
  0x630a	dec    	eax
  0x630b	mov    	ecx, dword ptr [ebp - 0x19]
  0x630e	dec    	eax
  0x630f	test   	ecx, ecx
  === BLOCK LINK ===
    0x6311
=== CODE BLOCK END ===

=== CODE BLOCK ADDRESS 0x6311 ===
  0x6311	je     	0x632f
  === BLOCK LINK ===
    0x6313
=== CODE BLOCK END ===

=== CODE BLOCK ADDRESS 0x6313 ===
  0x6313	dec    	esp
  0x6314	mov    	dword ptr [ebp - 0x19], edi
  0x6317	dec    	eax
  0x6318	mov    	eax, dword ptr [ecx]
  0x631a	dec    	ecx
  === BLOCK LINK ===
    0x631b
=== CODE BLOCK END ===

=== CODE BLOCK ADDRESS 0x631b ===
  0x631b	mov    	edx, 0x365eb170
  0x6320	adc    	byte ptr [edi], bl
  0x6322	lodsb  	al, byte ptr [esi]
  0x6323	mov    	edx, 0x10408b48
  0x6328	call   	dword ptr [0x1262]
  === BLOCK LINK ===
    0x632e
=== CODE BLOCK END ===

=== CODE BLOCK ADDRESS 0x632e ===
  0x632e	nop    	
  0x632f	mov    	eax, edi
  0x6331	jmp    	0x690f
  === BLOCK LINK ===
    0x6336
=== CODE BLOCK END ===

=== CODE BLOCK ADDRESS 0x6336 ===
  0x6336	dec    	esp
  0x6337	mov    	dword ptr [ebp - 9], edi
  0x633a	dec    	eax
  0x633b	mov    	eax, dword ptr [ebx]
  0x633d	dec    	eax
  === BLOCK LINK ===
    0x633e
=== CODE BLOCK END ===

=== CODE BLOCK ADDRESS 0x633e ===
  0x633e	mov    	edi, dword ptr [eax + 0x50]
  0x6341	dec    	esp
  0x6342	mov    	dword ptr [ebp + 0x37], edi
  0x6345	dec    	eax
  0x6346	or     	eax, 0xffffffff
  === BLOCK LINK ===
    0x6349
=== CODE BLOCK END ===

=== CODE BLOCK ADDRESS 0x6349 ===
  0x6349	dec    	eax
  0x634a	inc    	eax
  0x634c	inc    	sp
  0x634e	cmp    	dword ptr [esi + eax*2], edi
  0x6351	jne    	0x6349
  === BLOCK LINK ===
    0x6353
=== CODE BLOCK END ===

=== CODE BLOCK ADDRESS 0x6353 ===
  0x6353	mov    	ecx, 0xffffffff
  0x6358	dec    	eax
  0x6359	cmp    	eax, ecx
  0x635b	ja     	0x695e
  === BLOCK LINK ===
    0x6361
=== CODE BLOCK END ===

=== CODE BLOCK ADDRESS 0x6361 ===
  0x6361	lea    	edx, [eax + 1]
  0x6364	cmp    	edx, eax
  0x6366	jb     	0x6953
  === BLOCK LINK ===
    0x636c
=== CODE BLOCK END ===

=== CODE BLOCK ADDRESS 0x636c ===
  0x636c	dec    	esp
  0x636d	lea    	ecx, [ebp + 0x37]
  0x6370	dec    	esp
  0x6371	lea    	eax, [ebp + 0x1f]
  0x6374	mov    	edx, eax
  === BLOCK LINK ===
    0x6376
=== CODE BLOCK END ===

=== CODE BLOCK ADDRESS 0x6376 ===
  0x6376	dec    	eax
  0x6377	mov    	ecx, esi
  0x6379	call   	dword ptr [0x1091]
  === BLOCK LINK ===
    0x637f
=== CODE BLOCK END ===

=== CODE BLOCK ADDRESS 0x637f ===
  0x637f	test   	eax, eax
  0x6381	js     	0x694b
  === BLOCK LINK ===
    0x6387
=== CODE BLOCK END ===

=== CODE BLOCK ADDRESS 0x6387 ===
  0x6387	dec    	ecx
  0x6388	mov    	edx, 0x5edf5070
  0x638d	outsb  	dx, byte ptr [esi]
  0x638e	aaa    	
  0x638f	pop    	esp
  === BLOCK LINK ===
    0x6390
=== CODE BLOCK END ===

=== CODE BLOCK ADDRESS 0x6390 ===
  0x6390	movsb  	byte ptr es:[edi], byte ptr [esi]
  0x6391	dec    	esp
  0x6392	lea    	eax, [ebp - 9]
  0x6395	dec    	eax
  0x6396	mov    	edx, dword ptr [ebp + 0x37]
  === BLOCK LINK ===
    0x6399
=== CODE BLOCK END ===

=== CODE BLOCK ADDRESS 0x6399 ===
  0x6399	dec    	eax
  0x639a	mov    	ecx, ebx
  0x639c	dec    	eax
  0x639d	mov    	eax, edi
  0x639f	call   	dword ptr [0x11eb]
  === BLOCK LINK ===
    0x63a5
=== CODE BLOCK END ===

=== CODE BLOCK ADDRESS 0x63a5 ===
  0x63a5	mov    	ebx, eax
  0x63a7	test   	eax, eax
  0x63a9	jns    	0x6413
  === BLOCK LINK ===
    0x63ab
=== CODE BLOCK END ===

=== CODE BLOCK ADDRESS 0x63ab ===
  0x63ab	dec    	eax
  0x63ac	mov    	ecx, dword ptr [ebp + 0x5f]
  0x63af	inc    	esp
  0x63b0	mov    	ecx, eax
  0x63b2	dec    	esp
  === BLOCK LINK ===
    0x63b3
=== CODE BLOCK END ===

=== CODE BLOCK ADDRESS 0x63b3 ===
  0x63b3	lea    	eax, [0x165f]
  0x63b9	mov    	edx, 0x3e
  0x63be	call   	0x4c34
  === BLOCK LINK ===
    0x63c3
=== CODE BLOCK END ===

=== CODE BLOCK ADDRESS 0x63c3 ===
  0x63c3	nop    	
  0x63c4	dec    	eax
  0x63c5	mov    	ecx, dword ptr [ebp - 9]
  0x63c8	dec    	eax
  0x63c9	test   	ecx, ecx
  === BLOCK LINK ===
    0x63cb
=== CODE BLOCK END ===

=== CODE BLOCK ADDRESS 0x63cb ===
  0x63cb	je     	0x63e9
  === BLOCK LINK ===
    0x63cd
=== CODE BLOCK END ===

=== CODE BLOCK ADDRESS 0x63cd ===
  0x63cd	dec    	esp
  0x63ce	mov    	dword ptr [ebp - 9], edi
  0x63d1	dec    	eax
  0x63d2	mov    	eax, dword ptr [ecx]
  0x63d4	dec    	ecx
  === BLOCK LINK ===
    0x63d5
=== CODE BLOCK END ===

=== CODE BLOCK ADDRESS 0x63d5 ===
  0x63d5	mov    	edx, 0x365eb170
  0x63da	adc    	byte ptr [edi], bl
  0x63dc	lodsb  	al, byte ptr [esi]
  0x63dd	mov    	edx, 0x10408b48
  0x63e2	call   	dword ptr [0x11a8]
  === BLOCK LINK ===
    0x63e8
=== CODE BLOCK END ===

=== CODE BLOCK ADDRESS 0x63e8 ===
  0x63e8	nop    	
  0x63e9	dec    	eax
  0x63ea	mov    	ecx, dword ptr [ebp - 0x19]
  0x63ed	dec    	eax
  0x63ee	test   	ecx, ecx
  === BLOCK LINK ===
    0x63f0
=== CODE BLOCK END ===

=== CODE BLOCK ADDRESS 0x63f0 ===
  0x63f0	je     	0x640e
  === BLOCK LINK ===
    0x63f2
=== CODE BLOCK END ===

=== CODE BLOCK ADDRESS 0x63f2 ===
  0x63f2	dec    	esp
  0x63f3	mov    	dword ptr [ebp - 0x19], edi
  0x63f6	dec    	eax
  0x63f7	mov    	eax, dword ptr [ecx]
  0x63f9	dec    	ecx
  === BLOCK LINK ===
    0x63fa
=== CODE BLOCK END ===

=== CODE BLOCK ADDRESS 0x63fa ===
  0x63fa	mov    	edx, 0x365eb170
  0x63ff	adc    	byte ptr [edi], bl
  0x6401	lodsb  	al, byte ptr [esi]
  0x6402	mov    	edx, 0x10408b48
  0x6407	call   	dword ptr [0x1183]
  === BLOCK LINK ===
    0x640d
=== CODE BLOCK END ===

=== CODE BLOCK ADDRESS 0x640d ===
  0x640d	nop    	
  0x640e	jmp    	0x61e4
  === BLOCK LINK ===
    0x6413
=== CODE BLOCK END ===

=== CODE BLOCK ADDRESS 0x6413 ===
  0x6413	dec    	esp
  0x6414	mov    	dword ptr [ebp - 0x11], edi
  0x6417	dec    	eax
  0x6418	mov    	ecx, dword ptr [ebp - 0x19]
  0x641b	dec    	eax
  === BLOCK LINK ===
    0x641c
=== CODE BLOCK END ===

=== CODE BLOCK ADDRESS 0x641c ===
  0x641c	mov    	eax, dword ptr [ecx]
  0x641e	dec    	ecx
  0x641f	mov    	edx, 0x765aa270
  0x6424	or     	dword ptr [edi], 0xffffffe0
  0x6427	or     	byte ptr [ebp + ecx*4 + 0x45], 0xef
  === BLOCK LINK ===
    0x642c
=== CODE BLOCK END ===

=== CODE BLOCK ADDRESS 0x642c ===
  0x642c	dec    	eax
  0x642d	mov    	edx, dword ptr [ebp - 9]
  0x6430	dec    	eax
  0x6431	mov    	eax, dword ptr [eax + 0x90]
  0x6437	call   	dword ptr [0x1153]
  === BLOCK LINK ===
    0x643d
=== CODE BLOCK END ===

=== CODE BLOCK ADDRESS 0x643d ===
  0x643d	mov    	ebx, eax
  0x643f	test   	eax, eax
  0x6441	jns    	0x64d4
  === BLOCK LINK ===
    0x6447
=== CODE BLOCK END ===

=== CODE BLOCK ADDRESS 0x6447 ===
  0x6447	dec    	eax
  0x6448	mov    	ecx, dword ptr [ebp + 0x5f]
  0x644b	inc    	esp
  0x644c	mov    	ecx, eax
  0x644e	dec    	esp
  === BLOCK LINK ===
    0x644f
=== CODE BLOCK END ===

=== CODE BLOCK ADDRESS 0x644f ===
  0x644f	lea    	eax, [0x15c3]
  0x6455	mov    	edx, 0x41
  0x645a	call   	0x4c34
  === BLOCK LINK ===
    0x645f
=== CODE BLOCK END ===

=== CODE BLOCK ADDRESS 0x645f ===
  0x645f	nop    	
  0x6460	dec    	eax
  0x6461	mov    	ecx, dword ptr [ebp - 0x11]
  0x6464	dec    	eax
  0x6465	test   	ecx, ecx
  === BLOCK LINK ===
    0x6467
=== CODE BLOCK END ===

=== CODE BLOCK ADDRESS 0x6467 ===
  0x6467	je     	0x6485
  === BLOCK LINK ===
    0x6469
=== CODE BLOCK END ===

=== CODE BLOCK ADDRESS 0x6469 ===
  0x6469	dec    	esp
  0x646a	mov    	dword ptr [ebp - 0x11], edi
  0x646d	dec    	eax
  0x646e	mov    	eax, dword ptr [ecx]
  0x6470	dec    	ecx
  === BLOCK LINK ===
    0x6471
=== CODE BLOCK END ===

=== CODE BLOCK ADDRESS 0x6471 ===
  0x6471	mov    	edx, 0x365eb170
  0x6476	adc    	byte ptr [edi], bl
  0x6478	lodsb  	al, byte ptr [esi]
  0x6479	mov    	edx, 0x10408b48
  0x647e	call   	dword ptr [0x110c]
  === BLOCK LINK ===
    0x6484
=== CODE BLOCK END ===

=== CODE BLOCK ADDRESS 0x6484 ===
  0x6484	nop    	
  0x6485	dec    	eax
  0x6486	mov    	ecx, dword ptr [ebp - 9]
  0x6489	dec    	eax
  0x648a	test   	ecx, ecx
  === BLOCK LINK ===
    0x648c
=== CODE BLOCK END ===

=== CODE BLOCK ADDRESS 0x648c ===
  0x648c	je     	0x64aa
  === BLOCK LINK ===
    0x648e
=== CODE BLOCK END ===

=== CODE BLOCK ADDRESS 0x648e ===
  0x648e	dec    	esp
  0x648f	mov    	dword ptr [ebp - 9], edi
  0x6492	dec    	eax
  0x6493	mov    	eax, dword ptr [ecx]
  0x6495	dec    	ecx
  === BLOCK LINK ===
    0x6496
=== CODE BLOCK END ===

=== CODE BLOCK ADDRESS 0x6496 ===
  0x6496	mov    	edx, 0x365eb170
  0x649b	adc    	byte ptr [edi], bl
  0x649d	lodsb  	al, byte ptr [esi]
  0x649e	mov    	edx, 0x10408b48
  0x64a3	call   	dword ptr [0x10e7]
  === BLOCK LINK ===
    0x64a9
=== CODE BLOCK END ===

=== CODE BLOCK ADDRESS 0x64a9 ===
  0x64a9	nop    	
  0x64aa	dec    	eax
  0x64ab	mov    	ecx, dword ptr [ebp - 0x19]
  0x64ae	dec    	eax
  0x64af	test   	ecx, ecx
  === BLOCK LINK ===
    0x64b1
=== CODE BLOCK END ===

=== CODE BLOCK ADDRESS 0x64b1 ===
  0x64b1	je     	0x64cf
  === BLOCK LINK ===
    0x64b3
=== CODE BLOCK END ===

=== CODE BLOCK ADDRESS 0x64b3 ===
  0x64b3	dec    	esp
  0x64b4	mov    	dword ptr [ebp - 0x19], edi
  0x64b7	dec    	eax
  0x64b8	mov    	eax, dword ptr [ecx]
  0x64ba	dec    	ecx
  === BLOCK LINK ===
    0x64bb
=== CODE BLOCK END ===

=== CODE BLOCK ADDRESS 0x64bb ===
  0x64bb	mov    	edx, 0x365eb170
  0x64c0	adc    	byte ptr [edi], bl
  0x64c2	lodsb  	al, byte ptr [esi]
  0x64c3	mov    	edx, 0x10408b48
  0x64c8	call   	dword ptr [0x10c2]
  === BLOCK LINK ===
    0x64ce
=== CODE BLOCK END ===

=== CODE BLOCK ADDRESS 0x64ce ===
  0x64ce	nop    	
  0x64cf	jmp    	0x61e4
  === BLOCK LINK ===
    0x64d4
=== CODE BLOCK END ===

=== CODE BLOCK ADDRESS 0x64d4 ===
  0x64d4	dec    	eax
  0x64d5	mov    	edx, dword ptr [ebp - 0x11]
  0x64d8	call   	0x5a70
  === BLOCK LINK ===
    0x64dd
=== CODE BLOCK END ===

=== CODE BLOCK ADDRESS 0x64dd ===
  0x64dd	mov    	ebx, eax
  0x64df	test   	eax, eax
  0x64e1	jns    	0x6574
  === BLOCK LINK ===
    0x64e7
=== CODE BLOCK END ===

=== CODE BLOCK ADDRESS 0x64e7 ===
  0x64e7	dec    	eax
  0x64e8	mov    	ecx, dword ptr [ebp + 0x5f]
  0x64eb	inc    	esp
  0x64ec	mov    	ecx, eax
  0x64ee	dec    	esp
  === BLOCK LINK ===
    0x64ef
=== CODE BLOCK END ===

=== CODE BLOCK ADDRESS 0x64ef ===
  0x64ef	lea    	eax, [0x1523]
  0x64f5	mov    	edx, 0x42
  0x64fa	call   	0x4c34
  === BLOCK LINK ===
    0x64ff
=== CODE BLOCK END ===

=== CODE BLOCK ADDRESS 0x64ff ===
  0x64ff	nop    	
  0x6500	dec    	eax
  0x6501	mov    	ecx, dword ptr [ebp - 0x11]
  0x6504	dec    	eax
  0x6505	test   	ecx, ecx
  === BLOCK LINK ===
    0x6507
=== CODE BLOCK END ===

=== CODE BLOCK ADDRESS 0x6507 ===
  0x6507	je     	0x6525
  === BLOCK LINK ===
    0x6509
=== CODE BLOCK END ===

=== CODE BLOCK ADDRESS 0x6509 ===
  0x6509	dec    	esp
  0x650a	mov    	dword ptr [ebp - 0x11], edi
  0x650d	dec    	eax
  0x650e	mov    	eax, dword ptr [ecx]
  0x6510	dec    	ecx
  === BLOCK LINK ===
    0x6511
=== CODE BLOCK END ===

=== CODE BLOCK ADDRESS 0x6511 ===
  0x6511	mov    	edx, 0x365eb170
  0x6516	adc    	byte ptr [edi], bl
  0x6518	lodsb  	al, byte ptr [esi]
  0x6519	mov    	edx, 0x10408b48
  0x651e	call   	dword ptr [0x106c]
  === BLOCK LINK ===
    0x6524
=== CODE BLOCK END ===

=== CODE BLOCK ADDRESS 0x6524 ===
  0x6524	nop    	
  0x6525	dec    	eax
  0x6526	mov    	ecx, dword ptr [ebp - 9]
  0x6529	dec    	eax
  0x652a	test   	ecx, ecx
  === BLOCK LINK ===
    0x652c
=== CODE BLOCK END ===

=== CODE BLOCK ADDRESS 0x652c ===
  0x652c	je     	0x654a
  === BLOCK LINK ===
    0x652e
=== CODE BLOCK END ===

=== CODE BLOCK ADDRESS 0x652e ===
  0x652e	dec    	esp
  0x652f	mov    	dword ptr [ebp - 9], edi
  0x6532	dec    	eax
  0x6533	mov    	eax, dword ptr [ecx]
  0x6535	dec    	ecx
  === BLOCK LINK ===
    0x6536
=== CODE BLOCK END ===

=== CODE BLOCK ADDRESS 0x6536 ===
  0x6536	mov    	edx, 0x365eb170
  0x653b	adc    	byte ptr [edi], bl
  0x653d	lodsb  	al, byte ptr [esi]
  0x653e	mov    	edx, 0x10408b48
  0x6543	call   	dword ptr [0x1047]
  === BLOCK LINK ===
    0x6549
=== CODE BLOCK END ===

=== CODE BLOCK ADDRESS 0x6549 ===
  0x6549	nop    	
  0x654a	dec    	eax
  0x654b	mov    	ecx, dword ptr [ebp - 0x19]
  0x654e	dec    	eax
  0x654f	test   	ecx, ecx
  === BLOCK LINK ===
    0x6551
=== CODE BLOCK END ===

=== CODE BLOCK ADDRESS 0x6551 ===
  0x6551	je     	0x656f
  === BLOCK LINK ===
    0x6553
=== CODE BLOCK END ===

=== CODE BLOCK ADDRESS 0x6553 ===
  0x6553	dec    	esp
  0x6554	mov    	dword ptr [ebp - 0x19], edi
  0x6557	dec    	eax
  0x6558	mov    	eax, dword ptr [ecx]
  0x655a	dec    	ecx
  === BLOCK LINK ===
    0x655b
=== CODE BLOCK END ===

=== CODE BLOCK ADDRESS 0x655b ===
  0x655b	mov    	edx, 0x365eb170
  0x6560	adc    	byte ptr [edi], bl
  0x6562	lodsb  	al, byte ptr [esi]
  0x6563	mov    	edx, 0x10408b48
  0x6568	call   	dword ptr [0x1022]
  === BLOCK LINK ===
    0x656e
=== CODE BLOCK END ===

=== CODE BLOCK ADDRESS 0x656e ===
  0x656e	nop    	
  0x656f	jmp    	0x61e4
  === BLOCK LINK ===
    0x6574
=== CODE BLOCK END ===

=== CODE BLOCK ADDRESS 0x6574 ===
  0x6574	dec    	eax
  0x6575	mov    	ecx, dword ptr [ebp - 0x11]
  0x6578	dec    	eax
  0x6579	test   	ecx, ecx
  0x657b	je     	0x6599
  === BLOCK LINK ===
    0x657d
=== CODE BLOCK END ===

=== CODE BLOCK ADDRESS 0x657d ===
  0x657d	dec    	esp
  0x657e	mov    	dword ptr [ebp - 0x11], edi
  0x6581	dec    	eax
  0x6582	mov    	eax, dword ptr [ecx]
  0x6584	dec    	ecx
  === BLOCK LINK ===
    0x6585
=== CODE BLOCK END ===

=== CODE BLOCK ADDRESS 0x6585 ===
  0x6585	mov    	edx, 0x365eb170
  0x658a	adc    	byte ptr [edi], bl
  0x658c	lodsb  	al, byte ptr [esi]
  0x658d	mov    	edx, 0x10408b48
  0x6592	call   	dword ptr [0xff8]
  === BLOCK LINK ===
    0x6598
=== CODE BLOCK END ===

=== CODE BLOCK ADDRESS 0x6598 ===
  0x6598	nop    	
  0x6599	dec    	eax
  0x659a	mov    	ecx, dword ptr [ebp - 9]
  0x659d	dec    	eax
  0x659e	test   	ecx, ecx
  === BLOCK LINK ===
    0x65a0
=== CODE BLOCK END ===

=== CODE BLOCK ADDRESS 0x65a0 ===
  0x65a0	je     	0x65be
  === BLOCK LINK ===
    0x65a2
=== CODE BLOCK END ===

=== CODE BLOCK ADDRESS 0x65a2 ===
  0x65a2	dec    	esp
  0x65a3	mov    	dword ptr [ebp - 9], edi
  0x65a6	dec    	eax
  0x65a7	mov    	eax, dword ptr [ecx]
  0x65a9	dec    	ecx
  === BLOCK LINK ===
    0x65aa
=== CODE BLOCK END ===

=== CODE BLOCK ADDRESS 0x65aa ===
  0x65aa	mov    	edx, 0x365eb170
  0x65af	adc    	byte ptr [edi], bl
  0x65b1	lodsb  	al, byte ptr [esi]
  0x65b2	mov    	edx, 0x10408b48
  0x65b7	call   	dword ptr [0xfd3]
  === BLOCK LINK ===
    0x65bd
=== CODE BLOCK END ===

=== CODE BLOCK ADDRESS 0x65bd ===
  0x65bd	nop    	
  0x65be	dec    	eax
  0x65bf	mov    	ecx, dword ptr [ebp - 0x19]
  0x65c2	dec    	eax
  0x65c3	test   	ecx, ecx
  === BLOCK LINK ===
    0x65c5
=== CODE BLOCK END ===

=== CODE BLOCK ADDRESS 0x65c5 ===
  0x65c5	je     	0x674a
  === BLOCK LINK ===
    0x65cb
=== CODE BLOCK END ===

=== CODE BLOCK ADDRESS 0x65cb ===
  0x65cb	dec    	esp
  0x65cc	mov    	dword ptr [ebp - 0x19], edi
  0x65cf	dec    	eax
  0x65d0	mov    	eax, dword ptr [ecx]
  0x65d2	dec    	ecx
  === BLOCK LINK ===
    0x65d3
=== CODE BLOCK END ===

=== CODE BLOCK ADDRESS 0x65d3 ===
  0x65d3	mov    	edx, 0x365eb170
  0x65d8	adc    	byte ptr [edi], bl
  0x65da	lodsb  	al, byte ptr [esi]
  0x65db	mov    	edx, 0x10408b48
  0x65e0	call   	dword ptr [0xfaa]
  === BLOCK LINK ===
    0x65e6
=== CODE BLOCK END ===

=== CODE BLOCK ADDRESS 0x65e6 ===
  0x65e6	jmp    	0x674a
  === BLOCK LINK ===
    0x65eb
=== CODE BLOCK END ===

=== CODE BLOCK ADDRESS 0x65eb ===
  0x65eb	dec    	esp
  0x65ec	mov    	dword ptr [ebp - 0x11], edi
  0x65ef	dec    	eax
  0x65f0	lea    	eax, [ebp - 0x11]
  0x65f3	dec    	eax
  === BLOCK LINK ===
    0x65f4
=== CODE BLOCK END ===

=== CODE BLOCK ADDRESS 0x65f4 ===
  0x65f4	mov    	dword ptr [esp + 0x20], eax
  0x65f8	dec    	esp
  0x65f9	lea    	ecx, [0x1581]
  0x65ff	xor    	edx, edx
  0x6601	inc    	esp
  === BLOCK LINK ===
    0x6602
=== CODE BLOCK END ===

=== CODE BLOCK ADDRESS 0x6602 ===
  0x6602	lea    	eax, [edx + 4]
  0x6605	dec    	eax
  0x6606	lea    	ecx, [0x1594]
  0x660c	call   	dword ptr [0xc1e]
  === BLOCK LINK ===
    0x6612
=== CODE BLOCK END ===

=== CODE BLOCK ADDRESS 0x6612 ===
  0x6612	mov    	ebx, eax
  0x6614	test   	eax, eax
  0x6616	jns    	0x665b
  === BLOCK LINK ===
    0x6618
=== CODE BLOCK END ===

=== CODE BLOCK ADDRESS 0x6618 ===
  0x6618	dec    	eax
  0x6619	mov    	ecx, dword ptr [ebp + 0x5f]
  0x661c	inc    	esp
  0x661d	mov    	ecx, eax
  0x661f	dec    	esp
  === BLOCK LINK ===
    0x6620
=== CODE BLOCK END ===

=== CODE BLOCK ADDRESS 0x6620 ===
  0x6620	lea    	eax, [0x13f2]
  0x6626	mov    	edx, 0x47
  0x662b	call   	0x4c34
  === BLOCK LINK ===
    0x6630
=== CODE BLOCK END ===

=== CODE BLOCK ADDRESS 0x6630 ===
  0x6630	nop    	
  0x6631	dec    	eax
  0x6632	mov    	ecx, dword ptr [ebp - 0x11]
  0x6635	dec    	eax
  0x6636	test   	ecx, ecx
  === BLOCK LINK ===
    0x6638
=== CODE BLOCK END ===

=== CODE BLOCK ADDRESS 0x6638 ===
  0x6638	je     	0x6656
  === BLOCK LINK ===
    0x663a
=== CODE BLOCK END ===

=== CODE BLOCK ADDRESS 0x663a ===
  0x663a	dec    	esp
  0x663b	mov    	dword ptr [ebp - 0x11], edi
  0x663e	dec    	eax
  0x663f	mov    	eax, dword ptr [ecx]
  0x6641	dec    	ecx
  === BLOCK LINK ===
    0x6642
=== CODE BLOCK END ===

=== CODE BLOCK ADDRESS 0x6642 ===
  0x6642	mov    	edx, 0x365eb170
  0x6647	adc    	byte ptr [edi], bl
  0x6649	lodsb  	al, byte ptr [esi]
  0x664a	mov    	edx, 0x10408b48
  0x664f	call   	dword ptr [0xf3b]
  === BLOCK LINK ===
    0x6655
=== CODE BLOCK END ===

=== CODE BLOCK ADDRESS 0x6655 ===
  0x6655	nop    	
  0x6656	jmp    	0x61e4
  === BLOCK LINK ===
    0x665b
=== CODE BLOCK END ===

=== CODE BLOCK ADDRESS 0x665b ===
  0x665b	dec    	eax
  0x665c	mov    	eax, dword ptr [edi + 0x10]
  0x665f	inc    	ecx
  0x6660	mov    	esi, edi
  0x6662	cmp    	word ptr [eax], 0x31
  === BLOCK LINK ===
    0x6666
=== CODE BLOCK END ===

=== CODE BLOCK ADDRESS 0x6666 ===
  0x6666	inc    	eax
  0x6667	sete   	dh
  0x666a	dec    	eax
  0x666b	mov    	ebx, dword ptr [ebp - 0x11]
  0x666e	dec    	eax
  === BLOCK LINK ===
    0x666f
=== CODE BLOCK END ===

=== CODE BLOCK ADDRESS 0x666f ===
  0x666f	mov    	eax, dword ptr [ebx]
  0x6671	dec    	esp
  0x6672	mov    	esi, dword ptr [eax + 0x20]
  0x6675	dec    	esp
  0x6676	mov    	dword ptr [ebp + 0x37], edi
  === BLOCK LINK ===
    0x6679
=== CODE BLOCK END ===

=== CODE BLOCK ADDRESS 0x6679 ===
  0x6679	dec    	esp
  0x667a	mov    	edx, dword ptr [edi + 8]
  0x667d	dec    	eax
  0x667e	or     	eax, 0xffffffff
  0x6681	dec    	eax
  === BLOCK LINK ===
    0x6682
=== CODE BLOCK END ===

=== CODE BLOCK ADDRESS 0x6682 ===
  0x6682	inc    	eax
  0x6684	inc    	bp
  0x6686	cmp    	dword ptr [edx + eax*2], edi
  0x6689	jne    	0x6681
  === BLOCK LINK ===
    0x668b
=== CODE BLOCK END ===

=== CODE BLOCK ADDRESS 0x668b ===
  0x668b	mov    	ecx, 0xffffffff
  0x6690	dec    	eax
  0x6691	cmp    	eax, ecx
  0x6693	ja     	0x6938
  === BLOCK LINK ===
    0x6699
=== CODE BLOCK END ===

=== CODE BLOCK ADDRESS 0x6699 ===
  0x6699	lea    	edx, [eax + 1]
  0x669c	cmp    	edx, eax
  0x669e	jb     	0x6971
  === BLOCK LINK ===
    0x66a4
=== CODE BLOCK END ===

=== CODE BLOCK ADDRESS 0x66a4 ===
  0x66a4	dec    	esp
  0x66a5	lea    	ecx, [ebp + 0x37]
  0x66a8	dec    	esp
  0x66a9	lea    	eax, [ebp + 0x1f]
  0x66ac	mov    	edx, eax
  === BLOCK LINK ===
    0x66ae
=== CODE BLOCK END ===

=== CODE BLOCK ADDRESS 0x66ae ===
  0x66ae	dec    	ecx
  0x66af	mov    	ecx, edx
  0x66b1	call   	dword ptr [0xd59]
  === BLOCK LINK ===
    0x66b7
=== CODE BLOCK END ===

=== CODE BLOCK ADDRESS 0x66b7 ===
  0x66b7	test   	eax, eax
  0x66b9	js     	0x6969
  === BLOCK LINK ===
    0x66bf
=== CODE BLOCK END ===

=== CODE BLOCK ADDRESS 0x66bf ===
  0x66bf	dec    	ecx
  0x66c0	mov    	edx, 0x36529970
  0x66c5	ret    	0xf1a6
  0x66c8	mov    	dl, 0x44
  0x66ca	mov    	eax, esi
  === BLOCK LINK ===
    0x66cc
=== CODE BLOCK END ===

=== CODE BLOCK ADDRESS 0x66cc ===
  0x66cc	dec    	eax
  0x66cd	mov    	edx, dword ptr [ebp + 0x37]
  0x66d0	dec    	eax
  0x66d1	mov    	ecx, ebx
  0x66d3	dec    	ecx
  === BLOCK LINK ===
    0x66d4
=== CODE BLOCK END ===

=== CODE BLOCK ADDRESS 0x66d4 ===
  0x66d4	mov    	eax, esi
  0x66d6	call   	dword ptr [0xeb4]
  === BLOCK LINK ===
    0x66dc
=== CODE BLOCK END ===

=== CODE BLOCK ADDRESS 0x66dc ===
  0x66dc	mov    	ebx, eax
  0x66de	test   	eax, eax
  0x66e0	jns    	0x6725
  === BLOCK LINK ===
    0x66e2
=== CODE BLOCK END ===

=== CODE BLOCK ADDRESS 0x66e2 ===
  0x66e2	dec    	eax
  0x66e3	mov    	ecx, dword ptr [ebp + 0x5f]
  0x66e6	inc    	esp
  0x66e7	mov    	ecx, eax
  0x66e9	dec    	esp
  === BLOCK LINK ===
    0x66ea
=== CODE BLOCK END ===

=== CODE BLOCK ADDRESS 0x66ea ===
  0x66ea	lea    	eax, [0x1328]
  0x66f0	mov    	edx, 0x4b
  0x66f5	call   	0x4c34
  === BLOCK LINK ===
    0x66fa
=== CODE BLOCK END ===

=== CODE BLOCK ADDRESS 0x66fa ===
  0x66fa	nop    	
  0x66fb	dec    	eax
  0x66fc	mov    	ecx, dword ptr [ebp - 0x11]
  0x66ff	dec    	eax
  0x6700	test   	ecx, ecx
  === BLOCK LINK ===
    0x6702
=== CODE BLOCK END ===

=== CODE BLOCK ADDRESS 0x6702 ===
  0x6702	je     	0x6720
  === BLOCK LINK ===
    0x6704
=== CODE BLOCK END ===

=== CODE BLOCK ADDRESS 0x6704 ===
  0x6704	dec    	esp
  0x6705	mov    	dword ptr [ebp - 0x11], edi
  0x6708	dec    	eax
  0x6709	mov    	eax, dword ptr [ecx]
  0x670b	dec    	ecx
  === BLOCK LINK ===
    0x670c
=== CODE BLOCK END ===

=== CODE BLOCK ADDRESS 0x670c ===
  0x670c	mov    	edx, 0x365eb170
  0x6711	adc    	byte ptr [edi], bl
  0x6713	lodsb  	al, byte ptr [esi]
  0x6714	mov    	edx, 0x10408b48
  0x6719	call   	dword ptr [0xe71]
  === BLOCK LINK ===
    0x671f
=== CODE BLOCK END ===

=== CODE BLOCK ADDRESS 0x671f ===
  0x671f	nop    	
  0x6720	jmp    	0x61e4
  === BLOCK LINK ===
    0x6725
=== CODE BLOCK END ===

=== CODE BLOCK ADDRESS 0x6725 ===
  0x6725	dec    	eax
  0x6726	mov    	ecx, dword ptr [ebp - 0x11]
  0x6729	dec    	eax
  0x672a	test   	ecx, ecx
  0x672c	je     	0x674a
  === BLOCK LINK ===
    0x672e
=== CODE BLOCK END ===

=== CODE BLOCK ADDRESS 0x672e ===
  0x672e	dec    	esp
  0x672f	mov    	dword ptr [ebp - 0x11], edi
  0x6732	dec    	eax
  0x6733	mov    	eax, dword ptr [ecx]
  0x6735	dec    	ecx
  === BLOCK LINK ===
    0x6736
=== CODE BLOCK END ===

=== CODE BLOCK ADDRESS 0x6736 ===
  0x6736	mov    	edx, 0x365eb170
  0x673b	adc    	byte ptr [edi], bl
  0x673d	lodsb  	al, byte ptr [esi]
  0x673e	mov    	edx, 0x10408b48
  0x6743	call   	dword ptr [0xe47]
  === BLOCK LINK ===
    0x6749
=== CODE BLOCK END ===

=== CODE BLOCK ADDRESS 0x6749 ===
  0x6749	nop    	
  0x674a	jmp    	0x6906
  === BLOCK LINK ===
    0x674f
=== CODE BLOCK END ===

=== CODE BLOCK ADDRESS 0x674f ===
  0x674f	cmp    	esi, 4
  0x6752	jne    	0x690a
  === BLOCK LINK ===
    0x6758
=== CODE BLOCK END ===

=== CODE BLOCK ADDRESS 0x6758 ===
  0x6758	dec    	eax
  0x6759	lea    	edx, [0x1301]
  0x675f	dec    	eax
  0x6760	mov    	ecx, dword ptr [edi + 8]
  0x6763	call   	dword ptr [0xd47]
  === BLOCK LINK ===
    0x6769
=== CODE BLOCK END ===

=== CODE BLOCK ADDRESS 0x6769 ===
  0x6769	test   	eax, eax
  0x676b	jne    	0x690a
  === BLOCK LINK ===
    0x6771
=== CODE BLOCK END ===

=== CODE BLOCK ADDRESS 0x6771 ===
  0x6771	dec    	esp
  0x6772	mov    	dword ptr [ebp - 0x19], edi
  0x6775	dec    	eax
  0x6776	lea    	eax, [ebp - 0x19]
  0x6779	dec    	eax
  === BLOCK LINK ===
    0x677a
=== CODE BLOCK END ===

=== CODE BLOCK ADDRESS 0x677a ===
  0x677a	mov    	dword ptr [esp + 0x20], eax
  0x677e	dec    	esp
  0x677f	lea    	ecx, [0x140b]
  0x6785	xor    	edx, edx
  0x6787	inc    	esp
  === BLOCK LINK ===
    0x6788
=== CODE BLOCK END ===

=== CODE BLOCK ADDRESS 0x6788 ===
  0x6788	mov    	eax, esi
  0x678a	dec    	eax
  0x678b	lea    	ecx, [0x1337]
  0x6791	call   	dword ptr [0xa99]
  === BLOCK LINK ===
    0x6797
=== CODE BLOCK END ===

=== CODE BLOCK ADDRESS 0x6797 ===
  0x6797	mov    	ebx, eax
  0x6799	test   	eax, eax
  0x679b	jns    	0x67de
  === BLOCK LINK ===
    0x679d
=== CODE BLOCK END ===

=== CODE BLOCK ADDRESS 0x679d ===
  0x679d	dec    	eax
  0x679e	mov    	ecx, dword ptr [ebp + 0x5f]
  0x67a1	inc    	esp
  0x67a2	mov    	ecx, eax
  0x67a4	dec    	esp
  === BLOCK LINK ===
    0x67a5
=== CODE BLOCK END ===

=== CODE BLOCK ADDRESS 0x67a5 ===
  0x67a5	lea    	eax, [0x126d]
  0x67ab	lea    	edx, [esi + 0x4d]
  0x67ae	call   	0x4c34
  === BLOCK LINK ===
    0x67b3
=== CODE BLOCK END ===

=== CODE BLOCK ADDRESS 0x67b3 ===
  0x67b3	nop    	
  0x67b4	dec    	eax
  0x67b5	mov    	ecx, dword ptr [ebp - 0x19]
  0x67b8	dec    	eax
  0x67b9	test   	ecx, ecx
  === BLOCK LINK ===
    0x67bb
=== CODE BLOCK END ===

=== CODE BLOCK ADDRESS 0x67bb ===
  0x67bb	je     	0x67d9
  === BLOCK LINK ===
    0x67bd
=== CODE BLOCK END ===

=== CODE BLOCK ADDRESS 0x67bd ===
  0x67bd	dec    	esp
  0x67be	mov    	dword ptr [ebp - 0x19], edi
  0x67c1	dec    	eax
  0x67c2	mov    	eax, dword ptr [ecx]
  0x67c4	dec    	ecx
  === BLOCK LINK ===
    0x67c5
=== CODE BLOCK END ===

=== CODE BLOCK ADDRESS 0x67c5 ===
  0x67c5	mov    	edx, 0x365eb170
  0x67ca	adc    	byte ptr [edi], bl
  0x67cc	lodsb  	al, byte ptr [esi]
  0x67cd	mov    	edx, 0x10408b48
  0x67d2	call   	dword ptr [0xdb8]
  === BLOCK LINK ===
    0x67d8
=== CODE BLOCK END ===

=== CODE BLOCK ADDRESS 0x67d8 ===
  0x67d8	nop    	
  0x67d9	jmp    	0x61e4
  === BLOCK LINK ===
    0x67de
=== CODE BLOCK END ===

=== CODE BLOCK ADDRESS 0x67de ===
  0x67de	mov    	dword ptr [esp + 0x38], 0x40
  0x67e6	dec    	esp
  0x67e7	mov    	dword ptr [esp + 0x30], edi
  0x67eb	mov    	dword ptr [esp + 0x28], 3
  0x67f3	inc    	esp
  === BLOCK LINK ===
    0x67f4
=== CODE BLOCK END ===

=== CODE BLOCK ADDRESS 0x67f4 ===
  0x67f4	mov    	dword ptr [esp + 0x20], edi
  0x67f8	dec    	ecx
  0x67f9	or     	ecx, 0xffffffff
  0x67fc	mov    	ecx, 0xffffffff
  0x6801	inc    	esp
  === BLOCK LINK ===
    0x6802
=== CODE BLOCK END ===

=== CODE BLOCK ADDRESS 0x6802 ===
  0x6802	mov    	eax, ecx
  0x6804	mov    	edx, ecx
  0x6806	dec    	eax
  0x6807	mov    	ecx, dword ptr [ebp - 0x19]
  0x680a	call   	dword ptr [0xa28]
  === BLOCK LINK ===
    0x6810
=== CODE BLOCK END ===

=== CODE BLOCK ADDRESS 0x6810 ===
  0x6810	mov    	ebx, eax
  0x6812	test   	eax, eax
  0x6814	jns    	0x6859
  === BLOCK LINK ===
    0x6816
=== CODE BLOCK END ===

=== CODE BLOCK ADDRESS 0x6816 ===
  0x6816	dec    	eax
  0x6817	mov    	ecx, dword ptr [ebp + 0x5f]
  0x681a	inc    	esp
  0x681b	mov    	ecx, eax
  0x681d	dec    	esp
  === BLOCK LINK ===
    0x681e
=== CODE BLOCK END ===

=== CODE BLOCK ADDRESS 0x681e ===
  0x681e	lea    	eax, [0x11f4]
  0x6824	mov    	edx, 0x5b
  0x6829	call   	0x4c34
  === BLOCK LINK ===
    0x682e
=== CODE BLOCK END ===

=== CODE BLOCK ADDRESS 0x682e ===
  0x682e	nop    	
  0x682f	dec    	eax
  0x6830	mov    	ecx, dword ptr [ebp - 0x19]
  0x6833	dec    	eax
  0x6834	test   	ecx, ecx
  === BLOCK LINK ===
    0x6836
=== CODE BLOCK END ===

=== CODE BLOCK ADDRESS 0x6836 ===
  0x6836	je     	0x6854
  === BLOCK LINK ===
    0x6838
=== CODE BLOCK END ===

=== CODE BLOCK ADDRESS 0x6838 ===
  0x6838	dec    	esp
  0x6839	mov    	dword ptr [ebp - 0x19], edi
  0x683c	dec    	eax
  0x683d	mov    	eax, dword ptr [ecx]
  0x683f	dec    	ecx
  === BLOCK LINK ===
    0x6840
=== CODE BLOCK END ===

=== CODE BLOCK ADDRESS 0x6840 ===
  0x6840	mov    	edx, 0x365eb170
  0x6845	adc    	byte ptr [edi], bl
  0x6847	lodsb  	al, byte ptr [esi]
  0x6848	mov    	edx, 0x10408b48
  0x684d	call   	dword ptr [0xd3d]
  === BLOCK LINK ===
    0x6853
=== CODE BLOCK END ===

=== CODE BLOCK ADDRESS 0x6853 ===
  0x6853	nop    	
  0x6854	jmp    	0x61e4
  === BLOCK LINK ===
    0x6859
=== CODE BLOCK END ===

=== CODE BLOCK ADDRESS 0x6859 ===
  0x6859	inc    	esp
  0x685a	mov    	dword ptr [ebp + 7], edi
  0x685d	dec    	eax
  0x685e	mov    	eax, dword ptr [edi + 0x10]
  0x6861	dec    	eax
  === BLOCK LINK ===
    0x6862
=== CODE BLOCK END ===

=== CODE BLOCK ADDRESS 0x6862 ===
  0x6862	mov    	dword ptr [ebp + 0xf], eax
  0x6865	dec    	eax
  0x6866	mov    	ecx, dword ptr [ebp - 0x19]
  0x6869	dec    	eax
  0x686a	mov    	eax, dword ptr [ecx]
  === BLOCK LINK ===
    0x686c
=== CODE BLOCK END ===

=== CODE BLOCK ADDRESS 0x686c ===
  0x686c	movaps  	xmm0, xmmword ptr [ebp + 7]
  0x6870	movdqa  	xmmword ptr [ebp + 7], xmm0
  0x6875	dec    	ecx
  0x6876	mov    	edx, 0x50d77370
  0x687b	cmp    	byte ptr [edi - 0x74b34884], dh
  === BLOCK LINK ===
    0x6881
=== CODE BLOCK END ===

=== CODE BLOCK ADDRESS 0x6881 ===
  0x6881	dec    	edi
  0x6882	sbb    	byte ptr [ebp + ecx*4 + 5], cl
  0x6886	out    	dx, al
  0x6887	adc    	dword ptr [eax], eax
  0x6889	add    	byte ptr [eax - 0x73], cl
  === BLOCK LINK ===
    0x688c
=== CODE BLOCK END ===

=== CODE BLOCK ADDRESS 0x688c ===
  0x688c	push   	ebp
  0x688d	pop    	es
  0x688e	dec    	eax
  0x688f	mov    	eax, dword ptr [eax + 0x68]
  0x6892	call   	dword ptr [0xcf8]
  === BLOCK LINK ===
    0x6898
=== CODE BLOCK END ===

=== CODE BLOCK ADDRESS 0x6898 ===
  0x6898	mov    	ebx, eax
  0x689a	test   	eax, eax
  0x689c	jns    	0x68e1
  === BLOCK LINK ===
    0x689e
=== CODE BLOCK END ===

=== CODE BLOCK ADDRESS 0x689e ===
  0x689e	dec    	eax
  0x689f	mov    	ecx, dword ptr [ebp + 0x5f]
  0x68a2	inc    	esp
  0x68a3	mov    	ecx, eax
  0x68a5	dec    	esp
  === BLOCK LINK ===
    0x68a6
=== CODE BLOCK END ===

=== CODE BLOCK ADDRESS 0x68a6 ===
  0x68a6	lea    	eax, [0x116c]
  0x68ac	mov    	edx, 0x60
  0x68b1	call   	0x4c34
  === BLOCK LINK ===
    0x68b6
=== CODE BLOCK END ===

=== CODE BLOCK ADDRESS 0x68b6 ===
  0x68b6	nop    	
  0x68b7	dec    	eax
  0x68b8	mov    	ecx, dword ptr [ebp - 0x19]
  0x68bb	dec    	eax
  0x68bc	test   	ecx, ecx
  === BLOCK LINK ===
    0x68be
=== CODE BLOCK END ===

=== CODE BLOCK ADDRESS 0x68be ===
  0x68be	je     	0x68dc
  === BLOCK LINK ===
    0x68c0
=== CODE BLOCK END ===

=== CODE BLOCK ADDRESS 0x68c0 ===
  0x68c0	dec    	esp
  0x68c1	mov    	dword ptr [ebp - 0x19], edi
  0x68c4	dec    	eax
  0x68c5	mov    	eax, dword ptr [ecx]
  0x68c7	dec    	ecx
  === BLOCK LINK ===
    0x68c8
=== CODE BLOCK END ===

=== CODE BLOCK ADDRESS 0x68c8 ===
  0x68c8	mov    	edx, 0x365eb170
  0x68cd	adc    	byte ptr [edi], bl
  0x68cf	lodsb  	al, byte ptr [esi]
  0x68d0	mov    	edx, 0x10408b48
  0x68d5	call   	dword ptr [0xcb5]
  === BLOCK LINK ===
    0x68db
=== CODE BLOCK END ===

=== CODE BLOCK ADDRESS 0x68db ===
  0x68db	nop    	
  0x68dc	jmp    	0x61e4
  === BLOCK LINK ===
    0x68e1
=== CODE BLOCK END ===

=== CODE BLOCK ADDRESS 0x68e1 ===
  0x68e1	dec    	eax
  0x68e2	mov    	ecx, dword ptr [ebp - 0x19]
  0x68e5	dec    	eax
  0x68e6	test   	ecx, ecx
  0x68e8	je     	0x6906
  === BLOCK LINK ===
    0x68ea
=== CODE BLOCK END ===

=== CODE BLOCK ADDRESS 0x68ea ===
  0x68ea	dec    	esp
  0x68eb	mov    	dword ptr [ebp - 0x19], edi
  0x68ee	dec    	eax
  0x68ef	mov    	eax, dword ptr [ecx]
  0x68f1	dec    	ecx
  === BLOCK LINK ===
    0x68f2
=== CODE BLOCK END ===

=== CODE BLOCK ADDRESS 0x68f2 ===
  0x68f2	mov    	edx, 0x365eb170
  0x68f7	adc    	byte ptr [edi], bl
  0x68f9	lodsb  	al, byte ptr [esi]
  0x68fa	mov    	edx, 0x10408b48
  0x68ff	call   	dword ptr [0xc8b]
  === BLOCK LINK ===
    0x6905
=== CODE BLOCK END ===

=== CODE BLOCK ADDRESS 0x6905 ===
  0x6905	nop    	
  0x6906	xor    	eax, eax
  0x6908	jmp    	0x690f
  === BLOCK LINK ===
    0x690a
=== CODE BLOCK END ===

=== CODE BLOCK ADDRESS 0x690a ===
  0x690a	mov    	eax, 0x80070057
  0x690f	dec    	eax
  0x6910	mov    	ecx, dword ptr [ebp + 0x3f]
  0x6913	dec    	eax
  0x6914	xor    	ecx, esp
  === BLOCK LINK ===
    0x6916
=== CODE BLOCK END ===

=== CODE BLOCK ADDRESS 0x6916 ===
  0x6916	call   	0x1450
  === BLOCK LINK ===
    0x691b
=== CODE BLOCK END ===

=== CODE BLOCK ADDRESS 0x691b ===
  0x691b	dec    	esp
  0x691c	lea    	ebx, [esp + 0xa0]
  0x6923	dec    	ecx
  0x6924	mov    	ebx, dword ptr [ebx + 0x20]
  0x6927	dec    	ecx
  === BLOCK LINK ===
    0x6928
=== CODE BLOCK END ===

=== CODE BLOCK ADDRESS 0x6928 ===
  0x6928	mov    	esi, dword ptr [ebx + 0x30]
  0x692b	dec    	ecx
  0x692c	mov    	edi, dword ptr [ebx + 0x38]
  0x692f	dec    	ecx
  0x6930	mov    	esp, ebx
  === BLOCK LINK ===
    0x6932
=== CODE BLOCK END ===

=== CODE BLOCK ADDRESS 0x6932 ===
  0x6932	inc    	ecx
  0x6933	pop    	edi
  0x6934	inc    	ecx
  0x6935	pop    	esi
  0x6936	pop    	ebp
  === BLOCK LINK ===
    0x6937
=== CODE BLOCK END ===

=== CODE BLOCK ADDRESS 0x6937 ===
  0x6937	ret    	
  0x6938	mov    	ecx, 0x80070216
  0x693d	call   	0x496c
  === BLOCK LINK ===
    0x6942
=== CODE BLOCK END ===

=== CODE BLOCK ADDRESS 0x6942 ===
  0x6942	nop    	
  0x6943	mov    	ecx, eax
  0x6945	call   	0x496c
  === BLOCK LINK ===
    0x694a
=== CODE BLOCK END ===

=== CODE BLOCK ADDRESS 0x694a ===
  0x694a	nop    	
  0x694b	mov    	ecx, eax
  0x694d	call   	0x496c
  === BLOCK LINK ===
    0x6952
=== CODE BLOCK END ===

=== CODE BLOCK ADDRESS 0x6952 ===
  0x6952	int3   	
  0x6953	mov    	ecx, 0x80070216
  0x6958	call   	0x496c
  === BLOCK LINK ===
    0x695d
=== CODE BLOCK END ===

=== CODE BLOCK ADDRESS 0x695d ===
  0x695d	int3   	
  0x695e	mov    	ecx, 0x80070216
  0x6963	call   	0x496c
  === BLOCK LINK ===
    0x6968
=== CODE BLOCK END ===

=== CODE BLOCK ADDRESS 0x6968 ===
  0x6968	nop    	
  0x6969	mov    	ecx, eax
  0x696b	call   	0x496c
  === BLOCK LINK ===
    0x6970
=== CODE BLOCK END ===

=== CODE BLOCK ADDRESS 0x6970 ===
  0x6970	int3   	
  0x6971	mov    	ecx, 0x80070216
  0x6976	call   	0x496c
  === BLOCK LINK ===
    0x697b
=== CODE BLOCK END ===

=== CODE BLOCK ADDRESS 0x697b ===
  0x697b	int3   	
  0x697c	dec    	eax
  0x697d	sub    	esp, 0x28
  0x6980	dec    	ebp
  0x6981	mov    	eax, dword ptr [ecx + 0x38]
  === BLOCK LINK ===
    0x6984
=== CODE BLOCK END ===

=== CODE BLOCK ADDRESS 0x6984 ===
  0x6984	dec    	eax
  0x6985	mov    	ecx, edx
  0x6987	dec    	ecx
  0x6988	mov    	edx, ecx
  0x698a	call   	0x699c
  === BLOCK LINK ===
    0x698f
=== CODE BLOCK END ===

=== CODE BLOCK ADDRESS 0x698f ===
  0x698f	mov    	eax, 1
  0x6994	dec    	eax
  0x6995	add    	esp, 0x28
  0x6998	ret    	
  0x6999	int3   	
  === BLOCK LINK ===
    0x699a
=== CODE BLOCK END ===

=== CODE BLOCK ADDRESS 0x699a ===
  0x699a	int3   	
  0x699b	int3   	
  0x699c	inc    	eax
  0x699d	push   	ebx
  0x699e	inc    	ebp
  === BLOCK LINK ===
    0x699f
=== CODE BLOCK END ===

=== CODE BLOCK ADDRESS 0x699f ===
  0x699f	mov    	ebx, dword ptr [eax]
  0x69a1	dec    	eax
  0x69a2	mov    	ebx, edx
  0x69a4	inc    	ecx
  0x69a5	and    	ebx, 0xfffffff8
  === BLOCK LINK ===
    0x69a8
=== CODE BLOCK END ===

=== CODE BLOCK ADDRESS 0x69a8 ===
  0x69a8	dec    	esp
  0x69a9	mov    	ecx, ecx
  0x69ab	inc    	ecx
  0x69ac	test   	byte ptr [eax], 4
  0x69af	dec    	esp
  === BLOCK LINK ===
    0x69b0
=== CODE BLOCK END ===

=== CODE BLOCK ADDRESS 0x69b0 ===
  0x69b0	mov    	edx, ecx
  0x69b2	je     	0x69c7
  === BLOCK LINK ===
    0x69b4
=== CODE BLOCK END ===

=== CODE BLOCK ADDRESS 0x69b4 ===
  0x69b4	inc    	ecx
  0x69b5	mov    	eax, dword ptr [eax + 8]
  0x69b8	dec    	ebp
  0x69b9	arpl   	word ptr [eax + 4], dx
  0x69bc	neg    	eax
  === BLOCK LINK ===
    0x69be
=== CODE BLOCK END ===

=== CODE BLOCK ADDRESS 0x69be ===
  0x69be	dec    	esp
  0x69bf	add    	edx, ecx
  0x69c1	dec    	eax
  0x69c2	arpl   	ax, cx
  0x69c4	dec    	esp
  === BLOCK LINK ===
    0x69c5
=== CODE BLOCK END ===

=== CODE BLOCK ADDRESS 0x69c5 ===
  0x69c5	and    	edx, ecx
  0x69c7	dec    	ecx
  0x69c8	arpl   	bx, ax
  0x69ca	dec    	edx
  0x69cb	mov    	edx, dword ptr [eax + edx]
  === BLOCK LINK ===
    0x69ce
=== CODE BLOCK END ===

=== CODE BLOCK ADDRESS 0x69ce ===
  0x69ce	dec    	eax
  0x69cf	mov    	eax, dword ptr [ebx + 0x10]
  0x69d2	mov    	ecx, dword ptr [eax + 8]
  0x69d5	dec    	eax
  0x69d6	mov    	eax, dword ptr [ebx + 8]
  === BLOCK LINK ===
    0x69d9
=== CODE BLOCK END ===

=== CODE BLOCK ADDRESS 0x69d9 ===
  0x69d9	test   	byte ptr [ecx + eax + 3], 0xf
  0x69de	je     	0x69eb
  === BLOCK LINK ===
    0x69e0
=== CODE BLOCK END ===

=== CODE BLOCK ADDRESS 0x69e0 ===
  0x69e0	movzx  	eax, byte ptr [ecx + eax + 3]
  0x69e5	and    	eax, 0xfffffff0
  0x69e8	dec    	esp
  0x69e9	add    	ecx, eax
  0x69eb	dec    	esp
  === BLOCK LINK ===
    0x69ec
=== CODE BLOCK END ===

=== CODE BLOCK ADDRESS 0x69ec ===
  0x69ec	xor    	ecx, edx
  0x69ee	dec    	ecx
  0x69ef	mov    	ecx, ecx
  0x69f1	pop    	ebx
  0x69f2	jmp    	0x1450
  === BLOCK LINK ===
    0x69f7
=== CODE BLOCK END ===

=== CODE BLOCK ADDRESS 0x69f7 ===
  0x69f7	int3   	
  0x69f8	dec    	eax
  0x69f9	mov    	eax, esp
  0x69fb	dec    	eax
  0x69fc	mov    	dword ptr [eax + 8], ebx
  === BLOCK LINK ===
    0x69ff
=== CODE BLOCK END ===

=== CODE BLOCK ADDRESS 0x69ff ===
  0x69ff	dec    	eax
  0x6a00	mov    	dword ptr [eax + 0x10], ebp
  0x6a03	dec    	eax
  0x6a04	mov    	dword ptr [eax + 0x18], esi
  0x6a07	dec    	eax
  === BLOCK LINK ===
    0x6a08
=== CODE BLOCK END ===

=== CODE BLOCK ADDRESS 0x6a08 ===
  0x6a08	mov    	dword ptr [eax + 0x20], edi
  0x6a0b	inc    	ecx
  0x6a0c	push   	esi
  0x6a0d	dec    	eax
  0x6a0e	sub    	esp, 0x20
  === BLOCK LINK ===
    0x6a11
=== CODE BLOCK END ===

=== CODE BLOCK ADDRESS 0x6a11 ===
  0x6a11	dec    	ecx
  0x6a12	mov    	ebx, dword ptr [ecx + 0x38]
  0x6a15	dec    	eax
  0x6a16	mov    	esi, edx
  0x6a18	dec    	ebp
  === BLOCK LINK ===
    0x6a19
=== CODE BLOCK END ===

=== CODE BLOCK ADDRESS 0x6a19 ===
  0x6a19	mov    	esi, eax
  0x6a1b	dec    	eax
  0x6a1c	mov    	ebp, ecx
  0x6a1e	dec    	ecx
  0x6a1f	mov    	edx, ecx
  === BLOCK LINK ===
    0x6a21
=== CODE BLOCK END ===

=== CODE BLOCK ADDRESS 0x6a21 ===
  0x6a21	dec    	eax
  0x6a22	mov    	ecx, esi
  0x6a24	dec    	ecx
  0x6a25	mov    	edi, ecx
  0x6a27	dec    	esp
  === BLOCK LINK ===
    0x6a28
=== CODE BLOCK END ===

=== CODE BLOCK ADDRESS 0x6a28 ===
  0x6a28	lea    	eax, [ebx + 4]
  0x6a2b	call   	0x699c
  === BLOCK LINK ===
    0x6a30
=== CODE BLOCK END ===

=== CODE BLOCK ADDRESS 0x6a30 ===
  0x6a30	mov    	eax, dword ptr [ebp + 4]
  0x6a33	and    	al, 0x66
  0x6a35	neg    	al
  0x6a37	mov    	eax, 1
  0x6a3c	inc    	ebp
  === BLOCK LINK ===
    0x6a3d
=== CODE BLOCK END ===

=== CODE BLOCK ADDRESS 0x6a3d ===
  0x6a3d	sbb    	eax, eax
  0x6a3f	inc    	ecx
  0x6a40	neg    	eax
  0x6a42	inc    	esp
  0x6a43	add    	eax, eax
  === BLOCK LINK ===
    0x6a45
=== CODE BLOCK END ===

=== CODE BLOCK ADDRESS 0x6a45 ===
  0x6a45	inc    	esp
  0x6a46	test   	dword ptr [ebx + 4], eax
  0x6a49	je     	0x6a5c
  === BLOCK LINK ===
    0x6a4b
=== CODE BLOCK END ===

=== CODE BLOCK ADDRESS 0x6a4b ===
  0x6a4b	dec    	esp
  0x6a4c	mov    	ecx, edi
  0x6a4e	dec    	ebp
  0x6a4f	mov    	eax, esi
  0x6a51	dec    	eax
  === BLOCK LINK ===
    0x6a52
=== CODE BLOCK END ===

=== CODE BLOCK ADDRESS 0x6a52 ===
  0x6a52	mov    	edx, esi
  0x6a54	dec    	eax
  0x6a55	mov    	ecx, ebp
  0x6a57	call   	0x1ff8
  === BLOCK LINK ===
    0x6a5c
=== CODE BLOCK END ===

=== CODE BLOCK ADDRESS 0x6a5c ===
  0x6a5c	dec    	eax
  0x6a5d	mov    	ebx, dword ptr [esp + 0x30]
  0x6a61	dec    	eax
  0x6a62	mov    	ebp, dword ptr [esp + 0x38]
  0x6a66	dec    	eax
  === BLOCK LINK ===
    0x6a67
=== CODE BLOCK END ===

=== CODE BLOCK ADDRESS 0x6a67 ===
  0x6a67	mov    	esi, dword ptr [esp + 0x40]
  0x6a6b	dec    	eax
  0x6a6c	mov    	edi, dword ptr [esp + 0x48]
  0x6a70	dec    	eax
  0x6a71	add    	esp, 0x20
  === BLOCK LINK ===
    0x6a74
=== CODE BLOCK END ===

=== CODE BLOCK ADDRESS 0x6a74 ===
  0x6a74	inc    	ecx
  0x6a75	pop    	esi
  0x6a76	ret    	
  0x6a77	int3   	
  0x6a78	int3   	
  === BLOCK LINK ===
    0x6a79
=== CODE BLOCK END ===

=== CODE BLOCK ADDRESS 0x17de ===
  0x17de	dec    	eax
  0x17df	add    	esp, 0x20
  0x17e2	pop    	ebx
  === BLOCK LINK ===
    0x17e3
=== CODE BLOCK END ===

=== CODE BLOCK ADDRESS 0x6a79 ===
  0x6a79	int3   	
  0x6a7a	int3   	
  0x6a7b	int3   	
  0x6a7c	int3   	
  0x6a7d	int3   	
  === BLOCK LINK ===
    0x6a7e
=== CODE BLOCK END ===

=== CODE BLOCK ADDRESS 0x6a7e ===
  0x6a7e	int3   	
  0x6a7f	int3   	
  0x6a80	int3   	
  0x6a81	int3   	
  0x6a82	int3   	
  === BLOCK LINK ===
    0x6a83
=== CODE BLOCK END ===

=== CODE BLOCK ADDRESS 0x6a83 ===
  0x6a83	int3   	
  0x6a84	int3   	
  0x6a85	int3   	
  0x6a86	nop    	word ptr [eax + eax]
  0x6a90	dec    	eax
  === BLOCK LINK ===
    0x6a91
=== CODE BLOCK END ===

=== CODE BLOCK ADDRESS 0x6a91 ===
  0x6a91	sub    	esp, 0x10
  0x6a94	dec    	esp
  0x6a95	mov    	dword ptr [esp], edx
  0x6a98	dec    	esp
  0x6a99	mov    	dword ptr [esp + 8], ebx
  === BLOCK LINK ===
    0x6a9d
=== CODE BLOCK END ===

=== CODE BLOCK ADDRESS 0x6a9d ===
  0x6a9d	dec    	ebp
  0x6a9e	xor    	ebx, ebx
  0x6aa0	dec    	esp
  0x6aa1	lea    	edx, [esp + 0x18]
  0x6aa5	dec    	esp
  === BLOCK LINK ===
    0x6aa6
=== CODE BLOCK END ===

=== CODE BLOCK ADDRESS 0x6aa6 ===
  0x6aa6	sub    	edx, eax
  0x6aa8	dec    	ebp
  0x6aa9	cmovb  	edx, ebx
  0x6aac	dec    	esp
  0x6aae	mov    	ebx, dword ptr [0x10]
  === BLOCK LINK ===
    0x6ab5
=== CODE BLOCK END ===

=== CODE BLOCK ADDRESS 0x6ab5 ===
  0x6ab5	dec    	ebp
  0x6ab6	cmp    	edx, ebx
  0x6ab8	jae    	0x6ad0
  === BLOCK LINK ===
    0x6aba
=== CODE BLOCK END ===

=== CODE BLOCK ADDRESS 0x6aba ===
  0x6aba	inc    	cx
  0x6abc	and    	edx, 0x8d4df000
  0x6ac2	wait   	
  0x6ac3	add    	al, dh
  0x6ac5	.byte  	0xff
  === BLOCK LINK ===
    0x6ac6
=== CODE BLOCK END ===

=== CODE BLOCK ADDRESS 0x6ac6 ===
  0x6ac6	inc    	dword ptr [ecx - 0x3a]
  0x6ac9	add    	eax, dword ptr [eax]
  0x6acb	dec    	ebp
  0x6acc	cmp    	edx, ebx
  0x6ace	jne    	0x6ac0
  === BLOCK LINK ===
    0x6ad0
=== CODE BLOCK END ===

=== CODE BLOCK ADDRESS 0x6ad0 ===
  0x6ad0	dec    	esp
  0x6ad1	mov    	edx, dword ptr [esp]
  0x6ad4	dec    	esp
  0x6ad5	mov    	ebx, dword ptr [esp + 8]
  0x6ad9	dec    	eax
  === BLOCK LINK ===
    0x6ada
=== CODE BLOCK END ===

=== CODE BLOCK ADDRESS 0x6ada ===
  0x6ada	add    	esp, 0x10
  0x6add	ret    	
  0x6ade	jmp    	dword ptr [0x9c4]
  === BLOCK LINK ===
    0x6ae4
=== CODE BLOCK END ===

=== CODE BLOCK ADDRESS 0x6ae4 ===
  0x6ae4	int3   	
  0x6ae5	int3   	
  0x6ae6	int3   	
  0x6ae7	int3   	
  0x6ae8	int3   	
  === BLOCK LINK ===
    0x6ae9
=== CODE BLOCK END ===

=== CODE BLOCK ADDRESS 0x6ae9 ===
  0x6ae9	int3   	
  0x6aea	int3   	
  0x6aeb	int3   	
  0x6aec	int3   	
  0x6aed	int3   	
  === BLOCK LINK ===
    0x6aee
=== CODE BLOCK END ===

=== CODE BLOCK ADDRESS 0x6aee ===
  0x6aee	int3   	
  0x6aef	int3   	
  0x6af0	int3   	
  0x6af1	int3   	
  0x6af2	int3   	
  === BLOCK LINK ===
    0x6af3
=== CODE BLOCK END ===

=== CODE BLOCK ADDRESS 0x6af3 ===
  0x6af3	int3   	
  0x6af4	int3   	
  0x6af5	int3   	
  0x6af6	nop    	word ptr [eax + eax]
  0x6b00	jmp    	eax
  === BLOCK LINK ===
    0x6b02
=== CODE BLOCK END ===

=== CODE BLOCK ADDRESS 0x6b02 ===
  0x6b02	int3   	
  0x6b03	int3   	
  0x6b04	int3   	
  0x6b05	int3   	
  0x6b06	int3   	
  === BLOCK LINK ===
    0x6b07
=== CODE BLOCK END ===

=== CODE BLOCK ADDRESS 0x6b07 ===
  0x6b07	int3   	
  0x6b08	int3   	
  0x6b09	int3   	
  0x6b0a	int3   	
  0x6b0b	int3   	
  === BLOCK LINK ===
    0x6b0c
=== CODE BLOCK END ===

=== CODE BLOCK ADDRESS 0x6b0c ===
  0x6b0c	int3   	
  0x6b0d	int3   	
  0x6b0e	int3   	
  0x6b0f	int3   	
  0x6b10	int3   	
  === BLOCK LINK ===
    0x6b11
=== CODE BLOCK END ===

=== CODE BLOCK ADDRESS 0x6b11 ===
  0x6b11	int3   	
  0x6b12	int3   	
  0x6b13	int3   	
  0x6b14	int3   	
  0x6b15	int3   	
  === BLOCK LINK ===
    0x6b16
=== CODE BLOCK END ===

=== CODE BLOCK ADDRESS 0x6b16 ===
  0x6b16	nop    	word ptr [eax + eax]
  0x6b20	jmp    	dword ptr [0xa62]
  === BLOCK LINK ===
    0x6b26
=== CODE BLOCK END ===

=== CODE BLOCK ADDRESS 0x6b26 ===
  0x6b26	inc    	eax
  0x6b27	push   	ebp
  0x6b28	dec    	eax
  0x6b29	sub    	esp, 0x20
  0x6b2c	dec    	eax
  === BLOCK LINK ===
    0x6b2d
=== CODE BLOCK END ===

=== CODE BLOCK ADDRESS 0x6b2d ===
  0x6b2d	mov    	ebp, edx
  0x6b2f	dec    	eax
  0x6b30	mov    	eax, dword ptr [ecx]
  0x6b32	dec    	eax
  0x6b33	mov    	edx, ecx
  === BLOCK LINK ===
    0x6b35
=== CODE BLOCK END ===

=== CODE BLOCK ADDRESS 0x6b35 ===
  0x6b35	mov    	ecx, dword ptr [eax]
  0x6b37	call   	0x207c
  === BLOCK LINK ===
    0x6b3c
=== CODE BLOCK END ===

=== CODE BLOCK ADDRESS 0x6b3c ===
  0x6b3c	nop    	
  0x6b3d	dec    	eax
  0x6b3e	add    	esp, 0x20
  0x6b41	pop    	ebp
  0x6b42	ret    	
  === BLOCK LINK ===
    0x6b43
=== CODE BLOCK END ===

=== CODE BLOCK ADDRESS 0x6b43 ===
  0x6b43	int3   	
  0x6b44	dec    	eax
  0x6b45	mov    	dword ptr [esp + 0x10], edx
  0x6b49	push   	ebp
  0x6b4a	dec    	eax
  === BLOCK LINK ===
    0x6b4b
=== CODE BLOCK END ===

=== CODE BLOCK ADDRESS 0x6b4b ===
  0x6b4b	sub    	esp, 0x20
  0x6b4e	dec    	eax
  0x6b4f	mov    	ebp, edx
  0x6b51	dec    	eax
  0x6b52	lea    	eax, [0xffffaab4]
  === BLOCK LINK ===
    0x6b58
=== CODE BLOCK END ===

=== CODE BLOCK ADDRESS 0x6b58 ===
  0x6b58	dec    	eax
  0x6b59	add    	esp, 0x20
  0x6b5c	pop    	ebp
  0x6b5d	ret    	
  0x6b5e	int3   	
  === BLOCK LINK ===
    0x6b5f
=== CODE BLOCK END ===

=== CODE BLOCK ADDRESS 0x6b5f ===
  0x6b5f	inc    	eax
  0x6b60	push   	ebp
  0x6b61	dec    	eax
  0x6b62	mov    	ebp, edx
  0x6b64	dec    	eax
  === BLOCK LINK ===
    0x6b65
=== CODE BLOCK END ===

=== CODE BLOCK ADDRESS 0x6b65 ===
  0x6b65	mov    	eax, dword ptr [ecx]
  0x6b67	xor    	ecx, ecx
  0x6b69	cmp    	dword ptr [eax], 0xc0000005
  0x6b6f	sete   	cl
  0x6b72	mov    	eax, ecx
  === BLOCK LINK ===
    0x6b74
=== CODE BLOCK END ===

=== CODE BLOCK ADDRESS 0x6b74 ===
  0x6b74	pop    	ebp
  0x6b75	ret    	
  0x6b76	int3   	
  0x6b77	dec    	eax
  0x6b78	lea    	ecx, [edx + 0x30]
  === BLOCK LINK ===
    0x6b7e
=== CODE BLOCK END ===

=== CODE BLOCK ADDRESS 0x6b7e ===
  0x6b7e	jmp    	0x2e98
  === BLOCK LINK ===
    0x6b83
=== CODE BLOCK END ===

=== CODE BLOCK ADDRESS 0x6b83 ===
  0x6b83	dec    	eax
  0x6b84	lea    	ecx, [edx + 0x48]
  0x6b8a	jmp    	0x2ec4
  === BLOCK LINK ===
    0x6b8f
=== CODE BLOCK END ===

=== CODE BLOCK ADDRESS 0x6b8f ===
  0x6b8f	dec    	eax
  0x6b90	lea    	ecx, [edx + 0x90]
  0x6b96	jmp    	0x2d00
  === BLOCK LINK ===
    0x6b9b
=== CODE BLOCK END ===

=== CODE BLOCK ADDRESS 0x6b9b ===
  0x6b9b	dec    	eax
  0x6b9c	lea    	ecx, [edx + 0x80]
  0x6ba2	jmp    	0x2d00
  === BLOCK LINK ===
    0x6ba7
=== CODE BLOCK END ===

=== CODE BLOCK ADDRESS 0x6ba7 ===
  0x6ba7	dec    	eax
  0x6ba8	lea    	ecx, [edx + 0x40]
  0x6bae	jmp    	0x2d00
  === BLOCK LINK ===
    0x6bb3
=== CODE BLOCK END ===

=== CODE BLOCK ADDRESS 0x6bb3 ===
  0x6bb3	dec    	eax
  0x6bb4	lea    	ecx, [edx + 0x60]
  0x6bba	jmp    	0x2d00
  === BLOCK LINK ===
    0x6bbf
=== CODE BLOCK END ===

=== CODE BLOCK ADDRESS 0x6bbf ===
  0x6bbf	dec    	eax
  0x6bc0	lea    	ecx, [edx + 0x50]
  0x6bc6	jmp    	0x2d00
  === BLOCK LINK ===
    0x6bcb
=== CODE BLOCK END ===

=== CODE BLOCK ADDRESS 0x6bcb ===
  0x6bcb	dec    	eax
  0x6bcc	lea    	ecx, [edx + 0x78]
  0x6bd2	jmp    	0x2ef0
  === BLOCK LINK ===
    0x6bd7
=== CODE BLOCK END ===

=== CODE BLOCK ADDRESS 0x6bd7 ===
  0x6bd7	dec    	eax
  0x6bd8	lea    	ecx, [edx + 0x48]
  0x6bde	jmp    	0x2d00
  === BLOCK LINK ===
    0x6be3
=== CODE BLOCK END ===

=== CODE BLOCK ADDRESS 0x6be3 ===
  0x6be3	int3   	
  0x6be4	int3   	
  0x6be5	int3   	
  0x6be6	int3   	
  0x6be7	int3   	
  === BLOCK LINK ===
    0x6be8
=== CODE BLOCK END ===

=== CODE BLOCK ADDRESS 0x6be8 ===
  0x6be8	int3   	
  0x6be9	int3   	
  0x6bea	int3   	
  0x6beb	int3   	
  0x6bec	int3   	
  === BLOCK LINK ===
    0x6bed
=== CODE BLOCK END ===

=== CODE BLOCK ADDRESS 0x6bed ===
  0x6bed	int3   	
  0x6bee	int3   	
  0x6bef	int3   	
  0x6bf0	int3   	
  0x6bf1	int3   	
  === BLOCK LINK ===
    0x6bf2
=== CODE BLOCK END ===

=== CODE BLOCK ADDRESS 0x6bf2 ===
  0x6bf2	int3   	
  0x6bf3	int3   	
  0x6bf4	int3   	
  0x6bf5	int3   	
  0x6bf6	int3   	
  === BLOCK LINK ===
    0x6bf7
=== CODE BLOCK END ===

=== CODE BLOCK ADDRESS 0x6bf7 ===
  0x6bf7	int3   	
  0x6bf8	jno    	0x6c42
  === BLOCK LINK ===
    0x6bfa
=== CODE BLOCK END ===

=== CODE BLOCK ADDRESS 0x6bfa ===
  0x6bfa	ficom  	dword ptr [esi - 0x6a]
  0x6bfd	int1   	
  0x6bff	test   	dword ptr [eax - 0x7d], ecx
  0x6c02	in     	al, dx
  0x6c03	cmp    	byte ptr [eax - 0x39], cl
  === BLOCK LINK ===
    0x6c06
=== CODE BLOCK END ===

=== CODE BLOCK ADDRESS 0x6c06 ===
  0x6c06	inc    	esp
  0x6c07	and    	al, 0x20
  0x6c09	.byte  	0xfe
  0x6c0a	.byte  	0xff
  0x6c0b	.byte  	0xff
  === BLOCK LINK ===
    0x6c0c
=== CODE BLOCK END ===

=== CODE BLOCK ADDRESS 0x6c0c ===
  0x6c0c	dec    	dword ptr [eax - 0x75]
  0x6c0f	or     	eax, 0x33f4
  0x6c14	dec    	eax
  0x6c15	test   	ecx, ecx
  0x6c17	je     	0x6c1f
  === BLOCK LINK ===
    0x6c19
=== CODE BLOCK END ===

=== CODE BLOCK ADDRESS 0x6c19 ===
  0x6c19	call   	0x49dc
  === BLOCK LINK ===
    0x6c1e
=== CODE BLOCK END ===

=== CODE BLOCK ADDRESS 0x6c1e ===
  0x6c1e	nop    	
  0x6c1f	dec    	eax
  0x6c20	add    	esp, 0x38
  0x6c23	ret    	
  0x6c24	int3   	
  === BLOCK LINK ===
    0x6c25
=== CODE BLOCK END ===

=== CODE BLOCK ADDRESS 0x6c25 ===
  0x6c25	int3   	
  0x6c26	int3   	
  0x6c27	int3   	
  0x6c28	jno    	0x6c72
  === BLOCK LINK ===
    0x6c2a
=== CODE BLOCK END ===

=== CODE BLOCK ADDRESS 0x6c2a ===
  0x6c2a	ficom  	dword ptr [esi - 0x6a]
  0x6c2d	int1   	
  0x6c2f	test   	dword ptr [eax - 0x73], ecx
  0x6c32	or     	eax, 0x34d9
  0x6c37	jmp    	0x2dc0
  === BLOCK LINK ===
    0x6c3c
=== CODE BLOCK END ===

=== CODE BLOCK ADDRESS 0x6c3c ===
  0x6c3c	add    	byte ptr [eax], al
  0x6c3e	add    	byte ptr [eax], al
  0x6c40	add    	byte ptr [eax], al
  0x6c42	add    	byte ptr [eax], al
  0x6c44	add    	byte ptr [eax], al
  === BLOCK LINK ===
    0x6c46
=== CODE BLOCK END ===

=== CODE BLOCK ADDRESS 0x6c46 ===
  0x6c46	add    	byte ptr [eax], al
  0x6c48	add    	byte ptr [eax], al
  0x6c4a	add    	byte ptr [eax], al
  0x6c4c	add    	byte ptr [eax], al
  0x6c4e	add    	byte ptr [eax], al
  === BLOCK LINK ===
    0x6c50
=== CODE BLOCK END ===

=== CODE BLOCK ADDRESS 0x6c50 ===
  0x6c50	add    	byte ptr [eax], al
  0x6c52	add    	byte ptr [eax], al
  0x6c54	add    	byte ptr [eax], al
  0x6c56	add    	byte ptr [eax], al
  0x6c58	add    	byte ptr [eax], al
  === BLOCK LINK ===
    0x6c5a
=== CODE BLOCK END ===

=== CODE BLOCK ADDRESS 0x6c5a ===
  0x6c5a	add    	byte ptr [eax], al
  0x6c5c	add    	byte ptr [eax], al
  0x6c5e	add    	byte ptr [eax], al
  0x6c60	add    	byte ptr [eax], al
  0x6c62	add    	byte ptr [eax], al
  === BLOCK LINK ===
    0x6c64
=== CODE BLOCK END ===

=== CODE BLOCK ADDRESS 0x6c64 ===
  0x6c64	add    	byte ptr [eax], al
  0x6c66	add    	byte ptr [eax], al
  0x6c68	add    	byte ptr [eax], al
  0x6c6a	add    	byte ptr [eax], al
  0x6c6c	add    	byte ptr [eax], al
  === BLOCK LINK ===
    0x6c6e
=== CODE BLOCK END ===

=== CODE BLOCK ADDRESS 0x6c6e ===
  0x6c6e	add    	byte ptr [eax], al
  0x6c70	add    	byte ptr [eax], al
  0x6c72	add    	byte ptr [eax], al
  0x6c74	add    	byte ptr [eax], al
  0x6c76	add    	byte ptr [eax], al
  === BLOCK LINK ===
    0x6c78
=== CODE BLOCK END ===

=== CODE BLOCK ADDRESS 0x6c78 ===
  0x6c78	add    	byte ptr [eax], al
  0x6c7a	add    	byte ptr [eax], al
  0x6c7c	add    	byte ptr [eax], al
  0x6c7e	add    	byte ptr [eax], al
  0x6c80	add    	byte ptr [eax], al
  === BLOCK LINK ===
    0x6c82
=== CODE BLOCK END ===

=== CODE BLOCK ADDRESS 0x6c82 ===
  0x6c82	add    	byte ptr [eax], al
  0x6c84	add    	byte ptr [eax], al
  0x6c86	add    	byte ptr [eax], al
  0x6c88	add    	byte ptr [eax], al
  0x6c8a	add    	byte ptr [eax], al
  === BLOCK LINK ===
    0x6c8c
=== CODE BLOCK END ===

=== CODE BLOCK ADDRESS 0x6c8c ===
  0x6c8c	add    	byte ptr [eax], al
  0x6c8e	add    	byte ptr [eax], al
  0x6c90	add    	byte ptr [eax], al
  0x6c92	add    	byte ptr [eax], al
  0x6c94	add    	byte ptr [eax], al
  === BLOCK LINK ===
    0x6c96
=== CODE BLOCK END ===

=== CODE BLOCK ADDRESS 0x6c96 ===
  0x6c96	add    	byte ptr [eax], al
  0x6c98	add    	byte ptr [eax], al
  0x6c9a	add    	byte ptr [eax], al
  0x6c9c	add    	byte ptr [eax], al
  0x6c9e	add    	byte ptr [eax], al
  === BLOCK LINK ===
    0x6ca0
=== CODE BLOCK END ===

=== CODE BLOCK ADDRESS 0x6ca0 ===
  0x6ca0	add    	byte ptr [eax], al
  0x6ca2	add    	byte ptr [eax], al
  0x6ca4	add    	byte ptr [eax], al
  0x6ca6	add    	byte ptr [eax], al
  0x6ca8	add    	byte ptr [eax], al
  === BLOCK LINK ===
    0x6caa
=== CODE BLOCK END ===

=== CODE BLOCK ADDRESS 0x6caa ===
  0x6caa	add    	byte ptr [eax], al
  0x6cac	add    	byte ptr [eax], al
  0x6cae	add    	byte ptr [eax], al
  0x6cb0	add    	byte ptr [eax], al
  0x6cb2	add    	byte ptr [eax], al
  === BLOCK LINK ===
    0x6cb4
=== CODE BLOCK END ===

=== CODE BLOCK ADDRESS 0x6cb4 ===
  0x6cb4	add    	byte ptr [eax], al
  0x6cb6	add    	byte ptr [eax], al
  0x6cb8	add    	byte ptr [eax], al
  0x6cba	add    	byte ptr [eax], al
  0x6cbc	add    	byte ptr [eax], al
  === BLOCK LINK ===
    0x6cbe
=== CODE BLOCK END ===

=== CODE BLOCK ADDRESS 0x6cbe ===
  0x6cbe	add    	byte ptr [eax], al
  0x6cc0	add    	byte ptr [eax], al
  0x6cc2	add    	byte ptr [eax], al
  0x6cc4	add    	byte ptr [eax], al
  0x6cc6	add    	byte ptr [eax], al
  === BLOCK LINK ===
    0x6cc8
=== CODE BLOCK END ===

=== CODE BLOCK ADDRESS 0x6cc8 ===
  0x6cc8	add    	byte ptr [eax], al
  0x6cca	add    	byte ptr [eax], al
  0x6ccc	add    	byte ptr [eax], al
  0x6cce	add    	byte ptr [eax], al
  0x6cd0	add    	byte ptr [eax], al
  === BLOCK LINK ===
    0x6cd2
=== CODE BLOCK END ===

=== CODE BLOCK ADDRESS 0x6cd2 ===
  0x6cd2	add    	byte ptr [eax], al
  0x6cd4	add    	byte ptr [eax], al
  0x6cd6	add    	byte ptr [eax], al
  0x6cd8	add    	byte ptr [eax], al
  0x6cda	add    	byte ptr [eax], al
  === BLOCK LINK ===
    0x6cdc
=== CODE BLOCK END ===

=== CODE BLOCK ADDRESS 0x6cdc ===
  0x6cdc	add    	byte ptr [eax], al
  0x6cde	add    	byte ptr [eax], al
  0x6ce0	add    	byte ptr [eax], al
  0x6ce2	add    	byte ptr [eax], al
  0x6ce4	add    	byte ptr [eax], al
  === BLOCK LINK ===
    0x6ce6
=== CODE BLOCK END ===

=== CODE BLOCK ADDRESS 0x6ce6 ===
  0x6ce6	add    	byte ptr [eax], al
  0x6ce8	add    	byte ptr [eax], al
  0x6cea	add    	byte ptr [eax], al
  0x6cec	add    	byte ptr [eax], al
  0x6cee	add    	byte ptr [eax], al
  === BLOCK LINK ===
    0x6cf0
=== CODE BLOCK END ===

=== CODE BLOCK ADDRESS 0x6cf0 ===
  0x6cf0	add    	byte ptr [eax], al
  0x6cf2	add    	byte ptr [eax], al
  0x6cf4	add    	byte ptr [eax], al
  0x6cf6	add    	byte ptr [eax], al
  0x6cf8	add    	byte ptr [eax], al
  === BLOCK LINK ===
    0x6cfa
=== CODE BLOCK END ===

=== CODE BLOCK ADDRESS 0x6cfa ===
  0x6cfa	add    	byte ptr [eax], al
  0x6cfc	add    	byte ptr [eax], al
  0x6cfe	add    	byte ptr [eax], al
  0x6d00	add    	byte ptr [eax], al
  0x6d02	add    	byte ptr [eax], al
  === BLOCK LINK ===
    0x6d04
=== CODE BLOCK END ===

=== CODE BLOCK ADDRESS 0x6d04 ===
  0x6d04	add    	byte ptr [eax], al
  0x6d06	add    	byte ptr [eax], al
  0x6d08	add    	byte ptr [eax], al
  0x6d0a	add    	byte ptr [eax], al
  0x6d0c	add    	byte ptr [eax], al
  === BLOCK LINK ===
    0x6d0e
=== CODE BLOCK END ===

=== CODE BLOCK ADDRESS 0x6d0e ===
  0x6d0e	add    	byte ptr [eax], al
  0x6d10	add    	byte ptr [eax], al
  0x6d12	add    	byte ptr [eax], al
  0x6d14	add    	byte ptr [eax], al
  0x6d16	add    	byte ptr [eax], al
  === BLOCK LINK ===
    0x6d18
=== CODE BLOCK END ===

=== CODE BLOCK ADDRESS 0x6d18 ===
  0x6d18	add    	byte ptr [eax], al
  0x6d1a	add    	byte ptr [eax], al
  0x6d1c	add    	byte ptr [eax], al
  0x6d1e	add    	byte ptr [eax], al
  0x6d20	add    	byte ptr [eax], al
  === BLOCK LINK ===
    0x6d22
=== CODE BLOCK END ===

=== CODE BLOCK ADDRESS 0x6d22 ===
  0x6d22	add    	byte ptr [eax], al
  0x6d24	add    	byte ptr [eax], al
  0x6d26	add    	byte ptr [eax], al
  0x6d28	add    	byte ptr [eax], al
  0x6d2a	add    	byte ptr [eax], al
  === BLOCK LINK ===
    0x6d2c
=== CODE BLOCK END ===

=== CODE BLOCK ADDRESS 0x6d2c ===
  0x6d2c	add    	byte ptr [eax], al
  0x6d2e	add    	byte ptr [eax], al
  0x6d30	add    	byte ptr [eax], al
  0x6d32	add    	byte ptr [eax], al
  0x6d34	add    	byte ptr [eax], al
  === BLOCK LINK ===
    0x6d36
=== CODE BLOCK END ===

=== CODE BLOCK ADDRESS 0x6d36 ===
  0x6d36	add    	byte ptr [eax], al
  0x6d38	add    	byte ptr [eax], al
  0x6d3a	add    	byte ptr [eax], al
  0x6d3c	add    	byte ptr [eax], al
  0x6d3e	add    	byte ptr [eax], al
  === BLOCK LINK ===
    0x6d40
=== CODE BLOCK END ===

=== CODE BLOCK ADDRESS 0x6d40 ===
  0x6d40	add    	byte ptr [eax], al
  0x6d42	add    	byte ptr [eax], al
  0x6d44	add    	byte ptr [eax], al
  0x6d46	add    	byte ptr [eax], al
  0x6d48	add    	byte ptr [eax], al
  === BLOCK LINK ===
    0x6d4a
=== CODE BLOCK END ===

=== CODE BLOCK ADDRESS 0x6d4a ===
  0x6d4a	add    	byte ptr [eax], al
  0x6d4c	add    	byte ptr [eax], al
  0x6d4e	add    	byte ptr [eax], al
  0x6d50	add    	byte ptr [eax], al
  0x6d52	add    	byte ptr [eax], al
  === BLOCK LINK ===
    0x6d54
=== CODE BLOCK END ===

=== CODE BLOCK ADDRESS 0x6d54 ===
  0x6d54	add    	byte ptr [eax], al
  0x6d56	add    	byte ptr [eax], al
  0x6d58	add    	byte ptr [eax], al
  0x6d5a	add    	byte ptr [eax], al
  0x6d5c	add    	byte ptr [eax], al
  === BLOCK LINK ===
    0x6d5e
=== CODE BLOCK END ===

=== CODE BLOCK ADDRESS 0x6d5e ===
  0x6d5e	add    	byte ptr [eax], al
  0x6d60	add    	byte ptr [eax], al
  0x6d62	add    	byte ptr [eax], al
  0x6d64	add    	byte ptr [eax], al
  0x6d66	add    	byte ptr [eax], al
  === BLOCK LINK ===
    0x6d68
=== CODE BLOCK END ===

=== CODE BLOCK ADDRESS 0x6d68 ===
  0x6d68	add    	byte ptr [eax], al
  0x6d6a	add    	byte ptr [eax], al
  0x6d6c	add    	byte ptr [eax], al
  0x6d6e	add    	byte ptr [eax], al
  0x6d70	add    	byte ptr [eax], al
  === BLOCK LINK ===
    0x6d72
=== CODE BLOCK END ===

=== CODE BLOCK ADDRESS 0x6d72 ===
  0x6d72	add    	byte ptr [eax], al
  0x6d74	add    	byte ptr [eax], al
  0x6d76	add    	byte ptr [eax], al
  0x6d78	add    	byte ptr [eax], al
  0x6d7a	add    	byte ptr [eax], al
  === BLOCK LINK ===
    0x6d7c
=== CODE BLOCK END ===

=== CODE BLOCK ADDRESS 0x6d7c ===
  0x6d7c	add    	byte ptr [eax], al
  0x6d7e	add    	byte ptr [eax], al
  0x6d80	add    	byte ptr [eax], al
  0x6d82	add    	byte ptr [eax], al
  0x6d84	add    	byte ptr [eax], al
  === BLOCK LINK ===
    0x6d86
=== CODE BLOCK END ===

=== CODE BLOCK ADDRESS 0x6d86 ===
  0x6d86	add    	byte ptr [eax], al
  0x6d88	add    	byte ptr [eax], al
  0x6d8a	add    	byte ptr [eax], al
  0x6d8c	add    	byte ptr [eax], al
  0x6d8e	add    	byte ptr [eax], al
  === BLOCK LINK ===
    0x6d90
=== CODE BLOCK END ===

=== CODE BLOCK ADDRESS 0x6d90 ===
  0x6d90	add    	byte ptr [eax], al
  0x6d92	add    	byte ptr [eax], al
  0x6d94	add    	byte ptr [eax], al
  0x6d96	add    	byte ptr [eax], al
  0x6d98	add    	byte ptr [eax], al
  === BLOCK LINK ===
    0x6d9a
=== CODE BLOCK END ===

=== CODE BLOCK ADDRESS 0x6d9a ===
  0x6d9a	add    	byte ptr [eax], al
  0x6d9c	add    	byte ptr [eax], al
  0x6d9e	add    	byte ptr [eax], al
  0x6da0	add    	byte ptr [eax], al
  0x6da2	add    	byte ptr [eax], al
  === BLOCK LINK ===
    0x6da4
=== CODE BLOCK END ===

=== CODE BLOCK ADDRESS 0x6da4 ===
  0x6da4	add    	byte ptr [eax], al
  0x6da6	add    	byte ptr [eax], al
  0x6da8	add    	byte ptr [eax], al
  0x6daa	add    	byte ptr [eax], al
  0x6dac	add    	byte ptr [eax], al
  === BLOCK LINK ===
    0x6dae
=== CODE BLOCK END ===

=== CODE BLOCK ADDRESS 0x6dae ===
  0x6dae	add    	byte ptr [eax], al
  0x6db0	add    	byte ptr [eax], al
  0x6db2	add    	byte ptr [eax], al
  0x6db4	add    	byte ptr [eax], al
  0x6db6	add    	byte ptr [eax], al
  === BLOCK LINK ===
    0x6db8
=== CODE BLOCK END ===

=== CODE BLOCK ADDRESS 0x6db8 ===
  0x6db8	add    	byte ptr [eax], al
  0x6dba	add    	byte ptr [eax], al
  0x6dbc	add    	byte ptr [eax], al
  0x6dbe	add    	byte ptr [eax], al
  0x6dc0	add    	byte ptr [eax], al
  === BLOCK LINK ===
    0x6dc2
=== CODE BLOCK END ===

=== CODE BLOCK ADDRESS 0x6dc2 ===
  0x6dc2	add    	byte ptr [eax], al
  0x6dc4	add    	byte ptr [eax], al
  0x6dc6	add    	byte ptr [eax], al
  0x6dc8	add    	byte ptr [eax], al
  0x6dca	add    	byte ptr [eax], al
  === BLOCK LINK ===
    0x6dcc
=== CODE BLOCK END ===

=== CODE BLOCK ADDRESS 0x6dcc ===
  0x6dcc	add    	byte ptr [eax], al
  0x6dce	add    	byte ptr [eax], al
  0x6dd0	add    	byte ptr [eax], al
  0x6dd2	add    	byte ptr [eax], al
  0x6dd4	add    	byte ptr [eax], al
  === BLOCK LINK ===
    0x6dd6
=== CODE BLOCK END ===

=== CODE BLOCK ADDRESS 0x6dd6 ===
  0x6dd6	add    	byte ptr [eax], al
  0x6dd8	add    	byte ptr [eax], al
  0x6dda	add    	byte ptr [eax], al
  0x6ddc	add    	byte ptr [eax], al
  0x6dde	add    	byte ptr [eax], al
  === BLOCK LINK ===
    0x6de0
=== CODE BLOCK END ===

=== CODE BLOCK ADDRESS 0x6de0 ===
  0x6de0	add    	byte ptr [eax], al
  0x6de2	add    	byte ptr [eax], al
  0x6de4	add    	byte ptr [eax], al
  0x6de6	add    	byte ptr [eax], al
  0x6de8	add    	byte ptr [eax], al
  === BLOCK LINK ===
    0x6dea
=== CODE BLOCK END ===

=== CODE BLOCK ADDRESS 0x6dea ===
  0x6dea	add    	byte ptr [eax], al
  0x6dec	add    	byte ptr [eax], al
  0x6dee	add    	byte ptr [eax], al
  0x6df0	add    	byte ptr [eax], al
  0x6df2	add    	byte ptr [eax], al
  === BLOCK LINK ===
    0x6df4
=== CODE BLOCK END ===

=== CODE BLOCK ADDRESS 0x6df4 ===
  0x6df4	add    	byte ptr [eax], al
  0x6df6	add    	byte ptr [eax], al
  0x6df8	add    	byte ptr [eax], al
  0x6dfa	add    	byte ptr [eax], al
  0x6dfc	add    	byte ptr [eax], al
  === BLOCK LINK ===
    0x6dfe
=== CODE BLOCK END ===

=== CODE BLOCK ADDRESS 0x6dfe ===
  0x6dfe	add    	byte ptr [eax], al
  0x6e00	add    	byte ptr [eax], al
  0x6e02	add    	byte ptr [eax], al
  0x6e04	add    	byte ptr [eax], al
  0x6e06	add    	byte ptr [eax], al
  === BLOCK LINK ===
    0x6e08
=== CODE BLOCK END ===

=== CODE BLOCK ADDRESS 0x6e08 ===
  0x6e08	add    	byte ptr [eax], al
  0x6e0a	add    	byte ptr [eax], al
  0x6e0c	add    	byte ptr [eax], al
  0x6e0e	add    	byte ptr [eax], al
  0x6e10	add    	byte ptr [eax], al
  === BLOCK LINK ===
    0x6e12
=== CODE BLOCK END ===

=== CODE BLOCK ADDRESS 0x6e12 ===
  0x6e12	add    	byte ptr [eax], al
  0x6e14	add    	byte ptr [eax], al
  0x6e16	add    	byte ptr [eax], al
  0x6e18	add    	byte ptr [eax], al
  0x6e1a	add    	byte ptr [eax], al
  === BLOCK LINK ===
    0x6e1c
=== CODE BLOCK END ===

=== CODE BLOCK ADDRESS 0x6e1c ===
  0x6e1c	add    	byte ptr [eax], al
  0x6e1e	add    	byte ptr [eax], al
  0x6e20	add    	byte ptr [eax], al
  0x6e22	add    	byte ptr [eax], al
  0x6e24	add    	byte ptr [eax], al
  === BLOCK LINK ===
    0x6e26
=== CODE BLOCK END ===

=== CODE BLOCK ADDRESS 0x6e26 ===
  0x6e26	add    	byte ptr [eax], al
  0x6e28	add    	byte ptr [eax], al
  0x6e2a	add    	byte ptr [eax], al
  0x6e2c	add    	byte ptr [eax], al
  0x6e2e	add    	byte ptr [eax], al
  === BLOCK LINK ===
    0x6e30
=== CODE BLOCK END ===

=== CODE BLOCK ADDRESS 0x6e30 ===
  0x6e30	add    	byte ptr [eax], al
  0x6e32	add    	byte ptr [eax], al
  0x6e34	add    	byte ptr [eax], al
  0x6e36	add    	byte ptr [eax], al
  0x6e38	add    	byte ptr [eax], al
  === BLOCK LINK ===
    0x6e3a
=== CODE BLOCK END ===

=== CODE BLOCK ADDRESS 0x6e3a ===
  0x6e3a	add    	byte ptr [eax], al
  0x6e3c	add    	byte ptr [eax], al
  0x6e3e	add    	byte ptr [eax], al
  0x6e40	add    	byte ptr [eax], al
  0x6e42	add    	byte ptr [eax], al
  === BLOCK LINK ===
    0x6e44
=== CODE BLOCK END ===

=== CODE BLOCK ADDRESS 0x6e44 ===
  0x6e44	add    	byte ptr [eax], al
  0x6e46	add    	byte ptr [eax], al
  0x6e48	add    	byte ptr [eax], al
  0x6e4a	add    	byte ptr [eax], al
  0x6e4c	add    	byte ptr [eax], al
  === BLOCK LINK ===
    0x6e4e
=== CODE BLOCK END ===

=== CODE BLOCK ADDRESS 0x6e4e ===
  0x6e4e	add    	byte ptr [eax], al
  0x6e50	add    	byte ptr [eax], al
  0x6e52	add    	byte ptr [eax], al
  0x6e54	add    	byte ptr [eax], al
  0x6e56	add    	byte ptr [eax], al
  === BLOCK LINK ===
    0x6e58
=== CODE BLOCK END ===

=== CODE BLOCK ADDRESS 0x6e58 ===
  0x6e58	add    	byte ptr [eax], al
  0x6e5a	add    	byte ptr [eax], al
  0x6e5c	add    	byte ptr [eax], al
  0x6e5e	add    	byte ptr [eax], al
  0x6e60	add    	byte ptr [eax], al
  === BLOCK LINK ===
    0x6e62
=== CODE BLOCK END ===

=== CODE BLOCK ADDRESS 0x6e62 ===
  0x6e62	add    	byte ptr [eax], al
  0x6e64	add    	byte ptr [eax], al
  0x6e66	add    	byte ptr [eax], al
  0x6e68	add    	byte ptr [eax], al
  0x6e6a	add    	byte ptr [eax], al
  === BLOCK LINK ===
    0x6e6c
=== CODE BLOCK END ===

=== CODE BLOCK ADDRESS 0x6e6c ===
  0x6e6c	add    	byte ptr [eax], al
  0x6e6e	add    	byte ptr [eax], al
  0x6e70	add    	byte ptr [eax], al
  0x6e72	add    	byte ptr [eax], al
  0x6e74	add    	byte ptr [eax], al
  === BLOCK LINK ===
    0x6e76
=== CODE BLOCK END ===

=== CODE BLOCK ADDRESS 0x6e76 ===
  0x6e76	add    	byte ptr [eax], al
  0x6e78	add    	byte ptr [eax], al
  0x6e7a	add    	byte ptr [eax], al
  0x6e7c	add    	byte ptr [eax], al
  0x6e7e	add    	byte ptr [eax], al
  === BLOCK LINK ===
    0x6e80
=== CODE BLOCK END ===

=== CODE BLOCK ADDRESS 0x6e80 ===
  0x6e80	add    	byte ptr [eax], al
  0x6e82	add    	byte ptr [eax], al
  0x6e84	add    	byte ptr [eax], al
  0x6e86	add    	byte ptr [eax], al
  0x6e88	add    	byte ptr [eax], al
  === BLOCK LINK ===
    0x6e8a
=== CODE BLOCK END ===

=== CODE BLOCK ADDRESS 0x6e8a ===
  0x6e8a	add    	byte ptr [eax], al
  0x6e8c	add    	byte ptr [eax], al
  0x6e8e	add    	byte ptr [eax], al
  0x6e90	add    	byte ptr [eax], al
  0x6e92	add    	byte ptr [eax], al
  === BLOCK LINK ===
    0x6e94
=== CODE BLOCK END ===

=== CODE BLOCK ADDRESS 0x6e94 ===
  0x6e94	add    	byte ptr [eax], al
  0x6e96	add    	byte ptr [eax], al
  0x6e98	add    	byte ptr [eax], al
  0x6e9a	add    	byte ptr [eax], al
  0x6e9c	add    	byte ptr [eax], al
  === BLOCK LINK ===
    0x6e9e
=== CODE BLOCK END ===

=== CODE BLOCK ADDRESS 0x6e9e ===
  0x6e9e	add    	byte ptr [eax], al
  0x6ea0	add    	byte ptr [eax], al
  0x6ea2	add    	byte ptr [eax], al
  0x6ea4	add    	byte ptr [eax], al
  0x6ea6	add    	byte ptr [eax], al
  === BLOCK LINK ===
    0x6ea8
=== CODE BLOCK END ===

=== CODE BLOCK ADDRESS 0x6ea8 ===
  0x6ea8	add    	byte ptr [eax], al
  0x6eaa	add    	byte ptr [eax], al
  0x6eac	add    	byte ptr [eax], al
  0x6eae	add    	byte ptr [eax], al
  0x6eb0	add    	byte ptr [eax], al
  === BLOCK LINK ===
    0x6eb2
=== CODE BLOCK END ===

=== CODE BLOCK ADDRESS 0x6eb2 ===
  0x6eb2	add    	byte ptr [eax], al
  0x6eb4	add    	byte ptr [eax], al
  0x6eb6	add    	byte ptr [eax], al
  0x6eb8	add    	byte ptr [eax], al
  0x6eba	add    	byte ptr [eax], al
  === BLOCK LINK ===
    0x6ebc
=== CODE BLOCK END ===

=== CODE BLOCK ADDRESS 0x6ebc ===
  0x6ebc	add    	byte ptr [eax], al
  0x6ebe	add    	byte ptr [eax], al
  0x6ec0	add    	byte ptr [eax], al
  0x6ec2	add    	byte ptr [eax], al
  0x6ec4	add    	byte ptr [eax], al
  === BLOCK LINK ===
    0x6ec6
=== CODE BLOCK END ===

=== CODE BLOCK ADDRESS 0x6ec6 ===
  0x6ec6	add    	byte ptr [eax], al
  0x6ec8	add    	byte ptr [eax], al
  0x6eca	add    	byte ptr [eax], al
  0x6ecc	add    	byte ptr [eax], al
  0x6ece	add    	byte ptr [eax], al
  === BLOCK LINK ===
    0x6ed0
=== CODE BLOCK END ===

=== CODE BLOCK ADDRESS 0x6ed0 ===
  0x6ed0	add    	byte ptr [eax], al
  0x6ed2	add    	byte ptr [eax], al
  0x6ed4	add    	byte ptr [eax], al
  0x6ed6	add    	byte ptr [eax], al
  0x6ed8	add    	byte ptr [eax], al
  === BLOCK LINK ===
    0x6eda
=== CODE BLOCK END ===

=== CODE BLOCK ADDRESS 0x6eda ===
  0x6eda	add    	byte ptr [eax], al
  0x6edc	add    	byte ptr [eax], al
  0x6ede	add    	byte ptr [eax], al
  0x6ee0	add    	byte ptr [eax], al
  0x6ee2	add    	byte ptr [eax], al
  === BLOCK LINK ===
    0x6ee4
=== CODE BLOCK END ===

=== CODE BLOCK ADDRESS 0x6ee4 ===
  0x6ee4	add    	byte ptr [eax], al
  0x6ee6	add    	byte ptr [eax], al
  0x6ee8	add    	byte ptr [eax], al
  0x6eea	add    	byte ptr [eax], al
  0x6eec	add    	byte ptr [eax], al
  === BLOCK LINK ===
    0x6eee
=== CODE BLOCK END ===

=== CODE BLOCK ADDRESS 0x6eee ===
  0x6eee	add    	byte ptr [eax], al
  0x6ef0	add    	byte ptr [eax], al
  0x6ef2	add    	byte ptr [eax], al
  0x6ef4	add    	byte ptr [eax], al
  0x6ef6	add    	byte ptr [eax], al
  === BLOCK LINK ===
    0x6ef8
=== CODE BLOCK END ===

=== CODE BLOCK ADDRESS 0x6ef8 ===
  0x6ef8	add    	byte ptr [eax], al
  0x6efa	add    	byte ptr [eax], al
  0x6efc	add    	byte ptr [eax], al
  0x6efe	add    	byte ptr [eax], al
  0x6f00	add    	byte ptr [eax], al
  === BLOCK LINK ===
    0x6f02
=== CODE BLOCK END ===

=== CODE BLOCK ADDRESS 0x6f02 ===
  0x6f02	add    	byte ptr [eax], al
  0x6f04	add    	byte ptr [eax], al
  0x6f06	add    	byte ptr [eax], al
  0x6f08	add    	byte ptr [eax], al
  0x6f0a	add    	byte ptr [eax], al
  === BLOCK LINK ===
    0x6f0c
=== CODE BLOCK END ===

=== CODE BLOCK ADDRESS 0x6f0c ===
  0x6f0c	add    	byte ptr [eax], al
  0x6f0e	add    	byte ptr [eax], al
  0x6f10	add    	byte ptr [eax], al
  0x6f12	add    	byte ptr [eax], al
  0x6f14	add    	byte ptr [eax], al
  === BLOCK LINK ===
    0x6f16
=== CODE BLOCK END ===

=== CODE BLOCK ADDRESS 0x6f16 ===
  0x6f16	add    	byte ptr [eax], al
  0x6f18	add    	byte ptr [eax], al
  0x6f1a	add    	byte ptr [eax], al
  0x6f1c	add    	byte ptr [eax], al
  0x6f1e	add    	byte ptr [eax], al
  === BLOCK LINK ===
    0x6f20
=== CODE BLOCK END ===

=== CODE BLOCK ADDRESS 0x6f20 ===
  0x6f20	add    	byte ptr [eax], al
  0x6f22	add    	byte ptr [eax], al
  0x6f24	add    	byte ptr [eax], al
  0x6f26	add    	byte ptr [eax], al
  0x6f28	add    	byte ptr [eax], al
  === BLOCK LINK ===
    0x6f2a
=== CODE BLOCK END ===

=== CODE BLOCK ADDRESS 0x6f2a ===
  0x6f2a	add    	byte ptr [eax], al
  0x6f2c	add    	byte ptr [eax], al
  0x6f2e	add    	byte ptr [eax], al
  0x6f30	add    	byte ptr [eax], al
  0x6f32	add    	byte ptr [eax], al
  === BLOCK LINK ===
    0x6f34
=== CODE BLOCK END ===

=== CODE BLOCK ADDRESS 0x6f34 ===
  0x6f34	add    	byte ptr [eax], al
  0x6f36	add    	byte ptr [eax], al
  0x6f38	add    	byte ptr [eax], al
  0x6f3a	add    	byte ptr [eax], al
  0x6f3c	add    	byte ptr [eax], al
  === BLOCK LINK ===
    0x6f3e
=== CODE BLOCK END ===

=== CODE BLOCK ADDRESS 0x6f3e ===
  0x6f3e	add    	byte ptr [eax], al
  0x6f40	add    	byte ptr [eax], al
  0x6f42	add    	byte ptr [eax], al
  0x6f44	add    	byte ptr [eax], al
  0x6f46	add    	byte ptr [eax], al
  === BLOCK LINK ===
    0x6f48
=== CODE BLOCK END ===

=== CODE BLOCK ADDRESS 0x6f48 ===
  0x6f48	add    	byte ptr [eax], al
  0x6f4a	add    	byte ptr [eax], al
  0x6f4c	add    	byte ptr [eax], al
  0x6f4e	add    	byte ptr [eax], al
  0x6f50	add    	byte ptr [eax], al
  === BLOCK LINK ===
    0x6f52
=== CODE BLOCK END ===

=== CODE BLOCK ADDRESS 0x6f52 ===
  0x6f52	add    	byte ptr [eax], al
  0x6f54	add    	byte ptr [eax], al
  0x6f56	add    	byte ptr [eax], al
  0x6f58	add    	byte ptr [eax], al
  0x6f5a	add    	byte ptr [eax], al
  === BLOCK LINK ===
    0x6f5c
=== CODE BLOCK END ===

=== CODE BLOCK ADDRESS 0x6f5c ===
  0x6f5c	add    	byte ptr [eax], al
  0x6f5e	add    	byte ptr [eax], al
  0x6f60	add    	byte ptr [eax], al
  0x6f62	add    	byte ptr [eax], al
  0x6f64	add    	byte ptr [eax], al
  === BLOCK LINK ===
    0x6f66
=== CODE BLOCK END ===

=== CODE BLOCK ADDRESS 0x6f66 ===
  0x6f66	add    	byte ptr [eax], al
  0x6f68	add    	byte ptr [eax], al
  0x6f6a	add    	byte ptr [eax], al
  0x6f6c	add    	byte ptr [eax], al
  0x6f6e	add    	byte ptr [eax], al
  === BLOCK LINK ===
    0x6f70
=== CODE BLOCK END ===

=== CODE BLOCK ADDRESS 0x6f70 ===
  0x6f70	add    	byte ptr [eax], al
  0x6f72	add    	byte ptr [eax], al
  0x6f74	add    	byte ptr [eax], al
  0x6f76	add    	byte ptr [eax], al
  0x6f78	add    	byte ptr [eax], al
  === BLOCK LINK ===
    0x6f7a
=== CODE BLOCK END ===

=== CODE BLOCK ADDRESS 0x6f7a ===
  0x6f7a	add    	byte ptr [eax], al
  0x6f7c	add    	byte ptr [eax], al
  0x6f7e	add    	byte ptr [eax], al
  0x6f80	add    	byte ptr [eax], al
  0x6f82	add    	byte ptr [eax], al
  === BLOCK LINK ===
    0x6f84
=== CODE BLOCK END ===

=== CODE BLOCK ADDRESS 0x6f84 ===
  0x6f84	add    	byte ptr [eax], al
  0x6f86	add    	byte ptr [eax], al
  0x6f88	add    	byte ptr [eax], al
  0x6f8a	add    	byte ptr [eax], al
  0x6f8c	add    	byte ptr [eax], al
  === BLOCK LINK ===
    0x6f8e
=== CODE BLOCK END ===

=== CODE BLOCK ADDRESS 0x6f8e ===
  0x6f8e	add    	byte ptr [eax], al
  0x6f90	add    	byte ptr [eax], al
  0x6f92	add    	byte ptr [eax], al
  0x6f94	add    	byte ptr [eax], al
  0x6f96	add    	byte ptr [eax], al
  === BLOCK LINK ===
    0x6f98
=== CODE BLOCK END ===

=== CODE BLOCK ADDRESS 0x6f98 ===
  0x6f98	add    	byte ptr [eax], al
  0x6f9a	add    	byte ptr [eax], al
  0x6f9c	add    	byte ptr [eax], al
  0x6f9e	add    	byte ptr [eax], al
  0x6fa0	add    	byte ptr [eax], al
  === BLOCK LINK ===
    0x6fa2
=== CODE BLOCK END ===

=== CODE BLOCK ADDRESS 0x6fa2 ===
  0x6fa2	add    	byte ptr [eax], al
  0x6fa4	add    	byte ptr [eax], al
  0x6fa6	add    	byte ptr [eax], al
  0x6fa8	add    	byte ptr [eax], al
  0x6faa	add    	byte ptr [eax], al
  === BLOCK LINK ===
    0x6fac
=== CODE BLOCK END ===

=== CODE BLOCK ADDRESS 0x6fac ===
  0x6fac	add    	byte ptr [eax], al
  0x6fae	add    	byte ptr [eax], al
  0x6fb0	add    	byte ptr [eax], al
  0x6fb2	add    	byte ptr [eax], al
  0x6fb4	add    	byte ptr [eax], al
  === BLOCK LINK ===
    0x6fb6
=== CODE BLOCK END ===

=== CODE BLOCK ADDRESS 0x6fb6 ===
  0x6fb6	add    	byte ptr [eax], al
  0x6fb8	add    	byte ptr [eax], al
  0x6fba	add    	byte ptr [eax], al
  0x6fbc	add    	byte ptr [eax], al
  0x6fbe	add    	byte ptr [eax], al
  === BLOCK LINK ===
    0x6fc0
=== CODE BLOCK END ===

=== CODE BLOCK ADDRESS 0x6fc0 ===
  0x6fc0	add    	byte ptr [eax], al
  0x6fc2	add    	byte ptr [eax], al
  0x6fc4	add    	byte ptr [eax], al
  0x6fc6	add    	byte ptr [eax], al
  0x6fc8	add    	byte ptr [eax], al
  === BLOCK LINK ===
    0x6fca
=== CODE BLOCK END ===

=== CODE BLOCK ADDRESS 0x6fca ===
  0x6fca	add    	byte ptr [eax], al
  0x6fcc	add    	byte ptr [eax], al
  0x6fce	add    	byte ptr [eax], al
  0x6fd0	add    	byte ptr [eax], al
  0x6fd2	add    	byte ptr [eax], al
  === BLOCK LINK ===
    0x6fd4
=== CODE BLOCK END ===

=== CODE BLOCK ADDRESS 0x6fd4 ===
  0x6fd4	add    	byte ptr [eax], al
  0x6fd6	add    	byte ptr [eax], al
  0x6fd8	add    	byte ptr [eax], al
  0x6fda	add    	byte ptr [eax], al
  0x6fdc	add    	byte ptr [eax], al
  === BLOCK LINK ===
    0x6fde
=== CODE BLOCK END ===

=== CODE BLOCK ADDRESS 0x6fde ===
  0x6fde	add    	byte ptr [eax], al
  0x6fe0	add    	byte ptr [eax], al
  0x6fe2	add    	byte ptr [eax], al
  0x6fe4	add    	byte ptr [eax], al
  0x6fe6	add    	byte ptr [eax], al
  === BLOCK LINK ===
    0x6fe8
=== CODE BLOCK END ===

=== CODE BLOCK ADDRESS 0x6fe8 ===
  0x6fe8	add    	byte ptr [eax], al
  0x6fea	add    	byte ptr [eax], al
  0x6fec	add    	byte ptr [eax], al
  0x6fee	add    	byte ptr [eax], al
  0x6ff0	add    	byte ptr [eax], al
  === BLOCK LINK ===
    0x6ff2
=== CODE BLOCK END ===

=== CODE BLOCK ADDRESS 0x6ff2 ===
  0x6ff2	add    	byte ptr [eax], al
  0x6ff4	add    	byte ptr [eax], al
  0x6ff6	add    	byte ptr [eax], al
  0x6ff8	add    	byte ptr [eax], al
  0x6ffa	add    	byte ptr [eax], al
  === BLOCK LINK ===
    0x6ffc
=== CODE BLOCK END ===

=== CODE BLOCK ADDRESS 0x6ffc ===
  0x6ffc	add    	byte ptr [eax], al
=== CODE BLOCK END ===

=== DATA BLOCK ADDRESS 0x7000 ===
  0x7000	80 a1 00 40 01 00 00 00 20 a2 00 40 01 00 00 00 	000@0000 00@0000
  0x7010	00 80 00 40 01 00 00 00 80 18 00 40 01 00 00 00 	000@0000000@0000
  0x7020	78 80 00 40 01 00 00 00 00 31 00 40 01 00 00 00 	x00@0000010@0000
  0x7030	e0 60 00 40 01 00 00 00 f0 80 00 40 01 00 00 00 	0`0@0000000@0000
  0x7040	60 1f 00 40 01 00 00 00 e0 60 00 40 01 00 00 00 	`00@00000`0@0000
  0x7050	70 81 00 40 01 00 00 00 60 1f 00 40 01 00 00 00 	p00@0000`00@0000
  0x7060	e0 60 00 40 01 00 00 00 70 20 00 40 01 00 00 00 	0`0@0000p 0@0000
  0x7070	70 20 00 40 01 00 00 00 70 20 00 40 01 00 00 00 	p 0@0000p 0@0000
  0x7080	70 20 00 40 01 00 00 00 e0 48 00 40 01 00 00 00 	p 0@00000H0@0000
  0x7090	00 34 00 40 01 00 00 00 80 4b 00 40 01 00 00 00 	040@00000K0@0000
  0x70a0	c0 40 00 40 01 00 00 00 60 30 00 40 01 00 00 00 	0@0@0000`00@0000
  0x70b0	e0 48 00 40 01 00 00 00 00 34 00 40 01 00 00 00 	0H0@0000040@0000
  0x70c0	80 4b 00 40 01 00 00 00 70 20 00 40 01 00 00 00 	0K0@0000p 0@0000
  0x70d0	90 30 00 40 01 00 00 00 c0 30 00 40 01 00 00 00 	000@0000000@0000
  0x70e0	20 60 00 40 01 00 00 00 00 00 00 00 00 00 00 00 	 `0@000000000000
  0x70f0	40 01 00 00 00 00 00 00 00 00 00 00 00 00 00 00 	@000000000000000
  0x7100	00 00 00 00 00 00 00 00 00 00 00 00 00 00 00 00 	0000000000000000
  0x7110	00 00 00 00 00 00 00 00 00 00 00 00 00 00 00 00 	0000000000000000
  0x7120	00 00 00 00 00 00 00 00 00 00 00 00 00 00 00 00 	0000000000000000
  0x7130	00 00 00 00 00 00 00 00 00 00 00 00 00 00 00 00 	0000000000000000
  0x7140	00 00 00 00 00 00 00 00 e0 a0 00 40 01 00 00 00 	00000000000@0000
  0x7150	00 00 00 00 00 00 00 00 00 00 00 00 00 00 00 00 	0000000000000000
  0x7160	78 75 00 40 01 00 00 00 88 75 00 40 01 00 00 00 	xu0@00000u0@0000
  0x7170	48 76 00 40 01 00 00 00 29 00 00 00 00 00 00 00 	Hv0@0000)0000000
  0x7180	00 75 c1 10 00 00 00 00 00 00 00 00 00 00 00 00 	0u00000000000000
  0x7190	00 00 00 00 00 00 00 00 00 00 00 00 00 00 00 00 	0000000000000000
  0x71a0	00 00 00 00 00 00 00 00 00 00 00 00 00 00 00 00 	0000000000000000
  0x71b0	00 00 00 00 00 00 00 00 00 00 00 00 00 00 00 00 	0000000000000000
  0x71c0	00 00 00 00 00 00 00 00 00 00 00 00 00 00 00 00 	0000000000000000
  0x71d0	00 00 00 00 00 00 00 00 00 00 00 00 00 00 00 00 	0000000000000000
  0x71e0	00 00 00 00 00 00 00 00 00 00 00 00 00 00 00 00 	0000000000000000
  0x71f0	00 00 00 00 00 00 00 00 38 76 00 40 01 00 00 00 	000000008v0@0000
  0x7200	03 00 00 00 00 00 00 00 80 75 00 40 01 00 00 00 	000000000u0@0000
  0x7210	90 75 00 40 01 00 00 00 98 75 00 40 01 00 00 00 	0u0@00000u0@0000
  0x7220	a0 75 00 40 01 00 00 00 00 00 00 00 00 00 00 00 	0u0@000000000000
  0x7230	04 9a 00 00 00 00 00 00 74 9a 00 00 00 00 00 00 	00000000t0000000
  0x7240	bc 9b 00 00 00 00 00 00 00 00 00 00 00 00 00 00 	0000000000000000
  0x7250	e4 9a 00 00 00 00 00 00 dc 9b 00 00 00 00 00 00 	0000000000000000
  0x7260	ce 9b 00 00 00 00 00 00 00 00 00 00 00 00 00 00 	0000000000000000
  0x7270	4e 9c 00 00 00 00 00 00 32 9c 00 00 00 00 00 00 	N000000020000000
  0x7280	3e 9b 00 00 00 00 00 00 9e 99 00 00 00 00 00 00 	>000000000000000
  0x7290	d4 9a 00 00 00 00 00 00 00 00 00 00 00 00 00 00 	0000000000000000
  0x72a0	30 9b 00 00 00 00 00 00 00 00 00 00 00 00 00 00 	0000000000000000
  0x72b0	92 99 00 00 00 00 00 00 50 9b 00 00 00 00 00 00 	00000000P0000000
  0x72c0	96 9b 00 00 00 00 00 00 00 00 00 00 00 00 00 00 	0000000000000000
  0x72d0	e4 9c 00 00 00 00 00 00 00 00 00 00 00 00 00 00 	0000000000000000
  0x72e0	d4 99 00 00 00 00 00 00 a8 9b 00 00 00 00 00 00 	0000000000000000
  0x72f0	66 99 00 00 00 00 00 00 5c 9b 00 00 00 00 00 00 	f000000000000000
  0x7300	00 00 00 00 00 00 00 00 88 9a 00 00 00 00 00 00 	0000000000000000
  0x7310	00 00 00 00 00 00 00 00 80 9b 00 00 00 00 00 00 	0000000000000000
  0x7320	4e 9a 00 00 00 00 00 00 80 9c 00 00 00 00 00 00 	N000000000000000
  0x7330	6c 9c 00 00 00 00 00 00 00 00 00 00 00 00 00 00 	l000000000000000
  0x7340	94 9c 00 00 00 00 00 00 00 00 00 00 00 00 00 00 	0000000000000000
  0x7350	b0 9c 00 00 00 00 00 00 00 00 00 00 00 00 00 00 	0000000000000000
  0x7360	1e 9c 00 00 00 00 00 00 f0 9b 00 00 00 00 00 00 	0000000000000000
  0x7370	04 9c 00 00 00 00 00 00 00 00 00 00 00 00 00 00 	0000000000000000
  0x7380	64 9a 00 00 00 00 00 00 06 9b 00 00 00 00 00 00 	d000000000000000
  0x7390	fa 9a 00 00 00 00 00 00 1e 9b 00 00 00 00 00 00 	0000000000000000
  0x73a0	6e 9b 00 00 00 00 00 00 38 9a 00 00 00 00 00 00 	n000000080000000
  0x73b0	7c 99 00 00 00 00 00 00 c0 99 00 00 00 00 00 00 	|000000000000000
  0x73c0	ae 99 00 00 00 00 00 00 00 00 00 00 00 00 00 00 	0000000000000000
  0x73d0	ca 9c 00 00 00 00 00 00 00 00 00 00 00 00 00 00 	0000000000000000
  0x73e0	ea 99 00 00 00 00 00 00 00 00 00 00 00 00 00 00 	0000000000000000
  0x73f0	9a 9a 00 00 00 00 00 00 00 00 00 00 00 00 00 00 	0000000000000000
  0x7400	be 9a 00 00 00 00 00 00 00 00 00 00 00 00 00 00 	0000000000000000
  0x7410	18 9a 00 00 00 00 00 00 00 00 00 00 00 00 00 00 	0000000000000000
  0x7420	fc 96 00 00 00 00 00 00 0c 97 00 00 00 00 00 00 	0000000000000000
  0x7430	18 97 00 00 00 00 00 00 32 97 00 00 00 00 00 00 	0000000020000000
  0x7440	4c 97 00 00 00 00 00 00 5e 97 00 00 00 00 00 00 	L0000000^0000000
  0x7450	6a 97 00 00 00 00 00 00 76 97 00 00 00 00 00 00 	j0000000v0000000
  0x7460	9a 97 00 00 00 00 00 00 b8 97 00 00 00 00 00 00 	0000000000000000
  0x7470	da 97 00 00 00 00 00 00 fa 97 00 00 00 00 00 00 	0000000000000000
  0x7480	0a 98 00 00 00 00 00 00 2a 98 00 00 00 00 00 00 	00000000*0000000
  0x7490	40 98 00 00 00 00 00 00 54 98 00 00 00 00 00 00 	@0000000T0000000
  0x74a0	64 98 00 00 00 00 00 00 a0 9f 00 00 00 00 00 00 	d000000000000000
  0x74b0	78 98 00 00 00 00 00 00 86 98 00 00 00 00 00 00 	x000000000000000
  0x74c0	90 98 00 00 00 00 00 00 9a 98 00 00 00 00 00 00 	0000000000000000
  0x74d0	a6 98 00 00 00 00 00 00 b6 98 00 00 00 00 00 00 	0000000000000000
  0x74e0	ce 98 00 00 00 00 00 00 e4 98 00 00 00 00 00 00 	0000000000000000
  0x74f0	0c 99 00 00 00 00 00 00 de 96 00 00 00 00 00 00 	0000000000000000
  0x7500	be 96 00 00 00 00 00 00 a0 96 00 00 00 00 00 00 	0000000000000000
  0x7510	86 96 00 00 00 00 00 00 74 96 00 00 00 00 00 00 	00000000t0000000
  0x7520	62 96 00 00 00 00 00 00 52 96 00 00 00 00 00 00 	b0000000R0000000
  0x7530	3c 96 00 00 00 00 00 00 00 00 00 00 00 00 00 00 	<000000000000000
  0x7540	d4 95 00 00 00 00 00 00 e2 95 00 00 00 00 00 00 	0000000000000000
  0x7550	c8 95 00 00 00 00 00 00 ec 95 00 00 00 00 00 00 	0000000000000000
  0x7560	00 00 00 00 00 00 00 00 02 99 00 00 00 00 00 00 	0000000000000000
  0x7570	00 00 00 00 00 00 00 00 80 1c 00 40 01 00 00 00 	00000000000@0000
  0x7580	80 1c 00 40 01 00 00 00 00 6b 00 40 01 00 00 00 	000@00000k0@0000
  0x7590	20 6b 00 40 01 00 00 00 20 6b 00 40 01 00 00 00 	 k0@0000 k0@0000
  0x75a0	00 00 00 00 00 00 00 00 00 00 00 00 00 00 00 00 	0000000000000000
  0x75b0	70 12 00 40 01 00 00 00 10 10 00 40 01 00 00 00 	p00@0000000@0000
  0x75c0	f0 10 00 40 01 00 00 00 10 11 00 40 01 00 00 00 	000@0000000@0000
  0x75d0	40 10 00 40 01 00 00 00 80 10 00 40 01 00 00 00 	@00@0000000@0000
  0x75e0	00 00 00 00 00 00 00 00 00 00 00 00 00 00 00 00 	0000000000000000
  0x75f0	a0 11 00 40 01 00 00 00 50 12 00 40 01 00 00 00 	000@0000P00@0000
  0x7600	30 11 00 40 01 00 00 00 70 11 00 40 01 00 00 00 	000@0000p00@0000
  0x7610	00 00 00 00 00 00 00 00 00 00 00 00 00 00 00 00 	0000000000000000
  0x7620	00 00 00 00 00 00 00 00 00 00 00 00 00 00 00 00 	0000000000000000
  0x7630	00 00 00 00 00 00 00 00 c4 13 00 00 00 0c 16 00 	0000000000000000
  0x7640	00 00 b9 17 00 00 00 00 10 10 00 00 08 40 10 00 	0000000000000@00
  0x7650	00 08 80 10 00 00 08 f0 10 00 00 08 10 11 00 00 	0000000000000000
  0x7660	08 30 11 00 00 08 70 11 00 00 08 a0 11 00 00 08 	000000p000000000
  0x7670	50 12 00 00 08 70 12 00 00 08 20 14 00 00 08 b0 	P0000p0000 00000
  0x7680	14 00 00 08 80 18 00 00 08 80 1b 00 00 08 30 1c 	0000000000000000
  0x7690	00 00 08 80 1c 00 00 08 60 1f 00 00 08 70 20 00 	00000000`0000p 0
  0x76a0	00 00 60 30 00 00 08 90 30 00 00 08 c0 30 00 00 	00`0000000000000
  0x76b0	08 00 31 00 00 08 00 34 00 00 08 40 34 00 00 08 	00100004000@4000
  0x76c0	d0 34 00 00 08 70 35 00 00 08 f0 36 00 00 08 c0 	04000p5000060000
  0x76d0	40 00 00 08 e0 47 00 00 08 e0 48 00 00 08 a0 49 	@0000G0000H0000I
  0x76e0	00 00 08 80 4b 00 00 08 00 4c 00 00 08 70 4c 00 	0000K0000L000pL0
  0x76f0	00 08 10 4d 00 00 08 b0 57 00 00 08 10 5d 00 00 	000M0000W0000]00
  0x7700	08 20 60 00 00 08 e0 60 00 00 08 00 6c 00 00 08 	0 `0000`0000l000
  0x7710	30 6c 00 00 08 00 00 00 00 00 00 00 00 00 00 00 	0l00000000000000
  0x7720	22 05 93 19 02 00 00 00 78 87 00 00 01 00 00 00 	"0000000x0000000
  0x7730	88 87 00 00 01 00 00 00 b0 87 00 00 20 00 00 00 	000000000000 000
  0x7740	00 00 00 00 05 00 00 00 00 00 00 00 00 00 00 00 	0000000000000000
  0x7750	ff ff ff ff ff ff ff ff ff ff ff ff ff ff ff ff 	0000000000000000
  0x7760	62 61 64 20 61 6c 6c 6f 63 61 74 69 6f 6e 00 00 	bad allocation00
  0x7770	62 61 64 20 61 72 72 61 79 20 6e 65 77 20 6c 65 	bad array new le
  0x7780	6e 67 74 68 00 00 00 00 55 6e 6b 6e 6f 77 6e 20 	ngth0000Unknown 
  0x7790	65 78 63 65 70 74 69 6f 6e 00 00 00 00 00 00 00 	exception0000000
  0x77a0	45 78 63 65 70 74 69 6f 6e 00 00 00 00 00 00 00 	Exception0000000
  0x77b0	52 65 74 75 72 6e 4e 74 00 00 00 00 00 00 00 00 	ReturnNt00000000
  0x77c0	52 65 74 75 72 6e 48 72 00 00 00 00 4c 6f 67 4e 	ReturnHr0000LogN
  0x77d0	74 00 00 00 4c 6f 67 48 72 00 00 00 00 00 00 00 	t000LogHr0000000
  0x77e0	46 61 69 6c 46 61 73 74 00 00 00 00 00 00 00 00 	FailFast00000000
  0x77f0	25 00 68 00 73 00 28 00 25 00 75 00 29 00 5c 00 	%0h0s0(0%0u0)000
  0x7800	25 00 68 00 73 00 21 00 25 00 70 00 3a 00 20 00 	%0h0s0!0%0p0:0 0
  0x7810	00 00 00 00 00 00 00 00 25 00 68 00 73 00 21 00 	00000000%0h0s0!0
  0x7820	25 00 70 00 3a 00 20 00 00 00 00 00 00 00 00 00 	%0p0:0 000000000
  0x7830	28 00 63 00 61 00 6c 00 6c 00 65 00 72 00 3a 00 	(0c0a0l0l0e0r0:0
  0x7840	20 00 25 00 70 00 29 00 20 00 00 00 00 00 00 00 	 0%0p0)0 0000000
  0x7850	25 00 68 00 73 00 28 00 25 00 64 00 29 00 20 00 	%0h0s0(0%0d0)0 0
  0x7860	74 00 69 00 64 00 28 00 25 00 78 00 29 00 20 00 	t0i0d0(0%0x0)0 0
  0x7870	25 00 30 00 38 00 58 00 20 00 25 00 77 00 73 00 	%00080X0 0%0w0s0
  0x7880	00 00 00 00 00 00 00 00 20 00 20 00 20 00 20 00 	00000000 0 0 0 0
  0x7890	00 00 00 00 00 00 00 00 4d 00 73 00 67 00 3a 00 	00000000M0s0g0:0
  0x78a0	5b 00 25 00 77 00 73 00 5d 00 20 00 00 00 00 00 	[0%0w0s0]0 00000
  0x78b0	43 00 61 00 6c 00 6c 00 43 00 6f 00 6e 00 74 00 	C0a0l0l0C0o0n0t0
  0x78c0	65 00 78 00 74 00 3a 00 5b 00 25 00 68 00 73 00 	e0x0t0:0[0%0h0s0
  0x78d0	5d 00 20 00 00 00 00 00 5b 00 25 00 68 00 73 00 	]0 00000[0%0h0s0
  0x78e0	28 00 25 00 68 00 73 00 29 00 5d 00 0a 00 00 00 	(0%0h0s0)0]00000
  0x78f0	5b 00 25 00 68 00 73 00 5d 00 0a 00 00 00 00 00 	[0%0h0s0]0000000
  0x7900	0a 00 00 00 00 00 00 00 6b 00 65 00 72 00 6e 00 	00000000k0e0r0n0
  0x7910	65 00 6c 00 62 00 61 00 73 00 65 00 2e 00 64 00 	e0l0b0a0s0e0.0d0
  0x7920	6c 00 6c 00 00 00 00 00 52 61 69 73 65 46 61 69 	l0l00000RaiseFai
  0x7930	6c 46 61 73 74 45 78 63 65 70 74 69 6f 6e 00 00 	lFastException00
  0x7940	25 77 73 00 77 69 6c 00 6f 6e 65 63 6f 72 65 5c 	%ws0wil0onecore0
  0x7950	69 6e 74 65 72 6e 61 6c 5c 73 64 6b 5c 69 6e 63 	internal0sdk0inc
  0x7960	5c 77 69 6c 5c 6f 70 65 6e 73 6f 75 72 63 65 5c 	0wil0opensource0
  0x7970	77 69 6c 5c 72 65 73 6f 75 72 63 65 2e 68 00 00 	wil0resource.h00
  0x7980	5f 00 70 00 30 00 00 00 68 00 00 00 00 00 00 00 	_0p00000h0000000
  0x7990	57 69 6c 45 72 72 6f 72 5f 30 33 00 00 00 00 00 	WilError_0300000
  0x79a0	6e 00 74 00 64 00 6c 00 6c 00 2e 00 64 00 6c 00 	n0t0d0l0l0.0d0l0
  0x79b0	6c 00 00 00 00 00 00 00 52 74 6c 44 6c 6c 53 68 	l0000000RtlDllSh
  0x79c0	75 74 64 6f 77 6e 49 6e 50 72 6f 67 72 65 73 73 	utdownInProgress
  0x79d0	00 00 00 00 00 00 00 00 52 74 6c 44 69 73 6f 77 	00000000RtlDisow
  0x79e0	6e 4d 6f 64 75 6c 65 48 65 61 70 41 6c 6c 6f 63 	nModuleHeapAlloc
  0x79f0	61 74 69 6f 6e 00 00 00 57 69 6c 46 61 69 6c 75 	ation000WilFailu
  0x7a00	72 65 4e 6f 74 69 66 79 57 61 74 63 68 65 72 73 	reNotifyWatchers
  0x7a10	00 00 00 00 00 00 00 00 78 62 6f 78 5c 62 61 73 	00000000xbox0bas
  0x7a20	65 5c 61 70 70 6d 6f 64 65 6c 5c 61 70 70 73 65 	e0appmodel0appse
  0x7a30	72 76 69 63 65 73 5c 6d 6f 64 63 6f 6e 74 72 6f 	rvices0modcontro
  0x7a40	6c 5c 65 78 65 5c 6d 61 69 6e 2e 63 70 70 00 00 	l0exe0main.cpp00
  0x7a50	6f 00 6e 00 6c 00 69 00 6e 00 65 00 00 00 00 00 	o0n0l0i0n0e00000
  0x7a60	75 00 6e 00 69 00 6e 00 73 00 74 00 61 00 6c 00 	u0n0i0n0s0t0a0l0
  0x7a70	6c 00 00 00 00 00 00 00 47 00 61 00 6d 00 65 00 	l0000000G0a0m0e0
  0x7a80	4d 00 6f 00 64 00 43 00 6f 00 6e 00 74 00 72 00 	M0o0d0C0o0n0t0r0
  0x7a90	6f 00 6c 00 00 00 00 00 4c 00 6f 00 63 00 61 00 	o0l00000L0o0c0a0
  0x7aa0	6c 00 5c 00 53 00 4d 00 30 00 3a 00 25 00 6c 00 	l000S0M000:0%0l0
  0x7ab0	75 00 3a 00 25 00 6c 00 75 00 3a 00 25 00 68 00 	u0:0%0l0u0:0%0h0
  0x7ac0	73 00 00 00 00 00 00 00 7c 88 86 7a b5 48 47 42 	s0000000|00z0HGB
  0x7ad0	ae b0 7f a5 19 75 7a b4 00 00 00 00 00 00 00 00 	00000uz000000000
  0x7ae0	57 00 69 00 6e 00 64 00 6f 00 77 00 73 00 2e 00 	W0i0n0d0o0w0s0.0
  0x7af0	4d 00 61 00 6e 00 61 00 67 00 65 00 6d 00 65 00 	M0a0n0a0g0e0m0e0
  0x7b00	6e 00 74 00 2e 00 44 00 65 00 70 00 6c 00 6f 00 	n0t0.0D0e0p0l0o0
  0x7b10	79 00 6d 00 65 00 6e 00 74 00 2e 00 50 00 61 00 	y0m0e0n0t0.0P0a0
  0x7b20	63 00 6b 00 61 00 67 00 65 00 4d 00 61 00 6e 00 	c0k0a0g0e0M0a0n0
  0x7b30	61 00 67 00 65 00 72 00 00 00 00 00 00 00 00 00 	a0g0e0r000000000
  0x7b40	00 00 00 00 00 00 00 00 c0 00 00 00 00 00 00 46 	000000000000000F
  0x7b50	48 99 ad da f1 36 a7 41 91 88 bc 26 3e 0d cb 72 	H000060A000&>00r
  0x7b60	36 00 00 00 00 00 00 00 c0 00 00 00 00 00 00 46 	600000000000000F
  0x7b70	e0 e2 86 af 2d b1 6a 4c 9c 5a d7 aa 65 10 1e 90 	0000-0jL0Z00e000
  0x7b80	9c 6c 9c e3 cf 44 5c 43 bf 7b 5d 52 45 12 79 1a 	0l000D0C0{]RE0y0
  0x7b90	e7 8b 2c a1 85 9a 65 45 96 6d c9 c3 c8 61 7d 41 	00,000eE0m000a}A
  0x7ba0	c0 4f d0 c7 21 07 bc 41 b0 ba 33 6a 52 80 1b 73 	0O00!00A003jR00s
  0x7bb0	29 71 1c 6e e0 61 88 5d 9f d4 f3 ce 65 a0 57 19 	)q0n0a0]0000e0W0
  0x7bc0	00 00 00 00 00 00 00 00 22 05 93 19 01 00 00 00 	00000000"0000000
  0x7bd0	74 88 00 00 00 00 00 00 00 00 00 00 01 00 00 00 	t000000000000000
  0x7be0	80 88 00 00 20 00 00 00 00 00 00 00 01 00 00 00 	0000 00000000000
  0x7bf0	22 05 93 19 00 00 00 00 00 00 00 00 00 00 00 00 	"000000000000000
  0x7c00	00 00 00 00 01 00 00 00 a0 88 00 00 20 00 00 00 	000000000000 000
  0x7c10	00 00 00 00 05 00 00 00 22 05 93 19 01 00 00 00 	00000000"0000000
  0x7c20	74 88 00 00 00 00 00 00 00 00 00 00 04 00 00 00 	t000000000000000
  0x7c30	d0 88 00 00 c0 00 00 00 00 00 00 00 01 00 00 00 	0000000000000000
  0x7c40	22 05 93 19 01 00 00 00 74 88 00 00 00 00 00 00 	"0000000t0000000
  0x7c50	00 00 00 00 02 00 00 00 20 89 00 00 50 00 00 00 	00000000 000P000
  0x7c60	00 00 00 00 01 00 00 00 22 05 93 19 01 00 00 00 	00000000"0000000
  0x7c70	74 88 00 00 00 00 00 00 00 00 00 00 03 00 00 00 	t000000000000000
  0x7c80	60 89 00 00 c0 00 00 00 00 00 00 00 01 00 00 00 	`000000000000000
  0x7c90	22 05 93 19 02 00 00 00 f8 89 00 00 00 00 00 00 	"000000000000000
  0x7ca0	00 00 00 00 02 00 00 00 08 8a 00 00 40 00 00 00 	000000000000@000
  0x7cb0	00 00 00 00 01 00 00 00 22 05 93 19 01 00 00 00 	00000000"0000000
  0x7cc0	74 88 00 00 00 00 00 00 00 00 00 00 01 00 00 00 	t000000000000000
  0x7cd0	40 8a 00 00 20 00 00 00 00 00 00 00 05 00 00 00 	@000 00000000000
  0x7ce0	22 05 93 19 10 00 00 00 70 8a 00 00 00 00 00 00 	"0000000p0000000
  0x7cf0	00 00 00 00 1c 00 00 00 f0 8a 00 00 70 00 00 00 	000000000000p000
  0x7d00	00 00 00 00 01 00 00 00 22 05 93 19 05 00 00 00 	00000000"0000000
  0x7d10	e8 8b 00 00 00 00 00 00 00 00 00 00 05 00 00 00 	0000000000000000
  0x7d20	10 8c 00 00 20 00 00 00 00 00 00 00 01 00 00 00 	0000 00000000000
  0x7d30	22 05 93 19 01 00 00 00 74 88 00 00 00 00 00 00 	"0000000t0000000
  0x7d40	00 00 00 00 01 00 00 00 50 8c 00 00 20 00 00 00 	00000000P000 000
  0x7d50	00 00 00 00 05 00 00 00 22 05 93 19 00 00 00 00 	00000000"0000000
  0x7d60	00 00 00 00 00 00 00 00 00 00 00 00 01 00 00 00 	0000000000000000
  0x7d70	80 8c 00 00 20 00 00 00 00 00 00 00 05 00 00 00 	0000 00000000000
  0x7d80	22 05 93 19 00 00 00 00 00 00 00 00 00 00 00 00 	"000000000000000
  0x7d90	00 00 00 00 01 00 00 00 98 8c 00 00 20 00 00 00 	000000000000 000
  0x7da0	00 00 00 00 05 00 00 00 22 05 93 19 01 00 00 00 	00000000"0000000
  0x7db0	74 88 00 00 00 00 00 00 00 00 00 00 01 00 00 00 	t000000000000000
  0x7dc0	b0 8c 00 00 20 00 00 00 00 00 00 00 01 00 00 00 	0000 00000000000
  0x7dd0	22 05 93 19 02 00 00 00 d8 8c 00 00 00 00 00 00 	"000000000000000
  0x7de0	00 00 00 00 02 00 00 00 e8 8c 00 00 20 00 00 00 	000000000000 000
  0x7df0	00 00 00 00 05 00 00 00 22 05 93 19 01 00 00 00 	00000000"0000000
  0x7e00	74 88 00 00 00 00 00 00 00 00 00 00 01 00 00 00 	t000000000000000
  0x7e10	10 8d 00 00 20 00 00 00 00 00 00 00 01 00 00 00 	0000 00000000000
  0x7e20	22 05 93 19 00 00 00 00 00 00 00 00 00 00 00 00 	"000000000000000
  0x7e30	00 00 00 00 01 00 00 00 a8 8d 00 00 40 00 00 00 	000000000000@000
  0x7e40	00 00 00 00 05 00 00 00 22 05 93 19 00 00 00 00 	00000000"0000000
  0x7e50	00 00 00 00 00 00 00 00 00 00 00 00 01 00 00 00 	0000000000000000
  0x7e60	c0 8d 00 00 30 00 00 00 00 00 00 00 05 00 00 00 	0000000000000000
  0x7e70	22 05 93 19 00 00 00 00 00 00 00 00 00 00 00 00 	"000000000000000
  0x7e80	00 00 00 00 01 00 00 00 d8 8d 00 00 30 00 00 00 	0000000000000000
  0x7e90	00 00 00 00 05 00 00 00 22 05 93 19 00 00 00 00 	00000000"0000000
  0x7ea0	00 00 00 00 00 00 00 00 00 00 00 00 01 00 00 00 	0000000000000000
  0x7eb0	f0 8d 00 00 40 00 00 00 00 00 00 00 05 00 00 00 	0000@00000000000
  0x7ec0	22 05 93 19 00 00 00 00 00 00 00 00 00 00 00 00 	"000000000000000
  0x7ed0	00 00 00 00 01 00 00 00 40 8e 00 00 40 00 00 00 	00000000@000@000
  0x7ee0	00 00 00 00 05 00 00 00 22 05 93 19 01 00 00 00 	00000000"0000000
  0x7ef0	74 88 00 00 00 00 00 00 00 00 00 00 01 00 00 00 	t000000000000000
  0x7f00	a8 8e 00 00 40 00 00 00 00 00 00 00 05 00 00 00 	0000@00000000000
  0x7f10	22 05 93 19 00 00 00 00 00 00 00 00 00 00 00 00 	"000000000000000
  0x7f20	00 00 00 00 01 00 00 00 c8 8e 00 00 40 00 00 00 	000000000000@000
  0x7f30	00 00 00 00 05 00 00 00 22 05 93 19 00 00 00 00 	00000000"0000000
  0x7f40	00 00 00 00 00 00 00 00 00 00 00 00 01 00 00 00 	0000000000000000
  0x7f50	20 8f 00 00 40 00 00 00 00 00 00 00 05 00 00 00 	 000@00000000000
  0x7f60	22 05 93 19 01 00 00 00 74 88 00 00 00 00 00 00 	"0000000t0000000
  0x7f70	00 00 00 00 01 00 00 00 48 8f 00 00 20 00 00 00 	00000000H000 000
  0x7f80	00 00 00 00 01 00 00 00 00 00 00 00 2c 46 48 ac 	000000000000,FH0
  0x7f90	00 00 00 00 02 00 00 00 2b 00 00 00 24 83 00 00 	00000000+000$000
  0x7fa0	24 83 00 00 00 00 00 00 2c 46 48 ac 00 00 00 00 	$0000000,FH00000
  0x7fb0	0d 00 00 00 74 03 00 00 50 83 00 00 50 83 00 00 	0000t000P000P000
  0x7fc0	00 00 00 00 2c 46 48 ac 00 00 00 00 10 00 00 00 	0000,FH000000000
  0x7fd0	24 00 00 00 c4 86 00 00 c4 86 00 00 00 00 00 00 	$000000000000000
  0x7fe0	00 00 00 00 00 00 00 00 00 00 00 00 00 00 00 00 	0000000000000000
  0x7ff0	00 00 00 00 00 00 00 00 00 00 00 00 00 00 00 00 	0000000000000000
  0x8000	01 00 00 00 00 00 00 00 00 00 00 00 c0 a0 00 00 	0000000000000000
  0x8010	28 80 00 00 00 80 00 00 00 00 00 00 00 00 00 00 	(000000000000000
  0x8020	00 00 00 00 00 00 00 00 00 00 00 00 00 00 00 00 	0000000000000000
  0x8030	01 00 00 00 40 80 00 00 00 00 00 00 00 00 00 00 	0000@00000000000
  0x8040	50 80 00 00 00 00 00 00 00 00 00 00 00 00 00 00 	P000000000000000
  0x8050	c0 a0 00 00 00 00 00 00 00 00 00 00 ff ff ff ff 	0000000000000000
  0x8060	00 00 00 00 40 00 00 00 28 80 00 00 00 00 00 00 	0000@000(0000000
  0x8070	00 00 00 00 00 00 00 00 01 00 00 00 00 00 00 00 	0000000000000000
  0x8080	00 00 00 00 98 a0 00 00 a0 80 00 00 78 80 00 00 	000000000000x000
  0x8090	00 00 00 00 00 00 00 00 00 00 00 00 00 00 00 00 	0000000000000000
  0x80a0	00 00 00 00 00 00 00 00 01 00 00 00 b8 80 00 00 	0000000000000000
  0x80b0	00 00 00 00 00 00 00 00 c8 80 00 00 00 00 00 00 	0000000000000000
  0x80c0	00 00 00 00 00 00 00 00 98 a0 00 00 00 00 00 00 	0000000000000000
  0x80d0	00 00 00 00 ff ff ff ff 00 00 00 00 40 00 00 00 	000000000000@000
  0x80e0	a0 80 00 00 00 00 00 00 00 00 00 00 00 00 00 00 	0000000000000000
  0x80f0	01 00 00 00 00 00 00 00 00 00 00 00 40 a0 00 00 	000000000000@000
  0x8100	18 81 00 00 f0 80 00 00 00 00 00 00 00 00 00 00 	0000000000000000
  0x8110	00 00 00 00 00 00 00 00 00 00 00 00 00 00 00 00 	0000000000000000
  0x8120	02 00 00 00 30 81 00 00 00 00 00 00 00 00 00 00 	0000000000000000
  0x8130	48 81 00 00 c8 80 00 00 00 00 00 00 00 00 00 00 	H000000000000000
  0x8140	00 00 00 00 00 00 00 00 40 a0 00 00 01 00 00 00 	00000000@0000000
  0x8150	00 00 00 00 ff ff ff ff 00 00 00 00 40 00 00 00 	000000000000@000
  0x8160	18 81 00 00 00 00 00 00 00 00 00 00 00 00 00 00 	0000000000000000
  0x8170	01 00 00 00 00 00 00 00 00 00 00 00 10 a0 00 00 	0000000000000000
  0x8180	98 81 00 00 70 81 00 00 00 00 00 00 00 00 00 00 	0000p00000000000
  0x8190	00 00 00 00 00 00 00 00 00 00 00 00 00 00 00 00 	0000000000000000
  0x81a0	03 00 00 00 b0 81 00 00 00 00 00 00 00 00 00 00 	0000000000000000
  0x81b0	d0 81 00 00 48 81 00 00 c8 80 00 00 00 00 00 00 	0000H00000000000
  0x81c0	00 00 00 00 00 00 00 00 00 00 00 00 00 00 00 00 	0000000000000000
  0x81d0	10 a0 00 00 02 00 00 00 00 00 00 00 ff ff ff ff 	0000000000000000
  0x81e0	00 00 00 00 40 00 00 00 98 81 00 00 00 00 00 00 	0000@00000000000
  0x81f0	00 00 00 00 18 00 00 00 02 80 02 80 0c 82 00 00 	0000000000000000
  0x8200	f8 00 00 00 04 83 00 00 20 00 00 00 db 14 00 00 	00000000 0000000
  0x8210	57 15 00 00 6c 15 00 00 21 16 00 00 37 16 00 00 	W000l000!0007000
  0x8220	d7 17 00 00 5e 1a 00 00 90 1a 00 00 e8 1d 00 00 	0000^00000000000
  0x8230	ed 1d 00 00 37 1e 00 00 eb 24 00 00 c0 27 00 00 	000070000$000'00
  0x8240	86 2c 00 00 b8 2c 00 00 e0 2d 00 00 05 2e 00 00 	0,000,000-000.00
  0x8250	48 2e 00 00 76 2e 00 00 14 2f 00 00 57 2f 00 00 	H.00v.000/00W/00
  0x8260	66 30 00 00 96 30 00 00 c1 32 00 00 c8 32 00 00 	f000000002000200
  0x8270	0f 34 00 00 16 34 00 00 d7 35 00 00 7b 36 00 00 	040004000500{600
  0x8280	8a 36 00 00 99 36 00 00 b4 36 00 00 be 36 00 00 	0600060006000600
  0x8290	f4 36 00 00 19 37 00 00 37 3c 00 00 65 3d 00 00 	060007007<00e=00
  0x82a0	38 42 00 00 f8 46 00 00 42 47 00 00 80 49 00 00 	8B000F00BG000I00
  0x82b0	8b 49 00 00 a0 49 00 00 ac 49 00 00 b7 49 00 00 	0I000I000I000I00
  0x82c0	c4 49 00 00 cf 49 00 00 4d 4a 00 00 51 4a 00 00 	0I000I00MJ00QJ00
  0x82d0	53 4a 00 00 0f 4b 00 00 13 4b 00 00 15 4b 00 00 	SJ000K000K000K00
  0x82e0	95 4b 00 00 9c 4b 00 00 d7 51 00 00 fb 55 00 00 	0K000K000Q000U00
  0x82f0	08 5b 00 00 5a 5f 00 00 c7 5f 00 00 f3 5f 00 00 	0[00Z_000_000_00
  0x8300	44 6b 00 00 10 10 00 00 30 04 00 00 70 14 00 00 	Dk0000000000p000
  0x8310	70 0b 00 00 cc 20 00 00 b4 49 00 00 26 6b 00 00 	p0000 000I00&k00
  0x8320	16 01 00 00 52 53 44 53 53 d5 5e fb bf 84 6b 15 	0000RSDSS0^000k0
  0x8330	58 be ba c0 3f 6e bd 12 01 00 00 00 47 61 6d 65 	X000?n000000Game
  0x8340	4d 6f 64 43 6f 6e 74 72 6f 6c 2e 70 64 62 00 00 	ModControl.pdb00
  0x8350	47 43 54 4c 00 10 00 00 20 01 00 00 2e 74 65 78 	GCTL0000 000.tex
  0x8360	74 24 64 69 00 00 00 00 20 11 00 00 d0 59 00 00 	t$di0000 0000Y00
  0x8370	2e 74 65 78 74 24 6d 6e 00 00 00 00 f0 6a 00 00 	.text$mn00000j00
  0x8380	36 00 00 00 2e 74 65 78 74 24 6d 6e 24 30 30 00 	6000.text$mn$000
  0x8390	26 6b 00 00 ca 00 00 00 2e 74 65 78 74 24 78 00 	&k000000.text$x0
  0x83a0	f0 6b 00 00 4c 00 00 00 2e 74 65 78 74 24 79 64 	0k00L000.text$yd
  0x83b0	00 00 00 00 00 70 00 00 30 02 00 00 2e 72 64 61 	00000p000000.rda
  0x83c0	74 61 24 62 72 63 00 00 30 72 00 00 48 03 00 00 	ta$brc000r00H000
  0x83d0	2e 69 64 61 74 61 24 35 00 00 00 00 78 75 00 00 	.idata$50000xu00
  0x83e0	30 00 00 00 2e 30 30 63 66 67 00 00 a8 75 00 00 	0000.00cfg000u00
  0x83f0	08 00 00 00 2e 43 52 54 24 58 43 41 00 00 00 00 	0000.CRT$XCA0000
  0x8400	b0 75 00 00 08 00 00 00 2e 43 52 54 24 58 43 41 	0u000000.CRT$XCA
  0x8410	41 00 00 00 b8 75 00 00 28 00 00 00 2e 43 52 54 	A0000u00(000.CRT
  0x8420	24 58 43 55 00 00 00 00 e0 75 00 00 08 00 00 00 	$XCU00000u000000
  0x8430	2e 43 52 54 24 58 43 5a 00 00 00 00 e8 75 00 00 	.CRT$XCZ00000u00
  0x8440	08 00 00 00 2e 43 52 54 24 58 49 41 00 00 00 00 	0000.CRT$XIA0000
  0x8450	f0 75 00 00 08 00 00 00 2e 43 52 54 24 58 49 41 	0u000000.CRT$XIA
  0x8460	41 00 00 00 f8 75 00 00 08 00 00 00 2e 43 52 54 	A0000u000000.CRT
  0x8470	24 58 49 41 43 00 00 00 00 76 00 00 10 00 00 00 	$XIAC0000v000000
  0x8480	2e 43 52 54 24 58 49 43 00 00 00 00 10 76 00 00 	.CRT$XIC00000v00
  0x8490	08 00 00 00 2e 43 52 54 24 58 49 5a 00 00 00 00 	0000.CRT$XIZ0000
  0x84a0	18 76 00 00 08 00 00 00 2e 43 52 54 24 58 50 41 	0v000000.CRT$XPA
  0x84b0	00 00 00 00 20 76 00 00 08 00 00 00 2e 43 52 54 	0000 v000000.CRT
  0x84c0	24 58 50 5a 00 00 00 00 28 76 00 00 08 00 00 00 	$XPZ0000(v000000
  0x84d0	2e 43 52 54 24 58 54 41 00 00 00 00 30 76 00 00 	.CRT$XTA00000v00
  0x84e0	08 00 00 00 2e 43 52 54 24 58 54 5a 00 00 00 00 	0000.CRT$XTZ0000
  0x84f0	38 76 00 00 10 00 00 00 2e 67 65 68 63 6f 6e 74 	8v000000.gehcont
  0x8500	00 00 00 00 48 76 00 00 d8 00 00 00 2e 67 66 69 	0000Hv000000.gfi
  0x8510	64 73 00 00 20 77 00 00 e0 08 00 00 2e 72 64 61 	ds00 w000000.rda
  0x8520	74 61 00 00 00 80 00 00 f4 01 00 00 2e 72 64 61 	ta0000000000.rda
  0x8530	74 61 24 72 00 00 00 00 f4 81 00 00 30 01 00 00 	ta$r000000000000
  0x8540	2e 72 64 61 74 61 24 76 6f 6c 74 6d 64 00 00 00 	.rdata$voltmd000
  0x8550	24 83 00 00 c4 03 00 00 2e 72 64 61 74 61 24 7a 	$0000000.rdata$z
  0x8560	7a 7a 64 62 67 00 00 00 e8 86 00 00 08 00 00 00 	zzdbg00000000000
  0x8570	2e 72 74 63 24 49 41 41 00 00 00 00 f0 86 00 00 	.rtc$IAA00000000
  0x8580	08 00 00 00 2e 72 74 63 24 49 5a 5a 00 00 00 00 	0000.rtc$IZZ0000
  0x8590	f8 86 00 00 08 00 00 00 2e 72 74 63 24 54 41 41 	00000000.rtc$TAA
  0x85a0	00 00 00 00 00 87 00 00 10 00 00 00 2e 72 74 63 	000000000000.rtc
  0x85b0	24 54 5a 5a 00 00 00 00 10 87 00 00 68 08 00 00 	$TZZ00000000h000
  0x85c0	2e 78 64 61 74 61 00 00 78 8f 00 00 4c 01 00 00 	.xdata00x000L000
  0x85d0	2e 78 64 61 74 61 24 78 00 00 00 00 c4 90 00 00 	.xdata$x00000000
  0x85e0	a4 01 00 00 2e 69 64 61 74 61 24 32 00 00 00 00 	0000.idata$20000
  0x85f0	68 92 00 00 18 00 00 00 2e 69 64 61 74 61 24 33 	h0000000.idata$3
  0x8600	00 00 00 00 80 92 00 00 48 03 00 00 2e 69 64 61 	00000000H000.ida
  0x8610	74 61 24 34 00 00 00 00 c8 95 00 00 e2 09 00 00 	ta$4000000000000
  0x8620	2e 69 64 61 74 61 24 36 00 00 00 00 00 a0 00 00 	.idata$600000000
  0x8630	10 00 00 00 2e 64 61 74 61 24 62 72 63 00 00 00 	0000.data$brc000
  0x8640	10 a0 00 00 b0 00 00 00 2e 64 61 74 61 24 72 24 	00000000.data$r$
  0x8650	62 72 63 00 c0 a0 00 00 20 00 00 00 2e 64 61 74 	brc00000 000.dat
  0x8660	61 24 72 73 24 62 72 63 00 00 00 00 e0 a0 00 00 	a$rs$brc00000000
  0x8670	90 00 00 00 2e 64 61 74 61 00 00 00 70 a1 00 00 	0000.data000p000
  0x8680	60 07 00 00 2e 62 73 73 00 00 00 00 00 b0 00 00 	`000.bss00000000
  0x8690	88 05 00 00 2e 70 64 61 74 61 00 00 00 c0 00 00 	0000.pdata000000
  0x86a0	a0 00 00 00 2e 72 73 72 63 24 30 31 00 00 00 00 	0000.rsrc$010000
  0x86b0	a0 c0 00 00 70 06 00 00 2e 72 73 72 63 24 30 32 	0000p000.rsrc$02
  0x86c0	00 00 00 00 20 00 00 00 53 d5 5e fb bf 84 6b 15 	0000 000S0^000k0
  0x86d0	58 be ba c0 3f 6e bd 12 6d 74 db e9 e0 9e 78 bf 	X000?n00mt0000x0
  0x86e0	7f f9 10 a6 2c 46 48 ac 00 00 00 00 00 00 00 00 	0000,FH000000000
  0x86f0	00 00 00 00 00 00 00 00 00 00 00 00 00 00 00 00 	0000000000000000
  0x8700	00 00 00 00 00 00 00 00 00 00 00 00 00 00 00 00 	0000000000000000
  0x8710	09 0f 06 00 0f 64 09 00 0f 34 08 00 0f 52 0b 70 	00000d0004000R0p
  0x8720	ac 20 00 00 02 00 00 00 b5 12 00 00 c4 13 00 00 	0 00000000000000
  0x8730	26 6b 00 00 c4 13 00 00 f8 13 00 00 0a 14 00 00 	&k00000000000000
  0x8740	26 6b 00 00 c4 13 00 00 01 06 02 00 06 32 02 50 	&k0000000000020P
  0x8750	01 00 00 00 01 09 01 00 09 62 00 00 01 08 04 00 	000000000b000000
  0x8760	08 72 04 70 03 60 02 30 19 0d 01 00 04 62 00 00 	0r0p0`0000000b00
  0x8770	f8 1f 00 00 20 77 00 00 ff ff ff ff 00 00 00 00 	0000 w0000000000
  0x8780	ff ff ff ff 00 00 00 00 00 00 00 00 00 00 00 00 	0000000000000000
  0x8790	01 00 00 00 01 00 00 00 9c 87 00 00 40 00 00 00 	000000000000@000
  0x87a0	00 00 00 00 00 00 00 00 44 6b 00 00 38 00 00 00 	00000000Dk008000
  0x87b0	05 16 00 00 00 00 00 00 19 0a 02 00 0a 32 06 50 	000000000000020P
  0x87c0	f8 1f 00 00 20 77 00 00 09 04 01 00 04 22 00 00 	0000 w0000000"00
  0x87d0	ac 20 00 00 01 00 00 00 2f 17 00 00 b9 17 00 00 	0 000000/0000000
  0x87e0	5f 6b 00 00 b9 17 00 00 01 02 01 00 02 50 00 00 	_k00000000000P00
  0x87f0	01 0d 04 00 0d 34 09 00 0d 32 06 50 01 15 05 00 	00000400020P0000
  0x8800	15 34 ba 00 15 01 b8 00 06 50 00 00 01 0f 06 00 	040000000P000000
  0x8810	0f 64 06 00 0f 34 05 00 0f 12 0b 70 00 00 00 00 	0d000400000p0000
  0x8820	01 00 00 00 00 00 00 00 01 00 00 00 01 04 01 00 	0000000000000000
  0x8830	04 82 00 00 01 14 08 00 14 64 0a 00 14 54 09 00 	000000000d000T00
  0x8840	14 34 08 00 14 52 10 70 01 14 08 00 14 64 0c 00 	04000R0p00000d00
  0x8850	14 54 0b 00 14 34 0a 00 14 72 10 70 01 06 02 00 	0T0004000r0p0000
  0x8860	06 32 02 30 11 0f 02 00 06 52 02 30 f8 1f 00 00 	020000000R000000
  0x8870	c8 7b 00 00 ff ff ff ff a6 20 00 00 00 00 00 00 	0{0000000 000000
  0x8880	56 49 00 00 00 00 00 00 19 14 04 00 14 34 08 00 	VI00000000000400
  0x8890	06 52 02 70 f8 1f 00 00 f0 7b 00 00 00 00 00 00 	0R0p00000{000000
  0x88a0	f3 40 00 00 ff ff ff ff 19 39 09 00 20 01 9c 02 	0@0000000900 000
  0x88b0	0b f0 09 e0 07 c0 05 70 04 60 03 30 02 50 00 00 	0000000p0`000P00
  0x88c0	f8 69 00 00 18 7c 00 00 d2 14 00 00 00 00 00 00 	0i000|0000000000
  0x88d0	48 27 00 00 ff ff ff ff 2c 28 00 00 00 00 00 00 	H'000000,(000000
  0x88e0	e1 29 00 00 ff ff ff ff 14 2a 00 00 00 00 00 00 	0)0000000*000000
  0x88f0	19 22 04 00 10 01 a7 02 03 70 02 30 7c 69 00 00 	0"0000000p00|i00
  0x8900	20 15 00 00 11 1f 08 00 1f 64 14 00 1b 54 13 00 	 00000000d000T00
  0x8910	17 34 12 00 0b f2 04 70 f8 1f 00 00 40 7c 00 00 	0400000p0000@|00
  0x8920	ce 22 00 00 00 00 00 00 28 23 00 00 ff ff ff ff 	0"000000(#000000
  0x8930	01 04 01 00 04 e2 00 00 11 36 0b 00 36 64 a3 02 	0000000006006d00
  0x8940	2e 34 a2 02 1e 01 9a 02 09 f0 07 e0 05 c0 03 70 	.40000000000000p
  0x8950	02 50 00 00 f8 1f 00 00 68 7c 00 00 00 00 00 00 	0P000000h|000000
  0x8960	76 24 00 00 ff ff ff ff 5f 25 00 00 00 00 00 00 	v$000000_%000000
  0x8970	22 27 00 00 ff ff ff ff 01 07 01 00 07 a2 00 00 	"'00000000000000
  0x8980	01 14 08 00 14 64 08 00 14 54 07 00 14 34 06 00 	00000d000T000400
  0x8990	14 32 10 70 19 32 0b 00 21 64 55 00 21 34 52 00 	020p0200!dU0!4R0
  0x89a0	21 01 4c 00 12 f0 10 e0 0e c0 0c 70 0b 50 00 00 	!0L00000000p0P00
  0x89b0	7c 69 00 00 50 02 00 00 01 04 01 00 04 42 00 00 	|i00P00000000B00
  0x89c0	01 14 08 00 14 64 09 00 14 54 08 00 14 34 06 00 	00000d000T000400
  0x89d0	14 32 10 70 19 37 09 00 26 64 55 00 22 34 54 00 	020p0700&dU0"4T0
  0x89e0	15 01 4e 00 07 e0 05 70 04 50 00 00 f8 69 00 00 	00N0000p0P000i00
  0x89f0	90 7c 00 00 62 02 00 00 ff ff ff ff 77 6b 00 00 	0|00b0000000wk00
  0x8a00	00 00 00 00 83 6b 00 00 0b 33 00 00 ff ff ff ff 	00000k0003000000
  0x8a10	35 33 00 00 01 00 00 00 01 19 0a 00 19 74 0b 00 	5300000000000t00
  0x8a20	19 64 0a 00 19 54 09 00 19 34 08 00 19 52 15 e0 	0d000T0004000R00
  0x8a30	19 0d 01 00 04 62 00 00 f8 1f 00 00 b8 7c 00 00 	00000b0000000|00
  0x8a40	2d 2d 00 00 00 00 00 00 19 35 0b 00 27 74 1b 00 	--0000000500't00
  0x8a50	23 64 1a 00 1f 34 18 00 13 01 14 00 08 f0 06 e0 	#d00040000000000
  0x8a60	04 50 00 00 f8 69 00 00 e0 7c 00 00 9a 00 00 00 	0P000i000|000000
  0x8a70	ff ff ff ff a7 6b 00 00 00 00 00 00 b3 6b 00 00 	00000k0000000k00
  0x8a80	01 00 00 00 a6 20 00 00 02 00 00 00 a6 20 00 00 	00000 0000000 00
  0x8a90	00 00 00 00 a6 20 00 00 ff ff ff ff a6 20 00 00 	00000 0000000 00
  0x8aa0	01 00 00 00 bf 6b 00 00 06 00 00 00 a6 20 00 00 	00000k0000000 00
  0x8ab0	06 00 00 00 cb 6b 00 00 06 00 00 00 d7 6b 00 00 	00000k0000000k00
  0x8ac0	09 00 00 00 a6 20 00 00 ff ff ff ff d7 6b 00 00 	00000 0000000k00
  0x8ad0	0b 00 00 00 a6 20 00 00 0b 00 00 00 cb 6b 00 00 	00000 0000000k00
  0x8ae0	ff ff ff ff a7 6b 00 00 0e 00 00 00 a6 20 00 00 	00000k0000000 00
  0x8af0	5f 62 00 00 03 00 00 00 c6 62 00 00 02 00 00 00 	_b0000000b000000
  0x8b00	ed 62 00 00 01 00 00 00 28 63 00 00 05 00 00 00 	0b000000(c000000
  0x8b10	9f 63 00 00 08 00 00 00 e2 63 00 00 02 00 00 00 	0c0000000c000000
  0x8b20	07 64 00 00 05 00 00 00 37 64 00 00 09 00 00 00 	0d0000007d000000
  0x8b30	7e 64 00 00 07 00 00 00 a3 64 00 00 02 00 00 00 	~d0000000d000000
  0x8b40	c8 64 00 00 05 00 00 00 d8 64 00 00 09 00 00 00 	0d0000000d000000
  0x8b50	1e 65 00 00 07 00 00 00 43 65 00 00 02 00 00 00 	0e000000Ce000000
  0x8b60	68 65 00 00 05 00 00 00 92 65 00 00 07 00 00 00 	he0000000e000000
  0x8b70	b7 65 00 00 02 00 00 00 e0 65 00 00 05 00 00 00 	0e0000000e000000
  0x8b80	56 66 00 00 ff ff ff ff d6 66 00 00 0d 00 00 00 	Vf0000000f000000
  0x8b90	19 67 00 00 05 00 00 00 4a 67 00 00 ff ff ff ff 	0g000000Jg000000
  0x8ba0	d2 67 00 00 05 00 00 00 54 68 00 00 ff ff ff ff 	0g000000Th000000
  0x8bb0	92 68 00 00 0e 00 00 00 d5 68 00 00 05 00 00 00 	0h0000000h000000
  0x8bc0	06 69 00 00 ff ff ff ff 38 69 00 00 0b 00 00 00 	0i0000008i000000
  0x8bd0	11 23 06 00 1b 72 14 e0 12 70 11 60 10 30 0f 50 	0#000r000p0`000P
  0x8be0	f8 1f 00 00 08 7d 00 00 ff ff ff ff 8f 6b 00 00 	00000}0000000k00
  0x8bf0	00 00 00 00 9b 6b 00 00 01 00 00 00 a6 20 00 00 	00000k0000000 00
  0x8c00	00 00 00 00 a6 20 00 00 ff ff ff ff a6 20 00 00 	00000 0000000 00
  0x8c10	36 5b 00 00 02 00 00 00 93 5b 00 00 01 00 00 00 	6[0000000[000000
  0x8c20	a9 5c 00 00 03 00 00 00 cf 5c 00 00 04 00 00 00 	0000000000000000
  0x8c30	ef 5c 00 00 ff ff ff ff 19 16 04 00 16 34 0f 00 	0000000000000400
  0x8c40	09 b2 02 50 f8 1f 00 00 30 7d 00 00 00 00 00 00 	000P00000}000000
  0x8c50	97 48 00 00 00 00 00 00 01 0f 06 00 0f 64 0b 00 	0H00000000000d00
  0x8c60	0f 34 0a 00 0f 72 0b 70 19 19 06 00 19 64 09 00 	04000r0p00000d00
  0x8c70	14 34 08 00 06 52 02 70 f8 1f 00 00 58 7d 00 00 	04000R0p0000X}00
  0x8c80	e9 4c 00 00 ff ff ff ff 19 0f 02 00 06 52 02 30 	0L00000000000R00
  0x8c90	f8 1f 00 00 80 7d 00 00 73 4d 00 00 ff ff ff ff 	00000}00sM000000
  0x8ca0	11 0d 01 00 04 62 00 00 f8 1f 00 00 a8 7d 00 00 	00000b0000000}00
  0x8cb0	19 6c 00 00 00 00 00 00 19 21 0a 00 21 74 0b 00 	0l0000000!00!t00
  0x8cc0	1d 64 0a 00 19 54 09 00 15 34 08 00 09 52 05 e0 	0d000T0004000R00
  0x8cd0	f8 1f 00 00 d0 7d 00 00 ff ff ff ff a6 20 00 00 	00000}0000000 00
  0x8ce0	00 00 00 00 a6 20 00 00 05 36 00 00 00 00 00 00 	00000 0006000000
  0x8cf0	75 36 00 00 ff ff ff ff 11 14 04 00 14 34 08 00 	u600000000000400
  0x8d00	08 52 04 70 f8 1f 00 00 f8 7d 00 00 00 00 00 00 	0R0p00000}000000
  0x8d10	13 3d 00 00 00 00 00 00 01 1d 0c 00 1d 74 0b 00 	0=00000000000t00
  0x8d20	1d 64 0a 00 1d 54 09 00 1d 34 08 00 1d 32 19 f0 	0d000T0004000200
  0x8d30	17 e0 15 c0 01 19 0a 00 19 74 09 00 19 64 08 00 	000000000t000d00
  0x8d40	19 54 07 00 19 34 06 00 19 32 15 e0 01 19 0a 00 	0T00040002000000
  0x8d50	19 34 0e 00 19 32 15 f0 13 e0 11 d0 0f c0 0d 70 	040002000000000p
  0x8d60	0c 60 0b 50 19 33 0b 00 22 74 51 00 22 64 4f 00 	0`0P0300"tQ0"dO0
  0x8d70	22 34 4e 00 22 01 4a 00 14 f0 12 e0 10 50 00 00 	"4N0"0J000000P00
  0x8d80	7c 69 00 00 40 02 00 00 01 0a 04 00 0a 64 06 00 	|i00@00000000d00
  0x8d90	0a 32 06 70 19 0d 01 00 04 a2 00 00 f8 1f 00 00 	020p000000000000
  0x8da0	20 7e 00 00 00 00 00 00 bb 34 00 00 ff ff ff ff 	 ~00000004000000
  0x8db0	19 0d 01 00 04 82 00 00 f8 1f 00 00 48 7e 00 00 	000000000000H~00
  0x8dc0	83 5e 00 00 ff ff ff ff 19 0d 01 00 04 82 00 00 	0^00000000000000
  0x8dd0	f8 1f 00 00 70 7e 00 00 27 4c 00 00 ff ff ff ff 	0000p~00'L000000
  0x8de0	19 0d 01 00 04 a2 00 00 f8 1f 00 00 98 7e 00 00 	0000000000000~00
  0x8df0	50 4c 00 00 ff ff ff ff 01 0f 06 00 0f 64 11 00 	PL00000000000d00
  0x8e00	0f 34 10 00 0f d2 0b 70 01 04 01 00 04 a2 00 00 	0400000p00000000
  0x8e10	01 09 03 00 09 01 18 00 02 30 00 00 19 25 0a 00 	0000000000000%00
  0x8e20	25 34 14 00 19 92 15 f0 13 e0 11 d0 0f c0 0d 70 	%40000000000000p
  0x8e30	0c 60 0b 50 f8 1f 00 00 c0 7e 00 00 00 00 00 00 	0`0P00000~000000
  0x8e40	f2 41 00 00 ff ff ff ff 01 0a 04 00 0a 34 06 00 	0A00000000000400
  0x8e50	0a 32 06 70 01 07 02 00 07 01 1f 00 19 21 03 00 	020p000000000!00
  0x8e60	0f 01 86 02 02 30 00 00 7c 69 00 00 20 14 00 00 	00000000|i00 000
  0x8e70	01 1c 0c 00 1c 64 0d 00 1c 54 0c 00 1c 34 0b 00 	00000d000T000400
  0x8e80	1c 32 18 f0 16 e0 14 d0 12 c0 10 70 01 11 04 00 	02000000000p0000
  0x8e90	11 52 0d 70 0c 60 0b 30 19 0f 02 00 06 92 02 30 	0R0p0`0000000000
  0x8ea0	f8 1f 00 00 e8 7e 00 00 9b 3a 00 00 00 00 00 00 	00000~000:000000
  0x8eb0	19 19 06 00 19 64 0d 00 14 34 0c 00 06 92 02 70 	00000d000400000p
  0x8ec0	f8 1f 00 00 10 7f 00 00 45 3a 00 00 ff ff ff ff 	00000000E:000000
  0x8ed0	01 0f 06 00 0f 64 07 00 0f 34 06 00 0f 32 0b 70 	00000d000400020p
  0x8ee0	19 22 07 00 10 34 31 00 10 01 2a 00 09 e0 07 70 	0"00041000*0000p
  0x8ef0	06 60 00 00 7c 69 00 00 40 01 00 00 19 30 09 00 	0`00|i00@0000000
  0x8f00	1e 34 55 00 11 01 4c 00 0a f0 08 e0 06 70 05 60 	04U000L000000p0`
  0x8f10	04 50 00 00 f8 69 00 00 38 7f 00 00 53 02 00 00 	0P000i008000S000
  0x8f20	a6 37 00 00 ff ff ff ff 01 12 05 00 12 42 0e 70 	0700000000000B0p
  0x8f30	0d 60 0c 50 0b 30 00 00 11 0d 01 00 04 62 00 00 	0`0P000000000b00
  0x8f40	f8 1f 00 00 60 7f 00 00 97 34 00 00 00 00 00 00 	0000`00004000000
  0x8f50	01 13 05 00 13 42 0f e0 0d 70 0c 60 0b 30 00 00 	00000B000p0`0000
  0x8f60	01 05 02 00 05 34 01 00 01 02 01 00 02 30 00 00 	0000040000000000
  0x8f70	01 04 01 00 04 12 00 00 00 00 00 00 38 1f 00 00 	0000000000008000
  0x8f80	00 00 00 00 98 8f 00 00 00 00 00 00 00 00 00 00 	0000000000000000
  0x8f90	00 00 00 00 00 00 00 00 02 00 00 00 b0 8f 00 00 	0000000000000000
  0x8fa0	58 90 00 00 00 00 00 00 00 00 00 00 00 00 00 00 	X000000000000000
  0x8fb0	10 00 00 00 40 a0 00 00 00 00 00 00 ff ff ff ff 	0000@00000000000
  0x8fc0	00 00 00 00 18 00 00 00 80 1e 00 00 00 00 00 00 	0000000000000000
  0x8fd0	00 00 00 00 00 00 00 00 00 00 00 00 38 1f 00 00 	0000000000008000
  0x8fe0	00 00 00 00 f8 8f 00 00 00 00 00 00 00 00 00 00 	0000000000000000
  0x8ff0	00 00 00 00 00 00 00 00 03 00 00 00 18 90 00 00 	0000000000000000
  0x9000	b0 8f 00 00 58 90 00 00 00 00 00 00 00 00 00 00 	0000X00000000000
  0x9010	00 00 00 00 00 00 00 00 00 00 00 00 10 a0 00 00 	0000000000000000
  0x9020	00 00 00 00 ff ff ff ff 00 00 00 00 18 00 00 00 	0000000000000000
  0x9030	dc 1e 00 00 00 00 00 00 00 00 00 00 00 00 00 00 	0000000000000000
  0x9040	02 00 00 00 80 90 00 00 58 90 00 00 00 00 00 00 	00000000X0000000
  0x9050	00 00 00 00 00 00 00 00 00 00 00 00 98 a0 00 00 	0000000000000000
  0x9060	00 00 00 00 ff ff ff ff 00 00 00 00 18 00 00 00 	0000000000000000
  0x9070	cc 2c 00 00 00 00 00 00 00 00 00 00 00 00 00 00 	0,00000000000000
  0x9080	00 00 00 00 68 a0 00 00 00 00 00 00 ff ff ff ff 	0000h00000000000
  0x9090	00 00 00 00 d0 00 00 00 bc 2b 00 00 00 00 00 00 	000000000+000000
  0x90a0	00 00 00 00 00 00 00 00 00 00 00 00 f8 2e 00 00 	0000000000000.00
  0x90b0	00 00 00 00 40 90 00 00 00 00 00 00 00 00 00 00 	0000@00000000000
  0x90c0	00 00 00 00 90 95 00 00 00 00 00 00 00 00 00 00 	0000000000000000
  0x90d0	1a 96 00 00 40 75 00 00 70 94 00 00 00 00 00 00 	0000@u00p0000000
  0x90e0	00 00 00 00 22 99 00 00 20 74 00 00 b8 95 00 00 	0000"000 t000000
  0x90f0	00 00 00 00 00 00 00 00 44 99 00 00 68 75 00 00 	00000000D000hu00
  0x9100	30 93 00 00 00 00 00 00 00 00 00 00 fa 9c 00 00 	0000000000000000
  0x9110	e0 72 00 00 d0 93 00 00 00 00 00 00 00 00 00 00 	0r00000000000000
  0x9120	24 9d 00 00 80 73 00 00 00 93 00 00 00 00 00 00 	$0000s0000000000
  0x9130	00 00 00 00 46 9d 00 00 b0 72 00 00 c0 92 00 00 	0000F0000r000000
  0x9140	00 00 00 00 00 00 00 00 66 9d 00 00 70 72 00 00 	00000000f000pr00
  0x9150	30 94 00 00 00 00 00 00 00 00 00 00 90 9d 00 00 	0000000000000000
  0x9160	e0 73 00 00 80 92 00 00 00 00 00 00 00 00 00 00 	0s00000000000000
  0x9170	b8 9d 00 00 30 72 00 00 60 94 00 00 00 00 00 00 	00000r00`0000000
  0x9180	00 00 00 00 d8 9d 00 00 10 74 00 00 68 93 00 00 	000000000t00h000
  0x9190	00 00 00 00 00 00 00 00 00 9e 00 00 18 73 00 00 	0000000000000s00
  0x91a0	58 93 00 00 00 00 00 00 00 00 00 00 2a 9e 00 00 	X00000000000*000
  0x91b0	08 73 00 00 40 94 00 00 00 00 00 00 00 00 00 00 	0s00@00000000000
  0x91c0	52 9e 00 00 f0 73 00 00 50 94 00 00 00 00 00 00 	R0000s00P0000000
  0x91d0	00 00 00 00 7a 9e 00 00 00 74 00 00 a0 92 00 00 	0000z0000t000000
  0x91e0	00 00 00 00 00 00 00 00 9c 9e 00 00 50 72 00 00 	000000000000Pr00
  0x91f0	f0 92 00 00 00 00 00 00 00 00 00 00 be 9e 00 00 	0000000000000000
  0x9200	a0 72 00 00 b0 93 00 00 00 00 00 00 00 00 00 00 	0r00000000000000
  0x9210	e0 9e 00 00 60 73 00 00 90 93 00 00 00 00 00 00 	0000`s0000000000
  0x9220	00 00 00 00 06 9f 00 00 40 73 00 00 a0 93 00 00 	00000000@s000000
  0x9230	00 00 00 00 00 00 00 00 30 9f 00 00 50 73 00 00 	000000000000Ps00
  0x9240	20 94 00 00 00 00 00 00 00 00 00 00 54 9f 00 00 	 00000000000T000
  0x9250	d0 73 00 00 20 93 00 00 00 00 00 00 00 00 00 00 	0s00 00000000000
  0x9260	78 9f 00 00 d0 72 00 00 00 00 00 00 00 00 00 00 	x0000r0000000000
  0x9270	00 00 00 00 00 00 00 00 00 00 00 00 00 00 00 00 	0000000000000000
  0x9280	04 9a 00 00 00 00 00 00 74 9a 00 00 00 00 00 00 	00000000t0000000
  0x9290	bc 9b 00 00 00 00 00 00 00 00 00 00 00 00 00 00 	0000000000000000
  0x92a0	e4 9a 00 00 00 00 00 00 dc 9b 00 00 00 00 00 00 	0000000000000000
  0x92b0	ce 9b 00 00 00 00 00 00 00 00 00 00 00 00 00 00 	0000000000000000
  0x92c0	4e 9c 00 00 00 00 00 00 32 9c 00 00 00 00 00 00 	N000000020000000
  0x92d0	3e 9b 00 00 00 00 00 00 9e 99 00 00 00 00 00 00 	>000000000000000
  0x92e0	d4 9a 00 00 00 00 00 00 00 00 00 00 00 00 00 00 	0000000000000000
  0x92f0	30 9b 00 00 00 00 00 00 00 00 00 00 00 00 00 00 	0000000000000000
  0x9300	92 99 00 00 00 00 00 00 50 9b 00 00 00 00 00 00 	00000000P0000000
  0x9310	96 9b 00 00 00 00 00 00 00 00 00 00 00 00 00 00 	0000000000000000
  0x9320	e4 9c 00 00 00 00 00 00 00 00 00 00 00 00 00 00 	0000000000000000
  0x9330	d4 99 00 00 00 00 00 00 a8 9b 00 00 00 00 00 00 	0000000000000000
  0x9340	66 99 00 00 00 00 00 00 5c 9b 00 00 00 00 00 00 	f000000000000000
  0x9350	00 00 00 00 00 00 00 00 88 9a 00 00 00 00 00 00 	0000000000000000
  0x9360	00 00 00 00 00 00 00 00 80 9b 00 00 00 00 00 00 	0000000000000000
  0x9370	4e 9a 00 00 00 00 00 00 80 9c 00 00 00 00 00 00 	N000000000000000
  0x9380	6c 9c 00 00 00 00 00 00 00 00 00 00 00 00 00 00 	l000000000000000
  0x9390	94 9c 00 00 00 00 00 00 00 00 00 00 00 00 00 00 	0000000000000000
  0x93a0	b0 9c 00 00 00 00 00 00 00 00 00 00 00 00 00 00 	0000000000000000
  0x93b0	1e 9c 00 00 00 00 00 00 f0 9b 00 00 00 00 00 00 	0000000000000000
  0x93c0	04 9c 00 00 00 00 00 00 00 00 00 00 00 00 00 00 	0000000000000000
  0x93d0	64 9a 00 00 00 00 00 00 06 9b 00 00 00 00 00 00 	d000000000000000
  0x93e0	fa 9a 00 00 00 00 00 00 1e 9b 00 00 00 00 00 00 	0000000000000000
  0x93f0	6e 9b 00 00 00 00 00 00 38 9a 00 00 00 00 00 00 	n000000080000000
  0x9400	7c 99 00 00 00 00 00 00 c0 99 00 00 00 00 00 00 	|000000000000000
  0x9410	ae 99 00 00 00 00 00 00 00 00 00 00 00 00 00 00 	0000000000000000
  0x9420	ca 9c 00 00 00 00 00 00 00 00 00 00 00 00 00 00 	0000000000000000
  0x9430	ea 99 00 00 00 00 00 00 00 00 00 00 00 00 00 00 	0000000000000000
  0x9440	9a 9a 00 00 00 00 00 00 00 00 00 00 00 00 00 00 	0000000000000000
  0x9450	be 9a 00 00 00 00 00 00 00 00 00 00 00 00 00 00 	0000000000000000
  0x9460	18 9a 00 00 00 00 00 00 00 00 00 00 00 00 00 00 	0000000000000000
  0x9470	fc 96 00 00 00 00 00 00 0c 97 00 00 00 00 00 00 	0000000000000000
  0x9480	18 97 00 00 00 00 00 00 32 97 00 00 00 00 00 00 	0000000020000000
  0x9490	4c 97 00 00 00 00 00 00 5e 97 00 00 00 00 00 00 	L0000000^0000000
  0x94a0	6a 97 00 00 00 00 00 00 76 97 00 00 00 00 00 00 	j0000000v0000000
  0x94b0	9a 97 00 00 00 00 00 00 b8 97 00 00 00 00 00 00 	0000000000000000
  0x94c0	da 97 00 00 00 00 00 00 fa 97 00 00 00 00 00 00 	0000000000000000
  0x94d0	0a 98 00 00 00 00 00 00 2a 98 00 00 00 00 00 00 	00000000*0000000
  0x94e0	40 98 00 00 00 00 00 00 54 98 00 00 00 00 00 00 	@0000000T0000000
  0x94f0	64 98 00 00 00 00 00 00 a0 9f 00 00 00 00 00 00 	d000000000000000
  0x9500	78 98 00 00 00 00 00 00 86 98 00 00 00 00 00 00 	x000000000000000
  0x9510	90 98 00 00 00 00 00 00 9a 98 00 00 00 00 00 00 	0000000000000000
  0x9520	a6 98 00 00 00 00 00 00 b6 98 00 00 00 00 00 00 	0000000000000000
  0x9530	ce 98 00 00 00 00 00 00 e4 98 00 00 00 00 00 00 	0000000000000000
  0x9540	0c 99 00 00 00 00 00 00 de 96 00 00 00 00 00 00 	0000000000000000
  0x9550	be 96 00 00 00 00 00 00 a0 96 00 00 00 00 00 00 	0000000000000000
  0x9560	86 96 00 00 00 00 00 00 74 96 00 00 00 00 00 00 	00000000t0000000
  0x9570	62 96 00 00 00 00 00 00 52 96 00 00 00 00 00 00 	b0000000R0000000
  0x9580	3c 96 00 00 00 00 00 00 00 00 00 00 00 00 00 00 	<000000000000000
  0x9590	d4 95 00 00 00 00 00 00 e2 95 00 00 00 00 00 00 	0000000000000000
  0x95a0	c8 95 00 00 00 00 00 00 ec 95 00 00 00 00 00 00 	0000000000000000
  0x95b0	00 00 00 00 00 00 00 00 02 99 00 00 00 00 00 00 	0000000000000000
  0x95c0	00 00 00 00 00 00 00 00 36 00 5f 69 6e 69 74 74 	0000000060_initt
  0x95d0	65 72 6d 00 37 00 5f 69 6e 69 74 74 65 72 6d 5f 	erm070_initterm_
  0x95e0	65 00 15 00 5f 63 5f 65 78 69 74 00 3d 00 5f 72 	e000_c_exit0=0_r
  0x95f0	65 67 69 73 74 65 72 5f 74 68 72 65 61 64 5f 6c 	egister_thread_l
  0x9600	6f 63 61 6c 5f 65 78 65 5f 61 74 65 78 69 74 5f 	ocal_exe_atexit_
  0x9610	63 61 6c 6c 62 61 63 6b 00 00 61 70 69 2d 6d 73 	callback00api-ms
  0x9620	2d 77 69 6e 2d 63 72 74 2d 72 75 6e 74 69 6d 65 	-win-crt-runtime
  0x9630	2d 6c 31 2d 31 2d 30 2e 64 6c 6c 00 12 00 5f 5f 	-l1-1-0.dll000__
  0x9640	43 78 78 46 72 61 6d 65 48 61 6e 64 6c 65 72 33 	CxxFrameHandler3
  0x9650	00 00 4f 00 5f 6f 5f 5f 5f 70 5f 5f 5f 61 72 67 	00O0_o___p___arg
  0x9660	63 00 51 00 5f 6f 5f 5f 5f 70 5f 5f 5f 77 61 72 	c0Q0_o___p___war
  0x9670	67 76 00 00 53 00 5f 6f 5f 5f 5f 70 5f 5f 63 6f 	gv00S0_o___p__co
  0x9680	6d 6d 6f 64 65 00 5e 00 5f 6f 5f 5f 5f 73 74 64 	mmode0^0_o___std
  0x9690	5f 65 78 63 65 70 74 69 6f 6e 5f 63 6f 70 79 00 	_exception_copy0
  0x96a0	5f 00 5f 6f 5f 5f 5f 73 74 64 5f 65 78 63 65 70 	_0_o___std_excep
  0x96b0	74 69 6f 6e 5f 64 65 73 74 72 6f 79 00 00 6a 00 	tion_destroy00j0
  0x96c0	5f 6f 5f 5f 5f 73 74 64 69 6f 5f 63 6f 6d 6d 6f 	_o___stdio_commo
  0x96d0	6e 5f 76 73 6e 70 72 69 6e 74 66 5f 73 00 70 00 	n_vsnprintf_s0p0
  0x96e0	5f 6f 5f 5f 5f 73 74 64 69 6f 5f 63 6f 6d 6d 6f 	_o___stdio_commo
  0x96f0	6e 5f 76 73 77 70 72 69 6e 74 66 00 91 00 5f 6f 	n_vswprintf000_o
  0x9700	5f 5f 63 61 6c 6c 6e 65 77 68 00 00 93 00 5f 6f 	__callnewh0000_o
  0x9710	5f 5f 63 65 78 69 74 00 9f 00 5f 6f 5f 5f 63 6f 	__cexit000_o__co
  0x9720	6e 66 69 67 74 68 72 65 61 64 6c 6f 63 61 6c 65 	nfigthreadlocale
  0x9730	00 00 a1 00 5f 6f 5f 5f 63 6f 6e 66 69 67 75 72 	0000_o__configur
  0x9740	65 5f 77 69 64 65 5f 61 72 67 76 00 a7 00 5f 6f 	e_wide_argv000_o
  0x9750	5f 5f 63 72 74 5f 61 74 65 78 69 74 00 00 c0 00 	__crt_atexit0000
  0x9760	5f 6f 5f 5f 65 72 72 6e 6f 00 c7 00 5f 6f 5f 5f 	_o__errno000_o__
  0x9770	65 78 69 74 00 00 0f 01 5f 6f 5f 5f 67 65 74 5f 	exit0000_o__get_
  0x9780	69 6e 69 74 69 61 6c 5f 77 69 64 65 5f 65 6e 76 	initial_wide_env
  0x9790	69 72 6f 6e 6d 65 6e 74 00 00 3d 01 5f 6f 5f 5f 	ironment00=0_o__
  0x97a0	69 6e 69 74 69 61 6c 69 7a 65 5f 6f 6e 65 78 69 	initialize_onexi
  0x97b0	74 5f 74 61 62 6c 65 00 3e 01 5f 6f 5f 5f 69 6e 	t_table0>0_o__in
  0x97c0	69 74 69 61 6c 69 7a 65 5f 77 69 64 65 5f 65 6e 	itialize_wide_en
  0x97d0	76 69 72 6f 6e 6d 65 6e 74 00 3f 01 5f 6f 5f 5f 	vironment0?0_o__
  0x97e0	69 6e 76 61 6c 69 64 5f 70 61 72 61 6d 65 74 65 	invalid_paramete
  0x97f0	72 5f 6e 6f 69 6e 66 6f 00 00 43 02 5f 6f 5f 5f 	r_noinfo00C0_o__
  0x9800	70 75 72 65 63 61 6c 6c 00 00 51 02 5f 6f 5f 5f 	purecall00Q0_o__
  0x9810	72 65 67 69 73 74 65 72 5f 6f 6e 65 78 69 74 5f 	register_onexit_
  0x9820	66 75 6e 63 74 69 6f 6e 00 00 5a 02 5f 6f 5f 5f 	function00Z0_o__
  0x9830	73 65 68 5f 66 69 6c 74 65 72 5f 65 78 65 00 00 	seh_filter_exe00
  0x9840	5c 02 5f 6f 5f 5f 73 65 74 5f 61 70 70 5f 74 79 	00_o__set_app_ty
  0x9850	70 65 00 00 5f 02 5f 6f 5f 5f 73 65 74 5f 66 6d 	pe00_0_o__set_fm
  0x9860	6f 64 65 00 62 02 5f 6f 5f 5f 73 65 74 5f 6e 65 	ode0b0_o__set_ne
  0x9870	77 5f 6d 6f 64 65 00 00 cd 02 5f 6f 5f 5f 77 63 	w_mode0000_o__wc
  0x9880	73 69 63 6d 70 00 6d 03 5f 6f 5f 65 78 69 74 00 	sicmp0m0_o_exit0
  0x9890	8d 03 5f 6f 5f 66 72 65 65 00 d8 03 5f 6f 5f 6d 	00_o_free000_o_m
  0x98a0	61 6c 6c 6f 63 00 36 04 5f 6f 5f 74 65 72 6d 69 	alloc060_o_termi
  0x98b0	6e 61 74 65 00 00 0c 00 5f 5f 43 5f 73 70 65 63 	nate0000__C_spec
  0x98c0	69 66 69 63 5f 68 61 6e 64 6c 65 72 00 00 20 00 	ific_handler00 0
  0x98d0	5f 5f 63 75 72 72 65 6e 74 5f 65 78 63 65 70 74 	__current_except
  0x98e0	69 6f 6e 00 21 00 5f 5f 63 75 72 72 65 6e 74 5f 	ion0!0__current_
  0x98f0	65 78 63 65 70 74 69 6f 6e 5f 63 6f 6e 74 65 78 	exception_contex
  0x9900	74 00 83 00 6d 65 6d 73 65 74 00 00 01 00 5f 43 	t000memset0000_C
  0x9910	78 78 54 68 72 6f 77 45 78 63 65 70 74 69 6f 6e 	xxThrowException
  0x9920	00 00 61 70 69 2d 6d 73 2d 77 69 6e 2d 63 72 74 	00api-ms-win-crt
  0x9930	2d 70 72 69 76 61 74 65 2d 6c 31 2d 31 2d 30 2e 	-private-l1-1-0.
  0x9940	64 6c 6c 00 61 70 69 2d 6d 73 2d 77 69 6e 2d 63 	dll0api-ms-win-c
  0x9950	72 74 2d 73 74 72 69 6e 67 2d 6c 31 2d 31 2d 30 	rt-string-l1-1-0
  0x9960	2e 64 6c 6c 00 00 0f 00 47 65 74 4d 6f 64 75 6c 	.dll0000GetModul
  0x9970	65 46 69 6c 65 4e 61 6d 65 41 00 00 0b 00 43 72 	eFileNameA0000Cr
  0x9980	65 61 74 65 53 65 6d 61 70 68 6f 72 65 45 78 57 	eateSemaphoreExW
  0x9990	00 00 06 00 48 65 61 70 46 72 65 65 00 00 0d 00 	0000HeapFree0000
  0x99a0	53 65 74 4c 61 73 74 45 72 72 6f 72 00 00 05 00 	SetLastError0000
  0x99b0	43 72 65 61 74 65 45 76 65 6e 74 45 78 57 00 00 	CreateEventExW00
  0x99c0	26 00 52 65 6c 65 61 73 65 53 65 6d 61 70 68 6f 	&0ReleaseSemapho
  0x99d0	72 65 00 00 13 00 47 65 74 4d 6f 64 75 6c 65 48 	re0000GetModuleH
  0x99e0	61 6e 64 6c 65 45 78 57 00 00 12 00 53 65 74 52 	andleExW0000SetR
  0x99f0	65 73 74 72 69 63 74 65 64 45 72 72 6f 72 49 6e 	estrictedErrorIn
  0x9a00	66 6f 00 00 09 00 43 6f 43 72 65 61 74 65 49 6e 	fo0000CoCreateIn
  0x9a10	73 74 61 6e 63 65 00 00 0b 00 57 69 6e 64 6f 77 	stance0000Window
  0x9a20	73 43 72 65 61 74 65 53 74 72 69 6e 67 52 65 66 	sCreateStringRef
  0x9a30	65 72 65 6e 63 65 00 00 36 00 57 61 69 74 46 6f 	erence0060WaitFo
  0x9a40	72 53 69 6e 67 6c 65 4f 62 6a 65 63 74 00 11 00 	rSingleObject000
  0x9a50	47 65 74 43 75 72 72 65 6e 74 54 68 72 65 61 64 	GetCurrentThread
  0x9a60	49 64 00 00 23 00 52 65 6c 65 61 73 65 4d 75 74 	Id00#0ReleaseMut
  0x9a70	65 78 00 00 3d 00 43 6f 53 65 74 50 72 6f 78 79 	ex00=0CoSetProxy
  0x9a80	42 6c 61 6e 6b 65 74 00 09 00 46 6f 72 6d 61 74 	Blanket000Format
  0x9a90	4d 65 73 73 61 67 65 57 00 00 06 00 52 6f 47 65 	MessageW0000RoGe
  0x9aa0	74 4d 61 74 63 68 69 6e 67 52 65 73 74 72 69 63 	tMatchingRestric
  0x9ab0	74 65 64 45 72 72 6f 72 49 6e 66 6f 00 00 00 00 	tedErrorInfo0000
  0x9ac0	52 6f 41 63 74 69 76 61 74 65 49 6e 73 74 61 6e 	RoActivateInstan
  0x9ad0	63 65 00 00 05 00 47 65 74 4c 61 73 74 45 72 72 	ce0000GetLastErr
  0x9ae0	6f 72 00 00 07 00 4f 75 74 70 75 74 44 65 62 75 	or0000OutputDebu
  0x9af0	67 53 74 72 69 6e 67 57 00 00 29 00 53 65 74 45 	gStringW00)0SetE
  0x9b00	76 65 6e 74 00 00 37 00 57 61 69 74 46 6f 72 53 	vent0070WaitForS
  0x9b10	69 6e 67 6c 65 4f 62 6a 65 63 74 45 78 00 21 00 	ingleObjectEx0!0
  0x9b20	4f 70 65 6e 53 65 6d 61 70 68 6f 72 65 57 00 00 	OpenSemaphoreW00
  0x9b30	00 00 43 6c 6f 73 65 48 61 6e 64 6c 65 00 07 00 	00CloseHandle000
  0x9b40	52 61 69 73 65 45 78 63 65 70 74 69 6f 6e 00 00 	RaiseException00
  0x9b50	02 00 48 65 61 70 41 6c 6c 6f 63 00 15 00 47 65 	00HeapAlloc000Ge
  0x9b60	74 50 72 6f 63 41 64 64 72 65 73 73 00 00 09 00 	tProcAddress0000
  0x9b70	43 72 65 61 74 65 4d 75 74 65 78 45 78 57 00 00 	CreateMutexExW00
  0x9b80	0d 00 47 65 74 43 75 72 72 65 6e 74 50 72 6f 63 	00GetCurrentProc
  0x9b90	65 73 73 49 64 00 00 00 47 65 74 50 72 6f 63 65 	essId000GetProce
  0x9ba0	73 73 48 65 61 70 00 00 14 00 47 65 74 4d 6f 64 	ssHeap0000GetMod
  0x9bb0	75 6c 65 48 61 6e 64 6c 65 57 00 00 28 00 43 6f 	uleHandleW00(0Co
  0x9bc0	49 6e 69 74 69 61 6c 69 7a 65 45 78 00 00 04 00 	InitializeEx0000
  0x9bd0	44 65 62 75 67 42 72 65 61 6b 00 00 05 00 49 73 	DebugBreak0000Is
  0x9be0	44 65 62 75 67 67 65 72 50 72 65 73 65 6e 74 00 	DebuggerPresent0
  0x9bf0	02 00 52 74 6c 43 61 70 74 75 72 65 43 6f 6e 74 	00RtlCaptureCont
  0x9c00	65 78 74 00 0a 00 52 74 6c 4c 6f 6f 6b 75 70 46 	ext000RtlLookupF
  0x9c10	75 6e 63 74 69 6f 6e 45 6e 74 72 79 00 00 10 00 	unctionEntry0000
  0x9c20	52 74 6c 56 69 72 74 75 61 6c 55 6e 77 69 6e 64 	RtlVirtualUnwind
  0x9c30	00 00 11 00 55 6e 68 61 6e 64 6c 65 64 45 78 63 	0000UnhandledExc
  0x9c40	65 70 74 69 6f 6e 46 69 6c 74 65 72 00 00 0f 00 	eptionFilter0000
  0x9c50	53 65 74 55 6e 68 61 6e 64 6c 65 64 45 78 63 65 	SetUnhandledExce
  0x9c60	70 74 69 6f 6e 46 69 6c 74 65 72 00 0c 00 47 65 	ptionFilter000Ge
  0x9c70	74 43 75 72 72 65 6e 74 50 72 6f 63 65 73 73 00 	tCurrentProcess0
  0x9c80	4d 00 54 65 72 6d 69 6e 61 74 65 50 72 6f 63 65 	M0TerminateProce
  0x9c90	73 73 00 00 2f 00 49 73 50 72 6f 63 65 73 73 6f 	ss00/0IsProcesso
  0x9ca0	72 46 65 61 74 75 72 65 50 72 65 73 65 6e 74 00 	rFeaturePresent0
  0x9cb0	00 00 51 75 65 72 79 50 65 72 66 6f 72 6d 61 6e 	00QueryPerforman
  0x9cc0	63 65 43 6f 75 6e 74 65 72 00 16 00 47 65 74 53 	ceCounter000GetS
  0x9cd0	79 73 74 65 6d 54 69 6d 65 41 73 46 69 6c 65 54 	ystemTimeAsFileT
  0x9ce0	69 6d 65 00 00 00 49 6e 69 74 69 61 6c 69 7a 65 	ime000Initialize
  0x9cf0	53 4c 69 73 74 48 65 61 64 00 61 70 69 2d 6d 73 	SListHead0api-ms
  0x9d00	2d 77 69 6e 2d 63 6f 72 65 2d 6c 69 62 72 61 72 	-win-core-librar
  0x9d10	79 6c 6f 61 64 65 72 2d 6c 31 2d 32 2d 30 2e 64 	yloader-l1-2-0.d
  0x9d20	6c 6c 00 00 61 70 69 2d 6d 73 2d 77 69 6e 2d 63 	ll00api-ms-win-c
  0x9d30	6f 72 65 2d 73 79 6e 63 68 2d 6c 31 2d 31 2d 30 	ore-synch-l1-1-0
  0x9d40	2e 64 6c 6c 00 00 61 70 69 2d 6d 73 2d 77 69 6e 	.dll00api-ms-win
  0x9d50	2d 63 6f 72 65 2d 68 65 61 70 2d 6c 31 2d 31 2d 	-core-heap-l1-1-
  0x9d60	30 2e 64 6c 6c 00 61 70 69 2d 6d 73 2d 77 69 6e 	0.dll0api-ms-win
  0x9d70	2d 63 6f 72 65 2d 65 72 72 6f 72 68 61 6e 64 6c 	-core-errorhandl
  0x9d80	69 6e 67 2d 6c 31 2d 31 2d 30 2e 64 6c 6c 00 00 	ing-l1-1-0.dll00
  0x9d90	61 70 69 2d 6d 73 2d 77 69 6e 2d 63 6f 72 65 2d 	api-ms-win-core-
  0x9da0	77 69 6e 72 74 2d 65 72 72 6f 72 2d 6c 31 2d 31 	winrt-error-l1-1
  0x9db0	2d 30 2e 64 6c 6c 00 00 61 70 69 2d 6d 73 2d 77 	-0.dll00api-ms-w
  0x9dc0	69 6e 2d 63 6f 72 65 2d 63 6f 6d 2d 6c 31 2d 31 	in-core-com-l1-1
  0x9dd0	2d 30 2e 64 6c 6c 00 00 61 70 69 2d 6d 73 2d 77 	-0.dll00api-ms-w
  0x9de0	69 6e 2d 63 6f 72 65 2d 77 69 6e 72 74 2d 73 74 	in-core-winrt-st
  0x9df0	72 69 6e 67 2d 6c 31 2d 31 2d 30 2e 64 6c 6c 00 	ring-l1-1-0.dll0
  0x9e00	61 70 69 2d 6d 73 2d 77 69 6e 2d 63 6f 72 65 2d 	api-ms-win-core-
  0x9e10	70 72 6f 63 65 73 73 74 68 72 65 61 64 73 2d 6c 	processthreads-l
  0x9e20	31 2d 31 2d 30 2e 64 6c 6c 00 61 70 69 2d 6d 73 	1-1-0.dll0api-ms
  0x9e30	2d 77 69 6e 2d 63 6f 72 65 2d 6c 6f 63 61 6c 69 	-win-core-locali
  0x9e40	7a 61 74 69 6f 6e 2d 6c 31 2d 32 2d 30 2e 64 6c 	zation-l1-2-0.dl
  0x9e50	6c 00 61 70 69 2d 6d 73 2d 77 69 6e 2d 63 6f 72 	l0api-ms-win-cor
  0x9e60	65 2d 77 69 6e 72 74 2d 65 72 72 6f 72 2d 6c 31 	e-winrt-error-l1
  0x9e70	2d 31 2d 31 2e 64 6c 6c 00 00 61 70 69 2d 6d 73 	-1-1.dll00api-ms
  0x9e80	2d 77 69 6e 2d 63 6f 72 65 2d 77 69 6e 72 74 2d 	-win-core-winrt-
  0x9e90	6c 31 2d 31 2d 30 2e 64 6c 6c 00 00 61 70 69 2d 	l1-1-0.dll00api-
  0x9ea0	6d 73 2d 77 69 6e 2d 63 6f 72 65 2d 64 65 62 75 	ms-win-core-debu
  0x9eb0	67 2d 6c 31 2d 31 2d 30 2e 64 6c 6c 00 00 61 70 	g-l1-1-0.dll00ap
  0x9ec0	69 2d 6d 73 2d 77 69 6e 2d 63 6f 72 65 2d 68 61 	i-ms-win-core-ha
  0x9ed0	6e 64 6c 65 2d 6c 31 2d 31 2d 30 2e 64 6c 6c 00 	ndle-l1-1-0.dll0
  0x9ee0	61 70 69 2d 6d 73 2d 77 69 6e 2d 63 6f 72 65 2d 	api-ms-win-core-
  0x9ef0	72 74 6c 73 75 70 70 6f 72 74 2d 6c 31 2d 31 2d 	rtlsupport-l1-1-
  0x9f00	30 2e 64 6c 6c 00 61 70 69 2d 6d 73 2d 77 69 6e 	0.dll0api-ms-win
  0x9f10	2d 63 6f 72 65 2d 70 72 6f 63 65 73 73 74 68 72 	-core-processthr
  0x9f20	65 61 64 73 2d 6c 31 2d 31 2d 31 2e 64 6c 6c 00 	eads-l1-1-1.dll0
  0x9f30	61 70 69 2d 6d 73 2d 77 69 6e 2d 63 6f 72 65 2d 	api-ms-win-core-
  0x9f40	70 72 6f 66 69 6c 65 2d 6c 31 2d 31 2d 30 2e 64 	profile-l1-1-0.d
  0x9f50	6c 6c 00 00 61 70 69 2d 6d 73 2d 77 69 6e 2d 63 	ll00api-ms-win-c
  0x9f60	6f 72 65 2d 73 79 73 69 6e 66 6f 2d 6c 31 2d 31 	ore-sysinfo-l1-1
  0x9f70	2d 30 2e 64 6c 6c 00 00 61 70 69 2d 6d 73 2d 77 	-0.dll00api-ms-w
  0x9f80	69 6e 2d 63 6f 72 65 2d 69 6e 74 65 72 6c 6f 63 	in-core-interloc
  0x9f90	6b 65 64 2d 6c 31 2d 31 2d 30 2e 64 6c 6c 00 00 	ked-l1-1-0.dll00
  0x9fa0	63 04 6d 65 6d 63 70 79 00 00 00 00 00 00 00 00 	c0memcpy00000000
  0x9fb0	00 00 00 00 00 00 00 00 00 00 00 00 00 00 00 00 	0000000000000000
  0x9fc0	00 00 00 00 00 00 00 00 00 00 00 00 00 00 00 00 	0000000000000000
  0x9fd0	00 00 00 00 00 00 00 00 00 00 00 00 00 00 00 00 	0000000000000000
  0x9fe0	00 00 00 00 00 00 00 00 00 00 00 00 00 00 00 00 	0000000000000000
  0x9ff0	00 00 00 00 00 00 00 00 00 00 00 00 00 00 00 00 	0000000000000000
=== DATA BLOCK END ===

=== DATA BLOCK ADDRESS 0xa000 ===
  0xa000	90 79 00 40 01 00 00 00 00 00 00 00 00 00 00 00 	0y0@000000000000
  0xa010	18 70 00 40 01 00 00 00 00 00 00 00 00 00 00 00 	0p0@000000000000
  0xa020	2e 3f 41 56 62 61 64 5f 61 72 72 61 79 5f 6e 65 	.?AVbad_array_ne
  0xa030	77 5f 6c 65 6e 67 74 68 40 73 74 64 40 40 00 00 	w_length@std@@00
  0xa040	18 70 00 40 01 00 00 00 00 00 00 00 00 00 00 00 	0p0@000000000000
  0xa050	2e 3f 41 56 62 61 64 5f 61 6c 6c 6f 63 40 73 74 	.?AVbad_alloc@st
  0xa060	64 40 40 00 00 00 00 00 18 70 00 40 01 00 00 00 	d@@000000p0@0000
  0xa070	00 00 00 00 00 00 00 00 2e 3f 41 56 52 65 73 75 	00000000.?AVResu
  0xa080	6c 74 45 78 63 65 70 74 69 6f 6e 40 77 69 6c 40 	ltException@wil@
  0xa090	40 00 00 00 00 00 00 00 18 70 00 40 01 00 00 00 	@00000000p0@0000
  0xa0a0	00 00 00 00 00 00 00 00 2e 3f 41 56 65 78 63 65 	00000000.?AVexce
  0xa0b0	70 74 69 6f 6e 40 73 74 64 40 40 00 00 00 00 00 	ption@std@@00000
  0xa0c0	18 70 00 40 01 00 00 00 00 00 00 00 00 00 00 00 	0p0@000000000000
  0xa0d0	2e 3f 41 56 74 79 70 65 5f 69 6e 66 6f 40 40 00 	.?AVtype_info@@0
  0xa0e0	32 a2 df 2d 99 2b 00 00 cd 5d 20 d2 66 d4 ff ff 	200-0+000] 0f000
  0xa0f0	01 00 00 00 02 00 00 00 2f 20 00 00 00 00 00 00 	00000000/ 000000
  0xa100	01 00 00 00 01 00 00 00 01 00 00 00 00 00 00 00 	0000000000000000
  0xa110	00 00 00 00 00 00 00 00 00 00 00 00 00 00 00 00 	0000000000000000
  0xa120	00 00 00 00 00 00 00 00 00 00 00 00 00 00 00 00 	0000000000000000
  0xa130	00 00 00 00 00 00 00 00 00 00 00 00 00 00 00 00 	0000000000000000
  0xa140	00 00 00 00 00 00 00 00 00 00 00 00 00 00 00 00 	0000000000000000
  0xa150	00 00 00 00 00 00 00 00 00 00 00 00 00 00 00 00 	0000000000000000
  0xa160	01 01 00 00 00 00 00 00 00 00 00 00 00 00 00 00 	0000000000000000
  0xa170	00 00 00 00 00 00 00 00 00 00 00 00 00 00 00 00 	0000000000000000
  0xa180	00 00 00 00 00 00 00 00 00 00 00 00 00 00 00 00 	0000000000000000
  0xa190	00 00 00 00 00 00 00 00 00 00 00 00 00 00 00 00 	0000000000000000
  0xa1a0	00 00 00 00 00 00 00 00 00 00 00 00 00 00 00 00 	0000000000000000
  0xa1b0	00 00 00 00 00 00 00 00 00 00 00 00 00 00 00 00 	0000000000000000
  0xa1c0	00 00 00 00 00 00 00 00 00 00 00 00 00 00 00 00 	0000000000000000
  0xa1d0	00 00 00 00 00 00 00 00 00 00 00 00 00 00 00 00 	0000000000000000
  0xa1e0	00 00 00 00 00 00 00 00 00 00 00 00 00 00 00 00 	0000000000000000
  0xa1f0	00 00 00 00 00 00 00 00 00 00 00 00 00 00 00 00 	0000000000000000
  0xa200	00 00 00 00 00 00 00 00 00 00 00 00 00 00 00 00 	0000000000000000
  0xa210	00 00 00 00 00 00 00 00 00 00 00 00 00 00 00 00 	0000000000000000
  0xa220	00 00 00 00 00 00 00 00 00 00 00 00 00 00 00 00 	0000000000000000
  0xa230	00 00 00 00 00 00 00 00 00 00 00 00 00 00 00 00 	0000000000000000
  0xa240	00 00 00 00 00 00 00 00 00 00 00 00 00 00 00 00 	0000000000000000
  0xa250	00 00 00 00 00 00 00 00 00 00 00 00 00 00 00 00 	0000000000000000
  0xa260	00 00 00 00 00 00 00 00 00 00 00 00 00 00 00 00 	0000000000000000
  0xa270	00 00 00 00 00 00 00 00 00 00 00 00 00 00 00 00 	0000000000000000
  0xa280	00 00 00 00 00 00 00 00 00 00 00 00 00 00 00 00 	0000000000000000
  0xa290	00 00 00 00 00 00 00 00 00 00 00 00 00 00 00 00 	0000000000000000
  0xa2a0	00 00 00 00 00 00 00 00 00 00 00 00 00 00 00 00 	0000000000000000
  0xa2b0	00 00 00 00 00 00 00 00 00 00 00 00 00 00 00 00 	0000000000000000
  0xa2c0	00 00 00 00 00 00 00 00 00 00 00 00 00 00 00 00 	0000000000000000
  0xa2d0	00 00 00 00 00 00 00 00 00 00 00 00 00 00 00 00 	0000000000000000
  0xa2e0	00 00 00 00 00 00 00 00 00 00 00 00 00 00 00 00 	0000000000000000
  0xa2f0	00 00 00 00 00 00 00 00 00 00 00 00 00 00 00 00 	0000000000000000
  0xa300	00 00 00 00 00 00 00 00 00 00 00 00 00 00 00 00 	0000000000000000
  0xa310	00 00 00 00 00 00 00 00 00 00 00 00 00 00 00 00 	0000000000000000
  0xa320	00 00 00 00 00 00 00 00 00 00 00 00 00 00 00 00 	0000000000000000
  0xa330	00 00 00 00 00 00 00 00 00 00 00 00 00 00 00 00 	0000000000000000
  0xa340	00 00 00 00 00 00 00 00 00 00 00 00 00 00 00 00 	0000000000000000
  0xa350	00 00 00 00 00 00 00 00 00 00 00 00 00 00 00 00 	0000000000000000
  0xa360	00 00 00 00 00 00 00 00 00 00 00 00 00 00 00 00 	0000000000000000
  0xa370	00 00 00 00 00 00 00 00 00 00 00 00 00 00 00 00 	0000000000000000
  0xa380	00 00 00 00 00 00 00 00 00 00 00 00 00 00 00 00 	0000000000000000
  0xa390	00 00 00 00 00 00 00 00 00 00 00 00 00 00 00 00 	0000000000000000
  0xa3a0	00 00 00 00 00 00 00 00 00 00 00 00 00 00 00 00 	0000000000000000
  0xa3b0	00 00 00 00 00 00 00 00 00 00 00 00 00 00 00 00 	0000000000000000
  0xa3c0	00 00 00 00 00 00 00 00 00 00 00 00 00 00 00 00 	0000000000000000
  0xa3d0	00 00 00 00 00 00 00 00 00 00 00 00 00 00 00 00 	0000000000000000
  0xa3e0	00 00 00 00 00 00 00 00 00 00 00 00 00 00 00 00 	0000000000000000
  0xa3f0	00 00 00 00 00 00 00 00 00 00 00 00 00 00 00 00 	0000000000000000
  0xa400	00 00 00 00 00 00 00 00 00 00 00 00 00 00 00 00 	0000000000000000
  0xa410	00 00 00 00 00 00 00 00 00 00 00 00 00 00 00 00 	0000000000000000
  0xa420	00 00 00 00 00 00 00 00 00 00 00 00 00 00 00 00 	0000000000000000
  0xa430	00 00 00 00 00 00 00 00 00 00 00 00 00 00 00 00 	0000000000000000
  0xa440	00 00 00 00 00 00 00 00 00 00 00 00 00 00 00 00 	0000000000000000
  0xa450	00 00 00 00 00 00 00 00 00 00 00 00 00 00 00 00 	0000000000000000
  0xa460	00 00 00 00 00 00 00 00 00 00 00 00 00 00 00 00 	0000000000000000
  0xa470	00 00 00 00 00 00 00 00 00 00 00 00 00 00 00 00 	0000000000000000
  0xa480	00 00 00 00 00 00 00 00 00 00 00 00 00 00 00 00 	0000000000000000
  0xa490	00 00 00 00 00 00 00 00 00 00 00 00 00 00 00 00 	0000000000000000
  0xa4a0	00 00 00 00 00 00 00 00 00 00 00 00 00 00 00 00 	0000000000000000
  0xa4b0	00 00 00 00 00 00 00 00 00 00 00 00 00 00 00 00 	0000000000000000
  0xa4c0	00 00 00 00 00 00 00 00 00 00 00 00 00 00 00 00 	0000000000000000
  0xa4d0	00 00 00 00 00 00 00 00 00 00 00 00 00 00 00 00 	0000000000000000
  0xa4e0	00 00 00 00 00 00 00 00 00 00 00 00 00 00 00 00 	0000000000000000
  0xa4f0	00 00 00 00 00 00 00 00 00 00 00 00 00 00 00 00 	0000000000000000
  0xa500	00 00 00 00 00 00 00 00 00 00 00 00 00 00 00 00 	0000000000000000
  0xa510	00 00 00 00 00 00 00 00 00 00 00 00 00 00 00 00 	0000000000000000
  0xa520	00 00 00 00 00 00 00 00 00 00 00 00 00 00 00 00 	0000000000000000
  0xa530	00 00 00 00 00 00 00 00 00 00 00 00 00 00 00 00 	0000000000000000
  0xa540	00 00 00 00 00 00 00 00 00 00 00 00 00 00 00 00 	0000000000000000
  0xa550	00 00 00 00 00 00 00 00 00 00 00 00 00 00 00 00 	0000000000000000
  0xa560	00 00 00 00 00 00 00 00 00 00 00 00 00 00 00 00 	0000000000000000
  0xa570	00 00 00 00 00 00 00 00 00 00 00 00 00 00 00 00 	0000000000000000
  0xa580	00 00 00 00 00 00 00 00 00 00 00 00 00 00 00 00 	0000000000000000
  0xa590	00 00 00 00 00 00 00 00 00 00 00 00 00 00 00 00 	0000000000000000
  0xa5a0	00 00 00 00 00 00 00 00 00 00 00 00 00 00 00 00 	0000000000000000
  0xa5b0	00 00 00 00 00 00 00 00 00 00 00 00 00 00 00 00 	0000000000000000
  0xa5c0	00 00 00 00 00 00 00 00 00 00 00 00 00 00 00 00 	0000000000000000
  0xa5d0	00 00 00 00 00 00 00 00 00 00 00 00 00 00 00 00 	0000000000000000
  0xa5e0	00 00 00 00 00 00 00 00 00 00 00 00 00 00 00 00 	0000000000000000
  0xa5f0	00 00 00 00 00 00 00 00 00 00 00 00 00 00 00 00 	0000000000000000
  0xa600	00 00 00 00 00 00 00 00 00 00 00 00 00 00 00 00 	0000000000000000
  0xa610	00 00 00 00 00 00 00 00 00 00 00 00 00 00 00 00 	0000000000000000
  0xa620	00 00 00 00 00 00 00 00 00 00 00 00 00 00 00 00 	0000000000000000
  0xa630	00 00 00 00 00 00 00 00 00 00 00 00 00 00 00 00 	0000000000000000
  0xa640	00 00 00 00 00 00 00 00 00 00 00 00 00 00 00 00 	0000000000000000
  0xa650	00 00 00 00 00 00 00 00 00 00 00 00 00 00 00 00 	0000000000000000
  0xa660	00 00 00 00 00 00 00 00 00 00 00 00 00 00 00 00 	0000000000000000
  0xa670	00 00 00 00 00 00 00 00 00 00 00 00 00 00 00 00 	0000000000000000
  0xa680	00 00 00 00 00 00 00 00 00 00 00 00 00 00 00 00 	0000000000000000
  0xa690	00 00 00 00 00 00 00 00 00 00 00 00 00 00 00 00 	0000000000000000
  0xa6a0	00 00 00 00 00 00 00 00 00 00 00 00 00 00 00 00 	0000000000000000
  0xa6b0	00 00 00 00 00 00 00 00 00 00 00 00 00 00 00 00 	0000000000000000
  0xa6c0	00 00 00 00 00 00 00 00 00 00 00 00 00 00 00 00 	0000000000000000
  0xa6d0	00 00 00 00 00 00 00 00 00 00 00 00 00 00 00 00 	0000000000000000
  0xa6e0	00 00 00 00 00 00 00 00 00 00 00 00 00 00 00 00 	0000000000000000
  0xa6f0	00 00 00 00 00 00 00 00 00 00 00 00 00 00 00 00 	0000000000000000
  0xa700	00 00 00 00 00 00 00 00 00 00 00 00 00 00 00 00 	0000000000000000
  0xa710	00 00 00 00 00 00 00 00 00 00 00 00 00 00 00 00 	0000000000000000
  0xa720	00 00 00 00 00 00 00 00 00 00 00 00 00 00 00 00 	0000000000000000
  0xa730	00 00 00 00 00 00 00 00 00 00 00 00 00 00 00 00 	0000000000000000
  0xa740	00 00 00 00 00 00 00 00 00 00 00 00 00 00 00 00 	0000000000000000
  0xa750	00 00 00 00 00 00 00 00 00 00 00 00 00 00 00 00 	0000000000000000
  0xa760	00 00 00 00 00 00 00 00 00 00 00 00 00 00 00 00 	0000000000000000
  0xa770	00 00 00 00 00 00 00 00 00 00 00 00 00 00 00 00 	0000000000000000
  0xa780	00 00 00 00 00 00 00 00 00 00 00 00 00 00 00 00 	0000000000000000
  0xa790	00 00 00 00 00 00 00 00 00 00 00 00 00 00 00 00 	0000000000000000
  0xa7a0	00 00 00 00 00 00 00 00 00 00 00 00 00 00 00 00 	0000000000000000
  0xa7b0	00 00 00 00 00 00 00 00 00 00 00 00 00 00 00 00 	0000000000000000
  0xa7c0	00 00 00 00 00 00 00 00 00 00 00 00 00 00 00 00 	0000000000000000
  0xa7d0	00 00 00 00 00 00 00 00 00 00 00 00 00 00 00 00 	0000000000000000
  0xa7e0	00 00 00 00 00 00 00 00 00 00 00 00 00 00 00 00 	0000000000000000
  0xa7f0	00 00 00 00 00 00 00 00 00 00 00 00 00 00 00 00 	0000000000000000
  0xa800	00 00 00 00 00 00 00 00 00 00 00 00 00 00 00 00 	0000000000000000
  0xa810	00 00 00 00 00 00 00 00 00 00 00 00 00 00 00 00 	0000000000000000
  0xa820	00 00 00 00 00 00 00 00 00 00 00 00 00 00 00 00 	0000000000000000
  0xa830	00 00 00 00 00 00 00 00 00 00 00 00 00 00 00 00 	0000000000000000
  0xa840	00 00 00 00 00 00 00 00 00 00 00 00 00 00 00 00 	0000000000000000
  0xa850	00 00 00 00 00 00 00 00 00 00 00 00 00 00 00 00 	0000000000000000
  0xa860	00 00 00 00 00 00 00 00 00 00 00 00 00 00 00 00 	0000000000000000
  0xa870	00 00 00 00 00 00 00 00 00 00 00 00 00 00 00 00 	0000000000000000
  0xa880	00 00 00 00 00 00 00 00 00 00 00 00 00 00 00 00 	0000000000000000
  0xa890	00 00 00 00 00 00 00 00 00 00 00 00 00 00 00 00 	0000000000000000
  0xa8a0	00 00 00 00 00 00 00 00 00 00 00 00 00 00 00 00 	0000000000000000
  0xa8b0	00 00 00 00 00 00 00 00 00 00 00 00 00 00 00 00 	0000000000000000
  0xa8c0	00 00 00 00 00 00 00 00 00 00 00 00 00 00 00 00 	0000000000000000
  0xa8d0	00 00 00 00 00 00 00 00 00 00 00 00 00 00 00 00 	0000000000000000
  0xa8e0	00 00 00 00 00 00 00 00 00 00 00 00 00 00 00 00 	0000000000000000
  0xa8f0	00 00 00 00 00 00 00 00 00 00 00 00 00 00 00 00 	0000000000000000
  0xa900	00 00 00 00 00 00 00 00 00 00 00 00 00 00 00 00 	0000000000000000
  0xa910	00 00 00 00 00 00 00 00 00 00 00 00 00 00 00 00 	0000000000000000
  0xa920	00 00 00 00 00 00 00 00 00 00 00 00 00 00 00 00 	0000000000000000
  0xa930	00 00 00 00 00 00 00 00 00 00 00 00 00 00 00 00 	0000000000000000
  0xa940	00 00 00 00 00 00 00 00 00 00 00 00 00 00 00 00 	0000000000000000
  0xa950	00 00 00 00 00 00 00 00 00 00 00 00 00 00 00 00 	0000000000000000
  0xa960	00 00 00 00 00 00 00 00 00 00 00 00 00 00 00 00 	0000000000000000
  0xa970	00 00 00 00 00 00 00 00 00 00 00 00 00 00 00 00 	0000000000000000
  0xa980	00 00 00 00 00 00 00 00 00 00 00 00 00 00 00 00 	0000000000000000
  0xa990	00 00 00 00 00 00 00 00 00 00 00 00 00 00 00 00 	0000000000000000
  0xa9a0	00 00 00 00 00 00 00 00 00 00 00 00 00 00 00 00 	0000000000000000
  0xa9b0	00 00 00 00 00 00 00 00 00 00 00 00 00 00 00 00 	0000000000000000
  0xa9c0	00 00 00 00 00 00 00 00 00 00 00 00 00 00 00 00 	0000000000000000
  0xa9d0	00 00 00 00 00 00 00 00 00 00 00 00 00 00 00 00 	0000000000000000
  0xa9e0	00 00 00 00 00 00 00 00 00 00 00 00 00 00 00 00 	0000000000000000
  0xa9f0	00 00 00 00 00 00 00 00 00 00 00 00 00 00 00 00 	0000000000000000
  0xaa00	00 00 00 00 00 00 00 00 00 00 00 00 00 00 00 00 	0000000000000000
  0xaa10	00 00 00 00 00 00 00 00 00 00 00 00 00 00 00 00 	0000000000000000
  0xaa20	00 00 00 00 00 00 00 00 00 00 00 00 00 00 00 00 	0000000000000000
  0xaa30	00 00 00 00 00 00 00 00 00 00 00 00 00 00 00 00 	0000000000000000
  0xaa40	00 00 00 00 00 00 00 00 00 00 00 00 00 00 00 00 	0000000000000000
  0xaa50	00 00 00 00 00 00 00 00 00 00 00 00 00 00 00 00 	0000000000000000
  0xaa60	00 00 00 00 00 00 00 00 00 00 00 00 00 00 00 00 	0000000000000000
  0xaa70	00 00 00 00 00 00 00 00 00 00 00 00 00 00 00 00 	0000000000000000
  0xaa80	00 00 00 00 00 00 00 00 00 00 00 00 00 00 00 00 	0000000000000000
  0xaa90	00 00 00 00 00 00 00 00 00 00 00 00 00 00 00 00 	0000000000000000
  0xaaa0	00 00 00 00 00 00 00 00 00 00 00 00 00 00 00 00 	0000000000000000
  0xaab0	00 00 00 00 00 00 00 00 00 00 00 00 00 00 00 00 	0000000000000000
  0xaac0	00 00 00 00 00 00 00 00 00 00 00 00 00 00 00 00 	0000000000000000
  0xaad0	00 00 00 00 00 00 00 00 00 00 00 00 00 00 00 00 	0000000000000000
  0xaae0	00 00 00 00 00 00 00 00 00 00 00 00 00 00 00 00 	0000000000000000
  0xaaf0	00 00 00 00 00 00 00 00 00 00 00 00 00 00 00 00 	0000000000000000
  0xab00	00 00 00 00 00 00 00 00 00 00 00 00 00 00 00 00 	0000000000000000
  0xab10	00 00 00 00 00 00 00 00 00 00 00 00 00 00 00 00 	0000000000000000
  0xab20	00 00 00 00 00 00 00 00 00 00 00 00 00 00 00 00 	0000000000000000
  0xab30	00 00 00 00 00 00 00 00 00 00 00 00 00 00 00 00 	0000000000000000
  0xab40	00 00 00 00 00 00 00 00 00 00 00 00 00 00 00 00 	0000000000000000
  0xab50	00 00 00 00 00 00 00 00 00 00 00 00 00 00 00 00 	0000000000000000
  0xab60	00 00 00 00 00 00 00 00 00 00 00 00 00 00 00 00 	0000000000000000
  0xab70	00 00 00 00 00 00 00 00 00 00 00 00 00 00 00 00 	0000000000000000
  0xab80	00 00 00 00 00 00 00 00 00 00 00 00 00 00 00 00 	0000000000000000
  0xab90	00 00 00 00 00 00 00 00 00 00 00 00 00 00 00 00 	0000000000000000
  0xaba0	00 00 00 00 00 00 00 00 00 00 00 00 00 00 00 00 	0000000000000000
  0xabb0	00 00 00 00 00 00 00 00 00 00 00 00 00 00 00 00 	0000000000000000
  0xabc0	00 00 00 00 00 00 00 00 00 00 00 00 00 00 00 00 	0000000000000000
  0xabd0	00 00 00 00 00 00 00 00 00 00 00 00 00 00 00 00 	0000000000000000
  0xabe0	00 00 00 00 00 00 00 00 00 00 00 00 00 00 00 00 	0000000000000000
  0xabf0	00 00 00 00 00 00 00 00 00 00 00 00 00 00 00 00 	0000000000000000
  0xac00	00 00 00 00 00 00 00 00 00 00 00 00 00 00 00 00 	0000000000000000
  0xac10	00 00 00 00 00 00 00 00 00 00 00 00 00 00 00 00 	0000000000000000
  0xac20	00 00 00 00 00 00 00 00 00 00 00 00 00 00 00 00 	0000000000000000
  0xac30	00 00 00 00 00 00 00 00 00 00 00 00 00 00 00 00 	0000000000000000
  0xac40	00 00 00 00 00 00 00 00 00 00 00 00 00 00 00 00 	0000000000000000
  0xac50	00 00 00 00 00 00 00 00 00 00 00 00 00 00 00 00 	0000000000000000
  0xac60	00 00 00 00 00 00 00 00 00 00 00 00 00 00 00 00 	0000000000000000
  0xac70	00 00 00 00 00 00 00 00 00 00 00 00 00 00 00 00 	0000000000000000
  0xac80	00 00 00 00 00 00 00 00 00 00 00 00 00 00 00 00 	0000000000000000
  0xac90	00 00 00 00 00 00 00 00 00 00 00 00 00 00 00 00 	0000000000000000
  0xaca0	00 00 00 00 00 00 00 00 00 00 00 00 00 00 00 00 	0000000000000000
  0xacb0	00 00 00 00 00 00 00 00 00 00 00 00 00 00 00 00 	0000000000000000
  0xacc0	00 00 00 00 00 00 00 00 00 00 00 00 00 00 00 00 	0000000000000000
  0xacd0	00 00 00 00 00 00 00 00 00 00 00 00 00 00 00 00 	0000000000000000
  0xace0	00 00 00 00 00 00 00 00 00 00 00 00 00 00 00 00 	0000000000000000
  0xacf0	00 00 00 00 00 00 00 00 00 00 00 00 00 00 00 00 	0000000000000000
  0xad00	00 00 00 00 00 00 00 00 00 00 00 00 00 00 00 00 	0000000000000000
  0xad10	00 00 00 00 00 00 00 00 00 00 00 00 00 00 00 00 	0000000000000000
  0xad20	00 00 00 00 00 00 00 00 00 00 00 00 00 00 00 00 	0000000000000000
  0xad30	00 00 00 00 00 00 00 00 00 00 00 00 00 00 00 00 	0000000000000000
  0xad40	00 00 00 00 00 00 00 00 00 00 00 00 00 00 00 00 	0000000000000000
  0xad50	00 00 00 00 00 00 00 00 00 00 00 00 00 00 00 00 	0000000000000000
  0xad60	00 00 00 00 00 00 00 00 00 00 00 00 00 00 00 00 	0000000000000000
  0xad70	00 00 00 00 00 00 00 00 00 00 00 00 00 00 00 00 	0000000000000000
  0xad80	00 00 00 00 00 00 00 00 00 00 00 00 00 00 00 00 	0000000000000000
  0xad90	00 00 00 00 00 00 00 00 00 00 00 00 00 00 00 00 	0000000000000000
  0xada0	00 00 00 00 00 00 00 00 00 00 00 00 00 00 00 00 	0000000000000000
  0xadb0	00 00 00 00 00 00 00 00 00 00 00 00 00 00 00 00 	0000000000000000
  0xadc0	00 00 00 00 00 00 00 00 00 00 00 00 00 00 00 00 	0000000000000000
  0xadd0	00 00 00 00 00 00 00 00 00 00 00 00 00 00 00 00 	0000000000000000
  0xade0	00 00 00 00 00 00 00 00 00 00 00 00 00 00 00 00 	0000000000000000
  0xadf0	00 00 00 00 00 00 00 00 00 00 00 00 00 00 00 00 	0000000000000000
  0xae00	00 00 00 00 00 00 00 00 00 00 00 00 00 00 00 00 	0000000000000000
  0xae10	00 00 00 00 00 00 00 00 00 00 00 00 00 00 00 00 	0000000000000000
  0xae20	00 00 00 00 00 00 00 00 00 00 00 00 00 00 00 00 	0000000000000000
  0xae30	00 00 00 00 00 00 00 00 00 00 00 00 00 00 00 00 	0000000000000000
  0xae40	00 00 00 00 00 00 00 00 00 00 00 00 00 00 00 00 	0000000000000000
  0xae50	00 00 00 00 00 00 00 00 00 00 00 00 00 00 00 00 	0000000000000000
  0xae60	00 00 00 00 00 00 00 00 00 00 00 00 00 00 00 00 	0000000000000000
  0xae70	00 00 00 00 00 00 00 00 00 00 00 00 00 00 00 00 	0000000000000000
  0xae80	00 00 00 00 00 00 00 00 00 00 00 00 00 00 00 00 	0000000000000000
  0xae90	00 00 00 00 00 00 00 00 00 00 00 00 00 00 00 00 	0000000000000000
  0xaea0	00 00 00 00 00 00 00 00 00 00 00 00 00 00 00 00 	0000000000000000
  0xaeb0	00 00 00 00 00 00 00 00 00 00 00 00 00 00 00 00 	0000000000000000
  0xaec0	00 00 00 00 00 00 00 00 00 00 00 00 00 00 00 00 	0000000000000000
  0xaed0	00 00 00 00 00 00 00 00 00 00 00 00 00 00 00 00 	0000000000000000
  0xaee0	00 00 00 00 00 00 00 00 00 00 00 00 00 00 00 00 	0000000000000000
  0xaef0	00 00 00 00 00 00 00 00 00 00 00 00 00 00 00 00 	0000000000000000
  0xaf00	00 00 00 00 00 00 00 00 00 00 00 00 00 00 00 00 	0000000000000000
  0xaf10	00 00 00 00 00 00 00 00 00 00 00 00 00 00 00 00 	0000000000000000
  0xaf20	00 00 00 00 00 00 00 00 00 00 00 00 00 00 00 00 	0000000000000000
  0xaf30	00 00 00 00 00 00 00 00 00 00 00 00 00 00 00 00 	0000000000000000
  0xaf40	00 00 00 00 00 00 00 00 00 00 00 00 00 00 00 00 	0000000000000000
  0xaf50	00 00 00 00 00 00 00 00 00 00 00 00 00 00 00 00 	0000000000000000
  0xaf60	00 00 00 00 00 00 00 00 00 00 00 00 00 00 00 00 	0000000000000000
  0xaf70	00 00 00 00 00 00 00 00 00 00 00 00 00 00 00 00 	0000000000000000
  0xaf80	00 00 00 00 00 00 00 00 00 00 00 00 00 00 00 00 	0000000000000000
  0xaf90	00 00 00 00 00 00 00 00 00 00 00 00 00 00 00 00 	0000000000000000
  0xafa0	00 00 00 00 00 00 00 00 00 00 00 00 00 00 00 00 	0000000000000000
  0xafb0	00 00 00 00 00 00 00 00 00 00 00 00 00 00 00 00 	0000000000000000
  0xafc0	00 00 00 00 00 00 00 00 00 00 00 00 00 00 00 00 	0000000000000000
  0xafd0	00 00 00 00 00 00 00 00 00 00 00 00 00 00 00 00 	0000000000000000
  0xafe0	00 00 00 00 00 00 00 00 00 00 00 00 00 00 00 00 	0000000000000000
  0xaff0	00 00 00 00 00 00 00 00 00 00 00 00 00 00 00 00 	0000000000000000
=== DATA BLOCK END ===

=== DATA BLOCK ADDRESS 0xb000 ===
  0xb000	30 11 00 00 4d 11 00 00 b8 89 00 00 70 11 00 00 	0000M0000000p000
  0xb010	8d 11 00 00 b8 89 00 00 a0 11 00 00 41 12 00 00 	000000000000A000
  0xb020	5c 88 00 00 50 12 00 00 60 12 00 00 b8 89 00 00 	0000P000`0000000
  0xb030	70 12 00 00 89 12 00 00 b8 89 00 00 8c 12 00 00 	p000000000000000
  0xb040	12 14 00 00 10 87 00 00 20 14 00 00 32 14 00 00 	00000000 0002000
  0xb050	b8 89 00 00 50 14 00 00 6e 14 00 00 50 87 00 00 	0000P000n000P000
  0xb060	70 14 00 00 a4 14 00 00 5c 88 00 00 b0 14 00 00 	p000000000000000
  0xb070	82 15 00 00 54 87 00 00 84 15 00 00 f5 15 00 00 	0000T00000000000
  0xb080	5c 87 00 00 f8 15 00 00 14 16 00 00 68 87 00 00 	000000000000h000
  0xb090	14 16 00 00 4d 16 00 00 b8 89 00 00 50 16 00 00 	0000M0000000P000
  0xb0a0	99 16 00 00 5c 88 00 00 9c 16 00 00 27 17 00 00 	000000000000'000
  0xb0b0	5c 88 00 00 28 17 00 00 c0 17 00 00 c8 87 00 00 	0000(00000000000
  0xb0c0	c0 17 00 00 e4 17 00 00 5c 88 00 00 e4 17 00 00 	0000000000000000
  0xb0d0	0d 18 00 00 5c 88 00 00 10 18 00 00 4a 18 00 00 	000000000000J000
  0xb0e0	5c 88 00 00 4c 18 00 00 63 18 00 00 b8 89 00 00 	0000L000c0000000
  0xb0f0	80 18 00 00 a6 18 00 00 5c 88 00 00 a8 18 00 00 	0000000000000000
  0xb100	54 19 00 00 f0 87 00 00 80 19 00 00 9b 19 00 00 	T000000000000000
  0xb110	b8 89 00 00 b4 19 00 00 ff 1a 00 00 fc 87 00 00 	0000000000000000
  0xb120	08 1b 00 00 59 1b 00 00 b8 89 00 00 80 1b 00 00 	0000Y00000000000
  0xb130	db 1b 00 00 48 8e 00 00 dc 1b 00 00 22 1c 00 00 	0000H0000000"000
  0xb140	48 8e 00 00 30 1c 00 00 76 1c 00 00 48 8e 00 00 	H0000000v000H000
  0xb150	84 1c 00 00 c0 1c 00 00 5c 88 00 00 c0 1c 00 00 	0000000000000000
  0xb160	61 1e 00 00 0c 88 00 00 80 1e 00 00 bc 1e 00 00 	a000000000000000
  0xb170	5c 88 00 00 dc 1e 00 00 18 1f 00 00 5c 88 00 00 	0000000000000000
  0xb180	60 1f 00 00 9d 1f 00 00 48 8e 00 00 a0 1f 00 00 	`0000000H0000000
  0xb190	c0 1f 00 00 2c 88 00 00 c0 1f 00 00 e0 1f 00 00 	0000,00000000000
  0xb1a0	2c 88 00 00 cc 20 00 00 2e 21 00 00 34 88 00 00 	,0000 00.!004000
  0xb1b0	30 21 00 00 98 21 00 00 48 88 00 00 a4 21 00 00 	0!000!00H0000!00
  0xb1c0	de 21 00 00 78 89 00 00 e0 21 00 00 04 22 00 00 	0!00x0000!000"00
  0xb1d0	08 8e 00 00 04 22 00 00 74 22 00 00 f8 8d 00 00 	00000"00t"000000
  0xb1e0	74 22 00 00 48 23 00 00 04 89 00 00 48 23 00 00 	t"00H#000000H#00
  0xb1f0	a6 23 00 00 30 89 00 00 a8 23 00 00 13 24 00 00 	0#0000000#000$00
  0xb200	30 89 00 00 14 24 00 00 60 24 00 00 30 89 00 00 	00000$00`$000000
  0xb210	60 24 00 00 2d 27 00 00 38 89 00 00 30 27 00 00 	`$00-'0080000'00
  0xb220	1a 2a 00 00 a8 88 00 00 1c 2a 00 00 ef 2a 00 00 	0*0000000*000*00
  0xb230	f0 88 00 00 f0 2a 00 00 70 2b 00 00 80 89 00 00 	00000*00p+000000
  0xb240	70 2b 00 00 bc 2b 00 00 5c 88 00 00 bc 2b 00 00 	p+000+0000000+00
  0xb250	c9 2c 00 00 48 8e 00 00 cc 2c 00 00 fe 2c 00 00 	0,00H0000,000,00
  0xb260	5c 88 00 00 00 2d 00 00 39 2d 00 00 30 8a 00 00 	00000-009-000000
  0xb270	3c 2d 00 00 bd 2d 00 00 5c 88 00 00 c0 2d 00 00 	<-000-0000000-00
  0xb280	26 2e 00 00 80 89 00 00 28 2e 00 00 97 2e 00 00 	&.000000(.000.00
  0xb290	80 89 00 00 98 2e 00 00 c3 2e 00 00 b8 89 00 00 	00000.000.000000
  0xb2a0	c4 2e 00 00 ef 2e 00 00 b8 89 00 00 f8 2e 00 00 	0.000.0000000.00
  0xb2b0	a8 2f 00 00 48 8e 00 00 a8 2f 00 00 49 30 00 00 	0/00H0000/00I000
  0xb2c0	34 8d 00 00 60 30 00 00 88 30 00 00 5c 88 00 00 	4000`00000000000
  0xb2d0	90 30 00 00 b8 30 00 00 5c 88 00 00 c0 30 00 00 	0000000000000000
  0xb2e0	f4 30 00 00 48 8e 00 00 00 31 00 00 42 31 00 00 	0000H0000100B100
  0xb2f0	48 8e 00 00 44 31 00 00 f4 33 00 00 d4 89 00 00 	H000D10003000000
  0xb300	48 34 00 00 a3 34 00 00 38 8f 00 00 a4 34 00 00 	H400040080000400
  0xb310	c1 34 00 00 94 8d 00 00 d0 34 00 00 3d 35 00 00 	040000000400=500
  0xb320	58 8c 00 00 40 35 00 00 61 35 00 00 b8 89 00 00 	X000@500a5000000
  0xb330	70 35 00 00 e0 36 00 00 b8 8c 00 00 f0 36 00 00 	p500060000000600
  0xb340	2c 37 00 00 b8 89 00 00 2c 37 00 00 f2 39 00 00 	,7000000,7000900
  0xb350	fc 8e 00 00 f4 39 00 00 5f 3a 00 00 b0 8e 00 00 	00000900_:000000
  0xb360	60 3a 00 00 b7 3a 00 00 98 8e 00 00 b8 3a 00 00 	`:000:0000000:00
  0xb370	e6 3b 00 00 e0 8e 00 00 e8 3b 00 00 d9 3c 00 00 	0;0000000;000<00
  0xb380	80 89 00 00 dc 3c 00 00 a3 3d 00 00 f8 8c 00 00 	00000<000=000000
  0xb390	a4 3d 00 00 e8 3e 00 00 88 8d 00 00 c0 40 00 00 	0=000>0000000@00
  0xb3a0	36 41 00 00 88 88 00 00 38 41 00 00 92 44 00 00 	6A0000008A000D00
  0xb3b0	1c 8e 00 00 94 44 00 00 0a 45 00 00 28 8f 00 00 	00000D000E00(000
  0xb3c0	0c 45 00 00 d0 47 00 00 94 89 00 00 e0 47 00 00 	0E000G0000000G00
  0xb3d0	d2 48 00 00 38 8c 00 00 e0 48 00 00 6b 49 00 00 	0H0080000H00kI00
  0xb3e0	64 88 00 00 dc 49 00 00 77 4b 00 00 c0 89 00 00 	d0000I00wK000000
  0xb3f0	80 4b 00 00 f7 4b 00 00 5c 88 00 00 00 4c 00 00 	0K000K0000000L00
  0xb400	0e 4c 00 00 b8 89 00 00 10 4c 00 00 32 4c 00 00 	0L0000000L002L00
  0xb410	c8 8d 00 00 34 4c 00 00 5b 4c 00 00 e0 8d 00 00 	00004L00[L000000
  0xb420	70 4c 00 00 03 4d 00 00 68 8c 00 00 10 4d 00 00 	pL000M00h0000M00
  0xb430	83 4d 00 00 88 8c 00 00 84 4d 00 00 ca 4f 00 00 	0M0000000M000O00
  0xb440	4c 8d 00 00 cc 4f 00 00 e6 54 00 00 70 8e 00 00 	L0000O000T00p000
  0xb450	e8 54 00 00 2a 56 00 00 18 8d 00 00 2c 56 00 00 	0T00*V000000,V00
  0xb460	cb 56 00 00 60 8f 00 00 cc 56 00 00 3a 57 00 00 	0V00`0000V00:W00
  0xb470	8c 8e 00 00 3c 57 00 00 a7 57 00 00 50 8f 00 00 	0000<W000W00P000
  0xb480	b0 57 00 00 d6 57 00 00 54 8e 00 00 d8 57 00 00 	0W000W00T0000W00
  0xb490	6e 5a 00 00 64 8d 00 00 70 5a 00 00 fc 5c 00 00 	nZ00d000pZ000000
  0xb4a0	d0 8b 00 00 10 5d 00 00 73 5d 00 00 d0 8e 00 00 	00000]00s]000000
  0xb4b0	74 5d 00 00 31 5e 00 00 10 8e 00 00 34 5e 00 00 	t]001^0000004^00
  0xb4c0	62 5e 00 00 b8 89 00 00 6c 5e 00 00 89 5e 00 00 	b^000000l^000^00
  0xb4d0	b0 8d 00 00 8c 5e 00 00 22 5f 00 00 18 8a 00 00 	00000^00"_000000
  0xb4e0	24 5f 00 00 13 60 00 00 34 8d 00 00 20 60 00 00 	$_000`004000 `00
  0xb4f0	ce 60 00 00 5c 8e 00 00 f4 60 00 00 7d 61 00 00 	0`0000000`00}a00
  0xb500	d0 8e 00 00 80 61 00 00 7c 69 00 00 48 8a 00 00 	00000a00|i00H000
  0xb510	7c 69 00 00 99 69 00 00 b8 89 00 00 9c 69 00 00 	|i000i0000000i00
  0xb520	f7 69 00 00 68 8f 00 00 f8 69 00 00 77 6a 00 00 	0i00h0000i00wj00
  0xb530	34 8d 00 00 90 6a 00 00 de 6a 00 00 70 8f 00 00 	40000j000j00p000
  0xb540	00 6b 00 00 02 6b 00 00 20 88 00 00 20 6b 00 00 	0k000k00 000 k00
  0xb550	26 6b 00 00 28 88 00 00 26 6b 00 00 44 6b 00 00 	&k00(000&k00Dk00
  0xb560	48 87 00 00 44 6b 00 00 5f 6b 00 00 b8 87 00 00 	H000Dk00_k000000
  0xb570	5f 6b 00 00 77 6b 00 00 e8 87 00 00 00 6c 00 00 	_k00wk0000000l00
  0xb580	24 6c 00 00 a0 8c 00 00 00 00 00 00 00 00 00 00 	$l00000000000000
  0xb590	00 00 00 00 00 00 00 00 00 00 00 00 00 00 00 00 	0000000000000000
  0xb5a0	00 00 00 00 00 00 00 00 00 00 00 00 00 00 00 00 	0000000000000000
  0xb5b0	00 00 00 00 00 00 00 00 00 00 00 00 00 00 00 00 	0000000000000000
  0xb5c0	00 00 00 00 00 00 00 00 00 00 00 00 00 00 00 00 	0000000000000000
  0xb5d0	00 00 00 00 00 00 00 00 00 00 00 00 00 00 00 00 	0000000000000000
  0xb5e0	00 00 00 00 00 00 00 00 00 00 00 00 00 00 00 00 	0000000000000000
  0xb5f0	00 00 00 00 00 00 00 00 00 00 00 00 00 00 00 00 	0000000000000000
  0xb600	00 00 00 00 00 00 00 00 00 00 00 00 00 00 00 00 	0000000000000000
  0xb610	00 00 00 00 00 00 00 00 00 00 00 00 00 00 00 00 	0000000000000000
  0xb620	00 00 00 00 00 00 00 00 00 00 00 00 00 00 00 00 	0000000000000000
  0xb630	00 00 00 00 00 00 00 00 00 00 00 00 00 00 00 00 	0000000000000000
  0xb640	00 00 00 00 00 00 00 00 00 00 00 00 00 00 00 00 	0000000000000000
  0xb650	00 00 00 00 00 00 00 00 00 00 00 00 00 00 00 00 	0000000000000000
  0xb660	00 00 00 00 00 00 00 00 00 00 00 00 00 00 00 00 	0000000000000000
  0xb670	00 00 00 00 00 00 00 00 00 00 00 00 00 00 00 00 	0000000000000000
  0xb680	00 00 00 00 00 00 00 00 00 00 00 00 00 00 00 00 	0000000000000000
  0xb690	00 00 00 00 00 00 00 00 00 00 00 00 00 00 00 00 	0000000000000000
  0xb6a0	00 00 00 00 00 00 00 00 00 00 00 00 00 00 00 00 	0000000000000000
  0xb6b0	00 00 00 00 00 00 00 00 00 00 00 00 00 00 00 00 	0000000000000000
  0xb6c0	00 00 00 00 00 00 00 00 00 00 00 00 00 00 00 00 	0000000000000000
  0xb6d0	00 00 00 00 00 00 00 00 00 00 00 00 00 00 00 00 	0000000000000000
  0xb6e0	00 00 00 00 00 00 00 00 00 00 00 00 00 00 00 00 	0000000000000000
  0xb6f0	00 00 00 00 00 00 00 00 00 00 00 00 00 00 00 00 	0000000000000000
  0xb700	00 00 00 00 00 00 00 00 00 00 00 00 00 00 00 00 	0000000000000000
  0xb710	00 00 00 00 00 00 00 00 00 00 00 00 00 00 00 00 	0000000000000000
  0xb720	00 00 00 00 00 00 00 00 00 00 00 00 00 00 00 00 	0000000000000000
  0xb730	00 00 00 00 00 00 00 00 00 00 00 00 00 00 00 00 	0000000000000000
  0xb740	00 00 00 00 00 00 00 00 00 00 00 00 00 00 00 00 	0000000000000000
  0xb750	00 00 00 00 00 00 00 00 00 00 00 00 00 00 00 00 	0000000000000000
  0xb760	00 00 00 00 00 00 00 00 00 00 00 00 00 00 00 00 	0000000000000000
  0xb770	00 00 00 00 00 00 00 00 00 00 00 00 00 00 00 00 	0000000000000000
  0xb780	00 00 00 00 00 00 00 00 00 00 00 00 00 00 00 00 	0000000000000000
  0xb790	00 00 00 00 00 00 00 00 00 00 00 00 00 00 00 00 	0000000000000000
  0xb7a0	00 00 00 00 00 00 00 00 00 00 00 00 00 00 00 00 	0000000000000000
  0xb7b0	00 00 00 00 00 00 00 00 00 00 00 00 00 00 00 00 	0000000000000000
  0xb7c0	00 00 00 00 00 00 00 00 00 00 00 00 00 00 00 00 	0000000000000000
  0xb7d0	00 00 00 00 00 00 00 00 00 00 00 00 00 00 00 00 	0000000000000000
  0xb7e0	00 00 00 00 00 00 00 00 00 00 00 00 00 00 00 00 	0000000000000000
  0xb7f0	00 00 00 00 00 00 00 00 00 00 00 00 00 00 00 00 	0000000000000000
  0xb800	00 00 00 00 00 00 00 00 00 00 00 00 00 00 00 00 	0000000000000000
  0xb810	00 00 00 00 00 00 00 00 00 00 00 00 00 00 00 00 	0000000000000000
  0xb820	00 00 00 00 00 00 00 00 00 00 00 00 00 00 00 00 	0000000000000000
  0xb830	00 00 00 00 00 00 00 00 00 00 00 00 00 00 00 00 	0000000000000000
  0xb840	00 00 00 00 00 00 00 00 00 00 00 00 00 00 00 00 	0000000000000000
  0xb850	00 00 00 00 00 00 00 00 00 00 00 00 00 00 00 00 	0000000000000000
  0xb860	00 00 00 00 00 00 00 00 00 00 00 00 00 00 00 00 	0000000000000000
  0xb870	00 00 00 00 00 00 00 00 00 00 00 00 00 00 00 00 	0000000000000000
  0xb880	00 00 00 00 00 00 00 00 00 00 00 00 00 00 00 00 	0000000000000000
  0xb890	00 00 00 00 00 00 00 00 00 00 00 00 00 00 00 00 	0000000000000000
  0xb8a0	00 00 00 00 00 00 00 00 00 00 00 00 00 00 00 00 	0000000000000000
  0xb8b0	00 00 00 00 00 00 00 00 00 00 00 00 00 00 00 00 	0000000000000000
  0xb8c0	00 00 00 00 00 00 00 00 00 00 00 00 00 00 00 00 	0000000000000000
  0xb8d0	00 00 00 00 00 00 00 00 00 00 00 00 00 00 00 00 	0000000000000000
  0xb8e0	00 00 00 00 00 00 00 00 00 00 00 00 00 00 00 00 	0000000000000000
  0xb8f0	00 00 00 00 00 00 00 00 00 00 00 00 00 00 00 00 	0000000000000000
  0xb900	00 00 00 00 00 00 00 00 00 00 00 00 00 00 00 00 	0000000000000000
  0xb910	00 00 00 00 00 00 00 00 00 00 00 00 00 00 00 00 	0000000000000000
  0xb920	00 00 00 00 00 00 00 00 00 00 00 00 00 00 00 00 	0000000000000000
  0xb930	00 00 00 00 00 00 00 00 00 00 00 00 00 00 00 00 	0000000000000000
  0xb940	00 00 00 00 00 00 00 00 00 00 00 00 00 00 00 00 	0000000000000000
  0xb950	00 00 00 00 00 00 00 00 00 00 00 00 00 00 00 00 	0000000000000000
  0xb960	00 00 00 00 00 00 00 00 00 00 00 00 00 00 00 00 	0000000000000000
  0xb970	00 00 00 00 00 00 00 00 00 00 00 00 00 00 00 00 	0000000000000000
  0xb980	00 00 00 00 00 00 00 00 00 00 00 00 00 00 00 00 	0000000000000000
  0xb990	00 00 00 00 00 00 00 00 00 00 00 00 00 00 00 00 	0000000000000000
  0xb9a0	00 00 00 00 00 00 00 00 00 00 00 00 00 00 00 00 	0000000000000000
  0xb9b0	00 00 00 00 00 00 00 00 00 00 00 00 00 00 00 00 	0000000000000000
  0xb9c0	00 00 00 00 00 00 00 00 00 00 00 00 00 00 00 00 	0000000000000000
  0xb9d0	00 00 00 00 00 00 00 00 00 00 00 00 00 00 00 00 	0000000000000000
  0xb9e0	00 00 00 00 00 00 00 00 00 00 00 00 00 00 00 00 	0000000000000000
  0xb9f0	00 00 00 00 00 00 00 00 00 00 00 00 00 00 00 00 	0000000000000000
  0xba00	00 00 00 00 00 00 00 00 00 00 00 00 00 00 00 00 	0000000000000000
  0xba10	00 00 00 00 00 00 00 00 00 00 00 00 00 00 00 00 	0000000000000000
  0xba20	00 00 00 00 00 00 00 00 00 00 00 00 00 00 00 00 	0000000000000000
  0xba30	00 00 00 00 00 00 00 00 00 00 00 00 00 00 00 00 	0000000000000000
  0xba40	00 00 00 00 00 00 00 00 00 00 00 00 00 00 00 00 	0000000000000000
  0xba50	00 00 00 00 00 00 00 00 00 00 00 00 00 00 00 00 	0000000000000000
  0xba60	00 00 00 00 00 00 00 00 00 00 00 00 00 00 00 00 	0000000000000000
  0xba70	00 00 00 00 00 00 00 00 00 00 00 00 00 00 00 00 	0000000000000000
  0xba80	00 00 00 00 00 00 00 00 00 00 00 00 00 00 00 00 	0000000000000000
  0xba90	00 00 00 00 00 00 00 00 00 00 00 00 00 00 00 00 	0000000000000000
  0xbaa0	00 00 00 00 00 00 00 00 00 00 00 00 00 00 00 00 	0000000000000000
  0xbab0	00 00 00 00 00 00 00 00 00 00 00 00 00 00 00 00 	0000000000000000
  0xbac0	00 00 00 00 00 00 00 00 00 00 00 00 00 00 00 00 	0000000000000000
  0xbad0	00 00 00 00 00 00 00 00 00 00 00 00 00 00 00 00 	0000000000000000
  0xbae0	00 00 00 00 00 00 00 00 00 00 00 00 00 00 00 00 	0000000000000000
  0xbaf0	00 00 00 00 00 00 00 00 00 00 00 00 00 00 00 00 	0000000000000000
  0xbb00	00 00 00 00 00 00 00 00 00 00 00 00 00 00 00 00 	0000000000000000
  0xbb10	00 00 00 00 00 00 00 00 00 00 00 00 00 00 00 00 	0000000000000000
  0xbb20	00 00 00 00 00 00 00 00 00 00 00 00 00 00 00 00 	0000000000000000
  0xbb30	00 00 00 00 00 00 00 00 00 00 00 00 00 00 00 00 	0000000000000000
  0xbb40	00 00 00 00 00 00 00 00 00 00 00 00 00 00 00 00 	0000000000000000
  0xbb50	00 00 00 00 00 00 00 00 00 00 00 00 00 00 00 00 	0000000000000000
  0xbb60	00 00 00 00 00 00 00 00 00 00 00 00 00 00 00 00 	0000000000000000
  0xbb70	00 00 00 00 00 00 00 00 00 00 00 00 00 00 00 00 	0000000000000000
  0xbb80	00 00 00 00 00 00 00 00 00 00 00 00 00 00 00 00 	0000000000000000
  0xbb90	00 00 00 00 00 00 00 00 00 00 00 00 00 00 00 00 	0000000000000000
  0xbba0	00 00 00 00 00 00 00 00 00 00 00 00 00 00 00 00 	0000000000000000
  0xbbb0	00 00 00 00 00 00 00 00 00 00 00 00 00 00 00 00 	0000000000000000
  0xbbc0	00 00 00 00 00 00 00 00 00 00 00 00 00 00 00 00 	0000000000000000
  0xbbd0	00 00 00 00 00 00 00 00 00 00 00 00 00 00 00 00 	0000000000000000
  0xbbe0	00 00 00 00 00 00 00 00 00 00 00 00 00 00 00 00 	0000000000000000
  0xbbf0	00 00 00 00 00 00 00 00 00 00 00 00 00 00 00 00 	0000000000000000
  0xbc00	00 00 00 00 00 00 00 00 00 00 00 00 00 00 00 00 	0000000000000000
  0xbc10	00 00 00 00 00 00 00 00 00 00 00 00 00 00 00 00 	0000000000000000
  0xbc20	00 00 00 00 00 00 00 00 00 00 00 00 00 00 00 00 	0000000000000000
  0xbc30	00 00 00 00 00 00 00 00 00 00 00 00 00 00 00 00 	0000000000000000
  0xbc40	00 00 00 00 00 00 00 00 00 00 00 00 00 00 00 00 	0000000000000000
  0xbc50	00 00 00 00 00 00 00 00 00 00 00 00 00 00 00 00 	0000000000000000
  0xbc60	00 00 00 00 00 00 00 00 00 00 00 00 00 00 00 00 	0000000000000000
  0xbc70	00 00 00 00 00 00 00 00 00 00 00 00 00 00 00 00 	0000000000000000
  0xbc80	00 00 00 00 00 00 00 00 00 00 00 00 00 00 00 00 	0000000000000000
  0xbc90	00 00 00 00 00 00 00 00 00 00 00 00 00 00 00 00 	0000000000000000
  0xbca0	00 00 00 00 00 00 00 00 00 00 00 00 00 00 00 00 	0000000000000000
  0xbcb0	00 00 00 00 00 00 00 00 00 00 00 00 00 00 00 00 	0000000000000000
  0xbcc0	00 00 00 00 00 00 00 00 00 00 00 00 00 00 00 00 	0000000000000000
  0xbcd0	00 00 00 00 00 00 00 00 00 00 00 00 00 00 00 00 	0000000000000000
  0xbce0	00 00 00 00 00 00 00 00 00 00 00 00 00 00 00 00 	0000000000000000
  0xbcf0	00 00 00 00 00 00 00 00 00 00 00 00 00 00 00 00 	0000000000000000
  0xbd00	00 00 00 00 00 00 00 00 00 00 00 00 00 00 00 00 	0000000000000000
  0xbd10	00 00 00 00 00 00 00 00 00 00 00 00 00 00 00 00 	0000000000000000
  0xbd20	00 00 00 00 00 00 00 00 00 00 00 00 00 00 00 00 	0000000000000000
  0xbd30	00 00 00 00 00 00 00 00 00 00 00 00 00 00 00 00 	0000000000000000
  0xbd40	00 00 00 00 00 00 00 00 00 00 00 00 00 00 00 00 	0000000000000000
  0xbd50	00 00 00 00 00 00 00 00 00 00 00 00 00 00 00 00 	0000000000000000
  0xbd60	00 00 00 00 00 00 00 00 00 00 00 00 00 00 00 00 	0000000000000000
  0xbd70	00 00 00 00 00 00 00 00 00 00 00 00 00 00 00 00 	0000000000000000
  0xbd80	00 00 00 00 00 00 00 00 00 00 00 00 00 00 00 00 	0000000000000000
  0xbd90	00 00 00 00 00 00 00 00 00 00 00 00 00 00 00 00 	0000000000000000
  0xbda0	00 00 00 00 00 00 00 00 00 00 00 00 00 00 00 00 	0000000000000000
  0xbdb0	00 00 00 00 00 00 00 00 00 00 00 00 00 00 00 00 	0000000000000000
  0xbdc0	00 00 00 00 00 00 00 00 00 00 00 00 00 00 00 00 	0000000000000000
  0xbdd0	00 00 00 00 00 00 00 00 00 00 00 00 00 00 00 00 	0000000000000000
  0xbde0	00 00 00 00 00 00 00 00 00 00 00 00 00 00 00 00 	0000000000000000
  0xbdf0	00 00 00 00 00 00 00 00 00 00 00 00 00 00 00 00 	0000000000000000
  0xbe00	00 00 00 00 00 00 00 00 00 00 00 00 00 00 00 00 	0000000000000000
  0xbe10	00 00 00 00 00 00 00 00 00 00 00 00 00 00 00 00 	0000000000000000
  0xbe20	00 00 00 00 00 00 00 00 00 00 00 00 00 00 00 00 	0000000000000000
  0xbe30	00 00 00 00 00 00 00 00 00 00 00 00 00 00 00 00 	0000000000000000
  0xbe40	00 00 00 00 00 00 00 00 00 00 00 00 00 00 00 00 	0000000000000000
  0xbe50	00 00 00 00 00 00 00 00 00 00 00 00 00 00 00 00 	0000000000000000
  0xbe60	00 00 00 00 00 00 00 00 00 00 00 00 00 00 00 00 	0000000000000000
  0xbe70	00 00 00 00 00 00 00 00 00 00 00 00 00 00 00 00 	0000000000000000
  0xbe80	00 00 00 00 00 00 00 00 00 00 00 00 00 00 00 00 	0000000000000000
  0xbe90	00 00 00 00 00 00 00 00 00 00 00 00 00 00 00 00 	0000000000000000
  0xbea0	00 00 00 00 00 00 00 00 00 00 00 00 00 00 00 00 	0000000000000000
  0xbeb0	00 00 00 00 00 00 00 00 00 00 00 00 00 00 00 00 	0000000000000000
  0xbec0	00 00 00 00 00 00 00 00 00 00 00 00 00 00 00 00 	0000000000000000
  0xbed0	00 00 00 00 00 00 00 00 00 00 00 00 00 00 00 00 	0000000000000000
  0xbee0	00 00 00 00 00 00 00 00 00 00 00 00 00 00 00 00 	0000000000000000
  0xbef0	00 00 00 00 00 00 00 00 00 00 00 00 00 00 00 00 	0000000000000000
  0xbf00	00 00 00 00 00 00 00 00 00 00 00 00 00 00 00 00 	0000000000000000
  0xbf10	00 00 00 00 00 00 00 00 00 00 00 00 00 00 00 00 	0000000000000000
  0xbf20	00 00 00 00 00 00 00 00 00 00 00 00 00 00 00 00 	0000000000000000
  0xbf30	00 00 00 00 00 00 00 00 00 00 00 00 00 00 00 00 	0000000000000000
  0xbf40	00 00 00 00 00 00 00 00 00 00 00 00 00 00 00 00 	0000000000000000
  0xbf50	00 00 00 00 00 00 00 00 00 00 00 00 00 00 00 00 	0000000000000000
  0xbf60	00 00 00 00 00 00 00 00 00 00 00 00 00 00 00 00 	0000000000000000
  0xbf70	00 00 00 00 00 00 00 00 00 00 00 00 00 00 00 00 	0000000000000000
  0xbf80	00 00 00 00 00 00 00 00 00 00 00 00 00 00 00 00 	0000000000000000
  0xbf90	00 00 00 00 00 00 00 00 00 00 00 00 00 00 00 00 	0000000000000000
  0xbfa0	00 00 00 00 00 00 00 00 00 00 00 00 00 00 00 00 	0000000000000000
  0xbfb0	00 00 00 00 00 00 00 00 00 00 00 00 00 00 00 00 	0000000000000000
  0xbfc0	00 00 00 00 00 00 00 00 00 00 00 00 00 00 00 00 	0000000000000000
  0xbfd0	00 00 00 00 00 00 00 00 00 00 00 00 00 00 00 00 	0000000000000000
  0xbfe0	00 00 00 00 00 00 00 00 00 00 00 00 00 00 00 00 	0000000000000000
  0xbff0	00 00 00 00 00 00 00 00 00 00 00 00 00 00 00 00 	0000000000000000
=== DATA BLOCK END ===
