===== Assembly blocks =====

=== CODE BLOCK ADDRESS 0x1000 ===
  0x1000	int3   	
  0x1001	int3   	
  0x1002	int3   	
  0x1003	int3   	
  0x1004	int3   	
  === BLOCK LINK ===
    0x1005
=== CODE BLOCK END ===

=== CODE BLOCK ADDRESS 0x1005 ===
  0x1005	int3   	
  0x1006	int3   	
  0x1007	int3   	
  0x1008	dec    	eax
  0x1009	mov    	dword ptr [esp + 8], ebx
  === BLOCK LINK ===
    0x100d
=== CODE BLOCK END ===

=== CODE BLOCK ADDRESS 0x100d ===
  0x100d	push   	ebp
  0x100e	dec    	eax
  0x100f	lea    	ebp, [esp - 0x1020]
  0x1016	mov    	eax, 0x1120
  0x101b	call   	0x1b30
  === BLOCK LINK ===
    0x1020
    0x1b30
=== CODE BLOCK END ===

=== CODE BLOCK ADDRESS 0x1020 ===
  0x1020	dec    	eax
  0x1021	sub    	esp, eax
  0x1023	dec    	eax
  0x1024	mov    	eax, dword ptr [0x1fde]
  0x102a	dec    	eax
  === BLOCK LINK ===
    0x102b
=== CODE BLOCK END ===

=== CODE BLOCK ADDRESS 0x102b ===
  0x102b	xor    	eax, esp
  0x102d	dec    	eax
  0x102e	mov    	dword ptr [ebp + 0x1010], eax
  0x1034	xor    	edx, edx
  0x1036	dec    	eax
  === BLOCK LINK ===
    0x1037
=== CODE BLOCK END ===

=== CODE BLOCK ADDRESS 0x1037 ===
  0x1037	lea    	ecx, [ebp - 0x7c]
  0x103a	inc    	esp
  0x103b	lea    	eax, [edx + 0x64]
  0x103e	call   	0x1af6
  === BLOCK LINK ===
    0x1043
    0x1af6
=== CODE BLOCK END ===

=== CODE BLOCK ADDRESS 0x1043 ===
  0x1043	xorps  	xmm0, xmm0
  0x1046	mov    	dword ptr [ebp - 0x80], 0x68
  0x104d	xor    	eax, eax
  0x104f	dec    	eax
  0x1050	lea    	ecx, [ebp + 0x810]
  === BLOCK LINK ===
    0x1056
=== CODE BLOCK END ===

=== CODE BLOCK ADDRESS 0x1056 ===
  0x1056	mov    	ebx, 0x800
  0x105b	dec    	eax
  0x105c	mov    	dword ptr [esp + 0x70], eax
  0x1060	inc    	esp
  0x1061	mov    	eax, ebx
  === BLOCK LINK ===
    0x1063
=== CODE BLOCK END ===

=== CODE BLOCK ADDRESS 0x1063 ===
  0x1063	xor    	edx, edx
  0x1065	movups  	xmmword ptr [esp + 0x60], xmm0
  0x106a	call   	0x1af6
  === BLOCK LINK ===
    0x106f
    0x1af6
=== CODE BLOCK END ===

=== CODE BLOCK ADDRESS 0x106f ===
  0x106f	inc    	esp
  0x1070	mov    	eax, ebx
  0x1072	dec    	eax
  0x1073	lea    	ecx, [ebp + 0x10]
  0x1076	xor    	edx, edx
  === BLOCK LINK ===
    0x1078
=== CODE BLOCK END ===

=== CODE BLOCK ADDRESS 0x1078 ===
  0x1078	call   	0x1af6
  === BLOCK LINK ===
    0x107d
    0x1af6
=== CODE BLOCK END ===

=== CODE BLOCK ADDRESS 0x107d ===
  0x107d	dec    	eax
  0x107e	lea    	eax, [esp + 0x54]
  0x1082	mov    	dword ptr [esp + 0x54], ebx
  0x1086	dec    	eax
  0x1087	mov    	dword ptr [esp + 0x30], eax
  === BLOCK LINK ===
    0x108b
=== CODE BLOCK END ===

=== CODE BLOCK ADDRESS 0x108b ===
  0x108b	dec    	esp
  0x108c	lea    	eax, [0x122e]
  0x1092	dec    	eax
  0x1093	lea    	eax, [ebp + 0x10]
  0x1096	xor    	ebx, ebx
  === BLOCK LINK ===
    0x1098
=== CODE BLOCK END ===

=== CODE BLOCK ADDRESS 0x1098 ===
  0x1098	dec    	eax
  0x1099	mov    	dword ptr [esp + 0x28], eax
  0x109d	dec    	eax
  0x109e	lea    	edx, [0x122c]
  0x10a4	dec    	eax
  === BLOCK LINK ===
    0x10a5
=== CODE BLOCK END ===

=== CODE BLOCK ADDRESS 0x10a5 ===
  0x10a5	lea    	eax, [esp + 0x50]
  0x10a9	mov    	dword ptr [esp + 0x50], ebx
  0x10ad	inc    	ecx
  0x10ae	mov    	ecx, 0xffff
  0x10b3	dec    	eax
  === BLOCK LINK ===
    0x10b4
=== CODE BLOCK END ===

=== CODE BLOCK ADDRESS 0x10b4 ===
  0x10b4	mov    	dword ptr [esp + 0x20], eax
  0x10b8	dec    	eax
  0x10b9	mov    	ecx, 0x80000002
  0x10bf	dec    	eax
  0x10c0	call   	dword ptr [0x1062]
  === BLOCK LINK ===
    0x10c6
=== CODE BLOCK END ===

=== CODE BLOCK ADDRESS 0x10c6 ===
  0x10c6	nop    	dword ptr [eax + eax]
  0x10cb	test   	eax, eax
  0x10cd	jne    	0x1185
  === BLOCK LINK ===
    0x10d3
    0x1185
=== CODE BLOCK END ===

=== CODE BLOCK ADDRESS 0x10d3 ===
  0x10d3	mov    	eax, dword ptr [esp + 0x50]
  0x10d7	dec    	eax
  0x10d9	cmp    	eax, 1
  0x10dc	ja     	0x1185
  === BLOCK LINK ===
    0x10e2
    0x1185
=== CODE BLOCK END ===

=== CODE BLOCK ADDRESS 0x10e2 ===
  0x10e2	dec    	eax
  0x10e3	lea    	eax, [esp + 0x58]
  0x10e7	inc    	ecx
  0x10e8	mov    	ecx, 0x400
  0x10ed	dec    	eax
  === BLOCK LINK ===
    0x10ee
=== CODE BLOCK END ===

=== CODE BLOCK ADDRESS 0x10ee ===
  0x10ee	mov    	dword ptr [esp + 0x28], eax
  0x10f2	dec    	esp
  0x10f3	lea    	eax, [0x125f]
  0x10f9	dec    	eax
  0x10fa	lea    	eax, [ebp + 0x810]
  === BLOCK LINK ===
    0x1100
=== CODE BLOCK END ===

=== CODE BLOCK ADDRESS 0x1100 ===
  0x1100	dec    	eax
  0x1101	lea    	edx, [0x1261]
  0x1107	dec    	eax
  0x1108	mov    	dword ptr [esp + 0x20], eax
  0x110c	dec    	eax
  === BLOCK LINK ===
    0x110d
=== CODE BLOCK END ===

=== CODE BLOCK ADDRESS 0x110d ===
  0x110d	lea    	ecx, [ebp + 0x10]
  0x1110	dec    	eax
  0x1111	call   	dword ptr [0x1021]
  === BLOCK LINK ===
    0x1117
=== CODE BLOCK END ===

=== CODE BLOCK ADDRESS 0x1117 ===
  0x1117	nop    	dword ptr [eax + eax]
  0x111c	test   	eax, eax
  0x111e	je     	0x1185
  === BLOCK LINK ===
    0x1120
    0x1185
=== CODE BLOCK END ===

=== CODE BLOCK ADDRESS 0x1120 ===
  0x1120	movzx  	eax, word ptr [0x1271]
  0x1127	dec    	eax
  0x1128	lea    	edx, [ebp - 0x10]
  0x112b	movups  	xmm0, xmmword ptr [0x124e]
  0x1132	dec    	eax
  === BLOCK LINK ===
    0x1133
=== CODE BLOCK END ===

=== CODE BLOCK ADDRESS 0x1133 ===
  0x1133	lea    	ecx, [ebp + 0x810]
  0x1139	mov    	word ptr [ebp + 8], ax
  0x113d	movsd  	xmm1, qword ptr [0x124b]
  0x1145	dec    	eax
  0x1146	lea    	eax, [esp + 0x60]
  === BLOCK LINK ===
    0x114a
=== CODE BLOCK END ===

=== CODE BLOCK ADDRESS 0x114a ===
  0x114a	dec    	eax
  0x114b	mov    	dword ptr [esp + 0x48], eax
  0x114f	inc    	ebp
  0x1150	xor    	ecx, ecx
  0x1152	dec    	eax
  === BLOCK LINK ===
    0x1153
=== CODE BLOCK END ===

=== CODE BLOCK ADDRESS 0x1153 ===
  0x1153	lea    	eax, [ebp - 0x80]
  0x1156	movsd  	qword ptr [ebp], xmm1
  0x115b	dec    	eax
  0x115c	mov    	dword ptr [esp + 0x40], eax
  0x1160	inc    	ebp
  === BLOCK LINK ===
    0x1161
=== CODE BLOCK END ===

=== CODE BLOCK ADDRESS 0x1161 ===
  0x1161	xor    	eax, eax
  0x1163	dec    	eax
  0x1164	mov    	dword ptr [esp + 0x38], ebx
  0x1168	dec    	eax
  0x1169	mov    	dword ptr [esp + 0x30], ebx
  === BLOCK LINK ===
    0x116d
=== CODE BLOCK END ===

=== CODE BLOCK ADDRESS 0x116d ===
  0x116d	mov    	dword ptr [esp + 0x28], ebx
  0x1171	mov    	dword ptr [esp + 0x20], ebx
  0x1175	movups  	xmmword ptr [ebp - 0x10], xmm0
  0x1179	dec    	eax
  0x117a	call   	dword ptr [0xfc0]
  === BLOCK LINK ===
    0x1180
=== CODE BLOCK END ===

=== CODE BLOCK ADDRESS 0x1180 ===
  0x1180	nop    	dword ptr [eax + eax]
  === BLOCK LINK ===
    0x1185
=== CODE BLOCK END ===

=== CODE BLOCK ADDRESS 0x118f ===
  0x118f	xor    	ecx, esp
  0x1191	call   	0x1550
  === BLOCK LINK ===
    0x1196
    0x1550
=== CODE BLOCK END ===

=== CODE BLOCK ADDRESS 0x1196 ===
  0x1196	dec    	eax
  0x1197	mov    	ebx, dword ptr [esp + 0x1130]
  0x119e	dec    	eax
  0x119f	add    	esp, 0x1120
  0x11a5	pop    	ebp
  === BLOCK LINK ===
    0x11a6
=== CODE BLOCK END ===

=== CODE BLOCK ADDRESS 0x11a6 ===
  0x11a6	ret    	
  0x11a7	int3   	
  0x11a8	int3   	
  0x11a9	int3   	
  0x11aa	int3   	
  === BLOCK LINK ===
    0x11ab
=== CODE BLOCK END ===

=== CODE BLOCK ADDRESS 0x1b30 ===
=== CODE BLOCK END ===

=== CODE BLOCK ADDRESS 0x11ab ===
  0x11ab	int3   	
  0x11ac	int3   	
  0x11ad	int3   	
  0x11ae	int3   	
  0x11af	int3   	
  === BLOCK LINK ===
    0x11b0
=== CODE BLOCK END ===

=== CODE BLOCK ADDRESS 0x11b0 ===
  0x11b0	dec    	eax
  0x11b1	sub    	esp, 0x28
  0x11b4	mov    	eax, 0x5a4d
  0x11b9	cmp    	word ptr [0xffffee40], ax
  0x11c0	je     	0x11c6
  === BLOCK LINK ===
    0x11c2
    0x11c6
=== CODE BLOCK END ===

=== CODE BLOCK ADDRESS 0x11c2 ===
  0x11c2	xor    	eax, eax
  0x11c4	jmp    	0x1219
  === BLOCK LINK ===
    0x11c6
    0x1219
=== CODE BLOCK END ===

=== CODE BLOCK ADDRESS 0x11c6 ===
  0x11c6	dec    	eax
  0x11c7	arpl   	word ptr [0xffffee6f], cx
  0x11cd	dec    	eax
  0x11ce	lea    	eax, [0xffffee2c]
  0x11d4	dec    	eax
  === BLOCK LINK ===
    0x11d5
=== CODE BLOCK END ===

=== CODE BLOCK ADDRESS 0x11d5 ===
  0x11d5	add    	ecx, eax
  0x11d7	cmp    	dword ptr [ecx], 0x4550
  0x11dd	jne    	0x11c2
  === BLOCK LINK ===
    0x11df
    0x11c2
=== CODE BLOCK END ===

=== CODE BLOCK ADDRESS 0x11df ===
  0x11df	mov    	eax, 0x10b
  0x11e4	cmp    	word ptr [ecx + 0x18], ax
  0x11e8	je     	0x1208
  === BLOCK LINK ===
    0x11ea
    0x1208
=== CODE BLOCK END ===

=== CODE BLOCK ADDRESS 0x11ea ===
  0x11ea	mov    	eax, 0x20b
  0x11ef	cmp    	word ptr [ecx + 0x18], ax
  0x11f3	jne    	0x11c2
  === BLOCK LINK ===
    0x11f5
    0x11c2
=== CODE BLOCK END ===

=== CODE BLOCK ADDRESS 0x11f5 ===
  0x11f5	xor    	eax, eax
  0x11f7	cmp    	dword ptr [ecx + 0x84], 0xe
  0x11fe	jbe    	0x1219
  === BLOCK LINK ===
    0x1200
    0x1219
=== CODE BLOCK END ===

=== CODE BLOCK ADDRESS 0x1200 ===
  0x1200	cmp    	dword ptr [ecx + 0xf8], eax
  0x1206	jmp    	0x1216
  === BLOCK LINK ===
    0x1208
    0x1216
=== CODE BLOCK END ===

=== CODE BLOCK ADDRESS 0x1208 ===
  0x1208	xor    	eax, eax
  0x120a	cmp    	dword ptr [ecx + 0x74], 0xe
  0x120e	jbe    	0x1219
  === BLOCK LINK ===
    0x1210
    0x1219
=== CODE BLOCK END ===

=== CODE BLOCK ADDRESS 0x1210 ===
  0x1210	cmp    	dword ptr [ecx + 0xe8], eax
  === BLOCK LINK ===
    0x1216
    0x1648
=== CODE BLOCK END ===

=== CODE BLOCK ADDRESS 0x1229 ===
  0x1229	mov    	ecx, eax
  0x122b	call   	dword ptr [0xfdf]
  === BLOCK LINK ===
    0x1231
=== CODE BLOCK END ===

=== CODE BLOCK ADDRESS 0x1231 ===
  0x1231	dec    	eax
  0x1232	mov    	ecx, dword ptr [0xf90]
  0x1238	dec    	eax
  0x1239	or     	eax, 0xffffffff
  0x123c	dec    	eax
  === BLOCK LINK ===
    0x123d
=== CODE BLOCK END ===

=== CODE BLOCK ADDRESS 0x123d ===
  0x123d	mov    	dword ptr [0x238d], eax
  0x1243	dec    	eax
  0x1244	mov    	dword ptr [0x238e], eax
  0x124a	mov    	eax, dword ptr [0x1e04]
  0x1250	mov    	dword ptr [ecx], eax
  === BLOCK LINK ===
    0x1252
=== CODE BLOCK END ===

=== CODE BLOCK ADDRESS 0x1252 ===
  0x1252	dec    	eax
  0x1253	mov    	ecx, dword ptr [0xfd7]
  0x1259	mov    	eax, dword ptr [0x1de9]
  0x125f	mov    	dword ptr [ecx], eax
  0x1261	call   	0x16a0
  === BLOCK LINK ===
    0x1266
    0x16a0
=== CODE BLOCK END ===

=== CODE BLOCK ADDRESS 0x1266 ===
  0x1266	cmp    	dword ptr [0x1d93], 0
  0x126d	jne    	0x127c
  === BLOCK LINK ===
    0x126f
    0x127c
=== CODE BLOCK END ===

=== CODE BLOCK ADDRESS 0x126f ===
  0x126f	dec    	eax
  0x1270	lea    	ecx, [0x42a]
  0x1276	call   	dword ptr [0xf6c]
  === BLOCK LINK ===
    0x127c
=== CODE BLOCK END ===

=== CODE BLOCK ADDRESS 0x127c ===
  0x127c	xor    	eax, eax
  0x127e	dec    	eax
  0x127f	add    	esp, 0x28
  0x1282	ret    	
  0x1283	int3   	
  === BLOCK LINK ===
    0x1284
=== CODE BLOCK END ===

=== CODE BLOCK ADDRESS 0x1af6 ===
  0x1af6	jmp    	dword ptr [0x744]
  === BLOCK LINK ===
    0x1afc
=== CODE BLOCK END ===

=== CODE BLOCK ADDRESS 0x1284 ===
  0x1284	int3   	
  0x1285	int3   	
  0x1286	int3   	
  0x1287	int3   	
  0x1288	int3   	
  === BLOCK LINK ===
    0x1289
=== CODE BLOCK END ===

=== CODE BLOCK ADDRESS 0x1289 ===
  0x1289	int3   	
  0x128a	int3   	
  0x128b	int3   	
  0x128c	int3   	
  0x128d	int3   	
  === BLOCK LINK ===
    0x128e
=== CODE BLOCK END ===

=== CODE BLOCK ADDRESS 0x128e ===
  0x128e	int3   	
  0x128f	int3   	
  0x1290	dec    	eax
  0x1291	sub    	esp, 0x38
  0x1294	mov    	eax, dword ptr [0x1db6]
  === BLOCK LINK ===
    0x129a
=== CODE BLOCK END ===

=== CODE BLOCK ADDRESS 0x129a ===
  0x129a	dec    	esp
  0x129b	lea    	eax, [0x1d97]
  0x12a1	inc    	esp
  0x12a2	mov    	ecx, dword ptr [0x1da4]
  0x12a8	dec    	eax
  === BLOCK LINK ===
    0x12a9
=== CODE BLOCK END ===

=== CODE BLOCK ADDRESS 0x12a9 ===
  0x12a9	lea    	edx, [0x1d81]
  0x12af	mov    	dword ptr [0x1d8f], eax
  0x12b5	dec    	eax
  0x12b6	lea    	ecx, [0x1d6c]
  0x12bc	dec    	eax
  === BLOCK LINK ===
    0x12bd
=== CODE BLOCK END ===

=== CODE BLOCK ADDRESS 0x12bd ===
  0x12bd	lea    	eax, [0x1d81]
  0x12c3	dec    	eax
  0x12c4	mov    	dword ptr [esp + 0x20], eax
  0x12c8	call   	dword ptr [0xf4a]
  === BLOCK LINK ===
    0x12ce
=== CODE BLOCK END ===

=== CODE BLOCK ADDRESS 0x12ce ===
  0x12ce	mov    	dword ptr [0x1d58], eax
  0x12d4	dec    	eax
  0x12d5	add    	esp, 0x38
  0x12d8	ret    	
  0x12d9	int3   	
  === BLOCK LINK ===
    0x12da
=== CODE BLOCK END ===

=== CODE BLOCK ADDRESS 0x12da ===
  0x12da	int3   	
  0x12db	int3   	
  0x12dc	int3   	
  0x12dd	int3   	
  0x12de	int3   	
  === BLOCK LINK ===
    0x12df
=== CODE BLOCK END ===

=== CODE BLOCK ADDRESS 0x12df ===
  0x12df	int3   	
  0x12e0	dec    	eax
  0x12e1	sub    	esp, 0x28
  0x12e4	call   	0x1794
  === BLOCK LINK ===
    0x12e9
    0x1794
=== CODE BLOCK END ===

=== CODE BLOCK ADDRESS 0x12e9 ===
  0x12e9	dec    	eax
  0x12ea	add    	esp, 0x28
  0x12ed	jmp    	0x12f8
  === BLOCK LINK ===
    0x12f2
    0x12f8
=== CODE BLOCK END ===

=== CODE BLOCK ADDRESS 0x12f2 ===
  0x12f2	int3   	
  0x12f3	int3   	
  0x12f4	int3   	
  0x12f5	int3   	
  0x12f6	int3   	
  === BLOCK LINK ===
    0x12f7
=== CODE BLOCK END ===

=== CODE BLOCK ADDRESS 0x12f7 ===
  0x12f7	int3   	
  === BLOCK LINK ===
    0x12f8
=== CODE BLOCK END ===

=== CODE BLOCK ADDRESS 0x1302 ===
  0x1302	inc    	ecx
  0x1303	push   	esi
  0x1304	dec    	eax
  0x1305	sub    	esp, 0xb0
  0x130b	and    	dword ptr [esp + 0x20], 0
  === BLOCK LINK ===
    0x1310
=== CODE BLOCK END ===

=== CODE BLOCK ADDRESS 0x1310 ===
  0x1310	dec    	eax
  0x1311	lea    	ecx, [esp + 0x40]
  0x1315	call   	dword ptr [0xe85]
  === BLOCK LINK ===
    0x131b
=== CODE BLOCK END ===

=== CODE BLOCK ADDRESS 0x131b ===
  0x131b	nop    	
  0x131c	dec    	eax
  0x131e	mov    	eax, dword ptr [0x30]
  0x1325	dec    	eax
  0x1326	mov    	ebx, dword ptr [eax + 8]
  === BLOCK LINK ===
    0x1329
=== CODE BLOCK END ===

=== CODE BLOCK ADDRESS 0x1329 ===
  0x1329	xor    	edi, edi
  0x132b	xor    	eax, eax
  0x132d	.byte  	0xf0
  0x132e	dec    	eax
  0x132f	cmpxchg  	dword ptr [0x22aa], ebx
  === BLOCK LINK ===
    0x1336
=== CODE BLOCK END ===

=== CODE BLOCK ADDRESS 0x1336 ===
  0x1336	je     	0x1342
  === BLOCK LINK ===
    0x1338
=== CODE BLOCK END ===

=== CODE BLOCK ADDRESS 0x1338 ===
  0x1338	dec    	eax
  0x1339	cmp    	eax, ebx
  0x133b	jne    	0x1357
  === BLOCK LINK ===
    0x133d
=== CODE BLOCK END ===

=== CODE BLOCK ADDRESS 0x133d ===
  0x133d	mov    	edi, 1
  0x1342	mov    	eax, dword ptr [0x22a0]
  0x1348	cmp    	eax, 1
  0x134b	jne    	0x1364
  === BLOCK LINK ===
    0x134d
=== CODE BLOCK END ===

=== CODE BLOCK ADDRESS 0x134d ===
  0x134d	lea    	ecx, [eax + 0x1e]
  0x1350	call   	0x1693
  === BLOCK LINK ===
    0x1355
=== CODE BLOCK END ===

=== CODE BLOCK ADDRESS 0x1355 ===
  0x1355	jmp    	0x13d1
  === BLOCK LINK ===
    0x1357
=== CODE BLOCK END ===

=== CODE BLOCK ADDRESS 0x1357 ===
  0x1357	mov    	ecx, 0x3e8
  0x135c	call   	dword ptr [0xe46]
  === BLOCK LINK ===
    0x1362
=== CODE BLOCK END ===

=== CODE BLOCK ADDRESS 0x1362 ===
  0x1362	jmp    	0x132b
  === BLOCK LINK ===
    0x1364
=== CODE BLOCK END ===

=== CODE BLOCK ADDRESS 0x1364 ===
  0x1364	mov    	eax, dword ptr [0x227e]
  0x136a	test   	eax, eax
  0x136c	jne    	0x13c7
  === BLOCK LINK ===
    0x136e
=== CODE BLOCK END ===

=== CODE BLOCK ADDRESS 0x136e ===
  0x136e	mov    	dword ptr [0x2270], 1
  0x1378	dec    	esp
  0x1379	lea    	esi, [0xf11]
  0x137f	dec    	eax
  0x1380	lea    	ebx, [0xef2]
  === BLOCK LINK ===
    0x1386
=== CODE BLOCK END ===

=== CODE BLOCK ADDRESS 0x1386 ===
  0x1386	dec    	eax
  0x1387	mov    	dword ptr [esp + 0x30], ebx
  0x138b	mov    	dword ptr [esp + 0x24], eax
  0x138f	dec    	ecx
  0x1390	cmp    	ebx, esi
  === BLOCK LINK ===
    0x1392
=== CODE BLOCK END ===

=== CODE BLOCK ADDRESS 0x1392 ===
  0x1392	jae    	0x13b9
  === BLOCK LINK ===
    0x1394
=== CODE BLOCK END ===

=== CODE BLOCK ADDRESS 0x1394 ===
  0x1394	test   	eax, eax
  0x1396	jne    	0x13bd
  === BLOCK LINK ===
    0x1398
=== CODE BLOCK END ===

=== CODE BLOCK ADDRESS 0x1398 ===
  0x1398	dec    	eax
  0x1399	cmp    	dword ptr [ebx], 0
  0x139c	je     	0x13ae
  === BLOCK LINK ===
    0x139e
=== CODE BLOCK END ===

=== CODE BLOCK ADDRESS 0x139e ===
  0x139e	dec    	eax
  0x139f	mov    	eax, dword ptr [ebx]
  0x13a1	dec    	eax
  0x13a2	mov    	ecx, dword ptr [0xeb0]
  0x13a8	call   	ecx
  === BLOCK LINK ===
    0x13aa
=== CODE BLOCK END ===

=== CODE BLOCK ADDRESS 0x13aa ===
  0x13aa	mov    	dword ptr [esp + 0x24], eax
  0x13ae	dec    	eax
  0x13af	add    	ebx, 8
  0x13b2	dec    	eax
  0x13b3	mov    	dword ptr [esp + 0x30], ebx
  === BLOCK LINK ===
    0x13b7
=== CODE BLOCK END ===

=== CODE BLOCK ADDRESS 0x13b7 ===
  0x13b7	jmp    	0x138f
  === BLOCK LINK ===
    0x13b9
=== CODE BLOCK END ===

=== CODE BLOCK ADDRESS 0x13b9 ===
  0x13b9	test   	eax, eax
  0x13bb	je     	0x13d1
  === BLOCK LINK ===
    0x13bd
=== CODE BLOCK END ===

=== CODE BLOCK ADDRESS 0x13bd ===
  0x13bd	mov    	eax, 0xff
  0x13c2	jmp    	0x1524
  === BLOCK LINK ===
    0x13c7
=== CODE BLOCK END ===

=== CODE BLOCK ADDRESS 0x13c7 ===
  0x13c7	mov    	dword ptr [0x1c53], 1
  0x13d1	mov    	eax, dword ptr [0x2211]
  0x13d7	cmp    	eax, 1
  0x13da	jne    	0x13f9
  === BLOCK LINK ===
    0x13dc
=== CODE BLOCK END ===

=== CODE BLOCK ADDRESS 0x13dc ===
  0x13dc	dec    	eax
  0x13dd	lea    	edx, [0xe8d]
  0x13e3	dec    	eax
  0x13e4	lea    	ecx, [0xe76]
  0x13ea	call   	0x186e
  === BLOCK LINK ===
    0x13ef
=== CODE BLOCK END ===

=== CODE BLOCK ADDRESS 0x13ef ===
  0x13ef	mov    	dword ptr [0x21ef], 2
  0x13f9	test   	edi, edi
  0x13fb	jne    	0x1406
  === BLOCK LINK ===
    0x13fd
=== CODE BLOCK END ===

=== CODE BLOCK ADDRESS 0x13fd ===
  0x13fd	xor    	eax, eax
  0x13ff	dec    	eax
  0x1400	xchg   	dword ptr [0x21da], eax
  0x1406	dec    	eax
  0x1407	cmp    	dword ptr [0x21e2], 0
  === BLOCK LINK ===
    0x140e
=== CODE BLOCK END ===

=== CODE BLOCK ADDRESS 0x140e ===
  0x140e	je     	0x143a
  === BLOCK LINK ===
    0x1410
=== CODE BLOCK END ===

=== CODE BLOCK ADDRESS 0x1410 ===
  0x1410	dec    	eax
  0x1411	lea    	ecx, [0x21d9]
  0x1417	call   	0x1700
  === BLOCK LINK ===
    0x141c
=== CODE BLOCK END ===

=== CODE BLOCK ADDRESS 0x141c ===
  0x141c	test   	eax, eax
  0x141e	je     	0x143a
  === BLOCK LINK ===
    0x1420
=== CODE BLOCK END ===

=== CODE BLOCK ADDRESS 0x1420 ===
  0x1420	inc    	ebp
  0x1421	xor    	eax, eax
  0x1423	inc    	ecx
  0x1424	lea    	edx, [eax + 2]
  0x1427	xor    	ecx, ecx
  === BLOCK LINK ===
    0x1429
=== CODE BLOCK END ===

=== CODE BLOCK ADDRESS 0x1429 ===
  0x1429	dec    	eax
  0x142a	mov    	eax, dword ptr [0x21c0]
  0x1430	dec    	esp
  0x1431	mov    	ecx, dword ptr [0xe21]
  0x1437	inc    	ecx
  === BLOCK LINK ===
    0x1438
=== CODE BLOCK END ===

=== CODE BLOCK ADDRESS 0x1438 ===
  0x1438	call   	ecx
  === BLOCK LINK ===
    0x143a
=== CODE BLOCK END ===

=== CODE BLOCK ADDRESS 0x143a ===
  0x143a	dec    	eax
  0x143b	mov    	eax, dword ptr [0xd8f]
  0x1441	dec    	eax
  0x1442	mov    	ebx, dword ptr [eax]
  0x1444	dec    	eax
  === BLOCK LINK ===
    0x1445
=== CODE BLOCK END ===

=== CODE BLOCK ADDRESS 0x1445 ===
  0x1445	mov    	dword ptr [esp + 0x28], ebx
  0x1449	mov    	edi, dword ptr [esp + 0x20]
  0x144d	movzx  	ecx, byte ptr [ebx]
  0x1450	cmp    	cl, 0x20
  0x1453	ja     	0x14c6
  === BLOCK LINK ===
    0x1455
=== CODE BLOCK END ===

=== CODE BLOCK ADDRESS 0x1455 ===
  0x1455	test   	cl, cl
  0x1457	je     	0x145d
  === BLOCK LINK ===
    0x1459
=== CODE BLOCK END ===

=== CODE BLOCK ADDRESS 0x1459 ===
  0x1459	test   	edi, edi
  0x145b	jne    	0x14c6
  === BLOCK LINK ===
    0x145d
=== CODE BLOCK END ===

=== CODE BLOCK ADDRESS 0x145d ===
  0x145d	dec    	cl
  0x145f	cmp    	cl, 0x1f
  0x1462	ja     	0x1470
  === BLOCK LINK ===
    0x1464
=== CODE BLOCK END ===

=== CODE BLOCK ADDRESS 0x1464 ===
  0x1464	dec    	eax
  0x1465	inc    	ebx
  0x1467	dec    	eax
  0x1468	mov    	dword ptr [esp + 0x28], ebx
  0x146c	mov    	cl, byte ptr [ebx]
  === BLOCK LINK ===
    0x146e
=== CODE BLOCK END ===

=== CODE BLOCK ADDRESS 0x146e ===
  0x146e	jmp    	0x145d
  === BLOCK LINK ===
    0x1470
=== CODE BLOCK END ===

=== CODE BLOCK ADDRESS 0x1470 ===
  0x1470	test   	byte ptr [esp + 0x7c], 1
  0x1475	movzx  	eax, word ptr [esp + 0x80]
  0x147d	inc    	ecx
  0x147e	mov    	ecx, 0xa
  0x1483	inc    	esp
  === BLOCK LINK ===
    0x1484
=== CODE BLOCK END ===

=== CODE BLOCK ADDRESS 0x1484 ===
  0x1484	cmovne  	ecx, eax
  0x1487	dec    	esp
  0x1488	mov    	eax, ebx
  0x148a	xor    	edx, edx
  0x148c	dec    	eax
  === BLOCK LINK ===
    0x148d
=== CODE BLOCK END ===

=== CODE BLOCK ADDRESS 0x148d ===
  0x148d	lea    	ecx, [0xffffeb6d]
  0x1493	call   	0x1008
  === BLOCK LINK ===
    0x1498
=== CODE BLOCK END ===

=== CODE BLOCK ADDRESS 0x1498 ===
  0x1498	mov    	dword ptr [0x1b82], eax
  0x149e	cmp    	dword ptr [0x1b9b], 0
  0x14a5	jne    	0x14af
  === BLOCK LINK ===
    0x14a7
=== CODE BLOCK END ===

=== CODE BLOCK ADDRESS 0x14a7 ===
  0x14a7	mov    	ecx, eax
  0x14a9	call   	dword ptr [0xd59]
  === BLOCK LINK ===
    0x14af
=== CODE BLOCK END ===

=== CODE BLOCK ADDRESS 0x14af ===
  0x14af	cmp    	dword ptr [0x1b6e], 0
  0x14b6	jne    	0x14c4
  === BLOCK LINK ===
    0x14b8
=== CODE BLOCK END ===

=== CODE BLOCK ADDRESS 0x14b8 ===
  0x14b8	call   	dword ptr [0xd3a]
  === BLOCK LINK ===
    0x14be
=== CODE BLOCK END ===

=== CODE BLOCK ADDRESS 0x14be ===
  0x14be	mov    	eax, dword ptr [0x1b5c]
  0x14c4	jmp    	0x1524
  === BLOCK LINK ===
    0x14c6
=== CODE BLOCK END ===

=== CODE BLOCK ADDRESS 0x14c6 ===
  0x14c6	cmp    	cl, 0x22
  0x14c9	jne    	0x14d8
  === BLOCK LINK ===
    0x14cb
=== CODE BLOCK END ===

=== CODE BLOCK ADDRESS 0x14cb ===
  0x14cb	xor    	eax, eax
  0x14cd	test   	edi, edi
  0x14cf	sete   	al
  0x14d2	mov    	edi, eax
  0x14d4	mov    	dword ptr [esp + 0x20], eax
  === BLOCK LINK ===
    0x14d8
=== CODE BLOCK END ===

=== CODE BLOCK ADDRESS 0x14d8 ===
  0x14d8	call   	dword ptr [0xd12]
  === BLOCK LINK ===
    0x14de
=== CODE BLOCK END ===

=== CODE BLOCK ADDRESS 0x14de ===
  0x14de	test   	eax, eax
  0x14e0	je     	0x14ea
  === BLOCK LINK ===
    0x14e2
=== CODE BLOCK END ===

=== CODE BLOCK ADDRESS 0x14e2 ===
  0x14e2	dec    	eax
  0x14e3	inc    	ebx
  0x14e5	dec    	eax
  0x14e6	mov    	dword ptr [esp + 0x28], ebx
  0x14ea	dec    	eax
  === BLOCK LINK ===
    0x14eb
=== CODE BLOCK END ===

=== CODE BLOCK ADDRESS 0x14eb ===
  0x14eb	inc    	ebx
  0x14ed	dec    	eax
  0x14ee	mov    	dword ptr [esp + 0x28], ebx
  0x14f2	jmp    	0x144d
  === BLOCK LINK ===
    0x14f7
=== CODE BLOCK END ===

=== CODE BLOCK ADDRESS 0x14f7 ===
  0x14f7	mov    	dword ptr [0x1b23], eax
  0x14fd	cmp    	dword ptr [0x1b3c], 0
  0x1504	jne    	0x150f
  === BLOCK LINK ===
    0x1506
=== CODE BLOCK END ===

=== CODE BLOCK ADDRESS 0x1506 ===
  0x1506	mov    	ecx, eax
  0x1508	call   	dword ptr [0xcf2]
  === BLOCK LINK ===
    0x150e
=== CODE BLOCK END ===

=== CODE BLOCK ADDRESS 0x150e ===
  0x150e	int3   	
  0x150f	cmp    	dword ptr [0x1b0e], 0
  0x1516	jne    	0x1524
  === BLOCK LINK ===
    0x1518
=== CODE BLOCK END ===

=== CODE BLOCK ADDRESS 0x1518 ===
  0x1518	call   	dword ptr [0xcda]
  === BLOCK LINK ===
    0x151e
=== CODE BLOCK END ===

=== CODE BLOCK ADDRESS 0x151e ===
  0x151e	mov    	eax, dword ptr [0x1afc]
  0x1524	dec    	esp
  0x1525	lea    	ebx, [esp + 0xb0]
  0x152c	dec    	ecx
  0x152d	mov    	ebx, dword ptr [ebx + 0x10]
  === BLOCK LINK ===
    0x1530
=== CODE BLOCK END ===

=== CODE BLOCK ADDRESS 0x1530 ===
  0x1530	dec    	ecx
  0x1531	mov    	edi, dword ptr [ebx + 0x18]
  0x1534	dec    	ecx
  0x1535	mov    	esp, ebx
  0x1537	inc    	ecx
  === BLOCK LINK ===
    0x1538
=== CODE BLOCK END ===

=== CODE BLOCK ADDRESS 0x1538 ===
  0x1538	pop    	esi
  0x1539	ret    	
  0x153a	int3   	
  0x153b	int3   	
  0x153c	int3   	
  === BLOCK LINK ===
    0x153d
=== CODE BLOCK END ===

=== CODE BLOCK ADDRESS 0x153d ===
  0x153d	int3   	
  0x153e	int3   	
  0x153f	int3   	
  0x1540	int3   	
  0x1541	int3   	
  === BLOCK LINK ===
    0x1542
=== CODE BLOCK END ===

=== CODE BLOCK ADDRESS 0x1542 ===
  0x1542	int3   	
  0x1543	int3   	
  0x1544	int3   	
  0x1545	int3   	
  0x1546	nop    	word ptr [eax + eax]
  === BLOCK LINK ===
    0x1550
=== CODE BLOCK END ===

=== CODE BLOCK ADDRESS 0x1550 ===
  0x1550	dec    	eax
  0x1551	cmp    	ecx, dword ptr [0x1ab1]
  0x1557	jne    	0x1569
  === BLOCK LINK ===
    0x1559
=== CODE BLOCK END ===

=== CODE BLOCK ADDRESS 0x1559 ===
  0x1559	dec    	eax
  0x155a	rol    	ecx, 0x10
  0x155d	test   	cx, 0xffff
  0x1562	jne    	0x1565
  === BLOCK LINK ===
    0x1564
=== CODE BLOCK END ===

=== CODE BLOCK ADDRESS 0x1564 ===
  0x1564	ret    	
  0x1565	dec    	eax
  0x1566	ror    	ecx, 0x10
  0x1569	jmp    	0x18e0
  === BLOCK LINK ===
    0x156e
=== CODE BLOCK END ===

=== CODE BLOCK ADDRESS 0x1185 ===
  0x1185	xor    	eax, eax
  0x1187	dec    	eax
  0x1188	mov    	ecx, dword ptr [ebp + 0x1010]
  0x118e	dec    	eax
  === BLOCK LINK ===
    0x118f
=== CODE BLOCK END ===

=== CODE BLOCK ADDRESS 0x156e ===
  0x156e	int3   	
  0x156f	int3   	
  0x1570	int3   	
  0x1571	int3   	
  0x1572	int3   	
  === BLOCK LINK ===
    0x1573
=== CODE BLOCK END ===

=== CODE BLOCK ADDRESS 0x1573 ===
  0x1573	int3   	
  0x1574	int3   	
  0x1575	int3   	
  0x1576	int3   	
  0x1577	int3   	
  === BLOCK LINK ===
    0x1578
=== CODE BLOCK END ===

=== CODE BLOCK ADDRESS 0x1578 ===
  0x1578	int3   	
  0x1579	int3   	
  0x157a	int3   	
  0x157b	int3   	
  0x157c	int3   	
  === BLOCK LINK ===
    0x157d
=== CODE BLOCK END ===

=== CODE BLOCK ADDRESS 0x157d ===
  0x157d	int3   	
  0x157e	int3   	
  0x157f	int3   	
  0x1580	dec    	eax
  0x1581	sub    	esp, 0x28
  === BLOCK LINK ===
    0x1584
=== CODE BLOCK END ===

=== CODE BLOCK ADDRESS 0x1584 ===
  0x1584	dec    	eax
  0x1585	mov    	eax, dword ptr [ecx]
  0x1587	cmp    	dword ptr [eax], 0xe06d7363
  0x158d	jne    	0x15b2
  === BLOCK LINK ===
    0x158f
=== CODE BLOCK END ===

=== CODE BLOCK ADDRESS 0x158f ===
  0x158f	cmp    	dword ptr [eax + 0x18], 4
  0x1593	jne    	0x15b2
  === BLOCK LINK ===
    0x1595
=== CODE BLOCK END ===

=== CODE BLOCK ADDRESS 0x1595 ===
  0x1595	mov    	ecx, dword ptr [eax + 0x20]
  0x1598	lea    	eax, [ecx - 0x19930520]
  0x159e	cmp    	eax, 2
  0x15a1	jbe    	0x15ab
  === BLOCK LINK ===
    0x15a3
=== CODE BLOCK END ===

=== CODE BLOCK ADDRESS 0x15a3 ===
  0x15a3	cmp    	ecx, 0x1994000
  0x15a9	jne    	0x15b2
  === BLOCK LINK ===
    0x15ab
=== CODE BLOCK END ===

=== CODE BLOCK ADDRESS 0x15ab ===
  0x15ab	call   	dword ptr [0xc87]
  === BLOCK LINK ===
    0x15b1
=== CODE BLOCK END ===

=== CODE BLOCK ADDRESS 0x15b1 ===
  0x15b1	int3   	
  0x15b2	xor    	eax, eax
  0x15b4	dec    	eax
  0x15b5	add    	esp, 0x28
  0x15b8	ret    	
  === BLOCK LINK ===
    0x15b9
=== CODE BLOCK END ===

=== CODE BLOCK ADDRESS 0x15b9 ===
  0x15b9	int3   	
  0x15ba	int3   	
  0x15bb	int3   	
  0x15bc	int3   	
  0x15bd	int3   	
  === BLOCK LINK ===
    0x15be
=== CODE BLOCK END ===

=== CODE BLOCK ADDRESS 0x15be ===
  0x15be	int3   	
  0x15bf	int3   	
  0x15c0	dec    	eax
  0x15c1	sub    	esp, 0x28
  0x15c4	dec    	eax
  === BLOCK LINK ===
    0x15c5
=== CODE BLOCK END ===

=== CODE BLOCK ADDRESS 0x15c5 ===
  0x15c5	lea    	ecx, [0xffffffb5]
  0x15cb	call   	dword ptr [0xbc7]
  === BLOCK LINK ===
    0x15d1
=== CODE BLOCK END ===

=== CODE BLOCK ADDRESS 0x15d1 ===
  0x15d1	xor    	eax, eax
  0x15d3	dec    	eax
  0x15d4	add    	esp, 0x28
  0x15d7	ret    	
  0x15d8	int3   	
  === BLOCK LINK ===
    0x15d9
=== CODE BLOCK END ===

=== CODE BLOCK ADDRESS 0x15d9 ===
  0x15d9	int3   	
  0x15da	int3   	
  0x15db	int3   	
  0x15dc	int3   	
  0x15dd	int3   	
  === BLOCK LINK ===
    0x15de
=== CODE BLOCK END ===

=== CODE BLOCK ADDRESS 0x15de ===
  0x15de	jmp    	dword ptr [0xc44]
  === BLOCK LINK ===
    0x15e4
=== CODE BLOCK END ===

=== CODE BLOCK ADDRESS 0x15e4 ===
  0x15e4	int3   	
  0x15e5	int3   	
  0x15e6	int3   	
  0x15e7	int3   	
  0x15e8	int3   	
  === BLOCK LINK ===
    0x15e9
=== CODE BLOCK END ===

=== CODE BLOCK ADDRESS 0x15e9 ===
  0x15e9	int3   	
  0x15ea	int3   	
  0x15eb	int3   	
  0x15ec	dec    	eax
  0x15ed	sub    	esp, 0x18
  === BLOCK LINK ===
    0x15f0
=== CODE BLOCK END ===

=== CODE BLOCK ADDRESS 0x15f0 ===
  0x15f0	xor    	edx, edx
  0x15f2	dec    	eax
  0x15f3	lea    	eax, [ecx - 1]
  0x15f6	dec    	eax
  0x15f7	cmp    	eax, -3
  === BLOCK LINK ===
    0x15fa
=== CODE BLOCK END ===

=== CODE BLOCK ADDRESS 0x15fa ===
  0x15fa	ja     	0x1638
  === BLOCK LINK ===
    0x15fc
=== CODE BLOCK END ===

=== CODE BLOCK ADDRESS 0x15fc ===
  0x15fc	mov    	eax, 0x5a4d
  0x1601	cmp    	word ptr [ecx], ax
  0x1604	jne    	0x1630
  === BLOCK LINK ===
    0x1606
=== CODE BLOCK END ===

=== CODE BLOCK ADDRESS 0x1606 ===
  0x1606	cmp    	dword ptr [ecx + 0x3c], edx
  0x1609	jl     	0x1630
  === BLOCK LINK ===
    0x160b
=== CODE BLOCK END ===

=== CODE BLOCK ADDRESS 0x160b ===
  0x160b	cmp    	dword ptr [ecx + 0x3c], 0x10000000
  0x1612	jae    	0x1630
  === BLOCK LINK ===
    0x1614
=== CODE BLOCK END ===

=== CODE BLOCK ADDRESS 0x1614 ===
  0x1614	dec    	eax
  0x1615	arpl   	word ptr [ecx + 0x3c], ax
  0x1618	dec    	eax
  0x1619	add    	eax, ecx
  0x161b	dec    	eax
  === BLOCK LINK ===
    0x161c
=== CODE BLOCK END ===

=== CODE BLOCK ADDRESS 0x161c ===
  0x161c	mov    	dword ptr [esp], eax
  0x161f	cmp    	dword ptr [eax], 0x4550
  0x1625	dec    	eax
  0x1626	cmovne  	eax, edx
  0x1629	dec    	eax
  === BLOCK LINK ===
    0x162a
=== CODE BLOCK END ===

=== CODE BLOCK ADDRESS 0x162a ===
  0x162a	mov    	edx, eax
  0x162c	dec    	eax
  0x162d	mov    	dword ptr [esp], eax
  0x1630	jmp    	0x1638
  === BLOCK LINK ===
    0x1632
=== CODE BLOCK END ===

=== CODE BLOCK ADDRESS 0x1632 ===
  0x1632	xor    	edx, edx
  0x1634	dec    	eax
  0x1635	mov    	dword ptr [esp], edx
  0x1638	dec    	eax
  0x1639	mov    	eax, edx
  === BLOCK LINK ===
    0x163b
=== CODE BLOCK END ===

=== CODE BLOCK ADDRESS 0x163b ===
  0x163b	dec    	eax
  0x163c	add    	esp, 0x18
  0x163f	ret    	
  0x1640	int3   	
  0x1641	int3   	
  === BLOCK LINK ===
    0x1642
=== CODE BLOCK END ===

=== CODE BLOCK ADDRESS 0x1642 ===
  0x1642	int3   	
  0x1643	int3   	
  0x1644	int3   	
  0x1645	int3   	
  0x1646	int3   	
  === BLOCK LINK ===
    0x1647
=== CODE BLOCK END ===

=== CODE BLOCK ADDRESS 0x1647 ===
  0x1647	int3   	
  === BLOCK LINK ===
    0x1648
=== CODE BLOCK END ===

=== CODE BLOCK ADDRESS 0x164e ===
  0x164e	mov    	ebx, ecx
  0x1650	xor    	ecx, ecx
  0x1652	call   	dword ptr [0xb38]
  === BLOCK LINK ===
    0x1658
=== CODE BLOCK END ===

=== CODE BLOCK ADDRESS 0x1658 ===
  0x1658	dec    	eax
  0x1659	test   	eax, eax
  0x165b	je     	0x1685
  === BLOCK LINK ===
    0x165d
=== CODE BLOCK END ===

=== CODE BLOCK ADDRESS 0x165d ===
  0x165d	dec    	eax
  0x165e	mov    	ecx, eax
  0x1660	call   	0x15ec
  === BLOCK LINK ===
    0x1665
=== CODE BLOCK END ===

=== CODE BLOCK ADDRESS 0x1665 ===
  0x1665	dec    	eax
  0x1666	test   	eax, eax
  0x1668	je     	0x1685
  === BLOCK LINK ===
    0x166a
=== CODE BLOCK END ===

=== CODE BLOCK ADDRESS 0x166a ===
  0x166a	mov    	ecx, 2
  0x166f	cmp    	word ptr [eax + 0x5c], cx
  0x1673	jne    	0x1679
  === BLOCK LINK ===
    0x1675
=== CODE BLOCK END ===

=== CODE BLOCK ADDRESS 0x1675 ===
  0x1675	mov    	eax, ecx
  0x1677	jmp    	0x1687
  === BLOCK LINK ===
    0x1679
=== CODE BLOCK END ===

=== CODE BLOCK ADDRESS 0x1679 ===
  0x1679	cmp    	word ptr [eax + 0x5c], 3
  0x167e	mov    	eax, 1
  0x1683	je     	0x1687
  === BLOCK LINK ===
    0x1685
=== CODE BLOCK END ===

=== CODE BLOCK ADDRESS 0x1685 ===
  0x1685	mov    	eax, ebx
  0x1687	dec    	eax
  0x1688	add    	esp, 0x20
  0x168b	pop    	ebx
  0x168c	ret    	
  === BLOCK LINK ===
    0x168d
=== CODE BLOCK END ===

=== CODE BLOCK ADDRESS 0x168d ===
  0x168d	int3   	
  0x168e	int3   	
  0x168f	int3   	
  0x1690	int3   	
  0x1691	int3   	
  === BLOCK LINK ===
    0x1692
=== CODE BLOCK END ===

=== CODE BLOCK ADDRESS 0x1692 ===
  0x1692	int3   	
  0x1693	jmp    	dword ptr [0xb87]
  === BLOCK LINK ===
    0x1699
=== CODE BLOCK END ===

=== CODE BLOCK ADDRESS 0x1699 ===
  0x1699	int3   	
  0x169a	int3   	
  0x169b	int3   	
  0x169c	int3   	
  0x169d	int3   	
  === BLOCK LINK ===
    0x169e
=== CODE BLOCK END ===

=== CODE BLOCK ADDRESS 0x169e ===
  0x169e	int3   	
  0x169f	int3   	
  === BLOCK LINK ===
    0x16a0
=== CODE BLOCK END ===

=== CODE BLOCK ADDRESS 0x1219 ===
  0x1219	mov    	ecx, 2
  0x121e	mov    	dword ptr [0x1e1c], eax
  0x1224	call   	0x1648
  === BLOCK LINK ===
    0x1229
=== CODE BLOCK END ===

=== CODE BLOCK ADDRESS 0x16a4 ===
  0x16a4	int3   	
  0x16a5	int3   	
  0x16a6	int3   	
  0x16a7	int3   	
  0x16a8	int3   	
  === BLOCK LINK ===
    0x16a9
=== CODE BLOCK END ===

=== CODE BLOCK ADDRESS 0x16a9 ===
  0x16a9	int3   	
  0x16aa	int3   	
  0x16ab	int3   	
  0x16ac	int3   	
  0x16ad	int3   	
  === BLOCK LINK ===
    0x16ae
=== CODE BLOCK END ===

=== CODE BLOCK ADDRESS 0x16ae ===
  0x16ae	int3   	
  0x16af	int3   	
  0x16b0	dec    	esp
  0x16b1	arpl   	word ptr [ecx + 0x3c], ax
  0x16b4	inc    	ebp
  === BLOCK LINK ===
    0x16b5
=== CODE BLOCK END ===

=== CODE BLOCK ADDRESS 0x16b5 ===
  0x16b5	xor    	ecx, ecx
  0x16b7	dec    	esp
  0x16b8	add    	eax, ecx
  0x16ba	dec    	esp
  0x16bb	mov    	edx, edx
  === BLOCK LINK ===
    0x16bd
=== CODE BLOCK END ===

=== CODE BLOCK ADDRESS 0x16bd ===
  0x16bd	inc    	ecx
  0x16be	movzx  	eax, word ptr [eax + 0x14]
  0x16c2	inc    	ebp
  0x16c3	movzx  	ebx, word ptr [eax + 6]
  0x16c7	dec    	eax
  === BLOCK LINK ===
    0x16c8
=== CODE BLOCK END ===

=== CODE BLOCK ADDRESS 0x16c8 ===
  0x16c8	add    	eax, 0x18
  0x16cb	dec    	ecx
  0x16cc	add    	eax, eax
  0x16ce	inc    	ebp
  0x16cf	test   	ebx, ebx
  === BLOCK LINK ===
    0x16d1
=== CODE BLOCK END ===

=== CODE BLOCK ADDRESS 0x16d1 ===
  0x16d1	je     	0x16f1
  === BLOCK LINK ===
    0x16d3
=== CODE BLOCK END ===

=== CODE BLOCK ADDRESS 0x16d3 ===
  0x16d3	mov    	edx, dword ptr [eax + 0xc]
  0x16d6	dec    	esp
  0x16d7	cmp    	edx, edx
  0x16d9	jb     	0x16e5
  === BLOCK LINK ===
    0x16db
=== CODE BLOCK END ===

=== CODE BLOCK ADDRESS 0x16db ===
  0x16db	mov    	ecx, dword ptr [eax + 8]
  0x16de	add    	ecx, edx
  0x16e0	dec    	esp
  0x16e1	cmp    	edx, ecx
  0x16e3	jb     	0x16f3
  === BLOCK LINK ===
    0x16e5
=== CODE BLOCK END ===

=== CODE BLOCK ADDRESS 0x16e5 ===
  0x16e5	inc    	ecx
  0x16e6	inc    	ecx
  0x16e8	dec    	eax
  0x16e9	add    	eax, 0x28
  0x16ec	inc    	ebp
  === BLOCK LINK ===
    0x16ed
=== CODE BLOCK END ===

=== CODE BLOCK ADDRESS 0x16ed ===
  0x16ed	cmp    	ecx, ebx
  0x16ef	jb     	0x16d3
  === BLOCK LINK ===
    0x16f1
=== CODE BLOCK END ===

=== CODE BLOCK ADDRESS 0x16f1 ===
  0x16f1	xor    	eax, eax
  0x16f3	ret    	
  0x16f4	int3   	
  0x16f5	int3   	
  0x16f6	int3   	
  === BLOCK LINK ===
    0x16f7
=== CODE BLOCK END ===

=== CODE BLOCK ADDRESS 0x16f7 ===
  0x16f7	int3   	
  0x16f8	int3   	
  0x16f9	int3   	
  0x16fa	int3   	
  0x16fb	int3   	
  === BLOCK LINK ===
    0x16fc
=== CODE BLOCK END ===

=== CODE BLOCK ADDRESS 0x16fc ===
  0x16fc	int3   	
  0x16fd	int3   	
  0x16fe	int3   	
  0x16ff	int3   	
  0x1700	dec    	eax
  === BLOCK LINK ===
    0x1701
=== CODE BLOCK END ===

=== CODE BLOCK ADDRESS 0x1701 ===
  0x1701	mov    	dword ptr [esp + 8], ebx
  0x1705	push   	edi
  0x1706	dec    	eax
  0x1707	sub    	esp, 0x20
  0x170a	dec    	eax
  === BLOCK LINK ===
    0x170b
=== CODE BLOCK END ===

=== CODE BLOCK ADDRESS 0x170b ===
  0x170b	mov    	ebx, ecx
  0x170d	dec    	eax
  0x170e	lea    	edi, [0xffffe8ec]
  0x1714	dec    	eax
  0x1715	mov    	ecx, edi
  === BLOCK LINK ===
    0x1717
=== CODE BLOCK END ===

=== CODE BLOCK ADDRESS 0x1717 ===
  0x1717	call   	0x1760
  === BLOCK LINK ===
    0x171c
=== CODE BLOCK END ===

=== CODE BLOCK ADDRESS 0x171c ===
  0x171c	test   	eax, eax
  0x171e	je     	0x1742
  === BLOCK LINK ===
    0x1720
=== CODE BLOCK END ===

=== CODE BLOCK ADDRESS 0x1720 ===
  0x1720	dec    	eax
  0x1721	sub    	ebx, edi
  0x1723	dec    	eax
  0x1724	mov    	edx, ebx
  0x1726	dec    	eax
  === BLOCK LINK ===
    0x1727
=== CODE BLOCK END ===

=== CODE BLOCK ADDRESS 0x1727 ===
  0x1727	mov    	ecx, edi
  0x1729	call   	0x16b0
  === BLOCK LINK ===
    0x172e
=== CODE BLOCK END ===

=== CODE BLOCK ADDRESS 0x172e ===
  0x172e	dec    	eax
  0x172f	test   	eax, eax
  0x1731	je     	0x1742
  === BLOCK LINK ===
    0x1733
=== CODE BLOCK END ===

=== CODE BLOCK ADDRESS 0x1733 ===
  0x1733	mov    	eax, dword ptr [eax + 0x24]
  0x1736	shr    	eax, 0x1f
  0x1739	not    	eax
  0x173b	and    	eax, 1
  0x173e	jmp    	0x1742
  === BLOCK LINK ===
    0x1740
=== CODE BLOCK END ===

=== CODE BLOCK ADDRESS 0x1740 ===
  0x1740	xor    	eax, eax
  0x1742	dec    	eax
  0x1743	mov    	ebx, dword ptr [esp + 0x30]
  0x1747	dec    	eax
  0x1748	add    	esp, 0x20
  === BLOCK LINK ===
    0x174b
=== CODE BLOCK END ===

=== CODE BLOCK ADDRESS 0x174b ===
  0x174b	pop    	edi
  0x174c	ret    	
  0x174d	int3   	
  0x174e	int3   	
  0x174f	int3   	
  === BLOCK LINK ===
    0x1750
=== CODE BLOCK END ===

=== CODE BLOCK ADDRESS 0x1750 ===
  0x1750	int3   	
  0x1751	int3   	
  0x1752	int3   	
  0x1753	int3   	
  0x1754	int3   	
  === BLOCK LINK ===
    0x1755
=== CODE BLOCK END ===

=== CODE BLOCK ADDRESS 0x1755 ===
  0x1755	int3   	
  0x1756	int3   	
  0x1757	int3   	
  0x1758	int3   	
  0x1759	int3   	
  === BLOCK LINK ===
    0x175a
=== CODE BLOCK END ===

=== CODE BLOCK ADDRESS 0x175a ===
  0x175a	int3   	
  0x175b	int3   	
  0x175c	int3   	
  0x175d	int3   	
  0x175e	int3   	
  === BLOCK LINK ===
    0x175f
=== CODE BLOCK END ===

=== CODE BLOCK ADDRESS 0x175f ===
  0x175f	int3   	
  0x1760	mov    	eax, 0x5a4d
  0x1765	cmp    	word ptr [ecx], ax
  0x1768	jne    	0x178a
  === BLOCK LINK ===
    0x176a
=== CODE BLOCK END ===

=== CODE BLOCK ADDRESS 0x176a ===
  0x176a	dec    	eax
  0x176b	arpl   	word ptr [ecx + 0x3c], ax
  0x176e	dec    	eax
  0x176f	add    	eax, ecx
  0x1771	cmp    	dword ptr [eax], 0x4550
  === BLOCK LINK ===
    0x1777
=== CODE BLOCK END ===

=== CODE BLOCK ADDRESS 0x1777 ===
  0x1777	jne    	0x178a
  === BLOCK LINK ===
    0x1779
=== CODE BLOCK END ===

=== CODE BLOCK ADDRESS 0x1779 ===
  0x1779	mov    	ecx, 0x20b
  0x177e	cmp    	word ptr [eax + 0x18], cx
  0x1782	jne    	0x178a
  === BLOCK LINK ===
    0x1784
=== CODE BLOCK END ===

=== CODE BLOCK ADDRESS 0x1784 ===
  0x1784	mov    	eax, 1
  0x1789	ret    	
  0x178a	xor    	eax, eax
  0x178c	ret    	
  0x178d	int3   	
  === BLOCK LINK ===
    0x178e
=== CODE BLOCK END ===

=== CODE BLOCK ADDRESS 0x178e ===
  0x178e	int3   	
  0x178f	int3   	
  0x1790	int3   	
  0x1791	int3   	
  0x1792	int3   	
  === BLOCK LINK ===
    0x1793
=== CODE BLOCK END ===

=== CODE BLOCK ADDRESS 0x1793 ===
  0x1793	int3   	
  === BLOCK LINK ===
    0x1794
=== CODE BLOCK END ===

=== CODE BLOCK ADDRESS 0x179b ===
  0x179b	mov    	ebp, esp
  0x179d	dec    	eax
  0x179e	sub    	esp, 0x20
  0x17a1	dec    	eax
  0x17a2	and    	dword ptr [ebp + 0x18], 0
  === BLOCK LINK ===
    0x17a6
=== CODE BLOCK END ===

=== CODE BLOCK ADDRESS 0x17a6 ===
  0x17a6	dec    	eax
  0x17a7	mov    	ebx, 0x2ddfa232
  0x17ac	cdq    	
  0x17ad	sub    	eax, dword ptr [eax]
  0x17af	add    	byte ptr [eax - 0x75], cl
  === BLOCK LINK ===
    0x17b2
=== CODE BLOCK END ===

=== CODE BLOCK ADDRESS 0x17b2 ===
  0x17b2	add    	eax, 0x1851
  0x17b7	dec    	eax
  0x17b8	cmp    	eax, ebx
  0x17ba	jne    	0x1853
  === BLOCK LINK ===
    0x17c0
=== CODE BLOCK END ===

=== CODE BLOCK ADDRESS 0x17c0 ===
  0x17c0	dec    	eax
  0x17c1	lea    	ecx, [ebp + 0x18]
  0x17c4	call   	dword ptr [0x9a6]
  === BLOCK LINK ===
    0x17ca
=== CODE BLOCK END ===

=== CODE BLOCK ADDRESS 0x17ca ===
  0x17ca	dec    	eax
  0x17cb	mov    	eax, dword ptr [ebp + 0x18]
  0x17ce	dec    	eax
  0x17cf	mov    	dword ptr [ebp + 0x10], eax
  0x17d2	call   	dword ptr [0x9a8]
  === BLOCK LINK ===
    0x17d8
=== CODE BLOCK END ===

=== CODE BLOCK ADDRESS 0x17d8 ===
  0x17d8	mov    	eax, eax
  0x17da	dec    	eax
  0x17db	xor    	dword ptr [ebp + 0x10], eax
  0x17de	call   	dword ptr [0x994]
  === BLOCK LINK ===
    0x17e4
=== CODE BLOCK END ===

=== CODE BLOCK ADDRESS 0x17e4 ===
  0x17e4	mov    	eax, eax
  0x17e6	dec    	eax
  0x17e7	xor    	dword ptr [ebp + 0x10], eax
  0x17ea	call   	dword ptr [0x978]
  === BLOCK LINK ===
    0x17f0
=== CODE BLOCK END ===

=== CODE BLOCK ADDRESS 0x17f0 ===
  0x17f0	mov    	eax, eax
  0x17f2	dec    	eax
  0x17f3	shl    	eax, 0x18
  0x17f6	dec    	eax
  0x17f7	xor    	dword ptr [ebp + 0x10], eax
  === BLOCK LINK ===
    0x17fa
=== CODE BLOCK END ===

=== CODE BLOCK ADDRESS 0x17fa ===
  0x17fa	call   	dword ptr [0x968]
  === BLOCK LINK ===
    0x1800
=== CODE BLOCK END ===

=== CODE BLOCK ADDRESS 0x1800 ===
  0x1800	mov    	eax, eax
  0x1802	dec    	eax
  0x1803	lea    	ecx, [ebp + 0x10]
  0x1806	dec    	eax
  0x1807	xor    	eax, dword ptr [ebp + 0x10]
  === BLOCK LINK ===
    0x180a
=== CODE BLOCK END ===

=== CODE BLOCK ADDRESS 0x180a ===
  0x180a	dec    	eax
  0x180b	xor    	eax, ecx
  0x180d	dec    	eax
  0x180e	lea    	ecx, [ebp + 0x20]
  0x1811	dec    	eax
  === BLOCK LINK ===
    0x1812
=== CODE BLOCK END ===

=== CODE BLOCK ADDRESS 0x1812 ===
  0x1812	mov    	dword ptr [ebp + 0x10], eax
  0x1815	call   	dword ptr [0x96d]
  === BLOCK LINK ===
    0x181b
=== CODE BLOCK END ===

=== CODE BLOCK ADDRESS 0x181b ===
  0x181b	mov    	eax, dword ptr [ebp + 0x20]
  0x181e	dec    	eax
  0x181f	mov    	ecx, 0xffffffff
  0x1824	.byte  	0xff
  0x1825	inc    	dword ptr [eax]
  === BLOCK LINK ===
    0x1827
=== CODE BLOCK END ===

=== CODE BLOCK ADDRESS 0x1827 ===
  0x1827	add    	byte ptr [eax - 0x3f], cl
  0x182a	loopne  	0x184c
  === BLOCK LINK ===
    0x182c
=== CODE BLOCK END ===

=== CODE BLOCK ADDRESS 0x182c ===
  0x182c	dec    	eax
  0x182d	xor    	eax, dword ptr [ebp + 0x20]
  0x1830	dec    	eax
  0x1831	xor    	eax, dword ptr [ebp + 0x10]
  0x1834	dec    	eax
  === BLOCK LINK ===
    0x1835
=== CODE BLOCK END ===

=== CODE BLOCK ADDRESS 0x1835 ===
  0x1835	and    	eax, ecx
  0x1837	dec    	eax
  0x1838	mov    	ecx, eax
  0x183a	dec    	eax
  0x183b	cmp    	eax, ebx
  === BLOCK LINK ===
    0x183d
=== CODE BLOCK END ===

=== CODE BLOCK ADDRESS 0x183d ===
  0x183d	jne    	0x184c
  === BLOCK LINK ===
    0x183f
=== CODE BLOCK END ===

=== CODE BLOCK ADDRESS 0x183f ===
  0x183f	dec    	eax
  0x1840	mov    	eax, 0x2ddfa233
  0x1845	cdq    	
  0x1846	sub    	eax, dword ptr [eax]
  0x1848	add    	byte ptr [eax - 0x75], cl
  === BLOCK LINK ===
    0x184b
=== CODE BLOCK END ===

=== CODE BLOCK ADDRESS 0x184b ===
  0x184b	enter  	-0x76b8, 0xd
  0x184f	mov    	ch, 0x17
  0x1851	add    	byte ptr [eax], al
  0x1853	dec    	eax
  0x1854	mov    	ebx, dword ptr [esp + 0x48]
  === BLOCK LINK ===
    0x1858
=== CODE BLOCK END ===

=== CODE BLOCK ADDRESS 0x1858 ===
  0x1858	dec    	eax
  0x1859	not    	eax
  0x185b	dec    	eax
  0x185c	mov    	dword ptr [0x17ae], eax
  0x1862	dec    	eax
  === BLOCK LINK ===
    0x1863
=== CODE BLOCK END ===

=== CODE BLOCK ADDRESS 0x1863 ===
  0x1863	add    	esp, 0x20
  0x1866	pop    	ebp
  0x1867	ret    	
  0x1868	int3   	
  0x1869	int3   	
  === BLOCK LINK ===
    0x186a
=== CODE BLOCK END ===

=== CODE BLOCK ADDRESS 0x1216 ===
  0x1216	setne  	al
  === BLOCK LINK ===
    0x1219
=== CODE BLOCK END ===

=== CODE BLOCK ADDRESS 0x186a ===
  0x186a	int3   	
  0x186b	int3   	
  0x186c	int3   	
  0x186d	int3   	
  0x186e	jmp    	dword ptr [0x96c]
  === BLOCK LINK ===
    0x1874
=== CODE BLOCK END ===

=== CODE BLOCK ADDRESS 0x1874 ===
  0x1874	int3   	
  0x1875	int3   	
  0x1876	int3   	
  0x1877	int3   	
  0x1878	int3   	
  === BLOCK LINK ===
    0x1879
=== CODE BLOCK END ===

=== CODE BLOCK ADDRESS 0x1879 ===
  0x1879	int3   	
  0x187a	jmp    	dword ptr [0x958]
  === BLOCK LINK ===
    0x1880
=== CODE BLOCK END ===

=== CODE BLOCK ADDRESS 0x1880 ===
  0x1880	int3   	
  0x1881	int3   	
  0x1882	int3   	
  0x1883	int3   	
  0x1884	int3   	
  === BLOCK LINK ===
    0x1885
=== CODE BLOCK END ===

=== CODE BLOCK ADDRESS 0x1885 ===
  0x1885	int3   	
  0x1886	int3   	
  0x1887	int3   	
  0x1888	int3   	
  0x1889	int3   	
  === BLOCK LINK ===
    0x188a
=== CODE BLOCK END ===

=== CODE BLOCK ADDRESS 0x188a ===
  0x188a	int3   	
  0x188b	int3   	
  0x188c	int3   	
  0x188d	int3   	
  0x188e	int3   	
  === BLOCK LINK ===
    0x188f
=== CODE BLOCK END ===

=== CODE BLOCK ADDRESS 0x188f ===
  0x188f	int3   	
  0x1890	ret    	0
  0x1893	int3   	
  0x1894	int3   	
  0x1895	int3   	
  === BLOCK LINK ===
    0x1896
=== CODE BLOCK END ===

=== CODE BLOCK ADDRESS 0x1896 ===
  0x1896	int3   	
  0x1897	int3   	
  0x1898	int3   	
  0x1899	int3   	
  0x189a	int3   	
  === BLOCK LINK ===
    0x189b
=== CODE BLOCK END ===

=== CODE BLOCK ADDRESS 0x189b ===
  0x189b	int3   	
  0x189c	inc    	eax
  0x189d	push   	ebx
  0x189e	dec    	eax
  0x189f	sub    	esp, 0x20
  === BLOCK LINK ===
    0x18a2
=== CODE BLOCK END ===

=== CODE BLOCK ADDRESS 0x18a2 ===
  0x18a2	dec    	eax
  0x18a3	mov    	ebx, ecx
  0x18a5	xor    	ecx, ecx
  0x18a7	call   	dword ptr [0x8eb]
  === BLOCK LINK ===
    0x18ad
=== CODE BLOCK END ===

=== CODE BLOCK ADDRESS 0x18ad ===
  0x18ad	dec    	eax
  0x18ae	mov    	ecx, ebx
  0x18b0	call   	dword ptr [0x892]
  === BLOCK LINK ===
    0x18b6
=== CODE BLOCK END ===

=== CODE BLOCK ADDRESS 0x18b6 ===
  0x18b6	call   	dword ptr [0x8fc]
  === BLOCK LINK ===
    0x18bc
=== CODE BLOCK END ===

=== CODE BLOCK ADDRESS 0x18bc ===
  0x18bc	dec    	eax
  0x18bd	mov    	ecx, eax
  0x18bf	mov    	edx, 0xc0000409
  0x18c4	dec    	eax
  0x18c5	add    	esp, 0x20
  === BLOCK LINK ===
    0x18c8
=== CODE BLOCK END ===

=== CODE BLOCK ADDRESS 0x18c8 ===
  0x18c8	pop    	ebx
  0x18c9	dec    	eax
  0x18ca	jmp    	dword ptr [0x8e0]
  === BLOCK LINK ===
    0x18d0
=== CODE BLOCK END ===

=== CODE BLOCK ADDRESS 0x18d0 ===
  0x18d0	int3   	
  0x18d1	int3   	
  0x18d2	int3   	
  0x18d3	int3   	
  0x18d4	int3   	
  === BLOCK LINK ===
    0x18d5
=== CODE BLOCK END ===

=== CODE BLOCK ADDRESS 0x18d5 ===
  0x18d5	int3   	
  0x18d6	int3   	
  0x18d7	int3   	
  0x18d8	int3   	
  0x18d9	int3   	
  === BLOCK LINK ===
    0x18da
=== CODE BLOCK END ===

=== CODE BLOCK ADDRESS 0x18da ===
  0x18da	int3   	
  0x18db	int3   	
  0x18dc	int3   	
  0x18dd	int3   	
  0x18de	int3   	
  === BLOCK LINK ===
    0x18df
=== CODE BLOCK END ===

=== CODE BLOCK ADDRESS 0x18df ===
  0x18df	int3   	
  0x18e0	dec    	eax
  0x18e1	mov    	dword ptr [esp + 8], ecx
  0x18e5	dec    	eax
  0x18e6	sub    	esp, 0x88
  === BLOCK LINK ===
    0x18ec
=== CODE BLOCK END ===

=== CODE BLOCK ADDRESS 0x18ec ===
  0x18ec	dec    	eax
  0x18ed	lea    	ecx, [0x180d]
  0x18f3	call   	dword ptr [0x867]
  === BLOCK LINK ===
    0x18f9
=== CODE BLOCK END ===

=== CODE BLOCK ADDRESS 0x18f9 ===
  0x18f9	dec    	eax
  0x18fa	mov    	eax, dword ptr [0x18f8]
  0x1900	dec    	eax
  0x1901	mov    	dword ptr [esp + 0x48], eax
  0x1905	inc    	ebp
  === BLOCK LINK ===
    0x1906
=== CODE BLOCK END ===

=== CODE BLOCK ADDRESS 0x1906 ===
  0x1906	xor    	eax, eax
  0x1908	dec    	eax
  0x1909	lea    	edx, [esp + 0x50]
  0x190d	dec    	eax
  0x190e	mov    	ecx, dword ptr [esp + 0x48]
  === BLOCK LINK ===
    0x1912
=== CODE BLOCK END ===

=== CODE BLOCK ADDRESS 0x1912 ===
  0x1912	call   	dword ptr [0x840]
  === BLOCK LINK ===
    0x1918
=== CODE BLOCK END ===

=== CODE BLOCK ADDRESS 0x1918 ===
  0x1918	dec    	eax
  0x1919	mov    	dword ptr [esp + 0x40], eax
  0x191d	dec    	eax
  0x191e	cmp    	dword ptr [esp + 0x40], 0
  0x1923	je     	0x1967
  === BLOCK LINK ===
    0x1925
=== CODE BLOCK END ===

=== CODE BLOCK ADDRESS 0x1925 ===
  0x1925	dec    	eax
  0x1926	mov    	dword ptr [esp + 0x38], 0
  0x192e	dec    	eax
  0x192f	lea    	eax, [esp + 0x58]
  0x1933	dec    	eax
  === BLOCK LINK ===
    0x1934
=== CODE BLOCK END ===

=== CODE BLOCK ADDRESS 0x1934 ===
  0x1934	mov    	dword ptr [esp + 0x30], eax
  0x1938	dec    	eax
  0x1939	lea    	eax, [esp + 0x60]
  0x193d	dec    	eax
  0x193e	mov    	dword ptr [esp + 0x28], eax
  === BLOCK LINK ===
    0x1942
=== CODE BLOCK END ===

=== CODE BLOCK ADDRESS 0x1942 ===
  0x1942	dec    	eax
  0x1943	lea    	eax, [0x17b7]
  0x1949	dec    	eax
  0x194a	mov    	dword ptr [esp + 0x20], eax
  0x194e	dec    	esp
  === BLOCK LINK ===
    0x194f
=== CODE BLOCK END ===

=== CODE BLOCK ADDRESS 0x194f ===
  0x194f	mov    	ecx, dword ptr [esp + 0x40]
  0x1953	dec    	esp
  0x1954	mov    	eax, dword ptr [esp + 0x48]
  0x1958	dec    	eax
  0x1959	mov    	edx, dword ptr [esp + 0x50]
  === BLOCK LINK ===
    0x195d
=== CODE BLOCK END ===

=== CODE BLOCK ADDRESS 0x195d ===
  0x195d	xor    	ecx, ecx
  0x195f	call   	dword ptr [0x7eb]
  === BLOCK LINK ===
    0x1965
=== CODE BLOCK END ===

=== CODE BLOCK ADDRESS 0x1965 ===
  0x1965	jmp    	0x198a
  === BLOCK LINK ===
    0x1967
=== CODE BLOCK END ===

=== CODE BLOCK ADDRESS 0x1967 ===
  0x1967	dec    	eax
  0x1968	mov    	eax, dword ptr [0x182a]
  0x196e	dec    	eax
  0x196f	mov    	eax, dword ptr [eax]
  0x1971	dec    	eax
  === BLOCK LINK ===
    0x1972
=== CODE BLOCK END ===

=== CODE BLOCK ADDRESS 0x1972 ===
  0x1972	mov    	dword ptr [0x1880], eax
  0x1978	dec    	eax
  0x1979	mov    	eax, dword ptr [0x1819]
  0x197f	dec    	eax
  0x1980	add    	eax, 8
  === BLOCK LINK ===
    0x1983
=== CODE BLOCK END ===

=== CODE BLOCK ADDRESS 0x1983 ===
  0x1983	dec    	eax
  0x1984	mov    	dword ptr [0x180e], eax
  0x198a	dec    	eax
  0x198b	mov    	eax, dword ptr [0x1867]
  0x1991	dec    	eax
  === BLOCK LINK ===
    0x1992
=== CODE BLOCK END ===

=== CODE BLOCK ADDRESS 0x1992 ===
  0x1992	mov    	dword ptr [0x16d8], eax
  0x1998	dec    	eax
  0x1999	mov    	eax, dword ptr [esp + 0x90]
  0x19a0	dec    	eax
  0x19a1	mov    	dword ptr [0x17d9], eax
  === BLOCK LINK ===
    0x19a7
=== CODE BLOCK END ===

=== CODE BLOCK ADDRESS 0x19a7 ===
  0x19a7	mov    	dword ptr [0x16af], 0xc0000409
  0x19b1	mov    	dword ptr [0x16a9], 1
  0x19bb	mov    	dword ptr [0x16b3], 3
  0x19c5	mov    	eax, 8
  0x19ca	dec    	eax
  === BLOCK LINK ===
    0x19cb
=== CODE BLOCK END ===

=== CODE BLOCK ADDRESS 0x19cb ===
  0x19cb	imul   	eax, eax, 0
  0x19ce	dec    	eax
  0x19cf	lea    	ecx, [0x16ab]
  0x19d5	dec    	eax
  0x19d6	mov    	dword ptr [ecx + eax], 2
  === BLOCK LINK ===
    0x19dd
=== CODE BLOCK END ===

=== CODE BLOCK ADDRESS 0x19dd ===
  0x19dd	mov    	eax, 8
  0x19e2	dec    	eax
  0x19e3	imul   	eax, eax, 1
  0x19e6	dec    	eax
  0x19e7	lea    	ecx, [0x1693]
  === BLOCK LINK ===
    0x19ed
=== CODE BLOCK END ===

=== CODE BLOCK ADDRESS 0x19ed ===
  0x19ed	dec    	eax
  0x19ee	mov    	edx, dword ptr [0x1614]
  0x19f4	dec    	eax
  0x19f5	mov    	dword ptr [ecx + eax], edx
  0x19f8	mov    	eax, 8
  === BLOCK LINK ===
    0x19fd
=== CODE BLOCK END ===

=== CODE BLOCK ADDRESS 0x19fd ===
  0x19fd	dec    	eax
  0x19fe	imul   	eax, eax, 2
  0x1a01	dec    	eax
  0x1a02	lea    	ecx, [0x1678]
  0x1a08	dec    	eax
  === BLOCK LINK ===
    0x1a09
=== CODE BLOCK END ===

=== CODE BLOCK ADDRESS 0x1a09 ===
  0x1a09	mov    	edx, dword ptr [0x1601]
  0x1a0f	dec    	eax
  0x1a10	mov    	dword ptr [ecx + eax], edx
  0x1a13	mov    	eax, 8
  0x1a18	dec    	eax
  === BLOCK LINK ===
    0x1a19
=== CODE BLOCK END ===

=== CODE BLOCK ADDRESS 0x1a19 ===
  0x1a19	imul   	eax, eax, 0
  0x1a1c	dec    	eax
  0x1a1d	mov    	ecx, dword ptr [0x15e5]
  0x1a23	dec    	eax
  0x1a24	mov    	dword ptr [esp + eax + 0x68], ecx
  === BLOCK LINK ===
    0x1a28
=== CODE BLOCK END ===

=== CODE BLOCK ADDRESS 0x1a28 ===
  0x1a28	mov    	eax, 8
  0x1a2d	dec    	eax
  0x1a2e	imul   	eax, eax, 1
  0x1a31	dec    	eax
  0x1a32	mov    	ecx, dword ptr [0x15d8]
  === BLOCK LINK ===
    0x1a38
=== CODE BLOCK END ===

=== CODE BLOCK ADDRESS 0x1a38 ===
  0x1a38	dec    	eax
  0x1a39	mov    	dword ptr [esp + eax + 0x68], ecx
  0x1a3d	dec    	eax
  0x1a3e	lea    	ecx, [0x5bc]
  0x1a44	call   	0x189c
  === BLOCK LINK ===
    0x1a49
=== CODE BLOCK END ===

=== CODE BLOCK ADDRESS 0x1a49 ===
  0x1a49	dec    	eax
  0x1a4a	add    	esp, 0x88
  0x1a50	ret    	
  0x1a51	int3   	
  0x1a52	int3   	
  === BLOCK LINK ===
    0x1a53
=== CODE BLOCK END ===

=== CODE BLOCK ADDRESS 0x1648 ===
  0x1648	inc    	eax
  0x1649	push   	ebx
  0x164a	dec    	eax
  0x164b	sub    	esp, 0x20
  === BLOCK LINK ===
    0x164e
=== CODE BLOCK END ===

=== CODE BLOCK ADDRESS 0x1a53 ===
  0x1a53	int3   	
  0x1a54	int3   	
  0x1a55	int3   	
  0x1a56	int3   	
  0x1a57	int3   	
  === BLOCK LINK ===
    0x1a58
=== CODE BLOCK END ===

=== CODE BLOCK ADDRESS 0x1a58 ===
  0x1a58	int3   	
  0x1a59	int3   	
  0x1a5a	int3   	
  0x1a5b	int3   	
  0x1a5c	int3   	
  === BLOCK LINK ===
    0x1a5d
=== CODE BLOCK END ===

=== CODE BLOCK ADDRESS 0x1a5d ===
  0x1a5d	int3   	
  0x1a5e	int3   	
  0x1a5f	int3   	
  0x1a60	int3   	
  0x1a61	int3   	
  === BLOCK LINK ===
    0x1a62
=== CODE BLOCK END ===

=== CODE BLOCK ADDRESS 0x1a62 ===
  0x1a62	int3   	
  0x1a63	int3   	
  0x1a64	int3   	
  0x1a65	int3   	
  0x1a66	int3   	
  === BLOCK LINK ===
    0x1a67
=== CODE BLOCK END ===

=== CODE BLOCK ADDRESS 0x1a67 ===
  0x1a67	int3   	
  0x1a68	dec    	eax
  0x1a69	sub    	esp, 0x28
  0x1a6c	dec    	ebp
  0x1a6d	mov    	eax, dword ptr [ecx + 0x38]
  === BLOCK LINK ===
    0x1a70
=== CODE BLOCK END ===

=== CODE BLOCK ADDRESS 0x1a70 ===
  0x1a70	dec    	eax
  0x1a71	mov    	ecx, edx
  0x1a73	dec    	ecx
  0x1a74	mov    	edx, ecx
  0x1a76	call   	0x1a8c
  === BLOCK LINK ===
    0x1a7b
=== CODE BLOCK END ===

=== CODE BLOCK ADDRESS 0x1a7b ===
  0x1a7b	mov    	eax, 1
  0x1a80	dec    	eax
  0x1a81	add    	esp, 0x28
  0x1a84	ret    	
  0x1a85	int3   	
  === BLOCK LINK ===
    0x1a86
=== CODE BLOCK END ===

=== CODE BLOCK ADDRESS 0x16a0 ===
  0x16a0	xor    	eax, eax
  0x16a2	ret    	
  0x16a3	int3   	
  === BLOCK LINK ===
    0x16a4
=== CODE BLOCK END ===

=== CODE BLOCK ADDRESS 0x1a86 ===
  0x1a86	int3   	
  0x1a87	int3   	
  0x1a88	int3   	
  0x1a89	int3   	
  0x1a8a	int3   	
  === BLOCK LINK ===
    0x1a8b
=== CODE BLOCK END ===

=== CODE BLOCK ADDRESS 0x1a8b ===
  0x1a8b	int3   	
  0x1a8c	inc    	eax
  0x1a8d	push   	ebx
  0x1a8e	inc    	ebp
  0x1a8f	mov    	ebx, dword ptr [eax]
  === BLOCK LINK ===
    0x1a91
=== CODE BLOCK END ===

=== CODE BLOCK ADDRESS 0x1a91 ===
  0x1a91	dec    	eax
  0x1a92	mov    	ebx, edx
  0x1a94	inc    	ecx
  0x1a95	and    	ebx, 0xfffffff8
  0x1a98	dec    	esp
  === BLOCK LINK ===
    0x1a99
=== CODE BLOCK END ===

=== CODE BLOCK ADDRESS 0x1a99 ===
  0x1a99	mov    	ecx, ecx
  0x1a9b	inc    	ecx
  0x1a9c	test   	byte ptr [eax], 4
  0x1a9f	dec    	esp
  0x1aa0	mov    	edx, ecx
  === BLOCK LINK ===
    0x1aa2
=== CODE BLOCK END ===

=== CODE BLOCK ADDRESS 0x1aa2 ===
  0x1aa2	je     	0x1ab7
  === BLOCK LINK ===
    0x1aa4
=== CODE BLOCK END ===

=== CODE BLOCK ADDRESS 0x1aa4 ===
  0x1aa4	inc    	ecx
  0x1aa5	mov    	eax, dword ptr [eax + 8]
  0x1aa8	dec    	ebp
  0x1aa9	arpl   	word ptr [eax + 4], dx
  0x1aac	neg    	eax
  === BLOCK LINK ===
    0x1aae
=== CODE BLOCK END ===

=== CODE BLOCK ADDRESS 0x1aae ===
  0x1aae	dec    	esp
  0x1aaf	add    	edx, ecx
  0x1ab1	dec    	eax
  0x1ab2	arpl   	ax, cx
  0x1ab4	dec    	esp
  === BLOCK LINK ===
    0x1ab5
=== CODE BLOCK END ===

=== CODE BLOCK ADDRESS 0x1ab5 ===
  0x1ab5	and    	edx, ecx
  0x1ab7	dec    	ecx
  0x1ab8	arpl   	bx, ax
  0x1aba	dec    	edx
  0x1abb	mov    	edx, dword ptr [eax + edx]
  === BLOCK LINK ===
    0x1abe
=== CODE BLOCK END ===

=== CODE BLOCK ADDRESS 0x1abe ===
  0x1abe	dec    	eax
  0x1abf	mov    	eax, dword ptr [ebx + 0x10]
  0x1ac2	mov    	ecx, dword ptr [eax + 8]
  0x1ac5	dec    	eax
  0x1ac6	mov    	eax, dword ptr [ebx + 8]
  === BLOCK LINK ===
    0x1ac9
=== CODE BLOCK END ===

=== CODE BLOCK ADDRESS 0x1ac9 ===
  0x1ac9	test   	byte ptr [ecx + eax + 3], 0xf
  0x1ace	je     	0x1adb
  === BLOCK LINK ===
    0x1ad0
=== CODE BLOCK END ===

=== CODE BLOCK ADDRESS 0x1ad0 ===
  0x1ad0	movzx  	eax, byte ptr [ecx + eax + 3]
  0x1ad5	and    	eax, 0xfffffff0
  0x1ad8	dec    	esp
  0x1ad9	add    	ecx, eax
  0x1adb	dec    	esp
  === BLOCK LINK ===
    0x1adc
=== CODE BLOCK END ===

=== CODE BLOCK ADDRESS 0x1adc ===
  0x1adc	xor    	ecx, edx
  0x1ade	dec    	ecx
  0x1adf	mov    	ecx, ecx
  0x1ae1	pop    	ebx
  0x1ae2	jmp    	0x1550
  === BLOCK LINK ===
    0x1ae7
=== CODE BLOCK END ===

=== CODE BLOCK ADDRESS 0x1ae7 ===
  0x1ae7	int3   	
  0x1ae8	int3   	
  0x1ae9	int3   	
  0x1aea	int3   	
  0x1aeb	int3   	
  === BLOCK LINK ===
    0x1aec
=== CODE BLOCK END ===

=== CODE BLOCK ADDRESS 0x1aec ===
  0x1aec	int3   	
  0x1aed	int3   	
  0x1aee	int3   	
  0x1aef	int3   	
  0x1af0	int3   	
  === BLOCK LINK ===
    0x1af1
=== CODE BLOCK END ===

=== CODE BLOCK ADDRESS 0x1af1 ===
  0x1af1	int3   	
  0x1af2	int3   	
  0x1af3	int3   	
  0x1af4	int3   	
  0x1af5	int3   	
  === BLOCK LINK ===
    0x1af6
=== CODE BLOCK END ===

=== CODE BLOCK ADDRESS 0x1afc ===
  0x1afc	int3   	
  0x1afd	int3   	
  0x1afe	int3   	
  0x1aff	int3   	
  0x1b00	int3   	
  === BLOCK LINK ===
    0x1b01
=== CODE BLOCK END ===

=== CODE BLOCK ADDRESS 0x1b01 ===
  0x1b01	int3   	
  0x1b02	int3   	
  0x1b03	int3   	
  0x1b04	int3   	
  0x1b05	int3   	
  === BLOCK LINK ===
    0x1b06
=== CODE BLOCK END ===

=== CODE BLOCK ADDRESS 0x1b06 ===
  0x1b06	nop    	word ptr [eax + eax]
  0x1b10	jmp    	eax
  === BLOCK LINK ===
    0x1b12
=== CODE BLOCK END ===

=== CODE BLOCK ADDRESS 0x1b12 ===
  0x1b12	int3   	
  0x1b13	int3   	
  0x1b14	int3   	
  0x1b15	int3   	
  0x1b16	int3   	
  === BLOCK LINK ===
    0x1b17
=== CODE BLOCK END ===

=== CODE BLOCK ADDRESS 0x1b17 ===
  0x1b17	int3   	
  0x1b18	int3   	
  0x1b19	int3   	
  0x1b1a	int3   	
  0x1b1b	int3   	
  === BLOCK LINK ===
    0x1b1c
=== CODE BLOCK END ===

=== CODE BLOCK ADDRESS 0x1b1c ===
  0x1b1c	int3   	
  0x1b1d	int3   	
  0x1b1e	int3   	
  0x1b1f	int3   	
  0x1b20	int3   	
  === BLOCK LINK ===
    0x1b21
=== CODE BLOCK END ===

=== CODE BLOCK ADDRESS 0x1b21 ===
  0x1b21	int3   	
  0x1b22	int3   	
  0x1b23	int3   	
  0x1b24	int3   	
  0x1b25	int3   	
  === BLOCK LINK ===
    0x1b26
=== CODE BLOCK END ===

=== CODE BLOCK ADDRESS 0x1b26 ===
  0x1b26	nop    	word ptr [eax + eax]
  0x1b30	dec    	eax
  0x1b31	sub    	esp, 0x10
  0x1b34	dec    	esp
  0x1b35	mov    	dword ptr [esp], edx
  === BLOCK LINK ===
    0x1b38
=== CODE BLOCK END ===

=== CODE BLOCK ADDRESS 0x1b38 ===
  0x1b38	dec    	esp
  0x1b39	mov    	dword ptr [esp + 8], ebx
  0x1b3d	dec    	ebp
  0x1b3e	xor    	ebx, ebx
  0x1b40	dec    	esp
  === BLOCK LINK ===
    0x1b41
=== CODE BLOCK END ===

=== CODE BLOCK ADDRESS 0x1b41 ===
  0x1b41	lea    	edx, [esp + 0x18]
  0x1b45	dec    	esp
  0x1b46	sub    	edx, eax
  0x1b48	dec    	ebp
  0x1b49	cmovb  	edx, ebx
  === BLOCK LINK ===
    0x1b4c
=== CODE BLOCK END ===

=== CODE BLOCK ADDRESS 0x1b4c ===
  0x1b4c	dec    	esp
  0x1b4e	mov    	ebx, dword ptr [0x10]
  0x1b55	dec    	ebp
  0x1b56	cmp    	edx, ebx
  0x1b58	jae    	0x1b6f
  === BLOCK LINK ===
    0x1b5a
=== CODE BLOCK END ===

=== CODE BLOCK ADDRESS 0x1b5a ===
  0x1b5a	inc    	cx
  0x1b5c	and    	edx, 0x8d4df000
  0x1b62	wait   	
  0x1b63	add    	al, dh
  0x1b65	.byte  	0xff
  === BLOCK LINK ===
    0x1b66
=== CODE BLOCK END ===

=== CODE BLOCK ADDRESS 0x1b66 ===
  0x1b66	inc    	dword ptr [ebp - 0x7c]
  0x1b69	sbb    	ecx, dword ptr [ebp + 0x3b]
  0x1b6c	sal    	dword ptr [edx - 0xf], cl
  0x1b6f	dec    	esp
  0x1b70	mov    	edx, dword ptr [esp]
  === BLOCK LINK ===
    0x1b73
=== CODE BLOCK END ===

=== CODE BLOCK ADDRESS 0x1b73 ===
  0x1b73	dec    	esp
  0x1b74	mov    	ebx, dword ptr [esp + 8]
  0x1b78	dec    	eax
  0x1b79	add    	esp, 0x10
  0x1b7c	ret    	
  === BLOCK LINK ===
    0x1b7d
=== CODE BLOCK END ===

=== CODE BLOCK ADDRESS 0x1b7d ===
  0x1b7d	int3   	
  0x1b7e	int3   	
  0x1b7f	int3   	
  0x1b80	int3   	
  0x1b81	int3   	
  === BLOCK LINK ===
    0x1b82
=== CODE BLOCK END ===

=== CODE BLOCK ADDRESS 0x1b82 ===
  0x1b82	int3   	
  0x1b83	inc    	eax
  0x1b84	push   	ebp
  0x1b85	dec    	eax
  0x1b86	sub    	esp, 0x20
  === BLOCK LINK ===
    0x1b89
=== CODE BLOCK END ===

=== CODE BLOCK ADDRESS 0x1b89 ===
  0x1b89	dec    	eax
  0x1b8a	mov    	ebp, edx
  0x1b8c	dec    	eax
  0x1b8d	mov    	eax, dword ptr [ecx]
  0x1b8f	dec    	eax
  === BLOCK LINK ===
    0x1b90
=== CODE BLOCK END ===

=== CODE BLOCK ADDRESS 0x1b90 ===
  0x1b90	mov    	edx, ecx
  0x1b92	mov    	ecx, dword ptr [eax]
  0x1b94	call   	0x15de
  === BLOCK LINK ===
    0x1b99
=== CODE BLOCK END ===

=== CODE BLOCK ADDRESS 0x1b99 ===
  0x1b99	nop    	
  0x1b9a	dec    	eax
  0x1b9b	add    	esp, 0x20
  0x1b9e	pop    	ebp
  0x1b9f	ret    	
  === BLOCK LINK ===
    0x1ba0
=== CODE BLOCK END ===

=== CODE BLOCK ADDRESS 0x1794 ===
  0x1794	dec    	eax
  0x1795	mov    	dword ptr [esp + 0x20], ebx
  0x1799	push   	ebp
  0x179a	dec    	eax
  === BLOCK LINK ===
    0x179b
=== CODE BLOCK END ===

=== CODE BLOCK ADDRESS 0x1ba0 ===
  0x1ba0	int3   	
  0x1ba1	int3   	
  0x1ba2	int3   	
  0x1ba3	int3   	
  0x1ba4	int3   	
  === BLOCK LINK ===
    0x1ba5
=== CODE BLOCK END ===

=== CODE BLOCK ADDRESS 0x1ba5 ===
  0x1ba5	int3   	
  0x1ba6	int3   	
  0x1ba7	int3   	
  0x1ba8	int3   	
  0x1ba9	int3   	
  === BLOCK LINK ===
    0x1baa
=== CODE BLOCK END ===

=== CODE BLOCK ADDRESS 0x1baa ===
  0x1baa	int3   	
  0x1bab	int3   	
  0x1bac	int3   	
  0x1bad	int3   	
  0x1bae	int3   	
  === BLOCK LINK ===
    0x1baf
=== CODE BLOCK END ===

=== CODE BLOCK ADDRESS 0x1baf ===
  0x1baf	int3   	
  0x1bb0	inc    	eax
  0x1bb1	push   	ebp
  0x1bb2	dec    	eax
  0x1bb3	sub    	esp, 0x20
  === BLOCK LINK ===
    0x1bb6
=== CODE BLOCK END ===

=== CODE BLOCK ADDRESS 0x1bb6 ===
  0x1bb6	dec    	eax
  0x1bb7	mov    	ebp, edx
  0x1bb9	dec    	eax
  0x1bba	mov    	eax, dword ptr [ecx]
  0x1bbc	xor    	ecx, ecx
  === BLOCK LINK ===
    0x1bbe
=== CODE BLOCK END ===

=== CODE BLOCK ADDRESS 0x1bbe ===
  0x1bbe	cmp    	dword ptr [eax], 0xc0000005
  0x1bc4	sete   	cl
  0x1bc7	mov    	eax, ecx
  0x1bc9	dec    	eax
  0x1bca	add    	esp, 0x20
  === BLOCK LINK ===
    0x1bcd
=== CODE BLOCK END ===

=== CODE BLOCK ADDRESS 0x1bcd ===
  0x1bcd	pop    	ebp
  0x1bce	ret    	
  0x1bcf	int3   	
  0x1bd0	add    	byte ptr [eax], al
  0x1bd2	add    	byte ptr [eax], al
  === BLOCK LINK ===
    0x1bd4
=== CODE BLOCK END ===

=== CODE BLOCK ADDRESS 0x12f8 ===
  0x12f8	dec    	eax
  0x12f9	mov    	dword ptr [esp + 8], ebx
  0x12fd	dec    	eax
  0x12fe	mov    	dword ptr [esp + 0x10], edi
  === BLOCK LINK ===
    0x1302
=== CODE BLOCK END ===

=== CODE BLOCK ADDRESS 0x1bd4 ===
  0x1bd4	add    	byte ptr [eax], al
  0x1bd6	add    	byte ptr [eax], al
  0x1bd8	add    	byte ptr [eax], al
  0x1bda	add    	byte ptr [eax], al
  0x1bdc	add    	byte ptr [eax], al
  === BLOCK LINK ===
    0x1bde
=== CODE BLOCK END ===

=== CODE BLOCK ADDRESS 0x1bde ===
  0x1bde	add    	byte ptr [eax], al
  0x1be0	add    	byte ptr [eax], al
  0x1be2	add    	byte ptr [eax], al
  0x1be4	add    	byte ptr [eax], al
  0x1be6	add    	byte ptr [eax], al
  === BLOCK LINK ===
    0x1be8
=== CODE BLOCK END ===

=== CODE BLOCK ADDRESS 0x1be8 ===
  0x1be8	add    	byte ptr [eax], al
  0x1bea	add    	byte ptr [eax], al
  0x1bec	add    	byte ptr [eax], al
  0x1bee	add    	byte ptr [eax], al
  0x1bf0	add    	byte ptr [eax], al
  === BLOCK LINK ===
    0x1bf2
=== CODE BLOCK END ===

=== CODE BLOCK ADDRESS 0x1bf2 ===
  0x1bf2	add    	byte ptr [eax], al
  0x1bf4	add    	byte ptr [eax], al
  0x1bf6	add    	byte ptr [eax], al
  0x1bf8	add    	byte ptr [eax], al
  0x1bfa	add    	byte ptr [eax], al
  === BLOCK LINK ===
    0x1bfc
=== CODE BLOCK END ===

=== CODE BLOCK ADDRESS 0x1bfc ===
  0x1bfc	add    	byte ptr [eax], al
=== CODE BLOCK END ===

=== DATA BLOCK ADDRESS 0x2000 ===
  0x2000	60 30 00 40 01 00 00 00 00 31 00 40 01 00 00 00 	`00@0000010@0000
  0x2010	18 01 00 00 00 00 00 00 00 00 00 00 00 00 00 00 	0000000000000000
  0x2020	00 00 00 00 00 00 00 00 00 00 00 00 00 00 00 00 	0000000000000000
  0x2030	00 00 00 00 00 00 00 00 00 00 00 00 00 00 00 00 	0000000000000000
  0x2040	00 00 00 00 00 00 00 00 00 00 00 00 00 00 00 00 	0000000000000000
  0x2050	00 00 00 00 00 00 00 00 00 00 00 00 00 00 00 00 	0000000000000000
  0x2060	00 00 00 00 00 00 00 00 08 30 00 40 01 00 00 00 	00000000000@0000
  0x2070	00 00 00 00 00 00 00 00 00 00 00 00 00 00 00 00 	0000000000000000
  0x2080	50 22 00 40 01 00 00 00 58 22 00 40 01 00 00 00 	P"0@0000X"0@0000
  0x2090	98 22 00 40 01 00 00 00 08 00 00 00 00 00 00 00 	0"0@000000000000
  0x20a0	00 75 01 00 00 00 00 00 00 00 00 00 00 00 00 00 	0u00000000000000
  0x20b0	00 00 00 00 00 00 00 00 00 00 00 00 00 00 00 00 	0000000000000000
  0x20c0	00 00 00 00 00 00 00 00 00 00 00 00 00 00 00 00 	0000000000000000
  0x20d0	00 00 00 00 00 00 00 00 00 00 00 00 00 00 00 00 	0000000000000000
  0x20e0	00 00 00 00 00 00 00 00 00 00 00 00 00 00 00 00 	0000000000000000
  0x20f0	00 00 00 00 00 00 00 00 00 00 00 00 00 00 00 00 	0000000000000000
  0x2100	00 00 00 00 00 00 00 00 00 00 00 00 00 00 00 00 	0000000000000000
  0x2110	00 00 00 00 00 00 00 00 00 00 00 00 00 00 00 00 	0000000000000000
  0x2120	00 00 00 00 00 00 00 00 90 28 00 00 00 00 00 00 	000000000(000000
  0x2130	00 00 00 00 00 00 00 00 ae 28 00 00 00 00 00 00 	000000000(000000
  0x2140	bc 28 00 00 00 00 00 00 b8 2a 00 00 00 00 00 00 	0(0000000*000000
  0x2150	a4 2a 00 00 00 00 00 00 8a 2a 00 00 00 00 00 00 	0*0000000*000000
  0x2160	76 2a 00 00 00 00 00 00 66 2a 00 00 00 00 00 00 	v*000000f*000000
  0x2170	4c 2a 00 00 00 00 00 00 36 2a 00 00 00 00 00 00 	L*0000006*000000
  0x2180	20 2a 00 00 00 00 00 00 06 2a 00 00 00 00 00 00 	 *0000000*000000
  0x2190	f2 29 00 00 00 00 00 00 d4 29 00 00 00 00 00 00 	0)0000000)000000
  0x21a0	c2 29 00 00 00 00 00 00 ba 29 00 00 00 00 00 00 	0)0000000)000000
  0x21b0	e8 2a 00 00 00 00 00 00 d4 2a 00 00 00 00 00 00 	0*0000000*000000
  0x21c0	00 00 00 00 00 00 00 00 84 29 00 00 00 00 00 00 	000000000)000000
  0x21d0	7a 29 00 00 00 00 00 00 62 29 00 00 00 00 00 00 	z)000000b)000000
  0x21e0	56 29 00 00 00 00 00 00 42 29 00 00 00 00 00 00 	V)000000B)000000
  0x21f0	34 29 00 00 00 00 00 00 2a 29 00 00 00 00 00 00 	4)000000*)000000
  0x2200	22 29 00 00 00 00 00 00 1a 29 00 00 00 00 00 00 	")0000000)000000
  0x2210	08 29 00 00 00 00 00 00 f8 28 00 00 00 00 00 00 	0)0000000(000000
  0x2220	ea 28 00 00 00 00 00 00 dc 28 00 00 00 00 00 00 	0(0000000(000000
  0x2230	8e 29 00 00 00 00 00 00 9a 29 00 00 00 00 00 00 	0)0000000)000000
  0x2240	fc 2a 00 00 00 00 00 00 00 00 00 00 00 00 00 00 	0*00000000000000
  0x2250	90 18 00 40 01 00 00 00 10 1b 00 40 01 00 00 00 	000@0000000@0000
  0x2260	00 00 00 00 00 00 00 00 90 12 00 40 01 00 00 00 	00000000000@0000
  0x2270	00 00 00 00 00 00 00 00 00 00 00 00 00 00 00 00 	0000000000000000
  0x2280	b0 11 00 40 01 00 00 00 c0 15 00 40 01 00 00 00 	000@0000000@0000
  0x2290	00 00 00 00 00 00 00 00 b0 11 00 00 90 12 00 00 	0000000000000000
  0x22a0	e0 12 00 00 80 15 00 00 c0 15 00 00 a0 16 00 00 	0000000000000000
  0x22b0	90 18 00 00 e0 18 00 00 00 00 00 00 00 00 00 00 	0000000000000000
  0x22c0	50 00 61 00 74 00 68 00 00 00 00 00 00 00 00 00 	P0a0t0h000000000
  0x22d0	53 00 4f 00 46 00 54 00 57 00 41 00 52 00 45 00 	S0O0F0T0W0A0R0E0
  0x22e0	5c 00 4d 00 69 00 63 00 72 00 6f 00 73 00 6f 00 	00M0i0c0r0o0s0o0
  0x22f0	66 00 74 00 5c 00 57 00 69 00 6e 00 64 00 6f 00 	f0t000W0i0n0d0o0
  0x2300	77 00 73 00 5c 00 43 00 75 00 72 00 72 00 65 00 	w0s000C0u0r0r0e0
  0x2310	6e 00 74 00 56 00 65 00 72 00 73 00 69 00 6f 00 	n0t0V0e0r0s0i0o0
  0x2320	6e 00 5c 00 41 00 70 00 70 00 20 00 50 00 61 00 	n000A0p0p0 0P0a0
  0x2330	74 00 68 00 73 00 5c 00 77 00 6d 00 70 00 6c 00 	t0h0s000w0m0p0l0
  0x2340	61 00 79 00 65 00 72 00 2e 00 65 00 78 00 65 00 	a0y0e0r0.0e0x0e0
  0x2350	00 00 00 00 00 00 00 00 2e 00 65 00 78 00 65 00 	00000000.0e0x0e0
  0x2360	00 00 00 00 00 00 00 00 77 00 6d 00 70 00 6c 00 	00000000w0m0p0l0
  0x2370	61 00 79 00 65 00 72 00 00 00 00 00 00 00 00 00 	a0y0e0r000000000
  0x2380	20 00 2f 00 64 00 65 00 76 00 69 00 63 00 65 00 	 0/0d0e0v0i0c0e0
  0x2390	3a 00 64 00 76 00 64 00 00 00 00 00 00 00 00 00 	:0d0v0d000000000
  0x23a0	00 00 00 00 69 e1 cb cc 00 00 00 00 02 00 00 00 	0000i00000000000
  0x23b0	24 00 00 00 f4 23 00 00 f4 13 00 00 00 00 00 00 	$0000#0000000000
  0x23c0	69 e1 cb cc 00 00 00 00 0d 00 00 00 f0 01 00 00 	i000000000000000
  0x23d0	18 24 00 00 18 14 00 00 00 00 00 00 69 e1 cb cc 	0$0000000000i000
  0x23e0	00 00 00 00 10 00 00 00 24 00 00 00 08 26 00 00 	00000000$0000&00
  0x23f0	08 16 00 00 52 53 44 53 42 b7 b8 ce db e0 dc 8f 	0000RSDSB0000000
  0x2400	28 a2 8b ce da ce c4 7b 01 00 00 00 64 76 64 70 	(000000{0000dvdp
  0x2410	6c 61 79 2e 70 64 62 00 47 43 54 4c 00 10 00 00 	lay.pdb0GCTL0000
  0x2420	00 0b 00 00 2e 74 65 78 74 24 6d 6e 00 00 00 00 	0000.text$mn0000
  0x2430	00 1b 00 00 80 00 00 00 2e 74 65 78 74 24 6d 6e 	00000000.text$mn
  0x2440	24 30 30 00 80 1b 00 00 50 00 00 00 2e 74 65 78 	$0000000P000.tex
  0x2450	74 24 78 00 00 20 00 00 28 01 00 00 2e 72 64 61 	t$x00 00(000.rda
  0x2460	74 61 24 62 72 63 00 00 28 21 00 00 28 01 00 00 	ta$brc00(!00(000
  0x2470	2e 69 64 61 74 61 24 35 00 00 00 00 50 22 00 00 	.idata$50000P"00
  0x2480	10 00 00 00 2e 30 30 63 66 67 00 00 60 22 00 00 	0000.00cfg00`"00
  0x2490	08 00 00 00 2e 43 52 54 24 58 43 41 00 00 00 00 	0000.CRT$XCA0000
  0x24a0	68 22 00 00 08 00 00 00 2e 43 52 54 24 58 43 41 	h"000000.CRT$XCA
  0x24b0	41 00 00 00 70 22 00 00 08 00 00 00 2e 43 52 54 	A000p"000000.CRT
  0x24c0	24 58 43 5a 00 00 00 00 78 22 00 00 08 00 00 00 	$XCZ0000x"000000
  0x24d0	2e 43 52 54 24 58 49 41 00 00 00 00 80 22 00 00 	.CRT$XIA00000"00
  0x24e0	08 00 00 00 2e 43 52 54 24 58 49 41 41 00 00 00 	0000.CRT$XIAA000
  0x24f0	88 22 00 00 08 00 00 00 2e 43 52 54 24 58 49 59 	0"000000.CRT$XIY
  0x2500	00 00 00 00 90 22 00 00 08 00 00 00 2e 43 52 54 	00000"000000.CRT
  0x2510	24 58 49 5a 00 00 00 00 98 22 00 00 28 00 00 00 	$XIZ00000"00(000
  0x2520	2e 67 66 69 64 73 00 00 c0 22 00 00 34 01 00 00 	.gfids000"004000
  0x2530	2e 72 64 61 74 61 00 00 f4 23 00 00 3c 02 00 00 	.rdata000#00<000
  0x2540	2e 72 64 61 74 61 24 7a 7a 7a 64 62 67 00 00 00 	.rdata$zzzdbg000
  0x2550	30 26 00 00 e4 00 00 00 2e 78 64 61 74 61 00 00 	0&000000.xdata00
  0x2560	14 27 00 00 3c 00 00 00 2e 69 64 61 74 61 24 32 	0'00<000.idata$2
  0x2570	00 00 00 00 50 27 00 00 18 00 00 00 2e 69 64 61 	0000P'000000.ida
  0x2580	74 61 24 33 00 00 00 00 68 27 00 00 28 01 00 00 	ta$30000h'00(000
  0x2590	2e 69 64 61 74 61 24 34 00 00 00 00 90 28 00 00 	.idata$400000(00
  0x25a0	76 02 00 00 2e 69 64 61 74 61 24 36 00 00 00 00 	v000.idata$60000
  0x25b0	00 30 00 00 20 00 00 00 2e 64 61 74 61 00 00 00 	0000 000.data000
  0x25c0	20 30 00 00 58 06 00 00 2e 62 73 73 00 00 00 00 	 000X000.bss0000
  0x25d0	00 40 00 00 f0 00 00 00 2e 70 64 61 74 61 00 00 	0@000000.pdata00
  0x25e0	00 50 00 00 60 01 00 00 2e 72 73 72 63 24 30 31 	0P00`000.rsrc$01
  0x25f0	00 00 00 00 60 51 00 00 88 0a 00 00 2e 72 73 72 	0000`Q000000.rsr
  0x2600	63 24 30 32 00 00 00 00 20 00 00 00 42 b7 b8 ce 	c$020000 000B000
  0x2610	db e0 dc 8f 28 a2 8b ce da ce c4 7b e9 13 54 d9 	0000(000000{00T0
  0x2620	70 ad ba ea 8c a1 bc 44 69 e1 cb cc 00 00 00 00 	p000000Di0000000
  0x2630	19 2c 05 00 1b 34 26 02 1b 01 24 02 06 50 00 00 	0,0004&000$00P00
  0x2640	68 1a 00 00 10 11 00 00 01 04 01 00 04 42 00 00 	h000000000000B00
  0x2650	01 04 01 00 04 62 00 00 09 13 07 00 13 74 19 00 	00000b0000000t00
  0x2660	13 34 18 00 13 01 16 00 0c e0 00 00 7a 18 00 00 	040000000000z000
  0x2670	01 00 00 00 1c 13 00 00 f7 14 00 00 83 1b 00 00 	0000000000000000
  0x2680	f7 14 00 00 01 06 02 00 06 32 02 50 00 00 00 00 	00000000020P0000
  0x2690	01 00 00 00 09 04 01 00 04 22 00 00 7a 18 00 00 	000000000"00z000
  0x26a0	01 00 00 00 fc 15 00 00 32 16 00 00 01 00 00 00 	0000000020000000
  0x26b0	32 16 00 00 01 06 02 00 06 32 02 30 09 0a 04 00 	2000000002000000
  0x26c0	0a 34 06 00 0a 32 06 70 7a 18 00 00 01 00 00 00 	0400020pz0000000
  0x26d0	0d 17 00 00 40 17 00 00 b0 1b 00 00 40 17 00 00 	0000@0000000@000
  0x26e0	01 0d 04 00 0d 34 09 00 0d 32 06 50 01 0c 02 00 	00000400020P0000
  0x26f0	0c 01 11 00 00 00 00 00 01 00 00 00 01 02 01 00 	0000000000000000
  0x2700	02 30 00 00 00 00 00 00 02 04 03 00 01 16 00 06 	0000000000000000
  0x2710	04 12 00 00 68 27 00 00 00 00 00 00 00 00 00 00 	0000h'0000000000
  0x2720	a0 28 00 00 28 21 00 00 78 27 00 00 00 00 00 00 	0(00(!00x'000000
  0x2730	00 00 00 00 ce 28 00 00 38 21 00 00 08 28 00 00 	00000(008!000(00
  0x2740	00 00 00 00 00 00 00 00 ae 29 00 00 c8 21 00 00 	000000000)000!00
  0x2750	00 00 00 00 00 00 00 00 00 00 00 00 00 00 00 00 	0000000000000000
  0x2760	00 00 00 00 00 00 00 00 90 28 00 00 00 00 00 00 	000000000(000000
  0x2770	00 00 00 00 00 00 00 00 ae 28 00 00 00 00 00 00 	000000000(000000
  0x2780	bc 28 00 00 00 00 00 00 b8 2a 00 00 00 00 00 00 	0(0000000*000000
  0x2790	a4 2a 00 00 00 00 00 00 8a 2a 00 00 00 00 00 00 	0*0000000*000000
  0x27a0	76 2a 00 00 00 00 00 00 66 2a 00 00 00 00 00 00 	v*000000f*000000
  0x27b0	4c 2a 00 00 00 00 00 00 36 2a 00 00 00 00 00 00 	L*0000006*000000
  0x27c0	20 2a 00 00 00 00 00 00 06 2a 00 00 00 00 00 00 	 *0000000*000000
  0x27d0	f2 29 00 00 00 00 00 00 d4 29 00 00 00 00 00 00 	0)0000000)000000
  0x27e0	c2 29 00 00 00 00 00 00 ba 29 00 00 00 00 00 00 	0)0000000)000000
  0x27f0	e8 2a 00 00 00 00 00 00 d4 2a 00 00 00 00 00 00 	0*0000000*000000
  0x2800	00 00 00 00 00 00 00 00 84 29 00 00 00 00 00 00 	000000000)000000
  0x2810	7a 29 00 00 00 00 00 00 62 29 00 00 00 00 00 00 	z)000000b)000000
  0x2820	56 29 00 00 00 00 00 00 42 29 00 00 00 00 00 00 	V)000000B)000000
  0x2830	34 29 00 00 00 00 00 00 2a 29 00 00 00 00 00 00 	4)000000*)000000
  0x2840	22 29 00 00 00 00 00 00 1a 29 00 00 00 00 00 00 	")0000000)000000
  0x2850	08 29 00 00 00 00 00 00 f8 28 00 00 00 00 00 00 	0)0000000(000000
  0x2860	ea 28 00 00 00 00 00 00 dc 28 00 00 00 00 00 00 	0(0000000(000000
  0x2870	8e 29 00 00 00 00 00 00 9a 29 00 00 00 00 00 00 	0)0000000)000000
  0x2880	fc 2a 00 00 00 00 00 00 00 00 00 00 00 00 00 00 	0*00000000000000
  0x2890	81 02 52 65 67 47 65 74 56 61 6c 75 65 57 00 00 	00RegGetValueW00
  0x28a0	41 44 56 41 50 49 33 32 2e 64 6c 6c 00 00 e7 04 	ADVAPI32.dll0000
  0x28b0	53 65 61 72 63 68 50 61 74 68 57 00 e7 00 43 72 	SearchPathW000Cr
  0x28c0	65 61 74 65 50 72 6f 63 65 73 73 57 00 00 4b 45 	eateProcessW00KE
  0x28d0	52 4e 45 4c 33 32 2e 64 6c 6c 00 00 55 00 5f 58 	RNEL32.dll00U0_X
  0x28e0	63 70 74 46 69 6c 74 65 72 00 ae 00 5f 61 6d 73 	cptFilter000_ams
  0x28f0	67 5f 65 78 69 74 00 00 7f 00 5f 5f 67 65 74 6d 	g_exit0000__getm
  0x2900	61 69 6e 61 72 67 73 00 8e 00 5f 5f 73 65 74 5f 	ainargs000__set_
  0x2910	61 70 70 5f 74 79 70 65 00 00 32 04 65 78 69 74 	app_type0020exit
  0x2920	00 00 0e 01 5f 65 78 69 74 00 c1 00 5f 63 65 78 	0000_exit000_cex
  0x2930	69 74 00 00 99 01 5f 69 73 6d 62 62 6c 65 61 64 	it0000_ismbblead
  0x2940	00 00 90 00 5f 5f 73 65 74 75 73 65 72 6d 61 74 	0000__setusermat
  0x2950	68 65 72 72 00 00 7d 01 5f 69 6e 69 74 74 65 72 	herr00}0_initter
  0x2960	6d 00 57 00 5f 5f 43 5f 73 70 65 63 69 66 69 63 	m0W0__C_specific
  0x2970	5f 68 61 6e 64 6c 65 72 00 00 a2 00 5f 61 63 6d 	_handler0000_acm
  0x2980	64 6c 6e 00 27 01 5f 66 6d 6f 64 65 00 00 d2 00 	dln0'0_fmode0000
  0x2990	5f 63 6f 6d 6d 6f 64 65 00 00 2f 00 3f 74 65 72 	_commode00/0?ter
  0x29a0	6d 69 6e 61 74 65 40 40 59 41 58 58 5a 00 6d 73 	minate@@YAXXZ0ms
  0x29b0	76 63 72 74 2e 64 6c 6c 00 00 8d 05 53 6c 65 65 	vcrt.dll0000Slee
  0x29c0	70 00 d9 02 47 65 74 53 74 61 72 74 75 70 49 6e 	p000GetStartupIn
  0x29d0	66 6f 57 00 7d 05 53 65 74 55 6e 68 61 6e 64 6c 	foW0}0SetUnhandl
  0x29e0	65 64 45 78 63 65 70 74 69 6f 6e 46 69 6c 74 65 	edExceptionFilte
  0x29f0	72 00 80 02 47 65 74 4d 6f 64 75 6c 65 48 61 6e 	r000GetModuleHan
  0x2a00	64 6c 65 57 00 00 51 04 51 75 65 72 79 50 65 72 	dleW00Q0QueryPer
  0x2a10	66 6f 72 6d 61 6e 63 65 43 6f 75 6e 74 65 72 00 	formanceCounter0
  0x2a20	20 02 47 65 74 43 75 72 72 65 6e 74 50 72 6f 63 	 0GetCurrentProc
  0x2a30	65 73 73 49 64 00 24 02 47 65 74 43 75 72 72 65 	essId0$0GetCurre
  0x2a40	6e 74 54 68 72 65 61 64 49 64 00 00 f2 02 47 65 	ntThreadId0000Ge
  0x2a50	74 53 79 73 74 65 6d 54 69 6d 65 41 73 46 69 6c 	tSystemTimeAsFil
  0x2a60	65 54 69 6d 65 00 10 03 47 65 74 54 69 63 6b 43 	eTime000GetTickC
  0x2a70	6f 75 6e 74 00 00 d4 04 52 74 6c 43 61 70 74 75 	ount0000RtlCaptu
  0x2a80	72 65 43 6f 6e 74 65 78 74 00 db 04 52 74 6c 4c 	reContext000RtlL
  0x2a90	6f 6f 6b 75 70 46 75 6e 63 74 69 6f 6e 45 6e 74 	ookupFunctionEnt
  0x2aa0	72 79 00 00 e2 04 52 74 6c 56 69 72 74 75 61 6c 	ry0000RtlVirtual
  0x2ab0	55 6e 77 69 6e 64 00 00 be 05 55 6e 68 61 6e 64 	Unwind0000Unhand
  0x2ac0	6c 65 64 45 78 63 65 70 74 69 6f 6e 46 69 6c 74 	ledExceptionFilt
  0x2ad0	65 72 00 00 1f 02 47 65 74 43 75 72 72 65 6e 74 	er0000GetCurrent
  0x2ae0	50 72 6f 63 65 73 73 00 9c 05 54 65 72 6d 69 6e 	Process000Termin
  0x2af0	61 74 65 50 72 6f 63 65 73 73 00 00 96 04 6d 65 	ateProcess0000me
  0x2b00	6d 73 65 74 00 00 00 00 00 00 00 00 00 00 00 00 	mset000000000000
  0x2b10	00 00 00 00 00 00 00 00 00 00 00 00 00 00 00 00 	0000000000000000
  0x2b20	00 00 00 00 00 00 00 00 00 00 00 00 00 00 00 00 	0000000000000000
  0x2b30	00 00 00 00 00 00 00 00 00 00 00 00 00 00 00 00 	0000000000000000
  0x2b40	00 00 00 00 00 00 00 00 00 00 00 00 00 00 00 00 	0000000000000000
  0x2b50	00 00 00 00 00 00 00 00 00 00 00 00 00 00 00 00 	0000000000000000
  0x2b60	00 00 00 00 00 00 00 00 00 00 00 00 00 00 00 00 	0000000000000000
  0x2b70	00 00 00 00 00 00 00 00 00 00 00 00 00 00 00 00 	0000000000000000
  0x2b80	00 00 00 00 00 00 00 00 00 00 00 00 00 00 00 00 	0000000000000000
  0x2b90	00 00 00 00 00 00 00 00 00 00 00 00 00 00 00 00 	0000000000000000
  0x2ba0	00 00 00 00 00 00 00 00 00 00 00 00 00 00 00 00 	0000000000000000
  0x2bb0	00 00 00 00 00 00 00 00 00 00 00 00 00 00 00 00 	0000000000000000
  0x2bc0	00 00 00 00 00 00 00 00 00 00 00 00 00 00 00 00 	0000000000000000
  0x2bd0	00 00 00 00 00 00 00 00 00 00 00 00 00 00 00 00 	0000000000000000
  0x2be0	00 00 00 00 00 00 00 00 00 00 00 00 00 00 00 00 	0000000000000000
  0x2bf0	00 00 00 00 00 00 00 00 00 00 00 00 00 00 00 00 	0000000000000000
=== DATA BLOCK END ===

=== DATA BLOCK ADDRESS 0x3000 ===
  0x3000	01 00 00 00 00 00 00 00 32 a2 df 2d 99 2b 00 00 	00000000200-0+00
  0x3010	cd 5d 20 d2 66 d4 ff ff 00 00 00 00 00 00 00 00 	0] 0f00000000000
  0x3020	00 00 00 00 00 00 00 00 00 00 00 00 00 00 00 00 	0000000000000000
  0x3030	00 00 00 00 00 00 00 00 00 00 00 00 00 00 00 00 	0000000000000000
  0x3040	00 00 00 00 00 00 00 00 00 00 00 00 00 00 00 00 	0000000000000000
  0x3050	00 00 00 00 00 00 00 00 00 00 00 00 00 00 00 00 	0000000000000000
  0x3060	00 00 00 00 00 00 00 00 00 00 00 00 00 00 00 00 	0000000000000000
  0x3070	00 00 00 00 00 00 00 00 00 00 00 00 00 00 00 00 	0000000000000000
  0x3080	00 00 00 00 00 00 00 00 00 00 00 00 00 00 00 00 	0000000000000000
  0x3090	00 00 00 00 00 00 00 00 00 00 00 00 00 00 00 00 	0000000000000000
  0x30a0	00 00 00 00 00 00 00 00 00 00 00 00 00 00 00 00 	0000000000000000
  0x30b0	00 00 00 00 00 00 00 00 00 00 00 00 00 00 00 00 	0000000000000000
  0x30c0	00 00 00 00 00 00 00 00 00 00 00 00 00 00 00 00 	0000000000000000
  0x30d0	00 00 00 00 00 00 00 00 00 00 00 00 00 00 00 00 	0000000000000000
  0x30e0	00 00 00 00 00 00 00 00 00 00 00 00 00 00 00 00 	0000000000000000
  0x30f0	00 00 00 00 00 00 00 00 00 00 00 00 00 00 00 00 	0000000000000000
  0x3100	00 00 00 00 00 00 00 00 00 00 00 00 00 00 00 00 	0000000000000000
  0x3110	00 00 00 00 00 00 00 00 00 00 00 00 00 00 00 00 	0000000000000000
  0x3120	00 00 00 00 00 00 00 00 00 00 00 00 00 00 00 00 	0000000000000000
  0x3130	00 00 00 00 00 00 00 00 00 00 00 00 00 00 00 00 	0000000000000000
  0x3140	00 00 00 00 00 00 00 00 00 00 00 00 00 00 00 00 	0000000000000000
  0x3150	00 00 00 00 00 00 00 00 00 00 00 00 00 00 00 00 	0000000000000000
  0x3160	00 00 00 00 00 00 00 00 00 00 00 00 00 00 00 00 	0000000000000000
  0x3170	00 00 00 00 00 00 00 00 00 00 00 00 00 00 00 00 	0000000000000000
  0x3180	00 00 00 00 00 00 00 00 00 00 00 00 00 00 00 00 	0000000000000000
  0x3190	00 00 00 00 00 00 00 00 00 00 00 00 00 00 00 00 	0000000000000000
  0x31a0	00 00 00 00 00 00 00 00 00 00 00 00 00 00 00 00 	0000000000000000
  0x31b0	00 00 00 00 00 00 00 00 00 00 00 00 00 00 00 00 	0000000000000000
  0x31c0	00 00 00 00 00 00 00 00 00 00 00 00 00 00 00 00 	0000000000000000
  0x31d0	00 00 00 00 00 00 00 00 00 00 00 00 00 00 00 00 	0000000000000000
  0x31e0	00 00 00 00 00 00 00 00 00 00 00 00 00 00 00 00 	0000000000000000
  0x31f0	00 00 00 00 00 00 00 00 00 00 00 00 00 00 00 00 	0000000000000000
=== DATA BLOCK END ===

=== DATA BLOCK ADDRESS 0x4000 ===
  0x4000	08 10 00 00 a8 11 00 00 30 26 00 00 b0 11 00 00 	000000000&000000
  0x4010	83 12 00 00 48 26 00 00 90 12 00 00 d9 12 00 00 	0000H&0000000000
  0x4020	50 26 00 00 e0 12 00 00 f2 12 00 00 48 26 00 00 	P&0000000000H&00
  0x4030	f8 12 00 00 3a 15 00 00 58 26 00 00 50 15 00 00 	0000:000X&00P000
  0x4040	6e 15 00 00 90 26 00 00 80 15 00 00 b9 15 00 00 	n0000&0000000000
  0x4050	48 26 00 00 c0 15 00 00 d8 15 00 00 48 26 00 00 	H&0000000000H&00
  0x4060	ec 15 00 00 40 16 00 00 94 26 00 00 48 16 00 00 	0000@0000&00H000
  0x4070	8d 16 00 00 b4 26 00 00 00 17 00 00 4d 17 00 00 	00000&000000M000
  0x4080	bc 26 00 00 94 17 00 00 68 18 00 00 e0 26 00 00 	0&000000h0000&00
  0x4090	9c 18 00 00 d0 18 00 00 b4 26 00 00 e0 18 00 00 	000000000&000000
  0x40a0	51 1a 00 00 ec 26 00 00 68 1a 00 00 85 1a 00 00 	Q0000&00h0000000
  0x40b0	48 26 00 00 8c 1a 00 00 e7 1a 00 00 fc 26 00 00 	H&00000000000&00
  0x40c0	10 1b 00 00 12 1b 00 00 f8 26 00 00 30 1b 00 00 	000000000&000000
  0x40d0	7d 1b 00 00 08 27 00 00 83 1b 00 00 a1 1b 00 00 	}0000'0000000000
  0x40e0	84 26 00 00 b0 1b 00 00 d0 1b 00 00 84 26 00 00 	0&00000000000&00
  0x40f0	00 00 00 00 00 00 00 00 00 00 00 00 00 00 00 00 	0000000000000000
  0x4100	00 00 00 00 00 00 00 00 00 00 00 00 00 00 00 00 	0000000000000000
  0x4110	00 00 00 00 00 00 00 00 00 00 00 00 00 00 00 00 	0000000000000000
  0x4120	00 00 00 00 00 00 00 00 00 00 00 00 00 00 00 00 	0000000000000000
  0x4130	00 00 00 00 00 00 00 00 00 00 00 00 00 00 00 00 	0000000000000000
  0x4140	00 00 00 00 00 00 00 00 00 00 00 00 00 00 00 00 	0000000000000000
  0x4150	00 00 00 00 00 00 00 00 00 00 00 00 00 00 00 00 	0000000000000000
  0x4160	00 00 00 00 00 00 00 00 00 00 00 00 00 00 00 00 	0000000000000000
  0x4170	00 00 00 00 00 00 00 00 00 00 00 00 00 00 00 00 	0000000000000000
  0x4180	00 00 00 00 00 00 00 00 00 00 00 00 00 00 00 00 	0000000000000000
  0x4190	00 00 00 00 00 00 00 00 00 00 00 00 00 00 00 00 	0000000000000000
  0x41a0	00 00 00 00 00 00 00 00 00 00 00 00 00 00 00 00 	0000000000000000
  0x41b0	00 00 00 00 00 00 00 00 00 00 00 00 00 00 00 00 	0000000000000000
  0x41c0	00 00 00 00 00 00 00 00 00 00 00 00 00 00 00 00 	0000000000000000
  0x41d0	00 00 00 00 00 00 00 00 00 00 00 00 00 00 00 00 	0000000000000000
  0x41e0	00 00 00 00 00 00 00 00 00 00 00 00 00 00 00 00 	0000000000000000
  0x41f0	00 00 00 00 00 00 00 00 00 00 00 00 00 00 00 00 	0000000000000000
=== DATA BLOCK END ===
