===== Assembly blocks =====

=== CODE BLOCK ADDRESS 0x1000 ===
  0x1000	int3   	
  0x1001	int3   	
  0x1002	int3   	
  0x1003	int3   	
  0x1004	int3   	
  === BLOCK LINK ===
    0x1005
=== CODE BLOCK END ===

=== CODE BLOCK ADDRESS 0x1005 ===
  0x1005	int3   	
  0x1006	int3   	
  0x1007	int3   	
  0x1008	dec    	eax
  0x1009	sub    	esp, 0x28
  === BLOCK LINK ===
    0x100c
=== CODE BLOCK END ===

=== CODE BLOCK ADDRESS 0x100c ===
  0x100c	mov    	ecx, 1
  0x1011	call   	0x29e8
  === BLOCK LINK ===
    0x1016
    0x29e8
=== CODE BLOCK END ===

=== CODE BLOCK ADDRESS 0x1016 ===
  0x1016	dec    	eax
  0x1017	mov    	ecx, eax
  0x1019	mov    	edx, 0x69d9
  0x101e	dec    	eax
  0x101f	add    	esp, 0x28
  === BLOCK LINK ===
    0x1022
=== CODE BLOCK END ===

=== CODE BLOCK ADDRESS 0x1022 ===
  0x1022	jmp    	0x2118
  === BLOCK LINK ===
    0x1027
    0x2118
=== CODE BLOCK END ===

=== CODE BLOCK ADDRESS 0x1027 ===
  0x1027	int3   	
  0x1028	int3   	
  0x1029	int3   	
  0x102a	int3   	
  0x102b	int3   	
  === BLOCK LINK ===
    0x102c
=== CODE BLOCK END ===

=== CODE BLOCK ADDRESS 0x102c ===
  0x102c	int3   	
  0x102d	int3   	
  0x102e	int3   	
  0x102f	int3   	
  0x1030	dec    	eax
  === BLOCK LINK ===
    0x1031
=== CODE BLOCK END ===

=== CODE BLOCK ADDRESS 0x1031 ===
  0x1031	mov    	dword ptr [esp + 0x18], ebx
  0x1035	push   	ebp
  0x1036	push   	esi
  0x1037	push   	edi
  0x1038	inc    	ecx
  === BLOCK LINK ===
    0x1039
=== CODE BLOCK END ===

=== CODE BLOCK ADDRESS 0x1039 ===
  0x1039	push   	esp
  0x103a	inc    	ecx
  0x103b	push   	ebp
  0x103c	inc    	ecx
  0x103d	push   	esi
  === BLOCK LINK ===
    0x103e
=== CODE BLOCK END ===

=== CODE BLOCK ADDRESS 0x103e ===
  0x103e	inc    	ecx
  0x103f	push   	edi
  0x1040	dec    	eax
  0x1041	lea    	ebp, [esp - 0x3a0]
  0x1048	dec    	eax
  === BLOCK LINK ===
    0x1049
=== CODE BLOCK END ===

=== CODE BLOCK ADDRESS 0x1049 ===
  0x1049	sub    	esp, 0x4a0
  0x104f	dec    	eax
  0x1050	mov    	eax, dword ptr [0x3fb2]
  0x1056	dec    	eax
  0x1057	xor    	eax, esp
  === BLOCK LINK ===
    0x1059
=== CODE BLOCK END ===

=== CODE BLOCK ADDRESS 0x1059 ===
  0x1059	dec    	eax
  0x105a	mov    	dword ptr [ebp + 0x390], eax
  0x1060	inc    	esp
  0x1061	mov    	ebp, ecx
  0x1063	mov    	dword ptr [esp + 0x30], edx
  === BLOCK LINK ===
    0x1067
=== CODE BLOCK END ===

=== CODE BLOCK ADDRESS 0x1067 ===
  0x1067	mov    	ecx, 0x400
  0x106c	dec    	ecx
  0x106d	mov    	ebx, ecx
  0x106f	inc    	ebp
  0x1070	mov    	edi, eax
  === BLOCK LINK ===
    0x1072
=== CODE BLOCK END ===

=== CODE BLOCK ADDRESS 0x1072 ===
  0x1072	dec    	eax
  0x1073	call   	dword ptr [0x22ff]
  === BLOCK LINK ===
    0x1079
=== CODE BLOCK END ===

=== CODE BLOCK ADDRESS 0x1079 ===
  0x1079	nop    	dword ptr [eax + eax]
  0x107e	dec    	eax
  0x107f	mov    	edi, eax
  0x1081	dec    	eax
  0x1082	test   	eax, eax
  === BLOCK LINK ===
    0x1084
=== CODE BLOCK END ===

=== CODE BLOCK ADDRESS 0x1084 ===
  0x1084	jne    	0x1091
  === BLOCK LINK ===
    0x1086
    0x1091
=== CODE BLOCK END ===

=== CODE BLOCK ADDRESS 0x1086 ===
  0x1086	mov    	dword ptr [ebx], 0x69d2
  0x108c	jmp    	0x131b
  === BLOCK LINK ===
    0x1091
    0x131b
=== CODE BLOCK END ===

=== CODE BLOCK ADDRESS 0x1091 ===
  0x1091	mov    	eax, dword ptr [0x45bd]
  0x1097	test   	eax, eax
  0x1099	jne    	0x10bb
  === BLOCK LINK ===
    0x109b
    0x10bb
=== CODE BLOCK END ===

=== CODE BLOCK ADDRESS 0x109b ===
  0x109b	xor    	edx, edx
  0x109d	dec    	eax
  0x109e	lea    	ecx, [ebp + 0x190]
  0x10a4	inc    	ecx
  0x10a5	mov    	eax, 0x200
  === BLOCK LINK ===
    0x10aa
=== CODE BLOCK END ===

=== CODE BLOCK ADDRESS 0x10aa ===
  0x10aa	call   	0x2a9d
  === BLOCK LINK ===
    0x10af
    0x2a9d
=== CODE BLOCK END ===

=== CODE BLOCK ADDRESS 0x10af ===
  0x10af	dec    	eax
  0x10b0	lea    	ecx, [ebp + 0x190]
  0x10b6	call   	0x1b94
  === BLOCK LINK ===
    0x10bb
    0x1b94
=== CODE BLOCK END ===

=== CODE BLOCK ADDRESS 0x10bb ===
  0x10bb	cmp    	eax, -1
  0x10be	jne    	0x10cb
  === BLOCK LINK ===
    0x10c0
    0x10cb
=== CODE BLOCK END ===

=== CODE BLOCK ADDRESS 0x10c0 ===
  0x10c0	mov    	dword ptr [ebx], 0x697e
  0x10c6	jmp    	0x1300
  === BLOCK LINK ===
    0x10cb
    0x1300
=== CODE BLOCK END ===

=== CODE BLOCK ADDRESS 0x10cb ===
  0x10cb	mov    	ecx, eax
  0x10cd	call   	0x1bf8
  === BLOCK LINK ===
    0x10d2
    0x1bf8
=== CODE BLOCK END ===

=== CODE BLOCK ADDRESS 0x10d2 ===
  0x10d2	dec    	eax
  0x10d3	mov    	dword ptr [0x4dd7], eax
  0x10d9	inc    	ebp
  0x10da	test   	edi, edi
  0x10dc	js     	0x12fa
  === BLOCK LINK ===
    0x10e2
    0x12fa
=== CODE BLOCK END ===

=== CODE BLOCK ADDRESS 0x10e2 ===
  0x10e2	mov    	ecx, 2
  === BLOCK LINK ===
    0x10e7
=== CODE BLOCK END ===

=== CODE BLOCK ADDRESS 0x10f2 ===
  0x10f2	inc    	ecx
  0x10f3	cmp    	esi, esi
  0x10f5	inc    	esp
  0x10f6	lea    	esp, [eax + 2]
  0x10f9	inc    	esp
  === BLOCK LINK ===
    0x10fa
=== CODE BLOCK END ===

=== CODE BLOCK ADDRESS 0x10fa ===
  0x10fa	cmove  	esp, eax
  === BLOCK LINK ===
    0x10fd
=== CODE BLOCK END ===

=== CODE BLOCK ADDRESS 0x1113 ===
  0x1113	inc    	esp
  0x1114	mov    	dword ptr [esp + 0x5c], ebp
  0x1118	mov    	byte ptr [ebp + 0x180], 0x13
  0x111f	inc    	esp
  0x1120	mov    	byte ptr [ebp + 0x181], ah
  === BLOCK LINK ===
    0x1126
=== CODE BLOCK END ===

=== CODE BLOCK ADDRESS 0x1126 ===
  0x1126	dec    	eax
  0x1127	call   	dword ptr [0x2053]
  === BLOCK LINK ===
    0x112d
=== CODE BLOCK END ===

=== CODE BLOCK ADDRESS 0x112d ===
  0x112d	nop    	dword ptr [eax + eax]
  0x1132	inc    	ecx
  0x1133	mov    	edx, 8
  0x1138	mov    	dword ptr [ebp + 0x184], eax
  0x113e	inc    	ecx
  === BLOCK LINK ===
    0x113f
=== CODE BLOCK END ===

=== CODE BLOCK ADDRESS 0x113f ===
  0x113f	mov    	ecx, edx
  0x1141	dec    	esp
  0x1142	lea    	eax, [ebp + 0x180]
  0x1148	xor    	edx, edx
  0x114a	inc    	ecx
  === BLOCK LINK ===
    0x114b
=== CODE BLOCK END ===

=== CODE BLOCK ADDRESS 0x114b ===
  0x114b	movzx  	eax, word ptr [eax]
  0x114e	add    	ecx, -2
  0x1151	add    	edx, eax
  0x1153	dec    	ebp
  0x1154	lea    	eax, [eax + 2]
  === BLOCK LINK ===
    0x1157
=== CODE BLOCK END ===

=== CODE BLOCK ADDRESS 0x1157 ===
  0x1157	cmp    	ecx, 1
  0x115a	ja     	0x114a
  === BLOCK LINK ===
    0x115c
    0x114a
=== CODE BLOCK END ===

=== CODE BLOCK ADDRESS 0x115c ===
  0x115c	test   	ecx, ecx
  0x115e	je     	0x1166
  === BLOCK LINK ===
    0x1160
    0x1166
=== CODE BLOCK END ===

=== CODE BLOCK ADDRESS 0x1160 ===
  0x1160	inc    	ecx
  0x1161	movzx  	eax, byte ptr [eax]
  0x1164	add    	edx, eax
  === BLOCK LINK ===
    0x1166
=== CODE BLOCK END ===

=== CODE BLOCK ADDRESS 0x116b ===
  0x116b	shr    	ecx, 0x10
  0x116e	dec    	eax
  0x116f	lea    	edx, [ebp + 0x180]
  0x1175	add    	ecx, eax
  0x1177	mov    	dword ptr [esp + 0x28], 0x10
  === BLOCK LINK ===
    0x117f
=== CODE BLOCK END ===

=== CODE BLOCK ADDRESS 0x117f ===
  0x117f	mov    	eax, ecx
  0x1181	inc    	ebp
  0x1182	xor    	ecx, ecx
  0x1184	shr    	eax, 0x10
  0x1187	inc    	ebp
  === BLOCK LINK ===
    0x1188
=== CODE BLOCK END ===

=== CODE BLOCK ADDRESS 0x1188 ===
  0x1188	mov    	eax, edx
  0x118a	add    	ax, cx
  0x118d	dec    	eax
  0x118e	mov    	ecx, dword ptr [0x4d1c]
  0x1194	not    	ax
  === BLOCK LINK ===
    0x1197
=== CODE BLOCK END ===

=== CODE BLOCK ADDRESS 0x1197 ===
  0x1197	mov    	word ptr [ebp + 0x182], ax
  0x119e	dec    	eax
  0x119f	lea    	eax, [esp + 0x58]
  0x11a3	dec    	eax
  0x11a4	mov    	dword ptr [esp + 0x20], eax
  === BLOCK LINK ===
    0x11a8
=== CODE BLOCK END ===

=== CODE BLOCK ADDRESS 0x11a8 ===
  0x11a8	dec    	eax
  0x11a9	call   	dword ptr [0x1fd9]
  === BLOCK LINK ===
    0x11af
=== CODE BLOCK END ===

=== CODE BLOCK ADDRESS 0x11af ===
  0x11af	nop    	dword ptr [eax + eax]
  0x11b4	cmp    	eax, -1
  0x11b7	je     	0x1358
  === BLOCK LINK ===
    0x11bd
    0x1358
=== CODE BLOCK END ===

=== CODE BLOCK ADDRESS 0x11bd ===
  0x11bd	test   	eax, eax
  0x11bf	je     	0x136f
  === BLOCK LINK ===
    0x11c5
    0x136f
=== CODE BLOCK END ===

=== CODE BLOCK ADDRESS 0x11c5 ===
  0x11c5	dec    	eax
  0x11c6	mov    	eax, dword ptr [0x4ce4]
  0x11cc	dec    	eax
  0x11cd	lea    	edx, [esp + 0x70]
  0x11d1	and    	dword ptr [esp + 0x44], 0
  === BLOCK LINK ===
    0x11d6
=== CODE BLOCK END ===

=== CODE BLOCK ADDRESS 0x11d6 ===
  0x11d6	inc    	ebp
  0x11d7	xor    	ecx, ecx
  0x11d9	dec    	eax
  0x11da	mov    	dword ptr [esp + 0x78], eax
  0x11de	inc    	ebp
  === BLOCK LINK ===
    0x11df
=== CODE BLOCK END ===

=== CODE BLOCK ADDRESS 0x11df ===
  0x11df	xor    	eax, eax
  0x11e1	mov    	eax, dword ptr [esp + 0x30]
  0x11e5	mov    	dword ptr [esp + 0x40], eax
  0x11e9	dec    	eax
  0x11ea	lea    	eax, [esp + 0x40]
  === BLOCK LINK ===
    0x11ee
=== CODE BLOCK END ===

=== CODE BLOCK ADDRESS 0x11ee ===
  0x11ee	inc    	ecx
  0x11ef	lea    	ecx, [ecx + 1]
  0x11f2	dec    	eax
  0x11f3	mov    	dword ptr [esp + 0x20], eax
  0x11f7	mov    	dword ptr [esp + 0x70], 1
  === BLOCK LINK ===
    0x11ff
=== CODE BLOCK END ===

=== CODE BLOCK ADDRESS 0x11ff ===
  0x11ff	dec    	eax
  0x1200	call   	dword ptr [0x1f62]
  === BLOCK LINK ===
    0x1206
=== CODE BLOCK END ===

=== CODE BLOCK ADDRESS 0x1206 ===
  0x1206	nop    	dword ptr [eax + eax]
  0x120b	cmp    	eax, -1
  0x120e	je     	0x1350
  === BLOCK LINK ===
    0x1214
    0x1350
=== CODE BLOCK END ===

=== CODE BLOCK ADDRESS 0x1214 ===
  0x1214	test   	eax, eax
  0x1216	je     	0x12d4
  === BLOCK LINK ===
    0x121c
    0x12d4
=== CODE BLOCK END ===

=== CODE BLOCK ADDRESS 0x121c ===
  0x121c	dec    	eax
  0x121d	mov    	ecx, dword ptr [0x4c8d]
  0x1223	dec    	eax
  0x1224	lea    	eax, [esp + 0x34]
  0x1228	dec    	eax
  === BLOCK LINK ===
    0x1229
=== CODE BLOCK END ===

=== CODE BLOCK ADDRESS 0x1229 ===
  0x1229	mov    	dword ptr [esp + 0x28], eax
  0x122d	inc    	ebp
  0x122e	xor    	ecx, ecx
  0x1230	dec    	eax
  0x1231	lea    	eax, [esp + 0x48]
  === BLOCK LINK ===
    0x1235
=== CODE BLOCK END ===

=== CODE BLOCK ADDRESS 0x1235 ===
  0x1235	mov    	dword ptr [esp + 0x34], 0x10
  0x123d	inc    	ecx
  0x123e	mov    	eax, 0x400
  0x1243	dec    	eax
  0x1244	mov    	dword ptr [esp + 0x20], eax
  === BLOCK LINK ===
    0x1248
=== CODE BLOCK END ===

=== CODE BLOCK ADDRESS 0x1248 ===
  0x1248	dec    	eax
  0x1249	mov    	edx, edi
  0x124b	dec    	eax
  0x124c	call   	dword ptr [0x1f26]
  === BLOCK LINK ===
    0x1252
=== CODE BLOCK END ===

=== CODE BLOCK ADDRESS 0x1252 ===
  0x1252	nop    	dword ptr [eax + eax]
  0x1257	cmp    	eax, -1
  0x125a	je     	0x1348
  === BLOCK LINK ===
    0x1260
    0x1348
=== CODE BLOCK END ===

=== CODE BLOCK ADDRESS 0x1260 ===
  0x1260	mov    	eax, dword ptr [edi]
  0x1262	and    	eax, 0xf
  0x1265	shl    	eax, 2
  0x1268	cmp    	esi, 2
  0x126b	jne    	0x1278
  === BLOCK LINK ===
    0x126d
    0x1278
=== CODE BLOCK END ===

=== CODE BLOCK ADDRESS 0x126d ===
  0x126d	cmp    	byte ptr [eax + edi + 1], 6
  0x1272	jne    	0x11c5
  === BLOCK LINK ===
    0x1278
    0x11c5
=== CODE BLOCK END ===

=== CODE BLOCK ADDRESS 0x1278 ===
  0x1278	cmp    	esi, 1
  0x127b	jne    	0x1288
  === BLOCK LINK ===
    0x127d
    0x1288
=== CODE BLOCK END ===

=== CODE BLOCK ADDRESS 0x127d ===
  0x127d	cmp    	byte ptr [eax + edi + 1], 4
  0x1282	jne    	0x11c5
  === BLOCK LINK ===
    0x1288
    0x11c5
=== CODE BLOCK END ===

=== CODE BLOCK ADDRESS 0x1288 ===
  0x1288	mov    	eax, dword ptr [esp + 0x4c]
  0x128c	inc    	ecx
  0x128d	cmp    	eax, ebp
  0x128f	je     	0x136f
  === BLOCK LINK ===
    0x1295
    0x136f
=== CODE BLOCK END ===

=== CODE BLOCK ADDRESS 0x1295 ===
  0x1295	dec    	eax
  0x1296	lea    	edx, [0x4bcc]
  0x129c	mov    	dword ptr [esp + 0x38], eax
  0x12a0	dec    	eax
  0x12a1	lea    	ecx, [esp + 0x38]
  === BLOCK LINK ===
    0x12a5
=== CODE BLOCK END ===

=== CODE BLOCK ADDRESS 0x12a5 ===
  0x12a5	dec    	eax
  0x12a6	call   	dword ptr [0x20fc]
  === BLOCK LINK ===
    0x12ac
=== CODE BLOCK END ===

=== CODE BLOCK ADDRESS 0x12ac ===
  0x12ac	nop    	dword ptr [eax + eax]
  0x12b1	mov    	ecx, 1
  0x12b6	call   	0x29e8
  === BLOCK LINK ===
    0x12bb
    0x29e8
=== CODE BLOCK END ===

=== CODE BLOCK ADDRESS 0x12bb ===
  0x12bb	dec    	eax
  0x12bc	mov    	ecx, eax
  0x12be	dec    	esp
  0x12bf	lea    	eax, [0x4ba3]
  0x12c5	mov    	edx, 0x6988
  === BLOCK LINK ===
    0x12ca
=== CODE BLOCK END ===

=== CODE BLOCK ADDRESS 0x12ca ===
  0x12ca	call   	0x2118
  === BLOCK LINK ===
    0x12cf
    0x2118
=== CODE BLOCK END ===

=== CODE BLOCK ADDRESS 0x12cf ===
  0x12cf	jmp    	0x11c5
  === BLOCK LINK ===
    0x12d4
    0x11c5
=== CODE BLOCK END ===

=== CODE BLOCK ADDRESS 0x12d4 ===
  0x12d4	inc    	ecx
  0x12d5	inc    	esi
  0x12d7	mov    	ecx, 2
  0x12dc	inc    	esp
  0x12dd	cmp    	esi, ecx
  === BLOCK LINK ===
    0x12df
=== CODE BLOCK END ===

=== CODE BLOCK ADDRESS 0x12df ===
  0x12df	jle    	0x10fd
  === BLOCK LINK ===
    0x12e5
    0x10fd
=== CODE BLOCK END ===

=== CODE BLOCK ADDRESS 0x12e5 ===
  0x12e5	dec    	esi
  0x12e7	cmp    	esi, 1
  0x12ea	jge    	0x10e9
  === BLOCK LINK ===
    0x12f0
    0x10e9
=== CODE BLOCK END ===

=== CODE BLOCK ADDRESS 0x12f0 ===
  0x12f0	inc    	ecx
  0x12f1	sub    	edi, 1
  0x12f4	jns    	0x10e7
  === BLOCK LINK ===
    0x12fa
    0x10e7
=== CODE BLOCK END ===

=== CODE BLOCK ADDRESS 0x12fa ===
  0x12fa	mov    	dword ptr [ebx], 0x6985
  === BLOCK LINK ===
    0x1300
=== CODE BLOCK END ===

=== CODE BLOCK ADDRESS 0x130a ===
  0x130a	nop    	dword ptr [eax + eax]
  0x130f	dec    	eax
  0x1310	call   	dword ptr [0x1e3a]
  === BLOCK LINK ===
    0x1316
=== CODE BLOCK END ===

=== CODE BLOCK ADDRESS 0x1316 ===
  0x1316	nop    	dword ptr [eax + eax]
  === BLOCK LINK ===
    0x131b
=== CODE BLOCK END ===

=== CODE BLOCK ADDRESS 0x1325 ===
  0x1325	xor    	ecx, esp
  0x1327	call   	0x24d0
  === BLOCK LINK ===
    0x132c
    0x24d0
=== CODE BLOCK END ===

=== CODE BLOCK ADDRESS 0x132c ===
  0x132c	dec    	eax
  0x132d	mov    	ebx, dword ptr [esp + 0x4f0]
  0x1334	dec    	eax
  0x1335	add    	esp, 0x4a0
  0x133b	inc    	ecx
  === BLOCK LINK ===
    0x133c
=== CODE BLOCK END ===

=== CODE BLOCK ADDRESS 0x133c ===
  0x133c	pop    	edi
  0x133d	inc    	ecx
  0x133e	pop    	esi
  0x133f	inc    	ecx
  0x1340	pop    	ebp
  === BLOCK LINK ===
    0x1341
=== CODE BLOCK END ===

=== CODE BLOCK ADDRESS 0x1341 ===
  0x1341	inc    	ecx
  0x1342	pop    	esp
  0x1343	pop    	edi
  0x1344	pop    	esi
  0x1345	pop    	ebp
  === BLOCK LINK ===
    0x1346
=== CODE BLOCK END ===

=== CODE BLOCK ADDRESS 0x1346 ===
  0x1346	ret    	
  0x1347	int3   	
  === BLOCK LINK ===
    0x1348
    0x1300
=== CODE BLOCK END ===

=== CODE BLOCK ADDRESS 0x29e8 ===
=== CODE BLOCK END ===

=== CODE BLOCK ADDRESS 0x1350 ===
  0x1350	mov    	dword ptr [ebx], 0x697b
  0x1356	jmp    	0x1300
  === BLOCK LINK ===
    0x1358
=== CODE BLOCK END ===

=== CODE BLOCK ADDRESS 0x1358 ===
  0x1358	mov    	ecx, 1
  0x135d	call   	0x29e8
  === BLOCK LINK ===
    0x1362
=== CODE BLOCK END ===

=== CODE BLOCK ADDRESS 0x1362 ===
  0x1362	dec    	eax
  0x1363	mov    	ecx, eax
  0x1365	mov    	edx, 0x697a
  0x136a	call   	0x2118
  === BLOCK LINK ===
    0x136f
=== CODE BLOCK END ===

=== CODE BLOCK ADDRESS 0x136f ===
  0x136f	dec    	eax
  0x1370	call   	dword ptr [0x1dda]
  === BLOCK LINK ===
    0x1376
=== CODE BLOCK END ===

=== CODE BLOCK ADDRESS 0x1376 ===
  0x1376	nop    	dword ptr [eax + eax]
  0x137b	dec    	eax
  0x137c	mov    	eax, edi
  0x137e	jmp    	0x131d
  === BLOCK LINK ===
    0x1380
=== CODE BLOCK END ===

=== CODE BLOCK ADDRESS 0x1380 ===
  0x1380	int3   	
  0x1381	int3   	
  0x1382	int3   	
  0x1383	int3   	
  0x1384	int3   	
  === BLOCK LINK ===
    0x1385
=== CODE BLOCK END ===

=== CODE BLOCK ADDRESS 0x1385 ===
  0x1385	int3   	
  0x1386	int3   	
  0x1387	int3   	
  0x1388	inc    	eax
  0x1389	push   	ebx
  === BLOCK LINK ===
    0x138a
=== CODE BLOCK END ===

=== CODE BLOCK ADDRESS 0x138a ===
  0x138a	dec    	eax
  0x138b	sub    	esp, 0x60
  0x138e	dec    	eax
  0x138f	mov    	eax, dword ptr [0x3c73]
  0x1395	dec    	eax
  === BLOCK LINK ===
    0x1396
=== CODE BLOCK END ===

=== CODE BLOCK ADDRESS 0x1396 ===
  0x1396	xor    	eax, esp
  0x1398	dec    	eax
  0x1399	mov    	dword ptr [esp + 0x58], eax
  0x139d	mov    	ebx, ecx
  0x139f	test   	ecx, ecx
  === BLOCK LINK ===
    0x13a1
=== CODE BLOCK END ===

=== CODE BLOCK ADDRESS 0x13a1 ===
  0x13a1	jne    	0x13ac
  === BLOCK LINK ===
    0x13a3
=== CODE BLOCK END ===

=== CODE BLOCK ADDRESS 0x13a3 ===
  0x13a3	dec    	eax
  0x13a4	lea    	eax, [0x2076]
  0x13aa	jmp    	0x1424
  === BLOCK LINK ===
    0x13ac
=== CODE BLOCK END ===

=== CODE BLOCK ADDRESS 0x13ac ===
  0x13ac	cmp    	dword ptr [0x429d], 0
  0x13b3	jne    	0x1401
  === BLOCK LINK ===
    0x13b5
=== CODE BLOCK END ===

=== CODE BLOCK ADDRESS 0x13b5 ===
  0x13b5	and    	dword ptr [esp + 0x30], 0
  0x13ba	dec    	esp
  0x13bb	lea    	eax, [0x429f]
  0x13c1	and    	dword ptr [esp + 0x28], 0
  0x13c6	dec    	eax
  === BLOCK LINK ===
    0x13c7
=== CODE BLOCK END ===

=== CODE BLOCK ADDRESS 0x13c7 ===
  0x13c7	lea    	ecx, [esp + 0x48]
  0x13cb	dec    	eax
  0x13cc	and    	dword ptr [esp + 0x20], 0
  0x13d1	mov    	eax, 2
  0x13d6	inc    	ecx
  === BLOCK LINK ===
    0x13d7
=== CODE BLOCK END ===

=== CODE BLOCK ADDRESS 0x13d7 ===
  0x13d7	mov    	ecx, 0x401
  0x13dc	mov    	word ptr [esp + 0x48], ax
  0x13e1	mov    	dword ptr [esp + 0x4c], ebx
  0x13e5	lea    	edx, [eax + 0xe]
  0x13e8	dec    	eax
  === BLOCK LINK ===
    0x13e9
=== CODE BLOCK END ===

=== CODE BLOCK ADDRESS 0x13e9 ===
  0x13e9	call   	dword ptr [0x1d69]
  === BLOCK LINK ===
    0x13ef
=== CODE BLOCK END ===

=== CODE BLOCK ADDRESS 0x13ef ===
  0x13ef	nop    	dword ptr [eax + eax]
  0x13f4	test   	eax, eax
  0x13f6	jne    	0x1401
  === BLOCK LINK ===
    0x13f8
=== CODE BLOCK END ===

=== CODE BLOCK ADDRESS 0x13f8 ===
  0x13f8	dec    	eax
  0x13f9	lea    	eax, [0x4261]
  0x13ff	jmp    	0x1424
  === BLOCK LINK ===
    0x1401
=== CODE BLOCK END ===

=== CODE BLOCK ADDRESS 0x1401 ===
  0x1401	dec    	eax
  0x1402	lea    	edx, [0x4a60]
  0x1408	mov    	dword ptr [esp + 0x40], ebx
  0x140c	dec    	eax
  0x140d	lea    	ecx, [esp + 0x40]
  === BLOCK LINK ===
    0x1411
=== CODE BLOCK END ===

=== CODE BLOCK ADDRESS 0x1411 ===
  0x1411	dec    	eax
  0x1412	call   	dword ptr [0x1f90]
  === BLOCK LINK ===
    0x1418
=== CODE BLOCK END ===

=== CODE BLOCK ADDRESS 0x1418 ===
  0x1418	nop    	dword ptr [eax + eax]
  0x141d	dec    	eax
  0x141e	lea    	eax, [0x4a44]
  0x1424	dec    	eax
  0x1425	mov    	ecx, dword ptr [esp + 0x58]
  === BLOCK LINK ===
    0x1429
=== CODE BLOCK END ===

=== CODE BLOCK ADDRESS 0x1429 ===
  0x1429	dec    	eax
  0x142a	xor    	ecx, esp
  0x142c	call   	0x24d0
  === BLOCK LINK ===
    0x1431
=== CODE BLOCK END ===

=== CODE BLOCK ADDRESS 0x1431 ===
  0x1431	dec    	eax
  0x1432	add    	esp, 0x60
  0x1435	pop    	ebx
  0x1436	ret    	
  0x1437	int3   	
  === BLOCK LINK ===
    0x1438
=== CODE BLOCK END ===

=== CODE BLOCK ADDRESS 0x2118 ===
=== CODE BLOCK END ===

=== CODE BLOCK ADDRESS 0x1438 ===
  0x1438	int3   	
  0x1439	int3   	
  0x143a	int3   	
  0x143b	int3   	
  0x143c	int3   	
  === BLOCK LINK ===
    0x143d
=== CODE BLOCK END ===

=== CODE BLOCK ADDRESS 0x143d ===
  0x143d	int3   	
  0x143e	int3   	
  0x143f	int3   	
  0x1440	dec    	eax
  0x1441	mov    	eax, esp
  === BLOCK LINK ===
    0x1443
=== CODE BLOCK END ===

=== CODE BLOCK ADDRESS 0x1443 ===
  0x1443	push   	ebx
  0x1444	push   	ebp
  0x1445	push   	esi
  0x1446	push   	edi
  0x1447	inc    	ecx
  === BLOCK LINK ===
    0x1448
=== CODE BLOCK END ===

=== CODE BLOCK ADDRESS 0x1448 ===
  0x1448	push   	esp
  0x1449	inc    	ecx
  0x144a	push   	ebp
  0x144b	inc    	ecx
  0x144c	push   	esi
  === BLOCK LINK ===
    0x144d
=== CODE BLOCK END ===

=== CODE BLOCK ADDRESS 0x144d ===
  0x144d	inc    	ecx
  0x144e	push   	edi
  0x144f	dec    	eax
  0x1450	sub    	esp, 0x38
  0x1453	mov    	ebx, dword ptr [ecx + 0xc]
  === BLOCK LINK ===
    0x1456
=== CODE BLOCK END ===

=== CODE BLOCK ADDRESS 0x1456 ===
  0x1456	dec    	eax
  0x1457	lea    	edx, [0x4a0b]
  0x145d	dec    	eax
  0x145e	mov    	esi, ecx
  0x1460	mov    	dword ptr [eax + 8], ebx
  === BLOCK LINK ===
    0x1463
=== CODE BLOCK END ===

=== CODE BLOCK ADDRESS 0x1463 ===
  0x1463	dec    	eax
  0x1464	lea    	ecx, [eax + 8]
  0x1467	dec    	eax
  0x1468	call   	dword ptr [0x1f3a]
  === BLOCK LINK ===
    0x146e
=== CODE BLOCK END ===

=== CODE BLOCK ADDRESS 0x146e ===
  0x146e	nop    	dword ptr [eax + eax]
  0x1473	dec    	eax
  0x1474	lea    	ecx, [0x4a46]
  0x147a	call   	0x1ce8
  === BLOCK LINK ===
    0x147f
=== CODE BLOCK END ===

=== CODE BLOCK ADDRESS 0x147f ===
  0x147f	mov    	ecx, ebx
  0x1481	dec    	eax
  0x1482	mov    	edi, eax
  0x1484	call   	0x1388
  === BLOCK LINK ===
    0x1489
=== CODE BLOCK END ===

=== CODE BLOCK ADDRESS 0x1489 ===
  0x1489	inc    	ecx
  0x148a	mov    	ebp, 1
  0x148f	dec    	eax
  0x1490	mov    	ebx, eax
  0x1492	inc    	ecx
  === BLOCK LINK ===
    0x1493
=== CODE BLOCK END ===

=== CODE BLOCK ADDRESS 0x1493 ===
  0x1493	mov    	ecx, ebp
  0x1495	call   	0x29e8
  === BLOCK LINK ===
    0x149a
=== CODE BLOCK END ===

=== CODE BLOCK ADDRESS 0x149a ===
  0x149a	dec    	eax
  0x149b	mov    	ecx, eax
  0x149d	dec    	esp
  0x149e	mov    	ecx, ebx
  0x14a0	dec    	esp
  === BLOCK LINK ===
    0x14a1
=== CODE BLOCK END ===

=== CODE BLOCK ADDRESS 0x14a1 ===
  0x14a1	mov    	eax, edi
  0x14a3	mov    	edx, 0x69a0
  0x14a8	call   	0x2118
  === BLOCK LINK ===
    0x14ad
=== CODE BLOCK END ===

=== CODE BLOCK ADDRESS 0x14ad ===
  0x14ad	inc    	esp
  0x14ae	mov    	esi, dword ptr [esi]
  0x14b0	inc    	ecx
  0x14b1	mov    	ecx, ebp
  0x14b3	inc    	ecx
  === BLOCK LINK ===
    0x14b4
=== CODE BLOCK END ===

=== CODE BLOCK ADDRESS 0x14b4 ===
  0x14b4	and    	esi, 0xf
  0x14b7	inc    	ecx
  0x14b8	shl    	esi, 2
  0x14bb	dec    	esp
  0x14bc	add    	esi, esi
  === BLOCK LINK ===
    0x14be
=== CODE BLOCK END ===

=== CODE BLOCK ADDRESS 0x14be ===
  0x14be	inc    	ebp
  0x14bf	mov    	bh, byte ptr [esi + 1]
  0x14c2	inc    	ecx
  0x14c3	movzx  	ebx, byte ptr [esi + 6]
  0x14c7	inc    	ecx
  === BLOCK LINK ===
    0x14c8
=== CODE BLOCK END ===

=== CODE BLOCK ADDRESS 0x14c8 ===
  0x14c8	movzx  	edi, byte ptr [esi + 7]
  0x14cc	inc    	esp
  0x14cd	mov    	byte ptr [esp + 0x80], bh
  0x14d4	call   	0x29e8
  === BLOCK LINK ===
    0x14d9
=== CODE BLOCK END ===

=== CODE BLOCK ADDRESS 0x14d9 ===
  0x14d9	dec    	eax
  0x14da	mov    	ecx, eax
  0x14dc	inc    	esp
  0x14dd	mov    	ecx, ebx
  0x14df	inc    	esp
  === BLOCK LINK ===
    0x14e0
=== CODE BLOCK END ===

=== CODE BLOCK ADDRESS 0x14e0 ===
  0x14e0	mov    	eax, edi
  0x14e2	mov    	edx, 0x69a2
  0x14e7	call   	0x2118
  === BLOCK LINK ===
    0x14ec
=== CODE BLOCK END ===

=== CODE BLOCK ADDRESS 0x14ec ===
  0x14ec	mov    	al, byte ptr [0x3b6e]
  0x14f2	dec    	esp
  0x14f3	lea    	esp, [0xffffeb07]
  0x14f9	inc    	ecx
  0x14fa	mov    	ch, byte ptr [esi + 5]
  === BLOCK LINK ===
    0x14fd
=== CODE BLOCK END ===

=== CODE BLOCK ADDRESS 0x14fd ===
  0x14fd	test   	al, al
  0x14ff	je     	0x1538
  === BLOCK LINK ===
    0x1501
=== CODE BLOCK END ===

=== CODE BLOCK ADDRESS 0x1501 ===
  0x1501	xor    	ebx, ebx
  0x1503	xor    	edi, edi
  0x1505	inc    	eax
  0x1506	test   	ch, al
  0x1508	je     	0x1522
  === BLOCK LINK ===
    0x150a
=== CODE BLOCK END ===

=== CODE BLOCK ADDRESS 0x150a ===
  0x150a	inc    	ecx
  0x150b	mov    	ecx, ebp
  0x150d	call   	0x29e8
  === BLOCK LINK ===
    0x1512
=== CODE BLOCK END ===

=== CODE BLOCK ADDRESS 0x1512 ===
  0x1512	inc    	edx
  0x1513	mov    	edx, dword ptr [edi + 0x5064]
  0x151a	dec    	eax
  0x151b	mov    	ecx, eax
  0x151d	call   	0x2118
  === BLOCK LINK ===
    0x1522
=== CODE BLOCK END ===

=== CODE BLOCK ADDRESS 0x1522 ===
  0x1522	dec    	ecx
  0x1523	add    	ebx, ebp
  0x1525	dec    	eax
  0x1526	mov    	edi, ebx
  0x1528	dec    	eax
  === BLOCK LINK ===
    0x1529
=== CODE BLOCK END ===

=== CODE BLOCK ADDRESS 0x1529 ===
  0x1529	shl    	edi, 3
  0x152c	inc    	edx
  0x152d	mov    	al, byte ptr [edi + 0x5060]
  0x1534	test   	al, al
  0x1536	jne    	0x1505
  === BLOCK LINK ===
    0x1538
=== CODE BLOCK END ===

=== CODE BLOCK ADDRESS 0x1538 ===
  0x1538	inc    	ecx
  0x1539	mov    	ecx, ebp
  0x153b	call   	0x29e8
  === BLOCK LINK ===
    0x1540
=== CODE BLOCK END ===

=== CODE BLOCK ADDRESS 0x1540 ===
  0x1540	dec    	eax
  0x1541	mov    	ecx, eax
  0x1543	mov    	edx, 0x69a1
  0x1548	call   	0x2118
  === BLOCK LINK ===
    0x154d
=== CODE BLOCK END ===

=== CODE BLOCK ADDRESS 0x154d ===
  0x154d	movzx  	ecx, word ptr [esi + 2]
  0x1551	dec    	ecx
  0x1552	add    	esi, 8
  0x1555	dec    	eax
  0x1556	call   	dword ptr [0x1c04]
  === BLOCK LINK ===
    0x155c
=== CODE BLOCK END ===

=== CODE BLOCK ADDRESS 0x155c ===
  0x155c	nop    	dword ptr [eax + eax]
  0x1561	inc    	esp
  0x1562	movzx  	esp, ax
  0x1565	dec    	esp
  0x1566	add    	esp, esi
  === BLOCK LINK ===
    0x1568
=== CODE BLOCK END ===

=== CODE BLOCK ADDRESS 0x1568 ===
  0x1568	dec    	esp
  0x1569	mov    	dword ptr [esp + 0x20], esp
  0x156d	jmp    	0x170f
  === BLOCK LINK ===
    0x1572
=== CODE BLOCK END ===

=== CODE BLOCK ADDRESS 0x1572 ===
  0x1572	inc    	ebp
  0x1573	mov    	eax, dword ptr [esi]
  0x1575	dec    	ecx
  0x1576	add    	esi, 4
  0x1579	inc    	esp
  === BLOCK LINK ===
    0x157a
=== CODE BLOCK END ===

=== CODE BLOCK ADDRESS 0x157a ===
  0x157a	mov    	dword ptr [esp + 0x98], eax
  0x1581	inc    	ecx
  0x1582	movzx  	ecx, byte ptr [esi]
  0x1585	dec    	ebp
  0x1586	add    	esi, ebp
  === BLOCK LINK ===
    0x1588
=== CODE BLOCK END ===

=== CODE BLOCK ADDRESS 0x1588 ===
  0x1588	inc    	ecx
  0x1589	movzx  	edx, byte ptr [esi]
  0x158c	inc    	ecx
  0x158d	cmp    	bh, 6
  0x1590	jne    	0x159d
  === BLOCK LINK ===
    0x1592
=== CODE BLOCK END ===

=== CODE BLOCK ADDRESS 0x1592 ===
  0x1592	inc    	ecx
  0x1593	mov    	ch, byte ptr [esi + 1]
  0x1596	mov    	eax, 2
  0x159b	jmp    	0x15a3
  === BLOCK LINK ===
    0x159d
=== CODE BLOCK END ===

=== CODE BLOCK ADDRESS 0x159d ===
  0x159d	inc    	eax
  0x159e	xor    	ch, ch
  0x15a0	dec    	ecx
  0x15a1	mov    	eax, ebp
  0x15a3	dec    	ecx
  === BLOCK LINK ===
    0x15a4
=== CODE BLOCK END ===

=== CODE BLOCK ADDRESS 0x15a4 ===
  0x15a4	add    	eax, esi
  0x15a6	cmp    	byte ptr [eax], 0
  0x15a9	dec    	esp
  0x15aa	lea    	esi, [eax + 1]
  0x15ad	jbe    	0x170f
  === BLOCK LINK ===
    0x15b3
=== CODE BLOCK END ===

=== CODE BLOCK ADDRESS 0x15b3 ===
  0x15b3	inc    	esp
  0x15b4	movzx  	edi, byte ptr [eax]
  0x15b7	inc    	esp
  0x15b8	mov    	ebp, edx
  0x15ba	mov    	dword ptr [esp + 0x88], ecx
  === BLOCK LINK ===
    0x15c1
=== CODE BLOCK END ===

=== CODE BLOCK ADDRESS 0x15c1 ===
  0x15c1	inc    	esp
  0x15c2	mov    	esp, ecx
  0x15c4	inc    	ecx
  0x15c5	mov    	esi, dword ptr [esi]
  0x15c7	dec    	eax
  === BLOCK LINK ===
    0x15c8
=== CODE BLOCK END ===

=== CODE BLOCK ADDRESS 0x15c8 ===
  0x15c8	lea    	edx, [0x489a]
  0x15ce	dec    	eax
  0x15cf	lea    	ecx, [esp + 0x90]
  0x15d6	inc    	esp
  0x15d7	mov    	dword ptr [esp + 0x90], eax
  === BLOCK LINK ===
    0x15de
=== CODE BLOCK END ===

=== CODE BLOCK ADDRESS 0x15de ===
  0x15de	dec    	ecx
  0x15df	add    	esi, 4
  0x15e2	dec    	eax
  0x15e3	call   	dword ptr [0x1dbf]
  === BLOCK LINK ===
    0x15e9
=== CODE BLOCK END ===

=== CODE BLOCK ADDRESS 0x15e9 ===
  0x15e9	nop    	dword ptr [eax + eax]
  0x15ee	dec    	eax
  0x15ef	lea    	ecx, [0x48cb]
  0x15f5	call   	0x1ce8
  === BLOCK LINK ===
    0x15fa
=== CODE BLOCK END ===

=== CODE BLOCK ADDRESS 0x15fa ===
  0x15fa	mov    	ecx, 1
  0x15ff	dec    	eax
  0x1600	mov    	ebx, eax
  0x1602	call   	0x29e8
  === BLOCK LINK ===
    0x1607
=== CODE BLOCK END ===

=== CODE BLOCK ADDRESS 0x1607 ===
  0x1607	dec    	eax
  0x1608	mov    	ecx, eax
  0x160a	dec    	esp
  0x160b	mov    	eax, ebx
  0x160d	mov    	edx, 0x69a4
  === BLOCK LINK ===
    0x1612
=== CODE BLOCK END ===

=== CODE BLOCK ADDRESS 0x1612 ===
  0x1612	call   	0x2118
  === BLOCK LINK ===
    0x1617
=== CODE BLOCK END ===

=== CODE BLOCK ADDRESS 0x1617 ===
  0x1617	dec    	eax
  0x1618	lea    	edx, [0x484a]
  0x161e	mov    	dword ptr [esp + 0x90], esi
  0x1625	dec    	eax
  0x1626	lea    	ecx, [esp + 0x90]
  === BLOCK LINK ===
    0x162d
=== CODE BLOCK END ===

=== CODE BLOCK ADDRESS 0x162d ===
  0x162d	dec    	eax
  0x162e	call   	dword ptr [0x1d74]
  === BLOCK LINK ===
    0x1634
=== CODE BLOCK END ===

=== CODE BLOCK ADDRESS 0x1634 ===
  0x1634	nop    	dword ptr [eax + eax]
  0x1639	dec    	eax
  0x163a	lea    	ecx, [0x4880]
  0x1640	call   	0x1ce8
  === BLOCK LINK ===
    0x1645
=== CODE BLOCK END ===

=== CODE BLOCK ADDRESS 0x1645 ===
  0x1645	mov    	ecx, esi
  0x1647	dec    	eax
  0x1648	mov    	edi, eax
  0x164a	call   	0x1388
  === BLOCK LINK ===
    0x164f
=== CODE BLOCK END ===

=== CODE BLOCK ADDRESS 0x164f ===
  0x164f	mov    	esi, 1
  0x1654	dec    	eax
  0x1655	mov    	ebx, eax
  0x1657	mov    	ecx, esi
  0x1659	call   	0x29e8
  === BLOCK LINK ===
    0x165e
=== CODE BLOCK END ===

=== CODE BLOCK ADDRESS 0x165e ===
  0x165e	dec    	eax
  0x165f	mov    	ecx, eax
  0x1661	dec    	esp
  0x1662	mov    	ecx, ebx
  0x1664	dec    	esp
  === BLOCK LINK ===
    0x1665
=== CODE BLOCK END ===

=== CODE BLOCK ADDRESS 0x1665 ===
  0x1665	mov    	eax, edi
  0x1667	mov    	edx, 0x69a0
  0x166c	call   	0x2118
  === BLOCK LINK ===
    0x1671
=== CODE BLOCK END ===

=== CODE BLOCK ADDRESS 0x1671 ===
  0x1671	mov    	ecx, esi
  0x1673	call   	0x29e8
  === BLOCK LINK ===
    0x1678
=== CODE BLOCK END ===

=== CODE BLOCK ADDRESS 0x1678 ===
  0x1678	dec    	eax
  0x1679	mov    	ecx, eax
  0x167b	inc    	ebp
  0x167c	mov    	ecx, ebp
  0x167e	inc    	ebp
  === BLOCK LINK ===
    0x167f
=== CODE BLOCK END ===

=== CODE BLOCK ADDRESS 0x167f ===
  0x167f	mov    	eax, esp
  0x1681	mov    	edx, 0x69a3
  0x1686	call   	0x2118
  === BLOCK LINK ===
    0x168b
=== CODE BLOCK END ===

=== CODE BLOCK ADDRESS 0x168b ===
  0x168b	mov    	al, byte ptr [0x398f]
  0x1691	xor    	edi, edi
  0x1693	test   	al, al
  0x1695	je     	0x16da
  === BLOCK LINK ===
    0x1697
=== CODE BLOCK END ===

=== CODE BLOCK ADDRESS 0x1697 ===
  0x1697	xor    	ebx, ebx
  0x1699	dec    	esp
  0x169a	lea    	esp, [0xffffe960]
  0x16a0	inc    	eax
  0x16a1	test   	ch, al
  === BLOCK LINK ===
    0x16a3
=== CODE BLOCK END ===

=== CODE BLOCK ADDRESS 0x16a3 ===
  0x16a3	je     	0x16bc
  === BLOCK LINK ===
    0x16a5
=== CODE BLOCK END ===

=== CODE BLOCK ADDRESS 0x16a5 ===
  0x16a5	mov    	ecx, esi
  0x16a7	call   	0x29e8
  === BLOCK LINK ===
    0x16ac
=== CODE BLOCK END ===

=== CODE BLOCK ADDRESS 0x16ac ===
  0x16ac	inc    	edx
  0x16ad	mov    	edx, dword ptr [ebx + 0x5024]
  0x16b4	dec    	eax
  0x16b5	mov    	ecx, eax
  0x16b7	call   	0x2118
  === BLOCK LINK ===
    0x16bc
=== CODE BLOCK END ===

=== CODE BLOCK ADDRESS 0x16bc ===
  0x16bc	dec    	eax
  0x16bd	add    	edi, esi
  0x16bf	dec    	eax
  0x16c0	mov    	ebx, edi
  0x16c2	dec    	eax
  === BLOCK LINK ===
    0x16c3
=== CODE BLOCK END ===

=== CODE BLOCK ADDRESS 0x16c3 ===
  0x16c3	shl    	ebx, 3
  0x16c6	inc    	edx
  0x16c7	mov    	al, byte ptr [ebx + 0x5020]
  0x16ce	test   	al, al
  0x16d0	jne    	0x16a0
  === BLOCK LINK ===
    0x16d2
=== CODE BLOCK END ===

=== CODE BLOCK ADDRESS 0x16d2 ===
  0x16d2	inc    	esp
  0x16d3	mov    	esp, dword ptr [esp + 0x88]
  0x16da	mov    	ecx, esi
  0x16dc	call   	0x29e8
  === BLOCK LINK ===
    0x16e1
=== CODE BLOCK END ===

=== CODE BLOCK ADDRESS 0x16e1 ===
  0x16e1	dec    	eax
  0x16e2	mov    	ecx, eax
  0x16e4	mov    	edx, 0x69a1
  0x16e9	call   	0x2118
  === BLOCK LINK ===
    0x16ee
=== CODE BLOCK END ===

=== CODE BLOCK ADDRESS 0x16ee ===
  0x16ee	inc    	esp
  0x16ef	mov    	eax, dword ptr [esp + 0x98]
  0x16f6	dec    	esp
  0x16f7	sub    	edi, esi
  0x16f9	jne    	0x15c4
  === BLOCK LINK ===
    0x16ff
=== CODE BLOCK END ===

=== CODE BLOCK ADDRESS 0x16ff ===
  0x16ff	dec    	esp
  0x1700	mov    	esp, dword ptr [esp + 0x20]
  0x1704	dec    	esp
  0x1705	mov    	ebp, esi
  0x1707	inc    	esp
  === BLOCK LINK ===
    0x1708
=== CODE BLOCK END ===

=== CODE BLOCK ADDRESS 0x1708 ===
  0x1708	mov    	bh, byte ptr [esp + 0x80]
  0x170f	dec    	ebp
  0x1710	cmp    	esi, esp
  0x1712	jb     	0x1572
  === BLOCK LINK ===
    0x1718
=== CODE BLOCK END ===

=== CODE BLOCK ADDRESS 0x1718 ===
  0x1718	dec    	eax
  0x1719	add    	esp, 0x38
  0x171c	inc    	ecx
  0x171d	pop    	edi
  0x171e	inc    	ecx
  === BLOCK LINK ===
    0x171f
=== CODE BLOCK END ===

=== CODE BLOCK ADDRESS 0x171f ===
  0x171f	pop    	esi
  0x1720	inc    	ecx
  0x1721	pop    	ebp
  0x1722	inc    	ecx
  0x1723	pop    	esp
  === BLOCK LINK ===
    0x1724
=== CODE BLOCK END ===

=== CODE BLOCK ADDRESS 0x1724 ===
  0x1724	pop    	edi
  0x1725	pop    	esi
  0x1726	pop    	ebp
  0x1727	pop    	ebx
  0x1728	ret    	
  === BLOCK LINK ===
    0x1729
=== CODE BLOCK END ===

=== CODE BLOCK ADDRESS 0x1729 ===
  0x1729	int3   	
  0x172a	int3   	
  0x172b	int3   	
  0x172c	int3   	
  0x172d	int3   	
  === BLOCK LINK ===
    0x172e
=== CODE BLOCK END ===

=== CODE BLOCK ADDRESS 0x172e ===
  0x172e	int3   	
  0x172f	int3   	
  0x1730	dec    	eax
  0x1731	mov    	eax, esp
  0x1733	dec    	eax
  === BLOCK LINK ===
    0x1734
=== CODE BLOCK END ===

=== CODE BLOCK ADDRESS 0x1734 ===
  0x1734	mov    	dword ptr [eax + 8], ebx
  0x1737	dec    	eax
  0x1738	mov    	dword ptr [eax + 0x18], esi
  0x173b	dec    	eax
  0x173c	mov    	dword ptr [eax + 0x20], edi
  === BLOCK LINK ===
    0x173f
=== CODE BLOCK END ===

=== CODE BLOCK ADDRESS 0x173f ===
  0x173f	push   	ebp
  0x1740	inc    	ecx
  0x1741	push   	esp
  0x1742	inc    	ecx
  0x1743	push   	ebp
  === BLOCK LINK ===
    0x1744
=== CODE BLOCK END ===

=== CODE BLOCK ADDRESS 0x1744 ===
  0x1744	inc    	ecx
  0x1745	push   	esi
  0x1746	inc    	ecx
  0x1747	push   	edi
  0x1748	dec    	eax
  === BLOCK LINK ===
    0x1749
=== CODE BLOCK END ===

=== CODE BLOCK ADDRESS 0x1749 ===
  0x1749	lea    	ebp, [eax - 0x2b8]
  0x174f	dec    	eax
  0x1750	sub    	esp, 0x390
  0x1756	dec    	eax
  0x1757	mov    	eax, dword ptr [0x38ab]
  === BLOCK LINK ===
    0x175d
=== CODE BLOCK END ===

=== CODE BLOCK ADDRESS 0x175d ===
  0x175d	dec    	eax
  0x175e	xor    	eax, esp
  0x1760	dec    	eax
  0x1761	mov    	dword ptr [ebp + 0x280], eax
  0x1767	inc    	esp
  === BLOCK LINK ===
    0x1768
=== CODE BLOCK END ===

=== CODE BLOCK ADDRESS 0x1768 ===
  0x1768	mov    	esi, ecx
  0x176a	dec    	eax
  0x176b	mov    	dword ptr [esp + 0x28], edx
  0x176f	mov    	edi, 1
  0x1774	xor    	esi, esi
  === BLOCK LINK ===
    0x1776
=== CODE BLOCK END ===

=== CODE BLOCK ADDRESS 0x1776 ===
  0x1776	xor    	ecx, ecx
  0x1778	mov    	dword ptr [esp + 0x24], esi
  0x177c	inc    	ebp
  0x177d	xor    	esp, esp
  0x177f	inc    	ebp
  === BLOCK LINK ===
    0x1780
=== CODE BLOCK END ===

=== CODE BLOCK ADDRESS 0x1780 ===
  0x1780	xor    	ebp, ebp
  0x1782	inc    	esp
  0x1783	lea    	edi, [edi + 2]
  0x1786	dec    	eax
  0x1787	call   	dword ptr [0x1a83]
  === BLOCK LINK ===
    0x178d
=== CODE BLOCK END ===

=== CODE BLOCK ADDRESS 0x178d ===
  0x178d	nop    	dword ptr [eax + eax]
  0x1792	mov    	ecx, edi
  0x1794	call   	0x29e8
  === BLOCK LINK ===
    0x1799
=== CODE BLOCK END ===

=== CODE BLOCK ADDRESS 0x1799 ===
  0x1799	dec    	eax
  0x179a	mov    	ecx, eax
  0x179c	dec    	eax
  0x179d	mov    	ebx, eax
  0x179f	dec    	eax
  === BLOCK LINK ===
    0x17a0
=== CODE BLOCK END ===

=== CODE BLOCK ADDRESS 0x17a0 ===
  0x17a0	call   	dword ptr [0x1b6a]
  === BLOCK LINK ===
    0x17a6
=== CODE BLOCK END ===

=== CODE BLOCK ADDRESS 0x17a6 ===
  0x17a6	nop    	dword ptr [eax + eax]
  0x17ab	mov    	ecx, eax
  0x17ad	dec    	eax
  0x17ae	call   	dword ptr [0x1b3c]
  === BLOCK LINK ===
    0x17b4
=== CODE BLOCK END ===

=== CODE BLOCK ADDRESS 0x17b4 ===
  0x17b4	nop    	dword ptr [eax + eax]
  0x17b9	dec    	eax
  0x17ba	cmp    	eax, -1
  0x17bd	je     	0x18f7
  === BLOCK LINK ===
    0x17c3
=== CODE BLOCK END ===

=== CODE BLOCK ADDRESS 0x17c3 ===
  0x17c3	dec    	eax
  0x17c4	mov    	edx, eax
  0x17c6	dec    	eax
  0x17c7	lea    	ecx, [esp + 0x20]
  0x17cb	call   	0x1d3c
  === BLOCK LINK ===
    0x17d0
=== CODE BLOCK END ===

=== CODE BLOCK ADDRESS 0x17d0 ===
  0x17d0	test   	eax, eax
  0x17d2	jne    	0x18f7
  === BLOCK LINK ===
    0x17d8
=== CODE BLOCK END ===

=== CODE BLOCK ADDRESS 0x17d8 ===
  0x17d8	cmp    	dword ptr [esp + 0x20], esi
  0x17dc	jne    	0x18f7
  === BLOCK LINK ===
    0x17e2
=== CODE BLOCK END ===

=== CODE BLOCK ADDRESS 0x17e2 ===
  0x17e2	inc    	esp
  0x17e3	lea    	eax, [edi + 0x4f]
  0x17e6	dec    	eax
  0x17e7	lea    	edx, [esp + 0x40]
  0x17eb	dec    	eax
  === BLOCK LINK ===
    0x17ec
=== CODE BLOCK END ===

=== CODE BLOCK ADDRESS 0x17ec ===
  0x17ec	lea    	ecx, [0x1c3e]
  0x17f2	dec    	eax
  0x17f3	call   	dword ptr [0x1a2f]
  === BLOCK LINK ===
    0x17f9
=== CODE BLOCK END ===

=== CODE BLOCK ADDRESS 0x17f9 ===
  0x17f9	nop    	dword ptr [eax + eax]
  0x17fe	mov    	ecx, edi
  0x1800	mov    	dword ptr [esp + 0x20], ecx
  0x1804	test   	eax, eax
  0x1806	je     	0x1820
  === BLOCK LINK ===
    0x1808
=== CODE BLOCK END ===

=== CODE BLOCK ADDRESS 0x1808 ===
  0x1808	inc    	esp
  0x1809	mov    	eax, eax
  0x180b	dec    	eax
  0x180c	lea    	edx, [esp + 0x40]
  0x1810	dec    	eax
  === BLOCK LINK ===
    0x1811
=== CODE BLOCK END ===

=== CODE BLOCK ADDRESS 0x1811 ===
  0x1811	lea    	ecx, [esp + 0x20]
  0x1815	call   	0x1de4
  === BLOCK LINK ===
    0x181a
=== CODE BLOCK END ===

=== CODE BLOCK ADDRESS 0x181a ===
  0x181a	mov    	ecx, dword ptr [esp + 0x20]
  0x181e	jmp    	0x1822
  === BLOCK LINK ===
    0x1820
=== CODE BLOCK END ===

=== CODE BLOCK ADDRESS 0x1820 ===
  0x1820	xor    	eax, eax
  0x1822	test   	eax, eax
  0x1824	je     	0x1887
  === BLOCK LINK ===
    0x1826
=== CODE BLOCK END ===

=== CODE BLOCK ADDRESS 0x1826 ===
  0x1826	dec    	eax
  0x1827	lea    	edx, [esp + 0x30]
  0x182b	dec    	eax
  0x182c	mov    	ecx, ebx
  0x182e	dec    	eax
  === BLOCK LINK ===
    0x182f
=== CODE BLOCK END ===

=== CODE BLOCK ADDRESS 0x182f ===
  0x182f	call   	dword ptr [0x1aeb]
  === BLOCK LINK ===
    0x1835
=== CODE BLOCK END ===

=== CODE BLOCK ADDRESS 0x1835 ===
  0x1835	nop    	dword ptr [eax + eax]
  0x183a	test   	eax, eax
  0x183c	jne    	0x18f7
  === BLOCK LINK ===
    0x1842
=== CODE BLOCK END ===

=== CODE BLOCK ADDRESS 0x1842 ===
  0x1842	dec    	eax
  0x1843	cmp    	dword ptr [esp + 0x30], esi
  0x1847	jne    	0x18f7
  === BLOCK LINK ===
    0x184d
=== CODE BLOCK END ===

=== CODE BLOCK ADDRESS 0x184d ===
  0x184d	dec    	eax
  0x184e	mov    	ecx, ebx
  0x1850	dec    	eax
  0x1851	call   	dword ptr [0x1ab9]
  === BLOCK LINK ===
    0x1857
=== CODE BLOCK END ===

=== CODE BLOCK ADDRESS 0x1857 ===
  0x1857	nop    	dword ptr [eax + eax]
  0x185c	mov    	ecx, eax
  0x185e	mov    	edx, 0x20000
  0x1863	dec    	eax
  0x1864	call   	dword ptr [0x1a96]
  === BLOCK LINK ===
    0x186a
=== CODE BLOCK END ===

=== CODE BLOCK ADDRESS 0x186a ===
  0x186a	nop    	dword ptr [eax + eax]
  0x186f	dec    	eax
  0x1870	lea    	edx, [0x1c16]
  0x1876	dec    	eax
  0x1877	mov    	ecx, ebx
  === BLOCK LINK ===
    0x1879
=== CODE BLOCK END ===

=== CODE BLOCK ADDRESS 0x1879 ===
  0x1879	dec    	eax
  0x187a	call   	dword ptr [0x1aa8]
  === BLOCK LINK ===
    0x1880
=== CODE BLOCK END ===

=== CODE BLOCK ADDRESS 0x1880 ===
  0x1880	nop    	dword ptr [eax + eax]
  0x1885	jmp    	0x18f7
  === BLOCK LINK ===
    0x1887
=== CODE BLOCK END ===

=== CODE BLOCK ADDRESS 0x1887 ===
  0x1887	cmp    	ecx, 0xfde9
  0x188d	jne    	0x18f7
  === BLOCK LINK ===
    0x188f
=== CODE BLOCK END ===

=== CODE BLOCK ADDRESS 0x188f ===
  0x188f	dec    	eax
  0x1890	lea    	edx, [esp + 0x30]
  0x1894	dec    	eax
  0x1895	mov    	ecx, ebx
  0x1897	dec    	eax
  === BLOCK LINK ===
    0x1898
=== CODE BLOCK END ===

=== CODE BLOCK ADDRESS 0x1898 ===
  0x1898	call   	dword ptr [0x1a82]
  === BLOCK LINK ===
    0x189e
=== CODE BLOCK END ===

=== CODE BLOCK ADDRESS 0x189e ===
  0x189e	nop    	dword ptr [eax + eax]
  0x18a3	test   	eax, eax
  0x18a5	jne    	0x18f7
  === BLOCK LINK ===
    0x18a7
=== CODE BLOCK END ===

=== CODE BLOCK ADDRESS 0x18a7 ===
  0x18a7	dec    	eax
  0x18a8	cmp    	dword ptr [esp + 0x30], esi
  0x18ac	jne    	0x18f7
  === BLOCK LINK ===
    0x18ae
=== CODE BLOCK END ===

=== CODE BLOCK ADDRESS 0x18ae ===
  0x18ae	dec    	eax
  0x18af	mov    	ecx, ebx
  0x18b1	dec    	eax
  0x18b2	call   	dword ptr [0x1a58]
  === BLOCK LINK ===
    0x18b8
=== CODE BLOCK END ===

=== CODE BLOCK ADDRESS 0x18b8 ===
  0x18b8	nop    	dword ptr [eax + eax]
  0x18bd	mov    	ecx, eax
  0x18bf	mov    	edx, 0x8000
  0x18c4	dec    	eax
  0x18c5	call   	dword ptr [0x1a35]
  === BLOCK LINK ===
    0x18cb
=== CODE BLOCK END ===

=== CODE BLOCK ADDRESS 0x18cb ===
  0x18cb	nop    	dword ptr [eax + eax]
  0x18d0	dec    	eax
  0x18d1	mov    	ecx, ebx
  0x18d3	dec    	eax
  0x18d4	call   	dword ptr [0x1a36]
  === BLOCK LINK ===
    0x18da
=== CODE BLOCK END ===

=== CODE BLOCK ADDRESS 0x18da ===
  0x18da	nop    	dword ptr [eax + eax]
  0x18df	inc    	ebp
  0x18e0	mov    	eax, edi
  0x18e2	dec    	eax
  0x18e3	lea    	edx, [0x1ba7]
  === BLOCK LINK ===
    0x18e9
=== CODE BLOCK END ===

=== CODE BLOCK ADDRESS 0x18e9 ===
  0x18e9	mov    	ecx, eax
  0x18eb	dec    	eax
  0x18ec	call   	dword ptr [0x1a16]
  === BLOCK LINK ===
    0x18f2
=== CODE BLOCK END ===

=== CODE BLOCK ADDRESS 0x18f2 ===
  0x18f2	nop    	dword ptr [eax + eax]
  0x18f7	inc    	ebp
  0x18f8	xor    	ecx, ecx
  0x18fa	inc    	ebp
  0x18fb	xor    	eax, eax
  === BLOCK LINK ===
    0x18fd
=== CODE BLOCK END ===

=== CODE BLOCK ADDRESS 0x18fd ===
  0x18fd	mov    	edx, edi
  0x18ff	xor    	ecx, ecx
  0x1901	dec    	eax
  0x1902	call   	dword ptr [0x18d0]
  === BLOCK LINK ===
    0x1908
=== CODE BLOCK END ===

=== CODE BLOCK ADDRESS 0x1908 ===
  0x1908	nop    	dword ptr [eax + eax]
  0x190d	mov    	ecx, 2
  0x1912	dec    	eax
  0x1913	lea    	edx, [ebp + 0xe0]
  0x1919	dec    	eax
  === BLOCK LINK ===
    0x191a
=== CODE BLOCK END ===

=== CODE BLOCK ADDRESS 0x191a ===
  0x191a	call   	dword ptr [0x1850]
  === BLOCK LINK ===
    0x1920
=== CODE BLOCK END ===

=== CODE BLOCK ADDRESS 0x1920 ===
  0x1920	nop    	dword ptr [eax + eax]
  0x1925	test   	eax, eax
  0x1927	je     	0x194c
  === BLOCK LINK ===
    0x1929
=== CODE BLOCK END ===

=== CODE BLOCK ADDRESS 0x1929 ===
  0x1929	mov    	ecx, edi
  0x192b	call   	0x29e8
  === BLOCK LINK ===
    0x1930
=== CODE BLOCK END ===

=== CODE BLOCK ADDRESS 0x1930 ===
  0x1930	dec    	eax
  0x1931	mov    	ecx, eax
  0x1933	mov    	edx, 0x6979
  0x1938	call   	0x2118
  === BLOCK LINK ===
    0x193d
=== CODE BLOCK END ===

=== CODE BLOCK ADDRESS 0x193d ===
  0x193d	mov    	ecx, edi
  0x193f	dec    	eax
  0x1940	call   	dword ptr [0x1a4a]
  === BLOCK LINK ===
    0x1946
=== CODE BLOCK END ===

=== CODE BLOCK ADDRESS 0x1946 ===
  0x1946	nop    	dword ptr [eax + eax]
  0x194b	int3   	
  0x194c	inc    	esp
  0x194d	cmp    	esi, edi
  0x194f	jle    	0x1b52
  === BLOCK LINK ===
    0x1955
=== CODE BLOCK END ===

=== CODE BLOCK ADDRESS 0x1955 ===
  0x1955	dec    	eax
  0x1956	mov    	edx, dword ptr [esp + 0x28]
  0x195a	dec    	eax
  0x195b	mov    	ebx, edi
  0x195d	dec    	eax
  === BLOCK LINK ===
    0x195e
=== CODE BLOCK END ===

=== CODE BLOCK ADDRESS 0x195e ===
  0x195e	mov    	ecx, dword ptr [edx + ebx*8]
  0x1961	inc    	ecx
  0x1962	mov    	eax, 0xfffd
  0x1967	movzx  	eax, word ptr [ecx]
  0x196a	sub    	ax, 0x2d
  === BLOCK LINK ===
    0x196e
=== CODE BLOCK END ===

=== CODE BLOCK ADDRESS 0x196e ===
  0x196e	inc    	cx
  0x1970	test   	eax, eax
  0x1972	je     	0x1990
  === BLOCK LINK ===
    0x1974
=== CODE BLOCK END ===

=== CODE BLOCK ADDRESS 0x1974 ===
  0x1974	inc    	ecx
  0x1975	lea    	eax, [esi - 1]
  0x1978	cmp    	edi, eax
  0x197a	jne    	0x1b57
  === BLOCK LINK ===
    0x1980
=== CODE BLOCK END ===

=== CODE BLOCK ADDRESS 0x1980 ===
  0x1980	call   	0x1b94
  === BLOCK LINK ===
    0x1985
=== CODE BLOCK END ===

=== CODE BLOCK ADDRESS 0x1985 ===
  0x1985	inc    	esp
  0x1986	mov    	esp, eax
  0x1988	cmp    	eax, -1
  0x198b	jmp    	0x1a50
  === BLOCK LINK ===
    0x1990
=== CODE BLOCK END ===

=== CODE BLOCK ADDRESS 0x1990 ===
  0x1990	movzx  	eax, word ptr [ecx + 2]
  0x1994	cmp    	ax, 0x3f
  0x1998	je     	0x1b3b
  === BLOCK LINK ===
    0x199e
=== CODE BLOCK END ===

=== CODE BLOCK ADDRESS 0x199e ===
  0x199e	cmp    	ax, 0x69
  0x19a2	je     	0x1a2d
  === BLOCK LINK ===
    0x19a8
=== CODE BLOCK END ===

=== CODE BLOCK ADDRESS 0x19a8 ===
  0x19a8	cmp    	ax, 0x6e
  0x19ac	je     	0x1a21
  === BLOCK LINK ===
    0x19ae
=== CODE BLOCK END ===

=== CODE BLOCK ADDRESS 0x19ae ===
  0x19ae	cmp    	ax, 0x72
  0x19b2	je     	0x19ef
  === BLOCK LINK ===
    0x19b4
=== CODE BLOCK END ===

=== CODE BLOCK ADDRESS 0x19b4 ===
  0x19b4	cmp    	ax, 0x74
  0x19b8	jne    	0x1b57
  === BLOCK LINK ===
    0x19be
=== CODE BLOCK END ===

=== CODE BLOCK ADDRESS 0x19be ===
  0x19be	inc    	ecx
  0x19bf	lea    	eax, [esi - 1]
  0x19c2	cmp    	edi, eax
  0x19c4	je     	0x1b57
  === BLOCK LINK ===
    0x19ca
=== CODE BLOCK END ===

=== CODE BLOCK ADDRESS 0x19ca ===
  0x19ca	dec    	eax
  0x19cb	inc    	ebx
  0x19cd	inc    	edi
  0x19cf	dec    	eax
  0x19d0	mov    	ecx, dword ptr [edx + ebx*8]
  === BLOCK LINK ===
    0x19d3
=== CODE BLOCK END ===

=== CODE BLOCK ADDRESS 0x19d3 ===
  0x19d3	dec    	eax
  0x19d4	call   	dword ptr [0x19ae]
  === BLOCK LINK ===
    0x19da
=== CODE BLOCK END ===

=== CODE BLOCK ADDRESS 0x19da ===
  0x19da	nop    	dword ptr [eax + eax]
  0x19df	inc    	esp
  0x19e0	mov    	edi, eax
  0x19e2	cmp    	eax, 1
  0x19e5	jge    	0x1a56
  === BLOCK LINK ===
    0x19e7
=== CODE BLOCK END ===

=== CODE BLOCK ADDRESS 0x19e7 ===
  0x19e7	inc    	ecx
  0x19e8	mov    	edi, 1
  0x19ed	jmp    	0x1a56
  === BLOCK LINK ===
    0x19ef
=== CODE BLOCK END ===

=== CODE BLOCK ADDRESS 0x19ef ===
  0x19ef	inc    	ecx
  0x19f0	lea    	eax, [esi - 1]
  0x19f3	cmp    	edi, eax
  0x19f5	je     	0x1b57
  === BLOCK LINK ===
    0x19fb
=== CODE BLOCK END ===

=== CODE BLOCK ADDRESS 0x19fb ===
  0x19fb	dec    	eax
  0x19fc	inc    	ebx
  0x19fe	inc    	edi
  0x1a00	dec    	eax
  0x1a01	mov    	ecx, dword ptr [edx + ebx*8]
  === BLOCK LINK ===
    0x1a04
=== CODE BLOCK END ===

=== CODE BLOCK ADDRESS 0x1a04 ===
  0x1a04	dec    	eax
  0x1a05	call   	dword ptr [0x197d]
  === BLOCK LINK ===
    0x1a0b
=== CODE BLOCK END ===

=== CODE BLOCK ADDRESS 0x1a0b ===
  0x1a0b	nop    	dword ptr [eax + eax]
  0x1a10	dec    	eax
  0x1a11	mov    	edx, dword ptr [esp + 0x28]
  0x1a15	inc    	esp
  0x1a16	mov    	ebp, eax
  === BLOCK LINK ===
    0x1a18
=== CODE BLOCK END ===

=== CODE BLOCK ADDRESS 0x1a18 ===
  0x1a18	test   	eax, eax
  0x1a1a	jns    	0x1a5b
  === BLOCK LINK ===
    0x1a1c
=== CODE BLOCK END ===

=== CODE BLOCK ADDRESS 0x1a1c ===
  0x1a1c	inc    	ebp
  0x1a1d	xor    	ebp, ebp
  0x1a1f	jmp    	0x1a5b
  === BLOCK LINK ===
    0x1a21
=== CODE BLOCK END ===

=== CODE BLOCK ADDRESS 0x1a21 ===
  0x1a21	mov    	dword ptr [0x3c25], 1
  0x1a2b	jmp    	0x1a5b
  === BLOCK LINK ===
    0x1a2d
=== CODE BLOCK END ===

=== CODE BLOCK ADDRESS 0x1a2d ===
  0x1a2d	inc    	ecx
  0x1a2e	lea    	eax, [esi - 1]
  0x1a31	cmp    	edi, eax
  0x1a33	je     	0x1b57
  === BLOCK LINK ===
    0x1a39
=== CODE BLOCK END ===

=== CODE BLOCK ADDRESS 0x1a39 ===
  0x1a39	dec    	eax
  0x1a3a	inc    	ebx
  0x1a3c	inc    	edi
  0x1a3e	dec    	eax
  0x1a3f	mov    	ecx, dword ptr [edx + ebx*8]
  === BLOCK LINK ===
    0x1a42
=== CODE BLOCK END ===

=== CODE BLOCK ADDRESS 0x1a42 ===
  0x1a42	call   	0x1b94
  === BLOCK LINK ===
    0x1a47
=== CODE BLOCK END ===

=== CODE BLOCK ADDRESS 0x1a47 ===
  0x1a47	mov    	dword ptr [0x3c07], eax
  0x1a4d	cmp    	eax, -1
  0x1a50	je     	0x1b34
  === BLOCK LINK ===
    0x1a56
=== CODE BLOCK END ===

=== CODE BLOCK ADDRESS 0x1a56 ===
  0x1a56	dec    	eax
  0x1a57	mov    	edx, dword ptr [esp + 0x28]
  0x1a5b	inc    	edi
  0x1a5d	dec    	eax
  0x1a5e	inc    	ebx
  === BLOCK LINK ===
    0x1a60
=== CODE BLOCK END ===

=== CODE BLOCK ADDRESS 0x1a60 ===
  0x1a60	inc    	ecx
  0x1a61	cmp    	edi, esi
  0x1a63	jl     	0x195d
  === BLOCK LINK ===
    0x1a69
=== CODE BLOCK END ===

=== CODE BLOCK ADDRESS 0x1a69 ===
  0x1a69	inc    	ebp
  0x1a6a	test   	esp, esp
  0x1a6c	je     	0x1b52
  === BLOCK LINK ===
    0x1a72
=== CODE BLOCK END ===

=== CODE BLOCK ADDRESS 0x1a72 ===
  0x1a72	mov    	ecx, 2
  0x1a77	dec    	eax
  0x1a78	lea    	edx, [esp + 0x40]
  0x1a7c	dec    	eax
  0x1a7d	call   	dword ptr [0x16ed]
  === BLOCK LINK ===
    0x1a83
=== CODE BLOCK END ===

=== CODE BLOCK ADDRESS 0x1a83 ===
  0x1a83	nop    	dword ptr [eax + eax]
  0x1a88	test   	eax, eax
  0x1a8a	je     	0x1aa7
  === BLOCK LINK ===
    0x1a8c
=== CODE BLOCK END ===

=== CODE BLOCK ADDRESS 0x1a8c ===
  0x1a8c	mov    	ecx, 1
  0x1a91	call   	0x29e8
  === BLOCK LINK ===
    0x1a96
=== CODE BLOCK END ===

=== CODE BLOCK ADDRESS 0x1a96 ===
  0x1a96	dec    	eax
  0x1a97	mov    	ecx, eax
  0x1a99	mov    	edx, 0x6979
  0x1a9e	call   	0x2118
  === BLOCK LINK ===
    0x1aa3
=== CODE BLOCK END ===

=== CODE BLOCK ADDRESS 0x1aa3 ===
  0x1aa3	xor    	ebx, ebx
  0x1aa5	jmp    	0x1ace
  === BLOCK LINK ===
    0x1aa7
=== CODE BLOCK END ===

=== CODE BLOCK ADDRESS 0x1aa7 ===
  0x1aa7	dec    	esp
  0x1aa8	lea    	ecx, [esp + 0x24]
  0x1aac	inc    	ebp
  0x1aad	mov    	eax, ebp
  0x1aaf	inc    	ecx
  === BLOCK LINK ===
    0x1ab0
=== CODE BLOCK END ===

=== CODE BLOCK ADDRESS 0x1ab0 ===
  0x1ab0	mov    	edx, edi
  0x1ab2	inc    	ecx
  0x1ab3	mov    	ecx, esp
  0x1ab5	call   	0x1030
  === BLOCK LINK ===
    0x1aba
=== CODE BLOCK END ===

=== CODE BLOCK ADDRESS 0x1aba ===
  0x1aba	dec    	eax
  0x1abb	mov    	ebx, eax
  0x1abd	dec    	eax
  0x1abe	test   	eax, eax
  0x1ac0	je     	0x1aca
  === BLOCK LINK ===
    0x1ac2
=== CODE BLOCK END ===

=== CODE BLOCK ADDRESS 0x1ac2 ===
  0x1ac2	dec    	eax
  0x1ac3	mov    	ecx, eax
  0x1ac5	call   	0x1440
  === BLOCK LINK ===
    0x1aca
=== CODE BLOCK END ===

=== CODE BLOCK ADDRESS 0x1aca ===
  0x1aca	mov    	esi, dword ptr [esp + 0x24]
  0x1ace	dec    	eax
  0x1acf	mov    	ecx, ebx
  0x1ad1	dec    	eax
  0x1ad2	call   	dword ptr [0x18a8]
  === BLOCK LINK ===
    0x1ad8
=== CODE BLOCK END ===

=== CODE BLOCK ADDRESS 0x1ad8 ===
  0x1ad8	nop    	dword ptr [eax + eax]
  0x1add	test   	esi, esi
  0x1adf	je     	0x1af5
  === BLOCK LINK ===
    0x1ae1
=== CODE BLOCK END ===

=== CODE BLOCK ADDRESS 0x1ae1 ===
  0x1ae1	mov    	ecx, 1
  0x1ae6	call   	0x29e8
  === BLOCK LINK ===
    0x1aeb
=== CODE BLOCK END ===

=== CODE BLOCK ADDRESS 0x1aeb ===
  0x1aeb	dec    	eax
  0x1aec	mov    	ecx, eax
  0x1aee	mov    	edx, esi
  0x1af0	call   	0x2118
  === BLOCK LINK ===
    0x1af5
=== CODE BLOCK END ===

=== CODE BLOCK ADDRESS 0x1af5 ===
  0x1af5	dec    	eax
  0x1af6	call   	dword ptr [0x1654]
  === BLOCK LINK ===
    0x1afc
=== CODE BLOCK END ===

=== CODE BLOCK ADDRESS 0x1afc ===
  0x1afc	nop    	dword ptr [eax + eax]
  0x1b01	xor    	eax, eax
  0x1b03	dec    	eax
  0x1b04	mov    	ecx, dword ptr [ebp + 0x280]
  0x1b0a	dec    	eax
  === BLOCK LINK ===
    0x1b0b
=== CODE BLOCK END ===

=== CODE BLOCK ADDRESS 0x1b0b ===
  0x1b0b	xor    	ecx, esp
  0x1b0d	call   	0x24d0
  === BLOCK LINK ===
    0x1b12
=== CODE BLOCK END ===

=== CODE BLOCK ADDRESS 0x1b12 ===
  0x1b12	dec    	esp
  0x1b13	lea    	ebx, [esp + 0x390]
  0x1b1a	dec    	ecx
  0x1b1b	mov    	ebx, dword ptr [ebx + 0x30]
  0x1b1e	dec    	ecx
  === BLOCK LINK ===
    0x1b1f
=== CODE BLOCK END ===

=== CODE BLOCK ADDRESS 0x1b1f ===
  0x1b1f	mov    	esi, dword ptr [ebx + 0x40]
  0x1b22	dec    	ecx
  0x1b23	mov    	edi, dword ptr [ebx + 0x48]
  0x1b26	dec    	ecx
  0x1b27	mov    	esp, ebx
  === BLOCK LINK ===
    0x1b29
=== CODE BLOCK END ===

=== CODE BLOCK ADDRESS 0x1b29 ===
  0x1b29	inc    	ecx
  0x1b2a	pop    	edi
  0x1b2b	inc    	ecx
  0x1b2c	pop    	esi
  0x1b2d	inc    	ecx
  === BLOCK LINK ===
    0x1b2e
=== CODE BLOCK END ===

=== CODE BLOCK ADDRESS 0x1b2e ===
  0x1b2e	pop    	ebp
  0x1b2f	inc    	ecx
  0x1b30	pop    	esp
  0x1b31	pop    	ebp
  0x1b32	ret    	
  === BLOCK LINK ===
    0x1b33
=== CODE BLOCK END ===

=== CODE BLOCK ADDRESS 0x131b ===
  0x131b	xor    	eax, eax
  0x131d	dec    	eax
  0x131e	mov    	ecx, dword ptr [ebp + 0x390]
  0x1324	dec    	eax
  === BLOCK LINK ===
    0x1325
=== CODE BLOCK END ===

=== CODE BLOCK ADDRESS 0x1b33 ===
  0x1b33	int3   	
  0x1b34	mov    	esi, 0x697d
  0x1b39	jmp    	0x1b57
  === BLOCK LINK ===
    0x1b3b
=== CODE BLOCK END ===

=== CODE BLOCK ADDRESS 0x1b3b ===
  0x1b3b	call   	0x1008
  === BLOCK LINK ===
    0x1b40
=== CODE BLOCK END ===

=== CODE BLOCK ADDRESS 0x1b40 ===
  0x1b40	mov    	ecx, 1
  0x1b45	dec    	eax
  0x1b46	call   	dword ptr [0x1844]
  === BLOCK LINK ===
    0x1b4c
=== CODE BLOCK END ===

=== CODE BLOCK ADDRESS 0x1b4c ===
  0x1b4c	nop    	dword ptr [eax + eax]
  0x1b51	int3   	
  0x1b52	mov    	esi, 0x6986
  0x1b57	mov    	ecx, 1
  0x1b5c	call   	0x29e8
  === BLOCK LINK ===
    0x1b61
=== CODE BLOCK END ===

=== CODE BLOCK ADDRESS 0x1b61 ===
  0x1b61	dec    	eax
  0x1b62	mov    	ecx, eax
  0x1b64	mov    	edx, esi
  0x1b66	call   	0x2118
  === BLOCK LINK ===
    0x1b6b
=== CODE BLOCK END ===

=== CODE BLOCK ADDRESS 0x1b6b ===
  0x1b6b	call   	0x1008
  === BLOCK LINK ===
    0x1b70
=== CODE BLOCK END ===

=== CODE BLOCK ADDRESS 0x1b70 ===
  0x1b70	dec    	eax
  0x1b71	call   	dword ptr [0x15d9]
  === BLOCK LINK ===
    0x1b77
=== CODE BLOCK END ===

=== CODE BLOCK ADDRESS 0x1b77 ===
  0x1b77	nop    	dword ptr [eax + eax]
  0x1b7c	mov    	ecx, 1
  0x1b81	dec    	eax
  0x1b82	call   	dword ptr [0x1808]
  === BLOCK LINK ===
    0x1b88
=== CODE BLOCK END ===

=== CODE BLOCK ADDRESS 0x1b88 ===
  0x1b88	nop    	dword ptr [eax + eax]
  0x1b8d	int3   	
  0x1b8e	int3   	
  0x1b8f	int3   	
  0x1b90	int3   	
  === BLOCK LINK ===
    0x1b91
=== CODE BLOCK END ===

=== CODE BLOCK ADDRESS 0x1b91 ===
  0x1b91	int3   	
  0x1b92	int3   	
  0x1b93	int3   	
  === BLOCK LINK ===
    0x1b94
=== CODE BLOCK END ===

=== CODE BLOCK ADDRESS 0x1b97 ===
  0x1b97	push   	ebx
  0x1b98	dec    	eax
  0x1b99	sub    	esp, 0x50
  0x1b9c	xorps  	xmm0, xmm0
  0x1b9f	dec    	esp
  === BLOCK LINK ===
    0x1ba0
=== CODE BLOCK END ===

=== CODE BLOCK ADDRESS 0x1ba0 ===
  0x1ba0	lea    	ecx, [eax + 0x10]
  0x1ba3	movups  	xmmword ptr [eax - 0x38], xmm0
  0x1ba7	dec    	esp
  0x1ba8	lea    	eax, [eax - 0x38]
  0x1bab	mov    	dword ptr [eax - 0x34], 2
  === BLOCK LINK ===
    0x1bb2
=== CODE BLOCK END ===

=== CODE BLOCK ADDRESS 0x1bb2 ===
  0x1bb2	xor    	edx, edx
  0x1bb4	movups  	xmmword ptr [eax - 0x28], xmm0
  0x1bb8	movups  	xmmword ptr [eax - 0x18], xmm0
  0x1bbc	dec    	eax
  0x1bbd	call   	dword ptr [0x156d]
  === BLOCK LINK ===
    0x1bc3
=== CODE BLOCK END ===

=== CODE BLOCK ADDRESS 0x1bc3 ===
  0x1bc3	nop    	dword ptr [eax + eax]
  0x1bc8	test   	eax, eax
  0x1bca	jne    	0x1be6
  === BLOCK LINK ===
    0x1bcc
=== CODE BLOCK END ===

=== CODE BLOCK ADDRESS 0x1bcc ===
  0x1bcc	dec    	eax
  0x1bcd	mov    	ecx, dword ptr [esp + 0x68]
  0x1bd1	dec    	eax
  0x1bd2	mov    	eax, dword ptr [ecx + 0x20]
  0x1bd5	mov    	ebx, dword ptr [eax + 4]
  === BLOCK LINK ===
    0x1bd8
=== CODE BLOCK END ===

=== CODE BLOCK ADDRESS 0x1bd8 ===
  0x1bd8	dec    	eax
  0x1bd9	call   	dword ptr [0x1569]
  === BLOCK LINK ===
    0x1bdf
=== CODE BLOCK END ===

=== CODE BLOCK ADDRESS 0x1bdf ===
  0x1bdf	nop    	dword ptr [eax + eax]
  0x1be4	jmp    	0x1be9
  === BLOCK LINK ===
    0x1be6
=== CODE BLOCK END ===

=== CODE BLOCK ADDRESS 0x1be6 ===
  0x1be6	or     	ebx, 0xffffffff
  0x1be9	mov    	eax, ebx
  0x1beb	dec    	eax
  0x1bec	add    	esp, 0x50
  0x1bef	pop    	ebx
  === BLOCK LINK ===
    0x1bf0
=== CODE BLOCK END ===

=== CODE BLOCK ADDRESS 0x1bf0 ===
  0x1bf0	ret    	
  0x1bf1	int3   	
  0x1bf2	int3   	
  0x1bf3	int3   	
  0x1bf4	int3   	
  === BLOCK LINK ===
    0x1bf5
=== CODE BLOCK END ===

=== CODE BLOCK ADDRESS 0x1bf5 ===
  0x1bf5	int3   	
  0x1bf6	int3   	
  0x1bf7	int3   	
  === BLOCK LINK ===
    0x1bf8
=== CODE BLOCK END ===

=== CODE BLOCK ADDRESS 0x1bfd ===
  0x1bfd	dec    	eax
  0x1bfe	mov    	dword ptr [esp + 0x18], esi
  0x1c02	push   	edi
  0x1c03	dec    	eax
  0x1c04	sub    	esp, 0x50
  === BLOCK LINK ===
    0x1c07
=== CODE BLOCK END ===

=== CODE BLOCK ADDRESS 0x1c07 ===
  0x1c07	dec    	eax
  0x1c08	mov    	eax, dword ptr [0x33fa]
  0x1c0e	dec    	eax
  0x1c0f	xor    	eax, esp
  0x1c11	dec    	eax
  === BLOCK LINK ===
    0x1c12
=== CODE BLOCK END ===

=== CODE BLOCK ADDRESS 0x1c12 ===
  0x1c12	mov    	dword ptr [esp + 0x40], eax
  0x1c16	mov    	esi, 2
  0x1c1b	mov    	edi, ecx
  0x1c1d	inc    	esp
  0x1c1e	mov    	eax, esi
  === BLOCK LINK ===
    0x1c20
=== CODE BLOCK END ===

=== CODE BLOCK ADDRESS 0x1c20 ===
  0x1c20	mov    	ecx, esi
  0x1c22	lea    	edx, [esi + 1]
  0x1c25	dec    	eax
  0x1c26	call   	dword ptr [0x14fc]
  === BLOCK LINK ===
    0x1c2c
=== CODE BLOCK END ===

=== CODE BLOCK ADDRESS 0x1c2c ===
  0x1c2c	nop    	dword ptr [eax + eax]
  0x1c31	dec    	eax
  0x1c32	mov    	ebx, eax
  0x1c34	dec    	eax
  0x1c35	cmp    	eax, -1
  === BLOCK LINK ===
    0x1c38
=== CODE BLOCK END ===

=== CODE BLOCK ADDRESS 0x1c38 ===
  0x1c38	je     	0x1cac
  === BLOCK LINK ===
    0x1c3a
=== CODE BLOCK END ===

=== CODE BLOCK ADDRESS 0x1c3a ===
  0x1c3a	inc    	esp
  0x1c3b	lea    	eax, [esi + 0xe]
  0x1c3e	dec    	eax
  0x1c3f	mov    	dword ptr [esp + 0x30], esi
  0x1c43	dec    	eax
  === BLOCK LINK ===
    0x1c44
=== CODE BLOCK END ===

=== CODE BLOCK ADDRESS 0x1c44 ===
  0x1c44	lea    	edx, [esp + 0x30]
  0x1c48	dec    	eax
  0x1c49	mov    	ecx, eax
  0x1c4b	dec    	eax
  0x1c4c	call   	dword ptr [0x14ee]
  === BLOCK LINK ===
    0x1c52
=== CODE BLOCK END ===

=== CODE BLOCK ADDRESS 0x1c52 ===
  0x1c52	nop    	dword ptr [eax + eax]
  0x1c57	cmp    	eax, -1
  0x1c5a	je     	0x1cac
  === BLOCK LINK ===
    0x1c5c
=== CODE BLOCK END ===

=== CODE BLOCK ADDRESS 0x1c5c ===
  0x1c5c	test   	edi, edi
  0x1c5e	je     	0x1c8b
  === BLOCK LINK ===
    0x1c60
=== CODE BLOCK END ===

=== CODE BLOCK ADDRESS 0x1c60 ===
  0x1c60	dec    	esp
  0x1c61	lea    	ecx, [esp + 0x34]
  0x1c65	mov    	dword ptr [esp + 0x34], edi
  0x1c69	xor    	edx, edx
  0x1c6b	mov    	dword ptr [esp + 0x20], 4
  === BLOCK LINK ===
    0x1c73
=== CODE BLOCK END ===

=== CODE BLOCK ADDRESS 0x1c73 ===
  0x1c73	inc    	esp
  0x1c74	lea    	eax, [esi + 7]
  0x1c77	dec    	eax
  0x1c78	mov    	ecx, ebx
  0x1c7a	dec    	eax
  === BLOCK LINK ===
    0x1c7b
=== CODE BLOCK END ===

=== CODE BLOCK ADDRESS 0x1c7b ===
  0x1c7b	call   	dword ptr [0x14b7]
  === BLOCK LINK ===
    0x1c81
=== CODE BLOCK END ===

=== CODE BLOCK ADDRESS 0x1c81 ===
  0x1c81	nop    	dword ptr [eax + eax]
  0x1c86	cmp    	eax, -1
  0x1c89	je     	0x1cac
  === BLOCK LINK ===
    0x1c8b
=== CODE BLOCK END ===

=== CODE BLOCK ADDRESS 0x1c8b ===
  0x1c8b	dec    	eax
  0x1c8c	mov    	eax, ebx
  0x1c8e	dec    	eax
  0x1c8f	mov    	ecx, dword ptr [esp + 0x40]
  0x1c93	dec    	eax
  === BLOCK LINK ===
    0x1c94
=== CODE BLOCK END ===

=== CODE BLOCK ADDRESS 0x1c94 ===
  0x1c94	xor    	ecx, esp
  0x1c96	call   	0x24d0
  === BLOCK LINK ===
    0x1c9b
=== CODE BLOCK END ===

=== CODE BLOCK ADDRESS 0x1c9b ===
  0x1c9b	dec    	eax
  0x1c9c	mov    	ebx, dword ptr [esp + 0x68]
  0x1ca0	dec    	eax
  0x1ca1	mov    	esi, dword ptr [esp + 0x70]
  0x1ca5	dec    	eax
  === BLOCK LINK ===
    0x1ca6
=== CODE BLOCK END ===

=== CODE BLOCK ADDRESS 0x1ca6 ===
  0x1ca6	add    	esp, 0x50
  0x1ca9	pop    	edi
  0x1caa	ret    	
  0x1cab	int3   	
  0x1cac	mov    	ebx, 1
  === BLOCK LINK ===
    0x1cb1
=== CODE BLOCK END ===

=== CODE BLOCK ADDRESS 0x2a9d ===
=== CODE BLOCK END ===

=== CODE BLOCK ADDRESS 0x1cb1 ===
  0x1cb1	mov    	ecx, ebx
  0x1cb3	call   	0x29e8
  === BLOCK LINK ===
    0x1cb8
=== CODE BLOCK END ===

=== CODE BLOCK ADDRESS 0x1cb8 ===
  0x1cb8	dec    	eax
  0x1cb9	mov    	ecx, eax
  0x1cbb	mov    	edx, 0x6987
  0x1cc0	call   	0x2118
  === BLOCK LINK ===
    0x1cc5
=== CODE BLOCK END ===

=== CODE BLOCK ADDRESS 0x1cc5 ===
  0x1cc5	dec    	eax
  0x1cc6	call   	dword ptr [0x1484]
  === BLOCK LINK ===
    0x1ccc
=== CODE BLOCK END ===

=== CODE BLOCK ADDRESS 0x1ccc ===
  0x1ccc	nop    	dword ptr [eax + eax]
  0x1cd1	mov    	ecx, ebx
  0x1cd3	dec    	eax
  0x1cd4	call   	dword ptr [0x16b6]
  === BLOCK LINK ===
    0x1cda
=== CODE BLOCK END ===

=== CODE BLOCK ADDRESS 0x1cda ===
  0x1cda	nop    	dword ptr [eax + eax]
  0x1cdf	int3   	
  0x1ce0	int3   	
  0x1ce1	int3   	
  0x1ce2	int3   	
  === BLOCK LINK ===
    0x1ce3
=== CODE BLOCK END ===

=== CODE BLOCK ADDRESS 0x1ce3 ===
  0x1ce3	int3   	
  0x1ce4	int3   	
  0x1ce5	int3   	
  0x1ce6	int3   	
  0x1ce7	int3   	
  === BLOCK LINK ===
    0x1ce8
=== CODE BLOCK END ===

=== CODE BLOCK ADDRESS 0x1ce8 ===
  0x1ce8	dec    	esp
  0x1ce9	lea    	ecx, [0x4179]
  0x1cef	inc    	ecx
  0x1cf0	mov    	eax, 0x10
  0x1cf5	dec    	esp
  === BLOCK LINK ===
    0x1cf6
=== CODE BLOCK END ===

=== CODE BLOCK ADDRESS 0x1cf6 ===
  0x1cf6	sub    	ecx, ecx
  0x1cf8	dec    	eax
  0x1cf9	mov    	edx, ecx
  0x1cfb	inc    	ebp
  0x1cfc	xor    	edx, edx
  === BLOCK LINK ===
    0x1cfe
=== CODE BLOCK END ===

=== CODE BLOCK ADDRESS 0x1cfe ===
  0x1cfe	dec    	ecx
  0x1cff	lea    	eax, [eax + 0x7fffffee]
  0x1d05	dec    	eax
  0x1d06	test   	eax, eax
  0x1d08	je     	0x1d21
  === BLOCK LINK ===
    0x1d0a
=== CODE BLOCK END ===

=== CODE BLOCK ADDRESS 0x1d0a ===
  0x1d0a	inc    	ecx
  0x1d0b	movzx  	eax, word ptr [ecx + edx]
  0x1d0f	test   	ax, ax
  0x1d12	je     	0x1d21
  === BLOCK LINK ===
    0x1d14
=== CODE BLOCK END ===

=== CODE BLOCK ADDRESS 0x1d14 ===
  0x1d14	mov    	word ptr [edx], ax
  0x1d17	dec    	eax
  0x1d18	add    	edx, 2
  0x1d1b	dec    	ecx
  0x1d1c	sub    	eax, 1
  === BLOCK LINK ===
    0x1d1f
=== CODE BLOCK END ===

=== CODE BLOCK ADDRESS 0x1d1f ===
  0x1d1f	jne    	0x1cfe
  === BLOCK LINK ===
    0x1d21
=== CODE BLOCK END ===

=== CODE BLOCK ADDRESS 0x1d21 ===
  0x1d21	dec    	ebp
  0x1d22	test   	eax, eax
  0x1d24	dec    	eax
  0x1d25	lea    	eax, [edx - 2]
  0x1d28	dec    	eax
  === BLOCK LINK ===
    0x1d29
=== CODE BLOCK END ===

=== CODE BLOCK ADDRESS 0x1d29 ===
  0x1d29	cmovne  	eax, edx
  0x1d2c	inc    	sp
  0x1d2e	mov    	dword ptr [eax], edx
  0x1d30	dec    	eax
  0x1d31	mov    	eax, ecx
  === BLOCK LINK ===
    0x1d33
=== CODE BLOCK END ===

=== CODE BLOCK ADDRESS 0x1d33 ===
  0x1d33	ret    	
  0x1d34	int3   	
  0x1d35	int3   	
  0x1d36	int3   	
  0x1d37	int3   	
  === BLOCK LINK ===
    0x1d38
=== CODE BLOCK END ===

=== CODE BLOCK ADDRESS 0x1b94 ===
  0x1b94	dec    	eax
  0x1b95	mov    	eax, esp
  === BLOCK LINK ===
    0x1b97
=== CODE BLOCK END ===

=== CODE BLOCK ADDRESS 0x1d38 ===
  0x1d38	int3   	
  0x1d39	int3   	
  0x1d3a	int3   	
  0x1d3b	int3   	
  0x1d3c	dec    	eax
  === BLOCK LINK ===
    0x1d3d
=== CODE BLOCK END ===

=== CODE BLOCK ADDRESS 0x1d3d ===
  0x1d3d	mov    	dword ptr [esp + 8], ebx
  0x1d41	dec    	eax
  0x1d42	mov    	dword ptr [esp + 0x10], ebp
  0x1d46	dec    	eax
  0x1d47	mov    	dword ptr [esp + 0x20], esi
  === BLOCK LINK ===
    0x1d4b
=== CODE BLOCK END ===

=== CODE BLOCK ADDRESS 0x1d4b ===
  0x1d4b	push   	edi
  0x1d4c	dec    	eax
  0x1d4d	sub    	esp, 0x20
  0x1d50	dec    	eax
  0x1d51	mov    	esi, ecx
  === BLOCK LINK ===
    0x1d53
=== CODE BLOCK END ===

=== CODE BLOCK ADDRESS 0x1d53 ===
  0x1d53	dec    	eax
  0x1d54	mov    	ebp, edx
  0x1d56	dec    	eax
  0x1d57	mov    	ecx, edx
  0x1d59	dec    	eax
  === BLOCK LINK ===
    0x1d5a
=== CODE BLOCK END ===

=== CODE BLOCK ADDRESS 0x1d5a ===
  0x1d5a	call   	dword ptr [0x1468]
  === BLOCK LINK ===
    0x1d60
=== CODE BLOCK END ===

=== CODE BLOCK ADDRESS 0x1d60 ===
  0x1d60	nop    	dword ptr [eax + eax]
  0x1d65	xor    	ebx, ebx
  0x1d67	mov    	edi, eax
  0x1d69	test   	eax, eax
  0x1d6b	jne    	0x1d8b
  === BLOCK LINK ===
    0x1d6d
=== CODE BLOCK END ===

=== CODE BLOCK ADDRESS 0x1d6d ===
  0x1d6d	dec    	eax
  0x1d6e	call   	dword ptr [0x1434]
  === BLOCK LINK ===
    0x1d74
=== CODE BLOCK END ===

=== CODE BLOCK ADDRESS 0x1d74 ===
  0x1d74	nop    	dword ptr [eax + eax]
  0x1d79	test   	eax, eax
  0x1d7b	je     	0x1d8b
  === BLOCK LINK ===
    0x1d7d
=== CODE BLOCK END ===

=== CODE BLOCK ADDRESS 0x1d7d ===
  0x1d7d	dec    	eax
  0x1d7e	call   	dword ptr [0x1424]
  === BLOCK LINK ===
    0x1d84
=== CODE BLOCK END ===

=== CODE BLOCK ADDRESS 0x1d84 ===
  0x1d84	nop    	dword ptr [eax + eax]
  0x1d89	jmp    	0x1dc6
  === BLOCK LINK ===
    0x1d8b
=== CODE BLOCK END ===

=== CODE BLOCK ADDRESS 0x1d8b ===
  0x1d8b	btr    	edi, 0xf
  0x1d8f	cmp    	edi, 2
  0x1d92	jne    	0x1dc2
  === BLOCK LINK ===
    0x1d94
=== CODE BLOCK END ===

=== CODE BLOCK ADDRESS 0x1d94 ===
  0x1d94	dec    	eax
  0x1d95	lea    	edx, [esp + 0x40]
  0x1d99	dec    	eax
  0x1d9a	mov    	ecx, ebp
  0x1d9c	dec    	eax
  === BLOCK LINK ===
    0x1d9d
=== CODE BLOCK END ===

=== CODE BLOCK ADDRESS 0x1d9d ===
  0x1d9d	call   	dword ptr [0x13f5]
  === BLOCK LINK ===
    0x1da3
=== CODE BLOCK END ===

=== CODE BLOCK ADDRESS 0x1da3 ===
  0x1da3	nop    	dword ptr [eax + eax]
  0x1da8	test   	eax, eax
  0x1daa	jne    	0x1dbd
  === BLOCK LINK ===
    0x1dac
=== CODE BLOCK END ===

=== CODE BLOCK ADDRESS 0x1dac ===
  0x1dac	dec    	eax
  0x1dad	call   	dword ptr [0x13f5]
  === BLOCK LINK ===
    0x1db3
=== CODE BLOCK END ===

=== CODE BLOCK ADDRESS 0x1db3 ===
  0x1db3	nop    	dword ptr [eax + eax]
  0x1db8	cmp    	eax, 6
  0x1dbb	je     	0x1dc2
  === BLOCK LINK ===
    0x1dbd
=== CODE BLOCK END ===

=== CODE BLOCK ADDRESS 0x1dbd ===
  0x1dbd	mov    	ebx, 1
  0x1dc2	mov    	dword ptr [esi], ebx
  0x1dc4	xor    	eax, eax
  0x1dc6	dec    	eax
  0x1dc7	mov    	ebx, dword ptr [esp + 0x30]
  === BLOCK LINK ===
    0x1dcb
=== CODE BLOCK END ===

=== CODE BLOCK ADDRESS 0x1dcb ===
  0x1dcb	dec    	eax
  0x1dcc	mov    	ebp, dword ptr [esp + 0x38]
  0x1dd0	dec    	eax
  0x1dd1	mov    	esi, dword ptr [esp + 0x48]
  0x1dd5	dec    	eax
  === BLOCK LINK ===
    0x1dd6
=== CODE BLOCK END ===

=== CODE BLOCK ADDRESS 0x1dd6 ===
  0x1dd6	add    	esp, 0x20
  0x1dd9	pop    	edi
  0x1dda	ret    	
  0x1ddb	int3   	
  0x1ddc	int3   	
  === BLOCK LINK ===
    0x1ddd
=== CODE BLOCK END ===

=== CODE BLOCK ADDRESS 0x1ddd ===
  0x1ddd	int3   	
  0x1dde	int3   	
  0x1ddf	int3   	
  0x1de0	int3   	
  0x1de1	int3   	
  === BLOCK LINK ===
    0x1de2
=== CODE BLOCK END ===

=== CODE BLOCK ADDRESS 0x1de2 ===
  0x1de2	int3   	
  0x1de3	int3   	
  0x1de4	dec    	eax
  0x1de5	mov    	dword ptr [esp + 0x18], ebx
  0x1de9	push   	edi
  === BLOCK LINK ===
    0x1dea
=== CODE BLOCK END ===

=== CODE BLOCK ADDRESS 0x1dea ===
  0x1dea	dec    	eax
  0x1deb	sub    	esp, 0x20
  0x1dee	dec    	eax
  0x1def	mov    	ebx, edx
  0x1df1	dec    	eax
  === BLOCK LINK ===
    0x1df2
=== CODE BLOCK END ===

=== CODE BLOCK ADDRESS 0x1df2 ===
  0x1df2	mov    	edi, ecx
  0x1df4	inc    	ecx
  0x1df5	cmp    	eax, 0x4f
  0x1df8	jae    	0x1e73
  === BLOCK LINK ===
    0x1dfa
=== CODE BLOCK END ===

=== CODE BLOCK ADDRESS 0x1dfa ===
  0x1dfa	dec    	eax
  0x1dfb	lea    	edx, [0x164f]
  0x1e01	dec    	eax
  0x1e02	mov    	ecx, ebx
  0x1e04	dec    	eax
  === BLOCK LINK ===
    0x1e05
=== CODE BLOCK END ===

=== CODE BLOCK ADDRESS 0x1e05 ===
  0x1e05	call   	dword ptr [0x155d]
  === BLOCK LINK ===
    0x1e0b
=== CODE BLOCK END ===

=== CODE BLOCK ADDRESS 0x1e0b ===
  0x1e0b	nop    	dword ptr [eax + eax]
  0x1e10	test   	eax, eax
  0x1e12	jne    	0x1e1b
  === BLOCK LINK ===
    0x1e14
=== CODE BLOCK END ===

=== CODE BLOCK ADDRESS 0x1e14 ===
  0x1e14	mov    	eax, 1
  0x1e19	jmp    	0x1e75
  === BLOCK LINK ===
    0x1e1b
=== CODE BLOCK END ===

=== CODE BLOCK ADDRESS 0x1e1b ===
  0x1e1b	dec    	eax
  0x1e1c	lea    	edx, [0x163e]
  0x1e22	dec    	eax
  0x1e23	mov    	ecx, ebx
  0x1e25	dec    	eax
  === BLOCK LINK ===
    0x1e26
=== CODE BLOCK END ===

=== CODE BLOCK ADDRESS 0x1e26 ===
  0x1e26	call   	dword ptr [0x153c]
  === BLOCK LINK ===
    0x1e2c
=== CODE BLOCK END ===

=== CODE BLOCK ADDRESS 0x1e2c ===
  0x1e2c	nop    	dword ptr [eax + eax]
  0x1e31	test   	eax, eax
  0x1e33	jne    	0x1e39
  === BLOCK LINK ===
    0x1e35
=== CODE BLOCK END ===

=== CODE BLOCK ADDRESS 0x1e35 ===
  0x1e35	and    	dword ptr [edi], eax
  0x1e37	jmp    	0x1e73
  === BLOCK LINK ===
    0x1e39
=== CODE BLOCK END ===

=== CODE BLOCK ADDRESS 0x1e39 ===
  0x1e39	dec    	eax
  0x1e3a	lea    	edx, [0x1630]
  0x1e40	dec    	eax
  0x1e41	mov    	ecx, ebx
  0x1e43	dec    	eax
  === BLOCK LINK ===
    0x1e44
=== CODE BLOCK END ===

=== CODE BLOCK ADDRESS 0x1e44 ===
  0x1e44	call   	dword ptr [0x151e]
  === BLOCK LINK ===
    0x1e4a
=== CODE BLOCK END ===

=== CODE BLOCK ADDRESS 0x1e4a ===
  0x1e4a	nop    	dword ptr [eax + eax]
  0x1e4f	test   	eax, eax
  0x1e51	je     	0x1e6d
  === BLOCK LINK ===
    0x1e53
=== CODE BLOCK END ===

=== CODE BLOCK ADDRESS 0x1e53 ===
  0x1e53	dec    	eax
  0x1e54	lea    	edx, [0x1626]
  0x1e5a	dec    	eax
  0x1e5b	mov    	ecx, ebx
  0x1e5d	dec    	eax
  === BLOCK LINK ===
    0x1e5e
=== CODE BLOCK END ===

=== CODE BLOCK ADDRESS 0x1e5e ===
  0x1e5e	call   	dword ptr [0x1504]
  === BLOCK LINK ===
    0x1e64
=== CODE BLOCK END ===

=== CODE BLOCK ADDRESS 0x1e64 ===
  0x1e64	nop    	dword ptr [eax + eax]
  0x1e69	test   	eax, eax
  0x1e6b	jne    	0x1e73
  === BLOCK LINK ===
    0x1e6d
=== CODE BLOCK END ===

=== CODE BLOCK ADDRESS 0x1e6d ===
  0x1e6d	mov    	dword ptr [edi], 0xfde9
  0x1e73	xor    	eax, eax
  0x1e75	dec    	eax
  0x1e76	mov    	ebx, dword ptr [esp + 0x40]
  0x1e7a	dec    	eax
  === BLOCK LINK ===
    0x1e7b
=== CODE BLOCK END ===

=== CODE BLOCK ADDRESS 0x1e7b ===
  0x1e7b	add    	esp, 0x20
  0x1e7e	pop    	edi
  0x1e7f	ret    	
  0x1e80	int3   	
  0x1e81	int3   	
  === BLOCK LINK ===
    0x1e82
=== CODE BLOCK END ===

=== CODE BLOCK ADDRESS 0x1300 ===
  0x1300	dec    	eax
  0x1301	mov    	ecx, edi
  0x1303	dec    	eax
  0x1304	call   	dword ptr [0x2076]
  === BLOCK LINK ===
    0x130a
=== CODE BLOCK END ===

=== CODE BLOCK ADDRESS 0x1e82 ===
  0x1e82	int3   	
  0x1e83	int3   	
  0x1e84	int3   	
  0x1e85	int3   	
  0x1e86	int3   	
  === BLOCK LINK ===
    0x1e87
=== CODE BLOCK END ===

=== CODE BLOCK ADDRESS 0x1e87 ===
  0x1e87	int3   	
  0x1e88	dec    	eax
  0x1e89	mov    	dword ptr [esp + 0x18], ebx
  0x1e8d	dec    	eax
  0x1e8e	mov    	dword ptr [esp + 0x20], ebp
  === BLOCK LINK ===
    0x1e92
=== CODE BLOCK END ===

=== CODE BLOCK ADDRESS 0x1e92 ===
  0x1e92	push   	esi
  0x1e93	push   	edi
  0x1e94	inc    	ecx
  0x1e95	push   	esp
  0x1e96	inc    	ecx
  === BLOCK LINK ===
    0x1e97
=== CODE BLOCK END ===

=== CODE BLOCK ADDRESS 0x1e97 ===
  0x1e97	push   	esi
  0x1e98	inc    	ecx
  0x1e99	push   	edi
  0x1e9a	dec    	eax
  0x1e9b	sub    	esp, 0x100
  === BLOCK LINK ===
    0x1ea1
=== CODE BLOCK END ===

=== CODE BLOCK ADDRESS 0x1ea1 ===
  0x1ea1	dec    	eax
  0x1ea2	mov    	eax, dword ptr [0x3160]
  0x1ea8	dec    	eax
  0x1ea9	xor    	eax, esp
  0x1eab	dec    	eax
  === BLOCK LINK ===
    0x1eac
=== CODE BLOCK END ===

=== CODE BLOCK ADDRESS 0x1eac ===
  0x1eac	mov    	dword ptr [esp + 0xf0], eax
  0x1eb3	inc    	ebp
  0x1eb4	xor    	esi, esi
  0x1eb6	dec    	esp
  0x1eb7	mov    	edi, edx
  === BLOCK LINK ===
    0x1eb9
=== CODE BLOCK END ===

=== CODE BLOCK ADDRESS 0x1eb9 ===
  0x1eb9	dec    	eax
  0x1eba	mov    	edi, ecx
  0x1ebc	xor    	esi, esi
  0x1ebe	inc    	ebp
  0x1ebf	lea    	esp, [esi + 1]
  === BLOCK LINK ===
    0x1ec2
=== CODE BLOCK END ===

=== CODE BLOCK ADDRESS 0x1ec2 ===
  0x1ec2	inc    	ecx
  0x1ec3	mov    	ebx, esp
  0x1ec5	mov    	dword ptr [esp + 0x40], ebx
  0x1ec9	dec    	eax
  0x1eca	call   	dword ptr [0x1428]
  === BLOCK LINK ===
    0x1ed0
=== CODE BLOCK END ===

=== CODE BLOCK ADDRESS 0x1ed0 ===
  0x1ed0	nop    	dword ptr [eax + eax]
  0x1ed5	dec    	eax
  0x1ed6	mov    	ecx, edi
  0x1ed8	dec    	eax
  0x1ed9	call   	dword ptr [0x1431]
  === BLOCK LINK ===
    0x1edf
=== CODE BLOCK END ===

=== CODE BLOCK ADDRESS 0x1edf ===
  0x1edf	nop    	dword ptr [eax + eax]
  0x1ee4	mov    	ecx, eax
  0x1ee6	dec    	eax
  0x1ee7	call   	dword ptr [0x1403]
  === BLOCK LINK ===
    0x1eed
=== CODE BLOCK END ===

=== CODE BLOCK ADDRESS 0x1eed ===
  0x1eed	nop    	dword ptr [eax + eax]
  0x1ef2	dec    	eax
  0x1ef3	cmp    	eax, -1
  0x1ef6	je     	0x1f11
  === BLOCK LINK ===
    0x1ef8
=== CODE BLOCK END ===

=== CODE BLOCK ADDRESS 0x1ef8 ===
  0x1ef8	dec    	eax
  0x1ef9	mov    	edx, eax
  0x1efb	dec    	eax
  0x1efc	lea    	ecx, [esp + 0x40]
  0x1f00	call   	0x1d3c
  === BLOCK LINK ===
    0x1f05
=== CODE BLOCK END ===

=== CODE BLOCK ADDRESS 0x1f05 ===
  0x1f05	mov    	ebx, dword ptr [esp + 0x40]
  0x1f09	test   	eax, eax
  0x1f0b	jne    	0x1f11
  === BLOCK LINK ===
    0x1f0d
=== CODE BLOCK END ===

=== CODE BLOCK ADDRESS 0x1f0d ===
  0x1f0d	test   	ebx, ebx
  0x1f0f	je     	0x1f36
  === BLOCK LINK ===
    0x1f11
=== CODE BLOCK END ===

=== CODE BLOCK ADDRESS 0x1f11 ===
  0x1f11	dec    	eax
  0x1f12	mov    	ecx, edi
  0x1f14	dec    	eax
  0x1f15	call   	dword ptr [0x13f5]
  === BLOCK LINK ===
    0x1f1b
=== CODE BLOCK END ===

=== CODE BLOCK ADDRESS 0x1f1b ===
  0x1f1b	nop    	dword ptr [eax + eax]
  0x1f20	mov    	ecx, eax
  0x1f22	mov    	edx, 0x20000
  0x1f27	dec    	eax
  0x1f28	call   	dword ptr [0x13d2]
  === BLOCK LINK ===
    0x1f2e
=== CODE BLOCK END ===

=== CODE BLOCK ADDRESS 0x1f2e ===
  0x1f2e	nop    	dword ptr [eax + eax]
  0x1f33	inc    	esp
  0x1f34	mov    	esi, eax
  0x1f36	inc    	ecx
  0x1f37	mov    	eax, 0x50
  === BLOCK LINK ===
    0x1f3c
=== CODE BLOCK END ===

=== CODE BLOCK ADDRESS 0x1f3c ===
  0x1f3c	dec    	eax
  0x1f3d	lea    	edx, [esp + 0x50]
  0x1f41	dec    	eax
  0x1f42	lea    	ecx, [0x14e8]
  0x1f48	dec    	eax
  === BLOCK LINK ===
    0x1f49
=== CODE BLOCK END ===

=== CODE BLOCK ADDRESS 0x1f49 ===
  0x1f49	call   	dword ptr [0x12d9]
  === BLOCK LINK ===
    0x1f4f
=== CODE BLOCK END ===

=== CODE BLOCK ADDRESS 0x1f4f ===
  0x1f4f	nop    	dword ptr [eax + eax]
  0x1f54	inc    	esp
  0x1f55	mov    	dword ptr [esp + 0x40], esp
  0x1f59	test   	eax, eax
  0x1f5b	je     	0x1f78
  === BLOCK LINK ===
    0x1f5d
=== CODE BLOCK END ===

=== CODE BLOCK ADDRESS 0x1f5d ===
  0x1f5d	inc    	esp
  0x1f5e	mov    	eax, eax
  0x1f60	dec    	eax
  0x1f61	lea    	edx, [esp + 0x50]
  0x1f65	dec    	eax
  === BLOCK LINK ===
    0x1f66
=== CODE BLOCK END ===

=== CODE BLOCK ADDRESS 0x1f66 ===
  0x1f66	lea    	ecx, [esp + 0x40]
  0x1f6a	call   	0x1de4
  === BLOCK LINK ===
    0x1f6f
=== CODE BLOCK END ===

=== CODE BLOCK ADDRESS 0x1f6f ===
  0x1f6f	inc    	esp
  0x1f70	mov    	esp, dword ptr [esp + 0x40]
  0x1f74	mov    	ebp, eax
  0x1f76	jmp    	0x1f7a
  === BLOCK LINK ===
    0x1f78
=== CODE BLOCK END ===

=== CODE BLOCK ADDRESS 0x1f78 ===
  0x1f78	xor    	ebp, ebp
  0x1f7a	test   	ebx, ebx
  0x1f7c	jne    	0x2089
  === BLOCK LINK ===
    0x1f82
=== CODE BLOCK END ===

=== CODE BLOCK ADDRESS 0x1f82 ===
  0x1f82	lea    	edx, [ebx + 0xd]
  0x1f85	dec    	ecx
  0x1f86	mov    	ecx, edi
  0x1f88	dec    	eax
  0x1f89	call   	dword ptr [0x1389]
  === BLOCK LINK ===
    0x1f8f
=== CODE BLOCK END ===

=== CODE BLOCK ADDRESS 0x1f8f ===
  0x1f8f	nop    	dword ptr [eax + eax]
  0x1f94	dec    	eax
  0x1f95	mov    	ecx, edi
  0x1f97	dec    	eax
  0x1f98	test   	eax, eax
  === BLOCK LINK ===
    0x1f9a
=== CODE BLOCK END ===

=== CODE BLOCK ADDRESS 0x1f9a ===
  0x1f9a	je     	0x1faf
  === BLOCK LINK ===
    0x1f9c
=== CODE BLOCK END ===

=== CODE BLOCK ADDRESS 0x1f9c ===
  0x1f9c	dec    	eax
  0x1f9d	call   	dword ptr [0x136d]
  === BLOCK LINK ===
    0x1fa3
=== CODE BLOCK END ===

=== CODE BLOCK ADDRESS 0x1fa3 ===
  0x1fa3	nop    	dword ptr [eax + eax]
  0x1fa8	mov    	edx, 0x8000
  0x1fad	jmp    	0x1fcd
  === BLOCK LINK ===
    0x1faf
=== CODE BLOCK END ===

=== CODE BLOCK ADDRESS 0x1faf ===
  0x1faf	mov    	eax, ebp
  0x1fb1	neg    	eax
  0x1fb3	sbb    	ebx, ebx
  0x1fb5	and    	ebx, 0x1c000
  0x1fbb	dec    	eax
  === BLOCK LINK ===
    0x1fbc
=== CODE BLOCK END ===

=== CODE BLOCK ADDRESS 0x1fbc ===
  0x1fbc	call   	dword ptr [0x134e]
  === BLOCK LINK ===
    0x1fc2
=== CODE BLOCK END ===

=== CODE BLOCK ADDRESS 0x1fc2 ===
  0x1fc2	nop    	dword ptr [eax + eax]
  0x1fc7	lea    	edx, [ebx + 0x4000]
  0x1fcd	mov    	ecx, eax
  0x1fcf	dec    	eax
  0x1fd0	call   	dword ptr [0x132a]
  === BLOCK LINK ===
    0x1fd6
=== CODE BLOCK END ===

=== CODE BLOCK ADDRESS 0x1fd6 ===
  0x1fd6	nop    	dword ptr [eax + eax]
  0x1fdb	inc    	esp
  0x1fdc	mov    	esi, eax
  0x1fde	test   	ebp, ebp
  0x1fe0	jne    	0x2089
  === BLOCK LINK ===
    0x1fe6
=== CODE BLOCK END ===

=== CODE BLOCK ADDRESS 0x1fe6 ===
  0x1fe6	dec    	eax
  0x1fe7	and    	dword ptr [esp + 0x38], esi
  0x1feb	inc    	ecx
  0x1fec	or     	ecx, 0xffffffff
  0x1fef	dec    	eax
  === BLOCK LINK ===
    0x1ff0
=== CODE BLOCK END ===

=== CODE BLOCK ADDRESS 0x1ff0 ===
  0x1ff0	and    	dword ptr [esp + 0x30], esi
  0x1ff4	dec    	ebp
  0x1ff5	mov    	eax, edi
  0x1ff7	and    	dword ptr [esp + 0x28], esi
  0x1ffb	xor    	edx, edx
  === BLOCK LINK ===
    0x1ffd
=== CODE BLOCK END ===

=== CODE BLOCK ADDRESS 0x1ffd ===
  0x1ffd	dec    	eax
  0x1ffe	and    	dword ptr [esp + 0x20], esi
  0x2002	inc    	ecx
  0x2003	mov    	ecx, esp
  0x2005	dec    	eax
  === BLOCK LINK ===
    0x2006
=== CODE BLOCK END ===

=== CODE BLOCK ADDRESS 0x2006 ===
  0x2006	call   	dword ptr [0x1284]
  === BLOCK LINK ===
    0x200c
=== CODE BLOCK END ===

=== CODE BLOCK ADDRESS 0x200c ===
  0x200c	nop    	dword ptr [eax + eax]
  0x2011	dec    	eax
  0x2012	arpl   	ax, bx
  0x2014	test   	eax, eax
  0x2016	je     	0x20a2
  === BLOCK LINK ===
    0x201c
=== CODE BLOCK END ===

=== CODE BLOCK ADDRESS 0x201c ===
  0x201c	dec    	eax
  0x201d	mov    	edx, ebx
  0x201f	lea    	ecx, [ebp + 0x40]
  0x2022	dec    	eax
  0x2023	call   	dword ptr [0x11bf]
  === BLOCK LINK ===
    0x2029
=== CODE BLOCK END ===

=== CODE BLOCK ADDRESS 0x2029 ===
  0x2029	nop    	dword ptr [eax + eax]
  0x202e	dec    	eax
  0x202f	mov    	esi, eax
  0x2031	dec    	eax
  0x2032	test   	eax, eax
  === BLOCK LINK ===
    0x2034
=== CODE BLOCK END ===

=== CODE BLOCK ADDRESS 0x2034 ===
  0x2034	je     	0x20a2
  === BLOCK LINK ===
    0x2036
=== CODE BLOCK END ===

=== CODE BLOCK ADDRESS 0x2036 ===
  0x2036	dec    	eax
  0x2037	and    	dword ptr [esp + 0x38], 0
  0x203c	inc    	ecx
  0x203d	or     	ecx, 0xffffffff
  0x2040	dec    	eax
  === BLOCK LINK ===
    0x2041
=== CODE BLOCK END ===

=== CODE BLOCK ADDRESS 0x2041 ===
  0x2041	and    	dword ptr [esp + 0x30], 0
  0x2046	dec    	ebp
  0x2047	mov    	eax, edi
  0x2049	mov    	dword ptr [esp + 0x28], ebx
  0x204d	xor    	edx, edx
  === BLOCK LINK ===
    0x204f
=== CODE BLOCK END ===

=== CODE BLOCK ADDRESS 0x204f ===
  0x204f	inc    	ecx
  0x2050	mov    	ecx, esp
  0x2052	dec    	eax
  0x2053	mov    	dword ptr [esp + 0x20], eax
  0x2057	dec    	eax
  === BLOCK LINK ===
    0x2058
=== CODE BLOCK END ===

=== CODE BLOCK ADDRESS 0x2058 ===
  0x2058	call   	dword ptr [0x1232]
  === BLOCK LINK ===
    0x205e
=== CODE BLOCK END ===

=== CODE BLOCK ADDRESS 0x205e ===
  0x205e	nop    	dword ptr [eax + eax]
  0x2063	dec    	eax
  0x2064	mov    	ecx, edi
  0x2066	dec    	eax
  0x2067	call   	dword ptr [0x12a3]
  === BLOCK LINK ===
    0x206d
=== CODE BLOCK END ===

=== CODE BLOCK ADDRESS 0x206d ===
  0x206d	nop    	dword ptr [eax + eax]
  0x2072	inc    	esp
  0x2073	lea    	eax, [ebx - 1]
  0x2076	dec    	eax
  0x2077	mov    	edx, esi
  === BLOCK LINK ===
    0x2079
=== CODE BLOCK END ===

=== CODE BLOCK ADDRESS 0x2079 ===
  0x2079	mov    	ecx, eax
  0x207b	dec    	eax
  0x207c	call   	dword ptr [0x1286]
  === BLOCK LINK ===
    0x2082
=== CODE BLOCK END ===

=== CODE BLOCK ADDRESS 0x2082 ===
  0x2082	nop    	dword ptr [eax + eax]
  0x2087	jmp    	0x20a2
  === BLOCK LINK ===
    0x2089
=== CODE BLOCK END ===

=== CODE BLOCK ADDRESS 0x2089 ===
  0x2089	dec    	ebp
  0x208a	mov    	eax, edi
  0x208c	dec    	eax
  0x208d	lea    	edx, [0x1405]
  0x2093	dec    	eax
  === BLOCK LINK ===
    0x2094
=== CODE BLOCK END ===

=== CODE BLOCK ADDRESS 0x2094 ===
  0x2094	mov    	ecx, edi
  0x2096	dec    	eax
  0x2097	call   	dword ptr [0x128b]
  === BLOCK LINK ===
    0x209d
=== CODE BLOCK END ===

=== CODE BLOCK ADDRESS 0x209d ===
  0x209d	nop    	dword ptr [eax + eax]
  0x20a2	dec    	eax
  0x20a3	mov    	ecx, edi
  0x20a5	dec    	eax
  0x20a6	call   	dword ptr [0x124c]
  === BLOCK LINK ===
    0x20ac
=== CODE BLOCK END ===

=== CODE BLOCK ADDRESS 0x20ac ===
  0x20ac	nop    	dword ptr [eax + eax]
  0x20b1	dec    	eax
  0x20b2	mov    	ecx, edi
  0x20b4	dec    	eax
  0x20b5	call   	dword ptr [0x1255]
  === BLOCK LINK ===
    0x20bb
=== CODE BLOCK END ===

=== CODE BLOCK ADDRESS 0x20bb ===
  0x20bb	nop    	dword ptr [eax + eax]
  0x20c0	mov    	ecx, eax
  0x20c2	inc    	ecx
  0x20c3	mov    	edx, esi
  0x20c5	dec    	eax
  === BLOCK LINK ===
    0x20c6
=== CODE BLOCK END ===

=== CODE BLOCK ADDRESS 0x20c6 ===
  0x20c6	call   	dword ptr [0x1234]
  === BLOCK LINK ===
    0x20cc
=== CODE BLOCK END ===

=== CODE BLOCK ADDRESS 0x20cc ===
  0x20cc	nop    	dword ptr [eax + eax]
  0x20d1	dec    	eax
  0x20d2	test   	esi, esi
  0x20d4	je     	0x20e5
  === BLOCK LINK ===
    0x20d6
=== CODE BLOCK END ===

=== CODE BLOCK ADDRESS 0x20d6 ===
  0x20d6	dec    	eax
  0x20d7	mov    	ecx, esi
  0x20d9	dec    	eax
  0x20da	call   	dword ptr [0x1110]
  === BLOCK LINK ===
    0x20e0
=== CODE BLOCK END ===

=== CODE BLOCK ADDRESS 0x20e0 ===
  0x20e0	nop    	dword ptr [eax + eax]
  0x20e5	dec    	eax
  0x20e6	mov    	ecx, dword ptr [esp + 0xf0]
  0x20ed	dec    	eax
  0x20ee	xor    	ecx, esp
  === BLOCK LINK ===
    0x20f0
=== CODE BLOCK END ===

=== CODE BLOCK ADDRESS 0x20f0 ===
  0x20f0	call   	0x24d0
  === BLOCK LINK ===
    0x20f5
=== CODE BLOCK END ===

=== CODE BLOCK ADDRESS 0x20f5 ===
  0x20f5	dec    	esp
  0x20f6	lea    	ebx, [esp + 0x100]
  0x20fd	dec    	ecx
  0x20fe	mov    	ebx, dword ptr [ebx + 0x40]
  0x2101	dec    	ecx
  === BLOCK LINK ===
    0x2102
=== CODE BLOCK END ===

=== CODE BLOCK ADDRESS 0x2102 ===
  0x2102	mov    	ebp, dword ptr [ebx + 0x48]
  0x2105	dec    	ecx
  0x2106	mov    	esp, ebx
  0x2108	inc    	ecx
  0x2109	pop    	edi
  === BLOCK LINK ===
    0x210a
=== CODE BLOCK END ===

=== CODE BLOCK ADDRESS 0x210a ===
  0x210a	inc    	ecx
  0x210b	pop    	esi
  0x210c	inc    	ecx
  0x210d	pop    	esp
  0x210e	pop    	edi
  === BLOCK LINK ===
    0x210f
=== CODE BLOCK END ===

=== CODE BLOCK ADDRESS 0x210f ===
  0x210f	pop    	esi
  0x2110	ret    	
  0x2111	int3   	
  0x2112	int3   	
  0x2113	int3   	
  === BLOCK LINK ===
    0x2114
=== CODE BLOCK END ===

=== CODE BLOCK ADDRESS 0x1bf8 ===
  0x1bf8	dec    	eax
  0x1bf9	mov    	dword ptr [esp + 0x10], ebx
  === BLOCK LINK ===
    0x1bfd
=== CODE BLOCK END ===

=== CODE BLOCK ADDRESS 0x2114 ===
  0x2114	int3   	
  0x2115	int3   	
  0x2116	int3   	
  0x2117	int3   	
  0x2118	mov    	dword ptr [esp + 0x10], edx
  === BLOCK LINK ===
    0x211c
=== CODE BLOCK END ===

=== CODE BLOCK ADDRESS 0x211c ===
  0x211c	dec    	esp
  0x211d	mov    	ebx, esp
  0x211f	dec    	ebp
  0x2120	mov    	dword ptr [ebx + 0x18], eax
  0x2123	dec    	ebp
  === BLOCK LINK ===
    0x2124
=== CODE BLOCK END ===

=== CODE BLOCK ADDRESS 0x2124 ===
  0x2124	mov    	dword ptr [ebx + 0x20], ecx
  0x2127	push   	ebx
  0x2128	dec    	eax
  0x2129	sub    	esp, 0x50
  0x212c	dec    	ecx
  === BLOCK LINK ===
    0x212d
=== CODE BLOCK END ===

=== CODE BLOCK ADDRESS 0x212d ===
  0x212d	lea    	eax, [ebx + 0x18]
  0x2130	dec    	eax
  0x2131	mov    	ebx, ecx
  0x2133	dec    	ecx
  0x2134	mov    	dword ptr [ebx - 0x10], eax
  === BLOCK LINK ===
    0x2137
=== CODE BLOCK END ===

=== CODE BLOCK ADDRESS 0x2137 ===
  0x2137	inc    	esp
  0x2138	mov    	eax, edx
  0x213a	dec    	eax
  0x213b	mov    	edx, dword ptr [0x3517]
  0x2141	dec    	ecx
  === BLOCK LINK ===
    0x2142
=== CODE BLOCK END ===

=== CODE BLOCK ADDRESS 0x2142 ===
  0x2142	lea    	eax, [ebx - 0x10]
  0x2145	dec    	ecx
  0x2146	mov    	dword ptr [ebx - 0x28], eax
  0x2149	inc    	ebp
  0x214a	xor    	ecx, ecx
  === BLOCK LINK ===
    0x214c
=== CODE BLOCK END ===

=== CODE BLOCK ADDRESS 0x214c ===
  0x214c	and    	dword ptr [esp + 0x28], 0
  0x2151	dec    	ecx
  0x2152	lea    	eax, [ebx - 0x18]
  0x2155	mov    	ecx, 0x900
  0x215a	dec    	ecx
  === BLOCK LINK ===
    0x215b
=== CODE BLOCK END ===

=== CODE BLOCK ADDRESS 0x215b ===
  0x215b	mov    	dword ptr [ebx - 0x38], eax
  0x215e	dec    	eax
  0x215f	call   	dword ptr [0x10b3]
  === BLOCK LINK ===
    0x2165
=== CODE BLOCK END ===

=== CODE BLOCK ADDRESS 0x2165 ===
  0x2165	nop    	dword ptr [eax + eax]
  0x216a	test   	eax, eax
  0x216c	je     	0x218c
  === BLOCK LINK ===
    0x216e
=== CODE BLOCK END ===

=== CODE BLOCK ADDRESS 0x216e ===
  0x216e	dec    	eax
  0x216f	mov    	edx, dword ptr [esp + 0x40]
  0x2173	dec    	eax
  0x2174	mov    	ecx, ebx
  0x2176	call   	0x1e88
  === BLOCK LINK ===
    0x217b
=== CODE BLOCK END ===

=== CODE BLOCK ADDRESS 0x217b ===
  0x217b	dec    	eax
  0x217c	mov    	ecx, dword ptr [esp + 0x40]
  0x2180	dec    	eax
  0x2181	call   	dword ptr [0x1069]
  === BLOCK LINK ===
    0x2187
=== CODE BLOCK END ===

=== CODE BLOCK ADDRESS 0x2187 ===
  0x2187	nop    	dword ptr [eax + eax]
  0x218c	dec    	eax
  0x218d	add    	esp, 0x50
  0x2190	pop    	ebx
  0x2191	ret    	
  === BLOCK LINK ===
    0x2192
=== CODE BLOCK END ===

=== CODE BLOCK ADDRESS 0x2192 ===
  0x2192	int3   	
  0x2193	int3   	
  0x2194	int3   	
  0x2195	int3   	
  0x2196	int3   	
  === BLOCK LINK ===
    0x2197
=== CODE BLOCK END ===

=== CODE BLOCK ADDRESS 0x2197 ===
  0x2197	int3   	
  0x2198	int3   	
  0x2199	int3   	
  0x219a	int3   	
  0x219b	int3   	
  === BLOCK LINK ===
    0x219c
=== CODE BLOCK END ===

=== CODE BLOCK ADDRESS 0x219c ===
  0x219c	int3   	
  0x219d	int3   	
  0x219e	int3   	
  0x219f	int3   	
  0x21a0	dec    	eax
  === BLOCK LINK ===
    0x21a1
=== CODE BLOCK END ===

=== CODE BLOCK ADDRESS 0x21a1 ===
  0x21a1	sub    	esp, 0x28
  0x21a4	mov    	eax, 0x5a4d
  0x21a9	cmp    	word ptr [0xffffde50], ax
  0x21b0	je     	0x21b6
  === BLOCK LINK ===
    0x21b2
=== CODE BLOCK END ===

=== CODE BLOCK ADDRESS 0x21b2 ===
  0x21b2	xor    	eax, eax
  0x21b4	jmp    	0x2209
  === BLOCK LINK ===
    0x21b6
=== CODE BLOCK END ===

=== CODE BLOCK ADDRESS 0x21b6 ===
  0x21b6	dec    	eax
  0x21b7	arpl   	word ptr [0xffffde7f], cx
  0x21bd	dec    	eax
  0x21be	lea    	eax, [0xffffde3c]
  0x21c4	dec    	eax
  === BLOCK LINK ===
    0x21c5
=== CODE BLOCK END ===

=== CODE BLOCK ADDRESS 0x21c5 ===
  0x21c5	add    	ecx, eax
  0x21c7	cmp    	dword ptr [ecx], 0x4550
  0x21cd	jne    	0x21b2
  === BLOCK LINK ===
    0x21cf
=== CODE BLOCK END ===

=== CODE BLOCK ADDRESS 0x21cf ===
  0x21cf	mov    	eax, 0x10b
  0x21d4	cmp    	word ptr [ecx + 0x18], ax
  0x21d8	je     	0x21f8
  === BLOCK LINK ===
    0x21da
=== CODE BLOCK END ===

=== CODE BLOCK ADDRESS 0x21da ===
  0x21da	mov    	eax, 0x20b
  0x21df	cmp    	word ptr [ecx + 0x18], ax
  0x21e3	jne    	0x21b2
  === BLOCK LINK ===
    0x21e5
=== CODE BLOCK END ===

=== CODE BLOCK ADDRESS 0x21e5 ===
  0x21e5	xor    	eax, eax
  0x21e7	cmp    	dword ptr [ecx + 0x84], 0xe
  0x21ee	jbe    	0x2209
  === BLOCK LINK ===
    0x21f0
=== CODE BLOCK END ===

=== CODE BLOCK ADDRESS 0x21f0 ===
  0x21f0	cmp    	dword ptr [ecx + 0xf8], eax
  0x21f6	jmp    	0x2206
  === BLOCK LINK ===
    0x21f8
=== CODE BLOCK END ===

=== CODE BLOCK ADDRESS 0x21f8 ===
  0x21f8	xor    	eax, eax
  0x21fa	cmp    	dword ptr [ecx + 0x74], 0xe
  0x21fe	jbe    	0x2209
  === BLOCK LINK ===
    0x2200
=== CODE BLOCK END ===

=== CODE BLOCK ADDRESS 0x2200 ===
  0x2200	cmp    	dword ptr [ecx + 0xe8], eax
  0x2206	setne  	al
  0x2209	mov    	ecx, 1
  0x220e	mov    	dword ptr [0x2eac], eax
  0x2214	call   	0x25c8
  === BLOCK LINK ===
    0x2219
=== CODE BLOCK END ===

=== CODE BLOCK ADDRESS 0x2219 ===
  0x2219	mov    	ecx, eax
  0x221b	call   	dword ptr [0x112f]
  === BLOCK LINK ===
    0x2221
=== CODE BLOCK END ===

=== CODE BLOCK ADDRESS 0x2221 ===
  0x2221	dec    	eax
  0x2222	mov    	ecx, dword ptr [0x10b0]
  0x2228	dec    	eax
  0x2229	or     	eax, 0xffffffff
  0x222c	dec    	eax
  === BLOCK LINK ===
    0x222d
=== CODE BLOCK END ===

=== CODE BLOCK ADDRESS 0x222d ===
  0x222d	mov    	dword ptr [0x3c55], eax
  0x2233	dec    	eax
  0x2234	mov    	dword ptr [0x3c56], eax
  0x223a	mov    	eax, dword ptr [0x2e94]
  0x2240	mov    	dword ptr [ecx], eax
  === BLOCK LINK ===
    0x2242
=== CODE BLOCK END ===

=== CODE BLOCK ADDRESS 0x2242 ===
  0x2242	dec    	eax
  0x2243	mov    	ecx, dword ptr [0x1087]
  0x2249	mov    	eax, dword ptr [0x2e79]
  0x224f	mov    	dword ptr [ecx], eax
  0x2251	call   	0x2620
  === BLOCK LINK ===
    0x2256
=== CODE BLOCK END ===

=== CODE BLOCK ADDRESS 0x2256 ===
  0x2256	cmp    	dword ptr [0x2da3], 0
  0x225d	jne    	0x226c
  === BLOCK LINK ===
    0x225f
=== CODE BLOCK END ===

=== CODE BLOCK ADDRESS 0x225f ===
  0x225f	dec    	eax
  0x2260	lea    	ecx, [0x3ba]
  0x2266	call   	dword ptr [0x10cc]
  === BLOCK LINK ===
    0x226c
=== CODE BLOCK END ===

=== CODE BLOCK ADDRESS 0x226c ===
  0x226c	xor    	eax, eax
  0x226e	dec    	eax
  0x226f	add    	esp, 0x28
  0x2272	ret    	
  0x2273	int3   	
  === BLOCK LINK ===
    0x2274
=== CODE BLOCK END ===

=== CODE BLOCK ADDRESS 0x114a ===
=== CODE BLOCK END ===

=== CODE BLOCK ADDRESS 0x2274 ===
  0x2274	int3   	
  0x2275	int3   	
  0x2276	int3   	
  0x2277	int3   	
  0x2278	int3   	
  === BLOCK LINK ===
    0x2279
=== CODE BLOCK END ===

=== CODE BLOCK ADDRESS 0x2279 ===
  0x2279	int3   	
  0x227a	int3   	
  0x227b	int3   	
  0x227c	int3   	
  0x227d	int3   	
  === BLOCK LINK ===
    0x227e
=== CODE BLOCK END ===

=== CODE BLOCK ADDRESS 0x227e ===
  0x227e	int3   	
  0x227f	int3   	
  0x2280	dec    	eax
  0x2281	sub    	esp, 0x38
  0x2284	mov    	eax, dword ptr [0x2e46]
  === BLOCK LINK ===
    0x228a
=== CODE BLOCK END ===

=== CODE BLOCK ADDRESS 0x228a ===
  0x228a	dec    	esp
  0x228b	lea    	eax, [0x2e27]
  0x2291	inc    	esp
  0x2292	mov    	ecx, dword ptr [0x2e34]
  0x2298	dec    	eax
  === BLOCK LINK ===
    0x2299
=== CODE BLOCK END ===

=== CODE BLOCK ADDRESS 0x2299 ===
  0x2299	lea    	edx, [0x2e11]
  0x229f	mov    	dword ptr [0x2e1f], eax
  0x22a5	dec    	eax
  0x22a6	lea    	ecx, [0x2dfc]
  0x22ac	dec    	eax
  === BLOCK LINK ===
    0x22ad
=== CODE BLOCK END ===

=== CODE BLOCK ADDRESS 0x22ad ===
  0x22ad	lea    	eax, [0x2e11]
  0x22b3	dec    	eax
  0x22b4	mov    	dword ptr [esp + 0x20], eax
  0x22b8	call   	dword ptr [0x109a]
  === BLOCK LINK ===
    0x22be
=== CODE BLOCK END ===

=== CODE BLOCK ADDRESS 0x22be ===
  0x22be	mov    	dword ptr [0x2de8], eax
  0x22c4	dec    	eax
  0x22c5	add    	esp, 0x38
  0x22c8	ret    	
  0x22c9	int3   	
  === BLOCK LINK ===
    0x22ca
=== CODE BLOCK END ===

=== CODE BLOCK ADDRESS 0x1166 ===
  0x1166	movzx  	eax, dx
  0x1169	mov    	ecx, edx
  === BLOCK LINK ===
    0x116b
=== CODE BLOCK END ===

=== CODE BLOCK ADDRESS 0x22ca ===
  0x22ca	int3   	
  0x22cb	int3   	
  0x22cc	int3   	
  0x22cd	int3   	
  0x22ce	int3   	
  === BLOCK LINK ===
    0x22cf
=== CODE BLOCK END ===

=== CODE BLOCK ADDRESS 0x22cf ===
  0x22cf	int3   	
  0x22d0	dec    	eax
  0x22d1	mov    	dword ptr [esp + 8], ebx
  0x22d5	dec    	eax
  0x22d6	mov    	dword ptr [esp + 0x10], esi
  === BLOCK LINK ===
    0x22da
=== CODE BLOCK END ===

=== CODE BLOCK ADDRESS 0x22da ===
  0x22da	dec    	eax
  0x22db	mov    	dword ptr [esp + 0x18], edi
  0x22df	inc    	ecx
  0x22e0	push   	edi
  0x22e1	dec    	eax
  === BLOCK LINK ===
    0x22e2
=== CODE BLOCK END ===

=== CODE BLOCK ADDRESS 0x22e2 ===
  0x22e2	sub    	esp, 0x30
  0x22e5	dec    	eax
  0x22e7	mov    	eax, dword ptr [0x30]
  0x22ee	dec    	eax
  0x22ef	mov    	ebx, dword ptr [eax + 8]
  === BLOCK LINK ===
    0x22f2
=== CODE BLOCK END ===

=== CODE BLOCK ADDRESS 0x22f2 ===
  0x22f2	xor    	esi, esi
  0x22f4	xor    	eax, eax
  0x22f6	.byte  	0xf0
  0x22f7	dec    	eax
  0x22f8	cmpxchg  	dword ptr [0x3b99], ebx
  === BLOCK LINK ===
    0x22ff
=== CODE BLOCK END ===

=== CODE BLOCK ADDRESS 0x22ff ===
  0x22ff	je     	0x231c
  === BLOCK LINK ===
    0x2301
=== CODE BLOCK END ===

=== CODE BLOCK ADDRESS 0x2301 ===
  0x2301	dec    	eax
  0x2302	cmp    	eax, ebx
  0x2304	jne    	0x230f
  === BLOCK LINK ===
    0x2306
=== CODE BLOCK END ===

=== CODE BLOCK ADDRESS 0x2306 ===
  0x2306	mov    	ebx, 1
  0x230b	mov    	esi, ebx
  0x230d	jmp    	0x2321
  === BLOCK LINK ===
    0x230f
=== CODE BLOCK END ===

=== CODE BLOCK ADDRESS 0x230f ===
  0x230f	mov    	ecx, 0x3e8
  0x2314	call   	dword ptr [0xf86]
  === BLOCK LINK ===
    0x231a
=== CODE BLOCK END ===

=== CODE BLOCK ADDRESS 0x231a ===
  0x231a	jmp    	0x22f4
  === BLOCK LINK ===
    0x231c
=== CODE BLOCK END ===

=== CODE BLOCK ADDRESS 0x231c ===
  0x231c	mov    	ebx, 1
  0x2321	mov    	eax, dword ptr [0x3b79]
  0x2327	cmp    	eax, ebx
  0x2329	jne    	0x2337
  === BLOCK LINK ===
    0x232b
=== CODE BLOCK END ===

=== CODE BLOCK ADDRESS 0x232b ===
  0x232b	mov    	ecx, 0x1f
  0x2330	call   	0x2613
  === BLOCK LINK ===
    0x2335
=== CODE BLOCK END ===

=== CODE BLOCK ADDRESS 0x2335 ===
  0x2335	jmp    	0x239c
  === BLOCK LINK ===
    0x2337
=== CODE BLOCK END ===

=== CODE BLOCK ADDRESS 0x2337 ===
  0x2337	mov    	eax, dword ptr [0x3b63]
  0x233d	test   	eax, eax
  0x233f	jne    	0x2396
  === BLOCK LINK ===
    0x2341
=== CODE BLOCK END ===

=== CODE BLOCK ADDRESS 0x2341 ===
  0x2341	mov    	dword ptr [0x3b59], ebx
  0x2347	dec    	esp
  0x2348	lea    	edi, [0x10aa]
  0x234e	dec    	eax
  0x234f	lea    	edi, [0x108b]
  === BLOCK LINK ===
    0x2355
=== CODE BLOCK END ===

=== CODE BLOCK ADDRESS 0x2355 ===
  0x2355	dec    	eax
  0x2356	mov    	dword ptr [esp + 0x28], edi
  0x235a	mov    	dword ptr [esp + 0x20], eax
  0x235e	dec    	ecx
  0x235f	cmp    	edi, edi
  === BLOCK LINK ===
    0x2361
=== CODE BLOCK END ===

=== CODE BLOCK ADDRESS 0x2361 ===
  0x2361	jae    	0x2388
  === BLOCK LINK ===
    0x2363
=== CODE BLOCK END ===

=== CODE BLOCK ADDRESS 0x2363 ===
  0x2363	test   	eax, eax
  0x2365	jne    	0x238c
  === BLOCK LINK ===
    0x2367
=== CODE BLOCK END ===

=== CODE BLOCK ADDRESS 0x2367 ===
  0x2367	dec    	eax
  0x2368	cmp    	dword ptr [edi], 0
  0x236b	je     	0x237d
  === BLOCK LINK ===
    0x236d
=== CODE BLOCK END ===

=== CODE BLOCK ADDRESS 0x236d ===
  0x236d	dec    	eax
  0x236e	mov    	eax, dword ptr [edi]
  0x2370	dec    	eax
  0x2371	mov    	ecx, dword ptr [0x1049]
  0x2377	call   	ecx
  === BLOCK LINK ===
    0x2379
=== CODE BLOCK END ===

=== CODE BLOCK ADDRESS 0x2379 ===
  0x2379	mov    	dword ptr [esp + 0x20], eax
  0x237d	dec    	eax
  0x237e	add    	edi, 8
  0x2381	dec    	eax
  0x2382	mov    	dword ptr [esp + 0x28], edi
  === BLOCK LINK ===
    0x2386
=== CODE BLOCK END ===

=== CODE BLOCK ADDRESS 0x2386 ===
  0x2386	jmp    	0x235e
  === BLOCK LINK ===
    0x2388
=== CODE BLOCK END ===

=== CODE BLOCK ADDRESS 0x2388 ===
  0x2388	test   	eax, eax
  0x238a	je     	0x239c
  === BLOCK LINK ===
    0x238c
=== CODE BLOCK END ===

=== CODE BLOCK ADDRESS 0x238c ===
  0x238c	mov    	eax, 0xff
  0x2391	jmp    	0x2478
  === BLOCK LINK ===
    0x2396
=== CODE BLOCK END ===

=== CODE BLOCK ADDRESS 0x2396 ===
  0x2396	mov    	dword ptr [0x2d08], ebx
  0x239c	mov    	eax, dword ptr [0x3afe]
  0x23a2	cmp    	eax, ebx
  0x23a4	jne    	0x23c3
  === BLOCK LINK ===
    0x23a6
=== CODE BLOCK END ===

=== CODE BLOCK ADDRESS 0x23a6 ===
  0x23a6	dec    	eax
  0x23a7	lea    	edx, [0x102b]
  0x23ad	dec    	eax
  0x23ae	lea    	ecx, [0x1014]
  0x23b4	call   	0x27ee
  === BLOCK LINK ===
    0x23b9
=== CODE BLOCK END ===

=== CODE BLOCK ADDRESS 0x23b9 ===
  0x23b9	mov    	dword ptr [0x3add], 2
  0x23c3	test   	esi, esi
  0x23c5	jne    	0x23d0
  === BLOCK LINK ===
    0x23c7
=== CODE BLOCK END ===

=== CODE BLOCK ADDRESS 0x23c7 ===
  0x23c7	xor    	eax, eax
  0x23c9	dec    	eax
  0x23ca	xchg   	dword ptr [0x3ac8], eax
  0x23d0	dec    	eax
  0x23d1	cmp    	dword ptr [0x3ad0], 0
  === BLOCK LINK ===
    0x23d8
=== CODE BLOCK END ===

=== CODE BLOCK ADDRESS 0x23d8 ===
  0x23d8	je     	0x2404
  === BLOCK LINK ===
    0x23da
=== CODE BLOCK END ===

=== CODE BLOCK ADDRESS 0x23da ===
  0x23da	dec    	eax
  0x23db	lea    	ecx, [0x3ac7]
  0x23e1	call   	0x2680
  === BLOCK LINK ===
    0x23e6
=== CODE BLOCK END ===

=== CODE BLOCK ADDRESS 0x23e6 ===
  0x23e6	test   	eax, eax
  0x23e8	je     	0x2404
  === BLOCK LINK ===
    0x23ea
=== CODE BLOCK END ===

=== CODE BLOCK ADDRESS 0x23ea ===
  0x23ea	inc    	ebp
  0x23eb	xor    	eax, eax
  0x23ed	inc    	ecx
  0x23ee	lea    	edx, [eax + 2]
  0x23f1	xor    	ecx, ecx
  === BLOCK LINK ===
    0x23f3
=== CODE BLOCK END ===

=== CODE BLOCK ADDRESS 0x23f3 ===
  0x23f3	dec    	eax
  0x23f4	mov    	eax, dword ptr [0x3aae]
  0x23fa	dec    	esp
  0x23fb	mov    	ecx, dword ptr [0xfbf]
  0x2401	inc    	ecx
  === BLOCK LINK ===
    0x2402
=== CODE BLOCK END ===

=== CODE BLOCK ADDRESS 0x2402 ===
  0x2402	call   	ecx
  === BLOCK LINK ===
    0x2404
=== CODE BLOCK END ===

=== CODE BLOCK ADDRESS 0x2404 ===
  0x2404	dec    	esp
  0x2405	mov    	eax, dword ptr [0x2cad]
  0x240b	dec    	eax
  0x240c	mov    	edx, dword ptr [0x2c9e]
  0x2412	mov    	ecx, dword ptr [0x2c90]
  === BLOCK LINK ===
    0x2418
=== CODE BLOCK END ===

=== CODE BLOCK ADDRESS 0x2418 ===
  0x2418	call   	0x1730
  === BLOCK LINK ===
    0x241d
=== CODE BLOCK END ===

=== CODE BLOCK ADDRESS 0x241d ===
  0x241d	mov    	dword ptr [0x2c7d], eax
  0x2423	cmp    	dword ptr [0x2c96], 0
  0x242a	jne    	0x2434
  === BLOCK LINK ===
    0x242c
=== CODE BLOCK END ===

=== CODE BLOCK ADDRESS 0x242c ===
  0x242c	mov    	ecx, eax
  0x242e	call   	dword ptr [0xf5c]
  === BLOCK LINK ===
    0x2434
=== CODE BLOCK END ===

=== CODE BLOCK ADDRESS 0x2434 ===
  0x2434	cmp    	dword ptr [0x2c69], 0
  0x243b	jne    	0x2449
  === BLOCK LINK ===
    0x243d
=== CODE BLOCK END ===

=== CODE BLOCK ADDRESS 0x243d ===
  0x243d	call   	dword ptr [0xefd]
  === BLOCK LINK ===
    0x2443
=== CODE BLOCK END ===

=== CODE BLOCK ADDRESS 0x2443 ===
  0x2443	mov    	eax, dword ptr [0x2c57]
  0x2449	jmp    	0x2478
  === BLOCK LINK ===
    0x244b
=== CODE BLOCK END ===

=== CODE BLOCK ADDRESS 0x244b ===
  0x244b	mov    	dword ptr [0x2c4f], eax
  0x2451	cmp    	dword ptr [0x2c68], 0
  0x2458	jne    	0x2463
  === BLOCK LINK ===
    0x245a
=== CODE BLOCK END ===

=== CODE BLOCK ADDRESS 0x245a ===
  0x245a	mov    	ecx, eax
  0x245c	call   	dword ptr [0xee6]
  === BLOCK LINK ===
    0x2462
=== CODE BLOCK END ===

=== CODE BLOCK ADDRESS 0x2462 ===
  0x2462	int3   	
  0x2463	cmp    	dword ptr [0x2c3a], 0
  0x246a	jne    	0x2478
  === BLOCK LINK ===
    0x246c
=== CODE BLOCK END ===

=== CODE BLOCK ADDRESS 0x246c ===
  0x246c	call   	dword ptr [0xece]
  === BLOCK LINK ===
    0x2472
=== CODE BLOCK END ===

=== CODE BLOCK ADDRESS 0x2472 ===
  0x2472	mov    	eax, dword ptr [0x2c28]
  0x2478	dec    	eax
  0x2479	mov    	ebx, dword ptr [esp + 0x40]
  0x247d	dec    	eax
  0x247e	mov    	esi, dword ptr [esp + 0x48]
  === BLOCK LINK ===
    0x2482
=== CODE BLOCK END ===

=== CODE BLOCK ADDRESS 0x2482 ===
  0x2482	dec    	eax
  0x2483	mov    	edi, dword ptr [esp + 0x50]
  0x2487	dec    	eax
  0x2488	add    	esp, 0x30
  0x248b	inc    	ecx
  === BLOCK LINK ===
    0x248c
=== CODE BLOCK END ===

=== CODE BLOCK ADDRESS 0x248c ===
  0x248c	pop    	edi
  0x248d	ret    	
  0x248e	int3   	
  0x248f	int3   	
  0x2490	int3   	
  === BLOCK LINK ===
    0x2491
=== CODE BLOCK END ===

=== CODE BLOCK ADDRESS 0x2491 ===
  0x2491	int3   	
  0x2492	int3   	
  0x2493	int3   	
  0x2494	int3   	
  0x2495	int3   	
  === BLOCK LINK ===
    0x2496
=== CODE BLOCK END ===

=== CODE BLOCK ADDRESS 0x2496 ===
  0x2496	int3   	
  0x2497	int3   	
  0x2498	int3   	
  0x2499	int3   	
  0x249a	int3   	
  === BLOCK LINK ===
    0x249b
=== CODE BLOCK END ===

=== CODE BLOCK ADDRESS 0x249b ===
  0x249b	int3   	
  0x249c	int3   	
  0x249d	int3   	
  0x249e	int3   	
  0x249f	int3   	
  === BLOCK LINK ===
    0x24a0
=== CODE BLOCK END ===

=== CODE BLOCK ADDRESS 0x24a0 ===
  0x24a0	dec    	eax
  0x24a1	sub    	esp, 0x28
  0x24a4	call   	0x2714
  === BLOCK LINK ===
    0x24a9
=== CODE BLOCK END ===

=== CODE BLOCK ADDRESS 0x24a9 ===
  0x24a9	dec    	eax
  0x24aa	add    	esp, 0x28
  0x24ad	jmp    	0x22d0
  === BLOCK LINK ===
    0x24b2
=== CODE BLOCK END ===

=== CODE BLOCK ADDRESS 0x24b2 ===
  0x24b2	int3   	
  0x24b3	int3   	
  0x24b4	int3   	
  0x24b5	int3   	
  0x24b6	int3   	
  === BLOCK LINK ===
    0x24b7
=== CODE BLOCK END ===

=== CODE BLOCK ADDRESS 0x24b7 ===
  0x24b7	int3   	
  0x24b8	int3   	
  0x24b9	int3   	
  0x24ba	int3   	
  0x24bb	int3   	
  === BLOCK LINK ===
    0x24bc
=== CODE BLOCK END ===

=== CODE BLOCK ADDRESS 0x24bc ===
  0x24bc	int3   	
  0x24bd	int3   	
  0x24be	int3   	
  0x24bf	int3   	
  0x24c0	int3   	
  === BLOCK LINK ===
    0x24c1
=== CODE BLOCK END ===

=== CODE BLOCK ADDRESS 0x24c1 ===
  0x24c1	int3   	
  0x24c2	int3   	
  0x24c3	int3   	
  0x24c4	int3   	
  0x24c5	int3   	
  === BLOCK LINK ===
    0x24c6
=== CODE BLOCK END ===

=== CODE BLOCK ADDRESS 0x24c6 ===
  0x24c6	nop    	word ptr [eax + eax]
  === BLOCK LINK ===
    0x24d0
=== CODE BLOCK END ===

=== CODE BLOCK ADDRESS 0x24d9 ===
  0x24d9	dec    	eax
  0x24da	rol    	ecx, 0x10
  0x24dd	test   	cx, 0xffff
  0x24e2	jne    	0x24e5
  === BLOCK LINK ===
    0x24e4
=== CODE BLOCK END ===

=== CODE BLOCK ADDRESS 0x24e4 ===
  0x24e4	ret    	
  0x24e5	dec    	eax
  0x24e6	ror    	ecx, 0x10
  0x24e9	jmp    	0x2860
  === BLOCK LINK ===
    0x24ee
=== CODE BLOCK END ===

=== CODE BLOCK ADDRESS 0x24ee ===
  0x24ee	int3   	
  0x24ef	int3   	
  0x24f0	int3   	
  0x24f1	int3   	
  0x24f2	int3   	
  === BLOCK LINK ===
    0x24f3
=== CODE BLOCK END ===

=== CODE BLOCK ADDRESS 0x24f3 ===
  0x24f3	int3   	
  0x24f4	int3   	
  0x24f5	int3   	
  0x24f6	int3   	
  0x24f7	int3   	
  === BLOCK LINK ===
    0x24f8
=== CODE BLOCK END ===

=== CODE BLOCK ADDRESS 0x24f8 ===
  0x24f8	int3   	
  0x24f9	int3   	
  0x24fa	int3   	
  0x24fb	int3   	
  0x24fc	int3   	
  === BLOCK LINK ===
    0x24fd
=== CODE BLOCK END ===

=== CODE BLOCK ADDRESS 0x24fd ===
  0x24fd	int3   	
  0x24fe	int3   	
  0x24ff	int3   	
  0x2500	dec    	eax
  0x2501	sub    	esp, 0x28
  === BLOCK LINK ===
    0x2504
=== CODE BLOCK END ===

=== CODE BLOCK ADDRESS 0x2504 ===
  0x2504	dec    	eax
  0x2505	mov    	eax, dword ptr [ecx]
  0x2507	cmp    	dword ptr [eax], 0xe06d7363
  0x250d	jne    	0x2532
  === BLOCK LINK ===
    0x250f
=== CODE BLOCK END ===

=== CODE BLOCK ADDRESS 0x250f ===
  0x250f	cmp    	dword ptr [eax + 0x18], 4
  0x2513	jne    	0x2532
  === BLOCK LINK ===
    0x2515
=== CODE BLOCK END ===

=== CODE BLOCK ADDRESS 0x2515 ===
  0x2515	mov    	ecx, dword ptr [eax + 0x20]
  0x2518	lea    	eax, [ecx - 0x19930520]
  0x251e	cmp    	eax, 2
  0x2521	jbe    	0x252b
  === BLOCK LINK ===
    0x2523
=== CODE BLOCK END ===

=== CODE BLOCK ADDRESS 0x2523 ===
  0x2523	cmp    	ecx, 0x1994000
  0x2529	jne    	0x2532
  === BLOCK LINK ===
    0x252b
=== CODE BLOCK END ===

=== CODE BLOCK ADDRESS 0x252b ===
  0x252b	call   	dword ptr [0xd97]
  === BLOCK LINK ===
    0x2531
=== CODE BLOCK END ===

=== CODE BLOCK ADDRESS 0x2531 ===
  0x2531	int3   	
  0x2532	xor    	eax, eax
  0x2534	dec    	eax
  0x2535	add    	esp, 0x28
  0x2538	ret    	
  === BLOCK LINK ===
    0x2539
=== CODE BLOCK END ===

=== CODE BLOCK ADDRESS 0x2539 ===
  0x2539	int3   	
  0x253a	int3   	
  0x253b	int3   	
  0x253c	int3   	
  0x253d	int3   	
  === BLOCK LINK ===
    0x253e
=== CODE BLOCK END ===

=== CODE BLOCK ADDRESS 0x253e ===
  0x253e	int3   	
  0x253f	int3   	
  0x2540	dec    	eax
  0x2541	sub    	esp, 0x28
  0x2544	dec    	eax
  === BLOCK LINK ===
    0x2545
=== CODE BLOCK END ===

=== CODE BLOCK ADDRESS 0x2545 ===
  0x2545	lea    	ecx, [0xffffffb5]
  0x254b	call   	dword ptr [0xc5f]
  === BLOCK LINK ===
    0x2551
=== CODE BLOCK END ===

=== CODE BLOCK ADDRESS 0x2551 ===
  0x2551	xor    	eax, eax
  0x2553	dec    	eax
  0x2554	add    	esp, 0x28
  0x2557	ret    	
  0x2558	int3   	
  === BLOCK LINK ===
    0x2559
=== CODE BLOCK END ===

=== CODE BLOCK ADDRESS 0x2559 ===
  0x2559	int3   	
  0x255a	int3   	
  0x255b	int3   	
  0x255c	int3   	
  0x255d	int3   	
  === BLOCK LINK ===
    0x255e
=== CODE BLOCK END ===

=== CODE BLOCK ADDRESS 0x255e ===
  0x255e	jmp    	dword ptr [0xe0c]
  === BLOCK LINK ===
    0x2564
=== CODE BLOCK END ===

=== CODE BLOCK ADDRESS 0x2564 ===
  0x2564	int3   	
  0x2565	int3   	
  0x2566	int3   	
  0x2567	int3   	
  0x2568	int3   	
  === BLOCK LINK ===
    0x2569
=== CODE BLOCK END ===

=== CODE BLOCK ADDRESS 0x2569 ===
  0x2569	int3   	
  0x256a	int3   	
  0x256b	int3   	
  0x256c	dec    	eax
  0x256d	sub    	esp, 0x18
  === BLOCK LINK ===
    0x2570
=== CODE BLOCK END ===

=== CODE BLOCK ADDRESS 0x2570 ===
  0x2570	xor    	edx, edx
  0x2572	dec    	eax
  0x2573	lea    	eax, [ecx - 1]
  0x2576	dec    	eax
  0x2577	cmp    	eax, -3
  === BLOCK LINK ===
    0x257a
=== CODE BLOCK END ===

=== CODE BLOCK ADDRESS 0x257a ===
  0x257a	ja     	0x25b8
  === BLOCK LINK ===
    0x257c
=== CODE BLOCK END ===

=== CODE BLOCK ADDRESS 0x257c ===
  0x257c	mov    	eax, 0x5a4d
  0x2581	cmp    	word ptr [ecx], ax
  0x2584	jne    	0x25b0
  === BLOCK LINK ===
    0x2586
=== CODE BLOCK END ===

=== CODE BLOCK ADDRESS 0x2586 ===
  0x2586	cmp    	dword ptr [ecx + 0x3c], edx
  0x2589	jl     	0x25b0
  === BLOCK LINK ===
    0x258b
=== CODE BLOCK END ===

=== CODE BLOCK ADDRESS 0x258b ===
  0x258b	cmp    	dword ptr [ecx + 0x3c], 0x10000000
  0x2592	jae    	0x25b0
  === BLOCK LINK ===
    0x2594
=== CODE BLOCK END ===

=== CODE BLOCK ADDRESS 0x2594 ===
  0x2594	dec    	eax
  0x2595	arpl   	word ptr [ecx + 0x3c], ax
  0x2598	dec    	eax
  0x2599	add    	eax, ecx
  0x259b	dec    	eax
  === BLOCK LINK ===
    0x259c
=== CODE BLOCK END ===

=== CODE BLOCK ADDRESS 0x259c ===
  0x259c	mov    	dword ptr [esp], eax
  0x259f	cmp    	dword ptr [eax], 0x4550
  0x25a5	dec    	eax
  0x25a6	cmovne  	eax, edx
  0x25a9	dec    	eax
  === BLOCK LINK ===
    0x25aa
=== CODE BLOCK END ===

=== CODE BLOCK ADDRESS 0x25aa ===
  0x25aa	mov    	edx, eax
  0x25ac	dec    	eax
  0x25ad	mov    	dword ptr [esp], eax
  0x25b0	jmp    	0x25b8
  === BLOCK LINK ===
    0x25b2
=== CODE BLOCK END ===

=== CODE BLOCK ADDRESS 0x25b2 ===
  0x25b2	xor    	edx, edx
  0x25b4	dec    	eax
  0x25b5	mov    	dword ptr [esp], edx
  0x25b8	dec    	eax
  0x25b9	mov    	eax, edx
  === BLOCK LINK ===
    0x25bb
=== CODE BLOCK END ===

=== CODE BLOCK ADDRESS 0x25bb ===
  0x25bb	dec    	eax
  0x25bc	add    	esp, 0x18
  0x25bf	ret    	
  0x25c0	int3   	
  0x25c1	int3   	
  === BLOCK LINK ===
    0x25c2
=== CODE BLOCK END ===

=== CODE BLOCK ADDRESS 0x1348 ===
  0x1348	mov    	dword ptr [ebx], 0x697c
  0x134e	jmp    	0x1300
  === BLOCK LINK ===
    0x1350
=== CODE BLOCK END ===

=== CODE BLOCK ADDRESS 0x25c2 ===
  0x25c2	int3   	
  0x25c3	int3   	
  0x25c4	int3   	
  0x25c5	int3   	
  0x25c6	int3   	
  === BLOCK LINK ===
    0x25c7
=== CODE BLOCK END ===

=== CODE BLOCK ADDRESS 0x25c7 ===
  0x25c7	int3   	
  0x25c8	inc    	eax
  0x25c9	push   	ebx
  0x25ca	dec    	eax
  0x25cb	sub    	esp, 0x20
  === BLOCK LINK ===
    0x25ce
=== CODE BLOCK END ===

=== CODE BLOCK ADDRESS 0x25ce ===
  0x25ce	mov    	ebx, ecx
  0x25d0	xor    	ecx, ecx
  0x25d2	call   	dword ptr [0xc28]
  === BLOCK LINK ===
    0x25d8
=== CODE BLOCK END ===

=== CODE BLOCK ADDRESS 0x25d8 ===
  0x25d8	dec    	eax
  0x25d9	test   	eax, eax
  0x25db	je     	0x2605
  === BLOCK LINK ===
    0x25dd
=== CODE BLOCK END ===

=== CODE BLOCK ADDRESS 0x25dd ===
  0x25dd	dec    	eax
  0x25de	mov    	ecx, eax
  0x25e0	call   	0x256c
  === BLOCK LINK ===
    0x25e5
=== CODE BLOCK END ===

=== CODE BLOCK ADDRESS 0x25e5 ===
  0x25e5	dec    	eax
  0x25e6	test   	eax, eax
  0x25e8	je     	0x2605
  === BLOCK LINK ===
    0x25ea
=== CODE BLOCK END ===

=== CODE BLOCK ADDRESS 0x25ea ===
  0x25ea	mov    	ecx, 2
  0x25ef	cmp    	word ptr [eax + 0x5c], cx
  0x25f3	jne    	0x25f9
  === BLOCK LINK ===
    0x25f5
=== CODE BLOCK END ===

=== CODE BLOCK ADDRESS 0x25f5 ===
  0x25f5	mov    	eax, ecx
  0x25f7	jmp    	0x2607
  === BLOCK LINK ===
    0x25f9
=== CODE BLOCK END ===

=== CODE BLOCK ADDRESS 0x25f9 ===
  0x25f9	cmp    	word ptr [eax + 0x5c], 3
  0x25fe	mov    	eax, 1
  0x2603	je     	0x2607
  === BLOCK LINK ===
    0x2605
=== CODE BLOCK END ===

=== CODE BLOCK ADDRESS 0x2605 ===
  0x2605	mov    	eax, ebx
  0x2607	dec    	eax
  0x2608	add    	esp, 0x20
  0x260b	pop    	ebx
  0x260c	ret    	
  === BLOCK LINK ===
    0x260d
=== CODE BLOCK END ===

=== CODE BLOCK ADDRESS 0x260d ===
  0x260d	int3   	
  0x260e	int3   	
  0x260f	int3   	
  0x2610	int3   	
  0x2611	int3   	
  === BLOCK LINK ===
    0x2612
=== CODE BLOCK END ===

=== CODE BLOCK ADDRESS 0x2612 ===
  0x2612	int3   	
  0x2613	jmp    	dword ptr [0xd47]
  === BLOCK LINK ===
    0x2619
=== CODE BLOCK END ===

=== CODE BLOCK ADDRESS 0x2619 ===
  0x2619	int3   	
  0x261a	int3   	
  0x261b	int3   	
  0x261c	int3   	
  0x261d	int3   	
  === BLOCK LINK ===
    0x261e
=== CODE BLOCK END ===

=== CODE BLOCK ADDRESS 0x261e ===
  0x261e	int3   	
  0x261f	int3   	
  0x2620	xor    	eax, eax
  0x2622	ret    	
  0x2623	int3   	
  === BLOCK LINK ===
    0x2624
=== CODE BLOCK END ===

=== CODE BLOCK ADDRESS 0x2624 ===
  0x2624	int3   	
  0x2625	int3   	
  0x2626	int3   	
  0x2627	int3   	
  0x2628	int3   	
  === BLOCK LINK ===
    0x2629
=== CODE BLOCK END ===

=== CODE BLOCK ADDRESS 0x2629 ===
  0x2629	int3   	
  0x262a	int3   	
  0x262b	int3   	
  0x262c	int3   	
  0x262d	int3   	
  === BLOCK LINK ===
    0x262e
=== CODE BLOCK END ===

=== CODE BLOCK ADDRESS 0x262e ===
  0x262e	int3   	
  0x262f	int3   	
  0x2630	dec    	esp
  0x2631	arpl   	word ptr [ecx + 0x3c], ax
  0x2634	inc    	ebp
  === BLOCK LINK ===
    0x2635
=== CODE BLOCK END ===

=== CODE BLOCK ADDRESS 0x2635 ===
  0x2635	xor    	ecx, ecx
  0x2637	dec    	esp
  0x2638	add    	eax, ecx
  0x263a	dec    	esp
  0x263b	mov    	edx, edx
  === BLOCK LINK ===
    0x263d
=== CODE BLOCK END ===

=== CODE BLOCK ADDRESS 0x263d ===
  0x263d	inc    	ecx
  0x263e	movzx  	eax, word ptr [eax + 0x14]
  0x2642	inc    	ebp
  0x2643	movzx  	ebx, word ptr [eax + 6]
  0x2647	dec    	eax
  === BLOCK LINK ===
    0x2648
=== CODE BLOCK END ===

=== CODE BLOCK ADDRESS 0x2648 ===
  0x2648	add    	eax, 0x18
  0x264b	dec    	ecx
  0x264c	add    	eax, eax
  0x264e	inc    	ebp
  0x264f	test   	ebx, ebx
  === BLOCK LINK ===
    0x2651
=== CODE BLOCK END ===

=== CODE BLOCK ADDRESS 0x2651 ===
  0x2651	je     	0x2671
  === BLOCK LINK ===
    0x2653
=== CODE BLOCK END ===

=== CODE BLOCK ADDRESS 0x2653 ===
  0x2653	mov    	edx, dword ptr [eax + 0xc]
  0x2656	dec    	esp
  0x2657	cmp    	edx, edx
  0x2659	jb     	0x2665
  === BLOCK LINK ===
    0x265b
=== CODE BLOCK END ===

=== CODE BLOCK ADDRESS 0x265b ===
  0x265b	mov    	ecx, dword ptr [eax + 8]
  0x265e	add    	ecx, edx
  0x2660	dec    	esp
  0x2661	cmp    	edx, ecx
  0x2663	jb     	0x2673
  === BLOCK LINK ===
    0x2665
=== CODE BLOCK END ===

=== CODE BLOCK ADDRESS 0x2665 ===
  0x2665	inc    	ecx
  0x2666	inc    	ecx
  0x2668	dec    	eax
  0x2669	add    	eax, 0x28
  0x266c	inc    	ebp
  === BLOCK LINK ===
    0x266d
=== CODE BLOCK END ===

=== CODE BLOCK ADDRESS 0x266d ===
  0x266d	cmp    	ecx, ebx
  0x266f	jb     	0x2653
  === BLOCK LINK ===
    0x2671
=== CODE BLOCK END ===

=== CODE BLOCK ADDRESS 0x2671 ===
  0x2671	xor    	eax, eax
  0x2673	ret    	
  0x2674	int3   	
  0x2675	int3   	
  0x2676	int3   	
  === BLOCK LINK ===
    0x2677
=== CODE BLOCK END ===

=== CODE BLOCK ADDRESS 0x2677 ===
  0x2677	int3   	
  0x2678	int3   	
  0x2679	int3   	
  0x267a	int3   	
  0x267b	int3   	
  === BLOCK LINK ===
    0x267c
=== CODE BLOCK END ===

=== CODE BLOCK ADDRESS 0x267c ===
  0x267c	int3   	
  0x267d	int3   	
  0x267e	int3   	
  0x267f	int3   	
  0x2680	dec    	eax
  === BLOCK LINK ===
    0x2681
=== CODE BLOCK END ===

=== CODE BLOCK ADDRESS 0x2681 ===
  0x2681	mov    	dword ptr [esp + 8], ebx
  0x2685	push   	edi
  0x2686	dec    	eax
  0x2687	sub    	esp, 0x20
  0x268a	dec    	eax
  === BLOCK LINK ===
    0x268b
=== CODE BLOCK END ===

=== CODE BLOCK ADDRESS 0x268b ===
  0x268b	mov    	ebx, ecx
  0x268d	dec    	eax
  0x268e	lea    	edi, [0xffffd96c]
  0x2694	dec    	eax
  0x2695	mov    	ecx, edi
  === BLOCK LINK ===
    0x2697
=== CODE BLOCK END ===

=== CODE BLOCK ADDRESS 0x2697 ===
  0x2697	call   	0x26e0
  === BLOCK LINK ===
    0x269c
=== CODE BLOCK END ===

=== CODE BLOCK ADDRESS 0x269c ===
  0x269c	test   	eax, eax
  0x269e	je     	0x26c2
  === BLOCK LINK ===
    0x26a0
=== CODE BLOCK END ===

=== CODE BLOCK ADDRESS 0x26a0 ===
  0x26a0	dec    	eax
  0x26a1	sub    	ebx, edi
  0x26a3	dec    	eax
  0x26a4	mov    	edx, ebx
  0x26a6	dec    	eax
  === BLOCK LINK ===
    0x26a7
=== CODE BLOCK END ===

=== CODE BLOCK ADDRESS 0x26a7 ===
  0x26a7	mov    	ecx, edi
  0x26a9	call   	0x2630
  === BLOCK LINK ===
    0x26ae
=== CODE BLOCK END ===

=== CODE BLOCK ADDRESS 0x26ae ===
  0x26ae	dec    	eax
  0x26af	test   	eax, eax
  0x26b1	je     	0x26c2
  === BLOCK LINK ===
    0x26b3
=== CODE BLOCK END ===

=== CODE BLOCK ADDRESS 0x26b3 ===
  0x26b3	mov    	eax, dword ptr [eax + 0x24]
  0x26b6	shr    	eax, 0x1f
  0x26b9	not    	eax
  0x26bb	and    	eax, 1
  0x26be	jmp    	0x26c2
  === BLOCK LINK ===
    0x26c0
=== CODE BLOCK END ===

=== CODE BLOCK ADDRESS 0x26c0 ===
  0x26c0	xor    	eax, eax
  0x26c2	dec    	eax
  0x26c3	mov    	ebx, dword ptr [esp + 0x30]
  0x26c7	dec    	eax
  0x26c8	add    	esp, 0x20
  === BLOCK LINK ===
    0x26cb
=== CODE BLOCK END ===

=== CODE BLOCK ADDRESS 0x26cb ===
  0x26cb	pop    	edi
  0x26cc	ret    	
  0x26cd	int3   	
  0x26ce	int3   	
  0x26cf	int3   	
  === BLOCK LINK ===
    0x26d0
=== CODE BLOCK END ===

=== CODE BLOCK ADDRESS 0x26d0 ===
  0x26d0	int3   	
  0x26d1	int3   	
  0x26d2	int3   	
  0x26d3	int3   	
  0x26d4	int3   	
  === BLOCK LINK ===
    0x26d5
=== CODE BLOCK END ===

=== CODE BLOCK ADDRESS 0x26d5 ===
  0x26d5	int3   	
  0x26d6	int3   	
  0x26d7	int3   	
  0x26d8	int3   	
  0x26d9	int3   	
  === BLOCK LINK ===
    0x26da
=== CODE BLOCK END ===

=== CODE BLOCK ADDRESS 0x26da ===
  0x26da	int3   	
  0x26db	int3   	
  0x26dc	int3   	
  0x26dd	int3   	
  0x26de	int3   	
  === BLOCK LINK ===
    0x26df
=== CODE BLOCK END ===

=== CODE BLOCK ADDRESS 0x26df ===
  0x26df	int3   	
  0x26e0	mov    	eax, 0x5a4d
  0x26e5	cmp    	word ptr [ecx], ax
  0x26e8	jne    	0x270a
  === BLOCK LINK ===
    0x26ea
=== CODE BLOCK END ===

=== CODE BLOCK ADDRESS 0x26ea ===
  0x26ea	dec    	eax
  0x26eb	arpl   	word ptr [ecx + 0x3c], ax
  0x26ee	dec    	eax
  0x26ef	add    	eax, ecx
  0x26f1	cmp    	dword ptr [eax], 0x4550
  === BLOCK LINK ===
    0x26f7
=== CODE BLOCK END ===

=== CODE BLOCK ADDRESS 0x26f7 ===
  0x26f7	jne    	0x270a
  === BLOCK LINK ===
    0x26f9
=== CODE BLOCK END ===

=== CODE BLOCK ADDRESS 0x26f9 ===
  0x26f9	mov    	ecx, 0x20b
  0x26fe	cmp    	word ptr [eax + 0x18], cx
  0x2702	jne    	0x270a
  === BLOCK LINK ===
    0x2704
=== CODE BLOCK END ===

=== CODE BLOCK ADDRESS 0x2704 ===
  0x2704	mov    	eax, 1
  0x2709	ret    	
  0x270a	xor    	eax, eax
  0x270c	ret    	
  0x270d	int3   	
  === BLOCK LINK ===
    0x270e
=== CODE BLOCK END ===

=== CODE BLOCK ADDRESS 0x270e ===
  0x270e	int3   	
  0x270f	int3   	
  0x2710	int3   	
  0x2711	int3   	
  0x2712	int3   	
  === BLOCK LINK ===
    0x2713
=== CODE BLOCK END ===

=== CODE BLOCK ADDRESS 0x2713 ===
  0x2713	int3   	
  0x2714	dec    	eax
  0x2715	mov    	dword ptr [esp + 0x20], ebx
  0x2719	push   	ebp
  0x271a	dec    	eax
  === BLOCK LINK ===
    0x271b
=== CODE BLOCK END ===

=== CODE BLOCK ADDRESS 0x271b ===
  0x271b	mov    	ebp, esp
  0x271d	dec    	eax
  0x271e	sub    	esp, 0x20
  0x2721	dec    	eax
  0x2722	and    	dword ptr [ebp + 0x18], 0
  === BLOCK LINK ===
    0x2726
=== CODE BLOCK END ===

=== CODE BLOCK ADDRESS 0x2726 ===
  0x2726	dec    	eax
  0x2727	mov    	ebx, 0x2ddfa232
  0x272c	cdq    	
  0x272d	sub    	eax, dword ptr [eax]
  0x272f	add    	byte ptr [eax - 0x75], cl
  === BLOCK LINK ===
    0x2732
=== CODE BLOCK END ===

=== CODE BLOCK ADDRESS 0x2732 ===
  0x2732	add    	eax, 0x28d1
  0x2737	dec    	eax
  0x2738	cmp    	eax, ebx
  0x273a	jne    	0x27d3
  === BLOCK LINK ===
    0x2740
=== CODE BLOCK END ===

=== CODE BLOCK ADDRESS 0x2740 ===
  0x2740	dec    	eax
  0x2741	lea    	ecx, [ebp + 0x18]
  0x2744	call   	dword ptr [0xb66]
  === BLOCK LINK ===
    0x274a
=== CODE BLOCK END ===

=== CODE BLOCK ADDRESS 0x274a ===
  0x274a	dec    	eax
  0x274b	mov    	eax, dword ptr [ebp + 0x18]
  0x274e	dec    	eax
  0x274f	mov    	dword ptr [ebp + 0x10], eax
  0x2752	call   	dword ptr [0xae8]
  === BLOCK LINK ===
    0x2758
=== CODE BLOCK END ===

=== CODE BLOCK ADDRESS 0x2758 ===
  0x2758	mov    	eax, eax
  0x275a	dec    	eax
  0x275b	xor    	dword ptr [ebp + 0x10], eax
  0x275e	call   	dword ptr [0xae4]
  === BLOCK LINK ===
    0x2764
=== CODE BLOCK END ===

=== CODE BLOCK ADDRESS 0x2764 ===
  0x2764	mov    	eax, eax
  0x2766	dec    	eax
  0x2767	xor    	dword ptr [ebp + 0x10], eax
  0x276a	call   	dword ptr [0xb48]
  === BLOCK LINK ===
    0x2770
=== CODE BLOCK END ===

=== CODE BLOCK ADDRESS 0x2770 ===
  0x2770	mov    	eax, eax
  0x2772	dec    	eax
  0x2773	shl    	eax, 0x18
  0x2776	dec    	eax
  0x2777	xor    	dword ptr [ebp + 0x10], eax
  === BLOCK LINK ===
    0x277a
=== CODE BLOCK END ===

=== CODE BLOCK ADDRESS 0x277a ===
  0x277a	call   	dword ptr [0xb38]
  === BLOCK LINK ===
    0x2780
=== CODE BLOCK END ===

=== CODE BLOCK ADDRESS 0x2780 ===
  0x2780	mov    	eax, eax
  0x2782	dec    	eax
  0x2783	lea    	ecx, [ebp + 0x10]
  0x2786	dec    	eax
  0x2787	xor    	eax, dword ptr [ebp + 0x10]
  === BLOCK LINK ===
    0x278a
=== CODE BLOCK END ===

=== CODE BLOCK ADDRESS 0x278a ===
  0x278a	dec    	eax
  0x278b	xor    	eax, ecx
  0x278d	dec    	eax
  0x278e	lea    	ecx, [ebp + 0x20]
  0x2791	dec    	eax
  === BLOCK LINK ===
    0x2792
=== CODE BLOCK END ===

=== CODE BLOCK ADDRESS 0x2792 ===
  0x2792	mov    	dword ptr [ebp + 0x10], eax
  0x2795	call   	dword ptr [0xac5]
  === BLOCK LINK ===
    0x279b
=== CODE BLOCK END ===

=== CODE BLOCK ADDRESS 0x279b ===
  0x279b	mov    	eax, dword ptr [ebp + 0x20]
  0x279e	dec    	eax
  0x279f	mov    	ecx, 0xffffffff
  0x27a4	.byte  	0xff
  0x27a5	inc    	dword ptr [eax]
  === BLOCK LINK ===
    0x27a7
=== CODE BLOCK END ===

=== CODE BLOCK ADDRESS 0x27a7 ===
  0x27a7	add    	byte ptr [eax - 0x3f], cl
  0x27aa	loopne  	0x27cc
  === BLOCK LINK ===
    0x27ac
=== CODE BLOCK END ===

=== CODE BLOCK ADDRESS 0x27ac ===
  0x27ac	dec    	eax
  0x27ad	xor    	eax, dword ptr [ebp + 0x20]
  0x27b0	dec    	eax
  0x27b1	xor    	eax, dword ptr [ebp + 0x10]
  0x27b4	dec    	eax
  === BLOCK LINK ===
    0x27b5
=== CODE BLOCK END ===

=== CODE BLOCK ADDRESS 0x27b5 ===
  0x27b5	and    	eax, ecx
  0x27b7	dec    	eax
  0x27b8	mov    	ecx, eax
  0x27ba	dec    	eax
  0x27bb	cmp    	eax, ebx
  === BLOCK LINK ===
    0x27bd
=== CODE BLOCK END ===

=== CODE BLOCK ADDRESS 0x27bd ===
  0x27bd	jne    	0x27cc
  === BLOCK LINK ===
    0x27bf
=== CODE BLOCK END ===

=== CODE BLOCK ADDRESS 0x27bf ===
  0x27bf	dec    	eax
  0x27c0	mov    	eax, 0x2ddfa233
  0x27c5	cdq    	
  0x27c6	sub    	eax, dword ptr [eax]
  0x27c8	add    	byte ptr [eax - 0x75], cl
  === BLOCK LINK ===
    0x27cb
=== CODE BLOCK END ===

=== CODE BLOCK ADDRESS 0x27cb ===
  0x27cb	enter  	-0x76b8, 0xd
  0x27cf	xor    	eax, 0x48000028
  0x27d4	mov    	ebx, dword ptr [esp + 0x48]
  0x27d8	dec    	eax
  0x27d9	not    	eax
  === BLOCK LINK ===
    0x27db
=== CODE BLOCK END ===

=== CODE BLOCK ADDRESS 0x27db ===
  0x27db	dec    	eax
  0x27dc	mov    	dword ptr [0x282e], eax
  0x27e2	dec    	eax
  0x27e3	add    	esp, 0x20
  0x27e6	pop    	ebp
  === BLOCK LINK ===
    0x27e7
=== CODE BLOCK END ===

=== CODE BLOCK ADDRESS 0x27e7 ===
  0x27e7	ret    	
  0x27e8	int3   	
  0x27e9	int3   	
  0x27ea	int3   	
  0x27eb	int3   	
  === BLOCK LINK ===
    0x27ec
=== CODE BLOCK END ===

=== CODE BLOCK ADDRESS 0x27ec ===
  0x27ec	int3   	
  0x27ed	int3   	
  0x27ee	jmp    	dword ptr [0xb3c]
  === BLOCK LINK ===
    0x27f4
=== CODE BLOCK END ===

=== CODE BLOCK ADDRESS 0x27f4 ===
  0x27f4	int3   	
  0x27f5	int3   	
  0x27f6	int3   	
  0x27f7	int3   	
  0x27f8	int3   	
  === BLOCK LINK ===
    0x27f9
=== CODE BLOCK END ===

=== CODE BLOCK ADDRESS 0x27f9 ===
  0x27f9	int3   	
  0x27fa	jmp    	dword ptr [0xae0]
  === BLOCK LINK ===
    0x2800
=== CODE BLOCK END ===

=== CODE BLOCK ADDRESS 0x2800 ===
  0x2800	int3   	
  0x2801	int3   	
  0x2802	int3   	
  0x2803	int3   	
  0x2804	int3   	
  === BLOCK LINK ===
    0x2805
=== CODE BLOCK END ===

=== CODE BLOCK ADDRESS 0x2805 ===
  0x2805	int3   	
  0x2806	int3   	
  0x2807	int3   	
  0x2808	int3   	
  0x2809	int3   	
  === BLOCK LINK ===
    0x280a
=== CODE BLOCK END ===

=== CODE BLOCK ADDRESS 0x280a ===
  0x280a	int3   	
  0x280b	int3   	
  0x280c	int3   	
  0x280d	int3   	
  0x280e	int3   	
  === BLOCK LINK ===
    0x280f
=== CODE BLOCK END ===

=== CODE BLOCK ADDRESS 0x280f ===
  0x280f	int3   	
  0x2810	ret    	0
  0x2813	int3   	
  0x2814	int3   	
  0x2815	int3   	
  === BLOCK LINK ===
    0x2816
=== CODE BLOCK END ===

=== CODE BLOCK ADDRESS 0x2816 ===
  0x2816	int3   	
  0x2817	int3   	
  0x2818	int3   	
  0x2819	int3   	
  0x281a	int3   	
  === BLOCK LINK ===
    0x281b
=== CODE BLOCK END ===

=== CODE BLOCK ADDRESS 0x281b ===
  0x281b	int3   	
  0x281c	inc    	eax
  0x281d	push   	ebx
  0x281e	dec    	eax
  0x281f	sub    	esp, 0x20
  === BLOCK LINK ===
    0x2822
=== CODE BLOCK END ===

=== CODE BLOCK ADDRESS 0x2822 ===
  0x2822	dec    	eax
  0x2823	mov    	ebx, ecx
  0x2825	xor    	ecx, ecx
  0x2827	call   	dword ptr [0x983]
  === BLOCK LINK ===
    0x282d
=== CODE BLOCK END ===

=== CODE BLOCK ADDRESS 0x282d ===
  0x282d	dec    	eax
  0x282e	mov    	ecx, ebx
  0x2830	call   	dword ptr [0x982]
  === BLOCK LINK ===
    0x2836
=== CODE BLOCK END ===

=== CODE BLOCK ADDRESS 0x2836 ===
  0x2836	call   	dword ptr [0xa14]
  === BLOCK LINK ===
    0x283c
=== CODE BLOCK END ===

=== CODE BLOCK ADDRESS 0x283c ===
  0x283c	dec    	eax
  0x283d	mov    	ecx, eax
  0x283f	mov    	edx, 0xc0000409
  0x2844	dec    	eax
  0x2845	add    	esp, 0x20
  === BLOCK LINK ===
    0x2848
=== CODE BLOCK END ===

=== CODE BLOCK ADDRESS 0x2848 ===
  0x2848	pop    	ebx
  0x2849	dec    	eax
  0x284a	jmp    	dword ptr [0x9e8]
  === BLOCK LINK ===
    0x2850
=== CODE BLOCK END ===

=== CODE BLOCK ADDRESS 0x2850 ===
  0x2850	int3   	
  0x2851	int3   	
  0x2852	int3   	
  0x2853	int3   	
  0x2854	int3   	
  === BLOCK LINK ===
    0x2855
=== CODE BLOCK END ===

=== CODE BLOCK ADDRESS 0x2855 ===
  0x2855	int3   	
  0x2856	int3   	
  0x2857	int3   	
  0x2858	int3   	
  0x2859	int3   	
  === BLOCK LINK ===
    0x285a
=== CODE BLOCK END ===

=== CODE BLOCK ADDRESS 0x285a ===
  0x285a	int3   	
  0x285b	int3   	
  0x285c	int3   	
  0x285d	int3   	
  0x285e	int3   	
  === BLOCK LINK ===
    0x285f
=== CODE BLOCK END ===

=== CODE BLOCK ADDRESS 0x285f ===
  0x285f	int3   	
  0x2860	dec    	eax
  0x2861	mov    	dword ptr [esp + 8], ecx
  0x2865	dec    	eax
  0x2866	sub    	esp, 0x88
  === BLOCK LINK ===
    0x286c
=== CODE BLOCK END ===

=== CODE BLOCK ADDRESS 0x286c ===
  0x286c	dec    	eax
  0x286d	lea    	ecx, [0x290d]
  0x2873	call   	dword ptr [0x9f7]
  === BLOCK LINK ===
    0x2879
=== CODE BLOCK END ===

=== CODE BLOCK ADDRESS 0x2879 ===
  0x2879	dec    	eax
  0x287a	mov    	eax, dword ptr [0x29f8]
  0x2880	dec    	eax
  0x2881	mov    	dword ptr [esp + 0x48], eax
  0x2885	inc    	ebp
  === BLOCK LINK ===
    0x2886
=== CODE BLOCK END ===

=== CODE BLOCK ADDRESS 0x2886 ===
  0x2886	xor    	eax, eax
  0x2888	dec    	eax
  0x2889	lea    	edx, [esp + 0x50]
  0x288d	dec    	eax
  0x288e	mov    	ecx, dword ptr [esp + 0x48]
  === BLOCK LINK ===
    0x2892
=== CODE BLOCK END ===

=== CODE BLOCK ADDRESS 0x2892 ===
  0x2892	call   	dword ptr [0x9e8]
  === BLOCK LINK ===
    0x2898
=== CODE BLOCK END ===

=== CODE BLOCK ADDRESS 0x2898 ===
  0x2898	dec    	eax
  0x2899	mov    	dword ptr [esp + 0x40], eax
  0x289d	dec    	eax
  0x289e	cmp    	dword ptr [esp + 0x40], 0
  0x28a3	je     	0x28e7
  === BLOCK LINK ===
    0x28a5
=== CODE BLOCK END ===

=== CODE BLOCK ADDRESS 0x28a5 ===
  0x28a5	dec    	eax
  0x28a6	mov    	dword ptr [esp + 0x38], 0
  0x28ae	dec    	eax
  0x28af	lea    	eax, [esp + 0x58]
  0x28b3	dec    	eax
  === BLOCK LINK ===
    0x28b4
=== CODE BLOCK END ===

=== CODE BLOCK ADDRESS 0x28b4 ===
  0x28b4	mov    	dword ptr [esp + 0x30], eax
  0x28b8	dec    	eax
  0x28b9	lea    	eax, [esp + 0x60]
  0x28bd	dec    	eax
  0x28be	mov    	dword ptr [esp + 0x28], eax
  === BLOCK LINK ===
    0x28c2
=== CODE BLOCK END ===

=== CODE BLOCK ADDRESS 0x28c2 ===
  0x28c2	dec    	eax
  0x28c3	lea    	eax, [0x28b7]
  0x28c9	dec    	eax
  0x28ca	mov    	dword ptr [esp + 0x20], eax
  0x28ce	dec    	esp
  === BLOCK LINK ===
    0x28cf
=== CODE BLOCK END ===

=== CODE BLOCK ADDRESS 0x28cf ===
  0x28cf	mov    	ecx, dword ptr [esp + 0x40]
  0x28d3	dec    	esp
  0x28d4	mov    	eax, dword ptr [esp + 0x48]
  0x28d8	dec    	eax
  0x28d9	mov    	edx, dword ptr [esp + 0x50]
  === BLOCK LINK ===
    0x28dd
=== CODE BLOCK END ===

=== CODE BLOCK ADDRESS 0x28dd ===
  0x28dd	xor    	ecx, ecx
  0x28df	call   	dword ptr [0x993]
  === BLOCK LINK ===
    0x28e5
=== CODE BLOCK END ===

=== CODE BLOCK ADDRESS 0x28e5 ===
  0x28e5	jmp    	0x290a
  === BLOCK LINK ===
    0x28e7
=== CODE BLOCK END ===

=== CODE BLOCK ADDRESS 0x28e7 ===
  0x28e7	dec    	eax
  0x28e8	mov    	eax, dword ptr [0x292a]
  0x28ee	dec    	eax
  0x28ef	mov    	eax, dword ptr [eax]
  0x28f1	dec    	eax
  === BLOCK LINK ===
    0x28f2
=== CODE BLOCK END ===

=== CODE BLOCK ADDRESS 0x28f2 ===
  0x28f2	mov    	dword ptr [0x2980], eax
  0x28f8	dec    	eax
  0x28f9	mov    	eax, dword ptr [0x2919]
  0x28ff	dec    	eax
  0x2900	add    	eax, 8
  === BLOCK LINK ===
    0x2903
=== CODE BLOCK END ===

=== CODE BLOCK ADDRESS 0x2903 ===
  0x2903	dec    	eax
  0x2904	mov    	dword ptr [0x290e], eax
  0x290a	dec    	eax
  0x290b	mov    	eax, dword ptr [0x2967]
  0x2911	dec    	eax
  === BLOCK LINK ===
    0x2912
=== CODE BLOCK END ===

=== CODE BLOCK ADDRESS 0x2912 ===
  0x2912	mov    	dword ptr [0x27d8], eax
  0x2918	dec    	eax
  0x2919	mov    	eax, dword ptr [esp + 0x90]
  0x2920	dec    	eax
  0x2921	mov    	dword ptr [0x28d9], eax
  === BLOCK LINK ===
    0x2927
=== CODE BLOCK END ===

=== CODE BLOCK ADDRESS 0x2927 ===
  0x2927	mov    	dword ptr [0x27af], 0xc0000409
  0x2931	mov    	dword ptr [0x27a9], 1
  0x293b	mov    	dword ptr [0x27b3], 3
  0x2945	mov    	eax, 8
  0x294a	dec    	eax
  === BLOCK LINK ===
    0x294b
=== CODE BLOCK END ===

=== CODE BLOCK ADDRESS 0x294b ===
  0x294b	imul   	eax, eax, 0
  0x294e	dec    	eax
  0x294f	lea    	ecx, [0x27ab]
  0x2955	dec    	eax
  0x2956	mov    	dword ptr [ecx + eax], 2
  === BLOCK LINK ===
    0x295d
=== CODE BLOCK END ===

=== CODE BLOCK ADDRESS 0x295d ===
  0x295d	mov    	eax, 8
  0x2962	dec    	eax
  0x2963	imul   	eax, eax, 1
  0x2966	dec    	eax
  0x2967	lea    	ecx, [0x2793]
  === BLOCK LINK ===
    0x296d
=== CODE BLOCK END ===

=== CODE BLOCK ADDRESS 0x296d ===
  0x296d	dec    	eax
  0x296e	mov    	edx, dword ptr [0x2694]
  0x2974	dec    	eax
  0x2975	mov    	dword ptr [ecx + eax], edx
  0x2978	mov    	eax, 8
  === BLOCK LINK ===
    0x297d
=== CODE BLOCK END ===

=== CODE BLOCK ADDRESS 0x297d ===
  0x297d	dec    	eax
  0x297e	imul   	eax, eax, 2
  0x2981	dec    	eax
  0x2982	lea    	ecx, [0x2778]
  0x2988	dec    	eax
  === BLOCK LINK ===
    0x2989
=== CODE BLOCK END ===

=== CODE BLOCK ADDRESS 0x2989 ===
  0x2989	mov    	edx, dword ptr [0x2681]
  0x298f	dec    	eax
  0x2990	mov    	dword ptr [ecx + eax], edx
  0x2993	mov    	eax, 8
  0x2998	dec    	eax
  === BLOCK LINK ===
    0x2999
=== CODE BLOCK END ===

=== CODE BLOCK ADDRESS 0x2999 ===
  0x2999	imul   	eax, eax, 0
  0x299c	dec    	eax
  0x299d	mov    	ecx, dword ptr [0x2665]
  0x29a3	dec    	eax
  0x29a4	mov    	dword ptr [esp + eax + 0x68], ecx
  === BLOCK LINK ===
    0x29a8
=== CODE BLOCK END ===

=== CODE BLOCK ADDRESS 0x29a8 ===
  0x29a8	mov    	eax, 8
  0x29ad	dec    	eax
  0x29ae	imul   	eax, eax, 1
  0x29b1	dec    	eax
  0x29b2	mov    	ecx, dword ptr [0x2658]
  === BLOCK LINK ===
    0x29b8
=== CODE BLOCK END ===

=== CODE BLOCK ADDRESS 0x29b8 ===
  0x29b8	dec    	eax
  0x29b9	mov    	dword ptr [esp + eax + 0x68], ecx
  0x29bd	dec    	eax
  0x29be	lea    	ecx, [0x63c]
  0x29c4	call   	0x281c
  === BLOCK LINK ===
    0x29c9
=== CODE BLOCK END ===

=== CODE BLOCK ADDRESS 0x29c9 ===
  0x29c9	dec    	eax
  0x29ca	add    	esp, 0x88
  0x29d0	ret    	
  0x29d1	int3   	
  0x29d2	int3   	
  === BLOCK LINK ===
    0x29d3
=== CODE BLOCK END ===

=== CODE BLOCK ADDRESS 0x10fd ===
  0x10fd	xor    	eax, eax
  0x10ff	mov    	dword ptr [esp + 0x58], 2
  0x1107	mov    	ecx, 0xeff03
  0x110c	mov    	word ptr [ebp + 0x182], ax
  === BLOCK LINK ===
    0x1113
=== CODE BLOCK END ===

=== CODE BLOCK ADDRESS 0x29d3 ===
  0x29d3	int3   	
  0x29d4	int3   	
  0x29d5	int3   	
  0x29d6	int3   	
  0x29d7	int3   	
  === BLOCK LINK ===
    0x29d8
=== CODE BLOCK END ===

=== CODE BLOCK ADDRESS 0x29d8 ===
  0x29d8	int3   	
  0x29d9	int3   	
  0x29da	int3   	
  0x29db	int3   	
  0x29dc	int3   	
  === BLOCK LINK ===
    0x29dd
=== CODE BLOCK END ===

=== CODE BLOCK ADDRESS 0x29dd ===
  0x29dd	int3   	
  0x29de	int3   	
  0x29df	int3   	
  0x29e0	int3   	
  0x29e1	int3   	
  === BLOCK LINK ===
    0x29e2
=== CODE BLOCK END ===

=== CODE BLOCK ADDRESS 0x29e2 ===
  0x29e2	int3   	
  0x29e3	int3   	
  0x29e4	int3   	
  0x29e5	int3   	
  0x29e6	int3   	
  === BLOCK LINK ===
    0x29e7
=== CODE BLOCK END ===

=== CODE BLOCK ADDRESS 0x29e7 ===
  0x29e7	int3   	
  0x29e8	inc    	eax
  0x29e9	push   	ebx
  0x29ea	dec    	eax
  0x29eb	sub    	esp, 0x20
  === BLOCK LINK ===
    0x29ee
=== CODE BLOCK END ===

=== CODE BLOCK ADDRESS 0x29ee ===
  0x29ee	mov    	ebx, ecx
  0x29f0	call   	0x2a0c
  === BLOCK LINK ===
    0x29f5
=== CODE BLOCK END ===

=== CODE BLOCK ADDRESS 0x29f5 ===
  0x29f5	dec    	eax
  0x29f6	lea    	edx, [ebx + ebx*2]
  0x29f9	dec    	eax
  0x29fa	shl    	edx, 4
  0x29fd	dec    	eax
  === BLOCK LINK ===
    0x29fe
=== CODE BLOCK END ===

=== CODE BLOCK ADDRESS 0x29fe ===
  0x29fe	add    	eax, edx
  0x2a00	dec    	eax
  0x2a01	add    	esp, 0x20
  0x2a04	pop    	ebx
  0x2a05	ret    	
  === BLOCK LINK ===
    0x2a06
=== CODE BLOCK END ===

=== CODE BLOCK ADDRESS 0x10e9 ===
  0x10e9	mov    	eax, 3
  0x10ee	inc    	esp
  0x10ef	lea    	esi, [eax - 2]
  === BLOCK LINK ===
    0x10f2
=== CODE BLOCK END ===

=== CODE BLOCK ADDRESS 0x2a06 ===
  0x2a06	int3   	
  0x2a07	int3   	
  0x2a08	int3   	
  0x2a09	int3   	
  0x2a0a	int3   	
  === BLOCK LINK ===
    0x2a0b
=== CODE BLOCK END ===

=== CODE BLOCK ADDRESS 0x2a0b ===
  0x2a0b	int3   	
  0x2a0c	jmp    	dword ptr [0x8d6]
  === BLOCK LINK ===
    0x2a12
=== CODE BLOCK END ===

=== CODE BLOCK ADDRESS 0x2a12 ===
  0x2a12	int3   	
  0x2a13	int3   	
  0x2a14	int3   	
  0x2a15	int3   	
  0x2a16	int3   	
  === BLOCK LINK ===
    0x2a17
=== CODE BLOCK END ===

=== CODE BLOCK ADDRESS 0x2a17 ===
  0x2a17	int3   	
  0x2a18	dec    	eax
  0x2a19	sub    	esp, 0x28
  0x2a1c	dec    	ebp
  0x2a1d	mov    	eax, dword ptr [ecx + 0x38]
  === BLOCK LINK ===
    0x2a20
=== CODE BLOCK END ===

=== CODE BLOCK ADDRESS 0x2a20 ===
  0x2a20	dec    	eax
  0x2a21	mov    	ecx, edx
  0x2a23	dec    	ecx
  0x2a24	mov    	edx, ecx
  0x2a26	call   	0x2a3c
  === BLOCK LINK ===
    0x2a2b
=== CODE BLOCK END ===

=== CODE BLOCK ADDRESS 0x2a2b ===
  0x2a2b	mov    	eax, 1
  0x2a30	dec    	eax
  0x2a31	add    	esp, 0x28
  0x2a34	ret    	
  0x2a35	int3   	
  === BLOCK LINK ===
    0x2a36
=== CODE BLOCK END ===

=== CODE BLOCK ADDRESS 0x10e7 ===
  0x10e7	mov    	esi, ecx
  === BLOCK LINK ===
    0x10e9
=== CODE BLOCK END ===

=== CODE BLOCK ADDRESS 0x2a36 ===
  0x2a36	int3   	
  0x2a37	int3   	
  0x2a38	int3   	
  0x2a39	int3   	
  0x2a3a	int3   	
  === BLOCK LINK ===
    0x2a3b
=== CODE BLOCK END ===

=== CODE BLOCK ADDRESS 0x2a3b ===
  0x2a3b	int3   	
  0x2a3c	inc    	eax
  0x2a3d	push   	ebx
  0x2a3e	inc    	ebp
  0x2a3f	mov    	ebx, dword ptr [eax]
  === BLOCK LINK ===
    0x2a41
=== CODE BLOCK END ===

=== CODE BLOCK ADDRESS 0x2a41 ===
  0x2a41	dec    	eax
  0x2a42	mov    	ebx, edx
  0x2a44	inc    	ecx
  0x2a45	and    	ebx, 0xfffffff8
  0x2a48	dec    	esp
  === BLOCK LINK ===
    0x2a49
=== CODE BLOCK END ===

=== CODE BLOCK ADDRESS 0x2a49 ===
  0x2a49	mov    	ecx, ecx
  0x2a4b	inc    	ecx
  0x2a4c	test   	byte ptr [eax], 4
  0x2a4f	dec    	esp
  0x2a50	mov    	edx, ecx
  === BLOCK LINK ===
    0x2a52
=== CODE BLOCK END ===

=== CODE BLOCK ADDRESS 0x2a52 ===
  0x2a52	je     	0x2a67
  === BLOCK LINK ===
    0x2a54
=== CODE BLOCK END ===

=== CODE BLOCK ADDRESS 0x2a54 ===
  0x2a54	inc    	ecx
  0x2a55	mov    	eax, dword ptr [eax + 8]
  0x2a58	dec    	ebp
  0x2a59	arpl   	word ptr [eax + 4], dx
  0x2a5c	neg    	eax
  === BLOCK LINK ===
    0x2a5e
=== CODE BLOCK END ===

=== CODE BLOCK ADDRESS 0x2a5e ===
  0x2a5e	dec    	esp
  0x2a5f	add    	edx, ecx
  0x2a61	dec    	eax
  0x2a62	arpl   	ax, cx
  0x2a64	dec    	esp
  === BLOCK LINK ===
    0x2a65
=== CODE BLOCK END ===

=== CODE BLOCK ADDRESS 0x2a65 ===
  0x2a65	and    	edx, ecx
  0x2a67	dec    	ecx
  0x2a68	arpl   	bx, ax
  0x2a6a	dec    	edx
  0x2a6b	mov    	edx, dword ptr [eax + edx]
  === BLOCK LINK ===
    0x2a6e
=== CODE BLOCK END ===

=== CODE BLOCK ADDRESS 0x2a6e ===
  0x2a6e	dec    	eax
  0x2a6f	mov    	eax, dword ptr [ebx + 0x10]
  0x2a72	mov    	ecx, dword ptr [eax + 8]
  0x2a75	dec    	eax
  0x2a76	mov    	eax, dword ptr [ebx + 8]
  === BLOCK LINK ===
    0x2a79
=== CODE BLOCK END ===

=== CODE BLOCK ADDRESS 0x2a79 ===
  0x2a79	test   	byte ptr [ecx + eax + 3], 0xf
  0x2a7e	je     	0x2a8b
  === BLOCK LINK ===
    0x2a80
=== CODE BLOCK END ===

=== CODE BLOCK ADDRESS 0x2a80 ===
  0x2a80	movzx  	eax, byte ptr [ecx + eax + 3]
  0x2a85	and    	eax, 0xfffffff0
  0x2a88	dec    	esp
  0x2a89	add    	ecx, eax
  0x2a8b	dec    	esp
  === BLOCK LINK ===
    0x2a8c
=== CODE BLOCK END ===

=== CODE BLOCK ADDRESS 0x2a8c ===
  0x2a8c	xor    	ecx, edx
  0x2a8e	dec    	ecx
  0x2a8f	mov    	ecx, ecx
  0x2a91	pop    	ebx
  0x2a92	jmp    	0x24d0
  === BLOCK LINK ===
    0x2a97
=== CODE BLOCK END ===

=== CODE BLOCK ADDRESS 0x2a97 ===
  0x2a97	int3   	
  0x2a98	int3   	
  0x2a99	int3   	
  0x2a9a	int3   	
  0x2a9b	int3   	
  === BLOCK LINK ===
    0x2a9c
=== CODE BLOCK END ===

=== CODE BLOCK ADDRESS 0x2a9c ===
  0x2a9c	int3   	
  0x2a9d	jmp    	dword ptr [0x8f5]
  === BLOCK LINK ===
    0x2aa3
=== CODE BLOCK END ===

=== CODE BLOCK ADDRESS 0x2aa3 ===
  0x2aa3	int3   	
  0x2aa4	int3   	
  0x2aa5	int3   	
  0x2aa6	int3   	
  0x2aa7	int3   	
  === BLOCK LINK ===
    0x2aa8
=== CODE BLOCK END ===

=== CODE BLOCK ADDRESS 0x2aa8 ===
  0x2aa8	int3   	
  0x2aa9	int3   	
  0x2aaa	int3   	
  0x2aab	int3   	
  0x2aac	int3   	
  === BLOCK LINK ===
    0x2aad
=== CODE BLOCK END ===

=== CODE BLOCK ADDRESS 0x2aad ===
  0x2aad	int3   	
  0x2aae	int3   	
  0x2aaf	int3   	
  0x2ab0	int3   	
  0x2ab1	int3   	
  === BLOCK LINK ===
    0x2ab2
=== CODE BLOCK END ===

=== CODE BLOCK ADDRESS 0x2ab2 ===
  0x2ab2	int3   	
  0x2ab3	int3   	
  0x2ab4	int3   	
  0x2ab5	int3   	
  0x2ab6	nop    	word ptr [eax + eax]
  === BLOCK LINK ===
    0x2ac0
=== CODE BLOCK END ===

=== CODE BLOCK ADDRESS 0x2ac0 ===
  0x2ac0	jmp    	eax
  === BLOCK LINK ===
    0x2ac2
=== CODE BLOCK END ===

=== CODE BLOCK ADDRESS 0x2ac2 ===
  0x2ac2	int3   	
  0x2ac3	int3   	
  0x2ac4	int3   	
  0x2ac5	int3   	
  0x2ac6	int3   	
  === BLOCK LINK ===
    0x2ac7
=== CODE BLOCK END ===

=== CODE BLOCK ADDRESS 0x2ac7 ===
  0x2ac7	int3   	
  0x2ac8	int3   	
  0x2ac9	int3   	
  0x2aca	int3   	
  0x2acb	int3   	
  === BLOCK LINK ===
    0x2acc
=== CODE BLOCK END ===

=== CODE BLOCK ADDRESS 0x2acc ===
  0x2acc	int3   	
  0x2acd	int3   	
  0x2ace	int3   	
  0x2acf	int3   	
  0x2ad0	inc    	eax
  === BLOCK LINK ===
    0x2ad1
=== CODE BLOCK END ===

=== CODE BLOCK ADDRESS 0x2ad1 ===
  0x2ad1	push   	ebp
  0x2ad2	dec    	eax
  0x2ad3	sub    	esp, 0x20
  0x2ad6	dec    	eax
  0x2ad7	mov    	ebp, edx
  === BLOCK LINK ===
    0x2ad9
=== CODE BLOCK END ===

=== CODE BLOCK ADDRESS 0x2ad9 ===
  0x2ad9	dec    	eax
  0x2ada	mov    	eax, dword ptr [ecx]
  0x2adc	dec    	eax
  0x2add	mov    	edx, ecx
  0x2adf	mov    	ecx, dword ptr [eax]
  === BLOCK LINK ===
    0x2ae1
=== CODE BLOCK END ===

=== CODE BLOCK ADDRESS 0x2ae1 ===
  0x2ae1	call   	0x255e
  === BLOCK LINK ===
    0x2ae6
=== CODE BLOCK END ===

=== CODE BLOCK ADDRESS 0x2ae6 ===
  0x2ae6	nop    	
  0x2ae7	dec    	eax
  0x2ae8	add    	esp, 0x20
  0x2aeb	pop    	ebp
  0x2aec	ret    	
  === BLOCK LINK ===
    0x2aed
=== CODE BLOCK END ===

=== CODE BLOCK ADDRESS 0x24d0 ===
  0x24d0	dec    	eax
  0x24d1	cmp    	ecx, dword ptr [0x2b31]
  0x24d7	jne    	0x24e9
  === BLOCK LINK ===
    0x24d9
=== CODE BLOCK END ===

=== CODE BLOCK ADDRESS 0x2aed ===
  0x2aed	int3   	
  0x2aee	int3   	
  0x2aef	int3   	
  0x2af0	int3   	
  0x2af1	int3   	
  === BLOCK LINK ===
    0x2af2
=== CODE BLOCK END ===

=== CODE BLOCK ADDRESS 0x2af2 ===
  0x2af2	int3   	
  0x2af3	int3   	
  0x2af4	int3   	
  0x2af5	int3   	
  0x2af6	int3   	
  === BLOCK LINK ===
    0x2af7
=== CODE BLOCK END ===

=== CODE BLOCK ADDRESS 0x2af7 ===
  0x2af7	int3   	
  0x2af8	int3   	
  0x2af9	int3   	
  0x2afa	int3   	
  0x2afb	int3   	
  === BLOCK LINK ===
    0x2afc
=== CODE BLOCK END ===

=== CODE BLOCK ADDRESS 0x2afc ===
  0x2afc	int3   	
  0x2afd	int3   	
  0x2afe	int3   	
  0x2aff	int3   	
  0x2b00	inc    	eax
  === BLOCK LINK ===
    0x2b01
=== CODE BLOCK END ===

=== CODE BLOCK ADDRESS 0x2b01 ===
  0x2b01	push   	ebp
  0x2b02	dec    	eax
  0x2b03	sub    	esp, 0x20
  0x2b06	dec    	eax
  0x2b07	mov    	ebp, edx
  === BLOCK LINK ===
    0x2b09
=== CODE BLOCK END ===

=== CODE BLOCK ADDRESS 0x2b09 ===
  0x2b09	dec    	eax
  0x2b0a	mov    	eax, dword ptr [ecx]
  0x2b0c	xor    	ecx, ecx
  0x2b0e	cmp    	dword ptr [eax], 0xc0000005
  0x2b14	sete   	cl
  === BLOCK LINK ===
    0x2b17
=== CODE BLOCK END ===

=== CODE BLOCK ADDRESS 0x2b17 ===
  0x2b17	mov    	eax, ecx
  0x2b19	dec    	eax
  0x2b1a	add    	esp, 0x20
  0x2b1d	pop    	ebp
  0x2b1e	ret    	
  === BLOCK LINK ===
    0x2b1f
=== CODE BLOCK END ===

=== CODE BLOCK ADDRESS 0x2b1f ===
  0x2b1f	int3   	
  0x2b20	add    	byte ptr [eax], al
  0x2b22	add    	byte ptr [eax], al
  0x2b24	add    	byte ptr [eax], al
  0x2b26	add    	byte ptr [eax], al
  === BLOCK LINK ===
    0x2b28
=== CODE BLOCK END ===

=== CODE BLOCK ADDRESS 0x2b28 ===
  0x2b28	add    	byte ptr [eax], al
  0x2b2a	add    	byte ptr [eax], al
  0x2b2c	add    	byte ptr [eax], al
  0x2b2e	add    	byte ptr [eax], al
  0x2b30	add    	byte ptr [eax], al
  === BLOCK LINK ===
    0x2b32
=== CODE BLOCK END ===

=== CODE BLOCK ADDRESS 0x2b32 ===
  0x2b32	add    	byte ptr [eax], al
  0x2b34	add    	byte ptr [eax], al
  0x2b36	add    	byte ptr [eax], al
  0x2b38	add    	byte ptr [eax], al
  0x2b3a	add    	byte ptr [eax], al
  === BLOCK LINK ===
    0x2b3c
=== CODE BLOCK END ===

=== CODE BLOCK ADDRESS 0x2b3c ===
  0x2b3c	add    	byte ptr [eax], al
  0x2b3e	add    	byte ptr [eax], al
  0x2b40	add    	byte ptr [eax], al
  0x2b42	add    	byte ptr [eax], al
  0x2b44	add    	byte ptr [eax], al
  === BLOCK LINK ===
    0x2b46
=== CODE BLOCK END ===

=== CODE BLOCK ADDRESS 0x2b46 ===
  0x2b46	add    	byte ptr [eax], al
  0x2b48	add    	byte ptr [eax], al
  0x2b4a	add    	byte ptr [eax], al
  0x2b4c	add    	byte ptr [eax], al
  0x2b4e	add    	byte ptr [eax], al
  === BLOCK LINK ===
    0x2b50
=== CODE BLOCK END ===

=== CODE BLOCK ADDRESS 0x2b50 ===
  0x2b50	add    	byte ptr [eax], al
  0x2b52	add    	byte ptr [eax], al
  0x2b54	add    	byte ptr [eax], al
  0x2b56	add    	byte ptr [eax], al
  0x2b58	add    	byte ptr [eax], al
  === BLOCK LINK ===
    0x2b5a
=== CODE BLOCK END ===

=== CODE BLOCK ADDRESS 0x2b5a ===
  0x2b5a	add    	byte ptr [eax], al
  0x2b5c	add    	byte ptr [eax], al
  0x2b5e	add    	byte ptr [eax], al
  0x2b60	add    	byte ptr [eax], al
  0x2b62	add    	byte ptr [eax], al
  === BLOCK LINK ===
    0x2b64
=== CODE BLOCK END ===

=== CODE BLOCK ADDRESS 0x2b64 ===
  0x2b64	add    	byte ptr [eax], al
  0x2b66	add    	byte ptr [eax], al
  0x2b68	add    	byte ptr [eax], al
  0x2b6a	add    	byte ptr [eax], al
  0x2b6c	add    	byte ptr [eax], al
  === BLOCK LINK ===
    0x2b6e
=== CODE BLOCK END ===

=== CODE BLOCK ADDRESS 0x2b6e ===
  0x2b6e	add    	byte ptr [eax], al
  0x2b70	add    	byte ptr [eax], al
  0x2b72	add    	byte ptr [eax], al
  0x2b74	add    	byte ptr [eax], al
  0x2b76	add    	byte ptr [eax], al
  === BLOCK LINK ===
    0x2b78
=== CODE BLOCK END ===

=== CODE BLOCK ADDRESS 0x2b78 ===
  0x2b78	add    	byte ptr [eax], al
  0x2b7a	add    	byte ptr [eax], al
  0x2b7c	add    	byte ptr [eax], al
  0x2b7e	add    	byte ptr [eax], al
  0x2b80	add    	byte ptr [eax], al
  === BLOCK LINK ===
    0x2b82
=== CODE BLOCK END ===

=== CODE BLOCK ADDRESS 0x2b82 ===
  0x2b82	add    	byte ptr [eax], al
  0x2b84	add    	byte ptr [eax], al
  0x2b86	add    	byte ptr [eax], al
  0x2b88	add    	byte ptr [eax], al
  0x2b8a	add    	byte ptr [eax], al
  === BLOCK LINK ===
    0x2b8c
=== CODE BLOCK END ===

=== CODE BLOCK ADDRESS 0x2b8c ===
  0x2b8c	add    	byte ptr [eax], al
  0x2b8e	add    	byte ptr [eax], al
  0x2b90	add    	byte ptr [eax], al
  0x2b92	add    	byte ptr [eax], al
  0x2b94	add    	byte ptr [eax], al
  === BLOCK LINK ===
    0x2b96
=== CODE BLOCK END ===

=== CODE BLOCK ADDRESS 0x2b96 ===
  0x2b96	add    	byte ptr [eax], al
  0x2b98	add    	byte ptr [eax], al
  0x2b9a	add    	byte ptr [eax], al
  0x2b9c	add    	byte ptr [eax], al
  0x2b9e	add    	byte ptr [eax], al
  === BLOCK LINK ===
    0x2ba0
=== CODE BLOCK END ===

=== CODE BLOCK ADDRESS 0x2ba0 ===
  0x2ba0	add    	byte ptr [eax], al
  0x2ba2	add    	byte ptr [eax], al
  0x2ba4	add    	byte ptr [eax], al
  0x2ba6	add    	byte ptr [eax], al
  0x2ba8	add    	byte ptr [eax], al
  === BLOCK LINK ===
    0x2baa
=== CODE BLOCK END ===

=== CODE BLOCK ADDRESS 0x2baa ===
  0x2baa	add    	byte ptr [eax], al
  0x2bac	add    	byte ptr [eax], al
  0x2bae	add    	byte ptr [eax], al
  0x2bb0	add    	byte ptr [eax], al
  0x2bb2	add    	byte ptr [eax], al
  === BLOCK LINK ===
    0x2bb4
=== CODE BLOCK END ===

=== CODE BLOCK ADDRESS 0x2bb4 ===
  0x2bb4	add    	byte ptr [eax], al
  0x2bb6	add    	byte ptr [eax], al
  0x2bb8	add    	byte ptr [eax], al
  0x2bba	add    	byte ptr [eax], al
  0x2bbc	add    	byte ptr [eax], al
  === BLOCK LINK ===
    0x2bbe
=== CODE BLOCK END ===

=== CODE BLOCK ADDRESS 0x2bbe ===
  0x2bbe	add    	byte ptr [eax], al
  0x2bc0	add    	byte ptr [eax], al
  0x2bc2	add    	byte ptr [eax], al
  0x2bc4	add    	byte ptr [eax], al
  0x2bc6	add    	byte ptr [eax], al
  === BLOCK LINK ===
    0x2bc8
=== CODE BLOCK END ===

=== CODE BLOCK ADDRESS 0x2bc8 ===
  0x2bc8	add    	byte ptr [eax], al
  0x2bca	add    	byte ptr [eax], al
  0x2bcc	add    	byte ptr [eax], al
  0x2bce	add    	byte ptr [eax], al
  0x2bd0	add    	byte ptr [eax], al
  === BLOCK LINK ===
    0x2bd2
=== CODE BLOCK END ===

=== CODE BLOCK ADDRESS 0x2bd2 ===
  0x2bd2	add    	byte ptr [eax], al
  0x2bd4	add    	byte ptr [eax], al
  0x2bd6	add    	byte ptr [eax], al
  0x2bd8	add    	byte ptr [eax], al
  0x2bda	add    	byte ptr [eax], al
  === BLOCK LINK ===
    0x2bdc
=== CODE BLOCK END ===

=== CODE BLOCK ADDRESS 0x2bdc ===
  0x2bdc	add    	byte ptr [eax], al
  0x2bde	add    	byte ptr [eax], al
  0x2be0	add    	byte ptr [eax], al
  0x2be2	add    	byte ptr [eax], al
  0x2be4	add    	byte ptr [eax], al
  === BLOCK LINK ===
    0x2be6
=== CODE BLOCK END ===

=== CODE BLOCK ADDRESS 0x2be6 ===
  0x2be6	add    	byte ptr [eax], al
  0x2be8	add    	byte ptr [eax], al
  0x2bea	add    	byte ptr [eax], al
  0x2bec	add    	byte ptr [eax], al
  0x2bee	add    	byte ptr [eax], al
  === BLOCK LINK ===
    0x2bf0
=== CODE BLOCK END ===

=== CODE BLOCK ADDRESS 0x2bf0 ===
  0x2bf0	add    	byte ptr [eax], al
  0x2bf2	add    	byte ptr [eax], al
  0x2bf4	add    	byte ptr [eax], al
  0x2bf6	add    	byte ptr [eax], al
  0x2bf8	add    	byte ptr [eax], al
  === BLOCK LINK ===
    0x2bfa
=== CODE BLOCK END ===

=== CODE BLOCK ADDRESS 0x2bfa ===
  0x2bfa	add    	byte ptr [eax], al
  0x2bfc	add    	byte ptr [eax], al
=== CODE BLOCK END ===

=== DATA BLOCK ADDRESS 0x3000 ===
  0x3000	e0 50 00 40 01 00 00 00 80 51 00 40 01 00 00 00 	0P0@00000Q0@0000
  0x3010	18 01 00 00 00 00 00 00 00 00 00 00 00 00 00 00 	0000000000000000
  0x3020	00 00 00 00 00 00 00 00 00 00 00 00 00 00 00 00 	0000000000000000
  0x3030	00 00 00 00 00 00 00 00 00 00 00 00 00 00 00 00 	0000000000000000
  0x3040	00 00 00 00 00 00 00 00 00 00 00 00 00 00 00 00 	0000000000000000
  0x3050	00 00 00 00 00 00 00 00 00 00 00 00 00 00 00 00 	0000000000000000
  0x3060	00 00 00 00 00 00 00 00 08 50 00 40 01 00 00 00 	000000000P0@0000
  0x3070	00 00 00 00 00 00 00 00 00 00 00 00 00 00 00 00 	0000000000000000
  0x3080	b8 33 00 40 01 00 00 00 c0 33 00 40 01 00 00 00 	030@0000030@0000
  0x3090	00 34 00 40 01 00 00 00 08 00 00 00 00 00 00 00 	040@000000000000
  0x30a0	00 75 01 00 00 00 00 00 00 00 00 00 00 00 00 00 	0u00000000000000
  0x30b0	00 00 00 00 00 00 00 00 00 00 00 00 00 00 00 00 	0000000000000000
  0x30c0	00 00 00 00 00 00 00 00 00 00 00 00 00 00 00 00 	0000000000000000
  0x30d0	00 00 00 00 00 00 00 00 00 00 00 00 00 00 00 00 	0000000000000000
  0x30e0	00 00 00 00 00 00 00 00 00 00 00 00 00 00 00 00 	0000000000000000
  0x30f0	00 00 00 00 00 00 00 00 00 00 00 00 00 00 00 00 	0000000000000000
  0x3100	00 00 00 00 00 00 00 00 00 00 00 00 00 00 00 00 	0000000000000000
  0x3110	00 00 00 00 00 00 00 00 00 00 00 00 00 00 00 00 	0000000000000000
  0x3120	00 00 00 00 00 00 00 00 17 00 00 00 00 00 00 80 	0000000000000000
  0x3130	00 3e 00 00 00 00 00 00 15 00 00 00 00 00 00 80 	0>00000000000000
  0x3140	02 00 00 00 00 00 00 80 10 3e 00 00 00 00 00 00 	000000000>000000
  0x3150	74 00 00 00 00 00 00 80 d6 3d 00 00 00 00 00 00 	t00000000=000000
  0x3160	09 00 00 00 00 00 00 80 12 00 00 00 00 00 00 80 	0000000000000000
  0x3170	73 00 00 00 00 00 00 80 11 00 00 00 00 00 00 80 	s000000000000000
  0x3180	08 00 00 00 00 00 00 80 14 00 00 00 00 00 00 80 	0000000000000000
  0x3190	00 00 00 00 00 00 00 00 5a 41 00 00 00 00 00 00 	00000000ZA000000
  0x31a0	00 00 00 00 00 00 00 00 7e 41 00 00 00 00 00 00 	00000000~A000000
  0x31b0	28 3e 00 00 00 00 00 00 0c 3f 00 00 00 00 00 00 	(>0000000?000000
  0x31c0	00 00 00 00 00 00 00 00 b0 41 00 00 00 00 00 00 	000000000A000000
  0x31d0	00 00 00 00 00 00 00 00 c0 3d 00 00 00 00 00 00 	000000000=000000
  0x31e0	00 00 00 00 00 00 00 00 4c 41 00 00 00 00 00 00 	00000000LA000000
  0x31f0	8e 41 00 00 00 00 00 00 00 00 00 00 00 00 00 00 	0A00000000000000
  0x3200	46 3e 00 00 00 00 00 00 00 00 00 00 00 00 00 00 	F>00000000000000
  0x3210	aa 3d 00 00 00 00 00 00 6c 41 00 00 00 00 00 00 	0=000000lA000000
  0x3220	00 00 00 00 00 00 00 00 32 41 00 00 00 00 00 00 	000000002A000000
  0x3230	00 00 00 00 00 00 00 00 3c 3f 00 00 00 00 00 00 	00000000<?000000
  0x3240	74 3e 00 00 00 00 00 00 8a 3e 00 00 00 00 00 00 	t>0000000>000000
  0x3250	28 3f 00 00 00 00 00 00 00 00 00 00 00 00 00 00 	(?00000000000000
  0x3260	5a 3e 00 00 00 00 00 00 00 00 00 00 00 00 00 00 	Z>00000000000000
  0x3270	ca 3e 00 00 00 00 00 00 f8 3e 00 00 00 00 00 00 	0>0000000>000000
  0x3280	de 3e 00 00 00 00 00 00 00 00 00 00 00 00 00 00 	0>00000000000000
  0x3290	9a 41 00 00 00 00 00 00 00 00 00 00 00 00 00 00 	0A00000000000000
  0x32a0	20 3e 00 00 00 00 00 00 00 00 00 00 00 00 00 00 	 >00000000000000
  0x32b0	a0 3e 00 00 00 00 00 00 ba 3e 00 00 00 00 00 00 	0>0000000>000000
  0x32c0	00 00 00 00 00 00 00 00 96 3d 00 00 00 00 00 00 	000000000=000000
  0x32d0	7e 3d 00 00 00 00 00 00 74 3d 00 00 00 00 00 00 	~=000000t=000000
  0x32e0	5c 3d 00 00 00 00 00 00 bc 40 00 00 00 00 00 00 	0=0000000@000000
  0x32f0	ca 40 00 00 00 00 00 00 e8 40 00 00 00 00 00 00 	0@0000000@000000
  0x3300	f2 40 00 00 00 00 00 00 fe 40 00 00 00 00 00 00 	0@0000000@000000
  0x3310	08 41 00 00 00 00 00 00 12 41 00 00 00 00 00 00 	0A0000000A000000
  0x3320	1c 41 00 00 00 00 00 00 26 41 00 00 00 00 00 00 	0A000000&A000000
  0x3330	50 3d 00 00 00 00 00 00 3c 3d 00 00 00 00 00 00 	P=000000<=000000
  0x3340	32 3d 00 00 00 00 00 00 2a 3d 00 00 00 00 00 00 	2=000000*=000000
  0x3350	18 3d 00 00 00 00 00 00 06 3d 00 00 00 00 00 00 	0=0000000=000000
  0x3360	f8 3c 00 00 00 00 00 00 dc 40 00 00 00 00 00 00 	0<0000000@000000
  0x3370	ea 3c 00 00 00 00 00 00 e0 3c 00 00 00 00 00 00 	0<0000000<000000
  0x3380	d8 3c 00 00 00 00 00 00 d0 3c 00 00 00 00 00 00 	0<0000000<000000
  0x3390	c8 3c 00 00 00 00 00 00 72 42 00 00 00 00 00 00 	0<000000rB000000
  0x33a0	00 00 00 00 00 00 00 00 e6 3d 00 00 00 00 00 00 	000000000=000000
  0x33b0	00 00 00 00 00 00 00 00 10 28 00 40 01 00 00 00 	000000000(0@0000
  0x33c0	c0 2a 00 40 01 00 00 00 00 00 00 00 00 00 00 00 	0*0@000000000000
  0x33d0	80 22 00 40 01 00 00 00 00 00 00 00 00 00 00 00 	0"0@000000000000
  0x33e0	00 00 00 00 00 00 00 00 a0 21 00 40 01 00 00 00 	000000000!0@0000
  0x33f0	40 25 00 40 01 00 00 00 00 00 00 00 00 00 00 00 	@%0@000000000000
  0x3400	a0 21 00 00 80 22 00 00 a0 24 00 00 00 25 00 00 	0!000"000$000%00
  0x3410	40 25 00 00 20 26 00 00 10 28 00 00 60 28 00 00 	@%00 &000(00`(00
  0x3420	6c 00 6f 00 63 00 61 00 6c 00 00 00 00 00 00 00 	l0o0c0a0l0000000
  0x3430	4f 00 75 00 74 00 70 00 75 00 74 00 45 00 6e 00 	O0u0t0p0u0t0E0n0
  0x3440	63 00 6f 00 64 00 69 00 6e 00 67 00 00 00 00 00 	c0o0d0i0n0g00000
  0x3450	55 00 6e 00 69 00 63 00 6f 00 64 00 65 00 00 00 	U0n0i0c0o0d0e000
  0x3460	41 00 6e 00 73 00 69 00 00 00 00 00 00 00 00 00 	A0n0s0i000000000
  0x3470	55 00 54 00 46 00 38 00 00 00 00 00 00 00 00 00 	U0T0F08000000000
  0x3480	55 00 54 00 46 00 2d 00 38 00 00 00 ff fe 00 00 	U0T0F0-080000000
  0x3490	ef bb bf 00 00 00 00 00 25 00 6c 00 73 00 00 00 	00000000%0l0s000
  0x34a0	00 00 00 00 28 3c 30 9d 00 00 00 00 02 00 00 00 	0000(<0000000000
  0x34b0	23 00 00 00 f4 34 00 00 f4 24 00 00 00 00 00 00 	#00004000$000000
  0x34c0	28 3c 30 9d 00 00 00 00 0d 00 00 00 f0 01 00 00 	(<00000000000000
  0x34d0	18 35 00 00 18 25 00 00 00 00 00 00 28 3c 30 9d 	05000%000000(<00
  0x34e0	00 00 00 00 10 00 00 00 24 00 00 00 08 37 00 00 	00000000$0000700
  0x34f0	08 27 00 00 52 53 44 53 90 77 58 d7 dc 89 45 95 	0'00RSDS0wX000E0
  0x3500	3d 9c f2 43 aa fe 40 ff 01 00 00 00 6d 72 69 6e 	=00C00@00000mrin
  0x3510	66 6f 2e 70 64 62 00 00 47 43 54 4c 00 10 00 00 	fo.pdb00GCTL0000
  0x3520	b0 1a 00 00 2e 74 65 78 74 24 6d 6e 00 00 00 00 	0000.text$mn0000
  0x3530	b0 2a 00 00 20 00 00 00 2e 74 65 78 74 24 6d 6e 	0*00 000.text$mn
  0x3540	24 30 30 00 d0 2a 00 00 50 00 00 00 2e 74 65 78 	$0000*00P000.tex
  0x3550	74 24 78 00 00 30 00 00 28 01 00 00 2e 72 64 61 	t$x00000(000.rda
  0x3560	74 61 24 62 72 63 00 00 28 31 00 00 90 02 00 00 	ta$brc00(1000000
  0x3570	2e 69 64 61 74 61 24 35 00 00 00 00 b8 33 00 00 	.idata$500000300
  0x3580	10 00 00 00 2e 30 30 63 66 67 00 00 c8 33 00 00 	0000.00cfg000300
  0x3590	08 00 00 00 2e 43 52 54 24 58 43 41 00 00 00 00 	0000.CRT$XCA0000
  0x35a0	d0 33 00 00 08 00 00 00 2e 43 52 54 24 58 43 41 	03000000.CRT$XCA
  0x35b0	41 00 00 00 d8 33 00 00 08 00 00 00 2e 43 52 54 	A00003000000.CRT
  0x35c0	24 58 43 5a 00 00 00 00 e0 33 00 00 08 00 00 00 	$XCZ000003000000
  0x35d0	2e 43 52 54 24 58 49 41 00 00 00 00 e8 33 00 00 	.CRT$XIA00000300
  0x35e0	08 00 00 00 2e 43 52 54 24 58 49 41 41 00 00 00 	0000.CRT$XIAA000
  0x35f0	f0 33 00 00 08 00 00 00 2e 43 52 54 24 58 49 59 	03000000.CRT$XIY
  0x3600	00 00 00 00 f8 33 00 00 08 00 00 00 2e 43 52 54 	000003000000.CRT
  0x3610	24 58 49 5a 00 00 00 00 00 34 00 00 20 00 00 00 	$XIZ00000400 000
  0x3620	2e 67 66 69 64 73 00 00 20 34 00 00 d4 00 00 00 	.gfids00 4000000
  0x3630	2e 72 64 61 74 61 00 00 f4 34 00 00 3c 02 00 00 	.rdata000400<000
  0x3640	2e 72 64 61 74 61 24 7a 7a 7a 64 62 67 00 00 00 	.rdata$zzzdbg000
  0x3650	30 37 00 00 9c 01 00 00 2e 78 64 61 74 61 00 00 	07000000.xdata00
  0x3660	cc 38 00 00 54 01 00 00 2e 69 64 61 74 61 24 32 	0800T000.idata$2
  0x3670	00 00 00 00 20 3a 00 00 18 00 00 00 2e 69 64 61 	0000 :000000.ida
  0x3680	74 61 24 33 00 00 00 00 38 3a 00 00 90 02 00 00 	ta$300008:000000
  0x3690	2e 69 64 61 74 61 24 34 00 00 00 00 c8 3c 00 00 	.idata$400000<00
  0x36a0	b4 05 00 00 2e 69 64 61 74 61 24 36 00 00 00 00 	0000.idata$60000
  0x36b0	00 50 00 00 a0 00 00 00 2e 64 61 74 61 00 00 00 	0P000000.data000
  0x36c0	a0 50 00 00 e0 0e 00 00 2e 62 73 73 00 00 00 00 	0P000000.bss0000
  0x36d0	00 60 00 00 68 01 00 00 2e 70 64 61 74 61 00 00 	0`00h000.pdata00
  0x36e0	00 70 00 00 f0 00 00 00 2e 72 73 72 63 24 30 31 	0p000000.rsrc$01
  0x36f0	00 00 00 00 f0 70 00 00 30 07 00 00 2e 72 73 72 	00000p000000.rsr
  0x3700	63 24 30 32 00 00 00 00 20 00 00 00 90 77 58 d7 	c$020000 0000wX0
  0x3710	dc 89 45 95 3d 9c f2 43 aa fe 40 ff cd f6 58 52 	00E0=00C00@000XR
  0x3720	d3 d3 29 d2 a4 7d d6 a5 28 3c 30 9d 00 00 00 00 	00)00}00(<000000
  0x3730	01 04 01 00 04 42 00 00 19 30 0b 00 1f 34 9e 00 	00000B0000000400
  0x3740	1f 01 94 00 10 f0 0e e0 0c d0 0a c0 08 70 07 60 	0000000000000p0`
  0x3750	06 50 00 00 18 2a 00 00 90 04 00 00 19 15 02 00 	0P000*0000000000
  0x3760	06 b2 02 30 18 2a 00 00 58 00 00 00 01 13 09 00 	00000*00X0000000
  0x3770	13 62 0f f0 0d e0 0b d0 09 c0 07 70 06 60 05 50 	0b000000000p0`0P
  0x3780	04 30 00 00 19 37 0d 00 26 74 7b 00 26 64 7a 00 	00000700&t{0&dz0
  0x3790	26 34 78 00 26 01 72 00 18 f0 16 e0 14 d0 12 c0 	&4x0&0r000000000
  0x37a0	10 50 00 00 18 2a 00 00 80 03 00 00 01 08 02 00 	0P000*0000000000
  0x37b0	08 92 04 30 19 1e 06 00 0f 64 0e 00 0f 34 0d 00 	000000000d000400
  0x37c0	0f 92 0b 70 18 2a 00 00 40 00 00 00 01 14 08 00 	000p0*00@0000000
  0x37d0	14 64 09 00 14 54 07 00 14 34 06 00 14 32 10 70 	0d000T000400020p
  0x37e0	01 0a 04 00 0a 34 08 00 0a 32 06 70 19 2b 0b 00 	00000400020p0+00
  0x37f0	19 54 29 00 19 34 28 00 19 01 20 00 12 f0 10 e0 	0T)004(000 00000
  0x3800	0e c0 0c 70 0b 60 00 00 18 2a 00 00 f0 00 00 00 	000p0`000*000000
  0x3810	01 14 02 00 14 92 10 30 01 04 01 00 04 62 00 00 	0000000000000b00
  0x3820	09 15 08 00 15 74 0a 00 15 64 09 00 15 34 08 00 	00000t000d000400
  0x3830	15 52 11 f0 fa 27 00 00 01 00 00 00 e5 22 00 00 	0R000'0000000"00
  0x3840	4b 24 00 00 d0 2a 00 00 4b 24 00 00 01 06 02 00 	K$000*00K$000000
  0x3850	06 32 02 50 00 00 00 00 01 00 00 00 09 04 01 00 	020P000000000000
  0x3860	04 22 00 00 fa 27 00 00 01 00 00 00 7c 25 00 00 	0"000'000000|%00
  0x3870	b2 25 00 00 01 00 00 00 b2 25 00 00 01 06 02 00 	0%0000000%000000
  0x3880	06 32 02 30 09 0a 04 00 0a 34 06 00 0a 32 06 70 	020000000400020p
  0x3890	fa 27 00 00 01 00 00 00 8d 26 00 00 c0 26 00 00 	0'0000000&000&00
  0x38a0	00 2b 00 00 c0 26 00 00 01 0d 04 00 0d 34 09 00 	0+000&0000000400
  0x38b0	0d 32 06 50 01 0c 02 00 0c 01 11 00 00 00 00 00 	020P000000000000
  0x38c0	01 00 00 00 01 02 01 00 02 30 00 00 d8 3b 00 00 	0000000000000;00
  0x38d0	00 00 00 00 00 00 00 00 8a 3d 00 00 c8 32 00 00 	000000000=000200
  0x38e0	38 3a 00 00 00 00 00 00 00 00 00 00 50 3f 00 00 	8:0000000000P?00
  0x38f0	28 31 00 00 20 3b 00 00 00 00 00 00 00 00 00 00 	(100 ;0000000000
  0x3900	5c 3f 00 00 10 32 00 00 e8 3a 00 00 00 00 00 00 	0?0002000:000000
  0x3910	00 00 00 00 84 3f 00 00 d8 31 00 00 b8 3c 00 00 	00000?0001000<00
  0x3920	00 00 00 00 00 00 00 00 a4 3f 00 00 a8 33 00 00 	000000000?000300
  0x3930	b0 3b 00 00 00 00 00 00 00 00 00 00 ae 3f 00 00 	0;00000000000?00
  0x3940	a0 32 00 00 b8 3a 00 00 00 00 00 00 00 00 00 00 	02000:0000000000
  0x3950	d0 3f 00 00 a8 31 00 00 10 3b 00 00 00 00 00 00 	0?0001000;000000
  0x3960	00 00 00 00 fa 3f 00 00 00 32 00 00 70 3b 00 00 	00000?000200p;00
  0x3970	00 00 00 00 00 00 00 00 24 40 00 00 60 32 00 00 	00000000$@00`200
  0x3980	48 3b 00 00 00 00 00 00 00 00 00 00 48 40 00 00 	H;0000000000H@00
  0x3990	38 32 00 00 c0 3b 00 00 00 00 00 00 00 00 00 00 	82000;0000000000
  0x39a0	72 40 00 00 b0 32 00 00 80 3b 00 00 00 00 00 00 	r@0002000;000000
  0x39b0	00 00 00 00 96 40 00 00 70 32 00 00 38 3b 00 00 	00000@00p2008;00
  0x39c0	00 00 00 00 00 00 00 00 be 41 00 00 28 32 00 00 	000000000A00(200
  0x39d0	f8 3a 00 00 00 00 00 00 00 00 00 00 ec 41 00 00 	0:00000000000A00
  0x39e0	e8 31 00 00 a8 3a 00 00 00 00 00 00 00 00 00 00 	01000:0000000000
  0x39f0	0c 42 00 00 98 31 00 00 a0 3b 00 00 00 00 00 00 	0B0001000;000000
  0x3a00	00 00 00 00 30 42 00 00 90 32 00 00 d8 3a 00 00 	00000B0002000:00
  0x3a10	00 00 00 00 00 00 00 00 52 42 00 00 c8 31 00 00 	00000000RB000100
  0x3a20	00 00 00 00 00 00 00 00 00 00 00 00 00 00 00 00 	0000000000000000
  0x3a30	00 00 00 00 00 00 00 00 17 00 00 00 00 00 00 80 	0000000000000000
  0x3a40	00 3e 00 00 00 00 00 00 15 00 00 00 00 00 00 80 	0>00000000000000
  0x3a50	02 00 00 00 00 00 00 80 10 3e 00 00 00 00 00 00 	000000000>000000
  0x3a60	74 00 00 00 00 00 00 80 d6 3d 00 00 00 00 00 00 	t00000000=000000
  0x3a70	09 00 00 00 00 00 00 80 12 00 00 00 00 00 00 80 	0000000000000000
  0x3a80	73 00 00 00 00 00 00 80 11 00 00 00 00 00 00 80 	s000000000000000
  0x3a90	08 00 00 00 00 00 00 80 14 00 00 00 00 00 00 80 	0000000000000000
  0x3aa0	00 00 00 00 00 00 00 00 5a 41 00 00 00 00 00 00 	00000000ZA000000
  0x3ab0	00 00 00 00 00 00 00 00 7e 41 00 00 00 00 00 00 	00000000~A000000
  0x3ac0	28 3e 00 00 00 00 00 00 0c 3f 00 00 00 00 00 00 	(>0000000?000000
  0x3ad0	00 00 00 00 00 00 00 00 b0 41 00 00 00 00 00 00 	000000000A000000
  0x3ae0	00 00 00 00 00 00 00 00 c0 3d 00 00 00 00 00 00 	000000000=000000
  0x3af0	00 00 00 00 00 00 00 00 4c 41 00 00 00 00 00 00 	00000000LA000000
  0x3b00	8e 41 00 00 00 00 00 00 00 00 00 00 00 00 00 00 	0A00000000000000
  0x3b10	46 3e 00 00 00 00 00 00 00 00 00 00 00 00 00 00 	F>00000000000000
  0x3b20	aa 3d 00 00 00 00 00 00 6c 41 00 00 00 00 00 00 	0=000000lA000000
  0x3b30	00 00 00 00 00 00 00 00 32 41 00 00 00 00 00 00 	000000002A000000
  0x3b40	00 00 00 00 00 00 00 00 3c 3f 00 00 00 00 00 00 	00000000<?000000
  0x3b50	74 3e 00 00 00 00 00 00 8a 3e 00 00 00 00 00 00 	t>0000000>000000
  0x3b60	28 3f 00 00 00 00 00 00 00 00 00 00 00 00 00 00 	(?00000000000000
  0x3b70	5a 3e 00 00 00 00 00 00 00 00 00 00 00 00 00 00 	Z>00000000000000
  0x3b80	ca 3e 00 00 00 00 00 00 f8 3e 00 00 00 00 00 00 	0>0000000>000000
  0x3b90	de 3e 00 00 00 00 00 00 00 00 00 00 00 00 00 00 	0>00000000000000
  0x3ba0	9a 41 00 00 00 00 00 00 00 00 00 00 00 00 00 00 	0A00000000000000
  0x3bb0	20 3e 00 00 00 00 00 00 00 00 00 00 00 00 00 00 	 >00000000000000
  0x3bc0	a0 3e 00 00 00 00 00 00 ba 3e 00 00 00 00 00 00 	0>0000000>000000
  0x3bd0	00 00 00 00 00 00 00 00 96 3d 00 00 00 00 00 00 	000000000=000000
  0x3be0	7e 3d 00 00 00 00 00 00 74 3d 00 00 00 00 00 00 	~=000000t=000000
  0x3bf0	5c 3d 00 00 00 00 00 00 bc 40 00 00 00 00 00 00 	0=0000000@000000
  0x3c00	ca 40 00 00 00 00 00 00 e8 40 00 00 00 00 00 00 	0@0000000@000000
  0x3c10	f2 40 00 00 00 00 00 00 fe 40 00 00 00 00 00 00 	0@0000000@000000
  0x3c20	08 41 00 00 00 00 00 00 12 41 00 00 00 00 00 00 	0A0000000A000000
  0x3c30	1c 41 00 00 00 00 00 00 26 41 00 00 00 00 00 00 	0A000000&A000000
  0x3c40	50 3d 00 00 00 00 00 00 3c 3d 00 00 00 00 00 00 	P=000000<=000000
  0x3c50	32 3d 00 00 00 00 00 00 2a 3d 00 00 00 00 00 00 	2=000000*=000000
  0x3c60	18 3d 00 00 00 00 00 00 06 3d 00 00 00 00 00 00 	0=0000000=000000
  0x3c70	f8 3c 00 00 00 00 00 00 dc 40 00 00 00 00 00 00 	0<0000000@000000
  0x3c80	ea 3c 00 00 00 00 00 00 e0 3c 00 00 00 00 00 00 	0<0000000<000000
  0x3c90	d8 3c 00 00 00 00 00 00 d0 3c 00 00 00 00 00 00 	0<0000000<000000
  0x3ca0	c8 3c 00 00 00 00 00 00 72 42 00 00 00 00 00 00 	0<000000rB000000
  0x3cb0	00 00 00 00 00 00 00 00 e6 3d 00 00 00 00 00 00 	000000000=000000
  0x3cc0	00 00 00 00 00 00 00 00 32 04 65 78 69 74 00 00 	0000000020exit00
  0x3cd0	05 04 5f 77 74 6f 69 00 4c 04 66 72 65 65 00 00 	00_wtoi0L0free00
  0x3ce0	86 04 6d 61 6c 6c 6f 63 00 00 55 00 5f 58 63 70 	00malloc00U0_Xcp
  0x3cf0	74 46 69 6c 74 65 72 00 ae 00 5f 61 6d 73 67 5f 	tFilter000_amsg_
  0x3d00	65 78 69 74 00 00 9d 00 5f 5f 77 67 65 74 6d 61 	exit0000__wgetma
  0x3d10	69 6e 61 72 67 73 00 00 8e 00 5f 5f 73 65 74 5f 	inargs0000__set_
  0x3d20	61 70 70 5f 74 79 70 65 00 00 0e 01 5f 65 78 69 	app_type0000_exi
  0x3d30	74 00 c1 00 5f 63 65 78 69 74 00 00 90 00 5f 5f 	t000_cexit0000__
  0x3d40	73 65 74 75 73 65 72 6d 61 74 68 65 72 72 00 00 	setusermatherr00
  0x3d50	7d 01 5f 69 6e 69 74 74 65 72 6d 00 57 00 5f 5f 	}0_initterm0W0__
  0x3d60	43 5f 73 70 65 63 69 66 69 63 5f 68 61 6e 64 6c 	C_specific_handl
  0x3d70	65 72 00 00 27 01 5f 66 6d 6f 64 65 00 00 d2 00 	er00'0_fmode0000
  0x3d80	5f 63 6f 6d 6d 6f 64 65 00 00 6d 73 76 63 72 74 	_commode00msvcrt
  0x3d90	2e 64 6c 6c 00 00 2f 00 3f 74 65 72 6d 69 6e 61 	.dll00/0?termina
  0x3da0	74 65 40 40 59 41 58 58 5a 00 3f 00 53 65 74 54 	te@@YAXXZ0?0SetT
  0x3db0	68 72 65 61 64 55 49 4c 61 6e 67 75 61 67 65 00 	hreadUILanguage0
  0x3dc0	0a 00 48 65 61 70 53 65 74 49 6e 66 6f 72 6d 61 	00HeapSetInforma
  0x3dd0	74 69 6f 6e 00 00 09 00 47 65 74 4e 61 6d 65 49 	tion0000GetNameI
  0x3de0	6e 66 6f 57 00 00 0a 00 52 74 6c 49 70 76 34 41 	nfoW0000RtlIpv4A
  0x3df0	64 64 72 65 73 73 54 6f 53 74 72 69 6e 67 57 00 	ddressToStringW0
  0x3e00	07 00 47 65 74 41 64 64 72 49 6e 66 6f 57 00 00 	00GetAddrInfoW00
  0x3e10	02 00 46 72 65 65 41 64 64 72 49 6e 66 6f 57 00 	00FreeAddrInfoW0
  0x3e20	2d 00 53 6c 65 65 70 00 0f 00 53 65 74 55 6e 68 	-0Sleep000SetUnh
  0x3e30	61 6e 64 6c 65 64 45 78 63 65 70 74 69 6f 6e 46 	andledExceptionF
  0x3e40	69 6c 74 65 72 00 14 00 47 65 74 4d 6f 64 75 6c 	ilter000GetModul
  0x3e50	65 48 61 6e 64 6c 65 57 00 00 00 00 51 75 65 72 	eHandleW0000Quer
  0x3e60	79 50 65 72 66 6f 72 6d 61 6e 63 65 43 6f 75 6e 	yPerformanceCoun
  0x3e70	74 65 72 00 0d 00 47 65 74 43 75 72 72 65 6e 74 	ter000GetCurrent
  0x3e80	50 72 6f 63 65 73 73 49 64 00 11 00 47 65 74 43 	ProcessId000GetC
  0x3e90	75 72 72 65 6e 74 54 68 72 65 61 64 49 64 00 00 	urrentThreadId00
  0x3ea0	16 00 47 65 74 53 79 73 74 65 6d 54 69 6d 65 41 	00GetSystemTimeA
  0x3eb0	73 46 69 6c 65 54 69 6d 65 00 1a 00 47 65 74 54 	sFileTime000GetT
  0x3ec0	69 63 6b 43 6f 75 6e 74 00 00 02 00 52 74 6c 43 	ickCount0000RtlC
  0x3ed0	61 70 74 75 72 65 43 6f 6e 74 65 78 74 00 0a 00 	aptureContext000
  0x3ee0	52 74 6c 4c 6f 6f 6b 75 70 46 75 6e 63 74 69 6f 	RtlLookupFunctio
  0x3ef0	6e 45 6e 74 72 79 00 00 10 00 52 74 6c 56 69 72 	nEntry0000RtlVir
  0x3f00	74 75 61 6c 55 6e 77 69 6e 64 00 00 11 00 55 6e 	tualUnwind0000Un
  0x3f10	68 61 6e 64 6c 65 64 45 78 63 65 70 74 69 6f 6e 	handledException
  0x3f20	46 69 6c 74 65 72 00 00 0c 00 47 65 74 43 75 72 	Filter0000GetCur
  0x3f30	72 65 6e 74 50 72 6f 63 65 73 73 00 4e 00 54 65 	rentProcess0N0Te
  0x3f40	72 6d 69 6e 61 74 65 50 72 6f 63 65 73 73 00 00 	rminateProcess00
  0x3f50	57 53 32 5f 33 32 2e 64 6c 6c 00 00 61 70 69 2d 	WS2_32.dll00api-
  0x3f60	6d 73 2d 77 69 6e 2d 63 6f 72 65 2d 6c 6f 63 61 	ms-win-core-loca
  0x3f70	6c 69 7a 61 74 69 6f 6e 2d 6c 31 2d 32 2d 30 2e 	lization-l1-2-0.
  0x3f80	64 6c 6c 00 61 70 69 2d 6d 73 2d 77 69 6e 2d 63 	dll0api-ms-win-c
  0x3f90	6f 72 65 2d 68 65 61 70 2d 6c 31 2d 31 2d 30 2e 	ore-heap-l1-1-0.
  0x3fa0	64 6c 6c 00 6e 74 64 6c 6c 2e 64 6c 6c 00 61 70 	dll0ntdll.dll0ap
  0x3fb0	69 2d 6d 73 2d 77 69 6e 2d 63 6f 72 65 2d 73 79 	i-ms-win-core-sy
  0x3fc0	6e 63 68 2d 6c 31 2d 32 2d 30 2e 64 6c 6c 00 00 	nch-l1-2-0.dll00
  0x3fd0	61 70 69 2d 6d 73 2d 77 69 6e 2d 63 6f 72 65 2d 	api-ms-win-core-
  0x3fe0	65 72 72 6f 72 68 61 6e 64 6c 69 6e 67 2d 6c 31 	errorhandling-l1
  0x3ff0	2d 31 2d 30 2e 64 6c 6c 00 00 61 70 69 2d 6d 73 	-1-0.dll00api-ms
  0x4000	2d 77 69 6e 2d 63 6f 72 65 2d 6c 69 62 72 61 72 	-win-core-librar
  0x4010	79 6c 6f 61 64 65 72 2d 6c 31 2d 32 2d 30 2e 64 	yloader-l1-2-0.d
  0x4020	6c 6c 00 00 61 70 69 2d 6d 73 2d 77 69 6e 2d 63 	ll00api-ms-win-c
  0x4030	6f 72 65 2d 70 72 6f 66 69 6c 65 2d 6c 31 2d 31 	ore-profile-l1-1
  0x4040	2d 30 2e 64 6c 6c 00 00 61 70 69 2d 6d 73 2d 77 	-0.dll00api-ms-w
  0x4050	69 6e 2d 63 6f 72 65 2d 70 72 6f 63 65 73 73 74 	in-core-processt
  0x4060	68 72 65 61 64 73 2d 6c 31 2d 31 2d 30 2e 64 6c 	hreads-l1-1-0.dl
  0x4070	6c 00 61 70 69 2d 6d 73 2d 77 69 6e 2d 63 6f 72 	l0api-ms-win-cor
  0x4080	65 2d 73 79 73 69 6e 66 6f 2d 6c 31 2d 31 2d 30 	e-sysinfo-l1-1-0
  0x4090	2e 64 6c 6c 00 00 61 70 69 2d 6d 73 2d 77 69 6e 	.dll00api-ms-win
  0x40a0	2d 63 6f 72 65 2d 72 74 6c 73 75 70 70 6f 72 74 	-core-rtlsupport
  0x40b0	2d 6c 31 2d 31 2d 30 2e 64 6c 6c 00 81 00 5f 5f 	-l1-1-0.dll000__
  0x40c0	69 6f 62 5f 66 75 6e 63 00 00 55 01 5f 67 65 74 	iob_func00U0_get
  0x40d0	5f 6f 73 66 68 61 6e 64 6c 65 00 00 8a 03 5f 77 	_osfhandle0000_w
  0x40e0	63 73 69 63 6d 70 00 00 39 04 66 66 6c 75 73 68 	csicmp0090fflush
  0x40f0	00 00 c8 02 5f 73 65 74 6d 6f 64 65 00 00 e4 03 	0000_setmode0000
  0x4100	5f 77 72 69 74 65 00 00 1b 01 5f 66 69 6c 65 6e 	_write0000_filen
  0x4110	6f 00 01 05 77 63 73 63 68 72 00 00 3b 04 66 67 	o000wcschr00;0fg
  0x4120	65 74 70 6f 73 00 55 04 66 77 70 72 69 6e 74 66 	etpos0U0fwprintf
  0x4130	00 00 0b 00 47 65 74 45 6e 76 69 72 6f 6e 6d 65 	0000GetEnvironme
  0x4140	6e 74 56 61 72 69 61 62 6c 65 57 00 08 00 4c 6f 	ntVariableW000Lo
  0x4150	63 61 6c 41 6c 6c 6f 63 00 00 06 00 47 65 74 43 	calAlloc0000GetC
  0x4160	6f 6e 73 6f 6c 65 4d 6f 64 65 00 00 09 00 46 6f 	onsoleMode0000Fo
  0x4170	72 6d 61 74 4d 65 73 73 61 67 65 57 00 00 05 00 	rmatMessageW0000
  0x4180	47 65 74 4c 61 73 74 45 72 72 6f 72 00 00 0a 00 	GetLastError0000
  0x4190	4c 6f 63 61 6c 46 72 65 65 00 07 00 57 69 64 65 	LocalFree000Wide
  0x41a0	43 68 61 72 54 6f 4d 75 6c 74 69 42 79 74 65 00 	CharToMultiByte0
  0x41b0	31 00 47 65 74 46 69 6c 65 54 79 70 65 00 61 70 	10GetFileType0ap
  0x41c0	69 2d 6d 73 2d 77 69 6e 2d 63 6f 72 65 2d 70 72 	i-ms-win-core-pr
  0x41d0	6f 63 65 73 73 65 6e 76 69 72 6f 6e 6d 65 6e 74 	ocessenvironment
  0x41e0	2d 6c 31 2d 31 2d 30 2e 64 6c 6c 00 61 70 69 2d 	-l1-1-0.dll0api-
  0x41f0	6d 73 2d 77 69 6e 2d 63 6f 72 65 2d 68 65 61 70 	ms-win-core-heap
  0x4200	2d 6c 32 2d 31 2d 30 2e 64 6c 6c 00 61 70 69 2d 	-l2-1-0.dll0api-
  0x4210	6d 73 2d 77 69 6e 2d 63 6f 72 65 2d 63 6f 6e 73 	ms-win-core-cons
  0x4220	6f 6c 65 2d 6c 31 2d 31 2d 30 2e 64 6c 6c 00 00 	ole-l1-1-0.dll00
  0x4230	61 70 69 2d 6d 73 2d 77 69 6e 2d 63 6f 72 65 2d 	api-ms-win-core-
  0x4240	73 74 72 69 6e 67 2d 6c 31 2d 31 2d 30 2e 64 6c 	string-l1-1-0.dl
  0x4250	6c 00 61 70 69 2d 6d 73 2d 77 69 6e 2d 63 6f 72 	l0api-ms-win-cor
  0x4260	65 2d 66 69 6c 65 2d 6c 31 2d 31 2d 30 2e 64 6c 	e-file-l1-1-0.dl
  0x4270	6c 00 96 04 6d 65 6d 73 65 74 00 00 00 00 00 00 	l000memset000000
  0x4280	00 00 00 00 00 00 00 00 00 00 00 00 00 00 00 00 	0000000000000000
  0x4290	00 00 00 00 00 00 00 00 00 00 00 00 00 00 00 00 	0000000000000000
  0x42a0	00 00 00 00 00 00 00 00 00 00 00 00 00 00 00 00 	0000000000000000
  0x42b0	00 00 00 00 00 00 00 00 00 00 00 00 00 00 00 00 	0000000000000000
  0x42c0	00 00 00 00 00 00 00 00 00 00 00 00 00 00 00 00 	0000000000000000
  0x42d0	00 00 00 00 00 00 00 00 00 00 00 00 00 00 00 00 	0000000000000000
  0x42e0	00 00 00 00 00 00 00 00 00 00 00 00 00 00 00 00 	0000000000000000
  0x42f0	00 00 00 00 00 00 00 00 00 00 00 00 00 00 00 00 	0000000000000000
  0x4300	00 00 00 00 00 00 00 00 00 00 00 00 00 00 00 00 	0000000000000000
  0x4310	00 00 00 00 00 00 00 00 00 00 00 00 00 00 00 00 	0000000000000000
  0x4320	00 00 00 00 00 00 00 00 00 00 00 00 00 00 00 00 	0000000000000000
  0x4330	00 00 00 00 00 00 00 00 00 00 00 00 00 00 00 00 	0000000000000000
  0x4340	00 00 00 00 00 00 00 00 00 00 00 00 00 00 00 00 	0000000000000000
  0x4350	00 00 00 00 00 00 00 00 00 00 00 00 00 00 00 00 	0000000000000000
  0x4360	00 00 00 00 00 00 00 00 00 00 00 00 00 00 00 00 	0000000000000000
  0x4370	00 00 00 00 00 00 00 00 00 00 00 00 00 00 00 00 	0000000000000000
  0x4380	00 00 00 00 00 00 00 00 00 00 00 00 00 00 00 00 	0000000000000000
  0x4390	00 00 00 00 00 00 00 00 00 00 00 00 00 00 00 00 	0000000000000000
  0x43a0	00 00 00 00 00 00 00 00 00 00 00 00 00 00 00 00 	0000000000000000
  0x43b0	00 00 00 00 00 00 00 00 00 00 00 00 00 00 00 00 	0000000000000000
  0x43c0	00 00 00 00 00 00 00 00 00 00 00 00 00 00 00 00 	0000000000000000
  0x43d0	00 00 00 00 00 00 00 00 00 00 00 00 00 00 00 00 	0000000000000000
  0x43e0	00 00 00 00 00 00 00 00 00 00 00 00 00 00 00 00 	0000000000000000
  0x43f0	00 00 00 00 00 00 00 00 00 00 00 00 00 00 00 00 	0000000000000000
=== DATA BLOCK END ===

=== DATA BLOCK ADDRESS 0x5000 ===
  0x5000	01 00 00 00 00 00 00 00 32 a2 df 2d 99 2b 00 00 	00000000200-0+00
  0x5010	cd 5d 20 d2 66 d4 ff ff 00 00 00 00 00 00 00 00 	0] 0f00000000000
  0x5020	01 00 00 00 92 69 00 00 02 00 00 00 93 69 00 00 	00000i0000000i00
  0x5030	04 00 00 00 94 69 00 00 40 00 00 00 95 69 00 00 	00000i00@0000i00
  0x5040	20 00 00 00 96 69 00 00 10 00 00 00 97 69 00 00 	 0000i0000000i00
  0x5050	80 00 00 00 98 69 00 00 00 00 00 00 8c 69 00 00 	00000i0000000i00
  0x5060	01 00 00 00 8d 69 00 00 02 00 00 00 8e 69 00 00 	00000i0000000i00
  0x5070	04 00 00 00 8f 69 00 00 08 00 00 00 90 69 00 00 	00000i0000000i00
  0x5080	10 00 00 00 91 69 00 00 00 00 00 00 8c 69 00 00 	00000i0000000i00
  0x5090	00 00 00 00 00 00 00 00 00 00 00 00 00 00 00 00 	0000000000000000
  0x50a0	00 00 00 00 00 00 00 00 00 00 00 00 00 00 00 00 	0000000000000000
  0x50b0	00 00 00 00 00 00 00 00 00 00 00 00 00 00 00 00 	0000000000000000
  0x50c0	00 00 00 00 00 00 00 00 00 00 00 00 00 00 00 00 	0000000000000000
  0x50d0	00 00 00 00 00 00 00 00 00 00 00 00 00 00 00 00 	0000000000000000
  0x50e0	00 00 00 00 00 00 00 00 00 00 00 00 00 00 00 00 	0000000000000000
  0x50f0	00 00 00 00 00 00 00 00 00 00 00 00 00 00 00 00 	0000000000000000
  0x5100	00 00 00 00 00 00 00 00 00 00 00 00 00 00 00 00 	0000000000000000
  0x5110	00 00 00 00 00 00 00 00 00 00 00 00 00 00 00 00 	0000000000000000
  0x5120	00 00 00 00 00 00 00 00 00 00 00 00 00 00 00 00 	0000000000000000
  0x5130	00 00 00 00 00 00 00 00 00 00 00 00 00 00 00 00 	0000000000000000
  0x5140	00 00 00 00 00 00 00 00 00 00 00 00 00 00 00 00 	0000000000000000
  0x5150	00 00 00 00 00 00 00 00 00 00 00 00 00 00 00 00 	0000000000000000
  0x5160	00 00 00 00 00 00 00 00 00 00 00 00 00 00 00 00 	0000000000000000
  0x5170	00 00 00 00 00 00 00 00 00 00 00 00 00 00 00 00 	0000000000000000
  0x5180	00 00 00 00 00 00 00 00 00 00 00 00 00 00 00 00 	0000000000000000
  0x5190	00 00 00 00 00 00 00 00 00 00 00 00 00 00 00 00 	0000000000000000
  0x51a0	00 00 00 00 00 00 00 00 00 00 00 00 00 00 00 00 	0000000000000000
  0x51b0	00 00 00 00 00 00 00 00 00 00 00 00 00 00 00 00 	0000000000000000
  0x51c0	00 00 00 00 00 00 00 00 00 00 00 00 00 00 00 00 	0000000000000000
  0x51d0	00 00 00 00 00 00 00 00 00 00 00 00 00 00 00 00 	0000000000000000
  0x51e0	00 00 00 00 00 00 00 00 00 00 00 00 00 00 00 00 	0000000000000000
  0x51f0	00 00 00 00 00 00 00 00 00 00 00 00 00 00 00 00 	0000000000000000
=== DATA BLOCK END ===

=== DATA BLOCK ADDRESS 0x6000 ===
  0x6000	08 10 00 00 27 10 00 00 30 37 00 00 30 10 00 00 	0000'00007000000
  0x6010	80 13 00 00 38 37 00 00 88 13 00 00 38 14 00 00 	0000870000008000
  0x6020	5c 37 00 00 40 14 00 00 2a 17 00 00 6c 37 00 00 	0700@000*000l700
  0x6030	30 17 00 00 8e 1b 00 00 84 37 00 00 94 1b 00 00 	0000000007000000
  0x6040	f2 1b 00 00 ac 37 00 00 f8 1b 00 00 e0 1c 00 00 	0000070000000000
  0x6050	b4 37 00 00 3c 1d 00 00 dc 1d 00 00 cc 37 00 00 	0700<00000000700
  0x6060	e4 1d 00 00 81 1e 00 00 e0 37 00 00 88 1e 00 00 	0000000007000000
  0x6070	12 21 00 00 ec 37 00 00 18 21 00 00 93 21 00 00 	0!0007000!000!00
  0x6080	10 38 00 00 a0 21 00 00 73 22 00 00 30 37 00 00 	08000!00s"000700
  0x6090	80 22 00 00 c9 22 00 00 18 38 00 00 d0 22 00 00 	0"000"0008000"00
  0x60a0	8e 24 00 00 20 38 00 00 a0 24 00 00 b2 24 00 00 	0$00 8000$000$00
  0x60b0	30 37 00 00 d0 24 00 00 ee 24 00 00 58 38 00 00 	07000$000$00X800
  0x60c0	00 25 00 00 39 25 00 00 30 37 00 00 40 25 00 00 	0%009%000700@%00
  0x60d0	58 25 00 00 30 37 00 00 6c 25 00 00 c0 25 00 00 	X%000700l%000%00
  0x60e0	5c 38 00 00 c8 25 00 00 0d 26 00 00 7c 38 00 00 	08000%000&00|800
  0x60f0	80 26 00 00 cd 26 00 00 84 38 00 00 14 27 00 00 	0&000&0008000'00
  0x6100	e8 27 00 00 a8 38 00 00 1c 28 00 00 50 28 00 00 	0'0008000(00P(00
  0x6110	7c 38 00 00 60 28 00 00 d1 29 00 00 b4 38 00 00 	|800`(000)000800
  0x6120	e8 29 00 00 06 2a 00 00 7c 38 00 00 18 2a 00 00 	0)000*00|8000*00
  0x6130	35 2a 00 00 30 37 00 00 3c 2a 00 00 97 2a 00 00 	5*000700<*000*00
  0x6140	c4 38 00 00 c0 2a 00 00 c2 2a 00 00 c0 38 00 00 	08000*000*000800
  0x6150	d0 2a 00 00 ee 2a 00 00 4c 38 00 00 00 2b 00 00 	0*000*00L8000+00
  0x6160	20 2b 00 00 4c 38 00 00 00 00 00 00 00 00 00 00 	 +00L80000000000
  0x6170	00 00 00 00 00 00 00 00 00 00 00 00 00 00 00 00 	0000000000000000
  0x6180	00 00 00 00 00 00 00 00 00 00 00 00 00 00 00 00 	0000000000000000
  0x6190	00 00 00 00 00 00 00 00 00 00 00 00 00 00 00 00 	0000000000000000
  0x61a0	00 00 00 00 00 00 00 00 00 00 00 00 00 00 00 00 	0000000000000000
  0x61b0	00 00 00 00 00 00 00 00 00 00 00 00 00 00 00 00 	0000000000000000
  0x61c0	00 00 00 00 00 00 00 00 00 00 00 00 00 00 00 00 	0000000000000000
  0x61d0	00 00 00 00 00 00 00 00 00 00 00 00 00 00 00 00 	0000000000000000
  0x61e0	00 00 00 00 00 00 00 00 00 00 00 00 00 00 00 00 	0000000000000000
  0x61f0	00 00 00 00 00 00 00 00 00 00 00 00 00 00 00 00 	0000000000000000
=== DATA BLOCK END ===
