===== Assembly blocks =====

=== CODE BLOCK ADDRESS 0x2000 ===
  0x2000	inc    	eax
  0x2001	pop    	esp
  0x2002	add    	byte ptr [eax], al
  0x2004	add    	byte ptr [eax], al
  0x2006	add    	byte ptr [eax], al
  === BLOCK LINK ===
    0x2008
=== CODE BLOCK END ===

=== CODE BLOCK ADDRESS 0x2008 ===
  0x2008	dec    	eax
  0x2009	add    	byte ptr [eax], al
  0x200b	add    	byte ptr [edx], al
  0x200d	add    	byte ptr [0x23d400], al
  0x2013	add    	byte ptr [eax + 0x9000037], bh
  === BLOCK LINK ===
    0x2019
=== CODE BLOCK END ===

=== CODE BLOCK ADDRESS 0x2019 ===
  0x2019	add    	byte ptr [eax], al
  0x201b	add    	byte ptr [ecx], al
  0x201d	add    	byte ptr [eax], al
  0x201f	push   	es
  0x2020	add    	byte ptr [eax], al
  === BLOCK LINK ===
    0x2022
=== CODE BLOCK END ===

=== CODE BLOCK ADDRESS 0x2022 ===
  0x2022	add    	byte ptr [eax], al
  0x2024	add    	byte ptr [eax], al
  0x2026	add    	byte ptr [eax], al
  0x2028	push   	eax
  0x2029	and    	byte ptr [eax], al
  === BLOCK LINK ===
    0x202b
=== CODE BLOCK END ===

=== CODE BLOCK ADDRESS 0x202b ===
  0x202b	add    	byte ptr [eax], al
  0x2031	add    	byte ptr [eax], al
  0x2033	add    	byte ptr [eax], al
  0x2035	add    	byte ptr [eax], al
  0x2037	add    	byte ptr [eax], al
  === BLOCK LINK ===
    0x2039
=== CODE BLOCK END ===

=== CODE BLOCK ADDRESS 0x2039 ===
  0x2039	add    	byte ptr [eax], al
  0x203b	add    	byte ptr [eax], al
  0x203d	add    	byte ptr [eax], al
  0x203f	add    	byte ptr [eax], al
  0x2041	add    	byte ptr [eax], al
  === BLOCK LINK ===
    0x2043
=== CODE BLOCK END ===

=== CODE BLOCK ADDRESS 0x2043 ===
  0x2043	add    	byte ptr [eax], al
  0x2045	add    	byte ptr [eax], al
  0x2047	add    	byte ptr [eax], al
  0x2049	add    	byte ptr [eax], al
  0x204b	add    	byte ptr [eax], al
  === BLOCK LINK ===
    0x204d
=== CODE BLOCK END ===

=== CODE BLOCK ADDRESS 0x204d ===
  0x204d	add    	byte ptr [eax], al
  0x204f	add    	byte ptr [ecx + 0x60], cl
  === BLOCK LINK ===
    0x2052
=== CODE BLOCK END ===

=== CODE BLOCK ADDRESS 0x205a ===
  0x205a	sub    	ch, ch
  0x205c	jns    	0x2052
  === BLOCK LINK ===
    0x205e
    0x2052
=== CODE BLOCK END ===

=== CODE BLOCK ADDRESS 0x205e ===
  0x205e	pop    	eax
  0x205f	jl     	0x20c1
  === BLOCK LINK ===
    0x2061
    0x20c1
=== CODE BLOCK END ===

=== CODE BLOCK ADDRESS 0x2061 ===
  0x2061	jmp    	0x20be
  === BLOCK LINK ===
    0x2063
    0x20be
=== CODE BLOCK END ===

=== CODE BLOCK ADDRESS 0x2063 ===
  0x2063	dec    	ebx
  0x2064	out    	0x8c, eax
  0x2066	pop    	eax
  0x2067	daa    	
  0x2068	loop   	0x206d
  === BLOCK LINK ===
    0x206a
    0x206d
=== CODE BLOCK END ===

=== CODE BLOCK ADDRESS 0x206a ===
  0x206a	insd   	dword ptr es:[edi], dx
  0x206b	leave  	
  0x206c	inc    	edi
  === BLOCK LINK ===
    0x206d
=== CODE BLOCK END ===

=== CODE BLOCK ADDRESS 0x2070 ===
  0x2070	dec    	ebp
  0x2071	shl    	edx, cl
  0x2073	cmp    	al, 0x8c
  0x2075	leave  	
  0x2076	or     	edx, esi
  === BLOCK LINK ===
    0x2078
=== CODE BLOCK END ===

=== CODE BLOCK ADDRESS 0x2078 ===
  0x2078	xor    	edi, dword ptr [ebx + 0x35]
  0x207b	je     	0x20e0
  === BLOCK LINK ===
    0x207d
    0x20e0
=== CODE BLOCK END ===

=== CODE BLOCK ADDRESS 0x207d ===
  0x207d	push   	ss
  0x207e	and    	eax, 0x190f94b
  0x2083	.byte  	0x8f
  0x2084	salc   	
  0x2085	inc    	ebp
  === BLOCK LINK ===
    0x2086
=== CODE BLOCK END ===

=== CODE BLOCK ADDRESS 0x2086 ===
  0x2086	popal  	
  0x2087	push   	cs
  0x2088	mov    	bl, 0x37
  0x208a	mov    	edi, 0xf64339d
  0x208f	and    	dword ptr [edi - 0x78ca9f3b], 0xffffff83
  === BLOCK LINK ===
    0x2096
=== CODE BLOCK END ===

=== CODE BLOCK ADDRESS 0x2096 ===
  0x2096	push   	eax
  0x2097	mov    	dword ptr [0x95b80de6], eax
  0x209c	jecxz  	0x211c
  === BLOCK LINK ===
    0x209e
    0x211c
=== CODE BLOCK END ===

=== CODE BLOCK ADDRESS 0x209e ===
  0x209e	.byte  	0xda
  0x209f	shr    	dword ptr [ebp + ebp*8 + 0x51], cl
  0x20a4	lcall  	0xd3e4:0xf2c2602f
  === BLOCK LINK ===
    0x20ab
=== CODE BLOCK END ===

=== CODE BLOCK ADDRESS 0x20ab ===
  0x20ab	in     	eax, 0x77
  0x20ad	in     	al, 0xe6
  0x20af	nop    	
  0x20b0	cmpsb  	byte ptr [esi], byte ptr es:[edi]
  0x20b1	push   	ss
  === BLOCK LINK ===
    0x20b2
=== CODE BLOCK END ===

=== CODE BLOCK ADDRESS 0x20b2 ===
  0x20b2	pushal  	
  0x20b3	sti    	
  0x20b4	pop    	edx
  0x20b5	xor    	ebx, dword ptr [edx]
  0x20b8	cwde   	
  === BLOCK LINK ===
    0x20b9
=== CODE BLOCK END ===

=== CODE BLOCK ADDRESS 0x20b9 ===
  0x20b9	xchg   	eax, ebx
  0x20ba	mov    	eax, 0x33d2f12f
  === BLOCK LINK ===
    0x20be
=== CODE BLOCK END ===

=== CODE BLOCK ADDRESS 0x20c8 ===
  0x20c8	fnstsw  	dword ptr [ebx - 0x12a41169]
  0x20ce	das    	
  0x20cf	and    	bl, byte ptr [ebx]
  0x20d1	xor    	byte ptr [eax + eax], al
  0x20d4	jmp    	0x10020d9
  === BLOCK LINK ===
    0x20d9
    0x10020d9
=== CODE BLOCK END ===

=== CODE BLOCK ADDRESS 0x20d9 ===
  0x20d9	add    	byte ptr [eax], al
  0x20db	adc    	dword ptr [edi], edx
  0x20dd	or     	al, byte ptr [edx]
  0x20df	mov    	gs, word ptr [ecx + 0x19]
  === BLOCK LINK ===
    0x20e0
=== CODE BLOCK END ===

=== CODE BLOCK ADDRESS 0x20e4 ===
  0x20e4	add    	bl, byte ptr [eax]
  0x20e6	lcall  	0x2870:0x172
  === BLOCK LINK ===
    0x20ed
=== CODE BLOCK END ===

=== CODE BLOCK ADDRESS 0x20ed ===
  0x20ed	sldt   	word ptr [eax]
  0x20f0	or     	ch, byte ptr [edx + eax]
  0x20f3	push   	ss
  0x20f4	or     	al, byte ptr [edx]
  0x20f6	mov    	gs, word ptr [ecx + 0x18]
  === BLOCK LINK ===
    0x20f9
=== CODE BLOCK END ===

=== CODE BLOCK ADDRESS 0x20f9 ===
  0x20f9	xor    	al, byte ptr [esi]
  0x20fb	add    	cl, byte ptr [esi + 0xe321a69]
  0x2101	push   	es
  0x2102	sub    	al, 0xa
  0x2104	jb     	0x2119
  === BLOCK LINK ===
    0x2106
    0x2119
=== CODE BLOCK END ===

=== CODE BLOCK ADDRESS 0x2106 ===
  0x2106	add    	byte ptr [eax], al
  0x2108	jo     	0x2132
  === BLOCK LINK ===
    0x210a
=== CODE BLOCK END ===

=== CODE BLOCK ADDRESS 0x210a ===
  0x210a	adc    	byte ptr [eax], al
  0x210c	add    	byte ptr [edx], cl
  0x210e	sub    	al, byte ptr [esi]
  0x2110	sub    	al, 0x24
  0x2112	jb     	0x2095
  === BLOCK LINK ===
    0x2114
=== CODE BLOCK END ===

=== CODE BLOCK ADDRESS 0x2114 ===
  0x2114	add    	byte ptr [eax], al
  0x2116	jo     	0x211a
  === BLOCK LINK ===
    0x2118
=== CODE BLOCK END ===

=== CODE BLOCK ADDRESS 0x2118 ===
  0x2118	push   	ss
  0x2119	lcall  	0x280a:0x1128
  === BLOCK LINK ===
    0x2120
=== CODE BLOCK END ===

=== CODE BLOCK ADDRESS 0x2120 ===
  0x2120	adc    	byte ptr [eax], al
  0x2122	add    	byte ptr [edx], cl
  0x2124	jb     	0x20c7
  === BLOCK LINK ===
    0x2126
=== CODE BLOCK END ===

=== CODE BLOCK ADDRESS 0x2126 ===
  0x2126	add    	byte ptr [eax], al
  0x2128	jo     	0x212c
  === BLOCK LINK ===
    0x212a
=== CODE BLOCK END ===

=== CODE BLOCK ADDRESS 0x212a ===
  0x212a	pop    	ss
  0x212b	lcall  	0x280a:0x1128
  === BLOCK LINK ===
    0x2132
=== CODE BLOCK END ===

=== CODE BLOCK ADDRESS 0x2132 ===
  0x2132	adc    	byte ptr [eax], al
  0x2134	add    	byte ptr [edx], cl
  0x2136	push   	ss
  0x2137	or     	eax, dword ptr [edx]
  0x2139	push   	ss
  === BLOCK LINK ===
    0x213a
=== CODE BLOCK END ===

=== CODE BLOCK ADDRESS 0x213a ===
  0x213a	lcall  	3:0x289a1702
  === BLOCK LINK ===
    0x2141
=== CODE BLOCK END ===

=== CODE BLOCK ADDRESS 0x2141 ===
  0x2141	add    	byte ptr [esi], al
  0x2143	pop    	ss
  0x2144	or     	ebx, esi
  0x2146	adc    	ecx, dword ptr [edx + esi*2]
  0x2149	rol    	dword ptr [eax], 0
  === BLOCK LINK ===
    0x214c
=== CODE BLOCK END ===

=== CODE BLOCK ADDRESS 0x214c ===
  0x214c	jo     	0x2156
  === BLOCK LINK ===
    0x214e
=== CODE BLOCK END ===

=== CODE BLOCK ADDRESS 0x214e ===
  0x214e	sub    	byte ptr [edx], dl
  0x2150	add    	byte ptr [eax], al
  0x2152	or     	ch, byte ptr [eax]
  0x2154	adc    	byte ptr [eax], al
  0x2156	add    	byte ptr [edx], cl
  === BLOCK LINK ===
    0x2158
=== CODE BLOCK END ===

=== CODE BLOCK ADDRESS 0x2158 ===
  0x2158	fiadd  	word ptr [eax]
  0x215a	push   	es
  0x215b	sub    	eax, 0x9a17023f
  0x2160	sub    	byte ptr [ebx], dl
  0x2162	add    	byte ptr [eax], al
  === BLOCK LINK ===
    0x2164
=== CODE BLOCK END ===

=== CODE BLOCK ADDRESS 0x2164 ===
  0x2164	or     	bl, dh
  0x2166	xor    	eax, 0x18d1a0d
  0x216b	add    	byte ptr [eax], al
  0x216d	add    	dword ptr [ebx], edx
  0x216f	add    	eax, 0x72160511
  === BLOCK LINK ===
    0x2174
=== CODE BLOCK END ===

=== CODE BLOCK ADDRESS 0x2174 ===
  0x2174	loope  	0x2176
  === BLOCK LINK ===
    0x2176
=== CODE BLOCK END ===

=== CODE BLOCK ADDRESS 0x2176 ===
  0x2176	add    	byte ptr [eax - 0x5e], dh
  0x2179	adc    	dword ptr [0x9a170217], eax
  0x217f	mov    	byte ptr [0x72180511], al
  0x2184	add    	eax, 0xa2700001
  0x2189	adc    	dword ptr [0x11a20919], eax
  === BLOCK LINK ===
    0x218f
=== CODE BLOCK END ===

=== CODE BLOCK ADDRESS 0x218f ===
  0x218f	add    	eax, 0x1428
  0x2194	or     	ch, byte ptr [eax]
  0x2196	adc    	byte ptr [eax], al
  0x2198	add    	byte ptr [edx], cl
  0x219a	fiadd  	word ptr [eax]
  === BLOCK LINK ===
    0x219c
=== CODE BLOCK END ===

=== CODE BLOCK ADDRESS 0x219c ===
  0x219c	pop    	es
  0x219d	sub    	al, 0x25
  0x219f	add    	dl, byte ptr [esi]
  0x21a1	lcall  	0x606:0x428
  === BLOCK LINK ===
    0x21a8
=== CODE BLOCK END ===

=== CODE BLOCK ADDRESS 0x21a8 ===
  0x21a8	sub    	byte ptr [edx], al
  0x21aa	add    	byte ptr [eax], al
  0x21ac	push   	es
  0x21ad	ficom  	word ptr [0xd720413]
  0x21b3	add    	dword ptr [eax], eax
  === BLOCK LINK ===
    0x21b5
=== CODE BLOCK END ===

=== CODE BLOCK ADDRESS 0x21b5 ===
  0x21b5	jo     	0x21c8
  === BLOCK LINK ===
    0x21b7
=== CODE BLOCK END ===

=== CODE BLOCK ADDRESS 0x21b7 ===
  0x21b7	add    	al, 0x28
  0x21b9	adc    	al, byte ptr [eax]
  0x21bb	add    	byte ptr [edx], cl
  0x21bd	sub    	byte ptr [eax], dl
  0x21bf	add    	byte ptr [eax], al
  === BLOCK LINK ===
    0x21c1
=== CODE BLOCK END ===

=== CODE BLOCK ADDRESS 0x21c1 ===
  0x21c1	or     	bl, dh
  0x21c3	add    	byte ptr [edx], ch
  0x21c5	add    	byte ptr [eax], al
  0x21c7	add    	byte ptr [ecx], al
  0x21c9	sub    	byte ptr [eax], al
  === BLOCK LINK ===
    0x21cb
=== CODE BLOCK END ===

=== CODE BLOCK ADDRESS 0x21cb ===
  0x21cb	add    	byte ptr [eax], al
  0x21cd	add    	byte ptr [eax + eax + 0xf], bl
  0x21d1	imul   	eax, dword ptr [eax], 0x13
  0x21d4	push   	ss
  0x21d5	add    	byte ptr [eax], al
  === BLOCK LINK ===
    0x21d7
=== CODE BLOCK END ===

=== CODE BLOCK ADDRESS 0x21d7 ===
  0x21d7	add    	dword ptr [eax], eax
  0x21d9	add    	byte ptr [ecx + 0x8b0a00], al
  0x21df	xor    	eax, 0x1000016
  0x21e4	add    	byte ptr [eax], al
  0x21e6	ret    	
  === BLOCK LINK ===
    0x21e7
=== CODE BLOCK END ===

=== CODE BLOCK ADDRESS 0x2052 ===
  0x2052	xor    	ebp, dword ptr [ebp - 0x27dc51ca]
  0x2058	popal  	
  0x2059	push   	ebx
  === BLOCK LINK ===
    0x205a
=== CODE BLOCK END ===

=== CODE BLOCK ADDRESS 0x21e7 ===
  0x21e7	add    	byte ptr [eax], dl
  0x21e9	rol    	dword ptr [eax], cl
  0x21eb	adc    	eax, 0x1000016
  0x21f0	sbb    	esi, dword ptr [eax]
  0x21f2	add    	eax, dword ptr [eax]
  === BLOCK LINK ===
    0x21f4
=== CODE BLOCK END ===

=== CODE BLOCK ADDRESS 0x21f4 ===
  0x21f4	cmp    	eax, 0x2000001
  0x21f9	add    	byte ptr [eax], al
  0x21fb	adc    	dword ptr [edx + ecx], edx
  0x21fe	jle    	0x2215
  === BLOCK LINK ===
    0x2200
=== CODE BLOCK END ===

=== CODE BLOCK ADDRESS 0x2200 ===
  0x2200	add    	byte ptr [eax], al
  0x2202	or     	cl, byte ptr [ebx]
  0x2204	add    	ch, byte ptr [edi + 0x16]
  0x2207	add    	byte ptr [eax], al
  0x2209	or     	cl, byte ptr [eax + ecx]
  === BLOCK LINK ===
    0x220c
=== CODE BLOCK END ===

=== CODE BLOCK ADDRESS 0x220c ===
  0x220c	outsd  	dx, dword ptr [esi]
  0x220d	pop    	ss
  0x220e	add    	byte ptr [eax], al
  0x2210	or     	dl, byte ptr [ebx]
  0x2212	or     	byte ptr [ebx], ch
  === BLOCK LINK ===
    0x2214
=== CODE BLOCK END ===

=== CODE BLOCK ADDRESS 0x2214 ===
  0x2214	pop    	ds
  0x2215	adc    	dword ptr [eax], ecx
  0x2217	outsd  	dx, dword ptr [esi]
  0x2218	sbb    	byte ptr [eax], al
  0x221a	add    	byte ptr [edx], cl
  === BLOCK LINK ===
    0x221c
=== CODE BLOCK END ===

=== CODE BLOCK ADDRESS 0x221c ===
  0x221c	or     	eax, 0x196f0907
  0x2221	add    	byte ptr [eax], al
  0x2223	or     	ch, byte ptr [eax]
  0x2225	sbb    	al, byte ptr [eax]
  0x2227	add    	byte ptr [edx], cl
  === BLOCK LINK ===
    0x2229
=== CODE BLOCK END ===

=== CODE BLOCK ADDRESS 0x2229 ===
  0x2229	sub    	al, 9
  0x222b	or     	dword ptr [edi + 0x19], ebp
  0x222e	add    	byte ptr [eax], al
  0x2230	or     	cl, byte ptr [ebx]
  0x2232	or     	dword ptr [edx], ecx
  === BLOCK LINK ===
    0x2234
=== CODE BLOCK END ===

=== CODE BLOCK ADDRESS 0x2234 ===
  0x2234	adc    	dword ptr [eax], ecx
  0x2236	outsd  	dx, dword ptr [esi]
  0x2237	sbb    	eax, dword ptr [eax]
  0x2239	add    	byte ptr [edx], cl
  0x223b	sub    	eax, 0x110cded8
  === BLOCK LINK ===
    0x2240
=== CODE BLOCK END ===

=== CODE BLOCK ADDRESS 0x2240 ===
  0x2240	or     	byte ptr [edi + eax], ch
  0x2243	adc    	dword ptr [eax], ecx
  0x2245	outsd  	dx, dword ptr [esi]
  0x2246	sbb    	al, 0
  0x2248	add    	byte ptr [edx], cl
  === BLOCK LINK ===
    0x224a
=== CODE BLOCK END ===

=== CODE BLOCK ADDRESS 0x224a ===
  0x224a	fadd   	qword ptr [esi]
  0x224c	cmp    	edx, ebx
  0x224e	add    	byte ptr [eax], al
  0x2250	add    	byte ptr [ebx], al
  0x2252	sub    	al, 0x15
  === BLOCK LINK ===
    0x2254
=== CODE BLOCK END ===

=== CODE BLOCK ADDRESS 0x2254 ===
  0x2254	jb     	0x22a7
  === BLOCK LINK ===
    0x2256
=== CODE BLOCK END ===

=== CODE BLOCK ADDRESS 0x2256 ===
  0x2256	add    	dword ptr [eax], eax
  0x2258	jo     	0x2260
  === BLOCK LINK ===
    0x225a
=== CODE BLOCK END ===

=== CODE BLOCK ADDRESS 0x225a ===
  0x225a	outsd  	dx, dword ptr [esi]
  0x225b	sbb    	eax, 0x280a0000
  0x2260	adc    	dword ptr [eax], eax
  0x2262	add    	byte ptr [edx], cl
  0x2264	sub    	byte ptr [eax], dl
  === BLOCK LINK ===
    0x2266
=== CODE BLOCK END ===

=== CODE BLOCK ADDRESS 0x2266 ===
  0x2266	add    	byte ptr [eax], al
  0x2268	or     	bl, byte ptr [edi]
  0x226a	push   	ds
  0x226b	adc    	eax, dword ptr [edx + esi*2]
  0x226e	popfd  	
  === BLOCK LINK ===
    0x226f
=== CODE BLOCK END ===

=== CODE BLOCK ADDRESS 0x226f ===
  0x226f	add    	dword ptr [eax], eax
  0x2271	jo     	0x22e5
  === BLOCK LINK ===
    0x2273
=== CODE BLOCK END ===

=== CODE BLOCK ADDRESS 0x2273 ===
  0x2273	adc    	eax, 0x11700002
  0x2278	add    	al, 0x8c
  0x227a	push   	ds
  0x227b	add    	byte ptr [eax], al
  0x227d	add    	dword ptr [eax], ebp
  === BLOCK LINK ===
    0x227f
=== CODE BLOCK END ===

=== CODE BLOCK ADDRESS 0x227f ===
  0x227f	push   	ds
  0x2280	add    	byte ptr [eax], al
  0x2282	or     	dl, byte ptr [ebx]
  0x2284	add    	eax, 0x122c0511
  0x2289	adc    	dword ptr [0x1e75], eax
  === BLOCK LINK ===
    0x228f
=== CODE BLOCK END ===

=== CODE BLOCK ADDRESS 0x228f ===
  0x228f	add    	dword ptr [ecx + ecx], ebp
  0x2292	adc    	dword ptr [0x1ea5], eax
  0x2298	add    	dword ptr [ebx], edx
  0x229a	add    	al, 0xde
  0x229c	add    	esp, dword ptr [esi]
  === BLOCK LINK ===
    0x229e
=== CODE BLOCK END ===

=== CODE BLOCK ADDRESS 0x229e ===
  0x229e	fiadd  	word ptr [eax]
  0x22a0	adc    	dword ptr [esp + ebp*2], eax
  0x22a3	sub    	byte ptr [edi], bl
  0x22a5	add    	byte ptr [eax], al
  0x22a7	or     	dl, byte ptr [ebx]
  === BLOCK LINK ===
    0x22a9
=== CODE BLOCK END ===

=== CODE BLOCK ADDRESS 0x22a9 ===
  0x22a9	push   	es
  0x22aa	add    	ebp, dword ptr [esp + ebx]
  0x22ad	jb     	0x22e4
  === BLOCK LINK ===
    0x22af
=== CODE BLOCK END ===

=== CODE BLOCK ADDRESS 0x22af ===
  0x22af	add    	al, byte ptr [eax]
  0x22b1	jo     	0x22c5
  === BLOCK LINK ===
    0x22b3
=== CODE BLOCK END ===

=== CODE BLOCK ADDRESS 0x22b3 ===
  0x22b3	push   	es
  0x22b4	.byte  	0xfe
  0x22b5	push   	ss
  0x22b6	and    	byte ptr [eax], al
  0x22b8	add    	byte ptr [ecx], al
  === BLOCK LINK ===
    0x22ba
=== CODE BLOCK END ===

=== CODE BLOCK ADDRESS 0x22ba ===
  0x22ba	outsd  	dx, dword ptr [esi]
  0x22bb	and    	byte ptr [eax], al
  0x22bd	add    	byte ptr [edx], cl
  0x22bf	sub    	byte ptr [ecx], dl
  0x22c1	add    	byte ptr [eax], al
  === BLOCK LINK ===
    0x22c3
=== CODE BLOCK END ===

=== CODE BLOCK ADDRESS 0x22c3 ===
  0x22c3	or     	ch, byte ptr [eax]
  0x22c5	adc    	byte ptr [eax], al
  0x22c7	add    	byte ptr [edx], cl
  0x22c9	sub    	byte ptr [ecx], ah
  0x22cb	add    	byte ptr [eax], al
  === BLOCK LINK ===
    0x22cd
=== CODE BLOCK END ===

=== CODE BLOCK ADDRESS 0x22cd ===
  0x22cd	or     	dl, byte ptr [ebx]
  0x22cf	pop    	es
  0x22d0	sub    	ebp, dword ptr [esi]
  0x22d2	and    	byte ptr [eax - 0x16], ah
  0x22d5	add    	byte ptr [eax], al
  === BLOCK LINK ===
    0x22d7
=== CODE BLOCK END ===

=== CODE BLOCK ADDRESS 0x22d7 ===
  0x22d7	sub    	byte ptr [edx], ah
  0x22d9	add    	byte ptr [eax], al
  0x22db	or     	al, byte ptr [esi]
  0x22dd	outsd  	dx, dword ptr [esi]
  0x22de	and    	eax, dword ptr [eax]
  === BLOCK LINK ===
    0x22e0
=== CODE BLOCK END ===

=== CODE BLOCK ADDRESS 0x22e0 ===
  0x22e0	add    	byte ptr [edx], cl
  0x22e2	push   	es
  0x22e3	outsd  	dx, dword ptr [esi]
  0x22e4	and    	al, 0
  0x22e6	add    	byte ptr [edx], cl
  === BLOCK LINK ===
    0x22e8
=== CODE BLOCK END ===

=== CODE BLOCK ADDRESS 0x22e8 ===
  0x22e8	sub    	eax, 0x256f0608
  0x22ed	add    	byte ptr [eax], al
  0x22ef	or     	ch, byte ptr [esi + ecx]
  0x22f2	add    	ebp, dword ptr [edx + ecx]
  0x22f5	jb     	0x234e
  === BLOCK LINK ===
    0x22f7
=== CODE BLOCK END ===

=== CODE BLOCK ADDRESS 0x22f7 ===
  0x22f7	add    	al, byte ptr [eax]
  0x22f9	jo     	0x2323
  === BLOCK LINK ===
    0x22fb
=== CODE BLOCK END ===

=== CODE BLOCK ADDRESS 0x22fb ===
  0x22fb	adc    	byte ptr [eax], al
  0x22fd	add    	byte ptr [edx], cl
  0x22ff	sub    	ch, byte ptr [eax]
  0x2301	and    	dword ptr [eax], eax
  0x2303	add    	byte ptr [edx], cl
  === BLOCK LINK ===
    0x2305
=== CODE BLOCK END ===

=== CODE BLOCK ADDRESS 0x2305 ===
  0x2305	adc    	dword ptr [edi], eax
  0x2307	sub    	byte ptr [esi], ah
  0x2309	add    	byte ptr [eax], al
  0x230b	or     	dl, byte ptr [ecx]
  0x230d	push   	es
  === BLOCK LINK ===
    0x230e
=== CODE BLOCK END ===

=== CODE BLOCK ADDRESS 0x230e ===
  0x230e	sub    	byte ptr [edi], ah
  0x2310	add    	byte ptr [eax], al
  0x2312	or     	ch, byte ptr [0x202c03bd]
  0x2318	push   	es
  0x2319	outsd  	dx, dword ptr [esi]
  === BLOCK LINK ===
    0x231a
=== CODE BLOCK END ===

=== CODE BLOCK ADDRESS 0x231a ===
  0x231a	and    	al, 0
  0x231c	add    	byte ptr [edx], cl
  0x231e	sub    	eax, 0x2937218
  0x2323	add    	byte ptr [eax + 0x28], dh
  0x2326	adc    	byte ptr [eax], al
  === BLOCK LINK ===
    0x2328
=== CODE BLOCK END ===

=== CODE BLOCK ADDRESS 0x2328 ===
  0x2328	add    	byte ptr [edx], cl
  0x232a	sub    	al, byte ptr [ebx]
  0x232c	sub    	al, 0xa
  0x232e	jb     	0x2303
  === BLOCK LINK ===
    0x2330
=== CODE BLOCK END ===

=== CODE BLOCK ADDRESS 0x2330 ===
  0x2330	add    	al, byte ptr [eax]
  0x2332	jo     	0x235c
  === BLOCK LINK ===
    0x2334
=== CODE BLOCK END ===

=== CODE BLOCK ADDRESS 0x2334 ===
  0x2334	adc    	byte ptr [eax], al
  0x2336	add    	byte ptr [edx], cl
  0x2338	sub    	al, byte ptr [eax]
  0x233a	add    	byte ptr [eax], al
  0x233c	add    	dword ptr [eax + eax], ebx
  === BLOCK LINK ===
    0x233f
=== CODE BLOCK END ===

=== CODE BLOCK ADDRESS 0x233f ===
  0x233f	add    	byte ptr [edx], al
  0x2341	add    	byte ptr [edi], dl
  0x2343	add    	byte ptr [ebx + eax*2], ch
  0x2346	add    	byte ptr [eax + eax], cl
  0x2349	add    	byte ptr [eax], al
  === BLOCK LINK ===
    0x234b
=== CODE BLOCK END ===

=== CODE BLOCK ADDRESS 0x234b ===
  0x234b	add    	byte ptr [eax], al
  0x234d	add    	byte ptr [ecx], dh
  0x2350	xor    	byte ptr [ecx + 0x220300], ah
  0x2356	add    	byte ptr [ecx], al
  0x2358	adc    	esi, dword ptr [eax]
  === BLOCK LINK ===
    0x235a
=== CODE BLOCK END ===

=== CODE BLOCK ADDRESS 0x235a ===
  0x235a	add    	eax, dword ptr [eax]
  0x235c	pop    	ss
  0x235d	add    	byte ptr [eax], al
  0x235f	add    	byte ptr [eax + eax], al
  0x2362	add    	byte ptr [ecx], dl
  === BLOCK LINK ===
    0x2364
=== CODE BLOCK END ===

=== CODE BLOCK ADDRESS 0x2364 ===
  0x2364	add    	ch, byte ptr [eax]
  0x2366	add    	al, 0
  0x2368	add    	byte ptr [esi], al
  0x236a	or     	al, byte ptr [esi]
  0x236c	sub    	byte ptr [eax], ch
  === BLOCK LINK ===
    0x236e
=== CODE BLOCK END ===

=== CODE BLOCK ADDRESS 0x236e ===
  0x236e	add    	byte ptr [eax], al
  0x2370	or     	cl, byte ptr [ebx]
  0x2372	pop    	es
  0x2373	add    	edx, dword ptr [edi]
  0x2375	outsd  	dx, dword ptr [esi]
  === BLOCK LINK ===
    0x2376
=== CODE BLOCK END ===

=== CODE BLOCK ADDRESS 0x2376 ===
  0x2376	sub    	dword ptr [eax], eax
  0x2378	add    	byte ptr [edx], cl
  0x237a	sub    	al, byte ptr [eax]
  0x237c	adc    	esi, dword ptr [eax]
  0x237e	add    	eax, dword ptr [eax]
  === BLOCK LINK ===
    0x2380
=== CODE BLOCK END ===

=== CODE BLOCK ADDRESS 0x2380 ===
  0x2380	inc    	ebx
  0x2381	add    	byte ptr [eax], al
  0x2383	add    	byte ptr [0x2110000], al
  0x2389	jb     	0x23ba
  === BLOCK LINK ===
    0x238b
=== CODE BLOCK END ===

=== CODE BLOCK ADDRESS 0x238b ===
  0x238b	add    	eax, dword ptr [eax]
  0x238d	jo     	0x23a9
  === BLOCK LINK ===
    0x238f
=== CODE BLOCK END ===

=== CODE BLOCK ADDRESS 0x238f ===
  0x238f	outsd  	dx, dword ptr [esi]
  0x2390	sub    	al, byte ptr [eax]
  0x2392	add    	byte ptr [edx], cl
  0x2394	sub    	al, 0x29
  0x2396	add    	bl, byte ptr [edi]
  === BLOCK LINK ===
    0x2398
=== CODE BLOCK END ===

=== CODE BLOCK ADDRESS 0x2398 ===
  0x2398	pop    	esp
  0x2399	outsd  	dx, dword ptr [esi]
  0x239a	sub    	eax, dword ptr [eax]
  0x239c	add    	byte ptr [edx], cl
  0x239e	or     	al, 2
  === BLOCK LINK ===
    0x23a0
=== CODE BLOCK END ===

=== CODE BLOCK ADDRESS 0x23a0 ===
  0x23a0	push   	ss
  0x23a1	or     	byte ptr [edi + 0x2c], ch
  0x23a4	add    	byte ptr [eax], al
  0x23a6	or     	cl, byte ptr [ebx]
  0x23a8	add    	cl, byte ptr [eax]
  === BLOCK LINK ===
    0x23aa
=== CODE BLOCK END ===

=== CODE BLOCK ADDRESS 0x23aa ===
  0x23aa	pop    	ss
  0x23ab	pop    	eax
  0x23ac	outsd  	dx, dword ptr [esi]
  0x23ad	sub    	eax, 0xa0a0000
  0x23b2	pop    	es
  === BLOCK LINK ===
    0x23b3
=== CODE BLOCK END ===

=== CODE BLOCK ADDRESS 0x23b3 ===
  0x23b3	jae    	0x23e3
  === BLOCK LINK ===
    0x23b5
=== CODE BLOCK END ===

=== CODE BLOCK ADDRESS 0x23b5 ===
  0x23b5	add    	byte ptr [eax], al
  0x23b7	or     	al, byte ptr [esi]
  0x23b9	jae    	0x23ea
  === BLOCK LINK ===
    0x23bb
=== CODE BLOCK END ===

=== CODE BLOCK ADDRESS 0x23bb ===
  0x23bb	add    	byte ptr [eax], al
  0x23bd	or     	ch, byte ptr [edx]
  0x23bf	jae    	0x23f1
  === BLOCK LINK ===
    0x23c1
=== CODE BLOCK END ===

=== CODE BLOCK ADDRESS 0x23c1 ===
  0x23c1	add    	byte ptr [eax], al
  0x23c3	or     	al, byte ptr [edx]
  0x23c5	jae    	0x23f6
  === BLOCK LINK ===
    0x23c7
=== CODE BLOCK END ===

=== CODE BLOCK ADDRESS 0x23c7 ===
  0x23c7	add    	byte ptr [eax], al
  0x23c9	or     	ch, byte ptr [edx]
  0x23cb	push   	ds
  0x23cc	add    	ch, byte ptr [eax]
  0x23ce	xor    	dword ptr [eax], eax
  === BLOCK LINK ===
    0x23d0
=== CODE BLOCK END ===

=== CODE BLOCK ADDRESS 0x23d0 ===
  0x23d0	add    	byte ptr [edx], cl
  0x23d2	sub    	al, byte ptr [eax]
  0x23d4	inc    	edx
  0x23d5	push   	ebx
  0x23d6	dec    	edx
  === BLOCK LINK ===
    0x23d7
=== CODE BLOCK END ===

=== CODE BLOCK ADDRESS 0x23d7 ===
  0x23d7	inc    	edx
  0x23d8	add    	dword ptr [eax], eax
  0x23da	add    	dword ptr [eax], eax
  0x23dc	add    	byte ptr [eax], al
  0x23de	add    	byte ptr [eax], al
  === BLOCK LINK ===
    0x23e0
=== CODE BLOCK END ===

=== CODE BLOCK ADDRESS 0x23e0 ===
  0x23e0	or     	al, 0
  0x23e2	add    	byte ptr [eax], al
  0x23e4	jbe    	0x2418
  === BLOCK LINK ===
    0x23e6
=== CODE BLOCK END ===

=== CODE BLOCK ADDRESS 0x23e6 ===
  0x23e6	xor    	byte ptr cs:[esi], ch
  0x23e9	xor    	eax, 0x37323730
  0x23ee	add    	byte ptr [eax], al
  0x23f0	add    	byte ptr [eax], al
  0x23f2	add    	eax, 0x6c00
  === BLOCK LINK ===
    0x23f7
=== CODE BLOCK END ===

=== CODE BLOCK ADDRESS 0x23f7 ===
  0x23f7	add    	ah, bh
  0x23f9	add    	al, 0
  0x23fb	add    	byte ptr [ebx], ah
  0x23fd	jle    	0x23ff
  === BLOCK LINK ===
    0x23ff
=== CODE BLOCK END ===

=== CODE BLOCK ADDRESS 0x23ff ===
  0x23ff	add    	byte ptr [eax + 5], ch
  0x2402	add    	byte ptr [eax], al
  0x2404	or     	al, 8
  0x2406	add    	byte ptr [eax], al
  0x2408	and    	edx, dword ptr [ebx + 0x74]
  === BLOCK LINK ===
    0x240b
=== CODE BLOCK END ===

=== CODE BLOCK ADDRESS 0x240b ===
  0x240b	jb     	0x2476
  === BLOCK LINK ===
    0x240d
=== CODE BLOCK END ===

=== CODE BLOCK ADDRESS 0x240d ===
  0x240d	outsb  	dx, byte ptr [esi]
  0x240e	jae    	0x2411
  === BLOCK LINK ===
    0x2411
=== CODE BLOCK END ===

=== CODE BLOCK ADDRESS 0x2411 ===
  0x2411	add    	byte ptr [eax], al
  0x2413	add    	byte ptr [ebp + ecx], dh
  0x2417	add    	byte ptr [eax], bh
  0x2419	add    	eax, dword ptr [eax]
  0x241b	add    	byte ptr [ebx], ah
  === BLOCK LINK ===
    0x241d
=== CODE BLOCK END ===

=== CODE BLOCK ADDRESS 0x241d ===
  0x241d	push   	ebp
  0x241e	push   	ebx
  0x241f	add    	byte ptr [eax + edx + 0x100000], ch
  0x2426	add    	byte ptr [eax], al
  0x2428	and    	eax, dword ptr [edi + 0x55]
  === BLOCK LINK ===
    0x242b
=== CODE BLOCK END ===

=== CODE BLOCK ADDRESS 0x242b ===
  0x242b	dec    	ecx
  0x242c	inc    	esp
  0x242d	add    	byte ptr [eax], al
  0x242f	add    	byte ptr [eax + edx + 0x26fc0000], bh
  0x2436	add    	byte ptr [eax], al
  === BLOCK LINK ===
    0x2438
=== CODE BLOCK END ===

=== CODE BLOCK ADDRESS 0x2438 ===
  0x2438	and    	eax, dword ptr [edx + 0x6c]
  0x243b	outsd  	dx, dword ptr [esi]
  0x243c	bound  	eax, qword ptr [eax]
  0x243e	add    	byte ptr [eax], al
  0x2440	add    	byte ptr [eax], al
  === BLOCK LINK ===
    0x2442
=== CODE BLOCK END ===

=== CODE BLOCK ADDRESS 0x2442 ===
  0x2442	add    	byte ptr [eax], al
  0x2444	add    	al, byte ptr [eax]
  0x2446	add    	byte ptr [ecx], al
  0x2448	push   	edi
  0x2449	pop    	ebp
  === BLOCK LINK ===
    0x244a
=== CODE BLOCK END ===

=== CODE BLOCK ADDRESS 0x244a ===
  0x244a	add    	cl, byte ptr [eax]
  0x244c	or     	dword ptr [eax], eax
  0x244e	add    	byte ptr [eax], al
  0x2450	add    	dl, bh
  0x2452	add    	dword ptr [ebx], esi
  === BLOCK LINK ===
    0x2454
=== CODE BLOCK END ===

=== CODE BLOCK ADDRESS 0x2454 ===
  0x2454	add    	byte ptr [esi], dl
  0x2456	add    	byte ptr [eax], al
  0x2458	add    	dword ptr [eax], eax
  0x245a	add    	byte ptr [eax], al
  0x245c	sub    	byte ptr [eax], al
  === BLOCK LINK ===
    0x245e
=== CODE BLOCK END ===

=== CODE BLOCK ADDRESS 0x245e ===
  0x245e	add    	byte ptr [eax], al
  0x2460	add    	al, 0
  0x2462	add    	byte ptr [eax], al
  0x2464	sbb    	eax, dword ptr [eax]
  0x2466	add    	byte ptr [eax], al
  === BLOCK LINK ===
    0x2468
=== CODE BLOCK END ===

=== CODE BLOCK ADDRESS 0x2468 ===
  0x2468	add    	eax, 0x6000000
  0x246d	add    	byte ptr [eax], al
  0x246f	add    	byte ptr [edx], dh
  0x2471	add    	byte ptr [eax], al
  0x2473	add    	byte ptr [ebx], bl
  === BLOCK LINK ===
    0x2475
=== CODE BLOCK END ===

=== CODE BLOCK ADDRESS 0x2475 ===
  0x2475	add    	byte ptr [eax], al
  0x2477	add    	byte ptr [0x1000000], cl
  0x247d	add    	byte ptr [eax], al
  0x247f	add    	byte ptr [0x1000000], al
  0x2485	add    	byte ptr [eax], al
  === BLOCK LINK ===
    0x2487
=== CODE BLOCK END ===

=== CODE BLOCK ADDRESS 0x2487 ===
  0x2487	add    	byte ptr [ecx], al
  0x2489	add    	byte ptr [eax], al
  0x248b	add    	byte ptr [edx], al
  0x248d	add    	byte ptr [eax], al
  0x248f	add    	byte ptr [eax], al
  === BLOCK LINK ===
    0x2491
=== CODE BLOCK END ===

=== CODE BLOCK ADDRESS 0x2491 ===
  0x2491	add    	byte ptr [edx], cl
  0x2493	add    	byte ptr [ecx], al
  0x2495	add    	byte ptr [eax], al
  0x2497	add    	byte ptr [eax], al
  0x2499	add    	byte ptr [esi], al
  === BLOCK LINK ===
    0x249b
=== CODE BLOCK END ===

=== CODE BLOCK ADDRESS 0x249b ===
  0x249b	add    	byte ptr [ecx], dh
  0x249e	push   	0
  0x24a0	or     	al, byte ptr [eax]
  0x24a2	mov    	word ptr [edx], es
  0x24a4	jl     	0x24a8
  === BLOCK LINK ===
    0x24a6
=== CODE BLOCK END ===

=== CODE BLOCK ADDRESS 0x24a6 ===
  0x24a6	push   	es
  0x24a7	add    	ah, ah
  0x24a9	add    	dl, dl
  0x24ab	add    	al, byte ptr [esi]
  0x24ad	add    	bh, bh
  === BLOCK LINK ===
    0x24af
=== CODE BLOCK END ===

=== CODE BLOCK ADDRESS 0x24af ===
  0x24af	add    	dl, dl
  0x24b1	add    	al, byte ptr [esi]
  0x24b3	add    	byte ptr [eax], bl
  0x24b5	add    	edx, edx
  0x24b7	add    	al, byte ptr [esi]
  === BLOCK LINK ===
    0x24b9
=== CODE BLOCK END ===

=== CODE BLOCK ADDRESS 0x24b9 ===
  0x24b9	add    	byte ptr [0x602d203], dh
  0x24bf	add    	byte ptr [esi + 3], cl
  0x24c2	rol    	byte ptr [edx], cl
  0x24c4	push   	es
  0x24c5	add    	byte ptr [ecx + 3], ch
  === BLOCK LINK ===
    0x24c8
=== CODE BLOCK END ===

=== CODE BLOCK ADDRESS 0x24c8 ===
  0x24c8	rol    	byte ptr [edx], cl
  0x24ca	push   	es
  0x24cb	add    	byte ptr [edx + 0x602d203], al
  0x24d1	add    	byte ptr [edx + 0x6039b03], bh
  0x24d7	add    	dh, cl
  === BLOCK LINK ===
    0x24d9
=== CODE BLOCK END ===

=== CODE BLOCK ADDRESS 0x24d9 ===
  0x24d9	add    	ebp, dword ptr [edx]
  0x24dc	push   	es
  0x24dd	add    	byte ptr [eax], al
  0x24df	add    	al, 0xe4
  0x24e1	add    	eax, dword ptr [esi]
  === BLOCK LINK ===
    0x24e3
=== CODE BLOCK END ===

=== CODE BLOCK ADDRESS 0x24e3 ===
  0x24e3	add    	byte ptr [esp + eax], bl
  0x24e6	in     	al, 3
  0x24e8	push   	es
  0x24e9	add    	byte ptr [esi], bh
  0x24eb	add    	al, 0x2b
  === BLOCK LINK ===
    0x24ed
=== CODE BLOCK END ===

=== CODE BLOCK ADDRESS 0x24ed ===
  0x24ed	add    	al, 0x3b
  0x24ef	add    	byte ptr [edx + 4], dl
  0x24f2	add    	byte ptr [eax], al
  0x24f4	push   	es
  0x24f5	add    	byte ptr [ecx + 0x6046104], al
  === BLOCK LINK ===
    0x24fb
=== CODE BLOCK END ===

=== CODE BLOCK ADDRESS 0x24fb ===
  0x24fb	add    	byte ptr [ecx + 0x6046104], ah
  0x2501	add    	al, cl
  0x2503	add    	al, 0x6a
  0x2505	add    	byte ptr [esi], al
  0x2507	add    	al, ah
  === BLOCK LINK ===
    0x2509
=== CODE BLOCK END ===

=== CODE BLOCK ADDRESS 0x2509 ===
  0x2509	add    	al, 0x6a
  0x250b	add    	byte ptr [esi], al
  0x250d	add    	bl, dh
  0x250f	add    	al, 0x6a
  0x2511	add    	byte ptr [esi], al
  === BLOCK LINK ===
    0x2513
=== CODE BLOCK END ===

=== CODE BLOCK ADDRESS 0x2513 ===
  0x2513	add    	byte ptr [esi], dl
  0x2515	add    	eax, 0x6050c
  0x251a	and    	al, byte ptr [0x6006a]
  0x2520	inc    	esi
  0x2521	add    	eax, 0xa006a
  === BLOCK LINK ===
    0x2526
=== CODE BLOCK END ===

=== CODE BLOCK ADDRESS 0x2526 ===
  0x2526	pop    	eax
  0x2527	add    	eax, 0x6027c
  0x252c	movsb  	byte ptr es:[edi], byte ptr [esi]
  0x252d	add    	eax, 0xa0589
  0x2532	mov    	dl, 5
  === BLOCK LINK ===
    0x2534
=== CODE BLOCK END ===

=== CODE BLOCK ADDRESS 0x2534 ===
  0x2534	jl     	0x2538
  === BLOCK LINK ===
    0x2536
=== CODE BLOCK END ===

=== CODE BLOCK ADDRESS 0x2536 ===
  0x2536	push   	es
  0x2537	add    	byte ptr [ebx], dl
  0x2539	push   	es
  0x253a	add    	byte ptr [esi], al
  0x253c	push   	es
  === BLOCK LINK ===
    0x253d
=== CODE BLOCK END ===

=== CODE BLOCK ADDRESS 0x253d ===
  0x253d	add    	byte ptr [eax], ch
  0x253f	push   	es
  0x2540	push   	0
  0x2542	or     	al, byte ptr [eax]
  0x2544	cmp    	al, 6
  === BLOCK LINK ===
    0x2546
=== CODE BLOCK END ===

=== CODE BLOCK ADDRESS 0x2546 ===
  0x2546	jl     	0x254a
  === BLOCK LINK ===
    0x2548
=== CODE BLOCK END ===

=== CODE BLOCK ADDRESS 0x2548 ===
  0x2548	push   	es
  0x2549	add    	byte ptr [edi + 6], dl
  0x254c	push   	0
  0x254e	push   	es
  0x254f	add    	byte ptr [ebp + 6], ch
  === BLOCK LINK ===
    0x2552
=== CODE BLOCK END ===

=== CODE BLOCK ADDRESS 0x2552 ===
  0x2552	pop    	ebp
  0x2553	push   	es
  0x2554	push   	es
  0x2555	add    	byte ptr [edi + 6], bh
  0x2558	push   	0
  === BLOCK LINK ===
    0x255a
=== CODE BLOCK END ===

=== CODE BLOCK ADDRESS 0x255a ===
  0x255a	push   	es
  0x255b	add    	byte ptr [esi + 0x606a506], dh
  0x2561	add    	byte ptr [esi], al
  0x2563	pop    	es
  0x2564	test   	byte ptr [esi], 0xa
  === BLOCK LINK ===
    0x2567
=== CODE BLOCK END ===

=== CODE BLOCK ADDRESS 0x2567 ===
  0x2567	add    	byte ptr [esi + 7], al
  0x256a	xor    	eax, dword ptr [edi]
  0x256c	or     	al, byte ptr [eax]
  0x256e	jo     	0x2577
  === BLOCK LINK ===
    0x2570
=== CODE BLOCK END ===

=== CODE BLOCK ADDRESS 0x2570 ===
  0x2570	xor    	eax, dword ptr [edi]
  0x2572	push   	es
  0x2573	add    	byte ptr [ebx + 0xa006a07], ah
  0x2579	add    	ch, dl
  0x257b	pop    	es
  === BLOCK LINK ===
    0x257c
=== CODE BLOCK END ===

=== CODE BLOCK ADDRESS 0x257c ===
  0x257c	jl     	0x2580
  === BLOCK LINK ===
    0x257e
=== CODE BLOCK END ===

=== CODE BLOCK ADDRESS 0x257e ===
  0x257e	or     	al, byte ptr [eax]
  0x2580	loope  	0x2589
  === BLOCK LINK ===
    0x2582
=== CODE BLOCK END ===

=== CODE BLOCK ADDRESS 0x2582 ===
  0x2582	jl     	0x2586
  === BLOCK LINK ===
    0x2584
=== CODE BLOCK END ===

=== CODE BLOCK ADDRESS 0x2584 ===
  0x2584	push   	es
  0x2585	add    	dl, dh
  0x2587	pop    	es
  0x2588	test   	byte ptr [esi], 0
  0x258b	add    	byte ptr [eax], al
  === BLOCK LINK ===
    0x258d
=== CODE BLOCK END ===

=== CODE BLOCK ADDRESS 0x258d ===
  0x258d	add    	byte ptr [ecx], al
  0x258f	add    	byte ptr [eax], al
  0x2591	add    	byte ptr [eax], al
  0x2593	add    	byte ptr [ecx], al
  0x2595	add    	byte ptr [ecx], al
  === BLOCK LINK ===
    0x2597
=== CODE BLOCK END ===

=== CODE BLOCK ADDRESS 0x2597 ===
  0x2597	add    	byte ptr [eax + 0x17001001], al
  0x259d	add    	byte ptr [ecx], ah
  0x259f	add    	byte ptr [0x1000100], al
  0x25a5	add    	byte ptr [eax + 0x34001001], al
  0x25ab	add    	byte ptr [ecx], ah
  === BLOCK LINK ===
    0x25ad
=== CODE BLOCK END ===

=== CODE BLOCK ADDRESS 0x25ad ===
  0x25ad	add    	byte ptr [0x1001400], al
  0x25b3	add    	byte ptr [eax], al
  0x25b5	add    	byte ptr [eax], dl
  0x25b7	add    	byte ptr [esi], bh
  0x25b9	add    	byte ptr [ebx], cl
  === BLOCK LINK ===
    0x25bc
=== CODE BLOCK END ===

=== CODE BLOCK ADDRESS 0x25bc ===
  0x25bc	add    	eax, 0x1001c00
  0x25c1	add    	byte ptr [ebx - 0x80], dl
  0x25c4	js     	0x25c6
  === BLOCK LINK ===
    0x25c6
=== CODE BLOCK END ===

=== CODE BLOCK ADDRESS 0x25c6 ===
  0x25c6	or     	al, byte ptr [eax]
  0x25c8	push   	ebx
  0x25c9	or     	byte ptr [ebp + 0x53000a00], 0x80
  0x25d0	mov    	dword ptr [0x53000a00], eax
  0x25d5	sub    	byte ptr [edi + 0x53000a00], 0x80
  === BLOCK LINK ===
    0x25dc
=== CODE BLOCK END ===

=== CODE BLOCK ADDRESS 0x25dc ===
  0x25dc	ret    	0xa00
  0x25df	add    	byte ptr [ebx - 0x80], dl
  0x25e2	aad    	0
  0x25e4	or     	al, byte ptr [eax]
  0x25e6	push   	ebx
  === BLOCK LINK ===
    0x25e7
=== CODE BLOCK END ===

=== CODE BLOCK ADDRESS 0x20c1 ===
  0x20c6	not    	byte ptr [esi]
  === BLOCK LINK ===
    0x20c8
=== CODE BLOCK END ===

=== CODE BLOCK ADDRESS 0x25e7 ===
  0x25e7	and    	dh, 0
  0x25ea	or     	al, byte ptr [eax]
  0x25ec	push   	ebx
  0x25ed	add    	byte ptr [eax], 1
  0x25f0	or     	al, byte ptr [eax]
  === BLOCK LINK ===
    0x25f2
=== CODE BLOCK END ===

=== CODE BLOCK ADDRESS 0x25f2 ===
  0x25f2	push   	ebx
  0x25f3	adc    	byte ptr [esi], 1
  0x25f6	or     	al, byte ptr [eax]
  0x25f8	push   	ebx
  0x25f9	sub    	byte ptr [ecx + eax], 0xa
  === BLOCK LINK ===
    0x25fd
=== CODE BLOCK END ===

=== CODE BLOCK ADDRESS 0x25fd ===
  0x25fd	add    	byte ptr [ebx - 0x80], dl
  0x2600	cmp    	eax, dword ptr [ecx]
  0x2602	or     	al, byte ptr [eax]
  0x2604	push   	ebx
  0x2605	adc    	byte ptr [ebp + 1], 0xa
  === BLOCK LINK ===
    0x2609
=== CODE BLOCK END ===

=== CODE BLOCK ADDRESS 0x2609 ===
  0x2609	add    	byte ptr [ebx - 0x80], dl
  0x260c	jno    	0x260f
  === BLOCK LINK ===
    0x260e
=== CODE BLOCK END ===

=== CODE BLOCK ADDRESS 0x260e ===
  0x260e	or     	al, byte ptr [eax]
  0x2610	push   	ebx
  0x2611	or     	byte ptr [ebx + 0x53000a01], 0x80
  0x2618	test   	al, 1
  0x261a	or     	al, byte ptr [eax]
  === BLOCK LINK ===
    0x261c
=== CODE BLOCK END ===

=== CODE BLOCK ADDRESS 0x261c ===
  0x261c	push   	ebx
  0x261d	xor    	byte ptr [edi + 0x53000a01], 0x80
  0x2624	mov    	byte ptr [ecx], 0xa
  0x2627	add    	byte ptr [ebx - 0x80], dl
  0x262a	loopne  	0x262d
  === BLOCK LINK ===
    0x262c
=== CODE BLOCK END ===

=== CODE BLOCK ADDRESS 0x262c ===
  0x262c	or     	al, byte ptr [eax]
  0x262e	push   	ebx
  0x262f	xor    	dl, 1
  0x2632	or     	al, byte ptr [eax]
  0x2634	push   	ebx
  === BLOCK LINK ===
    0x2635
=== CODE BLOCK END ===

=== CODE BLOCK ADDRESS 0x2635 ===
  0x2635	add    	byte ptr [edi], 2
  0x2638	or     	al, byte ptr [eax]
  0x263a	push   	ebx
  0x263b	sbb    	byte ptr [edx], 2
  0x263e	or     	al, byte ptr [eax]
  === BLOCK LINK ===
    0x2640
=== CODE BLOCK END ===

=== CODE BLOCK ADDRESS 0x2640 ===
  0x2640	push   	ebx
  0x2641	cmp    	byte ptr [edx], 2
  0x2644	or     	al, byte ptr [eax]
  0x2646	push   	ebx
  0x2647	add    	byte ptr [edx + 2], 0xa
  === BLOCK LINK ===
    0x264b
=== CODE BLOCK END ===

=== CODE BLOCK ADDRESS 0x264b ===
  0x264b	add    	byte ptr [ebx - 0x80], dl
  0x264e	dec    	edx
  0x264f	add    	cl, byte ptr [edx]
  0x2651	add    	byte ptr [ebx - 0x80], dl
  0x2654	pop    	eax
  === BLOCK LINK ===
    0x2655
=== CODE BLOCK END ===

=== CODE BLOCK ADDRESS 0x2655 ===
  0x2655	add    	cl, byte ptr [edx]
  0x2657	add    	byte ptr [ebx - 0x80], dl
  0x265a	imul   	eax, dword ptr [edx], 0x8053000a
  0x2660	outsd  	dx, dword ptr [esi]
  0x2661	add    	cl, byte ptr [edx]
  === BLOCK LINK ===
    0x2663
=== CODE BLOCK END ===

=== CODE BLOCK ADDRESS 0x2663 ===
  0x2663	add    	al, dl
  0x2665	and    	byte ptr [eax], al
  0x2667	add    	byte ptr [eax], al
  0x2669	add    	byte ptr [ecx + 0x6e027700], dl
  0x266f	and    	eax, dword ptr [ecx]
  === BLOCK LINK ===
    0x2671
=== CODE BLOCK END ===

=== CODE BLOCK ADDRESS 0x2671 ===
  0x2671	add    	al, dh
  0x2673	and    	dword ptr [eax], eax
  0x2675	add    	byte ptr [eax], al
  0x2677	add    	byte ptr [ecx + 0x7d029700], dl
  0x267d	and    	eax, dword ptr [edx]
  === BLOCK LINK ===
    0x267f
=== CODE BLOCK END ===

=== CODE BLOCK ADDRESS 0x267f ===
  0x267f	add    	byte ptr [eax + 0x23], bl
  0x2682	add    	byte ptr [eax], al
  0x2684	add    	byte ptr [eax], al
  0x2686	xchg   	eax, ecx
  0x2687	add    	byte ptr [ebp + 0x4238402], ch
  === BLOCK LINK ===
    0x268d
=== CODE BLOCK END ===

=== CODE BLOCK ADDRESS 0x268d ===
  0x268d	add    	byte ptr [ebx], bh
  0x2691	add    	byte ptr [eax], al
  0x2693	add    	byte ptr [ecx - 0x75fd4200], dl
  0x2699	and    	eax, dword ptr [esi]
  0x269b	add    	bl, cl
  === BLOCK LINK ===
    0x269d
=== CODE BLOCK END ===

=== CODE BLOCK ADDRESS 0x269d ===
  0x269d	and    	eax, dword ptr [eax]
  0x269f	add    	byte ptr [eax], al
  0x26a1	add    	byte ptr [esi - 0x6ffd33e8], al
  0x26a7	and    	eax, dword ptr [edi]
  0x26a9	add    	byte ptr [eax], al
  === BLOCK LINK ===
    0x26ab
=== CODE BLOCK END ===

=== CODE BLOCK ADDRESS 0x26ab ===
  0x26ab	add    	byte ptr [ecx], al
  0x26ad	add    	bl, bl
  0x26af	add    	al, 0
  0x26b1	add    	byte ptr [ecx], al
  0x26b3	add    	byte ptr [eax + 0x20000], ch
  === BLOCK LINK ===
    0x26ba
=== CODE BLOCK END ===

=== CODE BLOCK ADDRESS 0x26ba ===
  0x26ba	add    	eax, 0x10000
  0x26c0	sbb    	byte ptr [edi], al
  0x26c2	add    	byte ptr [eax], al
  0x26c4	add    	al, byte ptr [eax]
  0x26c6	daa    	
  === BLOCK LINK ===
    0x26c7
=== CODE BLOCK END ===

=== CODE BLOCK ADDRESS 0x26c7 ===
  0x26c7	pop    	es
  0x26c8	add    	byte ptr [eax], al
  0x26ca	add    	dword ptr [eax], eax
  0x26cc	xchg   	eax, ebx
  0x26cd	pop    	es
  === BLOCK LINK ===
    0x26ce
=== CODE BLOCK END ===

=== CODE BLOCK ADDRESS 0x26ce ===
  0x26ce	sbb    	dword ptr [eax], eax
  0x26d0	int3   	
  0x26d1	add    	dl, byte ptr [ebx + 0x2cc0021]
  0x26d8	cdq    	
  0x26d9	and    	ebp, dword ptr [ecx]
  === BLOCK LINK ===
    0x26db
=== CODE BLOCK END ===

=== CODE BLOCK ADDRESS 0x20be ===
  0x20bf	.byte  	0xfe
  0x20c0	xor    	dword ptr [ebx + 0x283ba61f], ecx
  === BLOCK LINK ===
    0x20c1
=== CODE BLOCK END ===

=== CODE BLOCK ADDRESS 0x26db ===
  0x26db	add    	ah, cl
  0x26dd	add    	bl, byte ptr [ecx - 0x33ffcedd]
  0x26e3	add    	bl, byte ptr [ecx - 0x33ffc6dd]
  0x26e9	add    	bl, byte ptr [ecx - 0x33ffbedd]
  0x26ef	add    	bl, byte ptr [ecx - 0x33ffb6dd]
  === BLOCK LINK ===
    0x26f5
=== CODE BLOCK END ===

=== CODE BLOCK ADDRESS 0x26f5 ===
  0x26f5	add    	bl, byte ptr [ecx - 0x33ffaedd]
  0x26fb	add    	dl, byte ptr [ebx + 0x2cc0059]
  0x2702	xchg   	eax, esp
  0x2703	and    	esp, dword ptr [ecx]
  0x2706	int3   	
  === BLOCK LINK ===
    0x2707
=== CODE BLOCK END ===

=== CODE BLOCK ADDRESS 0x206d ===
  0x206d	dec    	esi
  0x206e	push   	-0x80
  === BLOCK LINK ===
    0x2070
=== CODE BLOCK END ===

=== CODE BLOCK ADDRESS 0x2707 ===
  0x2707	add    	bl, byte ptr [esi - 0x33ff8edd]
  0x270d	add    	ah, byte ptr [ebx + 0x2cc0081]
  0x2714	stosb  	byte ptr es:[edi], al
  0x2715	and    	ecx, dword ptr [ecx - 0x6ffd3400]
  0x271b	and    	edx, dword ptr [ecx - 0x6ffd3400]
  === BLOCK LINK ===
    0x2721
=== CODE BLOCK END ===

=== CODE BLOCK ADDRESS 0x2721 ===
  0x2721	and    	ebx, dword ptr [ecx + 0x5604e700]
  0x2727	and    	al, 0xa1
  0x2729	add    	bl, bh
  0x272b	add    	al, 0x5c
  0x272d	and    	al, 0x99
  === BLOCK LINK ===
    0x272f
=== CODE BLOCK END ===

=== CODE BLOCK ADDRESS 0x272f ===
  0x272f	add    	byte ptr [0x99246105], al
  0x2735	add    	byte ptr [0xa9246705], al
  0x273b	add    	byte ptr [ebx], bl
  0x273d	add    	eax, 0x99245c
  0x2742	add    	eax, 0xb9246d05
  === BLOCK LINK ===
    0x2747
=== CODE BLOCK END ===

=== CODE BLOCK ADDRESS 0x2747 ===
  0x2747	add    	byte ptr [edi + 5], cl
  0x274a	and    	byte ptr [ecx + edx], 0
  0x274e	outsd  	dx, dword ptr [esi]
  0x274f	add    	eax, 0xc12484
  0x2754	lds    	eax, ptr [0xc2489]
  === BLOCK LINK ===
    0x275a
=== CODE BLOCK END ===

=== CODE BLOCK ADDRESS 0x275a ===
  0x275a	rol    	dword ptr [0xd12499], cl
  0x2760	fild   	word ptr [0xb9249e]
  0x2766	hlt    	
  0x2767	add    	eax, 0xd924a3
  0x276c	pop    	ds
  === BLOCK LINK ===
    0x276d
=== CODE BLOCK END ===

=== CODE BLOCK ADDRESS 0x276d ===
  0x276d	push   	es
  0x276e	stosd  	dword ptr es:[edi], eax
  0x276f	and    	al, 0xe1
  0x2771	add    	byte ptr [esi + eax], dh
  0x2774	nop    	
  === BLOCK LINK ===
    0x2775
=== CODE BLOCK END ===

=== CODE BLOCK ADDRESS 0x2775 ===
  0x2775	and    	ebp, ecx
  0x2777	add    	byte ptr [esi + 6], cl
  0x277a	scasd  	eax, dword ptr es:[edi]
  0x277b	and    	al, 0xf9
  0x277d	add    	byte ptr [esi + 6], dh
  === BLOCK LINK ===
    0x2780
=== CODE BLOCK END ===

=== CODE BLOCK ADDRESS 0x2780 ===
  0x2780	mov    	bl, 0x24
  0x2782	add    	dword ptr [ecx], eax
  0x2784	mov    	byte ptr [esi], al
  0x2786	mov    	edx, 0x94000924
  0x278b	push   	es
  === BLOCK LINK ===
    0x278c
=== CODE BLOCK END ===

=== CODE BLOCK ADDRESS 0x278c ===
  0x278c	scasd  	eax, dword ptr es:[edi]
  0x278d	and    	al, 0xb9
  0x278f	add    	byte ptr [ebp + 0x924c106], bl
  0x2795	add    	dword ptr [ebp - 0x16db39fa], edi
  0x279b	add    	bl, al
  === BLOCK LINK ===
    0x279d
=== CODE BLOCK END ===

=== CODE BLOCK ADDRESS 0x279d ===
  0x279d	push   	es
  0x279e	nop    	
  0x279f	and    	edx, ecx
  0x27a1	add    	bl, cl
  0x27a3	push   	es
  === BLOCK LINK ===
    0x27a4
=== CODE BLOCK END ===

=== CODE BLOCK ADDRESS 0x27a4 ===
  0x27a4	stosd  	dword ptr es:[edi], eax
  0x27a5	and    	al, 0xd1
  0x27a7	add    	cl, bl
  0x27a9	push   	es
  0x27aa	stosd  	dword ptr es:[edi], eax
  === BLOCK LINK ===
    0x27ab
=== CODE BLOCK END ===

=== CODE BLOCK ADDRESS 0x27ab ===
  0x27ab	and    	al, 0xb9
  0x27ad	add    	bh, ah
  0x27af	push   	es
  0x27b0	retf   	
  0x27b1	and    	al, 1
  === BLOCK LINK ===
    0x27b3
=== CODE BLOCK END ===

=== CODE BLOCK ADDRESS 0x20e0 ===
  0x20e2	xor    	edx, dword ptr [ecx]
  === BLOCK LINK ===
    0x20e4
=== CODE BLOCK END ===

=== CODE BLOCK ADDRESS 0x27b3 ===
  0x27b3	add    	esp, esi
  0x27b5	add    	eax, 0x1124d5
  0x27ba	pop    	eax
  0x27bb	pop    	es
  0x27bc	cli    	
  === BLOCK LINK ===
    0x27bd
=== CODE BLOCK END ===

=== CODE BLOCK ADDRESS 0x27bd ===
  0x27bd	and    	al, 0x19
  0x27bf	add    	dword ptr [ebp - 0x66dafdf9], ecx
  0x27c5	add    	byte ptr [edi + eax + 0x992512], dh
  0x27cc	mov    	edi, 0x99251a07
  0x27d1	add    	bl, cl
  === BLOCK LINK ===
    0x27d3
=== CODE BLOCK END ===

=== CODE BLOCK ADDRESS 0x27d3 ===
  0x27d3	pop    	es
  0x27d4	pop    	ds
  0x27d5	and    	eax, 0x7cb0099
  0x27da	and    	eax, 0xcc013125
  0x27df	add    	bl, byte ptr [ecx - 0x33ffeedd]
  === BLOCK LINK ===
    0x27e5
=== CODE BLOCK END ===

=== CODE BLOCK ADDRESS 0x27e5 ===
  0x27e5	add    	ch, byte ptr [edx]
  0x27e7	and    	eax, 0x2cc0139
  0x27ec	nop    	
  0x27ed	and    	ecx, dword ptr [ecx]
  0x27ef	add    	ah, cl
  === BLOCK LINK ===
    0x27f1
=== CODE BLOCK END ===

=== CODE BLOCK ADDRESS 0x27f1 ===
  0x27f1	add    	dl, byte ptr [eax - 0x33febedd]
  0x27f7	add    	dl, byte ptr [eax + 0x4000e23]
  0x27fd	add    	byte ptr [0x8000e00], cl
  0x2803	add    	byte ptr [esi], ch
  0x2805	add    	byte ptr [esi], cl
  === BLOCK LINK ===
    0x2807
=== CODE BLOCK END ===

=== CODE BLOCK ADDRESS 0x2807 ===
  0x2807	add    	byte ptr [eax + eax], cl
  0x280a	mov    	al, 2
  0x280c	push   	cs
  0x280d	add    	byte ptr [eax], dl
  0x280f	add    	byte ptr [edi + 0x14000e02], bh
  === BLOCK LINK ===
    0x2815
=== CODE BLOCK END ===

=== CODE BLOCK ADDRESS 0x2815 ===
  0x2815	add    	byte ptr [eax], al
  0x2817	add    	byte ptr [esi], cl
  0x2819	add    	byte ptr [eax], bl
  0x281b	add    	ah, cl
  0x281d	add    	cl, byte ptr [esi]
  === BLOCK LINK ===
    0x281f
=== CODE BLOCK END ===

=== CODE BLOCK ADDRESS 0x281f ===
  0x281f	add    	byte ptr [eax + eax], bl
  0x2822	xchg   	byte ptr [0x20000e], al
  0x2828	push   	edx
  0x2829	or     	byte ptr [esi], cl
  0x282b	add    	byte ptr [eax + eax], ah
  === BLOCK LINK ===
    0x282e
=== CODE BLOCK END ===

=== CODE BLOCK ADDRESS 0x282e ===
  0x282e	push   	ss
  0x282f	or     	ecx, dword ptr [esi]
  0x2831	add    	byte ptr [eax], ch
  0x2833	add    	dl, bl
  0x2835	or     	eax, 0x2c000e
  === BLOCK LINK ===
    0x283a
=== CODE BLOCK END ===

=== CODE BLOCK ADDRESS 0x283a ===
  0x283a	nop    	
  0x283b	adc    	byte ptr [esi], cl
  0x283d	add    	byte ptr [eax], dh
  0x283f	add    	byte ptr [esi + 0x13], bl
  0x2842	push   	cs
  === BLOCK LINK ===
    0x2843
=== CODE BLOCK END ===

=== CODE BLOCK ADDRESS 0x2843 ===
  0x2843	add    	byte ptr [eax + eax], dh
  0x2846	xor    	byte ptr [esi], dl
  0x2848	push   	cs
  0x2849	add    	byte ptr [eax], bh
  0x284b	add    	dh, bh
  === BLOCK LINK ===
    0x284d
=== CODE BLOCK END ===

=== CODE BLOCK ADDRESS 0x284d ===
  0x284d	sbb    	byte ptr [esi], cl
  0x284f	add    	byte ptr [eax + eax], bh
  0x2852	rcr    	byte ptr [ebx], cl
  0x2854	push   	cs
  0x2855	add    	byte ptr [eax], al
  === BLOCK LINK ===
    0x2858
=== CODE BLOCK END ===

=== CODE BLOCK ADDRESS 0x2858 ===
  0x2858	mov    	byte ptr [esi], bl
  0x285a	push   	cs
  0x285b	add    	byte ptr [eax + eax + 0x40], al
  0x285f	and    	dword ptr [esi], ecx
  0x2861	add    	byte ptr [eax], cl
  === BLOCK LINK ===
    0x2864
=== CODE BLOCK END ===

=== CODE BLOCK ADDRESS 0x2864 ===
  0x2864	shl    	byte ptr [ecx], 1
  0x2866	push   	cs
  0x2867	add    	byte ptr [eax + eax + 0x1d], cl
  0x286b	and    	cl, byte ptr [esi]
  0x286d	add    	byte ptr [eax], dl
  === BLOCK LINK ===
    0x2870
=== CODE BLOCK END ===

=== CODE BLOCK ADDRESS 0x2870 ===
  0x2870	and    	cl, byte ptr ds:[esi]
  0x2873	add    	byte ptr [eax + eax + 0x77], dl
  0x2877	and    	cl, byte ptr [esi]
  0x2879	add    	byte ptr [eax], bl
  0x287c	retf   	0xe22
  === BLOCK LINK ===
    0x287f
=== CODE BLOCK END ===

=== CODE BLOCK ADDRESS 0x211c ===
=== CODE BLOCK END ===

=== CODE BLOCK ADDRESS 0x287f ===
  0x287f	add    	byte ptr [eax + eax - 0x1f], bl
  0x2883	and    	cl, byte ptr [esi]
  0x2885	add    	byte ptr [eax], ah
  0x2888	clc    	
  0x2889	and    	cl, byte ptr [esi]
  === BLOCK LINK ===
    0x288b
=== CODE BLOCK END ===

=== CODE BLOCK ADDRESS 0x288b ===
  0x288b	add    	byte ptr [eax + eax + 0x1b], ah
  0x288f	and    	ecx, dword ptr [esi]
  0x2891	add    	byte ptr [eax], ch
  0x2894	inc    	esp
  0x2895	and    	ecx, dword ptr [esi]
  === BLOCK LINK ===
    0x2897
=== CODE BLOCK END ===

=== CODE BLOCK ADDRESS 0x2897 ===
  0x2897	add    	byte ptr [eax + eax + 0x57], ch
  0x289b	and    	esp, dword ptr [eax]
  0x289d	add    	byte ptr [ebx], dh
  0x28a0	push   	ecx
  0x28a1	and    	al, 0x27
  === BLOCK LINK ===
    0x28a3
=== CODE BLOCK END ===

=== CODE BLOCK ADDRESS 0x28a3 ===
  0x28a3	add    	byte ptr [ebx + 0x2e245101], dl
  0x28a9	add    	byte ptr [ebx], ch
  0x28ab	add    	byte ptr [ebp + 0x13002e25], dh
  0x28b1	add    	byte ptr [esi], bh
  0x28b3	and    	eax, 0x1b002e
  === BLOCK LINK ===
    0x28b8
=== CODE BLOCK END ===

=== CODE BLOCK ADDRESS 0x28b8 ===
  0x28b8	xchg   	byte ptr [0x23002e], ah
  0x28be	lcall  	0x3800:0xb002e25
  === BLOCK LINK ===
    0x28c5
=== CODE BLOCK END ===

=== CODE BLOCK ADDRESS 0x28c5 ===
  0x28c5	and    	eax, 0x33002e
  0x28ca	hlt    	
  0x28cb	and    	eax, 0x43002e
  0x28d0	and    	al, 0x26
  0x28d2	add    	byte ptr cs:[ebx], cl
  === BLOCK LINK ===
    0x28d6
=== CODE BLOCK END ===

=== CODE BLOCK ADDRESS 0x28d6 ===
  0x28d6	cmp    	byte ptr [0x5b002e], ah
  0x28dc	sub    	ah, byte ptr [esi]
  0x28de	add    	byte ptr cs:[ebx], ah
  0x28e2	xor    	esp, dword ptr [esi]
  0x28e4	add    	byte ptr cs:[ebx], ch
  === BLOCK LINK ===
    0x28e8
=== CODE BLOCK END ===

=== CODE BLOCK ADDRESS 0x28e8 ===
  0x28e8	cmp    	al, 0x26
  0x28ea	or     	byte ptr [eax], al
  0x28ec	push   	es
  0x28ed	add    	byte ptr [ebx + 0x26], bl
  0x28f0	jae    	0x2916
  === BLOCK LINK ===
    0x28f2
=== CODE BLOCK END ===

=== CODE BLOCK ADDRESS 0x28f2 ===
  0x28f2	fbld   	tbyte ptr [edi + esi*8]
  0x28f5	and    	al, 0xa
  0x28f7	and    	eax, 0x24922532
  0x28fc	add    	al, 0x80
  0x28fe	add    	byte ptr [eax], al
  === BLOCK LINK ===
    0x2900
=== CODE BLOCK END ===

=== CODE BLOCK ADDRESS 0x2900 ===
  0x2900	add    	eax, dword ptr [eax]
  0x2902	add    	byte ptr [eax], al
  0x2904	add    	byte ptr [eax], al
  0x2906	add    	byte ptr [eax], al
  0x2908	add    	dword ptr [eax], eax
  === BLOCK LINK ===
    0x290a
=== CODE BLOCK END ===

=== CODE BLOCK ADDRESS 0x290a ===
  0x290a	add    	byte ptr [eax], al
  0x290c	scasd  	eax, dword ptr es:[edi]
  0x290d	and    	edi, dword ptr [edi + 0x2000004]
  0x2913	add    	byte ptr [eax], al
  0x2915	add    	byte ptr [eax], al
  === BLOCK LINK ===
    0x2917
=== CODE BLOCK END ===

=== CODE BLOCK ADDRESS 0x2917 ===
  0x2917	add    	byte ptr [eax], al
  0x2919	add    	byte ptr [eax], al
  0x291b	add    	byte ptr [eax], al
  0x291d	add    	byte ptr [ecx], al
  0x291f	add    	byte ptr [ecx], ah
  === BLOCK LINK ===
    0x2922
=== CODE BLOCK END ===

=== CODE BLOCK ADDRESS 0x2922 ===
  0x2922	add    	byte ptr [eax], al
  0x2924	add    	byte ptr [eax], al
  0x2926	add    	eax, dword ptr [eax]
  0x2928	add    	byte ptr [eax], al
  0x292a	add    	byte ptr [eax], al
  === BLOCK LINK ===
    0x292c
=== CODE BLOCK END ===

=== CODE BLOCK ADDRESS 0x292c ===
  0x292c	add    	byte ptr [eax], al
  0x292e	add    	byte ptr [eax], al
  0x2930	add    	byte ptr [eax], al
  0x2932	je     	0x2957
  === BLOCK LINK ===
    0x2934
=== CODE BLOCK END ===

=== CODE BLOCK ADDRESS 0x2934 ===
  0x2934	jl     	0x2938
  === BLOCK LINK ===
    0x2936
=== CODE BLOCK END ===

=== CODE BLOCK ADDRESS 0x2936 ===
  0x2936	add    	byte ptr [eax], al
  0x2938	add    	byte ptr [eax], al
  0x293a	add    	byte ptr [eax], al
  0x293c	add    	byte ptr [ecx*2 + 0x6c75646f], bh
  0x2943	add    	byte ptr ds:[ebx + esi*2 + 0x57], dl
  === BLOCK LINK ===
    0x2949
=== CODE BLOCK END ===

=== CODE BLOCK ADDRESS 0x2949 ===
  0x2949	jo     	0x29b1
  === BLOCK LINK ===
    0x294b
=== CODE BLOCK END ===

=== CODE BLOCK ADDRESS 0x294b ===
  0x294b	push   	edi
  0x294c	jb     	0x29be
  === BLOCK LINK ===
    0x294e
=== CODE BLOCK END ===

=== CODE BLOCK ADDRESS 0x294e ===
  0x294e	js     	0x29b7
  === BLOCK LINK ===
    0x2952
=== CODE BLOCK END ===

=== CODE BLOCK ADDRESS 0x2952 ===
  0x2952	add    	byte ptr [edx + 0x75], al
  0x2955	imul   	ebp, dword ptr [esp + 0x49], 0x6f666e
  0x295d	dec    	ebp
  0x295e	imul   	esp, dword ptr [ebx + 0x72], 0x666f736f
  0x2965	je     	0x2995
  === BLOCK LINK ===
    0x2967
=== CODE BLOCK END ===

=== CODE BLOCK ADDRESS 0x2967 ===
  0x2967	dec    	ecx
  0x2968	outsb  	dx, byte ptr [esi]
  0x2969	je     	0x29d0
  === BLOCK LINK ===
    0x296b
=== CODE BLOCK END ===

=== CODE BLOCK ADDRESS 0x296b ===
  0x296b	jb     	0x29db
  === BLOCK LINK ===
    0x296d
=== CODE BLOCK END ===

=== CODE BLOCK ADDRESS 0x296d ===
  0x296d	popal  	
  0x296e	insb   	byte ptr es:[edi], dx
  0x296f	add    	byte ptr [esp + ebp*2 + 0x6c], al
  0x2973	dec    	ecx
  0x2974	insd   	dword ptr es:[edi], dx
  === BLOCK LINK ===
    0x2975
=== CODE BLOCK END ===

=== CODE BLOCK ADDRESS 0x2975 ===
  0x2975	jo     	0x29e6
  === BLOCK LINK ===
    0x2977
=== CODE BLOCK END ===

=== CODE BLOCK ADDRESS 0x2977 ===
  0x2977	jb     	0x29ed
  === BLOCK LINK ===
    0x2979
=== CODE BLOCK END ===

=== CODE BLOCK ADDRESS 0x2979 ===
  0x2979	add    	byte ptr [ebx + esi*2 + 0x57], dl
  0x297d	jo     	0x29e5
  === BLOCK LINK ===
    0x297f
=== CODE BLOCK END ===

=== CODE BLOCK ADDRESS 0x297f ===
  0x297f	push   	edi
  0x2980	jb     	0x29e3
  === BLOCK LINK ===
    0x2982
=== CODE BLOCK END ===

=== CODE BLOCK ADDRESS 0x2982 ===
  0x2982	jo     	0x29f4
  === BLOCK LINK ===
    0x2984
=== CODE BLOCK END ===

=== CODE BLOCK ADDRESS 0x2984 ===
  0x2984	jb     	0x2987
  === BLOCK LINK ===
    0x2987
=== CODE BLOCK END ===

=== CODE BLOCK ADDRESS 0x2987 ===
  0x2987	push   	esp
  0x2988	jae    	0x29e1
  === BLOCK LINK ===
    0x298a
=== CODE BLOCK END ===

=== CODE BLOCK ADDRESS 0x298a ===
  0x298a	jo     	0x29f2
  === BLOCK LINK ===
    0x298c
=== CODE BLOCK END ===

=== CODE BLOCK ADDRESS 0x298c ===
  0x298c	push   	edi
  0x298d	jb     	0x29f0
  === BLOCK LINK ===
    0x298f
=== CODE BLOCK END ===

=== CODE BLOCK ADDRESS 0x298f ===
  0x298f	jo     	0x2a01
  === BLOCK LINK ===
    0x2991
=== CODE BLOCK END ===

=== CODE BLOCK ADDRESS 0x2991 ===
  0x2991	jb     	0x29e2
  === BLOCK LINK ===
    0x2994
=== CODE BLOCK END ===

=== CODE BLOCK ADDRESS 0x2994 ===
  0x2994	popal  	
  0x2995	insd   	dword ptr es:[edi], dx
  0x2996	push   	ebx
  0x2998	jo     	0x29fb
  === BLOCK LINK ===
    0x299a
=== CODE BLOCK END ===

=== CODE BLOCK ADDRESS 0x299a ===
  0x299a	arpl   	word ptr [ebp], sp
  0x299d	insd   	dword ptr es:[edi], dx
  0x299e	jae    	0x2a03
  === BLOCK LINK ===
    0x29a0
=== CODE BLOCK END ===

=== CODE BLOCK ADDRESS 0x29a0 ===
  0x29a0	outsd  	dx, dword ptr [esi]
  0x29a1	jb     	0x2a0f
  === BLOCK LINK ===
    0x29a3
=== CODE BLOCK END ===

=== CODE BLOCK ADDRESS 0x29a3 ===
  0x29a3	imul   	esp, dword ptr [edx], 0x74737953
  0x29aa	insd   	dword ptr es:[edi], dx
  0x29ac	add    	byte ptr [edi + 0x62], cl
  0x29af	push   	0x65
  0x29b1	arpl   	word ptr [eax + eax + 0x57], si
  === BLOCK LINK ===
    0x29b5
=== CODE BLOCK END ===

=== CODE BLOCK ADDRESS 0x29b5 ===
  0x29b5	inc    	ebx
  0x29b6	push   	eax
  0x29b7	pop    	edi
  0x29b8	push   	eax
  0x29b9	push   	ebp
  === BLOCK LINK ===
    0x29ba
=== CODE BLOCK END ===

=== CODE BLOCK ADDRESS 0x29ba ===
  0x29ba	inc    	edx
  0x29bb	dec    	esp
  0x29bc	dec    	ecx
  0x29bd	inc    	ebx
  0x29be	pop    	edi
  === BLOCK LINK ===
    0x29bf
=== CODE BLOCK END ===

=== CODE BLOCK ADDRESS 0x29bf ===
  0x29bf	dec    	ebx
  0x29c0	inc    	ebp
  0x29c1	pop    	ecx
  0x29c2	pop    	edi
  0x29c3	push   	esp
  === BLOCK LINK ===
    0x29c4
=== CODE BLOCK END ===

=== CODE BLOCK ADDRESS 0x29c4 ===
  0x29c4	dec    	edi
  0x29c5	dec    	ebx
  0x29c6	inc    	ebp
  0x29c7	dec    	esi
  0x29c8	add    	byte ptr [edi + 0x43], dl
  === BLOCK LINK ===
    0x29cb
=== CODE BLOCK END ===

=== CODE BLOCK ADDRESS 0x29cb ===
  0x29cb	push   	eax
  0x29cc	pop    	edi
  0x29cd	push   	eax
  0x29ce	push   	ebp
  0x29cf	inc    	edx
  === BLOCK LINK ===
    0x29d0
=== CODE BLOCK END ===

=== CODE BLOCK ADDRESS 0x29d0 ===
  0x29d0	dec    	esp
  0x29d1	dec    	ecx
  0x29d2	inc    	ebx
  0x29d3	pop    	edi
  0x29d4	dec    	ebx
  === BLOCK LINK ===
    0x29d5
=== CODE BLOCK END ===

=== CODE BLOCK ADDRESS 0x29d5 ===
  0x29d5	inc    	ebp
  0x29d6	pop    	ecx
  0x29d7	pop    	edi
  0x29d8	push   	ebx
  0x29d9	push   	esp
  === BLOCK LINK ===
    0x29da
=== CODE BLOCK END ===

=== CODE BLOCK ADDRESS 0x29da ===
  0x29da	push   	edx
  0x29db	dec    	ecx
  0x29dc	dec    	esi
  0x29dd	inc    	edi
  0x29de	add    	byte ptr [edi + 0x43], dl
  === BLOCK LINK ===
    0x29e1
=== CODE BLOCK END ===

=== CODE BLOCK ADDRESS 0x29e1 ===
  0x29e1	push   	eax
  0x29e2	pop    	edi
  0x29e3	push   	esi
  0x29e4	inc    	ebp
  0x29e5	push   	edx
  === BLOCK LINK ===
    0x29e6
=== CODE BLOCK END ===

=== CODE BLOCK ADDRESS 0x29e6 ===
  0x29e6	push   	ebx
  0x29e7	dec    	ecx
  0x29e8	dec    	edi
  0x29e9	dec    	esi
  0x29ea	add    	byte ptr [edi + 0x43], dl
  === BLOCK LINK ===
    0x29ed
=== CODE BLOCK END ===

=== CODE BLOCK ADDRESS 0x29ed ===
  0x29ed	push   	eax
  0x29ee	pop    	edi
  0x29ef	push   	esi
  0x29f0	inc    	ebp
  0x29f1	push   	edx
  === BLOCK LINK ===
    0x29f2
=== CODE BLOCK END ===

=== CODE BLOCK ADDRESS 0x29f2 ===
  0x29f2	push   	ebx
  0x29f3	dec    	ecx
  0x29f4	dec    	edi
  0x29f5	dec    	esi
  0x29f6	pop    	edi
  === BLOCK LINK ===
    0x29f7
=== CODE BLOCK END ===

=== CODE BLOCK ADDRESS 0x29f7 ===
  0x29f7	push   	ebx
  0x29f8	push   	ebp
  0x29f9	inc    	esi
  0x29fa	inc    	esi
  0x29fb	dec    	ecx
  === BLOCK LINK ===
    0x29fc
=== CODE BLOCK END ===

=== CODE BLOCK ADDRESS 0x29fc ===
  0x29fc	pop    	eax
  0x29fd	add    	byte ptr [ebp + 0x49], cl
  0x2a00	dec    	esp
  0x2a01	pop    	edi
  0x2a02	push   	esi
  === BLOCK LINK ===
    0x2a03
=== CODE BLOCK END ===

=== CODE BLOCK ADDRESS 0x2a03 ===
  0x2a03	inc    	ebp
  0x2a04	push   	edx
  0x2a05	push   	ebx
  0x2a06	dec    	ecx
  0x2a07	dec    	edi
  === BLOCK LINK ===
    0x2a08
=== CODE BLOCK END ===

=== CODE BLOCK ADDRESS 0x2a08 ===
  0x2a08	dec    	esi
  0x2a09	pop    	edi
  0x2a0a	push   	ebx
  0x2a0b	push   	ebp
  0x2a0c	inc    	esi
  === BLOCK LINK ===
    0x2a0d
=== CODE BLOCK END ===

=== CODE BLOCK ADDRESS 0x2a0d ===
  0x2a0d	inc    	esi
  0x2a0e	dec    	ecx
  0x2a0f	pop    	eax
  0x2a10	add    	byte ptr [eax + 0x72], dl
  0x2a13	jae    	0x2a7b
  === BLOCK LINK ===
    0x2a16
=== CODE BLOCK END ===

=== CODE BLOCK ADDRESS 0x2a16 ===
  0x2a16	outsb  	dx, byte ptr [esi]
  0x2a17	je     	0x2a7a
  === BLOCK LINK ===
    0x2a19
=== CODE BLOCK END ===

=== CODE BLOCK ADDRESS 0x2a19 ===
  0x2a19	je     	0x2a84
  === BLOCK LINK ===
    0x2a1b
=== CODE BLOCK END ===

=== CODE BLOCK ADDRESS 0x2a1b ===
  0x2a1b	outsd  	dx, dword ptr [esi]
  0x2a1c	outsb  	dx, byte ptr [esi]
  0x2a1d	inc    	ebx
  0x2a1e	outsd  	dx, dword ptr [esi]
  0x2a1f	jb     	0x2a86
  === BLOCK LINK ===
    0x2a21
=== CODE BLOCK END ===

=== CODE BLOCK ADDRESS 0x2a21 ===
  0x2a21	add    	byte ptr [eax + 0x72], dl
  0x2a24	jae    	0x2a8c
  === BLOCK LINK ===
    0x2a27
=== CODE BLOCK END ===

=== CODE BLOCK ADDRESS 0x2a27 ===
  0x2a27	outsb  	dx, byte ptr [esi]
  0x2a28	je     	0x2a8b
  === BLOCK LINK ===
    0x2a2a
=== CODE BLOCK END ===

=== CODE BLOCK ADDRESS 0x2a2a ===
  0x2a2a	je     	0x2a95
  === BLOCK LINK ===
    0x2a2c
=== CODE BLOCK END ===

=== CODE BLOCK ADDRESS 0x2a2c ===
  0x2a2c	outsd  	dx, dword ptr [esi]
  0x2a2d	outsb  	dx, byte ptr [esi]
  0x2a2e	inc    	ebx
  0x2a2f	inc    	esi
  0x2a30	inc    	esi
  === BLOCK LINK ===
    0x2a31
=== CODE BLOCK END ===

=== CODE BLOCK ADDRESS 0x2a31 ===
  0x2a31	push   	edx
  0x2a32	popal  	
  0x2a33	jae    	0x2aa9
  === BLOCK LINK ===
    0x2a35
=== CODE BLOCK END ===

=== CODE BLOCK ADDRESS 0x2a35 ===
  0x2a35	jb     	0x2aa1
  === BLOCK LINK ===
    0x2a38
=== CODE BLOCK END ===

=== CODE BLOCK ADDRESS 0x2a38 ===
  0x2a38	jp     	0x2a9f
  === BLOCK LINK ===
    0x2a3a
=== CODE BLOCK END ===

=== CODE BLOCK ADDRESS 0x2a3a ===
  0x2a3a	jb     	0x2a3c
  === BLOCK LINK ===
    0x2a3c
=== CODE BLOCK END ===

=== CODE BLOCK ADDRESS 0x2a3c ===
  0x2a3c	push   	eax
  0x2a3d	jb     	0x2aa4
  === BLOCK LINK ===
    0x2a3f
=== CODE BLOCK END ===

=== CODE BLOCK ADDRESS 0x2a3f ===
  0x2a3f	jae    	0x2aa6
  === BLOCK LINK ===
    0x2a41
=== CODE BLOCK END ===

=== CODE BLOCK ADDRESS 0x2a41 ===
  0x2a41	outsb  	dx, byte ptr [esi]
  0x2a42	je     	0x2aa5
  === BLOCK LINK ===
    0x2a44
=== CODE BLOCK END ===

=== CODE BLOCK ADDRESS 0x2a44 ===
  0x2a44	je     	0x2aaf
  === BLOCK LINK ===
    0x2a46
=== CODE BLOCK END ===

=== CODE BLOCK ADDRESS 0x2a46 ===
  0x2a46	outsd  	dx, dword ptr [esi]
  0x2a47	outsb  	dx, byte ptr [esi]
  0x2a48	inc    	esi
  0x2a49	outsd  	dx, dword ptr [esi]
  0x2a4a	outsb  	dx, byte ptr [esi]
  === BLOCK LINK ===
    0x2a4b
=== CODE BLOCK END ===

=== CODE BLOCK ADDRESS 0x2a4b ===
  0x2a4b	je     	0x2a90
  === BLOCK LINK ===
    0x2a4d
=== CODE BLOCK END ===

=== CODE BLOCK ADDRESS 0x2a4d ===
  0x2a4d	popal  	
  0x2a4e	arpl   	word ptr [eax + 0x65], bp
  0x2a51	add    	byte ptr [eax + 0x72], dl
  0x2a54	jae    	0x2abc
  === BLOCK LINK ===
    0x2a57
=== CODE BLOCK END ===

=== CODE BLOCK ADDRESS 0x2a57 ===
  0x2a57	outsb  	dx, byte ptr [esi]
  0x2a58	je     	0x2abb
  === BLOCK LINK ===
    0x2a5a
=== CODE BLOCK END ===

=== CODE BLOCK ADDRESS 0x2a5a ===
  0x2a5a	je     	0x2ac5
  === BLOCK LINK ===
    0x2a5c
=== CODE BLOCK END ===

=== CODE BLOCK ADDRESS 0x2a5c ===
  0x2a5c	outsd  	dx, dword ptr [esi]
  0x2a5d	outsb  	dx, byte ptr [esi]
  0x2a5e	inc    	esi
  0x2a5f	jb     	0x2ac2
  === BLOCK LINK ===
    0x2a61
=== CODE BLOCK END ===

=== CODE BLOCK ADDRESS 0x2a61 ===
  0x2a61	insd   	dword ptr es:[edi], dx
  0x2a62	ja     	0x2ad4
  === BLOCK LINK ===
    0x2a65
=== CODE BLOCK END ===

=== CODE BLOCK ADDRESS 0x2a65 ===
  0x2a65	jb     	0x2ad2
  === BLOCK LINK ===
    0x2a67
=== CODE BLOCK END ===

=== CODE BLOCK ADDRESS 0x2a67 ===
  0x2a67	add    	byte ptr [eax + 0x72], dl
  0x2a6a	jae    	0x2ad2
  === BLOCK LINK ===
    0x2a6d
=== CODE BLOCK END ===

=== CODE BLOCK ADDRESS 0x2a6d ===
  0x2a6d	outsb  	dx, byte ptr [esi]
  0x2a6e	je     	0x2ad1
  === BLOCK LINK ===
    0x2a70
=== CODE BLOCK END ===

=== CODE BLOCK ADDRESS 0x2a70 ===
  0x2a70	je     	0x2adb
  === BLOCK LINK ===
    0x2a72
=== CODE BLOCK END ===

=== CODE BLOCK ADDRESS 0x2a72 ===
  0x2a72	outsd  	dx, dword ptr [esi]
  0x2a73	outsb  	dx, byte ptr [esi]
  0x2a74	push   	ebp
  0x2a75	dec    	ecx
  0x2a76	add    	byte ptr [eax + 0x72], dl
  === BLOCK LINK ===
    0x2a79
=== CODE BLOCK END ===

=== CODE BLOCK ADDRESS 0x2a79 ===
  0x2a79	jae    	0x2ae1
  === BLOCK LINK ===
    0x2a7c
=== CODE BLOCK END ===

=== CODE BLOCK ADDRESS 0x2a7c ===
  0x2a7c	outsb  	dx, byte ptr [esi]
  0x2a7d	je     	0x2ae0
  === BLOCK LINK ===
    0x2a7f
=== CODE BLOCK END ===

=== CODE BLOCK ADDRESS 0x2a7f ===
  0x2a7f	je     	0x2aea
  === BLOCK LINK ===
    0x2a81
=== CODE BLOCK END ===

=== CODE BLOCK ADDRESS 0x2a81 ===
  0x2a81	outsd  	dx, dword ptr [esi]
  0x2a82	outsb  	dx, byte ptr [esi]
  0x2a83	inc    	esi
  0x2a84	jb     	0x2ae7
  === BLOCK LINK ===
    0x2a86
=== CODE BLOCK END ===

=== CODE BLOCK ADDRESS 0x2a86 ===
  0x2a86	insd   	dword ptr es:[edi], dx
  0x2a87	ja     	0x2af9
  === BLOCK LINK ===
    0x2a8a
=== CODE BLOCK END ===

=== CODE BLOCK ADDRESS 0x2a8a ===
  0x2a8a	jb     	0x2af7
  === BLOCK LINK ===
    0x2a8c
=== CODE BLOCK END ===

=== CODE BLOCK ADDRESS 0x2a8c ===
  0x2a8c	dec    	esp
  0x2a8d	jne    	0x2afd
  === BLOCK LINK ===
    0x2a8f
=== CODE BLOCK END ===

=== CODE BLOCK ADDRESS 0x2a8f ===
  0x2a8f	popal  	
  0x2a90	add    	byte ptr [eax + 0x72], dl
  0x2a93	jae    	0x2afb
  === BLOCK LINK ===
    0x2a96
=== CODE BLOCK END ===

=== CODE BLOCK ADDRESS 0x2a96 ===
  0x2a96	outsb  	dx, byte ptr [esi]
  0x2a97	je     	0x2afa
  === BLOCK LINK ===
    0x2a99
=== CODE BLOCK END ===

=== CODE BLOCK ADDRESS 0x2a99 ===
  0x2a99	je     	0x2b04
  === BLOCK LINK ===
    0x2a9b
=== CODE BLOCK END ===

=== CODE BLOCK ADDRESS 0x2a9b ===
  0x2a9b	outsd  	dx, dword ptr [esi]
  0x2a9c	outsb  	dx, byte ptr [esi]
  0x2a9d	inc    	esi
  0x2a9e	jb     	0x2b01
  === BLOCK LINK ===
    0x2aa0
=== CODE BLOCK END ===

=== CODE BLOCK ADDRESS 0x2aa0 ===
  0x2aa0	insd   	dword ptr es:[edi], dx
  0x2aa1	ja     	0x2b13
  === BLOCK LINK ===
    0x2aa4
=== CODE BLOCK END ===

=== CODE BLOCK ADDRESS 0x2aa4 ===
  0x2aa4	jb     	0x2b11
  === BLOCK LINK ===
    0x2aa6
=== CODE BLOCK END ===

=== CODE BLOCK ADDRESS 0x2aa6 ===
  0x2aa6	push   	edx
  0x2aa7	outsd  	dx, dword ptr [esi]
  0x2aa8	jns    	0x2b0b
  === BLOCK LINK ===
    0x2aaa
=== CODE BLOCK END ===

=== CODE BLOCK ADDRESS 0x2aaa ===
  0x2aaa	insb   	byte ptr es:[edi], dx
  0x2aab	add    	byte ptr gs:[eax + 0x72], dl
  0x2aaf	jae    	0x2b17
  === BLOCK LINK ===
    0x2ab2
=== CODE BLOCK END ===

=== CODE BLOCK ADDRESS 0x2ab2 ===
  0x2ab2	outsb  	dx, byte ptr [esi]
  0x2ab3	je     	0x2b16
  === BLOCK LINK ===
    0x2ab5
=== CODE BLOCK END ===

=== CODE BLOCK ADDRESS 0x2ab5 ===
  0x2ab5	je     	0x2b20
  === BLOCK LINK ===
    0x2ab7
=== CODE BLOCK END ===

=== CODE BLOCK ADDRESS 0x2ab7 ===
  0x2ab7	outsd  	dx, dword ptr [esi]
  0x2ab8	outsb  	dx, byte ptr [esi]
  0x2ab9	inc    	esi
  0x2aba	jb     	0x2b1d
  === BLOCK LINK ===
    0x2abc
=== CODE BLOCK END ===

=== CODE BLOCK ADDRESS 0x2abc ===
  0x2abc	insd   	dword ptr es:[edi], dx
  0x2abd	ja     	0x2b2f
  === BLOCK LINK ===
    0x2ac0
=== CODE BLOCK END ===

=== CODE BLOCK ADDRESS 0x2ac0 ===
  0x2ac0	jb     	0x2b2d
  === BLOCK LINK ===
    0x2ac2
=== CODE BLOCK END ===

=== CODE BLOCK ADDRESS 0x2ac2 ===
  0x2ac2	inc    	ecx
  0x2ac3	jb     	0x2b35
  === BLOCK LINK ===
    0x2ac6
=== CODE BLOCK END ===

=== CODE BLOCK ADDRESS 0x2ac6 ===
  0x2ac6	add    	byte ptr [eax + 0x72], dl
  0x2ac9	jae    	0x2b31
  === BLOCK LINK ===
    0x2acc
=== CODE BLOCK END ===

=== CODE BLOCK ADDRESS 0x2acc ===
  0x2acc	outsb  	dx, byte ptr [esi]
  0x2acd	je     	0x2b30
  === BLOCK LINK ===
    0x2acf
=== CODE BLOCK END ===

=== CODE BLOCK ADDRESS 0x2acf ===
  0x2acf	je     	0x2b3a
  === BLOCK LINK ===
    0x2ad1
=== CODE BLOCK END ===

=== CODE BLOCK ADDRESS 0x2ad1 ===
  0x2ad1	outsd  	dx, dword ptr [esi]
  0x2ad2	outsb  	dx, byte ptr [esi]
  0x2ad3	inc    	esi
  0x2ad4	jb     	0x2b37
  === BLOCK LINK ===
    0x2ad6
=== CODE BLOCK END ===

=== CODE BLOCK ADDRESS 0x2ad6 ===
  0x2ad6	insd   	dword ptr es:[edi], dx
  0x2ad7	ja     	0x2b49
  === BLOCK LINK ===
    0x2ada
=== CODE BLOCK END ===

=== CODE BLOCK ADDRESS 0x2ada ===
  0x2ada	jb     	0x2b47
  === BLOCK LINK ===
    0x2adc
=== CODE BLOCK END ===

=== CODE BLOCK ADDRESS 0x2adc ===
  0x2adc	inc    	ebx
  0x2add	insb   	byte ptr es:[edi], dx
  0x2ade	popal  	
  0x2adf	jae    	0x2b54
  === BLOCK LINK ===
    0x2ae1
=== CODE BLOCK END ===

=== CODE BLOCK ADDRESS 0x2ae1 ===
  0x2ae1	imul   	esp, dword ptr [ebx], 0x63616552
  0x2ae8	push   	0x6d617246
  0x2aed	ja     	0x2b5f
  === BLOCK LINK ===
    0x2af0
=== CODE BLOCK END ===

=== CODE BLOCK ADDRESS 0x2af0 ===
  0x2af0	jb     	0x2b5d
  === BLOCK LINK ===
    0x2af2
=== CODE BLOCK END ===

=== CODE BLOCK ADDRESS 0x2af2 ===
  0x2af2	add    	byte ptr [ebx + 0x79], dl
  0x2af5	jae    	0x2b6b
  === BLOCK LINK ===
    0x2af7
=== CODE BLOCK END ===

=== CODE BLOCK ADDRESS 0x2af7 ===
  0x2af7	insd   	dword ptr es:[edi], dx
  0x2af9	push   	eax
  0x2afa	jb     	0x2b65
  === BLOCK LINK ===
    0x2afc
=== CODE BLOCK END ===

=== CODE BLOCK ADDRESS 0x2afc ===
  0x2afc	outsb  	dx, byte ptr [esi]
  0x2afd	je     	0x2b68
  === BLOCK LINK ===
    0x2aff
=== CODE BLOCK END ===

=== CODE BLOCK ADDRESS 0x2aff ===
  0x2aff	outsb  	dx, byte ptr [esi]
  0x2b00	add    	byte ptr [bp + di + 0x79], dl
  0x2b04	jae    	0x2b7a
  === BLOCK LINK ===
    0x2b06
=== CODE BLOCK END ===

=== CODE BLOCK ADDRESS 0x2b06 ===
  0x2b06	insd   	dword ptr es:[edi], dx
  0x2b08	push   	edi
  0x2b09	imul   	ebp, dword ptr [esi + 0x64], 0x5073776f
  0x2b10	jb     	0x2b77
  === BLOCK LINK ===
    0x2b12
=== CODE BLOCK END ===

=== CODE BLOCK ADDRESS 0x2b12 ===
  0x2b12	jae    	0x2b79
  === BLOCK LINK ===
    0x2b14
=== CODE BLOCK END ===

=== CODE BLOCK ADDRESS 0x2b14 ===
  0x2b14	outsb  	dx, byte ptr [esi]
  0x2b15	je     	0x2b78
  === BLOCK LINK ===
    0x2b17
=== CODE BLOCK END ===

=== CODE BLOCK ADDRESS 0x2b17 ===
  0x2b17	je     	0x2b82
  === BLOCK LINK ===
    0x2b19
=== CODE BLOCK END ===

=== CODE BLOCK ADDRESS 0x2b19 ===
  0x2b19	outsd  	dx, dword ptr [esi]
  0x2b1a	outsb  	dx, byte ptr [esi]
  0x2b1b	add    	byte ptr [esi + 0x6f], al
  0x2b1e	outsb  	dx, byte ptr [esi]
  0x2b1f	je     	0x2b64
  === BLOCK LINK ===
    0x2b21
=== CODE BLOCK END ===

=== CODE BLOCK ADDRESS 0x2b21 ===
  0x2b21	popal  	
  0x2b22	arpl   	word ptr [eax + 0x65], bp
  0x2b25	push   	eax
  0x2b26	outsd  	dx, dword ptr [esi]
  0x2b27	jb     	0x2b9d
  === BLOCK LINK ===
    0x2b29
=== CODE BLOCK END ===

=== CODE BLOCK ADDRESS 0x2b29 ===
  0x2b29	dec    	esi
  0x2b2a	popal  	
  0x2b2b	insd   	dword ptr es:[edi], dx
  0x2b2c	add    	byte ptr gs:[esi + 0x6f], al
  0x2b30	outsb  	dx, byte ptr [esi]
  === BLOCK LINK ===
    0x2b31
=== CODE BLOCK END ===

=== CODE BLOCK ADDRESS 0x2b31 ===
  0x2b31	je     	0x2b76
  === BLOCK LINK ===
    0x2b33
=== CODE BLOCK END ===

=== CODE BLOCK ADDRESS 0x2b33 ===
  0x2b33	popal  	
  0x2b34	arpl   	word ptr [eax + 0x65], bp
  0x2b37	push   	ebx
  0x2b38	jb     	0x2bb1
  === BLOCK LINK ===
    0x2b3b
=== CODE BLOCK END ===

=== CODE BLOCK ADDRESS 0x2b3b ===
  0x2b3b	imul   	esp, dword ptr [ebx + 0x65], 0x656d614e
  0x2b42	add    	byte ptr [eax + 0x72], dl
  0x2b45	jae    	0x2bad
  === BLOCK LINK ===
    0x2b48
=== CODE BLOCK END ===

=== CODE BLOCK ADDRESS 0x2b48 ===
  0x2b48	outsb  	dx, byte ptr [esi]
  0x2b49	je     	0x2bac
  === BLOCK LINK ===
    0x2b4b
=== CODE BLOCK END ===

=== CODE BLOCK ADDRESS 0x2b4b ===
  0x2b4b	je     	0x2bb6
  === BLOCK LINK ===
    0x2b4d
=== CODE BLOCK END ===

=== CODE BLOCK ADDRESS 0x2b4d ===
  0x2b4d	outsd  	dx, dword ptr [esi]
  0x2b4e	outsb  	dx, byte ptr [esi]
  0x2b4f	dec    	esi
  0x2b50	popal  	
  0x2b51	je     	0x2bbc
  === BLOCK LINK ===
    0x2b53
=== CODE BLOCK END ===

=== CODE BLOCK ADDRESS 0x2b53 ===
  0x2b53	jbe    	0x2bba
  === BLOCK LINK ===
    0x2b55
=== CODE BLOCK END ===

=== CODE BLOCK ADDRESS 0x2b55 ===
  0x2b55	add    	byte ptr [eax + 0x72], dl
  0x2b58	jae    	0x2bc0
  === BLOCK LINK ===
    0x2b5b
=== CODE BLOCK END ===

=== CODE BLOCK ADDRESS 0x2b5b ===
  0x2b5b	outsb  	dx, byte ptr [esi]
  0x2b5c	je     	0x2bbf
  === BLOCK LINK ===
    0x2b5e
=== CODE BLOCK END ===

=== CODE BLOCK ADDRESS 0x2b5e ===
  0x2b5e	je     	0x2bc9
  === BLOCK LINK ===
    0x2b60
=== CODE BLOCK END ===

=== CODE BLOCK ADDRESS 0x2b60 ===
  0x2b60	outsd  	dx, dword ptr [esi]
  0x2b61	outsb  	dx, byte ptr [esi]
  0x2b62	inc    	ebx
  0x2b63	inc    	esi
  0x2b64	inc    	esi
  === BLOCK LINK ===
    0x2b65
=== CODE BLOCK END ===

=== CODE BLOCK ADDRESS 0x2b65 ===
  0x2b65	push   	edx
  0x2b66	popal  	
  0x2b67	jae    	0x2bdd
  === BLOCK LINK ===
    0x2b69
=== CODE BLOCK END ===

=== CODE BLOCK ADDRESS 0x2b69 ===
  0x2b69	jb     	0x2bd5
  === BLOCK LINK ===
    0x2b6c
=== CODE BLOCK END ===

=== CODE BLOCK ADDRESS 0x2b6c ===
  0x2b6c	jp     	0x2bd3
  === BLOCK LINK ===
    0x2b6e
=== CODE BLOCK END ===

=== CODE BLOCK ADDRESS 0x2b6e ===
  0x2b6e	jb     	0x2bbe
  === BLOCK LINK ===
    0x2b70
=== CODE BLOCK END ===

=== CODE BLOCK ADDRESS 0x2b70 ===
  0x2b70	popal  	
  0x2b71	je     	0x2bdc
  === BLOCK LINK ===
    0x2b73
=== CODE BLOCK END ===

=== CODE BLOCK ADDRESS 0x2b73 ===
  0x2b73	jbe    	0x2bda
  === BLOCK LINK ===
    0x2b75
=== CODE BLOCK END ===

=== CODE BLOCK ADDRESS 0x2b75 ===
  0x2b75	add    	byte ptr [ebp + 0x69], cl
  0x2b78	insb   	byte ptr es:[edi], dx
  0x2b79	inc    	ebx
  0x2b7a	outsd  	dx, dword ptr [esi]
  0x2b7b	jb     	0x2be2
  === BLOCK LINK ===
    0x2b7d
=== CODE BLOCK END ===

=== CODE BLOCK ADDRESS 0x2b7d ===
  0x2b7d	add    	byte ptr [edi + 0x69], dl
  0x2b80	outsb  	dx, byte ptr [esi]
  0x2b81	imul   	ebp, dword ptr [esi + 0x65], 0x69570074
  0x2b88	outsb  	dx, byte ptr [esi]
  0x2b89	outsd  	dx, dword ptr fs:[esi]
  === BLOCK LINK ===
    0x2b8b
=== CODE BLOCK END ===

=== CODE BLOCK ADDRESS 0x2b8b ===
  0x2b8b	ja     	0x2c00
  === BLOCK LINK ===
    0x2b8d
=== CODE BLOCK END ===

=== CODE BLOCK ADDRESS 0x2b8d ===
  0x2b8d	inc    	ebx
  0x2b8e	outsd  	dx, dword ptr [esi]
  0x2b8f	arpl   	word ptr gs:[ebx], si
  0x2b94	push   	edi
  0x2b95	imul   	ebp, dword ptr [esi + 0x64], 0x4373776f
  === BLOCK LINK ===
    0x2b9c
=== CODE BLOCK END ===

=== CODE BLOCK ADDRESS 0x2b9c ===
  0x2b9c	outsd  	dx, dword ptr [esi]
  0x2b9d	arpl   	word ptr gs:[ebx + 0x45], si
  0x2ba2	js     	0x2c18
  === BLOCK LINK ===
    0x2ba4
=== CODE BLOCK END ===

=== CODE BLOCK ADDRESS 0x2ba4 ===
  0x2ba4	add    	byte ptr [ebp + 0x73], cl
  0x2ba7	arpl   	word ptr [ebp + 0x73], bp
  0x2baa	add    	byte ptr [eax + 0x72], dl
  0x2bad	outsb  	dx, byte ptr [esi]
  0x2bae	je     	0x2c26
  === BLOCK LINK ===
    0x2bb0
=== CODE BLOCK END ===

=== CODE BLOCK ADDRESS 0x2bb0 ===
  0x2bb0	push   	eax
  0x2bb1	je     	0x2bb3
  === BLOCK LINK ===
    0x2bb3
=== CODE BLOCK END ===

=== CODE BLOCK ADDRESS 0x2bb3 ===
  0x2bb3	dec    	ebp
  0x2bb4	popal  	
  0x2bb5	imul   	ebp, dword ptr [esi], 0x74737953
  0x2bbc	insd   	dword ptr es:[edi], dx
  0x2bbe	push   	eax
  === BLOCK LINK ===
    0x2bc0
=== CODE BLOCK END ===

=== CODE BLOCK ADDRESS 0x2bc0 ===
  0x2bc0	jb     	0x2c2b
  === BLOCK LINK ===
    0x2bc2
=== CODE BLOCK END ===

=== CODE BLOCK ADDRESS 0x2bc2 ===
  0x2bc2	outsb  	dx, byte ptr [esi]
  0x2bc3	je     	0x2c2e
  === BLOCK LINK ===
    0x2bc5
=== CODE BLOCK END ===

=== CODE BLOCK ADDRESS 0x2bc5 ===
  0x2bc5	outsb  	dx, byte ptr [esi]
  0x2bc6	add    	byte ptr [bx + si + 0x72], dl
  0x2bca	imul   	ebp, dword ptr [esi + 0x74], 0x75657551
  0x2bd1	add    	byte ptr gs:[edi + 0x61], dl
  0x2bd5	imul   	esi, dword ptr [esi + eax*2 + 0x6f], 0x626f4a72
  === BLOCK LINK ===
    0x2bdd
=== CODE BLOCK END ===

=== CODE BLOCK ADDRESS 0x2bdd ===
  0x2bdd	push   	esp
  0x2bde	outsd  	dx, dword ptr [esi]
  0x2bdf	inc    	edx
  0x2be0	push   	eax
  0x2be2	jb     	0x2c4d
  === BLOCK LINK ===
    0x2be4
=== CODE BLOCK END ===

=== CODE BLOCK ADDRESS 0x2be4 ===
  0x2be4	outsb  	dx, byte ptr [esi]
  0x2be5	je     	0x2c4c
  === BLOCK LINK ===
    0x2be7
=== CODE BLOCK END ===

=== CODE BLOCK ADDRESS 0x2be7 ===
  0x2be7	add    	byte ptr fs:[eax + 0x72], dl
  0x2beb	imul   	ebp, dword ptr [esi + 0x74], 0x44535058
  0x2bf2	outsd  	dx, dword ptr [esi]
  0x2bf3	arpl   	word ptr [ebp + 0x6d], si
  0x2bf6	outsb  	dx, byte ptr gs:[esi]
  === BLOCK LINK ===
    0x2bf8
=== CODE BLOCK END ===

=== CODE BLOCK ADDRESS 0x2bf8 ===
  0x2bf8	je     	0x2bfa
  === BLOCK LINK ===
    0x2bfa
=== CODE BLOCK END ===

=== CODE BLOCK ADDRESS 0x2bfa ===
  0x2bfa	inc    	edi
  0x2bfb	je     	0x2c4e
  === BLOCK LINK ===
    0x2bfe
=== CODE BLOCK END ===

=== CODE BLOCK ADDRESS 0x2bfe ===
  0x2bfe	jb     	0x2c69
  === BLOCK LINK ===
    0x2c00
=== CODE BLOCK END ===

=== CODE BLOCK ADDRESS 0x2c00 ===
  0x2c00	outsb  	dx, byte ptr [esi]
  0x2c01	je     	0x2c54
  === BLOCK LINK ===
    0x2c03
=== CODE BLOCK END ===

=== CODE BLOCK ADDRESS 0x2c03 ===
  0x2c03	jne    	0x2c6a
  === BLOCK LINK ===
    0x2c05
=== CODE BLOCK END ===

=== CODE BLOCK ADDRESS 0x2c05 ===
  0x2c05	jne    	0x2c6c
  === BLOCK LINK ===
    0x2c07
=== CODE BLOCK END ===

=== CODE BLOCK ADDRESS 0x2c07 ===
  0x2c07	add    	byte ptr [esi], ch
  0x2c09	arpl   	word ptr [edi + ebp*2 + 0x72], si
  0x2c0d	add    	byte ptr [ebx + 0x79], dl
  0x2c10	jae    	0x2c86
  === BLOCK LINK ===
    0x2c12
=== CODE BLOCK END ===

=== CODE BLOCK ADDRESS 0x2c12 ===
  0x2c12	insd   	dword ptr es:[edi], dx
  0x2c14	push   	edx
  0x2c16	insb   	byte ptr es:[edi], dx
  0x2c19	arpl   	word ptr gs:[ecx + ebp*2 + 0x6f], si
  0x2c1e	outsb  	dx, byte ptr [esi]
  === BLOCK LINK ===
    0x2c1f
=== CODE BLOCK END ===

=== CODE BLOCK ADDRESS 0x2c1f ===
  0x2c1f	add    	byte ptr [ecx + 0x73], al
  0x2c22	jae    	0x2c89
  === BLOCK LINK ===
    0x2c24
=== CODE BLOCK END ===

=== CODE BLOCK ADDRESS 0x2c24 ===
  0x2c24	insd   	dword ptr es:[edi], dx
  0x2c25	bound  	ebp, qword ptr [ecx + edi*2 + 0x44]
  0x2c29	insb   	byte ptr es:[edi], dx
  0x2c2b	popal  	
  0x2c2c	jns    	0x2c81
  === BLOCK LINK ===
    0x2c2e
=== CODE BLOCK END ===

=== CODE BLOCK ADDRESS 0x2c2e ===
  0x2c2e	imul   	esp, dword ptr [edi + 0x6e], 0x72747441
  0x2c35	imul   	esp, dword ptr [edx + 0x75], 0x41006574
  0x2c3c	jae    	0x2cb1
  === BLOCK LINK ===
    0x2c3e
=== CODE BLOCK END ===

=== CODE BLOCK ADDRESS 0x2c3e ===
  0x2c3e	insd   	dword ptr es:[edi], dx
  0x2c40	bound  	ebp, qword ptr [ecx + edi*2 + 0x4b]
  0x2c44	jns    	0x2c8d
  === BLOCK LINK ===
    0x2c47
=== CODE BLOCK END ===

=== CODE BLOCK ADDRESS 0x2c47 ===
  0x2c47	imul   	ebp, dword ptr [ebp + 0x41], 0x69727474
  0x2c4f	bound  	esi, qword ptr [ebp + 0x74]
  0x2c52	add    	byte ptr gs:[ecx + 0x73], al
  0x2c56	jae    	0x2cbd
  === BLOCK LINK ===
    0x2c58
=== CODE BLOCK END ===

=== CODE BLOCK ADDRESS 0x2c58 ===
  0x2c58	insd   	dword ptr es:[edi], dx
  0x2c59	bound  	ebp, qword ptr [ecx + edi*2 + 0x46]
  0x2c5d	imul   	ebp, dword ptr [ebp + 0x56], 0x69737265
  0x2c65	outsd  	dx, dword ptr [esi]
  0x2c66	outsb  	dx, byte ptr [esi]
  === BLOCK LINK ===
    0x2c67
=== CODE BLOCK END ===

=== CODE BLOCK ADDRESS 0x2c67 ===
  0x2c67	inc    	ecx
  0x2c68	je     	0x2cde
  === BLOCK LINK ===
    0x2c6a
=== CODE BLOCK END ===

=== CODE BLOCK ADDRESS 0x2c6a ===
  0x2c6a	jb     	0x2cd5
  === BLOCK LINK ===
    0x2c6c
=== CODE BLOCK END ===

=== CODE BLOCK ADDRESS 0x2c6c ===
  0x2c6c	bound  	esi, qword ptr [ebp + 0x74]
  0x2c6f	add    	byte ptr gs:[ecx + 0x73], al
  0x2c73	jae    	0x2cda
  === BLOCK LINK ===
    0x2c75
=== CODE BLOCK END ===

=== CODE BLOCK ADDRESS 0x2c75 ===
  0x2c75	insd   	dword ptr es:[edi], dx
  0x2c76	bound  	ebp, qword ptr [ecx + edi*2 + 0x43]
  0x2c7a	outsd  	dx, dword ptr [esi]
  0x2c7b	insd   	dword ptr es:[edi], dx
  0x2c7c	jo     	0x2cdf
  === BLOCK LINK ===
    0x2c7e
=== CODE BLOCK END ===

=== CODE BLOCK ADDRESS 0x2c7e ===
  0x2c7e	outsb  	dx, byte ptr [esi]
  0x2c7f	jns    	0x2cc2
  === BLOCK LINK ===
    0x2c81
=== CODE BLOCK END ===

=== CODE BLOCK ADDRESS 0x2c81 ===
  0x2c81	je     	0x2cf7
  === BLOCK LINK ===
    0x2c83
=== CODE BLOCK END ===

=== CODE BLOCK ADDRESS 0x2c83 ===
  0x2c83	jb     	0x2cee
  === BLOCK LINK ===
    0x2c85
=== CODE BLOCK END ===

=== CODE BLOCK ADDRESS 0x2c85 ===
  0x2c85	bound  	esi, qword ptr [ebp + 0x74]
  0x2c88	add    	byte ptr gs:[ecx + 0x73], al
  0x2c8c	jae    	0x2cf3
  === BLOCK LINK ===
    0x2c8e
=== CODE BLOCK END ===

=== CODE BLOCK ADDRESS 0x2c8e ===
  0x2c8e	insd   	dword ptr es:[edi], dx
  0x2c8f	bound  	ebp, qword ptr [ecx + edi*2 + 0x43]
  0x2c93	outsd  	dx, dword ptr [esi]
  0x2c94	jo     	0x2d0f
  === BLOCK LINK ===
    0x2c96
=== CODE BLOCK END ===

=== CODE BLOCK ADDRESS 0x2c96 ===
  0x2c96	jb     	0x2d01
  === BLOCK LINK ===
    0x2c98
=== CODE BLOCK END ===

=== CODE BLOCK ADDRESS 0x2c98 ===
  0x2c98	push   	0x74744174
  0x2c9e	jb     	0x2d09
  === BLOCK LINK ===
    0x2ca0
=== CODE BLOCK END ===

=== CODE BLOCK ADDRESS 0x2ca0 ===
  0x2ca0	bound  	esi, qword ptr [ebp + 0x74]
  0x2ca3	add    	byte ptr gs:[ecx + 0x73], al
  0x2ca7	jae    	0x2d0e
  === BLOCK LINK ===
    0x2ca9
=== CODE BLOCK END ===

=== CODE BLOCK ADDRESS 0x2ca9 ===
  0x2ca9	insd   	dword ptr es:[edi], dx
  0x2caa	bound  	ebp, qword ptr [ecx + edi*2 + 0x50]
  0x2cae	jb     	0x2d1f
  === BLOCK LINK ===
    0x2cb0
=== CODE BLOCK END ===

=== CODE BLOCK ADDRESS 0x2cb0 ===
  0x2cb0	jne    	0x2d16
  === BLOCK LINK ===
    0x2cb3
=== CODE BLOCK END ===

=== CODE BLOCK ADDRESS 0x2cb3 ===
  0x2cb3	je     	0x2cf6
  === BLOCK LINK ===
    0x2cb5
=== CODE BLOCK END ===

=== CODE BLOCK ADDRESS 0x2cb5 ===
  0x2cb5	je     	0x2d2b
  === BLOCK LINK ===
    0x2cb7
=== CODE BLOCK END ===

=== CODE BLOCK ADDRESS 0x2cb7 ===
  0x2cb7	jb     	0x2d22
  === BLOCK LINK ===
    0x2cb9
=== CODE BLOCK END ===

=== CODE BLOCK ADDRESS 0x2cb9 ===
  0x2cb9	bound  	esi, qword ptr [ebp + 0x74]
  0x2cbc	add    	byte ptr gs:[ecx + 0x73], al
  0x2cc0	jae    	0x2d27
  === BLOCK LINK ===
    0x2cc2
=== CODE BLOCK END ===

=== CODE BLOCK ADDRESS 0x2cc2 ===
  0x2cc2	insd   	dword ptr es:[edi], dx
  0x2cc3	bound  	ebp, qword ptr [ecx + edi*2 + 0x56]
  0x2cc7	jb     	0x2d3d
  === BLOCK LINK ===
    0x2cca
=== CODE BLOCK END ===

=== CODE BLOCK ADDRESS 0x2cca ===
  0x2cca	imul   	ebp, dword ptr [edi + 0x6e], 0x72747441
  0x2cd1	imul   	esp, dword ptr [edx + 0x75], 0x53006574
  0x2cd8	jns    	0x2d4d
  === BLOCK LINK ===
    0x2cda
=== CODE BLOCK END ===

=== CODE BLOCK ADDRESS 0x2cda ===
  0x2cda	je     	0x2d41
  === BLOCK LINK ===
    0x2cdc
=== CODE BLOCK END ===

=== CODE BLOCK ADDRESS 0x2cdc ===
  0x2cdc	insd   	dword ptr es:[edi], dx
  0x2cdd	push   	edx
  0x2cdf	jne    	0x2d4f
  === BLOCK LINK ===
    0x2ce1
=== CODE BLOCK END ===

=== CODE BLOCK ADDRESS 0x2ce1 ===
  0x2ce1	je     	0x2d4c
  === BLOCK LINK ===
    0x2ce3
=== CODE BLOCK END ===

=== CODE BLOCK ADDRESS 0x2ce3 ===
  0x2ce3	insd   	dword ptr es:[edi], dx
  0x2ce4	dec    	ecx
  0x2ce7	outsb  	dx, byte ptr [esi]
  0x2ce8	je     	0x2d4f
  === BLOCK LINK ===
    0x2cea
=== CODE BLOCK END ===

=== CODE BLOCK ADDRESS 0x2cea ===
  0x2cea	jb     	0x2d5b
  === BLOCK LINK ===
    0x2cec
=== CODE BLOCK END ===

=== CODE BLOCK ADDRESS 0x2cec ===
  0x2cec	jo     	0x2d41
  === BLOCK LINK ===
    0x2cee
=== CODE BLOCK END ===

=== CODE BLOCK ADDRESS 0x2cee ===
  0x2cee	jb     	0x2d67
  === BLOCK LINK ===
    0x2cf1
=== CODE BLOCK END ===

=== CODE BLOCK ADDRESS 0x2cf1 ===
  0x2cf1	imul   	esp, dword ptr [ebx + 0x65], 0x6f430073
  0x2cf8	insd   	dword ptr es:[edi], dx
  0x2cf9	push   	esi
  0x2cfa	imul   	esi, dword ptr [ebx + 0x69], 0x41656c62
  0x2d01	je     	0x2d77
  === BLOCK LINK ===
    0x2d03
=== CODE BLOCK END ===

=== CODE BLOCK ADDRESS 0x2d03 ===
  0x2d03	jb     	0x2d6e
  === BLOCK LINK ===
    0x2d05
=== CODE BLOCK END ===

=== CODE BLOCK ADDRESS 0x2d05 ===
  0x2d05	bound  	esi, qword ptr [ebp + 0x74]
  0x2d08	add    	byte ptr gs:[ebx + 0x4c], al
  0x2d0c	push   	ebx
  0x2d0d	inc    	ebx
  0x2d0e	outsd  	dx, dword ptr [esi]
  === BLOCK LINK ===
    0x2d0f
=== CODE BLOCK END ===

=== CODE BLOCK ADDRESS 0x2d0f ===
  0x2d0f	insd   	dword ptr es:[edi], dx
  0x2d10	jo     	0x2d7e
  === BLOCK LINK ===
    0x2d12
=== CODE BLOCK END ===

=== CODE BLOCK ADDRESS 0x2d12 ===
  0x2d12	imul   	esp, dword ptr [ecx + 0x6e], 0x74744174
  0x2d19	jb     	0x2d84
  === BLOCK LINK ===
    0x2d1b
=== CODE BLOCK END ===

=== CODE BLOCK ADDRESS 0x2d1b ===
  0x2d1b	bound  	esi, qword ptr [ebp + 0x74]
  0x2d1e	add    	byte ptr gs:[ebx + 0x79], dl
  0x2d22	jae    	0x2d98
  === BLOCK LINK ===
    0x2d24
=== CODE BLOCK END ===

=== CODE BLOCK ADDRESS 0x2d24 ===
  0x2d24	insd   	dword ptr es:[edi], dx
  0x2d26	push   	ebx
  0x2d28	arpl   	word ptr gs:[ebp + 0x72], si
  0x2d2c	imul   	esi, dword ptr [ecx + edi*2 + 0x2e], 0x6d726550
  0x2d34	imul   	esi, dword ptr [ebx + 0x73], 0x736e6f69
  === BLOCK LINK ===
    0x2d3b
=== CODE BLOCK END ===

=== CODE BLOCK ADDRESS 0x2d3b ===
  0x2d3b	add    	byte ptr [ebx + 0x65], dl
  0x2d3e	arpl   	word ptr [ebp + 0x72], si
  0x2d41	imul   	esi, dword ptr [ecx + edi*2 + 0x50], 0x696d7265
  0x2d49	jae    	0x2dbe
  === BLOCK LINK ===
    0x2d4b
=== CODE BLOCK END ===

=== CODE BLOCK ADDRESS 0x2d4b ===
  0x2d4b	imul   	ebp, dword ptr [edi + 0x6e], 0x72747441
  0x2d52	imul   	esp, dword ptr [edx + 0x75], 0x53006574
  0x2d59	arpl   	word ptr gs:[ebp + 0x72], si
  0x2d5d	imul   	esi, dword ptr [ecx + edi*2 + 0x41], 0x6f697463
  0x2d65	outsb  	dx, byte ptr [esi]
  === BLOCK LINK ===
    0x2d66
=== CODE BLOCK END ===

=== CODE BLOCK ADDRESS 0x2d66 ===
  0x2d66	add    	byte ptr [ebx + 0x79], dl
  0x2d69	jae    	0x2ddf
  === BLOCK LINK ===
    0x2d6b
=== CODE BLOCK END ===

=== CODE BLOCK ADDRESS 0x2d6b ===
  0x2d6b	insd   	dword ptr es:[edi], dx
  0x2d6d	inc    	esp
  0x2d6f	imul   	esp, dword ptr [ecx + 0x67], 0x74736f6e
  0x2d76	imul   	esp, dword ptr [ebx + 0x73], 0x62654400
  0x2d7d	jne    	0x2de6
  === BLOCK LINK ===
    0x2d7f
=== CODE BLOCK END ===

=== CODE BLOCK ADDRESS 0x2d7f ===
  0x2d7f	popal  	
  0x2d81	bound  	ebp, qword ptr [ebp + 0x41]
  0x2d85	je     	0x2dfb
  === BLOCK LINK ===
    0x2d87
=== CODE BLOCK END ===

=== CODE BLOCK ADDRESS 0x2d87 ===
  0x2d87	jb     	0x2df2
  === BLOCK LINK ===
    0x2d89
=== CODE BLOCK END ===

=== CODE BLOCK ADDRESS 0x2d89 ===
  0x2d89	bound  	esi, qword ptr [ebp + 0x74]
  0x2d8c	add    	byte ptr gs:[ebp + 0x62], al
  0x2d91	jne    	0x2dfa
  === BLOCK LINK ===
    0x2d93
=== CODE BLOCK END ===

=== CODE BLOCK ADDRESS 0x2d93 ===
  0x2d93	imul   	ebp, dword ptr [bp + 0x67], 0x65646f4d
  0x2d9b	jae    	0x2d9d
  === BLOCK LINK ===
    0x2d9d
=== CODE BLOCK END ===

=== CODE BLOCK ADDRESS 0x2d9d ===
  0x2d9d	push   	ebx
  0x2d9e	jns    	0x2e13
  === BLOCK LINK ===
    0x2da0
=== CODE BLOCK END ===

=== CODE BLOCK ADDRESS 0x2da0 ===
  0x2da0	je     	0x2e07
  === BLOCK LINK ===
    0x2da2
=== CODE BLOCK END ===

=== CODE BLOCK ADDRESS 0x2da2 ===
  0x2da2	insd   	dword ptr es:[edi], dx
  0x2da3	push   	edx
  0x2da5	jne    	0x2e15
  === BLOCK LINK ===
    0x2da7
=== CODE BLOCK END ===

=== CODE BLOCK ADDRESS 0x2da7 ===
  0x2da7	je     	0x2e12
  === BLOCK LINK ===
    0x2da9
=== CODE BLOCK END ===

=== CODE BLOCK ADDRESS 0x2da9 ===
  0x2da9	insd   	dword ptr es:[edi], dx
  0x2daa	inc    	ebx
  0x2dad	outsd  	dx, dword ptr [esi]
  0x2dae	insd   	dword ptr es:[edi], dx
  0x2daf	jo     	0x2e1a
  === BLOCK LINK ===
    0x2db1
=== CODE BLOCK END ===

=== CODE BLOCK ADDRESS 0x2db1 ===
  0x2db1	insb   	byte ptr es:[edi], dx
  0x2db2	jb     	0x2e08
  === BLOCK LINK ===
    0x2db5
=== CODE BLOCK END ===

=== CODE BLOCK ADDRESS 0x2db5 ===
  0x2db5	jb     	0x2e2e
  === BLOCK LINK ===
    0x2db8
=== CODE BLOCK END ===

=== CODE BLOCK ADDRESS 0x2db8 ===
  0x2db8	imul   	esp, dword ptr [ebx + 0x65], 0x6f430073
  0x2dbf	insd   	dword ptr es:[edi], dx
  0x2dc0	jo     	0x2e2b
  === BLOCK LINK ===
    0x2dc2
=== CODE BLOCK END ===

=== CODE BLOCK ADDRESS 0x2dc2 ===
  0x2dc2	insb   	byte ptr es:[edi], dx
  0x2dc3	popal  	
  0x2dc4	je     	0x2e2f
  === BLOCK LINK ===
    0x2dc6
=== CODE BLOCK END ===

=== CODE BLOCK ADDRESS 0x2dc6 ===
  0x2dc6	outsd  	dx, dword ptr [esi]
  0x2dc7	outsb  	dx, byte ptr [esi]
  0x2dc8	push   	edx
  0x2dc9	insb   	byte ptr es:[edi], dx
  0x2dcb	popal  	
  === BLOCK LINK ===
    0x2dcc
=== CODE BLOCK END ===

=== CODE BLOCK ADDRESS 0x2dcc ===
  0x2dcc	js     	0x2e2f
  === BLOCK LINK ===
    0x2dce
=== CODE BLOCK END ===

=== CODE BLOCK ADDRESS 0x2dce ===
  0x2dce	je     	0x2e39
  === BLOCK LINK ===
    0x2dd0
=== CODE BLOCK END ===

=== CODE BLOCK ADDRESS 0x2dd0 ===
  0x2dd0	outsd  	dx, dword ptr [esi]
  0x2dd1	outsb  	dx, byte ptr [esi]
  0x2dd2	jae    	0x2e15
  === BLOCK LINK ===
    0x2dd4
=== CODE BLOCK END ===

=== CODE BLOCK ADDRESS 0x2dd4 ===
  0x2dd4	je     	0x2e4a
  === BLOCK LINK ===
    0x2dd6
=== CODE BLOCK END ===

=== CODE BLOCK ADDRESS 0x2dd6 ===
  0x2dd6	jb     	0x2e41
  === BLOCK LINK ===
    0x2dd8
=== CODE BLOCK END ===

=== CODE BLOCK ADDRESS 0x2dd8 ===
  0x2dd8	bound  	esi, qword ptr [ebp + 0x74]
  0x2ddb	add    	byte ptr gs:[edx + 0x75], dl
  0x2ddf	outsb  	dx, byte ptr [esi]
  0x2de0	je     	0x2e4b
  === BLOCK LINK ===
    0x2de2
=== CODE BLOCK END ===

=== CODE BLOCK ADDRESS 0x2de2 ===
  0x2de2	insd   	dword ptr es:[edi], dx
  0x2de3	inc    	ebx
  0x2de5	outsd  	dx, dword ptr [esi]
  0x2de6	insd   	dword ptr es:[edi], dx
  0x2de7	jo     	0x2e4a
  === BLOCK LINK ===
    0x2de9
=== CODE BLOCK END ===

=== CODE BLOCK ADDRESS 0x2de9 ===
  0x2de9	je     	0x2e54
  === BLOCK LINK ===
    0x2deb
=== CODE BLOCK END ===

=== CODE BLOCK ADDRESS 0x2deb ===
  0x2deb	bound  	ebp, qword ptr [ecx + 0x6c]
  0x2dee	imul   	esi, dword ptr [ecx + edi*2 + 0x41], 0x69727474
  0x2df6	bound  	esi, qword ptr [ebp + 0x74]
  0x2df9	add    	byte ptr gs:[ebx + esi*2 + 0x57], dl
  0x2dfe	jo     	0x2e66
  === BLOCK LINK ===
    0x2e00
=== CODE BLOCK END ===

=== CODE BLOCK ADDRESS 0x2e00 ===
  0x2e00	push   	edi
  0x2e01	jb     	0x2e73
  === BLOCK LINK ===
    0x2e03
=== CODE BLOCK END ===

=== CODE BLOCK ADDRESS 0x2e03 ===
  0x2e03	add    	byte ptr [ebx + 0x54], dl
  0x2e06	inc    	ecx
  0x2e07	push   	esp
  0x2e08	push   	0x64616572
  0x2e0d	inc    	ecx
  === BLOCK LINK ===
    0x2e0e
=== CODE BLOCK END ===

=== CODE BLOCK ADDRESS 0x2e0e ===
  0x2e0e	je     	0x2e84
  === BLOCK LINK ===
    0x2e10
=== CODE BLOCK END ===

=== CODE BLOCK ADDRESS 0x2e10 ===
  0x2e10	jb     	0x2e7b
  === BLOCK LINK ===
    0x2e12
=== CODE BLOCK END ===

=== CODE BLOCK ADDRESS 0x2e12 ===
  0x2e12	bound  	esi, qword ptr [ebp + 0x74]
  0x2e15	add    	byte ptr gs:[ecx + 0x72], ah
  0x2e19	jae    	0x2e1c
  === BLOCK LINK ===
    0x2e1c
=== CODE BLOCK END ===

=== CODE BLOCK ADDRESS 0x2e1c ===
  0x2e1c	push   	ebx
  0x2e1d	je     	0x2e91
  === BLOCK LINK ===
    0x2e1f
=== CODE BLOCK END ===

=== CODE BLOCK ADDRESS 0x2e1f ===
  0x2e1f	imul   	ebp, dword ptr [esi + 0x67], 0x5f706f00
  0x2e26	inc    	ebp
  0x2e27	jno    	0x2e9e
  === BLOCK LINK ===
    0x2e29
=== CODE BLOCK END ===

=== CODE BLOCK ADDRESS 0x2e29 ===
  0x2e29	popal  	
  0x2e2a	insb   	byte ptr es:[edi], dx
  0x2e2b	imul   	esi, dword ptr [ecx + edi*2], 0x736e6f43
  0x2e33	outsd  	dx, dword ptr [esi]
  0x2e34	insb   	byte ptr es:[edi], dx
  === BLOCK LINK ===
    0x2e35
=== CODE BLOCK END ===

=== CODE BLOCK ADDRESS 0x2e35 ===
  0x2e35	add    	byte ptr gs:[edi + 0x72], dl
  0x2e39	imul   	esi, dword ptr [ebp + 0x4c], 0x656e69
  0x2e41	inc    	ebx
  0x2e42	outsd  	dx, dword ptr [esi]
  0x2e43	outsb  	dx, byte ptr [esi]
  === BLOCK LINK ===
    0x2e44
=== CODE BLOCK END ===

=== CODE BLOCK ADDRESS 0x2e44 ===
  0x2e44	arpl   	word ptr [ecx + 0x74], sp
  0x2e47	add    	byte ptr [ebx + 0x79], dl
  0x2e4a	jae    	0x2ec0
  === BLOCK LINK ===
    0x2e4c
=== CODE BLOCK END ===

=== CODE BLOCK ADDRESS 0x2e4c ===
  0x2e4c	insd   	dword ptr es:[edi], dx
  0x2e4e	dec    	ecx
  0x2e50	dec    	edi
  0x2e51	add    	byte ptr [esi + 0x69], al
  0x2e54	insb   	byte ptr es:[edi], dx
  === BLOCK LINK ===
    0x2e55
=== CODE BLOCK END ===

=== CODE BLOCK ADDRESS 0x2e55 ===
  0x2e55	add    	byte ptr gs:[ebp + 0x6c], al
  0x2e5a	je     	0x2ec2
  === BLOCK LINK ===
    0x2e5d
=== CODE BLOCK END ===

=== CODE BLOCK ADDRESS 0x2e5d ===
  0x2e5d	add    	byte ptr [ebp + 0x78], al
  0x2e60	arpl   	word ptr [ebp + 0x70], sp
  0x2e63	je     	0x2ece
  === BLOCK LINK ===
    0x2e65
=== CODE BLOCK END ===

=== CODE BLOCK ADDRESS 0x2e65 ===
  0x2e65	outsd  	dx, dword ptr [esi]
  0x2e66	outsb  	dx, byte ptr [esi]
  0x2e67	add    	byte ptr [ebp + 0x79], ch
  0x2e6a	push   	eax
  0x2e6b	jb     	0x2ed6
  === BLOCK LINK ===
    0x2e6d
=== CODE BLOCK END ===

=== CODE BLOCK ADDRESS 0x2e6d ===
  0x2e6d	outsb  	dx, byte ptr [esi]
  0x2e6e	je     	0x2ed5
  === BLOCK LINK ===
    0x2e70
=== CODE BLOCK END ===

=== CODE BLOCK ADDRESS 0x2e70 ===
  0x2e70	jb     	0x2e72
  === BLOCK LINK ===
    0x2e72
=== CODE BLOCK END ===

=== CODE BLOCK ADDRESS 0x2e72 ===
  0x2e72	imul   	ebp, dword ptr [esi + 0x74], 0x63617265
  0x2e79	je     	0x2ee4
  === BLOCK LINK ===
    0x2e7b
=== CODE BLOCK END ===

=== CODE BLOCK ADDRESS 0x2e7b ===
  0x2e7b	jbe    	0x2ee2
  === BLOCK LINK ===
    0x2e7d
=== CODE BLOCK END ===

=== CODE BLOCK ADDRESS 0x2e7d ===
  0x2e7d	dec    	ebp
  0x2e7e	outsd  	dx, dword ptr [esi]
  0x2e7f	add    	byte ptr gs:[ecx + 0x74], al
  0x2e85	push   	esp
  0x2e87	imul   	ebp, dword ptr [ebp + 0x65], 0x6e694d00
  === BLOCK LINK ===
    0x2e8e
=== CODE BLOCK END ===

=== CODE BLOCK ADDRESS 0x2e8e ===
  0x2e8e	push   	esi
  0x2e8f	popal  	
  0x2e90	insb   	byte ptr es:[edi], dx
  0x2e91	jne    	0x2ef8
  === BLOCK LINK ===
    0x2e93
=== CODE BLOCK END ===

=== CODE BLOCK ADDRESS 0x2e93 ===
  0x2e93	add    	byte ptr [eax + 0x72], dl
  0x2e96	imul   	ebp, dword ptr [esi + 0x74], 0x49626f4a
  0x2e9d	outsb  	dx, byte ptr [esi]
  0x2e9e	outsw  	dx, word ptr [esi]
  0x2ea0	inc    	ebx
  === BLOCK LINK ===
    0x2ea1
=== CODE BLOCK END ===

=== CODE BLOCK ADDRESS 0x2ea1 ===
  0x2ea1	outsd  	dx, dword ptr [esi]
  0x2ea2	insb   	byte ptr es:[edi], dx
  0x2ea3	insb   	byte ptr es:[edi], dx
  0x2ea4	arpl   	word ptr gs:[ecx + ebp*2 + 0x6f], si
  0x2ea9	outsb  	dx, byte ptr [esi]
  === BLOCK LINK ===
    0x2eaa
=== CODE BLOCK END ===

=== CODE BLOCK ADDRESS 0x2eaa ===
  0x2eaa	add    	byte ptr [edi + 0x65], al
  0x2ead	je     	0x2eff
  === BLOCK LINK ===
    0x2eaf
=== CODE BLOCK END ===

=== CODE BLOCK ADDRESS 0x2eaf ===
  0x2eaf	jb     	0x2f1a
  === BLOCK LINK ===
    0x2eb1
=== CODE BLOCK END ===

=== CODE BLOCK ADDRESS 0x2eb1 ===
  0x2eb1	outsb  	dx, byte ptr [esi]
  0x2eb2	je     	0x2efe
  === BLOCK LINK ===
    0x2eb4
=== CODE BLOCK END ===

=== CODE BLOCK ADDRESS 0x2eb4 ===
  0x2eb4	outsd  	dx, dword ptr [esi]
  0x2eb5	bound  	ecx, qword ptr [ecx + 0x6e]
  0x2eb8	outsw  	dx, word ptr [esi]
  0x2eba	inc    	ebx
  0x2ebb	outsd  	dx, dword ptr [esi]
  === BLOCK LINK ===
    0x2ebc
=== CODE BLOCK END ===

=== CODE BLOCK ADDRESS 0x2ebc ===
  0x2ebc	insb   	byte ptr es:[edi], dx
  0x2ebd	insb   	byte ptr es:[edi], dx
  0x2ebe	arpl   	word ptr gs:[ecx + ebp*2 + 0x6f], si
  0x2ec3	outsb  	dx, byte ptr [esi]
  0x2ec4	add    	byte ptr [ebx + 0x79], dl
  === BLOCK LINK ===
    0x2ec7
=== CODE BLOCK END ===

=== CODE BLOCK ADDRESS 0x2ec7 ===
  0x2ec7	jae    	0x2f3d
  === BLOCK LINK ===
    0x2ec9
=== CODE BLOCK END ===

=== CODE BLOCK ADDRESS 0x2ec9 ===
  0x2ec9	insd   	dword ptr es:[edi], dx
  0x2ecb	inc    	ebx
  0x2ecd	outsd  	dx, dword ptr [esi]
  0x2ece	insb   	byte ptr es:[edi], dx
  0x2ecf	insb   	byte ptr es:[edi], dx
  === BLOCK LINK ===
    0x2ed0
=== CODE BLOCK END ===

=== CODE BLOCK ADDRESS 0x2ed0 ===
  0x2ed0	arpl   	word ptr gs:[ecx + ebp*2 + 0x6f], si
  0x2ed5	outsb  	dx, byte ptr [esi]
  0x2ed6	jae    	0x2f06
  === BLOCK LINK ===
    0x2ed8
=== CODE BLOCK END ===

=== CODE BLOCK ADDRESS 0x2ed8 ===
  0x2ed8	inc    	edi
  0x2ed9	outsb  	dx, byte ptr gs:[esi]
  0x2edb	jb     	0x2f47
  === BLOCK LINK ===
    0x2ede
=== CODE BLOCK END ===

=== CODE BLOCK ADDRESS 0x2ede ===
  0x2ede	arpl   	word ptr [eax], ax
  0x2ee0	dec    	ecx
  0x2ee1	inc    	ebp
  0x2ee2	outsb  	dx, byte ptr [esi]
  0x2ee3	jne    	0x2f52
  === BLOCK LINK ===
    0x2ee5
=== CODE BLOCK END ===

=== CODE BLOCK ADDRESS 0x2ee5 ===
  0x2ee5	jb     	0x2f49
  === BLOCK LINK ===
    0x2ee8
=== CODE BLOCK END ===

=== CODE BLOCK ADDRESS 0x2ee8 ===
  0x2ee8	je     	0x2f59
  === BLOCK LINK ===
    0x2eea
=== CODE BLOCK END ===

=== CODE BLOCK ADDRESS 0x2eea ===
  0x2eea	jb     	0x2f4c
  === BLOCK LINK ===
    0x2eec
=== CODE BLOCK END ===

=== CODE BLOCK ADDRESS 0x2eec ===
  0x2eec	xor    	dword ptr [eax], eax
  0x2eee	push   	eax
  0x2eef	jb     	0x2f5a
  === BLOCK LINK ===
    0x2ef1
=== CODE BLOCK END ===

=== CODE BLOCK ADDRESS 0x2ef1 ===
  0x2ef1	outsb  	dx, byte ptr [esi]
  0x2ef2	je     	0x2f47
  === BLOCK LINK ===
    0x2ef4
=== CODE BLOCK END ===

=== CODE BLOCK ADDRESS 0x2ef4 ===
  0x2ef4	jns    	0x2f69
  === BLOCK LINK ===
    0x2ef6
=== CODE BLOCK END ===

=== CODE BLOCK ADDRESS 0x2ef6 ===
  0x2ef6	je     	0x2f5d
  === BLOCK LINK ===
    0x2ef8
=== CODE BLOCK END ===

=== CODE BLOCK ADDRESS 0x2ef8 ===
  0x2ef8	insd   	dword ptr es:[edi], dx
  0x2ef9	dec    	edx
  0x2efa	outsd  	dx, dword ptr [esi]
  0x2efb	bound  	ecx, qword ptr [ecx + 0x6e]
  0x2efe	outsw  	dx, word ptr [esi]
  === BLOCK LINK ===
    0x2f00
=== CODE BLOCK END ===

=== CODE BLOCK ADDRESS 0x2f00 ===
  0x2f00	add    	byte ptr [edi + 0x65], al
  0x2f03	je     	0x2f4a
  === BLOCK LINK ===
    0x2f05
=== CODE BLOCK END ===

=== CODE BLOCK ADDRESS 0x2f05 ===
  0x2f05	outsb  	dx, byte ptr [esi]
  0x2f06	jne    	0x2f75
  === BLOCK LINK ===
    0x2f08
=== CODE BLOCK END ===

=== CODE BLOCK ADDRESS 0x2f08 ===
  0x2f08	jb     	0x2f6c
  === BLOCK LINK ===
    0x2f0b
=== CODE BLOCK END ===

=== CODE BLOCK ADDRESS 0x2f0b ===
  0x2f0b	je     	0x2f7c
  === BLOCK LINK ===
    0x2f0d
=== CODE BLOCK END ===

=== CODE BLOCK ADDRESS 0x2f0d ===
  0x2f0d	jb     	0x2f0f
  === BLOCK LINK ===
    0x2f0f
=== CODE BLOCK END ===

=== CODE BLOCK ADDRESS 0x2f0f ===
  0x2f0f	je     	0x2f72
  === BLOCK LINK ===
    0x2f13
=== CODE BLOCK END ===

=== CODE BLOCK ADDRESS 0x2f13 ===
  0x2f13	inc    	ebx
  0x2f14	jne    	0x2f88
  === BLOCK LINK ===
    0x2f16
=== CODE BLOCK END ===

=== CODE BLOCK ADDRESS 0x2f16 ===
  0x2f16	jb     	0x2f7d
  === BLOCK LINK ===
    0x2f18
=== CODE BLOCK END ===

=== CODE BLOCK ADDRESS 0x2f18 ===
  0x2f18	outsb  	dx, byte ptr [esi]
  0x2f19	je     	0x2f1b
  === BLOCK LINK ===
    0x2f1b
=== CODE BLOCK END ===

=== CODE BLOCK ADDRESS 0x2f1b ===
  0x2f1b	je     	0x2f7e
  === BLOCK LINK ===
    0x2f1f
=== CODE BLOCK END ===

=== CODE BLOCK ADDRESS 0x2f1f ===
  0x2f1f	push   	esp
  0x2f20	imul   	ebp, dword ptr [ebp + 0x65], 0x53626f4a
  0x2f27	jne    	0x2f8b
  === BLOCK LINK ===
    0x2f29
=== CODE BLOCK END ===

=== CODE BLOCK ADDRESS 0x2f29 ===
  0x2f29	insd   	dword ptr es:[edi], dx
  0x2f2a	imul   	esi, dword ptr [esp + esi*2 + 0x65], 0x706f0064
  0x2f32	pop    	edi
  0x2f33	dec    	esp
  0x2f34	jae    	0x2faa
  === BLOCK LINK ===
    0x2f37
=== CODE BLOCK END ===

=== CODE BLOCK ADDRESS 0x2f37 ===
  0x2f37	push   	esp
  0x2f38	push   	0x53006e61
  0x2f3d	jns    	0x2fb2
  === BLOCK LINK ===
    0x2f3f
=== CODE BLOCK END ===

=== CODE BLOCK ADDRESS 0x2f3f ===
  0x2f3f	je     	0x2fa6
  === BLOCK LINK ===
    0x2f41
=== CODE BLOCK END ===

=== CODE BLOCK ADDRESS 0x2f41 ===
  0x2f41	insd   	dword ptr es:[edi], dx
  0x2f42	inc    	ebx
  0x2f44	outsd  	dx, dword ptr [esi]
  0x2f45	insb   	byte ptr es:[edi], dx
  0x2f46	insb   	byte ptr es:[edi], dx
  === BLOCK LINK ===
    0x2f47
=== CODE BLOCK END ===

=== CODE BLOCK ADDRESS 0x2f47 ===
  0x2f47	arpl   	word ptr gs:[ecx + ebp*2 + 0x6f], si
  0x2f4c	outsb  	dx, byte ptr [esi]
  0x2f4d	jae    	0x2f4f
  === BLOCK LINK ===
    0x2f4f
=== CODE BLOCK END ===

=== CODE BLOCK ADDRESS 0x2f4f ===
  0x2f4f	dec    	ecx
  0x2f50	inc    	ebp
  0x2f51	outsb  	dx, byte ptr [esi]
  0x2f52	jne    	0x2fc1
  === BLOCK LINK ===
    0x2f54
=== CODE BLOCK END ===

=== CODE BLOCK ADDRESS 0x2f54 ===
  0x2f54	jb     	0x2fb8
  === BLOCK LINK ===
    0x2f57
=== CODE BLOCK END ===

=== CODE BLOCK ADDRESS 0x2f57 ===
  0x2f57	je     	0x2fc8
  === BLOCK LINK ===
    0x2f59
=== CODE BLOCK END ===

=== CODE BLOCK ADDRESS 0x2f59 ===
  0x2f59	jb     	0x2f5b
  === BLOCK LINK ===
    0x2f5b
=== CODE BLOCK END ===

=== CODE BLOCK ADDRESS 0x2f5b ===
  0x2f5b	dec    	ebp
  0x2f5c	outsd  	dx, dword ptr [esi]
  0x2f5d	jbe    	0x2fc4
  === BLOCK LINK ===
    0x2f5f
=== CODE BLOCK END ===

=== CODE BLOCK ADDRESS 0x2f5f ===
  0x2f5f	dec    	esi
  0x2f60	js     	0x2fd7
  === BLOCK LINK ===
    0x2f63
=== CODE BLOCK END ===

=== CODE BLOCK ADDRESS 0x2f63 ===
  0x2f63	add    	byte ptr [ecx + 0x44], cl
  0x2f66	imul   	esi, dword ptr [ebx + 0x70], 0x6261736f
  0x2f6d	insb   	byte ptr es:[edi], dx
  0x2f6e	add    	byte ptr gs:[ecx + ebp*2 + 0x73], al
  0x2f73	jo     	0x2fe4
  === BLOCK LINK ===
    0x2f75
=== CODE BLOCK END ===

=== CODE BLOCK ADDRESS 0x2f75 ===
  0x2f75	jae    	0x2fdc
  === BLOCK LINK ===
    0x2f77
=== CODE BLOCK END ===

=== CODE BLOCK ADDRESS 0x2f77 ===
  0x2f77	add    	byte ptr [eax + 0x72], dl
  0x2f7a	imul   	ebp, dword ptr [esi + 0x74], 0x74737953
  0x2f81	insd   	dword ptr es:[edi], dx
  0x2f83	dec    	edi
  0x2f84	bound  	ebp, qword ptr [edx + 0x65]
  === BLOCK LINK ===
    0x2f87
=== CODE BLOCK END ===

=== CODE BLOCK ADDRESS 0x2f87 ===
  0x2f87	arpl   	word ptr [eax + eax + 0x67], si
  0x2f8b	je     	0x2fed
  === BLOCK LINK ===
    0x2f8e
=== CODE BLOCK END ===

=== CODE BLOCK ADDRESS 0x2f8e ===
  0x2f8e	dec    	esi
  0x2f8f	popal  	
  0x2f90	insd   	dword ptr es:[edi], dx
  0x2f91	add    	byte ptr gs:[ecx + 0x6e], cl
  0x2f95	je     	0x2fca
  === BLOCK LINK ===
    0x2f97
=== CODE BLOCK END ===

=== CODE BLOCK ADDRESS 0x2f97 ===
  0x2f97	xor    	al, byte ptr [eax]
  0x2f99	dec    	ebp
  0x2f9a	imul   	esp, dword ptr [ebx + 0x72], 0x666f736f
  0x2fa1	je     	0x2fd1
  === BLOCK LINK ===
    0x2fa3
=== CODE BLOCK END ===

=== CODE BLOCK ADDRESS 0x2fa3 ===
  0x2fa3	push   	edi
  0x2fa4	imul   	ebp, dword ptr [esi + 0x33], 0x65520032
  0x2fab	imul   	esi, dword ptr [bp + di + 0x74], 0x47007972
  0x2fb3	je     	0x300c
  === BLOCK LINK ===
    0x2fb6
=== CODE BLOCK END ===

=== CODE BLOCK ADDRESS 0x2fb6 ===
  0x2fb6	popal  	
  0x2fb7	insb   	byte ptr es:[edi], dx
  0x2fb8	jne    	0x301f
  === BLOCK LINK ===
    0x2fba
=== CODE BLOCK END ===

=== CODE BLOCK ADDRESS 0x2fba ===
  0x2fba	add    	byte ptr [ecx + ebp*2 + 0x6d], dl
  0x2fbe	push   	ebx
  0x2fc0	jo     	0x3023
  === BLOCK LINK ===
    0x2fc2
=== CODE BLOCK END ===

=== CODE BLOCK ADDRESS 0x2fc2 ===
  0x2fc2	outsb  	dx, byte ptr [esi]
  0x2fc3	add    	byte ptr [esi + 0x72], al
  0x2fc6	outsd  	dx, dword ptr [esi]
  0x2fc7	insd   	dword ptr es:[edi], dx
  0x2fc8	dec    	ebp
  === BLOCK LINK ===
    0x2fc9
=== CODE BLOCK END ===

=== CODE BLOCK ADDRESS 0x2fc9 ===
  0x2fc9	imul   	ebp, dword ptr [esi + 0x75], 0x736574
  0x2fd0	push   	esp
  0x2fd1	outsd  	dx, dword ptr [esi]
  0x2fd2	push   	ebx
  0x2fd3	je     	0x3047
  === BLOCK LINK ===
    0x2fd5
=== CODE BLOCK END ===

=== CODE BLOCK ADDRESS 0x2fd5 ===
  0x2fd5	imul   	ebp, dword ptr [esi + 0x67], 0x74656700
  0x2fdc	pop    	edi
  0x2fdd	dec    	esi
  0x2fde	outsd  	dx, dword ptr [esi]
  0x2fdf	ja     	0x2fe1
  === BLOCK LINK ===
    0x2fe1
=== CODE BLOCK END ===

=== CODE BLOCK ADDRESS 0x2fe1 ===
  0x2fe1	push   	ebx
  0x2fe2	jns    	0x3057
  === BLOCK LINK ===
    0x2fe4
=== CODE BLOCK END ===

=== CODE BLOCK ADDRESS 0x2fe4 ===
  0x2fe4	je     	0x304b
  === BLOCK LINK ===
    0x2fe6
=== CODE BLOCK END ===

=== CODE BLOCK ADDRESS 0x2fe6 ===
  0x2fe6	insd   	dword ptr es:[edi], dx
  0x2fe7	push   	esp
  0x2fe9	push   	0x64616572
  0x2fee	imul   	ebp, dword ptr [esi + 0x67], 0x72685400
  0x2ff5	popal  	
  === BLOCK LINK ===
    0x2ff7
=== CODE BLOCK END ===

=== CODE BLOCK ADDRESS 0x2ff7 ===
  0x2ff7	add    	byte ptr fs:[ebx + 0x6c], dl
  0x2ffb	jo     	0x2fff
  === BLOCK LINK ===
    0x2fff
=== CODE BLOCK END ===

=== CODE BLOCK ADDRESS 0x2fff ===
  0x2fff	push   	edx
  0x3000	jb     	0x3069
  === BLOCK LINK ===
    0x3004
=== CODE BLOCK END ===

=== CODE BLOCK ADDRESS 0x3004 ===
  0x3004	jae    	0x306e
  === BLOCK LINK ===
    0x3006
=== CODE BLOCK END ===

=== CODE BLOCK ADDRESS 0x3006 ===
  0x3006	add    	byte ptr [edi + 0x65], ah
  0x3009	je     	0x306a
  === BLOCK LINK ===
    0x300b
=== CODE BLOCK END ===

=== CODE BLOCK ADDRESS 0x300b ===
  0x300b	dec    	ecx
  0x300c	jae    	0x305e
  === BLOCK LINK ===
    0x300e
=== CODE BLOCK END ===

=== CODE BLOCK ADDRESS 0x300e ===
  0x300e	jb     	0x3079
  === BLOCK LINK ===
    0x3010
=== CODE BLOCK END ===

=== CODE BLOCK ADDRESS 0x3010 ===
  0x3010	outsb  	dx, byte ptr [esi]
  0x3011	je     	0x3078
  === BLOCK LINK ===
    0x3013
=== CODE BLOCK END ===

=== CODE BLOCK ADDRESS 0x3013 ===
  0x3013	add    	byte ptr fs:[edi + 0x65], ah
  0x3017	je     	0x3078
  === BLOCK LINK ===
    0x3019
=== CODE BLOCK END ===

=== CODE BLOCK ADDRESS 0x3019 ===
  0x3019	dec    	ecx
  0x301a	jae    	0x3060
  === BLOCK LINK ===
    0x301c
=== CODE BLOCK END ===

=== CODE BLOCK ADDRESS 0x301c ===
  0x301c	insb   	byte ptr es:[edi], dx
  0x301e	je     	0x3086
  === BLOCK LINK ===
    0x3021
=== CODE BLOCK END ===

=== CODE BLOCK ADDRESS 0x3021 ===
  0x3021	add    	byte ptr fs:[edi + 0x70], ch
  0x3025	pop    	edi
  0x3026	push   	ebx
  0x3027	jne    	0x308b
  === BLOCK LINK ===
    0x3029
=== CODE BLOCK END ===

=== CODE BLOCK ADDRESS 0x3029 ===
  0x3029	je     	0x309d
  === BLOCK LINK ===
    0x302b
=== CODE BLOCK END ===

=== CODE BLOCK ADDRESS 0x302b ===
  0x302b	popal  	
  0x302c	arpl   	word ptr [ecx + ebp*2 + 0x6f], si
  0x3030	outsb  	dx, byte ptr [esi]
  0x3031	add    	byte ptr [ebx + 0x79], dl
  0x3034	jae    	0x30aa
  === BLOCK LINK ===
    0x3036
=== CODE BLOCK END ===

=== CODE BLOCK ADDRESS 0x3036 ===
  0x3036	insd   	dword ptr es:[edi], dx
  0x3038	push   	ebx
  0x303a	arpl   	word ptr gs:[ebp + 0x72], si
  0x303e	imul   	esi, dword ptr [ecx + edi*2], 0x75636553
  0x3046	jb     	0x30b1
  === BLOCK LINK ===
    0x3048
=== CODE BLOCK END ===

=== CODE BLOCK ADDRESS 0x3048 ===
  0x3048	je     	0x30c3
  === BLOCK LINK ===
    0x304a
=== CODE BLOCK END ===

=== CODE BLOCK ADDRESS 0x304a ===
  0x304a	inc    	ebp
  0x304b	js     	0x30b0
  === BLOCK LINK ===
    0x304d
=== CODE BLOCK END ===

=== CODE BLOCK ADDRESS 0x304d ===
  0x304d	jo     	0x30c4
  === BLOCK LINK ===
    0x3050
=== CODE BLOCK END ===

=== CODE BLOCK ADDRESS 0x3050 ===
  0x3050	imul   	ebp, dword ptr [edi + 0x6e], 0x69727000
  0x3057	outsb  	dx, byte ptr [esi]
  0x3058	je     	0x30ab
  === BLOCK LINK ===
    0x305a
=== CODE BLOCK END ===

=== CODE BLOCK ADDRESS 0x305a ===
  0x305a	jne    	0x30c1
  === BLOCK LINK ===
    0x305c
=== CODE BLOCK END ===

=== CODE BLOCK ADDRESS 0x305c ===
  0x305c	jne    	0x30c3
  === BLOCK LINK ===
    0x305e
=== CODE BLOCK END ===

=== CODE BLOCK ADDRESS 0x305e ===
  0x305e	dec    	esi
  0x305f	popal  	
  0x3060	insd   	dword ptr es:[edi], dx
  0x3061	add    	byte ptr gs:[eax + 0x70], bh
  0x3065	jae    	0x30ad
  === BLOCK LINK ===
    0x3067
=== CODE BLOCK END ===

=== CODE BLOCK ADDRESS 0x3067 ===
  0x3067	imul   	ebp, dword ptr [ebp + 0x4e], 0x656d61
  0x306f	push   	ebx
  0x3070	jns    	0x30e5
  === BLOCK LINK ===
    0x3072
=== CODE BLOCK END ===

=== CODE BLOCK ADDRESS 0x3072 ===
  0x3072	je     	0x30d9
  === BLOCK LINK ===
    0x3074
=== CODE BLOCK END ===

=== CODE BLOCK ADDRESS 0x3074 ===
  0x3074	insd   	dword ptr es:[edi], dx
  0x3075	push   	edi
  0x3077	imul   	ebp, dword ptr [esi + 0x64], 0x2e73776f
  0x307e	pop    	eax
  0x307f	jo     	0x30f4
  === BLOCK LINK ===
    0x3081
=== CODE BLOCK END ===

=== CODE BLOCK ADDRESS 0x3081 ===
  0x3081	add    	byte ptr [eax + 0x70], bl
  0x3084	jae    	0x30ca
  === BLOCK LINK ===
    0x3086
=== CODE BLOCK END ===

=== CODE BLOCK ADDRESS 0x3086 ===
  0x3086	outsd  	dx, dword ptr [esi]
  0x3087	arpl   	word ptr [ebp + 0x6d], si
  0x308a	outsb  	dx, byte ptr gs:[esi]
  0x308c	je     	0x30e5
  === BLOCK LINK ===
    0x308e
=== CODE BLOCK END ===

=== CODE BLOCK ADDRESS 0x308e ===
  0x308e	jb     	0x30f9
  === BLOCK LINK ===
    0x3090
=== CODE BLOCK END ===

=== CODE BLOCK ADDRESS 0x3090 ===
  0x3090	je     	0x30f7
  === BLOCK LINK ===
    0x3092
=== CODE BLOCK END ===

=== CODE BLOCK ADDRESS 0x3092 ===
  0x3092	jb     	0x3094
  === BLOCK LINK ===
    0x3094
=== CODE BLOCK END ===

=== CODE BLOCK ADDRESS 0x3094 ===
  0x3094	inc    	ebx
  0x3095	jb     	0x30fc
  === BLOCK LINK ===
    0x3097
=== CODE BLOCK END ===

=== CODE BLOCK ADDRESS 0x3097 ===
  0x3097	popal  	
  0x3098	je     	0x30ff
  === BLOCK LINK ===
    0x309a
=== CODE BLOCK END ===

=== CODE BLOCK ADDRESS 0x309a ===
  0x309a	pop    	eax
  0x309b	jo     	0x3110
  === BLOCK LINK ===
    0x309d
=== CODE BLOCK END ===

=== CODE BLOCK ADDRESS 0x309d ===
  0x309d	inc    	esp
  0x309e	outsd  	dx, dword ptr [esi]
  0x309f	arpl   	word ptr [ebp + 0x6d], si
  0x30a2	outsb  	dx, byte ptr gs:[esi]
  0x30a4	je     	0x30fd
  === BLOCK LINK ===
    0x30a6
=== CODE BLOCK END ===

=== CODE BLOCK ADDRESS 0x30a6 ===
  0x30a6	jb     	0x3111
  === BLOCK LINK ===
    0x30a8
=== CODE BLOCK END ===

=== CODE BLOCK ADDRESS 0x30a8 ===
  0x30a8	je     	0x310f
  === BLOCK LINK ===
    0x30aa
=== CODE BLOCK END ===

=== CODE BLOCK ADDRESS 0x30aa ===
  0x30aa	jb     	0x30ac
  === BLOCK LINK ===
    0x30ac
=== CODE BLOCK END ===

=== CODE BLOCK ADDRESS 0x30ac ===
  0x30ac	pop    	eax
  0x30ad	jo     	0x3122
  === BLOCK LINK ===
    0x30af
=== CODE BLOCK END ===

=== CODE BLOCK ADDRESS 0x30af ===
  0x30af	inc    	esp
  0x30b0	outsd  	dx, dword ptr [esi]
  0x30b1	arpl   	word ptr [ebp + 0x6d], si
  0x30b4	outsb  	dx, byte ptr gs:[esi]
  0x30b6	je     	0x3106
  === BLOCK LINK ===
    0x30b8
=== CODE BLOCK END ===

=== CODE BLOCK ADDRESS 0x30b8 ===
  0x30b8	outsd  	dx, dword ptr [esi]
  0x30b9	je     	0x3124
  === BLOCK LINK ===
    0x30bb
=== CODE BLOCK END ===

=== CODE BLOCK ADDRESS 0x30bb ===
  0x30bb	imul   	sp, word ptr [ebx + 0x61], 0x6974
  0x30c1	outsd  	dx, dword ptr [esi]
  0x30c2	outsb  	dx, byte ptr [esi]
  0x30c3	dec    	esp
  0x30c4	jbe    	0x312c
  === BLOCK LINK ===
    0x30c7
=== CODE BLOCK END ===

=== CODE BLOCK ADDRESS 0x30c7 ===
  0x30c7	insb   	byte ptr es:[edi], dx
  0x30c8	add    	byte ptr [edi + 0x72], dl
  0x30cb	imul   	esi, dword ptr [ebp], 0x6e697250
  0x30d3	je     	0x313a
  === BLOCK LINK ===
    0x30d5
=== CODE BLOCK END ===

=== CODE BLOCK ADDRESS 0x30d5 ===
  0x30d5	jb     	0x311d
  === BLOCK LINK ===
    0x30d7
=== CODE BLOCK END ===

=== CODE BLOCK ADDRESS 0x30d7 ===
  0x30d7	jne    	0x3145
  === BLOCK LINK ===
    0x30d9
=== CODE BLOCK END ===

=== CODE BLOCK ADDRESS 0x30d9 ===
  0x30d9	insb   	byte ptr es:[edi], dx
  0x30da	dec    	esi
  0x30db	popal  	
  0x30dc	insd   	dword ptr es:[edi], dx
  0x30dd	add    	byte ptr gs:[ebx + 0x74], dl
  === BLOCK LINK ===
    0x30e1
=== CODE BLOCK END ===

=== CODE BLOCK ADDRESS 0x30e1 ===
  0x30e1	jb     	0x314c
  === BLOCK LINK ===
    0x30e3
=== CODE BLOCK END ===

=== CODE BLOCK ADDRESS 0x30e3 ===
  0x30e3	outsb  	dx, byte ptr [esi]
  0x30e4	inc    	ebx
  0x30e6	outsd  	dx, dword ptr [esi]
  0x30e7	insd   	dword ptr es:[edi], dx
  0x30e8	jo     	0x314b
  === BLOCK LINK ===
    0x30ea
=== CODE BLOCK END ===

=== CODE BLOCK ADDRESS 0x30ea ===
  0x30ea	jb     	0x3155
  === BLOCK LINK ===
    0x30ec
=== CODE BLOCK END ===

=== CODE BLOCK ADDRESS 0x30ec ===
  0x30ec	jae    	0x315d
  === BLOCK LINK ===
    0x30ee
=== CODE BLOCK END ===

=== CODE BLOCK ADDRESS 0x30ee ===
  0x30ee	outsb  	dx, byte ptr [esi]
  0x30ef	add    	byte ptr [ebx + 0x74], dl
  0x30f2	popal  	
  0x30f3	jb     	0x3169
  === BLOCK LINK ===
    0x30f5
=== CODE BLOCK END ===

=== CODE BLOCK ADDRESS 0x30f5 ===
  0x30f5	jae    	0x314e
  === BLOCK LINK ===
    0x30f7
=== CODE BLOCK END ===

=== CODE BLOCK ADDRESS 0x30f7 ===
  0x30f7	imul   	esi, dword ptr [eax + ebp*2], 0x7473614c
  0x30ff	dec    	ecx
  0x3100	outsb  	dx, byte ptr [esi]
  0x3101	js     	0x3154
  === BLOCK LINK ===
    0x3105
=== CODE BLOCK END ===

=== CODE BLOCK ADDRESS 0x3105 ===
  0x3105	add    	byte ptr [ebx + 0x75], dl
  0x3109	bound  	esi, qword ptr [ebx + 0x74]
  0x310c	jb     	0x3177
  === BLOCK LINK ===
    0x310e
=== CODE BLOCK END ===

=== CODE BLOCK ADDRESS 0x310e ===
  0x310e	outsb  	dx, byte ptr [esi]
  0x310f	add    	byte ptr [bx + si + 0x72], dl
  0x3113	imul   	ebp, dword ptr [esi + 0x74], 0x76726553
  0x311a	jb     	0x311d
  === BLOCK LINK ===
    0x311d
=== CODE BLOCK END ===

=== CODE BLOCK ADDRESS 0x311d ===
  0x311d	dec    	esp
  0x311e	outsd  	dx, dword ptr [esi]
  0x311f	arpl   	word ptr [ecx + 0x6c], sp
  0x3122	push   	eax
  0x3123	jb     	0x318e
  === BLOCK LINK ===
    0x3125
=== CODE BLOCK END ===

=== CODE BLOCK ADDRESS 0x3125 ===
  0x3125	outsb  	dx, byte ptr [esi]
  0x3126	je     	0x317b
  === BLOCK LINK ===
    0x3128
=== CODE BLOCK END ===

=== CODE BLOCK ADDRESS 0x3128 ===
  0x3128	jb     	0x31a1
  === BLOCK LINK ===
    0x312b
=== CODE BLOCK END ===

=== CODE BLOCK ADDRESS 0x312b ===
  0x312b	jb     	0x312e
  === BLOCK LINK ===
    0x312e
=== CODE BLOCK END ===

=== CODE BLOCK ADDRESS 0x312e ===
  0x312e	push   	ebp
  0x312f	outsb  	dx, byte ptr [esi]
  0x3130	jbe    	0x3197
  === BLOCK LINK ===
    0x3132
=== CODE BLOCK END ===

=== CODE BLOCK ADDRESS 0x3132 ===
  0x3132	jb     	0x319d
  === BLOCK LINK ===
    0x3134
=== CODE BLOCK END ===

=== CODE BLOCK ADDRESS 0x3134 ===
  0x3134	imul   	sp, word ptr [ecx + 0x62], 0x656c
  0x313a	inc    	ebx
  0x313b	outsd  	dx, dword ptr [esi]
  0x313c	inc    	ecx
  0x313f	je     	0x31b5
  === BLOCK LINK ===
    0x3141
=== CODE BLOCK END ===

=== CODE BLOCK ADDRESS 0x3141 ===
  0x3141	jb     	0x31ac
  === BLOCK LINK ===
    0x3143
=== CODE BLOCK END ===

=== CODE BLOCK ADDRESS 0x3143 ===
  0x3143	bound  	esi, qword ptr [ebp + 0x74]
  0x3146	add    	byte ptr gs:[eax], al
  0x3149	adc    	dword ptr [edi], ebp
  0x314b	add    	byte ptr [esi], ch
  0x314e	outsd  	dx, dword ptr [esi]
  === BLOCK LINK ===
    0x314f
=== CODE BLOCK END ===

=== CODE BLOCK ADDRESS 0x314f ===
  0x314f	add    	byte ptr [eax + eax + 0x65], ah
  0x3153	add    	byte ptr [edx], ah
  0x3156	jne    	0x3158
  === BLOCK LINK ===
    0x3158
=== CODE BLOCK END ===

=== CODE BLOCK ADDRESS 0x3158 ===
  0x3158	add    	byte ptr [bx + si], al
  0x315b	insd   	dword ptr es:[edi], dx
  0x315c	push   	ebp
  0x315d	add    	byte ptr [ebx], dh
  0x3160	popal  	
  === BLOCK LINK ===
    0x3161
=== CODE BLOCK END ===

=== CODE BLOCK ADDRESS 0x3161 ===
  0x3161	add    	byte ptr [edi], ah
  0x3164	add    	byte ptr gs:[edx], bh
  0x3167	add    	byte ptr [eax], ah
  0x3169	add    	byte ptr [eax + eax + 0x73], dl
  0x316d	add    	byte ptr [edi], dl
  === BLOCK LINK ===
    0x3170
=== CODE BLOCK END ===

=== CODE BLOCK ADDRESS 0x3170 ===
  0x3170	jo     	0x3172
  === BLOCK LINK ===
    0x3172
=== CODE BLOCK END ===

=== CODE BLOCK ADDRESS 0x3172 ===
  0x3172	add    	byte ptr [edi], dl
  0x3176	jb     	0x3178
  === BLOCK LINK ===
    0x3178
=== CODE BLOCK END ===

=== CODE BLOCK ADDRESS 0x3178 ===
  0x3178	jo     	0x317a
  === BLOCK LINK ===
    0x317a
=== CODE BLOCK END ===

=== CODE BLOCK ADDRESS 0x317a ===
  0x317a	add    	byte ptr cs:[ebp], ah
  0x317e	js     	0x3180
  === BLOCK LINK ===
    0x3180
=== CODE BLOCK END ===

=== CODE BLOCK ADDRESS 0x3180 ===
  0x3180	add    	byte ptr gs:[eax], ah
  0x3183	add    	byte ptr [eax + eax], bh
  0x3186	push   	eax
  0x3187	add    	byte ptr [edx], dh
  0x318a	imul   	eax, dword ptr [eax], 0x74006e
  === BLOCK LINK ===
    0x3190
=== CODE BLOCK END ===

=== CODE BLOCK ADDRESS 0x3190 ===
  0x3190	add    	byte ptr gs:[edx], dh
  0x3194	dec    	esi
  0x3195	add    	byte ptr [ecx], ah
  0x3198	insd   	dword ptr es:[edi], dx
  0x3199	add    	byte ptr [ebp], ah
  === BLOCK LINK ===
    0x319c
=== CODE BLOCK END ===

=== CODE BLOCK ADDRESS 0x319c ===
  0x319c	add    	byte ptr ds:[eax], ah
  0x319f	add    	byte ptr [eax + eax], bh
  0x31a2	pop    	eax
  0x31a3	add    	byte ptr [eax], dl
  0x31a6	push   	ebx
  === BLOCK LINK ===
    0x31a7
=== CODE BLOCK END ===

=== CODE BLOCK ADDRESS 0x31a7 ===
  0x31a7	add    	byte ptr [esi], al
  0x31aa	imul   	eax, dword ptr [eax], 0x65006c
  0x31b0	add    	byte ptr ds:[eax], ah
  0x31b3	add    	byte ptr [ebx], bl
  0x31b6	das    	
  === BLOCK LINK ===
    0x31b7
=== CODE BLOCK END ===

=== CODE BLOCK ADDRESS 0x31b7 ===
  0x31b7	add    	byte ptr [esi], ch
  0x31ba	outsd  	dx, dword ptr [esi]
  0x31bb	add    	byte ptr [eax + eax + 0x65], ah
  0x31bf	add    	byte ptr [edx], ah
  0x31c2	jne    	0x31c4
  === BLOCK LINK ===
    0x31c4
=== CODE BLOCK END ===

=== CODE BLOCK ADDRESS 0x31c4 ===
  0x31c4	add    	byte ptr [di], bl
  0x31c8	add    	byte ptr [edi], bl
  0x31ca	push   	eax
  0x31cb	add    	byte ptr [edx], dh
  0x31ce	imul   	eax, dword ptr [eax], 0x74006e
  === BLOCK LINK ===
    0x31d4
=== CODE BLOCK END ===

=== CODE BLOCK ADDRESS 0x31d4 ===
  0x31d4	add    	byte ptr gs:[edx], dh
  0x31d8	and    	byte ptr [eax], al
  0x31da	and    	byte ptr [eax], al
  0x31dc	and    	byte ptr [eax], al
  0x31de	and    	byte ptr [eax], al
  === BLOCK LINK ===
    0x31e0
=== CODE BLOCK END ===

=== CODE BLOCK ADDRESS 0x31e0 ===
  0x31e0	and    	byte ptr [eax], al
  0x31e2	and    	byte ptr [eax], al
  0x31e4	and    	byte ptr [eax], al
  0x31e6	cmp    	al, byte ptr [eax]
  0x31e8	add    	byte ptr [edi], bl
  === BLOCK LINK ===
    0x31ea
=== CODE BLOCK END ===

=== CODE BLOCK ADDRESS 0x31ea ===
  0x31ea	inc    	esi
  0x31eb	add    	byte ptr [ecx], ch
  0x31ee	insb   	byte ptr es:[edi], dx
  0x31ef	add    	byte ptr [ebp], ah
  0x31f2	and    	byte ptr [eax], al
  === BLOCK LINK ===
    0x31f4
=== CODE BLOCK END ===

=== CODE BLOCK ADDRESS 0x31f4 ===
  0x31f4	and    	byte ptr [eax], al
  0x31f6	and    	byte ptr [eax], al
  0x31f8	and    	byte ptr [eax], al
  0x31fa	and    	byte ptr [eax], al
  0x31fc	and    	byte ptr [eax], al
  === BLOCK LINK ===
    0x31fe
=== CODE BLOCK END ===

=== CODE BLOCK ADDRESS 0x31fe ===
  0x31fe	and    	byte ptr [eax], al
  0x3200	and    	byte ptr [eax], al
  0x3202	and    	byte ptr [eax], al
  0x3204	and    	byte ptr [eax], al
  0x3206	cmp    	al, byte ptr [eax]
  === BLOCK LINK ===
    0x3208
=== CODE BLOCK END ===

=== CODE BLOCK ADDRESS 0x3208 ===
  0x3208	add    	byte ptr [edi], bl
  0x320a	inc    	ebp
  0x320b	add    	byte ptr [edx], dh
  0x320e	jb     	0x3210
  === BLOCK LINK ===
    0x3210
=== CODE BLOCK END ===

=== CODE BLOCK ADDRESS 0x3210 ===
  0x3210	outsd  	dx, dword ptr [esi]
  0x3211	add    	byte ptr [edx], dh
  0x3214	and    	byte ptr [eax], al
  0x3216	jo     	0x3218
  === BLOCK LINK ===
    0x3218
=== CODE BLOCK END ===

=== CODE BLOCK ADDRESS 0x3218 ===
  0x3218	jb     	0x321a
  === BLOCK LINK ===
    0x321a
=== CODE BLOCK END ===

=== CODE BLOCK ADDRESS 0x321a ===
  0x321a	imul   	eax, dword ptr [eax], 0x74006e
  0x3220	imul   	eax, dword ptr [eax], 0x67006e
  0x3226	cmp    	al, byte ptr [eax]
  0x3228	add    	byte ptr [ebx], ah
  0x322a	inc    	ebp
  === BLOCK LINK ===
    0x322b
=== CODE BLOCK END ===

=== CODE BLOCK ADDRESS 0x322b ===
  0x322b	add    	byte ptr [edx], dh
  0x322e	jb     	0x3230
  === BLOCK LINK ===
    0x3230
=== CODE BLOCK END ===

=== CODE BLOCK ADDRESS 0x3230 ===
  0x3230	outsd  	dx, dword ptr [esi]
  0x3231	add    	byte ptr [edx], dh
  0x3234	and    	byte ptr [eax], al
  0x3236	add    	byte ptr fs:[ebp], ah
  0x323a	insb   	byte ptr es:[edi], dx
  === BLOCK LINK ===
    0x323b
=== CODE BLOCK END ===

=== CODE BLOCK ADDRESS 0x323b ===
  0x323b	add    	byte ptr [ebp], ah
  0x323e	je     	0x3240
  === BLOCK LINK ===
    0x3240
=== CODE BLOCK END ===

=== CODE BLOCK ADDRESS 0x3240 ===
  0x3240	imul   	eax, dword ptr [eax], 0x67006e
  0x3246	and    	byte ptr [eax], al
  0x3248	sub    	byte ptr [eax], al
  0x324a	and    	byte ptr [eax], al
  0x324c	add    	byte ptr [edi], al
  === BLOCK LINK ===
    0x324e
=== CODE BLOCK END ===

=== CODE BLOCK ADDRESS 0x324e ===
  0x324e	and    	byte ptr [eax], al
  0x3250	sub    	dword ptr [eax], eax
  0x3252	cmp    	al, byte ptr [eax]
  0x3254	add    	byte ptr [ebx + 0x45], al
  0x3257	add    	byte ptr [edx], dh
  === BLOCK LINK ===
    0x325a
=== CODE BLOCK END ===

=== CODE BLOCK ADDRESS 0x325a ===
  0x325a	jb     	0x325c
  === BLOCK LINK ===
    0x325c
=== CODE BLOCK END ===

=== CODE BLOCK ADDRESS 0x325c ===
  0x325c	outsd  	dx, dword ptr [esi]
  0x325d	add    	byte ptr [edx], dh
  0x3260	and    	byte ptr [eax], al
  0x3262	ja     	0x3264
  === BLOCK LINK ===
    0x3264
=== CODE BLOCK END ===

=== CODE BLOCK ADDRESS 0x3264 ===
  0x3264	popal  	
  0x3265	add    	byte ptr [ecx], ch
  0x3268	je     	0x326a
  === BLOCK LINK ===
    0x326a
=== CODE BLOCK END ===

=== CODE BLOCK ADDRESS 0x326a ===
  0x326a	imul   	eax, dword ptr [eax], 0x67006e
  0x3270	and    	byte ptr [eax], al
  0x3272	add    	byte ptr [edi], ch
  0x3276	jb     	0x3278
  === BLOCK LINK ===
    0x3278
=== CODE BLOCK END ===

=== CODE BLOCK ADDRESS 0x3278 ===
  0x3278	and    	byte ptr [eax], al
  0x327a	push   	0
  0x327c	outsd  	dx, dword ptr [esi]
  0x327d	add    	byte ptr [edx], ah
  0x3280	je     	0x3282
  === BLOCK LINK ===
    0x3282
=== CODE BLOCK END ===

=== CODE BLOCK ADDRESS 0x3282 ===
  0x3282	outsd  	dx, dword ptr [esi]
  0x3283	add    	byte ptr [eax], ah
  0x3285	add    	byte ptr [ebx], ah
  0x3288	outsd  	dx, dword ptr [esi]
  0x3289	add    	byte ptr [ebp], ch
  === BLOCK LINK ===
    0x328c
=== CODE BLOCK END ===

=== CODE BLOCK ADDRESS 0x328c ===
  0x328c	jo     	0x328e
  === BLOCK LINK ===
    0x328e
=== CODE BLOCK END ===

=== CODE BLOCK ADDRESS 0x328e ===
  0x328e	insb   	byte ptr es:[edi], dx
  0x328f	add    	byte ptr [ebp], ah
  0x3292	je     	0x3294
  === BLOCK LINK ===
    0x3294
=== CODE BLOCK END ===

=== CODE BLOCK ADDRESS 0x3294 ===
  0x3294	add    	byte ptr gs:[edx], bh
  0x3297	add    	byte ptr [eax], al
  0x3299	dec    	ebx
  0x329a	push   	edi
  0x329b	add    	byte ptr [ecx], ah
  === BLOCK LINK ===
    0x329e
=== CODE BLOCK END ===

=== CODE BLOCK ADDRESS 0x329e ===
  0x329e	imul   	eax, dword ptr [eax], 0x690074
  0x32a4	outsb  	dx, byte ptr [esi]
  0x32a5	add    	byte ptr [edi], ah
  0x32a8	and    	byte ptr [eax], al
  0x32aa	inc    	esi
  === BLOCK LINK ===
    0x32ab
=== CODE BLOCK END ===

=== CODE BLOCK ADDRESS 0x32ab ===
  0x32ab	add    	byte ptr [edi], ch
  0x32ae	jb     	0x32b0
  === BLOCK LINK ===
    0x32b0
=== CODE BLOCK END ===

=== CODE BLOCK ADDRESS 0x32b0 ===
  0x32b0	and    	byte ptr [eax], al
  0x32b2	dec    	edx
  0x32b3	add    	byte ptr [edi], ch
  0x32b6	bound  	eax, qword ptr [eax]
  0x32b8	and    	byte ptr [eax], al
  === BLOCK LINK ===
    0x32ba
=== CODE BLOCK END ===

=== CODE BLOCK ADDRESS 0x32ba ===
  0x32ba	je     	0x32bc
  === BLOCK LINK ===
    0x32bc
=== CODE BLOCK END ===

=== CODE BLOCK ADDRESS 0x32bc ===
  0x32bc	outsd  	dx, dword ptr [esi]
  0x32bd	add    	byte ptr [eax], ah
  0x32bf	add    	byte ptr [edx], ah
  0x32c2	add    	byte ptr gs:[eax], ah
  0x32c5	add    	byte ptr [eax], dh
  === BLOCK LINK ===
    0x32c8
=== CODE BLOCK END ===

=== CODE BLOCK ADDRESS 0x32c8 ===
  0x32c8	jb     	0x32ca
  === BLOCK LINK ===
    0x32ca
=== CODE BLOCK END ===

=== CODE BLOCK ADDRESS 0x32ca ===
  0x32ca	imul   	eax, dword ptr [eax], 0x74006e
  0x32d0	add    	byte ptr gs:[eax + eax + 0x20], ah
  0x32d5	add    	byte ptr [eax], ah
  0x32d7	add    	byte ptr [eax], ah
  0x32d9	add    	byte ptr [eax], ah
  === BLOCK LINK ===
    0x32db
=== CODE BLOCK END ===

=== CODE BLOCK ADDRESS 0x32db ===
  0x32db	add    	byte ptr [eax], ah
  0x32dd	add    	byte ptr [eax], ah
  0x32df	add    	byte ptr [eax], ah
  0x32e1	add    	byte ptr [edx], bh
  0x32e3	add    	byte ptr [eax], al
  === BLOCK LINK ===
    0x32e5
=== CODE BLOCK END ===

=== CODE BLOCK ADDRESS 0x32e5 ===
  0x32e5	ja     	0x332f
  === BLOCK LINK ===
    0x32e7
=== CODE BLOCK END ===

=== CODE BLOCK ADDRESS 0x32e7 ===
  0x32e7	add    	byte ptr [ebx], cl
  0x32ea	inc    	ebp
  0x32eb	add    	byte ptr [ecx], bl
  0x32ee	pop    	edi
  0x32ef	add    	byte ptr [ebx], al
  === BLOCK LINK ===
    0x32f2
=== CODE BLOCK END ===

=== CODE BLOCK ADDRESS 0x32f2 ===
  0x32f2	push   	ebp
  0x32f3	add    	byte ptr [edx], dl
  0x32f6	push   	edx
  0x32f7	add    	byte ptr [ebp], al
  0x32fa	dec    	esi
  === BLOCK LINK ===
    0x32fb
=== CODE BLOCK END ===

=== CODE BLOCK ADDRESS 0x32fb ===
  0x32fb	add    	byte ptr [eax + eax + 0x5f], dl
  0x32ff	add    	byte ptr [ebp], dl
  0x3302	push   	ebx
  0x3303	add    	byte ptr [ebp], al
  0x3306	push   	edx
  === BLOCK LINK ===
    0x3307
=== CODE BLOCK END ===

=== CODE BLOCK ADDRESS 0x3307 ===
  0x3307	add    	byte ptr [eax + eax + 0x53], bl
  0x330b	add    	byte ptr [edi], ch
  0x330e	add    	byte ptr [eax + eax + 0x77], dh
  0x3313	add    	byte ptr [ecx], ah
  0x3316	jb     	0x3318
  === BLOCK LINK ===
    0x3318
=== CODE BLOCK END ===

=== CODE BLOCK ADDRESS 0x3318 ===
  0x3318	add    	byte ptr gs:[eax + eax + 0x4d], bl
  0x331d	add    	byte ptr [ecx], ch
  0x3320	arpl   	word ptr [eax], ax
  0x3322	jb     	0x3324
  === BLOCK LINK ===
    0x3324
=== CODE BLOCK END ===

=== CODE BLOCK ADDRESS 0x3324 ===
  0x3324	outsd  	dx, dword ptr [esi]
  0x3325	add    	byte ptr [ebx], dh
  0x3328	outsd  	dx, dword ptr [esi]
  0x3329	add    	byte ptr [esi], ah
  0x332c	je     	0x332e
  === BLOCK LINK ===
    0x332e
=== CODE BLOCK END ===

=== CODE BLOCK ADDRESS 0x332e ===
  0x332e	pop    	esp
  0x332f	add    	byte ptr [eax + eax + 0x65], dl
  0x3333	add    	byte ptr [edx], dh
  0x3336	insd   	dword ptr es:[edi], dx
  0x3337	add    	byte ptr [ecx], ch
  === BLOCK LINK ===
    0x333a
=== CODE BLOCK END ===

=== CODE BLOCK ADDRESS 0x333a ===
  0x333a	outsb  	dx, byte ptr [esi]
  0x333b	add    	byte ptr [ecx], ah
  0x333e	insb   	byte ptr es:[edi], dx
  0x333f	add    	byte ptr [eax], ah
  0x3341	add    	byte ptr [ebx], dl
  === BLOCK LINK ===
    0x3344
=== CODE BLOCK END ===

=== CODE BLOCK ADDRESS 0x3344 ===
  0x3344	add    	byte ptr gs:[edx], dh
  0x3348	jbe    	0x334a
  === BLOCK LINK ===
    0x334a
=== CODE BLOCK END ===

=== CODE BLOCK ADDRESS 0x334a ===
  0x334a	add    	byte ptr gs:[edx], dh
  0x334e	and    	byte ptr [eax], al
  0x3350	inc    	ebx
  0x3351	add    	byte ptr [eax + eax + 0x69], ch
  0x3355	add    	byte ptr [ebp], ah
  === BLOCK LINK ===
    0x3358
=== CODE BLOCK END ===

=== CODE BLOCK ADDRESS 0x3358 ===
  0x3358	outsb  	dx, byte ptr [esi]
  0x3359	add    	byte ptr [eax + eax], dh
  0x335d	pop    	ds
  0x335e	push   	esp
  0x335f	add    	byte ptr [ebx], dl
  === BLOCK LINK ===
    0x3362
=== CODE BLOCK END ===

=== CODE BLOCK ADDRESS 0x3362 ===
  0x3362	push   	edi
  0x3363	add    	byte ptr [eax], dh
  0x3366	add    	byte ptr [edi], dl
  0x336a	jb     	0x336c
  === BLOCK LINK ===
    0x336c
=== CODE BLOCK END ===

=== CODE BLOCK ADDRESS 0x336c ===
  0x336c	jo     	0x336e
  === BLOCK LINK ===
    0x336e
=== CODE BLOCK END ===

=== CODE BLOCK ADDRESS 0x336e ===
  0x336e	push   	esp
  0x336f	add    	byte ptr [ecx], ch
  0x3372	insd   	dword ptr es:[edi], dx
  0x3373	add    	byte ptr [ebp], ah
  0x3376	dec    	edi
  === BLOCK LINK ===
    0x3377
=== CODE BLOCK END ===

=== CODE BLOCK ADDRESS 0x3377 ===
  0x3377	add    	byte ptr [ebp], dh
  0x337a	je     	0x337c
  === BLOCK LINK ===
    0x337c
=== CODE BLOCK END ===

=== CODE BLOCK ADDRESS 0x337c ===
  0x337c	add    	byte ptr [ecx], ah
  0x337e	push   	edi
  0x337f	add    	byte ptr [ecx], ch
  0x3382	insb   	byte ptr es:[edi], dx
  0x3383	add    	byte ptr [eax + eax + 0x20], ch
  === BLOCK LINK ===
    0x3387
=== CODE BLOCK END ===

=== CODE BLOCK ADDRESS 0x3387 ===
  0x3387	add    	byte ptr [edi], dl
  0x338a	popal  	
  0x338b	add    	byte ptr [ecx], ch
  0x338e	je     	0x3390
  === BLOCK LINK ===
    0x3390
=== CODE BLOCK END ===

=== CODE BLOCK ADDRESS 0x3390 ===
  0x3390	and    	byte ptr [eax], al
  0x3392	inc    	esi
  0x3393	add    	byte ptr [edi], ch
  0x3396	jb     	0x3398
  === BLOCK LINK ===
    0x3398
=== CODE BLOCK END ===

=== CODE BLOCK ADDRESS 0x3398 ===
  0x3398	and    	byte ptr [eax], al
  0x339a	cmp    	eax, 0x2000
  0x339f	cmp    	ecx, dword ptr [edx]
  0x33a2	outsd  	dx, dword ptr [esi]
  0x33a3	add    	byte ptr [edx], ah
  === BLOCK LINK ===
    0x33a6
=== CODE BLOCK END ===

=== CODE BLOCK ADDRESS 0x33a6 ===
  0x33a6	and    	byte ptr [eax], al
  0x33a8	push   	edi
  0x33a9	add    	byte ptr [ecx], ah
  0x33ac	jae    	0x33ae
  === BLOCK LINK ===
    0x33ae
=== CODE BLOCK END ===

=== CODE BLOCK ADDRESS 0x33ae ===
  0x33ae	and    	byte ptr [eax], al
  0x33b0	push   	eax
  0x33b1	add    	byte ptr [edx], dh
  0x33b4	imul   	eax, dword ptr [eax], 0x74006e
  0x33ba	add    	byte ptr gs:[eax + eax + 0x20], ah
  === BLOCK LINK ===
    0x33bf
=== CODE BLOCK END ===

=== CODE BLOCK ADDRESS 0x33bf ===
  0x33bf	add    	byte ptr [edi], ch
  0x33c2	jb     	0x33c4
  === BLOCK LINK ===
    0x33c4
=== CODE BLOCK END ===

=== CODE BLOCK ADDRESS 0x33c4 ===
  0x33c4	and    	byte ptr [eax], al
  0x33c6	inc    	ebx
  0x33c7	add    	byte ptr [ecx], ah
  0x33ca	outsb  	dx, byte ptr [esi]
  0x33cb	add    	byte ptr [ebx], ah
  === BLOCK LINK ===
    0x33ce
=== CODE BLOCK END ===

=== CODE BLOCK ADDRESS 0x33ce ===
  0x33ce	add    	byte ptr gs:[eax + eax + 0x6c], ch
  0x33d3	add    	byte ptr [ebp], ah
  0x33d6	add    	byte ptr fs:[ecx], ah
  0x33d9	add    	byte ptr [eax], al
  0x33db	aas    	
  === BLOCK LINK ===
    0x33dc
=== CODE BLOCK END ===

=== CODE BLOCK ADDRESS 0x33dc ===
  0x33dc	dec    	edx
  0x33dd	add    	byte ptr [edi], ch
  0x33e0	bound  	eax, qword ptr [eax]
  0x33e2	and    	byte ptr [eax], al
  0x33e4	push   	edi
  === BLOCK LINK ===
    0x33e5
=== CODE BLOCK END ===

=== CODE BLOCK ADDRESS 0x33e5 ===
  0x33e5	add    	byte ptr [ecx], ah
  0x33e8	jae    	0x33ea
  === BLOCK LINK ===
    0x33ea
=== CODE BLOCK END ===

=== CODE BLOCK ADDRESS 0x33ea ===
  0x33ea	and    	byte ptr [eax], al
  0x33ec	outsb  	dx, byte ptr [esi]
  0x33ed	add    	byte ptr [edi], ch
  0x33f0	je     	0x33f2
  === BLOCK LINK ===
    0x33f2
=== CODE BLOCK END ===

=== CODE BLOCK ADDRESS 0x33f2 ===
  0x33f2	and    	byte ptr [eax], al
  0x33f4	jo     	0x33f6
  === BLOCK LINK ===
    0x33f6
=== CODE BLOCK END ===

=== CODE BLOCK ADDRESS 0x33f6 ===
  0x33f6	jb     	0x33f8
  === BLOCK LINK ===
    0x33f8
=== CODE BLOCK END ===

=== CODE BLOCK ADDRESS 0x33f8 ===
  0x33f8	imul   	eax, dword ptr [eax], 0x74006e
  0x33fe	add    	byte ptr gs:[eax + eax + 0x2c], ah
  0x3403	add    	byte ptr [eax], ah
  0x3405	add    	byte ptr [edi], ah
  0x3408	imul   	eax, dword ptr [eax], 0x690076
  === BLOCK LINK ===
    0x340e
=== CODE BLOCK END ===

=== CODE BLOCK ADDRESS 0x340e ===
  0x340e	outsb  	dx, byte ptr [esi]
  0x340f	add    	byte ptr [edi], ah
  0x3412	and    	byte ptr [eax], al
  0x3414	jne    	0x3416
  === BLOCK LINK ===
    0x3416
=== CODE BLOCK END ===

=== CODE BLOCK ADDRESS 0x3416 ===
  0x3416	jo     	0x3418
  === BLOCK LINK ===
    0x3418
=== CODE BLOCK END ===

=== CODE BLOCK ADDRESS 0x3418 ===
  0x3418	and    	dword ptr [eax], eax
  0x341a	add    	byte ptr [ebx + 0x4a], bl
  0x341d	add    	byte ptr [edi], ch
  0x3420	bound  	eax, qword ptr [eax]
  0x3422	push   	ecx
  === BLOCK LINK ===
    0x3423
=== CODE BLOCK END ===

=== CODE BLOCK ADDRESS 0x3423 ===
  0x3423	add    	byte ptr [ebp], dh
  0x3426	add    	byte ptr gs:[ebp], dh
  0x342a	add    	byte ptr gs:[eax], ah
  0x342d	add    	byte ptr [edi], dh
  0x3430	popal  	
  === BLOCK LINK ===
    0x3431
=== CODE BLOCK END ===

=== CODE BLOCK ADDRESS 0x3431 ===
  0x3431	add    	byte ptr [ebx], dh
  0x3434	and    	byte ptr [eax], al
  0x3436	add    	byte ptr gs:[ebp], ch
  0x343a	jo     	0x343c
  === BLOCK LINK ===
    0x343c
=== CODE BLOCK END ===

=== CODE BLOCK ADDRESS 0x343c ===
  0x343c	je     	0x343e
  === BLOCK LINK ===
    0x343e
=== CODE BLOCK END ===

=== CODE BLOCK ADDRESS 0x343e ===
  0x343e	jns    	0x3440
  === BLOCK LINK ===
    0x3440
=== CODE BLOCK END ===

=== CODE BLOCK ADDRESS 0x3440 ===
  0x3440	sub    	al, 0
  0x3442	and    	byte ptr [eax], al
  0x3444	outsb  	dx, byte ptr [esi]
  0x3445	add    	byte ptr [edi], ch
  0x3448	je     	0x344a
  === BLOCK LINK ===
    0x344a
=== CODE BLOCK END ===

=== CODE BLOCK ADDRESS 0x344a ===
  0x344a	and    	byte ptr [eax], al
  0x344c	ja     	0x344e
  === BLOCK LINK ===
    0x344e
=== CODE BLOCK END ===

=== CODE BLOCK ADDRESS 0x344e ===
  0x344e	popal  	
  0x344f	add    	byte ptr [ecx], ch
  0x3452	je     	0x3454
  === BLOCK LINK ===
    0x3454
=== CODE BLOCK END ===

=== CODE BLOCK ADDRESS 0x3454 ===
  0x3454	imul   	eax, dword ptr [eax], 0x67006e
  0x345a	and    	byte ptr [eax], al
  0x345c	add    	byte ptr [edi], ch
  0x3460	jb     	0x3462
  === BLOCK LINK ===
    0x3462
=== CODE BLOCK END ===

=== CODE BLOCK ADDRESS 0x3462 ===
  0x3462	and    	byte ptr [eax], al
  0x3464	jo     	0x3466
  === BLOCK LINK ===
    0x3466
=== CODE BLOCK END ===

=== CODE BLOCK ADDRESS 0x3466 ===
  0x3466	jb     	0x3468
  === BLOCK LINK ===
    0x3468
=== CODE BLOCK END ===

=== CODE BLOCK ADDRESS 0x3468 ===
  0x3468	imul   	eax, dword ptr [eax], 0x74006e
  0x346e	imul   	eax, dword ptr [eax], 0x67006e
  0x3474	add    	byte ptr cs:[eax], al
  0x3477	add    	eax, 0x5c005c
  0x347c	add    	byte ptr [eax], al
  === BLOCK LINK ===
    0x347e
=== CODE BLOCK END ===

=== CODE BLOCK ADDRESS 0x347e ===
  0x347e	add    	byte ptr [eax], al
  0x3480	and    	al, 0x2a
  0x3482	xchg   	eax, ebp
  0x3483	sar    	esp, 1
  0x3485	salc   	
  === BLOCK LINK ===
    0x3486
=== CODE BLOCK END ===

=== CODE BLOCK ADDRESS 0x3486 ===
  0x3486	xlatb  	
  0x3487	dec    	edx
  0x3488	mov    	bl, 0x22
  0x348a	out    	dx, eax
  0x348b	mov    	ch, 0x74
  === BLOCK LINK ===
    0x348d
=== CODE BLOCK END ===

=== CODE BLOCK ADDRESS 0x348d ===
  0x348d	sbb    	eax, 0x8001528
  0x3492	mov    	bh, 0x7a
  0x3494	pop    	esp
  0x3495	push   	esi
  0x3496	sbb    	dword ptr [eax], esi
  === BLOCK LINK ===
    0x3499
=== CODE BLOCK END ===

=== CODE BLOCK ADDRESS 0x3499 ===
  0x3499	mov    	dword ptr [edx], eax
  0x349b	push   	es
  0x349c	push   	cs
  0x349d	and    	byte ptr [ebx], dh
  0x349f	add    	byte ptr [ecx], dh
  === BLOCK LINK ===
    0x34a1
=== CODE BLOCK END ===

=== CODE BLOCK ADDRESS 0x34a1 ===
  0x34a1	add    	byte ptr [edx], ah
  0x34a4	add    	byte ptr [ebx], dh
  0x34a7	add    	byte ptr [eax], bh
  0x34a9	add    	byte ptr [0x61003600], dh
  0x34af	add    	byte ptr [eax + eax + 0x33], ah
  === BLOCK LINK ===
    0x34b3
=== CODE BLOCK END ===

=== CODE BLOCK ADDRESS 0x34b3 ===
  0x34b3	add    	byte ptr [esi], dh
  0x34b5	add    	byte ptr [eax + eax], dh
  0x34b8	add    	byte ptr gs:[ebx], dh
  0x34bb	add    	byte ptr [0x30808200], dh
  0x34c1	add    	byte ptr [eax], dh
  === BLOCK LINK ===
    0x34c3
=== CODE BLOCK END ===

=== CODE BLOCK ADDRESS 0x34c3 ===
  0x34c3	add    	byte ptr [edx], dh
  0x34c5	add    	byte ptr [eax + eax], dh
  0x34c8	xor    	byte ptr [eax], al
  0x34ca	xor    	byte ptr [eax], al
  0x34cc	xor    	byte ptr [eax], al
  === BLOCK LINK ===
    0x34ce
=== CODE BLOCK END ===

=== CODE BLOCK ADDRESS 0x34ce ===
  0x34ce	xor    	byte ptr [eax], al
  0x34d0	xor    	byte ptr [eax], al
  0x34d2	xor    	al, 0
  0x34d4	cmp    	byte ptr [eax], al
  0x34d6	xor    	byte ptr [eax], al
  === BLOCK LINK ===
    0x34d8
=== CODE BLOCK END ===

=== CODE BLOCK ADDRESS 0x34d8 ===
  0x34d8	xor    	byte ptr [eax], al
  0x34da	xor    	byte ptr [eax], al
  0x34dc	xor    	byte ptr [eax], al
  0x34de	xor    	byte ptr [eax], al
  0x34e0	cmp    	dword ptr [eax], eax
  === BLOCK LINK ===
    0x34e2
=== CODE BLOCK END ===

=== CODE BLOCK ADDRESS 0x34e2 ===
  0x34e2	xor    	al, 0
  0x34e4	xor    	byte ptr [eax], al
  0x34e6	xor    	byte ptr [eax], al
  0x34e8	xor    	byte ptr [eax], al
  0x34ea	xor    	byte ptr [eax], al
  === BLOCK LINK ===
    0x34ec
=== CODE BLOCK END ===

=== CODE BLOCK ADDRESS 0x34ec ===
  0x34ec	xor    	byte ptr [eax], al
  0x34ee	xor    	byte ptr [eax], al
  0x34f0	xor    	byte ptr [eax], al
  0x34f2	add    	byte ptr ss:[eax], dh
  0x34f5	add    	byte ptr [edx], dh
  === BLOCK LINK ===
    0x34f7
=== CODE BLOCK END ===

=== CODE BLOCK ADDRESS 0x34f7 ===
  0x34f7	add    	byte ptr [eax], dh
  0x34f9	add    	byte ptr [eax], dh
  0x34fb	add    	byte ptr [eax], dh
  0x34fd	add    	byte ptr [eax], dh
  0x34ff	add    	byte ptr [eax], dh
  === BLOCK LINK ===
    0x3501
=== CODE BLOCK END ===

=== CODE BLOCK ADDRESS 0x3501 ===
  0x3501	add    	byte ptr [eax], dh
  0x3503	add    	byte ptr [edx], dh
  0x3505	add    	byte ptr [eax + eax], dh
  0x3508	xor    	byte ptr [eax], al
  0x350a	xor    	byte ptr [eax], al
  === BLOCK LINK ===
    0x350c
=== CODE BLOCK END ===

=== CODE BLOCK ADDRESS 0x350c ===
  0x350c	xor    	byte ptr [eax], al
  0x350e	xor    	byte ptr [eax], al
  0x3510	xor    	eax, 0x35003200
  0x3515	add    	byte ptr [ebx], dh
  0x3517	add    	byte ptr [eax + eax], dh
  === BLOCK LINK ===
    0x351a
=== CODE BLOCK END ===

=== CODE BLOCK ADDRESS 0x351a ===
  0x351a	xor    	dword ptr [eax], eax
  0x351c	xor    	eax, dword ptr [eax]
  0x351e	xor    	dword ptr [eax], eax
  0x3520	xor    	byte ptr [eax], al
  0x3522	xor    	byte ptr [eax], al
  === BLOCK LINK ===
    0x3524
=== CODE BLOCK END ===

=== CODE BLOCK ADDRESS 0x3524 ===
  0x3524	xor    	byte ptr [eax], al
  0x3526	xor    	al, 0
  0x3528	xor    	byte ptr [eax], al
  0x352a	xor    	byte ptr [eax], al
  0x352c	xor    	byte ptr [eax], al
  === BLOCK LINK ===
    0x352e
=== CODE BLOCK END ===

=== CODE BLOCK ADDRESS 0x352e ===
  0x352e	xor    	byte ptr [eax], al
  0x3530	xor    	byte ptr [eax], al
  0x3532	xor    	dword ptr [eax], eax
  0x3534	xor    	byte ptr [eax], al
  0x3536	xor    	byte ptr [eax], al
  === BLOCK LINK ===
    0x3538
=== CODE BLOCK END ===

=== CODE BLOCK ADDRESS 0x3538 ===
  0x3538	xor    	byte ptr [eax], al
  0x353a	xor    	dword ptr [eax], eax
  0x353c	xor    	byte ptr [eax], al
  0x353e	xor    	byte ptr [eax], al
  0x3540	bound  	eax, qword ptr [eax]
  === BLOCK LINK ===
    0x3542
=== CODE BLOCK END ===

=== CODE BLOCK ADDRESS 0x3542 ===
  0x3542	xor    	eax, 0x63006600
  0x3547	add    	byte ptr [ecx], bh
  0x3549	add    	byte ptr [eax], dh
  0x354b	add    	byte ptr [ebp], ah
  0x354e	aaa    	
  === BLOCK LINK ===
    0x354f
=== CODE BLOCK END ===

=== CODE BLOCK ADDRESS 0x354f ===
  0x354f	add    	byte ptr [eax], dh
  0x3551	add    	byte ptr [edx], dh
  0x3553	add    	byte ptr [edi], dh
  0x3555	add    	byte ptr [esi], ah
  0x3558	add    	byte ptr ss:[edi], dh
  === BLOCK LINK ===
    0x355b
=== CODE BLOCK END ===

=== CODE BLOCK ADDRESS 0x355b ===
  0x355b	add    	byte ptr [eax], bh
  0x355d	add    	byte ptr [edi], dh
  0x355f	add    	byte ptr [ecx], dh
  0x3561	add    	byte ptr [ebp], ah
  0x3564	aaa    	
  === BLOCK LINK ===
    0x3565
=== CODE BLOCK END ===

=== CODE BLOCK ADDRESS 0x3565 ===
  0x3565	add    	byte ptr [edi], dh
  0x3567	add    	byte ptr [ebx], dh
  0x3569	add    	byte ptr [ecx], ah
  0x356c	cmp    	byte ptr [eax], al
  0x356e	add    	byte ptr [eax + eax + 0x65], ah
  === BLOCK LINK ===
    0x3573
=== CODE BLOCK END ===

=== CODE BLOCK ADDRESS 0x3573 ===
  0x3573	add    	byte ptr [eax], bh
  0x3575	add    	byte ptr [ecx], bh
  0x3577	add    	byte ptr [ebx], dh
  0x3579	add    	byte ptr [eax], bh
  0x357b	add    	byte ptr [ebx], ah
  === BLOCK LINK ===
    0x357e
=== CODE BLOCK END ===

=== CODE BLOCK ADDRESS 0x357e ===
  0x357e	cmp    	byte ptr [eax], al
  0x3580	xor    	dword ptr [eax], eax
  0x3582	add    	byte ptr fs:[eax + eax + 0x34], ah
  0x3587	add    	byte ptr [eax], dh
  0x3589	add    	byte ptr [edx], dh
  === BLOCK LINK ===
    0x358b
=== CODE BLOCK END ===

=== CODE BLOCK ADDRESS 0x358b ===
  0x358b	add    	byte ptr [edx], ah
  0x358e	popal  	
  0x358f	add    	byte ptr [esi], dh
  0x3591	add    	byte ptr [0x39006200], dh
  0x3597	add    	byte ptr [edx], dh
  === BLOCK LINK ===
    0x3599
=== CODE BLOCK END ===

=== CODE BLOCK ADDRESS 0x3599 ===
  0x3599	add    	byte ptr [eax], dh
  0x359b	add    	byte ptr [ecx], dh
  0x359d	add    	byte ptr [eax + eax + 0x36], ah
  0x35a1	add    	byte ptr [eax], dh
  0x35a3	add    	byte ptr [0x33003900], dh
  === BLOCK LINK ===
    0x35a9
=== CODE BLOCK END ===

=== CODE BLOCK ADDRESS 0x35a9 ===
  0x35a9	add    	byte ptr [ebp], ah
  0x35ac	cmp    	dword ptr [eax], eax
  0x35ae	add    	byte ptr ss:[ebx], ah
  0x35b2	xor    	al, 0
  0x35b4	cmp    	dword ptr [eax], eax
  === BLOCK LINK ===
    0x35b6
=== CODE BLOCK END ===

=== CODE BLOCK ADDRESS 0x35b6 ===
  0x35b6	xor    	al, byte ptr [eax]
  0x35b8	add    	byte ptr ss:[0x65003100], dh
  0x35bf	add    	byte ptr [eax], bh
  0x35c1	add    	byte ptr [eax], bh
  0x35c3	add    	byte ptr [ecx], bh
  === BLOCK LINK ===
    0x35c5
=== CODE BLOCK END ===

=== CODE BLOCK ADDRESS 0x35c5 ===
  0x35c5	add    	byte ptr [ebx], ah
  0x35c8	arpl   	word ptr [eax], ax
  0x35ca	xor    	dword ptr [eax], eax
  0x35cc	xor    	eax, dword ptr [eax]
  0x35ce	add    	byte ptr [ecx], dh
  === BLOCK LINK ===
    0x35d1
=== CODE BLOCK END ===

=== CODE BLOCK ADDRESS 0x35d1 ===
  0x35d1	add    	byte ptr [eax + eax], dh
  0x35d4	xor    	dword ptr [eax], eax
  0x35d6	xor    	eax, 0x62006500
  0x35db	add    	byte ptr [edx], ah
  0x35de	xor    	eax, 0x66003300
  === BLOCK LINK ===
    0x35e3
=== CODE BLOCK END ===

=== CODE BLOCK ADDRESS 0x35e3 ===
  0x35e3	add    	byte ptr [ecx], ah
  0x35e6	arpl   	word ptr [eax], ax
  0x35e8	xor    	dword ptr [eax], eax
  0x35ea	xor    	dword ptr [eax], eax
  0x35ec	xor    	eax, dword ptr [eax]
  === BLOCK LINK ===
    0x35ee
=== CODE BLOCK END ===

=== CODE BLOCK ADDRESS 0x35ee ===
  0x35ee	xor    	dword ptr [eax], eax
  0x35f0	popal  	
  0x35f1	add    	byte ptr [ebp], ah
  0x35f4	xor    	byte ptr [eax], al
  0x35f6	bound  	eax, qword ptr [eax]
  === BLOCK LINK ===
    0x35f8
=== CODE BLOCK END ===

=== CODE BLOCK ADDRESS 0x35f8 ===
  0x35f8	add    	byte ptr fs:[ebx], dh
  0x35fb	add    	byte ptr [ebx], dh
  0x35fd	add    	byte ptr [ebx], dh
  0x35ff	add    	byte ptr [ebx], ah
  0x3602	xor    	eax, 0x65006500
  === BLOCK LINK ===
    0x3607
=== CODE BLOCK END ===

=== CODE BLOCK ADDRESS 0x3607 ===
  0x3607	add    	byte ptr [esi], dh
  0x3609	add    	byte ptr [eax], dh
  0x360b	add    	byte ptr [edx], dh
  0x360d	add    	byte ptr [ecx], dh
  0x360f	add    	byte ptr [esi], dh
  === BLOCK LINK ===
    0x3611
=== CODE BLOCK END ===

=== CODE BLOCK ADDRESS 0x3611 ===
  0x3611	add    	byte ptr [edi], dh
  0x3613	add    	byte ptr [edx], dh
  0x3615	add    	byte ptr [eax + eax + 0x39], ah
  0x3619	add    	byte ptr [edi], dh
  0x361b	add    	byte ptr [ecx], dh
  === BLOCK LINK ===
    0x361d
=== CODE BLOCK END ===

=== CODE BLOCK ADDRESS 0x361d ===
  0x361d	add    	byte ptr [eax], bh
  0x361f	add    	byte ptr [ebp], ah
  0x3622	popal  	
  0x3623	add    	byte ptr [ebx], dh
  0x3625	add    	byte ptr [ecx], dh
  === BLOCK LINK ===
    0x3627
=== CODE BLOCK END ===

=== CODE BLOCK ADDRESS 0x3627 ===
  0x3627	add    	byte ptr [ecx], ah
  0x362a	cmp    	byte ptr [eax], al
  0x362c	popal  	
  0x362d	add    	byte ptr [ebp], ah
  0x3630	bound  	eax, qword ptr [eax]
  === BLOCK LINK ===
    0x3632
=== CODE BLOCK END ===

=== CODE BLOCK ADDRESS 0x3632 ===
  0x3632	add    	byte ptr fs:[eax], dh
  0x3635	add    	byte ptr [eax + eax + 0x61], ah
  0x3639	add    	byte ptr [eax], dh
  0x363b	add    	byte ptr [eax], dh
  0x363d	add    	byte ptr [edi], dh
  === BLOCK LINK ===
    0x363f
=== CODE BLOCK END ===

=== CODE BLOCK ADDRESS 0x363f ===
  0x363f	add    	byte ptr [edx], dh
  0x3641	add    	byte ptr [esi], ah
  0x3644	xor    	al, byte ptr [eax]
  0x3646	xor    	eax, 0x38006400
  0x364b	add    	byte ptr [edi], dh
  === BLOCK LINK ===
    0x364d
=== CODE BLOCK END ===

=== CODE BLOCK ADDRESS 0x364d ===
  0x364d	add    	byte ptr [eax + eax + 0x62], ah
  0x3651	add    	byte ptr [ecx], ah
  0x3654	add    	byte ptr ss:[esi], ah
  0x3658	arpl   	word ptr [eax], ax
  0x365a	cmp    	dword ptr [eax], eax
  === BLOCK LINK ===
    0x365c
=== CODE BLOCK END ===

=== CODE BLOCK ADDRESS 0x365c ===
  0x365c	xor    	byte ptr [eax], al
  0x365e	add    	byte ptr [esi], ah
  0x3662	add    	byte ptr fs:[0x38003900], dh
  0x3669	add    	byte ptr [ebp], ah
  0x366c	add    	byte ptr fs:[eax + eax], dh
  === BLOCK LINK ===
    0x3670
=== CODE BLOCK END ===

=== CODE BLOCK ADDRESS 0x3670 ===
  0x3670	add    	byte ptr fs:[ecx], ah
  0x3674	xor    	eax, dword ptr [eax]
  0x3676	xor    	eax, 0x34006500
  0x367b	add    	byte ptr [eax + eax], dh
  0x367e	arpl   	word ptr [eax], ax
  === BLOCK LINK ===
    0x3680
=== CODE BLOCK END ===

=== CODE BLOCK ADDRESS 0x3680 ===
  0x3680	xor    	eax, dword ptr [eax]
  0x3682	cmp    	dword ptr [eax], eax
  0x3684	cmp    	byte ptr [eax], al
  0x3686	arpl   	word ptr [eax], ax
  0x3688	xor    	al, 0
  === BLOCK LINK ===
    0x368a
=== CODE BLOCK END ===

=== CODE BLOCK ADDRESS 0x368a ===
  0x368a	xor    	eax, 0x33003400
  0x368f	add    	byte ptr [eax], dh
  0x3691	add    	byte ptr [edi], dh
  0x3693	add    	byte ptr [ebp], ah
  0x3696	cmp    	byte ptr [eax], al
  === BLOCK LINK ===
    0x3698
=== CODE BLOCK END ===

=== CODE BLOCK ADDRESS 0x3698 ===
  0x3698	add    	byte ptr gs:[ebx], dh
  0x369b	add    	byte ptr [ebx], dh
  0x369d	add    	byte ptr [edx], ah
  0x36a0	cmp    	byte ptr [eax], al
  0x36a2	xor    	al, 0
  === BLOCK LINK ===
    0x36a4
=== CODE BLOCK END ===

=== CODE BLOCK ADDRESS 0x36a4 ===
  0x36a4	xor    	al, byte ptr [eax]
  0x36a6	add    	byte ptr ss:[ecx], dh
  0x36a9	add    	byte ptr [eax + eax], dh
  0x36ac	xor    	eax, dword ptr [eax]
  0x36ae	add    	byte ptr fs:[ecx], ah
  === BLOCK LINK ===
    0x36b2
=== CODE BLOCK END ===

=== CODE BLOCK ADDRESS 0x36b2 ===
  0x36b2	add    	byte ptr gs:[ebx], ah
  0x36b6	cmp    	dword ptr [eax], eax
  0x36b8	add    	byte ptr [0x36003900], dh
  0x36bf	add    	byte ptr [eax], bh
  0x36c1	add    	byte ptr [ebx], dh
  === BLOCK LINK ===
    0x36c3
=== CODE BLOCK END ===

=== CODE BLOCK ADDRESS 0x36c3 ===
  0x36c3	add    	byte ptr [esi], dh
  0x36c5	add    	byte ptr [esi], ah
  0x36c8	cmp    	dword ptr [eax], eax
  0x36ca	aaa    	
  0x36cb	add    	byte ptr [ebx], ah
  === BLOCK LINK ===
    0x36ce
=== CODE BLOCK END ===

=== CODE BLOCK ADDRESS 0x36ce ===
  0x36ce	cmp    	byte ptr [eax], al
  0x36d0	add    	byte ptr [edi], dh
  0x36d3	add    	byte ptr [eax + eax], dh
  0x36d6	aaa    	
  0x36d7	add    	byte ptr [0x65003000], dh
  === BLOCK LINK ===
    0x36dd
=== CODE BLOCK END ===

=== CODE BLOCK ADDRESS 0x36dd ===
  0x36dd	add    	byte ptr [0x37003900], dh
  0x36e3	add    	byte ptr [0x36006300], dh
  0x36e9	add    	byte ptr [eax + eax], dh
  0x36ec	add    	byte ptr gs:[edx], dh
  0x36ef	add    	byte ptr [ecx], dh
  === BLOCK LINK ===
    0x36f1
=== CODE BLOCK END ===

=== CODE BLOCK ADDRESS 0x36f1 ===
  0x36f1	add    	byte ptr [eax], bh
  0x36f3	add    	byte ptr [ecx], bh
  0x36f5	add    	byte ptr [esi], ah
  0x36f8	xor    	al, 0
  0x36fa	xor    	eax, 0x65006400
  === BLOCK LINK ===
    0x36ff
=== CODE BLOCK END ===

=== CODE BLOCK ADDRESS 0x36ff ===
  0x36ff	add    	byte ptr [esi], ah
  0x3702	xor    	al, 0
  0x3704	add    	byte ptr ss:[edx], ah
  0x3708	xor    	al, byte ptr [eax]
  0x370a	popal  	
  === BLOCK LINK ===
    0x370b
=== CODE BLOCK END ===

=== CODE BLOCK ADDRESS 0x370b ===
  0x370b	add    	byte ptr [edx], dh
  0x370d	add    	byte ptr [edx], ah
  0x3710	xor    	dword ptr [eax], eax
  0x3712	xor    	al, byte ptr [eax]
  0x3714	xor    	al, 0
  === BLOCK LINK ===
    0x3716
=== CODE BLOCK END ===

=== CODE BLOCK ADDRESS 0x3716 ===
  0x3716	aaa    	
  0x3717	add    	byte ptr [ecx], ah
  0x371a	add    	byte ptr fs:[ebx], ah
  0x371e	xor    	eax, dword ptr [eax]
  0x3720	add    	byte ptr ss:[0x62003200], dh
  === BLOCK LINK ===
    0x3727
=== CODE BLOCK END ===

=== CODE BLOCK ADDRESS 0x3727 ===
  0x3727	add    	byte ptr [esi], ah
  0x372a	xor    	eax, 0x33006300
  0x372f	add    	byte ptr [eax], dh
  0x3731	add    	byte ptr [eax], bh
  0x3733	add    	byte ptr [eax], dh
  === BLOCK LINK ===
    0x3735
=== CODE BLOCK END ===

=== CODE BLOCK ADDRESS 0x3735 ===
  0x3735	add    	byte ptr [0x64003500], dh
  0x373b	add    	byte ptr [ecx], ah
  0x373e	cmp    	dword ptr [eax], eax
  0x3740	push   	cs
  0x3741	xor    	eax, dword ptr [eax]
  === BLOCK LINK ===
    0x3743
=== CODE BLOCK END ===

=== CODE BLOCK ADDRESS 0x3743 ===
  0x3743	add    	byte ptr cs:[eax], dh
  0x3746	add    	byte ptr [esi], ch
  0x3748	add    	byte ptr [eax], dh
  0x374a	add    	byte ptr [esi], ch
  0x374c	add    	byte ptr [eax], dh
  === BLOCK LINK ===
    0x374e
=== CODE BLOCK END ===

=== CODE BLOCK ADDRESS 0x374e ===
  0x374e	add    	byte ptr [edi + ebx*2], cl
  0x3751	add    	byte ptr [esi], dh
  0x3754	xor    	byte ptr [eax], al
  0x3756	xor    	eax, dword ptr [eax]
  0x3758	xor    	byte ptr [eax], al
  === BLOCK LINK ===
    0x375a
=== CODE BLOCK END ===

=== CODE BLOCK ADDRESS 0x375a ===
  0x375a	xor    	byte ptr [eax], al
  0x375c	cmp    	byte ptr [eax + 0x720050], 0x65
  0x3763	add    	byte ptr [ebx], dh
  0x3766	add    	byte ptr gs:[esi], ch
  0x376a	je     	0x376c
  === BLOCK LINK ===
    0x376c
=== CODE BLOCK END ===

=== CODE BLOCK ADDRESS 0x376c ===
  0x376c	popal  	
  0x376d	add    	byte ptr [eax + eax + 0x69], dh
  0x3771	add    	byte ptr [edi], ch
  0x3774	outsb  	dx, byte ptr [esi]
  0x3775	add    	byte ptr [ebx], al
  === BLOCK LINK ===
    0x3778
=== CODE BLOCK END ===

=== CODE BLOCK ADDRESS 0x3778 ===
  0x3778	outsd  	dx, dword ptr [esi]
  0x3779	add    	byte ptr [edx], dh
  0x377c	add    	byte ptr gs:[eax + eax], ch
  0x3780	and    	byte ptr [eax], al
  0x3782	push   	eax
  === BLOCK LINK ===
    0x3783
=== CODE BLOCK END ===

=== CODE BLOCK ADDRESS 0x3783 ===
  0x3783	add    	byte ptr [ebp], dh
  0x3786	bound  	eax, qword ptr [eax]
  0x3788	insb   	byte ptr es:[edi], dx
  0x3789	add    	byte ptr [ecx], ch
  0x378c	arpl   	word ptr [eax], ax
  === BLOCK LINK ===
    0x378e
=== CODE BLOCK END ===

=== CODE BLOCK ADDRESS 0x378e ===
  0x378e	dec    	ebx
  0x378f	add    	byte ptr [ebp], ah
  0x3792	jns    	0x3794
  === BLOCK LINK ===
    0x3794
=== CODE BLOCK END ===

=== CODE BLOCK ADDRESS 0x3794 ===
  0x3794	cmp    	eax, 0x30003000
  0x3799	add    	byte ptr [edx], dh
  0x379b	add    	byte ptr [eax + eax], dh
  0x379e	xor    	byte ptr [eax], al
  0x37a0	xor    	byte ptr [eax], al
  === BLOCK LINK ===
    0x37a2
=== CODE BLOCK END ===

=== CODE BLOCK ADDRESS 0x37a2 ===
  0x37a2	xor    	byte ptr [eax], al
  0x37a4	xor    	byte ptr [eax], al
  0x37a6	xor    	byte ptr [eax], al
  0x37a8	xor    	al, 0
  0x37aa	cmp    	byte ptr [eax], al
  === BLOCK LINK ===
    0x37ac
=== CODE BLOCK END ===

=== CODE BLOCK ADDRESS 0x37ac ===
  0x37ac	xor    	byte ptr [eax], al
  0x37ae	xor    	byte ptr [eax], al
  0x37b0	xor    	byte ptr [eax], al
  0x37b2	xor    	byte ptr [eax], al
  0x37b4	xor    	byte ptr [eax], al
  === BLOCK LINK ===
    0x37b6
=== CODE BLOCK END ===

=== CODE BLOCK ADDRESS 0x37b6 ===
  0x37b6	cmp    	dword ptr [eax], eax
  0x37b8	xor    	al, 0
  0x37ba	xor    	byte ptr [eax], al
  0x37bc	xor    	byte ptr [eax], al
  0x37be	xor    	byte ptr [eax], al
  === BLOCK LINK ===
    0x37c0
=== CODE BLOCK END ===

=== CODE BLOCK ADDRESS 0x37c0 ===
  0x37c0	xor    	byte ptr [eax], al
  0x37c2	xor    	byte ptr [eax], al
  0x37c4	xor    	byte ptr [eax], al
  0x37c6	xor    	byte ptr [eax], al
  0x37c8	add    	byte ptr ss:[eax], dh
  === BLOCK LINK ===
    0x37cb
=== CODE BLOCK END ===

=== CODE BLOCK ADDRESS 0x37cb ===
  0x37cb	add    	byte ptr [edx], dh
  0x37cd	add    	byte ptr [eax], dh
  0x37cf	add    	byte ptr [eax], dh
  0x37d1	add    	byte ptr [eax], dh
  0x37d3	add    	byte ptr [eax], dh
  === BLOCK LINK ===
    0x37d5
=== CODE BLOCK END ===

=== CODE BLOCK ADDRESS 0x37d5 ===
  0x37d5	add    	byte ptr [eax], dh
  0x37d7	add    	byte ptr [eax], dh
  0x37d9	add    	byte ptr [edx], dh
  0x37db	add    	byte ptr [eax + eax], dh
  0x37de	xor    	byte ptr [eax], al
  === BLOCK LINK ===
    0x37e0
=== CODE BLOCK END ===

=== CODE BLOCK ADDRESS 0x37e0 ===
  0x37e0	xor    	byte ptr [eax], al
  0x37e2	xor    	byte ptr [eax], al
  0x37e4	xor    	byte ptr [eax], al
  0x37e6	xor    	eax, 0x35003200
  0x37eb	add    	byte ptr [ebx], dh
  === BLOCK LINK ===
    0x37ed
=== CODE BLOCK END ===

=== CODE BLOCK ADDRESS 0x37ed ===
  0x37ed	add    	byte ptr [eax + eax], dh
  0x37f0	xor    	dword ptr [eax], eax
  0x37f2	xor    	eax, dword ptr [eax]
  0x37f4	xor    	dword ptr [eax], eax
  0x37f6	xor    	byte ptr [eax], al
  === BLOCK LINK ===
    0x37f8
=== CODE BLOCK END ===

=== CODE BLOCK ADDRESS 0x37f8 ===
  0x37f8	xor    	byte ptr [eax], al
  0x37fa	xor    	byte ptr [eax], al
  0x37fc	xor    	al, 0
  0x37fe	xor    	byte ptr [eax], al
  0x3800	xor    	byte ptr [eax], al
  === BLOCK LINK ===
    0x3802
=== CODE BLOCK END ===

=== CODE BLOCK ADDRESS 0x3802 ===
  0x3802	xor    	byte ptr [eax], al
  0x3804	xor    	byte ptr [eax], al
  0x3806	xor    	byte ptr [eax], al
  0x3808	xor    	dword ptr [eax], eax
  0x380a	xor    	byte ptr [eax], al
  === BLOCK LINK ===
    0x380c
=== CODE BLOCK END ===

=== CODE BLOCK ADDRESS 0x380c ===
  0x380c	xor    	byte ptr [eax], al
  0x380e	xor    	byte ptr [eax], al
  0x3810	xor    	dword ptr [eax], eax
  0x3812	xor    	byte ptr [eax], al
  0x3814	xor    	byte ptr [eax], al
  === BLOCK LINK ===
    0x3816
=== CODE BLOCK END ===

=== CODE BLOCK ADDRESS 0x3816 ===
  0x3816	bound  	eax, qword ptr [eax]
  0x3818	xor    	eax, 0x63006600
  0x381d	add    	byte ptr [ecx], bh
  0x381f	add    	byte ptr [eax], dh
  0x3821	add    	byte ptr [ebp], ah
  === BLOCK LINK ===
    0x3824
=== CODE BLOCK END ===

=== CODE BLOCK ADDRESS 0x3824 ===
  0x3824	aaa    	
  0x3825	add    	byte ptr [eax], dh
  0x3827	add    	byte ptr [edx], dh
  0x3829	add    	byte ptr [edi], dh
  0x382b	add    	byte ptr [esi], ah
  === BLOCK LINK ===
    0x382e
=== CODE BLOCK END ===

=== CODE BLOCK ADDRESS 0x382e ===
  0x382e	add    	byte ptr ss:[edi], dh
  0x3831	add    	byte ptr [eax], bh
  0x3833	add    	byte ptr [edi], dh
  0x3835	add    	byte ptr [ecx], dh
  0x3837	add    	byte ptr [ebp], ah
  === BLOCK LINK ===
    0x383a
=== CODE BLOCK END ===

=== CODE BLOCK ADDRESS 0x383a ===
  0x383a	aaa    	
  0x383b	add    	byte ptr [edi], dh
  0x383d	add    	byte ptr [ebx], dh
  0x383f	add    	byte ptr [ecx], ah
  0x3842	cmp    	byte ptr [eax], al
  === BLOCK LINK ===
    0x3844
=== CODE BLOCK END ===

=== CODE BLOCK ADDRESS 0x3844 ===
  0x3844	add    	byte ptr [eax + eax + 0x65], ah
  0x3849	add    	byte ptr [eax], bh
  0x384b	add    	byte ptr [ecx], bh
  0x384d	add    	byte ptr [ebx], dh
  0x384f	add    	byte ptr [eax], bh
  === BLOCK LINK ===
    0x3851
=== CODE BLOCK END ===

=== CODE BLOCK ADDRESS 0x3851 ===
  0x3851	add    	byte ptr [ebx], ah
  0x3854	cmp    	byte ptr [eax], al
  0x3856	xor    	dword ptr [eax], eax
  0x3858	add    	byte ptr fs:[eax + eax + 0x34], ah
  0x385d	add    	byte ptr [eax], dh
  === BLOCK LINK ===
    0x385f
=== CODE BLOCK END ===

=== CODE BLOCK ADDRESS 0x385f ===
  0x385f	add    	byte ptr [edx], dh
  0x3861	add    	byte ptr [edx], ah
  0x3864	popal  	
  0x3865	add    	byte ptr [esi], dh
  0x3867	add    	byte ptr [0x39006200], dh
  === BLOCK LINK ===
    0x386d
=== CODE BLOCK END ===

=== CODE BLOCK ADDRESS 0x386d ===
  0x386d	add    	byte ptr [edx], dh
  0x386f	add    	byte ptr [eax], dh
  0x3871	add    	byte ptr [ecx], dh
  0x3873	add    	byte ptr [eax + eax + 0x36], ah
  0x3877	add    	byte ptr [eax], dh
  === BLOCK LINK ===
    0x3879
=== CODE BLOCK END ===

=== CODE BLOCK ADDRESS 0x3879 ===
  0x3879	add    	byte ptr [0x33003900], dh
  0x387f	add    	byte ptr [ebp], ah
  0x3882	cmp    	dword ptr [eax], eax
  0x3884	add    	byte ptr ss:[ebx], ah
  0x3888	xor    	al, 0
  === BLOCK LINK ===
    0x388a
=== CODE BLOCK END ===

=== CODE BLOCK ADDRESS 0x388a ===
  0x388a	cmp    	dword ptr [eax], eax
  0x388c	xor    	al, byte ptr [eax]
  0x388e	add    	byte ptr ss:[0x65003100], dh
  0x3895	add    	byte ptr [eax], bh
  0x3897	add    	byte ptr [eax], bh
  === BLOCK LINK ===
    0x3899
=== CODE BLOCK END ===

=== CODE BLOCK ADDRESS 0x3899 ===
  0x3899	add    	byte ptr [ecx], bh
  0x389b	add    	byte ptr [ebx], ah
  0x389e	arpl   	word ptr [eax], ax
  0x38a0	xor    	dword ptr [eax], eax
  0x38a2	xor    	eax, dword ptr [eax]
  === BLOCK LINK ===
    0x38a4
=== CODE BLOCK END ===

=== CODE BLOCK ADDRESS 0x38a4 ===
  0x38a4	add    	byte ptr [ecx], dh
  0x38a7	add    	byte ptr [eax + eax], dh
  0x38aa	xor    	dword ptr [eax], eax
  0x38ac	xor    	eax, 0x62006500
  0x38b1	add    	byte ptr [edx], ah
  === BLOCK LINK ===
    0x38b4
=== CODE BLOCK END ===

=== CODE BLOCK ADDRESS 0x38b4 ===
  0x38b4	xor    	eax, 0x66003300
  0x38b9	add    	byte ptr [ecx], ah
  0x38bc	arpl   	word ptr [eax], ax
  0x38be	xor    	dword ptr [eax], eax
  0x38c0	xor    	dword ptr [eax], eax
  === BLOCK LINK ===
    0x38c2
=== CODE BLOCK END ===

=== CODE BLOCK ADDRESS 0x38c2 ===
  0x38c2	xor    	eax, dword ptr [eax]
  0x38c4	xor    	dword ptr [eax], eax
  0x38c6	popal  	
  0x38c7	add    	byte ptr [ebp], ah
  0x38ca	xor    	byte ptr [eax], al
  === BLOCK LINK ===
    0x38cc
=== CODE BLOCK END ===

=== CODE BLOCK ADDRESS 0x38cc ===
  0x38cc	bound  	eax, qword ptr [eax]
  0x38ce	add    	byte ptr fs:[ebx], dh
  0x38d1	add    	byte ptr [ebx], dh
  0x38d3	add    	byte ptr [ebx], dh
  0x38d5	add    	byte ptr [ebx], ah
  === BLOCK LINK ===
    0x38d8
=== CODE BLOCK END ===

=== CODE BLOCK ADDRESS 0x38d8 ===
  0x38d8	xor    	eax, 0x65006500
  0x38dd	add    	byte ptr [esi], dh
  0x38df	add    	byte ptr [eax], dh
  0x38e1	add    	byte ptr [edx], dh
  0x38e3	add    	byte ptr [ecx], dh
  === BLOCK LINK ===
    0x38e5
=== CODE BLOCK END ===

=== CODE BLOCK ADDRESS 0x38e5 ===
  0x38e5	add    	byte ptr [esi], dh
  0x38e7	add    	byte ptr [edi], dh
  0x38e9	add    	byte ptr [edx], dh
  0x38eb	add    	byte ptr [eax + eax + 0x39], ah
  0x38ef	add    	byte ptr [edi], dh
  === BLOCK LINK ===
    0x38f1
=== CODE BLOCK END ===

=== CODE BLOCK ADDRESS 0x38f1 ===
  0x38f1	add    	byte ptr [ecx], dh
  0x38f3	add    	byte ptr [eax], bh
  0x38f5	add    	byte ptr [ebp], ah
  0x38f8	popal  	
  0x38f9	add    	byte ptr [ebx], dh
  === BLOCK LINK ===
    0x38fb
=== CODE BLOCK END ===

=== CODE BLOCK ADDRESS 0x38fb ===
  0x38fb	add    	byte ptr [ecx], dh
  0x38fd	add    	byte ptr [ecx], ah
  0x3900	cmp    	byte ptr [eax], al
  0x3902	popal  	
  0x3903	add    	byte ptr [ebp], ah
  === BLOCK LINK ===
    0x3906
=== CODE BLOCK END ===

=== CODE BLOCK ADDRESS 0x3906 ===
  0x3906	bound  	eax, qword ptr [eax]
  0x3908	add    	byte ptr fs:[eax], dh
  0x390b	add    	byte ptr [eax + eax + 0x61], ah
  0x390f	add    	byte ptr [eax], dh
  0x3911	add    	byte ptr [eax], dh
  === BLOCK LINK ===
    0x3913
=== CODE BLOCK END ===

=== CODE BLOCK ADDRESS 0x3913 ===
  0x3913	add    	byte ptr [edi], dh
  0x3915	add    	byte ptr [edx], dh
  0x3917	add    	byte ptr [esi], ah
  0x391a	xor    	al, byte ptr [eax]
  0x391c	xor    	eax, 0x38006400
  === BLOCK LINK ===
    0x3921
=== CODE BLOCK END ===

=== CODE BLOCK ADDRESS 0x3921 ===
  0x3921	add    	byte ptr [edi], dh
  0x3923	add    	byte ptr [eax + eax + 0x62], ah
  0x3927	add    	byte ptr [ecx], ah
  0x392a	add    	byte ptr ss:[esi], ah
  0x392e	arpl   	word ptr [eax], ax
  === BLOCK LINK ===
    0x3930
=== CODE BLOCK END ===

=== CODE BLOCK ADDRESS 0x3930 ===
  0x3930	cmp    	dword ptr [eax], eax
  0x3932	xor    	byte ptr [eax], al
  0x3934	add    	byte ptr [esi], ah
  0x3938	add    	byte ptr fs:[0x38003900], dh
  0x393f	add    	byte ptr [ebp], ah
  === BLOCK LINK ===
    0x3942
=== CODE BLOCK END ===

=== CODE BLOCK ADDRESS 0x3942 ===
  0x3942	add    	byte ptr fs:[eax + eax], dh
  0x3946	add    	byte ptr fs:[ecx], ah
  0x394a	xor    	eax, dword ptr [eax]
  0x394c	xor    	eax, 0x34006500
  0x3951	add    	byte ptr [eax + eax], dh
  === BLOCK LINK ===
    0x3954
=== CODE BLOCK END ===

=== CODE BLOCK ADDRESS 0x3954 ===
  0x3954	arpl   	word ptr [eax], ax
  0x3956	xor    	eax, dword ptr [eax]
  0x3958	cmp    	dword ptr [eax], eax
  0x395a	cmp    	byte ptr [eax], al
  0x395c	arpl   	word ptr [eax], ax
  === BLOCK LINK ===
    0x395e
=== CODE BLOCK END ===

=== CODE BLOCK ADDRESS 0x395e ===
  0x395e	xor    	al, 0
  0x3960	xor    	eax, 0x33003400
  0x3965	add    	byte ptr [eax], dh
  0x3967	add    	byte ptr [edi], dh
  0x3969	add    	byte ptr [ebp], ah
  === BLOCK LINK ===
    0x396c
=== CODE BLOCK END ===

=== CODE BLOCK ADDRESS 0x396c ===
  0x396c	cmp    	byte ptr [eax], al
  0x396e	add    	byte ptr gs:[ebx], dh
  0x3971	add    	byte ptr [ebx], dh
  0x3973	add    	byte ptr [edx], ah
  0x3976	cmp    	byte ptr [eax], al
  === BLOCK LINK ===
    0x3978
=== CODE BLOCK END ===

=== CODE BLOCK ADDRESS 0x3978 ===
  0x3978	xor    	al, 0
  0x397a	xor    	al, byte ptr [eax]
  0x397c	add    	byte ptr ss:[ecx], dh
  0x397f	add    	byte ptr [eax + eax], dh
  0x3982	xor    	eax, dword ptr [eax]
  === BLOCK LINK ===
    0x3984
=== CODE BLOCK END ===

=== CODE BLOCK ADDRESS 0x3984 ===
  0x3984	add    	byte ptr fs:[ecx], ah
  0x3988	add    	byte ptr gs:[ebx], ah
  0x398c	cmp    	dword ptr [eax], eax
  0x398e	add    	byte ptr [0x36003900], dh
  0x3995	add    	byte ptr [eax], bh
  === BLOCK LINK ===
    0x3997
=== CODE BLOCK END ===

=== CODE BLOCK ADDRESS 0x3997 ===
  0x3997	add    	byte ptr [ebx], dh
  0x3999	add    	byte ptr [esi], dh
  0x399b	add    	byte ptr [esi], ah
  0x399e	cmp    	dword ptr [eax], eax
  0x39a0	aaa    	
  === BLOCK LINK ===
    0x39a1
=== CODE BLOCK END ===

=== CODE BLOCK ADDRESS 0x39a1 ===
  0x39a1	add    	byte ptr [ebx], ah
  0x39a4	cmp    	byte ptr [eax], al
  0x39a6	add    	byte ptr [edi], dh
  0x39a9	add    	byte ptr [eax + eax], dh
  0x39ac	aaa    	
  === BLOCK LINK ===
    0x39ad
=== CODE BLOCK END ===

=== CODE BLOCK ADDRESS 0x39ad ===
  0x39ad	add    	byte ptr [0x65003000], dh
  0x39b3	add    	byte ptr [0x37003900], dh
  0x39b9	add    	byte ptr [0x36006300], dh
  0x39bf	add    	byte ptr [eax + eax], dh
  0x39c2	add    	byte ptr gs:[edx], dh
  === BLOCK LINK ===
    0x39c5
=== CODE BLOCK END ===

=== CODE BLOCK ADDRESS 0x39c5 ===
  0x39c5	add    	byte ptr [ecx], dh
  0x39c7	add    	byte ptr [eax], bh
  0x39c9	add    	byte ptr [ecx], bh
  0x39cb	add    	byte ptr [esi], ah
  0x39ce	xor    	al, 0
  === BLOCK LINK ===
    0x39d0
=== CODE BLOCK END ===

=== CODE BLOCK ADDRESS 0x39d0 ===
  0x39d0	xor    	eax, 0x65006400
  0x39d5	add    	byte ptr [esi], ah
  0x39d8	xor    	al, 0
  0x39da	add    	byte ptr ss:[edx], ah
  0x39de	xor    	al, byte ptr [eax]
  === BLOCK LINK ===
    0x39e0
=== CODE BLOCK END ===

=== CODE BLOCK ADDRESS 0x39e0 ===
  0x39e0	popal  	
  0x39e1	add    	byte ptr [edx], dh
  0x39e3	add    	byte ptr [edx], ah
  0x39e6	xor    	dword ptr [eax], eax
  0x39e8	xor    	al, byte ptr [eax]
  === BLOCK LINK ===
    0x39ea
=== CODE BLOCK END ===

=== CODE BLOCK ADDRESS 0x39ea ===
  0x39ea	xor    	al, 0
  0x39ec	aaa    	
  0x39ed	add    	byte ptr [ecx], ah
  0x39f0	add    	byte ptr fs:[ebx], ah
  0x39f4	xor    	eax, dword ptr [eax]
  === BLOCK LINK ===
    0x39f6
=== CODE BLOCK END ===

=== CODE BLOCK ADDRESS 0x39f6 ===
  0x39f6	add    	byte ptr ss:[0x62003200], dh
  0x39fd	add    	byte ptr [esi], ah
  0x3a00	xor    	eax, 0x33006300
  0x3a05	add    	byte ptr [eax], dh
  0x3a07	add    	byte ptr [eax], bh
  === BLOCK LINK ===
    0x3a09
=== CODE BLOCK END ===

=== CODE BLOCK ADDRESS 0x3a09 ===
  0x3a09	add    	byte ptr [eax], dh
  0x3a0b	add    	byte ptr [0x64003500], dh
  0x3a11	add    	byte ptr [ecx], ah
  0x3a14	cmp    	dword ptr [eax], eax
  0x3a16	or     	dl, 0x50
  === BLOCK LINK ===
    0x3a19
=== CODE BLOCK END ===

=== CODE BLOCK ADDRESS 0x3a19 ===
  0x3a19	add    	byte ptr [edx], dh
  0x3a1c	add    	byte ptr gs:[ebx], dh
  0x3a20	add    	byte ptr gs:[esi], ch
  0x3a24	je     	0x3a26
  === BLOCK LINK ===
    0x3a26
=== CODE BLOCK END ===

=== CODE BLOCK ADDRESS 0x3a26 ===
  0x3a26	popal  	
  0x3a27	add    	byte ptr [eax + eax + 0x69], dh
  0x3a2b	add    	byte ptr [edi], ch
  0x3a2e	outsb  	dx, byte ptr [esi]
  0x3a2f	add    	byte ptr [ebx], al
  === BLOCK LINK ===
    0x3a32
=== CODE BLOCK END ===

=== CODE BLOCK ADDRESS 0x3a32 ===
  0x3a32	inc    	esi
  0x3a33	add    	byte ptr [esi], al
  0x3a36	push   	edx
  0x3a37	add    	byte ptr [ecx], ah
  0x3a3a	jae    	0x3a3c
  === BLOCK LINK ===
    0x3a3c
=== CODE BLOCK END ===

=== CODE BLOCK ADDRESS 0x3a3c ===
  0x3a3c	je     	0x3a3e
  === BLOCK LINK ===
    0x3a3e
=== CODE BLOCK END ===

=== CODE BLOCK ADDRESS 0x3a3e ===
  0x3a3e	add    	byte ptr gs:[edx], dh
  0x3a42	imul   	eax, dword ptr [eax], 0x65007a
  0x3a48	jb     	0x3a4a
  === BLOCK LINK ===
    0x3a4a
=== CODE BLOCK END ===

=== CODE BLOCK ADDRESS 0x3a4a ===
  0x3a4a	sub    	al, 0
  0x3a4c	and    	byte ptr [eax], al
  0x3a4e	push   	eax
  0x3a4f	add    	byte ptr [ebp], dh
  0x3a52	bound  	eax, qword ptr [eax]
  === BLOCK LINK ===
    0x3a54
=== CODE BLOCK END ===

=== CODE BLOCK ADDRESS 0x3a54 ===
  0x3a54	insb   	byte ptr es:[edi], dx
  0x3a55	add    	byte ptr [ecx], ch
  0x3a58	arpl   	word ptr [eax], ax
  0x3a5a	dec    	ebx
  0x3a5b	add    	byte ptr [ebp], ah
  === BLOCK LINK ===
    0x3a5e
=== CODE BLOCK END ===

=== CODE BLOCK ADDRESS 0x3a5e ===
  0x3a5e	jns    	0x3a60
  === BLOCK LINK ===
    0x3a60
=== CODE BLOCK END ===

=== CODE BLOCK ADDRESS 0x3a60 ===
  0x3a60	cmp    	eax, 0x30003000
  0x3a65	add    	byte ptr [edx], dh
  0x3a67	add    	byte ptr [eax + eax], dh
  0x3a6a	xor    	byte ptr [eax], al
  0x3a6c	xor    	byte ptr [eax], al
  === BLOCK LINK ===
    0x3a6e
=== CODE BLOCK END ===

=== CODE BLOCK ADDRESS 0x3a6e ===
  0x3a6e	xor    	byte ptr [eax], al
  0x3a70	xor    	byte ptr [eax], al
  0x3a72	xor    	byte ptr [eax], al
  0x3a74	xor    	al, 0
  0x3a76	cmp    	byte ptr [eax], al
  === BLOCK LINK ===
    0x3a78
=== CODE BLOCK END ===

=== CODE BLOCK ADDRESS 0x3a78 ===
  0x3a78	xor    	byte ptr [eax], al
  0x3a7a	xor    	byte ptr [eax], al
  0x3a7c	xor    	byte ptr [eax], al
  0x3a7e	xor    	byte ptr [eax], al
  0x3a80	xor    	byte ptr [eax], al
  === BLOCK LINK ===
    0x3a82
=== CODE BLOCK END ===

=== CODE BLOCK ADDRESS 0x3a82 ===
  0x3a82	cmp    	dword ptr [eax], eax
  0x3a84	xor    	al, 0
  0x3a86	xor    	byte ptr [eax], al
  0x3a88	xor    	byte ptr [eax], al
  0x3a8a	xor    	byte ptr [eax], al
  === BLOCK LINK ===
    0x3a8c
=== CODE BLOCK END ===

=== CODE BLOCK ADDRESS 0x3a8c ===
  0x3a8c	xor    	byte ptr [eax], al
  0x3a8e	xor    	byte ptr [eax], al
  0x3a90	xor    	byte ptr [eax], al
  0x3a92	xor    	byte ptr [eax], al
  0x3a94	add    	byte ptr ss:[eax], dh
  === BLOCK LINK ===
    0x3a97
=== CODE BLOCK END ===

=== CODE BLOCK ADDRESS 0x3a97 ===
  0x3a97	add    	byte ptr [edx], dh
  0x3a99	add    	byte ptr [eax], dh
  0x3a9b	add    	byte ptr [eax], dh
  0x3a9d	add    	byte ptr [eax], dh
  0x3a9f	add    	byte ptr [eax], dh
  === BLOCK LINK ===
    0x3aa1
=== CODE BLOCK END ===

=== CODE BLOCK ADDRESS 0x3aa1 ===
  0x3aa1	add    	byte ptr [eax], dh
  0x3aa3	add    	byte ptr [eax], dh
  0x3aa5	add    	byte ptr [edx], dh
  0x3aa7	add    	byte ptr [eax + eax], dh
  0x3aaa	xor    	byte ptr [eax], al
  === BLOCK LINK ===
    0x3aac
=== CODE BLOCK END ===

=== CODE BLOCK ADDRESS 0x3aac ===
  0x3aac	xor    	byte ptr [eax], al
  0x3aae	xor    	byte ptr [eax], al
  0x3ab0	xor    	byte ptr [eax], al
  0x3ab2	xor    	eax, 0x35003200
  0x3ab7	add    	byte ptr [ebx], dh
  === BLOCK LINK ===
    0x3ab9
=== CODE BLOCK END ===

=== CODE BLOCK ADDRESS 0x3ab9 ===
  0x3ab9	add    	byte ptr [eax + eax], dh
  0x3abc	xor    	dword ptr [eax], eax
  0x3abe	xor    	eax, dword ptr [eax]
  0x3ac0	xor    	dword ptr [eax], eax
  0x3ac2	xor    	byte ptr [eax], al
  === BLOCK LINK ===
    0x3ac4
=== CODE BLOCK END ===

=== CODE BLOCK ADDRESS 0x3ac4 ===
  0x3ac4	xor    	byte ptr [eax], al
  0x3ac6	xor    	byte ptr [eax], al
  0x3ac8	xor    	al, 0
  0x3aca	xor    	byte ptr [eax], al
  0x3acc	xor    	byte ptr [eax], al
  === BLOCK LINK ===
    0x3ace
=== CODE BLOCK END ===

=== CODE BLOCK ADDRESS 0x3ace ===
  0x3ace	xor    	byte ptr [eax], al
  0x3ad0	xor    	byte ptr [eax], al
  0x3ad2	xor    	byte ptr [eax], al
  0x3ad4	xor    	dword ptr [eax], eax
  0x3ad6	xor    	byte ptr [eax], al
  === BLOCK LINK ===
    0x3ad8
=== CODE BLOCK END ===

=== CODE BLOCK ADDRESS 0x3ad8 ===
  0x3ad8	xor    	byte ptr [eax], al
  0x3ada	xor    	byte ptr [eax], al
  0x3adc	xor    	dword ptr [eax], eax
  0x3ade	xor    	byte ptr [eax], al
  0x3ae0	xor    	byte ptr [eax], al
  === BLOCK LINK ===
    0x3ae2
=== CODE BLOCK END ===

=== CODE BLOCK ADDRESS 0x3ae2 ===
  0x3ae2	bound  	eax, qword ptr [eax]
  0x3ae4	xor    	eax, 0x63006600
  0x3ae9	add    	byte ptr [ecx], bh
  0x3aeb	add    	byte ptr [eax], dh
  0x3aed	add    	byte ptr [ebp], ah
  === BLOCK LINK ===
    0x3af0
=== CODE BLOCK END ===

=== CODE BLOCK ADDRESS 0x3af0 ===
  0x3af0	aaa    	
  0x3af1	add    	byte ptr [eax], dh
  0x3af3	add    	byte ptr [edx], dh
  0x3af5	add    	byte ptr [edi], dh
  0x3af7	add    	byte ptr [esi], ah
  === BLOCK LINK ===
    0x3afa
=== CODE BLOCK END ===

=== CODE BLOCK ADDRESS 0x3afa ===
  0x3afa	add    	byte ptr ss:[edi], dh
  0x3afd	add    	byte ptr [eax], bh
  0x3aff	add    	byte ptr [edi], dh
  0x3b01	add    	byte ptr [ecx], dh
  0x3b03	add    	byte ptr [ebp], ah
  === BLOCK LINK ===
    0x3b06
=== CODE BLOCK END ===

=== CODE BLOCK ADDRESS 0x3b06 ===
  0x3b06	aaa    	
  0x3b07	add    	byte ptr [edi], dh
  0x3b09	add    	byte ptr [ebx], dh
  0x3b0b	add    	byte ptr [ecx], ah
  0x3b0e	cmp    	byte ptr [eax], al
  === BLOCK LINK ===
    0x3b10
=== CODE BLOCK END ===

=== CODE BLOCK ADDRESS 0x3b10 ===
  0x3b10	add    	byte ptr [eax + eax + 0x65], ah
  0x3b15	add    	byte ptr [eax], bh
  0x3b17	add    	byte ptr [ecx], bh
  0x3b19	add    	byte ptr [ebx], dh
  0x3b1b	add    	byte ptr [eax], bh
  === BLOCK LINK ===
    0x3b1d
=== CODE BLOCK END ===

=== CODE BLOCK ADDRESS 0x3b1d ===
  0x3b1d	add    	byte ptr [ebx], ah
  0x3b20	cmp    	byte ptr [eax], al
  0x3b22	xor    	dword ptr [eax], eax
  0x3b24	add    	byte ptr fs:[eax + eax + 0x34], ah
  0x3b29	add    	byte ptr [eax], dh
  === BLOCK LINK ===
    0x3b2b
=== CODE BLOCK END ===

=== CODE BLOCK ADDRESS 0x3b2b ===
  0x3b2b	add    	byte ptr [edx], dh
  0x3b2d	add    	byte ptr [edx], ah
  0x3b30	popal  	
  0x3b31	add    	byte ptr [esi], dh
  0x3b33	add    	byte ptr [0x39006200], dh
  === BLOCK LINK ===
    0x3b39
=== CODE BLOCK END ===

=== CODE BLOCK ADDRESS 0x3b39 ===
  0x3b39	add    	byte ptr [edx], dh
  0x3b3b	add    	byte ptr [eax], dh
  0x3b3d	add    	byte ptr [ecx], dh
  0x3b3f	add    	byte ptr [eax + eax + 0x36], ah
  0x3b43	add    	byte ptr [eax], dh
  === BLOCK LINK ===
    0x3b45
=== CODE BLOCK END ===

=== CODE BLOCK ADDRESS 0x3b45 ===
  0x3b45	add    	byte ptr [0x33003900], dh
  0x3b4b	add    	byte ptr [ebp], ah
  0x3b4e	cmp    	dword ptr [eax], eax
  0x3b50	add    	byte ptr ss:[ebx], ah
  0x3b54	xor    	al, 0
  === BLOCK LINK ===
    0x3b56
=== CODE BLOCK END ===

=== CODE BLOCK ADDRESS 0x3b56 ===
  0x3b56	cmp    	dword ptr [eax], eax
  0x3b58	xor    	al, byte ptr [eax]
  0x3b5a	add    	byte ptr ss:[0x65003100], dh
  0x3b61	add    	byte ptr [eax], bh
  0x3b63	add    	byte ptr [eax], bh
  === BLOCK LINK ===
    0x3b65
=== CODE BLOCK END ===

=== CODE BLOCK ADDRESS 0x3b65 ===
  0x3b65	add    	byte ptr [ecx], bh
  0x3b67	add    	byte ptr [ebx], ah
  0x3b6a	arpl   	word ptr [eax], ax
  0x3b6c	xor    	dword ptr [eax], eax
  0x3b6e	xor    	eax, dword ptr [eax]
  === BLOCK LINK ===
    0x3b70
=== CODE BLOCK END ===

=== CODE BLOCK ADDRESS 0x3b70 ===
  0x3b70	add    	byte ptr [ecx], dh
  0x3b73	add    	byte ptr [eax + eax], dh
  0x3b76	xor    	dword ptr [eax], eax
  0x3b78	xor    	eax, 0x62006500
  0x3b7d	add    	byte ptr [edx], ah
  === BLOCK LINK ===
    0x3b80
=== CODE BLOCK END ===

=== CODE BLOCK ADDRESS 0x3b80 ===
  0x3b80	xor    	eax, 0x66003300
  0x3b85	add    	byte ptr [ecx], ah
  0x3b88	arpl   	word ptr [eax], ax
  0x3b8a	xor    	dword ptr [eax], eax
  0x3b8c	xor    	dword ptr [eax], eax
  === BLOCK LINK ===
    0x3b8e
=== CODE BLOCK END ===

=== CODE BLOCK ADDRESS 0x3b8e ===
  0x3b8e	xor    	eax, dword ptr [eax]
  0x3b90	xor    	dword ptr [eax], eax
  0x3b92	popal  	
  0x3b93	add    	byte ptr [ebp], ah
  0x3b96	xor    	byte ptr [eax], al
  === BLOCK LINK ===
    0x3b98
=== CODE BLOCK END ===

=== CODE BLOCK ADDRESS 0x3b98 ===
  0x3b98	bound  	eax, qword ptr [eax]
  0x3b9a	add    	byte ptr fs:[ebx], dh
  0x3b9d	add    	byte ptr [ebx], dh
  0x3b9f	add    	byte ptr [ebx], dh
  0x3ba1	add    	byte ptr [ebx], ah
  === BLOCK LINK ===
    0x3ba4
=== CODE BLOCK END ===

=== CODE BLOCK ADDRESS 0x3ba4 ===
  0x3ba4	xor    	eax, 0x65006500
  0x3ba9	add    	byte ptr [esi], dh
  0x3bab	add    	byte ptr [eax], dh
  0x3bad	add    	byte ptr [edx], dh
  0x3baf	add    	byte ptr [ecx], dh
  === BLOCK LINK ===
    0x3bb1
=== CODE BLOCK END ===

=== CODE BLOCK ADDRESS 0x3bb1 ===
  0x3bb1	add    	byte ptr [esi], dh
  0x3bb3	add    	byte ptr [edi], dh
  0x3bb5	add    	byte ptr [edx], dh
  0x3bb7	add    	byte ptr [eax + eax + 0x39], ah
  0x3bbb	add    	byte ptr [edi], dh
  === BLOCK LINK ===
    0x3bbd
=== CODE BLOCK END ===

=== CODE BLOCK ADDRESS 0x3bbd ===
  0x3bbd	add    	byte ptr [ecx], dh
  0x3bbf	add    	byte ptr [eax], bh
  0x3bc1	add    	byte ptr [ebp], ah
  0x3bc4	popal  	
  0x3bc5	add    	byte ptr [ebx], dh
  === BLOCK LINK ===
    0x3bc7
=== CODE BLOCK END ===

=== CODE BLOCK ADDRESS 0x3bc7 ===
  0x3bc7	add    	byte ptr [ecx], dh
  0x3bc9	add    	byte ptr [ecx], ah
  0x3bcc	cmp    	byte ptr [eax], al
  0x3bce	popal  	
  0x3bcf	add    	byte ptr [ebp], ah
  === BLOCK LINK ===
    0x3bd2
=== CODE BLOCK END ===

=== CODE BLOCK ADDRESS 0x3bd2 ===
  0x3bd2	bound  	eax, qword ptr [eax]
  0x3bd4	add    	byte ptr fs:[eax], dh
  0x3bd7	add    	byte ptr [eax + eax + 0x61], ah
  0x3bdb	add    	byte ptr [eax], dh
  0x3bdd	add    	byte ptr [eax], dh
  === BLOCK LINK ===
    0x3bdf
=== CODE BLOCK END ===

=== CODE BLOCK ADDRESS 0x3bdf ===
  0x3bdf	add    	byte ptr [edi], dh
  0x3be1	add    	byte ptr [edx], dh
  0x3be3	add    	byte ptr [esi], ah
  0x3be6	xor    	al, byte ptr [eax]
  0x3be8	xor    	eax, 0x38006400
  === BLOCK LINK ===
    0x3bed
=== CODE BLOCK END ===

=== CODE BLOCK ADDRESS 0x3bed ===
  0x3bed	add    	byte ptr [edi], dh
  0x3bef	add    	byte ptr [eax + eax + 0x62], ah
  0x3bf3	add    	byte ptr [ecx], ah
  0x3bf6	add    	byte ptr ss:[esi], ah
  0x3bfa	arpl   	word ptr [eax], ax
  === BLOCK LINK ===
    0x3bfc
=== CODE BLOCK END ===

=== CODE BLOCK ADDRESS 0x3bfc ===
  0x3bfc	cmp    	dword ptr [eax], eax
  0x3bfe	xor    	byte ptr [eax], al
  0x3c00	add    	byte ptr [esi], ah
  0x3c04	add    	byte ptr fs:[0x38003900], dh
  0x3c0b	add    	byte ptr [ebp], ah
  === BLOCK LINK ===
    0x3c0e
=== CODE BLOCK END ===

=== CODE BLOCK ADDRESS 0x3c0e ===
  0x3c0e	add    	byte ptr fs:[eax + eax], dh
  0x3c12	add    	byte ptr fs:[ecx], ah
  0x3c16	xor    	eax, dword ptr [eax]
  0x3c18	xor    	eax, 0x34006500
  0x3c1d	add    	byte ptr [eax + eax], dh
  === BLOCK LINK ===
    0x3c20
=== CODE BLOCK END ===

=== CODE BLOCK ADDRESS 0x3c20 ===
  0x3c20	arpl   	word ptr [eax], ax
  0x3c22	xor    	eax, dword ptr [eax]
  0x3c24	cmp    	dword ptr [eax], eax
  0x3c26	cmp    	byte ptr [eax], al
  0x3c28	arpl   	word ptr [eax], ax
  === BLOCK LINK ===
    0x3c2a
=== CODE BLOCK END ===

=== CODE BLOCK ADDRESS 0x3c2a ===
  0x3c2a	xor    	al, 0
  0x3c2c	xor    	eax, 0x33003400
  0x3c31	add    	byte ptr [eax], dh
  0x3c33	add    	byte ptr [edi], dh
  0x3c35	add    	byte ptr [ebp], ah
  === BLOCK LINK ===
    0x3c38
=== CODE BLOCK END ===

=== CODE BLOCK ADDRESS 0x3c38 ===
  0x3c38	cmp    	byte ptr [eax], al
  0x3c3a	add    	byte ptr gs:[ebx], dh
  0x3c3d	add    	byte ptr [ebx], dh
  0x3c3f	add    	byte ptr [edx], ah
  0x3c42	cmp    	byte ptr [eax], al
  === BLOCK LINK ===
    0x3c44
=== CODE BLOCK END ===

=== CODE BLOCK ADDRESS 0x3c44 ===
  0x3c44	xor    	al, 0
  0x3c46	xor    	al, byte ptr [eax]
  0x3c48	add    	byte ptr ss:[ecx], dh
  0x3c4b	add    	byte ptr [eax + eax], dh
  0x3c4e	xor    	eax, dword ptr [eax]
  === BLOCK LINK ===
    0x3c50
=== CODE BLOCK END ===

=== CODE BLOCK ADDRESS 0x3c50 ===
  0x3c50	add    	byte ptr fs:[ecx], ah
  0x3c54	add    	byte ptr gs:[ebx], ah
  0x3c58	cmp    	dword ptr [eax], eax
  0x3c5a	add    	byte ptr [0x36003900], dh
  0x3c61	add    	byte ptr [eax], bh
  === BLOCK LINK ===
    0x3c63
=== CODE BLOCK END ===

=== CODE BLOCK ADDRESS 0x3c63 ===
  0x3c63	add    	byte ptr [ebx], dh
  0x3c65	add    	byte ptr [esi], dh
  0x3c67	add    	byte ptr [esi], ah
  0x3c6a	cmp    	dword ptr [eax], eax
  0x3c6c	aaa    	
  === BLOCK LINK ===
    0x3c6d
=== CODE BLOCK END ===

=== CODE BLOCK ADDRESS 0x3c6d ===
  0x3c6d	add    	byte ptr [ebx], ah
  0x3c70	cmp    	byte ptr [eax], al
  0x3c72	add    	byte ptr [edi], dh
  0x3c75	add    	byte ptr [eax + eax], dh
  0x3c78	aaa    	
  === BLOCK LINK ===
    0x3c79
=== CODE BLOCK END ===

=== CODE BLOCK ADDRESS 0x3c79 ===
  0x3c79	add    	byte ptr [0x65003000], dh
  0x3c7f	add    	byte ptr [0x37003900], dh
  0x3c85	add    	byte ptr [0x36006300], dh
  0x3c8b	add    	byte ptr [eax + eax], dh
  0x3c8e	add    	byte ptr gs:[edx], dh
  === BLOCK LINK ===
    0x3c91
=== CODE BLOCK END ===

=== CODE BLOCK ADDRESS 0x3c91 ===
  0x3c91	add    	byte ptr [ecx], dh
  0x3c93	add    	byte ptr [eax], bh
  0x3c95	add    	byte ptr [ecx], bh
  0x3c97	add    	byte ptr [esi], ah
  0x3c9a	xor    	al, 0
  === BLOCK LINK ===
    0x3c9c
=== CODE BLOCK END ===

=== CODE BLOCK ADDRESS 0x3c9c ===
  0x3c9c	xor    	eax, 0x65006400
  0x3ca1	add    	byte ptr [esi], ah
  0x3ca4	xor    	al, 0
  0x3ca6	add    	byte ptr ss:[edx], ah
  0x3caa	xor    	al, byte ptr [eax]
  === BLOCK LINK ===
    0x3cac
=== CODE BLOCK END ===

=== CODE BLOCK ADDRESS 0x3cac ===
  0x3cac	popal  	
  0x3cad	add    	byte ptr [edx], dh
  0x3caf	add    	byte ptr [edx], ah
  0x3cb2	xor    	dword ptr [eax], eax
  0x3cb4	xor    	al, byte ptr [eax]
  === BLOCK LINK ===
    0x3cb6
=== CODE BLOCK END ===

=== CODE BLOCK ADDRESS 0x3cb6 ===
  0x3cb6	xor    	al, 0
  0x3cb8	aaa    	
  0x3cb9	add    	byte ptr [ecx], ah
  0x3cbc	add    	byte ptr fs:[ebx], ah
  0x3cc0	xor    	eax, dword ptr [eax]
  === BLOCK LINK ===
    0x3cc2
=== CODE BLOCK END ===

=== CODE BLOCK ADDRESS 0x3cc2 ===
  0x3cc2	add    	byte ptr ss:[0x62003200], dh
  0x3cc9	add    	byte ptr [esi], ah
  0x3ccc	xor    	eax, 0x33006300
  0x3cd1	add    	byte ptr [eax], dh
  0x3cd3	add    	byte ptr [eax], bh
  === BLOCK LINK ===
    0x3cd5
=== CODE BLOCK END ===

=== CODE BLOCK ADDRESS 0x3cd5 ===
  0x3cd5	add    	byte ptr [eax], dh
  0x3cd7	add    	byte ptr [0x64003500], dh
  0x3cdd	add    	byte ptr [ecx], ah
  0x3ce0	cmp    	dword ptr [eax], eax
  0x3ce2	add    	dl, 0x50
  === BLOCK LINK ===
    0x3ce5
=== CODE BLOCK END ===

=== CODE BLOCK ADDRESS 0x3ce5 ===
  0x3ce5	add    	byte ptr [edx], dh
  0x3ce8	add    	byte ptr gs:[ebx], dh
  0x3cec	add    	byte ptr gs:[esi], ch
  0x3cf0	je     	0x3cf2
  === BLOCK LINK ===
    0x3cf2
=== CODE BLOCK END ===

=== CODE BLOCK ADDRESS 0x3cf2 ===
  0x3cf2	popal  	
  0x3cf3	add    	byte ptr [eax + eax + 0x69], dh
  0x3cf7	add    	byte ptr [edi], ch
  0x3cfa	outsb  	dx, byte ptr [esi]
  0x3cfb	add    	byte ptr [esi], al
  === BLOCK LINK ===
    0x3cfe
=== CODE BLOCK END ===

=== CODE BLOCK ADDRESS 0x3cfe ===
  0x3cfe	outsd  	dx, dword ptr [esi]
  0x3cff	add    	byte ptr [esi], ch
  0x3d02	je     	0x3d04
  === BLOCK LINK ===
    0x3d04
=== CODE BLOCK END ===

=== CODE BLOCK ADDRESS 0x3d04 ===
  0x3d04	inc    	ebx
  0x3d05	add    	byte ptr [ecx], ah
  0x3d08	arpl   	word ptr [eax], ax
  0x3d0a	push   	0x2c006500
  0x3d0f	add    	byte ptr [eax], ah
  === BLOCK LINK ===
    0x3d11
=== CODE BLOCK END ===

=== CODE BLOCK ADDRESS 0x3d11 ===
  0x3d11	add    	byte ptr [eax], dl
  0x3d14	jne    	0x3d16
  === BLOCK LINK ===
    0x3d16
=== CODE BLOCK END ===

=== CODE BLOCK ADDRESS 0x3d16 ===
  0x3d16	bound  	eax, qword ptr [eax]
  0x3d18	insb   	byte ptr es:[edi], dx
  0x3d19	add    	byte ptr [ecx], ch
  0x3d1c	arpl   	word ptr [eax], ax
  0x3d1e	dec    	ebx
  === BLOCK LINK ===
    0x3d1f
=== CODE BLOCK END ===

=== CODE BLOCK ADDRESS 0x3d1f ===
  0x3d1f	add    	byte ptr [ebp], ah
  0x3d22	jns    	0x3d24
  === BLOCK LINK ===
    0x3d24
=== CODE BLOCK END ===

=== CODE BLOCK ADDRESS 0x3d24 ===
  0x3d24	cmp    	eax, 0x30003000
  0x3d29	add    	byte ptr [edx], dh
  0x3d2b	add    	byte ptr [eax + eax], dh
  0x3d2e	xor    	byte ptr [eax], al
  0x3d30	xor    	byte ptr [eax], al
  === BLOCK LINK ===
    0x3d32
=== CODE BLOCK END ===

=== CODE BLOCK ADDRESS 0x3d32 ===
  0x3d32	xor    	byte ptr [eax], al
  0x3d34	xor    	byte ptr [eax], al
  0x3d36	xor    	byte ptr [eax], al
  0x3d38	xor    	al, 0
  0x3d3a	cmp    	byte ptr [eax], al
  === BLOCK LINK ===
    0x3d3c
=== CODE BLOCK END ===

=== CODE BLOCK ADDRESS 0x3d3c ===
  0x3d3c	xor    	byte ptr [eax], al
  0x3d3e	xor    	byte ptr [eax], al
  0x3d40	xor    	byte ptr [eax], al
  0x3d42	xor    	byte ptr [eax], al
  0x3d44	xor    	byte ptr [eax], al
  === BLOCK LINK ===
    0x3d46
=== CODE BLOCK END ===

=== CODE BLOCK ADDRESS 0x3d46 ===
  0x3d46	cmp    	dword ptr [eax], eax
  0x3d48	xor    	al, 0
  0x3d4a	xor    	byte ptr [eax], al
  0x3d4c	xor    	byte ptr [eax], al
  0x3d4e	xor    	byte ptr [eax], al
  === BLOCK LINK ===
    0x3d50
=== CODE BLOCK END ===

=== CODE BLOCK ADDRESS 0x3d50 ===
  0x3d50	xor    	byte ptr [eax], al
  0x3d52	xor    	byte ptr [eax], al
  0x3d54	xor    	byte ptr [eax], al
  0x3d56	xor    	byte ptr [eax], al
  0x3d58	add    	byte ptr ss:[eax], dh
  === BLOCK LINK ===
    0x3d5b
=== CODE BLOCK END ===

=== CODE BLOCK ADDRESS 0x3d5b ===
  0x3d5b	add    	byte ptr [edx], dh
  0x3d5d	add    	byte ptr [eax], dh
  0x3d5f	add    	byte ptr [eax], dh
  0x3d61	add    	byte ptr [eax], dh
  0x3d63	add    	byte ptr [eax], dh
  === BLOCK LINK ===
    0x3d65
=== CODE BLOCK END ===

=== CODE BLOCK ADDRESS 0x3d65 ===
  0x3d65	add    	byte ptr [eax], dh
  0x3d67	add    	byte ptr [eax], dh
  0x3d69	add    	byte ptr [edx], dh
  0x3d6b	add    	byte ptr [eax + eax], dh
  0x3d6e	xor    	byte ptr [eax], al
  === BLOCK LINK ===
    0x3d70
=== CODE BLOCK END ===

=== CODE BLOCK ADDRESS 0x3d70 ===
  0x3d70	xor    	byte ptr [eax], al
  0x3d72	xor    	byte ptr [eax], al
  0x3d74	xor    	byte ptr [eax], al
  0x3d76	xor    	eax, 0x35003200
  0x3d7b	add    	byte ptr [ebx], dh
  === BLOCK LINK ===
    0x3d7d
=== CODE BLOCK END ===

=== CODE BLOCK ADDRESS 0x3d7d ===
  0x3d7d	add    	byte ptr [eax + eax], dh
  0x3d80	xor    	dword ptr [eax], eax
  0x3d82	xor    	eax, dword ptr [eax]
  0x3d84	xor    	dword ptr [eax], eax
  0x3d86	xor    	byte ptr [eax], al
  === BLOCK LINK ===
    0x3d88
=== CODE BLOCK END ===

=== CODE BLOCK ADDRESS 0x3d88 ===
  0x3d88	xor    	byte ptr [eax], al
  0x3d8a	xor    	byte ptr [eax], al
  0x3d8c	xor    	al, 0
  0x3d8e	xor    	byte ptr [eax], al
  0x3d90	xor    	byte ptr [eax], al
  === BLOCK LINK ===
    0x3d92
=== CODE BLOCK END ===

=== CODE BLOCK ADDRESS 0x3d92 ===
  0x3d92	xor    	byte ptr [eax], al
  0x3d94	xor    	byte ptr [eax], al
  0x3d96	xor    	byte ptr [eax], al
  0x3d98	xor    	dword ptr [eax], eax
  0x3d9a	xor    	byte ptr [eax], al
  === BLOCK LINK ===
    0x3d9c
=== CODE BLOCK END ===

=== CODE BLOCK ADDRESS 0x3d9c ===
  0x3d9c	xor    	byte ptr [eax], al
  0x3d9e	xor    	byte ptr [eax], al
  0x3da0	xor    	dword ptr [eax], eax
  0x3da2	xor    	byte ptr [eax], al
  0x3da4	xor    	byte ptr [eax], al
  === BLOCK LINK ===
    0x3da6
=== CODE BLOCK END ===

=== CODE BLOCK ADDRESS 0x3da6 ===
  0x3da6	bound  	eax, qword ptr [eax]
  0x3da8	xor    	eax, 0x63006600
  0x3dad	add    	byte ptr [ecx], bh
  0x3daf	add    	byte ptr [eax], dh
  0x3db1	add    	byte ptr [ebp], ah
  === BLOCK LINK ===
    0x3db4
=== CODE BLOCK END ===

=== CODE BLOCK ADDRESS 0x3db4 ===
  0x3db4	aaa    	
  0x3db5	add    	byte ptr [eax], dh
  0x3db7	add    	byte ptr [edx], dh
  0x3db9	add    	byte ptr [edi], dh
  0x3dbb	add    	byte ptr [esi], ah
  === BLOCK LINK ===
    0x3dbe
=== CODE BLOCK END ===

=== CODE BLOCK ADDRESS 0x3dbe ===
  0x3dbe	add    	byte ptr ss:[edi], dh
  0x3dc1	add    	byte ptr [eax], bh
  0x3dc3	add    	byte ptr [edi], dh
  0x3dc5	add    	byte ptr [ecx], dh
  0x3dc7	add    	byte ptr [ebp], ah
  === BLOCK LINK ===
    0x3dca
=== CODE BLOCK END ===

=== CODE BLOCK ADDRESS 0x3dca ===
  0x3dca	aaa    	
  0x3dcb	add    	byte ptr [edi], dh
  0x3dcd	add    	byte ptr [ebx], dh
  0x3dcf	add    	byte ptr [ecx], ah
  0x3dd2	cmp    	byte ptr [eax], al
  === BLOCK LINK ===
    0x3dd4
=== CODE BLOCK END ===

=== CODE BLOCK ADDRESS 0x3dd4 ===
  0x3dd4	add    	byte ptr [eax + eax + 0x65], ah
  0x3dd9	add    	byte ptr [eax], bh
  0x3ddb	add    	byte ptr [ecx], bh
  0x3ddd	add    	byte ptr [ebx], dh
  0x3ddf	add    	byte ptr [eax], bh
  === BLOCK LINK ===
    0x3de1
=== CODE BLOCK END ===

=== CODE BLOCK ADDRESS 0x3de1 ===
  0x3de1	add    	byte ptr [ebx], ah
  0x3de4	cmp    	byte ptr [eax], al
  0x3de6	xor    	dword ptr [eax], eax
  0x3de8	add    	byte ptr fs:[eax + eax + 0x34], ah
  0x3ded	add    	byte ptr [eax], dh
  === BLOCK LINK ===
    0x3def
=== CODE BLOCK END ===

=== CODE BLOCK ADDRESS 0x3def ===
  0x3def	add    	byte ptr [edx], dh
  0x3df1	add    	byte ptr [edx], ah
  0x3df4	popal  	
  0x3df5	add    	byte ptr [esi], dh
  0x3df7	add    	byte ptr [0x39006200], dh
  === BLOCK LINK ===
    0x3dfd
=== CODE BLOCK END ===

=== CODE BLOCK ADDRESS 0x3dfd ===
  0x3dfd	add    	byte ptr [edx], dh
  0x3dff	add    	byte ptr [eax], dh
  0x3e01	add    	byte ptr [ecx], dh
  0x3e03	add    	byte ptr [eax + eax + 0x36], ah
  0x3e07	add    	byte ptr [eax], dh
  === BLOCK LINK ===
    0x3e09
=== CODE BLOCK END ===

=== CODE BLOCK ADDRESS 0x3e09 ===
  0x3e09	add    	byte ptr [0x33003900], dh
  0x3e0f	add    	byte ptr [ebp], ah
  0x3e12	cmp    	dword ptr [eax], eax
  0x3e14	add    	byte ptr ss:[ebx], ah
  0x3e18	xor    	al, 0
  === BLOCK LINK ===
    0x3e1a
=== CODE BLOCK END ===

=== CODE BLOCK ADDRESS 0x3e1a ===
  0x3e1a	cmp    	dword ptr [eax], eax
  0x3e1c	xor    	al, byte ptr [eax]
  0x3e1e	add    	byte ptr ss:[0x65003100], dh
  0x3e25	add    	byte ptr [eax], bh
  0x3e27	add    	byte ptr [eax], bh
  === BLOCK LINK ===
    0x3e29
=== CODE BLOCK END ===

=== CODE BLOCK ADDRESS 0x3e29 ===
  0x3e29	add    	byte ptr [ecx], bh
  0x3e2b	add    	byte ptr [ebx], ah
  0x3e2e	arpl   	word ptr [eax], ax
  0x3e30	xor    	dword ptr [eax], eax
  0x3e32	xor    	eax, dword ptr [eax]
  === BLOCK LINK ===
    0x3e34
=== CODE BLOCK END ===

=== CODE BLOCK ADDRESS 0x3e34 ===
  0x3e34	add    	byte ptr [ecx], dh
  0x3e37	add    	byte ptr [eax + eax], dh
  0x3e3a	xor    	dword ptr [eax], eax
  0x3e3c	xor    	eax, 0x62006500
  0x3e41	add    	byte ptr [edx], ah
  === BLOCK LINK ===
    0x3e44
=== CODE BLOCK END ===

=== CODE BLOCK ADDRESS 0x3e44 ===
  0x3e44	xor    	eax, 0x66003300
  0x3e49	add    	byte ptr [ecx], ah
  0x3e4c	arpl   	word ptr [eax], ax
  0x3e4e	xor    	dword ptr [eax], eax
  0x3e50	xor    	dword ptr [eax], eax
  === BLOCK LINK ===
    0x3e52
=== CODE BLOCK END ===

=== CODE BLOCK ADDRESS 0x3e52 ===
  0x3e52	xor    	eax, dword ptr [eax]
  0x3e54	xor    	dword ptr [eax], eax
  0x3e56	popal  	
  0x3e57	add    	byte ptr [ebp], ah
  0x3e5a	xor    	byte ptr [eax], al
  === BLOCK LINK ===
    0x3e5c
=== CODE BLOCK END ===

=== CODE BLOCK ADDRESS 0x3e5c ===
  0x3e5c	bound  	eax, qword ptr [eax]
  0x3e5e	add    	byte ptr fs:[ebx], dh
  0x3e61	add    	byte ptr [ebx], dh
  0x3e63	add    	byte ptr [ebx], dh
  0x3e65	add    	byte ptr [ebx], ah
  === BLOCK LINK ===
    0x3e68
=== CODE BLOCK END ===

=== CODE BLOCK ADDRESS 0x3e68 ===
  0x3e68	xor    	eax, 0x65006500
  0x3e6d	add    	byte ptr [esi], dh
  0x3e6f	add    	byte ptr [eax], dh
  0x3e71	add    	byte ptr [edx], dh
  0x3e73	add    	byte ptr [ecx], dh
  === BLOCK LINK ===
    0x3e75
=== CODE BLOCK END ===

=== CODE BLOCK ADDRESS 0x3e75 ===
  0x3e75	add    	byte ptr [esi], dh
  0x3e77	add    	byte ptr [edi], dh
  0x3e79	add    	byte ptr [edx], dh
  0x3e7b	add    	byte ptr [eax + eax + 0x39], ah
  0x3e7f	add    	byte ptr [edi], dh
  === BLOCK LINK ===
    0x3e81
=== CODE BLOCK END ===

=== CODE BLOCK ADDRESS 0x3e81 ===
  0x3e81	add    	byte ptr [ecx], dh
  0x3e83	add    	byte ptr [eax], bh
  0x3e85	add    	byte ptr [ebp], ah
  0x3e88	popal  	
  0x3e89	add    	byte ptr [ebx], dh
  === BLOCK LINK ===
    0x3e8b
=== CODE BLOCK END ===

=== CODE BLOCK ADDRESS 0x3e8b ===
  0x3e8b	add    	byte ptr [ecx], dh
  0x3e8d	add    	byte ptr [ecx], ah
  0x3e90	cmp    	byte ptr [eax], al
  0x3e92	popal  	
  0x3e93	add    	byte ptr [ebp], ah
  === BLOCK LINK ===
    0x3e96
=== CODE BLOCK END ===

=== CODE BLOCK ADDRESS 0x3e96 ===
  0x3e96	bound  	eax, qword ptr [eax]
  0x3e98	add    	byte ptr fs:[eax], dh
  0x3e9b	add    	byte ptr [eax + eax + 0x61], ah
  0x3e9f	add    	byte ptr [eax], dh
  0x3ea1	add    	byte ptr [eax], dh
  === BLOCK LINK ===
    0x3ea3
=== CODE BLOCK END ===

=== CODE BLOCK ADDRESS 0x3ea3 ===
  0x3ea3	add    	byte ptr [edi], dh
  0x3ea5	add    	byte ptr [edx], dh
  0x3ea7	add    	byte ptr [esi], ah
  0x3eaa	xor    	al, byte ptr [eax]
  0x3eac	xor    	eax, 0x38006400
  === BLOCK LINK ===
    0x3eb1
=== CODE BLOCK END ===

=== CODE BLOCK ADDRESS 0x3eb1 ===
  0x3eb1	add    	byte ptr [edi], dh
  0x3eb3	add    	byte ptr [eax + eax + 0x62], ah
  0x3eb7	add    	byte ptr [ecx], ah
  0x3eba	add    	byte ptr ss:[esi], ah
  0x3ebe	arpl   	word ptr [eax], ax
  === BLOCK LINK ===
    0x3ec0
=== CODE BLOCK END ===

=== CODE BLOCK ADDRESS 0x3ec0 ===
  0x3ec0	cmp    	dword ptr [eax], eax
  0x3ec2	xor    	byte ptr [eax], al
  0x3ec4	add    	byte ptr [esi], ah
  0x3ec8	add    	byte ptr fs:[0x38003900], dh
  0x3ecf	add    	byte ptr [ebp], ah
  === BLOCK LINK ===
    0x3ed2
=== CODE BLOCK END ===

=== CODE BLOCK ADDRESS 0x3ed2 ===
  0x3ed2	add    	byte ptr fs:[eax + eax], dh
  0x3ed6	add    	byte ptr fs:[ecx], ah
  0x3eda	xor    	eax, dword ptr [eax]
  0x3edc	xor    	eax, 0x34006500
  0x3ee1	add    	byte ptr [eax + eax], dh
  === BLOCK LINK ===
    0x3ee4
=== CODE BLOCK END ===

=== CODE BLOCK ADDRESS 0x3ee4 ===
  0x3ee4	arpl   	word ptr [eax], ax
  0x3ee6	xor    	eax, dword ptr [eax]
  0x3ee8	cmp    	dword ptr [eax], eax
  0x3eea	cmp    	byte ptr [eax], al
  0x3eec	arpl   	word ptr [eax], ax
  === BLOCK LINK ===
    0x3eee
=== CODE BLOCK END ===

=== CODE BLOCK ADDRESS 0x3eee ===
  0x3eee	xor    	al, 0
  0x3ef0	xor    	eax, 0x33003400
  0x3ef5	add    	byte ptr [eax], dh
  0x3ef7	add    	byte ptr [edi], dh
  0x3ef9	add    	byte ptr [ebp], ah
  === BLOCK LINK ===
    0x3efc
=== CODE BLOCK END ===

=== CODE BLOCK ADDRESS 0x3efc ===
  0x3efc	cmp    	byte ptr [eax], al
  0x3efe	add    	byte ptr gs:[ebx], dh
  0x3f01	add    	byte ptr [ebx], dh
  0x3f03	add    	byte ptr [edx], ah
  0x3f06	cmp    	byte ptr [eax], al
  === BLOCK LINK ===
    0x3f08
=== CODE BLOCK END ===

=== CODE BLOCK ADDRESS 0x3f08 ===
  0x3f08	xor    	al, 0
  0x3f0a	xor    	al, byte ptr [eax]
  0x3f0c	add    	byte ptr ss:[ecx], dh
  0x3f0f	add    	byte ptr [eax + eax], dh
  0x3f12	xor    	eax, dword ptr [eax]
  === BLOCK LINK ===
    0x3f14
=== CODE BLOCK END ===

=== CODE BLOCK ADDRESS 0x3f14 ===
  0x3f14	add    	byte ptr fs:[ecx], ah
  0x3f18	add    	byte ptr gs:[ebx], ah
  0x3f1c	cmp    	dword ptr [eax], eax
  0x3f1e	add    	byte ptr [0x36003900], dh
  0x3f25	add    	byte ptr [eax], bh
  === BLOCK LINK ===
    0x3f27
=== CODE BLOCK END ===

=== CODE BLOCK ADDRESS 0x3f27 ===
  0x3f27	add    	byte ptr [ebx], dh
  0x3f29	add    	byte ptr [esi], dh
  0x3f2b	add    	byte ptr [esi], ah
  0x3f2e	cmp    	dword ptr [eax], eax
  0x3f30	aaa    	
  === BLOCK LINK ===
    0x3f31
=== CODE BLOCK END ===

=== CODE BLOCK ADDRESS 0x3f31 ===
  0x3f31	add    	byte ptr [ebx], ah
  0x3f34	cmp    	byte ptr [eax], al
  0x3f36	add    	byte ptr [edi], dh
  0x3f39	add    	byte ptr [eax + eax], dh
  0x3f3c	aaa    	
  === BLOCK LINK ===
    0x3f3d
=== CODE BLOCK END ===

=== CODE BLOCK ADDRESS 0x3f3d ===
  0x3f3d	add    	byte ptr [0x65003000], dh
  0x3f43	add    	byte ptr [0x37003900], dh
  0x3f49	add    	byte ptr [0x36006300], dh
  0x3f4f	add    	byte ptr [eax + eax], dh
  0x3f52	add    	byte ptr gs:[edx], dh
  === BLOCK LINK ===
    0x3f55
=== CODE BLOCK END ===

=== CODE BLOCK ADDRESS 0x3f55 ===
  0x3f55	add    	byte ptr [ecx], dh
  0x3f57	add    	byte ptr [eax], bh
  0x3f59	add    	byte ptr [ecx], bh
  0x3f5b	add    	byte ptr [esi], ah
  0x3f5e	xor    	al, 0
  === BLOCK LINK ===
    0x3f60
=== CODE BLOCK END ===

=== CODE BLOCK ADDRESS 0x3f60 ===
  0x3f60	xor    	eax, 0x65006400
  0x3f65	add    	byte ptr [esi], ah
  0x3f68	xor    	al, 0
  0x3f6a	add    	byte ptr ss:[edx], ah
  0x3f6e	xor    	al, byte ptr [eax]
  === BLOCK LINK ===
    0x3f70
=== CODE BLOCK END ===

=== CODE BLOCK ADDRESS 0x3f70 ===
  0x3f70	popal  	
  0x3f71	add    	byte ptr [edx], dh
  0x3f73	add    	byte ptr [edx], ah
  0x3f76	xor    	dword ptr [eax], eax
  0x3f78	xor    	al, byte ptr [eax]
  === BLOCK LINK ===
    0x3f7a
=== CODE BLOCK END ===

=== CODE BLOCK ADDRESS 0x3f7a ===
  0x3f7a	xor    	al, 0
  0x3f7c	aaa    	
  0x3f7d	add    	byte ptr [ecx], ah
  0x3f80	add    	byte ptr fs:[ebx], ah
  0x3f84	xor    	eax, dword ptr [eax]
  === BLOCK LINK ===
    0x3f86
=== CODE BLOCK END ===

=== CODE BLOCK ADDRESS 0x3f86 ===
  0x3f86	add    	byte ptr ss:[0x62003200], dh
  0x3f8d	add    	byte ptr [esi], ah
  0x3f90	xor    	eax, 0x33006300
  0x3f95	add    	byte ptr [eax], dh
  0x3f97	add    	byte ptr [eax], bh
  === BLOCK LINK ===
    0x3f99
=== CODE BLOCK END ===

=== CODE BLOCK ADDRESS 0x3f99 ===
  0x3f99	add    	byte ptr [eax], dh
  0x3f9b	add    	byte ptr [0x64003500], dh
  0x3fa1	add    	byte ptr [ecx], ah
  0x3fa4	cmp    	dword ptr [eax], eax
  0x3fa6	add    	dl, 0x50
  === BLOCK LINK ===
    0x3fa9
=== CODE BLOCK END ===

=== CODE BLOCK ADDRESS 0x3fa9 ===
  0x3fa9	add    	byte ptr [edx], dh
  0x3fac	add    	byte ptr gs:[ebx], dh
  0x3fb0	add    	byte ptr gs:[esi], ch
  0x3fb4	je     	0x3fb6
  === BLOCK LINK ===
    0x3fb6
=== CODE BLOCK END ===

=== CODE BLOCK ADDRESS 0x3fb6 ===
  0x3fb6	popal  	
  0x3fb7	add    	byte ptr [eax + eax + 0x69], dh
  0x3fbb	add    	byte ptr [edi], ch
  0x3fbe	outsb  	dx, byte ptr [esi]
  0x3fbf	add    	byte ptr [esi], al
  === BLOCK LINK ===
    0x3fc2
=== CODE BLOCK END ===

=== CODE BLOCK ADDRESS 0x3fc2 ===
  0x3fc2	jb     	0x3fc4
  === BLOCK LINK ===
    0x3fc4
=== CODE BLOCK END ===

=== CODE BLOCK ADDRESS 0x3fc4 ===
  0x3fc4	popal  	
  0x3fc5	add    	byte ptr [ebp], ch
  0x3fc8	add    	byte ptr gs:[edi], dh
  0x3fcc	outsd  	dx, dword ptr [esi]
  0x3fcd	add    	byte ptr [edx], dh
  === BLOCK LINK ===
    0x3fd0
=== CODE BLOCK END ===

=== CODE BLOCK ADDRESS 0x3fd0 ===
  0x3fd0	imul   	eax, dword ptr [eax], 0x2c
  0x3fd3	add    	byte ptr [eax], ah
  0x3fd5	add    	byte ptr [eax], dl
  0x3fd8	jne    	0x3fda
  === BLOCK LINK ===
    0x3fda
=== CODE BLOCK END ===

=== CODE BLOCK ADDRESS 0x3fda ===
  0x3fda	bound  	eax, qword ptr [eax]
  0x3fdc	insb   	byte ptr es:[edi], dx
  0x3fdd	add    	byte ptr [ecx], ch
  0x3fe0	arpl   	word ptr [eax], ax
  0x3fe2	dec    	ebx
  === BLOCK LINK ===
    0x3fe3
=== CODE BLOCK END ===

=== CODE BLOCK ADDRESS 0x3fe3 ===
  0x3fe3	add    	byte ptr [ebp], ah
  0x3fe6	jns    	0x3fe8
  === BLOCK LINK ===
    0x3fe8
=== CODE BLOCK END ===

=== CODE BLOCK ADDRESS 0x3fe8 ===
  0x3fe8	cmp    	eax, 0x30003000
  0x3fed	add    	byte ptr [edx], dh
  0x3fef	add    	byte ptr [eax + eax], dh
  0x3ff2	xor    	byte ptr [eax], al
  0x3ff4	xor    	byte ptr [eax], al
  === BLOCK LINK ===
    0x3ff6
=== CODE BLOCK END ===

=== CODE BLOCK ADDRESS 0x3ff6 ===
  0x3ff6	xor    	byte ptr [eax], al
  0x3ff8	xor    	byte ptr [eax], al
  0x3ffa	xor    	byte ptr [eax], al
  0x3ffc	xor    	al, 0
  0x3ffe	cmp    	byte ptr [eax], al
  === BLOCK LINK ===
    0x4000
=== CODE BLOCK END ===

=== CODE BLOCK ADDRESS 0x4000 ===
  0x4000	xor    	byte ptr [eax], al
  0x4002	xor    	byte ptr [eax], al
  0x4004	xor    	byte ptr [eax], al
  0x4006	xor    	byte ptr [eax], al
  0x4008	xor    	byte ptr [eax], al
  === BLOCK LINK ===
    0x400a
=== CODE BLOCK END ===

=== CODE BLOCK ADDRESS 0x400a ===
  0x400a	cmp    	dword ptr [eax], eax
  0x400c	xor    	al, 0
  0x400e	xor    	byte ptr [eax], al
  0x4010	xor    	byte ptr [eax], al
  0x4012	xor    	byte ptr [eax], al
  === BLOCK LINK ===
    0x4014
=== CODE BLOCK END ===

=== CODE BLOCK ADDRESS 0x4014 ===
  0x4014	xor    	byte ptr [eax], al
  0x4016	xor    	byte ptr [eax], al
  0x4018	xor    	byte ptr [eax], al
  0x401a	xor    	byte ptr [eax], al
  0x401c	add    	byte ptr ss:[eax], dh
  === BLOCK LINK ===
    0x401f
=== CODE BLOCK END ===

=== CODE BLOCK ADDRESS 0x401f ===
  0x401f	add    	byte ptr [edx], dh
  0x4021	add    	byte ptr [eax], dh
  0x4023	add    	byte ptr [eax], dh
  0x4025	add    	byte ptr [eax], dh
  0x4027	add    	byte ptr [eax], dh
  === BLOCK LINK ===
    0x4029
=== CODE BLOCK END ===

=== CODE BLOCK ADDRESS 0x4029 ===
  0x4029	add    	byte ptr [eax], dh
  0x402b	add    	byte ptr [eax], dh
  0x402d	add    	byte ptr [edx], dh
  0x402f	add    	byte ptr [eax + eax], dh
  0x4032	xor    	byte ptr [eax], al
  === BLOCK LINK ===
    0x4034
=== CODE BLOCK END ===

=== CODE BLOCK ADDRESS 0x4034 ===
  0x4034	xor    	byte ptr [eax], al
  0x4036	xor    	byte ptr [eax], al
  0x4038	xor    	byte ptr [eax], al
  0x403a	xor    	eax, 0x35003200
  0x403f	add    	byte ptr [ebx], dh
  === BLOCK LINK ===
    0x4041
=== CODE BLOCK END ===

=== CODE BLOCK ADDRESS 0x4041 ===
  0x4041	add    	byte ptr [eax + eax], dh
  0x4044	xor    	dword ptr [eax], eax
  0x4046	xor    	eax, dword ptr [eax]
  0x4048	xor    	dword ptr [eax], eax
  0x404a	xor    	byte ptr [eax], al
  === BLOCK LINK ===
    0x404c
=== CODE BLOCK END ===

=== CODE BLOCK ADDRESS 0x404c ===
  0x404c	xor    	byte ptr [eax], al
  0x404e	xor    	byte ptr [eax], al
  0x4050	xor    	al, 0
  0x4052	xor    	byte ptr [eax], al
  0x4054	xor    	byte ptr [eax], al
  === BLOCK LINK ===
    0x4056
=== CODE BLOCK END ===

=== CODE BLOCK ADDRESS 0x4056 ===
  0x4056	xor    	byte ptr [eax], al
  0x4058	xor    	byte ptr [eax], al
  0x405a	xor    	byte ptr [eax], al
  0x405c	xor    	dword ptr [eax], eax
  0x405e	xor    	byte ptr [eax], al
  === BLOCK LINK ===
    0x4060
=== CODE BLOCK END ===

=== CODE BLOCK ADDRESS 0x4060 ===
  0x4060	xor    	byte ptr [eax], al
  0x4062	xor    	byte ptr [eax], al
  0x4064	xor    	dword ptr [eax], eax
  0x4066	xor    	byte ptr [eax], al
  0x4068	xor    	byte ptr [eax], al
  === BLOCK LINK ===
    0x406a
=== CODE BLOCK END ===

=== CODE BLOCK ADDRESS 0x406a ===
  0x406a	bound  	eax, qword ptr [eax]
  0x406c	xor    	eax, 0x63006600
  0x4071	add    	byte ptr [ecx], bh
  0x4073	add    	byte ptr [eax], dh
  0x4075	add    	byte ptr [ebp], ah
  === BLOCK LINK ===
    0x4078
=== CODE BLOCK END ===

=== CODE BLOCK ADDRESS 0x4078 ===
  0x4078	aaa    	
  0x4079	add    	byte ptr [eax], dh
  0x407b	add    	byte ptr [edx], dh
  0x407d	add    	byte ptr [edi], dh
  0x407f	add    	byte ptr [esi], ah
  === BLOCK LINK ===
    0x4082
=== CODE BLOCK END ===

=== CODE BLOCK ADDRESS 0x4082 ===
  0x4082	add    	byte ptr ss:[edi], dh
  0x4085	add    	byte ptr [eax], bh
  0x4087	add    	byte ptr [edi], dh
  0x4089	add    	byte ptr [ecx], dh
  0x408b	add    	byte ptr [ebp], ah
  === BLOCK LINK ===
    0x408e
=== CODE BLOCK END ===

=== CODE BLOCK ADDRESS 0x408e ===
  0x408e	aaa    	
  0x408f	add    	byte ptr [edi], dh
  0x4091	add    	byte ptr [ebx], dh
  0x4093	add    	byte ptr [ecx], ah
  0x4096	cmp    	byte ptr [eax], al
  === BLOCK LINK ===
    0x4098
=== CODE BLOCK END ===

=== CODE BLOCK ADDRESS 0x4098 ===
  0x4098	add    	byte ptr [eax + eax + 0x65], ah
  0x409d	add    	byte ptr [eax], bh
  0x409f	add    	byte ptr [ecx], bh
  0x40a1	add    	byte ptr [ebx], dh
  0x40a3	add    	byte ptr [eax], bh
  === BLOCK LINK ===
    0x40a5
=== CODE BLOCK END ===

=== CODE BLOCK ADDRESS 0x40a5 ===
  0x40a5	add    	byte ptr [ebx], ah
  0x40a8	cmp    	byte ptr [eax], al
  0x40aa	xor    	dword ptr [eax], eax
  0x40ac	add    	byte ptr fs:[eax + eax + 0x34], ah
  0x40b1	add    	byte ptr [eax], dh
  === BLOCK LINK ===
    0x40b3
=== CODE BLOCK END ===

=== CODE BLOCK ADDRESS 0x40b3 ===
  0x40b3	add    	byte ptr [edx], dh
  0x40b5	add    	byte ptr [edx], ah
  0x40b8	popal  	
  0x40b9	add    	byte ptr [esi], dh
  0x40bb	add    	byte ptr [0x39006200], dh
  === BLOCK LINK ===
    0x40c1
=== CODE BLOCK END ===

=== CODE BLOCK ADDRESS 0x40c1 ===
  0x40c1	add    	byte ptr [edx], dh
  0x40c3	add    	byte ptr [eax], dh
  0x40c5	add    	byte ptr [ecx], dh
  0x40c7	add    	byte ptr [eax + eax + 0x36], ah
  0x40cb	add    	byte ptr [eax], dh
  === BLOCK LINK ===
    0x40cd
=== CODE BLOCK END ===

=== CODE BLOCK ADDRESS 0x40cd ===
  0x40cd	add    	byte ptr [0x33003900], dh
  0x40d3	add    	byte ptr [ebp], ah
  0x40d6	cmp    	dword ptr [eax], eax
  0x40d8	add    	byte ptr ss:[ebx], ah
  0x40dc	xor    	al, 0
  === BLOCK LINK ===
    0x40de
=== CODE BLOCK END ===

=== CODE BLOCK ADDRESS 0x40de ===
  0x40de	cmp    	dword ptr [eax], eax
  0x40e0	xor    	al, byte ptr [eax]
  0x40e2	add    	byte ptr ss:[0x65003100], dh
  0x40e9	add    	byte ptr [eax], bh
  0x40eb	add    	byte ptr [eax], bh
  === BLOCK LINK ===
    0x40ed
=== CODE BLOCK END ===

=== CODE BLOCK ADDRESS 0x40ed ===
  0x40ed	add    	byte ptr [ecx], bh
  0x40ef	add    	byte ptr [ebx], ah
  0x40f2	arpl   	word ptr [eax], ax
  0x40f4	xor    	dword ptr [eax], eax
  0x40f6	xor    	eax, dword ptr [eax]
  === BLOCK LINK ===
    0x40f8
=== CODE BLOCK END ===

=== CODE BLOCK ADDRESS 0x40f8 ===
  0x40f8	add    	byte ptr [ecx], dh
  0x40fb	add    	byte ptr [eax + eax], dh
  0x40fe	xor    	dword ptr [eax], eax
  0x4100	xor    	eax, 0x62006500
  0x4105	add    	byte ptr [edx], ah
  === BLOCK LINK ===
    0x4108
=== CODE BLOCK END ===

=== CODE BLOCK ADDRESS 0x4108 ===
  0x4108	xor    	eax, 0x66003300
  0x410d	add    	byte ptr [ecx], ah
  0x4110	arpl   	word ptr [eax], ax
  0x4112	xor    	dword ptr [eax], eax
  0x4114	xor    	dword ptr [eax], eax
  === BLOCK LINK ===
    0x4116
=== CODE BLOCK END ===

=== CODE BLOCK ADDRESS 0x4116 ===
  0x4116	xor    	eax, dword ptr [eax]
  0x4118	xor    	dword ptr [eax], eax
  0x411a	popal  	
  0x411b	add    	byte ptr [ebp], ah
  0x411e	xor    	byte ptr [eax], al
  === BLOCK LINK ===
    0x4120
=== CODE BLOCK END ===

=== CODE BLOCK ADDRESS 0x4120 ===
  0x4120	bound  	eax, qword ptr [eax]
  0x4122	add    	byte ptr fs:[ebx], dh
  0x4125	add    	byte ptr [ebx], dh
  0x4127	add    	byte ptr [ebx], dh
  0x4129	add    	byte ptr [ebx], ah
  === BLOCK LINK ===
    0x412c
=== CODE BLOCK END ===

=== CODE BLOCK ADDRESS 0x412c ===
  0x412c	xor    	eax, 0x65006500
  0x4131	add    	byte ptr [esi], dh
  0x4133	add    	byte ptr [eax], dh
  0x4135	add    	byte ptr [edx], dh
  0x4137	add    	byte ptr [ecx], dh
  === BLOCK LINK ===
    0x4139
=== CODE BLOCK END ===

=== CODE BLOCK ADDRESS 0x4139 ===
  0x4139	add    	byte ptr [esi], dh
  0x413b	add    	byte ptr [edi], dh
  0x413d	add    	byte ptr [edx], dh
  0x413f	add    	byte ptr [eax + eax + 0x39], ah
  0x4143	add    	byte ptr [edi], dh
  === BLOCK LINK ===
    0x4145
=== CODE BLOCK END ===

=== CODE BLOCK ADDRESS 0x4145 ===
  0x4145	add    	byte ptr [ecx], dh
  0x4147	add    	byte ptr [eax], bh
  0x4149	add    	byte ptr [ebp], ah
  0x414c	popal  	
  0x414d	add    	byte ptr [ebx], dh
  === BLOCK LINK ===
    0x414f
=== CODE BLOCK END ===

=== CODE BLOCK ADDRESS 0x414f ===
  0x414f	add    	byte ptr [ecx], dh
  0x4151	add    	byte ptr [ecx], ah
  0x4154	cmp    	byte ptr [eax], al
  0x4156	popal  	
  0x4157	add    	byte ptr [ebp], ah
  === BLOCK LINK ===
    0x415a
=== CODE BLOCK END ===

=== CODE BLOCK ADDRESS 0x415a ===
  0x415a	bound  	eax, qword ptr [eax]
  0x415c	add    	byte ptr fs:[eax], dh
  0x415f	add    	byte ptr [eax + eax + 0x61], ah
  0x4163	add    	byte ptr [eax], dh
  0x4165	add    	byte ptr [eax], dh
  === BLOCK LINK ===
    0x4167
=== CODE BLOCK END ===

=== CODE BLOCK ADDRESS 0x4167 ===
  0x4167	add    	byte ptr [edi], dh
  0x4169	add    	byte ptr [edx], dh
  0x416b	add    	byte ptr [esi], ah
  0x416e	xor    	al, byte ptr [eax]
  0x4170	xor    	eax, 0x38006400
  === BLOCK LINK ===
    0x4175
=== CODE BLOCK END ===

=== CODE BLOCK ADDRESS 0x4175 ===
  0x4175	add    	byte ptr [edi], dh
  0x4177	add    	byte ptr [eax + eax + 0x62], ah
  0x417b	add    	byte ptr [ecx], ah
  0x417e	add    	byte ptr ss:[esi], ah
  0x4182	arpl   	word ptr [eax], ax
  === BLOCK LINK ===
    0x4184
=== CODE BLOCK END ===

=== CODE BLOCK ADDRESS 0x4184 ===
  0x4184	cmp    	dword ptr [eax], eax
  0x4186	xor    	byte ptr [eax], al
  0x4188	add    	byte ptr [esi], ah
  0x418c	add    	byte ptr fs:[0x38003900], dh
  0x4193	add    	byte ptr [ebp], ah
  === BLOCK LINK ===
    0x4196
=== CODE BLOCK END ===

=== CODE BLOCK ADDRESS 0x4196 ===
  0x4196	add    	byte ptr fs:[eax + eax], dh
  0x419a	add    	byte ptr fs:[ecx], ah
  0x419e	xor    	eax, dword ptr [eax]
  0x41a0	xor    	eax, 0x34006500
  0x41a5	add    	byte ptr [eax + eax], dh
  === BLOCK LINK ===
    0x41a8
=== CODE BLOCK END ===

=== CODE BLOCK ADDRESS 0x41a8 ===
  0x41a8	arpl   	word ptr [eax], ax
  0x41aa	xor    	eax, dword ptr [eax]
  0x41ac	cmp    	dword ptr [eax], eax
  0x41ae	cmp    	byte ptr [eax], al
  0x41b0	arpl   	word ptr [eax], ax
  === BLOCK LINK ===
    0x41b2
=== CODE BLOCK END ===

=== CODE BLOCK ADDRESS 0x41b2 ===
  0x41b2	xor    	al, 0
  0x41b4	xor    	eax, 0x33003400
  0x41b9	add    	byte ptr [eax], dh
  0x41bb	add    	byte ptr [edi], dh
  0x41bd	add    	byte ptr [ebp], ah
  === BLOCK LINK ===
    0x41c0
=== CODE BLOCK END ===

=== CODE BLOCK ADDRESS 0x41c0 ===
  0x41c0	cmp    	byte ptr [eax], al
  0x41c2	add    	byte ptr gs:[ebx], dh
  0x41c5	add    	byte ptr [ebx], dh
  0x41c7	add    	byte ptr [edx], ah
  0x41ca	cmp    	byte ptr [eax], al
  === BLOCK LINK ===
    0x41cc
=== CODE BLOCK END ===

=== CODE BLOCK ADDRESS 0x41cc ===
  0x41cc	xor    	al, 0
  0x41ce	xor    	al, byte ptr [eax]
  0x41d0	add    	byte ptr ss:[ecx], dh
  0x41d3	add    	byte ptr [eax + eax], dh
  0x41d6	xor    	eax, dword ptr [eax]
  === BLOCK LINK ===
    0x41d8
=== CODE BLOCK END ===

=== CODE BLOCK ADDRESS 0x41d8 ===
  0x41d8	add    	byte ptr fs:[ecx], ah
  0x41dc	add    	byte ptr gs:[ebx], ah
  0x41e0	cmp    	dword ptr [eax], eax
  0x41e2	add    	byte ptr [0x36003900], dh
  0x41e9	add    	byte ptr [eax], bh
  === BLOCK LINK ===
    0x41eb
=== CODE BLOCK END ===

=== CODE BLOCK ADDRESS 0x41eb ===
  0x41eb	add    	byte ptr [ebx], dh
  0x41ed	add    	byte ptr [esi], dh
  0x41ef	add    	byte ptr [esi], ah
  0x41f2	cmp    	dword ptr [eax], eax
  0x41f4	aaa    	
  === BLOCK LINK ===
    0x41f5
=== CODE BLOCK END ===

=== CODE BLOCK ADDRESS 0x41f5 ===
  0x41f5	add    	byte ptr [ebx], ah
  0x41f8	cmp    	byte ptr [eax], al
  0x41fa	add    	byte ptr [edi], dh
  0x41fd	add    	byte ptr [eax + eax], dh
  0x4200	aaa    	
  === BLOCK LINK ===
    0x4201
=== CODE BLOCK END ===

=== CODE BLOCK ADDRESS 0x4201 ===
  0x4201	add    	byte ptr [0x65003000], dh
  0x4207	add    	byte ptr [0x37003900], dh
  0x420d	add    	byte ptr [0x36006300], dh
  0x4213	add    	byte ptr [eax + eax], dh
  0x4216	add    	byte ptr gs:[edx], dh
  === BLOCK LINK ===
    0x4219
=== CODE BLOCK END ===

=== CODE BLOCK ADDRESS 0x4219 ===
  0x4219	add    	byte ptr [ecx], dh
  0x421b	add    	byte ptr [eax], bh
  0x421d	add    	byte ptr [ecx], bh
  0x421f	add    	byte ptr [esi], ah
  0x4222	xor    	al, 0
  === BLOCK LINK ===
    0x4224
=== CODE BLOCK END ===

=== CODE BLOCK ADDRESS 0x4224 ===
  0x4224	xor    	eax, 0x65006400
  0x4229	add    	byte ptr [esi], ah
  0x422c	xor    	al, 0
  0x422e	add    	byte ptr ss:[edx], ah
  0x4232	xor    	al, byte ptr [eax]
  === BLOCK LINK ===
    0x4234
=== CODE BLOCK END ===

=== CODE BLOCK ADDRESS 0x4234 ===
  0x4234	popal  	
  0x4235	add    	byte ptr [edx], dh
  0x4237	add    	byte ptr [edx], ah
  0x423a	xor    	dword ptr [eax], eax
  0x423c	xor    	al, byte ptr [eax]
  === BLOCK LINK ===
    0x423e
=== CODE BLOCK END ===

=== CODE BLOCK ADDRESS 0x423e ===
  0x423e	xor    	al, 0
  0x4240	aaa    	
  0x4241	add    	byte ptr [ecx], ah
  0x4244	add    	byte ptr fs:[ebx], ah
  0x4248	xor    	eax, dword ptr [eax]
  === BLOCK LINK ===
    0x424a
=== CODE BLOCK END ===

=== CODE BLOCK ADDRESS 0x424a ===
  0x424a	add    	byte ptr ss:[0x62003200], dh
  0x4251	add    	byte ptr [esi], ah
  0x4254	xor    	eax, 0x33006300
  0x4259	add    	byte ptr [eax], dh
  0x425b	add    	byte ptr [eax], bh
  === BLOCK LINK ===
    0x425d
=== CODE BLOCK END ===

=== CODE BLOCK ADDRESS 0x425d ===
  0x425d	add    	byte ptr [eax], dh
  0x425f	add    	byte ptr [0x64003500], dh
  0x4265	add    	byte ptr [ecx], ah
  0x4268	cmp    	dword ptr [eax], eax
  0x426a	xor    	byte ptr [eax + edx*2 + 0x65007200], 0
  === BLOCK LINK ===
    0x4272
=== CODE BLOCK END ===

=== CODE BLOCK ADDRESS 0x4272 ===
  0x4272	jae    	0x4274
  === BLOCK LINK ===
    0x4274
=== CODE BLOCK END ===

=== CODE BLOCK ADDRESS 0x4274 ===
  0x4274	add    	byte ptr gs:[esi], ch
  0x4278	je     	0x427a
  === BLOCK LINK ===
    0x427a
=== CODE BLOCK END ===

=== CODE BLOCK ADDRESS 0x427a ===
  0x427a	popal  	
  0x427b	add    	byte ptr [eax + eax + 0x69], dh
  0x427f	add    	byte ptr [edi], ch
  0x4282	outsb  	dx, byte ptr [esi]
  0x4283	add    	byte ptr [ebp], dl
  === BLOCK LINK ===
    0x4286
=== CODE BLOCK END ===

=== CODE BLOCK ADDRESS 0x4286 ===
  0x4286	dec    	ecx
  0x4287	add    	byte ptr [eax + eax], ch
  0x428a	and    	byte ptr [eax], al
  0x428c	push   	eax
  0x428d	add    	byte ptr [ebp], dh
  === BLOCK LINK ===
    0x4290
=== CODE BLOCK END ===

=== CODE BLOCK ADDRESS 0x4290 ===
  0x4290	bound  	eax, qword ptr [eax]
  0x4292	insb   	byte ptr es:[edi], dx
  0x4293	add    	byte ptr [ecx], ch
  0x4296	arpl   	word ptr [eax], ax
  0x4298	dec    	ebx
  === BLOCK LINK ===
    0x4299
=== CODE BLOCK END ===

=== CODE BLOCK ADDRESS 0x4299 ===
  0x4299	add    	byte ptr [ebp], ah
  0x429c	jns    	0x429e
  === BLOCK LINK ===
    0x429e
=== CODE BLOCK END ===

=== CODE BLOCK ADDRESS 0x429e ===
  0x429e	cmp    	eax, 0x30003000
  0x42a3	add    	byte ptr [edx], dh
  0x42a5	add    	byte ptr [eax + eax], dh
  0x42a8	xor    	byte ptr [eax], al
  0x42aa	xor    	byte ptr [eax], al
  === BLOCK LINK ===
    0x42ac
=== CODE BLOCK END ===

=== CODE BLOCK ADDRESS 0x42ac ===
  0x42ac	xor    	byte ptr [eax], al
  0x42ae	xor    	byte ptr [eax], al
  0x42b0	xor    	byte ptr [eax], al
  0x42b2	xor    	al, 0
  0x42b4	cmp    	byte ptr [eax], al
  === BLOCK LINK ===
    0x42b6
=== CODE BLOCK END ===

=== CODE BLOCK ADDRESS 0x42b6 ===
  0x42b6	xor    	byte ptr [eax], al
  0x42b8	xor    	byte ptr [eax], al
  0x42ba	xor    	byte ptr [eax], al
  0x42bc	xor    	byte ptr [eax], al
  0x42be	xor    	byte ptr [eax], al
  === BLOCK LINK ===
    0x42c0
=== CODE BLOCK END ===

=== CODE BLOCK ADDRESS 0x42c0 ===
  0x42c0	cmp    	dword ptr [eax], eax
  0x42c2	xor    	al, 0
  0x42c4	xor    	byte ptr [eax], al
  0x42c6	xor    	byte ptr [eax], al
  0x42c8	xor    	byte ptr [eax], al
  === BLOCK LINK ===
    0x42ca
=== CODE BLOCK END ===

=== CODE BLOCK ADDRESS 0x42ca ===
  0x42ca	xor    	byte ptr [eax], al
  0x42cc	xor    	byte ptr [eax], al
  0x42ce	xor    	byte ptr [eax], al
  0x42d0	xor    	byte ptr [eax], al
  0x42d2	add    	byte ptr ss:[eax], dh
  === BLOCK LINK ===
    0x42d5
=== CODE BLOCK END ===

=== CODE BLOCK ADDRESS 0x42d5 ===
  0x42d5	add    	byte ptr [edx], dh
  0x42d7	add    	byte ptr [eax], dh
  0x42d9	add    	byte ptr [eax], dh
  0x42db	add    	byte ptr [eax], dh
  0x42dd	add    	byte ptr [eax], dh
  === BLOCK LINK ===
    0x42df
=== CODE BLOCK END ===

=== CODE BLOCK ADDRESS 0x42df ===
  0x42df	add    	byte ptr [eax], dh
  0x42e1	add    	byte ptr [eax], dh
  0x42e3	add    	byte ptr [edx], dh
  0x42e5	add    	byte ptr [eax + eax], dh
  0x42e8	xor    	byte ptr [eax], al
  === BLOCK LINK ===
    0x42ea
=== CODE BLOCK END ===

=== CODE BLOCK ADDRESS 0x42ea ===
  0x42ea	xor    	byte ptr [eax], al
  0x42ec	xor    	byte ptr [eax], al
  0x42ee	xor    	byte ptr [eax], al
  0x42f0	xor    	eax, 0x35003200
  0x42f5	add    	byte ptr [ebx], dh
  === BLOCK LINK ===
    0x42f7
=== CODE BLOCK END ===

=== CODE BLOCK ADDRESS 0x42f7 ===
  0x42f7	add    	byte ptr [eax + eax], dh
  0x42fa	xor    	dword ptr [eax], eax
  0x42fc	xor    	eax, dword ptr [eax]
  0x42fe	xor    	dword ptr [eax], eax
  0x4300	xor    	byte ptr [eax], al
  === BLOCK LINK ===
    0x4302
=== CODE BLOCK END ===

=== CODE BLOCK ADDRESS 0x4302 ===
  0x4302	xor    	byte ptr [eax], al
  0x4304	xor    	byte ptr [eax], al
  0x4306	xor    	al, 0
  0x4308	xor    	byte ptr [eax], al
  0x430a	xor    	byte ptr [eax], al
  === BLOCK LINK ===
    0x430c
=== CODE BLOCK END ===

=== CODE BLOCK ADDRESS 0x430c ===
  0x430c	xor    	byte ptr [eax], al
  0x430e	xor    	byte ptr [eax], al
  0x4310	xor    	byte ptr [eax], al
  0x4312	xor    	dword ptr [eax], eax
  0x4314	xor    	byte ptr [eax], al
  === BLOCK LINK ===
    0x4316
=== CODE BLOCK END ===

=== CODE BLOCK ADDRESS 0x4316 ===
  0x4316	xor    	byte ptr [eax], al
  0x4318	xor    	byte ptr [eax], al
  0x431a	xor    	dword ptr [eax], eax
  0x431c	xor    	byte ptr [eax], al
  0x431e	xor    	byte ptr [eax], al
  === BLOCK LINK ===
    0x4320
=== CODE BLOCK END ===

=== CODE BLOCK ADDRESS 0x4320 ===
  0x4320	bound  	eax, qword ptr [eax]
  0x4322	xor    	eax, 0x63006600
  0x4327	add    	byte ptr [ecx], bh
  0x4329	add    	byte ptr [eax], dh
  0x432b	add    	byte ptr [ebp], ah
  === BLOCK LINK ===
    0x432e
=== CODE BLOCK END ===

=== CODE BLOCK ADDRESS 0x432e ===
  0x432e	aaa    	
  0x432f	add    	byte ptr [eax], dh
  0x4331	add    	byte ptr [edx], dh
  0x4333	add    	byte ptr [edi], dh
  0x4335	add    	byte ptr [esi], ah
  === BLOCK LINK ===
    0x4338
=== CODE BLOCK END ===

=== CODE BLOCK ADDRESS 0x4338 ===
  0x4338	add    	byte ptr ss:[edi], dh
  0x433b	add    	byte ptr [eax], bh
  0x433d	add    	byte ptr [edi], dh
  0x433f	add    	byte ptr [ecx], dh
  0x4341	add    	byte ptr [ebp], ah
  === BLOCK LINK ===
    0x4344
=== CODE BLOCK END ===

=== CODE BLOCK ADDRESS 0x4344 ===
  0x4344	aaa    	
  0x4345	add    	byte ptr [edi], dh
  0x4347	add    	byte ptr [ebx], dh
  0x4349	add    	byte ptr [ecx], ah
  0x434c	cmp    	byte ptr [eax], al
  === BLOCK LINK ===
    0x434e
=== CODE BLOCK END ===

=== CODE BLOCK ADDRESS 0x434e ===
  0x434e	add    	byte ptr [eax + eax + 0x65], ah
  0x4353	add    	byte ptr [eax], bh
  0x4355	add    	byte ptr [ecx], bh
  0x4357	add    	byte ptr [ebx], dh
  0x4359	add    	byte ptr [eax], bh
  === BLOCK LINK ===
    0x435b
=== CODE BLOCK END ===

=== CODE BLOCK ADDRESS 0x435b ===
  0x435b	add    	byte ptr [ebx], ah
  0x435e	cmp    	byte ptr [eax], al
  0x4360	xor    	dword ptr [eax], eax
  0x4362	add    	byte ptr fs:[eax + eax + 0x34], ah
  0x4367	add    	byte ptr [eax], dh
  === BLOCK LINK ===
    0x4369
=== CODE BLOCK END ===

=== CODE BLOCK ADDRESS 0x4369 ===
  0x4369	add    	byte ptr [edx], dh
  0x436b	add    	byte ptr [edx], ah
  0x436e	popal  	
  0x436f	add    	byte ptr [esi], dh
  0x4371	add    	byte ptr [0x39006200], dh
  === BLOCK LINK ===
    0x4377
=== CODE BLOCK END ===

=== CODE BLOCK ADDRESS 0x4377 ===
  0x4377	add    	byte ptr [edx], dh
  0x4379	add    	byte ptr [eax], dh
  0x437b	add    	byte ptr [ecx], dh
  0x437d	add    	byte ptr [eax + eax + 0x36], ah
  0x4381	add    	byte ptr [eax], dh
  === BLOCK LINK ===
    0x4383
=== CODE BLOCK END ===

=== CODE BLOCK ADDRESS 0x4383 ===
  0x4383	add    	byte ptr [0x33003900], dh
  0x4389	add    	byte ptr [ebp], ah
  0x438c	cmp    	dword ptr [eax], eax
  0x438e	add    	byte ptr ss:[ebx], ah
  0x4392	xor    	al, 0
  === BLOCK LINK ===
    0x4394
=== CODE BLOCK END ===

=== CODE BLOCK ADDRESS 0x4394 ===
  0x4394	cmp    	dword ptr [eax], eax
  0x4396	xor    	al, byte ptr [eax]
  0x4398	add    	byte ptr ss:[0x65003100], dh
  0x439f	add    	byte ptr [eax], bh
  0x43a1	add    	byte ptr [eax], bh
  === BLOCK LINK ===
    0x43a3
=== CODE BLOCK END ===

=== CODE BLOCK ADDRESS 0x43a3 ===
  0x43a3	add    	byte ptr [ecx], bh
  0x43a5	add    	byte ptr [ebx], ah
  0x43a8	arpl   	word ptr [eax], ax
  0x43aa	xor    	dword ptr [eax], eax
  0x43ac	xor    	eax, dword ptr [eax]
  === BLOCK LINK ===
    0x43ae
=== CODE BLOCK END ===

=== CODE BLOCK ADDRESS 0x43ae ===
  0x43ae	add    	byte ptr [ecx], dh
  0x43b1	add    	byte ptr [eax + eax], dh
  0x43b4	xor    	dword ptr [eax], eax
  0x43b6	xor    	eax, 0x62006500
  0x43bb	add    	byte ptr [edx], ah
  === BLOCK LINK ===
    0x43be
=== CODE BLOCK END ===

=== CODE BLOCK ADDRESS 0x43be ===
  0x43be	xor    	eax, 0x66003300
  0x43c3	add    	byte ptr [ecx], ah
  0x43c6	arpl   	word ptr [eax], ax
  0x43c8	xor    	dword ptr [eax], eax
  0x43ca	xor    	dword ptr [eax], eax
  === BLOCK LINK ===
    0x43cc
=== CODE BLOCK END ===

=== CODE BLOCK ADDRESS 0x43cc ===
  0x43cc	xor    	eax, dword ptr [eax]
  0x43ce	xor    	dword ptr [eax], eax
  0x43d0	popal  	
  0x43d1	add    	byte ptr [ebp], ah
  0x43d4	xor    	byte ptr [eax], al
  === BLOCK LINK ===
    0x43d6
=== CODE BLOCK END ===

=== CODE BLOCK ADDRESS 0x43d6 ===
  0x43d6	bound  	eax, qword ptr [eax]
  0x43d8	add    	byte ptr fs:[ebx], dh
  0x43db	add    	byte ptr [ebx], dh
  0x43dd	add    	byte ptr [ebx], dh
  0x43df	add    	byte ptr [ebx], ah
  === BLOCK LINK ===
    0x43e2
=== CODE BLOCK END ===

=== CODE BLOCK ADDRESS 0x43e2 ===
  0x43e2	xor    	eax, 0x65006500
  0x43e7	add    	byte ptr [esi], dh
  0x43e9	add    	byte ptr [eax], dh
  0x43eb	add    	byte ptr [edx], dh
  0x43ed	add    	byte ptr [ecx], dh
  === BLOCK LINK ===
    0x43ef
=== CODE BLOCK END ===

=== CODE BLOCK ADDRESS 0x43ef ===
  0x43ef	add    	byte ptr [esi], dh
  0x43f1	add    	byte ptr [edi], dh
  0x43f3	add    	byte ptr [edx], dh
  0x43f5	add    	byte ptr [eax + eax + 0x39], ah
  0x43f9	add    	byte ptr [edi], dh
  === BLOCK LINK ===
    0x43fb
=== CODE BLOCK END ===

=== CODE BLOCK ADDRESS 0x43fb ===
  0x43fb	add    	byte ptr [ecx], dh
  0x43fd	add    	byte ptr [eax], bh
  0x43ff	add    	byte ptr [ebp], ah
  0x4402	popal  	
  0x4403	add    	byte ptr [ebx], dh
  === BLOCK LINK ===
    0x4405
=== CODE BLOCK END ===

=== CODE BLOCK ADDRESS 0x4405 ===
  0x4405	add    	byte ptr [ecx], dh
  0x4407	add    	byte ptr [ecx], ah
  0x440a	cmp    	byte ptr [eax], al
  0x440c	popal  	
  0x440d	add    	byte ptr [ebp], ah
  === BLOCK LINK ===
    0x4410
=== CODE BLOCK END ===

=== CODE BLOCK ADDRESS 0x4410 ===
  0x4410	bound  	eax, qword ptr [eax]
  0x4412	add    	byte ptr fs:[eax], dh
  0x4415	add    	byte ptr [eax + eax + 0x61], ah
  0x4419	add    	byte ptr [eax], dh
  0x441b	add    	byte ptr [eax], dh
  === BLOCK LINK ===
    0x441d
=== CODE BLOCK END ===

=== CODE BLOCK ADDRESS 0x441d ===
  0x441d	add    	byte ptr [edi], dh
  0x441f	add    	byte ptr [edx], dh
  0x4421	add    	byte ptr [esi], ah
  0x4424	xor    	al, byte ptr [eax]
  0x4426	xor    	eax, 0x38006400
  === BLOCK LINK ===
    0x442b
=== CODE BLOCK END ===

=== CODE BLOCK ADDRESS 0x442b ===
  0x442b	add    	byte ptr [edi], dh
  0x442d	add    	byte ptr [eax + eax + 0x62], ah
  0x4431	add    	byte ptr [ecx], ah
  0x4434	add    	byte ptr ss:[esi], ah
  0x4438	arpl   	word ptr [eax], ax
  === BLOCK LINK ===
    0x443a
=== CODE BLOCK END ===

=== CODE BLOCK ADDRESS 0x443a ===
  0x443a	cmp    	dword ptr [eax], eax
  0x443c	xor    	byte ptr [eax], al
  0x443e	add    	byte ptr [esi], ah
  0x4442	add    	byte ptr fs:[0x38003900], dh
  0x4449	add    	byte ptr [ebp], ah
  === BLOCK LINK ===
    0x444c
=== CODE BLOCK END ===

=== CODE BLOCK ADDRESS 0x444c ===
  0x444c	add    	byte ptr fs:[eax + eax], dh
  0x4450	add    	byte ptr fs:[ecx], ah
  0x4454	xor    	eax, dword ptr [eax]
  0x4456	xor    	eax, 0x34006500
  0x445b	add    	byte ptr [eax + eax], dh
  === BLOCK LINK ===
    0x445e
=== CODE BLOCK END ===

=== CODE BLOCK ADDRESS 0x445e ===
  0x445e	arpl   	word ptr [eax], ax
  0x4460	xor    	eax, dword ptr [eax]
  0x4462	cmp    	dword ptr [eax], eax
  0x4464	cmp    	byte ptr [eax], al
  0x4466	arpl   	word ptr [eax], ax
  === BLOCK LINK ===
    0x4468
=== CODE BLOCK END ===

=== CODE BLOCK ADDRESS 0x4468 ===
  0x4468	xor    	al, 0
  0x446a	xor    	eax, 0x33003400
  0x446f	add    	byte ptr [eax], dh
  0x4471	add    	byte ptr [edi], dh
  0x4473	add    	byte ptr [ebp], ah
  === BLOCK LINK ===
    0x4476
=== CODE BLOCK END ===

=== CODE BLOCK ADDRESS 0x4476 ===
  0x4476	cmp    	byte ptr [eax], al
  0x4478	add    	byte ptr gs:[ebx], dh
  0x447b	add    	byte ptr [ebx], dh
  0x447d	add    	byte ptr [edx], ah
  0x4480	cmp    	byte ptr [eax], al
  === BLOCK LINK ===
    0x4482
=== CODE BLOCK END ===

=== CODE BLOCK ADDRESS 0x4482 ===
  0x4482	xor    	al, 0
  0x4484	xor    	al, byte ptr [eax]
  0x4486	add    	byte ptr ss:[ecx], dh
  0x4489	add    	byte ptr [eax + eax], dh
  0x448c	xor    	eax, dword ptr [eax]
  === BLOCK LINK ===
    0x448e
=== CODE BLOCK END ===

=== CODE BLOCK ADDRESS 0x448e ===
  0x448e	add    	byte ptr fs:[ecx], ah
  0x4492	add    	byte ptr gs:[ebx], ah
  0x4496	cmp    	dword ptr [eax], eax
  0x4498	add    	byte ptr [0x36003900], dh
  0x449f	add    	byte ptr [eax], bh
  === BLOCK LINK ===
    0x44a1
=== CODE BLOCK END ===

=== CODE BLOCK ADDRESS 0x44a1 ===
  0x44a1	add    	byte ptr [ebx], dh
  0x44a3	add    	byte ptr [esi], dh
  0x44a5	add    	byte ptr [esi], ah
  0x44a8	cmp    	dword ptr [eax], eax
  0x44aa	aaa    	
  === BLOCK LINK ===
    0x44ab
=== CODE BLOCK END ===

=== CODE BLOCK ADDRESS 0x44ab ===
  0x44ab	add    	byte ptr [ebx], ah
  0x44ae	cmp    	byte ptr [eax], al
  0x44b0	add    	byte ptr [edi], dh
  0x44b3	add    	byte ptr [eax + eax], dh
  0x44b6	aaa    	
  === BLOCK LINK ===
    0x44b7
=== CODE BLOCK END ===

=== CODE BLOCK ADDRESS 0x44b7 ===
  0x44b7	add    	byte ptr [0x65003000], dh
  0x44bd	add    	byte ptr [0x37003900], dh
  0x44c3	add    	byte ptr [0x36006300], dh
  0x44c9	add    	byte ptr [eax + eax], dh
  0x44cc	add    	byte ptr gs:[edx], dh
  === BLOCK LINK ===
    0x44cf
=== CODE BLOCK END ===

=== CODE BLOCK ADDRESS 0x44cf ===
  0x44cf	add    	byte ptr [ecx], dh
  0x44d1	add    	byte ptr [eax], bh
  0x44d3	add    	byte ptr [ecx], bh
  0x44d5	add    	byte ptr [esi], ah
  0x44d8	xor    	al, 0
  === BLOCK LINK ===
    0x44da
=== CODE BLOCK END ===

=== CODE BLOCK ADDRESS 0x44da ===
  0x44da	xor    	eax, 0x65006400
  0x44df	add    	byte ptr [esi], ah
  0x44e2	xor    	al, 0
  0x44e4	add    	byte ptr ss:[edx], ah
  0x44e8	xor    	al, byte ptr [eax]
  === BLOCK LINK ===
    0x44ea
=== CODE BLOCK END ===

=== CODE BLOCK ADDRESS 0x44ea ===
  0x44ea	popal  	
  0x44eb	add    	byte ptr [edx], dh
  0x44ed	add    	byte ptr [edx], ah
  0x44f0	xor    	dword ptr [eax], eax
  0x44f2	xor    	al, byte ptr [eax]
  === BLOCK LINK ===
    0x44f4
=== CODE BLOCK END ===

=== CODE BLOCK ADDRESS 0x44f4 ===
  0x44f4	xor    	al, 0
  0x44f6	aaa    	
  0x44f7	add    	byte ptr [ecx], ah
  0x44fa	add    	byte ptr fs:[ebx], ah
  0x44fe	xor    	eax, dword ptr [eax]
  === BLOCK LINK ===
    0x4500
=== CODE BLOCK END ===

=== CODE BLOCK ADDRESS 0x4500 ===
  0x4500	add    	byte ptr ss:[0x62003200], dh
  0x4507	add    	byte ptr [esi], ah
  0x450a	xor    	eax, 0x33006300
  0x450f	add    	byte ptr [eax], dh
  0x4511	add    	byte ptr [eax], bh
  === BLOCK LINK ===
    0x4513
=== CODE BLOCK END ===

=== CODE BLOCK ADDRESS 0x4513 ===
  0x4513	add    	byte ptr [eax], dh
  0x4515	add    	byte ptr [0x64003500], dh
  0x451b	add    	byte ptr [ecx], ah
  0x451e	cmp    	dword ptr [eax], eax
  0x4520	or     	ah, 0x50
  === BLOCK LINK ===
    0x4523
=== CODE BLOCK END ===

=== CODE BLOCK ADDRESS 0x4523 ===
  0x4523	add    	byte ptr [edx], dh
  0x4526	add    	byte ptr gs:[ebx], dh
  0x452a	add    	byte ptr gs:[esi], ch
  0x452e	je     	0x4530
  === BLOCK LINK ===
    0x4530
=== CODE BLOCK END ===

=== CODE BLOCK ADDRESS 0x4530 ===
  0x4530	popal  	
  0x4531	add    	byte ptr [eax + eax + 0x69], dh
  0x4535	add    	byte ptr [edi], ch
  0x4538	outsb  	dx, byte ptr [esi]
  0x4539	add    	byte ptr [esi], al
  === BLOCK LINK ===
    0x453c
=== CODE BLOCK END ===

=== CODE BLOCK ADDRESS 0x453c ===
  0x453c	jb     	0x453e
  === BLOCK LINK ===
    0x453e
=== CODE BLOCK END ===

=== CODE BLOCK ADDRESS 0x453e ===
  0x453e	popal  	
  0x453f	add    	byte ptr [ebp], ch
  0x4542	add    	byte ptr gs:[edi], dh
  0x4546	outsd  	dx, dword ptr [esi]
  0x4547	add    	byte ptr [edx], dh
  === BLOCK LINK ===
    0x454a
=== CODE BLOCK END ===

=== CODE BLOCK ADDRESS 0x454a ===
  0x454a	imul   	eax, dword ptr [eax], 0x2e
  0x454d	add    	byte ptr [eax + eax + 0x75], cl
  0x4551	add    	byte ptr [esi], ch
  0x4554	popal  	
  0x4555	add    	byte ptr [eax + eax], ch
  === BLOCK LINK ===
    0x4558
=== CODE BLOCK END ===

=== CODE BLOCK ADDRESS 0x4558 ===
  0x4558	and    	byte ptr [eax], al
  0x455a	push   	eax
  0x455b	add    	byte ptr [ebp], dh
  0x455e	bound  	eax, qword ptr [eax]
  0x4560	insb   	byte ptr es:[edi], dx
  === BLOCK LINK ===
    0x4561
=== CODE BLOCK END ===

=== CODE BLOCK ADDRESS 0x4561 ===
  0x4561	add    	byte ptr [ecx], ch
  0x4564	arpl   	word ptr [eax], ax
  0x4566	dec    	ebx
  0x4567	add    	byte ptr [ebp], ah
  0x456a	jns    	0x456c
  === BLOCK LINK ===
    0x456c
=== CODE BLOCK END ===

=== CODE BLOCK ADDRESS 0x456c ===
  0x456c	cmp    	eax, 0x30003000
  0x4571	add    	byte ptr [edx], dh
  0x4573	add    	byte ptr [eax + eax], dh
  0x4576	xor    	byte ptr [eax], al
  0x4578	xor    	byte ptr [eax], al
  === BLOCK LINK ===
    0x457a
=== CODE BLOCK END ===

=== CODE BLOCK ADDRESS 0x457a ===
  0x457a	xor    	byte ptr [eax], al
  0x457c	xor    	byte ptr [eax], al
  0x457e	xor    	byte ptr [eax], al
  0x4580	xor    	al, 0
  0x4582	cmp    	byte ptr [eax], al
  === BLOCK LINK ===
    0x4584
=== CODE BLOCK END ===

=== CODE BLOCK ADDRESS 0x4584 ===
  0x4584	xor    	byte ptr [eax], al
  0x4586	xor    	byte ptr [eax], al
  0x4588	xor    	byte ptr [eax], al
  0x458a	xor    	byte ptr [eax], al
  0x458c	xor    	byte ptr [eax], al
  === BLOCK LINK ===
    0x458e
=== CODE BLOCK END ===

=== CODE BLOCK ADDRESS 0x458e ===
  0x458e	cmp    	dword ptr [eax], eax
  0x4590	xor    	al, 0
  0x4592	xor    	byte ptr [eax], al
  0x4594	xor    	byte ptr [eax], al
  0x4596	xor    	byte ptr [eax], al
  === BLOCK LINK ===
    0x4598
=== CODE BLOCK END ===

=== CODE BLOCK ADDRESS 0x4598 ===
  0x4598	xor    	byte ptr [eax], al
  0x459a	xor    	byte ptr [eax], al
  0x459c	xor    	byte ptr [eax], al
  0x459e	xor    	byte ptr [eax], al
  0x45a0	add    	byte ptr ss:[eax], dh
  === BLOCK LINK ===
    0x45a3
=== CODE BLOCK END ===

=== CODE BLOCK ADDRESS 0x45a3 ===
  0x45a3	add    	byte ptr [edx], dh
  0x45a5	add    	byte ptr [eax], dh
  0x45a7	add    	byte ptr [eax], dh
  0x45a9	add    	byte ptr [eax], dh
  0x45ab	add    	byte ptr [eax], dh
  === BLOCK LINK ===
    0x45ad
=== CODE BLOCK END ===

=== CODE BLOCK ADDRESS 0x45ad ===
  0x45ad	add    	byte ptr [eax], dh
  0x45af	add    	byte ptr [eax], dh
  0x45b1	add    	byte ptr [edx], dh
  0x45b3	add    	byte ptr [eax + eax], dh
  0x45b6	xor    	byte ptr [eax], al
  === BLOCK LINK ===
    0x45b8
=== CODE BLOCK END ===

=== CODE BLOCK ADDRESS 0x45b8 ===
  0x45b8	xor    	byte ptr [eax], al
  0x45ba	xor    	byte ptr [eax], al
  0x45bc	xor    	byte ptr [eax], al
  0x45be	xor    	eax, 0x35003200
  0x45c3	add    	byte ptr [ebx], dh
  === BLOCK LINK ===
    0x45c5
=== CODE BLOCK END ===

=== CODE BLOCK ADDRESS 0x45c5 ===
  0x45c5	add    	byte ptr [eax + eax], dh
  0x45c8	xor    	dword ptr [eax], eax
  0x45ca	xor    	eax, dword ptr [eax]
  0x45cc	xor    	dword ptr [eax], eax
  0x45ce	xor    	byte ptr [eax], al
  === BLOCK LINK ===
    0x45d0
=== CODE BLOCK END ===

=== CODE BLOCK ADDRESS 0x45d0 ===
  0x45d0	xor    	byte ptr [eax], al
  0x45d2	xor    	byte ptr [eax], al
  0x45d4	xor    	al, 0
  0x45d6	xor    	byte ptr [eax], al
  0x45d8	xor    	byte ptr [eax], al
  === BLOCK LINK ===
    0x45da
=== CODE BLOCK END ===

=== CODE BLOCK ADDRESS 0x45da ===
  0x45da	xor    	byte ptr [eax], al
  0x45dc	xor    	byte ptr [eax], al
  0x45de	xor    	byte ptr [eax], al
  0x45e0	xor    	dword ptr [eax], eax
  0x45e2	xor    	byte ptr [eax], al
  === BLOCK LINK ===
    0x45e4
=== CODE BLOCK END ===

=== CODE BLOCK ADDRESS 0x45e4 ===
  0x45e4	xor    	byte ptr [eax], al
  0x45e6	xor    	byte ptr [eax], al
  0x45e8	xor    	dword ptr [eax], eax
  0x45ea	xor    	byte ptr [eax], al
  0x45ec	xor    	byte ptr [eax], al
  === BLOCK LINK ===
    0x45ee
=== CODE BLOCK END ===

=== CODE BLOCK ADDRESS 0x45ee ===
  0x45ee	bound  	eax, qword ptr [eax]
  0x45f0	xor    	eax, 0x63006600
  0x45f5	add    	byte ptr [ecx], bh
  0x45f7	add    	byte ptr [eax], dh
  0x45f9	add    	byte ptr [ebp], ah
  === BLOCK LINK ===
    0x45fc
=== CODE BLOCK END ===

=== CODE BLOCK ADDRESS 0x45fc ===
  0x45fc	aaa    	
  0x45fd	add    	byte ptr [eax], dh
  0x45ff	add    	byte ptr [edx], dh
  0x4601	add    	byte ptr [edi], dh
  0x4603	add    	byte ptr [esi], ah
  === BLOCK LINK ===
    0x4606
=== CODE BLOCK END ===

=== CODE BLOCK ADDRESS 0x4606 ===
  0x4606	add    	byte ptr ss:[edi], dh
  0x4609	add    	byte ptr [eax], bh
  0x460b	add    	byte ptr [edi], dh
  0x460d	add    	byte ptr [ecx], dh
  0x460f	add    	byte ptr [ebp], ah
  === BLOCK LINK ===
    0x4612
=== CODE BLOCK END ===

=== CODE BLOCK ADDRESS 0x4612 ===
  0x4612	aaa    	
  0x4613	add    	byte ptr [edi], dh
  0x4615	add    	byte ptr [ebx], dh
  0x4617	add    	byte ptr [ecx], ah
  0x461a	cmp    	byte ptr [eax], al
  === BLOCK LINK ===
    0x461c
=== CODE BLOCK END ===

=== CODE BLOCK ADDRESS 0x461c ===
  0x461c	add    	byte ptr [eax + eax + 0x65], ah
  0x4621	add    	byte ptr [eax], bh
  0x4623	add    	byte ptr [ecx], bh
  0x4625	add    	byte ptr [ebx], dh
  0x4627	add    	byte ptr [eax], bh
  === BLOCK LINK ===
    0x4629
=== CODE BLOCK END ===

=== CODE BLOCK ADDRESS 0x4629 ===
  0x4629	add    	byte ptr [ebx], ah
  0x462c	cmp    	byte ptr [eax], al
  0x462e	xor    	dword ptr [eax], eax
  0x4630	add    	byte ptr fs:[eax + eax + 0x34], ah
  0x4635	add    	byte ptr [eax], dh
  === BLOCK LINK ===
    0x4637
=== CODE BLOCK END ===

=== CODE BLOCK ADDRESS 0x4637 ===
  0x4637	add    	byte ptr [edx], dh
  0x4639	add    	byte ptr [edx], ah
  0x463c	popal  	
  0x463d	add    	byte ptr [esi], dh
  0x463f	add    	byte ptr [0x39006200], dh
  === BLOCK LINK ===
    0x4645
=== CODE BLOCK END ===

=== CODE BLOCK ADDRESS 0x4645 ===
  0x4645	add    	byte ptr [edx], dh
  0x4647	add    	byte ptr [eax], dh
  0x4649	add    	byte ptr [ecx], dh
  0x464b	add    	byte ptr [eax + eax + 0x36], ah
  0x464f	add    	byte ptr [eax], dh
  === BLOCK LINK ===
    0x4651
=== CODE BLOCK END ===

=== CODE BLOCK ADDRESS 0x4651 ===
  0x4651	add    	byte ptr [0x33003900], dh
  0x4657	add    	byte ptr [ebp], ah
  0x465a	cmp    	dword ptr [eax], eax
  0x465c	add    	byte ptr ss:[ebx], ah
  0x4660	xor    	al, 0
  === BLOCK LINK ===
    0x4662
=== CODE BLOCK END ===

=== CODE BLOCK ADDRESS 0x4662 ===
  0x4662	cmp    	dword ptr [eax], eax
  0x4664	xor    	al, byte ptr [eax]
  0x4666	add    	byte ptr ss:[0x65003100], dh
  0x466d	add    	byte ptr [eax], bh
  0x466f	add    	byte ptr [eax], bh
  === BLOCK LINK ===
    0x4671
=== CODE BLOCK END ===

=== CODE BLOCK ADDRESS 0x4671 ===
  0x4671	add    	byte ptr [ecx], bh
  0x4673	add    	byte ptr [ebx], ah
  0x4676	arpl   	word ptr [eax], ax
  0x4678	xor    	dword ptr [eax], eax
  0x467a	xor    	eax, dword ptr [eax]
  === BLOCK LINK ===
    0x467c
=== CODE BLOCK END ===

=== CODE BLOCK ADDRESS 0x467c ===
  0x467c	add    	byte ptr [ecx], dh
  0x467f	add    	byte ptr [eax + eax], dh
  0x4682	xor    	dword ptr [eax], eax
  0x4684	xor    	eax, 0x62006500
  0x4689	add    	byte ptr [edx], ah
  === BLOCK LINK ===
    0x468c
=== CODE BLOCK END ===

=== CODE BLOCK ADDRESS 0x468c ===
  0x468c	xor    	eax, 0x66003300
  0x4691	add    	byte ptr [ecx], ah
  0x4694	arpl   	word ptr [eax], ax
  0x4696	xor    	dword ptr [eax], eax
  0x4698	xor    	dword ptr [eax], eax
  === BLOCK LINK ===
    0x469a
=== CODE BLOCK END ===

=== CODE BLOCK ADDRESS 0x469a ===
  0x469a	xor    	eax, dword ptr [eax]
  0x469c	xor    	dword ptr [eax], eax
  0x469e	popal  	
  0x469f	add    	byte ptr [ebp], ah
  0x46a2	xor    	byte ptr [eax], al
  === BLOCK LINK ===
    0x46a4
=== CODE BLOCK END ===

=== CODE BLOCK ADDRESS 0x46a4 ===
  0x46a4	bound  	eax, qword ptr [eax]
  0x46a6	add    	byte ptr fs:[ebx], dh
  0x46a9	add    	byte ptr [ebx], dh
  0x46ab	add    	byte ptr [ebx], dh
  0x46ad	add    	byte ptr [ebx], ah
  === BLOCK LINK ===
    0x46b0
=== CODE BLOCK END ===

=== CODE BLOCK ADDRESS 0x46b0 ===
  0x46b0	xor    	eax, 0x65006500
  0x46b5	add    	byte ptr [esi], dh
  0x46b7	add    	byte ptr [eax], dh
  0x46b9	add    	byte ptr [edx], dh
  0x46bb	add    	byte ptr [ecx], dh
  === BLOCK LINK ===
    0x46bd
=== CODE BLOCK END ===

=== CODE BLOCK ADDRESS 0x46bd ===
  0x46bd	add    	byte ptr [esi], dh
  0x46bf	add    	byte ptr [edi], dh
  0x46c1	add    	byte ptr [edx], dh
  0x46c3	add    	byte ptr [eax + eax + 0x39], ah
  0x46c7	add    	byte ptr [edi], dh
  === BLOCK LINK ===
    0x46c9
=== CODE BLOCK END ===

=== CODE BLOCK ADDRESS 0x46c9 ===
  0x46c9	add    	byte ptr [ecx], dh
  0x46cb	add    	byte ptr [eax], bh
  0x46cd	add    	byte ptr [ebp], ah
  0x46d0	popal  	
  0x46d1	add    	byte ptr [ebx], dh
  === BLOCK LINK ===
    0x46d3
=== CODE BLOCK END ===

=== CODE BLOCK ADDRESS 0x46d3 ===
  0x46d3	add    	byte ptr [ecx], dh
  0x46d5	add    	byte ptr [ecx], ah
  0x46d8	cmp    	byte ptr [eax], al
  0x46da	popal  	
  0x46db	add    	byte ptr [ebp], ah
  === BLOCK LINK ===
    0x46de
=== CODE BLOCK END ===

=== CODE BLOCK ADDRESS 0x46de ===
  0x46de	bound  	eax, qword ptr [eax]
  0x46e0	add    	byte ptr fs:[eax], dh
  0x46e3	add    	byte ptr [eax + eax + 0x61], ah
  0x46e7	add    	byte ptr [eax], dh
  0x46e9	add    	byte ptr [eax], dh
  === BLOCK LINK ===
    0x46eb
=== CODE BLOCK END ===

=== CODE BLOCK ADDRESS 0x46eb ===
  0x46eb	add    	byte ptr [edi], dh
  0x46ed	add    	byte ptr [edx], dh
  0x46ef	add    	byte ptr [esi], ah
  0x46f2	xor    	al, byte ptr [eax]
  0x46f4	xor    	eax, 0x38006400
  === BLOCK LINK ===
    0x46f9
=== CODE BLOCK END ===

=== CODE BLOCK ADDRESS 0x46f9 ===
  0x46f9	add    	byte ptr [edi], dh
  0x46fb	add    	byte ptr [eax + eax + 0x62], ah
  0x46ff	add    	byte ptr [ecx], ah
  0x4702	add    	byte ptr ss:[esi], ah
  0x4706	arpl   	word ptr [eax], ax
  === BLOCK LINK ===
    0x4708
=== CODE BLOCK END ===

=== CODE BLOCK ADDRESS 0x4708 ===
  0x4708	cmp    	dword ptr [eax], eax
  0x470a	xor    	byte ptr [eax], al
  0x470c	add    	byte ptr [esi], ah
  0x4710	add    	byte ptr fs:[0x38003900], dh
  0x4717	add    	byte ptr [ebp], ah
  === BLOCK LINK ===
    0x471a
=== CODE BLOCK END ===

=== CODE BLOCK ADDRESS 0x471a ===
  0x471a	add    	byte ptr fs:[eax + eax], dh
  0x471e	add    	byte ptr fs:[ecx], ah
  0x4722	xor    	eax, dword ptr [eax]
  0x4724	xor    	eax, 0x34006500
  0x4729	add    	byte ptr [eax + eax], dh
  === BLOCK LINK ===
    0x472c
=== CODE BLOCK END ===

=== CODE BLOCK ADDRESS 0x472c ===
  0x472c	arpl   	word ptr [eax], ax
  0x472e	xor    	eax, dword ptr [eax]
  0x4730	cmp    	dword ptr [eax], eax
  0x4732	cmp    	byte ptr [eax], al
  0x4734	arpl   	word ptr [eax], ax
  === BLOCK LINK ===
    0x4736
=== CODE BLOCK END ===

=== CODE BLOCK ADDRESS 0x4736 ===
  0x4736	xor    	al, 0
  0x4738	xor    	eax, 0x33003400
  0x473d	add    	byte ptr [eax], dh
  0x473f	add    	byte ptr [edi], dh
  0x4741	add    	byte ptr [ebp], ah
  === BLOCK LINK ===
    0x4744
=== CODE BLOCK END ===

=== CODE BLOCK ADDRESS 0x4744 ===
  0x4744	cmp    	byte ptr [eax], al
  0x4746	add    	byte ptr gs:[ebx], dh
  0x4749	add    	byte ptr [ebx], dh
  0x474b	add    	byte ptr [edx], ah
  0x474e	cmp    	byte ptr [eax], al
  === BLOCK LINK ===
    0x4750
=== CODE BLOCK END ===

=== CODE BLOCK ADDRESS 0x4750 ===
  0x4750	xor    	al, 0
  0x4752	xor    	al, byte ptr [eax]
  0x4754	add    	byte ptr ss:[ecx], dh
  0x4757	add    	byte ptr [eax + eax], dh
  0x475a	xor    	eax, dword ptr [eax]
  === BLOCK LINK ===
    0x475c
=== CODE BLOCK END ===

=== CODE BLOCK ADDRESS 0x475c ===
  0x475c	add    	byte ptr fs:[ecx], ah
  0x4760	add    	byte ptr gs:[ebx], ah
  0x4764	cmp    	dword ptr [eax], eax
  0x4766	add    	byte ptr [0x36003900], dh
  0x476d	add    	byte ptr [eax], bh
  === BLOCK LINK ===
    0x476f
=== CODE BLOCK END ===

=== CODE BLOCK ADDRESS 0x476f ===
  0x476f	add    	byte ptr [ebx], dh
  0x4771	add    	byte ptr [esi], dh
  0x4773	add    	byte ptr [esi], ah
  0x4776	cmp    	dword ptr [eax], eax
  0x4778	aaa    	
  === BLOCK LINK ===
    0x4779
=== CODE BLOCK END ===

=== CODE BLOCK ADDRESS 0x4779 ===
  0x4779	add    	byte ptr [ebx], ah
  0x477c	cmp    	byte ptr [eax], al
  0x477e	add    	byte ptr [edi], dh
  0x4781	add    	byte ptr [eax + eax], dh
  0x4784	aaa    	
  === BLOCK LINK ===
    0x4785
=== CODE BLOCK END ===

=== CODE BLOCK ADDRESS 0x4785 ===
  0x4785	add    	byte ptr [0x65003000], dh
  0x478b	add    	byte ptr [0x37003900], dh
  0x4791	add    	byte ptr [0x36006300], dh
  0x4797	add    	byte ptr [eax + eax], dh
  0x479a	add    	byte ptr gs:[edx], dh
  === BLOCK LINK ===
    0x479d
=== CODE BLOCK END ===

=== CODE BLOCK ADDRESS 0x479d ===
  0x479d	add    	byte ptr [ecx], dh
  0x479f	add    	byte ptr [eax], bh
  0x47a1	add    	byte ptr [ecx], bh
  0x47a3	add    	byte ptr [esi], ah
  0x47a6	xor    	al, 0
  === BLOCK LINK ===
    0x47a8
=== CODE BLOCK END ===

=== CODE BLOCK ADDRESS 0x47a8 ===
  0x47a8	xor    	eax, 0x65006400
  0x47ad	add    	byte ptr [esi], ah
  0x47b0	xor    	al, 0
  0x47b2	add    	byte ptr ss:[edx], ah
  0x47b6	xor    	al, byte ptr [eax]
  === BLOCK LINK ===
    0x47b8
=== CODE BLOCK END ===

=== CODE BLOCK ADDRESS 0x47b8 ===
  0x47b8	popal  	
  0x47b9	add    	byte ptr [edx], dh
  0x47bb	add    	byte ptr [edx], ah
  0x47be	xor    	dword ptr [eax], eax
  0x47c0	xor    	al, byte ptr [eax]
  === BLOCK LINK ===
    0x47c2
=== CODE BLOCK END ===

=== CODE BLOCK ADDRESS 0x47c2 ===
  0x47c2	xor    	al, 0
  0x47c4	aaa    	
  0x47c5	add    	byte ptr [ecx], ah
  0x47c8	add    	byte ptr fs:[ebx], ah
  0x47cc	xor    	eax, dword ptr [eax]
  === BLOCK LINK ===
    0x47ce
=== CODE BLOCK END ===

=== CODE BLOCK ADDRESS 0x47ce ===
  0x47ce	add    	byte ptr ss:[0x62003200], dh
  0x47d5	add    	byte ptr [esi], ah
  0x47d8	xor    	eax, 0x33006300
  0x47dd	add    	byte ptr [eax], dh
  0x47df	add    	byte ptr [eax], bh
  === BLOCK LINK ===
    0x47e1
=== CODE BLOCK END ===

=== CODE BLOCK ADDRESS 0x47e1 ===
  0x47e1	add    	byte ptr [eax], dh
  0x47e3	add    	byte ptr [0x64003500], dh
  0x47e9	add    	byte ptr [ecx], ah
  0x47ec	cmp    	dword ptr [eax], eax
  0x47ee	adc    	al, 0x50
  === BLOCK LINK ===
    0x47f1
=== CODE BLOCK END ===

=== CODE BLOCK ADDRESS 0x47f1 ===
  0x47f1	add    	byte ptr [edx], dh
  0x47f4	add    	byte ptr gs:[ebx], dh
  0x47f8	add    	byte ptr gs:[esi], ch
  0x47fc	je     	0x47fe
  === BLOCK LINK ===
    0x47fe
=== CODE BLOCK END ===

=== CODE BLOCK ADDRESS 0x47fe ===
  0x47fe	popal  	
  0x47ff	add    	byte ptr [eax + eax + 0x69], dh
  0x4803	add    	byte ptr [edi], ch
  0x4806	outsb  	dx, byte ptr [esi]
  0x4807	add    	byte ptr [esi], al
  === BLOCK LINK ===
    0x480a
=== CODE BLOCK END ===

=== CODE BLOCK ADDRESS 0x480a ===
  0x480a	jb     	0x480c
  === BLOCK LINK ===
    0x480c
=== CODE BLOCK END ===

=== CODE BLOCK ADDRESS 0x480c ===
  0x480c	popal  	
  0x480d	add    	byte ptr [ebp], ch
  0x4810	add    	byte ptr gs:[edi], dh
  0x4814	outsd  	dx, dword ptr [esi]
  0x4815	add    	byte ptr [edx], dh
  === BLOCK LINK ===
    0x4818
=== CODE BLOCK END ===

=== CODE BLOCK ADDRESS 0x4818 ===
  0x4818	imul   	eax, dword ptr [eax], 0x2e
  0x481b	add    	byte ptr [edx], dl
  0x481e	outsd  	dx, dword ptr [esi]
  0x481f	add    	byte ptr [ecx], bh
  0x4822	popal  	
  === BLOCK LINK ===
    0x4823
=== CODE BLOCK END ===

=== CODE BLOCK ADDRESS 0x4823 ===
  0x4823	add    	byte ptr [eax + eax + 0x65], ch
  0x4827	add    	byte ptr [eax + eax], ch
  0x482a	and    	byte ptr [eax], al
  0x482c	push   	eax
  0x482d	add    	byte ptr [ebp], dh
  === BLOCK LINK ===
    0x4830
=== CODE BLOCK END ===

=== CODE BLOCK ADDRESS 0x4830 ===
  0x4830	bound  	eax, qword ptr [eax]
  0x4832	insb   	byte ptr es:[edi], dx
  0x4833	add    	byte ptr [ecx], ch
  0x4836	arpl   	word ptr [eax], ax
  0x4838	dec    	ebx
  === BLOCK LINK ===
    0x4839
=== CODE BLOCK END ===

=== CODE BLOCK ADDRESS 0x4839 ===
  0x4839	add    	byte ptr [ebp], ah
  0x483c	jns    	0x483e
  === BLOCK LINK ===
    0x483e
=== CODE BLOCK END ===

=== CODE BLOCK ADDRESS 0x483e ===
  0x483e	cmp    	eax, 0x30003000
  0x4843	add    	byte ptr [edx], dh
  0x4845	add    	byte ptr [eax + eax], dh
  0x4848	xor    	byte ptr [eax], al
  0x484a	xor    	byte ptr [eax], al
  === BLOCK LINK ===
    0x484c
=== CODE BLOCK END ===

=== CODE BLOCK ADDRESS 0x484c ===
  0x484c	xor    	byte ptr [eax], al
  0x484e	xor    	byte ptr [eax], al
  0x4850	xor    	byte ptr [eax], al
  0x4852	xor    	al, 0
  0x4854	cmp    	byte ptr [eax], al
  === BLOCK LINK ===
    0x4856
=== CODE BLOCK END ===

=== CODE BLOCK ADDRESS 0x4856 ===
  0x4856	xor    	byte ptr [eax], al
  0x4858	xor    	byte ptr [eax], al
  0x485a	xor    	byte ptr [eax], al
  0x485c	xor    	byte ptr [eax], al
  0x485e	xor    	byte ptr [eax], al
  === BLOCK LINK ===
    0x4860
=== CODE BLOCK END ===

=== CODE BLOCK ADDRESS 0x4860 ===
  0x4860	cmp    	dword ptr [eax], eax
  0x4862	xor    	al, 0
  0x4864	xor    	byte ptr [eax], al
  0x4866	xor    	byte ptr [eax], al
  0x4868	xor    	byte ptr [eax], al
  === BLOCK LINK ===
    0x486a
=== CODE BLOCK END ===

=== CODE BLOCK ADDRESS 0x486a ===
  0x486a	xor    	byte ptr [eax], al
  0x486c	xor    	byte ptr [eax], al
  0x486e	xor    	byte ptr [eax], al
  0x4870	xor    	byte ptr [eax], al
  0x4872	add    	byte ptr ss:[eax], dh
  === BLOCK LINK ===
    0x4875
=== CODE BLOCK END ===

=== CODE BLOCK ADDRESS 0x4875 ===
  0x4875	add    	byte ptr [edx], dh
  0x4877	add    	byte ptr [eax], dh
  0x4879	add    	byte ptr [eax], dh
  0x487b	add    	byte ptr [eax], dh
  0x487d	add    	byte ptr [eax], dh
  === BLOCK LINK ===
    0x487f
=== CODE BLOCK END ===

=== CODE BLOCK ADDRESS 0x487f ===
  0x487f	add    	byte ptr [eax], dh
  0x4881	add    	byte ptr [eax], dh
  0x4883	add    	byte ptr [edx], dh
  0x4885	add    	byte ptr [eax + eax], dh
  0x4888	xor    	byte ptr [eax], al
  === BLOCK LINK ===
    0x488a
=== CODE BLOCK END ===

=== CODE BLOCK ADDRESS 0x488a ===
  0x488a	xor    	byte ptr [eax], al
  0x488c	xor    	byte ptr [eax], al
  0x488e	xor    	byte ptr [eax], al
  0x4890	xor    	eax, 0x35003200
  0x4895	add    	byte ptr [ebx], dh
  === BLOCK LINK ===
    0x4897
=== CODE BLOCK END ===

=== CODE BLOCK ADDRESS 0x4897 ===
  0x4897	add    	byte ptr [eax + eax], dh
  0x489a	xor    	dword ptr [eax], eax
  0x489c	xor    	eax, dword ptr [eax]
  0x489e	xor    	dword ptr [eax], eax
  0x48a0	xor    	byte ptr [eax], al
  === BLOCK LINK ===
    0x48a2
=== CODE BLOCK END ===

=== CODE BLOCK ADDRESS 0x48a2 ===
  0x48a2	xor    	byte ptr [eax], al
  0x48a4	xor    	byte ptr [eax], al
  0x48a6	xor    	al, 0
  0x48a8	xor    	byte ptr [eax], al
  0x48aa	xor    	byte ptr [eax], al
  === BLOCK LINK ===
    0x48ac
=== CODE BLOCK END ===

=== CODE BLOCK ADDRESS 0x48ac ===
  0x48ac	xor    	byte ptr [eax], al
  0x48ae	xor    	byte ptr [eax], al
  0x48b0	xor    	byte ptr [eax], al
  0x48b2	xor    	dword ptr [eax], eax
  0x48b4	xor    	byte ptr [eax], al
  === BLOCK LINK ===
    0x48b6
=== CODE BLOCK END ===

=== CODE BLOCK ADDRESS 0x48b6 ===
  0x48b6	xor    	byte ptr [eax], al
  0x48b8	xor    	byte ptr [eax], al
  0x48ba	xor    	dword ptr [eax], eax
  0x48bc	xor    	byte ptr [eax], al
  0x48be	xor    	byte ptr [eax], al
  === BLOCK LINK ===
    0x48c0
=== CODE BLOCK END ===

=== CODE BLOCK ADDRESS 0x48c0 ===
  0x48c0	bound  	eax, qword ptr [eax]
  0x48c2	xor    	eax, 0x63006600
  0x48c7	add    	byte ptr [ecx], bh
  0x48c9	add    	byte ptr [eax], dh
  0x48cb	add    	byte ptr [ebp], ah
  === BLOCK LINK ===
    0x48ce
=== CODE BLOCK END ===

=== CODE BLOCK ADDRESS 0x48ce ===
  0x48ce	aaa    	
  0x48cf	add    	byte ptr [eax], dh
  0x48d1	add    	byte ptr [edx], dh
  0x48d3	add    	byte ptr [edi], dh
  0x48d5	add    	byte ptr [esi], ah
  === BLOCK LINK ===
    0x48d8
=== CODE BLOCK END ===

=== CODE BLOCK ADDRESS 0x48d8 ===
  0x48d8	add    	byte ptr ss:[edi], dh
  0x48db	add    	byte ptr [eax], bh
  0x48dd	add    	byte ptr [edi], dh
  0x48df	add    	byte ptr [ecx], dh
  0x48e1	add    	byte ptr [ebp], ah
  === BLOCK LINK ===
    0x48e4
=== CODE BLOCK END ===

=== CODE BLOCK ADDRESS 0x48e4 ===
  0x48e4	aaa    	
  0x48e5	add    	byte ptr [edi], dh
  0x48e7	add    	byte ptr [ebx], dh
  0x48e9	add    	byte ptr [ecx], ah
  0x48ec	cmp    	byte ptr [eax], al
  === BLOCK LINK ===
    0x48ee
=== CODE BLOCK END ===

=== CODE BLOCK ADDRESS 0x48ee ===
  0x48ee	add    	byte ptr [eax + eax + 0x65], ah
  0x48f3	add    	byte ptr [eax], bh
  0x48f5	add    	byte ptr [ecx], bh
  0x48f7	add    	byte ptr [ebx], dh
  0x48f9	add    	byte ptr [eax], bh
  === BLOCK LINK ===
    0x48fb
=== CODE BLOCK END ===

=== CODE BLOCK ADDRESS 0x48fb ===
  0x48fb	add    	byte ptr [ebx], ah
  0x48fe	cmp    	byte ptr [eax], al
  0x4900	xor    	dword ptr [eax], eax
  0x4902	add    	byte ptr fs:[eax + eax + 0x34], ah
  0x4907	add    	byte ptr [eax], dh
  === BLOCK LINK ===
    0x4909
=== CODE BLOCK END ===

=== CODE BLOCK ADDRESS 0x4909 ===
  0x4909	add    	byte ptr [edx], dh
  0x490b	add    	byte ptr [edx], ah
  0x490e	popal  	
  0x490f	add    	byte ptr [esi], dh
  0x4911	add    	byte ptr [0x39006200], dh
  === BLOCK LINK ===
    0x4917
=== CODE BLOCK END ===

=== CODE BLOCK ADDRESS 0x4917 ===
  0x4917	add    	byte ptr [edx], dh
  0x4919	add    	byte ptr [eax], dh
  0x491b	add    	byte ptr [ecx], dh
  0x491d	add    	byte ptr [eax + eax + 0x36], ah
  0x4921	add    	byte ptr [eax], dh
  === BLOCK LINK ===
    0x4923
=== CODE BLOCK END ===

=== CODE BLOCK ADDRESS 0x4923 ===
  0x4923	add    	byte ptr [0x33003900], dh
  0x4929	add    	byte ptr [ebp], ah
  0x492c	cmp    	dword ptr [eax], eax
  0x492e	add    	byte ptr ss:[ebx], ah
  0x4932	xor    	al, 0
  === BLOCK LINK ===
    0x4934
=== CODE BLOCK END ===

=== CODE BLOCK ADDRESS 0x4934 ===
  0x4934	cmp    	dword ptr [eax], eax
  0x4936	xor    	al, byte ptr [eax]
  0x4938	add    	byte ptr ss:[0x65003100], dh
  0x493f	add    	byte ptr [eax], bh
  0x4941	add    	byte ptr [eax], bh
  === BLOCK LINK ===
    0x4943
=== CODE BLOCK END ===

=== CODE BLOCK ADDRESS 0x4943 ===
  0x4943	add    	byte ptr [ecx], bh
  0x4945	add    	byte ptr [ebx], ah
  0x4948	arpl   	word ptr [eax], ax
  0x494a	xor    	dword ptr [eax], eax
  0x494c	xor    	eax, dword ptr [eax]
  === BLOCK LINK ===
    0x494e
=== CODE BLOCK END ===

=== CODE BLOCK ADDRESS 0x494e ===
  0x494e	add    	byte ptr [ecx], dh
  0x4951	add    	byte ptr [eax + eax], dh
  0x4954	xor    	dword ptr [eax], eax
  0x4956	xor    	eax, 0x62006500
  0x495b	add    	byte ptr [edx], ah
  === BLOCK LINK ===
    0x495e
=== CODE BLOCK END ===

=== CODE BLOCK ADDRESS 0x495e ===
  0x495e	xor    	eax, 0x66003300
  0x4963	add    	byte ptr [ecx], ah
  0x4966	arpl   	word ptr [eax], ax
  0x4968	xor    	dword ptr [eax], eax
  0x496a	xor    	dword ptr [eax], eax
  === BLOCK LINK ===
    0x496c
=== CODE BLOCK END ===

=== CODE BLOCK ADDRESS 0x496c ===
  0x496c	xor    	eax, dword ptr [eax]
  0x496e	xor    	dword ptr [eax], eax
  0x4970	popal  	
  0x4971	add    	byte ptr [ebp], ah
  0x4974	xor    	byte ptr [eax], al
  === BLOCK LINK ===
    0x4976
=== CODE BLOCK END ===

=== CODE BLOCK ADDRESS 0x4976 ===
  0x4976	bound  	eax, qword ptr [eax]
  0x4978	add    	byte ptr fs:[ebx], dh
  0x497b	add    	byte ptr [ebx], dh
  0x497d	add    	byte ptr [ebx], dh
  0x497f	add    	byte ptr [ebx], ah
  === BLOCK LINK ===
    0x4982
=== CODE BLOCK END ===

=== CODE BLOCK ADDRESS 0x4982 ===
  0x4982	xor    	eax, 0x65006500
  0x4987	add    	byte ptr [esi], dh
  0x4989	add    	byte ptr [eax], dh
  0x498b	add    	byte ptr [edx], dh
  0x498d	add    	byte ptr [ecx], dh
  === BLOCK LINK ===
    0x498f
=== CODE BLOCK END ===

=== CODE BLOCK ADDRESS 0x498f ===
  0x498f	add    	byte ptr [esi], dh
  0x4991	add    	byte ptr [edi], dh
  0x4993	add    	byte ptr [edx], dh
  0x4995	add    	byte ptr [eax + eax + 0x39], ah
  0x4999	add    	byte ptr [edi], dh
  === BLOCK LINK ===
    0x499b
=== CODE BLOCK END ===

=== CODE BLOCK ADDRESS 0x499b ===
  0x499b	add    	byte ptr [ecx], dh
  0x499d	add    	byte ptr [eax], bh
  0x499f	add    	byte ptr [ebp], ah
  0x49a2	popal  	
  0x49a3	add    	byte ptr [ebx], dh
  === BLOCK LINK ===
    0x49a5
=== CODE BLOCK END ===

=== CODE BLOCK ADDRESS 0x49a5 ===
  0x49a5	add    	byte ptr [ecx], dh
  0x49a7	add    	byte ptr [ecx], ah
  0x49aa	cmp    	byte ptr [eax], al
  0x49ac	popal  	
  0x49ad	add    	byte ptr [ebp], ah
  === BLOCK LINK ===
    0x49b0
=== CODE BLOCK END ===

=== CODE BLOCK ADDRESS 0x49b0 ===
  0x49b0	bound  	eax, qword ptr [eax]
  0x49b2	add    	byte ptr fs:[eax], dh
  0x49b5	add    	byte ptr [eax + eax + 0x61], ah
  0x49b9	add    	byte ptr [eax], dh
  0x49bb	add    	byte ptr [eax], dh
  === BLOCK LINK ===
    0x49bd
=== CODE BLOCK END ===

=== CODE BLOCK ADDRESS 0x49bd ===
  0x49bd	add    	byte ptr [edi], dh
  0x49bf	add    	byte ptr [edx], dh
  0x49c1	add    	byte ptr [esi], ah
  0x49c4	xor    	al, byte ptr [eax]
  0x49c6	xor    	eax, 0x38006400
  === BLOCK LINK ===
    0x49cb
=== CODE BLOCK END ===

=== CODE BLOCK ADDRESS 0x49cb ===
  0x49cb	add    	byte ptr [edi], dh
  0x49cd	add    	byte ptr [eax + eax + 0x62], ah
  0x49d1	add    	byte ptr [ecx], ah
  0x49d4	add    	byte ptr ss:[esi], ah
  0x49d8	arpl   	word ptr [eax], ax
  === BLOCK LINK ===
    0x49da
=== CODE BLOCK END ===

=== CODE BLOCK ADDRESS 0x49da ===
  0x49da	cmp    	dword ptr [eax], eax
  0x49dc	xor    	byte ptr [eax], al
  0x49de	add    	byte ptr [esi], ah
  0x49e2	add    	byte ptr fs:[0x38003900], dh
  0x49e9	add    	byte ptr [ebp], ah
  === BLOCK LINK ===
    0x49ec
=== CODE BLOCK END ===

=== CODE BLOCK ADDRESS 0x49ec ===
  0x49ec	add    	byte ptr fs:[eax + eax], dh
  0x49f0	add    	byte ptr fs:[ecx], ah
  0x49f4	xor    	eax, dword ptr [eax]
  0x49f6	xor    	eax, 0x34006500
  0x49fb	add    	byte ptr [eax + eax], dh
  === BLOCK LINK ===
    0x49fe
=== CODE BLOCK END ===

=== CODE BLOCK ADDRESS 0x49fe ===
  0x49fe	arpl   	word ptr [eax], ax
  0x4a00	xor    	eax, dword ptr [eax]
  0x4a02	cmp    	dword ptr [eax], eax
  0x4a04	cmp    	byte ptr [eax], al
  0x4a06	arpl   	word ptr [eax], ax
  === BLOCK LINK ===
    0x4a08
=== CODE BLOCK END ===

=== CODE BLOCK ADDRESS 0x4a08 ===
  0x4a08	xor    	al, 0
  0x4a0a	xor    	eax, 0x33003400
  0x4a0f	add    	byte ptr [eax], dh
  0x4a11	add    	byte ptr [edi], dh
  0x4a13	add    	byte ptr [ebp], ah
  === BLOCK LINK ===
    0x4a16
=== CODE BLOCK END ===

=== CODE BLOCK ADDRESS 0x4a16 ===
  0x4a16	cmp    	byte ptr [eax], al
  0x4a18	add    	byte ptr gs:[ebx], dh
  0x4a1b	add    	byte ptr [ebx], dh
  0x4a1d	add    	byte ptr [edx], ah
  0x4a20	cmp    	byte ptr [eax], al
  === BLOCK LINK ===
    0x4a22
=== CODE BLOCK END ===

=== CODE BLOCK ADDRESS 0x4a22 ===
  0x4a22	xor    	al, 0
  0x4a24	xor    	al, byte ptr [eax]
  0x4a26	add    	byte ptr ss:[ecx], dh
  0x4a29	add    	byte ptr [eax + eax], dh
  0x4a2c	xor    	eax, dword ptr [eax]
  === BLOCK LINK ===
    0x4a2e
=== CODE BLOCK END ===

=== CODE BLOCK ADDRESS 0x4a2e ===
  0x4a2e	add    	byte ptr fs:[ecx], ah
  0x4a32	add    	byte ptr gs:[ebx], ah
  0x4a36	cmp    	dword ptr [eax], eax
  0x4a38	add    	byte ptr [0x36003900], dh
  0x4a3f	add    	byte ptr [eax], bh
  === BLOCK LINK ===
    0x4a41
=== CODE BLOCK END ===

=== CODE BLOCK ADDRESS 0x4a41 ===
  0x4a41	add    	byte ptr [ebx], dh
  0x4a43	add    	byte ptr [esi], dh
  0x4a45	add    	byte ptr [esi], ah
  0x4a48	cmp    	dword ptr [eax], eax
  0x4a4a	aaa    	
  === BLOCK LINK ===
    0x4a4b
=== CODE BLOCK END ===

=== CODE BLOCK ADDRESS 0x4a4b ===
  0x4a4b	add    	byte ptr [ebx], ah
  0x4a4e	cmp    	byte ptr [eax], al
  0x4a50	add    	byte ptr [edi], dh
  0x4a53	add    	byte ptr [eax + eax], dh
  0x4a56	aaa    	
  === BLOCK LINK ===
    0x4a57
=== CODE BLOCK END ===

=== CODE BLOCK ADDRESS 0x4a57 ===
  0x4a57	add    	byte ptr [0x65003000], dh
  0x4a5d	add    	byte ptr [0x37003900], dh
  0x4a63	add    	byte ptr [0x36006300], dh
  0x4a69	add    	byte ptr [eax + eax], dh
  0x4a6c	add    	byte ptr gs:[edx], dh
  === BLOCK LINK ===
    0x4a6f
=== CODE BLOCK END ===

=== CODE BLOCK ADDRESS 0x4a6f ===
  0x4a6f	add    	byte ptr [ecx], dh
  0x4a71	add    	byte ptr [eax], bh
  0x4a73	add    	byte ptr [ecx], bh
  0x4a75	add    	byte ptr [esi], ah
  0x4a78	xor    	al, 0
  === BLOCK LINK ===
    0x4a7a
=== CODE BLOCK END ===

=== CODE BLOCK ADDRESS 0x4a7a ===
  0x4a7a	xor    	eax, 0x65006400
  0x4a7f	add    	byte ptr [esi], ah
  0x4a82	xor    	al, 0
  0x4a84	add    	byte ptr ss:[edx], ah
  0x4a88	xor    	al, byte ptr [eax]
  === BLOCK LINK ===
    0x4a8a
=== CODE BLOCK END ===

=== CODE BLOCK ADDRESS 0x4a8a ===
  0x4a8a	popal  	
  0x4a8b	add    	byte ptr [edx], dh
  0x4a8d	add    	byte ptr [edx], ah
  0x4a90	xor    	dword ptr [eax], eax
  0x4a92	xor    	al, byte ptr [eax]
  === BLOCK LINK ===
    0x4a94
=== CODE BLOCK END ===

=== CODE BLOCK ADDRESS 0x4a94 ===
  0x4a94	xor    	al, 0
  0x4a96	aaa    	
  0x4a97	add    	byte ptr [ecx], ah
  0x4a9a	add    	byte ptr fs:[ebx], ah
  0x4a9e	xor    	eax, dword ptr [eax]
  === BLOCK LINK ===
    0x4aa0
=== CODE BLOCK END ===

=== CODE BLOCK ADDRESS 0x4aa0 ===
  0x4aa0	add    	byte ptr ss:[0x62003200], dh
  0x4aa7	add    	byte ptr [esi], ah
  0x4aaa	xor    	eax, 0x33006300
  0x4aaf	add    	byte ptr [eax], dh
  0x4ab1	add    	byte ptr [eax], bh
  === BLOCK LINK ===
    0x4ab3
=== CODE BLOCK END ===

=== CODE BLOCK ADDRESS 0x4ab3 ===
  0x4ab3	add    	byte ptr [eax], dh
  0x4ab5	add    	byte ptr [0x64003500], dh
  0x4abb	add    	byte ptr [ecx], ah
  0x4abe	cmp    	dword ptr [eax], eax
  0x4ac0	or     	ah, 0x50
  === BLOCK LINK ===
    0x4ac3
=== CODE BLOCK END ===

=== CODE BLOCK ADDRESS 0x4ac3 ===
  0x4ac3	add    	byte ptr [edx], dh
  0x4ac6	add    	byte ptr gs:[ebx], dh
  0x4aca	add    	byte ptr gs:[esi], ch
  0x4ace	je     	0x4ad0
  === BLOCK LINK ===
    0x4ad0
=== CODE BLOCK END ===

=== CODE BLOCK ADDRESS 0x4ad0 ===
  0x4ad0	popal  	
  0x4ad1	add    	byte ptr [eax + eax + 0x69], dh
  0x4ad5	add    	byte ptr [edi], ch
  0x4ad8	outsb  	dx, byte ptr [esi]
  0x4ad9	add    	byte ptr [esi], al
  === BLOCK LINK ===
    0x4adc
=== CODE BLOCK END ===

=== CODE BLOCK ADDRESS 0x4adc ===
  0x4adc	jb     	0x4ade
  === BLOCK LINK ===
    0x4ade
=== CODE BLOCK END ===

=== CODE BLOCK ADDRESS 0x4ade ===
  0x4ade	popal  	
  0x4adf	add    	byte ptr [ebp], ch
  0x4ae2	add    	byte ptr gs:[edi], dh
  0x4ae6	outsd  	dx, dword ptr [esi]
  0x4ae7	add    	byte ptr [edx], dh
  === BLOCK LINK ===
    0x4aea
=== CODE BLOCK END ===

=== CODE BLOCK ADDRESS 0x4aea ===
  0x4aea	imul   	eax, dword ptr [eax], 0x2e
  0x4aed	add    	byte ptr [ecx], al
  0x4af0	add    	byte ptr gs:[edx], dh
  0x4af4	outsd  	dx, dword ptr [esi]
  0x4af5	add    	byte ptr [eax + eax], ch
  === BLOCK LINK ===
    0x4af8
=== CODE BLOCK END ===

=== CODE BLOCK ADDRESS 0x4af8 ===
  0x4af8	and    	byte ptr [eax], al
  0x4afa	push   	eax
  0x4afb	add    	byte ptr [ebp], dh
  0x4afe	bound  	eax, qword ptr [eax]
  0x4b00	insb   	byte ptr es:[edi], dx
  === BLOCK LINK ===
    0x4b01
=== CODE BLOCK END ===

=== CODE BLOCK ADDRESS 0x4b01 ===
  0x4b01	add    	byte ptr [ecx], ch
  0x4b04	arpl   	word ptr [eax], ax
  0x4b06	dec    	ebx
  0x4b07	add    	byte ptr [ebp], ah
  0x4b0a	jns    	0x4b0c
  === BLOCK LINK ===
    0x4b0c
=== CODE BLOCK END ===

=== CODE BLOCK ADDRESS 0x4b0c ===
  0x4b0c	cmp    	eax, 0x30003000
  0x4b11	add    	byte ptr [edx], dh
  0x4b13	add    	byte ptr [eax + eax], dh
  0x4b16	xor    	byte ptr [eax], al
  0x4b18	xor    	byte ptr [eax], al
  === BLOCK LINK ===
    0x4b1a
=== CODE BLOCK END ===

=== CODE BLOCK ADDRESS 0x4b1a ===
  0x4b1a	xor    	byte ptr [eax], al
  0x4b1c	xor    	byte ptr [eax], al
  0x4b1e	xor    	byte ptr [eax], al
  0x4b20	xor    	al, 0
  0x4b22	cmp    	byte ptr [eax], al
  === BLOCK LINK ===
    0x4b24
=== CODE BLOCK END ===

=== CODE BLOCK ADDRESS 0x4b24 ===
  0x4b24	xor    	byte ptr [eax], al
  0x4b26	xor    	byte ptr [eax], al
  0x4b28	xor    	byte ptr [eax], al
  0x4b2a	xor    	byte ptr [eax], al
  0x4b2c	xor    	byte ptr [eax], al
  === BLOCK LINK ===
    0x4b2e
=== CODE BLOCK END ===

=== CODE BLOCK ADDRESS 0x4b2e ===
  0x4b2e	cmp    	dword ptr [eax], eax
  0x4b30	xor    	al, 0
  0x4b32	xor    	byte ptr [eax], al
  0x4b34	xor    	byte ptr [eax], al
  0x4b36	xor    	byte ptr [eax], al
  === BLOCK LINK ===
    0x4b38
=== CODE BLOCK END ===

=== CODE BLOCK ADDRESS 0x4b38 ===
  0x4b38	xor    	byte ptr [eax], al
  0x4b3a	xor    	byte ptr [eax], al
  0x4b3c	xor    	byte ptr [eax], al
  0x4b3e	xor    	byte ptr [eax], al
  0x4b40	add    	byte ptr ss:[eax], dh
  === BLOCK LINK ===
    0x4b43
=== CODE BLOCK END ===

=== CODE BLOCK ADDRESS 0x4b43 ===
  0x4b43	add    	byte ptr [edx], dh
  0x4b45	add    	byte ptr [eax], dh
  0x4b47	add    	byte ptr [eax], dh
  0x4b49	add    	byte ptr [eax], dh
  0x4b4b	add    	byte ptr [eax], dh
  === BLOCK LINK ===
    0x4b4d
=== CODE BLOCK END ===

=== CODE BLOCK ADDRESS 0x4b4d ===
  0x4b4d	add    	byte ptr [eax], dh
  0x4b4f	add    	byte ptr [eax], dh
  0x4b51	add    	byte ptr [edx], dh
  0x4b53	add    	byte ptr [eax + eax], dh
  0x4b56	xor    	byte ptr [eax], al
  === BLOCK LINK ===
    0x4b58
=== CODE BLOCK END ===

=== CODE BLOCK ADDRESS 0x4b58 ===
  0x4b58	xor    	byte ptr [eax], al
  0x4b5a	xor    	byte ptr [eax], al
  0x4b5c	xor    	byte ptr [eax], al
  0x4b5e	xor    	eax, 0x35003200
  0x4b63	add    	byte ptr [ebx], dh
  === BLOCK LINK ===
    0x4b65
=== CODE BLOCK END ===

=== CODE BLOCK ADDRESS 0x4b65 ===
  0x4b65	add    	byte ptr [eax + eax], dh
  0x4b68	xor    	dword ptr [eax], eax
  0x4b6a	xor    	eax, dword ptr [eax]
  0x4b6c	xor    	dword ptr [eax], eax
  0x4b6e	xor    	byte ptr [eax], al
  === BLOCK LINK ===
    0x4b70
=== CODE BLOCK END ===

=== CODE BLOCK ADDRESS 0x4b70 ===
  0x4b70	xor    	byte ptr [eax], al
  0x4b72	xor    	byte ptr [eax], al
  0x4b74	xor    	al, 0
  0x4b76	xor    	byte ptr [eax], al
  0x4b78	xor    	byte ptr [eax], al
  === BLOCK LINK ===
    0x4b7a
=== CODE BLOCK END ===

=== CODE BLOCK ADDRESS 0x4b7a ===
  0x4b7a	xor    	byte ptr [eax], al
  0x4b7c	xor    	byte ptr [eax], al
  0x4b7e	xor    	byte ptr [eax], al
  0x4b80	xor    	dword ptr [eax], eax
  0x4b82	xor    	byte ptr [eax], al
  === BLOCK LINK ===
    0x4b84
=== CODE BLOCK END ===

=== CODE BLOCK ADDRESS 0x4b84 ===
  0x4b84	xor    	byte ptr [eax], al
  0x4b86	xor    	byte ptr [eax], al
  0x4b88	xor    	dword ptr [eax], eax
  0x4b8a	xor    	byte ptr [eax], al
  0x4b8c	xor    	byte ptr [eax], al
  === BLOCK LINK ===
    0x4b8e
=== CODE BLOCK END ===

=== CODE BLOCK ADDRESS 0x4b8e ===
  0x4b8e	bound  	eax, qword ptr [eax]
  0x4b90	xor    	eax, 0x63006600
  0x4b95	add    	byte ptr [ecx], bh
  0x4b97	add    	byte ptr [eax], dh
  0x4b99	add    	byte ptr [ebp], ah
  === BLOCK LINK ===
    0x4b9c
=== CODE BLOCK END ===

=== CODE BLOCK ADDRESS 0x4b9c ===
  0x4b9c	aaa    	
  0x4b9d	add    	byte ptr [eax], dh
  0x4b9f	add    	byte ptr [edx], dh
  0x4ba1	add    	byte ptr [edi], dh
  0x4ba3	add    	byte ptr [esi], ah
  === BLOCK LINK ===
    0x4ba6
=== CODE BLOCK END ===

=== CODE BLOCK ADDRESS 0x4ba6 ===
  0x4ba6	add    	byte ptr ss:[edi], dh
  0x4ba9	add    	byte ptr [eax], bh
  0x4bab	add    	byte ptr [edi], dh
  0x4bad	add    	byte ptr [ecx], dh
  0x4baf	add    	byte ptr [ebp], ah
  === BLOCK LINK ===
    0x4bb2
=== CODE BLOCK END ===

=== CODE BLOCK ADDRESS 0x4bb2 ===
  0x4bb2	aaa    	
  0x4bb3	add    	byte ptr [edi], dh
  0x4bb5	add    	byte ptr [ebx], dh
  0x4bb7	add    	byte ptr [ecx], ah
  0x4bba	cmp    	byte ptr [eax], al
  === BLOCK LINK ===
    0x4bbc
=== CODE BLOCK END ===

=== CODE BLOCK ADDRESS 0x4bbc ===
  0x4bbc	add    	byte ptr [eax + eax + 0x65], ah
  0x4bc1	add    	byte ptr [eax], bh
  0x4bc3	add    	byte ptr [ecx], bh
  0x4bc5	add    	byte ptr [ebx], dh
  0x4bc7	add    	byte ptr [eax], bh
  === BLOCK LINK ===
    0x4bc9
=== CODE BLOCK END ===

=== CODE BLOCK ADDRESS 0x4bc9 ===
  0x4bc9	add    	byte ptr [ebx], ah
  0x4bcc	cmp    	byte ptr [eax], al
  0x4bce	xor    	dword ptr [eax], eax
  0x4bd0	add    	byte ptr fs:[eax + eax + 0x34], ah
  0x4bd5	add    	byte ptr [eax], dh
  === BLOCK LINK ===
    0x4bd7
=== CODE BLOCK END ===

=== CODE BLOCK ADDRESS 0x4bd7 ===
  0x4bd7	add    	byte ptr [edx], dh
  0x4bd9	add    	byte ptr [edx], ah
  0x4bdc	popal  	
  0x4bdd	add    	byte ptr [esi], dh
  0x4bdf	add    	byte ptr [0x39006200], dh
  === BLOCK LINK ===
    0x4be5
=== CODE BLOCK END ===

=== CODE BLOCK ADDRESS 0x4be5 ===
  0x4be5	add    	byte ptr [edx], dh
  0x4be7	add    	byte ptr [eax], dh
  0x4be9	add    	byte ptr [ecx], dh
  0x4beb	add    	byte ptr [eax + eax + 0x36], ah
  0x4bef	add    	byte ptr [eax], dh
  === BLOCK LINK ===
    0x4bf1
=== CODE BLOCK END ===

=== CODE BLOCK ADDRESS 0x4bf1 ===
  0x4bf1	add    	byte ptr [0x33003900], dh
  0x4bf7	add    	byte ptr [ebp], ah
  0x4bfa	cmp    	dword ptr [eax], eax
  0x4bfc	add    	byte ptr ss:[ebx], ah
  0x4c00	xor    	al, 0
  === BLOCK LINK ===
    0x4c02
=== CODE BLOCK END ===

=== CODE BLOCK ADDRESS 0x4c02 ===
  0x4c02	cmp    	dword ptr [eax], eax
  0x4c04	xor    	al, byte ptr [eax]
  0x4c06	add    	byte ptr ss:[0x65003100], dh
  0x4c0d	add    	byte ptr [eax], bh
  0x4c0f	add    	byte ptr [eax], bh
  === BLOCK LINK ===
    0x4c11
=== CODE BLOCK END ===

=== CODE BLOCK ADDRESS 0x4c11 ===
  0x4c11	add    	byte ptr [ecx], bh
  0x4c13	add    	byte ptr [ebx], ah
  0x4c16	arpl   	word ptr [eax], ax
  0x4c18	xor    	dword ptr [eax], eax
  0x4c1a	xor    	eax, dword ptr [eax]
  === BLOCK LINK ===
    0x4c1c
=== CODE BLOCK END ===

=== CODE BLOCK ADDRESS 0x4c1c ===
  0x4c1c	add    	byte ptr [ecx], dh
  0x4c1f	add    	byte ptr [eax + eax], dh
  0x4c22	xor    	dword ptr [eax], eax
  0x4c24	xor    	eax, 0x62006500
  0x4c29	add    	byte ptr [edx], ah
  === BLOCK LINK ===
    0x4c2c
=== CODE BLOCK END ===

=== CODE BLOCK ADDRESS 0x4c2c ===
  0x4c2c	xor    	eax, 0x66003300
  0x4c31	add    	byte ptr [ecx], ah
  0x4c34	arpl   	word ptr [eax], ax
  0x4c36	xor    	dword ptr [eax], eax
  0x4c38	xor    	dword ptr [eax], eax
  === BLOCK LINK ===
    0x4c3a
=== CODE BLOCK END ===

=== CODE BLOCK ADDRESS 0x4c3a ===
  0x4c3a	xor    	eax, dword ptr [eax]
  0x4c3c	xor    	dword ptr [eax], eax
  0x4c3e	popal  	
  0x4c3f	add    	byte ptr [ebp], ah
  0x4c42	xor    	byte ptr [eax], al
  === BLOCK LINK ===
    0x4c44
=== CODE BLOCK END ===

=== CODE BLOCK ADDRESS 0x4c44 ===
  0x4c44	bound  	eax, qword ptr [eax]
  0x4c46	add    	byte ptr fs:[ebx], dh
  0x4c49	add    	byte ptr [ebx], dh
  0x4c4b	add    	byte ptr [ebx], dh
  0x4c4d	add    	byte ptr [ebx], ah
  === BLOCK LINK ===
    0x4c50
=== CODE BLOCK END ===

=== CODE BLOCK ADDRESS 0x4c50 ===
  0x4c50	xor    	eax, 0x65006500
  0x4c55	add    	byte ptr [esi], dh
  0x4c57	add    	byte ptr [eax], dh
  0x4c59	add    	byte ptr [edx], dh
  0x4c5b	add    	byte ptr [ecx], dh
  === BLOCK LINK ===
    0x4c5d
=== CODE BLOCK END ===

=== CODE BLOCK ADDRESS 0x4c5d ===
  0x4c5d	add    	byte ptr [esi], dh
  0x4c5f	add    	byte ptr [edi], dh
  0x4c61	add    	byte ptr [edx], dh
  0x4c63	add    	byte ptr [eax + eax + 0x39], ah
  0x4c67	add    	byte ptr [edi], dh
  === BLOCK LINK ===
    0x4c69
=== CODE BLOCK END ===

=== CODE BLOCK ADDRESS 0x4c69 ===
  0x4c69	add    	byte ptr [ecx], dh
  0x4c6b	add    	byte ptr [eax], bh
  0x4c6d	add    	byte ptr [ebp], ah
  0x4c70	popal  	
  0x4c71	add    	byte ptr [ebx], dh
  === BLOCK LINK ===
    0x4c73
=== CODE BLOCK END ===

=== CODE BLOCK ADDRESS 0x4c73 ===
  0x4c73	add    	byte ptr [ecx], dh
  0x4c75	add    	byte ptr [ecx], ah
  0x4c78	cmp    	byte ptr [eax], al
  0x4c7a	popal  	
  0x4c7b	add    	byte ptr [ebp], ah
  === BLOCK LINK ===
    0x4c7e
=== CODE BLOCK END ===

=== CODE BLOCK ADDRESS 0x4c7e ===
  0x4c7e	bound  	eax, qword ptr [eax]
  0x4c80	add    	byte ptr fs:[eax], dh
  0x4c83	add    	byte ptr [eax + eax + 0x61], ah
  0x4c87	add    	byte ptr [eax], dh
  0x4c89	add    	byte ptr [eax], dh
  === BLOCK LINK ===
    0x4c8b
=== CODE BLOCK END ===

=== CODE BLOCK ADDRESS 0x4c8b ===
  0x4c8b	add    	byte ptr [edi], dh
  0x4c8d	add    	byte ptr [edx], dh
  0x4c8f	add    	byte ptr [esi], ah
  0x4c92	xor    	al, byte ptr [eax]
  0x4c94	xor    	eax, 0x38006400
  === BLOCK LINK ===
    0x4c99
=== CODE BLOCK END ===

=== CODE BLOCK ADDRESS 0x4c99 ===
  0x4c99	add    	byte ptr [edi], dh
  0x4c9b	add    	byte ptr [eax + eax + 0x62], ah
  0x4c9f	add    	byte ptr [ecx], ah
  0x4ca2	add    	byte ptr ss:[esi], ah
  0x4ca6	arpl   	word ptr [eax], ax
  === BLOCK LINK ===
    0x4ca8
=== CODE BLOCK END ===

=== CODE BLOCK ADDRESS 0x4ca8 ===
  0x4ca8	cmp    	dword ptr [eax], eax
  0x4caa	xor    	byte ptr [eax], al
  0x4cac	add    	byte ptr [esi], ah
  0x4cb0	add    	byte ptr fs:[0x38003900], dh
  0x4cb7	add    	byte ptr [ebp], ah
  === BLOCK LINK ===
    0x4cba
=== CODE BLOCK END ===

=== CODE BLOCK ADDRESS 0x4cba ===
  0x4cba	add    	byte ptr fs:[eax + eax], dh
  0x4cbe	add    	byte ptr fs:[ecx], ah
  0x4cc2	xor    	eax, dword ptr [eax]
  0x4cc4	xor    	eax, 0x34006500
  0x4cc9	add    	byte ptr [eax + eax], dh
  === BLOCK LINK ===
    0x4ccc
=== CODE BLOCK END ===

=== CODE BLOCK ADDRESS 0x4ccc ===
  0x4ccc	arpl   	word ptr [eax], ax
  0x4cce	xor    	eax, dword ptr [eax]
  0x4cd0	cmp    	dword ptr [eax], eax
  0x4cd2	cmp    	byte ptr [eax], al
  0x4cd4	arpl   	word ptr [eax], ax
  === BLOCK LINK ===
    0x4cd6
=== CODE BLOCK END ===

=== CODE BLOCK ADDRESS 0x4cd6 ===
  0x4cd6	xor    	al, 0
  0x4cd8	xor    	eax, 0x33003400
  0x4cdd	add    	byte ptr [eax], dh
  0x4cdf	add    	byte ptr [edi], dh
  0x4ce1	add    	byte ptr [ebp], ah
  === BLOCK LINK ===
    0x4ce4
=== CODE BLOCK END ===

=== CODE BLOCK ADDRESS 0x4ce4 ===
  0x4ce4	cmp    	byte ptr [eax], al
  0x4ce6	add    	byte ptr gs:[ebx], dh
  0x4ce9	add    	byte ptr [ebx], dh
  0x4ceb	add    	byte ptr [edx], ah
  0x4cee	cmp    	byte ptr [eax], al
  === BLOCK LINK ===
    0x4cf0
=== CODE BLOCK END ===

=== CODE BLOCK ADDRESS 0x4cf0 ===
  0x4cf0	xor    	al, 0
  0x4cf2	xor    	al, byte ptr [eax]
  0x4cf4	add    	byte ptr ss:[ecx], dh
  0x4cf7	add    	byte ptr [eax + eax], dh
  0x4cfa	xor    	eax, dword ptr [eax]
  === BLOCK LINK ===
    0x4cfc
=== CODE BLOCK END ===

=== CODE BLOCK ADDRESS 0x4cfc ===
  0x4cfc	add    	byte ptr fs:[ecx], ah
  0x4d00	add    	byte ptr gs:[ebx], ah
  0x4d04	cmp    	dword ptr [eax], eax
  0x4d06	add    	byte ptr [0x36003900], dh
  0x4d0d	add    	byte ptr [eax], bh
  === BLOCK LINK ===
    0x4d0f
=== CODE BLOCK END ===

=== CODE BLOCK ADDRESS 0x4d0f ===
  0x4d0f	add    	byte ptr [ebx], dh
  0x4d11	add    	byte ptr [esi], dh
  0x4d13	add    	byte ptr [esi], ah
  0x4d16	cmp    	dword ptr [eax], eax
  0x4d18	aaa    	
  === BLOCK LINK ===
    0x4d19
=== CODE BLOCK END ===

=== CODE BLOCK ADDRESS 0x4d19 ===
  0x4d19	add    	byte ptr [ebx], ah
  0x4d1c	cmp    	byte ptr [eax], al
  0x4d1e	add    	byte ptr [edi], dh
  0x4d21	add    	byte ptr [eax + eax], dh
  0x4d24	aaa    	
  === BLOCK LINK ===
    0x4d25
=== CODE BLOCK END ===

=== CODE BLOCK ADDRESS 0x4d25 ===
  0x4d25	add    	byte ptr [0x65003000], dh
  0x4d2b	add    	byte ptr [0x37003900], dh
  0x4d31	add    	byte ptr [0x36006300], dh
  0x4d37	add    	byte ptr [eax + eax], dh
  0x4d3a	add    	byte ptr gs:[edx], dh
  === BLOCK LINK ===
    0x4d3d
=== CODE BLOCK END ===

=== CODE BLOCK ADDRESS 0x4d3d ===
  0x4d3d	add    	byte ptr [ecx], dh
  0x4d3f	add    	byte ptr [eax], bh
  0x4d41	add    	byte ptr [ecx], bh
  0x4d43	add    	byte ptr [esi], ah
  0x4d46	xor    	al, 0
  === BLOCK LINK ===
    0x4d48
=== CODE BLOCK END ===

=== CODE BLOCK ADDRESS 0x4d48 ===
  0x4d48	xor    	eax, 0x65006400
  0x4d4d	add    	byte ptr [esi], ah
  0x4d50	xor    	al, 0
  0x4d52	add    	byte ptr ss:[edx], ah
  0x4d56	xor    	al, byte ptr [eax]
  === BLOCK LINK ===
    0x4d58
=== CODE BLOCK END ===

=== CODE BLOCK ADDRESS 0x4d58 ===
  0x4d58	popal  	
  0x4d59	add    	byte ptr [edx], dh
  0x4d5b	add    	byte ptr [edx], ah
  0x4d5e	xor    	dword ptr [eax], eax
  0x4d60	xor    	al, byte ptr [eax]
  === BLOCK LINK ===
    0x4d62
=== CODE BLOCK END ===

=== CODE BLOCK ADDRESS 0x4d62 ===
  0x4d62	xor    	al, 0
  0x4d64	aaa    	
  0x4d65	add    	byte ptr [ecx], ah
  0x4d68	add    	byte ptr fs:[ebx], ah
  0x4d6c	xor    	eax, dword ptr [eax]
  === BLOCK LINK ===
    0x4d6e
=== CODE BLOCK END ===

=== CODE BLOCK ADDRESS 0x4d6e ===
  0x4d6e	add    	byte ptr ss:[0x62003200], dh
  0x4d75	add    	byte ptr [esi], ah
  0x4d78	xor    	eax, 0x33006300
  0x4d7d	add    	byte ptr [eax], dh
  0x4d7f	add    	byte ptr [eax], bh
  === BLOCK LINK ===
    0x4d81
=== CODE BLOCK END ===

=== CODE BLOCK ADDRESS 0x4d81 ===
  0x4d81	add    	byte ptr [eax], dh
  0x4d83	add    	byte ptr [0x64003500], dh
  0x4d89	add    	byte ptr [ecx], ah
  0x4d8c	cmp    	dword ptr [eax], eax
  0x4d8e	adc    	dl, 0x50
  === BLOCK LINK ===
    0x4d91
=== CODE BLOCK END ===

=== CODE BLOCK ADDRESS 0x4d91 ===
  0x4d91	add    	byte ptr [edx], dh
  0x4d94	add    	byte ptr gs:[ebx], dh
  0x4d98	add    	byte ptr gs:[esi], ch
  0x4d9c	je     	0x4d9e
  === BLOCK LINK ===
    0x4d9e
=== CODE BLOCK END ===

=== CODE BLOCK ADDRESS 0x4d9e ===
  0x4d9e	popal  	
  0x4d9f	add    	byte ptr [eax + eax + 0x69], dh
  0x4da3	add    	byte ptr [edi], ch
  0x4da6	outsb  	dx, byte ptr [esi]
  0x4da7	add    	byte ptr [esi], al
  === BLOCK LINK ===
    0x4daa
=== CODE BLOCK END ===

=== CODE BLOCK ADDRESS 0x4daa ===
  0x4daa	jb     	0x4dac
  === BLOCK LINK ===
    0x4dac
=== CODE BLOCK END ===

=== CODE BLOCK ADDRESS 0x4dac ===
  0x4dac	popal  	
  0x4dad	add    	byte ptr [ebp], ch
  0x4db0	add    	byte ptr gs:[edi], dh
  0x4db4	outsd  	dx, dword ptr [esi]
  0x4db5	add    	byte ptr [edx], dh
  === BLOCK LINK ===
    0x4db8
=== CODE BLOCK END ===

=== CODE BLOCK ADDRESS 0x4db8 ===
  0x4db8	imul   	eax, dword ptr [eax], 0x2e
  0x4dbb	add    	byte ptr [ebx], al
  0x4dbe	insb   	byte ptr es:[edi], dx
  0x4dbf	add    	byte ptr [ecx], ah
  0x4dc2	jae    	0x4dc4
  === BLOCK LINK ===
    0x4dc4
=== CODE BLOCK END ===

=== CODE BLOCK ADDRESS 0x4dc4 ===
  0x4dc4	jae    	0x4dc6
  === BLOCK LINK ===
    0x4dc6
=== CODE BLOCK END ===

=== CODE BLOCK ADDRESS 0x4dc6 ===
  0x4dc6	imul   	eax, dword ptr [eax], 0x2c0063
  0x4dcc	and    	byte ptr [eax], al
  0x4dce	push   	eax
  0x4dcf	add    	byte ptr [ebp], dh
  0x4dd2	bound  	eax, qword ptr [eax]
  === BLOCK LINK ===
    0x4dd4
=== CODE BLOCK END ===

=== CODE BLOCK ADDRESS 0x4dd4 ===
  0x4dd4	insb   	byte ptr es:[edi], dx
  0x4dd5	add    	byte ptr [ecx], ch
  0x4dd8	arpl   	word ptr [eax], ax
  0x4dda	dec    	ebx
  0x4ddb	add    	byte ptr [ebp], ah
  === BLOCK LINK ===
    0x4dde
=== CODE BLOCK END ===

=== CODE BLOCK ADDRESS 0x4dde ===
  0x4dde	jns    	0x4de0
  === BLOCK LINK ===
    0x4de0
=== CODE BLOCK END ===

=== CODE BLOCK ADDRESS 0x4de0 ===
  0x4de0	cmp    	eax, 0x30003000
  0x4de5	add    	byte ptr [edx], dh
  0x4de7	add    	byte ptr [eax + eax], dh
  0x4dea	xor    	byte ptr [eax], al
  0x4dec	xor    	byte ptr [eax], al
  === BLOCK LINK ===
    0x4dee
=== CODE BLOCK END ===

=== CODE BLOCK ADDRESS 0x4dee ===
  0x4dee	xor    	byte ptr [eax], al
  0x4df0	xor    	byte ptr [eax], al
  0x4df2	xor    	byte ptr [eax], al
  0x4df4	xor    	al, 0
  0x4df6	cmp    	byte ptr [eax], al
  === BLOCK LINK ===
    0x4df8
=== CODE BLOCK END ===

=== CODE BLOCK ADDRESS 0x4df8 ===
  0x4df8	xor    	byte ptr [eax], al
  0x4dfa	xor    	byte ptr [eax], al
  0x4dfc	xor    	byte ptr [eax], al
  0x4dfe	xor    	byte ptr [eax], al
  0x4e00	xor    	byte ptr [eax], al
  === BLOCK LINK ===
    0x4e02
=== CODE BLOCK END ===

=== CODE BLOCK ADDRESS 0x4e02 ===
  0x4e02	cmp    	dword ptr [eax], eax
  0x4e04	xor    	al, 0
  0x4e06	xor    	byte ptr [eax], al
  0x4e08	xor    	byte ptr [eax], al
  0x4e0a	xor    	byte ptr [eax], al
  === BLOCK LINK ===
    0x4e0c
=== CODE BLOCK END ===

=== CODE BLOCK ADDRESS 0x4e0c ===
  0x4e0c	xor    	byte ptr [eax], al
  0x4e0e	xor    	byte ptr [eax], al
  0x4e10	xor    	byte ptr [eax], al
  0x4e12	xor    	byte ptr [eax], al
  0x4e14	add    	byte ptr ss:[eax], dh
  === BLOCK LINK ===
    0x4e17
=== CODE BLOCK END ===

=== CODE BLOCK ADDRESS 0x4e17 ===
  0x4e17	add    	byte ptr [edx], dh
  0x4e19	add    	byte ptr [eax], dh
  0x4e1b	add    	byte ptr [eax], dh
  0x4e1d	add    	byte ptr [eax], dh
  0x4e1f	add    	byte ptr [eax], dh
  === BLOCK LINK ===
    0x4e21
=== CODE BLOCK END ===

=== CODE BLOCK ADDRESS 0x4e21 ===
  0x4e21	add    	byte ptr [eax], dh
  0x4e23	add    	byte ptr [eax], dh
  0x4e25	add    	byte ptr [edx], dh
  0x4e27	add    	byte ptr [eax + eax], dh
  0x4e2a	xor    	byte ptr [eax], al
  === BLOCK LINK ===
    0x4e2c
=== CODE BLOCK END ===

=== CODE BLOCK ADDRESS 0x4e2c ===
  0x4e2c	xor    	byte ptr [eax], al
  0x4e2e	xor    	byte ptr [eax], al
  0x4e30	xor    	byte ptr [eax], al
  0x4e32	xor    	eax, 0x35003200
  0x4e37	add    	byte ptr [ebx], dh
  === BLOCK LINK ===
    0x4e39
=== CODE BLOCK END ===

=== CODE BLOCK ADDRESS 0x4e39 ===
  0x4e39	add    	byte ptr [eax + eax], dh
  0x4e3c	xor    	dword ptr [eax], eax
  0x4e3e	xor    	eax, dword ptr [eax]
  0x4e40	xor    	dword ptr [eax], eax
  0x4e42	xor    	byte ptr [eax], al
  === BLOCK LINK ===
    0x4e44
=== CODE BLOCK END ===

=== CODE BLOCK ADDRESS 0x4e44 ===
  0x4e44	xor    	byte ptr [eax], al
  0x4e46	xor    	byte ptr [eax], al
  0x4e48	xor    	al, 0
  0x4e4a	xor    	byte ptr [eax], al
  0x4e4c	xor    	byte ptr [eax], al
  === BLOCK LINK ===
    0x4e4e
=== CODE BLOCK END ===

=== CODE BLOCK ADDRESS 0x4e4e ===
  0x4e4e	xor    	byte ptr [eax], al
  0x4e50	xor    	byte ptr [eax], al
  0x4e52	xor    	byte ptr [eax], al
  0x4e54	xor    	dword ptr [eax], eax
  0x4e56	xor    	byte ptr [eax], al
  === BLOCK LINK ===
    0x4e58
=== CODE BLOCK END ===

=== CODE BLOCK ADDRESS 0x4e58 ===
  0x4e58	xor    	byte ptr [eax], al
  0x4e5a	xor    	byte ptr [eax], al
  0x4e5c	xor    	dword ptr [eax], eax
  0x4e5e	xor    	byte ptr [eax], al
  0x4e60	xor    	byte ptr [eax], al
  === BLOCK LINK ===
    0x4e62
=== CODE BLOCK END ===

=== CODE BLOCK ADDRESS 0x4e62 ===
  0x4e62	bound  	eax, qword ptr [eax]
  0x4e64	xor    	eax, 0x63006600
  0x4e69	add    	byte ptr [ecx], bh
  0x4e6b	add    	byte ptr [eax], dh
  0x4e6d	add    	byte ptr [ebp], ah
  === BLOCK LINK ===
    0x4e70
=== CODE BLOCK END ===

=== CODE BLOCK ADDRESS 0x4e70 ===
  0x4e70	aaa    	
  0x4e71	add    	byte ptr [eax], dh
  0x4e73	add    	byte ptr [edx], dh
  0x4e75	add    	byte ptr [edi], dh
  0x4e77	add    	byte ptr [esi], ah
  === BLOCK LINK ===
    0x4e7a
=== CODE BLOCK END ===

=== CODE BLOCK ADDRESS 0x4e7a ===
  0x4e7a	add    	byte ptr ss:[edi], dh
  0x4e7d	add    	byte ptr [eax], bh
  0x4e7f	add    	byte ptr [edi], dh
  0x4e81	add    	byte ptr [ecx], dh
  0x4e83	add    	byte ptr [ebp], ah
  === BLOCK LINK ===
    0x4e86
=== CODE BLOCK END ===

=== CODE BLOCK ADDRESS 0x4e86 ===
  0x4e86	aaa    	
  0x4e87	add    	byte ptr [edi], dh
  0x4e89	add    	byte ptr [ebx], dh
  0x4e8b	add    	byte ptr [ecx], ah
  0x4e8e	cmp    	byte ptr [eax], al
  === BLOCK LINK ===
    0x4e90
=== CODE BLOCK END ===

=== CODE BLOCK ADDRESS 0x4e90 ===
  0x4e90	add    	byte ptr [eax + eax + 0x65], ah
  0x4e95	add    	byte ptr [eax], bh
  0x4e97	add    	byte ptr [ecx], bh
  0x4e99	add    	byte ptr [ebx], dh
  0x4e9b	add    	byte ptr [eax], bh
  === BLOCK LINK ===
    0x4e9d
=== CODE BLOCK END ===

=== CODE BLOCK ADDRESS 0x4e9d ===
  0x4e9d	add    	byte ptr [ebx], ah
  0x4ea0	cmp    	byte ptr [eax], al
  0x4ea2	xor    	dword ptr [eax], eax
  0x4ea4	add    	byte ptr fs:[eax + eax + 0x34], ah
  0x4ea9	add    	byte ptr [eax], dh
  === BLOCK LINK ===
    0x4eab
=== CODE BLOCK END ===

=== CODE BLOCK ADDRESS 0x4eab ===
  0x4eab	add    	byte ptr [edx], dh
  0x4ead	add    	byte ptr [edx], ah
  0x4eb0	popal  	
  0x4eb1	add    	byte ptr [esi], dh
  0x4eb3	add    	byte ptr [0x39006200], dh
  === BLOCK LINK ===
    0x4eb9
=== CODE BLOCK END ===

=== CODE BLOCK ADDRESS 0x4eb9 ===
  0x4eb9	add    	byte ptr [edx], dh
  0x4ebb	add    	byte ptr [eax], dh
  0x4ebd	add    	byte ptr [ecx], dh
  0x4ebf	add    	byte ptr [eax + eax + 0x36], ah
  0x4ec3	add    	byte ptr [eax], dh
  === BLOCK LINK ===
    0x4ec5
=== CODE BLOCK END ===

=== CODE BLOCK ADDRESS 0x4ec5 ===
  0x4ec5	add    	byte ptr [0x33003900], dh
  0x4ecb	add    	byte ptr [ebp], ah
  0x4ece	cmp    	dword ptr [eax], eax
  0x4ed0	add    	byte ptr ss:[ebx], ah
  0x4ed4	xor    	al, 0
  === BLOCK LINK ===
    0x4ed6
=== CODE BLOCK END ===

=== CODE BLOCK ADDRESS 0x4ed6 ===
  0x4ed6	cmp    	dword ptr [eax], eax
  0x4ed8	xor    	al, byte ptr [eax]
  0x4eda	add    	byte ptr ss:[0x65003100], dh
  0x4ee1	add    	byte ptr [eax], bh
  0x4ee3	add    	byte ptr [eax], bh
  === BLOCK LINK ===
    0x4ee5
=== CODE BLOCK END ===

=== CODE BLOCK ADDRESS 0x4ee5 ===
  0x4ee5	add    	byte ptr [ecx], bh
  0x4ee7	add    	byte ptr [ebx], ah
  0x4eea	arpl   	word ptr [eax], ax
  0x4eec	xor    	dword ptr [eax], eax
  0x4eee	xor    	eax, dword ptr [eax]
  === BLOCK LINK ===
    0x4ef0
=== CODE BLOCK END ===

=== CODE BLOCK ADDRESS 0x4ef0 ===
  0x4ef0	add    	byte ptr [ecx], dh
  0x4ef3	add    	byte ptr [eax + eax], dh
  0x4ef6	xor    	dword ptr [eax], eax
  0x4ef8	xor    	eax, 0x62006500
  0x4efd	add    	byte ptr [edx], ah
  === BLOCK LINK ===
    0x4f00
=== CODE BLOCK END ===

=== CODE BLOCK ADDRESS 0x4f00 ===
  0x4f00	xor    	eax, 0x66003300
  0x4f05	add    	byte ptr [ecx], ah
  0x4f08	arpl   	word ptr [eax], ax
  0x4f0a	xor    	dword ptr [eax], eax
  0x4f0c	xor    	dword ptr [eax], eax
  === BLOCK LINK ===
    0x4f0e
=== CODE BLOCK END ===

=== CODE BLOCK ADDRESS 0x4f0e ===
  0x4f0e	xor    	eax, dword ptr [eax]
  0x4f10	xor    	dword ptr [eax], eax
  0x4f12	popal  	
  0x4f13	add    	byte ptr [ebp], ah
  0x4f16	xor    	byte ptr [eax], al
  === BLOCK LINK ===
    0x4f18
=== CODE BLOCK END ===

=== CODE BLOCK ADDRESS 0x4f18 ===
  0x4f18	bound  	eax, qword ptr [eax]
  0x4f1a	add    	byte ptr fs:[ebx], dh
  0x4f1d	add    	byte ptr [ebx], dh
  0x4f1f	add    	byte ptr [ebx], dh
  0x4f21	add    	byte ptr [ebx], ah
  === BLOCK LINK ===
    0x4f24
=== CODE BLOCK END ===

=== CODE BLOCK ADDRESS 0x4f24 ===
  0x4f24	xor    	eax, 0x65006500
  0x4f29	add    	byte ptr [esi], dh
  0x4f2b	add    	byte ptr [eax], dh
  0x4f2d	add    	byte ptr [edx], dh
  0x4f2f	add    	byte ptr [ecx], dh
  === BLOCK LINK ===
    0x4f31
=== CODE BLOCK END ===

=== CODE BLOCK ADDRESS 0x4f31 ===
  0x4f31	add    	byte ptr [esi], dh
  0x4f33	add    	byte ptr [edi], dh
  0x4f35	add    	byte ptr [edx], dh
  0x4f37	add    	byte ptr [eax + eax + 0x39], ah
  0x4f3b	add    	byte ptr [edi], dh
  === BLOCK LINK ===
    0x4f3d
=== CODE BLOCK END ===

=== CODE BLOCK ADDRESS 0x4f3d ===
  0x4f3d	add    	byte ptr [ecx], dh
  0x4f3f	add    	byte ptr [eax], bh
  0x4f41	add    	byte ptr [ebp], ah
  0x4f44	popal  	
  0x4f45	add    	byte ptr [ebx], dh
  === BLOCK LINK ===
    0x4f47
=== CODE BLOCK END ===

=== CODE BLOCK ADDRESS 0x4f47 ===
  0x4f47	add    	byte ptr [ecx], dh
  0x4f49	add    	byte ptr [ecx], ah
  0x4f4c	cmp    	byte ptr [eax], al
  0x4f4e	popal  	
  0x4f4f	add    	byte ptr [ebp], ah
  === BLOCK LINK ===
    0x4f52
=== CODE BLOCK END ===

=== CODE BLOCK ADDRESS 0x4f52 ===
  0x4f52	bound  	eax, qword ptr [eax]
  0x4f54	add    	byte ptr fs:[eax], dh
  0x4f57	add    	byte ptr [eax + eax + 0x61], ah
  0x4f5b	add    	byte ptr [eax], dh
  0x4f5d	add    	byte ptr [eax], dh
  === BLOCK LINK ===
    0x4f5f
=== CODE BLOCK END ===

=== CODE BLOCK ADDRESS 0x4f5f ===
  0x4f5f	add    	byte ptr [edi], dh
  0x4f61	add    	byte ptr [edx], dh
  0x4f63	add    	byte ptr [esi], ah
  0x4f66	xor    	al, byte ptr [eax]
  0x4f68	xor    	eax, 0x38006400
  === BLOCK LINK ===
    0x4f6d
=== CODE BLOCK END ===

=== CODE BLOCK ADDRESS 0x4f6d ===
  0x4f6d	add    	byte ptr [edi], dh
  0x4f6f	add    	byte ptr [eax + eax + 0x62], ah
  0x4f73	add    	byte ptr [ecx], ah
  0x4f76	add    	byte ptr ss:[esi], ah
  0x4f7a	arpl   	word ptr [eax], ax
  === BLOCK LINK ===
    0x4f7c
=== CODE BLOCK END ===

=== CODE BLOCK ADDRESS 0x4f7c ===
  0x4f7c	cmp    	dword ptr [eax], eax
  0x4f7e	xor    	byte ptr [eax], al
  0x4f80	add    	byte ptr [esi], ah
  0x4f84	add    	byte ptr fs:[0x38003900], dh
  0x4f8b	add    	byte ptr [ebp], ah
  === BLOCK LINK ===
    0x4f8e
=== CODE BLOCK END ===

=== CODE BLOCK ADDRESS 0x4f8e ===
  0x4f8e	add    	byte ptr fs:[eax + eax], dh
  0x4f92	add    	byte ptr fs:[ecx], ah
  0x4f96	xor    	eax, dword ptr [eax]
  0x4f98	xor    	eax, 0x34006500
  0x4f9d	add    	byte ptr [eax + eax], dh
  === BLOCK LINK ===
    0x4fa0
=== CODE BLOCK END ===

=== CODE BLOCK ADDRESS 0x4fa0 ===
  0x4fa0	arpl   	word ptr [eax], ax
  0x4fa2	xor    	eax, dword ptr [eax]
  0x4fa4	cmp    	dword ptr [eax], eax
  0x4fa6	cmp    	byte ptr [eax], al
  0x4fa8	arpl   	word ptr [eax], ax
  === BLOCK LINK ===
    0x4faa
=== CODE BLOCK END ===

=== CODE BLOCK ADDRESS 0x4faa ===
  0x4faa	xor    	al, 0
  0x4fac	xor    	eax, 0x33003400
  0x4fb1	add    	byte ptr [eax], dh
  0x4fb3	add    	byte ptr [edi], dh
  0x4fb5	add    	byte ptr [ebp], ah
  === BLOCK LINK ===
    0x4fb8
=== CODE BLOCK END ===

=== CODE BLOCK ADDRESS 0x4fb8 ===
  0x4fb8	cmp    	byte ptr [eax], al
  0x4fba	add    	byte ptr gs:[ebx], dh
  0x4fbd	add    	byte ptr [ebx], dh
  0x4fbf	add    	byte ptr [edx], ah
  0x4fc2	cmp    	byte ptr [eax], al
  === BLOCK LINK ===
    0x4fc4
=== CODE BLOCK END ===

=== CODE BLOCK ADDRESS 0x4fc4 ===
  0x4fc4	xor    	al, 0
  0x4fc6	xor    	al, byte ptr [eax]
  0x4fc8	add    	byte ptr ss:[ecx], dh
  0x4fcb	add    	byte ptr [eax + eax], dh
  0x4fce	xor    	eax, dword ptr [eax]
  === BLOCK LINK ===
    0x4fd0
=== CODE BLOCK END ===

=== CODE BLOCK ADDRESS 0x4fd0 ===
  0x4fd0	add    	byte ptr fs:[ecx], ah
  0x4fd4	add    	byte ptr gs:[ebx], ah
  0x4fd8	cmp    	dword ptr [eax], eax
  0x4fda	add    	byte ptr [0x36003900], dh
  0x4fe1	add    	byte ptr [eax], bh
  === BLOCK LINK ===
    0x4fe3
=== CODE BLOCK END ===

=== CODE BLOCK ADDRESS 0x4fe3 ===
  0x4fe3	add    	byte ptr [ebx], dh
  0x4fe5	add    	byte ptr [esi], dh
  0x4fe7	add    	byte ptr [esi], ah
  0x4fea	cmp    	dword ptr [eax], eax
  0x4fec	aaa    	
  === BLOCK LINK ===
    0x4fed
=== CODE BLOCK END ===

=== CODE BLOCK ADDRESS 0x4fed ===
  0x4fed	add    	byte ptr [ebx], ah
  0x4ff0	cmp    	byte ptr [eax], al
  0x4ff2	add    	byte ptr [edi], dh
  0x4ff5	add    	byte ptr [eax + eax], dh
  0x4ff8	aaa    	
  === BLOCK LINK ===
    0x4ff9
=== CODE BLOCK END ===

=== CODE BLOCK ADDRESS 0x4ff9 ===
  0x4ff9	add    	byte ptr [0x65003000], dh
  0x4fff	add    	byte ptr [0x37003900], dh
  0x5005	add    	byte ptr [0x36006300], dh
  0x500b	add    	byte ptr [eax + eax], dh
  0x500e	add    	byte ptr gs:[edx], dh
  === BLOCK LINK ===
    0x5011
=== CODE BLOCK END ===

=== CODE BLOCK ADDRESS 0x5011 ===
  0x5011	add    	byte ptr [ecx], dh
  0x5013	add    	byte ptr [eax], bh
  0x5015	add    	byte ptr [ecx], bh
  0x5017	add    	byte ptr [esi], ah
  0x501a	xor    	al, 0
  === BLOCK LINK ===
    0x501c
=== CODE BLOCK END ===

=== CODE BLOCK ADDRESS 0x501c ===
  0x501c	xor    	eax, 0x65006400
  0x5021	add    	byte ptr [esi], ah
  0x5024	xor    	al, 0
  0x5026	add    	byte ptr ss:[edx], ah
  0x502a	xor    	al, byte ptr [eax]
  === BLOCK LINK ===
    0x502c
=== CODE BLOCK END ===

=== CODE BLOCK ADDRESS 0x502c ===
  0x502c	popal  	
  0x502d	add    	byte ptr [edx], dh
  0x502f	add    	byte ptr [edx], ah
  0x5032	xor    	dword ptr [eax], eax
  0x5034	xor    	al, byte ptr [eax]
  === BLOCK LINK ===
    0x5036
=== CODE BLOCK END ===

=== CODE BLOCK ADDRESS 0x5036 ===
  0x5036	xor    	al, 0
  0x5038	aaa    	
  0x5039	add    	byte ptr [ecx], ah
  0x503c	add    	byte ptr fs:[ebx], ah
  0x5040	xor    	eax, dword ptr [eax]
  === BLOCK LINK ===
    0x5042
=== CODE BLOCK END ===

=== CODE BLOCK ADDRESS 0x5042 ===
  0x5042	add    	byte ptr ss:[0x62003200], dh
  0x5049	add    	byte ptr [esi], ah
  0x504c	xor    	eax, 0x33006300
  0x5051	add    	byte ptr [eax], dh
  0x5053	add    	byte ptr [eax], bh
  === BLOCK LINK ===
    0x5055
=== CODE BLOCK END ===

=== CODE BLOCK ADDRESS 0x5055 ===
  0x5055	add    	byte ptr [eax], dh
  0x5057	add    	byte ptr [0x64003500], dh
  0x505d	add    	byte ptr [ecx], ah
  0x5060	cmp    	dword ptr [eax], eax
  0x5062	xor    	byte ptr [edx + edx*2 + 0x61006500], 0
  === BLOCK LINK ===
    0x506a
=== CODE BLOCK END ===

=== CODE BLOCK ADDRESS 0x506a ===
  0x506a	arpl   	word ptr [eax], ax
  0x506c	push   	0x72004600
  0x5071	add    	byte ptr [ecx], ah
  0x5074	insd   	dword ptr es:[edi], dx
  0x5075	add    	byte ptr [ebp], ah
  === BLOCK LINK ===
    0x5078
=== CODE BLOCK END ===

=== CODE BLOCK ADDRESS 0x5078 ===
  0x5078	ja     	0x507a
  === BLOCK LINK ===
    0x507a
=== CODE BLOCK END ===

=== CODE BLOCK ADDRESS 0x507a ===
  0x507a	outsd  	dx, dword ptr [esi]
  0x507b	add    	byte ptr [edx], dh
  0x507e	imul   	eax, dword ptr [eax], 0x2c
  0x5081	add    	byte ptr [eax], ah
  0x5083	add    	byte ptr [eax], dl
  === BLOCK LINK ===
    0x5086
=== CODE BLOCK END ===

=== CODE BLOCK ADDRESS 0x5086 ===
  0x5086	jne    	0x5088
  === BLOCK LINK ===
    0x5088
=== CODE BLOCK END ===

=== CODE BLOCK ADDRESS 0x5088 ===
  0x5088	bound  	eax, qword ptr [eax]
  0x508a	insb   	byte ptr es:[edi], dx
  0x508b	add    	byte ptr [ecx], ch
  0x508e	arpl   	word ptr [eax], ax
  0x5090	dec    	ebx
  === BLOCK LINK ===
    0x5091
=== CODE BLOCK END ===

=== CODE BLOCK ADDRESS 0x5091 ===
  0x5091	add    	byte ptr [ebp], ah
  0x5094	jns    	0x5096
  === BLOCK LINK ===
    0x5096
=== CODE BLOCK END ===

=== CODE BLOCK ADDRESS 0x5096 ===
  0x5096	cmp    	eax, 0x30003000
  0x509b	add    	byte ptr [edx], dh
  0x509d	add    	byte ptr [eax + eax], dh
  0x50a0	xor    	byte ptr [eax], al
  0x50a2	xor    	byte ptr [eax], al
  === BLOCK LINK ===
    0x50a4
=== CODE BLOCK END ===

=== CODE BLOCK ADDRESS 0x50a4 ===
  0x50a4	xor    	byte ptr [eax], al
  0x50a6	xor    	byte ptr [eax], al
  0x50a8	xor    	byte ptr [eax], al
  0x50aa	xor    	al, 0
  0x50ac	cmp    	byte ptr [eax], al
  === BLOCK LINK ===
    0x50ae
=== CODE BLOCK END ===

=== CODE BLOCK ADDRESS 0x50ae ===
  0x50ae	xor    	byte ptr [eax], al
  0x50b0	xor    	byte ptr [eax], al
  0x50b2	xor    	byte ptr [eax], al
  0x50b4	xor    	byte ptr [eax], al
  0x50b6	xor    	byte ptr [eax], al
  === BLOCK LINK ===
    0x50b8
=== CODE BLOCK END ===

=== CODE BLOCK ADDRESS 0x50b8 ===
  0x50b8	cmp    	dword ptr [eax], eax
  0x50ba	xor    	al, 0
  0x50bc	xor    	byte ptr [eax], al
  0x50be	xor    	byte ptr [eax], al
  0x50c0	xor    	byte ptr [eax], al
  === BLOCK LINK ===
    0x50c2
=== CODE BLOCK END ===

=== CODE BLOCK ADDRESS 0x50c2 ===
  0x50c2	xor    	byte ptr [eax], al
  0x50c4	xor    	byte ptr [eax], al
  0x50c6	xor    	byte ptr [eax], al
  0x50c8	xor    	byte ptr [eax], al
  0x50ca	add    	byte ptr ss:[eax], dh
  === BLOCK LINK ===
    0x50cd
=== CODE BLOCK END ===

=== CODE BLOCK ADDRESS 0x50cd ===
  0x50cd	add    	byte ptr [edx], dh
  0x50cf	add    	byte ptr [eax], dh
  0x50d1	add    	byte ptr [eax], dh
  0x50d3	add    	byte ptr [eax], dh
  0x50d5	add    	byte ptr [eax], dh
  === BLOCK LINK ===
    0x50d7
=== CODE BLOCK END ===

=== CODE BLOCK ADDRESS 0x50d7 ===
  0x50d7	add    	byte ptr [eax], dh
  0x50d9	add    	byte ptr [eax], dh
  0x50db	add    	byte ptr [edx], dh
  0x50dd	add    	byte ptr [eax + eax], dh
  0x50e0	xor    	byte ptr [eax], al
  === BLOCK LINK ===
    0x50e2
=== CODE BLOCK END ===

=== CODE BLOCK ADDRESS 0x50e2 ===
  0x50e2	xor    	byte ptr [eax], al
  0x50e4	xor    	byte ptr [eax], al
  0x50e6	xor    	byte ptr [eax], al
  0x50e8	xor    	eax, 0x35003200
  0x50ed	add    	byte ptr [ebx], dh
  === BLOCK LINK ===
    0x50ef
=== CODE BLOCK END ===

=== CODE BLOCK ADDRESS 0x50ef ===
  0x50ef	add    	byte ptr [eax + eax], dh
  0x50f2	xor    	dword ptr [eax], eax
  0x50f4	xor    	eax, dword ptr [eax]
  0x50f6	xor    	dword ptr [eax], eax
  0x50f8	xor    	byte ptr [eax], al
  === BLOCK LINK ===
    0x50fa
=== CODE BLOCK END ===

=== CODE BLOCK ADDRESS 0x50fa ===
  0x50fa	xor    	byte ptr [eax], al
  0x50fc	xor    	byte ptr [eax], al
  0x50fe	xor    	al, 0
  0x5100	xor    	byte ptr [eax], al
  0x5102	xor    	byte ptr [eax], al
  === BLOCK LINK ===
    0x5104
=== CODE BLOCK END ===

=== CODE BLOCK ADDRESS 0x5104 ===
  0x5104	xor    	byte ptr [eax], al
  0x5106	xor    	byte ptr [eax], al
  0x5108	xor    	byte ptr [eax], al
  0x510a	xor    	dword ptr [eax], eax
  0x510c	xor    	byte ptr [eax], al
  === BLOCK LINK ===
    0x510e
=== CODE BLOCK END ===

=== CODE BLOCK ADDRESS 0x510e ===
  0x510e	xor    	byte ptr [eax], al
  0x5110	xor    	byte ptr [eax], al
  0x5112	xor    	dword ptr [eax], eax
  0x5114	xor    	byte ptr [eax], al
  0x5116	xor    	byte ptr [eax], al
  === BLOCK LINK ===
    0x5118
=== CODE BLOCK END ===

=== CODE BLOCK ADDRESS 0x5118 ===
  0x5118	bound  	eax, qword ptr [eax]
  0x511a	xor    	eax, 0x63006600
  0x511f	add    	byte ptr [ecx], bh
  0x5121	add    	byte ptr [eax], dh
  0x5123	add    	byte ptr [ebp], ah
  === BLOCK LINK ===
    0x5126
=== CODE BLOCK END ===

=== CODE BLOCK ADDRESS 0x5126 ===
  0x5126	aaa    	
  0x5127	add    	byte ptr [eax], dh
  0x5129	add    	byte ptr [edx], dh
  0x512b	add    	byte ptr [edi], dh
  0x512d	add    	byte ptr [esi], ah
  === BLOCK LINK ===
    0x5130
=== CODE BLOCK END ===

=== CODE BLOCK ADDRESS 0x5130 ===
  0x5130	add    	byte ptr ss:[edi], dh
  0x5133	add    	byte ptr [eax], bh
  0x5135	add    	byte ptr [edi], dh
  0x5137	add    	byte ptr [ecx], dh
  0x5139	add    	byte ptr [ebp], ah
  === BLOCK LINK ===
    0x513c
=== CODE BLOCK END ===

=== CODE BLOCK ADDRESS 0x513c ===
  0x513c	aaa    	
  0x513d	add    	byte ptr [edi], dh
  0x513f	add    	byte ptr [ebx], dh
  0x5141	add    	byte ptr [ecx], ah
  0x5144	cmp    	byte ptr [eax], al
  === BLOCK LINK ===
    0x5146
=== CODE BLOCK END ===

=== CODE BLOCK ADDRESS 0x5146 ===
  0x5146	add    	byte ptr [eax + eax + 0x65], ah
  0x514b	add    	byte ptr [eax], bh
  0x514d	add    	byte ptr [ecx], bh
  0x514f	add    	byte ptr [ebx], dh
  0x5151	add    	byte ptr [eax], bh
  === BLOCK LINK ===
    0x5153
=== CODE BLOCK END ===

=== CODE BLOCK ADDRESS 0x5153 ===
  0x5153	add    	byte ptr [ebx], ah
  0x5156	cmp    	byte ptr [eax], al
  0x5158	xor    	dword ptr [eax], eax
  0x515a	add    	byte ptr fs:[eax + eax + 0x34], ah
  0x515f	add    	byte ptr [eax], dh
  === BLOCK LINK ===
    0x5161
=== CODE BLOCK END ===

=== CODE BLOCK ADDRESS 0x5161 ===
  0x5161	add    	byte ptr [edx], dh
  0x5163	add    	byte ptr [edx], ah
  0x5166	popal  	
  0x5167	add    	byte ptr [esi], dh
  0x5169	add    	byte ptr [0x39006200], dh
  === BLOCK LINK ===
    0x516f
=== CODE BLOCK END ===

=== CODE BLOCK ADDRESS 0x516f ===
  0x516f	add    	byte ptr [edx], dh
  0x5171	add    	byte ptr [eax], dh
  0x5173	add    	byte ptr [ecx], dh
  0x5175	add    	byte ptr [eax + eax + 0x36], ah
  0x5179	add    	byte ptr [eax], dh
  === BLOCK LINK ===
    0x517b
=== CODE BLOCK END ===

=== CODE BLOCK ADDRESS 0x517b ===
  0x517b	add    	byte ptr [0x33003900], dh
  0x5181	add    	byte ptr [ebp], ah
  0x5184	cmp    	dword ptr [eax], eax
  0x5186	add    	byte ptr ss:[ebx], ah
  0x518a	xor    	al, 0
  === BLOCK LINK ===
    0x518c
=== CODE BLOCK END ===

=== CODE BLOCK ADDRESS 0x518c ===
  0x518c	cmp    	dword ptr [eax], eax
  0x518e	xor    	al, byte ptr [eax]
  0x5190	add    	byte ptr ss:[0x65003100], dh
  0x5197	add    	byte ptr [eax], bh
  0x5199	add    	byte ptr [eax], bh
  === BLOCK LINK ===
    0x519b
=== CODE BLOCK END ===

=== CODE BLOCK ADDRESS 0x519b ===
  0x519b	add    	byte ptr [ecx], bh
  0x519d	add    	byte ptr [ebx], ah
  0x51a0	arpl   	word ptr [eax], ax
  0x51a2	xor    	dword ptr [eax], eax
  0x51a4	xor    	eax, dword ptr [eax]
  === BLOCK LINK ===
    0x51a6
=== CODE BLOCK END ===

=== CODE BLOCK ADDRESS 0x51a6 ===
  0x51a6	add    	byte ptr [ecx], dh
  0x51a9	add    	byte ptr [eax + eax], dh
  0x51ac	xor    	dword ptr [eax], eax
  0x51ae	xor    	eax, 0x62006500
  0x51b3	add    	byte ptr [edx], ah
  === BLOCK LINK ===
    0x51b6
=== CODE BLOCK END ===

=== CODE BLOCK ADDRESS 0x51b6 ===
  0x51b6	xor    	eax, 0x66003300
  0x51bb	add    	byte ptr [ecx], ah
  0x51be	arpl   	word ptr [eax], ax
  0x51c0	xor    	dword ptr [eax], eax
  0x51c2	xor    	dword ptr [eax], eax
  === BLOCK LINK ===
    0x51c4
=== CODE BLOCK END ===

=== CODE BLOCK ADDRESS 0x51c4 ===
  0x51c4	xor    	eax, dword ptr [eax]
  0x51c6	xor    	dword ptr [eax], eax
  0x51c8	popal  	
  0x51c9	add    	byte ptr [ebp], ah
  0x51cc	xor    	byte ptr [eax], al
  === BLOCK LINK ===
    0x51ce
=== CODE BLOCK END ===

=== CODE BLOCK ADDRESS 0x51ce ===
  0x51ce	bound  	eax, qword ptr [eax]
  0x51d0	add    	byte ptr fs:[ebx], dh
  0x51d3	add    	byte ptr [ebx], dh
  0x51d5	add    	byte ptr [ebx], dh
  0x51d7	add    	byte ptr [ebx], ah
  === BLOCK LINK ===
    0x51da
=== CODE BLOCK END ===

=== CODE BLOCK ADDRESS 0x51da ===
  0x51da	xor    	eax, 0x65006500
  0x51df	add    	byte ptr [esi], dh
  0x51e1	add    	byte ptr [eax], dh
  0x51e3	add    	byte ptr [edx], dh
  0x51e5	add    	byte ptr [ecx], dh
  === BLOCK LINK ===
    0x51e7
=== CODE BLOCK END ===

=== CODE BLOCK ADDRESS 0x51e7 ===
  0x51e7	add    	byte ptr [esi], dh
  0x51e9	add    	byte ptr [edi], dh
  0x51eb	add    	byte ptr [edx], dh
  0x51ed	add    	byte ptr [eax + eax + 0x39], ah
  0x51f1	add    	byte ptr [edi], dh
  === BLOCK LINK ===
    0x51f3
=== CODE BLOCK END ===

=== CODE BLOCK ADDRESS 0x51f3 ===
  0x51f3	add    	byte ptr [ecx], dh
  0x51f5	add    	byte ptr [eax], bh
  0x51f7	add    	byte ptr [ebp], ah
  0x51fa	popal  	
  0x51fb	add    	byte ptr [ebx], dh
  === BLOCK LINK ===
    0x51fd
=== CODE BLOCK END ===

=== CODE BLOCK ADDRESS 0x51fd ===
  0x51fd	add    	byte ptr [ecx], dh
  0x51ff	add    	byte ptr [ecx], ah
  0x5202	cmp    	byte ptr [eax], al
  0x5204	popal  	
  0x5205	add    	byte ptr [ebp], ah
  === BLOCK LINK ===
    0x5208
=== CODE BLOCK END ===

=== CODE BLOCK ADDRESS 0x5208 ===
  0x5208	bound  	eax, qword ptr [eax]
  0x520a	add    	byte ptr fs:[eax], dh
  0x520d	add    	byte ptr [eax + eax + 0x61], ah
  0x5211	add    	byte ptr [eax], dh
  0x5213	add    	byte ptr [eax], dh
  === BLOCK LINK ===
    0x5215
=== CODE BLOCK END ===

=== CODE BLOCK ADDRESS 0x5215 ===
  0x5215	add    	byte ptr [edi], dh
  0x5217	add    	byte ptr [edx], dh
  0x5219	add    	byte ptr [esi], ah
  0x521c	xor    	al, byte ptr [eax]
  0x521e	xor    	eax, 0x38006400
  === BLOCK LINK ===
    0x5223
=== CODE BLOCK END ===

=== CODE BLOCK ADDRESS 0x5223 ===
  0x5223	add    	byte ptr [edi], dh
  0x5225	add    	byte ptr [eax + eax + 0x62], ah
  0x5229	add    	byte ptr [ecx], ah
  0x522c	add    	byte ptr ss:[esi], ah
  0x5230	arpl   	word ptr [eax], ax
  === BLOCK LINK ===
    0x5232
=== CODE BLOCK END ===

=== CODE BLOCK ADDRESS 0x5232 ===
  0x5232	cmp    	dword ptr [eax], eax
  0x5234	xor    	byte ptr [eax], al
  0x5236	add    	byte ptr [esi], ah
  0x523a	add    	byte ptr fs:[0x38003900], dh
  0x5241	add    	byte ptr [ebp], ah
  === BLOCK LINK ===
    0x5244
=== CODE BLOCK END ===

=== CODE BLOCK ADDRESS 0x5244 ===
  0x5244	add    	byte ptr fs:[eax + eax], dh
  0x5248	add    	byte ptr fs:[ecx], ah
  0x524c	xor    	eax, dword ptr [eax]
  0x524e	xor    	eax, 0x34006500
  0x5253	add    	byte ptr [eax + eax], dh
  === BLOCK LINK ===
    0x5256
=== CODE BLOCK END ===

=== CODE BLOCK ADDRESS 0x5256 ===
  0x5256	arpl   	word ptr [eax], ax
  0x5258	xor    	eax, dword ptr [eax]
  0x525a	cmp    	dword ptr [eax], eax
  0x525c	cmp    	byte ptr [eax], al
  0x525e	arpl   	word ptr [eax], ax
  === BLOCK LINK ===
    0x5260
=== CODE BLOCK END ===

=== CODE BLOCK ADDRESS 0x5260 ===
  0x5260	xor    	al, 0
  0x5262	xor    	eax, 0x33003400
  0x5267	add    	byte ptr [eax], dh
  0x5269	add    	byte ptr [edi], dh
  0x526b	add    	byte ptr [ebp], ah
  === BLOCK LINK ===
    0x526e
=== CODE BLOCK END ===

=== CODE BLOCK ADDRESS 0x526e ===
  0x526e	cmp    	byte ptr [eax], al
  0x5270	add    	byte ptr gs:[ebx], dh
  0x5273	add    	byte ptr [ebx], dh
  0x5275	add    	byte ptr [edx], ah
  0x5278	cmp    	byte ptr [eax], al
  === BLOCK LINK ===
    0x527a
=== CODE BLOCK END ===

=== CODE BLOCK ADDRESS 0x527a ===
  0x527a	xor    	al, 0
  0x527c	xor    	al, byte ptr [eax]
  0x527e	add    	byte ptr ss:[ecx], dh
  0x5281	add    	byte ptr [eax + eax], dh
  0x5284	xor    	eax, dword ptr [eax]
  === BLOCK LINK ===
    0x5286
=== CODE BLOCK END ===

=== CODE BLOCK ADDRESS 0x5286 ===
  0x5286	add    	byte ptr fs:[ecx], ah
  0x528a	add    	byte ptr gs:[ebx], ah
  0x528e	cmp    	dword ptr [eax], eax
  0x5290	add    	byte ptr [0x36003900], dh
  0x5297	add    	byte ptr [eax], bh
  === BLOCK LINK ===
    0x5299
=== CODE BLOCK END ===

=== CODE BLOCK ADDRESS 0x5299 ===
  0x5299	add    	byte ptr [ebx], dh
  0x529b	add    	byte ptr [esi], dh
  0x529d	add    	byte ptr [esi], ah
  0x52a0	cmp    	dword ptr [eax], eax
  0x52a2	aaa    	
  === BLOCK LINK ===
    0x52a3
=== CODE BLOCK END ===

=== CODE BLOCK ADDRESS 0x52a3 ===
  0x52a3	add    	byte ptr [ebx], ah
  0x52a6	cmp    	byte ptr [eax], al
  0x52a8	add    	byte ptr [edi], dh
  0x52ab	add    	byte ptr [eax + eax], dh
  0x52ae	aaa    	
  === BLOCK LINK ===
    0x52af
=== CODE BLOCK END ===

=== CODE BLOCK ADDRESS 0x52af ===
  0x52af	add    	byte ptr [0x65003000], dh
  0x52b5	add    	byte ptr [0x37003900], dh
  0x52bb	add    	byte ptr [0x36006300], dh
  0x52c1	add    	byte ptr [eax + eax], dh
  0x52c4	add    	byte ptr gs:[edx], dh
  === BLOCK LINK ===
    0x52c7
=== CODE BLOCK END ===

=== CODE BLOCK ADDRESS 0x52c7 ===
  0x52c7	add    	byte ptr [ecx], dh
  0x52c9	add    	byte ptr [eax], bh
  0x52cb	add    	byte ptr [ecx], bh
  0x52cd	add    	byte ptr [esi], ah
  0x52d0	xor    	al, 0
  === BLOCK LINK ===
    0x52d2
=== CODE BLOCK END ===

=== CODE BLOCK ADDRESS 0x52d2 ===
  0x52d2	xor    	eax, 0x65006400
  0x52d7	add    	byte ptr [esi], ah
  0x52da	xor    	al, 0
  0x52dc	add    	byte ptr ss:[edx], ah
  0x52e0	xor    	al, byte ptr [eax]
  === BLOCK LINK ===
    0x52e2
=== CODE BLOCK END ===

=== CODE BLOCK ADDRESS 0x52e2 ===
  0x52e2	popal  	
  0x52e3	add    	byte ptr [edx], dh
  0x52e5	add    	byte ptr [edx], ah
  0x52e8	xor    	dword ptr [eax], eax
  0x52ea	xor    	al, byte ptr [eax]
  === BLOCK LINK ===
    0x52ec
=== CODE BLOCK END ===

=== CODE BLOCK ADDRESS 0x52ec ===
  0x52ec	xor    	al, 0
  0x52ee	aaa    	
  0x52ef	add    	byte ptr [ecx], ah
  0x52f2	add    	byte ptr fs:[ebx], ah
  0x52f6	xor    	eax, dword ptr [eax]
  === BLOCK LINK ===
    0x52f8
=== CODE BLOCK END ===

=== CODE BLOCK ADDRESS 0x52f8 ===
  0x52f8	add    	byte ptr ss:[0x62003200], dh
  0x52ff	add    	byte ptr [esi], ah
  0x5302	xor    	eax, 0x33006300
  0x5307	add    	byte ptr [eax], dh
  0x5309	add    	byte ptr [eax], bh
  === BLOCK LINK ===
    0x530b
=== CODE BLOCK END ===

=== CODE BLOCK ADDRESS 0x530b ===
  0x530b	add    	byte ptr [eax], dh
  0x530d	add    	byte ptr [0x64003500], dh
  0x5313	add    	byte ptr [ecx], ah
  0x5316	cmp    	dword ptr [eax], eax
  0x5318	xor    	byte ptr [esi + 0x790053], 0x73
  === BLOCK LINK ===
    0x531f
=== CODE BLOCK END ===

=== CODE BLOCK ADDRESS 0x531f ===
  0x531f	add    	byte ptr [eax + eax + 0x65], dh
  0x5323	add    	byte ptr [ebp], ch
  0x5326	add    	byte ptr cs:[eax], dl
  0x532a	jb     	0x532c
  === BLOCK LINK ===
    0x532c
=== CODE BLOCK END ===

=== CODE BLOCK ADDRESS 0x532c ===
  0x532c	imul   	eax, dword ptr [eax], 0x74006e
  0x5332	imul   	eax, dword ptr [eax], 0x67006e
  0x5338	sub    	al, 0
  0x533a	and    	byte ptr [eax], al
  0x533c	push   	eax
  === BLOCK LINK ===
    0x533d
=== CODE BLOCK END ===

=== CODE BLOCK ADDRESS 0x533d ===
  0x533d	add    	byte ptr [ebp], dh
  0x5340	bound  	eax, qword ptr [eax]
  0x5342	insb   	byte ptr es:[edi], dx
  0x5343	add    	byte ptr [ecx], ch
  0x5346	arpl   	word ptr [eax], ax
  === BLOCK LINK ===
    0x5348
=== CODE BLOCK END ===

=== CODE BLOCK ADDRESS 0x5348 ===
  0x5348	dec    	ebx
  0x5349	add    	byte ptr [ebp], ah
  0x534c	jns    	0x534e
  === BLOCK LINK ===
    0x534e
=== CODE BLOCK END ===

=== CODE BLOCK ADDRESS 0x534e ===
  0x534e	cmp    	eax, 0x30003000
  0x5353	add    	byte ptr [edx], dh
  0x5355	add    	byte ptr [eax + eax], dh
  0x5358	xor    	byte ptr [eax], al
  0x535a	xor    	byte ptr [eax], al
  === BLOCK LINK ===
    0x535c
=== CODE BLOCK END ===

=== CODE BLOCK ADDRESS 0x535c ===
  0x535c	xor    	byte ptr [eax], al
  0x535e	xor    	byte ptr [eax], al
  0x5360	xor    	byte ptr [eax], al
  0x5362	xor    	al, 0
  0x5364	cmp    	byte ptr [eax], al
  === BLOCK LINK ===
    0x5366
=== CODE BLOCK END ===

=== CODE BLOCK ADDRESS 0x5366 ===
  0x5366	xor    	byte ptr [eax], al
  0x5368	xor    	byte ptr [eax], al
  0x536a	xor    	byte ptr [eax], al
  0x536c	xor    	byte ptr [eax], al
  0x536e	xor    	byte ptr [eax], al
  === BLOCK LINK ===
    0x5370
=== CODE BLOCK END ===

=== CODE BLOCK ADDRESS 0x5370 ===
  0x5370	cmp    	dword ptr [eax], eax
  0x5372	xor    	al, 0
  0x5374	xor    	byte ptr [eax], al
  0x5376	xor    	byte ptr [eax], al
  0x5378	xor    	byte ptr [eax], al
  === BLOCK LINK ===
    0x537a
=== CODE BLOCK END ===

=== CODE BLOCK ADDRESS 0x537a ===
  0x537a	xor    	byte ptr [eax], al
  0x537c	xor    	byte ptr [eax], al
  0x537e	xor    	byte ptr [eax], al
  0x5380	xor    	byte ptr [eax], al
  0x5382	add    	byte ptr ss:[eax], dh
  === BLOCK LINK ===
    0x5385
=== CODE BLOCK END ===

=== CODE BLOCK ADDRESS 0x5385 ===
  0x5385	add    	byte ptr [edx], dh
  0x5387	add    	byte ptr [eax], dh
  0x5389	add    	byte ptr [eax], dh
  0x538b	add    	byte ptr [eax], dh
  0x538d	add    	byte ptr [eax], dh
  === BLOCK LINK ===
    0x538f
=== CODE BLOCK END ===

=== CODE BLOCK ADDRESS 0x538f ===
  0x538f	add    	byte ptr [eax], dh
  0x5391	add    	byte ptr [eax], dh
  0x5393	add    	byte ptr [edx], dh
  0x5395	add    	byte ptr [eax + eax], dh
  0x5398	xor    	byte ptr [eax], al
  === BLOCK LINK ===
    0x539a
=== CODE BLOCK END ===

=== CODE BLOCK ADDRESS 0x539a ===
  0x539a	xor    	byte ptr [eax], al
  0x539c	xor    	byte ptr [eax], al
  0x539e	xor    	byte ptr [eax], al
  0x53a0	xor    	eax, 0x35003200
  0x53a5	add    	byte ptr [ebx], dh
  === BLOCK LINK ===
    0x53a7
=== CODE BLOCK END ===

=== CODE BLOCK ADDRESS 0x53a7 ===
  0x53a7	add    	byte ptr [eax + eax], dh
  0x53aa	xor    	dword ptr [eax], eax
  0x53ac	xor    	eax, dword ptr [eax]
  0x53ae	xor    	dword ptr [eax], eax
  0x53b0	xor    	byte ptr [eax], al
  === BLOCK LINK ===
    0x53b2
=== CODE BLOCK END ===

=== CODE BLOCK ADDRESS 0x53b2 ===
  0x53b2	xor    	byte ptr [eax], al
  0x53b4	xor    	byte ptr [eax], al
  0x53b6	xor    	al, 0
  0x53b8	xor    	byte ptr [eax], al
  0x53ba	xor    	byte ptr [eax], al
  === BLOCK LINK ===
    0x53bc
=== CODE BLOCK END ===

=== CODE BLOCK ADDRESS 0x53bc ===
  0x53bc	xor    	byte ptr [eax], al
  0x53be	xor    	byte ptr [eax], al
  0x53c0	xor    	byte ptr [eax], al
  0x53c2	xor    	dword ptr [eax], eax
  0x53c4	xor    	byte ptr [eax], al
  === BLOCK LINK ===
    0x53c6
=== CODE BLOCK END ===

=== CODE BLOCK ADDRESS 0x53c6 ===
  0x53c6	xor    	byte ptr [eax], al
  0x53c8	xor    	byte ptr [eax], al
  0x53ca	xor    	dword ptr [eax], eax
  0x53cc	xor    	byte ptr [eax], al
  0x53ce	xor    	byte ptr [eax], al
  === BLOCK LINK ===
    0x53d0
=== CODE BLOCK END ===

=== CODE BLOCK ADDRESS 0x53d0 ===
  0x53d0	bound  	eax, qword ptr [eax]
  0x53d2	xor    	eax, 0x63006600
  0x53d7	add    	byte ptr [ecx], bh
  0x53d9	add    	byte ptr [eax], dh
  0x53db	add    	byte ptr [ebp], ah
  === BLOCK LINK ===
    0x53de
=== CODE BLOCK END ===

=== CODE BLOCK ADDRESS 0x53de ===
  0x53de	aaa    	
  0x53df	add    	byte ptr [eax], dh
  0x53e1	add    	byte ptr [edx], dh
  0x53e3	add    	byte ptr [edi], dh
  0x53e5	add    	byte ptr [esi], ah
  === BLOCK LINK ===
    0x53e8
=== CODE BLOCK END ===

=== CODE BLOCK ADDRESS 0x53e8 ===
  0x53e8	add    	byte ptr ss:[edi], dh
  0x53eb	add    	byte ptr [eax], bh
  0x53ed	add    	byte ptr [edi], dh
  0x53ef	add    	byte ptr [ecx], dh
  0x53f1	add    	byte ptr [ebp], ah
  === BLOCK LINK ===
    0x53f4
=== CODE BLOCK END ===

=== CODE BLOCK ADDRESS 0x53f4 ===
  0x53f4	aaa    	
  0x53f5	add    	byte ptr [edi], dh
  0x53f7	add    	byte ptr [ebx], dh
  0x53f9	add    	byte ptr [ecx], ah
  0x53fc	cmp    	byte ptr [eax], al
  === BLOCK LINK ===
    0x53fe
=== CODE BLOCK END ===

=== CODE BLOCK ADDRESS 0x53fe ===
  0x53fe	add    	byte ptr [eax + eax + 0x65], ah
  0x5403	add    	byte ptr [eax], bh
  0x5405	add    	byte ptr [ecx], bh
  0x5407	add    	byte ptr [ebx], dh
  0x5409	add    	byte ptr [eax], bh
  === BLOCK LINK ===
    0x540b
=== CODE BLOCK END ===

=== CODE BLOCK ADDRESS 0x540b ===
  0x540b	add    	byte ptr [ebx], ah
  0x540e	cmp    	byte ptr [eax], al
  0x5410	xor    	dword ptr [eax], eax
  0x5412	add    	byte ptr fs:[eax + eax + 0x34], ah
  0x5417	add    	byte ptr [eax], dh
  === BLOCK LINK ===
    0x5419
=== CODE BLOCK END ===

=== CODE BLOCK ADDRESS 0x5419 ===
  0x5419	add    	byte ptr [edx], dh
  0x541b	add    	byte ptr [edx], ah
  0x541e	popal  	
  0x541f	add    	byte ptr [esi], dh
  0x5421	add    	byte ptr [0x39006200], dh
  === BLOCK LINK ===
    0x5427
=== CODE BLOCK END ===

=== CODE BLOCK ADDRESS 0x5427 ===
  0x5427	add    	byte ptr [edx], dh
  0x5429	add    	byte ptr [eax], dh
  0x542b	add    	byte ptr [ecx], dh
  0x542d	add    	byte ptr [eax + eax + 0x36], ah
  0x5431	add    	byte ptr [eax], dh
  === BLOCK LINK ===
    0x5433
=== CODE BLOCK END ===

=== CODE BLOCK ADDRESS 0x5433 ===
  0x5433	add    	byte ptr [0x33003900], dh
  0x5439	add    	byte ptr [ebp], ah
  0x543c	cmp    	dword ptr [eax], eax
  0x543e	add    	byte ptr ss:[ebx], ah
  0x5442	xor    	al, 0
  === BLOCK LINK ===
    0x5444
=== CODE BLOCK END ===

=== CODE BLOCK ADDRESS 0x5444 ===
  0x5444	cmp    	dword ptr [eax], eax
  0x5446	xor    	al, byte ptr [eax]
  0x5448	add    	byte ptr ss:[0x65003100], dh
  0x544f	add    	byte ptr [eax], bh
  0x5451	add    	byte ptr [eax], bh
  === BLOCK LINK ===
    0x5453
=== CODE BLOCK END ===

=== CODE BLOCK ADDRESS 0x5453 ===
  0x5453	add    	byte ptr [ecx], bh
  0x5455	add    	byte ptr [ebx], ah
  0x5458	arpl   	word ptr [eax], ax
  0x545a	xor    	dword ptr [eax], eax
  0x545c	xor    	eax, dword ptr [eax]
  === BLOCK LINK ===
    0x545e
=== CODE BLOCK END ===

=== CODE BLOCK ADDRESS 0x545e ===
  0x545e	add    	byte ptr [ecx], dh
  0x5461	add    	byte ptr [eax + eax], dh
  0x5464	xor    	dword ptr [eax], eax
  0x5466	xor    	eax, 0x62006500
  0x546b	add    	byte ptr [edx], ah
  === BLOCK LINK ===
    0x546e
=== CODE BLOCK END ===

=== CODE BLOCK ADDRESS 0x546e ===
  0x546e	xor    	eax, 0x66003300
  0x5473	add    	byte ptr [ecx], ah
  0x5476	arpl   	word ptr [eax], ax
  0x5478	xor    	dword ptr [eax], eax
  0x547a	xor    	dword ptr [eax], eax
  === BLOCK LINK ===
    0x547c
=== CODE BLOCK END ===

=== CODE BLOCK ADDRESS 0x547c ===
  0x547c	xor    	eax, dword ptr [eax]
  0x547e	xor    	dword ptr [eax], eax
  0x5480	popal  	
  0x5481	add    	byte ptr [ebp], ah
  0x5484	xor    	byte ptr [eax], al
  === BLOCK LINK ===
    0x5486
=== CODE BLOCK END ===

=== CODE BLOCK ADDRESS 0x5486 ===
  0x5486	bound  	eax, qword ptr [eax]
  0x5488	add    	byte ptr fs:[ebx], dh
  0x548b	add    	byte ptr [ebx], dh
  0x548d	add    	byte ptr [ebx], dh
  0x548f	add    	byte ptr [ebx], ah
  === BLOCK LINK ===
    0x5492
=== CODE BLOCK END ===

=== CODE BLOCK ADDRESS 0x5492 ===
  0x5492	xor    	eax, 0x65006500
  0x5497	add    	byte ptr [esi], dh
  0x5499	add    	byte ptr [eax], dh
  0x549b	add    	byte ptr [edx], dh
  0x549d	add    	byte ptr [ecx], dh
  === BLOCK LINK ===
    0x549f
=== CODE BLOCK END ===

=== CODE BLOCK ADDRESS 0x549f ===
  0x549f	add    	byte ptr [esi], dh
  0x54a1	add    	byte ptr [edi], dh
  0x54a3	add    	byte ptr [edx], dh
  0x54a5	add    	byte ptr [eax + eax + 0x39], ah
  0x54a9	add    	byte ptr [edi], dh
  === BLOCK LINK ===
    0x54ab
=== CODE BLOCK END ===

=== CODE BLOCK ADDRESS 0x54ab ===
  0x54ab	add    	byte ptr [ecx], dh
  0x54ad	add    	byte ptr [eax], bh
  0x54af	add    	byte ptr [ebp], ah
  0x54b2	popal  	
  0x54b3	add    	byte ptr [ebx], dh
  === BLOCK LINK ===
    0x54b5
=== CODE BLOCK END ===

=== CODE BLOCK ADDRESS 0x54b5 ===
  0x54b5	add    	byte ptr [ecx], dh
  0x54b7	add    	byte ptr [ecx], ah
  0x54ba	cmp    	byte ptr [eax], al
  0x54bc	popal  	
  0x54bd	add    	byte ptr [ebp], ah
  === BLOCK LINK ===
    0x54c0
=== CODE BLOCK END ===

=== CODE BLOCK ADDRESS 0x54c0 ===
  0x54c0	bound  	eax, qword ptr [eax]
  0x54c2	add    	byte ptr fs:[eax], dh
  0x54c5	add    	byte ptr [eax + eax + 0x61], ah
  0x54c9	add    	byte ptr [eax], dh
  0x54cb	add    	byte ptr [eax], dh
  === BLOCK LINK ===
    0x54cd
=== CODE BLOCK END ===

=== CODE BLOCK ADDRESS 0x54cd ===
  0x54cd	add    	byte ptr [edi], dh
  0x54cf	add    	byte ptr [edx], dh
  0x54d1	add    	byte ptr [esi], ah
  0x54d4	xor    	al, byte ptr [eax]
  0x54d6	xor    	eax, 0x38006400
  === BLOCK LINK ===
    0x54db
=== CODE BLOCK END ===

=== CODE BLOCK ADDRESS 0x54db ===
  0x54db	add    	byte ptr [edi], dh
  0x54dd	add    	byte ptr [eax + eax + 0x62], ah
  0x54e1	add    	byte ptr [ecx], ah
  0x54e4	add    	byte ptr ss:[esi], ah
  0x54e8	arpl   	word ptr [eax], ax
  === BLOCK LINK ===
    0x54ea
=== CODE BLOCK END ===

=== CODE BLOCK ADDRESS 0x54ea ===
  0x54ea	cmp    	dword ptr [eax], eax
  0x54ec	xor    	byte ptr [eax], al
  0x54ee	add    	byte ptr [esi], ah
  0x54f2	add    	byte ptr fs:[0x38003900], dh
  0x54f9	add    	byte ptr [ebp], ah
  === BLOCK LINK ===
    0x54fc
=== CODE BLOCK END ===

=== CODE BLOCK ADDRESS 0x54fc ===
  0x54fc	add    	byte ptr fs:[eax + eax], dh
  0x5500	add    	byte ptr fs:[ecx], ah
  0x5504	xor    	eax, dword ptr [eax]
  0x5506	xor    	eax, 0x34006500
  0x550b	add    	byte ptr [eax + eax], dh
  === BLOCK LINK ===
    0x550e
=== CODE BLOCK END ===

=== CODE BLOCK ADDRESS 0x550e ===
  0x550e	arpl   	word ptr [eax], ax
  0x5510	xor    	eax, dword ptr [eax]
  0x5512	cmp    	dword ptr [eax], eax
  0x5514	cmp    	byte ptr [eax], al
  0x5516	arpl   	word ptr [eax], ax
  === BLOCK LINK ===
    0x5518
=== CODE BLOCK END ===

=== CODE BLOCK ADDRESS 0x5518 ===
  0x5518	xor    	al, 0
  0x551a	xor    	eax, 0x33003400
  0x551f	add    	byte ptr [eax], dh
  0x5521	add    	byte ptr [edi], dh
  0x5523	add    	byte ptr [ebp], ah
  === BLOCK LINK ===
    0x5526
=== CODE BLOCK END ===

=== CODE BLOCK ADDRESS 0x5526 ===
  0x5526	cmp    	byte ptr [eax], al
  0x5528	add    	byte ptr gs:[ebx], dh
  0x552b	add    	byte ptr [ebx], dh
  0x552d	add    	byte ptr [edx], ah
  0x5530	cmp    	byte ptr [eax], al
  === BLOCK LINK ===
    0x5532
=== CODE BLOCK END ===

=== CODE BLOCK ADDRESS 0x5532 ===
  0x5532	xor    	al, 0
  0x5534	xor    	al, byte ptr [eax]
  0x5536	add    	byte ptr ss:[ecx], dh
  0x5539	add    	byte ptr [eax + eax], dh
  0x553c	xor    	eax, dword ptr [eax]
  === BLOCK LINK ===
    0x553e
=== CODE BLOCK END ===

=== CODE BLOCK ADDRESS 0x553e ===
  0x553e	add    	byte ptr fs:[ecx], ah
  0x5542	add    	byte ptr gs:[ebx], ah
  0x5546	cmp    	dword ptr [eax], eax
  0x5548	add    	byte ptr [0x36003900], dh
  0x554f	add    	byte ptr [eax], bh
  === BLOCK LINK ===
    0x5551
=== CODE BLOCK END ===

=== CODE BLOCK ADDRESS 0x5551 ===
  0x5551	add    	byte ptr [ebx], dh
  0x5553	add    	byte ptr [esi], dh
  0x5555	add    	byte ptr [esi], ah
  0x5558	cmp    	dword ptr [eax], eax
  0x555a	aaa    	
  === BLOCK LINK ===
    0x555b
=== CODE BLOCK END ===

=== CODE BLOCK ADDRESS 0x555b ===
  0x555b	add    	byte ptr [ebx], ah
  0x555e	cmp    	byte ptr [eax], al
  0x5560	add    	byte ptr [edi], dh
  0x5563	add    	byte ptr [eax + eax], dh
  0x5566	aaa    	
  === BLOCK LINK ===
    0x5567
=== CODE BLOCK END ===

=== CODE BLOCK ADDRESS 0x5567 ===
  0x5567	add    	byte ptr [0x65003000], dh
  0x556d	add    	byte ptr [0x37003900], dh
  0x5573	add    	byte ptr [0x36006300], dh
  0x5579	add    	byte ptr [eax + eax], dh
  0x557c	add    	byte ptr gs:[edx], dh
  === BLOCK LINK ===
    0x557f
=== CODE BLOCK END ===

=== CODE BLOCK ADDRESS 0x557f ===
  0x557f	add    	byte ptr [ecx], dh
  0x5581	add    	byte ptr [eax], bh
  0x5583	add    	byte ptr [ecx], bh
  0x5585	add    	byte ptr [esi], ah
  0x5588	xor    	al, 0
  === BLOCK LINK ===
    0x558a
=== CODE BLOCK END ===

=== CODE BLOCK ADDRESS 0x558a ===
  0x558a	xor    	eax, 0x65006400
  0x558f	add    	byte ptr [esi], ah
  0x5592	xor    	al, 0
  0x5594	add    	byte ptr ss:[edx], ah
  0x5598	xor    	al, byte ptr [eax]
  === BLOCK LINK ===
    0x559a
=== CODE BLOCK END ===

=== CODE BLOCK ADDRESS 0x559a ===
  0x559a	popal  	
  0x559b	add    	byte ptr [edx], dh
  0x559d	add    	byte ptr [edx], ah
  0x55a0	xor    	dword ptr [eax], eax
  0x55a2	xor    	al, byte ptr [eax]
  === BLOCK LINK ===
    0x55a4
=== CODE BLOCK END ===

=== CODE BLOCK ADDRESS 0x55a4 ===
  0x55a4	xor    	al, 0
  0x55a6	aaa    	
  0x55a7	add    	byte ptr [ecx], ah
  0x55aa	add    	byte ptr fs:[ebx], ah
  0x55ae	xor    	eax, dword ptr [eax]
  === BLOCK LINK ===
    0x55b0
=== CODE BLOCK END ===

=== CODE BLOCK ADDRESS 0x55b0 ===
  0x55b0	add    	byte ptr ss:[0x62003200], dh
  0x55b7	add    	byte ptr [esi], ah
  0x55ba	xor    	eax, 0x33006300
  0x55bf	add    	byte ptr [eax], dh
  0x55c1	add    	byte ptr [eax], bh
  === BLOCK LINK ===
    0x55c3
=== CODE BLOCK END ===

=== CODE BLOCK ADDRESS 0x55c3 ===
  0x55c3	add    	byte ptr [eax], dh
  0x55c5	add    	byte ptr [0x64003500], dh
  0x55cb	add    	byte ptr [ecx], ah
  0x55ce	cmp    	dword ptr [eax], eax
  0x55d0	or     	byte ptr [esi + 0x790053], 0x73
  === BLOCK LINK ===
    0x55d7
=== CODE BLOCK END ===

=== CODE BLOCK ADDRESS 0x55d7 ===
  0x55d7	add    	byte ptr [eax + eax + 0x65], dh
  0x55db	add    	byte ptr [ebp], ch
  0x55de	add    	byte ptr cs:[edi], dl
  0x55e2	imul   	eax, dword ptr [eax], 0x64006e
  0x55e8	outsd  	dx, dword ptr [esi]
  === BLOCK LINK ===
    0x55e9
=== CODE BLOCK END ===

=== CODE BLOCK ADDRESS 0x55e9 ===
  0x55e9	add    	byte ptr [edi], dh
  0x55ec	jae    	0x55ee
  === BLOCK LINK ===
    0x55ee
=== CODE BLOCK END ===

=== CODE BLOCK ADDRESS 0x55ee ===
  0x55ee	add    	byte ptr cs:[eax], dl
  0x55f2	jb     	0x55f4
  === BLOCK LINK ===
    0x55f4
=== CODE BLOCK END ===

=== CODE BLOCK ADDRESS 0x55f4 ===
  0x55f4	add    	byte ptr gs:[ebx], dh
  0x55f8	add    	byte ptr gs:[esi], ch
  0x55fc	je     	0x55fe
  === BLOCK LINK ===
    0x55fe
=== CODE BLOCK END ===

=== CODE BLOCK ADDRESS 0x55fe ===
  0x55fe	popal  	
  0x55ff	add    	byte ptr [eax + eax + 0x69], dh
  0x5603	add    	byte ptr [edi], ch
  0x5606	outsb  	dx, byte ptr [esi]
  0x5607	add    	byte ptr [eax + eax], ch
  === BLOCK LINK ===
    0x560a
=== CODE BLOCK END ===

=== CODE BLOCK ADDRESS 0x560a ===
  0x560a	and    	byte ptr [eax], al
  0x560c	push   	eax
  0x560d	add    	byte ptr [ebp], dh
  0x5610	bound  	eax, qword ptr [eax]
  0x5612	insb   	byte ptr es:[edi], dx
  === BLOCK LINK ===
    0x5613
=== CODE BLOCK END ===

=== CODE BLOCK ADDRESS 0x5613 ===
  0x5613	add    	byte ptr [ecx], ch
  0x5616	arpl   	word ptr [eax], ax
  0x5618	dec    	ebx
  0x5619	add    	byte ptr [ebp], ah
  0x561c	jns    	0x561e
  === BLOCK LINK ===
    0x561e
=== CODE BLOCK END ===

=== CODE BLOCK ADDRESS 0x561e ===
  0x561e	cmp    	eax, 0x30003000
  0x5623	add    	byte ptr [eax], dh
  0x5625	add    	byte ptr [eax], dh
  0x5627	add    	byte ptr [eax], dh
  0x5629	add    	byte ptr [eax], dh
  === BLOCK LINK ===
    0x562b
=== CODE BLOCK END ===

=== CODE BLOCK ADDRESS 0x562b ===
  0x562b	add    	byte ptr [eax], dh
  0x562d	add    	byte ptr [eax], dh
  0x562f	add    	byte ptr [eax], dh
  0x5631	add    	byte ptr [eax], dh
  0x5633	add    	byte ptr [eax], dh
  === BLOCK LINK ===
    0x5635
=== CODE BLOCK END ===

=== CODE BLOCK ADDRESS 0x5635 ===
  0x5635	add    	byte ptr [eax], dh
  0x5637	add    	byte ptr [eax], dh
  0x5639	add    	byte ptr [eax], dh
  0x563b	add    	byte ptr [eax], dh
  0x563d	add    	byte ptr [eax], dh
  === BLOCK LINK ===
    0x563f
=== CODE BLOCK END ===

=== CODE BLOCK ADDRESS 0x563f ===
  0x563f	add    	byte ptr [eax], dh
  0x5641	add    	byte ptr [eax + eax], dh
  0x5644	xor    	byte ptr [eax], al
  0x5646	xor    	byte ptr [eax], al
  0x5648	xor    	byte ptr [eax], al
  === BLOCK LINK ===
    0x564a
=== CODE BLOCK END ===

=== CODE BLOCK ADDRESS 0x564a ===
  0x564a	xor    	byte ptr [eax], al
  0x564c	xor    	byte ptr [eax], al
  0x564e	xor    	byte ptr [eax], al
  0x5650	xor    	byte ptr [eax], al
  0x5652	xor    	byte ptr [eax], al
  === BLOCK LINK ===
    0x5654
=== CODE BLOCK END ===

=== CODE BLOCK ADDRESS 0x5654 ===
  0x5654	xor    	byte ptr [eax], al
  0x5656	xor    	byte ptr [eax], al
  0x5658	xor    	byte ptr [eax], al
  0x565a	xor    	byte ptr [eax], al
  0x565c	xor    	byte ptr [eax], al
  === BLOCK LINK ===
    0x565e
=== CODE BLOCK END ===

=== CODE BLOCK ADDRESS 0x565e ===
  0x565e	xor    	byte ptr [eax], al
  0x5660	dec    	esp
  0x5661	pop    	esp
  0x5662	add    	byte ptr [edx], al
  0x5665	popal  	
  === BLOCK LINK ===
    0x5666
=== CODE BLOCK END ===

=== CODE BLOCK ADDRESS 0x5666 ===
  0x5666	add    	byte ptr [ebx], dh
  0x5669	add    	byte ptr gs:[esi], cl
  0x566d	popal  	
  0x566e	add    	byte ptr [ebp], ch
  0x5671	add    	byte ptr gs:[eax + eax + 0x4f], ah
  === BLOCK LINK ===
    0x5676
=== CODE BLOCK END ===

=== CODE BLOCK ADDRESS 0x5676 ===
  0x5676	add    	byte ptr [edx], ah
  0x5679	push   	0
  0x567b	add    	byte ptr gs:[ebx], ah
  0x567f	je     	0x5681
  === BLOCK LINK ===
    0x5681
=== CODE BLOCK END ===

=== CODE BLOCK ADDRESS 0x5681 ===
  0x5681	jae    	0x5683
  === BLOCK LINK ===
    0x5683
=== CODE BLOCK END ===

=== CODE BLOCK ADDRESS 0x5683 ===
  0x5683	pop    	esp
  0x5684	add    	byte ptr [esi], al
  0x5687	outsd  	dx, dword ptr [esi]
  0x5688	add    	byte ptr [esi], ch
  0x568b	je     	0x568d
  === BLOCK LINK ===
    0x568d
=== CODE BLOCK END ===

=== CODE BLOCK ADDRESS 0x568d ===
  0x568d	inc    	ebx
  0x568e	add    	byte ptr [ecx], ah
  0x5691	arpl   	word ptr [eax], ax
  0x5693	push   	0x50006500
  0x5698	add    	byte ptr [edi], ch
  === BLOCK LINK ===
    0x569b
=== CODE BLOCK END ===

=== CODE BLOCK ADDRESS 0x569b ===
  0x569b	jb     	0x569d
  === BLOCK LINK ===
    0x569d
=== CODE BLOCK END ===

=== CODE BLOCK ADDRESS 0x569d ===
  0x569d	je     	0x569f
  === BLOCK LINK ===
    0x569f
=== CODE BLOCK END ===

=== CODE BLOCK ADDRESS 0x569f ===
  0x569f	xor    	eax, dword ptr [eax]
  0x56a1	add    	byte ptr cs:[eax], dh
  0x56a4	add    	byte ptr [esi], ch
  0x56a6	add    	byte ptr [eax], dh
  0x56a8	add    	byte ptr [esi], ch
  === BLOCK LINK ===
    0x56aa
=== CODE BLOCK END ===

=== CODE BLOCK ADDRESS 0x56aa ===
  0x56aa	add    	byte ptr [eax], dh
  0x56ac	add    	byte ptr [eax], ah
  0x56ae	inc    	esi
  0x56af	add    	byte ptr [edi], ch
  0x56b2	outsb  	dx, byte ptr [esi]
  === BLOCK LINK ===
    0x56b3
=== CODE BLOCK END ===

=== CODE BLOCK ADDRESS 0x56b3 ===
  0x56b3	add    	byte ptr [eax + eax + 0x43], dh
  0x56b7	add    	byte ptr [ecx], ah
  0x56ba	arpl   	word ptr [eax], ax
  0x56bc	push   	0x33006500
  0x56c1	add    	byte ptr [esi], ch
  === BLOCK LINK ===
    0x56c3
=== CODE BLOCK END ===

=== CODE BLOCK ADDRESS 0x56c3 ===
  0x56c3	add    	byte ptr [eax], dh
  0x56c5	add    	byte ptr [esi], ch
  0x56c7	add    	byte ptr [eax], dh
  0x56c9	add    	byte ptr [esi], ch
  0x56cb	add    	byte ptr [eax], dh
  === BLOCK LINK ===
    0x56cd
=== CODE BLOCK END ===

=== CODE BLOCK ADDRESS 0x56cd ===
  0x56cd	add    	byte ptr [eax], bh
  0x56cf	push   	eax
  0x56d0	add    	byte ptr [edx], dh
  0x56d3	add    	byte ptr gs:[ebx], dh
  0x56d7	add    	byte ptr gs:[esi], ch
  === BLOCK LINK ===
    0x56db
=== CODE BLOCK END ===

=== CODE BLOCK ADDRESS 0x56db ===
  0x56db	je     	0x56dd
  === BLOCK LINK ===
    0x56dd
=== CODE BLOCK END ===

=== CODE BLOCK ADDRESS 0x56dd ===
  0x56dd	popal  	
  0x56de	add    	byte ptr [eax + eax + 0x69], dh
  0x56e2	add    	byte ptr [edi], ch
  0x56e5	outsb  	dx, byte ptr [esi]
  0x56e6	add    	byte ptr [esi], cl
  === BLOCK LINK ===
    0x56e9
=== CODE BLOCK END ===

=== CODE BLOCK ADDRESS 0x56e9 ===
  0x56e9	popal  	
  0x56ea	add    	byte ptr [eax + eax + 0x69], dh
  0x56ee	add    	byte ptr [esi], dh
  0x56f1	add    	byte ptr gs:[edi], bl
  0x56f5	jbe    	0x56f7
  === BLOCK LINK ===
    0x56f7
=== CODE BLOCK END ===

=== CODE BLOCK ADDRESS 0x56f7 ===
  0x56f7	xor    	byte ptr [eax], al
  0x56f9	xor    	eax, dword ptr [eax]
  0x56fb	xor    	byte ptr [eax], al
  0x56fd	xor    	byte ptr [eax], al
  0x56ff	add    	byte ptr cs:[eax + eax + 0x6c], ah
  === BLOCK LINK ===
    0x5704
=== CODE BLOCK END ===

=== CODE BLOCK ADDRESS 0x5704 ===
  0x5704	add    	byte ptr [eax + eax + 0x52], ch
  0x5708	push   	eax
  0x5709	add    	byte ptr [edx], dh
  0x570c	add    	byte ptr gs:[ebx], dh
  0x5710	add    	byte ptr gs:[esi], ch
  === BLOCK LINK ===
    0x5714
=== CODE BLOCK END ===

=== CODE BLOCK ADDRESS 0x5714 ===
  0x5714	je     	0x5716
  === BLOCK LINK ===
    0x5716
=== CODE BLOCK END ===

=== CODE BLOCK ADDRESS 0x5716 ===
  0x5716	popal  	
  0x5717	add    	byte ptr [eax + eax + 0x69], dh
  0x571b	add    	byte ptr [edi], ch
  0x571e	outsb  	dx, byte ptr [esi]
  0x571f	add    	byte ptr [ebx], al
  === BLOCK LINK ===
    0x5722
=== CODE BLOCK END ===

=== CODE BLOCK ADDRESS 0x5722 ===
  0x5722	inc    	esi
  0x5723	add    	byte ptr [esi], al
  0x5726	push   	edx
  0x5727	add    	byte ptr [ecx], ah
  0x572a	jae    	0x572c
  === BLOCK LINK ===
    0x572c
=== CODE BLOCK END ===

=== CODE BLOCK ADDRESS 0x572c ===
  0x572c	je     	0x572e
  === BLOCK LINK ===
    0x572e
=== CODE BLOCK END ===

=== CODE BLOCK ADDRESS 0x572e ===
  0x572e	add    	byte ptr gs:[edx], dh
  0x5732	imul   	eax, dword ptr [eax], 0x65007a
  0x5738	jb     	0x573a
  === BLOCK LINK ===
    0x573a
=== CODE BLOCK END ===

=== CODE BLOCK ADDRESS 0x573a ===
  0x573a	dec    	esi
  0x573b	add    	byte ptr [ecx], ah
  0x573e	je     	0x5740
  === BLOCK LINK ===
    0x5740
=== CODE BLOCK END ===

=== CODE BLOCK ADDRESS 0x5740 ===
  0x5740	imul   	eax, dword ptr [eax], 0x650076
  0x5746	pop    	edi
  0x5747	add    	byte ptr [esi], dh
  0x574a	xor    	byte ptr [eax], al
  0x574c	xor    	eax, dword ptr [eax]
  === BLOCK LINK ===
    0x574e
=== CODE BLOCK END ===

=== CODE BLOCK ADDRESS 0x574e ===
  0x574e	xor    	byte ptr [eax], al
  0x5750	xor    	byte ptr [eax], al
  0x5752	add    	byte ptr cs:[eax + eax + 0x6c], ah
  0x5757	add    	byte ptr [eax + eax + 0x16], ch
  0x575b	dec    	ebp
  === BLOCK LINK ===
    0x575c
=== CODE BLOCK END ===

=== CODE BLOCK ADDRESS 0x575c ===
  0x575c	add    	byte ptr [ecx], ch
  0x575f	insb   	byte ptr es:[edi], dx
  0x5760	add    	byte ptr [ebx], al
  0x5763	outsd  	dx, dword ptr [esi]
  0x5764	add    	byte ptr [edx], dh
  === BLOCK LINK ===
    0x5767
=== CODE BLOCK END ===

=== CODE BLOCK ADDRESS 0x5767 ===
  0x5767	add    	byte ptr gs:[esi], ch
  0x576a	add    	byte ptr [eax + eax + 0x6c], ah
  0x576e	add    	byte ptr [eax + eax + 0x16], ch
  0x5772	push   	edi
  0x5773	add    	byte ptr [ecx], ch
  === BLOCK LINK ===
    0x5776
=== CODE BLOCK END ===

=== CODE BLOCK ADDRESS 0x5776 ===
  0x5776	outsb  	dx, byte ptr [esi]
  0x5777	add    	byte ptr [ecx], ch
  0x577a	outsb  	dx, byte ptr [esi]
  0x577b	add    	byte ptr [ebp], ah
  0x577e	je     	0x5780
  === BLOCK LINK ===
    0x5780
=== CODE BLOCK END ===

=== CODE BLOCK ADDRESS 0x5780 ===
  0x5780	add    	byte ptr cs:[eax + eax + 0x6c], ah
  0x5785	add    	byte ptr [eax + eax + 0x22], ch
  0x5789	push   	edi
  0x578a	add    	byte ptr [ecx], ch
  0x578d	outsb  	dx, byte ptr [esi]
  === BLOCK LINK ===
    0x578e
=== CODE BLOCK END ===

=== CODE BLOCK ADDRESS 0x578e ===
  0x578e	add    	byte ptr [eax + eax + 0x6f], ah
  0x5792	add    	byte ptr [edi], dh
  0x5795	jae    	0x5797
  === BLOCK LINK ===
    0x5797
=== CODE BLOCK END ===

=== CODE BLOCK ADDRESS 0x5797 ===
  0x5797	inc    	ebx
  0x5798	add    	byte ptr [edi], ch
  0x579b	add    	byte ptr fs:[ebp], ah
  0x579f	arpl   	word ptr [eax], ax
  0x57a1	jae    	0x57a3
  === BLOCK LINK ===
    0x57a3
=== CODE BLOCK END ===

=== CODE BLOCK ADDRESS 0x57a3 ===
  0x57a3	add    	byte ptr cs:[eax + eax + 0x6c], ah
  0x57a8	add    	byte ptr [eax + eax + 0x28], ch
  0x57ac	push   	edi
  0x57ad	add    	byte ptr [ecx], ch
  0x57b0	outsb  	dx, byte ptr [esi]
  === BLOCK LINK ===
    0x57b1
=== CODE BLOCK END ===

=== CODE BLOCK ADDRESS 0x57b1 ===
  0x57b1	add    	byte ptr [eax + eax + 0x6f], ah
  0x57b5	add    	byte ptr [edi], dh
  0x57b8	jae    	0x57ba
  === BLOCK LINK ===
    0x57ba
=== CODE BLOCK END ===

=== CODE BLOCK ADDRESS 0x57ba ===
  0x57ba	inc    	ebx
  0x57bb	add    	byte ptr [edi], ch
  0x57be	add    	byte ptr fs:[ebp], ah
  0x57c2	arpl   	word ptr [eax], ax
  0x57c4	jae    	0x57c6
  === BLOCK LINK ===
    0x57c6
=== CODE BLOCK END ===

=== CODE BLOCK ADDRESS 0x57c6 ===
  0x57c6	inc    	ebp
  0x57c7	add    	byte ptr [eax], bh
  0x57ca	je     	0x57cc
  === BLOCK LINK ===
    0x57cc
=== CODE BLOCK END ===

=== CODE BLOCK ADDRESS 0x57cc ===
  0x57cc	add    	byte ptr cs:[eax + eax + 0x6c], ah
  0x57d1	add    	byte ptr [eax + eax + 0x12], ch
  0x57d5	insd   	dword ptr es:[edi], dx
  0x57d6	add    	byte ptr [ebx], dh
  0x57d9	arpl   	word ptr [eax], ax
  === BLOCK LINK ===
    0x57db
=== CODE BLOCK END ===

=== CODE BLOCK ADDRESS 0x57db ===
  0x57db	insd   	dword ptr es:[edi], dx
  0x57dc	add    	byte ptr [ebx], dh
  0x57df	add    	byte ptr cs:[eax + eax + 0x6c], ah
  0x57e4	add    	byte ptr [eax + eax + 0x16], ch
  0x57e8	jo     	0x57ea
  === BLOCK LINK ===
    0x57ea
=== CODE BLOCK END ===

=== CODE BLOCK ADDRESS 0x57ea ===
  0x57ea	jb     	0x57ec
  === BLOCK LINK ===
    0x57ec
=== CODE BLOCK END ===

=== CODE BLOCK ADDRESS 0x57ec ===
  0x57ec	outsb  	dx, byte ptr [esi]
  0x57ed	add    	byte ptr [eax + eax + 0x76], dh
  0x57f1	add    	byte ptr [eax], dh
  0x57f4	je     	0x57f6
  === BLOCK LINK ===
    0x57f6
=== CODE BLOCK END ===

=== CODE BLOCK ADDRESS 0x57f6 ===
  0x57f6	add    	byte ptr cs:[eax + eax + 0x6c], ah
  0x57fb	add    	byte ptr [eax + eax + 5], ch
  0x57ff	add    	byte ptr [ecx], al
  0x5801	add    	dword ptr [0xbf31080e], ebx
  0x5807	cmp    	byte ptr [esi - 0x53], dl
  === BLOCK LINK ===
    0x580a
=== CODE BLOCK END ===

=== CODE BLOCK ADDRESS 0x580a ===
  0x580a	dec    	esi
  0x580c	xor    	eax, 0x1020006
  0x5811	adc    	cl, byte ptr [ecx]
  0x5813	add    	al, byte ptr [0xe010200]
  0x5819	push   	cs
  === BLOCK LINK ===
    0x581a
=== CODE BLOCK END ===

=== CODE BLOCK ADDRESS 0x581a ===
  0x581a	add    	eax, 0x9120100
  0x581f	push   	cs
  0x5820	add    	esp, dword ptr [eax]
  0x5822	add    	byte ptr [ecx], al
  0x5824	add    	al, 0x20
  === BLOCK LINK ===
    0x5826
=== CODE BLOCK END ===

=== CODE BLOCK ADDRESS 0x5826 ===
  0x5826	add    	dword ptr [ecx], eax
  0x5828	add    	al, byte ptr [eax]
  0x582b	add    	dword ptr [ecx], eax
  0x582d	push   	cs
  0x582e	add    	eax, 0x11010120
  === BLOCK LINK ===
    0x5833
=== CODE BLOCK END ===

=== CODE BLOCK ADDRESS 0x5833 ===
  0x5833	xor    	eax, 0x1012005
  0x5838	adc    	dword ptr [0x1012004], edi
  0x583e	or     	byte ptr [eax + 0x2400a0], al
  0x5844	add    	byte ptr [eax + eax*4], al
  0x5847	add    	byte ptr [eax], al
  === BLOCK LINK ===
    0x5849
=== CODE BLOCK END ===

=== CODE BLOCK ADDRESS 0x5849 ===
  0x5849	xchg   	eax, esp
  0x584a	add    	byte ptr [eax], al
  0x584c	add    	byte ptr [esi], al
  0x584e	add    	al, byte ptr [eax]
  0x5850	add    	byte ptr [eax], al
  === BLOCK LINK ===
    0x5852
=== CODE BLOCK END ===

=== CODE BLOCK ADDRESS 0x5852 ===
  0x5852	and    	al, 0
  0x5854	add    	byte ptr [edx + 0x53], dl
  0x5857	inc    	ecx
  0x5858	xor    	dword ptr [eax], eax
  0x585a	add    	al, 0
  === BLOCK LINK ===
    0x585c
=== CODE BLOCK END ===

=== CODE BLOCK ADDRESS 0x585c ===
  0x585c	add    	byte ptr [ecx], al
  0x585e	add    	byte ptr [ecx], al
  0x5860	add    	byte ptr [ebp + 0x2e790fc], dh
  0x5866	jg     	0x58cf
  === BLOCK LINK ===
    0x5868
=== CODE BLOCK END ===

=== CODE BLOCK ADDRESS 0x5868 ===
  0x5868	xchg   	dword ptr [esi], ebx
  0x586a	ja     	0x58a6
  === BLOCK LINK ===
    0x586c
=== CODE BLOCK END ===

=== CODE BLOCK ADDRESS 0x586c ===
  0x586c	.byte  	0x8f
  0x586d	fimul  	word ptr [ecx - 0x2be237c8]
  0x5873	add    	bh, byte ptr [edx + 0x1d20b965]
  0x5879	pushal  	
  0x587a	pop    	ecx
  === BLOCK LINK ===
    0x587b
=== CODE BLOCK END ===

=== CODE BLOCK ADDRESS 0x587b ===
  0x587b	xchg   	eax, esi
  0x587d	les    	edx, ptr [edx - 0x6377e19b]
  0x5883	sar    	dword ptr [edi], 0x14
  0x5886	adc    	eax, 0xac3fb5eb
  0x588b	adc    	dword ptr [ecx], esi
  === BLOCK LINK ===
    0x588d
=== CODE BLOCK END ===

=== CODE BLOCK ADDRESS 0x588d ===
  0x588d	scasb  	al, byte ptr es:[edi]
  0x588e	or     	edx, ebx
  0x5890	xor    	eax, ebp
  0x5892	out    	dx, al
  0x5893	pushal  	
  === BLOCK LINK ===
    0x5894
=== CODE BLOCK END ===

=== CODE BLOCK ADDRESS 0x5894 ===
  0x5894	and    	dword ptr [edi + 0x2d], esp
  0x5897	xchg   	eax, edi
  0x5898	sbb    	dl, ch
  0x589a	xor    	dword ptr [eax - 0x5ff24252], ebp
  0x58a0	pop    	es
  === BLOCK LINK ===
    0x58a1
=== CODE BLOCK END ===

=== CODE BLOCK ADDRESS 0x58a1 ===
  0x58a1	das    	
  0x58a2	and    	eax, 0x6fba7dd8
  0x58a7	leave  	
  0x58a8	paddw  	mm3, qword ptr [ecx - 0x72]
  0x58ac	aam    	0xda
  === BLOCK LINK ===
    0x58ae
=== CODE BLOCK END ===

=== CODE BLOCK ADDRESS 0x58ae ===
  0x58ae	xor    	eax, 0x8c394ce4
  0x58b3	inc    	ebp
  0x58b4	inc    	ebx
  0x58b5	pop    	es
  0x58b6	call   	0x2684949e
  === BLOCK LINK ===
    0x58bb
=== CODE BLOCK END ===

=== CODE BLOCK ADDRESS 0x58bb ===
  0x58bb	adc    	al, 0x3d
  0x58bd	scasb  	al, byte ptr es:[edi]
  0x58be	leave  	
  0x58bf	cmc    	
  0x58c0	xchg   	eax, esi
  === BLOCK LINK ===
    0x58c1
=== CODE BLOCK END ===

=== CODE BLOCK ADDRESS 0x58c1 ===
  0x58c1	sub    	dword ptr [edi - 0x69], -0x38
  0x58c5	test   	dword ptr [edi + 0x50], 0x645c97e5
  0x58cc	loop   	0x58e6
  === BLOCK LINK ===
    0x58ce
=== CODE BLOCK END ===

=== CODE BLOCK ADDRESS 0x58ce ===
  0x58ce	lahf   	
  0x58cf	inc    	ebp
  0x58d0	fdivrp  	st(4)
  0x58d2	imul   	ebp, dword ptr [edx], 0x2b
  0x58d5	adc    	al, byte ptr [edi - 0x53]
  === BLOCK LINK ===
    0x58d8
=== CODE BLOCK END ===

=== CODE BLOCK ADDRESS 0x58d8 ===
  0x58d8	ret    	
  0x58d9	sub    	esi, ebp
  0x58dc	ret    	
  0x58dd	or     	byte ptr [0x104a95d], al
  0x58e3	add    	byte ptr [eax], al
  === BLOCK LINK ===
    0x58e5
=== CODE BLOCK END ===

=== CODE BLOCK ADDRESS 0x10020d9 ===
=== CODE BLOCK END ===

=== CODE BLOCK ADDRESS 0x2119 ===
=== CODE BLOCK END ===

=== CODE BLOCK ADDRESS 0x58e5 ===
  0x58e5	add    	byte ptr [0xe020200], al
  0x58eb	push   	cs
  0x58ec	add    	al, 0
  0x58ee	add    	dword ptr [ecx], eax
  0x58f0	push   	cs
  === BLOCK LINK ===
    0x58f1
=== CODE BLOCK END ===

=== CODE BLOCK ADDRESS 0x58f1 ===
  0x58f1	add    	eax, 0xe0e0200
  0x58f6	push   	cs
  0x58f7	add    	eax, 0x1c0e0200
  0x58fc	sbb    	al, 5
  0x58fe	add    	byte ptr [ecx], al
  === BLOCK LINK ===
    0x5900
=== CODE BLOCK END ===

=== CODE BLOCK ADDRESS 0x5900 ===
  0x5900	push   	cs
  0x5901	sbb    	eax, 0x6070c1c
  0x5906	add    	al, byte ptr [edx]
  0x5908	adc    	bl, byte ptr [ecx + 0x12]
  0x590b	pop    	ecx
  === BLOCK LINK ===
    0x590c
=== CODE BLOCK END ===

=== CODE BLOCK ADDRESS 0x590c ===
  0x590c	adc    	bl, byte ptr [ecx + 0x1d]
  0x590f	sbb    	al, 3
  0x5911	push   	es
  0x5912	adc    	dword ptr [ebp + 4], ebx
  0x5915	and    	byte ptr [eax], al
  === BLOCK LINK ===
    0x5917
=== CODE BLOCK END ===

=== CODE BLOCK ADDRESS 0x5917 ===
  0x5917	adc    	ah, byte ptr [ecx + 8]
  0x591a	and    	byte ptr [eax], al
  0x591c	adc    	eax, 0x12016512
  0x5921	imul   	eax, dword ptr [esi], 0x1651215
  0x5927	adc    	ch, byte ptr [ecx + 4]
  === BLOCK LINK ===
    0x592a
=== CODE BLOCK END ===

=== CODE BLOCK ADDRESS 0x592a ===
  0x592a	and    	byte ptr [eax], al
  0x592c	adc    	eax, dword ptr [eax]
  0x592e	add    	al, 0x20
  0x5930	add    	byte ptr [ecx], dl
  0x5932	pop    	ebp
  === BLOCK LINK ===
    0x5933
=== CODE BLOCK END ===

=== CODE BLOCK ADDRESS 0x5933 ===
  0x5933	pop    	es
  0x5934	add    	byte ptr [edx], al
  0x5936	add    	dl, byte ptr [ecx]
  0x5938	pop    	ebp
  0x5939	adc    	dword ptr [ebp + 3], ebx
  === BLOCK LINK ===
    0x593c
=== CODE BLOCK END ===

=== CODE BLOCK ADDRESS 0x593c ===
  0x593c	and    	byte ptr [eax], al
  0x593e	add    	al, byte ptr [ebx]
  0x5940	and    	byte ptr [eax], al
  0x5942	push   	cs
  0x5943	push   	es
  === BLOCK LINK ===
    0x5944
=== CODE BLOCK END ===

=== CODE BLOCK ADDRESS 0x5944 ===
  0x5944	add    	byte ptr [ebx], al
  0x5946	sbb    	al, 0xe
  0x5948	push   	cs
  0x5949	sbb    	al, 6
  0x594b	add    	byte ptr [ecx], al
  === BLOCK LINK ===
    0x594d
=== CODE BLOCK END ===

=== CODE BLOCK ADDRESS 0x594d ===
  0x594d	adc    	dword ptr [eax + 0x40d81], eax
  0x5953	add    	byte ptr [ecx], dl
  0x5955	pop    	ebp
  0x5956	add    	al, 0
  0x5958	add    	dword ptr [ecx], eax
  === BLOCK LINK ===
    0x595a
=== CODE BLOCK END ===

=== CODE BLOCK ADDRESS 0x595a ===
  0x595a	or     	byte ptr [ecx], cl
  0x595c	add    	byte ptr [edx], al
  0x595e	adc    	dword ptr [eax + 0x115d1181], eax
  0x5964	pop    	ebp
  0x5965	or     	dword ptr [eax], eax
  === BLOCK LINK ===
    0x5967
=== CODE BLOCK END ===

=== CODE BLOCK ADDRESS 0x5967 ===
  0x5967	add    	al, byte ptr [edx]
  0x5969	adc    	dword ptr [eax - 0x7e7fee7f], eax
  0x596f	pop    	ss
  0x5970	pop    	es
  0x5971	or     	dword ptr [edx], edx
  === BLOCK LINK ===
    0x5973
=== CODE BLOCK END ===

=== CODE BLOCK ADDRESS 0x5973 ===
  0x5973	imul   	edx, dword ptr [ecx], 0x1261125d
  0x5979	imul   	ecx, dword ptr [eax], 0x8180111c
  0x597f	adc    	dword ptr [ebp + 0x15], ebx
  0x5982	adc    	ah, byte ptr [ebp + 1]
  0x5985	adc    	ch, byte ptr [ecx + 2]
  === BLOCK LINK ===
    0x5988
=== CODE BLOCK END ===

=== CODE BLOCK ADDRESS 0x5988 ===
  0x5988	push   	es
  0x5989	or     	byte ptr [edi], al
  0x598b	add    	byte ptr [ecx], al
  0x598d	adc    	al, byte ptr [eax + 0x709128d]
  0x5993	and    	byte ptr [edx], al
  === BLOCK LINK ===
    0x5995
=== CODE BLOCK END ===

=== CODE BLOCK ADDRESS 0x5995 ===
  0x5995	add    	dword ptr [esi], ecx
  0x5997	adc    	dword ptr [eax + 0x2070791], eax
  0x599d	adc    	cl, byte ptr [ecx]
  0x599f	adc    	al, byte ptr [eax + 0x220078d]
  0x59a5	add    	cl, byte ptr [esi]
  === BLOCK LINK ===
    0x59a7
=== CODE BLOCK END ===

=== CODE BLOCK ADDRESS 0x59a7 ===
  0x59a7	adc    	dword ptr [eax + 0x1200495], eax
  0x59ad	or     	byte ptr [ebx], al
  0x59af	add    	eax, 0x80e0220
  0x59b4	or     	byte ptr [eax], al
  0x59b7	add    	dword ptr [esi], ecx
  === BLOCK LINK ===
    0x59b9
=== CODE BLOCK END ===

=== CODE BLOCK ADDRESS 0x59b9 ===
  0x59b9	or     	byte ptr [edi], al
  0x59bb	and    	byte ptr [edx], al
  0x59bd	add    	dword ptr [edx], edx
  0x59bf	sbb    	byte ptr [ecx + 0x307050e], 0xe
  0x59c6	push   	cs
  === BLOCK LINK ===
    0x59c7
=== CODE BLOCK END ===

=== CODE BLOCK ADDRESS 0x59c7 ===
  0x59c7	or     	byte ptr [0x10001], al
  0x59cd	add    	byte ptr [edi + 1], al
  0x59d0	add    	byte ptr [edx + 0x64], al
  0x59d3	cmp    	bl, byte ptr [ebx + esi*2 + 0x70]
  0x59d7	xor    	dword ptr [ecx + 0x66], esi
  === BLOCK LINK ===
    0x59da
=== CODE BLOCK END ===

=== CODE BLOCK ADDRESS 0x59da ===
  0x59da	jo     	0x5a53
  === BLOCK LINK ===
    0x59de
=== CODE BLOCK END ===

=== CODE BLOCK ADDRESS 0x59de ===
  0x59de	bound  	ebp, qword ptr [ecx + ebp*2 + 0x63]
  0x59e2	popal  	
  0x59e4	insd   	dword ptr es:[edi], dx
  0x59e5	xor    	al, 0x66
  0x59e9	jb     	0x5a50
  === BLOCK LINK ===
    0x59eb
=== CODE BLOCK END ===

=== CODE BLOCK ADDRESS 0x59eb ===
  0x59eb	pop    	esp
  0x59ec	imul   	ebp, dword ptr [esi + 0x74], 0x616e7265
  0x59f3	insb   	byte ptr es:[edi], dx
  0x59f4	pop    	esp
  0x59f5	jae    	0x5a6b
  === BLOCK LINK ===
    0x59f7
=== CODE BLOCK END ===

=== CODE BLOCK ADDRESS 0x59f7 ===
  0x59f7	jb     	0x5a68
  === BLOCK LINK ===
    0x59f9
=== CODE BLOCK END ===

=== CODE BLOCK ADDRESS 0x59f9 ===
  0x59f9	outsb  	dx, byte ptr [esi]
  0x59fa	outsb  	dx, byte ptr [si]
  0x59fc	popal  	
  0x59fd	insd   	dword ptr es:[edi], dx
  0x59fe	imul   	esp, dword ptr gs:[ebp + 0x79], 0x73
  === BLOCK LINK ===
    0x5a03
=== CODE BLOCK END ===

=== CODE BLOCK ADDRESS 0x5a03 ===
  0x5a03	pop    	esp
  0x5a04	popaw  	
  0x5a06	imul   	esp, dword ptr [ebp + 0x5c], 0x77
  0x5a0a	imul   	ebp, dword ptr [esi + 0x64], 0x2e73776f
  0x5a11	jae    	0x5a81
  === BLOCK LINK ===
    0x5a13
=== CODE BLOCK END ===

=== CODE BLOCK ADDRESS 0x5a13 ===
  0x5a13	imul   	eax, dword ptr [eax], 0
  0x5a16	adc    	eax, dword ptr [ecx]
  0x5a18	add    	byte ptr [esi], cl
  0x5a1a	xor    	byte ptr cs:[esi], ch
  0x5a1e	xor    	byte ptr ss:[eax], dh
  === BLOCK LINK ===
    0x5a21
=== CODE BLOCK END ===

=== CODE BLOCK ADDRESS 0x5a21 ===
  0x5a21	xor    	dword ptr [esi], ebp
  0x5a23	xor    	dword ptr [edi], esi
  0x5a25	xor    	byte ptr [ecx], dh
  0x5a27	xor    	al, 0
  0x5a29	add    	byte ptr [edx], bl
  === BLOCK LINK ===
    0x5a2b
=== CODE BLOCK END ===

=== CODE BLOCK ADDRESS 0x5a2b ===
  0x5a2b	add    	dword ptr [eax], eax
  0x5a2d	adc    	eax, 0x7263694d
  0x5a32	outsd  	dx, dword ptr [esi]
  0x5a33	jae    	0x5aa4
  === BLOCK LINK ===
    0x5a35
=== CODE BLOCK END ===

=== CODE BLOCK ADDRESS 0x5a35 ===
  0x5a35	je     	0x5a58
  === BLOCK LINK ===
    0x5a38
=== CODE BLOCK END ===

=== CODE BLOCK ADDRESS 0x5a38 ===
  0x5a38	inc    	ebx
  0x5a39	outsd  	dx, dword ptr [esi]
  0x5a3a	jb     	0x5aac
  === BLOCK LINK ===
    0x5a3c
=== CODE BLOCK END ===

=== CODE BLOCK ADDRESS 0x5a3c ===
  0x5a3c	outsd  	dx, dword ptr [esi]
  0x5a3d	jb     	0x5aa0
  === BLOCK LINK ===
    0x5a3f
=== CODE BLOCK END ===

=== CODE BLOCK ADDRESS 0x5a3f ===
  0x5a3f	je     	0x5aaa
  === BLOCK LINK ===
    0x5a41
=== CODE BLOCK END ===

=== CODE BLOCK ADDRESS 0x5a41 ===
  0x5a41	outsd  	dx, dword ptr [esi]
  0x5a42	outsb  	dx, byte ptr [esi]
  0x5a43	add    	byte ptr [eax], al
  0x5a45	add    	dword ptr ds:[eax], eax
  0x5a48	cmp    	dword ptr [ebx + 0x6f], eax
  === BLOCK LINK ===
    0x5a4b
=== CODE BLOCK END ===

=== CODE BLOCK ADDRESS 0x5a4b ===
  0x5a4b	jo     	0x5ac6
  === BLOCK LINK ===
    0x5a4d
=== CODE BLOCK END ===

=== CODE BLOCK ADDRESS 0x5a4d ===
  0x5a4d	jb     	0x5ab8
  === BLOCK LINK ===
    0x5a4f
=== CODE BLOCK END ===

=== CODE BLOCK ADDRESS 0x5a4f ===
  0x5a4f	push   	0x63282074
  0x5a55	sub    	dword ptr [eax], esp
  0x5a57	dec    	ebp
  0x5a58	imul   	esp, dword ptr [ebx + 0x72], 0x666f736f
  0x5a5f	je     	0x5a81
  === BLOCK LINK ===
    0x5a61
=== CODE BLOCK END ===

=== CODE BLOCK ADDRESS 0x5a61 ===
  0x5a61	inc    	ebx
  0x5a62	outsd  	dx, dword ptr [esi]
  0x5a63	jb     	0x5ad5
  === BLOCK LINK ===
    0x5a65
=== CODE BLOCK END ===

=== CODE BLOCK ADDRESS 0x5a65 ===
  0x5a65	outsd  	dx, dword ptr [esi]
  0x5a66	jb     	0x5ac9
  === BLOCK LINK ===
    0x5a68
=== CODE BLOCK END ===

=== CODE BLOCK ADDRESS 0x5a68 ===
  0x5a68	je     	0x5ad3
  === BLOCK LINK ===
    0x5a6a
=== CODE BLOCK END ===

=== CODE BLOCK ADDRESS 0x5a6a ===
  0x5a6a	outsd  	dx, dword ptr [esi]
  0x5a6b	outsb  	dx, byte ptr [esi]
  0x5a6c	and    	byte ptr cs:[ecx + 0x6c], al
  0x5a70	insb   	byte ptr es:[edi], dx
  0x5a71	and    	byte ptr [edx + 0x69], dh
  === BLOCK LINK ===
    0x5a74
=== CODE BLOCK END ===

=== CODE BLOCK ADDRESS 0x5a74 ===
  0x5a74	push   	0x72207374
  0x5a7a	jae    	0x5ae2
  === BLOCK LINK ===
    0x5a7d
=== CODE BLOCK END ===

=== CODE BLOCK ADDRESS 0x5a7d ===
  0x5a7d	jb     	0x5af5
  === BLOCK LINK ===
    0x5a7f
=== CODE BLOCK END ===

=== CODE BLOCK ADDRESS 0x5a7f ===
  0x5a7f	add    	byte ptr cs:[eax], al
  0x5a84	das    	
  0x5a85	add    	dword ptr [eax], eax
  0x5a87	sub    	cl, byte ptr [ebp + 0x69]
  0x5a8a	arpl   	word ptr [edx + 0x6f], si
  === BLOCK LINK ===
    0x5a8d
=== CODE BLOCK END ===

=== CODE BLOCK ADDRESS 0x5a8d ===
  0x5a8d	jae    	0x5afe
  === BLOCK LINK ===
    0x5a8f
=== CODE BLOCK END ===

=== CODE BLOCK ADDRESS 0x5a8f ===
  0x5a8f	je     	0x5ab2
  === BLOCK LINK ===
    0x5a92
=== CODE BLOCK END ===

=== CODE BLOCK ADDRESS 0x5a92 ===
  0x5a92	sub    	byte ptr [edx + 0x29], dl
  0x5a95	and    	byte ptr [edi + 0x69], dl
  0x5a98	outsb  	dx, byte ptr [esi]
  0x5a99	outsd  	dx, dword ptr fs:[esi]
  0x5a9b	ja     	0x5b10
  === BLOCK LINK ===
    0x5a9d
=== CODE BLOCK END ===

=== CODE BLOCK ADDRESS 0x5a9d ===
  0x5a9d	and    	byte ptr [eax], ch
  0x5a9f	push   	edx
  0x5aa0	sub    	dword ptr [eax], esp
  0x5aa2	dec    	edi
  0x5aa3	jo     	0x5b0a
  === BLOCK LINK ===
    0x5aa5
=== CODE BLOCK END ===

=== CODE BLOCK ADDRESS 0x5aa5 ===
  0x5aa5	jb     	0x5b08
  === BLOCK LINK ===
    0x5aa7
=== CODE BLOCK END ===

=== CODE BLOCK ADDRESS 0x5aa7 ===
  0x5aa7	je     	0x5b12
  === BLOCK LINK ===
    0x5aa9
=== CODE BLOCK END ===

=== CODE BLOCK ADDRESS 0x5aa9 ===
  0x5aa9	outsb  	dx, byte ptr [esi]
  0x5aaa	and    	byte ptr [bp + di + 0x79], dl
  0x5aae	jae    	0x5b24
  === BLOCK LINK ===
    0x5ab0
=== CODE BLOCK END ===

=== CODE BLOCK ADDRESS 0x5ab0 ===
  0x5ab0	insd   	dword ptr es:[edi], dx
  0x5ab2	add    	byte ptr [eax], al
  0x5ab4	add    	eax, 1
  0x5ab9	add    	byte ptr [eax], cl
  0x5abb	add    	dword ptr [eax], eax
  === BLOCK LINK ===
    0x5abd
=== CODE BLOCK END ===

=== CODE BLOCK ADDRESS 0x5abd ===
  0x5abd	add    	al, byte ptr [eax]
  0x5abf	add    	byte ptr [eax], al
  0x5ac1	add    	byte ptr [eax], al
  0x5ac3	or     	byte ptr [ecx], al
  0x5ac5	add    	byte ptr [eax], cl
  === BLOCK LINK ===
    0x5ac7
=== CODE BLOCK END ===

=== CODE BLOCK ADDRESS 0x5ac7 ===
  0x5ac7	add    	byte ptr [eax], al
  0x5ac9	add    	byte ptr [eax], al
  0x5acb	add    	byte ptr [esi], bl
  0x5acd	add    	dword ptr [eax], eax
  0x5acf	add    	dword ptr [eax], eax
  === BLOCK LINK ===
    0x5ad1
=== CODE BLOCK END ===

=== CODE BLOCK ADDRESS 0x5ad1 ===
  0x5ad1	push   	esp
  0x5ad2	add    	dl, byte ptr [esi]
  0x5ad4	push   	edi
  0x5ad5	jb     	0x5b38
  === BLOCK LINK ===
    0x5ad7
=== CODE BLOCK END ===

=== CODE BLOCK ADDRESS 0x5ad7 ===
  0x5ad7	jo     	0x5b27
  === BLOCK LINK ===
    0x5ad9
=== CODE BLOCK END ===

=== CODE BLOCK ADDRESS 0x5ad9 ===
  0x5ad9	outsd  	dx, dword ptr [esi]
  0x5ada	outsb  	dx, byte ptr [esi]
  0x5adb	inc    	ebp
  0x5adc	js     	0x5b41
  === BLOCK LINK ===
    0x5ade
=== CODE BLOCK END ===

=== CODE BLOCK ADDRESS 0x5ade ===
  0x5ade	jo     	0x5b55
  === BLOCK LINK ===
    0x5ae1
=== CODE BLOCK END ===

=== CODE BLOCK ADDRESS 0x5ae1 ===
  0x5ae1	imul   	ebp, dword ptr [edi + 0x6e], 0x6f726854
  0x5ae8	ja     	0x5b5d
  === BLOCK LINK ===
    0x5aea
=== CODE BLOCK END ===

=== CODE BLOCK ADDRESS 0x5aea ===
  0x5aea	add    	dword ptr [eax - 0x7ffed162], eax
  0x5af0	test   	byte ptr [ebx + 0x79], dl
  0x5af3	jae    	0x5b69
  === BLOCK LINK ===
    0x5af5
=== CODE BLOCK END ===

=== CODE BLOCK ADDRESS 0x5af5 ===
  0x5af5	insd   	dword ptr es:[edi], dx
  0x5af7	push   	ebx
  0x5af9	arpl   	word ptr gs:[ebp + 0x72], si
  0x5afd	imul   	esi, dword ptr [ecx + edi*2 + 0x2e], 0x6d726550
  0x5b05	imul   	esi, dword ptr [ebx + 0x73], 0x736e6f69
  === BLOCK LINK ===
    0x5b0c
=== CODE BLOCK END ===

=== CODE BLOCK ADDRESS 0x5b0c ===
  0x5b0c	push   	ebx
  0x5b0e	arpl   	word ptr gs:[ebp + 0x72], si
  0x5b12	imul   	esi, dword ptr [ecx + edi*2 + 0x50], 0x696d7265
  0x5b1a	jae    	0x5b8f
  === BLOCK LINK ===
    0x5b1c
=== CODE BLOCK END ===

=== CODE BLOCK ADDRESS 0x5b1c ===
  0x5b1c	imul   	ebp, dword ptr [edi + 0x6e], 0x72747441
  0x5b23	imul   	esp, dword ptr [edx + 0x75], 0x202c6574
  0x5b2a	insd   	dword ptr es:[edi], dx
  0x5b2b	jae    	0x5b90
  === BLOCK LINK ===
    0x5b2d
=== CODE BLOCK END ===

=== CODE BLOCK ADDRESS 0x5b2d ===
  0x5b2d	outsd  	dx, dword ptr [esi]
  0x5b2e	jb     	0x5b9c
  === BLOCK LINK ===
    0x5b30
=== CODE BLOCK END ===

=== CODE BLOCK ADDRESS 0x5b30 ===
  0x5b30	imul   	esp, dword ptr [edx + 0x2c], 0x72655620
  0x5b37	jae    	0x5ba2
  === BLOCK LINK ===
    0x5b39
=== CODE BLOCK END ===

=== CODE BLOCK ADDRESS 0x5b39 ===
  0x5b39	outsd  	dx, dword ptr [esi]
  0x5b3a	outsb  	dx, byte ptr [esi]
  0x5b3b	cmp    	eax, 0x2e302e32
  0x5b40	xor    	byte ptr [esi], ch
  0x5b42	xor    	byte ptr [eax], ch
  === BLOCK LINK ===
    0x5b45
=== CODE BLOCK END ===

=== CODE BLOCK ADDRESS 0x5b45 ===
  0x5b45	inc    	ebx
  0x5b46	jne    	0x5bb4
  === BLOCK LINK ===
    0x5b48
=== CODE BLOCK END ===

=== CODE BLOCK ADDRESS 0x5b48 ===
  0x5b48	je     	0x5bbf
  === BLOCK LINK ===
    0x5b4a
=== CODE BLOCK END ===

=== CODE BLOCK ADDRESS 0x5b4a ===
  0x5b4a	jb     	0x5bb1
  === BLOCK LINK ===
    0x5b4c
=== CODE BLOCK END ===

=== CODE BLOCK ADDRESS 0x5b4c ===
  0x5b4c	cmp    	eax, 0x7475656e
  0x5b51	jb     	0x5bb4
  === BLOCK LINK ===
    0x5b53
=== CODE BLOCK END ===

=== CODE BLOCK ADDRESS 0x5b53 ===
  0x5b53	insb   	byte ptr es:[edi], dx
  0x5b54	sub    	al, 0x20
  0x5b56	push   	eax
  0x5b57	jne    	0x5bbb
  === BLOCK LINK ===
    0x5b59
=== CODE BLOCK END ===

=== CODE BLOCK ADDRESS 0x5b59 ===
  0x5b59	insb   	byte ptr es:[edi], dx
  0x5b5a	imul   	esp, dword ptr [ebx + 0x4b], 0x6f547965
  0x5b61	imul   	esp, dword ptr [ebp + 0x6e], 0x3d
  0x5b65	bound  	esi, qword ptr [edi]
  0x5b67	aaa    	
  === BLOCK LINK ===
    0x5b68
=== CODE BLOCK END ===

=== CODE BLOCK ADDRESS 0x5b68 ===
  0x5b68	popal  	
  0x5b69	xor    	eax, 0x31363563
  0x5b6e	cmp    	dword ptr [ebx], esi
  0x5b70	xor    	al, 0x65
  0x5b72	xor    	byte ptr [eax], bh
  === BLOCK LINK ===
    0x5b74
=== CODE BLOCK END ===

=== CODE BLOCK ADDRESS 0x5b74 ===
  0x5b74	cmp    	dword ptr [0x10025401], edx
  0x5b7a	push   	ebx
  0x5b7b	imul   	ebp, dword ptr [ecx + 0x70], 0x56
  0x5b7f	jb     	0x5beb
  === BLOCK LINK ===
    0x5b82
=== CODE BLOCK END ===

=== CODE BLOCK ADDRESS 0x5b82 ===
  0x5b82	imul   	sp, word ptr [ebx + 0x61], 0x6974
  0x5b88	outsd  	dx, dword ptr [esi]
  0x5b89	outsb  	dx, byte ptr [esi]
  0x5b8a	add    	dword ptr [eax], eax
  0x5b8c	add    	byte ptr [eax], al
  === BLOCK LINK ===
    0x5b8e
=== CODE BLOCK END ===

=== CODE BLOCK ADDRESS 0x5b8e ===
  0x5b8e	add    	byte ptr [eax], al
  0x5b90	test   	ah, ch
  0x5b92	xor    	edx, dword ptr [ebx]
  0x5b95	add    	byte ptr [eax], al
  0x5b97	add    	byte ptr [edx], al
  === BLOCK LINK ===
    0x5b99
=== CODE BLOCK END ===

=== CODE BLOCK ADDRESS 0x5b99 ===
  0x5b99	add    	byte ptr [eax], al
  0x5b9b	add    	byte ptr [0xa8000000], ah
  0x5ba1	pop    	ebx
  0x5ba2	add    	byte ptr [eax], al
  0x5ba4	test   	al, 0x4b
  === BLOCK LINK ===
    0x5ba6
=== CODE BLOCK END ===

=== CODE BLOCK ADDRESS 0x5ba6 ===
  0x5ba6	add    	byte ptr [eax], al
  0x5ba8	push   	edx
  0x5ba9	push   	ebx
  0x5baa	inc    	esp
  0x5bab	push   	ebx
  === BLOCK LINK ===
    0x5bac
=== CODE BLOCK END ===

=== CODE BLOCK ADDRESS 0x5bac ===
  0x5bac	add    	dword ptr [edx], edi
  0x5bae	js     	0x5b6a
  === BLOCK LINK ===
    0x5bb0
=== CODE BLOCK END ===

=== CODE BLOCK ADDRESS 0x5bb0 ===
  0x5bb0	push   	edi
  0x5bb1	dec    	esi
  0x5bb3	dec    	ebp
  0x5bb4	lodsb  	al, byte ptr [esi]
  0x5bb5	xchg   	eax, edi
  === BLOCK LINK ===
    0x5bb6
=== CODE BLOCK END ===

=== CODE BLOCK ADDRESS 0x5bb6 ===
  0x5bb6	lodsd  	eax, dword ptr [esi]
  0x5bb7	adc    	byte ptr [ecx], 9
  0x5bba	sbb    	byte ptr [esi + 1], al
  0x5bbd	add    	byte ptr [eax], al
  0x5bbf	add    	byte ptr [ebx + esi*2 + 0x57], dl
  === BLOCK LINK ===
    0x5bc3
=== CODE BLOCK END ===

=== CODE BLOCK ADDRESS 0x5bc3 ===
  0x5bc3	jo     	0x5c2b
  === BLOCK LINK ===
    0x5bc5
=== CODE BLOCK END ===

=== CODE BLOCK ADDRESS 0x5bc5 ===
  0x5bc5	push   	edi
  0x5bc6	jb     	0x5c38
  === BLOCK LINK ===
    0x5bc8
=== CODE BLOCK END ===

=== CODE BLOCK ADDRESS 0x5bc8 ===
  0x5bc8	jo     	0x5c2f
  === BLOCK LINK ===
    0x5bcb
=== CODE BLOCK END ===

=== CODE BLOCK ADDRESS 0x5bcb ===
  0x5bcb	bound  	eax, qword ptr [eax]
  0x5bcd	add    	byte ptr [eax], al
  0x5bcf	add    	byte ptr [eax], al
  0x5bd1	add    	byte ptr [eax], al
  0x5bd3	add    	byte ptr [eax], al
  === BLOCK LINK ===
    0x5bd5
=== CODE BLOCK END ===

=== CODE BLOCK ADDRESS 0x5bd5 ===
  0x5bd5	add    	byte ptr [eax], al
  0x5bd7	add    	byte ptr [eax], al
  0x5bd9	add    	byte ptr [eax], al
  0x5bdb	add    	byte ptr [eax], al
  0x5bdd	add    	byte ptr [eax], al
  === BLOCK LINK ===
    0x5bdf
=== CODE BLOCK END ===

=== CODE BLOCK ADDRESS 0x5bdf ===
  0x5bdf	add    	byte ptr [eax], al
  0x5be1	add    	byte ptr [eax], al
  0x5be3	add    	byte ptr [eax], al
  0x5be5	add    	byte ptr [eax], al
  0x5be7	add    	byte ptr [eax], al
  === BLOCK LINK ===
    0x5be9
=== CODE BLOCK END ===

=== CODE BLOCK ADDRESS 0x5be9 ===
  0x5be9	add    	byte ptr [eax], al
  0x5beb	add    	byte ptr [eax], al
  0x5bed	add    	byte ptr [eax], al
  0x5bef	add    	byte ptr [eax], al
  0x5bf1	add    	byte ptr [eax], al
  === BLOCK LINK ===
    0x5bf3
=== CODE BLOCK END ===

=== CODE BLOCK ADDRESS 0x5bf3 ===
  0x5bf3	add    	byte ptr [eax], al
  0x5bf5	add    	byte ptr [eax], al
  0x5bf7	add    	byte ptr [eax], al
  0x5bf9	add    	byte ptr [eax], al
  0x5bfb	add    	byte ptr [eax], al
  === BLOCK LINK ===
    0x5bfd
=== CODE BLOCK END ===

=== CODE BLOCK ADDRESS 0x5bfd ===
  0x5bfd	add    	byte ptr [eax], al
  0x5bff	add    	byte ptr [eax], al
  0x5c01	add    	byte ptr [eax], al
  0x5c03	add    	byte ptr [eax], al
  0x5c05	add    	byte ptr [eax], al
  === BLOCK LINK ===
    0x5c07
=== CODE BLOCK END ===

=== CODE BLOCK ADDRESS 0x5c07 ===
  0x5c07	add    	byte ptr [eax], dh
  0x5c09	pop    	esp
  0x5c0a	add    	byte ptr [eax], al
  0x5c0c	add    	byte ptr [eax], al
  0x5c0e	add    	byte ptr [eax], al
  === BLOCK LINK ===
    0x5c10
=== CODE BLOCK END ===

=== CODE BLOCK ADDRESS 0x5c10 ===
  0x5c10	add    	byte ptr [eax], al
  0x5c12	add    	byte ptr [eax], al
  0x5c14	dec    	esi
  0x5c15	pop    	esp
  0x5c16	add    	byte ptr [eax], al
  === BLOCK LINK ===
    0x5c18
=== CODE BLOCK END ===

=== CODE BLOCK ADDRESS 0x5c18 ===
  0x5c18	add    	byte ptr [eax], ah
  0x5c1a	add    	byte ptr [eax], al
  0x5c1c	add    	byte ptr [eax], al
  0x5c1e	add    	byte ptr [eax], al
  0x5c20	add    	byte ptr [eax], al
  === BLOCK LINK ===
    0x5c22
=== CODE BLOCK END ===

=== CODE BLOCK ADDRESS 0x5c22 ===
  0x5c22	add    	byte ptr [eax], al
  0x5c24	add    	byte ptr [eax], al
  0x5c26	add    	byte ptr [eax], al
  0x5c28	add    	byte ptr [eax], al
  0x5c2a	add    	byte ptr [eax], al
  === BLOCK LINK ===
    0x5c2c
=== CODE BLOCK END ===

=== CODE BLOCK ADDRESS 0x5c2c ===
  0x5c2c	add    	byte ptr [eax], al
  0x5c2e	add    	byte ptr [eax], al
  0x5c30	inc    	eax
  0x5c31	pop    	esp
  0x5c32	add    	byte ptr [eax], al
  === BLOCK LINK ===
    0x5c34
=== CODE BLOCK END ===

=== CODE BLOCK ADDRESS 0x5c34 ===
  0x5c34	add    	byte ptr [eax], al
  0x5c36	add    	byte ptr [eax], al
  0x5c38	add    	byte ptr [eax], al
  0x5c3a	add    	byte ptr [eax], al
  0x5c3c	add    	byte ptr [eax], al
  === BLOCK LINK ===
    0x5c3e
=== CODE BLOCK END ===

=== CODE BLOCK ADDRESS 0x5c3e ===
  0x5c3e	add    	byte ptr [eax], al
  0x5c40	add    	byte ptr [eax], al
  0x5c42	pop    	edi
  0x5c43	inc    	ebx
  0x5c44	outsd  	dx, dword ptr [esi]
  === BLOCK LINK ===
    0x5c45
=== CODE BLOCK END ===

=== CODE BLOCK ADDRESS 0x5c45 ===
  0x5c45	jb     	0x5c8c
  === BLOCK LINK ===
    0x5c47
=== CODE BLOCK END ===

=== CODE BLOCK ADDRESS 0x5c47 ===
  0x5c47	js     	0x5cae
  === BLOCK LINK ===
    0x5c49
=== CODE BLOCK END ===

=== CODE BLOCK ADDRESS 0x5c49 ===
  0x5c49	dec    	ebp
  0x5c4a	popal  	
  0x5c4b	imul   	ebp, dword ptr [esi], 0x6f63736d
  0x5c52	jb     	0x5cb9
  === BLOCK LINK ===
    0x5c54
=== CODE BLOCK END ===

=== CODE BLOCK ADDRESS 0x5c54 ===
  0x5c54	insb   	byte ptr es:[edi], dx
  0x5c58	insb   	byte ptr es:[edi], dx
  0x5c59	add    	byte ptr [eax], al
  0x5c5b	add    	byte ptr [eax], al
  0x5c5d	add    	bh, bh
  === BLOCK LINK ===
    0x5c5f
=== CODE BLOCK END ===

=== CODE BLOCK ADDRESS 0x5c5f ===
  0x5c5f	and    	eax, 0x402000
  0x5c64	add    	byte ptr [eax], al
  0x5c66	add    	byte ptr [eax], al
  0x5c68	add    	byte ptr [eax], al
  0x5c6a	add    	byte ptr [eax], al
  === BLOCK LINK ===
    0x5c6c
=== CODE BLOCK END ===

=== CODE BLOCK ADDRESS 0x5c6c ===
  0x5c6c	add    	byte ptr [eax], al
  0x5c6e	add    	byte ptr [eax], al
  0x5c70	add    	byte ptr [eax], al
  0x5c72	add    	byte ptr [eax], al
  0x5c74	add    	byte ptr [eax], al
  === BLOCK LINK ===
    0x5c76
=== CODE BLOCK END ===

=== CODE BLOCK ADDRESS 0x5c76 ===
  0x5c76	add    	byte ptr [eax], al
  0x5c78	add    	byte ptr [eax], al
  0x5c7a	add    	byte ptr [eax], al
  0x5c7c	add    	byte ptr [eax], al
  0x5c7e	add    	byte ptr [eax], al
  === BLOCK LINK ===
    0x5c80
=== CODE BLOCK END ===

=== CODE BLOCK ADDRESS 0x5c80 ===
  0x5c80	add    	byte ptr [eax], al
  0x5c82	add    	byte ptr [eax], al
  0x5c84	add    	byte ptr [eax], al
  0x5c86	add    	byte ptr [eax], al
  0x5c88	add    	byte ptr [eax], al
  === BLOCK LINK ===
    0x5c8a
=== CODE BLOCK END ===

=== CODE BLOCK ADDRESS 0x5c8a ===
  0x5c8a	add    	byte ptr [eax], al
  0x5c8c	add    	byte ptr [eax], al
  0x5c8e	add    	byte ptr [eax], al
  0x5c90	add    	byte ptr [eax], al
  0x5c92	add    	byte ptr [eax], al
  === BLOCK LINK ===
    0x5c94
=== CODE BLOCK END ===

=== CODE BLOCK ADDRESS 0x5c94 ===
  0x5c94	add    	byte ptr [eax], al
  0x5c96	add    	byte ptr [eax], al
  0x5c98	add    	byte ptr [eax], al
  0x5c9a	add    	byte ptr [eax], al
  0x5c9c	add    	byte ptr [eax], al
  === BLOCK LINK ===
    0x5c9e
=== CODE BLOCK END ===

=== CODE BLOCK ADDRESS 0x5c9e ===
  0x5c9e	add    	byte ptr [eax], al
  0x5ca0	add    	byte ptr [eax], al
  0x5ca2	add    	byte ptr [eax], al
  0x5ca4	add    	byte ptr [eax], al
  0x5ca6	add    	byte ptr [eax], al
  === BLOCK LINK ===
    0x5ca8
=== CODE BLOCK END ===

=== CODE BLOCK ADDRESS 0x5ca8 ===
  0x5ca8	add    	byte ptr [eax], al
  0x5caa	add    	byte ptr [eax], al
  0x5cac	add    	byte ptr [eax], al
  0x5cae	add    	byte ptr [eax], al
  0x5cb0	add    	byte ptr [eax], al
  === BLOCK LINK ===
    0x5cb2
=== CODE BLOCK END ===

=== CODE BLOCK ADDRESS 0x5cb2 ===
  0x5cb2	add    	byte ptr [eax], al
  0x5cb4	add    	byte ptr [eax], al
  0x5cb6	add    	byte ptr [eax], al
  0x5cb8	add    	byte ptr [eax], al
  0x5cba	add    	byte ptr [eax], al
  === BLOCK LINK ===
    0x5cbc
=== CODE BLOCK END ===

=== CODE BLOCK ADDRESS 0x5cbc ===
  0x5cbc	add    	byte ptr [eax], al
  0x5cbe	add    	byte ptr [eax], al
  0x5cc0	add    	byte ptr [eax], al
  0x5cc2	add    	byte ptr [eax], al
  0x5cc4	add    	byte ptr [eax], al
  === BLOCK LINK ===
    0x5cc6
=== CODE BLOCK END ===

=== CODE BLOCK ADDRESS 0x5cc6 ===
  0x5cc6	add    	byte ptr [eax], al
  0x5cc8	add    	byte ptr [eax], al
  0x5cca	add    	byte ptr [eax], al
  0x5ccc	add    	byte ptr [eax], al
  0x5cce	add    	byte ptr [eax], al
  === BLOCK LINK ===
    0x5cd0
=== CODE BLOCK END ===

=== CODE BLOCK ADDRESS 0x5cd0 ===
  0x5cd0	add    	byte ptr [eax], al
  0x5cd2	add    	byte ptr [eax], al
  0x5cd4	add    	byte ptr [eax], al
  0x5cd6	add    	byte ptr [eax], al
  0x5cd8	add    	byte ptr [eax], al
  === BLOCK LINK ===
    0x5cda
=== CODE BLOCK END ===

=== CODE BLOCK ADDRESS 0x5cda ===
  0x5cda	add    	byte ptr [eax], al
  0x5cdc	add    	byte ptr [eax], al
  0x5cde	add    	byte ptr [eax], al
  0x5ce0	add    	byte ptr [eax], al
  0x5ce2	add    	byte ptr [eax], al
  === BLOCK LINK ===
    0x5ce4
=== CODE BLOCK END ===

=== CODE BLOCK ADDRESS 0x5ce4 ===
  0x5ce4	add    	byte ptr [eax], al
  0x5ce6	add    	byte ptr [eax], al
  0x5ce8	add    	byte ptr [eax], al
  0x5cea	add    	byte ptr [eax], al
  0x5cec	add    	byte ptr [eax], al
  === BLOCK LINK ===
    0x5cee
=== CODE BLOCK END ===

=== CODE BLOCK ADDRESS 0x5cee ===
  0x5cee	add    	byte ptr [eax], al
  0x5cf0	add    	byte ptr [eax], al
  0x5cf2	add    	byte ptr [eax], al
  0x5cf4	add    	byte ptr [eax], al
  0x5cf6	add    	byte ptr [eax], al
  === BLOCK LINK ===
    0x5cf8
=== CODE BLOCK END ===

=== CODE BLOCK ADDRESS 0x5cf8 ===
  0x5cf8	add    	byte ptr [eax], al
  0x5cfa	add    	byte ptr [eax], al
  0x5cfc	add    	byte ptr [eax], al
  0x5cfe	add    	byte ptr [eax], al
  0x5d00	add    	byte ptr [eax], al
  === BLOCK LINK ===
    0x5d02
=== CODE BLOCK END ===

=== CODE BLOCK ADDRESS 0x5d02 ===
  0x5d02	add    	byte ptr [eax], al
  0x5d04	add    	byte ptr [eax], al
  0x5d06	add    	byte ptr [eax], al
  0x5d08	add    	byte ptr [eax], al
  0x5d0a	add    	byte ptr [eax], al
  === BLOCK LINK ===
    0x5d0c
=== CODE BLOCK END ===

=== CODE BLOCK ADDRESS 0x5d0c ===
  0x5d0c	add    	byte ptr [eax], al
  0x5d0e	add    	byte ptr [eax], al
  0x5d10	add    	byte ptr [eax], al
  0x5d12	add    	byte ptr [eax], al
  0x5d14	add    	byte ptr [eax], al
  === BLOCK LINK ===
    0x5d16
=== CODE BLOCK END ===

=== CODE BLOCK ADDRESS 0x5d16 ===
  0x5d16	add    	byte ptr [eax], al
  0x5d18	add    	byte ptr [eax], al
  0x5d1a	add    	byte ptr [eax], al
  0x5d1c	add    	byte ptr [eax], al
  0x5d1e	add    	byte ptr [eax], al
  === BLOCK LINK ===
    0x5d20
=== CODE BLOCK END ===

=== CODE BLOCK ADDRESS 0x5d20 ===
  0x5d20	add    	byte ptr [eax], al
  0x5d22	add    	byte ptr [eax], al
  0x5d24	add    	byte ptr [eax], al
  0x5d26	add    	byte ptr [eax], al
  0x5d28	add    	byte ptr [eax], al
  === BLOCK LINK ===
    0x5d2a
=== CODE BLOCK END ===

=== CODE BLOCK ADDRESS 0x5d2a ===
  0x5d2a	add    	byte ptr [eax], al
  0x5d2c	add    	byte ptr [eax], al
  0x5d2e	add    	byte ptr [eax], al
  0x5d30	add    	byte ptr [eax], al
  0x5d32	add    	byte ptr [eax], al
  === BLOCK LINK ===
    0x5d34
=== CODE BLOCK END ===

=== CODE BLOCK ADDRESS 0x5d34 ===
  0x5d34	add    	byte ptr [eax], al
  0x5d36	add    	byte ptr [eax], al
  0x5d38	add    	byte ptr [eax], al
  0x5d3a	add    	byte ptr [eax], al
  0x5d3c	add    	byte ptr [eax], al
  === BLOCK LINK ===
    0x5d3e
=== CODE BLOCK END ===

=== CODE BLOCK ADDRESS 0x5d3e ===
  0x5d3e	add    	byte ptr [eax], al
  0x5d40	add    	byte ptr [eax], al
  0x5d42	add    	byte ptr [eax], al
  0x5d44	add    	byte ptr [eax], al
  0x5d46	add    	byte ptr [eax], al
  === BLOCK LINK ===
    0x5d48
=== CODE BLOCK END ===

=== CODE BLOCK ADDRESS 0x5d48 ===
  0x5d48	add    	byte ptr [eax], al
  0x5d4a	add    	byte ptr [eax], al
  0x5d4c	add    	byte ptr [eax], al
  0x5d4e	add    	byte ptr [eax], al
  0x5d50	add    	byte ptr [eax], al
  === BLOCK LINK ===
    0x5d52
=== CODE BLOCK END ===

=== CODE BLOCK ADDRESS 0x5d52 ===
  0x5d52	add    	byte ptr [eax], al
  0x5d54	add    	byte ptr [eax], al
  0x5d56	add    	byte ptr [eax], al
  0x5d58	add    	byte ptr [eax], al
  0x5d5a	add    	byte ptr [eax], al
  === BLOCK LINK ===
    0x5d5c
=== CODE BLOCK END ===

=== CODE BLOCK ADDRESS 0x5d5c ===
  0x5d5c	add    	byte ptr [eax], al
  0x5d5e	add    	byte ptr [eax], al
  0x5d60	add    	byte ptr [eax], al
  0x5d62	add    	byte ptr [eax], al
  0x5d64	add    	byte ptr [eax], al
  === BLOCK LINK ===
    0x5d66
=== CODE BLOCK END ===

=== CODE BLOCK ADDRESS 0x5d66 ===
  0x5d66	add    	byte ptr [eax], al
  0x5d68	add    	byte ptr [eax], al
  0x5d6a	add    	byte ptr [eax], al
  0x5d6c	add    	byte ptr [eax], al
  0x5d6e	add    	byte ptr [eax], al
  === BLOCK LINK ===
    0x5d70
=== CODE BLOCK END ===

=== CODE BLOCK ADDRESS 0x5d70 ===
  0x5d70	add    	byte ptr [eax], al
  0x5d72	add    	byte ptr [eax], al
  0x5d74	add    	byte ptr [eax], al
  0x5d76	add    	byte ptr [eax], al
  0x5d78	add    	byte ptr [eax], al
  === BLOCK LINK ===
    0x5d7a
=== CODE BLOCK END ===

=== CODE BLOCK ADDRESS 0x5d7a ===
  0x5d7a	add    	byte ptr [eax], al
  0x5d7c	add    	byte ptr [eax], al
  0x5d7e	add    	byte ptr [eax], al
  0x5d80	add    	byte ptr [eax], al
  0x5d82	add    	byte ptr [eax], al
  === BLOCK LINK ===
    0x5d84
=== CODE BLOCK END ===

=== CODE BLOCK ADDRESS 0x5d84 ===
  0x5d84	add    	byte ptr [eax], al
  0x5d86	add    	byte ptr [eax], al
  0x5d88	add    	byte ptr [eax], al
  0x5d8a	add    	byte ptr [eax], al
  0x5d8c	add    	byte ptr [eax], al
  === BLOCK LINK ===
    0x5d8e
=== CODE BLOCK END ===

=== CODE BLOCK ADDRESS 0x5d8e ===
  0x5d8e	add    	byte ptr [eax], al
  0x5d90	add    	byte ptr [eax], al
  0x5d92	add    	byte ptr [eax], al
  0x5d94	add    	byte ptr [eax], al
  0x5d96	add    	byte ptr [eax], al
  === BLOCK LINK ===
    0x5d98
=== CODE BLOCK END ===

=== CODE BLOCK ADDRESS 0x5d98 ===
  0x5d98	add    	byte ptr [eax], al
  0x5d9a	add    	byte ptr [eax], al
  0x5d9c	add    	byte ptr [eax], al
  0x5d9e	add    	byte ptr [eax], al
  0x5da0	add    	byte ptr [eax], al
  === BLOCK LINK ===
    0x5da2
=== CODE BLOCK END ===

=== CODE BLOCK ADDRESS 0x5da2 ===
  0x5da2	add    	byte ptr [eax], al
  0x5da4	add    	byte ptr [eax], al
  0x5da6	add    	byte ptr [eax], al
  0x5da8	add    	byte ptr [eax], al
  0x5daa	add    	byte ptr [eax], al
  === BLOCK LINK ===
    0x5dac
=== CODE BLOCK END ===

=== CODE BLOCK ADDRESS 0x5dac ===
  0x5dac	add    	byte ptr [eax], al
  0x5dae	add    	byte ptr [eax], al
  0x5db0	add    	byte ptr [eax], al
  0x5db2	add    	byte ptr [eax], al
  0x5db4	add    	byte ptr [eax], al
  === BLOCK LINK ===
    0x5db6
=== CODE BLOCK END ===

=== CODE BLOCK ADDRESS 0x5db6 ===
  0x5db6	add    	byte ptr [eax], al
  0x5db8	add    	byte ptr [eax], al
  0x5dba	add    	byte ptr [eax], al
  0x5dbc	add    	byte ptr [eax], al
  0x5dbe	add    	byte ptr [eax], al
  === BLOCK LINK ===
    0x5dc0
=== CODE BLOCK END ===

=== CODE BLOCK ADDRESS 0x5dc0 ===
  0x5dc0	add    	byte ptr [eax], al
  0x5dc2	add    	byte ptr [eax], al
  0x5dc4	add    	byte ptr [eax], al
  0x5dc6	add    	byte ptr [eax], al
  0x5dc8	add    	byte ptr [eax], al
  === BLOCK LINK ===
    0x5dca
=== CODE BLOCK END ===

=== CODE BLOCK ADDRESS 0x5dca ===
  0x5dca	add    	byte ptr [eax], al
  0x5dcc	add    	byte ptr [eax], al
  0x5dce	add    	byte ptr [eax], al
  0x5dd0	add    	byte ptr [eax], al
  0x5dd2	add    	byte ptr [eax], al
  === BLOCK LINK ===
    0x5dd4
=== CODE BLOCK END ===

=== CODE BLOCK ADDRESS 0x5dd4 ===
  0x5dd4	add    	byte ptr [eax], al
  0x5dd6	add    	byte ptr [eax], al
  0x5dd8	add    	byte ptr [eax], al
  0x5dda	add    	byte ptr [eax], al
  0x5ddc	add    	byte ptr [eax], al
  === BLOCK LINK ===
    0x5dde
=== CODE BLOCK END ===

=== CODE BLOCK ADDRESS 0x5dde ===
  0x5dde	add    	byte ptr [eax], al
  0x5de0	add    	byte ptr [eax], al
  0x5de2	add    	byte ptr [eax], al
  0x5de4	add    	byte ptr [eax], al
  0x5de6	add    	byte ptr [eax], al
  === BLOCK LINK ===
    0x5de8
=== CODE BLOCK END ===

=== CODE BLOCK ADDRESS 0x5de8 ===
  0x5de8	add    	byte ptr [eax], al
  0x5dea	add    	byte ptr [eax], al
  0x5dec	add    	byte ptr [eax], al
  0x5dee	add    	byte ptr [eax], al
  0x5df0	add    	byte ptr [eax], al
  === BLOCK LINK ===
    0x5df2
=== CODE BLOCK END ===

=== CODE BLOCK ADDRESS 0x5df2 ===
  0x5df2	add    	byte ptr [eax], al
  0x5df4	add    	byte ptr [eax], al
  0x5df6	add    	byte ptr [eax], al
  0x5df8	add    	byte ptr [eax], al
  0x5dfa	add    	byte ptr [eax], al
  === BLOCK LINK ===
    0x5dfc
=== CODE BLOCK END ===

=== CODE BLOCK ADDRESS 0x5dfc ===
  0x5dfc	add    	byte ptr [eax], al
  0x5dfe	add    	byte ptr [eax], al
  0x5e00	add    	byte ptr [eax], al
  0x5e02	add    	byte ptr [eax], al
  0x5e04	add    	byte ptr [eax], al
  === BLOCK LINK ===
    0x5e06
=== CODE BLOCK END ===

=== CODE BLOCK ADDRESS 0x5e06 ===
  0x5e06	add    	byte ptr [eax], al
  0x5e08	add    	byte ptr [eax], al
  0x5e0a	add    	byte ptr [eax], al
  0x5e0c	add    	byte ptr [eax], al
  0x5e0e	add    	byte ptr [eax], al
  === BLOCK LINK ===
    0x5e10
=== CODE BLOCK END ===

=== CODE BLOCK ADDRESS 0x5e10 ===
  0x5e10	add    	byte ptr [eax], al
  0x5e12	add    	byte ptr [eax], al
  0x5e14	add    	byte ptr [eax], al
  0x5e16	add    	byte ptr [eax], al
  0x5e18	add    	byte ptr [eax], al
  === BLOCK LINK ===
    0x5e1a
=== CODE BLOCK END ===

=== CODE BLOCK ADDRESS 0x5e1a ===
  0x5e1a	add    	byte ptr [eax], al
  0x5e1c	add    	byte ptr [eax], al
  0x5e1e	add    	byte ptr [eax], al
  0x5e20	add    	byte ptr [eax], al
  0x5e22	add    	byte ptr [eax], al
  === BLOCK LINK ===
    0x5e24
=== CODE BLOCK END ===

=== CODE BLOCK ADDRESS 0x5e24 ===
  0x5e24	add    	byte ptr [eax], al
  0x5e26	add    	byte ptr [eax], al
  0x5e28	add    	byte ptr [eax], al
  0x5e2a	add    	byte ptr [eax], al
  0x5e2c	add    	byte ptr [eax], al
  === BLOCK LINK ===
    0x5e2e
=== CODE BLOCK END ===

=== CODE BLOCK ADDRESS 0x5e2e ===
  0x5e2e	add    	byte ptr [eax], al
  0x5e30	add    	byte ptr [eax], al
  0x5e32	add    	byte ptr [eax], al
  0x5e34	add    	byte ptr [eax], al
  0x5e36	add    	byte ptr [eax], al
  === BLOCK LINK ===
    0x5e38
=== CODE BLOCK END ===

=== CODE BLOCK ADDRESS 0x5e38 ===
  0x5e38	add    	byte ptr [eax], al
  0x5e3a	add    	byte ptr [eax], al
  0x5e3c	add    	byte ptr [eax], al
  0x5e3e	add    	byte ptr [eax], al
  0x5e40	add    	byte ptr [eax], al
  === BLOCK LINK ===
    0x5e42
=== CODE BLOCK END ===

=== CODE BLOCK ADDRESS 0x5e42 ===
  0x5e42	add    	byte ptr [eax], al
  0x5e44	add    	byte ptr [eax], al
  0x5e46	add    	byte ptr [eax], al
  0x5e48	add    	byte ptr [eax], al
  0x5e4a	add    	byte ptr [eax], al
  === BLOCK LINK ===
    0x5e4c
=== CODE BLOCK END ===

=== CODE BLOCK ADDRESS 0x5e4c ===
  0x5e4c	add    	byte ptr [eax], al
  0x5e4e	add    	byte ptr [eax], al
  0x5e50	add    	byte ptr [eax], al
  0x5e52	add    	byte ptr [eax], al
  0x5e54	add    	byte ptr [eax], al
  === BLOCK LINK ===
    0x5e56
=== CODE BLOCK END ===

=== CODE BLOCK ADDRESS 0x5e56 ===
  0x5e56	add    	byte ptr [eax], al
  0x5e58	add    	byte ptr [eax], al
  0x5e5a	add    	byte ptr [eax], al
  0x5e5c	add    	byte ptr [eax], al
  0x5e5e	add    	byte ptr [eax], al
  === BLOCK LINK ===
    0x5e60
=== CODE BLOCK END ===

=== CODE BLOCK ADDRESS 0x5e60 ===
  0x5e60	add    	byte ptr [eax], al
  0x5e62	add    	byte ptr [eax], al
  0x5e64	add    	byte ptr [eax], al
  0x5e66	add    	byte ptr [eax], al
  0x5e68	add    	byte ptr [eax], al
  === BLOCK LINK ===
    0x5e6a
=== CODE BLOCK END ===

=== CODE BLOCK ADDRESS 0x5e6a ===
  0x5e6a	add    	byte ptr [eax], al
  0x5e6c	add    	byte ptr [eax], al
  0x5e6e	add    	byte ptr [eax], al
  0x5e70	add    	byte ptr [eax], al
  0x5e72	add    	byte ptr [eax], al
  === BLOCK LINK ===
    0x5e74
=== CODE BLOCK END ===

=== CODE BLOCK ADDRESS 0x5e74 ===
  0x5e74	add    	byte ptr [eax], al
  0x5e76	add    	byte ptr [eax], al
  0x5e78	add    	byte ptr [eax], al
  0x5e7a	add    	byte ptr [eax], al
  0x5e7c	add    	byte ptr [eax], al
  === BLOCK LINK ===
    0x5e7e
=== CODE BLOCK END ===

=== CODE BLOCK ADDRESS 0x5e7e ===
  0x5e7e	add    	byte ptr [eax], al
  0x5e80	add    	byte ptr [eax], al
  0x5e82	add    	byte ptr [eax], al
  0x5e84	add    	byte ptr [eax], al
  0x5e86	add    	byte ptr [eax], al
  === BLOCK LINK ===
    0x5e88
=== CODE BLOCK END ===

=== CODE BLOCK ADDRESS 0x5e88 ===
  0x5e88	add    	byte ptr [eax], al
  0x5e8a	add    	byte ptr [eax], al
  0x5e8c	add    	byte ptr [eax], al
  0x5e8e	add    	byte ptr [eax], al
  0x5e90	add    	byte ptr [eax], al
  === BLOCK LINK ===
    0x5e92
=== CODE BLOCK END ===

=== CODE BLOCK ADDRESS 0x5e92 ===
  0x5e92	add    	byte ptr [eax], al
  0x5e94	add    	byte ptr [eax], al
  0x5e96	add    	byte ptr [eax], al
  0x5e98	add    	byte ptr [eax], al
  0x5e9a	add    	byte ptr [eax], al
  === BLOCK LINK ===
    0x5e9c
=== CODE BLOCK END ===

=== CODE BLOCK ADDRESS 0x5e9c ===
  0x5e9c	add    	byte ptr [eax], al
  0x5e9e	add    	byte ptr [eax], al
  0x5ea0	add    	byte ptr [eax], al
  0x5ea2	add    	byte ptr [eax], al
  0x5ea4	add    	byte ptr [eax], al
  === BLOCK LINK ===
    0x5ea6
=== CODE BLOCK END ===

=== CODE BLOCK ADDRESS 0x5ea6 ===
  0x5ea6	add    	byte ptr [eax], al
  0x5ea8	add    	byte ptr [eax], al
  0x5eaa	add    	byte ptr [eax], al
  0x5eac	add    	byte ptr [eax], al
  0x5eae	add    	byte ptr [eax], al
  === BLOCK LINK ===
    0x5eb0
=== CODE BLOCK END ===

=== CODE BLOCK ADDRESS 0x5eb0 ===
  0x5eb0	add    	byte ptr [eax], al
  0x5eb2	add    	byte ptr [eax], al
  0x5eb4	add    	byte ptr [eax], al
  0x5eb6	add    	byte ptr [eax], al
  0x5eb8	add    	byte ptr [eax], al
  === BLOCK LINK ===
    0x5eba
=== CODE BLOCK END ===

=== CODE BLOCK ADDRESS 0x5eba ===
  0x5eba	add    	byte ptr [eax], al
  0x5ebc	add    	byte ptr [eax], al
  0x5ebe	add    	byte ptr [eax], al
  0x5ec0	add    	byte ptr [eax], al
  0x5ec2	add    	byte ptr [eax], al
  === BLOCK LINK ===
    0x5ec4
=== CODE BLOCK END ===

=== CODE BLOCK ADDRESS 0x5ec4 ===
  0x5ec4	add    	byte ptr [eax], al
  0x5ec6	add    	byte ptr [eax], al
  0x5ec8	add    	byte ptr [eax], al
  0x5eca	add    	byte ptr [eax], al
  0x5ecc	add    	byte ptr [eax], al
  === BLOCK LINK ===
    0x5ece
=== CODE BLOCK END ===

=== CODE BLOCK ADDRESS 0x5ece ===
  0x5ece	add    	byte ptr [eax], al
  0x5ed0	add    	byte ptr [eax], al
  0x5ed2	add    	byte ptr [eax], al
  0x5ed4	add    	byte ptr [eax], al
  0x5ed6	add    	byte ptr [eax], al
  === BLOCK LINK ===
    0x5ed8
=== CODE BLOCK END ===

=== CODE BLOCK ADDRESS 0x5ed8 ===
  0x5ed8	add    	byte ptr [eax], al
  0x5eda	add    	byte ptr [eax], al
  0x5edc	add    	byte ptr [eax], al
  0x5ede	add    	byte ptr [eax], al
  0x5ee0	add    	byte ptr [eax], al
  === BLOCK LINK ===
    0x5ee2
=== CODE BLOCK END ===

=== CODE BLOCK ADDRESS 0x5ee2 ===
  0x5ee2	add    	byte ptr [eax], al
  0x5ee4	add    	byte ptr [eax], al
  0x5ee6	add    	byte ptr [eax], al
  0x5ee8	add    	byte ptr [eax], al
  0x5eea	add    	byte ptr [eax], al
  === BLOCK LINK ===
    0x5eec
=== CODE BLOCK END ===

=== CODE BLOCK ADDRESS 0x5eec ===
  0x5eec	add    	byte ptr [eax], al
  0x5eee	add    	byte ptr [eax], al
  0x5ef0	add    	byte ptr [eax], al
  0x5ef2	add    	byte ptr [eax], al
  0x5ef4	add    	byte ptr [eax], al
  === BLOCK LINK ===
    0x5ef6
=== CODE BLOCK END ===

=== CODE BLOCK ADDRESS 0x5ef6 ===
  0x5ef6	add    	byte ptr [eax], al
  0x5ef8	add    	byte ptr [eax], al
  0x5efa	add    	byte ptr [eax], al
  0x5efc	add    	byte ptr [eax], al
  0x5efe	add    	byte ptr [eax], al
  === BLOCK LINK ===
    0x5f00
=== CODE BLOCK END ===

=== CODE BLOCK ADDRESS 0x5f00 ===
  0x5f00	add    	byte ptr [eax], al
  0x5f02	add    	byte ptr [eax], al
  0x5f04	add    	byte ptr [eax], al
  0x5f06	add    	byte ptr [eax], al
  0x5f08	add    	byte ptr [eax], al
  === BLOCK LINK ===
    0x5f0a
=== CODE BLOCK END ===

=== CODE BLOCK ADDRESS 0x5f0a ===
  0x5f0a	add    	byte ptr [eax], al
  0x5f0c	add    	byte ptr [eax], al
  0x5f0e	add    	byte ptr [eax], al
  0x5f10	add    	byte ptr [eax], al
  0x5f12	add    	byte ptr [eax], al
  === BLOCK LINK ===
    0x5f14
=== CODE BLOCK END ===

=== CODE BLOCK ADDRESS 0x5f14 ===
  0x5f14	add    	byte ptr [eax], al
  0x5f16	add    	byte ptr [eax], al
  0x5f18	add    	byte ptr [eax], al
  0x5f1a	add    	byte ptr [eax], al
  0x5f1c	add    	byte ptr [eax], al
  === BLOCK LINK ===
    0x5f1e
=== CODE BLOCK END ===

=== CODE BLOCK ADDRESS 0x5f1e ===
  0x5f1e	add    	byte ptr [eax], al
  0x5f20	add    	byte ptr [eax], al
  0x5f22	add    	byte ptr [eax], al
  0x5f24	add    	byte ptr [eax], al
  0x5f26	add    	byte ptr [eax], al
  === BLOCK LINK ===
    0x5f28
=== CODE BLOCK END ===

=== CODE BLOCK ADDRESS 0x5f28 ===
  0x5f28	add    	byte ptr [eax], al
  0x5f2a	add    	byte ptr [eax], al
  0x5f2c	add    	byte ptr [eax], al
  0x5f2e	add    	byte ptr [eax], al
  0x5f30	add    	byte ptr [eax], al
  === BLOCK LINK ===
    0x5f32
=== CODE BLOCK END ===

=== CODE BLOCK ADDRESS 0x5f32 ===
  0x5f32	add    	byte ptr [eax], al
  0x5f34	add    	byte ptr [eax], al
  0x5f36	add    	byte ptr [eax], al
  0x5f38	add    	byte ptr [eax], al
  0x5f3a	add    	byte ptr [eax], al
  === BLOCK LINK ===
    0x5f3c
=== CODE BLOCK END ===

=== CODE BLOCK ADDRESS 0x5f3c ===
  0x5f3c	add    	byte ptr [eax], al
  0x5f3e	add    	byte ptr [eax], al
  0x5f40	add    	byte ptr [eax], al
  0x5f42	add    	byte ptr [eax], al
  0x5f44	add    	byte ptr [eax], al
  === BLOCK LINK ===
    0x5f46
=== CODE BLOCK END ===

=== CODE BLOCK ADDRESS 0x5f46 ===
  0x5f46	add    	byte ptr [eax], al
  0x5f48	add    	byte ptr [eax], al
  0x5f4a	add    	byte ptr [eax], al
  0x5f4c	add    	byte ptr [eax], al
  0x5f4e	add    	byte ptr [eax], al
  === BLOCK LINK ===
    0x5f50
=== CODE BLOCK END ===

=== CODE BLOCK ADDRESS 0x5f50 ===
  0x5f50	add    	byte ptr [eax], al
  0x5f52	add    	byte ptr [eax], al
  0x5f54	add    	byte ptr [eax], al
  0x5f56	add    	byte ptr [eax], al
  0x5f58	add    	byte ptr [eax], al
  === BLOCK LINK ===
    0x5f5a
=== CODE BLOCK END ===

=== CODE BLOCK ADDRESS 0x5f5a ===
  0x5f5a	add    	byte ptr [eax], al
  0x5f5c	add    	byte ptr [eax], al
  0x5f5e	add    	byte ptr [eax], al
  0x5f60	add    	byte ptr [eax], al
  0x5f62	add    	byte ptr [eax], al
  === BLOCK LINK ===
    0x5f64
=== CODE BLOCK END ===

=== CODE BLOCK ADDRESS 0x5f64 ===
  0x5f64	add    	byte ptr [eax], al
  0x5f66	add    	byte ptr [eax], al
  0x5f68	add    	byte ptr [eax], al
  0x5f6a	add    	byte ptr [eax], al
  0x5f6c	add    	byte ptr [eax], al
  === BLOCK LINK ===
    0x5f6e
=== CODE BLOCK END ===

=== CODE BLOCK ADDRESS 0x5f6e ===
  0x5f6e	add    	byte ptr [eax], al
  0x5f70	add    	byte ptr [eax], al
  0x5f72	add    	byte ptr [eax], al
  0x5f74	add    	byte ptr [eax], al
  0x5f76	add    	byte ptr [eax], al
  === BLOCK LINK ===
    0x5f78
=== CODE BLOCK END ===

=== CODE BLOCK ADDRESS 0x5f78 ===
  0x5f78	add    	byte ptr [eax], al
  0x5f7a	add    	byte ptr [eax], al
  0x5f7c	add    	byte ptr [eax], al
  0x5f7e	add    	byte ptr [eax], al
  0x5f80	add    	byte ptr [eax], al
  === BLOCK LINK ===
    0x5f82
=== CODE BLOCK END ===

=== CODE BLOCK ADDRESS 0x5f82 ===
  0x5f82	add    	byte ptr [eax], al
  0x5f84	add    	byte ptr [eax], al
  0x5f86	add    	byte ptr [eax], al
  0x5f88	add    	byte ptr [eax], al
  0x5f8a	add    	byte ptr [eax], al
  === BLOCK LINK ===
    0x5f8c
=== CODE BLOCK END ===

=== CODE BLOCK ADDRESS 0x5f8c ===
  0x5f8c	add    	byte ptr [eax], al
  0x5f8e	add    	byte ptr [eax], al
  0x5f90	add    	byte ptr [eax], al
  0x5f92	add    	byte ptr [eax], al
  0x5f94	add    	byte ptr [eax], al
  === BLOCK LINK ===
    0x5f96
=== CODE BLOCK END ===

=== CODE BLOCK ADDRESS 0x5f96 ===
  0x5f96	add    	byte ptr [eax], al
  0x5f98	add    	byte ptr [eax], al
  0x5f9a	add    	byte ptr [eax], al
  0x5f9c	add    	byte ptr [eax], al
  0x5f9e	add    	byte ptr [eax], al
  === BLOCK LINK ===
    0x5fa0
=== CODE BLOCK END ===

=== CODE BLOCK ADDRESS 0x5fa0 ===
  0x5fa0	add    	byte ptr [eax], al
  0x5fa2	add    	byte ptr [eax], al
  0x5fa4	add    	byte ptr [eax], al
  0x5fa6	add    	byte ptr [eax], al
  0x5fa8	add    	byte ptr [eax], al
  === BLOCK LINK ===
    0x5faa
=== CODE BLOCK END ===

=== CODE BLOCK ADDRESS 0x5faa ===
  0x5faa	add    	byte ptr [eax], al
  0x5fac	add    	byte ptr [eax], al
  0x5fae	add    	byte ptr [eax], al
  0x5fb0	add    	byte ptr [eax], al
  0x5fb2	add    	byte ptr [eax], al
  === BLOCK LINK ===
    0x5fb4
=== CODE BLOCK END ===

=== CODE BLOCK ADDRESS 0x5fb4 ===
  0x5fb4	add    	byte ptr [eax], al
  0x5fb6	add    	byte ptr [eax], al
  0x5fb8	add    	byte ptr [eax], al
  0x5fba	add    	byte ptr [eax], al
  0x5fbc	add    	byte ptr [eax], al
  === BLOCK LINK ===
    0x5fbe
=== CODE BLOCK END ===

=== CODE BLOCK ADDRESS 0x5fbe ===
  0x5fbe	add    	byte ptr [eax], al
  0x5fc0	add    	byte ptr [eax], al
  0x5fc2	add    	byte ptr [eax], al
  0x5fc4	add    	byte ptr [eax], al
  0x5fc6	add    	byte ptr [eax], al
  === BLOCK LINK ===
    0x5fc8
=== CODE BLOCK END ===

=== CODE BLOCK ADDRESS 0x5fc8 ===
  0x5fc8	add    	byte ptr [eax], al
  0x5fca	add    	byte ptr [eax], al
  0x5fcc	add    	byte ptr [eax], al
  0x5fce	add    	byte ptr [eax], al
  0x5fd0	add    	byte ptr [eax], al
  === BLOCK LINK ===
    0x5fd2
=== CODE BLOCK END ===

=== CODE BLOCK ADDRESS 0x5fd2 ===
  0x5fd2	add    	byte ptr [eax], al
  0x5fd4	add    	byte ptr [eax], al
  0x5fd6	add    	byte ptr [eax], al
  0x5fd8	add    	byte ptr [eax], al
  0x5fda	add    	byte ptr [eax], al
  === BLOCK LINK ===
    0x5fdc
=== CODE BLOCK END ===

=== CODE BLOCK ADDRESS 0x5fdc ===
  0x5fdc	add    	byte ptr [eax], al
  0x5fde	add    	byte ptr [eax], al
  0x5fe0	add    	byte ptr [eax], al
  0x5fe2	add    	byte ptr [eax], al
  0x5fe4	add    	byte ptr [eax], al
  === BLOCK LINK ===
    0x5fe6
=== CODE BLOCK END ===

=== CODE BLOCK ADDRESS 0x5fe6 ===
  0x5fe6	add    	byte ptr [eax], al
  0x5fe8	add    	byte ptr [eax], al
  0x5fea	add    	byte ptr [eax], al
  0x5fec	add    	byte ptr [eax], al
  0x5fee	add    	byte ptr [eax], al
  === BLOCK LINK ===
    0x5ff0
=== CODE BLOCK END ===

=== CODE BLOCK ADDRESS 0x5ff0 ===
  0x5ff0	add    	byte ptr [eax], al
  0x5ff2	add    	byte ptr [eax], al
  0x5ff4	add    	byte ptr [eax], al
  0x5ff6	add    	byte ptr [eax], al
  0x5ff8	add    	byte ptr [eax], al
  === BLOCK LINK ===
    0x5ffa
=== CODE BLOCK END ===

=== CODE BLOCK ADDRESS 0x5ffa ===
  0x5ffa	add    	byte ptr [eax], al
  0x5ffc	add    	byte ptr [eax], al
=== CODE BLOCK END ===
