===== Assembly blocks =====

=== CODE BLOCK ADDRESS 0x1000 ===
  0x1000	int3   	
  0x1001	int3   	
  0x1002	int3   	
  0x1003	int3   	
  0x1004	int3   	
  === BLOCK LINK ===
    0x1005
=== CODE BLOCK END ===

=== CODE BLOCK ADDRESS 0x1005 ===
  0x1005	int3   	
  0x1006	int3   	
  0x1007	int3   	
  0x1008	dec    	eax
  0x1009	mov    	eax, esp
  === BLOCK LINK ===
    0x100b
=== CODE BLOCK END ===

=== CODE BLOCK ADDRESS 0x100b ===
  0x100b	dec    	eax
  0x100c	mov    	dword ptr [eax + 0x10], ebx
  0x100f	dec    	eax
  0x1010	mov    	dword ptr [eax + 0x18], ebp
  0x1013	dec    	eax
  === BLOCK LINK ===
    0x1014
=== CODE BLOCK END ===

=== CODE BLOCK ADDRESS 0x1014 ===
  0x1014	mov    	dword ptr [eax + 0x20], esi
  0x1017	dec    	eax
  0x1018	mov    	dword ptr [eax + 8], ecx
  0x101b	push   	edi
  0x101c	inc    	ecx
  === BLOCK LINK ===
    0x101d
=== CODE BLOCK END ===

=== CODE BLOCK ADDRESS 0x101d ===
  0x101d	push   	esp
  0x101e	inc    	ecx
  0x101f	push   	ebp
  0x1020	inc    	ecx
  0x1021	push   	esi
  === BLOCK LINK ===
    0x1022
=== CODE BLOCK END ===

=== CODE BLOCK ADDRESS 0x1022 ===
  0x1022	inc    	ecx
  0x1023	push   	edi
  0x1024	dec    	eax
  0x1025	sub    	esp, 0xb0
  0x102b	inc    	ebp
  === BLOCK LINK ===
    0x102c
=== CODE BLOCK END ===

=== CODE BLOCK ADDRESS 0x102c ===
  0x102c	mov    	ebp, ecx
  0x102e	dec    	ecx
  0x102f	mov    	esi, eax
  0x1031	inc    	ebp
  0x1032	xor    	ecx, ecx
  === BLOCK LINK ===
    0x1034
=== CODE BLOCK END ===

=== CODE BLOCK ADDRESS 0x1034 ===
  0x1034	inc    	ebp
  0x1035	xor    	eax, eax
  0x1037	xor    	ecx, ecx
  0x1039	inc    	ecx
  0x103a	lea    	edx, [ecx + 1]
  === BLOCK LINK ===
    0x103d
=== CODE BLOCK END ===

=== CODE BLOCK ADDRESS 0x103d ===
  0x103d	dec    	eax
  0x103e	call   	dword ptr [0x1144]
  === BLOCK LINK ===
    0x1044
=== CODE BLOCK END ===

=== CODE BLOCK ADDRESS 0x1044 ===
  0x1044	nop    	dword ptr [eax + eax]
  0x1049	inc    	ebp
  0x104a	xor    	ecx, ecx
  0x104c	dec    	eax
  0x104d	mov    	eax, esi
  === BLOCK LINK ===
    0x104f
=== CODE BLOCK END ===

=== CODE BLOCK ADDRESS 0x104f ===
  0x104f	dec    	eax
  0x1050	neg    	eax
  0x1052	inc    	ecx
  0x1053	mov    	ebp, ecx
  0x1055	inc    	ebp
  === BLOCK LINK ===
    0x1056
=== CODE BLOCK END ===

=== CODE BLOCK ADDRESS 0x1056 ===
  0x1056	mov    	edi, ecx
  0x1058	inc    	ecx
  0x1059	mov    	edi, ecx
  0x105b	sbb    	ebx, ebx
  0x105d	inc    	ebp
  === BLOCK LINK ===
    0x105e
=== CODE BLOCK END ===

=== CODE BLOCK ADDRESS 0x105e ===
  0x105e	mov    	esi, ecx
  0x1060	not    	ebx
  0x1062	inc    	ebp
  0x1063	lea    	esp, [ecx + 5]
  0x1066	and    	ebx, 0x57
  === BLOCK LINK ===
    0x1069
=== CODE BLOCK END ===

=== CODE BLOCK ADDRESS 0x1069 ===
  0x1069	dec    	eax
  0x106a	test   	esi, esi
  0x106c	je     	0x1210
  === BLOCK LINK ===
    0x1072
    0x1210
=== CODE BLOCK END ===

=== CODE BLOCK ADDRESS 0x1072 ===
  0x1072	inc    	ecx
  0x1073	mov    	eax, 0x7fffffff
  0x1078	dec    	eax
  0x1079	mov    	eax, esi
  0x107b	inc    	ecx
  === BLOCK LINK ===
    0x107c
=== CODE BLOCK END ===

=== CODE BLOCK ADDRESS 0x107c ===
  0x107c	mov    	edx, eax
  === BLOCK LINK ===
    0x107e
=== CODE BLOCK END ===

=== CODE BLOCK ADDRESS 0x1084 ===
  0x1084	dec    	eax
  0x1085	add    	eax, 2
  0x1088	dec    	eax
  0x1089	sub    	edx, 1
  0x108c	jne    	0x107e
  === BLOCK LINK ===
    0x108e
    0x107e
=== CODE BLOCK END ===

=== CODE BLOCK ADDRESS 0x108e ===
  0x108e	dec    	eax
  0x108f	mov    	eax, edx
  0x1091	dec    	eax
  0x1092	neg    	eax
  0x1094	sbb    	ecx, ecx
  === BLOCK LINK ===
    0x1096
=== CODE BLOCK END ===

=== CODE BLOCK ADDRESS 0x1096 ===
  0x1096	not    	ecx
  0x1098	and    	ecx, 0x80070057
  0x109e	dec    	eax
  0x109f	test   	edx, edx
  0x10a1	je     	0x10a8
  === BLOCK LINK ===
    0x10a3
    0x10a8
=== CODE BLOCK END ===

=== CODE BLOCK ADDRESS 0x10a3 ===
  0x10a3	dec    	esp
  0x10a4	sub    	eax, edx
  0x10a6	jmp    	0x10ab
  === BLOCK LINK ===
    0x10a8
    0x10ab
=== CODE BLOCK END ===

=== CODE BLOCK ADDRESS 0x10a8 ===
  0x10a8	dec    	ebp
  0x10a9	mov    	eax, ecx
  === BLOCK LINK ===
    0x10ab
=== CODE BLOCK END ===

=== CODE BLOCK ADDRESS 0x10af ===
  0x10af	neg    	eax
  0x10b1	dec    	eax
  0x10b2	sbb    	ebx, ebx
  0x10b4	dec    	ecx
  0x10b5	and    	ebx, eax
  === BLOCK LINK ===
    0x10b7
=== CODE BLOCK END ===

=== CODE BLOCK ADDRESS 0x10b7 ===
  0x10b7	dec    	eax
  0x10b8	test   	edx, edx
  0x10ba	je     	0x1207
  === BLOCK LINK ===
    0x10c0
    0x1207
=== CODE BLOCK END ===

=== CODE BLOCK ADDRESS 0x10c0 ===
  0x10c0	dec    	eax
  0x10c1	inc    	ebx
  0x10c3	mov    	ecx, 0x40
  0x10c8	dec    	eax
  0x10c9	lea    	edx, [ebx + ebx]
  === BLOCK LINK ===
    0x10cc
=== CODE BLOCK END ===

=== CODE BLOCK ADDRESS 0x10cc ===
  0x10cc	dec    	eax
  0x10cd	call   	dword ptr [0x10ed]
  === BLOCK LINK ===
    0x10d3
=== CODE BLOCK END ===

=== CODE BLOCK ADDRESS 0x10d3 ===
  0x10d3	nop    	dword ptr [eax + eax]
  0x10d8	dec    	eax
  0x10d9	mov    	edi, eax
  0x10db	dec    	eax
  0x10dc	neg    	eax
  === BLOCK LINK ===
    0x10de
=== CODE BLOCK END ===

=== CODE BLOCK ADDRESS 0x10de ===
  0x10de	sbb    	ecx, ecx
  0x10e0	inc    	ebp
  0x10e1	xor    	ecx, ecx
  0x10e3	not    	ecx
  0x10e5	and    	ecx, 0x8007000e
  === BLOCK LINK ===
    0x10eb
=== CODE BLOCK END ===

=== CODE BLOCK ADDRESS 0x10eb ===
  0x10eb	dec    	eax
  0x10ec	test   	edi, edi
  0x10ee	je     	0x1207
  === BLOCK LINK ===
    0x10f4
    0x1207
=== CODE BLOCK END ===

=== CODE BLOCK ADDRESS 0x10f4 ===
  0x10f4	dec    	eax
  0x10f5	lea    	eax, [ebx - 1]
  0x10f8	mov    	edx, 0x7ffffffe
  0x10fd	dec    	eax
  0x10fe	cmp    	eax, edx
  === BLOCK LINK ===
    0x1100
=== CODE BLOCK END ===

=== CODE BLOCK ADDRESS 0x1100 ===
  0x1100	inc    	ecx
  0x1101	mov    	ecx, ecx
  0x1103	mov    	eax, 0x80070057
  0x1108	cmova  	ecx, eax
  0x110b	test   	ecx, ecx
  === BLOCK LINK ===
    0x110d
=== CODE BLOCK END ===

=== CODE BLOCK ADDRESS 0x110d ===
  0x110d	js     	0x115a
  === BLOCK LINK ===
    0x110f
    0x115a
=== CODE BLOCK END ===

=== CODE BLOCK ADDRESS 0x110f ===
  0x110f	dec    	eax
  0x1110	mov    	ecx, edi
  0x1112	dec    	eax
  0x1113	test   	ebx, ebx
  0x1115	je     	0x113c
  === BLOCK LINK ===
    0x1117
    0x113c
=== CODE BLOCK END ===

=== CODE BLOCK ADDRESS 0x1117 ===
  0x1117	dec    	eax
  0x1118	sub    	edx, ebx
  0x111a	dec    	eax
  0x111b	sub    	esi, edi
  0x111d	dec    	eax
  === BLOCK LINK ===
    0x111e
=== CODE BLOCK END ===

=== CODE BLOCK ADDRESS 0x111e ===
  0x111e	lea    	eax, [edx + ebx]
  0x1121	dec    	eax
  0x1122	test   	eax, eax
  0x1124	je     	0x113c
  === BLOCK LINK ===
    0x1126
    0x113c
=== CODE BLOCK END ===

=== CODE BLOCK ADDRESS 0x1126 ===
  0x1126	movzx  	eax, word ptr [esi + ecx]
  0x112a	test   	ax, ax
  0x112d	je     	0x113c
  === BLOCK LINK ===
    0x112f
    0x113c
=== CODE BLOCK END ===

=== CODE BLOCK ADDRESS 0x112f ===
  0x112f	mov    	word ptr [ecx], ax
  0x1132	dec    	eax
  0x1133	add    	ecx, 2
  0x1136	dec    	eax
  0x1137	sub    	ebx, 1
  === BLOCK LINK ===
    0x113a
=== CODE BLOCK END ===

=== CODE BLOCK ADDRESS 0x113a ===
  0x113a	jne    	0x111d
  === BLOCK LINK ===
    0x113c
    0x111d
=== CODE BLOCK END ===

=== CODE BLOCK ADDRESS 0x113c ===
  0x113c	dec    	eax
  0x113d	lea    	eax, [ecx - 2]
  0x1140	dec    	eax
  0x1141	test   	ebx, ebx
  0x1143	dec    	eax
  === BLOCK LINK ===
    0x1144
=== CODE BLOCK END ===

=== CODE BLOCK ADDRESS 0x1144 ===
  0x1144	cmovne  	eax, ecx
  0x1147	dec    	eax
  0x1148	neg    	ebx
  0x114a	sbb    	ecx, ecx
  0x114c	not    	ecx
  === BLOCK LINK ===
    0x114e
=== CODE BLOCK END ===

=== CODE BLOCK ADDRESS 0x114e ===
  0x114e	and    	ecx, 0x8007007a
  0x1154	inc    	sp
  0x1156	mov    	dword ptr [eax], ecx
  0x1158	jmp    	0x1163
  === BLOCK LINK ===
    0x115a
    0x1163
=== CODE BLOCK END ===

=== CODE BLOCK ADDRESS 0x115a ===
  0x115a	dec    	eax
  0x115b	test   	ebx, ebx
  0x115d	je     	0x1163
  === BLOCK LINK ===
    0x115f
    0x1163
=== CODE BLOCK END ===

=== CODE BLOCK ADDRESS 0x115f ===
  0x115f	inc    	sp
  0x1161	mov    	dword ptr [edi], ecx
  === BLOCK LINK ===
    0x1163
    0x1207
=== CODE BLOCK END ===

=== CODE BLOCK ADDRESS 0x116b ===
  0x116b	mov    	edx, 0x20
  0x1170	dec    	eax
  0x1171	mov    	ecx, edi
  0x1173	dec    	eax
  0x1174	call   	dword ptr [0x1116]
  === BLOCK LINK ===
    0x117a
=== CODE BLOCK END ===

=== CODE BLOCK ADDRESS 0x117a ===
  0x117a	nop    	dword ptr [eax + eax]
  0x117f	inc    	ebp
  0x1180	xor    	ecx, ecx
  0x1182	dec    	esp
  0x1183	mov    	esi, eax
  === BLOCK LINK ===
    0x1185
=== CODE BLOCK END ===

=== CODE BLOCK ADDRESS 0x1185 ===
  0x1185	dec    	eax
  0x1186	test   	eax, eax
  0x1188	je     	0x11a8
  === BLOCK LINK ===
    0x118a
    0x11a8
=== CODE BLOCK END ===

=== CODE BLOCK ADDRESS 0x118a ===
  0x118a	inc    	ecx
  0x118b	lea    	edx, [ecx + 0x7b]
  0x118e	inc    	sp
  0x1190	mov    	dword ptr [eax], ecx
  0x1192	dec    	eax
  === BLOCK LINK ===
    0x1193
=== CODE BLOCK END ===

=== CODE BLOCK ADDRESS 0x1193 ===
  0x1193	lea    	ecx, [eax + 2]
  0x1196	dec    	eax
  0x1197	call   	dword ptr [0x10f3]
  === BLOCK LINK ===
    0x119d
=== CODE BLOCK END ===

=== CODE BLOCK ADDRESS 0x119d ===
  0x119d	nop    	dword ptr [eax + eax]
  0x11a2	dec    	esp
  0x11a3	mov    	esi, eax
  0x11a5	inc    	ebp
  0x11a6	xor    	ecx, ecx
  === BLOCK LINK ===
    0x11a8
=== CODE BLOCK END ===

=== CODE BLOCK ADDRESS 0x11a8 ===
  0x11a8	dec    	ecx
  0x11a9	mov    	eax, esi
  0x11ab	mov    	esi, 0x80070057
  0x11b0	dec    	eax
  0x11b1	neg    	eax
  === BLOCK LINK ===
    0x11b3
=== CODE BLOCK END ===

=== CODE BLOCK ADDRESS 0x11b3 ===
  0x11b3	sbb    	ecx, ecx
  0x11b5	not    	ecx
  0x11b7	and    	ecx, esi
  0x11b9	dec    	ebp
  0x11ba	test   	esi, esi
  === BLOCK LINK ===
    0x11bc
=== CODE BLOCK END ===

=== CODE BLOCK ADDRESS 0x11bc ===
  0x11bc	je     	0x1207
  === BLOCK LINK ===
    0x11be
    0x1207
=== CODE BLOCK END ===

=== CODE BLOCK ADDRESS 0x11be ===
  0x11be	inc    	ecx
  0x11bf	mov    	eax, ecx
  0x11c1	dec    	esp
  0x11c2	lea    	eax, [0xe48]
  0x11c8	dec    	ecx
  === BLOCK LINK ===
    0x11c9
=== CODE BLOCK END ===

=== CODE BLOCK ADDRESS 0x11c9 ===
  0x11c9	mov    	edx, dword ptr [eax]
  0x11cb	dec    	esp
  0x11cc	mov    	ebx, edi
  0x11ce	dec    	esp
  0x11cf	sub    	ebx, edx
  === BLOCK LINK ===
    0x11d1
=== CODE BLOCK END ===

=== CODE BLOCK ADDRESS 0x11d1 ===
  0x11d1	inc    	esp
  0x11d2	movzx  	ecx, word ptr [edx]
  0x11d5	inc    	esi
  0x11d6	movzx  	edx, word ptr [edx + ebx]
  0x11da	inc    	ebp
  === BLOCK LINK ===
    0x11db
=== CODE BLOCK END ===

=== CODE BLOCK ADDRESS 0x11db ===
  0x11db	sub    	ecx, edx
  0x11dd	jne    	0x11e8
  === BLOCK LINK ===
    0x11df
    0x11e8
=== CODE BLOCK END ===

=== CODE BLOCK ADDRESS 0x11df ===
  0x11df	dec    	eax
  0x11e0	add    	edx, 2
  0x11e3	inc    	ebp
  0x11e4	test   	edx, edx
  0x11e6	jne    	0x11d1
  === BLOCK LINK ===
    0x11e8
    0x11d1
=== CODE BLOCK END ===

=== CODE BLOCK ADDRESS 0x11e8 ===
  0x11e8	inc    	ebp
  0x11e9	test   	ecx, ecx
  0x11eb	je     	0x11fa
  === BLOCK LINK ===
    0x11ed
=== CODE BLOCK END ===

=== CODE BLOCK ADDRESS 0x11ed ===
  0x11ed	inc    	eax
  0x11ef	dec    	ecx
  0x11f0	add    	eax, 8
  0x11f3	inc    	ecx
  0x11f4	cmp    	eax, esp
  === BLOCK LINK ===
    0x11f6
=== CODE BLOCK END ===

=== CODE BLOCK ADDRESS 0x11f6 ===
  0x11f6	jb     	0x11c8
  === BLOCK LINK ===
    0x11f8
=== CODE BLOCK END ===

=== CODE BLOCK ADDRESS 0x11f8 ===
  0x11f8	jmp    	0x1202
  === BLOCK LINK ===
    0x11fa
=== CODE BLOCK END ===

=== CODE BLOCK ADDRESS 0x11fa ===
  0x11fa	inc    	esp
  0x11fb	mov    	esp, eax
  0x11fd	cmp    	eax, 5
  0x1200	jne    	0x1204
  === BLOCK LINK ===
    0x1202
=== CODE BLOCK END ===

=== CODE BLOCK ADDRESS 0x1202 ===
  0x1202	mov    	ecx, esi
  0x1204	inc    	ebp
  0x1205	xor    	ecx, ecx
  === BLOCK LINK ===
    0x1207
=== CODE BLOCK END ===

=== CODE BLOCK ADDRESS 0x120c ===
  0x120c	inc    	ecx
  0x120d	cmovns  	ebx, ecx
  === BLOCK LINK ===
    0x1210
=== CODE BLOCK END ===

=== CODE BLOCK ADDRESS 0x1218 ===
  0x1218	xor    	edx, edx
  0x121a	inc    	esp
  0x121b	lea    	eax, [ebx + 0x48]
  0x121e	dec    	eax
  0x121f	lea    	ecx, [esp + 0x60]
  === BLOCK LINK ===
    0x1223
=== CODE BLOCK END ===

=== CODE BLOCK ADDRESS 0x1223 ===
  0x1223	call   	0x1cb6
  === BLOCK LINK ===
    0x1228
=== CODE BLOCK END ===

=== CODE BLOCK ADDRESS 0x1228 ===
  0x1228	dec    	eax
  0x1229	mov    	eax, dword ptr [0x1011]
  0x122f	mov    	edx, 0x7f00
  0x1234	xor    	ecx, ecx
  0x1236	dec    	eax
  === BLOCK LINK ===
    0x1237
=== CODE BLOCK END ===

=== CODE BLOCK ADDRESS 0x1237 ===
  0x1237	mov    	dword ptr [esp + 0x68], eax
  0x123b	dec    	eax
  0x123c	call   	dword ptr [0x1006]
  === BLOCK LINK ===
    0x1242
=== CODE BLOCK END ===

=== CODE BLOCK ADDRESS 0x1242 ===
  0x1242	nop    	dword ptr [eax + eax]
  0x1247	xor    	ecx, ecx
  0x1249	dec    	eax
  0x124a	mov    	dword ptr [esp + 0x88], eax
  0x1251	dec    	eax
  === BLOCK LINK ===
    0x1252
=== CODE BLOCK END ===

=== CODE BLOCK ADDRESS 0x1252 ===
  0x1252	call   	dword ptr [0xf20]
  === BLOCK LINK ===
    0x1258
=== CODE BLOCK END ===

=== CODE BLOCK ADDRESS 0x1258 ===
  0x1258	nop    	dword ptr [eax + eax]
  0x125d	dec    	eax
  0x125e	lea    	ebx, [0x1124]
  0x1264	dec    	eax
  0x1265	mov    	dword ptr [esp + 0x90], eax
  === BLOCK LINK ===
    0x126c
=== CODE BLOCK END ===

=== CODE BLOCK ADDRESS 0x126c ===
  0x126c	dec    	eax
  0x126d	lea    	ecx, [esp + 0x60]
  0x1271	dec    	eax
  0x1272	mov    	dword ptr [esp + 0xa0], ebx
  0x1279	dec    	eax
  === BLOCK LINK ===
    0x127a
=== CODE BLOCK END ===

=== CODE BLOCK ADDRESS 0x127a ===
  0x127a	call   	dword ptr [0xfa8]
  === BLOCK LINK ===
    0x1280
=== CODE BLOCK END ===

=== CODE BLOCK ADDRESS 0x1280 ===
  0x1280	nop    	dword ptr [eax + eax]
  0x1285	xor    	esi, esi
  0x1287	dec    	esp
  0x1288	lea    	eax, [0x10f2]
  0x128e	dec    	eax
  === BLOCK LINK ===
    0x128f
=== CODE BLOCK END ===

=== CODE BLOCK ADDRESS 0x128f ===
  0x128f	mov    	dword ptr [esp + 0x58], esi
  0x1293	mov    	eax, 0x80000000
  0x1298	dec    	eax
  0x1299	mov    	dword ptr [esp + 0x50], esi
  0x129d	inc    	ebp
  === BLOCK LINK ===
    0x129e
=== CODE BLOCK END ===

=== CODE BLOCK ADDRESS 0x129e ===
  0x129e	xor    	ecx, ecx
  0x12a0	dec    	eax
  0x12a1	mov    	dword ptr [esp + 0x48], esi
  0x12a5	dec    	eax
  0x12a6	mov    	edx, ebx
  === BLOCK LINK ===
    0x12a8
=== CODE BLOCK END ===

=== CODE BLOCK ADDRESS 0x12a8 ===
  0x12a8	dec    	eax
  0x12a9	mov    	dword ptr [esp + 0x40], esi
  0x12ad	xor    	ecx, ecx
  0x12af	mov    	dword ptr [esp + 0x38], esi
  0x12b3	mov    	dword ptr [esp + 0x30], esi
  === BLOCK LINK ===
    0x12b7
=== CODE BLOCK END ===

=== CODE BLOCK ADDRESS 0x12b7 ===
  0x12b7	mov    	dword ptr [esp + 0x28], eax
  0x12bb	mov    	dword ptr [esp + 0x20], eax
  0x12bf	dec    	eax
  0x12c0	call   	dword ptr [0xf6a]
  === BLOCK LINK ===
    0x12c6
=== CODE BLOCK END ===

=== CODE BLOCK ADDRESS 0x12c6 ===
  0x12c6	nop    	dword ptr [eax + eax]
  0x12cb	dec    	esp
  0x12cc	mov    	edi, eax
  0x12ce	dec    	eax
  0x12cf	test   	eax, eax
  === BLOCK LINK ===
    0x12d1
=== CODE BLOCK END ===

=== CODE BLOCK ADDRESS 0x12d1 ===
  0x12d1	jne    	0x12e9
  === BLOCK LINK ===
    0x12d3
=== CODE BLOCK END ===

=== CODE BLOCK ADDRESS 0x12d3 ===
  0x12d3	dec    	eax
  0x12d4	call   	dword ptr [0xeb6]
  === BLOCK LINK ===
    0x12da
=== CODE BLOCK END ===

=== CODE BLOCK ADDRESS 0x12da ===
  0x12da	nop    	dword ptr [eax + eax]
  0x12df	mov    	ebx, eax
  0x12e1	test   	eax, eax
  0x12e3	jne    	0x1369
  === BLOCK LINK ===
    0x12e9
=== CODE BLOCK END ===

=== CODE BLOCK ADDRESS 0x12e9 ===
  0x12e9	dec    	eax
  0x12ea	lea    	ecx, [0x1388]
  0x12f0	dec    	eax
  0x12f1	call   	dword ptr [0xec1]
  === BLOCK LINK ===
    0x12f7
=== CODE BLOCK END ===

=== CODE BLOCK ADDRESS 0x12f7 ===
  0x12f7	nop    	dword ptr [eax + eax]
  0x12fc	dec    	eax
  0x12fd	mov    	ebp, eax
  0x12ff	dec    	eax
  0x1300	test   	eax, eax
  === BLOCK LINK ===
    0x1302
=== CODE BLOCK END ===

=== CODE BLOCK ADDRESS 0x1302 ===
  0x1302	jne    	0x1316
  === BLOCK LINK ===
    0x1304
=== CODE BLOCK END ===

=== CODE BLOCK ADDRESS 0x1304 ===
  0x1304	dec    	eax
  0x1305	call   	dword ptr [0xe85]
  === BLOCK LINK ===
    0x130b
=== CODE BLOCK END ===

=== CODE BLOCK ADDRESS 0x130b ===
  0x130b	nop    	dword ptr [eax + eax]
  0x1310	mov    	ebx, eax
  0x1312	test   	eax, eax
  0x1314	jne    	0x1369
  === BLOCK LINK ===
    0x1316
=== CODE BLOCK END ===

=== CODE BLOCK ADDRESS 0x1316 ===
  0x1316	dec    	eax
  0x1317	lea    	eax, [0xd1b]
  0x131d	inc    	ecx
  0x131e	mov    	edx, esp
  0x1320	dec    	eax
  === BLOCK LINK ===
    0x1321
=== CODE BLOCK END ===

=== CODE BLOCK ADDRESS 0x1321 ===
  0x1321	mov    	ecx, ebp
  0x1323	dec    	eax
  0x1324	mov    	edx, dword ptr [eax + edx*8]
  0x1327	dec    	eax
  0x1328	call   	dword ptr [0xe82]
  === BLOCK LINK ===
    0x132e
=== CODE BLOCK END ===

=== CODE BLOCK ADDRESS 0x132e ===
  0x132e	nop    	dword ptr [eax + eax]
  0x1333	dec    	eax
  0x1334	mov    	esi, eax
  0x1336	dec    	eax
  0x1337	test   	eax, eax
  === BLOCK LINK ===
    0x1339
=== CODE BLOCK END ===

=== CODE BLOCK ADDRESS 0x1339 ===
  0x1339	jne    	0x134d
  === BLOCK LINK ===
    0x133b
=== CODE BLOCK END ===

=== CODE BLOCK ADDRESS 0x133b ===
  0x133b	dec    	eax
  0x133c	call   	dword ptr [0xe4e]
  === BLOCK LINK ===
    0x1342
=== CODE BLOCK END ===

=== CODE BLOCK ADDRESS 0x1342 ===
  0x1342	nop    	dword ptr [eax + eax]
  0x1347	mov    	ebx, eax
  0x1349	test   	eax, eax
  0x134b	jne    	0x1369
  === BLOCK LINK ===
    0x134d
=== CODE BLOCK END ===

=== CODE BLOCK ADDRESS 0x134d ===
  0x134d	dec    	eax
  0x134e	mov    	edx, dword ptr [esp + 0xe0]
  0x1355	inc    	ebp
  0x1356	mov    	ecx, ebp
  0x1358	dec    	ebp
  === BLOCK LINK ===
    0x1359
=== CODE BLOCK END ===

=== CODE BLOCK ADDRESS 0x1359 ===
  0x1359	mov    	eax, esi
  0x135b	dec    	ecx
  0x135c	mov    	ecx, edi
  0x135e	dec    	eax
  0x135f	mov    	eax, esi
  === BLOCK LINK ===
    0x1361
=== CODE BLOCK END ===

=== CODE BLOCK ADDRESS 0x1361 ===
  0x1361	call   	dword ptr [0xfa1]
  === BLOCK LINK ===
    0x1367
=== CODE BLOCK END ===

=== CODE BLOCK ADDRESS 0x1367 ===
  0x1367	mov    	ebx, eax
  0x1369	dec    	eax
  0x136a	test   	edi, edi
  0x136c	je     	0x137d
  === BLOCK LINK ===
    0x136e
=== CODE BLOCK END ===

=== CODE BLOCK ADDRESS 0x136e ===
  0x136e	dec    	eax
  0x136f	mov    	ecx, edi
  0x1371	dec    	eax
  0x1372	call   	dword ptr [0xe20]
  === BLOCK LINK ===
    0x1378
=== CODE BLOCK END ===

=== CODE BLOCK ADDRESS 0x1378 ===
  0x1378	nop    	dword ptr [eax + eax]
  0x137d	dec    	eax
  0x137e	test   	ebp, ebp
  0x1380	je     	0x1391
  === BLOCK LINK ===
    0x1382
=== CODE BLOCK END ===

=== CODE BLOCK ADDRESS 0x1382 ===
  0x1382	dec    	eax
  0x1383	mov    	ecx, ebp
  0x1385	dec    	eax
  0x1386	call   	dword ptr [0xe14]
  === BLOCK LINK ===
    0x138c
=== CODE BLOCK END ===

=== CODE BLOCK ADDRESS 0x138c ===
  0x138c	nop    	dword ptr [eax + eax]
  0x1391	dec    	ebp
  0x1392	test   	edi, edi
  0x1394	je     	0x13a5
  === BLOCK LINK ===
    0x1396
=== CODE BLOCK END ===

=== CODE BLOCK ADDRESS 0x1396 ===
  0x1396	dec    	ecx
  0x1397	mov    	ecx, edi
  0x1399	dec    	eax
  0x139a	call   	dword ptr [0xe98]
  === BLOCK LINK ===
    0x13a0
=== CODE BLOCK END ===

=== CODE BLOCK ADDRESS 0x13a0 ===
  0x13a0	nop    	dword ptr [eax + eax]
  0x13a5	dec    	esp
  0x13a6	lea    	ebx, [esp + 0xb0]
  0x13ad	mov    	eax, ebx
  0x13af	dec    	ecx
  === BLOCK LINK ===
    0x13b0
=== CODE BLOCK END ===

=== CODE BLOCK ADDRESS 0x13b0 ===
  0x13b0	mov    	ebx, dword ptr [ebx + 0x38]
  0x13b3	dec    	ecx
  0x13b4	mov    	ebp, dword ptr [ebx + 0x40]
  0x13b7	dec    	ecx
  0x13b8	mov    	esi, dword ptr [ebx + 0x48]
  === BLOCK LINK ===
    0x13bb
=== CODE BLOCK END ===

=== CODE BLOCK ADDRESS 0x13bb ===
  0x13bb	dec    	ecx
  0x13bc	mov    	esp, ebx
  0x13be	inc    	ecx
  0x13bf	pop    	edi
  0x13c0	inc    	ecx
  === BLOCK LINK ===
    0x13c1
=== CODE BLOCK END ===

=== CODE BLOCK ADDRESS 0x13c1 ===
  0x13c1	pop    	esi
  0x13c2	inc    	ecx
  0x13c3	pop    	ebp
  0x13c4	inc    	ecx
  0x13c5	pop    	esp
  === BLOCK LINK ===
    0x13c6
=== CODE BLOCK END ===

=== CODE BLOCK ADDRESS 0x13c6 ===
  0x13c6	pop    	edi
  0x13c7	ret    	
  0x13c8	int3   	
  0x13c9	int3   	
  0x13ca	int3   	
  === BLOCK LINK ===
    0x13cb
=== CODE BLOCK END ===

=== CODE BLOCK ADDRESS 0x1210 ===
  0x1210	test   	ebx, ebx
  0x1212	jne    	0x1369
  === BLOCK LINK ===
    0x1218
=== CODE BLOCK END ===

=== CODE BLOCK ADDRESS 0x13cb ===
  0x13cb	int3   	
  0x13cc	int3   	
  0x13cd	int3   	
  0x13ce	int3   	
  0x13cf	int3   	
  === BLOCK LINK ===
    0x13d0
=== CODE BLOCK END ===

=== CODE BLOCK ADDRESS 0x13d0 ===
  0x13d0	dec    	eax
  0x13d1	sub    	esp, 0x28
  0x13d4	mov    	eax, 0x5a4d
  0x13d9	cmp    	word ptr [0xffffec20], ax
  0x13e0	je     	0x13e6
  === BLOCK LINK ===
    0x13e2
=== CODE BLOCK END ===

=== CODE BLOCK ADDRESS 0x13e2 ===
  0x13e2	xor    	eax, eax
  0x13e4	jmp    	0x1439
  === BLOCK LINK ===
    0x13e6
=== CODE BLOCK END ===

=== CODE BLOCK ADDRESS 0x13e6 ===
  0x13e6	dec    	eax
  0x13e7	arpl   	word ptr [0xffffec4f], cx
  0x13ed	dec    	eax
  0x13ee	lea    	eax, [0xffffec0c]
  0x13f4	dec    	eax
  === BLOCK LINK ===
    0x13f5
=== CODE BLOCK END ===

=== CODE BLOCK ADDRESS 0x13f5 ===
  0x13f5	add    	ecx, eax
  0x13f7	cmp    	dword ptr [ecx], 0x4550
  0x13fd	jne    	0x13e2
  === BLOCK LINK ===
    0x13ff
=== CODE BLOCK END ===

=== CODE BLOCK ADDRESS 0x13ff ===
  0x13ff	mov    	eax, 0x10b
  0x1404	cmp    	word ptr [ecx + 0x18], ax
  0x1408	je     	0x1428
  === BLOCK LINK ===
    0x140a
=== CODE BLOCK END ===

=== CODE BLOCK ADDRESS 0x140a ===
  0x140a	mov    	eax, 0x20b
  0x140f	cmp    	word ptr [ecx + 0x18], ax
  0x1413	jne    	0x13e2
  === BLOCK LINK ===
    0x1415
=== CODE BLOCK END ===

=== CODE BLOCK ADDRESS 0x1415 ===
  0x1415	xor    	eax, eax
  0x1417	cmp    	dword ptr [ecx + 0x84], 0xe
  0x141e	jbe    	0x1439
  === BLOCK LINK ===
    0x1420
=== CODE BLOCK END ===

=== CODE BLOCK ADDRESS 0x1420 ===
  0x1420	cmp    	dword ptr [ecx + 0xf8], eax
  0x1426	jmp    	0x1436
  === BLOCK LINK ===
    0x1428
=== CODE BLOCK END ===

=== CODE BLOCK ADDRESS 0x1428 ===
  0x1428	xor    	eax, eax
  0x142a	cmp    	dword ptr [ecx + 0x74], 0xe
  0x142e	jbe    	0x1439
  === BLOCK LINK ===
    0x1430
=== CODE BLOCK END ===

=== CODE BLOCK ADDRESS 0x1430 ===
  0x1430	cmp    	dword ptr [ecx + 0xe8], eax
  0x1436	setne  	al
  0x1439	mov    	ecx, 2
  0x143e	mov    	dword ptr [0x1bfc], eax
  0x1444	call   	0x1898
  === BLOCK LINK ===
    0x1449
=== CODE BLOCK END ===

=== CODE BLOCK ADDRESS 0x1449 ===
  0x1449	mov    	ecx, eax
  0x144b	call   	dword ptr [0xe5f]
  === BLOCK LINK ===
    0x1451
=== CODE BLOCK END ===

=== CODE BLOCK ADDRESS 0x1451 ===
  0x1451	dec    	eax
  0x1452	mov    	ecx, dword ptr [0xe00]
  0x1458	dec    	eax
  0x1459	or     	eax, 0xffffffff
  0x145c	dec    	eax
  === BLOCK LINK ===
    0x145d
=== CODE BLOCK END ===

=== CODE BLOCK ADDRESS 0x145d ===
  0x145d	mov    	dword ptr [0x216d], eax
  0x1463	dec    	eax
  0x1464	mov    	dword ptr [0x216e], eax
  0x146a	mov    	eax, dword ptr [0x1be4]
  0x1470	mov    	dword ptr [ecx], eax
  === BLOCK LINK ===
    0x1472
=== CODE BLOCK END ===

=== CODE BLOCK ADDRESS 0x1472 ===
  0x1472	dec    	eax
  0x1473	mov    	ecx, dword ptr [0xde7]
  0x1479	mov    	eax, dword ptr [0x1bc9]
  0x147f	mov    	dword ptr [ecx], eax
  0x1481	call   	0x18f0
  === BLOCK LINK ===
    0x1486
=== CODE BLOCK END ===

=== CODE BLOCK ADDRESS 0x1486 ===
  0x1486	cmp    	dword ptr [0x1b73], 0
  0x148d	jne    	0x149c
  === BLOCK LINK ===
    0x148f
=== CODE BLOCK END ===

=== CODE BLOCK ADDRESS 0x148f ===
  0x148f	dec    	eax
  0x1490	lea    	ecx, [0x45a]
  0x1496	call   	dword ptr [0xe0c]
  === BLOCK LINK ===
    0x149c
=== CODE BLOCK END ===

=== CODE BLOCK ADDRESS 0x149c ===
  0x149c	xor    	eax, eax
  0x149e	dec    	eax
  0x149f	add    	esp, 0x28
  0x14a2	ret    	
  0x14a3	int3   	
  === BLOCK LINK ===
    0x14a4
=== CODE BLOCK END ===

=== CODE BLOCK ADDRESS 0x14a4 ===
  0x14a4	int3   	
  0x14a5	int3   	
  0x14a6	int3   	
  0x14a7	int3   	
  0x14a8	int3   	
  === BLOCK LINK ===
    0x14a9
=== CODE BLOCK END ===

=== CODE BLOCK ADDRESS 0x14a9 ===
  0x14a9	int3   	
  0x14aa	int3   	
  0x14ab	int3   	
  0x14ac	int3   	
  0x14ad	int3   	
  === BLOCK LINK ===
    0x14ae
=== CODE BLOCK END ===

=== CODE BLOCK ADDRESS 0x14ae ===
  0x14ae	int3   	
  0x14af	int3   	
  0x14b0	dec    	eax
  0x14b1	sub    	esp, 0x38
  0x14b4	mov    	eax, dword ptr [0x1b96]
  === BLOCK LINK ===
    0x14ba
=== CODE BLOCK END ===

=== CODE BLOCK ADDRESS 0x14ba ===
  0x14ba	dec    	esp
  0x14bb	lea    	eax, [0x1b77]
  0x14c1	inc    	esp
  0x14c2	mov    	ecx, dword ptr [0x1b84]
  0x14c8	dec    	eax
  === BLOCK LINK ===
    0x14c9
=== CODE BLOCK END ===

=== CODE BLOCK ADDRESS 0x14c9 ===
  0x14c9	lea    	edx, [0x1b61]
  0x14cf	mov    	dword ptr [0x1b6f], eax
  0x14d5	dec    	eax
  0x14d6	lea    	ecx, [0x1b4c]
  0x14dc	dec    	eax
  === BLOCK LINK ===
    0x14dd
=== CODE BLOCK END ===

=== CODE BLOCK ADDRESS 0x14dd ===
  0x14dd	lea    	eax, [0x1b61]
  0x14e3	dec    	eax
  0x14e4	mov    	dword ptr [esp + 0x20], eax
  0x14e8	call   	dword ptr [0xd8a]
  === BLOCK LINK ===
    0x14ee
=== CODE BLOCK END ===

=== CODE BLOCK ADDRESS 0x14ee ===
  0x14ee	mov    	dword ptr [0x1b38], eax
  0x14f4	dec    	eax
  0x14f5	add    	esp, 0x38
  0x14f8	ret    	
  0x14f9	int3   	
  === BLOCK LINK ===
    0x14fa
=== CODE BLOCK END ===

=== CODE BLOCK ADDRESS 0x107e ===
  0x107e	inc    	sp
  0x1080	cmp    	dword ptr [eax], ecx
  0x1082	je     	0x108e
  === BLOCK LINK ===
    0x1084
    0x108e
=== CODE BLOCK END ===

=== CODE BLOCK ADDRESS 0x14fa ===
  0x14fa	int3   	
  0x14fb	int3   	
  0x14fc	int3   	
  0x14fd	int3   	
  0x14fe	int3   	
  === BLOCK LINK ===
    0x14ff
=== CODE BLOCK END ===

=== CODE BLOCK ADDRESS 0x14ff ===
  0x14ff	int3   	
  0x1500	dec    	eax
  0x1501	mov    	eax, esp
  0x1503	dec    	eax
  0x1504	mov    	dword ptr [eax + 8], ebx
  === BLOCK LINK ===
    0x1507
=== CODE BLOCK END ===

=== CODE BLOCK ADDRESS 0x1507 ===
  0x1507	dec    	eax
  0x1508	mov    	dword ptr [eax + 0x10], esi
  0x150b	dec    	eax
  0x150c	mov    	dword ptr [eax + 0x18], edi
  0x150f	dec    	esp
  === BLOCK LINK ===
    0x1510
=== CODE BLOCK END ===

=== CODE BLOCK ADDRESS 0x1510 ===
  0x1510	mov    	dword ptr [eax + 0x20], esi
  0x1513	inc    	ecx
  0x1514	push   	edi
  0x1515	dec    	eax
  0x1516	sub    	esp, 0xb0
  === BLOCK LINK ===
    0x151c
=== CODE BLOCK END ===

=== CODE BLOCK ADDRESS 0x151c ===
  0x151c	inc    	ebp
  0x151d	xor    	esi, esi
  0x151f	inc    	esp
  0x1520	mov    	dword ptr [esp + 0x20], esi
  0x1524	dec    	eax
  === BLOCK LINK ===
    0x1525
=== CODE BLOCK END ===

=== CODE BLOCK ADDRESS 0x1525 ===
  0x1525	lea    	ecx, [eax - 0x78]
  0x1528	call   	dword ptr [0xcb2]
  === BLOCK LINK ===
    0x152e
=== CODE BLOCK END ===

=== CODE BLOCK ADDRESS 0x152e ===
  0x152e	nop    	
  0x152f	dec    	eax
  0x1531	mov    	eax, dword ptr [0x30]
  0x1538	dec    	eax
  0x1539	mov    	ebx, dword ptr [eax + 8]
  === BLOCK LINK ===
    0x153c
=== CODE BLOCK END ===

=== CODE BLOCK ADDRESS 0x153c ===
  0x153c	inc    	ecx
  0x153d	mov    	esi, esi
  0x153f	xor    	eax, eax
  0x1541	.byte  	0xf0
  0x1542	dec    	eax
  === BLOCK LINK ===
    0x1543
=== CODE BLOCK END ===

=== CODE BLOCK ADDRESS 0x1543 ===
  0x1543	cmpxchg  	dword ptr [0x2096], ebx
  0x154a	je     	0x1567
  === BLOCK LINK ===
    0x154c
=== CODE BLOCK END ===

=== CODE BLOCK ADDRESS 0x154c ===
  0x154c	dec    	eax
  0x154d	cmp    	eax, ebx
  0x154f	jne    	0x155a
  === BLOCK LINK ===
    0x1551
=== CODE BLOCK END ===

=== CODE BLOCK ADDRESS 0x1551 ===
  0x1551	mov    	ebx, 1
  0x1556	mov    	esi, ebx
  0x1558	jmp    	0x156c
  === BLOCK LINK ===
    0x155a
=== CODE BLOCK END ===

=== CODE BLOCK ADDRESS 0x155a ===
  0x155a	mov    	ecx, 0x3e8
  0x155f	call   	dword ptr [0xc83]
  === BLOCK LINK ===
    0x1565
=== CODE BLOCK END ===

=== CODE BLOCK ADDRESS 0x1565 ===
  0x1565	jmp    	0x153f
  === BLOCK LINK ===
    0x1567
=== CODE BLOCK END ===

=== CODE BLOCK ADDRESS 0x1567 ===
  0x1567	mov    	ebx, 1
  0x156c	mov    	eax, dword ptr [0x2076]
  0x1572	cmp    	eax, ebx
  0x1574	jne    	0x1584
  === BLOCK LINK ===
    0x1576
=== CODE BLOCK END ===

=== CODE BLOCK ADDRESS 0x1576 ===
  0x1576	mov    	edi, 0x1f
  0x157b	mov    	ecx, edi
  0x157d	call   	0x18e3
  === BLOCK LINK ===
    0x1582
=== CODE BLOCK END ===

=== CODE BLOCK ADDRESS 0x1582 ===
  0x1582	jmp    	0x15f0
  === BLOCK LINK ===
    0x1584
=== CODE BLOCK END ===

=== CODE BLOCK ADDRESS 0x1584 ===
  0x1584	mov    	eax, dword ptr [0x205e]
  0x158a	test   	eax, eax
  0x158c	jne    	0x15e5
  === BLOCK LINK ===
    0x158e
=== CODE BLOCK END ===

=== CODE BLOCK ADDRESS 0x158e ===
  0x158e	mov    	dword ptr [0x2054], ebx
  0x1594	dec    	esp
  0x1595	lea    	edi, [0xda5]
  0x159b	dec    	eax
  0x159c	lea    	edi, [0xd86]
  === BLOCK LINK ===
    0x15a2
=== CODE BLOCK END ===

=== CODE BLOCK ADDRESS 0x15a2 ===
  0x15a2	dec    	eax
  0x15a3	mov    	dword ptr [esp + 0x30], edi
  0x15a7	inc    	ecx
  0x15a8	mov    	eax, esi
  0x15aa	mov    	dword ptr [esp + 0x24], eax
  === BLOCK LINK ===
    0x15ae
=== CODE BLOCK END ===

=== CODE BLOCK ADDRESS 0x15ae ===
  0x15ae	dec    	ecx
  0x15af	cmp    	edi, edi
  0x15b1	jae    	0x15d7
  === BLOCK LINK ===
    0x15b3
=== CODE BLOCK END ===

=== CODE BLOCK ADDRESS 0x15b3 ===
  0x15b3	test   	eax, eax
  0x15b5	jne    	0x15db
  === BLOCK LINK ===
    0x15b7
=== CODE BLOCK END ===

=== CODE BLOCK ADDRESS 0x15b7 ===
  0x15b7	dec    	esp
  0x15b8	cmp    	dword ptr [edi], esi
  0x15ba	je     	0x15cc
  === BLOCK LINK ===
    0x15bc
=== CODE BLOCK END ===

=== CODE BLOCK ADDRESS 0x15bc ===
  0x15bc	dec    	eax
  0x15bd	mov    	eax, dword ptr [edi]
  0x15bf	dec    	eax
  0x15c0	mov    	ecx, dword ptr [0xd42]
  0x15c6	call   	ecx
  === BLOCK LINK ===
    0x15c8
=== CODE BLOCK END ===

=== CODE BLOCK ADDRESS 0x15c8 ===
  0x15c8	mov    	dword ptr [esp + 0x24], eax
  0x15cc	dec    	eax
  0x15cd	add    	edi, 8
  0x15d0	dec    	eax
  0x15d1	mov    	dword ptr [esp + 0x30], edi
  === BLOCK LINK ===
    0x15d5
=== CODE BLOCK END ===

=== CODE BLOCK ADDRESS 0x15d5 ===
  0x15d5	jmp    	0x15ae
  === BLOCK LINK ===
    0x15d7
=== CODE BLOCK END ===

=== CODE BLOCK ADDRESS 0x15d7 ===
  0x15d7	test   	eax, eax
  0x15d9	je     	0x15eb
  === BLOCK LINK ===
    0x15db
=== CODE BLOCK END ===

=== CODE BLOCK ADDRESS 0x15db ===
  0x15db	mov    	eax, 0xff
  0x15e0	jmp    	0x1746
  === BLOCK LINK ===
    0x15e5
=== CODE BLOCK END ===

=== CODE BLOCK ADDRESS 0x15e5 ===
  0x15e5	mov    	dword ptr [0x1a39], ebx
  0x15eb	mov    	edi, 0x1f
  0x15f0	mov    	eax, dword ptr [0x1ff2]
  0x15f6	cmp    	eax, ebx
  0x15f8	jne    	0x1617
  === BLOCK LINK ===
    0x15fa
=== CODE BLOCK END ===

=== CODE BLOCK ADDRESS 0x15fa ===
  0x15fa	dec    	eax
  0x15fb	lea    	edx, [0xd1f]
  0x1601	dec    	eax
  0x1602	lea    	ecx, [0xd08]
  0x1608	call   	0x1abe
  === BLOCK LINK ===
    0x160d
=== CODE BLOCK END ===

=== CODE BLOCK ADDRESS 0x160d ===
  0x160d	mov    	dword ptr [0x1fd1], 2
  0x1617	test   	esi, esi
  0x1619	jne    	0x1625
  === BLOCK LINK ===
    0x161b
=== CODE BLOCK END ===

=== CODE BLOCK ADDRESS 0x161b ===
  0x161b	dec    	ecx
  0x161c	mov    	eax, esi
  0x161e	dec    	eax
  0x161f	xchg   	dword ptr [0x1fbb], eax
  0x1625	dec    	esp
  === BLOCK LINK ===
    0x1626
=== CODE BLOCK END ===

=== CODE BLOCK ADDRESS 0x1626 ===
  0x1626	cmp    	dword ptr [0x1fc4], esi
  0x162c	je     	0x1658
  === BLOCK LINK ===
    0x162e
=== CODE BLOCK END ===

=== CODE BLOCK ADDRESS 0x162e ===
  0x162e	dec    	eax
  0x162f	lea    	ecx, [0x1fbb]
  0x1635	call   	0x1950
  === BLOCK LINK ===
    0x163a
=== CODE BLOCK END ===

=== CODE BLOCK ADDRESS 0x163a ===
  0x163a	test   	eax, eax
  0x163c	je     	0x1658
  === BLOCK LINK ===
    0x163e
=== CODE BLOCK END ===

=== CODE BLOCK ADDRESS 0x163e ===
  0x163e	inc    	ebp
  0x163f	xor    	eax, eax
  0x1641	inc    	ecx
  0x1642	lea    	edx, [eax + 2]
  0x1645	xor    	ecx, ecx
  === BLOCK LINK ===
    0x1647
=== CODE BLOCK END ===

=== CODE BLOCK ADDRESS 0x1647 ===
  0x1647	dec    	eax
  0x1648	mov    	eax, dword ptr [0x1fa2]
  0x164e	dec    	esp
  0x164f	mov    	ecx, dword ptr [0xcb3]
  0x1655	inc    	ecx
  === BLOCK LINK ===
    0x1656
=== CODE BLOCK END ===

=== CODE BLOCK ADDRESS 0x1656 ===
  0x1656	call   	ecx
  === BLOCK LINK ===
    0x1658
=== CODE BLOCK END ===

=== CODE BLOCK ADDRESS 0x1658 ===
  0x1658	dec    	eax
  0x1659	mov    	eax, dword ptr [0xc39]
  0x165f	dec    	eax
  0x1660	mov    	ecx, dword ptr [eax]
  0x1662	dec    	eax
  === BLOCK LINK ===
    0x1663
=== CODE BLOCK END ===

=== CODE BLOCK ADDRESS 0x1663 ===
  0x1663	test   	ecx, ecx
  0x1665	jne    	0x1671
  === BLOCK LINK ===
    0x1667
=== CODE BLOCK END ===

=== CODE BLOCK ADDRESS 0x1667 ===
  0x1667	mov    	eax, 0xff
  0x166c	jmp    	0x1746
  === BLOCK LINK ===
    0x1671
=== CODE BLOCK END ===

=== CODE BLOCK ADDRESS 0x1671 ===
  0x1671	dec    	eax
  0x1672	mov    	dword ptr [esp + 0x28], ecx
  0x1676	mov    	edx, dword ptr [esp + 0x20]
  0x167a	movzx  	eax, word ptr [ecx]
  0x167d	cmp    	ax, 0x20
  === BLOCK LINK ===
    0x1681
=== CODE BLOCK END ===

=== CODE BLOCK ADDRESS 0x1681 ===
  0x1681	ja     	0x16f7
  === BLOCK LINK ===
    0x1683
=== CODE BLOCK END ===

=== CODE BLOCK ADDRESS 0x1683 ===
  0x1683	test   	ax, ax
  0x1686	je     	0x168c
  === BLOCK LINK ===
    0x1688
=== CODE BLOCK END ===

=== CODE BLOCK ADDRESS 0x1688 ===
  0x1688	test   	edx, edx
  0x168a	jne    	0x16f7
  === BLOCK LINK ===
    0x168c
=== CODE BLOCK END ===

=== CODE BLOCK ADDRESS 0x168c ===
  0x168c	sub    	ax, bx
  0x168f	cmp    	ax, di
  0x1692	ja     	0x16a2
  === BLOCK LINK ===
    0x1694
=== CODE BLOCK END ===

=== CODE BLOCK ADDRESS 0x1694 ===
  0x1694	dec    	eax
  0x1695	add    	ecx, 2
  0x1698	dec    	eax
  0x1699	mov    	dword ptr [esp + 0x28], ecx
  0x169d	movzx  	eax, word ptr [ecx]
  === BLOCK LINK ===
    0x16a0
=== CODE BLOCK END ===

=== CODE BLOCK ADDRESS 0x16a0 ===
  0x16a0	jmp    	0x168c
  === BLOCK LINK ===
    0x16a2
=== CODE BLOCK END ===

=== CODE BLOCK ADDRESS 0x16a2 ===
  0x16a2	test   	byte ptr [esp + 0x7c], bl
  0x16a6	movzx  	eax, word ptr [esp + 0x80]
  0x16ae	inc    	ecx
  0x16af	mov    	ecx, 0xa
  0x16b4	inc    	esp
  === BLOCK LINK ===
    0x16b5
=== CODE BLOCK END ===

=== CODE BLOCK ADDRESS 0x16b5 ===
  0x16b5	cmovne  	ecx, eax
  0x16b8	dec    	esp
  0x16b9	mov    	eax, ecx
  0x16bb	xor    	edx, edx
  0x16bd	dec    	eax
  === BLOCK LINK ===
    0x16be
=== CODE BLOCK END ===

=== CODE BLOCK ADDRESS 0x16be ===
  0x16be	lea    	ecx, [0xffffe93c]
  0x16c4	call   	0x1008
  === BLOCK LINK ===
    0x16c9
=== CODE BLOCK END ===

=== CODE BLOCK ADDRESS 0x16c9 ===
  0x16c9	mov    	dword ptr [0x1951], eax
  0x16cf	inc    	esp
  0x16d0	cmp    	dword ptr [0x196a], esi
  0x16d6	jne    	0x16e0
  === BLOCK LINK ===
    0x16d8
=== CODE BLOCK END ===

=== CODE BLOCK ADDRESS 0x16d8 ===
  0x16d8	mov    	ecx, eax
  0x16da	call   	dword ptr [0xbe0]
  === BLOCK LINK ===
    0x16e0
=== CODE BLOCK END ===

=== CODE BLOCK ADDRESS 0x16e0 ===
  0x16e0	inc    	esp
  0x16e1	cmp    	dword ptr [0x193d], esi
  0x16e7	jne    	0x16f5
  === BLOCK LINK ===
    0x16e9
=== CODE BLOCK END ===

=== CODE BLOCK ADDRESS 0x16e9 ===
  0x16e9	call   	dword ptr [0xbd9]
  === BLOCK LINK ===
    0x16ef
=== CODE BLOCK END ===

=== CODE BLOCK ADDRESS 0x16ef ===
  0x16ef	mov    	eax, dword ptr [0x192b]
  0x16f5	jmp    	0x1746
  === BLOCK LINK ===
    0x16f7
=== CODE BLOCK END ===

=== CODE BLOCK ADDRESS 0x16f7 ===
  0x16f7	cmp    	ax, 0x22
  0x16fb	jne    	0x170b
  === BLOCK LINK ===
    0x16fd
=== CODE BLOCK END ===

=== CODE BLOCK ADDRESS 0x16fd ===
  0x16fd	inc    	ecx
  0x16fe	mov    	eax, esi
  0x1700	test   	edx, edx
  0x1702	sete   	al
  0x1705	mov    	edx, eax
  === BLOCK LINK ===
    0x1707
=== CODE BLOCK END ===

=== CODE BLOCK ADDRESS 0x1707 ===
  0x1707	mov    	dword ptr [esp + 0x20], eax
  0x170b	dec    	eax
  0x170c	add    	ecx, 2
  0x170f	dec    	eax
  0x1710	mov    	dword ptr [esp + 0x28], ecx
  === BLOCK LINK ===
    0x1714
=== CODE BLOCK END ===

=== CODE BLOCK ADDRESS 0x1714 ===
  0x1714	jmp    	0x167a
  === BLOCK LINK ===
    0x1719
=== CODE BLOCK END ===

=== CODE BLOCK ADDRESS 0x1719 ===
  0x1719	mov    	dword ptr [0x1901], eax
  0x171f	cmp    	dword ptr [0x191a], 0
  0x1726	jne    	0x1731
  === BLOCK LINK ===
    0x1728
=== CODE BLOCK END ===

=== CODE BLOCK ADDRESS 0x1728 ===
  0x1728	mov    	ecx, eax
  0x172a	call   	dword ptr [0xb88]
  === BLOCK LINK ===
    0x1730
=== CODE BLOCK END ===

=== CODE BLOCK ADDRESS 0x1730 ===
  0x1730	int3   	
  0x1731	cmp    	dword ptr [0x18ec], 0
  0x1738	jne    	0x1746
  === BLOCK LINK ===
    0x173a
=== CODE BLOCK END ===

=== CODE BLOCK ADDRESS 0x173a ===
  0x173a	call   	dword ptr [0xb88]
  === BLOCK LINK ===
    0x1740
=== CODE BLOCK END ===

=== CODE BLOCK ADDRESS 0x1740 ===
  0x1740	mov    	eax, dword ptr [0x18da]
  0x1746	dec    	esp
  0x1747	lea    	ebx, [esp + 0xb0]
  0x174e	dec    	ecx
  0x174f	mov    	ebx, dword ptr [ebx + 0x10]
  === BLOCK LINK ===
    0x1752
=== CODE BLOCK END ===

=== CODE BLOCK ADDRESS 0x1752 ===
  0x1752	dec    	ecx
  0x1753	mov    	esi, dword ptr [ebx + 0x18]
  0x1756	dec    	ecx
  0x1757	mov    	edi, dword ptr [ebx + 0x20]
  0x175a	dec    	ebp
  === BLOCK LINK ===
    0x175b
=== CODE BLOCK END ===

=== CODE BLOCK ADDRESS 0x175b ===
  0x175b	mov    	esi, dword ptr [ebx + 0x28]
  0x175e	dec    	ecx
  0x175f	mov    	esp, ebx
  0x1761	inc    	ecx
  0x1762	pop    	edi
  === BLOCK LINK ===
    0x1763
=== CODE BLOCK END ===

=== CODE BLOCK ADDRESS 0x1763 ===
  0x1763	ret    	
  0x1764	int3   	
  0x1765	int3   	
  0x1766	int3   	
  0x1767	int3   	
  === BLOCK LINK ===
    0x1768
=== CODE BLOCK END ===

=== CODE BLOCK ADDRESS 0x1768 ===
  0x1768	int3   	
  0x1769	int3   	
  0x176a	int3   	
  0x176b	int3   	
  0x176c	int3   	
  === BLOCK LINK ===
    0x176d
=== CODE BLOCK END ===

=== CODE BLOCK ADDRESS 0x176d ===
  0x176d	int3   	
  0x176e	int3   	
  0x176f	int3   	
  0x1770	dec    	eax
  0x1771	sub    	esp, 0x28
  === BLOCK LINK ===
    0x1774
=== CODE BLOCK END ===

=== CODE BLOCK ADDRESS 0x1774 ===
  0x1774	call   	0x19e4
  === BLOCK LINK ===
    0x1779
=== CODE BLOCK END ===

=== CODE BLOCK ADDRESS 0x1779 ===
  0x1779	dec    	eax
  0x177a	add    	esp, 0x28
  0x177d	jmp    	0x1500
  === BLOCK LINK ===
    0x1782
=== CODE BLOCK END ===

=== CODE BLOCK ADDRESS 0x1782 ===
  0x1782	int3   	
  0x1783	int3   	
  0x1784	int3   	
  0x1785	int3   	
  0x1786	int3   	
  === BLOCK LINK ===
    0x1787
=== CODE BLOCK END ===

=== CODE BLOCK ADDRESS 0x1787 ===
  0x1787	int3   	
  0x1788	int3   	
  0x1789	int3   	
  0x178a	int3   	
  0x178b	int3   	
  === BLOCK LINK ===
    0x178c
=== CODE BLOCK END ===

=== CODE BLOCK ADDRESS 0x178c ===
  0x178c	int3   	
  0x178d	int3   	
  0x178e	int3   	
  0x178f	int3   	
  0x1790	int3   	
  === BLOCK LINK ===
    0x1791
=== CODE BLOCK END ===

=== CODE BLOCK ADDRESS 0x1791 ===
  0x1791	int3   	
  0x1792	int3   	
  0x1793	int3   	
  0x1794	int3   	
  0x1795	int3   	
  === BLOCK LINK ===
    0x1796
=== CODE BLOCK END ===

=== CODE BLOCK ADDRESS 0x1796 ===
  0x1796	nop    	word ptr [eax + eax]
  0x17a0	dec    	eax
  0x17a1	cmp    	ecx, dword ptr [0x1861]
  0x17a7	jne    	0x17b9
  === BLOCK LINK ===
    0x17a9
=== CODE BLOCK END ===

=== CODE BLOCK ADDRESS 0x17a9 ===
  0x17a9	dec    	eax
  0x17aa	rol    	ecx, 0x10
  0x17ad	test   	cx, 0xffff
  0x17b2	jne    	0x17b5
  === BLOCK LINK ===
    0x17b4
=== CODE BLOCK END ===

=== CODE BLOCK ADDRESS 0x17b4 ===
  0x17b4	ret    	
  0x17b5	dec    	eax
  0x17b6	ror    	ecx, 0x10
  0x17b9	jmp    	0x1b30
  === BLOCK LINK ===
    0x17be
=== CODE BLOCK END ===

=== CODE BLOCK ADDRESS 0x10ab ===
  0x10ab	dec    	eax
  0x10ac	mov    	eax, edx
  0x10ae	dec    	eax
  === BLOCK LINK ===
    0x10af
=== CODE BLOCK END ===

=== CODE BLOCK ADDRESS 0x17be ===
  0x17be	int3   	
  0x17bf	int3   	
  0x17c0	int3   	
  0x17c1	int3   	
  0x17c2	int3   	
  === BLOCK LINK ===
    0x17c3
=== CODE BLOCK END ===

=== CODE BLOCK ADDRESS 0x17c3 ===
  0x17c3	int3   	
  0x17c4	int3   	
  0x17c5	int3   	
  0x17c6	int3   	
  0x17c7	int3   	
  === BLOCK LINK ===
    0x17c8
=== CODE BLOCK END ===

=== CODE BLOCK ADDRESS 0x17c8 ===
  0x17c8	int3   	
  0x17c9	int3   	
  0x17ca	int3   	
  0x17cb	int3   	
  0x17cc	int3   	
  === BLOCK LINK ===
    0x17cd
=== CODE BLOCK END ===

=== CODE BLOCK ADDRESS 0x17cd ===
  0x17cd	int3   	
  0x17ce	int3   	
  0x17cf	int3   	
  0x17d0	dec    	eax
  0x17d1	sub    	esp, 0x28
  === BLOCK LINK ===
    0x17d4
=== CODE BLOCK END ===

=== CODE BLOCK ADDRESS 0x17d4 ===
  0x17d4	dec    	eax
  0x17d5	mov    	eax, dword ptr [ecx]
  0x17d7	cmp    	dword ptr [eax], 0xe06d7363
  0x17dd	jne    	0x1802
  === BLOCK LINK ===
    0x17df
=== CODE BLOCK END ===

=== CODE BLOCK ADDRESS 0x17df ===
  0x17df	cmp    	dword ptr [eax + 0x18], 4
  0x17e3	jne    	0x1802
  === BLOCK LINK ===
    0x17e5
=== CODE BLOCK END ===

=== CODE BLOCK ADDRESS 0x17e5 ===
  0x17e5	mov    	ecx, dword ptr [eax + 0x20]
  0x17e8	lea    	eax, [ecx - 0x19930520]
  0x17ee	cmp    	eax, 2
  0x17f1	jbe    	0x17fb
  === BLOCK LINK ===
    0x17f3
=== CODE BLOCK END ===

=== CODE BLOCK ADDRESS 0x17f3 ===
  0x17f3	cmp    	ecx, 0x1994000
  0x17f9	jne    	0x1802
  === BLOCK LINK ===
    0x17fb
=== CODE BLOCK END ===

=== CODE BLOCK ADDRESS 0x17fb ===
  0x17fb	call   	dword ptr [0xa67]
  === BLOCK LINK ===
    0x1801
=== CODE BLOCK END ===

=== CODE BLOCK ADDRESS 0x1801 ===
  0x1801	int3   	
  0x1802	xor    	eax, eax
  0x1804	dec    	eax
  0x1805	add    	esp, 0x28
  0x1808	ret    	
  === BLOCK LINK ===
    0x1809
=== CODE BLOCK END ===

=== CODE BLOCK ADDRESS 0x1207 ===
  0x1207	test   	ecx, ecx
  0x1209	movzx  	ebx, cx
  === BLOCK LINK ===
    0x120c
=== CODE BLOCK END ===

=== CODE BLOCK ADDRESS 0x1809 ===
  0x1809	int3   	
  0x180a	int3   	
  0x180b	int3   	
  0x180c	int3   	
  0x180d	int3   	
  === BLOCK LINK ===
    0x180e
=== CODE BLOCK END ===

=== CODE BLOCK ADDRESS 0x180e ===
  0x180e	int3   	
  0x180f	int3   	
  0x1810	dec    	eax
  0x1811	sub    	esp, 0x28
  0x1814	dec    	eax
  === BLOCK LINK ===
    0x1815
=== CODE BLOCK END ===

=== CODE BLOCK ADDRESS 0x1815 ===
  0x1815	lea    	ecx, [0xffffffb5]
  0x181b	call   	dword ptr [0x9b7]
  === BLOCK LINK ===
    0x1821
=== CODE BLOCK END ===

=== CODE BLOCK ADDRESS 0x1821 ===
  0x1821	xor    	eax, eax
  0x1823	dec    	eax
  0x1824	add    	esp, 0x28
  0x1827	ret    	
  0x1828	int3   	
  === BLOCK LINK ===
    0x1829
=== CODE BLOCK END ===

=== CODE BLOCK ADDRESS 0x1829 ===
  0x1829	int3   	
  0x182a	int3   	
  0x182b	int3   	
  0x182c	int3   	
  0x182d	int3   	
  === BLOCK LINK ===
    0x182e
=== CODE BLOCK END ===

=== CODE BLOCK ADDRESS 0x182e ===
  0x182e	jmp    	dword ptr [0xa54]
  === BLOCK LINK ===
    0x1834
=== CODE BLOCK END ===

=== CODE BLOCK ADDRESS 0x1834 ===
  0x1834	int3   	
  0x1835	int3   	
  0x1836	int3   	
  0x1837	int3   	
  0x1838	int3   	
  === BLOCK LINK ===
    0x1839
=== CODE BLOCK END ===

=== CODE BLOCK ADDRESS 0x1839 ===
  0x1839	int3   	
  0x183a	int3   	
  0x183b	int3   	
  0x183c	dec    	eax
  0x183d	sub    	esp, 0x18
  === BLOCK LINK ===
    0x1840
=== CODE BLOCK END ===

=== CODE BLOCK ADDRESS 0x1840 ===
  0x1840	xor    	edx, edx
  0x1842	dec    	eax
  0x1843	lea    	eax, [ecx - 1]
  0x1846	dec    	eax
  0x1847	cmp    	eax, -3
  === BLOCK LINK ===
    0x184a
=== CODE BLOCK END ===

=== CODE BLOCK ADDRESS 0x184a ===
  0x184a	ja     	0x1888
  === BLOCK LINK ===
    0x184c
=== CODE BLOCK END ===

=== CODE BLOCK ADDRESS 0x184c ===
  0x184c	mov    	eax, 0x5a4d
  0x1851	cmp    	word ptr [ecx], ax
  0x1854	jne    	0x1880
  === BLOCK LINK ===
    0x1856
=== CODE BLOCK END ===

=== CODE BLOCK ADDRESS 0x1856 ===
  0x1856	cmp    	dword ptr [ecx + 0x3c], edx
  0x1859	jl     	0x1880
  === BLOCK LINK ===
    0x185b
=== CODE BLOCK END ===

=== CODE BLOCK ADDRESS 0x185b ===
  0x185b	cmp    	dword ptr [ecx + 0x3c], 0x10000000
  0x1862	jae    	0x1880
  === BLOCK LINK ===
    0x1864
=== CODE BLOCK END ===

=== CODE BLOCK ADDRESS 0x1864 ===
  0x1864	dec    	eax
  0x1865	arpl   	word ptr [ecx + 0x3c], ax
  0x1868	dec    	eax
  0x1869	add    	eax, ecx
  0x186b	dec    	eax
  === BLOCK LINK ===
    0x186c
=== CODE BLOCK END ===

=== CODE BLOCK ADDRESS 0x186c ===
  0x186c	mov    	dword ptr [esp], eax
  0x186f	cmp    	dword ptr [eax], 0x4550
  0x1875	dec    	eax
  0x1876	cmovne  	eax, edx
  0x1879	dec    	eax
  === BLOCK LINK ===
    0x187a
=== CODE BLOCK END ===

=== CODE BLOCK ADDRESS 0x187a ===
  0x187a	mov    	edx, eax
  0x187c	dec    	eax
  0x187d	mov    	dword ptr [esp], eax
  0x1880	jmp    	0x1888
  === BLOCK LINK ===
    0x1882
=== CODE BLOCK END ===

=== CODE BLOCK ADDRESS 0x1882 ===
  0x1882	xor    	edx, edx
  0x1884	dec    	eax
  0x1885	mov    	dword ptr [esp], edx
  0x1888	dec    	eax
  0x1889	mov    	eax, edx
  === BLOCK LINK ===
    0x188b
=== CODE BLOCK END ===

=== CODE BLOCK ADDRESS 0x188b ===
  0x188b	dec    	eax
  0x188c	add    	esp, 0x18
  0x188f	ret    	
  0x1890	int3   	
  0x1891	int3   	
  === BLOCK LINK ===
    0x1892
=== CODE BLOCK END ===

=== CODE BLOCK ADDRESS 0x1892 ===
  0x1892	int3   	
  0x1893	int3   	
  0x1894	int3   	
  0x1895	int3   	
  0x1896	int3   	
  === BLOCK LINK ===
    0x1897
=== CODE BLOCK END ===

=== CODE BLOCK ADDRESS 0x1897 ===
  0x1897	int3   	
  0x1898	inc    	eax
  0x1899	push   	ebx
  0x189a	dec    	eax
  0x189b	sub    	esp, 0x20
  === BLOCK LINK ===
    0x189e
=== CODE BLOCK END ===

=== CODE BLOCK ADDRESS 0x189e ===
  0x189e	mov    	ebx, ecx
  0x18a0	xor    	ecx, ecx
  0x18a2	call   	dword ptr [0x928]
  === BLOCK LINK ===
    0x18a8
=== CODE BLOCK END ===

=== CODE BLOCK ADDRESS 0x18a8 ===
  0x18a8	dec    	eax
  0x18a9	test   	eax, eax
  0x18ab	je     	0x18d5
  === BLOCK LINK ===
    0x18ad
=== CODE BLOCK END ===

=== CODE BLOCK ADDRESS 0x18ad ===
  0x18ad	dec    	eax
  0x18ae	mov    	ecx, eax
  0x18b0	call   	0x183c
  === BLOCK LINK ===
    0x18b5
=== CODE BLOCK END ===

=== CODE BLOCK ADDRESS 0x18b5 ===
  0x18b5	dec    	eax
  0x18b6	test   	eax, eax
  0x18b8	je     	0x18d5
  === BLOCK LINK ===
    0x18ba
=== CODE BLOCK END ===

=== CODE BLOCK ADDRESS 0x18ba ===
  0x18ba	mov    	ecx, 2
  0x18bf	cmp    	word ptr [eax + 0x5c], cx
  0x18c3	jne    	0x18c9
  === BLOCK LINK ===
    0x18c5
=== CODE BLOCK END ===

=== CODE BLOCK ADDRESS 0x18c5 ===
  0x18c5	mov    	eax, ecx
  0x18c7	jmp    	0x18d7
  === BLOCK LINK ===
    0x18c9
=== CODE BLOCK END ===

=== CODE BLOCK ADDRESS 0x18c9 ===
  0x18c9	cmp    	word ptr [eax + 0x5c], 3
  0x18ce	mov    	eax, 1
  0x18d3	je     	0x18d7
  === BLOCK LINK ===
    0x18d5
=== CODE BLOCK END ===

=== CODE BLOCK ADDRESS 0x18d5 ===
  0x18d5	mov    	eax, ebx
  0x18d7	dec    	eax
  0x18d8	add    	esp, 0x20
  0x18db	pop    	ebx
  0x18dc	ret    	
  === BLOCK LINK ===
    0x18dd
=== CODE BLOCK END ===

=== CODE BLOCK ADDRESS 0x18dd ===
  0x18dd	int3   	
  0x18de	int3   	
  0x18df	int3   	
  0x18e0	int3   	
  0x18e1	int3   	
  === BLOCK LINK ===
    0x18e2
=== CODE BLOCK END ===

=== CODE BLOCK ADDRESS 0x18e2 ===
  0x18e2	int3   	
  0x18e3	jmp    	dword ptr [0x997]
  === BLOCK LINK ===
    0x18e9
=== CODE BLOCK END ===

=== CODE BLOCK ADDRESS 0x18e9 ===
  0x18e9	int3   	
  0x18ea	int3   	
  0x18eb	int3   	
  0x18ec	int3   	
  0x18ed	int3   	
  === BLOCK LINK ===
    0x18ee
=== CODE BLOCK END ===

=== CODE BLOCK ADDRESS 0x18ee ===
  0x18ee	int3   	
  0x18ef	int3   	
  0x18f0	xor    	eax, eax
  0x18f2	ret    	
  0x18f3	int3   	
  === BLOCK LINK ===
    0x18f4
=== CODE BLOCK END ===

=== CODE BLOCK ADDRESS 0x18f4 ===
  0x18f4	int3   	
  0x18f5	int3   	
  0x18f6	int3   	
  0x18f7	int3   	
  0x18f8	int3   	
  === BLOCK LINK ===
    0x18f9
=== CODE BLOCK END ===

=== CODE BLOCK ADDRESS 0x18f9 ===
  0x18f9	int3   	
  0x18fa	int3   	
  0x18fb	int3   	
  0x18fc	int3   	
  0x18fd	int3   	
  === BLOCK LINK ===
    0x18fe
=== CODE BLOCK END ===

=== CODE BLOCK ADDRESS 0x18fe ===
  0x18fe	int3   	
  0x18ff	int3   	
  0x1900	dec    	esp
  0x1901	arpl   	word ptr [ecx + 0x3c], ax
  0x1904	inc    	ebp
  === BLOCK LINK ===
    0x1905
=== CODE BLOCK END ===

=== CODE BLOCK ADDRESS 0x1905 ===
  0x1905	xor    	ecx, ecx
  0x1907	dec    	esp
  0x1908	add    	eax, ecx
  0x190a	dec    	esp
  0x190b	mov    	edx, edx
  === BLOCK LINK ===
    0x190d
=== CODE BLOCK END ===

=== CODE BLOCK ADDRESS 0x190d ===
  0x190d	inc    	ecx
  0x190e	movzx  	eax, word ptr [eax + 0x14]
  0x1912	inc    	ebp
  0x1913	movzx  	ebx, word ptr [eax + 6]
  0x1917	dec    	eax
  === BLOCK LINK ===
    0x1918
=== CODE BLOCK END ===

=== CODE BLOCK ADDRESS 0x1918 ===
  0x1918	add    	eax, 0x18
  0x191b	dec    	ecx
  0x191c	add    	eax, eax
  0x191e	inc    	ebp
  0x191f	test   	ebx, ebx
  === BLOCK LINK ===
    0x1921
=== CODE BLOCK END ===

=== CODE BLOCK ADDRESS 0x1921 ===
  0x1921	je     	0x1941
  === BLOCK LINK ===
    0x1923
=== CODE BLOCK END ===

=== CODE BLOCK ADDRESS 0x1923 ===
  0x1923	mov    	edx, dword ptr [eax + 0xc]
  0x1926	dec    	esp
  0x1927	cmp    	edx, edx
  0x1929	jb     	0x1935
  === BLOCK LINK ===
    0x192b
=== CODE BLOCK END ===

=== CODE BLOCK ADDRESS 0x192b ===
  0x192b	mov    	ecx, dword ptr [eax + 8]
  0x192e	add    	ecx, edx
  0x1930	dec    	esp
  0x1931	cmp    	edx, ecx
  0x1933	jb     	0x1943
  === BLOCK LINK ===
    0x1935
=== CODE BLOCK END ===

=== CODE BLOCK ADDRESS 0x1935 ===
  0x1935	inc    	ecx
  0x1936	inc    	ecx
  0x1938	dec    	eax
  0x1939	add    	eax, 0x28
  0x193c	inc    	ebp
  === BLOCK LINK ===
    0x193d
=== CODE BLOCK END ===

=== CODE BLOCK ADDRESS 0x193d ===
  0x193d	cmp    	ecx, ebx
  0x193f	jb     	0x1923
  === BLOCK LINK ===
    0x1941
=== CODE BLOCK END ===

=== CODE BLOCK ADDRESS 0x1941 ===
  0x1941	xor    	eax, eax
  0x1943	ret    	
  0x1944	int3   	
  0x1945	int3   	
  0x1946	int3   	
  === BLOCK LINK ===
    0x1947
=== CODE BLOCK END ===

=== CODE BLOCK ADDRESS 0x1947 ===
  0x1947	int3   	
  0x1948	int3   	
  0x1949	int3   	
  0x194a	int3   	
  0x194b	int3   	
  === BLOCK LINK ===
    0x194c
=== CODE BLOCK END ===

=== CODE BLOCK ADDRESS 0x194c ===
  0x194c	int3   	
  0x194d	int3   	
  0x194e	int3   	
  0x194f	int3   	
  0x1950	dec    	eax
  === BLOCK LINK ===
    0x1951
=== CODE BLOCK END ===

=== CODE BLOCK ADDRESS 0x1951 ===
  0x1951	mov    	dword ptr [esp + 8], ebx
  0x1955	push   	edi
  0x1956	dec    	eax
  0x1957	sub    	esp, 0x20
  0x195a	dec    	eax
  === BLOCK LINK ===
    0x195b
=== CODE BLOCK END ===

=== CODE BLOCK ADDRESS 0x195b ===
  0x195b	mov    	ebx, ecx
  0x195d	dec    	eax
  0x195e	lea    	edi, [0xffffe69c]
  0x1964	dec    	eax
  0x1965	mov    	ecx, edi
  === BLOCK LINK ===
    0x1967
=== CODE BLOCK END ===

=== CODE BLOCK ADDRESS 0x1967 ===
  0x1967	call   	0x19b0
  === BLOCK LINK ===
    0x196c
=== CODE BLOCK END ===

=== CODE BLOCK ADDRESS 0x196c ===
  0x196c	test   	eax, eax
  0x196e	je     	0x1992
  === BLOCK LINK ===
    0x1970
=== CODE BLOCK END ===

=== CODE BLOCK ADDRESS 0x1970 ===
  0x1970	dec    	eax
  0x1971	sub    	ebx, edi
  0x1973	dec    	eax
  0x1974	mov    	edx, ebx
  0x1976	dec    	eax
  === BLOCK LINK ===
    0x1977
=== CODE BLOCK END ===

=== CODE BLOCK ADDRESS 0x1977 ===
  0x1977	mov    	ecx, edi
  0x1979	call   	0x1900
  === BLOCK LINK ===
    0x197e
=== CODE BLOCK END ===

=== CODE BLOCK ADDRESS 0x197e ===
  0x197e	dec    	eax
  0x197f	test   	eax, eax
  0x1981	je     	0x1992
  === BLOCK LINK ===
    0x1983
=== CODE BLOCK END ===

=== CODE BLOCK ADDRESS 0x1983 ===
  0x1983	mov    	eax, dword ptr [eax + 0x24]
  0x1986	shr    	eax, 0x1f
  0x1989	not    	eax
  0x198b	and    	eax, 1
  0x198e	jmp    	0x1992
  === BLOCK LINK ===
    0x1990
=== CODE BLOCK END ===

=== CODE BLOCK ADDRESS 0x1990 ===
  0x1990	xor    	eax, eax
  0x1992	dec    	eax
  0x1993	mov    	ebx, dword ptr [esp + 0x30]
  0x1997	dec    	eax
  0x1998	add    	esp, 0x20
  === BLOCK LINK ===
    0x199b
=== CODE BLOCK END ===

=== CODE BLOCK ADDRESS 0x199b ===
  0x199b	pop    	edi
  0x199c	ret    	
  0x199d	int3   	
  0x199e	int3   	
  0x199f	int3   	
  === BLOCK LINK ===
    0x19a0
=== CODE BLOCK END ===

=== CODE BLOCK ADDRESS 0x111d ===
=== CODE BLOCK END ===

=== CODE BLOCK ADDRESS 0x19a0 ===
  0x19a0	int3   	
  0x19a1	int3   	
  0x19a2	int3   	
  0x19a3	int3   	
  0x19a4	int3   	
  === BLOCK LINK ===
    0x19a5
=== CODE BLOCK END ===

=== CODE BLOCK ADDRESS 0x19a5 ===
  0x19a5	int3   	
  0x19a6	int3   	
  0x19a7	int3   	
  0x19a8	int3   	
  0x19a9	int3   	
  === BLOCK LINK ===
    0x19aa
=== CODE BLOCK END ===

=== CODE BLOCK ADDRESS 0x19aa ===
  0x19aa	int3   	
  0x19ab	int3   	
  0x19ac	int3   	
  0x19ad	int3   	
  0x19ae	int3   	
  === BLOCK LINK ===
    0x19af
=== CODE BLOCK END ===

=== CODE BLOCK ADDRESS 0x19af ===
  0x19af	int3   	
  0x19b0	mov    	eax, 0x5a4d
  0x19b5	cmp    	word ptr [ecx], ax
  0x19b8	jne    	0x19da
  === BLOCK LINK ===
    0x19ba
=== CODE BLOCK END ===

=== CODE BLOCK ADDRESS 0x19ba ===
  0x19ba	dec    	eax
  0x19bb	arpl   	word ptr [ecx + 0x3c], ax
  0x19be	dec    	eax
  0x19bf	add    	eax, ecx
  0x19c1	cmp    	dword ptr [eax], 0x4550
  === BLOCK LINK ===
    0x19c7
=== CODE BLOCK END ===

=== CODE BLOCK ADDRESS 0x19c7 ===
  0x19c7	jne    	0x19da
  === BLOCK LINK ===
    0x19c9
=== CODE BLOCK END ===

=== CODE BLOCK ADDRESS 0x19c9 ===
  0x19c9	mov    	ecx, 0x20b
  0x19ce	cmp    	word ptr [eax + 0x18], cx
  0x19d2	jne    	0x19da
  === BLOCK LINK ===
    0x19d4
=== CODE BLOCK END ===

=== CODE BLOCK ADDRESS 0x19d4 ===
  0x19d4	mov    	eax, 1
  0x19d9	ret    	
  0x19da	xor    	eax, eax
  0x19dc	ret    	
  0x19dd	int3   	
  === BLOCK LINK ===
    0x19de
=== CODE BLOCK END ===

=== CODE BLOCK ADDRESS 0x1163 ===
  0x1163	test   	ecx, ecx
  0x1165	js     	0x1207
  === BLOCK LINK ===
    0x116b
=== CODE BLOCK END ===

=== CODE BLOCK ADDRESS 0x19de ===
  0x19de	int3   	
  0x19df	int3   	
  0x19e0	int3   	
  0x19e1	int3   	
  0x19e2	int3   	
  === BLOCK LINK ===
    0x19e3
=== CODE BLOCK END ===

=== CODE BLOCK ADDRESS 0x19e3 ===
  0x19e3	int3   	
  0x19e4	dec    	eax
  0x19e5	mov    	dword ptr [esp + 0x20], ebx
  0x19e9	push   	ebp
  0x19ea	dec    	eax
  === BLOCK LINK ===
    0x19eb
=== CODE BLOCK END ===

=== CODE BLOCK ADDRESS 0x19eb ===
  0x19eb	mov    	ebp, esp
  0x19ed	dec    	eax
  0x19ee	sub    	esp, 0x20
  0x19f1	dec    	eax
  0x19f2	and    	dword ptr [ebp + 0x18], 0
  === BLOCK LINK ===
    0x19f6
=== CODE BLOCK END ===

=== CODE BLOCK ADDRESS 0x19f6 ===
  0x19f6	dec    	eax
  0x19f7	mov    	ebx, 0x2ddfa232
  0x19fc	cdq    	
  0x19fd	sub    	eax, dword ptr [eax]
  0x19ff	add    	byte ptr [eax - 0x75], cl
  === BLOCK LINK ===
    0x1a02
=== CODE BLOCK END ===

=== CODE BLOCK ADDRESS 0x1a02 ===
  0x1a02	add    	eax, 0x1601
  0x1a07	dec    	eax
  0x1a08	cmp    	eax, ebx
  0x1a0a	jne    	0x1aa3
  === BLOCK LINK ===
    0x1a10
=== CODE BLOCK END ===

=== CODE BLOCK ADDRESS 0x1a10 ===
  0x1a10	dec    	eax
  0x1a11	lea    	ecx, [ebp + 0x18]
  0x1a14	call   	dword ptr [0x7d6]
  === BLOCK LINK ===
    0x1a1a
=== CODE BLOCK END ===

=== CODE BLOCK ADDRESS 0x1a1a ===
  0x1a1a	dec    	eax
  0x1a1b	mov    	eax, dword ptr [ebp + 0x18]
  0x1a1e	dec    	eax
  0x1a1f	mov    	dword ptr [ebp + 0x10], eax
  0x1a22	call   	dword ptr [0x780]
  === BLOCK LINK ===
    0x1a28
=== CODE BLOCK END ===

=== CODE BLOCK ADDRESS 0x1a28 ===
  0x1a28	mov    	eax, eax
  0x1a2a	dec    	eax
  0x1a2b	xor    	dword ptr [ebp + 0x10], eax
  0x1a2e	call   	dword ptr [0x7e4]
  === BLOCK LINK ===
    0x1a34
=== CODE BLOCK END ===

=== CODE BLOCK ADDRESS 0x1a34 ===
  0x1a34	mov    	eax, eax
  0x1a36	dec    	eax
  0x1a37	xor    	dword ptr [ebp + 0x10], eax
  0x1a3a	call   	dword ptr [0x7b8]
  === BLOCK LINK ===
    0x1a40
=== CODE BLOCK END ===

=== CODE BLOCK ADDRESS 0x1a40 ===
  0x1a40	mov    	eax, eax
  0x1a42	dec    	eax
  0x1a43	shl    	eax, 0x18
  0x1a46	dec    	eax
  0x1a47	xor    	dword ptr [ebp + 0x10], eax
  === BLOCK LINK ===
    0x1a4a
=== CODE BLOCK END ===

=== CODE BLOCK ADDRESS 0x1a4a ===
  0x1a4a	call   	dword ptr [0x7a8]
  === BLOCK LINK ===
    0x1a50
=== CODE BLOCK END ===

=== CODE BLOCK ADDRESS 0x1a50 ===
  0x1a50	mov    	eax, eax
  0x1a52	dec    	eax
  0x1a53	lea    	ecx, [ebp + 0x10]
  0x1a56	dec    	eax
  0x1a57	xor    	eax, dword ptr [ebp + 0x10]
  === BLOCK LINK ===
    0x1a5a
=== CODE BLOCK END ===

=== CODE BLOCK ADDRESS 0x1a5a ===
  0x1a5a	dec    	eax
  0x1a5b	xor    	eax, ecx
  0x1a5d	dec    	eax
  0x1a5e	lea    	ecx, [ebp + 0x20]
  0x1a61	dec    	eax
  === BLOCK LINK ===
    0x1a62
=== CODE BLOCK END ===

=== CODE BLOCK ADDRESS 0x1a62 ===
  0x1a62	mov    	dword ptr [ebp + 0x10], eax
  0x1a65	call   	dword ptr [0x75d]
  === BLOCK LINK ===
    0x1a6b
=== CODE BLOCK END ===

=== CODE BLOCK ADDRESS 0x1a6b ===
  0x1a6b	mov    	eax, dword ptr [ebp + 0x20]
  0x1a6e	dec    	eax
  0x1a6f	mov    	ecx, 0xffffffff
  0x1a74	.byte  	0xff
  0x1a75	inc    	dword ptr [eax]
  === BLOCK LINK ===
    0x1a77
=== CODE BLOCK END ===

=== CODE BLOCK ADDRESS 0x1a77 ===
  0x1a77	add    	byte ptr [eax - 0x3f], cl
  0x1a7a	loopne  	0x1a9c
  === BLOCK LINK ===
    0x1a7c
=== CODE BLOCK END ===

=== CODE BLOCK ADDRESS 0x1a7c ===
  0x1a7c	dec    	eax
  0x1a7d	xor    	eax, dword ptr [ebp + 0x20]
  0x1a80	dec    	eax
  0x1a81	xor    	eax, dword ptr [ebp + 0x10]
  0x1a84	dec    	eax
  === BLOCK LINK ===
    0x1a85
=== CODE BLOCK END ===

=== CODE BLOCK ADDRESS 0x1a85 ===
  0x1a85	and    	eax, ecx
  0x1a87	dec    	eax
  0x1a88	mov    	ecx, eax
  0x1a8a	dec    	eax
  0x1a8b	cmp    	eax, ebx
  === BLOCK LINK ===
    0x1a8d
=== CODE BLOCK END ===

=== CODE BLOCK ADDRESS 0x1a8d ===
  0x1a8d	jne    	0x1a9c
  === BLOCK LINK ===
    0x1a8f
=== CODE BLOCK END ===

=== CODE BLOCK ADDRESS 0x1a8f ===
  0x1a8f	dec    	eax
  0x1a90	mov    	eax, 0x2ddfa233
  0x1a95	cdq    	
  0x1a96	sub    	eax, dword ptr [eax]
  0x1a98	add    	byte ptr [eax - 0x75], cl
  === BLOCK LINK ===
    0x1a9b
=== CODE BLOCK END ===

=== CODE BLOCK ADDRESS 0x1a9b ===
  0x1a9b	enter  	-0x76b8, 0xd
  0x1a9f	adc    	eax, 0x8b480000
  0x1aa5	pop    	esp
  0x1aa6	and    	al, 0x48
  0x1aa8	dec    	eax
  === BLOCK LINK ===
    0x1aa9
=== CODE BLOCK END ===

=== CODE BLOCK ADDRESS 0x1aa9 ===
  0x1aa9	not    	eax
  0x1aab	dec    	eax
  0x1aac	mov    	dword ptr [0x155e], eax
  0x1ab2	dec    	eax
  0x1ab3	add    	esp, 0x20
  === BLOCK LINK ===
    0x1ab6
=== CODE BLOCK END ===

=== CODE BLOCK ADDRESS 0x1ab6 ===
  0x1ab6	pop    	ebp
  0x1ab7	ret    	
  0x1ab8	int3   	
  0x1ab9	int3   	
  0x1aba	int3   	
  === BLOCK LINK ===
    0x1abb
=== CODE BLOCK END ===

=== CODE BLOCK ADDRESS 0x1abb ===
  0x1abb	int3   	
  0x1abc	int3   	
  0x1abd	int3   	
  0x1abe	jmp    	dword ptr [0x7dc]
  === BLOCK LINK ===
    0x1ac4
=== CODE BLOCK END ===

=== CODE BLOCK ADDRESS 0x1ac4 ===
  0x1ac4	int3   	
  0x1ac5	int3   	
  0x1ac6	int3   	
  0x1ac7	int3   	
  0x1ac8	int3   	
  === BLOCK LINK ===
    0x1ac9
=== CODE BLOCK END ===

=== CODE BLOCK ADDRESS 0x1ac9 ===
  0x1ac9	int3   	
  0x1aca	jmp    	dword ptr [0x7a0]
  === BLOCK LINK ===
    0x1ad0
=== CODE BLOCK END ===

=== CODE BLOCK ADDRESS 0x1ad0 ===
  0x1ad0	int3   	
  0x1ad1	int3   	
  0x1ad2	int3   	
  0x1ad3	int3   	
  0x1ad4	int3   	
  === BLOCK LINK ===
    0x1ad5
=== CODE BLOCK END ===

=== CODE BLOCK ADDRESS 0x1ad5 ===
  0x1ad5	int3   	
  0x1ad6	int3   	
  0x1ad7	int3   	
  0x1ad8	int3   	
  0x1ad9	int3   	
  === BLOCK LINK ===
    0x1ada
=== CODE BLOCK END ===

=== CODE BLOCK ADDRESS 0x1ada ===
  0x1ada	int3   	
  0x1adb	int3   	
  0x1adc	int3   	
  0x1add	int3   	
  0x1ade	int3   	
  === BLOCK LINK ===
    0x1adf
=== CODE BLOCK END ===

=== CODE BLOCK ADDRESS 0x1adf ===
  0x1adf	int3   	
  0x1ae0	ret    	0
  0x1ae3	int3   	
  0x1ae4	int3   	
  0x1ae5	int3   	
  === BLOCK LINK ===
    0x1ae6
=== CODE BLOCK END ===

=== CODE BLOCK ADDRESS 0x1ae6 ===
  0x1ae6	int3   	
  0x1ae7	int3   	
  0x1ae8	int3   	
  0x1ae9	int3   	
  0x1aea	int3   	
  === BLOCK LINK ===
    0x1aeb
=== CODE BLOCK END ===

=== CODE BLOCK ADDRESS 0x1aeb ===
  0x1aeb	int3   	
  0x1aec	inc    	eax
  0x1aed	push   	ebx
  0x1aee	dec    	eax
  0x1aef	sub    	esp, 0x20
  === BLOCK LINK ===
    0x1af2
=== CODE BLOCK END ===

=== CODE BLOCK ADDRESS 0x1af2 ===
  0x1af2	dec    	eax
  0x1af3	mov    	ebx, ecx
  0x1af5	xor    	ecx, ecx
  0x1af7	call   	dword ptr [0x6db]
  === BLOCK LINK ===
    0x1afd
=== CODE BLOCK END ===

=== CODE BLOCK ADDRESS 0x1afd ===
  0x1afd	dec    	eax
  0x1afe	mov    	ecx, ebx
  0x1b00	call   	dword ptr [0x6fa]
  === BLOCK LINK ===
    0x1b06
=== CODE BLOCK END ===

=== CODE BLOCK ADDRESS 0x1b06 ===
  0x1b06	call   	dword ptr [0x6fc]
  === BLOCK LINK ===
    0x1b0c
=== CODE BLOCK END ===

=== CODE BLOCK ADDRESS 0x1b0c ===
  0x1b0c	dec    	eax
  0x1b0d	mov    	ecx, eax
  0x1b0f	mov    	edx, 0xc0000409
  0x1b14	dec    	eax
  0x1b15	add    	esp, 0x20
  === BLOCK LINK ===
    0x1b18
=== CODE BLOCK END ===

=== CODE BLOCK ADDRESS 0x1b18 ===
  0x1b18	pop    	ebx
  0x1b19	dec    	eax
  0x1b1a	jmp    	dword ptr [0x6f0]
  === BLOCK LINK ===
    0x1b20
=== CODE BLOCK END ===

=== CODE BLOCK ADDRESS 0x1b20 ===
  0x1b20	int3   	
  0x1b21	int3   	
  0x1b22	int3   	
  0x1b23	int3   	
  0x1b24	int3   	
  === BLOCK LINK ===
    0x1b25
=== CODE BLOCK END ===

=== CODE BLOCK ADDRESS 0x1b25 ===
  0x1b25	int3   	
  0x1b26	int3   	
  0x1b27	int3   	
  0x1b28	int3   	
  0x1b29	int3   	
  === BLOCK LINK ===
    0x1b2a
=== CODE BLOCK END ===

=== CODE BLOCK ADDRESS 0x1b2a ===
  0x1b2a	int3   	
  0x1b2b	int3   	
  0x1b2c	int3   	
  0x1b2d	int3   	
  0x1b2e	int3   	
  === BLOCK LINK ===
    0x1b2f
=== CODE BLOCK END ===

=== CODE BLOCK ADDRESS 0x1b2f ===
  0x1b2f	int3   	
  0x1b30	dec    	eax
  0x1b31	mov    	dword ptr [esp + 8], ecx
  0x1b35	dec    	eax
  0x1b36	sub    	esp, 0x88
  === BLOCK LINK ===
    0x1b3c
=== CODE BLOCK END ===

=== CODE BLOCK ADDRESS 0x1b3c ===
  0x1b3c	dec    	eax
  0x1b3d	lea    	ecx, [0x15bd]
  0x1b43	call   	dword ptr [0x797]
  === BLOCK LINK ===
    0x1b49
=== CODE BLOCK END ===

=== CODE BLOCK ADDRESS 0x1b49 ===
  0x1b49	dec    	eax
  0x1b4a	mov    	eax, dword ptr [0x16a8]
  0x1b50	dec    	eax
  0x1b51	mov    	dword ptr [esp + 0x48], eax
  0x1b55	inc    	ebp
  === BLOCK LINK ===
    0x1b56
=== CODE BLOCK END ===

=== CODE BLOCK ADDRESS 0x1b56 ===
  0x1b56	xor    	eax, eax
  0x1b58	dec    	eax
  0x1b59	lea    	edx, [esp + 0x50]
  0x1b5d	dec    	eax
  0x1b5e	mov    	ecx, dword ptr [esp + 0x48]
  === BLOCK LINK ===
    0x1b62
=== CODE BLOCK END ===

=== CODE BLOCK ADDRESS 0x1b62 ===
  0x1b62	call   	dword ptr [0x780]
  === BLOCK LINK ===
    0x1b68
=== CODE BLOCK END ===

=== CODE BLOCK ADDRESS 0x1b68 ===
  0x1b68	dec    	eax
  0x1b69	mov    	dword ptr [esp + 0x40], eax
  0x1b6d	dec    	eax
  0x1b6e	cmp    	dword ptr [esp + 0x40], 0
  0x1b73	je     	0x1bb7
  === BLOCK LINK ===
    0x1b75
=== CODE BLOCK END ===

=== CODE BLOCK ADDRESS 0x1b75 ===
  0x1b75	dec    	eax
  0x1b76	mov    	dword ptr [esp + 0x38], 0
  0x1b7e	dec    	eax
  0x1b7f	lea    	eax, [esp + 0x58]
  0x1b83	dec    	eax
  === BLOCK LINK ===
    0x1b84
=== CODE BLOCK END ===

=== CODE BLOCK ADDRESS 0x1b84 ===
  0x1b84	mov    	dword ptr [esp + 0x30], eax
  0x1b88	dec    	eax
  0x1b89	lea    	eax, [esp + 0x60]
  0x1b8d	dec    	eax
  0x1b8e	mov    	dword ptr [esp + 0x28], eax
  === BLOCK LINK ===
    0x1b92
=== CODE BLOCK END ===

=== CODE BLOCK ADDRESS 0x1b92 ===
  0x1b92	dec    	eax
  0x1b93	lea    	eax, [0x1567]
  0x1b99	dec    	eax
  0x1b9a	mov    	dword ptr [esp + 0x20], eax
  0x1b9e	dec    	esp
  === BLOCK LINK ===
    0x1b9f
=== CODE BLOCK END ===

=== CODE BLOCK ADDRESS 0x1b9f ===
  0x1b9f	mov    	ecx, dword ptr [esp + 0x40]
  0x1ba3	dec    	esp
  0x1ba4	mov    	eax, dword ptr [esp + 0x48]
  0x1ba8	dec    	eax
  0x1ba9	mov    	edx, dword ptr [esp + 0x50]
  === BLOCK LINK ===
    0x1bad
=== CODE BLOCK END ===

=== CODE BLOCK ADDRESS 0x1bad ===
  0x1bad	xor    	ecx, ecx
  0x1baf	call   	dword ptr [0x73b]
  === BLOCK LINK ===
    0x1bb5
=== CODE BLOCK END ===

=== CODE BLOCK ADDRESS 0x1bb5 ===
  0x1bb5	jmp    	0x1bda
  === BLOCK LINK ===
    0x1bb7
=== CODE BLOCK END ===

=== CODE BLOCK ADDRESS 0x1bb7 ===
  0x1bb7	dec    	eax
  0x1bb8	mov    	eax, dword ptr [0x15da]
  0x1bbe	dec    	eax
  0x1bbf	mov    	eax, dword ptr [eax]
  0x1bc1	dec    	eax
  === BLOCK LINK ===
    0x1bc2
=== CODE BLOCK END ===

=== CODE BLOCK ADDRESS 0x1bc2 ===
  0x1bc2	mov    	dword ptr [0x1630], eax
  0x1bc8	dec    	eax
  0x1bc9	mov    	eax, dword ptr [0x15c9]
  0x1bcf	dec    	eax
  0x1bd0	add    	eax, 8
  === BLOCK LINK ===
    0x1bd3
=== CODE BLOCK END ===

=== CODE BLOCK ADDRESS 0x1bd3 ===
  0x1bd3	dec    	eax
  0x1bd4	mov    	dword ptr [0x15be], eax
  0x1bda	dec    	eax
  0x1bdb	mov    	eax, dword ptr [0x1617]
  0x1be1	dec    	eax
  === BLOCK LINK ===
    0x1be2
=== CODE BLOCK END ===

=== CODE BLOCK ADDRESS 0x1be2 ===
  0x1be2	mov    	dword ptr [0x1488], eax
  0x1be8	dec    	eax
  0x1be9	mov    	eax, dword ptr [esp + 0x90]
  0x1bf0	dec    	eax
  0x1bf1	mov    	dword ptr [0x1589], eax
  === BLOCK LINK ===
    0x1bf7
=== CODE BLOCK END ===

=== CODE BLOCK ADDRESS 0x1bf7 ===
  0x1bf7	mov    	dword ptr [0x145f], 0xc0000409
  0x1c01	mov    	dword ptr [0x1459], 1
  0x1c0b	mov    	dword ptr [0x1463], 3
  0x1c15	mov    	eax, 8
  0x1c1a	dec    	eax
  === BLOCK LINK ===
    0x1c1b
=== CODE BLOCK END ===

=== CODE BLOCK ADDRESS 0x1c1b ===
  0x1c1b	imul   	eax, eax, 0
  0x1c1e	dec    	eax
  0x1c1f	lea    	ecx, [0x145b]
  0x1c25	dec    	eax
  0x1c26	mov    	dword ptr [ecx + eax], 2
  === BLOCK LINK ===
    0x1c2d
=== CODE BLOCK END ===

=== CODE BLOCK ADDRESS 0x1c2d ===
  0x1c2d	mov    	eax, 8
  0x1c32	dec    	eax
  0x1c33	imul   	eax, eax, 1
  0x1c36	dec    	eax
  0x1c37	lea    	ecx, [0x1443]
  === BLOCK LINK ===
    0x1c3d
=== CODE BLOCK END ===

=== CODE BLOCK ADDRESS 0x1c3d ===
  0x1c3d	dec    	eax
  0x1c3e	mov    	edx, dword ptr [0x13c4]
  0x1c44	dec    	eax
  0x1c45	mov    	dword ptr [ecx + eax], edx
  0x1c48	mov    	eax, 8
  === BLOCK LINK ===
    0x1c4d
=== CODE BLOCK END ===

=== CODE BLOCK ADDRESS 0x1c4d ===
  0x1c4d	dec    	eax
  0x1c4e	imul   	eax, eax, 2
  0x1c51	dec    	eax
  0x1c52	lea    	ecx, [0x1428]
  0x1c58	dec    	eax
  === BLOCK LINK ===
    0x1c59
=== CODE BLOCK END ===

=== CODE BLOCK ADDRESS 0x1c59 ===
  0x1c59	mov    	edx, dword ptr [0x13b1]
  0x1c5f	dec    	eax
  0x1c60	mov    	dword ptr [ecx + eax], edx
  0x1c63	mov    	eax, 8
  0x1c68	dec    	eax
  === BLOCK LINK ===
    0x1c69
=== CODE BLOCK END ===

=== CODE BLOCK ADDRESS 0x1c69 ===
  0x1c69	imul   	eax, eax, 0
  0x1c6c	dec    	eax
  0x1c6d	mov    	ecx, dword ptr [0x1395]
  0x1c73	dec    	eax
  0x1c74	mov    	dword ptr [esp + eax + 0x68], ecx
  === BLOCK LINK ===
    0x1c78
=== CODE BLOCK END ===

=== CODE BLOCK ADDRESS 0x1c78 ===
  0x1c78	mov    	eax, 8
  0x1c7d	dec    	eax
  0x1c7e	imul   	eax, eax, 1
  0x1c81	dec    	eax
  0x1c82	mov    	ecx, dword ptr [0x1388]
  === BLOCK LINK ===
    0x1c88
=== CODE BLOCK END ===

=== CODE BLOCK ADDRESS 0x1c88 ===
  0x1c88	dec    	eax
  0x1c89	mov    	dword ptr [esp + eax + 0x68], ecx
  0x1c8d	dec    	eax
  0x1c8e	lea    	ecx, [0x36c]
  0x1c94	call   	0x1aec
  === BLOCK LINK ===
    0x1c99
=== CODE BLOCK END ===

=== CODE BLOCK ADDRESS 0x1c99 ===
  0x1c99	dec    	eax
  0x1c9a	add    	esp, 0x88
  0x1ca0	ret    	
  0x1ca1	int3   	
  0x1ca2	int3   	
  === BLOCK LINK ===
    0x1ca3
=== CODE BLOCK END ===

=== CODE BLOCK ADDRESS 0x1ca3 ===
  0x1ca3	int3   	
  0x1ca4	int3   	
  0x1ca5	int3   	
  0x1ca6	int3   	
  0x1ca7	int3   	
  === BLOCK LINK ===
    0x1ca8
=== CODE BLOCK END ===

=== CODE BLOCK ADDRESS 0x1ca8 ===
  0x1ca8	int3   	
  0x1ca9	int3   	
  0x1caa	int3   	
  0x1cab	int3   	
  0x1cac	int3   	
  === BLOCK LINK ===
    0x1cad
=== CODE BLOCK END ===

=== CODE BLOCK ADDRESS 0x1cad ===
  0x1cad	int3   	
  0x1cae	int3   	
  0x1caf	int3   	
  0x1cb0	int3   	
  0x1cb1	int3   	
  === BLOCK LINK ===
    0x1cb2
=== CODE BLOCK END ===

=== CODE BLOCK ADDRESS 0x1cb2 ===
  0x1cb2	int3   	
  0x1cb3	int3   	
  0x1cb4	int3   	
  0x1cb5	int3   	
  0x1cb6	jmp    	dword ptr [0x614]
  === BLOCK LINK ===
    0x1cbc
=== CODE BLOCK END ===

=== CODE BLOCK ADDRESS 0x1cbc ===
  0x1cbc	int3   	
  0x1cbd	int3   	
  0x1cbe	int3   	
  0x1cbf	int3   	
  0x1cc0	int3   	
  === BLOCK LINK ===
    0x1cc1
=== CODE BLOCK END ===

=== CODE BLOCK ADDRESS 0x1cc1 ===
  0x1cc1	int3   	
  0x1cc2	int3   	
  0x1cc3	int3   	
  0x1cc4	int3   	
  0x1cc5	int3   	
  === BLOCK LINK ===
    0x1cc6
=== CODE BLOCK END ===

=== CODE BLOCK ADDRESS 0x1cc6 ===
  0x1cc6	nop    	word ptr [eax + eax]
  0x1cd0	jmp    	eax
  === BLOCK LINK ===
    0x1cd2
=== CODE BLOCK END ===

=== CODE BLOCK ADDRESS 0x1cd2 ===
  0x1cd2	int3   	
  0x1cd3	int3   	
  0x1cd4	int3   	
  0x1cd5	int3   	
  0x1cd6	int3   	
  === BLOCK LINK ===
    0x1cd7
=== CODE BLOCK END ===

=== CODE BLOCK ADDRESS 0x1cd7 ===
  0x1cd7	int3   	
  0x1cd8	int3   	
  0x1cd9	int3   	
  0x1cda	int3   	
  0x1cdb	int3   	
  === BLOCK LINK ===
    0x1cdc
=== CODE BLOCK END ===

=== CODE BLOCK ADDRESS 0x1cdc ===
  0x1cdc	int3   	
  0x1cdd	int3   	
  0x1cde	int3   	
  0x1cdf	int3   	
  0x1ce0	inc    	eax
  === BLOCK LINK ===
    0x1ce1
=== CODE BLOCK END ===

=== CODE BLOCK ADDRESS 0x1ce1 ===
  0x1ce1	push   	ebp
  0x1ce2	dec    	eax
  0x1ce3	sub    	esp, 0x20
  0x1ce6	dec    	eax
  0x1ce7	mov    	ebp, edx
  === BLOCK LINK ===
    0x1ce9
=== CODE BLOCK END ===

=== CODE BLOCK ADDRESS 0x1ce9 ===
  0x1ce9	dec    	eax
  0x1cea	mov    	eax, dword ptr [ecx]
  0x1cec	dec    	eax
  0x1ced	mov    	edx, ecx
  0x1cef	mov    	ecx, dword ptr [eax]
  === BLOCK LINK ===
    0x1cf1
=== CODE BLOCK END ===

=== CODE BLOCK ADDRESS 0x1cf1 ===
  0x1cf1	call   	0x182e
  === BLOCK LINK ===
    0x1cf6
=== CODE BLOCK END ===

=== CODE BLOCK ADDRESS 0x1cf6 ===
  0x1cf6	nop    	
  0x1cf7	dec    	eax
  0x1cf8	add    	esp, 0x20
  0x1cfb	pop    	ebp
  0x1cfc	ret    	
  === BLOCK LINK ===
    0x1cfd
=== CODE BLOCK END ===

=== CODE BLOCK ADDRESS 0x1cfd ===
  0x1cfd	int3   	
  0x1cfe	int3   	
  0x1cff	int3   	
  0x1d00	int3   	
  0x1d01	int3   	
  === BLOCK LINK ===
    0x1d02
=== CODE BLOCK END ===

=== CODE BLOCK ADDRESS 0x1d02 ===
  0x1d02	int3   	
  0x1d03	int3   	
  0x1d04	int3   	
  0x1d05	int3   	
  0x1d06	int3   	
  === BLOCK LINK ===
    0x1d07
=== CODE BLOCK END ===

=== CODE BLOCK ADDRESS 0x1d07 ===
  0x1d07	int3   	
  0x1d08	int3   	
  0x1d09	int3   	
  0x1d0a	int3   	
  0x1d0b	int3   	
  === BLOCK LINK ===
    0x1d0c
=== CODE BLOCK END ===

=== CODE BLOCK ADDRESS 0x1d0c ===
  0x1d0c	int3   	
  0x1d0d	int3   	
  0x1d0e	int3   	
  0x1d0f	int3   	
  0x1d10	inc    	eax
  === BLOCK LINK ===
    0x1d11
=== CODE BLOCK END ===

=== CODE BLOCK ADDRESS 0x1d11 ===
  0x1d11	push   	ebp
  0x1d12	dec    	eax
  0x1d13	sub    	esp, 0x20
  0x1d16	dec    	eax
  0x1d17	mov    	ebp, edx
  === BLOCK LINK ===
    0x1d19
=== CODE BLOCK END ===

=== CODE BLOCK ADDRESS 0x1d19 ===
  0x1d19	dec    	eax
  0x1d1a	mov    	eax, dword ptr [ecx]
  0x1d1c	xor    	ecx, ecx
  0x1d1e	cmp    	dword ptr [eax], 0xc0000005
  0x1d24	sete   	cl
  === BLOCK LINK ===
    0x1d27
=== CODE BLOCK END ===

=== CODE BLOCK ADDRESS 0x1d27 ===
  0x1d27	mov    	eax, ecx
  0x1d29	dec    	eax
  0x1d2a	add    	esp, 0x20
  0x1d2d	pop    	ebp
  0x1d2e	ret    	
  === BLOCK LINK ===
    0x1d2f
=== CODE BLOCK END ===

=== CODE BLOCK ADDRESS 0x1d2f ===
  0x1d2f	int3   	
  0x1d30	add    	byte ptr [eax], al
  0x1d32	add    	byte ptr [eax], al
  0x1d34	add    	byte ptr [eax], al
  0x1d36	add    	byte ptr [eax], al
  === BLOCK LINK ===
    0x1d38
=== CODE BLOCK END ===

=== CODE BLOCK ADDRESS 0x1d38 ===
  0x1d38	add    	byte ptr [eax], al
  0x1d3a	add    	byte ptr [eax], al
  0x1d3c	add    	byte ptr [eax], al
  0x1d3e	add    	byte ptr [eax], al
  0x1d40	add    	byte ptr [eax], al
  === BLOCK LINK ===
    0x1d42
=== CODE BLOCK END ===

=== CODE BLOCK ADDRESS 0x1d42 ===
  0x1d42	add    	byte ptr [eax], al
  0x1d44	add    	byte ptr [eax], al
  0x1d46	add    	byte ptr [eax], al
  0x1d48	add    	byte ptr [eax], al
  0x1d4a	add    	byte ptr [eax], al
  === BLOCK LINK ===
    0x1d4c
=== CODE BLOCK END ===

=== CODE BLOCK ADDRESS 0x1d4c ===
  0x1d4c	add    	byte ptr [eax], al
  0x1d4e	add    	byte ptr [eax], al
  0x1d50	add    	byte ptr [eax], al
  0x1d52	add    	byte ptr [eax], al
  0x1d54	add    	byte ptr [eax], al
  === BLOCK LINK ===
    0x1d56
=== CODE BLOCK END ===

=== CODE BLOCK ADDRESS 0x1d56 ===
  0x1d56	add    	byte ptr [eax], al
  0x1d58	add    	byte ptr [eax], al
  0x1d5a	add    	byte ptr [eax], al
  0x1d5c	add    	byte ptr [eax], al
  0x1d5e	add    	byte ptr [eax], al
  === BLOCK LINK ===
    0x1d60
=== CODE BLOCK END ===

=== CODE BLOCK ADDRESS 0x1d60 ===
  0x1d60	add    	byte ptr [eax], al
  0x1d62	add    	byte ptr [eax], al
  0x1d64	add    	byte ptr [eax], al
  0x1d66	add    	byte ptr [eax], al
  0x1d68	add    	byte ptr [eax], al
  === BLOCK LINK ===
    0x1d6a
=== CODE BLOCK END ===

=== CODE BLOCK ADDRESS 0x1d6a ===
  0x1d6a	add    	byte ptr [eax], al
  0x1d6c	add    	byte ptr [eax], al
  0x1d6e	add    	byte ptr [eax], al
  0x1d70	add    	byte ptr [eax], al
  0x1d72	add    	byte ptr [eax], al
  === BLOCK LINK ===
    0x1d74
=== CODE BLOCK END ===

=== CODE BLOCK ADDRESS 0x1d74 ===
  0x1d74	add    	byte ptr [eax], al
  0x1d76	add    	byte ptr [eax], al
  0x1d78	add    	byte ptr [eax], al
  0x1d7a	add    	byte ptr [eax], al
  0x1d7c	add    	byte ptr [eax], al
  === BLOCK LINK ===
    0x1d7e
=== CODE BLOCK END ===

=== CODE BLOCK ADDRESS 0x1d7e ===
  0x1d7e	add    	byte ptr [eax], al
  0x1d80	add    	byte ptr [eax], al
  0x1d82	add    	byte ptr [eax], al
  0x1d84	add    	byte ptr [eax], al
  0x1d86	add    	byte ptr [eax], al
  === BLOCK LINK ===
    0x1d88
=== CODE BLOCK END ===

=== CODE BLOCK ADDRESS 0x1d88 ===
  0x1d88	add    	byte ptr [eax], al
  0x1d8a	add    	byte ptr [eax], al
  0x1d8c	add    	byte ptr [eax], al
  0x1d8e	add    	byte ptr [eax], al
  0x1d90	add    	byte ptr [eax], al
  === BLOCK LINK ===
    0x1d92
=== CODE BLOCK END ===

=== CODE BLOCK ADDRESS 0x1d92 ===
  0x1d92	add    	byte ptr [eax], al
  0x1d94	add    	byte ptr [eax], al
  0x1d96	add    	byte ptr [eax], al
  0x1d98	add    	byte ptr [eax], al
  0x1d9a	add    	byte ptr [eax], al
  === BLOCK LINK ===
    0x1d9c
=== CODE BLOCK END ===

=== CODE BLOCK ADDRESS 0x1d9c ===
  0x1d9c	add    	byte ptr [eax], al
  0x1d9e	add    	byte ptr [eax], al
  0x1da0	add    	byte ptr [eax], al
  0x1da2	add    	byte ptr [eax], al
  0x1da4	add    	byte ptr [eax], al
  === BLOCK LINK ===
    0x1da6
=== CODE BLOCK END ===

=== CODE BLOCK ADDRESS 0x1da6 ===
  0x1da6	add    	byte ptr [eax], al
  0x1da8	add    	byte ptr [eax], al
  0x1daa	add    	byte ptr [eax], al
  0x1dac	add    	byte ptr [eax], al
  0x1dae	add    	byte ptr [eax], al
  === BLOCK LINK ===
    0x1db0
=== CODE BLOCK END ===

=== CODE BLOCK ADDRESS 0x1db0 ===
  0x1db0	add    	byte ptr [eax], al
  0x1db2	add    	byte ptr [eax], al
  0x1db4	add    	byte ptr [eax], al
  0x1db6	add    	byte ptr [eax], al
  0x1db8	add    	byte ptr [eax], al
  === BLOCK LINK ===
    0x1dba
=== CODE BLOCK END ===

=== CODE BLOCK ADDRESS 0x1dba ===
  0x1dba	add    	byte ptr [eax], al
  0x1dbc	add    	byte ptr [eax], al
  0x1dbe	add    	byte ptr [eax], al
  0x1dc0	add    	byte ptr [eax], al
  0x1dc2	add    	byte ptr [eax], al
  === BLOCK LINK ===
    0x1dc4
=== CODE BLOCK END ===

=== CODE BLOCK ADDRESS 0x1dc4 ===
  0x1dc4	add    	byte ptr [eax], al
  0x1dc6	add    	byte ptr [eax], al
  0x1dc8	add    	byte ptr [eax], al
  0x1dca	add    	byte ptr [eax], al
  0x1dcc	add    	byte ptr [eax], al
  === BLOCK LINK ===
    0x1dce
=== CODE BLOCK END ===

=== CODE BLOCK ADDRESS 0x1dce ===
  0x1dce	add    	byte ptr [eax], al
  0x1dd0	add    	byte ptr [eax], al
  0x1dd2	add    	byte ptr [eax], al
  0x1dd4	add    	byte ptr [eax], al
  0x1dd6	add    	byte ptr [eax], al
  === BLOCK LINK ===
    0x1dd8
=== CODE BLOCK END ===

=== CODE BLOCK ADDRESS 0x1dd8 ===
  0x1dd8	add    	byte ptr [eax], al
  0x1dda	add    	byte ptr [eax], al
  0x1ddc	add    	byte ptr [eax], al
  0x1dde	add    	byte ptr [eax], al
  0x1de0	add    	byte ptr [eax], al
  === BLOCK LINK ===
    0x1de2
=== CODE BLOCK END ===

=== CODE BLOCK ADDRESS 0x1de2 ===
  0x1de2	add    	byte ptr [eax], al
  0x1de4	add    	byte ptr [eax], al
  0x1de6	add    	byte ptr [eax], al
  0x1de8	add    	byte ptr [eax], al
  0x1dea	add    	byte ptr [eax], al
  === BLOCK LINK ===
    0x1dec
=== CODE BLOCK END ===

=== CODE BLOCK ADDRESS 0x1dec ===
  0x1dec	add    	byte ptr [eax], al
  0x1dee	add    	byte ptr [eax], al
  0x1df0	add    	byte ptr [eax], al
  0x1df2	add    	byte ptr [eax], al
  0x1df4	add    	byte ptr [eax], al
  === BLOCK LINK ===
    0x1df6
=== CODE BLOCK END ===

=== CODE BLOCK ADDRESS 0x1df6 ===
  0x1df6	add    	byte ptr [eax], al
  0x1df8	add    	byte ptr [eax], al
  0x1dfa	add    	byte ptr [eax], al
  0x1dfc	add    	byte ptr [eax], al
=== CODE BLOCK END ===

=== DATA BLOCK ADDRESS 0x2000 ===
  0x2000	60 30 00 40 01 00 00 00 00 31 00 40 01 00 00 00 	`00@0000010@0000
  0x2010	b0 23 00 40 01 00 00 00 00 24 00 40 01 00 00 00 	0#0@00000$0@0000
  0x2020	60 24 00 40 01 00 00 00 c0 24 00 40 01 00 00 00 	`$0@00000$0@0000
  0x2030	20 25 00 40 01 00 00 00 88 25 00 40 01 00 00 00 	 %0@00000%0@0000
  0x2040	b0 25 00 40 01 00 00 00 e0 25 00 40 01 00 00 00 	0%0@00000%0@0000
  0x2050	10 26 00 40 01 00 00 00 40 26 00 40 01 00 00 00 	0&0@0000@&0@0000
  0x2060	18 01 00 00 00 00 00 00 00 00 00 00 00 00 00 00 	0000000000000000
  0x2070	00 00 00 00 00 00 00 00 00 00 00 00 00 00 00 00 	0000000000000000
  0x2080	00 00 00 00 00 00 00 00 00 00 00 00 00 00 00 00 	0000000000000000
  0x2090	00 00 00 00 00 00 00 00 00 00 00 00 00 00 00 00 	0000000000000000
  0x20a0	00 00 00 00 00 00 00 00 00 00 00 00 00 00 00 00 	0000000000000000
  0x20b0	00 00 00 00 00 00 00 00 08 30 00 40 01 00 00 00 	00000000000@0000
  0x20c0	00 00 00 00 00 00 00 00 00 00 00 00 00 00 00 00 	0000000000000000
  0x20d0	00 23 00 40 01 00 00 00 08 23 00 40 01 00 00 00 	0#0@00000#0@0000
  0x20e0	54 23 00 40 01 00 00 00 08 00 00 00 00 00 00 00 	T#0@000000000000
  0x20f0	00 75 41 00 00 00 00 00 00 00 00 00 00 00 00 00 	0uA0000000000000
  0x2100	74 23 00 40 01 00 00 00 01 00 00 00 00 00 00 00 	t#0@000000000000
  0x2110	00 00 00 00 00 00 00 00 00 00 00 00 00 00 00 00 	0000000000000000
  0x2120	00 00 00 00 00 00 00 00 00 00 00 00 00 00 00 00 	0000000000000000
  0x2130	00 00 00 00 00 00 00 00 00 00 00 00 00 00 00 00 	0000000000000000
  0x2140	00 00 00 00 00 00 00 00 00 00 00 00 00 00 00 00 	0000000000000000
  0x2150	00 00 00 00 00 00 00 00 00 00 00 00 00 00 00 00 	0000000000000000
  0x2160	00 00 00 00 00 00 00 00 48 23 00 40 01 00 00 00 	00000000H#0@0000
  0x2170	03 00 00 00 00 00 00 00 9e 2c 00 00 00 00 00 00 	000000000,000000
  0x2180	00 00 00 00 00 00 00 00 4e 2c 00 00 00 00 00 00 	00000000N,000000
  0x2190	2e 2c 00 00 00 00 00 00 76 2c 00 00 00 00 00 00 	.,000000v,000000
  0x21a0	82 2c 00 00 00 00 00 00 a8 2e 00 00 00 00 00 00 	0,0000000.000000
  0x21b0	64 2c 00 00 00 00 00 00 3e 2c 00 00 00 00 00 00 	d,000000>,000000
  0x21c0	20 2c 00 00 00 00 00 00 8e 2e 00 00 00 00 00 00 	 ,0000000.000000
  0x21d0	7a 2e 00 00 00 00 00 00 5c 2e 00 00 00 00 00 00 	z.0000000.000000
  0x21e0	4a 2e 00 00 00 00 00 00 42 2e 00 00 00 00 00 00 	J.000000B.000000
  0x21f0	d4 2e 00 00 00 00 00 00 ee 2e 00 00 00 00 00 00 	0.0000000.000000
  0x2200	fe 2e 00 00 00 00 00 00 1a 2f 00 00 00 00 00 00 	0.0000000/000000
  0x2210	2e 2f 00 00 00 00 00 00 be 2e 00 00 00 00 00 00 	./0000000.000000
  0x2220	00 00 00 00 00 00 00 00 c8 2c 00 00 00 00 00 00 	000000000,000000
  0x2230	da 2c 00 00 00 00 00 00 ec 2c 00 00 00 00 00 00 	0,0000000,000000
  0x2240	fc 2c 00 00 00 00 00 00 ba 2c 00 00 00 00 00 00 	0,0000000,000000
  0x2250	00 00 00 00 00 00 00 00 c0 2d 00 00 00 00 00 00 	000000000-000000
  0x2260	ca 2d 00 00 00 00 00 00 e2 2d 00 00 00 00 00 00 	0-0000000-000000
  0x2270	9e 2d 00 00 00 00 00 00 40 2d 00 00 00 00 00 00 	0-000000@-000000
  0x2280	32 2d 00 00 00 00 00 00 24 2d 00 00 00 00 00 00 	2-000000$-000000
  0x2290	1a 2d 00 00 00 00 00 00 b6 2d 00 00 00 00 00 00 	0-0000000-000000
  0x22a0	92 2d 00 00 00 00 00 00 7e 2d 00 00 00 00 00 00 	0-000000~-000000
  0x22b0	52 2d 00 00 00 00 00 00 6c 2d 00 00 00 00 00 00 	R-000000l-000000
  0x22c0	64 2d 00 00 00 00 00 00 74 2d 00 00 00 00 00 00 	d-000000t-000000
  0x22d0	42 2f 00 00 00 00 00 00 00 00 00 00 00 00 00 00 	B/00000000000000
  0x22e0	f6 2d 00 00 00 00 00 00 0a 2e 00 00 00 00 00 00 	0-0000000.000000
  0x22f0	24 2e 00 00 00 00 00 00 00 00 00 00 00 00 00 00 	$.00000000000000
  0x2300	e0 1a 00 40 01 00 00 00 d0 1c 00 40 01 00 00 00 	000@0000000@0000
  0x2310	00 00 00 00 00 00 00 00 b0 14 00 40 01 00 00 00 	00000000000@0000
  0x2320	00 00 00 00 00 00 00 00 00 00 00 00 00 00 00 00 	0000000000000000
  0x2330	d0 13 00 40 01 00 00 00 10 18 00 40 01 00 00 00 	000@0000000@0000
  0x2340	00 00 00 00 00 00 00 00 19 17 00 00 82 18 00 00 	0000000000000000
  0x2350	90 19 00 00 d0 13 00 00 b0 14 00 00 70 17 00 00 	000000000000p000
  0x2360	d0 17 00 00 10 18 00 00 f0 18 00 00 e0 1a 00 00 	0000000000000000
  0x2370	30 1b 00 00 40 22 00 00 00 00 00 00 00 00 00 00 	0000@"0000000000
  0x2380	00 00 00 00 00 00 00 00 53 00 74 00 75 00 62 00 	00000000S0t0u0b0
  0x2390	4e 00 74 00 50 00 72 00 69 00 6e 00 74 00 57 00 	N0t0P0r0i0n0t0W0
  0x23a0	69 00 6e 00 64 00 6f 00 77 00 00 00 00 00 00 00 	i0n0d0o0w0000000
  0x23b0	50 00 53 00 65 00 74 00 75 00 70 00 45 00 6c 00 	P0S0e0t0u0p0E0l0
  0x23c0	65 00 76 00 61 00 74 00 65 00 64 00 4c 00 65 00 	e0v0a0t0e0d0L0e0
  0x23d0	67 00 61 00 63 00 79 00 50 00 72 00 69 00 6e 00 	g0a0c0y0P0r0i0n0
  0x23e0	74 00 44 00 72 00 69 00 76 00 65 00 72 00 49 00 	t0D0r0i0v0e0r0I0
  0x23f0	6e 00 73 00 74 00 61 00 6c 00 6c 00 57 00 00 00 	n0s0t0a0l0l0W000
  0x2400	50 00 53 00 65 00 74 00 75 00 70 00 45 00 6c 00 	P0S0e0t0u0p0E0l0
  0x2410	65 00 76 00 61 00 74 00 65 00 64 00 44 00 72 00 	e0v0a0t0e0d0D0r0
  0x2420	69 00 76 00 65 00 72 00 53 00 74 00 6f 00 72 00 	i0v0e0r0S0t0o0r0
  0x2430	65 00 41 00 64 00 64 00 44 00 72 00 69 00 76 00 	e0A0d0d0D0r0i0v0
  0x2440	65 00 72 00 50 00 61 00 63 00 6b 00 61 00 67 00 	e0r0P0a0c0k0a0g0
  0x2450	65 00 57 00 00 00 00 00 00 00 00 00 00 00 00 00 	e0W0000000000000
  0x2460	50 00 53 00 65 00 74 00 75 00 70 00 45 00 6c 00 	P0S0e0t0u0p0E0l0
  0x2470	65 00 76 00 61 00 74 00 65 00 64 00 49 00 6e 00 	e0v0a0t0e0d0I0n0
  0x2480	73 00 74 00 61 00 6c 00 6c 00 50 00 72 00 69 00 	s0t0a0l0l0P0r0i0
  0x2490	6e 00 74 00 65 00 72 00 44 00 72 00 69 00 76 00 	n0t0e0r0D0r0i0v0
  0x24a0	65 00 72 00 46 00 72 00 6f 00 6d 00 54 00 68 00 	e0r0F0r0o0m0T0h0
  0x24b0	65 00 57 00 65 00 62 00 57 00 00 00 00 00 00 00 	e0W0e0b0W0000000
  0x24c0	50 00 53 00 65 00 74 00 75 00 70 00 45 00 6c 00 	P0S0e0t0u0p0E0l0
  0x24d0	65 00 76 00 61 00 74 00 65 00 64 00 49 00 6e 00 	e0v0a0t0e0d0I0n0
  0x24e0	73 00 74 00 61 00 6c 00 6c 00 44 00 6f 00 77 00 	s0t0a0l0l0D0o0w0
  0x24f0	6e 00 6c 00 6f 00 61 00 64 00 65 00 64 00 4c 00 	n0l0o0a0d0e0d0L0
  0x2500	65 00 67 00 61 00 63 00 79 00 44 00 72 00 69 00 	e0g0a0c0y0D0r0i0
  0x2510	76 00 65 00 72 00 57 00 00 00 00 00 00 00 00 00 	v0e0r0W000000000
  0x2520	50 00 53 00 65 00 74 00 75 00 70 00 45 00 6c 00 	P0S0e0t0u0p0E0l0
  0x2530	65 00 76 00 61 00 74 00 65 00 64 00 49 00 6e 00 	e0v0a0t0e0d0I0n0
  0x2540	73 00 74 00 61 00 6c 00 6c 00 44 00 72 00 69 00 	s0t0a0l0l0D0r0i0
  0x2550	76 00 65 00 72 00 50 00 61 00 63 00 6b 00 61 00 	v0e0r0P0a0c0k0a0
  0x2560	67 00 65 00 46 00 72 00 6f 00 6d 00 43 00 6f 00 	g0e0F0r0o0m0C0o0
  0x2570	6e 00 6e 00 65 00 63 00 74 00 69 00 6f 00 6e 00 	n0n0e0c0t0i0o0n0
  0x2580	57 00 00 00 00 00 00 00 50 53 65 74 75 70 45 6c 	W0000000PSetupEl
  0x2590	65 76 61 74 65 64 4c 65 67 61 63 79 50 72 69 6e 	evatedLegacyPrin
  0x25a0	74 44 72 69 76 65 72 49 6e 73 74 61 6c 6c 57 00 	tDriverInstallW0
  0x25b0	50 53 65 74 75 70 45 6c 65 76 61 74 65 64 44 72 	PSetupElevatedDr
  0x25c0	69 76 65 72 53 74 6f 72 65 41 64 64 44 72 69 76 	iverStoreAddDriv
  0x25d0	65 72 50 61 63 6b 61 67 65 57 00 00 00 00 00 00 	erPackageW000000
  0x25e0	50 53 65 74 75 70 45 6c 65 76 61 74 65 64 49 6e 	PSetupElevatedIn
  0x25f0	73 74 61 6c 6c 50 72 69 6e 74 65 72 44 72 69 76 	stallPrinterDriv
  0x2600	65 72 46 72 6f 6d 54 68 65 57 65 62 57 00 00 00 	erFromTheWebW000
  0x2610	50 53 65 74 75 70 45 6c 65 76 61 74 65 64 49 6e 	PSetupElevatedIn
  0x2620	73 74 61 6c 6c 44 6f 77 6e 6c 6f 61 64 65 64 4c 	stallDownloadedL
  0x2630	65 67 61 63 79 44 72 69 76 65 72 57 00 00 00 00 	egacyDriverW0000
  0x2640	50 53 65 74 75 70 45 6c 65 76 61 74 65 64 49 6e 	PSetupElevatedIn
  0x2650	73 74 61 6c 6c 44 72 69 76 65 72 50 61 63 6b 61 	stallDriverPacka
  0x2660	67 65 46 72 6f 6d 43 6f 6e 6e 65 63 74 69 6f 6e 	geFromConnection
  0x2670	57 00 00 00 00 00 00 00 6e 00 74 00 70 00 72 00 	W0000000n0t0p0r0
  0x2680	69 00 6e 00 74 00 2e 00 64 00 6c 00 6c 00 00 00 	i0n0t0.0d0l0l000
  0x2690	00 00 00 00 4e 01 32 f2 00 00 00 00 02 00 00 00 	0000N02000000000
  0x26a0	24 00 00 00 e4 26 00 00 e4 18 00 00 00 00 00 00 	$0000&0000000000
  0x26b0	4e 01 32 f2 00 00 00 00 0d 00 00 00 14 02 00 00 	N020000000000000
  0x26c0	08 27 00 00 08 19 00 00 00 00 00 00 4e 01 32 f2 	0'0000000000N020
  0x26d0	00 00 00 00 10 00 00 00 24 00 00 00 1c 29 00 00 	00000000$0000)00
  0x26e0	1c 1b 00 00 52 53 44 53 de b7 4b ca 00 3f 13 9b 	0000RSDS00K00?00
  0x26f0	86 5c b8 05 f7 0c c5 bc 01 00 00 00 4e 74 50 72 	000000000000NtPr
  0x2700	69 6e 74 2e 70 64 62 00 47 43 54 4c 00 10 00 00 	int.pdb0GCTL0000
  0x2710	c0 0c 00 00 2e 74 65 78 74 24 6d 6e 00 00 00 00 	0000.text$mn0000
  0x2720	c0 1c 00 00 20 00 00 00 2e 74 65 78 74 24 6d 6e 	0000 000.text$mn
  0x2730	24 30 30 00 e0 1c 00 00 50 00 00 00 2e 74 65 78 	$0000000P000.tex
  0x2740	74 24 78 00 00 20 00 00 78 01 00 00 2e 72 64 61 	t$x00 00x000.rda
  0x2750	74 61 24 62 72 63 00 00 78 21 00 00 88 01 00 00 	ta$brc00x!000000
  0x2760	2e 69 64 61 74 61 24 35 00 00 00 00 00 23 00 00 	.idata$500000#00
  0x2770	10 00 00 00 2e 30 30 63 66 67 00 00 10 23 00 00 	0000.00cfg000#00
  0x2780	08 00 00 00 2e 43 52 54 24 58 43 41 00 00 00 00 	0000.CRT$XCA0000
  0x2790	18 23 00 00 08 00 00 00 2e 43 52 54 24 58 43 41 	0#000000.CRT$XCA
  0x27a0	41 00 00 00 20 23 00 00 08 00 00 00 2e 43 52 54 	A000 #000000.CRT
  0x27b0	24 58 43 5a 00 00 00 00 28 23 00 00 08 00 00 00 	$XCZ0000(#000000
  0x27c0	2e 43 52 54 24 58 49 41 00 00 00 00 30 23 00 00 	.CRT$XIA00000#00
  0x27d0	08 00 00 00 2e 43 52 54 24 58 49 41 41 00 00 00 	0000.CRT$XIAA000
  0x27e0	38 23 00 00 08 00 00 00 2e 43 52 54 24 58 49 59 	8#000000.CRT$XIY
  0x27f0	00 00 00 00 40 23 00 00 08 00 00 00 2e 43 52 54 	0000@#000000.CRT
  0x2800	24 58 49 5a 00 00 00 00 48 23 00 00 0c 00 00 00 	$XIZ0000H#000000
  0x2810	2e 67 65 68 63 6f 6e 74 00 00 00 00 54 23 00 00 	.gehcont0000T#00
  0x2820	20 00 00 00 2e 67 66 69 64 73 00 00 74 23 00 00 	 000.gfids00t#00
  0x2830	0c 00 00 00 2e 67 69 61 74 73 00 00 80 23 00 00 	0000.giats000#00
  0x2840	64 03 00 00 2e 72 64 61 74 61 00 00 e4 26 00 00 	d000.rdata000&00
  0x2850	5c 02 00 00 2e 72 64 61 74 61 24 7a 7a 7a 64 62 	0000.rdata$zzzdb
  0x2860	67 00 00 00 40 29 00 00 dc 00 00 00 2e 78 64 61 	g000@)000000.xda
  0x2870	74 61 00 00 1c 2a 00 00 64 00 00 00 2e 69 64 61 	ta000*00d000.ida
  0x2880	74 61 24 32 00 00 00 00 80 2a 00 00 18 00 00 00 	ta$200000*000000
  0x2890	2e 69 64 61 74 61 24 33 00 00 00 00 98 2a 00 00 	.idata$300000*00
  0x28a0	88 01 00 00 2e 69 64 61 74 61 24 34 00 00 00 00 	0000.idata$40000
  0x28b0	20 2c 00 00 2c 03 00 00 2e 69 64 61 74 61 24 36 	 ,00,000.idata$6
  0x28c0	00 00 00 00 00 30 00 00 20 00 00 00 2e 64 61 74 	00000000 000.dat
  0x28d0	61 00 00 00 20 30 00 00 58 06 00 00 2e 62 73 73 	a000 000X000.bss
  0x28e0	00 00 00 00 00 40 00 00 cc 00 00 00 2e 70 64 61 	00000@000000.pda
  0x28f0	74 61 00 00 00 50 00 00 30 03 00 00 2e 72 73 72 	ta000P000000.rsr
  0x2900	63 24 30 31 00 00 00 00 30 53 00 00 58 ce 00 00 	c$0100000S00X000
  0x2910	2e 72 73 72 63 24 30 32 00 00 00 00 20 00 00 00 	.rsrc$020000 000
  0x2920	de b7 4b ca 00 3f 13 9b 86 5c b8 05 f7 0c c5 bc 	00K00?0000000000
  0x2930	89 a6 3b 4d ed 30 33 38 d7 dd a6 40 4e 01 32 f2 	00;M0038000@N020
  0x2940	01 23 0d 00 23 64 1f 00 23 54 1e 00 23 34 1d 00 	0#00#d00#T00#400
  0x2950	23 01 16 00 1c f0 1a e0 18 d0 16 c0 14 70 00 00 	#000000000000p00
  0x2960	01 04 01 00 04 42 00 00 01 04 01 00 04 62 00 00 	00000B0000000b00
  0x2970	09 1c 0b 00 1c e4 1b 00 1c 74 1a 00 1c 64 19 00 	000000000t000d00
  0x2980	1c 34 18 00 1c 01 16 00 15 f0 00 00 ca 1a 00 00 	0400000000000000
  0x2990	01 00 00 00 2f 15 00 00 19 17 00 00 e0 1c 00 00 	0000/00000000000
  0x29a0	19 17 00 00 01 06 02 00 06 32 02 50 00 00 00 00 	00000000020P0000
  0x29b0	01 00 00 00 09 04 01 00 04 22 00 00 ca 1a 00 00 	000000000"000000
  0x29c0	01 00 00 00 4c 18 00 00 82 18 00 00 01 00 00 00 	0000L00000000000
  0x29d0	82 18 00 00 01 06 02 00 06 32 02 30 09 0a 04 00 	0000000002000000
  0x29e0	0a 34 06 00 0a 32 06 70 ca 1a 00 00 01 00 00 00 	0400020p00000000
  0x29f0	5d 19 00 00 90 19 00 00 10 1d 00 00 90 19 00 00 	]000000000000000
  0x2a00	01 0d 04 00 0d 34 09 00 0d 32 06 50 01 0c 02 00 	00000400020P0000
  0x2a10	0c 01 11 00 00 00 00 00 01 00 00 00 a8 2a 00 00 	0000000000000*00
  0x2a20	00 00 00 00 00 00 00 00 90 2c 00 00 88 21 00 00 	000000000,000!00
  0x2a30	98 2a 00 00 00 00 00 00 00 00 00 00 b0 2c 00 00 	0*00000000000,00
  0x2a40	78 21 00 00 48 2b 00 00 00 00 00 00 00 00 00 00 	x!00H+0000000000
  0x2a50	0e 2d 00 00 28 22 00 00 78 2b 00 00 00 00 00 00 	0-00("00x+000000
  0x2a60	00 00 00 00 d6 2d 00 00 58 22 00 00 00 2c 00 00 	00000-00X"000,00
  0x2a70	00 00 00 00 00 00 00 00 38 2e 00 00 e0 22 00 00 	000000008.000"00
  0x2a80	00 00 00 00 00 00 00 00 00 00 00 00 00 00 00 00 	0000000000000000
  0x2a90	00 00 00 00 00 00 00 00 9e 2c 00 00 00 00 00 00 	000000000,000000
  0x2aa0	00 00 00 00 00 00 00 00 4e 2c 00 00 00 00 00 00 	00000000N,000000
  0x2ab0	2e 2c 00 00 00 00 00 00 76 2c 00 00 00 00 00 00 	.,000000v,000000
  0x2ac0	82 2c 00 00 00 00 00 00 a8 2e 00 00 00 00 00 00 	0,0000000.000000
  0x2ad0	64 2c 00 00 00 00 00 00 3e 2c 00 00 00 00 00 00 	d,000000>,000000
  0x2ae0	20 2c 00 00 00 00 00 00 8e 2e 00 00 00 00 00 00 	 ,0000000.000000
  0x2af0	7a 2e 00 00 00 00 00 00 5c 2e 00 00 00 00 00 00 	z.0000000.000000
  0x2b00	4a 2e 00 00 00 00 00 00 42 2e 00 00 00 00 00 00 	J.000000B.000000
  0x2b10	d4 2e 00 00 00 00 00 00 ee 2e 00 00 00 00 00 00 	0.0000000.000000
  0x2b20	fe 2e 00 00 00 00 00 00 1a 2f 00 00 00 00 00 00 	0.0000000/000000
  0x2b30	2e 2f 00 00 00 00 00 00 be 2e 00 00 00 00 00 00 	./0000000.000000
  0x2b40	00 00 00 00 00 00 00 00 c8 2c 00 00 00 00 00 00 	000000000,000000
  0x2b50	da 2c 00 00 00 00 00 00 ec 2c 00 00 00 00 00 00 	0,0000000,000000
  0x2b60	fc 2c 00 00 00 00 00 00 ba 2c 00 00 00 00 00 00 	0,0000000,000000
  0x2b70	00 00 00 00 00 00 00 00 c0 2d 00 00 00 00 00 00 	000000000-000000
  0x2b80	ca 2d 00 00 00 00 00 00 e2 2d 00 00 00 00 00 00 	0-0000000-000000
  0x2b90	9e 2d 00 00 00 00 00 00 40 2d 00 00 00 00 00 00 	0-000000@-000000
  0x2ba0	32 2d 00 00 00 00 00 00 24 2d 00 00 00 00 00 00 	2-000000$-000000
  0x2bb0	1a 2d 00 00 00 00 00 00 b6 2d 00 00 00 00 00 00 	0-0000000-000000
  0x2bc0	92 2d 00 00 00 00 00 00 7e 2d 00 00 00 00 00 00 	0-000000~-000000
  0x2bd0	52 2d 00 00 00 00 00 00 6c 2d 00 00 00 00 00 00 	R-000000l-000000
  0x2be0	64 2d 00 00 00 00 00 00 74 2d 00 00 00 00 00 00 	d-000000t-000000
  0x2bf0	42 2f 00 00 00 00 00 00 00 00 00 00 00 00 00 00 	B/00000000000000
  0x2c00	f6 2d 00 00 00 00 00 00 0a 2e 00 00 00 00 00 00 	0-0000000.000000
  0x2c10	24 2e 00 00 00 00 00 00 00 00 00 00 00 00 00 00 	$.00000000000000
  0x2c20	d1 03 4c 6f 63 61 6c 41 6c 6c 6f 63 00 00 6a 02 	00LocalAlloc00j0
  0x2c30	47 65 74 4c 61 73 74 45 72 72 6f 72 00 00 cb 03 	GetLastError0000
  0x2c40	4c 6f 61 64 4c 69 62 72 61 72 79 57 00 00 59 03 	LoadLibraryW00Y0
  0x2c50	48 65 61 70 53 65 74 49 6e 66 6f 72 6d 61 74 69 	HeapSetInformati
  0x2c60	6f 6e 00 00 b8 02 47 65 74 50 72 6f 63 41 64 64 	on0000GetProcAdd
  0x2c70	72 65 73 73 00 00 d6 03 4c 6f 63 61 6c 46 72 65 	ress0000LocalFre
  0x2c80	65 00 b4 01 46 72 65 65 4c 69 62 72 61 72 79 00 	e000FreeLibrary0
  0x2c90	4b 45 52 4e 45 4c 33 32 2e 64 6c 6c 00 00 be 02 	KERNEL32.dll0000
  0x2ca0	47 65 74 53 74 6f 63 6b 4f 62 6a 65 63 74 00 00 	GetStockObject00
  0x2cb0	47 44 49 33 32 2e 64 6c 6c 00 58 02 4c 6f 61 64 	GDI32.dll0X0Load
  0x2cc0	43 75 72 73 6f 72 57 00 df 02 52 65 67 69 73 74 	CursorW000Regist
  0x2cd0	65 72 43 6c 61 73 73 57 00 00 76 00 43 72 65 61 	erClassW00v0Crea
  0x2ce0	74 65 57 69 6e 64 6f 77 45 78 57 00 b5 00 44 65 	teWindowExW000De
  0x2cf0	73 74 72 6f 79 57 69 6e 64 6f 77 00 a7 00 44 65 	stroyWindow000De
  0x2d00	66 57 69 6e 64 6f 77 50 72 6f 63 57 00 00 55 53 	fWindowProcW00US
  0x2d10	45 52 33 32 2e 64 6c 6c 00 00 01 05 77 63 73 63 	ER32.dll0000wcsc
  0x2d20	68 72 00 00 55 00 5f 58 63 70 74 46 69 6c 74 65 	hr00U0_XcptFilte
  0x2d30	72 00 ae 00 5f 61 6d 73 67 5f 65 78 69 74 00 00 	r000_amsg_exit00
  0x2d40	9d 00 5f 5f 77 67 65 74 6d 61 69 6e 61 72 67 73 	00__wgetmainargs
  0x2d50	00 00 8e 00 5f 5f 73 65 74 5f 61 70 70 5f 74 79 	0000__set_app_ty
  0x2d60	70 65 00 00 32 04 65 78 69 74 00 00 0e 01 5f 65 	pe0020exit0000_e
  0x2d70	78 69 74 00 c1 00 5f 63 65 78 69 74 00 00 90 00 	xit000_cexit0000
  0x2d80	5f 5f 73 65 74 75 73 65 72 6d 61 74 68 65 72 72 	__setusermatherr
  0x2d90	00 00 7d 01 5f 69 6e 69 74 74 65 72 6d 00 57 00 	00}0_initterm0W0
  0x2da0	5f 5f 43 5f 73 70 65 63 69 66 69 63 5f 68 61 6e 	__C_specific_han
  0x2db0	64 6c 65 72 00 00 82 03 5f 77 63 6d 64 6c 6e 00 	dler0000_wcmdln0
  0x2dc0	27 01 5f 66 6d 6f 64 65 00 00 d2 00 5f 63 6f 6d 	'0_fmode0000_com
  0x2dd0	6d 6f 64 65 00 00 6d 73 76 63 72 74 2e 64 6c 6c 	mode00msvcrt.dll
  0x2de0	00 00 2f 00 3f 74 65 72 6d 69 6e 61 74 65 40 40 	00/0?terminate@@
  0x2df0	59 41 58 58 5a 00 f3 02 52 74 6c 43 61 70 74 75 	YAXXZ000RtlCaptu
  0x2e00	72 65 43 6f 6e 74 65 78 74 00 ea 04 52 74 6c 4c 	reContext000RtlL
  0x2e10	6f 6f 6b 75 70 46 75 6e 63 74 69 6f 6e 45 6e 74 	ookupFunctionEnt
  0x2e20	72 79 00 00 29 06 52 74 6c 56 69 72 74 75 61 6c 	ry00)0RtlVirtual
  0x2e30	55 6e 77 69 6e 64 00 00 6e 74 64 6c 6c 2e 64 6c 	Unwind00ntdll.dl
  0x2e40	6c 00 8f 05 53 6c 65 65 70 00 da 02 47 65 74 53 	l000Sleep000GetS
  0x2e50	74 61 72 74 75 70 49 6e 66 6f 57 00 7f 05 53 65 	tartupInfoW000Se
  0x2e60	74 55 6e 68 61 6e 64 6c 65 64 45 78 63 65 70 74 	tUnhandledExcept
  0x2e70	69 6f 6e 46 69 6c 74 65 72 00 81 02 47 65 74 4d 	ionFilter000GetM
  0x2e80	6f 64 75 6c 65 48 61 6e 64 6c 65 57 00 00 52 04 	oduleHandleW00R0
  0x2e90	51 75 65 72 79 50 65 72 66 6f 72 6d 61 6e 63 65 	QueryPerformance
  0x2ea0	43 6f 75 6e 74 65 72 00 21 02 47 65 74 43 75 72 	Counter0!0GetCur
  0x2eb0	72 65 6e 74 50 72 6f 63 65 73 73 49 64 00 25 02 	rentProcessId0%0
  0x2ec0	47 65 74 43 75 72 72 65 6e 74 54 68 72 65 61 64 	GetCurrentThread
  0x2ed0	49 64 00 00 f3 02 47 65 74 53 79 73 74 65 6d 54 	Id0000GetSystemT
  0x2ee0	69 6d 65 41 73 46 69 6c 65 54 69 6d 65 00 11 03 	imeAsFileTime000
  0x2ef0	47 65 74 54 69 63 6b 43 6f 75 6e 74 00 00 c0 05 	GetTickCount0000
  0x2f00	55 6e 68 61 6e 64 6c 65 64 45 78 63 65 70 74 69 	UnhandledExcepti
  0x2f10	6f 6e 46 69 6c 74 65 72 00 00 20 02 47 65 74 43 	onFilter00 0GetC
  0x2f20	75 72 72 65 6e 74 50 72 6f 63 65 73 73 00 9e 05 	urrentProcess000
  0x2f30	54 65 72 6d 69 6e 61 74 65 50 72 6f 63 65 73 73 	TerminateProcess
  0x2f40	00 00 96 04 6d 65 6d 73 65 74 00 00 00 00 00 00 	0000memset000000
  0x2f50	00 00 00 00 00 00 00 00 00 00 00 00 00 00 00 00 	0000000000000000
  0x2f60	00 00 00 00 00 00 00 00 00 00 00 00 00 00 00 00 	0000000000000000
  0x2f70	00 00 00 00 00 00 00 00 00 00 00 00 00 00 00 00 	0000000000000000
  0x2f80	00 00 00 00 00 00 00 00 00 00 00 00 00 00 00 00 	0000000000000000
  0x2f90	00 00 00 00 00 00 00 00 00 00 00 00 00 00 00 00 	0000000000000000
  0x2fa0	00 00 00 00 00 00 00 00 00 00 00 00 00 00 00 00 	0000000000000000
  0x2fb0	00 00 00 00 00 00 00 00 00 00 00 00 00 00 00 00 	0000000000000000
  0x2fc0	00 00 00 00 00 00 00 00 00 00 00 00 00 00 00 00 	0000000000000000
  0x2fd0	00 00 00 00 00 00 00 00 00 00 00 00 00 00 00 00 	0000000000000000
  0x2fe0	00 00 00 00 00 00 00 00 00 00 00 00 00 00 00 00 	0000000000000000
  0x2ff0	00 00 00 00 00 00 00 00 00 00 00 00 00 00 00 00 	0000000000000000
=== DATA BLOCK END ===

=== DATA BLOCK ADDRESS 0x3000 ===
  0x3000	01 00 00 00 00 00 00 00 32 a2 df 2d 99 2b 00 00 	00000000200-0+00
  0x3010	cd 5d 20 d2 66 d4 ff ff 00 00 00 00 00 00 00 00 	0] 0f00000000000
  0x3020	00 00 00 00 00 00 00 00 00 00 00 00 00 00 00 00 	0000000000000000
  0x3030	00 00 00 00 00 00 00 00 00 00 00 00 00 00 00 00 	0000000000000000
  0x3040	00 00 00 00 00 00 00 00 00 00 00 00 00 00 00 00 	0000000000000000
  0x3050	00 00 00 00 00 00 00 00 00 00 00 00 00 00 00 00 	0000000000000000
  0x3060	00 00 00 00 00 00 00 00 00 00 00 00 00 00 00 00 	0000000000000000
  0x3070	00 00 00 00 00 00 00 00 00 00 00 00 00 00 00 00 	0000000000000000
  0x3080	00 00 00 00 00 00 00 00 00 00 00 00 00 00 00 00 	0000000000000000
  0x3090	00 00 00 00 00 00 00 00 00 00 00 00 00 00 00 00 	0000000000000000
  0x30a0	00 00 00 00 00 00 00 00 00 00 00 00 00 00 00 00 	0000000000000000
  0x30b0	00 00 00 00 00 00 00 00 00 00 00 00 00 00 00 00 	0000000000000000
  0x30c0	00 00 00 00 00 00 00 00 00 00 00 00 00 00 00 00 	0000000000000000
  0x30d0	00 00 00 00 00 00 00 00 00 00 00 00 00 00 00 00 	0000000000000000
  0x30e0	00 00 00 00 00 00 00 00 00 00 00 00 00 00 00 00 	0000000000000000
  0x30f0	00 00 00 00 00 00 00 00 00 00 00 00 00 00 00 00 	0000000000000000
  0x3100	00 00 00 00 00 00 00 00 00 00 00 00 00 00 00 00 	0000000000000000
  0x3110	00 00 00 00 00 00 00 00 00 00 00 00 00 00 00 00 	0000000000000000
  0x3120	00 00 00 00 00 00 00 00 00 00 00 00 00 00 00 00 	0000000000000000
  0x3130	00 00 00 00 00 00 00 00 00 00 00 00 00 00 00 00 	0000000000000000
  0x3140	00 00 00 00 00 00 00 00 00 00 00 00 00 00 00 00 	0000000000000000
  0x3150	00 00 00 00 00 00 00 00 00 00 00 00 00 00 00 00 	0000000000000000
  0x3160	00 00 00 00 00 00 00 00 00 00 00 00 00 00 00 00 	0000000000000000
  0x3170	00 00 00 00 00 00 00 00 00 00 00 00 00 00 00 00 	0000000000000000
  0x3180	00 00 00 00 00 00 00 00 00 00 00 00 00 00 00 00 	0000000000000000
  0x3190	00 00 00 00 00 00 00 00 00 00 00 00 00 00 00 00 	0000000000000000
  0x31a0	00 00 00 00 00 00 00 00 00 00 00 00 00 00 00 00 	0000000000000000
  0x31b0	00 00 00 00 00 00 00 00 00 00 00 00 00 00 00 00 	0000000000000000
  0x31c0	00 00 00 00 00 00 00 00 00 00 00 00 00 00 00 00 	0000000000000000
  0x31d0	00 00 00 00 00 00 00 00 00 00 00 00 00 00 00 00 	0000000000000000
  0x31e0	00 00 00 00 00 00 00 00 00 00 00 00 00 00 00 00 	0000000000000000
  0x31f0	00 00 00 00 00 00 00 00 00 00 00 00 00 00 00 00 	0000000000000000
=== DATA BLOCK END ===

=== DATA BLOCK ADDRESS 0x4000 ===
  0x4000	08 10 00 00 c9 13 00 00 40 29 00 00 d0 13 00 00 	00000000@)000000
  0x4010	a3 14 00 00 60 29 00 00 b0 14 00 00 f9 14 00 00 	0000`)0000000000
  0x4020	68 29 00 00 00 15 00 00 64 17 00 00 70 29 00 00 	h)000000d000p)00
  0x4030	70 17 00 00 82 17 00 00 60 29 00 00 a0 17 00 00 	p0000000`)000000
  0x4040	be 17 00 00 b0 29 00 00 d0 17 00 00 09 18 00 00 	00000)0000000000
  0x4050	60 29 00 00 10 18 00 00 28 18 00 00 60 29 00 00 	`)000000(000`)00
  0x4060	3c 18 00 00 90 18 00 00 b4 29 00 00 98 18 00 00 	<00000000)000000
  0x4070	dd 18 00 00 d4 29 00 00 50 19 00 00 9d 19 00 00 	00000)00P0000000
  0x4080	dc 29 00 00 e4 19 00 00 b8 1a 00 00 00 2a 00 00 	0)00000000000*00
  0x4090	ec 1a 00 00 20 1b 00 00 d4 29 00 00 30 1b 00 00 	0000 0000)000000
  0x40a0	a1 1c 00 00 0c 2a 00 00 d0 1c 00 00 d2 1c 00 00 	00000*0000000000
  0x40b0	18 2a 00 00 e0 1c 00 00 fe 1c 00 00 a4 29 00 00 	0*00000000000)00
  0x40c0	10 1d 00 00 30 1d 00 00 a4 29 00 00 00 00 00 00 	000000000)000000
  0x40d0	00 00 00 00 00 00 00 00 00 00 00 00 00 00 00 00 	0000000000000000
  0x40e0	00 00 00 00 00 00 00 00 00 00 00 00 00 00 00 00 	0000000000000000
  0x40f0	00 00 00 00 00 00 00 00 00 00 00 00 00 00 00 00 	0000000000000000
  0x4100	00 00 00 00 00 00 00 00 00 00 00 00 00 00 00 00 	0000000000000000
  0x4110	00 00 00 00 00 00 00 00 00 00 00 00 00 00 00 00 	0000000000000000
  0x4120	00 00 00 00 00 00 00 00 00 00 00 00 00 00 00 00 	0000000000000000
  0x4130	00 00 00 00 00 00 00 00 00 00 00 00 00 00 00 00 	0000000000000000
  0x4140	00 00 00 00 00 00 00 00 00 00 00 00 00 00 00 00 	0000000000000000
  0x4150	00 00 00 00 00 00 00 00 00 00 00 00 00 00 00 00 	0000000000000000
  0x4160	00 00 00 00 00 00 00 00 00 00 00 00 00 00 00 00 	0000000000000000
  0x4170	00 00 00 00 00 00 00 00 00 00 00 00 00 00 00 00 	0000000000000000
  0x4180	00 00 00 00 00 00 00 00 00 00 00 00 00 00 00 00 	0000000000000000
  0x4190	00 00 00 00 00 00 00 00 00 00 00 00 00 00 00 00 	0000000000000000
  0x41a0	00 00 00 00 00 00 00 00 00 00 00 00 00 00 00 00 	0000000000000000
  0x41b0	00 00 00 00 00 00 00 00 00 00 00 00 00 00 00 00 	0000000000000000
  0x41c0	00 00 00 00 00 00 00 00 00 00 00 00 00 00 00 00 	0000000000000000
  0x41d0	00 00 00 00 00 00 00 00 00 00 00 00 00 00 00 00 	0000000000000000
  0x41e0	00 00 00 00 00 00 00 00 00 00 00 00 00 00 00 00 	0000000000000000
  0x41f0	00 00 00 00 00 00 00 00 00 00 00 00 00 00 00 00 	0000000000000000
=== DATA BLOCK END ===
