===== Assembly blocks =====

=== CODE BLOCK ADDRESS 0x1000 ===
  0x1000	int3   	
  0x1001	int3   	
  0x1002	int3   	
  0x1003	int3   	
  0x1004	int3   	
  === BLOCK LINK ===
    0x1005
=== CODE BLOCK END ===

=== CODE BLOCK ADDRESS 0x1005 ===
  0x1005	int3   	
  0x1006	int3   	
  0x1007	int3   	
  0x1008	dec    	eax
  0x1009	mov    	dword ptr [esp + 8], ebx
  === BLOCK LINK ===
    0x100d
=== CODE BLOCK END ===

=== CODE BLOCK ADDRESS 0x100d ===
  0x100d	dec    	eax
  0x100e	mov    	dword ptr [esp + 0x18], esi
  0x1012	push   	edi
  0x1013	dec    	eax
  0x1014	sub    	esp, 0x20
  === BLOCK LINK ===
    0x1017
=== CODE BLOCK END ===

=== CODE BLOCK ADDRESS 0x1017 ===
  0x1017	inc    	ebp
  0x1018	xor    	ecx, ecx
  0x101a	dec    	eax
  0x101b	mov    	ebx, edx
  0x101d	inc    	ebp
  === BLOCK LINK ===
    0x101e
=== CODE BLOCK END ===

=== CODE BLOCK ADDRESS 0x101e ===
  0x101e	xor    	eax, eax
  0x1020	xor    	ecx, ecx
  0x1022	inc    	ecx
  0x1023	lea    	esi, [ecx + 1]
  0x1026	mov    	edx, esi
  === BLOCK LINK ===
    0x1028
=== CODE BLOCK END ===

=== CODE BLOCK ADDRESS 0x1028 ===
  0x1028	dec    	eax
  0x1029	call   	dword ptr [0x21a9]
  === BLOCK LINK ===
    0x102f
=== CODE BLOCK END ===

=== CODE BLOCK ADDRESS 0x102f ===
  0x102f	nop    	dword ptr [eax + eax]
  0x1034	xor    	ecx, ecx
  0x1036	dec    	eax
  0x1037	call   	dword ptr [0x21d3]
  === BLOCK LINK ===
    0x103d
=== CODE BLOCK END ===

=== CODE BLOCK ADDRESS 0x103d ===
  0x103d	nop    	dword ptr [eax + eax]
  0x1042	mov    	ecx, esi
  0x1044	call   	0x26a8
  === BLOCK LINK ===
    0x1049
    0x26a8
=== CODE BLOCK END ===

=== CODE BLOCK ADDRESS 0x1049 ===
  0x1049	dec    	eax
  0x104a	mov    	ecx, eax
  0x104c	call   	0x160c
  === BLOCK LINK ===
    0x1051
    0x160c
=== CODE BLOCK END ===

=== CODE BLOCK ADDRESS 0x1051 ===
  0x1051	lea    	ecx, [esi + 1]
  0x1054	call   	0x26a8
  === BLOCK LINK ===
    0x1059
    0x26a8
=== CODE BLOCK END ===

=== CODE BLOCK ADDRESS 0x1059 ===
  0x1059	dec    	eax
  0x105a	mov    	ecx, eax
  0x105c	call   	0x160c
  === BLOCK LINK ===
    0x1061
    0x160c
=== CODE BLOCK END ===

=== CODE BLOCK ADDRESS 0x1061 ===
  0x1061	xor    	edi, edi
  === BLOCK LINK ===
    0x1063
=== CODE BLOCK END ===

=== CODE BLOCK ADDRESS 0x106a ===
  0x106a	dec    	eax
  0x106b	test   	eax, eax
  0x106d	je     	0x109b
  === BLOCK LINK ===
    0x106f
    0x109b
=== CODE BLOCK END ===

=== CODE BLOCK ADDRESS 0x106f ===
  0x106f	cmp    	word ptr [eax], 0x2d
  0x1073	je     	0x107b
  === BLOCK LINK ===
    0x1075
    0x107b
=== CODE BLOCK END ===

=== CODE BLOCK ADDRESS 0x1075 ===
  0x1075	cmp    	word ptr [eax], 0x2f
  0x1079	jne    	0x10b6
  === BLOCK LINK ===
    0x107b
    0x10b6
=== CODE BLOCK END ===

=== CODE BLOCK ADDRESS 0x107b ===
  0x107b	dec    	eax
  0x107c	lea    	ecx, [eax + 2]
  0x107f	jmp    	0x1091
  === BLOCK LINK ===
    0x1081
    0x1091
=== CODE BLOCK END ===

=== CODE BLOCK ADDRESS 0x1081 ===
  0x1081	cmp    	ax, 0x6c
  0x1085	jne    	0x109b
  === BLOCK LINK ===
    0x1087
    0x109b
=== CODE BLOCK END ===

=== CODE BLOCK ADDRESS 0x1087 ===
  0x1087	mov    	dword ptr [0x4543], esi
  0x108d	dec    	eax
  0x108e	add    	ecx, 2
  === BLOCK LINK ===
    0x1091
=== CODE BLOCK END ===

=== CODE BLOCK ADDRESS 0x1097 ===
  0x1097	jne    	0x1081
  === BLOCK LINK ===
    0x1099
    0x1081
=== CODE BLOCK END ===

=== CODE BLOCK ADDRESS 0x1099 ===
  0x1099	jmp    	0x1063
  === BLOCK LINK ===
    0x109b
    0x1063
=== CODE BLOCK END ===

=== CODE BLOCK ADDRESS 0x109b ===
  0x109b	mov    	ecx, 2
  0x10a0	call   	0x26a8
  === BLOCK LINK ===
    0x10a5
    0x26a8
=== CODE BLOCK END ===

=== CODE BLOCK ADDRESS 0x10a5 ===
  0x10a5	dec    	eax
  0x10a6	mov    	ecx, eax
  0x10a8	mov    	edx, 0x2711
  0x10ad	call   	0x1adc
  === BLOCK LINK ===
    0x10b2
    0x1adc
=== CODE BLOCK END ===

=== CODE BLOCK ADDRESS 0x10b2 ===
  0x10b2	mov    	eax, esi
  0x10b4	jmp    	0x112f
  === BLOCK LINK ===
    0x10b6
    0x112f
=== CODE BLOCK END ===

=== CODE BLOCK ADDRESS 0x10b6 ===
  0x10b6	dec    	eax
  0x10b7	test   	eax, eax
  0x10b9	je     	0x109b
  === BLOCK LINK ===
    0x10bb
    0x109b
=== CODE BLOCK END ===

=== CODE BLOCK ADDRESS 0x10bb ===
  0x10bb	mov    	ecx, 0x101
  0x10c0	dec    	eax
  0x10c1	lea    	edx, [0x4559]
  0x10c7	dec    	eax
  0x10c8	call   	dword ptr [0x20aa]
  === BLOCK LINK ===
    0x10ce
=== CODE BLOCK END ===

=== CODE BLOCK ADDRESS 0x10ce ===
  0x10ce	nop    	dword ptr [eax + eax]
  0x10d3	test   	eax, eax
  0x10d5	je     	0x1128
  === BLOCK LINK ===
    0x10d7
    0x1128
=== CODE BLOCK END ===

=== CODE BLOCK ADDRESS 0x10d7 ===
  0x10d7	mov    	edx, eax
  0x10d9	mov    	ecx, 0x271a
  0x10de	call   	0x1b60
  === BLOCK LINK ===
    0x10e3
    0x1b60
=== CODE BLOCK END ===

=== CODE BLOCK ADDRESS 0x10e3 ===
  0x10e3	jmp    	0x1128
  === BLOCK LINK ===
    0x10e5
    0x1128
=== CODE BLOCK END ===

=== CODE BLOCK ADDRESS 0x10e5 ===
  0x10e5	mov    	ecx, esi
  0x10e7	call   	0x26a8
  === BLOCK LINK ===
    0x10ec
    0x26a8
=== CODE BLOCK END ===

=== CODE BLOCK ADDRESS 0x10ec ===
  0x10ec	dec    	eax
  0x10ed	lea    	edx, [esp + 0x38]
  0x10f1	mov    	dword ptr [esp + 0x38], 0xa
  0x10f9	dec    	eax
  0x10fa	mov    	ecx, eax
  === BLOCK LINK ===
    0x10fc
=== CODE BLOCK END ===

=== CODE BLOCK ADDRESS 0x10fc ===
  0x10fc	call   	0x17ac
  === BLOCK LINK ===
    0x1101
    0x17ac
=== CODE BLOCK END ===

=== CODE BLOCK ADDRESS 0x1101 ===
  0x1101	dec    	eax
  0x1102	mov    	ecx, dword ptr [ebx]
  0x1104	call   	0x1148
  === BLOCK LINK ===
    0x1109
    0x1148
=== CODE BLOCK END ===

=== CODE BLOCK ADDRESS 0x1109 ===
  0x1109	test   	eax, eax
  0x110b	jne    	0x1124
  === BLOCK LINK ===
    0x110d
    0x1124
=== CODE BLOCK END ===

=== CODE BLOCK ADDRESS 0x110d ===
  0x110d	mov    	ecx, esi
  0x110f	call   	0x26a8
  === BLOCK LINK ===
    0x1114
    0x26a8
=== CODE BLOCK END ===

=== CODE BLOCK ADDRESS 0x1114 ===
  0x1114	dec    	esp
  0x1115	mov    	eax, dword ptr [ebx]
  0x1117	dec    	eax
  0x1118	mov    	ecx, eax
  0x111a	mov    	edx, 0x2710
  === BLOCK LINK ===
    0x111f
=== CODE BLOCK END ===

=== CODE BLOCK ADDRESS 0x111f ===
  0x111f	call   	0x1adc
  === BLOCK LINK ===
    0x1124
    0x1adc
=== CODE BLOCK END ===

=== CODE BLOCK ADDRESS 0x1124 ===
  0x1124	dec    	eax
  0x1125	add    	ebx, 8
  === BLOCK LINK ===
    0x1128
    0x10e5
=== CODE BLOCK END ===

=== CODE BLOCK ADDRESS 0x112d ===
  0x112d	xor    	eax, eax
  === BLOCK LINK ===
    0x112f
=== CODE BLOCK END ===

=== CODE BLOCK ADDRESS 0x1139 ===
  0x1139	dec    	eax
  0x113a	add    	esp, 0x20
  0x113d	pop    	edi
  0x113e	ret    	
  0x113f	int3   	
  === BLOCK LINK ===
    0x1140
=== CODE BLOCK END ===

=== CODE BLOCK ADDRESS 0x26a8 ===
=== CODE BLOCK END ===

=== CODE BLOCK ADDRESS 0x1140 ===
  0x1140	int3   	
  0x1141	int3   	
  0x1142	int3   	
  0x1143	int3   	
  0x1144	int3   	
  === BLOCK LINK ===
    0x1145
=== CODE BLOCK END ===

=== CODE BLOCK ADDRESS 0x1145 ===
  0x1145	int3   	
  0x1146	int3   	
  0x1147	int3   	
  === BLOCK LINK ===
    0x1148
=== CODE BLOCK END ===

=== CODE BLOCK ADDRESS 0x114b ===
  0x114b	dec    	eax
  0x114c	mov    	dword ptr [eax + 0x10], ebx
  0x114f	dec    	eax
  0x1150	mov    	dword ptr [eax + 0x18], esi
  0x1153	dec    	eax
  === BLOCK LINK ===
    0x1154
=== CODE BLOCK END ===

=== CODE BLOCK ADDRESS 0x1154 ===
  0x1154	mov    	dword ptr [eax + 0x20], edi
  0x1157	push   	ebp
  0x1158	inc    	ecx
  0x1159	push   	esp
  0x115a	inc    	ecx
  === BLOCK LINK ===
    0x115b
=== CODE BLOCK END ===

=== CODE BLOCK ADDRESS 0x115b ===
  0x115b	push   	ebp
  0x115c	inc    	ecx
  0x115d	push   	esi
  0x115e	inc    	ecx
  0x115f	push   	edi
  === BLOCK LINK ===
    0x1160
=== CODE BLOCK END ===

=== CODE BLOCK ADDRESS 0x1160 ===
  0x1160	dec    	eax
  0x1161	lea    	ebp, [eax - 0x5a8]
  0x1167	dec    	eax
  0x1168	sub    	esp, 0x680
  0x116e	dec    	eax
  === BLOCK LINK ===
    0x116f
=== CODE BLOCK END ===

=== CODE BLOCK ADDRESS 0x116f ===
  0x116f	mov    	eax, dword ptr [0x3e93]
  0x1175	dec    	eax
  0x1176	xor    	eax, esp
  0x1178	dec    	eax
  0x1179	mov    	dword ptr [ebp + 0x570], eax
  === BLOCK LINK ===
    0x117f
=== CODE BLOCK END ===

=== CODE BLOCK ADDRESS 0x117f ===
  0x117f	dec    	eax
  0x1180	or     	esi, 0xffffffff
  0x1183	inc    	ebp
  0x1184	xor    	esp, esp
  0x1186	dec    	esp
  === BLOCK LINK ===
    0x1187
=== CODE BLOCK END ===

=== CODE BLOCK ADDRESS 0x1187 ===
  0x1187	mov    	edi, ecx
  0x1189	dec    	esp
  0x118a	mov    	dword ptr [esp + 0x20], esp
  0x118e	dec    	eax
  0x118f	mov    	ebx, esi
  === BLOCK LINK ===
    0x1191
=== CODE BLOCK END ===

=== CODE BLOCK ADDRESS 0x1191 ===
  0x1191	lea    	edx, [esi + 0x41]
  0x1194	dec    	eax
  0x1195	call   	dword ptr [0x2205]
  === BLOCK LINK ===
    0x119b
=== CODE BLOCK END ===

=== CODE BLOCK ADDRESS 0x119b ===
  0x119b	nop    	dword ptr [eax + eax]
  0x11a0	dec    	eax
  0x11a1	mov    	edi, eax
  0x11a3	dec    	eax
  0x11a4	test   	eax, eax
  === BLOCK LINK ===
    0x11a6
=== CODE BLOCK END ===

=== CODE BLOCK ADDRESS 0x11a6 ===
  0x11a6	jne    	0x11c9
  === BLOCK LINK ===
    0x11a8
    0x11c9
=== CODE BLOCK END ===

=== CODE BLOCK ADDRESS 0x11a8 ===
  0x11a8	mov    	edx, 0x104
  0x11ad	dec    	eax
  0x11ae	lea    	ecx, [esp + 0x60]
  0x11b2	dec    	eax
  0x11b3	call   	dword ptr [0x1fc7]
  === BLOCK LINK ===
    0x11b9
=== CODE BLOCK END ===

=== CODE BLOCK ADDRESS 0x11b9 ===
  0x11b9	nop    	dword ptr [eax + eax]
  0x11be	test   	eax, eax
  0x11c0	jne    	0x11d7
  === BLOCK LINK ===
    0x11c2
    0x11d7
=== CODE BLOCK END ===

=== CODE BLOCK ADDRESS 0x11c2 ===
  0x11c2	dec    	eax
  0x11c3	lea    	edi, [esp + 0x60]
  0x11c7	jmp    	0x11d1
  === BLOCK LINK ===
    0x11c9
    0x11d1
=== CODE BLOCK END ===

=== CODE BLOCK ADDRESS 0x11c9 ===
  0x11c9	inc    	sp
  0x11cb	mov    	dword ptr [eax], esp
  0x11cd	dec    	eax
  0x11ce	add    	edi, 2
  0x11d1	inc    	sp
  === BLOCK LINK ===
    0x11d3
=== CODE BLOCK END ===

=== CODE BLOCK ADDRESS 0x11d3 ===
  0x11d3	cmp    	dword ptr [edi], esp
  0x11d5	jne    	0x11de
  === BLOCK LINK ===
    0x11d7
    0x11de
=== CODE BLOCK END ===

=== CODE BLOCK ADDRESS 0x11d7 ===
  0x11d7	xor    	eax, eax
  0x11d9	jmp    	0x1482
  === BLOCK LINK ===
    0x11de
    0x1482
=== CODE BLOCK END ===

=== CODE BLOCK ADDRESS 0x11de ===
  0x11de	xorps  	xmm0, xmm0
  0x11e1	dec    	esp
  0x11e2	lea    	ecx, [esp + 0x20]
  0x11e6	movups  	xmmword ptr [esp + 0x28], xmm0
  0x11eb	inc    	ecx
  === BLOCK LINK ===
    0x11ec
=== CODE BLOCK END ===

=== CODE BLOCK ADDRESS 0x11ec ===
  0x11ec	mov    	ebp, 1
  0x11f1	dec    	eax
  0x11f2	mov    	dword ptr [esp + 0x28], 2
  0x11fa	dec    	esp
  0x11fb	lea    	eax, [esp + 0x28]
  === BLOCK LINK ===
    0x11ff
=== CODE BLOCK END ===

=== CODE BLOCK ADDRESS 0x11ff ===
  0x11ff	inc    	esp
  0x1200	mov    	dword ptr [esp + 0x30], ebp
  0x1204	dec    	eax
  0x1205	lea    	edx, [0x2215]
  0x120b	dec    	eax
  === BLOCK LINK ===
    0x120c
=== CODE BLOCK END ===

=== CODE BLOCK ADDRESS 0x120c ===
  0x120c	mov    	ecx, edi
  0x120e	movups  	xmmword ptr [esp + 0x38], xmm0
  0x1213	movups  	xmmword ptr [esp + 0x48], xmm0
  0x1218	dec    	eax
  0x1219	call   	dword ptr [0x1f19]
  === BLOCK LINK ===
    0x121f
=== CODE BLOCK END ===

=== CODE BLOCK ADDRESS 0x121f ===
  0x121f	nop    	dword ptr [eax + eax]
  0x1224	inc    	esp
  0x1225	mov    	esi, eax
  0x1227	test   	eax, eax
  0x1229	je     	0x126b
  === BLOCK LINK ===
    0x122b
    0x126b
=== CODE BLOCK END ===

=== CODE BLOCK ADDRESS 0x122b ===
  0x122b	cmp    	eax, 0x277d
  0x1230	je     	0x124f
  === BLOCK LINK ===
    0x1232
=== CODE BLOCK END ===

=== CODE BLOCK ADDRESS 0x1232 ===
  0x1232	inc    	ecx
  0x1233	mov    	ecx, ebp
  0x1235	call   	0x26a8
  === BLOCK LINK ===
    0x123a
=== CODE BLOCK END ===

=== CODE BLOCK ADDRESS 0x123a ===
  0x123a	dec    	eax
  0x123b	mov    	ecx, eax
  0x123d	dec    	esp
  0x123e	mov    	eax, edi
  0x1240	mov    	edx, 0x2710
  === BLOCK LINK ===
    0x1245
=== CODE BLOCK END ===

=== CODE BLOCK ADDRESS 0x1245 ===
  0x1245	call   	0x1adc
  === BLOCK LINK ===
    0x124a
=== CODE BLOCK END ===

=== CODE BLOCK ADDRESS 0x124a ===
  0x124a	jmp    	0x147f
  === BLOCK LINK ===
    0x124f
=== CODE BLOCK END ===

=== CODE BLOCK ADDRESS 0x124f ===
  0x124f	mov    	ecx, 2
  0x1254	call   	0x26a8
  === BLOCK LINK ===
    0x1259
=== CODE BLOCK END ===

=== CODE BLOCK ADDRESS 0x1259 ===
  0x1259	dec    	eax
  0x125a	mov    	ecx, eax
  0x125c	mov    	edx, 0x2712
  0x1261	call   	0x1adc
  === BLOCK LINK ===
    0x1266
=== CODE BLOCK END ===

=== CODE BLOCK ADDRESS 0x1266 ===
  0x1266	jmp    	0x147f
  === BLOCK LINK ===
    0x126b
=== CODE BLOCK END ===

=== CODE BLOCK ADDRESS 0x126b ===
  0x126b	inc    	ecx
  0x126c	mov    	ecx, ebp
  0x126e	call   	0x26a8
  === BLOCK LINK ===
    0x1273
=== CODE BLOCK END ===

=== CODE BLOCK ADDRESS 0x1273 ===
  0x1273	dec    	esp
  0x1274	mov    	eax, dword ptr [esp + 0x20]
  0x1278	dec    	eax
  0x1279	mov    	ecx, eax
  0x127b	mov    	edx, 0x2714
  === BLOCK LINK ===
    0x1280
=== CODE BLOCK END ===

=== CODE BLOCK ADDRESS 0x1280 ===
  0x1280	dec    	ebp
  0x1281	mov    	eax, dword ptr [eax + 0x18]
  0x1284	call   	0x1adc
  === BLOCK LINK ===
    0x1289
=== CODE BLOCK END ===

=== CODE BLOCK ADDRESS 0x1289 ===
  0x1289	inc    	ecx
  0x128a	mov    	ecx, ebp
  0x128c	call   	0x26a8
  === BLOCK LINK ===
    0x1291
=== CODE BLOCK END ===

=== CODE BLOCK ADDRESS 0x1291 ===
  0x1291	dec    	eax
  0x1292	mov    	ecx, eax
  0x1294	dec    	eax
  0x1295	call   	dword ptr [0x210d]
  === BLOCK LINK ===
    0x129b
=== CODE BLOCK END ===

=== CODE BLOCK ADDRESS 0x129b ===
  0x129b	nop    	dword ptr [eax + eax]
  0x12a0	dec    	eax
  0x12a1	mov    	ecx, dword ptr [esp + 0x20]
  0x12a5	dec    	eax
  0x12a6	mov    	edi, ecx
  === BLOCK LINK ===
    0x12a8
=== CODE BLOCK END ===

=== CODE BLOCK ADDRESS 0x12a8 ===
  0x12a8	dec    	eax
  0x12a9	test   	ecx, ecx
  0x12ab	je     	0x1323
  === BLOCK LINK ===
    0x12ad
=== CODE BLOCK END ===

=== CODE BLOCK ADDRESS 0x12ad ===
  0x12ad	inc    	esp
  0x12ae	mov    	eax, dword ptr [edi + 0xc]
  0x12b1	mov    	edx, dword ptr [edi + 8]
  0x12b4	mov    	ecx, dword ptr [edi + 4]
  0x12b7	dec    	eax
  === BLOCK LINK ===
    0x12b8
=== CODE BLOCK END ===

=== CODE BLOCK ADDRESS 0x12b8 ===
  0x12b8	call   	dword ptr [0x1e92]
  === BLOCK LINK ===
    0x12be
=== CODE BLOCK END ===

=== CODE BLOCK ADDRESS 0x12be ===
  0x12be	nop    	dword ptr [eax + eax]
  0x12c3	dec    	eax
  0x12c4	mov    	ebx, eax
  0x12c6	dec    	eax
  0x12c7	cmp    	eax, esi
  === BLOCK LINK ===
    0x12c9
=== CODE BLOCK END ===

=== CODE BLOCK ADDRESS 0x12c9 ===
  0x12c9	jne    	0x12dc
  === BLOCK LINK ===
    0x12cb
=== CODE BLOCK END ===

=== CODE BLOCK ADDRESS 0x12cb ===
  0x12cb	dec    	eax
  0x12cc	call   	dword ptr [0x1eb6]
  === BLOCK LINK ===
    0x12d2
=== CODE BLOCK END ===

=== CODE BLOCK ADDRESS 0x12d2 ===
  0x12d2	nop    	dword ptr [eax + eax]
  0x12d7	inc    	esp
  0x12d8	mov    	esi, eax
  0x12da	jmp    	0x1315
  === BLOCK LINK ===
    0x12dc
=== CODE BLOCK END ===

=== CODE BLOCK ADDRESS 0x12dc ===
  0x12dc	inc    	esp
  0x12dd	mov    	eax, dword ptr [edi + 0x10]
  0x12e0	dec    	eax
  0x12e1	mov    	ecx, ebx
  0x12e3	dec    	eax
  === BLOCK LINK ===
    0x12e4
=== CODE BLOCK END ===

=== CODE BLOCK ADDRESS 0x12e4 ===
  0x12e4	mov    	edx, dword ptr [edi + 0x20]
  0x12e7	dec    	eax
  0x12e8	call   	dword ptr [0x1e52]
  === BLOCK LINK ===
    0x12ee
=== CODE BLOCK END ===

=== CODE BLOCK ADDRESS 0x12ee ===
  0x12ee	nop    	dword ptr [eax + eax]
  0x12f3	cmp    	eax, esi
  0x12f5	jne    	0x131e
  === BLOCK LINK ===
    0x12f7
=== CODE BLOCK END ===

=== CODE BLOCK ADDRESS 0x12f7 ===
  0x12f7	dec    	eax
  0x12f8	call   	dword ptr [0x1e8a]
  === BLOCK LINK ===
    0x12fe
=== CODE BLOCK END ===

=== CODE BLOCK ADDRESS 0x12fe ===
  0x12fe	nop    	dword ptr [eax + eax]
  0x1303	dec    	eax
  0x1304	mov    	ecx, ebx
  0x1306	inc    	esp
  0x1307	mov    	esi, eax
  === BLOCK LINK ===
    0x1309
=== CODE BLOCK END ===

=== CODE BLOCK ADDRESS 0x1309 ===
  0x1309	dec    	eax
  0x130a	call   	dword ptr [0x1e60]
  === BLOCK LINK ===
    0x1310
=== CODE BLOCK END ===

=== CODE BLOCK ADDRESS 0x1310 ===
  0x1310	nop    	dword ptr [eax + eax]
  0x1315	dec    	eax
  0x1316	mov    	edi, dword ptr [edi + 0x28]
  0x1319	dec    	eax
  0x131a	test   	edi, edi
  === BLOCK LINK ===
    0x131c
=== CODE BLOCK END ===

=== CODE BLOCK ADDRESS 0x131c ===
  0x131c	jne    	0x12ad
  === BLOCK LINK ===
    0x131e
=== CODE BLOCK END ===

=== CODE BLOCK ADDRESS 0x131e ===
  0x131e	dec    	eax
  0x131f	mov    	ecx, dword ptr [esp + 0x20]
  0x1323	dec    	eax
  0x1324	call   	dword ptr [0x1e3e]
  === BLOCK LINK ===
    0x132a
=== CODE BLOCK END ===

=== CODE BLOCK ADDRESS 0x132a ===
  0x132a	nop    	dword ptr [eax + eax]
  0x132f	dec    	eax
  0x1330	test   	edi, edi
  0x1332	jne    	0x134f
  === BLOCK LINK ===
    0x1334
=== CODE BLOCK END ===

=== CODE BLOCK ADDRESS 0x1334 ===
  0x1334	mov    	ecx, 0x2715
  0x1339	dec    	eax
  0x133a	cmp    	ebx, esi
  0x133c	inc    	ecx
  0x133d	mov    	edx, esi
  === BLOCK LINK ===
    0x133f
=== CODE BLOCK END ===

=== CODE BLOCK ADDRESS 0x133f ===
  0x133f	lea    	eax, [ecx + 2]
  0x1342	cmovne  	ecx, eax
  0x1345	call   	0x1b60
  === BLOCK LINK ===
    0x134a
=== CODE BLOCK END ===

=== CODE BLOCK ADDRESS 0x134a ===
  0x134a	jmp    	0x147f
  === BLOCK LINK ===
    0x134f
=== CODE BLOCK END ===

=== CODE BLOCK ADDRESS 0x134f ===
  0x134f	inc    	esp
  0x1350	cmp    	dword ptr [0x427a], esp
  0x1356	je     	0x1375
  === BLOCK LINK ===
    0x1358
=== CODE BLOCK END ===

=== CODE BLOCK ADDRESS 0x1358 ===
  0x1358	inc    	ecx
  0x1359	mov    	eax, 3
  0x135e	dec    	eax
  0x135f	lea    	edx, [0x20cb]
  0x1365	dec    	eax
  === BLOCK LINK ===
    0x1366
=== CODE BLOCK END ===

=== CODE BLOCK ADDRESS 0x1366 ===
  0x1366	mov    	ecx, ebx
  0x1368	call   	0x1c38
  === BLOCK LINK ===
    0x136d
=== CODE BLOCK END ===

=== CODE BLOCK ADDRESS 0x136d ===
  0x136d	test   	eax, eax
  0x136f	js     	0x1458
  === BLOCK LINK ===
    0x1375
=== CODE BLOCK END ===

=== CODE BLOCK ADDRESS 0x1375 ===
  0x1375	dec    	eax
  0x1376	inc    	esi
  0x1378	inc    	bp
  0x137a	cmp    	dword ptr [edi + esi*2], esp
  0x137d	jne    	0x1375
  === BLOCK LINK ===
    0x137f
=== CODE BLOCK END ===

=== CODE BLOCK ADDRESS 0x137f ===
  0x137f	dec    	esp
  0x1380	mov    	eax, esi
  0x1382	dec    	ecx
  0x1383	mov    	edx, edi
  0x1385	dec    	eax
  === BLOCK LINK ===
    0x1386
=== CODE BLOCK END ===

=== CODE BLOCK ADDRESS 0x1386 ===
  0x1386	mov    	ecx, ebx
  0x1388	call   	0x1c38
  === BLOCK LINK ===
    0x138d
=== CODE BLOCK END ===

=== CODE BLOCK ADDRESS 0x138d ===
  0x138d	test   	eax, eax
  0x138f	js     	0x1458
  === BLOCK LINK ===
    0x1395
=== CODE BLOCK END ===

=== CODE BLOCK ADDRESS 0x1395 ===
  0x1395	inc    	ecx
  0x1396	mov    	eax, 2
  0x139b	dec    	eax
  0x139c	lea    	edx, [0x2096]
  0x13a2	dec    	eax
  === BLOCK LINK ===
    0x13a3
=== CODE BLOCK END ===

=== CODE BLOCK ADDRESS 0x13a3 ===
  0x13a3	mov    	ecx, ebx
  0x13a5	call   	0x1c38
  === BLOCK LINK ===
    0x13aa
=== CODE BLOCK END ===

=== CODE BLOCK ADDRESS 0x13aa ===
  0x13aa	test   	eax, eax
  0x13ac	js     	0x1458
  === BLOCK LINK ===
    0x13b2
=== CODE BLOCK END ===

=== CODE BLOCK ADDRESS 0x13b2 ===
  0x13b2	mov    	edi, 0x3ff
  0x13b7	dec    	eax
  0x13b8	lea    	edx, [ebp + 0x170]
  0x13be	inc    	esp
  0x13bf	mov    	eax, edi
  === BLOCK LINK ===
    0x13c1
=== CODE BLOCK END ===

=== CODE BLOCK ADDRESS 0x13c1 ===
  0x13c1	inc    	ebp
  0x13c2	xor    	ecx, ecx
  0x13c4	dec    	eax
  0x13c5	mov    	ecx, ebx
  0x13c7	dec    	eax
  === BLOCK LINK ===
    0x13c8
=== CODE BLOCK END ===

=== CODE BLOCK ADDRESS 0x13c8 ===
  0x13c8	call   	dword ptr [0x1d7a]
  === BLOCK LINK ===
    0x13ce
=== CODE BLOCK END ===

=== CODE BLOCK ADDRESS 0x13ce ===
  0x13ce	nop    	dword ptr [eax + eax]
  0x13d3	test   	eax, eax
  0x13d5	jle    	0x142b
  === BLOCK LINK ===
    0x13d7
=== CODE BLOCK END ===

=== CODE BLOCK ADDRESS 0x13d7 ===
  0x13d7	dec    	eax
  0x13d8	arpl   	ax, cx
  0x13da	dec    	eax
  0x13db	cmp    	ecx, 0x400
  0x13e1	jae    	0x14b3
  === BLOCK LINK ===
    0x13e7
=== CODE BLOCK END ===

=== CODE BLOCK ADDRESS 0x13e7 ===
  0x13e7	inc    	esp
  0x13e8	mov    	byte ptr [ebp + ecx + 0x170], ah
  0x13ef	dec    	eax
  0x13f0	lea    	edx, [ebp + 0x170]
  0x13f6	dec    	eax
  === BLOCK LINK ===
    0x13f7
=== CODE BLOCK END ===

=== CODE BLOCK ADDRESS 0x13f7 ===
  0x13f7	lea    	ecx, [0x2043]
  0x13fd	dec    	eax
  0x13fe	call   	dword ptr [0x1f2c]
  === BLOCK LINK ===
    0x1404
=== CODE BLOCK END ===

=== CODE BLOCK ADDRESS 0x1404 ===
  0x1404	nop    	dword ptr [eax + eax]
  0x1409	inc    	ebp
  0x140a	xor    	ecx, ecx
  0x140c	dec    	eax
  0x140d	lea    	edx, [ebp + 0x170]
  === BLOCK LINK ===
    0x1413
=== CODE BLOCK END ===

=== CODE BLOCK ADDRESS 0x1413 ===
  0x1413	inc    	esp
  0x1414	mov    	eax, edi
  0x1416	dec    	eax
  0x1417	mov    	ecx, ebx
  0x1419	dec    	eax
  === BLOCK LINK ===
    0x141a
=== CODE BLOCK END ===

=== CODE BLOCK ADDRESS 0x141a ===
  0x141a	call   	dword ptr [0x1d28]
  === BLOCK LINK ===
    0x1420
=== CODE BLOCK END ===

=== CODE BLOCK ADDRESS 0x1420 ===
  0x1420	nop    	dword ptr [eax + eax]
  0x1425	test   	eax, eax
  0x1427	jg     	0x13d7
  === BLOCK LINK ===
    0x1429
=== CODE BLOCK END ===

=== CODE BLOCK ADDRESS 0x1429 ===
  0x1429	jmp    	0x1443
  === BLOCK LINK ===
    0x142b
=== CODE BLOCK END ===

=== CODE BLOCK ADDRESS 0x142b ===
  0x142b	dec    	eax
  0x142c	call   	dword ptr [0x1d56]
  === BLOCK LINK ===
    0x1432
=== CODE BLOCK END ===

=== CODE BLOCK ADDRESS 0x1432 ===
  0x1432	nop    	dword ptr [eax + eax]
  0x1437	mov    	edx, eax
  0x1439	mov    	ecx, 0x2718
  0x143e	call   	0x1b60
  === BLOCK LINK ===
    0x1443
=== CODE BLOCK END ===

=== CODE BLOCK ADDRESS 0x1443 ===
  0x1443	dec    	eax
  0x1444	lea    	ecx, [0x1ffe]
  0x144a	dec    	eax
  0x144b	call   	dword ptr [0x1edf]
  === BLOCK LINK ===
    0x1451
=== CODE BLOCK END ===

=== CODE BLOCK ADDRESS 0x1451 ===
  0x1451	nop    	dword ptr [eax + eax]
  0x1456	jmp    	0x1470
  === BLOCK LINK ===
    0x1458
=== CODE BLOCK END ===

=== CODE BLOCK ADDRESS 0x1458 ===
  0x1458	dec    	eax
  0x1459	call   	dword ptr [0x1d29]
  === BLOCK LINK ===
    0x145f
=== CODE BLOCK END ===

=== CODE BLOCK ADDRESS 0x145f ===
  0x145f	nop    	dword ptr [eax + eax]
  0x1464	mov    	edx, eax
  0x1466	mov    	ecx, 0x2719
  0x146b	call   	0x1b60
  === BLOCK LINK ===
    0x1470
=== CODE BLOCK END ===

=== CODE BLOCK ADDRESS 0x1470 ===
  0x1470	dec    	eax
  0x1471	mov    	ecx, ebx
  0x1473	dec    	eax
  0x1474	call   	dword ptr [0x1cf6]
  === BLOCK LINK ===
    0x147a
=== CODE BLOCK END ===

=== CODE BLOCK ADDRESS 0x147a ===
  0x147a	nop    	dword ptr [eax + eax]
  0x147f	inc    	ecx
  0x1480	mov    	eax, ebp
  === BLOCK LINK ===
    0x1482
=== CODE BLOCK END ===

=== CODE BLOCK ADDRESS 0x1489 ===
  0x1489	dec    	eax
  0x148a	xor    	ecx, esp
  0x148c	call   	0x20a0
  === BLOCK LINK ===
    0x1491
=== CODE BLOCK END ===

=== CODE BLOCK ADDRESS 0x1491 ===
  0x1491	dec    	esp
  0x1492	lea    	ebx, [esp + 0x680]
  0x1499	dec    	ecx
  0x149a	mov    	ebx, dword ptr [ebx + 0x38]
  0x149d	dec    	ecx
  === BLOCK LINK ===
    0x149e
=== CODE BLOCK END ===

=== CODE BLOCK ADDRESS 0x149e ===
  0x149e	mov    	esi, dword ptr [ebx + 0x40]
  0x14a1	dec    	ecx
  0x14a2	mov    	edi, dword ptr [ebx + 0x48]
  0x14a5	dec    	ecx
  0x14a6	mov    	esp, ebx
  === BLOCK LINK ===
    0x14a8
=== CODE BLOCK END ===

=== CODE BLOCK ADDRESS 0x14a8 ===
  0x14a8	inc    	ecx
  0x14a9	pop    	edi
  0x14aa	inc    	ecx
  0x14ab	pop    	esi
  0x14ac	inc    	ecx
  === BLOCK LINK ===
    0x14ad
=== CODE BLOCK END ===

=== CODE BLOCK ADDRESS 0x14ad ===
  0x14ad	pop    	ebp
  0x14ae	inc    	ecx
  0x14af	pop    	esp
  0x14b0	pop    	ebp
  0x14b1	ret    	
  === BLOCK LINK ===
    0x14b2
=== CODE BLOCK END ===

=== CODE BLOCK ADDRESS 0x160c ===
=== CODE BLOCK END ===

=== CODE BLOCK ADDRESS 0x14b2 ===
  0x14b2	int3   	
  0x14b3	call   	0x2278
  === BLOCK LINK ===
    0x14b8
=== CODE BLOCK END ===

=== CODE BLOCK ADDRESS 0x14b8 ===
  0x14b8	int3   	
  0x14b9	int3   	
  0x14ba	int3   	
  0x14bb	int3   	
  0x14bc	int3   	
  === BLOCK LINK ===
    0x14bd
=== CODE BLOCK END ===

=== CODE BLOCK ADDRESS 0x14bd ===
  0x14bd	int3   	
  0x14be	int3   	
  0x14bf	int3   	
  0x14c0	dec    	eax
  0x14c1	mov    	dword ptr [esp + 8], ebx
  === BLOCK LINK ===
    0x14c5
=== CODE BLOCK END ===

=== CODE BLOCK ADDRESS 0x14c5 ===
  0x14c5	dec    	eax
  0x14c6	mov    	dword ptr [esp + 0x10], ebp
  0x14ca	dec    	eax
  0x14cb	mov    	dword ptr [esp + 0x20], esi
  0x14cf	push   	edi
  === BLOCK LINK ===
    0x14d0
=== CODE BLOCK END ===

=== CODE BLOCK ADDRESS 0x14d0 ===
  0x14d0	dec    	eax
  0x14d1	sub    	esp, 0x20
  0x14d4	dec    	eax
  0x14d5	mov    	esi, ecx
  0x14d7	dec    	eax
  === BLOCK LINK ===
    0x14d8
=== CODE BLOCK END ===

=== CODE BLOCK ADDRESS 0x14d8 ===
  0x14d8	mov    	ebp, edx
  0x14da	dec    	eax
  0x14db	mov    	ecx, edx
  0x14dd	dec    	eax
  0x14de	call   	dword ptr [0x1ce4]
  === BLOCK LINK ===
    0x14e4
=== CODE BLOCK END ===

=== CODE BLOCK ADDRESS 0x14e4 ===
  0x14e4	nop    	dword ptr [eax + eax]
  0x14e9	xor    	ebx, ebx
  0x14eb	mov    	edi, eax
  0x14ed	test   	eax, eax
  0x14ef	jne    	0x150f
  === BLOCK LINK ===
    0x14f1
=== CODE BLOCK END ===

=== CODE BLOCK ADDRESS 0x14f1 ===
  0x14f1	dec    	eax
  0x14f2	call   	dword ptr [0x1cb8]
  === BLOCK LINK ===
    0x14f8
=== CODE BLOCK END ===

=== CODE BLOCK ADDRESS 0x14f8 ===
  0x14f8	nop    	dword ptr [eax + eax]
  0x14fd	test   	eax, eax
  0x14ff	je     	0x150f
  === BLOCK LINK ===
    0x1501
=== CODE BLOCK END ===

=== CODE BLOCK ADDRESS 0x1501 ===
  0x1501	dec    	eax
  0x1502	call   	dword ptr [0x1ca8]
  === BLOCK LINK ===
    0x1508
=== CODE BLOCK END ===

=== CODE BLOCK ADDRESS 0x1508 ===
  0x1508	nop    	dword ptr [eax + eax]
  0x150d	jmp    	0x154a
  === BLOCK LINK ===
    0x150f
=== CODE BLOCK END ===

=== CODE BLOCK ADDRESS 0x150f ===
  0x150f	btr    	edi, 0xf
  0x1513	cmp    	edi, 2
  0x1516	jne    	0x1546
  === BLOCK LINK ===
    0x1518
=== CODE BLOCK END ===

=== CODE BLOCK ADDRESS 0x1518 ===
  0x1518	dec    	eax
  0x1519	lea    	edx, [esp + 0x40]
  0x151d	dec    	eax
  0x151e	mov    	ecx, ebp
  0x1520	dec    	eax
  === BLOCK LINK ===
    0x1521
=== CODE BLOCK END ===

=== CODE BLOCK ADDRESS 0x1521 ===
  0x1521	call   	dword ptr [0x1c71]
  === BLOCK LINK ===
    0x1527
=== CODE BLOCK END ===

=== CODE BLOCK ADDRESS 0x1527 ===
  0x1527	nop    	dword ptr [eax + eax]
  0x152c	test   	eax, eax
  0x152e	jne    	0x1541
  === BLOCK LINK ===
    0x1530
=== CODE BLOCK END ===

=== CODE BLOCK ADDRESS 0x1530 ===
  0x1530	dec    	eax
  0x1531	call   	dword ptr [0x1c79]
  === BLOCK LINK ===
    0x1537
=== CODE BLOCK END ===

=== CODE BLOCK ADDRESS 0x1537 ===
  0x1537	nop    	dword ptr [eax + eax]
  0x153c	cmp    	eax, 6
  0x153f	je     	0x1546
  === BLOCK LINK ===
    0x1541
=== CODE BLOCK END ===

=== CODE BLOCK ADDRESS 0x1541 ===
  0x1541	mov    	ebx, 1
  0x1546	mov    	dword ptr [esi], ebx
  0x1548	xor    	eax, eax
  0x154a	dec    	eax
  0x154b	mov    	ebx, dword ptr [esp + 0x30]
  === BLOCK LINK ===
    0x154f
=== CODE BLOCK END ===

=== CODE BLOCK ADDRESS 0x154f ===
  0x154f	dec    	eax
  0x1550	mov    	ebp, dword ptr [esp + 0x38]
  0x1554	dec    	eax
  0x1555	mov    	esi, dword ptr [esp + 0x48]
  0x1559	dec    	eax
  === BLOCK LINK ===
    0x155a
=== CODE BLOCK END ===

=== CODE BLOCK ADDRESS 0x155a ===
  0x155a	add    	esp, 0x20
  0x155d	pop    	edi
  0x155e	ret    	
  0x155f	int3   	
  0x1560	int3   	
  === BLOCK LINK ===
    0x1561
=== CODE BLOCK END ===

=== CODE BLOCK ADDRESS 0x1561 ===
  0x1561	int3   	
  0x1562	int3   	
  0x1563	int3   	
  0x1564	int3   	
  0x1565	int3   	
  === BLOCK LINK ===
    0x1566
=== CODE BLOCK END ===

=== CODE BLOCK ADDRESS 0x1566 ===
  0x1566	int3   	
  0x1567	int3   	
  0x1568	dec    	eax
  0x1569	mov    	dword ptr [esp + 0x18], ebx
  0x156d	push   	edi
  === BLOCK LINK ===
    0x156e
=== CODE BLOCK END ===

=== CODE BLOCK ADDRESS 0x156e ===
  0x156e	dec    	eax
  0x156f	sub    	esp, 0x20
  0x1572	dec    	eax
  0x1573	mov    	ebx, edx
  0x1575	dec    	eax
  === BLOCK LINK ===
    0x1576
=== CODE BLOCK END ===

=== CODE BLOCK ADDRESS 0x1576 ===
  0x1576	mov    	edi, ecx
  0x1578	inc    	ecx
  0x1579	cmp    	eax, 0x4f
  0x157c	jae    	0x15f7
  === BLOCK LINK ===
    0x157e
=== CODE BLOCK END ===

=== CODE BLOCK ADDRESS 0x157e ===
  0x157e	dec    	eax
  0x157f	lea    	edx, [0x1eeb]
  0x1585	dec    	eax
  0x1586	mov    	ecx, ebx
  0x1588	dec    	eax
  === BLOCK LINK ===
    0x1589
=== CODE BLOCK END ===

=== CODE BLOCK ADDRESS 0x1589 ===
  0x1589	call   	dword ptr [0x1d49]
  === BLOCK LINK ===
    0x158f
=== CODE BLOCK END ===

=== CODE BLOCK ADDRESS 0x158f ===
  0x158f	nop    	dword ptr [eax + eax]
  0x1594	test   	eax, eax
  0x1596	jne    	0x159f
  === BLOCK LINK ===
    0x1598
=== CODE BLOCK END ===

=== CODE BLOCK ADDRESS 0x1598 ===
  0x1598	mov    	eax, 1
  0x159d	jmp    	0x15f9
  === BLOCK LINK ===
    0x159f
=== CODE BLOCK END ===

=== CODE BLOCK ADDRESS 0x159f ===
  0x159f	dec    	eax
  0x15a0	lea    	edx, [0x1eda]
  0x15a6	dec    	eax
  0x15a7	mov    	ecx, ebx
  0x15a9	dec    	eax
  === BLOCK LINK ===
    0x15aa
=== CODE BLOCK END ===

=== CODE BLOCK ADDRESS 0x15aa ===
  0x15aa	call   	dword ptr [0x1d28]
  === BLOCK LINK ===
    0x15b0
=== CODE BLOCK END ===

=== CODE BLOCK ADDRESS 0x15b0 ===
  0x15b0	nop    	dword ptr [eax + eax]
  0x15b5	test   	eax, eax
  0x15b7	jne    	0x15bd
  === BLOCK LINK ===
    0x15b9
=== CODE BLOCK END ===

=== CODE BLOCK ADDRESS 0x15b9 ===
  0x15b9	and    	dword ptr [edi], eax
  0x15bb	jmp    	0x15f7
  === BLOCK LINK ===
    0x15bd
=== CODE BLOCK END ===

=== CODE BLOCK ADDRESS 0x15bd ===
  0x15bd	dec    	eax
  0x15be	lea    	edx, [0x1ecc]
  0x15c4	dec    	eax
  0x15c5	mov    	ecx, ebx
  0x15c7	dec    	eax
  === BLOCK LINK ===
    0x15c8
=== CODE BLOCK END ===

=== CODE BLOCK ADDRESS 0x15c8 ===
  0x15c8	call   	dword ptr [0x1d0a]
  === BLOCK LINK ===
    0x15ce
=== CODE BLOCK END ===

=== CODE BLOCK ADDRESS 0x15ce ===
  0x15ce	nop    	dword ptr [eax + eax]
  0x15d3	test   	eax, eax
  0x15d5	je     	0x15f1
  === BLOCK LINK ===
    0x15d7
=== CODE BLOCK END ===

=== CODE BLOCK ADDRESS 0x15d7 ===
  0x15d7	dec    	eax
  0x15d8	lea    	edx, [0x1ec2]
  0x15de	dec    	eax
  0x15df	mov    	ecx, ebx
  0x15e1	dec    	eax
  === BLOCK LINK ===
    0x15e2
=== CODE BLOCK END ===

=== CODE BLOCK ADDRESS 0x15e2 ===
  0x15e2	call   	dword ptr [0x1cf0]
  === BLOCK LINK ===
    0x15e8
=== CODE BLOCK END ===

=== CODE BLOCK ADDRESS 0x15e8 ===
  0x15e8	nop    	dword ptr [eax + eax]
  0x15ed	test   	eax, eax
  0x15ef	jne    	0x15f7
  === BLOCK LINK ===
    0x15f1
=== CODE BLOCK END ===

=== CODE BLOCK ADDRESS 0x15f1 ===
  0x15f1	mov    	dword ptr [edi], 0xfde9
  0x15f7	xor    	eax, eax
  0x15f9	dec    	eax
  0x15fa	mov    	ebx, dword ptr [esp + 0x40]
  0x15fe	dec    	eax
  === BLOCK LINK ===
    0x15ff
=== CODE BLOCK END ===

=== CODE BLOCK ADDRESS 0x15ff ===
  0x15ff	add    	esp, 0x20
  0x1602	pop    	edi
  0x1603	ret    	
  0x1604	int3   	
  0x1605	int3   	
  === BLOCK LINK ===
    0x1606
=== CODE BLOCK END ===

=== CODE BLOCK ADDRESS 0x1606 ===
  0x1606	int3   	
  0x1607	int3   	
  0x1608	int3   	
  0x1609	int3   	
  0x160a	int3   	
  === BLOCK LINK ===
    0x160b
=== CODE BLOCK END ===

=== CODE BLOCK ADDRESS 0x160b ===
  0x160b	int3   	
  0x160c	inc    	eax
  0x160d	push   	ebx
  0x160e	dec    	eax
  0x160f	sub    	esp, 0xe0
  === BLOCK LINK ===
    0x1615
=== CODE BLOCK END ===

=== CODE BLOCK ADDRESS 0x1615 ===
  0x1615	dec    	eax
  0x1616	mov    	eax, dword ptr [0x39ec]
  0x161c	dec    	eax
  0x161d	xor    	eax, esp
  0x161f	dec    	eax
  === BLOCK LINK ===
    0x1620
=== CODE BLOCK END ===

=== CODE BLOCK ADDRESS 0x1620 ===
  0x1620	mov    	dword ptr [esp + 0xd0], eax
  0x1627	dec    	eax
  0x1628	mov    	ebx, ecx
  0x162a	dec    	eax
  0x162b	call   	dword ptr [0x1cc7]
  === BLOCK LINK ===
    0x1631
=== CODE BLOCK END ===

=== CODE BLOCK ADDRESS 0x1631 ===
  0x1631	nop    	dword ptr [eax + eax]
  0x1636	mov    	ecx, eax
  0x1638	dec    	eax
  0x1639	call   	dword ptr [0x1c91]
  === BLOCK LINK ===
    0x163f
=== CODE BLOCK END ===

=== CODE BLOCK ADDRESS 0x163f ===
  0x163f	nop    	dword ptr [eax + eax]
  0x1644	dec    	eax
  0x1645	cmp    	eax, -1
  0x1648	je     	0x178a
  === BLOCK LINK ===
    0x164e
=== CODE BLOCK END ===

=== CODE BLOCK ADDRESS 0x164e ===
  0x164e	dec    	eax
  0x164f	mov    	edx, eax
  0x1651	dec    	eax
  0x1652	lea    	ecx, [esp + 0x20]
  0x1656	call   	0x14c0
  === BLOCK LINK ===
    0x165b
=== CODE BLOCK END ===

=== CODE BLOCK ADDRESS 0x165b ===
  0x165b	test   	eax, eax
  0x165d	jne    	0x178a
  === BLOCK LINK ===
    0x1663
=== CODE BLOCK END ===

=== CODE BLOCK ADDRESS 0x1663 ===
  0x1663	cmp    	dword ptr [esp + 0x20], eax
  0x1667	jne    	0x178a
  === BLOCK LINK ===
    0x166d
=== CODE BLOCK END ===

=== CODE BLOCK ADDRESS 0x166d ===
  0x166d	inc    	esp
  0x166e	lea    	eax, [eax + 0x50]
  0x1671	dec    	eax
  0x1672	lea    	edx, [esp + 0x30]
  0x1676	dec    	eax
  === BLOCK LINK ===
    0x1677
=== CODE BLOCK END ===

=== CODE BLOCK ADDRESS 0x1677 ===
  0x1677	lea    	ecx, [0x1dd3]
  0x167d	dec    	eax
  0x167e	call   	dword ptr [0x1ba4]
  === BLOCK LINK ===
    0x1684
=== CODE BLOCK END ===

=== CODE BLOCK ADDRESS 0x1684 ===
  0x1684	nop    	dword ptr [eax + eax]
  0x1689	mov    	ecx, 1
  0x168e	mov    	dword ptr [esp + 0x20], ecx
  0x1692	test   	eax, eax
  0x1694	je     	0x16ae
  === BLOCK LINK ===
    0x1696
=== CODE BLOCK END ===

=== CODE BLOCK ADDRESS 0x1696 ===
  0x1696	inc    	esp
  0x1697	mov    	eax, eax
  0x1699	dec    	eax
  0x169a	lea    	edx, [esp + 0x30]
  0x169e	dec    	eax
  === BLOCK LINK ===
    0x169f
=== CODE BLOCK END ===

=== CODE BLOCK ADDRESS 0x169f ===
  0x169f	lea    	ecx, [esp + 0x20]
  0x16a3	call   	0x1568
  === BLOCK LINK ===
    0x16a8
=== CODE BLOCK END ===

=== CODE BLOCK ADDRESS 0x16a8 ===
  0x16a8	mov    	ecx, dword ptr [esp + 0x20]
  0x16ac	jmp    	0x16b0
  === BLOCK LINK ===
    0x16ae
=== CODE BLOCK END ===

=== CODE BLOCK ADDRESS 0x16ae ===
  0x16ae	xor    	eax, eax
  0x16b0	test   	eax, eax
  0x16b2	je     	0x1716
  === BLOCK LINK ===
    0x16b4
=== CODE BLOCK END ===

=== CODE BLOCK ADDRESS 0x16b4 ===
  0x16b4	dec    	eax
  0x16b5	lea    	edx, [esp + 0x28]
  0x16b9	dec    	eax
  0x16ba	mov    	ecx, ebx
  0x16bc	dec    	eax
  === BLOCK LINK ===
    0x16bd
=== CODE BLOCK END ===

=== CODE BLOCK ADDRESS 0x16bd ===
  0x16bd	call   	dword ptr [0x1c4d]
  === BLOCK LINK ===
    0x16c3
=== CODE BLOCK END ===

=== CODE BLOCK ADDRESS 0x16c3 ===
  0x16c3	nop    	dword ptr [eax + eax]
  0x16c8	test   	eax, eax
  0x16ca	jne    	0x178a
  === BLOCK LINK ===
    0x16d0
=== CODE BLOCK END ===

=== CODE BLOCK ADDRESS 0x16d0 ===
  0x16d0	dec    	eax
  0x16d1	cmp    	dword ptr [esp + 0x28], 0
  0x16d6	jne    	0x178a
  === BLOCK LINK ===
    0x16dc
=== CODE BLOCK END ===

=== CODE BLOCK ADDRESS 0x16dc ===
  0x16dc	dec    	eax
  0x16dd	mov    	ecx, ebx
  0x16df	dec    	eax
  0x16e0	call   	dword ptr [0x1c12]
  === BLOCK LINK ===
    0x16e6
=== CODE BLOCK END ===

=== CODE BLOCK ADDRESS 0x16e6 ===
  0x16e6	nop    	dword ptr [eax + eax]
  0x16eb	mov    	ecx, eax
  0x16ed	mov    	edx, 0x20000
  0x16f2	dec    	eax
  0x16f3	call   	dword ptr [0x1bef]
  === BLOCK LINK ===
    0x16f9
=== CODE BLOCK END ===

=== CODE BLOCK ADDRESS 0x16f9 ===
  0x16f9	nop    	dword ptr [eax + eax]
  0x16fe	dec    	eax
  0x16ff	lea    	edx, [0x1da7]
  0x1705	dec    	eax
  0x1706	mov    	ecx, ebx
  === BLOCK LINK ===
    0x1708
=== CODE BLOCK END ===

=== CODE BLOCK ADDRESS 0x1708 ===
  0x1708	dec    	eax
  0x1709	call   	dword ptr [0x1c09]
  === BLOCK LINK ===
    0x170f
=== CODE BLOCK END ===

=== CODE BLOCK ADDRESS 0x170f ===
  0x170f	nop    	dword ptr [eax + eax]
  0x1714	jmp    	0x178a
  === BLOCK LINK ===
    0x1716
=== CODE BLOCK END ===

=== CODE BLOCK ADDRESS 0x1716 ===
  0x1716	cmp    	ecx, 0xfde9
  0x171c	jne    	0x178a
  === BLOCK LINK ===
    0x171e
=== CODE BLOCK END ===

=== CODE BLOCK ADDRESS 0x171e ===
  0x171e	dec    	eax
  0x171f	lea    	edx, [esp + 0x28]
  0x1723	dec    	eax
  0x1724	mov    	ecx, ebx
  0x1726	dec    	eax
  === BLOCK LINK ===
    0x1727
=== CODE BLOCK END ===

=== CODE BLOCK ADDRESS 0x1727 ===
  0x1727	call   	dword ptr [0x1be3]
  === BLOCK LINK ===
    0x172d
=== CODE BLOCK END ===

=== CODE BLOCK ADDRESS 0x172d ===
  0x172d	nop    	dword ptr [eax + eax]
  0x1732	test   	eax, eax
  0x1734	jne    	0x178a
  === BLOCK LINK ===
    0x1736
=== CODE BLOCK END ===

=== CODE BLOCK ADDRESS 0x1736 ===
  0x1736	dec    	eax
  0x1737	cmp    	dword ptr [esp + 0x28], 0
  0x173c	jne    	0x178a
  === BLOCK LINK ===
    0x173e
=== CODE BLOCK END ===

=== CODE BLOCK ADDRESS 0x173e ===
  0x173e	dec    	eax
  0x173f	mov    	ecx, ebx
  0x1741	dec    	eax
  0x1742	call   	dword ptr [0x1bb0]
  === BLOCK LINK ===
    0x1748
=== CODE BLOCK END ===

=== CODE BLOCK ADDRESS 0x1748 ===
  0x1748	nop    	dword ptr [eax + eax]
  0x174d	mov    	ecx, eax
  0x174f	mov    	edx, 0x8000
  0x1754	dec    	eax
  0x1755	call   	dword ptr [0x1b8d]
  === BLOCK LINK ===
    0x175b
=== CODE BLOCK END ===

=== CODE BLOCK ADDRESS 0x175b ===
  0x175b	nop    	dword ptr [eax + eax]
  0x1760	dec    	eax
  0x1761	mov    	ecx, ebx
  0x1763	dec    	eax
  0x1764	call   	dword ptr [0x1b8e]
  === BLOCK LINK ===
    0x176a
=== CODE BLOCK END ===

=== CODE BLOCK ADDRESS 0x176a ===
  0x176a	nop    	dword ptr [eax + eax]
  0x176f	inc    	ecx
  0x1770	mov    	eax, 3
  0x1775	dec    	eax
  0x1776	lea    	edx, [0x1d34]
  === BLOCK LINK ===
    0x177c
=== CODE BLOCK END ===

=== CODE BLOCK ADDRESS 0x177c ===
  0x177c	mov    	ecx, eax
  0x177e	dec    	eax
  0x177f	call   	dword ptr [0x1b6b]
  === BLOCK LINK ===
    0x1785
=== CODE BLOCK END ===

=== CODE BLOCK ADDRESS 0x1785 ===
  0x1785	nop    	dword ptr [eax + eax]
  0x178a	dec    	eax
  0x178b	mov    	ecx, dword ptr [esp + 0xd0]
  0x1792	dec    	eax
  0x1793	xor    	ecx, esp
  === BLOCK LINK ===
    0x1795
=== CODE BLOCK END ===

=== CODE BLOCK ADDRESS 0x1795 ===
  0x1795	call   	0x20a0
  === BLOCK LINK ===
    0x179a
=== CODE BLOCK END ===

=== CODE BLOCK ADDRESS 0x179a ===
  0x179a	dec    	eax
  0x179b	add    	esp, 0xe0
  0x17a1	pop    	ebx
  0x17a2	ret    	
  0x17a3	int3   	
  === BLOCK LINK ===
    0x17a4
=== CODE BLOCK END ===

=== CODE BLOCK ADDRESS 0x17a4 ===
  0x17a4	int3   	
  0x17a5	int3   	
  0x17a6	int3   	
  0x17a7	int3   	
  0x17a8	int3   	
  === BLOCK LINK ===
    0x17a9
=== CODE BLOCK END ===

=== CODE BLOCK ADDRESS 0x17a9 ===
  0x17a9	int3   	
  0x17aa	int3   	
  0x17ab	int3   	
  === BLOCK LINK ===
    0x17ac
=== CODE BLOCK END ===

=== CODE BLOCK ADDRESS 0x17b1 ===
  0x17b1	dec    	eax
  0x17b2	mov    	dword ptr [esp + 0x20], ebp
  0x17b6	push   	esi
  0x17b7	push   	edi
  0x17b8	inc    	ecx
  === BLOCK LINK ===
    0x17b9
=== CODE BLOCK END ===

=== CODE BLOCK ADDRESS 0x17b9 ===
  0x17b9	push   	esp
  0x17ba	inc    	ecx
  0x17bb	push   	esi
  0x17bc	inc    	ecx
  0x17bd	push   	edi
  === BLOCK LINK ===
    0x17be
=== CODE BLOCK END ===

=== CODE BLOCK ADDRESS 0x17be ===
  0x17be	dec    	eax
  0x17bf	sub    	esp, 0x100
  0x17c5	dec    	eax
  0x17c6	mov    	eax, dword ptr [0x383c]
  0x17cc	dec    	eax
  === BLOCK LINK ===
    0x17cd
=== CODE BLOCK END ===

=== CODE BLOCK ADDRESS 0x17cd ===
  0x17cd	xor    	eax, esp
  0x17cf	dec    	eax
  0x17d0	mov    	dword ptr [esp + 0xf0], eax
  0x17d7	inc    	ebp
  0x17d8	xor    	esi, esi
  === BLOCK LINK ===
    0x17da
=== CODE BLOCK END ===

=== CODE BLOCK ADDRESS 0x17da ===
  0x17da	dec    	esp
  0x17db	mov    	edi, edx
  0x17dd	dec    	eax
  0x17de	mov    	edi, ecx
  0x17e0	xor    	esi, esi
  === BLOCK LINK ===
    0x17e2
=== CODE BLOCK END ===

=== CODE BLOCK ADDRESS 0x17e2 ===
  0x17e2	inc    	ebp
  0x17e3	lea    	esp, [esi + 1]
  0x17e6	inc    	ecx
  0x17e7	mov    	ebx, esp
  0x17e9	mov    	dword ptr [esp + 0x40], ebx
  === BLOCK LINK ===
    0x17ed
=== CODE BLOCK END ===

=== CODE BLOCK ADDRESS 0x17ed ===
  0x17ed	dec    	eax
  0x17ee	call   	dword ptr [0x1bb4]
  === BLOCK LINK ===
    0x17f4
=== CODE BLOCK END ===

=== CODE BLOCK ADDRESS 0x17f4 ===
  0x17f4	nop    	dword ptr [eax + eax]
  0x17f9	dec    	eax
  0x17fa	mov    	ecx, edi
  0x17fc	dec    	eax
  0x17fd	call   	dword ptr [0x1af5]
  === BLOCK LINK ===
    0x1803
=== CODE BLOCK END ===

=== CODE BLOCK ADDRESS 0x1803 ===
  0x1803	nop    	dword ptr [eax + eax]
  0x1808	mov    	ecx, eax
  0x180a	dec    	eax
  0x180b	call   	dword ptr [0x1abf]
  === BLOCK LINK ===
    0x1811
=== CODE BLOCK END ===

=== CODE BLOCK ADDRESS 0x1811 ===
  0x1811	nop    	dword ptr [eax + eax]
  0x1816	dec    	eax
  0x1817	cmp    	eax, -1
  0x181a	je     	0x1835
  === BLOCK LINK ===
    0x181c
=== CODE BLOCK END ===

=== CODE BLOCK ADDRESS 0x181c ===
  0x181c	dec    	eax
  0x181d	mov    	edx, eax
  0x181f	dec    	eax
  0x1820	lea    	ecx, [esp + 0x40]
  0x1824	call   	0x14c0
  === BLOCK LINK ===
    0x1829
=== CODE BLOCK END ===

=== CODE BLOCK ADDRESS 0x1829 ===
  0x1829	mov    	ebx, dword ptr [esp + 0x40]
  0x182d	test   	eax, eax
  0x182f	jne    	0x1835
  === BLOCK LINK ===
    0x1831
=== CODE BLOCK END ===

=== CODE BLOCK ADDRESS 0x1831 ===
  0x1831	test   	ebx, ebx
  0x1833	je     	0x185a
  === BLOCK LINK ===
    0x1835
=== CODE BLOCK END ===

=== CODE BLOCK ADDRESS 0x1835 ===
  0x1835	dec    	eax
  0x1836	mov    	ecx, edi
  0x1838	dec    	eax
  0x1839	call   	dword ptr [0x1ab9]
  === BLOCK LINK ===
    0x183f
=== CODE BLOCK END ===

=== CODE BLOCK ADDRESS 0x183f ===
  0x183f	nop    	dword ptr [eax + eax]
  0x1844	mov    	ecx, eax
  0x1846	mov    	edx, 0x20000
  0x184b	dec    	eax
  0x184c	call   	dword ptr [0x1a96]
  === BLOCK LINK ===
    0x1852
=== CODE BLOCK END ===

=== CODE BLOCK ADDRESS 0x1852 ===
  0x1852	nop    	dword ptr [eax + eax]
  0x1857	inc    	esp
  0x1858	mov    	esi, eax
  0x185a	inc    	ecx
  0x185b	mov    	eax, 0x50
  === BLOCK LINK ===
    0x1860
=== CODE BLOCK END ===

=== CODE BLOCK ADDRESS 0x1860 ===
  0x1860	dec    	eax
  0x1861	lea    	edx, [esp + 0x50]
  0x1865	dec    	eax
  0x1866	lea    	ecx, [0x1be4]
  0x186c	dec    	eax
  === BLOCK LINK ===
    0x186d
=== CODE BLOCK END ===

=== CODE BLOCK ADDRESS 0x186d ===
  0x186d	call   	dword ptr [0x19b5]
  === BLOCK LINK ===
    0x1873
=== CODE BLOCK END ===

=== CODE BLOCK ADDRESS 0x1873 ===
  0x1873	nop    	dword ptr [eax + eax]
  0x1878	inc    	esp
  0x1879	mov    	dword ptr [esp + 0x40], esp
  0x187d	test   	eax, eax
  0x187f	je     	0x189c
  === BLOCK LINK ===
    0x1881
=== CODE BLOCK END ===

=== CODE BLOCK ADDRESS 0x1881 ===
  0x1881	inc    	esp
  0x1882	mov    	eax, eax
  0x1884	dec    	eax
  0x1885	lea    	edx, [esp + 0x50]
  0x1889	dec    	eax
  === BLOCK LINK ===
    0x188a
=== CODE BLOCK END ===

=== CODE BLOCK ADDRESS 0x188a ===
  0x188a	lea    	ecx, [esp + 0x40]
  0x188e	call   	0x1568
  === BLOCK LINK ===
    0x1893
=== CODE BLOCK END ===

=== CODE BLOCK ADDRESS 0x1893 ===
  0x1893	inc    	esp
  0x1894	mov    	esp, dword ptr [esp + 0x40]
  0x1898	mov    	ebp, eax
  0x189a	jmp    	0x189e
  === BLOCK LINK ===
    0x189c
=== CODE BLOCK END ===

=== CODE BLOCK ADDRESS 0x189c ===
  0x189c	xor    	ebp, ebp
  0x189e	test   	ebx, ebx
  0x18a0	jne    	0x19ad
  === BLOCK LINK ===
    0x18a6
=== CODE BLOCK END ===

=== CODE BLOCK ADDRESS 0x18a6 ===
  0x18a6	lea    	edx, [ebx + 0xd]
  0x18a9	dec    	ecx
  0x18aa	mov    	ecx, edi
  0x18ac	dec    	eax
  0x18ad	call   	dword ptr [0x1a55]
  === BLOCK LINK ===
    0x18b3
=== CODE BLOCK END ===

=== CODE BLOCK ADDRESS 0x18b3 ===
  0x18b3	nop    	dword ptr [eax + eax]
  0x18b8	dec    	eax
  0x18b9	mov    	ecx, edi
  0x18bb	dec    	eax
  0x18bc	test   	eax, eax
  === BLOCK LINK ===
    0x18be
=== CODE BLOCK END ===

=== CODE BLOCK ADDRESS 0x18be ===
  0x18be	je     	0x18d3
  === BLOCK LINK ===
    0x18c0
=== CODE BLOCK END ===

=== CODE BLOCK ADDRESS 0x18c0 ===
  0x18c0	dec    	eax
  0x18c1	call   	dword ptr [0x1a31]
  === BLOCK LINK ===
    0x18c7
=== CODE BLOCK END ===

=== CODE BLOCK ADDRESS 0x18c7 ===
  0x18c7	nop    	dword ptr [eax + eax]
  0x18cc	mov    	edx, 0x8000
  0x18d1	jmp    	0x18f1
  === BLOCK LINK ===
    0x18d3
=== CODE BLOCK END ===

=== CODE BLOCK ADDRESS 0x18d3 ===
  0x18d3	mov    	eax, ebp
  0x18d5	neg    	eax
  0x18d7	sbb    	ebx, ebx
  0x18d9	and    	ebx, 0x1c000
  0x18df	dec    	eax
  === BLOCK LINK ===
    0x18e0
=== CODE BLOCK END ===

=== CODE BLOCK ADDRESS 0x18e0 ===
  0x18e0	call   	dword ptr [0x1a12]
  === BLOCK LINK ===
    0x18e6
=== CODE BLOCK END ===

=== CODE BLOCK ADDRESS 0x18e6 ===
  0x18e6	nop    	dword ptr [eax + eax]
  0x18eb	lea    	edx, [ebx + 0x4000]
  0x18f1	mov    	ecx, eax
  0x18f3	dec    	eax
  0x18f4	call   	dword ptr [0x19ee]
  === BLOCK LINK ===
    0x18fa
=== CODE BLOCK END ===

=== CODE BLOCK ADDRESS 0x18fa ===
  0x18fa	nop    	dword ptr [eax + eax]
  0x18ff	inc    	esp
  0x1900	mov    	esi, eax
  0x1902	test   	ebp, ebp
  0x1904	jne    	0x19ad
  === BLOCK LINK ===
    0x190a
=== CODE BLOCK END ===

=== CODE BLOCK ADDRESS 0x190a ===
  0x190a	dec    	eax
  0x190b	and    	dword ptr [esp + 0x38], esi
  0x190f	inc    	ecx
  0x1910	or     	ecx, 0xffffffff
  0x1913	dec    	eax
  === BLOCK LINK ===
    0x1914
=== CODE BLOCK END ===

=== CODE BLOCK ADDRESS 0x1914 ===
  0x1914	and    	dword ptr [esp + 0x30], esi
  0x1918	dec    	ebp
  0x1919	mov    	eax, edi
  0x191b	and    	dword ptr [esp + 0x28], esi
  0x191f	xor    	edx, edx
  === BLOCK LINK ===
    0x1921
=== CODE BLOCK END ===

=== CODE BLOCK ADDRESS 0x1921 ===
  0x1921	dec    	eax
  0x1922	and    	dword ptr [esp + 0x20], esi
  0x1926	inc    	ecx
  0x1927	mov    	ecx, esp
  0x1929	dec    	eax
  === BLOCK LINK ===
    0x192a
=== CODE BLOCK END ===

=== CODE BLOCK ADDRESS 0x192a ===
  0x192a	call   	dword ptr [0x1960]
  === BLOCK LINK ===
    0x1930
=== CODE BLOCK END ===

=== CODE BLOCK ADDRESS 0x1930 ===
  0x1930	nop    	dword ptr [eax + eax]
  0x1935	dec    	eax
  0x1936	arpl   	ax, bx
  0x1938	test   	eax, eax
  0x193a	je     	0x19c6
  === BLOCK LINK ===
    0x1940
=== CODE BLOCK END ===

=== CODE BLOCK ADDRESS 0x1940 ===
  0x1940	dec    	eax
  0x1941	mov    	edx, ebx
  0x1943	lea    	ecx, [ebp + 0x40]
  0x1946	dec    	eax
  0x1947	call   	dword ptr [0x18a3]
  === BLOCK LINK ===
    0x194d
=== CODE BLOCK END ===

=== CODE BLOCK ADDRESS 0x194d ===
  0x194d	nop    	dword ptr [eax + eax]
  0x1952	dec    	eax
  0x1953	mov    	esi, eax
  0x1955	dec    	eax
  0x1956	test   	eax, eax
  === BLOCK LINK ===
    0x1958
=== CODE BLOCK END ===

=== CODE BLOCK ADDRESS 0x1958 ===
  0x1958	je     	0x19c6
  === BLOCK LINK ===
    0x195a
=== CODE BLOCK END ===

=== CODE BLOCK ADDRESS 0x195a ===
  0x195a	dec    	eax
  0x195b	and    	dword ptr [esp + 0x38], 0
  0x1960	inc    	ecx
  0x1961	or     	ecx, 0xffffffff
  0x1964	dec    	eax
  === BLOCK LINK ===
    0x1965
=== CODE BLOCK END ===

=== CODE BLOCK ADDRESS 0x1965 ===
  0x1965	and    	dword ptr [esp + 0x30], 0
  0x196a	dec    	ebp
  0x196b	mov    	eax, edi
  0x196d	mov    	dword ptr [esp + 0x28], ebx
  0x1971	xor    	edx, edx
  === BLOCK LINK ===
    0x1973
=== CODE BLOCK END ===

=== CODE BLOCK ADDRESS 0x1973 ===
  0x1973	inc    	ecx
  0x1974	mov    	ecx, esp
  0x1976	dec    	eax
  0x1977	mov    	dword ptr [esp + 0x20], eax
  0x197b	dec    	eax
  === BLOCK LINK ===
    0x197c
=== CODE BLOCK END ===

=== CODE BLOCK ADDRESS 0x197c ===
  0x197c	call   	dword ptr [0x190e]
  === BLOCK LINK ===
    0x1982
=== CODE BLOCK END ===

=== CODE BLOCK ADDRESS 0x1982 ===
  0x1982	nop    	dword ptr [eax + eax]
  0x1987	dec    	eax
  0x1988	mov    	ecx, edi
  0x198a	dec    	eax
  0x198b	call   	dword ptr [0x1967]
  === BLOCK LINK ===
    0x1991
=== CODE BLOCK END ===

=== CODE BLOCK ADDRESS 0x1991 ===
  0x1991	nop    	dword ptr [eax + eax]
  0x1996	inc    	esp
  0x1997	lea    	eax, [ebx - 1]
  0x199a	dec    	eax
  0x199b	mov    	edx, esi
  === BLOCK LINK ===
    0x199d
=== CODE BLOCK END ===

=== CODE BLOCK ADDRESS 0x199d ===
  0x199d	mov    	ecx, eax
  0x199f	dec    	eax
  0x19a0	call   	dword ptr [0x194a]
  === BLOCK LINK ===
    0x19a6
=== CODE BLOCK END ===

=== CODE BLOCK ADDRESS 0x19a6 ===
  0x19a6	nop    	dword ptr [eax + eax]
  0x19ab	jmp    	0x19c6
  === BLOCK LINK ===
    0x19ad
=== CODE BLOCK END ===

=== CODE BLOCK ADDRESS 0x19ad ===
  0x19ad	dec    	ebp
  0x19ae	mov    	eax, edi
  0x19b0	dec    	eax
  0x19b1	lea    	edx, [0x1b01]
  0x19b7	dec    	eax
  === BLOCK LINK ===
    0x19b8
=== CODE BLOCK END ===

=== CODE BLOCK ADDRESS 0x19b8 ===
  0x19b8	mov    	ecx, edi
  0x19ba	dec    	eax
  0x19bb	call   	dword ptr [0x1957]
  === BLOCK LINK ===
    0x19c1
=== CODE BLOCK END ===

=== CODE BLOCK ADDRESS 0x19c1 ===
  0x19c1	nop    	dword ptr [eax + eax]
  0x19c6	dec    	eax
  0x19c7	mov    	ecx, edi
  0x19c9	dec    	eax
  0x19ca	call   	dword ptr [0x19d8]
  === BLOCK LINK ===
    0x19d0
=== CODE BLOCK END ===

=== CODE BLOCK ADDRESS 0x19d0 ===
  0x19d0	nop    	dword ptr [eax + eax]
  0x19d5	dec    	eax
  0x19d6	mov    	ecx, edi
  0x19d8	dec    	eax
  0x19d9	call   	dword ptr [0x1919]
  === BLOCK LINK ===
    0x19df
=== CODE BLOCK END ===

=== CODE BLOCK ADDRESS 0x19df ===
  0x19df	nop    	dword ptr [eax + eax]
  0x19e4	mov    	ecx, eax
  0x19e6	inc    	ecx
  0x19e7	mov    	edx, esi
  0x19e9	dec    	eax
  === BLOCK LINK ===
    0x19ea
=== CODE BLOCK END ===

=== CODE BLOCK ADDRESS 0x19ea ===
  0x19ea	call   	dword ptr [0x18f8]
  === BLOCK LINK ===
    0x19f0
=== CODE BLOCK END ===

=== CODE BLOCK ADDRESS 0x19f0 ===
  0x19f0	nop    	dword ptr [eax + eax]
  0x19f5	dec    	eax
  0x19f6	test   	esi, esi
  0x19f8	je     	0x1a09
  === BLOCK LINK ===
    0x19fa
=== CODE BLOCK END ===

=== CODE BLOCK ADDRESS 0x19fa ===
  0x19fa	dec    	eax
  0x19fb	mov    	ecx, esi
  0x19fd	dec    	eax
  0x19fe	call   	dword ptr [0x17e4]
  === BLOCK LINK ===
    0x1a04
=== CODE BLOCK END ===

=== CODE BLOCK ADDRESS 0x1a04 ===
  0x1a04	nop    	dword ptr [eax + eax]
  0x1a09	dec    	eax
  0x1a0a	mov    	ecx, dword ptr [esp + 0xf0]
  0x1a11	dec    	eax
  0x1a12	xor    	ecx, esp
  === BLOCK LINK ===
    0x1a14
=== CODE BLOCK END ===

=== CODE BLOCK ADDRESS 0x1a14 ===
  0x1a14	call   	0x20a0
  === BLOCK LINK ===
    0x1a19
=== CODE BLOCK END ===

=== CODE BLOCK ADDRESS 0x1a19 ===
  0x1a19	dec    	esp
  0x1a1a	lea    	ebx, [esp + 0x100]
  0x1a21	dec    	ecx
  0x1a22	mov    	ebx, dword ptr [ebx + 0x40]
  0x1a25	dec    	ecx
  === BLOCK LINK ===
    0x1a26
=== CODE BLOCK END ===

=== CODE BLOCK ADDRESS 0x1a26 ===
  0x1a26	mov    	ebp, dword ptr [ebx + 0x48]
  0x1a29	dec    	ecx
  0x1a2a	mov    	esp, ebx
  0x1a2c	inc    	ecx
  0x1a2d	pop    	edi
  === BLOCK LINK ===
    0x1a2e
=== CODE BLOCK END ===

=== CODE BLOCK ADDRESS 0x1a2e ===
  0x1a2e	inc    	ecx
  0x1a2f	pop    	esi
  0x1a30	inc    	ecx
  0x1a31	pop    	esp
  0x1a32	pop    	edi
  === BLOCK LINK ===
    0x1a33
=== CODE BLOCK END ===

=== CODE BLOCK ADDRESS 0x1a33 ===
  0x1a33	pop    	esi
  0x1a34	ret    	
  0x1a35	int3   	
  0x1a36	int3   	
  0x1a37	int3   	
  === BLOCK LINK ===
    0x1a38
=== CODE BLOCK END ===

=== CODE BLOCK ADDRESS 0x1a38 ===
  0x1a38	int3   	
  0x1a39	int3   	
  0x1a3a	int3   	
  0x1a3b	int3   	
  0x1a3c	dec    	eax
  === BLOCK LINK ===
    0x1a3d
=== CODE BLOCK END ===

=== CODE BLOCK ADDRESS 0x1a3d ===
  0x1a3d	mov    	eax, esp
  0x1a3f	dec    	eax
  0x1a40	mov    	dword ptr [eax + 0x10], edx
  0x1a43	dec    	esp
  0x1a44	mov    	dword ptr [eax + 0x18], eax
  === BLOCK LINK ===
    0x1a47
=== CODE BLOCK END ===

=== CODE BLOCK ADDRESS 0x1a47 ===
  0x1a47	dec    	esp
  0x1a48	mov    	dword ptr [eax + 0x20], ecx
  0x1a4b	push   	ebx
  0x1a4c	push   	ebp
  0x1a4d	push   	esi
  === BLOCK LINK ===
    0x1a4e
=== CODE BLOCK END ===

=== CODE BLOCK ADDRESS 0x1a4e ===
  0x1a4e	push   	edi
  0x1a4f	inc    	ecx
  0x1a50	push   	esi
  0x1a51	dec    	eax
  0x1a52	sub    	esp, 0x20
  === BLOCK LINK ===
    0x1a55
=== CODE BLOCK END ===

=== CODE BLOCK ADDRESS 0x1a55 ===
  0x1a55	dec    	eax
  0x1a56	mov    	edi, edx
  0x1a58	dec    	esp
  0x1a59	lea    	esi, [eax + 0x18]
  0x1a5c	dec    	eax
  === BLOCK LINK ===
    0x1a5d
=== CODE BLOCK END ===

=== CODE BLOCK ADDRESS 0x1a5d ===
  0x1a5d	mov    	ebp, ecx
  0x1a5f	dec    	ecx
  0x1a60	mov    	edx, esi
  0x1a62	dec    	eax
  0x1a63	mov    	ecx, edi
  === BLOCK LINK ===
    0x1a65
=== CODE BLOCK END ===

=== CODE BLOCK ADDRESS 0x1a65 ===
  0x1a65	dec    	eax
  0x1a66	call   	dword ptr [0x1894]
  === BLOCK LINK ===
    0x1a6c
=== CODE BLOCK END ===

=== CODE BLOCK ADDRESS 0x1a6c ===
  0x1a6c	nop    	dword ptr [eax + eax]
  0x1a71	cmp    	eax, 1
  0x1a74	jl     	0x1aca
  === BLOCK LINK ===
    0x1a76
=== CODE BLOCK END ===

=== CODE BLOCK ADDRESS 0x1a76 ===
  0x1a76	inc    	eax
  0x1a78	mov    	ecx, 0x40
  0x1a7d	dec    	eax
  0x1a7e	arpl   	ax, si
  0x1a80	dec    	eax
  === BLOCK LINK ===
    0x1a81
=== CODE BLOCK END ===

=== CODE BLOCK ADDRESS 0x1a81 ===
  0x1a81	lea    	edx, [esi + esi]
  0x1a84	dec    	eax
  0x1a85	call   	dword ptr [0x1765]
  === BLOCK LINK ===
    0x1a8b
=== CODE BLOCK END ===

=== CODE BLOCK ADDRESS 0x1a8b ===
  0x1a8b	nop    	dword ptr [eax + eax]
  0x1a90	dec    	eax
  0x1a91	mov    	ebx, eax
  0x1a93	dec    	eax
  0x1a94	test   	eax, eax
  === BLOCK LINK ===
    0x1a96
=== CODE BLOCK END ===

=== CODE BLOCK ADDRESS 0x1a96 ===
  0x1a96	je     	0x1aca
  === BLOCK LINK ===
    0x1a98
=== CODE BLOCK END ===

=== CODE BLOCK ADDRESS 0x1a98 ===
  0x1a98	dec    	ebp
  0x1a99	mov    	ecx, esi
  0x1a9b	dec    	esp
  0x1a9c	mov    	eax, edi
  0x1a9e	dec    	eax
  === BLOCK LINK ===
    0x1a9f
=== CODE BLOCK END ===

=== CODE BLOCK ADDRESS 0x1a9f ===
  0x1a9f	mov    	edx, esi
  0x1aa1	dec    	eax
  0x1aa2	mov    	ecx, eax
  0x1aa4	dec    	eax
  0x1aa5	call   	dword ptr [0x1835]
  === BLOCK LINK ===
    0x1aab
=== CODE BLOCK END ===

=== CODE BLOCK ADDRESS 0x1aab ===
  0x1aab	nop    	dword ptr [eax + eax]
  0x1ab0	dec    	eax
  0x1ab1	mov    	edx, ebx
  0x1ab3	dec    	eax
  0x1ab4	mov    	ecx, ebp
  === BLOCK LINK ===
    0x1ab6
=== CODE BLOCK END ===

=== CODE BLOCK ADDRESS 0x1ab6 ===
  0x1ab6	call   	0x17ac
  === BLOCK LINK ===
    0x1abb
=== CODE BLOCK END ===

=== CODE BLOCK ADDRESS 0x1abb ===
  0x1abb	dec    	eax
  0x1abc	mov    	ecx, ebx
  0x1abe	dec    	eax
  0x1abf	call   	dword ptr [0x1723]
  === BLOCK LINK ===
    0x1ac5
=== CODE BLOCK END ===

=== CODE BLOCK ADDRESS 0x1ac5 ===
  0x1ac5	nop    	dword ptr [eax + eax]
  0x1aca	dec    	eax
  0x1acb	add    	esp, 0x20
  0x1ace	inc    	ecx
  0x1acf	pop    	esi
  === BLOCK LINK ===
    0x1ad0
=== CODE BLOCK END ===

=== CODE BLOCK ADDRESS 0x1ad0 ===
  0x1ad0	pop    	edi
  0x1ad1	pop    	esi
  0x1ad2	pop    	ebp
  0x1ad3	pop    	ebx
  0x1ad4	ret    	
  === BLOCK LINK ===
    0x1ad5
=== CODE BLOCK END ===

=== CODE BLOCK ADDRESS 0x1ad5 ===
  0x1ad5	int3   	
  0x1ad6	int3   	
  0x1ad7	int3   	
  0x1ad8	int3   	
  0x1ad9	int3   	
  === BLOCK LINK ===
    0x1ada
=== CODE BLOCK END ===

=== CODE BLOCK ADDRESS 0x1ada ===
  0x1ada	int3   	
  0x1adb	int3   	
  === BLOCK LINK ===
    0x1adc
=== CODE BLOCK END ===

=== CODE BLOCK ADDRESS 0x1ae3 ===
  0x1ae3	dec    	ebp
  0x1ae4	mov    	dword ptr [ebx + 0x18], eax
  0x1ae7	dec    	ebp
  0x1ae8	mov    	dword ptr [ebx + 0x20], ecx
  0x1aeb	push   	ebx
  === BLOCK LINK ===
    0x1aec
=== CODE BLOCK END ===

=== CODE BLOCK ADDRESS 0x1aec ===
  0x1aec	dec    	eax
  0x1aed	sub    	esp, 0x50
  0x1af0	dec    	ecx
  0x1af1	lea    	eax, [ebx + 0x18]
  0x1af4	dec    	eax
  === BLOCK LINK ===
    0x1af5
=== CODE BLOCK END ===

=== CODE BLOCK ADDRESS 0x1af5 ===
  0x1af5	mov    	ebx, ecx
  0x1af7	dec    	ecx
  0x1af8	mov    	dword ptr [ebx - 0x10], eax
  0x1afb	inc    	esp
  0x1afc	mov    	eax, edx
  === BLOCK LINK ===
    0x1afe
=== CODE BLOCK END ===

=== CODE BLOCK ADDRESS 0x1afe ===
  0x1afe	dec    	eax
  0x1aff	mov    	edx, dword ptr [0x3ad3]
  0x1b05	dec    	ecx
  0x1b06	lea    	eax, [ebx - 0x10]
  0x1b09	dec    	ecx
  === BLOCK LINK ===
    0x1b0a
=== CODE BLOCK END ===

=== CODE BLOCK ADDRESS 0x1b0a ===
  0x1b0a	mov    	dword ptr [ebx - 0x28], eax
  0x1b0d	inc    	ebp
  0x1b0e	xor    	ecx, ecx
  0x1b10	and    	dword ptr [esp + 0x28], 0
  0x1b15	dec    	ecx
  === BLOCK LINK ===
    0x1b16
=== CODE BLOCK END ===

=== CODE BLOCK ADDRESS 0x1b16 ===
  0x1b16	lea    	eax, [ebx - 0x18]
  0x1b19	mov    	ecx, 0x900
  0x1b1e	dec    	ecx
  0x1b1f	mov    	dword ptr [ebx - 0x38], eax
  0x1b22	dec    	eax
  === BLOCK LINK ===
    0x1b23
=== CODE BLOCK END ===

=== CODE BLOCK ADDRESS 0x1b23 ===
  0x1b23	call   	dword ptr [0x16ef]
  === BLOCK LINK ===
    0x1b29
=== CODE BLOCK END ===

=== CODE BLOCK ADDRESS 0x1b29 ===
  0x1b29	nop    	dword ptr [eax + eax]
  0x1b2e	test   	eax, eax
  0x1b30	je     	0x1b50
  === BLOCK LINK ===
    0x1b32
=== CODE BLOCK END ===

=== CODE BLOCK ADDRESS 0x1b32 ===
  0x1b32	dec    	eax
  0x1b33	mov    	edx, dword ptr [esp + 0x40]
  0x1b37	dec    	eax
  0x1b38	mov    	ecx, ebx
  0x1b3a	call   	0x17ac
  === BLOCK LINK ===
    0x1b3f
=== CODE BLOCK END ===

=== CODE BLOCK ADDRESS 0x1b3f ===
  0x1b3f	dec    	eax
  0x1b40	mov    	ecx, dword ptr [esp + 0x40]
  0x1b44	dec    	eax
  0x1b45	call   	dword ptr [0x169d]
  === BLOCK LINK ===
    0x1b4b
=== CODE BLOCK END ===

=== CODE BLOCK ADDRESS 0x1b4b ===
  0x1b4b	nop    	dword ptr [eax + eax]
  0x1b50	dec    	eax
  0x1b51	add    	esp, 0x50
  0x1b54	pop    	ebx
  0x1b55	ret    	
  === BLOCK LINK ===
    0x1b56
=== CODE BLOCK END ===

=== CODE BLOCK ADDRESS 0x1091 ===
  0x1091	movzx  	eax, word ptr [ecx]
  0x1094	test   	ax, ax
  === BLOCK LINK ===
    0x1097
=== CODE BLOCK END ===

=== CODE BLOCK ADDRESS 0x1b56 ===
  0x1b56	int3   	
  0x1b57	int3   	
  0x1b58	int3   	
  0x1b59	int3   	
  0x1b5a	int3   	
  === BLOCK LINK ===
    0x1b5b
=== CODE BLOCK END ===

=== CODE BLOCK ADDRESS 0x1b5b ===
  0x1b5b	int3   	
  0x1b5c	int3   	
  0x1b5d	int3   	
  0x1b5e	int3   	
  0x1b5f	int3   	
  === BLOCK LINK ===
    0x1b60
=== CODE BLOCK END ===

=== CODE BLOCK ADDRESS 0x1b60 ===
  0x1b60	inc    	eax
  0x1b61	push   	ebx
  0x1b62	dec    	eax
  0x1b63	sub    	esp, 0x40
  0x1b66	dec    	eax
  === BLOCK LINK ===
    0x1b67
=== CODE BLOCK END ===

=== CODE BLOCK ADDRESS 0x1b67 ===
  0x1b67	and    	dword ptr [esp + 0x30], 0
  0x1b6c	dec    	eax
  0x1b6d	lea    	eax, [esp + 0x60]
  0x1b71	and    	dword ptr [esp + 0x28], 0
  0x1b76	mov    	ebx, edx
  === BLOCK LINK ===
    0x1b78
=== CODE BLOCK END ===

=== CODE BLOCK ADDRESS 0x1b78 ===
  0x1b78	dec    	eax
  0x1b79	mov    	edx, dword ptr [0x3a59]
  0x1b7f	inc    	esp
  0x1b80	mov    	eax, ecx
  0x1b82	mov    	ecx, 0x900
  === BLOCK LINK ===
    0x1b87
=== CODE BLOCK END ===

=== CODE BLOCK ADDRESS 0x1b87 ===
  0x1b87	dec    	eax
  0x1b88	mov    	dword ptr [esp + 0x20], eax
  0x1b8c	inc    	ebp
  0x1b8d	xor    	ecx, ecx
  0x1b8f	dec    	eax
  === BLOCK LINK ===
    0x1b90
=== CODE BLOCK END ===

=== CODE BLOCK ADDRESS 0x1b90 ===
  0x1b90	call   	dword ptr [0x1682]
  === BLOCK LINK ===
    0x1b96
=== CODE BLOCK END ===

=== CODE BLOCK ADDRESS 0x1b96 ===
  0x1b96	nop    	dword ptr [eax + eax]
  0x1b9b	test   	eax, eax
  0x1b9d	je     	0x1c2b
  === BLOCK LINK ===
    0x1ba3
=== CODE BLOCK END ===

=== CODE BLOCK ADDRESS 0x1ba3 ===
  0x1ba3	mov    	ecx, 2
  0x1ba8	call   	0x26a8
  === BLOCK LINK ===
    0x1bad
=== CODE BLOCK END ===

=== CODE BLOCK ADDRESS 0x1bad ===
  0x1bad	dec    	esp
  0x1bae	mov    	eax, dword ptr [esp + 0x60]
  0x1bb2	dec    	eax
  0x1bb3	lea    	edx, [0x1907]
  0x1bb9	dec    	eax
  === BLOCK LINK ===
    0x1bba
=== CODE BLOCK END ===

=== CODE BLOCK ADDRESS 0x1bba ===
  0x1bba	mov    	ecx, eax
  0x1bbc	call   	0x1a3c
  === BLOCK LINK ===
    0x1bc1
=== CODE BLOCK END ===

=== CODE BLOCK ADDRESS 0x1bc1 ===
  0x1bc1	dec    	eax
  0x1bc2	mov    	ecx, dword ptr [esp + 0x60]
  0x1bc6	dec    	eax
  0x1bc7	call   	dword ptr [0x161b]
  === BLOCK LINK ===
    0x1bcd
=== CODE BLOCK END ===

=== CODE BLOCK ADDRESS 0x1bcd ===
  0x1bcd	nop    	dword ptr [eax + eax]
  0x1bd2	mov    	ecx, ebx
  0x1bd4	dec    	eax
  0x1bd5	call   	dword ptr [0x154d]
  === BLOCK LINK ===
    0x1bdb
=== CODE BLOCK END ===

=== CODE BLOCK ADDRESS 0x1bdb ===
  0x1bdb	nop    	dword ptr [eax + eax]
  0x1be0	dec    	eax
  0x1be1	mov    	dword ptr [esp + 0x60], eax
  0x1be5	dec    	eax
  0x1be6	test   	eax, eax
  === BLOCK LINK ===
    0x1be8
=== CODE BLOCK END ===

=== CODE BLOCK ADDRESS 0x1be8 ===
  0x1be8	je     	0x1c12
  === BLOCK LINK ===
    0x1bea
=== CODE BLOCK END ===

=== CODE BLOCK ADDRESS 0x1bea ===
  0x1bea	mov    	ecx, 2
  0x1bef	call   	0x26a8
  === BLOCK LINK ===
    0x1bf4
=== CODE BLOCK END ===

=== CODE BLOCK ADDRESS 0x1bf4 ===
  0x1bf4	dec    	eax
  0x1bf5	mov    	edx, dword ptr [esp + 0x60]
  0x1bf9	dec    	eax
  0x1bfa	mov    	ecx, eax
  0x1bfc	call   	0x17ac
  === BLOCK LINK ===
    0x1c01
=== CODE BLOCK END ===

=== CODE BLOCK ADDRESS 0x1c01 ===
  0x1c01	dec    	eax
  0x1c02	mov    	ecx, dword ptr [esp + 0x60]
  0x1c06	dec    	eax
  0x1c07	call   	dword ptr [0x15db]
  === BLOCK LINK ===
    0x1c0d
=== CODE BLOCK END ===

=== CODE BLOCK ADDRESS 0x1c0d ===
  0x1c0d	nop    	dword ptr [eax + eax]
  0x1c12	mov    	ecx, 2
  0x1c17	call   	0x26a8
  === BLOCK LINK ===
    0x1c1c
=== CODE BLOCK END ===

=== CODE BLOCK ADDRESS 0x1c1c ===
  0x1c1c	dec    	eax
  0x1c1d	mov    	ecx, eax
  0x1c1f	dec    	eax
  0x1c20	lea    	edx, [0x1822]
  0x1c26	call   	0x17ac
  === BLOCK LINK ===
    0x1c2b
=== CODE BLOCK END ===

=== CODE BLOCK ADDRESS 0x1c2b ===
  0x1c2b	dec    	eax
  0x1c2c	add    	esp, 0x40
  0x1c2f	pop    	ebx
  0x1c30	ret    	
  0x1c31	int3   	
  === BLOCK LINK ===
    0x1c32
=== CODE BLOCK END ===

=== CODE BLOCK ADDRESS 0x1c32 ===
  0x1c32	int3   	
  0x1c33	int3   	
  0x1c34	int3   	
  0x1c35	int3   	
  0x1c36	int3   	
  === BLOCK LINK ===
    0x1c37
=== CODE BLOCK END ===

=== CODE BLOCK ADDRESS 0x1c37 ===
  0x1c37	int3   	
  0x1c38	dec    	eax
  0x1c39	mov    	eax, esp
  0x1c3b	dec    	eax
  0x1c3c	mov    	dword ptr [eax + 8], ebx
  === BLOCK LINK ===
    0x1c3f
=== CODE BLOCK END ===

=== CODE BLOCK ADDRESS 0x1c3f ===
  0x1c3f	dec    	eax
  0x1c40	mov    	dword ptr [eax + 0x10], ebp
  0x1c43	dec    	eax
  0x1c44	mov    	dword ptr [eax + 0x18], esi
  0x1c47	dec    	eax
  === BLOCK LINK ===
    0x1c48
=== CODE BLOCK END ===

=== CODE BLOCK ADDRESS 0x1c48 ===
  0x1c48	mov    	dword ptr [eax + 0x20], edi
  0x1c4b	inc    	ecx
  0x1c4c	push   	esi
  0x1c4d	dec    	eax
  0x1c4e	sub    	esp, 0x40
  === BLOCK LINK ===
    0x1c51
=== CODE BLOCK END ===

=== CODE BLOCK ADDRESS 0x1c51 ===
  0x1c51	dec    	eax
  0x1c52	and    	dword ptr [eax - 0x10], 0
  0x1c56	inc    	ecx
  0x1c57	mov    	ebx, eax
  0x1c59	dec    	eax
  === BLOCK LINK ===
    0x1c5a
=== CODE BLOCK END ===

=== CODE BLOCK ADDRESS 0x1c5a ===
  0x1c5a	and    	dword ptr [eax - 0x18], 0
  0x1c5e	inc    	ebp
  0x1c5f	mov    	ecx, eax
  0x1c61	and    	dword ptr [eax - 0x20], 0
  0x1c65	dec    	esp
  === BLOCK LINK ===
    0x1c66
=== CODE BLOCK END ===

=== CODE BLOCK ADDRESS 0x1c66 ===
  0x1c66	mov    	eax, edx
  0x1c68	dec    	eax
  0x1c69	and    	dword ptr [eax - 0x28], 0
  0x1c6d	dec    	eax
  0x1c6e	mov    	esi, edx
  === BLOCK LINK ===
    0x1c70
=== CODE BLOCK END ===

=== CODE BLOCK ADDRESS 0x1c70 ===
  0x1c70	dec    	esp
  0x1c71	mov    	esi, ecx
  0x1c73	xor    	edx, edx
  0x1c75	mov    	ecx, 0xfde9
  0x1c7a	dec    	eax
  === BLOCK LINK ===
    0x1c7b
=== CODE BLOCK END ===

=== CODE BLOCK ADDRESS 0x1c7b ===
  0x1c7b	call   	dword ptr [0x160f]
  === BLOCK LINK ===
    0x1c81
=== CODE BLOCK END ===

=== CODE BLOCK ADDRESS 0x1c81 ===
  0x1c81	nop    	dword ptr [eax + eax]
  0x1c86	dec    	eax
  0x1c87	arpl   	ax, bp
  0x1c89	dec    	eax
  0x1c8a	mov    	ecx, ebp
  === BLOCK LINK ===
    0x1c8c
=== CODE BLOCK END ===

=== CODE BLOCK ADDRESS 0x1c8c ===
  0x1c8c	dec    	eax
  0x1c8d	call   	dword ptr [0x1695]
  === BLOCK LINK ===
    0x1c93
=== CODE BLOCK END ===

=== CODE BLOCK ADDRESS 0x1c93 ===
  0x1c93	nop    	dword ptr [eax + eax]
  0x1c98	dec    	eax
  0x1c99	mov    	edi, eax
  0x1c9b	dec    	eax
  0x1c9c	test   	eax, eax
  === BLOCK LINK ===
    0x1c9e
=== CODE BLOCK END ===

=== CODE BLOCK ADDRESS 0x1c9e ===
  0x1c9e	jne    	0x1cb9
  === BLOCK LINK ===
    0x1ca0
=== CODE BLOCK END ===

=== CODE BLOCK ADDRESS 0x1ca0 ===
  0x1ca0	mov    	ecx, 0x2747
  0x1ca5	dec    	eax
  0x1ca6	call   	dword ptr [0x14ac]
  === BLOCK LINK ===
    0x1cac
=== CODE BLOCK END ===

=== CODE BLOCK ADDRESS 0x1cac ===
  0x1cac	nop    	dword ptr [eax + eax]
  0x1cb1	or     	eax, 0xffffffff
  0x1cb4	jmp    	0x1d44
  === BLOCK LINK ===
    0x1cb9
=== CODE BLOCK END ===

=== CODE BLOCK ADDRESS 0x1cb9 ===
  0x1cb9	dec    	eax
  0x1cba	and    	dword ptr [esp + 0x38], 0
  0x1cbf	inc    	esp
  0x1cc0	mov    	ecx, ebx
  0x1cc2	dec    	eax
  === BLOCK LINK ===
    0x1cc3
=== CODE BLOCK END ===

=== CODE BLOCK ADDRESS 0x1cc3 ===
  0x1cc3	and    	dword ptr [esp + 0x30], 0
  0x1cc8	dec    	esp
  0x1cc9	mov    	eax, esi
  0x1ccb	mov    	dword ptr [esp + 0x28], ebp
  0x1ccf	xor    	edx, edx
  === BLOCK LINK ===
    0x1cd1
=== CODE BLOCK END ===

=== CODE BLOCK ADDRESS 0x1cd1 ===
  0x1cd1	mov    	ecx, 0xfde9
  0x1cd6	dec    	eax
  0x1cd7	mov    	dword ptr [esp + 0x20], edi
  0x1cdb	dec    	eax
  0x1cdc	call   	dword ptr [0x15ae]
  === BLOCK LINK ===
    0x1ce2
=== CODE BLOCK END ===

=== CODE BLOCK ADDRESS 0x1ce2 ===
  0x1ce2	nop    	dword ptr [eax + eax]
  0x1ce7	mov    	ebx, 0xa
  0x1cec	jmp    	0x1d14
  === BLOCK LINK ===
    0x1cee
=== CODE BLOCK END ===

=== CODE BLOCK ADDRESS 0x1cee ===
  0x1cee	dec    	eax
  0x1cef	call   	dword ptr [0x14bb]
  === BLOCK LINK ===
    0x1cf5
=== CODE BLOCK END ===

=== CODE BLOCK ADDRESS 0x1cf5 ===
  0x1cf5	nop    	dword ptr [eax + eax]
  0x1cfa	cmp    	eax, 0x2747
  0x1cff	jne    	0x1d33
  === BLOCK LINK ===
    0x1d01
=== CODE BLOCK END ===

=== CODE BLOCK ADDRESS 0x1d01 ===
  0x1d01	mov    	ecx, ebx
  0x1d03	dec    	eax
  0x1d04	call   	dword ptr [0x1596]
  === BLOCK LINK ===
    0x1d0a
=== CODE BLOCK END ===

=== CODE BLOCK ADDRESS 0x1d0a ===
  0x1d0a	nop    	dword ptr [eax + eax]
  0x1d0f	lea    	ebx, [ebx + ebx*4]
  0x1d12	add    	ebx, ebx
  0x1d14	inc    	ebp
  0x1d15	xor    	ecx, ecx
  === BLOCK LINK ===
    0x1d17
=== CODE BLOCK END ===

=== CODE BLOCK ADDRESS 0x1d17 ===
  0x1d17	inc    	esp
  0x1d18	mov    	eax, ebp
  0x1d1a	dec    	eax
  0x1d1b	mov    	edx, edi
  0x1d1d	dec    	ecx
  === BLOCK LINK ===
    0x1d1e
=== CODE BLOCK END ===

=== CODE BLOCK ADDRESS 0x1d1e ===
  0x1d1e	mov    	ecx, esi
  0x1d20	dec    	eax
  0x1d21	call   	dword ptr [0x1439]
  === BLOCK LINK ===
    0x1d27
=== CODE BLOCK END ===

=== CODE BLOCK ADDRESS 0x1d27 ===
  0x1d27	nop    	dword ptr [eax + eax]
  0x1d2c	mov    	esi, eax
  0x1d2e	cmp    	eax, -1
  0x1d31	je     	0x1cee
  === BLOCK LINK ===
    0x1d33
=== CODE BLOCK END ===

=== CODE BLOCK ADDRESS 0x1d33 ===
  0x1d33	dec    	eax
  0x1d34	mov    	ecx, edi
  0x1d36	dec    	eax
  0x1d37	call   	dword ptr [0x15e3]
  === BLOCK LINK ===
    0x1d3d
=== CODE BLOCK END ===

=== CODE BLOCK ADDRESS 0x1d3d ===
  0x1d3d	nop    	dword ptr [eax + eax]
  0x1d42	mov    	eax, esi
  0x1d44	dec    	eax
  0x1d45	mov    	ebx, dword ptr [esp + 0x50]
  0x1d49	dec    	eax
  === BLOCK LINK ===
    0x1d4a
=== CODE BLOCK END ===

=== CODE BLOCK ADDRESS 0x1d4a ===
  0x1d4a	mov    	ebp, dword ptr [esp + 0x58]
  0x1d4e	dec    	eax
  0x1d4f	mov    	esi, dword ptr [esp + 0x60]
  0x1d53	dec    	eax
  0x1d54	mov    	edi, dword ptr [esp + 0x68]
  === BLOCK LINK ===
    0x1d58
=== CODE BLOCK END ===

=== CODE BLOCK ADDRESS 0x1d58 ===
  0x1d58	dec    	eax
  0x1d59	add    	esp, 0x40
  0x1d5c	inc    	ecx
  0x1d5d	pop    	esi
  0x1d5e	ret    	
  === BLOCK LINK ===
    0x1d5f
=== CODE BLOCK END ===

=== CODE BLOCK ADDRESS 0x1d5f ===
  0x1d5f	int3   	
  0x1d60	int3   	
  0x1d61	int3   	
  0x1d62	int3   	
  0x1d63	int3   	
  === BLOCK LINK ===
    0x1d64
=== CODE BLOCK END ===

=== CODE BLOCK ADDRESS 0x1d64 ===
  0x1d64	int3   	
  0x1d65	int3   	
  0x1d66	int3   	
  0x1d67	int3   	
  0x1d68	int3   	
  === BLOCK LINK ===
    0x1d69
=== CODE BLOCK END ===

=== CODE BLOCK ADDRESS 0x1d69 ===
  0x1d69	int3   	
  0x1d6a	int3   	
  0x1d6b	int3   	
  0x1d6c	int3   	
  0x1d6d	int3   	
  === BLOCK LINK ===
    0x1d6e
=== CODE BLOCK END ===

=== CODE BLOCK ADDRESS 0x1d6e ===
  0x1d6e	int3   	
  0x1d6f	int3   	
  0x1d70	dec    	eax
  0x1d71	sub    	esp, 0x28
  0x1d74	mov    	eax, 0x5a4d
  === BLOCK LINK ===
    0x1d79
=== CODE BLOCK END ===

=== CODE BLOCK ADDRESS 0x1d79 ===
  0x1d79	cmp    	word ptr [0xffffe280], ax
  0x1d80	je     	0x1d86
  === BLOCK LINK ===
    0x1d82
=== CODE BLOCK END ===

=== CODE BLOCK ADDRESS 0x1d82 ===
  0x1d82	xor    	eax, eax
  0x1d84	jmp    	0x1dd9
  === BLOCK LINK ===
    0x1d86
=== CODE BLOCK END ===

=== CODE BLOCK ADDRESS 0x1d86 ===
  0x1d86	dec    	eax
  0x1d87	arpl   	word ptr [0xffffe2af], cx
  0x1d8d	dec    	eax
  0x1d8e	lea    	eax, [0xffffe26c]
  0x1d94	dec    	eax
  === BLOCK LINK ===
    0x1d95
=== CODE BLOCK END ===

=== CODE BLOCK ADDRESS 0x1d95 ===
  0x1d95	add    	ecx, eax
  0x1d97	cmp    	dword ptr [ecx], 0x4550
  0x1d9d	jne    	0x1d82
  === BLOCK LINK ===
    0x1d9f
=== CODE BLOCK END ===

=== CODE BLOCK ADDRESS 0x1d9f ===
  0x1d9f	mov    	eax, 0x10b
  0x1da4	cmp    	word ptr [ecx + 0x18], ax
  0x1da8	je     	0x1dc8
  === BLOCK LINK ===
    0x1daa
=== CODE BLOCK END ===

=== CODE BLOCK ADDRESS 0x1daa ===
  0x1daa	mov    	eax, 0x20b
  0x1daf	cmp    	word ptr [ecx + 0x18], ax
  0x1db3	jne    	0x1d82
  === BLOCK LINK ===
    0x1db5
=== CODE BLOCK END ===

=== CODE BLOCK ADDRESS 0x1db5 ===
  0x1db5	xor    	eax, eax
  0x1db7	cmp    	dword ptr [ecx + 0x84], 0xe
  0x1dbe	jbe    	0x1dd9
  === BLOCK LINK ===
    0x1dc0
=== CODE BLOCK END ===

=== CODE BLOCK ADDRESS 0x1dc0 ===
  0x1dc0	cmp    	dword ptr [ecx + 0xf8], eax
  0x1dc6	jmp    	0x1dd6
  === BLOCK LINK ===
    0x1dc8
=== CODE BLOCK END ===

=== CODE BLOCK ADDRESS 0x1dc8 ===
  0x1dc8	xor    	eax, eax
  0x1dca	cmp    	dword ptr [ecx + 0x74], 0xe
  0x1dce	jbe    	0x1dd9
  === BLOCK LINK ===
    0x1dd0
=== CODE BLOCK END ===

=== CODE BLOCK ADDRESS 0x1dd0 ===
  0x1dd0	cmp    	dword ptr [ecx + 0xe8], eax
  0x1dd6	setne  	al
  0x1dd9	mov    	ecx, 1
  0x1dde	mov    	dword ptr [0x325c], eax
  0x1de4	call   	0x2448
  === BLOCK LINK ===
    0x1de9
=== CODE BLOCK END ===

=== CODE BLOCK ADDRESS 0x1de9 ===
  0x1de9	mov    	ecx, eax
  0x1deb	call   	dword ptr [0x158f]
  === BLOCK LINK ===
    0x1df1
=== CODE BLOCK END ===

=== CODE BLOCK ADDRESS 0x1df1 ===
  0x1df1	dec    	eax
  0x1df2	mov    	ecx, dword ptr [0x1550]
  0x1df8	dec    	eax
  0x1df9	or     	eax, 0xffffffff
  0x1dfc	dec    	eax
  === BLOCK LINK ===
    0x1dfd
=== CODE BLOCK END ===

=== CODE BLOCK ADDRESS 0x1dfd ===
  0x1dfd	mov    	dword ptr [0x37dd], eax
  0x1e03	dec    	eax
  0x1e04	mov    	dword ptr [0x37de], eax
  0x1e0a	mov    	eax, dword ptr [0x37bc]
  0x1e10	mov    	dword ptr [ecx], eax
  === BLOCK LINK ===
    0x1e12
=== CODE BLOCK END ===

=== CODE BLOCK ADDRESS 0x1e12 ===
  0x1e12	dec    	eax
  0x1e13	mov    	ecx, dword ptr [0x1527]
  0x1e19	mov    	eax, dword ptr [0x37a1]
  0x1e1f	mov    	dword ptr [ecx], eax
  0x1e21	call   	0x24a0
  === BLOCK LINK ===
    0x1e26
=== CODE BLOCK END ===

=== CODE BLOCK ADDRESS 0x1e26 ===
  0x1e26	cmp    	dword ptr [0x31d3], 0
  0x1e2d	jne    	0x1e3c
  === BLOCK LINK ===
    0x1e2f
=== CODE BLOCK END ===

=== CODE BLOCK ADDRESS 0x1e2f ===
  0x1e2f	dec    	eax
  0x1e30	lea    	ecx, [0x66a]
  0x1e36	call   	dword ptr [0x1524]
  === BLOCK LINK ===
    0x1e3c
=== CODE BLOCK END ===

=== CODE BLOCK ADDRESS 0x1e3c ===
  0x1e3c	xor    	eax, eax
  0x1e3e	dec    	eax
  0x1e3f	add    	esp, 0x28
  0x1e42	ret    	
  0x1e43	int3   	
  === BLOCK LINK ===
    0x1e44
=== CODE BLOCK END ===

=== CODE BLOCK ADDRESS 0x1063 ===
  0x1063	dec    	eax
  0x1064	add    	ebx, 8
  0x1067	dec    	eax
  0x1068	mov    	eax, dword ptr [ebx]
  === BLOCK LINK ===
    0x106a
=== CODE BLOCK END ===

=== CODE BLOCK ADDRESS 0x1e44 ===
  0x1e44	int3   	
  0x1e45	int3   	
  0x1e46	int3   	
  0x1e47	int3   	
  0x1e48	int3   	
  === BLOCK LINK ===
    0x1e49
=== CODE BLOCK END ===

=== CODE BLOCK ADDRESS 0x1e49 ===
  0x1e49	int3   	
  0x1e4a	int3   	
  0x1e4b	int3   	
  0x1e4c	int3   	
  0x1e4d	int3   	
  === BLOCK LINK ===
    0x1e4e
=== CODE BLOCK END ===

=== CODE BLOCK ADDRESS 0x1e4e ===
  0x1e4e	int3   	
  0x1e4f	int3   	
  0x1e50	dec    	eax
  0x1e51	sub    	esp, 0x38
  0x1e54	mov    	eax, dword ptr [0x376e]
  === BLOCK LINK ===
    0x1e5a
=== CODE BLOCK END ===

=== CODE BLOCK ADDRESS 0x1e5a ===
  0x1e5a	dec    	esp
  0x1e5b	lea    	eax, [0x31d7]
  0x1e61	inc    	esp
  0x1e62	mov    	ecx, dword ptr [0x375c]
  0x1e68	dec    	eax
  === BLOCK LINK ===
    0x1e69
=== CODE BLOCK END ===

=== CODE BLOCK ADDRESS 0x1e69 ===
  0x1e69	lea    	edx, [0x31c1]
  0x1e6f	mov    	dword ptr [0x31cf], eax
  0x1e75	dec    	eax
  0x1e76	lea    	ecx, [0x31ac]
  0x1e7c	dec    	eax
  === BLOCK LINK ===
    0x1e7d
=== CODE BLOCK END ===

=== CODE BLOCK ADDRESS 0x1e7d ===
  0x1e7d	lea    	eax, [0x31c1]
  0x1e83	dec    	eax
  0x1e84	mov    	dword ptr [esp + 0x20], eax
  0x1e88	call   	dword ptr [0x14fa]
  === BLOCK LINK ===
    0x1e8e
=== CODE BLOCK END ===

=== CODE BLOCK ADDRESS 0x1e8e ===
  0x1e8e	mov    	dword ptr [0x3198], eax
  0x1e94	dec    	eax
  0x1e95	add    	esp, 0x38
  0x1e98	ret    	
  0x1e99	int3   	
  === BLOCK LINK ===
    0x1e9a
=== CODE BLOCK END ===

=== CODE BLOCK ADDRESS 0x1e9a ===
  0x1e9a	int3   	
  0x1e9b	int3   	
  0x1e9c	int3   	
  0x1e9d	int3   	
  0x1e9e	int3   	
  === BLOCK LINK ===
    0x1e9f
=== CODE BLOCK END ===

=== CODE BLOCK ADDRESS 0x1e9f ===
  0x1e9f	int3   	
  0x1ea0	dec    	eax
  0x1ea1	mov    	dword ptr [esp + 8], ebx
  0x1ea5	dec    	eax
  0x1ea6	mov    	dword ptr [esp + 0x10], esi
  === BLOCK LINK ===
    0x1eaa
=== CODE BLOCK END ===

=== CODE BLOCK ADDRESS 0x1eaa ===
  0x1eaa	dec    	eax
  0x1eab	mov    	dword ptr [esp + 0x18], edi
  0x1eaf	inc    	ecx
  0x1eb0	push   	edi
  0x1eb1	dec    	eax
  === BLOCK LINK ===
    0x1eb2
=== CODE BLOCK END ===

=== CODE BLOCK ADDRESS 0x1eb2 ===
  0x1eb2	sub    	esp, 0x30
  0x1eb5	dec    	eax
  0x1eb7	mov    	eax, dword ptr [0x30]
  0x1ebe	dec    	eax
  0x1ebf	mov    	ebx, dword ptr [eax + 8]
  === BLOCK LINK ===
    0x1ec2
=== CODE BLOCK END ===

=== CODE BLOCK ADDRESS 0x1ec2 ===
  0x1ec2	xor    	esi, esi
  0x1ec4	xor    	eax, eax
  0x1ec6	.byte  	0xf0
  0x1ec7	dec    	eax
  0x1ec8	cmpxchg  	dword ptr [0x3721], ebx
  === BLOCK LINK ===
    0x1ecf
=== CODE BLOCK END ===

=== CODE BLOCK ADDRESS 0x1ecf ===
  0x1ecf	je     	0x1eec
  === BLOCK LINK ===
    0x1ed1
=== CODE BLOCK END ===

=== CODE BLOCK ADDRESS 0x1ed1 ===
  0x1ed1	dec    	eax
  0x1ed2	cmp    	eax, ebx
  0x1ed4	jne    	0x1edf
  === BLOCK LINK ===
    0x1ed6
=== CODE BLOCK END ===

=== CODE BLOCK ADDRESS 0x1ed6 ===
  0x1ed6	mov    	ebx, 1
  0x1edb	mov    	esi, ebx
  0x1edd	jmp    	0x1ef1
  === BLOCK LINK ===
    0x1edf
=== CODE BLOCK END ===

=== CODE BLOCK ADDRESS 0x1edf ===
  0x1edf	mov    	ecx, 0x3e8
  0x1ee4	call   	dword ptr [0x13b6]
  === BLOCK LINK ===
    0x1eea
=== CODE BLOCK END ===

=== CODE BLOCK ADDRESS 0x1eea ===
  0x1eea	jmp    	0x1ec4
  === BLOCK LINK ===
    0x1eec
=== CODE BLOCK END ===

=== CODE BLOCK ADDRESS 0x1eec ===
  0x1eec	mov    	ebx, 1
  0x1ef1	mov    	eax, dword ptr [0x3701]
  0x1ef7	cmp    	eax, ebx
  0x1ef9	jne    	0x1f07
  === BLOCK LINK ===
    0x1efb
=== CODE BLOCK END ===

=== CODE BLOCK ADDRESS 0x1efb ===
  0x1efb	mov    	ecx, 0x1f
  0x1f00	call   	0x2493
  === BLOCK LINK ===
    0x1f05
=== CODE BLOCK END ===

=== CODE BLOCK ADDRESS 0x1f05 ===
  0x1f05	jmp    	0x1f6c
  === BLOCK LINK ===
    0x1f07
=== CODE BLOCK END ===

=== CODE BLOCK ADDRESS 0x1f07 ===
  0x1f07	mov    	eax, dword ptr [0x36eb]
  0x1f0d	test   	eax, eax
  0x1f0f	jne    	0x1f66
  === BLOCK LINK ===
    0x1f11
=== CODE BLOCK END ===

=== CODE BLOCK ADDRESS 0x1f11 ===
  0x1f11	mov    	dword ptr [0x36e1], ebx
  0x1f17	dec    	esp
  0x1f18	lea    	edi, [0x14da]
  0x1f1e	dec    	eax
  0x1f1f	lea    	edi, [0x14bb]
  === BLOCK LINK ===
    0x1f25
=== CODE BLOCK END ===

=== CODE BLOCK ADDRESS 0x1f25 ===
  0x1f25	dec    	eax
  0x1f26	mov    	dword ptr [esp + 0x28], edi
  0x1f2a	mov    	dword ptr [esp + 0x20], eax
  0x1f2e	dec    	ecx
  0x1f2f	cmp    	edi, edi
  === BLOCK LINK ===
    0x1f31
=== CODE BLOCK END ===

=== CODE BLOCK ADDRESS 0x1f31 ===
  0x1f31	jae    	0x1f58
  === BLOCK LINK ===
    0x1f33
=== CODE BLOCK END ===

=== CODE BLOCK ADDRESS 0x1f33 ===
  0x1f33	test   	eax, eax
  0x1f35	jne    	0x1f5c
  === BLOCK LINK ===
    0x1f37
=== CODE BLOCK END ===

=== CODE BLOCK ADDRESS 0x1f37 ===
  0x1f37	dec    	eax
  0x1f38	cmp    	dword ptr [edi], 0
  0x1f3b	je     	0x1f4d
  === BLOCK LINK ===
    0x1f3d
=== CODE BLOCK END ===

=== CODE BLOCK ADDRESS 0x1f3d ===
  0x1f3d	dec    	eax
  0x1f3e	mov    	eax, dword ptr [edi]
  0x1f40	dec    	eax
  0x1f41	mov    	ecx, dword ptr [0x1479]
  0x1f47	call   	ecx
  === BLOCK LINK ===
    0x1f49
=== CODE BLOCK END ===

=== CODE BLOCK ADDRESS 0x1f49 ===
  0x1f49	mov    	dword ptr [esp + 0x20], eax
  0x1f4d	dec    	eax
  0x1f4e	add    	edi, 8
  0x1f51	dec    	eax
  0x1f52	mov    	dword ptr [esp + 0x28], edi
  === BLOCK LINK ===
    0x1f56
=== CODE BLOCK END ===

=== CODE BLOCK ADDRESS 0x1f56 ===
  0x1f56	jmp    	0x1f2e
  === BLOCK LINK ===
    0x1f58
=== CODE BLOCK END ===

=== CODE BLOCK ADDRESS 0x1f58 ===
  0x1f58	test   	eax, eax
  0x1f5a	je     	0x1f6c
  === BLOCK LINK ===
    0x1f5c
=== CODE BLOCK END ===

=== CODE BLOCK ADDRESS 0x1f5c ===
  0x1f5c	mov    	eax, 0xff
  0x1f61	jmp    	0x2048
  === BLOCK LINK ===
    0x1f66
=== CODE BLOCK END ===

=== CODE BLOCK ADDRESS 0x1f66 ===
  0x1f66	mov    	dword ptr [0x30b8], ebx
  0x1f6c	mov    	eax, dword ptr [0x3686]
  0x1f72	cmp    	eax, ebx
  0x1f74	jne    	0x1f93
  === BLOCK LINK ===
    0x1f76
=== CODE BLOCK END ===

=== CODE BLOCK ADDRESS 0x1f76 ===
  0x1f76	dec    	eax
  0x1f77	lea    	edx, [0x145b]
  0x1f7d	dec    	eax
  0x1f7e	lea    	ecx, [0x1444]
  0x1f84	call   	0x266e
  === BLOCK LINK ===
    0x1f89
=== CODE BLOCK END ===

=== CODE BLOCK ADDRESS 0x1f89 ===
  0x1f89	mov    	dword ptr [0x3665], 2
  0x1f93	test   	esi, esi
  0x1f95	jne    	0x1fa0
  === BLOCK LINK ===
    0x1f97
=== CODE BLOCK END ===

=== CODE BLOCK ADDRESS 0x1f97 ===
  0x1f97	xor    	eax, eax
  0x1f99	dec    	eax
  0x1f9a	xchg   	dword ptr [0x3650], eax
  0x1fa0	dec    	eax
  0x1fa1	cmp    	dword ptr [0x3658], 0
  === BLOCK LINK ===
    0x1fa8
=== CODE BLOCK END ===

=== CODE BLOCK ADDRESS 0x1fa8 ===
  0x1fa8	je     	0x1fd4
  === BLOCK LINK ===
    0x1faa
=== CODE BLOCK END ===

=== CODE BLOCK ADDRESS 0x1faa ===
  0x1faa	dec    	eax
  0x1fab	lea    	ecx, [0x364f]
  0x1fb1	call   	0x2500
  === BLOCK LINK ===
    0x1fb6
=== CODE BLOCK END ===

=== CODE BLOCK ADDRESS 0x1fb6 ===
  0x1fb6	test   	eax, eax
  0x1fb8	je     	0x1fd4
  === BLOCK LINK ===
    0x1fba
=== CODE BLOCK END ===

=== CODE BLOCK ADDRESS 0x1fba ===
  0x1fba	inc    	ebp
  0x1fbb	xor    	eax, eax
  0x1fbd	inc    	ecx
  0x1fbe	lea    	edx, [eax + 2]
  0x1fc1	xor    	ecx, ecx
  === BLOCK LINK ===
    0x1fc3
=== CODE BLOCK END ===

=== CODE BLOCK ADDRESS 0x1fc3 ===
  0x1fc3	dec    	eax
  0x1fc4	mov    	eax, dword ptr [0x3636]
  0x1fca	dec    	esp
  0x1fcb	mov    	ecx, dword ptr [0x13ef]
  0x1fd1	inc    	ecx
  === BLOCK LINK ===
    0x1fd2
=== CODE BLOCK END ===

=== CODE BLOCK ADDRESS 0x1fd2 ===
  0x1fd2	call   	ecx
  === BLOCK LINK ===
    0x1fd4
=== CODE BLOCK END ===

=== CODE BLOCK ADDRESS 0x1fd4 ===
  0x1fd4	dec    	esp
  0x1fd5	mov    	eax, dword ptr [0x305d]
  0x1fdb	dec    	eax
  0x1fdc	mov    	edx, dword ptr [0x304e]
  0x1fe2	mov    	ecx, dword ptr [0x3040]
  === BLOCK LINK ===
    0x1fe8
=== CODE BLOCK END ===

=== CODE BLOCK ADDRESS 0x1fe8 ===
  0x1fe8	call   	0x1008
  === BLOCK LINK ===
    0x1fed
=== CODE BLOCK END ===

=== CODE BLOCK ADDRESS 0x1fed ===
  0x1fed	mov    	dword ptr [0x302d], eax
  0x1ff3	cmp    	dword ptr [0x3046], 0
  0x1ffa	jne    	0x2004
  === BLOCK LINK ===
    0x1ffc
=== CODE BLOCK END ===

=== CODE BLOCK ADDRESS 0x1ffc ===
  0x1ffc	mov    	ecx, eax
  0x1ffe	call   	dword ptr [0x1374]
  === BLOCK LINK ===
    0x2004
=== CODE BLOCK END ===

=== CODE BLOCK ADDRESS 0x2004 ===
  0x2004	cmp    	dword ptr [0x3019], 0
  0x200b	jne    	0x2019
  === BLOCK LINK ===
    0x200d
=== CODE BLOCK END ===

=== CODE BLOCK ADDRESS 0x200d ===
  0x200d	call   	dword ptr [0x1355]
  === BLOCK LINK ===
    0x2013
=== CODE BLOCK END ===

=== CODE BLOCK ADDRESS 0x2013 ===
  0x2013	mov    	eax, dword ptr [0x3007]
  0x2019	jmp    	0x2048
  === BLOCK LINK ===
    0x201b
=== CODE BLOCK END ===

=== CODE BLOCK ADDRESS 0x201b ===
  0x201b	mov    	dword ptr [0x2fff], eax
  0x2021	cmp    	dword ptr [0x3018], 0
  0x2028	jne    	0x2033
  === BLOCK LINK ===
    0x202a
=== CODE BLOCK END ===

=== CODE BLOCK ADDRESS 0x202a ===
  0x202a	mov    	ecx, eax
  0x202c	call   	dword ptr [0x133e]
  === BLOCK LINK ===
    0x2032
=== CODE BLOCK END ===

=== CODE BLOCK ADDRESS 0x2032 ===
  0x2032	int3   	
  0x2033	cmp    	dword ptr [0x2fea], 0
  0x203a	jne    	0x2048
  === BLOCK LINK ===
    0x203c
=== CODE BLOCK END ===

=== CODE BLOCK ADDRESS 0x203c ===
  0x203c	call   	dword ptr [0x1326]
  === BLOCK LINK ===
    0x2042
=== CODE BLOCK END ===

=== CODE BLOCK ADDRESS 0x2042 ===
  0x2042	mov    	eax, dword ptr [0x2fd8]
  0x2048	dec    	eax
  0x2049	mov    	ebx, dword ptr [esp + 0x40]
  0x204d	dec    	eax
  0x204e	mov    	esi, dword ptr [esp + 0x48]
  === BLOCK LINK ===
    0x2052
=== CODE BLOCK END ===

=== CODE BLOCK ADDRESS 0x2052 ===
  0x2052	dec    	eax
  0x2053	mov    	edi, dword ptr [esp + 0x50]
  0x2057	dec    	eax
  0x2058	add    	esp, 0x30
  0x205b	inc    	ecx
  === BLOCK LINK ===
    0x205c
=== CODE BLOCK END ===

=== CODE BLOCK ADDRESS 0x205c ===
  0x205c	pop    	edi
  0x205d	ret    	
  0x205e	int3   	
  0x205f	int3   	
  0x2060	int3   	
  === BLOCK LINK ===
    0x2061
=== CODE BLOCK END ===

=== CODE BLOCK ADDRESS 0x1adc ===
  0x1adc	mov    	dword ptr [esp + 0x10], edx
  0x1ae0	dec    	esp
  0x1ae1	mov    	ebx, esp
  === BLOCK LINK ===
    0x1ae3
=== CODE BLOCK END ===

=== CODE BLOCK ADDRESS 0x2061 ===
  0x2061	int3   	
  0x2062	int3   	
  0x2063	int3   	
  0x2064	int3   	
  0x2065	int3   	
  === BLOCK LINK ===
    0x2066
=== CODE BLOCK END ===

=== CODE BLOCK ADDRESS 0x2066 ===
  0x2066	int3   	
  0x2067	int3   	
  0x2068	int3   	
  0x2069	int3   	
  0x206a	int3   	
  === BLOCK LINK ===
    0x206b
=== CODE BLOCK END ===

=== CODE BLOCK ADDRESS 0x206b ===
  0x206b	int3   	
  0x206c	int3   	
  0x206d	int3   	
  0x206e	int3   	
  0x206f	int3   	
  === BLOCK LINK ===
    0x2070
=== CODE BLOCK END ===

=== CODE BLOCK ADDRESS 0x2070 ===
  0x2070	dec    	eax
  0x2071	sub    	esp, 0x28
  0x2074	call   	0x2594
  === BLOCK LINK ===
    0x2079
=== CODE BLOCK END ===

=== CODE BLOCK ADDRESS 0x2079 ===
  0x2079	dec    	eax
  0x207a	add    	esp, 0x28
  0x207d	jmp    	0x1ea0
  === BLOCK LINK ===
    0x2082
=== CODE BLOCK END ===

=== CODE BLOCK ADDRESS 0x2082 ===
  0x2082	int3   	
  0x2083	int3   	
  0x2084	int3   	
  0x2085	int3   	
  0x2086	int3   	
  === BLOCK LINK ===
    0x2087
=== CODE BLOCK END ===

=== CODE BLOCK ADDRESS 0x2087 ===
  0x2087	int3   	
  0x2088	int3   	
  0x2089	int3   	
  0x208a	int3   	
  0x208b	int3   	
  === BLOCK LINK ===
    0x208c
=== CODE BLOCK END ===

=== CODE BLOCK ADDRESS 0x208c ===
  0x208c	int3   	
  0x208d	int3   	
  0x208e	int3   	
  0x208f	int3   	
  0x2090	int3   	
  === BLOCK LINK ===
    0x2091
=== CODE BLOCK END ===

=== CODE BLOCK ADDRESS 0x2091 ===
  0x2091	int3   	
  0x2092	int3   	
  0x2093	int3   	
  0x2094	int3   	
  0x2095	int3   	
  === BLOCK LINK ===
    0x2096
=== CODE BLOCK END ===

=== CODE BLOCK ADDRESS 0x2096 ===
  0x2096	nop    	word ptr [eax + eax]
  0x20a0	dec    	eax
  0x20a1	cmp    	ecx, dword ptr [0x2f61]
  0x20a7	jne    	0x20b9
  === BLOCK LINK ===
    0x20a9
=== CODE BLOCK END ===

=== CODE BLOCK ADDRESS 0x20a9 ===
  0x20a9	dec    	eax
  0x20aa	rol    	ecx, 0x10
  0x20ad	test   	cx, 0xffff
  0x20b2	jne    	0x20b5
  === BLOCK LINK ===
    0x20b4
=== CODE BLOCK END ===

=== CODE BLOCK ADDRESS 0x20b4 ===
  0x20b4	ret    	
  0x20b5	dec    	eax
  0x20b6	ror    	ecx, 0x10
  0x20b9	jmp    	0x2100
  === BLOCK LINK ===
    0x20be
=== CODE BLOCK END ===

=== CODE BLOCK ADDRESS 0x112f ===
  0x112f	dec    	eax
  0x1130	mov    	ebx, dword ptr [esp + 0x30]
  0x1134	dec    	eax
  0x1135	mov    	esi, dword ptr [esp + 0x40]
  === BLOCK LINK ===
    0x1139
=== CODE BLOCK END ===

=== CODE BLOCK ADDRESS 0x20be ===
  0x20be	int3   	
  0x20bf	int3   	
  0x20c0	int3   	
  0x20c1	int3   	
  0x20c2	int3   	
  === BLOCK LINK ===
    0x20c3
=== CODE BLOCK END ===

=== CODE BLOCK ADDRESS 0x20c3 ===
  0x20c3	int3   	
  0x20c4	inc    	eax
  0x20c5	push   	ebx
  0x20c6	dec    	eax
  0x20c7	sub    	esp, 0x20
  === BLOCK LINK ===
    0x20ca
=== CODE BLOCK END ===

=== CODE BLOCK ADDRESS 0x20ca ===
  0x20ca	dec    	eax
  0x20cb	mov    	ebx, ecx
  0x20cd	xor    	ecx, ecx
  0x20cf	call   	dword ptr [0x10d3]
  === BLOCK LINK ===
    0x20d5
=== CODE BLOCK END ===

=== CODE BLOCK ADDRESS 0x20d5 ===
  0x20d5	dec    	eax
  0x20d6	mov    	ecx, ebx
  0x20d8	call   	dword ptr [0x10da]
  === BLOCK LINK ===
    0x20de
=== CODE BLOCK END ===

=== CODE BLOCK ADDRESS 0x20de ===
  0x20de	call   	dword ptr [0x1164]
  === BLOCK LINK ===
    0x20e4
=== CODE BLOCK END ===

=== CODE BLOCK ADDRESS 0x20e4 ===
  0x20e4	dec    	eax
  0x20e5	mov    	ecx, eax
  0x20e7	mov    	edx, 0xc0000409
  0x20ec	dec    	eax
  0x20ed	add    	esp, 0x20
  === BLOCK LINK ===
    0x20f0
=== CODE BLOCK END ===

=== CODE BLOCK ADDRESS 0x20f0 ===
  0x20f0	pop    	ebx
  0x20f1	dec    	eax
  0x20f2	jmp    	dword ptr [0x1140]
  === BLOCK LINK ===
    0x20f8
=== CODE BLOCK END ===

=== CODE BLOCK ADDRESS 0x20f8 ===
  0x20f8	int3   	
  0x20f9	int3   	
  0x20fa	int3   	
  0x20fb	int3   	
  0x20fc	int3   	
  === BLOCK LINK ===
    0x20fd
=== CODE BLOCK END ===

=== CODE BLOCK ADDRESS 0x20fd ===
  0x20fd	int3   	
  0x20fe	int3   	
  0x20ff	int3   	
  0x2100	dec    	eax
  0x2101	mov    	dword ptr [esp + 8], ecx
  === BLOCK LINK ===
    0x2105
=== CODE BLOCK END ===

=== CODE BLOCK ADDRESS 0x2105 ===
  0x2105	dec    	eax
  0x2106	sub    	esp, 0x88
  0x210c	dec    	eax
  0x210d	lea    	ecx, [0x2fdd]
  0x2113	call   	dword ptr [0x115f]
  === BLOCK LINK ===
    0x2119
=== CODE BLOCK END ===

=== CODE BLOCK ADDRESS 0x2119 ===
  0x2119	dec    	eax
  0x211a	mov    	eax, dword ptr [0x30c8]
  0x2120	dec    	eax
  0x2121	mov    	dword ptr [esp + 0x48], eax
  0x2125	inc    	ebp
  === BLOCK LINK ===
    0x2126
=== CODE BLOCK END ===

=== CODE BLOCK ADDRESS 0x2126 ===
  0x2126	xor    	eax, eax
  0x2128	dec    	eax
  0x2129	lea    	edx, [esp + 0x50]
  0x212d	dec    	eax
  0x212e	mov    	ecx, dword ptr [esp + 0x48]
  === BLOCK LINK ===
    0x2132
=== CODE BLOCK END ===

=== CODE BLOCK ADDRESS 0x2132 ===
  0x2132	call   	dword ptr [0x1138]
  === BLOCK LINK ===
    0x2138
=== CODE BLOCK END ===

=== CODE BLOCK ADDRESS 0x2138 ===
  0x2138	dec    	eax
  0x2139	mov    	dword ptr [esp + 0x40], eax
  0x213d	dec    	eax
  0x213e	cmp    	dword ptr [esp + 0x40], 0
  0x2143	je     	0x2187
  === BLOCK LINK ===
    0x2145
=== CODE BLOCK END ===

=== CODE BLOCK ADDRESS 0x2145 ===
  0x2145	dec    	eax
  0x2146	mov    	dword ptr [esp + 0x38], 0
  0x214e	dec    	eax
  0x214f	lea    	eax, [esp + 0x58]
  0x2153	dec    	eax
  === BLOCK LINK ===
    0x2154
=== CODE BLOCK END ===

=== CODE BLOCK ADDRESS 0x2154 ===
  0x2154	mov    	dword ptr [esp + 0x30], eax
  0x2158	dec    	eax
  0x2159	lea    	eax, [esp + 0x60]
  0x215d	dec    	eax
  0x215e	mov    	dword ptr [esp + 0x28], eax
  === BLOCK LINK ===
    0x2162
=== CODE BLOCK END ===

=== CODE BLOCK ADDRESS 0x2162 ===
  0x2162	dec    	eax
  0x2163	lea    	eax, [0x2f87]
  0x2169	dec    	eax
  0x216a	mov    	dword ptr [esp + 0x20], eax
  0x216e	dec    	esp
  === BLOCK LINK ===
    0x216f
=== CODE BLOCK END ===

=== CODE BLOCK ADDRESS 0x216f ===
  0x216f	mov    	ecx, dword ptr [esp + 0x40]
  0x2173	dec    	esp
  0x2174	mov    	eax, dword ptr [esp + 0x48]
  0x2178	dec    	eax
  0x2179	mov    	edx, dword ptr [esp + 0x50]
  === BLOCK LINK ===
    0x217d
=== CODE BLOCK END ===

=== CODE BLOCK ADDRESS 0x217d ===
  0x217d	xor    	ecx, ecx
  0x217f	call   	dword ptr [0x10fb]
  === BLOCK LINK ===
    0x2185
=== CODE BLOCK END ===

=== CODE BLOCK ADDRESS 0x2185 ===
  0x2185	jmp    	0x21aa
  === BLOCK LINK ===
    0x2187
=== CODE BLOCK END ===

=== CODE BLOCK ADDRESS 0x2187 ===
  0x2187	dec    	eax
  0x2188	mov    	eax, dword ptr [0x2ffa]
  0x218e	dec    	eax
  0x218f	mov    	eax, dword ptr [eax]
  0x2191	dec    	eax
  === BLOCK LINK ===
    0x2192
=== CODE BLOCK END ===

=== CODE BLOCK ADDRESS 0x2192 ===
  0x2192	mov    	dword ptr [0x3050], eax
  0x2198	dec    	eax
  0x2199	mov    	eax, dword ptr [0x2fe9]
  0x219f	dec    	eax
  0x21a0	add    	eax, 8
  === BLOCK LINK ===
    0x21a3
=== CODE BLOCK END ===

=== CODE BLOCK ADDRESS 0x21a3 ===
  0x21a3	dec    	eax
  0x21a4	mov    	dword ptr [0x2fde], eax
  0x21aa	dec    	eax
  0x21ab	mov    	eax, dword ptr [0x3037]
  0x21b1	dec    	eax
  === BLOCK LINK ===
    0x21b2
=== CODE BLOCK END ===

=== CODE BLOCK ADDRESS 0x21b2 ===
  0x21b2	mov    	dword ptr [0x2ea8], eax
  0x21b8	dec    	eax
  0x21b9	mov    	eax, dword ptr [esp + 0x90]
  0x21c0	dec    	eax
  0x21c1	mov    	dword ptr [0x2fa9], eax
  === BLOCK LINK ===
    0x21c7
=== CODE BLOCK END ===

=== CODE BLOCK ADDRESS 0x21c7 ===
  0x21c7	mov    	dword ptr [0x2e7f], 0xc0000409
  0x21d1	mov    	dword ptr [0x2e79], 1
  0x21db	mov    	dword ptr [0x2e83], 3
  0x21e5	mov    	eax, 8
  0x21ea	dec    	eax
  === BLOCK LINK ===
    0x21eb
=== CODE BLOCK END ===

=== CODE BLOCK ADDRESS 0x21eb ===
  0x21eb	imul   	eax, eax, 0
  0x21ee	dec    	eax
  0x21ef	lea    	ecx, [0x2e7b]
  0x21f5	dec    	eax
  0x21f6	mov    	dword ptr [ecx + eax], 2
  === BLOCK LINK ===
    0x21fd
=== CODE BLOCK END ===

=== CODE BLOCK ADDRESS 0x21fd ===
  0x21fd	mov    	eax, 8
  0x2202	dec    	eax
  0x2203	imul   	eax, eax, 1
  0x2206	dec    	eax
  0x2207	lea    	ecx, [0x2e63]
  === BLOCK LINK ===
    0x220d
=== CODE BLOCK END ===

=== CODE BLOCK ADDRESS 0x220d ===
  0x220d	dec    	eax
  0x220e	mov    	edx, dword ptr [0x2df4]
  0x2214	dec    	eax
  0x2215	mov    	dword ptr [ecx + eax], edx
  0x2218	mov    	eax, 8
  === BLOCK LINK ===
    0x221d
=== CODE BLOCK END ===

=== CODE BLOCK ADDRESS 0x221d ===
  0x221d	dec    	eax
  0x221e	imul   	eax, eax, 2
  0x2221	dec    	eax
  0x2222	lea    	ecx, [0x2e48]
  0x2228	dec    	eax
  === BLOCK LINK ===
    0x2229
=== CODE BLOCK END ===

=== CODE BLOCK ADDRESS 0x2229 ===
  0x2229	mov    	edx, dword ptr [0x2de1]
  0x222f	dec    	eax
  0x2230	mov    	dword ptr [ecx + eax], edx
  0x2233	mov    	eax, 8
  0x2238	dec    	eax
  === BLOCK LINK ===
    0x2239
=== CODE BLOCK END ===

=== CODE BLOCK ADDRESS 0x2239 ===
  0x2239	imul   	eax, eax, 0
  0x223c	dec    	eax
  0x223d	mov    	ecx, dword ptr [0x2dc5]
  0x2243	dec    	eax
  0x2244	mov    	dword ptr [esp + eax + 0x68], ecx
  === BLOCK LINK ===
    0x2248
=== CODE BLOCK END ===

=== CODE BLOCK ADDRESS 0x2248 ===
  0x2248	mov    	eax, 8
  0x224d	dec    	eax
  0x224e	imul   	eax, eax, 1
  0x2251	dec    	eax
  0x2252	mov    	ecx, dword ptr [0x2db8]
  === BLOCK LINK ===
    0x2258
=== CODE BLOCK END ===

=== CODE BLOCK ADDRESS 0x2258 ===
  0x2258	dec    	eax
  0x2259	mov    	dword ptr [esp + eax + 0x68], ecx
  0x225d	dec    	eax
  0x225e	lea    	ecx, [0xd9c]
  0x2264	call   	0x20c4
  === BLOCK LINK ===
    0x2269
=== CODE BLOCK END ===

=== CODE BLOCK ADDRESS 0x2269 ===
  0x2269	dec    	eax
  0x226a	add    	esp, 0x88
  0x2270	ret    	
  0x2271	int3   	
  0x2272	int3   	
  === BLOCK LINK ===
    0x2273
=== CODE BLOCK END ===

=== CODE BLOCK ADDRESS 0x2273 ===
  0x2273	int3   	
  0x2274	int3   	
  0x2275	int3   	
  0x2276	int3   	
  0x2277	int3   	
  === BLOCK LINK ===
    0x2278
=== CODE BLOCK END ===

=== CODE BLOCK ADDRESS 0x2278 ===
  0x2278	dec    	eax
  0x2279	sub    	esp, 0x78
  0x227c	dec    	eax
  0x227d	lea    	ecx, [0x2e6d]
  0x2283	call   	dword ptr [0xfef]
  === BLOCK LINK ===
    0x2289
=== CODE BLOCK END ===

=== CODE BLOCK ADDRESS 0x2289 ===
  0x2289	dec    	eax
  0x228a	mov    	eax, dword ptr [0x2f58]
  0x2290	dec    	eax
  0x2291	mov    	dword ptr [esp + 0x48], eax
  0x2295	inc    	ebp
  === BLOCK LINK ===
    0x2296
=== CODE BLOCK END ===

=== CODE BLOCK ADDRESS 0x2296 ===
  0x2296	xor    	eax, eax
  0x2298	dec    	eax
  0x2299	lea    	edx, [esp + 0x50]
  0x229d	dec    	eax
  0x229e	mov    	ecx, dword ptr [esp + 0x48]
  === BLOCK LINK ===
    0x22a2
=== CODE BLOCK END ===

=== CODE BLOCK ADDRESS 0x22a2 ===
  0x22a2	call   	dword ptr [0xfc8]
  === BLOCK LINK ===
    0x22a8
=== CODE BLOCK END ===

=== CODE BLOCK ADDRESS 0x22a8 ===
  0x22a8	dec    	eax
  0x22a9	mov    	dword ptr [esp + 0x40], eax
  0x22ad	dec    	eax
  0x22ae	cmp    	dword ptr [esp + 0x40], 0
  0x22b3	je     	0x22f7
  === BLOCK LINK ===
    0x22b5
=== CODE BLOCK END ===

=== CODE BLOCK ADDRESS 0x22b5 ===
  0x22b5	dec    	eax
  0x22b6	mov    	dword ptr [esp + 0x38], 0
  0x22be	dec    	eax
  0x22bf	lea    	eax, [esp + 0x58]
  0x22c3	dec    	eax
  === BLOCK LINK ===
    0x22c4
=== CODE BLOCK END ===

=== CODE BLOCK ADDRESS 0x22c4 ===
  0x22c4	mov    	dword ptr [esp + 0x30], eax
  0x22c8	dec    	eax
  0x22c9	lea    	eax, [esp + 0x60]
  0x22cd	dec    	eax
  0x22ce	mov    	dword ptr [esp + 0x28], eax
  === BLOCK LINK ===
    0x22d2
=== CODE BLOCK END ===

=== CODE BLOCK ADDRESS 0x22d2 ===
  0x22d2	dec    	eax
  0x22d3	lea    	eax, [0x2e17]
  0x22d9	dec    	eax
  0x22da	mov    	dword ptr [esp + 0x20], eax
  0x22de	dec    	esp
  === BLOCK LINK ===
    0x22df
=== CODE BLOCK END ===

=== CODE BLOCK ADDRESS 0x22df ===
  0x22df	mov    	ecx, dword ptr [esp + 0x40]
  0x22e3	dec    	esp
  0x22e4	mov    	eax, dword ptr [esp + 0x48]
  0x22e8	dec    	eax
  0x22e9	mov    	edx, dword ptr [esp + 0x50]
  === BLOCK LINK ===
    0x22ed
=== CODE BLOCK END ===

=== CODE BLOCK ADDRESS 0x22ed ===
  0x22ed	xor    	ecx, ecx
  0x22ef	call   	dword ptr [0xf8b]
  === BLOCK LINK ===
    0x22f5
=== CODE BLOCK END ===

=== CODE BLOCK ADDRESS 0x22f5 ===
  0x22f5	jmp    	0x231a
  === BLOCK LINK ===
    0x22f7
=== CODE BLOCK END ===

=== CODE BLOCK ADDRESS 0x22f7 ===
  0x22f7	dec    	eax
  0x22f8	mov    	eax, dword ptr [0x2e8a]
  0x22fe	dec    	eax
  0x22ff	mov    	eax, dword ptr [eax]
  0x2301	dec    	eax
  === BLOCK LINK ===
    0x2302
=== CODE BLOCK END ===

=== CODE BLOCK ADDRESS 0x2302 ===
  0x2302	mov    	dword ptr [0x2ee0], eax
  0x2308	dec    	eax
  0x2309	mov    	eax, dword ptr [0x2e79]
  0x230f	dec    	eax
  0x2310	add    	eax, 8
  === BLOCK LINK ===
    0x2313
=== CODE BLOCK END ===

=== CODE BLOCK ADDRESS 0x2313 ===
  0x2313	dec    	eax
  0x2314	mov    	dword ptr [0x2e6e], eax
  0x231a	dec    	eax
  0x231b	mov    	eax, dword ptr [0x2ec7]
  0x2321	dec    	eax
  === BLOCK LINK ===
    0x2322
=== CODE BLOCK END ===

=== CODE BLOCK ADDRESS 0x2322 ===
  0x2322	mov    	dword ptr [0x2d38], eax
  0x2328	mov    	dword ptr [0x2d1e], 0xc0000409
  0x2332	mov    	dword ptr [0x2d18], 1
  0x233c	mov    	dword ptr [0x2d22], 1
  0x2346	mov    	eax, 8
  === BLOCK LINK ===
    0x234b
=== CODE BLOCK END ===

=== CODE BLOCK ADDRESS 0x234b ===
  0x234b	dec    	eax
  0x234c	imul   	eax, eax, 0
  0x234f	dec    	eax
  0x2350	lea    	ecx, [0x2d1a]
  0x2356	dec    	eax
  === BLOCK LINK ===
    0x2357
=== CODE BLOCK END ===

=== CODE BLOCK ADDRESS 0x2357 ===
  0x2357	mov    	dword ptr [ecx + eax], 8
  0x235e	dec    	eax
  0x235f	lea    	ecx, [0xc9b]
  0x2365	call   	0x20c4
  === BLOCK LINK ===
    0x236a
=== CODE BLOCK END ===

=== CODE BLOCK ADDRESS 0x236a ===
  0x236a	dec    	eax
  0x236b	add    	esp, 0x78
  0x236e	ret    	
  0x236f	int3   	
  0x2370	int3   	
  === BLOCK LINK ===
    0x2371
=== CODE BLOCK END ===

=== CODE BLOCK ADDRESS 0x1128 ===
  0x1128	dec    	eax
  0x1129	cmp    	dword ptr [ebx], edi
  0x112b	jne    	0x10e5
  === BLOCK LINK ===
    0x112d
=== CODE BLOCK END ===

=== CODE BLOCK ADDRESS 0x2371 ===
  0x2371	int3   	
  0x2372	int3   	
  0x2373	int3   	
  0x2374	int3   	
  0x2375	int3   	
  === BLOCK LINK ===
    0x2376
=== CODE BLOCK END ===

=== CODE BLOCK ADDRESS 0x2376 ===
  0x2376	int3   	
  0x2377	int3   	
  0x2378	int3   	
  0x2379	int3   	
  0x237a	int3   	
  === BLOCK LINK ===
    0x237b
=== CODE BLOCK END ===

=== CODE BLOCK ADDRESS 0x237b ===
  0x237b	int3   	
  0x237c	int3   	
  0x237d	int3   	
  0x237e	int3   	
  0x237f	int3   	
  === BLOCK LINK ===
    0x2380
=== CODE BLOCK END ===

=== CODE BLOCK ADDRESS 0x2380 ===
  0x2380	dec    	eax
  0x2381	sub    	esp, 0x28
  0x2384	dec    	eax
  0x2385	mov    	eax, dword ptr [ecx]
  0x2387	cmp    	dword ptr [eax], 0xe06d7363
  === BLOCK LINK ===
    0x238d
=== CODE BLOCK END ===

=== CODE BLOCK ADDRESS 0x238d ===
  0x238d	jne    	0x23b2
  === BLOCK LINK ===
    0x238f
=== CODE BLOCK END ===

=== CODE BLOCK ADDRESS 0x238f ===
  0x238f	cmp    	dword ptr [eax + 0x18], 4
  0x2393	jne    	0x23b2
  === BLOCK LINK ===
    0x2395
=== CODE BLOCK END ===

=== CODE BLOCK ADDRESS 0x2395 ===
  0x2395	mov    	ecx, dword ptr [eax + 0x20]
  0x2398	lea    	eax, [ecx - 0x19930520]
  0x239e	cmp    	eax, 2
  0x23a1	jbe    	0x23ab
  === BLOCK LINK ===
    0x23a3
=== CODE BLOCK END ===

=== CODE BLOCK ADDRESS 0x23a3 ===
  0x23a3	cmp    	ecx, 0x1994000
  0x23a9	jne    	0x23b2
  === BLOCK LINK ===
    0x23ab
=== CODE BLOCK END ===

=== CODE BLOCK ADDRESS 0x23ab ===
  0x23ab	call   	dword ptr [0xf87]
  === BLOCK LINK ===
    0x23b1
=== CODE BLOCK END ===

=== CODE BLOCK ADDRESS 0x23b1 ===
  0x23b1	int3   	
  0x23b2	xor    	eax, eax
  0x23b4	dec    	eax
  0x23b5	add    	esp, 0x28
  0x23b8	ret    	
  === BLOCK LINK ===
    0x23b9
=== CODE BLOCK END ===

=== CODE BLOCK ADDRESS 0x23b9 ===
  0x23b9	int3   	
  0x23ba	int3   	
  0x23bb	int3   	
  0x23bc	int3   	
  0x23bd	int3   	
  === BLOCK LINK ===
    0x23be
=== CODE BLOCK END ===

=== CODE BLOCK ADDRESS 0x23be ===
  0x23be	int3   	
  0x23bf	int3   	
  0x23c0	dec    	eax
  0x23c1	sub    	esp, 0x28
  0x23c4	dec    	eax
  === BLOCK LINK ===
    0x23c5
=== CODE BLOCK END ===

=== CODE BLOCK ADDRESS 0x23c5 ===
  0x23c5	lea    	ecx, [0xffffffb5]
  0x23cb	call   	dword ptr [0xdd7]
  === BLOCK LINK ===
    0x23d1
=== CODE BLOCK END ===

=== CODE BLOCK ADDRESS 0x23d1 ===
  0x23d1	xor    	eax, eax
  0x23d3	dec    	eax
  0x23d4	add    	esp, 0x28
  0x23d7	ret    	
  0x23d8	int3   	
  === BLOCK LINK ===
    0x23d9
=== CODE BLOCK END ===

=== CODE BLOCK ADDRESS 0x23d9 ===
  0x23d9	int3   	
  0x23da	int3   	
  0x23db	int3   	
  0x23dc	int3   	
  0x23dd	int3   	
  === BLOCK LINK ===
    0x23de
=== CODE BLOCK END ===

=== CODE BLOCK ADDRESS 0x23de ===
  0x23de	jmp    	dword ptr [0xfb4]
  === BLOCK LINK ===
    0x23e4
=== CODE BLOCK END ===

=== CODE BLOCK ADDRESS 0x23e4 ===
  0x23e4	int3   	
  0x23e5	int3   	
  0x23e6	int3   	
  0x23e7	int3   	
  0x23e8	int3   	
  === BLOCK LINK ===
    0x23e9
=== CODE BLOCK END ===

=== CODE BLOCK ADDRESS 0x23e9 ===
  0x23e9	int3   	
  0x23ea	int3   	
  0x23eb	int3   	
  0x23ec	dec    	eax
  0x23ed	sub    	esp, 0x18
  === BLOCK LINK ===
    0x23f0
=== CODE BLOCK END ===

=== CODE BLOCK ADDRESS 0x23f0 ===
  0x23f0	xor    	edx, edx
  0x23f2	dec    	eax
  0x23f3	lea    	eax, [ecx - 1]
  0x23f6	dec    	eax
  0x23f7	cmp    	eax, -3
  === BLOCK LINK ===
    0x23fa
=== CODE BLOCK END ===

=== CODE BLOCK ADDRESS 0x23fa ===
  0x23fa	ja     	0x2438
  === BLOCK LINK ===
    0x23fc
=== CODE BLOCK END ===

=== CODE BLOCK ADDRESS 0x23fc ===
  0x23fc	mov    	eax, 0x5a4d
  0x2401	cmp    	word ptr [ecx], ax
  0x2404	jne    	0x2430
  === BLOCK LINK ===
    0x2406
=== CODE BLOCK END ===

=== CODE BLOCK ADDRESS 0x2406 ===
  0x2406	cmp    	dword ptr [ecx + 0x3c], edx
  0x2409	jl     	0x2430
  === BLOCK LINK ===
    0x240b
=== CODE BLOCK END ===

=== CODE BLOCK ADDRESS 0x240b ===
  0x240b	cmp    	dword ptr [ecx + 0x3c], 0x10000000
  0x2412	jae    	0x2430
  === BLOCK LINK ===
    0x2414
=== CODE BLOCK END ===

=== CODE BLOCK ADDRESS 0x2414 ===
  0x2414	dec    	eax
  0x2415	arpl   	word ptr [ecx + 0x3c], ax
  0x2418	dec    	eax
  0x2419	add    	eax, ecx
  0x241b	dec    	eax
  === BLOCK LINK ===
    0x241c
=== CODE BLOCK END ===

=== CODE BLOCK ADDRESS 0x241c ===
  0x241c	mov    	dword ptr [esp], eax
  0x241f	cmp    	dword ptr [eax], 0x4550
  0x2425	dec    	eax
  0x2426	cmovne  	eax, edx
  0x2429	dec    	eax
  === BLOCK LINK ===
    0x242a
=== CODE BLOCK END ===

=== CODE BLOCK ADDRESS 0x242a ===
  0x242a	mov    	edx, eax
  0x242c	dec    	eax
  0x242d	mov    	dword ptr [esp], eax
  0x2430	jmp    	0x2438
  === BLOCK LINK ===
    0x2432
=== CODE BLOCK END ===

=== CODE BLOCK ADDRESS 0x2432 ===
  0x2432	xor    	edx, edx
  0x2434	dec    	eax
  0x2435	mov    	dword ptr [esp], edx
  0x2438	dec    	eax
  0x2439	mov    	eax, edx
  === BLOCK LINK ===
    0x243b
=== CODE BLOCK END ===

=== CODE BLOCK ADDRESS 0x243b ===
  0x243b	dec    	eax
  0x243c	add    	esp, 0x18
  0x243f	ret    	
  0x2440	int3   	
  0x2441	int3   	
  === BLOCK LINK ===
    0x2442
=== CODE BLOCK END ===

=== CODE BLOCK ADDRESS 0x2442 ===
  0x2442	int3   	
  0x2443	int3   	
  0x2444	int3   	
  0x2445	int3   	
  0x2446	int3   	
  === BLOCK LINK ===
    0x2447
=== CODE BLOCK END ===

=== CODE BLOCK ADDRESS 0x2447 ===
  0x2447	int3   	
  0x2448	inc    	eax
  0x2449	push   	ebx
  0x244a	dec    	eax
  0x244b	sub    	esp, 0x20
  === BLOCK LINK ===
    0x244e
=== CODE BLOCK END ===

=== CODE BLOCK ADDRESS 0x244e ===
  0x244e	mov    	ebx, ecx
  0x2450	xor    	ecx, ecx
  0x2452	call   	dword ptr [0xda8]
  === BLOCK LINK ===
    0x2458
=== CODE BLOCK END ===

=== CODE BLOCK ADDRESS 0x2458 ===
  0x2458	dec    	eax
  0x2459	test   	eax, eax
  0x245b	je     	0x2485
  === BLOCK LINK ===
    0x245d
=== CODE BLOCK END ===

=== CODE BLOCK ADDRESS 0x245d ===
  0x245d	dec    	eax
  0x245e	mov    	ecx, eax
  0x2460	call   	0x23ec
  === BLOCK LINK ===
    0x2465
=== CODE BLOCK END ===

=== CODE BLOCK ADDRESS 0x2465 ===
  0x2465	dec    	eax
  0x2466	test   	eax, eax
  0x2468	je     	0x2485
  === BLOCK LINK ===
    0x246a
=== CODE BLOCK END ===

=== CODE BLOCK ADDRESS 0x246a ===
  0x246a	mov    	ecx, 2
  0x246f	cmp    	word ptr [eax + 0x5c], cx
  0x2473	jne    	0x2479
  === BLOCK LINK ===
    0x2475
=== CODE BLOCK END ===

=== CODE BLOCK ADDRESS 0x2475 ===
  0x2475	mov    	eax, ecx
  0x2477	jmp    	0x2487
  === BLOCK LINK ===
    0x2479
=== CODE BLOCK END ===

=== CODE BLOCK ADDRESS 0x2479 ===
  0x2479	cmp    	word ptr [eax + 0x5c], 3
  0x247e	mov    	eax, 1
  0x2483	je     	0x2487
  === BLOCK LINK ===
    0x2485
=== CODE BLOCK END ===

=== CODE BLOCK ADDRESS 0x2485 ===
  0x2485	mov    	eax, ebx
  0x2487	dec    	eax
  0x2488	add    	esp, 0x20
  0x248b	pop    	ebx
  0x248c	ret    	
  === BLOCK LINK ===
    0x248d
=== CODE BLOCK END ===

=== CODE BLOCK ADDRESS 0x17ac ===
  0x17ac	dec    	eax
  0x17ad	mov    	dword ptr [esp + 0x18], ebx
  === BLOCK LINK ===
    0x17b1
=== CODE BLOCK END ===

=== CODE BLOCK ADDRESS 0x248d ===
  0x248d	int3   	
  0x248e	int3   	
  0x248f	int3   	
  0x2490	int3   	
  0x2491	int3   	
  === BLOCK LINK ===
    0x2492
=== CODE BLOCK END ===

=== CODE BLOCK ADDRESS 0x2492 ===
  0x2492	int3   	
  0x2493	jmp    	dword ptr [0xef7]
  === BLOCK LINK ===
    0x2499
=== CODE BLOCK END ===

=== CODE BLOCK ADDRESS 0x2499 ===
  0x2499	int3   	
  0x249a	int3   	
  0x249b	int3   	
  0x249c	int3   	
  0x249d	int3   	
  === BLOCK LINK ===
    0x249e
=== CODE BLOCK END ===

=== CODE BLOCK ADDRESS 0x249e ===
  0x249e	int3   	
  0x249f	int3   	
  0x24a0	xor    	eax, eax
  0x24a2	ret    	
  0x24a3	int3   	
  === BLOCK LINK ===
    0x24a4
=== CODE BLOCK END ===

=== CODE BLOCK ADDRESS 0x1148 ===
  0x1148	dec    	eax
  0x1149	mov    	eax, esp
  === BLOCK LINK ===
    0x114b
=== CODE BLOCK END ===

=== CODE BLOCK ADDRESS 0x24a4 ===
  0x24a4	int3   	
  0x24a5	int3   	
  0x24a6	int3   	
  0x24a7	int3   	
  0x24a8	int3   	
  === BLOCK LINK ===
    0x24a9
=== CODE BLOCK END ===

=== CODE BLOCK ADDRESS 0x24a9 ===
  0x24a9	int3   	
  0x24aa	int3   	
  0x24ab	int3   	
  0x24ac	int3   	
  0x24ad	int3   	
  === BLOCK LINK ===
    0x24ae
=== CODE BLOCK END ===

=== CODE BLOCK ADDRESS 0x24ae ===
  0x24ae	int3   	
  0x24af	int3   	
  0x24b0	dec    	esp
  0x24b1	arpl   	word ptr [ecx + 0x3c], ax
  0x24b4	inc    	ebp
  === BLOCK LINK ===
    0x24b5
=== CODE BLOCK END ===

=== CODE BLOCK ADDRESS 0x24b5 ===
  0x24b5	xor    	ecx, ecx
  0x24b7	dec    	esp
  0x24b8	add    	eax, ecx
  0x24ba	dec    	esp
  0x24bb	mov    	edx, edx
  === BLOCK LINK ===
    0x24bd
=== CODE BLOCK END ===

=== CODE BLOCK ADDRESS 0x24bd ===
  0x24bd	inc    	ecx
  0x24be	movzx  	eax, word ptr [eax + 0x14]
  0x24c2	inc    	ebp
  0x24c3	movzx  	ebx, word ptr [eax + 6]
  0x24c7	dec    	eax
  === BLOCK LINK ===
    0x24c8
=== CODE BLOCK END ===

=== CODE BLOCK ADDRESS 0x24c8 ===
  0x24c8	add    	eax, 0x18
  0x24cb	dec    	ecx
  0x24cc	add    	eax, eax
  0x24ce	inc    	ebp
  0x24cf	test   	ebx, ebx
  === BLOCK LINK ===
    0x24d1
=== CODE BLOCK END ===

=== CODE BLOCK ADDRESS 0x24d1 ===
  0x24d1	je     	0x24f1
  === BLOCK LINK ===
    0x24d3
=== CODE BLOCK END ===

=== CODE BLOCK ADDRESS 0x24d3 ===
  0x24d3	mov    	edx, dword ptr [eax + 0xc]
  0x24d6	dec    	esp
  0x24d7	cmp    	edx, edx
  0x24d9	jb     	0x24e5
  === BLOCK LINK ===
    0x24db
=== CODE BLOCK END ===

=== CODE BLOCK ADDRESS 0x24db ===
  0x24db	mov    	ecx, dword ptr [eax + 8]
  0x24de	add    	ecx, edx
  0x24e0	dec    	esp
  0x24e1	cmp    	edx, ecx
  0x24e3	jb     	0x24f3
  === BLOCK LINK ===
    0x24e5
=== CODE BLOCK END ===

=== CODE BLOCK ADDRESS 0x24e5 ===
  0x24e5	inc    	ecx
  0x24e6	inc    	ecx
  0x24e8	dec    	eax
  0x24e9	add    	eax, 0x28
  0x24ec	inc    	ebp
  === BLOCK LINK ===
    0x24ed
=== CODE BLOCK END ===

=== CODE BLOCK ADDRESS 0x24ed ===
  0x24ed	cmp    	ecx, ebx
  0x24ef	jb     	0x24d3
  === BLOCK LINK ===
    0x24f1
=== CODE BLOCK END ===

=== CODE BLOCK ADDRESS 0x24f1 ===
  0x24f1	xor    	eax, eax
  0x24f3	ret    	
  0x24f4	int3   	
  0x24f5	int3   	
  0x24f6	int3   	
  === BLOCK LINK ===
    0x24f7
=== CODE BLOCK END ===

=== CODE BLOCK ADDRESS 0x24f7 ===
  0x24f7	int3   	
  0x24f8	int3   	
  0x24f9	int3   	
  0x24fa	int3   	
  0x24fb	int3   	
  === BLOCK LINK ===
    0x24fc
=== CODE BLOCK END ===

=== CODE BLOCK ADDRESS 0x24fc ===
  0x24fc	int3   	
  0x24fd	int3   	
  0x24fe	int3   	
  0x24ff	int3   	
  0x2500	dec    	eax
  === BLOCK LINK ===
    0x2501
=== CODE BLOCK END ===

=== CODE BLOCK ADDRESS 0x2501 ===
  0x2501	mov    	dword ptr [esp + 8], ebx
  0x2505	push   	edi
  0x2506	dec    	eax
  0x2507	sub    	esp, 0x20
  0x250a	dec    	eax
  === BLOCK LINK ===
    0x250b
=== CODE BLOCK END ===

=== CODE BLOCK ADDRESS 0x250b ===
  0x250b	mov    	ebx, ecx
  0x250d	dec    	eax
  0x250e	lea    	edi, [0xffffdaec]
  0x2514	dec    	eax
  0x2515	mov    	ecx, edi
  === BLOCK LINK ===
    0x2517
=== CODE BLOCK END ===

=== CODE BLOCK ADDRESS 0x2517 ===
  0x2517	call   	0x2560
  === BLOCK LINK ===
    0x251c
=== CODE BLOCK END ===

=== CODE BLOCK ADDRESS 0x251c ===
  0x251c	test   	eax, eax
  0x251e	je     	0x2542
  === BLOCK LINK ===
    0x2520
=== CODE BLOCK END ===

=== CODE BLOCK ADDRESS 0x2520 ===
  0x2520	dec    	eax
  0x2521	sub    	ebx, edi
  0x2523	dec    	eax
  0x2524	mov    	edx, ebx
  0x2526	dec    	eax
  === BLOCK LINK ===
    0x2527
=== CODE BLOCK END ===

=== CODE BLOCK ADDRESS 0x2527 ===
  0x2527	mov    	ecx, edi
  0x2529	call   	0x24b0
  === BLOCK LINK ===
    0x252e
=== CODE BLOCK END ===

=== CODE BLOCK ADDRESS 0x252e ===
  0x252e	dec    	eax
  0x252f	test   	eax, eax
  0x2531	je     	0x2542
  === BLOCK LINK ===
    0x2533
=== CODE BLOCK END ===

=== CODE BLOCK ADDRESS 0x2533 ===
  0x2533	mov    	eax, dword ptr [eax + 0x24]
  0x2536	shr    	eax, 0x1f
  0x2539	not    	eax
  0x253b	and    	eax, 1
  0x253e	jmp    	0x2542
  === BLOCK LINK ===
    0x2540
=== CODE BLOCK END ===

=== CODE BLOCK ADDRESS 0x2540 ===
  0x2540	xor    	eax, eax
  0x2542	dec    	eax
  0x2543	mov    	ebx, dword ptr [esp + 0x30]
  0x2547	dec    	eax
  0x2548	add    	esp, 0x20
  === BLOCK LINK ===
    0x254b
=== CODE BLOCK END ===

=== CODE BLOCK ADDRESS 0x254b ===
  0x254b	pop    	edi
  0x254c	ret    	
  0x254d	int3   	
  0x254e	int3   	
  0x254f	int3   	
  === BLOCK LINK ===
    0x2550
=== CODE BLOCK END ===

=== CODE BLOCK ADDRESS 0x2550 ===
  0x2550	int3   	
  0x2551	int3   	
  0x2552	int3   	
  0x2553	int3   	
  0x2554	int3   	
  === BLOCK LINK ===
    0x2555
=== CODE BLOCK END ===

=== CODE BLOCK ADDRESS 0x2555 ===
  0x2555	int3   	
  0x2556	int3   	
  0x2557	int3   	
  0x2558	int3   	
  0x2559	int3   	
  === BLOCK LINK ===
    0x255a
=== CODE BLOCK END ===

=== CODE BLOCK ADDRESS 0x255a ===
  0x255a	int3   	
  0x255b	int3   	
  0x255c	int3   	
  0x255d	int3   	
  0x255e	int3   	
  === BLOCK LINK ===
    0x255f
=== CODE BLOCK END ===

=== CODE BLOCK ADDRESS 0x255f ===
  0x255f	int3   	
  0x2560	mov    	eax, 0x5a4d
  0x2565	cmp    	word ptr [ecx], ax
  0x2568	jne    	0x258a
  === BLOCK LINK ===
    0x256a
=== CODE BLOCK END ===

=== CODE BLOCK ADDRESS 0x256a ===
  0x256a	dec    	eax
  0x256b	arpl   	word ptr [ecx + 0x3c], ax
  0x256e	dec    	eax
  0x256f	add    	eax, ecx
  0x2571	cmp    	dword ptr [eax], 0x4550
  === BLOCK LINK ===
    0x2577
=== CODE BLOCK END ===

=== CODE BLOCK ADDRESS 0x2577 ===
  0x2577	jne    	0x258a
  === BLOCK LINK ===
    0x2579
=== CODE BLOCK END ===

=== CODE BLOCK ADDRESS 0x2579 ===
  0x2579	mov    	ecx, 0x20b
  0x257e	cmp    	word ptr [eax + 0x18], cx
  0x2582	jne    	0x258a
  === BLOCK LINK ===
    0x2584
=== CODE BLOCK END ===

=== CODE BLOCK ADDRESS 0x2584 ===
  0x2584	mov    	eax, 1
  0x2589	ret    	
  0x258a	xor    	eax, eax
  0x258c	ret    	
  0x258d	int3   	
  === BLOCK LINK ===
    0x258e
=== CODE BLOCK END ===

=== CODE BLOCK ADDRESS 0x258e ===
  0x258e	int3   	
  0x258f	int3   	
  0x2590	int3   	
  0x2591	int3   	
  0x2592	int3   	
  === BLOCK LINK ===
    0x2593
=== CODE BLOCK END ===

=== CODE BLOCK ADDRESS 0x2593 ===
  0x2593	int3   	
  0x2594	dec    	eax
  0x2595	mov    	dword ptr [esp + 0x20], ebx
  0x2599	push   	ebp
  0x259a	dec    	eax
  === BLOCK LINK ===
    0x259b
=== CODE BLOCK END ===

=== CODE BLOCK ADDRESS 0x259b ===
  0x259b	mov    	ebp, esp
  0x259d	dec    	eax
  0x259e	sub    	esp, 0x20
  0x25a1	dec    	eax
  0x25a2	and    	dword ptr [ebp + 0x18], 0
  === BLOCK LINK ===
    0x25a6
=== CODE BLOCK END ===

=== CODE BLOCK ADDRESS 0x25a6 ===
  0x25a6	dec    	eax
  0x25a7	mov    	ebx, 0x2ddfa232
  0x25ac	cdq    	
  0x25ad	sub    	eax, dword ptr [eax]
  0x25af	add    	byte ptr [eax - 0x75], cl
  === BLOCK LINK ===
    0x25b2
=== CODE BLOCK END ===

=== CODE BLOCK ADDRESS 0x25b2 ===
  0x25b2	add    	eax, 0x2a51
  0x25b7	dec    	eax
  0x25b8	cmp    	eax, ebx
  0x25ba	jne    	0x2653
  === BLOCK LINK ===
    0x25c0
=== CODE BLOCK END ===

=== CODE BLOCK ADDRESS 0x25c0 ===
  0x25c0	dec    	eax
  0x25c1	lea    	ecx, [ebp + 0x18]
  0x25c4	call   	dword ptr [0xce6]
  === BLOCK LINK ===
    0x25ca
=== CODE BLOCK END ===

=== CODE BLOCK ADDRESS 0x25ca ===
  0x25ca	dec    	eax
  0x25cb	mov    	eax, dword ptr [ebp + 0x18]
  0x25ce	dec    	eax
  0x25cf	mov    	dword ptr [ebp + 0x10], eax
  0x25d2	call   	dword ptr [0xc68]
  === BLOCK LINK ===
    0x25d8
=== CODE BLOCK END ===

=== CODE BLOCK ADDRESS 0x25d8 ===
  0x25d8	mov    	eax, eax
  0x25da	dec    	eax
  0x25db	xor    	dword ptr [ebp + 0x10], eax
  0x25de	call   	dword ptr [0xc6c]
  === BLOCK LINK ===
    0x25e4
=== CODE BLOCK END ===

=== CODE BLOCK ADDRESS 0x25e4 ===
  0x25e4	mov    	eax, eax
  0x25e6	dec    	eax
  0x25e7	xor    	dword ptr [ebp + 0x10], eax
  0x25ea	call   	dword ptr [0xcc8]
  === BLOCK LINK ===
    0x25f0
=== CODE BLOCK END ===

=== CODE BLOCK ADDRESS 0x25f0 ===
  0x25f0	mov    	eax, eax
  0x25f2	dec    	eax
  0x25f3	shl    	eax, 0x18
  0x25f6	dec    	eax
  0x25f7	xor    	dword ptr [ebp + 0x10], eax
  === BLOCK LINK ===
    0x25fa
=== CODE BLOCK END ===

=== CODE BLOCK ADDRESS 0x25fa ===
  0x25fa	call   	dword ptr [0xcb8]
  === BLOCK LINK ===
    0x2600
=== CODE BLOCK END ===

=== CODE BLOCK ADDRESS 0x2600 ===
  0x2600	mov    	eax, eax
  0x2602	dec    	eax
  0x2603	lea    	ecx, [ebp + 0x10]
  0x2606	dec    	eax
  0x2607	xor    	eax, dword ptr [ebp + 0x10]
  === BLOCK LINK ===
    0x260a
=== CODE BLOCK END ===

=== CODE BLOCK ADDRESS 0x260a ===
  0x260a	dec    	eax
  0x260b	xor    	eax, ecx
  0x260d	dec    	eax
  0x260e	lea    	ecx, [ebp + 0x20]
  0x2611	dec    	eax
  === BLOCK LINK ===
    0x2612
=== CODE BLOCK END ===

=== CODE BLOCK ADDRESS 0x2612 ===
  0x2612	mov    	dword ptr [ebp + 0x10], eax
  0x2615	call   	dword ptr [0xc45]
  === BLOCK LINK ===
    0x261b
=== CODE BLOCK END ===

=== CODE BLOCK ADDRESS 0x261b ===
  0x261b	mov    	eax, dword ptr [ebp + 0x20]
  0x261e	dec    	eax
  0x261f	mov    	ecx, 0xffffffff
  0x2624	.byte  	0xff
  0x2625	inc    	dword ptr [eax]
  === BLOCK LINK ===
    0x2627
=== CODE BLOCK END ===

=== CODE BLOCK ADDRESS 0x2627 ===
  0x2627	add    	byte ptr [eax - 0x3f], cl
  0x262a	loopne  	0x264c
  === BLOCK LINK ===
    0x262c
=== CODE BLOCK END ===

=== CODE BLOCK ADDRESS 0x262c ===
  0x262c	dec    	eax
  0x262d	xor    	eax, dword ptr [ebp + 0x20]
  0x2630	dec    	eax
  0x2631	xor    	eax, dword ptr [ebp + 0x10]
  0x2634	dec    	eax
  === BLOCK LINK ===
    0x2635
=== CODE BLOCK END ===

=== CODE BLOCK ADDRESS 0x2635 ===
  0x2635	and    	eax, ecx
  0x2637	dec    	eax
  0x2638	mov    	ecx, eax
  0x263a	dec    	eax
  0x263b	cmp    	eax, ebx
  === BLOCK LINK ===
    0x263d
=== CODE BLOCK END ===

=== CODE BLOCK ADDRESS 0x263d ===
  0x263d	jne    	0x264c
  === BLOCK LINK ===
    0x263f
=== CODE BLOCK END ===

=== CODE BLOCK ADDRESS 0x263f ===
  0x263f	dec    	eax
  0x2640	mov    	eax, 0x2ddfa233
  0x2645	cdq    	
  0x2646	sub    	eax, dword ptr [eax]
  0x2648	add    	byte ptr [eax - 0x75], cl
  === BLOCK LINK ===
    0x264b
=== CODE BLOCK END ===

=== CODE BLOCK ADDRESS 0x264b ===
  0x264b	enter  	-0x76b8, 0xd
  0x264f	mov    	ch, 0x29
  0x2651	add    	byte ptr [eax], al
  0x2653	dec    	eax
  0x2654	mov    	ebx, dword ptr [esp + 0x48]
  === BLOCK LINK ===
    0x2658
=== CODE BLOCK END ===

=== CODE BLOCK ADDRESS 0x2658 ===
  0x2658	dec    	eax
  0x2659	not    	eax
  0x265b	dec    	eax
  0x265c	mov    	dword ptr [0x29ae], eax
  0x2662	dec    	eax
  === BLOCK LINK ===
    0x2663
=== CODE BLOCK END ===

=== CODE BLOCK ADDRESS 0x2663 ===
  0x2663	add    	esp, 0x20
  0x2666	pop    	ebp
  0x2667	ret    	
  0x2668	int3   	
  0x2669	int3   	
  === BLOCK LINK ===
    0x266a
=== CODE BLOCK END ===

=== CODE BLOCK ADDRESS 0x266a ===
  0x266a	int3   	
  0x266b	int3   	
  0x266c	int3   	
  0x266d	int3   	
  0x266e	jmp    	dword ptr [0xce4]
  === BLOCK LINK ===
    0x2674
=== CODE BLOCK END ===

=== CODE BLOCK ADDRESS 0x2674 ===
  0x2674	int3   	
  0x2675	int3   	
  0x2676	int3   	
  0x2677	int3   	
  0x2678	int3   	
  === BLOCK LINK ===
    0x2679
=== CODE BLOCK END ===

=== CODE BLOCK ADDRESS 0x2679 ===
  0x2679	int3   	
  0x267a	jmp    	dword ptr [0xcd0]
  === BLOCK LINK ===
    0x2680
=== CODE BLOCK END ===

=== CODE BLOCK ADDRESS 0x2680 ===
  0x2680	int3   	
  0x2681	int3   	
  0x2682	int3   	
  0x2683	int3   	
  0x2684	int3   	
  === BLOCK LINK ===
    0x2685
=== CODE BLOCK END ===

=== CODE BLOCK ADDRESS 0x2685 ===
  0x2685	int3   	
  0x2686	int3   	
  0x2687	int3   	
  0x2688	int3   	
  0x2689	int3   	
  === BLOCK LINK ===
    0x268a
=== CODE BLOCK END ===

=== CODE BLOCK ADDRESS 0x268a ===
  0x268a	int3   	
  0x268b	int3   	
  0x268c	int3   	
  0x268d	int3   	
  0x268e	int3   	
  === BLOCK LINK ===
    0x268f
=== CODE BLOCK END ===

=== CODE BLOCK ADDRESS 0x268f ===
  0x268f	int3   	
  0x2690	ret    	0
  0x2693	int3   	
  0x2694	int3   	
  0x2695	int3   	
  === BLOCK LINK ===
    0x2696
=== CODE BLOCK END ===

=== CODE BLOCK ADDRESS 0x2696 ===
  0x2696	int3   	
  0x2697	int3   	
  0x2698	int3   	
  0x2699	int3   	
  0x269a	int3   	
  === BLOCK LINK ===
    0x269b
=== CODE BLOCK END ===

=== CODE BLOCK ADDRESS 0x269b ===
  0x269b	int3   	
  0x269c	int3   	
  0x269d	int3   	
  0x269e	int3   	
  0x269f	int3   	
  === BLOCK LINK ===
    0x26a0
=== CODE BLOCK END ===

=== CODE BLOCK ADDRESS 0x26a0 ===
  0x26a0	int3   	
  0x26a1	int3   	
  0x26a2	int3   	
  0x26a3	int3   	
  0x26a4	int3   	
  === BLOCK LINK ===
    0x26a5
=== CODE BLOCK END ===

=== CODE BLOCK ADDRESS 0x26a5 ===
  0x26a5	int3   	
  0x26a6	int3   	
  0x26a7	int3   	
  0x26a8	inc    	eax
  0x26a9	push   	ebx
  === BLOCK LINK ===
    0x26aa
=== CODE BLOCK END ===

=== CODE BLOCK ADDRESS 0x26aa ===
  0x26aa	dec    	eax
  0x26ab	sub    	esp, 0x20
  0x26ae	mov    	ebx, ecx
  0x26b0	call   	0x26cc
  === BLOCK LINK ===
    0x26b5
=== CODE BLOCK END ===

=== CODE BLOCK ADDRESS 0x26b5 ===
  0x26b5	dec    	eax
  0x26b6	lea    	edx, [ebx + ebx*2]
  0x26b9	dec    	eax
  0x26ba	shl    	edx, 4
  0x26bd	dec    	eax
  === BLOCK LINK ===
    0x26be
=== CODE BLOCK END ===

=== CODE BLOCK ADDRESS 0x26be ===
  0x26be	add    	eax, edx
  0x26c0	dec    	eax
  0x26c1	add    	esp, 0x20
  0x26c4	pop    	ebx
  0x26c5	ret    	
  === BLOCK LINK ===
    0x26c6
=== CODE BLOCK END ===

=== CODE BLOCK ADDRESS 0x11d1 ===
=== CODE BLOCK END ===

=== CODE BLOCK ADDRESS 0x26c6 ===
  0x26c6	int3   	
  0x26c7	int3   	
  0x26c8	int3   	
  0x26c9	int3   	
  0x26ca	int3   	
  === BLOCK LINK ===
    0x26cb
=== CODE BLOCK END ===

=== CODE BLOCK ADDRESS 0x26cb ===
  0x26cb	int3   	
  0x26cc	jmp    	dword ptr [0xbf6]
  === BLOCK LINK ===
    0x26d2
=== CODE BLOCK END ===

=== CODE BLOCK ADDRESS 0x26d2 ===
  0x26d2	int3   	
  0x26d3	int3   	
  0x26d4	int3   	
  0x26d5	int3   	
  0x26d6	int3   	
  === BLOCK LINK ===
    0x26d7
=== CODE BLOCK END ===

=== CODE BLOCK ADDRESS 0x26d7 ===
  0x26d7	int3   	
  0x26d8	dec    	eax
  0x26d9	sub    	esp, 0x28
  0x26dc	dec    	ebp
  0x26dd	mov    	eax, dword ptr [ecx + 0x38]
  === BLOCK LINK ===
    0x26e0
=== CODE BLOCK END ===

=== CODE BLOCK ADDRESS 0x26e0 ===
  0x26e0	dec    	eax
  0x26e1	mov    	ecx, edx
  0x26e3	dec    	ecx
  0x26e4	mov    	edx, ecx
  0x26e6	call   	0x26fc
  === BLOCK LINK ===
    0x26eb
=== CODE BLOCK END ===

=== CODE BLOCK ADDRESS 0x26eb ===
  0x26eb	mov    	eax, 1
  0x26f0	dec    	eax
  0x26f1	add    	esp, 0x28
  0x26f4	ret    	
  0x26f5	int3   	
  === BLOCK LINK ===
    0x26f6
=== CODE BLOCK END ===

=== CODE BLOCK ADDRESS 0x26f6 ===
  0x26f6	int3   	
  0x26f7	int3   	
  0x26f8	int3   	
  0x26f9	int3   	
  0x26fa	int3   	
  === BLOCK LINK ===
    0x26fb
=== CODE BLOCK END ===

=== CODE BLOCK ADDRESS 0x26fb ===
  0x26fb	int3   	
  0x26fc	inc    	eax
  0x26fd	push   	ebx
  0x26fe	inc    	ebp
  0x26ff	mov    	ebx, dword ptr [eax]
  === BLOCK LINK ===
    0x2701
=== CODE BLOCK END ===

=== CODE BLOCK ADDRESS 0x2701 ===
  0x2701	dec    	eax
  0x2702	mov    	ebx, edx
  0x2704	inc    	ecx
  0x2705	and    	ebx, 0xfffffff8
  0x2708	dec    	esp
  === BLOCK LINK ===
    0x2709
=== CODE BLOCK END ===

=== CODE BLOCK ADDRESS 0x2709 ===
  0x2709	mov    	ecx, ecx
  0x270b	inc    	ecx
  0x270c	test   	byte ptr [eax], 4
  0x270f	dec    	esp
  0x2710	mov    	edx, ecx
  === BLOCK LINK ===
    0x2712
=== CODE BLOCK END ===

=== CODE BLOCK ADDRESS 0x2712 ===
  0x2712	je     	0x2727
  === BLOCK LINK ===
    0x2714
=== CODE BLOCK END ===

=== CODE BLOCK ADDRESS 0x2714 ===
  0x2714	inc    	ecx
  0x2715	mov    	eax, dword ptr [eax + 8]
  0x2718	dec    	ebp
  0x2719	arpl   	word ptr [eax + 4], dx
  0x271c	neg    	eax
  === BLOCK LINK ===
    0x271e
=== CODE BLOCK END ===

=== CODE BLOCK ADDRESS 0x271e ===
  0x271e	dec    	esp
  0x271f	add    	edx, ecx
  0x2721	dec    	eax
  0x2722	arpl   	ax, cx
  0x2724	dec    	esp
  === BLOCK LINK ===
    0x2725
=== CODE BLOCK END ===

=== CODE BLOCK ADDRESS 0x2725 ===
  0x2725	and    	edx, ecx
  0x2727	dec    	ecx
  0x2728	arpl   	bx, ax
  0x272a	dec    	edx
  0x272b	mov    	edx, dword ptr [eax + edx]
  === BLOCK LINK ===
    0x272e
=== CODE BLOCK END ===

=== CODE BLOCK ADDRESS 0x272e ===
  0x272e	dec    	eax
  0x272f	mov    	eax, dword ptr [ebx + 0x10]
  0x2732	mov    	ecx, dword ptr [eax + 8]
  0x2735	dec    	eax
  0x2736	mov    	eax, dword ptr [ebx + 8]
  === BLOCK LINK ===
    0x2739
=== CODE BLOCK END ===

=== CODE BLOCK ADDRESS 0x2739 ===
  0x2739	test   	byte ptr [ecx + eax + 3], 0xf
  0x273e	je     	0x274b
  === BLOCK LINK ===
    0x2740
=== CODE BLOCK END ===

=== CODE BLOCK ADDRESS 0x2740 ===
  0x2740	movzx  	eax, byte ptr [ecx + eax + 3]
  0x2745	and    	eax, 0xfffffff0
  0x2748	dec    	esp
  0x2749	add    	ecx, eax
  0x274b	dec    	esp
  === BLOCK LINK ===
    0x274c
=== CODE BLOCK END ===

=== CODE BLOCK ADDRESS 0x274c ===
  0x274c	xor    	ecx, edx
  0x274e	dec    	ecx
  0x274f	mov    	ecx, ecx
  0x2751	pop    	ebx
  0x2752	jmp    	0x20a0
  === BLOCK LINK ===
    0x2757
=== CODE BLOCK END ===

=== CODE BLOCK ADDRESS 0x2757 ===
  0x2757	int3   	
  0x2758	int3   	
  0x2759	int3   	
  0x275a	int3   	
  0x275b	int3   	
  === BLOCK LINK ===
    0x275c
=== CODE BLOCK END ===

=== CODE BLOCK ADDRESS 0x275c ===
  0x275c	int3   	
  0x275d	int3   	
  0x275e	int3   	
  0x275f	int3   	
  0x2760	int3   	
  === BLOCK LINK ===
    0x2761
=== CODE BLOCK END ===

=== CODE BLOCK ADDRESS 0x2761 ===
  0x2761	int3   	
  0x2762	int3   	
  0x2763	int3   	
  0x2764	int3   	
  0x2765	int3   	
  === BLOCK LINK ===
    0x2766
=== CODE BLOCK END ===

=== CODE BLOCK ADDRESS 0x2766 ===
  0x2766	nop    	word ptr [eax + eax]
  0x2770	jmp    	eax
  === BLOCK LINK ===
    0x2772
=== CODE BLOCK END ===

=== CODE BLOCK ADDRESS 0x2772 ===
  0x2772	int3   	
  0x2773	int3   	
  0x2774	int3   	
  0x2775	int3   	
  0x2776	int3   	
  === BLOCK LINK ===
    0x2777
=== CODE BLOCK END ===

=== CODE BLOCK ADDRESS 0x2777 ===
  0x2777	int3   	
  0x2778	int3   	
  0x2779	int3   	
  0x277a	int3   	
  0x277b	int3   	
  === BLOCK LINK ===
    0x277c
=== CODE BLOCK END ===

=== CODE BLOCK ADDRESS 0x277c ===
  0x277c	int3   	
  0x277d	int3   	
  0x277e	int3   	
  0x277f	int3   	
  0x2780	inc    	eax
  === BLOCK LINK ===
    0x2781
=== CODE BLOCK END ===

=== CODE BLOCK ADDRESS 0x2781 ===
  0x2781	push   	ebp
  0x2782	dec    	eax
  0x2783	sub    	esp, 0x20
  0x2786	dec    	eax
  0x2787	mov    	ebp, edx
  === BLOCK LINK ===
    0x2789
=== CODE BLOCK END ===

=== CODE BLOCK ADDRESS 0x2789 ===
  0x2789	dec    	eax
  0x278a	mov    	eax, dword ptr [ecx]
  0x278c	dec    	eax
  0x278d	mov    	edx, ecx
  0x278f	mov    	ecx, dword ptr [eax]
  === BLOCK LINK ===
    0x2791
=== CODE BLOCK END ===

=== CODE BLOCK ADDRESS 0x2791 ===
  0x2791	call   	0x23de
  === BLOCK LINK ===
    0x2796
=== CODE BLOCK END ===

=== CODE BLOCK ADDRESS 0x2796 ===
  0x2796	nop    	
  0x2797	dec    	eax
  0x2798	add    	esp, 0x20
  0x279b	pop    	ebp
  0x279c	ret    	
  === BLOCK LINK ===
    0x279d
=== CODE BLOCK END ===

=== CODE BLOCK ADDRESS 0x1482 ===
  0x1482	dec    	eax
  0x1483	mov    	ecx, dword ptr [ebp + 0x570]
  === BLOCK LINK ===
    0x1489
=== CODE BLOCK END ===

=== CODE BLOCK ADDRESS 0x279d ===
  0x279d	int3   	
  0x279e	int3   	
  0x279f	int3   	
  0x27a0	int3   	
  0x27a1	int3   	
  === BLOCK LINK ===
    0x27a2
=== CODE BLOCK END ===

=== CODE BLOCK ADDRESS 0x27a2 ===
  0x27a2	int3   	
  0x27a3	int3   	
  0x27a4	int3   	
  0x27a5	int3   	
  0x27a6	int3   	
  === BLOCK LINK ===
    0x27a7
=== CODE BLOCK END ===

=== CODE BLOCK ADDRESS 0x27a7 ===
  0x27a7	int3   	
  0x27a8	int3   	
  0x27a9	int3   	
  0x27aa	int3   	
  0x27ab	int3   	
  === BLOCK LINK ===
    0x27ac
=== CODE BLOCK END ===

=== CODE BLOCK ADDRESS 0x27ac ===
  0x27ac	int3   	
  0x27ad	int3   	
  0x27ae	int3   	
  0x27af	int3   	
  0x27b0	inc    	eax
  === BLOCK LINK ===
    0x27b1
=== CODE BLOCK END ===

=== CODE BLOCK ADDRESS 0x27b1 ===
  0x27b1	push   	ebp
  0x27b2	dec    	eax
  0x27b3	sub    	esp, 0x20
  0x27b6	dec    	eax
  0x27b7	mov    	ebp, edx
  === BLOCK LINK ===
    0x27b9
=== CODE BLOCK END ===

=== CODE BLOCK ADDRESS 0x27b9 ===
  0x27b9	dec    	eax
  0x27ba	mov    	eax, dword ptr [ecx]
  0x27bc	xor    	ecx, ecx
  0x27be	cmp    	dword ptr [eax], 0xc0000005
  0x27c4	sete   	cl
  === BLOCK LINK ===
    0x27c7
=== CODE BLOCK END ===

=== CODE BLOCK ADDRESS 0x27c7 ===
  0x27c7	mov    	eax, ecx
  0x27c9	dec    	eax
  0x27ca	add    	esp, 0x20
  0x27cd	pop    	ebp
  0x27ce	ret    	
  === BLOCK LINK ===
    0x27cf
=== CODE BLOCK END ===

=== CODE BLOCK ADDRESS 0x27cf ===
  0x27cf	int3   	
  0x27d0	add    	byte ptr [eax], al
  0x27d2	add    	byte ptr [eax], al
  0x27d4	add    	byte ptr [eax], al
  0x27d6	add    	byte ptr [eax], al
  === BLOCK LINK ===
    0x27d8
=== CODE BLOCK END ===

=== CODE BLOCK ADDRESS 0x27d8 ===
  0x27d8	add    	byte ptr [eax], al
  0x27da	add    	byte ptr [eax], al
  0x27dc	add    	byte ptr [eax], al
  0x27de	add    	byte ptr [eax], al
  0x27e0	add    	byte ptr [eax], al
  === BLOCK LINK ===
    0x27e2
=== CODE BLOCK END ===

=== CODE BLOCK ADDRESS 0x27e2 ===
  0x27e2	add    	byte ptr [eax], al
  0x27e4	add    	byte ptr [eax], al
  0x27e6	add    	byte ptr [eax], al
  0x27e8	add    	byte ptr [eax], al
  0x27ea	add    	byte ptr [eax], al
  === BLOCK LINK ===
    0x27ec
=== CODE BLOCK END ===

=== CODE BLOCK ADDRESS 0x27ec ===
  0x27ec	add    	byte ptr [eax], al
  0x27ee	add    	byte ptr [eax], al
  0x27f0	add    	byte ptr [eax], al
  0x27f2	add    	byte ptr [eax], al
  0x27f4	add    	byte ptr [eax], al
  === BLOCK LINK ===
    0x27f6
=== CODE BLOCK END ===

=== CODE BLOCK ADDRESS 0x27f6 ===
  0x27f6	add    	byte ptr [eax], al
  0x27f8	add    	byte ptr [eax], al
  0x27fa	add    	byte ptr [eax], al
  0x27fc	add    	byte ptr [eax], al
=== CODE BLOCK END ===

=== DATA BLOCK ADDRESS 0x3000 ===
  0x3000	50 50 00 40 01 00 00 00 f0 50 00 40 01 00 00 00 	PP0@00000P0@0000
  0x3010	18 01 00 00 00 00 00 00 00 00 00 00 00 00 00 00 	0000000000000000
  0x3020	00 00 00 00 00 00 00 00 00 00 00 00 00 00 00 00 	0000000000000000
  0x3030	00 00 00 00 00 00 00 00 00 00 00 00 00 00 00 00 	0000000000000000
  0x3040	00 00 00 00 00 00 00 00 00 00 00 00 00 00 00 00 	0000000000000000
  0x3050	00 00 00 00 00 00 00 00 00 00 00 00 00 00 00 00 	0000000000000000
  0x3060	00 00 00 00 00 00 00 00 08 50 00 40 01 00 00 00 	000000000P0@0000
  0x3070	00 00 00 00 00 00 00 00 00 00 00 00 00 00 00 00 	0000000000000000
  0x3080	b8 33 00 40 01 00 00 00 c0 33 00 40 01 00 00 00 	030@0000030@0000
  0x3090	00 34 00 40 01 00 00 00 08 00 00 00 00 00 00 00 	040@000000000000
  0x30a0	00 75 01 00 00 00 00 00 00 00 00 00 00 00 00 00 	0u00000000000000
  0x30b0	00 00 00 00 00 00 00 00 00 00 00 00 00 00 00 00 	0000000000000000
  0x30c0	00 00 00 00 00 00 00 00 00 00 00 00 00 00 00 00 	0000000000000000
  0x30d0	00 00 00 00 00 00 00 00 00 00 00 00 00 00 00 00 	0000000000000000
  0x30e0	00 00 00 00 00 00 00 00 00 00 00 00 00 00 00 00 	0000000000000000
  0x30f0	00 00 00 00 00 00 00 00 00 00 00 00 00 00 00 00 	0000000000000000
  0x3100	00 00 00 00 00 00 00 00 00 00 00 00 00 00 00 00 	0000000000000000
  0x3110	00 00 00 00 00 00 00 00 00 00 00 00 00 00 00 00 	0000000000000000
  0x3120	00 00 00 00 00 00 00 00 b2 41 00 00 00 00 00 00 	000000000A000000
  0x3130	00 00 00 00 00 00 00 00 e4 3d 00 00 00 00 00 00 	000000000=000000
  0x3140	04 00 00 00 00 00 00 80 10 00 00 00 00 00 00 80 	0000000000000000
  0x3150	17 00 00 00 00 00 00 80 70 00 00 00 00 00 00 80 	00000000p0000000
  0x3160	13 00 00 00 00 00 00 80 1a 3e 00 00 00 00 00 00 	000000000>000000
  0x3170	03 00 00 00 00 00 00 80 73 00 00 00 00 00 00 80 	00000000s0000000
  0x3180	f4 3d 00 00 00 00 00 00 6f 00 00 00 00 00 00 80 	0=000000o0000000
  0x3190	00 00 00 00 00 00 00 00 7e 41 00 00 00 00 00 00 	00000000~A000000
  0x31a0	00 00 00 00 00 00 00 00 90 3e 00 00 00 00 00 00 	000000000>000000
  0x31b0	a2 41 00 00 00 00 00 00 74 3e 00 00 00 00 00 00 	0A000000t>000000
  0x31c0	00 00 00 00 00 00 00 00 ee 41 00 00 00 00 00 00 	000000000A000000
  0x31d0	00 00 00 00 00 00 00 00 04 3e 00 00 00 00 00 00 	000000000>000000
  0x31e0	00 00 00 00 00 00 00 00 cc 41 00 00 00 00 00 00 	000000000A000000
  0x31f0	70 41 00 00 00 00 00 00 00 00 00 00 00 00 00 00 	pA00000000000000
  0x3200	d6 3e 00 00 00 00 00 00 00 00 00 00 00 00 00 00 	0>00000000000000
  0x3210	ce 3d 00 00 00 00 00 00 90 41 00 00 00 00 00 00 	0=0000000A000000
  0x3220	00 00 00 00 00 00 00 00 56 41 00 00 00 00 00 00 	00000000VA000000
  0x3230	00 00 00 00 00 00 00 00 c2 3e 00 00 00 00 00 00 	000000000>000000
  0x3240	04 3f 00 00 00 00 00 00 ae 3e 00 00 00 00 00 00 	0?0000000>000000
  0x3250	1a 3f 00 00 00 00 00 00 00 00 00 00 00 00 00 00 	0?00000000000000
  0x3260	ea 3e 00 00 00 00 00 00 00 00 00 00 00 00 00 00 	0>00000000000000
  0x3270	46 3e 00 00 00 00 00 00 32 3e 00 00 00 00 00 00 	F>0000002>000000
  0x3280	60 3e 00 00 00 00 00 00 00 00 00 00 00 00 00 00 	`>00000000000000
  0x3290	d8 41 00 00 00 00 00 00 00 00 00 00 00 00 00 00 	0A00000000000000
  0x32a0	2a 3e 00 00 00 00 00 00 00 00 00 00 00 00 00 00 	*>00000000000000
  0x32b0	30 3f 00 00 00 00 00 00 4a 3f 00 00 00 00 00 00 	0?000000J?000000
  0x32c0	00 00 00 00 00 00 00 00 bc 40 00 00 00 00 00 00 	000000000@000000
  0x32d0	ca 40 00 00 00 00 00 00 dc 40 00 00 00 00 00 00 	0@0000000@000000
  0x32e0	e8 40 00 00 00 00 00 00 f6 40 00 00 00 00 00 00 	0@0000000@000000
  0x32f0	02 41 00 00 00 00 00 00 0c 41 00 00 00 00 00 00 	0A0000000A000000
  0x3300	16 41 00 00 00 00 00 00 24 41 00 00 00 00 00 00 	0A000000$A000000
  0x3310	2e 41 00 00 00 00 00 00 38 41 00 00 00 00 00 00 	.A0000008A000000
  0x3320	44 41 00 00 00 00 00 00 4c 41 00 00 00 00 00 00 	DA000000LA000000
  0x3330	e8 3c 00 00 00 00 00 00 ba 3d 00 00 00 00 00 00 	0<0000000=000000
  0x3340	a2 3d 00 00 00 00 00 00 98 3d 00 00 00 00 00 00 	0=0000000=000000
  0x3350	80 3d 00 00 00 00 00 00 74 3d 00 00 00 00 00 00 	0=000000t=000000
  0x3360	60 3d 00 00 00 00 00 00 56 3d 00 00 00 00 00 00 	`=000000V=000000
  0x3370	4e 3d 00 00 00 00 00 00 46 3d 00 00 00 00 00 00 	N=000000F=000000
  0x3380	34 3d 00 00 00 00 00 00 22 3d 00 00 00 00 00 00 	4=000000"=000000
  0x3390	14 3d 00 00 00 00 00 00 06 3d 00 00 00 00 00 00 	0=0000000=000000
  0x33a0	fc 3c 00 00 00 00 00 00 f2 3c 00 00 00 00 00 00 	0<0000000<000000
  0x33b0	00 00 00 00 00 00 00 00 90 26 00 40 01 00 00 00 	000000000&0@0000
  0x33c0	70 27 00 40 01 00 00 00 00 00 00 00 00 00 00 00 	p'0@000000000000
  0x33d0	50 1e 00 40 01 00 00 00 00 00 00 00 00 00 00 00 	P00@000000000000
  0x33e0	00 00 00 00 00 00 00 00 70 1d 00 40 01 00 00 00 	00000000p00@0000
  0x33f0	c0 23 00 40 01 00 00 00 00 00 00 00 00 00 00 00 	0#0@000000000000
  0x3400	70 1d 00 00 50 1e 00 00 70 20 00 00 00 21 00 00 	p000P000p 000!00
  0x3410	80 23 00 00 c0 23 00 00 a0 24 00 00 90 26 00 00 	0#000#000$000&00
  0x3420	66 00 69 00 6e 00 67 00 65 00 72 00 00 00 00 00 	f0i0n0g0e0r00000
  0x3430	2f 00 57 00 20 00 00 00 0d 00 0a 00 00 00 00 00 	/0W0 00000000000
  0x3440	25 00 68 00 73 00 00 00 0a 00 00 00 00 00 00 00 	%0h0s00000000000
  0x3450	4f 00 75 00 74 00 70 00 75 00 74 00 45 00 6e 00 	O0u0t0p0u0t0E0n0
  0x3460	63 00 6f 00 64 00 69 00 6e 00 67 00 00 00 00 00 	c0o0d0i0n0g00000
  0x3470	55 00 6e 00 69 00 63 00 6f 00 64 00 65 00 00 00 	U0n0i0c0o0d0e000
  0x3480	41 00 6e 00 73 00 69 00 00 00 00 00 00 00 00 00 	A0n0s0i000000000
  0x3490	55 00 54 00 46 00 38 00 00 00 00 00 00 00 00 00 	U0T0F08000000000
  0x34a0	55 00 54 00 46 00 2d 00 38 00 00 00 ff fe 00 00 	U0T0F0-080000000
  0x34b0	ef bb bf 00 00 00 00 00 25 00 6c 00 73 00 00 00 	00000000%0l0s000
  0x34c0	3e 00 20 00 25 00 6c 00 73 00 3a 00 00 00 00 00 	>0 0%0l0s0:00000
  0x34d0	00 00 00 00 78 61 bd 06 00 00 00 00 02 00 00 00 	0000xa0000000000
  0x34e0	23 00 00 00 24 35 00 00 24 21 00 00 00 00 00 00 	#000$500$!000000
  0x34f0	78 61 bd 06 00 00 00 00 0d 00 00 00 f0 01 00 00 	xa00000000000000
  0x3500	48 35 00 00 48 21 00 00 00 00 00 00 78 61 bd 06 	H500H!000000xa00
  0x3510	00 00 00 00 10 00 00 00 24 00 00 00 38 37 00 00 	00000000$0008700
  0x3520	38 23 00 00 52 53 44 53 2b 42 55 fc b2 17 9f a9 	8#00RSDS+BU00000
  0x3530	3f a6 8e c7 97 95 27 50 01 00 00 00 66 69 6e 67 	?00000'P0000fing
  0x3540	65 72 2e 70 64 62 00 00 47 43 54 4c 00 10 00 00 	er.pdb00GCTL0000
  0x3550	60 17 00 00 2e 74 65 78 74 24 6d 6e 00 00 00 00 	`000.text$mn0000
  0x3560	60 27 00 00 20 00 00 00 2e 74 65 78 74 24 6d 6e 	`'00 000.text$mn
  0x3570	24 30 30 00 80 27 00 00 50 00 00 00 2e 74 65 78 	$0000'00P000.tex
  0x3580	74 24 78 00 00 30 00 00 28 01 00 00 2e 72 64 61 	t$x00000(000.rda
  0x3590	74 61 24 62 72 63 00 00 28 31 00 00 90 02 00 00 	ta$brc00(1000000
  0x35a0	2e 69 64 61 74 61 24 35 00 00 00 00 b8 33 00 00 	.idata$500000300
  0x35b0	10 00 00 00 2e 30 30 63 66 67 00 00 c8 33 00 00 	0000.00cfg000300
  0x35c0	08 00 00 00 2e 43 52 54 24 58 43 41 00 00 00 00 	0000.CRT$XCA0000
  0x35d0	d0 33 00 00 08 00 00 00 2e 43 52 54 24 58 43 41 	03000000.CRT$XCA
  0x35e0	41 00 00 00 d8 33 00 00 08 00 00 00 2e 43 52 54 	A00003000000.CRT
  0x35f0	24 58 43 5a 00 00 00 00 e0 33 00 00 08 00 00 00 	$XCZ000003000000
  0x3600	2e 43 52 54 24 58 49 41 00 00 00 00 e8 33 00 00 	.CRT$XIA00000300
  0x3610	08 00 00 00 2e 43 52 54 24 58 49 41 41 00 00 00 	0000.CRT$XIAA000
  0x3620	f0 33 00 00 08 00 00 00 2e 43 52 54 24 58 49 59 	03000000.CRT$XIY
  0x3630	00 00 00 00 f8 33 00 00 08 00 00 00 2e 43 52 54 	000003000000.CRT
  0x3640	24 58 49 5a 00 00 00 00 00 34 00 00 20 00 00 00 	$XIZ00000400 000
  0x3650	2e 67 66 69 64 73 00 00 20 34 00 00 04 01 00 00 	.gfids00 4000000
  0x3660	2e 72 64 61 74 61 00 00 24 35 00 00 3c 02 00 00 	.rdata00$500<000
  0x3670	2e 72 64 61 74 61 24 7a 7a 7a 64 62 67 00 00 00 	.rdata$zzzdbg000
  0x3680	60 37 00 00 8c 01 00 00 2e 78 64 61 74 61 00 00 	`7000000.xdata00
  0x3690	ec 38 00 00 54 01 00 00 2e 69 64 61 74 61 24 32 	0800T000.idata$2
  0x36a0	00 00 00 00 40 3a 00 00 18 00 00 00 2e 69 64 61 	0000@:000000.ida
  0x36b0	74 61 24 33 00 00 00 00 58 3a 00 00 90 02 00 00 	ta$30000X:000000
  0x36c0	2e 69 64 61 74 61 24 34 00 00 00 00 e8 3c 00 00 	.idata$400000<00
  0x36d0	d4 05 00 00 2e 69 64 61 74 61 24 36 00 00 00 00 	0000.idata$60000
  0x36e0	00 50 00 00 20 00 00 00 2e 64 61 74 61 00 00 00 	0P00 000.data000
  0x36f0	20 50 00 00 18 08 00 00 2e 62 73 73 00 00 00 00 	 P000000.bss0000
  0x3700	00 60 00 00 68 01 00 00 2e 70 64 61 74 61 00 00 	0`00h000.pdata00
  0x3710	00 70 00 00 f0 00 00 00 2e 72 73 72 63 24 30 31 	0p000000.rsrc$01
  0x3720	00 00 00 00 f0 70 00 00 40 07 00 00 2e 72 73 72 	00000p00@000.rsr
  0x3730	63 24 30 32 00 00 00 00 20 00 00 00 2b 42 55 fc 	c$020000 000+BU0
  0x3740	b2 17 9f a9 3f a6 8e c7 97 95 27 50 aa 6d b9 e6 	0000?00000'P0m00
  0x3750	db 8e b7 91 37 fc 09 c0 78 61 bd 06 00 00 00 00 	00007000xa000000
  0x3760	01 0f 06 00 0f 64 08 00 0f 34 06 00 0f 32 0b 70 	00000d000400020p
  0x3770	19 37 0d 00 26 74 d9 00 26 64 d8 00 26 34 d7 00 	0700&t00&d00&400
  0x3780	26 01 d0 00 18 f0 16 e0 14 d0 12 c0 10 50 00 00 	&000000000000P00
  0x3790	d8 26 00 00 70 06 00 00 01 14 08 00 14 64 09 00 	0&00p00000000d00
  0x37a0	14 54 07 00 14 34 06 00 14 32 10 70 01 0a 04 00 	0T000400020p0000
  0x37b0	0a 34 08 00 0a 32 06 70 19 1b 03 00 09 01 1c 00 	0400020p00000000
  0x37c0	02 30 00 00 d8 26 00 00 d0 00 00 00 19 2b 0b 00 	00000&0000000+00
  0x37d0	19 54 29 00 19 34 28 00 19 01 20 00 12 f0 10 e0 	0T)004(000 00000
  0x37e0	0e c0 0c 70 0b 60 00 00 d8 26 00 00 f0 00 00 00 	000p0`000&000000
  0x37f0	01 19 06 00 19 32 15 e0 13 70 12 60 11 50 10 30 	000002000p0`0P00
  0x3800	01 14 02 00 14 92 10 30 01 06 02 00 06 72 02 30 	0000000000000r00
  0x3810	01 19 0a 00 19 74 0d 00 19 64 0c 00 19 54 0b 00 	00000t000d000T00
  0x3820	19 34 0a 00 19 72 15 e0 01 04 01 00 04 42 00 00 	04000r0000000B00
  0x3830	01 04 01 00 04 62 00 00 09 15 08 00 15 74 0a 00 	00000b0000000t00
  0x3840	15 64 09 00 15 34 08 00 15 52 11 f0 7a 26 00 00 	0d0004000R00z&00
  0x3850	01 00 00 00 b5 1e 00 00 1b 20 00 00 80 27 00 00 	000000000 000'00
  0x3860	1b 20 00 00 01 06 02 00 06 32 02 50 00 00 00 00 	0 000000020P0000
  0x3870	01 00 00 00 01 04 01 00 04 e2 00 00 01 06 02 00 	0000000000000000
  0x3880	06 32 02 30 01 0c 02 00 0c 01 11 00 09 04 01 00 	0200000000000000
  0x3890	04 22 00 00 7a 26 00 00 01 00 00 00 fc 23 00 00 	0"00z&0000000#00
  0x38a0	32 24 00 00 01 00 00 00 32 24 00 00 09 0a 04 00 	2$0000002$000000
  0x38b0	0a 34 06 00 0a 32 06 70 7a 26 00 00 01 00 00 00 	0400020pz&000000
  0x38c0	0d 25 00 00 40 25 00 00 b0 27 00 00 40 25 00 00 	0%00@%000'00@%00
  0x38d0	01 0d 04 00 0d 34 09 00 0d 32 06 50 00 00 00 00 	00000400020P0000
  0x38e0	01 00 00 00 01 02 01 00 02 30 00 00 f8 3b 00 00 	0000000000000;00
  0x38f0	00 00 00 00 00 00 00 00 ae 3d 00 00 c8 32 00 00 	000000000=000200
  0x3900	68 3a 00 00 00 00 00 00 00 00 00 00 5a 3f 00 00 	h:0000000000Z?00
  0x3910	38 31 00 00 40 3b 00 00 00 00 00 00 00 00 00 00 	8100@;0000000000
  0x3920	66 3f 00 00 10 32 00 00 08 3b 00 00 00 00 00 00 	f?0002000;000000
  0x3930	00 00 00 00 8e 3f 00 00 d8 31 00 00 d0 3b 00 00 	00000?0001000;00
  0x3940	00 00 00 00 00 00 00 00 ae 3f 00 00 a0 32 00 00 	000000000?000200
  0x3950	a0 3b 00 00 00 00 00 00 00 00 00 00 d0 3f 00 00 	0;00000000000?00
  0x3960	70 32 00 00 d8 3a 00 00 00 00 00 00 00 00 00 00 	p2000:0000000000
  0x3970	f6 3f 00 00 a8 31 00 00 68 3b 00 00 00 00 00 00 	0?000100h;000000
  0x3980	00 00 00 00 20 40 00 00 38 32 00 00 30 3b 00 00 	0000 @0082000;00
  0x3990	00 00 00 00 00 00 00 00 4a 40 00 00 00 32 00 00 	00000000J@000200
  0x39a0	90 3b 00 00 00 00 00 00 00 00 00 00 74 40 00 00 	0;0000000000t@00
  0x39b0	60 32 00 00 e0 3b 00 00 00 00 00 00 00 00 00 00 	`2000;0000000000
  0x39c0	98 40 00 00 b0 32 00 00 58 3b 00 00 00 00 00 00 	0@000200X;000000
  0x39d0	00 00 00 00 fc 41 00 00 28 32 00 00 18 3b 00 00 	00000A00(2000;00
  0x39e0	00 00 00 00 00 00 00 00 2a 42 00 00 e8 31 00 00 	00000000*B000100
  0x39f0	c8 3a 00 00 00 00 00 00 00 00 00 00 4a 42 00 00 	0:0000000000JB00
  0x3a00	98 31 00 00 58 3a 00 00 00 00 00 00 00 00 00 00 	0100X:0000000000
  0x3a10	6e 42 00 00 28 31 00 00 c0 3b 00 00 00 00 00 00 	nB00(1000;000000
  0x3a20	00 00 00 00 7a 42 00 00 90 32 00 00 f8 3a 00 00 	0000zB0002000:00
  0x3a30	00 00 00 00 00 00 00 00 9c 42 00 00 c8 31 00 00 	000000000B000100
  0x3a40	00 00 00 00 00 00 00 00 00 00 00 00 00 00 00 00 	0000000000000000
  0x3a50	00 00 00 00 00 00 00 00 b2 41 00 00 00 00 00 00 	000000000A000000
  0x3a60	00 00 00 00 00 00 00 00 e4 3d 00 00 00 00 00 00 	000000000=000000
  0x3a70	04 00 00 00 00 00 00 80 10 00 00 00 00 00 00 80 	0000000000000000
  0x3a80	17 00 00 00 00 00 00 80 70 00 00 00 00 00 00 80 	00000000p0000000
  0x3a90	13 00 00 00 00 00 00 80 1a 3e 00 00 00 00 00 00 	000000000>000000
  0x3aa0	03 00 00 00 00 00 00 80 73 00 00 00 00 00 00 80 	00000000s0000000
  0x3ab0	f4 3d 00 00 00 00 00 00 6f 00 00 00 00 00 00 80 	0=000000o0000000
  0x3ac0	00 00 00 00 00 00 00 00 7e 41 00 00 00 00 00 00 	00000000~A000000
  0x3ad0	00 00 00 00 00 00 00 00 90 3e 00 00 00 00 00 00 	000000000>000000
  0x3ae0	a2 41 00 00 00 00 00 00 74 3e 00 00 00 00 00 00 	0A000000t>000000
  0x3af0	00 00 00 00 00 00 00 00 ee 41 00 00 00 00 00 00 	000000000A000000
  0x3b00	00 00 00 00 00 00 00 00 04 3e 00 00 00 00 00 00 	000000000>000000
  0x3b10	00 00 00 00 00 00 00 00 cc 41 00 00 00 00 00 00 	000000000A000000
  0x3b20	70 41 00 00 00 00 00 00 00 00 00 00 00 00 00 00 	pA00000000000000
  0x3b30	d6 3e 00 00 00 00 00 00 00 00 00 00 00 00 00 00 	0>00000000000000
  0x3b40	ce 3d 00 00 00 00 00 00 90 41 00 00 00 00 00 00 	0=0000000A000000
  0x3b50	00 00 00 00 00 00 00 00 56 41 00 00 00 00 00 00 	00000000VA000000
  0x3b60	00 00 00 00 00 00 00 00 c2 3e 00 00 00 00 00 00 	000000000>000000
  0x3b70	04 3f 00 00 00 00 00 00 ae 3e 00 00 00 00 00 00 	0?0000000>000000
  0x3b80	1a 3f 00 00 00 00 00 00 00 00 00 00 00 00 00 00 	0?00000000000000
  0x3b90	ea 3e 00 00 00 00 00 00 00 00 00 00 00 00 00 00 	0>00000000000000
  0x3ba0	46 3e 00 00 00 00 00 00 32 3e 00 00 00 00 00 00 	F>0000002>000000
  0x3bb0	60 3e 00 00 00 00 00 00 00 00 00 00 00 00 00 00 	`>00000000000000
  0x3bc0	d8 41 00 00 00 00 00 00 00 00 00 00 00 00 00 00 	0A00000000000000
  0x3bd0	2a 3e 00 00 00 00 00 00 00 00 00 00 00 00 00 00 	*>00000000000000
  0x3be0	30 3f 00 00 00 00 00 00 4a 3f 00 00 00 00 00 00 	0?000000J?000000
  0x3bf0	00 00 00 00 00 00 00 00 bc 40 00 00 00 00 00 00 	000000000@000000
  0x3c00	ca 40 00 00 00 00 00 00 dc 40 00 00 00 00 00 00 	0@0000000@000000
  0x3c10	e8 40 00 00 00 00 00 00 f6 40 00 00 00 00 00 00 	0@0000000@000000
  0x3c20	02 41 00 00 00 00 00 00 0c 41 00 00 00 00 00 00 	0A0000000A000000
  0x3c30	16 41 00 00 00 00 00 00 24 41 00 00 00 00 00 00 	0A000000$A000000
  0x3c40	2e 41 00 00 00 00 00 00 38 41 00 00 00 00 00 00 	.A0000008A000000
  0x3c50	44 41 00 00 00 00 00 00 4c 41 00 00 00 00 00 00 	DA000000LA000000
  0x3c60	e8 3c 00 00 00 00 00 00 ba 3d 00 00 00 00 00 00 	0<0000000=000000
  0x3c70	a2 3d 00 00 00 00 00 00 98 3d 00 00 00 00 00 00 	0=0000000=000000
  0x3c80	80 3d 00 00 00 00 00 00 74 3d 00 00 00 00 00 00 	0=000000t=000000
  0x3c90	60 3d 00 00 00 00 00 00 56 3d 00 00 00 00 00 00 	`=000000V=000000
  0x3ca0	4e 3d 00 00 00 00 00 00 46 3d 00 00 00 00 00 00 	N=000000F=000000
  0x3cb0	34 3d 00 00 00 00 00 00 22 3d 00 00 00 00 00 00 	4=000000"=000000
  0x3cc0	14 3d 00 00 00 00 00 00 06 3d 00 00 00 00 00 00 	0=0000000=000000
  0x3cd0	fc 3c 00 00 00 00 00 00 f2 3c 00 00 00 00 00 00 	0<0000000<000000
  0x3ce0	00 00 00 00 00 00 00 00 20 05 77 70 72 69 6e 74 	00000000 0wprint
  0x3cf0	66 00 39 04 66 66 6c 75 73 68 00 00 10 05 77 63 	f090fflush0000wc
  0x3d00	73 72 63 68 72 00 55 00 5f 58 63 70 74 46 69 6c 	srchr0U0_XcptFil
  0x3d10	74 65 72 00 ae 00 5f 61 6d 73 67 5f 65 78 69 74 	ter000_amsg_exit
  0x3d20	00 00 9d 00 5f 5f 77 67 65 74 6d 61 69 6e 61 72 	0000__wgetmainar
  0x3d30	67 73 00 00 8e 00 5f 5f 73 65 74 5f 61 70 70 5f 	gs0000__set_app_
  0x3d40	74 79 70 65 00 00 32 04 65 78 69 74 00 00 0e 01 	type0020exit0000
  0x3d50	5f 65 78 69 74 00 c1 00 5f 63 65 78 69 74 00 00 	_exit000_cexit00
  0x3d60	90 00 5f 5f 73 65 74 75 73 65 72 6d 61 74 68 65 	00__setusermathe
  0x3d70	72 72 00 00 7d 01 5f 69 6e 69 74 74 65 72 6d 00 	rr00}0_initterm0
  0x3d80	57 00 5f 5f 43 5f 73 70 65 63 69 66 69 63 5f 68 	W0__C_specific_h
  0x3d90	61 6e 64 6c 65 72 00 00 27 01 5f 66 6d 6f 64 65 	andler00'0_fmode
  0x3da0	00 00 d2 00 5f 63 6f 6d 6d 6f 64 65 00 00 6d 73 	0000_commode00ms
  0x3db0	76 63 72 74 2e 64 6c 6c 00 00 2f 00 3f 74 65 72 	vcrt.dll00/0?ter
  0x3dc0	6d 69 6e 61 74 65 40 40 59 41 58 58 5a 00 3f 00 	minate@@YAXXZ0?0
  0x3dd0	53 65 74 54 68 72 65 61 64 55 49 4c 61 6e 67 75 	SetThreadUILangu
  0x3de0	61 67 65 00 07 00 47 65 74 41 64 64 72 49 6e 66 	age000GetAddrInf
  0x3df0	6f 57 00 00 08 00 47 65 74 48 6f 73 74 4e 61 6d 	oW0000GetHostNam
  0x3e00	65 57 00 00 0a 00 48 65 61 70 53 65 74 49 6e 66 	eW0000HeapSetInf
  0x3e10	6f 72 6d 61 74 69 6f 6e 00 00 02 00 46 72 65 65 	ormation0000Free
  0x3e20	41 64 64 72 49 6e 66 6f 57 00 2d 00 53 6c 65 65 	AddrInfoW0-0Slee
  0x3e30	70 00 02 00 52 74 6c 43 61 70 74 75 72 65 43 6f 	p000RtlCaptureCo
  0x3e40	6e 74 65 78 74 00 0a 00 52 74 6c 4c 6f 6f 6b 75 	ntext000RtlLooku
  0x3e50	70 46 75 6e 63 74 69 6f 6e 45 6e 74 72 79 00 00 	pFunctionEntry00
  0x3e60	10 00 52 74 6c 56 69 72 74 75 61 6c 55 6e 77 69 	00RtlVirtualUnwi
  0x3e70	6e 64 00 00 11 00 55 6e 68 61 6e 64 6c 65 64 45 	nd0000UnhandledE
  0x3e80	78 63 65 70 74 69 6f 6e 46 69 6c 74 65 72 00 00 	xceptionFilter00
  0x3e90	0f 00 53 65 74 55 6e 68 61 6e 64 6c 65 64 45 78 	00SetUnhandledEx
  0x3ea0	63 65 70 74 69 6f 6e 46 69 6c 74 65 72 00 0c 00 	ceptionFilter000
  0x3eb0	47 65 74 43 75 72 72 65 6e 74 50 72 6f 63 65 73 	GetCurrentProces
  0x3ec0	73 00 4e 00 54 65 72 6d 69 6e 61 74 65 50 72 6f 	s0N0TerminatePro
  0x3ed0	63 65 73 73 00 00 14 00 47 65 74 4d 6f 64 75 6c 	cess0000GetModul
  0x3ee0	65 48 61 6e 64 6c 65 57 00 00 00 00 51 75 65 72 	eHandleW0000Quer
  0x3ef0	79 50 65 72 66 6f 72 6d 61 6e 63 65 43 6f 75 6e 	yPerformanceCoun
  0x3f00	74 65 72 00 0d 00 47 65 74 43 75 72 72 65 6e 74 	ter000GetCurrent
  0x3f10	50 72 6f 63 65 73 73 49 64 00 11 00 47 65 74 43 	ProcessId000GetC
  0x3f20	75 72 72 65 6e 74 54 68 72 65 61 64 49 64 00 00 	urrentThreadId00
  0x3f30	16 00 47 65 74 53 79 73 74 65 6d 54 69 6d 65 41 	00GetSystemTimeA
  0x3f40	73 46 69 6c 65 54 69 6d 65 00 1a 00 47 65 74 54 	sFileTime000GetT
  0x3f50	69 63 6b 43 6f 75 6e 74 00 00 57 53 32 5f 33 32 	ickCount00WS2_32
  0x3f60	2e 64 6c 6c 00 00 61 70 69 2d 6d 73 2d 77 69 6e 	.dll00api-ms-win
  0x3f70	2d 63 6f 72 65 2d 6c 6f 63 61 6c 69 7a 61 74 69 	-core-localizati
  0x3f80	6f 6e 2d 6c 31 2d 32 2d 30 2e 64 6c 6c 00 61 70 	on-l1-2-0.dll0ap
  0x3f90	69 2d 6d 73 2d 77 69 6e 2d 63 6f 72 65 2d 68 65 	i-ms-win-core-he
  0x3fa0	61 70 2d 6c 31 2d 31 2d 30 2e 64 6c 6c 00 61 70 	ap-l1-1-0.dll0ap
  0x3fb0	69 2d 6d 73 2d 77 69 6e 2d 63 6f 72 65 2d 73 79 	i-ms-win-core-sy
  0x3fc0	6e 63 68 2d 6c 31 2d 32 2d 30 2e 64 6c 6c 00 00 	nch-l1-2-0.dll00
  0x3fd0	61 70 69 2d 6d 73 2d 77 69 6e 2d 63 6f 72 65 2d 	api-ms-win-core-
  0x3fe0	72 74 6c 73 75 70 70 6f 72 74 2d 6c 31 2d 31 2d 	rtlsupport-l1-1-
  0x3ff0	30 2e 64 6c 6c 00 61 70 69 2d 6d 73 2d 77 69 6e 	0.dll0api-ms-win
  0x4000	2d 63 6f 72 65 2d 65 72 72 6f 72 68 61 6e 64 6c 	-core-errorhandl
  0x4010	69 6e 67 2d 6c 31 2d 31 2d 30 2e 64 6c 6c 00 00 	ing-l1-1-0.dll00
  0x4020	61 70 69 2d 6d 73 2d 77 69 6e 2d 63 6f 72 65 2d 	api-ms-win-core-
  0x4030	70 72 6f 63 65 73 73 74 68 72 65 61 64 73 2d 6c 	processthreads-l
  0x4040	31 2d 31 2d 30 2e 64 6c 6c 00 61 70 69 2d 6d 73 	1-1-0.dll0api-ms
  0x4050	2d 77 69 6e 2d 63 6f 72 65 2d 6c 69 62 72 61 72 	-win-core-librar
  0x4060	79 6c 6f 61 64 65 72 2d 6c 31 2d 32 2d 30 2e 64 	yloader-l1-2-0.d
  0x4070	6c 6c 00 00 61 70 69 2d 6d 73 2d 77 69 6e 2d 63 	ll00api-ms-win-c
  0x4080	6f 72 65 2d 70 72 6f 66 69 6c 65 2d 6c 31 2d 31 	ore-profile-l1-1
  0x4090	2d 30 2e 64 6c 6c 00 00 61 70 69 2d 6d 73 2d 77 	-0.dll00api-ms-w
  0x40a0	69 6e 2d 63 6f 72 65 2d 73 79 73 69 6e 66 6f 2d 	in-core-sysinfo-
  0x40b0	6c 31 2d 31 2d 30 2e 64 6c 6c 00 00 81 00 5f 5f 	l1-1-0.dll0000__
  0x40c0	69 6f 62 5f 66 75 6e 63 00 00 55 01 5f 67 65 74 	iob_func00U0_get
  0x40d0	5f 6f 73 66 68 61 6e 64 6c 65 00 00 8a 03 5f 77 	_osfhandle0000_w
  0x40e0	63 73 69 63 6d 70 00 00 fa 04 76 73 77 70 72 69 	csicmp0000vswpri
  0x40f0	6e 74 66 5f 73 00 c8 02 5f 73 65 74 6d 6f 64 65 	ntf_s000_setmode
  0x4100	00 00 e4 03 5f 77 72 69 74 65 00 00 1b 01 5f 66 	0000_write0000_f
  0x4110	69 6c 65 6e 6f 00 60 03 5f 76 73 63 77 70 72 69 	ileno0`0_vscwpri
  0x4120	6e 74 66 00 01 05 77 63 73 63 68 72 00 00 3b 04 	ntf000wcschr00;0
  0x4130	66 67 65 74 70 6f 73 00 55 04 66 77 70 72 69 6e 	fgetpos0U0fwprin
  0x4140	74 66 00 00 4c 04 66 72 65 65 00 00 86 04 6d 61 	tf00L0free0000ma
  0x4150	6c 6c 6f 63 00 00 0b 00 47 65 74 45 6e 76 69 72 	lloc0000GetEnvir
  0x4160	6f 6e 6d 65 6e 74 56 61 72 69 61 62 6c 65 57 00 	onmentVariableW0
  0x4170	08 00 4c 6f 63 61 6c 41 6c 6c 6f 63 00 00 06 00 	00LocalAlloc0000
  0x4180	47 65 74 43 6f 6e 73 6f 6c 65 4d 6f 64 65 00 00 	GetConsoleMode00
  0x4190	09 00 46 6f 72 6d 61 74 4d 65 73 73 61 67 65 57 	00FormatMessageW
  0x41a0	00 00 05 00 47 65 74 4c 61 73 74 45 72 72 6f 72 	0000GetLastError
  0x41b0	00 00 0a 00 47 65 74 53 6f 63 6b 65 74 45 72 72 	0000GetSocketErr
  0x41c0	6f 72 4d 65 73 73 61 67 65 57 00 00 0a 00 4c 6f 	orMessageW0000Lo
  0x41d0	63 61 6c 46 72 65 65 00 07 00 57 69 64 65 43 68 	calFree000WideCh
  0x41e0	61 72 54 6f 4d 75 6c 74 69 42 79 74 65 00 31 00 	arToMultiByte010
  0x41f0	47 65 74 46 69 6c 65 54 79 70 65 00 61 70 69 2d 	GetFileType0api-
  0x4200	6d 73 2d 77 69 6e 2d 63 6f 72 65 2d 70 72 6f 63 	ms-win-core-proc
  0x4210	65 73 73 65 6e 76 69 72 6f 6e 6d 65 6e 74 2d 6c 	essenvironment-l
  0x4220	31 2d 31 2d 30 2e 64 6c 6c 00 61 70 69 2d 6d 73 	1-1-0.dll0api-ms
  0x4230	2d 77 69 6e 2d 63 6f 72 65 2d 68 65 61 70 2d 6c 	-win-core-heap-l
  0x4240	32 2d 31 2d 30 2e 64 6c 6c 00 61 70 69 2d 6d 73 	2-1-0.dll0api-ms
  0x4250	2d 77 69 6e 2d 63 6f 72 65 2d 63 6f 6e 73 6f 6c 	-win-core-consol
  0x4260	65 2d 6c 31 2d 31 2d 30 2e 64 6c 6c 00 00 4d 53 	e-l1-1-0.dll00MS
  0x4270	57 53 4f 43 4b 2e 64 6c 6c 00 61 70 69 2d 6d 73 	WSOCK.dll0api-ms
  0x4280	2d 77 69 6e 2d 63 6f 72 65 2d 73 74 72 69 6e 67 	-win-core-string
  0x4290	2d 6c 31 2d 31 2d 30 2e 64 6c 6c 00 61 70 69 2d 	-l1-1-0.dll0api-
  0x42a0	6d 73 2d 77 69 6e 2d 63 6f 72 65 2d 66 69 6c 65 	ms-win-core-file
  0x42b0	2d 6c 31 2d 31 2d 30 2e 64 6c 6c 00 00 00 00 00 	-l1-1-0.dll00000
  0x42c0	00 00 00 00 00 00 00 00 00 00 00 00 00 00 00 00 	0000000000000000
  0x42d0	00 00 00 00 00 00 00 00 00 00 00 00 00 00 00 00 	0000000000000000
  0x42e0	00 00 00 00 00 00 00 00 00 00 00 00 00 00 00 00 	0000000000000000
  0x42f0	00 00 00 00 00 00 00 00 00 00 00 00 00 00 00 00 	0000000000000000
  0x4300	00 00 00 00 00 00 00 00 00 00 00 00 00 00 00 00 	0000000000000000
  0x4310	00 00 00 00 00 00 00 00 00 00 00 00 00 00 00 00 	0000000000000000
  0x4320	00 00 00 00 00 00 00 00 00 00 00 00 00 00 00 00 	0000000000000000
  0x4330	00 00 00 00 00 00 00 00 00 00 00 00 00 00 00 00 	0000000000000000
  0x4340	00 00 00 00 00 00 00 00 00 00 00 00 00 00 00 00 	0000000000000000
  0x4350	00 00 00 00 00 00 00 00 00 00 00 00 00 00 00 00 	0000000000000000
  0x4360	00 00 00 00 00 00 00 00 00 00 00 00 00 00 00 00 	0000000000000000
  0x4370	00 00 00 00 00 00 00 00 00 00 00 00 00 00 00 00 	0000000000000000
  0x4380	00 00 00 00 00 00 00 00 00 00 00 00 00 00 00 00 	0000000000000000
  0x4390	00 00 00 00 00 00 00 00 00 00 00 00 00 00 00 00 	0000000000000000
  0x43a0	00 00 00 00 00 00 00 00 00 00 00 00 00 00 00 00 	0000000000000000
  0x43b0	00 00 00 00 00 00 00 00 00 00 00 00 00 00 00 00 	0000000000000000
  0x43c0	00 00 00 00 00 00 00 00 00 00 00 00 00 00 00 00 	0000000000000000
  0x43d0	00 00 00 00 00 00 00 00 00 00 00 00 00 00 00 00 	0000000000000000
  0x43e0	00 00 00 00 00 00 00 00 00 00 00 00 00 00 00 00 	0000000000000000
  0x43f0	00 00 00 00 00 00 00 00 00 00 00 00 00 00 00 00 	0000000000000000
=== DATA BLOCK END ===

=== DATA BLOCK ADDRESS 0x5000 ===
  0x5000	01 00 00 00 00 00 00 00 32 a2 df 2d 99 2b 00 00 	00000000200-0+00
  0x5010	cd 5d 20 d2 66 d4 ff ff 00 00 00 00 00 00 00 00 	0] 0f00000000000
  0x5020	00 00 00 00 00 00 00 00 00 00 00 00 00 00 00 00 	0000000000000000
  0x5030	00 00 00 00 00 00 00 00 00 00 00 00 00 00 00 00 	0000000000000000
  0x5040	00 00 00 00 00 00 00 00 00 00 00 00 00 00 00 00 	0000000000000000
  0x5050	00 00 00 00 00 00 00 00 00 00 00 00 00 00 00 00 	0000000000000000
  0x5060	00 00 00 00 00 00 00 00 00 00 00 00 00 00 00 00 	0000000000000000
  0x5070	00 00 00 00 00 00 00 00 00 00 00 00 00 00 00 00 	0000000000000000
  0x5080	00 00 00 00 00 00 00 00 00 00 00 00 00 00 00 00 	0000000000000000
  0x5090	00 00 00 00 00 00 00 00 00 00 00 00 00 00 00 00 	0000000000000000
  0x50a0	00 00 00 00 00 00 00 00 00 00 00 00 00 00 00 00 	0000000000000000
  0x50b0	00 00 00 00 00 00 00 00 00 00 00 00 00 00 00 00 	0000000000000000
  0x50c0	00 00 00 00 00 00 00 00 00 00 00 00 00 00 00 00 	0000000000000000
  0x50d0	00 00 00 00 00 00 00 00 00 00 00 00 00 00 00 00 	0000000000000000
  0x50e0	00 00 00 00 00 00 00 00 00 00 00 00 00 00 00 00 	0000000000000000
  0x50f0	00 00 00 00 00 00 00 00 00 00 00 00 00 00 00 00 	0000000000000000
  0x5100	00 00 00 00 00 00 00 00 00 00 00 00 00 00 00 00 	0000000000000000
  0x5110	00 00 00 00 00 00 00 00 00 00 00 00 00 00 00 00 	0000000000000000
  0x5120	00 00 00 00 00 00 00 00 00 00 00 00 00 00 00 00 	0000000000000000
  0x5130	00 00 00 00 00 00 00 00 00 00 00 00 00 00 00 00 	0000000000000000
  0x5140	00 00 00 00 00 00 00 00 00 00 00 00 00 00 00 00 	0000000000000000
  0x5150	00 00 00 00 00 00 00 00 00 00 00 00 00 00 00 00 	0000000000000000
  0x5160	00 00 00 00 00 00 00 00 00 00 00 00 00 00 00 00 	0000000000000000
  0x5170	00 00 00 00 00 00 00 00 00 00 00 00 00 00 00 00 	0000000000000000
  0x5180	00 00 00 00 00 00 00 00 00 00 00 00 00 00 00 00 	0000000000000000
  0x5190	00 00 00 00 00 00 00 00 00 00 00 00 00 00 00 00 	0000000000000000
  0x51a0	00 00 00 00 00 00 00 00 00 00 00 00 00 00 00 00 	0000000000000000
  0x51b0	00 00 00 00 00 00 00 00 00 00 00 00 00 00 00 00 	0000000000000000
  0x51c0	00 00 00 00 00 00 00 00 00 00 00 00 00 00 00 00 	0000000000000000
  0x51d0	00 00 00 00 00 00 00 00 00 00 00 00 00 00 00 00 	0000000000000000
  0x51e0	00 00 00 00 00 00 00 00 00 00 00 00 00 00 00 00 	0000000000000000
  0x51f0	00 00 00 00 00 00 00 00 00 00 00 00 00 00 00 00 	0000000000000000
=== DATA BLOCK END ===

=== DATA BLOCK ADDRESS 0x6000 ===
  0x6000	08 10 00 00 40 11 00 00 60 37 00 00 48 11 00 00 	0000@000`700H000
  0x6010	b9 14 00 00 70 37 00 00 c0 14 00 00 60 15 00 00 	0000p7000000`000
  0x6020	98 37 00 00 68 15 00 00 05 16 00 00 ac 37 00 00 	0700h00000000700
  0x6030	0c 16 00 00 a4 17 00 00 b8 37 00 00 ac 17 00 00 	0000000007000000
  0x6040	36 1a 00 00 cc 37 00 00 3c 1a 00 00 d6 1a 00 00 	60000700<0000000
  0x6050	f0 37 00 00 dc 1a 00 00 57 1b 00 00 00 38 00 00 	07000000W0000800
  0x6060	60 1b 00 00 32 1c 00 00 08 38 00 00 38 1c 00 00 	`000200008008000
  0x6070	60 1d 00 00 10 38 00 00 70 1d 00 00 43 1e 00 00 	`0000800p000C000
  0x6080	28 38 00 00 50 1e 00 00 99 1e 00 00 30 38 00 00 	(800P00000000800
  0x6090	a0 1e 00 00 5e 20 00 00 38 38 00 00 70 20 00 00 	0000^ 008800p 00
  0x60a0	82 20 00 00 28 38 00 00 a0 20 00 00 be 20 00 00 	0 00(8000 000 00
  0x60b0	70 38 00 00 c4 20 00 00 f8 20 00 00 7c 38 00 00 	p8000 000 00|800
  0x60c0	00 21 00 00 71 22 00 00 84 38 00 00 78 22 00 00 	0!00q"000800x"00
  0x60d0	6f 23 00 00 74 38 00 00 80 23 00 00 b9 23 00 00 	o#00t8000#000#00
  0x60e0	28 38 00 00 c0 23 00 00 d8 23 00 00 28 38 00 00 	(8000#000#00(800
  0x60f0	ec 23 00 00 40 24 00 00 8c 38 00 00 48 24 00 00 	0#00@$000800H$00
  0x6100	8d 24 00 00 7c 38 00 00 00 25 00 00 4d 25 00 00 	0$00|8000%00M%00
  0x6110	ac 38 00 00 94 25 00 00 68 26 00 00 d0 38 00 00 	08000%00h&000800
  0x6120	a8 26 00 00 c6 26 00 00 7c 38 00 00 d8 26 00 00 	0&000&00|8000&00
  0x6130	f5 26 00 00 28 38 00 00 fc 26 00 00 57 27 00 00 	0&00(8000&00W'00
  0x6140	e4 38 00 00 70 27 00 00 72 27 00 00 e0 38 00 00 	0800p'00r'000800
  0x6150	80 27 00 00 9e 27 00 00 64 38 00 00 b0 27 00 00 	0'000'00d8000'00
  0x6160	d0 27 00 00 64 38 00 00 00 00 00 00 00 00 00 00 	0'00d80000000000
  0x6170	00 00 00 00 00 00 00 00 00 00 00 00 00 00 00 00 	0000000000000000
  0x6180	00 00 00 00 00 00 00 00 00 00 00 00 00 00 00 00 	0000000000000000
  0x6190	00 00 00 00 00 00 00 00 00 00 00 00 00 00 00 00 	0000000000000000
  0x61a0	00 00 00 00 00 00 00 00 00 00 00 00 00 00 00 00 	0000000000000000
  0x61b0	00 00 00 00 00 00 00 00 00 00 00 00 00 00 00 00 	0000000000000000
  0x61c0	00 00 00 00 00 00 00 00 00 00 00 00 00 00 00 00 	0000000000000000
  0x61d0	00 00 00 00 00 00 00 00 00 00 00 00 00 00 00 00 	0000000000000000
  0x61e0	00 00 00 00 00 00 00 00 00 00 00 00 00 00 00 00 	0000000000000000
  0x61f0	00 00 00 00 00 00 00 00 00 00 00 00 00 00 00 00 	0000000000000000
=== DATA BLOCK END ===
