===== Assembly blocks =====

=== CODE BLOCK ADDRESS 0x1000 ===
  0x1000	int3   	
  0x1001	int3   	
  0x1002	int3   	
  0x1003	int3   	
  0x1004	int3   	
  === BLOCK LINK ===
    0x1005
=== CODE BLOCK END ===

=== CODE BLOCK ADDRESS 0x1005 ===
  0x1005	int3   	
  0x1006	int3   	
  0x1007	int3   	
  0x1008	int3   	
  0x1009	int3   	
  === BLOCK LINK ===
    0x100a
=== CODE BLOCK END ===

=== CODE BLOCK ADDRESS 0x100a ===
  0x100a	int3   	
  0x100b	int3   	
  0x100c	int3   	
  0x100d	int3   	
  0x100e	int3   	
  === BLOCK LINK ===
    0x100f
=== CODE BLOCK END ===

=== CODE BLOCK ADDRESS 0x100f ===
  0x100f	int3   	
  0x1010	inc    	eax
  0x1011	push   	ebp
  0x1012	inc    	ecx
  0x1013	push   	esi
  === BLOCK LINK ===
    0x1014
=== CODE BLOCK END ===

=== CODE BLOCK ADDRESS 0x1014 ===
  0x1014	inc    	ecx
  0x1015	push   	edi
  0x1016	dec    	eax
  0x1017	lea    	ebp, [esp - 0x47]
  0x101b	dec    	eax
  === BLOCK LINK ===
    0x101c
=== CODE BLOCK END ===

=== CODE BLOCK ADDRESS 0x101c ===
  0x101c	sub    	esp, 0xc0
  0x1022	dec    	eax
  0x1023	mov    	eax, dword ptr [0x2fdf]
  0x1029	dec    	eax
  0x102a	xor    	eax, esp
  === BLOCK LINK ===
    0x102c
=== CODE BLOCK END ===

=== CODE BLOCK ADDRESS 0x102c ===
  0x102c	dec    	eax
  0x102d	mov    	dword ptr [ebp + 0x27], eax
  0x1030	dec    	esp
  0x1031	mov    	dword ptr [ebp - 0x31], eax
  0x1034	dec    	eax
  === BLOCK LINK ===
    0x1035
=== CODE BLOCK END ===

=== CODE BLOCK ADDRESS 0x1035 ===
  0x1035	call   	dword ptr [0x20ed]
  === BLOCK LINK ===
    0x103b
=== CODE BLOCK END ===

=== CODE BLOCK ADDRESS 0x103b ===
  0x103b	nop    	dword ptr [eax + eax]
  0x1040	test   	eax, eax
  0x1042	js     	0x108d
  === BLOCK LINK ===
    0x1044
    0x108d
=== CODE BLOCK END ===

=== CODE BLOCK ADDRESS 0x1044 ===
  0x1044	cmp    	al, 6
  0x1046	jb     	0x108d
  === BLOCK LINK ===
    0x1048
    0x108d
=== CODE BLOCK END ===

=== CODE BLOCK ADDRESS 0x1048 ===
  0x1048	dec    	eax
  0x1049	lea    	ecx, [0x2329]
  0x104f	dec    	eax
  0x1050	call   	dword ptr [0x20ea]
  === BLOCK LINK ===
    0x1056
=== CODE BLOCK END ===

=== CODE BLOCK ADDRESS 0x1056 ===
  0x1056	nop    	dword ptr [eax + eax]
  0x105b	dec    	eax
  0x105c	test   	eax, eax
  0x105e	je     	0x108d
  === BLOCK LINK ===
    0x1060
    0x108d
=== CODE BLOCK END ===

=== CODE BLOCK ADDRESS 0x1060 ===
  0x1060	dec    	eax
  0x1061	lea    	edx, [0x2331]
  0x1067	dec    	eax
  0x1068	mov    	ecx, eax
  0x106a	dec    	eax
  === BLOCK LINK ===
    0x106b
=== CODE BLOCK END ===

=== CODE BLOCK ADDRESS 0x106b ===
  0x106b	call   	dword ptr [0x20bf]
  === BLOCK LINK ===
    0x1071
=== CODE BLOCK END ===

=== CODE BLOCK ADDRESS 0x1071 ===
  0x1071	nop    	dword ptr [eax + eax]
  0x1076	dec    	eax
  0x1077	test   	eax, eax
  0x1079	je     	0x108d
  === BLOCK LINK ===
    0x107b
    0x108d
=== CODE BLOCK END ===

=== CODE BLOCK ADDRESS 0x107b ===
  0x107b	inc    	ebp
  0x107c	xor    	ecx, ecx
  0x107e	inc    	ebp
  0x107f	xor    	eax, eax
  0x1081	xor    	ecx, ecx
  === BLOCK LINK ===
    0x1083
=== CODE BLOCK END ===

=== CODE BLOCK ADDRESS 0x1083 ===
  0x1083	inc    	ecx
  0x1084	lea    	edx, [ecx + 1]
  0x1087	call   	dword ptr [0x21eb]
  === BLOCK LINK ===
    0x108d
=== CODE BLOCK END ===

=== CODE BLOCK ADDRESS 0x108d ===
  0x108d	dec    	eax
  0x108e	mov    	ecx, dword ptr [ebp - 0x31]
  0x1091	inc    	ebp
  0x1092	xor    	edi, edi
  0x1094	dec    	eax
  === BLOCK LINK ===
    0x1095
=== CODE BLOCK END ===

=== CODE BLOCK ADDRESS 0x1095 ===
  0x1095	mov    	dword ptr [esp + 0xe0], ebx
  0x109c	dec    	eax
  0x109d	mov    	dword ptr [esp + 0xe8], esi
  0x10a4	dec    	eax
  0x10a5	mov    	dword ptr [esp + 0xf8], edi
  === BLOCK LINK ===
    0x10ac
=== CODE BLOCK END ===

=== CODE BLOCK ADDRESS 0x10ac ===
  0x10ac	dec    	esp
  0x10ad	mov    	dword ptr [esp + 0xb8], esp
  0x10b4	inc    	ecx
  0x10b5	lea    	eax, [edi + 2]
  0x10b8	dec    	esp
  === BLOCK LINK ===
    0x10b9
=== CODE BLOCK END ===

=== CODE BLOCK ADDRESS 0x10b9 ===
  0x10b9	mov    	dword ptr [esp + 0xb0], ebp
  0x10c0	dec    	eax
  0x10c1	test   	ecx, ecx
  0x10c3	je     	0x1849
  === BLOCK LINK ===
    0x10c9
    0x1849
=== CODE BLOCK END ===

=== CODE BLOCK ADDRESS 0x10c9 ===
  0x10c9	movzx  	eax, word ptr [ecx]
  0x10cc	inc    	ecx
  0x10cd	lea    	edi, [edi + 9]
  0x10d0	inc    	ecx
  0x10d1	mov    	eax, 0x20
  === BLOCK LINK ===
    0x10d6
=== CODE BLOCK END ===

=== CODE BLOCK ADDRESS 0x10d6 ===
  0x10d6	dec    	esp
  0x10d7	mov    	dword ptr [ebp - 9], edi
  0x10da	dec    	ebp
  0x10db	lea    	esp, [edi - 1]
  0x10de	inc    	ecx
  === BLOCK LINK ===
    0x10df
=== CODE BLOCK END ===

=== CODE BLOCK ADDRESS 0x10df ===
  0x10df	mov    	edx, edi
  0x10e1	dec    	eax
  0x10e2	mov    	dword ptr [ebp - 0x29], edx
  0x10e5	inc    	ebp
  0x10e6	mov    	ebp, edi
  === BLOCK LINK ===
    0x10e8
=== CODE BLOCK END ===

=== CODE BLOCK ADDRESS 0x10e8 ===
  0x10e8	inc    	ecx
  0x10e9	mov    	esi, 0x80070216
  0x10ee	inc    	sp
  0x10f0	cmp    	eax, eax
  0x10f2	je     	0x131c
  === BLOCK LINK ===
    0x10f8
    0x131c
=== CODE BLOCK END ===

=== CODE BLOCK ADDRESS 0x10f8 ===
  0x10f8	cmp    	di, ax
  0x10fb	je     	0x131c
  === BLOCK LINK ===
    0x1101
    0x131c
=== CODE BLOCK END ===

=== CODE BLOCK ADDRESS 0x1101 ===
  0x1101	inc    	sp
  0x1103	cmp    	edi, eax
  0x1105	dec    	esp
  0x1106	mov    	dword ptr [ebp - 0x21], edi
  0x1109	inc    	ecx
  === BLOCK LINK ===
    0x110a
=== CODE BLOCK END ===

=== CODE BLOCK ADDRESS 0x110a ===
  0x110a	mov    	esi, edi
  0x110c	dec    	eax
  0x110d	mov    	dword ptr [ebp - 0x29], edx
  0x1110	setne  	al
  0x1113	inc    	ebp
  === BLOCK LINK ===
    0x1114
=== CODE BLOCK END ===

=== CODE BLOCK ADDRESS 0x1114 ===
  0x1114	mov    	ecx, edi
  0x1116	mov    	byte ptr [ebp - 0x39], al
  0x1119	inc    	ecx
  0x111a	mov    	ebx, edi
  0x111c	nop    	dword ptr [eax]
  === BLOCK LINK ===
    0x1120
=== CODE BLOCK END ===

=== CODE BLOCK ADDRESS 0x1120 ===
  0x1120	test   	al, al
  0x1122	je     	0x130a
  === BLOCK LINK ===
    0x1128
    0x130a
=== CODE BLOCK END ===

=== CODE BLOCK ADDRESS 0x1128 ===
  0x1128	inc    	ecx
  0x1129	mov    	ebx, edi
  0x112b	dec    	ebp
  0x112c	mov    	edx, edi
  0x112e	inc    	eax
  === BLOCK LINK ===
    0x112f
=== CODE BLOCK END ===

=== CODE BLOCK ADDRESS 0x112f ===
  0x112f	xor    	bh, bh
  === BLOCK LINK ===
    0x1131
=== CODE BLOCK END ===

=== CODE BLOCK ADDRESS 0x1139 ===
  0x1139	inc    	ecx
  0x113a	mov    	ebx, 1
  0x113f	inc    	eax
  0x1140	test   	bh, bh
  0x1142	jne    	0x116a
  === BLOCK LINK ===
    0x1144
    0x116a
=== CODE BLOCK END ===

=== CODE BLOCK ADDRESS 0x1144 ===
  0x1144	inc    	ecx
  0x1145	cmp    	eax, 0x20
  0x1148	ja     	0x115e
  === BLOCK LINK ===
    0x114a
    0x115e
=== CODE BLOCK END ===

=== CODE BLOCK ADDRESS 0x114a ===
  0x114a	dec    	eax
  0x114b	mov    	ecx, 0x201
  0x1150	add    	dword ptr [eax], eax
  0x1152	add    	byte ptr [eax], al
  0x1154	dec    	esp
  === BLOCK LINK ===
    0x1155
=== CODE BLOCK END ===

=== CODE BLOCK ADDRESS 0x1155 ===
  0x1155	bt     	ecx, eax
  0x1158	jb     	0x1209
  === BLOCK LINK ===
    0x115e
    0x1209
=== CODE BLOCK END ===

=== CODE BLOCK ADDRESS 0x115e ===
  0x115e	inc    	ecx
  0x115f	cmp    	eax, 0x22
  0x1162	jne    	0x11a9
  === BLOCK LINK ===
    0x1164
    0x11a9
=== CODE BLOCK END ===

=== CODE BLOCK ADDRESS 0x1164 ===
  0x1164	inc    	ecx
  0x1165	movzx  	edi, bl
  0x1168	jmp    	0x11d7
  === BLOCK LINK ===
    0x116a
    0x11d7
=== CODE BLOCK END ===

=== CODE BLOCK ADDRESS 0x116a ===
  0x116a	inc    	bp
  0x116c	test   	eax, eax
  0x116e	je     	0x123b
  === BLOCK LINK ===
    0x1174
    0x123b
=== CODE BLOCK END ===

=== CODE BLOCK ADDRESS 0x1174 ===
  0x1174	inc    	ecx
  0x1175	cmp    	eax, 0x22
  0x1178	jne    	0x11a9
  === BLOCK LINK ===
    0x117a
    0x11a9
=== CODE BLOCK END ===

=== CODE BLOCK ADDRESS 0x117a ===
  0x117a	inc    	edx
  0x117b	movzx  	edx, word ptr [ecx + ecx*2 + 2]
  0x1180	inc    	ecx
  0x1181	mov    	eax, eax
  0x1183	cmp    	ax, dx
  === BLOCK LINK ===
    0x1186
=== CODE BLOCK END ===

=== CODE BLOCK ADDRESS 0x1186 ===
  0x1186	mov    	eax, 2
  0x118b	dec    	esp
  0x118c	cmove  	ebx, eax
  0x118f	inc    	eax
  0x1190	movzx  	eax, bh
  === BLOCK LINK ===
    0x1193
=== CODE BLOCK END ===

=== CODE BLOCK ADDRESS 0x1193 ===
  0x1193	xor    	ecx, ecx
  0x1195	inc    	ecx
  0x1196	mov    	edi, eax
  0x1198	cmp    	di, dx
  0x119b	cmove  	ecx, eax
  === BLOCK LINK ===
    0x119e
=== CODE BLOCK END ===

=== CODE BLOCK ADDRESS 0x119e ===
  0x119e	inc    	ecx
  0x119f	mov    	eax, eax
  0x11a1	movzx  	edi, cl
  0x11a4	cmp    	ax, dx
  0x11a7	jne    	0x11d7
  === BLOCK LINK ===
    0x11a9
    0x11d7
=== CODE BLOCK END ===

=== CODE BLOCK ADDRESS 0x11a9 ===
  0x11a9	test   	ebx, ebx
  0x11ab	js     	0x12fe
  === BLOCK LINK ===
    0x11b1
    0x12fe
=== CODE BLOCK END ===

=== CODE BLOCK ADDRESS 0x11b1 ===
  0x11b1	dec    	eax
  0x11b2	test   	esi, esi
  0x11b4	je     	0x11bb
  === BLOCK LINK ===
    0x11b6
    0x11bb
=== CODE BLOCK END ===

=== CODE BLOCK ADDRESS 0x11b6 ===
  0x11b6	inc    	si
  0x11b8	mov    	dword ptr [esi + edx*2], eax
  === BLOCK LINK ===
    0x11bb
=== CODE BLOCK END ===

=== CODE BLOCK ADDRESS 0x11c0 ===
  0x11c0	mov    	edx, edx
  0x11c2	dec    	ecx
  0x11c3	cmp    	ecx, edx
  0x11c5	dec    	ecx
  0x11c6	mov    	eax, esp
  === BLOCK LINK ===
    0x11c8
=== CODE BLOCK END ===

=== CODE BLOCK ADDRESS 0x11c8 ===
  0x11c8	dec    	eax
  0x11c9	cmovae  	eax, ecx
  0x11cc	dec    	eax
  0x11cd	cmp    	ecx, edx
  0x11cf	dec    	esp
  === BLOCK LINK ===
    0x11d0
=== CODE BLOCK END ===

=== CODE BLOCK ADDRESS 0x11d0 ===
  0x11d0	mov    	edx, eax
  0x11d2	sbb    	ebx, ebx
  0x11d4	inc    	ecx
  0x11d5	and    	ebx, esi
  0x11d7	test   	ebx, ebx
  === BLOCK LINK ===
    0x11d9
=== CODE BLOCK END ===

=== CODE BLOCK ADDRESS 0x11d9 ===
  0x11d9	js     	0x12fe
  === BLOCK LINK ===
    0x11df
    0x12fe
=== CODE BLOCK END ===

=== CODE BLOCK ADDRESS 0x11df ===
  0x11df	dec    	ebx
  0x11e0	lea    	edx, [ebx + ecx]
  0x11e3	dec    	ecx
  0x11e4	mov    	ecx, ecx
  0x11e6	dec    	ecx
  === BLOCK LINK ===
    0x11e7
=== CODE BLOCK END ===

=== CODE BLOCK ADDRESS 0x11e7 ===
  0x11e7	cmp    	edx, ecx
  0x11e9	dec    	ecx
  0x11ea	mov    	eax, esp
  0x11ec	dec    	eax
  0x11ed	cmovae  	eax, edx
  === BLOCK LINK ===
    0x11f0
=== CODE BLOCK END ===

=== CODE BLOCK ADDRESS 0x11f0 ===
  0x11f0	dec    	eax
  0x11f1	cmp    	edx, ecx
  0x11f3	dec    	esp
  0x11f4	mov    	ecx, eax
  0x11f6	sbb    	ebx, ebx
  === BLOCK LINK ===
    0x11f8
=== CODE BLOCK END ===

=== CODE BLOCK ADDRESS 0x11f8 ===
  0x11f8	inc    	ecx
  0x11f9	and    	ebx, esi
  0x11fb	dec    	ecx
  0x11fc	cmp    	edx, edi
  0x11fe	jb     	0x1240
  === BLOCK LINK ===
    0x1200
    0x1240
=== CODE BLOCK END ===

=== CODE BLOCK ADDRESS 0x1200 ===
  0x1200	dec    	eax
  0x1201	mov    	ecx, dword ptr [ebp - 0x31]
  0x1204	jmp    	0x1131
  === BLOCK LINK ===
    0x1209
    0x1131
=== CODE BLOCK END ===

=== CODE BLOCK ADDRESS 0x1209 ===
  0x1209	test   	ebx, ebx
  0x120b	js     	0x12fe
  === BLOCK LINK ===
    0x1211
    0x12fe
=== CODE BLOCK END ===

=== CODE BLOCK ADDRESS 0x1211 ===
  0x1211	dec    	eax
  0x1212	test   	esi, esi
  0x1214	je     	0x121d
  === BLOCK LINK ===
    0x1216
=== CODE BLOCK END ===

=== CODE BLOCK ADDRESS 0x1216 ===
  0x1216	xor    	eax, eax
  0x1218	inc    	dx
  0x121a	mov    	dword ptr [esi + edx*2], eax
  0x121d	dec    	ecx
  0x121e	lea    	ecx, [edx + 1]
  === BLOCK LINK ===
    0x1221
=== CODE BLOCK END ===

=== CODE BLOCK ADDRESS 0x1221 ===
  0x1221	dec    	ecx
  0x1222	mov    	edx, edx
  0x1224	dec    	ecx
  0x1225	cmp    	ecx, edx
  0x1227	dec    	ecx
  === BLOCK LINK ===
    0x1228
=== CODE BLOCK END ===

=== CODE BLOCK ADDRESS 0x1228 ===
  0x1228	mov    	eax, esp
  0x122a	dec    	eax
  0x122b	cmovae  	eax, ecx
  0x122e	dec    	eax
  0x122f	cmp    	ecx, edx
  === BLOCK LINK ===
    0x1231
=== CODE BLOCK END ===

=== CODE BLOCK ADDRESS 0x1231 ===
  0x1231	dec    	esp
  0x1232	mov    	edx, eax
  0x1234	sbb    	ebx, ebx
  0x1236	inc    	ecx
  0x1237	and    	ebx, esi
  === BLOCK LINK ===
    0x1239
=== CODE BLOCK END ===

=== CODE BLOCK ADDRESS 0x1239 ===
  0x1239	jmp    	0x1240
  === BLOCK LINK ===
    0x123b
=== CODE BLOCK END ===

=== CODE BLOCK ADDRESS 0x123b ===
  0x123b	mov    	ebx, 0x80070057
  === BLOCK LINK ===
    0x1240
=== CODE BLOCK END ===

=== CODE BLOCK ADDRESS 0x1248 ===
  0x1248	dec    	eax
  0x1249	mov    	ecx, dword ptr [ebp - 0x21]
  0x124c	dec    	eax
  0x124d	test   	ecx, ecx
  0x124f	je     	0x1260
  === BLOCK LINK ===
    0x1251
=== CODE BLOCK END ===

=== CODE BLOCK ADDRESS 0x1251 ===
  0x1251	dec    	eax
  0x1252	mov    	dword ptr [ecx], esi
  0x1254	dec    	eax
  0x1255	add    	ecx, 8
  0x1258	dec    	eax
  === BLOCK LINK ===
    0x1259
=== CODE BLOCK END ===

=== CODE BLOCK ADDRESS 0x1259 ===
  0x1259	mov    	dword ptr [ebp - 0x21], ecx
  0x125c	dec    	edx
  0x125d	lea    	esi, [esi + edx*2]
  0x1260	dec    	eax
  0x1261	mov    	edx, dword ptr [ebp - 0x29]
  === BLOCK LINK ===
    0x1264
=== CODE BLOCK END ===

=== CODE BLOCK ADDRESS 0x1264 ===
  0x1264	dec    	ebx
  0x1265	lea    	eax, [edx + ebp]
  0x1268	dec    	eax
  0x1269	inc    	edx
  0x126b	dec    	eax
  === BLOCK LINK ===
    0x126c
=== CODE BLOCK END ===

=== CODE BLOCK ADDRESS 0x126c ===
  0x126c	mov    	dword ptr [ebp - 0x29], edx
  0x126f	dec    	ecx
  0x1270	cmp    	eax, ebp
  0x1272	jb     	0x12f6
  === BLOCK LINK ===
    0x1278
=== CODE BLOCK END ===

=== CODE BLOCK ADDRESS 0x1278 ===
  0x1278	dec    	esp
  0x1279	mov    	eax, dword ptr [ebp - 0x31]
  0x127c	dec    	esp
  0x127d	mov    	ebp, eax
  0x127f	xor    	cl, cl
  === BLOCK LINK ===
    0x1281
=== CODE BLOCK END ===

=== CODE BLOCK ADDRESS 0x1281 ===
  0x1281	inc    	ecx
  0x1282	mov    	edx, 0x20
  0x1287	nop    	word ptr [eax + eax]
  0x1290	inc    	ebx
  0x1291	movzx  	eax, word ptr [eax + ecx*2]
  === BLOCK LINK ===
    0x1295
=== CODE BLOCK END ===

=== CODE BLOCK ADDRESS 0x1295 ===
  0x1295	mov    	edi, 9
  0x129a	inc    	sp
  0x129c	cmp    	edx, eax
  0x129e	je     	0x12a5
  === BLOCK LINK ===
    0x12a0
=== CODE BLOCK END ===

=== CODE BLOCK ADDRESS 0x12a0 ===
  0x12a0	cmp    	di, ax
  0x12a3	jne    	0x12b5
  === BLOCK LINK ===
    0x12a5
=== CODE BLOCK END ===

=== CODE BLOCK ADDRESS 0x12a5 ===
  0x12a5	dec    	ecx
  0x12a6	lea    	eax, [ecx + 1]
  0x12a9	mov    	cl, 1
  0x12ab	dec    	ecx
  0x12ac	cmp    	eax, ecx
  === BLOCK LINK ===
    0x12ae
=== CODE BLOCK END ===

=== CODE BLOCK ADDRESS 0x12ae ===
  0x12ae	jb     	0x12dd
  === BLOCK LINK ===
    0x12b0
=== CODE BLOCK END ===

=== CODE BLOCK ADDRESS 0x12b0 ===
  0x12b0	dec    	esp
  0x12b1	mov    	ecx, eax
  0x12b3	jmp    	0x1290
  === BLOCK LINK ===
    0x12b5
=== CODE BLOCK END ===

=== CODE BLOCK ADDRESS 0x12b5 ===
  0x12b5	inc    	ebp
  0x12b6	xor    	edi, edi
  0x12b8	inc    	sp
  0x12ba	cmp    	edi, eax
  0x12bc	je     	0x12c8
  === BLOCK LINK ===
    0x12be
=== CODE BLOCK END ===

=== CODE BLOCK ADDRESS 0x12be ===
  0x12be	mov    	al, 1
  0x12c0	inc    	ecx
  0x12c1	mov    	ebx, edi
  0x12c3	mov    	byte ptr [ebp - 0x39], al
  0x12c6	jmp    	0x12ea
  === BLOCK LINK ===
    0x12c8
=== CODE BLOCK END ===

=== CODE BLOCK ADDRESS 0x12c8 ===
  0x12c8	test   	cl, cl
  0x12ca	jne    	0x12d6
  === BLOCK LINK ===
    0x12cc
=== CODE BLOCK END ===

=== CODE BLOCK ADDRESS 0x12cc ===
  0x12cc	xor    	al, al
  0x12ce	inc    	ecx
  0x12cf	mov    	ebx, edi
  0x12d1	mov    	byte ptr [ebp - 0x39], al
  0x12d4	jmp    	0x12ea
  === BLOCK LINK ===
    0x12d6
=== CODE BLOCK END ===

=== CODE BLOCK ADDRESS 0x12d6 ===
  0x12d6	mov    	ebx, 0x80070057
  0x12db	jmp    	0x12e6
  === BLOCK LINK ===
    0x12dd
=== CODE BLOCK END ===

=== CODE BLOCK ADDRESS 0x12dd ===
  0x12dd	dec    	ebp
  0x12de	mov    	ecx, esp
  0x12e0	inc    	ecx
  0x12e1	mov    	ebx, esi
  0x12e3	inc    	ebp
  === BLOCK LINK ===
    0x12e4
=== CODE BLOCK END ===

=== CODE BLOCK ADDRESS 0x12e4 ===
  0x12e4	xor    	edi, edi
  0x12e6	movzx  	eax, byte ptr [ebp - 0x39]
  0x12ea	test   	ebx, ebx
  0x12ec	js     	0x130c
  === BLOCK LINK ===
    0x12ee
=== CODE BLOCK END ===

=== CODE BLOCK ADDRESS 0x12ee ===
  0x12ee	dec    	ecx
  0x12ef	mov    	ecx, eax
  0x12f1	jmp    	0x1120
  === BLOCK LINK ===
    0x12f6
=== CODE BLOCK END ===

=== CODE BLOCK ADDRESS 0x12f6 ===
  0x12f6	dec    	ebp
  0x12f7	mov    	ebp, esp
  0x12f9	inc    	ecx
  0x12fa	mov    	ebx, esi
  0x12fc	jmp    	0x1302
  === BLOCK LINK ===
    0x12fe
=== CODE BLOCK END ===

=== CODE BLOCK ADDRESS 0x12fe ===
  0x12fe	dec    	eax
  0x12ff	mov    	edx, dword ptr [ebp - 0x29]
  0x1302	mov    	edi, 9
  0x1307	inc    	ebp
  0x1308	xor    	edi, edi
  === BLOCK LINK ===
    0x130a
=== CODE BLOCK END ===

=== CODE BLOCK ADDRESS 0x130a ===
  0x130a	test   	ebx, ebx
  0x130c	dec    	ecx
  0x130d	cmovs  	edx, edi
  0x1310	test   	ebx, ebx
  0x1312	dec    	eax
  === BLOCK LINK ===
    0x1313
=== CODE BLOCK END ===

=== CODE BLOCK ADDRESS 0x1313 ===
  0x1313	mov    	dword ptr [ebp - 0x29], edx
  0x1316	dec    	ebp
  0x1317	cmovs  	ebp, edi
  0x131a	jmp    	0x1321
  === BLOCK LINK ===
    0x131c
=== CODE BLOCK END ===

=== CODE BLOCK ADDRESS 0x131c ===
  0x131c	mov    	ebx, 0x80070057
  0x1321	test   	ebx, ebx
  0x1323	js     	0x15dd
  === BLOCK LINK ===
    0x1329
=== CODE BLOCK END ===

=== CODE BLOCK ADDRESS 0x1329 ===
  0x1329	mov    	eax, 8
  0x132e	dec    	eax
  0x132f	mul    	edx
  0x1331	dec    	eax
  0x1332	mov    	ebx, eax
  === BLOCK LINK ===
    0x1334
=== CODE BLOCK END ===

=== CODE BLOCK ADDRESS 0x1334 ===
  0x1334	mov    	eax, 2
  0x1339	dec    	eax
  0x133a	test   	edx, edx
  0x133c	jne    	0x184f
  === BLOCK LINK ===
    0x1342
=== CODE BLOCK END ===

=== CODE BLOCK ADDRESS 0x1342 ===
  0x1342	dec    	ecx
  0x1343	mul    	ebp
  0x1345	dec    	eax
  0x1346	test   	edx, edx
  0x1348	je     	0x1354
  === BLOCK LINK ===
    0x134a
=== CODE BLOCK END ===

=== CODE BLOCK ADDRESS 0x134a ===
  0x134a	mov    	eax, 2
  0x134f	jmp    	0x184f
  === BLOCK LINK ===
    0x1354
=== CODE BLOCK END ===

=== CODE BLOCK ADDRESS 0x1354 ===
  0x1354	dec    	eax
  0x1355	lea    	edx, [eax + ebx]
  0x1358	dec    	eax
  0x1359	cmp    	edx, ebx
  0x135b	jb     	0x134a
  === BLOCK LINK ===
    0x135d
=== CODE BLOCK END ===

=== CODE BLOCK ADDRESS 0x135d ===
  0x135d	xor    	ecx, ecx
  0x135f	dec    	eax
  0x1360	call   	dword ptr [0x1de2]
  === BLOCK LINK ===
    0x1366
=== CODE BLOCK END ===

=== CODE BLOCK ADDRESS 0x1366 ===
  0x1366	nop    	dword ptr [eax + eax]
  0x136b	dec    	eax
  0x136c	mov    	dword ptr [ebp - 1], eax
  0x136f	dec    	eax
  0x1370	mov    	ecx, eax
  === BLOCK LINK ===
    0x1372
=== CODE BLOCK END ===

=== CODE BLOCK ADDRESS 0x1372 ===
  0x1372	dec    	eax
  0x1373	test   	eax, eax
  0x1375	jne    	0x1385
  === BLOCK LINK ===
    0x1377
=== CODE BLOCK END ===

=== CODE BLOCK ADDRESS 0x1377 ===
  0x1377	inc    	ecx
  0x1378	mov    	esi, 0x8007000e
  0x137d	lea    	eax, [ecx + 2]
  0x1380	jmp    	0x184f
  === BLOCK LINK ===
    0x1385
=== CODE BLOCK END ===

=== CODE BLOCK ADDRESS 0x1385 ===
  0x1385	dec    	esp
  0x1386	mov    	ebp, dword ptr [ebp - 0x31]
  0x1389	dec    	eax
  0x138a	lea    	esi, [eax + ebx]
  0x138d	mov    	edx, 0x20
  === BLOCK LINK ===
    0x1392
=== CODE BLOCK END ===

=== CODE BLOCK ADDRESS 0x1392 ===
  0x1392	inc    	ecx
  0x1393	movzx  	eax, word ptr [ebp]
  0x1397	cmp    	dx, ax
  0x139a	je     	0x15bf
  === BLOCK LINK ===
    0x13a0
=== CODE BLOCK END ===

=== CODE BLOCK ADDRESS 0x13a0 ===
  0x13a0	cmp    	di, ax
  0x13a3	je     	0x15bf
  === BLOCK LINK ===
    0x13a9
=== CODE BLOCK END ===

=== CODE BLOCK ADDRESS 0x13a9 ===
  0x13a9	inc    	sp
  0x13ab	cmp    	edi, eax
  0x13ad	dec    	eax
  0x13ae	mov    	dword ptr [ebp - 0x21], ecx
  0x13b1	dec    	ebp
  === BLOCK LINK ===
    0x13b2
=== CODE BLOCK END ===

=== CODE BLOCK ADDRESS 0x13b2 ===
  0x13b2	mov    	ecx, edi
  0x13b4	dec    	esp
  0x13b5	mov    	dword ptr [ebp - 0x31], edi
  0x13b8	setne  	al
  0x13bb	dec    	esp
  === BLOCK LINK ===
    0x13bc
=== CODE BLOCK END ===

=== CODE BLOCK ADDRESS 0x13bc ===
  0x13bc	mov    	dword ptr [ebp - 0x11], edi
  0x13bf	mov    	byte ptr [ebp - 0x39], al
  0x13c2	inc    	ecx
  0x13c3	mov    	ebx, edi
  0x13c5	test   	al, al
  === BLOCK LINK ===
    0x13c7
=== CODE BLOCK END ===

=== CODE BLOCK ADDRESS 0x13c7 ===
  0x13c7	je     	0x15ae
  === BLOCK LINK ===
    0x13cd
=== CODE BLOCK END ===

=== CODE BLOCK ADDRESS 0x13cd ===
  0x13cd	inc    	ecx
  0x13ce	mov    	ebx, edi
  0x13d0	dec    	ebp
  0x13d1	mov    	edx, edi
  0x13d3	inc    	eax
  === BLOCK LINK ===
    0x13d4
=== CODE BLOCK END ===

=== CODE BLOCK ADDRESS 0x13d4 ===
  0x13d4	xor    	bh, bh
  0x13d6	nop    	word ptr [eax + eax]
  0x13e0	inc    	edi
  0x13e1	movzx  	eax, word ptr [ebp + ecx*2]
  0x13e6	dec    	ebp
  === BLOCK LINK ===
    0x13e7
=== CODE BLOCK END ===

=== CODE BLOCK ADDRESS 0x13e7 ===
  0x13e7	mov    	edi, ecx
  0x13e9	inc    	ecx
  0x13ea	mov    	ebx, 1
  0x13ef	inc    	eax
  0x13f0	test   	bh, bh
  === BLOCK LINK ===
    0x13f2
=== CODE BLOCK END ===

=== CODE BLOCK ADDRESS 0x13f2 ===
  0x13f2	jne    	0x141a
  === BLOCK LINK ===
    0x13f4
=== CODE BLOCK END ===

=== CODE BLOCK ADDRESS 0x13f4 ===
  0x13f4	inc    	ecx
  0x13f5	cmp    	eax, 0x20
  0x13f8	ja     	0x140e
  === BLOCK LINK ===
    0x13fa
=== CODE BLOCK END ===

=== CODE BLOCK ADDRESS 0x13fa ===
  0x13fa	dec    	eax
  0x13fb	mov    	ecx, 0x201
  0x1400	add    	dword ptr [eax], eax
  0x1402	add    	byte ptr [eax], al
  0x1404	dec    	esp
  === BLOCK LINK ===
    0x1405
=== CODE BLOCK END ===

=== CODE BLOCK ADDRESS 0x1405 ===
  0x1405	bt     	ecx, eax
  0x1408	jb     	0x14b8
  === BLOCK LINK ===
    0x140e
=== CODE BLOCK END ===

=== CODE BLOCK ADDRESS 0x140e ===
  0x140e	inc    	ecx
  0x140f	cmp    	eax, 0x22
  0x1412	jne    	0x145b
  === BLOCK LINK ===
    0x1414
=== CODE BLOCK END ===

=== CODE BLOCK ADDRESS 0x1414 ===
  0x1414	inc    	ecx
  0x1415	movzx  	edi, bl
  0x1418	jmp    	0x1489
  === BLOCK LINK ===
    0x141a
=== CODE BLOCK END ===

=== CODE BLOCK ADDRESS 0x141a ===
  0x141a	inc    	bp
  0x141c	test   	eax, eax
  0x141e	je     	0x14ea
  === BLOCK LINK ===
    0x1424
=== CODE BLOCK END ===

=== CODE BLOCK ADDRESS 0x1424 ===
  0x1424	inc    	ecx
  0x1425	cmp    	eax, 0x22
  0x1428	jne    	0x145b
  === BLOCK LINK ===
    0x142a
=== CODE BLOCK END ===

=== CODE BLOCK ADDRESS 0x142a ===
  0x142a	inc    	ebx
  0x142b	movzx  	edx, word ptr [ebp + ecx*2 + 2]
  0x1430	inc    	ecx
  0x1431	mov    	eax, eax
  0x1433	cmp    	ax, dx
  === BLOCK LINK ===
    0x1436
=== CODE BLOCK END ===

=== CODE BLOCK ADDRESS 0x1436 ===
  0x1436	mov    	eax, 2
  0x143b	dec    	esp
  0x143c	cmove  	ebx, eax
  0x143f	xor    	eax, eax
  0x1441	mov    	ecx, eax
  === BLOCK LINK ===
    0x1443
=== CODE BLOCK END ===

=== CODE BLOCK ADDRESS 0x1443 ===
  0x1443	inc    	eax
  0x1444	movzx  	eax, bh
  0x1447	inc    	ecx
  0x1448	mov    	edi, eax
  0x144a	cmp    	di, dx
  === BLOCK LINK ===
    0x144d
=== CODE BLOCK END ===

=== CODE BLOCK ADDRESS 0x144d ===
  0x144d	cmove  	ecx, eax
  0x1450	inc    	ecx
  0x1451	mov    	eax, eax
  0x1453	movzx  	edi, cl
  0x1456	cmp    	ax, dx
  === BLOCK LINK ===
    0x1459
=== CODE BLOCK END ===

=== CODE BLOCK ADDRESS 0x1459 ===
  0x1459	jne    	0x1489
  === BLOCK LINK ===
    0x145b
=== CODE BLOCK END ===

=== CODE BLOCK ADDRESS 0x145b ===
  0x145b	test   	ebx, ebx
  0x145d	js     	0x15ab
  === BLOCK LINK ===
    0x1463
=== CODE BLOCK END ===

=== CODE BLOCK ADDRESS 0x1463 ===
  0x1463	dec    	eax
  0x1464	test   	esi, esi
  0x1466	je     	0x146d
  === BLOCK LINK ===
    0x1468
=== CODE BLOCK END ===

=== CODE BLOCK ADDRESS 0x1468 ===
  0x1468	inc    	si
  0x146a	mov    	dword ptr [esi + edx*2], eax
  0x146d	dec    	ecx
  0x146e	lea    	ecx, [edx + 1]
  0x1471	dec    	ecx
  === BLOCK LINK ===
    0x1472
=== CODE BLOCK END ===

=== CODE BLOCK ADDRESS 0x1472 ===
  0x1472	mov    	edx, edx
  0x1474	dec    	ecx
  0x1475	cmp    	ecx, edx
  0x1477	dec    	ecx
  0x1478	mov    	eax, esp
  === BLOCK LINK ===
    0x147a
=== CODE BLOCK END ===

=== CODE BLOCK ADDRESS 0x147a ===
  0x147a	dec    	eax
  0x147b	cmovae  	eax, ecx
  0x147e	dec    	eax
  0x147f	cmp    	ecx, edx
  0x1481	dec    	esp
  === BLOCK LINK ===
    0x1482
=== CODE BLOCK END ===

=== CODE BLOCK ADDRESS 0x1482 ===
  0x1482	mov    	edx, eax
  0x1484	sbb    	ebx, ebx
  0x1486	inc    	ecx
  0x1487	and    	ebx, esi
  0x1489	test   	ebx, ebx
  === BLOCK LINK ===
    0x148b
=== CODE BLOCK END ===

=== CODE BLOCK ADDRESS 0x148b ===
  0x148b	js     	0x15ab
  === BLOCK LINK ===
    0x1491
=== CODE BLOCK END ===

=== CODE BLOCK ADDRESS 0x1491 ===
  0x1491	dec    	ebx
  0x1492	lea    	edx, [ebx + ecx]
  0x1495	dec    	ecx
  0x1496	mov    	ecx, ecx
  0x1498	dec    	ecx
  === BLOCK LINK ===
    0x1499
=== CODE BLOCK END ===

=== CODE BLOCK ADDRESS 0x1499 ===
  0x1499	cmp    	edx, ecx
  0x149b	dec    	ecx
  0x149c	mov    	eax, esp
  0x149e	dec    	eax
  0x149f	cmovae  	eax, edx
  === BLOCK LINK ===
    0x14a2
=== CODE BLOCK END ===

=== CODE BLOCK ADDRESS 0x14a2 ===
  0x14a2	dec    	eax
  0x14a3	cmp    	edx, ecx
  0x14a5	dec    	esp
  0x14a6	mov    	ecx, eax
  0x14a8	sbb    	ebx, ebx
  === BLOCK LINK ===
    0x14aa
=== CODE BLOCK END ===

=== CODE BLOCK ADDRESS 0x14aa ===
  0x14aa	inc    	ecx
  0x14ab	and    	ebx, esi
  0x14ad	dec    	ecx
  0x14ae	cmp    	edx, edi
  0x14b0	jae    	0x13e0
  === BLOCK LINK ===
    0x14b6
=== CODE BLOCK END ===

=== CODE BLOCK ADDRESS 0x14b6 ===
  0x14b6	jmp    	0x14ef
  === BLOCK LINK ===
    0x14b8
=== CODE BLOCK END ===

=== CODE BLOCK ADDRESS 0x14b8 ===
  0x14b8	test   	ebx, ebx
  0x14ba	js     	0x15ab
  === BLOCK LINK ===
    0x14c0
=== CODE BLOCK END ===

=== CODE BLOCK ADDRESS 0x14c0 ===
  0x14c0	dec    	eax
  0x14c1	test   	esi, esi
  0x14c3	je     	0x14cc
  === BLOCK LINK ===
    0x14c5
=== CODE BLOCK END ===

=== CODE BLOCK ADDRESS 0x14c5 ===
  0x14c5	xor    	eax, eax
  0x14c7	inc    	dx
  0x14c9	mov    	dword ptr [esi + edx*2], eax
  0x14cc	dec    	ecx
  0x14cd	lea    	ecx, [edx + 1]
  === BLOCK LINK ===
    0x14d0
=== CODE BLOCK END ===

=== CODE BLOCK ADDRESS 0x14d0 ===
  0x14d0	dec    	ecx
  0x14d1	mov    	edx, edx
  0x14d3	dec    	ecx
  0x14d4	cmp    	ecx, edx
  0x14d6	dec    	ecx
  === BLOCK LINK ===
    0x14d7
=== CODE BLOCK END ===

=== CODE BLOCK ADDRESS 0x14d7 ===
  0x14d7	mov    	eax, esp
  0x14d9	dec    	eax
  0x14da	cmovae  	eax, ecx
  0x14dd	dec    	eax
  0x14de	cmp    	ecx, edx
  === BLOCK LINK ===
    0x14e0
=== CODE BLOCK END ===

=== CODE BLOCK ADDRESS 0x14e0 ===
  0x14e0	dec    	esp
  0x14e1	mov    	edx, eax
  0x14e3	sbb    	ebx, ebx
  0x14e5	inc    	ecx
  0x14e6	and    	ebx, esi
  === BLOCK LINK ===
    0x14e8
=== CODE BLOCK END ===

=== CODE BLOCK ADDRESS 0x14e8 ===
  0x14e8	jmp    	0x14ef
  === BLOCK LINK ===
    0x14ea
=== CODE BLOCK END ===

=== CODE BLOCK ADDRESS 0x14ea ===
  0x14ea	mov    	ebx, 0x80070057
  0x14ef	test   	ebx, ebx
  0x14f1	js     	0x15ab
  === BLOCK LINK ===
    0x14f7
=== CODE BLOCK END ===

=== CODE BLOCK ADDRESS 0x14f7 ===
  0x14f7	dec    	eax
  0x14f8	mov    	ecx, dword ptr [ebp - 0x21]
  0x14fb	dec    	eax
  0x14fc	test   	ecx, ecx
  0x14fe	je     	0x150f
  === BLOCK LINK ===
    0x1500
=== CODE BLOCK END ===

=== CODE BLOCK ADDRESS 0x1500 ===
  0x1500	dec    	eax
  0x1501	mov    	dword ptr [ecx], esi
  0x1503	dec    	eax
  0x1504	add    	ecx, 8
  0x1507	dec    	eax
  === BLOCK LINK ===
    0x1508
=== CODE BLOCK END ===

=== CODE BLOCK ADDRESS 0x1508 ===
  0x1508	mov    	dword ptr [ebp - 0x21], ecx
  0x150b	dec    	edx
  0x150c	lea    	esi, [esi + edx*2]
  0x150f	dec    	eax
  0x1510	mov    	edx, dword ptr [ebp - 0x11]
  === BLOCK LINK ===
    0x1513
=== CODE BLOCK END ===

=== CODE BLOCK ADDRESS 0x1513 ===
  0x1513	dec    	eax
  0x1514	inc    	dword ptr [ebp - 0x31]
  0x1517	dec    	ecx
  0x1518	lea    	eax, [edx + edx]
  0x151b	dec    	eax
  === BLOCK LINK ===
    0x151c
=== CODE BLOCK END ===

=== CODE BLOCK ADDRESS 0x151c ===
  0x151c	cmp    	eax, edx
  0x151e	jb     	0x15a8
  === BLOCK LINK ===
    0x1524
=== CODE BLOCK END ===

=== CODE BLOCK ADDRESS 0x1524 ===
  0x1524	dec    	eax
  0x1525	mov    	dword ptr [ebp - 0x11], eax
  0x1528	xor    	cl, cl
  0x152a	mov    	edx, 0x20
  0x152f	nop    	
  === BLOCK LINK ===
    0x1530
=== CODE BLOCK END ===

=== CODE BLOCK ADDRESS 0x1530 ===
  0x1530	inc    	ebx
  0x1531	movzx  	eax, word ptr [ebp + ecx*2]
  0x1536	cmp    	dx, ax
  0x1539	je     	0x154a
  === BLOCK LINK ===
    0x153b
=== CODE BLOCK END ===

=== CODE BLOCK ADDRESS 0x153b ===
  0x153b	mov    	edx, 9
  0x1540	cmp    	dx, ax
  0x1543	jne    	0x155a
  === BLOCK LINK ===
    0x1545
=== CODE BLOCK END ===

=== CODE BLOCK ADDRESS 0x1545 ===
  0x1545	mov    	edx, 0x20
  0x154a	dec    	ecx
  0x154b	lea    	eax, [ecx + 1]
  0x154e	mov    	cl, 1
  0x1550	dec    	ecx
  === BLOCK LINK ===
    0x1551
=== CODE BLOCK END ===

=== CODE BLOCK ADDRESS 0x1551 ===
  0x1551	cmp    	eax, ecx
  0x1553	jb     	0x1582
  === BLOCK LINK ===
    0x1555
=== CODE BLOCK END ===

=== CODE BLOCK ADDRESS 0x1555 ===
  0x1555	dec    	esp
  0x1556	mov    	ecx, eax
  0x1558	jmp    	0x1530
  === BLOCK LINK ===
    0x155a
=== CODE BLOCK END ===

=== CODE BLOCK ADDRESS 0x155a ===
  0x155a	inc    	ebp
  0x155b	xor    	edi, edi
  0x155d	inc    	sp
  0x155f	cmp    	edi, eax
  0x1561	je     	0x156d
  === BLOCK LINK ===
    0x1563
=== CODE BLOCK END ===

=== CODE BLOCK ADDRESS 0x1563 ===
  0x1563	mov    	al, 1
  0x1565	inc    	ecx
  0x1566	mov    	ebx, edi
  0x1568	mov    	byte ptr [ebp - 0x39], al
  0x156b	jmp    	0x158f
  === BLOCK LINK ===
    0x156d
=== CODE BLOCK END ===

=== CODE BLOCK ADDRESS 0x156d ===
  0x156d	test   	cl, cl
  0x156f	jne    	0x157b
  === BLOCK LINK ===
    0x1571
=== CODE BLOCK END ===

=== CODE BLOCK ADDRESS 0x1571 ===
  0x1571	xor    	al, al
  0x1573	inc    	ecx
  0x1574	mov    	ebx, edi
  0x1576	mov    	byte ptr [ebp - 0x39], al
  0x1579	jmp    	0x158f
  === BLOCK LINK ===
    0x157b
=== CODE BLOCK END ===

=== CODE BLOCK ADDRESS 0x157b ===
  0x157b	mov    	ebx, 0x80070057
  0x1580	jmp    	0x158b
  === BLOCK LINK ===
    0x1582
=== CODE BLOCK END ===

=== CODE BLOCK ADDRESS 0x1582 ===
  0x1582	dec    	ebp
  0x1583	mov    	ecx, esp
  0x1585	inc    	ecx
  0x1586	mov    	ebx, esi
  0x1588	inc    	ebp
  === BLOCK LINK ===
    0x1589
=== CODE BLOCK END ===

=== CODE BLOCK ADDRESS 0x1589 ===
  0x1589	xor    	edi, edi
  0x158b	movzx  	eax, byte ptr [ebp - 0x39]
  0x158f	test   	ebx, ebx
  0x1591	jns    	0x13c5
  === BLOCK LINK ===
    0x1597
=== CODE BLOCK END ===

=== CODE BLOCK ADDRESS 0x1597 ===
  0x1597	dec    	eax
  0x1598	mov    	eax, dword ptr [ebp - 0x31]
  0x159b	test   	ebx, ebx
  0x159d	dec    	eax
  0x159e	mov    	ecx, dword ptr [ebp - 1]
  === BLOCK LINK ===
    0x15a1
=== CODE BLOCK END ===

=== CODE BLOCK ADDRESS 0x15a1 ===
  0x15a1	dec    	eax
  0x15a2	cmovs  	eax, dword ptr [ebp - 0x29]
  0x15a6	jmp    	0x15c8
  === BLOCK LINK ===
    0x15a8
=== CODE BLOCK END ===

=== CODE BLOCK ADDRESS 0x15a8 ===
  0x15a8	inc    	ecx
  0x15a9	mov    	ebx, esi
  0x15ab	inc    	ebp
  0x15ac	xor    	edi, edi
  0x15ae	dec    	eax
  === BLOCK LINK ===
    0x15af
=== CODE BLOCK END ===

=== CODE BLOCK ADDRESS 0x15af ===
  0x15af	mov    	eax, dword ptr [ebp - 0x31]
  0x15b2	test   	ebx, ebx
  0x15b4	dec    	eax
  0x15b5	mov    	ecx, dword ptr [ebp - 1]
  0x15b8	dec    	eax
  === BLOCK LINK ===
    0x15b9
=== CODE BLOCK END ===

=== CODE BLOCK ADDRESS 0x15b9 ===
  0x15b9	cmovs  	eax, dword ptr [ebp - 0x29]
  0x15bd	jmp    	0x15c8
  === BLOCK LINK ===
    0x15bf
=== CODE BLOCK END ===

=== CODE BLOCK ADDRESS 0x15bf ===
  0x15bf	dec    	eax
  0x15c0	mov    	eax, dword ptr [ebp - 0x29]
  0x15c3	mov    	ebx, 0x80070057
  0x15c8	test   	ebx, ebx
  0x15ca	js     	0x15d1
  === BLOCK LINK ===
    0x15cc
=== CODE BLOCK END ===

=== CODE BLOCK ADDRESS 0x15cc ===
  0x15cc	dec    	eax
  0x15cd	mov    	edi, ecx
  0x15cf	jmp    	0x15e4
  === BLOCK LINK ===
    0x15d1
=== CODE BLOCK END ===

=== CODE BLOCK ADDRESS 0x15d1 ===
  0x15d1	dec    	eax
  0x15d2	call   	dword ptr [0x1b60]
  === BLOCK LINK ===
    0x15d8
=== CODE BLOCK END ===

=== CODE BLOCK ADDRESS 0x15d8 ===
  0x15d8	nop    	dword ptr [eax + eax]
  0x15dd	dec    	eax
  0x15de	mov    	eax, dword ptr [ebp - 9]
  0x15e1	dec    	eax
  0x15e2	mov    	edi, eax
  === BLOCK LINK ===
    0x15e4
=== CODE BLOCK END ===

=== CODE BLOCK ADDRESS 0x15e4 ===
  0x15e4	inc    	esp
  0x15e5	mov    	esi, ebx
  0x15e7	test   	ebx, ebx
  0x15e9	js     	0x134a
  === BLOCK LINK ===
    0x15ef
=== CODE BLOCK END ===

=== CODE BLOCK ADDRESS 0x15ef ===
  0x15ef	dec    	eax
  0x15f0	cmp    	eax, 1
  0x15f3	je     	0x164b
  === BLOCK LINK ===
    0x15f5
=== CODE BLOCK END ===

=== CODE BLOCK ADDRESS 0x15f5 ===
  0x15f5	dec    	eax
  0x15f6	cmp    	eax, 2
  0x15f9	je     	0x1645
  === BLOCK LINK ===
    0x15fb
=== CODE BLOCK END ===

=== CODE BLOCK ADDRESS 0x15fb ===
  0x15fb	dec    	eax
  0x15fc	cmp    	eax, 4
  0x15ff	jne    	0x182a
  === BLOCK LINK ===
    0x1605
=== CODE BLOCK END ===

=== CODE BLOCK ADDRESS 0x1605 ===
  0x1605	dec    	esp
  0x1606	mov    	eax, dword ptr [edi + 8]
  0x1609	dec    	eax
  0x160a	lea    	eax, [ebp + 0x17]
  0x160d	dec    	eax
  === BLOCK LINK ===
    0x160e
=== CODE BLOCK END ===

=== CODE BLOCK ADDRESS 0x160e ===
  0x160e	mov    	ecx, dword ptr [edi]
  0x1610	dec    	esp
  0x1611	lea    	ecx, [ebp + 7]
  0x1614	dec    	eax
  0x1615	mov    	dword ptr [esp + 0x38], eax
  === BLOCK LINK ===
    0x1619
=== CODE BLOCK END ===

=== CODE BLOCK ADDRESS 0x1619 ===
  0x1619	dec    	eax
  0x161a	lea    	edx, [ebp - 0x31]
  0x161d	dec    	eax
  0x161e	mov    	eax, dword ptr [edi + 0x18]
  0x1621	dec    	eax
  === BLOCK LINK ===
    0x1622
=== CODE BLOCK END ===

=== CODE BLOCK ADDRESS 0x1622 ===
  0x1622	mov    	dword ptr [esp + 0x30], eax
  0x1626	dec    	eax
  0x1627	lea    	eax, [ebp - 0x29]
  0x162a	dec    	eax
  0x162b	mov    	dword ptr [esp + 0x28], eax
  === BLOCK LINK ===
    0x162f
=== CODE BLOCK END ===

=== CODE BLOCK ADDRESS 0x162f ===
  0x162f	dec    	eax
  0x1630	mov    	eax, dword ptr [edi + 0x10]
  0x1633	dec    	eax
  0x1634	mov    	dword ptr [esp + 0x20], eax
  0x1638	call   	0x24a8
  === BLOCK LINK ===
    0x163d
=== CODE BLOCK END ===

=== CODE BLOCK ADDRESS 0x163d ===
  0x163d	inc    	esp
  0x163e	mov    	esi, eax
  0x1640	jmp    	0x1830
  === BLOCK LINK ===
    0x1645
=== CODE BLOCK END ===

=== CODE BLOCK ADDRESS 0x1645 ===
  0x1645	dec    	eax
  0x1646	mov    	eax, dword ptr [edi + 8]
  0x1649	jmp    	0x164e
  === BLOCK LINK ===
    0x164b
=== CODE BLOCK END ===

=== CODE BLOCK ADDRESS 0x164b ===
  0x164b	dec    	ecx
  0x164c	mov    	eax, edi
  0x164e	dec    	eax
  0x164f	mov    	ecx, dword ptr [edi]
  0x1651	inc    	ebp
  === BLOCK LINK ===
    0x1652
=== CODE BLOCK END ===

=== CODE BLOCK ADDRESS 0x1652 ===
  0x1652	mov    	esi, edi
  0x1654	dec    	ecx
  0x1655	mov    	edx, edi
  0x1657	dec    	eax
  0x1658	test   	eax, eax
  === BLOCK LINK ===
    0x165a
=== CODE BLOCK END ===

=== CODE BLOCK ADDRESS 0x165a ===
  0x165a	jne    	0x17fc
  === BLOCK LINK ===
    0x1660
=== CODE BLOCK END ===

=== CODE BLOCK ADDRESS 0x1660 ===
  0x1660	dec    	esp
  0x1661	lea    	eax, [0x1c79]
  0x1667	lea    	ebx, [eax + 5]
  0x166a	nop    	word ptr [eax + eax]
  0x1670	movzx  	eax, word ptr [ecx + edx*2]
  === BLOCK LINK ===
    0x1674
=== CODE BLOCK END ===

=== CODE BLOCK ADDRESS 0x1674 ===
  0x1674	dec    	eax
  0x1675	inc    	edx
  0x1677	inc    	cx
  0x1679	cmp    	eax, dword ptr [eax + edx*2 - 2]
  0x167d	jne    	0x168c
  === BLOCK LINK ===
    0x167f
=== CODE BLOCK END ===

=== CODE BLOCK ADDRESS 0x167f ===
  0x167f	dec    	eax
  0x1680	cmp    	edx, ebx
  0x1682	jne    	0x1670
  === BLOCK LINK ===
    0x1684
=== CODE BLOCK END ===

=== CODE BLOCK ADDRESS 0x1684 ===
  0x1684	inc    	ecx
  0x1685	mov    	ebx, edi
  0x1687	jmp    	0x1833
  === BLOCK LINK ===
    0x168c
=== CODE BLOCK END ===

=== CODE BLOCK ADDRESS 0x168c ===
  0x168c	dec    	eax
  0x168d	lea    	edx, [0x1c5d]
  0x1693	nop    	dword ptr [eax]
  0x1697	nop    	word ptr [eax + eax]
  0x16a0	inc    	edx
  === BLOCK LINK ===
    0x16a1
=== CODE BLOCK END ===

=== CODE BLOCK ADDRESS 0x16a1 ===
  0x16a1	movzx  	eax, word ptr [ecx + 2]
  0x16a6	inc    	dx
  0x16a8	cmp    	eax, dword ptr [edx + 2]
  0x16ac	jne    	0x16c8
  === BLOCK LINK ===
    0x16ae
=== CODE BLOCK END ===

=== CODE BLOCK ADDRESS 0x16ae ===
  0x16ae	dec    	ecx
  0x16af	add    	esp, 2
  0x16b2	mov    	eax, 9
  0x16b7	dec    	esp
  0x16b8	cmp    	esp, eax
  === BLOCK LINK ===
    0x16ba
=== CODE BLOCK END ===

=== CODE BLOCK ADDRESS 0x16ba ===
  0x16ba	je     	0x16fd
  === BLOCK LINK ===
    0x16bc
=== CODE BLOCK END ===

=== CODE BLOCK ADDRESS 0x16bc ===
  0x16bc	inc    	edx
  0x16bd	movzx  	eax, word ptr [ecx]
  0x16c1	inc    	dx
  0x16c3	cmp    	eax, dword ptr [edx]
  0x16c6	je     	0x16a0
  === BLOCK LINK ===
    0x16c8
=== CODE BLOCK END ===

=== CODE BLOCK ADDRESS 0x16c8 ===
  0x16c8	dec    	ecx
  0x16c9	mov    	edx, edi
  0x16cb	dec    	esp
  0x16cc	lea    	eax, [0x1c36]
  0x16d2	nop    	dword ptr [eax]
  === BLOCK LINK ===
    0x16d6
=== CODE BLOCK END ===

=== CODE BLOCK ADDRESS 0x16d6 ===
  0x16d6	nop    	word ptr [eax + eax]
  0x16e0	movzx  	eax, word ptr [ecx + edx*2]
  0x16e4	dec    	eax
  0x16e5	inc    	edx
  0x16e7	inc    	cx
  === BLOCK LINK ===
    0x16e9
=== CODE BLOCK END ===

=== CODE BLOCK ADDRESS 0x16e9 ===
  0x16e9	cmp    	eax, dword ptr [eax + edx*2 - 2]
  0x16ed	jne    	0x1707
  === BLOCK LINK ===
    0x16ef
=== CODE BLOCK END ===

=== CODE BLOCK ADDRESS 0x16ef ===
  0x16ef	dec    	eax
  0x16f0	cmp    	edx, 7
  0x16f3	jne    	0x16e0
  === BLOCK LINK ===
    0x16f5
=== CODE BLOCK END ===

=== CODE BLOCK ADDRESS 0x16f5 ===
  0x16f5	lea    	ebx, [edx - 4]
  0x16f8	jmp    	0x1833
  === BLOCK LINK ===
    0x16fd
=== CODE BLOCK END ===

=== CODE BLOCK ADDRESS 0x16fd ===
  0x16fd	mov    	ebx, 2
  0x1702	jmp    	0x1833
  === BLOCK LINK ===
    0x1707
=== CODE BLOCK END ===

=== CODE BLOCK ADDRESS 0x1707 ===
  0x1707	dec    	ecx
  0x1708	mov    	edx, edi
  0x170a	dec    	esp
  0x170b	lea    	eax, [0x1c07]
  0x1711	movzx  	eax, word ptr [ecx + edx*2]
  === BLOCK LINK ===
    0x1715
=== CODE BLOCK END ===

=== CODE BLOCK ADDRESS 0x1715 ===
  0x1715	dec    	eax
  0x1716	inc    	edx
  0x1718	inc    	cx
  0x171a	cmp    	eax, dword ptr [eax + edx*2 - 2]
  0x171e	jne    	0x172e
  === BLOCK LINK ===
    0x1720
=== CODE BLOCK END ===

=== CODE BLOCK ADDRESS 0x1720 ===
  0x1720	dec    	eax
  0x1721	cmp    	edx, 8
  0x1724	jne    	0x1711
  === BLOCK LINK ===
    0x1726
=== CODE BLOCK END ===

=== CODE BLOCK ADDRESS 0x1726 ===
  0x1726	lea    	ebx, [edx - 4]
  0x1729	jmp    	0x1833
  === BLOCK LINK ===
    0x172e
=== CODE BLOCK END ===

=== CODE BLOCK ADDRESS 0x172e ===
  0x172e	dec    	esp
  0x172f	lea    	eax, [0x1bf3]
  0x1735	dec    	ecx
  0x1736	mov    	edx, edi
  0x1738	nop    	dword ptr [eax + eax]
  === BLOCK LINK ===
    0x1740
=== CODE BLOCK END ===

=== CODE BLOCK ADDRESS 0x1740 ===
  0x1740	movzx  	eax, word ptr [ecx + edx*2]
  0x1744	inc    	cx
  0x1746	cmp    	eax, dword ptr [eax + edx*2]
  0x1749	jne    	0x176a
  === BLOCK LINK ===
    0x174b
=== CODE BLOCK END ===

=== CODE BLOCK ADDRESS 0x174b ===
  0x174b	movzx  	eax, word ptr [ecx + edx*2 + 2]
  0x1750	inc    	cx
  0x1752	cmp    	eax, dword ptr [eax + edx*2 + 2]
  0x1756	jne    	0x176a
  === BLOCK LINK ===
    0x1758
=== CODE BLOCK END ===

=== CODE BLOCK ADDRESS 0x1758 ===
  0x1758	dec    	eax
  0x1759	add    	edx, 2
  0x175c	dec    	eax
  0x175d	cmp    	edx, 0xa
  0x1760	jne    	0x1740
  === BLOCK LINK ===
    0x1762
=== CODE BLOCK END ===

=== CODE BLOCK ADDRESS 0x1762 ===
  0x1762	lea    	ebx, [edx - 9]
  0x1765	jmp    	0x1833
  === BLOCK LINK ===
    0x176a
=== CODE BLOCK END ===

=== CODE BLOCK ADDRESS 0x176a ===
  0x176a	dec    	ecx
  0x176b	mov    	edx, edi
  0x176d	dec    	esp
  0x176e	lea    	eax, [0x1bcc]
  0x1774	nop    	dword ptr [eax]
  === BLOCK LINK ===
    0x1778
=== CODE BLOCK END ===

=== CODE BLOCK ADDRESS 0x1778 ===
  0x1778	nop    	dword ptr [eax + eax]
  0x1780	movzx  	eax, word ptr [ecx + edx*2]
  0x1784	dec    	eax
  0x1785	inc    	edx
  0x1787	inc    	cx
  === BLOCK LINK ===
    0x1789
=== CODE BLOCK END ===

=== CODE BLOCK ADDRESS 0x1789 ===
  0x1789	cmp    	eax, dword ptr [eax + edx*2 - 2]
  0x178d	jne    	0x179a
  === BLOCK LINK ===
    0x178f
=== CODE BLOCK END ===

=== CODE BLOCK ADDRESS 0x178f ===
  0x178f	dec    	eax
  0x1790	cmp    	edx, 8
  0x1793	jne    	0x1780
  === BLOCK LINK ===
    0x1795
=== CODE BLOCK END ===

=== CODE BLOCK ADDRESS 0x1795 ===
  0x1795	jmp    	0x1833
  === BLOCK LINK ===
    0x179a
=== CODE BLOCK END ===

=== CODE BLOCK ADDRESS 0x179a ===
  0x179a	dec    	ecx
  0x179b	mov    	edx, edi
  0x179d	dec    	esp
  0x179e	lea    	eax, [0x1bac]
  0x17a4	nop    	dword ptr [eax]
  === BLOCK LINK ===
    0x17a8
=== CODE BLOCK END ===

=== CODE BLOCK ADDRESS 0x17a8 ===
  0x17a8	nop    	dword ptr [eax + eax]
  0x17b0	movzx  	eax, word ptr [ecx + edx*2]
  0x17b4	dec    	eax
  0x17b5	inc    	edx
  0x17b7	inc    	cx
  === BLOCK LINK ===
    0x17b9
=== CODE BLOCK END ===

=== CODE BLOCK ADDRESS 0x17b9 ===
  0x17b9	cmp    	eax, dword ptr [eax + edx*2 - 2]
  0x17bd	jne    	0x17cb
  === BLOCK LINK ===
    0x17bf
=== CODE BLOCK END ===

=== CODE BLOCK ADDRESS 0x17bf ===
  0x17bf	dec    	eax
  0x17c0	cmp    	edx, ebx
  0x17c2	jne    	0x17b0
  === BLOCK LINK ===
    0x17c4
=== CODE BLOCK END ===

=== CODE BLOCK ADDRESS 0x17c4 ===
  0x17c4	mov    	ebx, 7
  0x17c9	jmp    	0x1833
  === BLOCK LINK ===
    0x17cb
=== CODE BLOCK END ===

=== CODE BLOCK ADDRESS 0x17cb ===
  0x17cb	dec    	esp
  0x17cc	lea    	eax, [0x1b8e]
  0x17d2	dec    	ecx
  0x17d3	mov    	edx, edi
  0x17d5	movzx  	eax, word ptr [ecx + edx*2]
  === BLOCK LINK ===
    0x17d9
=== CODE BLOCK END ===

=== CODE BLOCK ADDRESS 0x17d9 ===
  0x17d9	inc    	cx
  0x17db	cmp    	eax, dword ptr [eax + edx*2]
  0x17de	jne    	0x182a
  === BLOCK LINK ===
    0x17e0
=== CODE BLOCK END ===

=== CODE BLOCK ADDRESS 0x17e0 ===
  0x17e0	movzx  	eax, word ptr [ecx + edx*2 + 2]
  0x17e5	inc    	cx
  0x17e7	cmp    	eax, dword ptr [eax + edx*2 + 2]
  0x17eb	jne    	0x182a
  === BLOCK LINK ===
    0x17ed
=== CODE BLOCK END ===

=== CODE BLOCK ADDRESS 0x17ed ===
  0x17ed	dec    	eax
  0x17ee	add    	edx, 2
  0x17f1	dec    	eax
  0x17f2	cmp    	edx, 0xa
  0x17f5	jne    	0x17d5
  === BLOCK LINK ===
    0x17f7
=== CODE BLOCK END ===

=== CODE BLOCK ADDRESS 0x17f7 ===
  0x17f7	lea    	ebx, [edx - 2]
  0x17fa	jmp    	0x1833
  === BLOCK LINK ===
    0x17fc
=== CODE BLOCK END ===

=== CODE BLOCK ADDRESS 0x17fc ===
  0x17fc	dec    	esp
  0x17fd	lea    	eax, [0x1b5d]
  0x1803	movzx  	eax, word ptr [ecx + edx*2]
  0x1807	inc    	cx
  0x1809	cmp    	eax, dword ptr [eax + edx*2]
  === BLOCK LINK ===
    0x180c
=== CODE BLOCK END ===

=== CODE BLOCK ADDRESS 0x180c ===
  0x180c	jne    	0x182a
  === BLOCK LINK ===
    0x180e
=== CODE BLOCK END ===

=== CODE BLOCK ADDRESS 0x180e ===
  0x180e	movzx  	eax, word ptr [ecx + edx*2 + 2]
  0x1813	inc    	cx
  0x1815	cmp    	eax, dword ptr [eax + edx*2 + 2]
  0x1819	jne    	0x182a
  === BLOCK LINK ===
    0x181b
=== CODE BLOCK END ===

=== CODE BLOCK ADDRESS 0x181b ===
  0x181b	dec    	eax
  0x181c	add    	edx, 2
  0x181f	dec    	eax
  0x1820	cmp    	edx, 0xa
  0x1823	jne    	0x1803
  === BLOCK LINK ===
    0x1825
=== CODE BLOCK END ===

=== CODE BLOCK ADDRESS 0x1825 ===
  0x1825	lea    	ebx, [edx - 1]
  0x1828	jmp    	0x1833
  === BLOCK LINK ===
    0x182a
=== CODE BLOCK END ===

=== CODE BLOCK ADDRESS 0x182a ===
  0x182a	inc    	ecx
  0x182b	mov    	esi, 0x80070667
  0x1830	mov    	ebx, dword ptr [ebp - 0x31]
  0x1833	dec    	eax
  0x1834	mov    	ecx, edi
  === BLOCK LINK ===
    0x1836
=== CODE BLOCK END ===

=== CODE BLOCK ADDRESS 0x1836 ===
  0x1836	dec    	eax
  0x1837	call   	dword ptr [0x18fb]
  === BLOCK LINK ===
    0x183d
=== CODE BLOCK END ===

=== CODE BLOCK ADDRESS 0x183d ===
  0x183d	nop    	dword ptr [eax + eax]
  0x1842	mov    	eax, 2
  0x1847	jmp    	0x1852
  === BLOCK LINK ===
    0x1849
=== CODE BLOCK END ===

=== CODE BLOCK ADDRESS 0x1849 ===
  0x1849	inc    	ecx
  0x184a	mov    	esi, 0x80070667
  0x184f	mov    	ebx, dword ptr [ebp - 0x31]
  0x1852	dec    	esp
  0x1853	mov    	ebp, dword ptr [esp + 0xb0]
  === BLOCK LINK ===
    0x185a
=== CODE BLOCK END ===

=== CODE BLOCK ADDRESS 0x185a ===
  0x185a	dec    	esp
  0x185b	mov    	esp, dword ptr [esp + 0xb8]
  0x1862	dec    	eax
  0x1863	mov    	edi, dword ptr [esp + 0xf8]
  0x186a	dec    	eax
  === BLOCK LINK ===
    0x186b
=== CODE BLOCK END ===

=== CODE BLOCK ADDRESS 0x186b ===
  0x186b	mov    	esi, dword ptr [esp + 0xe8]
  0x1872	inc    	ebp
  0x1873	test   	esi, esi
  0x1875	js     	0x1a67
  === BLOCK LINK ===
    0x187b
=== CODE BLOCK END ===

=== CODE BLOCK ADDRESS 0x187b ===
  0x187b	mov    	edx, eax
  0x187d	xor    	ecx, ecx
  0x187f	dec    	eax
  0x1880	call   	dword ptr [0x1942]
  === BLOCK LINK ===
    0x1886
=== CODE BLOCK END ===

=== CODE BLOCK ADDRESS 0x1886 ===
  0x1886	nop    	dword ptr [eax + eax]
  0x188b	inc    	esp
  0x188c	mov    	esi, eax
  0x188e	test   	eax, eax
  0x1890	js     	0x1a67
  === BLOCK LINK ===
    0x1896
=== CODE BLOCK END ===

=== CODE BLOCK ADDRESS 0x1896 ===
  0x1896	xor    	edx, edx
  0x1898	inc    	esp
  0x1899	lea    	eax, [edx + 1]
  0x189c	cmp    	ebx, 6
  0x189f	je     	0x1a00
  === BLOCK LINK ===
    0x18a5
=== CODE BLOCK END ===

=== CODE BLOCK ADDRESS 0x18a5 ===
  0x18a5	dec    	eax
  0x18a6	lea    	eax, [ebp - 0x29]
  0x18a9	dec    	esp
  0x18aa	lea    	ecx, [0x1b00]
  0x18b0	dec    	eax
  === BLOCK LINK ===
    0x18b1
=== CODE BLOCK END ===

=== CODE BLOCK ADDRESS 0x18b1 ===
  0x18b1	mov    	dword ptr [esp + 0x20], eax
  0x18b5	dec    	eax
  0x18b6	lea    	ecx, [0x1b24]
  0x18bc	dec    	eax
  0x18bd	call   	dword ptr [0x1915]
  === BLOCK LINK ===
    0x18c3
=== CODE BLOCK END ===

=== CODE BLOCK ADDRESS 0x18c3 ===
  0x18c3	nop    	dword ptr [eax + eax]
  0x18c8	inc    	esp
  0x18c9	mov    	esi, eax
  0x18cb	test   	eax, eax
  0x18cd	js     	0x1a5b
  === BLOCK LINK ===
    0x18d3
=== CODE BLOCK END ===

=== CODE BLOCK ADDRESS 0x18d3 ===
  0x18d3	cmp    	ebx, 9
  0x18d6	ja     	0x19f4
  === BLOCK LINK ===
    0x18dc
=== CODE BLOCK END ===

=== CODE BLOCK ADDRESS 0x18dc ===
  0x18dc	dec    	eax
  0x18dd	lea    	edx, [0xffffe71d]
  0x18e3	dec    	eax
  0x18e4	arpl   	bx, ax
  0x18e6	mov    	ecx, dword ptr [edx + eax*4 + 0x1a90]
  === BLOCK LINK ===
    0x18ed
=== CODE BLOCK END ===

=== CODE BLOCK ADDRESS 0x18ed ===
  0x18ed	dec    	eax
  0x18ee	add    	ecx, edx
  0x18f0	jmp    	ecx
  === BLOCK LINK ===
    0x18f2
=== CODE BLOCK END ===

=== CODE BLOCK ADDRESS 0x18f2 ===
  0x18f2	int3   	
  0x18f3	int3   	
  0x18f4	int3   	
  0x18f5	int3   	
  0x18f6	dec    	eax
  === BLOCK LINK ===
    0x18f7
=== CODE BLOCK END ===

=== CODE BLOCK ADDRESS 0x18f7 ===
  0x18f7	mov    	ecx, dword ptr [ebp - 0x29]
  0x18fa	xor    	edx, edx
  0x18fc	dec    	eax
  0x18fd	mov    	eax, dword ptr [ecx]
  0x18ff	dec    	eax
  === BLOCK LINK ===
    0x1900
=== CODE BLOCK END ===

=== CODE BLOCK ADDRESS 0x1900 ===
  0x1900	mov    	eax, dword ptr [eax + 0x18]
  0x1903	call   	dword ptr [0x196f]
  === BLOCK LINK ===
    0x1909
=== CODE BLOCK END ===

=== CODE BLOCK ADDRESS 0x1909 ===
  0x1909	dec    	eax
  0x190a	mov    	ecx, dword ptr [ebp - 0x29]
  0x190d	inc    	esp
  0x190e	mov    	esi, eax
  0x1910	jmp    	0x1a4e
  === BLOCK LINK ===
    0x1915
=== CODE BLOCK END ===

=== CODE BLOCK ADDRESS 0x1915 ===
  0x1915	dec    	eax
  0x1916	mov    	ecx, dword ptr [ebp - 0x29]
  0x1919	mov    	edx, 1
  0x191e	dec    	eax
  0x191f	mov    	eax, dword ptr [ecx]
  === BLOCK LINK ===
    0x1921
=== CODE BLOCK END ===

=== CODE BLOCK ADDRESS 0x1921 ===
  0x1921	dec    	eax
  0x1922	mov    	eax, dword ptr [eax + 0x18]
  0x1925	call   	dword ptr [0x194d]
  === BLOCK LINK ===
    0x192b
=== CODE BLOCK END ===

=== CODE BLOCK ADDRESS 0x192b ===
  0x192b	dec    	eax
  0x192c	mov    	ecx, dword ptr [ebp - 0x29]
  0x192f	inc    	esp
  0x1930	mov    	esi, eax
  0x1932	jmp    	0x1a4e
  === BLOCK LINK ===
    0x1937
=== CODE BLOCK END ===

=== CODE BLOCK ADDRESS 0x1937 ===
  0x1937	dec    	eax
  0x1938	mov    	ecx, dword ptr [ebp - 0x29]
  0x193b	dec    	eax
  0x193c	mov    	eax, dword ptr [ecx]
  0x193e	dec    	eax
  === BLOCK LINK ===
    0x193f
=== CODE BLOCK END ===

=== CODE BLOCK ADDRESS 0x193f ===
  0x193f	mov    	eax, dword ptr [eax + 0x20]
  0x1942	call   	dword ptr [0x1930]
  === BLOCK LINK ===
    0x1948
=== CODE BLOCK END ===

=== CODE BLOCK ADDRESS 0x1948 ===
  0x1948	dec    	eax
  0x1949	mov    	ecx, dword ptr [ebp - 0x29]
  0x194c	inc    	esp
  0x194d	mov    	esi, eax
  0x194f	jmp    	0x1a4e
  === BLOCK LINK ===
    0x1954
=== CODE BLOCK END ===

=== CODE BLOCK ADDRESS 0x1954 ===
  0x1954	dec    	eax
  0x1955	mov    	ecx, dword ptr [ebp - 0x29]
  0x1958	mov    	edx, 1
  0x195d	dec    	eax
  0x195e	mov    	eax, dword ptr [ecx]
  === BLOCK LINK ===
    0x1960
=== CODE BLOCK END ===

=== CODE BLOCK ADDRESS 0x1960 ===
  0x1960	dec    	eax
  0x1961	mov    	eax, dword ptr [eax + 0x38]
  0x1964	call   	dword ptr [0x190e]
  === BLOCK LINK ===
    0x196a
=== CODE BLOCK END ===

=== CODE BLOCK ADDRESS 0x196a ===
  0x196a	dec    	eax
  0x196b	mov    	ecx, dword ptr [ebp - 0x29]
  0x196e	inc    	esp
  0x196f	mov    	esi, eax
  0x1971	jmp    	0x1a4e
  === BLOCK LINK ===
    0x1976
=== CODE BLOCK END ===

=== CODE BLOCK ADDRESS 0x1976 ===
  0x1976	dec    	eax
  0x1977	mov    	ecx, dword ptr [ebp - 0x29]
  0x197a	xor    	edx, edx
  0x197c	dec    	eax
  0x197d	mov    	eax, dword ptr [ecx]
  === BLOCK LINK ===
    0x197f
=== CODE BLOCK END ===

=== CODE BLOCK ADDRESS 0x197f ===
  0x197f	dec    	eax
  0x1980	mov    	eax, dword ptr [eax + 0x38]
  0x1983	call   	dword ptr [0x18ef]
  === BLOCK LINK ===
    0x1989
=== CODE BLOCK END ===

=== CODE BLOCK ADDRESS 0x1989 ===
  0x1989	dec    	eax
  0x198a	mov    	ecx, dword ptr [ebp - 0x29]
  0x198d	inc    	esp
  0x198e	mov    	esi, eax
  0x1990	jmp    	0x1a4e
  === BLOCK LINK ===
    0x1995
=== CODE BLOCK END ===

=== CODE BLOCK ADDRESS 0x1995 ===
  0x1995	dec    	eax
  0x1996	mov    	ecx, dword ptr [ebp - 0x29]
  0x1999	mov    	edx, 1
  0x199e	dec    	eax
  0x199f	mov    	eax, dword ptr [ecx]
  === BLOCK LINK ===
    0x19a1
=== CODE BLOCK END ===

=== CODE BLOCK ADDRESS 0x19a1 ===
  0x19a1	dec    	eax
  0x19a2	mov    	eax, dword ptr [eax + 0x30]
  0x19a5	call   	dword ptr [0x18cd]
  === BLOCK LINK ===
    0x19ab
=== CODE BLOCK END ===

=== CODE BLOCK ADDRESS 0x19ab ===
  0x19ab	dec    	eax
  0x19ac	mov    	ecx, dword ptr [ebp - 0x29]
  0x19af	inc    	esp
  0x19b0	mov    	esi, eax
  0x19b2	jmp    	0x1a4e
  === BLOCK LINK ===
    0x19b7
=== CODE BLOCK END ===

=== CODE BLOCK ADDRESS 0x19b7 ===
  0x19b7	dec    	eax
  0x19b8	mov    	ecx, dword ptr [ebp - 0x29]
  0x19bb	dec    	eax
  0x19bc	mov    	eax, dword ptr [ecx]
  0x19be	dec    	eax
  === BLOCK LINK ===
    0x19bf
=== CODE BLOCK END ===

=== CODE BLOCK ADDRESS 0x19bf ===
  0x19bf	mov    	eax, dword ptr [eax + 0x40]
  0x19c2	call   	dword ptr [0x18b0]
  === BLOCK LINK ===
    0x19c8
=== CODE BLOCK END ===

=== CODE BLOCK ADDRESS 0x19c8 ===
  0x19c8	dec    	eax
  0x19c9	mov    	ecx, dword ptr [ebp - 0x29]
  0x19cc	inc    	esp
  0x19cd	mov    	esi, eax
  0x19cf	jmp    	0x1a4e
  === BLOCK LINK ===
    0x19d1
=== CODE BLOCK END ===

=== CODE BLOCK ADDRESS 0x19d1 ===
  0x19d1	dec    	eax
  0x19d2	mov    	ecx, dword ptr [ebp - 0x29]
  0x19d5	dec    	eax
  0x19d6	mov    	eax, dword ptr [ecx]
  0x19d8	dec    	eax
  === BLOCK LINK ===
    0x19d9
=== CODE BLOCK END ===

=== CODE BLOCK ADDRESS 0x19d9 ===
  0x19d9	mov    	eax, dword ptr [eax + 0x48]
  0x19dc	call   	dword ptr [0x1896]
  === BLOCK LINK ===
    0x19e2
=== CODE BLOCK END ===

=== CODE BLOCK ADDRESS 0x19e2 ===
  0x19e2	dec    	eax
  0x19e3	mov    	ecx, dword ptr [ebp - 0x29]
  0x19e6	inc    	esp
  0x19e7	mov    	esi, eax
  0x19e9	jmp    	0x1a4e
  === BLOCK LINK ===
    0x19eb
=== CODE BLOCK END ===

=== CODE BLOCK ADDRESS 0x19eb ===
  0x19eb	dec    	eax
  0x19ec	mov    	ecx, dword ptr [ebp - 0x29]
  0x19ef	inc    	ebp
  0x19f0	mov    	esi, edi
  0x19f2	jmp    	0x1a4e
  === BLOCK LINK ===
    0x19f4
=== CODE BLOCK END ===

=== CODE BLOCK ADDRESS 0x19f4 ===
  0x19f4	dec    	eax
  0x19f5	mov    	ecx, dword ptr [ebp - 0x29]
  0x19f8	inc    	ecx
  0x19f9	mov    	esi, 0x80004001
  0x19fe	jmp    	0x1a4e
  === BLOCK LINK ===
    0x1a00
=== CODE BLOCK END ===

=== CODE BLOCK ADDRESS 0x1a00 ===
  0x1a00	dec    	eax
  0x1a01	lea    	eax, [ebp - 0x19]
  0x1a04	dec    	esp
  0x1a05	lea    	ecx, [0x19b5]
  0x1a0b	dec    	eax
  === BLOCK LINK ===
    0x1a0c
=== CODE BLOCK END ===

=== CODE BLOCK ADDRESS 0x1a0c ===
  0x1a0c	mov    	dword ptr [esp + 0x20], eax
  0x1a10	dec    	eax
  0x1a11	lea    	ecx, [0x19b9]
  0x1a17	dec    	eax
  0x1a18	call   	dword ptr [0x17ba]
  === BLOCK LINK ===
    0x1a1e
=== CODE BLOCK END ===

=== CODE BLOCK ADDRESS 0x1a1e ===
  0x1a1e	nop    	dword ptr [eax + eax]
  0x1a23	inc    	esp
  0x1a24	mov    	esi, eax
  0x1a26	test   	eax, eax
  0x1a28	js     	0x1a5b
  === BLOCK LINK ===
    0x1a2a
=== CODE BLOCK END ===

=== CODE BLOCK ADDRESS 0x1a2a ===
  0x1a2a	dec    	eax
  0x1a2b	mov    	ecx, dword ptr [ebp - 0x19]
  0x1a2e	dec    	esp
  0x1a2f	lea    	eax, [ebp + 7]
  0x1a32	inc    	esp
  === BLOCK LINK ===
    0x1a33
=== CODE BLOCK END ===

=== CODE BLOCK ADDRESS 0x1a33 ===
  0x1a33	mov    	ecx, dword ptr [ebp - 0x29]
  0x1a36	dec    	eax
  0x1a37	lea    	edx, [ebp + 0x17]
  0x1a3a	dec    	eax
  0x1a3b	mov    	eax, dword ptr [ecx]
  === BLOCK LINK ===
    0x1a3d
=== CODE BLOCK END ===

=== CODE BLOCK ADDRESS 0x1a3d ===
  0x1a3d	dec    	eax
  0x1a3e	mov    	eax, dword ptr [eax + 0x18]
  0x1a41	call   	dword ptr [0x1831]
  === BLOCK LINK ===
    0x1a47
=== CODE BLOCK END ===

=== CODE BLOCK ADDRESS 0x1a47 ===
  0x1a47	dec    	eax
  0x1a48	mov    	ecx, dword ptr [ebp - 0x19]
  0x1a4b	inc    	esp
  0x1a4c	mov    	esi, eax
  0x1a4e	dec    	eax
  === BLOCK LINK ===
    0x1a4f
=== CODE BLOCK END ===

=== CODE BLOCK ADDRESS 0x1a4f ===
  0x1a4f	mov    	eax, dword ptr [ecx]
  0x1a51	dec    	eax
  0x1a52	mov    	eax, dword ptr [eax + 0x10]
  0x1a55	call   	dword ptr [0x181d]
  === BLOCK LINK ===
    0x1a5b
=== CODE BLOCK END ===

=== CODE BLOCK ADDRESS 0x1a5b ===
  0x1a5b	dec    	eax
  0x1a5c	call   	dword ptr [0x176e]
  === BLOCK LINK ===
    0x1a62
=== CODE BLOCK END ===

=== CODE BLOCK ADDRESS 0x1a62 ===
  0x1a62	nop    	dword ptr [eax + eax]
  0x1a67	dec    	eax
  0x1a68	mov    	ebx, dword ptr [esp + 0xe0]
  0x1a6f	inc    	ecx
  0x1a70	shr    	esi, 0x1f
  === BLOCK LINK ===
    0x1a73
=== CODE BLOCK END ===

=== CODE BLOCK ADDRESS 0x1a73 ===
  0x1a73	inc    	ecx
  0x1a74	mov    	eax, esi
  0x1a76	dec    	eax
  0x1a77	mov    	ecx, dword ptr [ebp + 0x27]
  0x1a7a	dec    	eax
  === BLOCK LINK ===
    0x1a7b
=== CODE BLOCK END ===

=== CODE BLOCK ADDRESS 0x1a7b ===
  0x1a7b	xor    	ecx, esp
  0x1a7d	call   	0x1e90
  === BLOCK LINK ===
    0x1a82
=== CODE BLOCK END ===

=== CODE BLOCK ADDRESS 0x1a82 ===
  0x1a82	dec    	eax
  0x1a83	add    	esp, 0xc0
  0x1a89	inc    	ecx
  0x1a8a	pop    	edi
  0x1a8b	inc    	ecx
  === BLOCK LINK ===
    0x1a8c
=== CODE BLOCK END ===

=== CODE BLOCK ADDRESS 0x1a8c ===
  0x1a8c	pop    	esi
  0x1a8d	pop    	ebp
  0x1a8e	ret    	
  0x1a8f	int3   	
  0x1a90	neg    	byte ptr [eax]
  === BLOCK LINK ===
    0x1a92
=== CODE BLOCK END ===

=== CODE BLOCK ADDRESS 0x1a92 ===
  0x1a92	add    	byte ptr [eax], al
  0x1a94	adc    	eax, 0x37000019
  0x1a99	sbb    	dword ptr [eax], eax
  0x1a9b	add    	byte ptr [ecx + ebx], dl
  0x1a9f	add    	byte ptr [esi + 0x19], dh
  === BLOCK LINK ===
    0x1aa2
=== CODE BLOCK END ===

=== CODE BLOCK ADDRESS 0x1aa2 ===
  0x1aa2	add    	byte ptr [eax], al
  0x1aa4	xchg   	eax, ebp
  0x1aa5	sbb    	dword ptr [eax], eax
  0x1aa7	add    	ah, dh
  0x1aa9	sbb    	dword ptr [eax], eax
  === BLOCK LINK ===
    0x1aab
=== CODE BLOCK END ===

=== CODE BLOCK ADDRESS 0x1aab ===
  0x1aab	add    	byte ptr [edi - 0x2effffe7], dh
  0x1ab1	sbb    	dword ptr [eax], eax
  0x1ab3	add    	bl, ch
  0x1ab5	sbb    	dword ptr [eax], eax
  0x1ab7	add    	ah, cl
  === BLOCK LINK ===
    0x1ab9
=== CODE BLOCK END ===

=== CODE BLOCK ADDRESS 0x1ab9 ===
  0x1ab9	int3   	
  0x1aba	int3   	
  0x1abb	int3   	
  0x1abc	int3   	
  0x1abd	int3   	
  === BLOCK LINK ===
    0x1abe
=== CODE BLOCK END ===

=== CODE BLOCK ADDRESS 0x1abe ===
  0x1abe	int3   	
  0x1abf	int3   	
  0x1ac0	dec    	eax
  0x1ac1	sub    	esp, 0x28
  0x1ac4	mov    	eax, 0x5a4d
  === BLOCK LINK ===
    0x1ac9
=== CODE BLOCK END ===

=== CODE BLOCK ADDRESS 0x1ac9 ===
  0x1ac9	cmp    	word ptr [0xffffe530], ax
  0x1ad0	je     	0x1ad6
  === BLOCK LINK ===
    0x1ad2
=== CODE BLOCK END ===

=== CODE BLOCK ADDRESS 0x1ad2 ===
  0x1ad2	xor    	eax, eax
  0x1ad4	jmp    	0x1b29
  === BLOCK LINK ===
    0x1ad6
=== CODE BLOCK END ===

=== CODE BLOCK ADDRESS 0x1ad6 ===
  0x1ad6	dec    	eax
  0x1ad7	arpl   	word ptr [0xffffe55f], cx
  0x1add	dec    	eax
  0x1ade	lea    	eax, [0xffffe51c]
  0x1ae4	dec    	eax
  === BLOCK LINK ===
    0x1ae5
=== CODE BLOCK END ===

=== CODE BLOCK ADDRESS 0x1ae5 ===
  0x1ae5	add    	ecx, eax
  0x1ae7	cmp    	dword ptr [ecx], 0x4550
  0x1aed	jne    	0x1ad2
  === BLOCK LINK ===
    0x1aef
=== CODE BLOCK END ===

=== CODE BLOCK ADDRESS 0x1aef ===
  0x1aef	mov    	eax, 0x10b
  0x1af4	cmp    	word ptr [ecx + 0x18], ax
  0x1af8	je     	0x1b18
  === BLOCK LINK ===
    0x1afa
=== CODE BLOCK END ===

=== CODE BLOCK ADDRESS 0x1afa ===
  0x1afa	mov    	eax, 0x20b
  0x1aff	cmp    	word ptr [ecx + 0x18], ax
  0x1b03	jne    	0x1ad2
  === BLOCK LINK ===
    0x1b05
=== CODE BLOCK END ===

=== CODE BLOCK ADDRESS 0x1b05 ===
  0x1b05	xor    	eax, eax
  0x1b07	cmp    	dword ptr [ecx + 0x84], 0xe
  0x1b0e	jbe    	0x1b29
  === BLOCK LINK ===
    0x1b10
=== CODE BLOCK END ===

=== CODE BLOCK ADDRESS 0x1b10 ===
  0x1b10	cmp    	dword ptr [ecx + 0xf8], eax
  0x1b16	jmp    	0x1b26
  === BLOCK LINK ===
    0x1b18
=== CODE BLOCK END ===

=== CODE BLOCK ADDRESS 0x1b18 ===
  0x1b18	xor    	eax, eax
  0x1b1a	cmp    	dword ptr [ecx + 0x74], 0xe
  0x1b1e	jbe    	0x1b29
  === BLOCK LINK ===
    0x1b20
=== CODE BLOCK END ===

=== CODE BLOCK ADDRESS 0x1b20 ===
  0x1b20	cmp    	dword ptr [ecx + 0xe8], eax
  0x1b26	setne  	al
  0x1b29	mov    	ecx, 2
  0x1b2e	mov    	dword ptr [0x251c], eax
  0x1b34	call   	0x1f88
  === BLOCK LINK ===
    0x1b39
=== CODE BLOCK END ===

=== CODE BLOCK ADDRESS 0x1b39 ===
  0x1b39	mov    	ecx, eax
  0x1b3b	call   	dword ptr [0x16ff]
  === BLOCK LINK ===
    0x1b41
=== CODE BLOCK END ===

=== CODE BLOCK ADDRESS 0x1b41 ===
  0x1b41	dec    	eax
  0x1b42	mov    	ecx, dword ptr [0x16b8]
  0x1b48	dec    	eax
  0x1b49	or     	eax, 0xffffffff
  0x1b4c	dec    	eax
  === BLOCK LINK ===
    0x1b4d
=== CODE BLOCK END ===

=== CODE BLOCK ADDRESS 0x1b4d ===
  0x1b4d	mov    	dword ptr [0x2a9d], eax
  0x1b53	dec    	eax
  0x1b54	mov    	dword ptr [0x2a9e], eax
  0x1b5a	mov    	eax, dword ptr [0x2504]
  0x1b60	mov    	dword ptr [ecx], eax
  === BLOCK LINK ===
    0x1b62
=== CODE BLOCK END ===

=== CODE BLOCK ADDRESS 0x1b62 ===
  0x1b62	dec    	eax
  0x1b63	mov    	ecx, dword ptr [0x168f]
  0x1b69	mov    	eax, dword ptr [0x24e9]
  0x1b6f	mov    	dword ptr [ecx], eax
  0x1b71	call   	0x1fe0
  === BLOCK LINK ===
    0x1b76
=== CODE BLOCK END ===

=== CODE BLOCK ADDRESS 0x1b76 ===
  0x1b76	cmp    	dword ptr [0x2483], 0
  0x1b7d	jne    	0x1b8c
  === BLOCK LINK ===
    0x1b7f
=== CODE BLOCK END ===

=== CODE BLOCK ADDRESS 0x1b7f ===
  0x1b7f	dec    	eax
  0x1b80	lea    	ecx, [0x45a]
  0x1b86	call   	dword ptr [0x1694]
  === BLOCK LINK ===
    0x1b8c
=== CODE BLOCK END ===

=== CODE BLOCK ADDRESS 0x1b8c ===
  0x1b8c	xor    	eax, eax
  0x1b8e	dec    	eax
  0x1b8f	add    	esp, 0x28
  0x1b92	ret    	
  0x1b93	int3   	
  === BLOCK LINK ===
    0x1b94
=== CODE BLOCK END ===

=== CODE BLOCK ADDRESS 0x1b94 ===
  0x1b94	int3   	
  0x1b95	int3   	
  0x1b96	int3   	
  0x1b97	int3   	
  0x1b98	int3   	
  === BLOCK LINK ===
    0x1b99
=== CODE BLOCK END ===

=== CODE BLOCK ADDRESS 0x1b99 ===
  0x1b99	int3   	
  0x1b9a	int3   	
  0x1b9b	int3   	
  0x1b9c	int3   	
  0x1b9d	int3   	
  === BLOCK LINK ===
    0x1b9e
=== CODE BLOCK END ===

=== CODE BLOCK ADDRESS 0x1b9e ===
  0x1b9e	int3   	
  0x1b9f	int3   	
  0x1ba0	dec    	eax
  0x1ba1	sub    	esp, 0x38
  0x1ba4	mov    	eax, dword ptr [0x24b6]
  === BLOCK LINK ===
    0x1baa
=== CODE BLOCK END ===

=== CODE BLOCK ADDRESS 0x1baa ===
  0x1baa	dec    	esp
  0x1bab	lea    	eax, [0x2497]
  0x1bb1	inc    	esp
  0x1bb2	mov    	ecx, dword ptr [0x24a4]
  0x1bb8	dec    	eax
  === BLOCK LINK ===
    0x1bb9
=== CODE BLOCK END ===

=== CODE BLOCK ADDRESS 0x1bb9 ===
  0x1bb9	lea    	edx, [0x2481]
  0x1bbf	mov    	dword ptr [0x248f], eax
  0x1bc5	dec    	eax
  0x1bc6	lea    	ecx, [0x246c]
  0x1bcc	dec    	eax
  === BLOCK LINK ===
    0x1bcd
=== CODE BLOCK END ===

=== CODE BLOCK ADDRESS 0x1bcd ===
  0x1bcd	lea    	eax, [0x2481]
  0x1bd3	dec    	eax
  0x1bd4	mov    	dword ptr [esp + 0x20], eax
  0x1bd8	call   	dword ptr [0x166a]
  === BLOCK LINK ===
    0x1bde
=== CODE BLOCK END ===

=== CODE BLOCK ADDRESS 0x1bde ===
  0x1bde	mov    	dword ptr [0x2458], eax
  0x1be4	dec    	eax
  0x1be5	add    	esp, 0x38
  0x1be8	ret    	
  0x1be9	int3   	
  === BLOCK LINK ===
    0x1bea
=== CODE BLOCK END ===

=== CODE BLOCK ADDRESS 0x1bea ===
  0x1bea	int3   	
  0x1beb	int3   	
  0x1bec	int3   	
  0x1bed	int3   	
  0x1bee	int3   	
  === BLOCK LINK ===
    0x1bef
=== CODE BLOCK END ===

=== CODE BLOCK ADDRESS 0x1bef ===
  0x1bef	int3   	
  0x1bf0	dec    	eax
  0x1bf1	mov    	eax, esp
  0x1bf3	dec    	eax
  0x1bf4	mov    	dword ptr [eax + 8], ebx
  === BLOCK LINK ===
    0x1bf7
=== CODE BLOCK END ===

=== CODE BLOCK ADDRESS 0x1bf7 ===
  0x1bf7	dec    	eax
  0x1bf8	mov    	dword ptr [eax + 0x10], esi
  0x1bfb	dec    	eax
  0x1bfc	mov    	dword ptr [eax + 0x18], edi
  0x1bff	dec    	esp
  === BLOCK LINK ===
    0x1c00
=== CODE BLOCK END ===

=== CODE BLOCK ADDRESS 0x1c00 ===
  0x1c00	mov    	dword ptr [eax + 0x20], esi
  0x1c03	inc    	ecx
  0x1c04	push   	edi
  0x1c05	dec    	eax
  0x1c06	sub    	esp, 0xb0
  === BLOCK LINK ===
    0x1c0c
=== CODE BLOCK END ===

=== CODE BLOCK ADDRESS 0x1c0c ===
  0x1c0c	inc    	ebp
  0x1c0d	xor    	esi, esi
  0x1c0f	inc    	esp
  0x1c10	mov    	dword ptr [esp + 0x20], esi
  0x1c14	dec    	eax
  === BLOCK LINK ===
    0x1c15
=== CODE BLOCK END ===

=== CODE BLOCK ADDRESS 0x1c15 ===
  0x1c15	lea    	ecx, [eax - 0x78]
  0x1c18	call   	dword ptr [0x1592]
  === BLOCK LINK ===
    0x1c1e
=== CODE BLOCK END ===

=== CODE BLOCK ADDRESS 0x1c1e ===
  0x1c1e	nop    	
  0x1c1f	dec    	eax
  0x1c21	mov    	eax, dword ptr [0x30]
  0x1c28	dec    	eax
  0x1c29	mov    	ebx, dword ptr [eax + 8]
  === BLOCK LINK ===
    0x1c2c
=== CODE BLOCK END ===

=== CODE BLOCK ADDRESS 0x1c2c ===
  0x1c2c	inc    	ecx
  0x1c2d	mov    	esi, esi
  0x1c2f	xor    	eax, eax
  0x1c31	.byte  	0xf0
  0x1c32	dec    	eax
  === BLOCK LINK ===
    0x1c33
=== CODE BLOCK END ===

=== CODE BLOCK ADDRESS 0x1c33 ===
  0x1c33	cmpxchg  	dword ptr [0x29a6], ebx
  0x1c3a	je     	0x1c57
  === BLOCK LINK ===
    0x1c3c
=== CODE BLOCK END ===

=== CODE BLOCK ADDRESS 0x1c3c ===
  0x1c3c	dec    	eax
  0x1c3d	cmp    	eax, ebx
  0x1c3f	jne    	0x1c4a
  === BLOCK LINK ===
    0x1c41
=== CODE BLOCK END ===

=== CODE BLOCK ADDRESS 0x1c41 ===
  0x1c41	mov    	ebx, 1
  0x1c46	mov    	esi, ebx
  0x1c48	jmp    	0x1c5c
  === BLOCK LINK ===
    0x1c4a
=== CODE BLOCK END ===

=== CODE BLOCK ADDRESS 0x1c4a ===
  0x1c4a	mov    	ecx, 0x3e8
  0x1c4f	call   	dword ptr [0x1563]
  === BLOCK LINK ===
    0x1c55
=== CODE BLOCK END ===

=== CODE BLOCK ADDRESS 0x1c55 ===
  0x1c55	jmp    	0x1c2f
  === BLOCK LINK ===
    0x1c57
=== CODE BLOCK END ===

=== CODE BLOCK ADDRESS 0x1c57 ===
  0x1c57	mov    	ebx, 1
  0x1c5c	mov    	eax, dword ptr [0x2986]
  0x1c62	cmp    	eax, ebx
  0x1c64	jne    	0x1c74
  === BLOCK LINK ===
    0x1c66
=== CODE BLOCK END ===

=== CODE BLOCK ADDRESS 0x1c66 ===
  0x1c66	mov    	edi, 0x1f
  0x1c6b	mov    	ecx, edi
  0x1c6d	call   	0x1fd3
  === BLOCK LINK ===
    0x1c72
=== CODE BLOCK END ===

=== CODE BLOCK ADDRESS 0x1c72 ===
  0x1c72	jmp    	0x1ce0
  === BLOCK LINK ===
    0x1c74
=== CODE BLOCK END ===

=== CODE BLOCK ADDRESS 0x1c74 ===
  0x1c74	mov    	eax, dword ptr [0x296e]
  0x1c7a	test   	eax, eax
  0x1c7c	jne    	0x1cd5
  === BLOCK LINK ===
    0x1c7e
=== CODE BLOCK END ===

=== CODE BLOCK ADDRESS 0x1c7e ===
  0x1c7e	mov    	dword ptr [0x2964], ebx
  0x1c84	dec    	esp
  0x1c85	lea    	edi, [0x1625]
  0x1c8b	dec    	eax
  0x1c8c	lea    	edi, [0x1606]
  === BLOCK LINK ===
    0x1c92
=== CODE BLOCK END ===

=== CODE BLOCK ADDRESS 0x1c92 ===
  0x1c92	dec    	eax
  0x1c93	mov    	dword ptr [esp + 0x30], edi
  0x1c97	inc    	ecx
  0x1c98	mov    	eax, esi
  0x1c9a	mov    	dword ptr [esp + 0x24], eax
  === BLOCK LINK ===
    0x1c9e
=== CODE BLOCK END ===

=== CODE BLOCK ADDRESS 0x1c9e ===
  0x1c9e	dec    	ecx
  0x1c9f	cmp    	edi, edi
  0x1ca1	jae    	0x1cc7
  === BLOCK LINK ===
    0x1ca3
=== CODE BLOCK END ===

=== CODE BLOCK ADDRESS 0x1ca3 ===
  0x1ca3	test   	eax, eax
  0x1ca5	jne    	0x1ccb
  === BLOCK LINK ===
    0x1ca7
=== CODE BLOCK END ===

=== CODE BLOCK ADDRESS 0x1ca7 ===
  0x1ca7	dec    	esp
  0x1ca8	cmp    	dword ptr [edi], esi
  0x1caa	je     	0x1cbc
  === BLOCK LINK ===
    0x1cac
=== CODE BLOCK END ===

=== CODE BLOCK ADDRESS 0x1cac ===
  0x1cac	dec    	eax
  0x1cad	mov    	eax, dword ptr [edi]
  0x1caf	dec    	eax
  0x1cb0	mov    	ecx, dword ptr [0x15c2]
  0x1cb6	call   	ecx
  === BLOCK LINK ===
    0x1cb8
=== CODE BLOCK END ===

=== CODE BLOCK ADDRESS 0x1cb8 ===
  0x1cb8	mov    	dword ptr [esp + 0x24], eax
  0x1cbc	dec    	eax
  0x1cbd	add    	edi, 8
  0x1cc0	dec    	eax
  0x1cc1	mov    	dword ptr [esp + 0x30], edi
  === BLOCK LINK ===
    0x1cc5
=== CODE BLOCK END ===

=== CODE BLOCK ADDRESS 0x1cc5 ===
  0x1cc5	jmp    	0x1c9e
  === BLOCK LINK ===
    0x1cc7
=== CODE BLOCK END ===

=== CODE BLOCK ADDRESS 0x1cc7 ===
  0x1cc7	test   	eax, eax
  0x1cc9	je     	0x1cdb
  === BLOCK LINK ===
    0x1ccb
=== CODE BLOCK END ===

=== CODE BLOCK ADDRESS 0x1ccb ===
  0x1ccb	mov    	eax, 0xff
  0x1cd0	jmp    	0x1e36
  === BLOCK LINK ===
    0x1cd5
=== CODE BLOCK END ===

=== CODE BLOCK ADDRESS 0x1cd5 ===
  0x1cd5	mov    	dword ptr [0x2359], ebx
  0x1cdb	mov    	edi, 0x1f
  0x1ce0	mov    	eax, dword ptr [0x2902]
  0x1ce6	cmp    	eax, ebx
  0x1ce8	jne    	0x1d07
  === BLOCK LINK ===
    0x1cea
=== CODE BLOCK END ===

=== CODE BLOCK ADDRESS 0x1cea ===
  0x1cea	dec    	eax
  0x1ceb	lea    	edx, [0x159f]
  0x1cf1	dec    	eax
  0x1cf2	lea    	ecx, [0x1588]
  0x1cf8	call   	0x21ae
  === BLOCK LINK ===
    0x1cfd
=== CODE BLOCK END ===

=== CODE BLOCK ADDRESS 0x1cfd ===
  0x1cfd	mov    	dword ptr [0x28e1], 2
  0x1d07	test   	esi, esi
  0x1d09	jne    	0x1d15
  === BLOCK LINK ===
    0x1d0b
=== CODE BLOCK END ===

=== CODE BLOCK ADDRESS 0x1d0b ===
  0x1d0b	dec    	ecx
  0x1d0c	mov    	eax, esi
  0x1d0e	dec    	eax
  0x1d0f	xchg   	dword ptr [0x28cb], eax
  0x1d15	dec    	esp
  === BLOCK LINK ===
    0x1d16
=== CODE BLOCK END ===

=== CODE BLOCK ADDRESS 0x1d16 ===
  0x1d16	cmp    	dword ptr [0x28e4], esi
  0x1d1c	je     	0x1d48
  === BLOCK LINK ===
    0x1d1e
=== CODE BLOCK END ===

=== CODE BLOCK ADDRESS 0x1d1e ===
  0x1d1e	dec    	eax
  0x1d1f	lea    	ecx, [0x28db]
  0x1d25	call   	0x2040
  === BLOCK LINK ===
    0x1d2a
=== CODE BLOCK END ===

=== CODE BLOCK ADDRESS 0x1d2a ===
  0x1d2a	test   	eax, eax
  0x1d2c	je     	0x1d48
  === BLOCK LINK ===
    0x1d2e
=== CODE BLOCK END ===

=== CODE BLOCK ADDRESS 0x1d2e ===
  0x1d2e	inc    	ebp
  0x1d2f	xor    	eax, eax
  0x1d31	inc    	ecx
  0x1d32	lea    	edx, [eax + 2]
  0x1d35	xor    	ecx, ecx
  === BLOCK LINK ===
    0x1d37
=== CODE BLOCK END ===

=== CODE BLOCK ADDRESS 0x1d37 ===
  0x1d37	dec    	eax
  0x1d38	mov    	eax, dword ptr [0x28c2]
  0x1d3e	dec    	esp
  0x1d3f	mov    	ecx, dword ptr [0x1533]
  0x1d45	inc    	ecx
  === BLOCK LINK ===
    0x1d46
=== CODE BLOCK END ===

=== CODE BLOCK ADDRESS 0x1d46 ===
  0x1d46	call   	ecx
  === BLOCK LINK ===
    0x1d48
=== CODE BLOCK END ===

=== CODE BLOCK ADDRESS 0x1d48 ===
  0x1d48	dec    	eax
  0x1d49	mov    	eax, dword ptr [0x14b9]
  0x1d4f	dec    	eax
  0x1d50	mov    	ecx, dword ptr [eax]
  0x1d52	dec    	eax
  === BLOCK LINK ===
    0x1d53
=== CODE BLOCK END ===

=== CODE BLOCK ADDRESS 0x1d53 ===
  0x1d53	test   	ecx, ecx
  0x1d55	jne    	0x1d61
  === BLOCK LINK ===
    0x1d57
=== CODE BLOCK END ===

=== CODE BLOCK ADDRESS 0x1d57 ===
  0x1d57	mov    	eax, 0xff
  0x1d5c	jmp    	0x1e36
  === BLOCK LINK ===
    0x1d61
=== CODE BLOCK END ===

=== CODE BLOCK ADDRESS 0x1d61 ===
  0x1d61	dec    	eax
  0x1d62	mov    	dword ptr [esp + 0x28], ecx
  0x1d66	mov    	edx, dword ptr [esp + 0x20]
  0x1d6a	movzx  	eax, word ptr [ecx]
  0x1d6d	cmp    	ax, 0x20
  === BLOCK LINK ===
    0x1d71
=== CODE BLOCK END ===

=== CODE BLOCK ADDRESS 0x1d71 ===
  0x1d71	ja     	0x1de7
  === BLOCK LINK ===
    0x1d73
=== CODE BLOCK END ===

=== CODE BLOCK ADDRESS 0x1d73 ===
  0x1d73	test   	ax, ax
  0x1d76	je     	0x1d7c
  === BLOCK LINK ===
    0x1d78
=== CODE BLOCK END ===

=== CODE BLOCK ADDRESS 0x1d78 ===
  0x1d78	test   	edx, edx
  0x1d7a	jne    	0x1de7
  === BLOCK LINK ===
    0x1d7c
=== CODE BLOCK END ===

=== CODE BLOCK ADDRESS 0x1d7c ===
  0x1d7c	sub    	ax, bx
  0x1d7f	cmp    	ax, di
  0x1d82	ja     	0x1d92
  === BLOCK LINK ===
    0x1d84
=== CODE BLOCK END ===

=== CODE BLOCK ADDRESS 0x1d84 ===
  0x1d84	dec    	eax
  0x1d85	add    	ecx, 2
  0x1d88	dec    	eax
  0x1d89	mov    	dword ptr [esp + 0x28], ecx
  0x1d8d	movzx  	eax, word ptr [ecx]
  === BLOCK LINK ===
    0x1d90
=== CODE BLOCK END ===

=== CODE BLOCK ADDRESS 0x1d90 ===
  0x1d90	jmp    	0x1d7c
  === BLOCK LINK ===
    0x1d92
=== CODE BLOCK END ===

=== CODE BLOCK ADDRESS 0x1d92 ===
  0x1d92	test   	byte ptr [esp + 0x7c], bl
  0x1d96	movzx  	eax, word ptr [esp + 0x80]
  0x1d9e	inc    	ecx
  0x1d9f	mov    	ecx, 0xa
  0x1da4	inc    	esp
  === BLOCK LINK ===
    0x1da5
=== CODE BLOCK END ===

=== CODE BLOCK ADDRESS 0x1da5 ===
  0x1da5	cmovne  	ecx, eax
  0x1da8	dec    	esp
  0x1da9	mov    	eax, ecx
  0x1dab	xor    	edx, edx
  0x1dad	dec    	eax
  === BLOCK LINK ===
    0x1dae
=== CODE BLOCK END ===

=== CODE BLOCK ADDRESS 0x1dae ===
  0x1dae	lea    	ecx, [0xffffe24c]
  0x1db4	call   	0x1010
  === BLOCK LINK ===
    0x1db9
=== CODE BLOCK END ===

=== CODE BLOCK ADDRESS 0x1db9 ===
  0x1db9	mov    	dword ptr [0x2271], eax
  0x1dbf	inc    	esp
  0x1dc0	cmp    	dword ptr [0x228a], esi
  0x1dc6	jne    	0x1dd0
  === BLOCK LINK ===
    0x1dc8
=== CODE BLOCK END ===

=== CODE BLOCK ADDRESS 0x1dc8 ===
  0x1dc8	mov    	ecx, eax
  0x1dca	call   	dword ptr [0x1468]
  === BLOCK LINK ===
    0x1dd0
=== CODE BLOCK END ===

=== CODE BLOCK ADDRESS 0x1dd0 ===
  0x1dd0	inc    	esp
  0x1dd1	cmp    	dword ptr [0x225d], esi
  0x1dd7	jne    	0x1de5
  === BLOCK LINK ===
    0x1dd9
=== CODE BLOCK END ===

=== CODE BLOCK ADDRESS 0x1dd9 ===
  0x1dd9	call   	dword ptr [0x1449]
  === BLOCK LINK ===
    0x1ddf
=== CODE BLOCK END ===

=== CODE BLOCK ADDRESS 0x1ddf ===
  0x1ddf	mov    	eax, dword ptr [0x224b]
  0x1de5	jmp    	0x1e36
  === BLOCK LINK ===
    0x1de7
=== CODE BLOCK END ===

=== CODE BLOCK ADDRESS 0x1de7 ===
  0x1de7	cmp    	ax, 0x22
  0x1deb	jne    	0x1dfb
  === BLOCK LINK ===
    0x1ded
=== CODE BLOCK END ===

=== CODE BLOCK ADDRESS 0x1ded ===
  0x1ded	inc    	ecx
  0x1dee	mov    	eax, esi
  0x1df0	test   	edx, edx
  0x1df2	sete   	al
  0x1df5	mov    	edx, eax
  === BLOCK LINK ===
    0x1df7
=== CODE BLOCK END ===

=== CODE BLOCK ADDRESS 0x1df7 ===
  0x1df7	mov    	dword ptr [esp + 0x20], eax
  0x1dfb	dec    	eax
  0x1dfc	add    	ecx, 2
  0x1dff	dec    	eax
  0x1e00	mov    	dword ptr [esp + 0x28], ecx
  === BLOCK LINK ===
    0x1e04
=== CODE BLOCK END ===

=== CODE BLOCK ADDRESS 0x1e04 ===
  0x1e04	jmp    	0x1d6a
  === BLOCK LINK ===
    0x1e09
=== CODE BLOCK END ===

=== CODE BLOCK ADDRESS 0x1e09 ===
  0x1e09	mov    	dword ptr [0x2221], eax
  0x1e0f	cmp    	dword ptr [0x223a], 0
  0x1e16	jne    	0x1e21
  === BLOCK LINK ===
    0x1e18
=== CODE BLOCK END ===

=== CODE BLOCK ADDRESS 0x1e18 ===
  0x1e18	mov    	ecx, eax
  0x1e1a	call   	dword ptr [0x1410]
  === BLOCK LINK ===
    0x1e20
=== CODE BLOCK END ===

=== CODE BLOCK ADDRESS 0x1e20 ===
  0x1e20	int3   	
  0x1e21	cmp    	dword ptr [0x220c], 0
  0x1e28	jne    	0x1e36
  === BLOCK LINK ===
    0x1e2a
=== CODE BLOCK END ===

=== CODE BLOCK ADDRESS 0x1e2a ===
  0x1e2a	call   	dword ptr [0x13f8]
  === BLOCK LINK ===
    0x1e30
=== CODE BLOCK END ===

=== CODE BLOCK ADDRESS 0x1e30 ===
  0x1e30	mov    	eax, dword ptr [0x21fa]
  0x1e36	dec    	esp
  0x1e37	lea    	ebx, [esp + 0xb0]
  0x1e3e	dec    	ecx
  0x1e3f	mov    	ebx, dword ptr [ebx + 0x10]
  === BLOCK LINK ===
    0x1e42
=== CODE BLOCK END ===

=== CODE BLOCK ADDRESS 0x1e42 ===
  0x1e42	dec    	ecx
  0x1e43	mov    	esi, dword ptr [ebx + 0x18]
  0x1e46	dec    	ecx
  0x1e47	mov    	edi, dword ptr [ebx + 0x20]
  0x1e4a	dec    	ebp
  === BLOCK LINK ===
    0x1e4b
=== CODE BLOCK END ===

=== CODE BLOCK ADDRESS 0x1e4b ===
  0x1e4b	mov    	esi, dword ptr [ebx + 0x28]
  0x1e4e	dec    	ecx
  0x1e4f	mov    	esp, ebx
  0x1e51	inc    	ecx
  0x1e52	pop    	edi
  === BLOCK LINK ===
    0x1e53
=== CODE BLOCK END ===

=== CODE BLOCK ADDRESS 0x1e53 ===
  0x1e53	ret    	
  0x1e54	int3   	
  0x1e55	int3   	
  0x1e56	int3   	
  0x1e57	int3   	
  === BLOCK LINK ===
    0x1e58
=== CODE BLOCK END ===

=== CODE BLOCK ADDRESS 0x1e58 ===
  0x1e58	int3   	
  0x1e59	int3   	
  0x1e5a	int3   	
  0x1e5b	int3   	
  0x1e5c	int3   	
  === BLOCK LINK ===
    0x1e5d
=== CODE BLOCK END ===

=== CODE BLOCK ADDRESS 0x1e5d ===
  0x1e5d	int3   	
  0x1e5e	int3   	
  0x1e5f	int3   	
  0x1e60	dec    	eax
  0x1e61	sub    	esp, 0x28
  === BLOCK LINK ===
    0x1e64
=== CODE BLOCK END ===

=== CODE BLOCK ADDRESS 0x1e64 ===
  0x1e64	call   	0x20d4
  === BLOCK LINK ===
    0x1e69
=== CODE BLOCK END ===

=== CODE BLOCK ADDRESS 0x1e69 ===
  0x1e69	dec    	eax
  0x1e6a	add    	esp, 0x28
  0x1e6d	jmp    	0x1bf0
  === BLOCK LINK ===
    0x1e72
=== CODE BLOCK END ===

=== CODE BLOCK ADDRESS 0x1e72 ===
  0x1e72	int3   	
  0x1e73	int3   	
  0x1e74	int3   	
  0x1e75	int3   	
  0x1e76	int3   	
  === BLOCK LINK ===
    0x1e77
=== CODE BLOCK END ===

=== CODE BLOCK ADDRESS 0x1e77 ===
  0x1e77	int3   	
  0x1e78	int3   	
  0x1e79	int3   	
  0x1e7a	int3   	
  0x1e7b	int3   	
  === BLOCK LINK ===
    0x1e7c
=== CODE BLOCK END ===

=== CODE BLOCK ADDRESS 0x1e7c ===
  0x1e7c	int3   	
  0x1e7d	int3   	
  0x1e7e	int3   	
  0x1e7f	int3   	
  0x1e80	int3   	
  === BLOCK LINK ===
    0x1e81
=== CODE BLOCK END ===

=== CODE BLOCK ADDRESS 0x1e81 ===
  0x1e81	int3   	
  0x1e82	int3   	
  0x1e83	int3   	
  0x1e84	int3   	
  0x1e85	int3   	
  === BLOCK LINK ===
    0x1e86
=== CODE BLOCK END ===

=== CODE BLOCK ADDRESS 0x1e86 ===
  0x1e86	nop    	word ptr [eax + eax]
  0x1e90	dec    	eax
  0x1e91	cmp    	ecx, dword ptr [0x2171]
  0x1e97	jne    	0x1ea9
  === BLOCK LINK ===
    0x1e99
=== CODE BLOCK END ===

=== CODE BLOCK ADDRESS 0x1e99 ===
  0x1e99	dec    	eax
  0x1e9a	rol    	ecx, 0x10
  0x1e9d	test   	cx, 0xffff
  0x1ea2	jne    	0x1ea5
  === BLOCK LINK ===
    0x1ea4
=== CODE BLOCK END ===

=== CODE BLOCK ADDRESS 0x1ea4 ===
  0x1ea4	ret    	
  0x1ea5	dec    	eax
  0x1ea6	ror    	ecx, 0x10
  0x1ea9	jmp    	0x2220
  === BLOCK LINK ===
    0x1eae
=== CODE BLOCK END ===

=== CODE BLOCK ADDRESS 0x1eae ===
  0x1eae	int3   	
  0x1eaf	int3   	
  0x1eb0	int3   	
  0x1eb1	int3   	
  0x1eb2	int3   	
  === BLOCK LINK ===
    0x1eb3
=== CODE BLOCK END ===

=== CODE BLOCK ADDRESS 0x1eb3 ===
  0x1eb3	int3   	
  0x1eb4	int3   	
  0x1eb5	int3   	
  0x1eb6	int3   	
  0x1eb7	int3   	
  === BLOCK LINK ===
    0x1eb8
=== CODE BLOCK END ===

=== CODE BLOCK ADDRESS 0x1eb8 ===
  0x1eb8	int3   	
  0x1eb9	int3   	
  0x1eba	int3   	
  0x1ebb	int3   	
  0x1ebc	int3   	
  === BLOCK LINK ===
    0x1ebd
=== CODE BLOCK END ===

=== CODE BLOCK ADDRESS 0x1ebd ===
  0x1ebd	int3   	
  0x1ebe	int3   	
  0x1ebf	int3   	
  0x1ec0	dec    	eax
  0x1ec1	sub    	esp, 0x28
  === BLOCK LINK ===
    0x1ec4
=== CODE BLOCK END ===

=== CODE BLOCK ADDRESS 0x1ec4 ===
  0x1ec4	dec    	eax
  0x1ec5	mov    	eax, dword ptr [ecx]
  0x1ec7	cmp    	dword ptr [eax], 0xe06d7363
  0x1ecd	jne    	0x1ef2
  === BLOCK LINK ===
    0x1ecf
=== CODE BLOCK END ===

=== CODE BLOCK ADDRESS 0x1ecf ===
  0x1ecf	cmp    	dword ptr [eax + 0x18], 4
  0x1ed3	jne    	0x1ef2
  === BLOCK LINK ===
    0x1ed5
=== CODE BLOCK END ===

=== CODE BLOCK ADDRESS 0x1ed5 ===
  0x1ed5	mov    	ecx, dword ptr [eax + 0x20]
  0x1ed8	lea    	eax, [ecx - 0x19930520]
  0x1ede	cmp    	eax, 2
  0x1ee1	jbe    	0x1eeb
  === BLOCK LINK ===
    0x1ee3
=== CODE BLOCK END ===

=== CODE BLOCK ADDRESS 0x1ee3 ===
  0x1ee3	cmp    	ecx, 0x1994000
  0x1ee9	jne    	0x1ef2
  === BLOCK LINK ===
    0x1eeb
=== CODE BLOCK END ===

=== CODE BLOCK ADDRESS 0x1eeb ===
  0x1eeb	call   	dword ptr [0x12ff]
  === BLOCK LINK ===
    0x1ef1
=== CODE BLOCK END ===

=== CODE BLOCK ADDRESS 0x1ef1 ===
  0x1ef1	int3   	
  0x1ef2	xor    	eax, eax
  0x1ef4	dec    	eax
  0x1ef5	add    	esp, 0x28
  0x1ef8	ret    	
  === BLOCK LINK ===
    0x1ef9
=== CODE BLOCK END ===

=== CODE BLOCK ADDRESS 0x1ef9 ===
  0x1ef9	int3   	
  0x1efa	int3   	
  0x1efb	int3   	
  0x1efc	int3   	
  0x1efd	int3   	
  === BLOCK LINK ===
    0x1efe
=== CODE BLOCK END ===

=== CODE BLOCK ADDRESS 0x1efe ===
  0x1efe	int3   	
  0x1eff	int3   	
  0x1f00	dec    	eax
  0x1f01	sub    	esp, 0x28
  0x1f04	dec    	eax
  === BLOCK LINK ===
    0x1f05
=== CODE BLOCK END ===

=== CODE BLOCK ADDRESS 0x1f05 ===
  0x1f05	lea    	ecx, [0xffffffb5]
  0x1f0b	call   	dword ptr [0x1297]
  === BLOCK LINK ===
    0x1f11
=== CODE BLOCK END ===

=== CODE BLOCK ADDRESS 0x1f11 ===
  0x1f11	xor    	eax, eax
  0x1f13	dec    	eax
  0x1f14	add    	esp, 0x28
  0x1f17	ret    	
  0x1f18	int3   	
  === BLOCK LINK ===
    0x1f19
=== CODE BLOCK END ===

=== CODE BLOCK ADDRESS 0x1f19 ===
  0x1f19	int3   	
  0x1f1a	int3   	
  0x1f1b	int3   	
  0x1f1c	int3   	
  0x1f1d	int3   	
  === BLOCK LINK ===
    0x1f1e
=== CODE BLOCK END ===

=== CODE BLOCK ADDRESS 0x1f1e ===
  0x1f1e	jmp    	dword ptr [0x1334]
  === BLOCK LINK ===
    0x1f24
=== CODE BLOCK END ===

=== CODE BLOCK ADDRESS 0x1f24 ===
  0x1f24	int3   	
  0x1f25	int3   	
  0x1f26	int3   	
  0x1f27	int3   	
  0x1f28	int3   	
  === BLOCK LINK ===
    0x1f29
=== CODE BLOCK END ===

=== CODE BLOCK ADDRESS 0x1f29 ===
  0x1f29	int3   	
  0x1f2a	int3   	
  0x1f2b	int3   	
  0x1f2c	dec    	eax
  0x1f2d	sub    	esp, 0x18
  === BLOCK LINK ===
    0x1f30
=== CODE BLOCK END ===

=== CODE BLOCK ADDRESS 0x1f30 ===
  0x1f30	xor    	edx, edx
  0x1f32	dec    	eax
  0x1f33	lea    	eax, [ecx - 1]
  0x1f36	dec    	eax
  0x1f37	cmp    	eax, -3
  === BLOCK LINK ===
    0x1f3a
=== CODE BLOCK END ===

=== CODE BLOCK ADDRESS 0x1f3a ===
  0x1f3a	ja     	0x1f78
  === BLOCK LINK ===
    0x1f3c
=== CODE BLOCK END ===

=== CODE BLOCK ADDRESS 0x1f3c ===
  0x1f3c	mov    	eax, 0x5a4d
  0x1f41	cmp    	word ptr [ecx], ax
  0x1f44	jne    	0x1f70
  === BLOCK LINK ===
    0x1f46
=== CODE BLOCK END ===

=== CODE BLOCK ADDRESS 0x1f46 ===
  0x1f46	cmp    	dword ptr [ecx + 0x3c], edx
  0x1f49	jl     	0x1f70
  === BLOCK LINK ===
    0x1f4b
=== CODE BLOCK END ===

=== CODE BLOCK ADDRESS 0x1f4b ===
  0x1f4b	cmp    	dword ptr [ecx + 0x3c], 0x10000000
  0x1f52	jae    	0x1f70
  === BLOCK LINK ===
    0x1f54
=== CODE BLOCK END ===

=== CODE BLOCK ADDRESS 0x1f54 ===
  0x1f54	dec    	eax
  0x1f55	arpl   	word ptr [ecx + 0x3c], ax
  0x1f58	dec    	eax
  0x1f59	add    	eax, ecx
  0x1f5b	dec    	eax
  === BLOCK LINK ===
    0x1f5c
=== CODE BLOCK END ===

=== CODE BLOCK ADDRESS 0x1f5c ===
  0x1f5c	mov    	dword ptr [esp], eax
  0x1f5f	cmp    	dword ptr [eax], 0x4550
  0x1f65	dec    	eax
  0x1f66	cmovne  	eax, edx
  0x1f69	dec    	eax
  === BLOCK LINK ===
    0x1f6a
=== CODE BLOCK END ===

=== CODE BLOCK ADDRESS 0x1f6a ===
  0x1f6a	mov    	edx, eax
  0x1f6c	dec    	eax
  0x1f6d	mov    	dword ptr [esp], eax
  0x1f70	jmp    	0x1f78
  === BLOCK LINK ===
    0x1f72
=== CODE BLOCK END ===

=== CODE BLOCK ADDRESS 0x1f72 ===
  0x1f72	xor    	edx, edx
  0x1f74	dec    	eax
  0x1f75	mov    	dword ptr [esp], edx
  0x1f78	dec    	eax
  0x1f79	mov    	eax, edx
  === BLOCK LINK ===
    0x1f7b
=== CODE BLOCK END ===

=== CODE BLOCK ADDRESS 0x1f7b ===
  0x1f7b	dec    	eax
  0x1f7c	add    	esp, 0x18
  0x1f7f	ret    	
  0x1f80	int3   	
  0x1f81	int3   	
  === BLOCK LINK ===
    0x1f82
=== CODE BLOCK END ===

=== CODE BLOCK ADDRESS 0x1f82 ===
  0x1f82	int3   	
  0x1f83	int3   	
  0x1f84	int3   	
  0x1f85	int3   	
  0x1f86	int3   	
  === BLOCK LINK ===
    0x1f87
=== CODE BLOCK END ===

=== CODE BLOCK ADDRESS 0x1f87 ===
  0x1f87	int3   	
  0x1f88	inc    	eax
  0x1f89	push   	ebx
  0x1f8a	dec    	eax
  0x1f8b	sub    	esp, 0x20
  === BLOCK LINK ===
    0x1f8e
=== CODE BLOCK END ===

=== CODE BLOCK ADDRESS 0x1f8e ===
  0x1f8e	mov    	ebx, ecx
  0x1f90	xor    	ecx, ecx
  0x1f92	call   	dword ptr [0x11a8]
  === BLOCK LINK ===
    0x1f98
=== CODE BLOCK END ===

=== CODE BLOCK ADDRESS 0x1f98 ===
  0x1f98	dec    	eax
  0x1f99	test   	eax, eax
  0x1f9b	je     	0x1fc5
  === BLOCK LINK ===
    0x1f9d
=== CODE BLOCK END ===

=== CODE BLOCK ADDRESS 0x1f9d ===
  0x1f9d	dec    	eax
  0x1f9e	mov    	ecx, eax
  0x1fa0	call   	0x1f2c
  === BLOCK LINK ===
    0x1fa5
=== CODE BLOCK END ===

=== CODE BLOCK ADDRESS 0x1fa5 ===
  0x1fa5	dec    	eax
  0x1fa6	test   	eax, eax
  0x1fa8	je     	0x1fc5
  === BLOCK LINK ===
    0x1faa
=== CODE BLOCK END ===

=== CODE BLOCK ADDRESS 0x1faa ===
  0x1faa	mov    	ecx, 2
  0x1faf	cmp    	word ptr [eax + 0x5c], cx
  0x1fb3	jne    	0x1fb9
  === BLOCK LINK ===
    0x1fb5
=== CODE BLOCK END ===

=== CODE BLOCK ADDRESS 0x1fb5 ===
  0x1fb5	mov    	eax, ecx
  0x1fb7	jmp    	0x1fc7
  === BLOCK LINK ===
    0x1fb9
=== CODE BLOCK END ===

=== CODE BLOCK ADDRESS 0x1fb9 ===
  0x1fb9	cmp    	word ptr [eax + 0x5c], 3
  0x1fbe	mov    	eax, 1
  0x1fc3	je     	0x1fc7
  === BLOCK LINK ===
    0x1fc5
=== CODE BLOCK END ===

=== CODE BLOCK ADDRESS 0x1fc5 ===
  0x1fc5	mov    	eax, ebx
  0x1fc7	dec    	eax
  0x1fc8	add    	esp, 0x20
  0x1fcb	pop    	ebx
  0x1fcc	ret    	
  === BLOCK LINK ===
    0x1fcd
=== CODE BLOCK END ===

=== CODE BLOCK ADDRESS 0x1fcd ===
  0x1fcd	int3   	
  0x1fce	int3   	
  0x1fcf	int3   	
  0x1fd0	int3   	
  0x1fd1	int3   	
  === BLOCK LINK ===
    0x1fd2
=== CODE BLOCK END ===

=== CODE BLOCK ADDRESS 0x1fd2 ===
  0x1fd2	int3   	
  0x1fd3	jmp    	dword ptr [0x1277]
  === BLOCK LINK ===
    0x1fd9
=== CODE BLOCK END ===

=== CODE BLOCK ADDRESS 0x1fd9 ===
  0x1fd9	int3   	
  0x1fda	int3   	
  0x1fdb	int3   	
  0x1fdc	int3   	
  0x1fdd	int3   	
  === BLOCK LINK ===
    0x1fde
=== CODE BLOCK END ===

=== CODE BLOCK ADDRESS 0x1fde ===
  0x1fde	int3   	
  0x1fdf	int3   	
  0x1fe0	xor    	eax, eax
  0x1fe2	ret    	
  0x1fe3	int3   	
  === BLOCK LINK ===
    0x1fe4
=== CODE BLOCK END ===

=== CODE BLOCK ADDRESS 0x1fe4 ===
  0x1fe4	int3   	
  0x1fe5	int3   	
  0x1fe6	int3   	
  0x1fe7	int3   	
  0x1fe8	int3   	
  === BLOCK LINK ===
    0x1fe9
=== CODE BLOCK END ===

=== CODE BLOCK ADDRESS 0x1fe9 ===
  0x1fe9	int3   	
  0x1fea	int3   	
  0x1feb	int3   	
  0x1fec	int3   	
  0x1fed	int3   	
  === BLOCK LINK ===
    0x1fee
=== CODE BLOCK END ===

=== CODE BLOCK ADDRESS 0x1fee ===
  0x1fee	int3   	
  0x1fef	int3   	
  0x1ff0	dec    	esp
  0x1ff1	arpl   	word ptr [ecx + 0x3c], ax
  0x1ff4	inc    	ebp
  === BLOCK LINK ===
    0x1ff5
=== CODE BLOCK END ===

=== CODE BLOCK ADDRESS 0x1ff5 ===
  0x1ff5	xor    	ecx, ecx
  0x1ff7	dec    	esp
  0x1ff8	add    	eax, ecx
  0x1ffa	dec    	esp
  0x1ffb	mov    	edx, edx
  === BLOCK LINK ===
    0x1ffd
=== CODE BLOCK END ===

=== CODE BLOCK ADDRESS 0x1ffd ===
  0x1ffd	inc    	ecx
  0x1ffe	movzx  	eax, word ptr [eax + 0x14]
  0x2002	inc    	ebp
  0x2003	movzx  	ebx, word ptr [eax + 6]
  0x2007	dec    	eax
  === BLOCK LINK ===
    0x2008
=== CODE BLOCK END ===

=== CODE BLOCK ADDRESS 0x2008 ===
  0x2008	add    	eax, 0x18
  0x200b	dec    	ecx
  0x200c	add    	eax, eax
  0x200e	inc    	ebp
  0x200f	test   	ebx, ebx
  === BLOCK LINK ===
    0x2011
=== CODE BLOCK END ===

=== CODE BLOCK ADDRESS 0x2011 ===
  0x2011	je     	0x2031
  === BLOCK LINK ===
    0x2013
=== CODE BLOCK END ===

=== CODE BLOCK ADDRESS 0x2013 ===
  0x2013	mov    	edx, dword ptr [eax + 0xc]
  0x2016	dec    	esp
  0x2017	cmp    	edx, edx
  0x2019	jb     	0x2025
  === BLOCK LINK ===
    0x201b
=== CODE BLOCK END ===

=== CODE BLOCK ADDRESS 0x201b ===
  0x201b	mov    	ecx, dword ptr [eax + 8]
  0x201e	add    	ecx, edx
  0x2020	dec    	esp
  0x2021	cmp    	edx, ecx
  0x2023	jb     	0x2033
  === BLOCK LINK ===
    0x2025
=== CODE BLOCK END ===

=== CODE BLOCK ADDRESS 0x2025 ===
  0x2025	inc    	ecx
  0x2026	inc    	ecx
  0x2028	dec    	eax
  0x2029	add    	eax, 0x28
  0x202c	inc    	ebp
  === BLOCK LINK ===
    0x202d
=== CODE BLOCK END ===

=== CODE BLOCK ADDRESS 0x202d ===
  0x202d	cmp    	ecx, ebx
  0x202f	jb     	0x2013
  === BLOCK LINK ===
    0x2031
=== CODE BLOCK END ===

=== CODE BLOCK ADDRESS 0x2031 ===
  0x2031	xor    	eax, eax
  0x2033	ret    	
  0x2034	int3   	
  0x2035	int3   	
  0x2036	int3   	
  === BLOCK LINK ===
    0x2037
=== CODE BLOCK END ===

=== CODE BLOCK ADDRESS 0x2037 ===
  0x2037	int3   	
  0x2038	int3   	
  0x2039	int3   	
  0x203a	int3   	
  0x203b	int3   	
  === BLOCK LINK ===
    0x203c
=== CODE BLOCK END ===

=== CODE BLOCK ADDRESS 0x203c ===
  0x203c	int3   	
  0x203d	int3   	
  0x203e	int3   	
  0x203f	int3   	
  0x2040	dec    	eax
  === BLOCK LINK ===
    0x2041
=== CODE BLOCK END ===

=== CODE BLOCK ADDRESS 0x2041 ===
  0x2041	mov    	dword ptr [esp + 8], ebx
  0x2045	push   	edi
  0x2046	dec    	eax
  0x2047	sub    	esp, 0x20
  0x204a	dec    	eax
  === BLOCK LINK ===
    0x204b
=== CODE BLOCK END ===

=== CODE BLOCK ADDRESS 0x204b ===
  0x204b	mov    	ebx, ecx
  0x204d	dec    	eax
  0x204e	lea    	edi, [0xffffdfac]
  0x2054	dec    	eax
  0x2055	mov    	ecx, edi
  === BLOCK LINK ===
    0x2057
=== CODE BLOCK END ===

=== CODE BLOCK ADDRESS 0x2057 ===
  0x2057	call   	0x20a0
  === BLOCK LINK ===
    0x205c
=== CODE BLOCK END ===

=== CODE BLOCK ADDRESS 0x205c ===
  0x205c	test   	eax, eax
  0x205e	je     	0x2082
  === BLOCK LINK ===
    0x2060
=== CODE BLOCK END ===

=== CODE BLOCK ADDRESS 0x2060 ===
  0x2060	dec    	eax
  0x2061	sub    	ebx, edi
  0x2063	dec    	eax
  0x2064	mov    	edx, ebx
  0x2066	dec    	eax
  === BLOCK LINK ===
    0x2067
=== CODE BLOCK END ===

=== CODE BLOCK ADDRESS 0x2067 ===
  0x2067	mov    	ecx, edi
  0x2069	call   	0x1ff0
  === BLOCK LINK ===
    0x206e
=== CODE BLOCK END ===

=== CODE BLOCK ADDRESS 0x206e ===
  0x206e	dec    	eax
  0x206f	test   	eax, eax
  0x2071	je     	0x2082
  === BLOCK LINK ===
    0x2073
=== CODE BLOCK END ===

=== CODE BLOCK ADDRESS 0x2073 ===
  0x2073	mov    	eax, dword ptr [eax + 0x24]
  0x2076	shr    	eax, 0x1f
  0x2079	not    	eax
  0x207b	and    	eax, 1
  0x207e	jmp    	0x2082
  === BLOCK LINK ===
    0x2080
=== CODE BLOCK END ===

=== CODE BLOCK ADDRESS 0x2080 ===
  0x2080	xor    	eax, eax
  0x2082	dec    	eax
  0x2083	mov    	ebx, dword ptr [esp + 0x30]
  0x2087	dec    	eax
  0x2088	add    	esp, 0x20
  === BLOCK LINK ===
    0x208b
=== CODE BLOCK END ===

=== CODE BLOCK ADDRESS 0x208b ===
  0x208b	pop    	edi
  0x208c	ret    	
  0x208d	int3   	
  0x208e	int3   	
  0x208f	int3   	
  === BLOCK LINK ===
    0x2090
=== CODE BLOCK END ===

=== CODE BLOCK ADDRESS 0x2090 ===
  0x2090	int3   	
  0x2091	int3   	
  0x2092	int3   	
  0x2093	int3   	
  0x2094	int3   	
  === BLOCK LINK ===
    0x2095
=== CODE BLOCK END ===

=== CODE BLOCK ADDRESS 0x2095 ===
  0x2095	int3   	
  0x2096	int3   	
  0x2097	int3   	
  0x2098	int3   	
  0x2099	int3   	
  === BLOCK LINK ===
    0x209a
=== CODE BLOCK END ===

=== CODE BLOCK ADDRESS 0x209a ===
  0x209a	int3   	
  0x209b	int3   	
  0x209c	int3   	
  0x209d	int3   	
  0x209e	int3   	
  === BLOCK LINK ===
    0x209f
=== CODE BLOCK END ===

=== CODE BLOCK ADDRESS 0x209f ===
  0x209f	int3   	
  0x20a0	mov    	eax, 0x5a4d
  0x20a5	cmp    	word ptr [ecx], ax
  0x20a8	jne    	0x20ca
  === BLOCK LINK ===
    0x20aa
=== CODE BLOCK END ===

=== CODE BLOCK ADDRESS 0x20aa ===
  0x20aa	dec    	eax
  0x20ab	arpl   	word ptr [ecx + 0x3c], ax
  0x20ae	dec    	eax
  0x20af	add    	eax, ecx
  0x20b1	cmp    	dword ptr [eax], 0x4550
  === BLOCK LINK ===
    0x20b7
=== CODE BLOCK END ===

=== CODE BLOCK ADDRESS 0x20b7 ===
  0x20b7	jne    	0x20ca
  === BLOCK LINK ===
    0x20b9
=== CODE BLOCK END ===

=== CODE BLOCK ADDRESS 0x20b9 ===
  0x20b9	mov    	ecx, 0x20b
  0x20be	cmp    	word ptr [eax + 0x18], cx
  0x20c2	jne    	0x20ca
  === BLOCK LINK ===
    0x20c4
=== CODE BLOCK END ===

=== CODE BLOCK ADDRESS 0x20c4 ===
  0x20c4	mov    	eax, 1
  0x20c9	ret    	
  0x20ca	xor    	eax, eax
  0x20cc	ret    	
  0x20cd	int3   	
  === BLOCK LINK ===
    0x20ce
=== CODE BLOCK END ===

=== CODE BLOCK ADDRESS 0x11d7 ===
=== CODE BLOCK END ===

=== CODE BLOCK ADDRESS 0x20ce ===
  0x20ce	int3   	
  0x20cf	int3   	
  0x20d0	int3   	
  0x20d1	int3   	
  0x20d2	int3   	
  === BLOCK LINK ===
    0x20d3
=== CODE BLOCK END ===

=== CODE BLOCK ADDRESS 0x20d3 ===
  0x20d3	int3   	
  0x20d4	dec    	eax
  0x20d5	mov    	dword ptr [esp + 0x20], ebx
  0x20d9	push   	ebp
  0x20da	dec    	eax
  === BLOCK LINK ===
    0x20db
=== CODE BLOCK END ===

=== CODE BLOCK ADDRESS 0x20db ===
  0x20db	mov    	ebp, esp
  0x20dd	dec    	eax
  0x20de	sub    	esp, 0x20
  0x20e1	dec    	eax
  0x20e2	and    	dword ptr [ebp + 0x18], 0
  === BLOCK LINK ===
    0x20e6
=== CODE BLOCK END ===

=== CODE BLOCK ADDRESS 0x20e6 ===
  0x20e6	dec    	eax
  0x20e7	mov    	ebx, 0x2ddfa232
  0x20ec	cdq    	
  0x20ed	sub    	eax, dword ptr [eax]
  0x20ef	add    	byte ptr [eax - 0x75], cl
  === BLOCK LINK ===
    0x20f2
=== CODE BLOCK END ===

=== CODE BLOCK ADDRESS 0x20f2 ===
  0x20f2	add    	eax, 0x1f11
  0x20f7	dec    	eax
  0x20f8	cmp    	eax, ebx
  0x20fa	jne    	0x2193
  === BLOCK LINK ===
    0x2100
=== CODE BLOCK END ===

=== CODE BLOCK ADDRESS 0x2100 ===
  0x2100	dec    	eax
  0x2101	lea    	ecx, [ebp + 0x18]
  0x2104	call   	dword ptr [0x107e]
  === BLOCK LINK ===
    0x210a
=== CODE BLOCK END ===

=== CODE BLOCK ADDRESS 0x210a ===
  0x210a	dec    	eax
  0x210b	mov    	eax, dword ptr [ebp + 0x18]
  0x210e	dec    	eax
  0x210f	mov    	dword ptr [ebp + 0x10], eax
  0x2112	call   	dword ptr [0x1080]
  === BLOCK LINK ===
    0x2118
=== CODE BLOCK END ===

=== CODE BLOCK ADDRESS 0x2118 ===
  0x2118	mov    	eax, eax
  0x211a	dec    	eax
  0x211b	xor    	dword ptr [ebp + 0x10], eax
  0x211e	call   	dword ptr [0x106c]
  === BLOCK LINK ===
    0x2124
=== CODE BLOCK END ===

=== CODE BLOCK ADDRESS 0x2124 ===
  0x2124	mov    	eax, eax
  0x2126	dec    	eax
  0x2127	xor    	dword ptr [ebp + 0x10], eax
  0x212a	call   	dword ptr [0x1050]
  === BLOCK LINK ===
    0x2130
=== CODE BLOCK END ===

=== CODE BLOCK ADDRESS 0x2130 ===
  0x2130	mov    	eax, eax
  0x2132	dec    	eax
  0x2133	shl    	eax, 0x18
  0x2136	dec    	eax
  0x2137	xor    	dword ptr [ebp + 0x10], eax
  === BLOCK LINK ===
    0x213a
=== CODE BLOCK END ===

=== CODE BLOCK ADDRESS 0x213a ===
  0x213a	call   	dword ptr [0x1040]
  === BLOCK LINK ===
    0x2140
=== CODE BLOCK END ===

=== CODE BLOCK ADDRESS 0x2140 ===
  0x2140	mov    	eax, eax
  0x2142	dec    	eax
  0x2143	lea    	ecx, [ebp + 0x10]
  0x2146	dec    	eax
  0x2147	xor    	eax, dword ptr [ebp + 0x10]
  === BLOCK LINK ===
    0x214a
=== CODE BLOCK END ===

=== CODE BLOCK ADDRESS 0x214a ===
  0x214a	dec    	eax
  0x214b	xor    	eax, ecx
  0x214d	dec    	eax
  0x214e	lea    	ecx, [ebp + 0x20]
  0x2151	dec    	eax
  === BLOCK LINK ===
    0x2152
=== CODE BLOCK END ===

=== CODE BLOCK ADDRESS 0x2152 ===
  0x2152	mov    	dword ptr [ebp + 0x10], eax
  0x2155	call   	dword ptr [0x1045]
  === BLOCK LINK ===
    0x215b
=== CODE BLOCK END ===

=== CODE BLOCK ADDRESS 0x215b ===
  0x215b	mov    	eax, dword ptr [ebp + 0x20]
  0x215e	dec    	eax
  0x215f	mov    	ecx, 0xffffffff
  0x2164	.byte  	0xff
  0x2165	inc    	dword ptr [eax]
  === BLOCK LINK ===
    0x2167
=== CODE BLOCK END ===

=== CODE BLOCK ADDRESS 0x2167 ===
  0x2167	add    	byte ptr [eax - 0x3f], cl
  0x216a	loopne  	0x218c
  === BLOCK LINK ===
    0x216c
=== CODE BLOCK END ===

=== CODE BLOCK ADDRESS 0x216c ===
  0x216c	dec    	eax
  0x216d	xor    	eax, dword ptr [ebp + 0x20]
  0x2170	dec    	eax
  0x2171	xor    	eax, dword ptr [ebp + 0x10]
  0x2174	dec    	eax
  === BLOCK LINK ===
    0x2175
=== CODE BLOCK END ===

=== CODE BLOCK ADDRESS 0x2175 ===
  0x2175	and    	eax, ecx
  0x2177	dec    	eax
  0x2178	mov    	ecx, eax
  0x217a	dec    	eax
  0x217b	cmp    	eax, ebx
  === BLOCK LINK ===
    0x217d
=== CODE BLOCK END ===

=== CODE BLOCK ADDRESS 0x217d ===
  0x217d	jne    	0x218c
  === BLOCK LINK ===
    0x217f
=== CODE BLOCK END ===

=== CODE BLOCK ADDRESS 0x217f ===
  0x217f	dec    	eax
  0x2180	mov    	eax, 0x2ddfa233
  0x2185	cdq    	
  0x2186	sub    	eax, dword ptr [eax]
  0x2188	add    	byte ptr [eax - 0x75], cl
  === BLOCK LINK ===
    0x218b
=== CODE BLOCK END ===

=== CODE BLOCK ADDRESS 0x218b ===
  0x218b	enter  	-0x76b8, 0xd
  0x218f	jne    	0x21af
  === BLOCK LINK ===
    0x2191
=== CODE BLOCK END ===

=== CODE BLOCK ADDRESS 0x2191 ===
  0x2191	add    	byte ptr [eax], al
  0x2193	dec    	eax
  0x2194	mov    	ebx, dword ptr [esp + 0x48]
  0x2198	dec    	eax
  0x2199	not    	eax
  === BLOCK LINK ===
    0x219b
=== CODE BLOCK END ===

=== CODE BLOCK ADDRESS 0x219b ===
  0x219b	dec    	eax
  0x219c	mov    	dword ptr [0x1e6e], eax
  0x21a2	dec    	eax
  0x21a3	add    	esp, 0x20
  0x21a6	pop    	ebp
  === BLOCK LINK ===
    0x21a7
=== CODE BLOCK END ===

=== CODE BLOCK ADDRESS 0x21a7 ===
  0x21a7	ret    	
  0x21a8	int3   	
  0x21a9	int3   	
  0x21aa	int3   	
  0x21ab	int3   	
  === BLOCK LINK ===
    0x21ac
=== CODE BLOCK END ===

=== CODE BLOCK ADDRESS 0x21ac ===
  0x21ac	int3   	
  0x21ad	int3   	
  0x21ae	jmp    	dword ptr [0x1064]
  === BLOCK LINK ===
    0x21b4
=== CODE BLOCK END ===

=== CODE BLOCK ADDRESS 0x21b4 ===
  0x21b4	int3   	
  0x21b5	int3   	
  0x21b6	int3   	
  0x21b7	int3   	
  0x21b8	int3   	
  === BLOCK LINK ===
    0x21b9
=== CODE BLOCK END ===

=== CODE BLOCK ADDRESS 0x21b9 ===
  0x21b9	int3   	
  0x21ba	jmp    	dword ptr [0x1050]
  === BLOCK LINK ===
    0x21c0
=== CODE BLOCK END ===

=== CODE BLOCK ADDRESS 0x21c0 ===
  0x21c0	int3   	
  0x21c1	int3   	
  0x21c2	int3   	
  0x21c3	int3   	
  0x21c4	int3   	
  === BLOCK LINK ===
    0x21c5
=== CODE BLOCK END ===

=== CODE BLOCK ADDRESS 0x21c5 ===
  0x21c5	int3   	
  0x21c6	int3   	
  0x21c7	int3   	
  0x21c8	int3   	
  0x21c9	int3   	
  === BLOCK LINK ===
    0x21ca
=== CODE BLOCK END ===

=== CODE BLOCK ADDRESS 0x21ca ===
  0x21ca	int3   	
  0x21cb	int3   	
  0x21cc	int3   	
  0x21cd	int3   	
  0x21ce	int3   	
  === BLOCK LINK ===
    0x21cf
=== CODE BLOCK END ===

=== CODE BLOCK ADDRESS 0x21cf ===
  0x21cf	int3   	
  0x21d0	ret    	0
  0x21d3	int3   	
  0x21d4	int3   	
  0x21d5	int3   	
  === BLOCK LINK ===
    0x21d6
=== CODE BLOCK END ===

=== CODE BLOCK ADDRESS 0x21d6 ===
  0x21d6	int3   	
  0x21d7	int3   	
  0x21d8	int3   	
  0x21d9	int3   	
  0x21da	int3   	
  === BLOCK LINK ===
    0x21db
=== CODE BLOCK END ===

=== CODE BLOCK ADDRESS 0x21db ===
  0x21db	int3   	
  0x21dc	inc    	eax
  0x21dd	push   	ebx
  0x21de	dec    	eax
  0x21df	sub    	esp, 0x20
  === BLOCK LINK ===
    0x21e2
=== CODE BLOCK END ===

=== CODE BLOCK ADDRESS 0x21e2 ===
  0x21e2	dec    	eax
  0x21e3	mov    	ebx, ecx
  0x21e5	xor    	ecx, ecx
  0x21e7	call   	dword ptr [0xfbb]
  === BLOCK LINK ===
    0x21ed
=== CODE BLOCK END ===

=== CODE BLOCK ADDRESS 0x21ed ===
  0x21ed	dec    	eax
  0x21ee	mov    	ecx, ebx
  0x21f0	call   	dword ptr [0xf6a]
  === BLOCK LINK ===
    0x21f6
=== CODE BLOCK END ===

=== CODE BLOCK ADDRESS 0x21f6 ===
  0x21f6	call   	dword ptr [0xf5c]
  === BLOCK LINK ===
    0x21fc
=== CODE BLOCK END ===

=== CODE BLOCK ADDRESS 0x21fc ===
  0x21fc	dec    	eax
  0x21fd	mov    	ecx, eax
  0x21ff	mov    	edx, 0xc0000409
  0x2204	dec    	eax
  0x2205	add    	esp, 0x20
  === BLOCK LINK ===
    0x2208
=== CODE BLOCK END ===

=== CODE BLOCK ADDRESS 0x2208 ===
  0x2208	pop    	ebx
  0x2209	dec    	eax
  0x220a	jmp    	dword ptr [0xf40]
  === BLOCK LINK ===
    0x2210
=== CODE BLOCK END ===

=== CODE BLOCK ADDRESS 0x2210 ===
  0x2210	int3   	
  0x2211	int3   	
  0x2212	int3   	
  0x2213	int3   	
  0x2214	int3   	
  === BLOCK LINK ===
    0x2215
=== CODE BLOCK END ===

=== CODE BLOCK ADDRESS 0x2215 ===
  0x2215	int3   	
  0x2216	int3   	
  0x2217	int3   	
  0x2218	int3   	
  0x2219	int3   	
  === BLOCK LINK ===
    0x221a
=== CODE BLOCK END ===

=== CODE BLOCK ADDRESS 0x221a ===
  0x221a	int3   	
  0x221b	int3   	
  0x221c	int3   	
  0x221d	int3   	
  0x221e	int3   	
  === BLOCK LINK ===
    0x221f
=== CODE BLOCK END ===

=== CODE BLOCK ADDRESS 0x221f ===
  0x221f	int3   	
  0x2220	dec    	eax
  0x2221	mov    	dword ptr [esp + 8], ecx
  0x2225	dec    	eax
  0x2226	sub    	esp, 0x88
  === BLOCK LINK ===
    0x222c
=== CODE BLOCK END ===

=== CODE BLOCK ADDRESS 0x222c ===
  0x222c	dec    	eax
  0x222d	lea    	ecx, [0x1edd]
  0x2233	call   	dword ptr [0xf3f]
  === BLOCK LINK ===
    0x2239
=== CODE BLOCK END ===

=== CODE BLOCK ADDRESS 0x2239 ===
  0x2239	dec    	eax
  0x223a	mov    	eax, dword ptr [0x1fc8]
  0x2240	dec    	eax
  0x2241	mov    	dword ptr [esp + 0x48], eax
  0x2245	inc    	ebp
  === BLOCK LINK ===
    0x2246
=== CODE BLOCK END ===

=== CODE BLOCK ADDRESS 0x2246 ===
  0x2246	xor    	eax, eax
  0x2248	dec    	eax
  0x2249	lea    	edx, [esp + 0x50]
  0x224d	dec    	eax
  0x224e	mov    	ecx, dword ptr [esp + 0x48]
  === BLOCK LINK ===
    0x2252
=== CODE BLOCK END ===

=== CODE BLOCK ADDRESS 0x2252 ===
  0x2252	call   	dword ptr [0xf18]
  === BLOCK LINK ===
    0x2258
=== CODE BLOCK END ===

=== CODE BLOCK ADDRESS 0x2258 ===
  0x2258	dec    	eax
  0x2259	mov    	dword ptr [esp + 0x40], eax
  0x225d	dec    	eax
  0x225e	cmp    	dword ptr [esp + 0x40], 0
  0x2263	je     	0x22a7
  === BLOCK LINK ===
    0x2265
=== CODE BLOCK END ===

=== CODE BLOCK ADDRESS 0x2265 ===
  0x2265	dec    	eax
  0x2266	mov    	dword ptr [esp + 0x38], 0
  0x226e	dec    	eax
  0x226f	lea    	eax, [esp + 0x58]
  0x2273	dec    	eax
  === BLOCK LINK ===
    0x2274
=== CODE BLOCK END ===

=== CODE BLOCK ADDRESS 0x2274 ===
  0x2274	mov    	dword ptr [esp + 0x30], eax
  0x2278	dec    	eax
  0x2279	lea    	eax, [esp + 0x60]
  0x227d	dec    	eax
  0x227e	mov    	dword ptr [esp + 0x28], eax
  === BLOCK LINK ===
    0x2282
=== CODE BLOCK END ===

=== CODE BLOCK ADDRESS 0x2282 ===
  0x2282	dec    	eax
  0x2283	lea    	eax, [0x1e87]
  0x2289	dec    	eax
  0x228a	mov    	dword ptr [esp + 0x20], eax
  0x228e	dec    	esp
  === BLOCK LINK ===
    0x228f
=== CODE BLOCK END ===

=== CODE BLOCK ADDRESS 0x228f ===
  0x228f	mov    	ecx, dword ptr [esp + 0x40]
  0x2293	dec    	esp
  0x2294	mov    	eax, dword ptr [esp + 0x48]
  0x2298	dec    	eax
  0x2299	mov    	edx, dword ptr [esp + 0x50]
  === BLOCK LINK ===
    0x229d
=== CODE BLOCK END ===

=== CODE BLOCK ADDRESS 0x229d ===
  0x229d	xor    	ecx, ecx
  0x229f	call   	dword ptr [0xec3]
  === BLOCK LINK ===
    0x22a5
=== CODE BLOCK END ===

=== CODE BLOCK ADDRESS 0x22a5 ===
  0x22a5	jmp    	0x22ca
  === BLOCK LINK ===
    0x22a7
=== CODE BLOCK END ===

=== CODE BLOCK ADDRESS 0x22a7 ===
  0x22a7	dec    	eax
  0x22a8	mov    	eax, dword ptr [0x1efa]
  0x22ae	dec    	eax
  0x22af	mov    	eax, dword ptr [eax]
  0x22b1	dec    	eax
  === BLOCK LINK ===
    0x22b2
=== CODE BLOCK END ===

=== CODE BLOCK ADDRESS 0x22b2 ===
  0x22b2	mov    	dword ptr [0x1f50], eax
  0x22b8	dec    	eax
  0x22b9	mov    	eax, dword ptr [0x1ee9]
  0x22bf	dec    	eax
  0x22c0	add    	eax, 8
  === BLOCK LINK ===
    0x22c3
=== CODE BLOCK END ===

=== CODE BLOCK ADDRESS 0x22c3 ===
  0x22c3	dec    	eax
  0x22c4	mov    	dword ptr [0x1ede], eax
  0x22ca	dec    	eax
  0x22cb	mov    	eax, dword ptr [0x1f37]
  0x22d1	dec    	eax
  === BLOCK LINK ===
    0x22d2
=== CODE BLOCK END ===

=== CODE BLOCK ADDRESS 0x22d2 ===
  0x22d2	mov    	dword ptr [0x1da8], eax
  0x22d8	dec    	eax
  0x22d9	mov    	eax, dword ptr [esp + 0x90]
  0x22e0	dec    	eax
  0x22e1	mov    	dword ptr [0x1ea9], eax
  === BLOCK LINK ===
    0x22e7
=== CODE BLOCK END ===

=== CODE BLOCK ADDRESS 0x22e7 ===
  0x22e7	mov    	dword ptr [0x1d7f], 0xc0000409
  0x22f1	mov    	dword ptr [0x1d79], 1
  0x22fb	mov    	dword ptr [0x1d83], 3
  0x2305	mov    	eax, 8
  0x230a	dec    	eax
  === BLOCK LINK ===
    0x230b
=== CODE BLOCK END ===

=== CODE BLOCK ADDRESS 0x230b ===
  0x230b	imul   	eax, eax, 0
  0x230e	dec    	eax
  0x230f	lea    	ecx, [0x1d7b]
  0x2315	dec    	eax
  0x2316	mov    	dword ptr [ecx + eax], 2
  === BLOCK LINK ===
    0x231d
=== CODE BLOCK END ===

=== CODE BLOCK ADDRESS 0x231d ===
  0x231d	mov    	eax, 8
  0x2322	dec    	eax
  0x2323	imul   	eax, eax, 1
  0x2326	dec    	eax
  0x2327	lea    	ecx, [0x1d63]
  === BLOCK LINK ===
    0x232d
=== CODE BLOCK END ===

=== CODE BLOCK ADDRESS 0x232d ===
  0x232d	dec    	eax
  0x232e	mov    	edx, dword ptr [0x1cd4]
  0x2334	dec    	eax
  0x2335	mov    	dword ptr [ecx + eax], edx
  0x2338	mov    	eax, 8
  === BLOCK LINK ===
    0x233d
=== CODE BLOCK END ===

=== CODE BLOCK ADDRESS 0x233d ===
  0x233d	dec    	eax
  0x233e	imul   	eax, eax, 2
  0x2341	dec    	eax
  0x2342	lea    	ecx, [0x1d48]
  0x2348	dec    	eax
  === BLOCK LINK ===
    0x2349
=== CODE BLOCK END ===

=== CODE BLOCK ADDRESS 0x2349 ===
  0x2349	mov    	edx, dword ptr [0x1cc1]
  0x234f	dec    	eax
  0x2350	mov    	dword ptr [ecx + eax], edx
  0x2353	mov    	eax, 8
  0x2358	dec    	eax
  === BLOCK LINK ===
    0x2359
=== CODE BLOCK END ===

=== CODE BLOCK ADDRESS 0x2359 ===
  0x2359	imul   	eax, eax, 0
  0x235c	dec    	eax
  0x235d	mov    	ecx, dword ptr [0x1ca5]
  0x2363	dec    	eax
  0x2364	mov    	dword ptr [esp + eax + 0x68], ecx
  === BLOCK LINK ===
    0x2368
=== CODE BLOCK END ===

=== CODE BLOCK ADDRESS 0x2368 ===
  0x2368	mov    	eax, 8
  0x236d	dec    	eax
  0x236e	imul   	eax, eax, 1
  0x2371	dec    	eax
  0x2372	mov    	ecx, dword ptr [0x1c98]
  === BLOCK LINK ===
    0x2378
=== CODE BLOCK END ===

=== CODE BLOCK ADDRESS 0x2378 ===
  0x2378	dec    	eax
  0x2379	mov    	dword ptr [esp + eax + 0x68], ecx
  0x237d	dec    	eax
  0x237e	lea    	ecx, [0xc7c]
  0x2384	call   	0x21dc
  === BLOCK LINK ===
    0x2389
=== CODE BLOCK END ===

=== CODE BLOCK ADDRESS 0x2389 ===
  0x2389	dec    	eax
  0x238a	add    	esp, 0x88
  0x2390	ret    	
  0x2391	int3   	
  0x2392	int3   	
  === BLOCK LINK ===
    0x2393
=== CODE BLOCK END ===

=== CODE BLOCK ADDRESS 0x2393 ===
  0x2393	int3   	
  0x2394	int3   	
  0x2395	int3   	
  0x2396	int3   	
  0x2397	int3   	
  === BLOCK LINK ===
    0x2398
=== CODE BLOCK END ===

=== CODE BLOCK ADDRESS 0x2398 ===
  0x2398	int3   	
  0x2399	int3   	
  0x239a	int3   	
  0x239b	int3   	
  0x239c	int3   	
  === BLOCK LINK ===
    0x239d
=== CODE BLOCK END ===

=== CODE BLOCK ADDRESS 0x239d ===
  0x239d	int3   	
  0x239e	int3   	
  0x239f	int3   	
  0x23a0	int3   	
  0x23a1	int3   	
  === BLOCK LINK ===
    0x23a2
=== CODE BLOCK END ===

=== CODE BLOCK ADDRESS 0x23a2 ===
  0x23a2	int3   	
  0x23a3	int3   	
  0x23a4	int3   	
  0x23a5	int3   	
  0x23a6	int3   	
  === BLOCK LINK ===
    0x23a7
=== CODE BLOCK END ===

=== CODE BLOCK ADDRESS 0x23a7 ===
  0x23a7	int3   	
  0x23a8	dec    	eax
  0x23a9	sub    	esp, 0x28
  0x23ac	dec    	ebp
  0x23ad	mov    	eax, dword ptr [ecx + 0x38]
  === BLOCK LINK ===
    0x23b0
=== CODE BLOCK END ===

=== CODE BLOCK ADDRESS 0x23b0 ===
  0x23b0	dec    	eax
  0x23b1	mov    	ecx, edx
  0x23b3	dec    	ecx
  0x23b4	mov    	edx, ecx
  0x23b6	call   	0x23cc
  === BLOCK LINK ===
    0x23bb
=== CODE BLOCK END ===

=== CODE BLOCK ADDRESS 0x23bb ===
  0x23bb	mov    	eax, 1
  0x23c0	dec    	eax
  0x23c1	add    	esp, 0x28
  0x23c4	ret    	
  0x23c5	int3   	
  === BLOCK LINK ===
    0x23c6
=== CODE BLOCK END ===

=== CODE BLOCK ADDRESS 0x11bb ===
  0x11bb	dec    	ecx
  0x11bc	lea    	ecx, [edx + 1]
  0x11bf	dec    	ecx
  === BLOCK LINK ===
    0x11c0
=== CODE BLOCK END ===

=== CODE BLOCK ADDRESS 0x23c6 ===
  0x23c6	int3   	
  0x23c7	int3   	
  0x23c8	int3   	
  0x23c9	int3   	
  0x23ca	int3   	
  === BLOCK LINK ===
    0x23cb
=== CODE BLOCK END ===

=== CODE BLOCK ADDRESS 0x23cb ===
  0x23cb	int3   	
  0x23cc	inc    	eax
  0x23cd	push   	ebx
  0x23ce	inc    	ebp
  0x23cf	mov    	ebx, dword ptr [eax]
  === BLOCK LINK ===
    0x23d1
=== CODE BLOCK END ===

=== CODE BLOCK ADDRESS 0x23d1 ===
  0x23d1	dec    	eax
  0x23d2	mov    	ebx, edx
  0x23d4	inc    	ecx
  0x23d5	and    	ebx, 0xfffffff8
  0x23d8	dec    	esp
  === BLOCK LINK ===
    0x23d9
=== CODE BLOCK END ===

=== CODE BLOCK ADDRESS 0x23d9 ===
  0x23d9	mov    	ecx, ecx
  0x23db	inc    	ecx
  0x23dc	test   	byte ptr [eax], 4
  0x23df	dec    	esp
  0x23e0	mov    	edx, ecx
  === BLOCK LINK ===
    0x23e2
=== CODE BLOCK END ===

=== CODE BLOCK ADDRESS 0x23e2 ===
  0x23e2	je     	0x23f7
  === BLOCK LINK ===
    0x23e4
=== CODE BLOCK END ===

=== CODE BLOCK ADDRESS 0x23e4 ===
  0x23e4	inc    	ecx
  0x23e5	mov    	eax, dword ptr [eax + 8]
  0x23e8	dec    	ebp
  0x23e9	arpl   	word ptr [eax + 4], dx
  0x23ec	neg    	eax
  === BLOCK LINK ===
    0x23ee
=== CODE BLOCK END ===

=== CODE BLOCK ADDRESS 0x23ee ===
  0x23ee	dec    	esp
  0x23ef	add    	edx, ecx
  0x23f1	dec    	eax
  0x23f2	arpl   	ax, cx
  0x23f4	dec    	esp
  === BLOCK LINK ===
    0x23f5
=== CODE BLOCK END ===

=== CODE BLOCK ADDRESS 0x23f5 ===
  0x23f5	and    	edx, ecx
  0x23f7	dec    	ecx
  0x23f8	arpl   	bx, ax
  0x23fa	dec    	edx
  0x23fb	mov    	edx, dword ptr [eax + edx]
  === BLOCK LINK ===
    0x23fe
=== CODE BLOCK END ===

=== CODE BLOCK ADDRESS 0x23fe ===
  0x23fe	dec    	eax
  0x23ff	mov    	eax, dword ptr [ebx + 0x10]
  0x2402	mov    	ecx, dword ptr [eax + 8]
  0x2405	dec    	eax
  0x2406	mov    	eax, dword ptr [ebx + 8]
  === BLOCK LINK ===
    0x2409
=== CODE BLOCK END ===

=== CODE BLOCK ADDRESS 0x2409 ===
  0x2409	test   	byte ptr [ecx + eax + 3], 0xf
  0x240e	je     	0x241b
  === BLOCK LINK ===
    0x2410
=== CODE BLOCK END ===

=== CODE BLOCK ADDRESS 0x2410 ===
  0x2410	movzx  	eax, byte ptr [ecx + eax + 3]
  0x2415	and    	eax, 0xfffffff0
  0x2418	dec    	esp
  0x2419	add    	ecx, eax
  0x241b	dec    	esp
  === BLOCK LINK ===
    0x241c
=== CODE BLOCK END ===

=== CODE BLOCK ADDRESS 0x241c ===
  0x241c	xor    	ecx, edx
  0x241e	dec    	ecx
  0x241f	mov    	ecx, ecx
  0x2421	pop    	ebx
  0x2422	jmp    	0x1e90
  === BLOCK LINK ===
    0x2427
=== CODE BLOCK END ===

=== CODE BLOCK ADDRESS 0x2427 ===
  0x2427	int3   	
  0x2428	int3   	
  0x2429	int3   	
  0x242a	int3   	
  0x242b	int3   	
  === BLOCK LINK ===
    0x242c
=== CODE BLOCK END ===

=== CODE BLOCK ADDRESS 0x242c ===
  0x242c	int3   	
  0x242d	int3   	
  0x242e	int3   	
  0x242f	int3   	
  0x2430	int3   	
  === BLOCK LINK ===
    0x2431
=== CODE BLOCK END ===

=== CODE BLOCK ADDRESS 0x2431 ===
  0x2431	int3   	
  0x2432	int3   	
  0x2433	int3   	
  0x2434	int3   	
  0x2435	int3   	
  === BLOCK LINK ===
    0x2436
=== CODE BLOCK END ===

=== CODE BLOCK ADDRESS 0x2436 ===
  0x2436	nop    	word ptr [eax + eax]
  0x2440	jmp    	eax
  === BLOCK LINK ===
    0x2442
=== CODE BLOCK END ===

=== CODE BLOCK ADDRESS 0x2442 ===
  0x2442	int3   	
  0x2443	int3   	
  0x2444	int3   	
  0x2445	int3   	
  0x2446	int3   	
  === BLOCK LINK ===
    0x2447
=== CODE BLOCK END ===

=== CODE BLOCK ADDRESS 0x2447 ===
  0x2447	int3   	
  0x2448	int3   	
  0x2449	int3   	
  0x244a	int3   	
  0x244b	int3   	
  === BLOCK LINK ===
    0x244c
=== CODE BLOCK END ===

=== CODE BLOCK ADDRESS 0x244c ===
  0x244c	int3   	
  0x244d	int3   	
  0x244e	int3   	
  0x244f	int3   	
  0x2450	inc    	eax
  === BLOCK LINK ===
    0x2451
=== CODE BLOCK END ===

=== CODE BLOCK ADDRESS 0x2451 ===
  0x2451	push   	ebp
  0x2452	dec    	eax
  0x2453	sub    	esp, 0x20
  0x2456	dec    	eax
  0x2457	mov    	ebp, edx
  === BLOCK LINK ===
    0x2459
=== CODE BLOCK END ===

=== CODE BLOCK ADDRESS 0x2459 ===
  0x2459	dec    	eax
  0x245a	mov    	eax, dword ptr [ecx]
  0x245c	dec    	eax
  0x245d	mov    	edx, ecx
  0x245f	mov    	ecx, dword ptr [eax]
  === BLOCK LINK ===
    0x2461
=== CODE BLOCK END ===

=== CODE BLOCK ADDRESS 0x2461 ===
  0x2461	call   	0x1f1e
  === BLOCK LINK ===
    0x2466
=== CODE BLOCK END ===

=== CODE BLOCK ADDRESS 0x2466 ===
  0x2466	nop    	
  0x2467	dec    	eax
  0x2468	add    	esp, 0x20
  0x246b	pop    	ebp
  0x246c	ret    	
  === BLOCK LINK ===
    0x246d
=== CODE BLOCK END ===

=== CODE BLOCK ADDRESS 0x246d ===
  0x246d	int3   	
  0x246e	int3   	
  0x246f	int3   	
  0x2470	int3   	
  0x2471	int3   	
  === BLOCK LINK ===
    0x2472
=== CODE BLOCK END ===

=== CODE BLOCK ADDRESS 0x2472 ===
  0x2472	int3   	
  0x2473	int3   	
  0x2474	int3   	
  0x2475	int3   	
  0x2476	int3   	
  === BLOCK LINK ===
    0x2477
=== CODE BLOCK END ===

=== CODE BLOCK ADDRESS 0x2477 ===
  0x2477	int3   	
  0x2478	int3   	
  0x2479	int3   	
  0x247a	int3   	
  0x247b	int3   	
  === BLOCK LINK ===
    0x247c
=== CODE BLOCK END ===

=== CODE BLOCK ADDRESS 0x247c ===
  0x247c	int3   	
  0x247d	int3   	
  0x247e	int3   	
  0x247f	int3   	
  0x2480	inc    	eax
  === BLOCK LINK ===
    0x2481
=== CODE BLOCK END ===

=== CODE BLOCK ADDRESS 0x2481 ===
  0x2481	push   	ebp
  0x2482	dec    	eax
  0x2483	sub    	esp, 0x20
  0x2486	dec    	eax
  0x2487	mov    	ebp, edx
  === BLOCK LINK ===
    0x2489
=== CODE BLOCK END ===

=== CODE BLOCK ADDRESS 0x2489 ===
  0x2489	dec    	eax
  0x248a	mov    	eax, dword ptr [ecx]
  0x248c	xor    	ecx, ecx
  0x248e	cmp    	dword ptr [eax], 0xc0000005
  0x2494	sete   	cl
  === BLOCK LINK ===
    0x2497
=== CODE BLOCK END ===

=== CODE BLOCK ADDRESS 0x2497 ===
  0x2497	mov    	eax, ecx
  0x2499	dec    	eax
  0x249a	add    	esp, 0x20
  0x249d	pop    	ebp
  0x249e	ret    	
  === BLOCK LINK ===
    0x249f
=== CODE BLOCK END ===

=== CODE BLOCK ADDRESS 0x1240 ===
  0x1240	test   	ebx, ebx
  0x1242	js     	0x12fe
  === BLOCK LINK ===
    0x1248
=== CODE BLOCK END ===

=== CODE BLOCK ADDRESS 0x249f ===
  0x249f	int3   	
  0x24a0	int3   	
  0x24a1	int3   	
  0x24a2	int3   	
  0x24a3	int3   	
  === BLOCK LINK ===
    0x24a4
=== CODE BLOCK END ===

=== CODE BLOCK ADDRESS 0x24a4 ===
  0x24a4	int3   	
  0x24a5	int3   	
  0x24a6	int3   	
  0x24a7	int3   	
  0x24a8	inc    	eax
  === BLOCK LINK ===
    0x24a9
=== CODE BLOCK END ===

=== CODE BLOCK ADDRESS 0x24a9 ===
  0x24a9	push   	ebx
  0x24aa	dec    	eax
  0x24ab	sub    	esp, 0x20
  0x24ae	dec    	eax
  0x24af	lea    	ebx, [0xf93]
  === BLOCK LINK ===
    0x24b5
=== CODE BLOCK END ===

=== CODE BLOCK ADDRESS 0x24b5 ===
  0x24b5	dec    	ecx
  0x24b6	mov    	edx, 0xffffffff
  0x24bc	inc    	esi
  0x24bd	movzx  	ebx, word ptr [ecx + edx*2 + 2]
  0x24c2	inc    	edx
  === BLOCK LINK ===
    0x24c3
=== CODE BLOCK END ===

=== CODE BLOCK ADDRESS 0x24c3 ===
  0x24c3	movzx  	eax, word ptr [ebx + edx*2 + 2]
  0x24c8	inc    	esp
  0x24c9	sub    	ebx, eax
  0x24cb	jne    	0x24e6
  === BLOCK LINK ===
    0x24cd
=== CODE BLOCK END ===

=== CODE BLOCK ADDRESS 0x24cd ===
  0x24cd	dec    	ecx
  0x24ce	add    	edx, 2
  0x24d1	dec    	ecx
  0x24d2	cmp    	edx, 0x11
  0x24d5	je     	0x24e6
  === BLOCK LINK ===
    0x24d7
=== CODE BLOCK END ===

=== CODE BLOCK ADDRESS 0x24d7 ===
  0x24d7	inc    	esi
  0x24d8	movzx  	ebx, word ptr [ecx + edx*2]
  0x24dc	inc    	edx
  0x24dd	movzx  	eax, word ptr [ebx + edx*2]
  0x24e1	inc    	esp
  === BLOCK LINK ===
    0x24e2
=== CODE BLOCK END ===

=== CODE BLOCK ADDRESS 0x24e2 ===
  0x24e2	sub    	ebx, eax
  0x24e4	je     	0x24bc
  === BLOCK LINK ===
    0x24e6
=== CODE BLOCK END ===

=== CODE BLOCK ADDRESS 0x24e6 ===
  0x24e6	inc    	ebp
  0x24e7	test   	ebx, ebx
  0x24e9	jne    	0x253f
  === BLOCK LINK ===
    0x24eb
=== CODE BLOCK END ===

=== CODE BLOCK ADDRESS 0x24eb ===
  0x24eb	mov    	dword ptr [edx], 6
  0x24f1	dec    	ecx
  0x24f2	mov    	ecx, eax
  0x24f4	dec    	ecx
  0x24f5	mov    	edx, ecx
  === BLOCK LINK ===
    0x24f7
=== CODE BLOCK END ===

=== CODE BLOCK ADDRESS 0x24f7 ===
  0x24f7	dec    	eax
  0x24f8	call   	dword ptr [0xce2]
  === BLOCK LINK ===
    0x24fe
=== CODE BLOCK END ===

=== CODE BLOCK ADDRESS 0x24fe ===
  0x24fe	nop    	dword ptr [eax + eax]
  0x2503	test   	eax, eax
  0x2505	js     	0x2544
  === BLOCK LINK ===
    0x2507
=== CODE BLOCK END ===

=== CODE BLOCK ADDRESS 0x2507 ===
  0x2507	dec    	eax
  0x2508	mov    	edx, dword ptr [esp + 0x58]
  0x250c	dec    	eax
  0x250d	mov    	ecx, dword ptr [esp + 0x50]
  0x2511	call   	0x2554
  === BLOCK LINK ===
    0x2516
=== CODE BLOCK END ===

=== CODE BLOCK ADDRESS 0x2516 ===
  0x2516	test   	eax, eax
  0x2518	js     	0x2544
  === BLOCK LINK ===
    0x251a
=== CODE BLOCK END ===

=== CODE BLOCK ADDRESS 0x251a ===
  0x251a	dec    	eax
  0x251b	mov    	ebx, dword ptr [esp + 0x68]
  0x251f	dec    	eax
  0x2520	mov    	ecx, dword ptr [esp + 0x60]
  0x2524	dec    	eax
  === BLOCK LINK ===
    0x2525
=== CODE BLOCK END ===

=== CODE BLOCK ADDRESS 0x2525 ===
  0x2525	mov    	edx, ebx
  0x2527	dec    	eax
  0x2528	call   	dword ptr [0xcb2]
  === BLOCK LINK ===
    0x252e
=== CODE BLOCK END ===

=== CODE BLOCK ADDRESS 0x252e ===
  0x252e	nop    	dword ptr [eax + eax]
  0x2533	test   	eax, eax
  0x2535	jns    	0x2544
  === BLOCK LINK ===
    0x2537
=== CODE BLOCK END ===

=== CODE BLOCK ADDRESS 0x2537 ===
  0x2537	xorps  	xmm0, xmm0
  0x253a	movups  	xmmword ptr [ebx], xmm0
  0x253d	jmp    	0x2544
  === BLOCK LINK ===
    0x253f
=== CODE BLOCK END ===

=== CODE BLOCK ADDRESS 0x253f ===
  0x253f	mov    	eax, 0x80070667
  0x2544	dec    	eax
  0x2545	add    	esp, 0x20
  0x2548	pop    	ebx
  0x2549	ret    	
  === BLOCK LINK ===
    0x254a
=== CODE BLOCK END ===

=== CODE BLOCK ADDRESS 0x1131 ===
  0x1131	inc    	esi
  0x1132	movzx  	eax, word ptr [ecx + ecx*2]
  0x1136	dec    	ebp
  0x1137	mov    	edi, ecx
  === BLOCK LINK ===
    0x1139
=== CODE BLOCK END ===

=== CODE BLOCK ADDRESS 0x254a ===
  0x254a	int3   	
  0x254b	int3   	
  0x254c	int3   	
  0x254d	int3   	
  0x254e	int3   	
  === BLOCK LINK ===
    0x254f
=== CODE BLOCK END ===

=== CODE BLOCK ADDRESS 0x254f ===
  0x254f	int3   	
  0x2550	int3   	
  0x2551	int3   	
  0x2552	int3   	
  0x2553	int3   	
  === BLOCK LINK ===
    0x2554
=== CODE BLOCK END ===

=== CODE BLOCK ADDRESS 0x2554 ===
  0x2554	dec    	eax
  0x2555	mov    	dword ptr [esp + 8], ebx
  0x2559	push   	edi
  0x255a	dec    	eax
  0x255b	sub    	esp, 0x20
  === BLOCK LINK ===
    0x255e
=== CODE BLOCK END ===

=== CODE BLOCK ADDRESS 0x255e ===
  0x255e	dec    	eax
  0x255f	mov    	ebx, edx
  0x2561	inc    	ecx
  0x2562	mov    	eax, 0xa
  0x2567	dec    	eax
  === BLOCK LINK ===
    0x2568
=== CODE BLOCK END ===

=== CODE BLOCK ADDRESS 0x2568 ===
  0x2568	lea    	edx, [esp + 0x38]
  0x256c	dec    	eax
  0x256d	mov    	edi, ecx
  0x256f	dec    	eax
  0x2570	call   	dword ptr [0xcea]
  === BLOCK LINK ===
    0x2576
=== CODE BLOCK END ===

=== CODE BLOCK ADDRESS 0x2576 ===
  0x2576	nop    	dword ptr [eax + eax]
  0x257b	xor    	edx, edx
  0x257d	mov    	dword ptr [ebx], eax
  0x257f	test   	eax, eax
  0x2581	je     	0x2587
  === BLOCK LINK ===
    0x2583
=== CODE BLOCK END ===

=== CODE BLOCK ADDRESS 0x2583 ===
  0x2583	mov    	eax, edx
  0x2585	jmp    	0x25a9
  === BLOCK LINK ===
    0x2587
=== CODE BLOCK END ===

=== CODE BLOCK ADDRESS 0x2587 ===
  0x2587	mov    	eax, 0x30
  0x258c	movzx  	ecx, ax
  0x258f	movzx  	eax, word ptr [edi]
  0x2592	sub    	ecx, eax
  0x2594	jne    	0x259f
  === BLOCK LINK ===
    0x2596
=== CODE BLOCK END ===

=== CODE BLOCK ADDRESS 0x2596 ===
  0x2596	movzx  	eax, word ptr [edi + 2]
  0x259a	movzx  	ecx, dx
  0x259d	sub    	ecx, eax
  0x259f	test   	ecx, ecx
  0x25a1	mov    	eax, 0x8007000d
  === BLOCK LINK ===
    0x25a6
=== CODE BLOCK END ===

=== CODE BLOCK ADDRESS 0x25a6 ===
  0x25a6	cmove  	eax, edx
  0x25a9	dec    	eax
  0x25aa	mov    	ebx, dword ptr [esp + 0x30]
  0x25ae	dec    	eax
  0x25af	add    	esp, 0x20
  === BLOCK LINK ===
    0x25b2
=== CODE BLOCK END ===

=== CODE BLOCK ADDRESS 0x25b2 ===
  0x25b2	pop    	edi
  0x25b3	ret    	
  0x25b4	int3   	
  0x25b5	add    	byte ptr [eax], al
  0x25b7	add    	byte ptr [eax], al
  === BLOCK LINK ===
    0x25b9
=== CODE BLOCK END ===

=== CODE BLOCK ADDRESS 0x25b9 ===
  0x25b9	add    	byte ptr [eax], al
  0x25bb	add    	byte ptr [eax], al
  0x25bd	add    	byte ptr [eax], al
  0x25bf	add    	byte ptr [eax], al
  0x25c1	add    	byte ptr [eax], al
  === BLOCK LINK ===
    0x25c3
=== CODE BLOCK END ===

=== CODE BLOCK ADDRESS 0x25c3 ===
  0x25c3	add    	byte ptr [eax], al
  0x25c5	add    	byte ptr [eax], al
  0x25c7	add    	byte ptr [eax], al
  0x25c9	add    	byte ptr [eax], al
  0x25cb	add    	byte ptr [eax], al
  === BLOCK LINK ===
    0x25cd
=== CODE BLOCK END ===

=== CODE BLOCK ADDRESS 0x25cd ===
  0x25cd	add    	byte ptr [eax], al
  0x25cf	add    	byte ptr [eax], al
  0x25d1	add    	byte ptr [eax], al
  0x25d3	add    	byte ptr [eax], al
  0x25d5	add    	byte ptr [eax], al
  === BLOCK LINK ===
    0x25d7
=== CODE BLOCK END ===

=== CODE BLOCK ADDRESS 0x25d7 ===
  0x25d7	add    	byte ptr [eax], al
  0x25d9	add    	byte ptr [eax], al
  0x25db	add    	byte ptr [eax], al
  0x25dd	add    	byte ptr [eax], al
  0x25df	add    	byte ptr [eax], al
  === BLOCK LINK ===
    0x25e1
=== CODE BLOCK END ===

=== CODE BLOCK ADDRESS 0x25e1 ===
  0x25e1	add    	byte ptr [eax], al
  0x25e3	add    	byte ptr [eax], al
  0x25e5	add    	byte ptr [eax], al
  0x25e7	add    	byte ptr [eax], al
  0x25e9	add    	byte ptr [eax], al
  === BLOCK LINK ===
    0x25eb
=== CODE BLOCK END ===

=== CODE BLOCK ADDRESS 0x25eb ===
  0x25eb	add    	byte ptr [eax], al
  0x25ed	add    	byte ptr [eax], al
  0x25ef	add    	byte ptr [eax], al
  0x25f1	add    	byte ptr [eax], al
  0x25f3	add    	byte ptr [eax], al
  === BLOCK LINK ===
    0x25f5
=== CODE BLOCK END ===

=== CODE BLOCK ADDRESS 0x25f5 ===
  0x25f5	add    	byte ptr [eax], al
  0x25f7	add    	byte ptr [eax], al
  0x25f9	add    	byte ptr [eax], al
  0x25fb	add    	byte ptr [eax], al
  0x25fd	add    	byte ptr [eax], al
  === BLOCK LINK ===
    0x25ff
=== CODE BLOCK END ===

=== CODE BLOCK ADDRESS 0x25ff ===
=== CODE BLOCK END ===

=== DATA BLOCK ADDRESS 0x3000 ===
  0x3000	70 40 00 40 01 00 00 00 10 41 00 40 01 00 00 00 	p@0@00000A0@0000
  0x3010	18 01 00 00 00 00 00 00 00 00 00 00 00 00 00 00 	0000000000000000
  0x3020	00 00 00 00 00 00 00 00 00 00 00 00 00 00 00 00 	0000000000000000
  0x3030	00 00 00 00 00 00 00 00 00 00 00 00 00 00 00 00 	0000000000000000
  0x3040	00 00 00 00 00 00 00 00 00 00 00 00 00 00 00 00 	0000000000000000
  0x3050	00 00 00 00 00 00 00 00 00 00 00 00 00 00 00 00 	0000000000000000
  0x3060	00 00 00 00 00 00 00 00 08 40 00 40 01 00 00 00 	000000000@0@0000
  0x3070	00 00 00 00 00 00 00 00 00 00 00 00 00 00 00 00 	0000000000000000
  0x3080	70 32 00 40 01 00 00 00 78 32 00 40 01 00 00 00 	p20@0000x20@0000
  0x3090	b8 32 00 40 01 00 00 00 08 00 00 00 00 00 00 00 	020@000000000000
  0x30a0	00 75 01 00 00 00 00 00 00 00 00 00 00 00 00 00 	0u00000000000000
  0x30b0	00 00 00 00 00 00 00 00 00 00 00 00 00 00 00 00 	0000000000000000
  0x30c0	00 00 00 00 00 00 00 00 00 00 00 00 00 00 00 00 	0000000000000000
  0x30d0	00 00 00 00 00 00 00 00 00 00 00 00 00 00 00 00 	0000000000000000
  0x30e0	00 00 00 00 00 00 00 00 00 00 00 00 00 00 00 00 	0000000000000000
  0x30f0	00 00 00 00 00 00 00 00 00 00 00 00 00 00 00 00 	0000000000000000
  0x3100	00 00 00 00 00 00 00 00 00 00 00 00 00 00 00 00 	0000000000000000
  0x3110	00 00 00 00 00 00 00 00 00 00 00 00 00 00 00 00 	0000000000000000
  0x3120	00 00 00 00 00 00 00 00 f0 39 00 00 00 00 00 00 	0000000009000000
  0x3130	fe 39 00 00 00 00 00 00 10 3a 00 00 00 00 00 00 	090000000:000000
  0x3140	1c 3a 00 00 00 00 00 00 b2 3c 00 00 00 00 00 00 	0:0000000<000000
  0x3150	9e 3c 00 00 00 00 00 00 8a 3c 00 00 00 00 00 00 	0<0000000<000000
  0x3160	6e 3c 00 00 00 00 00 00 5a 3c 00 00 00 00 00 00 	n<000000Z<000000
  0x3170	40 3c 00 00 00 00 00 00 2c 3c 00 00 00 00 00 00 	@<000000,<000000
  0x3180	1c 3c 00 00 00 00 00 00 02 3c 00 00 00 00 00 00 	0<0000000<000000
  0x3190	ec 3b 00 00 00 00 00 00 d6 3b 00 00 00 00 00 00 	0;0000000;000000
  0x31a0	bc 3b 00 00 00 00 00 00 9e 3b 00 00 00 00 00 00 	0;0000000;000000
  0x31b0	8c 3b 00 00 00 00 00 00 84 3b 00 00 00 00 00 00 	0;0000000;000000
  0x31c0	00 00 00 00 00 00 00 00 52 3b 00 00 00 00 00 00 	00000000R;000000
  0x31d0	1a 3b 00 00 00 00 00 00 2c 3b 00 00 00 00 00 00 	0;000000,;000000
  0x31e0	40 3b 00 00 00 00 00 00 00 00 00 00 00 00 00 00 	@;00000000000000
  0x31f0	06 3b 00 00 00 00 00 00 ee 3a 00 00 00 00 00 00 	0;0000000:000000
  0x3200	e4 3a 00 00 00 00 00 00 da 3a 00 00 00 00 00 00 	0:0000000:000000
  0x3210	c2 3a 00 00 00 00 00 00 b6 3a 00 00 00 00 00 00 	0:0000000:000000
  0x3220	a2 3a 00 00 00 00 00 00 98 3a 00 00 00 00 00 00 	0:0000000:000000
  0x3230	90 3a 00 00 00 00 00 00 88 3a 00 00 00 00 00 00 	0:0000000:000000
  0x3240	76 3a 00 00 00 00 00 00 64 3a 00 00 00 00 00 00 	v:000000d:000000
  0x3250	56 3a 00 00 00 00 00 00 48 3a 00 00 00 00 00 00 	V:000000H:000000
  0x3260	3e 3a 00 00 00 00 00 00 00 00 00 00 00 00 00 00 	>:00000000000000
  0x3270	d0 21 00 40 01 00 00 00 40 24 00 40 01 00 00 00 	0!0@0000@$0@0000
  0x3280	00 00 00 00 00 00 00 00 a0 1b 00 40 01 00 00 00 	00000000000@0000
  0x3290	00 00 00 00 00 00 00 00 00 00 00 00 00 00 00 00 	0000000000000000
  0x32a0	c0 1a 00 40 01 00 00 00 00 1f 00 40 01 00 00 00 	000@0000000@0000
  0x32b0	00 00 00 00 00 00 00 00 c0 1a 00 00 a0 1b 00 00 	0000000000000000
  0x32c0	60 1e 00 00 c0 1e 00 00 00 1f 00 00 e0 1f 00 00 	`000000000000000
  0x32d0	d0 21 00 00 20 22 00 00 00 00 00 00 00 00 00 00 	0!00 "0000000000
  0x32e0	73 00 79 00 6e 00 63 00 00 00 00 00 00 00 00 00 	s0y0n0c000000000
  0x32f0	73 00 63 00 68 00 65 00 64 00 75 00 6c 00 65 00 	s0c0h0e0d0u0l0e0
  0x3300	00 00 00 00 00 00 00 00 65 00 6e 00 61 00 62 00 	00000000e0n0a0b0
  0x3310	6c 00 65 00 00 00 00 00 64 00 69 00 73 00 61 00 	l0e00000d0i0s0a0
  0x3320	62 00 6c 00 65 00 00 00 66 00 6f 00 72 00 63 00 	b0l0e000f0o0r0c0
  0x3330	65 00 73 00 79 00 6e 00 63 00 00 00 00 00 00 00 	e0s0y0n0c0000000
  0x3340	72 00 65 00 62 00 75 00 69 00 6c 00 64 00 00 00 	r0e0b0u0i0l0d000
  0x3350	64 00 69 00 61 00 67 00 00 00 00 00 00 00 00 00 	d0i0a0g000000000
  0x3360	75 00 6e 00 69 00 6e 00 73 00 74 00 61 00 6c 00 	u0n0i0n0s0t0a0l0
  0x3370	6c 00 00 00 00 00 00 00 4b 00 65 00 72 00 6e 00 	l0000000K0e0r0n0
  0x3380	65 00 6c 00 33 00 32 00 2e 00 64 00 6c 00 6c 00 	e0l03020.0d0l0l0
  0x3390	00 00 00 00 00 00 00 00 48 65 61 70 53 65 74 49 	00000000HeapSetI
  0x33a0	6e 66 6f 72 6d 61 74 69 6f 6e 00 00 00 00 00 00 	nformation000000
  0x33b0	2e 6a 9f f3 9f 75 c3 46 ac 97 92 2b a5 51 f2 5b 	.j000u0F000+0Q0[
  0x33c0	b4 d0 27 10 e4 35 26 42 97 db 1f 4c d5 0d e3 c2 	00'005&B000L0000
  0x33d0	b6 9e 05 c8 fc d2 cf 4e a1 5f af 42 7f 5e 4d b6 	0000000N0_0B0^M0
  0x33e0	77 67 d3 f4 ed ea c5 4c 9f e7 82 7b e5 19 0b 20 	wg00000L000{000 
  0x33f0	00 00 00 00 36 52 b7 83 00 00 00 00 02 00 00 00 	00006R0000000000
  0x3400	28 00 00 00 6c 34 00 00 6c 1e 00 00 00 00 00 00 	(000l400l0000000
  0x3410	36 52 b7 83 00 00 00 00 0d 00 00 00 68 02 00 00 	6R0000000000h000
  0x3420	94 34 00 00 94 1e 00 00 00 00 00 00 36 52 b7 83 	0400000000006R00
  0x3430	00 00 00 00 10 00 00 00 24 00 00 00 fc 36 00 00 	00000000$0000600
  0x3440	fc 20 00 00 00 00 00 00 50 00 72 00 6f 00 63 00 	0 000000P0r0o0c0
  0x3450	65 00 73 00 73 00 45 00 6e 00 63 00 6c 00 6f 00 	e0s0s0E0n0c0l0o0
  0x3460	73 00 75 00 72 00 65 00 00 00 00 00 52 53 44 53 	s0u0r0e00000RSDS
  0x3470	73 5f 73 c9 39 94 17 e2 cf 32 2d cd 2d 58 06 cc 	s_s0900002-0-X00
  0x3480	01 00 00 00 6d 73 66 65 65 64 73 73 79 6e 63 2e 	0000msfeedssync.
  0x3490	70 64 62 00 00 55 47 50 00 10 00 00 c0 0a 00 00 	pdb00UGP00000000
  0x34a0	2e 74 65 78 74 24 6c 70 30 30 6d 73 66 65 65 64 	.text$lp00msfeed
  0x34b0	73 73 79 6e 63 2e 65 78 65 21 32 30 5f 70 72 69 	ssync.exe!20_pri
  0x34c0	37 00 00 00 c0 1a 00 00 70 09 00 00 2e 74 65 78 	70000000p000.tex
  0x34d0	74 24 6d 6e 00 00 00 00 30 24 00 00 20 00 00 00 	t$mn00000$00 000
  0x34e0	2e 74 65 78 74 24 6d 6e 24 30 30 00 50 24 00 00 	.text$mn$000P$00
  0x34f0	50 00 00 00 2e 74 65 78 74 24 78 00 a0 24 00 00 	P000.text$x00$00
  0x3500	15 01 00 00 2e 74 65 78 74 24 7a 7a 00 00 00 00 	0000.text$zz0000
  0x3510	00 30 00 00 28 01 00 00 2e 72 64 61 74 61 24 62 	0000(000.rdata$b
  0x3520	72 63 00 00 28 31 00 00 48 01 00 00 2e 69 64 61 	rc00(100H000.ida
  0x3530	74 61 24 35 00 00 00 00 70 32 00 00 10 00 00 00 	ta$50000p2000000
  0x3540	2e 30 30 63 66 67 00 00 80 32 00 00 08 00 00 00 	.00cfg0002000000
  0x3550	2e 43 52 54 24 58 43 41 00 00 00 00 88 32 00 00 	.CRT$XCA00000200
  0x3560	08 00 00 00 2e 43 52 54 24 58 43 41 41 00 00 00 	0000.CRT$XCAA000
  0x3570	90 32 00 00 08 00 00 00 2e 43 52 54 24 58 43 5a 	02000000.CRT$XCZ
  0x3580	00 00 00 00 98 32 00 00 08 00 00 00 2e 43 52 54 	000002000000.CRT
  0x3590	24 58 49 41 00 00 00 00 a0 32 00 00 08 00 00 00 	$XIA000002000000
  0x35a0	2e 43 52 54 24 58 49 41 41 00 00 00 a8 32 00 00 	.CRT$XIAA0000200
  0x35b0	08 00 00 00 2e 43 52 54 24 58 49 59 00 00 00 00 	0000.CRT$XIY0000
  0x35c0	b0 32 00 00 08 00 00 00 2e 43 52 54 24 58 49 5a 	02000000.CRT$XIZ
  0x35d0	00 00 00 00 b8 32 00 00 28 00 00 00 2e 67 66 69 	00000200(000.gfi
  0x35e0	64 73 00 00 e0 32 00 00 68 01 00 00 2e 72 64 61 	ds000200h000.rda
  0x35f0	74 61 00 00 48 34 00 00 24 00 00 00 2e 72 64 61 	ta00H400$000.rda
  0x3600	74 61 24 7a 7a 00 00 00 6c 34 00 00 b4 02 00 00 	ta$zz000l4000000
  0x3610	2e 72 64 61 74 61 24 7a 7a 7a 64 62 67 00 00 00 	.rdata$zzzdbg000
  0x3620	20 37 00 00 38 01 00 00 2e 78 64 61 74 61 00 00 	 7008000.xdata00
  0x3630	58 38 00 00 3c 00 00 00 2e 69 64 61 74 61 24 32 	X800<000.idata$2
  0x3640	00 00 00 00 94 38 00 00 14 00 00 00 2e 69 64 61 	000008000000.ida
  0x3650	74 61 24 33 00 00 00 00 a8 38 00 00 48 01 00 00 	ta$300000800H000
  0x3660	2e 69 64 61 74 61 24 34 00 00 00 00 f0 39 00 00 	.idata$400000900
  0x3670	d0 02 00 00 2e 69 64 61 74 61 24 36 00 00 00 00 	0000.idata$60000
  0x3680	00 40 00 00 20 00 00 00 2e 64 61 74 61 00 00 00 	0@00 000.data000
  0x3690	20 40 00 00 10 00 00 00 2e 64 61 74 61 24 30 30 	 @000000.data$00
  0x36a0	00 00 00 00 30 40 00 00 60 06 00 00 2e 62 73 73 	00000@00`000.bss
  0x36b0	00 00 00 00 90 46 00 00 04 00 00 00 2e 62 73 73 	00000F000000.bss
  0x36c0	24 7a 7a 00 00 50 00 00 2c 01 00 00 2e 70 64 61 	$zz00P00,000.pda
  0x36d0	74 61 00 00 00 60 00 00 a0 00 00 00 2e 72 73 72 	ta000`000000.rsr
  0x36e0	63 24 30 31 00 00 00 00 a0 60 00 00 58 0a 00 00 	c$0100000`00X000
  0x36f0	2e 72 73 72 63 24 30 32 00 00 00 00 20 00 00 00 	.rsrc$020000 000
  0x3700	73 5f 73 c9 39 94 17 e2 cf 32 2d cd 2d 58 06 cc 	s_s0900002-0-X00
  0x3710	c0 72 01 bd da 3d 6c 7e e7 cb cf 65 36 52 b7 83 	0r000=l~000e6R00
  0x3720	19 20 05 00 12 01 18 00 06 f0 04 e0 02 50 00 00 	0 00000000000P00
  0x3730	a8 23 00 00 a0 00 00 00 21 08 02 00 08 34 1c 00 	0#000000!0000400
  0x3740	10 10 00 00 94 10 00 00 20 37 00 00 21 24 08 00 	00000000 700!$00
  0x3750	24 d4 16 00 18 c4 17 00 10 74 1f 00 08 64 1d 00 	$00000000t000d00
  0x3760	94 10 00 00 9c 10 00 00 38 37 00 00 21 00 00 00 	000000008700!000
  0x3770	94 10 00 00 9c 10 00 00 38 37 00 00 21 00 00 00 	000000008700!000
  0x3780	10 10 00 00 94 10 00 00 20 37 00 00 01 04 01 00 	00000000 7000000
  0x3790	04 42 00 00 01 04 01 00 04 62 00 00 09 1c 0b 00 	0B0000000b000000
  0x37a0	1c e4 1b 00 1c 74 1a 00 1c 64 19 00 1c 34 18 00 	00000t000d000400
  0x37b0	1c 01 16 00 15 f0 00 00 ba 21 00 00 01 00 00 00 	000000000!000000
  0x37c0	1f 1c 00 00 09 1e 00 00 50 24 00 00 09 1e 00 00 	00000000P$000000
  0x37d0	01 06 02 00 06 32 02 50 01 00 00 00 09 04 01 00 	0000020P00000000
  0x37e0	04 22 00 00 ba 21 00 00 01 00 00 00 3c 1f 00 00 	0"000!000000<000
  0x37f0	72 1f 00 00 01 00 00 00 72 1f 00 00 09 0a 04 00 	r0000000r0000000
  0x3800	0a 34 06 00 0a 32 06 70 ba 21 00 00 01 00 00 00 	0400020p0!000000
  0x3810	4d 20 00 00 80 20 00 00 80 24 00 00 80 20 00 00 	M 000 000$000 00
  0x3820	01 0d 04 00 0d 34 09 00 0d 32 06 50 01 0c 02 00 	00000400020P0000
  0x3830	0c 01 11 00 00 00 00 00 01 00 00 00 01 06 02 00 	0000000000000000
  0x3840	06 32 02 30 01 0a 04 00 0a 34 06 00 0a 32 06 70 	020000000400020p
  0x3850	01 02 01 00 02 30 00 00 a8 38 00 00 00 00 00 00 	0000000008000000
  0x3860	00 00 00 00 30 3a 00 00 28 31 00 00 70 39 00 00 	00000:00(100p900
  0x3870	00 00 00 00 00 00 00 00 fa 3a 00 00 f0 31 00 00 	000000000:000100
  0x3880	48 39 00 00 00 00 00 00 00 00 00 00 64 3b 00 00 	H90000000000d;00
  0x3890	c8 31 00 00 00 00 00 00 00 00 00 00 00 00 00 00 	0100000000000000
  0x38a0	00 00 00 00 00 00 00 00 f0 39 00 00 00 00 00 00 	0000000009000000
  0x38b0	fe 39 00 00 00 00 00 00 10 3a 00 00 00 00 00 00 	090000000:000000
  0x38c0	1c 3a 00 00 00 00 00 00 b2 3c 00 00 00 00 00 00 	0:0000000<000000
  0x38d0	9e 3c 00 00 00 00 00 00 8a 3c 00 00 00 00 00 00 	0<0000000<000000
  0x38e0	6e 3c 00 00 00 00 00 00 5a 3c 00 00 00 00 00 00 	n<000000Z<000000
  0x38f0	40 3c 00 00 00 00 00 00 2c 3c 00 00 00 00 00 00 	@<000000,<000000
  0x3900	1c 3c 00 00 00 00 00 00 02 3c 00 00 00 00 00 00 	0<0000000<000000
  0x3910	ec 3b 00 00 00 00 00 00 d6 3b 00 00 00 00 00 00 	0;0000000;000000
  0x3920	bc 3b 00 00 00 00 00 00 9e 3b 00 00 00 00 00 00 	0;0000000;000000
  0x3930	8c 3b 00 00 00 00 00 00 84 3b 00 00 00 00 00 00 	0;0000000;000000
  0x3940	00 00 00 00 00 00 00 00 52 3b 00 00 00 00 00 00 	00000000R;000000
  0x3950	1a 3b 00 00 00 00 00 00 2c 3b 00 00 00 00 00 00 	0;000000,;000000
  0x3960	40 3b 00 00 00 00 00 00 00 00 00 00 00 00 00 00 	@;00000000000000
  0x3970	06 3b 00 00 00 00 00 00 ee 3a 00 00 00 00 00 00 	0;0000000:000000
  0x3980	e4 3a 00 00 00 00 00 00 da 3a 00 00 00 00 00 00 	0:0000000:000000
  0x3990	c2 3a 00 00 00 00 00 00 b6 3a 00 00 00 00 00 00 	0:0000000:000000
  0x39a0	a2 3a 00 00 00 00 00 00 98 3a 00 00 00 00 00 00 	0:0000000:000000
  0x39b0	90 3a 00 00 00 00 00 00 88 3a 00 00 00 00 00 00 	0:0000000:000000
  0x39c0	76 3a 00 00 00 00 00 00 64 3a 00 00 00 00 00 00 	v:000000d:000000
  0x39d0	56 3a 00 00 00 00 00 00 48 3a 00 00 00 00 00 00 	V:000000H:000000
  0x39e0	3e 3a 00 00 00 00 00 00 00 00 00 00 00 00 00 00 	>:00000000000000
  0x39f0	24 03 47 65 74 56 65 72 73 69 6f 6e 00 00 b7 02 	$0GetVersion0000
  0x3a00	47 65 74 50 72 6f 63 41 64 64 72 65 73 73 00 00 	GetProcAddress00
  0x3a10	d5 03 4c 6f 63 61 6c 46 72 65 65 00 80 02 47 65 	00LocalFree000Ge
  0x3a20	74 4d 6f 64 75 6c 65 48 61 6e 64 6c 65 57 00 00 	tModuleHandleW00
  0x3a30	4b 45 52 4e 45 4c 33 32 2e 64 6c 6c 00 00 1b 05 	KERNEL32.dll0000
  0x3a40	77 63 73 74 6f 75 6c 00 55 00 5f 58 63 70 74 46 	wcstoul0U0_XcptF
  0x3a50	69 6c 74 65 72 00 ae 00 5f 61 6d 73 67 5f 65 78 	ilter000_amsg_ex
  0x3a60	69 74 00 00 9d 00 5f 5f 77 67 65 74 6d 61 69 6e 	it0000__wgetmain
  0x3a70	61 72 67 73 00 00 8e 00 5f 5f 73 65 74 5f 61 70 	args0000__set_ap
  0x3a80	70 5f 74 79 70 65 00 00 32 04 65 78 69 74 00 00 	p_type0020exit00
  0x3a90	0e 01 5f 65 78 69 74 00 c1 00 5f 63 65 78 69 74 	00_exit000_cexit
  0x3aa0	00 00 90 00 5f 5f 73 65 74 75 73 65 72 6d 61 74 	0000__setusermat
  0x3ab0	68 65 72 72 00 00 7d 01 5f 69 6e 69 74 74 65 72 	herr00}0_initter
  0x3ac0	6d 00 57 00 5f 5f 43 5f 73 70 65 63 69 66 69 63 	m0W0__C_specific
  0x3ad0	5f 68 61 6e 64 6c 65 72 00 00 82 03 5f 77 63 6d 	_handler0000_wcm
  0x3ae0	64 6c 6e 00 27 01 5f 66 6d 6f 64 65 00 00 d2 00 	dln0'0_fmode0000
  0x3af0	5f 63 6f 6d 6d 6f 64 65 00 00 6d 73 76 63 72 74 	_commode00msvcrt
  0x3b00	2e 64 6c 6c 00 00 2f 00 3f 74 65 72 6d 69 6e 61 	.dll00/0?termina
  0x3b10	74 65 40 40 59 41 58 58 5a 00 46 00 43 6f 55 6e 	te@@YAXXZ0F0CoUn
  0x3b20	69 6e 69 74 69 61 6c 69 7a 65 00 00 09 00 43 6f 	initialize0000Co
  0x3b30	43 72 65 61 74 65 49 6e 73 74 61 6e 63 65 00 00 	CreateInstance00
  0x3b40	02 00 43 4c 53 49 44 46 72 6f 6d 53 74 72 69 6e 	00CLSIDFromStrin
  0x3b50	67 00 28 00 43 6f 49 6e 69 74 69 61 6c 69 7a 65 	g0(0CoInitialize
  0x3b60	45 78 00 00 61 70 69 2d 6d 73 2d 77 69 6e 2d 63 	Ex00api-ms-win-c
  0x3b70	6f 72 65 2d 63 6f 6d 2d 6c 31 2d 31 2d 30 2e 64 	ore-com-l1-1-0.d
  0x3b80	6c 6c 00 00 8d 05 53 6c 65 65 70 00 d9 02 47 65 	ll0000Sleep000Ge
  0x3b90	74 53 74 61 72 74 75 70 49 6e 66 6f 57 00 7d 05 	tStartupInfoW0}0
  0x3ba0	53 65 74 55 6e 68 61 6e 64 6c 65 64 45 78 63 65 	SetUnhandledExce
  0x3bb0	70 74 69 6f 6e 46 69 6c 74 65 72 00 51 04 51 75 	ptionFilter0Q0Qu
  0x3bc0	65 72 79 50 65 72 66 6f 72 6d 61 6e 63 65 43 6f 	eryPerformanceCo
  0x3bd0	75 6e 74 65 72 00 20 02 47 65 74 43 75 72 72 65 	unter0 0GetCurre
  0x3be0	6e 74 50 72 6f 63 65 73 73 49 64 00 24 02 47 65 	ntProcessId0$0Ge
  0x3bf0	74 43 75 72 72 65 6e 74 54 68 72 65 61 64 49 64 	tCurrentThreadId
  0x3c00	00 00 f2 02 47 65 74 53 79 73 74 65 6d 54 69 6d 	0000GetSystemTim
  0x3c10	65 41 73 46 69 6c 65 54 69 6d 65 00 10 03 47 65 	eAsFileTime000Ge
  0x3c20	74 54 69 63 6b 43 6f 75 6e 74 00 00 d4 04 52 74 	tTickCount0000Rt
  0x3c30	6c 43 61 70 74 75 72 65 43 6f 6e 74 65 78 74 00 	lCaptureContext0
  0x3c40	db 04 52 74 6c 4c 6f 6f 6b 75 70 46 75 6e 63 74 	00RtlLookupFunct
  0x3c50	69 6f 6e 45 6e 74 72 79 00 00 e2 04 52 74 6c 56 	ionEntry0000RtlV
  0x3c60	69 72 74 75 61 6c 55 6e 77 69 6e 64 00 00 be 05 	irtualUnwind0000
  0x3c70	55 6e 68 61 6e 64 6c 65 64 45 78 63 65 70 74 69 	UnhandledExcepti
  0x3c80	6f 6e 46 69 6c 74 65 72 00 00 1f 02 47 65 74 43 	onFilter0000GetC
  0x3c90	75 72 72 65 6e 74 50 72 6f 63 65 73 73 00 9c 05 	urrentProcess000
  0x3ca0	54 65 72 6d 69 6e 61 74 65 50 72 6f 63 65 73 73 	TerminateProcess
  0x3cb0	00 00 d0 03 4c 6f 63 61 6c 41 6c 6c 6f 63 00 00 	0000LocalAlloc00
  0x3cc0	00 00 00 00 00 00 00 00 00 00 00 00 00 00 00 00 	0000000000000000
  0x3cd0	00 00 00 00 00 00 00 00 00 00 00 00 00 00 00 00 	0000000000000000
  0x3ce0	00 00 00 00 00 00 00 00 00 00 00 00 00 00 00 00 	0000000000000000
  0x3cf0	00 00 00 00 00 00 00 00 00 00 00 00 00 00 00 00 	0000000000000000
  0x3d00	00 00 00 00 00 00 00 00 00 00 00 00 00 00 00 00 	0000000000000000
  0x3d10	00 00 00 00 00 00 00 00 00 00 00 00 00 00 00 00 	0000000000000000
  0x3d20	00 00 00 00 00 00 00 00 00 00 00 00 00 00 00 00 	0000000000000000
  0x3d30	00 00 00 00 00 00 00 00 00 00 00 00 00 00 00 00 	0000000000000000
  0x3d40	00 00 00 00 00 00 00 00 00 00 00 00 00 00 00 00 	0000000000000000
  0x3d50	00 00 00 00 00 00 00 00 00 00 00 00 00 00 00 00 	0000000000000000
  0x3d60	00 00 00 00 00 00 00 00 00 00 00 00 00 00 00 00 	0000000000000000
  0x3d70	00 00 00 00 00 00 00 00 00 00 00 00 00 00 00 00 	0000000000000000
  0x3d80	00 00 00 00 00 00 00 00 00 00 00 00 00 00 00 00 	0000000000000000
  0x3d90	00 00 00 00 00 00 00 00 00 00 00 00 00 00 00 00 	0000000000000000
  0x3da0	00 00 00 00 00 00 00 00 00 00 00 00 00 00 00 00 	0000000000000000
  0x3db0	00 00 00 00 00 00 00 00 00 00 00 00 00 00 00 00 	0000000000000000
  0x3dc0	00 00 00 00 00 00 00 00 00 00 00 00 00 00 00 00 	0000000000000000
  0x3dd0	00 00 00 00 00 00 00 00 00 00 00 00 00 00 00 00 	0000000000000000
  0x3de0	00 00 00 00 00 00 00 00 00 00 00 00 00 00 00 00 	0000000000000000
  0x3df0	00 00 00 00 00 00 00 00 00 00 00 00 00 00 00 00 	0000000000000000
=== DATA BLOCK END ===

=== DATA BLOCK ADDRESS 0x4000 ===
  0x4000	01 00 00 00 00 00 00 00 32 a2 df 2d 99 2b 00 00 	00000000200-0+00
  0x4010	cd 5d 20 d2 66 d4 ff ff 00 00 00 00 00 00 00 00 	0] 0f00000000000
  0x4020	01 00 00 00 00 00 00 00 00 00 00 00 00 00 00 00 	0000000000000000
  0x4030	00 00 00 00 00 00 00 00 00 00 00 00 00 00 00 00 	0000000000000000
  0x4040	00 00 00 00 00 00 00 00 00 00 00 00 00 00 00 00 	0000000000000000
  0x4050	00 00 00 00 00 00 00 00 00 00 00 00 00 00 00 00 	0000000000000000
  0x4060	00 00 00 00 00 00 00 00 00 00 00 00 00 00 00 00 	0000000000000000
  0x4070	00 00 00 00 00 00 00 00 00 00 00 00 00 00 00 00 	0000000000000000
  0x4080	00 00 00 00 00 00 00 00 00 00 00 00 00 00 00 00 	0000000000000000
  0x4090	00 00 00 00 00 00 00 00 00 00 00 00 00 00 00 00 	0000000000000000
  0x40a0	00 00 00 00 00 00 00 00 00 00 00 00 00 00 00 00 	0000000000000000
  0x40b0	00 00 00 00 00 00 00 00 00 00 00 00 00 00 00 00 	0000000000000000
  0x40c0	00 00 00 00 00 00 00 00 00 00 00 00 00 00 00 00 	0000000000000000
  0x40d0	00 00 00 00 00 00 00 00 00 00 00 00 00 00 00 00 	0000000000000000
  0x40e0	00 00 00 00 00 00 00 00 00 00 00 00 00 00 00 00 	0000000000000000
  0x40f0	00 00 00 00 00 00 00 00 00 00 00 00 00 00 00 00 	0000000000000000
  0x4100	00 00 00 00 00 00 00 00 00 00 00 00 00 00 00 00 	0000000000000000
  0x4110	00 00 00 00 00 00 00 00 00 00 00 00 00 00 00 00 	0000000000000000
  0x4120	00 00 00 00 00 00 00 00 00 00 00 00 00 00 00 00 	0000000000000000
  0x4130	00 00 00 00 00 00 00 00 00 00 00 00 00 00 00 00 	0000000000000000
  0x4140	00 00 00 00 00 00 00 00 00 00 00 00 00 00 00 00 	0000000000000000
  0x4150	00 00 00 00 00 00 00 00 00 00 00 00 00 00 00 00 	0000000000000000
  0x4160	00 00 00 00 00 00 00 00 00 00 00 00 00 00 00 00 	0000000000000000
  0x4170	00 00 00 00 00 00 00 00 00 00 00 00 00 00 00 00 	0000000000000000
  0x4180	00 00 00 00 00 00 00 00 00 00 00 00 00 00 00 00 	0000000000000000
  0x4190	00 00 00 00 00 00 00 00 00 00 00 00 00 00 00 00 	0000000000000000
  0x41a0	00 00 00 00 00 00 00 00 00 00 00 00 00 00 00 00 	0000000000000000
  0x41b0	00 00 00 00 00 00 00 00 00 00 00 00 00 00 00 00 	0000000000000000
  0x41c0	00 00 00 00 00 00 00 00 00 00 00 00 00 00 00 00 	0000000000000000
  0x41d0	00 00 00 00 00 00 00 00 00 00 00 00 00 00 00 00 	0000000000000000
  0x41e0	00 00 00 00 00 00 00 00 00 00 00 00 00 00 00 00 	0000000000000000
  0x41f0	00 00 00 00 00 00 00 00 00 00 00 00 00 00 00 00 	0000000000000000
=== DATA BLOCK END ===

=== DATA BLOCK ADDRESS 0x5000 ===
  0x5000	10 10 00 00 94 10 00 00 20 37 00 00 94 10 00 00 	00000000 7000000
  0x5010	9c 10 00 00 38 37 00 00 9c 10 00 00 7b 18 00 00 	000087000000{000
  0x5020	4c 37 00 00 7b 18 00 00 8f 1a 00 00 6c 37 00 00 	L700{0000000l700
  0x5030	8f 1a 00 00 b8 1a 00 00 7c 37 00 00 c0 1a 00 00 	00000000|7000000
  0x5040	93 1b 00 00 8c 37 00 00 a0 1b 00 00 e9 1b 00 00 	0000070000000000
  0x5050	94 37 00 00 f0 1b 00 00 54 1e 00 00 9c 37 00 00 	07000000T0000700
  0x5060	60 1e 00 00 72 1e 00 00 8c 37 00 00 90 1e 00 00 	`000r00007000000
  0x5070	ae 1e 00 00 d8 37 00 00 c0 1e 00 00 f9 1e 00 00 	0000070000000000
  0x5080	8c 37 00 00 00 1f 00 00 18 1f 00 00 8c 37 00 00 	0700000000000700
  0x5090	2c 1f 00 00 80 1f 00 00 dc 37 00 00 88 1f 00 00 	,000000007000000
  0x50a0	cd 1f 00 00 3c 38 00 00 40 20 00 00 8d 20 00 00 	0000<800@ 000 00
  0x50b0	fc 37 00 00 d4 20 00 00 a8 21 00 00 20 38 00 00 	07000 000!00 800
  0x50c0	dc 21 00 00 10 22 00 00 3c 38 00 00 20 22 00 00 	0!000"00<800 "00
  0x50d0	91 23 00 00 2c 38 00 00 a8 23 00 00 c5 23 00 00 	0#00,8000#000#00
  0x50e0	8c 37 00 00 cc 23 00 00 27 24 00 00 50 38 00 00 	07000#00'$00P800
  0x50f0	40 24 00 00 42 24 00 00 38 38 00 00 50 24 00 00 	@$00B$008800P$00
  0x5100	6e 24 00 00 d0 37 00 00 80 24 00 00 a0 24 00 00 	n$0007000$000$00
  0x5110	d0 37 00 00 a8 24 00 00 4b 25 00 00 3c 38 00 00 	07000$00K%00<800
  0x5120	54 25 00 00 b5 25 00 00 44 38 00 00 00 00 00 00 	T%000%00D8000000
  0x5130	00 00 00 00 00 00 00 00 00 00 00 00 00 00 00 00 	0000000000000000
  0x5140	00 00 00 00 00 00 00 00 00 00 00 00 00 00 00 00 	0000000000000000
  0x5150	00 00 00 00 00 00 00 00 00 00 00 00 00 00 00 00 	0000000000000000
  0x5160	00 00 00 00 00 00 00 00 00 00 00 00 00 00 00 00 	0000000000000000
  0x5170	00 00 00 00 00 00 00 00 00 00 00 00 00 00 00 00 	0000000000000000
  0x5180	00 00 00 00 00 00 00 00 00 00 00 00 00 00 00 00 	0000000000000000
  0x5190	00 00 00 00 00 00 00 00 00 00 00 00 00 00 00 00 	0000000000000000
  0x51a0	00 00 00 00 00 00 00 00 00 00 00 00 00 00 00 00 	0000000000000000
  0x51b0	00 00 00 00 00 00 00 00 00 00 00 00 00 00 00 00 	0000000000000000
  0x51c0	00 00 00 00 00 00 00 00 00 00 00 00 00 00 00 00 	0000000000000000
  0x51d0	00 00 00 00 00 00 00 00 00 00 00 00 00 00 00 00 	0000000000000000
  0x51e0	00 00 00 00 00 00 00 00 00 00 00 00 00 00 00 00 	0000000000000000
  0x51f0	00 00 00 00 00 00 00 00 00 00 00 00 00 00 00 00 	0000000000000000
=== DATA BLOCK END ===
