===== Assembly blocks =====

=== CODE BLOCK ADDRESS 0x1000 ===
  0x1000	int3   	
  0x1001	int3   	
  0x1002	int3   	
  0x1003	int3   	
  0x1004	int3   	
  === BLOCK LINK ===
    0x1005
=== CODE BLOCK END ===

=== CODE BLOCK ADDRESS 0x1005 ===
  0x1005	int3   	
  0x1006	int3   	
  0x1007	int3   	
  0x1008	dec    	eax
  0x1009	mov    	dword ptr [esp + 8], ebx
  === BLOCK LINK ===
    0x100d
=== CODE BLOCK END ===

=== CODE BLOCK ADDRESS 0x100d ===
  0x100d	push   	edi
  0x100e	dec    	eax
  0x100f	sub    	esp, 0x20
  0x1012	xor    	edi, edi
  0x1014	dec    	eax
  === BLOCK LINK ===
    0x1015
=== CODE BLOCK END ===

=== CODE BLOCK ADDRESS 0x1015 ===
  0x1015	mov    	ebx, ecx
  0x1017	dec    	eax
  0x1018	test   	ecx, ecx
  0x101a	je     	0x10ca
  === BLOCK LINK ===
    0x1020
    0x10ca
=== CODE BLOCK END ===

=== CODE BLOCK ADDRESS 0x1020 ===
  0x1020	movzx  	ecx, word ptr [ebx]
  0x1023	cmp    	di, cx
  0x1026	je     	0x103e
  === BLOCK LINK ===
    0x1028
    0x103e
=== CODE BLOCK END ===

=== CODE BLOCK ADDRESS 0x1028 ===
  0x1028	dec    	eax
  0x1029	call   	dword ptr [0x1249]
  === BLOCK LINK ===
    0x102f
=== CODE BLOCK END ===

=== CODE BLOCK ADDRESS 0x102f ===
  0x102f	nop    	dword ptr [eax + eax]
  0x1034	test   	eax, eax
  0x1036	je     	0x103e
  === BLOCK LINK ===
    0x1038
    0x103e
=== CODE BLOCK END ===

=== CODE BLOCK ADDRESS 0x1038 ===
  0x1038	dec    	eax
  0x1039	add    	ebx, 2
  0x103c	jne    	0x1020
  === BLOCK LINK ===
    0x103e
    0x1020
=== CODE BLOCK END ===

=== CODE BLOCK ADDRESS 0x103e ===
  0x103e	dec    	eax
  0x103f	test   	ebx, ebx
  0x1041	je     	0x10ca
  === BLOCK LINK ===
    0x1047
    0x10ca
=== CODE BLOCK END ===

=== CODE BLOCK ADDRESS 0x1047 ===
  0x1047	mov    	edx, 0x22
  0x104c	cmp    	dx, word ptr [ebx]
  0x104f	jne    	0x10a2
  === BLOCK LINK ===
    0x1051
    0x10a2
=== CODE BLOCK END ===

=== CODE BLOCK ADDRESS 0x1051 ===
  0x1051	dec    	eax
  0x1052	add    	ebx, 2
  0x1055	movzx  	ecx, word ptr [ebx]
  0x1058	cmp    	dx, cx
  0x105b	je     	0x1077
  === BLOCK LINK ===
    0x105d
    0x1077
=== CODE BLOCK END ===

=== CODE BLOCK ADDRESS 0x105d ===
  0x105d	movzx  	eax, cx
  === BLOCK LINK ===
    0x1060
=== CODE BLOCK END ===

=== CODE BLOCK ADDRESS 0x1068 ===
  0x1068	dec    	eax
  0x1069	add    	ebx, 2
  0x106c	movzx  	ecx, word ptr [ebx]
  0x106f	movzx  	eax, cx
  0x1072	cmp    	dx, cx
  === BLOCK LINK ===
    0x1075
=== CODE BLOCK END ===

=== CODE BLOCK ADDRESS 0x1075 ===
  0x1075	jne    	0x1060
  === BLOCK LINK ===
    0x1077
    0x1060
=== CODE BLOCK END ===

=== CODE BLOCK ADDRESS 0x1077 ===
  0x1077	dec    	eax
  0x1078	lea    	eax, [ebx + 2]
  0x107b	cmp    	dx, cx
  0x107e	dec    	eax
  0x107f	cmovne  	eax, ebx
  === BLOCK LINK ===
    0x1082
=== CODE BLOCK END ===

=== CODE BLOCK ADDRESS 0x1082 ===
  0x1082	dec    	eax
  0x1083	mov    	ebx, eax
  0x1085	jmp    	0x10a7
  === BLOCK LINK ===
    0x1087
    0x10a7
=== CODE BLOCK END ===

=== CODE BLOCK ADDRESS 0x1087 ===
  0x1087	dec    	eax
  0x1088	add    	ebx, 2
  0x108b	movzx  	ecx, word ptr [ebx]
  0x108e	dec    	eax
  0x108f	call   	dword ptr [0x11e3]
  === BLOCK LINK ===
    0x1095
=== CODE BLOCK END ===

=== CODE BLOCK ADDRESS 0x1095 ===
  0x1095	nop    	dword ptr [eax + eax]
  0x109a	test   	eax, eax
  0x109c	jne    	0x10a7
  === BLOCK LINK ===
    0x109e
    0x10a7
=== CODE BLOCK END ===

=== CODE BLOCK ADDRESS 0x109e ===
  0x109e	dec    	eax
  0x109f	add    	ebx, 2
  === BLOCK LINK ===
    0x10a2
    0x1087
=== CODE BLOCK END ===

=== CODE BLOCK ADDRESS 0x10a7 ===
  0x10a7	dec    	eax
  0x10a8	test   	ebx, ebx
  0x10aa	je     	0x10ca
  === BLOCK LINK ===
    0x10ac
    0x10ca
=== CODE BLOCK END ===

=== CODE BLOCK ADDRESS 0x10ac ===
  0x10ac	movzx  	ecx, word ptr [ebx]
  0x10af	cmp    	di, cx
  0x10b2	je     	0x10ca
  === BLOCK LINK ===
    0x10b4
    0x10ca
=== CODE BLOCK END ===

=== CODE BLOCK ADDRESS 0x10b4 ===
  0x10b4	dec    	eax
  0x10b5	call   	dword ptr [0x11bd]
  === BLOCK LINK ===
    0x10bb
=== CODE BLOCK END ===

=== CODE BLOCK ADDRESS 0x10bb ===
  0x10bb	nop    	dword ptr [eax + eax]
  0x10c0	test   	eax, eax
  0x10c2	je     	0x10ca
  === BLOCK LINK ===
    0x10c4
    0x10ca
=== CODE BLOCK END ===

=== CODE BLOCK ADDRESS 0x10c4 ===
  0x10c4	dec    	eax
  0x10c5	add    	ebx, 2
  0x10c8	jne    	0x10ac
  === BLOCK LINK ===
    0x10ca
    0x10ac
=== CODE BLOCK END ===

=== CODE BLOCK ADDRESS 0x10ca ===
  0x10ca	dec    	eax
  0x10cb	mov    	eax, ebx
  0x10cd	dec    	eax
  0x10ce	mov    	ebx, dword ptr [esp + 0x30]
  0x10d2	dec    	eax
  === BLOCK LINK ===
    0x10d3
=== CODE BLOCK END ===

=== CODE BLOCK ADDRESS 0x10d3 ===
  0x10d3	add    	esp, 0x20
  0x10d6	pop    	edi
  0x10d7	ret    	
  0x10d8	int3   	
  0x10d9	int3   	
  === BLOCK LINK ===
    0x10da
=== CODE BLOCK END ===

=== CODE BLOCK ADDRESS 0x10da ===
  0x10da	int3   	
  0x10db	int3   	
  0x10dc	int3   	
  0x10dd	int3   	
  0x10de	int3   	
  === BLOCK LINK ===
    0x10df
=== CODE BLOCK END ===

=== CODE BLOCK ADDRESS 0x10df ===
  0x10df	int3   	
  0x10e0	dec    	eax
  0x10e1	mov    	eax, esp
  0x10e3	dec    	eax
  0x10e4	mov    	dword ptr [eax + 8], ebx
  === BLOCK LINK ===
    0x10e7
=== CODE BLOCK END ===

=== CODE BLOCK ADDRESS 0x10e7 ===
  0x10e7	dec    	eax
  0x10e8	mov    	dword ptr [eax + 0x10], esi
  0x10eb	dec    	eax
  0x10ec	mov    	dword ptr [eax + 0x18], edi
  0x10ef	push   	ebp
  === BLOCK LINK ===
    0x10f0
=== CODE BLOCK END ===

=== CODE BLOCK ADDRESS 0x10f0 ===
  0x10f0	inc    	ecx
  0x10f1	push   	esi
  0x10f2	inc    	ecx
  0x10f3	push   	edi
  0x10f4	dec    	eax
  === BLOCK LINK ===
    0x10f5
=== CODE BLOCK END ===

=== CODE BLOCK ADDRESS 0x10f5 ===
  0x10f5	lea    	ebp, [eax - 0x5f]
  0x10f8	dec    	eax
  0x10f9	sub    	esp, 0xd0
  0x10ff	inc    	ebp
  0x1100	mov    	esi, ecx
  === BLOCK LINK ===
    0x1102
=== CODE BLOCK END ===

=== CODE BLOCK ADDRESS 0x1102 ===
  0x1102	dec    	esp
  0x1103	mov    	edi, ecx
  0x1105	inc    	ebp
  0x1106	xor    	ecx, ecx
  0x1108	inc    	ebp
  === BLOCK LINK ===
    0x1109
=== CODE BLOCK END ===

=== CODE BLOCK ADDRESS 0x1109 ===
  0x1109	xor    	eax, eax
  0x110b	xor    	ecx, ecx
  0x110d	inc    	ecx
  0x110e	lea    	edx, [ecx + 1]
  0x1111	dec    	eax
  === BLOCK LINK ===
    0x1112
=== CODE BLOCK END ===

=== CODE BLOCK ADDRESS 0x1112 ===
  0x1112	call   	dword ptr [0x1060]
  === BLOCK LINK ===
    0x1118
=== CODE BLOCK END ===

=== CODE BLOCK ADDRESS 0x1118 ===
  0x1118	nop    	dword ptr [eax + eax]
  0x111d	xor    	edx, edx
  0x111f	dec    	eax
  0x1120	lea    	ecx, [ebp - 9]
  0x1123	inc    	esp
  === BLOCK LINK ===
    0x1124
=== CODE BLOCK END ===

=== CODE BLOCK ADDRESS 0x1124 ===
  0x1124	lea    	eax, [edx + 0x48]
  0x1127	call   	0x1d26
  === BLOCK LINK ===
    0x112c
    0x1d26
=== CODE BLOCK END ===

=== CODE BLOCK ADDRESS 0x112c ===
  0x112c	dec    	eax
  0x112d	mov    	eax, dword ptr [0x10f5]
  0x1133	mov    	edx, 0x7f00
  0x1138	xor    	ecx, ecx
  0x113a	dec    	eax
  === BLOCK LINK ===
    0x113b
=== CODE BLOCK END ===

=== CODE BLOCK ADDRESS 0x113b ===
  0x113b	mov    	dword ptr [ebp - 1], eax
  0x113e	dec    	eax
  0x113f	call   	dword ptr [0x10eb]
  === BLOCK LINK ===
    0x1145
=== CODE BLOCK END ===

=== CODE BLOCK ADDRESS 0x1145 ===
  0x1145	nop    	dword ptr [eax + eax]
  0x114a	xor    	ecx, ecx
  0x114c	dec    	eax
  0x114d	mov    	dword ptr [ebp + 0x1f], eax
  0x1150	dec    	eax
  === BLOCK LINK ===
    0x1151
=== CODE BLOCK END ===

=== CODE BLOCK ADDRESS 0x1151 ===
  0x1151	call   	dword ptr [0x1011]
  === BLOCK LINK ===
    0x1157
=== CODE BLOCK END ===

=== CODE BLOCK ADDRESS 0x1157 ===
  0x1157	nop    	dword ptr [eax + eax]
  0x115c	dec    	eax
  0x115d	lea    	ebx, [0x129d]
  0x1163	dec    	eax
  0x1164	mov    	dword ptr [ebp + 0x27], eax
  === BLOCK LINK ===
    0x1167
=== CODE BLOCK END ===

=== CODE BLOCK ADDRESS 0x1167 ===
  0x1167	dec    	eax
  0x1168	lea    	ecx, [ebp - 9]
  0x116b	dec    	eax
  0x116c	mov    	dword ptr [ebp + 0x37], ebx
  0x116f	dec    	eax
  === BLOCK LINK ===
    0x1170
=== CODE BLOCK END ===

=== CODE BLOCK ADDRESS 0x1170 ===
  0x1170	call   	dword ptr [0x109a]
  === BLOCK LINK ===
    0x1176
=== CODE BLOCK END ===

=== CODE BLOCK ADDRESS 0x1176 ===
  0x1176	nop    	dword ptr [eax + eax]
  0x117b	dec    	eax
  0x117c	and    	dword ptr [esp + 0x58], 0
  0x1181	dec    	esp
  0x1182	lea    	eax, [0x11d8]
  === BLOCK LINK ===
    0x1188
=== CODE BLOCK END ===

=== CODE BLOCK ADDRESS 0x1188 ===
  0x1188	dec    	eax
  0x1189	and    	dword ptr [esp + 0x50], 0
  0x118e	mov    	eax, 0x80000000
  0x1193	dec    	eax
  0x1194	and    	dword ptr [esp + 0x48], 0
  === BLOCK LINK ===
    0x1199
=== CODE BLOCK END ===

=== CODE BLOCK ADDRESS 0x1199 ===
  0x1199	inc    	ebp
  0x119a	xor    	ecx, ecx
  0x119c	dec    	eax
  0x119d	and    	dword ptr [esp + 0x40], 0
  0x11a2	dec    	eax
  === BLOCK LINK ===
    0x11a3
=== CODE BLOCK END ===

=== CODE BLOCK ADDRESS 0x11a3 ===
  0x11a3	mov    	edx, ebx
  0x11a5	and    	dword ptr [esp + 0x38], 0
  0x11aa	xor    	ecx, ecx
  0x11ac	and    	dword ptr [esp + 0x30], 0
  0x11b1	mov    	dword ptr [esp + 0x28], eax
  === BLOCK LINK ===
    0x11b5
=== CODE BLOCK END ===

=== CODE BLOCK ADDRESS 0x11b5 ===
  0x11b5	mov    	dword ptr [esp + 0x20], eax
  0x11b9	dec    	eax
  0x11ba	call   	dword ptr [0x1058]
  === BLOCK LINK ===
    0x11c0
=== CODE BLOCK END ===

=== CODE BLOCK ADDRESS 0x11c0 ===
  0x11c0	nop    	dword ptr [eax + eax]
  0x11c5	dec    	eax
  0x11c6	and    	dword ptr [esp + 0x40], 0
  0x11cb	dec    	eax
  0x11cc	lea    	edx, [0x119e]
  === BLOCK LINK ===
    0x11d2
=== CODE BLOCK END ===

=== CODE BLOCK ADDRESS 0x11d2 ===
  0x11d2	dec    	eax
  0x11d3	mov    	esi, eax
  0x11d5	inc    	ebp
  0x11d6	xor    	ecx, ecx
  0x11d8	dec    	eax
  === BLOCK LINK ===
    0x11d9
=== CODE BLOCK END ===

=== CODE BLOCK ADDRESS 0x11d9 ===
  0x11d9	lea    	eax, [ebp - 0x21]
  0x11dc	inc    	ebp
  0x11dd	xor    	eax, eax
  0x11df	dec    	eax
  0x11e0	mov    	dword ptr [esp + 0x38], eax
  === BLOCK LINK ===
    0x11e4
=== CODE BLOCK END ===

=== CODE BLOCK ADDRESS 0x11e4 ===
  0x11e4	dec    	eax
  0x11e5	mov    	ecx, 0x80000001
  0x11eb	dec    	eax
  0x11ec	and    	dword ptr [esp + 0x30], 0
  0x11f1	mov    	dword ptr [esp + 0x28], 0x2001f
  === BLOCK LINK ===
    0x11f9
=== CODE BLOCK END ===

=== CODE BLOCK ADDRESS 0x11f9 ===
  0x11f9	and    	dword ptr [esp + 0x20], 0
  0x11fe	dec    	eax
  0x11ff	call   	dword ptr [0xf43]
  === BLOCK LINK ===
    0x1205
=== CODE BLOCK END ===

=== CODE BLOCK ADDRESS 0x1205 ===
  0x1205	nop    	dword ptr [eax + eax]
  0x120a	dec    	eax
  0x120b	lea    	edi, [0x11df]
  0x1211	test   	eax, eax
  0x1213	jne    	0x12c4
  === BLOCK LINK ===
    0x1219
    0x12c4
=== CODE BLOCK END ===

=== CODE BLOCK ADDRESS 0x1219 ===
  0x1219	dec    	eax
  0x121a	mov    	ecx, dword ptr [ebp - 0x21]
  0x121d	dec    	eax
  0x121e	lea    	eax, [ebp - 0x19]
  0x1221	dec    	eax
  === BLOCK LINK ===
    0x1222
=== CODE BLOCK END ===

=== CODE BLOCK ADDRESS 0x1222 ===
  0x1222	mov    	dword ptr [esp + 0x28], eax
  0x1226	dec    	esp
  0x1227	lea    	ecx, [ebp - 0x25]
  0x122a	dec    	eax
  0x122b	lea    	eax, [ebp - 0x29]
  === BLOCK LINK ===
    0x122e
=== CODE BLOCK END ===

=== CODE BLOCK ADDRESS 0x122e ===
  0x122e	mov    	dword ptr [ebp - 0x19], 4
  0x1235	inc    	ebp
  0x1236	xor    	eax, eax
  0x1238	dec    	eax
  0x1239	mov    	dword ptr [esp + 0x20], eax
  === BLOCK LINK ===
    0x123d
=== CODE BLOCK END ===

=== CODE BLOCK ADDRESS 0x123d ===
  0x123d	dec    	eax
  0x123e	mov    	edx, edi
  0x1240	xor    	ebx, ebx
  0x1242	dec    	eax
  0x1243	call   	dword ptr [0xedf]
  === BLOCK LINK ===
    0x1249
=== CODE BLOCK END ===

=== CODE BLOCK ADDRESS 0x1249 ===
  0x1249	nop    	dword ptr [eax + eax]
  0x124e	test   	eax, eax
  0x1250	jne    	0x1262
  === BLOCK LINK ===
    0x1252
    0x1262
=== CODE BLOCK END ===

=== CODE BLOCK ADDRESS 0x1252 ===
  0x1252	cmp    	dword ptr [ebp - 0x25], 4
  0x1256	jne    	0x1267
  === BLOCK LINK ===
    0x1258
    0x1267
=== CODE BLOCK END ===

=== CODE BLOCK ADDRESS 0x1258 ===
  0x1258	mov    	ebx, dword ptr [ebp - 0x29]
  0x125b	cmp    	ebx, 0xd
  0x125e	jge    	0x127e
  === BLOCK LINK ===
    0x1260
=== CODE BLOCK END ===

=== CODE BLOCK ADDRESS 0x1260 ===
  0x1260	jmp    	0x127a
  === BLOCK LINK ===
    0x1262
=== CODE BLOCK END ===

=== CODE BLOCK ADDRESS 0x1262 ===
  0x1262	cmp    	eax, 2
  0x1265	je     	0x127e
  === BLOCK LINK ===
    0x1267
=== CODE BLOCK END ===

=== CODE BLOCK ADDRESS 0x1267 ===
  0x1267	dec    	eax
  0x1268	mov    	ecx, dword ptr [ebp - 0x21]
  0x126b	dec    	eax
  0x126c	mov    	edx, edi
  0x126e	dec    	eax
  === BLOCK LINK ===
    0x126f
=== CODE BLOCK END ===

=== CODE BLOCK ADDRESS 0x126f ===
  0x126f	call   	dword ptr [0xebb]
  === BLOCK LINK ===
    0x1275
=== CODE BLOCK END ===

=== CODE BLOCK ADDRESS 0x1275 ===
  0x1275	nop    	dword ptr [eax + eax]
  0x127a	test   	ebx, ebx
  0x127c	jne    	0x12b2
  === BLOCK LINK ===
    0x127e
=== CODE BLOCK END ===

=== CODE BLOCK ADDRESS 0x127e ===
  0x127e	dec    	eax
  0x127f	mov    	ecx, dword ptr [ebp - 0x21]
  0x1282	dec    	eax
  0x1283	lea    	eax, [ebp - 0x29]
  0x1286	mov    	dword ptr [esp + 0x28], 4
  === BLOCK LINK ===
    0x128e
=== CODE BLOCK END ===

=== CODE BLOCK ADDRESS 0x128e ===
  0x128e	inc    	ecx
  0x128f	mov    	ecx, 4
  0x1294	inc    	ebp
  0x1295	xor    	eax, eax
  0x1297	dec    	eax
  === BLOCK LINK ===
    0x1298
=== CODE BLOCK END ===

=== CODE BLOCK ADDRESS 0x1298 ===
  0x1298	mov    	dword ptr [esp + 0x20], eax
  0x129c	dec    	eax
  0x129d	mov    	edx, edi
  0x129f	mov    	dword ptr [ebp - 0x29], 0xa
  0x12a6	dec    	eax
  === BLOCK LINK ===
    0x12a7
=== CODE BLOCK END ===

=== CODE BLOCK ADDRESS 0x12a7 ===
  0x12a7	call   	dword ptr [0xe93]
  === BLOCK LINK ===
    0x12ad
=== CODE BLOCK END ===

=== CODE BLOCK ADDRESS 0x12ad ===
  0x12ad	nop    	dword ptr [eax + eax]
  0x12b2	dec    	eax
  0x12b3	mov    	ecx, dword ptr [ebp - 0x21]
  0x12b6	dec    	eax
  0x12b7	call   	dword ptr [0xe9b]
  === BLOCK LINK ===
    0x12bd
=== CODE BLOCK END ===

=== CODE BLOCK ADDRESS 0x12bd ===
  0x12bd	nop    	dword ptr [eax + eax]
  0x12c2	jmp    	0x12d0
  === BLOCK LINK ===
    0x12c4
=== CODE BLOCK END ===

=== CODE BLOCK ADDRESS 0x12c4 ===
  0x12c4	dec    	eax
  0x12c5	call   	dword ptr [0xecd]
  === BLOCK LINK ===
    0x12cb
=== CODE BLOCK END ===

=== CODE BLOCK ADDRESS 0x12cb ===
  0x12cb	nop    	dword ptr [eax + eax]
  0x12d0	dec    	eax
  0x12d1	lea    	ecx, [0x1149]
  0x12d7	dec    	eax
  0x12d8	call   	dword ptr [0xeca]
  === BLOCK LINK ===
    0x12de
=== CODE BLOCK END ===

=== CODE BLOCK ADDRESS 0x12de ===
  0x12de	nop    	dword ptr [eax + eax]
  0x12e3	dec    	eax
  0x12e4	mov    	edi, eax
  0x12e6	dec    	eax
  0x12e7	test   	eax, eax
  === BLOCK LINK ===
    0x12e9
=== CODE BLOCK END ===

=== CODE BLOCK ADDRESS 0x12e9 ===
  0x12e9	jne    	0x12fb
  === BLOCK LINK ===
    0x12eb
=== CODE BLOCK END ===

=== CODE BLOCK ADDRESS 0x12eb ===
  0x12eb	dec    	eax
  0x12ec	call   	dword ptr [0xea6]
  === BLOCK LINK ===
    0x12f2
=== CODE BLOCK END ===

=== CODE BLOCK ADDRESS 0x12f2 ===
  0x12f2	nop    	dword ptr [eax + eax]
  0x12f7	mov    	ebx, eax
  0x12f9	jmp    	0x1361
  === BLOCK LINK ===
    0x12fb
=== CODE BLOCK END ===

=== CODE BLOCK ADDRESS 0x12fb ===
  0x12fb	dec    	eax
  0x12fc	lea    	edx, [0x1136]
  0x1302	dec    	eax
  0x1303	mov    	ecx, edi
  0x1305	dec    	eax
  === BLOCK LINK ===
    0x1306
=== CODE BLOCK END ===

=== CODE BLOCK ADDRESS 0x1306 ===
  0x1306	call   	dword ptr [0xe74]
  === BLOCK LINK ===
    0x130c
=== CODE BLOCK END ===

=== CODE BLOCK ADDRESS 0x130c ===
  0x130c	nop    	dword ptr [eax + eax]
  0x1311	dec    	eax
  0x1312	mov    	ebx, eax
  0x1314	dec    	eax
  0x1315	test   	eax, eax
  === BLOCK LINK ===
    0x1317
=== CODE BLOCK END ===

=== CODE BLOCK ADDRESS 0x1317 ===
  0x1317	jne    	0x1327
  === BLOCK LINK ===
    0x1319
=== CODE BLOCK END ===

=== CODE BLOCK ADDRESS 0x1319 ===
  0x1319	dec    	eax
  0x131a	call   	dword ptr [0xe78]
  === BLOCK LINK ===
    0x1320
=== CODE BLOCK END ===

=== CODE BLOCK ADDRESS 0x1320 ===
  0x1320	nop    	dword ptr [eax + eax]
  0x1325	jmp    	0x1350
  === BLOCK LINK ===
    0x1327
=== CODE BLOCK END ===

=== CODE BLOCK ADDRESS 0x1327 ===
  0x1327	dec    	eax
  0x1328	call   	dword ptr [0xe72]
  === BLOCK LINK ===
    0x132e
=== CODE BLOCK END ===

=== CODE BLOCK ADDRESS 0x132e ===
  0x132e	nop    	dword ptr [eax + eax]
  0x1333	dec    	eax
  0x1334	mov    	ecx, eax
  0x1336	call   	0x1008
  === BLOCK LINK ===
    0x133b
=== CODE BLOCK END ===

=== CODE BLOCK ADDRESS 0x133b ===
  0x133b	dec    	esp
  0x133c	mov    	eax, eax
  0x133e	inc    	ebp
  0x133f	mov    	ecx, esi
  0x1341	dec    	eax
  === BLOCK LINK ===
    0x1342
=== CODE BLOCK END ===

=== CODE BLOCK ADDRESS 0x1342 ===
  0x1342	mov    	eax, ebx
  0x1344	dec    	ecx
  0x1345	mov    	edx, edi
  0x1347	dec    	eax
  0x1348	mov    	ecx, esi
  === BLOCK LINK ===
    0x134a
=== CODE BLOCK END ===

=== CODE BLOCK ADDRESS 0x134a ===
  0x134a	call   	dword ptr [0xfa0]
  === BLOCK LINK ===
    0x1350
=== CODE BLOCK END ===

=== CODE BLOCK ADDRESS 0x1350 ===
  0x1350	dec    	eax
  0x1351	mov    	ecx, edi
  0x1353	mov    	ebx, eax
  0x1355	dec    	eax
  0x1356	call   	dword ptr [0xe2c]
  === BLOCK LINK ===
    0x135c
=== CODE BLOCK END ===

=== CODE BLOCK ADDRESS 0x135c ===
  0x135c	nop    	dword ptr [eax + eax]
  0x1361	dec    	eax
  0x1362	lea    	eax, [ebp - 0x21]
  0x1365	dec    	eax
  0x1366	mov    	edi, 0x80000001
  === BLOCK LINK ===
    0x136c
=== CODE BLOCK END ===

=== CODE BLOCK ADDRESS 0x136c ===
  0x136c	dec    	eax
  0x136d	mov    	ecx, edi
  0x136f	dec    	eax
  0x1370	mov    	dword ptr [esp + 0x20], eax
  0x1374	inc    	ecx
  === BLOCK LINK ===
    0x1375
=== CODE BLOCK END ===

=== CODE BLOCK ADDRESS 0x1375 ===
  0x1375	mov    	ecx, 0x2001f
  0x137a	dec    	eax
  0x137b	lea    	edx, [0xfef]
  0x1381	inc    	ebp
  0x1382	xor    	eax, eax
  === BLOCK LINK ===
    0x1384
=== CODE BLOCK END ===

=== CODE BLOCK ADDRESS 0x1384 ===
  0x1384	dec    	eax
  0x1385	call   	dword ptr [0xdad]
  === BLOCK LINK ===
    0x138b
=== CODE BLOCK END ===

=== CODE BLOCK ADDRESS 0x138b ===
  0x138b	nop    	dword ptr [eax + eax]
  0x1390	test   	eax, eax
  0x1392	jne    	0x13f9
  === BLOCK LINK ===
    0x1394
=== CODE BLOCK END ===

=== CODE BLOCK ADDRESS 0x1394 ===
  0x1394	dec    	eax
  0x1395	mov    	ecx, dword ptr [ebp - 0x21]
  0x1398	dec    	eax
  0x1399	lea    	eax, [ebp - 0x25]
  0x139c	dec    	eax
  === BLOCK LINK ===
    0x139d
=== CODE BLOCK END ===

=== CODE BLOCK ADDRESS 0x139d ===
  0x139d	mov    	dword ptr [esp + 0x28], eax
  0x13a1	dec    	esp
  0x13a2	lea    	ecx, [ebp - 0x29]
  0x13a5	dec    	eax
  0x13a6	lea    	eax, [ebp - 0x19]
  === BLOCK LINK ===
    0x13a9
=== CODE BLOCK END ===

=== CODE BLOCK ADDRESS 0x13a9 ===
  0x13a9	mov    	dword ptr [ebp - 0x25], 4
  0x13b0	inc    	ebp
  0x13b1	xor    	eax, eax
  0x13b3	dec    	eax
  0x13b4	mov    	dword ptr [esp + 0x20], eax
  === BLOCK LINK ===
    0x13b8
=== CODE BLOCK END ===

=== CODE BLOCK ADDRESS 0x13b8 ===
  0x13b8	dec    	eax
  0x13b9	lea    	edx, [0x1031]
  0x13bf	dec    	eax
  0x13c0	call   	dword ptr [0xd62]
  === BLOCK LINK ===
    0x13c6
=== CODE BLOCK END ===

=== CODE BLOCK ADDRESS 0x13c6 ===
  0x13c6	nop    	dword ptr [eax + eax]
  0x13cb	dec    	eax
  0x13cc	mov    	ecx, dword ptr [ebp - 0x21]
  0x13cf	dec    	eax
  0x13d0	call   	dword ptr [0xd82]
  === BLOCK LINK ===
    0x13d6
=== CODE BLOCK END ===

=== CODE BLOCK ADDRESS 0x13d6 ===
  0x13d6	nop    	dword ptr [eax + eax]
  0x13db	inc    	ebp
  0x13dc	xor    	ecx, ecx
  0x13de	dec    	eax
  0x13df	lea    	edx, [0xf8b]
  === BLOCK LINK ===
    0x13e5
=== CODE BLOCK END ===

=== CODE BLOCK ADDRESS 0x13e5 ===
  0x13e5	inc    	ebp
  0x13e6	xor    	eax, eax
  0x13e8	dec    	eax
  0x13e9	mov    	ecx, edi
  0x13eb	dec    	eax
  === BLOCK LINK ===
    0x13ec
=== CODE BLOCK END ===

=== CODE BLOCK ADDRESS 0x13ec ===
  0x13ec	call   	dword ptr [0xd5e]
  === BLOCK LINK ===
    0x13f2
=== CODE BLOCK END ===

=== CODE BLOCK ADDRESS 0x13f2 ===
  0x13f2	nop    	dword ptr [eax + eax]
  0x13f7	jmp    	0x1405
  === BLOCK LINK ===
    0x13f9
=== CODE BLOCK END ===

=== CODE BLOCK ADDRESS 0x13f9 ===
  0x13f9	dec    	eax
  0x13fa	call   	dword ptr [0xd98]
  === BLOCK LINK ===
    0x1400
=== CODE BLOCK END ===

=== CODE BLOCK ADDRESS 0x1400 ===
  0x1400	nop    	dword ptr [eax + eax]
  0x1405	dec    	eax
  0x1406	test   	esi, esi
  0x1408	je     	0x1419
  === BLOCK LINK ===
    0x140a
=== CODE BLOCK END ===

=== CODE BLOCK ADDRESS 0x140a ===
  0x140a	dec    	eax
  0x140b	mov    	ecx, esi
  0x140d	dec    	eax
  0x140e	call   	dword ptr [0xe0c]
  === BLOCK LINK ===
    0x1414
=== CODE BLOCK END ===

=== CODE BLOCK ADDRESS 0x1414 ===
  0x1414	nop    	dword ptr [eax + eax]
  0x1419	dec    	esp
  0x141a	lea    	ebx, [esp + 0xd0]
  0x1421	mov    	eax, ebx
  0x1423	dec    	ecx
  === BLOCK LINK ===
    0x1424
=== CODE BLOCK END ===

=== CODE BLOCK ADDRESS 0x1424 ===
  0x1424	mov    	ebx, dword ptr [ebx + 0x20]
  0x1427	dec    	ecx
  0x1428	mov    	esi, dword ptr [ebx + 0x28]
  0x142b	dec    	ecx
  0x142c	mov    	edi, dword ptr [ebx + 0x30]
  === BLOCK LINK ===
    0x142f
=== CODE BLOCK END ===

=== CODE BLOCK ADDRESS 0x142f ===
  0x142f	dec    	ecx
  0x1430	mov    	esp, ebx
  0x1432	inc    	ecx
  0x1433	pop    	edi
  0x1434	inc    	ecx
  === BLOCK LINK ===
    0x1435
=== CODE BLOCK END ===

=== CODE BLOCK ADDRESS 0x1435 ===
  0x1435	pop    	esi
  0x1436	pop    	ebp
  0x1437	ret    	
  0x1438	int3   	
  0x1439	int3   	
  === BLOCK LINK ===
    0x143a
=== CODE BLOCK END ===

=== CODE BLOCK ADDRESS 0x143a ===
  0x143a	int3   	
  0x143b	int3   	
  0x143c	int3   	
  0x143d	int3   	
  0x143e	int3   	
  === BLOCK LINK ===
    0x143f
=== CODE BLOCK END ===

=== CODE BLOCK ADDRESS 0x143f ===
  0x143f	int3   	
  0x1440	dec    	eax
  0x1441	sub    	esp, 0x28
  0x1444	mov    	eax, 0x5a4d
  0x1449	cmp    	word ptr [0xffffebb0], ax
  === BLOCK LINK ===
    0x1450
=== CODE BLOCK END ===

=== CODE BLOCK ADDRESS 0x1450 ===
  0x1450	je     	0x1456
  === BLOCK LINK ===
    0x1452
=== CODE BLOCK END ===

=== CODE BLOCK ADDRESS 0x1452 ===
  0x1452	xor    	eax, eax
  0x1454	jmp    	0x14a9
  === BLOCK LINK ===
    0x1456
=== CODE BLOCK END ===

=== CODE BLOCK ADDRESS 0x1456 ===
  0x1456	dec    	eax
  0x1457	arpl   	word ptr [0xffffebdf], cx
  0x145d	dec    	eax
  0x145e	lea    	eax, [0xffffeb9c]
  0x1464	dec    	eax
  === BLOCK LINK ===
    0x1465
=== CODE BLOCK END ===

=== CODE BLOCK ADDRESS 0x1465 ===
  0x1465	add    	ecx, eax
  0x1467	cmp    	dword ptr [ecx], 0x4550
  0x146d	jne    	0x1452
  === BLOCK LINK ===
    0x146f
=== CODE BLOCK END ===

=== CODE BLOCK ADDRESS 0x146f ===
  0x146f	mov    	eax, 0x10b
  0x1474	cmp    	word ptr [ecx + 0x18], ax
  0x1478	je     	0x1498
  === BLOCK LINK ===
    0x147a
=== CODE BLOCK END ===

=== CODE BLOCK ADDRESS 0x147a ===
  0x147a	mov    	eax, 0x20b
  0x147f	cmp    	word ptr [ecx + 0x18], ax
  0x1483	jne    	0x1452
  === BLOCK LINK ===
    0x1485
=== CODE BLOCK END ===

=== CODE BLOCK ADDRESS 0x1485 ===
  0x1485	xor    	eax, eax
  0x1487	cmp    	dword ptr [ecx + 0x84], 0xe
  0x148e	jbe    	0x14a9
  === BLOCK LINK ===
    0x1490
=== CODE BLOCK END ===

=== CODE BLOCK ADDRESS 0x1490 ===
  0x1490	cmp    	dword ptr [ecx + 0xf8], eax
  0x1496	jmp    	0x14a6
  === BLOCK LINK ===
    0x1498
=== CODE BLOCK END ===

=== CODE BLOCK ADDRESS 0x1498 ===
  0x1498	xor    	eax, eax
  0x149a	cmp    	dword ptr [ecx + 0x74], 0xe
  0x149e	jbe    	0x14a9
  === BLOCK LINK ===
    0x14a0
=== CODE BLOCK END ===

=== CODE BLOCK ADDRESS 0x14a0 ===
  0x14a0	cmp    	dword ptr [ecx + 0xe8], eax
  0x14a6	setne  	al
  0x14a9	mov    	ecx, 2
  0x14ae	mov    	dword ptr [0x1b8c], eax
  0x14b4	call   	0x1908
  === BLOCK LINK ===
    0x14b9
=== CODE BLOCK END ===

=== CODE BLOCK ADDRESS 0x14b9 ===
  0x14b9	mov    	ecx, eax
  0x14bb	call   	dword ptr [0xdef]
  === BLOCK LINK ===
    0x14c1
=== CODE BLOCK END ===

=== CODE BLOCK ADDRESS 0x14c1 ===
  0x14c1	dec    	eax
  0x14c2	mov    	ecx, dword ptr [0xd78]
  0x14c8	dec    	eax
  0x14c9	or     	eax, 0xffffffff
  0x14cc	dec    	eax
  === BLOCK LINK ===
    0x14cd
=== CODE BLOCK END ===

=== CODE BLOCK ADDRESS 0x14cd ===
  0x14cd	mov    	dword ptr [0x20fd], eax
  0x14d3	dec    	eax
  0x14d4	mov    	dword ptr [0x20fe], eax
  0x14da	mov    	eax, dword ptr [0x1b74]
  0x14e0	mov    	dword ptr [ecx], eax
  === BLOCK LINK ===
    0x14e2
=== CODE BLOCK END ===

=== CODE BLOCK ADDRESS 0x14e2 ===
  0x14e2	dec    	eax
  0x14e3	mov    	ecx, dword ptr [0xd5f]
  0x14e9	mov    	eax, dword ptr [0x1b59]
  0x14ef	mov    	dword ptr [ecx], eax
  0x14f1	call   	0x1960
  === BLOCK LINK ===
    0x14f6
=== CODE BLOCK END ===

=== CODE BLOCK ADDRESS 0x14f6 ===
  0x14f6	cmp    	dword ptr [0x1b03], 0
  0x14fd	jne    	0x150c
  === BLOCK LINK ===
    0x14ff
=== CODE BLOCK END ===

=== CODE BLOCK ADDRESS 0x14ff ===
  0x14ff	dec    	eax
  0x1500	lea    	ecx, [0x45a]
  0x1506	call   	dword ptr [0xd84]
  === BLOCK LINK ===
    0x150c
=== CODE BLOCK END ===

=== CODE BLOCK ADDRESS 0x150c ===
  0x150c	xor    	eax, eax
  0x150e	dec    	eax
  0x150f	add    	esp, 0x28
  0x1512	ret    	
  0x1513	int3   	
  === BLOCK LINK ===
    0x1514
=== CODE BLOCK END ===

=== CODE BLOCK ADDRESS 0x1514 ===
  0x1514	int3   	
  0x1515	int3   	
  0x1516	int3   	
  0x1517	int3   	
  0x1518	int3   	
  === BLOCK LINK ===
    0x1519
=== CODE BLOCK END ===

=== CODE BLOCK ADDRESS 0x1519 ===
  0x1519	int3   	
  0x151a	int3   	
  0x151b	int3   	
  0x151c	int3   	
  0x151d	int3   	
  === BLOCK LINK ===
    0x151e
=== CODE BLOCK END ===

=== CODE BLOCK ADDRESS 0x151e ===
  0x151e	int3   	
  0x151f	int3   	
  0x1520	dec    	eax
  0x1521	sub    	esp, 0x38
  0x1524	mov    	eax, dword ptr [0x1b26]
  === BLOCK LINK ===
    0x152a
=== CODE BLOCK END ===

=== CODE BLOCK ADDRESS 0x152a ===
  0x152a	dec    	esp
  0x152b	lea    	eax, [0x1b07]
  0x1531	inc    	esp
  0x1532	mov    	ecx, dword ptr [0x1b14]
  0x1538	dec    	eax
  === BLOCK LINK ===
    0x1539
=== CODE BLOCK END ===

=== CODE BLOCK ADDRESS 0x1539 ===
  0x1539	lea    	edx, [0x1af1]
  0x153f	mov    	dword ptr [0x1aff], eax
  0x1545	dec    	eax
  0x1546	lea    	ecx, [0x1adc]
  0x154c	dec    	eax
  === BLOCK LINK ===
    0x154d
=== CODE BLOCK END ===

=== CODE BLOCK ADDRESS 0x154d ===
  0x154d	lea    	eax, [0x1af1]
  0x1553	dec    	eax
  0x1554	mov    	dword ptr [esp + 0x20], eax
  0x1558	call   	dword ptr [0xd02]
  === BLOCK LINK ===
    0x155e
=== CODE BLOCK END ===

=== CODE BLOCK ADDRESS 0x155e ===
  0x155e	mov    	dword ptr [0x1ac8], eax
  0x1564	dec    	eax
  0x1565	add    	esp, 0x38
  0x1568	ret    	
  0x1569	int3   	
  === BLOCK LINK ===
    0x156a
=== CODE BLOCK END ===

=== CODE BLOCK ADDRESS 0x156a ===
  0x156a	int3   	
  0x156b	int3   	
  0x156c	int3   	
  0x156d	int3   	
  0x156e	int3   	
  === BLOCK LINK ===
    0x156f
=== CODE BLOCK END ===

=== CODE BLOCK ADDRESS 0x156f ===
  0x156f	int3   	
  0x1570	dec    	eax
  0x1571	mov    	eax, esp
  0x1573	dec    	eax
  0x1574	mov    	dword ptr [eax + 8], ebx
  === BLOCK LINK ===
    0x1577
=== CODE BLOCK END ===

=== CODE BLOCK ADDRESS 0x1577 ===
  0x1577	dec    	eax
  0x1578	mov    	dword ptr [eax + 0x10], esi
  0x157b	dec    	eax
  0x157c	mov    	dword ptr [eax + 0x18], edi
  0x157f	dec    	esp
  === BLOCK LINK ===
    0x1580
=== CODE BLOCK END ===

=== CODE BLOCK ADDRESS 0x1580 ===
  0x1580	mov    	dword ptr [eax + 0x20], esi
  0x1583	inc    	ecx
  0x1584	push   	edi
  0x1585	dec    	eax
  0x1586	sub    	esp, 0xb0
  === BLOCK LINK ===
    0x158c
=== CODE BLOCK END ===

=== CODE BLOCK ADDRESS 0x158c ===
  0x158c	inc    	ebp
  0x158d	xor    	esi, esi
  0x158f	inc    	esp
  0x1590	mov    	dword ptr [esp + 0x20], esi
  0x1594	dec    	eax
  === BLOCK LINK ===
    0x1595
=== CODE BLOCK END ===

=== CODE BLOCK ADDRESS 0x1595 ===
  0x1595	lea    	ecx, [eax - 0x78]
  0x1598	call   	dword ptr [0xc2a]
  === BLOCK LINK ===
    0x159e
=== CODE BLOCK END ===

=== CODE BLOCK ADDRESS 0x159e ===
  0x159e	nop    	
  0x159f	dec    	eax
  0x15a1	mov    	eax, dword ptr [0x30]
  0x15a8	dec    	eax
  0x15a9	mov    	ebx, dword ptr [eax + 8]
  === BLOCK LINK ===
    0x15ac
=== CODE BLOCK END ===

=== CODE BLOCK ADDRESS 0x15ac ===
  0x15ac	inc    	ecx
  0x15ad	mov    	esi, esi
  0x15af	xor    	eax, eax
  0x15b1	.byte  	0xf0
  0x15b2	dec    	eax
  === BLOCK LINK ===
    0x15b3
=== CODE BLOCK END ===

=== CODE BLOCK ADDRESS 0x15b3 ===
  0x15b3	cmpxchg  	dword ptr [0x2026], ebx
  0x15ba	je     	0x15d7
  === BLOCK LINK ===
    0x15bc
=== CODE BLOCK END ===

=== CODE BLOCK ADDRESS 0x15bc ===
  0x15bc	dec    	eax
  0x15bd	cmp    	eax, ebx
  0x15bf	jne    	0x15ca
  === BLOCK LINK ===
    0x15c1
=== CODE BLOCK END ===

=== CODE BLOCK ADDRESS 0x15c1 ===
  0x15c1	mov    	ebx, 1
  0x15c6	mov    	esi, ebx
  0x15c8	jmp    	0x15dc
  === BLOCK LINK ===
    0x15ca
=== CODE BLOCK END ===

=== CODE BLOCK ADDRESS 0x15ca ===
  0x15ca	mov    	ecx, 0x3e8
  0x15cf	call   	dword ptr [0xbfb]
  === BLOCK LINK ===
    0x15d5
=== CODE BLOCK END ===

=== CODE BLOCK ADDRESS 0x15d5 ===
  0x15d5	jmp    	0x15af
  === BLOCK LINK ===
    0x15d7
=== CODE BLOCK END ===

=== CODE BLOCK ADDRESS 0x15d7 ===
  0x15d7	mov    	ebx, 1
  0x15dc	mov    	eax, dword ptr [0x2006]
  0x15e2	cmp    	eax, ebx
  0x15e4	jne    	0x15f4
  === BLOCK LINK ===
    0x15e6
=== CODE BLOCK END ===

=== CODE BLOCK ADDRESS 0x15e6 ===
  0x15e6	mov    	edi, 0x1f
  0x15eb	mov    	ecx, edi
  0x15ed	call   	0x1953
  === BLOCK LINK ===
    0x15f2
=== CODE BLOCK END ===

=== CODE BLOCK ADDRESS 0x15f2 ===
  0x15f2	jmp    	0x1660
  === BLOCK LINK ===
    0x15f4
=== CODE BLOCK END ===

=== CODE BLOCK ADDRESS 0x15f4 ===
  0x15f4	mov    	eax, dword ptr [0x1fee]
  0x15fa	test   	eax, eax
  0x15fc	jne    	0x1655
  === BLOCK LINK ===
    0x15fe
=== CODE BLOCK END ===

=== CODE BLOCK ADDRESS 0x15fe ===
  0x15fe	mov    	dword ptr [0x1fe4], ebx
  0x1604	dec    	esp
  0x1605	lea    	edi, [0xd1d]
  0x160b	dec    	eax
  0x160c	lea    	edi, [0xcfe]
  === BLOCK LINK ===
    0x1612
=== CODE BLOCK END ===

=== CODE BLOCK ADDRESS 0x1612 ===
  0x1612	dec    	eax
  0x1613	mov    	dword ptr [esp + 0x30], edi
  0x1617	inc    	ecx
  0x1618	mov    	eax, esi
  0x161a	mov    	dword ptr [esp + 0x24], eax
  === BLOCK LINK ===
    0x161e
=== CODE BLOCK END ===

=== CODE BLOCK ADDRESS 0x161e ===
  0x161e	dec    	ecx
  0x161f	cmp    	edi, edi
  0x1621	jae    	0x1647
  === BLOCK LINK ===
    0x1623
=== CODE BLOCK END ===

=== CODE BLOCK ADDRESS 0x1623 ===
  0x1623	test   	eax, eax
  0x1625	jne    	0x164b
  === BLOCK LINK ===
    0x1627
=== CODE BLOCK END ===

=== CODE BLOCK ADDRESS 0x1627 ===
  0x1627	dec    	esp
  0x1628	cmp    	dword ptr [edi], esi
  0x162a	je     	0x163c
  === BLOCK LINK ===
    0x162c
=== CODE BLOCK END ===

=== CODE BLOCK ADDRESS 0x162c ===
  0x162c	dec    	eax
  0x162d	mov    	eax, dword ptr [edi]
  0x162f	dec    	eax
  0x1630	mov    	ecx, dword ptr [0xcba]
  0x1636	call   	ecx
  === BLOCK LINK ===
    0x1638
=== CODE BLOCK END ===

=== CODE BLOCK ADDRESS 0x1638 ===
  0x1638	mov    	dword ptr [esp + 0x24], eax
  0x163c	dec    	eax
  0x163d	add    	edi, 8
  0x1640	dec    	eax
  0x1641	mov    	dword ptr [esp + 0x30], edi
  === BLOCK LINK ===
    0x1645
=== CODE BLOCK END ===

=== CODE BLOCK ADDRESS 0x1645 ===
  0x1645	jmp    	0x161e
  === BLOCK LINK ===
    0x1647
=== CODE BLOCK END ===

=== CODE BLOCK ADDRESS 0x1647 ===
  0x1647	test   	eax, eax
  0x1649	je     	0x165b
  === BLOCK LINK ===
    0x164b
=== CODE BLOCK END ===

=== CODE BLOCK ADDRESS 0x164b ===
  0x164b	mov    	eax, 0xff
  0x1650	jmp    	0x17b6
  === BLOCK LINK ===
    0x1655
=== CODE BLOCK END ===

=== CODE BLOCK ADDRESS 0x1655 ===
  0x1655	mov    	dword ptr [0x19c9], ebx
  0x165b	mov    	edi, 0x1f
  0x1660	mov    	eax, dword ptr [0x1f82]
  0x1666	cmp    	eax, ebx
  0x1668	jne    	0x1687
  === BLOCK LINK ===
    0x166a
=== CODE BLOCK END ===

=== CODE BLOCK ADDRESS 0x166a ===
  0x166a	dec    	eax
  0x166b	lea    	edx, [0xc97]
  0x1671	dec    	eax
  0x1672	lea    	ecx, [0xc80]
  0x1678	call   	0x1b2e
  === BLOCK LINK ===
    0x167d
=== CODE BLOCK END ===

=== CODE BLOCK ADDRESS 0x167d ===
  0x167d	mov    	dword ptr [0x1f61], 2
  0x1687	test   	esi, esi
  0x1689	jne    	0x1695
  === BLOCK LINK ===
    0x168b
=== CODE BLOCK END ===

=== CODE BLOCK ADDRESS 0x168b ===
  0x168b	dec    	ecx
  0x168c	mov    	eax, esi
  0x168e	dec    	eax
  0x168f	xchg   	dword ptr [0x1f4b], eax
  0x1695	dec    	esp
  === BLOCK LINK ===
    0x1696
=== CODE BLOCK END ===

=== CODE BLOCK ADDRESS 0x1696 ===
  0x1696	cmp    	dword ptr [0x1f54], esi
  0x169c	je     	0x16c8
  === BLOCK LINK ===
    0x169e
=== CODE BLOCK END ===

=== CODE BLOCK ADDRESS 0x169e ===
  0x169e	dec    	eax
  0x169f	lea    	ecx, [0x1f4b]
  0x16a5	call   	0x19c0
  === BLOCK LINK ===
    0x16aa
=== CODE BLOCK END ===

=== CODE BLOCK ADDRESS 0x16aa ===
  0x16aa	test   	eax, eax
  0x16ac	je     	0x16c8
  === BLOCK LINK ===
    0x16ae
=== CODE BLOCK END ===

=== CODE BLOCK ADDRESS 0x16ae ===
  0x16ae	inc    	ebp
  0x16af	xor    	eax, eax
  0x16b1	inc    	ecx
  0x16b2	lea    	edx, [eax + 2]
  0x16b5	xor    	ecx, ecx
  === BLOCK LINK ===
    0x16b7
=== CODE BLOCK END ===

=== CODE BLOCK ADDRESS 0x16b7 ===
  0x16b7	dec    	eax
  0x16b8	mov    	eax, dword ptr [0x1f32]
  0x16be	dec    	esp
  0x16bf	mov    	ecx, dword ptr [0xc2b]
  0x16c5	inc    	ecx
  === BLOCK LINK ===
    0x16c6
=== CODE BLOCK END ===

=== CODE BLOCK ADDRESS 0x16c6 ===
  0x16c6	call   	ecx
  === BLOCK LINK ===
    0x16c8
=== CODE BLOCK END ===

=== CODE BLOCK ADDRESS 0x16c8 ===
  0x16c8	dec    	eax
  0x16c9	mov    	eax, dword ptr [0xbb1]
  0x16cf	dec    	eax
  0x16d0	mov    	ecx, dword ptr [eax]
  0x16d2	dec    	eax
  === BLOCK LINK ===
    0x16d3
=== CODE BLOCK END ===

=== CODE BLOCK ADDRESS 0x16d3 ===
  0x16d3	test   	ecx, ecx
  0x16d5	jne    	0x16e1
  === BLOCK LINK ===
    0x16d7
=== CODE BLOCK END ===

=== CODE BLOCK ADDRESS 0x16d7 ===
  0x16d7	mov    	eax, 0xff
  0x16dc	jmp    	0x17b6
  === BLOCK LINK ===
    0x16e1
=== CODE BLOCK END ===

=== CODE BLOCK ADDRESS 0x16e1 ===
  0x16e1	dec    	eax
  0x16e2	mov    	dword ptr [esp + 0x28], ecx
  0x16e6	mov    	edx, dword ptr [esp + 0x20]
  0x16ea	movzx  	eax, word ptr [ecx]
  0x16ed	cmp    	ax, 0x20
  === BLOCK LINK ===
    0x16f1
=== CODE BLOCK END ===

=== CODE BLOCK ADDRESS 0x16f1 ===
  0x16f1	ja     	0x1767
  === BLOCK LINK ===
    0x16f3
=== CODE BLOCK END ===

=== CODE BLOCK ADDRESS 0x16f3 ===
  0x16f3	test   	ax, ax
  0x16f6	je     	0x16fc
  === BLOCK LINK ===
    0x16f8
=== CODE BLOCK END ===

=== CODE BLOCK ADDRESS 0x16f8 ===
  0x16f8	test   	edx, edx
  0x16fa	jne    	0x1767
  === BLOCK LINK ===
    0x16fc
=== CODE BLOCK END ===

=== CODE BLOCK ADDRESS 0x16fc ===
  0x16fc	sub    	ax, bx
  0x16ff	cmp    	ax, di
  0x1702	ja     	0x1712
  === BLOCK LINK ===
    0x1704
=== CODE BLOCK END ===

=== CODE BLOCK ADDRESS 0x1704 ===
  0x1704	dec    	eax
  0x1705	add    	ecx, 2
  0x1708	dec    	eax
  0x1709	mov    	dword ptr [esp + 0x28], ecx
  0x170d	movzx  	eax, word ptr [ecx]
  === BLOCK LINK ===
    0x1710
=== CODE BLOCK END ===

=== CODE BLOCK ADDRESS 0x1710 ===
  0x1710	jmp    	0x16fc
  === BLOCK LINK ===
    0x1712
=== CODE BLOCK END ===

=== CODE BLOCK ADDRESS 0x1712 ===
  0x1712	test   	byte ptr [esp + 0x7c], bl
  0x1716	movzx  	eax, word ptr [esp + 0x80]
  0x171e	inc    	ecx
  0x171f	mov    	ecx, 0xa
  0x1724	inc    	esp
  === BLOCK LINK ===
    0x1725
=== CODE BLOCK END ===

=== CODE BLOCK ADDRESS 0x1725 ===
  0x1725	cmovne  	ecx, eax
  0x1728	dec    	esp
  0x1729	mov    	eax, ecx
  0x172b	xor    	edx, edx
  0x172d	dec    	eax
  === BLOCK LINK ===
    0x172e
=== CODE BLOCK END ===

=== CODE BLOCK ADDRESS 0x172e ===
  0x172e	lea    	ecx, [0xffffe8cc]
  0x1734	call   	0x10e0
  === BLOCK LINK ===
    0x1739
=== CODE BLOCK END ===

=== CODE BLOCK ADDRESS 0x1739 ===
  0x1739	mov    	dword ptr [0x18e1], eax
  0x173f	inc    	esp
  0x1740	cmp    	dword ptr [0x18fa], esi
  0x1746	jne    	0x1750
  === BLOCK LINK ===
    0x1748
=== CODE BLOCK END ===

=== CODE BLOCK ADDRESS 0x1748 ===
  0x1748	mov    	ecx, eax
  0x174a	call   	dword ptr [0xb58]
  === BLOCK LINK ===
    0x1750
=== CODE BLOCK END ===

=== CODE BLOCK ADDRESS 0x1750 ===
  0x1750	inc    	esp
  0x1751	cmp    	dword ptr [0x18cd], esi
  0x1757	jne    	0x1765
  === BLOCK LINK ===
    0x1759
=== CODE BLOCK END ===

=== CODE BLOCK ADDRESS 0x1759 ===
  0x1759	call   	dword ptr [0xb39]
  === BLOCK LINK ===
    0x175f
=== CODE BLOCK END ===

=== CODE BLOCK ADDRESS 0x175f ===
  0x175f	mov    	eax, dword ptr [0x18bb]
  0x1765	jmp    	0x17b6
  === BLOCK LINK ===
    0x1767
=== CODE BLOCK END ===

=== CODE BLOCK ADDRESS 0x1767 ===
  0x1767	cmp    	ax, 0x22
  0x176b	jne    	0x177b
  === BLOCK LINK ===
    0x176d
=== CODE BLOCK END ===

=== CODE BLOCK ADDRESS 0x176d ===
  0x176d	inc    	ecx
  0x176e	mov    	eax, esi
  0x1770	test   	edx, edx
  0x1772	sete   	al
  0x1775	mov    	edx, eax
  === BLOCK LINK ===
    0x1777
=== CODE BLOCK END ===

=== CODE BLOCK ADDRESS 0x1777 ===
  0x1777	mov    	dword ptr [esp + 0x20], eax
  0x177b	dec    	eax
  0x177c	add    	ecx, 2
  0x177f	dec    	eax
  0x1780	mov    	dword ptr [esp + 0x28], ecx
  === BLOCK LINK ===
    0x1784
=== CODE BLOCK END ===

=== CODE BLOCK ADDRESS 0x1784 ===
  0x1784	jmp    	0x16ea
  === BLOCK LINK ===
    0x1789
=== CODE BLOCK END ===

=== CODE BLOCK ADDRESS 0x1789 ===
  0x1789	mov    	dword ptr [0x1891], eax
  0x178f	cmp    	dword ptr [0x18aa], 0
  0x1796	jne    	0x17a1
  === BLOCK LINK ===
    0x1798
=== CODE BLOCK END ===

=== CODE BLOCK ADDRESS 0x1798 ===
  0x1798	mov    	ecx, eax
  0x179a	call   	dword ptr [0xb00]
  === BLOCK LINK ===
    0x17a0
=== CODE BLOCK END ===

=== CODE BLOCK ADDRESS 0x17a0 ===
  0x17a0	int3   	
  0x17a1	cmp    	dword ptr [0x187c], 0
  0x17a8	jne    	0x17b6
  === BLOCK LINK ===
    0x17aa
=== CODE BLOCK END ===

=== CODE BLOCK ADDRESS 0x17aa ===
  0x17aa	call   	dword ptr [0xae8]
  === BLOCK LINK ===
    0x17b0
=== CODE BLOCK END ===

=== CODE BLOCK ADDRESS 0x17b0 ===
  0x17b0	mov    	eax, dword ptr [0x186a]
  0x17b6	dec    	esp
  0x17b7	lea    	ebx, [esp + 0xb0]
  0x17be	dec    	ecx
  0x17bf	mov    	ebx, dword ptr [ebx + 0x10]
  === BLOCK LINK ===
    0x17c2
=== CODE BLOCK END ===

=== CODE BLOCK ADDRESS 0x17c2 ===
  0x17c2	dec    	ecx
  0x17c3	mov    	esi, dword ptr [ebx + 0x18]
  0x17c6	dec    	ecx
  0x17c7	mov    	edi, dword ptr [ebx + 0x20]
  0x17ca	dec    	ebp
  === BLOCK LINK ===
    0x17cb
=== CODE BLOCK END ===

=== CODE BLOCK ADDRESS 0x17cb ===
  0x17cb	mov    	esi, dword ptr [ebx + 0x28]
  0x17ce	dec    	ecx
  0x17cf	mov    	esp, ebx
  0x17d1	inc    	ecx
  0x17d2	pop    	edi
  === BLOCK LINK ===
    0x17d3
=== CODE BLOCK END ===

=== CODE BLOCK ADDRESS 0x17d3 ===
  0x17d3	ret    	
  0x17d4	int3   	
  0x17d5	int3   	
  0x17d6	int3   	
  0x17d7	int3   	
  === BLOCK LINK ===
    0x17d8
=== CODE BLOCK END ===

=== CODE BLOCK ADDRESS 0x17d8 ===
  0x17d8	int3   	
  0x17d9	int3   	
  0x17da	int3   	
  0x17db	int3   	
  0x17dc	int3   	
  === BLOCK LINK ===
    0x17dd
=== CODE BLOCK END ===

=== CODE BLOCK ADDRESS 0x17dd ===
  0x17dd	int3   	
  0x17de	int3   	
  0x17df	int3   	
  0x17e0	dec    	eax
  0x17e1	sub    	esp, 0x28
  === BLOCK LINK ===
    0x17e4
=== CODE BLOCK END ===

=== CODE BLOCK ADDRESS 0x17e4 ===
  0x17e4	call   	0x1a54
  === BLOCK LINK ===
    0x17e9
=== CODE BLOCK END ===

=== CODE BLOCK ADDRESS 0x17e9 ===
  0x17e9	dec    	eax
  0x17ea	add    	esp, 0x28
  0x17ed	jmp    	0x1570
  === BLOCK LINK ===
    0x17f2
=== CODE BLOCK END ===

=== CODE BLOCK ADDRESS 0x17f2 ===
  0x17f2	int3   	
  0x17f3	int3   	
  0x17f4	int3   	
  0x17f5	int3   	
  0x17f6	int3   	
  === BLOCK LINK ===
    0x17f7
=== CODE BLOCK END ===

=== CODE BLOCK ADDRESS 0x17f7 ===
  0x17f7	int3   	
  0x17f8	int3   	
  0x17f9	int3   	
  0x17fa	int3   	
  0x17fb	int3   	
  === BLOCK LINK ===
    0x17fc
=== CODE BLOCK END ===

=== CODE BLOCK ADDRESS 0x17fc ===
  0x17fc	int3   	
  0x17fd	int3   	
  0x17fe	int3   	
  0x17ff	int3   	
  0x1800	int3   	
  === BLOCK LINK ===
    0x1801
=== CODE BLOCK END ===

=== CODE BLOCK ADDRESS 0x1801 ===
  0x1801	int3   	
  0x1802	int3   	
  0x1803	int3   	
  0x1804	int3   	
  0x1805	int3   	
  === BLOCK LINK ===
    0x1806
=== CODE BLOCK END ===

=== CODE BLOCK ADDRESS 0x1806 ===
  0x1806	nop    	word ptr [eax + eax]
  0x1810	dec    	eax
  0x1811	cmp    	ecx, dword ptr [0x17f1]
  0x1817	jne    	0x1829
  === BLOCK LINK ===
    0x1819
=== CODE BLOCK END ===

=== CODE BLOCK ADDRESS 0x1819 ===
  0x1819	dec    	eax
  0x181a	rol    	ecx, 0x10
  0x181d	test   	cx, 0xffff
  0x1822	jne    	0x1825
  === BLOCK LINK ===
    0x1824
=== CODE BLOCK END ===

=== CODE BLOCK ADDRESS 0x1824 ===
  0x1824	ret    	
  0x1825	dec    	eax
  0x1826	ror    	ecx, 0x10
  0x1829	jmp    	0x1ba0
  === BLOCK LINK ===
    0x182e
=== CODE BLOCK END ===

=== CODE BLOCK ADDRESS 0x10a2 ===
  0x10a2	cmp    	di, word ptr [ebx]
  0x10a5	jne    	0x1087
  === BLOCK LINK ===
    0x10a7
=== CODE BLOCK END ===

=== CODE BLOCK ADDRESS 0x182e ===
  0x182e	int3   	
  0x182f	int3   	
  0x1830	int3   	
  0x1831	int3   	
  0x1832	int3   	
  === BLOCK LINK ===
    0x1833
=== CODE BLOCK END ===

=== CODE BLOCK ADDRESS 0x1833 ===
  0x1833	int3   	
  0x1834	int3   	
  0x1835	int3   	
  0x1836	int3   	
  0x1837	int3   	
  === BLOCK LINK ===
    0x1838
=== CODE BLOCK END ===

=== CODE BLOCK ADDRESS 0x1838 ===
  0x1838	int3   	
  0x1839	int3   	
  0x183a	int3   	
  0x183b	int3   	
  0x183c	int3   	
  === BLOCK LINK ===
    0x183d
=== CODE BLOCK END ===

=== CODE BLOCK ADDRESS 0x183d ===
  0x183d	int3   	
  0x183e	int3   	
  0x183f	int3   	
  0x1840	dec    	eax
  0x1841	sub    	esp, 0x28
  === BLOCK LINK ===
    0x1844
=== CODE BLOCK END ===

=== CODE BLOCK ADDRESS 0x1844 ===
  0x1844	dec    	eax
  0x1845	mov    	eax, dword ptr [ecx]
  0x1847	cmp    	dword ptr [eax], 0xe06d7363
  0x184d	jne    	0x1872
  === BLOCK LINK ===
    0x184f
=== CODE BLOCK END ===

=== CODE BLOCK ADDRESS 0x184f ===
  0x184f	cmp    	dword ptr [eax + 0x18], 4
  0x1853	jne    	0x1872
  === BLOCK LINK ===
    0x1855
=== CODE BLOCK END ===

=== CODE BLOCK ADDRESS 0x1855 ===
  0x1855	mov    	ecx, dword ptr [eax + 0x20]
  0x1858	lea    	eax, [ecx - 0x19930520]
  0x185e	cmp    	eax, 2
  0x1861	jbe    	0x186b
  === BLOCK LINK ===
    0x1863
=== CODE BLOCK END ===

=== CODE BLOCK ADDRESS 0x1863 ===
  0x1863	cmp    	ecx, 0x1994000
  0x1869	jne    	0x1872
  === BLOCK LINK ===
    0x186b
=== CODE BLOCK END ===

=== CODE BLOCK ADDRESS 0x186b ===
  0x186b	call   	dword ptr [0x9df]
  === BLOCK LINK ===
    0x1871
=== CODE BLOCK END ===

=== CODE BLOCK ADDRESS 0x1871 ===
  0x1871	int3   	
  0x1872	xor    	eax, eax
  0x1874	dec    	eax
  0x1875	add    	esp, 0x28
  0x1878	ret    	
  === BLOCK LINK ===
    0x1879
=== CODE BLOCK END ===

=== CODE BLOCK ADDRESS 0x1879 ===
  0x1879	int3   	
  0x187a	int3   	
  0x187b	int3   	
  0x187c	int3   	
  0x187d	int3   	
  === BLOCK LINK ===
    0x187e
=== CODE BLOCK END ===

=== CODE BLOCK ADDRESS 0x187e ===
  0x187e	int3   	
  0x187f	int3   	
  0x1880	dec    	eax
  0x1881	sub    	esp, 0x28
  0x1884	dec    	eax
  === BLOCK LINK ===
    0x1885
=== CODE BLOCK END ===

=== CODE BLOCK ADDRESS 0x1885 ===
  0x1885	lea    	ecx, [0xffffffb5]
  0x188b	call   	dword ptr [0x92f]
  === BLOCK LINK ===
    0x1891
=== CODE BLOCK END ===

=== CODE BLOCK ADDRESS 0x1891 ===
  0x1891	xor    	eax, eax
  0x1893	dec    	eax
  0x1894	add    	esp, 0x28
  0x1897	ret    	
  0x1898	int3   	
  === BLOCK LINK ===
    0x1899
=== CODE BLOCK END ===

=== CODE BLOCK ADDRESS 0x1899 ===
  0x1899	int3   	
  0x189a	int3   	
  0x189b	int3   	
  0x189c	int3   	
  0x189d	int3   	
  === BLOCK LINK ===
    0x189e
=== CODE BLOCK END ===

=== CODE BLOCK ADDRESS 0x189e ===
  0x189e	jmp    	dword ptr [0x9cc]
  === BLOCK LINK ===
    0x18a4
=== CODE BLOCK END ===

=== CODE BLOCK ADDRESS 0x18a4 ===
  0x18a4	int3   	
  0x18a5	int3   	
  0x18a6	int3   	
  0x18a7	int3   	
  0x18a8	int3   	
  === BLOCK LINK ===
    0x18a9
=== CODE BLOCK END ===

=== CODE BLOCK ADDRESS 0x18a9 ===
  0x18a9	int3   	
  0x18aa	int3   	
  0x18ab	int3   	
  0x18ac	dec    	eax
  0x18ad	sub    	esp, 0x18
  === BLOCK LINK ===
    0x18b0
=== CODE BLOCK END ===

=== CODE BLOCK ADDRESS 0x18b0 ===
  0x18b0	xor    	edx, edx
  0x18b2	dec    	eax
  0x18b3	lea    	eax, [ecx - 1]
  0x18b6	dec    	eax
  0x18b7	cmp    	eax, -3
  === BLOCK LINK ===
    0x18ba
=== CODE BLOCK END ===

=== CODE BLOCK ADDRESS 0x18ba ===
  0x18ba	ja     	0x18f8
  === BLOCK LINK ===
    0x18bc
=== CODE BLOCK END ===

=== CODE BLOCK ADDRESS 0x18bc ===
  0x18bc	mov    	eax, 0x5a4d
  0x18c1	cmp    	word ptr [ecx], ax
  0x18c4	jne    	0x18f0
  === BLOCK LINK ===
    0x18c6
=== CODE BLOCK END ===

=== CODE BLOCK ADDRESS 0x18c6 ===
  0x18c6	cmp    	dword ptr [ecx + 0x3c], edx
  0x18c9	jl     	0x18f0
  === BLOCK LINK ===
    0x18cb
=== CODE BLOCK END ===

=== CODE BLOCK ADDRESS 0x18cb ===
  0x18cb	cmp    	dword ptr [ecx + 0x3c], 0x10000000
  0x18d2	jae    	0x18f0
  === BLOCK LINK ===
    0x18d4
=== CODE BLOCK END ===

=== CODE BLOCK ADDRESS 0x18d4 ===
  0x18d4	dec    	eax
  0x18d5	arpl   	word ptr [ecx + 0x3c], ax
  0x18d8	dec    	eax
  0x18d9	add    	eax, ecx
  0x18db	dec    	eax
  === BLOCK LINK ===
    0x18dc
=== CODE BLOCK END ===

=== CODE BLOCK ADDRESS 0x18dc ===
  0x18dc	mov    	dword ptr [esp], eax
  0x18df	cmp    	dword ptr [eax], 0x4550
  0x18e5	dec    	eax
  0x18e6	cmovne  	eax, edx
  0x18e9	dec    	eax
  === BLOCK LINK ===
    0x18ea
=== CODE BLOCK END ===

=== CODE BLOCK ADDRESS 0x18ea ===
  0x18ea	mov    	edx, eax
  0x18ec	dec    	eax
  0x18ed	mov    	dword ptr [esp], eax
  0x18f0	jmp    	0x18f8
  === BLOCK LINK ===
    0x18f2
=== CODE BLOCK END ===

=== CODE BLOCK ADDRESS 0x18f2 ===
  0x18f2	xor    	edx, edx
  0x18f4	dec    	eax
  0x18f5	mov    	dword ptr [esp], edx
  0x18f8	dec    	eax
  0x18f9	mov    	eax, edx
  === BLOCK LINK ===
    0x18fb
=== CODE BLOCK END ===

=== CODE BLOCK ADDRESS 0x18fb ===
  0x18fb	dec    	eax
  0x18fc	add    	esp, 0x18
  0x18ff	ret    	
  0x1900	int3   	
  0x1901	int3   	
  === BLOCK LINK ===
    0x1902
=== CODE BLOCK END ===

=== CODE BLOCK ADDRESS 0x1060 ===
  0x1060	movzx  	ecx, ax
  0x1063	cmp    	di, ax
  0x1066	je     	0x1077
  === BLOCK LINK ===
    0x1068
    0x1077
=== CODE BLOCK END ===

=== CODE BLOCK ADDRESS 0x1902 ===
  0x1902	int3   	
  0x1903	int3   	
  0x1904	int3   	
  0x1905	int3   	
  0x1906	int3   	
  === BLOCK LINK ===
    0x1907
=== CODE BLOCK END ===

=== CODE BLOCK ADDRESS 0x1907 ===
  0x1907	int3   	
  0x1908	inc    	eax
  0x1909	push   	ebx
  0x190a	dec    	eax
  0x190b	sub    	esp, 0x20
  === BLOCK LINK ===
    0x190e
=== CODE BLOCK END ===

=== CODE BLOCK ADDRESS 0x190e ===
  0x190e	mov    	ebx, ecx
  0x1910	xor    	ecx, ecx
  0x1912	call   	dword ptr [0x8a0]
  === BLOCK LINK ===
    0x1918
=== CODE BLOCK END ===

=== CODE BLOCK ADDRESS 0x1918 ===
  0x1918	dec    	eax
  0x1919	test   	eax, eax
  0x191b	je     	0x1945
  === BLOCK LINK ===
    0x191d
=== CODE BLOCK END ===

=== CODE BLOCK ADDRESS 0x191d ===
  0x191d	dec    	eax
  0x191e	mov    	ecx, eax
  0x1920	call   	0x18ac
  === BLOCK LINK ===
    0x1925
=== CODE BLOCK END ===

=== CODE BLOCK ADDRESS 0x1925 ===
  0x1925	dec    	eax
  0x1926	test   	eax, eax
  0x1928	je     	0x1945
  === BLOCK LINK ===
    0x192a
=== CODE BLOCK END ===

=== CODE BLOCK ADDRESS 0x192a ===
  0x192a	mov    	ecx, 2
  0x192f	cmp    	word ptr [eax + 0x5c], cx
  0x1933	jne    	0x1939
  === BLOCK LINK ===
    0x1935
=== CODE BLOCK END ===

=== CODE BLOCK ADDRESS 0x1935 ===
  0x1935	mov    	eax, ecx
  0x1937	jmp    	0x1947
  === BLOCK LINK ===
    0x1939
=== CODE BLOCK END ===

=== CODE BLOCK ADDRESS 0x1939 ===
  0x1939	cmp    	word ptr [eax + 0x5c], 3
  0x193e	mov    	eax, 1
  0x1943	je     	0x1947
  === BLOCK LINK ===
    0x1945
=== CODE BLOCK END ===

=== CODE BLOCK ADDRESS 0x1945 ===
  0x1945	mov    	eax, ebx
  0x1947	dec    	eax
  0x1948	add    	esp, 0x20
  0x194b	pop    	ebx
  0x194c	ret    	
  === BLOCK LINK ===
    0x194d
=== CODE BLOCK END ===

=== CODE BLOCK ADDRESS 0x194d ===
  0x194d	int3   	
  0x194e	int3   	
  0x194f	int3   	
  0x1950	int3   	
  0x1951	int3   	
  === BLOCK LINK ===
    0x1952
=== CODE BLOCK END ===

=== CODE BLOCK ADDRESS 0x1952 ===
  0x1952	int3   	
  0x1953	jmp    	dword ptr [0x90f]
  === BLOCK LINK ===
    0x1959
=== CODE BLOCK END ===

=== CODE BLOCK ADDRESS 0x1959 ===
  0x1959	int3   	
  0x195a	int3   	
  0x195b	int3   	
  0x195c	int3   	
  0x195d	int3   	
  === BLOCK LINK ===
    0x195e
=== CODE BLOCK END ===

=== CODE BLOCK ADDRESS 0x195e ===
  0x195e	int3   	
  0x195f	int3   	
  0x1960	xor    	eax, eax
  0x1962	ret    	
  0x1963	int3   	
  === BLOCK LINK ===
    0x1964
=== CODE BLOCK END ===

=== CODE BLOCK ADDRESS 0x1964 ===
  0x1964	int3   	
  0x1965	int3   	
  0x1966	int3   	
  0x1967	int3   	
  0x1968	int3   	
  === BLOCK LINK ===
    0x1969
=== CODE BLOCK END ===

=== CODE BLOCK ADDRESS 0x1969 ===
  0x1969	int3   	
  0x196a	int3   	
  0x196b	int3   	
  0x196c	int3   	
  0x196d	int3   	
  === BLOCK LINK ===
    0x196e
=== CODE BLOCK END ===

=== CODE BLOCK ADDRESS 0x196e ===
  0x196e	int3   	
  0x196f	int3   	
  0x1970	dec    	esp
  0x1971	arpl   	word ptr [ecx + 0x3c], ax
  0x1974	inc    	ebp
  === BLOCK LINK ===
    0x1975
=== CODE BLOCK END ===

=== CODE BLOCK ADDRESS 0x1975 ===
  0x1975	xor    	ecx, ecx
  0x1977	dec    	esp
  0x1978	add    	eax, ecx
  0x197a	dec    	esp
  0x197b	mov    	edx, edx
  === BLOCK LINK ===
    0x197d
=== CODE BLOCK END ===

=== CODE BLOCK ADDRESS 0x197d ===
  0x197d	inc    	ecx
  0x197e	movzx  	eax, word ptr [eax + 0x14]
  0x1982	inc    	ebp
  0x1983	movzx  	ebx, word ptr [eax + 6]
  0x1987	dec    	eax
  === BLOCK LINK ===
    0x1988
=== CODE BLOCK END ===

=== CODE BLOCK ADDRESS 0x1988 ===
  0x1988	add    	eax, 0x18
  0x198b	dec    	ecx
  0x198c	add    	eax, eax
  0x198e	inc    	ebp
  0x198f	test   	ebx, ebx
  === BLOCK LINK ===
    0x1991
=== CODE BLOCK END ===

=== CODE BLOCK ADDRESS 0x1991 ===
  0x1991	je     	0x19b1
  === BLOCK LINK ===
    0x1993
=== CODE BLOCK END ===

=== CODE BLOCK ADDRESS 0x1993 ===
  0x1993	mov    	edx, dword ptr [eax + 0xc]
  0x1996	dec    	esp
  0x1997	cmp    	edx, edx
  0x1999	jb     	0x19a5
  === BLOCK LINK ===
    0x199b
=== CODE BLOCK END ===

=== CODE BLOCK ADDRESS 0x199b ===
  0x199b	mov    	ecx, dword ptr [eax + 8]
  0x199e	add    	ecx, edx
  0x19a0	dec    	esp
  0x19a1	cmp    	edx, ecx
  0x19a3	jb     	0x19b3
  === BLOCK LINK ===
    0x19a5
=== CODE BLOCK END ===

=== CODE BLOCK ADDRESS 0x19a5 ===
  0x19a5	inc    	ecx
  0x19a6	inc    	ecx
  0x19a8	dec    	eax
  0x19a9	add    	eax, 0x28
  0x19ac	inc    	ebp
  === BLOCK LINK ===
    0x19ad
=== CODE BLOCK END ===

=== CODE BLOCK ADDRESS 0x19ad ===
  0x19ad	cmp    	ecx, ebx
  0x19af	jb     	0x1993
  === BLOCK LINK ===
    0x19b1
=== CODE BLOCK END ===

=== CODE BLOCK ADDRESS 0x19b1 ===
  0x19b1	xor    	eax, eax
  0x19b3	ret    	
  0x19b4	int3   	
  0x19b5	int3   	
  0x19b6	int3   	
  === BLOCK LINK ===
    0x19b7
=== CODE BLOCK END ===

=== CODE BLOCK ADDRESS 0x19b7 ===
  0x19b7	int3   	
  0x19b8	int3   	
  0x19b9	int3   	
  0x19ba	int3   	
  0x19bb	int3   	
  === BLOCK LINK ===
    0x19bc
=== CODE BLOCK END ===

=== CODE BLOCK ADDRESS 0x19bc ===
  0x19bc	int3   	
  0x19bd	int3   	
  0x19be	int3   	
  0x19bf	int3   	
  0x19c0	dec    	eax
  === BLOCK LINK ===
    0x19c1
=== CODE BLOCK END ===

=== CODE BLOCK ADDRESS 0x19c1 ===
  0x19c1	mov    	dword ptr [esp + 8], ebx
  0x19c5	push   	edi
  0x19c6	dec    	eax
  0x19c7	sub    	esp, 0x20
  0x19ca	dec    	eax
  === BLOCK LINK ===
    0x19cb
=== CODE BLOCK END ===

=== CODE BLOCK ADDRESS 0x19cb ===
  0x19cb	mov    	ebx, ecx
  0x19cd	dec    	eax
  0x19ce	lea    	edi, [0xffffe62c]
  0x19d4	dec    	eax
  0x19d5	mov    	ecx, edi
  === BLOCK LINK ===
    0x19d7
=== CODE BLOCK END ===

=== CODE BLOCK ADDRESS 0x19d7 ===
  0x19d7	call   	0x1a20
  === BLOCK LINK ===
    0x19dc
=== CODE BLOCK END ===

=== CODE BLOCK ADDRESS 0x19dc ===
  0x19dc	test   	eax, eax
  0x19de	je     	0x1a02
  === BLOCK LINK ===
    0x19e0
=== CODE BLOCK END ===

=== CODE BLOCK ADDRESS 0x19e0 ===
  0x19e0	dec    	eax
  0x19e1	sub    	ebx, edi
  0x19e3	dec    	eax
  0x19e4	mov    	edx, ebx
  0x19e6	dec    	eax
  === BLOCK LINK ===
    0x19e7
=== CODE BLOCK END ===

=== CODE BLOCK ADDRESS 0x19e7 ===
  0x19e7	mov    	ecx, edi
  0x19e9	call   	0x1970
  === BLOCK LINK ===
    0x19ee
=== CODE BLOCK END ===

=== CODE BLOCK ADDRESS 0x19ee ===
  0x19ee	dec    	eax
  0x19ef	test   	eax, eax
  0x19f1	je     	0x1a02
  === BLOCK LINK ===
    0x19f3
=== CODE BLOCK END ===

=== CODE BLOCK ADDRESS 0x19f3 ===
  0x19f3	mov    	eax, dword ptr [eax + 0x24]
  0x19f6	shr    	eax, 0x1f
  0x19f9	not    	eax
  0x19fb	and    	eax, 1
  0x19fe	jmp    	0x1a02
  === BLOCK LINK ===
    0x1a00
=== CODE BLOCK END ===

=== CODE BLOCK ADDRESS 0x1a00 ===
  0x1a00	xor    	eax, eax
  0x1a02	dec    	eax
  0x1a03	mov    	ebx, dword ptr [esp + 0x30]
  0x1a07	dec    	eax
  0x1a08	add    	esp, 0x20
  === BLOCK LINK ===
    0x1a0b
=== CODE BLOCK END ===

=== CODE BLOCK ADDRESS 0x1a0b ===
  0x1a0b	pop    	edi
  0x1a0c	ret    	
  0x1a0d	int3   	
  0x1a0e	int3   	
  0x1a0f	int3   	
  === BLOCK LINK ===
    0x1a10
=== CODE BLOCK END ===

=== CODE BLOCK ADDRESS 0x1a10 ===
  0x1a10	int3   	
  0x1a11	int3   	
  0x1a12	int3   	
  0x1a13	int3   	
  0x1a14	int3   	
  === BLOCK LINK ===
    0x1a15
=== CODE BLOCK END ===

=== CODE BLOCK ADDRESS 0x1a15 ===
  0x1a15	int3   	
  0x1a16	int3   	
  0x1a17	int3   	
  0x1a18	int3   	
  0x1a19	int3   	
  === BLOCK LINK ===
    0x1a1a
=== CODE BLOCK END ===

=== CODE BLOCK ADDRESS 0x1a1a ===
  0x1a1a	int3   	
  0x1a1b	int3   	
  0x1a1c	int3   	
  0x1a1d	int3   	
  0x1a1e	int3   	
  === BLOCK LINK ===
    0x1a1f
=== CODE BLOCK END ===

=== CODE BLOCK ADDRESS 0x1a1f ===
  0x1a1f	int3   	
  0x1a20	mov    	eax, 0x5a4d
  0x1a25	cmp    	word ptr [ecx], ax
  0x1a28	jne    	0x1a4a
  === BLOCK LINK ===
    0x1a2a
=== CODE BLOCK END ===

=== CODE BLOCK ADDRESS 0x1a2a ===
  0x1a2a	dec    	eax
  0x1a2b	arpl   	word ptr [ecx + 0x3c], ax
  0x1a2e	dec    	eax
  0x1a2f	add    	eax, ecx
  0x1a31	cmp    	dword ptr [eax], 0x4550
  === BLOCK LINK ===
    0x1a37
=== CODE BLOCK END ===

=== CODE BLOCK ADDRESS 0x1a37 ===
  0x1a37	jne    	0x1a4a
  === BLOCK LINK ===
    0x1a39
=== CODE BLOCK END ===

=== CODE BLOCK ADDRESS 0x1a39 ===
  0x1a39	mov    	ecx, 0x20b
  0x1a3e	cmp    	word ptr [eax + 0x18], cx
  0x1a42	jne    	0x1a4a
  === BLOCK LINK ===
    0x1a44
=== CODE BLOCK END ===

=== CODE BLOCK ADDRESS 0x1a44 ===
  0x1a44	mov    	eax, 1
  0x1a49	ret    	
  0x1a4a	xor    	eax, eax
  0x1a4c	ret    	
  0x1a4d	int3   	
  === BLOCK LINK ===
    0x1a4e
=== CODE BLOCK END ===

=== CODE BLOCK ADDRESS 0x1a4e ===
  0x1a4e	int3   	
  0x1a4f	int3   	
  0x1a50	int3   	
  0x1a51	int3   	
  0x1a52	int3   	
  === BLOCK LINK ===
    0x1a53
=== CODE BLOCK END ===

=== CODE BLOCK ADDRESS 0x1a53 ===
  0x1a53	int3   	
  0x1a54	dec    	eax
  0x1a55	mov    	dword ptr [esp + 0x20], ebx
  0x1a59	push   	ebp
  0x1a5a	dec    	eax
  === BLOCK LINK ===
    0x1a5b
=== CODE BLOCK END ===

=== CODE BLOCK ADDRESS 0x1a5b ===
  0x1a5b	mov    	ebp, esp
  0x1a5d	dec    	eax
  0x1a5e	sub    	esp, 0x20
  0x1a61	dec    	eax
  0x1a62	and    	dword ptr [ebp + 0x18], 0
  === BLOCK LINK ===
    0x1a66
=== CODE BLOCK END ===

=== CODE BLOCK ADDRESS 0x1a66 ===
  0x1a66	dec    	eax
  0x1a67	mov    	ebx, 0x2ddfa232
  0x1a6c	cdq    	
  0x1a6d	sub    	eax, dword ptr [eax]
  0x1a6f	add    	byte ptr [eax - 0x75], cl
  === BLOCK LINK ===
    0x1a72
=== CODE BLOCK END ===

=== CODE BLOCK ADDRESS 0x1a72 ===
  0x1a72	add    	eax, 0x1591
  0x1a77	dec    	eax
  0x1a78	cmp    	eax, ebx
  0x1a7a	jne    	0x1b13
  === BLOCK LINK ===
    0x1a80
=== CODE BLOCK END ===

=== CODE BLOCK ADDRESS 0x1a80 ===
  0x1a80	dec    	eax
  0x1a81	lea    	ecx, [ebp + 0x18]
  0x1a84	call   	dword ptr [0x74e]
  === BLOCK LINK ===
    0x1a8a
=== CODE BLOCK END ===

=== CODE BLOCK ADDRESS 0x1a8a ===
  0x1a8a	dec    	eax
  0x1a8b	mov    	eax, dword ptr [ebp + 0x18]
  0x1a8e	dec    	eax
  0x1a8f	mov    	dword ptr [ebp + 0x10], eax
  0x1a92	call   	dword ptr [0x6f8]
  === BLOCK LINK ===
    0x1a98
=== CODE BLOCK END ===

=== CODE BLOCK ADDRESS 0x1a98 ===
  0x1a98	mov    	eax, eax
  0x1a9a	dec    	eax
  0x1a9b	xor    	dword ptr [ebp + 0x10], eax
  0x1a9e	call   	dword ptr [0x75c]
  === BLOCK LINK ===
    0x1aa4
=== CODE BLOCK END ===

=== CODE BLOCK ADDRESS 0x1aa4 ===
  0x1aa4	mov    	eax, eax
  0x1aa6	dec    	eax
  0x1aa7	xor    	dword ptr [ebp + 0x10], eax
  0x1aaa	call   	dword ptr [0x730]
  === BLOCK LINK ===
    0x1ab0
=== CODE BLOCK END ===

=== CODE BLOCK ADDRESS 0x1ab0 ===
  0x1ab0	mov    	eax, eax
  0x1ab2	dec    	eax
  0x1ab3	shl    	eax, 0x18
  0x1ab6	dec    	eax
  0x1ab7	xor    	dword ptr [ebp + 0x10], eax
  === BLOCK LINK ===
    0x1aba
=== CODE BLOCK END ===

=== CODE BLOCK ADDRESS 0x1aba ===
  0x1aba	call   	dword ptr [0x720]
  === BLOCK LINK ===
    0x1ac0
=== CODE BLOCK END ===

=== CODE BLOCK ADDRESS 0x1ac0 ===
  0x1ac0	mov    	eax, eax
  0x1ac2	dec    	eax
  0x1ac3	lea    	ecx, [ebp + 0x10]
  0x1ac6	dec    	eax
  0x1ac7	xor    	eax, dword ptr [ebp + 0x10]
  === BLOCK LINK ===
    0x1aca
=== CODE BLOCK END ===

=== CODE BLOCK ADDRESS 0x1aca ===
  0x1aca	dec    	eax
  0x1acb	xor    	eax, ecx
  0x1acd	dec    	eax
  0x1ace	lea    	ecx, [ebp + 0x20]
  0x1ad1	dec    	eax
  === BLOCK LINK ===
    0x1ad2
=== CODE BLOCK END ===

=== CODE BLOCK ADDRESS 0x1ad2 ===
  0x1ad2	mov    	dword ptr [ebp + 0x10], eax
  0x1ad5	call   	dword ptr [0x6d5]
  === BLOCK LINK ===
    0x1adb
=== CODE BLOCK END ===

=== CODE BLOCK ADDRESS 0x1adb ===
  0x1adb	mov    	eax, dword ptr [ebp + 0x20]
  0x1ade	dec    	eax
  0x1adf	mov    	ecx, 0xffffffff
  0x1ae4	.byte  	0xff
  0x1ae5	inc    	dword ptr [eax]
  === BLOCK LINK ===
    0x1ae7
=== CODE BLOCK END ===

=== CODE BLOCK ADDRESS 0x1ae7 ===
  0x1ae7	add    	byte ptr [eax - 0x3f], cl
  0x1aea	loopne  	0x1b0c
  === BLOCK LINK ===
    0x1aec
=== CODE BLOCK END ===

=== CODE BLOCK ADDRESS 0x1aec ===
  0x1aec	dec    	eax
  0x1aed	xor    	eax, dword ptr [ebp + 0x20]
  0x1af0	dec    	eax
  0x1af1	xor    	eax, dword ptr [ebp + 0x10]
  0x1af4	dec    	eax
  === BLOCK LINK ===
    0x1af5
=== CODE BLOCK END ===

=== CODE BLOCK ADDRESS 0x1af5 ===
  0x1af5	and    	eax, ecx
  0x1af7	dec    	eax
  0x1af8	mov    	ecx, eax
  0x1afa	dec    	eax
  0x1afb	cmp    	eax, ebx
  === BLOCK LINK ===
    0x1afd
=== CODE BLOCK END ===

=== CODE BLOCK ADDRESS 0x1afd ===
  0x1afd	jne    	0x1b0c
  === BLOCK LINK ===
    0x1aff
=== CODE BLOCK END ===

=== CODE BLOCK ADDRESS 0x1aff ===
  0x1aff	dec    	eax
  0x1b00	mov    	eax, 0x2ddfa233
  0x1b05	cdq    	
  0x1b06	sub    	eax, dword ptr [eax]
  0x1b08	add    	byte ptr [eax - 0x75], cl
  === BLOCK LINK ===
    0x1b0b
=== CODE BLOCK END ===

=== CODE BLOCK ADDRESS 0x1b0b ===
  0x1b0b	enter  	-0x76b8, 0xd
  0x1b0f	cmc    	
  0x1b10	adc    	al, 0
  0x1b12	add    	byte ptr [eax - 0x75], cl
  0x1b15	pop    	esp
  === BLOCK LINK ===
    0x1b16
=== CODE BLOCK END ===

=== CODE BLOCK ADDRESS 0x1b16 ===
  0x1b16	and    	al, 0x48
  0x1b18	dec    	eax
  0x1b19	not    	eax
  0x1b1b	dec    	eax
  0x1b1c	mov    	dword ptr [0x14ee], eax
  === BLOCK LINK ===
    0x1b22
=== CODE BLOCK END ===

=== CODE BLOCK ADDRESS 0x1b22 ===
  0x1b22	dec    	eax
  0x1b23	add    	esp, 0x20
  0x1b26	pop    	ebp
  0x1b27	ret    	
  0x1b28	int3   	
  === BLOCK LINK ===
    0x1b29
=== CODE BLOCK END ===

=== CODE BLOCK ADDRESS 0x1b29 ===
  0x1b29	int3   	
  0x1b2a	int3   	
  0x1b2b	int3   	
  0x1b2c	int3   	
  0x1b2d	int3   	
  === BLOCK LINK ===
    0x1b2e
=== CODE BLOCK END ===

=== CODE BLOCK ADDRESS 0x1b2e ===
  0x1b2e	jmp    	dword ptr [0x754]
  === BLOCK LINK ===
    0x1b34
=== CODE BLOCK END ===

=== CODE BLOCK ADDRESS 0x1b34 ===
  0x1b34	int3   	
  0x1b35	int3   	
  0x1b36	int3   	
  0x1b37	int3   	
  0x1b38	int3   	
  === BLOCK LINK ===
    0x1b39
=== CODE BLOCK END ===

=== CODE BLOCK ADDRESS 0x1b39 ===
  0x1b39	int3   	
  0x1b3a	jmp    	dword ptr [0x718]
  === BLOCK LINK ===
    0x1b40
=== CODE BLOCK END ===

=== CODE BLOCK ADDRESS 0x1b40 ===
  0x1b40	int3   	
  0x1b41	int3   	
  0x1b42	int3   	
  0x1b43	int3   	
  0x1b44	int3   	
  === BLOCK LINK ===
    0x1b45
=== CODE BLOCK END ===

=== CODE BLOCK ADDRESS 0x1b45 ===
  0x1b45	int3   	
  0x1b46	int3   	
  0x1b47	int3   	
  0x1b48	int3   	
  0x1b49	int3   	
  === BLOCK LINK ===
    0x1b4a
=== CODE BLOCK END ===

=== CODE BLOCK ADDRESS 0x1b4a ===
  0x1b4a	int3   	
  0x1b4b	int3   	
  0x1b4c	int3   	
  0x1b4d	int3   	
  0x1b4e	int3   	
  === BLOCK LINK ===
    0x1b4f
=== CODE BLOCK END ===

=== CODE BLOCK ADDRESS 0x1b4f ===
  0x1b4f	int3   	
  0x1b50	ret    	0
  0x1b53	int3   	
  0x1b54	int3   	
  0x1b55	int3   	
  === BLOCK LINK ===
    0x1b56
=== CODE BLOCK END ===

=== CODE BLOCK ADDRESS 0x1d26 ===
=== CODE BLOCK END ===

=== CODE BLOCK ADDRESS 0x1b56 ===
  0x1b56	int3   	
  0x1b57	int3   	
  0x1b58	int3   	
  0x1b59	int3   	
  0x1b5a	int3   	
  === BLOCK LINK ===
    0x1b5b
=== CODE BLOCK END ===

=== CODE BLOCK ADDRESS 0x1b5b ===
  0x1b5b	int3   	
  0x1b5c	inc    	eax
  0x1b5d	push   	ebx
  0x1b5e	dec    	eax
  0x1b5f	sub    	esp, 0x20
  === BLOCK LINK ===
    0x1b62
=== CODE BLOCK END ===

=== CODE BLOCK ADDRESS 0x1b62 ===
  0x1b62	dec    	eax
  0x1b63	mov    	ebx, ecx
  0x1b65	xor    	ecx, ecx
  0x1b67	call   	dword ptr [0x653]
  === BLOCK LINK ===
    0x1b6d
=== CODE BLOCK END ===

=== CODE BLOCK ADDRESS 0x1b6d ===
  0x1b6d	dec    	eax
  0x1b6e	mov    	ecx, ebx
  0x1b70	call   	dword ptr [0x672]
  === BLOCK LINK ===
    0x1b76
=== CODE BLOCK END ===

=== CODE BLOCK ADDRESS 0x1b76 ===
  0x1b76	call   	dword ptr [0x674]
  === BLOCK LINK ===
    0x1b7c
=== CODE BLOCK END ===

=== CODE BLOCK ADDRESS 0x1b7c ===
  0x1b7c	dec    	eax
  0x1b7d	mov    	ecx, eax
  0x1b7f	mov    	edx, 0xc0000409
  0x1b84	dec    	eax
  0x1b85	add    	esp, 0x20
  === BLOCK LINK ===
    0x1b88
=== CODE BLOCK END ===

=== CODE BLOCK ADDRESS 0x1b88 ===
  0x1b88	pop    	ebx
  0x1b89	dec    	eax
  0x1b8a	jmp    	dword ptr [0x668]
  === BLOCK LINK ===
    0x1b90
=== CODE BLOCK END ===

=== CODE BLOCK ADDRESS 0x1b90 ===
  0x1b90	int3   	
  0x1b91	int3   	
  0x1b92	int3   	
  0x1b93	int3   	
  0x1b94	int3   	
  === BLOCK LINK ===
    0x1b95
=== CODE BLOCK END ===

=== CODE BLOCK ADDRESS 0x1b95 ===
  0x1b95	int3   	
  0x1b96	int3   	
  0x1b97	int3   	
  0x1b98	int3   	
  0x1b99	int3   	
  === BLOCK LINK ===
    0x1b9a
=== CODE BLOCK END ===

=== CODE BLOCK ADDRESS 0x1b9a ===
  0x1b9a	int3   	
  0x1b9b	int3   	
  0x1b9c	int3   	
  0x1b9d	int3   	
  0x1b9e	int3   	
  === BLOCK LINK ===
    0x1b9f
=== CODE BLOCK END ===

=== CODE BLOCK ADDRESS 0x1b9f ===
  0x1b9f	int3   	
  0x1ba0	dec    	eax
  0x1ba1	mov    	dword ptr [esp + 8], ecx
  0x1ba5	dec    	eax
  0x1ba6	sub    	esp, 0x88
  === BLOCK LINK ===
    0x1bac
=== CODE BLOCK END ===

=== CODE BLOCK ADDRESS 0x1bac ===
  0x1bac	dec    	eax
  0x1bad	lea    	ecx, [0x154d]
  0x1bb3	call   	dword ptr [0x70f]
  === BLOCK LINK ===
    0x1bb9
=== CODE BLOCK END ===

=== CODE BLOCK ADDRESS 0x1bb9 ===
  0x1bb9	dec    	eax
  0x1bba	mov    	eax, dword ptr [0x1638]
  0x1bc0	dec    	eax
  0x1bc1	mov    	dword ptr [esp + 0x48], eax
  0x1bc5	inc    	ebp
  === BLOCK LINK ===
    0x1bc6
=== CODE BLOCK END ===

=== CODE BLOCK ADDRESS 0x1bc6 ===
  0x1bc6	xor    	eax, eax
  0x1bc8	dec    	eax
  0x1bc9	lea    	edx, [esp + 0x50]
  0x1bcd	dec    	eax
  0x1bce	mov    	ecx, dword ptr [esp + 0x48]
  === BLOCK LINK ===
    0x1bd2
=== CODE BLOCK END ===

=== CODE BLOCK ADDRESS 0x1bd2 ===
  0x1bd2	call   	dword ptr [0x6f8]
  === BLOCK LINK ===
    0x1bd8
=== CODE BLOCK END ===

=== CODE BLOCK ADDRESS 0x1bd8 ===
  0x1bd8	dec    	eax
  0x1bd9	mov    	dword ptr [esp + 0x40], eax
  0x1bdd	dec    	eax
  0x1bde	cmp    	dword ptr [esp + 0x40], 0
  0x1be3	je     	0x1c27
  === BLOCK LINK ===
    0x1be5
=== CODE BLOCK END ===

=== CODE BLOCK ADDRESS 0x1be5 ===
  0x1be5	dec    	eax
  0x1be6	mov    	dword ptr [esp + 0x38], 0
  0x1bee	dec    	eax
  0x1bef	lea    	eax, [esp + 0x58]
  0x1bf3	dec    	eax
  === BLOCK LINK ===
    0x1bf4
=== CODE BLOCK END ===

=== CODE BLOCK ADDRESS 0x1bf4 ===
  0x1bf4	mov    	dword ptr [esp + 0x30], eax
  0x1bf8	dec    	eax
  0x1bf9	lea    	eax, [esp + 0x60]
  0x1bfd	dec    	eax
  0x1bfe	mov    	dword ptr [esp + 0x28], eax
  === BLOCK LINK ===
    0x1c02
=== CODE BLOCK END ===

=== CODE BLOCK ADDRESS 0x1c02 ===
  0x1c02	dec    	eax
  0x1c03	lea    	eax, [0x14f7]
  0x1c09	dec    	eax
  0x1c0a	mov    	dword ptr [esp + 0x20], eax
  0x1c0e	dec    	esp
  === BLOCK LINK ===
    0x1c0f
=== CODE BLOCK END ===

=== CODE BLOCK ADDRESS 0x1c0f ===
  0x1c0f	mov    	ecx, dword ptr [esp + 0x40]
  0x1c13	dec    	esp
  0x1c14	mov    	eax, dword ptr [esp + 0x48]
  0x1c18	dec    	eax
  0x1c19	mov    	edx, dword ptr [esp + 0x50]
  === BLOCK LINK ===
    0x1c1d
=== CODE BLOCK END ===

=== CODE BLOCK ADDRESS 0x1c1d ===
  0x1c1d	xor    	ecx, ecx
  0x1c1f	call   	dword ptr [0x6b3]
  === BLOCK LINK ===
    0x1c25
=== CODE BLOCK END ===

=== CODE BLOCK ADDRESS 0x1c25 ===
  0x1c25	jmp    	0x1c4a
  === BLOCK LINK ===
    0x1c27
=== CODE BLOCK END ===

=== CODE BLOCK ADDRESS 0x1c27 ===
  0x1c27	dec    	eax
  0x1c28	mov    	eax, dword ptr [0x156a]
  0x1c2e	dec    	eax
  0x1c2f	mov    	eax, dword ptr [eax]
  0x1c31	dec    	eax
  === BLOCK LINK ===
    0x1c32
=== CODE BLOCK END ===

=== CODE BLOCK ADDRESS 0x1c32 ===
  0x1c32	mov    	dword ptr [0x15c0], eax
  0x1c38	dec    	eax
  0x1c39	mov    	eax, dword ptr [0x1559]
  0x1c3f	dec    	eax
  0x1c40	add    	eax, 8
  === BLOCK LINK ===
    0x1c43
=== CODE BLOCK END ===

=== CODE BLOCK ADDRESS 0x1c43 ===
  0x1c43	dec    	eax
  0x1c44	mov    	dword ptr [0x154e], eax
  0x1c4a	dec    	eax
  0x1c4b	mov    	eax, dword ptr [0x15a7]
  0x1c51	dec    	eax
  === BLOCK LINK ===
    0x1c52
=== CODE BLOCK END ===

=== CODE BLOCK ADDRESS 0x1c52 ===
  0x1c52	mov    	dword ptr [0x1418], eax
  0x1c58	dec    	eax
  0x1c59	mov    	eax, dword ptr [esp + 0x90]
  0x1c60	dec    	eax
  0x1c61	mov    	dword ptr [0x1519], eax
  === BLOCK LINK ===
    0x1c67
=== CODE BLOCK END ===

=== CODE BLOCK ADDRESS 0x1c67 ===
  0x1c67	mov    	dword ptr [0x13ef], 0xc0000409
  0x1c71	mov    	dword ptr [0x13e9], 1
  0x1c7b	mov    	dword ptr [0x13f3], 3
  0x1c85	mov    	eax, 8
  0x1c8a	dec    	eax
  === BLOCK LINK ===
    0x1c8b
=== CODE BLOCK END ===

=== CODE BLOCK ADDRESS 0x1c8b ===
  0x1c8b	imul   	eax, eax, 0
  0x1c8e	dec    	eax
  0x1c8f	lea    	ecx, [0x13eb]
  0x1c95	dec    	eax
  0x1c96	mov    	dword ptr [ecx + eax], 2
  === BLOCK LINK ===
    0x1c9d
=== CODE BLOCK END ===

=== CODE BLOCK ADDRESS 0x1c9d ===
  0x1c9d	mov    	eax, 8
  0x1ca2	dec    	eax
  0x1ca3	imul   	eax, eax, 1
  0x1ca6	dec    	eax
  0x1ca7	lea    	ecx, [0x13d3]
  === BLOCK LINK ===
    0x1cad
=== CODE BLOCK END ===

=== CODE BLOCK ADDRESS 0x1cad ===
  0x1cad	dec    	eax
  0x1cae	mov    	edx, dword ptr [0x1354]
  0x1cb4	dec    	eax
  0x1cb5	mov    	dword ptr [ecx + eax], edx
  0x1cb8	mov    	eax, 8
  === BLOCK LINK ===
    0x1cbd
=== CODE BLOCK END ===

=== CODE BLOCK ADDRESS 0x1cbd ===
  0x1cbd	dec    	eax
  0x1cbe	imul   	eax, eax, 2
  0x1cc1	dec    	eax
  0x1cc2	lea    	ecx, [0x13b8]
  0x1cc8	dec    	eax
  === BLOCK LINK ===
    0x1cc9
=== CODE BLOCK END ===

=== CODE BLOCK ADDRESS 0x1cc9 ===
  0x1cc9	mov    	edx, dword ptr [0x1341]
  0x1ccf	dec    	eax
  0x1cd0	mov    	dword ptr [ecx + eax], edx
  0x1cd3	mov    	eax, 8
  0x1cd8	dec    	eax
  === BLOCK LINK ===
    0x1cd9
=== CODE BLOCK END ===

=== CODE BLOCK ADDRESS 0x1cd9 ===
  0x1cd9	imul   	eax, eax, 0
  0x1cdc	dec    	eax
  0x1cdd	mov    	ecx, dword ptr [0x1325]
  0x1ce3	dec    	eax
  0x1ce4	mov    	dword ptr [esp + eax + 0x68], ecx
  === BLOCK LINK ===
    0x1ce8
=== CODE BLOCK END ===

=== CODE BLOCK ADDRESS 0x1ce8 ===
  0x1ce8	mov    	eax, 8
  0x1ced	dec    	eax
  0x1cee	imul   	eax, eax, 1
  0x1cf1	dec    	eax
  0x1cf2	mov    	ecx, dword ptr [0x1318]
  === BLOCK LINK ===
    0x1cf8
=== CODE BLOCK END ===

=== CODE BLOCK ADDRESS 0x1cf8 ===
  0x1cf8	dec    	eax
  0x1cf9	mov    	dword ptr [esp + eax + 0x68], ecx
  0x1cfd	dec    	eax
  0x1cfe	lea    	ecx, [0x2fc]
  0x1d04	call   	0x1b5c
  === BLOCK LINK ===
    0x1d09
=== CODE BLOCK END ===

=== CODE BLOCK ADDRESS 0x1d09 ===
  0x1d09	dec    	eax
  0x1d0a	add    	esp, 0x88
  0x1d10	ret    	
  0x1d11	int3   	
  0x1d12	int3   	
  === BLOCK LINK ===
    0x1d13
=== CODE BLOCK END ===

=== CODE BLOCK ADDRESS 0x1d13 ===
  0x1d13	int3   	
  0x1d14	int3   	
  0x1d15	int3   	
  0x1d16	int3   	
  0x1d17	int3   	
  === BLOCK LINK ===
    0x1d18
=== CODE BLOCK END ===

=== CODE BLOCK ADDRESS 0x1d18 ===
  0x1d18	int3   	
  0x1d19	int3   	
  0x1d1a	int3   	
  0x1d1b	int3   	
  0x1d1c	int3   	
  === BLOCK LINK ===
    0x1d1d
=== CODE BLOCK END ===

=== CODE BLOCK ADDRESS 0x1d1d ===
  0x1d1d	int3   	
  0x1d1e	int3   	
  0x1d1f	int3   	
  0x1d20	int3   	
  0x1d21	int3   	
  === BLOCK LINK ===
    0x1d22
=== CODE BLOCK END ===

=== CODE BLOCK ADDRESS 0x1d22 ===
  0x1d22	int3   	
  0x1d23	int3   	
  0x1d24	int3   	
  0x1d25	int3   	
  0x1d26	jmp    	dword ptr [0x58c]
  === BLOCK LINK ===
    0x1d2c
=== CODE BLOCK END ===

=== CODE BLOCK ADDRESS 0x1d2c ===
  0x1d2c	int3   	
  0x1d2d	int3   	
  0x1d2e	int3   	
  0x1d2f	int3   	
  0x1d30	int3   	
  === BLOCK LINK ===
    0x1d31
=== CODE BLOCK END ===

=== CODE BLOCK ADDRESS 0x1d31 ===
  0x1d31	int3   	
  0x1d32	int3   	
  0x1d33	int3   	
  0x1d34	int3   	
  0x1d35	int3   	
  === BLOCK LINK ===
    0x1d36
=== CODE BLOCK END ===

=== CODE BLOCK ADDRESS 0x1d36 ===
  0x1d36	nop    	word ptr [eax + eax]
  0x1d40	jmp    	eax
  === BLOCK LINK ===
    0x1d42
=== CODE BLOCK END ===

=== CODE BLOCK ADDRESS 0x1d42 ===
  0x1d42	int3   	
  0x1d43	int3   	
  0x1d44	int3   	
  0x1d45	int3   	
  0x1d46	int3   	
  === BLOCK LINK ===
    0x1d47
=== CODE BLOCK END ===

=== CODE BLOCK ADDRESS 0x1d47 ===
  0x1d47	int3   	
  0x1d48	int3   	
  0x1d49	int3   	
  0x1d4a	int3   	
  0x1d4b	int3   	
  === BLOCK LINK ===
    0x1d4c
=== CODE BLOCK END ===

=== CODE BLOCK ADDRESS 0x1d4c ===
  0x1d4c	int3   	
  0x1d4d	int3   	
  0x1d4e	int3   	
  0x1d4f	int3   	
  0x1d50	inc    	eax
  === BLOCK LINK ===
    0x1d51
=== CODE BLOCK END ===

=== CODE BLOCK ADDRESS 0x1d51 ===
  0x1d51	push   	ebp
  0x1d52	dec    	eax
  0x1d53	sub    	esp, 0x20
  0x1d56	dec    	eax
  0x1d57	mov    	ebp, edx
  === BLOCK LINK ===
    0x1d59
=== CODE BLOCK END ===

=== CODE BLOCK ADDRESS 0x1d59 ===
  0x1d59	dec    	eax
  0x1d5a	mov    	eax, dword ptr [ecx]
  0x1d5c	dec    	eax
  0x1d5d	mov    	edx, ecx
  0x1d5f	mov    	ecx, dword ptr [eax]
  === BLOCK LINK ===
    0x1d61
=== CODE BLOCK END ===

=== CODE BLOCK ADDRESS 0x1d61 ===
  0x1d61	call   	0x189e
  === BLOCK LINK ===
    0x1d66
=== CODE BLOCK END ===

=== CODE BLOCK ADDRESS 0x1d66 ===
  0x1d66	nop    	
  0x1d67	dec    	eax
  0x1d68	add    	esp, 0x20
  0x1d6b	pop    	ebp
  0x1d6c	ret    	
  === BLOCK LINK ===
    0x1d6d
=== CODE BLOCK END ===

=== CODE BLOCK ADDRESS 0x1d6d ===
  0x1d6d	int3   	
  0x1d6e	int3   	
  0x1d6f	int3   	
  0x1d70	int3   	
  0x1d71	int3   	
  === BLOCK LINK ===
    0x1d72
=== CODE BLOCK END ===

=== CODE BLOCK ADDRESS 0x1d72 ===
  0x1d72	int3   	
  0x1d73	int3   	
  0x1d74	int3   	
  0x1d75	int3   	
  0x1d76	int3   	
  === BLOCK LINK ===
    0x1d77
=== CODE BLOCK END ===

=== CODE BLOCK ADDRESS 0x1d77 ===
  0x1d77	int3   	
  0x1d78	int3   	
  0x1d79	int3   	
  0x1d7a	int3   	
  0x1d7b	int3   	
  === BLOCK LINK ===
    0x1d7c
=== CODE BLOCK END ===

=== CODE BLOCK ADDRESS 0x1d7c ===
  0x1d7c	int3   	
  0x1d7d	int3   	
  0x1d7e	int3   	
  0x1d7f	int3   	
  0x1d80	inc    	eax
  === BLOCK LINK ===
    0x1d81
=== CODE BLOCK END ===

=== CODE BLOCK ADDRESS 0x1d81 ===
  0x1d81	push   	ebp
  0x1d82	dec    	eax
  0x1d83	sub    	esp, 0x20
  0x1d86	dec    	eax
  0x1d87	mov    	ebp, edx
  === BLOCK LINK ===
    0x1d89
=== CODE BLOCK END ===

=== CODE BLOCK ADDRESS 0x1d89 ===
  0x1d89	dec    	eax
  0x1d8a	mov    	eax, dword ptr [ecx]
  0x1d8c	xor    	ecx, ecx
  0x1d8e	cmp    	dword ptr [eax], 0xc0000005
  0x1d94	sete   	cl
  === BLOCK LINK ===
    0x1d97
=== CODE BLOCK END ===

=== CODE BLOCK ADDRESS 0x1d97 ===
  0x1d97	mov    	eax, ecx
  0x1d99	dec    	eax
  0x1d9a	add    	esp, 0x20
  0x1d9d	pop    	ebp
  0x1d9e	ret    	
  === BLOCK LINK ===
    0x1d9f
=== CODE BLOCK END ===

=== CODE BLOCK ADDRESS 0x1d9f ===
  0x1d9f	int3   	
  0x1da0	add    	byte ptr [eax], al
  0x1da2	add    	byte ptr [eax], al
  0x1da4	add    	byte ptr [eax], al
  0x1da6	add    	byte ptr [eax], al
  === BLOCK LINK ===
    0x1da8
=== CODE BLOCK END ===

=== CODE BLOCK ADDRESS 0x1da8 ===
  0x1da8	add    	byte ptr [eax], al
  0x1daa	add    	byte ptr [eax], al
  0x1dac	add    	byte ptr [eax], al
  0x1dae	add    	byte ptr [eax], al
  0x1db0	add    	byte ptr [eax], al
  === BLOCK LINK ===
    0x1db2
=== CODE BLOCK END ===

=== CODE BLOCK ADDRESS 0x1db2 ===
  0x1db2	add    	byte ptr [eax], al
  0x1db4	add    	byte ptr [eax], al
  0x1db6	add    	byte ptr [eax], al
  0x1db8	add    	byte ptr [eax], al
  0x1dba	add    	byte ptr [eax], al
  === BLOCK LINK ===
    0x1dbc
=== CODE BLOCK END ===

=== CODE BLOCK ADDRESS 0x1dbc ===
  0x1dbc	add    	byte ptr [eax], al
  0x1dbe	add    	byte ptr [eax], al
  0x1dc0	add    	byte ptr [eax], al
  0x1dc2	add    	byte ptr [eax], al
  0x1dc4	add    	byte ptr [eax], al
  === BLOCK LINK ===
    0x1dc6
=== CODE BLOCK END ===

=== CODE BLOCK ADDRESS 0x1dc6 ===
  0x1dc6	add    	byte ptr [eax], al
  0x1dc8	add    	byte ptr [eax], al
  0x1dca	add    	byte ptr [eax], al
  0x1dcc	add    	byte ptr [eax], al
  0x1dce	add    	byte ptr [eax], al
  === BLOCK LINK ===
    0x1dd0
=== CODE BLOCK END ===

=== CODE BLOCK ADDRESS 0x1dd0 ===
  0x1dd0	add    	byte ptr [eax], al
  0x1dd2	add    	byte ptr [eax], al
  0x1dd4	add    	byte ptr [eax], al
  0x1dd6	add    	byte ptr [eax], al
  0x1dd8	add    	byte ptr [eax], al
  === BLOCK LINK ===
    0x1dda
=== CODE BLOCK END ===

=== CODE BLOCK ADDRESS 0x1dda ===
  0x1dda	add    	byte ptr [eax], al
  0x1ddc	add    	byte ptr [eax], al
  0x1dde	add    	byte ptr [eax], al
  0x1de0	add    	byte ptr [eax], al
  0x1de2	add    	byte ptr [eax], al
  === BLOCK LINK ===
    0x1de4
=== CODE BLOCK END ===

=== CODE BLOCK ADDRESS 0x1de4 ===
  0x1de4	add    	byte ptr [eax], al
  0x1de6	add    	byte ptr [eax], al
  0x1de8	add    	byte ptr [eax], al
  0x1dea	add    	byte ptr [eax], al
  0x1dec	add    	byte ptr [eax], al
  === BLOCK LINK ===
    0x1dee
=== CODE BLOCK END ===

=== CODE BLOCK ADDRESS 0x1dee ===
  0x1dee	add    	byte ptr [eax], al
  0x1df0	add    	byte ptr [eax], al
  0x1df2	add    	byte ptr [eax], al
  0x1df4	add    	byte ptr [eax], al
  0x1df6	add    	byte ptr [eax], al
  === BLOCK LINK ===
    0x1df8
=== CODE BLOCK END ===

=== CODE BLOCK ADDRESS 0x1df8 ===
  0x1df8	add    	byte ptr [eax], al
  0x1dfa	add    	byte ptr [eax], al
  0x1dfc	add    	byte ptr [eax], al
=== CODE BLOCK END ===

=== DATA BLOCK ADDRESS 0x2000 ===
  0x2000	60 30 00 40 01 00 00 00 00 31 00 40 01 00 00 00 	`00@0000010@0000
  0x2010	18 01 00 00 00 00 00 00 00 00 00 00 00 00 00 00 	0000000000000000
  0x2020	00 00 00 00 00 00 00 00 00 00 00 00 00 00 00 00 	0000000000000000
  0x2030	00 00 00 00 00 00 00 00 00 00 00 00 00 00 00 00 	0000000000000000
  0x2040	00 00 00 00 00 00 00 00 00 00 00 00 00 00 00 00 	0000000000000000
  0x2050	00 00 00 00 00 00 00 00 00 00 00 00 00 00 00 00 	0000000000000000
  0x2060	00 00 00 00 00 00 00 00 08 30 00 40 01 00 00 00 	00000000000@0000
  0x2070	00 00 00 00 00 00 00 00 00 00 00 00 00 00 00 00 	0000000000000000
  0x2080	e8 22 00 40 01 00 00 00 f0 22 00 40 01 00 00 00 	0"0@00000"0@0000
  0x2090	3c 23 00 40 01 00 00 00 08 00 00 00 00 00 00 00 	<#0@000000000000
  0x20a0	00 75 41 00 00 00 00 00 00 00 00 00 00 00 00 00 	0uA0000000000000
  0x20b0	5c 23 00 40 01 00 00 00 01 00 00 00 00 00 00 00 	0#0@000000000000
  0x20c0	00 00 00 00 00 00 00 00 00 00 00 00 00 00 00 00 	0000000000000000
  0x20d0	00 00 00 00 00 00 00 00 00 00 00 00 00 00 00 00 	0000000000000000
  0x20e0	00 00 00 00 00 00 00 00 00 00 00 00 00 00 00 00 	0000000000000000
  0x20f0	00 00 00 00 00 00 00 00 00 00 00 00 00 00 00 00 	0000000000000000
  0x2100	00 00 00 00 00 00 00 00 00 00 00 00 00 00 00 00 	0000000000000000
  0x2110	00 00 00 00 00 00 00 00 30 23 00 40 01 00 00 00 	000000000#0@0000
  0x2120	03 00 00 00 00 00 00 00 30 2a 00 00 00 00 00 00 	000000000*000000
  0x2130	44 2a 00 00 00 00 00 00 56 2a 00 00 00 00 00 00 	D*000000V*000000
  0x2140	66 2a 00 00 00 00 00 00 78 2a 00 00 00 00 00 00 	f*000000x*000000
  0x2150	8a 2a 00 00 00 00 00 00 9c 2a 00 00 00 00 00 00 	0*0000000*000000
  0x2160	00 00 00 00 00 00 00 00 2e 2b 00 00 00 00 00 00 	00000000.+000000
  0x2170	00 00 00 00 00 00 00 00 ea 2a 00 00 00 00 00 00 	000000000*000000
  0x2180	00 2b 00 00 00 00 00 00 12 2b 00 00 00 00 00 00 	0+0000000+000000
  0x2190	3a 2d 00 00 00 00 00 00 ca 2a 00 00 00 00 00 00 	:-0000000*000000
  0x21a0	b8 2a 00 00 00 00 00 00 da 2a 00 00 00 00 00 00 	0*0000000*000000
  0x21b0	20 2d 00 00 00 00 00 00 0c 2d 00 00 00 00 00 00 	 -0000000-000000
  0x21c0	ee 2c 00 00 00 00 00 00 dc 2c 00 00 00 00 00 00 	0,0000000,000000
  0x21d0	d4 2c 00 00 00 00 00 00 66 2d 00 00 00 00 00 00 	0,000000f-000000
  0x21e0	80 2d 00 00 00 00 00 00 90 2d 00 00 00 00 00 00 	0-0000000-000000
  0x21f0	ac 2d 00 00 00 00 00 00 c0 2d 00 00 00 00 00 00 	0-0000000-000000
  0x2200	50 2d 00 00 00 00 00 00 00 00 00 00 00 00 00 00 	P-00000000000000
  0x2210	58 2b 00 00 00 00 00 00 6a 2b 00 00 00 00 00 00 	X+000000j+000000
  0x2220	7c 2b 00 00 00 00 00 00 8c 2b 00 00 00 00 00 00 	|+0000000+000000
  0x2230	4a 2b 00 00 00 00 00 00 00 00 00 00 00 00 00 00 	J+00000000000000
  0x2240	52 2c 00 00 00 00 00 00 5c 2c 00 00 00 00 00 00 	R,0000000,000000
  0x2250	74 2c 00 00 00 00 00 00 30 2c 00 00 00 00 00 00 	t,0000000,000000
  0x2260	d2 2b 00 00 00 00 00 00 c4 2b 00 00 00 00 00 00 	0+0000000+000000
  0x2270	b6 2b 00 00 00 00 00 00 aa 2b 00 00 00 00 00 00 	0+0000000+000000
  0x2280	48 2c 00 00 00 00 00 00 24 2c 00 00 00 00 00 00 	H,000000$,000000
  0x2290	10 2c 00 00 00 00 00 00 06 2c 00 00 00 00 00 00 	0,0000000,000000
  0x22a0	fe 2b 00 00 00 00 00 00 f6 2b 00 00 00 00 00 00 	0+0000000+000000
  0x22b0	e4 2b 00 00 00 00 00 00 d4 2d 00 00 00 00 00 00 	0+0000000-000000
  0x22c0	00 00 00 00 00 00 00 00 88 2c 00 00 00 00 00 00 	000000000,000000
  0x22d0	9c 2c 00 00 00 00 00 00 b6 2c 00 00 00 00 00 00 	0,0000000,000000
  0x22e0	00 00 00 00 00 00 00 00 50 1b 00 40 01 00 00 00 	00000000P00@0000
  0x22f0	40 1d 00 40 01 00 00 00 00 00 00 00 00 00 00 00 	@00@000000000000
  0x2300	20 15 00 40 01 00 00 00 00 00 00 00 00 00 00 00 	 00@000000000000
  0x2310	00 00 00 00 00 00 00 00 40 14 00 40 01 00 00 00 	00000000@00@0000
  0x2320	80 18 00 40 01 00 00 00 00 00 00 00 00 00 00 00 	000@000000000000
  0x2330	89 17 00 00 f2 18 00 00 00 1a 00 00 40 14 00 00 	000000000000@000
  0x2340	20 15 00 00 e0 17 00 00 40 18 00 00 80 18 00 00 	 0000000@0000000
  0x2350	60 19 00 00 50 1b 00 00 a0 1b 00 00 28 22 00 00 	`000P0000000("00
  0x2360	00 00 00 00 00 00 00 00 00 00 00 00 00 00 00 00 	0000000000000000
  0x2370	53 00 6f 00 66 00 74 00 77 00 61 00 72 00 65 00 	S0o0f0t0w0a0r0e0
  0x2380	5c 00 4d 00 69 00 63 00 72 00 6f 00 73 00 6f 00 	00M0i0c0r0o0s0o0
  0x2390	66 00 74 00 5c 00 57 00 69 00 6e 00 64 00 6f 00 	f0t000W0i0n0d0o0
  0x23a0	77 00 73 00 5c 00 43 00 75 00 72 00 72 00 65 00 	w0s000C0u0r0r0e0
  0x23b0	6e 00 74 00 56 00 65 00 72 00 73 00 69 00 6f 00 	n0t0V0e0r0s0i0o0
  0x23c0	6e 00 5c 00 50 00 72 00 69 00 6e 00 74 00 65 00 	n000P0r0i0n0t0e0
  0x23d0	72 00 49 00 6e 00 73 00 74 00 61 00 6c 00 6c 00 	r0I0n0s0t0a0l0l0
  0x23e0	61 00 74 00 69 00 6f 00 6e 00 00 00 00 00 00 00 	a0t0i0o0n0000000
  0x23f0	55 00 49 00 45 00 6e 00 74 00 72 00 79 00 00 00 	U0I0E0n0t0r0y000
  0x2400	53 00 74 00 75 00 62 00 50 00 72 00 69 00 6e 00 	S0t0u0b0P0r0i0n0
  0x2410	74 00 57 00 69 00 6e 00 64 00 6f 00 77 00 00 00 	t0W0i0n0d0o0w000
  0x2420	70 00 72 00 69 00 6e 00 74 00 75 00 69 00 2e 00 	p0r0i0n0t0u0i0.0
  0x2430	64 00 6c 00 6c 00 00 00 50 72 69 6e 74 55 49 45 	d0l0l000PrintUIE
  0x2440	6e 74 72 79 57 00 00 00 00 00 00 00 00 00 00 00 	ntryW00000000000
  0x2450	00 00 00 00 30 09 73 41 00 00 00 00 02 00 00 00 	000000sA00000000
  0x2460	24 00 00 00 a4 24 00 00 a4 16 00 00 00 00 00 00 	$0000$0000000000
  0x2470	30 09 73 41 00 00 00 00 0d 00 00 00 14 02 00 00 	00sA000000000000
  0x2480	c8 24 00 00 c8 16 00 00 00 00 00 00 30 09 73 41 	0$000000000000sA
  0x2490	00 00 00 00 10 00 00 00 24 00 00 00 dc 26 00 00 	00000000$0000&00
  0x24a0	dc 18 00 00 52 53 44 53 66 92 d5 83 dd e7 3a b7 	0000RSDSf00000:0
  0x24b0	e8 a5 1d 6f e0 43 9f db 01 00 00 00 50 72 69 6e 	000o0C000000Prin
  0x24c0	74 55 49 2e 70 64 62 00 47 43 54 4c 00 10 00 00 	tUI.pdb0GCTL0000
  0x24d0	30 0d 00 00 2e 74 65 78 74 24 6d 6e 00 00 00 00 	0000.text$mn0000
  0x24e0	30 1d 00 00 20 00 00 00 2e 74 65 78 74 24 6d 6e 	0000 000.text$mn
  0x24f0	24 30 30 00 50 1d 00 00 50 00 00 00 2e 74 65 78 	$000P000P000.tex
  0x2500	74 24 78 00 00 20 00 00 28 01 00 00 2e 72 64 61 	t$x00 00(000.rda
  0x2510	74 61 24 62 72 63 00 00 28 21 00 00 c0 01 00 00 	ta$brc00(!000000
  0x2520	2e 69 64 61 74 61 24 35 00 00 00 00 e8 22 00 00 	.idata$500000"00
  0x2530	10 00 00 00 2e 30 30 63 66 67 00 00 f8 22 00 00 	0000.00cfg000"00
  0x2540	08 00 00 00 2e 43 52 54 24 58 43 41 00 00 00 00 	0000.CRT$XCA0000
  0x2550	00 23 00 00 08 00 00 00 2e 43 52 54 24 58 43 41 	0#000000.CRT$XCA
  0x2560	41 00 00 00 08 23 00 00 08 00 00 00 2e 43 52 54 	A0000#000000.CRT
  0x2570	24 58 43 5a 00 00 00 00 10 23 00 00 08 00 00 00 	$XCZ00000#000000
  0x2580	2e 43 52 54 24 58 49 41 00 00 00 00 18 23 00 00 	.CRT$XIA00000#00
  0x2590	08 00 00 00 2e 43 52 54 24 58 49 41 41 00 00 00 	0000.CRT$XIAA000
  0x25a0	20 23 00 00 08 00 00 00 2e 43 52 54 24 58 49 59 	 #000000.CRT$XIY
  0x25b0	00 00 00 00 28 23 00 00 08 00 00 00 2e 43 52 54 	0000(#000000.CRT
  0x25c0	24 58 49 5a 00 00 00 00 30 23 00 00 0c 00 00 00 	$XIZ00000#000000
  0x25d0	2e 67 65 68 63 6f 6e 74 00 00 00 00 3c 23 00 00 	.gehcont0000<#00
  0x25e0	20 00 00 00 2e 67 66 69 64 73 00 00 5c 23 00 00 	 000.gfids000#00
  0x25f0	04 00 00 00 2e 67 69 61 74 73 00 00 60 23 00 00 	0000.giats00`#00
  0x2600	44 01 00 00 2e 72 64 61 74 61 00 00 a4 24 00 00 	D000.rdata000$00
  0x2610	5c 02 00 00 2e 72 64 61 74 61 24 7a 7a 7a 64 62 	0000.rdata$zzzdb
  0x2620	67 00 00 00 00 27 00 00 e4 00 00 00 2e 78 64 61 	g0000'000000.xda
  0x2630	74 61 00 00 e4 27 00 00 78 00 00 00 2e 69 64 61 	ta000'00x000.ida
  0x2640	74 61 24 32 00 00 00 00 5c 28 00 00 14 00 00 00 	ta$200000(000000
  0x2650	2e 69 64 61 74 61 24 33 00 00 00 00 70 28 00 00 	.idata$30000p(00
  0x2660	c0 01 00 00 2e 69 64 61 74 61 24 34 00 00 00 00 	0000.idata$40000
  0x2670	30 2a 00 00 ae 03 00 00 2e 69 64 61 74 61 24 36 	0*000000.idata$6
  0x2680	00 00 00 00 00 30 00 00 20 00 00 00 2e 64 61 74 	00000000 000.dat
  0x2690	61 00 00 00 20 30 00 00 58 06 00 00 2e 62 73 73 	a000 000X000.bss
  0x26a0	00 00 00 00 00 40 00 00 d8 00 00 00 2e 70 64 61 	00000@000000.pda
  0x26b0	74 61 00 00 00 50 00 00 30 03 00 00 2e 72 73 72 	ta000P000000.rsr
  0x26c0	63 24 30 31 00 00 00 00 30 53 00 00 b8 cf 00 00 	c$0100000S000000
  0x26d0	2e 72 73 72 63 24 30 32 00 00 00 00 20 00 00 00 	.rsrc$020000 000
  0x26e0	66 92 d5 83 dd e7 3a b7 e8 a5 1d 6f e0 43 9f db 	f00000:0000o0C00
  0x26f0	f5 79 34 df 9f 06 95 c0 dd 26 77 3a 30 09 73 41 	0y4000000&w:00sA
  0x2700	01 0a 04 00 0a 34 06 00 0a 32 06 70 01 1f 0b 00 	00000400020p0000
  0x2710	1f 74 20 00 1f 64 1f 00 1f 34 1e 00 1f 01 1a 00 	0t 00d0004000000
  0x2720	14 f0 12 e0 10 50 00 00 01 04 01 00 04 42 00 00 	00000P0000000B00
  0x2730	01 04 01 00 04 62 00 00 09 1c 0b 00 1c e4 1b 00 	00000b0000000000
  0x2740	1c 74 1a 00 1c 64 19 00 1c 34 18 00 1c 01 16 00 	0t000d0004000000
  0x2750	15 f0 00 00 3a 1b 00 00 01 00 00 00 9f 15 00 00 	0000:00000000000
  0x2760	89 17 00 00 50 1d 00 00 89 17 00 00 01 06 02 00 	0000P00000000000
  0x2770	06 32 02 50 00 00 00 00 01 00 00 00 09 04 01 00 	020P000000000000
  0x2780	04 22 00 00 3a 1b 00 00 01 00 00 00 bc 18 00 00 	0"00:00000000000
  0x2790	f2 18 00 00 01 00 00 00 f2 18 00 00 01 06 02 00 	0000000000000000
  0x27a0	06 32 02 30 09 0a 04 00 0a 34 06 00 0a 32 06 70 	020000000400020p
  0x27b0	3a 1b 00 00 01 00 00 00 cd 19 00 00 00 1a 00 00 	:000000000000000
  0x27c0	80 1d 00 00 00 1a 00 00 01 0d 04 00 0d 34 09 00 	0000000000000400
  0x27d0	0d 32 06 50 01 0c 02 00 0c 01 11 00 00 00 00 00 	020P000000000000
  0x27e0	01 00 00 00 70 28 00 00 00 00 00 00 00 00 00 00 	0000p(0000000000
  0x27f0	aa 2a 00 00 28 21 00 00 c0 28 00 00 00 00 00 00 	0*00(!000(000000
  0x2800	00 00 00 00 20 2b 00 00 78 21 00 00 b0 28 00 00 	0000 +00x!000(00
  0x2810	00 00 00 00 00 00 00 00 40 2b 00 00 68 21 00 00 	00000000@+00h!00
  0x2820	58 29 00 00 00 00 00 00 00 00 00 00 9e 2b 00 00 	X)00000000000+00
  0x2830	10 22 00 00 88 29 00 00 00 00 00 00 00 00 00 00 	0"000)0000000000
  0x2840	68 2c 00 00 40 22 00 00 10 2a 00 00 00 00 00 00 	h,00@"000*000000
  0x2850	00 00 00 00 ca 2c 00 00 c8 22 00 00 00 00 00 00 	00000,000"000000
  0x2860	00 00 00 00 00 00 00 00 00 00 00 00 00 00 00 00 	0000000000000000
  0x2870	30 2a 00 00 00 00 00 00 44 2a 00 00 00 00 00 00 	0*000000D*000000
  0x2880	56 2a 00 00 00 00 00 00 66 2a 00 00 00 00 00 00 	V*000000f*000000
  0x2890	78 2a 00 00 00 00 00 00 8a 2a 00 00 00 00 00 00 	x*0000000*000000
  0x28a0	9c 2a 00 00 00 00 00 00 00 00 00 00 00 00 00 00 	0*00000000000000
  0x28b0	2e 2b 00 00 00 00 00 00 00 00 00 00 00 00 00 00 	.+00000000000000
  0x28c0	ea 2a 00 00 00 00 00 00 00 2b 00 00 00 00 00 00 	0*0000000+000000
  0x28d0	12 2b 00 00 00 00 00 00 3a 2d 00 00 00 00 00 00 	0+000000:-000000
  0x28e0	ca 2a 00 00 00 00 00 00 b8 2a 00 00 00 00 00 00 	0*0000000*000000
  0x28f0	da 2a 00 00 00 00 00 00 20 2d 00 00 00 00 00 00 	0*000000 -000000
  0x2900	0c 2d 00 00 00 00 00 00 ee 2c 00 00 00 00 00 00 	0-0000000,000000
  0x2910	dc 2c 00 00 00 00 00 00 d4 2c 00 00 00 00 00 00 	0,0000000,000000
  0x2920	66 2d 00 00 00 00 00 00 80 2d 00 00 00 00 00 00 	f-0000000-000000
  0x2930	90 2d 00 00 00 00 00 00 ac 2d 00 00 00 00 00 00 	0-0000000-000000
  0x2940	c0 2d 00 00 00 00 00 00 50 2d 00 00 00 00 00 00 	0-000000P-000000
  0x2950	00 00 00 00 00 00 00 00 58 2b 00 00 00 00 00 00 	00000000X+000000
  0x2960	6a 2b 00 00 00 00 00 00 7c 2b 00 00 00 00 00 00 	j+000000|+000000
  0x2970	8c 2b 00 00 00 00 00 00 4a 2b 00 00 00 00 00 00 	0+000000J+000000
  0x2980	00 00 00 00 00 00 00 00 52 2c 00 00 00 00 00 00 	00000000R,000000
  0x2990	5c 2c 00 00 00 00 00 00 74 2c 00 00 00 00 00 00 	0,000000t,000000
  0x29a0	30 2c 00 00 00 00 00 00 d2 2b 00 00 00 00 00 00 	0,0000000+000000
  0x29b0	c4 2b 00 00 00 00 00 00 b6 2b 00 00 00 00 00 00 	0+0000000+000000
  0x29c0	aa 2b 00 00 00 00 00 00 48 2c 00 00 00 00 00 00 	0+000000H,000000
  0x29d0	24 2c 00 00 00 00 00 00 10 2c 00 00 00 00 00 00 	$,0000000,000000
  0x29e0	06 2c 00 00 00 00 00 00 fe 2b 00 00 00 00 00 00 	0,0000000+000000
  0x29f0	f6 2b 00 00 00 00 00 00 e4 2b 00 00 00 00 00 00 	0+0000000+000000
  0x2a00	d4 2d 00 00 00 00 00 00 00 00 00 00 00 00 00 00 	0-00000000000000
  0x2a10	88 2c 00 00 00 00 00 00 9c 2c 00 00 00 00 00 00 	0,0000000,000000
  0x2a20	b6 2c 00 00 00 00 00 00 00 00 00 00 00 00 00 00 	0,00000000000000
  0x2a30	9c 02 52 65 67 51 75 65 72 79 56 61 6c 75 65 45 	00RegQueryValueE
  0x2a40	78 57 00 00 76 02 52 65 67 44 65 6c 65 74 65 56 	xW00v0RegDeleteV
  0x2a50	61 6c 75 65 57 00 8f 02 52 65 67 4f 70 65 6e 4b 	alueW000RegOpenK
  0x2a60	65 79 45 78 57 00 ac 02 52 65 67 53 65 74 56 61 	eyExW000RegSetVa
  0x2a70	6c 75 65 45 78 57 00 00 67 02 52 65 67 43 72 65 	lueExW00g0RegCre
  0x2a80	61 74 65 4b 65 79 45 78 57 00 6d 02 52 65 67 44 	ateKeyExW0m0RegD
  0x2a90	65 6c 65 74 65 4b 65 79 45 78 57 00 5e 02 52 65 	eleteKeyExW0^0Re
  0x2aa0	67 43 6c 6f 73 65 4b 65 79 00 41 44 56 41 50 49 	gCloseKey0ADVAPI
  0x2ab0	33 32 2e 64 6c 6c 00 00 e0 01 47 65 74 43 6f 6d 	32.dll0000GetCom
  0x2ac0	6d 61 6e 64 4c 69 6e 65 57 00 6a 02 47 65 74 4c 	mandLineW0j0GetL
  0x2ad0	61 73 74 45 72 72 6f 72 00 00 cb 03 4c 6f 61 64 	astError0000Load
  0x2ae0	4c 69 62 72 61 72 79 57 00 00 59 03 48 65 61 70 	LibraryW00Y0Heap
  0x2af0	53 65 74 49 6e 66 6f 72 6d 61 74 69 6f 6e 00 00 	SetInformation00
  0x2b00	b8 02 47 65 74 50 72 6f 63 41 64 64 72 65 73 73 	00GetProcAddress
  0x2b10	00 00 b4 01 46 72 65 65 4c 69 62 72 61 72 79 00 	0000FreeLibrary0
  0x2b20	4b 45 52 4e 45 4c 33 32 2e 64 6c 6c 00 00 be 02 	KERNEL32.dll0000
  0x2b30	47 65 74 53 74 6f 63 6b 4f 62 6a 65 63 74 00 00 	GetStockObject00
  0x2b40	47 44 49 33 32 2e 64 6c 6c 00 58 02 4c 6f 61 64 	GDI32.dll0X0Load
  0x2b50	43 75 72 73 6f 72 57 00 df 02 52 65 67 69 73 74 	CursorW000Regist
  0x2b60	65 72 43 6c 61 73 73 57 00 00 76 00 43 72 65 61 	erClassW00v0Crea
  0x2b70	74 65 57 69 6e 64 6f 77 45 78 57 00 b5 00 44 65 	teWindowExW000De
  0x2b80	73 74 72 6f 79 57 69 6e 64 6f 77 00 a7 00 44 65 	stroyWindow000De
  0x2b90	66 57 69 6e 64 6f 77 50 72 6f 63 57 00 00 55 53 	fWindowProcW00US
  0x2ba0	45 52 33 32 2e 64 6c 6c 00 00 78 04 69 73 77 73 	ER32.dll00x0isws
  0x2bb0	70 61 63 65 00 00 55 00 5f 58 63 70 74 46 69 6c 	pace00U0_XcptFil
  0x2bc0	74 65 72 00 ae 00 5f 61 6d 73 67 5f 65 78 69 74 	ter000_amsg_exit
  0x2bd0	00 00 9d 00 5f 5f 77 67 65 74 6d 61 69 6e 61 72 	0000__wgetmainar
  0x2be0	67 73 00 00 8e 00 5f 5f 73 65 74 5f 61 70 70 5f 	gs0000__set_app_
  0x2bf0	74 79 70 65 00 00 32 04 65 78 69 74 00 00 0e 01 	type0020exit0000
  0x2c00	5f 65 78 69 74 00 c1 00 5f 63 65 78 69 74 00 00 	_exit000_cexit00
  0x2c10	90 00 5f 5f 73 65 74 75 73 65 72 6d 61 74 68 65 	00__setusermathe
  0x2c20	72 72 00 00 7d 01 5f 69 6e 69 74 74 65 72 6d 00 	rr00}0_initterm0
  0x2c30	57 00 5f 5f 43 5f 73 70 65 63 69 66 69 63 5f 68 	W0__C_specific_h
  0x2c40	61 6e 64 6c 65 72 00 00 82 03 5f 77 63 6d 64 6c 	andler0000_wcmdl
  0x2c50	6e 00 27 01 5f 66 6d 6f 64 65 00 00 d2 00 5f 63 	n0'0_fmode0000_c
  0x2c60	6f 6d 6d 6f 64 65 00 00 6d 73 76 63 72 74 2e 64 	ommode00msvcrt.d
  0x2c70	6c 6c 00 00 2f 00 3f 74 65 72 6d 69 6e 61 74 65 	ll00/0?terminate
  0x2c80	40 40 59 41 58 58 5a 00 f3 02 52 74 6c 43 61 70 	@@YAXXZ000RtlCap
  0x2c90	74 75 72 65 43 6f 6e 74 65 78 74 00 ea 04 52 74 	tureContext000Rt
  0x2ca0	6c 4c 6f 6f 6b 75 70 46 75 6e 63 74 69 6f 6e 45 	lLookupFunctionE
  0x2cb0	6e 74 72 79 00 00 29 06 52 74 6c 56 69 72 74 75 	ntry00)0RtlVirtu
  0x2cc0	61 6c 55 6e 77 69 6e 64 00 00 6e 74 64 6c 6c 2e 	alUnwind00ntdll.
  0x2cd0	64 6c 6c 00 8f 05 53 6c 65 65 70 00 da 02 47 65 	dll000Sleep000Ge
  0x2ce0	74 53 74 61 72 74 75 70 49 6e 66 6f 57 00 7f 05 	tStartupInfoW000
  0x2cf0	53 65 74 55 6e 68 61 6e 64 6c 65 64 45 78 63 65 	SetUnhandledExce
  0x2d00	70 74 69 6f 6e 46 69 6c 74 65 72 00 81 02 47 65 	ptionFilter000Ge
  0x2d10	74 4d 6f 64 75 6c 65 48 61 6e 64 6c 65 57 00 00 	tModuleHandleW00
  0x2d20	52 04 51 75 65 72 79 50 65 72 66 6f 72 6d 61 6e 	R0QueryPerforman
  0x2d30	63 65 43 6f 75 6e 74 65 72 00 21 02 47 65 74 43 	ceCounter0!0GetC
  0x2d40	75 72 72 65 6e 74 50 72 6f 63 65 73 73 49 64 00 	urrentProcessId0
  0x2d50	25 02 47 65 74 43 75 72 72 65 6e 74 54 68 72 65 	%0GetCurrentThre
  0x2d60	61 64 49 64 00 00 f3 02 47 65 74 53 79 73 74 65 	adId0000GetSyste
  0x2d70	6d 54 69 6d 65 41 73 46 69 6c 65 54 69 6d 65 00 	mTimeAsFileTime0
  0x2d80	11 03 47 65 74 54 69 63 6b 43 6f 75 6e 74 00 00 	00GetTickCount00
  0x2d90	c0 05 55 6e 68 61 6e 64 6c 65 64 45 78 63 65 70 	00UnhandledExcep
  0x2da0	74 69 6f 6e 46 69 6c 74 65 72 00 00 20 02 47 65 	tionFilter00 0Ge
  0x2db0	74 43 75 72 72 65 6e 74 50 72 6f 63 65 73 73 00 	tCurrentProcess0
  0x2dc0	9e 05 54 65 72 6d 69 6e 61 74 65 50 72 6f 63 65 	00TerminateProce
  0x2dd0	73 73 00 00 96 04 6d 65 6d 73 65 74 00 00 00 00 	ss0000memset0000
  0x2de0	00 00 00 00 00 00 00 00 00 00 00 00 00 00 00 00 	0000000000000000
  0x2df0	00 00 00 00 00 00 00 00 00 00 00 00 00 00 00 00 	0000000000000000
=== DATA BLOCK END ===

=== DATA BLOCK ADDRESS 0x3000 ===
  0x3000	01 00 00 00 00 00 00 00 32 a2 df 2d 99 2b 00 00 	00000000200-0+00
  0x3010	cd 5d 20 d2 66 d4 ff ff 00 00 00 00 00 00 00 00 	0] 0f00000000000
  0x3020	00 00 00 00 00 00 00 00 00 00 00 00 00 00 00 00 	0000000000000000
  0x3030	00 00 00 00 00 00 00 00 00 00 00 00 00 00 00 00 	0000000000000000
  0x3040	00 00 00 00 00 00 00 00 00 00 00 00 00 00 00 00 	0000000000000000
  0x3050	00 00 00 00 00 00 00 00 00 00 00 00 00 00 00 00 	0000000000000000
  0x3060	00 00 00 00 00 00 00 00 00 00 00 00 00 00 00 00 	0000000000000000
  0x3070	00 00 00 00 00 00 00 00 00 00 00 00 00 00 00 00 	0000000000000000
  0x3080	00 00 00 00 00 00 00 00 00 00 00 00 00 00 00 00 	0000000000000000
  0x3090	00 00 00 00 00 00 00 00 00 00 00 00 00 00 00 00 	0000000000000000
  0x30a0	00 00 00 00 00 00 00 00 00 00 00 00 00 00 00 00 	0000000000000000
  0x30b0	00 00 00 00 00 00 00 00 00 00 00 00 00 00 00 00 	0000000000000000
  0x30c0	00 00 00 00 00 00 00 00 00 00 00 00 00 00 00 00 	0000000000000000
  0x30d0	00 00 00 00 00 00 00 00 00 00 00 00 00 00 00 00 	0000000000000000
  0x30e0	00 00 00 00 00 00 00 00 00 00 00 00 00 00 00 00 	0000000000000000
  0x30f0	00 00 00 00 00 00 00 00 00 00 00 00 00 00 00 00 	0000000000000000
  0x3100	00 00 00 00 00 00 00 00 00 00 00 00 00 00 00 00 	0000000000000000
  0x3110	00 00 00 00 00 00 00 00 00 00 00 00 00 00 00 00 	0000000000000000
  0x3120	00 00 00 00 00 00 00 00 00 00 00 00 00 00 00 00 	0000000000000000
  0x3130	00 00 00 00 00 00 00 00 00 00 00 00 00 00 00 00 	0000000000000000
  0x3140	00 00 00 00 00 00 00 00 00 00 00 00 00 00 00 00 	0000000000000000
  0x3150	00 00 00 00 00 00 00 00 00 00 00 00 00 00 00 00 	0000000000000000
  0x3160	00 00 00 00 00 00 00 00 00 00 00 00 00 00 00 00 	0000000000000000
  0x3170	00 00 00 00 00 00 00 00 00 00 00 00 00 00 00 00 	0000000000000000
  0x3180	00 00 00 00 00 00 00 00 00 00 00 00 00 00 00 00 	0000000000000000
  0x3190	00 00 00 00 00 00 00 00 00 00 00 00 00 00 00 00 	0000000000000000
  0x31a0	00 00 00 00 00 00 00 00 00 00 00 00 00 00 00 00 	0000000000000000
  0x31b0	00 00 00 00 00 00 00 00 00 00 00 00 00 00 00 00 	0000000000000000
  0x31c0	00 00 00 00 00 00 00 00 00 00 00 00 00 00 00 00 	0000000000000000
  0x31d0	00 00 00 00 00 00 00 00 00 00 00 00 00 00 00 00 	0000000000000000
  0x31e0	00 00 00 00 00 00 00 00 00 00 00 00 00 00 00 00 	0000000000000000
  0x31f0	00 00 00 00 00 00 00 00 00 00 00 00 00 00 00 00 	0000000000000000
=== DATA BLOCK END ===

=== DATA BLOCK ADDRESS 0x4000 ===
  0x4000	08 10 00 00 d9 10 00 00 00 27 00 00 e0 10 00 00 	000000000'000000
  0x4010	39 14 00 00 0c 27 00 00 40 14 00 00 13 15 00 00 	90000'00@0000000
  0x4020	28 27 00 00 20 15 00 00 69 15 00 00 30 27 00 00 	('00 000i0000'00
  0x4030	70 15 00 00 d4 17 00 00 38 27 00 00 e0 17 00 00 	p00000008'000000
  0x4040	f2 17 00 00 28 27 00 00 10 18 00 00 2e 18 00 00 	0000('000000.000
  0x4050	78 27 00 00 40 18 00 00 79 18 00 00 28 27 00 00 	x'00@000y000('00
  0x4060	80 18 00 00 98 18 00 00 28 27 00 00 ac 18 00 00 	00000000('000000
  0x4070	00 19 00 00 7c 27 00 00 08 19 00 00 4d 19 00 00 	0000|'000000M000
  0x4080	9c 27 00 00 c0 19 00 00 0d 1a 00 00 a4 27 00 00 	0'00000000000'00
  0x4090	54 1a 00 00 28 1b 00 00 c8 27 00 00 5c 1b 00 00 	T000(0000'000000
  0x40a0	90 1b 00 00 9c 27 00 00 a0 1b 00 00 11 1d 00 00 	00000'0000000000
  0x40b0	d4 27 00 00 40 1d 00 00 42 1d 00 00 e0 27 00 00 	0'00@000B0000'00
  0x40c0	50 1d 00 00 6e 1d 00 00 6c 27 00 00 80 1d 00 00 	P000n000l'000000
  0x40d0	a0 1d 00 00 6c 27 00 00 00 00 00 00 00 00 00 00 	0000l'0000000000
  0x40e0	00 00 00 00 00 00 00 00 00 00 00 00 00 00 00 00 	0000000000000000
  0x40f0	00 00 00 00 00 00 00 00 00 00 00 00 00 00 00 00 	0000000000000000
  0x4100	00 00 00 00 00 00 00 00 00 00 00 00 00 00 00 00 	0000000000000000
  0x4110	00 00 00 00 00 00 00 00 00 00 00 00 00 00 00 00 	0000000000000000
  0x4120	00 00 00 00 00 00 00 00 00 00 00 00 00 00 00 00 	0000000000000000
  0x4130	00 00 00 00 00 00 00 00 00 00 00 00 00 00 00 00 	0000000000000000
  0x4140	00 00 00 00 00 00 00 00 00 00 00 00 00 00 00 00 	0000000000000000
  0x4150	00 00 00 00 00 00 00 00 00 00 00 00 00 00 00 00 	0000000000000000
  0x4160	00 00 00 00 00 00 00 00 00 00 00 00 00 00 00 00 	0000000000000000
  0x4170	00 00 00 00 00 00 00 00 00 00 00 00 00 00 00 00 	0000000000000000
  0x4180	00 00 00 00 00 00 00 00 00 00 00 00 00 00 00 00 	0000000000000000
  0x4190	00 00 00 00 00 00 00 00 00 00 00 00 00 00 00 00 	0000000000000000
  0x41a0	00 00 00 00 00 00 00 00 00 00 00 00 00 00 00 00 	0000000000000000
  0x41b0	00 00 00 00 00 00 00 00 00 00 00 00 00 00 00 00 	0000000000000000
  0x41c0	00 00 00 00 00 00 00 00 00 00 00 00 00 00 00 00 	0000000000000000
  0x41d0	00 00 00 00 00 00 00 00 00 00 00 00 00 00 00 00 	0000000000000000
  0x41e0	00 00 00 00 00 00 00 00 00 00 00 00 00 00 00 00 	0000000000000000
  0x41f0	00 00 00 00 00 00 00 00 00 00 00 00 00 00 00 00 	0000000000000000
=== DATA BLOCK END ===
