===== Assembly blocks =====

=== CODE BLOCK ADDRESS 0x1000 ===
  0x1000	int3   	
  0x1001	int3   	
  0x1002	int3   	
  0x1003	int3   	
  0x1004	int3   	
  === BLOCK LINK ===
    0x1005
=== CODE BLOCK END ===

=== CODE BLOCK ADDRESS 0x1005 ===
  0x1005	int3   	
  0x1006	int3   	
  0x1007	int3   	
  0x1008	int3   	
  0x1009	int3   	
  === BLOCK LINK ===
    0x100a
=== CODE BLOCK END ===

=== CODE BLOCK ADDRESS 0x100a ===
  0x100a	int3   	
  0x100b	int3   	
  0x100c	int3   	
  0x100d	int3   	
  0x100e	int3   	
  === BLOCK LINK ===
    0x100f
=== CODE BLOCK END ===

=== CODE BLOCK ADDRESS 0x100f ===
  0x100f	int3   	
  0x1010	inc    	eax
  0x1011	push   	ebx
  0x1012	dec    	eax
  0x1013	sub    	esp, 0x40
  === BLOCK LINK ===
    0x1016
=== CODE BLOCK END ===

=== CODE BLOCK ADDRESS 0x1016 ===
  0x1016	dec    	esp
  0x1017	mov    	edx, dword ptr [esp + 0x80]
  0x101e	dec    	eax
  0x101f	mov    	ebx, ecx
  0x1021	dec    	ebp
  === BLOCK LINK ===
    0x1022
=== CODE BLOCK END ===

=== CODE BLOCK ADDRESS 0x1022 ===
  0x1022	test   	edx, edx
  0x1024	je     	0x1082
  === BLOCK LINK ===
    0x1026
    0x1082
=== CODE BLOCK END ===

=== CODE BLOCK ADDRESS 0x1026 ===
  0x1026	dec    	esp
  0x1027	mov    	ebx, dword ptr [esp + 0x70]
  0x102b	mov    	eax, edx
  0x102d	test   	edx, edx
  0x102f	je     	0x1054
  === BLOCK LINK ===
    0x1031
    0x1054
=== CODE BLOCK END ===

=== CODE BLOCK ADDRESS 0x1031 ===
  0x1031	cmp    	eax, 1
  0x1034	jne    	0x1058
  === BLOCK LINK ===
    0x1036
    0x1058
=== CODE BLOCK END ===

=== CODE BLOCK ADDRESS 0x1036 ===
  0x1036	inc    	ecx
  0x1037	movzx  	ecx, al
  0x103a	mov    	eax, 0x100
  0x103f	inc    	ecx
  0x1041	dec    	ebp
  === BLOCK LINK ===
    0x1042
=== CODE BLOCK END ===

=== CODE BLOCK ADDRESS 0x1042 ===
  0x1042	mov    	dword ptr [edx + 0x10], ecx
  0x1045	inc    	ebp
  0x1046	test   	al, al
  0x1048	dec    	ebp
  0x1049	mov    	dword ptr [edx + 0x18], ebx
  === BLOCK LINK ===
    0x104c
=== CODE BLOCK END ===

=== CODE BLOCK ADDRESS 0x104c ===
  0x104c	cmovne  	eax, ecx
  0x104f	inc    	ecx
  0x1050	mov    	dword ptr [edx], eax
  0x1052	jmp    	0x1058
  === BLOCK LINK ===
    0x1054
    0x1058
=== CODE BLOCK END ===

=== CODE BLOCK ADDRESS 0x1054 ===
  0x1054	inc    	ecx
  0x1055	and    	dword ptr [edx], 0
  === BLOCK LINK ===
    0x1058
=== CODE BLOCK END ===

=== CODE BLOCK ADDRESS 0x105d ===
  0x105d	test   	eax, eax
  0x105f	je     	0x1082
  === BLOCK LINK ===
    0x1061
    0x1082
=== CODE BLOCK END ===

=== CODE BLOCK ADDRESS 0x1061 ===
  0x1061	dec    	ecx
  0x1062	mov    	ecx, dword ptr [edx + 0x30]
  0x1065	dec    	eax
  0x1066	mov    	dword ptr [esp + 0x30], ecx
  0x106a	dec    	eax
  === BLOCK LINK ===
    0x106b
=== CODE BLOCK END ===

=== CODE BLOCK ADDRESS 0x106b ===
  0x106b	mov    	ecx, dword ptr [esp + 0x78]
  0x106f	dec    	eax
  0x1070	mov    	dword ptr [esp + 0x28], ecx
  0x1074	dec    	eax
  0x1075	mov    	ecx, ebx
  === BLOCK LINK ===
    0x1077
=== CODE BLOCK END ===

=== CODE BLOCK ADDRESS 0x1077 ===
  0x1077	dec    	esp
  0x1078	mov    	dword ptr [esp + 0x20], ebx
  0x107c	call   	dword ptr [0x2266]
  === BLOCK LINK ===
    0x1082
=== CODE BLOCK END ===

=== CODE BLOCK ADDRESS 0x1082 ===
  0x1082	dec    	eax
  0x1083	add    	esp, 0x40
  0x1086	pop    	ebx
  0x1087	ret    	
  0x1088	int3   	
  === BLOCK LINK ===
    0x1089
=== CODE BLOCK END ===

=== CODE BLOCK ADDRESS 0x1089 ===
  0x1089	int3   	
  0x108a	int3   	
  0x108b	int3   	
  0x108c	int3   	
  0x108d	int3   	
  === BLOCK LINK ===
    0x108e
=== CODE BLOCK END ===

=== CODE BLOCK ADDRESS 0x108e ===
  0x108e	int3   	
  0x108f	int3   	
  0x1090	dec    	eax
  0x1091	sub    	esp, 0x48
  0x1094	movzx  	eax, byte ptr [edx]
  === BLOCK LINK ===
    0x1097
=== CODE BLOCK END ===

=== CODE BLOCK ADDRESS 0x1097 ===
  0x1097	dec    	esp
  0x1098	lea    	edx, [edx + 1]
  0x109b	dec    	eax
  0x109c	mov    	edx, dword ptr [esp + 0x78]
  0x10a0	dec    	esp
  === BLOCK LINK ===
    0x10a1
=== CODE BLOCK END ===

=== CODE BLOCK ADDRESS 0x10a1 ===
  0x10a1	mov    	ebx, ecx
  0x10a3	shl    	eax, 0x18
  0x10a6	mov    	dword ptr [esp + 0x30], eax
  0x10aa	inc    	ecx
  0x10ab	movzx  	eax, word ptr [edx]
  === BLOCK LINK ===
    0x10ae
=== CODE BLOCK END ===

=== CODE BLOCK ADDRESS 0x10ae ===
  0x10ae	mov    	dword ptr [esp + 0x34], eax
  0x10b2	dec    	ecx
  0x10b3	mov    	eax, dword ptr [edx + 2]
  0x10b6	dec    	ecx
  0x10b7	add    	edx, 0xa
  === BLOCK LINK ===
    0x10ba
=== CODE BLOCK END ===

=== CODE BLOCK ADDRESS 0x10ba ===
  0x10ba	dec    	eax
  0x10bb	mov    	dword ptr [esp + 0x38], eax
  0x10bf	dec    	eax
  0x10c0	mov    	eax, dword ptr [ecx + 8]
  0x10c3	dec    	eax
  === BLOCK LINK ===
    0x10c4
=== CODE BLOCK END ===

=== CODE BLOCK ADDRESS 0x10c4 ===
  0x10c4	mov    	dword ptr [edx], eax
  0x10c6	dec    	eax
  0x10c7	mov    	eax, dword ptr [ecx + 8]
  0x10ca	dec    	eax
  0x10cb	mov    	dword ptr [esp + 0x28], edx
  === BLOCK LINK ===
    0x10cf
=== CODE BLOCK END ===

=== CODE BLOCK ADDRESS 0x10cf ===
  0x10cf	movzx  	ecx, word ptr [eax]
  0x10d2	mov    	dword ptr [edx + 8], ecx
  0x10d5	dec    	eax
  0x10d6	lea    	ecx, [0x238c]
  0x10dc	mov    	dword ptr [edx + 0xc], 2
  === BLOCK LINK ===
    0x10e3
=== CODE BLOCK END ===

=== CODE BLOCK ADDRESS 0x10e3 ===
  0x10e3	dec    	esp
  0x10e4	mov    	dword ptr [edx + 0x10], edx
  0x10e7	inc    	ecx
  0x10e8	movzx  	eax, word ptr [edx]
  0x10eb	mov    	dword ptr [edx + 0x18], eax
  === BLOCK LINK ===
    0x10ee
=== CODE BLOCK END ===

=== CODE BLOCK ADDRESS 0x10ee ===
  0x10ee	dec    	eax
  0x10ef	lea    	eax, [0x2441]
  0x10f5	sub    	eax, ecx
  0x10f7	mov    	dword ptr [edx + 0x1c], 1
  0x10fe	dec    	ecx
  === BLOCK LINK ===
    0x10ff
=== CODE BLOCK END ===

=== CODE BLOCK ADDRESS 0x10ff ===
  0x10ff	mov    	ecx, dword ptr [ebx + 0x20]
  0x1102	dec    	eax
  0x1103	lea    	edx, [esp + 0x30]
  0x1107	mov    	dword ptr [esp + 0x78], eax
  0x110b	mov    	eax, dword ptr [esp + 0x70]
  === BLOCK LINK ===
    0x110f
=== CODE BLOCK END ===

=== CODE BLOCK ADDRESS 0x110f ===
  0x110f	mov    	dword ptr [esp + 0x20], eax
  0x1113	dec    	eax
  0x1114	call   	dword ptr [0x2116]
  === BLOCK LINK ===
    0x111a
=== CODE BLOCK END ===

=== CODE BLOCK ADDRESS 0x111a ===
  0x111a	nop    	dword ptr [eax + eax]
  0x111f	dec    	eax
  0x1120	add    	esp, 0x48
  0x1123	ret    	
  0x1124	int3   	
  === BLOCK LINK ===
    0x1125
=== CODE BLOCK END ===

=== CODE BLOCK ADDRESS 0x1125 ===
  0x1125	int3   	
  0x1126	int3   	
  0x1127	int3   	
  0x1128	int3   	
  0x1129	int3   	
  === BLOCK LINK ===
    0x112a
=== CODE BLOCK END ===

=== CODE BLOCK ADDRESS 0x112a ===
  0x112a	int3   	
  0x112b	int3   	
  0x112c	int3   	
  0x112d	int3   	
  0x112e	int3   	
  === BLOCK LINK ===
    0x112f
=== CODE BLOCK END ===

=== CODE BLOCK ADDRESS 0x112f ===
  0x112f	int3   	
  0x1130	nop    	
  0x1132	ret    	
  0x1133	int3   	
  0x1134	int3   	
  === BLOCK LINK ===
    0x1135
=== CODE BLOCK END ===

=== CODE BLOCK ADDRESS 0x1058 ===
  0x1058	dec    	ecx
  0x1059	mov    	eax, dword ptr [edx + 0x28]
  0x105c	dec    	eax
  === BLOCK LINK ===
    0x105d
=== CODE BLOCK END ===

=== CODE BLOCK ADDRESS 0x1135 ===
  0x1135	int3   	
  0x1136	int3   	
  0x1137	int3   	
  0x1138	int3   	
  0x1139	int3   	
  === BLOCK LINK ===
    0x113a
=== CODE BLOCK END ===

=== CODE BLOCK ADDRESS 0x113a ===
  0x113a	int3   	
  0x113b	int3   	
  0x113c	int3   	
  0x113d	int3   	
  0x113e	int3   	
  === BLOCK LINK ===
    0x113f
=== CODE BLOCK END ===

=== CODE BLOCK ADDRESS 0x113f ===
  0x113f	int3   	
  0x1140	mov    	dword ptr [ecx + 8], edx
  0x1143	dec    	eax
  0x1144	mov    	ecx, dword ptr [ecx]
  0x1146	dec    	eax
  === BLOCK LINK ===
    0x1147
=== CODE BLOCK END ===

=== CODE BLOCK ADDRESS 0x1147 ===
  0x1147	jmp    	dword ptr [0x20a3]
  === BLOCK LINK ===
    0x114d
=== CODE BLOCK END ===

=== CODE BLOCK ADDRESS 0x114d ===
  0x114d	int3   	
  0x114e	int3   	
  0x114f	int3   	
  0x1150	int3   	
  0x1151	int3   	
  === BLOCK LINK ===
    0x1152
=== CODE BLOCK END ===

=== CODE BLOCK ADDRESS 0x1152 ===
  0x1152	int3   	
  0x1153	int3   	
  0x1154	int3   	
  0x1155	int3   	
  0x1156	int3   	
  === BLOCK LINK ===
    0x1157
=== CODE BLOCK END ===

=== CODE BLOCK ADDRESS 0x1157 ===
  0x1157	int3   	
  0x1158	dec    	eax
  0x1159	mov    	eax, esp
  0x115b	dec    	eax
  0x115c	mov    	dword ptr [eax + 0x10], ebx
  === BLOCK LINK ===
    0x115f
=== CODE BLOCK END ===

=== CODE BLOCK ADDRESS 0x115f ===
  0x115f	dec    	eax
  0x1160	mov    	dword ptr [eax + 0x18], esi
  0x1163	dec    	eax
  0x1164	mov    	dword ptr [eax + 0x20], edi
  0x1167	push   	ebp
  === BLOCK LINK ===
    0x1168
=== CODE BLOCK END ===

=== CODE BLOCK ADDRESS 0x1168 ===
  0x1168	inc    	ecx
  0x1169	push   	esp
  0x116a	inc    	ecx
  0x116b	push   	ebp
  0x116c	inc    	ecx
  === BLOCK LINK ===
    0x116d
=== CODE BLOCK END ===

=== CODE BLOCK ADDRESS 0x116d ===
  0x116d	push   	esi
  0x116e	inc    	ecx
  0x116f	push   	edi
  0x1170	dec    	eax
  0x1171	lea    	ebp, [eax - 0x1d8]
  === BLOCK LINK ===
    0x1177
=== CODE BLOCK END ===

=== CODE BLOCK ADDRESS 0x1177 ===
  0x1177	dec    	eax
  0x1178	sub    	esp, 0x2b0
  0x117e	dec    	eax
  0x117f	mov    	eax, dword ptr [0x3ec3]
  0x1185	dec    	eax
  === BLOCK LINK ===
    0x1186
=== CODE BLOCK END ===

=== CODE BLOCK ADDRESS 0x1186 ===
  0x1186	xor    	eax, esp
  0x1188	dec    	eax
  0x1189	mov    	dword ptr [ebp + 0x1a0], eax
  0x118f	dec    	esp
  0x1190	mov    	esi, ecx
  === BLOCK LINK ===
    0x1192
=== CODE BLOCK END ===

=== CODE BLOCK ADDRESS 0x1192 ===
  0x1192	mov    	edi, 0x104
  0x1197	mov    	edx, edi
  0x1199	dec    	eax
  0x119a	lea    	ecx, [ebp - 0x70]
  0x119d	dec    	eax
  === BLOCK LINK ===
    0x119e
=== CODE BLOCK END ===

=== CODE BLOCK ADDRESS 0x119e ===
  0x119e	call   	dword ptr [0x206c]
  === BLOCK LINK ===
    0x11a4
=== CODE BLOCK END ===

=== CODE BLOCK ADDRESS 0x11a4 ===
  0x11a4	nop    	dword ptr [eax + eax]
  0x11a9	xor    	esi, esi
  0x11ab	dec    	eax
  0x11ad	inc    	esp
  0x11ae	lea    	edi, [esi + 2]
  === BLOCK LINK ===
    0x11b1
=== CODE BLOCK END ===

=== CODE BLOCK ADDRESS 0x11b1 ===
  0x11b1	cmp    	eax, 0x102
  0x11b6	ja     	0x1253
  === BLOCK LINK ===
    0x11bc
    0x1253
=== CODE BLOCK END ===

=== CODE BLOCK ADDRESS 0x11bc ===
  0x11bc	mov    	ecx, edi
  0x11be	dec    	eax
  0x11bf	lea    	eax, [ebp - 0x70]
  === BLOCK LINK ===
    0x11c2
=== CODE BLOCK END ===

=== CODE BLOCK ADDRESS 0x11c7 ===
  0x11c7	dec    	ecx
  0x11c8	add    	eax, edi
  0x11ca	dec    	eax
  0x11cb	sub    	ecx, 1
  0x11ce	jne    	0x11c2
  === BLOCK LINK ===
    0x11d0
    0x11c2
=== CODE BLOCK END ===

=== CODE BLOCK ADDRESS 0x11d0 ===
  0x11d0	dec    	eax
  0x11d1	mov    	eax, ecx
  0x11d3	dec    	eax
  0x11d4	neg    	eax
  0x11d6	sbb    	ebx, ebx
  === BLOCK LINK ===
    0x11d8
=== CODE BLOCK END ===

=== CODE BLOCK ADDRESS 0x11d8 ===
  0x11d8	not    	ebx
  0x11da	and    	ebx, 0x80070057
  0x11e0	dec    	eax
  0x11e1	test   	ecx, ecx
  0x11e3	je     	0x11ed
  === BLOCK LINK ===
    0x11e5
    0x11ed
=== CODE BLOCK END ===

=== CODE BLOCK ADDRESS 0x11e5 ===
  0x11e5	dec    	eax
  0x11e6	mov    	eax, edi
  0x11e8	dec    	eax
  0x11e9	sub    	eax, ecx
  0x11eb	jmp    	0x11f0
  === BLOCK LINK ===
    0x11ed
    0x11f0
=== CODE BLOCK END ===

=== CODE BLOCK ADDRESS 0x11ed ===
  0x11ed	dec    	eax
  0x11ee	mov    	eax, esi
  === BLOCK LINK ===
    0x11f0
    0x1258
=== CODE BLOCK END ===

=== CODE BLOCK ADDRESS 0x11f5 ===
  0x11f5	dec    	eax
  0x11f6	lea    	ecx, [ebp - 0x70]
  0x11f9	dec    	eax
  0x11fa	lea    	ecx, [ecx + eax*2]
  0x11fd	dec    	eax
  === BLOCK LINK ===
    0x11fe
=== CODE BLOCK END ===

=== CODE BLOCK ADDRESS 0x11fe ===
  0x11fe	sub    	edi, eax
  0x1200	je     	0x1236
  === BLOCK LINK ===
    0x1202
    0x1236
=== CODE BLOCK END ===

=== CODE BLOCK ADDRESS 0x1202 ===
  0x1202	dec    	eax
  0x1203	lea    	edx, [eax + 0x7ffffefa]
  0x1209	dec    	eax
  0x120a	add    	edx, edi
  0x120c	dec    	eax
  === BLOCK LINK ===
    0x120d
=== CODE BLOCK END ===

=== CODE BLOCK ADDRESS 0x120d ===
  0x120d	lea    	eax, [0x2145]
  0x1213	dec    	eax
  0x1214	sub    	eax, ecx
  === BLOCK LINK ===
    0x1216
=== CODE BLOCK END ===

=== CODE BLOCK ADDRESS 0x1219 ===
  0x1219	je     	0x1236
  === BLOCK LINK ===
    0x121b
    0x1236
=== CODE BLOCK END ===

=== CODE BLOCK ADDRESS 0x121b ===
  0x121b	inc    	esp
  0x121c	movzx  	eax, word ptr [eax + ecx]
  0x1220	inc    	bp
  0x1222	test   	eax, eax
  0x1224	je     	0x1236
  === BLOCK LINK ===
    0x1226
    0x1236
=== CODE BLOCK END ===

=== CODE BLOCK ADDRESS 0x1226 ===
  0x1226	inc    	sp
  0x1228	mov    	dword ptr [ecx], eax
  0x122a	dec    	eax
  0x122b	dec    	edx
  0x122d	dec    	ecx
  === BLOCK LINK ===
    0x122e
=== CODE BLOCK END ===

=== CODE BLOCK ADDRESS 0x122e ===
  0x122e	add    	ecx, edi
  0x1230	dec    	eax
  0x1231	sub    	edi, 1
  0x1234	jne    	0x1216
  === BLOCK LINK ===
    0x1236
    0x1216
=== CODE BLOCK END ===

=== CODE BLOCK ADDRESS 0x1236 ===
  0x1236	dec    	eax
  0x1237	test   	edi, edi
  0x1239	dec    	eax
  0x123a	lea    	eax, [ecx - 2]
  0x123d	dec    	eax
  === BLOCK LINK ===
    0x123e
=== CODE BLOCK END ===

=== CODE BLOCK ADDRESS 0x123e ===
  0x123e	cmovne  	eax, ecx
  0x1241	dec    	eax
  0x1242	neg    	edi
  0x1244	sbb    	ebx, ebx
  0x1246	not    	ebx
  === BLOCK LINK ===
    0x1248
=== CODE BLOCK END ===

=== CODE BLOCK ADDRESS 0x1248 ===
  0x1248	and    	ebx, 0x8007007a
  0x124e	mov    	word ptr [eax], si
  0x1251	jmp    	0x1258
  === BLOCK LINK ===
    0x1253
    0x1258
=== CODE BLOCK END ===

=== CODE BLOCK ADDRESS 0x1253 ===
  0x1253	mov    	ebx, 0x80004005
  === BLOCK LINK ===
    0x1258
    0x1423
=== CODE BLOCK END ===

=== CODE BLOCK ADDRESS 0x1260 ===
  0x1260	inc    	ebp
  0x1261	xor    	eax, eax
  0x1263	dec    	eax
  0x1264	lea    	ecx, [ebp - 0x70]
  0x1267	xor    	edx, edx
  === BLOCK LINK ===
    0x1269
=== CODE BLOCK END ===

=== CODE BLOCK ADDRESS 0x1269 ===
  0x1269	dec    	eax
  0x126a	call   	dword ptr [0x1ee8]
  === BLOCK LINK ===
    0x1270
=== CODE BLOCK END ===

=== CODE BLOCK ADDRESS 0x1270 ===
  0x1270	nop    	dword ptr [eax + eax]
  0x1275	dec    	eax
  0x1276	mov    	edi, eax
  0x1278	dec    	eax
  0x1279	test   	eax, eax
  === BLOCK LINK ===
    0x127b
=== CODE BLOCK END ===

=== CODE BLOCK ADDRESS 0x127b ===
  0x127b	jne    	0x129c
  === BLOCK LINK ===
    0x127d
    0x129c
=== CODE BLOCK END ===

=== CODE BLOCK ADDRESS 0x127d ===
  0x127d	dec    	eax
  0x127e	call   	dword ptr [0x1eb4]
  === BLOCK LINK ===
    0x1284
=== CODE BLOCK END ===

=== CODE BLOCK ADDRESS 0x1284 ===
  0x1284	nop    	dword ptr [eax + eax]
  0x1289	movzx  	ebx, ax
  0x128c	or     	ebx, 0x80070000
  0x1292	test   	eax, eax
  0x1294	cmovle  	ebx, eax
  === BLOCK LINK ===
    0x1297
=== CODE BLOCK END ===

=== CODE BLOCK ADDRESS 0x1297 ===
  0x1297	jmp    	0x1423
  === BLOCK LINK ===
    0x129c
    0x1423
=== CODE BLOCK END ===

=== CODE BLOCK ADDRESS 0x129c ===
  0x129c	dec    	eax
  0x129d	lea    	edx, [0x20e5]
  0x12a3	dec    	eax
  0x12a4	mov    	ecx, edi
  0x12a6	dec    	eax
  === BLOCK LINK ===
    0x12a7
=== CODE BLOCK END ===

=== CODE BLOCK ADDRESS 0x12a7 ===
  0x12a7	call   	dword ptr [0x1ebb]
  === BLOCK LINK ===
    0x12ad
=== CODE BLOCK END ===

=== CODE BLOCK ADDRESS 0x12ad ===
  0x12ad	nop    	dword ptr [eax + eax]
  0x12b2	dec    	eax
  0x12b3	lea    	edx, [0x20ef]
  0x12b9	dec    	eax
  0x12ba	mov    	ecx, edi
  === BLOCK LINK ===
    0x12bc
=== CODE BLOCK END ===

=== CODE BLOCK ADDRESS 0x12bc ===
  0x12bc	dec    	eax
  0x12bd	mov    	ebx, eax
  0x12bf	dec    	eax
  0x12c0	mov    	dword ptr [esp + 0x48], eax
  0x12c4	dec    	eax
  === BLOCK LINK ===
    0x12c5
=== CODE BLOCK END ===

=== CODE BLOCK ADDRESS 0x12c5 ===
  0x12c5	call   	dword ptr [0x1e9d]
  === BLOCK LINK ===
    0x12cb
=== CODE BLOCK END ===

=== CODE BLOCK ADDRESS 0x12cb ===
  0x12cb	nop    	dword ptr [eax + eax]
  0x12d0	dec    	eax
  0x12d1	lea    	edx, [0x20f1]
  0x12d7	dec    	eax
  0x12d8	mov    	ecx, edi
  === BLOCK LINK ===
    0x12da
=== CODE BLOCK END ===

=== CODE BLOCK ADDRESS 0x12da ===
  0x12da	dec    	esp
  0x12db	mov    	esp, eax
  0x12dd	dec    	eax
  0x12de	call   	dword ptr [0x1e84]
  === BLOCK LINK ===
    0x12e4
=== CODE BLOCK END ===

=== CODE BLOCK ADDRESS 0x12e4 ===
  0x12e4	nop    	dword ptr [eax + eax]
  0x12e9	dec    	esp
  0x12ea	mov    	ebp, eax
  0x12ec	dec    	eax
  0x12ed	test   	ebx, ebx
  === BLOCK LINK ===
    0x12ef
=== CODE BLOCK END ===

=== CODE BLOCK ADDRESS 0x12ef ===
  0x12ef	je     	0x140f
  === BLOCK LINK ===
    0x12f5
    0x140f
=== CODE BLOCK END ===

=== CODE BLOCK ADDRESS 0x12f5 ===
  0x12f5	dec    	ebp
  0x12f6	test   	esp, esp
  0x12f8	je     	0x140f
  === BLOCK LINK ===
    0x12fe
    0x140f
=== CODE BLOCK END ===

=== CODE BLOCK ADDRESS 0x12fe ===
  0x12fe	dec    	eax
  0x12ff	test   	eax, eax
  0x1301	je     	0x140f
  === BLOCK LINK ===
    0x1307
    0x140f
=== CODE BLOCK END ===

=== CODE BLOCK ADDRESS 0x1307 ===
  0x1307	inc    	ebp
  0x1308	xor    	ecx, ecx
  0x130a	dec    	eax
  0x130b	mov    	dword ptr [esp + 0x38], esi
  0x130f	inc    	ebp
  === BLOCK LINK ===
    0x1310
=== CODE BLOCK END ===

=== CODE BLOCK ADDRESS 0x1310 ===
  0x1310	xor    	eax, eax
  0x1312	mov    	dword ptr [esp + 0x40], esi
  0x1316	xor    	ecx, ecx
  0x1318	inc    	ecx
  0x1319	lea    	edx, [ecx + 1]
  === BLOCK LINK ===
    0x131c
=== CODE BLOCK END ===

=== CODE BLOCK ADDRESS 0x131c ===
  0x131c	dec    	eax
  0x131d	call   	dword ptr [0x1ebd]
  === BLOCK LINK ===
    0x1323
=== CODE BLOCK END ===

=== CODE BLOCK ADDRESS 0x1323 ===
  0x1323	nop    	dword ptr [eax + eax]
  0x1328	dec    	eax
  0x1329	mov    	dword ptr [esp + 0x38], eax
  0x132d	mov    	esi, 0x80070000
  0x1332	dec    	eax
  === BLOCK LINK ===
    0x1333
=== CODE BLOCK END ===

=== CODE BLOCK ADDRESS 0x1333 ===
  0x1333	test   	eax, eax
  0x1335	jne    	0x1354
  === BLOCK LINK ===
    0x1337
    0x1354
=== CODE BLOCK END ===

=== CODE BLOCK ADDRESS 0x1337 ===
  0x1337	dec    	eax
  0x1338	call   	dword ptr [0x1dfa]
  === BLOCK LINK ===
    0x133e
=== CODE BLOCK END ===

=== CODE BLOCK ADDRESS 0x133e ===
  0x133e	nop    	dword ptr [eax + eax]
  0x1343	movzx  	ebx, ax
  0x1346	or     	ebx, esi
  0x1348	test   	eax, eax
  0x134a	cmovle  	ebx, eax
  === BLOCK LINK ===
    0x134d
=== CODE BLOCK END ===

=== CODE BLOCK ADDRESS 0x134d ===
  0x134d	dec    	eax
  0x134e	mov    	eax, dword ptr [esp + 0x38]
  0x1352	jmp    	0x1356
  === BLOCK LINK ===
    0x1354
    0x1356
=== CODE BLOCK END ===

=== CODE BLOCK ADDRESS 0x1354 ===
  0x1354	xor    	ebx, ebx
  === BLOCK LINK ===
    0x1356
=== CODE BLOCK END ===

=== CODE BLOCK ADDRESS 0x135e ===
  0x135e	dec    	eax
  0x135f	lea    	eax, [esp + 0x30]
  0x1363	inc    	ebp
  0x1364	xor    	ecx, ecx
  0x1366	dec    	eax
  === BLOCK LINK ===
    0x1367
=== CODE BLOCK END ===

=== CODE BLOCK ADDRESS 0x1367 ===
  0x1367	mov    	dword ptr [esp + 0x20], eax
  0x136b	inc    	ebp
  0x136c	xor    	eax, eax
  0x136e	dec    	eax
  0x136f	mov    	eax, dword ptr [esp + 0x48]
  === BLOCK LINK ===
    0x1373
=== CODE BLOCK END ===

=== CODE BLOCK ADDRESS 0x1373 ===
  0x1373	xor    	edx, edx
  0x1375	dec    	ecx
  0x1376	mov    	ecx, esi
  0x1378	call   	dword ptr [0x1f6a]
  === BLOCK LINK ===
    0x137e
=== CODE BLOCK END ===

=== CODE BLOCK ADDRESS 0x137e ===
  0x137e	mov    	ebx, eax
  0x1380	test   	eax, eax
  0x1382	js     	0x13f2
  === BLOCK LINK ===
    0x1384
=== CODE BLOCK END ===

=== CODE BLOCK ADDRESS 0x1384 ===
  0x1384	dec    	eax
  0x1385	mov    	ecx, dword ptr [esp + 0x30]
  0x1389	dec    	esp
  0x138a	lea    	eax, [esp + 0x38]
  0x138e	dec    	eax
  === BLOCK LINK ===
    0x138f
=== CODE BLOCK END ===

=== CODE BLOCK ADDRESS 0x138f ===
  0x138f	lea    	edx, [0xfffffdab]
  0x1395	dec    	ecx
  0x1396	mov    	eax, esp
  0x1398	call   	dword ptr [0x1f4a]
  === BLOCK LINK ===
    0x139e
=== CODE BLOCK END ===

=== CODE BLOCK ADDRESS 0x139e ===
  0x139e	mov    	ebx, eax
  0x13a0	test   	eax, eax
  0x13a2	js     	0x13e4
  === BLOCK LINK ===
    0x13a4
=== CODE BLOCK END ===

=== CODE BLOCK ADDRESS 0x13a4 ===
  0x13a4	dec    	eax
  0x13a5	mov    	ecx, dword ptr [esp + 0x38]
  0x13a9	or     	ebx, 0xffffffff
  0x13ac	mov    	edx, ebx
  0x13ae	dec    	eax
  === BLOCK LINK ===
    0x13af
=== CODE BLOCK END ===

=== CODE BLOCK ADDRESS 0x13af ===
  0x13af	call   	dword ptr [0x1e33]
  === BLOCK LINK ===
    0x13b5
=== CODE BLOCK END ===

=== CODE BLOCK ADDRESS 0x13b5 ===
  0x13b5	nop    	dword ptr [eax + eax]
  0x13ba	cmp    	eax, ebx
  0x13bc	jne    	0x13d6
  === BLOCK LINK ===
    0x13be
=== CODE BLOCK END ===

=== CODE BLOCK ADDRESS 0x13be ===
  0x13be	dec    	eax
  0x13bf	call   	dword ptr [0x1d73]
  === BLOCK LINK ===
    0x13c5
=== CODE BLOCK END ===

=== CODE BLOCK ADDRESS 0x13c5 ===
  0x13c5	nop    	dword ptr [eax + eax]
  0x13ca	movzx  	ebx, ax
  0x13cd	or     	ebx, esi
  0x13cf	test   	eax, eax
  0x13d1	cmovle  	ebx, eax
  === BLOCK LINK ===
    0x13d4
=== CODE BLOCK END ===

=== CODE BLOCK ADDRESS 0x13d4 ===
  0x13d4	jmp    	0x13e4
  === BLOCK LINK ===
    0x13d6
=== CODE BLOCK END ===

=== CODE BLOCK ADDRESS 0x13d6 ===
  0x13d6	mov    	ebx, dword ptr [esp + 0x40]
  0x13da	test   	eax, eax
  0x13dc	mov    	ecx, 0x8000ffff
  0x13e1	cmovne  	ebx, ecx
  0x13e4	dec    	eax
  === BLOCK LINK ===
    0x13e5
=== CODE BLOCK END ===

=== CODE BLOCK ADDRESS 0x13e5 ===
  0x13e5	mov    	ecx, dword ptr [esp + 0x30]
  0x13e9	dec    	ecx
  0x13ea	mov    	eax, ebp
  0x13ec	call   	dword ptr [0x1ef6]
  === BLOCK LINK ===
    0x13f2
=== CODE BLOCK END ===

=== CODE BLOCK ADDRESS 0x13f2 ===
  0x13f2	dec    	eax
  0x13f3	mov    	eax, dword ptr [esp + 0x38]
  0x13f7	xor    	esi, esi
  0x13f9	dec    	eax
  0x13fa	test   	eax, eax
  === BLOCK LINK ===
    0x13fc
=== CODE BLOCK END ===

=== CODE BLOCK ADDRESS 0x13fc ===
  0x13fc	je     	0x1414
  === BLOCK LINK ===
    0x13fe
=== CODE BLOCK END ===

=== CODE BLOCK ADDRESS 0x13fe ===
  0x13fe	dec    	eax
  0x13ff	mov    	ecx, eax
  0x1401	dec    	eax
  0x1402	call   	dword ptr [0x1d40]
  === BLOCK LINK ===
    0x1408
=== CODE BLOCK END ===

=== CODE BLOCK ADDRESS 0x1408 ===
  0x1408	nop    	dword ptr [eax + eax]
  0x140d	jmp    	0x1414
  === BLOCK LINK ===
    0x140f
=== CODE BLOCK END ===

=== CODE BLOCK ADDRESS 0x140f ===
  0x140f	mov    	ebx, 0x8007007f
  0x1414	dec    	eax
  0x1415	mov    	ecx, edi
  0x1417	dec    	eax
  0x1418	call   	dword ptr [0x1d42]
  === BLOCK LINK ===
    0x141e
=== CODE BLOCK END ===

=== CODE BLOCK ADDRESS 0x141e ===
  0x141e	nop    	dword ptr [eax + eax]
  === BLOCK LINK ===
    0x1423
=== CODE BLOCK END ===

=== CODE BLOCK ADDRESS 0x142c ===
  0x142c	mov    	dword ptr [esp + 0x30], ebx
  0x1430	dec    	eax
  0x1431	lea    	eax, [esp + 0x30]
  0x1435	dec    	eax
  0x1436	mov    	dword ptr [ebp - 0x80], eax
  === BLOCK LINK ===
    0x1439
=== CODE BLOCK END ===

=== CODE BLOCK ADDRESS 0x1439 ===
  0x1439	mov    	ecx, 4
  0x143e	dec    	eax
  0x143f	mov    	dword ptr [ebp - 0x78], ecx
  0x1442	dec    	ebp
  0x1443	test   	esi, esi
  === BLOCK LINK ===
    0x1445
=== CODE BLOCK END ===

=== CODE BLOCK ADDRESS 0x1445 ===
  0x1445	je     	0x145f
  === BLOCK LINK ===
    0x1447
=== CODE BLOCK END ===

=== CODE BLOCK ADDRESS 0x1447 ===
  0x1447	dec    	eax
  0x1448	or     	eax, 0xffffffff
  0x144b	dec    	eax
  0x144c	inc    	eax
  0x144e	inc    	cx
  === BLOCK LINK ===
    0x1450
=== CODE BLOCK END ===

=== CODE BLOCK ADDRESS 0x1450 ===
  0x1450	cmp    	dword ptr [esi + eax*2], esi
  0x1453	jne    	0x144b
  === BLOCK LINK ===
    0x1455
=== CODE BLOCK END ===

=== CODE BLOCK ADDRESS 0x1455 ===
  0x1455	inc    	esp
  0x1456	lea    	edi, [eax*2 + 2]
  0x145d	jmp    	0x1466
  === BLOCK LINK ===
    0x145f
=== CODE BLOCK END ===

=== CODE BLOCK ADDRESS 0x145f ===
  0x145f	dec    	esp
  0x1460	lea    	esi, [0x1eea]
  0x1466	dec    	eax
  0x1467	lea    	eax, [esp + 0x50]
  0x146b	dec    	esp
  === BLOCK LINK ===
    0x146c
=== CODE BLOCK END ===

=== CODE BLOCK ADDRESS 0x146c ===
  0x146c	mov    	dword ptr [esp + 0x70], esi
  0x1470	dec    	eax
  0x1471	mov    	dword ptr [esp + 0x28], eax
  0x1475	dec    	eax
  0x1476	lea    	edx, [0x1ffd]
  === BLOCK LINK ===
    0x147c
=== CODE BLOCK END ===

=== CODE BLOCK ADDRESS 0x147c ===
  0x147c	mov    	dword ptr [esp + 0x20], ecx
  0x1480	inc    	ebp
  0x1481	xor    	ecx, ecx
  0x1483	dec    	eax
  0x1484	lea    	ecx, [0x3b76]
  === BLOCK LINK ===
    0x148a
=== CODE BLOCK END ===

=== CODE BLOCK ADDRESS 0x148a ===
  0x148a	inc    	esp
  0x148b	mov    	dword ptr [esp + 0x78], edi
  0x148f	inc    	ebp
  0x1490	xor    	eax, eax
  0x1492	mov    	dword ptr [esp + 0x7c], esi
  === BLOCK LINK ===
    0x1496
=== CODE BLOCK END ===

=== CODE BLOCK ADDRESS 0x1496 ===
  0x1496	call   	0x1090
  === BLOCK LINK ===
    0x149b
=== CODE BLOCK END ===

=== CODE BLOCK ADDRESS 0x149b ===
  0x149b	mov    	eax, ebx
  0x149d	dec    	eax
  0x149e	mov    	ecx, dword ptr [ebp + 0x1a0]
  0x14a4	dec    	eax
  0x14a5	xor    	ecx, esp
  === BLOCK LINK ===
    0x14a7
=== CODE BLOCK END ===

=== CODE BLOCK ADDRESS 0x14a7 ===
  0x14a7	call   	0x1a80
  === BLOCK LINK ===
    0x14ac
=== CODE BLOCK END ===

=== CODE BLOCK ADDRESS 0x14ac ===
  0x14ac	dec    	esp
  0x14ad	lea    	ebx, [esp + 0x2b0]
  0x14b4	dec    	ecx
  0x14b5	mov    	ebx, dword ptr [ebx + 0x38]
  0x14b8	dec    	ecx
  === BLOCK LINK ===
    0x14b9
=== CODE BLOCK END ===

=== CODE BLOCK ADDRESS 0x14b9 ===
  0x14b9	mov    	esi, dword ptr [ebx + 0x40]
  0x14bc	dec    	ecx
  0x14bd	mov    	edi, dword ptr [ebx + 0x48]
  0x14c0	dec    	ecx
  0x14c1	mov    	esp, ebx
  === BLOCK LINK ===
    0x14c3
=== CODE BLOCK END ===

=== CODE BLOCK ADDRESS 0x14c3 ===
  0x14c3	inc    	ecx
  0x14c4	pop    	edi
  0x14c5	inc    	ecx
  0x14c6	pop    	esi
  0x14c7	inc    	ecx
  === BLOCK LINK ===
    0x14c8
=== CODE BLOCK END ===

=== CODE BLOCK ADDRESS 0x14c8 ===
  0x14c8	pop    	ebp
  0x14c9	inc    	ecx
  0x14ca	pop    	esp
  0x14cb	pop    	ebp
  0x14cc	ret    	
  === BLOCK LINK ===
    0x14cd
=== CODE BLOCK END ===

=== CODE BLOCK ADDRESS 0x14cd ===
  0x14cd	int3   	
  0x14ce	int3   	
  0x14cf	int3   	
  0x14d0	int3   	
  0x14d1	int3   	
  === BLOCK LINK ===
    0x14d2
=== CODE BLOCK END ===

=== CODE BLOCK ADDRESS 0x14d2 ===
  0x14d2	int3   	
  0x14d3	int3   	
  0x14d4	dec    	eax
  0x14d5	mov    	dword ptr [esp + 8], ebx
  0x14d9	dec    	eax
  === BLOCK LINK ===
    0x14da
=== CODE BLOCK END ===

=== CODE BLOCK ADDRESS 0x14da ===
  0x14da	mov    	dword ptr [esp + 0x10], esi
  0x14de	push   	edi
  0x14df	dec    	eax
  0x14e0	sub    	esp, 0x70
  0x14e3	dec    	eax
  === BLOCK LINK ===
    0x14e4
=== CODE BLOCK END ===

=== CODE BLOCK ADDRESS 0x14e4 ===
  0x14e4	mov    	eax, dword ptr [0x3b5e]
  0x14ea	dec    	eax
  0x14eb	xor    	eax, esp
  0x14ed	dec    	eax
  0x14ee	mov    	dword ptr [esp + 0x68], eax
  === BLOCK LINK ===
    0x14f2
=== CODE BLOCK END ===

=== CODE BLOCK ADDRESS 0x14f2 ===
  0x14f2	dec    	eax
  0x14f3	mov    	eax, dword ptr [0x3b0f]
  0x14f9	dec    	esp
  0x14fa	lea    	ecx, [0x3b20]
  0x1500	dec    	ecx
  === BLOCK LINK ===
    0x1501
=== CODE BLOCK END ===

=== CODE BLOCK ADDRESS 0x1501 ===
  0x1501	mov    	edi, eax
  0x1503	dec    	eax
  0x1504	lea    	edx, [0xfffffb06]
  0x150a	xorps  	xmm1, xmm1
  0x150d	dec    	esp
  === BLOCK LINK ===
    0x150e
=== CODE BLOCK END ===

=== CODE BLOCK ADDRESS 0x150e ===
  0x150e	lea    	eax, [0x3aec]
  0x1514	dec    	eax
  0x1515	lea    	ecx, [esp + 0x38]
  0x1519	movups  	xmm0, xmmword ptr [eax - 0x10]
  0x151d	movdqu  	xmmword ptr [0x3b03], xmm1
  === BLOCK LINK ===
    0x1525
=== CODE BLOCK END ===

=== CODE BLOCK ADDRESS 0x1525 ===
  0x1525	movdqu  	xmmword ptr [esp + 0x38], xmm0
  0x152b	dec    	eax
  0x152c	call   	dword ptr [0x1d0e]
  === BLOCK LINK ===
    0x1532
=== CODE BLOCK END ===

=== CODE BLOCK ADDRESS 0x1532 ===
  0x1532	nop    	dword ptr [eax + eax]
  0x1537	mov    	ebx, 2
  0x153c	test   	eax, eax
  0x153e	jne    	0x1560
  === BLOCK LINK ===
    0x1540
=== CODE BLOCK END ===

=== CODE BLOCK ADDRESS 0x1540 ===
  0x1540	dec    	esp
  0x1541	mov    	eax, dword ptr [0x3ac1]
  0x1547	mov    	edx, ebx
  0x1549	dec    	eax
  0x154a	mov    	ecx, dword ptr [0x3ad0]
  === BLOCK LINK ===
    0x1550
=== CODE BLOCK END ===

=== CODE BLOCK ADDRESS 0x1550 ===
  0x1550	inc    	ebp
  0x1551	movzx  	ecx, word ptr [eax]
  0x1554	dec    	eax
  0x1555	call   	dword ptr [0x1ced]
  === BLOCK LINK ===
    0x155b
=== CODE BLOCK END ===

=== CODE BLOCK ADDRESS 0x155b ===
  0x155b	nop    	dword ptr [eax + eax]
  0x1560	cmp    	dword ptr [0x3a99], 5
  0x1567	jbe    	0x1590
  === BLOCK LINK ===
    0x1569
=== CODE BLOCK END ===

=== CODE BLOCK ADDRESS 0x1569 ===
  0x1569	dec    	eax
  0x156a	lea    	eax, [esp + 0x38]
  0x156e	inc    	ebp
  0x156f	xor    	ecx, ecx
  0x1571	dec    	eax
  === BLOCK LINK ===
    0x1572
=== CODE BLOCK END ===

=== CODE BLOCK ADDRESS 0x1572 ===
  0x1572	mov    	dword ptr [esp + 0x28], eax
  0x1576	dec    	eax
  0x1577	lea    	edx, [0x1f5b]
  0x157d	inc    	ebp
  0x157e	xor    	eax, eax
  === BLOCK LINK ===
    0x1580
=== CODE BLOCK END ===

=== CODE BLOCK ADDRESS 0x1580 ===
  0x1580	mov    	dword ptr [esp + 0x20], ebx
  0x1584	dec    	eax
  0x1585	lea    	ecx, [0x3a75]
  0x158b	call   	0x1090
  === BLOCK LINK ===
    0x1590
=== CODE BLOCK END ===

=== CODE BLOCK ADDRESS 0x1590 ===
  0x1590	mov    	edx, 0x3a
  0x1595	dec    	eax
  0x1596	mov    	ecx, edi
  0x1598	dec    	eax
  0x1599	call   	dword ptr [0x1d31]
  === BLOCK LINK ===
    0x159f
=== CODE BLOCK END ===

=== CODE BLOCK ADDRESS 0x159f ===
  0x159f	nop    	dword ptr [eax + eax]
  0x15a4	dec    	eax
  0x15a5	mov    	ebx, eax
  0x15a7	dec    	eax
  0x15a8	test   	eax, eax
  === BLOCK LINK ===
    0x15aa
=== CODE BLOCK END ===

=== CODE BLOCK ADDRESS 0x15aa ===
  0x15aa	je     	0x1607
  === BLOCK LINK ===
    0x15ac
=== CODE BLOCK END ===

=== CODE BLOCK ADDRESS 0x15ac ===
  0x15ac	dec    	esp
  0x15ad	mov    	eax, eax
  0x15af	dec    	eax
  0x15b0	lea    	edx, [0x1e32]
  0x15b6	dec    	esp
  === BLOCK LINK ===
    0x15b7
=== CODE BLOCK END ===

=== CODE BLOCK ADDRESS 0x15b7 ===
  0x15b7	sub    	eax, edi
  0x15b9	dec    	eax
  0x15ba	mov    	ecx, edi
  0x15bc	dec    	ecx
  0x15bd	sar    	eax, 1
  === BLOCK LINK ===
    0x15bf
=== CODE BLOCK END ===

=== CODE BLOCK ADDRESS 0x15bf ===
  0x15bf	dec    	eax
  0x15c0	call   	dword ptr [0x1caa]
  === BLOCK LINK ===
    0x15c6
=== CODE BLOCK END ===

=== CODE BLOCK ADDRESS 0x15c6 ===
  0x15c6	nop    	dword ptr [eax + eax]
  0x15cb	test   	eax, eax
  0x15cd	jne    	0x1607
  === BLOCK LINK ===
    0x15cf
=== CODE BLOCK END ===

=== CODE BLOCK ADDRESS 0x15cf ===
  0x15cf	dec    	eax
  0x15d0	lea    	esi, [ebx + 2]
  0x15d3	xor    	edi, edi
  0x15d5	jmp    	0x15f7
  === BLOCK LINK ===
    0x15d7
=== CODE BLOCK END ===

=== CODE BLOCK ADDRESS 0x15d7 ===
  0x15d7	cmp    	ebx, 0x80640012
  0x15dd	jne    	0x160c
  === BLOCK LINK ===
    0x15df
=== CODE BLOCK END ===

=== CODE BLOCK ADDRESS 0x15df ===
  0x15df	inc    	edi
  0x15e1	cmp    	edi, 0xa
  0x15e4	jae    	0x160c
  === BLOCK LINK ===
    0x15e6
=== CODE BLOCK END ===

=== CODE BLOCK ADDRESS 0x15e6 ===
  0x15e6	mov    	ecx, 0x1f4
  0x15eb	dec    	eax
  0x15ec	call   	dword ptr [0x1c0e]
  === BLOCK LINK ===
    0x15f2
=== CODE BLOCK END ===

=== CODE BLOCK ADDRESS 0x15f2 ===
  0x15f2	nop    	dword ptr [eax + eax]
  0x15f7	dec    	eax
  0x15f8	mov    	ecx, esi
  0x15fa	call   	0x1158
  === BLOCK LINK ===
    0x15ff
=== CODE BLOCK END ===

=== CODE BLOCK ADDRESS 0x15ff ===
  0x15ff	mov    	ebx, eax
  0x1601	test   	eax, eax
  0x1603	js     	0x15d7
  === BLOCK LINK ===
    0x1605
=== CODE BLOCK END ===

=== CODE BLOCK ADDRESS 0x1605 ===
  0x1605	jmp    	0x160c
  === BLOCK LINK ===
    0x1607
=== CODE BLOCK END ===

=== CODE BLOCK ADDRESS 0x1607 ===
  0x1607	mov    	ebx, 0x80070057
  0x160c	cmp    	dword ptr [0x39ed], 5
  0x1613	jbe    	0x165b
  === BLOCK LINK ===
    0x1615
=== CODE BLOCK END ===

=== CODE BLOCK ADDRESS 0x1615 ===
  0x1615	and    	dword ptr [esp + 0x64], 0
  0x161a	dec    	eax
  0x161b	lea    	eax, [esp + 0x30]
  0x161f	dec    	eax
  0x1620	mov    	dword ptr [esp + 0x58], eax
  === BLOCK LINK ===
    0x1624
=== CODE BLOCK END ===

=== CODE BLOCK ADDRESS 0x1624 ===
  0x1624	dec    	eax
  0x1625	lea    	edx, [0x1e81]
  0x162b	dec    	eax
  0x162c	lea    	eax, [esp + 0x38]
  0x1630	mov    	dword ptr [esp + 0x30], ebx
  === BLOCK LINK ===
    0x1634
=== CODE BLOCK END ===

=== CODE BLOCK ADDRESS 0x1634 ===
  0x1634	dec    	eax
  0x1635	mov    	dword ptr [esp + 0x28], eax
  0x1639	dec    	eax
  0x163a	lea    	ecx, [0x39c0]
  0x1640	inc    	ebp
  === BLOCK LINK ===
    0x1641
=== CODE BLOCK END ===

=== CODE BLOCK ADDRESS 0x1641 ===
  0x1641	xor    	ecx, ecx
  0x1643	mov    	dword ptr [esp + 0x20], 3
  0x164b	inc    	ebp
  0x164c	xor    	eax, eax
  0x164e	mov    	dword ptr [esp + 0x60], 4
  === BLOCK LINK ===
    0x1656
=== CODE BLOCK END ===

=== CODE BLOCK ADDRESS 0x1656 ===
  0x1656	call   	0x1090
  === BLOCK LINK ===
    0x165b
=== CODE BLOCK END ===

=== CODE BLOCK ADDRESS 0x165b ===
  0x165b	dec    	eax
  0x165c	mov    	ecx, dword ptr [0x39be]
  0x1662	dec    	eax
  0x1663	and    	dword ptr [0x39b6], 0
  0x166a	and    	dword ptr [0x398f], 0
  === BLOCK LINK ===
    0x1671
=== CODE BLOCK END ===

=== CODE BLOCK ADDRESS 0x1671 ===
  0x1671	dec    	eax
  0x1672	call   	dword ptr [0x1bc0]
  === BLOCK LINK ===
    0x1678
=== CODE BLOCK END ===

=== CODE BLOCK ADDRESS 0x1678 ===
  0x1678	nop    	dword ptr [eax + eax]
  0x167d	mov    	eax, ebx
  0x167f	dec    	eax
  0x1680	mov    	ecx, dword ptr [esp + 0x68]
  0x1684	dec    	eax
  === BLOCK LINK ===
    0x1685
=== CODE BLOCK END ===

=== CODE BLOCK ADDRESS 0x1685 ===
  0x1685	xor    	ecx, esp
  0x1687	call   	0x1a80
  === BLOCK LINK ===
    0x168c
=== CODE BLOCK END ===

=== CODE BLOCK ADDRESS 0x168c ===
  0x168c	dec    	esp
  0x168d	lea    	ebx, [esp + 0x70]
  0x1691	dec    	ecx
  0x1692	mov    	ebx, dword ptr [ebx + 0x10]
  0x1695	dec    	ecx
  === BLOCK LINK ===
    0x1696
=== CODE BLOCK END ===

=== CODE BLOCK ADDRESS 0x1696 ===
  0x1696	mov    	esi, dword ptr [ebx + 0x18]
  0x1699	dec    	ecx
  0x169a	mov    	esp, ebx
  0x169c	pop    	edi
  0x169d	ret    	
  === BLOCK LINK ===
    0x169e
=== CODE BLOCK END ===

=== CODE BLOCK ADDRESS 0x169e ===
  0x169e	int3   	
  0x169f	int3   	
  0x16a0	int3   	
  0x16a1	int3   	
  0x16a2	int3   	
  === BLOCK LINK ===
    0x16a3
=== CODE BLOCK END ===

=== CODE BLOCK ADDRESS 0x16a3 ===
  0x16a3	int3   	
  0x16a4	int3   	
  0x16a5	int3   	
  0x16a6	int3   	
  0x16a7	int3   	
  === BLOCK LINK ===
    0x16a8
=== CODE BLOCK END ===

=== CODE BLOCK ADDRESS 0x16a8 ===
  0x16a8	int3   	
  0x16a9	int3   	
  0x16aa	int3   	
  0x16ab	int3   	
  0x16ac	int3   	
  === BLOCK LINK ===
    0x16ad
=== CODE BLOCK END ===

=== CODE BLOCK ADDRESS 0x16ad ===
  0x16ad	int3   	
  0x16ae	int3   	
  0x16af	int3   	
  0x16b0	dec    	eax
  0x16b1	sub    	esp, 0x28
  === BLOCK LINK ===
    0x16b4
=== CODE BLOCK END ===

=== CODE BLOCK ADDRESS 0x16b4 ===
  0x16b4	mov    	eax, 0x5a4d
  0x16b9	cmp    	word ptr [0xffffe940], ax
  0x16c0	je     	0x16c6
  === BLOCK LINK ===
    0x16c2
=== CODE BLOCK END ===

=== CODE BLOCK ADDRESS 0x16c2 ===
  0x16c2	xor    	eax, eax
  0x16c4	jmp    	0x1719
  === BLOCK LINK ===
    0x16c6
=== CODE BLOCK END ===

=== CODE BLOCK ADDRESS 0x16c6 ===
  0x16c6	dec    	eax
  0x16c7	arpl   	word ptr [0xffffe96f], cx
  0x16cd	dec    	eax
  0x16ce	lea    	eax, [0xffffe92c]
  0x16d4	dec    	eax
  === BLOCK LINK ===
    0x16d5
=== CODE BLOCK END ===

=== CODE BLOCK ADDRESS 0x16d5 ===
  0x16d5	add    	ecx, eax
  0x16d7	cmp    	dword ptr [ecx], 0x4550
  0x16dd	jne    	0x16c2
  === BLOCK LINK ===
    0x16df
=== CODE BLOCK END ===

=== CODE BLOCK ADDRESS 0x16df ===
  0x16df	mov    	eax, 0x10b
  0x16e4	cmp    	word ptr [ecx + 0x18], ax
  0x16e8	je     	0x1708
  === BLOCK LINK ===
    0x16ea
=== CODE BLOCK END ===

=== CODE BLOCK ADDRESS 0x16ea ===
  0x16ea	mov    	eax, 0x20b
  0x16ef	cmp    	word ptr [ecx + 0x18], ax
  0x16f3	jne    	0x16c2
  === BLOCK LINK ===
    0x16f5
=== CODE BLOCK END ===

=== CODE BLOCK ADDRESS 0x16f5 ===
  0x16f5	xor    	eax, eax
  0x16f7	cmp    	dword ptr [ecx + 0x84], 0xe
  0x16fe	jbe    	0x1719
  === BLOCK LINK ===
    0x1700
=== CODE BLOCK END ===

=== CODE BLOCK ADDRESS 0x1700 ===
  0x1700	cmp    	dword ptr [ecx + 0xf8], eax
  0x1706	jmp    	0x1716
  === BLOCK LINK ===
    0x1708
=== CODE BLOCK END ===

=== CODE BLOCK ADDRESS 0x1708 ===
  0x1708	xor    	eax, eax
  0x170a	cmp    	dword ptr [ecx + 0x74], 0xe
  0x170e	jbe    	0x1719
  === BLOCK LINK ===
    0x1710
=== CODE BLOCK END ===

=== CODE BLOCK ADDRESS 0x1710 ===
  0x1710	cmp    	dword ptr [ecx + 0xe8], eax
  0x1716	setne  	al
  0x1719	mov    	ecx, 2
  0x171e	mov    	dword ptr [0x395c], eax
  0x1724	call   	0x1b78
  === BLOCK LINK ===
    0x1729
=== CODE BLOCK END ===

=== CODE BLOCK ADDRESS 0x1729 ===
  0x1729	mov    	ecx, eax
  0x172b	call   	dword ptr [0x1b7f]
  === BLOCK LINK ===
    0x1731
=== CODE BLOCK END ===

=== CODE BLOCK ADDRESS 0x1731 ===
  0x1731	dec    	eax
  0x1732	mov    	ecx, dword ptr [0x1b28]
  0x1738	dec    	eax
  0x1739	or     	eax, 0xffffffff
  0x173c	dec    	eax
  === BLOCK LINK ===
    0x173d
=== CODE BLOCK END ===

=== CODE BLOCK ADDRESS 0x173d ===
  0x173d	mov    	dword ptr [0x3ecd], eax
  0x1743	dec    	eax
  0x1744	mov    	dword ptr [0x3ece], eax
  0x174a	mov    	eax, dword ptr [0x3944]
  0x1750	mov    	dword ptr [ecx], eax
  === BLOCK LINK ===
    0x1752
=== CODE BLOCK END ===

=== CODE BLOCK ADDRESS 0x1752 ===
  0x1752	dec    	eax
  0x1753	mov    	ecx, dword ptr [0x1aff]
  0x1759	mov    	eax, dword ptr [0x3929]
  0x175f	mov    	dword ptr [ecx], eax
  0x1761	call   	0x1bd0
  === BLOCK LINK ===
    0x1766
=== CODE BLOCK END ===

=== CODE BLOCK ADDRESS 0x1766 ===
  0x1766	cmp    	dword ptr [0x38d3], 0
  0x176d	jne    	0x177c
  === BLOCK LINK ===
    0x176f
=== CODE BLOCK END ===

=== CODE BLOCK ADDRESS 0x176f ===
  0x176f	dec    	eax
  0x1770	lea    	ecx, [0x45a]
  0x1776	call   	dword ptr [0x1b0c]
  === BLOCK LINK ===
    0x177c
=== CODE BLOCK END ===

=== CODE BLOCK ADDRESS 0x177c ===
  0x177c	xor    	eax, eax
  0x177e	dec    	eax
  0x177f	add    	esp, 0x28
  0x1782	ret    	
  0x1783	int3   	
  === BLOCK LINK ===
    0x1784
=== CODE BLOCK END ===

=== CODE BLOCK ADDRESS 0x1784 ===
  0x1784	int3   	
  0x1785	int3   	
  0x1786	int3   	
  0x1787	int3   	
  0x1788	int3   	
  === BLOCK LINK ===
    0x1789
=== CODE BLOCK END ===

=== CODE BLOCK ADDRESS 0x1789 ===
  0x1789	int3   	
  0x178a	int3   	
  0x178b	int3   	
  0x178c	int3   	
  0x178d	int3   	
  === BLOCK LINK ===
    0x178e
=== CODE BLOCK END ===

=== CODE BLOCK ADDRESS 0x178e ===
  0x178e	int3   	
  0x178f	int3   	
  0x1790	dec    	eax
  0x1791	sub    	esp, 0x38
  0x1794	mov    	eax, dword ptr [0x38f6]
  === BLOCK LINK ===
    0x179a
=== CODE BLOCK END ===

=== CODE BLOCK ADDRESS 0x179a ===
  0x179a	dec    	esp
  0x179b	lea    	eax, [0x38d7]
  0x17a1	inc    	esp
  0x17a2	mov    	ecx, dword ptr [0x38e4]
  0x17a8	dec    	eax
  === BLOCK LINK ===
    0x17a9
=== CODE BLOCK END ===

=== CODE BLOCK ADDRESS 0x17a9 ===
  0x17a9	lea    	edx, [0x38c1]
  0x17af	mov    	dword ptr [0x38cf], eax
  0x17b5	dec    	eax
  0x17b6	lea    	ecx, [0x38ac]
  0x17bc	dec    	eax
  === BLOCK LINK ===
    0x17bd
=== CODE BLOCK END ===

=== CODE BLOCK ADDRESS 0x17bd ===
  0x17bd	lea    	eax, [0x38c1]
  0x17c3	dec    	eax
  0x17c4	mov    	dword ptr [esp + 0x20], eax
  0x17c8	call   	dword ptr [0x1aea]
  === BLOCK LINK ===
    0x17ce
=== CODE BLOCK END ===

=== CODE BLOCK ADDRESS 0x17ce ===
  0x17ce	mov    	dword ptr [0x3898], eax
  0x17d4	dec    	eax
  0x17d5	add    	esp, 0x38
  0x17d8	ret    	
  0x17d9	int3   	
  === BLOCK LINK ===
    0x17da
=== CODE BLOCK END ===

=== CODE BLOCK ADDRESS 0x17da ===
  0x17da	int3   	
  0x17db	int3   	
  0x17dc	int3   	
  0x17dd	int3   	
  0x17de	int3   	
  === BLOCK LINK ===
    0x17df
=== CODE BLOCK END ===

=== CODE BLOCK ADDRESS 0x17df ===
  0x17df	int3   	
  0x17e0	dec    	eax
  0x17e1	mov    	eax, esp
  0x17e3	dec    	eax
  0x17e4	mov    	dword ptr [eax + 8], ebx
  === BLOCK LINK ===
    0x17e7
=== CODE BLOCK END ===

=== CODE BLOCK ADDRESS 0x17e7 ===
  0x17e7	dec    	eax
  0x17e8	mov    	dword ptr [eax + 0x10], esi
  0x17eb	dec    	eax
  0x17ec	mov    	dword ptr [eax + 0x18], edi
  0x17ef	dec    	esp
  === BLOCK LINK ===
    0x17f0
=== CODE BLOCK END ===

=== CODE BLOCK ADDRESS 0x17f0 ===
  0x17f0	mov    	dword ptr [eax + 0x20], esi
  0x17f3	inc    	ecx
  0x17f4	push   	edi
  0x17f5	dec    	eax
  0x17f6	sub    	esp, 0xb0
  === BLOCK LINK ===
    0x17fc
=== CODE BLOCK END ===

=== CODE BLOCK ADDRESS 0x17fc ===
  0x17fc	inc    	ebp
  0x17fd	xor    	esi, esi
  0x17ff	inc    	esp
  0x1800	mov    	dword ptr [esp + 0x20], esi
  0x1804	dec    	eax
  === BLOCK LINK ===
    0x1805
=== CODE BLOCK END ===

=== CODE BLOCK ADDRESS 0x1805 ===
  0x1805	lea    	ecx, [eax - 0x78]
  0x1808	call   	dword ptr [0x198a]
  === BLOCK LINK ===
    0x180e
=== CODE BLOCK END ===

=== CODE BLOCK ADDRESS 0x180e ===
  0x180e	nop    	
  0x180f	dec    	eax
  0x1811	mov    	eax, dword ptr [0x30]
  0x1818	dec    	eax
  0x1819	mov    	ebx, dword ptr [eax + 8]
  === BLOCK LINK ===
    0x181c
=== CODE BLOCK END ===

=== CODE BLOCK ADDRESS 0x181c ===
  0x181c	inc    	ecx
  0x181d	mov    	esi, esi
  0x181f	xor    	eax, eax
  0x1821	.byte  	0xf0
  0x1822	dec    	eax
  === BLOCK LINK ===
    0x1823
=== CODE BLOCK END ===

=== CODE BLOCK ADDRESS 0x1823 ===
  0x1823	cmpxchg  	dword ptr [0x3df6], ebx
  0x182a	je     	0x1847
  === BLOCK LINK ===
    0x182c
=== CODE BLOCK END ===

=== CODE BLOCK ADDRESS 0x182c ===
  0x182c	dec    	eax
  0x182d	cmp    	eax, ebx
  0x182f	jne    	0x183a
  === BLOCK LINK ===
    0x1831
=== CODE BLOCK END ===

=== CODE BLOCK ADDRESS 0x1831 ===
  0x1831	mov    	ebx, 1
  0x1836	mov    	esi, ebx
  0x1838	jmp    	0x184c
  === BLOCK LINK ===
    0x183a
=== CODE BLOCK END ===

=== CODE BLOCK ADDRESS 0x183a ===
  0x183a	mov    	ecx, 0x3e8
  0x183f	call   	dword ptr [0x19bb]
  === BLOCK LINK ===
    0x1845
=== CODE BLOCK END ===

=== CODE BLOCK ADDRESS 0x1845 ===
  0x1845	jmp    	0x181f
  === BLOCK LINK ===
    0x1847
=== CODE BLOCK END ===

=== CODE BLOCK ADDRESS 0x1847 ===
  0x1847	mov    	ebx, 1
  0x184c	mov    	eax, dword ptr [0x3dd6]
  0x1852	cmp    	eax, ebx
  0x1854	jne    	0x1864
  === BLOCK LINK ===
    0x1856
=== CODE BLOCK END ===

=== CODE BLOCK ADDRESS 0x1856 ===
  0x1856	mov    	edi, 0x1f
  0x185b	mov    	ecx, edi
  0x185d	call   	0x1bc3
  === BLOCK LINK ===
    0x1862
=== CODE BLOCK END ===

=== CODE BLOCK ADDRESS 0x1862 ===
  0x1862	jmp    	0x18d0
  === BLOCK LINK ===
    0x1864
=== CODE BLOCK END ===

=== CODE BLOCK ADDRESS 0x1864 ===
  0x1864	mov    	eax, dword ptr [0x3dbe]
  0x186a	test   	eax, eax
  0x186c	jne    	0x18c5
  === BLOCK LINK ===
    0x186e
=== CODE BLOCK END ===

=== CODE BLOCK ADDRESS 0x186e ===
  0x186e	mov    	dword ptr [0x3db4], ebx
  0x1874	dec    	esp
  0x1875	lea    	edi, [0x1aa5]
  0x187b	dec    	eax
  0x187c	lea    	edi, [0x1a86]
  === BLOCK LINK ===
    0x1882
=== CODE BLOCK END ===

=== CODE BLOCK ADDRESS 0x1882 ===
  0x1882	dec    	eax
  0x1883	mov    	dword ptr [esp + 0x30], edi
  0x1887	inc    	ecx
  0x1888	mov    	eax, esi
  0x188a	mov    	dword ptr [esp + 0x24], eax
  === BLOCK LINK ===
    0x188e
=== CODE BLOCK END ===

=== CODE BLOCK ADDRESS 0x188e ===
  0x188e	dec    	ecx
  0x188f	cmp    	edi, edi
  0x1891	jae    	0x18b7
  === BLOCK LINK ===
    0x1893
=== CODE BLOCK END ===

=== CODE BLOCK ADDRESS 0x1893 ===
  0x1893	test   	eax, eax
  0x1895	jne    	0x18bb
  === BLOCK LINK ===
    0x1897
=== CODE BLOCK END ===

=== CODE BLOCK ADDRESS 0x1897 ===
  0x1897	dec    	esp
  0x1898	cmp    	dword ptr [edi], esi
  0x189a	je     	0x18ac
  === BLOCK LINK ===
    0x189c
=== CODE BLOCK END ===

=== CODE BLOCK ADDRESS 0x189c ===
  0x189c	dec    	eax
  0x189d	mov    	eax, dword ptr [edi]
  0x189f	dec    	eax
  0x18a0	mov    	ecx, dword ptr [0x1a42]
  0x18a6	call   	ecx
  === BLOCK LINK ===
    0x18a8
=== CODE BLOCK END ===

=== CODE BLOCK ADDRESS 0x18a8 ===
  0x18a8	mov    	dword ptr [esp + 0x24], eax
  0x18ac	dec    	eax
  0x18ad	add    	edi, 8
  0x18b0	dec    	eax
  0x18b1	mov    	dword ptr [esp + 0x30], edi
  === BLOCK LINK ===
    0x18b5
=== CODE BLOCK END ===

=== CODE BLOCK ADDRESS 0x18b5 ===
  0x18b5	jmp    	0x188e
  === BLOCK LINK ===
    0x18b7
=== CODE BLOCK END ===

=== CODE BLOCK ADDRESS 0x18b7 ===
  0x18b7	test   	eax, eax
  0x18b9	je     	0x18cb
  === BLOCK LINK ===
    0x18bb
=== CODE BLOCK END ===

=== CODE BLOCK ADDRESS 0x18bb ===
  0x18bb	mov    	eax, 0xff
  0x18c0	jmp    	0x1a26
  === BLOCK LINK ===
    0x18c5
=== CODE BLOCK END ===

=== CODE BLOCK ADDRESS 0x18c5 ===
  0x18c5	mov    	dword ptr [0x3799], ebx
  0x18cb	mov    	edi, 0x1f
  0x18d0	mov    	eax, dword ptr [0x3d52]
  0x18d6	cmp    	eax, ebx
  0x18d8	jne    	0x18f7
  === BLOCK LINK ===
    0x18da
=== CODE BLOCK END ===

=== CODE BLOCK ADDRESS 0x18da ===
  0x18da	dec    	eax
  0x18db	lea    	edx, [0x1a1f]
  0x18e1	dec    	eax
  0x18e2	lea    	ecx, [0x1a08]
  0x18e8	call   	0x1d9e
  === BLOCK LINK ===
    0x18ed
=== CODE BLOCK END ===

=== CODE BLOCK ADDRESS 0x18ed ===
  0x18ed	mov    	dword ptr [0x3d31], 2
  0x18f7	test   	esi, esi
  0x18f9	jne    	0x1905
  === BLOCK LINK ===
    0x18fb
=== CODE BLOCK END ===

=== CODE BLOCK ADDRESS 0x18fb ===
  0x18fb	dec    	ecx
  0x18fc	mov    	eax, esi
  0x18fe	dec    	eax
  0x18ff	xchg   	dword ptr [0x3d1b], eax
  0x1905	dec    	esp
  === BLOCK LINK ===
    0x1906
=== CODE BLOCK END ===

=== CODE BLOCK ADDRESS 0x1906 ===
  0x1906	cmp    	dword ptr [0x3d24], esi
  0x190c	je     	0x1938
  === BLOCK LINK ===
    0x190e
=== CODE BLOCK END ===

=== CODE BLOCK ADDRESS 0x190e ===
  0x190e	dec    	eax
  0x190f	lea    	ecx, [0x3d1b]
  0x1915	call   	0x1c30
  === BLOCK LINK ===
    0x191a
=== CODE BLOCK END ===

=== CODE BLOCK ADDRESS 0x191a ===
  0x191a	test   	eax, eax
  0x191c	je     	0x1938
  === BLOCK LINK ===
    0x191e
=== CODE BLOCK END ===

=== CODE BLOCK ADDRESS 0x191e ===
  0x191e	inc    	ebp
  0x191f	xor    	eax, eax
  0x1921	inc    	ecx
  0x1922	lea    	edx, [eax + 2]
  0x1925	xor    	ecx, ecx
  === BLOCK LINK ===
    0x1927
=== CODE BLOCK END ===

=== CODE BLOCK ADDRESS 0x1927 ===
  0x1927	dec    	eax
  0x1928	mov    	eax, dword ptr [0x3d02]
  0x192e	dec    	esp
  0x192f	mov    	ecx, dword ptr [0x19b3]
  0x1935	inc    	ecx
  === BLOCK LINK ===
    0x1936
=== CODE BLOCK END ===

=== CODE BLOCK ADDRESS 0x1936 ===
  0x1936	call   	ecx
  === BLOCK LINK ===
    0x1938
=== CODE BLOCK END ===

=== CODE BLOCK ADDRESS 0x1938 ===
  0x1938	dec    	eax
  0x1939	mov    	eax, dword ptr [0x1929]
  0x193f	dec    	eax
  0x1940	mov    	ecx, dword ptr [eax]
  0x1942	dec    	eax
  === BLOCK LINK ===
    0x1943
=== CODE BLOCK END ===

=== CODE BLOCK ADDRESS 0x1943 ===
  0x1943	test   	ecx, ecx
  0x1945	jne    	0x1951
  === BLOCK LINK ===
    0x1947
=== CODE BLOCK END ===

=== CODE BLOCK ADDRESS 0x1947 ===
  0x1947	mov    	eax, 0xff
  0x194c	jmp    	0x1a26
  === BLOCK LINK ===
    0x1951
=== CODE BLOCK END ===

=== CODE BLOCK ADDRESS 0x1951 ===
  0x1951	dec    	eax
  0x1952	mov    	dword ptr [esp + 0x28], ecx
  0x1956	mov    	edx, dword ptr [esp + 0x20]
  0x195a	movzx  	eax, word ptr [ecx]
  0x195d	cmp    	ax, 0x20
  === BLOCK LINK ===
    0x1961
=== CODE BLOCK END ===

=== CODE BLOCK ADDRESS 0x1961 ===
  0x1961	ja     	0x19d7
  === BLOCK LINK ===
    0x1963
=== CODE BLOCK END ===

=== CODE BLOCK ADDRESS 0x1963 ===
  0x1963	test   	ax, ax
  0x1966	je     	0x196c
  === BLOCK LINK ===
    0x1968
=== CODE BLOCK END ===

=== CODE BLOCK ADDRESS 0x1968 ===
  0x1968	test   	edx, edx
  0x196a	jne    	0x19d7
  === BLOCK LINK ===
    0x196c
=== CODE BLOCK END ===

=== CODE BLOCK ADDRESS 0x196c ===
  0x196c	sub    	ax, bx
  0x196f	cmp    	ax, di
  0x1972	ja     	0x1982
  === BLOCK LINK ===
    0x1974
=== CODE BLOCK END ===

=== CODE BLOCK ADDRESS 0x1974 ===
  0x1974	dec    	eax
  0x1975	add    	ecx, 2
  0x1978	dec    	eax
  0x1979	mov    	dword ptr [esp + 0x28], ecx
  0x197d	movzx  	eax, word ptr [ecx]
  === BLOCK LINK ===
    0x1980
=== CODE BLOCK END ===

=== CODE BLOCK ADDRESS 0x1980 ===
  0x1980	jmp    	0x196c
  === BLOCK LINK ===
    0x1982
=== CODE BLOCK END ===

=== CODE BLOCK ADDRESS 0x1982 ===
  0x1982	test   	byte ptr [esp + 0x7c], bl
  0x1986	movzx  	eax, word ptr [esp + 0x80]
  0x198e	inc    	ecx
  0x198f	mov    	ecx, 0xa
  0x1994	inc    	esp
  === BLOCK LINK ===
    0x1995
=== CODE BLOCK END ===

=== CODE BLOCK ADDRESS 0x1995 ===
  0x1995	cmovne  	ecx, eax
  0x1998	dec    	esp
  0x1999	mov    	eax, ecx
  0x199b	xor    	edx, edx
  0x199d	dec    	eax
  === BLOCK LINK ===
    0x199e
=== CODE BLOCK END ===

=== CODE BLOCK ADDRESS 0x199e ===
  0x199e	lea    	ecx, [0xffffe65c]
  0x19a4	call   	0x14d4
  === BLOCK LINK ===
    0x19a9
=== CODE BLOCK END ===

=== CODE BLOCK ADDRESS 0x19a9 ===
  0x19a9	mov    	dword ptr [0x36b1], eax
  0x19af	inc    	esp
  0x19b0	cmp    	dword ptr [0x36ca], esi
  0x19b6	jne    	0x19c0
  === BLOCK LINK ===
    0x19b8
=== CODE BLOCK END ===

=== CODE BLOCK ADDRESS 0x19b8 ===
  0x19b8	mov    	ecx, eax
  0x19ba	call   	dword ptr [0x18e0]
  === BLOCK LINK ===
    0x19c0
=== CODE BLOCK END ===

=== CODE BLOCK ADDRESS 0x19c0 ===
  0x19c0	inc    	esp
  0x19c1	cmp    	dword ptr [0x369d], esi
  0x19c7	jne    	0x19d5
  === BLOCK LINK ===
    0x19c9
=== CODE BLOCK END ===

=== CODE BLOCK ADDRESS 0x19c9 ===
  0x19c9	call   	dword ptr [0x18c1]
  === BLOCK LINK ===
    0x19cf
=== CODE BLOCK END ===

=== CODE BLOCK ADDRESS 0x19cf ===
  0x19cf	mov    	eax, dword ptr [0x368b]
  0x19d5	jmp    	0x1a26
  === BLOCK LINK ===
    0x19d7
=== CODE BLOCK END ===

=== CODE BLOCK ADDRESS 0x19d7 ===
  0x19d7	cmp    	ax, 0x22
  0x19db	jne    	0x19eb
  === BLOCK LINK ===
    0x19dd
=== CODE BLOCK END ===

=== CODE BLOCK ADDRESS 0x19dd ===
  0x19dd	inc    	ecx
  0x19de	mov    	eax, esi
  0x19e0	test   	edx, edx
  0x19e2	sete   	al
  0x19e5	mov    	edx, eax
  === BLOCK LINK ===
    0x19e7
=== CODE BLOCK END ===

=== CODE BLOCK ADDRESS 0x19e7 ===
  0x19e7	mov    	dword ptr [esp + 0x20], eax
  0x19eb	dec    	eax
  0x19ec	add    	ecx, 2
  0x19ef	dec    	eax
  0x19f0	mov    	dword ptr [esp + 0x28], ecx
  === BLOCK LINK ===
    0x19f4
=== CODE BLOCK END ===

=== CODE BLOCK ADDRESS 0x19f4 ===
  0x19f4	jmp    	0x195a
  === BLOCK LINK ===
    0x19f9
=== CODE BLOCK END ===

=== CODE BLOCK ADDRESS 0x19f9 ===
  0x19f9	mov    	dword ptr [0x3661], eax
  0x19ff	cmp    	dword ptr [0x367a], 0
  0x1a06	jne    	0x1a11
  === BLOCK LINK ===
    0x1a08
=== CODE BLOCK END ===

=== CODE BLOCK ADDRESS 0x1a08 ===
  0x1a08	mov    	ecx, eax
  0x1a0a	call   	dword ptr [0x1888]
  === BLOCK LINK ===
    0x1a10
=== CODE BLOCK END ===

=== CODE BLOCK ADDRESS 0x1a10 ===
  0x1a10	int3   	
  0x1a11	cmp    	dword ptr [0x364c], 0
  0x1a18	jne    	0x1a26
  === BLOCK LINK ===
    0x1a1a
=== CODE BLOCK END ===

=== CODE BLOCK ADDRESS 0x1a1a ===
  0x1a1a	call   	dword ptr [0x1870]
  === BLOCK LINK ===
    0x1a20
=== CODE BLOCK END ===

=== CODE BLOCK ADDRESS 0x1a20 ===
  0x1a20	mov    	eax, dword ptr [0x363a]
  0x1a26	dec    	esp
  0x1a27	lea    	ebx, [esp + 0xb0]
  0x1a2e	dec    	ecx
  0x1a2f	mov    	ebx, dword ptr [ebx + 0x10]
  === BLOCK LINK ===
    0x1a32
=== CODE BLOCK END ===

=== CODE BLOCK ADDRESS 0x1a32 ===
  0x1a32	dec    	ecx
  0x1a33	mov    	esi, dword ptr [ebx + 0x18]
  0x1a36	dec    	ecx
  0x1a37	mov    	edi, dword ptr [ebx + 0x20]
  0x1a3a	dec    	ebp
  === BLOCK LINK ===
    0x1a3b
=== CODE BLOCK END ===

=== CODE BLOCK ADDRESS 0x1a3b ===
  0x1a3b	mov    	esi, dword ptr [ebx + 0x28]
  0x1a3e	dec    	ecx
  0x1a3f	mov    	esp, ebx
  0x1a41	inc    	ecx
  0x1a42	pop    	edi
  === BLOCK LINK ===
    0x1a43
=== CODE BLOCK END ===

=== CODE BLOCK ADDRESS 0x1a43 ===
  0x1a43	ret    	
  0x1a44	int3   	
  0x1a45	int3   	
  0x1a46	int3   	
  0x1a47	int3   	
  === BLOCK LINK ===
    0x1a48
=== CODE BLOCK END ===

=== CODE BLOCK ADDRESS 0x11c2 ===
  0x11c2	cmp    	word ptr [eax], si
  0x11c5	je     	0x11d0
  === BLOCK LINK ===
    0x11c7
    0x11d0
=== CODE BLOCK END ===

=== CODE BLOCK ADDRESS 0x1a48 ===
  0x1a48	int3   	
  0x1a49	int3   	
  0x1a4a	int3   	
  0x1a4b	int3   	
  0x1a4c	int3   	
  === BLOCK LINK ===
    0x1a4d
=== CODE BLOCK END ===

=== CODE BLOCK ADDRESS 0x1a4d ===
  0x1a4d	int3   	
  0x1a4e	int3   	
  0x1a4f	int3   	
  0x1a50	dec    	eax
  0x1a51	sub    	esp, 0x28
  === BLOCK LINK ===
    0x1a54
=== CODE BLOCK END ===

=== CODE BLOCK ADDRESS 0x1a54 ===
  0x1a54	call   	0x1cc4
  === BLOCK LINK ===
    0x1a59
=== CODE BLOCK END ===

=== CODE BLOCK ADDRESS 0x1a59 ===
  0x1a59	dec    	eax
  0x1a5a	add    	esp, 0x28
  0x1a5d	jmp    	0x17e0
  === BLOCK LINK ===
    0x1a62
=== CODE BLOCK END ===

=== CODE BLOCK ADDRESS 0x1a62 ===
  0x1a62	int3   	
  0x1a63	int3   	
  0x1a64	int3   	
  0x1a65	int3   	
  0x1a66	int3   	
  === BLOCK LINK ===
    0x1a67
=== CODE BLOCK END ===

=== CODE BLOCK ADDRESS 0x1a67 ===
  0x1a67	int3   	
  0x1a68	int3   	
  0x1a69	int3   	
  0x1a6a	int3   	
  0x1a6b	int3   	
  === BLOCK LINK ===
    0x1a6c
=== CODE BLOCK END ===

=== CODE BLOCK ADDRESS 0x1a6c ===
  0x1a6c	int3   	
  0x1a6d	int3   	
  0x1a6e	int3   	
  0x1a6f	int3   	
  0x1a70	int3   	
  === BLOCK LINK ===
    0x1a71
=== CODE BLOCK END ===

=== CODE BLOCK ADDRESS 0x1a71 ===
  0x1a71	int3   	
  0x1a72	int3   	
  0x1a73	int3   	
  0x1a74	int3   	
  0x1a75	int3   	
  === BLOCK LINK ===
    0x1a76
=== CODE BLOCK END ===

=== CODE BLOCK ADDRESS 0x1a76 ===
  0x1a76	nop    	word ptr [eax + eax]
  0x1a80	dec    	eax
  0x1a81	cmp    	ecx, dword ptr [0x35c1]
  0x1a87	jne    	0x1a99
  === BLOCK LINK ===
    0x1a89
=== CODE BLOCK END ===

=== CODE BLOCK ADDRESS 0x1a89 ===
  0x1a89	dec    	eax
  0x1a8a	rol    	ecx, 0x10
  0x1a8d	test   	cx, 0xffff
  0x1a92	jne    	0x1a95
  === BLOCK LINK ===
    0x1a94
=== CODE BLOCK END ===

=== CODE BLOCK ADDRESS 0x1a94 ===
  0x1a94	ret    	
  0x1a95	dec    	eax
  0x1a96	ror    	ecx, 0x10
  0x1a99	jmp    	0x1e10
  === BLOCK LINK ===
    0x1a9e
=== CODE BLOCK END ===

=== CODE BLOCK ADDRESS 0x1a9e ===
  0x1a9e	int3   	
  0x1a9f	int3   	
  0x1aa0	int3   	
  0x1aa1	int3   	
  0x1aa2	int3   	
  === BLOCK LINK ===
    0x1aa3
=== CODE BLOCK END ===

=== CODE BLOCK ADDRESS 0x1aa3 ===
  0x1aa3	int3   	
  0x1aa4	int3   	
  0x1aa5	int3   	
  0x1aa6	int3   	
  0x1aa7	int3   	
  === BLOCK LINK ===
    0x1aa8
=== CODE BLOCK END ===

=== CODE BLOCK ADDRESS 0x1aa8 ===
  0x1aa8	int3   	
  0x1aa9	int3   	
  0x1aaa	int3   	
  0x1aab	int3   	
  0x1aac	int3   	
  === BLOCK LINK ===
    0x1aad
=== CODE BLOCK END ===

=== CODE BLOCK ADDRESS 0x1aad ===
  0x1aad	int3   	
  0x1aae	int3   	
  0x1aaf	int3   	
  0x1ab0	dec    	eax
  0x1ab1	sub    	esp, 0x28
  === BLOCK LINK ===
    0x1ab4
=== CODE BLOCK END ===

=== CODE BLOCK ADDRESS 0x1ab4 ===
  0x1ab4	dec    	eax
  0x1ab5	mov    	eax, dword ptr [ecx]
  0x1ab7	cmp    	dword ptr [eax], 0xe06d7363
  0x1abd	jne    	0x1ae2
  === BLOCK LINK ===
    0x1abf
=== CODE BLOCK END ===

=== CODE BLOCK ADDRESS 0x1abf ===
  0x1abf	cmp    	dword ptr [eax + 0x18], 4
  0x1ac3	jne    	0x1ae2
  === BLOCK LINK ===
    0x1ac5
=== CODE BLOCK END ===

=== CODE BLOCK ADDRESS 0x1ac5 ===
  0x1ac5	mov    	ecx, dword ptr [eax + 0x20]
  0x1ac8	lea    	eax, [ecx - 0x19930520]
  0x1ace	cmp    	eax, 2
  0x1ad1	jbe    	0x1adb
  === BLOCK LINK ===
    0x1ad3
=== CODE BLOCK END ===

=== CODE BLOCK ADDRESS 0x1ad3 ===
  0x1ad3	cmp    	ecx, 0x1994000
  0x1ad9	jne    	0x1ae2
  === BLOCK LINK ===
    0x1adb
=== CODE BLOCK END ===

=== CODE BLOCK ADDRESS 0x1adb ===
  0x1adb	call   	dword ptr [0x1797]
  === BLOCK LINK ===
    0x1ae1
=== CODE BLOCK END ===

=== CODE BLOCK ADDRESS 0x1ae1 ===
  0x1ae1	int3   	
  0x1ae2	xor    	eax, eax
  0x1ae4	dec    	eax
  0x1ae5	add    	esp, 0x28
  0x1ae8	ret    	
  === BLOCK LINK ===
    0x1ae9
=== CODE BLOCK END ===

=== CODE BLOCK ADDRESS 0x11f0 ===
  0x11f0	dec    	eax
  0x11f1	test   	ecx, ecx
  0x11f3	je     	0x1258
  === BLOCK LINK ===
    0x11f5
=== CODE BLOCK END ===

=== CODE BLOCK ADDRESS 0x1ae9 ===
  0x1ae9	int3   	
  0x1aea	int3   	
  0x1aeb	int3   	
  0x1aec	int3   	
  0x1aed	int3   	
  === BLOCK LINK ===
    0x1aee
=== CODE BLOCK END ===

=== CODE BLOCK ADDRESS 0x1aee ===
  0x1aee	int3   	
  0x1aef	int3   	
  0x1af0	dec    	eax
  0x1af1	sub    	esp, 0x28
  0x1af4	dec    	eax
  === BLOCK LINK ===
    0x1af5
=== CODE BLOCK END ===

=== CODE BLOCK ADDRESS 0x1af5 ===
  0x1af5	lea    	ecx, [0xffffffb5]
  0x1afb	call   	dword ptr [0x1627]
  === BLOCK LINK ===
    0x1b01
=== CODE BLOCK END ===

=== CODE BLOCK ADDRESS 0x1b01 ===
  0x1b01	xor    	eax, eax
  0x1b03	dec    	eax
  0x1b04	add    	esp, 0x28
  0x1b07	ret    	
  0x1b08	int3   	
  === BLOCK LINK ===
    0x1b09
=== CODE BLOCK END ===

=== CODE BLOCK ADDRESS 0x1258 ===
  0x1258	test   	ebx, ebx
  0x125a	js     	0x1423
  === BLOCK LINK ===
    0x1260
=== CODE BLOCK END ===

=== CODE BLOCK ADDRESS 0x1b09 ===
  0x1b09	int3   	
  0x1b0a	int3   	
  0x1b0b	int3   	
  0x1b0c	int3   	
  0x1b0d	int3   	
  === BLOCK LINK ===
    0x1b0e
=== CODE BLOCK END ===

=== CODE BLOCK ADDRESS 0x1b0e ===
  0x1b0e	jmp    	dword ptr [0x17b4]
  === BLOCK LINK ===
    0x1b14
=== CODE BLOCK END ===

=== CODE BLOCK ADDRESS 0x1b14 ===
  0x1b14	int3   	
  0x1b15	int3   	
  0x1b16	int3   	
  0x1b17	int3   	
  0x1b18	int3   	
  === BLOCK LINK ===
    0x1b19
=== CODE BLOCK END ===

=== CODE BLOCK ADDRESS 0x1b19 ===
  0x1b19	int3   	
  0x1b1a	int3   	
  0x1b1b	int3   	
  0x1b1c	dec    	eax
  0x1b1d	sub    	esp, 0x18
  === BLOCK LINK ===
    0x1b20
=== CODE BLOCK END ===

=== CODE BLOCK ADDRESS 0x1b20 ===
  0x1b20	xor    	edx, edx
  0x1b22	dec    	eax
  0x1b23	lea    	eax, [ecx - 1]
  0x1b26	dec    	eax
  0x1b27	cmp    	eax, -3
  === BLOCK LINK ===
    0x1b2a
=== CODE BLOCK END ===

=== CODE BLOCK ADDRESS 0x1b2a ===
  0x1b2a	ja     	0x1b68
  === BLOCK LINK ===
    0x1b2c
=== CODE BLOCK END ===

=== CODE BLOCK ADDRESS 0x1b2c ===
  0x1b2c	mov    	eax, 0x5a4d
  0x1b31	cmp    	word ptr [ecx], ax
  0x1b34	jne    	0x1b60
  === BLOCK LINK ===
    0x1b36
=== CODE BLOCK END ===

=== CODE BLOCK ADDRESS 0x1b36 ===
  0x1b36	cmp    	dword ptr [ecx + 0x3c], edx
  0x1b39	jl     	0x1b60
  === BLOCK LINK ===
    0x1b3b
=== CODE BLOCK END ===

=== CODE BLOCK ADDRESS 0x1b3b ===
  0x1b3b	cmp    	dword ptr [ecx + 0x3c], 0x10000000
  0x1b42	jae    	0x1b60
  === BLOCK LINK ===
    0x1b44
=== CODE BLOCK END ===

=== CODE BLOCK ADDRESS 0x1b44 ===
  0x1b44	dec    	eax
  0x1b45	arpl   	word ptr [ecx + 0x3c], ax
  0x1b48	dec    	eax
  0x1b49	add    	eax, ecx
  0x1b4b	dec    	eax
  === BLOCK LINK ===
    0x1b4c
=== CODE BLOCK END ===

=== CODE BLOCK ADDRESS 0x1b4c ===
  0x1b4c	mov    	dword ptr [esp], eax
  0x1b4f	cmp    	dword ptr [eax], 0x4550
  0x1b55	dec    	eax
  0x1b56	cmovne  	eax, edx
  0x1b59	dec    	eax
  === BLOCK LINK ===
    0x1b5a
=== CODE BLOCK END ===

=== CODE BLOCK ADDRESS 0x1b5a ===
  0x1b5a	mov    	edx, eax
  0x1b5c	dec    	eax
  0x1b5d	mov    	dword ptr [esp], eax
  0x1b60	jmp    	0x1b68
  === BLOCK LINK ===
    0x1b62
=== CODE BLOCK END ===

=== CODE BLOCK ADDRESS 0x1b62 ===
  0x1b62	xor    	edx, edx
  0x1b64	dec    	eax
  0x1b65	mov    	dword ptr [esp], edx
  0x1b68	dec    	eax
  0x1b69	mov    	eax, edx
  === BLOCK LINK ===
    0x1b6b
=== CODE BLOCK END ===

=== CODE BLOCK ADDRESS 0x1b6b ===
  0x1b6b	dec    	eax
  0x1b6c	add    	esp, 0x18
  0x1b6f	ret    	
  0x1b70	int3   	
  0x1b71	int3   	
  === BLOCK LINK ===
    0x1b72
=== CODE BLOCK END ===

=== CODE BLOCK ADDRESS 0x1b72 ===
  0x1b72	int3   	
  0x1b73	int3   	
  0x1b74	int3   	
  0x1b75	int3   	
  0x1b76	int3   	
  === BLOCK LINK ===
    0x1b77
=== CODE BLOCK END ===

=== CODE BLOCK ADDRESS 0x1b77 ===
  0x1b77	int3   	
  0x1b78	inc    	eax
  0x1b79	push   	ebx
  0x1b7a	dec    	eax
  0x1b7b	sub    	esp, 0x20
  === BLOCK LINK ===
    0x1b7e
=== CODE BLOCK END ===

=== CODE BLOCK ADDRESS 0x1b7e ===
  0x1b7e	mov    	ebx, ecx
  0x1b80	xor    	ecx, ecx
  0x1b82	call   	dword ptr [0x15e8]
  === BLOCK LINK ===
    0x1b88
=== CODE BLOCK END ===

=== CODE BLOCK ADDRESS 0x1b88 ===
  0x1b88	dec    	eax
  0x1b89	test   	eax, eax
  0x1b8b	je     	0x1bb5
  === BLOCK LINK ===
    0x1b8d
=== CODE BLOCK END ===

=== CODE BLOCK ADDRESS 0x1b8d ===
  0x1b8d	dec    	eax
  0x1b8e	mov    	ecx, eax
  0x1b90	call   	0x1b1c
  === BLOCK LINK ===
    0x1b95
=== CODE BLOCK END ===

=== CODE BLOCK ADDRESS 0x1b95 ===
  0x1b95	dec    	eax
  0x1b96	test   	eax, eax
  0x1b98	je     	0x1bb5
  === BLOCK LINK ===
    0x1b9a
=== CODE BLOCK END ===

=== CODE BLOCK ADDRESS 0x1b9a ===
  0x1b9a	mov    	ecx, 2
  0x1b9f	cmp    	word ptr [eax + 0x5c], cx
  0x1ba3	jne    	0x1ba9
  === BLOCK LINK ===
    0x1ba5
=== CODE BLOCK END ===

=== CODE BLOCK ADDRESS 0x1ba5 ===
  0x1ba5	mov    	eax, ecx
  0x1ba7	jmp    	0x1bb7
  === BLOCK LINK ===
    0x1ba9
=== CODE BLOCK END ===

=== CODE BLOCK ADDRESS 0x1ba9 ===
  0x1ba9	cmp    	word ptr [eax + 0x5c], 3
  0x1bae	mov    	eax, 1
  0x1bb3	je     	0x1bb7
  === BLOCK LINK ===
    0x1bb5
=== CODE BLOCK END ===

=== CODE BLOCK ADDRESS 0x1bb5 ===
  0x1bb5	mov    	eax, ebx
  0x1bb7	dec    	eax
  0x1bb8	add    	esp, 0x20
  0x1bbb	pop    	ebx
  0x1bbc	ret    	
  === BLOCK LINK ===
    0x1bbd
=== CODE BLOCK END ===

=== CODE BLOCK ADDRESS 0x1bbd ===
  0x1bbd	int3   	
  0x1bbe	int3   	
  0x1bbf	int3   	
  0x1bc0	int3   	
  0x1bc1	int3   	
  === BLOCK LINK ===
    0x1bc2
=== CODE BLOCK END ===

=== CODE BLOCK ADDRESS 0x1bc2 ===
  0x1bc2	int3   	
  0x1bc3	jmp    	dword ptr [0x16f7]
  === BLOCK LINK ===
    0x1bc9
=== CODE BLOCK END ===

=== CODE BLOCK ADDRESS 0x1bc9 ===
  0x1bc9	int3   	
  0x1bca	int3   	
  0x1bcb	int3   	
  0x1bcc	int3   	
  0x1bcd	int3   	
  === BLOCK LINK ===
    0x1bce
=== CODE BLOCK END ===

=== CODE BLOCK ADDRESS 0x1bce ===
  0x1bce	int3   	
  0x1bcf	int3   	
  0x1bd0	xor    	eax, eax
  0x1bd2	ret    	
  0x1bd3	int3   	
  === BLOCK LINK ===
    0x1bd4
=== CODE BLOCK END ===

=== CODE BLOCK ADDRESS 0x1bd4 ===
  0x1bd4	int3   	
  0x1bd5	int3   	
  0x1bd6	int3   	
  0x1bd7	int3   	
  0x1bd8	int3   	
  === BLOCK LINK ===
    0x1bd9
=== CODE BLOCK END ===

=== CODE BLOCK ADDRESS 0x1bd9 ===
  0x1bd9	int3   	
  0x1bda	int3   	
  0x1bdb	int3   	
  0x1bdc	int3   	
  0x1bdd	int3   	
  === BLOCK LINK ===
    0x1bde
=== CODE BLOCK END ===

=== CODE BLOCK ADDRESS 0x1bde ===
  0x1bde	int3   	
  0x1bdf	int3   	
  0x1be0	dec    	esp
  0x1be1	arpl   	word ptr [ecx + 0x3c], ax
  0x1be4	inc    	ebp
  === BLOCK LINK ===
    0x1be5
=== CODE BLOCK END ===

=== CODE BLOCK ADDRESS 0x1be5 ===
  0x1be5	xor    	ecx, ecx
  0x1be7	dec    	esp
  0x1be8	add    	eax, ecx
  0x1bea	dec    	esp
  0x1beb	mov    	edx, edx
  === BLOCK LINK ===
    0x1bed
=== CODE BLOCK END ===

=== CODE BLOCK ADDRESS 0x1bed ===
  0x1bed	inc    	ecx
  0x1bee	movzx  	eax, word ptr [eax + 0x14]
  0x1bf2	inc    	ebp
  0x1bf3	movzx  	ebx, word ptr [eax + 6]
  0x1bf7	dec    	eax
  === BLOCK LINK ===
    0x1bf8
=== CODE BLOCK END ===

=== CODE BLOCK ADDRESS 0x1bf8 ===
  0x1bf8	add    	eax, 0x18
  0x1bfb	dec    	ecx
  0x1bfc	add    	eax, eax
  0x1bfe	inc    	ebp
  0x1bff	test   	ebx, ebx
  === BLOCK LINK ===
    0x1c01
=== CODE BLOCK END ===

=== CODE BLOCK ADDRESS 0x1c01 ===
  0x1c01	je     	0x1c21
  === BLOCK LINK ===
    0x1c03
=== CODE BLOCK END ===

=== CODE BLOCK ADDRESS 0x1c03 ===
  0x1c03	mov    	edx, dword ptr [eax + 0xc]
  0x1c06	dec    	esp
  0x1c07	cmp    	edx, edx
  0x1c09	jb     	0x1c15
  === BLOCK LINK ===
    0x1c0b
=== CODE BLOCK END ===

=== CODE BLOCK ADDRESS 0x1c0b ===
  0x1c0b	mov    	ecx, dword ptr [eax + 8]
  0x1c0e	add    	ecx, edx
  0x1c10	dec    	esp
  0x1c11	cmp    	edx, ecx
  0x1c13	jb     	0x1c23
  === BLOCK LINK ===
    0x1c15
=== CODE BLOCK END ===

=== CODE BLOCK ADDRESS 0x1c15 ===
  0x1c15	inc    	ecx
  0x1c16	inc    	ecx
  0x1c18	dec    	eax
  0x1c19	add    	eax, 0x28
  0x1c1c	inc    	ebp
  === BLOCK LINK ===
    0x1c1d
=== CODE BLOCK END ===

=== CODE BLOCK ADDRESS 0x1c1d ===
  0x1c1d	cmp    	ecx, ebx
  0x1c1f	jb     	0x1c03
  === BLOCK LINK ===
    0x1c21
=== CODE BLOCK END ===

=== CODE BLOCK ADDRESS 0x1c21 ===
  0x1c21	xor    	eax, eax
  0x1c23	ret    	
  0x1c24	int3   	
  0x1c25	int3   	
  0x1c26	int3   	
  === BLOCK LINK ===
    0x1c27
=== CODE BLOCK END ===

=== CODE BLOCK ADDRESS 0x1216 ===
  0x1216	dec    	eax
  0x1217	test   	edx, edx
  === BLOCK LINK ===
    0x1219
=== CODE BLOCK END ===

=== CODE BLOCK ADDRESS 0x1c27 ===
  0x1c27	int3   	
  0x1c28	int3   	
  0x1c29	int3   	
  0x1c2a	int3   	
  0x1c2b	int3   	
  === BLOCK LINK ===
    0x1c2c
=== CODE BLOCK END ===

=== CODE BLOCK ADDRESS 0x1c2c ===
  0x1c2c	int3   	
  0x1c2d	int3   	
  0x1c2e	int3   	
  0x1c2f	int3   	
  0x1c30	dec    	eax
  === BLOCK LINK ===
    0x1c31
=== CODE BLOCK END ===

=== CODE BLOCK ADDRESS 0x1c31 ===
  0x1c31	mov    	dword ptr [esp + 8], ebx
  0x1c35	push   	edi
  0x1c36	dec    	eax
  0x1c37	sub    	esp, 0x20
  0x1c3a	dec    	eax
  === BLOCK LINK ===
    0x1c3b
=== CODE BLOCK END ===

=== CODE BLOCK ADDRESS 0x1c3b ===
  0x1c3b	mov    	ebx, ecx
  0x1c3d	dec    	eax
  0x1c3e	lea    	edi, [0xffffe3bc]
  0x1c44	dec    	eax
  0x1c45	mov    	ecx, edi
  === BLOCK LINK ===
    0x1c47
=== CODE BLOCK END ===

=== CODE BLOCK ADDRESS 0x1c47 ===
  0x1c47	call   	0x1c90
  === BLOCK LINK ===
    0x1c4c
=== CODE BLOCK END ===

=== CODE BLOCK ADDRESS 0x1c4c ===
  0x1c4c	test   	eax, eax
  0x1c4e	je     	0x1c72
  === BLOCK LINK ===
    0x1c50
=== CODE BLOCK END ===

=== CODE BLOCK ADDRESS 0x1c50 ===
  0x1c50	dec    	eax
  0x1c51	sub    	ebx, edi
  0x1c53	dec    	eax
  0x1c54	mov    	edx, ebx
  0x1c56	dec    	eax
  === BLOCK LINK ===
    0x1c57
=== CODE BLOCK END ===

=== CODE BLOCK ADDRESS 0x1c57 ===
  0x1c57	mov    	ecx, edi
  0x1c59	call   	0x1be0
  === BLOCK LINK ===
    0x1c5e
=== CODE BLOCK END ===

=== CODE BLOCK ADDRESS 0x1c5e ===
  0x1c5e	dec    	eax
  0x1c5f	test   	eax, eax
  0x1c61	je     	0x1c72
  === BLOCK LINK ===
    0x1c63
=== CODE BLOCK END ===

=== CODE BLOCK ADDRESS 0x1c63 ===
  0x1c63	mov    	eax, dword ptr [eax + 0x24]
  0x1c66	shr    	eax, 0x1f
  0x1c69	not    	eax
  0x1c6b	and    	eax, 1
  0x1c6e	jmp    	0x1c72
  === BLOCK LINK ===
    0x1c70
=== CODE BLOCK END ===

=== CODE BLOCK ADDRESS 0x1c70 ===
  0x1c70	xor    	eax, eax
  0x1c72	dec    	eax
  0x1c73	mov    	ebx, dword ptr [esp + 0x30]
  0x1c77	dec    	eax
  0x1c78	add    	esp, 0x20
  === BLOCK LINK ===
    0x1c7b
=== CODE BLOCK END ===

=== CODE BLOCK ADDRESS 0x1c7b ===
  0x1c7b	pop    	edi
  0x1c7c	ret    	
  0x1c7d	int3   	
  0x1c7e	int3   	
  0x1c7f	int3   	
  === BLOCK LINK ===
    0x1c80
=== CODE BLOCK END ===

=== CODE BLOCK ADDRESS 0x1c80 ===
  0x1c80	int3   	
  0x1c81	int3   	
  0x1c82	int3   	
  0x1c83	int3   	
  0x1c84	int3   	
  === BLOCK LINK ===
    0x1c85
=== CODE BLOCK END ===

=== CODE BLOCK ADDRESS 0x1c85 ===
  0x1c85	int3   	
  0x1c86	int3   	
  0x1c87	int3   	
  0x1c88	int3   	
  0x1c89	int3   	
  === BLOCK LINK ===
    0x1c8a
=== CODE BLOCK END ===

=== CODE BLOCK ADDRESS 0x1c8a ===
  0x1c8a	int3   	
  0x1c8b	int3   	
  0x1c8c	int3   	
  0x1c8d	int3   	
  0x1c8e	int3   	
  === BLOCK LINK ===
    0x1c8f
=== CODE BLOCK END ===

=== CODE BLOCK ADDRESS 0x1c8f ===
  0x1c8f	int3   	
  0x1c90	mov    	eax, 0x5a4d
  0x1c95	cmp    	word ptr [ecx], ax
  0x1c98	jne    	0x1cba
  === BLOCK LINK ===
    0x1c9a
=== CODE BLOCK END ===

=== CODE BLOCK ADDRESS 0x1c9a ===
  0x1c9a	dec    	eax
  0x1c9b	arpl   	word ptr [ecx + 0x3c], ax
  0x1c9e	dec    	eax
  0x1c9f	add    	eax, ecx
  0x1ca1	cmp    	dword ptr [eax], 0x4550
  === BLOCK LINK ===
    0x1ca7
=== CODE BLOCK END ===

=== CODE BLOCK ADDRESS 0x1ca7 ===
  0x1ca7	jne    	0x1cba
  === BLOCK LINK ===
    0x1ca9
=== CODE BLOCK END ===

=== CODE BLOCK ADDRESS 0x1ca9 ===
  0x1ca9	mov    	ecx, 0x20b
  0x1cae	cmp    	word ptr [eax + 0x18], cx
  0x1cb2	jne    	0x1cba
  === BLOCK LINK ===
    0x1cb4
=== CODE BLOCK END ===

=== CODE BLOCK ADDRESS 0x1cb4 ===
  0x1cb4	mov    	eax, 1
  0x1cb9	ret    	
  0x1cba	xor    	eax, eax
  0x1cbc	ret    	
  0x1cbd	int3   	
  === BLOCK LINK ===
    0x1cbe
=== CODE BLOCK END ===

=== CODE BLOCK ADDRESS 0x1423 ===
  0x1423	cmp    	dword ptr [0x3bd6], 5
  0x142a	jbe    	0x149b
  === BLOCK LINK ===
    0x142c
=== CODE BLOCK END ===

=== CODE BLOCK ADDRESS 0x1cbe ===
  0x1cbe	int3   	
  0x1cbf	int3   	
  0x1cc0	int3   	
  0x1cc1	int3   	
  0x1cc2	int3   	
  === BLOCK LINK ===
    0x1cc3
=== CODE BLOCK END ===

=== CODE BLOCK ADDRESS 0x1cc3 ===
  0x1cc3	int3   	
  0x1cc4	dec    	eax
  0x1cc5	mov    	dword ptr [esp + 0x20], ebx
  0x1cc9	push   	ebp
  0x1cca	dec    	eax
  === BLOCK LINK ===
    0x1ccb
=== CODE BLOCK END ===

=== CODE BLOCK ADDRESS 0x1ccb ===
  0x1ccb	mov    	ebp, esp
  0x1ccd	dec    	eax
  0x1cce	sub    	esp, 0x20
  0x1cd1	dec    	eax
  0x1cd2	and    	dword ptr [ebp + 0x18], 0
  === BLOCK LINK ===
    0x1cd6
=== CODE BLOCK END ===

=== CODE BLOCK ADDRESS 0x1cd6 ===
  0x1cd6	dec    	eax
  0x1cd7	mov    	ebx, 0x2ddfa232
  0x1cdc	cdq    	
  0x1cdd	sub    	eax, dword ptr [eax]
  0x1cdf	add    	byte ptr [eax - 0x75], cl
  === BLOCK LINK ===
    0x1ce2
=== CODE BLOCK END ===

=== CODE BLOCK ADDRESS 0x1ce2 ===
  0x1ce2	add    	eax, 0x3361
  0x1ce7	dec    	eax
  0x1ce8	cmp    	eax, ebx
  0x1cea	jne    	0x1d83
  === BLOCK LINK ===
    0x1cf0
=== CODE BLOCK END ===

=== CODE BLOCK ADDRESS 0x1cf0 ===
  0x1cf0	dec    	eax
  0x1cf1	lea    	ecx, [ebp + 0x18]
  0x1cf4	call   	dword ptr [0x1526]
  === BLOCK LINK ===
    0x1cfa
=== CODE BLOCK END ===

=== CODE BLOCK ADDRESS 0x1cfa ===
  0x1cfa	dec    	eax
  0x1cfb	mov    	eax, dword ptr [ebp + 0x18]
  0x1cfe	dec    	eax
  0x1cff	mov    	dword ptr [ebp + 0x10], eax
  0x1d02	call   	dword ptr [0x1480]
  === BLOCK LINK ===
    0x1d08
=== CODE BLOCK END ===

=== CODE BLOCK ADDRESS 0x1d08 ===
  0x1d08	mov    	eax, eax
  0x1d0a	dec    	eax
  0x1d0b	xor    	dword ptr [ebp + 0x10], eax
  0x1d0e	call   	dword ptr [0x146c]
  === BLOCK LINK ===
    0x1d14
=== CODE BLOCK END ===

=== CODE BLOCK ADDRESS 0x1d14 ===
  0x1d14	mov    	eax, eax
  0x1d16	dec    	eax
  0x1d17	xor    	dword ptr [ebp + 0x10], eax
  0x1d1a	call   	dword ptr [0x14f8]
  === BLOCK LINK ===
    0x1d20
=== CODE BLOCK END ===

=== CODE BLOCK ADDRESS 0x1d20 ===
  0x1d20	mov    	eax, eax
  0x1d22	dec    	eax
  0x1d23	shl    	eax, 0x18
  0x1d26	dec    	eax
  0x1d27	xor    	dword ptr [ebp + 0x10], eax
  === BLOCK LINK ===
    0x1d2a
=== CODE BLOCK END ===

=== CODE BLOCK ADDRESS 0x1d2a ===
  0x1d2a	call   	dword ptr [0x14e8]
  === BLOCK LINK ===
    0x1d30
=== CODE BLOCK END ===

=== CODE BLOCK ADDRESS 0x1d30 ===
  0x1d30	mov    	eax, eax
  0x1d32	dec    	eax
  0x1d33	lea    	ecx, [ebp + 0x10]
  0x1d36	dec    	eax
  0x1d37	xor    	eax, dword ptr [ebp + 0x10]
  === BLOCK LINK ===
    0x1d3a
=== CODE BLOCK END ===

=== CODE BLOCK ADDRESS 0x1d3a ===
  0x1d3a	dec    	eax
  0x1d3b	xor    	eax, ecx
  0x1d3d	dec    	eax
  0x1d3e	lea    	ecx, [ebp + 0x20]
  0x1d41	dec    	eax
  === BLOCK LINK ===
    0x1d42
=== CODE BLOCK END ===

=== CODE BLOCK ADDRESS 0x1d42 ===
  0x1d42	mov    	dword ptr [ebp + 0x10], eax
  0x1d45	call   	dword ptr [0x1465]
  === BLOCK LINK ===
    0x1d4b
=== CODE BLOCK END ===

=== CODE BLOCK ADDRESS 0x1d4b ===
  0x1d4b	mov    	eax, dword ptr [ebp + 0x20]
  0x1d4e	dec    	eax
  0x1d4f	mov    	ecx, 0xffffffff
  0x1d54	.byte  	0xff
  0x1d55	inc    	dword ptr [eax]
  === BLOCK LINK ===
    0x1d57
=== CODE BLOCK END ===

=== CODE BLOCK ADDRESS 0x1d57 ===
  0x1d57	add    	byte ptr [eax - 0x3f], cl
  0x1d5a	loopne  	0x1d7c
  === BLOCK LINK ===
    0x1d5c
=== CODE BLOCK END ===

=== CODE BLOCK ADDRESS 0x1d5c ===
  0x1d5c	dec    	eax
  0x1d5d	xor    	eax, dword ptr [ebp + 0x20]
  0x1d60	dec    	eax
  0x1d61	xor    	eax, dword ptr [ebp + 0x10]
  0x1d64	dec    	eax
  === BLOCK LINK ===
    0x1d65
=== CODE BLOCK END ===

=== CODE BLOCK ADDRESS 0x1d65 ===
  0x1d65	and    	eax, ecx
  0x1d67	dec    	eax
  0x1d68	mov    	ecx, eax
  0x1d6a	dec    	eax
  0x1d6b	cmp    	eax, ebx
  === BLOCK LINK ===
    0x1d6d
=== CODE BLOCK END ===

=== CODE BLOCK ADDRESS 0x1d6d ===
  0x1d6d	jne    	0x1d7c
  === BLOCK LINK ===
    0x1d6f
=== CODE BLOCK END ===

=== CODE BLOCK ADDRESS 0x1d6f ===
  0x1d6f	dec    	eax
  0x1d70	mov    	eax, 0x2ddfa233
  0x1d75	cdq    	
  0x1d76	sub    	eax, dword ptr [eax]
  0x1d78	add    	byte ptr [eax - 0x75], cl
  === BLOCK LINK ===
    0x1d7b
=== CODE BLOCK END ===

=== CODE BLOCK ADDRESS 0x1d7b ===
  0x1d7b	enter  	-0x76b8, 0xd
  0x1d7f	lds    	esi, ptr [edx]
  0x1d81	add    	byte ptr [eax], al
  0x1d83	dec    	eax
  0x1d84	mov    	ebx, dword ptr [esp + 0x48]
  === BLOCK LINK ===
    0x1d88
=== CODE BLOCK END ===

=== CODE BLOCK ADDRESS 0x1d88 ===
  0x1d88	dec    	eax
  0x1d89	not    	eax
  0x1d8b	dec    	eax
  0x1d8c	mov    	dword ptr [0x32be], eax
  0x1d92	dec    	eax
  === BLOCK LINK ===
    0x1d93
=== CODE BLOCK END ===

=== CODE BLOCK ADDRESS 0x1d93 ===
  0x1d93	add    	esp, 0x20
  0x1d96	pop    	ebp
  0x1d97	ret    	
  0x1d98	int3   	
  0x1d99	int3   	
  === BLOCK LINK ===
    0x1d9a
=== CODE BLOCK END ===

=== CODE BLOCK ADDRESS 0x1d9a ===
  0x1d9a	int3   	
  0x1d9b	int3   	
  0x1d9c	int3   	
  0x1d9d	int3   	
  0x1d9e	jmp    	dword ptr [0x14dc]
  === BLOCK LINK ===
    0x1da4
=== CODE BLOCK END ===

=== CODE BLOCK ADDRESS 0x1da4 ===
  0x1da4	int3   	
  0x1da5	int3   	
  0x1da6	int3   	
  0x1da7	int3   	
  0x1da8	int3   	
  === BLOCK LINK ===
    0x1da9
=== CODE BLOCK END ===

=== CODE BLOCK ADDRESS 0x1da9 ===
  0x1da9	int3   	
  0x1daa	jmp    	dword ptr [0x14f8]
  === BLOCK LINK ===
    0x1db0
=== CODE BLOCK END ===

=== CODE BLOCK ADDRESS 0x1db0 ===
  0x1db0	int3   	
  0x1db1	int3   	
  0x1db2	int3   	
  0x1db3	int3   	
  0x1db4	int3   	
  === BLOCK LINK ===
    0x1db5
=== CODE BLOCK END ===

=== CODE BLOCK ADDRESS 0x1db5 ===
  0x1db5	int3   	
  0x1db6	int3   	
  0x1db7	int3   	
  0x1db8	int3   	
  0x1db9	int3   	
  === BLOCK LINK ===
    0x1dba
=== CODE BLOCK END ===

=== CODE BLOCK ADDRESS 0x1dba ===
  0x1dba	int3   	
  0x1dbb	int3   	
  0x1dbc	int3   	
  0x1dbd	int3   	
  0x1dbe	int3   	
  === BLOCK LINK ===
    0x1dbf
=== CODE BLOCK END ===

=== CODE BLOCK ADDRESS 0x1dbf ===
  0x1dbf	int3   	
  0x1dc0	ret    	0
  0x1dc3	int3   	
  0x1dc4	int3   	
  0x1dc5	int3   	
  === BLOCK LINK ===
    0x1dc6
=== CODE BLOCK END ===

=== CODE BLOCK ADDRESS 0x1dc6 ===
  0x1dc6	int3   	
  0x1dc7	int3   	
  0x1dc8	int3   	
  0x1dc9	int3   	
  0x1dca	int3   	
  === BLOCK LINK ===
    0x1dcb
=== CODE BLOCK END ===

=== CODE BLOCK ADDRESS 0x1dcb ===
  0x1dcb	int3   	
  0x1dcc	inc    	eax
  0x1dcd	push   	ebx
  0x1dce	dec    	eax
  0x1dcf	sub    	esp, 0x20
  === BLOCK LINK ===
    0x1dd2
=== CODE BLOCK END ===

=== CODE BLOCK ADDRESS 0x1dd2 ===
  0x1dd2	dec    	eax
  0x1dd3	mov    	ebx, ecx
  0x1dd5	xor    	ecx, ecx
  0x1dd7	call   	dword ptr [0x134b]
  === BLOCK LINK ===
    0x1ddd
=== CODE BLOCK END ===

=== CODE BLOCK ADDRESS 0x1ddd ===
  0x1ddd	dec    	eax
  0x1dde	mov    	ecx, ebx
  0x1de0	call   	dword ptr [0x134a]
  === BLOCK LINK ===
    0x1de6
=== CODE BLOCK END ===

=== CODE BLOCK ADDRESS 0x1de6 ===
  0x1de6	call   	dword ptr [0x13b4]
  === BLOCK LINK ===
    0x1dec
=== CODE BLOCK END ===

=== CODE BLOCK ADDRESS 0x1dec ===
  0x1dec	dec    	eax
  0x1ded	mov    	ecx, eax
  0x1def	mov    	edx, 0xc0000409
  0x1df4	dec    	eax
  0x1df5	add    	esp, 0x20
  === BLOCK LINK ===
    0x1df8
=== CODE BLOCK END ===

=== CODE BLOCK ADDRESS 0x1df8 ===
  0x1df8	pop    	ebx
  0x1df9	dec    	eax
  0x1dfa	jmp    	dword ptr [0x1390]
  === BLOCK LINK ===
    0x1e00
=== CODE BLOCK END ===

=== CODE BLOCK ADDRESS 0x1e00 ===
  0x1e00	int3   	
  0x1e01	int3   	
  0x1e02	int3   	
  0x1e03	int3   	
  0x1e04	int3   	
  === BLOCK LINK ===
    0x1e05
=== CODE BLOCK END ===

=== CODE BLOCK ADDRESS 0x1e05 ===
  0x1e05	int3   	
  0x1e06	int3   	
  0x1e07	int3   	
  0x1e08	int3   	
  0x1e09	int3   	
  === BLOCK LINK ===
    0x1e0a
=== CODE BLOCK END ===

=== CODE BLOCK ADDRESS 0x1e0a ===
  0x1e0a	int3   	
  0x1e0b	int3   	
  0x1e0c	int3   	
  0x1e0d	int3   	
  0x1e0e	int3   	
  === BLOCK LINK ===
    0x1e0f
=== CODE BLOCK END ===

=== CODE BLOCK ADDRESS 0x1e0f ===
  0x1e0f	int3   	
  0x1e10	dec    	eax
  0x1e11	mov    	dword ptr [esp + 8], ecx
  0x1e15	dec    	eax
  0x1e16	sub    	esp, 0x88
  === BLOCK LINK ===
    0x1e1c
=== CODE BLOCK END ===

=== CODE BLOCK ADDRESS 0x1e1c ===
  0x1e1c	dec    	eax
  0x1e1d	lea    	ecx, [0x331d]
  0x1e23	call   	dword ptr [0x139f]
  === BLOCK LINK ===
    0x1e29
=== CODE BLOCK END ===

=== CODE BLOCK ADDRESS 0x1e29 ===
  0x1e29	dec    	eax
  0x1e2a	mov    	eax, dword ptr [0x3408]
  0x1e30	dec    	eax
  0x1e31	mov    	dword ptr [esp + 0x48], eax
  0x1e35	inc    	ebp
  === BLOCK LINK ===
    0x1e36
=== CODE BLOCK END ===

=== CODE BLOCK ADDRESS 0x1e36 ===
  0x1e36	xor    	eax, eax
  0x1e38	dec    	eax
  0x1e39	lea    	edx, [esp + 0x50]
  0x1e3d	dec    	eax
  0x1e3e	mov    	ecx, dword ptr [esp + 0x48]
  === BLOCK LINK ===
    0x1e42
=== CODE BLOCK END ===

=== CODE BLOCK ADDRESS 0x1e42 ===
  0x1e42	call   	dword ptr [0x1388]
  === BLOCK LINK ===
    0x1e48
=== CODE BLOCK END ===

=== CODE BLOCK ADDRESS 0x1e48 ===
  0x1e48	dec    	eax
  0x1e49	mov    	dword ptr [esp + 0x40], eax
  0x1e4d	dec    	eax
  0x1e4e	cmp    	dword ptr [esp + 0x40], 0
  0x1e53	je     	0x1e97
  === BLOCK LINK ===
    0x1e55
=== CODE BLOCK END ===

=== CODE BLOCK ADDRESS 0x1e55 ===
  0x1e55	dec    	eax
  0x1e56	mov    	dword ptr [esp + 0x38], 0
  0x1e5e	dec    	eax
  0x1e5f	lea    	eax, [esp + 0x58]
  0x1e63	dec    	eax
  === BLOCK LINK ===
    0x1e64
=== CODE BLOCK END ===

=== CODE BLOCK ADDRESS 0x1e64 ===
  0x1e64	mov    	dword ptr [esp + 0x30], eax
  0x1e68	dec    	eax
  0x1e69	lea    	eax, [esp + 0x60]
  0x1e6d	dec    	eax
  0x1e6e	mov    	dword ptr [esp + 0x28], eax
  === BLOCK LINK ===
    0x1e72
=== CODE BLOCK END ===

=== CODE BLOCK ADDRESS 0x1e72 ===
  0x1e72	dec    	eax
  0x1e73	lea    	eax, [0x32c7]
  0x1e79	dec    	eax
  0x1e7a	mov    	dword ptr [esp + 0x20], eax
  0x1e7e	dec    	esp
  === BLOCK LINK ===
    0x1e7f
=== CODE BLOCK END ===

=== CODE BLOCK ADDRESS 0x1e7f ===
  0x1e7f	mov    	ecx, dword ptr [esp + 0x40]
  0x1e83	dec    	esp
  0x1e84	mov    	eax, dword ptr [esp + 0x48]
  0x1e88	dec    	eax
  0x1e89	mov    	edx, dword ptr [esp + 0x50]
  === BLOCK LINK ===
    0x1e8d
=== CODE BLOCK END ===

=== CODE BLOCK ADDRESS 0x1e8d ===
  0x1e8d	xor    	ecx, ecx
  0x1e8f	call   	dword ptr [0x132b]
  === BLOCK LINK ===
    0x1e95
=== CODE BLOCK END ===

=== CODE BLOCK ADDRESS 0x1e95 ===
  0x1e95	jmp    	0x1eba
  === BLOCK LINK ===
    0x1e97
=== CODE BLOCK END ===

=== CODE BLOCK ADDRESS 0x1e97 ===
  0x1e97	dec    	eax
  0x1e98	mov    	eax, dword ptr [0x333a]
  0x1e9e	dec    	eax
  0x1e9f	mov    	eax, dword ptr [eax]
  0x1ea1	dec    	eax
  === BLOCK LINK ===
    0x1ea2
=== CODE BLOCK END ===

=== CODE BLOCK ADDRESS 0x1ea2 ===
  0x1ea2	mov    	dword ptr [0x3390], eax
  0x1ea8	dec    	eax
  0x1ea9	mov    	eax, dword ptr [0x3329]
  0x1eaf	dec    	eax
  0x1eb0	add    	eax, 8
  === BLOCK LINK ===
    0x1eb3
=== CODE BLOCK END ===

=== CODE BLOCK ADDRESS 0x1eb3 ===
  0x1eb3	dec    	eax
  0x1eb4	mov    	dword ptr [0x331e], eax
  0x1eba	dec    	eax
  0x1ebb	mov    	eax, dword ptr [0x3377]
  0x1ec1	dec    	eax
  === BLOCK LINK ===
    0x1ec2
=== CODE BLOCK END ===

=== CODE BLOCK ADDRESS 0x1ec2 ===
  0x1ec2	mov    	dword ptr [0x31e8], eax
  0x1ec8	dec    	eax
  0x1ec9	mov    	eax, dword ptr [esp + 0x90]
  0x1ed0	dec    	eax
  0x1ed1	mov    	dword ptr [0x32e9], eax
  === BLOCK LINK ===
    0x1ed7
=== CODE BLOCK END ===

=== CODE BLOCK ADDRESS 0x1ed7 ===
  0x1ed7	mov    	dword ptr [0x31bf], 0xc0000409
  0x1ee1	mov    	dword ptr [0x31b9], 1
  0x1eeb	mov    	dword ptr [0x31c3], 3
  0x1ef5	mov    	eax, 8
  0x1efa	dec    	eax
  === BLOCK LINK ===
    0x1efb
=== CODE BLOCK END ===

=== CODE BLOCK ADDRESS 0x1efb ===
  0x1efb	imul   	eax, eax, 0
  0x1efe	dec    	eax
  0x1eff	lea    	ecx, [0x31bb]
  0x1f05	dec    	eax
  0x1f06	mov    	dword ptr [ecx + eax], 2
  === BLOCK LINK ===
    0x1f0d
=== CODE BLOCK END ===

=== CODE BLOCK ADDRESS 0x1f0d ===
  0x1f0d	mov    	eax, 8
  0x1f12	dec    	eax
  0x1f13	imul   	eax, eax, 1
  0x1f16	dec    	eax
  0x1f17	lea    	ecx, [0x31a3]
  === BLOCK LINK ===
    0x1f1d
=== CODE BLOCK END ===

=== CODE BLOCK ADDRESS 0x1f1d ===
  0x1f1d	dec    	eax
  0x1f1e	mov    	edx, dword ptr [0x3124]
  0x1f24	dec    	eax
  0x1f25	mov    	dword ptr [ecx + eax], edx
  0x1f28	mov    	eax, 8
  === BLOCK LINK ===
    0x1f2d
=== CODE BLOCK END ===

=== CODE BLOCK ADDRESS 0x1f2d ===
  0x1f2d	dec    	eax
  0x1f2e	imul   	eax, eax, 2
  0x1f31	dec    	eax
  0x1f32	lea    	ecx, [0x3188]
  0x1f38	dec    	eax
  === BLOCK LINK ===
    0x1f39
=== CODE BLOCK END ===

=== CODE BLOCK ADDRESS 0x1f39 ===
  0x1f39	mov    	edx, dword ptr [0x3111]
  0x1f3f	dec    	eax
  0x1f40	mov    	dword ptr [ecx + eax], edx
  0x1f43	mov    	eax, 8
  0x1f48	dec    	eax
  === BLOCK LINK ===
    0x1f49
=== CODE BLOCK END ===

=== CODE BLOCK ADDRESS 0x1f49 ===
  0x1f49	imul   	eax, eax, 0
  0x1f4c	dec    	eax
  0x1f4d	mov    	ecx, dword ptr [0x30f5]
  0x1f53	dec    	eax
  0x1f54	mov    	dword ptr [esp + eax + 0x68], ecx
  === BLOCK LINK ===
    0x1f58
=== CODE BLOCK END ===

=== CODE BLOCK ADDRESS 0x1f58 ===
  0x1f58	mov    	eax, 8
  0x1f5d	dec    	eax
  0x1f5e	imul   	eax, eax, 1
  0x1f61	dec    	eax
  0x1f62	mov    	ecx, dword ptr [0x30e8]
  === BLOCK LINK ===
    0x1f68
=== CODE BLOCK END ===

=== CODE BLOCK ADDRESS 0x1f68 ===
  0x1f68	dec    	eax
  0x1f69	mov    	dword ptr [esp + eax + 0x68], ecx
  0x1f6d	dec    	eax
  0x1f6e	lea    	ecx, [0x108c]
  0x1f74	call   	0x1dcc
  === BLOCK LINK ===
    0x1f79
=== CODE BLOCK END ===

=== CODE BLOCK ADDRESS 0x1f79 ===
  0x1f79	dec    	eax
  0x1f7a	add    	esp, 0x88
  0x1f80	ret    	
  0x1f81	int3   	
  0x1f82	int3   	
  === BLOCK LINK ===
    0x1f83
=== CODE BLOCK END ===

=== CODE BLOCK ADDRESS 0x1f83 ===
  0x1f83	int3   	
  0x1f84	int3   	
  0x1f85	int3   	
  0x1f86	int3   	
  0x1f87	int3   	
  === BLOCK LINK ===
    0x1f88
=== CODE BLOCK END ===

=== CODE BLOCK ADDRESS 0x1f88 ===
  0x1f88	int3   	
  0x1f89	int3   	
  0x1f8a	int3   	
  0x1f8b	int3   	
  0x1f8c	int3   	
  === BLOCK LINK ===
    0x1f8d
=== CODE BLOCK END ===

=== CODE BLOCK ADDRESS 0x1f8d ===
  0x1f8d	int3   	
  0x1f8e	int3   	
  0x1f8f	int3   	
  0x1f90	int3   	
  0x1f91	int3   	
  === BLOCK LINK ===
    0x1f92
=== CODE BLOCK END ===

=== CODE BLOCK ADDRESS 0x1f92 ===
  0x1f92	int3   	
  0x1f93	int3   	
  0x1f94	int3   	
  0x1f95	int3   	
  0x1f96	int3   	
  === BLOCK LINK ===
    0x1f97
=== CODE BLOCK END ===

=== CODE BLOCK ADDRESS 0x1f97 ===
  0x1f97	int3   	
  0x1f98	dec    	eax
  0x1f99	sub    	esp, 0x28
  0x1f9c	dec    	ebp
  0x1f9d	mov    	eax, dword ptr [ecx + 0x38]
  === BLOCK LINK ===
    0x1fa0
=== CODE BLOCK END ===

=== CODE BLOCK ADDRESS 0x1fa0 ===
  0x1fa0	dec    	eax
  0x1fa1	mov    	ecx, edx
  0x1fa3	dec    	ecx
  0x1fa4	mov    	edx, ecx
  0x1fa6	call   	0x1fbc
  === BLOCK LINK ===
    0x1fab
=== CODE BLOCK END ===

=== CODE BLOCK ADDRESS 0x1fab ===
  0x1fab	mov    	eax, 1
  0x1fb0	dec    	eax
  0x1fb1	add    	esp, 0x28
  0x1fb4	ret    	
  0x1fb5	int3   	
  === BLOCK LINK ===
    0x1fb6
=== CODE BLOCK END ===

=== CODE BLOCK ADDRESS 0x1fb6 ===
  0x1fb6	int3   	
  0x1fb7	int3   	
  0x1fb8	int3   	
  0x1fb9	int3   	
  0x1fba	int3   	
  === BLOCK LINK ===
    0x1fbb
=== CODE BLOCK END ===

=== CODE BLOCK ADDRESS 0x1fbb ===
  0x1fbb	int3   	
  0x1fbc	inc    	eax
  0x1fbd	push   	ebx
  0x1fbe	inc    	ebp
  0x1fbf	mov    	ebx, dword ptr [eax]
  === BLOCK LINK ===
    0x1fc1
=== CODE BLOCK END ===

=== CODE BLOCK ADDRESS 0x1fc1 ===
  0x1fc1	dec    	eax
  0x1fc2	mov    	ebx, edx
  0x1fc4	inc    	ecx
  0x1fc5	and    	ebx, 0xfffffff8
  0x1fc8	dec    	esp
  === BLOCK LINK ===
    0x1fc9
=== CODE BLOCK END ===

=== CODE BLOCK ADDRESS 0x1fc9 ===
  0x1fc9	mov    	ecx, ecx
  0x1fcb	inc    	ecx
  0x1fcc	test   	byte ptr [eax], 4
  0x1fcf	dec    	esp
  0x1fd0	mov    	edx, ecx
  === BLOCK LINK ===
    0x1fd2
=== CODE BLOCK END ===

=== CODE BLOCK ADDRESS 0x1fd2 ===
  0x1fd2	je     	0x1fe7
  === BLOCK LINK ===
    0x1fd4
=== CODE BLOCK END ===

=== CODE BLOCK ADDRESS 0x1fd4 ===
  0x1fd4	inc    	ecx
  0x1fd5	mov    	eax, dword ptr [eax + 8]
  0x1fd8	dec    	ebp
  0x1fd9	arpl   	word ptr [eax + 4], dx
  0x1fdc	neg    	eax
  === BLOCK LINK ===
    0x1fde
=== CODE BLOCK END ===

=== CODE BLOCK ADDRESS 0x1fde ===
  0x1fde	dec    	esp
  0x1fdf	add    	edx, ecx
  0x1fe1	dec    	eax
  0x1fe2	arpl   	ax, cx
  0x1fe4	dec    	esp
  === BLOCK LINK ===
    0x1fe5
=== CODE BLOCK END ===

=== CODE BLOCK ADDRESS 0x1fe5 ===
  0x1fe5	and    	edx, ecx
  0x1fe7	dec    	ecx
  0x1fe8	arpl   	bx, ax
  0x1fea	dec    	edx
  0x1feb	mov    	edx, dword ptr [eax + edx]
  === BLOCK LINK ===
    0x1fee
=== CODE BLOCK END ===

=== CODE BLOCK ADDRESS 0x1fee ===
  0x1fee	dec    	eax
  0x1fef	mov    	eax, dword ptr [ebx + 0x10]
  0x1ff2	mov    	ecx, dword ptr [eax + 8]
  0x1ff5	dec    	eax
  0x1ff6	mov    	eax, dword ptr [ebx + 8]
  === BLOCK LINK ===
    0x1ff9
=== CODE BLOCK END ===

=== CODE BLOCK ADDRESS 0x1ff9 ===
  0x1ff9	test   	byte ptr [ecx + eax + 3], 0xf
  0x1ffe	je     	0x200b
  === BLOCK LINK ===
    0x2000
=== CODE BLOCK END ===

=== CODE BLOCK ADDRESS 0x2000 ===
  0x2000	movzx  	eax, byte ptr [ecx + eax + 3]
  0x2005	and    	eax, 0xfffffff0
  0x2008	dec    	esp
  0x2009	add    	ecx, eax
  0x200b	dec    	esp
  === BLOCK LINK ===
    0x200c
=== CODE BLOCK END ===

=== CODE BLOCK ADDRESS 0x200c ===
  0x200c	xor    	ecx, edx
  0x200e	dec    	ecx
  0x200f	mov    	ecx, ecx
  0x2011	pop    	ebx
  0x2012	jmp    	0x1a80
  === BLOCK LINK ===
    0x2017
=== CODE BLOCK END ===

=== CODE BLOCK ADDRESS 0x2017 ===
  0x2017	int3   	
  0x2018	int3   	
  0x2019	int3   	
  0x201a	int3   	
  0x201b	int3   	
  === BLOCK LINK ===
    0x201c
=== CODE BLOCK END ===

=== CODE BLOCK ADDRESS 0x201c ===
  0x201c	int3   	
  0x201d	int3   	
  0x201e	int3   	
  0x201f	int3   	
  0x2020	int3   	
  === BLOCK LINK ===
    0x2021
=== CODE BLOCK END ===

=== CODE BLOCK ADDRESS 0x2021 ===
  0x2021	int3   	
  0x2022	int3   	
  0x2023	int3   	
  0x2024	int3   	
  0x2025	int3   	
  === BLOCK LINK ===
    0x2026
=== CODE BLOCK END ===

=== CODE BLOCK ADDRESS 0x2026 ===
  0x2026	nop    	word ptr [eax + eax]
  0x2030	jmp    	eax
  === BLOCK LINK ===
    0x2032
=== CODE BLOCK END ===

=== CODE BLOCK ADDRESS 0x2032 ===
  0x2032	int3   	
  0x2033	int3   	
  0x2034	int3   	
  0x2035	int3   	
  0x2036	int3   	
  === BLOCK LINK ===
    0x2037
=== CODE BLOCK END ===

=== CODE BLOCK ADDRESS 0x2037 ===
  0x2037	int3   	
  0x2038	int3   	
  0x2039	int3   	
  0x203a	int3   	
  0x203b	int3   	
  === BLOCK LINK ===
    0x203c
=== CODE BLOCK END ===

=== CODE BLOCK ADDRESS 0x203c ===
  0x203c	int3   	
  0x203d	int3   	
  0x203e	int3   	
  0x203f	int3   	
  0x2040	inc    	eax
  === BLOCK LINK ===
    0x2041
=== CODE BLOCK END ===

=== CODE BLOCK ADDRESS 0x2041 ===
  0x2041	push   	ebp
  0x2042	dec    	eax
  0x2043	sub    	esp, 0x20
  0x2046	dec    	eax
  0x2047	mov    	ebp, edx
  === BLOCK LINK ===
    0x2049
=== CODE BLOCK END ===

=== CODE BLOCK ADDRESS 0x2049 ===
  0x2049	dec    	eax
  0x204a	mov    	eax, dword ptr [ecx]
  0x204c	dec    	eax
  0x204d	mov    	edx, ecx
  0x204f	mov    	ecx, dword ptr [eax]
  === BLOCK LINK ===
    0x2051
=== CODE BLOCK END ===

=== CODE BLOCK ADDRESS 0x2051 ===
  0x2051	call   	0x1b0e
  === BLOCK LINK ===
    0x2056
=== CODE BLOCK END ===

=== CODE BLOCK ADDRESS 0x2056 ===
  0x2056	nop    	
  0x2057	dec    	eax
  0x2058	add    	esp, 0x20
  0x205b	pop    	ebp
  0x205c	ret    	
  === BLOCK LINK ===
    0x205d
=== CODE BLOCK END ===

=== CODE BLOCK ADDRESS 0x205d ===
  0x205d	int3   	
  0x205e	int3   	
  0x205f	int3   	
  0x2060	int3   	
  0x2061	int3   	
  === BLOCK LINK ===
    0x2062
=== CODE BLOCK END ===

=== CODE BLOCK ADDRESS 0x2062 ===
  0x2062	int3   	
  0x2063	int3   	
  0x2064	int3   	
  0x2065	int3   	
  0x2066	int3   	
  === BLOCK LINK ===
    0x2067
=== CODE BLOCK END ===

=== CODE BLOCK ADDRESS 0x2067 ===
  0x2067	int3   	
  0x2068	int3   	
  0x2069	int3   	
  0x206a	int3   	
  0x206b	int3   	
  === BLOCK LINK ===
    0x206c
=== CODE BLOCK END ===

=== CODE BLOCK ADDRESS 0x206c ===
  0x206c	int3   	
  0x206d	int3   	
  0x206e	int3   	
  0x206f	int3   	
  0x2070	inc    	eax
  === BLOCK LINK ===
    0x2071
=== CODE BLOCK END ===

=== CODE BLOCK ADDRESS 0x2071 ===
  0x2071	push   	ebp
  0x2072	dec    	eax
  0x2073	sub    	esp, 0x20
  0x2076	dec    	eax
  0x2077	mov    	ebp, edx
  === BLOCK LINK ===
    0x2079
=== CODE BLOCK END ===

=== CODE BLOCK ADDRESS 0x2079 ===
  0x2079	dec    	eax
  0x207a	mov    	eax, dword ptr [ecx]
  0x207c	xor    	ecx, ecx
  0x207e	cmp    	dword ptr [eax], 0xc0000005
  0x2084	sete   	cl
  === BLOCK LINK ===
    0x2087
=== CODE BLOCK END ===

=== CODE BLOCK ADDRESS 0x2087 ===
  0x2087	mov    	eax, ecx
  0x2089	dec    	eax
  0x208a	add    	esp, 0x20
  0x208d	pop    	ebp
  0x208e	ret    	
  === BLOCK LINK ===
    0x208f
=== CODE BLOCK END ===

=== CODE BLOCK ADDRESS 0x1356 ===
  0x1356	test   	ebx, ebx
  0x1358	js     	0x13f7
  === BLOCK LINK ===
    0x135e
=== CODE BLOCK END ===

=== CODE BLOCK ADDRESS 0x208f ===
  0x208f	int3   	
  0x2090	add    	byte ptr [eax], al
  0x2092	add    	byte ptr [eax], al
  0x2094	add    	byte ptr [eax], al
  0x2096	add    	byte ptr [eax], al
  === BLOCK LINK ===
    0x2098
=== CODE BLOCK END ===

=== CODE BLOCK ADDRESS 0x2098 ===
  0x2098	add    	byte ptr [eax], al
  0x209a	add    	byte ptr [eax], al
  0x209c	add    	byte ptr [eax], al
  0x209e	add    	byte ptr [eax], al
  0x20a0	add    	byte ptr [eax], al
  === BLOCK LINK ===
    0x20a2
=== CODE BLOCK END ===

=== CODE BLOCK ADDRESS 0x20a2 ===
  0x20a2	add    	byte ptr [eax], al
  0x20a4	add    	byte ptr [eax], al
  0x20a6	add    	byte ptr [eax], al
  0x20a8	add    	byte ptr [eax], al
  0x20aa	add    	byte ptr [eax], al
  === BLOCK LINK ===
    0x20ac
=== CODE BLOCK END ===

=== CODE BLOCK ADDRESS 0x20ac ===
  0x20ac	add    	byte ptr [eax], al
  0x20ae	add    	byte ptr [eax], al
  0x20b0	add    	byte ptr [eax], al
  0x20b2	add    	byte ptr [eax], al
  0x20b4	add    	byte ptr [eax], al
  === BLOCK LINK ===
    0x20b6
=== CODE BLOCK END ===

=== CODE BLOCK ADDRESS 0x20b6 ===
  0x20b6	add    	byte ptr [eax], al
  0x20b8	add    	byte ptr [eax], al
  0x20ba	add    	byte ptr [eax], al
  0x20bc	add    	byte ptr [eax], al
  0x20be	add    	byte ptr [eax], al
  === BLOCK LINK ===
    0x20c0
=== CODE BLOCK END ===

=== CODE BLOCK ADDRESS 0x20c0 ===
  0x20c0	add    	byte ptr [eax], al
  0x20c2	add    	byte ptr [eax], al
  0x20c4	add    	byte ptr [eax], al
  0x20c6	add    	byte ptr [eax], al
  0x20c8	add    	byte ptr [eax], al
  === BLOCK LINK ===
    0x20ca
=== CODE BLOCK END ===

=== CODE BLOCK ADDRESS 0x20ca ===
  0x20ca	add    	byte ptr [eax], al
  0x20cc	add    	byte ptr [eax], al
  0x20ce	add    	byte ptr [eax], al
  0x20d0	add    	byte ptr [eax], al
  0x20d2	add    	byte ptr [eax], al
  === BLOCK LINK ===
    0x20d4
=== CODE BLOCK END ===

=== CODE BLOCK ADDRESS 0x20d4 ===
  0x20d4	add    	byte ptr [eax], al
  0x20d6	add    	byte ptr [eax], al
  0x20d8	add    	byte ptr [eax], al
  0x20da	add    	byte ptr [eax], al
  0x20dc	add    	byte ptr [eax], al
  === BLOCK LINK ===
    0x20de
=== CODE BLOCK END ===

=== CODE BLOCK ADDRESS 0x20de ===
  0x20de	add    	byte ptr [eax], al
  0x20e0	add    	byte ptr [eax], al
  0x20e2	add    	byte ptr [eax], al
  0x20e4	add    	byte ptr [eax], al
  0x20e6	add    	byte ptr [eax], al
  === BLOCK LINK ===
    0x20e8
=== CODE BLOCK END ===

=== CODE BLOCK ADDRESS 0x20e8 ===
  0x20e8	add    	byte ptr [eax], al
  0x20ea	add    	byte ptr [eax], al
  0x20ec	add    	byte ptr [eax], al
  0x20ee	add    	byte ptr [eax], al
  0x20f0	add    	byte ptr [eax], al
  === BLOCK LINK ===
    0x20f2
=== CODE BLOCK END ===

=== CODE BLOCK ADDRESS 0x20f2 ===
  0x20f2	add    	byte ptr [eax], al
  0x20f4	add    	byte ptr [eax], al
  0x20f6	add    	byte ptr [eax], al
  0x20f8	add    	byte ptr [eax], al
  0x20fa	add    	byte ptr [eax], al
  === BLOCK LINK ===
    0x20fc
=== CODE BLOCK END ===

=== CODE BLOCK ADDRESS 0x20fc ===
  0x20fc	add    	byte ptr [eax], al
  0x20fe	add    	byte ptr [eax], al
  0x2100	add    	byte ptr [eax], al
  0x2102	add    	byte ptr [eax], al
  0x2104	add    	byte ptr [eax], al
  === BLOCK LINK ===
    0x2106
=== CODE BLOCK END ===

=== CODE BLOCK ADDRESS 0x2106 ===
  0x2106	add    	byte ptr [eax], al
  0x2108	add    	byte ptr [eax], al
  0x210a	add    	byte ptr [eax], al
  0x210c	add    	byte ptr [eax], al
  0x210e	add    	byte ptr [eax], al
  === BLOCK LINK ===
    0x2110
=== CODE BLOCK END ===

=== CODE BLOCK ADDRESS 0x2110 ===
  0x2110	add    	byte ptr [eax], al
  0x2112	add    	byte ptr [eax], al
  0x2114	add    	byte ptr [eax], al
  0x2116	add    	byte ptr [eax], al
  0x2118	add    	byte ptr [eax], al
  === BLOCK LINK ===
    0x211a
=== CODE BLOCK END ===

=== CODE BLOCK ADDRESS 0x211a ===
  0x211a	add    	byte ptr [eax], al
  0x211c	add    	byte ptr [eax], al
  0x211e	add    	byte ptr [eax], al
  0x2120	add    	byte ptr [eax], al
  0x2122	add    	byte ptr [eax], al
  === BLOCK LINK ===
    0x2124
=== CODE BLOCK END ===

=== CODE BLOCK ADDRESS 0x2124 ===
  0x2124	add    	byte ptr [eax], al
  0x2126	add    	byte ptr [eax], al
  0x2128	add    	byte ptr [eax], al
  0x212a	add    	byte ptr [eax], al
  0x212c	add    	byte ptr [eax], al
  === BLOCK LINK ===
    0x212e
=== CODE BLOCK END ===

=== CODE BLOCK ADDRESS 0x212e ===
  0x212e	add    	byte ptr [eax], al
  0x2130	add    	byte ptr [eax], al
  0x2132	add    	byte ptr [eax], al
  0x2134	add    	byte ptr [eax], al
  0x2136	add    	byte ptr [eax], al
  === BLOCK LINK ===
    0x2138
=== CODE BLOCK END ===

=== CODE BLOCK ADDRESS 0x2138 ===
  0x2138	add    	byte ptr [eax], al
  0x213a	add    	byte ptr [eax], al
  0x213c	add    	byte ptr [eax], al
  0x213e	add    	byte ptr [eax], al
  0x2140	add    	byte ptr [eax], al
  === BLOCK LINK ===
    0x2142
=== CODE BLOCK END ===

=== CODE BLOCK ADDRESS 0x2142 ===
  0x2142	add    	byte ptr [eax], al
  0x2144	add    	byte ptr [eax], al
  0x2146	add    	byte ptr [eax], al
  0x2148	add    	byte ptr [eax], al
  0x214a	add    	byte ptr [eax], al
  === BLOCK LINK ===
    0x214c
=== CODE BLOCK END ===

=== CODE BLOCK ADDRESS 0x214c ===
  0x214c	add    	byte ptr [eax], al
  0x214e	add    	byte ptr [eax], al
  0x2150	add    	byte ptr [eax], al
  0x2152	add    	byte ptr [eax], al
  0x2154	add    	byte ptr [eax], al
  === BLOCK LINK ===
    0x2156
=== CODE BLOCK END ===

=== CODE BLOCK ADDRESS 0x2156 ===
  0x2156	add    	byte ptr [eax], al
  0x2158	add    	byte ptr [eax], al
  0x215a	add    	byte ptr [eax], al
  0x215c	add    	byte ptr [eax], al
  0x215e	add    	byte ptr [eax], al
  === BLOCK LINK ===
    0x2160
=== CODE BLOCK END ===

=== CODE BLOCK ADDRESS 0x2160 ===
  0x2160	add    	byte ptr [eax], al
  0x2162	add    	byte ptr [eax], al
  0x2164	add    	byte ptr [eax], al
  0x2166	add    	byte ptr [eax], al
  0x2168	add    	byte ptr [eax], al
  === BLOCK LINK ===
    0x216a
=== CODE BLOCK END ===

=== CODE BLOCK ADDRESS 0x216a ===
  0x216a	add    	byte ptr [eax], al
  0x216c	add    	byte ptr [eax], al
  0x216e	add    	byte ptr [eax], al
  0x2170	add    	byte ptr [eax], al
  0x2172	add    	byte ptr [eax], al
  === BLOCK LINK ===
    0x2174
=== CODE BLOCK END ===

=== CODE BLOCK ADDRESS 0x2174 ===
  0x2174	add    	byte ptr [eax], al
  0x2176	add    	byte ptr [eax], al
  0x2178	add    	byte ptr [eax], al
  0x217a	add    	byte ptr [eax], al
  0x217c	add    	byte ptr [eax], al
  === BLOCK LINK ===
    0x217e
=== CODE BLOCK END ===

=== CODE BLOCK ADDRESS 0x217e ===
  0x217e	add    	byte ptr [eax], al
  0x2180	add    	byte ptr [eax], al
  0x2182	add    	byte ptr [eax], al
  0x2184	add    	byte ptr [eax], al
  0x2186	add    	byte ptr [eax], al
  === BLOCK LINK ===
    0x2188
=== CODE BLOCK END ===

=== CODE BLOCK ADDRESS 0x2188 ===
  0x2188	add    	byte ptr [eax], al
  0x218a	add    	byte ptr [eax], al
  0x218c	add    	byte ptr [eax], al
  0x218e	add    	byte ptr [eax], al
  0x2190	add    	byte ptr [eax], al
  === BLOCK LINK ===
    0x2192
=== CODE BLOCK END ===

=== CODE BLOCK ADDRESS 0x2192 ===
  0x2192	add    	byte ptr [eax], al
  0x2194	add    	byte ptr [eax], al
  0x2196	add    	byte ptr [eax], al
  0x2198	add    	byte ptr [eax], al
  0x219a	add    	byte ptr [eax], al
  === BLOCK LINK ===
    0x219c
=== CODE BLOCK END ===

=== CODE BLOCK ADDRESS 0x219c ===
  0x219c	add    	byte ptr [eax], al
  0x219e	add    	byte ptr [eax], al
  0x21a0	add    	byte ptr [eax], al
  0x21a2	add    	byte ptr [eax], al
  0x21a4	add    	byte ptr [eax], al
  === BLOCK LINK ===
    0x21a6
=== CODE BLOCK END ===

=== CODE BLOCK ADDRESS 0x21a6 ===
  0x21a6	add    	byte ptr [eax], al
  0x21a8	add    	byte ptr [eax], al
  0x21aa	add    	byte ptr [eax], al
  0x21ac	add    	byte ptr [eax], al
  0x21ae	add    	byte ptr [eax], al
  === BLOCK LINK ===
    0x21b0
=== CODE BLOCK END ===

=== CODE BLOCK ADDRESS 0x21b0 ===
  0x21b0	add    	byte ptr [eax], al
  0x21b2	add    	byte ptr [eax], al
  0x21b4	add    	byte ptr [eax], al
  0x21b6	add    	byte ptr [eax], al
  0x21b8	add    	byte ptr [eax], al
  === BLOCK LINK ===
    0x21ba
=== CODE BLOCK END ===

=== CODE BLOCK ADDRESS 0x21ba ===
  0x21ba	add    	byte ptr [eax], al
  0x21bc	add    	byte ptr [eax], al
  0x21be	add    	byte ptr [eax], al
  0x21c0	add    	byte ptr [eax], al
  0x21c2	add    	byte ptr [eax], al
  === BLOCK LINK ===
    0x21c4
=== CODE BLOCK END ===

=== CODE BLOCK ADDRESS 0x21c4 ===
  0x21c4	add    	byte ptr [eax], al
  0x21c6	add    	byte ptr [eax], al
  0x21c8	add    	byte ptr [eax], al
  0x21ca	add    	byte ptr [eax], al
  0x21cc	add    	byte ptr [eax], al
  === BLOCK LINK ===
    0x21ce
=== CODE BLOCK END ===

=== CODE BLOCK ADDRESS 0x21ce ===
  0x21ce	add    	byte ptr [eax], al
  0x21d0	add    	byte ptr [eax], al
  0x21d2	add    	byte ptr [eax], al
  0x21d4	add    	byte ptr [eax], al
  0x21d6	add    	byte ptr [eax], al
  === BLOCK LINK ===
    0x21d8
=== CODE BLOCK END ===

=== CODE BLOCK ADDRESS 0x21d8 ===
  0x21d8	add    	byte ptr [eax], al
  0x21da	add    	byte ptr [eax], al
  0x21dc	add    	byte ptr [eax], al
  0x21de	add    	byte ptr [eax], al
  0x21e0	add    	byte ptr [eax], al
  === BLOCK LINK ===
    0x21e2
=== CODE BLOCK END ===

=== CODE BLOCK ADDRESS 0x21e2 ===
  0x21e2	add    	byte ptr [eax], al
  0x21e4	add    	byte ptr [eax], al
  0x21e6	add    	byte ptr [eax], al
  0x21e8	add    	byte ptr [eax], al
  0x21ea	add    	byte ptr [eax], al
  === BLOCK LINK ===
    0x21ec
=== CODE BLOCK END ===

=== CODE BLOCK ADDRESS 0x21ec ===
  0x21ec	add    	byte ptr [eax], al
  0x21ee	add    	byte ptr [eax], al
  0x21f0	add    	byte ptr [eax], al
  0x21f2	add    	byte ptr [eax], al
  0x21f4	add    	byte ptr [eax], al
  === BLOCK LINK ===
    0x21f6
=== CODE BLOCK END ===

=== CODE BLOCK ADDRESS 0x21f6 ===
  0x21f6	add    	byte ptr [eax], al
  0x21f8	add    	byte ptr [eax], al
  0x21fa	add    	byte ptr [eax], al
  0x21fc	add    	byte ptr [eax], al
=== CODE BLOCK END ===

=== DATA BLOCK ADDRESS 0x3000 ===
  0x3000	a0 50 00 40 01 00 00 00 40 51 00 40 01 00 00 00 	0P0@0000@Q0@0000
  0x3010	18 01 00 00 00 00 00 00 00 00 00 00 00 00 00 00 	0000000000000000
  0x3020	00 00 00 00 00 00 00 00 00 00 00 00 00 00 00 00 	0000000000000000
  0x3030	00 00 00 00 00 00 00 00 00 00 00 00 00 00 00 00 	0000000000000000
  0x3040	00 00 00 00 00 00 00 00 00 00 00 00 00 00 00 00 	0000000000000000
  0x3050	00 00 00 00 00 00 00 00 00 00 00 00 00 00 00 00 	0000000000000000
  0x3060	00 00 00 00 00 00 00 00 48 50 00 40 01 00 00 00 	00000000HP0@0000
  0x3070	00 00 00 00 00 00 00 00 00 00 00 00 00 00 00 00 	0000000000000000
  0x3080	e0 32 00 40 01 00 00 00 e8 32 00 40 01 00 00 00 	020@0000020@0000
  0x3090	28 33 00 40 01 00 00 00 0a 00 00 00 00 00 00 00 	(30@000000000000
  0x30a0	00 75 01 00 00 00 00 00 00 00 00 00 00 00 00 00 	0u00000000000000
  0x30b0	00 00 00 00 00 00 00 00 00 00 00 00 00 00 00 00 	0000000000000000
  0x30c0	00 00 00 00 00 00 00 00 00 00 00 00 00 00 00 00 	0000000000000000
  0x30d0	00 00 00 00 00 00 00 00 00 00 00 00 00 00 00 00 	0000000000000000
  0x30e0	00 00 00 00 00 00 00 00 00 00 00 00 00 00 00 00 	0000000000000000
  0x30f0	00 00 00 00 00 00 00 00 00 00 00 00 00 00 00 00 	0000000000000000
  0x3100	00 00 00 00 00 00 00 00 00 00 00 00 00 00 00 00 	0000000000000000
  0x3110	00 00 00 00 00 00 00 00 00 00 00 00 00 00 00 00 	0000000000000000
  0x3120	00 00 00 00 00 00 00 00 a6 3d 00 00 00 00 00 00 	000000000=000000
  0x3130	8a 3e 00 00 00 00 00 00 12 3d 00 00 00 00 00 00 	0>0000000=000000
  0x3140	00 00 00 00 00 00 00 00 2e 3d 00 00 00 00 00 00 	00000000.=000000
  0x3150	00 00 00 00 00 00 00 00 82 3d 00 00 00 00 00 00 	000000000=000000
  0x3160	74 3d 00 00 00 00 00 00 4c 3d 00 00 00 00 00 00 	t=000000L=000000
  0x3170	c4 3d 00 00 00 00 00 00 00 00 00 00 00 00 00 00 	0=00000000000000
  0x3180	08 3e 00 00 00 00 00 00 f2 3d 00 00 00 00 00 00 	0>0000000=000000
  0x3190	ba 3e 00 00 00 00 00 00 94 3d 00 00 00 00 00 00 	0>0000000=000000
  0x31a0	a6 3e 00 00 00 00 00 00 00 00 00 00 00 00 00 00 	0>00000000000000
  0x31b0	d8 3d 00 00 00 00 00 00 00 00 00 00 00 00 00 00 	0=00000000000000
  0x31c0	76 3e 00 00 00 00 00 00 48 3e 00 00 00 00 00 00 	v>000000H>000000
  0x31d0	5c 3e 00 00 00 00 00 00 00 00 00 00 00 00 00 00 	0>00000000000000
  0x31e0	e4 3c 00 00 00 00 00 00 b8 3c 00 00 00 00 00 00 	0<0000000<000000
  0x31f0	22 3d 00 00 00 00 00 00 00 00 00 00 00 00 00 00 	"=00000000000000
  0x3200	f4 3c 00 00 00 00 00 00 00 00 00 00 00 00 00 00 	0<00000000000000
  0x3210	ce 3c 00 00 00 00 00 00 38 3e 00 00 00 00 00 00 	0<0000008>000000
  0x3220	1e 3e 00 00 00 00 00 00 00 00 00 00 00 00 00 00 	0>00000000000000
  0x3230	5e 3d 00 00 00 00 00 00 a6 3c 00 00 00 00 00 00 	^=0000000<000000
  0x3240	3c 3d 00 00 00 00 00 00 fc 3c 00 00 00 00 00 00 	<=0000000<000000
  0x3250	00 00 00 00 00 00 00 00 7a 3c 00 00 00 00 00 00 	00000000z<000000
  0x3260	70 3c 00 00 00 00 00 00 66 3c 00 00 00 00 00 00 	p<000000f<000000
  0x3270	ca 3b 00 00 00 00 00 00 92 3c 00 00 00 00 00 00 	0;0000000<000000
  0x3280	42 3c 00 00 00 00 00 00 2e 3c 00 00 00 00 00 00 	B<000000.<000000
  0x3290	24 3c 00 00 00 00 00 00 1c 3c 00 00 00 00 00 00 	$<0000000<000000
  0x32a0	14 3c 00 00 00 00 00 00 4e 3c 00 00 00 00 00 00 	0<000000N<000000
  0x32b0	02 3c 00 00 00 00 00 00 f0 3b 00 00 00 00 00 00 	0<0000000;000000
  0x32c0	e2 3b 00 00 00 00 00 00 d4 3b 00 00 00 00 00 00 	0;0000000;000000
  0x32d0	c0 3b 00 00 00 00 00 00 00 00 00 00 00 00 00 00 	0;00000000000000
  0x32e0	c0 1d 00 40 01 00 00 00 30 20 00 40 01 00 00 00 	000@00000 0@0000
  0x32f0	00 00 00 00 00 00 00 00 90 17 00 40 01 00 00 00 	00000000000@0000
  0x3300	00 00 00 00 00 00 00 00 00 00 00 00 00 00 00 00 	0000000000000000
  0x3310	b0 16 00 40 01 00 00 00 f0 1a 00 40 01 00 00 00 	000@0000000@0000
  0x3320	00 00 00 00 00 00 00 00 10 10 00 00 40 11 00 00 	000000000000@000
  0x3330	b0 16 00 00 90 17 00 00 50 1a 00 00 b0 1a 00 00 	00000000P0000000
  0x3340	f0 1a 00 00 d0 1b 00 00 c0 1d 00 00 10 1e 00 00 	0000000000000000
  0x3350	00 00 00 00 00 00 00 00 5c 00 44 00 65 00 76 00 	0000000000D0e0v0
  0x3360	69 00 63 00 65 00 41 00 73 00 73 00 6f 00 63 00 	i0c0e0A0s0s0o0c0
  0x3370	69 00 61 00 74 00 69 00 6f 00 6e 00 2e 00 64 00 	i0a0t0i0o0n0.0d0
  0x3380	6c 00 6c 00 00 00 00 00 44 61 66 43 72 65 61 74 	l0l00000DafCreat
  0x3390	65 41 73 73 6f 63 69 61 74 69 6f 6e 43 6f 6e 74 	eAssociationCont
  0x33a0	65 78 74 00 00 00 00 00 44 61 66 53 74 61 72 74 	ext00000DafStart
  0x33b0	52 65 6d 6f 76 65 41 73 73 6f 63 69 61 74 69 6f 	RemoveAssociatio
  0x33c0	6e 00 00 00 00 00 00 00 44 61 66 43 6c 6f 73 65 	n0000000DafClose
  0x33d0	41 73 73 6f 63 69 61 74 69 6f 6e 43 6f 6e 74 65 	AssociationConte
  0x33e0	78 74 00 00 00 00 00 00 2f 00 44 00 69 00 73 00 	xt000000/0D0i0s0
  0x33f0	61 00 73 00 73 00 6f 00 63 00 69 00 61 00 74 00 	a0s0s0o0c0i0a0t0
  0x3400	65 00 00 00 00 00 00 00 00 00 00 00 00 00 00 00 	e000000000000000
  0x3410	00 00 00 00 85 09 7e 79 00 00 00 00 02 00 00 00 	000000~y00000000
  0x3420	2c 00 00 00 38 35 00 00 38 1b 00 00 00 00 00 00 	,000850080000000
  0x3430	85 09 7e 79 00 00 00 00 0d 00 00 00 74 02 00 00 	00~y00000000t000
  0x3440	64 35 00 00 64 1b 00 00 00 00 00 00 85 09 7e 79 	d500d000000000~y
  0x3450	00 00 00 00 10 00 00 00 24 00 00 00 d8 37 00 00 	00000000$0000700
  0x3460	d8 1d 00 00 00 00 00 00 45 54 57 30 10 00 00 01 	00000000ETW00000
  0x3470	86 0e 04 88 2b 05 8a bb 06 0b 05 00 00 00 00 00 	0000+00000000000
  0x3480	00 00 00 00 27 00 00 44 69 73 61 73 73 6f 63 69 	0000'00Disassoci
  0x3490	61 74 65 41 65 70 46 69 6e 69 73 68 65 64 00 61 	ateAepFinished0a
  0x34a0	65 70 49 64 00 01 68 72 00 87 0f 06 0b 05 00 00 	epId00hr00000000
  0x34b0	00 00 00 00 00 00 00 20 00 00 52 65 6d 6f 74 65 	0000000 00Remote
  0x34c0	50 6f 73 57 6f 72 6b 65 72 46 69 6e 69 73 68 65 	PosWorkerFinishe
  0x34d0	64 00 68 72 00 87 0f 06 0b 05 00 00 00 00 00 00 	d0hr000000000000
  0x34e0	00 00 00 1a 00 00 52 65 6d 6f 74 65 50 6f 73 57 	000000RemotePosW
  0x34f0	6f 72 6b 65 72 53 74 61 72 74 65 64 00 04 39 c3 	orkerStarted0090
  0x3500	73 fe 94 a1 ef 4c 89 82 6a c1 f0 94 d6 e4 28 00 	s0000L00j00000(0
  0x3510	4d 69 63 72 6f 73 6f 66 74 2e 4f 53 47 2e 49 6f 	Microsoft.OSG.Io
  0x3520	54 2e 50 6f 73 2e 52 65 6d 6f 74 65 50 6f 73 57 	T.Pos.RemotePosW
  0x3530	6f 72 6b 65 72 00 01 00 52 53 44 53 82 ea 43 bc 	orker000RSDS00C0
  0x3540	12 72 d5 be 1f b2 91 a3 48 c9 ec e1 01 00 00 00 	0r000000H0000000
  0x3550	52 65 6d 6f 74 65 50 6f 73 57 6f 72 6b 65 72 2e 	RemotePosWorker.
  0x3560	70 64 62 00 47 43 54 4c 00 10 00 00 30 01 00 00 	pdb0GCTL00000000
  0x3570	2e 74 65 78 74 00 00 00 30 11 00 00 f0 0e 00 00 	.text00000000000
  0x3580	2e 74 65 78 74 24 6d 6e 00 00 00 00 20 20 00 00 	.text$mn0000  00
  0x3590	20 00 00 00 2e 74 65 78 74 24 6d 6e 24 30 30 00 	 000.text$mn$000
  0x35a0	40 20 00 00 50 00 00 00 2e 74 65 78 74 24 78 00 	@ 00P000.text$x0
  0x35b0	00 30 00 00 28 01 00 00 2e 72 64 61 74 61 24 62 	0000(000.rdata$b
  0x35c0	72 63 00 00 28 31 00 00 b8 01 00 00 2e 69 64 61 	rc00(1000000.ida
  0x35d0	74 61 24 35 00 00 00 00 e0 32 00 00 10 00 00 00 	ta$5000002000000
  0x35e0	2e 30 30 63 66 67 00 00 f0 32 00 00 08 00 00 00 	.00cfg0002000000
  0x35f0	2e 43 52 54 24 58 43 41 00 00 00 00 f8 32 00 00 	.CRT$XCA00000200
  0x3600	08 00 00 00 2e 43 52 54 24 58 43 41 41 00 00 00 	0000.CRT$XCAA000
  0x3610	00 33 00 00 08 00 00 00 2e 43 52 54 24 58 43 5a 	03000000.CRT$XCZ
  0x3620	00 00 00 00 08 33 00 00 08 00 00 00 2e 43 52 54 	000003000000.CRT
  0x3630	24 58 49 41 00 00 00 00 10 33 00 00 08 00 00 00 	$XIA000003000000
  0x3640	2e 43 52 54 24 58 49 41 41 00 00 00 18 33 00 00 	.CRT$XIAA0000300
  0x3650	08 00 00 00 2e 43 52 54 24 58 49 59 00 00 00 00 	0000.CRT$XIY0000
  0x3660	20 33 00 00 08 00 00 00 2e 43 52 54 24 58 49 5a 	 3000000.CRT$XIZ
  0x3670	00 00 00 00 28 33 00 00 28 00 00 00 2e 67 66 69 	0000(300(000.gfi
  0x3680	64 73 00 00 50 33 00 00 18 01 00 00 2e 72 64 61 	ds00P3000000.rda
  0x3690	74 61 00 00 68 34 00 00 10 00 00 00 2e 72 64 61 	ta00h4000000.rda
  0x36a0	74 61 24 7a 45 54 57 30 00 00 00 00 78 34 00 00 	ta$zETW00000x400
  0x36b0	85 00 00 00 2e 72 64 61 74 61 24 7a 45 54 57 31 	0000.rdata$zETW1
  0x36c0	00 00 00 00 fd 34 00 00 39 00 00 00 2e 72 64 61 	000004009000.rda
  0x36d0	74 61 24 7a 45 54 57 32 00 00 00 00 36 35 00 00 	ta$zETW200006500
  0x36e0	02 00 00 00 2e 72 64 61 74 61 24 7a 45 54 57 39 	0000.rdata$zETW9
  0x36f0	00 00 00 00 38 35 00 00 c8 02 00 00 2e 72 64 61 	000085000000.rda
  0x3700	74 61 24 7a 7a 7a 64 62 67 00 00 00 00 38 00 00 	ta$zzzdbg0000800
  0x3710	14 01 00 00 2e 78 64 61 74 61 00 00 14 39 00 00 	0000.xdata000900
  0x3720	dc 00 00 00 2e 69 64 61 74 61 24 32 00 00 00 00 	0000.idata$20000
  0x3730	f0 39 00 00 18 00 00 00 2e 69 64 61 74 61 24 33 	09000000.idata$3
  0x3740	00 00 00 00 08 3a 00 00 b8 01 00 00 2e 69 64 61 	00000:000000.ida
  0x3750	74 61 24 34 00 00 00 00 c0 3b 00 00 88 04 00 00 	ta$400000;000000
  0x3760	2e 69 64 61 74 61 24 36 00 00 00 00 00 50 00 00 	.idata$600000P00
  0x3770	40 00 00 00 2e 64 61 74 61 24 62 72 63 00 00 00 	@000.data$brc000
  0x3780	40 50 00 00 20 00 00 00 2e 64 61 74 61 00 00 00 	@P00 000.data000
  0x3790	60 50 00 00 58 06 00 00 2e 62 73 73 00 00 00 00 	`P00X000.bss0000
  0x37a0	00 60 00 00 08 01 00 00 2e 70 64 61 74 61 00 00 	0`000000.pdata00
  0x37b0	00 70 00 00 60 00 00 00 2e 72 73 72 63 24 30 31 	0p00`000.rsrc$01
  0x37c0	00 00 00 00 60 70 00 00 b8 03 00 00 2e 72 73 72 	0000`p000000.rsr
  0x37d0	63 24 30 32 00 00 00 00 20 00 00 00 82 ea 43 bc 	c$020000 00000C0
  0x37e0	12 72 d5 be 1f b2 91 a3 48 c9 ec e1 ae 2c 51 5d 	0r000000H0000,Q]
  0x37f0	54 5b 14 b9 0b ab d5 c5 85 09 7e 79 00 00 00 00 	T[00000000~y0000
  0x3800	01 06 02 00 06 72 02 30 01 04 01 00 04 82 00 00 	00000r0000000000
  0x3810	19 37 0d 00 26 74 5f 00 26 64 5e 00 26 34 5d 00 	0700&t_0&d^0&4]0
  0x3820	26 01 56 00 18 f0 16 e0 14 d0 12 c0 10 50 00 00 	&0V0000000000P00
  0x3830	98 1f 00 00 a0 02 00 00 19 1e 06 00 0f 64 11 00 	0000000000000d00
  0x3840	0f 34 10 00 0f d2 0b 70 98 1f 00 00 68 00 00 00 	0400000p0000h000
  0x3850	01 04 01 00 04 42 00 00 01 04 01 00 04 62 00 00 	00000B0000000b00
  0x3860	09 1c 0b 00 1c e4 1b 00 1c 74 1a 00 1c 64 19 00 	000000000t000d00
  0x3870	1c 34 18 00 1c 01 16 00 15 f0 00 00 aa 1d 00 00 	0400000000000000
  0x3880	01 00 00 00 0f 18 00 00 f9 19 00 00 40 20 00 00 	000000000000@ 00
  0x3890	f9 19 00 00 01 06 02 00 06 32 02 50 00 00 00 00 	00000000020P0000
  0x38a0	01 00 00 00 09 04 01 00 04 22 00 00 aa 1d 00 00 	000000000"000000
  0x38b0	01 00 00 00 2c 1b 00 00 62 1b 00 00 01 00 00 00 	0000,000b0000000
  0x38c0	62 1b 00 00 01 06 02 00 06 32 02 30 09 0a 04 00 	b000000002000000
  0x38d0	0a 34 06 00 0a 32 06 70 aa 1d 00 00 01 00 00 00 	0400020p00000000
  0x38e0	3d 1c 00 00 70 1c 00 00 70 20 00 00 70 1c 00 00 	=000p000p 00p000
  0x38f0	01 0d 04 00 0d 34 09 00 0d 32 06 50 01 0c 02 00 	00000400020P0000
  0x3900	0c 01 11 00 00 00 00 00 01 00 00 00 01 02 01 00 	0000000000000000
  0x3910	02 30 00 00 38 3b 00 00 00 00 00 00 00 00 00 00 	00008;0000000000
  0x3920	86 3c 00 00 58 32 00 00 10 3b 00 00 00 00 00 00 	0<00X2000;000000
  0x3930	00 00 00 00 ce 3e 00 00 30 32 00 00 c0 3a 00 00 	00000>0002000:00
  0x3940	00 00 00 00 00 00 00 00 f6 3e 00 00 e0 31 00 00 	000000000>000100
  0x3950	f0 3a 00 00 00 00 00 00 00 00 00 00 18 3f 00 00 	0:00000000000?00
  0x3960	10 32 00 00 e0 3a 00 00 00 00 00 00 00 00 00 00 	02000:0000000000
  0x3970	3c 3f 00 00 00 32 00 00 08 3a 00 00 00 00 00 00 	<?0002000:000000
  0x3980	00 00 00 00 5e 3f 00 00 28 31 00 00 28 3a 00 00 	0000^?00(100(:00
  0x3990	00 00 00 00 00 00 00 00 88 3f 00 00 48 31 00 00 	000000000?00H100
  0x39a0	38 3a 00 00 00 00 00 00 00 00 00 00 aa 3f 00 00 	8:00000000000?00
  0x39b0	58 31 00 00 60 3a 00 00 00 00 00 00 00 00 00 00 	X100`:0000000000
  0x39c0	d4 3f 00 00 80 31 00 00 90 3a 00 00 00 00 00 00 	0?0001000:000000
  0x39d0	00 00 00 00 fe 3f 00 00 b0 31 00 00 a0 3a 00 00 	00000?0001000:00
  0x39e0	00 00 00 00 00 00 00 00 22 40 00 00 c0 31 00 00 	00000000"@000100
  0x39f0	00 00 00 00 00 00 00 00 00 00 00 00 00 00 00 00 	0000000000000000
  0x3a00	00 00 00 00 00 00 00 00 a6 3d 00 00 00 00 00 00 	000000000=000000
  0x3a10	8a 3e 00 00 00 00 00 00 12 3d 00 00 00 00 00 00 	0>0000000=000000
  0x3a20	00 00 00 00 00 00 00 00 2e 3d 00 00 00 00 00 00 	00000000.=000000
  0x3a30	00 00 00 00 00 00 00 00 82 3d 00 00 00 00 00 00 	000000000=000000
  0x3a40	74 3d 00 00 00 00 00 00 4c 3d 00 00 00 00 00 00 	t=000000L=000000
  0x3a50	c4 3d 00 00 00 00 00 00 00 00 00 00 00 00 00 00 	0=00000000000000
  0x3a60	08 3e 00 00 00 00 00 00 f2 3d 00 00 00 00 00 00 	0>0000000=000000
  0x3a70	ba 3e 00 00 00 00 00 00 94 3d 00 00 00 00 00 00 	0>0000000=000000
  0x3a80	a6 3e 00 00 00 00 00 00 00 00 00 00 00 00 00 00 	0>00000000000000
  0x3a90	d8 3d 00 00 00 00 00 00 00 00 00 00 00 00 00 00 	0=00000000000000
  0x3aa0	76 3e 00 00 00 00 00 00 48 3e 00 00 00 00 00 00 	v>000000H>000000
  0x3ab0	5c 3e 00 00 00 00 00 00 00 00 00 00 00 00 00 00 	0>00000000000000
  0x3ac0	e4 3c 00 00 00 00 00 00 b8 3c 00 00 00 00 00 00 	0<0000000<000000
  0x3ad0	22 3d 00 00 00 00 00 00 00 00 00 00 00 00 00 00 	"=00000000000000
  0x3ae0	f4 3c 00 00 00 00 00 00 00 00 00 00 00 00 00 00 	0<00000000000000
  0x3af0	ce 3c 00 00 00 00 00 00 38 3e 00 00 00 00 00 00 	0<0000008>000000
  0x3b00	1e 3e 00 00 00 00 00 00 00 00 00 00 00 00 00 00 	0>00000000000000
  0x3b10	5e 3d 00 00 00 00 00 00 a6 3c 00 00 00 00 00 00 	^=0000000<000000
  0x3b20	3c 3d 00 00 00 00 00 00 fc 3c 00 00 00 00 00 00 	<=0000000<000000
  0x3b30	00 00 00 00 00 00 00 00 7a 3c 00 00 00 00 00 00 	00000000z<000000
  0x3b40	70 3c 00 00 00 00 00 00 66 3c 00 00 00 00 00 00 	p<000000f<000000
  0x3b50	ca 3b 00 00 00 00 00 00 92 3c 00 00 00 00 00 00 	0;0000000<000000
  0x3b60	42 3c 00 00 00 00 00 00 2e 3c 00 00 00 00 00 00 	B<000000.<000000
  0x3b70	24 3c 00 00 00 00 00 00 1c 3c 00 00 00 00 00 00 	$<0000000<000000
  0x3b80	14 3c 00 00 00 00 00 00 4e 3c 00 00 00 00 00 00 	0<000000N<000000
  0x3b90	02 3c 00 00 00 00 00 00 f0 3b 00 00 00 00 00 00 	0<0000000;000000
  0x3ba0	e2 3b 00 00 00 00 00 00 d4 3b 00 00 00 00 00 00 	0;0000000;000000
  0x3bb0	c0 3b 00 00 00 00 00 00 00 00 00 00 00 00 00 00 	0;00000000000000
  0x3bc0	01 05 77 63 73 63 68 72 00 00 0b 05 77 63 73 6e 	00wcschr0000wcsn
  0x3bd0	63 6d 70 00 55 00 5f 58 63 70 74 46 69 6c 74 65 	cmp0U0_XcptFilte
  0x3be0	72 00 ae 00 5f 61 6d 73 67 5f 65 78 69 74 00 00 	r000_amsg_exit00
  0x3bf0	9d 00 5f 5f 77 67 65 74 6d 61 69 6e 61 72 67 73 	00__wgetmainargs
  0x3c00	00 00 8e 00 5f 5f 73 65 74 5f 61 70 70 5f 74 79 	0000__set_app_ty
  0x3c10	70 65 00 00 32 04 65 78 69 74 00 00 0e 01 5f 65 	pe0020exit0000_e
  0x3c20	78 69 74 00 c1 00 5f 63 65 78 69 74 00 00 90 00 	xit000_cexit0000
  0x3c30	5f 5f 73 65 74 75 73 65 72 6d 61 74 68 65 72 72 	__setusermatherr
  0x3c40	00 00 7d 01 5f 69 6e 69 74 74 65 72 6d 00 57 00 	00}0_initterm0W0
  0x3c50	5f 5f 43 5f 73 70 65 63 69 66 69 63 5f 68 61 6e 	__C_specific_han
  0x3c60	64 6c 65 72 00 00 82 03 5f 77 63 6d 64 6c 6e 00 	dler0000_wcmdln0
  0x3c70	27 01 5f 66 6d 6f 64 65 00 00 d2 00 5f 63 6f 6d 	'0_fmode0000_com
  0x3c80	6d 6f 64 65 00 00 6d 73 76 63 72 74 2e 64 6c 6c 	mode00msvcrt.dll
  0x3c90	00 00 2f 00 3f 74 65 72 6d 69 6e 61 74 65 40 40 	00/0?terminate@@
  0x3ca0	59 41 58 58 5a 00 05 00 45 76 65 6e 74 55 6e 72 	YAXXZ000EventUnr
  0x3cb0	65 67 69 73 74 65 72 00 36 00 57 61 69 74 46 6f 	egister060WaitFo
  0x3cc0	72 53 69 6e 67 6c 65 4f 62 6a 65 63 74 00 0f 00 	rSingleObject000
  0x3cd0	47 65 74 53 79 73 74 65 6d 44 69 72 65 63 74 6f 	GetSystemDirecto
  0x3ce0	72 79 57 00 06 00 43 72 65 61 74 65 45 76 65 6e 	ryW000CreateEven
  0x3cf0	74 57 00 00 2d 00 53 6c 65 65 70 00 04 00 45 76 	tW00-0Sleep000Ev
  0x3d00	65 6e 74 53 65 74 49 6e 66 6f 72 6d 61 74 69 6f 	entSetInformatio
  0x3d10	6e 00 05 00 47 65 74 4c 61 73 74 45 72 72 6f 72 	n000GetLastError
  0x3d20	00 00 29 00 53 65 74 45 76 65 6e 74 00 00 00 00 	00)0SetEvent0000
  0x3d30	43 6c 6f 73 65 48 61 6e 64 6c 65 00 03 00 45 76 	CloseHandle000Ev
  0x3d40	65 6e 74 52 65 67 69 73 74 65 72 00 15 00 47 65 	entRegister000Ge
  0x3d50	74 50 72 6f 63 41 64 64 72 65 73 73 00 00 09 00 	tProcAddress0000
  0x3d60	45 76 65 6e 74 57 72 69 74 65 54 72 61 6e 73 66 	EventWriteTransf
  0x3d70	65 72 00 00 0c 00 46 72 65 65 4c 69 62 72 61 72 	er0000FreeLibrar
  0x3d80	79 00 18 00 4c 6f 61 64 4c 69 62 72 61 72 79 45 	y000LoadLibraryE
  0x3d90	78 57 00 00 20 00 47 65 74 53 74 61 72 74 75 70 	xW00 0GetStartup
  0x3da0	49 6e 66 6f 57 00 0f 00 53 65 74 55 6e 68 61 6e 	InfoW000SetUnhan
  0x3db0	64 6c 65 64 45 78 63 65 70 74 69 6f 6e 46 69 6c 	dledExceptionFil
  0x3dc0	74 65 72 00 14 00 47 65 74 4d 6f 64 75 6c 65 48 	ter000GetModuleH
  0x3dd0	61 6e 64 6c 65 57 00 00 00 00 51 75 65 72 79 50 	andleW0000QueryP
  0x3de0	65 72 66 6f 72 6d 61 6e 63 65 43 6f 75 6e 74 65 	erformanceCounte
  0x3df0	72 00 0d 00 47 65 74 43 75 72 72 65 6e 74 50 72 	r000GetCurrentPr
  0x3e00	6f 63 65 73 73 49 64 00 11 00 47 65 74 43 75 72 	ocessId000GetCur
  0x3e10	72 65 6e 74 54 68 72 65 61 64 49 64 00 00 16 00 	rentThreadId0000
  0x3e20	47 65 74 53 79 73 74 65 6d 54 69 6d 65 41 73 46 	GetSystemTimeAsF
  0x3e30	69 6c 65 54 69 6d 65 00 1a 00 47 65 74 54 69 63 	ileTime000GetTic
  0x3e40	6b 43 6f 75 6e 74 00 00 02 00 52 74 6c 43 61 70 	kCount0000RtlCap
  0x3e50	74 75 72 65 43 6f 6e 74 65 78 74 00 0a 00 52 74 	tureContext000Rt
  0x3e60	6c 4c 6f 6f 6b 75 70 46 75 6e 63 74 69 6f 6e 45 	lLookupFunctionE
  0x3e70	6e 74 72 79 00 00 10 00 52 74 6c 56 69 72 74 75 	ntry0000RtlVirtu
  0x3e80	61 6c 55 6e 77 69 6e 64 00 00 11 00 55 6e 68 61 	alUnwind0000Unha
  0x3e90	6e 64 6c 65 64 45 78 63 65 70 74 69 6f 6e 46 69 	ndledExceptionFi
  0x3ea0	6c 74 65 72 00 00 0c 00 47 65 74 43 75 72 72 65 	lter0000GetCurre
  0x3eb0	6e 74 50 72 6f 63 65 73 73 00 4e 00 54 65 72 6d 	ntProcess0N0Term
  0x3ec0	69 6e 61 74 65 50 72 6f 63 65 73 73 00 00 61 70 	inateProcess00ap
  0x3ed0	69 2d 6d 73 2d 77 69 6e 2d 65 76 65 6e 74 69 6e 	i-ms-win-eventin
  0x3ee0	67 2d 70 72 6f 76 69 64 65 72 2d 6c 31 2d 31 2d 	g-provider-l1-1-
  0x3ef0	30 2e 64 6c 6c 00 61 70 69 2d 6d 73 2d 77 69 6e 	0.dll0api-ms-win
  0x3f00	2d 63 6f 72 65 2d 73 79 6e 63 68 2d 6c 31 2d 31 	-core-synch-l1-1
  0x3f10	2d 30 2e 64 6c 6c 00 00 61 70 69 2d 6d 73 2d 77 	-0.dll00api-ms-w
  0x3f20	69 6e 2d 63 6f 72 65 2d 73 79 73 69 6e 66 6f 2d 	in-core-sysinfo-
  0x3f30	6c 31 2d 31 2d 30 2e 64 6c 6c 00 00 61 70 69 2d 	l1-1-0.dll00api-
  0x3f40	6d 73 2d 77 69 6e 2d 63 6f 72 65 2d 73 79 6e 63 	ms-win-core-sync
  0x3f50	68 2d 6c 31 2d 32 2d 30 2e 64 6c 6c 00 00 61 70 	h-l1-2-0.dll00ap
  0x3f60	69 2d 6d 73 2d 77 69 6e 2d 63 6f 72 65 2d 65 72 	i-ms-win-core-er
  0x3f70	72 6f 72 68 61 6e 64 6c 69 6e 67 2d 6c 31 2d 31 	rorhandling-l1-1
  0x3f80	2d 30 2e 64 6c 6c 00 00 61 70 69 2d 6d 73 2d 77 	-0.dll00api-ms-w
  0x3f90	69 6e 2d 63 6f 72 65 2d 68 61 6e 64 6c 65 2d 6c 	in-core-handle-l
  0x3fa0	31 2d 31 2d 30 2e 64 6c 6c 00 61 70 69 2d 6d 73 	1-1-0.dll0api-ms
  0x3fb0	2d 77 69 6e 2d 63 6f 72 65 2d 6c 69 62 72 61 72 	-win-core-librar
  0x3fc0	79 6c 6f 61 64 65 72 2d 6c 31 2d 32 2d 30 2e 64 	yloader-l1-2-0.d
  0x3fd0	6c 6c 00 00 61 70 69 2d 6d 73 2d 77 69 6e 2d 63 	ll00api-ms-win-c
  0x3fe0	6f 72 65 2d 70 72 6f 63 65 73 73 74 68 72 65 61 	ore-processthrea
  0x3ff0	64 73 2d 6c 31 2d 31 2d 30 2e 64 6c 6c 00 61 70 	ds-l1-1-0.dll0ap
  0x4000	69 2d 6d 73 2d 77 69 6e 2d 63 6f 72 65 2d 70 72 	i-ms-win-core-pr
  0x4010	6f 66 69 6c 65 2d 6c 31 2d 31 2d 30 2e 64 6c 6c 	ofile-l1-1-0.dll
  0x4020	00 00 61 70 69 2d 6d 73 2d 77 69 6e 2d 63 6f 72 	00api-ms-win-cor
  0x4030	65 2d 72 74 6c 73 75 70 70 6f 72 74 2d 6c 31 2d 	e-rtlsupport-l1-
  0x4040	31 2d 30 2e 64 6c 6c 00 00 00 00 00 00 00 00 00 	1-0.dll000000000
  0x4050	00 00 00 00 00 00 00 00 00 00 00 00 00 00 00 00 	0000000000000000
  0x4060	00 00 00 00 00 00 00 00 00 00 00 00 00 00 00 00 	0000000000000000
  0x4070	00 00 00 00 00 00 00 00 00 00 00 00 00 00 00 00 	0000000000000000
  0x4080	00 00 00 00 00 00 00 00 00 00 00 00 00 00 00 00 	0000000000000000
  0x4090	00 00 00 00 00 00 00 00 00 00 00 00 00 00 00 00 	0000000000000000
  0x40a0	00 00 00 00 00 00 00 00 00 00 00 00 00 00 00 00 	0000000000000000
  0x40b0	00 00 00 00 00 00 00 00 00 00 00 00 00 00 00 00 	0000000000000000
  0x40c0	00 00 00 00 00 00 00 00 00 00 00 00 00 00 00 00 	0000000000000000
  0x40d0	00 00 00 00 00 00 00 00 00 00 00 00 00 00 00 00 	0000000000000000
  0x40e0	00 00 00 00 00 00 00 00 00 00 00 00 00 00 00 00 	0000000000000000
  0x40f0	00 00 00 00 00 00 00 00 00 00 00 00 00 00 00 00 	0000000000000000
  0x4100	00 00 00 00 00 00 00 00 00 00 00 00 00 00 00 00 	0000000000000000
  0x4110	00 00 00 00 00 00 00 00 00 00 00 00 00 00 00 00 	0000000000000000
  0x4120	00 00 00 00 00 00 00 00 00 00 00 00 00 00 00 00 	0000000000000000
  0x4130	00 00 00 00 00 00 00 00 00 00 00 00 00 00 00 00 	0000000000000000
  0x4140	00 00 00 00 00 00 00 00 00 00 00 00 00 00 00 00 	0000000000000000
  0x4150	00 00 00 00 00 00 00 00 00 00 00 00 00 00 00 00 	0000000000000000
  0x4160	00 00 00 00 00 00 00 00 00 00 00 00 00 00 00 00 	0000000000000000
  0x4170	00 00 00 00 00 00 00 00 00 00 00 00 00 00 00 00 	0000000000000000
  0x4180	00 00 00 00 00 00 00 00 00 00 00 00 00 00 00 00 	0000000000000000
  0x4190	00 00 00 00 00 00 00 00 00 00 00 00 00 00 00 00 	0000000000000000
  0x41a0	00 00 00 00 00 00 00 00 00 00 00 00 00 00 00 00 	0000000000000000
  0x41b0	00 00 00 00 00 00 00 00 00 00 00 00 00 00 00 00 	0000000000000000
  0x41c0	00 00 00 00 00 00 00 00 00 00 00 00 00 00 00 00 	0000000000000000
  0x41d0	00 00 00 00 00 00 00 00 00 00 00 00 00 00 00 00 	0000000000000000
  0x41e0	00 00 00 00 00 00 00 00 00 00 00 00 00 00 00 00 	0000000000000000
  0x41f0	00 00 00 00 00 00 00 00 00 00 00 00 00 00 00 00 	0000000000000000
=== DATA BLOCK END ===

=== DATA BLOCK ADDRESS 0x5000 ===
  0x5000	00 00 00 00 00 00 00 00 0e 35 00 40 01 00 00 00 	00000000050@0000
  0x5010	00 00 00 00 00 00 00 00 00 00 00 00 00 00 00 00 	0000000000000000
  0x5020	00 00 00 00 00 00 00 00 00 00 00 00 00 00 00 00 	0000000000000000
  0x5030	00 00 00 00 00 00 00 00 00 00 00 00 00 00 00 00 	0000000000000000
  0x5040	01 00 00 00 00 00 00 00 32 a2 df 2d 99 2b 00 00 	00000000200-0+00
  0x5050	cd 5d 20 d2 66 d4 ff ff 00 00 00 00 00 00 00 00 	0] 0f00000000000
  0x5060	00 00 00 00 00 00 00 00 00 00 00 00 00 00 00 00 	0000000000000000
  0x5070	00 00 00 00 00 00 00 00 00 00 00 00 00 00 00 00 	0000000000000000
  0x5080	00 00 00 00 00 00 00 00 00 00 00 00 00 00 00 00 	0000000000000000
  0x5090	00 00 00 00 00 00 00 00 00 00 00 00 00 00 00 00 	0000000000000000
  0x50a0	00 00 00 00 00 00 00 00 00 00 00 00 00 00 00 00 	0000000000000000
  0x50b0	00 00 00 00 00 00 00 00 00 00 00 00 00 00 00 00 	0000000000000000
  0x50c0	00 00 00 00 00 00 00 00 00 00 00 00 00 00 00 00 	0000000000000000
  0x50d0	00 00 00 00 00 00 00 00 00 00 00 00 00 00 00 00 	0000000000000000
  0x50e0	00 00 00 00 00 00 00 00 00 00 00 00 00 00 00 00 	0000000000000000
  0x50f0	00 00 00 00 00 00 00 00 00 00 00 00 00 00 00 00 	0000000000000000
  0x5100	00 00 00 00 00 00 00 00 00 00 00 00 00 00 00 00 	0000000000000000
  0x5110	00 00 00 00 00 00 00 00 00 00 00 00 00 00 00 00 	0000000000000000
  0x5120	00 00 00 00 00 00 00 00 00 00 00 00 00 00 00 00 	0000000000000000
  0x5130	00 00 00 00 00 00 00 00 00 00 00 00 00 00 00 00 	0000000000000000
  0x5140	00 00 00 00 00 00 00 00 00 00 00 00 00 00 00 00 	0000000000000000
  0x5150	00 00 00 00 00 00 00 00 00 00 00 00 00 00 00 00 	0000000000000000
  0x5160	00 00 00 00 00 00 00 00 00 00 00 00 00 00 00 00 	0000000000000000
  0x5170	00 00 00 00 00 00 00 00 00 00 00 00 00 00 00 00 	0000000000000000
  0x5180	00 00 00 00 00 00 00 00 00 00 00 00 00 00 00 00 	0000000000000000
  0x5190	00 00 00 00 00 00 00 00 00 00 00 00 00 00 00 00 	0000000000000000
  0x51a0	00 00 00 00 00 00 00 00 00 00 00 00 00 00 00 00 	0000000000000000
  0x51b0	00 00 00 00 00 00 00 00 00 00 00 00 00 00 00 00 	0000000000000000
  0x51c0	00 00 00 00 00 00 00 00 00 00 00 00 00 00 00 00 	0000000000000000
  0x51d0	00 00 00 00 00 00 00 00 00 00 00 00 00 00 00 00 	0000000000000000
  0x51e0	00 00 00 00 00 00 00 00 00 00 00 00 00 00 00 00 	0000000000000000
  0x51f0	00 00 00 00 00 00 00 00 00 00 00 00 00 00 00 00 	0000000000000000
=== DATA BLOCK END ===

=== DATA BLOCK ADDRESS 0x6000 ===
  0x6000	10 10 00 00 89 10 00 00 00 38 00 00 90 10 00 00 	0000000008000000
  0x6010	25 11 00 00 08 38 00 00 58 11 00 00 ce 14 00 00 	%0000800X0000000
  0x6020	10 38 00 00 d4 14 00 00 9f 16 00 00 38 38 00 00 	0800000000008800
  0x6030	b0 16 00 00 83 17 00 00 50 38 00 00 90 17 00 00 	00000000P8000000
  0x6040	d9 17 00 00 58 38 00 00 e0 17 00 00 44 1a 00 00 	0000X8000000D000
  0x6050	60 38 00 00 50 1a 00 00 62 1a 00 00 50 38 00 00 	`800P000b000P800
  0x6060	80 1a 00 00 9e 1a 00 00 a0 38 00 00 b0 1a 00 00 	0000000008000000
  0x6070	e9 1a 00 00 50 38 00 00 f0 1a 00 00 08 1b 00 00 	0000P80000000000
  0x6080	50 38 00 00 1c 1b 00 00 70 1b 00 00 a4 38 00 00 	P8000000p0000800
  0x6090	78 1b 00 00 bd 1b 00 00 c4 38 00 00 30 1c 00 00 	x000000008000000
  0x60a0	7d 1c 00 00 cc 38 00 00 c4 1c 00 00 98 1d 00 00 	}000080000000000
  0x60b0	f0 38 00 00 cc 1d 00 00 00 1e 00 00 c4 38 00 00 	0800000000000800
  0x60c0	10 1e 00 00 81 1f 00 00 fc 38 00 00 98 1f 00 00 	0000000008000000
  0x60d0	b5 1f 00 00 50 38 00 00 bc 1f 00 00 17 20 00 00 	0000P80000000 00
  0x60e0	0c 39 00 00 30 20 00 00 32 20 00 00 08 39 00 00 	09000 002 000900
  0x60f0	40 20 00 00 5e 20 00 00 94 38 00 00 70 20 00 00 	@ 00^ 000800p 00
  0x6100	90 20 00 00 94 38 00 00 00 00 00 00 00 00 00 00 	0 00080000000000
  0x6110	00 00 00 00 00 00 00 00 00 00 00 00 00 00 00 00 	0000000000000000
  0x6120	00 00 00 00 00 00 00 00 00 00 00 00 00 00 00 00 	0000000000000000
  0x6130	00 00 00 00 00 00 00 00 00 00 00 00 00 00 00 00 	0000000000000000
  0x6140	00 00 00 00 00 00 00 00 00 00 00 00 00 00 00 00 	0000000000000000
  0x6150	00 00 00 00 00 00 00 00 00 00 00 00 00 00 00 00 	0000000000000000
  0x6160	00 00 00 00 00 00 00 00 00 00 00 00 00 00 00 00 	0000000000000000
  0x6170	00 00 00 00 00 00 00 00 00 00 00 00 00 00 00 00 	0000000000000000
  0x6180	00 00 00 00 00 00 00 00 00 00 00 00 00 00 00 00 	0000000000000000
  0x6190	00 00 00 00 00 00 00 00 00 00 00 00 00 00 00 00 	0000000000000000
  0x61a0	00 00 00 00 00 00 00 00 00 00 00 00 00 00 00 00 	0000000000000000
  0x61b0	00 00 00 00 00 00 00 00 00 00 00 00 00 00 00 00 	0000000000000000
  0x61c0	00 00 00 00 00 00 00 00 00 00 00 00 00 00 00 00 	0000000000000000
  0x61d0	00 00 00 00 00 00 00 00 00 00 00 00 00 00 00 00 	0000000000000000
  0x61e0	00 00 00 00 00 00 00 00 00 00 00 00 00 00 00 00 	0000000000000000
  0x61f0	00 00 00 00 00 00 00 00 00 00 00 00 00 00 00 00 	0000000000000000
=== DATA BLOCK END ===
