===== Assembly blocks =====

=== CODE BLOCK ADDRESS 0x1000 ===
  0x1000	int3   	
  0x1001	int3   	
  0x1002	int3   	
  0x1003	int3   	
  0x1004	int3   	
  === BLOCK LINK ===
    0x1005
=== CODE BLOCK END ===

=== CODE BLOCK ADDRESS 0x1005 ===
  0x1005	int3   	
  0x1006	int3   	
  0x1007	int3   	
  === BLOCK LINK ===
    0x1008
=== CODE BLOCK END ===

=== CODE BLOCK ADDRESS 0x100d ===
  0x100d	push   	ebp
  0x100e	push   	esi
  0x100f	push   	edi
  0x1010	dec    	eax
  0x1011	sub    	esp, 0x860
  === BLOCK LINK ===
    0x1017
=== CODE BLOCK END ===

=== CODE BLOCK ADDRESS 0x1017 ===
  0x1017	dec    	eax
  0x1018	mov    	eax, dword ptr [0x3fea]
  0x101e	dec    	eax
  0x101f	xor    	eax, esp
  0x1021	dec    	eax
  === BLOCK LINK ===
    0x1022
=== CODE BLOCK END ===

=== CODE BLOCK ADDRESS 0x1022 ===
  0x1022	mov    	dword ptr [esp + 0x850], eax
  0x1029	xor    	bl, bl
  0x102b	mov    	esi, edx
  0x102d	dec    	eax
  0x102e	mov    	edi, ecx
  === BLOCK LINK ===
    0x1030
=== CODE BLOCK END ===

=== CODE BLOCK ADDRESS 0x1030 ===
  0x1030	mov    	ebp, 1
  0x1035	inc    	ebp
  0x1036	test   	al, al
  0x1038	je     	0x1084
  === BLOCK LINK ===
    0x103a
    0x1084
=== CODE BLOCK END ===

=== CODE BLOCK ADDRESS 0x103a ===
  0x103a	mov    	dword ptr [esp + 0x30], 4
  0x1042	dec    	esp
  0x1043	lea    	eax, [esp + 0x40]
  0x1047	and    	dword ptr [esp + 0x28], 0
  0x104c	inc    	ecx
  === BLOCK LINK ===
    0x104d
=== CODE BLOCK END ===

=== CODE BLOCK ADDRESS 0x104d ===
  0x104d	mov    	ecx, 0x401
  0x1052	dec    	eax
  0x1053	and    	dword ptr [esp + 0x20], 0
  0x1058	dec    	eax
  0x1059	call   	dword ptr [0x2119]
  === BLOCK LINK ===
    0x105f
=== CODE BLOCK END ===

=== CODE BLOCK ADDRESS 0x105f ===
  0x105f	nop    	dword ptr [eax + eax]
  0x1064	test   	eax, eax
  0x1066	jne    	0x1084
  === BLOCK LINK ===
    0x1068
    0x1084
=== CODE BLOCK END ===

=== CODE BLOCK ADDRESS 0x1068 ===
  0x1068	mov    	ecx, ebp
  0x106a	inc    	eax
  0x106b	mov    	bl, ch
  0x106d	call   	0x2e48
  === BLOCK LINK ===
    0x1072
    0x2e48
=== CODE BLOCK END ===

=== CODE BLOCK ADDRESS 0x1072 ===
  0x1072	dec    	eax
  0x1073	mov    	ecx, eax
  0x1075	dec    	esp
  0x1076	lea    	eax, [esp + 0x40]
  0x107a	mov    	edx, 0x273a
  === BLOCK LINK ===
    0x107f
=== CODE BLOCK END ===

=== CODE BLOCK ADDRESS 0x107f ===
  0x107f	call   	0x2570
  === BLOCK LINK ===
    0x1084
    0x2570
=== CODE BLOCK END ===

=== CODE BLOCK ADDRESS 0x1084 ===
  0x1084	mov    	dword ptr [esp + 0x30], 2
  0x108c	dec    	esp
  0x108d	lea    	eax, [esp + 0x40]
  0x1091	and    	dword ptr [esp + 0x28], 0
  0x1096	inc    	ecx
  === BLOCK LINK ===
    0x1097
=== CODE BLOCK END ===

=== CODE BLOCK ADDRESS 0x1097 ===
  0x1097	mov    	ecx, 0x401
  0x109c	dec    	eax
  0x109d	and    	dword ptr [esp + 0x20], 0
  0x10a2	mov    	edx, esi
  0x10a4	dec    	eax
  === BLOCK LINK ===
    0x10a5
=== CODE BLOCK END ===

=== CODE BLOCK ADDRESS 0x10a5 ===
  0x10a5	mov    	ecx, edi
  0x10a7	dec    	eax
  0x10a8	call   	dword ptr [0x20ca]
  === BLOCK LINK ===
    0x10ae
=== CODE BLOCK END ===

=== CODE BLOCK ADDRESS 0x10ae ===
  0x10ae	nop    	dword ptr [eax + eax]
  0x10b3	mov    	ecx, ebp
  0x10b5	test   	eax, eax
  0x10b7	je     	0x10da
  === BLOCK LINK ===
    0x10b9
    0x10da
=== CODE BLOCK END ===

=== CODE BLOCK ADDRESS 0x10b9 ===
  0x10b9	call   	0x2e48
  === BLOCK LINK ===
    0x10be
    0x2e48
=== CODE BLOCK END ===

=== CODE BLOCK ADDRESS 0x10be ===
  0x10be	dec    	eax
  0x10bf	mov    	ecx, eax
  0x10c1	mov    	edx, 0x2724
  0x10c6	call   	0x2570
  === BLOCK LINK ===
    0x10cb
    0x2570
=== CODE BLOCK END ===

=== CODE BLOCK ADDRESS 0x10cb ===
  0x10cb	mov    	ecx, ebp
  0x10cd	dec    	eax
  0x10ce	call   	dword ptr [0x22c4]
  === BLOCK LINK ===
    0x10d4
=== CODE BLOCK END ===

=== CODE BLOCK ADDRESS 0x10d4 ===
  0x10d4	nop    	dword ptr [eax + eax]
  0x10d9	int3   	
  0x10da	call   	0x2e48
  === BLOCK LINK ===
    0x10df
    0x2e48
=== CODE BLOCK END ===

=== CODE BLOCK ADDRESS 0x10df ===
  0x10df	dec    	esp
  0x10e0	lea    	eax, [esp + 0x40]
  0x10e4	dec    	eax
  0x10e5	mov    	ecx, eax
  0x10e7	mov    	edx, 0x2710
  === BLOCK LINK ===
    0x10ec
=== CODE BLOCK END ===

=== CODE BLOCK ADDRESS 0x10ec ===
  0x10ec	test   	bl, bl
  0x10ee	jne    	0x10f5
  === BLOCK LINK ===
    0x10f0
    0x10f5
=== CODE BLOCK END ===

=== CODE BLOCK ADDRESS 0x10f0 ===
  0x10f0	mov    	edx, 0x273d
  0x10f5	call   	0x2570
  === BLOCK LINK ===
    0x10fa
    0x2570
=== CODE BLOCK END ===

=== CODE BLOCK ADDRESS 0x10fa ===
  0x10fa	dec    	eax
  0x10fb	mov    	ecx, dword ptr [esp + 0x850]
  0x1102	dec    	eax
  0x1103	xor    	ecx, esp
  0x1105	call   	0x2930
  === BLOCK LINK ===
    0x110a
    0x2930
=== CODE BLOCK END ===

=== CODE BLOCK ADDRESS 0x110a ===
  0x110a	dec    	eax
  0x110b	mov    	ebx, dword ptr [esp + 0x890]
  0x1112	dec    	eax
  0x1113	add    	esp, 0x860
  0x1119	pop    	edi
  === BLOCK LINK ===
    0x111a
=== CODE BLOCK END ===

=== CODE BLOCK ADDRESS 0x111a ===
  0x111a	pop    	esi
  0x111b	pop    	ebp
  0x111c	ret    	
  0x111d	int3   	
  0x111e	int3   	
  === BLOCK LINK ===
    0x111f
=== CODE BLOCK END ===

=== CODE BLOCK ADDRESS 0x111f ===
  0x111f	int3   	
  0x1120	int3   	
  0x1121	int3   	
  0x1122	int3   	
  0x1123	int3   	
  === BLOCK LINK ===
    0x1124
=== CODE BLOCK END ===

=== CODE BLOCK ADDRESS 0x1124 ===
  0x1124	dec    	eax
  0x1125	sub    	esp, 0x48
  0x1128	dec    	eax
  0x1129	mov    	eax, dword ptr [0x3ed9]
  0x112f	dec    	eax
  === BLOCK LINK ===
    0x1130
=== CODE BLOCK END ===

=== CODE BLOCK ADDRESS 0x1130 ===
  0x1130	xor    	eax, esp
  0x1132	dec    	eax
  0x1133	mov    	dword ptr [esp + 0x30], eax
  0x1137	mov    	eax, 2
  0x113c	xorps  	xmm0, xmm0
  === BLOCK LINK ===
    0x113f
=== CODE BLOCK END ===

=== CODE BLOCK ADDRESS 0x113f ===
  0x113f	movups  	xmmword ptr [esp + 0x20], xmm0
  0x1144	mov    	dword ptr [esp + 0x24], ecx
  0x1148	inc    	esp
  0x1149	mov    	al, dl
  0x114b	dec    	eax
  === BLOCK LINK ===
    0x114c
=== CODE BLOCK END ===

=== CODE BLOCK ADDRESS 0x114c ===
  0x114c	lea    	ecx, [esp + 0x20]
  0x1150	mov    	word ptr [esp + 0x20], ax
  0x1155	lea    	edx, [eax + 0xe]
  0x1158	call   	0x1008
  === BLOCK LINK ===
    0x115d
    0x1008
=== CODE BLOCK END ===

=== CODE BLOCK ADDRESS 0x115d ===
  0x115d	dec    	eax
  0x115e	mov    	ecx, dword ptr [esp + 0x30]
  0x1162	dec    	eax
  0x1163	xor    	ecx, esp
  0x1165	call   	0x2930
  === BLOCK LINK ===
    0x116a
    0x2930
=== CODE BLOCK END ===

=== CODE BLOCK ADDRESS 0x116a ===
  0x116a	dec    	eax
  0x116b	add    	esp, 0x48
  0x116e	ret    	
  0x116f	int3   	
  0x1170	int3   	
  === BLOCK LINK ===
    0x1171
=== CODE BLOCK END ===

=== CODE BLOCK ADDRESS 0x1171 ===
  0x1171	int3   	
  0x1172	int3   	
  0x1173	int3   	
  0x1174	int3   	
  0x1175	int3   	
  === BLOCK LINK ===
    0x1176
=== CODE BLOCK END ===

=== CODE BLOCK ADDRESS 0x1176 ===
  0x1176	int3   	
  0x1177	int3   	
  0x1178	dec    	eax
  0x1179	sub    	esp, 0x58
  0x117c	dec    	eax
  === BLOCK LINK ===
    0x117d
=== CODE BLOCK END ===

=== CODE BLOCK ADDRESS 0x117d ===
  0x117d	mov    	eax, dword ptr [0x3e85]
  0x1183	dec    	eax
  0x1184	xor    	eax, esp
  0x1186	dec    	eax
  0x1187	mov    	dword ptr [esp + 0x40], eax
  === BLOCK LINK ===
    0x118b
=== CODE BLOCK END ===

=== CODE BLOCK ADDRESS 0x118b ===
  0x118b	movups  	xmm0, xmmword ptr [ecx]
  0x118e	xor    	eax, eax
  0x1190	dec    	eax
  0x1191	lea    	ecx, [esp + 0x20]
  0x1195	mov    	dword ptr [esp + 0x22], eax
  === BLOCK LINK ===
    0x1199
=== CODE BLOCK END ===

=== CODE BLOCK ADDRESS 0x1199 ===
  0x1199	inc    	esp
  0x119a	mov    	al, dl
  0x119c	mov    	word ptr [esp + 0x26], ax
  0x11a1	mov    	dword ptr [esp + 0x38], eax
  0x11a5	mov    	eax, 0x17
  === BLOCK LINK ===
    0x11aa
=== CODE BLOCK END ===

=== CODE BLOCK ADDRESS 0x11aa ===
  0x11aa	mov    	word ptr [esp + 0x20], ax
  0x11af	movdqu  	xmmword ptr [esp + 0x28], xmm0
  0x11b5	lea    	edx, [eax + 5]
  0x11b8	call   	0x1008
  === BLOCK LINK ===
    0x11bd
    0x1008
=== CODE BLOCK END ===

=== CODE BLOCK ADDRESS 0x11bd ===
  0x11bd	dec    	eax
  0x11be	mov    	ecx, dword ptr [esp + 0x40]
  0x11c2	dec    	eax
  0x11c3	xor    	ecx, esp
  0x11c5	call   	0x2930
  === BLOCK LINK ===
    0x11ca
    0x2930
=== CODE BLOCK END ===

=== CODE BLOCK ADDRESS 0x11ca ===
  0x11ca	dec    	eax
  0x11cb	add    	esp, 0x58
  0x11ce	ret    	
  0x11cf	int3   	
  0x11d0	int3   	
  === BLOCK LINK ===
    0x11d1
=== CODE BLOCK END ===

=== CODE BLOCK ADDRESS 0x2e48 ===
=== CODE BLOCK END ===

=== CODE BLOCK ADDRESS 0x11d1 ===
  0x11d1	int3   	
  0x11d2	int3   	
  0x11d3	int3   	
  0x11d4	int3   	
  0x11d5	int3   	
  === BLOCK LINK ===
    0x11d6
=== CODE BLOCK END ===

=== CODE BLOCK ADDRESS 0x11d6 ===
  0x11d6	int3   	
  0x11d7	int3   	
  0x11d8	inc    	eax
  0x11d9	push   	ebx
  0x11da	dec    	eax
  === BLOCK LINK ===
    0x11db
=== CODE BLOCK END ===

=== CODE BLOCK ADDRESS 0x11db ===
  0x11db	sub    	esp, 0x20
  0x11de	mov    	ebx, ecx
  0x11e0	test   	ecx, ecx
  0x11e2	mov    	ecx, 1
  0x11e7	je     	0x1203
  === BLOCK LINK ===
    0x11e9
    0x1203
=== CODE BLOCK END ===

=== CODE BLOCK ADDRESS 0x11e9 ===
  0x11e9	call   	0x2e48
  === BLOCK LINK ===
    0x11ee
    0x2e48
=== CODE BLOCK END ===

=== CODE BLOCK ADDRESS 0x11ee ===
  0x11ee	dec    	eax
  0x11ef	mov    	ecx, eax
  0x11f1	inc    	esp
  0x11f2	mov    	eax, ebx
  0x11f4	mov    	edx, 0x2711
  === BLOCK LINK ===
    0x11f9
=== CODE BLOCK END ===

=== CODE BLOCK ADDRESS 0x11f9 ===
  0x11f9	dec    	eax
  0x11fa	add    	esp, 0x20
  0x11fd	pop    	ebx
  0x11fe	jmp    	0x2570
  === BLOCK LINK ===
    0x1203
    0x2570
=== CODE BLOCK END ===

=== CODE BLOCK ADDRESS 0x1203 ===
  0x1203	call   	0x2e48
  === BLOCK LINK ===
    0x1208
    0x2e48
=== CODE BLOCK END ===

=== CODE BLOCK ADDRESS 0x1208 ===
  0x1208	dec    	eax
  0x1209	mov    	ecx, eax
  0x120b	mov    	edx, 0x2712
  0x1210	dec    	eax
  0x1211	add    	esp, 0x20
  === BLOCK LINK ===
    0x1214
=== CODE BLOCK END ===

=== CODE BLOCK ADDRESS 0x1214 ===
  0x1214	pop    	ebx
  0x1215	jmp    	0x2570
  === BLOCK LINK ===
    0x121a
    0x2570
=== CODE BLOCK END ===

=== CODE BLOCK ADDRESS 0x121a ===
  0x121a	int3   	
  0x121b	int3   	
  0x121c	int3   	
  0x121d	int3   	
  0x121e	int3   	
  === BLOCK LINK ===
    0x121f
=== CODE BLOCK END ===

=== CODE BLOCK ADDRESS 0x121f ===
  0x121f	int3   	
  0x1220	dec    	eax
  0x1221	mov    	dword ptr [esp + 8], ebx
  0x1225	dec    	eax
  0x1226	mov    	dword ptr [esp + 0x10], esi
  === BLOCK LINK ===
    0x122a
=== CODE BLOCK END ===

=== CODE BLOCK ADDRESS 0x122a ===
  0x122a	push   	edi
  0x122b	dec    	eax
  0x122c	sub    	esp, 0x30
  0x122f	dec    	eax
  0x1230	and    	dword ptr [esp + 0x20], 0
  === BLOCK LINK ===
    0x1235
=== CODE BLOCK END ===

=== CODE BLOCK ADDRESS 0x1235 ===
  0x1235	inc    	ecx
  0x1236	lea    	eax, [eax - 1]
  0x1239	dec    	ecx
  0x123a	arpl   	cx, di
  0x123c	dec    	eax
  === BLOCK LINK ===
    0x123d
=== CODE BLOCK END ===

=== CODE BLOCK ADDRESS 0x123d ===
  0x123d	mov    	ebx, edx
  0x123f	dec    	eax
  0x1240	mov    	esi, ecx
  0x1242	inc    	esp
  0x1243	cmp    	ecx, eax
  === BLOCK LINK ===
    0x1245
=== CODE BLOCK END ===

=== CODE BLOCK ADDRESS 0x1245 ===
  0x1245	jne    	0x1258
  === BLOCK LINK ===
    0x1247
    0x1258
=== CODE BLOCK END ===

=== CODE BLOCK ADDRESS 0x1247 ===
  0x1247	mov    	ecx, 1
  0x124c	call   	0x2e48
  === BLOCK LINK ===
    0x1251
    0x2e48
=== CODE BLOCK END ===

=== CODE BLOCK ADDRESS 0x1251 ===
  0x1251	mov    	edx, 0x2734
  0x1256	jmp    	0x12a5
  === BLOCK LINK ===
    0x1258
    0x12a5
=== CODE BLOCK END ===

=== CODE BLOCK ADDRESS 0x1258 ===
  0x1258	dec    	eax
  0x1259	mov    	ecx, dword ptr [ebx + edi*8 + 8]
  0x125d	dec    	eax
  0x125e	lea    	edx, [esp + 0x20]
  0x1262	inc    	ebp
  === BLOCK LINK ===
    0x1263
=== CODE BLOCK END ===

=== CODE BLOCK ADDRESS 0x1263 ===
  0x1263	xor    	eax, eax
  0x1265	dec    	eax
  0x1266	call   	dword ptr [0x2124]
  === BLOCK LINK ===
    0x126c
=== CODE BLOCK END ===

=== CODE BLOCK ADDRESS 0x126c ===
  0x126c	nop    	dword ptr [eax + eax]
  0x1271	dec    	eax
  0x1272	mov    	ecx, dword ptr [esp + 0x20]
  0x1276	dec    	eax
  0x1277	test   	ecx, ecx
  === BLOCK LINK ===
    0x1279
=== CODE BLOCK END ===

=== CODE BLOCK ADDRESS 0x1279 ===
  0x1279	je     	0x1285
  === BLOCK LINK ===
    0x127b
    0x1285
=== CODE BLOCK END ===

=== CODE BLOCK ADDRESS 0x127b ===
  0x127b	mov    	edx, 0xffdf
  0x1280	test   	word ptr [ecx], dx
  0x1283	jne    	0x1296
  === BLOCK LINK ===
    0x1285
    0x1296
=== CODE BLOCK END ===

=== CODE BLOCK ADDRESS 0x1285 ===
  0x1285	cmp    	eax, 1
  0x1288	jb     	0x1296
  === BLOCK LINK ===
    0x128a
    0x1296
=== CODE BLOCK END ===

=== CODE BLOCK ADDRESS 0x128a ===
  0x128a	cmp    	eax, dword ptr [esp + 0x68]
  0x128e	ja     	0x1296
  === BLOCK LINK ===
    0x1290
    0x1296
=== CODE BLOCK END ===

=== CODE BLOCK ADDRESS 0x1290 ===
  0x1290	mov    	dword ptr [esi], eax
  0x1292	mov    	al, 1
  0x1294	jmp    	0x12b3
  === BLOCK LINK ===
    0x1296
    0x12b3
=== CODE BLOCK END ===

=== CODE BLOCK ADDRESS 0x1296 ===
  0x1296	mov    	ecx, 1
  0x129b	call   	0x2e48
  === BLOCK LINK ===
    0x12a0
    0x2e48
=== CODE BLOCK END ===

=== CODE BLOCK ADDRESS 0x12a0 ===
  0x12a0	mov    	edx, 0x2735
  === BLOCK LINK ===
    0x12a5
=== CODE BLOCK END ===

=== CODE BLOCK ADDRESS 0x12ac ===
  0x12ac	call   	0x2570
  === BLOCK LINK ===
    0x12b1
    0x2570
=== CODE BLOCK END ===

=== CODE BLOCK ADDRESS 0x12b1 ===
  0x12b1	xor    	al, al
  === BLOCK LINK ===
    0x12b3
=== CODE BLOCK END ===

=== CODE BLOCK ADDRESS 0x12bd ===
  0x12bd	dec    	eax
  0x12be	add    	esp, 0x30
  0x12c1	pop    	edi
  0x12c2	ret    	
  0x12c3	int3   	
  === BLOCK LINK ===
    0x12c4
=== CODE BLOCK END ===

=== CODE BLOCK ADDRESS 0x2570 ===
=== CODE BLOCK END ===

=== CODE BLOCK ADDRESS 0x12c4 ===
  0x12c4	int3   	
  0x12c5	int3   	
  0x12c6	int3   	
  0x12c7	int3   	
  0x12c8	int3   	
  === BLOCK LINK ===
    0x12c9
=== CODE BLOCK END ===

=== CODE BLOCK ADDRESS 0x12c9 ===
  0x12c9	int3   	
  0x12ca	int3   	
  0x12cb	int3   	
  0x12cc	dec    	eax
  0x12cd	mov    	eax, esp
  === BLOCK LINK ===
    0x12cf
=== CODE BLOCK END ===

=== CODE BLOCK ADDRESS 0x12cf ===
  0x12cf	dec    	eax
  0x12d0	mov    	dword ptr [eax + 8], ebx
  0x12d3	dec    	eax
  0x12d4	mov    	dword ptr [eax + 0x10], esi
  0x12d7	dec    	eax
  === BLOCK LINK ===
    0x12d8
=== CODE BLOCK END ===

=== CODE BLOCK ADDRESS 0x12d8 ===
  0x12d8	mov    	dword ptr [eax + 0x18], edi
  0x12db	dec    	esp
  0x12dc	mov    	dword ptr [eax + 0x20], esp
  0x12df	push   	ebp
  0x12e0	inc    	ecx
  === BLOCK LINK ===
    0x12e1
=== CODE BLOCK END ===

=== CODE BLOCK ADDRESS 0x12e1 ===
  0x12e1	push   	esi
  0x12e2	inc    	ecx
  0x12e3	push   	edi
  0x12e4	dec    	eax
  0x12e5	mov    	ebp, esp
  === BLOCK LINK ===
    0x12e7
=== CODE BLOCK END ===

=== CODE BLOCK ADDRESS 0x12e7 ===
  0x12e7	dec    	eax
  0x12e8	sub    	esp, 0x80
  0x12ee	dec    	eax
  0x12ef	mov    	ebx, dword ptr [ebp + 0x40]
  0x12f2	xorps  	xmm0, xmm0
  === BLOCK LINK ===
    0x12f5
=== CODE BLOCK END ===

=== CODE BLOCK ADDRESS 0x12f5 ===
  0x12f5	inc    	ebp
  0x12f6	xor    	esp, esp
  0x12f8	dec    	eax
  0x12f9	mov    	edi, edx
  0x12fb	movups  	xmmword ptr [ebp - 0x38], xmm0
  === BLOCK LINK ===
    0x12ff
=== CODE BLOCK END ===

=== CODE BLOCK ADDRESS 0x12ff ===
  0x12ff	dec    	ebp
  0x1300	mov    	esi, ecx
  0x1302	mov    	dword ptr [ebp - 0x34], ecx
  0x1305	dec    	ebp
  0x1306	mov    	edi, eax
  === BLOCK LINK ===
    0x1308
=== CODE BLOCK END ===

=== CODE BLOCK ADDRESS 0x1308 ===
  0x1308	dec    	esp
  0x1309	mov    	dword ptr [ebp - 0x40], esp
  0x130c	inc    	ecx
  0x130d	lea    	esi, [esp + 4]
  0x1311	inc    	sp
  === BLOCK LINK ===
    0x1313
=== CODE BLOCK END ===

=== CODE BLOCK ADDRESS 0x1313 ===
  0x1313	mov    	dword ptr [ebx], esp
  0x1315	dec    	esp
  0x1316	lea    	ecx, [ebp - 0x40]
  0x1319	mov    	dword ptr [ebp - 0x38], esi
  0x131c	dec    	esp
  === BLOCK LINK ===
    0x131d
=== CODE BLOCK END ===

=== CODE BLOCK ADDRESS 0x131d ===
  0x131d	lea    	eax, [ebp - 0x38]
  0x1320	xor    	edx, edx
  0x1322	dec    	eax
  0x1323	mov    	ecx, edi
  0x1325	movups  	xmmword ptr [ebp - 0x28], xmm0
  === BLOCK LINK ===
    0x1329
=== CODE BLOCK END ===

=== CODE BLOCK ADDRESS 0x1329 ===
  0x1329	movups  	xmmword ptr [ebp - 0x18], xmm0
  0x132d	dec    	eax
  0x132e	call   	dword ptr [0x1e2c]
  === BLOCK LINK ===
    0x1334
=== CODE BLOCK END ===

=== CODE BLOCK ADDRESS 0x1334 ===
  0x1334	nop    	dword ptr [eax + eax]
  0x1339	test   	eax, eax
  0x133b	jne    	0x13a1
  === BLOCK LINK ===
    0x133d
    0x13a1
=== CODE BLOCK END ===

=== CODE BLOCK ADDRESS 0x133d ===
  0x133d	dec    	eax
  0x133e	mov    	edi, dword ptr [ebp - 0x40]
  0x1341	dec    	ecx
  0x1342	mov    	ecx, edi
  0x1344	mov    	eax, dword ptr [edi + 0x10]
  === BLOCK LINK ===
    0x1347
=== CODE BLOCK END ===

=== CODE BLOCK ADDRESS 0x1347 ===
  0x1347	dec    	esp
  0x1348	mov    	eax, dword ptr [edi + 0x10]
  0x134b	dec    	eax
  0x134c	mov    	edx, dword ptr [edi + 0x20]
  0x134f	inc    	ecx
  === BLOCK LINK ===
    0x1350
=== CODE BLOCK END ===

=== CODE BLOCK ADDRESS 0x1350 ===
  0x1350	mov    	dword ptr [esi], eax
  0x1352	call   	0x2efd
  === BLOCK LINK ===
    0x1357
=== CODE BLOCK END ===

=== CODE BLOCK ADDRESS 0x1357 ===
  0x1357	inc    	esp
  0x1358	cmp    	byte ptr [ebp + 0x50], ah
  0x135b	je     	0x138b
  === BLOCK LINK ===
    0x135d
=== CODE BLOCK END ===

=== CODE BLOCK ADDRESS 0x135d ===
  0x135d	mov    	edx, dword ptr [edi + 0x10]
  0x1360	inc    	ecx
  0x1361	mov    	ecx, 0x401
  0x1366	dec    	eax
  0x1367	mov    	ecx, dword ptr [edi + 0x20]
  === BLOCK LINK ===
    0x136a
=== CODE BLOCK END ===

=== CODE BLOCK ADDRESS 0x136a ===
  0x136a	dec    	esp
  0x136b	mov    	eax, ebx
  0x136d	mov    	dword ptr [esp + 0x30], esi
  0x1371	inc    	esp
  0x1372	mov    	dword ptr [esp + 0x28], esp
  === BLOCK LINK ===
    0x1376
=== CODE BLOCK END ===

=== CODE BLOCK ADDRESS 0x1376 ===
  0x1376	dec    	esp
  0x1377	mov    	dword ptr [esp + 0x20], esp
  0x137b	dec    	eax
  0x137c	call   	dword ptr [0x1df6]
  === BLOCK LINK ===
    0x1382
=== CODE BLOCK END ===

=== CODE BLOCK ADDRESS 0x1382 ===
  0x1382	nop    	dword ptr [eax + eax]
  0x1387	dec    	eax
  0x1388	mov    	edi, dword ptr [ebp - 0x40]
  0x138b	dec    	eax
  0x138c	mov    	ecx, edi
  === BLOCK LINK ===
    0x138e
=== CODE BLOCK END ===

=== CODE BLOCK ADDRESS 0x138e ===
  0x138e	dec    	eax
  0x138f	call   	dword ptr [0x1ddb]
  === BLOCK LINK ===
    0x1395
=== CODE BLOCK END ===

=== CODE BLOCK ADDRESS 0x1395 ===
  0x1395	nop    	dword ptr [eax + eax]
  0x139a	mov    	al, 1
  0x139c	jmp    	0x1439
  === BLOCK LINK ===
    0x13a1
=== CODE BLOCK END ===

=== CODE BLOCK ADDRESS 0x13a1 ===
  0x13a1	dec    	esp
  0x13a2	lea    	ecx, [ebp - 0x40]
  0x13a5	mov    	dword ptr [ebp - 0x38], 2
  0x13ac	dec    	esp
  0x13ad	lea    	eax, [ebp - 0x38]
  === BLOCK LINK ===
    0x13b0
=== CODE BLOCK END ===

=== CODE BLOCK ADDRESS 0x13b0 ===
  0x13b0	xor    	edx, edx
  0x13b2	dec    	eax
  0x13b3	mov    	ecx, edi
  0x13b5	dec    	eax
  0x13b6	call   	dword ptr [0x1da4]
  === BLOCK LINK ===
    0x13bc
=== CODE BLOCK END ===

=== CODE BLOCK ADDRESS 0x13bc ===
  0x13bc	nop    	dword ptr [eax + eax]
  0x13c1	test   	eax, eax
  0x13c3	jne    	0x1437
  === BLOCK LINK ===
    0x13c5
=== CODE BLOCK END ===

=== CODE BLOCK ADDRESS 0x13c5 ===
  0x13c5	dec    	eax
  0x13c6	mov    	esi, dword ptr [ebp - 0x40]
  0x13c9	dec    	ecx
  0x13ca	mov    	ecx, edi
  0x13cc	mov    	eax, dword ptr [esi + 0x10]
  === BLOCK LINK ===
    0x13cf
=== CODE BLOCK END ===

=== CODE BLOCK ADDRESS 0x13cf ===
  0x13cf	dec    	esp
  0x13d0	mov    	eax, dword ptr [esi + 0x10]
  0x13d3	dec    	eax
  0x13d4	mov    	edx, dword ptr [esi + 0x20]
  0x13d7	inc    	ecx
  === BLOCK LINK ===
    0x13d8
=== CODE BLOCK END ===

=== CODE BLOCK ADDRESS 0x13d8 ===
  0x13d8	mov    	dword ptr [esi], eax
  0x13da	call   	0x2efd
  === BLOCK LINK ===
    0x13df
=== CODE BLOCK END ===

=== CODE BLOCK ADDRESS 0x13df ===
  0x13df	dec    	esp
  0x13e0	cmp    	dword ptr [esi + 0x18], esp
  0x13e3	mov    	ecx, 0x401
  0x13e8	dec    	eax
  0x13e9	cmovne  	edi, dword ptr [esi + 0x18]
  === BLOCK LINK ===
    0x13ed
=== CODE BLOCK END ===

=== CODE BLOCK ADDRESS 0x13ed ===
  0x13ed	dec    	eax
  0x13ee	sub    	edi, ebx
  0x13f0	dec    	eax
  0x13f1	lea    	eax, [ecx + 0x7ffffbfd]
  0x13f7	dec    	eax
  === BLOCK LINK ===
    0x13f8
=== CODE BLOCK END ===

=== CODE BLOCK ADDRESS 0x13f8 ===
  0x13f8	test   	eax, eax
  0x13fa	je     	0x1412
  === BLOCK LINK ===
    0x13fc
=== CODE BLOCK END ===

=== CODE BLOCK ADDRESS 0x13fc ===
  0x13fc	movzx  	eax, word ptr [edi + ebx]
  0x1400	test   	ax, ax
  0x1403	je     	0x1412
  === BLOCK LINK ===
    0x1405
=== CODE BLOCK END ===

=== CODE BLOCK ADDRESS 0x1405 ===
  0x1405	mov    	word ptr [ebx], ax
  0x1408	dec    	eax
  0x1409	add    	ebx, 2
  0x140c	dec    	eax
  0x140d	sub    	ecx, 1
  === BLOCK LINK ===
    0x1410
=== CODE BLOCK END ===

=== CODE BLOCK ADDRESS 0x1410 ===
  0x1410	jne    	0x13f0
  === BLOCK LINK ===
    0x1412
=== CODE BLOCK END ===

=== CODE BLOCK ADDRESS 0x1412 ===
  0x1412	dec    	eax
  0x1413	test   	ecx, ecx
  0x1415	dec    	eax
  0x1416	lea    	eax, [ebx - 2]
  0x1419	dec    	eax
  === BLOCK LINK ===
    0x141a
=== CODE BLOCK END ===

=== CODE BLOCK ADDRESS 0x141a ===
  0x141a	mov    	ecx, esi
  0x141c	dec    	eax
  0x141d	cmovne  	eax, ebx
  0x1420	setne  	bl
  0x1423	inc    	sp
  === BLOCK LINK ===
    0x1425
=== CODE BLOCK END ===

=== CODE BLOCK ADDRESS 0x1425 ===
  0x1425	mov    	dword ptr [eax], esp
  0x1427	dec    	eax
  0x1428	call   	dword ptr [0x1d42]
  === BLOCK LINK ===
    0x142e
=== CODE BLOCK END ===

=== CODE BLOCK ADDRESS 0x142e ===
  0x142e	nop    	dword ptr [eax + eax]
  0x1433	mov    	al, bl
  0x1435	jmp    	0x1439
  === BLOCK LINK ===
    0x1437
=== CODE BLOCK END ===

=== CODE BLOCK ADDRESS 0x1437 ===
  0x1437	xor    	al, al
  0x1439	dec    	esp
  0x143a	lea    	ebx, [esp + 0x80]
  0x1441	dec    	ecx
  0x1442	mov    	ebx, dword ptr [ebx + 0x20]
  === BLOCK LINK ===
    0x1445
=== CODE BLOCK END ===

=== CODE BLOCK ADDRESS 0x1445 ===
  0x1445	dec    	ecx
  0x1446	mov    	esi, dword ptr [ebx + 0x28]
  0x1449	dec    	ecx
  0x144a	mov    	edi, dword ptr [ebx + 0x30]
  0x144d	dec    	ebp
  === BLOCK LINK ===
    0x144e
=== CODE BLOCK END ===

=== CODE BLOCK ADDRESS 0x144e ===
  0x144e	mov    	esp, dword ptr [ebx + 0x38]
  0x1451	dec    	ecx
  0x1452	mov    	esp, ebx
  0x1454	inc    	ecx
  0x1455	pop    	edi
  === BLOCK LINK ===
    0x1456
=== CODE BLOCK END ===

=== CODE BLOCK ADDRESS 0x1456 ===
  0x1456	inc    	ecx
  0x1457	pop    	esi
  0x1458	pop    	ebp
  0x1459	ret    	
  0x145a	int3   	
  === BLOCK LINK ===
    0x145b
=== CODE BLOCK END ===

=== CODE BLOCK ADDRESS 0x10da ===
=== CODE BLOCK END ===

=== CODE BLOCK ADDRESS 0x145b ===
  0x145b	int3   	
  0x145c	int3   	
  0x145d	int3   	
  0x145e	int3   	
  0x145f	int3   	
  === BLOCK LINK ===
    0x1460
=== CODE BLOCK END ===

=== CODE BLOCK ADDRESS 0x1460 ===
  0x1460	int3   	
  0x1461	int3   	
  0x1462	int3   	
  0x1463	int3   	
  0x1464	dec    	eax
  === BLOCK LINK ===
    0x1465
=== CODE BLOCK END ===

=== CODE BLOCK ADDRESS 0x1465 ===
  0x1465	mov    	dword ptr [esp + 8], ebx
  0x1469	push   	edi
  0x146a	dec    	eax
  0x146b	sub    	esp, 0x20
  0x146e	dec    	ecx
  === BLOCK LINK ===
    0x146f
=== CODE BLOCK END ===

=== CODE BLOCK ADDRESS 0x146f ===
  0x146f	mov    	edi, eax
  0x1471	cmp    	dword ptr [ecx], edx
  0x1473	je     	0x14ab
  === BLOCK LINK ===
    0x1475
=== CODE BLOCK END ===

=== CODE BLOCK ADDRESS 0x1475 ===
  0x1475	cmp    	edx, 2
  0x1478	dec    	eax
  0x1479	lea    	eax, [0x1fb1]
  0x147f	dec    	eax
  0x1480	lea    	ebx, [0x1fba]
  === BLOCK LINK ===
    0x1486
=== CODE BLOCK END ===

=== CODE BLOCK ADDRESS 0x1486 ===
  0x1486	mov    	ecx, 1
  0x148b	dec    	eax
  0x148c	cmove  	ebx, eax
  0x148f	call   	0x2e48
  === BLOCK LINK ===
    0x1494
=== CODE BLOCK END ===

=== CODE BLOCK ADDRESS 0x1494 ===
  0x1494	dec    	eax
  0x1495	mov    	ecx, eax
  0x1497	dec    	esp
  0x1498	mov    	ecx, ebx
  0x149a	dec    	esp
  === BLOCK LINK ===
    0x149b
=== CODE BLOCK END ===

=== CODE BLOCK ADDRESS 0x149b ===
  0x149b	mov    	eax, edi
  0x149d	mov    	edx, 0x2740
  0x14a2	call   	0x2570
  === BLOCK LINK ===
    0x14a7
=== CODE BLOCK END ===

=== CODE BLOCK ADDRESS 0x14a7 ===
  0x14a7	xor    	al, al
  0x14a9	jmp    	0x14af
  === BLOCK LINK ===
    0x14ab
=== CODE BLOCK END ===

=== CODE BLOCK ADDRESS 0x14ab ===
  0x14ab	mov    	dword ptr [ecx], edx
  0x14ad	mov    	al, 1
  0x14af	dec    	eax
  0x14b0	mov    	ebx, dword ptr [esp + 0x30]
  0x14b4	dec    	eax
  === BLOCK LINK ===
    0x14b5
=== CODE BLOCK END ===

=== CODE BLOCK ADDRESS 0x14b5 ===
  0x14b5	add    	esp, 0x20
  0x14b8	pop    	edi
  0x14b9	ret    	
  0x14ba	int3   	
  0x14bb	int3   	
  === BLOCK LINK ===
    0x14bc
=== CODE BLOCK END ===

=== CODE BLOCK ADDRESS 0x14bc ===
  0x14bc	int3   	
  0x14bd	int3   	
  0x14be	int3   	
  0x14bf	int3   	
  0x14c0	int3   	
  === BLOCK LINK ===
    0x14c1
=== CODE BLOCK END ===

=== CODE BLOCK ADDRESS 0x14c1 ===
  0x14c1	int3   	
  0x14c2	int3   	
  0x14c3	int3   	
  0x14c4	dec    	eax
  0x14c5	mov    	dword ptr [esp + 0x18], ebx
  === BLOCK LINK ===
    0x14c9
=== CODE BLOCK END ===

=== CODE BLOCK ADDRESS 0x14c9 ===
  0x14c9	push   	ebp
  0x14ca	push   	esi
  0x14cb	push   	edi
  0x14cc	inc    	ecx
  0x14cd	push   	esp
  === BLOCK LINK ===
    0x14ce
=== CODE BLOCK END ===

=== CODE BLOCK ADDRESS 0x14ce ===
  0x14ce	inc    	ecx
  0x14cf	push   	ebp
  0x14d0	inc    	ecx
  0x14d1	push   	esi
  0x14d2	inc    	ecx
  === BLOCK LINK ===
    0x14d3
=== CODE BLOCK END ===

=== CODE BLOCK ADDRESS 0x14d3 ===
  0x14d3	push   	edi
  0x14d4	dec    	eax
  0x14d5	lea    	ebp, [esp - 0xa70]
  0x14dc	dec    	eax
  0x14dd	sub    	esp, 0xb70
  === BLOCK LINK ===
    0x14e3
=== CODE BLOCK END ===

=== CODE BLOCK ADDRESS 0x14e3 ===
  0x14e3	dec    	eax
  0x14e4	mov    	eax, dword ptr [0x3b1e]
  0x14ea	dec    	eax
  0x14eb	xor    	eax, esp
  0x14ed	dec    	eax
  === BLOCK LINK ===
    0x14ee
=== CODE BLOCK END ===

=== CODE BLOCK ADDRESS 0x14ee ===
  0x14ee	mov    	dword ptr [ebp + 0xa60], eax
  0x14f4	xor    	edi, edi
  0x14f6	mov    	dword ptr [ebp - 0x6c], ecx
  0x14f9	inc    	esp
  0x14fa	mov    	edi, ecx
  === BLOCK LINK ===
    0x14fc
=== CODE BLOCK END ===

=== CODE BLOCK ADDRESS 0x14fc ===
  0x14fc	mov    	dword ptr [ebp - 0x74], edi
  0x14ff	mov    	ebx, edi
  0x1501	mov    	dword ptr [ebp - 0x78], 0x1e
  0x1508	xor    	ecx, ecx
  0x150a	inc    	eax
  === BLOCK LINK ===
    0x150b
=== CODE BLOCK END ===

=== CODE BLOCK ADDRESS 0x150b ===
  0x150b	mov    	byte ptr [esp + 0x60], bh
  0x150f	inc    	esp
  0x1510	lea    	esi, [edi + 1]
  0x1513	mov    	dword ptr [ebp - 0x70], 0xfa0
  0x151a	inc    	ebp
  === BLOCK LINK ===
    0x151b
=== CODE BLOCK END ===

=== CODE BLOCK ADDRESS 0x151b ===
  0x151b	mov    	ch, dh
  0x151d	inc    	esp
  0x151e	mov    	byte ptr [esp + 0x61], dh
  0x1522	dec    	esp
  0x1523	mov    	esp, edx
  === BLOCK LINK ===
    0x1525
=== CODE BLOCK END ===

=== CODE BLOCK ADDRESS 0x1525 ===
  0x1525	inc    	eax
  0x1526	mov    	byte ptr [esp + 0x68], bh
  0x152a	mov    	dword ptr [esp + 0x64], ebx
  0x152e	dec    	eax
  0x152f	call   	dword ptr [0x1cf3]
  === BLOCK LINK ===
    0x1535
=== CODE BLOCK END ===

=== CODE BLOCK ADDRESS 0x1535 ===
  0x1535	nop    	dword ptr [eax + eax]
  0x153a	inc    	ebp
  0x153b	xor    	ecx, ecx
  0x153d	inc    	ebp
  0x153e	xor    	eax, eax
  === BLOCK LINK ===
    0x1540
=== CODE BLOCK END ===

=== CODE BLOCK ADDRESS 0x1540 ===
  0x1540	inc    	ecx
  0x1541	mov    	edx, esi
  0x1543	xor    	ecx, ecx
  0x1545	dec    	eax
  0x1546	call   	dword ptr [0x1c9c]
  === BLOCK LINK ===
    0x154c
=== CODE BLOCK END ===

=== CODE BLOCK ADDRESS 0x154c ===
  0x154c	nop    	dword ptr [eax + eax]
  0x1551	inc    	ecx
  0x1552	mov    	ecx, esi
  0x1554	call   	0x2e48
  === BLOCK LINK ===
    0x1559
=== CODE BLOCK END ===

=== CODE BLOCK ADDRESS 0x1559 ===
  0x1559	dec    	eax
  0x155a	mov    	ecx, eax
  0x155c	dec    	eax
  0x155d	mov    	esi, eax
  0x155f	dec    	eax
  === BLOCK LINK ===
    0x1560
=== CODE BLOCK END ===

=== CODE BLOCK ADDRESS 0x1560 ===
  0x1560	call   	dword ptr [0x1db2]
  === BLOCK LINK ===
    0x1566
=== CODE BLOCK END ===

=== CODE BLOCK ADDRESS 0x1566 ===
  0x1566	nop    	dword ptr [eax + eax]
  0x156b	mov    	ecx, eax
  0x156d	dec    	eax
  0x156e	call   	dword ptr [0x1d7c]
  === BLOCK LINK ===
    0x1574
=== CODE BLOCK END ===

=== CODE BLOCK ADDRESS 0x1574 ===
  0x1574	nop    	dword ptr [eax + eax]
  0x1579	dec    	eax
  0x157a	cmp    	eax, -1
  0x157d	je     	0x16bb
  === BLOCK LINK ===
    0x1583
=== CODE BLOCK END ===

=== CODE BLOCK ADDRESS 0x1583 ===
  0x1583	dec    	eax
  0x1584	mov    	edx, eax
  0x1586	dec    	eax
  0x1587	lea    	ecx, [esp + 0x6c]
  0x158b	call   	0x2194
  === BLOCK LINK ===
    0x1590
=== CODE BLOCK END ===

=== CODE BLOCK ADDRESS 0x1590 ===
  0x1590	test   	eax, eax
  0x1592	jne    	0x16bb
  === BLOCK LINK ===
    0x1598
=== CODE BLOCK END ===

=== CODE BLOCK ADDRESS 0x1598 ===
  0x1598	cmp    	dword ptr [esp + 0x6c], edi
  0x159c	jne    	0x16bb
  === BLOCK LINK ===
    0x15a2
=== CODE BLOCK END ===

=== CODE BLOCK ADDRESS 0x15a2 ===
  0x15a2	inc    	esp
  0x15a3	lea    	eax, [edi + 0x50]
  0x15a6	dec    	eax
  0x15a7	lea    	edx, [ebp + 0x1b0]
  0x15ad	dec    	eax
  === BLOCK LINK ===
    0x15ae
=== CODE BLOCK END ===

=== CODE BLOCK ADDRESS 0x15ae ===
  0x15ae	lea    	ecx, [0x1e9c]
  0x15b4	dec    	eax
  0x15b5	call   	dword ptr [0x1c7d]
  === BLOCK LINK ===
    0x15bb
=== CODE BLOCK END ===

=== CODE BLOCK ADDRESS 0x15bb ===
  0x15bb	nop    	dword ptr [eax + eax]
  0x15c0	inc    	ecx
  0x15c1	mov    	ecx, esi
  0x15c3	mov    	dword ptr [esp + 0x6c], ecx
  0x15c7	test   	eax, eax
  === BLOCK LINK ===
    0x15c9
=== CODE BLOCK END ===

=== CODE BLOCK ADDRESS 0x15c9 ===
  0x15c9	je     	0x15e5
  === BLOCK LINK ===
    0x15cb
=== CODE BLOCK END ===

=== CODE BLOCK ADDRESS 0x15cb ===
  0x15cb	inc    	esp
  0x15cc	mov    	eax, eax
  0x15ce	dec    	eax
  0x15cf	lea    	edx, [ebp + 0x1b0]
  0x15d5	dec    	eax
  === BLOCK LINK ===
    0x15d6
=== CODE BLOCK END ===

=== CODE BLOCK ADDRESS 0x15d6 ===
  0x15d6	lea    	ecx, [esp + 0x6c]
  0x15da	call   	0x223c
  === BLOCK LINK ===
    0x15df
=== CODE BLOCK END ===

=== CODE BLOCK ADDRESS 0x15df ===
  0x15df	mov    	ecx, dword ptr [esp + 0x6c]
  0x15e3	jmp    	0x15e7
  === BLOCK LINK ===
    0x15e5
=== CODE BLOCK END ===

=== CODE BLOCK ADDRESS 0x15e5 ===
  0x15e5	mov    	eax, edi
  0x15e7	test   	eax, eax
  0x15e9	je     	0x164a
  === BLOCK LINK ===
    0x15eb
=== CODE BLOCK END ===

=== CODE BLOCK ADDRESS 0x15eb ===
  0x15eb	dec    	eax
  0x15ec	lea    	edx, [ebp - 0x80]
  0x15ef	dec    	eax
  0x15f0	mov    	ecx, esi
  0x15f2	dec    	eax
  === BLOCK LINK ===
    0x15f3
=== CODE BLOCK END ===

=== CODE BLOCK ADDRESS 0x15f3 ===
  0x15f3	call   	dword ptr [0x1d2f]
  === BLOCK LINK ===
    0x15f9
=== CODE BLOCK END ===

=== CODE BLOCK ADDRESS 0x15f9 ===
  0x15f9	nop    	dword ptr [eax + eax]
  0x15fe	test   	eax, eax
  0x1600	jne    	0x16bb
  === BLOCK LINK ===
    0x1606
=== CODE BLOCK END ===

=== CODE BLOCK ADDRESS 0x1606 ===
  0x1606	dec    	eax
  0x1607	cmp    	dword ptr [ebp - 0x80], edi
  0x160a	jne    	0x16bb
  === BLOCK LINK ===
    0x1610
=== CODE BLOCK END ===

=== CODE BLOCK ADDRESS 0x1610 ===
  0x1610	dec    	eax
  0x1611	mov    	ecx, esi
  0x1613	dec    	eax
  0x1614	call   	dword ptr [0x1cfe]
  === BLOCK LINK ===
    0x161a
=== CODE BLOCK END ===

=== CODE BLOCK ADDRESS 0x161a ===
  0x161a	nop    	dword ptr [eax + eax]
  0x161f	mov    	ecx, eax
  0x1621	mov    	edx, 0x20000
  0x1626	dec    	eax
  0x1627	call   	dword ptr [0x1cdb]
  === BLOCK LINK ===
    0x162d
=== CODE BLOCK END ===

=== CODE BLOCK ADDRESS 0x162d ===
  0x162d	nop    	dword ptr [eax + eax]
  0x1632	dec    	eax
  0x1633	lea    	edx, [0x1e73]
  0x1639	dec    	eax
  0x163a	mov    	ecx, esi
  === BLOCK LINK ===
    0x163c
=== CODE BLOCK END ===

=== CODE BLOCK ADDRESS 0x163c ===
  0x163c	dec    	eax
  0x163d	call   	dword ptr [0x1ced]
  === BLOCK LINK ===
    0x1643
=== CODE BLOCK END ===

=== CODE BLOCK ADDRESS 0x1643 ===
  0x1643	nop    	dword ptr [eax + eax]
  0x1648	jmp    	0x16bb
  === BLOCK LINK ===
    0x164a
=== CODE BLOCK END ===

=== CODE BLOCK ADDRESS 0x164a ===
  0x164a	cmp    	ecx, 0xfde9
  0x1650	jne    	0x16bb
  === BLOCK LINK ===
    0x1652
=== CODE BLOCK END ===

=== CODE BLOCK ADDRESS 0x1652 ===
  0x1652	dec    	eax
  0x1653	lea    	edx, [ebp - 0x80]
  0x1656	dec    	eax
  0x1657	mov    	ecx, esi
  0x1659	dec    	eax
  === BLOCK LINK ===
    0x165a
=== CODE BLOCK END ===

=== CODE BLOCK ADDRESS 0x165a ===
  0x165a	call   	dword ptr [0x1cc8]
  === BLOCK LINK ===
    0x1660
=== CODE BLOCK END ===

=== CODE BLOCK ADDRESS 0x1660 ===
  0x1660	nop    	dword ptr [eax + eax]
  0x1665	test   	eax, eax
  0x1667	jne    	0x16bb
  === BLOCK LINK ===
    0x1669
=== CODE BLOCK END ===

=== CODE BLOCK ADDRESS 0x1669 ===
  0x1669	dec    	eax
  0x166a	cmp    	dword ptr [ebp - 0x80], edi
  0x166d	jne    	0x16bb
  === BLOCK LINK ===
    0x166f
=== CODE BLOCK END ===

=== CODE BLOCK ADDRESS 0x166f ===
  0x166f	dec    	eax
  0x1670	mov    	ecx, esi
  0x1672	dec    	eax
  0x1673	call   	dword ptr [0x1c9f]
  === BLOCK LINK ===
    0x1679
=== CODE BLOCK END ===

=== CODE BLOCK ADDRESS 0x1679 ===
  0x1679	nop    	dword ptr [eax + eax]
  0x167e	mov    	ecx, eax
  0x1680	mov    	edx, 0x8000
  0x1685	dec    	eax
  0x1686	call   	dword ptr [0x1c7c]
  === BLOCK LINK ===
    0x168c
=== CODE BLOCK END ===

=== CODE BLOCK ADDRESS 0x168c ===
  0x168c	nop    	dword ptr [eax + eax]
  0x1691	dec    	eax
  0x1692	mov    	ecx, esi
  0x1694	dec    	eax
  0x1695	call   	dword ptr [0x1c7d]
  === BLOCK LINK ===
    0x169b
=== CODE BLOCK END ===

=== CODE BLOCK ADDRESS 0x169b ===
  0x169b	nop    	dword ptr [eax + eax]
  0x16a0	inc    	ecx
  0x16a1	mov    	eax, 3
  0x16a6	dec    	eax
  0x16a7	lea    	edx, [0x1e03]
  === BLOCK LINK ===
    0x16ad
=== CODE BLOCK END ===

=== CODE BLOCK ADDRESS 0x16ad ===
  0x16ad	mov    	ecx, eax
  0x16af	dec    	eax
  0x16b0	call   	dword ptr [0x1c5a]
  === BLOCK LINK ===
    0x16b6
=== CODE BLOCK END ===

=== CODE BLOCK ADDRESS 0x16b6 ===
  0x16b6	nop    	dword ptr [eax + eax]
  0x16bb	mov    	ecx, 2
  0x16c0	dec    	eax
  0x16c1	lea    	edx, [0x40b9]
  0x16c7	dec    	eax
  === BLOCK LINK ===
    0x16c8
=== CODE BLOCK END ===

=== CODE BLOCK ADDRESS 0x16c8 ===
  0x16c8	call   	dword ptr [0x1ac2]
  === BLOCK LINK ===
    0x16ce
=== CODE BLOCK END ===

=== CODE BLOCK ADDRESS 0x16ce ===
  0x16ce	nop    	dword ptr [eax + eax]
  0x16d3	mov    	esi, eax
  0x16d5	test   	eax, eax
  0x16d7	je     	0x16f6
  === BLOCK LINK ===
    0x16d9
=== CODE BLOCK END ===

=== CODE BLOCK ADDRESS 0x16d9 ===
  0x16d9	inc    	ecx
  0x16da	mov    	ecx, esi
  0x16dc	call   	0x2e48
  === BLOCK LINK ===
    0x16e1
=== CODE BLOCK END ===

=== CODE BLOCK ADDRESS 0x16e1 ===
  0x16e1	dec    	eax
  0x16e2	mov    	ecx, eax
  0x16e4	inc    	esp
  0x16e5	mov    	eax, esi
  0x16e7	mov    	edx, 0x2732
  === BLOCK LINK ===
    0x16ec
=== CODE BLOCK END ===

=== CODE BLOCK ADDRESS 0x16ec ===
  0x16ec	call   	0x2570
  === BLOCK LINK ===
    0x16f1
=== CODE BLOCK END ===

=== CODE BLOCK ADDRESS 0x16f1 ===
  0x16f1	inc    	ecx
  0x16f2	mov    	eax, esi
  0x16f4	jmp    	0x175f
  === BLOCK LINK ===
    0x16f6
=== CODE BLOCK END ===

=== CODE BLOCK ADDRESS 0x16f6 ===
  0x16f6	mov    	esi, 0x80
  0x16fb	dec    	eax
  0x16fc	lea    	ecx, [ebp + 0x70]
  0x16ff	inc    	esp
  0x1700	mov    	eax, esi
  === BLOCK LINK ===
    0x1702
=== CODE BLOCK END ===

=== CODE BLOCK ADDRESS 0x1702 ===
  0x1702	xor    	edx, edx
  0x1704	call   	0x2f09
  === BLOCK LINK ===
    0x1709
=== CODE BLOCK END ===

=== CODE BLOCK ADDRESS 0x1709 ===
  0x1709	inc    	esp
  0x170a	mov    	eax, esi
  0x170c	dec    	eax
  0x170d	lea    	ecx, [ebp - 0x10]
  0x1710	xor    	edx, edx
  === BLOCK LINK ===
    0x1712
=== CODE BLOCK END ===

=== CODE BLOCK ADDRESS 0x1712 ===
  0x1712	call   	0x2f09
  === BLOCK LINK ===
    0x1717
=== CODE BLOCK END ===

=== CODE BLOCK ADDRESS 0x1717 ===
  0x1717	inc    	esp
  0x1718	lea    	ecx, [esi - 0x7e]
  0x171b	mov    	dword ptr [esp + 0x6c], esi
  0x171f	inc    	esp
  0x1720	mov    	dword ptr [esp + 0x70], esi
  === BLOCK LINK ===
    0x1724
=== CODE BLOCK END ===

=== CODE BLOCK ADDRESS 0x1724 ===
  0x1724	dec    	eax
  0x1725	lea    	eax, [ebp + 0xf0]
  0x172b	dec    	eax
  0x172c	mov    	dword ptr [esp + 0x78], eax
  0x1730	inc    	ebp
  === BLOCK LINK ===
    0x1731
=== CODE BLOCK END ===

=== CODE BLOCK ADDRESS 0x1731 ===
  0x1731	cmp    	edi, ecx
  0x1733	jge    	0x178a
  === BLOCK LINK ===
    0x1735
=== CODE BLOCK END ===

=== CODE BLOCK ADDRESS 0x1735 ===
  0x1735	inc    	ecx
  0x1736	mov    	ecx, esi
  0x1738	call   	0x2e48
  === BLOCK LINK ===
    0x173d
=== CODE BLOCK END ===

=== CODE BLOCK ADDRESS 0x173d ===
  0x173d	dec    	ebp
  0x173e	mov    	eax, dword ptr [esp]
  0x1741	mov    	edx, 0x2713
  0x1746	dec    	eax
  0x1747	mov    	ecx, eax
  === BLOCK LINK ===
    0x1749
=== CODE BLOCK END ===

=== CODE BLOCK ADDRESS 0x1749 ===
  0x1749	call   	0x2570
  === BLOCK LINK ===
    0x174e
=== CODE BLOCK END ===

=== CODE BLOCK ADDRESS 0x174e ===
  0x174e	dec    	eax
  0x174f	call   	dword ptr [0x1a13]
  === BLOCK LINK ===
    0x1755
=== CODE BLOCK END ===

=== CODE BLOCK ADDRESS 0x1755 ===
  0x1755	nop    	dword ptr [eax + eax]
  0x175a	mov    	eax, 1
  0x175f	dec    	eax
  0x1760	mov    	ecx, dword ptr [ebp + 0xa60]
  0x1766	dec    	eax
  === BLOCK LINK ===
    0x1767
=== CODE BLOCK END ===

=== CODE BLOCK ADDRESS 0x1767 ===
  0x1767	xor    	ecx, esp
  0x1769	call   	0x2930
  === BLOCK LINK ===
    0x176e
=== CODE BLOCK END ===

=== CODE BLOCK ADDRESS 0x176e ===
  0x176e	dec    	eax
  0x176f	mov    	ebx, dword ptr [esp + 0xbc0]
  0x1776	dec    	eax
  0x1777	add    	esp, 0xb70
  0x177d	inc    	ecx
  === BLOCK LINK ===
    0x177e
=== CODE BLOCK END ===

=== CODE BLOCK ADDRESS 0x177e ===
  0x177e	pop    	edi
  0x177f	inc    	ecx
  0x1780	pop    	esi
  0x1781	inc    	ecx
  0x1782	pop    	ebp
  === BLOCK LINK ===
    0x1783
=== CODE BLOCK END ===

=== CODE BLOCK ADDRESS 0x1783 ===
  0x1783	inc    	ecx
  0x1784	pop    	esp
  0x1785	pop    	edi
  0x1786	pop    	esi
  0x1787	pop    	ebp
  === BLOCK LINK ===
    0x1788
=== CODE BLOCK END ===

=== CODE BLOCK ADDRESS 0x1788 ===
  0x1788	ret    	
  0x1789	int3   	
  0x178a	inc    	ecx
  0x178b	mov    	esi, esi
  0x178d	dec    	ebx
  === BLOCK LINK ===
    0x178e
=== CODE BLOCK END ===

=== CODE BLOCK ADDRESS 0x178e ===
  0x178e	mov    	edx, dword ptr [esp + esi*8]
  0x1791	mov    	ecx, 0xfffd
  0x1796	dec    	eax
  0x1797	mov    	dword ptr [ebp - 0x60], edx
  0x179a	inc    	ecx
  === BLOCK LINK ===
    0x179b
=== CODE BLOCK END ===

=== CODE BLOCK ADDRESS 0x179b ===
  0x179b	mov    	edx, 0x17
  0x17a0	movzx  	eax, word ptr [edx]
  0x17a3	sub    	ax, 0x2d
  0x17a7	test   	cx, ax
  0x17aa	je     	0x17fa
  === BLOCK LINK ===
    0x17ac
=== CODE BLOCK END ===

=== CODE BLOCK ADDRESS 0x17ac ===
  0x17ac	dec    	eax
  0x17ad	lea    	eax, [ebp + 0x250]
  0x17b3	inc    	esp
  0x17b4	mov    	byte ptr [esp + 0x30], ch
  0x17b8	dec    	esp
  === BLOCK LINK ===
    0x17b9
=== CODE BLOCK END ===

=== CODE BLOCK ADDRESS 0x17b9 ===
  0x17b9	lea    	ecx, [esp + 0x6c]
  0x17bd	dec    	eax
  0x17be	mov    	dword ptr [esp + 0x20], eax
  0x17c2	dec    	esp
  0x17c3	lea    	eax, [ebp - 0x10]
  === BLOCK LINK ===
    0x17c6
=== CODE BLOCK END ===

=== CODE BLOCK ADDRESS 0x17c6 ===
  0x17c6	mov    	byte ptr [esp + 0x68], 1
  0x17cb	mov    	ecx, ebx
  0x17cd	call   	0x12cc
  === BLOCK LINK ===
    0x17d2
=== CODE BLOCK END ===

=== CODE BLOCK ADDRESS 0x17d2 ===
  0x17d2	test   	al, al
  0x17d4	je     	0x1abc
  === BLOCK LINK ===
    0x17da
=== CODE BLOCK END ===

=== CODE BLOCK ADDRESS 0x17da ===
  0x17da	lea    	eax, [esi + 1]
  0x17dd	inc    	ecx
  0x17de	cmp    	eax, edi
  0x17e0	jge    	0x1a9f
  === BLOCK LINK ===
    0x17e6
=== CODE BLOCK END ===

=== CODE BLOCK ADDRESS 0x17e6 ===
  0x17e6	mov    	ecx, 1
  0x17eb	call   	0x2e48
  === BLOCK LINK ===
    0x17f0
=== CODE BLOCK END ===

=== CODE BLOCK ADDRESS 0x17f0 ===
  0x17f0	mov    	edx, 0x2713
  0x17f5	jmp    	0x1b21
  === BLOCK LINK ===
    0x17fa
=== CODE BLOCK END ===

=== CODE BLOCK ADDRESS 0x17fa ===
  0x17fa	movzx  	ecx, word ptr [edx + 2]
  0x17fe	sub    	ecx, 0x34
  0x1801	je     	0x1a74
  === BLOCK LINK ===
    0x1807
=== CODE BLOCK END ===

=== CODE BLOCK ADDRESS 0x1807 ===
  0x1807	inc    	ecx
  0x1808	sub    	ecx, ecx
  0x180a	je     	0x1a63
  === BLOCK LINK ===
    0x1810
=== CODE BLOCK END ===

=== CODE BLOCK ADDRESS 0x1810 ===
  0x1810	sub    	ecx, 9
  0x1813	je     	0x1b64
  === BLOCK LINK ===
    0x1819
=== CODE BLOCK END ===

=== CODE BLOCK ADDRESS 0x1819 ===
  0x1819	sub    	ecx, 0x13
  0x181c	je     	0x1a31
  === BLOCK LINK ===
    0x1822
=== CODE BLOCK END ===

=== CODE BLOCK ADDRESS 0x1822 ===
  0x1822	sub    	ecx, 1
  0x1825	je     	0x199f
  === BLOCK LINK ===
    0x182b
=== CODE BLOCK END ===

=== CODE BLOCK ADDRESS 0x182b ===
  0x182b	sub    	ecx, 0x11
  0x182e	je     	0x1992
  === BLOCK LINK ===
    0x1834
=== CODE BLOCK END ===

=== CODE BLOCK ADDRESS 0x1834 ===
  0x1834	sub    	ecx, 4
  0x1837	je     	0x1981
  === BLOCK LINK ===
    0x183d
=== CODE BLOCK END ===

=== CODE BLOCK ADDRESS 0x183d ===
  0x183d	inc    	ecx
  0x183e	sub    	ecx, ecx
  0x1840	je     	0x1874
  === BLOCK LINK ===
    0x1842
=== CODE BLOCK END ===

=== CODE BLOCK ADDRESS 0x1842 ===
  0x1842	cmp    	ecx, 0xd
  0x1845	jne    	0x1ad7
  === BLOCK LINK ===
    0x184b
=== CODE BLOCK END ===

=== CODE BLOCK ADDRESS 0x184b ===
  0x184b	or     	dword ptr [esp + 0x28], 0xffffffff
  0x1850	dec    	eax
  0x1851	lea    	ecx, [ebp - 0x70]
  0x1854	dec    	ecx
  0x1855	mov    	edx, esp
  === BLOCK LINK ===
    0x1857
=== CODE BLOCK END ===

=== CODE BLOCK ADDRESS 0x1857 ===
  0x1857	inc    	ebp
  0x1858	mov    	eax, edi
  0x185a	inc    	esp
  0x185b	mov    	ecx, esi
  0x185d	call   	0x1220
  === BLOCK LINK ===
    0x1862
=== CODE BLOCK END ===

=== CODE BLOCK ADDRESS 0x1862 ===
  0x1862	test   	al, al
  0x1864	je     	0x174e
  === BLOCK LINK ===
    0x186a
=== CODE BLOCK END ===

=== CODE BLOCK ADDRESS 0x186a ===
  0x186a	inc    	esi
  0x186c	dec    	ecx
  0x186d	inc    	esi
  0x186f	jmp    	0x1a9f
  === BLOCK LINK ===
    0x1874
=== CODE BLOCK END ===

=== CODE BLOCK ADDRESS 0x1874 ===
  0x1874	test   	ebx, ebx
  0x1876	je     	0x188e
  === BLOCK LINK ===
    0x1878
=== CODE BLOCK END ===

=== CODE BLOCK ADDRESS 0x1878 ===
  0x1878	dec    	esp
  0x1879	mov    	eax, edx
  0x187b	dec    	eax
  0x187c	lea    	ecx, [esp + 0x64]
  0x1880	inc    	ecx
  === BLOCK LINK ===
    0x1881
=== CODE BLOCK END ===

=== CODE BLOCK ADDRESS 0x1881 ===
  0x1881	mov    	edx, ecx
  0x1883	call   	0x1464
  === BLOCK LINK ===
    0x1888
=== CODE BLOCK END ===

=== CODE BLOCK ADDRESS 0x1888 ===
  0x1888	mov    	ebx, dword ptr [esp + 0x64]
  0x188c	jmp    	0x1897
  === BLOCK LINK ===
    0x188e
=== CODE BLOCK END ===

=== CODE BLOCK ADDRESS 0x188e ===
  0x188e	inc    	ecx
  0x188f	mov    	ebx, ecx
  0x1891	mov    	al, 1
  0x1893	mov    	dword ptr [esp + 0x64], ebx
  0x1897	test   	al, al
  === BLOCK LINK ===
    0x1899
=== CODE BLOCK END ===

=== CODE BLOCK ADDRESS 0x1899 ===
  0x1899	je     	0x174e
  === BLOCK LINK ===
    0x189f
=== CODE BLOCK END ===

=== CODE BLOCK ADDRESS 0x189f ===
  0x189f	movzx  	eax, byte ptr [esp + 0x73]
  0x18a4	mov    	ecx, eax
  0x18a6	add    	eax, 7
  0x18a9	cmp    	eax, 0x28
  0x18ac	ja     	0x1b12
  === BLOCK LINK ===
    0x18b2
=== CODE BLOCK END ===

=== CODE BLOCK ADDRESS 0x18b2 ===
  0x18b2	dec    	esp
  0x18b3	mov    	edi, dword ptr [esp + 0x78]
  0x18b7	inc    	esp
  0x18b8	mov    	ebp, ecx
  0x18ba	mov    	eax, dword ptr [ebp - 0x6c]
  === BLOCK LINK ===
    0x18bd
=== CODE BLOCK END ===

=== CODE BLOCK ADDRESS 0x18bd ===
  0x18bd	add    	eax, -2
  0x18c0	dec    	eax
  0x18c1	cwde   	
  0x18c2	inc    	edx
  0x18c3	mov    	byte ptr [ecx + edi], 0x83
  === BLOCK LINK ===
    0x18c7
=== CODE BLOCK END ===

=== CODE BLOCK ADDRESS 0x18c7 ===
  0x18c7	inc    	cx
  0x18c9	mov    	dword ptr [edi + ecx + 1], 0x548a0403
  0x18d1	and    	al, 0x73
  0x18d3	add    	dl, 3
  0x18d6	dec    	eax
  === BLOCK LINK ===
    0x18d7
=== CODE BLOCK END ===

=== CODE BLOCK ADDRESS 0x18d7 ===
  0x18d7	mov    	dword ptr [ebp - 0x80], eax
  0x18da	mov    	byte ptr [esp + 0x73], dl
  0x18de	dec    	esp
  0x18df	cmp    	esi, eax
  0x18e1	jge    	0x195a
  === BLOCK LINK ===
    0x18e3
=== CODE BLOCK END ===

=== CODE BLOCK ADDRESS 0x18e3 ===
  0x18e3	dec    	ebp
  0x18e4	lea    	eax, [esp + 8]
  0x18e8	dec    	edi
  0x18e9	lea    	eax, [eax + esi*8]
  0x18ec	dec    	ecx
  === BLOCK LINK ===
    0x18ed
=== CODE BLOCK END ===

=== CODE BLOCK ADDRESS 0x18ed ===
  0x18ed	mov    	ecx, dword ptr [eax]
  0x18ef	cmp    	word ptr [ecx], 0x2d
  0x18f3	je     	0x195a
  === BLOCK LINK ===
    0x18f5
=== CODE BLOCK END ===

=== CODE BLOCK ADDRESS 0x18f5 ===
  0x18f5	movzx  	eax, dl
  0x18f8	add    	eax, 4
  0x18fb	cmp    	eax, 0x28
  0x18fe	ja     	0x1b12
  === BLOCK LINK ===
    0x1904
=== CODE BLOCK END ===

=== CODE BLOCK ADDRESS 0x1904 ===
  0x1904	dec    	ecx
  0x1905	add    	eax, 8
  0x1908	dec    	eax
  0x1909	mov    	dword ptr [ebp - 0x60], ecx
  0x190c	dec    	esp
  === BLOCK LINK ===
    0x190d
=== CODE BLOCK END ===

=== CODE BLOCK ADDRESS 0x190d ===
  0x190d	mov    	dword ptr [ebp - 0x58], eax
  0x1910	dec    	esp
  0x1911	lea    	ecx, [ebp - 0x68]
  0x1914	dec    	esp
  0x1915	lea    	eax, [ebp - 0x60]
  === BLOCK LINK ===
    0x1918
=== CODE BLOCK END ===

=== CODE BLOCK ADDRESS 0x1918 ===
  0x1918	mov    	dl, 1
  0x191a	inc    	esi
  0x191c	dec    	ecx
  0x191d	inc    	esi
  0x191f	dec    	eax
  === BLOCK LINK ===
    0x1920
=== CODE BLOCK END ===

=== CODE BLOCK ADDRESS 0x1920 ===
  0x1920	call   	dword ptr [0x1a8a]
  === BLOCK LINK ===
    0x1926
=== CODE BLOCK END ===

=== CODE BLOCK ADDRESS 0x1926 ===
  0x1926	nop    	dword ptr [eax + eax]
  0x192b	test   	eax, eax
  0x192d	jne    	0x1afa
  === BLOCK LINK ===
    0x1933
=== CODE BLOCK END ===

=== CODE BLOCK ADDRESS 0x1933 ===
  0x1933	movzx  	ecx, byte ptr [esp + 0x73]
  0x1938	mov    	eax, dword ptr [ebp - 0x68]
  0x193b	dec    	esp
  0x193c	mov    	eax, dword ptr [ebp - 0x58]
  0x193f	inc    	edx
  === BLOCK LINK ===
    0x1940
=== CODE BLOCK END ===

=== CODE BLOCK ADDRESS 0x1940 ===
  0x1940	mov    	dword ptr [ecx + edi], eax
  0x1943	inc    	ebx
  0x1944	add    	byte ptr [edi + ebp + 1], 4
  0x1949	mov    	dl, byte ptr [esp + 0x73]
  0x194d	add    	dl, 4
  === BLOCK LINK ===
    0x1950
=== CODE BLOCK END ===

=== CODE BLOCK ADDRESS 0x1950 ===
  0x1950	mov    	byte ptr [esp + 0x73], dl
  0x1954	dec    	esp
  0x1955	cmp    	esi, dword ptr [ebp - 0x80]
  0x1958	jl     	0x18ec
  === BLOCK LINK ===
    0x195a
=== CODE BLOCK END ===

=== CODE BLOCK ADDRESS 0x195a ===
  0x195a	inc    	ebx
  0x195b	mov    	al, byte ptr [edi + ebp + 1]
  0x195f	inc    	edx
  0x1960	lea    	ecx, [eax + ebp]
  0x1963	add    	al, 4
  === BLOCK LINK ===
    0x1965
=== CODE BLOCK END ===

=== CODE BLOCK ADDRESS 0x1965 ===
  0x1965	inc    	ebx
  0x1966	mov    	byte ptr [edi + ebp + 1], al
  0x196a	add    	byte ptr [esp + 0x73], 4
  0x196f	inc    	esp
  0x1970	mov    	edi, dword ptr [ebp - 0x6c]
  === BLOCK LINK ===
    0x1973
=== CODE BLOCK END ===

=== CODE BLOCK ADDRESS 0x1973 ===
  0x1973	inc    	esp
  0x1974	mov    	ch, byte ptr [esp + 0x61]
  0x1978	mov    	byte ptr [esp + 0x60], cl
  0x197c	jmp    	0x1aa3
  === BLOCK LINK ===
    0x1981
=== CODE BLOCK END ===

=== CODE BLOCK ADDRESS 0x1981 ===
  0x1981	mov    	dword ptr [esp + 0x28], 0xff
  0x1989	dec    	eax
  0x198a	lea    	ecx, [ebp - 0x78]
  0x198d	jmp    	0x1854
  === BLOCK LINK ===
    0x1992
=== CODE BLOCK END ===

=== CODE BLOCK ADDRESS 0x1992 ===
  0x1992	inc    	esp
  0x1993	mov    	ch, bh
  0x1995	inc    	eax
  0x1996	mov    	byte ptr [esp + 0x61], bh
  0x199a	jmp    	0x1a9f
  === BLOCK LINK ===
    0x199f
=== CODE BLOCK END ===

=== CODE BLOCK ADDRESS 0x199f ===
  0x199f	test   	ebx, ebx
  0x19a1	je     	0x19b9
  === BLOCK LINK ===
    0x19a3
=== CODE BLOCK END ===

=== CODE BLOCK ADDRESS 0x19a3 ===
  0x19a3	dec    	esp
  0x19a4	mov    	eax, edx
  0x19a6	dec    	eax
  0x19a7	lea    	ecx, [esp + 0x64]
  0x19ab	inc    	ecx
  === BLOCK LINK ===
    0x19ac
=== CODE BLOCK END ===

=== CODE BLOCK ADDRESS 0x19ac ===
  0x19ac	mov    	edx, edx
  0x19ae	call   	0x1464
  === BLOCK LINK ===
    0x19b3
=== CODE BLOCK END ===

=== CODE BLOCK ADDRESS 0x19b3 ===
  0x19b3	mov    	ebx, dword ptr [esp + 0x64]
  0x19b7	jmp    	0x19c2
  === BLOCK LINK ===
    0x19b9
=== CODE BLOCK END ===

=== CODE BLOCK ADDRESS 0x19b9 ===
  0x19b9	inc    	ecx
  0x19ba	mov    	ebx, edx
  0x19bc	mov    	al, 1
  0x19be	mov    	dword ptr [esp + 0x64], ebx
  0x19c2	test   	al, al
  === BLOCK LINK ===
    0x19c4
=== CODE BLOCK END ===

=== CODE BLOCK ADDRESS 0x19c4 ===
  0x19c4	je     	0x174e
  === BLOCK LINK ===
    0x19ca
=== CODE BLOCK END ===

=== CODE BLOCK ADDRESS 0x19ca ===
  0x19ca	inc    	ecx
  0x19cb	lea    	eax, [edi - 1]
  0x19ce	cmp    	esi, eax
  0x19d0	je     	0x1b49
  === BLOCK LINK ===
    0x19d6
=== CODE BLOCK END ===

=== CODE BLOCK ADDRESS 0x19d6 ===
  0x19d6	xorps  	xmm0, xmm0
  0x19d9	dec    	eax
  0x19da	mov    	dword ptr [ebp - 0x80], edi
  0x19dd	movups  	xmmword ptr [ebp - 0x48], xmm0
  0x19e1	dec    	ecx
  === BLOCK LINK ===
    0x19e2
=== CODE BLOCK END ===

=== CODE BLOCK ADDRESS 0x19e2 ===
  0x19e2	inc    	esi
  0x19e4	mov    	dword ptr [ebp - 0x48], 1
  0x19eb	dec    	esp
  0x19ec	lea    	ecx, [ebp - 0x80]
  0x19ef	mov    	dword ptr [ebp - 0x44], ebx
  === BLOCK LINK ===
    0x19f2
=== CODE BLOCK END ===

=== CODE BLOCK ADDRESS 0x19f2 ===
  0x19f2	dec    	esp
  0x19f3	lea    	eax, [ebp - 0x48]
  0x19f6	xor    	edx, edx
  0x19f8	inc    	esi
  0x19fa	dec    	ebx
  === BLOCK LINK ===
    0x19fb
=== CODE BLOCK END ===

=== CODE BLOCK ADDRESS 0x19fb ===
  0x19fb	mov    	ecx, dword ptr [esp + esi*8]
  0x19fe	movups  	xmmword ptr [ebp - 0x38], xmm0
  0x1a02	movups  	xmmword ptr [ebp - 0x28], xmm0
  0x1a06	dec    	eax
  0x1a07	call   	dword ptr [0x1753]
  === BLOCK LINK ===
    0x1a0d
=== CODE BLOCK END ===

=== CODE BLOCK ADDRESS 0x1a0d ===
  0x1a0d	nop    	dword ptr [eax + eax]
  0x1a12	test   	eax, eax
  0x1a14	jne    	0x1b2e
  === BLOCK LINK ===
    0x1a1a
=== CODE BLOCK END ===

=== CODE BLOCK ADDRESS 0x1a1a ===
  0x1a1a	dec    	eax
  0x1a1b	mov    	edx, dword ptr [ebp - 0x80]
  0x1a1e	dec    	eax
  0x1a1f	lea    	ecx, [ebp + 0x70]
  0x1a22	dec    	esp
  === BLOCK LINK ===
    0x1a23
=== CODE BLOCK END ===

=== CODE BLOCK ADDRESS 0x1a23 ===
  0x1a23	mov    	eax, dword ptr [edx + 0x10]
  0x1a26	dec    	eax
  0x1a27	mov    	edx, dword ptr [edx + 0x20]
  0x1a2a	call   	0x2efd
  === BLOCK LINK ===
    0x1a2f
=== CODE BLOCK END ===

=== CODE BLOCK ADDRESS 0x1a2f ===
  0x1a2f	jmp    	0x1a9f
  === BLOCK LINK ===
    0x1a31
=== CODE BLOCK END ===

=== CODE BLOCK ADDRESS 0x1a31 ===
  0x1a31	test   	ebx, ebx
  0x1a33	je     	0x1a4b
  === BLOCK LINK ===
    0x1a35
=== CODE BLOCK END ===

=== CODE BLOCK ADDRESS 0x1a35 ===
  0x1a35	dec    	esp
  0x1a36	mov    	eax, edx
  0x1a38	dec    	eax
  0x1a39	lea    	ecx, [esp + 0x64]
  0x1a3d	inc    	ecx
  === BLOCK LINK ===
    0x1a3e
=== CODE BLOCK END ===

=== CODE BLOCK ADDRESS 0x1a3e ===
  0x1a3e	mov    	edx, edx
  0x1a40	call   	0x1464
  === BLOCK LINK ===
    0x1a45
=== CODE BLOCK END ===

=== CODE BLOCK ADDRESS 0x1a45 ===
  0x1a45	mov    	ebx, dword ptr [esp + 0x64]
  0x1a49	jmp    	0x1a54
  === BLOCK LINK ===
    0x1a4b
=== CODE BLOCK END ===

=== CODE BLOCK ADDRESS 0x1a4b ===
  0x1a4b	inc    	ecx
  0x1a4c	mov    	ebx, edx
  0x1a4e	mov    	al, 1
  0x1a50	mov    	dword ptr [esp + 0x64], ebx
  0x1a54	test   	al, al
  === BLOCK LINK ===
    0x1a56
=== CODE BLOCK END ===

=== CODE BLOCK ADDRESS 0x1a56 ===
  0x1a56	je     	0x174e
  === BLOCK LINK ===
    0x1a5c
=== CODE BLOCK END ===

=== CODE BLOCK ADDRESS 0x1a5c ===
  0x1a5c	or     	byte ptr [esp + 0x72], 1
  0x1a61	jmp    	0x1a9f
  === BLOCK LINK ===
    0x1a63
=== CODE BLOCK END ===

=== CODE BLOCK ADDRESS 0x1a63 ===
  0x1a63	test   	ebx, ebx
  0x1a65	je     	0x1a6f
  === BLOCK LINK ===
    0x1a67
=== CODE BLOCK END ===

=== CODE BLOCK ADDRESS 0x1a67 ===
  0x1a67	dec    	esp
  0x1a68	mov    	eax, edx
  0x1a6a	inc    	ecx
  0x1a6b	mov    	edx, edx
  0x1a6d	jmp    	0x1a7e
  === BLOCK LINK ===
    0x1a6f
=== CODE BLOCK END ===

=== CODE BLOCK ADDRESS 0x1a6f ===
  0x1a6f	inc    	ecx
  0x1a70	mov    	ebx, edx
  0x1a72	jmp    	0x1a91
  === BLOCK LINK ===
    0x1a74
=== CODE BLOCK END ===

=== CODE BLOCK ADDRESS 0x1a74 ===
  0x1a74	test   	ebx, ebx
  0x1a76	je     	0x1a8e
  === BLOCK LINK ===
    0x1a78
=== CODE BLOCK END ===

=== CODE BLOCK ADDRESS 0x1a78 ===
  0x1a78	dec    	esp
  0x1a79	mov    	eax, edx
  0x1a7b	inc    	ecx
  0x1a7c	mov    	edx, ecx
  0x1a7e	dec    	eax
  === BLOCK LINK ===
    0x1a7f
=== CODE BLOCK END ===

=== CODE BLOCK ADDRESS 0x1a7f ===
  0x1a7f	lea    	ecx, [esp + 0x64]
  0x1a83	call   	0x1464
  === BLOCK LINK ===
    0x1a88
=== CODE BLOCK END ===

=== CODE BLOCK ADDRESS 0x1a88 ===
  0x1a88	mov    	ebx, dword ptr [esp + 0x64]
  0x1a8c	jmp    	0x1a97
  === BLOCK LINK ===
    0x1a8e
=== CODE BLOCK END ===

=== CODE BLOCK ADDRESS 0x1a8e ===
  0x1a8e	inc    	ecx
  0x1a8f	mov    	ebx, ecx
  0x1a91	mov    	dword ptr [esp + 0x64], ebx
  0x1a95	mov    	al, 1
  0x1a97	test   	al, al
  === BLOCK LINK ===
    0x1a99
=== CODE BLOCK END ===

=== CODE BLOCK ADDRESS 0x1a99 ===
  0x1a99	je     	0x174e
  === BLOCK LINK ===
    0x1a9f
=== CODE BLOCK END ===

=== CODE BLOCK ADDRESS 0x1a9f ===
  0x1a9f	mov    	cl, byte ptr [esp + 0x60]
  0x1aa3	inc    	esi
  0x1aa5	dec    	ecx
  0x1aa6	inc    	esi
  0x1aa8	inc    	ecx
  === BLOCK LINK ===
    0x1aa9
=== CODE BLOCK END ===

=== CODE BLOCK ADDRESS 0x1aa9 ===
  0x1aa9	cmp    	esi, edi
  0x1aab	jge    	0x1b6e
  === BLOCK LINK ===
    0x1ab1
=== CODE BLOCK END ===

=== CODE BLOCK ADDRESS 0x1ab1 ===
  0x1ab1	inc    	ecx
  0x1ab2	mov    	ecx, 2
  0x1ab7	jmp    	0x178d
  === BLOCK LINK ===
    0x1abc
=== CODE BLOCK END ===

=== CODE BLOCK ADDRESS 0x1abc ===
  0x1abc	mov    	ecx, 1
  0x1ac1	dec    	eax
  0x1ac2	arpl   	si, bx
  0x1ac4	call   	0x2e48
  === BLOCK LINK ===
    0x1ac9
=== CODE BLOCK END ===

=== CODE BLOCK ADDRESS 0x1ac9 ===
  0x1ac9	dec    	ebp
  0x1aca	mov    	eax, dword ptr [esp + ebx*8]
  0x1acd	mov    	edx, 0x2714
  0x1ad2	jmp    	0x1746
  === BLOCK LINK ===
    0x1ad7
=== CODE BLOCK END ===

=== CODE BLOCK ADDRESS 0x1ad7 ===
  0x1ad7	mov    	ecx, 1
  0x1adc	dec    	eax
  0x1add	arpl   	si, bx
  0x1adf	call   	0x2e48
  === BLOCK LINK ===
    0x1ae4
=== CODE BLOCK END ===

=== CODE BLOCK ADDRESS 0x1ae4 ===
  0x1ae4	dec    	ebp
  0x1ae5	mov    	eax, dword ptr [esp + ebx*8]
  0x1ae8	dec    	eax
  0x1ae9	mov    	ecx, eax
  0x1aeb	mov    	edx, 0x2738
  === BLOCK LINK ===
    0x1af0
=== CODE BLOCK END ===

=== CODE BLOCK ADDRESS 0x1af0 ===
  0x1af0	call   	0x2570
  === BLOCK LINK ===
    0x1af5
=== CODE BLOCK END ===

=== CODE BLOCK ADDRESS 0x1af5 ===
  0x1af5	jmp    	0x17e6
  === BLOCK LINK ===
    0x1afa
=== CODE BLOCK END ===

=== CODE BLOCK ADDRESS 0x1afa ===
  0x1afa	mov    	ecx, 1
  0x1aff	call   	0x2e48
  === BLOCK LINK ===
    0x1b04
=== CODE BLOCK END ===

=== CODE BLOCK ADDRESS 0x1b04 ===
  0x1b04	dec    	esp
  0x1b05	mov    	eax, dword ptr [ebp - 0x60]
  0x1b08	mov    	edx, 0x2736
  0x1b0d	jmp    	0x1746
  === BLOCK LINK ===
    0x1b12
=== CODE BLOCK END ===

=== CODE BLOCK ADDRESS 0x1b12 ===
  0x1b12	mov    	ecx, 1
  0x1b17	call   	0x2e48
  === BLOCK LINK ===
    0x1b1c
=== CODE BLOCK END ===

=== CODE BLOCK ADDRESS 0x1b1c ===
  0x1b1c	mov    	edx, 0x2737
  0x1b21	dec    	eax
  0x1b22	mov    	ecx, eax
  0x1b24	call   	0x2570
  === BLOCK LINK ===
    0x1b29
=== CODE BLOCK END ===

=== CODE BLOCK ADDRESS 0x1b29 ===
  0x1b29	jmp    	0x174e
  === BLOCK LINK ===
    0x1b2e
=== CODE BLOCK END ===

=== CODE BLOCK ADDRESS 0x1b2e ===
  0x1b2e	mov    	ecx, 1
  0x1b33	dec    	eax
  0x1b34	arpl   	si, bx
  0x1b36	call   	0x2e48
  === BLOCK LINK ===
    0x1b3b
=== CODE BLOCK END ===

=== CODE BLOCK ADDRESS 0x1b3b ===
  0x1b3b	dec    	ebp
  0x1b3c	mov    	eax, dword ptr [esp + ebx*8]
  0x1b3f	mov    	edx, 0x273f
  0x1b44	jmp    	0x1746
  === BLOCK LINK ===
    0x1b49
=== CODE BLOCK END ===

=== CODE BLOCK ADDRESS 0x1b49 ===
  0x1b49	mov    	ecx, 1
  0x1b4e	dec    	eax
  0x1b4f	arpl   	si, bx
  0x1b51	call   	0x2e48
  === BLOCK LINK ===
    0x1b56
=== CODE BLOCK END ===

=== CODE BLOCK ADDRESS 0x1b56 ===
  0x1b56	dec    	ebp
  0x1b57	mov    	eax, dword ptr [esp + ebx*8]
  0x1b5a	mov    	edx, 0x2734
  0x1b5f	jmp    	0x1746
  === BLOCK LINK ===
    0x1b64
=== CODE BLOCK END ===

=== CODE BLOCK ADDRESS 0x1b64 ===
  0x1b64	mov    	ecx, 1
  0x1b69	jmp    	0x1738
  === BLOCK LINK ===
    0x1b6e
=== CODE BLOCK END ===

=== CODE BLOCK ADDRESS 0x1b6e ===
  0x1b6e	inc    	eax
  0x1b6f	cmp    	byte ptr [esp + 0x68], bh
  0x1b73	jne    	0x1b91
  === BLOCK LINK ===
    0x1b75
=== CODE BLOCK END ===

=== CODE BLOCK ADDRESS 0x1b75 ===
  0x1b75	mov    	ecx, 1
  0x1b7a	call   	0x2e48
  === BLOCK LINK ===
    0x1b7f
=== CODE BLOCK END ===

=== CODE BLOCK ADDRESS 0x1b7f ===
  0x1b7f	dec    	eax
  0x1b80	mov    	ecx, eax
  0x1b82	mov    	edx, 0x2739
  0x1b87	call   	0x2570
  === BLOCK LINK ===
    0x1b8c
=== CODE BLOCK END ===

=== CODE BLOCK ADDRESS 0x1b8c ===
  0x1b8c	jmp    	0x17e6
  === BLOCK LINK ===
    0x1b91
=== CODE BLOCK END ===

=== CODE BLOCK ADDRESS 0x1b91 ===
  0x1b91	inc    	esp
  0x1b92	movzx  	ebp, word ptr [ebp - 0x10]
  0x1b96	inc    	ecx
  0x1b97	cmp    	ebp, 2
  0x1b9a	jne    	0x1bbf
  === BLOCK LINK ===
    0x1b9c
=== CODE BLOCK END ===

=== CODE BLOCK ADDRESS 0x1b9c ===
  0x1b9c	test   	cl, cl
  0x1b9e	je     	0x1bae
  === BLOCK LINK ===
    0x1ba0
=== CODE BLOCK END ===

=== CODE BLOCK ADDRESS 0x1ba0 ===
  0x1ba0	mov    	eax, dword ptr [ebp - 0xc]
  0x1ba3	movzx  	edx, cl
  0x1ba6	dec    	eax
  0x1ba7	mov    	ecx, dword ptr [esp + 0x78]
  0x1bab	mov    	dword ptr [edx + ecx], eax
  === BLOCK LINK ===
    0x1bae
=== CODE BLOCK END ===

=== CODE BLOCK ADDRESS 0x1bae ===
  0x1bae	dec    	eax
  0x1baf	call   	dword ptr [0x158b]
  === BLOCK LINK ===
    0x1bb5
=== CODE BLOCK END ===

=== CODE BLOCK ADDRESS 0x1bb5 ===
  0x1bb5	nop    	dword ptr [eax + eax]
  0x1bba	jmp    	0x1c7d
  === BLOCK LINK ===
    0x1bbf
=== CODE BLOCK END ===

=== CODE BLOCK ADDRESS 0x1bbf ===
  0x1bbf	cmp    	word ptr [ebp + 0x70], di
  0x1bc3	jne    	0x1c71
  === BLOCK LINK ===
    0x1bc9
=== CODE BLOCK END ===

=== CODE BLOCK ADDRESS 0x1bc9 ===
  0x1bc9	inc    	ebp
  0x1bca	xor    	eax, eax
  0x1bcc	xor    	edx, edx
  0x1bce	inc    	ecx
  0x1bcf	mov    	ecx, ebp
  === BLOCK LINK ===
    0x1bd1
=== CODE BLOCK END ===

=== CODE BLOCK ADDRESS 0x1bd1 ===
  0x1bd1	dec    	eax
  0x1bd2	call   	dword ptr [0x1580]
  === BLOCK LINK ===
    0x1bd8
=== CODE BLOCK END ===

=== CODE BLOCK ADDRESS 0x1bd8 ===
  0x1bd8	nop    	dword ptr [eax + eax]
  0x1bdd	dec    	eax
  0x1bde	mov    	ebx, eax
  0x1be0	dec    	eax
  0x1be1	cmp    	eax, -1
  === BLOCK LINK ===
    0x1be4
=== CODE BLOCK END ===

=== CODE BLOCK ADDRESS 0x1be4 ===
  0x1be4	jne    	0x1c20
  === BLOCK LINK ===
    0x1be6
=== CODE BLOCK END ===

=== CODE BLOCK ADDRESS 0x1be6 ===
  0x1be6	dec    	eax
  0x1be7	call   	dword ptr [0x15ab]
  === BLOCK LINK ===
    0x1bed
=== CODE BLOCK END ===

=== CODE BLOCK ADDRESS 0x1bed ===
  0x1bed	nop    	dword ptr [eax + eax]
  0x1bf2	mov    	ecx, 1
  0x1bf7	mov    	ebx, eax
  0x1bf9	call   	0x2e48
  === BLOCK LINK ===
    0x1bfe
=== CODE BLOCK END ===

=== CODE BLOCK ADDRESS 0x1bfe ===
  0x1bfe	dec    	eax
  0x1bff	mov    	ecx, eax
  0x1c01	inc    	esp
  0x1c02	mov    	eax, ebx
  0x1c04	mov    	edx, 0x2741
  === BLOCK LINK ===
    0x1c09
=== CODE BLOCK END ===

=== CODE BLOCK ADDRESS 0x1c09 ===
  0x1c09	call   	0x2570
  === BLOCK LINK ===
    0x1c0e
=== CODE BLOCK END ===

=== CODE BLOCK ADDRESS 0x1c0e ===
  0x1c0e	mov    	ecx, 1
  0x1c13	dec    	eax
  0x1c14	call   	dword ptr [0x177e]
  === BLOCK LINK ===
    0x1c1a
=== CODE BLOCK END ===

=== CODE BLOCK ADDRESS 0x1c1a ===
  0x1c1a	nop    	dword ptr [eax + eax]
  0x1c1f	int3   	
  0x1c20	dec    	eax
  0x1c21	mov    	dword ptr [esp + 0x40], edi
  0x1c25	dec    	eax
  === BLOCK LINK ===
    0x1c26
=== CODE BLOCK END ===

=== CODE BLOCK ADDRESS 0x1c26 ===
  0x1c26	lea    	eax, [ebp - 0x6c]
  0x1c29	dec    	eax
  0x1c2a	mov    	dword ptr [esp + 0x38], edi
  0x1c2e	dec    	esp
  0x1c2f	lea    	eax, [ebp - 0x10]
  === BLOCK LINK ===
    0x1c32
=== CODE BLOCK END ===

=== CODE BLOCK ADDRESS 0x1c32 ===
  0x1c32	dec    	eax
  0x1c33	mov    	dword ptr [esp + 0x30], eax
  0x1c37	inc    	ecx
  0x1c38	mov    	ecx, 0x80
  0x1c3d	dec    	eax
  === BLOCK LINK ===
    0x1c3e
=== CODE BLOCK END ===

=== CODE BLOCK ADDRESS 0x1c3e ===
  0x1c3e	lea    	eax, [ebp + 0x70]
  0x1c41	mov    	dword ptr [esp + 0x28], 0x80
  0x1c49	mov    	edx, 0xc8000014
  0x1c4e	dec    	eax
  0x1c4f	mov    	dword ptr [esp + 0x20], eax
  === BLOCK LINK ===
    0x1c53
=== CODE BLOCK END ===

=== CODE BLOCK ADDRESS 0x1c53 ===
  0x1c53	dec    	eax
  0x1c54	mov    	ecx, ebx
  0x1c56	dec    	eax
  0x1c57	call   	dword ptr [0x1523]
  === BLOCK LINK ===
    0x1c5d
=== CODE BLOCK END ===

=== CODE BLOCK ADDRESS 0x1c5d ===
  0x1c5d	nop    	dword ptr [eax + eax]
  0x1c62	dec    	eax
  0x1c63	mov    	ecx, ebx
  0x1c65	dec    	eax
  0x1c66	call   	dword ptr [0x151c]
  === BLOCK LINK ===
    0x1c6c
=== CODE BLOCK END ===

=== CODE BLOCK ADDRESS 0x1c6c ===
  0x1c6c	nop    	dword ptr [eax + eax]
  0x1c71	dec    	eax
  0x1c72	call   	dword ptr [0x14b8]
  === BLOCK LINK ===
    0x1c78
=== CODE BLOCK END ===

=== CODE BLOCK ADDRESS 0x1c78 ===
  0x1c78	nop    	dword ptr [eax + eax]
  0x1c7d	dec    	esp
  0x1c7e	mov    	esp, eax
  0x1c80	dec    	eax
  0x1c81	cmp    	eax, -1
  === BLOCK LINK ===
    0x1c84
=== CODE BLOCK END ===

=== CODE BLOCK ADDRESS 0x1c84 ===
  0x1c84	jne    	0x1cb3
  === BLOCK LINK ===
    0x1c86
=== CODE BLOCK END ===

=== CODE BLOCK ADDRESS 0x1c86 ===
  0x1c86	dec    	eax
  0x1c87	call   	dword ptr [0x153b]
  === BLOCK LINK ===
    0x1c8d
=== CODE BLOCK END ===

=== CODE BLOCK ADDRESS 0x1c8d ===
  0x1c8d	nop    	dword ptr [eax + eax]
  0x1c92	inc    	ecx
  0x1c93	lea    	ecx, [esp + 2]
  0x1c97	mov    	ebx, eax
  0x1c99	call   	0x2e48
  === BLOCK LINK ===
    0x1c9e
=== CODE BLOCK END ===

=== CODE BLOCK ADDRESS 0x1c9e ===
  0x1c9e	dec    	eax
  0x1c9f	mov    	ecx, eax
  0x1ca1	inc    	esp
  0x1ca2	mov    	eax, ebx
  0x1ca4	mov    	edx, 0x2715
  === BLOCK LINK ===
    0x1ca9
=== CODE BLOCK END ===

=== CODE BLOCK ADDRESS 0x1ca9 ===
  0x1ca9	call   	0x2570
  === BLOCK LINK ===
    0x1cae
=== CODE BLOCK END ===

=== CODE BLOCK ADDRESS 0x1cae ===
  0x1cae	jmp    	0x174e
  === BLOCK LINK ===
    0x1cb3
=== CODE BLOCK END ===

=== CODE BLOCK ADDRESS 0x1cb3 ===
  0x1cb3	mov    	edx, dword ptr [esp + 0x6c]
  0x1cb7	dec    	esp
  0x1cb8	lea    	eax, [ebp + 0x120]
  0x1cbe	mov    	dword ptr [esp + 0x30], 2
  0x1cc6	dec    	eax
  === BLOCK LINK ===
    0x1cc7
=== CODE BLOCK END ===

=== CODE BLOCK ADDRESS 0x1cc7 ===
  0x1cc7	lea    	ecx, [ebp - 0x10]
  0x1cca	mov    	dword ptr [esp + 0x28], edi
  0x1cce	inc    	ecx
  0x1ccf	mov    	ecx, 0x41
  0x1cd4	dec    	eax
  === BLOCK LINK ===
    0x1cd5
=== CODE BLOCK END ===

=== CODE BLOCK ADDRESS 0x1cd5 ===
  0x1cd5	mov    	dword ptr [esp + 0x20], edi
  0x1cd9	dec    	eax
  0x1cda	call   	dword ptr [0x1498]
  === BLOCK LINK ===
    0x1ce0
=== CODE BLOCK END ===

=== CODE BLOCK ADDRESS 0x1ce0 ===
  0x1ce0	nop    	dword ptr [eax + eax]
  0x1ce5	mov    	ecx, 1
  0x1cea	cmp    	word ptr [ebp + 0x250], di
  0x1cf1	je     	0x1d1e
  === BLOCK LINK ===
    0x1cf3
=== CODE BLOCK END ===

=== CODE BLOCK ADDRESS 0x1cf3 ===
  0x1cf3	call   	0x2e48
  === BLOCK LINK ===
    0x1cf8
=== CODE BLOCK END ===

=== CODE BLOCK ADDRESS 0x1cf8 ===
  0x1cf8	inc    	esp
  0x1cf9	mov    	edi, dword ptr [ebp - 0x78]
  0x1cfc	dec    	esp
  0x1cfd	lea    	ecx, [ebp + 0x120]
  0x1d03	dec    	eax
  === BLOCK LINK ===
    0x1d04
=== CODE BLOCK END ===

=== CODE BLOCK ADDRESS 0x1d04 ===
  0x1d04	mov    	ecx, eax
  0x1d06	inc    	esp
  0x1d07	mov    	dword ptr [esp + 0x20], edi
  0x1d0b	dec    	esp
  0x1d0c	lea    	eax, [ebp + 0x250]
  === BLOCK LINK ===
    0x1d12
=== CODE BLOCK END ===

=== CODE BLOCK ADDRESS 0x1d12 ===
  0x1d12	mov    	edx, 0x2716
  0x1d17	call   	0x2570
  === BLOCK LINK ===
    0x1d1c
=== CODE BLOCK END ===

=== CODE BLOCK ADDRESS 0x1d1c ===
  0x1d1c	jmp    	0x1d3e
  === BLOCK LINK ===
    0x1d1e
=== CODE BLOCK END ===

=== CODE BLOCK ADDRESS 0x1d1e ===
  0x1d1e	call   	0x2e48
  === BLOCK LINK ===
    0x1d23
=== CODE BLOCK END ===

=== CODE BLOCK ADDRESS 0x1d23 ===
  0x1d23	inc    	esp
  0x1d24	mov    	edi, dword ptr [ebp - 0x78]
  0x1d27	dec    	esp
  0x1d28	lea    	eax, [ebp + 0x120]
  0x1d2e	dec    	eax
  === BLOCK LINK ===
    0x1d2f
=== CODE BLOCK END ===

=== CODE BLOCK ADDRESS 0x1d2f ===
  0x1d2f	mov    	ecx, eax
  0x1d31	inc    	ebp
  0x1d32	mov    	ecx, edi
  0x1d34	mov    	edx, 0x2733
  0x1d39	call   	0x2570
  === BLOCK LINK ===
    0x1d3e
=== CODE BLOCK END ===

=== CODE BLOCK ADDRESS 0x1d3e ===
  0x1d3e	movzx  	ecx, byte ptr [esp + 0x70]
  0x1d43	inc    	ecx
  0x1d44	cmp    	ecx, edi
  0x1d46	ja     	0x2153
  === BLOCK LINK ===
    0x1d4c
=== CODE BLOCK END ===

=== CODE BLOCK ADDRESS 0x1d4c ===
  0x1d4c	test   	cl, cl
  0x1d4e	je     	0x2153
  === BLOCK LINK ===
    0x1d54
=== CODE BLOCK END ===

=== CODE BLOCK ADDRESS 0x1d54 ===
  0x1d54	movzx  	ebx, cl
  0x1d57	mov    	ecx, 1
  0x1d5c	call   	0x2e48
  === BLOCK LINK ===
    0x1d61
=== CODE BLOCK END ===

=== CODE BLOCK ADDRESS 0x1d61 ===
  0x1d61	dec    	eax
  0x1d62	mov    	ecx, eax
  0x1d64	inc    	esp
  0x1d65	mov    	eax, ebx
  0x1d67	mov    	edx, 0x2717
  === BLOCK LINK ===
    0x1d6c
=== CODE BLOCK END ===

=== CODE BLOCK ADDRESS 0x1d6c ===
  0x1d6c	call   	0x2570
  === BLOCK LINK ===
    0x1d71
=== CODE BLOCK END ===

=== CODE BLOCK ADDRESS 0x1d71 ===
  0x1d71	inc    	esp
  0x1d72	mov    	dh, bh
  0x1d74	mov    	esi, edi
  0x1d76	mov    	eax, dword ptr [ebp - 0x70]
  0x1d79	dec    	eax
  === BLOCK LINK ===
    0x1d7a
=== CODE BLOCK END ===

=== CODE BLOCK ADDRESS 0x1d7a ===
  0x1d7a	lea    	ebx, [0x3960]
  0x1d80	inc    	ebp
  0x1d81	xor    	ecx, ecx
  0x1d83	inc    	ebp
  0x1d84	xor    	eax, eax
  === BLOCK LINK ===
    0x1d86
=== CODE BLOCK END ===

=== CODE BLOCK ADDRESS 0x1d86 ===
  0x1d86	xor    	edx, edx
  0x1d88	dec    	ecx
  0x1d89	mov    	ecx, esp
  0x1d8b	inc    	ecx
  0x1d8c	cmp    	ebp, 2
  === BLOCK LINK ===
    0x1d8f
=== CODE BLOCK END ===

=== CODE BLOCK ADDRESS 0x1d8f ===
  0x1d8f	jne    	0x1ebb
  === BLOCK LINK ===
    0x1d95
=== CODE BLOCK END ===

=== CODE BLOCK ADDRESS 0x1d95 ===
  0x1d95	mov    	dword ptr [esp + 0x50], eax
  0x1d99	dec    	eax
  0x1d9a	lea    	eax, [esp + 0x70]
  0x1d9e	mov    	dword ptr [esp + 0x48], 0x90
  0x1da6	dec    	eax
  === BLOCK LINK ===
    0x1da7
=== CODE BLOCK END ===

=== CODE BLOCK ADDRESS 0x1da7 ===
  0x1da7	mov    	dword ptr [esp + 0x40], ebx
  0x1dab	dec    	eax
  0x1dac	mov    	dword ptr [esp + 0x38], eax
  0x1db0	lea    	eax, [edx + 0x40]
  0x1db3	mov    	word ptr [esp + 0x30], ax
  === BLOCK LINK ===
    0x1db8
=== CODE BLOCK END ===

=== CODE BLOCK ADDRESS 0x1db8 ===
  0x1db8	dec    	eax
  0x1db9	lea    	eax, [0x38e1]
  0x1dbf	dec    	eax
  0x1dc0	mov    	dword ptr [esp + 0x28], eax
  0x1dc4	mov    	eax, dword ptr [ebp - 0xc]
  === BLOCK LINK ===
    0x1dc7
=== CODE BLOCK END ===

=== CODE BLOCK ADDRESS 0x1dc7 ===
  0x1dc7	mov    	dword ptr [esp + 0x20], eax
  0x1dcb	dec    	eax
  0x1dcc	call   	dword ptr [0x1356]
  === BLOCK LINK ===
    0x1dd2
=== CODE BLOCK END ===

=== CODE BLOCK ADDRESS 0x1dd2 ===
  0x1dd2	nop    	dword ptr [eax + eax]
  0x1dd7	test   	eax, eax
  0x1dd9	jne    	0x1e41
  === BLOCK LINK ===
    0x1ddb
=== CODE BLOCK END ===

=== CODE BLOCK ADDRESS 0x1ddb ===
  0x1ddb	dec    	eax
  0x1ddc	call   	dword ptr [0x13e6]
  === BLOCK LINK ===
    0x1de2
=== CODE BLOCK END ===

=== CODE BLOCK ADDRESS 0x1de2 ===
  0x1de2	nop    	dword ptr [eax + eax]
  0x1de7	mov    	ebx, eax
  0x1de9	dec    	eax
  0x1dea	mov    	eax, edi
  0x1dec	cmp    	ebx, 0x2b02
  === BLOCK LINK ===
    0x1df2
=== CODE BLOCK END ===

=== CODE BLOCK ADDRESS 0x1df2 ===
  0x1df2	jne    	0x204e
  === BLOCK LINK ===
    0x1df8
=== CODE BLOCK END ===

=== CODE BLOCK ADDRESS 0x1df8 ===
  0x1df8	inc    	ecx
  0x1df9	lea    	ecx, [ebp - 1]
  0x1dfc	call   	0x2e48
  === BLOCK LINK ===
    0x1e01
=== CODE BLOCK END ===

=== CODE BLOCK ADDRESS 0x1e01 ===
  0x1e01	dec    	eax
  0x1e02	mov    	ecx, eax
  0x1e04	mov    	edx, 0x273b
  0x1e09	call   	0x2570
  === BLOCK LINK ===
    0x1e0e
=== CODE BLOCK END ===

=== CODE BLOCK ADDRESS 0x1e0e ===
  0x1e0e	inc    	ecx
  0x1e0f	cmp    	esi, ebp
  0x1e11	jne    	0x1fa5
  === BLOCK LINK ===
    0x1e17
=== CODE BLOCK END ===

=== CODE BLOCK ADDRESS 0x1e17 ===
  0x1e17	inc    	ebp
  0x1e18	test   	dh, dh
  0x1e1a	je     	0x1e2d
  === BLOCK LINK ===
    0x1e1c
=== CODE BLOCK END ===

=== CODE BLOCK ADDRESS 0x1e1c ===
  0x1e1c	mov    	dl, byte ptr [esp + 0x61]
  0x1e20	mov    	ecx, dword ptr [ebp - 0x74]
  0x1e23	call   	0x1124
  === BLOCK LINK ===
    0x1e28
=== CODE BLOCK END ===

=== CODE BLOCK ADDRESS 0x1e28 ===
  0x1e28	jmp    	0x1f5c
  === BLOCK LINK ===
    0x1e2d
=== CODE BLOCK END ===

=== CODE BLOCK ADDRESS 0x1e2d ===
  0x1e2d	mov    	ecx, 1
  0x1e32	call   	0x2e48
  === BLOCK LINK ===
    0x1e37
=== CODE BLOCK END ===

=== CODE BLOCK ADDRESS 0x1e37 ===
  0x1e37	mov    	edx, 0x2728
  0x1e3c	jmp    	0x1f6b
  === BLOCK LINK ===
    0x1e41
=== CODE BLOCK END ===

=== CODE BLOCK ADDRESS 0x1e41 ===
  0x1e41	dec    	eax
  0x1e42	mov    	eax, ebx
  0x1e44	mov    	ebx, dword ptr [0x389a]
  0x1e4a	test   	ebx, ebx
  0x1e4c	jne    	0x1e70
  === BLOCK LINK ===
    0x1e4e
=== CODE BLOCK END ===

=== CODE BLOCK ADDRESS 0x1e4e ===
  0x1e4e	mov    	ecx, dword ptr [0x3894]
  0x1e54	call   	0x11d8
  === BLOCK LINK ===
    0x1e59
=== CODE BLOCK END ===

=== CODE BLOCK ADDRESS 0x1e59 ===
  0x1e59	cmp    	esi, 2
  0x1e5c	je     	0x202b
  === BLOCK LINK ===
    0x1e62
=== CODE BLOCK END ===

=== CODE BLOCK ADDRESS 0x1e62 ===
  0x1e62	mov    	eax, dword ptr [0x3878]
  0x1e68	mov    	dword ptr [ebp - 0x74], eax
  0x1e6b	jmp    	0x1fa2
  === BLOCK LINK ===
    0x1e70
=== CODE BLOCK END ===

=== CODE BLOCK ADDRESS 0x1e70 ===
  0x1e70	cmp    	ebx, 0x2b05
  0x1e76	jne    	0x204e
  === BLOCK LINK ===
    0x1e7c
=== CODE BLOCK END ===

=== CODE BLOCK ADDRESS 0x1e7c ===
  0x1e7c	mov    	ecx, dword ptr [0x3866]
  0x1e82	call   	0x11d8
  === BLOCK LINK ===
    0x1e87
=== CODE BLOCK END ===

=== CODE BLOCK ADDRESS 0x1e87 ===
  0x1e87	cmp    	esi, 2
  0x1e8a	jne    	0x1e62
  === BLOCK LINK ===
    0x1e8c
=== CODE BLOCK END ===

=== CODE BLOCK ADDRESS 0x1e8c ===
  0x1e8c	mov    	dl, byte ptr [esp + 0x61]
  0x1e90	mov    	ecx, dword ptr [0x384a]
  0x1e96	call   	0x1124
  === BLOCK LINK ===
    0x1e9b
=== CODE BLOCK END ===

=== CODE BLOCK ADDRESS 0x1e9b ===
  0x1e9b	lea    	ecx, [esi - 1]
  0x1e9e	call   	0x2e48
  === BLOCK LINK ===
    0x1ea3
=== CODE BLOCK END ===

=== CODE BLOCK ADDRESS 0x1ea3 ===
  0x1ea3	dec    	eax
  0x1ea4	mov    	ecx, eax
  0x1ea6	mov    	edx, 0x273c
  0x1eab	call   	0x2570
  === BLOCK LINK ===
    0x1eb0
=== CODE BLOCK END ===

=== CODE BLOCK ADDRESS 0x1eb0 ===
  0x1eb0	mov    	eax, dword ptr [0x3832]
  0x1eb6	jmp    	0x200c
  === BLOCK LINK ===
    0x1ebb
=== CODE BLOCK END ===

=== CODE BLOCK ADDRESS 0x1ebb ===
  0x1ebb	mov    	dword ptr [esp + 0x58], eax
  0x1ebf	dec    	eax
  0x1ec0	lea    	eax, [esp + 0x70]
  0x1ec4	mov    	dword ptr [esp + 0x50], 0x90
  0x1ecc	dec    	eax
  === BLOCK LINK ===
    0x1ecd
=== CODE BLOCK END ===

=== CODE BLOCK ADDRESS 0x1ecd ===
  0x1ecd	mov    	dword ptr [esp + 0x48], ebx
  0x1ed1	dec    	eax
  0x1ed2	mov    	dword ptr [esp + 0x40], eax
  0x1ed6	mov    	eax, 0x40
  0x1edb	mov    	word ptr [esp + 0x38], ax
  === BLOCK LINK ===
    0x1ee0
=== CODE BLOCK END ===

=== CODE BLOCK ADDRESS 0x1ee0 ===
  0x1ee0	dec    	eax
  0x1ee1	lea    	eax, [0x37b9]
  0x1ee7	dec    	eax
  0x1ee8	mov    	dword ptr [esp + 0x30], eax
  0x1eec	dec    	eax
  === BLOCK LINK ===
    0x1eed
=== CODE BLOCK END ===

=== CODE BLOCK ADDRESS 0x1eed ===
  0x1eed	lea    	eax, [ebp - 0x10]
  0x1ef0	dec    	eax
  0x1ef1	mov    	dword ptr [esp + 0x28], eax
  0x1ef5	dec    	eax
  0x1ef6	lea    	eax, [ebp + 0x70]
  === BLOCK LINK ===
    0x1ef9
=== CODE BLOCK END ===

=== CODE BLOCK ADDRESS 0x1ef9 ===
  0x1ef9	dec    	eax
  0x1efa	mov    	dword ptr [esp + 0x20], eax
  0x1efe	dec    	eax
  0x1eff	call   	dword ptr [0x1243]
  === BLOCK LINK ===
    0x1f05
=== CODE BLOCK END ===

=== CODE BLOCK ADDRESS 0x1f05 ===
  0x1f05	nop    	dword ptr [eax + eax]
  0x1f0a	test   	eax, eax
  0x1f0c	jne    	0x1f75
  === BLOCK LINK ===
    0x1f0e
=== CODE BLOCK END ===

=== CODE BLOCK ADDRESS 0x1f0e ===
  0x1f0e	dec    	eax
  0x1f0f	call   	dword ptr [0x12b3]
  === BLOCK LINK ===
    0x1f15
=== CODE BLOCK END ===

=== CODE BLOCK ADDRESS 0x1f15 ===
  0x1f15	nop    	dword ptr [eax + eax]
  0x1f1a	mov    	ebx, eax
  0x1f1c	dec    	eax
  0x1f1d	mov    	ecx, edi
  0x1f1f	cmp    	eax, 0x2b02
  === BLOCK LINK ===
    0x1f24
=== CODE BLOCK END ===

=== CODE BLOCK ADDRESS 0x1f24 ===
  0x1f24	jne    	0x20c6
  === BLOCK LINK ===
    0x1f2a
=== CODE BLOCK END ===

=== CODE BLOCK ADDRESS 0x1f2a ===
  0x1f2a	mov    	ecx, 1
  0x1f2f	call   	0x2e48
  === BLOCK LINK ===
    0x1f34
=== CODE BLOCK END ===

=== CODE BLOCK ADDRESS 0x1f34 ===
  0x1f34	dec    	eax
  0x1f35	mov    	ecx, eax
  0x1f37	mov    	edx, 0x273b
  0x1f3c	call   	0x2570
  === BLOCK LINK ===
    0x1f41
=== CODE BLOCK END ===

=== CODE BLOCK ADDRESS 0x1f41 ===
  0x1f41	cmp    	esi, 2
  0x1f44	jne    	0x1fa5
  === BLOCK LINK ===
    0x1f46
=== CODE BLOCK END ===

=== CODE BLOCK ADDRESS 0x1f46 ===
  0x1f46	inc    	ebp
  0x1f47	test   	dh, dh
  0x1f49	je     	0x1e2d
  === BLOCK LINK ===
    0x1f4f
=== CODE BLOCK END ===

=== CODE BLOCK ADDRESS 0x1f4f ===
  0x1f4f	mov    	dl, byte ptr [esp + 0x61]
  0x1f53	dec    	eax
  0x1f54	lea    	ecx, [ebp - 0x58]
  0x1f57	call   	0x1178
  === BLOCK LINK ===
    0x1f5c
=== CODE BLOCK END ===

=== CODE BLOCK ADDRESS 0x1f5c ===
  0x1f5c	mov    	ecx, 1
  0x1f61	call   	0x2e48
  === BLOCK LINK ===
    0x1f66
=== CODE BLOCK END ===

=== CODE BLOCK ADDRESS 0x1f66 ===
  0x1f66	mov    	edx, 0x273c
  0x1f6b	dec    	eax
  0x1f6c	mov    	ecx, eax
  0x1f6e	call   	0x2570
  === BLOCK LINK ===
    0x1f73
=== CODE BLOCK END ===

=== CODE BLOCK ADDRESS 0x1f73 ===
  0x1f73	jmp    	0x1fa5
  === BLOCK LINK ===
    0x1f75
=== CODE BLOCK END ===

=== CODE BLOCK ADDRESS 0x1f75 ===
  0x1f75	dec    	eax
  0x1f76	mov    	ecx, ebx
  0x1f78	mov    	ebx, dword ptr [0x377e]
  0x1f7e	test   	ebx, ebx
  0x1f80	jne    	0x1fc5
  === BLOCK LINK ===
    0x1f82
=== CODE BLOCK END ===

=== CODE BLOCK ADDRESS 0x1f82 ===
  0x1f82	mov    	ecx, dword ptr [0x3778]
  0x1f88	call   	0x11d8
  === BLOCK LINK ===
    0x1f8d
=== CODE BLOCK END ===

=== CODE BLOCK ADDRESS 0x1f8d ===
  0x1f8d	cmp    	esi, 2
  0x1f90	je     	0x20b1
  === BLOCK LINK ===
    0x1f96
=== CODE BLOCK END ===

=== CODE BLOCK ADDRESS 0x1f96 ===
  0x1f96	movups  	xmm0, xmmword ptr [0x3749]
  0x1f9d	movdqu  	xmmword ptr [ebp - 0x58], xmm0
  0x1fa2	inc    	ecx
  0x1fa3	mov    	dh, 1
  0x1fa5	inc    	esi
  === BLOCK LINK ===
    0x1fa7
=== CODE BLOCK END ===

=== CODE BLOCK ADDRESS 0x1fa7 ===
  0x1fa7	cmp    	esi, 3
  0x1faa	jl     	0x1d76
  === BLOCK LINK ===
    0x1fb0
=== CODE BLOCK END ===

=== CODE BLOCK ADDRESS 0x1fb0 ===
  0x1fb0	mov    	cl, byte ptr [esp + 0x70]
  0x1fb4	inc    	cl
  0x1fb6	movzx  	eax, cl
  0x1fb9	inc    	ecx
  0x1fba	cmp    	eax, edi
  === BLOCK LINK ===
    0x1fbc
=== CODE BLOCK END ===

=== CODE BLOCK ADDRESS 0x1fbc ===
  0x1fbc	mov    	byte ptr [esp + 0x70], cl
  0x1fc0	jmp    	0x1d46
  === BLOCK LINK ===
    0x1fc5
=== CODE BLOCK END ===

=== CODE BLOCK ADDRESS 0x1fc5 ===
  0x1fc5	cmp    	ebx, 0x2b05
  0x1fcb	jne    	0x20c6
  === BLOCK LINK ===
    0x1fd1
=== CODE BLOCK END ===

=== CODE BLOCK ADDRESS 0x1fd1 ===
  0x1fd1	mov    	ecx, dword ptr [0x3729]
  0x1fd7	call   	0x11d8
  === BLOCK LINK ===
    0x1fdc
=== CODE BLOCK END ===

=== CODE BLOCK ADDRESS 0x1fdc ===
  0x1fdc	cmp    	esi, 2
  0x1fdf	jne    	0x1f96
  === BLOCK LINK ===
    0x1fe1
=== CODE BLOCK END ===

=== CODE BLOCK ADDRESS 0x1fe1 ===
  0x1fe1	mov    	dl, byte ptr [esp + 0x61]
  0x1fe5	dec    	eax
  0x1fe6	lea    	ecx, [0x36fa]
  0x1fec	call   	0x1178
  === BLOCK LINK ===
    0x1ff1
=== CODE BLOCK END ===

=== CODE BLOCK ADDRESS 0x1ff1 ===
  0x1ff1	lea    	ecx, [esi - 1]
  0x1ff4	call   	0x2e48
  === BLOCK LINK ===
    0x1ff9
=== CODE BLOCK END ===

=== CODE BLOCK ADDRESS 0x1ff9 ===
  0x1ff9	dec    	eax
  0x1ffa	mov    	ecx, eax
  0x1ffc	mov    	edx, 0x273c
  0x2001	call   	0x2570
  === BLOCK LINK ===
    0x2006
=== CODE BLOCK END ===

=== CODE BLOCK ADDRESS 0x2006 ===
  0x2006	mov    	eax, dword ptr [0x36f4]
  0x200c	cmp    	eax, 0x3e8
  0x2011	jae    	0x1fa5
  === BLOCK LINK ===
    0x2013
=== CODE BLOCK END ===

=== CODE BLOCK ADDRESS 0x2013 ===
  0x2013	mov    	ecx, 0x3e8
  0x2018	sub    	ecx, eax
  0x201a	dec    	eax
  0x201b	call   	dword ptr [0x128f]
  === BLOCK LINK ===
    0x2021
=== CODE BLOCK END ===

=== CODE BLOCK ADDRESS 0x2021 ===
  0x2021	nop    	dword ptr [eax + eax]
  0x2026	jmp    	0x1fa5
  === BLOCK LINK ===
    0x202b
=== CODE BLOCK END ===

=== CODE BLOCK ADDRESS 0x202b ===
  0x202b	mov    	dl, byte ptr [esp + 0x61]
  0x202f	mov    	ecx, dword ptr [0x36ab]
  0x2035	call   	0x1124
  === BLOCK LINK ===
    0x203a
=== CODE BLOCK END ===

=== CODE BLOCK ADDRESS 0x203a ===
  0x203a	mov    	ecx, 1
  0x203f	call   	0x2e48
  === BLOCK LINK ===
    0x2044
=== CODE BLOCK END ===

=== CODE BLOCK ADDRESS 0x2044 ===
  0x2044	mov    	edx, 0x273c
  0x2049	jmp    	0x214b
  === BLOCK LINK ===
    0x204e
=== CODE BLOCK END ===

=== CODE BLOCK ADDRESS 0x204e ===
  0x204e	cmp    	ebx, 0x2af8
  0x2054	jb     	0x20ce
  === BLOCK LINK ===
    0x2056
=== CODE BLOCK END ===

=== CODE BLOCK ADDRESS 0x2056 ===
  0x2056	dec    	eax
  0x2057	test   	eax, eax
  0x2059	je     	0x207d
  === BLOCK LINK ===
    0x205b
=== CODE BLOCK END ===

=== CODE BLOCK ADDRESS 0x205b ===
  0x205b	mov    	dl, byte ptr [esp + 0x61]
  0x205f	mov    	ecx, dword ptr [eax]
  0x2061	call   	0x1124
  === BLOCK LINK ===
    0x2066
=== CODE BLOCK END ===

=== CODE BLOCK ADDRESS 0x2066 ===
  0x2066	mov    	ecx, 1
  0x206b	call   	0x2e48
  === BLOCK LINK ===
    0x2070
=== CODE BLOCK END ===

=== CODE BLOCK ADDRESS 0x2070 ===
  0x2070	dec    	eax
  0x2071	mov    	ecx, eax
  0x2073	mov    	edx, 0x2719
  0x2078	call   	0x2570
  === BLOCK LINK ===
    0x207d
=== CODE BLOCK END ===

=== CODE BLOCK ADDRESS 0x207d ===
  0x207d	mov    	eax, dword ptr [0x2f9d]
  0x2083	dec    	eax
  0x2084	lea    	esi, [0x2f96]
  0x208a	cmp    	eax, ebx
  0x208c	je     	0x213a
  === BLOCK LINK ===
    0x2092
=== CODE BLOCK END ===

=== CODE BLOCK ADDRESS 0x2092 ===
  0x2092	dec    	eax
  0x2093	mov    	ecx, edi
  0x2095	cmp    	eax, 0x2b2a
  0x209a	je     	0x213a
  === BLOCK LINK ===
    0x20a0
=== CODE BLOCK END ===

=== CODE BLOCK ADDRESS 0x20a0 ===
  0x20a0	dec    	eax
  0x20a1	inc    	ecx
  0x20a3	inc    	edi
  0x20a5	mov    	eax, dword ptr [esi + ecx*8]
  0x20a8	cmp    	eax, ebx
  === BLOCK LINK ===
    0x20aa
=== CODE BLOCK END ===

=== CODE BLOCK ADDRESS 0x20aa ===
  0x20aa	jne    	0x2095
  === BLOCK LINK ===
    0x20ac
=== CODE BLOCK END ===

=== CODE BLOCK ADDRESS 0x20ac ===
  0x20ac	jmp    	0x213a
  === BLOCK LINK ===
    0x20b1
=== CODE BLOCK END ===

=== CODE BLOCK ADDRESS 0x20b1 ===
  0x20b1	mov    	dl, byte ptr [esp + 0x61]
  0x20b5	dec    	eax
  0x20b6	lea    	ecx, [0x362a]
  0x20bc	call   	0x1178
  === BLOCK LINK ===
    0x20c1
=== CODE BLOCK END ===

=== CODE BLOCK ADDRESS 0x20c1 ===
  0x20c1	jmp    	0x203a
  === BLOCK LINK ===
    0x20c6
=== CODE BLOCK END ===

=== CODE BLOCK ADDRESS 0x20c6 ===
  0x20c6	cmp    	ebx, 0x2af8
  0x20cc	jae    	0x20ea
  === BLOCK LINK ===
    0x20ce
=== CODE BLOCK END ===

=== CODE BLOCK ADDRESS 0x20ce ===
  0x20ce	mov    	ecx, 1
  0x20d3	call   	0x2e48
  === BLOCK LINK ===
    0x20d8
=== CODE BLOCK END ===

=== CODE BLOCK ADDRESS 0x20d8 ===
  0x20d8	dec    	eax
  0x20d9	mov    	ecx, eax
  0x20db	inc    	esp
  0x20dc	mov    	eax, ebx
  0x20de	mov    	edx, 0x271a
  === BLOCK LINK ===
    0x20e3
=== CODE BLOCK END ===

=== CODE BLOCK ADDRESS 0x20e3 ===
  0x20e3	call   	0x2570
  === BLOCK LINK ===
    0x20e8
=== CODE BLOCK END ===

=== CODE BLOCK ADDRESS 0x20e8 ===
  0x20e8	jmp    	0x2153
  === BLOCK LINK ===
    0x20ea
=== CODE BLOCK END ===

=== CODE BLOCK ADDRESS 0x20ea ===
  0x20ea	dec    	eax
  0x20eb	test   	ecx, ecx
  0x20ed	je     	0x2113
  === BLOCK LINK ===
    0x20ef
=== CODE BLOCK END ===

=== CODE BLOCK ADDRESS 0x20ef ===
  0x20ef	mov    	dl, byte ptr [esp + 0x61]
  0x20f3	dec    	eax
  0x20f4	add    	ecx, 6
  0x20f7	call   	0x1178
  === BLOCK LINK ===
    0x20fc
=== CODE BLOCK END ===

=== CODE BLOCK ADDRESS 0x20fc ===
  0x20fc	mov    	ecx, 1
  0x2101	call   	0x2e48
  === BLOCK LINK ===
    0x2106
=== CODE BLOCK END ===

=== CODE BLOCK ADDRESS 0x2106 ===
  0x2106	dec    	eax
  0x2107	mov    	ecx, eax
  0x2109	mov    	edx, 0x2719
  0x210e	call   	0x2570
  === BLOCK LINK ===
    0x2113
=== CODE BLOCK END ===

=== CODE BLOCK ADDRESS 0x2113 ===
  0x2113	mov    	eax, dword ptr [0x2f07]
  0x2119	dec    	eax
  0x211a	lea    	esi, [0x2f00]
  0x2120	cmp    	eax, ebx
  0x2122	je     	0x213a
  === BLOCK LINK ===
    0x2124
=== CODE BLOCK END ===

=== CODE BLOCK ADDRESS 0x2124 ===
  0x2124	dec    	eax
  0x2125	mov    	ecx, edi
  0x2127	cmp    	eax, 0x2b2a
  0x212c	je     	0x213a
  === BLOCK LINK ===
    0x212e
=== CODE BLOCK END ===

=== CODE BLOCK ADDRESS 0x212e ===
  0x212e	dec    	eax
  0x212f	inc    	ecx
  0x2131	inc    	edi
  0x2133	mov    	eax, dword ptr [esi + ecx*8]
  0x2136	cmp    	eax, ebx
  === BLOCK LINK ===
    0x2138
=== CODE BLOCK END ===

=== CODE BLOCK ADDRESS 0x2138 ===
  0x2138	jne    	0x2127
  === BLOCK LINK ===
    0x213a
=== CODE BLOCK END ===

=== CODE BLOCK ADDRESS 0x213a ===
  0x213a	mov    	ecx, 1
  0x213f	dec    	eax
  0x2140	arpl   	di, bx
  0x2142	call   	0x2e48
  === BLOCK LINK ===
    0x2147
=== CODE BLOCK END ===

=== CODE BLOCK ADDRESS 0x2147 ===
  0x2147	mov    	edx, dword ptr [esi + ebx*8 + 4]
  0x214b	dec    	eax
  0x214c	mov    	ecx, eax
  0x214e	call   	0x2570
  === BLOCK LINK ===
    0x2153
=== CODE BLOCK END ===

=== CODE BLOCK ADDRESS 0x2153 ===
  0x2153	mov    	ecx, 1
  0x2158	call   	0x2e48
  === BLOCK LINK ===
    0x215d
=== CODE BLOCK END ===

=== CODE BLOCK ADDRESS 0x215d ===
  0x215d	dec    	eax
  0x215e	mov    	ecx, eax
  0x2160	mov    	edx, 0x271b
  0x2165	call   	0x2570
  === BLOCK LINK ===
    0x216a
=== CODE BLOCK END ===

=== CODE BLOCK ADDRESS 0x216a ===
  0x216a	dec    	ecx
  0x216b	mov    	ecx, esp
  0x216d	dec    	eax
  0x216e	call   	dword ptr [0xfc4]
  === BLOCK LINK ===
    0x2174
=== CODE BLOCK END ===

=== CODE BLOCK ADDRESS 0x2174 ===
  0x2174	nop    	dword ptr [eax + eax]
  0x2179	dec    	eax
  0x217a	call   	dword ptr [0xfe8]
  === BLOCK LINK ===
    0x2180
=== CODE BLOCK END ===

=== CODE BLOCK ADDRESS 0x2180 ===
  0x2180	nop    	dword ptr [eax + eax]
  0x2185	xor    	eax, eax
  0x2187	jmp    	0x175f
  === BLOCK LINK ===
    0x218c
=== CODE BLOCK END ===

=== CODE BLOCK ADDRESS 0x218c ===
  0x218c	int3   	
  0x218d	int3   	
  0x218e	int3   	
  0x218f	int3   	
  0x2190	int3   	
  === BLOCK LINK ===
    0x2191
=== CODE BLOCK END ===

=== CODE BLOCK ADDRESS 0x2191 ===
  0x2191	int3   	
  0x2192	int3   	
  0x2193	int3   	
  0x2194	dec    	eax
  0x2195	mov    	dword ptr [esp + 8], ebx
  === BLOCK LINK ===
    0x2199
=== CODE BLOCK END ===

=== CODE BLOCK ADDRESS 0x2199 ===
  0x2199	dec    	eax
  0x219a	mov    	dword ptr [esp + 0x10], ebp
  0x219e	dec    	eax
  0x219f	mov    	dword ptr [esp + 0x20], esi
  0x21a3	push   	edi
  === BLOCK LINK ===
    0x21a4
=== CODE BLOCK END ===

=== CODE BLOCK ADDRESS 0x21a4 ===
  0x21a4	dec    	eax
  0x21a5	sub    	esp, 0x20
  0x21a8	dec    	eax
  0x21a9	mov    	esi, ecx
  0x21ab	dec    	eax
  === BLOCK LINK ===
    0x21ac
=== CODE BLOCK END ===

=== CODE BLOCK ADDRESS 0x21ac ===
  0x21ac	mov    	ebp, edx
  0x21ae	dec    	eax
  0x21af	mov    	ecx, edx
  0x21b1	dec    	eax
  0x21b2	call   	dword ptr [0x1020]
  === BLOCK LINK ===
    0x21b8
=== CODE BLOCK END ===

=== CODE BLOCK ADDRESS 0x21b8 ===
  0x21b8	nop    	dword ptr [eax + eax]
  0x21bd	xor    	ebx, ebx
  0x21bf	mov    	edi, eax
  0x21c1	test   	eax, eax
  0x21c3	jne    	0x21e3
  === BLOCK LINK ===
    0x21c5
=== CODE BLOCK END ===

=== CODE BLOCK ADDRESS 0x21c5 ===
  0x21c5	dec    	eax
  0x21c6	call   	dword ptr [0xffc]
  === BLOCK LINK ===
    0x21cc
=== CODE BLOCK END ===

=== CODE BLOCK ADDRESS 0x21cc ===
  0x21cc	nop    	dword ptr [eax + eax]
  0x21d1	test   	eax, eax
  0x21d3	je     	0x21e3
  === BLOCK LINK ===
    0x21d5
=== CODE BLOCK END ===

=== CODE BLOCK ADDRESS 0x21d5 ===
  0x21d5	dec    	eax
  0x21d6	call   	dword ptr [0xfec]
  === BLOCK LINK ===
    0x21dc
=== CODE BLOCK END ===

=== CODE BLOCK ADDRESS 0x21dc ===
  0x21dc	nop    	dword ptr [eax + eax]
  0x21e1	jmp    	0x221e
  === BLOCK LINK ===
    0x21e3
=== CODE BLOCK END ===

=== CODE BLOCK ADDRESS 0x21e3 ===
  0x21e3	btr    	edi, 0xf
  0x21e7	cmp    	edi, 2
  0x21ea	jne    	0x221a
  === BLOCK LINK ===
    0x21ec
=== CODE BLOCK END ===

=== CODE BLOCK ADDRESS 0x21ec ===
  0x21ec	dec    	eax
  0x21ed	lea    	edx, [esp + 0x40]
  0x21f1	dec    	eax
  0x21f2	mov    	ecx, ebp
  0x21f4	dec    	eax
  === BLOCK LINK ===
    0x21f5
=== CODE BLOCK END ===

=== CODE BLOCK ADDRESS 0x21f5 ===
  0x21f5	call   	dword ptr [0xfad]
  === BLOCK LINK ===
    0x21fb
=== CODE BLOCK END ===

=== CODE BLOCK ADDRESS 0x21fb ===
  0x21fb	nop    	dword ptr [eax + eax]
  0x2200	test   	eax, eax
  0x2202	jne    	0x2215
  === BLOCK LINK ===
    0x2204
=== CODE BLOCK END ===

=== CODE BLOCK ADDRESS 0x2204 ===
  0x2204	dec    	eax
  0x2205	call   	dword ptr [0xfbd]
  === BLOCK LINK ===
    0x220b
=== CODE BLOCK END ===

=== CODE BLOCK ADDRESS 0x220b ===
  0x220b	nop    	dword ptr [eax + eax]
  0x2210	cmp    	eax, 6
  0x2213	je     	0x221a
  === BLOCK LINK ===
    0x2215
=== CODE BLOCK END ===

=== CODE BLOCK ADDRESS 0x2215 ===
  0x2215	mov    	ebx, 1
  0x221a	mov    	dword ptr [esi], ebx
  0x221c	xor    	eax, eax
  0x221e	dec    	eax
  0x221f	mov    	ebx, dword ptr [esp + 0x30]
  === BLOCK LINK ===
    0x2223
=== CODE BLOCK END ===

=== CODE BLOCK ADDRESS 0x2223 ===
  0x2223	dec    	eax
  0x2224	mov    	ebp, dword ptr [esp + 0x38]
  0x2228	dec    	eax
  0x2229	mov    	esi, dword ptr [esp + 0x48]
  0x222d	dec    	eax
  === BLOCK LINK ===
    0x222e
=== CODE BLOCK END ===

=== CODE BLOCK ADDRESS 0x222e ===
  0x222e	add    	esp, 0x20
  0x2231	pop    	edi
  0x2232	ret    	
  0x2233	int3   	
  0x2234	int3   	
  === BLOCK LINK ===
    0x2235
=== CODE BLOCK END ===

=== CODE BLOCK ADDRESS 0x2235 ===
  0x2235	int3   	
  0x2236	int3   	
  0x2237	int3   	
  0x2238	int3   	
  0x2239	int3   	
  === BLOCK LINK ===
    0x223a
=== CODE BLOCK END ===

=== CODE BLOCK ADDRESS 0x223a ===
  0x223a	int3   	
  0x223b	int3   	
  0x223c	dec    	eax
  0x223d	mov    	dword ptr [esp + 0x18], ebx
  0x2241	push   	edi
  === BLOCK LINK ===
    0x2242
=== CODE BLOCK END ===

=== CODE BLOCK ADDRESS 0x2242 ===
  0x2242	dec    	eax
  0x2243	sub    	esp, 0x20
  0x2246	dec    	eax
  0x2247	mov    	ebx, edx
  0x2249	dec    	eax
  === BLOCK LINK ===
    0x224a
=== CODE BLOCK END ===

=== CODE BLOCK ADDRESS 0x224a ===
  0x224a	mov    	edi, ecx
  0x224c	inc    	ecx
  0x224d	cmp    	eax, 0x4f
  0x2250	jae    	0x22cb
  === BLOCK LINK ===
    0x2252
=== CODE BLOCK END ===

=== CODE BLOCK ADDRESS 0x2252 ===
  0x2252	dec    	eax
  0x2253	lea    	edx, [0x1217]
  0x2259	dec    	eax
  0x225a	mov    	ecx, ebx
  0x225c	dec    	eax
  === BLOCK LINK ===
    0x225d
=== CODE BLOCK END ===

=== CODE BLOCK ADDRESS 0x225d ===
  0x225d	call   	dword ptr [0x1105]
  === BLOCK LINK ===
    0x2263
=== CODE BLOCK END ===

=== CODE BLOCK ADDRESS 0x2263 ===
  0x2263	nop    	dword ptr [eax + eax]
  0x2268	test   	eax, eax
  0x226a	jne    	0x2273
  === BLOCK LINK ===
    0x226c
=== CODE BLOCK END ===

=== CODE BLOCK ADDRESS 0x226c ===
  0x226c	mov    	eax, 1
  0x2271	jmp    	0x22cd
  === BLOCK LINK ===
    0x2273
=== CODE BLOCK END ===

=== CODE BLOCK ADDRESS 0x2273 ===
  0x2273	dec    	eax
  0x2274	lea    	edx, [0x1206]
  0x227a	dec    	eax
  0x227b	mov    	ecx, ebx
  0x227d	dec    	eax
  === BLOCK LINK ===
    0x227e
=== CODE BLOCK END ===

=== CODE BLOCK ADDRESS 0x227e ===
  0x227e	call   	dword ptr [0x10e4]
  === BLOCK LINK ===
    0x2284
=== CODE BLOCK END ===

=== CODE BLOCK ADDRESS 0x2284 ===
  0x2284	nop    	dword ptr [eax + eax]
  0x2289	test   	eax, eax
  0x228b	jne    	0x2291
  === BLOCK LINK ===
    0x228d
=== CODE BLOCK END ===

=== CODE BLOCK ADDRESS 0x228d ===
  0x228d	and    	dword ptr [edi], eax
  0x228f	jmp    	0x22cb
  === BLOCK LINK ===
    0x2291
=== CODE BLOCK END ===

=== CODE BLOCK ADDRESS 0x2291 ===
  0x2291	dec    	eax
  0x2292	lea    	edx, [0x11f8]
  0x2298	dec    	eax
  0x2299	mov    	ecx, ebx
  0x229b	dec    	eax
  === BLOCK LINK ===
    0x229c
=== CODE BLOCK END ===

=== CODE BLOCK ADDRESS 0x229c ===
  0x229c	call   	dword ptr [0x10c6]
  === BLOCK LINK ===
    0x22a2
=== CODE BLOCK END ===

=== CODE BLOCK ADDRESS 0x22a2 ===
  0x22a2	nop    	dword ptr [eax + eax]
  0x22a7	test   	eax, eax
  0x22a9	je     	0x22c5
  === BLOCK LINK ===
    0x22ab
=== CODE BLOCK END ===

=== CODE BLOCK ADDRESS 0x22ab ===
  0x22ab	dec    	eax
  0x22ac	lea    	edx, [0x11ee]
  0x22b2	dec    	eax
  0x22b3	mov    	ecx, ebx
  0x22b5	dec    	eax
  === BLOCK LINK ===
    0x22b6
=== CODE BLOCK END ===

=== CODE BLOCK ADDRESS 0x22b6 ===
  0x22b6	call   	dword ptr [0x10ac]
  === BLOCK LINK ===
    0x22bc
=== CODE BLOCK END ===

=== CODE BLOCK ADDRESS 0x22bc ===
  0x22bc	nop    	dword ptr [eax + eax]
  0x22c1	test   	eax, eax
  0x22c3	jne    	0x22cb
  === BLOCK LINK ===
    0x22c5
=== CODE BLOCK END ===

=== CODE BLOCK ADDRESS 0x22c5 ===
  0x22c5	mov    	dword ptr [edi], 0xfde9
  0x22cb	xor    	eax, eax
  0x22cd	dec    	eax
  0x22ce	mov    	ebx, dword ptr [esp + 0x40]
  0x22d2	dec    	eax
  === BLOCK LINK ===
    0x22d3
=== CODE BLOCK END ===

=== CODE BLOCK ADDRESS 0x22d3 ===
  0x22d3	add    	esp, 0x20
  0x22d6	pop    	edi
  0x22d7	ret    	
  0x22d8	int3   	
  0x22d9	int3   	
  === BLOCK LINK ===
    0x22da
=== CODE BLOCK END ===

=== CODE BLOCK ADDRESS 0x10f5 ===
=== CODE BLOCK END ===

=== CODE BLOCK ADDRESS 0x22da ===
  0x22da	int3   	
  0x22db	int3   	
  0x22dc	int3   	
  0x22dd	int3   	
  0x22de	int3   	
  === BLOCK LINK ===
    0x22df
=== CODE BLOCK END ===

=== CODE BLOCK ADDRESS 0x22df ===
  0x22df	int3   	
  0x22e0	dec    	eax
  0x22e1	mov    	dword ptr [esp + 0x18], ebx
  0x22e5	dec    	eax
  0x22e6	mov    	dword ptr [esp + 0x20], ebp
  === BLOCK LINK ===
    0x22ea
=== CODE BLOCK END ===

=== CODE BLOCK ADDRESS 0x22ea ===
  0x22ea	push   	esi
  0x22eb	push   	edi
  0x22ec	inc    	ecx
  0x22ed	push   	esp
  0x22ee	inc    	ecx
  === BLOCK LINK ===
    0x22ef
=== CODE BLOCK END ===

=== CODE BLOCK ADDRESS 0x22ef ===
  0x22ef	push   	esi
  0x22f0	inc    	ecx
  0x22f1	push   	edi
  0x22f2	dec    	eax
  0x22f3	sub    	esp, 0x100
  === BLOCK LINK ===
    0x22f9
=== CODE BLOCK END ===

=== CODE BLOCK ADDRESS 0x22f9 ===
  0x22f9	dec    	eax
  0x22fa	mov    	eax, dword ptr [0x2d08]
  0x2300	dec    	eax
  0x2301	xor    	eax, esp
  0x2303	dec    	eax
  === BLOCK LINK ===
    0x2304
=== CODE BLOCK END ===

=== CODE BLOCK ADDRESS 0x2304 ===
  0x2304	mov    	dword ptr [esp + 0xf0], eax
  0x230b	inc    	ebp
  0x230c	xor    	esi, esi
  0x230e	dec    	esp
  0x230f	mov    	edi, edx
  === BLOCK LINK ===
    0x2311
=== CODE BLOCK END ===

=== CODE BLOCK ADDRESS 0x2311 ===
  0x2311	dec    	eax
  0x2312	mov    	edi, ecx
  0x2314	xor    	esi, esi
  0x2316	inc    	ebp
  0x2317	lea    	esp, [esi + 1]
  === BLOCK LINK ===
    0x231a
=== CODE BLOCK END ===

=== CODE BLOCK ADDRESS 0x231a ===
  0x231a	inc    	ecx
  0x231b	mov    	ebx, esp
  0x231d	mov    	dword ptr [esp + 0x40], ebx
  0x2321	dec    	eax
  0x2322	call   	dword ptr [0xfd8]
  === BLOCK LINK ===
    0x2328
=== CODE BLOCK END ===

=== CODE BLOCK ADDRESS 0x2328 ===
  0x2328	nop    	dword ptr [eax + eax]
  0x232d	dec    	eax
  0x232e	mov    	ecx, edi
  0x2330	dec    	eax
  0x2331	call   	dword ptr [0xfe1]
  === BLOCK LINK ===
    0x2337
=== CODE BLOCK END ===

=== CODE BLOCK ADDRESS 0x2337 ===
  0x2337	nop    	dword ptr [eax + eax]
  0x233c	mov    	ecx, eax
  0x233e	dec    	eax
  0x233f	call   	dword ptr [0xfab]
  === BLOCK LINK ===
    0x2345
=== CODE BLOCK END ===

=== CODE BLOCK ADDRESS 0x2345 ===
  0x2345	nop    	dword ptr [eax + eax]
  0x234a	dec    	eax
  0x234b	cmp    	eax, -1
  0x234e	je     	0x2369
  === BLOCK LINK ===
    0x2350
=== CODE BLOCK END ===

=== CODE BLOCK ADDRESS 0x2350 ===
  0x2350	dec    	eax
  0x2351	mov    	edx, eax
  0x2353	dec    	eax
  0x2354	lea    	ecx, [esp + 0x40]
  0x2358	call   	0x2194
  === BLOCK LINK ===
    0x235d
=== CODE BLOCK END ===

=== CODE BLOCK ADDRESS 0x235d ===
  0x235d	mov    	ebx, dword ptr [esp + 0x40]
  0x2361	test   	eax, eax
  0x2363	jne    	0x2369
  === BLOCK LINK ===
    0x2365
=== CODE BLOCK END ===

=== CODE BLOCK ADDRESS 0x2365 ===
  0x2365	test   	ebx, ebx
  0x2367	je     	0x238e
  === BLOCK LINK ===
    0x2369
=== CODE BLOCK END ===

=== CODE BLOCK ADDRESS 0x2369 ===
  0x2369	dec    	eax
  0x236a	mov    	ecx, edi
  0x236c	dec    	eax
  0x236d	call   	dword ptr [0xfa5]
  === BLOCK LINK ===
    0x2373
=== CODE BLOCK END ===

=== CODE BLOCK ADDRESS 0x2373 ===
  0x2373	nop    	dword ptr [eax + eax]
  0x2378	mov    	ecx, eax
  0x237a	mov    	edx, 0x20000
  0x237f	dec    	eax
  0x2380	call   	dword ptr [0xf82]
  === BLOCK LINK ===
    0x2386
=== CODE BLOCK END ===

=== CODE BLOCK ADDRESS 0x2386 ===
  0x2386	nop    	dword ptr [eax + eax]
  0x238b	inc    	esp
  0x238c	mov    	esi, eax
  0x238e	inc    	ecx
  0x238f	mov    	eax, 0x50
  === BLOCK LINK ===
    0x2394
=== CODE BLOCK END ===

=== CODE BLOCK ADDRESS 0x2394 ===
  0x2394	dec    	eax
  0x2395	lea    	edx, [esp + 0x50]
  0x2399	dec    	eax
  0x239a	lea    	ecx, [0x10b0]
  0x23a0	dec    	eax
  === BLOCK LINK ===
    0x23a1
=== CODE BLOCK END ===

=== CODE BLOCK ADDRESS 0x23a1 ===
  0x23a1	call   	dword ptr [0xe91]
  === BLOCK LINK ===
    0x23a7
=== CODE BLOCK END ===

=== CODE BLOCK ADDRESS 0x23a7 ===
  0x23a7	nop    	dword ptr [eax + eax]
  0x23ac	inc    	esp
  0x23ad	mov    	dword ptr [esp + 0x40], esp
  0x23b1	test   	eax, eax
  0x23b3	je     	0x23d0
  === BLOCK LINK ===
    0x23b5
=== CODE BLOCK END ===

=== CODE BLOCK ADDRESS 0x23b5 ===
  0x23b5	inc    	esp
  0x23b6	mov    	eax, eax
  0x23b8	dec    	eax
  0x23b9	lea    	edx, [esp + 0x50]
  0x23bd	dec    	eax
  === BLOCK LINK ===
    0x23be
=== CODE BLOCK END ===

=== CODE BLOCK ADDRESS 0x23be ===
  0x23be	lea    	ecx, [esp + 0x40]
  0x23c2	call   	0x223c
  === BLOCK LINK ===
    0x23c7
=== CODE BLOCK END ===

=== CODE BLOCK ADDRESS 0x23c7 ===
  0x23c7	inc    	esp
  0x23c8	mov    	esp, dword ptr [esp + 0x40]
  0x23cc	mov    	ebp, eax
  0x23ce	jmp    	0x23d2
  === BLOCK LINK ===
    0x23d0
=== CODE BLOCK END ===

=== CODE BLOCK ADDRESS 0x23d0 ===
  0x23d0	xor    	ebp, ebp
  0x23d2	test   	ebx, ebx
  0x23d4	jne    	0x24e1
  === BLOCK LINK ===
    0x23da
=== CODE BLOCK END ===

=== CODE BLOCK ADDRESS 0x23da ===
  0x23da	lea    	edx, [ebx + 0xd]
  0x23dd	dec    	ecx
  0x23de	mov    	ecx, edi
  0x23e0	dec    	eax
  0x23e1	call   	dword ptr [0xf39]
  === BLOCK LINK ===
    0x23e7
=== CODE BLOCK END ===

=== CODE BLOCK ADDRESS 0x23e7 ===
  0x23e7	nop    	dword ptr [eax + eax]
  0x23ec	dec    	eax
  0x23ed	mov    	ecx, edi
  0x23ef	dec    	eax
  0x23f0	test   	eax, eax
  === BLOCK LINK ===
    0x23f2
=== CODE BLOCK END ===

=== CODE BLOCK ADDRESS 0x23f2 ===
  0x23f2	je     	0x2407
  === BLOCK LINK ===
    0x23f4
=== CODE BLOCK END ===

=== CODE BLOCK ADDRESS 0x23f4 ===
  0x23f4	dec    	eax
  0x23f5	call   	dword ptr [0xf1d]
  === BLOCK LINK ===
    0x23fb
=== CODE BLOCK END ===

=== CODE BLOCK ADDRESS 0x23fb ===
  0x23fb	nop    	dword ptr [eax + eax]
  0x2400	mov    	edx, 0x8000
  0x2405	jmp    	0x2425
  === BLOCK LINK ===
    0x2407
=== CODE BLOCK END ===

=== CODE BLOCK ADDRESS 0x2407 ===
  0x2407	mov    	eax, ebp
  0x2409	neg    	eax
  0x240b	sbb    	ebx, ebx
  0x240d	and    	ebx, 0x1c000
  0x2413	dec    	eax
  === BLOCK LINK ===
    0x2414
=== CODE BLOCK END ===

=== CODE BLOCK ADDRESS 0x2414 ===
  0x2414	call   	dword ptr [0xefe]
  === BLOCK LINK ===
    0x241a
=== CODE BLOCK END ===

=== CODE BLOCK ADDRESS 0x241a ===
  0x241a	nop    	dword ptr [eax + eax]
  0x241f	lea    	edx, [ebx + 0x4000]
  0x2425	mov    	ecx, eax
  0x2427	dec    	eax
  0x2428	call   	dword ptr [0xeda]
  === BLOCK LINK ===
    0x242e
=== CODE BLOCK END ===

=== CODE BLOCK ADDRESS 0x242e ===
  0x242e	nop    	dword ptr [eax + eax]
  0x2433	inc    	esp
  0x2434	mov    	esi, eax
  0x2436	test   	ebp, ebp
  0x2438	jne    	0x24e1
  === BLOCK LINK ===
    0x243e
=== CODE BLOCK END ===

=== CODE BLOCK ADDRESS 0x243e ===
  0x243e	dec    	eax
  0x243f	and    	dword ptr [esp + 0x38], esi
  0x2443	inc    	ecx
  0x2444	or     	ecx, 0xffffffff
  0x2447	dec    	eax
  === BLOCK LINK ===
    0x2448
=== CODE BLOCK END ===

=== CODE BLOCK ADDRESS 0x2448 ===
  0x2448	and    	dword ptr [esp + 0x30], esi
  0x244c	dec    	ebp
  0x244d	mov    	eax, edi
  0x244f	and    	dword ptr [esp + 0x28], esi
  0x2453	xor    	edx, edx
  === BLOCK LINK ===
    0x2455
=== CODE BLOCK END ===

=== CODE BLOCK ADDRESS 0x2455 ===
  0x2455	dec    	eax
  0x2456	and    	dword ptr [esp + 0x20], esi
  0x245a	inc    	ecx
  0x245b	mov    	ecx, esp
  0x245d	dec    	eax
  === BLOCK LINK ===
    0x245e
=== CODE BLOCK END ===

=== CODE BLOCK ADDRESS 0x245e ===
  0x245e	call   	dword ptr [0xe3c]
  === BLOCK LINK ===
    0x2464
=== CODE BLOCK END ===

=== CODE BLOCK ADDRESS 0x2464 ===
  0x2464	nop    	dword ptr [eax + eax]
  0x2469	dec    	eax
  0x246a	arpl   	ax, bx
  0x246c	test   	eax, eax
  0x246e	je     	0x24fa
  === BLOCK LINK ===
    0x2474
=== CODE BLOCK END ===

=== CODE BLOCK ADDRESS 0x2474 ===
  0x2474	dec    	eax
  0x2475	mov    	edx, ebx
  0x2477	lea    	ecx, [ebp + 0x40]
  0x247a	dec    	eax
  0x247b	call   	dword ptr [0xd77]
  === BLOCK LINK ===
    0x2481
=== CODE BLOCK END ===

=== CODE BLOCK ADDRESS 0x2481 ===
  0x2481	nop    	dword ptr [eax + eax]
  0x2486	dec    	eax
  0x2487	mov    	esi, eax
  0x2489	dec    	eax
  0x248a	test   	eax, eax
  === BLOCK LINK ===
    0x248c
=== CODE BLOCK END ===

=== CODE BLOCK ADDRESS 0x248c ===
  0x248c	je     	0x24fa
  === BLOCK LINK ===
    0x248e
=== CODE BLOCK END ===

=== CODE BLOCK ADDRESS 0x248e ===
  0x248e	dec    	eax
  0x248f	and    	dword ptr [esp + 0x38], 0
  0x2494	inc    	ecx
  0x2495	or     	ecx, 0xffffffff
  0x2498	dec    	eax
  === BLOCK LINK ===
    0x2499
=== CODE BLOCK END ===

=== CODE BLOCK ADDRESS 0x2499 ===
  0x2499	and    	dword ptr [esp + 0x30], 0
  0x249e	dec    	ebp
  0x249f	mov    	eax, edi
  0x24a1	mov    	dword ptr [esp + 0x28], ebx
  0x24a5	xor    	edx, edx
  === BLOCK LINK ===
    0x24a7
=== CODE BLOCK END ===

=== CODE BLOCK ADDRESS 0x24a7 ===
  0x24a7	inc    	ecx
  0x24a8	mov    	ecx, esp
  0x24aa	dec    	eax
  0x24ab	mov    	dword ptr [esp + 0x20], eax
  0x24af	dec    	eax
  === BLOCK LINK ===
    0x24b0
=== CODE BLOCK END ===

=== CODE BLOCK ADDRESS 0x24b0 ===
  0x24b0	call   	dword ptr [0xdea]
  === BLOCK LINK ===
    0x24b6
=== CODE BLOCK END ===

=== CODE BLOCK ADDRESS 0x24b6 ===
  0x24b6	nop    	dword ptr [eax + eax]
  0x24bb	dec    	eax
  0x24bc	mov    	ecx, edi
  0x24be	dec    	eax
  0x24bf	call   	dword ptr [0xe53]
  === BLOCK LINK ===
    0x24c5
=== CODE BLOCK END ===

=== CODE BLOCK ADDRESS 0x24c5 ===
  0x24c5	nop    	dword ptr [eax + eax]
  0x24ca	inc    	esp
  0x24cb	lea    	eax, [ebx - 1]
  0x24ce	dec    	eax
  0x24cf	mov    	edx, esi
  === BLOCK LINK ===
    0x24d1
=== CODE BLOCK END ===

=== CODE BLOCK ADDRESS 0x24d1 ===
  0x24d1	mov    	ecx, eax
  0x24d3	dec    	eax
  0x24d4	call   	dword ptr [0xe36]
  === BLOCK LINK ===
    0x24da
=== CODE BLOCK END ===

=== CODE BLOCK ADDRESS 0x24da ===
  0x24da	nop    	dword ptr [eax + eax]
  0x24df	jmp    	0x24fa
  === BLOCK LINK ===
    0x24e1
=== CODE BLOCK END ===

=== CODE BLOCK ADDRESS 0x24e1 ===
  0x24e1	dec    	ebp
  0x24e2	mov    	eax, edi
  0x24e4	dec    	eax
  0x24e5	lea    	edx, [0xfcd]
  0x24eb	dec    	eax
  === BLOCK LINK ===
    0x24ec
=== CODE BLOCK END ===

=== CODE BLOCK ADDRESS 0x24ec ===
  0x24ec	mov    	ecx, edi
  0x24ee	dec    	eax
  0x24ef	call   	dword ptr [0xe3b]
  === BLOCK LINK ===
    0x24f5
=== CODE BLOCK END ===

=== CODE BLOCK ADDRESS 0x24f5 ===
  0x24f5	nop    	dword ptr [eax + eax]
  0x24fa	dec    	eax
  0x24fb	mov    	ecx, edi
  0x24fd	dec    	eax
  0x24fe	call   	dword ptr [0xdfc]
  === BLOCK LINK ===
    0x2504
=== CODE BLOCK END ===

=== CODE BLOCK ADDRESS 0x2504 ===
  0x2504	nop    	dword ptr [eax + eax]
  0x2509	dec    	eax
  0x250a	mov    	ecx, edi
  0x250c	dec    	eax
  0x250d	call   	dword ptr [0xe05]
  === BLOCK LINK ===
    0x2513
=== CODE BLOCK END ===

=== CODE BLOCK ADDRESS 0x2513 ===
  0x2513	nop    	dword ptr [eax + eax]
  0x2518	mov    	ecx, eax
  0x251a	inc    	ecx
  0x251b	mov    	edx, esi
  0x251d	dec    	eax
  === BLOCK LINK ===
    0x251e
=== CODE BLOCK END ===

=== CODE BLOCK ADDRESS 0x251e ===
  0x251e	call   	dword ptr [0xde4]
  === BLOCK LINK ===
    0x2524
=== CODE BLOCK END ===

=== CODE BLOCK ADDRESS 0x2524 ===
  0x2524	nop    	dword ptr [eax + eax]
  0x2529	dec    	eax
  0x252a	test   	esi, esi
  0x252c	je     	0x253d
  === BLOCK LINK ===
    0x252e
=== CODE BLOCK END ===

=== CODE BLOCK ADDRESS 0x252e ===
  0x252e	dec    	eax
  0x252f	mov    	ecx, esi
  0x2531	dec    	eax
  0x2532	call   	dword ptr [0xcc8]
  === BLOCK LINK ===
    0x2538
=== CODE BLOCK END ===

=== CODE BLOCK ADDRESS 0x2538 ===
  0x2538	nop    	dword ptr [eax + eax]
  0x253d	dec    	eax
  0x253e	mov    	ecx, dword ptr [esp + 0xf0]
  0x2545	dec    	eax
  0x2546	xor    	ecx, esp
  === BLOCK LINK ===
    0x2548
=== CODE BLOCK END ===

=== CODE BLOCK ADDRESS 0x2548 ===
  0x2548	call   	0x2930
  === BLOCK LINK ===
    0x254d
=== CODE BLOCK END ===

=== CODE BLOCK ADDRESS 0x254d ===
  0x254d	dec    	esp
  0x254e	lea    	ebx, [esp + 0x100]
  0x2555	dec    	ecx
  0x2556	mov    	ebx, dword ptr [ebx + 0x40]
  0x2559	dec    	ecx
  === BLOCK LINK ===
    0x255a
=== CODE BLOCK END ===

=== CODE BLOCK ADDRESS 0x255a ===
  0x255a	mov    	ebp, dword ptr [ebx + 0x48]
  0x255d	dec    	ecx
  0x255e	mov    	esp, ebx
  0x2560	inc    	ecx
  0x2561	pop    	edi
  === BLOCK LINK ===
    0x2562
=== CODE BLOCK END ===

=== CODE BLOCK ADDRESS 0x2562 ===
  0x2562	inc    	ecx
  0x2563	pop    	esi
  0x2564	inc    	ecx
  0x2565	pop    	esp
  0x2566	pop    	edi
  === BLOCK LINK ===
    0x2567
=== CODE BLOCK END ===

=== CODE BLOCK ADDRESS 0x2567 ===
  0x2567	pop    	esi
  0x2568	ret    	
  0x2569	int3   	
  0x256a	int3   	
  0x256b	int3   	
  === BLOCK LINK ===
    0x256c
=== CODE BLOCK END ===

=== CODE BLOCK ADDRESS 0x256c ===
  0x256c	int3   	
  0x256d	int3   	
  0x256e	int3   	
  0x256f	int3   	
  0x2570	mov    	dword ptr [esp + 0x10], edx
  === BLOCK LINK ===
    0x2574
=== CODE BLOCK END ===

=== CODE BLOCK ADDRESS 0x2574 ===
  0x2574	dec    	esp
  0x2575	mov    	ebx, esp
  0x2577	dec    	ebp
  0x2578	mov    	dword ptr [ebx + 0x18], eax
  0x257b	dec    	ebp
  === BLOCK LINK ===
    0x257c
=== CODE BLOCK END ===

=== CODE BLOCK ADDRESS 0x257c ===
  0x257c	mov    	dword ptr [ebx + 0x20], ecx
  0x257f	push   	ebx
  0x2580	dec    	eax
  0x2581	sub    	esp, 0x50
  0x2584	dec    	ecx
  === BLOCK LINK ===
    0x2585
=== CODE BLOCK END ===

=== CODE BLOCK ADDRESS 0x2585 ===
  0x2585	lea    	eax, [ebx + 0x18]
  0x2588	dec    	eax
  0x2589	mov    	ebx, ecx
  0x258b	dec    	ecx
  0x258c	mov    	dword ptr [ebx - 0x10], eax
  === BLOCK LINK ===
    0x258f
=== CODE BLOCK END ===

=== CODE BLOCK ADDRESS 0x258f ===
  0x258f	inc    	esp
  0x2590	mov    	eax, edx
  0x2592	dec    	eax
  0x2593	mov    	edx, dword ptr [0x30d7]
  0x2599	dec    	ecx
  === BLOCK LINK ===
    0x259a
=== CODE BLOCK END ===

=== CODE BLOCK ADDRESS 0x259a ===
  0x259a	lea    	eax, [ebx - 0x10]
  0x259d	dec    	ecx
  0x259e	mov    	dword ptr [ebx - 0x28], eax
  0x25a1	inc    	ebp
  0x25a2	xor    	ecx, ecx
  === BLOCK LINK ===
    0x25a4
=== CODE BLOCK END ===

=== CODE BLOCK ADDRESS 0x25a4 ===
  0x25a4	and    	dword ptr [esp + 0x28], 0
  0x25a9	dec    	ecx
  0x25aa	lea    	eax, [ebx - 0x18]
  0x25ad	mov    	ecx, 0x900
  0x25b2	dec    	ecx
  === BLOCK LINK ===
    0x25b3
=== CODE BLOCK END ===

=== CODE BLOCK ADDRESS 0x25b3 ===
  0x25b3	mov    	dword ptr [ebx - 0x38], eax
  0x25b6	dec    	eax
  0x25b7	call   	dword ptr [0xc63]
  === BLOCK LINK ===
    0x25bd
=== CODE BLOCK END ===

=== CODE BLOCK ADDRESS 0x25bd ===
  0x25bd	nop    	dword ptr [eax + eax]
  0x25c2	test   	eax, eax
  0x25c4	je     	0x25e4
  === BLOCK LINK ===
    0x25c6
=== CODE BLOCK END ===

=== CODE BLOCK ADDRESS 0x25c6 ===
  0x25c6	dec    	eax
  0x25c7	mov    	edx, dword ptr [esp + 0x40]
  0x25cb	dec    	eax
  0x25cc	mov    	ecx, ebx
  0x25ce	call   	0x22e0
  === BLOCK LINK ===
    0x25d3
=== CODE BLOCK END ===

=== CODE BLOCK ADDRESS 0x25d3 ===
  0x25d3	dec    	eax
  0x25d4	mov    	ecx, dword ptr [esp + 0x40]
  0x25d8	dec    	eax
  0x25d9	call   	dword ptr [0xc21]
  === BLOCK LINK ===
    0x25df
=== CODE BLOCK END ===

=== CODE BLOCK ADDRESS 0x25df ===
  0x25df	nop    	dword ptr [eax + eax]
  0x25e4	dec    	eax
  0x25e5	add    	esp, 0x50
  0x25e8	pop    	ebx
  0x25e9	ret    	
  === BLOCK LINK ===
    0x25ea
=== CODE BLOCK END ===

=== CODE BLOCK ADDRESS 0x2930 ===
=== CODE BLOCK END ===

=== CODE BLOCK ADDRESS 0x25ea ===
  0x25ea	int3   	
  0x25eb	int3   	
  0x25ec	int3   	
  0x25ed	int3   	
  0x25ee	int3   	
  === BLOCK LINK ===
    0x25ef
=== CODE BLOCK END ===

=== CODE BLOCK ADDRESS 0x25ef ===
  0x25ef	int3   	
  0x25f0	int3   	
  0x25f1	int3   	
  0x25f2	int3   	
  0x25f3	int3   	
  === BLOCK LINK ===
    0x25f4
=== CODE BLOCK END ===

=== CODE BLOCK ADDRESS 0x25f4 ===
  0x25f4	int3   	
  0x25f5	int3   	
  0x25f6	int3   	
  0x25f7	int3   	
  0x25f8	int3   	
  === BLOCK LINK ===
    0x25f9
=== CODE BLOCK END ===

=== CODE BLOCK ADDRESS 0x25f9 ===
  0x25f9	int3   	
  0x25fa	int3   	
  0x25fb	int3   	
  0x25fc	int3   	
  0x25fd	int3   	
  === BLOCK LINK ===
    0x25fe
=== CODE BLOCK END ===

=== CODE BLOCK ADDRESS 0x25fe ===
  0x25fe	int3   	
  0x25ff	int3   	
  0x2600	dec    	eax
  0x2601	sub    	esp, 0x28
  0x2604	mov    	eax, 0x5a4d
  === BLOCK LINK ===
    0x2609
=== CODE BLOCK END ===

=== CODE BLOCK ADDRESS 0x2609 ===
  0x2609	cmp    	word ptr [0xffffd9f0], ax
  0x2610	je     	0x2616
  === BLOCK LINK ===
    0x2612
=== CODE BLOCK END ===

=== CODE BLOCK ADDRESS 0x2612 ===
  0x2612	xor    	eax, eax
  0x2614	jmp    	0x2669
  === BLOCK LINK ===
    0x2616
=== CODE BLOCK END ===

=== CODE BLOCK ADDRESS 0x2616 ===
  0x2616	dec    	eax
  0x2617	arpl   	word ptr [0xffffda1f], cx
  0x261d	dec    	eax
  0x261e	lea    	eax, [0xffffd9dc]
  0x2624	dec    	eax
  === BLOCK LINK ===
    0x2625
=== CODE BLOCK END ===

=== CODE BLOCK ADDRESS 0x2625 ===
  0x2625	add    	ecx, eax
  0x2627	cmp    	dword ptr [ecx], 0x4550
  0x262d	jne    	0x2612
  === BLOCK LINK ===
    0x262f
=== CODE BLOCK END ===

=== CODE BLOCK ADDRESS 0x262f ===
  0x262f	mov    	eax, 0x10b
  0x2634	cmp    	word ptr [ecx + 0x18], ax
  0x2638	je     	0x2658
  === BLOCK LINK ===
    0x263a
=== CODE BLOCK END ===

=== CODE BLOCK ADDRESS 0x263a ===
  0x263a	mov    	eax, 0x20b
  0x263f	cmp    	word ptr [ecx + 0x18], ax
  0x2643	jne    	0x2612
  === BLOCK LINK ===
    0x2645
=== CODE BLOCK END ===

=== CODE BLOCK ADDRESS 0x2645 ===
  0x2645	xor    	eax, eax
  0x2647	cmp    	dword ptr [ecx + 0x84], 0xe
  0x264e	jbe    	0x2669
  === BLOCK LINK ===
    0x2650
=== CODE BLOCK END ===

=== CODE BLOCK ADDRESS 0x2650 ===
  0x2650	cmp    	dword ptr [ecx + 0xf8], eax
  0x2656	jmp    	0x2666
  === BLOCK LINK ===
    0x2658
=== CODE BLOCK END ===

=== CODE BLOCK ADDRESS 0x2658 ===
  0x2658	xor    	eax, eax
  0x265a	cmp    	dword ptr [ecx + 0x74], 0xe
  0x265e	jbe    	0x2669
  === BLOCK LINK ===
    0x2660
=== CODE BLOCK END ===

=== CODE BLOCK ADDRESS 0x2660 ===
  0x2660	cmp    	dword ptr [ecx + 0xe8], eax
  0x2666	setne  	al
  0x2669	mov    	ecx, 1
  0x266e	mov    	dword ptr [0x2a6c], eax
  0x2674	call   	0x2a28
  === BLOCK LINK ===
    0x2679
=== CODE BLOCK END ===

=== CODE BLOCK ADDRESS 0x2679 ===
  0x2679	mov    	ecx, eax
  0x267b	call   	dword ptr [0xcef]
  === BLOCK LINK ===
    0x2681
=== CODE BLOCK END ===

=== CODE BLOCK ADDRESS 0x2681 ===
  0x2681	dec    	eax
  0x2682	mov    	ecx, dword ptr [0xcb0]
  0x2688	dec    	eax
  0x2689	or     	eax, 0xffffffff
  0x268c	dec    	eax
  === BLOCK LINK ===
    0x268d
=== CODE BLOCK END ===

=== CODE BLOCK ADDRESS 0x268d ===
  0x268d	mov    	dword ptr [0x2fe5], eax
  0x2693	dec    	eax
  0x2694	mov    	dword ptr [0x2fe6], eax
  0x269a	mov    	eax, dword ptr [0x2a54]
  0x26a0	mov    	dword ptr [ecx], eax
  === BLOCK LINK ===
    0x26a2
=== CODE BLOCK END ===

=== CODE BLOCK ADDRESS 0x26a2 ===
  0x26a2	dec    	eax
  0x26a3	mov    	ecx, dword ptr [0xc37]
  0x26a9	mov    	eax, dword ptr [0x2a39]
  0x26af	mov    	dword ptr [ecx], eax
  0x26b1	call   	0x2a80
  === BLOCK LINK ===
    0x26b6
=== CODE BLOCK END ===

=== CODE BLOCK ADDRESS 0x26b6 ===
  0x26b6	cmp    	dword ptr [0x2943], 0
  0x26bd	jne    	0x26cc
  === BLOCK LINK ===
    0x26bf
=== CODE BLOCK END ===

=== CODE BLOCK ADDRESS 0x26bf ===
  0x26bf	dec    	eax
  0x26c0	lea    	ecx, [0x3ba]
  0x26c6	call   	dword ptr [0xc84]
  === BLOCK LINK ===
    0x26cc
=== CODE BLOCK END ===

=== CODE BLOCK ADDRESS 0x26cc ===
  0x26cc	xor    	eax, eax
  0x26ce	dec    	eax
  0x26cf	add    	esp, 0x28
  0x26d2	ret    	
  0x26d3	int3   	
  === BLOCK LINK ===
    0x26d4
=== CODE BLOCK END ===

=== CODE BLOCK ADDRESS 0x1008 ===
  0x1008	dec    	eax
  0x1009	mov    	dword ptr [esp + 0x18], ebx
  === BLOCK LINK ===
    0x100d
=== CODE BLOCK END ===

=== CODE BLOCK ADDRESS 0x26d4 ===
  0x26d4	int3   	
  0x26d5	int3   	
  0x26d6	int3   	
  0x26d7	int3   	
  0x26d8	int3   	
  === BLOCK LINK ===
    0x26d9
=== CODE BLOCK END ===

=== CODE BLOCK ADDRESS 0x26d9 ===
  0x26d9	int3   	
  0x26da	int3   	
  0x26db	int3   	
  0x26dc	int3   	
  0x26dd	int3   	
  === BLOCK LINK ===
    0x26de
=== CODE BLOCK END ===

=== CODE BLOCK ADDRESS 0x26de ===
  0x26de	int3   	
  0x26df	int3   	
  0x26e0	dec    	eax
  0x26e1	sub    	esp, 0x38
  0x26e4	mov    	eax, dword ptr [0x2a06]
  === BLOCK LINK ===
    0x26ea
=== CODE BLOCK END ===

=== CODE BLOCK ADDRESS 0x26ea ===
  0x26ea	dec    	esp
  0x26eb	lea    	eax, [0x29e7]
  0x26f1	inc    	esp
  0x26f2	mov    	ecx, dword ptr [0x29f4]
  0x26f8	dec    	eax
  === BLOCK LINK ===
    0x26f9
=== CODE BLOCK END ===

=== CODE BLOCK ADDRESS 0x26f9 ===
  0x26f9	lea    	edx, [0x29d1]
  0x26ff	mov    	dword ptr [0x29df], eax
  0x2705	dec    	eax
  0x2706	lea    	ecx, [0x29bc]
  0x270c	dec    	eax
  === BLOCK LINK ===
    0x270d
=== CODE BLOCK END ===

=== CODE BLOCK ADDRESS 0x270d ===
  0x270d	lea    	eax, [0x29d1]
  0x2713	dec    	eax
  0x2714	mov    	dword ptr [esp + 0x20], eax
  0x2718	call   	dword ptr [0xc5a]
  === BLOCK LINK ===
    0x271e
=== CODE BLOCK END ===

=== CODE BLOCK ADDRESS 0x271e ===
  0x271e	mov    	dword ptr [0x29a8], eax
  0x2724	dec    	eax
  0x2725	add    	esp, 0x38
  0x2728	ret    	
  0x2729	int3   	
  === BLOCK LINK ===
    0x272a
=== CODE BLOCK END ===

=== CODE BLOCK ADDRESS 0x272a ===
  0x272a	int3   	
  0x272b	int3   	
  0x272c	int3   	
  0x272d	int3   	
  0x272e	int3   	
  === BLOCK LINK ===
    0x272f
=== CODE BLOCK END ===

=== CODE BLOCK ADDRESS 0x272f ===
  0x272f	int3   	
  0x2730	dec    	eax
  0x2731	mov    	dword ptr [esp + 8], ebx
  0x2735	dec    	eax
  0x2736	mov    	dword ptr [esp + 0x10], esi
  === BLOCK LINK ===
    0x273a
=== CODE BLOCK END ===

=== CODE BLOCK ADDRESS 0x273a ===
  0x273a	dec    	eax
  0x273b	mov    	dword ptr [esp + 0x18], edi
  0x273f	inc    	ecx
  0x2740	push   	edi
  0x2741	dec    	eax
  === BLOCK LINK ===
    0x2742
=== CODE BLOCK END ===

=== CODE BLOCK ADDRESS 0x2742 ===
  0x2742	sub    	esp, 0x30
  0x2745	dec    	eax
  0x2747	mov    	eax, dword ptr [0x30]
  0x274e	dec    	eax
  0x274f	mov    	ebx, dword ptr [eax + 8]
  === BLOCK LINK ===
    0x2752
=== CODE BLOCK END ===

=== CODE BLOCK ADDRESS 0x2752 ===
  0x2752	xor    	esi, esi
  0x2754	xor    	eax, eax
  0x2756	.byte  	0xf0
  0x2757	dec    	eax
  0x2758	cmpxchg  	dword ptr [0x2f29], ebx
  === BLOCK LINK ===
    0x275f
=== CODE BLOCK END ===

=== CODE BLOCK ADDRESS 0x275f ===
  0x275f	je     	0x277c
  === BLOCK LINK ===
    0x2761
=== CODE BLOCK END ===

=== CODE BLOCK ADDRESS 0x2761 ===
  0x2761	dec    	eax
  0x2762	cmp    	eax, ebx
  0x2764	jne    	0x276f
  === BLOCK LINK ===
    0x2766
=== CODE BLOCK END ===

=== CODE BLOCK ADDRESS 0x2766 ===
  0x2766	mov    	ebx, 1
  0x276b	mov    	esi, ebx
  0x276d	jmp    	0x2781
  === BLOCK LINK ===
    0x276f
=== CODE BLOCK END ===

=== CODE BLOCK ADDRESS 0x276f ===
  0x276f	mov    	ecx, 0x3e8
  0x2774	call   	dword ptr [0xb36]
  === BLOCK LINK ===
    0x277a
=== CODE BLOCK END ===

=== CODE BLOCK ADDRESS 0x277a ===
  0x277a	jmp    	0x2754
  === BLOCK LINK ===
    0x277c
=== CODE BLOCK END ===

=== CODE BLOCK ADDRESS 0x277c ===
  0x277c	mov    	ebx, 1
  0x2781	mov    	eax, dword ptr [0x2f09]
  0x2787	cmp    	eax, ebx
  0x2789	jne    	0x2797
  === BLOCK LINK ===
    0x278b
=== CODE BLOCK END ===

=== CODE BLOCK ADDRESS 0x278b ===
  0x278b	mov    	ecx, 0x1f
  0x2790	call   	0x2a73
  === BLOCK LINK ===
    0x2795
=== CODE BLOCK END ===

=== CODE BLOCK ADDRESS 0x2795 ===
  0x2795	jmp    	0x27fc
  === BLOCK LINK ===
    0x2797
=== CODE BLOCK END ===

=== CODE BLOCK ADDRESS 0x2797 ===
  0x2797	mov    	eax, dword ptr [0x2ef3]
  0x279d	test   	eax, eax
  0x279f	jne    	0x27f6
  === BLOCK LINK ===
    0x27a1
=== CODE BLOCK END ===

=== CODE BLOCK ADDRESS 0x27a1 ===
  0x27a1	mov    	dword ptr [0x2ee9], ebx
  0x27a7	dec    	esp
  0x27a8	lea    	edi, [0xc52]
  0x27ae	dec    	eax
  0x27af	lea    	edi, [0xc33]
  === BLOCK LINK ===
    0x27b5
=== CODE BLOCK END ===

=== CODE BLOCK ADDRESS 0x27b5 ===
  0x27b5	dec    	eax
  0x27b6	mov    	dword ptr [esp + 0x28], edi
  0x27ba	mov    	dword ptr [esp + 0x20], eax
  0x27be	dec    	ecx
  0x27bf	cmp    	edi, edi
  === BLOCK LINK ===
    0x27c1
=== CODE BLOCK END ===

=== CODE BLOCK ADDRESS 0x27c1 ===
  0x27c1	jae    	0x27e8
  === BLOCK LINK ===
    0x27c3
=== CODE BLOCK END ===

=== CODE BLOCK ADDRESS 0x27c3 ===
  0x27c3	test   	eax, eax
  0x27c5	jne    	0x27ec
  === BLOCK LINK ===
    0x27c7
=== CODE BLOCK END ===

=== CODE BLOCK ADDRESS 0x27c7 ===
  0x27c7	dec    	eax
  0x27c8	cmp    	dword ptr [edi], 0
  0x27cb	je     	0x27dd
  === BLOCK LINK ===
    0x27cd
=== CODE BLOCK END ===

=== CODE BLOCK ADDRESS 0x27cd ===
  0x27cd	dec    	eax
  0x27ce	mov    	eax, dword ptr [edi]
  0x27d0	dec    	eax
  0x27d1	mov    	ecx, dword ptr [0xbf1]
  0x27d7	call   	ecx
  === BLOCK LINK ===
    0x27d9
=== CODE BLOCK END ===

=== CODE BLOCK ADDRESS 0x27d9 ===
  0x27d9	mov    	dword ptr [esp + 0x20], eax
  0x27dd	dec    	eax
  0x27de	add    	edi, 8
  0x27e1	dec    	eax
  0x27e2	mov    	dword ptr [esp + 0x28], edi
  === BLOCK LINK ===
    0x27e6
=== CODE BLOCK END ===

=== CODE BLOCK ADDRESS 0x27e6 ===
  0x27e6	jmp    	0x27be
  === BLOCK LINK ===
    0x27e8
=== CODE BLOCK END ===

=== CODE BLOCK ADDRESS 0x27e8 ===
  0x27e8	test   	eax, eax
  0x27ea	je     	0x27fc
  === BLOCK LINK ===
    0x27ec
=== CODE BLOCK END ===

=== CODE BLOCK ADDRESS 0x27ec ===
  0x27ec	mov    	eax, 0xff
  0x27f1	jmp    	0x28d8
  === BLOCK LINK ===
    0x27f6
=== CODE BLOCK END ===

=== CODE BLOCK ADDRESS 0x27f6 ===
  0x27f6	mov    	dword ptr [0x28c8], ebx
  0x27fc	mov    	eax, dword ptr [0x2e8e]
  0x2802	cmp    	eax, ebx
  0x2804	jne    	0x2823
  === BLOCK LINK ===
    0x2806
=== CODE BLOCK END ===

=== CODE BLOCK ADDRESS 0x2806 ===
  0x2806	dec    	eax
  0x2807	lea    	edx, [0xbd3]
  0x280d	dec    	eax
  0x280e	lea    	ecx, [0xbbc]
  0x2814	call   	0x2c4e
  === BLOCK LINK ===
    0x2819
=== CODE BLOCK END ===

=== CODE BLOCK ADDRESS 0x2819 ===
  0x2819	mov    	dword ptr [0x2e6d], 2
  0x2823	test   	esi, esi
  0x2825	jne    	0x2830
  === BLOCK LINK ===
    0x2827
=== CODE BLOCK END ===

=== CODE BLOCK ADDRESS 0x2827 ===
  0x2827	xor    	eax, eax
  0x2829	dec    	eax
  0x282a	xchg   	dword ptr [0x2e58], eax
  0x2830	dec    	eax
  0x2831	cmp    	dword ptr [0x2e60], 0
  === BLOCK LINK ===
    0x2838
=== CODE BLOCK END ===

=== CODE BLOCK ADDRESS 0x2838 ===
  0x2838	je     	0x2864
  === BLOCK LINK ===
    0x283a
=== CODE BLOCK END ===

=== CODE BLOCK ADDRESS 0x283a ===
  0x283a	dec    	eax
  0x283b	lea    	ecx, [0x2e57]
  0x2841	call   	0x2ae0
  === BLOCK LINK ===
    0x2846
=== CODE BLOCK END ===

=== CODE BLOCK ADDRESS 0x2846 ===
  0x2846	test   	eax, eax
  0x2848	je     	0x2864
  === BLOCK LINK ===
    0x284a
=== CODE BLOCK END ===

=== CODE BLOCK ADDRESS 0x284a ===
  0x284a	inc    	ebp
  0x284b	xor    	eax, eax
  0x284d	inc    	ecx
  0x284e	lea    	edx, [eax + 2]
  0x2851	xor    	ecx, ecx
  === BLOCK LINK ===
    0x2853
=== CODE BLOCK END ===

=== CODE BLOCK ADDRESS 0x2853 ===
  0x2853	dec    	eax
  0x2854	mov    	eax, dword ptr [0x2e3e]
  0x285a	dec    	esp
  0x285b	mov    	ecx, dword ptr [0xb67]
  0x2861	inc    	ecx
  === BLOCK LINK ===
    0x2862
=== CODE BLOCK END ===

=== CODE BLOCK ADDRESS 0x2862 ===
  0x2862	call   	ecx
  === BLOCK LINK ===
    0x2864
=== CODE BLOCK END ===

=== CODE BLOCK ADDRESS 0x2864 ===
  0x2864	dec    	esp
  0x2865	mov    	eax, dword ptr [0x286d]
  0x286b	dec    	eax
  0x286c	mov    	edx, dword ptr [0x285e]
  0x2872	mov    	ecx, dword ptr [0x2850]
  === BLOCK LINK ===
    0x2878
=== CODE BLOCK END ===

=== CODE BLOCK ADDRESS 0x2878 ===
  0x2878	call   	0x14c4
  === BLOCK LINK ===
    0x287d
=== CODE BLOCK END ===

=== CODE BLOCK ADDRESS 0x287d ===
  0x287d	mov    	dword ptr [0x283d], eax
  0x2883	cmp    	dword ptr [0x2856], 0
  0x288a	jne    	0x2894
  === BLOCK LINK ===
    0x288c
=== CODE BLOCK END ===

=== CODE BLOCK ADDRESS 0x288c ===
  0x288c	mov    	ecx, eax
  0x288e	call   	dword ptr [0xb04]
  === BLOCK LINK ===
    0x2894
=== CODE BLOCK END ===

=== CODE BLOCK ADDRESS 0x2894 ===
  0x2894	cmp    	dword ptr [0x2829], 0
  0x289b	jne    	0x28a9
  === BLOCK LINK ===
    0x289d
=== CODE BLOCK END ===

=== CODE BLOCK ADDRESS 0x289d ===
  0x289d	call   	dword ptr [0xab5]
  === BLOCK LINK ===
    0x28a3
=== CODE BLOCK END ===

=== CODE BLOCK ADDRESS 0x28a3 ===
  0x28a3	mov    	eax, dword ptr [0x2817]
  0x28a9	jmp    	0x28d8
  === BLOCK LINK ===
    0x28ab
=== CODE BLOCK END ===

=== CODE BLOCK ADDRESS 0x28ab ===
  0x28ab	mov    	dword ptr [0x280f], eax
  0x28b1	cmp    	dword ptr [0x2828], 0
  0x28b8	jne    	0x28c3
  === BLOCK LINK ===
    0x28ba
=== CODE BLOCK END ===

=== CODE BLOCK ADDRESS 0x28ba ===
  0x28ba	mov    	ecx, eax
  0x28bc	call   	dword ptr [0xa9e]
  === BLOCK LINK ===
    0x28c2
=== CODE BLOCK END ===

=== CODE BLOCK ADDRESS 0x28c2 ===
  0x28c2	int3   	
  0x28c3	cmp    	dword ptr [0x27fa], 0
  0x28ca	jne    	0x28d8
  === BLOCK LINK ===
    0x28cc
=== CODE BLOCK END ===

=== CODE BLOCK ADDRESS 0x28cc ===
  0x28cc	call   	dword ptr [0xa86]
  === BLOCK LINK ===
    0x28d2
=== CODE BLOCK END ===

=== CODE BLOCK ADDRESS 0x28d2 ===
  0x28d2	mov    	eax, dword ptr [0x27e8]
  0x28d8	dec    	eax
  0x28d9	mov    	ebx, dword ptr [esp + 0x40]
  0x28dd	dec    	eax
  0x28de	mov    	esi, dword ptr [esp + 0x48]
  === BLOCK LINK ===
    0x28e2
=== CODE BLOCK END ===

=== CODE BLOCK ADDRESS 0x28e2 ===
  0x28e2	dec    	eax
  0x28e3	mov    	edi, dword ptr [esp + 0x50]
  0x28e7	dec    	eax
  0x28e8	add    	esp, 0x30
  0x28eb	inc    	ecx
  === BLOCK LINK ===
    0x28ec
=== CODE BLOCK END ===

=== CODE BLOCK ADDRESS 0x28ec ===
  0x28ec	pop    	edi
  0x28ed	ret    	
  0x28ee	int3   	
  0x28ef	int3   	
  0x28f0	int3   	
  === BLOCK LINK ===
    0x28f1
=== CODE BLOCK END ===

=== CODE BLOCK ADDRESS 0x28f1 ===
  0x28f1	int3   	
  0x28f2	int3   	
  0x28f3	int3   	
  0x28f4	int3   	
  0x28f5	int3   	
  === BLOCK LINK ===
    0x28f6
=== CODE BLOCK END ===

=== CODE BLOCK ADDRESS 0x28f6 ===
  0x28f6	int3   	
  0x28f7	int3   	
  0x28f8	int3   	
  0x28f9	int3   	
  0x28fa	int3   	
  === BLOCK LINK ===
    0x28fb
=== CODE BLOCK END ===

=== CODE BLOCK ADDRESS 0x28fb ===
  0x28fb	int3   	
  0x28fc	int3   	
  0x28fd	int3   	
  0x28fe	int3   	
  0x28ff	int3   	
  === BLOCK LINK ===
    0x2900
=== CODE BLOCK END ===

=== CODE BLOCK ADDRESS 0x2900 ===
  0x2900	dec    	eax
  0x2901	sub    	esp, 0x28
  0x2904	call   	0x2b74
  === BLOCK LINK ===
    0x2909
=== CODE BLOCK END ===

=== CODE BLOCK ADDRESS 0x2909 ===
  0x2909	dec    	eax
  0x290a	add    	esp, 0x28
  0x290d	jmp    	0x2730
  === BLOCK LINK ===
    0x2912
=== CODE BLOCK END ===

=== CODE BLOCK ADDRESS 0x2912 ===
  0x2912	int3   	
  0x2913	int3   	
  0x2914	int3   	
  0x2915	int3   	
  0x2916	int3   	
  === BLOCK LINK ===
    0x2917
=== CODE BLOCK END ===

=== CODE BLOCK ADDRESS 0x2917 ===
  0x2917	int3   	
  0x2918	int3   	
  0x2919	int3   	
  0x291a	int3   	
  0x291b	int3   	
  === BLOCK LINK ===
    0x291c
=== CODE BLOCK END ===

=== CODE BLOCK ADDRESS 0x291c ===
  0x291c	int3   	
  0x291d	int3   	
  0x291e	int3   	
  0x291f	int3   	
  0x2920	int3   	
  === BLOCK LINK ===
    0x2921
=== CODE BLOCK END ===

=== CODE BLOCK ADDRESS 0x2921 ===
  0x2921	int3   	
  0x2922	int3   	
  0x2923	int3   	
  0x2924	int3   	
  0x2925	int3   	
  === BLOCK LINK ===
    0x2926
=== CODE BLOCK END ===

=== CODE BLOCK ADDRESS 0x2926 ===
  0x2926	nop    	word ptr [eax + eax]
  0x2930	dec    	eax
  0x2931	cmp    	ecx, dword ptr [0x26d1]
  0x2937	jne    	0x2949
  === BLOCK LINK ===
    0x2939
=== CODE BLOCK END ===

=== CODE BLOCK ADDRESS 0x2939 ===
  0x2939	dec    	eax
  0x293a	rol    	ecx, 0x10
  0x293d	test   	cx, 0xffff
  0x2942	jne    	0x2945
  === BLOCK LINK ===
    0x2944
=== CODE BLOCK END ===

=== CODE BLOCK ADDRESS 0x2944 ===
  0x2944	ret    	
  0x2945	dec    	eax
  0x2946	ror    	ecx, 0x10
  0x2949	jmp    	0x2cc0
  === BLOCK LINK ===
    0x294e
=== CODE BLOCK END ===

=== CODE BLOCK ADDRESS 0x294e ===
  0x294e	int3   	
  0x294f	int3   	
  0x2950	int3   	
  0x2951	int3   	
  0x2952	int3   	
  === BLOCK LINK ===
    0x2953
=== CODE BLOCK END ===

=== CODE BLOCK ADDRESS 0x2953 ===
  0x2953	int3   	
  0x2954	int3   	
  0x2955	int3   	
  0x2956	int3   	
  0x2957	int3   	
  === BLOCK LINK ===
    0x2958
=== CODE BLOCK END ===

=== CODE BLOCK ADDRESS 0x2958 ===
  0x2958	int3   	
  0x2959	int3   	
  0x295a	int3   	
  0x295b	int3   	
  0x295c	int3   	
  === BLOCK LINK ===
    0x295d
=== CODE BLOCK END ===

=== CODE BLOCK ADDRESS 0x295d ===
  0x295d	int3   	
  0x295e	int3   	
  0x295f	int3   	
  0x2960	dec    	eax
  0x2961	sub    	esp, 0x28
  === BLOCK LINK ===
    0x2964
=== CODE BLOCK END ===

=== CODE BLOCK ADDRESS 0x2964 ===
  0x2964	dec    	eax
  0x2965	mov    	eax, dword ptr [ecx]
  0x2967	cmp    	dword ptr [eax], 0xe06d7363
  0x296d	jne    	0x2992
  === BLOCK LINK ===
    0x296f
=== CODE BLOCK END ===

=== CODE BLOCK ADDRESS 0x296f ===
  0x296f	cmp    	dword ptr [eax + 0x18], 4
  0x2973	jne    	0x2992
  === BLOCK LINK ===
    0x2975
=== CODE BLOCK END ===

=== CODE BLOCK ADDRESS 0x2975 ===
  0x2975	mov    	ecx, dword ptr [eax + 0x20]
  0x2978	lea    	eax, [ecx - 0x19930520]
  0x297e	cmp    	eax, 2
  0x2981	jbe    	0x298b
  === BLOCK LINK ===
    0x2983
=== CODE BLOCK END ===

=== CODE BLOCK ADDRESS 0x2983 ===
  0x2983	cmp    	ecx, 0x1994000
  0x2989	jne    	0x2992
  === BLOCK LINK ===
    0x298b
=== CODE BLOCK END ===

=== CODE BLOCK ADDRESS 0x298b ===
  0x298b	call   	dword ptr [0x947]
  === BLOCK LINK ===
    0x2991
=== CODE BLOCK END ===

=== CODE BLOCK ADDRESS 0x2991 ===
  0x2991	int3   	
  0x2992	xor    	eax, eax
  0x2994	dec    	eax
  0x2995	add    	esp, 0x28
  0x2998	ret    	
  === BLOCK LINK ===
    0x2999
=== CODE BLOCK END ===

=== CODE BLOCK ADDRESS 0x2999 ===
  0x2999	int3   	
  0x299a	int3   	
  0x299b	int3   	
  0x299c	int3   	
  0x299d	int3   	
  === BLOCK LINK ===
    0x299e
=== CODE BLOCK END ===

=== CODE BLOCK ADDRESS 0x299e ===
  0x299e	int3   	
  0x299f	int3   	
  0x29a0	dec    	eax
  0x29a1	sub    	esp, 0x28
  0x29a4	dec    	eax
  === BLOCK LINK ===
    0x29a5
=== CODE BLOCK END ===

=== CODE BLOCK ADDRESS 0x29a5 ===
  0x29a5	lea    	ecx, [0xffffffb5]
  0x29ab	call   	dword ptr [0x807]
  === BLOCK LINK ===
    0x29b1
=== CODE BLOCK END ===

=== CODE BLOCK ADDRESS 0x29b1 ===
  0x29b1	xor    	eax, eax
  0x29b3	dec    	eax
  0x29b4	add    	esp, 0x28
  0x29b7	ret    	
  0x29b8	int3   	
  === BLOCK LINK ===
    0x29b9
=== CODE BLOCK END ===

=== CODE BLOCK ADDRESS 0x29b9 ===
  0x29b9	int3   	
  0x29ba	int3   	
  0x29bb	int3   	
  0x29bc	int3   	
  0x29bd	int3   	
  === BLOCK LINK ===
    0x29be
=== CODE BLOCK END ===

=== CODE BLOCK ADDRESS 0x29be ===
  0x29be	jmp    	dword ptr [0x9c4]
  === BLOCK LINK ===
    0x29c4
=== CODE BLOCK END ===

=== CODE BLOCK ADDRESS 0x29c4 ===
  0x29c4	int3   	
  0x29c5	int3   	
  0x29c6	int3   	
  0x29c7	int3   	
  0x29c8	int3   	
  === BLOCK LINK ===
    0x29c9
=== CODE BLOCK END ===

=== CODE BLOCK ADDRESS 0x29c9 ===
  0x29c9	int3   	
  0x29ca	int3   	
  0x29cb	int3   	
  0x29cc	dec    	eax
  0x29cd	sub    	esp, 0x18
  === BLOCK LINK ===
    0x29d0
=== CODE BLOCK END ===

=== CODE BLOCK ADDRESS 0x29d0 ===
  0x29d0	xor    	edx, edx
  0x29d2	dec    	eax
  0x29d3	lea    	eax, [ecx - 1]
  0x29d6	dec    	eax
  0x29d7	cmp    	eax, -3
  === BLOCK LINK ===
    0x29da
=== CODE BLOCK END ===

=== CODE BLOCK ADDRESS 0x29da ===
  0x29da	ja     	0x2a18
  === BLOCK LINK ===
    0x29dc
=== CODE BLOCK END ===

=== CODE BLOCK ADDRESS 0x29dc ===
  0x29dc	mov    	eax, 0x5a4d
  0x29e1	cmp    	word ptr [ecx], ax
  0x29e4	jne    	0x2a10
  === BLOCK LINK ===
    0x29e6
=== CODE BLOCK END ===

=== CODE BLOCK ADDRESS 0x29e6 ===
  0x29e6	cmp    	dword ptr [ecx + 0x3c], edx
  0x29e9	jl     	0x2a10
  === BLOCK LINK ===
    0x29eb
=== CODE BLOCK END ===

=== CODE BLOCK ADDRESS 0x29eb ===
  0x29eb	cmp    	dword ptr [ecx + 0x3c], 0x10000000
  0x29f2	jae    	0x2a10
  === BLOCK LINK ===
    0x29f4
=== CODE BLOCK END ===

=== CODE BLOCK ADDRESS 0x29f4 ===
  0x29f4	dec    	eax
  0x29f5	arpl   	word ptr [ecx + 0x3c], ax
  0x29f8	dec    	eax
  0x29f9	add    	eax, ecx
  0x29fb	dec    	eax
  === BLOCK LINK ===
    0x29fc
=== CODE BLOCK END ===

=== CODE BLOCK ADDRESS 0x29fc ===
  0x29fc	mov    	dword ptr [esp], eax
  0x29ff	cmp    	dword ptr [eax], 0x4550
  0x2a05	dec    	eax
  0x2a06	cmovne  	eax, edx
  0x2a09	dec    	eax
  === BLOCK LINK ===
    0x2a0a
=== CODE BLOCK END ===

=== CODE BLOCK ADDRESS 0x2a0a ===
  0x2a0a	mov    	edx, eax
  0x2a0c	dec    	eax
  0x2a0d	mov    	dword ptr [esp], eax
  0x2a10	jmp    	0x2a18
  === BLOCK LINK ===
    0x2a12
=== CODE BLOCK END ===

=== CODE BLOCK ADDRESS 0x2a12 ===
  0x2a12	xor    	edx, edx
  0x2a14	dec    	eax
  0x2a15	mov    	dword ptr [esp], edx
  0x2a18	dec    	eax
  0x2a19	mov    	eax, edx
  === BLOCK LINK ===
    0x2a1b
=== CODE BLOCK END ===

=== CODE BLOCK ADDRESS 0x2a1b ===
  0x2a1b	dec    	eax
  0x2a1c	add    	esp, 0x18
  0x2a1f	ret    	
  0x2a20	int3   	
  0x2a21	int3   	
  === BLOCK LINK ===
    0x2a22
=== CODE BLOCK END ===

=== CODE BLOCK ADDRESS 0x2a22 ===
  0x2a22	int3   	
  0x2a23	int3   	
  0x2a24	int3   	
  0x2a25	int3   	
  0x2a26	int3   	
  === BLOCK LINK ===
    0x2a27
=== CODE BLOCK END ===

=== CODE BLOCK ADDRESS 0x2a27 ===
  0x2a27	int3   	
  0x2a28	inc    	eax
  0x2a29	push   	ebx
  0x2a2a	dec    	eax
  0x2a2b	sub    	esp, 0x20
  === BLOCK LINK ===
    0x2a2e
=== CODE BLOCK END ===

=== CODE BLOCK ADDRESS 0x2a2e ===
  0x2a2e	mov    	ebx, ecx
  0x2a30	xor    	ecx, ecx
  0x2a32	call   	dword ptr [0x7d8]
  === BLOCK LINK ===
    0x2a38
=== CODE BLOCK END ===

=== CODE BLOCK ADDRESS 0x2a38 ===
  0x2a38	dec    	eax
  0x2a39	test   	eax, eax
  0x2a3b	je     	0x2a65
  === BLOCK LINK ===
    0x2a3d
=== CODE BLOCK END ===

=== CODE BLOCK ADDRESS 0x2a3d ===
  0x2a3d	dec    	eax
  0x2a3e	mov    	ecx, eax
  0x2a40	call   	0x29cc
  === BLOCK LINK ===
    0x2a45
=== CODE BLOCK END ===

=== CODE BLOCK ADDRESS 0x2a45 ===
  0x2a45	dec    	eax
  0x2a46	test   	eax, eax
  0x2a48	je     	0x2a65
  === BLOCK LINK ===
    0x2a4a
=== CODE BLOCK END ===

=== CODE BLOCK ADDRESS 0x2a4a ===
  0x2a4a	mov    	ecx, 2
  0x2a4f	cmp    	word ptr [eax + 0x5c], cx
  0x2a53	jne    	0x2a59
  === BLOCK LINK ===
    0x2a55
=== CODE BLOCK END ===

=== CODE BLOCK ADDRESS 0x2a55 ===
  0x2a55	mov    	eax, ecx
  0x2a57	jmp    	0x2a67
  === BLOCK LINK ===
    0x2a59
=== CODE BLOCK END ===

=== CODE BLOCK ADDRESS 0x2a59 ===
  0x2a59	cmp    	word ptr [eax + 0x5c], 3
  0x2a5e	mov    	eax, 1
  0x2a63	je     	0x2a67
  === BLOCK LINK ===
    0x2a65
=== CODE BLOCK END ===

=== CODE BLOCK ADDRESS 0x2a65 ===
  0x2a65	mov    	eax, ebx
  0x2a67	dec    	eax
  0x2a68	add    	esp, 0x20
  0x2a6b	pop    	ebx
  0x2a6c	ret    	
  === BLOCK LINK ===
    0x2a6d
=== CODE BLOCK END ===

=== CODE BLOCK ADDRESS 0x2a6d ===
  0x2a6d	int3   	
  0x2a6e	int3   	
  0x2a6f	int3   	
  0x2a70	int3   	
  0x2a71	int3   	
  === BLOCK LINK ===
    0x2a72
=== CODE BLOCK END ===

=== CODE BLOCK ADDRESS 0x2a72 ===
  0x2a72	int3   	
  0x2a73	jmp    	dword ptr [0x907]
  === BLOCK LINK ===
    0x2a79
=== CODE BLOCK END ===

=== CODE BLOCK ADDRESS 0x2a79 ===
  0x2a79	int3   	
  0x2a7a	int3   	
  0x2a7b	int3   	
  0x2a7c	int3   	
  0x2a7d	int3   	
  === BLOCK LINK ===
    0x2a7e
=== CODE BLOCK END ===

=== CODE BLOCK ADDRESS 0x2a7e ===
  0x2a7e	int3   	
  0x2a7f	int3   	
  0x2a80	xor    	eax, eax
  0x2a82	ret    	
  0x2a83	int3   	
  === BLOCK LINK ===
    0x2a84
=== CODE BLOCK END ===

=== CODE BLOCK ADDRESS 0x2a84 ===
  0x2a84	int3   	
  0x2a85	int3   	
  0x2a86	int3   	
  0x2a87	int3   	
  0x2a88	int3   	
  === BLOCK LINK ===
    0x2a89
=== CODE BLOCK END ===

=== CODE BLOCK ADDRESS 0x2a89 ===
  0x2a89	int3   	
  0x2a8a	int3   	
  0x2a8b	int3   	
  0x2a8c	int3   	
  0x2a8d	int3   	
  === BLOCK LINK ===
    0x2a8e
=== CODE BLOCK END ===

=== CODE BLOCK ADDRESS 0x2a8e ===
  0x2a8e	int3   	
  0x2a8f	int3   	
  0x2a90	dec    	esp
  0x2a91	arpl   	word ptr [ecx + 0x3c], ax
  0x2a94	inc    	ebp
  === BLOCK LINK ===
    0x2a95
=== CODE BLOCK END ===

=== CODE BLOCK ADDRESS 0x2a95 ===
  0x2a95	xor    	ecx, ecx
  0x2a97	dec    	esp
  0x2a98	add    	eax, ecx
  0x2a9a	dec    	esp
  0x2a9b	mov    	edx, edx
  === BLOCK LINK ===
    0x2a9d
=== CODE BLOCK END ===

=== CODE BLOCK ADDRESS 0x2a9d ===
  0x2a9d	inc    	ecx
  0x2a9e	movzx  	eax, word ptr [eax + 0x14]
  0x2aa2	inc    	ebp
  0x2aa3	movzx  	ebx, word ptr [eax + 6]
  0x2aa7	dec    	eax
  === BLOCK LINK ===
    0x2aa8
=== CODE BLOCK END ===

=== CODE BLOCK ADDRESS 0x2aa8 ===
  0x2aa8	add    	eax, 0x18
  0x2aab	dec    	ecx
  0x2aac	add    	eax, eax
  0x2aae	inc    	ebp
  0x2aaf	test   	ebx, ebx
  === BLOCK LINK ===
    0x2ab1
=== CODE BLOCK END ===

=== CODE BLOCK ADDRESS 0x2ab1 ===
  0x2ab1	je     	0x2ad1
  === BLOCK LINK ===
    0x2ab3
=== CODE BLOCK END ===

=== CODE BLOCK ADDRESS 0x2ab3 ===
  0x2ab3	mov    	edx, dword ptr [eax + 0xc]
  0x2ab6	dec    	esp
  0x2ab7	cmp    	edx, edx
  0x2ab9	jb     	0x2ac5
  === BLOCK LINK ===
    0x2abb
=== CODE BLOCK END ===

=== CODE BLOCK ADDRESS 0x2abb ===
  0x2abb	mov    	ecx, dword ptr [eax + 8]
  0x2abe	add    	ecx, edx
  0x2ac0	dec    	esp
  0x2ac1	cmp    	edx, ecx
  0x2ac3	jb     	0x2ad3
  === BLOCK LINK ===
    0x2ac5
=== CODE BLOCK END ===

=== CODE BLOCK ADDRESS 0x2ac5 ===
  0x2ac5	inc    	ecx
  0x2ac6	inc    	ecx
  0x2ac8	dec    	eax
  0x2ac9	add    	eax, 0x28
  0x2acc	inc    	ebp
  === BLOCK LINK ===
    0x2acd
=== CODE BLOCK END ===

=== CODE BLOCK ADDRESS 0x2acd ===
  0x2acd	cmp    	ecx, ebx
  0x2acf	jb     	0x2ab3
  === BLOCK LINK ===
    0x2ad1
=== CODE BLOCK END ===

=== CODE BLOCK ADDRESS 0x2ad1 ===
  0x2ad1	xor    	eax, eax
  0x2ad3	ret    	
  0x2ad4	int3   	
  0x2ad5	int3   	
  0x2ad6	int3   	
  === BLOCK LINK ===
    0x2ad7
=== CODE BLOCK END ===

=== CODE BLOCK ADDRESS 0x2ad7 ===
  0x2ad7	int3   	
  0x2ad8	int3   	
  0x2ad9	int3   	
  0x2ada	int3   	
  0x2adb	int3   	
  === BLOCK LINK ===
    0x2adc
=== CODE BLOCK END ===

=== CODE BLOCK ADDRESS 0x2adc ===
  0x2adc	int3   	
  0x2add	int3   	
  0x2ade	int3   	
  0x2adf	int3   	
  0x2ae0	dec    	eax
  === BLOCK LINK ===
    0x2ae1
=== CODE BLOCK END ===

=== CODE BLOCK ADDRESS 0x2ae1 ===
  0x2ae1	mov    	dword ptr [esp + 8], ebx
  0x2ae5	push   	edi
  0x2ae6	dec    	eax
  0x2ae7	sub    	esp, 0x20
  0x2aea	dec    	eax
  === BLOCK LINK ===
    0x2aeb
=== CODE BLOCK END ===

=== CODE BLOCK ADDRESS 0x2aeb ===
  0x2aeb	mov    	ebx, ecx
  0x2aed	dec    	eax
  0x2aee	lea    	edi, [0xffffd50c]
  0x2af4	dec    	eax
  0x2af5	mov    	ecx, edi
  === BLOCK LINK ===
    0x2af7
=== CODE BLOCK END ===

=== CODE BLOCK ADDRESS 0x2af7 ===
  0x2af7	call   	0x2b40
  === BLOCK LINK ===
    0x2afc
=== CODE BLOCK END ===

=== CODE BLOCK ADDRESS 0x2afc ===
  0x2afc	test   	eax, eax
  0x2afe	je     	0x2b22
  === BLOCK LINK ===
    0x2b00
=== CODE BLOCK END ===

=== CODE BLOCK ADDRESS 0x2b00 ===
  0x2b00	dec    	eax
  0x2b01	sub    	ebx, edi
  0x2b03	dec    	eax
  0x2b04	mov    	edx, ebx
  0x2b06	dec    	eax
  === BLOCK LINK ===
    0x2b07
=== CODE BLOCK END ===

=== CODE BLOCK ADDRESS 0x2b07 ===
  0x2b07	mov    	ecx, edi
  0x2b09	call   	0x2a90
  === BLOCK LINK ===
    0x2b0e
=== CODE BLOCK END ===

=== CODE BLOCK ADDRESS 0x2b0e ===
  0x2b0e	dec    	eax
  0x2b0f	test   	eax, eax
  0x2b11	je     	0x2b22
  === BLOCK LINK ===
    0x2b13
=== CODE BLOCK END ===

=== CODE BLOCK ADDRESS 0x2b13 ===
  0x2b13	mov    	eax, dword ptr [eax + 0x24]
  0x2b16	shr    	eax, 0x1f
  0x2b19	not    	eax
  0x2b1b	and    	eax, 1
  0x2b1e	jmp    	0x2b22
  === BLOCK LINK ===
    0x2b20
=== CODE BLOCK END ===

=== CODE BLOCK ADDRESS 0x2b20 ===
  0x2b20	xor    	eax, eax
  0x2b22	dec    	eax
  0x2b23	mov    	ebx, dword ptr [esp + 0x30]
  0x2b27	dec    	eax
  0x2b28	add    	esp, 0x20
  === BLOCK LINK ===
    0x2b2b
=== CODE BLOCK END ===

=== CODE BLOCK ADDRESS 0x2b2b ===
  0x2b2b	pop    	edi
  0x2b2c	ret    	
  0x2b2d	int3   	
  0x2b2e	int3   	
  0x2b2f	int3   	
  === BLOCK LINK ===
    0x2b30
=== CODE BLOCK END ===

=== CODE BLOCK ADDRESS 0x2b30 ===
  0x2b30	int3   	
  0x2b31	int3   	
  0x2b32	int3   	
  0x2b33	int3   	
  0x2b34	int3   	
  === BLOCK LINK ===
    0x2b35
=== CODE BLOCK END ===

=== CODE BLOCK ADDRESS 0x2b35 ===
  0x2b35	int3   	
  0x2b36	int3   	
  0x2b37	int3   	
  0x2b38	int3   	
  0x2b39	int3   	
  === BLOCK LINK ===
    0x2b3a
=== CODE BLOCK END ===

=== CODE BLOCK ADDRESS 0x2b3a ===
  0x2b3a	int3   	
  0x2b3b	int3   	
  0x2b3c	int3   	
  0x2b3d	int3   	
  0x2b3e	int3   	
  === BLOCK LINK ===
    0x2b3f
=== CODE BLOCK END ===

=== CODE BLOCK ADDRESS 0x2b3f ===
  0x2b3f	int3   	
  0x2b40	mov    	eax, 0x5a4d
  0x2b45	cmp    	word ptr [ecx], ax
  0x2b48	jne    	0x2b6a
  === BLOCK LINK ===
    0x2b4a
=== CODE BLOCK END ===

=== CODE BLOCK ADDRESS 0x2b4a ===
  0x2b4a	dec    	eax
  0x2b4b	arpl   	word ptr [ecx + 0x3c], ax
  0x2b4e	dec    	eax
  0x2b4f	add    	eax, ecx
  0x2b51	cmp    	dword ptr [eax], 0x4550
  === BLOCK LINK ===
    0x2b57
=== CODE BLOCK END ===

=== CODE BLOCK ADDRESS 0x2b57 ===
  0x2b57	jne    	0x2b6a
  === BLOCK LINK ===
    0x2b59
=== CODE BLOCK END ===

=== CODE BLOCK ADDRESS 0x2b59 ===
  0x2b59	mov    	ecx, 0x20b
  0x2b5e	cmp    	word ptr [eax + 0x18], cx
  0x2b62	jne    	0x2b6a
  === BLOCK LINK ===
    0x2b64
=== CODE BLOCK END ===

=== CODE BLOCK ADDRESS 0x2b64 ===
  0x2b64	mov    	eax, 1
  0x2b69	ret    	
  0x2b6a	xor    	eax, eax
  0x2b6c	ret    	
  0x2b6d	int3   	
  === BLOCK LINK ===
    0x2b6e
=== CODE BLOCK END ===

=== CODE BLOCK ADDRESS 0x12a5 ===
  0x12a5	dec    	esp
  0x12a6	mov    	eax, dword ptr [ebx + edi*8]
  0x12a9	dec    	eax
  0x12aa	mov    	ecx, eax
  === BLOCK LINK ===
    0x12ac
=== CODE BLOCK END ===

=== CODE BLOCK ADDRESS 0x2b6e ===
  0x2b6e	int3   	
  0x2b6f	int3   	
  0x2b70	int3   	
  0x2b71	int3   	
  0x2b72	int3   	
  === BLOCK LINK ===
    0x2b73
=== CODE BLOCK END ===

=== CODE BLOCK ADDRESS 0x2b73 ===
  0x2b73	int3   	
  0x2b74	dec    	eax
  0x2b75	mov    	dword ptr [esp + 0x20], ebx
  0x2b79	push   	ebp
  0x2b7a	dec    	eax
  === BLOCK LINK ===
    0x2b7b
=== CODE BLOCK END ===

=== CODE BLOCK ADDRESS 0x2b7b ===
  0x2b7b	mov    	ebp, esp
  0x2b7d	dec    	eax
  0x2b7e	sub    	esp, 0x20
  0x2b81	dec    	eax
  0x2b82	and    	dword ptr [ebp + 0x18], 0
  === BLOCK LINK ===
    0x2b86
=== CODE BLOCK END ===

=== CODE BLOCK ADDRESS 0x2b86 ===
  0x2b86	dec    	eax
  0x2b87	mov    	ebx, 0x2ddfa232
  0x2b8c	cdq    	
  0x2b8d	sub    	eax, dword ptr [eax]
  0x2b8f	add    	byte ptr [eax - 0x75], cl
  === BLOCK LINK ===
    0x2b92
=== CODE BLOCK END ===

=== CODE BLOCK ADDRESS 0x2b92 ===
  0x2b92	add    	eax, 0x2471
  0x2b97	dec    	eax
  0x2b98	cmp    	eax, ebx
  0x2b9a	jne    	0x2c33
  === BLOCK LINK ===
    0x2ba0
=== CODE BLOCK END ===

=== CODE BLOCK ADDRESS 0x2ba0 ===
  0x2ba0	dec    	eax
  0x2ba1	lea    	ecx, [ebp + 0x18]
  0x2ba4	call   	dword ptr [0x716]
  === BLOCK LINK ===
    0x2baa
=== CODE BLOCK END ===

=== CODE BLOCK ADDRESS 0x2baa ===
  0x2baa	dec    	eax
  0x2bab	mov    	eax, dword ptr [ebp + 0x18]
  0x2bae	dec    	eax
  0x2baf	mov    	dword ptr [ebp + 0x10], eax
  0x2bb2	call   	dword ptr [0x698]
  === BLOCK LINK ===
    0x2bb8
=== CODE BLOCK END ===

=== CODE BLOCK ADDRESS 0x2bb8 ===
  0x2bb8	mov    	eax, eax
  0x2bba	dec    	eax
  0x2bbb	xor    	dword ptr [ebp + 0x10], eax
  0x2bbe	call   	dword ptr [0x694]
  === BLOCK LINK ===
    0x2bc4
=== CODE BLOCK END ===

=== CODE BLOCK ADDRESS 0x2bc4 ===
  0x2bc4	mov    	eax, eax
  0x2bc6	dec    	eax
  0x2bc7	xor    	dword ptr [ebp + 0x10], eax
  0x2bca	call   	dword ptr [0x6f8]
  === BLOCK LINK ===
    0x2bd0
=== CODE BLOCK END ===

=== CODE BLOCK ADDRESS 0x2bd0 ===
  0x2bd0	mov    	eax, eax
  0x2bd2	dec    	eax
  0x2bd3	shl    	eax, 0x18
  0x2bd6	dec    	eax
  0x2bd7	xor    	dword ptr [ebp + 0x10], eax
  === BLOCK LINK ===
    0x2bda
=== CODE BLOCK END ===

=== CODE BLOCK ADDRESS 0x2bda ===
  0x2bda	call   	dword ptr [0x6e8]
  === BLOCK LINK ===
    0x2be0
=== CODE BLOCK END ===

=== CODE BLOCK ADDRESS 0x2be0 ===
  0x2be0	mov    	eax, eax
  0x2be2	dec    	eax
  0x2be3	lea    	ecx, [ebp + 0x10]
  0x2be6	dec    	eax
  0x2be7	xor    	eax, dword ptr [ebp + 0x10]
  === BLOCK LINK ===
    0x2bea
=== CODE BLOCK END ===

=== CODE BLOCK ADDRESS 0x2bea ===
  0x2bea	dec    	eax
  0x2beb	xor    	eax, ecx
  0x2bed	dec    	eax
  0x2bee	lea    	ecx, [ebp + 0x20]
  0x2bf1	dec    	eax
  === BLOCK LINK ===
    0x2bf2
=== CODE BLOCK END ===

=== CODE BLOCK ADDRESS 0x2bf2 ===
  0x2bf2	mov    	dword ptr [ebp + 0x10], eax
  0x2bf5	call   	dword ptr [0x675]
  === BLOCK LINK ===
    0x2bfb
=== CODE BLOCK END ===

=== CODE BLOCK ADDRESS 0x2bfb ===
  0x2bfb	mov    	eax, dword ptr [ebp + 0x20]
  0x2bfe	dec    	eax
  0x2bff	mov    	ecx, 0xffffffff
  0x2c04	.byte  	0xff
  0x2c05	inc    	dword ptr [eax]
  === BLOCK LINK ===
    0x2c07
=== CODE BLOCK END ===

=== CODE BLOCK ADDRESS 0x2c07 ===
  0x2c07	add    	byte ptr [eax - 0x3f], cl
  0x2c0a	loopne  	0x2c2c
  === BLOCK LINK ===
    0x2c0c
=== CODE BLOCK END ===

=== CODE BLOCK ADDRESS 0x2c0c ===
  0x2c0c	dec    	eax
  0x2c0d	xor    	eax, dword ptr [ebp + 0x20]
  0x2c10	dec    	eax
  0x2c11	xor    	eax, dword ptr [ebp + 0x10]
  0x2c14	dec    	eax
  === BLOCK LINK ===
    0x2c15
=== CODE BLOCK END ===

=== CODE BLOCK ADDRESS 0x2c15 ===
  0x2c15	and    	eax, ecx
  0x2c17	dec    	eax
  0x2c18	mov    	ecx, eax
  0x2c1a	dec    	eax
  0x2c1b	cmp    	eax, ebx
  === BLOCK LINK ===
    0x2c1d
=== CODE BLOCK END ===

=== CODE BLOCK ADDRESS 0x2c1d ===
  0x2c1d	jne    	0x2c2c
  === BLOCK LINK ===
    0x2c1f
=== CODE BLOCK END ===

=== CODE BLOCK ADDRESS 0x2c1f ===
  0x2c1f	dec    	eax
  0x2c20	mov    	eax, 0x2ddfa233
  0x2c25	cdq    	
  0x2c26	sub    	eax, dword ptr [eax]
  0x2c28	add    	byte ptr [eax - 0x75], cl
  === BLOCK LINK ===
    0x2c2b
=== CODE BLOCK END ===

=== CODE BLOCK ADDRESS 0x2c2b ===
  0x2c2b	enter  	-0x76b8, 0xd
  0x2c2f	aad    	0x23
  0x2c31	add    	byte ptr [eax], al
  0x2c33	dec    	eax
  0x2c34	mov    	ebx, dword ptr [esp + 0x48]
  === BLOCK LINK ===
    0x2c38
=== CODE BLOCK END ===

=== CODE BLOCK ADDRESS 0x2c38 ===
  0x2c38	dec    	eax
  0x2c39	not    	eax
  0x2c3b	dec    	eax
  0x2c3c	mov    	dword ptr [0x23ce], eax
  0x2c42	dec    	eax
  === BLOCK LINK ===
    0x2c43
=== CODE BLOCK END ===

=== CODE BLOCK ADDRESS 0x2c43 ===
  0x2c43	add    	esp, 0x20
  0x2c46	pop    	ebp
  0x2c47	ret    	
  0x2c48	int3   	
  0x2c49	int3   	
  === BLOCK LINK ===
    0x2c4a
=== CODE BLOCK END ===

=== CODE BLOCK ADDRESS 0x2c4a ===
  0x2c4a	int3   	
  0x2c4b	int3   	
  0x2c4c	int3   	
  0x2c4d	int3   	
  0x2c4e	jmp    	dword ptr [0x6f4]
  === BLOCK LINK ===
    0x2c54
=== CODE BLOCK END ===

=== CODE BLOCK ADDRESS 0x2c54 ===
  0x2c54	int3   	
  0x2c55	int3   	
  0x2c56	int3   	
  0x2c57	int3   	
  0x2c58	int3   	
  === BLOCK LINK ===
    0x2c59
=== CODE BLOCK END ===

=== CODE BLOCK ADDRESS 0x2c59 ===
  0x2c59	int3   	
  0x2c5a	jmp    	dword ptr [0x6e0]
  === BLOCK LINK ===
    0x2c60
=== CODE BLOCK END ===

=== CODE BLOCK ADDRESS 0x2c60 ===
  0x2c60	int3   	
  0x2c61	int3   	
  0x2c62	int3   	
  0x2c63	int3   	
  0x2c64	int3   	
  === BLOCK LINK ===
    0x2c65
=== CODE BLOCK END ===

=== CODE BLOCK ADDRESS 0x2c65 ===
  0x2c65	int3   	
  0x2c66	int3   	
  0x2c67	int3   	
  0x2c68	int3   	
  0x2c69	int3   	
  === BLOCK LINK ===
    0x2c6a
=== CODE BLOCK END ===

=== CODE BLOCK ADDRESS 0x2c6a ===
  0x2c6a	int3   	
  0x2c6b	int3   	
  0x2c6c	int3   	
  0x2c6d	int3   	
  0x2c6e	int3   	
  === BLOCK LINK ===
    0x2c6f
=== CODE BLOCK END ===

=== CODE BLOCK ADDRESS 0x2c6f ===
  0x2c6f	int3   	
  0x2c70	ret    	0
  0x2c73	int3   	
  0x2c74	int3   	
  0x2c75	int3   	
  === BLOCK LINK ===
    0x2c76
=== CODE BLOCK END ===

=== CODE BLOCK ADDRESS 0x2c76 ===
  0x2c76	int3   	
  0x2c77	int3   	
  0x2c78	int3   	
  0x2c79	int3   	
  0x2c7a	int3   	
  === BLOCK LINK ===
    0x2c7b
=== CODE BLOCK END ===

=== CODE BLOCK ADDRESS 0x2c7b ===
  0x2c7b	int3   	
  0x2c7c	inc    	eax
  0x2c7d	push   	ebx
  0x2c7e	dec    	eax
  0x2c7f	sub    	esp, 0x20
  === BLOCK LINK ===
    0x2c82
=== CODE BLOCK END ===

=== CODE BLOCK ADDRESS 0x2c82 ===
  0x2c82	dec    	eax
  0x2c83	mov    	ebx, ecx
  0x2c85	xor    	ecx, ecx
  0x2c87	call   	dword ptr [0x52b]
  === BLOCK LINK ===
    0x2c8d
=== CODE BLOCK END ===

=== CODE BLOCK ADDRESS 0x2c8d ===
  0x2c8d	dec    	eax
  0x2c8e	mov    	ecx, ebx
  0x2c90	call   	dword ptr [0x52a]
  === BLOCK LINK ===
    0x2c96
=== CODE BLOCK END ===

=== CODE BLOCK ADDRESS 0x2c96 ===
  0x2c96	call   	dword ptr [0x5c4]
  === BLOCK LINK ===
    0x2c9c
=== CODE BLOCK END ===

=== CODE BLOCK ADDRESS 0x2c9c ===
  0x2c9c	dec    	eax
  0x2c9d	mov    	ecx, eax
  0x2c9f	mov    	edx, 0xc0000409
  0x2ca4	dec    	eax
  0x2ca5	add    	esp, 0x20
  === BLOCK LINK ===
    0x2ca8
=== CODE BLOCK END ===

=== CODE BLOCK ADDRESS 0x2ca8 ===
  0x2ca8	pop    	ebx
  0x2ca9	dec    	eax
  0x2caa	jmp    	dword ptr [0x598]
  === BLOCK LINK ===
    0x2cb0
=== CODE BLOCK END ===

=== CODE BLOCK ADDRESS 0x2cb0 ===
  0x2cb0	int3   	
  0x2cb1	int3   	
  0x2cb2	int3   	
  0x2cb3	int3   	
  0x2cb4	int3   	
  === BLOCK LINK ===
    0x2cb5
=== CODE BLOCK END ===

=== CODE BLOCK ADDRESS 0x2cb5 ===
  0x2cb5	int3   	
  0x2cb6	int3   	
  0x2cb7	int3   	
  0x2cb8	int3   	
  0x2cb9	int3   	
  === BLOCK LINK ===
    0x2cba
=== CODE BLOCK END ===

=== CODE BLOCK ADDRESS 0x2cba ===
  0x2cba	int3   	
  0x2cbb	int3   	
  0x2cbc	int3   	
  0x2cbd	int3   	
  0x2cbe	int3   	
  === BLOCK LINK ===
    0x2cbf
=== CODE BLOCK END ===

=== CODE BLOCK ADDRESS 0x2cbf ===
  0x2cbf	int3   	
  0x2cc0	dec    	eax
  0x2cc1	mov    	dword ptr [esp + 8], ecx
  0x2cc5	dec    	eax
  0x2cc6	sub    	esp, 0x88
  === BLOCK LINK ===
    0x2ccc
=== CODE BLOCK END ===

=== CODE BLOCK ADDRESS 0x2ccc ===
  0x2ccc	dec    	eax
  0x2ccd	lea    	ecx, [0x24cd]
  0x2cd3	call   	dword ptr [0x5af]
  === BLOCK LINK ===
    0x2cd9
=== CODE BLOCK END ===

=== CODE BLOCK ADDRESS 0x2cd9 ===
  0x2cd9	dec    	eax
  0x2cda	mov    	eax, dword ptr [0x25b8]
  0x2ce0	dec    	eax
  0x2ce1	mov    	dword ptr [esp + 0x48], eax
  0x2ce5	inc    	ebp
  === BLOCK LINK ===
    0x2ce6
=== CODE BLOCK END ===

=== CODE BLOCK ADDRESS 0x2ce6 ===
  0x2ce6	xor    	eax, eax
  0x2ce8	dec    	eax
  0x2ce9	lea    	edx, [esp + 0x50]
  0x2ced	dec    	eax
  0x2cee	mov    	ecx, dword ptr [esp + 0x48]
  === BLOCK LINK ===
    0x2cf2
=== CODE BLOCK END ===

=== CODE BLOCK ADDRESS 0x2cf2 ===
  0x2cf2	call   	dword ptr [0x598]
  === BLOCK LINK ===
    0x2cf8
=== CODE BLOCK END ===

=== CODE BLOCK ADDRESS 0x2cf8 ===
  0x2cf8	dec    	eax
  0x2cf9	mov    	dword ptr [esp + 0x40], eax
  0x2cfd	dec    	eax
  0x2cfe	cmp    	dword ptr [esp + 0x40], 0
  0x2d03	je     	0x2d47
  === BLOCK LINK ===
    0x2d05
=== CODE BLOCK END ===

=== CODE BLOCK ADDRESS 0x2d05 ===
  0x2d05	dec    	eax
  0x2d06	mov    	dword ptr [esp + 0x38], 0
  0x2d0e	dec    	eax
  0x2d0f	lea    	eax, [esp + 0x58]
  0x2d13	dec    	eax
  === BLOCK LINK ===
    0x2d14
=== CODE BLOCK END ===

=== CODE BLOCK ADDRESS 0x2d14 ===
  0x2d14	mov    	dword ptr [esp + 0x30], eax
  0x2d18	dec    	eax
  0x2d19	lea    	eax, [esp + 0x60]
  0x2d1d	dec    	eax
  0x2d1e	mov    	dword ptr [esp + 0x28], eax
  === BLOCK LINK ===
    0x2d22
=== CODE BLOCK END ===

=== CODE BLOCK ADDRESS 0x2d22 ===
  0x2d22	dec    	eax
  0x2d23	lea    	eax, [0x2477]
  0x2d29	dec    	eax
  0x2d2a	mov    	dword ptr [esp + 0x20], eax
  0x2d2e	dec    	esp
  === BLOCK LINK ===
    0x2d2f
=== CODE BLOCK END ===

=== CODE BLOCK ADDRESS 0x2d2f ===
  0x2d2f	mov    	ecx, dword ptr [esp + 0x40]
  0x2d33	dec    	esp
  0x2d34	mov    	eax, dword ptr [esp + 0x48]
  0x2d38	dec    	eax
  0x2d39	mov    	edx, dword ptr [esp + 0x50]
  === BLOCK LINK ===
    0x2d3d
=== CODE BLOCK END ===

=== CODE BLOCK ADDRESS 0x2d3d ===
  0x2d3d	xor    	ecx, ecx
  0x2d3f	call   	dword ptr [0x53b]
  === BLOCK LINK ===
    0x2d45
=== CODE BLOCK END ===

=== CODE BLOCK ADDRESS 0x2d45 ===
  0x2d45	jmp    	0x2d6a
  === BLOCK LINK ===
    0x2d47
=== CODE BLOCK END ===

=== CODE BLOCK ADDRESS 0x2d47 ===
  0x2d47	dec    	eax
  0x2d48	mov    	eax, dword ptr [0x24ea]
  0x2d4e	dec    	eax
  0x2d4f	mov    	eax, dword ptr [eax]
  0x2d51	dec    	eax
  === BLOCK LINK ===
    0x2d52
=== CODE BLOCK END ===

=== CODE BLOCK ADDRESS 0x2d52 ===
  0x2d52	mov    	dword ptr [0x2540], eax
  0x2d58	dec    	eax
  0x2d59	mov    	eax, dword ptr [0x24d9]
  0x2d5f	dec    	eax
  0x2d60	add    	eax, 8
  === BLOCK LINK ===
    0x2d63
=== CODE BLOCK END ===

=== CODE BLOCK ADDRESS 0x2d63 ===
  0x2d63	dec    	eax
  0x2d64	mov    	dword ptr [0x24ce], eax
  0x2d6a	dec    	eax
  0x2d6b	mov    	eax, dword ptr [0x2527]
  0x2d71	dec    	eax
  === BLOCK LINK ===
    0x2d72
=== CODE BLOCK END ===

=== CODE BLOCK ADDRESS 0x2d72 ===
  0x2d72	mov    	dword ptr [0x2398], eax
  0x2d78	dec    	eax
  0x2d79	mov    	eax, dword ptr [esp + 0x90]
  0x2d80	dec    	eax
  0x2d81	mov    	dword ptr [0x2499], eax
  === BLOCK LINK ===
    0x2d87
=== CODE BLOCK END ===

=== CODE BLOCK ADDRESS 0x2d87 ===
  0x2d87	mov    	dword ptr [0x236f], 0xc0000409
  0x2d91	mov    	dword ptr [0x2369], 1
  0x2d9b	mov    	dword ptr [0x2373], 3
  0x2da5	mov    	eax, 8
  0x2daa	dec    	eax
  === BLOCK LINK ===
    0x2dab
=== CODE BLOCK END ===

=== CODE BLOCK ADDRESS 0x2dab ===
  0x2dab	imul   	eax, eax, 0
  0x2dae	dec    	eax
  0x2daf	lea    	ecx, [0x236b]
  0x2db5	dec    	eax
  0x2db6	mov    	dword ptr [ecx + eax], 2
  === BLOCK LINK ===
    0x2dbd
=== CODE BLOCK END ===

=== CODE BLOCK ADDRESS 0x2dbd ===
  0x2dbd	mov    	eax, 8
  0x2dc2	dec    	eax
  0x2dc3	imul   	eax, eax, 1
  0x2dc6	dec    	eax
  0x2dc7	lea    	ecx, [0x2353]
  === BLOCK LINK ===
    0x2dcd
=== CODE BLOCK END ===

=== CODE BLOCK ADDRESS 0x2dcd ===
  0x2dcd	dec    	eax
  0x2dce	mov    	edx, dword ptr [0x2234]
  0x2dd4	dec    	eax
  0x2dd5	mov    	dword ptr [ecx + eax], edx
  0x2dd8	mov    	eax, 8
  === BLOCK LINK ===
    0x2ddd
=== CODE BLOCK END ===

=== CODE BLOCK ADDRESS 0x2ddd ===
  0x2ddd	dec    	eax
  0x2dde	imul   	eax, eax, 2
  0x2de1	dec    	eax
  0x2de2	lea    	ecx, [0x2338]
  0x2de8	dec    	eax
  === BLOCK LINK ===
    0x2de9
=== CODE BLOCK END ===

=== CODE BLOCK ADDRESS 0x2de9 ===
  0x2de9	mov    	edx, dword ptr [0x2221]
  0x2def	dec    	eax
  0x2df0	mov    	dword ptr [ecx + eax], edx
  0x2df3	mov    	eax, 8
  0x2df8	dec    	eax
  === BLOCK LINK ===
    0x2df9
=== CODE BLOCK END ===

=== CODE BLOCK ADDRESS 0x2df9 ===
  0x2df9	imul   	eax, eax, 0
  0x2dfc	dec    	eax
  0x2dfd	mov    	ecx, dword ptr [0x2205]
  0x2e03	dec    	eax
  0x2e04	mov    	dword ptr [esp + eax + 0x68], ecx
  === BLOCK LINK ===
    0x2e08
=== CODE BLOCK END ===

=== CODE BLOCK ADDRESS 0x2e08 ===
  0x2e08	mov    	eax, 8
  0x2e0d	dec    	eax
  0x2e0e	imul   	eax, eax, 1
  0x2e11	dec    	eax
  0x2e12	mov    	ecx, dword ptr [0x21f8]
  === BLOCK LINK ===
    0x2e18
=== CODE BLOCK END ===

=== CODE BLOCK ADDRESS 0x2e18 ===
  0x2e18	dec    	eax
  0x2e19	mov    	dword ptr [esp + eax + 0x68], ecx
  0x2e1d	dec    	eax
  0x2e1e	lea    	ecx, [0x1dc]
  0x2e24	call   	0x2c7c
  === BLOCK LINK ===
    0x2e29
=== CODE BLOCK END ===

=== CODE BLOCK ADDRESS 0x2e29 ===
  0x2e29	dec    	eax
  0x2e2a	add    	esp, 0x88
  0x2e30	ret    	
  0x2e31	int3   	
  0x2e32	int3   	
  === BLOCK LINK ===
    0x2e33
=== CODE BLOCK END ===

=== CODE BLOCK ADDRESS 0x2e33 ===
  0x2e33	int3   	
  0x2e34	int3   	
  0x2e35	int3   	
  0x2e36	int3   	
  0x2e37	int3   	
  === BLOCK LINK ===
    0x2e38
=== CODE BLOCK END ===

=== CODE BLOCK ADDRESS 0x2e38 ===
  0x2e38	int3   	
  0x2e39	int3   	
  0x2e3a	int3   	
  0x2e3b	int3   	
  0x2e3c	int3   	
  === BLOCK LINK ===
    0x2e3d
=== CODE BLOCK END ===

=== CODE BLOCK ADDRESS 0x2e3d ===
  0x2e3d	int3   	
  0x2e3e	int3   	
  0x2e3f	int3   	
  0x2e40	int3   	
  0x2e41	int3   	
  === BLOCK LINK ===
    0x2e42
=== CODE BLOCK END ===

=== CODE BLOCK ADDRESS 0x2e42 ===
  0x2e42	int3   	
  0x2e43	int3   	
  0x2e44	int3   	
  0x2e45	int3   	
  0x2e46	int3   	
  === BLOCK LINK ===
    0x2e47
=== CODE BLOCK END ===

=== CODE BLOCK ADDRESS 0x2e47 ===
  0x2e47	int3   	
  0x2e48	inc    	eax
  0x2e49	push   	ebx
  0x2e4a	dec    	eax
  0x2e4b	sub    	esp, 0x20
  === BLOCK LINK ===
    0x2e4e
=== CODE BLOCK END ===

=== CODE BLOCK ADDRESS 0x2e4e ===
  0x2e4e	mov    	ebx, ecx
  0x2e50	call   	0x2e6c
  === BLOCK LINK ===
    0x2e55
=== CODE BLOCK END ===

=== CODE BLOCK ADDRESS 0x2e55 ===
  0x2e55	dec    	eax
  0x2e56	lea    	edx, [ebx + ebx*2]
  0x2e59	dec    	eax
  0x2e5a	shl    	edx, 4
  0x2e5d	dec    	eax
  === BLOCK LINK ===
    0x2e5e
=== CODE BLOCK END ===

=== CODE BLOCK ADDRESS 0x2e5e ===
  0x2e5e	add    	eax, edx
  0x2e60	dec    	eax
  0x2e61	add    	esp, 0x20
  0x2e64	pop    	ebx
  0x2e65	ret    	
  === BLOCK LINK ===
    0x2e66
=== CODE BLOCK END ===

=== CODE BLOCK ADDRESS 0x12b3 ===
  0x12b3	dec    	eax
  0x12b4	mov    	ebx, dword ptr [esp + 0x40]
  0x12b8	dec    	eax
  0x12b9	mov    	esi, dword ptr [esp + 0x48]
  === BLOCK LINK ===
    0x12bd
=== CODE BLOCK END ===

=== CODE BLOCK ADDRESS 0x2e66 ===
  0x2e66	int3   	
  0x2e67	int3   	
  0x2e68	int3   	
  0x2e69	int3   	
  0x2e6a	int3   	
  === BLOCK LINK ===
    0x2e6b
=== CODE BLOCK END ===

=== CODE BLOCK ADDRESS 0x2e6b ===
  0x2e6b	int3   	
  0x2e6c	jmp    	dword ptr [0x476]
  === BLOCK LINK ===
    0x2e72
=== CODE BLOCK END ===

=== CODE BLOCK ADDRESS 0x2e72 ===
  0x2e72	int3   	
  0x2e73	int3   	
  0x2e74	int3   	
  0x2e75	int3   	
  0x2e76	int3   	
  === BLOCK LINK ===
    0x2e77
=== CODE BLOCK END ===

=== CODE BLOCK ADDRESS 0x2e77 ===
  0x2e77	int3   	
  0x2e78	dec    	eax
  0x2e79	sub    	esp, 0x28
  0x2e7c	dec    	ebp
  0x2e7d	mov    	eax, dword ptr [ecx + 0x38]
  === BLOCK LINK ===
    0x2e80
=== CODE BLOCK END ===

=== CODE BLOCK ADDRESS 0x2e80 ===
  0x2e80	dec    	eax
  0x2e81	mov    	ecx, edx
  0x2e83	dec    	ecx
  0x2e84	mov    	edx, ecx
  0x2e86	call   	0x2e9c
  === BLOCK LINK ===
    0x2e8b
=== CODE BLOCK END ===

=== CODE BLOCK ADDRESS 0x2e8b ===
  0x2e8b	mov    	eax, 1
  0x2e90	dec    	eax
  0x2e91	add    	esp, 0x28
  0x2e94	ret    	
  0x2e95	int3   	
  === BLOCK LINK ===
    0x2e96
=== CODE BLOCK END ===

=== CODE BLOCK ADDRESS 0x2e96 ===
  0x2e96	int3   	
  0x2e97	int3   	
  0x2e98	int3   	
  0x2e99	int3   	
  0x2e9a	int3   	
  === BLOCK LINK ===
    0x2e9b
=== CODE BLOCK END ===

=== CODE BLOCK ADDRESS 0x2e9b ===
  0x2e9b	int3   	
  0x2e9c	inc    	eax
  0x2e9d	push   	ebx
  0x2e9e	inc    	ebp
  0x2e9f	mov    	ebx, dword ptr [eax]
  === BLOCK LINK ===
    0x2ea1
=== CODE BLOCK END ===

=== CODE BLOCK ADDRESS 0x2ea1 ===
  0x2ea1	dec    	eax
  0x2ea2	mov    	ebx, edx
  0x2ea4	inc    	ecx
  0x2ea5	and    	ebx, 0xfffffff8
  0x2ea8	dec    	esp
  === BLOCK LINK ===
    0x2ea9
=== CODE BLOCK END ===

=== CODE BLOCK ADDRESS 0x2ea9 ===
  0x2ea9	mov    	ecx, ecx
  0x2eab	inc    	ecx
  0x2eac	test   	byte ptr [eax], 4
  0x2eaf	dec    	esp
  0x2eb0	mov    	edx, ecx
  === BLOCK LINK ===
    0x2eb2
=== CODE BLOCK END ===

=== CODE BLOCK ADDRESS 0x2eb2 ===
  0x2eb2	je     	0x2ec7
  === BLOCK LINK ===
    0x2eb4
=== CODE BLOCK END ===

=== CODE BLOCK ADDRESS 0x2eb4 ===
  0x2eb4	inc    	ecx
  0x2eb5	mov    	eax, dword ptr [eax + 8]
  0x2eb8	dec    	ebp
  0x2eb9	arpl   	word ptr [eax + 4], dx
  0x2ebc	neg    	eax
  === BLOCK LINK ===
    0x2ebe
=== CODE BLOCK END ===

=== CODE BLOCK ADDRESS 0x2ebe ===
  0x2ebe	dec    	esp
  0x2ebf	add    	edx, ecx
  0x2ec1	dec    	eax
  0x2ec2	arpl   	ax, cx
  0x2ec4	dec    	esp
  === BLOCK LINK ===
    0x2ec5
=== CODE BLOCK END ===

=== CODE BLOCK ADDRESS 0x2ec5 ===
  0x2ec5	and    	edx, ecx
  0x2ec7	dec    	ecx
  0x2ec8	arpl   	bx, ax
  0x2eca	dec    	edx
  0x2ecb	mov    	edx, dword ptr [eax + edx]
  === BLOCK LINK ===
    0x2ece
=== CODE BLOCK END ===

=== CODE BLOCK ADDRESS 0x2ece ===
  0x2ece	dec    	eax
  0x2ecf	mov    	eax, dword ptr [ebx + 0x10]
  0x2ed2	mov    	ecx, dword ptr [eax + 8]
  0x2ed5	dec    	eax
  0x2ed6	mov    	eax, dword ptr [ebx + 8]
  === BLOCK LINK ===
    0x2ed9
=== CODE BLOCK END ===

=== CODE BLOCK ADDRESS 0x2ed9 ===
  0x2ed9	test   	byte ptr [ecx + eax + 3], 0xf
  0x2ede	je     	0x2eeb
  === BLOCK LINK ===
    0x2ee0
=== CODE BLOCK END ===

=== CODE BLOCK ADDRESS 0x2ee0 ===
  0x2ee0	movzx  	eax, byte ptr [ecx + eax + 3]
  0x2ee5	and    	eax, 0xfffffff0
  0x2ee8	dec    	esp
  0x2ee9	add    	ecx, eax
  0x2eeb	dec    	esp
  === BLOCK LINK ===
    0x2eec
=== CODE BLOCK END ===

=== CODE BLOCK ADDRESS 0x2eec ===
  0x2eec	xor    	ecx, edx
  0x2eee	dec    	ecx
  0x2eef	mov    	ecx, ecx
  0x2ef1	pop    	ebx
  0x2ef2	jmp    	0x2930
  === BLOCK LINK ===
    0x2ef7
=== CODE BLOCK END ===

=== CODE BLOCK ADDRESS 0x2ef7 ===
  0x2ef7	int3   	
  0x2ef8	int3   	
  0x2ef9	int3   	
  0x2efa	int3   	
  0x2efb	int3   	
  === BLOCK LINK ===
    0x2efc
=== CODE BLOCK END ===

=== CODE BLOCK ADDRESS 0x2efc ===
  0x2efc	int3   	
  0x2efd	jmp    	dword ptr [0x3f5]
  === BLOCK LINK ===
    0x2f03
=== CODE BLOCK END ===

=== CODE BLOCK ADDRESS 0x2f03 ===
  0x2f03	int3   	
  0x2f04	int3   	
  0x2f05	int3   	
  0x2f06	int3   	
  0x2f07	int3   	
  === BLOCK LINK ===
    0x2f08
=== CODE BLOCK END ===

=== CODE BLOCK ADDRESS 0x2f08 ===
  0x2f08	int3   	
  0x2f09	jmp    	dword ptr [0x491]
  === BLOCK LINK ===
    0x2f0f
=== CODE BLOCK END ===

=== CODE BLOCK ADDRESS 0x2f0f ===
  0x2f0f	int3   	
  0x2f10	int3   	
  0x2f11	int3   	
  0x2f12	int3   	
  0x2f13	int3   	
  === BLOCK LINK ===
    0x2f14
=== CODE BLOCK END ===

=== CODE BLOCK ADDRESS 0x2f14 ===
  0x2f14	int3   	
  0x2f15	int3   	
  0x2f16	nop    	word ptr [eax + eax]
  0x2f20	jmp    	eax
  === BLOCK LINK ===
    0x2f22
=== CODE BLOCK END ===

=== CODE BLOCK ADDRESS 0x2f22 ===
  0x2f22	int3   	
  0x2f23	int3   	
  0x2f24	int3   	
  0x2f25	int3   	
  0x2f26	int3   	
  === BLOCK LINK ===
    0x2f27
=== CODE BLOCK END ===

=== CODE BLOCK ADDRESS 0x2f27 ===
  0x2f27	int3   	
  0x2f28	int3   	
  0x2f29	int3   	
  0x2f2a	int3   	
  0x2f2b	int3   	
  === BLOCK LINK ===
    0x2f2c
=== CODE BLOCK END ===

=== CODE BLOCK ADDRESS 0x2f2c ===
  0x2f2c	int3   	
  0x2f2d	int3   	
  0x2f2e	int3   	
  0x2f2f	int3   	
  0x2f30	inc    	eax
  === BLOCK LINK ===
    0x2f31
=== CODE BLOCK END ===

=== CODE BLOCK ADDRESS 0x2f31 ===
  0x2f31	push   	ebp
  0x2f32	dec    	eax
  0x2f33	sub    	esp, 0x20
  0x2f36	dec    	eax
  0x2f37	mov    	ebp, edx
  === BLOCK LINK ===
    0x2f39
=== CODE BLOCK END ===

=== CODE BLOCK ADDRESS 0x2f39 ===
  0x2f39	dec    	eax
  0x2f3a	mov    	eax, dword ptr [ecx]
  0x2f3c	dec    	eax
  0x2f3d	mov    	edx, ecx
  0x2f3f	mov    	ecx, dword ptr [eax]
  === BLOCK LINK ===
    0x2f41
=== CODE BLOCK END ===

=== CODE BLOCK ADDRESS 0x2f41 ===
  0x2f41	call   	0x29be
  === BLOCK LINK ===
    0x2f46
=== CODE BLOCK END ===

=== CODE BLOCK ADDRESS 0x2f46 ===
  0x2f46	nop    	
  0x2f47	dec    	eax
  0x2f48	add    	esp, 0x20
  0x2f4b	pop    	ebp
  0x2f4c	ret    	
  === BLOCK LINK ===
    0x2f4d
=== CODE BLOCK END ===

=== CODE BLOCK ADDRESS 0x2f4d ===
  0x2f4d	int3   	
  0x2f4e	int3   	
  0x2f4f	int3   	
  0x2f50	int3   	
  0x2f51	int3   	
  === BLOCK LINK ===
    0x2f52
=== CODE BLOCK END ===

=== CODE BLOCK ADDRESS 0x2f52 ===
  0x2f52	int3   	
  0x2f53	int3   	
  0x2f54	int3   	
  0x2f55	int3   	
  0x2f56	int3   	
  === BLOCK LINK ===
    0x2f57
=== CODE BLOCK END ===

=== CODE BLOCK ADDRESS 0x2f57 ===
  0x2f57	int3   	
  0x2f58	int3   	
  0x2f59	int3   	
  0x2f5a	int3   	
  0x2f5b	int3   	
  === BLOCK LINK ===
    0x2f5c
=== CODE BLOCK END ===

=== CODE BLOCK ADDRESS 0x2f5c ===
  0x2f5c	int3   	
  0x2f5d	int3   	
  0x2f5e	int3   	
  0x2f5f	int3   	
  0x2f60	inc    	eax
  === BLOCK LINK ===
    0x2f61
=== CODE BLOCK END ===

=== CODE BLOCK ADDRESS 0x2f61 ===
  0x2f61	push   	ebp
  0x2f62	dec    	eax
  0x2f63	sub    	esp, 0x20
  0x2f66	dec    	eax
  0x2f67	mov    	ebp, edx
  === BLOCK LINK ===
    0x2f69
=== CODE BLOCK END ===

=== CODE BLOCK ADDRESS 0x2f69 ===
  0x2f69	dec    	eax
  0x2f6a	mov    	eax, dword ptr [ecx]
  0x2f6c	xor    	ecx, ecx
  0x2f6e	cmp    	dword ptr [eax], 0xc0000005
  0x2f74	sete   	cl
  === BLOCK LINK ===
    0x2f77
=== CODE BLOCK END ===

=== CODE BLOCK ADDRESS 0x2f77 ===
  0x2f77	mov    	eax, ecx
  0x2f79	dec    	eax
  0x2f7a	add    	esp, 0x20
  0x2f7d	pop    	ebp
  0x2f7e	ret    	
  === BLOCK LINK ===
    0x2f7f
=== CODE BLOCK END ===

=== CODE BLOCK ADDRESS 0x2f7f ===
  0x2f7f	int3   	
  0x2f80	add    	byte ptr [eax], al
  0x2f82	add    	byte ptr [eax], al
  0x2f84	add    	byte ptr [eax], al
  0x2f86	add    	byte ptr [eax], al
  === BLOCK LINK ===
    0x2f88
=== CODE BLOCK END ===

=== CODE BLOCK ADDRESS 0x2f88 ===
  0x2f88	add    	byte ptr [eax], al
  0x2f8a	add    	byte ptr [eax], al
  0x2f8c	add    	byte ptr [eax], al
  0x2f8e	add    	byte ptr [eax], al
  0x2f90	add    	byte ptr [eax], al
  === BLOCK LINK ===
    0x2f92
=== CODE BLOCK END ===

=== CODE BLOCK ADDRESS 0x2f92 ===
  0x2f92	add    	byte ptr [eax], al
  0x2f94	add    	byte ptr [eax], al
  0x2f96	add    	byte ptr [eax], al
  0x2f98	add    	byte ptr [eax], al
  0x2f9a	add    	byte ptr [eax], al
  === BLOCK LINK ===
    0x2f9c
=== CODE BLOCK END ===

=== CODE BLOCK ADDRESS 0x2f9c ===
  0x2f9c	add    	byte ptr [eax], al
  0x2f9e	add    	byte ptr [eax], al
  0x2fa0	add    	byte ptr [eax], al
  0x2fa2	add    	byte ptr [eax], al
  0x2fa4	add    	byte ptr [eax], al
  === BLOCK LINK ===
    0x2fa6
=== CODE BLOCK END ===

=== CODE BLOCK ADDRESS 0x2fa6 ===
  0x2fa6	add    	byte ptr [eax], al
  0x2fa8	add    	byte ptr [eax], al
  0x2faa	add    	byte ptr [eax], al
  0x2fac	add    	byte ptr [eax], al
  0x2fae	add    	byte ptr [eax], al
  === BLOCK LINK ===
    0x2fb0
=== CODE BLOCK END ===

=== CODE BLOCK ADDRESS 0x2fb0 ===
  0x2fb0	add    	byte ptr [eax], al
  0x2fb2	add    	byte ptr [eax], al
  0x2fb4	add    	byte ptr [eax], al
  0x2fb6	add    	byte ptr [eax], al
  0x2fb8	add    	byte ptr [eax], al
  === BLOCK LINK ===
    0x2fba
=== CODE BLOCK END ===

=== CODE BLOCK ADDRESS 0x2fba ===
  0x2fba	add    	byte ptr [eax], al
  0x2fbc	add    	byte ptr [eax], al
  0x2fbe	add    	byte ptr [eax], al
  0x2fc0	add    	byte ptr [eax], al
  0x2fc2	add    	byte ptr [eax], al
  === BLOCK LINK ===
    0x2fc4
=== CODE BLOCK END ===

=== CODE BLOCK ADDRESS 0x2fc4 ===
  0x2fc4	add    	byte ptr [eax], al
  0x2fc6	add    	byte ptr [eax], al
  0x2fc8	add    	byte ptr [eax], al
  0x2fca	add    	byte ptr [eax], al
  0x2fcc	add    	byte ptr [eax], al
  === BLOCK LINK ===
    0x2fce
=== CODE BLOCK END ===

=== CODE BLOCK ADDRESS 0x2fce ===
  0x2fce	add    	byte ptr [eax], al
  0x2fd0	add    	byte ptr [eax], al
  0x2fd2	add    	byte ptr [eax], al
  0x2fd4	add    	byte ptr [eax], al
  0x2fd6	add    	byte ptr [eax], al
  === BLOCK LINK ===
    0x2fd8
=== CODE BLOCK END ===

=== CODE BLOCK ADDRESS 0x2fd8 ===
  0x2fd8	add    	byte ptr [eax], al
  0x2fda	add    	byte ptr [eax], al
  0x2fdc	add    	byte ptr [eax], al
  0x2fde	add    	byte ptr [eax], al
  0x2fe0	add    	byte ptr [eax], al
  === BLOCK LINK ===
    0x2fe2
=== CODE BLOCK END ===

=== CODE BLOCK ADDRESS 0x2fe2 ===
  0x2fe2	add    	byte ptr [eax], al
  0x2fe4	add    	byte ptr [eax], al
  0x2fe6	add    	byte ptr [eax], al
  0x2fe8	add    	byte ptr [eax], al
  0x2fea	add    	byte ptr [eax], al
  === BLOCK LINK ===
    0x2fec
=== CODE BLOCK END ===

=== CODE BLOCK ADDRESS 0x2fec ===
  0x2fec	add    	byte ptr [eax], al
  0x2fee	add    	byte ptr [eax], al
  0x2ff0	add    	byte ptr [eax], al
  0x2ff2	add    	byte ptr [eax], al
  0x2ff4	add    	byte ptr [eax], al
  === BLOCK LINK ===
    0x2ff6
=== CODE BLOCK END ===

=== CODE BLOCK ADDRESS 0x2ff6 ===
  0x2ff6	add    	byte ptr [eax], al
  0x2ff8	add    	byte ptr [eax], al
  0x2ffa	add    	byte ptr [eax], al
  0x2ffc	add    	byte ptr [eax], al
=== CODE BLOCK END ===

=== DATA BLOCK ADDRESS 0x3000 ===
  0x3000	00 51 00 40 01 00 00 00 a0 51 00 40 01 00 00 00 	0Q0@00000Q0@0000
  0x3010	18 01 00 00 00 00 00 00 00 00 00 00 00 00 00 00 	0000000000000000
  0x3020	00 00 00 00 00 00 00 00 00 00 00 00 00 00 00 00 	0000000000000000
  0x3030	00 00 00 00 00 00 00 00 00 00 00 00 00 00 00 00 	0000000000000000
  0x3040	00 00 00 00 00 00 00 00 00 00 00 00 00 00 00 00 	0000000000000000
  0x3050	00 00 00 00 00 00 00 00 00 00 00 00 00 00 00 00 	0000000000000000
  0x3060	00 00 00 00 00 00 00 00 08 50 00 40 01 00 00 00 	000000000P0@0000
  0x3070	00 00 00 00 00 00 00 00 00 00 00 00 00 00 00 00 	0000000000000000
  0x3080	c0 33 00 40 01 00 00 00 c8 33 00 40 01 00 00 00 	030@0000030@0000
  0x3090	08 34 00 40 01 00 00 00 08 00 00 00 00 00 00 00 	040@000000000000
  0x30a0	00 75 01 00 00 00 00 00 00 00 00 00 00 00 00 00 	0u00000000000000
  0x30b0	00 00 00 00 00 00 00 00 00 00 00 00 00 00 00 00 	0000000000000000
  0x30c0	00 00 00 00 00 00 00 00 00 00 00 00 00 00 00 00 	0000000000000000
  0x30d0	00 00 00 00 00 00 00 00 00 00 00 00 00 00 00 00 	0000000000000000
  0x30e0	00 00 00 00 00 00 00 00 00 00 00 00 00 00 00 00 	0000000000000000
  0x30f0	00 00 00 00 00 00 00 00 00 00 00 00 00 00 00 00 	0000000000000000
  0x3100	00 00 00 00 00 00 00 00 00 00 00 00 00 00 00 00 	0000000000000000
  0x3110	00 00 00 00 00 00 00 00 00 00 00 00 00 00 00 00 	0000000000000000
  0x3120	00 00 00 00 00 00 00 00 88 3e 00 00 00 00 00 00 	000000000>000000
  0x3130	76 3e 00 00 00 00 00 00 e8 3d 00 00 00 00 00 00 	v>0000000=000000
  0x3140	0a 3e 00 00 00 00 00 00 1c 3e 00 00 00 00 00 00 	0>0000000>000000
  0x3150	00 00 00 00 00 00 00 00 17 00 00 00 00 00 00 80 	0000000000000000
  0x3160	fa 3d 00 00 00 00 00 00 74 00 00 00 00 00 00 80 	0=000000t0000000
  0x3170	b4 3e 00 00 00 00 00 00 a4 3e 00 00 00 00 00 00 	0>0000000>000000
  0x3180	98 3e 00 00 00 00 00 00 03 00 00 00 00 00 00 80 	0>00000000000000
  0x3190	73 00 00 00 00 00 00 80 6f 00 00 00 00 00 00 80 	s0000000o0000000
  0x31a0	00 00 00 00 00 00 00 00 04 42 00 00 00 00 00 00 	000000000B000000
  0x31b0	00 00 00 00 00 00 00 00 c4 3e 00 00 00 00 00 00 	000000000>000000
  0x31c0	a8 3f 00 00 00 00 00 00 36 3e 00 00 00 00 00 00 	0?0000006>000000
  0x31d0	00 00 00 00 00 00 00 00 4a 42 00 00 00 00 00 00 	00000000JB000000
  0x31e0	00 00 00 00 00 00 00 00 60 3e 00 00 00 00 00 00 	00000000`>000000
  0x31f0	00 00 00 00 00 00 00 00 f6 41 00 00 00 00 00 00 	000000000A000000
  0x3200	28 42 00 00 00 00 00 00 00 00 00 00 00 00 00 00 	(B00000000000000
  0x3210	e2 3e 00 00 00 00 00 00 00 00 00 00 00 00 00 00 	0>00000000000000
  0x3220	16 42 00 00 00 00 00 00 d2 3d 00 00 00 00 00 00 	0B0000000=000000
  0x3230	00 00 00 00 00 00 00 00 dc 41 00 00 00 00 00 00 	000000000A000000
  0x3240	00 00 00 00 00 00 00 00 d8 3f 00 00 00 00 00 00 	000000000?000000
  0x3250	10 3f 00 00 00 00 00 00 26 3f 00 00 00 00 00 00 	0?000000&?000000
  0x3260	c4 3f 00 00 00 00 00 00 00 00 00 00 00 00 00 00 	0?00000000000000
  0x3270	f6 3e 00 00 00 00 00 00 00 00 00 00 00 00 00 00 	0>00000000000000
  0x3280	94 3f 00 00 00 00 00 00 66 3f 00 00 00 00 00 00 	0?000000f?000000
  0x3290	7a 3f 00 00 00 00 00 00 00 00 00 00 00 00 00 00 	z?00000000000000
  0x32a0	34 42 00 00 00 00 00 00 00 00 00 00 00 00 00 00 	4B00000000000000
  0x32b0	2e 3e 00 00 00 00 00 00 00 00 00 00 00 00 00 00 	.>00000000000000
  0x32c0	3c 3f 00 00 00 00 00 00 56 3f 00 00 00 00 00 00 	<?000000V?000000
  0x32d0	00 00 00 00 00 00 00 00 be 3d 00 00 00 00 00 00 	000000000=000000
  0x32e0	a6 3d 00 00 00 00 00 00 66 41 00 00 00 00 00 00 	0=000000fA000000
  0x32f0	74 41 00 00 00 00 00 00 0c 43 00 00 00 00 00 00 	tA0000000C000000
  0x3300	92 41 00 00 00 00 00 00 9c 41 00 00 00 00 00 00 	0A0000000A000000
  0x3310	a8 41 00 00 00 00 00 00 b2 41 00 00 00 00 00 00 	0A0000000A000000
  0x3320	bc 41 00 00 00 00 00 00 c6 41 00 00 00 00 00 00 	0A0000000A000000
  0x3330	d0 41 00 00 00 00 00 00 9c 3d 00 00 00 00 00 00 	0A0000000=000000
  0x3340	84 3d 00 00 00 00 00 00 78 3d 00 00 00 00 00 00 	0=000000x=000000
  0x3350	64 3d 00 00 00 00 00 00 5a 3d 00 00 00 00 00 00 	d=000000Z=000000
  0x3360	52 3d 00 00 00 00 00 00 86 41 00 00 00 00 00 00 	R=0000000A000000
  0x3370	40 3d 00 00 00 00 00 00 2e 3d 00 00 00 00 00 00 	@=000000.=000000
  0x3380	20 3d 00 00 00 00 00 00 12 3d 00 00 00 00 00 00 	 =0000000=000000
  0x3390	08 3d 00 00 00 00 00 00 00 3d 00 00 00 00 00 00 	0=0000000=000000
  0x33a0	16 43 00 00 00 00 00 00 00 00 00 00 00 00 00 00 	0C00000000000000
  0x33b0	46 3e 00 00 00 00 00 00 00 00 00 00 00 00 00 00 	F>00000000000000
  0x33c0	70 2c 00 40 01 00 00 00 20 2f 00 40 01 00 00 00 	p,0@0000 /0@0000
  0x33d0	00 00 00 00 00 00 00 00 e0 26 00 40 01 00 00 00 	000000000&0@0000
  0x33e0	00 00 00 00 00 00 00 00 00 00 00 00 00 00 00 00 	0000000000000000
  0x33f0	00 26 00 40 01 00 00 00 a0 29 00 40 01 00 00 00 	0&0@00000)0@0000
  0x3400	00 00 00 00 00 00 00 00 00 26 00 00 e0 26 00 00 	000000000&000&00
  0x3410	00 29 00 00 60 29 00 00 a0 29 00 00 80 2a 00 00 	0)00`)000)000*00
  0x3420	70 2c 00 00 c0 2c 00 00 00 00 00 00 00 00 00 00 	p,000,0000000000
  0x3430	49 00 50 00 76 00 34 00 00 00 00 00 00 00 00 00 	I0P0v04000000000
  0x3440	49 00 50 00 76 00 36 00 00 00 00 00 00 00 00 00 	I0P0v06000000000
  0x3450	4f 00 75 00 74 00 70 00 75 00 74 00 45 00 6e 00 	O0u0t0p0u0t0E0n0
  0x3460	63 00 6f 00 64 00 69 00 6e 00 67 00 00 00 00 00 	c0o0d0i0n0g00000
  0x3470	55 00 6e 00 69 00 63 00 6f 00 64 00 65 00 00 00 	U0n0i0c0o0d0e000
  0x3480	41 00 6e 00 73 00 69 00 00 00 00 00 00 00 00 00 	A0n0s0i000000000
  0x3490	55 00 54 00 46 00 38 00 00 00 00 00 00 00 00 00 	U0T0F08000000000
  0x34a0	55 00 54 00 46 00 2d 00 38 00 00 00 ff fe 00 00 	U0T0F0-080000000
  0x34b0	ef bb bf 00 00 00 00 00 25 00 6c 00 73 00 00 00 	00000000%0l0s000
  0x34c0	00 00 00 00 85 e0 55 fc 00 00 00 00 02 00 00 00 	000000U000000000
  0x34d0	24 00 00 00 14 35 00 00 14 29 00 00 00 00 00 00 	$00005000)000000
  0x34e0	85 e0 55 fc 00 00 00 00 0d 00 00 00 f0 01 00 00 	00U0000000000000
  0x34f0	38 35 00 00 38 29 00 00 00 00 00 00 85 e0 55 fc 	85008)00000000U0
  0x3500	00 00 00 00 10 00 00 00 24 00 00 00 28 37 00 00 	00000000$000(700
  0x3510	28 2b 00 00 52 53 44 53 84 93 33 67 c1 44 23 d1 	(+00RSDS003g0D#0
  0x3520	9a cc f4 18 b1 fb b1 c5 01 00 00 00 74 72 61 63 	000000000000trac
  0x3530	65 72 74 2e 70 64 62 00 47 43 54 4c 00 10 00 00 	ert.pdb0GCTL0000
  0x3540	10 1f 00 00 2e 74 65 78 74 24 6d 6e 00 00 00 00 	0000.text$mn0000
  0x3550	10 2f 00 00 20 00 00 00 2e 74 65 78 74 24 6d 6e 	0/00 000.text$mn
  0x3560	24 30 30 00 30 2f 00 00 50 00 00 00 2e 74 65 78 	$0000/00P000.tex
  0x3570	74 24 78 00 00 30 00 00 28 01 00 00 2e 72 64 61 	t$x00000(000.rda
  0x3580	74 61 24 62 72 63 00 00 28 31 00 00 98 02 00 00 	ta$brc00(1000000
  0x3590	2e 69 64 61 74 61 24 35 00 00 00 00 c0 33 00 00 	.idata$500000300
  0x35a0	10 00 00 00 2e 30 30 63 66 67 00 00 d0 33 00 00 	0000.00cfg000300
  0x35b0	08 00 00 00 2e 43 52 54 24 58 43 41 00 00 00 00 	0000.CRT$XCA0000
  0x35c0	d8 33 00 00 08 00 00 00 2e 43 52 54 24 58 43 41 	03000000.CRT$XCA
  0x35d0	41 00 00 00 e0 33 00 00 08 00 00 00 2e 43 52 54 	A00003000000.CRT
  0x35e0	24 58 43 5a 00 00 00 00 e8 33 00 00 08 00 00 00 	$XCZ000003000000
  0x35f0	2e 43 52 54 24 58 49 41 00 00 00 00 f0 33 00 00 	.CRT$XIA00000300
  0x3600	08 00 00 00 2e 43 52 54 24 58 49 41 41 00 00 00 	0000.CRT$XIAA000
  0x3610	f8 33 00 00 08 00 00 00 2e 43 52 54 24 58 49 59 	03000000.CRT$XIY
  0x3620	00 00 00 00 00 34 00 00 08 00 00 00 2e 43 52 54 	000004000000.CRT
  0x3630	24 58 49 5a 00 00 00 00 08 34 00 00 28 00 00 00 	$XIZ00000400(000
  0x3640	2e 67 66 69 64 73 00 00 30 34 00 00 e4 00 00 00 	.gfids0004000000
  0x3650	2e 72 64 61 74 61 00 00 14 35 00 00 3c 02 00 00 	.rdata000500<000
  0x3660	2e 72 64 61 74 61 24 7a 7a 7a 64 62 67 00 00 00 	.rdata$zzzdbg000
  0x3670	50 37 00 00 9c 01 00 00 2e 78 64 61 74 61 00 00 	P7000000.xdata00
  0x3680	ec 38 00 00 68 01 00 00 2e 69 64 61 74 61 24 32 	0800h000.idata$2
  0x3690	00 00 00 00 54 3a 00 00 14 00 00 00 2e 69 64 61 	0000T:000000.ida
  0x36a0	74 61 24 33 00 00 00 00 68 3a 00 00 98 02 00 00 	ta$30000h:000000
  0x36b0	2e 69 64 61 74 61 24 34 00 00 00 00 00 3d 00 00 	.idata$400000=00
  0x36c0	20 06 00 00 2e 69 64 61 74 61 24 36 00 00 00 00 	 000.idata$60000
  0x36d0	00 50 00 00 c0 00 00 00 2e 64 61 74 61 00 00 00 	0P000000.data000
  0x36e0	c0 50 00 00 d8 08 00 00 2e 62 73 73 00 00 00 00 	0P000000.bss0000
  0x36f0	00 60 00 00 74 01 00 00 2e 70 64 61 74 61 00 00 	0`00t000.pdata00
  0x3700	00 70 00 00 f0 00 00 00 2e 72 73 72 63 24 30 31 	0p000000.rsrc$01
  0x3710	00 00 00 00 f0 70 00 00 48 07 00 00 2e 72 73 72 	00000p00H000.rsr
  0x3720	63 24 30 32 00 00 00 00 20 00 00 00 84 93 33 67 	c$020000 000003g
  0x3730	c1 44 23 d1 9a cc f4 18 b1 fb b1 c5 8a 08 f3 62 	0D#000000000000b
  0x3740	cf 35 1b ee 37 4b c1 db 85 e0 55 fc 00 00 00 00 	05007K0000U00000
  0x3750	19 21 07 00 0f 34 12 01 0f 01 0c 01 08 70 07 60 	0!00040000000p0`
  0x3760	06 50 00 00 78 2e 00 00 50 08 00 00 19 13 01 00 	0P00x.00P0000000
  0x3770	04 82 00 00 78 2e 00 00 30 00 00 00 19 13 01 00 	0000x.0000000000
  0x3780	04 a2 00 00 78 2e 00 00 40 00 00 00 01 06 02 00 	0000x.00@0000000
  0x3790	06 32 02 30 01 0f 06 00 0f 64 09 00 0f 34 08 00 	020000000d000400
  0x37a0	0f 52 0b 70 01 22 0c 00 22 c4 17 00 22 74 16 00 	0R0p0"00"000"t00
  0x37b0	22 64 15 00 22 34 14 00 22 f2 18 f0 16 e0 14 50 	"d00"400"000000P
  0x37c0	01 0a 04 00 0a 34 06 00 0a 32 06 70 19 30 0b 00 	00000400020p0000
  0x37d0	1f 34 78 01 1f 01 6e 01 10 f0 0e e0 0c d0 0a c0 	04x000n000000000
  0x37e0	08 70 07 60 06 50 00 00 78 2e 00 00 60 0b 00 00 	0p0`0P00x.00`000
  0x37f0	01 14 08 00 14 64 09 00 14 54 07 00 14 34 06 00 	00000d000T000400
  0x3800	14 32 10 70 01 0a 04 00 0a 34 08 00 0a 32 06 70 	020p00000400020p
  0x3810	19 2b 0b 00 19 54 29 00 19 34 28 00 19 01 20 00 	0+000T)004(000 0
  0x3820	12 f0 10 e0 0e c0 0c 70 0b 60 00 00 78 2e 00 00 	0000000p0`00x.00
  0x3830	f0 00 00 00 01 14 02 00 14 92 10 30 01 04 01 00 	0000000000000000
  0x3840	04 42 00 00 01 04 01 00 04 62 00 00 09 15 08 00 	0B0000000b000000
  0x3850	15 74 0a 00 15 64 09 00 15 34 08 00 15 52 11 f0 	0t000d0004000R00
  0x3860	5a 2c 00 00 01 00 00 00 45 27 00 00 ab 28 00 00 	Z,000000E'000(00
  0x3870	30 2f 00 00 ab 28 00 00 01 06 02 00 06 32 02 50 	0/000(000000020P
  0x3880	01 00 00 00 09 04 01 00 04 22 00 00 5a 2c 00 00 	000000000"00Z,00
  0x3890	01 00 00 00 dc 29 00 00 12 2a 00 00 01 00 00 00 	00000)000*000000
  0x38a0	12 2a 00 00 09 0a 04 00 0a 34 06 00 0a 32 06 70 	0*0000000400020p
  0x38b0	5a 2c 00 00 01 00 00 00 ed 2a 00 00 20 2b 00 00 	Z,0000000*00 +00
  0x38c0	60 2f 00 00 20 2b 00 00 01 0d 04 00 0d 34 09 00 	`/00 +0000000400
  0x38d0	0d 32 06 50 01 0c 02 00 0c 01 11 00 00 00 00 00 	020P000000000000
  0x38e0	01 00 00 00 01 02 01 00 02 30 00 00 18 3c 00 00 	0000000000000<00
  0x38f0	00 00 00 00 00 00 00 00 b2 3d 00 00 d8 32 00 00 	000000000=000200
  0x3900	98 3a 00 00 00 00 00 00 00 00 00 00 ec 3f 00 00 	0:00000000000?00
  0x3910	58 31 00 00 60 3b 00 00 00 00 00 00 00 00 00 00 	X100`;0000000000
  0x3920	f8 3f 00 00 20 32 00 00 68 3a 00 00 00 00 00 00 	0?00 200h:000000
  0x3930	00 00 00 00 20 40 00 00 28 31 00 00 f0 3b 00 00 	0000 @00(1000;00
  0x3940	00 00 00 00 00 00 00 00 2e 40 00 00 b0 32 00 00 	00000000.@000200
  0x3950	f8 3a 00 00 00 00 00 00 00 00 00 00 50 40 00 00 	0:0000000000P@00
  0x3960	b8 31 00 00 f0 3c 00 00 00 00 00 00 00 00 00 00 	01000<0000000000
  0x3970	7a 40 00 00 b0 33 00 00 28 3b 00 00 00 00 00 00 	z@000300(;000000
  0x3980	00 00 00 00 84 40 00 00 e8 31 00 00 50 3b 00 00 	00000@000100P;00
  0x3990	00 00 00 00 00 00 00 00 a4 40 00 00 10 32 00 00 	000000000@000200
  0x39a0	b0 3b 00 00 00 00 00 00 00 00 00 00 ce 40 00 00 	0;00000000000@00
  0x39b0	70 32 00 00 88 3b 00 00 00 00 00 00 00 00 00 00 	p2000;0000000000
  0x39c0	f2 40 00 00 48 32 00 00 00 3c 00 00 00 00 00 00 	0@00H2000<000000
  0x39d0	00 00 00 00 1c 41 00 00 c0 32 00 00 c0 3b 00 00 	00000A0002000;00
  0x39e0	00 00 00 00 00 00 00 00 40 41 00 00 80 32 00 00 	00000000@A000200
  0x39f0	78 3b 00 00 00 00 00 00 00 00 00 00 58 42 00 00 	x;0000000000XB00
  0x3a00	38 32 00 00 38 3b 00 00 00 00 00 00 00 00 00 00 	82008;0000000000
  0x3a10	86 42 00 00 f8 31 00 00 e8 3a 00 00 00 00 00 00 	0B0001000:000000
  0x3a20	00 00 00 00 a6 42 00 00 a8 31 00 00 e0 3b 00 00 	00000B0001000;00
  0x3a30	00 00 00 00 00 00 00 00 ca 42 00 00 a0 32 00 00 	000000000B000200
  0x3a40	18 3b 00 00 00 00 00 00 00 00 00 00 ec 42 00 00 	0;00000000000B00
  0x3a50	d8 31 00 00 00 00 00 00 00 00 00 00 00 00 00 00 	0100000000000000
  0x3a60	00 00 00 00 00 00 00 00 88 3e 00 00 00 00 00 00 	000000000>000000
  0x3a70	76 3e 00 00 00 00 00 00 e8 3d 00 00 00 00 00 00 	v>0000000=000000
  0x3a80	0a 3e 00 00 00 00 00 00 1c 3e 00 00 00 00 00 00 	0>0000000>000000
  0x3a90	00 00 00 00 00 00 00 00 17 00 00 00 00 00 00 80 	0000000000000000
  0x3aa0	fa 3d 00 00 00 00 00 00 74 00 00 00 00 00 00 80 	0=000000t0000000
  0x3ab0	b4 3e 00 00 00 00 00 00 a4 3e 00 00 00 00 00 00 	0>0000000>000000
  0x3ac0	98 3e 00 00 00 00 00 00 03 00 00 00 00 00 00 80 	0>00000000000000
  0x3ad0	73 00 00 00 00 00 00 80 6f 00 00 00 00 00 00 80 	s0000000o0000000
  0x3ae0	00 00 00 00 00 00 00 00 04 42 00 00 00 00 00 00 	000000000B000000
  0x3af0	00 00 00 00 00 00 00 00 c4 3e 00 00 00 00 00 00 	000000000>000000
  0x3b00	a8 3f 00 00 00 00 00 00 36 3e 00 00 00 00 00 00 	0?0000006>000000
  0x3b10	00 00 00 00 00 00 00 00 4a 42 00 00 00 00 00 00 	00000000JB000000
  0x3b20	00 00 00 00 00 00 00 00 60 3e 00 00 00 00 00 00 	00000000`>000000
  0x3b30	00 00 00 00 00 00 00 00 f6 41 00 00 00 00 00 00 	000000000A000000
  0x3b40	28 42 00 00 00 00 00 00 00 00 00 00 00 00 00 00 	(B00000000000000
  0x3b50	e2 3e 00 00 00 00 00 00 00 00 00 00 00 00 00 00 	0>00000000000000
  0x3b60	16 42 00 00 00 00 00 00 d2 3d 00 00 00 00 00 00 	0B0000000=000000
  0x3b70	00 00 00 00 00 00 00 00 dc 41 00 00 00 00 00 00 	000000000A000000
  0x3b80	00 00 00 00 00 00 00 00 d8 3f 00 00 00 00 00 00 	000000000?000000
  0x3b90	10 3f 00 00 00 00 00 00 26 3f 00 00 00 00 00 00 	0?000000&?000000
  0x3ba0	c4 3f 00 00 00 00 00 00 00 00 00 00 00 00 00 00 	0?00000000000000
  0x3bb0	f6 3e 00 00 00 00 00 00 00 00 00 00 00 00 00 00 	0>00000000000000
  0x3bc0	94 3f 00 00 00 00 00 00 66 3f 00 00 00 00 00 00 	0?000000f?000000
  0x3bd0	7a 3f 00 00 00 00 00 00 00 00 00 00 00 00 00 00 	z?00000000000000
  0x3be0	34 42 00 00 00 00 00 00 00 00 00 00 00 00 00 00 	4B00000000000000
  0x3bf0	2e 3e 00 00 00 00 00 00 00 00 00 00 00 00 00 00 	.>00000000000000
  0x3c00	3c 3f 00 00 00 00 00 00 56 3f 00 00 00 00 00 00 	<?000000V?000000
  0x3c10	00 00 00 00 00 00 00 00 be 3d 00 00 00 00 00 00 	000000000=000000
  0x3c20	a6 3d 00 00 00 00 00 00 66 41 00 00 00 00 00 00 	0=000000fA000000
  0x3c30	74 41 00 00 00 00 00 00 0c 43 00 00 00 00 00 00 	tA0000000C000000
  0x3c40	92 41 00 00 00 00 00 00 9c 41 00 00 00 00 00 00 	0A0000000A000000
  0x3c50	a8 41 00 00 00 00 00 00 b2 41 00 00 00 00 00 00 	0A0000000A000000
  0x3c60	bc 41 00 00 00 00 00 00 c6 41 00 00 00 00 00 00 	0A0000000A000000
  0x3c70	d0 41 00 00 00 00 00 00 9c 3d 00 00 00 00 00 00 	0A0000000=000000
  0x3c80	84 3d 00 00 00 00 00 00 78 3d 00 00 00 00 00 00 	0=000000x=000000
  0x3c90	64 3d 00 00 00 00 00 00 5a 3d 00 00 00 00 00 00 	d=000000Z=000000
  0x3ca0	52 3d 00 00 00 00 00 00 86 41 00 00 00 00 00 00 	R=0000000A000000
  0x3cb0	40 3d 00 00 00 00 00 00 2e 3d 00 00 00 00 00 00 	@=000000.=000000
  0x3cc0	20 3d 00 00 00 00 00 00 12 3d 00 00 00 00 00 00 	 =0000000=000000
  0x3cd0	08 3d 00 00 00 00 00 00 00 3d 00 00 00 00 00 00 	0=0000000=000000
  0x3ce0	16 43 00 00 00 00 00 00 00 00 00 00 00 00 00 00 	0C00000000000000
  0x3cf0	46 3e 00 00 00 00 00 00 00 00 00 00 00 00 00 00 	F>00000000000000
  0x3d00	32 04 65 78 69 74 00 00 1b 05 77 63 73 74 6f 75 	20exit0000wcstou
  0x3d10	6c 00 55 00 5f 58 63 70 74 46 69 6c 74 65 72 00 	l0U0_XcptFilter0
  0x3d20	ae 00 5f 61 6d 73 67 5f 65 78 69 74 00 00 9d 00 	00_amsg_exit0000
  0x3d30	5f 5f 77 67 65 74 6d 61 69 6e 61 72 67 73 00 00 	__wgetmainargs00
  0x3d40	8e 00 5f 5f 73 65 74 5f 61 70 70 5f 74 79 70 65 	00__set_app_type
  0x3d50	00 00 0e 01 5f 65 78 69 74 00 c1 00 5f 63 65 78 	0000_exit000_cex
  0x3d60	69 74 00 00 90 00 5f 5f 73 65 74 75 73 65 72 6d 	it0000__setuserm
  0x3d70	61 74 68 65 72 72 00 00 7d 01 5f 69 6e 69 74 74 	atherr00}0_initt
  0x3d80	65 72 6d 00 57 00 5f 5f 43 5f 73 70 65 63 69 66 	erm0W0__C_specif
  0x3d90	69 63 5f 68 61 6e 64 6c 65 72 00 00 27 01 5f 66 	ic_handler00'0_f
  0x3da0	6d 6f 64 65 00 00 d2 00 5f 63 6f 6d 6d 6f 64 65 	mode0000_commode
  0x3db0	00 00 6d 73 76 63 72 74 2e 64 6c 6c 00 00 2f 00 	00msvcrt.dll00/0
  0x3dc0	3f 74 65 72 6d 69 6e 61 74 65 40 40 59 41 58 58 	?terminate@@YAXX
  0x3dd0	5a 00 3f 00 53 65 74 54 68 72 65 61 64 55 49 4c 	Z0?0SetThreadUIL
  0x3de0	61 6e 67 75 61 67 65 00 98 00 49 63 6d 70 43 6c 	anguage000IcmpCl
  0x3df0	6f 73 65 48 61 6e 64 6c 65 00 07 00 47 65 74 41 	oseHandle000GetA
  0x3e00	64 64 72 49 6e 66 6f 57 00 00 99 00 49 63 6d 70 	ddrInfoW0000Icmp
  0x3e10	43 72 65 61 74 65 46 69 6c 65 00 00 97 00 49 63 	CreateFile0000Ic
  0x3e20	6d 70 36 53 65 6e 64 45 63 68 6f 32 00 00 2d 00 	mp6SendEcho200-0
  0x3e30	53 6c 65 65 70 00 05 00 47 65 74 4c 61 73 74 45 	Sleep000GetLastE
  0x3e40	72 72 6f 72 00 00 0e 00 52 74 6c 49 70 76 34 53 	rror0000RtlIpv4S
  0x3e50	74 72 69 6e 67 54 6f 41 64 64 72 65 73 73 57 00 	tringToAddressW0
  0x3e60	0a 00 48 65 61 70 53 65 74 49 6e 66 6f 72 6d 61 	00HeapSetInforma
  0x3e70	74 69 6f 6e 00 00 95 00 49 63 6d 70 36 43 72 65 	tion0000Icmp6Cre
  0x3e80	61 74 65 46 69 6c 65 00 9c 00 49 63 6d 70 53 65 	ateFile000IcmpSe
  0x3e90	6e 64 45 63 68 6f 32 00 3a 00 57 53 41 49 6f 63 	ndEcho20:0WSAIoc
  0x3ea0	74 6c 00 00 09 00 47 65 74 4e 61 6d 65 49 6e 66 	tl0000GetNameInf
  0x3eb0	6f 57 00 00 02 00 46 72 65 65 41 64 64 72 49 6e 	oW0000FreeAddrIn
  0x3ec0	66 6f 57 00 0f 00 53 65 74 55 6e 68 61 6e 64 6c 	foW000SetUnhandl
  0x3ed0	65 64 45 78 63 65 70 74 69 6f 6e 46 69 6c 74 65 	edExceptionFilte
  0x3ee0	72 00 14 00 47 65 74 4d 6f 64 75 6c 65 48 61 6e 	r000GetModuleHan
  0x3ef0	64 6c 65 57 00 00 00 00 51 75 65 72 79 50 65 72 	dleW0000QueryPer
  0x3f00	66 6f 72 6d 61 6e 63 65 43 6f 75 6e 74 65 72 00 	formanceCounter0
  0x3f10	0d 00 47 65 74 43 75 72 72 65 6e 74 50 72 6f 63 	00GetCurrentProc
  0x3f20	65 73 73 49 64 00 11 00 47 65 74 43 75 72 72 65 	essId000GetCurre
  0x3f30	6e 74 54 68 72 65 61 64 49 64 00 00 16 00 47 65 	ntThreadId0000Ge
  0x3f40	74 53 79 73 74 65 6d 54 69 6d 65 41 73 46 69 6c 	tSystemTimeAsFil
  0x3f50	65 54 69 6d 65 00 1a 00 47 65 74 54 69 63 6b 43 	eTime000GetTickC
  0x3f60	6f 75 6e 74 00 00 02 00 52 74 6c 43 61 70 74 75 	ount0000RtlCaptu
  0x3f70	72 65 43 6f 6e 74 65 78 74 00 0a 00 52 74 6c 4c 	reContext000RtlL
  0x3f80	6f 6f 6b 75 70 46 75 6e 63 74 69 6f 6e 45 6e 74 	ookupFunctionEnt
  0x3f90	72 79 00 00 10 00 52 74 6c 56 69 72 74 75 61 6c 	ry0000RtlVirtual
  0x3fa0	55 6e 77 69 6e 64 00 00 11 00 55 6e 68 61 6e 64 	Unwind0000Unhand
  0x3fb0	6c 65 64 45 78 63 65 70 74 69 6f 6e 46 69 6c 74 	ledExceptionFilt
  0x3fc0	65 72 00 00 0c 00 47 65 74 43 75 72 72 65 6e 74 	er0000GetCurrent
  0x3fd0	50 72 6f 63 65 73 73 00 4e 00 54 65 72 6d 69 6e 	Process0N0Termin
  0x3fe0	61 74 65 50 72 6f 63 65 73 73 00 00 57 53 32 5f 	ateProcess00WS2_
  0x3ff0	33 32 2e 64 6c 6c 00 00 61 70 69 2d 6d 73 2d 77 	32.dll00api-ms-w
  0x4000	69 6e 2d 63 6f 72 65 2d 6c 6f 63 61 6c 69 7a 61 	in-core-localiza
  0x4010	74 69 6f 6e 2d 6c 31 2d 32 2d 30 2e 64 6c 6c 00 	tion-l1-2-0.dll0
  0x4020	49 50 48 4c 50 41 50 49 2e 44 4c 4c 00 00 61 70 	IPHLPAPI.DLL00ap
  0x4030	69 2d 6d 73 2d 77 69 6e 2d 63 6f 72 65 2d 73 79 	i-ms-win-core-sy
  0x4040	6e 63 68 2d 6c 31 2d 32 2d 30 2e 64 6c 6c 00 00 	nch-l1-2-0.dll00
  0x4050	61 70 69 2d 6d 73 2d 77 69 6e 2d 63 6f 72 65 2d 	api-ms-win-core-
  0x4060	65 72 72 6f 72 68 61 6e 64 6c 69 6e 67 2d 6c 31 	errorhandling-l1
  0x4070	2d 31 2d 30 2e 64 6c 6c 00 00 6e 74 64 6c 6c 2e 	-1-0.dll00ntdll.
  0x4080	64 6c 6c 00 61 70 69 2d 6d 73 2d 77 69 6e 2d 63 	dll0api-ms-win-c
  0x4090	6f 72 65 2d 68 65 61 70 2d 6c 31 2d 31 2d 30 2e 	ore-heap-l1-1-0.
  0x40a0	64 6c 6c 00 61 70 69 2d 6d 73 2d 77 69 6e 2d 63 	dll0api-ms-win-c
  0x40b0	6f 72 65 2d 6c 69 62 72 61 72 79 6c 6f 61 64 65 	ore-libraryloade
  0x40c0	72 2d 6c 31 2d 32 2d 30 2e 64 6c 6c 00 00 61 70 	r-l1-2-0.dll00ap
  0x40d0	69 2d 6d 73 2d 77 69 6e 2d 63 6f 72 65 2d 70 72 	i-ms-win-core-pr
  0x40e0	6f 66 69 6c 65 2d 6c 31 2d 31 2d 30 2e 64 6c 6c 	ofile-l1-1-0.dll
  0x40f0	00 00 61 70 69 2d 6d 73 2d 77 69 6e 2d 63 6f 72 	00api-ms-win-cor
  0x4100	65 2d 70 72 6f 63 65 73 73 74 68 72 65 61 64 73 	e-processthreads
  0x4110	2d 6c 31 2d 31 2d 30 2e 64 6c 6c 00 61 70 69 2d 	-l1-1-0.dll0api-
  0x4120	6d 73 2d 77 69 6e 2d 63 6f 72 65 2d 73 79 73 69 	ms-win-core-sysi
  0x4130	6e 66 6f 2d 6c 31 2d 31 2d 30 2e 64 6c 6c 00 00 	nfo-l1-1-0.dll00
  0x4140	61 70 69 2d 6d 73 2d 77 69 6e 2d 63 6f 72 65 2d 	api-ms-win-core-
  0x4150	72 74 6c 73 75 70 70 6f 72 74 2d 6c 31 2d 31 2d 	rtlsupport-l1-1-
  0x4160	30 2e 64 6c 6c 00 81 00 5f 5f 69 6f 62 5f 66 75 	0.dll000__iob_fu
  0x4170	6e 63 00 00 55 01 5f 67 65 74 5f 6f 73 66 68 61 	nc00U0_get_osfha
  0x4180	6e 64 6c 65 00 00 8a 03 5f 77 63 73 69 63 6d 70 	ndle0000_wcsicmp
  0x4190	00 00 39 04 66 66 6c 75 73 68 00 00 c8 02 5f 73 	0090fflush0000_s
  0x41a0	65 74 6d 6f 64 65 00 00 e4 03 5f 77 72 69 74 65 	etmode0000_write
  0x41b0	00 00 1b 01 5f 66 69 6c 65 6e 6f 00 01 05 77 63 	0000_fileno000wc
  0x41c0	73 63 68 72 00 00 3b 04 66 67 65 74 70 6f 73 00 	schr00;0fgetpos0
  0x41d0	55 04 66 77 70 72 69 6e 74 66 00 00 0b 00 47 65 	U0fwprintf0000Ge
  0x41e0	74 45 6e 76 69 72 6f 6e 6d 65 6e 74 56 61 72 69 	tEnvironmentVari
  0x41f0	61 62 6c 65 57 00 08 00 4c 6f 63 61 6c 41 6c 6c 	ableW000LocalAll
  0x4200	6f 63 00 00 06 00 47 65 74 43 6f 6e 73 6f 6c 65 	oc0000GetConsole
  0x4210	4d 6f 64 65 00 00 09 00 46 6f 72 6d 61 74 4d 65 	Mode0000FormatMe
  0x4220	73 73 61 67 65 57 00 00 0a 00 4c 6f 63 61 6c 46 	ssageW0000LocalF
  0x4230	72 65 65 00 07 00 57 69 64 65 43 68 61 72 54 6f 	ree000WideCharTo
  0x4240	4d 75 6c 74 69 42 79 74 65 00 31 00 47 65 74 46 	MultiByte010GetF
  0x4250	69 6c 65 54 79 70 65 00 61 70 69 2d 6d 73 2d 77 	ileType0api-ms-w
  0x4260	69 6e 2d 63 6f 72 65 2d 70 72 6f 63 65 73 73 65 	in-core-processe
  0x4270	6e 76 69 72 6f 6e 6d 65 6e 74 2d 6c 31 2d 31 2d 	nvironment-l1-1-
  0x4280	30 2e 64 6c 6c 00 61 70 69 2d 6d 73 2d 77 69 6e 	0.dll0api-ms-win
  0x4290	2d 63 6f 72 65 2d 68 65 61 70 2d 6c 32 2d 31 2d 	-core-heap-l2-1-
  0x42a0	30 2e 64 6c 6c 00 61 70 69 2d 6d 73 2d 77 69 6e 	0.dll0api-ms-win
  0x42b0	2d 63 6f 72 65 2d 63 6f 6e 73 6f 6c 65 2d 6c 31 	-core-console-l1
  0x42c0	2d 31 2d 30 2e 64 6c 6c 00 00 61 70 69 2d 6d 73 	-1-0.dll00api-ms
  0x42d0	2d 77 69 6e 2d 63 6f 72 65 2d 73 74 72 69 6e 67 	-win-core-string
  0x42e0	2d 6c 31 2d 31 2d 30 2e 64 6c 6c 00 61 70 69 2d 	-l1-1-0.dll0api-
  0x42f0	6d 73 2d 77 69 6e 2d 63 6f 72 65 2d 66 69 6c 65 	ms-win-core-file
  0x4300	2d 6c 31 2d 31 2d 30 2e 64 6c 6c 00 92 04 6d 65 	-l1-1-0.dll000me
  0x4310	6d 63 70 79 00 00 96 04 6d 65 6d 73 65 74 00 00 	mcpy0000memset00
  0x4320	00 00 00 00 00 00 00 00 00 00 00 00 00 00 00 00 	0000000000000000
  0x4330	00 00 00 00 00 00 00 00 00 00 00 00 00 00 00 00 	0000000000000000
  0x4340	00 00 00 00 00 00 00 00 00 00 00 00 00 00 00 00 	0000000000000000
  0x4350	00 00 00 00 00 00 00 00 00 00 00 00 00 00 00 00 	0000000000000000
  0x4360	00 00 00 00 00 00 00 00 00 00 00 00 00 00 00 00 	0000000000000000
  0x4370	00 00 00 00 00 00 00 00 00 00 00 00 00 00 00 00 	0000000000000000
  0x4380	00 00 00 00 00 00 00 00 00 00 00 00 00 00 00 00 	0000000000000000
  0x4390	00 00 00 00 00 00 00 00 00 00 00 00 00 00 00 00 	0000000000000000
  0x43a0	00 00 00 00 00 00 00 00 00 00 00 00 00 00 00 00 	0000000000000000
  0x43b0	00 00 00 00 00 00 00 00 00 00 00 00 00 00 00 00 	0000000000000000
  0x43c0	00 00 00 00 00 00 00 00 00 00 00 00 00 00 00 00 	0000000000000000
  0x43d0	00 00 00 00 00 00 00 00 00 00 00 00 00 00 00 00 	0000000000000000
  0x43e0	00 00 00 00 00 00 00 00 00 00 00 00 00 00 00 00 	0000000000000000
  0x43f0	00 00 00 00 00 00 00 00 00 00 00 00 00 00 00 00 	0000000000000000
=== DATA BLOCK END ===

=== DATA BLOCK ADDRESS 0x5000 ===
  0x5000	01 00 00 00 00 00 00 00 32 a2 df 2d 99 2b 00 00 	00000000200-0+00
  0x5010	cd 5d 20 d2 66 d4 ff ff 00 00 00 00 00 00 00 00 	0] 0f00000000000
  0x5020	f9 2a 00 00 1f 27 00 00 fa 2a 00 00 20 27 00 00 	0*000'000*00 '00
  0x5030	fb 2a 00 00 21 27 00 00 fc 2a 00 00 22 27 00 00 	0*00!'000*00"'00
  0x5040	fd 2a 00 00 23 27 00 00 fe 2a 00 00 24 27 00 00 	0*00#'000*00$'00
  0x5050	ff 2a 00 00 25 27 00 00 00 2b 00 00 26 27 00 00 	0*00%'000+00&'00
  0x5060	01 2b 00 00 27 27 00 00 02 2b 00 00 28 27 00 00 	0+00''000+00('00
  0x5070	03 2b 00 00 29 27 00 00 04 2b 00 00 2a 27 00 00 	0+00)'000+00*'00
  0x5080	05 2b 00 00 2b 27 00 00 06 2b 00 00 2c 27 00 00 	0+00+'000+00,'00
  0x5090	07 2b 00 00 2d 27 00 00 08 2b 00 00 2e 27 00 00 	0+00-'000+00.'00
  0x50a0	09 2b 00 00 2f 27 00 00 0a 2b 00 00 30 27 00 00 	0+00/'000+000'00
  0x50b0	18 2b 00 00 3e 27 00 00 2a 2b 00 00 31 27 00 00 	0+00>'00*+001'00
  0x50c0	00 00 00 00 00 00 00 00 00 00 00 00 00 00 00 00 	0000000000000000
  0x50d0	00 00 00 00 00 00 00 00 00 00 00 00 00 00 00 00 	0000000000000000
  0x50e0	00 00 00 00 00 00 00 00 00 00 00 00 00 00 00 00 	0000000000000000
  0x50f0	00 00 00 00 00 00 00 00 00 00 00 00 00 00 00 00 	0000000000000000
  0x5100	00 00 00 00 00 00 00 00 00 00 00 00 00 00 00 00 	0000000000000000
  0x5110	00 00 00 00 00 00 00 00 00 00 00 00 00 00 00 00 	0000000000000000
  0x5120	00 00 00 00 00 00 00 00 00 00 00 00 00 00 00 00 	0000000000000000
  0x5130	00 00 00 00 00 00 00 00 00 00 00 00 00 00 00 00 	0000000000000000
  0x5140	00 00 00 00 00 00 00 00 00 00 00 00 00 00 00 00 	0000000000000000
  0x5150	00 00 00 00 00 00 00 00 00 00 00 00 00 00 00 00 	0000000000000000
  0x5160	00 00 00 00 00 00 00 00 00 00 00 00 00 00 00 00 	0000000000000000
  0x5170	00 00 00 00 00 00 00 00 00 00 00 00 00 00 00 00 	0000000000000000
  0x5180	00 00 00 00 00 00 00 00 00 00 00 00 00 00 00 00 	0000000000000000
  0x5190	00 00 00 00 00 00 00 00 00 00 00 00 00 00 00 00 	0000000000000000
  0x51a0	00 00 00 00 00 00 00 00 00 00 00 00 00 00 00 00 	0000000000000000
  0x51b0	00 00 00 00 00 00 00 00 00 00 00 00 00 00 00 00 	0000000000000000
  0x51c0	00 00 00 00 00 00 00 00 00 00 00 00 00 00 00 00 	0000000000000000
  0x51d0	00 00 00 00 00 00 00 00 00 00 00 00 00 00 00 00 	0000000000000000
  0x51e0	00 00 00 00 00 00 00 00 00 00 00 00 00 00 00 00 	0000000000000000
  0x51f0	00 00 00 00 00 00 00 00 00 00 00 00 00 00 00 00 	0000000000000000
=== DATA BLOCK END ===

=== DATA BLOCK ADDRESS 0x6000 ===
  0x6000	08 10 00 00 1e 11 00 00 50 37 00 00 24 11 00 00 	00000000P700$000
  0x6010	70 11 00 00 6c 37 00 00 78 11 00 00 d0 11 00 00 	p000l700x0000000
  0x6020	7c 37 00 00 d8 11 00 00 1a 12 00 00 8c 37 00 00 	|700000000000700
  0x6030	20 12 00 00 c4 12 00 00 94 37 00 00 cc 12 00 00 	 000000007000000
  0x6040	5b 14 00 00 a4 37 00 00 64 14 00 00 bb 14 00 00 	[0000700d0000000
  0x6050	c0 37 00 00 c4 14 00 00 8c 21 00 00 cc 37 00 00 	070000000!000700
  0x6060	94 21 00 00 34 22 00 00 f0 37 00 00 3c 22 00 00 	0!004"000700<"00
  0x6070	d9 22 00 00 04 38 00 00 e0 22 00 00 6a 25 00 00 	0"0008000"00j%00
  0x6080	10 38 00 00 70 25 00 00 eb 25 00 00 34 38 00 00 	0800p%000%004800
  0x6090	00 26 00 00 d3 26 00 00 3c 38 00 00 e0 26 00 00 	0&000&00<8000&00
  0x60a0	29 27 00 00 44 38 00 00 30 27 00 00 ee 28 00 00 	)'00D8000'000(00
  0x60b0	4c 38 00 00 00 29 00 00 12 29 00 00 3c 38 00 00 	L8000)000)00<800
  0x60c0	30 29 00 00 4e 29 00 00 80 38 00 00 60 29 00 00 	0)00N)000800`)00
  0x60d0	99 29 00 00 3c 38 00 00 a0 29 00 00 b8 29 00 00 	0)00<8000)000)00
  0x60e0	3c 38 00 00 cc 29 00 00 20 2a 00 00 84 38 00 00 	<8000)00 *000800
  0x60f0	28 2a 00 00 6d 2a 00 00 8c 37 00 00 e0 2a 00 00 	(*00m*0007000*00
  0x6100	2d 2b 00 00 a4 38 00 00 74 2b 00 00 48 2c 00 00 	-+000800t+00H,00
  0x6110	c8 38 00 00 7c 2c 00 00 b0 2c 00 00 8c 37 00 00 	0800|,000,000700
  0x6120	c0 2c 00 00 31 2e 00 00 d4 38 00 00 48 2e 00 00 	0,001.000800H.00
  0x6130	66 2e 00 00 8c 37 00 00 78 2e 00 00 95 2e 00 00 	f.000700x.000.00
  0x6140	3c 38 00 00 9c 2e 00 00 f7 2e 00 00 e4 38 00 00 	<8000.000.000800
  0x6150	20 2f 00 00 22 2f 00 00 e0 38 00 00 30 2f 00 00 	 /00"/0008000/00
  0x6160	4e 2f 00 00 78 38 00 00 60 2f 00 00 80 2f 00 00 	N/00x800`/000/00
  0x6170	78 38 00 00 00 00 00 00 00 00 00 00 00 00 00 00 	x800000000000000
  0x6180	00 00 00 00 00 00 00 00 00 00 00 00 00 00 00 00 	0000000000000000
  0x6190	00 00 00 00 00 00 00 00 00 00 00 00 00 00 00 00 	0000000000000000
  0x61a0	00 00 00 00 00 00 00 00 00 00 00 00 00 00 00 00 	0000000000000000
  0x61b0	00 00 00 00 00 00 00 00 00 00 00 00 00 00 00 00 	0000000000000000
  0x61c0	00 00 00 00 00 00 00 00 00 00 00 00 00 00 00 00 	0000000000000000
  0x61d0	00 00 00 00 00 00 00 00 00 00 00 00 00 00 00 00 	0000000000000000
  0x61e0	00 00 00 00 00 00 00 00 00 00 00 00 00 00 00 00 	0000000000000000
  0x61f0	00 00 00 00 00 00 00 00 00 00 00 00 00 00 00 00 	0000000000000000
=== DATA BLOCK END ===
