===== Assembly blocks =====

=== CODE BLOCK ADDRESS 0x1000 ===
  0x1000	int3   	
  0x1001	int3   	
  0x1002	int3   	
  0x1003	int3   	
  0x1004	int3   	
  === BLOCK LINK ===
    0x1005
=== CODE BLOCK END ===

=== CODE BLOCK ADDRESS 0x1005 ===
  0x1005	int3   	
  0x1006	int3   	
  0x1007	int3   	
  0x1008	dec    	eax
  0x1009	mov    	eax, esp
  === BLOCK LINK ===
    0x100b
=== CODE BLOCK END ===

=== CODE BLOCK ADDRESS 0x100b ===
  0x100b	dec    	eax
  0x100c	mov    	dword ptr [eax + 8], ebx
  0x100f	dec    	eax
  0x1010	mov    	dword ptr [eax + 0x10], ebp
  0x1013	dec    	esp
  === BLOCK LINK ===
    0x1014
=== CODE BLOCK END ===

=== CODE BLOCK ADDRESS 0x1014 ===
  0x1014	mov    	dword ptr [eax + 0x18], eax
  0x1017	push   	esi
  0x1018	push   	edi
  0x1019	inc    	ecx
  0x101a	push   	esi
  === BLOCK LINK ===
    0x101b
=== CODE BLOCK END ===

=== CODE BLOCK ADDRESS 0x101b ===
  0x101b	dec    	eax
  0x101c	sub    	esp, 0x40
  0x101f	xor    	esi, esi
  0x1021	mov    	ebx, 0x57
  0x1026	dec    	eax
  === BLOCK LINK ===
    0x1027
=== CODE BLOCK END ===

=== CODE BLOCK ADDRESS 0x1027 ===
  0x1027	and    	dword ptr [eax - 0x20], esi
  0x102a	and    	dword ptr [eax - 0x28], esi
  0x102d	dec    	eax
  0x102e	call   	dword ptr [0x1134]
  === BLOCK LINK ===
    0x1034
=== CODE BLOCK END ===

=== CODE BLOCK ADDRESS 0x1034 ===
  0x1034	nop    	dword ptr [eax + eax]
  0x1039	dec    	eax
  0x103a	test   	eax, eax
  0x103c	je     	0x1111
  === BLOCK LINK ===
    0x1042
    0x1111
=== CODE BLOCK END ===

=== CODE BLOCK ADDRESS 0x1042 ===
  0x1042	dec    	eax
  0x1043	lea    	edx, [esp + 0x70]
  0x1047	dec    	eax
  0x1048	mov    	ecx, eax
  0x104a	dec    	eax
  === BLOCK LINK ===
    0x104b
=== CODE BLOCK END ===

=== CODE BLOCK ADDRESS 0x104b ===
  0x104b	call   	dword ptr [0x113f]
  === BLOCK LINK ===
    0x1051
=== CODE BLOCK END ===

=== CODE BLOCK ADDRESS 0x1051 ===
  0x1051	nop    	dword ptr [eax + eax]
  0x1056	dec    	eax
  0x1057	mov    	edi, eax
  0x1059	dec    	eax
  0x105a	test   	eax, eax
  === BLOCK LINK ===
    0x105c
=== CODE BLOCK END ===

=== CODE BLOCK ADDRESS 0x105c ===
  0x105c	jne    	0x1066
  === BLOCK LINK ===
    0x105e
    0x1066
=== CODE BLOCK END ===

=== CODE BLOCK ADDRESS 0x105e ===
  0x105e	lea    	ebx, [esi + 0xe]
  0x1061	jmp    	0x1111
  === BLOCK LINK ===
    0x1066
    0x1111
=== CODE BLOCK END ===

=== CODE BLOCK ADDRESS 0x1066 ===
  0x1066	cmp    	dword ptr [esp + 0x70], 4
  0x106b	jne    	0x10f2
  === BLOCK LINK ===
    0x1071
    0x10f2
=== CODE BLOCK END ===

=== CODE BLOCK ADDRESS 0x1071 ===
  0x1071	dec    	eax
  0x1072	mov    	ebx, dword ptr [eax + 8]
  0x1075	mov    	edx, 2
  0x107a	dec    	eax
  0x107b	mov    	ebp, dword ptr [eax + 0x10]
  === BLOCK LINK ===
    0x107e
=== CODE BLOCK END ===

=== CODE BLOCK ADDRESS 0x107e ===
  0x107e	xor    	ecx, ecx
  0x1080	dec    	esp
  0x1081	mov    	esi, dword ptr [eax + 0x18]
  0x1084	dec    	eax
  0x1085	call   	dword ptr [0x1155]
  === BLOCK LINK ===
    0x108b
=== CODE BLOCK END ===

=== CODE BLOCK ADDRESS 0x108b ===
  0x108b	nop    	dword ptr [eax + eax]
  0x1090	test   	eax, eax
  0x1092	je     	0x109b
  === BLOCK LINK ===
    0x1094
    0x109b
=== CODE BLOCK END ===

=== CODE BLOCK ADDRESS 0x1094 ===
  0x1094	mov    	ebx, 5
  0x1099	jmp    	0x10f2
  === BLOCK LINK ===
    0x109b
    0x10f2
=== CODE BLOCK END ===

=== CODE BLOCK ADDRESS 0x109b ===
  0x109b	dec    	esp
  0x109c	lea    	eax, [esp + 0x38]
  0x10a0	dec    	eax
  0x10a1	mov    	ecx, ebx
  0x10a3	dec    	eax
  === BLOCK LINK ===
    0x10a4
=== CODE BLOCK END ===

=== CODE BLOCK ADDRESS 0x10a4 ===
  0x10a4	lea    	edx, [0x12f6]
  0x10aa	mov    	esi, 1
  0x10af	dec    	eax
  0x10b0	call   	dword ptr [0x1252]
  === BLOCK LINK ===
    0x10b6
=== CODE BLOCK END ===

=== CODE BLOCK ADDRESS 0x10b6 ===
  0x10b6	nop    	dword ptr [eax + eax]
  0x10bb	dec    	eax
  0x10bc	mov    	ecx, dword ptr [esp + 0x38]
  0x10c0	dec    	eax
  0x10c1	call   	dword ptr [0x10d9]
  === BLOCK LINK ===
    0x10c7
=== CODE BLOCK END ===

=== CODE BLOCK ADDRESS 0x10c7 ===
  0x10c7	nop    	dword ptr [eax + eax]
  0x10cc	dec    	ebp
  0x10cd	mov    	eax, esi
  0x10cf	dec    	eax
  0x10d0	mov    	edx, ebp
  === BLOCK LINK ===
    0x10d2
=== CODE BLOCK END ===

=== CODE BLOCK ADDRESS 0x10d2 ===
  0x10d2	neg    	eax
  0x10d4	dec    	eax
  0x10d5	lea    	eax, [esp + 0x30]
  0x10d9	dec    	eax
  0x10da	sbb    	ecx, ecx
  === BLOCK LINK ===
    0x10dc
=== CODE BLOCK END ===

=== CODE BLOCK ADDRESS 0x10dc ===
  0x10dc	dec    	eax
  0x10dd	mov    	dword ptr [esp + 0x28], eax
  0x10e1	dec    	eax
  0x10e2	and    	ecx, dword ptr [esp + 0x38]
  0x10e6	dec    	eax
  === BLOCK LINK ===
    0x10e7
=== CODE BLOCK END ===

=== CODE BLOCK ADDRESS 0x10e7 ===
  0x10e7	mov    	dword ptr [esp + 0x38], ecx
  0x10eb	call   	0x1244
  === BLOCK LINK ===
    0x10f0
    0x1244
=== CODE BLOCK END ===

=== CODE BLOCK ADDRESS 0x10f0 ===
  0x10f0	mov    	ebx, eax
  === BLOCK LINK ===
    0x10f2
=== CODE BLOCK END ===

=== CODE BLOCK ADDRESS 0x10fc ===
  0x10fc	nop    	dword ptr [eax + eax]
  0x1101	test   	esi, esi
  0x1103	je     	0x1111
  === BLOCK LINK ===
    0x1105
    0x1111
=== CODE BLOCK END ===

=== CODE BLOCK ADDRESS 0x1105 ===
  0x1105	dec    	eax
  0x1106	call   	dword ptr [0x10cc]
  === BLOCK LINK ===
    0x110c
=== CODE BLOCK END ===

=== CODE BLOCK ADDRESS 0x110c ===
  0x110c	nop    	dword ptr [eax + eax]
  === BLOCK LINK ===
    0x1111
=== CODE BLOCK END ===

=== CODE BLOCK ADDRESS 0x1119 ===
  0x1119	mov    	ebx, dword ptr [esp + 0x60]
  0x111d	dec    	eax
  0x111e	add    	esp, 0x40
  0x1121	inc    	ecx
  0x1122	pop    	esi
  === BLOCK LINK ===
    0x1123
=== CODE BLOCK END ===

=== CODE BLOCK ADDRESS 0x1123 ===
  0x1123	pop    	edi
  0x1124	pop    	esi
  0x1125	ret    	
  0x1126	int3   	
  0x1127	int3   	
  === BLOCK LINK ===
    0x1128
=== CODE BLOCK END ===

=== CODE BLOCK ADDRESS 0x1111 ===
  0x1111	dec    	eax
  0x1112	mov    	ebp, dword ptr [esp + 0x68]
  0x1116	mov    	eax, ebx
  0x1118	dec    	eax
  === BLOCK LINK ===
    0x1119
=== CODE BLOCK END ===

=== CODE BLOCK ADDRESS 0x1128 ===
  0x1128	int3   	
  0x1129	int3   	
  0x112a	int3   	
  0x112b	int3   	
  0x112c	int3   	
  === BLOCK LINK ===
    0x112d
=== CODE BLOCK END ===

=== CODE BLOCK ADDRESS 0x112d ===
  0x112d	int3   	
  0x112e	int3   	
  0x112f	int3   	
  === BLOCK LINK ===
    0x1130
=== CODE BLOCK END ===

=== CODE BLOCK ADDRESS 0x1133 ===
  0x1133	dec    	ecx
  0x1134	mov    	dword ptr [ebx + 0x10], ebx
  0x1137	push   	edi
  0x1138	dec    	eax
  0x1139	sub    	esp, 0x60
  === BLOCK LINK ===
    0x113c
=== CODE BLOCK END ===

=== CODE BLOCK ADDRESS 0x113c ===
  0x113c	dec    	eax
  0x113d	mov    	eax, dword ptr [0x1ec5]
  0x1143	dec    	eax
  0x1144	xor    	eax, esp
  0x1146	dec    	eax
  === BLOCK LINK ===
    0x1147
=== CODE BLOCK END ===

=== CODE BLOCK ADDRESS 0x1147 ===
  0x1147	mov    	dword ptr [esp + 0x58], eax
  0x114b	dec    	ecx
  0x114c	lea    	eax, [ebx - 0x28]
  0x114f	xor    	ebx, ebx
  0x1151	dec    	ecx
  === BLOCK LINK ===
    0x1152
=== CODE BLOCK END ===

=== CODE BLOCK ADDRESS 0x1152 ===
  0x1152	mov    	dword ptr [ebx - 0x30], eax
  0x1155	dec    	ebp
  0x1156	lea    	ecx, [ebx - 0x38]
  0x1159	dec    	ebp
  0x115a	lea    	eax, [ebx - 0x28]
  === BLOCK LINK ===
    0x115d
=== CODE BLOCK END ===

=== CODE BLOCK ADDRESS 0x115d ===
  0x115d	mov    	dword ptr [esp + 0x30], 0x14
  0x1165	lea    	edx, [ebx + 0xf]
  0x1168	dec    	eax
  0x1169	call   	dword ptr [0xfd1]
  === BLOCK LINK ===
    0x116f
=== CODE BLOCK END ===

=== CODE BLOCK ADDRESS 0x116f ===
  0x116f	nop    	dword ptr [eax + eax]
  0x1174	test   	eax, eax
  0x1176	je     	0x1220
  === BLOCK LINK ===
    0x117c
    0x1220
=== CODE BLOCK END ===

=== CODE BLOCK ADDRESS 0x117c ===
  0x117c	cmp    	dword ptr [esp + 0x30], 0x10
  0x1181	jb     	0x1220
  === BLOCK LINK ===
    0x1187
    0x1220
=== CODE BLOCK END ===

=== CODE BLOCK ADDRESS 0x1187 ===
  0x1187	dec    	eax
  0x1188	lea    	eax, [0x121a]
  0x118e	inc    	ecx
  0x118f	mov    	ecx, 0x21080
  0x1194	inc    	ebp
  === BLOCK LINK ===
    0x1195
=== CODE BLOCK END ===

=== CODE BLOCK ADDRESS 0x1195 ===
  0x1195	xor    	eax, eax
  0x1197	dec    	eax
  0x1198	mov    	dword ptr [esp + 0x20], eax
  0x119c	xor    	edx, edx
  0x119e	lea    	ecx, [ebx + 0xa]
  === BLOCK LINK ===
    0x11a1
=== CODE BLOCK END ===

=== CODE BLOCK ADDRESS 0x11a1 ===
  0x11a1	dec    	eax
  0x11a2	call   	dword ptr [0xfa0]
  === BLOCK LINK ===
    0x11a8
=== CODE BLOCK END ===

=== CODE BLOCK ADDRESS 0x11a8 ===
  0x11a8	nop    	dword ptr [eax + eax]
  0x11ad	dec    	eax
  0x11ae	mov    	edi, eax
  0x11b0	dec    	eax
  0x11b1	test   	eax, eax
  === BLOCK LINK ===
    0x11b3
=== CODE BLOCK END ===

=== CODE BLOCK ADDRESS 0x11b3 ===
  0x11b3	je     	0x1220
  === BLOCK LINK ===
    0x11b5
    0x1220
=== CODE BLOCK END ===

=== CODE BLOCK ADDRESS 0x11b5 ===
  0x11b5	inc    	ebp
  0x11b6	xor    	ecx, ecx
  0x11b8	inc    	esp
  0x11b9	lea    	eax, [ebx + 4]
  0x11bc	xor    	edx, edx
  === BLOCK LINK ===
    0x11be
=== CODE BLOCK END ===

=== CODE BLOCK ADDRESS 0x11be ===
  0x11be	dec    	eax
  0x11bf	mov    	ecx, eax
  0x11c1	dec    	eax
  0x11c2	call   	dword ptr [0xf70]
  === BLOCK LINK ===
    0x11c8
=== CODE BLOCK END ===

=== CODE BLOCK ADDRESS 0x11c8 ===
  0x11c8	nop    	dword ptr [eax + eax]
  0x11cd	dec    	eax
  0x11ce	lea    	eax, [esp + 0x30]
  0x11d2	dec    	eax
  0x11d3	mov    	dword ptr [esp + 0x28], ebx
  === BLOCK LINK ===
    0x11d7
=== CODE BLOCK END ===

=== CODE BLOCK ADDRESS 0x11d7 ===
  0x11d7	inc    	ecx
  0x11d8	mov    	ecx, 0xe0000
  0x11dd	dec    	eax
  0x11de	mov    	dword ptr [esp + 0x20], eax
  0x11e2	inc    	ebp
  === BLOCK LINK ===
    0x11e3
=== CODE BLOCK END ===

=== CODE BLOCK ADDRESS 0x11e3 ===
  0x11e3	xor    	eax, eax
  0x11e5	xor    	edx, edx
  0x11e7	dec    	eax
  0x11e8	mov    	ecx, edi
  0x11ea	dec    	eax
  === BLOCK LINK ===
    0x11eb
=== CODE BLOCK END ===

=== CODE BLOCK ADDRESS 0x11eb ===
  0x11eb	call   	dword ptr [0xf3f]
  === BLOCK LINK ===
    0x11f1
=== CODE BLOCK END ===

=== CODE BLOCK ADDRESS 0x11f1 ===
  0x11f1	nop    	dword ptr [eax + eax]
  0x11f6	dec    	eax
  0x11f7	test   	eax, eax
  0x11f9	je     	0x120f
  === BLOCK LINK ===
    0x11fb
    0x120f
=== CODE BLOCK END ===

=== CODE BLOCK ADDRESS 0x11fb ===
  0x11fb	mov    	ebx, 1
  0x1200	dec    	eax
  0x1201	mov    	ecx, eax
  0x1203	dec    	eax
  0x1204	call   	dword ptr [0xf1e]
  === BLOCK LINK ===
    0x120a
=== CODE BLOCK END ===

=== CODE BLOCK ADDRESS 0x120a ===
  0x120a	nop    	dword ptr [eax + eax]
  === BLOCK LINK ===
    0x120f
=== CODE BLOCK END ===

=== CODE BLOCK ADDRESS 0x1215 ===
  0x1215	call   	dword ptr [0xf35]
  === BLOCK LINK ===
    0x121b
=== CODE BLOCK END ===

=== CODE BLOCK ADDRESS 0x121b ===
  0x121b	nop    	dword ptr [eax + eax]
  === BLOCK LINK ===
    0x1220
=== CODE BLOCK END ===

=== CODE BLOCK ADDRESS 0x1228 ===
  0x1228	xor    	ecx, esp
  0x122a	call   	0x1830
  === BLOCK LINK ===
    0x122f
    0x1830
=== CODE BLOCK END ===

=== CODE BLOCK ADDRESS 0x122f ===
  0x122f	dec    	eax
  0x1230	mov    	ebx, dword ptr [esp + 0x78]
  0x1234	dec    	eax
  0x1235	add    	esp, 0x60
  0x1238	pop    	edi
  === BLOCK LINK ===
    0x1239
=== CODE BLOCK END ===

=== CODE BLOCK ADDRESS 0x1239 ===
  0x1239	ret    	
  0x123a	int3   	
  0x123b	int3   	
  0x123c	int3   	
  0x123d	int3   	
  === BLOCK LINK ===
    0x123e
=== CODE BLOCK END ===

=== CODE BLOCK ADDRESS 0x123e ===
  0x123e	int3   	
  0x123f	int3   	
  0x1240	int3   	
  0x1241	int3   	
  0x1242	int3   	
  === BLOCK LINK ===
    0x1243
=== CODE BLOCK END ===

=== CODE BLOCK ADDRESS 0x1243 ===
  0x1243	int3   	
  === BLOCK LINK ===
    0x1244
=== CODE BLOCK END ===

=== CODE BLOCK ADDRESS 0x1248 ===
  0x1248	push   	edi
  0x1249	inc    	ecx
  0x124a	push   	ebp
  0x124b	inc    	ecx
  0x124c	push   	esi
  === BLOCK LINK ===
    0x124d
=== CODE BLOCK END ===

=== CODE BLOCK ADDRESS 0x124d ===
  0x124d	inc    	ecx
  0x124e	push   	edi
  0x124f	dec    	eax
  0x1250	lea    	ebp, [esp - 0x50]
  0x1254	dec    	eax
  === BLOCK LINK ===
    0x1255
=== CODE BLOCK END ===

=== CODE BLOCK ADDRESS 0x1255 ===
  0x1255	sub    	esp, 0x150
  0x125b	dec    	eax
  0x125c	mov    	eax, dword ptr [0x1da6]
  0x1262	dec    	eax
  0x1263	xor    	eax, esp
  === BLOCK LINK ===
    0x1265
=== CODE BLOCK END ===

=== CODE BLOCK ADDRESS 0x1265 ===
  0x1265	dec    	eax
  0x1266	mov    	dword ptr [ebp + 0x40], eax
  0x1269	dec    	esp
  0x126a	mov    	edi, dword ptr [ebp + 0xb8]
  0x1270	dec    	esp
  === BLOCK LINK ===
    0x1271
=== CODE BLOCK END ===

=== CODE BLOCK ADDRESS 0x1271 ===
  0x1271	mov    	esi, edx
  0x1273	and    	dword ptr [esp + 0x44], 0
  0x1278	xor    	edx, edx
  0x127a	dec    	eax
  0x127b	and    	dword ptr [esp + 0x58], 0
  === BLOCK LINK ===
    0x1280
=== CODE BLOCK END ===

=== CODE BLOCK ADDRESS 0x1280 ===
  0x1280	dec    	ecx
  0x1281	mov    	ebx, eax
  0x1283	dec    	eax
  0x1284	mov    	edi, ecx
  0x1286	dec    	eax
  === BLOCK LINK ===
    0x1287
=== CODE BLOCK END ===

=== CODE BLOCK ADDRESS 0x1287 ===
  0x1287	lea    	ecx, [esp + 0x60]
  0x128b	inc    	esp
  0x128c	lea    	eax, [edx + 0x58]
  0x128f	call   	0x1dcd
  === BLOCK LINK ===
    0x1294
    0x1dcd
=== CODE BLOCK END ===

=== CODE BLOCK ADDRESS 0x1294 ===
  0x1294	dec    	eax
  0x1295	and    	dword ptr [esp + 0x30], 0
  0x129a	inc    	ebp
  0x129b	xor    	ecx, ecx
  0x129d	inc    	ecx
  === BLOCK LINK ===
    0x129e
=== CODE BLOCK END ===

=== CODE BLOCK ADDRESS 0x129e ===
  0x129e	and    	dword ptr [edi], 0
  0x12a1	mov    	edx, 0x80000000
  0x12a6	mov    	dword ptr [esp + 0x28], 0x80
  0x12ae	dec    	eax
  0x12af	mov    	ecx, ebx
  === BLOCK LINK ===
    0x12b1
=== CODE BLOCK END ===

=== CODE BLOCK ADDRESS 0x12b1 ===
  0x12b1	mov    	dword ptr [ebp + 0x20], 0xaac56b
  0x12b8	inc    	ebp
  0x12b9	lea    	ebp, [ecx + 1]
  0x12bc	mov    	dword ptr [ebp + 0x24], 0x11d0cd44
  0x12c3	inc    	ebp
  === BLOCK LINK ===
    0x12c4
=== CODE BLOCK END ===

=== CODE BLOCK ADDRESS 0x12c4 ===
  0x12c4	mov    	eax, ebp
  0x12c6	mov    	dword ptr [ebp + 0x28], 0xc000c28c
  0x12cd	mov    	dword ptr [ebp + 0x2c], 0xee95c24f
  0x12d4	mov    	dword ptr [esp + 0x20], 3
  0x12dc	dec    	eax
  === BLOCK LINK ===
    0x12dd
=== CODE BLOCK END ===

=== CODE BLOCK ADDRESS 0x12dd ===
  0x12dd	call   	dword ptr [0xe8d]
  === BLOCK LINK ===
    0x12e3
=== CODE BLOCK END ===

=== CODE BLOCK ADDRESS 0x12e3 ===
  0x12e3	nop    	dword ptr [eax + eax]
  0x12e8	dec    	eax
  0x12e9	mov    	esi, eax
  0x12eb	dec    	eax
  0x12ec	cmp    	eax, -1
  === BLOCK LINK ===
    0x12ef
=== CODE BLOCK END ===

=== CODE BLOCK ADDRESS 0x12ef ===
  0x12ef	jne    	0x1304
  === BLOCK LINK ===
    0x12f1
    0x1304
=== CODE BLOCK END ===

=== CODE BLOCK ADDRESS 0x12f1 ===
  0x12f1	dec    	eax
  0x12f2	call   	dword ptr [0xe88]
  === BLOCK LINK ===
    0x12f8
=== CODE BLOCK END ===

=== CODE BLOCK ADDRESS 0x12f8 ===
  0x12f8	nop    	dword ptr [eax + eax]
  0x12fd	mov    	edi, eax
  0x12ff	jmp    	0x1431
  === BLOCK LINK ===
    0x1304
    0x1431
=== CODE BLOCK END ===

=== CODE BLOCK ADDRESS 0x1304 ===
  0x1304	dec    	eax
  0x1305	lea    	eax, [esp + 0x40]
  0x1309	mov    	dword ptr [esp + 0x40], 0x20
  0x1311	dec    	esp
  0x1312	lea    	eax, [esp + 0x60]
  === BLOCK LINK ===
    0x1316
=== CODE BLOCK END ===

=== CODE BLOCK ADDRESS 0x1316 ===
  0x1316	dec    	eax
  0x1317	mov    	dword ptr [ebp - 0x78], eax
  0x131a	dec    	eax
  0x131b	lea    	edx, [ebp + 0x20]
  0x131e	dec    	eax
  === BLOCK LINK ===
    0x131f
=== CODE BLOCK END ===

=== CODE BLOCK ADDRESS 0x131f ===
  0x131f	mov    	dword ptr [esp + 0x50], esi
  0x1323	dec    	eax
  0x1324	mov    	ecx, edi
  0x1326	dec    	esp
  0x1327	mov    	dword ptr [esp + 0x48], esi
  === BLOCK LINK ===
    0x132b
=== CODE BLOCK END ===

=== CODE BLOCK ADDRESS 0x132b ===
  0x132b	mov    	dword ptr [esp + 0x60], 0x58
  0x1333	inc    	esp
  0x1334	mov    	dword ptr [ebp - 0x80], ebp
  0x1337	inc    	esp
  0x1338	mov    	dword ptr [esp + 0x78], ebp
  === BLOCK LINK ===
    0x133c
=== CODE BLOCK END ===

=== CODE BLOCK ADDRESS 0x133c ===
  0x133c	inc    	esp
  0x133d	mov    	dword ptr [ebp - 0x54], ebp
  0x1340	inc    	esp
  0x1341	mov    	dword ptr [ebp - 0x70], ebp
  0x1344	dec    	eax
  === BLOCK LINK ===
    0x1345
=== CODE BLOCK END ===

=== CODE BLOCK ADDRESS 0x1345 ===
  0x1345	call   	dword ptr [0xe65]
  === BLOCK LINK ===
    0x134b
=== CODE BLOCK END ===

=== CODE BLOCK ADDRESS 0x134b ===
  0x134b	nop    	dword ptr [eax + eax]
  0x1350	dec    	eax
  0x1351	mov    	ebx, dword ptr [ebp - 0x68]
  0x1354	inc    	ebp
  0x1355	xor    	esi, esi
  === BLOCK LINK ===
    0x1357
=== CODE BLOCK END ===

=== CODE BLOCK ADDRESS 0x1357 ===
  0x1357	dec    	eax
  0x1358	test   	ebx, ebx
  0x135a	mov    	edi, eax
  0x135c	inc    	ebp
  0x135d	cmovne  	esi, ebp
  === BLOCK LINK ===
    0x1360
=== CODE BLOCK END ===

=== CODE BLOCK ADDRESS 0x1360 ===
  0x1360	test   	eax, eax
  0x1362	jne    	0x13c3
  === BLOCK LINK ===
    0x1364
    0x13c3
=== CODE BLOCK END ===

=== CODE BLOCK ADDRESS 0x1364 ===
  0x1364	dec    	eax
  0x1365	test   	ebx, ebx
  0x1367	je     	0x13c3
  === BLOCK LINK ===
    0x1369
    0x13c3
=== CODE BLOCK END ===

=== CODE BLOCK ADDRESS 0x1369 ===
  0x1369	dec    	eax
  0x136a	mov    	ecx, ebx
  0x136c	dec    	eax
  0x136d	call   	dword ptr [0xe4d]
  === BLOCK LINK ===
    0x1373
=== CODE BLOCK END ===

=== CODE BLOCK ADDRESS 0x1373 ===
  0x1373	nop    	dword ptr [eax + eax]
  0x1378	dec    	eax
  0x1379	test   	eax, eax
  0x137b	je     	0x13bf
  === BLOCK LINK ===
    0x137d
    0x13bf
=== CODE BLOCK END ===

=== CODE BLOCK ADDRESS 0x137d ===
  0x137d	inc    	ebp
  0x137e	xor    	ecx, ecx
  0x1380	inc    	ebp
  0x1381	xor    	eax, eax
  0x1383	xor    	edx, edx
  === BLOCK LINK ===
    0x1385
=== CODE BLOCK END ===

=== CODE BLOCK ADDRESS 0x1385 ===
  0x1385	dec    	eax
  0x1386	mov    	ecx, eax
  0x1388	dec    	eax
  0x1389	call   	dword ptr [0xe29]
  === BLOCK LINK ===
    0x138f
=== CODE BLOCK END ===

=== CODE BLOCK ADDRESS 0x138f ===
  0x138f	nop    	dword ptr [eax + eax]
  0x1394	dec    	eax
  0x1395	test   	eax, eax
  0x1397	je     	0x13bf
  === BLOCK LINK ===
    0x1399
    0x13bf
=== CODE BLOCK END ===

=== CODE BLOCK ADDRESS 0x1399 ===
  0x1399	xor    	edx, edx
  0x139b	dec    	eax
  0x139c	mov    	ecx, eax
  0x139e	dec    	eax
  0x139f	call   	dword ptr [0xe23]
  === BLOCK LINK ===
    0x13a5
=== CODE BLOCK END ===

=== CODE BLOCK ADDRESS 0x13a5 ===
  0x13a5	nop    	dword ptr [eax + eax]
  0x13aa	dec    	eax
  0x13ab	test   	eax, eax
  0x13ad	je     	0x13bf
  === BLOCK LINK ===
    0x13af
    0x13bf
=== CODE BLOCK END ===

=== CODE BLOCK ADDRESS 0x13af ===
  0x13af	dec    	eax
  0x13b0	mov    	ecx, dword ptr [eax + 8]
  0x13b3	call   	0x1130
  === BLOCK LINK ===
    0x13b8
    0x1130
=== CODE BLOCK END ===

=== CODE BLOCK ADDRESS 0x13b8 ===
  0x13b8	test   	eax, eax
  0x13ba	je     	0x13bf
  === BLOCK LINK ===
    0x13bc
=== CODE BLOCK END ===

=== CODE BLOCK ADDRESS 0x13bc ===
  0x13bc	inc    	ebp
  0x13bd	mov    	dword ptr [edi], ebp
  === BLOCK LINK ===
    0x13bf
=== CODE BLOCK END ===

=== CODE BLOCK ADDRESS 0x13c4 ===
  0x13c4	test   	esi, esi
  0x13c6	je     	0x141d
  === BLOCK LINK ===
    0x13c8
=== CODE BLOCK END ===

=== CODE BLOCK ADDRESS 0x13c8 ===
  0x13c8	inc    	ecx
  0x13c9	mov    	esi, 0x58
  0x13ce	mov    	dword ptr [ebp + 0x30], 0xaac56b
  0x13d5	inc    	ebp
  0x13d6	mov    	eax, esi
  === BLOCK LINK ===
    0x13d8
=== CODE BLOCK END ===

=== CODE BLOCK ADDRESS 0x13d8 ===
  0x13d8	mov    	dword ptr [ebp + 0x34], 0x11d0cd44
  0x13df	xor    	edx, edx
  0x13e1	mov    	dword ptr [ebp + 0x38], 0xc000c28c
  0x13e8	dec    	eax
  0x13e9	lea    	ecx, [ebp - 0x40]
  === BLOCK LINK ===
    0x13ec
=== CODE BLOCK END ===

=== CODE BLOCK ADDRESS 0x13ec ===
  0x13ec	mov    	dword ptr [ebp + 0x3c], 0xee95c24f
  0x13f3	call   	0x1dcd
  === BLOCK LINK ===
    0x13f8
=== CODE BLOCK END ===

=== CODE BLOCK ADDRESS 0x13f8 ===
  0x13f8	dec    	esp
  0x13f9	lea    	eax, [ebp - 0x40]
  0x13fc	inc    	esp
  0x13fd	mov    	dword ptr [ebp - 0x40], esi
  0x1400	dec    	eax
  === BLOCK LINK ===
    0x1401
=== CODE BLOCK END ===

=== CODE BLOCK ADDRESS 0x1401 ===
  0x1401	lea    	edx, [ebp + 0x30]
  0x1404	mov    	dword ptr [ebp - 0x10], 2
  0x140b	xor    	ecx, ecx
  0x140d	dec    	eax
  0x140e	mov    	dword ptr [ebp - 8], ebx
  === BLOCK LINK ===
    0x1411
=== CODE BLOCK END ===

=== CODE BLOCK ADDRESS 0x1411 ===
  0x1411	dec    	eax
  0x1412	call   	dword ptr [0xd98]
  === BLOCK LINK ===
    0x1418
=== CODE BLOCK END ===

=== CODE BLOCK ADDRESS 0x1418 ===
  0x1418	nop    	dword ptr [eax + eax]
  0x141d	dec    	eax
  0x141e	test   	esi, esi
  0x1420	je     	0x1431
  === BLOCK LINK ===
    0x1422
=== CODE BLOCK END ===

=== CODE BLOCK ADDRESS 0x1422 ===
  0x1422	dec    	eax
  0x1423	mov    	ecx, esi
  0x1425	dec    	eax
  0x1426	call   	dword ptr [0xd4c]
  === BLOCK LINK ===
    0x142c
=== CODE BLOCK END ===

=== CODE BLOCK ADDRESS 0x142c ===
  0x142c	nop    	dword ptr [eax + eax]
  === BLOCK LINK ===
    0x1431
=== CODE BLOCK END ===

=== CODE BLOCK ADDRESS 0x1438 ===
  0x1438	xor    	ecx, esp
  0x143a	call   	0x1830
  === BLOCK LINK ===
    0x143f
=== CODE BLOCK END ===

=== CODE BLOCK ADDRESS 0x143f ===
  0x143f	dec    	eax
  0x1440	add    	esp, 0x150
  0x1446	inc    	ecx
  0x1447	pop    	edi
  0x1448	inc    	ecx
  === BLOCK LINK ===
    0x1449
=== CODE BLOCK END ===

=== CODE BLOCK ADDRESS 0x1449 ===
  0x1449	pop    	esi
  0x144a	inc    	ecx
  0x144b	pop    	ebp
  0x144c	pop    	edi
  0x144d	pop    	esi
  === BLOCK LINK ===
    0x144e
=== CODE BLOCK END ===

=== CODE BLOCK ADDRESS 0x144e ===
  0x144e	pop    	ebx
  0x144f	pop    	ebp
  0x1450	ret    	
  0x1451	int3   	
  0x1452	int3   	
  === BLOCK LINK ===
    0x1453
=== CODE BLOCK END ===

=== CODE BLOCK ADDRESS 0x1453 ===
  0x1453	int3   	
  0x1454	int3   	
  0x1455	int3   	
  0x1456	int3   	
  0x1457	int3   	
  === BLOCK LINK ===
    0x1458
=== CODE BLOCK END ===

=== CODE BLOCK ADDRESS 0x1458 ===
  0x1458	int3   	
  0x1459	int3   	
  0x145a	int3   	
  0x145b	int3   	
  0x145c	int3   	
  === BLOCK LINK ===
    0x145d
=== CODE BLOCK END ===

=== CODE BLOCK ADDRESS 0x145d ===
  0x145d	int3   	
  0x145e	int3   	
  0x145f	int3   	
  0x1460	dec    	eax
  0x1461	sub    	esp, 0x28
  === BLOCK LINK ===
    0x1464
=== CODE BLOCK END ===

=== CODE BLOCK ADDRESS 0x1464 ===
  0x1464	mov    	eax, 0x5a4d
  0x1469	cmp    	word ptr [0xffffeb90], ax
  0x1470	je     	0x1476
  === BLOCK LINK ===
    0x1472
=== CODE BLOCK END ===

=== CODE BLOCK ADDRESS 0x1472 ===
  0x1472	xor    	eax, eax
  0x1474	jmp    	0x14c9
  === BLOCK LINK ===
    0x1476
=== CODE BLOCK END ===

=== CODE BLOCK ADDRESS 0x1476 ===
  0x1476	dec    	eax
  0x1477	arpl   	word ptr [0xffffebbf], cx
  0x147d	dec    	eax
  0x147e	lea    	eax, [0xffffeb7c]
  0x1484	dec    	eax
  === BLOCK LINK ===
    0x1485
=== CODE BLOCK END ===

=== CODE BLOCK ADDRESS 0x1485 ===
  0x1485	add    	ecx, eax
  0x1487	cmp    	dword ptr [ecx], 0x4550
  0x148d	jne    	0x1472
  === BLOCK LINK ===
    0x148f
=== CODE BLOCK END ===

=== CODE BLOCK ADDRESS 0x148f ===
  0x148f	mov    	eax, 0x10b
  0x1494	cmp    	word ptr [ecx + 0x18], ax
  0x1498	je     	0x14b8
  === BLOCK LINK ===
    0x149a
=== CODE BLOCK END ===

=== CODE BLOCK ADDRESS 0x149a ===
  0x149a	mov    	eax, 0x20b
  0x149f	cmp    	word ptr [ecx + 0x18], ax
  0x14a3	jne    	0x1472
  === BLOCK LINK ===
    0x14a5
=== CODE BLOCK END ===

=== CODE BLOCK ADDRESS 0x14a5 ===
  0x14a5	xor    	eax, eax
  0x14a7	cmp    	dword ptr [ecx + 0x84], 0xe
  0x14ae	jbe    	0x14c9
  === BLOCK LINK ===
    0x14b0
=== CODE BLOCK END ===

=== CODE BLOCK ADDRESS 0x14b0 ===
  0x14b0	cmp    	dword ptr [ecx + 0xf8], eax
  0x14b6	jmp    	0x14c6
  === BLOCK LINK ===
    0x14b8
=== CODE BLOCK END ===

=== CODE BLOCK ADDRESS 0x14b8 ===
  0x14b8	xor    	eax, eax
  0x14ba	cmp    	dword ptr [ecx + 0x74], 0xe
  0x14be	jbe    	0x14c9
  === BLOCK LINK ===
    0x14c0
=== CODE BLOCK END ===

=== CODE BLOCK ADDRESS 0x14c0 ===
  0x14c0	cmp    	dword ptr [ecx + 0xe8], eax
  0x14c6	setne  	al
  0x14c9	mov    	ecx, 2
  0x14ce	mov    	dword ptr [0x1b6c], eax
  0x14d4	call   	0x1928
  === BLOCK LINK ===
    0x14d9
=== CODE BLOCK END ===

=== CODE BLOCK ADDRESS 0x14d9 ===
  0x14d9	mov    	ecx, eax
  0x14db	call   	dword ptr [0xe0f]
  === BLOCK LINK ===
    0x14e1
=== CODE BLOCK END ===

=== CODE BLOCK ADDRESS 0x14e1 ===
  0x14e1	dec    	eax
  0x14e2	mov    	ecx, dword ptr [0xde0]
  0x14e8	dec    	eax
  0x14e9	or     	eax, 0xffffffff
  0x14ec	dec    	eax
  === BLOCK LINK ===
    0x14ed
=== CODE BLOCK END ===

=== CODE BLOCK ADDRESS 0x14ed ===
  0x14ed	mov    	dword ptr [0x20e5], eax
  0x14f3	dec    	eax
  0x14f4	mov    	dword ptr [0x20e6], eax
  0x14fa	mov    	eax, dword ptr [0x1b54]
  0x1500	mov    	dword ptr [ecx], eax
  === BLOCK LINK ===
    0x1502
=== CODE BLOCK END ===

=== CODE BLOCK ADDRESS 0x1502 ===
  0x1502	dec    	eax
  0x1503	mov    	ecx, dword ptr [0xe07]
  0x1509	mov    	eax, dword ptr [0x1b39]
  0x150f	mov    	dword ptr [ecx], eax
  0x1511	call   	0x1980
  === BLOCK LINK ===
    0x1516
=== CODE BLOCK END ===

=== CODE BLOCK ADDRESS 0x1516 ===
  0x1516	cmp    	dword ptr [0x1ae3], 0
  0x151d	jne    	0x152c
  === BLOCK LINK ===
    0x151f
=== CODE BLOCK END ===

=== CODE BLOCK ADDRESS 0x151f ===
  0x151f	dec    	eax
  0x1520	lea    	ecx, [0x45a]
  0x1526	call   	dword ptr [0xd7c]
  === BLOCK LINK ===
    0x152c
=== CODE BLOCK END ===

=== CODE BLOCK ADDRESS 0x152c ===
  0x152c	xor    	eax, eax
  0x152e	dec    	eax
  0x152f	add    	esp, 0x28
  0x1532	ret    	
  0x1533	int3   	
  === BLOCK LINK ===
    0x1534
=== CODE BLOCK END ===

=== CODE BLOCK ADDRESS 0x10f2 ===
  0x10f2	dec    	eax
  0x10f3	mov    	ecx, edi
  0x10f5	dec    	eax
  0x10f6	call   	dword ptr [0x1064]
  === BLOCK LINK ===
    0x10fc
=== CODE BLOCK END ===

=== CODE BLOCK ADDRESS 0x1534 ===
  0x1534	int3   	
  0x1535	int3   	
  0x1536	int3   	
  0x1537	int3   	
  0x1538	int3   	
  === BLOCK LINK ===
    0x1539
=== CODE BLOCK END ===

=== CODE BLOCK ADDRESS 0x1539 ===
  0x1539	int3   	
  0x153a	int3   	
  0x153b	int3   	
  0x153c	int3   	
  0x153d	int3   	
  === BLOCK LINK ===
    0x153e
=== CODE BLOCK END ===

=== CODE BLOCK ADDRESS 0x153e ===
  0x153e	int3   	
  0x153f	int3   	
  0x1540	dec    	eax
  0x1541	sub    	esp, 0x38
  0x1544	mov    	eax, dword ptr [0x1b06]
  === BLOCK LINK ===
    0x154a
=== CODE BLOCK END ===

=== CODE BLOCK ADDRESS 0x154a ===
  0x154a	dec    	esp
  0x154b	lea    	eax, [0x1ae7]
  0x1551	inc    	esp
  0x1552	mov    	ecx, dword ptr [0x1af4]
  0x1558	dec    	eax
  === BLOCK LINK ===
    0x1559
=== CODE BLOCK END ===

=== CODE BLOCK ADDRESS 0x1559 ===
  0x1559	lea    	edx, [0x1ad1]
  0x155f	mov    	dword ptr [0x1adf], eax
  0x1565	dec    	eax
  0x1566	lea    	ecx, [0x1abc]
  0x156c	dec    	eax
  === BLOCK LINK ===
    0x156d
=== CODE BLOCK END ===

=== CODE BLOCK ADDRESS 0x156d ===
  0x156d	lea    	eax, [0x1ad1]
  0x1573	dec    	eax
  0x1574	mov    	dword ptr [esp + 0x20], eax
  0x1578	call   	dword ptr [0xd52]
  === BLOCK LINK ===
    0x157e
=== CODE BLOCK END ===

=== CODE BLOCK ADDRESS 0x157e ===
  0x157e	mov    	dword ptr [0x1aa8], eax
  0x1584	dec    	eax
  0x1585	add    	esp, 0x38
  0x1588	ret    	
  0x1589	int3   	
  === BLOCK LINK ===
    0x158a
=== CODE BLOCK END ===

=== CODE BLOCK ADDRESS 0x158a ===
  0x158a	int3   	
  0x158b	int3   	
  0x158c	int3   	
  0x158d	int3   	
  0x158e	int3   	
  === BLOCK LINK ===
    0x158f
=== CODE BLOCK END ===

=== CODE BLOCK ADDRESS 0x158f ===
  0x158f	int3   	
  0x1590	dec    	eax
  0x1591	mov    	eax, esp
  0x1593	dec    	eax
  0x1594	mov    	dword ptr [eax + 8], ebx
  === BLOCK LINK ===
    0x1597
=== CODE BLOCK END ===

=== CODE BLOCK ADDRESS 0x1597 ===
  0x1597	dec    	eax
  0x1598	mov    	dword ptr [eax + 0x10], esi
  0x159b	dec    	eax
  0x159c	mov    	dword ptr [eax + 0x18], edi
  0x159f	dec    	esp
  === BLOCK LINK ===
    0x15a0
=== CODE BLOCK END ===

=== CODE BLOCK ADDRESS 0x15a0 ===
  0x15a0	mov    	dword ptr [eax + 0x20], esi
  0x15a3	inc    	ecx
  0x15a4	push   	edi
  0x15a5	dec    	eax
  0x15a6	sub    	esp, 0xb0
  === BLOCK LINK ===
    0x15ac
=== CODE BLOCK END ===

=== CODE BLOCK ADDRESS 0x15ac ===
  0x15ac	inc    	ebp
  0x15ad	xor    	esi, esi
  0x15af	inc    	esp
  0x15b0	mov    	dword ptr [esp + 0x20], esi
  0x15b4	dec    	eax
  === BLOCK LINK ===
    0x15b5
=== CODE BLOCK END ===

=== CODE BLOCK ADDRESS 0x15b5 ===
  0x15b5	lea    	ecx, [eax - 0x78]
  0x15b8	call   	dword ptr [0xc6a]
  === BLOCK LINK ===
    0x15be
=== CODE BLOCK END ===

=== CODE BLOCK ADDRESS 0x15be ===
  0x15be	nop    	
  0x15bf	dec    	eax
  0x15c1	mov    	eax, dword ptr [0x30]
  0x15c8	dec    	eax
  0x15c9	mov    	ebx, dword ptr [eax + 8]
  === BLOCK LINK ===
    0x15cc
=== CODE BLOCK END ===

=== CODE BLOCK ADDRESS 0x15cc ===
  0x15cc	inc    	ecx
  0x15cd	mov    	esi, esi
  0x15cf	xor    	eax, eax
  0x15d1	.byte  	0xf0
  0x15d2	dec    	eax
  === BLOCK LINK ===
    0x15d3
=== CODE BLOCK END ===

=== CODE BLOCK ADDRESS 0x15d3 ===
  0x15d3	cmpxchg  	dword ptr [0x200e], ebx
  0x15da	je     	0x15f7
  === BLOCK LINK ===
    0x15dc
=== CODE BLOCK END ===

=== CODE BLOCK ADDRESS 0x15dc ===
  0x15dc	dec    	eax
  0x15dd	cmp    	eax, ebx
  0x15df	jne    	0x15ea
  === BLOCK LINK ===
    0x15e1
=== CODE BLOCK END ===

=== CODE BLOCK ADDRESS 0x15e1 ===
  0x15e1	mov    	ebx, 1
  0x15e6	mov    	esi, ebx
  0x15e8	jmp    	0x15fc
  === BLOCK LINK ===
    0x15ea
=== CODE BLOCK END ===

=== CODE BLOCK ADDRESS 0x15ea ===
  0x15ea	mov    	ecx, 0x3e8
  0x15ef	call   	dword ptr [0xc83]
  === BLOCK LINK ===
    0x15f5
=== CODE BLOCK END ===

=== CODE BLOCK ADDRESS 0x15f5 ===
  0x15f5	jmp    	0x15cf
  === BLOCK LINK ===
    0x15f7
=== CODE BLOCK END ===

=== CODE BLOCK ADDRESS 0x15f7 ===
  0x15f7	mov    	ebx, 1
  0x15fc	mov    	eax, dword ptr [0x1fee]
  0x1602	cmp    	eax, ebx
  0x1604	jne    	0x1614
  === BLOCK LINK ===
    0x1606
=== CODE BLOCK END ===

=== CODE BLOCK ADDRESS 0x1606 ===
  0x1606	mov    	edi, 0x1f
  0x160b	mov    	ecx, edi
  0x160d	call   	0x1973
  === BLOCK LINK ===
    0x1612
=== CODE BLOCK END ===

=== CODE BLOCK ADDRESS 0x1612 ===
  0x1612	jmp    	0x1680
  === BLOCK LINK ===
    0x1614
=== CODE BLOCK END ===

=== CODE BLOCK ADDRESS 0x1614 ===
  0x1614	mov    	eax, dword ptr [0x1fd6]
  0x161a	test   	eax, eax
  0x161c	jne    	0x1675
  === BLOCK LINK ===
    0x161e
=== CODE BLOCK END ===

=== CODE BLOCK ADDRESS 0x161e ===
  0x161e	mov    	dword ptr [0x1fcc], ebx
  0x1624	dec    	esp
  0x1625	lea    	edi, [0xd3d]
  0x162b	dec    	eax
  0x162c	lea    	edi, [0xd1e]
  === BLOCK LINK ===
    0x1632
=== CODE BLOCK END ===

=== CODE BLOCK ADDRESS 0x1632 ===
  0x1632	dec    	eax
  0x1633	mov    	dword ptr [esp + 0x30], edi
  0x1637	inc    	ecx
  0x1638	mov    	eax, esi
  0x163a	mov    	dword ptr [esp + 0x24], eax
  === BLOCK LINK ===
    0x163e
=== CODE BLOCK END ===

=== CODE BLOCK ADDRESS 0x163e ===
  0x163e	dec    	ecx
  0x163f	cmp    	edi, edi
  0x1641	jae    	0x1667
  === BLOCK LINK ===
    0x1643
=== CODE BLOCK END ===

=== CODE BLOCK ADDRESS 0x1643 ===
  0x1643	test   	eax, eax
  0x1645	jne    	0x166b
  === BLOCK LINK ===
    0x1647
=== CODE BLOCK END ===

=== CODE BLOCK ADDRESS 0x1647 ===
  0x1647	dec    	esp
  0x1648	cmp    	dword ptr [edi], esi
  0x164a	je     	0x165c
  === BLOCK LINK ===
    0x164c
=== CODE BLOCK END ===

=== CODE BLOCK ADDRESS 0x164c ===
  0x164c	dec    	eax
  0x164d	mov    	eax, dword ptr [edi]
  0x164f	dec    	eax
  0x1650	mov    	ecx, dword ptr [0xcda]
  0x1656	call   	ecx
  === BLOCK LINK ===
    0x1658
=== CODE BLOCK END ===

=== CODE BLOCK ADDRESS 0x1658 ===
  0x1658	mov    	dword ptr [esp + 0x24], eax
  0x165c	dec    	eax
  0x165d	add    	edi, 8
  0x1660	dec    	eax
  0x1661	mov    	dword ptr [esp + 0x30], edi
  === BLOCK LINK ===
    0x1665
=== CODE BLOCK END ===

=== CODE BLOCK ADDRESS 0x1665 ===
  0x1665	jmp    	0x163e
  === BLOCK LINK ===
    0x1667
=== CODE BLOCK END ===

=== CODE BLOCK ADDRESS 0x1667 ===
  0x1667	test   	eax, eax
  0x1669	je     	0x167b
  === BLOCK LINK ===
    0x166b
=== CODE BLOCK END ===

=== CODE BLOCK ADDRESS 0x166b ===
  0x166b	mov    	eax, 0xff
  0x1670	jmp    	0x17d6
  === BLOCK LINK ===
    0x1675
=== CODE BLOCK END ===

=== CODE BLOCK ADDRESS 0x1675 ===
  0x1675	mov    	dword ptr [0x19a9], ebx
  0x167b	mov    	edi, 0x1f
  0x1680	mov    	eax, dword ptr [0x1f6a]
  0x1686	cmp    	eax, ebx
  0x1688	jne    	0x16a7
  === BLOCK LINK ===
    0x168a
=== CODE BLOCK END ===

=== CODE BLOCK ADDRESS 0x168a ===
  0x168a	dec    	eax
  0x168b	lea    	edx, [0xcb7]
  0x1691	dec    	eax
  0x1692	lea    	ecx, [0xca0]
  0x1698	call   	0x1b4e
  === BLOCK LINK ===
    0x169d
=== CODE BLOCK END ===

=== CODE BLOCK ADDRESS 0x169d ===
  0x169d	mov    	dword ptr [0x1f49], 2
  0x16a7	test   	esi, esi
  0x16a9	jne    	0x16b5
  === BLOCK LINK ===
    0x16ab
=== CODE BLOCK END ===

=== CODE BLOCK ADDRESS 0x16ab ===
  0x16ab	dec    	ecx
  0x16ac	mov    	eax, esi
  0x16ae	dec    	eax
  0x16af	xchg   	dword ptr [0x1f33], eax
  0x16b5	dec    	esp
  === BLOCK LINK ===
    0x16b6
=== CODE BLOCK END ===

=== CODE BLOCK ADDRESS 0x16b6 ===
  0x16b6	cmp    	dword ptr [0x1f3c], esi
  0x16bc	je     	0x16e8
  === BLOCK LINK ===
    0x16be
=== CODE BLOCK END ===

=== CODE BLOCK ADDRESS 0x16be ===
  0x16be	dec    	eax
  0x16bf	lea    	ecx, [0x1f33]
  0x16c5	call   	0x19e0
  === BLOCK LINK ===
    0x16ca
=== CODE BLOCK END ===

=== CODE BLOCK ADDRESS 0x16ca ===
  0x16ca	test   	eax, eax
  0x16cc	je     	0x16e8
  === BLOCK LINK ===
    0x16ce
=== CODE BLOCK END ===

=== CODE BLOCK ADDRESS 0x16ce ===
  0x16ce	inc    	ebp
  0x16cf	xor    	eax, eax
  0x16d1	inc    	ecx
  0x16d2	lea    	edx, [eax + 2]
  0x16d5	xor    	ecx, ecx
  === BLOCK LINK ===
    0x16d7
=== CODE BLOCK END ===

=== CODE BLOCK ADDRESS 0x16d7 ===
  0x16d7	dec    	eax
  0x16d8	mov    	eax, dword ptr [0x1f1a]
  0x16de	dec    	esp
  0x16df	mov    	ecx, dword ptr [0xc4b]
  0x16e5	inc    	ecx
  === BLOCK LINK ===
    0x16e6
=== CODE BLOCK END ===

=== CODE BLOCK ADDRESS 0x16e6 ===
  0x16e6	call   	ecx
  === BLOCK LINK ===
    0x16e8
=== CODE BLOCK END ===

=== CODE BLOCK ADDRESS 0x16e8 ===
  0x16e8	dec    	eax
  0x16e9	mov    	eax, dword ptr [0xbd1]
  0x16ef	dec    	eax
  0x16f0	mov    	ecx, dword ptr [eax]
  0x16f2	dec    	eax
  === BLOCK LINK ===
    0x16f3
=== CODE BLOCK END ===

=== CODE BLOCK ADDRESS 0x16f3 ===
  0x16f3	test   	ecx, ecx
  0x16f5	jne    	0x1701
  === BLOCK LINK ===
    0x16f7
=== CODE BLOCK END ===

=== CODE BLOCK ADDRESS 0x16f7 ===
  0x16f7	mov    	eax, 0xff
  0x16fc	jmp    	0x17d6
  === BLOCK LINK ===
    0x1701
=== CODE BLOCK END ===

=== CODE BLOCK ADDRESS 0x1701 ===
  0x1701	dec    	eax
  0x1702	mov    	dword ptr [esp + 0x28], ecx
  0x1706	mov    	edx, dword ptr [esp + 0x20]
  0x170a	movzx  	eax, word ptr [ecx]
  0x170d	cmp    	ax, 0x20
  === BLOCK LINK ===
    0x1711
=== CODE BLOCK END ===

=== CODE BLOCK ADDRESS 0x1711 ===
  0x1711	ja     	0x1787
  === BLOCK LINK ===
    0x1713
=== CODE BLOCK END ===

=== CODE BLOCK ADDRESS 0x1713 ===
  0x1713	test   	ax, ax
  0x1716	je     	0x171c
  === BLOCK LINK ===
    0x1718
=== CODE BLOCK END ===

=== CODE BLOCK ADDRESS 0x1718 ===
  0x1718	test   	edx, edx
  0x171a	jne    	0x1787
  === BLOCK LINK ===
    0x171c
=== CODE BLOCK END ===

=== CODE BLOCK ADDRESS 0x171c ===
  0x171c	sub    	ax, bx
  0x171f	cmp    	ax, di
  0x1722	ja     	0x1732
  === BLOCK LINK ===
    0x1724
=== CODE BLOCK END ===

=== CODE BLOCK ADDRESS 0x1724 ===
  0x1724	dec    	eax
  0x1725	add    	ecx, 2
  0x1728	dec    	eax
  0x1729	mov    	dword ptr [esp + 0x28], ecx
  0x172d	movzx  	eax, word ptr [ecx]
  === BLOCK LINK ===
    0x1730
=== CODE BLOCK END ===

=== CODE BLOCK ADDRESS 0x1730 ===
  0x1730	jmp    	0x171c
  === BLOCK LINK ===
    0x1732
=== CODE BLOCK END ===

=== CODE BLOCK ADDRESS 0x1732 ===
  0x1732	test   	byte ptr [esp + 0x7c], bl
  0x1736	movzx  	eax, word ptr [esp + 0x80]
  0x173e	inc    	ecx
  0x173f	mov    	ecx, 0xa
  0x1744	inc    	esp
  === BLOCK LINK ===
    0x1745
=== CODE BLOCK END ===

=== CODE BLOCK ADDRESS 0x1745 ===
  0x1745	cmovne  	ecx, eax
  0x1748	dec    	esp
  0x1749	mov    	eax, ecx
  0x174b	xor    	edx, edx
  0x174d	dec    	eax
  === BLOCK LINK ===
    0x174e
=== CODE BLOCK END ===

=== CODE BLOCK ADDRESS 0x174e ===
  0x174e	lea    	ecx, [0xffffe8ac]
  0x1754	call   	0x1008
  === BLOCK LINK ===
    0x1759
=== CODE BLOCK END ===

=== CODE BLOCK ADDRESS 0x1759 ===
  0x1759	mov    	dword ptr [0x18c1], eax
  0x175f	inc    	esp
  0x1760	cmp    	dword ptr [0x18da], esi
  0x1766	jne    	0x1770
  === BLOCK LINK ===
    0x1768
=== CODE BLOCK END ===

=== CODE BLOCK ADDRESS 0x1768 ===
  0x1768	mov    	ecx, eax
  0x176a	call   	dword ptr [0xb68]
  === BLOCK LINK ===
    0x1770
=== CODE BLOCK END ===

=== CODE BLOCK ADDRESS 0x1770 ===
  0x1770	inc    	esp
  0x1771	cmp    	dword ptr [0x18ad], esi
  0x1777	jne    	0x1785
  === BLOCK LINK ===
    0x1779
=== CODE BLOCK END ===

=== CODE BLOCK ADDRESS 0x1779 ===
  0x1779	call   	dword ptr [0xb21]
  === BLOCK LINK ===
    0x177f
=== CODE BLOCK END ===

=== CODE BLOCK ADDRESS 0x177f ===
  0x177f	mov    	eax, dword ptr [0x189b]
  0x1785	jmp    	0x17d6
  === BLOCK LINK ===
    0x1787
=== CODE BLOCK END ===

=== CODE BLOCK ADDRESS 0x1787 ===
  0x1787	cmp    	ax, 0x22
  0x178b	jne    	0x179b
  === BLOCK LINK ===
    0x178d
=== CODE BLOCK END ===

=== CODE BLOCK ADDRESS 0x178d ===
  0x178d	inc    	ecx
  0x178e	mov    	eax, esi
  0x1790	test   	edx, edx
  0x1792	sete   	al
  0x1795	mov    	edx, eax
  === BLOCK LINK ===
    0x1797
=== CODE BLOCK END ===

=== CODE BLOCK ADDRESS 0x1797 ===
  0x1797	mov    	dword ptr [esp + 0x20], eax
  0x179b	dec    	eax
  0x179c	add    	ecx, 2
  0x179f	dec    	eax
  0x17a0	mov    	dword ptr [esp + 0x28], ecx
  === BLOCK LINK ===
    0x17a4
=== CODE BLOCK END ===

=== CODE BLOCK ADDRESS 0x17a4 ===
  0x17a4	jmp    	0x170a
  === BLOCK LINK ===
    0x17a9
=== CODE BLOCK END ===

=== CODE BLOCK ADDRESS 0x17a9 ===
  0x17a9	mov    	dword ptr [0x1871], eax
  0x17af	cmp    	dword ptr [0x188a], 0
  0x17b6	jne    	0x17c1
  === BLOCK LINK ===
    0x17b8
=== CODE BLOCK END ===

=== CODE BLOCK ADDRESS 0x17b8 ===
  0x17b8	mov    	ecx, eax
  0x17ba	call   	dword ptr [0xb28]
  === BLOCK LINK ===
    0x17c0
=== CODE BLOCK END ===

=== CODE BLOCK ADDRESS 0x17c0 ===
  0x17c0	int3   	
  0x17c1	cmp    	dword ptr [0x185c], 0
  0x17c8	jne    	0x17d6
  === BLOCK LINK ===
    0x17ca
=== CODE BLOCK END ===

=== CODE BLOCK ADDRESS 0x17ca ===
  0x17ca	call   	dword ptr [0xad0]
  === BLOCK LINK ===
    0x17d0
=== CODE BLOCK END ===

=== CODE BLOCK ADDRESS 0x17d0 ===
  0x17d0	mov    	eax, dword ptr [0x184a]
  0x17d6	dec    	esp
  0x17d7	lea    	ebx, [esp + 0xb0]
  0x17de	dec    	ecx
  0x17df	mov    	ebx, dword ptr [ebx + 0x10]
  === BLOCK LINK ===
    0x17e2
=== CODE BLOCK END ===

=== CODE BLOCK ADDRESS 0x17e2 ===
  0x17e2	dec    	ecx
  0x17e3	mov    	esi, dword ptr [ebx + 0x18]
  0x17e6	dec    	ecx
  0x17e7	mov    	edi, dword ptr [ebx + 0x20]
  0x17ea	dec    	ebp
  === BLOCK LINK ===
    0x17eb
=== CODE BLOCK END ===

=== CODE BLOCK ADDRESS 0x17eb ===
  0x17eb	mov    	esi, dword ptr [ebx + 0x28]
  0x17ee	dec    	ecx
  0x17ef	mov    	esp, ebx
  0x17f1	inc    	ecx
  0x17f2	pop    	edi
  === BLOCK LINK ===
    0x17f3
=== CODE BLOCK END ===

=== CODE BLOCK ADDRESS 0x17f3 ===
  0x17f3	ret    	
  0x17f4	int3   	
  0x17f5	int3   	
  0x17f6	int3   	
  0x17f7	int3   	
  === BLOCK LINK ===
    0x17f8
=== CODE BLOCK END ===

=== CODE BLOCK ADDRESS 0x17f8 ===
  0x17f8	int3   	
  0x17f9	int3   	
  0x17fa	int3   	
  0x17fb	int3   	
  0x17fc	int3   	
  === BLOCK LINK ===
    0x17fd
=== CODE BLOCK END ===

=== CODE BLOCK ADDRESS 0x17fd ===
  0x17fd	int3   	
  0x17fe	int3   	
  0x17ff	int3   	
  0x1800	dec    	eax
  0x1801	sub    	esp, 0x28
  === BLOCK LINK ===
    0x1804
=== CODE BLOCK END ===

=== CODE BLOCK ADDRESS 0x1804 ===
  0x1804	call   	0x1a74
  === BLOCK LINK ===
    0x1809
=== CODE BLOCK END ===

=== CODE BLOCK ADDRESS 0x1809 ===
  0x1809	dec    	eax
  0x180a	add    	esp, 0x28
  0x180d	jmp    	0x1590
  === BLOCK LINK ===
    0x1812
=== CODE BLOCK END ===

=== CODE BLOCK ADDRESS 0x1812 ===
  0x1812	int3   	
  0x1813	int3   	
  0x1814	int3   	
  0x1815	int3   	
  0x1816	int3   	
  === BLOCK LINK ===
    0x1817
=== CODE BLOCK END ===

=== CODE BLOCK ADDRESS 0x1817 ===
  0x1817	int3   	
  0x1818	int3   	
  0x1819	int3   	
  0x181a	int3   	
  0x181b	int3   	
  === BLOCK LINK ===
    0x181c
=== CODE BLOCK END ===

=== CODE BLOCK ADDRESS 0x181c ===
  0x181c	int3   	
  0x181d	int3   	
  0x181e	int3   	
  0x181f	int3   	
  0x1820	int3   	
  === BLOCK LINK ===
    0x1821
=== CODE BLOCK END ===

=== CODE BLOCK ADDRESS 0x1821 ===
  0x1821	int3   	
  0x1822	int3   	
  0x1823	int3   	
  0x1824	int3   	
  0x1825	int3   	
  === BLOCK LINK ===
    0x1826
=== CODE BLOCK END ===

=== CODE BLOCK ADDRESS 0x1826 ===
  0x1826	nop    	word ptr [eax + eax]
  === BLOCK LINK ===
    0x1830
=== CODE BLOCK END ===

=== CODE BLOCK ADDRESS 0x1839 ===
  0x1839	dec    	eax
  0x183a	rol    	ecx, 0x10
  0x183d	test   	cx, 0xffff
  0x1842	jne    	0x1845
  === BLOCK LINK ===
    0x1844
=== CODE BLOCK END ===

=== CODE BLOCK ADDRESS 0x1844 ===
  0x1844	ret    	
  0x1845	dec    	eax
  0x1846	ror    	ecx, 0x10
  0x1849	jmp    	0x1bc0
  === BLOCK LINK ===
    0x184e
=== CODE BLOCK END ===

=== CODE BLOCK ADDRESS 0x1244 ===
  0x1244	inc    	eax
  0x1245	push   	ebp
  0x1246	push   	ebx
  0x1247	push   	esi
  === BLOCK LINK ===
    0x1248
=== CODE BLOCK END ===

=== CODE BLOCK ADDRESS 0x184e ===
  0x184e	int3   	
  0x184f	int3   	
  0x1850	int3   	
  0x1851	int3   	
  0x1852	int3   	
  === BLOCK LINK ===
    0x1853
=== CODE BLOCK END ===

=== CODE BLOCK ADDRESS 0x1853 ===
  0x1853	int3   	
  0x1854	int3   	
  0x1855	int3   	
  0x1856	int3   	
  0x1857	int3   	
  === BLOCK LINK ===
    0x1858
=== CODE BLOCK END ===

=== CODE BLOCK ADDRESS 0x1858 ===
  0x1858	int3   	
  0x1859	int3   	
  0x185a	int3   	
  0x185b	int3   	
  0x185c	int3   	
  === BLOCK LINK ===
    0x185d
=== CODE BLOCK END ===

=== CODE BLOCK ADDRESS 0x185d ===
  0x185d	int3   	
  0x185e	int3   	
  0x185f	int3   	
  0x1860	dec    	eax
  0x1861	sub    	esp, 0x28
  === BLOCK LINK ===
    0x1864
=== CODE BLOCK END ===

=== CODE BLOCK ADDRESS 0x1864 ===
  0x1864	dec    	eax
  0x1865	mov    	eax, dword ptr [ecx]
  0x1867	cmp    	dword ptr [eax], 0xe06d7363
  0x186d	jne    	0x1892
  === BLOCK LINK ===
    0x186f
=== CODE BLOCK END ===

=== CODE BLOCK ADDRESS 0x186f ===
  0x186f	cmp    	dword ptr [eax + 0x18], 4
  0x1873	jne    	0x1892
  === BLOCK LINK ===
    0x1875
=== CODE BLOCK END ===

=== CODE BLOCK ADDRESS 0x1875 ===
  0x1875	mov    	ecx, dword ptr [eax + 0x20]
  0x1878	lea    	eax, [ecx - 0x19930520]
  0x187e	cmp    	eax, 2
  0x1881	jbe    	0x188b
  === BLOCK LINK ===
    0x1883
=== CODE BLOCK END ===

=== CODE BLOCK ADDRESS 0x1883 ===
  0x1883	cmp    	ecx, 0x1994000
  0x1889	jne    	0x1892
  === BLOCK LINK ===
    0x188b
=== CODE BLOCK END ===

=== CODE BLOCK ADDRESS 0x188b ===
  0x188b	call   	dword ptr [0xa4f]
  === BLOCK LINK ===
    0x1891
=== CODE BLOCK END ===

=== CODE BLOCK ADDRESS 0x1891 ===
  0x1891	int3   	
  0x1892	xor    	eax, eax
  0x1894	dec    	eax
  0x1895	add    	esp, 0x28
  0x1898	ret    	
  === BLOCK LINK ===
    0x1899
=== CODE BLOCK END ===

=== CODE BLOCK ADDRESS 0x1899 ===
  0x1899	int3   	
  0x189a	int3   	
  0x189b	int3   	
  0x189c	int3   	
  0x189d	int3   	
  === BLOCK LINK ===
    0x189e
=== CODE BLOCK END ===

=== CODE BLOCK ADDRESS 0x189e ===
  0x189e	int3   	
  0x189f	int3   	
  0x18a0	dec    	eax
  0x18a1	sub    	esp, 0x28
  0x18a4	dec    	eax
  === BLOCK LINK ===
    0x18a5
=== CODE BLOCK END ===

=== CODE BLOCK ADDRESS 0x18a5 ===
  0x18a5	lea    	ecx, [0xffffffb5]
  0x18ab	call   	dword ptr [0x947]
  === BLOCK LINK ===
    0x18b1
=== CODE BLOCK END ===

=== CODE BLOCK ADDRESS 0x18b1 ===
  0x18b1	xor    	eax, eax
  0x18b3	dec    	eax
  0x18b4	add    	esp, 0x28
  0x18b7	ret    	
  0x18b8	int3   	
  === BLOCK LINK ===
    0x18b9
=== CODE BLOCK END ===

=== CODE BLOCK ADDRESS 0x1220 ===
  0x1220	mov    	eax, ebx
  0x1222	dec    	eax
  0x1223	mov    	ecx, dword ptr [esp + 0x58]
  0x1227	dec    	eax
  === BLOCK LINK ===
    0x1228
=== CODE BLOCK END ===

=== CODE BLOCK ADDRESS 0x18b9 ===
  0x18b9	int3   	
  0x18ba	int3   	
  0x18bb	int3   	
  0x18bc	int3   	
  0x18bd	int3   	
  === BLOCK LINK ===
    0x18be
=== CODE BLOCK END ===

=== CODE BLOCK ADDRESS 0x18be ===
  0x18be	jmp    	dword ptr [0xa3c]
  === BLOCK LINK ===
    0x18c4
=== CODE BLOCK END ===

=== CODE BLOCK ADDRESS 0x18c4 ===
  0x18c4	int3   	
  0x18c5	int3   	
  0x18c6	int3   	
  0x18c7	int3   	
  0x18c8	int3   	
  === BLOCK LINK ===
    0x18c9
=== CODE BLOCK END ===

=== CODE BLOCK ADDRESS 0x18c9 ===
  0x18c9	int3   	
  0x18ca	int3   	
  0x18cb	int3   	
  0x18cc	dec    	eax
  0x18cd	sub    	esp, 0x18
  === BLOCK LINK ===
    0x18d0
=== CODE BLOCK END ===

=== CODE BLOCK ADDRESS 0x18d0 ===
  0x18d0	xor    	edx, edx
  0x18d2	dec    	eax
  0x18d3	lea    	eax, [ecx - 1]
  0x18d6	dec    	eax
  0x18d7	cmp    	eax, -3
  === BLOCK LINK ===
    0x18da
=== CODE BLOCK END ===

=== CODE BLOCK ADDRESS 0x18da ===
  0x18da	ja     	0x1918
  === BLOCK LINK ===
    0x18dc
=== CODE BLOCK END ===

=== CODE BLOCK ADDRESS 0x18dc ===
  0x18dc	mov    	eax, 0x5a4d
  0x18e1	cmp    	word ptr [ecx], ax
  0x18e4	jne    	0x1910
  === BLOCK LINK ===
    0x18e6
=== CODE BLOCK END ===

=== CODE BLOCK ADDRESS 0x18e6 ===
  0x18e6	cmp    	dword ptr [ecx + 0x3c], edx
  0x18e9	jl     	0x1910
  === BLOCK LINK ===
    0x18eb
=== CODE BLOCK END ===

=== CODE BLOCK ADDRESS 0x18eb ===
  0x18eb	cmp    	dword ptr [ecx + 0x3c], 0x10000000
  0x18f2	jae    	0x1910
  === BLOCK LINK ===
    0x18f4
=== CODE BLOCK END ===

=== CODE BLOCK ADDRESS 0x18f4 ===
  0x18f4	dec    	eax
  0x18f5	arpl   	word ptr [ecx + 0x3c], ax
  0x18f8	dec    	eax
  0x18f9	add    	eax, ecx
  0x18fb	dec    	eax
  === BLOCK LINK ===
    0x18fc
=== CODE BLOCK END ===

=== CODE BLOCK ADDRESS 0x18fc ===
  0x18fc	mov    	dword ptr [esp], eax
  0x18ff	cmp    	dword ptr [eax], 0x4550
  0x1905	dec    	eax
  0x1906	cmovne  	eax, edx
  0x1909	dec    	eax
  === BLOCK LINK ===
    0x190a
=== CODE BLOCK END ===

=== CODE BLOCK ADDRESS 0x190a ===
  0x190a	mov    	edx, eax
  0x190c	dec    	eax
  0x190d	mov    	dword ptr [esp], eax
  0x1910	jmp    	0x1918
  === BLOCK LINK ===
    0x1912
=== CODE BLOCK END ===

=== CODE BLOCK ADDRESS 0x1912 ===
  0x1912	xor    	edx, edx
  0x1914	dec    	eax
  0x1915	mov    	dword ptr [esp], edx
  0x1918	dec    	eax
  0x1919	mov    	eax, edx
  === BLOCK LINK ===
    0x191b
=== CODE BLOCK END ===

=== CODE BLOCK ADDRESS 0x191b ===
  0x191b	dec    	eax
  0x191c	add    	esp, 0x18
  0x191f	ret    	
  0x1920	int3   	
  0x1921	int3   	
  === BLOCK LINK ===
    0x1922
=== CODE BLOCK END ===

=== CODE BLOCK ADDRESS 0x1922 ===
  0x1922	int3   	
  0x1923	int3   	
  0x1924	int3   	
  0x1925	int3   	
  0x1926	int3   	
  === BLOCK LINK ===
    0x1927
=== CODE BLOCK END ===

=== CODE BLOCK ADDRESS 0x1927 ===
  0x1927	int3   	
  0x1928	inc    	eax
  0x1929	push   	ebx
  0x192a	dec    	eax
  0x192b	sub    	esp, 0x20
  === BLOCK LINK ===
    0x192e
=== CODE BLOCK END ===

=== CODE BLOCK ADDRESS 0x192e ===
  0x192e	mov    	ebx, ecx
  0x1930	xor    	ecx, ecx
  0x1932	call   	dword ptr [0x8d0]
  === BLOCK LINK ===
    0x1938
=== CODE BLOCK END ===

=== CODE BLOCK ADDRESS 0x1938 ===
  0x1938	dec    	eax
  0x1939	test   	eax, eax
  0x193b	je     	0x1965
  === BLOCK LINK ===
    0x193d
=== CODE BLOCK END ===

=== CODE BLOCK ADDRESS 0x193d ===
  0x193d	dec    	eax
  0x193e	mov    	ecx, eax
  0x1940	call   	0x18cc
  === BLOCK LINK ===
    0x1945
=== CODE BLOCK END ===

=== CODE BLOCK ADDRESS 0x1945 ===
  0x1945	dec    	eax
  0x1946	test   	eax, eax
  0x1948	je     	0x1965
  === BLOCK LINK ===
    0x194a
=== CODE BLOCK END ===

=== CODE BLOCK ADDRESS 0x194a ===
  0x194a	mov    	ecx, 2
  0x194f	cmp    	word ptr [eax + 0x5c], cx
  0x1953	jne    	0x1959
  === BLOCK LINK ===
    0x1955
=== CODE BLOCK END ===

=== CODE BLOCK ADDRESS 0x1955 ===
  0x1955	mov    	eax, ecx
  0x1957	jmp    	0x1967
  === BLOCK LINK ===
    0x1959
=== CODE BLOCK END ===

=== CODE BLOCK ADDRESS 0x1959 ===
  0x1959	cmp    	word ptr [eax + 0x5c], 3
  0x195e	mov    	eax, 1
  0x1963	je     	0x1967
  === BLOCK LINK ===
    0x1965
=== CODE BLOCK END ===

=== CODE BLOCK ADDRESS 0x1965 ===
  0x1965	mov    	eax, ebx
  0x1967	dec    	eax
  0x1968	add    	esp, 0x20
  0x196b	pop    	ebx
  0x196c	ret    	
  === BLOCK LINK ===
    0x196d
=== CODE BLOCK END ===

=== CODE BLOCK ADDRESS 0x196d ===
  0x196d	int3   	
  0x196e	int3   	
  0x196f	int3   	
  0x1970	int3   	
  0x1971	int3   	
  === BLOCK LINK ===
    0x1972
=== CODE BLOCK END ===

=== CODE BLOCK ADDRESS 0x1972 ===
  0x1972	int3   	
  0x1973	jmp    	dword ptr [0x97f]
  === BLOCK LINK ===
    0x1979
=== CODE BLOCK END ===

=== CODE BLOCK ADDRESS 0x1979 ===
  0x1979	int3   	
  0x197a	int3   	
  0x197b	int3   	
  0x197c	int3   	
  0x197d	int3   	
  === BLOCK LINK ===
    0x197e
=== CODE BLOCK END ===

=== CODE BLOCK ADDRESS 0x197e ===
  0x197e	int3   	
  0x197f	int3   	
  0x1980	xor    	eax, eax
  0x1982	ret    	
  0x1983	int3   	
  === BLOCK LINK ===
    0x1984
=== CODE BLOCK END ===

=== CODE BLOCK ADDRESS 0x120f ===
  0x120f	xor    	edx, edx
  0x1211	dec    	eax
  0x1212	mov    	ecx, edi
  0x1214	dec    	eax
  === BLOCK LINK ===
    0x1215
=== CODE BLOCK END ===

=== CODE BLOCK ADDRESS 0x1984 ===
  0x1984	int3   	
  0x1985	int3   	
  0x1986	int3   	
  0x1987	int3   	
  0x1988	int3   	
  === BLOCK LINK ===
    0x1989
=== CODE BLOCK END ===

=== CODE BLOCK ADDRESS 0x1989 ===
  0x1989	int3   	
  0x198a	int3   	
  0x198b	int3   	
  0x198c	int3   	
  0x198d	int3   	
  === BLOCK LINK ===
    0x198e
=== CODE BLOCK END ===

=== CODE BLOCK ADDRESS 0x198e ===
  0x198e	int3   	
  0x198f	int3   	
  0x1990	dec    	esp
  0x1991	arpl   	word ptr [ecx + 0x3c], ax
  0x1994	inc    	ebp
  === BLOCK LINK ===
    0x1995
=== CODE BLOCK END ===

=== CODE BLOCK ADDRESS 0x1995 ===
  0x1995	xor    	ecx, ecx
  0x1997	dec    	esp
  0x1998	add    	eax, ecx
  0x199a	dec    	esp
  0x199b	mov    	edx, edx
  === BLOCK LINK ===
    0x199d
=== CODE BLOCK END ===

=== CODE BLOCK ADDRESS 0x199d ===
  0x199d	inc    	ecx
  0x199e	movzx  	eax, word ptr [eax + 0x14]
  0x19a2	inc    	ebp
  0x19a3	movzx  	ebx, word ptr [eax + 6]
  0x19a7	dec    	eax
  === BLOCK LINK ===
    0x19a8
=== CODE BLOCK END ===

=== CODE BLOCK ADDRESS 0x19a8 ===
  0x19a8	add    	eax, 0x18
  0x19ab	dec    	ecx
  0x19ac	add    	eax, eax
  0x19ae	inc    	ebp
  0x19af	test   	ebx, ebx
  === BLOCK LINK ===
    0x19b1
=== CODE BLOCK END ===

=== CODE BLOCK ADDRESS 0x19b1 ===
  0x19b1	je     	0x19d1
  === BLOCK LINK ===
    0x19b3
=== CODE BLOCK END ===

=== CODE BLOCK ADDRESS 0x19b3 ===
  0x19b3	mov    	edx, dword ptr [eax + 0xc]
  0x19b6	dec    	esp
  0x19b7	cmp    	edx, edx
  0x19b9	jb     	0x19c5
  === BLOCK LINK ===
    0x19bb
=== CODE BLOCK END ===

=== CODE BLOCK ADDRESS 0x19bb ===
  0x19bb	mov    	ecx, dword ptr [eax + 8]
  0x19be	add    	ecx, edx
  0x19c0	dec    	esp
  0x19c1	cmp    	edx, ecx
  0x19c3	jb     	0x19d3
  === BLOCK LINK ===
    0x19c5
=== CODE BLOCK END ===

=== CODE BLOCK ADDRESS 0x19c5 ===
  0x19c5	inc    	ecx
  0x19c6	inc    	ecx
  0x19c8	dec    	eax
  0x19c9	add    	eax, 0x28
  0x19cc	inc    	ebp
  === BLOCK LINK ===
    0x19cd
=== CODE BLOCK END ===

=== CODE BLOCK ADDRESS 0x19cd ===
  0x19cd	cmp    	ecx, ebx
  0x19cf	jb     	0x19b3
  === BLOCK LINK ===
    0x19d1
=== CODE BLOCK END ===

=== CODE BLOCK ADDRESS 0x19d1 ===
  0x19d1	xor    	eax, eax
  0x19d3	ret    	
  0x19d4	int3   	
  0x19d5	int3   	
  0x19d6	int3   	
  === BLOCK LINK ===
    0x19d7
=== CODE BLOCK END ===

=== CODE BLOCK ADDRESS 0x1830 ===
  0x1830	dec    	eax
  0x1831	cmp    	ecx, dword ptr [0x17d1]
  0x1837	jne    	0x1849
  === BLOCK LINK ===
    0x1839
=== CODE BLOCK END ===

=== CODE BLOCK ADDRESS 0x19d7 ===
  0x19d7	int3   	
  0x19d8	int3   	
  0x19d9	int3   	
  0x19da	int3   	
  0x19db	int3   	
  === BLOCK LINK ===
    0x19dc
=== CODE BLOCK END ===

=== CODE BLOCK ADDRESS 0x19dc ===
  0x19dc	int3   	
  0x19dd	int3   	
  0x19de	int3   	
  0x19df	int3   	
  0x19e0	dec    	eax
  === BLOCK LINK ===
    0x19e1
=== CODE BLOCK END ===

=== CODE BLOCK ADDRESS 0x19e1 ===
  0x19e1	mov    	dword ptr [esp + 8], ebx
  0x19e5	push   	edi
  0x19e6	dec    	eax
  0x19e7	sub    	esp, 0x20
  0x19ea	dec    	eax
  === BLOCK LINK ===
    0x19eb
=== CODE BLOCK END ===

=== CODE BLOCK ADDRESS 0x19eb ===
  0x19eb	mov    	ebx, ecx
  0x19ed	dec    	eax
  0x19ee	lea    	edi, [0xffffe60c]
  0x19f4	dec    	eax
  0x19f5	mov    	ecx, edi
  === BLOCK LINK ===
    0x19f7
=== CODE BLOCK END ===

=== CODE BLOCK ADDRESS 0x19f7 ===
  0x19f7	call   	0x1a40
  === BLOCK LINK ===
    0x19fc
=== CODE BLOCK END ===

=== CODE BLOCK ADDRESS 0x19fc ===
  0x19fc	test   	eax, eax
  0x19fe	je     	0x1a22
  === BLOCK LINK ===
    0x1a00
=== CODE BLOCK END ===

=== CODE BLOCK ADDRESS 0x1a00 ===
  0x1a00	dec    	eax
  0x1a01	sub    	ebx, edi
  0x1a03	dec    	eax
  0x1a04	mov    	edx, ebx
  0x1a06	dec    	eax
  === BLOCK LINK ===
    0x1a07
=== CODE BLOCK END ===

=== CODE BLOCK ADDRESS 0x1a07 ===
  0x1a07	mov    	ecx, edi
  0x1a09	call   	0x1990
  === BLOCK LINK ===
    0x1a0e
=== CODE BLOCK END ===

=== CODE BLOCK ADDRESS 0x1a0e ===
  0x1a0e	dec    	eax
  0x1a0f	test   	eax, eax
  0x1a11	je     	0x1a22
  === BLOCK LINK ===
    0x1a13
=== CODE BLOCK END ===

=== CODE BLOCK ADDRESS 0x1a13 ===
  0x1a13	mov    	eax, dword ptr [eax + 0x24]
  0x1a16	shr    	eax, 0x1f
  0x1a19	not    	eax
  0x1a1b	and    	eax, 1
  0x1a1e	jmp    	0x1a22
  === BLOCK LINK ===
    0x1a20
=== CODE BLOCK END ===

=== CODE BLOCK ADDRESS 0x1a20 ===
  0x1a20	xor    	eax, eax
  0x1a22	dec    	eax
  0x1a23	mov    	ebx, dword ptr [esp + 0x30]
  0x1a27	dec    	eax
  0x1a28	add    	esp, 0x20
  === BLOCK LINK ===
    0x1a2b
=== CODE BLOCK END ===

=== CODE BLOCK ADDRESS 0x1a2b ===
  0x1a2b	pop    	edi
  0x1a2c	ret    	
  0x1a2d	int3   	
  0x1a2e	int3   	
  0x1a2f	int3   	
  === BLOCK LINK ===
    0x1a30
=== CODE BLOCK END ===

=== CODE BLOCK ADDRESS 0x1dcd ===
=== CODE BLOCK END ===

=== CODE BLOCK ADDRESS 0x1a30 ===
  0x1a30	int3   	
  0x1a31	int3   	
  0x1a32	int3   	
  0x1a33	int3   	
  0x1a34	int3   	
  === BLOCK LINK ===
    0x1a35
=== CODE BLOCK END ===

=== CODE BLOCK ADDRESS 0x1a35 ===
  0x1a35	int3   	
  0x1a36	int3   	
  0x1a37	int3   	
  0x1a38	int3   	
  0x1a39	int3   	
  === BLOCK LINK ===
    0x1a3a
=== CODE BLOCK END ===

=== CODE BLOCK ADDRESS 0x1a3a ===
  0x1a3a	int3   	
  0x1a3b	int3   	
  0x1a3c	int3   	
  0x1a3d	int3   	
  0x1a3e	int3   	
  === BLOCK LINK ===
    0x1a3f
=== CODE BLOCK END ===

=== CODE BLOCK ADDRESS 0x1a3f ===
  0x1a3f	int3   	
  0x1a40	mov    	eax, 0x5a4d
  0x1a45	cmp    	word ptr [ecx], ax
  0x1a48	jne    	0x1a6a
  === BLOCK LINK ===
    0x1a4a
=== CODE BLOCK END ===

=== CODE BLOCK ADDRESS 0x1a4a ===
  0x1a4a	dec    	eax
  0x1a4b	arpl   	word ptr [ecx + 0x3c], ax
  0x1a4e	dec    	eax
  0x1a4f	add    	eax, ecx
  0x1a51	cmp    	dword ptr [eax], 0x4550
  === BLOCK LINK ===
    0x1a57
=== CODE BLOCK END ===

=== CODE BLOCK ADDRESS 0x1a57 ===
  0x1a57	jne    	0x1a6a
  === BLOCK LINK ===
    0x1a59
=== CODE BLOCK END ===

=== CODE BLOCK ADDRESS 0x1a59 ===
  0x1a59	mov    	ecx, 0x20b
  0x1a5e	cmp    	word ptr [eax + 0x18], cx
  0x1a62	jne    	0x1a6a
  === BLOCK LINK ===
    0x1a64
=== CODE BLOCK END ===

=== CODE BLOCK ADDRESS 0x1a64 ===
  0x1a64	mov    	eax, 1
  0x1a69	ret    	
  0x1a6a	xor    	eax, eax
  0x1a6c	ret    	
  0x1a6d	int3   	
  === BLOCK LINK ===
    0x1a6e
=== CODE BLOCK END ===

=== CODE BLOCK ADDRESS 0x1431 ===
  0x1431	mov    	eax, edi
  0x1433	dec    	eax
  0x1434	mov    	ecx, dword ptr [ebp + 0x40]
  0x1437	dec    	eax
  === BLOCK LINK ===
    0x1438
=== CODE BLOCK END ===

=== CODE BLOCK ADDRESS 0x1a6e ===
  0x1a6e	int3   	
  0x1a6f	int3   	
  0x1a70	int3   	
  0x1a71	int3   	
  0x1a72	int3   	
  === BLOCK LINK ===
    0x1a73
=== CODE BLOCK END ===

=== CODE BLOCK ADDRESS 0x1a73 ===
  0x1a73	int3   	
  0x1a74	dec    	eax
  0x1a75	mov    	dword ptr [esp + 0x20], ebx
  0x1a79	push   	ebp
  0x1a7a	dec    	eax
  === BLOCK LINK ===
    0x1a7b
=== CODE BLOCK END ===

=== CODE BLOCK ADDRESS 0x1a7b ===
  0x1a7b	mov    	ebp, esp
  0x1a7d	dec    	eax
  0x1a7e	sub    	esp, 0x20
  0x1a81	dec    	eax
  0x1a82	and    	dword ptr [ebp + 0x18], 0
  === BLOCK LINK ===
    0x1a86
=== CODE BLOCK END ===

=== CODE BLOCK ADDRESS 0x1a86 ===
  0x1a86	dec    	eax
  0x1a87	mov    	ebx, 0x2ddfa232
  0x1a8c	cdq    	
  0x1a8d	sub    	eax, dword ptr [eax]
  0x1a8f	add    	byte ptr [eax - 0x75], cl
  === BLOCK LINK ===
    0x1a92
=== CODE BLOCK END ===

=== CODE BLOCK ADDRESS 0x1a92 ===
  0x1a92	add    	eax, 0x1571
  0x1a97	dec    	eax
  0x1a98	cmp    	eax, ebx
  0x1a9a	jne    	0x1b33
  === BLOCK LINK ===
    0x1aa0
=== CODE BLOCK END ===

=== CODE BLOCK ADDRESS 0x1aa0 ===
  0x1aa0	dec    	eax
  0x1aa1	lea    	ecx, [ebp + 0x18]
  0x1aa4	call   	dword ptr [0x7de]
  === BLOCK LINK ===
    0x1aaa
=== CODE BLOCK END ===

=== CODE BLOCK ADDRESS 0x1aaa ===
  0x1aaa	dec    	eax
  0x1aab	mov    	eax, dword ptr [ebp + 0x18]
  0x1aae	dec    	eax
  0x1aaf	mov    	dword ptr [ebp + 0x10], eax
  0x1ab2	call   	dword ptr [0x778]
  === BLOCK LINK ===
    0x1ab8
=== CODE BLOCK END ===

=== CODE BLOCK ADDRESS 0x1ab8 ===
  0x1ab8	mov    	eax, eax
  0x1aba	dec    	eax
  0x1abb	xor    	dword ptr [ebp + 0x10], eax
  0x1abe	call   	dword ptr [0x774]
  === BLOCK LINK ===
    0x1ac4
=== CODE BLOCK END ===

=== CODE BLOCK ADDRESS 0x1ac4 ===
  0x1ac4	mov    	eax, eax
  0x1ac6	dec    	eax
  0x1ac7	xor    	dword ptr [ebp + 0x10], eax
  0x1aca	call   	dword ptr [0x7c0]
  === BLOCK LINK ===
    0x1ad0
=== CODE BLOCK END ===

=== CODE BLOCK ADDRESS 0x1ad0 ===
  0x1ad0	mov    	eax, eax
  0x1ad2	dec    	eax
  0x1ad3	shl    	eax, 0x18
  0x1ad6	dec    	eax
  0x1ad7	xor    	dword ptr [ebp + 0x10], eax
  === BLOCK LINK ===
    0x1ada
=== CODE BLOCK END ===

=== CODE BLOCK ADDRESS 0x1ada ===
  0x1ada	call   	dword ptr [0x7b0]
  === BLOCK LINK ===
    0x1ae0
=== CODE BLOCK END ===

=== CODE BLOCK ADDRESS 0x1ae0 ===
  0x1ae0	mov    	eax, eax
  0x1ae2	dec    	eax
  0x1ae3	lea    	ecx, [ebp + 0x10]
  0x1ae6	dec    	eax
  0x1ae7	xor    	eax, dword ptr [ebp + 0x10]
  === BLOCK LINK ===
    0x1aea
=== CODE BLOCK END ===

=== CODE BLOCK ADDRESS 0x1aea ===
  0x1aea	dec    	eax
  0x1aeb	xor    	eax, ecx
  0x1aed	dec    	eax
  0x1aee	lea    	ecx, [ebp + 0x20]
  0x1af1	dec    	eax
  === BLOCK LINK ===
    0x1af2
=== CODE BLOCK END ===

=== CODE BLOCK ADDRESS 0x1af2 ===
  0x1af2	mov    	dword ptr [ebp + 0x10], eax
  0x1af5	call   	dword ptr [0x74d]
  === BLOCK LINK ===
    0x1afb
=== CODE BLOCK END ===

=== CODE BLOCK ADDRESS 0x1afb ===
  0x1afb	mov    	eax, dword ptr [ebp + 0x20]
  0x1afe	dec    	eax
  0x1aff	mov    	ecx, 0xffffffff
  0x1b04	.byte  	0xff
  0x1b05	inc    	dword ptr [eax]
  === BLOCK LINK ===
    0x1b07
=== CODE BLOCK END ===

=== CODE BLOCK ADDRESS 0x1b07 ===
  0x1b07	add    	byte ptr [eax - 0x3f], cl
  0x1b0a	loopne  	0x1b2c
  === BLOCK LINK ===
    0x1b0c
=== CODE BLOCK END ===

=== CODE BLOCK ADDRESS 0x1b0c ===
  0x1b0c	dec    	eax
  0x1b0d	xor    	eax, dword ptr [ebp + 0x20]
  0x1b10	dec    	eax
  0x1b11	xor    	eax, dword ptr [ebp + 0x10]
  0x1b14	dec    	eax
  === BLOCK LINK ===
    0x1b15
=== CODE BLOCK END ===

=== CODE BLOCK ADDRESS 0x1b15 ===
  0x1b15	and    	eax, ecx
  0x1b17	dec    	eax
  0x1b18	mov    	ecx, eax
  0x1b1a	dec    	eax
  0x1b1b	cmp    	eax, ebx
  === BLOCK LINK ===
    0x1b1d
=== CODE BLOCK END ===

=== CODE BLOCK ADDRESS 0x1b1d ===
  0x1b1d	jne    	0x1b2c
  === BLOCK LINK ===
    0x1b1f
=== CODE BLOCK END ===

=== CODE BLOCK ADDRESS 0x1b1f ===
  0x1b1f	dec    	eax
  0x1b20	mov    	eax, 0x2ddfa233
  0x1b25	cdq    	
  0x1b26	sub    	eax, dword ptr [eax]
  0x1b28	add    	byte ptr [eax - 0x75], cl
  === BLOCK LINK ===
    0x1b2b
=== CODE BLOCK END ===

=== CODE BLOCK ADDRESS 0x1b2b ===
  0x1b2b	enter  	-0x76b8, 0xd
  0x1b2f	aad    	0x14
  0x1b31	add    	byte ptr [eax], al
  0x1b33	dec    	eax
  0x1b34	mov    	ebx, dword ptr [esp + 0x48]
  === BLOCK LINK ===
    0x1b38
=== CODE BLOCK END ===

=== CODE BLOCK ADDRESS 0x1b38 ===
  0x1b38	dec    	eax
  0x1b39	not    	eax
  0x1b3b	dec    	eax
  0x1b3c	mov    	dword ptr [0x14ce], eax
  0x1b42	dec    	eax
  === BLOCK LINK ===
    0x1b43
=== CODE BLOCK END ===

=== CODE BLOCK ADDRESS 0x1b43 ===
  0x1b43	add    	esp, 0x20
  0x1b46	pop    	ebp
  0x1b47	ret    	
  0x1b48	int3   	
  0x1b49	int3   	
  === BLOCK LINK ===
    0x1b4a
=== CODE BLOCK END ===

=== CODE BLOCK ADDRESS 0x13c3 ===
=== CODE BLOCK END ===

=== CODE BLOCK ADDRESS 0x1b4a ===
  0x1b4a	int3   	
  0x1b4b	int3   	
  0x1b4c	int3   	
  0x1b4d	int3   	
  0x1b4e	jmp    	dword ptr [0x75c]
  === BLOCK LINK ===
    0x1b54
=== CODE BLOCK END ===

=== CODE BLOCK ADDRESS 0x1b54 ===
  0x1b54	int3   	
  0x1b55	int3   	
  0x1b56	int3   	
  0x1b57	int3   	
  0x1b58	int3   	
  === BLOCK LINK ===
    0x1b59
=== CODE BLOCK END ===

=== CODE BLOCK ADDRESS 0x1b59 ===
  0x1b59	int3   	
  0x1b5a	jmp    	dword ptr [0x758]
  === BLOCK LINK ===
    0x1b60
=== CODE BLOCK END ===

=== CODE BLOCK ADDRESS 0x1b60 ===
  0x1b60	int3   	
  0x1b61	int3   	
  0x1b62	int3   	
  0x1b63	int3   	
  0x1b64	int3   	
  === BLOCK LINK ===
    0x1b65
=== CODE BLOCK END ===

=== CODE BLOCK ADDRESS 0x1b65 ===
  0x1b65	int3   	
  0x1b66	int3   	
  0x1b67	int3   	
  0x1b68	int3   	
  0x1b69	int3   	
  === BLOCK LINK ===
    0x1b6a
=== CODE BLOCK END ===

=== CODE BLOCK ADDRESS 0x1b6a ===
  0x1b6a	int3   	
  0x1b6b	int3   	
  0x1b6c	int3   	
  0x1b6d	int3   	
  0x1b6e	int3   	
  === BLOCK LINK ===
    0x1b6f
=== CODE BLOCK END ===

=== CODE BLOCK ADDRESS 0x1b6f ===
  0x1b6f	int3   	
  0x1b70	ret    	0
  0x1b73	int3   	
  0x1b74	int3   	
  0x1b75	int3   	
  === BLOCK LINK ===
    0x1b76
=== CODE BLOCK END ===

=== CODE BLOCK ADDRESS 0x1b76 ===
  0x1b76	int3   	
  0x1b77	int3   	
  0x1b78	int3   	
  0x1b79	int3   	
  0x1b7a	int3   	
  === BLOCK LINK ===
    0x1b7b
=== CODE BLOCK END ===

=== CODE BLOCK ADDRESS 0x1b7b ===
  0x1b7b	int3   	
  0x1b7c	inc    	eax
  0x1b7d	push   	ebx
  0x1b7e	dec    	eax
  0x1b7f	sub    	esp, 0x20
  === BLOCK LINK ===
    0x1b82
=== CODE BLOCK END ===

=== CODE BLOCK ADDRESS 0x1b82 ===
  0x1b82	dec    	eax
  0x1b83	mov    	ebx, ecx
  0x1b85	xor    	ecx, ecx
  0x1b87	call   	dword ptr [0x66b]
  === BLOCK LINK ===
    0x1b8d
=== CODE BLOCK END ===

=== CODE BLOCK ADDRESS 0x1b8d ===
  0x1b8d	dec    	eax
  0x1b8e	mov    	ecx, ebx
  0x1b90	call   	dword ptr [0x65a]
  === BLOCK LINK ===
    0x1b96
=== CODE BLOCK END ===

=== CODE BLOCK ADDRESS 0x1b96 ===
  0x1b96	call   	dword ptr [0x67c]
  === BLOCK LINK ===
    0x1b9c
=== CODE BLOCK END ===

=== CODE BLOCK ADDRESS 0x1b9c ===
  0x1b9c	dec    	eax
  0x1b9d	mov    	ecx, eax
  0x1b9f	mov    	edx, 0xc0000409
  0x1ba4	dec    	eax
  0x1ba5	add    	esp, 0x20
  === BLOCK LINK ===
    0x1ba8
=== CODE BLOCK END ===

=== CODE BLOCK ADDRESS 0x1ba8 ===
  0x1ba8	pop    	ebx
  0x1ba9	dec    	eax
  0x1baa	jmp    	dword ptr [0x670]
  === BLOCK LINK ===
    0x1bb0
=== CODE BLOCK END ===

=== CODE BLOCK ADDRESS 0x1bb0 ===
  0x1bb0	int3   	
  0x1bb1	int3   	
  0x1bb2	int3   	
  0x1bb3	int3   	
  0x1bb4	int3   	
  === BLOCK LINK ===
    0x1bb5
=== CODE BLOCK END ===

=== CODE BLOCK ADDRESS 0x1bb5 ===
  0x1bb5	int3   	
  0x1bb6	int3   	
  0x1bb7	int3   	
  0x1bb8	int3   	
  0x1bb9	int3   	
  === BLOCK LINK ===
    0x1bba
=== CODE BLOCK END ===

=== CODE BLOCK ADDRESS 0x1bba ===
  0x1bba	int3   	
  0x1bbb	int3   	
  0x1bbc	int3   	
  0x1bbd	int3   	
  0x1bbe	int3   	
  === BLOCK LINK ===
    0x1bbf
=== CODE BLOCK END ===

=== CODE BLOCK ADDRESS 0x1bbf ===
  0x1bbf	int3   	
  0x1bc0	dec    	eax
  0x1bc1	mov    	dword ptr [esp + 8], ecx
  0x1bc5	dec    	eax
  0x1bc6	sub    	esp, 0x88
  === BLOCK LINK ===
    0x1bcc
=== CODE BLOCK END ===

=== CODE BLOCK ADDRESS 0x1bcc ===
  0x1bcc	dec    	eax
  0x1bcd	lea    	ecx, [0x152d]
  0x1bd3	call   	dword ptr [0x68f]
  === BLOCK LINK ===
    0x1bd9
=== CODE BLOCK END ===

=== CODE BLOCK ADDRESS 0x1bd9 ===
  0x1bd9	dec    	eax
  0x1bda	mov    	eax, dword ptr [0x1618]
  0x1be0	dec    	eax
  0x1be1	mov    	dword ptr [esp + 0x48], eax
  0x1be5	inc    	ebp
  === BLOCK LINK ===
    0x1be6
=== CODE BLOCK END ===

=== CODE BLOCK ADDRESS 0x1be6 ===
  0x1be6	xor    	eax, eax
  0x1be8	dec    	eax
  0x1be9	lea    	edx, [esp + 0x50]
  0x1bed	dec    	eax
  0x1bee	mov    	ecx, dword ptr [esp + 0x48]
  === BLOCK LINK ===
    0x1bf2
=== CODE BLOCK END ===

=== CODE BLOCK ADDRESS 0x1bf2 ===
  0x1bf2	call   	dword ptr [0x668]
  === BLOCK LINK ===
    0x1bf8
=== CODE BLOCK END ===

=== CODE BLOCK ADDRESS 0x1bf8 ===
  0x1bf8	dec    	eax
  0x1bf9	mov    	dword ptr [esp + 0x40], eax
  0x1bfd	dec    	eax
  0x1bfe	cmp    	dword ptr [esp + 0x40], 0
  0x1c03	je     	0x1c47
  === BLOCK LINK ===
    0x1c05
=== CODE BLOCK END ===

=== CODE BLOCK ADDRESS 0x1c05 ===
  0x1c05	dec    	eax
  0x1c06	mov    	dword ptr [esp + 0x38], 0
  0x1c0e	dec    	eax
  0x1c0f	lea    	eax, [esp + 0x58]
  0x1c13	dec    	eax
  === BLOCK LINK ===
    0x1c14
=== CODE BLOCK END ===

=== CODE BLOCK ADDRESS 0x1c14 ===
  0x1c14	mov    	dword ptr [esp + 0x30], eax
  0x1c18	dec    	eax
  0x1c19	lea    	eax, [esp + 0x60]
  0x1c1d	dec    	eax
  0x1c1e	mov    	dword ptr [esp + 0x28], eax
  === BLOCK LINK ===
    0x1c22
=== CODE BLOCK END ===

=== CODE BLOCK ADDRESS 0x1c22 ===
  0x1c22	dec    	eax
  0x1c23	lea    	eax, [0x14d7]
  0x1c29	dec    	eax
  0x1c2a	mov    	dword ptr [esp + 0x20], eax
  0x1c2e	dec    	esp
  === BLOCK LINK ===
    0x1c2f
=== CODE BLOCK END ===

=== CODE BLOCK ADDRESS 0x1c2f ===
  0x1c2f	mov    	ecx, dword ptr [esp + 0x40]
  0x1c33	dec    	esp
  0x1c34	mov    	eax, dword ptr [esp + 0x48]
  0x1c38	dec    	eax
  0x1c39	mov    	edx, dword ptr [esp + 0x50]
  === BLOCK LINK ===
    0x1c3d
=== CODE BLOCK END ===

=== CODE BLOCK ADDRESS 0x1c3d ===
  0x1c3d	xor    	ecx, ecx
  0x1c3f	call   	dword ptr [0x613]
  === BLOCK LINK ===
    0x1c45
=== CODE BLOCK END ===

=== CODE BLOCK ADDRESS 0x1c45 ===
  0x1c45	jmp    	0x1c6a
  === BLOCK LINK ===
    0x1c47
=== CODE BLOCK END ===

=== CODE BLOCK ADDRESS 0x1c47 ===
  0x1c47	dec    	eax
  0x1c48	mov    	eax, dword ptr [0x154a]
  0x1c4e	dec    	eax
  0x1c4f	mov    	eax, dword ptr [eax]
  0x1c51	dec    	eax
  === BLOCK LINK ===
    0x1c52
=== CODE BLOCK END ===

=== CODE BLOCK ADDRESS 0x1c52 ===
  0x1c52	mov    	dword ptr [0x15a0], eax
  0x1c58	dec    	eax
  0x1c59	mov    	eax, dword ptr [0x1539]
  0x1c5f	dec    	eax
  0x1c60	add    	eax, 8
  === BLOCK LINK ===
    0x1c63
=== CODE BLOCK END ===

=== CODE BLOCK ADDRESS 0x1c63 ===
  0x1c63	dec    	eax
  0x1c64	mov    	dword ptr [0x152e], eax
  0x1c6a	dec    	eax
  0x1c6b	mov    	eax, dword ptr [0x1587]
  0x1c71	dec    	eax
  === BLOCK LINK ===
    0x1c72
=== CODE BLOCK END ===

=== CODE BLOCK ADDRESS 0x1c72 ===
  0x1c72	mov    	dword ptr [0x13f8], eax
  0x1c78	dec    	eax
  0x1c79	mov    	eax, dword ptr [esp + 0x90]
  0x1c80	dec    	eax
  0x1c81	mov    	dword ptr [0x14f9], eax
  === BLOCK LINK ===
    0x1c87
=== CODE BLOCK END ===

=== CODE BLOCK ADDRESS 0x1c87 ===
  0x1c87	mov    	dword ptr [0x13cf], 0xc0000409
  0x1c91	mov    	dword ptr [0x13c9], 1
  0x1c9b	mov    	dword ptr [0x13d3], 3
  0x1ca5	mov    	eax, 8
  0x1caa	dec    	eax
  === BLOCK LINK ===
    0x1cab
=== CODE BLOCK END ===

=== CODE BLOCK ADDRESS 0x1cab ===
  0x1cab	imul   	eax, eax, 0
  0x1cae	dec    	eax
  0x1caf	lea    	ecx, [0x13cb]
  0x1cb5	dec    	eax
  0x1cb6	mov    	dword ptr [ecx + eax], 2
  === BLOCK LINK ===
    0x1cbd
=== CODE BLOCK END ===

=== CODE BLOCK ADDRESS 0x1cbd ===
  0x1cbd	mov    	eax, 8
  0x1cc2	dec    	eax
  0x1cc3	imul   	eax, eax, 1
  0x1cc6	dec    	eax
  0x1cc7	lea    	ecx, [0x13b3]
  === BLOCK LINK ===
    0x1ccd
=== CODE BLOCK END ===

=== CODE BLOCK ADDRESS 0x1ccd ===
  0x1ccd	dec    	eax
  0x1cce	mov    	edx, dword ptr [0x1334]
  0x1cd4	dec    	eax
  0x1cd5	mov    	dword ptr [ecx + eax], edx
  0x1cd8	mov    	eax, 8
  === BLOCK LINK ===
    0x1cdd
=== CODE BLOCK END ===

=== CODE BLOCK ADDRESS 0x1cdd ===
  0x1cdd	dec    	eax
  0x1cde	imul   	eax, eax, 2
  0x1ce1	dec    	eax
  0x1ce2	lea    	ecx, [0x1398]
  0x1ce8	dec    	eax
  === BLOCK LINK ===
    0x1ce9
=== CODE BLOCK END ===

=== CODE BLOCK ADDRESS 0x1ce9 ===
  0x1ce9	mov    	edx, dword ptr [0x1321]
  0x1cef	dec    	eax
  0x1cf0	mov    	dword ptr [ecx + eax], edx
  0x1cf3	mov    	eax, 8
  0x1cf8	dec    	eax
  === BLOCK LINK ===
    0x1cf9
=== CODE BLOCK END ===

=== CODE BLOCK ADDRESS 0x1cf9 ===
  0x1cf9	imul   	eax, eax, 0
  0x1cfc	dec    	eax
  0x1cfd	mov    	ecx, dword ptr [0x1305]
  0x1d03	dec    	eax
  0x1d04	mov    	dword ptr [esp + eax + 0x68], ecx
  === BLOCK LINK ===
    0x1d08
=== CODE BLOCK END ===

=== CODE BLOCK ADDRESS 0x1d08 ===
  0x1d08	mov    	eax, 8
  0x1d0d	dec    	eax
  0x1d0e	imul   	eax, eax, 1
  0x1d11	dec    	eax
  0x1d12	mov    	ecx, dword ptr [0x12f8]
  === BLOCK LINK ===
    0x1d18
=== CODE BLOCK END ===

=== CODE BLOCK ADDRESS 0x1d18 ===
  0x1d18	dec    	eax
  0x1d19	mov    	dword ptr [esp + eax + 0x68], ecx
  0x1d1d	dec    	eax
  0x1d1e	lea    	ecx, [0x2dc]
  0x1d24	call   	0x1b7c
  === BLOCK LINK ===
    0x1d29
=== CODE BLOCK END ===

=== CODE BLOCK ADDRESS 0x1d29 ===
  0x1d29	dec    	eax
  0x1d2a	add    	esp, 0x88
  0x1d30	ret    	
  0x1d31	int3   	
  0x1d32	int3   	
  === BLOCK LINK ===
    0x1d33
=== CODE BLOCK END ===

=== CODE BLOCK ADDRESS 0x13bf ===
  0x13bf	dec    	eax
  0x13c0	mov    	ebx, dword ptr [ebp - 0x68]
  0x13c3	inc    	ebp
  === BLOCK LINK ===
    0x13c4
=== CODE BLOCK END ===

=== CODE BLOCK ADDRESS 0x1d33 ===
  0x1d33	int3   	
  0x1d34	int3   	
  0x1d35	int3   	
  0x1d36	int3   	
  0x1d37	int3   	
  === BLOCK LINK ===
    0x1d38
=== CODE BLOCK END ===

=== CODE BLOCK ADDRESS 0x1d38 ===
  0x1d38	int3   	
  0x1d39	int3   	
  0x1d3a	int3   	
  0x1d3b	int3   	
  0x1d3c	int3   	
  === BLOCK LINK ===
    0x1d3d
=== CODE BLOCK END ===

=== CODE BLOCK ADDRESS 0x1d3d ===
  0x1d3d	int3   	
  0x1d3e	int3   	
  0x1d3f	int3   	
  0x1d40	int3   	
  0x1d41	int3   	
  === BLOCK LINK ===
    0x1d42
=== CODE BLOCK END ===

=== CODE BLOCK ADDRESS 0x1d42 ===
  0x1d42	int3   	
  0x1d43	int3   	
  0x1d44	int3   	
  0x1d45	int3   	
  0x1d46	int3   	
  === BLOCK LINK ===
    0x1d47
=== CODE BLOCK END ===

=== CODE BLOCK ADDRESS 0x1d47 ===
  0x1d47	int3   	
  0x1d48	dec    	eax
  0x1d49	sub    	esp, 0x28
  0x1d4c	dec    	ebp
  0x1d4d	mov    	eax, dword ptr [ecx + 0x38]
  === BLOCK LINK ===
    0x1d50
=== CODE BLOCK END ===

=== CODE BLOCK ADDRESS 0x1d50 ===
  0x1d50	dec    	eax
  0x1d51	mov    	ecx, edx
  0x1d53	dec    	ecx
  0x1d54	mov    	edx, ecx
  0x1d56	call   	0x1d6c
  === BLOCK LINK ===
    0x1d5b
=== CODE BLOCK END ===

=== CODE BLOCK ADDRESS 0x1d5b ===
  0x1d5b	mov    	eax, 1
  0x1d60	dec    	eax
  0x1d61	add    	esp, 0x28
  0x1d64	ret    	
  0x1d65	int3   	
  === BLOCK LINK ===
    0x1d66
=== CODE BLOCK END ===

=== CODE BLOCK ADDRESS 0x1d66 ===
  0x1d66	int3   	
  0x1d67	int3   	
  0x1d68	int3   	
  0x1d69	int3   	
  0x1d6a	int3   	
  === BLOCK LINK ===
    0x1d6b
=== CODE BLOCK END ===

=== CODE BLOCK ADDRESS 0x1d6b ===
  0x1d6b	int3   	
  0x1d6c	inc    	eax
  0x1d6d	push   	ebx
  0x1d6e	inc    	ebp
  0x1d6f	mov    	ebx, dword ptr [eax]
  === BLOCK LINK ===
    0x1d71
=== CODE BLOCK END ===

=== CODE BLOCK ADDRESS 0x1d71 ===
  0x1d71	dec    	eax
  0x1d72	mov    	ebx, edx
  0x1d74	inc    	ecx
  0x1d75	and    	ebx, 0xfffffff8
  0x1d78	dec    	esp
  === BLOCK LINK ===
    0x1d79
=== CODE BLOCK END ===

=== CODE BLOCK ADDRESS 0x1d79 ===
  0x1d79	mov    	ecx, ecx
  0x1d7b	inc    	ecx
  0x1d7c	test   	byte ptr [eax], 4
  0x1d7f	dec    	esp
  0x1d80	mov    	edx, ecx
  === BLOCK LINK ===
    0x1d82
=== CODE BLOCK END ===

=== CODE BLOCK ADDRESS 0x1d82 ===
  0x1d82	je     	0x1d97
  === BLOCK LINK ===
    0x1d84
=== CODE BLOCK END ===

=== CODE BLOCK ADDRESS 0x1d84 ===
  0x1d84	inc    	ecx
  0x1d85	mov    	eax, dword ptr [eax + 8]
  0x1d88	dec    	ebp
  0x1d89	arpl   	word ptr [eax + 4], dx
  0x1d8c	neg    	eax
  === BLOCK LINK ===
    0x1d8e
=== CODE BLOCK END ===

=== CODE BLOCK ADDRESS 0x1d8e ===
  0x1d8e	dec    	esp
  0x1d8f	add    	edx, ecx
  0x1d91	dec    	eax
  0x1d92	arpl   	ax, cx
  0x1d94	dec    	esp
  === BLOCK LINK ===
    0x1d95
=== CODE BLOCK END ===

=== CODE BLOCK ADDRESS 0x1d95 ===
  0x1d95	and    	edx, ecx
  0x1d97	dec    	ecx
  0x1d98	arpl   	bx, ax
  0x1d9a	dec    	edx
  0x1d9b	mov    	edx, dword ptr [eax + edx]
  === BLOCK LINK ===
    0x1d9e
=== CODE BLOCK END ===

=== CODE BLOCK ADDRESS 0x1d9e ===
  0x1d9e	dec    	eax
  0x1d9f	mov    	eax, dword ptr [ebx + 0x10]
  0x1da2	mov    	ecx, dword ptr [eax + 8]
  0x1da5	dec    	eax
  0x1da6	mov    	eax, dword ptr [ebx + 8]
  === BLOCK LINK ===
    0x1da9
=== CODE BLOCK END ===

=== CODE BLOCK ADDRESS 0x1da9 ===
  0x1da9	test   	byte ptr [ecx + eax + 3], 0xf
  0x1dae	je     	0x1dbb
  === BLOCK LINK ===
    0x1db0
=== CODE BLOCK END ===

=== CODE BLOCK ADDRESS 0x1db0 ===
  0x1db0	movzx  	eax, byte ptr [ecx + eax + 3]
  0x1db5	and    	eax, 0xfffffff0
  0x1db8	dec    	esp
  0x1db9	add    	ecx, eax
  0x1dbb	dec    	esp
  === BLOCK LINK ===
    0x1dbc
=== CODE BLOCK END ===

=== CODE BLOCK ADDRESS 0x1dbc ===
  0x1dbc	xor    	ecx, edx
  0x1dbe	dec    	ecx
  0x1dbf	mov    	ecx, ecx
  0x1dc1	pop    	ebx
  0x1dc2	jmp    	0x1830
  === BLOCK LINK ===
    0x1dc7
=== CODE BLOCK END ===

=== CODE BLOCK ADDRESS 0x1dc7 ===
  0x1dc7	int3   	
  0x1dc8	int3   	
  0x1dc9	int3   	
  0x1dca	int3   	
  0x1dcb	int3   	
  === BLOCK LINK ===
    0x1dcc
=== CODE BLOCK END ===

=== CODE BLOCK ADDRESS 0x1dcc ===
  0x1dcc	int3   	
  0x1dcd	jmp    	dword ptr [0x545]
  === BLOCK LINK ===
    0x1dd3
=== CODE BLOCK END ===

=== CODE BLOCK ADDRESS 0x1dd3 ===
  0x1dd3	int3   	
  0x1dd4	int3   	
  0x1dd5	int3   	
  0x1dd6	int3   	
  0x1dd7	int3   	
  === BLOCK LINK ===
    0x1dd8
=== CODE BLOCK END ===

=== CODE BLOCK ADDRESS 0x1dd8 ===
  0x1dd8	int3   	
  0x1dd9	int3   	
  0x1dda	int3   	
  0x1ddb	int3   	
  0x1ddc	int3   	
  === BLOCK LINK ===
    0x1ddd
=== CODE BLOCK END ===

=== CODE BLOCK ADDRESS 0x1ddd ===
  0x1ddd	int3   	
  0x1dde	int3   	
  0x1ddf	int3   	
  0x1de0	int3   	
  0x1de1	int3   	
  === BLOCK LINK ===
    0x1de2
=== CODE BLOCK END ===

=== CODE BLOCK ADDRESS 0x1de2 ===
  0x1de2	int3   	
  0x1de3	int3   	
  0x1de4	int3   	
  0x1de5	int3   	
  0x1de6	nop    	word ptr [eax + eax]
  === BLOCK LINK ===
    0x1df0
=== CODE BLOCK END ===

=== CODE BLOCK ADDRESS 0x1df0 ===
  0x1df0	jmp    	eax
  === BLOCK LINK ===
    0x1df2
=== CODE BLOCK END ===

=== CODE BLOCK ADDRESS 0x1df2 ===
  0x1df2	int3   	
  0x1df3	int3   	
  0x1df4	int3   	
  0x1df5	int3   	
  0x1df6	int3   	
  === BLOCK LINK ===
    0x1df7
=== CODE BLOCK END ===

=== CODE BLOCK ADDRESS 0x1df7 ===
  0x1df7	int3   	
  0x1df8	int3   	
  0x1df9	int3   	
  0x1dfa	int3   	
  0x1dfb	int3   	
  === BLOCK LINK ===
    0x1dfc
=== CODE BLOCK END ===

=== CODE BLOCK ADDRESS 0x1dfc ===
  0x1dfc	int3   	
  0x1dfd	int3   	
  0x1dfe	int3   	
  0x1dff	int3   	
  0x1e00	inc    	eax
  === BLOCK LINK ===
    0x1e01
=== CODE BLOCK END ===

=== CODE BLOCK ADDRESS 0x1e01 ===
  0x1e01	push   	ebp
  0x1e02	dec    	eax
  0x1e03	sub    	esp, 0x20
  0x1e06	dec    	eax
  0x1e07	mov    	ebp, edx
  === BLOCK LINK ===
    0x1e09
=== CODE BLOCK END ===

=== CODE BLOCK ADDRESS 0x1e09 ===
  0x1e09	dec    	eax
  0x1e0a	mov    	eax, dword ptr [ecx]
  0x1e0c	dec    	eax
  0x1e0d	mov    	edx, ecx
  0x1e0f	mov    	ecx, dword ptr [eax]
  === BLOCK LINK ===
    0x1e11
=== CODE BLOCK END ===

=== CODE BLOCK ADDRESS 0x1e11 ===
  0x1e11	call   	0x18be
  === BLOCK LINK ===
    0x1e16
=== CODE BLOCK END ===

=== CODE BLOCK ADDRESS 0x1e16 ===
  0x1e16	nop    	
  0x1e17	dec    	eax
  0x1e18	add    	esp, 0x20
  0x1e1b	pop    	ebp
  0x1e1c	ret    	
  === BLOCK LINK ===
    0x1e1d
=== CODE BLOCK END ===

=== CODE BLOCK ADDRESS 0x1e1d ===
  0x1e1d	int3   	
  0x1e1e	int3   	
  0x1e1f	int3   	
  0x1e20	int3   	
  0x1e21	int3   	
  === BLOCK LINK ===
    0x1e22
=== CODE BLOCK END ===

=== CODE BLOCK ADDRESS 0x1e22 ===
  0x1e22	int3   	
  0x1e23	int3   	
  0x1e24	int3   	
  0x1e25	int3   	
  0x1e26	int3   	
  === BLOCK LINK ===
    0x1e27
=== CODE BLOCK END ===

=== CODE BLOCK ADDRESS 0x1e27 ===
  0x1e27	int3   	
  0x1e28	int3   	
  0x1e29	int3   	
  0x1e2a	int3   	
  0x1e2b	int3   	
  === BLOCK LINK ===
    0x1e2c
=== CODE BLOCK END ===

=== CODE BLOCK ADDRESS 0x1e2c ===
  0x1e2c	int3   	
  0x1e2d	int3   	
  0x1e2e	int3   	
  0x1e2f	int3   	
  0x1e30	inc    	eax
  === BLOCK LINK ===
    0x1e31
=== CODE BLOCK END ===

=== CODE BLOCK ADDRESS 0x1e31 ===
  0x1e31	push   	ebp
  0x1e32	dec    	eax
  0x1e33	sub    	esp, 0x20
  0x1e36	dec    	eax
  0x1e37	mov    	ebp, edx
  === BLOCK LINK ===
    0x1e39
=== CODE BLOCK END ===

=== CODE BLOCK ADDRESS 0x1e39 ===
  0x1e39	dec    	eax
  0x1e3a	mov    	eax, dword ptr [ecx]
  0x1e3c	xor    	ecx, ecx
  0x1e3e	cmp    	dword ptr [eax], 0xc0000005
  0x1e44	sete   	cl
  === BLOCK LINK ===
    0x1e47
=== CODE BLOCK END ===

=== CODE BLOCK ADDRESS 0x1e47 ===
  0x1e47	mov    	eax, ecx
  0x1e49	dec    	eax
  0x1e4a	add    	esp, 0x20
  0x1e4d	pop    	ebp
  0x1e4e	ret    	
  === BLOCK LINK ===
    0x1e4f
=== CODE BLOCK END ===

=== CODE BLOCK ADDRESS 0x1130 ===
  0x1130	dec    	esp
  0x1131	mov    	ebx, esp
  === BLOCK LINK ===
    0x1133
=== CODE BLOCK END ===

=== CODE BLOCK ADDRESS 0x1e4f ===
  0x1e4f	int3   	
  0x1e50	add    	byte ptr [eax], al
  0x1e52	add    	byte ptr [eax], al
  0x1e54	add    	byte ptr [eax], al
  0x1e56	add    	byte ptr [eax], al
  === BLOCK LINK ===
    0x1e58
=== CODE BLOCK END ===

=== CODE BLOCK ADDRESS 0x1e58 ===
  0x1e58	add    	byte ptr [eax], al
  0x1e5a	add    	byte ptr [eax], al
  0x1e5c	add    	byte ptr [eax], al
  0x1e5e	add    	byte ptr [eax], al
  0x1e60	add    	byte ptr [eax], al
  === BLOCK LINK ===
    0x1e62
=== CODE BLOCK END ===

=== CODE BLOCK ADDRESS 0x1e62 ===
  0x1e62	add    	byte ptr [eax], al
  0x1e64	add    	byte ptr [eax], al
  0x1e66	add    	byte ptr [eax], al
  0x1e68	add    	byte ptr [eax], al
  0x1e6a	add    	byte ptr [eax], al
  === BLOCK LINK ===
    0x1e6c
=== CODE BLOCK END ===

=== CODE BLOCK ADDRESS 0x1e6c ===
  0x1e6c	add    	byte ptr [eax], al
  0x1e6e	add    	byte ptr [eax], al
  0x1e70	add    	byte ptr [eax], al
  0x1e72	add    	byte ptr [eax], al
  0x1e74	add    	byte ptr [eax], al
  === BLOCK LINK ===
    0x1e76
=== CODE BLOCK END ===

=== CODE BLOCK ADDRESS 0x1e76 ===
  0x1e76	add    	byte ptr [eax], al
  0x1e78	add    	byte ptr [eax], al
  0x1e7a	add    	byte ptr [eax], al
  0x1e7c	add    	byte ptr [eax], al
  0x1e7e	add    	byte ptr [eax], al
  === BLOCK LINK ===
    0x1e80
=== CODE BLOCK END ===

=== CODE BLOCK ADDRESS 0x1e80 ===
  0x1e80	add    	byte ptr [eax], al
  0x1e82	add    	byte ptr [eax], al
  0x1e84	add    	byte ptr [eax], al
  0x1e86	add    	byte ptr [eax], al
  0x1e88	add    	byte ptr [eax], al
  === BLOCK LINK ===
    0x1e8a
=== CODE BLOCK END ===

=== CODE BLOCK ADDRESS 0x1e8a ===
  0x1e8a	add    	byte ptr [eax], al
  0x1e8c	add    	byte ptr [eax], al
  0x1e8e	add    	byte ptr [eax], al
  0x1e90	add    	byte ptr [eax], al
  0x1e92	add    	byte ptr [eax], al
  === BLOCK LINK ===
    0x1e94
=== CODE BLOCK END ===

=== CODE BLOCK ADDRESS 0x1e94 ===
  0x1e94	add    	byte ptr [eax], al
  0x1e96	add    	byte ptr [eax], al
  0x1e98	add    	byte ptr [eax], al
  0x1e9a	add    	byte ptr [eax], al
  0x1e9c	add    	byte ptr [eax], al
  === BLOCK LINK ===
    0x1e9e
=== CODE BLOCK END ===

=== CODE BLOCK ADDRESS 0x1e9e ===
  0x1e9e	add    	byte ptr [eax], al
  0x1ea0	add    	byte ptr [eax], al
  0x1ea2	add    	byte ptr [eax], al
  0x1ea4	add    	byte ptr [eax], al
  0x1ea6	add    	byte ptr [eax], al
  === BLOCK LINK ===
    0x1ea8
=== CODE BLOCK END ===

=== CODE BLOCK ADDRESS 0x1ea8 ===
  0x1ea8	add    	byte ptr [eax], al
  0x1eaa	add    	byte ptr [eax], al
  0x1eac	add    	byte ptr [eax], al
  0x1eae	add    	byte ptr [eax], al
  0x1eb0	add    	byte ptr [eax], al
  === BLOCK LINK ===
    0x1eb2
=== CODE BLOCK END ===

=== CODE BLOCK ADDRESS 0x1eb2 ===
  0x1eb2	add    	byte ptr [eax], al
  0x1eb4	add    	byte ptr [eax], al
  0x1eb6	add    	byte ptr [eax], al
  0x1eb8	add    	byte ptr [eax], al
  0x1eba	add    	byte ptr [eax], al
  === BLOCK LINK ===
    0x1ebc
=== CODE BLOCK END ===

=== CODE BLOCK ADDRESS 0x1ebc ===
  0x1ebc	add    	byte ptr [eax], al
  0x1ebe	add    	byte ptr [eax], al
  0x1ec0	add    	byte ptr [eax], al
  0x1ec2	add    	byte ptr [eax], al
  0x1ec4	add    	byte ptr [eax], al
  === BLOCK LINK ===
    0x1ec6
=== CODE BLOCK END ===

=== CODE BLOCK ADDRESS 0x1ec6 ===
  0x1ec6	add    	byte ptr [eax], al
  0x1ec8	add    	byte ptr [eax], al
  0x1eca	add    	byte ptr [eax], al
  0x1ecc	add    	byte ptr [eax], al
  0x1ece	add    	byte ptr [eax], al
  === BLOCK LINK ===
    0x1ed0
=== CODE BLOCK END ===

=== CODE BLOCK ADDRESS 0x1ed0 ===
  0x1ed0	add    	byte ptr [eax], al
  0x1ed2	add    	byte ptr [eax], al
  0x1ed4	add    	byte ptr [eax], al
  0x1ed6	add    	byte ptr [eax], al
  0x1ed8	add    	byte ptr [eax], al
  === BLOCK LINK ===
    0x1eda
=== CODE BLOCK END ===

=== CODE BLOCK ADDRESS 0x1eda ===
  0x1eda	add    	byte ptr [eax], al
  0x1edc	add    	byte ptr [eax], al
  0x1ede	add    	byte ptr [eax], al
  0x1ee0	add    	byte ptr [eax], al
  0x1ee2	add    	byte ptr [eax], al
  === BLOCK LINK ===
    0x1ee4
=== CODE BLOCK END ===

=== CODE BLOCK ADDRESS 0x1ee4 ===
  0x1ee4	add    	byte ptr [eax], al
  0x1ee6	add    	byte ptr [eax], al
  0x1ee8	add    	byte ptr [eax], al
  0x1eea	add    	byte ptr [eax], al
  0x1eec	add    	byte ptr [eax], al
  === BLOCK LINK ===
    0x1eee
=== CODE BLOCK END ===

=== CODE BLOCK ADDRESS 0x1eee ===
  0x1eee	add    	byte ptr [eax], al
  0x1ef0	add    	byte ptr [eax], al
  0x1ef2	add    	byte ptr [eax], al
  0x1ef4	add    	byte ptr [eax], al
  0x1ef6	add    	byte ptr [eax], al
  === BLOCK LINK ===
    0x1ef8
=== CODE BLOCK END ===

=== CODE BLOCK ADDRESS 0x1ef8 ===
  0x1ef8	add    	byte ptr [eax], al
  0x1efa	add    	byte ptr [eax], al
  0x1efc	add    	byte ptr [eax], al
  0x1efe	add    	byte ptr [eax], al
  0x1f00	add    	byte ptr [eax], al
  === BLOCK LINK ===
    0x1f02
=== CODE BLOCK END ===

=== CODE BLOCK ADDRESS 0x1f02 ===
  0x1f02	add    	byte ptr [eax], al
  0x1f04	add    	byte ptr [eax], al
  0x1f06	add    	byte ptr [eax], al
  0x1f08	add    	byte ptr [eax], al
  0x1f0a	add    	byte ptr [eax], al
  === BLOCK LINK ===
    0x1f0c
=== CODE BLOCK END ===

=== CODE BLOCK ADDRESS 0x1f0c ===
  0x1f0c	add    	byte ptr [eax], al
  0x1f0e	add    	byte ptr [eax], al
  0x1f10	add    	byte ptr [eax], al
  0x1f12	add    	byte ptr [eax], al
  0x1f14	add    	byte ptr [eax], al
  === BLOCK LINK ===
    0x1f16
=== CODE BLOCK END ===

=== CODE BLOCK ADDRESS 0x1f16 ===
  0x1f16	add    	byte ptr [eax], al
  0x1f18	add    	byte ptr [eax], al
  0x1f1a	add    	byte ptr [eax], al
  0x1f1c	add    	byte ptr [eax], al
  0x1f1e	add    	byte ptr [eax], al
  === BLOCK LINK ===
    0x1f20
=== CODE BLOCK END ===

=== CODE BLOCK ADDRESS 0x1f20 ===
  0x1f20	add    	byte ptr [eax], al
  0x1f22	add    	byte ptr [eax], al
  0x1f24	add    	byte ptr [eax], al
  0x1f26	add    	byte ptr [eax], al
  0x1f28	add    	byte ptr [eax], al
  === BLOCK LINK ===
    0x1f2a
=== CODE BLOCK END ===

=== CODE BLOCK ADDRESS 0x1f2a ===
  0x1f2a	add    	byte ptr [eax], al
  0x1f2c	add    	byte ptr [eax], al
  0x1f2e	add    	byte ptr [eax], al
  0x1f30	add    	byte ptr [eax], al
  0x1f32	add    	byte ptr [eax], al
  === BLOCK LINK ===
    0x1f34
=== CODE BLOCK END ===

=== CODE BLOCK ADDRESS 0x1f34 ===
  0x1f34	add    	byte ptr [eax], al
  0x1f36	add    	byte ptr [eax], al
  0x1f38	add    	byte ptr [eax], al
  0x1f3a	add    	byte ptr [eax], al
  0x1f3c	add    	byte ptr [eax], al
  === BLOCK LINK ===
    0x1f3e
=== CODE BLOCK END ===

=== CODE BLOCK ADDRESS 0x1f3e ===
  0x1f3e	add    	byte ptr [eax], al
  0x1f40	add    	byte ptr [eax], al
  0x1f42	add    	byte ptr [eax], al
  0x1f44	add    	byte ptr [eax], al
  0x1f46	add    	byte ptr [eax], al
  === BLOCK LINK ===
    0x1f48
=== CODE BLOCK END ===

=== CODE BLOCK ADDRESS 0x1f48 ===
  0x1f48	add    	byte ptr [eax], al
  0x1f4a	add    	byte ptr [eax], al
  0x1f4c	add    	byte ptr [eax], al
  0x1f4e	add    	byte ptr [eax], al
  0x1f50	add    	byte ptr [eax], al
  === BLOCK LINK ===
    0x1f52
=== CODE BLOCK END ===

=== CODE BLOCK ADDRESS 0x1f52 ===
  0x1f52	add    	byte ptr [eax], al
  0x1f54	add    	byte ptr [eax], al
  0x1f56	add    	byte ptr [eax], al
  0x1f58	add    	byte ptr [eax], al
  0x1f5a	add    	byte ptr [eax], al
  === BLOCK LINK ===
    0x1f5c
=== CODE BLOCK END ===

=== CODE BLOCK ADDRESS 0x1f5c ===
  0x1f5c	add    	byte ptr [eax], al
  0x1f5e	add    	byte ptr [eax], al
  0x1f60	add    	byte ptr [eax], al
  0x1f62	add    	byte ptr [eax], al
  0x1f64	add    	byte ptr [eax], al
  === BLOCK LINK ===
    0x1f66
=== CODE BLOCK END ===

=== CODE BLOCK ADDRESS 0x1f66 ===
  0x1f66	add    	byte ptr [eax], al
  0x1f68	add    	byte ptr [eax], al
  0x1f6a	add    	byte ptr [eax], al
  0x1f6c	add    	byte ptr [eax], al
  0x1f6e	add    	byte ptr [eax], al
  === BLOCK LINK ===
    0x1f70
=== CODE BLOCK END ===

=== CODE BLOCK ADDRESS 0x1f70 ===
  0x1f70	add    	byte ptr [eax], al
  0x1f72	add    	byte ptr [eax], al
  0x1f74	add    	byte ptr [eax], al
  0x1f76	add    	byte ptr [eax], al
  0x1f78	add    	byte ptr [eax], al
  === BLOCK LINK ===
    0x1f7a
=== CODE BLOCK END ===

=== CODE BLOCK ADDRESS 0x1f7a ===
  0x1f7a	add    	byte ptr [eax], al
  0x1f7c	add    	byte ptr [eax], al
  0x1f7e	add    	byte ptr [eax], al
  0x1f80	add    	byte ptr [eax], al
  0x1f82	add    	byte ptr [eax], al
  === BLOCK LINK ===
    0x1f84
=== CODE BLOCK END ===

=== CODE BLOCK ADDRESS 0x1f84 ===
  0x1f84	add    	byte ptr [eax], al
  0x1f86	add    	byte ptr [eax], al
  0x1f88	add    	byte ptr [eax], al
  0x1f8a	add    	byte ptr [eax], al
  0x1f8c	add    	byte ptr [eax], al
  === BLOCK LINK ===
    0x1f8e
=== CODE BLOCK END ===

=== CODE BLOCK ADDRESS 0x1f8e ===
  0x1f8e	add    	byte ptr [eax], al
  0x1f90	add    	byte ptr [eax], al
  0x1f92	add    	byte ptr [eax], al
  0x1f94	add    	byte ptr [eax], al
  0x1f96	add    	byte ptr [eax], al
  === BLOCK LINK ===
    0x1f98
=== CODE BLOCK END ===

=== CODE BLOCK ADDRESS 0x1f98 ===
  0x1f98	add    	byte ptr [eax], al
  0x1f9a	add    	byte ptr [eax], al
  0x1f9c	add    	byte ptr [eax], al
  0x1f9e	add    	byte ptr [eax], al
  0x1fa0	add    	byte ptr [eax], al
  === BLOCK LINK ===
    0x1fa2
=== CODE BLOCK END ===

=== CODE BLOCK ADDRESS 0x1fa2 ===
  0x1fa2	add    	byte ptr [eax], al
  0x1fa4	add    	byte ptr [eax], al
  0x1fa6	add    	byte ptr [eax], al
  0x1fa8	add    	byte ptr [eax], al
  0x1faa	add    	byte ptr [eax], al
  === BLOCK LINK ===
    0x1fac
=== CODE BLOCK END ===

=== CODE BLOCK ADDRESS 0x1fac ===
  0x1fac	add    	byte ptr [eax], al
  0x1fae	add    	byte ptr [eax], al
  0x1fb0	add    	byte ptr [eax], al
  0x1fb2	add    	byte ptr [eax], al
  0x1fb4	add    	byte ptr [eax], al
  === BLOCK LINK ===
    0x1fb6
=== CODE BLOCK END ===

=== CODE BLOCK ADDRESS 0x1fb6 ===
  0x1fb6	add    	byte ptr [eax], al
  0x1fb8	add    	byte ptr [eax], al
  0x1fba	add    	byte ptr [eax], al
  0x1fbc	add    	byte ptr [eax], al
  0x1fbe	add    	byte ptr [eax], al
  === BLOCK LINK ===
    0x1fc0
=== CODE BLOCK END ===

=== CODE BLOCK ADDRESS 0x1fc0 ===
  0x1fc0	add    	byte ptr [eax], al
  0x1fc2	add    	byte ptr [eax], al
  0x1fc4	add    	byte ptr [eax], al
  0x1fc6	add    	byte ptr [eax], al
  0x1fc8	add    	byte ptr [eax], al
  === BLOCK LINK ===
    0x1fca
=== CODE BLOCK END ===

=== CODE BLOCK ADDRESS 0x1fca ===
  0x1fca	add    	byte ptr [eax], al
  0x1fcc	add    	byte ptr [eax], al
  0x1fce	add    	byte ptr [eax], al
  0x1fd0	add    	byte ptr [eax], al
  0x1fd2	add    	byte ptr [eax], al
  === BLOCK LINK ===
    0x1fd4
=== CODE BLOCK END ===

=== CODE BLOCK ADDRESS 0x1fd4 ===
  0x1fd4	add    	byte ptr [eax], al
  0x1fd6	add    	byte ptr [eax], al
  0x1fd8	add    	byte ptr [eax], al
  0x1fda	add    	byte ptr [eax], al
  0x1fdc	add    	byte ptr [eax], al
  === BLOCK LINK ===
    0x1fde
=== CODE BLOCK END ===

=== CODE BLOCK ADDRESS 0x1fde ===
  0x1fde	add    	byte ptr [eax], al
  0x1fe0	add    	byte ptr [eax], al
  0x1fe2	add    	byte ptr [eax], al
  0x1fe4	add    	byte ptr [eax], al
  0x1fe6	add    	byte ptr [eax], al
  === BLOCK LINK ===
    0x1fe8
=== CODE BLOCK END ===

=== CODE BLOCK ADDRESS 0x1fe8 ===
  0x1fe8	add    	byte ptr [eax], al
  0x1fea	add    	byte ptr [eax], al
  0x1fec	add    	byte ptr [eax], al
  0x1fee	add    	byte ptr [eax], al
  0x1ff0	add    	byte ptr [eax], al
  === BLOCK LINK ===
    0x1ff2
=== CODE BLOCK END ===

=== CODE BLOCK ADDRESS 0x1ff2 ===
  0x1ff2	add    	byte ptr [eax], al
  0x1ff4	add    	byte ptr [eax], al
  0x1ff6	add    	byte ptr [eax], al
  0x1ff8	add    	byte ptr [eax], al
  0x1ffa	add    	byte ptr [eax], al
  === BLOCK LINK ===
    0x1ffc
=== CODE BLOCK END ===

=== CODE BLOCK ADDRESS 0x1ffc ===
  0x1ffc	add    	byte ptr [eax], al
=== CODE BLOCK END ===

=== DATA BLOCK ADDRESS 0x2000 ===
  0x2000	60 30 00 40 01 00 00 00 00 31 00 40 01 00 00 00 	`00@0000010@0000
  0x2010	18 01 00 00 00 00 00 00 00 00 00 00 00 00 00 00 	0000000000000000
  0x2020	00 00 00 00 00 00 00 00 00 00 00 00 00 00 00 00 	0000000000000000
  0x2030	00 00 00 00 00 00 00 00 00 00 00 00 00 00 00 00 	0000000000000000
  0x2040	00 00 00 00 00 00 00 00 00 00 00 00 00 00 00 00 	0000000000000000
  0x2050	00 00 00 00 00 00 00 00 00 00 00 00 00 00 00 00 	0000000000000000
  0x2060	00 00 00 00 00 00 00 00 08 30 00 40 01 00 00 00 	00000000000@0000
  0x2070	00 00 00 00 00 00 00 00 00 00 00 00 00 00 00 00 	0000000000000000
  0x2080	28 23 00 40 01 00 00 00 30 23 00 40 01 00 00 00 	(#0@00000#0@0000
  0x2090	7c 23 00 40 01 00 00 00 08 00 00 00 00 00 00 00 	|#0@000000000000
  0x20a0	00 75 41 00 00 00 00 00 00 00 00 00 00 00 00 00 	0uA0000000000000
  0x20b0	00 00 00 00 00 00 00 00 00 00 00 00 00 00 00 00 	0000000000000000
  0x20c0	00 00 00 00 00 00 00 00 00 00 00 00 00 00 00 00 	0000000000000000
  0x20d0	00 00 00 00 00 00 00 00 00 00 00 00 00 00 00 00 	0000000000000000
  0x20e0	00 00 00 00 00 00 00 00 00 00 00 00 00 00 00 00 	0000000000000000
  0x20f0	00 00 00 00 00 00 00 00 00 00 00 00 00 00 00 00 	0000000000000000
  0x2100	00 00 00 00 00 00 00 00 00 00 00 00 00 00 00 00 	0000000000000000
  0x2110	00 00 00 00 00 00 00 00 70 23 00 40 01 00 00 00 	00000000p#0@0000
  0x2120	03 00 00 00 00 00 00 00 88 2c 00 00 00 00 00 00 	000000000,000000
  0x2130	6a 2c 00 00 00 00 00 00 56 2c 00 00 00 00 00 00 	j,000000V,000000
  0x2140	22 2c 00 00 00 00 00 00 46 2c 00 00 00 00 00 00 	",000000F,000000
  0x2150	a6 2c 00 00 00 00 00 00 00 00 00 00 00 00 00 00 	0,00000000000000
  0x2160	c0 2a 00 00 00 00 00 00 cc 2a 00 00 00 00 00 00 	0*0000000*000000
  0x2170	de 2a 00 00 00 00 00 00 ec 2a 00 00 00 00 00 00 	0*0000000*000000
  0x2180	b0 2a 00 00 00 00 00 00 00 00 00 00 00 00 00 00 	0*00000000000000
  0x2190	34 2f 00 00 00 00 00 00 00 00 00 00 00 00 00 00 	4/00000000000000
  0x21a0	08 2b 00 00 00 00 00 00 00 00 00 00 00 00 00 00 	0+00000000000000
  0x21b0	56 2f 00 00 00 00 00 00 88 2f 00 00 00 00 00 00 	V/0000000/000000
  0x21c0	68 2f 00 00 00 00 00 00 aa 2f 00 00 00 00 00 00 	h/0000000/000000
  0x21d0	00 00 00 00 00 00 00 00 10 2c 00 00 00 00 00 00 	000000000,000000
  0x21e0	fe 2b 00 00 00 00 00 00 00 00 00 00 00 00 00 00 	0+00000000000000
  0x21f0	b6 2d 00 00 00 00 00 00 d2 2c 00 00 00 00 00 00 	0-0000000,000000
  0x2200	00 00 00 00 00 00 00 00 f0 2c 00 00 00 00 00 00 	000000000,000000
  0x2210	00 00 00 00 00 00 00 00 d2 2d 00 00 00 00 00 00 	000000000-000000
  0x2220	e6 2d 00 00 00 00 00 00 c0 2c 00 00 00 00 00 00 	0-0000000,000000
  0x2230	1e 2d 00 00 00 00 00 00 34 2d 00 00 00 00 00 00 	0-0000004-000000
  0x2240	00 00 00 00 00 00 00 00 04 2d 00 00 00 00 00 00 	000000000-000000
  0x2250	00 00 00 00 00 00 00 00 a2 2d 00 00 00 00 00 00 	000000000-000000
  0x2260	88 2d 00 00 00 00 00 00 74 2d 00 00 00 00 00 00 	0-000000t-000000
  0x2270	00 00 00 00 00 00 00 00 b8 2c 00 00 00 00 00 00 	000000000,000000
  0x2280	00 00 00 00 00 00 00 00 4a 2d 00 00 00 00 00 00 	00000000J-000000
  0x2290	64 2d 00 00 00 00 00 00 00 00 00 00 00 00 00 00 	d-00000000000000
  0x22a0	7c 2b 00 00 00 00 00 00 86 2b 00 00 00 00 00 00 	|+0000000+000000
  0x22b0	9a 2b 00 00 00 00 00 00 a6 2b 00 00 00 00 00 00 	0+0000000+000000
  0x22c0	be 2b 00 00 00 00 00 00 c8 2b 00 00 00 00 00 00 	0+0000000+000000
  0x22d0	48 2b 00 00 00 00 00 00 6c 2b 00 00 00 00 00 00 	H+000000l+000000
  0x22e0	ea 2b 00 00 00 00 00 00 74 2b 00 00 00 00 00 00 	0+000000t+000000
  0x22f0	5a 2b 00 00 00 00 00 00 3a 2b 00 00 00 00 00 00 	Z+000000:+000000
  0x2300	2c 2b 00 00 00 00 00 00 20 2b 00 00 00 00 00 00 	,+000000 +000000
  0x2310	d2 2b 00 00 00 00 00 00 d8 2f 00 00 00 00 00 00 	0+0000000/000000
  0x2320	00 00 00 00 00 00 00 00 70 1b 00 40 01 00 00 00 	00000000p00@0000
  0x2330	f0 1d 00 40 01 00 00 00 00 00 00 00 00 00 00 00 	000@000000000000
  0x2340	40 15 00 40 01 00 00 00 00 00 00 00 00 00 00 00 	@00@000000000000
  0x2350	00 00 00 00 00 00 00 00 60 14 00 40 01 00 00 00 	00000000`00@0000
  0x2360	a0 18 00 40 01 00 00 00 00 00 00 00 00 00 00 00 	000@000000000000
  0x2370	a9 17 00 00 12 19 00 00 20 1a 00 00 60 14 00 00 	00000000 000`000
  0x2380	40 15 00 00 00 18 00 00 60 18 00 00 a0 18 00 00 	@0000000`0000000
  0x2390	80 19 00 00 70 1b 00 00 c0 1b 00 00 00 00 00 00 	0000p00000000000
  0x23a0	25 00 49 00 75 00 00 00 54 00 72 00 75 00 73 00 	%0I0u000T0r0u0s0
  0x23b0	74 00 65 00 64 00 50 00 75 00 62 00 6c 00 69 00 	t0e0d0P0u0b0l0i0
  0x23c0	73 00 68 00 65 00 72 00 00 00 00 00 00 00 00 00 	s0h0e0r000000000
  0x23d0	00 00 00 00 6e 65 a2 73 00 00 00 00 02 00 00 00 	0000ne0s00000000
  0x23e0	25 00 00 00 24 24 00 00 24 18 00 00 00 00 00 00 	%000$$00$0000000
  0x23f0	6e 65 a2 73 00 00 00 00 0d 00 00 00 04 02 00 00 	ne0s000000000000
  0x2400	4c 24 00 00 4c 18 00 00 00 00 00 00 6e 65 a2 73 	L$00L0000000ne0s
  0x2410	00 00 00 00 10 00 00 00 24 00 00 00 50 26 00 00 	00000000$000P&00
  0x2420	50 1a 00 00 52 53 44 53 07 61 05 b1 3d ab 89 de 	P000RSDS0a00=000
  0x2430	6a ca 9e ee ba 44 6f 29 01 00 00 00 41 78 49 6e 	j0000Do)0000AxIn
  0x2440	73 74 55 49 2e 70 64 62 00 00 00 00 47 43 54 4c 	stUI.pdb0000GCTL
  0x2450	00 10 00 00 e0 0d 00 00 2e 74 65 78 74 24 6d 6e 	00000000.text$mn
  0x2460	00 00 00 00 e0 1d 00 00 20 00 00 00 2e 74 65 78 	00000000 000.tex
  0x2470	74 24 6d 6e 24 30 30 00 00 1e 00 00 50 00 00 00 	t$mn$0000000P000
  0x2480	2e 74 65 78 74 24 78 00 00 20 00 00 28 01 00 00 	.text$x00 00(000
  0x2490	2e 72 64 61 74 61 24 62 72 63 00 00 28 21 00 00 	.rdata$brc00(!00
  0x24a0	00 02 00 00 2e 69 64 61 74 61 24 35 00 00 00 00 	0000.idata$50000
  0x24b0	28 23 00 00 10 00 00 00 2e 30 30 63 66 67 00 00 	(#000000.00cfg00
  0x24c0	38 23 00 00 08 00 00 00 2e 43 52 54 24 58 43 41 	8#000000.CRT$XCA
  0x24d0	00 00 00 00 40 23 00 00 08 00 00 00 2e 43 52 54 	0000@#000000.CRT
  0x24e0	24 58 43 41 41 00 00 00 48 23 00 00 08 00 00 00 	$XCAA000H#000000
  0x24f0	2e 43 52 54 24 58 43 5a 00 00 00 00 50 23 00 00 	.CRT$XCZ0000P#00
  0x2500	08 00 00 00 2e 43 52 54 24 58 49 41 00 00 00 00 	0000.CRT$XIA0000
  0x2510	58 23 00 00 08 00 00 00 2e 43 52 54 24 58 49 41 	X#000000.CRT$XIA
  0x2520	41 00 00 00 60 23 00 00 08 00 00 00 2e 43 52 54 	A000`#000000.CRT
  0x2530	24 58 49 59 00 00 00 00 68 23 00 00 08 00 00 00 	$XIY0000h#000000
  0x2540	2e 43 52 54 24 58 49 5a 00 00 00 00 70 23 00 00 	.CRT$XIZ0000p#00
  0x2550	0c 00 00 00 2e 67 65 68 63 6f 6e 74 00 00 00 00 	0000.gehcont0000
  0x2560	7c 23 00 00 24 00 00 00 2e 67 66 69 64 73 00 00 	|#00$000.gfids00
  0x2570	a0 23 00 00 84 00 00 00 2e 72 64 61 74 61 00 00 	0#000000.rdata00
  0x2580	24 24 00 00 54 02 00 00 2e 72 64 61 74 61 24 7a 	$$00T000.rdata$z
  0x2590	7a 7a 64 62 67 00 00 00 78 26 00 00 0c 01 00 00 	zzdbg000x&000000
  0x25a0	2e 78 64 61 74 61 00 00 84 27 00 00 18 01 00 00 	.xdata000'000000
  0x25b0	2e 69 64 61 74 61 24 32 00 00 00 00 9c 28 00 00 	.idata$200000(00
  0x25c0	14 00 00 00 2e 69 64 61 74 61 24 33 00 00 00 00 	0000.idata$30000
  0x25d0	b0 28 00 00 00 02 00 00 2e 69 64 61 74 61 24 34 	0(000000.idata$4
  0x25e0	00 00 00 00 b0 2a 00 00 32 05 00 00 2e 69 64 61 	00000*002000.ida
  0x25f0	74 61 24 36 00 00 00 00 00 30 00 00 20 00 00 00 	ta$600000000 000
  0x2600	2e 64 61 74 61 00 00 00 20 30 00 00 60 06 00 00 	.data000 000`000
  0x2610	2e 62 73 73 00 00 00 00 00 40 00 00 fc 00 00 00 	.bss00000@000000
  0x2620	2e 70 64 61 74 61 00 00 00 50 00 00 80 04 00 00 	.pdata000P000000
  0x2630	2e 72 73 72 63 24 30 31 00 00 00 00 80 54 00 00 	.rsrc$0100000T00
  0x2640	00 bf 00 00 2e 72 73 72 63 24 30 32 00 00 00 00 	0000.rsrc$020000
  0x2650	20 00 00 00 07 61 05 b1 3d ab 89 de 6a ca 9e ee 	 0000a00=000j000
  0x2660	ba 44 6f 29 17 76 74 47 06 0d 78 da e6 1b 5b 5d 	0Do)0vtG00x000[]
  0x2670	6e 65 a2 73 00 00 00 00 01 17 08 00 17 54 0d 00 	ne0s000000000T00
  0x2680	17 34 0c 00 17 72 13 e0 11 70 10 60 19 1b 04 00 	04000r000p0`0000
  0x2690	0c 34 0f 00 0c b2 08 70 48 1d 00 00 58 00 00 00 	0400000pH000X000
  0x26a0	19 25 09 00 17 01 2a 00 0b f0 09 e0 07 d0 05 70 	0%0000*00000000p
  0x26b0	04 60 03 30 02 50 00 00 48 1d 00 00 40 01 00 00 	0`000P00H000@000
  0x26c0	01 04 01 00 04 42 00 00 01 04 01 00 04 62 00 00 	00000B0000000b00
  0x26d0	09 1c 0b 00 1c e4 1b 00 1c 74 1a 00 1c 64 19 00 	000000000t000d00
  0x26e0	1c 34 18 00 1c 01 16 00 15 f0 00 00 5a 1b 00 00 	040000000000Z000
  0x26f0	01 00 00 00 bf 15 00 00 a9 17 00 00 00 1e 00 00 	0000000000000000
  0x2700	a9 17 00 00 01 06 02 00 06 32 02 50 00 00 00 00 	00000000020P0000
  0x2710	01 00 00 00 09 04 01 00 04 22 00 00 5a 1b 00 00 	000000000"00Z000
  0x2720	01 00 00 00 dc 18 00 00 12 19 00 00 01 00 00 00 	0000000000000000
  0x2730	12 19 00 00 01 06 02 00 06 32 02 30 09 0a 04 00 	0000000002000000
  0x2740	0a 34 06 00 0a 32 06 70 5a 1b 00 00 01 00 00 00 	0400020pZ0000000
  0x2750	ed 19 00 00 20 1a 00 00 30 1e 00 00 20 1a 00 00 	0000 0000000 000
  0x2760	01 0d 04 00 0d 34 09 00 0d 32 06 50 01 0c 02 00 	00000400020P0000
  0x2770	0c 01 11 00 00 00 00 00 01 00 00 00 01 02 01 00 	0000000000000000
  0x2780	02 30 00 00 e8 28 00 00 00 00 00 00 00 00 00 00 	00000(0000000000
  0x2790	fa 2a 00 00 60 21 00 00 28 29 00 00 00 00 00 00 	0*00`!00()000000
  0x27a0	00 00 00 00 14 2b 00 00 a0 21 00 00 28 2a 00 00 	00000+000!00(*00
  0x27b0	00 00 00 00 00 00 00 00 de 2b 00 00 a0 22 00 00 	000000000+000"00
  0x27c0	60 29 00 00 00 00 00 00 00 00 00 00 fa 2d 00 00 	`)00000000000-00
  0x27d0	d8 21 00 00 b0 28 00 00 00 00 00 00 00 00 00 00 	0!000(0000000000
  0x27e0	1a 2e 00 00 28 21 00 00 00 2a 00 00 00 00 00 00 	0.00(!000*000000
  0x27f0	00 00 00 00 26 2e 00 00 78 22 00 00 a0 29 00 00 	0000&.00x"000)00
  0x2800	00 00 00 00 00 00 00 00 48 2e 00 00 18 22 00 00 	00000000H.000"00
  0x2810	78 29 00 00 00 00 00 00 00 00 00 00 72 2e 00 00 	x)0000000000r.00
  0x2820	f0 21 00 00 90 29 00 00 00 00 00 00 00 00 00 00 	0!000)0000000000
  0x2830	9c 2e 00 00 08 22 00 00 d0 29 00 00 00 00 00 00 	0.000"000)000000
  0x2840	00 00 00 00 c6 2e 00 00 48 22 00 00 10 2a 00 00 	00000.00H"000*00
  0x2850	00 00 00 00 00 00 00 00 ea 2e 00 00 88 22 00 00 	000000000.000"00
  0x2860	e0 29 00 00 00 00 00 00 00 00 00 00 0e 2f 00 00 	0)00000000000/00
  0x2870	58 22 00 00 18 29 00 00 00 00 00 00 00 00 00 00 	X"000)0000000000
  0x2880	4a 2f 00 00 90 21 00 00 38 29 00 00 00 00 00 00 	J/000!008)000000
  0x2890	00 00 00 00 ca 2f 00 00 b0 21 00 00 00 00 00 00 	00000/000!000000
  0x28a0	00 00 00 00 00 00 00 00 00 00 00 00 00 00 00 00 	0000000000000000
  0x28b0	88 2c 00 00 00 00 00 00 6a 2c 00 00 00 00 00 00 	0,000000j,000000
  0x28c0	56 2c 00 00 00 00 00 00 22 2c 00 00 00 00 00 00 	V,000000",000000
  0x28d0	46 2c 00 00 00 00 00 00 a6 2c 00 00 00 00 00 00 	F,0000000,000000
  0x28e0	00 00 00 00 00 00 00 00 c0 2a 00 00 00 00 00 00 	000000000*000000
  0x28f0	cc 2a 00 00 00 00 00 00 de 2a 00 00 00 00 00 00 	0*0000000*000000
  0x2900	ec 2a 00 00 00 00 00 00 b0 2a 00 00 00 00 00 00 	0*0000000*000000
  0x2910	00 00 00 00 00 00 00 00 34 2f 00 00 00 00 00 00 	000000004/000000
  0x2920	00 00 00 00 00 00 00 00 08 2b 00 00 00 00 00 00 	000000000+000000
  0x2930	00 00 00 00 00 00 00 00 56 2f 00 00 00 00 00 00 	00000000V/000000
  0x2940	88 2f 00 00 00 00 00 00 68 2f 00 00 00 00 00 00 	0/000000h/000000
  0x2950	aa 2f 00 00 00 00 00 00 00 00 00 00 00 00 00 00 	0/00000000000000
  0x2960	10 2c 00 00 00 00 00 00 fe 2b 00 00 00 00 00 00 	0,0000000+000000
  0x2970	00 00 00 00 00 00 00 00 b6 2d 00 00 00 00 00 00 	000000000-000000
  0x2980	d2 2c 00 00 00 00 00 00 00 00 00 00 00 00 00 00 	0,00000000000000
  0x2990	f0 2c 00 00 00 00 00 00 00 00 00 00 00 00 00 00 	0,00000000000000
  0x29a0	d2 2d 00 00 00 00 00 00 e6 2d 00 00 00 00 00 00 	0-0000000-000000
  0x29b0	c0 2c 00 00 00 00 00 00 1e 2d 00 00 00 00 00 00 	0,0000000-000000
  0x29c0	34 2d 00 00 00 00 00 00 00 00 00 00 00 00 00 00 	4-00000000000000
  0x29d0	04 2d 00 00 00 00 00 00 00 00 00 00 00 00 00 00 	0-00000000000000
  0x29e0	a2 2d 00 00 00 00 00 00 88 2d 00 00 00 00 00 00 	0-0000000-000000
  0x29f0	74 2d 00 00 00 00 00 00 00 00 00 00 00 00 00 00 	t-00000000000000
  0x2a00	b8 2c 00 00 00 00 00 00 00 00 00 00 00 00 00 00 	0,00000000000000
  0x2a10	4a 2d 00 00 00 00 00 00 64 2d 00 00 00 00 00 00 	J-000000d-000000
  0x2a20	00 00 00 00 00 00 00 00 7c 2b 00 00 00 00 00 00 	00000000|+000000
  0x2a30	86 2b 00 00 00 00 00 00 9a 2b 00 00 00 00 00 00 	0+0000000+000000
  0x2a40	a6 2b 00 00 00 00 00 00 be 2b 00 00 00 00 00 00 	0+0000000+000000
  0x2a50	c8 2b 00 00 00 00 00 00 48 2b 00 00 00 00 00 00 	0+000000H+000000
  0x2a60	6c 2b 00 00 00 00 00 00 ea 2b 00 00 00 00 00 00 	l+0000000+000000
  0x2a70	74 2b 00 00 00 00 00 00 5a 2b 00 00 00 00 00 00 	t+000000Z+000000
  0x2a80	3a 2b 00 00 00 00 00 00 2c 2b 00 00 00 00 00 00 	:+000000,+000000
  0x2a90	20 2b 00 00 00 00 00 00 d2 2b 00 00 00 00 00 00 	 +0000000+000000
  0x2aa0	d8 2f 00 00 00 00 00 00 00 00 00 00 00 00 00 00 	0/00000000000000
  0x2ab0	6a 02 47 65 74 4c 61 73 74 45 72 72 6f 72 00 00 	j0GetLastError00
  0x2ac0	d6 03 4c 6f 63 61 6c 46 72 65 65 00 e0 01 47 65 	00LocalFree000Ge
  0x2ad0	74 43 6f 6d 6d 61 6e 64 4c 69 6e 65 57 00 ce 00 	tCommandLineW000
  0x2ae0	43 72 65 61 74 65 46 69 6c 65 57 00 89 00 43 6c 	CreateFileW000Cl
  0x2af0	6f 73 65 48 61 6e 64 6c 65 00 4b 45 52 4e 45 4c 	oseHandle0KERNEL
  0x2b00	33 32 2e 64 6c 6c 00 00 47 02 49 73 57 69 6e 64 	32.dll00G0IsWind
  0x2b10	6f 77 00 00 55 53 45 52 33 32 2e 64 6c 6c 00 00 	ow00USER32.dll00
  0x2b20	de 04 73 77 73 63 61 6e 66 5f 73 00 55 00 5f 58 	00swscanf_s0U0_X
  0x2b30	63 70 74 46 69 6c 74 65 72 00 ae 00 5f 61 6d 73 	cptFilter000_ams
  0x2b40	67 5f 65 78 69 74 00 00 9d 00 5f 5f 77 67 65 74 	g_exit0000__wget
  0x2b50	6d 61 69 6e 61 72 67 73 00 00 8e 00 5f 5f 73 65 	mainargs0000__se
  0x2b60	74 5f 61 70 70 5f 74 79 70 65 00 00 32 04 65 78 	t_app_type0020ex
  0x2b70	69 74 00 00 0e 01 5f 65 78 69 74 00 c1 00 5f 63 	it0000_exit000_c
  0x2b80	65 78 69 74 00 00 90 00 5f 5f 73 65 74 75 73 65 	exit0000__setuse
  0x2b90	72 6d 61 74 68 65 72 72 00 00 7d 01 5f 69 6e 69 	rmatherr00}0_ini
  0x2ba0	74 74 65 72 6d 00 57 00 5f 5f 43 5f 73 70 65 63 	tterm0W0__C_spec
  0x2bb0	69 66 69 63 5f 68 61 6e 64 6c 65 72 00 00 82 03 	ific_handler0000
  0x2bc0	5f 77 63 6d 64 6c 6e 00 27 01 5f 66 6d 6f 64 65 	_wcmdln0'0_fmode
  0x2bd0	00 00 d2 00 5f 63 6f 6d 6d 6f 64 65 00 00 6d 73 	0000_commode00ms
  0x2be0	76 63 72 74 2e 64 6c 6c 00 00 2f 00 3f 74 65 72 	vcrt.dll00/0?ter
  0x2bf0	6d 69 6e 61 74 65 40 40 59 41 58 58 5a 00 28 00 	minate@@YAXXZ0(0
  0x2c00	43 6f 49 6e 69 74 69 61 6c 69 7a 65 45 78 00 00 	CoInitializeEx00
  0x2c10	46 00 43 6f 55 6e 69 6e 69 74 69 61 6c 69 7a 65 	F0CoUninitialize
  0x2c20	00 00 46 00 43 65 72 74 47 65 74 43 65 72 74 69 	00F0CertGetCerti
  0x2c30	66 69 63 61 74 65 43 6f 6e 74 65 78 74 50 72 6f 	ficateContextPro
  0x2c40	70 65 72 74 79 00 59 00 43 65 72 74 4f 70 65 6e 	perty0Y0CertOpen
  0x2c50	53 74 6f 72 65 00 17 00 43 65 72 74 43 6f 6e 74 	Store000CertCont
  0x2c60	72 6f 6c 53 74 6f 72 65 00 00 35 00 43 65 72 74 	rolStore0050Cert
  0x2c70	46 69 6e 64 43 65 72 74 69 66 69 63 61 74 65 49 	FindCertificateI
  0x2c80	6e 53 74 6f 72 65 00 00 40 00 43 65 72 74 46 72 	nStore00@0CertFr
  0x2c90	65 65 43 65 72 74 69 66 69 63 61 74 65 43 6f 6e 	eeCertificateCon
  0x2ca0	74 65 78 74 00 00 12 00 43 65 72 74 43 6c 6f 73 	text0000CertClos
  0x2cb0	65 53 74 6f 72 65 00 00 2d 00 53 6c 65 65 70 00 	eStore00-0Sleep0
  0x2cc0	20 00 47 65 74 53 74 61 72 74 75 70 49 6e 66 6f 	 0GetStartupInfo
  0x2cd0	57 00 0f 00 53 65 74 55 6e 68 61 6e 64 6c 65 64 	W000SetUnhandled
  0x2ce0	45 78 63 65 70 74 69 6f 6e 46 69 6c 74 65 72 00 	ExceptionFilter0
  0x2cf0	14 00 47 65 74 4d 6f 64 75 6c 65 48 61 6e 64 6c 	00GetModuleHandl
  0x2d00	65 57 00 00 00 00 51 75 65 72 79 50 65 72 66 6f 	eW0000QueryPerfo
  0x2d10	72 6d 61 6e 63 65 43 6f 75 6e 74 65 72 00 0d 00 	rmanceCounter000
  0x2d20	47 65 74 43 75 72 72 65 6e 74 50 72 6f 63 65 73 	GetCurrentProces
  0x2d30	73 49 64 00 11 00 47 65 74 43 75 72 72 65 6e 74 	sId000GetCurrent
  0x2d40	54 68 72 65 61 64 49 64 00 00 16 00 47 65 74 53 	ThreadId0000GetS
  0x2d50	79 73 74 65 6d 54 69 6d 65 41 73 46 69 6c 65 54 	ystemTimeAsFileT
  0x2d60	69 6d 65 00 1a 00 47 65 74 54 69 63 6b 43 6f 75 	ime000GetTickCou
  0x2d70	6e 74 00 00 02 00 52 74 6c 43 61 70 74 75 72 65 	nt0000RtlCapture
  0x2d80	43 6f 6e 74 65 78 74 00 0a 00 52 74 6c 4c 6f 6f 	Context000RtlLoo
  0x2d90	6b 75 70 46 75 6e 63 74 69 6f 6e 45 6e 74 72 79 	kupFunctionEntry
  0x2da0	00 00 10 00 52 74 6c 56 69 72 74 75 61 6c 55 6e 	0000RtlVirtualUn
  0x2db0	77 69 6e 64 00 00 11 00 55 6e 68 61 6e 64 6c 65 	wind0000Unhandle
  0x2dc0	64 45 78 63 65 70 74 69 6f 6e 46 69 6c 74 65 72 	dExceptionFilter
  0x2dd0	00 00 0c 00 47 65 74 43 75 72 72 65 6e 74 50 72 	0000GetCurrentPr
  0x2de0	6f 63 65 73 73 00 4f 00 54 65 72 6d 69 6e 61 74 	ocess0O0Terminat
  0x2df0	65 50 72 6f 63 65 73 73 00 00 61 70 69 2d 6d 73 	eProcess00api-ms
  0x2e00	2d 77 69 6e 2d 63 6f 72 65 2d 63 6f 6d 2d 6c 31 	-win-core-com-l1
  0x2e10	2d 31 2d 30 2e 64 6c 6c 00 00 43 52 59 50 54 33 	-1-0.dll00CRYPT3
  0x2e20	32 2e 64 6c 6c 00 61 70 69 2d 6d 73 2d 77 69 6e 	2.dll0api-ms-win
  0x2e30	2d 63 6f 72 65 2d 73 79 6e 63 68 2d 6c 31 2d 32 	-core-synch-l1-2
  0x2e40	2d 30 2e 64 6c 6c 00 00 61 70 69 2d 6d 73 2d 77 	-0.dll00api-ms-w
  0x2e50	69 6e 2d 63 6f 72 65 2d 70 72 6f 63 65 73 73 74 	in-core-processt
  0x2e60	68 72 65 61 64 73 2d 6c 31 2d 31 2d 30 2e 64 6c 	hreads-l1-1-0.dl
  0x2e70	6c 00 61 70 69 2d 6d 73 2d 77 69 6e 2d 63 6f 72 	l0api-ms-win-cor
  0x2e80	65 2d 65 72 72 6f 72 68 61 6e 64 6c 69 6e 67 2d 	e-errorhandling-
  0x2e90	6c 31 2d 31 2d 30 2e 64 6c 6c 00 00 61 70 69 2d 	l1-1-0.dll00api-
  0x2ea0	6d 73 2d 77 69 6e 2d 63 6f 72 65 2d 6c 69 62 72 	ms-win-core-libr
  0x2eb0	61 72 79 6c 6f 61 64 65 72 2d 6c 31 2d 32 2d 30 	aryloader-l1-2-0
  0x2ec0	2e 64 6c 6c 00 00 61 70 69 2d 6d 73 2d 77 69 6e 	.dll00api-ms-win
  0x2ed0	2d 63 6f 72 65 2d 70 72 6f 66 69 6c 65 2d 6c 31 	-core-profile-l1
  0x2ee0	2d 31 2d 30 2e 64 6c 6c 00 00 61 70 69 2d 6d 73 	-1-0.dll00api-ms
  0x2ef0	2d 77 69 6e 2d 63 6f 72 65 2d 73 79 73 69 6e 66 	-win-core-sysinf
  0x2f00	6f 2d 6c 31 2d 31 2d 30 2e 64 6c 6c 00 00 61 70 	o-l1-1-0.dll00ap
  0x2f10	69 2d 6d 73 2d 77 69 6e 2d 63 6f 72 65 2d 72 74 	i-ms-win-core-rt
  0x2f20	6c 73 75 70 70 6f 72 74 2d 6c 31 2d 31 2d 30 2e 	lsupport-l1-1-0.
  0x2f30	64 6c 6c 00 09 00 43 6f 6d 6d 61 6e 64 4c 69 6e 	dll000CommandLin
  0x2f40	65 54 6f 41 72 67 76 57 00 00 53 48 45 4c 4c 33 	eToArgvW00SHELL3
  0x2f50	32 2e 64 6c 6c 00 8f 00 57 69 6e 56 65 72 69 66 	2.dll000WinVerif
  0x2f60	79 54 72 75 73 74 00 00 6c 00 57 54 48 65 6c 70 	yTrust00l0WTHelp
  0x2f70	65 72 50 72 6f 76 44 61 74 61 46 72 6f 6d 53 74 	erProvDataFromSt
  0x2f80	61 74 65 44 61 74 61 00 67 00 57 54 48 65 6c 70 	ateData0g0WTHelp
  0x2f90	65 72 47 65 74 50 72 6f 76 53 69 67 6e 65 72 46 	erGetProvSignerF
  0x2fa0	72 6f 6d 43 68 61 69 6e 00 00 65 00 57 54 48 65 	romChain00e0WTHe
  0x2fb0	6c 70 65 72 47 65 74 50 72 6f 76 43 65 72 74 46 	lperGetProvCertF
  0x2fc0	72 6f 6d 43 68 61 69 6e 00 00 57 49 4e 54 52 55 	romChain00WINTRU
  0x2fd0	53 54 2e 64 6c 6c 00 00 96 04 6d 65 6d 73 65 74 	ST.dll0000memset
  0x2fe0	00 00 00 00 00 00 00 00 00 00 00 00 00 00 00 00 	0000000000000000
  0x2ff0	00 00 00 00 00 00 00 00 00 00 00 00 00 00 00 00 	0000000000000000
=== DATA BLOCK END ===

=== DATA BLOCK ADDRESS 0x3000 ===
  0x3000	01 00 00 00 00 00 00 00 32 a2 df 2d 99 2b 00 00 	00000000200-0+00
  0x3010	cd 5d 20 d2 66 d4 ff ff 00 00 00 00 00 00 00 00 	0] 0f00000000000
  0x3020	00 00 00 00 00 00 00 00 00 00 00 00 00 00 00 00 	0000000000000000
  0x3030	00 00 00 00 00 00 00 00 00 00 00 00 00 00 00 00 	0000000000000000
  0x3040	00 00 00 00 00 00 00 00 00 00 00 00 00 00 00 00 	0000000000000000
  0x3050	00 00 00 00 00 00 00 00 00 00 00 00 00 00 00 00 	0000000000000000
  0x3060	00 00 00 00 00 00 00 00 00 00 00 00 00 00 00 00 	0000000000000000
  0x3070	00 00 00 00 00 00 00 00 00 00 00 00 00 00 00 00 	0000000000000000
  0x3080	00 00 00 00 00 00 00 00 00 00 00 00 00 00 00 00 	0000000000000000
  0x3090	00 00 00 00 00 00 00 00 00 00 00 00 00 00 00 00 	0000000000000000
  0x30a0	00 00 00 00 00 00 00 00 00 00 00 00 00 00 00 00 	0000000000000000
  0x30b0	00 00 00 00 00 00 00 00 00 00 00 00 00 00 00 00 	0000000000000000
  0x30c0	00 00 00 00 00 00 00 00 00 00 00 00 00 00 00 00 	0000000000000000
  0x30d0	00 00 00 00 00 00 00 00 00 00 00 00 00 00 00 00 	0000000000000000
  0x30e0	00 00 00 00 00 00 00 00 00 00 00 00 00 00 00 00 	0000000000000000
  0x30f0	00 00 00 00 00 00 00 00 00 00 00 00 00 00 00 00 	0000000000000000
  0x3100	00 00 00 00 00 00 00 00 00 00 00 00 00 00 00 00 	0000000000000000
  0x3110	00 00 00 00 00 00 00 00 00 00 00 00 00 00 00 00 	0000000000000000
  0x3120	00 00 00 00 00 00 00 00 00 00 00 00 00 00 00 00 	0000000000000000
  0x3130	00 00 00 00 00 00 00 00 00 00 00 00 00 00 00 00 	0000000000000000
  0x3140	00 00 00 00 00 00 00 00 00 00 00 00 00 00 00 00 	0000000000000000
  0x3150	00 00 00 00 00 00 00 00 00 00 00 00 00 00 00 00 	0000000000000000
  0x3160	00 00 00 00 00 00 00 00 00 00 00 00 00 00 00 00 	0000000000000000
  0x3170	00 00 00 00 00 00 00 00 00 00 00 00 00 00 00 00 	0000000000000000
  0x3180	00 00 00 00 00 00 00 00 00 00 00 00 00 00 00 00 	0000000000000000
  0x3190	00 00 00 00 00 00 00 00 00 00 00 00 00 00 00 00 	0000000000000000
  0x31a0	00 00 00 00 00 00 00 00 00 00 00 00 00 00 00 00 	0000000000000000
  0x31b0	00 00 00 00 00 00 00 00 00 00 00 00 00 00 00 00 	0000000000000000
  0x31c0	00 00 00 00 00 00 00 00 00 00 00 00 00 00 00 00 	0000000000000000
  0x31d0	00 00 00 00 00 00 00 00 00 00 00 00 00 00 00 00 	0000000000000000
  0x31e0	00 00 00 00 00 00 00 00 00 00 00 00 00 00 00 00 	0000000000000000
  0x31f0	00 00 00 00 00 00 00 00 00 00 00 00 00 00 00 00 	0000000000000000
=== DATA BLOCK END ===

=== DATA BLOCK ADDRESS 0x4000 ===
  0x4000	08 10 00 00 27 11 00 00 78 26 00 00 30 11 00 00 	0000'000x&000000
  0x4010	3b 12 00 00 8c 26 00 00 44 12 00 00 52 14 00 00 	;0000&00D000R000
  0x4020	a0 26 00 00 60 14 00 00 33 15 00 00 c0 26 00 00 	0&00`00030000&00
  0x4030	40 15 00 00 89 15 00 00 c8 26 00 00 90 15 00 00 	@00000000&000000
  0x4040	f4 17 00 00 d0 26 00 00 00 18 00 00 12 18 00 00 	00000&0000000000
  0x4050	c0 26 00 00 30 18 00 00 4e 18 00 00 10 27 00 00 	0&000000N0000'00
  0x4060	60 18 00 00 99 18 00 00 c0 26 00 00 a0 18 00 00 	`00000000&000000
  0x4070	b8 18 00 00 c0 26 00 00 cc 18 00 00 20 19 00 00 	00000&000000 000
  0x4080	14 27 00 00 28 19 00 00 6d 19 00 00 34 27 00 00 	0'00(000m0004'00
  0x4090	e0 19 00 00 2d 1a 00 00 3c 27 00 00 74 1a 00 00 	0000-000<'00t000
  0x40a0	48 1b 00 00 60 27 00 00 7c 1b 00 00 b0 1b 00 00 	H000`'00|0000000
  0x40b0	34 27 00 00 c0 1b 00 00 31 1d 00 00 6c 27 00 00 	4'0000001000l'00
  0x40c0	48 1d 00 00 65 1d 00 00 c0 26 00 00 6c 1d 00 00 	H000e0000&00l000
  0x40d0	c7 1d 00 00 7c 27 00 00 f0 1d 00 00 f2 1d 00 00 	0000|'0000000000
  0x40e0	78 27 00 00 00 1e 00 00 1e 1e 00 00 04 27 00 00 	x'00000000000'00
  0x40f0	30 1e 00 00 50 1e 00 00 04 27 00 00 00 00 00 00 	0000P0000'000000
  0x4100	00 00 00 00 00 00 00 00 00 00 00 00 00 00 00 00 	0000000000000000
  0x4110	00 00 00 00 00 00 00 00 00 00 00 00 00 00 00 00 	0000000000000000
  0x4120	00 00 00 00 00 00 00 00 00 00 00 00 00 00 00 00 	0000000000000000
  0x4130	00 00 00 00 00 00 00 00 00 00 00 00 00 00 00 00 	0000000000000000
  0x4140	00 00 00 00 00 00 00 00 00 00 00 00 00 00 00 00 	0000000000000000
  0x4150	00 00 00 00 00 00 00 00 00 00 00 00 00 00 00 00 	0000000000000000
  0x4160	00 00 00 00 00 00 00 00 00 00 00 00 00 00 00 00 	0000000000000000
  0x4170	00 00 00 00 00 00 00 00 00 00 00 00 00 00 00 00 	0000000000000000
  0x4180	00 00 00 00 00 00 00 00 00 00 00 00 00 00 00 00 	0000000000000000
  0x4190	00 00 00 00 00 00 00 00 00 00 00 00 00 00 00 00 	0000000000000000
  0x41a0	00 00 00 00 00 00 00 00 00 00 00 00 00 00 00 00 	0000000000000000
  0x41b0	00 00 00 00 00 00 00 00 00 00 00 00 00 00 00 00 	0000000000000000
  0x41c0	00 00 00 00 00 00 00 00 00 00 00 00 00 00 00 00 	0000000000000000
  0x41d0	00 00 00 00 00 00 00 00 00 00 00 00 00 00 00 00 	0000000000000000
  0x41e0	00 00 00 00 00 00 00 00 00 00 00 00 00 00 00 00 	0000000000000000
  0x41f0	00 00 00 00 00 00 00 00 00 00 00 00 00 00 00 00 	0000000000000000
=== DATA BLOCK END ===
