===== Assembly blocks =====

=== CODE BLOCK ADDRESS 0x1000 ===
  0x1000	int3   	
  0x1001	int3   	
  0x1002	int3   	
  0x1003	int3   	
  0x1004	int3   	
  === BLOCK LINK ===
    0x1005
=== CODE BLOCK END ===

=== CODE BLOCK ADDRESS 0x1005 ===
  0x1005	int3   	
  0x1006	int3   	
  0x1007	int3   	
  0x1008	dec    	eax
  0x1009	mov    	eax, esp
  === BLOCK LINK ===
    0x100b
=== CODE BLOCK END ===

=== CODE BLOCK ADDRESS 0x100b ===
  0x100b	dec    	eax
  0x100c	mov    	dword ptr [eax + 8], ebx
  0x100f	dec    	eax
  0x1010	mov    	dword ptr [eax + 0x10], edi
  0x1013	dec    	esp
  === BLOCK LINK ===
    0x1014
=== CODE BLOCK END ===

=== CODE BLOCK ADDRESS 0x1014 ===
  0x1014	mov    	dword ptr [eax + 0x18], esi
  0x1017	push   	ebp
  0x1018	dec    	eax
  0x1019	lea    	ebp, [eax - 0x1a8]
  0x101f	dec    	eax
  === BLOCK LINK ===
    0x1020
=== CODE BLOCK END ===

=== CODE BLOCK ADDRESS 0x1020 ===
  0x1020	sub    	esp, 0x2a0
  0x1026	dec    	eax
  0x1027	mov    	eax, dword ptr [0x1fdb]
  0x102d	dec    	eax
  0x102e	xor    	eax, esp
  === BLOCK LINK ===
    0x1030
=== CODE BLOCK END ===

=== CODE BLOCK ADDRESS 0x1030 ===
  0x1030	dec    	eax
  0x1031	mov    	dword ptr [ebp + 0x190], eax
  0x1037	inc    	ebp
  0x1038	xor    	ecx, ecx
  0x103a	inc    	ebp
  === BLOCK LINK ===
    0x103b
=== CODE BLOCK END ===

=== CODE BLOCK ADDRESS 0x103b ===
  0x103b	xor    	eax, eax
  0x103d	xor    	ecx, ecx
  0x103f	inc    	ecx
  0x1040	lea    	edx, [ecx + 1]
  0x1043	dec    	eax
  === BLOCK LINK ===
    0x1044
=== CODE BLOCK END ===

=== CODE BLOCK ADDRESS 0x1044 ===
  0x1044	call   	dword ptr [0x10de]
  === BLOCK LINK ===
    0x104a
=== CODE BLOCK END ===

=== CODE BLOCK ADDRESS 0x104a ===
  0x104a	nop    	dword ptr [eax + eax]
  0x104f	dec    	eax
  0x1050	mov    	eax, dword ptr [0x7ffe02c8]
  0x1057	xor    	ecx, ecx
  0x1059	dec    	eax
  === BLOCK LINK ===
    0x105a
=== CODE BLOCK END ===

=== CODE BLOCK ADDRESS 0x105a ===
  0x105a	mov    	dword ptr [esp + 0x30], eax
  0x105e	dec    	eax
  0x105f	call   	dword ptr [0x10db]
  === BLOCK LINK ===
    0x1065
=== CODE BLOCK END ===

=== CODE BLOCK ADDRESS 0x1065 ===
  0x1065	nop    	dword ptr [eax + eax]
  0x106a	inc    	ecx
  0x106b	mov    	esi, 0x20
  0x1070	dec    	esp
  0x1071	lea    	eax, [esp + 0x50]
  === BLOCK LINK ===
    0x1075
=== CODE BLOCK END ===

=== CODE BLOCK ADDRESS 0x1075 ===
  0x1075	dec    	eax
  0x1076	mov    	ecx, eax
  0x1078	inc    	ebp
  0x1079	mov    	ecx, esi
  0x107b	inc    	ecx
  === BLOCK LINK ===
    0x107c
=== CODE BLOCK END ===

=== CODE BLOCK ADDRESS 0x107c ===
  0x107c	lea    	edx, [esi + 0x45]
  0x107f	dec    	eax
  0x1080	call   	dword ptr [0x10ea]
  === BLOCK LINK ===
    0x1086
=== CODE BLOCK END ===

=== CODE BLOCK ADDRESS 0x1086 ===
  0x1086	nop    	dword ptr [eax + eax]
  0x108b	xor    	edi, edi
  0x108d	test   	eax, eax
  0x108f	je     	0x121b
  === BLOCK LINK ===
    0x1095
    0x121b
=== CODE BLOCK END ===

=== CODE BLOCK ADDRESS 0x1095 ===
  0x1095	dec    	eax
  0x1096	cmp    	dword ptr [esp + 0x30], edi
  0x109a	je     	0x1202
  === BLOCK LINK ===
    0x10a0
    0x1202
=== CODE BLOCK END ===

=== CODE BLOCK ADDRESS 0x10a0 ===
  0x10a0	dec    	eax
  0x10a1	lea    	edx, [esp + 0x30]
  0x10a5	dec    	eax
  0x10a6	lea    	ecx, [esp + 0x30]
  0x10aa	dec    	eax
  === BLOCK LINK ===
    0x10ab
=== CODE BLOCK END ===

=== CODE BLOCK ADDRESS 0x10ab ===
  0x10ab	call   	dword ptr [0x107f]
  === BLOCK LINK ===
    0x10b1
=== CODE BLOCK END ===

=== CODE BLOCK ADDRESS 0x10b1 ===
  0x10b1	nop    	dword ptr [eax + eax]
  0x10b6	dec    	eax
  0x10b7	lea    	edx, [esp + 0x38]
  0x10bb	dec    	eax
  0x10bc	lea    	ecx, [esp + 0x30]
  === BLOCK LINK ===
    0x10c0
=== CODE BLOCK END ===

=== CODE BLOCK ADDRESS 0x10c0 ===
  0x10c0	dec    	eax
  0x10c1	call   	dword ptr [0x1089]
  === BLOCK LINK ===
    0x10c7
=== CODE BLOCK END ===

=== CODE BLOCK ADDRESS 0x10c7 ===
  0x10c7	nop    	dword ptr [eax + eax]
  0x10cc	test   	eax, eax
  0x10ce	je     	0x121b
  === BLOCK LINK ===
    0x10d4
    0x121b
=== CODE BLOCK END ===

=== CODE BLOCK ADDRESS 0x10d4 ===
  0x10d4	dec    	eax
  0x10d5	lea    	eax, [ebp + 0x90]
  0x10db	inc    	ebp
  0x10dc	xor    	ecx, ecx
  0x10de	inc    	ecx
  === BLOCK LINK ===
    0x10df
=== CODE BLOCK END ===

=== CODE BLOCK ADDRESS 0x10df ===
  0x10df	lea    	ebx, [esi + 0x60]
  0x10e2	mov    	ecx, 0x400
  0x10e7	mov    	dword ptr [esp + 0x28], ebx
  0x10eb	dec    	esp
  0x10ec	lea    	eax, [esp + 0x38]
  === BLOCK LINK ===
    0x10f0
=== CODE BLOCK END ===

=== CODE BLOCK ADDRESS 0x10f0 ===
  0x10f0	lea    	edx, [edi + 1]
  0x10f3	dec    	eax
  0x10f4	mov    	dword ptr [esp + 0x20], eax
  0x10f8	dec    	eax
  0x10f9	call   	dword ptr [0x1049]
  === BLOCK LINK ===
    0x10ff
=== CODE BLOCK END ===

=== CODE BLOCK ADDRESS 0x10ff ===
  0x10ff	nop    	dword ptr [eax + eax]
  0x1104	test   	eax, eax
  0x1106	jle    	0x121b
  === BLOCK LINK ===
    0x110c
    0x121b
=== CODE BLOCK END ===

=== CODE BLOCK ADDRESS 0x110c ===
  0x110c	lea    	ecx, [eax - 1]
  0x110f	inc    	ebp
  0x1110	xor    	ecx, ecx
  0x1112	dec    	eax
  0x1113	arpl   	cx, dx
  === BLOCK LINK ===
    0x1115
=== CODE BLOCK END ===

=== CODE BLOCK ADDRESS 0x1115 ===
  0x1115	dec    	esp
  0x1116	lea    	eax, [ebp + 0x90]
  0x111c	mov    	ecx, 0x400
  0x1121	dec    	ebp
  0x1122	lea    	eax, [eax + edx*2]
  === BLOCK LINK ===
    0x1125
=== CODE BLOCK END ===

=== CODE BLOCK ADDRESS 0x1125 ===
  0x1125	inc    	bp
  0x1127	mov    	dword ptr [eax], esi
  0x1129	lea    	edx, [edi + 0x7f]
  0x112c	dec    	ecx
  0x112d	add    	eax, 2
  === BLOCK LINK ===
    0x1130
=== CODE BLOCK END ===

=== CODE BLOCK ADDRESS 0x1130 ===
  0x1130	sub    	edx, eax
  0x1132	mov    	dword ptr [esp + 0x28], edx
  0x1136	lea    	edx, [edi + 2]
  0x1139	dec    	esp
  0x113a	mov    	dword ptr [esp + 0x20], eax
  === BLOCK LINK ===
    0x113e
=== CODE BLOCK END ===

=== CODE BLOCK ADDRESS 0x113e ===
  0x113e	inc    	cx
  0x1140	mov    	dword ptr [eax], edi
  0x1142	dec    	esp
  0x1143	lea    	eax, [esp + 0x38]
  0x1147	dec    	eax
  === BLOCK LINK ===
    0x1148
=== CODE BLOCK END ===

=== CODE BLOCK ADDRESS 0x1148 ===
  0x1148	call   	dword ptr [0xfea]
  === BLOCK LINK ===
    0x114e
=== CODE BLOCK END ===

=== CODE BLOCK ADDRESS 0x114e ===
  0x114e	nop    	dword ptr [eax + eax]
  0x1153	xor    	ecx, ecx
  0x1155	dec    	eax
  0x1156	call   	dword ptr [0xfe4]
  === BLOCK LINK ===
    0x115c
=== CODE BLOCK END ===

=== CODE BLOCK ADDRESS 0x115c ===
  0x115c	nop    	dword ptr [eax + eax]
  0x1161	inc    	esp
  0x1162	mov    	ecx, ebx
  0x1164	dec    	esp
  0x1165	lea    	eax, [ebp - 0x70]
  === BLOCK LINK ===
    0x1168
=== CODE BLOCK END ===

=== CODE BLOCK ADDRESS 0x1168 ===
  0x1168	dec    	eax
  0x1169	mov    	ecx, eax
  0x116b	lea    	edx, [edi + 0x66]
  0x116e	dec    	eax
  0x116f	call   	dword ptr [0xffb]
  === BLOCK LINK ===
    0x1175
=== CODE BLOCK END ===

=== CODE BLOCK ADDRESS 0x1175 ===
  0x1175	nop    	dword ptr [eax + eax]
  0x117a	test   	eax, eax
  0x117c	je     	0x121b
  === BLOCK LINK ===
    0x1182
    0x121b
=== CODE BLOCK END ===

=== CODE BLOCK ADDRESS 0x1182 ===
  0x1182	mov    	ecx, ebx
  0x1184	dec    	eax
  0x1185	lea    	eax, [ebp - 0x70]
  === BLOCK LINK ===
    0x1188
=== CODE BLOCK END ===

=== CODE BLOCK ADDRESS 0x118d ===
  0x118d	dec    	eax
  0x118e	add    	eax, 2
  0x1191	dec    	eax
  0x1192	sub    	ecx, 1
  0x1195	jne    	0x1188
  === BLOCK LINK ===
    0x1197
    0x1188
=== CODE BLOCK END ===

=== CODE BLOCK ADDRESS 0x1197 ===
  0x1197	dec    	eax
  0x1198	test   	ecx, ecx
  0x119a	je     	0x11a4
  === BLOCK LINK ===
    0x119c
    0x11a4
=== CODE BLOCK END ===

=== CODE BLOCK ADDRESS 0x119c ===
  0x119c	dec    	eax
  0x119d	mov    	eax, ebx
  0x119f	dec    	eax
  0x11a0	sub    	eax, ecx
  0x11a2	jmp    	0x11a7
  === BLOCK LINK ===
    0x11a4
    0x11a7
=== CODE BLOCK END ===

=== CODE BLOCK ADDRESS 0x11a4 ===
  0x11a4	dec    	eax
  0x11a5	mov    	eax, edi
  === BLOCK LINK ===
    0x11a7
    0x11fc
=== CODE BLOCK END ===

=== CODE BLOCK ADDRESS 0x11ac ===
  0x11ac	dec    	eax
  0x11ad	lea    	ecx, [ebp - 0x70]
  0x11b0	dec    	eax
  0x11b1	lea    	ecx, [ecx + eax*2]
  0x11b4	dec    	eax
  === BLOCK LINK ===
    0x11b5
=== CODE BLOCK END ===

=== CODE BLOCK ADDRESS 0x11b5 ===
  0x11b5	sub    	ebx, eax
  0x11b7	je     	0x11ee
  === BLOCK LINK ===
    0x11b9
    0x11ee
=== CODE BLOCK END ===

=== CODE BLOCK ADDRESS 0x11b9 ===
  0x11b9	dec    	eax
  0x11ba	lea    	edx, [eax + 0x7fffff7e]
  0x11c0	dec    	eax
  0x11c1	add    	edx, ebx
  0x11c3	dec    	eax
  === BLOCK LINK ===
    0x11c4
=== CODE BLOCK END ===

=== CODE BLOCK ADDRESS 0x11c4 ===
  0x11c4	lea    	eax, [ebp + 0x90]
  0x11ca	dec    	eax
  0x11cb	sub    	eax, ecx
  === BLOCK LINK ===
    0x11cd
=== CODE BLOCK END ===

=== CODE BLOCK ADDRESS 0x11d0 ===
  0x11d0	je     	0x11ee
  === BLOCK LINK ===
    0x11d2
    0x11ee
=== CODE BLOCK END ===

=== CODE BLOCK ADDRESS 0x11d2 ===
  0x11d2	inc    	esp
  0x11d3	movzx  	eax, word ptr [eax + ecx]
  0x11d7	inc    	bp
  0x11d9	test   	eax, eax
  0x11db	je     	0x11ee
  === BLOCK LINK ===
    0x11dd
    0x11ee
=== CODE BLOCK END ===

=== CODE BLOCK ADDRESS 0x11dd ===
  0x11dd	inc    	sp
  0x11df	mov    	dword ptr [ecx], eax
  0x11e1	dec    	eax
  0x11e2	dec    	edx
  0x11e4	dec    	eax
  === BLOCK LINK ===
    0x11e5
=== CODE BLOCK END ===

=== CODE BLOCK ADDRESS 0x11e5 ===
  0x11e5	add    	ecx, 2
  0x11e8	dec    	eax
  0x11e9	sub    	ebx, 1
  0x11ec	jne    	0x11cd
  === BLOCK LINK ===
    0x11ee
    0x11cd
=== CODE BLOCK END ===

=== CODE BLOCK ADDRESS 0x11ee ===
  0x11ee	dec    	eax
  0x11ef	test   	ebx, ebx
  0x11f1	dec    	eax
  0x11f2	lea    	eax, [ecx - 2]
  0x11f5	dec    	eax
  === BLOCK LINK ===
    0x11f6
=== CODE BLOCK END ===

=== CODE BLOCK ADDRESS 0x11f6 ===
  0x11f6	cmovne  	eax, ecx
  0x11f9	mov    	word ptr [eax], di
  === BLOCK LINK ===
    0x11fc
    0x1205
=== CODE BLOCK END ===

=== CODE BLOCK ADDRESS 0x1202 ===
  0x1202	inc    	ebp
  0x1203	xor    	eax, eax
  === BLOCK LINK ===
    0x1205
=== CODE BLOCK END ===

=== CODE BLOCK ADDRESS 0x1209 ===
  0x1209	lea    	edx, [esp + 0x50]
  0x120d	xor    	ecx, ecx
  0x120f	dec    	eax
  0x1210	call   	dword ptr [0xf4a]
  === BLOCK LINK ===
    0x1216
=== CODE BLOCK END ===

=== CODE BLOCK ADDRESS 0x1216 ===
  0x1216	nop    	dword ptr [eax + eax]
  === BLOCK LINK ===
    0x121b
=== CODE BLOCK END ===

=== CODE BLOCK ADDRESS 0x1225 ===
  0x1225	xor    	ecx, esp
  0x1227	call   	0x1620
  === BLOCK LINK ===
    0x122c
    0x1620
=== CODE BLOCK END ===

=== CODE BLOCK ADDRESS 0x122c ===
  0x122c	dec    	esp
  0x122d	lea    	ebx, [esp + 0x2a0]
  0x1234	dec    	ecx
  0x1235	mov    	ebx, dword ptr [ebx + 0x10]
  0x1238	dec    	ecx
  === BLOCK LINK ===
    0x1239
=== CODE BLOCK END ===

=== CODE BLOCK ADDRESS 0x1239 ===
  0x1239	mov    	edi, dword ptr [ebx + 0x18]
  0x123c	dec    	ebp
  0x123d	mov    	esi, dword ptr [ebx + 0x20]
  0x1240	dec    	ecx
  0x1241	mov    	esp, ebx
  === BLOCK LINK ===
    0x1243
=== CODE BLOCK END ===

=== CODE BLOCK ADDRESS 0x1243 ===
  0x1243	pop    	ebp
  0x1244	ret    	
  0x1245	int3   	
  0x1246	int3   	
  0x1247	int3   	
  === BLOCK LINK ===
    0x1248
=== CODE BLOCK END ===

=== CODE BLOCK ADDRESS 0x121b ===
  0x121b	xor    	eax, eax
  0x121d	dec    	eax
  0x121e	mov    	ecx, dword ptr [ebp + 0x190]
  0x1224	dec    	eax
  === BLOCK LINK ===
    0x1225
=== CODE BLOCK END ===

=== CODE BLOCK ADDRESS 0x1248 ===
  0x1248	int3   	
  0x1249	int3   	
  0x124a	int3   	
  0x124b	int3   	
  0x124c	int3   	
  === BLOCK LINK ===
    0x124d
=== CODE BLOCK END ===

=== CODE BLOCK ADDRESS 0x124d ===
  0x124d	int3   	
  0x124e	int3   	
  0x124f	int3   	
  0x1250	dec    	eax
  0x1251	sub    	esp, 0x28
  === BLOCK LINK ===
    0x1254
=== CODE BLOCK END ===

=== CODE BLOCK ADDRESS 0x1254 ===
  0x1254	mov    	eax, 0x5a4d
  0x1259	cmp    	word ptr [0xffffeda0], ax
  0x1260	je     	0x1266
  === BLOCK LINK ===
    0x1262
    0x1266
=== CODE BLOCK END ===

=== CODE BLOCK ADDRESS 0x1262 ===
  0x1262	xor    	eax, eax
  0x1264	jmp    	0x12b9
  === BLOCK LINK ===
    0x1266
    0x12b9
=== CODE BLOCK END ===

=== CODE BLOCK ADDRESS 0x1266 ===
  0x1266	dec    	eax
  0x1267	arpl   	word ptr [0xffffedcf], cx
  0x126d	dec    	eax
  0x126e	lea    	eax, [0xffffed8c]
  0x1274	dec    	eax
  === BLOCK LINK ===
    0x1275
=== CODE BLOCK END ===

=== CODE BLOCK ADDRESS 0x1275 ===
  0x1275	add    	ecx, eax
  0x1277	cmp    	dword ptr [ecx], 0x4550
  0x127d	jne    	0x1262
  === BLOCK LINK ===
    0x127f
    0x1262
=== CODE BLOCK END ===

=== CODE BLOCK ADDRESS 0x127f ===
  0x127f	mov    	eax, 0x10b
  0x1284	cmp    	word ptr [ecx + 0x18], ax
  0x1288	je     	0x12a8
  === BLOCK LINK ===
    0x128a
    0x12a8
=== CODE BLOCK END ===

=== CODE BLOCK ADDRESS 0x128a ===
  0x128a	mov    	eax, 0x20b
  0x128f	cmp    	word ptr [ecx + 0x18], ax
  0x1293	jne    	0x1262
  === BLOCK LINK ===
    0x1295
=== CODE BLOCK END ===

=== CODE BLOCK ADDRESS 0x1295 ===
  0x1295	xor    	eax, eax
  0x1297	cmp    	dword ptr [ecx + 0x84], 0xe
  0x129e	jbe    	0x12b9
  === BLOCK LINK ===
    0x12a0
=== CODE BLOCK END ===

=== CODE BLOCK ADDRESS 0x12a0 ===
  0x12a0	cmp    	dword ptr [ecx + 0xf8], eax
  0x12a6	jmp    	0x12b6
  === BLOCK LINK ===
    0x12a8
=== CODE BLOCK END ===

=== CODE BLOCK ADDRESS 0x12a8 ===
  0x12a8	xor    	eax, eax
  0x12aa	cmp    	dword ptr [ecx + 0x74], 0xe
  0x12ae	jbe    	0x12b9
  === BLOCK LINK ===
    0x12b0
=== CODE BLOCK END ===

=== CODE BLOCK ADDRESS 0x12b0 ===
  0x12b0	cmp    	dword ptr [ecx + 0xe8], eax
  0x12b6	setne  	al
  === BLOCK LINK ===
    0x12b9
=== CODE BLOCK END ===

=== CODE BLOCK ADDRESS 0x12c9 ===
  0x12c9	mov    	ecx, eax
  0x12cb	call   	dword ptr [0xf9f]
  === BLOCK LINK ===
    0x12d1
=== CODE BLOCK END ===

=== CODE BLOCK ADDRESS 0x12d1 ===
  0x12d1	dec    	eax
  0x12d2	mov    	ecx, dword ptr [0xf50]
  0x12d8	dec    	eax
  0x12d9	or     	eax, 0xffffffff
  0x12dc	dec    	eax
  === BLOCK LINK ===
    0x12dd
=== CODE BLOCK END ===

=== CODE BLOCK ADDRESS 0x12dd ===
  0x12dd	mov    	dword ptr [0x22ed], eax
  0x12e3	dec    	eax
  0x12e4	mov    	dword ptr [0x22ee], eax
  0x12ea	mov    	eax, dword ptr [0x1d64]
  0x12f0	mov    	dword ptr [ecx], eax
  === BLOCK LINK ===
    0x12f2
=== CODE BLOCK END ===

=== CODE BLOCK ADDRESS 0x12f2 ===
  0x12f2	dec    	eax
  0x12f3	mov    	ecx, dword ptr [0xf27]
  0x12f9	mov    	eax, dword ptr [0x1d49]
  0x12ff	mov    	dword ptr [ecx], eax
  0x1301	call   	0x1770
  === BLOCK LINK ===
    0x1306
=== CODE BLOCK END ===

=== CODE BLOCK ADDRESS 0x1306 ===
  0x1306	cmp    	dword ptr [0x1cf3], 0
  0x130d	jne    	0x131c
  === BLOCK LINK ===
    0x130f
=== CODE BLOCK END ===

=== CODE BLOCK ADDRESS 0x130f ===
  0x130f	dec    	eax
  0x1310	lea    	ecx, [0x45a]
  0x1316	call   	dword ptr [0xf34]
  === BLOCK LINK ===
    0x131c
=== CODE BLOCK END ===

=== CODE BLOCK ADDRESS 0x131c ===
  0x131c	xor    	eax, eax
  0x131e	dec    	eax
  0x131f	add    	esp, 0x28
  0x1322	ret    	
  0x1323	int3   	
  === BLOCK LINK ===
    0x1324
=== CODE BLOCK END ===

=== CODE BLOCK ADDRESS 0x1324 ===
  0x1324	int3   	
  0x1325	int3   	
  0x1326	int3   	
  0x1327	int3   	
  0x1328	int3   	
  === BLOCK LINK ===
    0x1329
=== CODE BLOCK END ===

=== CODE BLOCK ADDRESS 0x1329 ===
  0x1329	int3   	
  0x132a	int3   	
  0x132b	int3   	
  0x132c	int3   	
  0x132d	int3   	
  === BLOCK LINK ===
    0x132e
=== CODE BLOCK END ===

=== CODE BLOCK ADDRESS 0x132e ===
  0x132e	int3   	
  0x132f	int3   	
  0x1330	dec    	eax
  0x1331	sub    	esp, 0x38
  0x1334	mov    	eax, dword ptr [0x1d16]
  === BLOCK LINK ===
    0x133a
=== CODE BLOCK END ===

=== CODE BLOCK ADDRESS 0x133a ===
  0x133a	dec    	esp
  0x133b	lea    	eax, [0x1cf7]
  0x1341	inc    	esp
  0x1342	mov    	ecx, dword ptr [0x1d04]
  0x1348	dec    	eax
  === BLOCK LINK ===
    0x1349
=== CODE BLOCK END ===

=== CODE BLOCK ADDRESS 0x1349 ===
  0x1349	lea    	edx, [0x1ce1]
  0x134f	mov    	dword ptr [0x1cef], eax
  0x1355	dec    	eax
  0x1356	lea    	ecx, [0x1ccc]
  0x135c	dec    	eax
  === BLOCK LINK ===
    0x135d
=== CODE BLOCK END ===

=== CODE BLOCK ADDRESS 0x135d ===
  0x135d	lea    	eax, [0x1ce1]
  0x1363	dec    	eax
  0x1364	mov    	dword ptr [esp + 0x20], eax
  0x1368	call   	dword ptr [0xf0a]
  === BLOCK LINK ===
    0x136e
=== CODE BLOCK END ===

=== CODE BLOCK ADDRESS 0x136e ===
  0x136e	mov    	dword ptr [0x1cb8], eax
  0x1374	dec    	eax
  0x1375	add    	esp, 0x38
  0x1378	ret    	
  0x1379	int3   	
  === BLOCK LINK ===
    0x137a
=== CODE BLOCK END ===

=== CODE BLOCK ADDRESS 0x137a ===
  0x137a	int3   	
  0x137b	int3   	
  0x137c	int3   	
  0x137d	int3   	
  0x137e	int3   	
  === BLOCK LINK ===
    0x137f
=== CODE BLOCK END ===

=== CODE BLOCK ADDRESS 0x137f ===
  0x137f	int3   	
  0x1380	dec    	eax
  0x1381	mov    	eax, esp
  0x1383	dec    	eax
  0x1384	mov    	dword ptr [eax + 8], ebx
  === BLOCK LINK ===
    0x1387
=== CODE BLOCK END ===

=== CODE BLOCK ADDRESS 0x1387 ===
  0x1387	dec    	eax
  0x1388	mov    	dword ptr [eax + 0x10], esi
  0x138b	dec    	eax
  0x138c	mov    	dword ptr [eax + 0x18], edi
  0x138f	dec    	esp
  === BLOCK LINK ===
    0x1390
=== CODE BLOCK END ===

=== CODE BLOCK ADDRESS 0x1390 ===
  0x1390	mov    	dword ptr [eax + 0x20], esi
  0x1393	inc    	ecx
  0x1394	push   	edi
  0x1395	dec    	eax
  0x1396	sub    	esp, 0xb0
  === BLOCK LINK ===
    0x139c
=== CODE BLOCK END ===

=== CODE BLOCK ADDRESS 0x139c ===
  0x139c	inc    	ebp
  0x139d	xor    	esi, esi
  0x139f	inc    	esp
  0x13a0	mov    	dword ptr [esp + 0x20], esi
  0x13a4	dec    	eax
  === BLOCK LINK ===
    0x13a5
=== CODE BLOCK END ===

=== CODE BLOCK ADDRESS 0x13a5 ===
  0x13a5	lea    	ecx, [eax - 0x78]
  0x13a8	call   	dword ptr [0xe02]
  === BLOCK LINK ===
    0x13ae
=== CODE BLOCK END ===

=== CODE BLOCK ADDRESS 0x13ae ===
  0x13ae	nop    	
  0x13af	dec    	eax
  0x13b1	mov    	eax, dword ptr [0x30]
  0x13b8	dec    	eax
  0x13b9	mov    	ebx, dword ptr [eax + 8]
  === BLOCK LINK ===
    0x13bc
=== CODE BLOCK END ===

=== CODE BLOCK ADDRESS 0x13bc ===
  0x13bc	inc    	ecx
  0x13bd	mov    	esi, esi
  0x13bf	xor    	eax, eax
  0x13c1	.byte  	0xf0
  0x13c2	dec    	eax
  === BLOCK LINK ===
    0x13c3
=== CODE BLOCK END ===

=== CODE BLOCK ADDRESS 0x13c3 ===
  0x13c3	cmpxchg  	dword ptr [0x2216], ebx
  0x13ca	je     	0x13e7
  === BLOCK LINK ===
    0x13cc
=== CODE BLOCK END ===

=== CODE BLOCK ADDRESS 0x13cc ===
  0x13cc	dec    	eax
  0x13cd	cmp    	eax, ebx
  0x13cf	jne    	0x13da
  === BLOCK LINK ===
    0x13d1
=== CODE BLOCK END ===

=== CODE BLOCK ADDRESS 0x13d1 ===
  0x13d1	mov    	ebx, 1
  0x13d6	mov    	esi, ebx
  0x13d8	jmp    	0x13ec
  === BLOCK LINK ===
    0x13da
=== CODE BLOCK END ===

=== CODE BLOCK ADDRESS 0x13da ===
  0x13da	mov    	ecx, 0x3e8
  0x13df	call   	dword ptr [0xe13]
  === BLOCK LINK ===
    0x13e5
=== CODE BLOCK END ===

=== CODE BLOCK ADDRESS 0x13e5 ===
  0x13e5	jmp    	0x13bf
  === BLOCK LINK ===
    0x13e7
=== CODE BLOCK END ===

=== CODE BLOCK ADDRESS 0x13e7 ===
  0x13e7	mov    	ebx, 1
  0x13ec	mov    	eax, dword ptr [0x21f6]
  0x13f2	cmp    	eax, ebx
  0x13f4	jne    	0x1404
  === BLOCK LINK ===
    0x13f6
=== CODE BLOCK END ===

=== CODE BLOCK ADDRESS 0x13f6 ===
  0x13f6	mov    	edi, 0x1f
  0x13fb	mov    	ecx, edi
  0x13fd	call   	0x1763
  === BLOCK LINK ===
    0x1402
=== CODE BLOCK END ===

=== CODE BLOCK ADDRESS 0x1402 ===
  0x1402	jmp    	0x1470
  === BLOCK LINK ===
    0x1404
=== CODE BLOCK END ===

=== CODE BLOCK ADDRESS 0x1404 ===
  0x1404	mov    	eax, dword ptr [0x21de]
  0x140a	test   	eax, eax
  0x140c	jne    	0x1465
  === BLOCK LINK ===
    0x140e
=== CODE BLOCK END ===

=== CODE BLOCK ADDRESS 0x140e ===
  0x140e	mov    	dword ptr [0x21d4], ebx
  0x1414	dec    	esp
  0x1415	lea    	edi, [0xebd]
  0x141b	dec    	eax
  0x141c	lea    	edi, [0xe9e]
  === BLOCK LINK ===
    0x1422
=== CODE BLOCK END ===

=== CODE BLOCK ADDRESS 0x1422 ===
  0x1422	dec    	eax
  0x1423	mov    	dword ptr [esp + 0x30], edi
  0x1427	inc    	ecx
  0x1428	mov    	eax, esi
  0x142a	mov    	dword ptr [esp + 0x24], eax
  === BLOCK LINK ===
    0x142e
=== CODE BLOCK END ===

=== CODE BLOCK ADDRESS 0x142e ===
  0x142e	dec    	ecx
  0x142f	cmp    	edi, edi
  0x1431	jae    	0x1457
  === BLOCK LINK ===
    0x1433
=== CODE BLOCK END ===

=== CODE BLOCK ADDRESS 0x1433 ===
  0x1433	test   	eax, eax
  0x1435	jne    	0x145b
  === BLOCK LINK ===
    0x1437
=== CODE BLOCK END ===

=== CODE BLOCK ADDRESS 0x1437 ===
  0x1437	dec    	esp
  0x1438	cmp    	dword ptr [edi], esi
  0x143a	je     	0x144c
  === BLOCK LINK ===
    0x143c
=== CODE BLOCK END ===

=== CODE BLOCK ADDRESS 0x143c ===
  0x143c	dec    	eax
  0x143d	mov    	eax, dword ptr [edi]
  0x143f	dec    	eax
  0x1440	mov    	ecx, dword ptr [0xe5a]
  0x1446	call   	ecx
  === BLOCK LINK ===
    0x1448
=== CODE BLOCK END ===

=== CODE BLOCK ADDRESS 0x1448 ===
  0x1448	mov    	dword ptr [esp + 0x24], eax
  0x144c	dec    	eax
  0x144d	add    	edi, 8
  0x1450	dec    	eax
  0x1451	mov    	dword ptr [esp + 0x30], edi
  === BLOCK LINK ===
    0x1455
=== CODE BLOCK END ===

=== CODE BLOCK ADDRESS 0x1455 ===
  0x1455	jmp    	0x142e
  === BLOCK LINK ===
    0x1457
=== CODE BLOCK END ===

=== CODE BLOCK ADDRESS 0x1457 ===
  0x1457	test   	eax, eax
  0x1459	je     	0x146b
  === BLOCK LINK ===
    0x145b
=== CODE BLOCK END ===

=== CODE BLOCK ADDRESS 0x145b ===
  0x145b	mov    	eax, 0xff
  0x1460	jmp    	0x15c6
  === BLOCK LINK ===
    0x1465
=== CODE BLOCK END ===

=== CODE BLOCK ADDRESS 0x1465 ===
  0x1465	mov    	dword ptr [0x1bb9], ebx
  0x146b	mov    	edi, 0x1f
  0x1470	mov    	eax, dword ptr [0x2172]
  0x1476	cmp    	eax, ebx
  0x1478	jne    	0x1497
  === BLOCK LINK ===
    0x147a
=== CODE BLOCK END ===

=== CODE BLOCK ADDRESS 0x147a ===
  0x147a	dec    	eax
  0x147b	lea    	edx, [0xe37]
  0x1481	dec    	eax
  0x1482	lea    	ecx, [0xe20]
  0x1488	call   	0x193e
  === BLOCK LINK ===
    0x148d
=== CODE BLOCK END ===

=== CODE BLOCK ADDRESS 0x148d ===
  0x148d	mov    	dword ptr [0x2151], 2
  0x1497	test   	esi, esi
  0x1499	jne    	0x14a5
  === BLOCK LINK ===
    0x149b
=== CODE BLOCK END ===

=== CODE BLOCK ADDRESS 0x149b ===
  0x149b	dec    	ecx
  0x149c	mov    	eax, esi
  0x149e	dec    	eax
  0x149f	xchg   	dword ptr [0x213b], eax
  0x14a5	dec    	esp
  === BLOCK LINK ===
    0x14a6
=== CODE BLOCK END ===

=== CODE BLOCK ADDRESS 0x14a6 ===
  0x14a6	cmp    	dword ptr [0x2144], esi
  0x14ac	je     	0x14d8
  === BLOCK LINK ===
    0x14ae
=== CODE BLOCK END ===

=== CODE BLOCK ADDRESS 0x14ae ===
  0x14ae	dec    	eax
  0x14af	lea    	ecx, [0x213b]
  0x14b5	call   	0x17d0
  === BLOCK LINK ===
    0x14ba
=== CODE BLOCK END ===

=== CODE BLOCK ADDRESS 0x14ba ===
  0x14ba	test   	eax, eax
  0x14bc	je     	0x14d8
  === BLOCK LINK ===
    0x14be
=== CODE BLOCK END ===

=== CODE BLOCK ADDRESS 0x14be ===
  0x14be	inc    	ebp
  0x14bf	xor    	eax, eax
  0x14c1	inc    	ecx
  0x14c2	lea    	edx, [eax + 2]
  0x14c5	xor    	ecx, ecx
  === BLOCK LINK ===
    0x14c7
=== CODE BLOCK END ===

=== CODE BLOCK ADDRESS 0x14c7 ===
  0x14c7	dec    	eax
  0x14c8	mov    	eax, dword ptr [0x2122]
  0x14ce	dec    	esp
  0x14cf	mov    	ecx, dword ptr [0xdcb]
  0x14d5	inc    	ecx
  === BLOCK LINK ===
    0x14d6
=== CODE BLOCK END ===

=== CODE BLOCK ADDRESS 0x14d6 ===
  0x14d6	call   	ecx
  === BLOCK LINK ===
    0x14d8
=== CODE BLOCK END ===

=== CODE BLOCK ADDRESS 0x14d8 ===
  0x14d8	dec    	eax
  0x14d9	mov    	eax, dword ptr [0xd51]
  0x14df	dec    	eax
  0x14e0	mov    	ecx, dword ptr [eax]
  0x14e2	dec    	eax
  === BLOCK LINK ===
    0x14e3
=== CODE BLOCK END ===

=== CODE BLOCK ADDRESS 0x14e3 ===
  0x14e3	test   	ecx, ecx
  0x14e5	jne    	0x14f1
  === BLOCK LINK ===
    0x14e7
=== CODE BLOCK END ===

=== CODE BLOCK ADDRESS 0x14e7 ===
  0x14e7	mov    	eax, 0xff
  0x14ec	jmp    	0x15c6
  === BLOCK LINK ===
    0x14f1
=== CODE BLOCK END ===

=== CODE BLOCK ADDRESS 0x14f1 ===
  0x14f1	dec    	eax
  0x14f2	mov    	dword ptr [esp + 0x28], ecx
  0x14f6	mov    	edx, dword ptr [esp + 0x20]
  0x14fa	movzx  	eax, word ptr [ecx]
  0x14fd	cmp    	ax, 0x20
  === BLOCK LINK ===
    0x1501
=== CODE BLOCK END ===

=== CODE BLOCK ADDRESS 0x1501 ===
  0x1501	ja     	0x1577
  === BLOCK LINK ===
    0x1503
=== CODE BLOCK END ===

=== CODE BLOCK ADDRESS 0x1503 ===
  0x1503	test   	ax, ax
  0x1506	je     	0x150c
  === BLOCK LINK ===
    0x1508
=== CODE BLOCK END ===

=== CODE BLOCK ADDRESS 0x1508 ===
  0x1508	test   	edx, edx
  0x150a	jne    	0x1577
  === BLOCK LINK ===
    0x150c
=== CODE BLOCK END ===

=== CODE BLOCK ADDRESS 0x150c ===
  0x150c	sub    	ax, bx
  0x150f	cmp    	ax, di
  0x1512	ja     	0x1522
  === BLOCK LINK ===
    0x1514
=== CODE BLOCK END ===

=== CODE BLOCK ADDRESS 0x1514 ===
  0x1514	dec    	eax
  0x1515	add    	ecx, 2
  0x1518	dec    	eax
  0x1519	mov    	dword ptr [esp + 0x28], ecx
  0x151d	movzx  	eax, word ptr [ecx]
  === BLOCK LINK ===
    0x1520
=== CODE BLOCK END ===

=== CODE BLOCK ADDRESS 0x1520 ===
  0x1520	jmp    	0x150c
  === BLOCK LINK ===
    0x1522
=== CODE BLOCK END ===

=== CODE BLOCK ADDRESS 0x1522 ===
  0x1522	test   	byte ptr [esp + 0x7c], bl
  0x1526	movzx  	eax, word ptr [esp + 0x80]
  0x152e	inc    	ecx
  0x152f	mov    	ecx, 0xa
  0x1534	inc    	esp
  === BLOCK LINK ===
    0x1535
=== CODE BLOCK END ===

=== CODE BLOCK ADDRESS 0x1535 ===
  0x1535	cmovne  	ecx, eax
  0x1538	dec    	esp
  0x1539	mov    	eax, ecx
  0x153b	xor    	edx, edx
  0x153d	dec    	eax
  === BLOCK LINK ===
    0x153e
=== CODE BLOCK END ===

=== CODE BLOCK ADDRESS 0x153e ===
  0x153e	lea    	ecx, [0xffffeabc]
  0x1544	call   	0x1008
  === BLOCK LINK ===
    0x1549
=== CODE BLOCK END ===

=== CODE BLOCK ADDRESS 0x1549 ===
  0x1549	mov    	dword ptr [0x1ad1], eax
  0x154f	inc    	esp
  0x1550	cmp    	dword ptr [0x1aea], esi
  0x1556	jne    	0x1560
  === BLOCK LINK ===
    0x1558
=== CODE BLOCK END ===

=== CODE BLOCK ADDRESS 0x1558 ===
  0x1558	mov    	ecx, eax
  0x155a	call   	dword ptr [0xd08]
  === BLOCK LINK ===
    0x1560
=== CODE BLOCK END ===

=== CODE BLOCK ADDRESS 0x1560 ===
  0x1560	inc    	esp
  0x1561	cmp    	dword ptr [0x1abd], esi
  0x1567	jne    	0x1575
  === BLOCK LINK ===
    0x1569
=== CODE BLOCK END ===

=== CODE BLOCK ADDRESS 0x1569 ===
  0x1569	call   	dword ptr [0xce9]
  === BLOCK LINK ===
    0x156f
=== CODE BLOCK END ===

=== CODE BLOCK ADDRESS 0x156f ===
  0x156f	mov    	eax, dword ptr [0x1aab]
  0x1575	jmp    	0x15c6
  === BLOCK LINK ===
    0x1577
=== CODE BLOCK END ===

=== CODE BLOCK ADDRESS 0x1577 ===
  0x1577	cmp    	ax, 0x22
  0x157b	jne    	0x158b
  === BLOCK LINK ===
    0x157d
=== CODE BLOCK END ===

=== CODE BLOCK ADDRESS 0x157d ===
  0x157d	inc    	ecx
  0x157e	mov    	eax, esi
  0x1580	test   	edx, edx
  0x1582	sete   	al
  0x1585	mov    	edx, eax
  === BLOCK LINK ===
    0x1587
=== CODE BLOCK END ===

=== CODE BLOCK ADDRESS 0x1587 ===
  0x1587	mov    	dword ptr [esp + 0x20], eax
  0x158b	dec    	eax
  0x158c	add    	ecx, 2
  0x158f	dec    	eax
  0x1590	mov    	dword ptr [esp + 0x28], ecx
  === BLOCK LINK ===
    0x1594
=== CODE BLOCK END ===

=== CODE BLOCK ADDRESS 0x1594 ===
  0x1594	jmp    	0x14fa
  === BLOCK LINK ===
    0x1599
=== CODE BLOCK END ===

=== CODE BLOCK ADDRESS 0x1599 ===
  0x1599	mov    	dword ptr [0x1a81], eax
  0x159f	cmp    	dword ptr [0x1a9a], 0
  0x15a6	jne    	0x15b1
  === BLOCK LINK ===
    0x15a8
=== CODE BLOCK END ===

=== CODE BLOCK ADDRESS 0x15a8 ===
  0x15a8	mov    	ecx, eax
  0x15aa	call   	dword ptr [0xcb0]
  === BLOCK LINK ===
    0x15b0
=== CODE BLOCK END ===

=== CODE BLOCK ADDRESS 0x15b0 ===
  0x15b0	int3   	
  0x15b1	cmp    	dword ptr [0x1a6c], 0
  0x15b8	jne    	0x15c6
  === BLOCK LINK ===
    0x15ba
=== CODE BLOCK END ===

=== CODE BLOCK ADDRESS 0x15ba ===
  0x15ba	call   	dword ptr [0xc98]
  === BLOCK LINK ===
    0x15c0
=== CODE BLOCK END ===

=== CODE BLOCK ADDRESS 0x15c0 ===
  0x15c0	mov    	eax, dword ptr [0x1a5a]
  0x15c6	dec    	esp
  0x15c7	lea    	ebx, [esp + 0xb0]
  0x15ce	dec    	ecx
  0x15cf	mov    	ebx, dword ptr [ebx + 0x10]
  === BLOCK LINK ===
    0x15d2
=== CODE BLOCK END ===

=== CODE BLOCK ADDRESS 0x15d2 ===
  0x15d2	dec    	ecx
  0x15d3	mov    	esi, dword ptr [ebx + 0x18]
  0x15d6	dec    	ecx
  0x15d7	mov    	edi, dword ptr [ebx + 0x20]
  0x15da	dec    	ebp
  === BLOCK LINK ===
    0x15db
=== CODE BLOCK END ===

=== CODE BLOCK ADDRESS 0x15db ===
  0x15db	mov    	esi, dword ptr [ebx + 0x28]
  0x15de	dec    	ecx
  0x15df	mov    	esp, ebx
  0x15e1	inc    	ecx
  0x15e2	pop    	edi
  === BLOCK LINK ===
    0x15e3
=== CODE BLOCK END ===

=== CODE BLOCK ADDRESS 0x15e3 ===
  0x15e3	ret    	
  0x15e4	int3   	
  0x15e5	int3   	
  0x15e6	int3   	
  0x15e7	int3   	
  === BLOCK LINK ===
    0x15e8
=== CODE BLOCK END ===

=== CODE BLOCK ADDRESS 0x15e8 ===
  0x15e8	int3   	
  0x15e9	int3   	
  0x15ea	int3   	
  0x15eb	int3   	
  0x15ec	int3   	
  === BLOCK LINK ===
    0x15ed
=== CODE BLOCK END ===

=== CODE BLOCK ADDRESS 0x15ed ===
  0x15ed	int3   	
  0x15ee	int3   	
  0x15ef	int3   	
  0x15f0	dec    	eax
  0x15f1	sub    	esp, 0x28
  === BLOCK LINK ===
    0x15f4
=== CODE BLOCK END ===

=== CODE BLOCK ADDRESS 0x15f4 ===
  0x15f4	call   	0x1864
  === BLOCK LINK ===
    0x15f9
=== CODE BLOCK END ===

=== CODE BLOCK ADDRESS 0x15f9 ===
  0x15f9	dec    	eax
  0x15fa	add    	esp, 0x28
  0x15fd	jmp    	0x1380
  === BLOCK LINK ===
    0x1602
=== CODE BLOCK END ===

=== CODE BLOCK ADDRESS 0x1602 ===
  0x1602	int3   	
  0x1603	int3   	
  0x1604	int3   	
  0x1605	int3   	
  0x1606	int3   	
  === BLOCK LINK ===
    0x1607
=== CODE BLOCK END ===

=== CODE BLOCK ADDRESS 0x1607 ===
  0x1607	int3   	
  0x1608	int3   	
  0x1609	int3   	
  0x160a	int3   	
  0x160b	int3   	
  === BLOCK LINK ===
    0x160c
=== CODE BLOCK END ===

=== CODE BLOCK ADDRESS 0x160c ===
  0x160c	int3   	
  0x160d	int3   	
  0x160e	int3   	
  0x160f	int3   	
  0x1610	int3   	
  === BLOCK LINK ===
    0x1611
=== CODE BLOCK END ===

=== CODE BLOCK ADDRESS 0x1611 ===
  0x1611	int3   	
  0x1612	int3   	
  0x1613	int3   	
  0x1614	int3   	
  0x1615	int3   	
  === BLOCK LINK ===
    0x1616
=== CODE BLOCK END ===

=== CODE BLOCK ADDRESS 0x1616 ===
  0x1616	nop    	word ptr [eax + eax]
  === BLOCK LINK ===
    0x1620
=== CODE BLOCK END ===

=== CODE BLOCK ADDRESS 0x1629 ===
  0x1629	dec    	eax
  0x162a	rol    	ecx, 0x10
  0x162d	test   	cx, 0xffff
  0x1632	jne    	0x1635
  === BLOCK LINK ===
    0x1634
=== CODE BLOCK END ===

=== CODE BLOCK ADDRESS 0x1634 ===
  0x1634	ret    	
  0x1635	dec    	eax
  0x1636	ror    	ecx, 0x10
  0x1639	jmp    	0x19b0
  === BLOCK LINK ===
    0x163e
=== CODE BLOCK END ===

=== CODE BLOCK ADDRESS 0x163e ===
  0x163e	int3   	
  0x163f	int3   	
  0x1640	int3   	
  0x1641	int3   	
  0x1642	int3   	
  === BLOCK LINK ===
    0x1643
=== CODE BLOCK END ===

=== CODE BLOCK ADDRESS 0x1643 ===
  0x1643	int3   	
  0x1644	int3   	
  0x1645	int3   	
  0x1646	int3   	
  0x1647	int3   	
  === BLOCK LINK ===
    0x1648
=== CODE BLOCK END ===

=== CODE BLOCK ADDRESS 0x1648 ===
  0x1648	int3   	
  0x1649	int3   	
  0x164a	int3   	
  0x164b	int3   	
  0x164c	int3   	
  === BLOCK LINK ===
    0x164d
=== CODE BLOCK END ===

=== CODE BLOCK ADDRESS 0x164d ===
  0x164d	int3   	
  0x164e	int3   	
  0x164f	int3   	
  0x1650	dec    	eax
  0x1651	sub    	esp, 0x28
  === BLOCK LINK ===
    0x1654
=== CODE BLOCK END ===

=== CODE BLOCK ADDRESS 0x1654 ===
  0x1654	dec    	eax
  0x1655	mov    	eax, dword ptr [ecx]
  0x1657	cmp    	dword ptr [eax], 0xe06d7363
  0x165d	jne    	0x1682
  === BLOCK LINK ===
    0x165f
=== CODE BLOCK END ===

=== CODE BLOCK ADDRESS 0x165f ===
  0x165f	cmp    	dword ptr [eax + 0x18], 4
  0x1663	jne    	0x1682
  === BLOCK LINK ===
    0x1665
=== CODE BLOCK END ===

=== CODE BLOCK ADDRESS 0x1665 ===
  0x1665	mov    	ecx, dword ptr [eax + 0x20]
  0x1668	lea    	eax, [ecx - 0x19930520]
  0x166e	cmp    	eax, 2
  0x1671	jbe    	0x167b
  === BLOCK LINK ===
    0x1673
=== CODE BLOCK END ===

=== CODE BLOCK ADDRESS 0x1673 ===
  0x1673	cmp    	ecx, 0x1994000
  0x1679	jne    	0x1682
  === BLOCK LINK ===
    0x167b
=== CODE BLOCK END ===

=== CODE BLOCK ADDRESS 0x167b ===
  0x167b	call   	dword ptr [0xbb7]
  === BLOCK LINK ===
    0x1681
=== CODE BLOCK END ===

=== CODE BLOCK ADDRESS 0x1681 ===
  0x1681	int3   	
  0x1682	xor    	eax, eax
  0x1684	dec    	eax
  0x1685	add    	esp, 0x28
  0x1688	ret    	
  === BLOCK LINK ===
    0x1689
=== CODE BLOCK END ===

=== CODE BLOCK ADDRESS 0x1689 ===
  0x1689	int3   	
  0x168a	int3   	
  0x168b	int3   	
  0x168c	int3   	
  0x168d	int3   	
  === BLOCK LINK ===
    0x168e
=== CODE BLOCK END ===

=== CODE BLOCK ADDRESS 0x168e ===
  0x168e	int3   	
  0x168f	int3   	
  0x1690	dec    	eax
  0x1691	sub    	esp, 0x28
  0x1694	dec    	eax
  === BLOCK LINK ===
    0x1695
=== CODE BLOCK END ===

=== CODE BLOCK ADDRESS 0x1695 ===
  0x1695	lea    	ecx, [0xffffffb5]
  0x169b	call   	dword ptr [0xadf]
  === BLOCK LINK ===
    0x16a1
=== CODE BLOCK END ===

=== CODE BLOCK ADDRESS 0x16a1 ===
  0x16a1	xor    	eax, eax
  0x16a3	dec    	eax
  0x16a4	add    	esp, 0x28
  0x16a7	ret    	
  0x16a8	int3   	
  === BLOCK LINK ===
    0x16a9
=== CODE BLOCK END ===

=== CODE BLOCK ADDRESS 0x1188 ===
  0x1188	cmp    	word ptr [eax], di
  0x118b	je     	0x1197
  === BLOCK LINK ===
    0x118d
    0x1197
=== CODE BLOCK END ===

=== CODE BLOCK ADDRESS 0x16a9 ===
  0x16a9	int3   	
  0x16aa	int3   	
  0x16ab	int3   	
  0x16ac	int3   	
  0x16ad	int3   	
  === BLOCK LINK ===
    0x16ae
=== CODE BLOCK END ===

=== CODE BLOCK ADDRESS 0x16ae ===
  0x16ae	jmp    	dword ptr [0xb8c]
  === BLOCK LINK ===
    0x16b4
=== CODE BLOCK END ===

=== CODE BLOCK ADDRESS 0x16b4 ===
  0x16b4	int3   	
  0x16b5	int3   	
  0x16b6	int3   	
  0x16b7	int3   	
  0x16b8	int3   	
  === BLOCK LINK ===
    0x16b9
=== CODE BLOCK END ===

=== CODE BLOCK ADDRESS 0x16b9 ===
  0x16b9	int3   	
  0x16ba	int3   	
  0x16bb	int3   	
  0x16bc	dec    	eax
  0x16bd	sub    	esp, 0x18
  === BLOCK LINK ===
    0x16c0
=== CODE BLOCK END ===

=== CODE BLOCK ADDRESS 0x16c0 ===
  0x16c0	xor    	edx, edx
  0x16c2	dec    	eax
  0x16c3	lea    	eax, [ecx - 1]
  0x16c6	dec    	eax
  0x16c7	cmp    	eax, -3
  === BLOCK LINK ===
    0x16ca
=== CODE BLOCK END ===

=== CODE BLOCK ADDRESS 0x16ca ===
  0x16ca	ja     	0x1708
  === BLOCK LINK ===
    0x16cc
=== CODE BLOCK END ===

=== CODE BLOCK ADDRESS 0x16cc ===
  0x16cc	mov    	eax, 0x5a4d
  0x16d1	cmp    	word ptr [ecx], ax
  0x16d4	jne    	0x1700
  === BLOCK LINK ===
    0x16d6
=== CODE BLOCK END ===

=== CODE BLOCK ADDRESS 0x16d6 ===
  0x16d6	cmp    	dword ptr [ecx + 0x3c], edx
  0x16d9	jl     	0x1700
  === BLOCK LINK ===
    0x16db
=== CODE BLOCK END ===

=== CODE BLOCK ADDRESS 0x16db ===
  0x16db	cmp    	dword ptr [ecx + 0x3c], 0x10000000
  0x16e2	jae    	0x1700
  === BLOCK LINK ===
    0x16e4
=== CODE BLOCK END ===

=== CODE BLOCK ADDRESS 0x16e4 ===
  0x16e4	dec    	eax
  0x16e5	arpl   	word ptr [ecx + 0x3c], ax
  0x16e8	dec    	eax
  0x16e9	add    	eax, ecx
  0x16eb	dec    	eax
  === BLOCK LINK ===
    0x16ec
=== CODE BLOCK END ===

=== CODE BLOCK ADDRESS 0x16ec ===
  0x16ec	mov    	dword ptr [esp], eax
  0x16ef	cmp    	dword ptr [eax], 0x4550
  0x16f5	dec    	eax
  0x16f6	cmovne  	eax, edx
  0x16f9	dec    	eax
  === BLOCK LINK ===
    0x16fa
=== CODE BLOCK END ===

=== CODE BLOCK ADDRESS 0x16fa ===
  0x16fa	mov    	edx, eax
  0x16fc	dec    	eax
  0x16fd	mov    	dword ptr [esp], eax
  0x1700	jmp    	0x1708
  === BLOCK LINK ===
    0x1702
=== CODE BLOCK END ===

=== CODE BLOCK ADDRESS 0x1702 ===
  0x1702	xor    	edx, edx
  0x1704	dec    	eax
  0x1705	mov    	dword ptr [esp], edx
  0x1708	dec    	eax
  0x1709	mov    	eax, edx
  === BLOCK LINK ===
    0x170b
=== CODE BLOCK END ===

=== CODE BLOCK ADDRESS 0x170b ===
  0x170b	dec    	eax
  0x170c	add    	esp, 0x18
  0x170f	ret    	
  0x1710	int3   	
  0x1711	int3   	
  === BLOCK LINK ===
    0x1712
=== CODE BLOCK END ===

=== CODE BLOCK ADDRESS 0x1712 ===
  0x1712	int3   	
  0x1713	int3   	
  0x1714	int3   	
  0x1715	int3   	
  0x1716	int3   	
  === BLOCK LINK ===
    0x1717
=== CODE BLOCK END ===

=== CODE BLOCK ADDRESS 0x1717 ===
  0x1717	int3   	
  0x1718	inc    	eax
  0x1719	push   	ebx
  0x171a	dec    	eax
  0x171b	sub    	esp, 0x20
  === BLOCK LINK ===
    0x171e
=== CODE BLOCK END ===

=== CODE BLOCK ADDRESS 0x171e ===
  0x171e	mov    	ebx, ecx
  0x1720	xor    	ecx, ecx
  0x1722	call   	dword ptr [0xa18]
  === BLOCK LINK ===
    0x1728
=== CODE BLOCK END ===

=== CODE BLOCK ADDRESS 0x1728 ===
  0x1728	dec    	eax
  0x1729	test   	eax, eax
  0x172b	je     	0x1755
  === BLOCK LINK ===
    0x172d
=== CODE BLOCK END ===

=== CODE BLOCK ADDRESS 0x172d ===
  0x172d	dec    	eax
  0x172e	mov    	ecx, eax
  0x1730	call   	0x16bc
  === BLOCK LINK ===
    0x1735
=== CODE BLOCK END ===

=== CODE BLOCK ADDRESS 0x1735 ===
  0x1735	dec    	eax
  0x1736	test   	eax, eax
  0x1738	je     	0x1755
  === BLOCK LINK ===
    0x173a
=== CODE BLOCK END ===

=== CODE BLOCK ADDRESS 0x173a ===
  0x173a	mov    	ecx, 2
  0x173f	cmp    	word ptr [eax + 0x5c], cx
  0x1743	jne    	0x1749
  === BLOCK LINK ===
    0x1745
=== CODE BLOCK END ===

=== CODE BLOCK ADDRESS 0x1745 ===
  0x1745	mov    	eax, ecx
  0x1747	jmp    	0x1757
  === BLOCK LINK ===
    0x1749
=== CODE BLOCK END ===

=== CODE BLOCK ADDRESS 0x1749 ===
  0x1749	cmp    	word ptr [eax + 0x5c], 3
  0x174e	mov    	eax, 1
  0x1753	je     	0x1757
  === BLOCK LINK ===
    0x1755
=== CODE BLOCK END ===

=== CODE BLOCK ADDRESS 0x1755 ===
  0x1755	mov    	eax, ebx
  0x1757	dec    	eax
  0x1758	add    	esp, 0x20
  0x175b	pop    	ebx
  0x175c	ret    	
  === BLOCK LINK ===
    0x175d
=== CODE BLOCK END ===

=== CODE BLOCK ADDRESS 0x11a7 ===
  0x11a7	dec    	eax
  0x11a8	test   	ecx, ecx
  0x11aa	je     	0x11fc
  === BLOCK LINK ===
    0x11ac
=== CODE BLOCK END ===

=== CODE BLOCK ADDRESS 0x175d ===
  0x175d	int3   	
  0x175e	int3   	
  0x175f	int3   	
  0x1760	int3   	
  0x1761	int3   	
  === BLOCK LINK ===
    0x1762
=== CODE BLOCK END ===

=== CODE BLOCK ADDRESS 0x1762 ===
  0x1762	int3   	
  0x1763	jmp    	dword ptr [0xb17]
  === BLOCK LINK ===
    0x1769
=== CODE BLOCK END ===

=== CODE BLOCK ADDRESS 0x1769 ===
  0x1769	int3   	
  0x176a	int3   	
  0x176b	int3   	
  0x176c	int3   	
  0x176d	int3   	
  === BLOCK LINK ===
    0x176e
=== CODE BLOCK END ===

=== CODE BLOCK ADDRESS 0x176e ===
  0x176e	int3   	
  0x176f	int3   	
  0x1770	xor    	eax, eax
  0x1772	ret    	
  0x1773	int3   	
  === BLOCK LINK ===
    0x1774
=== CODE BLOCK END ===

=== CODE BLOCK ADDRESS 0x11fc ===
  0x11fc	dec    	esp
  0x11fd	lea    	eax, [ebp - 0x70]
  0x1200	jmp    	0x1205
  === BLOCK LINK ===
    0x1202
=== CODE BLOCK END ===

=== CODE BLOCK ADDRESS 0x1774 ===
  0x1774	int3   	
  0x1775	int3   	
  0x1776	int3   	
  0x1777	int3   	
  0x1778	int3   	
  === BLOCK LINK ===
    0x1779
=== CODE BLOCK END ===

=== CODE BLOCK ADDRESS 0x1779 ===
  0x1779	int3   	
  0x177a	int3   	
  0x177b	int3   	
  0x177c	int3   	
  0x177d	int3   	
  === BLOCK LINK ===
    0x177e
=== CODE BLOCK END ===

=== CODE BLOCK ADDRESS 0x177e ===
  0x177e	int3   	
  0x177f	int3   	
  0x1780	dec    	esp
  0x1781	arpl   	word ptr [ecx + 0x3c], ax
  0x1784	inc    	ebp
  === BLOCK LINK ===
    0x1785
=== CODE BLOCK END ===

=== CODE BLOCK ADDRESS 0x1785 ===
  0x1785	xor    	ecx, ecx
  0x1787	dec    	esp
  0x1788	add    	eax, ecx
  0x178a	dec    	esp
  0x178b	mov    	edx, edx
  === BLOCK LINK ===
    0x178d
=== CODE BLOCK END ===

=== CODE BLOCK ADDRESS 0x178d ===
  0x178d	inc    	ecx
  0x178e	movzx  	eax, word ptr [eax + 0x14]
  0x1792	inc    	ebp
  0x1793	movzx  	ebx, word ptr [eax + 6]
  0x1797	dec    	eax
  === BLOCK LINK ===
    0x1798
=== CODE BLOCK END ===

=== CODE BLOCK ADDRESS 0x1798 ===
  0x1798	add    	eax, 0x18
  0x179b	dec    	ecx
  0x179c	add    	eax, eax
  0x179e	inc    	ebp
  0x179f	test   	ebx, ebx
  === BLOCK LINK ===
    0x17a1
=== CODE BLOCK END ===

=== CODE BLOCK ADDRESS 0x17a1 ===
  0x17a1	je     	0x17c1
  === BLOCK LINK ===
    0x17a3
=== CODE BLOCK END ===

=== CODE BLOCK ADDRESS 0x17a3 ===
  0x17a3	mov    	edx, dword ptr [eax + 0xc]
  0x17a6	dec    	esp
  0x17a7	cmp    	edx, edx
  0x17a9	jb     	0x17b5
  === BLOCK LINK ===
    0x17ab
=== CODE BLOCK END ===

=== CODE BLOCK ADDRESS 0x17ab ===
  0x17ab	mov    	ecx, dword ptr [eax + 8]
  0x17ae	add    	ecx, edx
  0x17b0	dec    	esp
  0x17b1	cmp    	edx, ecx
  0x17b3	jb     	0x17c3
  === BLOCK LINK ===
    0x17b5
=== CODE BLOCK END ===

=== CODE BLOCK ADDRESS 0x17b5 ===
  0x17b5	inc    	ecx
  0x17b6	inc    	ecx
  0x17b8	dec    	eax
  0x17b9	add    	eax, 0x28
  0x17bc	inc    	ebp
  === BLOCK LINK ===
    0x17bd
=== CODE BLOCK END ===

=== CODE BLOCK ADDRESS 0x17bd ===
  0x17bd	cmp    	ecx, ebx
  0x17bf	jb     	0x17a3
  === BLOCK LINK ===
    0x17c1
=== CODE BLOCK END ===

=== CODE BLOCK ADDRESS 0x17c1 ===
  0x17c1	xor    	eax, eax
  0x17c3	ret    	
  0x17c4	int3   	
  0x17c5	int3   	
  0x17c6	int3   	
  === BLOCK LINK ===
    0x17c7
=== CODE BLOCK END ===

=== CODE BLOCK ADDRESS 0x17c7 ===
  0x17c7	int3   	
  0x17c8	int3   	
  0x17c9	int3   	
  0x17ca	int3   	
  0x17cb	int3   	
  === BLOCK LINK ===
    0x17cc
=== CODE BLOCK END ===

=== CODE BLOCK ADDRESS 0x17cc ===
  0x17cc	int3   	
  0x17cd	int3   	
  0x17ce	int3   	
  0x17cf	int3   	
  0x17d0	dec    	eax
  === BLOCK LINK ===
    0x17d1
=== CODE BLOCK END ===

=== CODE BLOCK ADDRESS 0x17d1 ===
  0x17d1	mov    	dword ptr [esp + 8], ebx
  0x17d5	push   	edi
  0x17d6	dec    	eax
  0x17d7	sub    	esp, 0x20
  0x17da	dec    	eax
  === BLOCK LINK ===
    0x17db
=== CODE BLOCK END ===

=== CODE BLOCK ADDRESS 0x17db ===
  0x17db	mov    	ebx, ecx
  0x17dd	dec    	eax
  0x17de	lea    	edi, [0xffffe81c]
  0x17e4	dec    	eax
  0x17e5	mov    	ecx, edi
  === BLOCK LINK ===
    0x17e7
=== CODE BLOCK END ===

=== CODE BLOCK ADDRESS 0x17e7 ===
  0x17e7	call   	0x1830
  === BLOCK LINK ===
    0x17ec
=== CODE BLOCK END ===

=== CODE BLOCK ADDRESS 0x17ec ===
  0x17ec	test   	eax, eax
  0x17ee	je     	0x1812
  === BLOCK LINK ===
    0x17f0
=== CODE BLOCK END ===

=== CODE BLOCK ADDRESS 0x17f0 ===
  0x17f0	dec    	eax
  0x17f1	sub    	ebx, edi
  0x17f3	dec    	eax
  0x17f4	mov    	edx, ebx
  0x17f6	dec    	eax
  === BLOCK LINK ===
    0x17f7
=== CODE BLOCK END ===

=== CODE BLOCK ADDRESS 0x17f7 ===
  0x17f7	mov    	ecx, edi
  0x17f9	call   	0x1780
  === BLOCK LINK ===
    0x17fe
=== CODE BLOCK END ===

=== CODE BLOCK ADDRESS 0x17fe ===
  0x17fe	dec    	eax
  0x17ff	test   	eax, eax
  0x1801	je     	0x1812
  === BLOCK LINK ===
    0x1803
=== CODE BLOCK END ===

=== CODE BLOCK ADDRESS 0x1803 ===
  0x1803	mov    	eax, dword ptr [eax + 0x24]
  0x1806	shr    	eax, 0x1f
  0x1809	not    	eax
  0x180b	and    	eax, 1
  0x180e	jmp    	0x1812
  === BLOCK LINK ===
    0x1810
=== CODE BLOCK END ===

=== CODE BLOCK ADDRESS 0x1810 ===
  0x1810	xor    	eax, eax
  0x1812	dec    	eax
  0x1813	mov    	ebx, dword ptr [esp + 0x30]
  0x1817	dec    	eax
  0x1818	add    	esp, 0x20
  === BLOCK LINK ===
    0x181b
=== CODE BLOCK END ===

=== CODE BLOCK ADDRESS 0x181b ===
  0x181b	pop    	edi
  0x181c	ret    	
  0x181d	int3   	
  0x181e	int3   	
  0x181f	int3   	
  === BLOCK LINK ===
    0x1820
=== CODE BLOCK END ===

=== CODE BLOCK ADDRESS 0x1820 ===
  0x1820	int3   	
  0x1821	int3   	
  0x1822	int3   	
  0x1823	int3   	
  0x1824	int3   	
  === BLOCK LINK ===
    0x1825
=== CODE BLOCK END ===

=== CODE BLOCK ADDRESS 0x1825 ===
  0x1825	int3   	
  0x1826	int3   	
  0x1827	int3   	
  0x1828	int3   	
  0x1829	int3   	
  === BLOCK LINK ===
    0x182a
=== CODE BLOCK END ===

=== CODE BLOCK ADDRESS 0x182a ===
  0x182a	int3   	
  0x182b	int3   	
  0x182c	int3   	
  0x182d	int3   	
  0x182e	int3   	
  === BLOCK LINK ===
    0x182f
=== CODE BLOCK END ===

=== CODE BLOCK ADDRESS 0x182f ===
  0x182f	int3   	
  0x1830	mov    	eax, 0x5a4d
  0x1835	cmp    	word ptr [ecx], ax
  0x1838	jne    	0x185a
  === BLOCK LINK ===
    0x183a
=== CODE BLOCK END ===

=== CODE BLOCK ADDRESS 0x183a ===
  0x183a	dec    	eax
  0x183b	arpl   	word ptr [ecx + 0x3c], ax
  0x183e	dec    	eax
  0x183f	add    	eax, ecx
  0x1841	cmp    	dword ptr [eax], 0x4550
  === BLOCK LINK ===
    0x1847
=== CODE BLOCK END ===

=== CODE BLOCK ADDRESS 0x1847 ===
  0x1847	jne    	0x185a
  === BLOCK LINK ===
    0x1849
=== CODE BLOCK END ===

=== CODE BLOCK ADDRESS 0x1849 ===
  0x1849	mov    	ecx, 0x20b
  0x184e	cmp    	word ptr [eax + 0x18], cx
  0x1852	jne    	0x185a
  === BLOCK LINK ===
    0x1854
=== CODE BLOCK END ===

=== CODE BLOCK ADDRESS 0x1854 ===
  0x1854	mov    	eax, 1
  0x1859	ret    	
  0x185a	xor    	eax, eax
  0x185c	ret    	
  0x185d	int3   	
  === BLOCK LINK ===
    0x185e
=== CODE BLOCK END ===

=== CODE BLOCK ADDRESS 0x11cd ===
  0x11cd	dec    	eax
  0x11ce	test   	edx, edx
  === BLOCK LINK ===
    0x11d0
=== CODE BLOCK END ===

=== CODE BLOCK ADDRESS 0x185e ===
  0x185e	int3   	
  0x185f	int3   	
  0x1860	int3   	
  0x1861	int3   	
  0x1862	int3   	
  === BLOCK LINK ===
    0x1863
=== CODE BLOCK END ===

=== CODE BLOCK ADDRESS 0x1863 ===
  0x1863	int3   	
  0x1864	dec    	eax
  0x1865	mov    	dword ptr [esp + 0x20], ebx
  0x1869	push   	ebp
  0x186a	dec    	eax
  === BLOCK LINK ===
    0x186b
=== CODE BLOCK END ===

=== CODE BLOCK ADDRESS 0x186b ===
  0x186b	mov    	ebp, esp
  0x186d	dec    	eax
  0x186e	sub    	esp, 0x20
  0x1871	dec    	eax
  0x1872	and    	dword ptr [ebp + 0x18], 0
  === BLOCK LINK ===
    0x1876
=== CODE BLOCK END ===

=== CODE BLOCK ADDRESS 0x1876 ===
  0x1876	dec    	eax
  0x1877	mov    	ebx, 0x2ddfa232
  0x187c	cdq    	
  0x187d	sub    	eax, dword ptr [eax]
  0x187f	add    	byte ptr [eax - 0x75], cl
  === BLOCK LINK ===
    0x1882
=== CODE BLOCK END ===

=== CODE BLOCK ADDRESS 0x1882 ===
  0x1882	add    	eax, 0x1781
  0x1887	dec    	eax
  0x1888	cmp    	eax, ebx
  0x188a	jne    	0x1923
  === BLOCK LINK ===
    0x1890
=== CODE BLOCK END ===

=== CODE BLOCK ADDRESS 0x1890 ===
  0x1890	dec    	eax
  0x1891	lea    	ecx, [ebp + 0x18]
  0x1894	call   	dword ptr [0x976]
  === BLOCK LINK ===
    0x189a
=== CODE BLOCK END ===

=== CODE BLOCK ADDRESS 0x189a ===
  0x189a	dec    	eax
  0x189b	mov    	eax, dword ptr [ebp + 0x18]
  0x189e	dec    	eax
  0x189f	mov    	dword ptr [ebp + 0x10], eax
  0x18a2	call   	dword ptr [0x900]
  === BLOCK LINK ===
    0x18a8
=== CODE BLOCK END ===

=== CODE BLOCK ADDRESS 0x18a8 ===
  0x18a8	mov    	eax, eax
  0x18aa	dec    	eax
  0x18ab	xor    	dword ptr [ebp + 0x10], eax
  0x18ae	call   	dword ptr [0x904]
  === BLOCK LINK ===
    0x18b4
=== CODE BLOCK END ===

=== CODE BLOCK ADDRESS 0x18b4 ===
  0x18b4	mov    	eax, eax
  0x18b6	dec    	eax
  0x18b7	xor    	dword ptr [ebp + 0x10], eax
  0x18ba	call   	dword ptr [0x948]
  === BLOCK LINK ===
    0x18c0
=== CODE BLOCK END ===

=== CODE BLOCK ADDRESS 0x18c0 ===
  0x18c0	mov    	eax, eax
  0x18c2	dec    	eax
  0x18c3	shl    	eax, 0x18
  0x18c6	dec    	eax
  0x18c7	xor    	dword ptr [ebp + 0x10], eax
  === BLOCK LINK ===
    0x18ca
=== CODE BLOCK END ===

=== CODE BLOCK ADDRESS 0x18ca ===
  0x18ca	call   	dword ptr [0x938]
  === BLOCK LINK ===
    0x18d0
=== CODE BLOCK END ===

=== CODE BLOCK ADDRESS 0x18d0 ===
  0x18d0	mov    	eax, eax
  0x18d2	dec    	eax
  0x18d3	lea    	ecx, [ebp + 0x10]
  0x18d6	dec    	eax
  0x18d7	xor    	eax, dword ptr [ebp + 0x10]
  === BLOCK LINK ===
    0x18da
=== CODE BLOCK END ===

=== CODE BLOCK ADDRESS 0x18da ===
  0x18da	dec    	eax
  0x18db	xor    	eax, ecx
  0x18dd	dec    	eax
  0x18de	lea    	ecx, [ebp + 0x20]
  0x18e1	dec    	eax
  === BLOCK LINK ===
    0x18e2
=== CODE BLOCK END ===

=== CODE BLOCK ADDRESS 0x18e2 ===
  0x18e2	mov    	dword ptr [ebp + 0x10], eax
  0x18e5	call   	dword ptr [0x8dd]
  === BLOCK LINK ===
    0x18eb
=== CODE BLOCK END ===

=== CODE BLOCK ADDRESS 0x18eb ===
  0x18eb	mov    	eax, dword ptr [ebp + 0x20]
  0x18ee	dec    	eax
  0x18ef	mov    	ecx, 0xffffffff
  0x18f4	.byte  	0xff
  0x18f5	inc    	dword ptr [eax]
  === BLOCK LINK ===
    0x18f7
=== CODE BLOCK END ===

=== CODE BLOCK ADDRESS 0x18f7 ===
  0x18f7	add    	byte ptr [eax - 0x3f], cl
  0x18fa	loopne  	0x191c
  === BLOCK LINK ===
    0x18fc
=== CODE BLOCK END ===

=== CODE BLOCK ADDRESS 0x18fc ===
  0x18fc	dec    	eax
  0x18fd	xor    	eax, dword ptr [ebp + 0x20]
  0x1900	dec    	eax
  0x1901	xor    	eax, dword ptr [ebp + 0x10]
  0x1904	dec    	eax
  === BLOCK LINK ===
    0x1905
=== CODE BLOCK END ===

=== CODE BLOCK ADDRESS 0x1905 ===
  0x1905	and    	eax, ecx
  0x1907	dec    	eax
  0x1908	mov    	ecx, eax
  0x190a	dec    	eax
  0x190b	cmp    	eax, ebx
  === BLOCK LINK ===
    0x190d
=== CODE BLOCK END ===

=== CODE BLOCK ADDRESS 0x190d ===
  0x190d	jne    	0x191c
  === BLOCK LINK ===
    0x190f
=== CODE BLOCK END ===

=== CODE BLOCK ADDRESS 0x190f ===
  0x190f	dec    	eax
  0x1910	mov    	eax, 0x2ddfa233
  0x1915	cdq    	
  0x1916	sub    	eax, dword ptr [eax]
  0x1918	add    	byte ptr [eax - 0x75], cl
  === BLOCK LINK ===
    0x191b
=== CODE BLOCK END ===

=== CODE BLOCK ADDRESS 0x191b ===
  0x191b	enter  	-0x76b8, 0xd
  0x191f	in     	eax, 0x16
  0x1921	add    	byte ptr [eax], al
  0x1923	dec    	eax
  0x1924	mov    	ebx, dword ptr [esp + 0x48]
  === BLOCK LINK ===
    0x1928
=== CODE BLOCK END ===

=== CODE BLOCK ADDRESS 0x1928 ===
  0x1928	dec    	eax
  0x1929	not    	eax
  0x192b	dec    	eax
  0x192c	mov    	dword ptr [0x16de], eax
  0x1932	dec    	eax
  === BLOCK LINK ===
    0x1933
=== CODE BLOCK END ===

=== CODE BLOCK ADDRESS 0x1933 ===
  0x1933	add    	esp, 0x20
  0x1936	pop    	ebp
  0x1937	ret    	
  0x1938	int3   	
  0x1939	int3   	
  === BLOCK LINK ===
    0x193a
=== CODE BLOCK END ===

=== CODE BLOCK ADDRESS 0x1205 ===
  0x1205	inc    	ebp
  0x1206	xor    	ecx, ecx
  0x1208	dec    	eax
  === BLOCK LINK ===
    0x1209
=== CODE BLOCK END ===

=== CODE BLOCK ADDRESS 0x193a ===
  0x193a	int3   	
  0x193b	int3   	
  0x193c	int3   	
  0x193d	int3   	
  0x193e	jmp    	dword ptr [0x904]
  === BLOCK LINK ===
    0x1944
=== CODE BLOCK END ===

=== CODE BLOCK ADDRESS 0x1944 ===
  0x1944	int3   	
  0x1945	int3   	
  0x1946	int3   	
  0x1947	int3   	
  0x1948	int3   	
  === BLOCK LINK ===
    0x1949
=== CODE BLOCK END ===

=== CODE BLOCK ADDRESS 0x1949 ===
  0x1949	int3   	
  0x194a	jmp    	dword ptr [0x938]
  === BLOCK LINK ===
    0x1950
=== CODE BLOCK END ===

=== CODE BLOCK ADDRESS 0x1950 ===
  0x1950	int3   	
  0x1951	int3   	
  0x1952	int3   	
  0x1953	int3   	
  0x1954	int3   	
  === BLOCK LINK ===
    0x1955
=== CODE BLOCK END ===

=== CODE BLOCK ADDRESS 0x1955 ===
  0x1955	int3   	
  0x1956	int3   	
  0x1957	int3   	
  0x1958	int3   	
  0x1959	int3   	
  === BLOCK LINK ===
    0x195a
=== CODE BLOCK END ===

=== CODE BLOCK ADDRESS 0x195a ===
  0x195a	int3   	
  0x195b	int3   	
  0x195c	int3   	
  0x195d	int3   	
  0x195e	int3   	
  === BLOCK LINK ===
    0x195f
=== CODE BLOCK END ===

=== CODE BLOCK ADDRESS 0x195f ===
  0x195f	int3   	
  0x1960	ret    	0
  0x1963	int3   	
  0x1964	int3   	
  0x1965	int3   	
  === BLOCK LINK ===
    0x1966
=== CODE BLOCK END ===

=== CODE BLOCK ADDRESS 0x1620 ===
  0x1620	dec    	eax
  0x1621	cmp    	ecx, dword ptr [0x19e1]
  0x1627	jne    	0x1639
  === BLOCK LINK ===
    0x1629
=== CODE BLOCK END ===

=== CODE BLOCK ADDRESS 0x1966 ===
  0x1966	int3   	
  0x1967	int3   	
  0x1968	int3   	
  0x1969	int3   	
  0x196a	int3   	
  === BLOCK LINK ===
    0x196b
=== CODE BLOCK END ===

=== CODE BLOCK ADDRESS 0x196b ===
  0x196b	int3   	
  0x196c	inc    	eax
  0x196d	push   	ebx
  0x196e	dec    	eax
  0x196f	sub    	esp, 0x20
  === BLOCK LINK ===
    0x1972
=== CODE BLOCK END ===

=== CODE BLOCK ADDRESS 0x1972 ===
  0x1972	dec    	eax
  0x1973	mov    	ebx, ecx
  0x1975	xor    	ecx, ecx
  0x1977	call   	dword ptr [0x803]
  === BLOCK LINK ===
    0x197d
=== CODE BLOCK END ===

=== CODE BLOCK ADDRESS 0x197d ===
  0x197d	dec    	eax
  0x197e	mov    	ecx, ebx
  0x1980	call   	dword ptr [0x802]
  === BLOCK LINK ===
    0x1986
=== CODE BLOCK END ===

=== CODE BLOCK ADDRESS 0x1986 ===
  0x1986	call   	dword ptr [0x80c]
  === BLOCK LINK ===
    0x198c
=== CODE BLOCK END ===

=== CODE BLOCK ADDRESS 0x198c ===
  0x198c	dec    	eax
  0x198d	mov    	ecx, eax
  0x198f	mov    	edx, 0xc0000409
  0x1994	dec    	eax
  0x1995	add    	esp, 0x20
  === BLOCK LINK ===
    0x1998
=== CODE BLOCK END ===

=== CODE BLOCK ADDRESS 0x1998 ===
  0x1998	pop    	ebx
  0x1999	dec    	eax
  0x199a	jmp    	dword ptr [0x800]
  === BLOCK LINK ===
    0x19a0
=== CODE BLOCK END ===

=== CODE BLOCK ADDRESS 0x19a0 ===
  0x19a0	int3   	
  0x19a1	int3   	
  0x19a2	int3   	
  0x19a3	int3   	
  0x19a4	int3   	
  === BLOCK LINK ===
    0x19a5
=== CODE BLOCK END ===

=== CODE BLOCK ADDRESS 0x19a5 ===
  0x19a5	int3   	
  0x19a6	int3   	
  0x19a7	int3   	
  0x19a8	int3   	
  0x19a9	int3   	
  === BLOCK LINK ===
    0x19aa
=== CODE BLOCK END ===

=== CODE BLOCK ADDRESS 0x19aa ===
  0x19aa	int3   	
  0x19ab	int3   	
  0x19ac	int3   	
  0x19ad	int3   	
  0x19ae	int3   	
  === BLOCK LINK ===
    0x19af
=== CODE BLOCK END ===

=== CODE BLOCK ADDRESS 0x19af ===
  0x19af	int3   	
  0x19b0	dec    	eax
  0x19b1	mov    	dword ptr [esp + 8], ecx
  0x19b5	dec    	eax
  0x19b6	sub    	esp, 0x88
  === BLOCK LINK ===
    0x19bc
=== CODE BLOCK END ===

=== CODE BLOCK ADDRESS 0x19bc ===
  0x19bc	dec    	eax
  0x19bd	lea    	ecx, [0x173d]
  0x19c3	call   	dword ptr [0x81f]
  === BLOCK LINK ===
    0x19c9
=== CODE BLOCK END ===

=== CODE BLOCK ADDRESS 0x19c9 ===
  0x19c9	dec    	eax
  0x19ca	mov    	eax, dword ptr [0x1828]
  0x19d0	dec    	eax
  0x19d1	mov    	dword ptr [esp + 0x48], eax
  0x19d5	inc    	ebp
  === BLOCK LINK ===
    0x19d6
=== CODE BLOCK END ===

=== CODE BLOCK ADDRESS 0x19d6 ===
  0x19d6	xor    	eax, eax
  0x19d8	dec    	eax
  0x19d9	lea    	edx, [esp + 0x50]
  0x19dd	dec    	eax
  0x19de	mov    	ecx, dword ptr [esp + 0x48]
  === BLOCK LINK ===
    0x19e2
=== CODE BLOCK END ===

=== CODE BLOCK ADDRESS 0x19e2 ===
  0x19e2	call   	dword ptr [0x7f0]
  === BLOCK LINK ===
    0x19e8
=== CODE BLOCK END ===

=== CODE BLOCK ADDRESS 0x19e8 ===
  0x19e8	dec    	eax
  0x19e9	mov    	dword ptr [esp + 0x40], eax
  0x19ed	dec    	eax
  0x19ee	cmp    	dword ptr [esp + 0x40], 0
  0x19f3	je     	0x1a37
  === BLOCK LINK ===
    0x19f5
=== CODE BLOCK END ===

=== CODE BLOCK ADDRESS 0x19f5 ===
  0x19f5	dec    	eax
  0x19f6	mov    	dword ptr [esp + 0x38], 0
  0x19fe	dec    	eax
  0x19ff	lea    	eax, [esp + 0x58]
  0x1a03	dec    	eax
  === BLOCK LINK ===
    0x1a04
=== CODE BLOCK END ===

=== CODE BLOCK ADDRESS 0x1a04 ===
  0x1a04	mov    	dword ptr [esp + 0x30], eax
  0x1a08	dec    	eax
  0x1a09	lea    	eax, [esp + 0x60]
  0x1a0d	dec    	eax
  0x1a0e	mov    	dword ptr [esp + 0x28], eax
  === BLOCK LINK ===
    0x1a12
=== CODE BLOCK END ===

=== CODE BLOCK ADDRESS 0x1a12 ===
  0x1a12	dec    	eax
  0x1a13	lea    	eax, [0x16e7]
  0x1a19	dec    	eax
  0x1a1a	mov    	dword ptr [esp + 0x20], eax
  0x1a1e	dec    	esp
  === BLOCK LINK ===
    0x1a1f
=== CODE BLOCK END ===

=== CODE BLOCK ADDRESS 0x1a1f ===
  0x1a1f	mov    	ecx, dword ptr [esp + 0x40]
  0x1a23	dec    	esp
  0x1a24	mov    	eax, dword ptr [esp + 0x48]
  0x1a28	dec    	eax
  0x1a29	mov    	edx, dword ptr [esp + 0x50]
  === BLOCK LINK ===
    0x1a2d
=== CODE BLOCK END ===

=== CODE BLOCK ADDRESS 0x1a2d ===
  0x1a2d	xor    	ecx, ecx
  0x1a2f	call   	dword ptr [0x7ab]
  === BLOCK LINK ===
    0x1a35
=== CODE BLOCK END ===

=== CODE BLOCK ADDRESS 0x1a35 ===
  0x1a35	jmp    	0x1a5a
  === BLOCK LINK ===
    0x1a37
=== CODE BLOCK END ===

=== CODE BLOCK ADDRESS 0x1a37 ===
  0x1a37	dec    	eax
  0x1a38	mov    	eax, dword ptr [0x175a]
  0x1a3e	dec    	eax
  0x1a3f	mov    	eax, dword ptr [eax]
  0x1a41	dec    	eax
  === BLOCK LINK ===
    0x1a42
=== CODE BLOCK END ===

=== CODE BLOCK ADDRESS 0x1a42 ===
  0x1a42	mov    	dword ptr [0x17b0], eax
  0x1a48	dec    	eax
  0x1a49	mov    	eax, dword ptr [0x1749]
  0x1a4f	dec    	eax
  0x1a50	add    	eax, 8
  === BLOCK LINK ===
    0x1a53
=== CODE BLOCK END ===

=== CODE BLOCK ADDRESS 0x1a53 ===
  0x1a53	dec    	eax
  0x1a54	mov    	dword ptr [0x173e], eax
  0x1a5a	dec    	eax
  0x1a5b	mov    	eax, dword ptr [0x1797]
  0x1a61	dec    	eax
  === BLOCK LINK ===
    0x1a62
=== CODE BLOCK END ===

=== CODE BLOCK ADDRESS 0x1a62 ===
  0x1a62	mov    	dword ptr [0x1608], eax
  0x1a68	dec    	eax
  0x1a69	mov    	eax, dword ptr [esp + 0x90]
  0x1a70	dec    	eax
  0x1a71	mov    	dword ptr [0x1709], eax
  === BLOCK LINK ===
    0x1a77
=== CODE BLOCK END ===

=== CODE BLOCK ADDRESS 0x1a77 ===
  0x1a77	mov    	dword ptr [0x15df], 0xc0000409
  0x1a81	mov    	dword ptr [0x15d9], 1
  0x1a8b	mov    	dword ptr [0x15e3], 3
  0x1a95	mov    	eax, 8
  0x1a9a	dec    	eax
  === BLOCK LINK ===
    0x1a9b
=== CODE BLOCK END ===

=== CODE BLOCK ADDRESS 0x1a9b ===
  0x1a9b	imul   	eax, eax, 0
  0x1a9e	dec    	eax
  0x1a9f	lea    	ecx, [0x15db]
  0x1aa5	dec    	eax
  0x1aa6	mov    	dword ptr [ecx + eax], 2
  === BLOCK LINK ===
    0x1aad
=== CODE BLOCK END ===

=== CODE BLOCK ADDRESS 0x1aad ===
  0x1aad	mov    	eax, 8
  0x1ab2	dec    	eax
  0x1ab3	imul   	eax, eax, 1
  0x1ab6	dec    	eax
  0x1ab7	lea    	ecx, [0x15c3]
  === BLOCK LINK ===
    0x1abd
=== CODE BLOCK END ===

=== CODE BLOCK ADDRESS 0x1abd ===
  0x1abd	dec    	eax
  0x1abe	mov    	edx, dword ptr [0x1544]
  0x1ac4	dec    	eax
  0x1ac5	mov    	dword ptr [ecx + eax], edx
  0x1ac8	mov    	eax, 8
  === BLOCK LINK ===
    0x1acd
=== CODE BLOCK END ===

=== CODE BLOCK ADDRESS 0x1acd ===
  0x1acd	dec    	eax
  0x1ace	imul   	eax, eax, 2
  0x1ad1	dec    	eax
  0x1ad2	lea    	ecx, [0x15a8]
  0x1ad8	dec    	eax
  === BLOCK LINK ===
    0x1ad9
=== CODE BLOCK END ===

=== CODE BLOCK ADDRESS 0x1ad9 ===
  0x1ad9	mov    	edx, dword ptr [0x1531]
  0x1adf	dec    	eax
  0x1ae0	mov    	dword ptr [ecx + eax], edx
  0x1ae3	mov    	eax, 8
  0x1ae8	dec    	eax
  === BLOCK LINK ===
    0x1ae9
=== CODE BLOCK END ===

=== CODE BLOCK ADDRESS 0x1ae9 ===
  0x1ae9	imul   	eax, eax, 0
  0x1aec	dec    	eax
  0x1aed	mov    	ecx, dword ptr [0x1515]
  0x1af3	dec    	eax
  0x1af4	mov    	dword ptr [esp + eax + 0x68], ecx
  === BLOCK LINK ===
    0x1af8
=== CODE BLOCK END ===

=== CODE BLOCK ADDRESS 0x1af8 ===
  0x1af8	mov    	eax, 8
  0x1afd	dec    	eax
  0x1afe	imul   	eax, eax, 1
  0x1b01	dec    	eax
  0x1b02	mov    	ecx, dword ptr [0x1508]
  === BLOCK LINK ===
    0x1b08
=== CODE BLOCK END ===

=== CODE BLOCK ADDRESS 0x1b08 ===
  0x1b08	dec    	eax
  0x1b09	mov    	dword ptr [esp + eax + 0x68], ecx
  0x1b0d	dec    	eax
  0x1b0e	lea    	ecx, [0x4ec]
  0x1b14	call   	0x196c
  === BLOCK LINK ===
    0x1b19
=== CODE BLOCK END ===

=== CODE BLOCK ADDRESS 0x1b19 ===
  0x1b19	dec    	eax
  0x1b1a	add    	esp, 0x88
  0x1b20	ret    	
  0x1b21	int3   	
  0x1b22	int3   	
  === BLOCK LINK ===
    0x1b23
=== CODE BLOCK END ===

=== CODE BLOCK ADDRESS 0x1b23 ===
  0x1b23	int3   	
  0x1b24	int3   	
  0x1b25	int3   	
  0x1b26	int3   	
  0x1b27	int3   	
  === BLOCK LINK ===
    0x1b28
=== CODE BLOCK END ===

=== CODE BLOCK ADDRESS 0x1b28 ===
  0x1b28	int3   	
  0x1b29	int3   	
  0x1b2a	int3   	
  0x1b2b	int3   	
  0x1b2c	int3   	
  === BLOCK LINK ===
    0x1b2d
=== CODE BLOCK END ===

=== CODE BLOCK ADDRESS 0x1b2d ===
  0x1b2d	int3   	
  0x1b2e	int3   	
  0x1b2f	int3   	
  0x1b30	int3   	
  0x1b31	int3   	
  === BLOCK LINK ===
    0x1b32
=== CODE BLOCK END ===

=== CODE BLOCK ADDRESS 0x1b32 ===
  0x1b32	int3   	
  0x1b33	int3   	
  0x1b34	int3   	
  0x1b35	int3   	
  0x1b36	int3   	
  === BLOCK LINK ===
    0x1b37
=== CODE BLOCK END ===

=== CODE BLOCK ADDRESS 0x1b37 ===
  0x1b37	int3   	
  0x1b38	dec    	eax
  0x1b39	sub    	esp, 0x28
  0x1b3c	dec    	ebp
  0x1b3d	mov    	eax, dword ptr [ecx + 0x38]
  === BLOCK LINK ===
    0x1b40
=== CODE BLOCK END ===

=== CODE BLOCK ADDRESS 0x1b40 ===
  0x1b40	dec    	eax
  0x1b41	mov    	ecx, edx
  0x1b43	dec    	ecx
  0x1b44	mov    	edx, ecx
  0x1b46	call   	0x1b5c
  === BLOCK LINK ===
    0x1b4b
=== CODE BLOCK END ===

=== CODE BLOCK ADDRESS 0x1b4b ===
  0x1b4b	mov    	eax, 1
  0x1b50	dec    	eax
  0x1b51	add    	esp, 0x28
  0x1b54	ret    	
  0x1b55	int3   	
  === BLOCK LINK ===
    0x1b56
=== CODE BLOCK END ===

=== CODE BLOCK ADDRESS 0x12b9 ===
  0x12b9	mov    	ecx, 2
  0x12be	mov    	dword ptr [0x1d7c], eax
  0x12c4	call   	0x1718
  === BLOCK LINK ===
    0x12c9
=== CODE BLOCK END ===

=== CODE BLOCK ADDRESS 0x1b56 ===
  0x1b56	int3   	
  0x1b57	int3   	
  0x1b58	int3   	
  0x1b59	int3   	
  0x1b5a	int3   	
  === BLOCK LINK ===
    0x1b5b
=== CODE BLOCK END ===

=== CODE BLOCK ADDRESS 0x1b5b ===
  0x1b5b	int3   	
  0x1b5c	inc    	eax
  0x1b5d	push   	ebx
  0x1b5e	inc    	ebp
  0x1b5f	mov    	ebx, dword ptr [eax]
  === BLOCK LINK ===
    0x1b61
=== CODE BLOCK END ===

=== CODE BLOCK ADDRESS 0x1b61 ===
  0x1b61	dec    	eax
  0x1b62	mov    	ebx, edx
  0x1b64	inc    	ecx
  0x1b65	and    	ebx, 0xfffffff8
  0x1b68	dec    	esp
  === BLOCK LINK ===
    0x1b69
=== CODE BLOCK END ===

=== CODE BLOCK ADDRESS 0x1b69 ===
  0x1b69	mov    	ecx, ecx
  0x1b6b	inc    	ecx
  0x1b6c	test   	byte ptr [eax], 4
  0x1b6f	dec    	esp
  0x1b70	mov    	edx, ecx
  === BLOCK LINK ===
    0x1b72
=== CODE BLOCK END ===

=== CODE BLOCK ADDRESS 0x1b72 ===
  0x1b72	je     	0x1b87
  === BLOCK LINK ===
    0x1b74
=== CODE BLOCK END ===

=== CODE BLOCK ADDRESS 0x1b74 ===
  0x1b74	inc    	ecx
  0x1b75	mov    	eax, dword ptr [eax + 8]
  0x1b78	dec    	ebp
  0x1b79	arpl   	word ptr [eax + 4], dx
  0x1b7c	neg    	eax
  === BLOCK LINK ===
    0x1b7e
=== CODE BLOCK END ===

=== CODE BLOCK ADDRESS 0x1b7e ===
  0x1b7e	dec    	esp
  0x1b7f	add    	edx, ecx
  0x1b81	dec    	eax
  0x1b82	arpl   	ax, cx
  0x1b84	dec    	esp
  === BLOCK LINK ===
    0x1b85
=== CODE BLOCK END ===

=== CODE BLOCK ADDRESS 0x1b85 ===
  0x1b85	and    	edx, ecx
  0x1b87	dec    	ecx
  0x1b88	arpl   	bx, ax
  0x1b8a	dec    	edx
  0x1b8b	mov    	edx, dword ptr [eax + edx]
  === BLOCK LINK ===
    0x1b8e
=== CODE BLOCK END ===

=== CODE BLOCK ADDRESS 0x1b8e ===
  0x1b8e	dec    	eax
  0x1b8f	mov    	eax, dword ptr [ebx + 0x10]
  0x1b92	mov    	ecx, dword ptr [eax + 8]
  0x1b95	dec    	eax
  0x1b96	mov    	eax, dword ptr [ebx + 8]
  === BLOCK LINK ===
    0x1b99
=== CODE BLOCK END ===

=== CODE BLOCK ADDRESS 0x1b99 ===
  0x1b99	test   	byte ptr [ecx + eax + 3], 0xf
  0x1b9e	je     	0x1bab
  === BLOCK LINK ===
    0x1ba0
=== CODE BLOCK END ===

=== CODE BLOCK ADDRESS 0x1ba0 ===
  0x1ba0	movzx  	eax, byte ptr [ecx + eax + 3]
  0x1ba5	and    	eax, 0xfffffff0
  0x1ba8	dec    	esp
  0x1ba9	add    	ecx, eax
  0x1bab	dec    	esp
  === BLOCK LINK ===
    0x1bac
=== CODE BLOCK END ===

=== CODE BLOCK ADDRESS 0x1bac ===
  0x1bac	xor    	ecx, edx
  0x1bae	dec    	ecx
  0x1baf	mov    	ecx, ecx
  0x1bb1	pop    	ebx
  0x1bb2	jmp    	0x1620
  === BLOCK LINK ===
    0x1bb7
=== CODE BLOCK END ===

=== CODE BLOCK ADDRESS 0x1bb7 ===
  0x1bb7	int3   	
  0x1bb8	int3   	
  0x1bb9	int3   	
  0x1bba	int3   	
  0x1bbb	int3   	
  === BLOCK LINK ===
    0x1bbc
=== CODE BLOCK END ===

=== CODE BLOCK ADDRESS 0x1bbc ===
  0x1bbc	int3   	
  0x1bbd	int3   	
  0x1bbe	int3   	
  0x1bbf	int3   	
  0x1bc0	int3   	
  === BLOCK LINK ===
    0x1bc1
=== CODE BLOCK END ===

=== CODE BLOCK ADDRESS 0x1bc1 ===
  0x1bc1	int3   	
  0x1bc2	int3   	
  0x1bc3	int3   	
  0x1bc4	int3   	
  0x1bc5	int3   	
  === BLOCK LINK ===
    0x1bc6
=== CODE BLOCK END ===

=== CODE BLOCK ADDRESS 0x1bc6 ===
  0x1bc6	nop    	word ptr [eax + eax]
  0x1bd0	jmp    	eax
  === BLOCK LINK ===
    0x1bd2
=== CODE BLOCK END ===

=== CODE BLOCK ADDRESS 0x1bd2 ===
  0x1bd2	int3   	
  0x1bd3	int3   	
  0x1bd4	int3   	
  0x1bd5	int3   	
  0x1bd6	int3   	
  === BLOCK LINK ===
    0x1bd7
=== CODE BLOCK END ===

=== CODE BLOCK ADDRESS 0x1bd7 ===
  0x1bd7	int3   	
  0x1bd8	int3   	
  0x1bd9	int3   	
  0x1bda	int3   	
  0x1bdb	int3   	
  === BLOCK LINK ===
    0x1bdc
=== CODE BLOCK END ===

=== CODE BLOCK ADDRESS 0x1bdc ===
  0x1bdc	int3   	
  0x1bdd	int3   	
  0x1bde	int3   	
  0x1bdf	int3   	
  0x1be0	inc    	eax
  === BLOCK LINK ===
    0x1be1
=== CODE BLOCK END ===

=== CODE BLOCK ADDRESS 0x1be1 ===
  0x1be1	push   	ebp
  0x1be2	dec    	eax
  0x1be3	sub    	esp, 0x20
  0x1be6	dec    	eax
  0x1be7	mov    	ebp, edx
  === BLOCK LINK ===
    0x1be9
=== CODE BLOCK END ===

=== CODE BLOCK ADDRESS 0x1be9 ===
  0x1be9	dec    	eax
  0x1bea	mov    	eax, dword ptr [ecx]
  0x1bec	dec    	eax
  0x1bed	mov    	edx, ecx
  0x1bef	mov    	ecx, dword ptr [eax]
  === BLOCK LINK ===
    0x1bf1
=== CODE BLOCK END ===

=== CODE BLOCK ADDRESS 0x1bf1 ===
  0x1bf1	call   	0x16ae
  === BLOCK LINK ===
    0x1bf6
=== CODE BLOCK END ===

=== CODE BLOCK ADDRESS 0x1bf6 ===
  0x1bf6	nop    	
  0x1bf7	dec    	eax
  0x1bf8	add    	esp, 0x20
  0x1bfb	pop    	ebp
  0x1bfc	ret    	
  === BLOCK LINK ===
    0x1bfd
=== CODE BLOCK END ===

=== CODE BLOCK ADDRESS 0x1bfd ===
  0x1bfd	int3   	
  0x1bfe	int3   	
  0x1bff	int3   	
  0x1c00	int3   	
  0x1c01	int3   	
  === BLOCK LINK ===
    0x1c02
=== CODE BLOCK END ===

=== CODE BLOCK ADDRESS 0x1c02 ===
  0x1c02	int3   	
  0x1c03	int3   	
  0x1c04	int3   	
  0x1c05	int3   	
  0x1c06	int3   	
  === BLOCK LINK ===
    0x1c07
=== CODE BLOCK END ===

=== CODE BLOCK ADDRESS 0x1c07 ===
  0x1c07	int3   	
  0x1c08	int3   	
  0x1c09	int3   	
  0x1c0a	int3   	
  0x1c0b	int3   	
  === BLOCK LINK ===
    0x1c0c
=== CODE BLOCK END ===

=== CODE BLOCK ADDRESS 0x1c0c ===
  0x1c0c	int3   	
  0x1c0d	int3   	
  0x1c0e	int3   	
  0x1c0f	int3   	
  0x1c10	inc    	eax
  === BLOCK LINK ===
    0x1c11
=== CODE BLOCK END ===

=== CODE BLOCK ADDRESS 0x1c11 ===
  0x1c11	push   	ebp
  0x1c12	dec    	eax
  0x1c13	sub    	esp, 0x20
  0x1c16	dec    	eax
  0x1c17	mov    	ebp, edx
  === BLOCK LINK ===
    0x1c19
=== CODE BLOCK END ===

=== CODE BLOCK ADDRESS 0x1c19 ===
  0x1c19	dec    	eax
  0x1c1a	mov    	eax, dword ptr [ecx]
  0x1c1c	xor    	ecx, ecx
  0x1c1e	cmp    	dword ptr [eax], 0xc0000005
  0x1c24	sete   	cl
  === BLOCK LINK ===
    0x1c27
=== CODE BLOCK END ===

=== CODE BLOCK ADDRESS 0x1c27 ===
  0x1c27	mov    	eax, ecx
  0x1c29	dec    	eax
  0x1c2a	add    	esp, 0x20
  0x1c2d	pop    	ebp
  0x1c2e	ret    	
  === BLOCK LINK ===
    0x1c2f
=== CODE BLOCK END ===

=== CODE BLOCK ADDRESS 0x1c2f ===
  0x1c2f	int3   	
  0x1c30	add    	byte ptr [eax], al
  0x1c32	add    	byte ptr [eax], al
  0x1c34	add    	byte ptr [eax], al
  0x1c36	add    	byte ptr [eax], al
  === BLOCK LINK ===
    0x1c38
=== CODE BLOCK END ===

=== CODE BLOCK ADDRESS 0x1c38 ===
  0x1c38	add    	byte ptr [eax], al
  0x1c3a	add    	byte ptr [eax], al
  0x1c3c	add    	byte ptr [eax], al
  0x1c3e	add    	byte ptr [eax], al
  0x1c40	add    	byte ptr [eax], al
  === BLOCK LINK ===
    0x1c42
=== CODE BLOCK END ===

=== CODE BLOCK ADDRESS 0x1c42 ===
  0x1c42	add    	byte ptr [eax], al
  0x1c44	add    	byte ptr [eax], al
  0x1c46	add    	byte ptr [eax], al
  0x1c48	add    	byte ptr [eax], al
  0x1c4a	add    	byte ptr [eax], al
  === BLOCK LINK ===
    0x1c4c
=== CODE BLOCK END ===

=== CODE BLOCK ADDRESS 0x1c4c ===
  0x1c4c	add    	byte ptr [eax], al
  0x1c4e	add    	byte ptr [eax], al
  0x1c50	add    	byte ptr [eax], al
  0x1c52	add    	byte ptr [eax], al
  0x1c54	add    	byte ptr [eax], al
  === BLOCK LINK ===
    0x1c56
=== CODE BLOCK END ===

=== CODE BLOCK ADDRESS 0x1c56 ===
  0x1c56	add    	byte ptr [eax], al
  0x1c58	add    	byte ptr [eax], al
  0x1c5a	add    	byte ptr [eax], al
  0x1c5c	add    	byte ptr [eax], al
  0x1c5e	add    	byte ptr [eax], al
  === BLOCK LINK ===
    0x1c60
=== CODE BLOCK END ===

=== CODE BLOCK ADDRESS 0x1c60 ===
  0x1c60	add    	byte ptr [eax], al
  0x1c62	add    	byte ptr [eax], al
  0x1c64	add    	byte ptr [eax], al
  0x1c66	add    	byte ptr [eax], al
  0x1c68	add    	byte ptr [eax], al
  === BLOCK LINK ===
    0x1c6a
=== CODE BLOCK END ===

=== CODE BLOCK ADDRESS 0x1c6a ===
  0x1c6a	add    	byte ptr [eax], al
  0x1c6c	add    	byte ptr [eax], al
  0x1c6e	add    	byte ptr [eax], al
  0x1c70	add    	byte ptr [eax], al
  0x1c72	add    	byte ptr [eax], al
  === BLOCK LINK ===
    0x1c74
=== CODE BLOCK END ===

=== CODE BLOCK ADDRESS 0x1c74 ===
  0x1c74	add    	byte ptr [eax], al
  0x1c76	add    	byte ptr [eax], al
  0x1c78	add    	byte ptr [eax], al
  0x1c7a	add    	byte ptr [eax], al
  0x1c7c	add    	byte ptr [eax], al
  === BLOCK LINK ===
    0x1c7e
=== CODE BLOCK END ===

=== CODE BLOCK ADDRESS 0x1c7e ===
  0x1c7e	add    	byte ptr [eax], al
  0x1c80	add    	byte ptr [eax], al
  0x1c82	add    	byte ptr [eax], al
  0x1c84	add    	byte ptr [eax], al
  0x1c86	add    	byte ptr [eax], al
  === BLOCK LINK ===
    0x1c88
=== CODE BLOCK END ===

=== CODE BLOCK ADDRESS 0x1c88 ===
  0x1c88	add    	byte ptr [eax], al
  0x1c8a	add    	byte ptr [eax], al
  0x1c8c	add    	byte ptr [eax], al
  0x1c8e	add    	byte ptr [eax], al
  0x1c90	add    	byte ptr [eax], al
  === BLOCK LINK ===
    0x1c92
=== CODE BLOCK END ===

=== CODE BLOCK ADDRESS 0x1c92 ===
  0x1c92	add    	byte ptr [eax], al
  0x1c94	add    	byte ptr [eax], al
  0x1c96	add    	byte ptr [eax], al
  0x1c98	add    	byte ptr [eax], al
  0x1c9a	add    	byte ptr [eax], al
  === BLOCK LINK ===
    0x1c9c
=== CODE BLOCK END ===

=== CODE BLOCK ADDRESS 0x1c9c ===
  0x1c9c	add    	byte ptr [eax], al
  0x1c9e	add    	byte ptr [eax], al
  0x1ca0	add    	byte ptr [eax], al
  0x1ca2	add    	byte ptr [eax], al
  0x1ca4	add    	byte ptr [eax], al
  === BLOCK LINK ===
    0x1ca6
=== CODE BLOCK END ===

=== CODE BLOCK ADDRESS 0x1ca6 ===
  0x1ca6	add    	byte ptr [eax], al
  0x1ca8	add    	byte ptr [eax], al
  0x1caa	add    	byte ptr [eax], al
  0x1cac	add    	byte ptr [eax], al
  0x1cae	add    	byte ptr [eax], al
  === BLOCK LINK ===
    0x1cb0
=== CODE BLOCK END ===

=== CODE BLOCK ADDRESS 0x1cb0 ===
  0x1cb0	add    	byte ptr [eax], al
  0x1cb2	add    	byte ptr [eax], al
  0x1cb4	add    	byte ptr [eax], al
  0x1cb6	add    	byte ptr [eax], al
  0x1cb8	add    	byte ptr [eax], al
  === BLOCK LINK ===
    0x1cba
=== CODE BLOCK END ===

=== CODE BLOCK ADDRESS 0x1cba ===
  0x1cba	add    	byte ptr [eax], al
  0x1cbc	add    	byte ptr [eax], al
  0x1cbe	add    	byte ptr [eax], al
  0x1cc0	add    	byte ptr [eax], al
  0x1cc2	add    	byte ptr [eax], al
  === BLOCK LINK ===
    0x1cc4
=== CODE BLOCK END ===

=== CODE BLOCK ADDRESS 0x1cc4 ===
  0x1cc4	add    	byte ptr [eax], al
  0x1cc6	add    	byte ptr [eax], al
  0x1cc8	add    	byte ptr [eax], al
  0x1cca	add    	byte ptr [eax], al
  0x1ccc	add    	byte ptr [eax], al
  === BLOCK LINK ===
    0x1cce
=== CODE BLOCK END ===

=== CODE BLOCK ADDRESS 0x1cce ===
  0x1cce	add    	byte ptr [eax], al
  0x1cd0	add    	byte ptr [eax], al
  0x1cd2	add    	byte ptr [eax], al
  0x1cd4	add    	byte ptr [eax], al
  0x1cd6	add    	byte ptr [eax], al
  === BLOCK LINK ===
    0x1cd8
=== CODE BLOCK END ===

=== CODE BLOCK ADDRESS 0x1cd8 ===
  0x1cd8	add    	byte ptr [eax], al
  0x1cda	add    	byte ptr [eax], al
  0x1cdc	add    	byte ptr [eax], al
  0x1cde	add    	byte ptr [eax], al
  0x1ce0	add    	byte ptr [eax], al
  === BLOCK LINK ===
    0x1ce2
=== CODE BLOCK END ===

=== CODE BLOCK ADDRESS 0x1ce2 ===
  0x1ce2	add    	byte ptr [eax], al
  0x1ce4	add    	byte ptr [eax], al
  0x1ce6	add    	byte ptr [eax], al
  0x1ce8	add    	byte ptr [eax], al
  0x1cea	add    	byte ptr [eax], al
  === BLOCK LINK ===
    0x1cec
=== CODE BLOCK END ===

=== CODE BLOCK ADDRESS 0x1cec ===
  0x1cec	add    	byte ptr [eax], al
  0x1cee	add    	byte ptr [eax], al
  0x1cf0	add    	byte ptr [eax], al
  0x1cf2	add    	byte ptr [eax], al
  0x1cf4	add    	byte ptr [eax], al
  === BLOCK LINK ===
    0x1cf6
=== CODE BLOCK END ===

=== CODE BLOCK ADDRESS 0x1cf6 ===
  0x1cf6	add    	byte ptr [eax], al
  0x1cf8	add    	byte ptr [eax], al
  0x1cfa	add    	byte ptr [eax], al
  0x1cfc	add    	byte ptr [eax], al
  0x1cfe	add    	byte ptr [eax], al
  === BLOCK LINK ===
    0x1d00
=== CODE BLOCK END ===

=== CODE BLOCK ADDRESS 0x1d00 ===
  0x1d00	add    	byte ptr [eax], al
  0x1d02	add    	byte ptr [eax], al
  0x1d04	add    	byte ptr [eax], al
  0x1d06	add    	byte ptr [eax], al
  0x1d08	add    	byte ptr [eax], al
  === BLOCK LINK ===
    0x1d0a
=== CODE BLOCK END ===

=== CODE BLOCK ADDRESS 0x1d0a ===
  0x1d0a	add    	byte ptr [eax], al
  0x1d0c	add    	byte ptr [eax], al
  0x1d0e	add    	byte ptr [eax], al
  0x1d10	add    	byte ptr [eax], al
  0x1d12	add    	byte ptr [eax], al
  === BLOCK LINK ===
    0x1d14
=== CODE BLOCK END ===

=== CODE BLOCK ADDRESS 0x1d14 ===
  0x1d14	add    	byte ptr [eax], al
  0x1d16	add    	byte ptr [eax], al
  0x1d18	add    	byte ptr [eax], al
  0x1d1a	add    	byte ptr [eax], al
  0x1d1c	add    	byte ptr [eax], al
  === BLOCK LINK ===
    0x1d1e
=== CODE BLOCK END ===

=== CODE BLOCK ADDRESS 0x1d1e ===
  0x1d1e	add    	byte ptr [eax], al
  0x1d20	add    	byte ptr [eax], al
  0x1d22	add    	byte ptr [eax], al
  0x1d24	add    	byte ptr [eax], al
  0x1d26	add    	byte ptr [eax], al
  === BLOCK LINK ===
    0x1d28
=== CODE BLOCK END ===

=== CODE BLOCK ADDRESS 0x1d28 ===
  0x1d28	add    	byte ptr [eax], al
  0x1d2a	add    	byte ptr [eax], al
  0x1d2c	add    	byte ptr [eax], al
  0x1d2e	add    	byte ptr [eax], al
  0x1d30	add    	byte ptr [eax], al
  === BLOCK LINK ===
    0x1d32
=== CODE BLOCK END ===

=== CODE BLOCK ADDRESS 0x1d32 ===
  0x1d32	add    	byte ptr [eax], al
  0x1d34	add    	byte ptr [eax], al
  0x1d36	add    	byte ptr [eax], al
  0x1d38	add    	byte ptr [eax], al
  0x1d3a	add    	byte ptr [eax], al
  === BLOCK LINK ===
    0x1d3c
=== CODE BLOCK END ===

=== CODE BLOCK ADDRESS 0x1d3c ===
  0x1d3c	add    	byte ptr [eax], al
  0x1d3e	add    	byte ptr [eax], al
  0x1d40	add    	byte ptr [eax], al
  0x1d42	add    	byte ptr [eax], al
  0x1d44	add    	byte ptr [eax], al
  === BLOCK LINK ===
    0x1d46
=== CODE BLOCK END ===

=== CODE BLOCK ADDRESS 0x1d46 ===
  0x1d46	add    	byte ptr [eax], al
  0x1d48	add    	byte ptr [eax], al
  0x1d4a	add    	byte ptr [eax], al
  0x1d4c	add    	byte ptr [eax], al
  0x1d4e	add    	byte ptr [eax], al
  === BLOCK LINK ===
    0x1d50
=== CODE BLOCK END ===

=== CODE BLOCK ADDRESS 0x1d50 ===
  0x1d50	add    	byte ptr [eax], al
  0x1d52	add    	byte ptr [eax], al
  0x1d54	add    	byte ptr [eax], al
  0x1d56	add    	byte ptr [eax], al
  0x1d58	add    	byte ptr [eax], al
  === BLOCK LINK ===
    0x1d5a
=== CODE BLOCK END ===

=== CODE BLOCK ADDRESS 0x1d5a ===
  0x1d5a	add    	byte ptr [eax], al
  0x1d5c	add    	byte ptr [eax], al
  0x1d5e	add    	byte ptr [eax], al
  0x1d60	add    	byte ptr [eax], al
  0x1d62	add    	byte ptr [eax], al
  === BLOCK LINK ===
    0x1d64
=== CODE BLOCK END ===

=== CODE BLOCK ADDRESS 0x1d64 ===
  0x1d64	add    	byte ptr [eax], al
  0x1d66	add    	byte ptr [eax], al
  0x1d68	add    	byte ptr [eax], al
  0x1d6a	add    	byte ptr [eax], al
  0x1d6c	add    	byte ptr [eax], al
  === BLOCK LINK ===
    0x1d6e
=== CODE BLOCK END ===

=== CODE BLOCK ADDRESS 0x1d6e ===
  0x1d6e	add    	byte ptr [eax], al
  0x1d70	add    	byte ptr [eax], al
  0x1d72	add    	byte ptr [eax], al
  0x1d74	add    	byte ptr [eax], al
  0x1d76	add    	byte ptr [eax], al
  === BLOCK LINK ===
    0x1d78
=== CODE BLOCK END ===

=== CODE BLOCK ADDRESS 0x1d78 ===
  0x1d78	add    	byte ptr [eax], al
  0x1d7a	add    	byte ptr [eax], al
  0x1d7c	add    	byte ptr [eax], al
  0x1d7e	add    	byte ptr [eax], al
  0x1d80	add    	byte ptr [eax], al
  === BLOCK LINK ===
    0x1d82
=== CODE BLOCK END ===

=== CODE BLOCK ADDRESS 0x1d82 ===
  0x1d82	add    	byte ptr [eax], al
  0x1d84	add    	byte ptr [eax], al
  0x1d86	add    	byte ptr [eax], al
  0x1d88	add    	byte ptr [eax], al
  0x1d8a	add    	byte ptr [eax], al
  === BLOCK LINK ===
    0x1d8c
=== CODE BLOCK END ===

=== CODE BLOCK ADDRESS 0x1d8c ===
  0x1d8c	add    	byte ptr [eax], al
  0x1d8e	add    	byte ptr [eax], al
  0x1d90	add    	byte ptr [eax], al
  0x1d92	add    	byte ptr [eax], al
  0x1d94	add    	byte ptr [eax], al
  === BLOCK LINK ===
    0x1d96
=== CODE BLOCK END ===

=== CODE BLOCK ADDRESS 0x1d96 ===
  0x1d96	add    	byte ptr [eax], al
  0x1d98	add    	byte ptr [eax], al
  0x1d9a	add    	byte ptr [eax], al
  0x1d9c	add    	byte ptr [eax], al
  0x1d9e	add    	byte ptr [eax], al
  === BLOCK LINK ===
    0x1da0
=== CODE BLOCK END ===

=== CODE BLOCK ADDRESS 0x1da0 ===
  0x1da0	add    	byte ptr [eax], al
  0x1da2	add    	byte ptr [eax], al
  0x1da4	add    	byte ptr [eax], al
  0x1da6	add    	byte ptr [eax], al
  0x1da8	add    	byte ptr [eax], al
  === BLOCK LINK ===
    0x1daa
=== CODE BLOCK END ===

=== CODE BLOCK ADDRESS 0x1daa ===
  0x1daa	add    	byte ptr [eax], al
  0x1dac	add    	byte ptr [eax], al
  0x1dae	add    	byte ptr [eax], al
  0x1db0	add    	byte ptr [eax], al
  0x1db2	add    	byte ptr [eax], al
  === BLOCK LINK ===
    0x1db4
=== CODE BLOCK END ===

=== CODE BLOCK ADDRESS 0x1db4 ===
  0x1db4	add    	byte ptr [eax], al
  0x1db6	add    	byte ptr [eax], al
  0x1db8	add    	byte ptr [eax], al
  0x1dba	add    	byte ptr [eax], al
  0x1dbc	add    	byte ptr [eax], al
  === BLOCK LINK ===
    0x1dbe
=== CODE BLOCK END ===

=== CODE BLOCK ADDRESS 0x1dbe ===
  0x1dbe	add    	byte ptr [eax], al
  0x1dc0	add    	byte ptr [eax], al
  0x1dc2	add    	byte ptr [eax], al
  0x1dc4	add    	byte ptr [eax], al
  0x1dc6	add    	byte ptr [eax], al
  === BLOCK LINK ===
    0x1dc8
=== CODE BLOCK END ===

=== CODE BLOCK ADDRESS 0x1dc8 ===
  0x1dc8	add    	byte ptr [eax], al
  0x1dca	add    	byte ptr [eax], al
  0x1dcc	add    	byte ptr [eax], al
  0x1dce	add    	byte ptr [eax], al
  0x1dd0	add    	byte ptr [eax], al
  === BLOCK LINK ===
    0x1dd2
=== CODE BLOCK END ===

=== CODE BLOCK ADDRESS 0x1dd2 ===
  0x1dd2	add    	byte ptr [eax], al
  0x1dd4	add    	byte ptr [eax], al
  0x1dd6	add    	byte ptr [eax], al
  0x1dd8	add    	byte ptr [eax], al
  0x1dda	add    	byte ptr [eax], al
  === BLOCK LINK ===
    0x1ddc
=== CODE BLOCK END ===

=== CODE BLOCK ADDRESS 0x1ddc ===
  0x1ddc	add    	byte ptr [eax], al
  0x1dde	add    	byte ptr [eax], al
  0x1de0	add    	byte ptr [eax], al
  0x1de2	add    	byte ptr [eax], al
  0x1de4	add    	byte ptr [eax], al
  === BLOCK LINK ===
    0x1de6
=== CODE BLOCK END ===

=== CODE BLOCK ADDRESS 0x1de6 ===
  0x1de6	add    	byte ptr [eax], al
  0x1de8	add    	byte ptr [eax], al
  0x1dea	add    	byte ptr [eax], al
  0x1dec	add    	byte ptr [eax], al
  0x1dee	add    	byte ptr [eax], al
  === BLOCK LINK ===
    0x1df0
=== CODE BLOCK END ===

=== CODE BLOCK ADDRESS 0x1df0 ===
  0x1df0	add    	byte ptr [eax], al
  0x1df2	add    	byte ptr [eax], al
  0x1df4	add    	byte ptr [eax], al
  0x1df6	add    	byte ptr [eax], al
  0x1df8	add    	byte ptr [eax], al
  === BLOCK LINK ===
    0x1dfa
=== CODE BLOCK END ===

=== CODE BLOCK ADDRESS 0x1dfa ===
  0x1dfa	add    	byte ptr [eax], al
  0x1dfc	add    	byte ptr [eax], al
=== CODE BLOCK END ===

=== DATA BLOCK ADDRESS 0x2000 ===
  0x2000	60 30 00 40 01 00 00 00 00 31 00 40 01 00 00 00 	`00@0000010@0000
  0x2010	18 01 00 00 00 00 00 00 00 00 00 00 00 00 00 00 	0000000000000000
  0x2020	00 00 00 00 00 00 00 00 00 00 00 00 00 00 00 00 	0000000000000000
  0x2030	00 00 00 00 00 00 00 00 00 00 00 00 00 00 00 00 	0000000000000000
  0x2040	00 00 00 00 00 00 00 00 00 00 00 00 00 00 00 00 	0000000000000000
  0x2050	00 00 00 00 00 00 00 00 00 00 00 00 00 00 00 00 	0000000000000000
  0x2060	00 00 00 00 00 00 00 00 08 30 00 40 01 00 00 00 	00000000000@0000
  0x2070	00 00 00 00 00 00 00 00 00 00 00 00 00 00 00 00 	0000000000000000
  0x2080	98 22 00 40 01 00 00 00 a0 22 00 40 01 00 00 00 	0"0@00000"0@0000
  0x2090	e0 22 00 40 01 00 00 00 08 00 00 00 00 00 00 00 	0"0@000000000000
  0x20a0	00 75 01 00 00 00 00 00 00 00 00 00 00 00 00 00 	0u00000000000000
  0x20b0	00 00 00 00 00 00 00 00 00 00 00 00 00 00 00 00 	0000000000000000
  0x20c0	00 00 00 00 00 00 00 00 00 00 00 00 00 00 00 00 	0000000000000000
  0x20d0	00 00 00 00 00 00 00 00 00 00 00 00 00 00 00 00 	0000000000000000
  0x20e0	00 00 00 00 00 00 00 00 00 00 00 00 00 00 00 00 	0000000000000000
  0x20f0	00 00 00 00 00 00 00 00 00 00 00 00 00 00 00 00 	0000000000000000
  0x2100	00 00 00 00 00 00 00 00 00 00 00 00 00 00 00 00 	0000000000000000
  0x2110	00 00 00 00 00 00 00 00 00 00 00 00 00 00 00 00 	0000000000000000
  0x2120	00 00 00 00 00 00 00 00 d8 28 00 00 00 00 00 00 	000000000(000000
  0x2130	ee 28 00 00 00 00 00 00 08 29 00 00 00 00 00 00 	0(0000000)000000
  0x2140	1a 29 00 00 00 00 00 00 2e 29 00 00 00 00 00 00 	0)000000.)000000
  0x2150	c0 28 00 00 00 00 00 00 00 00 00 00 00 00 00 00 	0(00000000000000
  0x2160	4c 2c 00 00 00 00 00 00 00 00 00 00 00 00 00 00 	L,00000000000000
  0x2170	4e 29 00 00 00 00 00 00 00 00 00 00 00 00 00 00 	N)00000000000000
  0x2180	54 2a 00 00 00 00 00 00 24 2b 00 00 00 00 00 00 	T*000000$+000000
  0x2190	00 00 00 00 00 00 00 00 40 2b 00 00 00 00 00 00 	00000000@+000000
  0x21a0	54 2b 00 00 00 00 00 00 8c 2a 00 00 00 00 00 00 	T+0000000*000000
  0x21b0	42 2a 00 00 00 00 00 00 a2 2a 00 00 00 00 00 00 	B*0000000*000000
  0x21c0	00 00 00 00 00 00 00 00 72 2a 00 00 00 00 00 00 	00000000r*000000
  0x21d0	00 00 00 00 00 00 00 00 f6 2a 00 00 00 00 00 00 	000000000*000000
  0x21e0	10 2b 00 00 00 00 00 00 e2 2a 00 00 00 00 00 00 	0+0000000*000000
  0x21f0	00 00 00 00 00 00 00 00 3a 2a 00 00 00 00 00 00 	00000000:*000000
  0x2200	00 00 00 00 00 00 00 00 d2 2a 00 00 00 00 00 00 	000000000*000000
  0x2210	b8 2a 00 00 00 00 00 00 00 00 00 00 00 00 00 00 	0*00000000000000
  0x2220	0e 2a 00 00 00 00 00 00 04 2a 00 00 00 00 00 00 	0*0000000*000000
  0x2230	fa 29 00 00 00 00 00 00 1a 2a 00 00 00 00 00 00 	0)0000000*000000
  0x2240	68 29 00 00 00 00 00 00 d6 29 00 00 00 00 00 00 	h)0000000)000000
  0x2250	c2 29 00 00 00 00 00 00 b8 29 00 00 00 00 00 00 	0)0000000)000000
  0x2260	b0 29 00 00 00 00 00 00 a8 29 00 00 00 00 00 00 	0)0000000)000000
  0x2270	96 29 00 00 00 00 00 00 84 29 00 00 00 00 00 00 	0)0000000)000000
  0x2280	76 29 00 00 00 00 00 00 e2 29 00 00 00 00 00 00 	v)0000000)000000
  0x2290	00 00 00 00 00 00 00 00 60 19 00 40 01 00 00 00 	00000000`00@0000
  0x22a0	d0 1b 00 40 01 00 00 00 00 00 00 00 00 00 00 00 	000@000000000000
  0x22b0	30 13 00 40 01 00 00 00 00 00 00 00 00 00 00 00 	000@000000000000
  0x22c0	00 00 00 00 00 00 00 00 50 12 00 40 01 00 00 00 	00000000P00@0000
  0x22d0	90 16 00 40 01 00 00 00 00 00 00 00 00 00 00 00 	000@000000000000
  0x22e0	50 12 00 00 30 13 00 00 f0 15 00 00 50 16 00 00 	P00000000000P000
  0x22f0	90 16 00 00 70 17 00 00 60 19 00 00 b0 19 00 00 	0000p000`0000000
  0x2300	00 00 00 00 ef 9c 20 2f 00 00 00 00 02 00 00 00 	000000 /00000000
  0x2310	23 00 00 00 54 23 00 00 54 15 00 00 00 00 00 00 	#000T#00T0000000
  0x2320	ef 9c 20 2f 00 00 00 00 0d 00 00 00 f0 01 00 00 	00 /000000000000
  0x2330	78 23 00 00 78 15 00 00 00 00 00 00 ef 9c 20 2f 	x#00x000000000 /
  0x2340	00 00 00 00 10 00 00 00 24 00 00 00 68 25 00 00 	00000000$000h%00
  0x2350	68 17 00 00 52 53 44 53 d7 4f 77 09 12 6c 25 27 	h000RSDS0Ow00l%'
  0x2360	a9 e4 cf 25 06 0a dd 2a 01 00 00 00 77 69 6e 76 	000%000*0000winv
  0x2370	65 72 2e 70 64 62 00 00 47 43 54 4c 00 10 00 00 	er.pdb00GCTL0000
  0x2380	c0 0b 00 00 2e 74 65 78 74 24 6d 6e 00 00 00 00 	0000.text$mn0000
  0x2390	c0 1b 00 00 20 00 00 00 2e 74 65 78 74 24 6d 6e 	0000 000.text$mn
  0x23a0	24 30 30 00 e0 1b 00 00 50 00 00 00 2e 74 65 78 	$0000000P000.tex
  0x23b0	74 24 78 00 00 20 00 00 28 01 00 00 2e 72 64 61 	t$x00 00(000.rda
  0x23c0	74 61 24 62 72 63 00 00 28 21 00 00 70 01 00 00 	ta$brc00(!00p000
  0x23d0	2e 69 64 61 74 61 24 35 00 00 00 00 98 22 00 00 	.idata$500000"00
  0x23e0	10 00 00 00 2e 30 30 63 66 67 00 00 a8 22 00 00 	0000.00cfg000"00
  0x23f0	08 00 00 00 2e 43 52 54 24 58 43 41 00 00 00 00 	0000.CRT$XCA0000
  0x2400	b0 22 00 00 08 00 00 00 2e 43 52 54 24 58 43 41 	0"000000.CRT$XCA
  0x2410	41 00 00 00 b8 22 00 00 08 00 00 00 2e 43 52 54 	A0000"000000.CRT
  0x2420	24 58 43 5a 00 00 00 00 c0 22 00 00 08 00 00 00 	$XCZ00000"000000
  0x2430	2e 43 52 54 24 58 49 41 00 00 00 00 c8 22 00 00 	.CRT$XIA00000"00
  0x2440	08 00 00 00 2e 43 52 54 24 58 49 41 41 00 00 00 	0000.CRT$XIAA000
  0x2450	d0 22 00 00 08 00 00 00 2e 43 52 54 24 58 49 59 	0"000000.CRT$XIY
  0x2460	00 00 00 00 d8 22 00 00 08 00 00 00 2e 43 52 54 	00000"000000.CRT
  0x2470	24 58 49 5a 00 00 00 00 e0 22 00 00 20 00 00 00 	$XIZ00000"00 000
  0x2480	2e 67 66 69 64 73 00 00 00 23 00 00 54 00 00 00 	.gfids000#00T000
  0x2490	2e 72 64 61 74 61 00 00 54 23 00 00 3c 02 00 00 	.rdata00T#00<000
  0x24a0	2e 72 64 61 74 61 24 7a 7a 7a 64 62 67 00 00 00 	.rdata$zzzdbg000
  0x24b0	90 25 00 00 e4 00 00 00 2e 78 64 61 74 61 00 00 	0%000000.xdata00
  0x24c0	74 26 00 00 c8 00 00 00 2e 69 64 61 74 61 24 32 	t&000000.idata$2
  0x24d0	00 00 00 00 3c 27 00 00 14 00 00 00 2e 69 64 61 	0000<'000000.ida
  0x24e0	74 61 24 33 00 00 00 00 50 27 00 00 70 01 00 00 	ta$30000P'00p000
  0x24f0	2e 69 64 61 74 61 24 34 00 00 00 00 c0 28 00 00 	.idata$400000(00
  0x2500	a6 03 00 00 2e 69 64 61 74 61 24 36 00 00 00 00 	0000.idata$60000
  0x2510	00 30 00 00 20 00 00 00 2e 64 61 74 61 00 00 00 	0000 000.data000
  0x2520	20 30 00 00 58 06 00 00 2e 62 73 73 00 00 00 00 	 000X000.bss0000
  0x2530	00 40 00 00 e4 00 00 00 2e 70 64 61 74 61 00 00 	0@000000.pdata00
  0x2540	00 50 00 00 c0 03 00 00 2e 72 73 72 63 24 30 31 	0P000000.rsrc$01
  0x2550	00 00 00 00 c0 53 00 00 10 be 00 00 2e 72 73 72 	00000S000000.rsr
  0x2560	63 24 30 32 00 00 00 00 20 00 00 00 d7 4f 77 09 	c$020000 0000Ow0
  0x2570	12 6c 25 27 a9 e4 cf 25 06 0a dd 2a 8c ad 12 37 	0l%'000%000*0007
  0x2580	4b e7 e7 63 6d 21 d4 96 ef 9c 20 2f 00 00 00 00 	K00cm!0000 /0000
  0x2590	19 2f 09 00 1e e4 58 00 1e 74 57 00 1e 34 56 00 	0/0000X00tW004V0
  0x25a0	1e 01 54 00 10 50 00 00 38 1b 00 00 90 02 00 00 	00T00P0080000000
  0x25b0	01 04 01 00 04 42 00 00 01 04 01 00 04 62 00 00 	00000B0000000b00
  0x25c0	09 1c 0b 00 1c e4 1b 00 1c 74 1a 00 1c 64 19 00 	000000000t000d00
  0x25d0	1c 34 18 00 1c 01 16 00 15 f0 00 00 4a 19 00 00 	040000000000J000
  0x25e0	01 00 00 00 af 13 00 00 99 15 00 00 e0 1b 00 00 	0000000000000000
  0x25f0	99 15 00 00 01 06 02 00 06 32 02 50 00 00 00 00 	00000000020P0000
  0x2600	01 00 00 00 09 04 01 00 04 22 00 00 4a 19 00 00 	000000000"00J000
  0x2610	01 00 00 00 cc 16 00 00 02 17 00 00 01 00 00 00 	0000000000000000
  0x2620	02 17 00 00 01 06 02 00 06 32 02 30 09 0a 04 00 	0000000002000000
  0x2630	0a 34 06 00 0a 32 06 70 4a 19 00 00 01 00 00 00 	0400020pJ0000000
  0x2640	dd 17 00 00 10 18 00 00 10 1c 00 00 10 18 00 00 	0000000000000000
  0x2650	01 0d 04 00 0d 34 09 00 0d 32 06 50 01 0c 02 00 	00000400020P0000
  0x2660	0c 01 11 00 00 00 00 00 01 00 00 00 01 02 01 00 	0000000000000000
  0x2670	02 30 00 00 50 27 00 00 00 00 00 00 00 00 00 00 	0000P'0000000000
  0x2680	40 29 00 00 28 21 00 00 98 27 00 00 00 00 00 00 	@)00(!000'000000
  0x2690	00 00 00 00 5c 29 00 00 70 21 00 00 48 28 00 00 	00000)00p!00H(00
  0x26a0	00 00 00 00 00 00 00 00 2e 2a 00 00 20 22 00 00 	00000000.*00 "00
  0x26b0	20 28 00 00 00 00 00 00 00 00 00 00 68 2b 00 00 	 (0000000000h+00
  0x26c0	f8 21 00 00 c0 27 00 00 00 00 00 00 00 00 00 00 	0!000'0000000000
  0x26d0	8a 2b 00 00 98 21 00 00 a8 27 00 00 00 00 00 00 	0+000!000'000000
  0x26e0	00 00 00 00 b4 2b 00 00 80 21 00 00 f0 27 00 00 	00000+000!000'00
  0x26f0	00 00 00 00 00 00 00 00 de 2b 00 00 c8 21 00 00 	000000000+000!00
  0x2700	30 28 00 00 00 00 00 00 00 00 00 00 02 2c 00 00 	0(00000000000,00
  0x2710	08 22 00 00 00 28 00 00 00 00 00 00 00 00 00 00 	0"000(0000000000
  0x2720	26 2c 00 00 d8 21 00 00 88 27 00 00 00 00 00 00 	&,000!000'000000
  0x2730	00 00 00 00 5a 2c 00 00 60 21 00 00 00 00 00 00 	0000Z,00`!000000
  0x2740	00 00 00 00 00 00 00 00 00 00 00 00 00 00 00 00 	0000000000000000
  0x2750	d8 28 00 00 00 00 00 00 ee 28 00 00 00 00 00 00 	0(0000000(000000
  0x2760	08 29 00 00 00 00 00 00 1a 29 00 00 00 00 00 00 	0)0000000)000000
  0x2770	2e 29 00 00 00 00 00 00 c0 28 00 00 00 00 00 00 	.)0000000(000000
  0x2780	00 00 00 00 00 00 00 00 4c 2c 00 00 00 00 00 00 	00000000L,000000
  0x2790	00 00 00 00 00 00 00 00 4e 29 00 00 00 00 00 00 	00000000N)000000
  0x27a0	00 00 00 00 00 00 00 00 54 2a 00 00 00 00 00 00 	00000000T*000000
  0x27b0	24 2b 00 00 00 00 00 00 00 00 00 00 00 00 00 00 	$+00000000000000
  0x27c0	40 2b 00 00 00 00 00 00 54 2b 00 00 00 00 00 00 	@+000000T+000000
  0x27d0	8c 2a 00 00 00 00 00 00 42 2a 00 00 00 00 00 00 	0*000000B*000000
  0x27e0	a2 2a 00 00 00 00 00 00 00 00 00 00 00 00 00 00 	0*00000000000000
  0x27f0	72 2a 00 00 00 00 00 00 00 00 00 00 00 00 00 00 	r*00000000000000
  0x2800	f6 2a 00 00 00 00 00 00 10 2b 00 00 00 00 00 00 	0*0000000+000000
  0x2810	e2 2a 00 00 00 00 00 00 00 00 00 00 00 00 00 00 	0*00000000000000
  0x2820	3a 2a 00 00 00 00 00 00 00 00 00 00 00 00 00 00 	:*00000000000000
  0x2830	d2 2a 00 00 00 00 00 00 b8 2a 00 00 00 00 00 00 	0*0000000*000000
  0x2840	00 00 00 00 00 00 00 00 0e 2a 00 00 00 00 00 00 	000000000*000000
  0x2850	04 2a 00 00 00 00 00 00 fa 29 00 00 00 00 00 00 	0*0000000)000000
  0x2860	1a 2a 00 00 00 00 00 00 68 29 00 00 00 00 00 00 	0*000000h)000000
  0x2870	d6 29 00 00 00 00 00 00 c2 29 00 00 00 00 00 00 	0)0000000)000000
  0x2880	b8 29 00 00 00 00 00 00 b0 29 00 00 00 00 00 00 	0)0000000)000000
  0x2890	a8 29 00 00 00 00 00 00 96 29 00 00 00 00 00 00 	0)0000000)000000
  0x28a0	84 29 00 00 00 00 00 00 76 29 00 00 00 00 00 00 	0)000000v)000000
  0x28b0	e2 29 00 00 00 00 00 00 00 00 00 00 00 00 00 00 	0)00000000000000
  0x28c0	72 01 46 69 6c 65 54 69 6d 65 54 6f 53 79 73 74 	r0FileTimeToSyst
  0x28d0	65 6d 54 69 6d 65 00 00 58 03 48 65 61 70 53 65 	emTime00X0HeapSe
  0x28e0	74 49 6e 66 6f 72 6d 61 74 69 6f 6e 00 00 71 01 	tInformation00q0
  0x28f0	46 69 6c 65 54 69 6d 65 54 6f 4c 6f 63 61 6c 46 	FileTimeToLocalF
  0x2900	69 6c 65 54 69 6d 65 00 15 03 47 65 74 54 69 6d 	ileTime000GetTim
  0x2910	65 46 6f 72 6d 61 74 57 00 00 80 02 47 65 74 4d 	eFormatW0000GetM
  0x2920	6f 64 75 6c 65 48 61 6e 64 6c 65 57 00 00 2a 02 	oduleHandleW00*0
  0x2930	47 65 74 44 61 74 65 46 6f 72 6d 61 74 57 00 00 	GetDateFormatW00
  0x2940	4b 45 52 4e 45 4c 33 32 2e 64 6c 6c 00 00 67 02 	KERNEL32.dll00g0
  0x2950	4c 6f 61 64 53 74 72 69 6e 67 57 00 55 53 45 52 	LoadStringW0USER
  0x2960	33 32 2e 64 6c 6c 00 00 55 00 5f 58 63 70 74 46 	32.dll00U0_XcptF
  0x2970	69 6c 74 65 72 00 ae 00 5f 61 6d 73 67 5f 65 78 	ilter000_amsg_ex
  0x2980	69 74 00 00 9d 00 5f 5f 77 67 65 74 6d 61 69 6e 	it0000__wgetmain
  0x2990	61 72 67 73 00 00 8e 00 5f 5f 73 65 74 5f 61 70 	args0000__set_ap
  0x29a0	70 5f 74 79 70 65 00 00 32 04 65 78 69 74 00 00 	p_type0020exit00
  0x29b0	0e 01 5f 65 78 69 74 00 c1 00 5f 63 65 78 69 74 	00_exit000_cexit
  0x29c0	00 00 90 00 5f 5f 73 65 74 75 73 65 72 6d 61 74 	0000__setusermat
  0x29d0	68 65 72 72 00 00 7d 01 5f 69 6e 69 74 74 65 72 	herr00}0_initter
  0x29e0	6d 00 57 00 5f 5f 43 5f 73 70 65 63 69 66 69 63 	m0W0__C_specific
  0x29f0	5f 68 61 6e 64 6c 65 72 00 00 82 03 5f 77 63 6d 	_handler0000_wcm
  0x2a00	64 6c 6e 00 27 01 5f 66 6d 6f 64 65 00 00 d2 00 	dln0'0_fmode0000
  0x2a10	5f 63 6f 6d 6d 6f 64 65 00 00 2f 00 3f 74 65 72 	_commode00/0?ter
  0x2a20	6d 69 6e 61 74 65 40 40 59 41 58 58 5a 00 6d 73 	minate@@YAXXZ0ms
  0x2a30	76 63 72 74 2e 64 6c 6c 00 00 2d 00 53 6c 65 65 	vcrt.dll00-0Slee
  0x2a40	70 00 20 00 47 65 74 53 74 61 72 74 75 70 49 6e 	p0 0GetStartupIn
  0x2a50	66 6f 57 00 0f 00 53 65 74 55 6e 68 61 6e 64 6c 	foW000SetUnhandl
  0x2a60	65 64 45 78 63 65 70 74 69 6f 6e 46 69 6c 74 65 	edExceptionFilte
  0x2a70	72 00 00 00 51 75 65 72 79 50 65 72 66 6f 72 6d 	r000QueryPerform
  0x2a80	61 6e 63 65 43 6f 75 6e 74 65 72 00 0d 00 47 65 	anceCounter000Ge
  0x2a90	74 43 75 72 72 65 6e 74 50 72 6f 63 65 73 73 49 	tCurrentProcessI
  0x2aa0	64 00 11 00 47 65 74 43 75 72 72 65 6e 74 54 68 	d000GetCurrentTh
  0x2ab0	72 65 61 64 49 64 00 00 16 00 47 65 74 53 79 73 	readId0000GetSys
  0x2ac0	74 65 6d 54 69 6d 65 41 73 46 69 6c 65 54 69 6d 	temTimeAsFileTim
  0x2ad0	65 00 1a 00 47 65 74 54 69 63 6b 43 6f 75 6e 74 	e000GetTickCount
  0x2ae0	00 00 02 00 52 74 6c 43 61 70 74 75 72 65 43 6f 	0000RtlCaptureCo
  0x2af0	6e 74 65 78 74 00 0a 00 52 74 6c 4c 6f 6f 6b 75 	ntext000RtlLooku
  0x2b00	70 46 75 6e 63 74 69 6f 6e 45 6e 74 72 79 00 00 	pFunctionEntry00
  0x2b10	10 00 52 74 6c 56 69 72 74 75 61 6c 55 6e 77 69 	00RtlVirtualUnwi
  0x2b20	6e 64 00 00 11 00 55 6e 68 61 6e 64 6c 65 64 45 	nd0000UnhandledE
  0x2b30	78 63 65 70 74 69 6f 6e 46 69 6c 74 65 72 00 00 	xceptionFilter00
  0x2b40	0c 00 47 65 74 43 75 72 72 65 6e 74 50 72 6f 63 	00GetCurrentProc
  0x2b50	65 73 73 00 4e 00 54 65 72 6d 69 6e 61 74 65 50 	ess0N0TerminateP
  0x2b60	72 6f 63 65 73 73 00 00 61 70 69 2d 6d 73 2d 77 	rocess00api-ms-w
  0x2b70	69 6e 2d 63 6f 72 65 2d 73 79 6e 63 68 2d 6c 31 	in-core-synch-l1
  0x2b80	2d 32 2d 30 2e 64 6c 6c 00 00 61 70 69 2d 6d 73 	-2-0.dll00api-ms
  0x2b90	2d 77 69 6e 2d 63 6f 72 65 2d 70 72 6f 63 65 73 	-win-core-proces
  0x2ba0	73 74 68 72 65 61 64 73 2d 6c 31 2d 31 2d 30 2e 	sthreads-l1-1-0.
  0x2bb0	64 6c 6c 00 61 70 69 2d 6d 73 2d 77 69 6e 2d 63 	dll0api-ms-win-c
  0x2bc0	6f 72 65 2d 65 72 72 6f 72 68 61 6e 64 6c 69 6e 	ore-errorhandlin
  0x2bd0	67 2d 6c 31 2d 31 2d 30 2e 64 6c 6c 00 00 61 70 	g-l1-1-0.dll00ap
  0x2be0	69 2d 6d 73 2d 77 69 6e 2d 63 6f 72 65 2d 70 72 	i-ms-win-core-pr
  0x2bf0	6f 66 69 6c 65 2d 6c 31 2d 31 2d 30 2e 64 6c 6c 	ofile-l1-1-0.dll
  0x2c00	00 00 61 70 69 2d 6d 73 2d 77 69 6e 2d 63 6f 72 	00api-ms-win-cor
  0x2c10	65 2d 73 79 73 69 6e 66 6f 2d 6c 31 2d 31 2d 30 	e-sysinfo-l1-1-0
  0x2c20	2e 64 6c 6c 00 00 61 70 69 2d 6d 73 2d 77 69 6e 	.dll00api-ms-win
  0x2c30	2d 63 6f 72 65 2d 72 74 6c 73 75 70 70 6f 72 74 	-core-rtlsupport
  0x2c40	2d 6c 31 2d 31 2d 30 2e 64 6c 6c 00 a6 01 53 68 	-l1-1-0.dll000Sh
  0x2c50	65 6c 6c 41 62 6f 75 74 57 00 53 48 45 4c 4c 33 	ellAboutW0SHELL3
  0x2c60	32 2e 64 6c 6c 00 00 00 00 00 00 00 00 00 00 00 	2.dll00000000000
  0x2c70	00 00 00 00 00 00 00 00 00 00 00 00 00 00 00 00 	0000000000000000
  0x2c80	00 00 00 00 00 00 00 00 00 00 00 00 00 00 00 00 	0000000000000000
  0x2c90	00 00 00 00 00 00 00 00 00 00 00 00 00 00 00 00 	0000000000000000
  0x2ca0	00 00 00 00 00 00 00 00 00 00 00 00 00 00 00 00 	0000000000000000
  0x2cb0	00 00 00 00 00 00 00 00 00 00 00 00 00 00 00 00 	0000000000000000
  0x2cc0	00 00 00 00 00 00 00 00 00 00 00 00 00 00 00 00 	0000000000000000
  0x2cd0	00 00 00 00 00 00 00 00 00 00 00 00 00 00 00 00 	0000000000000000
  0x2ce0	00 00 00 00 00 00 00 00 00 00 00 00 00 00 00 00 	0000000000000000
  0x2cf0	00 00 00 00 00 00 00 00 00 00 00 00 00 00 00 00 	0000000000000000
  0x2d00	00 00 00 00 00 00 00 00 00 00 00 00 00 00 00 00 	0000000000000000
  0x2d10	00 00 00 00 00 00 00 00 00 00 00 00 00 00 00 00 	0000000000000000
  0x2d20	00 00 00 00 00 00 00 00 00 00 00 00 00 00 00 00 	0000000000000000
  0x2d30	00 00 00 00 00 00 00 00 00 00 00 00 00 00 00 00 	0000000000000000
  0x2d40	00 00 00 00 00 00 00 00 00 00 00 00 00 00 00 00 	0000000000000000
  0x2d50	00 00 00 00 00 00 00 00 00 00 00 00 00 00 00 00 	0000000000000000
  0x2d60	00 00 00 00 00 00 00 00 00 00 00 00 00 00 00 00 	0000000000000000
  0x2d70	00 00 00 00 00 00 00 00 00 00 00 00 00 00 00 00 	0000000000000000
  0x2d80	00 00 00 00 00 00 00 00 00 00 00 00 00 00 00 00 	0000000000000000
  0x2d90	00 00 00 00 00 00 00 00 00 00 00 00 00 00 00 00 	0000000000000000
  0x2da0	00 00 00 00 00 00 00 00 00 00 00 00 00 00 00 00 	0000000000000000
  0x2db0	00 00 00 00 00 00 00 00 00 00 00 00 00 00 00 00 	0000000000000000
  0x2dc0	00 00 00 00 00 00 00 00 00 00 00 00 00 00 00 00 	0000000000000000
  0x2dd0	00 00 00 00 00 00 00 00 00 00 00 00 00 00 00 00 	0000000000000000
  0x2de0	00 00 00 00 00 00 00 00 00 00 00 00 00 00 00 00 	0000000000000000
  0x2df0	00 00 00 00 00 00 00 00 00 00 00 00 00 00 00 00 	0000000000000000
=== DATA BLOCK END ===

=== DATA BLOCK ADDRESS 0x3000 ===
  0x3000	01 00 00 00 00 00 00 00 32 a2 df 2d 99 2b 00 00 	00000000200-0+00
  0x3010	cd 5d 20 d2 66 d4 ff ff 00 00 00 00 00 00 00 00 	0] 0f00000000000
  0x3020	00 00 00 00 00 00 00 00 00 00 00 00 00 00 00 00 	0000000000000000
  0x3030	00 00 00 00 00 00 00 00 00 00 00 00 00 00 00 00 	0000000000000000
  0x3040	00 00 00 00 00 00 00 00 00 00 00 00 00 00 00 00 	0000000000000000
  0x3050	00 00 00 00 00 00 00 00 00 00 00 00 00 00 00 00 	0000000000000000
  0x3060	00 00 00 00 00 00 00 00 00 00 00 00 00 00 00 00 	0000000000000000
  0x3070	00 00 00 00 00 00 00 00 00 00 00 00 00 00 00 00 	0000000000000000
  0x3080	00 00 00 00 00 00 00 00 00 00 00 00 00 00 00 00 	0000000000000000
  0x3090	00 00 00 00 00 00 00 00 00 00 00 00 00 00 00 00 	0000000000000000
  0x30a0	00 00 00 00 00 00 00 00 00 00 00 00 00 00 00 00 	0000000000000000
  0x30b0	00 00 00 00 00 00 00 00 00 00 00 00 00 00 00 00 	0000000000000000
  0x30c0	00 00 00 00 00 00 00 00 00 00 00 00 00 00 00 00 	0000000000000000
  0x30d0	00 00 00 00 00 00 00 00 00 00 00 00 00 00 00 00 	0000000000000000
  0x30e0	00 00 00 00 00 00 00 00 00 00 00 00 00 00 00 00 	0000000000000000
  0x30f0	00 00 00 00 00 00 00 00 00 00 00 00 00 00 00 00 	0000000000000000
  0x3100	00 00 00 00 00 00 00 00 00 00 00 00 00 00 00 00 	0000000000000000
  0x3110	00 00 00 00 00 00 00 00 00 00 00 00 00 00 00 00 	0000000000000000
  0x3120	00 00 00 00 00 00 00 00 00 00 00 00 00 00 00 00 	0000000000000000
  0x3130	00 00 00 00 00 00 00 00 00 00 00 00 00 00 00 00 	0000000000000000
  0x3140	00 00 00 00 00 00 00 00 00 00 00 00 00 00 00 00 	0000000000000000
  0x3150	00 00 00 00 00 00 00 00 00 00 00 00 00 00 00 00 	0000000000000000
  0x3160	00 00 00 00 00 00 00 00 00 00 00 00 00 00 00 00 	0000000000000000
  0x3170	00 00 00 00 00 00 00 00 00 00 00 00 00 00 00 00 	0000000000000000
  0x3180	00 00 00 00 00 00 00 00 00 00 00 00 00 00 00 00 	0000000000000000
  0x3190	00 00 00 00 00 00 00 00 00 00 00 00 00 00 00 00 	0000000000000000
  0x31a0	00 00 00 00 00 00 00 00 00 00 00 00 00 00 00 00 	0000000000000000
  0x31b0	00 00 00 00 00 00 00 00 00 00 00 00 00 00 00 00 	0000000000000000
  0x31c0	00 00 00 00 00 00 00 00 00 00 00 00 00 00 00 00 	0000000000000000
  0x31d0	00 00 00 00 00 00 00 00 00 00 00 00 00 00 00 00 	0000000000000000
  0x31e0	00 00 00 00 00 00 00 00 00 00 00 00 00 00 00 00 	0000000000000000
  0x31f0	00 00 00 00 00 00 00 00 00 00 00 00 00 00 00 00 	0000000000000000
=== DATA BLOCK END ===

=== DATA BLOCK ADDRESS 0x4000 ===
  0x4000	08 10 00 00 46 12 00 00 90 25 00 00 50 12 00 00 	0000F0000%00P000
  0x4010	23 13 00 00 b0 25 00 00 30 13 00 00 79 13 00 00 	#0000%000000y000
  0x4020	b8 25 00 00 80 13 00 00 e4 15 00 00 c0 25 00 00 	0%00000000000%00
  0x4030	f0 15 00 00 02 16 00 00 b0 25 00 00 20 16 00 00 	000000000%00 000
  0x4040	3e 16 00 00 00 26 00 00 50 16 00 00 89 16 00 00 	>0000&00P0000000
  0x4050	b0 25 00 00 90 16 00 00 a8 16 00 00 b0 25 00 00 	0%00000000000%00
  0x4060	bc 16 00 00 10 17 00 00 04 26 00 00 18 17 00 00 	000000000&000000
  0x4070	5d 17 00 00 24 26 00 00 d0 17 00 00 1d 18 00 00 	]000$&0000000000
  0x4080	2c 26 00 00 64 18 00 00 38 19 00 00 50 26 00 00 	,&00d0008000P&00
  0x4090	6c 19 00 00 a0 19 00 00 24 26 00 00 b0 19 00 00 	l0000000$&000000
  0x40a0	21 1b 00 00 5c 26 00 00 38 1b 00 00 55 1b 00 00 	!0000&008000U000
  0x40b0	b0 25 00 00 5c 1b 00 00 b7 1b 00 00 6c 26 00 00 	0%0000000000l&00
  0x40c0	d0 1b 00 00 d2 1b 00 00 68 26 00 00 e0 1b 00 00 	00000000h&000000
  0x40d0	fe 1b 00 00 f4 25 00 00 10 1c 00 00 30 1c 00 00 	00000%0000000000
  0x40e0	f4 25 00 00 00 00 00 00 00 00 00 00 00 00 00 00 	0%00000000000000
  0x40f0	00 00 00 00 00 00 00 00 00 00 00 00 00 00 00 00 	0000000000000000
  0x4100	00 00 00 00 00 00 00 00 00 00 00 00 00 00 00 00 	0000000000000000
  0x4110	00 00 00 00 00 00 00 00 00 00 00 00 00 00 00 00 	0000000000000000
  0x4120	00 00 00 00 00 00 00 00 00 00 00 00 00 00 00 00 	0000000000000000
  0x4130	00 00 00 00 00 00 00 00 00 00 00 00 00 00 00 00 	0000000000000000
  0x4140	00 00 00 00 00 00 00 00 00 00 00 00 00 00 00 00 	0000000000000000
  0x4150	00 00 00 00 00 00 00 00 00 00 00 00 00 00 00 00 	0000000000000000
  0x4160	00 00 00 00 00 00 00 00 00 00 00 00 00 00 00 00 	0000000000000000
  0x4170	00 00 00 00 00 00 00 00 00 00 00 00 00 00 00 00 	0000000000000000
  0x4180	00 00 00 00 00 00 00 00 00 00 00 00 00 00 00 00 	0000000000000000
  0x4190	00 00 00 00 00 00 00 00 00 00 00 00 00 00 00 00 	0000000000000000
  0x41a0	00 00 00 00 00 00 00 00 00 00 00 00 00 00 00 00 	0000000000000000
  0x41b0	00 00 00 00 00 00 00 00 00 00 00 00 00 00 00 00 	0000000000000000
  0x41c0	00 00 00 00 00 00 00 00 00 00 00 00 00 00 00 00 	0000000000000000
  0x41d0	00 00 00 00 00 00 00 00 00 00 00 00 00 00 00 00 	0000000000000000
  0x41e0	00 00 00 00 00 00 00 00 00 00 00 00 00 00 00 00 	0000000000000000
  0x41f0	00 00 00 00 00 00 00 00 00 00 00 00 00 00 00 00 	0000000000000000
=== DATA BLOCK END ===
