===== Assembly blocks =====

=== CODE BLOCK ADDRESS 0x1000 ===
  0x1000	int3   	
  0x1001	int3   	
  0x1002	int3   	
  0x1003	int3   	
  0x1004	int3   	
  === BLOCK LINK ===
    0x1005
=== CODE BLOCK END ===

=== CODE BLOCK ADDRESS 0x1005 ===
  0x1005	int3   	
  0x1006	int3   	
  0x1007	int3   	
  0x1008	dec    	eax
  0x1009	mov    	dword ptr [esp + 8], ebx
  === BLOCK LINK ===
    0x100d
=== CODE BLOCK END ===

=== CODE BLOCK ADDRESS 0x100d ===
  0x100d	push   	edi
  0x100e	dec    	eax
  0x100f	sub    	esp, 0x40
  0x1012	dec    	eax
  0x1013	lea    	ecx, [esp + 0x20]
  === BLOCK LINK ===
    0x1017
=== CODE BLOCK END ===

=== CODE BLOCK ADDRESS 0x1017 ===
  0x1017	xor    	ebx, ebx
  0x1019	call   	0x1164
  === BLOCK LINK ===
    0x101e
    0x1164
=== CODE BLOCK END ===

=== CODE BLOCK ADDRESS 0x101e ===
  0x101e	test   	eax, eax
  0x1020	je     	0x113a
  === BLOCK LINK ===
    0x1026
    0x113a
=== CODE BLOCK END ===

=== CODE BLOCK ADDRESS 0x1026 ===
  0x1026	mov    	eax, dword ptr [0x45d0]
  0x102c	lea    	edi, [ebx + 1]
  0x102f	add    	eax, edi
  0x1031	mov    	dword ptr [0x45c5], eax
  0x1037	cmp    	eax, edi
  === BLOCK LINK ===
    0x1039
=== CODE BLOCK END ===

=== CODE BLOCK ADDRESS 0x1039 ===
  0x1039	jne    	0x10ac
  === BLOCK LINK ===
    0x103b
    0x10ac
=== CODE BLOCK END ===

=== CODE BLOCK ADDRESS 0x103b ===
  0x103b	dec    	eax
  0x103c	call   	dword ptr [0x20f6]
  === BLOCK LINK ===
    0x1042
=== CODE BLOCK END ===

=== CODE BLOCK ADDRESS 0x1042 ===
  0x1042	nop    	dword ptr [eax + eax]
  0x1047	dec    	eax
  0x1048	mov    	dword ptr [0x462a], eax
  0x104e	dec    	eax
  0x104f	test   	eax, eax
  === BLOCK LINK ===
    0x1051
=== CODE BLOCK END ===

=== CODE BLOCK ADDRESS 0x1051 ===
  0x1051	je     	0x1078
  === BLOCK LINK ===
    0x1053
    0x1078
=== CODE BLOCK END ===

=== CODE BLOCK ADDRESS 0x1053 ===
  0x1053	mov    	dword ptr [0x4627], edi
  0x1059	call   	0x1784
  === BLOCK LINK ===
    0x105e
    0x1784
=== CODE BLOCK END ===

=== CODE BLOCK ADDRESS 0x105e ===
  0x105e	mov    	ecx, dword ptr [0x4594]
  0x1064	test   	eax, eax
  0x1066	dec    	eax
  0x1067	mov    	eax, dword ptr [0x460b]
  0x106d	cmovne  	ecx, edi
  === BLOCK LINK ===
    0x1070
=== CODE BLOCK END ===

=== CODE BLOCK ADDRESS 0x1070 ===
  0x1070	mov    	dword ptr [0x4582], ecx
  0x1076	jmp    	0x107e
  === BLOCK LINK ===
    0x1078
    0x107e
=== CODE BLOCK END ===

=== CODE BLOCK ADDRESS 0x1078 ===
  0x1078	mov    	ecx, dword ptr [0x457a]
  === BLOCK LINK ===
    0x107e
    0x10ac
=== CODE BLOCK END ===

=== CODE BLOCK ADDRESS 0x1082 ===
  0x1082	dec    	esp
  0x1083	mov    	eax, dword ptr [0x4567]
  0x1089	dec    	ebp
  0x108a	test   	eax, eax
  0x108c	je     	0x10a6
  === BLOCK LINK ===
    0x108e
    0x10a6
=== CODE BLOCK END ===

=== CODE BLOCK ADDRESS 0x108e ===
  0x108e	xor    	edx, edx
  0x1090	dec    	eax
  0x1091	mov    	ecx, eax
  0x1093	dec    	eax
  0x1094	call   	dword ptr [0x20a6]
  === BLOCK LINK ===
    0x109a
=== CODE BLOCK END ===

=== CODE BLOCK ADDRESS 0x109a ===
  0x109a	nop    	dword ptr [eax + eax]
  0x109f	dec    	eax
  0x10a0	mov    	dword ptr [0x454a], ebx
  === BLOCK LINK ===
    0x10a6
=== CODE BLOCK END ===

=== CODE BLOCK ADDRESS 0x10ad ===
  0x10ad	lea    	eax, [esp + 0x20]
  0x10b1	.byte  	0xf0
  0x10b2	dec    	eax
  0x10b3	cmpxchg  	dword ptr [0x4526], ebx
  0x10ba	dec    	eax
  === BLOCK LINK ===
    0x10bb
=== CODE BLOCK END ===

=== CODE BLOCK ADDRESS 0x10bb ===
  0x10bb	lea    	ecx, [esp + 0x20]
  0x10bf	dec    	eax
  0x10c0	cmp    	eax, ecx
  0x10c2	je     	0x10d1
  === BLOCK LINK ===
    0x10c4
    0x10d1
=== CODE BLOCK END ===

=== CODE BLOCK ADDRESS 0x10c4 ===
  0x10c4	dec    	eax
  0x10c5	mov    	edx, eax
  0x10c7	dec    	eax
  0x10c8	lea    	ecx, [esp + 0x20]
  0x10cc	call   	0x1218
  === BLOCK LINK ===
    0x10d1
    0x1218
=== CODE BLOCK END ===

=== CODE BLOCK ADDRESS 0x10d1 ===
  0x10d1	cmp    	dword ptr [0x4521], ebx
  0x10d7	je     	0x113a
  === BLOCK LINK ===
    0x10d9
    0x113a
=== CODE BLOCK END ===

=== CODE BLOCK ADDRESS 0x10d9 ===
  0x10d9	dec    	eax
  0x10da	lea    	ecx, [0x22b0]
  0x10e0	dec    	eax
  0x10e1	call   	dword ptr [0x2079]
  === BLOCK LINK ===
    0x10e7
=== CODE BLOCK END ===

=== CODE BLOCK ADDRESS 0x10e7 ===
  0x10e7	nop    	dword ptr [eax + eax]
  0x10ec	dec    	eax
  0x10ed	mov    	edi, eax
  0x10ef	dec    	eax
  0x10f0	test   	eax, eax
  === BLOCK LINK ===
    0x10f2
=== CODE BLOCK END ===

=== CODE BLOCK ADDRESS 0x10f2 ===
  0x10f2	je     	0x113a
  === BLOCK LINK ===
    0x10f4
    0x113a
=== CODE BLOCK END ===

=== CODE BLOCK ADDRESS 0x10f4 ===
  0x10f4	dec    	eax
  0x10f5	lea    	edx, [0x22ad]
  0x10fb	dec    	eax
  0x10fc	mov    	ecx, eax
  0x10fe	dec    	eax
  === BLOCK LINK ===
    0x10ff
=== CODE BLOCK END ===

=== CODE BLOCK ADDRESS 0x10ff ===
  0x10ff	call   	dword ptr [0x204b]
  === BLOCK LINK ===
    0x1105
=== CODE BLOCK END ===

=== CODE BLOCK ADDRESS 0x1105 ===
  0x1105	nop    	dword ptr [eax + eax]
  0x110a	dec    	eax
  0x110b	test   	eax, eax
  0x110d	jne    	0x111f
  === BLOCK LINK ===
    0x110f
    0x111f
=== CODE BLOCK END ===

=== CODE BLOCK ADDRESS 0x110f ===
  0x110f	dec    	eax
  0x1110	call   	dword ptr [0x2052]
  === BLOCK LINK ===
    0x1116
=== CODE BLOCK END ===

=== CODE BLOCK ADDRESS 0x1116 ===
  0x1116	nop    	dword ptr [eax + eax]
  0x111b	mov    	ebx, eax
  0x111d	jmp    	0x1129
  === BLOCK LINK ===
    0x111f
    0x1129
=== CODE BLOCK END ===

=== CODE BLOCK ADDRESS 0x111f ===
  0x111f	xor    	edx, edx
  0x1121	xor    	ecx, ecx
  0x1123	call   	dword ptr [0x21ff]
  === BLOCK LINK ===
    0x1129
=== CODE BLOCK END ===

=== CODE BLOCK ADDRESS 0x1129 ===
  0x1129	dec    	eax
  0x112a	mov    	ecx, edi
  0x112c	dec    	eax
  0x112d	call   	dword ptr [0x1ffd]
  === BLOCK LINK ===
    0x1133
=== CODE BLOCK END ===

=== CODE BLOCK ADDRESS 0x1133 ===
  0x1133	nop    	dword ptr [eax + eax]
  0x1138	jmp    	0x1148
  === BLOCK LINK ===
    0x113a
    0x1148
=== CODE BLOCK END ===

=== CODE BLOCK ADDRESS 0x113a ===
  0x113a	dec    	eax
  0x113b	call   	dword ptr [0x2027]
  === BLOCK LINK ===
    0x1141
=== CODE BLOCK END ===

=== CODE BLOCK ADDRESS 0x1141 ===
  0x1141	nop    	dword ptr [eax + eax]
  0x1146	mov    	ebx, eax
  0x1148	call   	0x167c
  === BLOCK LINK ===
    0x114d
    0x167c
=== CODE BLOCK END ===

=== CODE BLOCK ADDRESS 0x114d ===
  0x114d	mov    	ecx, ebx
  0x114f	dec    	eax
  0x1150	call   	dword ptr [0x1fd2]
  === BLOCK LINK ===
    0x1156
=== CODE BLOCK END ===

=== CODE BLOCK ADDRESS 0x1156 ===
  0x1156	nop    	dword ptr [eax + eax]
  0x115b	int3   	
  0x115c	int3   	
  0x115d	int3   	
  0x115e	int3   	
  === BLOCK LINK ===
    0x115f
=== CODE BLOCK END ===

=== CODE BLOCK ADDRESS 0x115f ===
  0x115f	int3   	
  0x1160	int3   	
  0x1161	int3   	
  0x1162	int3   	
  0x1163	int3   	
  === BLOCK LINK ===
    0x1164
=== CODE BLOCK END ===

=== CODE BLOCK ADDRESS 0x1164 ===
  0x1164	dec    	eax
  0x1165	mov    	dword ptr [esp + 8], ebx
  0x1169	push   	edi
  0x116a	dec    	eax
  0x116b	sub    	esp, 0x20
  === BLOCK LINK ===
    0x116e
=== CODE BLOCK END ===

=== CODE BLOCK ADDRESS 0x116e ===
  0x116e	dec    	eax
  0x116f	and    	dword ptr [ecx + 0x10], 0
  0x1173	dec    	eax
  0x1174	mov    	ebx, ecx
  0x1176	dec    	eax
  === BLOCK LINK ===
    0x1177
=== CODE BLOCK END ===

=== CODE BLOCK ADDRESS 0x1177 ===
  0x1177	and    	dword ptr [ecx + 8], 0
  0x117b	dec    	eax
  0x117c	and    	dword ptr [ecx], 0
  0x117f	xor    	eax, eax
  0x1181	.byte  	0xf0
  === BLOCK LINK ===
    0x1182
=== CODE BLOCK END ===

=== CODE BLOCK ADDRESS 0x1182 ===
  0x1182	dec    	eax
  0x1183	cmpxchg  	dword ptr [0x4456], ebx
  0x118a	je     	0x1201
  === BLOCK LINK ===
    0x118c
    0x1201
=== CODE BLOCK END ===

=== CODE BLOCK ADDRESS 0x118c ===
  0x118c	inc    	ebp
  0x118d	xor    	ecx, ecx
  0x118f	inc    	ebp
  0x1190	xor    	eax, eax
  0x1192	xor    	edx, edx
  === BLOCK LINK ===
    0x1194
=== CODE BLOCK END ===

=== CODE BLOCK ADDRESS 0x1194 ===
  0x1194	xor    	ecx, ecx
  0x1196	dec    	eax
  0x1197	call   	dword ptr [0x2033]
  === BLOCK LINK ===
    0x119d
=== CODE BLOCK END ===

=== CODE BLOCK ADDRESS 0x119d ===
  0x119d	nop    	dword ptr [eax + eax]
  0x11a2	dec    	eax
  0x11a3	mov    	dword ptr [ebx], eax
  0x11a5	dec    	eax
  0x11a6	test   	eax, eax
  === BLOCK LINK ===
    0x11a8
=== CODE BLOCK END ===

=== CODE BLOCK ADDRESS 0x11a8 ===
  0x11a8	je     	0x11fd
  === BLOCK LINK ===
    0x11aa
    0x11fd
=== CODE BLOCK END ===

=== CODE BLOCK ADDRESS 0x11aa ===
  0x11aa	dec    	eax
  0x11ab	mov    	ecx, dword ptr [0x442f]
  0x11b1	dec    	eax
  0x11b2	mov    	dword ptr [ebx + 8], ecx
  0x11b5	dec    	eax
  === BLOCK LINK ===
    0x11b6
=== CODE BLOCK END ===

=== CODE BLOCK ADDRESS 0x11b6 ===
  0x11b6	mov    	eax, ecx
  0x11b8	.byte  	0xf0
  0x11b9	dec    	eax
  0x11ba	cmpxchg  	dword ptr [0x441f], ebx
  0x11c1	dec    	eax
  === BLOCK LINK ===
    0x11c2
=== CODE BLOCK END ===

=== CODE BLOCK ADDRESS 0x11c2 ===
  0x11c2	cmp    	ecx, eax
  0x11c4	jne    	0x11aa
  === BLOCK LINK ===
    0x11c6
    0x11aa
=== CODE BLOCK END ===

=== CODE BLOCK ADDRESS 0x11c6 ===
  0x11c6	dec    	eax
  0x11c7	test   	ecx, ecx
  0x11c9	je     	0x11e4
  === BLOCK LINK ===
    0x11cb
    0x11e4
=== CODE BLOCK END ===

=== CODE BLOCK ADDRESS 0x11cb ===
  0x11cb	dec    	eax
  0x11cc	mov    	ecx, dword ptr [ebx]
  0x11ce	inc    	ebp
  0x11cf	xor    	eax, eax
  0x11d1	or     	edx, 0xffffffff
  === BLOCK LINK ===
    0x11d4
=== CODE BLOCK END ===

=== CODE BLOCK ADDRESS 0x11d4 ===
  0x11d4	dec    	eax
  0x11d5	call   	dword ptr [0x1ffd]
  === BLOCK LINK ===
    0x11db
=== CODE BLOCK END ===

=== CODE BLOCK ADDRESS 0x11db ===
  0x11db	nop    	dword ptr [eax + eax]
  0x11e0	mov    	edi, eax
  0x11e2	jmp    	0x11e6
  === BLOCK LINK ===
    0x11e4
    0x11e6
=== CODE BLOCK END ===

=== CODE BLOCK ADDRESS 0x11e4 ===
  0x11e4	xor    	edi, edi
  === BLOCK LINK ===
    0x11e6
=== CODE BLOCK END ===

=== CODE BLOCK ADDRESS 0x11f0 ===
  0x11f0	nop    	dword ptr [eax + eax]
  0x11f5	dec    	eax
  0x11f6	and    	dword ptr [ebx], 0
  0x11f9	test   	edi, edi
  0x11fb	je     	0x1201
  === BLOCK LINK ===
    0x11fd
    0x1201
=== CODE BLOCK END ===

=== CODE BLOCK ADDRESS 0x11fd ===
  0x11fd	xor    	eax, eax
  0x11ff	jmp    	0x1206
  === BLOCK LINK ===
    0x1201
    0x1206
=== CODE BLOCK END ===

=== CODE BLOCK ADDRESS 0x1201 ===
  0x1201	mov    	eax, 1
  === BLOCK LINK ===
    0x1206
=== CODE BLOCK END ===

=== CODE BLOCK ADDRESS 0x120f ===
  0x120f	pop    	edi
  0x1210	ret    	
  0x1211	int3   	
  0x1212	int3   	
  0x1213	int3   	
  === BLOCK LINK ===
    0x1214
=== CODE BLOCK END ===

=== CODE BLOCK ADDRESS 0x1214 ===
  0x1214	int3   	
  0x1215	int3   	
  0x1216	int3   	
  0x1217	int3   	
  0x1218	dec    	esp
  === BLOCK LINK ===
    0x1219
=== CODE BLOCK END ===

=== CODE BLOCK ADDRESS 0x1219 ===
  0x1219	mov    	eax, ecx
  0x121b	dec    	eax
  0x121c	mov    	ecx, dword ptr [ecx + 0x10]
  0x121f	dec    	eax
  0x1220	test   	ecx, ecx
  === BLOCK LINK ===
    0x1222
=== CODE BLOCK END ===

=== CODE BLOCK ADDRESS 0x1222 ===
  0x1222	jne    	0x123e
  === BLOCK LINK ===
    0x1224
    0x123e
=== CODE BLOCK END ===

=== CODE BLOCK ADDRESS 0x1224 ===
  0x1224	dec    	ecx
  0x1225	cmp    	edx, eax
  0x1227	je     	0x123e
  === BLOCK LINK ===
    0x1229
    0x123e
=== CODE BLOCK END ===

=== CODE BLOCK ADDRESS 0x1229 ===
  0x1229	dec    	eax
  0x122a	mov    	eax, dword ptr [edx + 8]
  0x122d	dec    	eax
  0x122e	mov    	dword ptr [eax + 0x10], edx
  0x1231	dec    	eax
  === BLOCK LINK ===
    0x1232
=== CODE BLOCK END ===

=== CODE BLOCK ADDRESS 0x1232 ===
  0x1232	mov    	edx, dword ptr [edx + 8]
  0x1235	dec    	ecx
  0x1236	cmp    	edx, eax
  0x1238	jne    	0x1229
  === BLOCK LINK ===
    0x123a
    0x1229
=== CODE BLOCK END ===

=== CODE BLOCK ADDRESS 0x123a ===
  0x123a	dec    	ecx
  0x123b	mov    	ecx, dword ptr [eax + 0x10]
  === BLOCK LINK ===
    0x123e
=== CODE BLOCK END ===

=== CODE BLOCK ADDRESS 0x1244 ===
  0x1244	mov    	ecx, dword ptr [ecx]
  0x1246	dec    	eax
  0x1247	jmp    	dword ptr [0x1f9b]
  === BLOCK LINK ===
    0x124d
=== CODE BLOCK END ===

=== CODE BLOCK ADDRESS 0x124d ===
  0x124d	int3   	
  0x124e	int3   	
  0x124f	int3   	
  0x1250	int3   	
  0x1251	int3   	
  === BLOCK LINK ===
    0x1252
=== CODE BLOCK END ===

=== CODE BLOCK ADDRESS 0x1252 ===
  0x1252	int3   	
  0x1253	int3   	
  0x1254	int3   	
  0x1255	int3   	
  0x1256	int3   	
  === BLOCK LINK ===
    0x1257
=== CODE BLOCK END ===

=== CODE BLOCK ADDRESS 0x1257 ===
  0x1257	int3   	
  0x1258	dec    	eax
  0x1259	mov    	dword ptr [esp + 0x18], ebx
  0x125d	dec    	eax
  0x125e	mov    	dword ptr [esp + 0x20], esi
  === BLOCK LINK ===
    0x1262
=== CODE BLOCK END ===

=== CODE BLOCK ADDRESS 0x1262 ===
  0x1262	push   	edi
  0x1263	dec    	eax
  0x1264	sub    	esp, 0x260
  0x126a	dec    	eax
  0x126b	mov    	eax, dword ptr [0x3d97]
  === BLOCK LINK ===
    0x1271
=== CODE BLOCK END ===

=== CODE BLOCK ADDRESS 0x1271 ===
  0x1271	dec    	eax
  0x1272	xor    	eax, esp
  0x1274	dec    	eax
  0x1275	mov    	dword ptr [esp + 0x250], eax
  0x127c	and    	dword ptr [esp + 0x30], 0
  === BLOCK LINK ===
    0x1281
=== CODE BLOCK END ===

=== CODE BLOCK ADDRESS 0x1281 ===
  0x1281	dec    	eax
  0x1282	mov    	ebx, edx
  0x1284	dec    	eax
  0x1285	mov    	esi, ecx
  0x1287	dec    	eax
  === BLOCK LINK ===
    0x1288
=== CODE BLOCK END ===

=== CODE BLOCK ADDRESS 0x1288 ===
  0x1288	mov    	dword ptr [esp + 0x20], ecx
  0x128c	dec    	eax
  0x128d	lea    	edx, [0x212d]
  0x1293	mov    	dword ptr [esp + 0x34], 0x208
  0x129b	dec    	eax
  === BLOCK LINK ===
    0x129c
=== CODE BLOCK END ===

=== CODE BLOCK ADDRESS 0x129c ===
  0x129c	mov    	ecx, 0x80000002
  0x12a2	inc    	ecx
  0x12a3	mov    	ecx, 1
  0x12a8	call   	0x1a24
  === BLOCK LINK ===
    0x12ad
    0x1a24
=== CODE BLOCK END ===

=== CODE BLOCK ADDRESS 0x12ad ===
  0x12ad	mov    	edi, eax
  0x12af	test   	eax, eax
  0x12b1	jne    	0x1308
  === BLOCK LINK ===
    0x12b3
    0x1308
=== CODE BLOCK END ===

=== CODE BLOCK ADDRESS 0x12b3 ===
  0x12b3	dec    	eax
  0x12b4	test   	ebx, ebx
  0x12b6	je     	0x1308
  === BLOCK LINK ===
    0x12b8
    0x1308
=== CODE BLOCK END ===

=== CODE BLOCK ADDRESS 0x12b8 ===
  0x12b8	dec    	eax
  0x12b9	mov    	ecx, dword ptr [esi]
  0x12bb	dec    	eax
  0x12bc	lea    	eax, [esp + 0x34]
  0x12c0	dec    	esp
  === BLOCK LINK ===
    0x12c1
=== CODE BLOCK END ===

=== CODE BLOCK ADDRESS 0x12c1 ===
  0x12c1	lea    	ecx, [esp + 0x40]
  0x12c5	dec    	eax
  0x12c6	mov    	dword ptr [esp + 0x20], eax
  0x12ca	dec    	esp
  0x12cb	lea    	eax, [esp + 0x30]
  === BLOCK LINK ===
    0x12cf
=== CODE BLOCK END ===

=== CODE BLOCK ADDRESS 0x12cf ===
  0x12cf	dec    	eax
  0x12d0	lea    	edx, [0x214a]
  0x12d6	call   	0x1b1c
  === BLOCK LINK ===
    0x12db
    0x1b1c
=== CODE BLOCK END ===

=== CODE BLOCK ADDRESS 0x12db ===
  0x12db	test   	eax, eax
  0x12dd	jne    	0x1304
  === BLOCK LINK ===
    0x12df
    0x1304
=== CODE BLOCK END ===

=== CODE BLOCK ADDRESS 0x12df ===
  0x12df	cmp    	dword ptr [esp + 0x30], 1
  0x12e4	jne    	0x1304
  === BLOCK LINK ===
    0x12e6
    0x1304
=== CODE BLOCK END ===

=== CODE BLOCK ADDRESS 0x12e6 ===
  0x12e6	inc    	esp
  0x12e7	lea    	ecx, [edi + 1]
  0x12ea	dec    	eax
  0x12eb	mov    	dword ptr [esp + 0x20], ebx
  0x12ef	dec    	eax
  === BLOCK LINK ===
    0x12f0
=== CODE BLOCK END ===

=== CODE BLOCK ADDRESS 0x12f0 ===
  0x12f0	lea    	edx, [esp + 0x40]
  0x12f4	dec    	eax
  0x12f5	mov    	ecx, 0x80000002
  0x12fb	call   	0x1a24
  === BLOCK LINK ===
    0x1300
    0x1a24
=== CODE BLOCK END ===

=== CODE BLOCK ADDRESS 0x1300 ===
  0x1300	test   	eax, eax
  0x1302	je     	0x1308
  === BLOCK LINK ===
    0x1304
    0x1308
=== CODE BLOCK END ===

=== CODE BLOCK ADDRESS 0x1304 ===
  0x1304	dec    	eax
  0x1305	and    	dword ptr [ebx], 0
  === BLOCK LINK ===
    0x1308
=== CODE BLOCK END ===

=== CODE BLOCK ADDRESS 0x1312 ===
  0x1312	dec    	eax
  0x1313	xor    	ecx, esp
  0x1315	call   	0x27e0
  === BLOCK LINK ===
    0x131a
    0x27e0
=== CODE BLOCK END ===

=== CODE BLOCK ADDRESS 0x131a ===
  0x131a	dec    	esp
  0x131b	lea    	ebx, [esp + 0x260]
  0x1322	dec    	ecx
  0x1323	mov    	ebx, dword ptr [ebx + 0x20]
  0x1326	dec    	ecx
  === BLOCK LINK ===
    0x1327
=== CODE BLOCK END ===

=== CODE BLOCK ADDRESS 0x1327 ===
  0x1327	mov    	esi, dword ptr [ebx + 0x28]
  0x132a	dec    	ecx
  0x132b	mov    	esp, ebx
  0x132d	pop    	edi
  0x132e	ret    	
  === BLOCK LINK ===
    0x132f
=== CODE BLOCK END ===

=== CODE BLOCK ADDRESS 0x132f ===
  0x132f	int3   	
  0x1330	int3   	
  0x1331	int3   	
  0x1332	int3   	
  0x1333	int3   	
  === BLOCK LINK ===
    0x1334
=== CODE BLOCK END ===

=== CODE BLOCK ADDRESS 0x1334 ===
  0x1334	int3   	
  0x1335	int3   	
  0x1336	int3   	
  0x1337	int3   	
  0x1338	dec    	esp
  === BLOCK LINK ===
    0x1339
=== CODE BLOCK END ===

=== CODE BLOCK ADDRESS 0x1339 ===
  0x1339	mov    	ebx, esp
  0x133b	dec    	ecx
  0x133c	mov    	dword ptr [ebx + 8], ebx
  0x133f	dec    	ecx
  0x1340	mov    	dword ptr [ebx + 0x18], ebp
  === BLOCK LINK ===
    0x1343
=== CODE BLOCK END ===

=== CODE BLOCK ADDRESS 0x1343 ===
  0x1343	dec    	ecx
  0x1344	mov    	dword ptr [ebx + 0x20], esi
  0x1347	push   	edi
  0x1348	dec    	eax
  0x1349	sub    	esp, 0x30
  === BLOCK LINK ===
    0x134c
=== CODE BLOCK END ===

=== CODE BLOCK ADDRESS 0x134c ===
  0x134c	xor    	ebx, ebx
  0x134e	dec    	ecx
  0x134f	mov    	edi, ecx
  0x1351	and    	dword ptr [esp + 0x48], ebx
  0x1355	dec    	ecx
  === BLOCK LINK ===
    0x1356
=== CODE BLOCK END ===

=== CODE BLOCK ADDRESS 0x1356 ===
  0x1356	mov    	esi, eax
  0x1358	dec    	eax
  0x1359	mov    	eax, edx
  0x135b	dec    	eax
  0x135c	mov    	ebp, ecx
  === BLOCK LINK ===
    0x135e
=== CODE BLOCK END ===

=== CODE BLOCK ADDRESS 0x135e ===
  0x135e	dec    	eax
  0x135f	test   	edx, edx
  0x1361	je     	0x1388
  === BLOCK LINK ===
    0x1363
    0x1388
=== CODE BLOCK END ===

=== CODE BLOCK ADDRESS 0x1363 ===
  0x1363	dec    	ebp
  0x1364	mov    	dword ptr [ebx - 0x18], ecx
  0x1367	dec    	eax
  0x1368	lea    	edx, [0x20d2]
  0x136e	dec    	ebp
  === BLOCK LINK ===
    0x136f
=== CODE BLOCK END ===

=== CODE BLOCK ADDRESS 0x136f ===
  0x136f	mov    	ecx, eax
  0x1371	dec    	eax
  0x1372	mov    	ecx, eax
  0x1374	dec    	ebp
  0x1375	lea    	eax, [ebx + 0x10]
  === BLOCK LINK ===
    0x1378
=== CODE BLOCK END ===

=== CODE BLOCK ADDRESS 0x1378 ===
  0x1378	call   	0x1b1c
  === BLOCK LINK ===
    0x137d
    0x1b1c
=== CODE BLOCK END ===

=== CODE BLOCK ADDRESS 0x137d ===
  0x137d	test   	eax, eax
  0x137f	jne    	0x1388
  === BLOCK LINK ===
    0x1381
    0x1388
=== CODE BLOCK END ===

=== CODE BLOCK ADDRESS 0x1381 ===
  0x1381	cmp    	dword ptr [esp + 0x48], 1
  0x1386	je     	0x13bd
  === BLOCK LINK ===
    0x1388
    0x13bd
=== CODE BLOCK END ===

=== CODE BLOCK ADDRESS 0x1388 ===
  0x1388	mov    	eax, dword ptr [esp + 0x60]
  0x138c	dec    	esp
  0x138d	lea    	eax, [esp + 0x48]
  0x1391	dec    	esp
  0x1392	mov    	ecx, esi
  === BLOCK LINK ===
    0x1394
=== CODE BLOCK END ===

=== CODE BLOCK ADDRESS 0x1394 ===
  0x1394	mov    	dword ptr [edi], eax
  0x1396	dec    	eax
  0x1397	lea    	edx, [0x20a3]
  0x139d	dec    	eax
  0x139e	mov    	dword ptr [esp + 0x20], edi
  === BLOCK LINK ===
    0x13a2
=== CODE BLOCK END ===

=== CODE BLOCK ADDRESS 0x13a2 ===
  0x13a2	dec    	eax
  0x13a3	mov    	ecx, ebp
  0x13a5	call   	0x1b1c
  === BLOCK LINK ===
    0x13aa
    0x1b1c
=== CODE BLOCK END ===

=== CODE BLOCK ADDRESS 0x13aa ===
  0x13aa	mov    	ebx, eax
  0x13ac	test   	eax, eax
  0x13ae	jne    	0x13bd
  === BLOCK LINK ===
    0x13b0
=== CODE BLOCK END ===

=== CODE BLOCK ADDRESS 0x13b0 ===
  0x13b0	cmp    	dword ptr [esp + 0x48], 1
  0x13b5	mov    	eax, 0x65d
  0x13ba	cmovne  	ebx, eax
  === BLOCK LINK ===
    0x13bd
=== CODE BLOCK END ===

=== CODE BLOCK ADDRESS 0x13c2 ===
  0x13c2	mov    	eax, ebx
  0x13c4	dec    	eax
  0x13c5	mov    	ebx, dword ptr [esp + 0x40]
  0x13c9	dec    	eax
  0x13ca	mov    	esi, dword ptr [esp + 0x58]
  === BLOCK LINK ===
    0x13ce
=== CODE BLOCK END ===

=== CODE BLOCK ADDRESS 0x13ce ===
  0x13ce	dec    	eax
  0x13cf	add    	esp, 0x30
  0x13d2	pop    	edi
  0x13d3	ret    	
  0x13d4	int3   	
  === BLOCK LINK ===
    0x13d5
=== CODE BLOCK END ===

=== CODE BLOCK ADDRESS 0x10ac ===
=== CODE BLOCK END ===

=== CODE BLOCK ADDRESS 0x13d5 ===
  0x13d5	int3   	
  0x13d6	int3   	
  0x13d7	int3   	
  0x13d8	int3   	
  0x13d9	int3   	
  === BLOCK LINK ===
    0x13da
=== CODE BLOCK END ===

=== CODE BLOCK ADDRESS 0x13da ===
  0x13da	int3   	
  0x13db	int3   	
  0x13dc	dec    	eax
  0x13dd	mov    	eax, esp
  0x13df	dec    	eax
  === BLOCK LINK ===
    0x13e0
=== CODE BLOCK END ===

=== CODE BLOCK ADDRESS 0x13e0 ===
  0x13e0	mov    	dword ptr [eax + 8], ebx
  0x13e3	dec    	eax
  0x13e4	mov    	dword ptr [eax + 0x10], edi
  0x13e7	dec    	esp
  0x13e8	mov    	dword ptr [eax + 0x18], esi
  === BLOCK LINK ===
    0x13eb
=== CODE BLOCK END ===

=== CODE BLOCK ADDRESS 0x13eb ===
  0x13eb	push   	ebp
  0x13ec	dec    	eax
  0x13ed	lea    	ebp, [eax - 0x388]
  0x13f3	dec    	eax
  0x13f4	sub    	esp, 0x480
  === BLOCK LINK ===
    0x13fa
=== CODE BLOCK END ===

=== CODE BLOCK ADDRESS 0x13fa ===
  0x13fa	dec    	eax
  0x13fb	mov    	eax, dword ptr [0x3c07]
  0x1401	dec    	eax
  0x1402	xor    	eax, esp
  0x1404	dec    	eax
  === BLOCK LINK ===
    0x1405
=== CODE BLOCK END ===

=== CODE BLOCK ADDRESS 0x1405 ===
  0x1405	mov    	dword ptr [ebp + 0x370], eax
  0x140b	xor    	ebx, ebx
  0x140d	mov    	dword ptr [esp + 0x40], 0x208
  0x1415	dec    	eax
  0x1416	lea    	edx, [esp + 0x38]
  === BLOCK LINK ===
    0x141a
=== CODE BLOCK END ===

=== CODE BLOCK ADDRESS 0x141a ===
  0x141a	dec    	eax
  0x141b	mov    	dword ptr [esp + 0x30], ebx
  0x141f	dec    	eax
  0x1420	lea    	ecx, [esp + 0x30]
  0x1424	dec    	eax
  === BLOCK LINK ===
    0x1425
=== CODE BLOCK END ===

=== CODE BLOCK ADDRESS 0x1425 ===
  0x1425	mov    	dword ptr [esp + 0x38], ebx
  0x1429	call   	0x1258
  === BLOCK LINK ===
    0x142e
=== CODE BLOCK END ===

=== CODE BLOCK ADDRESS 0x142e ===
  0x142e	mov    	edi, eax
  0x1430	test   	eax, eax
  0x1432	jne    	0x14cd
  === BLOCK LINK ===
    0x1438
=== CODE BLOCK END ===

=== CODE BLOCK ADDRESS 0x1438 ===
  0x1438	dec    	eax
  0x1439	cmp    	dword ptr [esp + 0x30], ebx
  0x143d	jne    	0x1444
  === BLOCK LINK ===
    0x143f
=== CODE BLOCK END ===

=== CODE BLOCK ADDRESS 0x143f ===
  0x143f	lea    	edi, [ebx + 0x57]
  0x1442	jmp    	0x1469
  === BLOCK LINK ===
    0x1444
=== CODE BLOCK END ===

=== CODE BLOCK ADDRESS 0x1444 ===
  0x1444	dec    	eax
  0x1445	mov    	edx, dword ptr [esp + 0x38]
  0x1449	dec    	esp
  0x144a	lea    	ecx, [esp + 0x40]
  0x144e	dec    	eax
  === BLOCK LINK ===
    0x144f
=== CODE BLOCK END ===

=== CODE BLOCK ADDRESS 0x144f ===
  0x144f	mov    	ecx, dword ptr [esp + 0x30]
  0x1453	dec    	esp
  0x1454	lea    	eax, [ebp + 0x160]
  0x145a	mov    	dword ptr [esp + 0x20], 0x208
  0x1462	call   	0x1338
  === BLOCK LINK ===
    0x1467
=== CODE BLOCK END ===

=== CODE BLOCK ADDRESS 0x1467 ===
  0x1467	mov    	edi, eax
  0x1469	test   	edi, edi
  0x146b	jne    	0x149f
  === BLOCK LINK ===
    0x146d
=== CODE BLOCK END ===

=== CODE BLOCK ADDRESS 0x146d ===
  0x146d	mov    	edi, 0x104
  0x1472	dec    	eax
  0x1473	lea    	edx, [esp + 0x50]
  0x1477	inc    	esp
  0x1478	mov    	eax, edi
  === BLOCK LINK ===
    0x147a
=== CODE BLOCK END ===

=== CODE BLOCK ADDRESS 0x147a ===
  0x147a	dec    	eax
  0x147b	lea    	ecx, [ebp + 0x160]
  0x1481	dec    	eax
  0x1482	call   	dword ptr [0x1d68]
  === BLOCK LINK ===
    0x1488
=== CODE BLOCK END ===

=== CODE BLOCK ADDRESS 0x1488 ===
  0x1488	nop    	dword ptr [eax + eax]
  0x148d	test   	eax, eax
  0x148f	jne    	0x150b
  === BLOCK LINK ===
    0x1491
=== CODE BLOCK END ===

=== CODE BLOCK ADDRESS 0x1491 ===
  0x1491	dec    	eax
  0x1492	call   	dword ptr [0x1cd0]
  === BLOCK LINK ===
    0x1498
=== CODE BLOCK END ===

=== CODE BLOCK ADDRESS 0x1498 ===
  0x1498	nop    	dword ptr [eax + eax]
  0x149d	mov    	edi, eax
  0x149f	dec    	eax
  0x14a0	cmp    	dword ptr [esp + 0x30], ebx
  0x14a4	je     	0x14b6
  === BLOCK LINK ===
    0x14a6
=== CODE BLOCK END ===

=== CODE BLOCK ADDRESS 0x14a6 ===
  0x14a6	mov    	ecx, dword ptr [esp + 0x30]
  0x14aa	dec    	eax
  0x14ab	call   	dword ptr [0x1e47]
  === BLOCK LINK ===
    0x14b1
=== CODE BLOCK END ===

=== CODE BLOCK ADDRESS 0x14b1 ===
  0x14b1	nop    	dword ptr [eax + eax]
  0x14b6	dec    	eax
  0x14b7	cmp    	dword ptr [esp + 0x38], ebx
  0x14bb	je     	0x14cd
  === BLOCK LINK ===
    0x14bd
=== CODE BLOCK END ===

=== CODE BLOCK ADDRESS 0x14bd ===
  0x14bd	mov    	ecx, dword ptr [esp + 0x38]
  0x14c1	dec    	eax
  0x14c2	call   	dword ptr [0x1e30]
  === BLOCK LINK ===
    0x14c8
=== CODE BLOCK END ===

=== CODE BLOCK ADDRESS 0x14c8 ===
  0x14c8	nop    	dword ptr [eax + eax]
  0x14cd	mov    	ecx, edi
  0x14cf	dec    	eax
  0x14d0	call   	dword ptr [0x1d22]
  === BLOCK LINK ===
    0x14d6
=== CODE BLOCK END ===

=== CODE BLOCK ADDRESS 0x14d6 ===
  0x14d6	nop    	dword ptr [eax + eax]
  0x14db	test   	edi, edi
  0x14dd	sete   	bl
  0x14e0	mov    	eax, ebx
  0x14e2	dec    	eax
  === BLOCK LINK ===
    0x14e3
=== CODE BLOCK END ===

=== CODE BLOCK ADDRESS 0x14e3 ===
  0x14e3	mov    	ecx, dword ptr [ebp + 0x370]
  0x14e9	dec    	eax
  0x14ea	xor    	ecx, esp
  0x14ec	call   	0x27e0
  === BLOCK LINK ===
    0x14f1
=== CODE BLOCK END ===

=== CODE BLOCK ADDRESS 0x14f1 ===
  0x14f1	dec    	esp
  0x14f2	lea    	ebx, [esp + 0x480]
  0x14f9	dec    	ecx
  0x14fa	mov    	ebx, dword ptr [ebx + 0x10]
  0x14fd	dec    	ecx
  === BLOCK LINK ===
    0x14fe
=== CODE BLOCK END ===

=== CODE BLOCK ADDRESS 0x14fe ===
  0x14fe	mov    	edi, dword ptr [ebx + 0x18]
  0x1501	dec    	ebp
  0x1502	mov    	esi, dword ptr [ebx + 0x20]
  0x1505	dec    	ecx
  0x1506	mov    	esp, ebx
  === BLOCK LINK ===
    0x1508
=== CODE BLOCK END ===

=== CODE BLOCK ADDRESS 0x1508 ===
  0x1508	pop    	ebp
  0x1509	ret    	
  0x150a	int3   	
  0x150b	cmp    	eax, edi
  0x150d	jbe    	0x1516
  === BLOCK LINK ===
    0x150f
=== CODE BLOCK END ===

=== CODE BLOCK ADDRESS 0x150f ===
  0x150f	mov    	edi, 0x7a
  0x1514	jmp    	0x149f
  === BLOCK LINK ===
    0x1516
=== CODE BLOCK END ===

=== CODE BLOCK ADDRESS 0x1516 ===
  0x1516	dec    	eax
  0x1517	lea    	eax, [esp + 0x50]
  0x151b	dec    	ecx
  0x151c	or     	esi, 0xffffffff
  0x151f	dec    	ecx
  === BLOCK LINK ===
    0x1520
=== CODE BLOCK END ===

=== CODE BLOCK ADDRESS 0x1520 ===
  0x1520	inc    	esi
  0x1522	inc    	dx
  0x1524	cmp    	dword ptr [eax + esi*2], ebx
  0x1527	jne    	0x151f
  === BLOCK LINK ===
    0x1529
=== CODE BLOCK END ===

=== CODE BLOCK ADDRESS 0x1529 ===
  0x1529	inc    	esp
  0x152a	mov    	eax, edi
  0x152c	dec    	eax
  0x152d	lea    	edx, [0x1f1d]
  0x1533	dec    	eax
  === BLOCK LINK ===
    0x1534
=== CODE BLOCK END ===

=== CODE BLOCK ADDRESS 0x1534 ===
  0x1534	lea    	ecx, [esp + 0x50]
  0x1538	call   	0x1d1c
  === BLOCK LINK ===
    0x153d
=== CODE BLOCK END ===

=== CODE BLOCK ADDRESS 0x153d ===
  0x153d	test   	eax, eax
  0x153f	je     	0x1491
  === BLOCK LINK ===
    0x1545
=== CODE BLOCK END ===

=== CODE BLOCK ADDRESS 0x1545 ===
  0x1545	dec    	eax
  0x1546	lea    	ecx, [esp + 0x50]
  0x154a	call   	0x1f9c
  === BLOCK LINK ===
    0x154f
=== CODE BLOCK END ===

=== CODE BLOCK ADDRESS 0x154f ===
  0x154f	mov    	edi, eax
  0x1551	test   	eax, eax
  0x1553	jne    	0x149f
  === BLOCK LINK ===
    0x1559
=== CODE BLOCK END ===

=== CODE BLOCK ADDRESS 0x1559 ===
  0x1559	inc    	ecx
  0x155a	mov    	eax, esi
  0x155c	dec    	eax
  0x155d	add    	eax, eax
  0x155f	dec    	eax
  === BLOCK LINK ===
    0x1560
=== CODE BLOCK END ===

=== CODE BLOCK ADDRESS 0x1560 ===
  0x1560	cmp    	eax, 0x208
  0x1565	jae    	0x1598
  === BLOCK LINK ===
    0x1567
=== CODE BLOCK END ===

=== CODE BLOCK ADDRESS 0x1567 ===
  0x1567	lea    	edx, [edi + 1]
  0x156a	mov    	word ptr [esp + eax + 0x50], bx
  0x156f	dec    	eax
  0x1570	lea    	ecx, [esp + 0x50]
  0x1574	call   	0x21d0
  === BLOCK LINK ===
    0x1579
=== CODE BLOCK END ===

=== CODE BLOCK ADDRESS 0x1579 ===
  0x1579	test   	eax, eax
  0x157b	je     	0x1491
  === BLOCK LINK ===
    0x1581
=== CODE BLOCK END ===

=== CODE BLOCK ADDRESS 0x1581 ===
  0x1581	dec    	eax
  0x1582	lea    	ecx, [esp + 0x50]
  0x1586	call   	0x2340
  === BLOCK LINK ===
    0x158b
=== CODE BLOCK END ===

=== CODE BLOCK ADDRESS 0x158b ===
  0x158b	test   	eax, eax
  0x158d	jne    	0x149f
  === BLOCK LINK ===
    0x1593
=== CODE BLOCK END ===

=== CODE BLOCK ADDRESS 0x1593 ===
  0x1593	jmp    	0x1491
  === BLOCK LINK ===
    0x1598
=== CODE BLOCK END ===

=== CODE BLOCK ADDRESS 0x1598 ===
  0x1598	call   	0x2ce8
  === BLOCK LINK ===
    0x159d
=== CODE BLOCK END ===

=== CODE BLOCK ADDRESS 0x159d ===
  0x159d	int3   	
  0x159e	int3   	
  0x159f	int3   	
  0x15a0	int3   	
  0x15a1	int3   	
  === BLOCK LINK ===
    0x15a2
=== CODE BLOCK END ===

=== CODE BLOCK ADDRESS 0x15a2 ===
  0x15a2	int3   	
  0x15a3	int3   	
  0x15a4	dec    	eax
  0x15a5	mov    	dword ptr [esp + 8], ebx
  0x15a9	dec    	eax
  === BLOCK LINK ===
    0x15aa
=== CODE BLOCK END ===

=== CODE BLOCK ADDRESS 0x15aa ===
  0x15aa	mov    	dword ptr [esp + 0x18], esi
  0x15ae	push   	edi
  0x15af	dec    	eax
  0x15b0	sub    	esp, 0x240
  0x15b6	dec    	eax
  === BLOCK LINK ===
    0x15b7
=== CODE BLOCK END ===

=== CODE BLOCK ADDRESS 0x15b7 ===
  0x15b7	mov    	eax, dword ptr [0x3a4b]
  0x15bd	dec    	eax
  0x15be	xor    	eax, esp
  0x15c0	dec    	eax
  0x15c1	mov    	dword ptr [esp + 0x230], eax
  === BLOCK LINK ===
    0x15c8
=== CODE BLOCK END ===

=== CODE BLOCK ADDRESS 0x15c8 ===
  0x15c8	xor    	edi, edi
  0x15ca	mov    	esi, edx
  0x15cc	mov    	ebx, edi
  0x15ce	dec    	eax
  0x15cf	test   	ecx, ecx
  === BLOCK LINK ===
    0x15d1
=== CODE BLOCK END ===

=== CODE BLOCK ADDRESS 0x15d1 ===
  0x15d1	jne    	0x15da
  === BLOCK LINK ===
    0x15d3
=== CODE BLOCK END ===

=== CODE BLOCK ADDRESS 0x15d3 ===
  0x15d3	mov    	ebx, 0x57
  0x15d8	jmp    	0x1637
  === BLOCK LINK ===
    0x15da
=== CODE BLOCK END ===

=== CODE BLOCK ADDRESS 0x15da ===
  0x15da	dec    	esp
  0x15db	mov    	eax, ecx
  0x15dd	mov    	edx, 0x104
  0x15e2	dec    	eax
  0x15e3	lea    	ecx, [esp + 0x20]
  === BLOCK LINK ===
    0x15e7
=== CODE BLOCK END ===

=== CODE BLOCK ADDRESS 0x15e7 ===
  0x15e7	call   	0x18c4
  === BLOCK LINK ===
    0x15ec
=== CODE BLOCK END ===

=== CODE BLOCK ADDRESS 0x15ec ===
  0x15ec	test   	eax, eax
  0x15ee	js     	0x15d3
  === BLOCK LINK ===
    0x15f0
=== CODE BLOCK END ===

=== CODE BLOCK ADDRESS 0x15f0 ===
  0x15f0	inc    	ecx
  0x15f1	mov    	eax, 0x104
  0x15f6	dec    	eax
  0x15f7	lea    	edx, [0x1e7b]
  0x15fd	dec    	eax
  === BLOCK LINK ===
    0x15fe
=== CODE BLOCK END ===

=== CODE BLOCK ADDRESS 0x15fe ===
  0x15fe	lea    	ecx, [esp + 0x20]
  0x1602	call   	0x1d1c
  === BLOCK LINK ===
    0x1607
=== CODE BLOCK END ===

=== CODE BLOCK ADDRESS 0x1607 ===
  0x1607	test   	eax, eax
  0x1609	je     	0x1629
  === BLOCK LINK ===
    0x160b
=== CODE BLOCK END ===

=== CODE BLOCK ADDRESS 0x160b ===
  0x160b	mov    	edx, esi
  0x160d	dec    	eax
  0x160e	lea    	ecx, [esp + 0x20]
  0x1612	call   	0x21d0
  === BLOCK LINK ===
    0x1617
=== CODE BLOCK END ===

=== CODE BLOCK ADDRESS 0x1617 ===
  0x1617	test   	eax, eax
  0x1619	je     	0x1629
  === BLOCK LINK ===
    0x161b
=== CODE BLOCK END ===

=== CODE BLOCK ADDRESS 0x161b ===
  0x161b	dec    	eax
  0x161c	lea    	ecx, [esp + 0x20]
  0x1620	call   	0x2340
  === BLOCK LINK ===
    0x1625
=== CODE BLOCK END ===

=== CODE BLOCK ADDRESS 0x1625 ===
  0x1625	test   	eax, eax
  0x1627	jne    	0x1637
  === BLOCK LINK ===
    0x1629
=== CODE BLOCK END ===

=== CODE BLOCK ADDRESS 0x1629 ===
  0x1629	dec    	eax
  0x162a	call   	dword ptr [0x1b38]
  === BLOCK LINK ===
    0x1630
=== CODE BLOCK END ===

=== CODE BLOCK ADDRESS 0x1630 ===
  0x1630	nop    	dword ptr [eax + eax]
  0x1635	mov    	ebx, eax
  0x1637	mov    	ecx, ebx
  0x1639	dec    	eax
  0x163a	call   	dword ptr [0x1bb8]
  === BLOCK LINK ===
    0x1640
=== CODE BLOCK END ===

=== CODE BLOCK ADDRESS 0x1640 ===
  0x1640	nop    	dword ptr [eax + eax]
  0x1645	test   	ebx, ebx
  0x1647	inc    	eax
  0x1648	sete   	bh
  0x164b	mov    	eax, edi
  === BLOCK LINK ===
    0x164d
=== CODE BLOCK END ===

=== CODE BLOCK ADDRESS 0x164d ===
  0x164d	dec    	eax
  0x164e	mov    	ecx, dword ptr [esp + 0x230]
  0x1655	dec    	eax
  0x1656	xor    	ecx, esp
  0x1658	call   	0x27e0
  === BLOCK LINK ===
    0x165d
=== CODE BLOCK END ===

=== CODE BLOCK ADDRESS 0x165d ===
  0x165d	dec    	esp
  0x165e	lea    	ebx, [esp + 0x240]
  0x1665	dec    	ecx
  0x1666	mov    	ebx, dword ptr [ebx + 0x10]
  0x1669	dec    	ecx
  === BLOCK LINK ===
    0x166a
=== CODE BLOCK END ===

=== CODE BLOCK ADDRESS 0x166a ===
  0x166a	mov    	esi, dword ptr [ebx + 0x20]
  0x166d	dec    	ecx
  0x166e	mov    	esp, ebx
  0x1670	pop    	edi
  0x1671	ret    	
  === BLOCK LINK ===
    0x1672
=== CODE BLOCK END ===

=== CODE BLOCK ADDRESS 0x1784 ===
  0x1784	inc    	eax
  0x1785	push   	ebx
  0x1786	dec    	eax
  0x1787	sub    	esp, 0x280
  0x178d	dec    	eax
  === BLOCK LINK ===
    0x178e
=== CODE BLOCK END ===

=== CODE BLOCK ADDRESS 0x1672 ===
  0x1672	int3   	
  0x1673	int3   	
  0x1674	int3   	
  0x1675	int3   	
  0x1676	int3   	
  === BLOCK LINK ===
    0x1677
=== CODE BLOCK END ===

=== CODE BLOCK ADDRESS 0x1677 ===
  0x1677	int3   	
  0x1678	int3   	
  0x1679	int3   	
  0x167a	int3   	
  0x167b	int3   	
  === BLOCK LINK ===
    0x167c
=== CODE BLOCK END ===

=== CODE BLOCK ADDRESS 0x167c ===
  0x167c	inc    	eax
  0x167d	push   	ebx
  0x167e	dec    	eax
  0x167f	sub    	esp, 0x40
  0x1682	xor    	ebx, ebx
  === BLOCK LINK ===
    0x1684
=== CODE BLOCK END ===

=== CODE BLOCK ADDRESS 0x1684 ===
  0x1684	cmp    	dword ptr [0x3f6e], ebx
  0x168a	je     	0x1772
  === BLOCK LINK ===
    0x1690
=== CODE BLOCK END ===

=== CODE BLOCK ADDRESS 0x1690 ===
  0x1690	dec    	eax
  0x1691	lea    	ecx, [esp + 0x20]
  0x1695	call   	0x1164
  === BLOCK LINK ===
    0x169a
=== CODE BLOCK END ===

=== CODE BLOCK ADDRESS 0x169a ===
  0x169a	test   	eax, eax
  0x169c	je     	0x1772
  === BLOCK LINK ===
    0x16a2
=== CODE BLOCK END ===

=== CODE BLOCK ADDRESS 0x16a2 ===
  0x16a2	sub    	dword ptr [0x3f53], 1
  0x16a9	jne    	0x1746
  === BLOCK LINK ===
    0x16af
=== CODE BLOCK END ===

=== CODE BLOCK ADDRESS 0x16af ===
  0x16af	cmp    	dword ptr [0x3f33], ebx
  0x16b5	je     	0x1712
  === BLOCK LINK ===
    0x16b7
=== CODE BLOCK END ===

=== CODE BLOCK ADDRESS 0x16b7 ===
  0x16b7	call   	0x22b0
  === BLOCK LINK ===
    0x16bc
=== CODE BLOCK END ===

=== CODE BLOCK ADDRESS 0x16bc ===
  0x16bc	dec    	esp
  0x16bd	mov    	eax, dword ptr [0x3f7d]
  0x16c3	dec    	ebp
  0x16c4	test   	eax, eax
  0x16c6	je     	0x16e4
  === BLOCK LINK ===
    0x16c8
=== CODE BLOCK END ===

=== CODE BLOCK ADDRESS 0x16c8 ===
  0x16c8	dec    	eax
  0x16c9	mov    	ecx, dword ptr [0x3fa9]
  0x16cf	xor    	edx, edx
  0x16d1	dec    	eax
  0x16d2	call   	dword ptr [0x1a68]
  === BLOCK LINK ===
    0x16d8
=== CODE BLOCK END ===

=== CODE BLOCK ADDRESS 0x16d8 ===
  0x16d8	nop    	dword ptr [eax + eax]
  0x16dd	dec    	eax
  0x16de	mov    	dword ptr [0x3f5c], ebx
  0x16e4	dec    	esp
  0x16e5	mov    	eax, dword ptr [0x3f25]
  === BLOCK LINK ===
    0x16eb
=== CODE BLOCK END ===

=== CODE BLOCK ADDRESS 0x16eb ===
  0x16eb	dec    	ebp
  0x16ec	test   	eax, eax
  0x16ee	je     	0x170c
  === BLOCK LINK ===
    0x16f0
=== CODE BLOCK END ===

=== CODE BLOCK ADDRESS 0x16f0 ===
  0x16f0	dec    	eax
  0x16f1	mov    	ecx, dword ptr [0x3f81]
  0x16f7	xor    	edx, edx
  0x16f9	dec    	eax
  0x16fa	call   	dword ptr [0x1a40]
  === BLOCK LINK ===
    0x1700
=== CODE BLOCK END ===

=== CODE BLOCK ADDRESS 0x1700 ===
  0x1700	nop    	dword ptr [eax + eax]
  0x1705	dec    	eax
  0x1706	mov    	dword ptr [0x3f04], ebx
  0x170c	mov    	dword ptr [0x3ed6], ebx
  0x1712	dec    	esp
  === BLOCK LINK ===
    0x1713
=== CODE BLOCK END ===

=== CODE BLOCK ADDRESS 0x1713 ===
  0x1713	mov    	eax, dword ptr [0x3ed7]
  0x1719	dec    	ebp
  0x171a	test   	eax, eax
  0x171c	je     	0x173a
  === BLOCK LINK ===
    0x171e
=== CODE BLOCK END ===

=== CODE BLOCK ADDRESS 0x171e ===
  0x171e	dec    	eax
  0x171f	mov    	ecx, dword ptr [0x3f53]
  0x1725	xor    	edx, edx
  0x1727	dec    	eax
  0x1728	call   	dword ptr [0x1a12]
  === BLOCK LINK ===
    0x172e
=== CODE BLOCK END ===

=== CODE BLOCK ADDRESS 0x172e ===
  0x172e	nop    	dword ptr [eax + eax]
  0x1733	dec    	eax
  0x1734	mov    	dword ptr [0x3eb6], ebx
  0x173a	mov    	dword ptr [0x3f40], ebx
  0x1740	mov    	dword ptr [0x3eb2], ebx
  === BLOCK LINK ===
    0x1746
=== CODE BLOCK END ===

=== CODE BLOCK ADDRESS 0x1746 ===
  0x1746	dec    	eax
  0x1747	lea    	eax, [esp + 0x20]
  0x174b	.byte  	0xf0
  0x174c	dec    	eax
  0x174d	cmpxchg  	dword ptr [0x3e8c], ebx
  === BLOCK LINK ===
    0x1754
=== CODE BLOCK END ===

=== CODE BLOCK ADDRESS 0x1754 ===
  0x1754	dec    	eax
  0x1755	lea    	ecx, [esp + 0x20]
  0x1759	dec    	eax
  0x175a	cmp    	eax, ecx
  0x175c	je     	0x176b
  === BLOCK LINK ===
    0x175e
=== CODE BLOCK END ===

=== CODE BLOCK ADDRESS 0x175e ===
  0x175e	dec    	eax
  0x175f	mov    	edx, eax
  0x1761	dec    	eax
  0x1762	lea    	ecx, [esp + 0x20]
  0x1766	call   	0x1218
  === BLOCK LINK ===
    0x176b
=== CODE BLOCK END ===

=== CODE BLOCK ADDRESS 0x176b ===
  0x176b	mov    	eax, 1
  0x1770	jmp    	0x1774
  === BLOCK LINK ===
    0x1772
=== CODE BLOCK END ===

=== CODE BLOCK ADDRESS 0x1772 ===
  0x1772	xor    	eax, eax
  0x1774	dec    	eax
  0x1775	add    	esp, 0x40
  0x1778	pop    	ebx
  0x1779	ret    	
  === BLOCK LINK ===
    0x177a
=== CODE BLOCK END ===

=== CODE BLOCK ADDRESS 0x107e ===
  0x107e	test   	ecx, ecx
  0x1080	jne    	0x10ac
  === BLOCK LINK ===
    0x1082
=== CODE BLOCK END ===

=== CODE BLOCK ADDRESS 0x177a ===
  0x177a	int3   	
  0x177b	int3   	
  0x177c	int3   	
  0x177d	int3   	
  0x177e	int3   	
  === BLOCK LINK ===
    0x177f
=== CODE BLOCK END ===

=== CODE BLOCK ADDRESS 0x177f ===
  0x177f	int3   	
  0x1780	int3   	
  0x1781	int3   	
  0x1782	int3   	
  0x1783	int3   	
  === BLOCK LINK ===
    0x1784
=== CODE BLOCK END ===

=== CODE BLOCK ADDRESS 0x178e ===
  0x178e	mov    	eax, dword ptr [0x3874]
  0x1794	dec    	eax
  0x1795	xor    	eax, esp
  0x1797	dec    	eax
  0x1798	mov    	dword ptr [esp + 0x270], eax
  === BLOCK LINK ===
    0x179f
=== CODE BLOCK END ===

=== CODE BLOCK ADDRESS 0x179f ===
  0x179f	dec    	esp
  0x17a0	mov    	eax, dword ptr [0x3e4a]
  0x17a6	xor    	ebx, ebx
  0x17a8	dec    	ebp
  0x17a9	test   	eax, eax
  === BLOCK LINK ===
    0x17ab
=== CODE BLOCK END ===

=== CODE BLOCK ADDRESS 0x17ab ===
  0x17ab	je     	0x17c9
  === BLOCK LINK ===
    0x17ad
=== CODE BLOCK END ===

=== CODE BLOCK ADDRESS 0x17ad ===
  0x17ad	dec    	eax
  0x17ae	mov    	ecx, dword ptr [0x3ec4]
  0x17b4	xor    	edx, edx
  0x17b6	dec    	eax
  0x17b7	call   	dword ptr [0x1983]
  === BLOCK LINK ===
    0x17bd
=== CODE BLOCK END ===

=== CODE BLOCK ADDRESS 0x17bd ===
  0x17bd	nop    	dword ptr [eax + eax]
  0x17c2	dec    	eax
  0x17c3	mov    	dword ptr [0x3e27], ebx
  0x17c9	mov    	edx, 0x104
  0x17ce	mov    	dword ptr [0x3848], 1
  === BLOCK LINK ===
    0x17d8
=== CODE BLOCK END ===

=== CODE BLOCK ADDRESS 0x17d8 ===
  0x17d8	dec    	eax
  0x17d9	lea    	ecx, [esp + 0x20]
  0x17dd	dec    	eax
  0x17de	call   	dword ptr [0x1a1c]
  === BLOCK LINK ===
    0x17e4
=== CODE BLOCK END ===

=== CODE BLOCK ADDRESS 0x17e4 ===
  0x17e4	nop    	dword ptr [eax + eax]
  0x17e9	dec    	eax
  0x17eb	cmp    	eax, 0x103
  0x17f0	ja     	0x1841
  === BLOCK LINK ===
    0x17f2
=== CODE BLOCK END ===

=== CODE BLOCK ADDRESS 0x17f2 ===
  0x17f2	dec    	eax
  0x17f3	lea    	ecx, [esp + 0x20]
  0x17f7	call   	0x1c78
  === BLOCK LINK ===
    0x17fc
=== CODE BLOCK END ===

=== CODE BLOCK ADDRESS 0x17fc ===
  0x17fc	dec    	eax
  0x17fd	mov    	dword ptr [0x3ded], eax
  0x1803	dec    	eax
  0x1804	test   	eax, eax
  0x1806	je     	0x1841
  === BLOCK LINK ===
    0x1808
=== CODE BLOCK END ===

=== CODE BLOCK ADDRESS 0x1808 ===
  0x1808	cmp    	dword ptr [0x3dda], ebx
  0x180e	je     	0x183c
  === BLOCK LINK ===
    0x1810
=== CODE BLOCK END ===

=== CODE BLOCK ADDRESS 0x1810 ===
  0x1810	mov    	edx, dword ptr [0x380a]
  0x1816	test   	edx, edx
  0x1818	je     	0x1830
  === BLOCK LINK ===
    0x181a
=== CODE BLOCK END ===

=== CODE BLOCK ADDRESS 0x181a ===
  0x181a	call   	0x13dc
  === BLOCK LINK ===
    0x181f
=== CODE BLOCK END ===

=== CODE BLOCK ADDRESS 0x181f ===
  0x181f	test   	eax, eax
  0x1821	jne    	0x183c
  === BLOCK LINK ===
    0x1823
=== CODE BLOCK END ===

=== CODE BLOCK ADDRESS 0x1823 ===
  0x1823	dec    	eax
  0x1824	mov    	eax, dword ptr [0x3dc6]
  0x182a	mov    	edx, dword ptr [0x37f0]
  0x1830	dec    	eax
  0x1831	mov    	ecx, eax
  === BLOCK LINK ===
    0x1833
=== CODE BLOCK END ===

=== CODE BLOCK ADDRESS 0x1833 ===
  0x1833	call   	0x15a4
  === BLOCK LINK ===
    0x1838
=== CODE BLOCK END ===

=== CODE BLOCK ADDRESS 0x1838 ===
  0x1838	test   	eax, eax
  0x183a	je     	0x1841
  === BLOCK LINK ===
    0x183c
=== CODE BLOCK END ===

=== CODE BLOCK ADDRESS 0x183c ===
  0x183c	mov    	ebx, 1
  0x1841	mov    	eax, ebx
  0x1843	dec    	eax
  0x1844	mov    	ecx, dword ptr [esp + 0x270]
  0x184b	dec    	eax
  === BLOCK LINK ===
    0x184c
=== CODE BLOCK END ===

=== CODE BLOCK ADDRESS 0x184c ===
  0x184c	xor    	ecx, esp
  0x184e	call   	0x27e0
  === BLOCK LINK ===
    0x1853
=== CODE BLOCK END ===

=== CODE BLOCK ADDRESS 0x1853 ===
  0x1853	dec    	eax
  0x1854	add    	esp, 0x280
  0x185a	pop    	ebx
  0x185b	ret    	
  0x185c	int3   	
  === BLOCK LINK ===
    0x185d
=== CODE BLOCK END ===

=== CODE BLOCK ADDRESS 0x185d ===
  0x185d	int3   	
  0x185e	int3   	
  0x185f	int3   	
  0x1860	int3   	
  0x1861	int3   	
  === BLOCK LINK ===
    0x1862
=== CODE BLOCK END ===

=== CODE BLOCK ADDRESS 0x1862 ===
  0x1862	int3   	
  0x1863	int3   	
  0x1864	dec    	eax
  0x1865	sub    	esp, 0x28
  0x1868	cmp    	ecx, 0xc00000fd
  === BLOCK LINK ===
    0x186e
=== CODE BLOCK END ===

=== CODE BLOCK ADDRESS 0x186e ===
  0x186e	jne    	0x189e
  === BLOCK LINK ===
    0x1870
=== CODE BLOCK END ===

=== CODE BLOCK ADDRESS 0x1870 ===
  0x1870	dec    	eax
  0x1871	call   	dword ptr [0x1a39]
  === BLOCK LINK ===
    0x1877
=== CODE BLOCK END ===

=== CODE BLOCK ADDRESS 0x1877 ===
  0x1877	nop    	dword ptr [eax + eax]
  0x187c	test   	eax, eax
  0x187e	jne    	0x18b5
  === BLOCK LINK ===
    0x1880
=== CODE BLOCK END ===

=== CODE BLOCK ADDRESS 0x1880 ===
  0x1880	inc    	ebp
  0x1881	xor    	ecx, ecx
  0x1883	lea    	edx, [eax + 1]
  0x1886	inc    	ebp
  0x1887	xor    	eax, eax
  === BLOCK LINK ===
    0x1889
=== CODE BLOCK END ===

=== CODE BLOCK ADDRESS 0x1889 ===
  0x1889	mov    	ecx, 0xe0000300
  0x188e	dec    	eax
  0x188f	add    	esp, 0x28
  0x1892	dec    	eax
  0x1893	jmp    	dword ptr [0x196f]
  === BLOCK LINK ===
    0x1899
=== CODE BLOCK END ===

=== CODE BLOCK ADDRESS 0x1899 ===
  0x1899	int3   	
  0x189a	int3   	
  0x189b	int3   	
  0x189c	int3   	
  0x189d	int3   	
  === BLOCK LINK ===
    0x189e
=== CODE BLOCK END ===

=== CODE BLOCK ADDRESS 0x189e ===
  0x189e	lea    	eax, [ecx + 0x3ffffffb]
  0x18a4	cmp    	eax, 1
  0x18a7	jbe    	0x18b5
  === BLOCK LINK ===
    0x18a9
=== CODE BLOCK END ===

=== CODE BLOCK ADDRESS 0x18a9 ===
  0x18a9	dec    	eax
  0x18aa	call   	dword ptr [0x1a30]
  === BLOCK LINK ===
    0x18b0
=== CODE BLOCK END ===

=== CODE BLOCK ADDRESS 0x18b0 ===
  0x18b0	nop    	dword ptr [eax + eax]
  0x18b5	dec    	eax
  0x18b6	add    	esp, 0x28
  0x18b9	ret    	
  0x18ba	int3   	
  === BLOCK LINK ===
    0x18bb
=== CODE BLOCK END ===

=== CODE BLOCK ADDRESS 0x10a6 ===
  0x10a6	mov    	dword ptr [0x45d4], ebx
  0x10ac	dec    	eax
  === BLOCK LINK ===
    0x10ad
=== CODE BLOCK END ===

=== CODE BLOCK ADDRESS 0x18bb ===
  0x18bb	int3   	
  0x18bc	int3   	
  0x18bd	int3   	
  0x18be	int3   	
  0x18bf	int3   	
  === BLOCK LINK ===
    0x18c0
=== CODE BLOCK END ===

=== CODE BLOCK ADDRESS 0x18c0 ===
  0x18c0	int3   	
  0x18c1	int3   	
  0x18c2	int3   	
  0x18c3	int3   	
  0x18c4	dec    	eax
  === BLOCK LINK ===
    0x18c5
=== CODE BLOCK END ===

=== CODE BLOCK ADDRESS 0x18c5 ===
  0x18c5	mov    	dword ptr [esp + 8], ebx
  0x18c9	xor    	ebx, ebx
  0x18cb	dec    	eax
  0x18cc	lea    	eax, [edx - 1]
  0x18cf	inc    	ecx
  === BLOCK LINK ===
    0x18d0
=== CODE BLOCK END ===

=== CODE BLOCK ADDRESS 0x18d0 ===
  0x18d0	mov    	edx, 0x7ffffffe
  0x18d5	inc    	esp
  0x18d6	mov    	ecx, ebx
  0x18d8	dec    	ecx
  0x18d9	cmp    	eax, edx
  === BLOCK LINK ===
    0x18db
=== CODE BLOCK END ===

=== CODE BLOCK ADDRESS 0x18db ===
  0x18db	inc    	ecx
  0x18dc	mov    	ebx, 0x80070057
  0x18e1	inc    	ebp
  0x18e2	cmova  	ecx, ebx
  0x18e5	inc    	ebp
  === BLOCK LINK ===
    0x18e6
=== CODE BLOCK END ===

=== CODE BLOCK ADDRESS 0x18e6 ===
  0x18e6	test   	ecx, ecx
  0x18e8	js     	0x1935
  === BLOCK LINK ===
    0x18ea
=== CODE BLOCK END ===

=== CODE BLOCK ADDRESS 0x18ea ===
  0x18ea	dec    	eax
  0x18eb	test   	edx, edx
  0x18ed	je     	0x1915
  === BLOCK LINK ===
    0x18ef
=== CODE BLOCK END ===

=== CODE BLOCK ADDRESS 0x18ef ===
  0x18ef	dec    	esp
  0x18f0	sub    	edx, edx
  0x18f2	dec    	esp
  0x18f3	sub    	eax, ecx
  0x18f5	dec    	ecx
  === BLOCK LINK ===
    0x18f6
=== CODE BLOCK END ===

=== CODE BLOCK ADDRESS 0x18f6 ===
  0x18f6	lea    	eax, [edx + edx]
  0x18f9	dec    	eax
  0x18fa	test   	eax, eax
  0x18fc	je     	0x1915
  === BLOCK LINK ===
    0x18fe
=== CODE BLOCK END ===

=== CODE BLOCK ADDRESS 0x18fe ===
  0x18fe	inc    	ecx
  0x18ff	movzx  	eax, word ptr [eax + ecx]
  0x1903	test   	ax, ax
  0x1906	je     	0x1915
  === BLOCK LINK ===
    0x1908
=== CODE BLOCK END ===

=== CODE BLOCK ADDRESS 0x1908 ===
  0x1908	mov    	word ptr [ecx], ax
  0x190b	dec    	eax
  0x190c	add    	ecx, 2
  0x190f	dec    	eax
  0x1910	sub    	edx, 1
  === BLOCK LINK ===
    0x1913
=== CODE BLOCK END ===

=== CODE BLOCK ADDRESS 0x1913 ===
  0x1913	jne    	0x18f5
  === BLOCK LINK ===
    0x1915
=== CODE BLOCK END ===

=== CODE BLOCK ADDRESS 0x1915 ===
  0x1915	dec    	eax
  0x1916	test   	edx, edx
  0x1918	dec    	eax
  0x1919	lea    	eax, [ecx - 2]
  0x191c	dec    	eax
  === BLOCK LINK ===
    0x191d
=== CODE BLOCK END ===

=== CODE BLOCK ADDRESS 0x191d ===
  0x191d	cmovne  	eax, ecx
  0x1920	dec    	eax
  0x1921	neg    	edx
  0x1923	inc    	ebp
  0x1924	sbb    	ecx, ecx
  === BLOCK LINK ===
    0x1926
=== CODE BLOCK END ===

=== CODE BLOCK ADDRESS 0x1926 ===
  0x1926	inc    	ecx
  0x1927	not    	ecx
  0x1929	inc    	ecx
  0x192a	and    	ecx, 0x8007007a
  0x1930	mov    	word ptr [eax], bx
  === BLOCK LINK ===
    0x1933
=== CODE BLOCK END ===

=== CODE BLOCK ADDRESS 0x1933 ===
  0x1933	jmp    	0x193d
  === BLOCK LINK ===
    0x1935
=== CODE BLOCK END ===

=== CODE BLOCK ADDRESS 0x1935 ===
  0x1935	dec    	eax
  0x1936	test   	edx, edx
  0x1938	je     	0x193d
  === BLOCK LINK ===
    0x193a
=== CODE BLOCK END ===

=== CODE BLOCK ADDRESS 0x193a ===
  0x193a	mov    	word ptr [ecx], bx
  0x193d	dec    	eax
  0x193e	mov    	ebx, dword ptr [esp + 8]
  0x1942	inc    	ecx
  0x1943	mov    	eax, ecx
  === BLOCK LINK ===
    0x1945
=== CODE BLOCK END ===

=== CODE BLOCK ADDRESS 0x1945 ===
  0x1945	ret    	
  0x1946	int3   	
  0x1947	int3   	
  0x1948	int3   	
  0x1949	int3   	
  === BLOCK LINK ===
    0x194a
=== CODE BLOCK END ===

=== CODE BLOCK ADDRESS 0x194a ===
  0x194a	int3   	
  0x194b	int3   	
  0x194c	int3   	
  0x194d	int3   	
  0x194e	int3   	
  === BLOCK LINK ===
    0x194f
=== CODE BLOCK END ===

=== CODE BLOCK ADDRESS 0x194f ===
  0x194f	int3   	
  0x1950	inc    	eax
  0x1951	push   	ebx
  0x1952	dec    	eax
  0x1953	sub    	esp, 0x40
  === BLOCK LINK ===
    0x1956
=== CODE BLOCK END ===

=== CODE BLOCK ADDRESS 0x1956 ===
  0x1956	xorps  	xmm0, xmm0
  0x1959	dec    	eax
  0x195a	mov    	ebx, edx
  0x195c	movups  	xmmword ptr [esp + 0x30], xmm0
  0x1961	dec    	eax
  === BLOCK LINK ===
    0x1962
=== CODE BLOCK END ===

=== CODE BLOCK ADDRESS 0x1962 ===
  0x1962	cmp    	ecx, 0x80000002
  0x1968	jne    	0x1973
  === BLOCK LINK ===
    0x196a
=== CODE BLOCK END ===

=== CODE BLOCK ADDRESS 0x196a ===
  0x196a	dec    	eax
  0x196b	lea    	edx, [0x1b0f]
  0x1971	jmp    	0x19de
  === BLOCK LINK ===
    0x1973
=== CODE BLOCK END ===

=== CODE BLOCK ADDRESS 0x1973 ===
  0x1973	dec    	eax
  0x1974	cmp    	ecx, 0x80000000
  0x197a	jne    	0x1985
  === BLOCK LINK ===
    0x197c
=== CODE BLOCK END ===

=== CODE BLOCK ADDRESS 0x197c ===
  0x197c	dec    	eax
  0x197d	lea    	edx, [0x1b2d]
  0x1983	jmp    	0x19de
  === BLOCK LINK ===
    0x1985
=== CODE BLOCK END ===

=== CODE BLOCK ADDRESS 0x1985 ===
  0x1985	dec    	eax
  0x1986	cmp    	ecx, 0x80000003
  0x198c	jne    	0x1997
  === BLOCK LINK ===
    0x198e
=== CODE BLOCK END ===

=== CODE BLOCK ADDRESS 0x198e ===
  0x198e	dec    	eax
  0x198f	lea    	edx, [0x1b63]
  0x1995	jmp    	0x19de
  === BLOCK LINK ===
    0x1997
=== CODE BLOCK END ===

=== CODE BLOCK ADDRESS 0x1997 ===
  0x1997	dec    	eax
  0x1998	cmp    	ecx, 0x80000005
  0x199e	jne    	0x19a9
  === BLOCK LINK ===
    0x19a0
=== CODE BLOCK END ===

=== CODE BLOCK ADDRESS 0x19a0 ===
  0x19a0	dec    	eax
  0x19a1	lea    	edx, [0x1b79]
  0x19a7	jmp    	0x19de
  === BLOCK LINK ===
    0x19a9
=== CODE BLOCK END ===

=== CODE BLOCK ADDRESS 0x19a9 ===
  0x19a9	dec    	eax
  0x19aa	cmp    	ecx, 0x80000001
  0x19b0	jne    	0x19f5
  === BLOCK LINK ===
    0x19b2
=== CODE BLOCK END ===

=== CODE BLOCK ADDRESS 0x19b2 ===
  0x19b2	dec    	eax
  0x19b3	lea    	ecx, [esp + 0x30]
  0x19b7	dec    	eax
  0x19b8	call   	dword ptr [0x192a]
  === BLOCK LINK ===
    0x19be
=== CODE BLOCK END ===

=== CODE BLOCK ADDRESS 0x19be ===
  0x19be	nop    	dword ptr [eax + eax]
  0x19c3	test   	eax, eax
  0x19c5	jns    	0x19d9
  === BLOCK LINK ===
    0x19c7
=== CODE BLOCK END ===

=== CODE BLOCK ADDRESS 0x19c7 ===
  0x19c7	mov    	ecx, eax
  0x19c9	dec    	eax
  0x19ca	call   	dword ptr [0x1910]
  === BLOCK LINK ===
    0x19d0
=== CODE BLOCK END ===

=== CODE BLOCK ADDRESS 0x19d0 ===
  0x19d0	nop    	dword ptr [eax + eax]
  0x19d5	mov    	ebx, eax
  0x19d7	jmp    	0x19fa
  === BLOCK LINK ===
    0x19d9
=== CODE BLOCK END ===

=== CODE BLOCK ADDRESS 0x19d9 ===
  0x19d9	dec    	eax
  0x19da	mov    	edx, dword ptr [esp + 0x38]
  0x19de	inc    	ecx
  0x19df	mov    	ecx, 0x2000000
  0x19e4	dec    	eax
  === BLOCK LINK ===
    0x19e5
=== CODE BLOCK END ===

=== CODE BLOCK ADDRESS 0x19e5 ===
  0x19e5	mov    	dword ptr [esp + 0x20], ebx
  0x19e9	inc    	ebp
  0x19ea	xor    	eax, eax
  0x19ec	xor    	ecx, ecx
  0x19ee	call   	0x1a24
  === BLOCK LINK ===
    0x19f3
=== CODE BLOCK END ===

=== CODE BLOCK ADDRESS 0x19f3 ===
  0x19f3	jmp    	0x19d5
  === BLOCK LINK ===
    0x19f5
=== CODE BLOCK END ===

=== CODE BLOCK ADDRESS 0x19f5 ===
  0x19f5	mov    	ebx, 0x32
  0x19fa	dec    	eax
  0x19fb	cmp    	dword ptr [esp + 0x38], 0
  0x1a00	je     	0x1a13
  === BLOCK LINK ===
    0x1a02
=== CODE BLOCK END ===

=== CODE BLOCK ADDRESS 0x1a02 ===
  0x1a02	dec    	eax
  0x1a03	lea    	ecx, [esp + 0x30]
  0x1a07	dec    	eax
  0x1a08	call   	dword ptr [0x18e2]
  === BLOCK LINK ===
    0x1a0e
=== CODE BLOCK END ===

=== CODE BLOCK ADDRESS 0x1a0e ===
  0x1a0e	nop    	dword ptr [eax + eax]
  0x1a13	mov    	eax, ebx
  0x1a15	dec    	eax
  0x1a16	add    	esp, 0x40
  0x1a19	pop    	ebx
  === BLOCK LINK ===
    0x1a1a
=== CODE BLOCK END ===

=== CODE BLOCK ADDRESS 0x1a1a ===
  0x1a1a	ret    	
  0x1a1b	int3   	
  0x1a1c	int3   	
  0x1a1d	int3   	
  0x1a1e	int3   	
  === BLOCK LINK ===
    0x1a1f
=== CODE BLOCK END ===

=== CODE BLOCK ADDRESS 0x1218 ===
=== CODE BLOCK END ===

=== CODE BLOCK ADDRESS 0x1a1f ===
  0x1a1f	int3   	
  0x1a20	int3   	
  0x1a21	int3   	
  0x1a22	int3   	
  0x1a23	int3   	
  === BLOCK LINK ===
    0x1a24
=== CODE BLOCK END ===

=== CODE BLOCK ADDRESS 0x1a24 ===
  0x1a24	dec    	eax
  0x1a25	mov    	dword ptr [esp + 0x10], ebx
  0x1a29	dec    	eax
  0x1a2a	mov    	dword ptr [esp + 0x18], esi
  0x1a2e	dec    	eax
  === BLOCK LINK ===
    0x1a2f
=== CODE BLOCK END ===

=== CODE BLOCK ADDRESS 0x1a2f ===
  0x1a2f	mov    	dword ptr [esp + 0x20], edi
  0x1a33	push   	ebp
  0x1a34	inc    	ecx
  0x1a35	push   	esi
  0x1a36	inc    	ecx
  === BLOCK LINK ===
    0x1a37
=== CODE BLOCK END ===

=== CODE BLOCK ADDRESS 0x1a37 ===
  0x1a37	push   	edi
  0x1a38	dec    	eax
  0x1a39	mov    	ebp, esp
  0x1a3b	dec    	eax
  0x1a3c	sub    	esp, 0x70
  === BLOCK LINK ===
    0x1a3f
=== CODE BLOCK END ===

=== CODE BLOCK ADDRESS 0x1a3f ===
  0x1a3f	xor    	ebx, ebx
  0x1a41	mov    	eax, 0x80000000
  0x1a46	dec    	eax
  0x1a47	add    	eax, ecx
  0x1a49	dec    	eax
  === BLOCK LINK ===
    0x1a4a
=== CODE BLOCK END ===

=== CODE BLOCK ADDRESS 0x1a4a ===
  0x1a4a	mov    	dword ptr [ebp + 0x20], ebx
  0x1a4d	xor    	edi, edi
  0x1a4f	inc    	ebp
  0x1a50	mov    	esi, ecx
  0x1a52	dec    	esp
  === BLOCK LINK ===
    0x1a53
=== CODE BLOCK END ===

=== CODE BLOCK ADDRESS 0x1a53 ===
  0x1a53	mov    	edi, edx
  0x1a55	dec    	eax
  0x1a56	mov    	esi, ecx
  0x1a58	dec    	eax
  0x1a59	cmp    	eax, 7
  === BLOCK LINK ===
    0x1a5c
=== CODE BLOCK END ===

=== CODE BLOCK ADDRESS 0x1a5c ===
  0x1a5c	ja     	0x1a71
  === BLOCK LINK ===
    0x1a5e
=== CODE BLOCK END ===

=== CODE BLOCK ADDRESS 0x1a5e ===
  0x1a5e	dec    	eax
  0x1a5f	lea    	edx, [ebp + 0x20]
  0x1a62	call   	0x1950
  === BLOCK LINK ===
    0x1a67
=== CODE BLOCK END ===

=== CODE BLOCK ADDRESS 0x1a67 ===
  0x1a67	dec    	eax
  0x1a68	mov    	ebx, dword ptr [ebp + 0x20]
  0x1a6b	mov    	edi, eax
  0x1a6d	test   	eax, eax
  0x1a6f	jne    	0x1ae5
  === BLOCK LINK ===
    0x1a71
=== CODE BLOCK END ===

=== CODE BLOCK ADDRESS 0x1a71 ===
  0x1a71	dec    	ecx
  0x1a72	mov    	edx, edi
  0x1a74	dec    	eax
  0x1a75	lea    	ecx, [ebp - 0x48]
  0x1a78	dec    	eax
  === BLOCK LINK ===
    0x1a79
=== CODE BLOCK END ===

=== CODE BLOCK ADDRESS 0x1a79 ===
  0x1a79	call   	dword ptr [0x1881]
  === BLOCK LINK ===
    0x1a7f
=== CODE BLOCK END ===

=== CODE BLOCK ADDRESS 0x1a7f ===
  0x1a7f	nop    	dword ptr [eax + eax]
  0x1a84	dec    	eax
  0x1a85	lea    	eax, [ebp - 0x48]
  0x1a88	mov    	dword ptr [ebp - 0x38], 0x30
  0x1a8f	xorps  	xmm0, xmm0
  === BLOCK LINK ===
    0x1a92
=== CODE BLOCK END ===

=== CODE BLOCK ADDRESS 0x1a92 ===
  0x1a92	mov    	dword ptr [ebp - 0x20], 0x40
  0x1a99	dec    	eax
  0x1a9a	test   	ebx, ebx
  0x1a9c	dec    	eax
  0x1a9d	mov    	dword ptr [ebp - 0x28], eax
  === BLOCK LINK ===
    0x1aa0
=== CODE BLOCK END ===

=== CODE BLOCK ADDRESS 0x1aa0 ===
  0x1aa0	dec    	esp
  0x1aa1	lea    	eax, [ebp - 0x38]
  0x1aa4	inc    	ecx
  0x1aa5	mov    	edx, esi
  0x1aa7	dec    	eax
  === BLOCK LINK ===
    0x1aa8
=== CODE BLOCK END ===

=== CODE BLOCK ADDRESS 0x1aa8 ===
  0x1aa8	cmovne  	esi, ebx
  0x1aab	dec    	eax
  0x1aac	lea    	ecx, [ebp - 0x50]
  0x1aaf	dec    	eax
  0x1ab0	mov    	dword ptr [ebp - 0x30], esi
  === BLOCK LINK ===
    0x1ab3
=== CODE BLOCK END ===

=== CODE BLOCK ADDRESS 0x1ab3 ===
  0x1ab3	movdqu  	xmmword ptr [ebp - 0x18], xmm0
  0x1ab8	dec    	eax
  0x1ab9	call   	dword ptr [0x1849]
  === BLOCK LINK ===
    0x1abf
=== CODE BLOCK END ===

=== CODE BLOCK ADDRESS 0x1abf ===
  0x1abf	nop    	dword ptr [eax + eax]
  0x1ac4	test   	eax, eax
  0x1ac6	jns    	0x1ada
  === BLOCK LINK ===
    0x1ac8
=== CODE BLOCK END ===

=== CODE BLOCK ADDRESS 0x1ac8 ===
  0x1ac8	mov    	ecx, eax
  0x1aca	dec    	eax
  0x1acb	call   	dword ptr [0x180f]
  === BLOCK LINK ===
    0x1ad1
=== CODE BLOCK END ===

=== CODE BLOCK ADDRESS 0x1ad1 ===
  0x1ad1	nop    	dword ptr [eax + eax]
  0x1ad6	mov    	edi, eax
  0x1ad8	jmp    	0x1ae5
  === BLOCK LINK ===
    0x1ada
=== CODE BLOCK END ===

=== CODE BLOCK ADDRESS 0x1ada ===
  0x1ada	dec    	eax
  0x1adb	mov    	eax, dword ptr [ebp + 0x40]
  0x1ade	dec    	eax
  0x1adf	arpl   	word ptr [ebp - 0x50], cx
  0x1ae2	dec    	eax
  === BLOCK LINK ===
    0x1ae3
=== CODE BLOCK END ===

=== CODE BLOCK ADDRESS 0x1ae3 ===
  0x1ae3	mov    	dword ptr [eax], ecx
  0x1ae5	dec    	eax
  0x1ae6	test   	ebx, ebx
  0x1ae8	je     	0x1af8
  === BLOCK LINK ===
    0x1aea
=== CODE BLOCK END ===

=== CODE BLOCK ADDRESS 0x1aea ===
  0x1aea	mov    	ecx, ebx
  0x1aec	dec    	eax
  0x1aed	call   	dword ptr [0x1805]
  === BLOCK LINK ===
    0x1af3
=== CODE BLOCK END ===

=== CODE BLOCK ADDRESS 0x1af3 ===
  0x1af3	nop    	dword ptr [eax + eax]
  0x1af8	dec    	esp
  0x1af9	lea    	ebx, [esp + 0x70]
  0x1afd	mov    	eax, edi
  0x1aff	dec    	ecx
  === BLOCK LINK ===
    0x1b00
=== CODE BLOCK END ===

=== CODE BLOCK ADDRESS 0x1b00 ===
  0x1b00	mov    	ebx, dword ptr [ebx + 0x28]
  0x1b03	dec    	ecx
  0x1b04	mov    	esi, dword ptr [ebx + 0x30]
  0x1b07	dec    	ecx
  0x1b08	mov    	edi, dword ptr [ebx + 0x38]
  === BLOCK LINK ===
    0x1b0b
=== CODE BLOCK END ===

=== CODE BLOCK ADDRESS 0x1b0b ===
  0x1b0b	dec    	ecx
  0x1b0c	mov    	esp, ebx
  0x1b0e	inc    	ecx
  0x1b0f	pop    	edi
  0x1b10	inc    	ecx
  === BLOCK LINK ===
    0x1b11
=== CODE BLOCK END ===

=== CODE BLOCK ADDRESS 0x1b11 ===
  0x1b11	pop    	esi
  0x1b12	pop    	ebp
  0x1b13	ret    	
  0x1b14	int3   	
  0x1b15	int3   	
  === BLOCK LINK ===
    0x1b16
=== CODE BLOCK END ===

=== CODE BLOCK ADDRESS 0x1b16 ===
  0x1b16	int3   	
  0x1b17	int3   	
  0x1b18	int3   	
  0x1b19	int3   	
  0x1b1a	int3   	
  === BLOCK LINK ===
    0x1b1b
=== CODE BLOCK END ===

=== CODE BLOCK ADDRESS 0x1b1b ===
  0x1b1b	int3   	
  === BLOCK LINK ===
    0x1b1c
=== CODE BLOCK END ===

=== CODE BLOCK ADDRESS 0x1b20 ===
  0x1b20	push   	edi
  0x1b21	inc    	ecx
  0x1b22	push   	esp
  0x1b23	inc    	ecx
  0x1b24	push   	ebp
  === BLOCK LINK ===
    0x1b25
=== CODE BLOCK END ===

=== CODE BLOCK ADDRESS 0x1b25 ===
  0x1b25	inc    	ecx
  0x1b26	push   	esi
  0x1b27	inc    	ecx
  0x1b28	push   	edi
  0x1b29	dec    	eax
  === BLOCK LINK ===
    0x1b2a
=== CODE BLOCK END ===

=== CODE BLOCK ADDRESS 0x1b2a ===
  0x1b2a	sub    	esp, 0x68
  0x1b2d	dec    	eax
  0x1b2e	mov    	eax, dword ptr [0x34d4]
  0x1b34	dec    	eax
  0x1b35	xor    	eax, esp
  === BLOCK LINK ===
    0x1b37
=== CODE BLOCK END ===

=== CODE BLOCK ADDRESS 0x1b37 ===
  0x1b37	dec    	eax
  0x1b38	mov    	dword ptr [esp + 0x58], eax
  0x1b3c	dec    	esp
  0x1b3d	mov    	esi, dword ptr [esp + 0xd0]
  0x1b44	xor    	edi, edi
  === BLOCK LINK ===
    0x1b46
=== CODE BLOCK END ===

=== CODE BLOCK ADDRESS 0x1b46 ===
  0x1b46	dec    	ecx
  0x1b47	mov    	ebp, ecx
  0x1b49	dec    	ebp
  0x1b4a	mov    	edi, eax
  0x1b4c	dec    	esp
  === BLOCK LINK ===
    0x1b4d
=== CODE BLOCK END ===

=== CODE BLOCK ADDRESS 0x1b4d ===
  0x1b4d	mov    	ebp, edx
  0x1b4f	dec    	esp
  0x1b50	mov    	esp, ecx
  0x1b52	dec    	ebp
  0x1b53	test   	ecx, ecx
  === BLOCK LINK ===
    0x1b55
=== CODE BLOCK END ===

=== CODE BLOCK ADDRESS 0x1b55 ===
  0x1b55	je     	0x1b85
  === BLOCK LINK ===
    0x1b57
=== CODE BLOCK END ===

=== CODE BLOCK ADDRESS 0x1b57 ===
  0x1b57	inc    	ecx
  0x1b58	mov    	esi, dword ptr [esi]
  0x1b5a	xor    	edx, edx
  0x1b5c	dec    	eax
  0x1b5d	mov    	ecx, dword ptr [0x3b15]
  === BLOCK LINK ===
    0x1b63
=== CODE BLOCK END ===

=== CODE BLOCK ADDRESS 0x1b63 ===
  0x1b63	add    	esi, 0xf
  0x1b66	inc    	esp
  0x1b67	mov    	eax, esi
  0x1b69	dec    	eax
  0x1b6a	call   	dword ptr [0x15d8]
  === BLOCK LINK ===
    0x1b70
=== CODE BLOCK END ===

=== CODE BLOCK ADDRESS 0x1b70 ===
  0x1b70	nop    	dword ptr [eax + eax]
  0x1b75	dec    	eax
  0x1b76	mov    	ebx, eax
  0x1b78	dec    	eax
  0x1b79	test   	eax, eax
  === BLOCK LINK ===
    0x1b7b
=== CODE BLOCK END ===

=== CODE BLOCK ADDRESS 0x1b7b ===
  0x1b7b	jne    	0x1b8f
  === BLOCK LINK ===
    0x1b7d
=== CODE BLOCK END ===

=== CODE BLOCK ADDRESS 0x1b7d ===
  0x1b7d	lea    	edi, [eax + 0xe]
  0x1b80	jmp    	0x1c4e
  === BLOCK LINK ===
    0x1b85
=== CODE BLOCK END ===

=== CODE BLOCK ADDRESS 0x1b85 ===
  0x1b85	dec    	eax
  0x1b86	lea    	ebx, [esp + 0x48]
  0x1b8a	mov    	esi, 0x10
  0x1b8f	dec    	ecx
  0x1b90	mov    	edx, ebp
  === BLOCK LINK ===
    0x1b92
=== CODE BLOCK END ===

=== CODE BLOCK ADDRESS 0x1b92 ===
  0x1b92	dec    	eax
  0x1b93	lea    	ecx, [esp + 0x38]
  0x1b97	dec    	eax
  0x1b98	call   	dword ptr [0x1762]
  === BLOCK LINK ===
    0x1b9e
=== CODE BLOCK END ===

=== CODE BLOCK ADDRESS 0x1b9e ===
  0x1b9e	nop    	dword ptr [eax + eax]
  0x1ba3	dec    	eax
  0x1ba4	lea    	eax, [esp + 0x30]
  0x1ba8	inc    	ecx
  0x1ba9	mov    	ecx, esp
  === BLOCK LINK ===
    0x1bab
=== CODE BLOCK END ===

=== CODE BLOCK ADDRESS 0x1bab ===
  0x1bab	dec    	eax
  0x1bac	mov    	dword ptr [esp + 0x28], eax
  0x1bb0	dec    	eax
  0x1bb1	lea    	edx, [esp + 0x38]
  0x1bb5	dec    	esp
  === BLOCK LINK ===
    0x1bb6
=== CODE BLOCK END ===

=== CODE BLOCK ADDRESS 0x1bb6 ===
  0x1bb6	mov    	ecx, ebx
  0x1bb8	mov    	dword ptr [esp + 0x20], esi
  0x1bbc	inc    	ecx
  0x1bbd	mov    	eax, 2
  0x1bc2	dec    	eax
  === BLOCK LINK ===
    0x1bc3
=== CODE BLOCK END ===

=== CODE BLOCK ADDRESS 0x1bc3 ===
  0x1bc3	call   	dword ptr [0x1747]
  === BLOCK LINK ===
    0x1bc9
=== CODE BLOCK END ===

=== CODE BLOCK ADDRESS 0x1bc9 ===
  0x1bc9	nop    	dword ptr [eax + eax]
  0x1bce	mov    	edx, 0x80000000
  0x1bd3	mov    	ecx, eax
  0x1bd5	add    	eax, edx
  0x1bd7	test   	edx, eax
  === BLOCK LINK ===
    0x1bd9
=== CODE BLOCK END ===

=== CODE BLOCK ADDRESS 0x1bd9 ===
  0x1bd9	jne    	0x1bf3
  === BLOCK LINK ===
    0x1bdb
=== CODE BLOCK END ===

=== CODE BLOCK ADDRESS 0x1bdb ===
  0x1bdb	cmp    	ecx, 0x80000005
  0x1be1	je     	0x1bf3
  === BLOCK LINK ===
    0x1be3
=== CODE BLOCK END ===

=== CODE BLOCK ADDRESS 0x1be3 ===
  0x1be3	dec    	eax
  0x1be4	call   	dword ptr [0x16f6]
  === BLOCK LINK ===
    0x1bea
=== CODE BLOCK END ===

=== CODE BLOCK ADDRESS 0x1bea ===
  0x1bea	nop    	dword ptr [eax + eax]
  0x1bef	mov    	edi, eax
  0x1bf1	jmp    	0x1c27
  === BLOCK LINK ===
    0x1bf3
=== CODE BLOCK END ===

=== CODE BLOCK ADDRESS 0x1bf3 ===
  0x1bf3	dec    	eax
  0x1bf4	test   	ebp, ebp
  0x1bf6	je     	0x1c16
  === BLOCK LINK ===
    0x1bf8
=== CODE BLOCK END ===

=== CODE BLOCK ADDRESS 0x1bf8 ===
  0x1bf8	mov    	eax, dword ptr [ebx + 8]
  0x1bfb	inc    	ecx
  0x1bfc	cmp    	dword ptr [esi], eax
  0x1bfe	jb     	0x1c11
  === BLOCK LINK ===
    0x1c00
=== CODE BLOCK END ===

=== CODE BLOCK ADDRESS 0x1c00 ===
  0x1c00	inc    	esp
  0x1c01	mov    	eax, eax
  0x1c03	dec    	eax
  0x1c04	lea    	edx, [ebx + 0xc]
  0x1c07	dec    	eax
  === BLOCK LINK ===
    0x1c08
=== CODE BLOCK END ===

=== CODE BLOCK ADDRESS 0x1c08 ===
  0x1c08	mov    	ecx, ebp
  0x1c0a	call   	0x2e6d
  === BLOCK LINK ===
    0x1c0f
=== CODE BLOCK END ===

=== CODE BLOCK ADDRESS 0x1c0f ===
  0x1c0f	jmp    	0x1c16
  === BLOCK LINK ===
    0x1c11
=== CODE BLOCK END ===

=== CODE BLOCK ADDRESS 0x1c11 ===
  0x1c11	mov    	edi, 0x7a
  0x1c16	mov    	eax, dword ptr [ebx + 8]
  0x1c19	inc    	ecx
  0x1c1a	mov    	dword ptr [esi], eax
  0x1c1c	dec    	ebp
  === BLOCK LINK ===
    0x1c1d
=== CODE BLOCK END ===

=== CODE BLOCK ADDRESS 0x1c1d ===
  0x1c1d	test   	edi, edi
  0x1c1f	je     	0x1c27
  === BLOCK LINK ===
    0x1c21
=== CODE BLOCK END ===

=== CODE BLOCK ADDRESS 0x1c21 ===
  0x1c21	mov    	eax, dword ptr [ebx + 4]
  0x1c24	inc    	ecx
  0x1c25	mov    	dword ptr [edi], eax
  0x1c27	dec    	eax
  0x1c28	test   	ebx, ebx
  === BLOCK LINK ===
    0x1c2a
=== CODE BLOCK END ===

=== CODE BLOCK ADDRESS 0x1c2a ===
  0x1c2a	je     	0x1c4e
  === BLOCK LINK ===
    0x1c2c
=== CODE BLOCK END ===

=== CODE BLOCK ADDRESS 0x1c2c ===
  0x1c2c	dec    	eax
  0x1c2d	lea    	eax, [esp + 0x48]
  0x1c31	dec    	eax
  0x1c32	cmp    	ebx, eax
  0x1c34	je     	0x1c4e
  === BLOCK LINK ===
    0x1c36
=== CODE BLOCK END ===

=== CODE BLOCK ADDRESS 0x1c36 ===
  0x1c36	dec    	eax
  0x1c37	mov    	ecx, dword ptr [0x3a3b]
  0x1c3d	dec    	esp
  0x1c3e	mov    	eax, ebx
  0x1c40	xor    	edx, edx
  === BLOCK LINK ===
    0x1c42
=== CODE BLOCK END ===

=== CODE BLOCK ADDRESS 0x1c42 ===
  0x1c42	dec    	eax
  0x1c43	call   	dword ptr [0x14f7]
  === BLOCK LINK ===
    0x1c49
=== CODE BLOCK END ===

=== CODE BLOCK ADDRESS 0x1c49 ===
  0x1c49	nop    	dword ptr [eax + eax]
  0x1c4e	mov    	eax, edi
  0x1c50	dec    	eax
  0x1c51	mov    	ecx, dword ptr [esp + 0x58]
  0x1c55	dec    	eax
  === BLOCK LINK ===
    0x1c56
=== CODE BLOCK END ===

=== CODE BLOCK ADDRESS 0x1c56 ===
  0x1c56	xor    	ecx, esp
  0x1c58	call   	0x27e0
  === BLOCK LINK ===
    0x1c5d
=== CODE BLOCK END ===

=== CODE BLOCK ADDRESS 0x1c5d ===
  0x1c5d	dec    	eax
  0x1c5e	add    	esp, 0x68
  0x1c61	inc    	ecx
  0x1c62	pop    	edi
  0x1c63	inc    	ecx
  === BLOCK LINK ===
    0x1c64
=== CODE BLOCK END ===

=== CODE BLOCK ADDRESS 0x1c64 ===
  0x1c64	pop    	esi
  0x1c65	inc    	ecx
  0x1c66	pop    	ebp
  0x1c67	inc    	ecx
  0x1c68	pop    	esp
  === BLOCK LINK ===
    0x1c69
=== CODE BLOCK END ===

=== CODE BLOCK ADDRESS 0x1c69 ===
  0x1c69	pop    	edi
  0x1c6a	pop    	esi
  0x1c6b	pop    	ebp
  0x1c6c	pop    	ebx
  0x1c6d	ret    	
  === BLOCK LINK ===
    0x1c6e
=== CODE BLOCK END ===

=== CODE BLOCK ADDRESS 0x1c6e ===
  0x1c6e	int3   	
  0x1c6f	int3   	
  0x1c70	int3   	
  0x1c71	int3   	
  0x1c72	int3   	
  === BLOCK LINK ===
    0x1c73
=== CODE BLOCK END ===

=== CODE BLOCK ADDRESS 0x1c73 ===
  0x1c73	int3   	
  0x1c74	int3   	
  0x1c75	int3   	
  0x1c76	int3   	
  0x1c77	int3   	
  === BLOCK LINK ===
    0x1c78
=== CODE BLOCK END ===

=== CODE BLOCK ADDRESS 0x1c78 ===
  0x1c78	dec    	eax
  0x1c79	mov    	dword ptr [esp + 8], ebx
  0x1c7d	dec    	eax
  0x1c7e	mov    	dword ptr [esp + 0x10], ebp
  0x1c82	dec    	eax
  === BLOCK LINK ===
    0x1c83
=== CODE BLOCK END ===

=== CODE BLOCK ADDRESS 0x1c83 ===
  0x1c83	mov    	dword ptr [esp + 0x18], esi
  0x1c87	push   	edi
  0x1c88	dec    	eax
  0x1c89	sub    	esp, 0x20
  0x1c8c	dec    	eax
  === BLOCK LINK ===
    0x1c8d
=== CODE BLOCK END ===

=== CODE BLOCK ADDRESS 0x1c8d ===
  0x1c8d	or     	eax, 0xffffffff
  0x1c90	dec    	eax
  0x1c91	mov    	edi, ecx
  0x1c93	xor    	ebp, ebp
  0x1c95	dec    	eax
  === BLOCK LINK ===
    0x1c96
=== CODE BLOCK END ===

=== CODE BLOCK ADDRESS 0x1c96 ===
  0x1c96	inc    	eax
  0x1c98	cmp    	word ptr [ecx + eax*2], bp
  0x1c9c	jne    	0x1c95
  === BLOCK LINK ===
    0x1c9e
=== CODE BLOCK END ===

=== CODE BLOCK ADDRESS 0x1c9e ===
  0x1c9e	inc    	eax
  0x1ca0	mov    	ecx, 0xffffffff
  0x1ca5	mov    	esi, eax
  0x1ca7	dec    	eax
  0x1ca8	add    	eax, eax
  === BLOCK LINK ===
    0x1caa
=== CODE BLOCK END ===

=== CODE BLOCK ADDRESS 0x1caa ===
  0x1caa	dec    	eax
  0x1cab	cmp    	eax, ecx
  0x1cad	ja     	0x1cf8
  === BLOCK LINK ===
    0x1caf
=== CODE BLOCK END ===

=== CODE BLOCK ADDRESS 0x1caf ===
  0x1caf	dec    	eax
  0x1cb0	mov    	ecx, dword ptr [0x39c2]
  0x1cb6	xor    	edx, edx
  0x1cb8	inc    	esp
  0x1cb9	mov    	eax, eax
  === BLOCK LINK ===
    0x1cbb
=== CODE BLOCK END ===

=== CODE BLOCK ADDRESS 0x1cbb ===
  0x1cbb	dec    	eax
  0x1cbc	call   	dword ptr [0x1486]
  === BLOCK LINK ===
    0x1cc2
=== CODE BLOCK END ===

=== CODE BLOCK ADDRESS 0x1cc2 ===
  0x1cc2	nop    	dword ptr [eax + eax]
  0x1cc7	dec    	eax
  0x1cc8	mov    	ebx, eax
  0x1cca	dec    	eax
  0x1ccb	test   	eax, eax
  === BLOCK LINK ===
    0x1ccd
=== CODE BLOCK END ===

=== CODE BLOCK ADDRESS 0x1ccd ===
  0x1ccd	je     	0x1cfb
  === BLOCK LINK ===
    0x1ccf
=== CODE BLOCK END ===

=== CODE BLOCK ADDRESS 0x1ccf ===
  0x1ccf	dec    	esp
  0x1cd0	mov    	eax, edi
  0x1cd2	mov    	edx, esi
  0x1cd4	dec    	eax
  0x1cd5	mov    	ecx, eax
  === BLOCK LINK ===
    0x1cd7
=== CODE BLOCK END ===

=== CODE BLOCK ADDRESS 0x1cd7 ===
  0x1cd7	call   	0x18c4
  === BLOCK LINK ===
    0x1cdc
=== CODE BLOCK END ===

=== CODE BLOCK ADDRESS 0x1cdc ===
  0x1cdc	test   	eax, eax
  0x1cde	jns    	0x1cfb
  === BLOCK LINK ===
    0x1ce0
=== CODE BLOCK END ===

=== CODE BLOCK ADDRESS 0x1ce0 ===
  0x1ce0	dec    	eax
  0x1ce1	mov    	ecx, dword ptr [0x3991]
  0x1ce7	dec    	esp
  0x1ce8	mov    	eax, ebx
  0x1cea	xor    	edx, edx
  === BLOCK LINK ===
    0x1cec
=== CODE BLOCK END ===

=== CODE BLOCK ADDRESS 0x1cec ===
  0x1cec	dec    	eax
  0x1ced	call   	dword ptr [0x144d]
  === BLOCK LINK ===
    0x1cf3
=== CODE BLOCK END ===

=== CODE BLOCK ADDRESS 0x1cf3 ===
  0x1cf3	nop    	dword ptr [eax + eax]
  0x1cf8	dec    	eax
  0x1cf9	mov    	ebx, ebp
  0x1cfb	dec    	eax
  0x1cfc	mov    	ebp, dword ptr [esp + 0x38]
  === BLOCK LINK ===
    0x1d00
=== CODE BLOCK END ===

=== CODE BLOCK ADDRESS 0x1d00 ===
  0x1d00	dec    	eax
  0x1d01	mov    	eax, ebx
  0x1d03	dec    	eax
  0x1d04	mov    	ebx, dword ptr [esp + 0x30]
  0x1d08	dec    	eax
  === BLOCK LINK ===
    0x1d09
=== CODE BLOCK END ===

=== CODE BLOCK ADDRESS 0x1d09 ===
  0x1d09	mov    	esi, dword ptr [esp + 0x40]
  0x1d0d	dec    	eax
  0x1d0e	add    	esp, 0x20
  0x1d11	pop    	edi
  0x1d12	ret    	
  === BLOCK LINK ===
    0x1d13
=== CODE BLOCK END ===

=== CODE BLOCK ADDRESS 0x1d13 ===
  0x1d13	int3   	
  0x1d14	int3   	
  0x1d15	int3   	
  0x1d16	int3   	
  0x1d17	int3   	
  === BLOCK LINK ===
    0x1d18
=== CODE BLOCK END ===

=== CODE BLOCK ADDRESS 0x1d18 ===
  0x1d18	int3   	
  0x1d19	int3   	
  0x1d1a	int3   	
  0x1d1b	int3   	
  0x1d1c	dec    	eax
  === BLOCK LINK ===
    0x1d1d
=== CODE BLOCK END ===

=== CODE BLOCK ADDRESS 0x1d1d ===
  0x1d1d	mov    	dword ptr [esp + 8], ebx
  0x1d21	dec    	eax
  0x1d22	mov    	dword ptr [esp + 0x10], esi
  0x1d26	dec    	eax
  0x1d27	mov    	dword ptr [esp + 0x18], edi
  === BLOCK LINK ===
    0x1d2b
=== CODE BLOCK END ===

=== CODE BLOCK ADDRESS 0x1d2b ===
  0x1d2b	inc    	ecx
  0x1d2c	push   	esi
  0x1d2d	dec    	eax
  0x1d2e	sub    	esp, 0x20
  0x1d31	xor    	ebx, ebx
  === BLOCK LINK ===
    0x1d33
=== CODE BLOCK END ===

=== CODE BLOCK ADDRESS 0x1d33 ===
  0x1d33	inc    	ecx
  0x1d34	mov    	esi, eax
  0x1d36	dec    	ecx
  0x1d37	or     	eax, 0xffffffff
  0x1d3a	dec    	esp
  === BLOCK LINK ===
    0x1d3b
=== CODE BLOCK END ===

=== CODE BLOCK ADDRESS 0x1d3b ===
  0x1d3b	mov    	edx, edx
  0x1d3d	dec    	ebp
  0x1d3e	mov    	ecx, eax
  0x1d40	dec    	esp
  0x1d41	mov    	esi, ecx
  === BLOCK LINK ===
    0x1d43
=== CODE BLOCK END ===

=== CODE BLOCK ADDRESS 0x1d43 ===
  0x1d43	mov    	edi, ebx
  0x1d45	dec    	ecx
  0x1d46	inc    	ecx
  0x1d48	inc    	dx
  0x1d4a	cmp    	dword ptr [ecx + ecx*2], ebx
  === BLOCK LINK ===
    0x1d4d
=== CODE BLOCK END ===

=== CODE BLOCK ADDRESS 0x1d4d ===
  0x1d4d	jne    	0x1d45
  === BLOCK LINK ===
    0x1d4f
=== CODE BLOCK END ===

=== CODE BLOCK ADDRESS 0x1d4f ===
  0x1d4f	dec    	ecx
  0x1d50	inc    	eax
  0x1d52	inc    	dx
  0x1d54	cmp    	dword ptr [edx + eax*2], ebx
  0x1d57	jne    	0x1d4f
  === BLOCK LINK ===
    0x1d59
=== CODE BLOCK END ===

=== CODE BLOCK ADDRESS 0x1d59 ===
  0x1d59	or     	edx, 0xffffffff
  0x1d5c	inc    	ecx
  0x1d5d	mov    	ebx, 0x5c
  0x1d62	inc    	ebp
  0x1d63	test   	ecx, ecx
  === BLOCK LINK ===
    0x1d65
=== CODE BLOCK END ===

=== CODE BLOCK ADDRESS 0x1d65 ===
  0x1d65	je     	0x1d7d
  === BLOCK LINK ===
    0x1d67
=== CODE BLOCK END ===

=== CODE BLOCK ADDRESS 0x1d67 ===
  0x1d67	inc    	ecx
  0x1d68	mov    	eax, ecx
  0x1d6a	inc    	sp
  0x1d6c	cmp    	dword ptr [ecx + eax*2 - 2], ebx
  0x1d70	je     	0x1d7a
  === BLOCK LINK ===
    0x1d72
=== CODE BLOCK END ===

=== CODE BLOCK ADDRESS 0x1d72 ===
  0x1d72	cmp    	word ptr [ecx + eax*2 - 2], 0x2f
  0x1d78	jne    	0x1d7d
  === BLOCK LINK ===
    0x1d7a
=== CODE BLOCK END ===

=== CODE BLOCK ADDRESS 0x1d7a ===
  0x1d7a	inc    	esp
  0x1d7b	add    	ecx, edx
  0x1d7d	inc    	bp
  0x1d7f	cmp    	dword ptr [edx], ebx
  0x1d81	je     	0x1d8e
  === BLOCK LINK ===
    0x1d83
=== CODE BLOCK END ===

=== CODE BLOCK ADDRESS 0x1d83 ===
  0x1d83	inc    	cx
  0x1d85	cmp    	dword ptr [edx], 0x2f
  0x1d88	je     	0x1d8e
  === BLOCK LINK ===
    0x1d8a
=== CODE BLOCK END ===

=== CODE BLOCK ADDRESS 0x1d8a ===
  0x1d8a	mov    	ecx, ebx
  0x1d8c	jmp    	0x1d96
  === BLOCK LINK ===
    0x1d8e
=== CODE BLOCK END ===

=== CODE BLOCK ADDRESS 0x1d8e ===
  0x1d8e	mov    	ecx, 1
  0x1d93	inc    	esp
  0x1d94	add    	eax, edx
  0x1d96	inc    	ecx
  0x1d97	lea    	eax, [ecx + 2]
  === BLOCK LINK ===
    0x1d9a
=== CODE BLOCK END ===

=== CODE BLOCK ADDRESS 0x1d9a ===
  0x1d9a	inc    	ecx
  0x1d9b	add    	eax, eax
  0x1d9d	cmp    	eax, esi
  0x1d9f	ja     	0x1dea
  === BLOCK LINK ===
    0x1da1
=== CODE BLOCK END ===

=== CODE BLOCK ADDRESS 0x1da1 ===
  0x1da1	test   	ecx, ecx
  0x1da3	jne    	0x1db5
  === BLOCK LINK ===
    0x1da5
=== CODE BLOCK END ===

=== CODE BLOCK ADDRESS 0x1da5 ===
  0x1da5	inc    	esp
  0x1da6	cmp    	ecx, esi
  0x1da8	jae    	0x1dba
  === BLOCK LINK ===
    0x1daa
=== CODE BLOCK END ===

=== CODE BLOCK ADDRESS 0x1daa ===
  0x1daa	inc    	ecx
  0x1dab	mov    	eax, ecx
  0x1dad	inc    	ecx
  0x1dae	inc    	ecx
  0x1db0	inc    	bp
  === BLOCK LINK ===
    0x1db2
=== CODE BLOCK END ===

=== CODE BLOCK ADDRESS 0x1db2 ===
  0x1db2	mov    	dword ptr [esi + eax*2], ebx
  0x1db5	inc    	esp
  0x1db6	cmp    	ecx, esi
  0x1db8	jb     	0x1dc1
  === BLOCK LINK ===
    0x1dba
=== CODE BLOCK END ===

=== CODE BLOCK ADDRESS 0x1dba ===
  0x1dba	mov    	edi, 0xce
  0x1dbf	jmp    	0x1ddc
  === BLOCK LINK ===
    0x1dc1
=== CODE BLOCK END ===

=== CODE BLOCK ADDRESS 0x1dc1 ===
  0x1dc1	inc    	ecx
  0x1dc2	mov    	eax, ecx
  0x1dc4	mov    	edx, esi
  0x1dc6	inc    	ecx
  0x1dc7	sub    	edx, ecx
  === BLOCK LINK ===
    0x1dc9
=== CODE BLOCK END ===

=== CODE BLOCK ADDRESS 0x1dc9 ===
  0x1dc9	dec    	ebp
  0x1dca	mov    	eax, edx
  0x1dcc	dec    	ecx
  0x1dcd	lea    	ecx, [esi + eax*2]
  0x1dd0	call   	0x18c4
  === BLOCK LINK ===
    0x1dd5
=== CODE BLOCK END ===

=== CODE BLOCK ADDRESS 0x1dd5 ===
  0x1dd5	test   	eax, eax
  0x1dd7	jns    	0x1ddc
  === BLOCK LINK ===
    0x1dd9
=== CODE BLOCK END ===

=== CODE BLOCK ADDRESS 0x1dd9 ===
  0x1dd9	movzx  	edi, ax
  0x1ddc	test   	esi, esi
  0x1dde	je     	0x1def
  === BLOCK LINK ===
    0x1de0
=== CODE BLOCK END ===

=== CODE BLOCK ADDRESS 0x1de0 ===
  0x1de0	lea    	eax, [esi - 1]
  0x1de3	inc    	cx
  0x1de5	mov    	dword ptr [esi + eax*2], ebx
  0x1de8	jmp    	0x1def
  === BLOCK LINK ===
    0x1dea
=== CODE BLOCK END ===

=== CODE BLOCK ADDRESS 0x1dea ===
  0x1dea	mov    	edi, 0xce
  0x1def	test   	edi, edi
  0x1df1	je     	0x1e03
  === BLOCK LINK ===
    0x1df3
=== CODE BLOCK END ===

=== CODE BLOCK ADDRESS 0x1df3 ===
  0x1df3	mov    	ecx, edi
  0x1df5	dec    	eax
  0x1df6	call   	dword ptr [0x13fc]
  === BLOCK LINK ===
    0x1dfc
=== CODE BLOCK END ===

=== CODE BLOCK ADDRESS 0x1dfc ===
  0x1dfc	nop    	dword ptr [eax + eax]
  0x1e01	test   	edi, edi
  0x1e03	dec    	eax
  0x1e04	mov    	esi, dword ptr [esp + 0x38]
  0x1e08	sete   	bl
  === BLOCK LINK ===
    0x1e0b
=== CODE BLOCK END ===

=== CODE BLOCK ADDRESS 0x1e0b ===
  0x1e0b	dec    	eax
  0x1e0c	mov    	edi, dword ptr [esp + 0x40]
  0x1e10	mov    	eax, ebx
  0x1e12	dec    	eax
  0x1e13	mov    	ebx, dword ptr [esp + 0x30]
  === BLOCK LINK ===
    0x1e17
=== CODE BLOCK END ===

=== CODE BLOCK ADDRESS 0x1e17 ===
  0x1e17	dec    	eax
  0x1e18	add    	esp, 0x20
  0x1e1b	inc    	ecx
  0x1e1c	pop    	esi
  0x1e1d	ret    	
  === BLOCK LINK ===
    0x1e1e
=== CODE BLOCK END ===

=== CODE BLOCK ADDRESS 0x1e1e ===
  0x1e1e	int3   	
  0x1e1f	int3   	
  0x1e20	int3   	
  0x1e21	int3   	
  0x1e22	int3   	
  === BLOCK LINK ===
    0x1e23
=== CODE BLOCK END ===

=== CODE BLOCK ADDRESS 0x1e23 ===
  0x1e23	int3   	
  0x1e24	int3   	
  0x1e25	int3   	
  0x1e26	int3   	
  0x1e27	int3   	
  === BLOCK LINK ===
    0x1e28
=== CODE BLOCK END ===

=== CODE BLOCK ADDRESS 0x1e28 ===
  0x1e28	dec    	esp
  0x1e29	mov    	dword ptr [esp + 0x18], eax
  0x1e2d	push   	ebx
  0x1e2e	push   	esi
  0x1e2f	push   	edi
  === BLOCK LINK ===
    0x1e30
=== CODE BLOCK END ===

=== CODE BLOCK ADDRESS 0x1e30 ===
  0x1e30	inc    	ecx
  0x1e31	push   	esp
  0x1e32	inc    	ecx
  0x1e33	push   	ebp
  0x1e34	inc    	ecx
  === BLOCK LINK ===
    0x1e35
=== CODE BLOCK END ===

=== CODE BLOCK ADDRESS 0x1e35 ===
  0x1e35	push   	esi
  0x1e36	inc    	ecx
  0x1e37	push   	edi
  0x1e38	dec    	eax
  0x1e39	sub    	esp, 0x40
  === BLOCK LINK ===
    0x1e3c
=== CODE BLOCK END ===

=== CODE BLOCK ADDRESS 0x1e3c ===
  0x1e3c	dec    	ecx
  0x1e3d	mov    	edi, eax
  0x1e3f	dec    	eax
  0x1e40	mov    	esi, edx
  0x1e42	dec    	esp
  === BLOCK LINK ===
    0x1e43
=== CODE BLOCK END ===

=== CODE BLOCK ADDRESS 0x1e43 ===
  0x1e43	mov    	edi, ecx
  0x1e45	xor    	ebx, ebx
  0x1e47	dec    	eax
  0x1e48	test   	ecx, ecx
  0x1e4a	jne    	0x1e7f
  === BLOCK LINK ===
    0x1e4c
=== CODE BLOCK END ===

=== CODE BLOCK ADDRESS 0x1e4c ===
  0x1e4c	dec    	eax
  0x1e4d	test   	edx, edx
  0x1e4f	jne    	0x1e7f
  === BLOCK LINK ===
    0x1e51
=== CODE BLOCK END ===

=== CODE BLOCK ADDRESS 0x1e51 ===
  0x1e51	inc    	esp
  0x1e52	lea    	eax, [ecx + 2]
  0x1e55	dec    	eax
  0x1e56	mov    	ecx, dword ptr [0x381c]
  0x1e5c	dec    	eax
  === BLOCK LINK ===
    0x1e5d
=== CODE BLOCK END ===

=== CODE BLOCK ADDRESS 0x1e5d ===
  0x1e5d	call   	dword ptr [0x12e5]
  === BLOCK LINK ===
    0x1e63
=== CODE BLOCK END ===

=== CODE BLOCK ADDRESS 0x1e63 ===
  0x1e63	nop    	dword ptr [eax + eax]
  0x1e68	dec    	eax
  0x1e69	mov    	dword ptr [edi], eax
  0x1e6b	dec    	eax
  0x1e6c	test   	eax, eax
  === BLOCK LINK ===
    0x1e6e
=== CODE BLOCK END ===

=== CODE BLOCK ADDRESS 0x1e6e ===
  0x1e6e	je     	0x1f80
  === BLOCK LINK ===
    0x1e74
=== CODE BLOCK END ===

=== CODE BLOCK ADDRESS 0x1e74 ===
  0x1e74	mov    	word ptr [eax], bx
  0x1e77	lea    	eax, [ebx + 1]
  0x1e7a	jmp    	0x1f82
  === BLOCK LINK ===
    0x1e7f
=== CODE BLOCK END ===

=== CODE BLOCK ADDRESS 0x1e7f ===
  0x1e7f	dec    	ebp
  0x1e80	test   	edi, edi
  0x1e82	jne    	0x1ea6
  === BLOCK LINK ===
    0x1e84
=== CODE BLOCK END ===

=== CODE BLOCK ADDRESS 0x1e84 ===
  0x1e84	dec    	eax
  0x1e85	test   	esi, esi
  0x1e87	jne    	0x1e8e
  === BLOCK LINK ===
    0x1e89
=== CODE BLOCK END ===

=== CODE BLOCK ADDRESS 0x1e89 ===
  0x1e89	dec    	eax
  0x1e8a	mov    	eax, ebx
  0x1e8c	jmp    	0x1e96
  === BLOCK LINK ===
    0x1e8e
=== CODE BLOCK END ===

=== CODE BLOCK ADDRESS 0x1e8e ===
  0x1e8e	dec    	eax
  0x1e8f	mov    	ecx, esi
  0x1e91	call   	0x1c78
  === BLOCK LINK ===
    0x1e96
=== CODE BLOCK END ===

=== CODE BLOCK ADDRESS 0x1e96 ===
  0x1e96	dec    	eax
  0x1e97	mov    	dword ptr [edi], eax
  0x1e99	dec    	eax
  0x1e9a	test   	eax, eax
  0x1e9c	setne  	bl
  === BLOCK LINK ===
    0x1e9f
=== CODE BLOCK END ===

=== CODE BLOCK ADDRESS 0x1e9f ===
  0x1e9f	mov    	eax, ebx
  0x1ea1	jmp    	0x1f82
  === BLOCK LINK ===
    0x1ea6
=== CODE BLOCK END ===

=== CODE BLOCK ADDRESS 0x1ea6 ===
  0x1ea6	dec    	eax
  0x1ea7	test   	esi, esi
  0x1ea9	je     	0x1e91
  === BLOCK LINK ===
    0x1eab
=== CODE BLOCK END ===

=== CODE BLOCK ADDRESS 0x1eab ===
  0x1eab	dec    	eax
  0x1eac	or     	eax, 0xffffffff
  0x1eaf	dec    	eax
  0x1eb0	mov    	ecx, eax
  0x1eb2	dec    	eax
  === BLOCK LINK ===
    0x1eb3
=== CODE BLOCK END ===

=== CODE BLOCK ADDRESS 0x1eb3 ===
  0x1eb3	inc    	ecx
  0x1eb5	inc    	cx
  0x1eb7	cmp    	dword ptr [edi + ecx*2], ebx
  0x1eba	jne    	0x1eb2
  === BLOCK LINK ===
    0x1ebc
=== CODE BLOCK END ===

=== CODE BLOCK ADDRESS 0x1ebc ===
  0x1ebc	dec    	eax
  0x1ebd	inc    	eax
  0x1ebf	cmp    	word ptr [edx + eax*2], bx
  0x1ec3	jne    	0x1ebc
  === BLOCK LINK ===
    0x1ec5
=== CODE BLOCK END ===

=== CODE BLOCK ADDRESS 0x1ec5 ===
  0x1ec5	inc    	esp
  0x1ec6	lea    	esp, [eax + 2]
  0x1ec9	inc    	esp
  0x1eca	add    	esp, ecx
  0x1ecc	inc    	ebp
  === BLOCK LINK ===
    0x1ecd
=== CODE BLOCK END ===

=== CODE BLOCK ADDRESS 0x1ecd ===
  0x1ecd	mov    	ebp, esp
  0x1ecf	dec    	edx
  0x1ed0	lea    	eax, [0]
  0x1ed7	mov    	ecx, 0xffffffff
  0x1edc	dec    	eax
  === BLOCK LINK ===
    0x1edd
=== CODE BLOCK END ===

=== CODE BLOCK ADDRESS 0x1edd ===
  0x1edd	cmp    	eax, ecx
  0x1edf	ja     	0x1f7d
  === BLOCK LINK ===
    0x1ee5
=== CODE BLOCK END ===

=== CODE BLOCK ADDRESS 0x1ee5 ===
  0x1ee5	mov    	dword ptr [esp + 0x80], eax
  0x1eec	inc    	esp
  0x1eed	mov    	eax, eax
  0x1eef	xor    	edx, edx
  0x1ef1	dec    	eax
  === BLOCK LINK ===
    0x1ef2
=== CODE BLOCK END ===

=== CODE BLOCK ADDRESS 0x1ef2 ===
  0x1ef2	mov    	ecx, dword ptr [0x3780]
  0x1ef8	dec    	eax
  0x1ef9	call   	dword ptr [0x1249]
  === BLOCK LINK ===
    0x1eff
=== CODE BLOCK END ===

=== CODE BLOCK ADDRESS 0x1eff ===
  0x1eff	nop    	dword ptr [eax + eax]
  0x1f04	dec    	esp
  0x1f05	mov    	esi, eax
  0x1f07	dec    	eax
  0x1f08	mov    	dword ptr [esp + 0x98], eax
  === BLOCK LINK ===
    0x1f0f
=== CODE BLOCK END ===

=== CODE BLOCK ADDRESS 0x1f0f ===
  0x1f0f	dec    	eax
  0x1f10	test   	eax, eax
  0x1f12	je     	0x1f7d
  === BLOCK LINK ===
    0x1f14
=== CODE BLOCK END ===

=== CODE BLOCK ADDRESS 0x1f14 ===
  0x1f14	dec    	ebp
  0x1f15	mov    	eax, edi
  0x1f17	inc    	ecx
  0x1f18	mov    	edx, ebp
  0x1f1a	dec    	eax
  === BLOCK LINK ===
    0x1f1b
=== CODE BLOCK END ===

=== CODE BLOCK ADDRESS 0x1f1b ===
  0x1f1b	mov    	ecx, eax
  0x1f1d	call   	0x18c4
  === BLOCK LINK ===
    0x1f22
=== CODE BLOCK END ===

=== CODE BLOCK ADDRESS 0x1f22 ===
  0x1f22	inc    	ebp
  0x1f23	mov    	eax, esp
  0x1f25	dec    	eax
  0x1f26	mov    	edx, esi
  0x1f28	dec    	ecx
  === BLOCK LINK ===
    0x1f29
=== CODE BLOCK END ===

=== CODE BLOCK ADDRESS 0x1f29 ===
  0x1f29	mov    	ecx, esi
  0x1f2b	call   	0x1d1c
  === BLOCK LINK ===
    0x1f30
=== CODE BLOCK END ===

=== CODE BLOCK ADDRESS 0x1f30 ===
  0x1f30	mov    	esi, eax
  0x1f32	mov    	dword ptr [esp + 0x2c], eax
  0x1f36	jmp    	0x1f57
  === BLOCK LINK ===
    0x1f38
=== CODE BLOCK END ===

=== CODE BLOCK ADDRESS 0x1f38 ===
  0x1f38	mov    	ecx, eax
  0x1f3a	call   	0x1864
  === BLOCK LINK ===
    0x1f3f
=== CODE BLOCK END ===

=== CODE BLOCK ADDRESS 0x1f3f ===
  0x1f3f	xor    	esi, esi
  0x1f41	mov    	dword ptr [esp + 0x2c], esi
  0x1f45	xor    	ebx, ebx
  0x1f47	dec    	eax
  0x1f48	mov    	edi, dword ptr [esp + 0x90]
  === BLOCK LINK ===
    0x1f4f
=== CODE BLOCK END ===

=== CODE BLOCK ADDRESS 0x1f4f ===
  0x1f4f	dec    	esp
  0x1f50	mov    	esi, dword ptr [esp + 0x98]
  0x1f57	test   	esi, esi
  0x1f59	jne    	0x1f76
  === BLOCK LINK ===
    0x1f5b
=== CODE BLOCK END ===

=== CODE BLOCK ADDRESS 0x1f5b ===
  0x1f5b	dec    	ebp
  0x1f5c	mov    	eax, esi
  0x1f5e	xor    	edx, edx
  0x1f60	dec    	eax
  0x1f61	mov    	ecx, dword ptr [0x3711]
  === BLOCK LINK ===
    0x1f67
=== CODE BLOCK END ===

=== CODE BLOCK ADDRESS 0x1f67 ===
  0x1f67	dec    	eax
  0x1f68	call   	dword ptr [0x11d2]
  === BLOCK LINK ===
    0x1f6e
=== CODE BLOCK END ===

=== CODE BLOCK ADDRESS 0x1f6e ===
  0x1f6e	nop    	dword ptr [eax + eax]
  0x1f73	dec    	esp
  0x1f74	mov    	esi, ebx
  0x1f76	dec    	esp
  0x1f77	mov    	dword ptr [edi], esi
  === BLOCK LINK ===
    0x1f79
=== CODE BLOCK END ===

=== CODE BLOCK ADDRESS 0x1f79 ===
  0x1f79	mov    	eax, esi
  0x1f7b	jmp    	0x1f82
  === BLOCK LINK ===
    0x1f7d
=== CODE BLOCK END ===

=== CODE BLOCK ADDRESS 0x1f7d ===
  0x1f7d	dec    	eax
  0x1f7e	mov    	dword ptr [edi], ebx
  0x1f80	xor    	eax, eax
  0x1f82	dec    	eax
  0x1f83	add    	esp, 0x40
  === BLOCK LINK ===
    0x1f86
=== CODE BLOCK END ===

=== CODE BLOCK ADDRESS 0x1f86 ===
  0x1f86	inc    	ecx
  0x1f87	pop    	edi
  0x1f88	inc    	ecx
  0x1f89	pop    	esi
  0x1f8a	inc    	ecx
  === BLOCK LINK ===
    0x1f8b
=== CODE BLOCK END ===

=== CODE BLOCK ADDRESS 0x1f8b ===
  0x1f8b	pop    	ebp
  0x1f8c	inc    	ecx
  0x1f8d	pop    	esp
  0x1f8e	pop    	edi
  0x1f8f	pop    	esi
  === BLOCK LINK ===
    0x1f90
=== CODE BLOCK END ===

=== CODE BLOCK ADDRESS 0x1f90 ===
  0x1f90	pop    	ebx
  0x1f91	ret    	
  0x1f92	int3   	
  0x1f93	int3   	
  0x1f94	int3   	
  === BLOCK LINK ===
    0x1f95
=== CODE BLOCK END ===

=== CODE BLOCK ADDRESS 0x1148 ===
=== CODE BLOCK END ===

=== CODE BLOCK ADDRESS 0x1f95 ===
  0x1f95	int3   	
  0x1f96	int3   	
  0x1f97	int3   	
  0x1f98	int3   	
  0x1f99	int3   	
  === BLOCK LINK ===
    0x1f9a
=== CODE BLOCK END ===

=== CODE BLOCK ADDRESS 0x1f9a ===
  0x1f9a	int3   	
  0x1f9b	int3   	
  0x1f9c	dec    	eax
  0x1f9d	mov    	dword ptr [esp + 0x10], ebx
  0x1fa1	dec    	eax
  === BLOCK LINK ===
    0x1fa2
=== CODE BLOCK END ===

=== CODE BLOCK ADDRESS 0x1fa2 ===
  0x1fa2	mov    	dword ptr [esp + 0x18], esi
  0x1fa6	push   	ebp
  0x1fa7	push   	edi
  0x1fa8	inc    	ecx
  0x1fa9	push   	esp
  === BLOCK LINK ===
    0x1faa
=== CODE BLOCK END ===

=== CODE BLOCK ADDRESS 0x1faa ===
  0x1faa	inc    	ecx
  0x1fab	push   	esi
  0x1fac	inc    	ecx
  0x1fad	push   	edi
  0x1fae	dec    	eax
  === BLOCK LINK ===
    0x1faf
=== CODE BLOCK END ===

=== CODE BLOCK ADDRESS 0x1faf ===
  0x1faf	lea    	ebp, [esp - 0x150]
  0x1fb6	dec    	eax
  0x1fb7	sub    	esp, 0x250
  0x1fbd	dec    	eax
  0x1fbe	mov    	eax, dword ptr [0x3044]
  === BLOCK LINK ===
    0x1fc4
=== CODE BLOCK END ===

=== CODE BLOCK ADDRESS 0x1fc4 ===
  0x1fc4	dec    	eax
  0x1fc5	xor    	eax, esp
  0x1fc7	dec    	eax
  0x1fc8	mov    	dword ptr [ebp + 0x140], eax
  0x1fce	mov    	ebx, 0x104
  === BLOCK LINK ===
    0x1fd3
=== CODE BLOCK END ===

=== CODE BLOCK ADDRESS 0x1fd3 ===
  0x1fd3	dec    	esp
  0x1fd4	lea    	ecx, [esp + 0x20]
  0x1fd8	inc    	ebp
  0x1fd9	xor    	edi, edi
  0x1fdb	dec    	esp
  === BLOCK LINK ===
    0x1fdc
=== CODE BLOCK END ===

=== CODE BLOCK ADDRESS 0x1fdc ===
  0x1fdc	lea    	eax, [esp + 0x30]
  0x1fe0	mov    	edx, ebx
  0x1fe2	inc    	ecx
  0x1fe3	mov    	esi, edi
  0x1fe5	dec    	eax
  === BLOCK LINK ===
    0x1fe6
=== CODE BLOCK END ===

=== CODE BLOCK ADDRESS 0x1fe6 ===
  0x1fe6	call   	dword ptr [0x1224]
  === BLOCK LINK ===
    0x1fec
=== CODE BLOCK END ===

=== CODE BLOCK ADDRESS 0x1fec ===
  0x1fec	nop    	dword ptr [eax + eax]
  0x1ff1	cmp    	eax, ebx
  0x1ff3	jae    	0x214e
  === BLOCK LINK ===
    0x1ff9
=== CODE BLOCK END ===

=== CODE BLOCK ADDRESS 0x1ff9 ===
  0x1ff9	test   	eax, eax
  0x1ffb	jne    	0x200e
  === BLOCK LINK ===
    0x1ffd
=== CODE BLOCK END ===

=== CODE BLOCK ADDRESS 0x1ffd ===
  0x1ffd	dec    	eax
  0x1ffe	call   	dword ptr [0x1164]
  === BLOCK LINK ===
    0x2004
=== CODE BLOCK END ===

=== CODE BLOCK ADDRESS 0x2004 ===
  0x2004	nop    	dword ptr [eax + eax]
  0x2009	jmp    	0x2153
  === BLOCK LINK ===
    0x200e
=== CODE BLOCK END ===

=== CODE BLOCK ADDRESS 0x200e ===
  0x200e	dec    	eax
  0x200f	mov    	eax, dword ptr [esp + 0x20]
  0x2013	dec    	eax
  0x2014	test   	eax, eax
  0x2016	je     	0x214e
  === BLOCK LINK ===
    0x201c
=== CODE BLOCK END ===

=== CODE BLOCK ADDRESS 0x201c ===
  0x201c	dec    	eax
  0x201d	lea    	ecx, [esp + 0x30]
  0x2021	dec    	eax
  0x2022	cmp    	eax, ecx
  0x2024	je     	0x214e
  === BLOCK LINK ===
    0x202a
=== CODE BLOCK END ===

=== CODE BLOCK ADDRESS 0x202a ===
  0x202a	inc    	sp
  0x202c	mov    	dword ptr [eax], edi
  0x202e	inc    	ecx
  0x202f	mov    	esp, 0x5c
  0x2034	movzx  	ecx, word ptr [esp + 0x30]
  === BLOCK LINK ===
    0x2039
=== CODE BLOCK END ===

=== CODE BLOCK ADDRESS 0x2039 ===
  0x2039	lea    	eax, [ecx - 0x41]
  0x203c	cmp    	ax, 0x19
  0x2040	jbe    	0x204b
  === BLOCK LINK ===
    0x2042
=== CODE BLOCK END ===

=== CODE BLOCK ADDRESS 0x2042 ===
  0x2042	lea    	eax, [ecx - 0x61]
  0x2045	cmp    	ax, 0x19
  0x2049	ja     	0x2064
  === BLOCK LINK ===
    0x204b
=== CODE BLOCK END ===

=== CODE BLOCK ADDRESS 0x204b ===
  0x204b	cmp    	word ptr [esp + 0x32], 0x3a
  0x2051	jne    	0x2064
  === BLOCK LINK ===
    0x2053
=== CODE BLOCK END ===

=== CODE BLOCK ADDRESS 0x2053 ===
  0x2053	inc    	sp
  0x2055	cmp    	dword ptr [esp + 0x34], esp
  0x2059	jne    	0x214e
  === BLOCK LINK ===
    0x205f
=== CODE BLOCK END ===

=== CODE BLOCK ADDRESS 0x205f ===
  0x205f	dec    	eax
  0x2060	lea    	esi, [esp + 0x34]
  0x2064	inc    	cx
  0x2066	cmp    	ecx, esp
  0x2068	jne    	0x20ae
  === BLOCK LINK ===
    0x206a
=== CODE BLOCK END ===

=== CODE BLOCK ADDRESS 0x206a ===
  0x206a	inc    	sp
  0x206c	cmp    	dword ptr [esp + 0x32], esp
  0x2070	jne    	0x20ae
  === BLOCK LINK ===
    0x2072
=== CODE BLOCK END ===

=== CODE BLOCK ADDRESS 0x2072 ===
  0x2072	inc    	ecx
  0x2073	mov    	edx, esp
  0x2075	dec    	eax
  0x2076	lea    	ecx, [esp + 0x34]
  0x207a	dec    	eax
  === BLOCK LINK ===
    0x207b
=== CODE BLOCK END ===

=== CODE BLOCK ADDRESS 0x207b ===
  0x207b	call   	dword ptr [0x1237]
  === BLOCK LINK ===
    0x2081
=== CODE BLOCK END ===

=== CODE BLOCK ADDRESS 0x2081 ===
  0x2081	nop    	dword ptr [eax + eax]
  0x2086	dec    	eax
  0x2087	test   	eax, eax
  0x2089	je     	0x214e
  === BLOCK LINK ===
    0x208f
=== CODE BLOCK END ===

=== CODE BLOCK ADDRESS 0x208f ===
  0x208f	inc    	ecx
  0x2090	mov    	edx, esp
  0x2092	dec    	eax
  0x2093	lea    	ecx, [eax + 2]
  0x2096	dec    	eax
  === BLOCK LINK ===
    0x2097
=== CODE BLOCK END ===

=== CODE BLOCK ADDRESS 0x2097 ===
  0x2097	call   	dword ptr [0x121b]
  === BLOCK LINK ===
    0x209d
=== CODE BLOCK END ===

=== CODE BLOCK ADDRESS 0x209d ===
  0x209d	nop    	dword ptr [eax + eax]
  0x20a2	dec    	eax
  0x20a3	mov    	esi, eax
  0x20a5	dec    	eax
  0x20a6	test   	eax, eax
  === BLOCK LINK ===
    0x20a8
=== CODE BLOCK END ===

=== CODE BLOCK ADDRESS 0x20a8 ===
  0x20a8	je     	0x214e
  === BLOCK LINK ===
    0x20ae
=== CODE BLOCK END ===

=== CODE BLOCK ADDRESS 0x20ae ===
  0x20ae	dec    	eax
  0x20af	lea    	ecx, [esp + 0x30]
  0x20b3	dec    	eax
  0x20b4	call   	dword ptr [0x115e]
  === BLOCK LINK ===
    0x20ba
=== CODE BLOCK END ===

=== CODE BLOCK ADDRESS 0x20ba ===
  0x20ba	nop    	dword ptr [eax + eax]
  0x20bf	cmp    	eax, -1
  0x20c2	je     	0x20d3
  === BLOCK LINK ===
    0x20c4
=== CODE BLOCK END ===

=== CODE BLOCK ADDRESS 0x20c4 ===
  0x20c4	test   	al, 0x10
  0x20c6	je     	0x2183
  === BLOCK LINK ===
    0x20cc
=== CODE BLOCK END ===

=== CODE BLOCK ADDRESS 0x20cc ===
  0x20cc	xor    	eax, eax
  0x20ce	jmp    	0x2153
  === BLOCK LINK ===
    0x20d3
=== CODE BLOCK END ===

=== CODE BLOCK ADDRESS 0x20d3 ===
  0x20d3	dec    	eax
  0x20d4	mov    	edi, dword ptr [esp + 0x20]
  0x20d8	dec    	eax
  0x20d9	lea    	eax, [esp + 0x30]
  0x20dd	dec    	eax
  === BLOCK LINK ===
    0x20de
=== CODE BLOCK END ===

=== CODE BLOCK ADDRESS 0x20de ===
  0x20de	cmp    	edi, eax
  0x20e0	jne    	0x20e9
  === BLOCK LINK ===
    0x20e2
=== CODE BLOCK END ===

=== CODE BLOCK ADDRESS 0x20e2 ===
  0x20e2	dec    	eax
  0x20e3	lea    	edi, [esp + 0x30]
  0x20e7	jmp    	0x20ed
  === BLOCK LINK ===
    0x20e9
=== CODE BLOCK END ===

=== CODE BLOCK ADDRESS 0x20e9 ===
  0x20e9	dec    	eax
  0x20ea	add    	edi, -2
  0x20ed	dec    	eax
  0x20ee	cmp    	edi, esi
  0x20f0	je     	0x214e
  === BLOCK LINK ===
    0x20f2
=== CODE BLOCK END ===

=== CODE BLOCK ADDRESS 0x20f2 ===
  0x20f2	inc    	sp
  0x20f4	cmp    	dword ptr [edi], esp
  0x20f6	jne    	0x214e
  === BLOCK LINK ===
    0x20f8
=== CODE BLOCK END ===

=== CODE BLOCK ADDRESS 0x20f8 ===
  0x20f8	dec    	eax
  0x20f9	cmp    	edi, esi
  0x20fb	jbe    	0x214e
  === BLOCK LINK ===
    0x20fd
=== CODE BLOCK END ===

=== CODE BLOCK ADDRESS 0x20fd ===
  0x20fd	inc    	ecx
  0x20fe	mov    	edx, esp
  0x2100	inc    	sp
  0x2102	mov    	dword ptr [edi], edi
  0x2104	dec    	eax
  === BLOCK LINK ===
    0x2105
=== CODE BLOCK END ===

=== CODE BLOCK ADDRESS 0x2105 ===
  0x2105	lea    	ecx, [esp + 0x30]
  0x2109	dec    	eax
  0x210a	call   	dword ptr [0x1120]
  === BLOCK LINK ===
    0x2110
=== CODE BLOCK END ===

=== CODE BLOCK ADDRESS 0x2110 ===
  0x2110	nop    	dword ptr [eax + eax]
  0x2115	dec    	esp
  0x2116	mov    	esi, eax
  0x2118	dec    	eax
  0x2119	test   	eax, eax
  === BLOCK LINK ===
    0x211b
=== CODE BLOCK END ===

=== CODE BLOCK ADDRESS 0x211b ===
  0x211b	je     	0x214e
  === BLOCK LINK ===
    0x211d
=== CODE BLOCK END ===

=== CODE BLOCK ADDRESS 0x211d ===
  0x211d	movzx  	ebx, word ptr [eax + 2]
  0x2121	dec    	eax
  0x2122	lea    	ecx, [esp + 0x30]
  0x2126	inc    	sp
  0x2128	mov    	dword ptr [eax + 2], edi
  === BLOCK LINK ===
    0x212b
=== CODE BLOCK END ===

=== CODE BLOCK ADDRESS 0x212b ===
  0x212b	dec    	eax
  0x212c	call   	dword ptr [0x10e6]
  === BLOCK LINK ===
    0x2132
=== CODE BLOCK END ===

=== CODE BLOCK ADDRESS 0x2132 ===
  0x2132	nop    	dword ptr [eax + eax]
  0x2137	inc    	cx
  0x2139	mov    	dword ptr [esi + 2], ebx
  0x213c	cmp    	eax, -1
  0x213f	jne    	0x217f
  === BLOCK LINK ===
    0x2141
=== CODE BLOCK END ===

=== CODE BLOCK ADDRESS 0x2141 ===
  0x2141	dec    	ecx
  0x2142	mov    	edi, esi
  0x2144	dec    	esp
  0x2145	cmp    	esi, esi
  0x2147	ja     	0x20fd
  === BLOCK LINK ===
    0x2149
=== CODE BLOCK END ===

=== CODE BLOCK ADDRESS 0x2149 ===
  0x2149	dec    	eax
  0x214a	cmp    	edi, esi
  0x214c	ja     	0x21ab
  === BLOCK LINK ===
    0x214e
=== CODE BLOCK END ===

=== CODE BLOCK ADDRESS 0x214e ===
  0x214e	mov    	eax, 0x7b
  0x2153	dec    	eax
  0x2154	mov    	ecx, dword ptr [ebp + 0x140]
  0x215a	dec    	eax
  0x215b	xor    	ecx, esp
  === BLOCK LINK ===
    0x215d
=== CODE BLOCK END ===

=== CODE BLOCK ADDRESS 0x215d ===
  0x215d	call   	0x27e0
  === BLOCK LINK ===
    0x2162
=== CODE BLOCK END ===

=== CODE BLOCK ADDRESS 0x2162 ===
  0x2162	dec    	esp
  0x2163	lea    	ebx, [esp + 0x250]
  0x216a	dec    	ecx
  0x216b	mov    	ebx, dword ptr [ebx + 0x38]
  0x216e	dec    	ecx
  === BLOCK LINK ===
    0x216f
=== CODE BLOCK END ===

=== CODE BLOCK ADDRESS 0x216f ===
  0x216f	mov    	esi, dword ptr [ebx + 0x40]
  0x2172	dec    	ecx
  0x2173	mov    	esp, ebx
  0x2175	inc    	ecx
  0x2176	pop    	edi
  === BLOCK LINK ===
    0x2177
=== CODE BLOCK END ===

=== CODE BLOCK ADDRESS 0x2177 ===
  0x2177	inc    	ecx
  0x2178	pop    	esi
  0x2179	inc    	ecx
  0x217a	pop    	esp
  0x217b	pop    	edi
  === BLOCK LINK ===
    0x217c
=== CODE BLOCK END ===

=== CODE BLOCK ADDRESS 0x217c ===
  0x217c	pop    	ebp
  0x217d	ret    	
  0x217e	int3   	
  0x217f	test   	al, 0x10
  0x2181	jne    	0x2149
  === BLOCK LINK ===
    0x2183
=== CODE BLOCK END ===

=== CODE BLOCK ADDRESS 0x2183 ===
  0x2183	mov    	eax, 0x10b
  0x2188	jmp    	0x2153
  === BLOCK LINK ===
    0x218a
=== CODE BLOCK END ===

=== CODE BLOCK ADDRESS 0x218a ===
  0x218a	inc    	sp
  0x218c	cmp    	dword ptr [edi + 2], edi
  0x218f	je     	0x20cc
  === BLOCK LINK ===
    0x2195
=== CODE BLOCK END ===

=== CODE BLOCK ADDRESS 0x2195 ===
  0x2195	inc    	sp
  0x2197	mov    	dword ptr [edi], esp
  0x2199	dec    	eax
  0x219a	or     	eax, 0xffffffff
  0x219d	dec    	eax
  === BLOCK LINK ===
    0x219e
=== CODE BLOCK END ===

=== CODE BLOCK ADDRESS 0x219e ===
  0x219e	inc    	eax
  0x21a0	inc    	sp
  0x21a2	cmp    	dword ptr [edi + eax*2], edi
  0x21a5	jne    	0x219d
  === BLOCK LINK ===
    0x21a7
=== CODE BLOCK END ===

=== CODE BLOCK ADDRESS 0x21a7 ===
  0x21a7	dec    	eax
  0x21a8	lea    	edi, [edi + eax*2]
  0x21ab	xor    	edx, edx
  0x21ad	dec    	eax
  0x21ae	lea    	ecx, [esp + 0x30]
  === BLOCK LINK ===
    0x21b2
=== CODE BLOCK END ===

=== CODE BLOCK ADDRESS 0x21b2 ===
  0x21b2	dec    	eax
  0x21b3	call   	dword ptr [0xf9f]
  === BLOCK LINK ===
    0x21b9
=== CODE BLOCK END ===

=== CODE BLOCK ADDRESS 0x21b9 ===
  0x21b9	nop    	dword ptr [eax + eax]
  0x21be	test   	eax, eax
  0x21c0	jne    	0x218a
  === BLOCK LINK ===
    0x21c2
=== CODE BLOCK END ===

=== CODE BLOCK ADDRESS 0x21c2 ===
  0x21c2	jmp    	0x1ffd
  === BLOCK LINK ===
    0x21c7
=== CODE BLOCK END ===

=== CODE BLOCK ADDRESS 0x21c7 ===
  0x21c7	int3   	
  0x21c8	int3   	
  0x21c9	int3   	
  0x21ca	int3   	
  0x21cb	int3   	
  === BLOCK LINK ===
    0x21cc
=== CODE BLOCK END ===

=== CODE BLOCK ADDRESS 0x21cc ===
  0x21cc	int3   	
  0x21cd	int3   	
  0x21ce	int3   	
  0x21cf	int3   	
  0x21d0	dec    	eax
  === BLOCK LINK ===
    0x21d1
=== CODE BLOCK END ===

=== CODE BLOCK ADDRESS 0x21d1 ===
  0x21d1	mov    	dword ptr [esp + 8], ebx
  0x21d5	dec    	eax
  0x21d6	mov    	dword ptr [esp + 0x10], esi
  0x21da	push   	edi
  0x21db	dec    	eax
  === BLOCK LINK ===
    0x21dc
=== CODE BLOCK END ===

=== CODE BLOCK ADDRESS 0x21dc ===
  0x21dc	sub    	esp, 0x20
  0x21df	mov    	eax, edx
  0x21e1	dec    	eax
  0x21e2	lea    	edi, [0x1268]
  0x21e8	dec    	eax
  === BLOCK LINK ===
    0x21e9
=== CODE BLOCK END ===

=== CODE BLOCK ADDRESS 0x21e9 ===
  0x21e9	mov    	esi, ecx
  0x21eb	dec    	esp
  0x21ec	lea    	eax, [esp + 0x40]
  0x21f0	dec    	eax
  0x21f1	lea    	ecx, [0x13e1]
  === BLOCK LINK ===
    0x21f7
=== CODE BLOCK END ===

=== CODE BLOCK ADDRESS 0x21f7 ===
  0x21f7	xor    	ebx, ebx
  0x21f9	test   	edx, edx
  0x21fb	dec    	eax
  0x21fc	lea    	edx, [0x13ae]
  0x2202	dec    	eax
  === BLOCK LINK ===
    0x2203
=== CODE BLOCK END ===

=== CODE BLOCK ADDRESS 0x2203 ===
  0x2203	cmove  	edi, ecx
  0x2206	test   	eax, eax
  0x2208	dec    	eax
  0x2209	cmove  	edx, ecx
  0x220c	dec    	eax
  === BLOCK LINK ===
    0x220d
=== CODE BLOCK END ===

=== CODE BLOCK ADDRESS 0x220d ===
  0x220d	mov    	ecx, esi
  0x220f	call   	0x1e28
  === BLOCK LINK ===
    0x2214
=== CODE BLOCK END ===

=== CODE BLOCK ADDRESS 0x2214 ===
  0x2214	test   	eax, eax
  0x2216	je     	0x2245
  === BLOCK LINK ===
    0x2218
=== CODE BLOCK END ===

=== CODE BLOCK ADDRESS 0x2218 ===
  0x2218	dec    	esp
  0x2219	mov    	eax, dword ptr [0x33f1]
  0x221f	dec    	eax
  0x2220	mov    	ebx, dword ptr [esp + 0x40]
  0x2224	dec    	ebp
  === BLOCK LINK ===
    0x2225
=== CODE BLOCK END ===

=== CODE BLOCK ADDRESS 0x2225 ===
  0x2225	test   	eax, eax
  0x2227	je     	0x223e
  === BLOCK LINK ===
    0x2229
=== CODE BLOCK END ===

=== CODE BLOCK ADDRESS 0x2229 ===
  0x2229	dec    	eax
  0x222a	mov    	ecx, dword ptr [0x3448]
  0x2230	xor    	edx, edx
  0x2232	dec    	eax
  0x2233	call   	dword ptr [0xf07]
  === BLOCK LINK ===
    0x2239
=== CODE BLOCK END ===

=== CODE BLOCK ADDRESS 0x2239 ===
  0x2239	nop    	dword ptr [eax + eax]
  0x223e	dec    	eax
  0x223f	mov    	dword ptr [0x33cb], ebx
  0x2245	dec    	esp
  0x2246	lea    	eax, [esp + 0x40]
  === BLOCK LINK ===
    0x224a
=== CODE BLOCK END ===

=== CODE BLOCK ADDRESS 0x224a ===
  0x224a	dec    	eax
  0x224b	mov    	edx, edi
  0x224d	dec    	eax
  0x224e	mov    	ecx, esi
  0x2250	call   	0x1e28
  === BLOCK LINK ===
    0x2255
=== CODE BLOCK END ===

=== CODE BLOCK ADDRESS 0x2255 ===
  0x2255	test   	eax, eax
  0x2257	je     	0x2286
  === BLOCK LINK ===
    0x2259
=== CODE BLOCK END ===

=== CODE BLOCK ADDRESS 0x2259 ===
  0x2259	dec    	esp
  0x225a	mov    	eax, dword ptr [0x33e0]
  0x2260	dec    	eax
  0x2261	mov    	ebx, dword ptr [esp + 0x40]
  0x2265	dec    	ebp
  === BLOCK LINK ===
    0x2266
=== CODE BLOCK END ===

=== CODE BLOCK ADDRESS 0x2266 ===
  0x2266	test   	eax, eax
  0x2268	je     	0x227f
  === BLOCK LINK ===
    0x226a
=== CODE BLOCK END ===

=== CODE BLOCK ADDRESS 0x226a ===
  0x226a	dec    	eax
  0x226b	mov    	ecx, dword ptr [0x3407]
  0x2271	xor    	edx, edx
  0x2273	dec    	eax
  0x2274	call   	dword ptr [0xec6]
  === BLOCK LINK ===
    0x227a
=== CODE BLOCK END ===

=== CODE BLOCK ADDRESS 0x227a ===
  0x227a	nop    	dword ptr [eax + eax]
  0x227f	dec    	eax
  0x2280	mov    	dword ptr [0x33ba], ebx
  0x2286	dec    	eax
  0x2287	test   	ebx, ebx
  === BLOCK LINK ===
    0x2289
=== CODE BLOCK END ===

=== CODE BLOCK ADDRESS 0x2289 ===
  0x2289	je     	0x2293
  === BLOCK LINK ===
    0x228b
=== CODE BLOCK END ===

=== CODE BLOCK ADDRESS 0x228b ===
  0x228b	dec    	eax
  0x228c	mov    	ecx, ebx
  0x228e	call   	0x1f9c
  === BLOCK LINK ===
    0x2293
=== CODE BLOCK END ===

=== CODE BLOCK ADDRESS 0x2293 ===
  0x2293	dec    	eax
  0x2294	mov    	ebx, dword ptr [esp + 0x30]
  0x2298	mov    	eax, 1
  0x229d	dec    	eax
  0x229e	mov    	esi, dword ptr [esp + 0x38]
  === BLOCK LINK ===
    0x22a2
=== CODE BLOCK END ===

=== CODE BLOCK ADDRESS 0x22a2 ===
  0x22a2	dec    	eax
  0x22a3	add    	esp, 0x20
  0x22a6	pop    	edi
  0x22a7	ret    	
  0x22a8	int3   	
  === BLOCK LINK ===
    0x22a9
=== CODE BLOCK END ===

=== CODE BLOCK ADDRESS 0x22a9 ===
  0x22a9	int3   	
  0x22aa	int3   	
  0x22ab	int3   	
  0x22ac	int3   	
  0x22ad	int3   	
  === BLOCK LINK ===
    0x22ae
=== CODE BLOCK END ===

=== CODE BLOCK ADDRESS 0x22ae ===
  0x22ae	int3   	
  0x22af	int3   	
  0x22b0	dec    	eax
  0x22b1	sub    	esp, 0x28
  0x22b4	dec    	esp
  === BLOCK LINK ===
    0x22b5
=== CODE BLOCK END ===

=== CODE BLOCK ADDRESS 0x22b5 ===
  0x22b5	mov    	eax, dword ptr [0x33b5]
  0x22bb	dec    	ebp
  0x22bc	test   	eax, eax
  0x22be	je     	0x22dd
  === BLOCK LINK ===
    0x22c0
=== CODE BLOCK END ===

=== CODE BLOCK ADDRESS 0x22c0 ===
  0x22c0	dec    	eax
  0x22c1	mov    	ecx, dword ptr [0x33b1]
  0x22c7	xor    	edx, edx
  0x22c9	dec    	eax
  0x22ca	call   	dword ptr [0xe70]
  === BLOCK LINK ===
    0x22d0
=== CODE BLOCK END ===

=== CODE BLOCK ADDRESS 0x22d0 ===
  0x22d0	nop    	dword ptr [eax + eax]
  0x22d5	dec    	eax
  0x22d6	and    	dword ptr [0x3393], 0
  0x22dd	dec    	esp
  0x22de	mov    	eax, dword ptr [0x3384]
  === BLOCK LINK ===
    0x22e4
=== CODE BLOCK END ===

=== CODE BLOCK ADDRESS 0x22e4 ===
  0x22e4	dec    	ebp
  0x22e5	test   	eax, eax
  0x22e7	je     	0x2306
  === BLOCK LINK ===
    0x22e9
=== CODE BLOCK END ===

=== CODE BLOCK ADDRESS 0x22e9 ===
  0x22e9	dec    	eax
  0x22ea	mov    	ecx, dword ptr [0x3388]
  0x22f0	xor    	edx, edx
  0x22f2	dec    	eax
  0x22f3	call   	dword ptr [0xe47]
  === BLOCK LINK ===
    0x22f9
=== CODE BLOCK END ===

=== CODE BLOCK ADDRESS 0x22f9 ===
  0x22f9	nop    	dword ptr [eax + eax]
  0x22fe	dec    	eax
  0x22ff	and    	dword ptr [0x3362], 0
  0x2306	dec    	esp
  0x2307	mov    	eax, dword ptr [0x3353]
  === BLOCK LINK ===
    0x230d
=== CODE BLOCK END ===

=== CODE BLOCK ADDRESS 0x230d ===
  0x230d	dec    	ebp
  0x230e	test   	eax, eax
  0x2310	je     	0x232f
  === BLOCK LINK ===
    0x2312
=== CODE BLOCK END ===

=== CODE BLOCK ADDRESS 0x2312 ===
  0x2312	dec    	eax
  0x2313	mov    	ecx, dword ptr [0x335f]
  0x2319	xor    	edx, edx
  0x231b	dec    	eax
  0x231c	call   	dword ptr [0xe1e]
  === BLOCK LINK ===
    0x2322
=== CODE BLOCK END ===

=== CODE BLOCK ADDRESS 0x2322 ===
  0x2322	nop    	dword ptr [eax + eax]
  0x2327	dec    	eax
  0x2328	and    	dword ptr [0x3331], 0
  0x232f	mov    	eax, 1
  0x2334	dec    	eax
  === BLOCK LINK ===
    0x2335
=== CODE BLOCK END ===

=== CODE BLOCK ADDRESS 0x2335 ===
  0x2335	add    	esp, 0x28
  0x2338	ret    	
  0x2339	int3   	
  0x233a	int3   	
  0x233b	int3   	
  === BLOCK LINK ===
    0x233c
=== CODE BLOCK END ===

=== CODE BLOCK ADDRESS 0x233c ===
  0x233c	int3   	
  0x233d	int3   	
  0x233e	int3   	
  0x233f	int3   	
  0x2340	dec    	eax
  === BLOCK LINK ===
    0x2341
=== CODE BLOCK END ===

=== CODE BLOCK ADDRESS 0x2341 ===
  0x2341	mov    	dword ptr [esp + 8], ebx
  0x2345	push   	edi
  0x2346	dec    	eax
  0x2347	sub    	esp, 0x20
  0x234a	dec    	esp
  === BLOCK LINK ===
    0x234b
=== CODE BLOCK END ===

=== CODE BLOCK ADDRESS 0x234b ===
  0x234b	mov    	eax, dword ptr [0x331f]
  0x2351	dec    	eax
  0x2352	mov    	edi, ecx
  0x2354	dec    	ebp
  0x2355	test   	eax, eax
  === BLOCK LINK ===
    0x2357
=== CODE BLOCK END ===

=== CODE BLOCK ADDRESS 0x2357 ===
  0x2357	je     	0x2376
  === BLOCK LINK ===
    0x2359
=== CODE BLOCK END ===

=== CODE BLOCK ADDRESS 0x2359 ===
  0x2359	dec    	eax
  0x235a	mov    	ecx, dword ptr [0x3318]
  0x2360	xor    	edx, edx
  0x2362	dec    	eax
  0x2363	call   	dword ptr [0xdd7]
  === BLOCK LINK ===
    0x2369
=== CODE BLOCK END ===

=== CODE BLOCK ADDRESS 0x2369 ===
  0x2369	nop    	dword ptr [eax + eax]
  0x236e	dec    	eax
  0x236f	and    	dword ptr [0x32fa], 0
  0x2376	dec    	esp
  0x2377	lea    	eax, [0x32f3]
  === BLOCK LINK ===
    0x237d
=== CODE BLOCK END ===

=== CODE BLOCK ADDRESS 0x237d ===
  0x237d	dec    	eax
  0x237e	mov    	ecx, edi
  0x2380	dec    	eax
  0x2381	lea    	edx, [0x1281]
  0x2387	call   	0x1e28
  === BLOCK LINK ===
    0x238c
=== CODE BLOCK END ===

=== CODE BLOCK ADDRESS 0x238c ===
  0x238c	mov    	ebx, eax
  0x238e	test   	eax, eax
  0x2390	je     	0x2420
  === BLOCK LINK ===
    0x2396
=== CODE BLOCK END ===

=== CODE BLOCK ADDRESS 0x2396 ===
  0x2396	dec    	esp
  0x2397	mov    	eax, dword ptr [0x32cb]
  0x239d	dec    	ebp
  0x239e	test   	eax, eax
  0x23a0	je     	0x23bf
  === BLOCK LINK ===
    0x23a2
=== CODE BLOCK END ===

=== CODE BLOCK ADDRESS 0x23a2 ===
  0x23a2	dec    	eax
  0x23a3	mov    	ecx, dword ptr [0x32cf]
  0x23a9	xor    	edx, edx
  0x23ab	dec    	eax
  0x23ac	call   	dword ptr [0xd8e]
  === BLOCK LINK ===
    0x23b2
=== CODE BLOCK END ===

=== CODE BLOCK ADDRESS 0x23b2 ===
  0x23b2	nop    	dword ptr [eax + eax]
  0x23b7	dec    	eax
  0x23b8	and    	dword ptr [0x32a9], 0
  0x23bf	dec    	esp
  0x23c0	lea    	eax, [0x32a2]
  === BLOCK LINK ===
    0x23c6
=== CODE BLOCK END ===

=== CODE BLOCK ADDRESS 0x23c6 ===
  0x23c6	dec    	eax
  0x23c7	mov    	ecx, edi
  0x23c9	dec    	eax
  0x23ca	lea    	edx, [0x1258]
  0x23d0	call   	0x1e28
  === BLOCK LINK ===
    0x23d5
=== CODE BLOCK END ===

=== CODE BLOCK ADDRESS 0x23d5 ===
  0x23d5	mov    	ebx, eax
  0x23d7	test   	eax, eax
  0x23d9	je     	0x2420
  === BLOCK LINK ===
    0x23db
=== CODE BLOCK END ===

=== CODE BLOCK ADDRESS 0x23db ===
  0x23db	dec    	esp
  0x23dc	mov    	eax, dword ptr [0x327e]
  0x23e2	dec    	ebp
  0x23e3	test   	eax, eax
  0x23e5	je     	0x2404
  === BLOCK LINK ===
    0x23e7
=== CODE BLOCK END ===

=== CODE BLOCK ADDRESS 0x23e7 ===
  0x23e7	dec    	eax
  0x23e8	mov    	ecx, dword ptr [0x328a]
  0x23ee	xor    	edx, edx
  0x23f0	dec    	eax
  0x23f1	call   	dword ptr [0xd49]
  === BLOCK LINK ===
    0x23f7
=== CODE BLOCK END ===

=== CODE BLOCK ADDRESS 0x23f7 ===
  0x23f7	nop    	dword ptr [eax + eax]
  0x23fc	dec    	eax
  0x23fd	and    	dword ptr [0x325c], 0
  0x2404	dec    	esp
  0x2405	lea    	eax, [0x3255]
  === BLOCK LINK ===
    0x240b
=== CODE BLOCK END ===

=== CODE BLOCK ADDRESS 0x240b ===
  0x240b	dec    	eax
  0x240c	mov    	ecx, edi
  0x240e	dec    	eax
  0x240f	lea    	edx, [0x1233]
  0x2415	call   	0x1e28
  === BLOCK LINK ===
    0x241a
=== CODE BLOCK END ===

=== CODE BLOCK ADDRESS 0x241a ===
  0x241a	mov    	ebx, eax
  0x241c	test   	eax, eax
  0x241e	jne    	0x2425
  === BLOCK LINK ===
    0x2420
=== CODE BLOCK END ===

=== CODE BLOCK ADDRESS 0x2420 ===
  0x2420	call   	0x22b0
  === BLOCK LINK ===
    0x2425
=== CODE BLOCK END ===

=== CODE BLOCK ADDRESS 0x2425 ===
  0x2425	mov    	eax, ebx
  0x2427	dec    	eax
  0x2428	mov    	ebx, dword ptr [esp + 0x30]
  0x242c	dec    	eax
  0x242d	add    	esp, 0x20
  === BLOCK LINK ===
    0x2430
=== CODE BLOCK END ===

=== CODE BLOCK ADDRESS 0x2430 ===
  0x2430	pop    	edi
  0x2431	ret    	
  0x2432	int3   	
  0x2433	int3   	
  0x2434	int3   	
  === BLOCK LINK ===
    0x2435
=== CODE BLOCK END ===

=== CODE BLOCK ADDRESS 0x2435 ===
  0x2435	int3   	
  0x2436	int3   	
  0x2437	int3   	
  0x2438	int3   	
  0x2439	int3   	
  === BLOCK LINK ===
    0x243a
=== CODE BLOCK END ===

=== CODE BLOCK ADDRESS 0x243a ===
  0x243a	int3   	
  0x243b	int3   	
  0x243c	int3   	
  0x243d	int3   	
  0x243e	int3   	
  === BLOCK LINK ===
    0x243f
=== CODE BLOCK END ===

=== CODE BLOCK ADDRESS 0x243f ===
  0x243f	int3   	
  0x2440	dec    	eax
  0x2441	sub    	esp, 0x28
  0x2444	mov    	eax, 0x5a4d
  0x2449	cmp    	word ptr [0xffffdbb0], ax
  === BLOCK LINK ===
    0x2450
=== CODE BLOCK END ===

=== CODE BLOCK ADDRESS 0x2450 ===
  0x2450	je     	0x2456
  === BLOCK LINK ===
    0x2452
=== CODE BLOCK END ===

=== CODE BLOCK ADDRESS 0x2452 ===
  0x2452	xor    	eax, eax
  0x2454	jmp    	0x24a9
  === BLOCK LINK ===
    0x2456
=== CODE BLOCK END ===

=== CODE BLOCK ADDRESS 0x2456 ===
  0x2456	dec    	eax
  0x2457	arpl   	word ptr [0xffffdbdf], cx
  0x245d	dec    	eax
  0x245e	lea    	eax, [0xffffdb9c]
  0x2464	dec    	eax
  === BLOCK LINK ===
    0x2465
=== CODE BLOCK END ===

=== CODE BLOCK ADDRESS 0x2465 ===
  0x2465	add    	ecx, eax
  0x2467	cmp    	dword ptr [ecx], 0x4550
  0x246d	jne    	0x2452
  === BLOCK LINK ===
    0x246f
=== CODE BLOCK END ===

=== CODE BLOCK ADDRESS 0x246f ===
  0x246f	mov    	eax, 0x10b
  0x2474	cmp    	word ptr [ecx + 0x18], ax
  0x2478	je     	0x2498
  === BLOCK LINK ===
    0x247a
=== CODE BLOCK END ===

=== CODE BLOCK ADDRESS 0x247a ===
  0x247a	mov    	eax, 0x20b
  0x247f	cmp    	word ptr [ecx + 0x18], ax
  0x2483	jne    	0x2452
  === BLOCK LINK ===
    0x2485
=== CODE BLOCK END ===

=== CODE BLOCK ADDRESS 0x2485 ===
  0x2485	xor    	eax, eax
  0x2487	cmp    	dword ptr [ecx + 0x84], 0xe
  0x248e	jbe    	0x24a9
  === BLOCK LINK ===
    0x2490
=== CODE BLOCK END ===

=== CODE BLOCK ADDRESS 0x2490 ===
  0x2490	cmp    	dword ptr [ecx + 0xf8], eax
  0x2496	jmp    	0x24a6
  === BLOCK LINK ===
    0x2498
=== CODE BLOCK END ===

=== CODE BLOCK ADDRESS 0x2498 ===
  0x2498	xor    	eax, eax
  0x249a	cmp    	dword ptr [ecx + 0x74], 0xe
  0x249e	jbe    	0x24a9
  === BLOCK LINK ===
    0x24a0
=== CODE BLOCK END ===

=== CODE BLOCK ADDRESS 0x24a0 ===
  0x24a0	cmp    	dword ptr [ecx + 0xe8], eax
  0x24a6	setne  	al
  0x24a9	mov    	ecx, 2
  0x24ae	mov    	dword ptr [0x2b9c], eax
  0x24b4	call   	0x28d8
  === BLOCK LINK ===
    0x24b9
=== CODE BLOCK END ===

=== CODE BLOCK ADDRESS 0x24b9 ===
  0x24b9	mov    	ecx, eax
  0x24bb	call   	dword ptr [0xdcf]
  === BLOCK LINK ===
    0x24c1
=== CODE BLOCK END ===

=== CODE BLOCK ADDRESS 0x24c1 ===
  0x24c1	dec    	eax
  0x24c2	mov    	ecx, dword ptr [0xd80]
  0x24c8	dec    	eax
  0x24c9	or     	eax, 0xffffffff
  0x24cc	dec    	eax
  === BLOCK LINK ===
    0x24cd
=== CODE BLOCK END ===

=== CODE BLOCK ADDRESS 0x24cd ===
  0x24cd	mov    	dword ptr [0x31b5], eax
  0x24d3	dec    	eax
  0x24d4	mov    	dword ptr [0x31b6], eax
  0x24da	mov    	eax, dword ptr [0x2b84]
  0x24e0	mov    	dword ptr [ecx], eax
  === BLOCK LINK ===
    0x24e2
=== CODE BLOCK END ===

=== CODE BLOCK ADDRESS 0x24e2 ===
  0x24e2	dec    	eax
  0x24e3	mov    	ecx, dword ptr [0xd57]
  0x24e9	mov    	eax, dword ptr [0x2b69]
  0x24ef	mov    	dword ptr [ecx], eax
  0x24f1	call   	0x2930
  === BLOCK LINK ===
    0x24f6
=== CODE BLOCK END ===

=== CODE BLOCK ADDRESS 0x24f6 ===
  0x24f6	cmp    	dword ptr [0x2b03], 0
  0x24fd	jne    	0x250c
  === BLOCK LINK ===
    0x24ff
=== CODE BLOCK END ===

=== CODE BLOCK ADDRESS 0x24ff ===
  0x24ff	dec    	eax
  0x2500	lea    	ecx, [0x42a]
  0x2506	call   	dword ptr [0xd5c]
  === BLOCK LINK ===
    0x250c
=== CODE BLOCK END ===

=== CODE BLOCK ADDRESS 0x250c ===
  0x250c	xor    	eax, eax
  0x250e	dec    	eax
  0x250f	add    	esp, 0x28
  0x2512	ret    	
  0x2513	int3   	
  === BLOCK LINK ===
    0x2514
=== CODE BLOCK END ===

=== CODE BLOCK ADDRESS 0x2514 ===
  0x2514	int3   	
  0x2515	int3   	
  0x2516	int3   	
  0x2517	int3   	
  0x2518	int3   	
  === BLOCK LINK ===
    0x2519
=== CODE BLOCK END ===

=== CODE BLOCK ADDRESS 0x2519 ===
  0x2519	int3   	
  0x251a	int3   	
  0x251b	int3   	
  0x251c	int3   	
  0x251d	int3   	
  === BLOCK LINK ===
    0x251e
=== CODE BLOCK END ===

=== CODE BLOCK ADDRESS 0x251e ===
  0x251e	int3   	
  0x251f	int3   	
  0x2520	dec    	eax
  0x2521	sub    	esp, 0x38
  0x2524	mov    	eax, dword ptr [0x2b36]
  === BLOCK LINK ===
    0x252a
=== CODE BLOCK END ===

=== CODE BLOCK ADDRESS 0x252a ===
  0x252a	dec    	esp
  0x252b	lea    	eax, [0x2b17]
  0x2531	inc    	esp
  0x2532	mov    	ecx, dword ptr [0x2b24]
  0x2538	dec    	eax
  === BLOCK LINK ===
    0x2539
=== CODE BLOCK END ===

=== CODE BLOCK ADDRESS 0x2539 ===
  0x2539	lea    	edx, [0x2b01]
  0x253f	mov    	dword ptr [0x2b0f], eax
  0x2545	dec    	eax
  0x2546	lea    	ecx, [0x2aec]
  0x254c	dec    	eax
  === BLOCK LINK ===
    0x254d
=== CODE BLOCK END ===

=== CODE BLOCK ADDRESS 0x254d ===
  0x254d	lea    	eax, [0x2b01]
  0x2553	dec    	eax
  0x2554	mov    	dword ptr [esp + 0x20], eax
  0x2558	call   	dword ptr [0xd3a]
  === BLOCK LINK ===
    0x255e
=== CODE BLOCK END ===

=== CODE BLOCK ADDRESS 0x255e ===
  0x255e	mov    	dword ptr [0x2ad8], eax
  0x2564	dec    	eax
  0x2565	add    	esp, 0x38
  0x2568	ret    	
  0x2569	int3   	
  === BLOCK LINK ===
    0x256a
=== CODE BLOCK END ===

=== CODE BLOCK ADDRESS 0x11e6 ===
  0x11e6	dec    	eax
  0x11e7	mov    	ecx, dword ptr [ebx]
  0x11e9	dec    	eax
  0x11ea	call   	dword ptr [0x1ff0]
  === BLOCK LINK ===
    0x11f0
=== CODE BLOCK END ===

=== CODE BLOCK ADDRESS 0x256a ===
  0x256a	int3   	
  0x256b	int3   	
  0x256c	int3   	
  0x256d	int3   	
  0x256e	int3   	
  === BLOCK LINK ===
    0x256f
=== CODE BLOCK END ===

=== CODE BLOCK ADDRESS 0x256f ===
  0x256f	int3   	
  0x2570	dec    	eax
  0x2571	sub    	esp, 0x28
  0x2574	call   	0x2a24
  === BLOCK LINK ===
    0x2579
=== CODE BLOCK END ===

=== CODE BLOCK ADDRESS 0x2579 ===
  0x2579	dec    	eax
  0x257a	add    	esp, 0x28
  0x257d	jmp    	0x2588
  === BLOCK LINK ===
    0x2582
=== CODE BLOCK END ===

=== CODE BLOCK ADDRESS 0x2582 ===
  0x2582	int3   	
  0x2583	int3   	
  0x2584	int3   	
  0x2585	int3   	
  0x2586	int3   	
  === BLOCK LINK ===
    0x2587
=== CODE BLOCK END ===

=== CODE BLOCK ADDRESS 0x2587 ===
  0x2587	int3   	
  0x2588	dec    	eax
  0x2589	mov    	dword ptr [esp + 8], ebx
  0x258d	dec    	eax
  0x258e	mov    	dword ptr [esp + 0x10], edi
  === BLOCK LINK ===
    0x2592
=== CODE BLOCK END ===

=== CODE BLOCK ADDRESS 0x2592 ===
  0x2592	inc    	ecx
  0x2593	push   	esi
  0x2594	dec    	eax
  0x2595	sub    	esp, 0xb0
  0x259b	and    	dword ptr [esp + 0x20], 0
  === BLOCK LINK ===
    0x25a0
=== CODE BLOCK END ===

=== CODE BLOCK ADDRESS 0x25a0 ===
  0x25a0	dec    	eax
  0x25a1	lea    	ecx, [esp + 0x40]
  0x25a5	call   	dword ptr [0xbcd]
  === BLOCK LINK ===
    0x25ab
=== CODE BLOCK END ===

=== CODE BLOCK ADDRESS 0x25ab ===
  0x25ab	nop    	
  0x25ac	dec    	eax
  0x25ae	mov    	eax, dword ptr [0x30]
  0x25b5	dec    	eax
  0x25b6	mov    	ebx, dword ptr [eax + 8]
  === BLOCK LINK ===
    0x25b9
=== CODE BLOCK END ===

=== CODE BLOCK ADDRESS 0x25b9 ===
  0x25b9	xor    	edi, edi
  0x25bb	xor    	eax, eax
  0x25bd	.byte  	0xf0
  0x25be	dec    	eax
  0x25bf	cmpxchg  	dword ptr [0x30d2], ebx
  === BLOCK LINK ===
    0x25c6
=== CODE BLOCK END ===

=== CODE BLOCK ADDRESS 0x25c6 ===
  0x25c6	je     	0x25d2
  === BLOCK LINK ===
    0x25c8
=== CODE BLOCK END ===

=== CODE BLOCK ADDRESS 0x25c8 ===
  0x25c8	dec    	eax
  0x25c9	cmp    	eax, ebx
  0x25cb	jne    	0x25e7
  === BLOCK LINK ===
    0x25cd
=== CODE BLOCK END ===

=== CODE BLOCK ADDRESS 0x25cd ===
  0x25cd	mov    	edi, 1
  0x25d2	mov    	eax, dword ptr [0x30c8]
  0x25d8	cmp    	eax, 1
  0x25db	jne    	0x25f4
  === BLOCK LINK ===
    0x25dd
=== CODE BLOCK END ===

=== CODE BLOCK ADDRESS 0x25dd ===
  0x25dd	lea    	ecx, [eax + 0x1e]
  0x25e0	call   	0x2923
  === BLOCK LINK ===
    0x25e5
=== CODE BLOCK END ===

=== CODE BLOCK ADDRESS 0x25e5 ===
  0x25e5	jmp    	0x2661
  === BLOCK LINK ===
    0x25e7
=== CODE BLOCK END ===

=== CODE BLOCK ADDRESS 0x25e7 ===
  0x25e7	mov    	ecx, 0x3e8
  0x25ec	call   	dword ptr [0xb7e]
  === BLOCK LINK ===
    0x25f2
=== CODE BLOCK END ===

=== CODE BLOCK ADDRESS 0x25f2 ===
  0x25f2	jmp    	0x25bb
  === BLOCK LINK ===
    0x25f4
=== CODE BLOCK END ===

=== CODE BLOCK ADDRESS 0x25f4 ===
  0x25f4	mov    	eax, dword ptr [0x30a6]
  0x25fa	test   	eax, eax
  0x25fc	jne    	0x2657
  === BLOCK LINK ===
    0x25fe
=== CODE BLOCK END ===

=== CODE BLOCK ADDRESS 0x25fe ===
  0x25fe	mov    	dword ptr [0x3098], 1
  0x2608	dec    	esp
  0x2609	lea    	esi, [0xd51]
  0x260f	dec    	eax
  0x2610	lea    	ebx, [0xd32]
  === BLOCK LINK ===
    0x2616
=== CODE BLOCK END ===

=== CODE BLOCK ADDRESS 0x2616 ===
  0x2616	dec    	eax
  0x2617	mov    	dword ptr [esp + 0x30], ebx
  0x261b	mov    	dword ptr [esp + 0x24], eax
  0x261f	dec    	ecx
  0x2620	cmp    	ebx, esi
  === BLOCK LINK ===
    0x2622
=== CODE BLOCK END ===

=== CODE BLOCK ADDRESS 0x2622 ===
  0x2622	jae    	0x2649
  === BLOCK LINK ===
    0x2624
=== CODE BLOCK END ===

=== CODE BLOCK ADDRESS 0x2624 ===
  0x2624	test   	eax, eax
  0x2626	jne    	0x264d
  === BLOCK LINK ===
    0x2628
=== CODE BLOCK END ===

=== CODE BLOCK ADDRESS 0x2628 ===
  0x2628	dec    	eax
  0x2629	cmp    	dword ptr [ebx], 0
  0x262c	je     	0x263e
  === BLOCK LINK ===
    0x262e
=== CODE BLOCK END ===

=== CODE BLOCK ADDRESS 0x262e ===
  0x262e	dec    	eax
  0x262f	mov    	eax, dword ptr [ebx]
  0x2631	dec    	eax
  0x2632	mov    	ecx, dword ptr [0xcf0]
  0x2638	call   	ecx
  === BLOCK LINK ===
    0x263a
=== CODE BLOCK END ===

=== CODE BLOCK ADDRESS 0x263a ===
  0x263a	mov    	dword ptr [esp + 0x24], eax
  0x263e	dec    	eax
  0x263f	add    	ebx, 8
  0x2642	dec    	eax
  0x2643	mov    	dword ptr [esp + 0x30], ebx
  === BLOCK LINK ===
    0x2647
=== CODE BLOCK END ===

=== CODE BLOCK ADDRESS 0x2647 ===
  0x2647	jmp    	0x261f
  === BLOCK LINK ===
    0x2649
=== CODE BLOCK END ===

=== CODE BLOCK ADDRESS 0x2649 ===
  0x2649	test   	eax, eax
  0x264b	je     	0x2661
  === BLOCK LINK ===
    0x264d
=== CODE BLOCK END ===

=== CODE BLOCK ADDRESS 0x264d ===
  0x264d	mov    	eax, 0xff
  0x2652	jmp    	0x27b4
  === BLOCK LINK ===
    0x2657
=== CODE BLOCK END ===

=== CODE BLOCK ADDRESS 0x2657 ===
  0x2657	mov    	dword ptr [0x29d3], 1
  0x2661	mov    	eax, dword ptr [0x3039]
  0x2667	cmp    	eax, 1
  0x266a	jne    	0x2689
  === BLOCK LINK ===
    0x266c
=== CODE BLOCK END ===

=== CODE BLOCK ADDRESS 0x266c ===
  0x266c	dec    	eax
  0x266d	lea    	edx, [0xccd]
  0x2673	dec    	eax
  0x2674	lea    	ecx, [0xcb6]
  0x267a	call   	0x2afe
  === BLOCK LINK ===
    0x267f
=== CODE BLOCK END ===

=== CODE BLOCK ADDRESS 0x267f ===
  0x267f	mov    	dword ptr [0x3017], 2
  0x2689	test   	edi, edi
  0x268b	jne    	0x2696
  === BLOCK LINK ===
    0x268d
=== CODE BLOCK END ===

=== CODE BLOCK ADDRESS 0x268d ===
  0x268d	xor    	eax, eax
  0x268f	dec    	eax
  0x2690	xchg   	dword ptr [0x3002], eax
  0x2696	dec    	eax
  0x2697	cmp    	dword ptr [0x300a], 0
  === BLOCK LINK ===
    0x269e
=== CODE BLOCK END ===

=== CODE BLOCK ADDRESS 0x269e ===
  0x269e	je     	0x26ca
  === BLOCK LINK ===
    0x26a0
=== CODE BLOCK END ===

=== CODE BLOCK ADDRESS 0x26a0 ===
  0x26a0	dec    	eax
  0x26a1	lea    	ecx, [0x3001]
  0x26a7	call   	0x2990
  === BLOCK LINK ===
    0x26ac
=== CODE BLOCK END ===

=== CODE BLOCK ADDRESS 0x26ac ===
  0x26ac	test   	eax, eax
  0x26ae	je     	0x26ca
  === BLOCK LINK ===
    0x26b0
=== CODE BLOCK END ===

=== CODE BLOCK ADDRESS 0x26b0 ===
  0x26b0	inc    	ebp
  0x26b1	xor    	eax, eax
  0x26b3	inc    	ecx
  0x26b4	lea    	edx, [eax + 2]
  0x26b7	xor    	ecx, ecx
  === BLOCK LINK ===
    0x26b9
=== CODE BLOCK END ===

=== CODE BLOCK ADDRESS 0x26b9 ===
  0x26b9	dec    	eax
  0x26ba	mov    	eax, dword ptr [0x2fe8]
  0x26c0	dec    	esp
  0x26c1	mov    	ecx, dword ptr [0xc61]
  0x26c7	inc    	ecx
  === BLOCK LINK ===
    0x26c8
=== CODE BLOCK END ===

=== CODE BLOCK ADDRESS 0x26c8 ===
  0x26c8	call   	ecx
  === BLOCK LINK ===
    0x26ca
=== CODE BLOCK END ===

=== CODE BLOCK ADDRESS 0x26ca ===
  0x26ca	dec    	eax
  0x26cb	mov    	eax, dword ptr [0xb7f]
  0x26d1	dec    	eax
  0x26d2	mov    	ebx, dword ptr [eax]
  0x26d4	dec    	eax
  === BLOCK LINK ===
    0x26d5
=== CODE BLOCK END ===

=== CODE BLOCK ADDRESS 0x26d5 ===
  0x26d5	mov    	dword ptr [esp + 0x28], ebx
  0x26d9	mov    	edi, dword ptr [esp + 0x20]
  0x26dd	movzx  	ecx, byte ptr [ebx]
  0x26e0	cmp    	cl, 0x20
  0x26e3	ja     	0x2756
  === BLOCK LINK ===
    0x26e5
=== CODE BLOCK END ===

=== CODE BLOCK ADDRESS 0x26e5 ===
  0x26e5	test   	cl, cl
  0x26e7	je     	0x26ed
  === BLOCK LINK ===
    0x26e9
=== CODE BLOCK END ===

=== CODE BLOCK ADDRESS 0x26e9 ===
  0x26e9	test   	edi, edi
  0x26eb	jne    	0x2756
  === BLOCK LINK ===
    0x26ed
=== CODE BLOCK END ===

=== CODE BLOCK ADDRESS 0x26ed ===
  0x26ed	dec    	cl
  0x26ef	cmp    	cl, 0x1f
  0x26f2	ja     	0x2700
  === BLOCK LINK ===
    0x26f4
=== CODE BLOCK END ===

=== CODE BLOCK ADDRESS 0x26f4 ===
  0x26f4	dec    	eax
  0x26f5	inc    	ebx
  0x26f7	dec    	eax
  0x26f8	mov    	dword ptr [esp + 0x28], ebx
  0x26fc	mov    	cl, byte ptr [ebx]
  === BLOCK LINK ===
    0x26fe
=== CODE BLOCK END ===

=== CODE BLOCK ADDRESS 0x26fe ===
  0x26fe	jmp    	0x26ed
  === BLOCK LINK ===
    0x2700
=== CODE BLOCK END ===

=== CODE BLOCK ADDRESS 0x2700 ===
  0x2700	test   	byte ptr [esp + 0x7c], 1
  0x2705	movzx  	eax, word ptr [esp + 0x80]
  0x270d	inc    	ecx
  0x270e	mov    	ecx, 0xa
  0x2713	inc    	esp
  === BLOCK LINK ===
    0x2714
=== CODE BLOCK END ===

=== CODE BLOCK ADDRESS 0x2714 ===
  0x2714	cmovne  	ecx, eax
  0x2717	dec    	esp
  0x2718	mov    	eax, ebx
  0x271a	xor    	edx, edx
  0x271c	dec    	eax
  === BLOCK LINK ===
    0x271d
=== CODE BLOCK END ===

=== CODE BLOCK ADDRESS 0x271d ===
  0x271d	lea    	ecx, [0xffffd8dd]
  0x2723	call   	0x1008
  === BLOCK LINK ===
    0x2728
=== CODE BLOCK END ===

=== CODE BLOCK ADDRESS 0x2728 ===
  0x2728	mov    	dword ptr [0x2902], eax
  0x272e	cmp    	dword ptr [0x291b], 0
  0x2735	jne    	0x273f
  === BLOCK LINK ===
    0x2737
=== CODE BLOCK END ===

=== CODE BLOCK ADDRESS 0x2737 ===
  0x2737	mov    	ecx, eax
  0x2739	call   	dword ptr [0xb49]
  === BLOCK LINK ===
    0x273f
=== CODE BLOCK END ===

=== CODE BLOCK ADDRESS 0x273f ===
  0x273f	cmp    	dword ptr [0x28ee], 0
  0x2746	jne    	0x2754
  === BLOCK LINK ===
    0x2748
=== CODE BLOCK END ===

=== CODE BLOCK ADDRESS 0x2748 ===
  0x2748	call   	dword ptr [0xb2a]
  === BLOCK LINK ===
    0x274e
=== CODE BLOCK END ===

=== CODE BLOCK ADDRESS 0x274e ===
  0x274e	mov    	eax, dword ptr [0x28dc]
  0x2754	jmp    	0x27b4
  === BLOCK LINK ===
    0x2756
=== CODE BLOCK END ===

=== CODE BLOCK ADDRESS 0x2756 ===
  0x2756	cmp    	cl, 0x22
  0x2759	jne    	0x2768
  === BLOCK LINK ===
    0x275b
=== CODE BLOCK END ===

=== CODE BLOCK ADDRESS 0x275b ===
  0x275b	xor    	eax, eax
  0x275d	test   	edi, edi
  0x275f	sete   	al
  0x2762	mov    	edi, eax
  0x2764	mov    	dword ptr [esp + 0x20], eax
  === BLOCK LINK ===
    0x2768
=== CODE BLOCK END ===

=== CODE BLOCK ADDRESS 0x2768 ===
  0x2768	call   	dword ptr [0xb02]
  === BLOCK LINK ===
    0x276e
=== CODE BLOCK END ===

=== CODE BLOCK ADDRESS 0x276e ===
  0x276e	test   	eax, eax
  0x2770	je     	0x277a
  === BLOCK LINK ===
    0x2772
=== CODE BLOCK END ===

=== CODE BLOCK ADDRESS 0x2772 ===
  0x2772	dec    	eax
  0x2773	inc    	ebx
  0x2775	dec    	eax
  0x2776	mov    	dword ptr [esp + 0x28], ebx
  0x277a	dec    	eax
  === BLOCK LINK ===
    0x277b
=== CODE BLOCK END ===

=== CODE BLOCK ADDRESS 0x277b ===
  0x277b	inc    	ebx
  0x277d	dec    	eax
  0x277e	mov    	dword ptr [esp + 0x28], ebx
  0x2782	jmp    	0x26dd
  === BLOCK LINK ===
    0x2787
=== CODE BLOCK END ===

=== CODE BLOCK ADDRESS 0x2787 ===
  0x2787	mov    	dword ptr [0x28a3], eax
  0x278d	cmp    	dword ptr [0x28bc], 0
  0x2794	jne    	0x279f
  === BLOCK LINK ===
    0x2796
=== CODE BLOCK END ===

=== CODE BLOCK ADDRESS 0x2796 ===
  0x2796	mov    	ecx, eax
  0x2798	call   	dword ptr [0xae2]
  === BLOCK LINK ===
    0x279e
=== CODE BLOCK END ===

=== CODE BLOCK ADDRESS 0x279e ===
  0x279e	int3   	
  0x279f	cmp    	dword ptr [0x288e], 0
  0x27a6	jne    	0x27b4
  === BLOCK LINK ===
    0x27a8
=== CODE BLOCK END ===

=== CODE BLOCK ADDRESS 0x27a8 ===
  0x27a8	call   	dword ptr [0xaca]
  === BLOCK LINK ===
    0x27ae
=== CODE BLOCK END ===

=== CODE BLOCK ADDRESS 0x27ae ===
  0x27ae	mov    	eax, dword ptr [0x287c]
  0x27b4	dec    	esp
  0x27b5	lea    	ebx, [esp + 0xb0]
  0x27bc	dec    	ecx
  0x27bd	mov    	ebx, dword ptr [ebx + 0x10]
  === BLOCK LINK ===
    0x27c0
=== CODE BLOCK END ===

=== CODE BLOCK ADDRESS 0x27c0 ===
  0x27c0	dec    	ecx
  0x27c1	mov    	edi, dword ptr [ebx + 0x18]
  0x27c4	dec    	ecx
  0x27c5	mov    	esp, ebx
  0x27c7	inc    	ecx
  === BLOCK LINK ===
    0x27c8
=== CODE BLOCK END ===

=== CODE BLOCK ADDRESS 0x27c8 ===
  0x27c8	pop    	esi
  0x27c9	ret    	
  0x27ca	int3   	
  0x27cb	int3   	
  0x27cc	int3   	
  === BLOCK LINK ===
    0x27cd
=== CODE BLOCK END ===

=== CODE BLOCK ADDRESS 0x27cd ===
  0x27cd	int3   	
  0x27ce	int3   	
  0x27cf	int3   	
  0x27d0	int3   	
  0x27d1	int3   	
  === BLOCK LINK ===
    0x27d2
=== CODE BLOCK END ===

=== CODE BLOCK ADDRESS 0x27d2 ===
  0x27d2	int3   	
  0x27d3	int3   	
  0x27d4	int3   	
  0x27d5	int3   	
  0x27d6	nop    	word ptr [eax + eax]
  === BLOCK LINK ===
    0x27e0
=== CODE BLOCK END ===

=== CODE BLOCK ADDRESS 0x27e0 ===
  0x27e0	dec    	eax
  0x27e1	cmp    	ecx, dword ptr [0x2821]
  0x27e7	jne    	0x27f9
  === BLOCK LINK ===
    0x27e9
=== CODE BLOCK END ===

=== CODE BLOCK ADDRESS 0x27e9 ===
  0x27e9	dec    	eax
  0x27ea	rol    	ecx, 0x10
  0x27ed	test   	cx, 0xffff
  0x27f2	jne    	0x27f5
  === BLOCK LINK ===
    0x27f4
=== CODE BLOCK END ===

=== CODE BLOCK ADDRESS 0x27f4 ===
  0x27f4	ret    	
  0x27f5	dec    	eax
  0x27f6	ror    	ecx, 0x10
  0x27f9	jmp    	0x2b70
  === BLOCK LINK ===
    0x27fe
=== CODE BLOCK END ===

=== CODE BLOCK ADDRESS 0x1206 ===
  0x1206	dec    	eax
  0x1207	mov    	ebx, dword ptr [esp + 0x30]
  0x120b	dec    	eax
  0x120c	add    	esp, 0x20
  === BLOCK LINK ===
    0x120f
=== CODE BLOCK END ===

=== CODE BLOCK ADDRESS 0x27fe ===
  0x27fe	int3   	
  0x27ff	int3   	
  0x2800	int3   	
  0x2801	int3   	
  0x2802	int3   	
  === BLOCK LINK ===
    0x2803
=== CODE BLOCK END ===

=== CODE BLOCK ADDRESS 0x2803 ===
  0x2803	int3   	
  0x2804	int3   	
  0x2805	int3   	
  0x2806	int3   	
  0x2807	int3   	
  === BLOCK LINK ===
    0x2808
=== CODE BLOCK END ===

=== CODE BLOCK ADDRESS 0x2808 ===
  0x2808	int3   	
  0x2809	int3   	
  0x280a	int3   	
  0x280b	int3   	
  0x280c	int3   	
  === BLOCK LINK ===
    0x280d
=== CODE BLOCK END ===

=== CODE BLOCK ADDRESS 0x280d ===
  0x280d	int3   	
  0x280e	int3   	
  0x280f	int3   	
  0x2810	dec    	eax
  0x2811	sub    	esp, 0x28
  === BLOCK LINK ===
    0x2814
=== CODE BLOCK END ===

=== CODE BLOCK ADDRESS 0x2814 ===
  0x2814	dec    	eax
  0x2815	mov    	eax, dword ptr [ecx]
  0x2817	cmp    	dword ptr [eax], 0xe06d7363
  0x281d	jne    	0x2842
  === BLOCK LINK ===
    0x281f
=== CODE BLOCK END ===

=== CODE BLOCK ADDRESS 0x281f ===
  0x281f	cmp    	dword ptr [eax + 0x18], 4
  0x2823	jne    	0x2842
  === BLOCK LINK ===
    0x2825
=== CODE BLOCK END ===

=== CODE BLOCK ADDRESS 0x2825 ===
  0x2825	mov    	ecx, dword ptr [eax + 0x20]
  0x2828	lea    	eax, [ecx - 0x19930520]
  0x282e	cmp    	eax, 2
  0x2831	jbe    	0x283b
  === BLOCK LINK ===
    0x2833
=== CODE BLOCK END ===

=== CODE BLOCK ADDRESS 0x2833 ===
  0x2833	cmp    	ecx, 0x1994000
  0x2839	jne    	0x2842
  === BLOCK LINK ===
    0x283b
=== CODE BLOCK END ===

=== CODE BLOCK ADDRESS 0x283b ===
  0x283b	call   	dword ptr [0x9f7]
  === BLOCK LINK ===
    0x2841
=== CODE BLOCK END ===

=== CODE BLOCK ADDRESS 0x2841 ===
  0x2841	int3   	
  0x2842	xor    	eax, eax
  0x2844	dec    	eax
  0x2845	add    	esp, 0x28
  0x2848	ret    	
  === BLOCK LINK ===
    0x2849
=== CODE BLOCK END ===

=== CODE BLOCK ADDRESS 0x123e ===
  0x123e	dec    	eax
  0x123f	and    	dword ptr [ecx + 8], 0
  0x1243	dec    	eax
  === BLOCK LINK ===
    0x1244
=== CODE BLOCK END ===

=== CODE BLOCK ADDRESS 0x2849 ===
  0x2849	int3   	
  0x284a	int3   	
  0x284b	int3   	
  0x284c	int3   	
  0x284d	int3   	
  === BLOCK LINK ===
    0x284e
=== CODE BLOCK END ===

=== CODE BLOCK ADDRESS 0x284e ===
  0x284e	int3   	
  0x284f	int3   	
  0x2850	dec    	eax
  0x2851	sub    	esp, 0x28
  0x2854	dec    	eax
  === BLOCK LINK ===
    0x2855
=== CODE BLOCK END ===

=== CODE BLOCK ADDRESS 0x2855 ===
  0x2855	lea    	ecx, [0xffffffb5]
  0x285b	call   	dword ptr [0x91f]
  === BLOCK LINK ===
    0x2861
=== CODE BLOCK END ===

=== CODE BLOCK ADDRESS 0x2861 ===
  0x2861	xor    	eax, eax
  0x2863	dec    	eax
  0x2864	add    	esp, 0x28
  0x2867	ret    	
  0x2868	int3   	
  === BLOCK LINK ===
    0x2869
=== CODE BLOCK END ===

=== CODE BLOCK ADDRESS 0x2869 ===
  0x2869	int3   	
  0x286a	int3   	
  0x286b	int3   	
  0x286c	int3   	
  0x286d	int3   	
  === BLOCK LINK ===
    0x286e
=== CODE BLOCK END ===

=== CODE BLOCK ADDRESS 0x286e ===
  0x286e	jmp    	dword ptr [0xa34]
  === BLOCK LINK ===
    0x2874
=== CODE BLOCK END ===

=== CODE BLOCK ADDRESS 0x2874 ===
  0x2874	int3   	
  0x2875	int3   	
  0x2876	int3   	
  0x2877	int3   	
  0x2878	int3   	
  === BLOCK LINK ===
    0x2879
=== CODE BLOCK END ===

=== CODE BLOCK ADDRESS 0x2879 ===
  0x2879	int3   	
  0x287a	int3   	
  0x287b	int3   	
  0x287c	dec    	eax
  0x287d	sub    	esp, 0x18
  === BLOCK LINK ===
    0x2880
=== CODE BLOCK END ===

=== CODE BLOCK ADDRESS 0x2880 ===
  0x2880	xor    	edx, edx
  0x2882	dec    	eax
  0x2883	lea    	eax, [ecx - 1]
  0x2886	dec    	eax
  0x2887	cmp    	eax, -3
  === BLOCK LINK ===
    0x288a
=== CODE BLOCK END ===

=== CODE BLOCK ADDRESS 0x288a ===
  0x288a	ja     	0x28c8
  === BLOCK LINK ===
    0x288c
=== CODE BLOCK END ===

=== CODE BLOCK ADDRESS 0x288c ===
  0x288c	mov    	eax, 0x5a4d
  0x2891	cmp    	word ptr [ecx], ax
  0x2894	jne    	0x28c0
  === BLOCK LINK ===
    0x2896
=== CODE BLOCK END ===

=== CODE BLOCK ADDRESS 0x2896 ===
  0x2896	cmp    	dword ptr [ecx + 0x3c], edx
  0x2899	jl     	0x28c0
  === BLOCK LINK ===
    0x289b
=== CODE BLOCK END ===

=== CODE BLOCK ADDRESS 0x289b ===
  0x289b	cmp    	dword ptr [ecx + 0x3c], 0x10000000
  0x28a2	jae    	0x28c0
  === BLOCK LINK ===
    0x28a4
=== CODE BLOCK END ===

=== CODE BLOCK ADDRESS 0x28a4 ===
  0x28a4	dec    	eax
  0x28a5	arpl   	word ptr [ecx + 0x3c], ax
  0x28a8	dec    	eax
  0x28a9	add    	eax, ecx
  0x28ab	dec    	eax
  === BLOCK LINK ===
    0x28ac
=== CODE BLOCK END ===

=== CODE BLOCK ADDRESS 0x28ac ===
  0x28ac	mov    	dword ptr [esp], eax
  0x28af	cmp    	dword ptr [eax], 0x4550
  0x28b5	dec    	eax
  0x28b6	cmovne  	eax, edx
  0x28b9	dec    	eax
  === BLOCK LINK ===
    0x28ba
=== CODE BLOCK END ===

=== CODE BLOCK ADDRESS 0x28ba ===
  0x28ba	mov    	edx, eax
  0x28bc	dec    	eax
  0x28bd	mov    	dword ptr [esp], eax
  0x28c0	jmp    	0x28c8
  === BLOCK LINK ===
    0x28c2
=== CODE BLOCK END ===

=== CODE BLOCK ADDRESS 0x28c2 ===
  0x28c2	xor    	edx, edx
  0x28c4	dec    	eax
  0x28c5	mov    	dword ptr [esp], edx
  0x28c8	dec    	eax
  0x28c9	mov    	eax, edx
  === BLOCK LINK ===
    0x28cb
=== CODE BLOCK END ===

=== CODE BLOCK ADDRESS 0x28cb ===
  0x28cb	dec    	eax
  0x28cc	add    	esp, 0x18
  0x28cf	ret    	
  0x28d0	int3   	
  0x28d1	int3   	
  === BLOCK LINK ===
    0x28d2
=== CODE BLOCK END ===

=== CODE BLOCK ADDRESS 0x28d2 ===
  0x28d2	int3   	
  0x28d3	int3   	
  0x28d4	int3   	
  0x28d5	int3   	
  0x28d6	int3   	
  === BLOCK LINK ===
    0x28d7
=== CODE BLOCK END ===

=== CODE BLOCK ADDRESS 0x28d7 ===
  0x28d7	int3   	
  0x28d8	inc    	eax
  0x28d9	push   	ebx
  0x28da	dec    	eax
  0x28db	sub    	esp, 0x20
  === BLOCK LINK ===
    0x28de
=== CODE BLOCK END ===

=== CODE BLOCK ADDRESS 0x28de ===
  0x28de	mov    	ebx, ecx
  0x28e0	xor    	ecx, ecx
  0x28e2	call   	dword ptr [0x8a0]
  === BLOCK LINK ===
    0x28e8
=== CODE BLOCK END ===

=== CODE BLOCK ADDRESS 0x28e8 ===
  0x28e8	dec    	eax
  0x28e9	test   	eax, eax
  0x28eb	je     	0x2915
  === BLOCK LINK ===
    0x28ed
=== CODE BLOCK END ===

=== CODE BLOCK ADDRESS 0x28ed ===
  0x28ed	dec    	eax
  0x28ee	mov    	ecx, eax
  0x28f0	call   	0x287c
  === BLOCK LINK ===
    0x28f5
=== CODE BLOCK END ===

=== CODE BLOCK ADDRESS 0x28f5 ===
  0x28f5	dec    	eax
  0x28f6	test   	eax, eax
  0x28f8	je     	0x2915
  === BLOCK LINK ===
    0x28fa
=== CODE BLOCK END ===

=== CODE BLOCK ADDRESS 0x28fa ===
  0x28fa	mov    	ecx, 2
  0x28ff	cmp    	word ptr [eax + 0x5c], cx
  0x2903	jne    	0x2909
  === BLOCK LINK ===
    0x2905
=== CODE BLOCK END ===

=== CODE BLOCK ADDRESS 0x2905 ===
  0x2905	mov    	eax, ecx
  0x2907	jmp    	0x2917
  === BLOCK LINK ===
    0x2909
=== CODE BLOCK END ===

=== CODE BLOCK ADDRESS 0x2909 ===
  0x2909	cmp    	word ptr [eax + 0x5c], 3
  0x290e	mov    	eax, 1
  0x2913	je     	0x2917
  === BLOCK LINK ===
    0x2915
=== CODE BLOCK END ===

=== CODE BLOCK ADDRESS 0x2915 ===
  0x2915	mov    	eax, ebx
  0x2917	dec    	eax
  0x2918	add    	esp, 0x20
  0x291b	pop    	ebx
  0x291c	ret    	
  === BLOCK LINK ===
    0x291d
=== CODE BLOCK END ===

=== CODE BLOCK ADDRESS 0x291d ===
  0x291d	int3   	
  0x291e	int3   	
  0x291f	int3   	
  0x2920	int3   	
  0x2921	int3   	
  === BLOCK LINK ===
    0x2922
=== CODE BLOCK END ===

=== CODE BLOCK ADDRESS 0x2922 ===
  0x2922	int3   	
  0x2923	jmp    	dword ptr [0x977]
  === BLOCK LINK ===
    0x2929
=== CODE BLOCK END ===

=== CODE BLOCK ADDRESS 0x2929 ===
  0x2929	int3   	
  0x292a	int3   	
  0x292b	int3   	
  0x292c	int3   	
  0x292d	int3   	
  === BLOCK LINK ===
    0x292e
=== CODE BLOCK END ===

=== CODE BLOCK ADDRESS 0x292e ===
  0x292e	int3   	
  0x292f	int3   	
  0x2930	xor    	eax, eax
  0x2932	ret    	
  0x2933	int3   	
  === BLOCK LINK ===
    0x2934
=== CODE BLOCK END ===

=== CODE BLOCK ADDRESS 0x1308 ===
  0x1308	mov    	eax, edi
  0x130a	dec    	eax
  0x130b	mov    	ecx, dword ptr [esp + 0x250]
  === BLOCK LINK ===
    0x1312
=== CODE BLOCK END ===

=== CODE BLOCK ADDRESS 0x2934 ===
  0x2934	int3   	
  0x2935	int3   	
  0x2936	int3   	
  0x2937	int3   	
  0x2938	int3   	
  === BLOCK LINK ===
    0x2939
=== CODE BLOCK END ===

=== CODE BLOCK ADDRESS 0x2939 ===
  0x2939	int3   	
  0x293a	int3   	
  0x293b	int3   	
  0x293c	int3   	
  0x293d	int3   	
  === BLOCK LINK ===
    0x293e
=== CODE BLOCK END ===

=== CODE BLOCK ADDRESS 0x293e ===
  0x293e	int3   	
  0x293f	int3   	
  0x2940	dec    	esp
  0x2941	arpl   	word ptr [ecx + 0x3c], ax
  0x2944	inc    	ebp
  === BLOCK LINK ===
    0x2945
=== CODE BLOCK END ===

=== CODE BLOCK ADDRESS 0x2945 ===
  0x2945	xor    	ecx, ecx
  0x2947	dec    	esp
  0x2948	add    	eax, ecx
  0x294a	dec    	esp
  0x294b	mov    	edx, edx
  === BLOCK LINK ===
    0x294d
=== CODE BLOCK END ===

=== CODE BLOCK ADDRESS 0x294d ===
  0x294d	inc    	ecx
  0x294e	movzx  	eax, word ptr [eax + 0x14]
  0x2952	inc    	ebp
  0x2953	movzx  	ebx, word ptr [eax + 6]
  0x2957	dec    	eax
  === BLOCK LINK ===
    0x2958
=== CODE BLOCK END ===

=== CODE BLOCK ADDRESS 0x2958 ===
  0x2958	add    	eax, 0x18
  0x295b	dec    	ecx
  0x295c	add    	eax, eax
  0x295e	inc    	ebp
  0x295f	test   	ebx, ebx
  === BLOCK LINK ===
    0x2961
=== CODE BLOCK END ===

=== CODE BLOCK ADDRESS 0x2961 ===
  0x2961	je     	0x2981
  === BLOCK LINK ===
    0x2963
=== CODE BLOCK END ===

=== CODE BLOCK ADDRESS 0x2963 ===
  0x2963	mov    	edx, dword ptr [eax + 0xc]
  0x2966	dec    	esp
  0x2967	cmp    	edx, edx
  0x2969	jb     	0x2975
  === BLOCK LINK ===
    0x296b
=== CODE BLOCK END ===

=== CODE BLOCK ADDRESS 0x296b ===
  0x296b	mov    	ecx, dword ptr [eax + 8]
  0x296e	add    	ecx, edx
  0x2970	dec    	esp
  0x2971	cmp    	edx, ecx
  0x2973	jb     	0x2983
  === BLOCK LINK ===
    0x2975
=== CODE BLOCK END ===

=== CODE BLOCK ADDRESS 0x2975 ===
  0x2975	inc    	ecx
  0x2976	inc    	ecx
  0x2978	dec    	eax
  0x2979	add    	eax, 0x28
  0x297c	inc    	ebp
  === BLOCK LINK ===
    0x297d
=== CODE BLOCK END ===

=== CODE BLOCK ADDRESS 0x297d ===
  0x297d	cmp    	ecx, ebx
  0x297f	jb     	0x2963
  === BLOCK LINK ===
    0x2981
=== CODE BLOCK END ===

=== CODE BLOCK ADDRESS 0x2981 ===
  0x2981	xor    	eax, eax
  0x2983	ret    	
  0x2984	int3   	
  0x2985	int3   	
  0x2986	int3   	
  === BLOCK LINK ===
    0x2987
=== CODE BLOCK END ===

=== CODE BLOCK ADDRESS 0x2987 ===
  0x2987	int3   	
  0x2988	int3   	
  0x2989	int3   	
  0x298a	int3   	
  0x298b	int3   	
  === BLOCK LINK ===
    0x298c
=== CODE BLOCK END ===

=== CODE BLOCK ADDRESS 0x298c ===
  0x298c	int3   	
  0x298d	int3   	
  0x298e	int3   	
  0x298f	int3   	
  0x2990	dec    	eax
  === BLOCK LINK ===
    0x2991
=== CODE BLOCK END ===

=== CODE BLOCK ADDRESS 0x2991 ===
  0x2991	mov    	dword ptr [esp + 8], ebx
  0x2995	push   	edi
  0x2996	dec    	eax
  0x2997	sub    	esp, 0x20
  0x299a	dec    	eax
  === BLOCK LINK ===
    0x299b
=== CODE BLOCK END ===

=== CODE BLOCK ADDRESS 0x299b ===
  0x299b	mov    	ebx, ecx
  0x299d	dec    	eax
  0x299e	lea    	edi, [0xffffd65c]
  0x29a4	dec    	eax
  0x29a5	mov    	ecx, edi
  === BLOCK LINK ===
    0x29a7
=== CODE BLOCK END ===

=== CODE BLOCK ADDRESS 0x29a7 ===
  0x29a7	call   	0x29f0
  === BLOCK LINK ===
    0x29ac
=== CODE BLOCK END ===

=== CODE BLOCK ADDRESS 0x29ac ===
  0x29ac	test   	eax, eax
  0x29ae	je     	0x29d2
  === BLOCK LINK ===
    0x29b0
=== CODE BLOCK END ===

=== CODE BLOCK ADDRESS 0x29b0 ===
  0x29b0	dec    	eax
  0x29b1	sub    	ebx, edi
  0x29b3	dec    	eax
  0x29b4	mov    	edx, ebx
  0x29b6	dec    	eax
  === BLOCK LINK ===
    0x29b7
=== CODE BLOCK END ===

=== CODE BLOCK ADDRESS 0x29b7 ===
  0x29b7	mov    	ecx, edi
  0x29b9	call   	0x2940
  === BLOCK LINK ===
    0x29be
=== CODE BLOCK END ===

=== CODE BLOCK ADDRESS 0x29be ===
  0x29be	dec    	eax
  0x29bf	test   	eax, eax
  0x29c1	je     	0x29d2
  === BLOCK LINK ===
    0x29c3
=== CODE BLOCK END ===

=== CODE BLOCK ADDRESS 0x29c3 ===
  0x29c3	mov    	eax, dword ptr [eax + 0x24]
  0x29c6	shr    	eax, 0x1f
  0x29c9	not    	eax
  0x29cb	and    	eax, 1
  0x29ce	jmp    	0x29d2
  === BLOCK LINK ===
    0x29d0
=== CODE BLOCK END ===

=== CODE BLOCK ADDRESS 0x29d0 ===
  0x29d0	xor    	eax, eax
  0x29d2	dec    	eax
  0x29d3	mov    	ebx, dword ptr [esp + 0x30]
  0x29d7	dec    	eax
  0x29d8	add    	esp, 0x20
  === BLOCK LINK ===
    0x29db
=== CODE BLOCK END ===

=== CODE BLOCK ADDRESS 0x29db ===
  0x29db	pop    	edi
  0x29dc	ret    	
  0x29dd	int3   	
  0x29de	int3   	
  0x29df	int3   	
  === BLOCK LINK ===
    0x29e0
=== CODE BLOCK END ===

=== CODE BLOCK ADDRESS 0x1b1c ===
  0x1b1c	inc    	eax
  0x1b1d	push   	ebx
  0x1b1e	push   	ebp
  0x1b1f	push   	esi
  === BLOCK LINK ===
    0x1b20
=== CODE BLOCK END ===

=== CODE BLOCK ADDRESS 0x29e0 ===
  0x29e0	int3   	
  0x29e1	int3   	
  0x29e2	int3   	
  0x29e3	int3   	
  0x29e4	int3   	
  === BLOCK LINK ===
    0x29e5
=== CODE BLOCK END ===

=== CODE BLOCK ADDRESS 0x29e5 ===
  0x29e5	int3   	
  0x29e6	int3   	
  0x29e7	int3   	
  0x29e8	int3   	
  0x29e9	int3   	
  === BLOCK LINK ===
    0x29ea
=== CODE BLOCK END ===

=== CODE BLOCK ADDRESS 0x29ea ===
  0x29ea	int3   	
  0x29eb	int3   	
  0x29ec	int3   	
  0x29ed	int3   	
  0x29ee	int3   	
  === BLOCK LINK ===
    0x29ef
=== CODE BLOCK END ===

=== CODE BLOCK ADDRESS 0x29ef ===
  0x29ef	int3   	
  0x29f0	mov    	eax, 0x5a4d
  0x29f5	cmp    	word ptr [ecx], ax
  0x29f8	jne    	0x2a1a
  === BLOCK LINK ===
    0x29fa
=== CODE BLOCK END ===

=== CODE BLOCK ADDRESS 0x29fa ===
  0x29fa	dec    	eax
  0x29fb	arpl   	word ptr [ecx + 0x3c], ax
  0x29fe	dec    	eax
  0x29ff	add    	eax, ecx
  0x2a01	cmp    	dword ptr [eax], 0x4550
  === BLOCK LINK ===
    0x2a07
=== CODE BLOCK END ===

=== CODE BLOCK ADDRESS 0x2a07 ===
  0x2a07	jne    	0x2a1a
  === BLOCK LINK ===
    0x2a09
=== CODE BLOCK END ===

=== CODE BLOCK ADDRESS 0x2a09 ===
  0x2a09	mov    	ecx, 0x20b
  0x2a0e	cmp    	word ptr [eax + 0x18], cx
  0x2a12	jne    	0x2a1a
  === BLOCK LINK ===
    0x2a14
=== CODE BLOCK END ===

=== CODE BLOCK ADDRESS 0x2a14 ===
  0x2a14	mov    	eax, 1
  0x2a19	ret    	
  0x2a1a	xor    	eax, eax
  0x2a1c	ret    	
  0x2a1d	int3   	
  === BLOCK LINK ===
    0x2a1e
=== CODE BLOCK END ===

=== CODE BLOCK ADDRESS 0x2a1e ===
  0x2a1e	int3   	
  0x2a1f	int3   	
  0x2a20	int3   	
  0x2a21	int3   	
  0x2a22	int3   	
  === BLOCK LINK ===
    0x2a23
=== CODE BLOCK END ===

=== CODE BLOCK ADDRESS 0x2a23 ===
  0x2a23	int3   	
  0x2a24	dec    	eax
  0x2a25	mov    	dword ptr [esp + 0x20], ebx
  0x2a29	push   	ebp
  0x2a2a	dec    	eax
  === BLOCK LINK ===
    0x2a2b
=== CODE BLOCK END ===

=== CODE BLOCK ADDRESS 0x2a2b ===
  0x2a2b	mov    	ebp, esp
  0x2a2d	dec    	eax
  0x2a2e	sub    	esp, 0x20
  0x2a31	dec    	eax
  0x2a32	and    	dword ptr [ebp + 0x18], 0
  === BLOCK LINK ===
    0x2a36
=== CODE BLOCK END ===

=== CODE BLOCK ADDRESS 0x2a36 ===
  0x2a36	dec    	eax
  0x2a37	mov    	ebx, 0x2ddfa232
  0x2a3c	cdq    	
  0x2a3d	sub    	eax, dword ptr [eax]
  0x2a3f	add    	byte ptr [eax - 0x75], cl
  === BLOCK LINK ===
    0x2a42
=== CODE BLOCK END ===

=== CODE BLOCK ADDRESS 0x2a42 ===
  0x2a42	add    	eax, 0x25c1
  0x2a47	dec    	eax
  0x2a48	cmp    	eax, ebx
  0x2a4a	jne    	0x2ae3
  === BLOCK LINK ===
    0x2a50
=== CODE BLOCK END ===

=== CODE BLOCK ADDRESS 0x2a50 ===
  0x2a50	dec    	eax
  0x2a51	lea    	ecx, [ebp + 0x18]
  0x2a54	call   	dword ptr [0x74e]
  === BLOCK LINK ===
    0x2a5a
=== CODE BLOCK END ===

=== CODE BLOCK ADDRESS 0x2a5a ===
  0x2a5a	dec    	eax
  0x2a5b	mov    	eax, dword ptr [ebp + 0x18]
  0x2a5e	dec    	eax
  0x2a5f	mov    	dword ptr [ebp + 0x10], eax
  0x2a62	call   	dword ptr [0x730]
  === BLOCK LINK ===
    0x2a68
=== CODE BLOCK END ===

=== CODE BLOCK ADDRESS 0x2a68 ===
  0x2a68	mov    	eax, eax
  0x2a6a	dec    	eax
  0x2a6b	xor    	dword ptr [ebp + 0x10], eax
  0x2a6e	call   	dword ptr [0x72c]
  === BLOCK LINK ===
    0x2a74
=== CODE BLOCK END ===

=== CODE BLOCK ADDRESS 0x2a74 ===
  0x2a74	mov    	eax, eax
  0x2a76	dec    	eax
  0x2a77	xor    	dword ptr [ebp + 0x10], eax
  0x2a7a	call   	dword ptr [0x730]
  === BLOCK LINK ===
    0x2a80
=== CODE BLOCK END ===

=== CODE BLOCK ADDRESS 0x2a80 ===
  0x2a80	mov    	eax, eax
  0x2a82	dec    	eax
  0x2a83	shl    	eax, 0x18
  0x2a86	dec    	eax
  0x2a87	xor    	dword ptr [ebp + 0x10], eax
  === BLOCK LINK ===
    0x2a8a
=== CODE BLOCK END ===

=== CODE BLOCK ADDRESS 0x2a8a ===
  0x2a8a	call   	dword ptr [0x720]
  === BLOCK LINK ===
    0x2a90
=== CODE BLOCK END ===

=== CODE BLOCK ADDRESS 0x2a90 ===
  0x2a90	mov    	eax, eax
  0x2a92	dec    	eax
  0x2a93	lea    	ecx, [ebp + 0x10]
  0x2a96	dec    	eax
  0x2a97	xor    	eax, dword ptr [ebp + 0x10]
  === BLOCK LINK ===
    0x2a9a
=== CODE BLOCK END ===

=== CODE BLOCK ADDRESS 0x2a9a ===
  0x2a9a	dec    	eax
  0x2a9b	xor    	eax, ecx
  0x2a9d	dec    	eax
  0x2a9e	lea    	ecx, [ebp + 0x20]
  0x2aa1	dec    	eax
  === BLOCK LINK ===
    0x2aa2
=== CODE BLOCK END ===

=== CODE BLOCK ADDRESS 0x2aa2 ===
  0x2aa2	mov    	dword ptr [ebp + 0x10], eax
  0x2aa5	call   	dword ptr [0x6e5]
  === BLOCK LINK ===
    0x2aab
=== CODE BLOCK END ===

=== CODE BLOCK ADDRESS 0x2aab ===
  0x2aab	mov    	eax, dword ptr [ebp + 0x20]
  0x2aae	dec    	eax
  0x2aaf	mov    	ecx, 0xffffffff
  0x2ab4	.byte  	0xff
  0x2ab5	inc    	dword ptr [eax]
  === BLOCK LINK ===
    0x2ab7
=== CODE BLOCK END ===

=== CODE BLOCK ADDRESS 0x2ab7 ===
  0x2ab7	add    	byte ptr [eax - 0x3f], cl
  0x2aba	loopne  	0x2adc
  === BLOCK LINK ===
    0x2abc
=== CODE BLOCK END ===

=== CODE BLOCK ADDRESS 0x2abc ===
  0x2abc	dec    	eax
  0x2abd	xor    	eax, dword ptr [ebp + 0x20]
  0x2ac0	dec    	eax
  0x2ac1	xor    	eax, dword ptr [ebp + 0x10]
  0x2ac4	dec    	eax
  === BLOCK LINK ===
    0x2ac5
=== CODE BLOCK END ===

=== CODE BLOCK ADDRESS 0x2ac5 ===
  0x2ac5	and    	eax, ecx
  0x2ac7	dec    	eax
  0x2ac8	mov    	ecx, eax
  0x2aca	dec    	eax
  0x2acb	cmp    	eax, ebx
  === BLOCK LINK ===
    0x2acd
=== CODE BLOCK END ===

=== CODE BLOCK ADDRESS 0x2acd ===
  0x2acd	jne    	0x2adc
  === BLOCK LINK ===
    0x2acf
=== CODE BLOCK END ===

=== CODE BLOCK ADDRESS 0x2acf ===
  0x2acf	dec    	eax
  0x2ad0	mov    	eax, 0x2ddfa233
  0x2ad5	cdq    	
  0x2ad6	sub    	eax, dword ptr [eax]
  0x2ad8	add    	byte ptr [eax - 0x75], cl
  === BLOCK LINK ===
    0x2adb
=== CODE BLOCK END ===

=== CODE BLOCK ADDRESS 0x2adb ===
  0x2adb	enter  	-0x76b8, 0xd
  0x2adf	and    	eax, 0x48000025
  0x2ae4	mov    	ebx, dword ptr [esp + 0x48]
  0x2ae8	dec    	eax
  0x2ae9	not    	eax
  === BLOCK LINK ===
    0x2aeb
=== CODE BLOCK END ===

=== CODE BLOCK ADDRESS 0x2aeb ===
  0x2aeb	dec    	eax
  0x2aec	mov    	dword ptr [0x251e], eax
  0x2af2	dec    	eax
  0x2af3	add    	esp, 0x20
  0x2af6	pop    	ebp
  === BLOCK LINK ===
    0x2af7
=== CODE BLOCK END ===

=== CODE BLOCK ADDRESS 0x2af7 ===
  0x2af7	ret    	
  0x2af8	int3   	
  0x2af9	int3   	
  0x2afa	int3   	
  0x2afb	int3   	
  === BLOCK LINK ===
    0x2afc
=== CODE BLOCK END ===

=== CODE BLOCK ADDRESS 0x2afc ===
  0x2afc	int3   	
  0x2afd	int3   	
  0x2afe	jmp    	dword ptr [0x75c]
  === BLOCK LINK ===
    0x2b04
=== CODE BLOCK END ===

=== CODE BLOCK ADDRESS 0x2b04 ===
  0x2b04	int3   	
  0x2b05	int3   	
  0x2b06	int3   	
  0x2b07	int3   	
  0x2b08	int3   	
  === BLOCK LINK ===
    0x2b09
=== CODE BLOCK END ===

=== CODE BLOCK ADDRESS 0x2b09 ===
  0x2b09	int3   	
  0x2b0a	jmp    	dword ptr [0x748]
  === BLOCK LINK ===
    0x2b10
=== CODE BLOCK END ===

=== CODE BLOCK ADDRESS 0x2b10 ===
  0x2b10	int3   	
  0x2b11	int3   	
  0x2b12	int3   	
  0x2b13	int3   	
  0x2b14	int3   	
  === BLOCK LINK ===
    0x2b15
=== CODE BLOCK END ===

=== CODE BLOCK ADDRESS 0x2b15 ===
  0x2b15	int3   	
  0x2b16	int3   	
  0x2b17	int3   	
  0x2b18	int3   	
  0x2b19	int3   	
  === BLOCK LINK ===
    0x2b1a
=== CODE BLOCK END ===

=== CODE BLOCK ADDRESS 0x2b1a ===
  0x2b1a	int3   	
  0x2b1b	int3   	
  0x2b1c	int3   	
  0x2b1d	int3   	
  0x2b1e	int3   	
  === BLOCK LINK ===
    0x2b1f
=== CODE BLOCK END ===

=== CODE BLOCK ADDRESS 0x2b1f ===
  0x2b1f	int3   	
  0x2b20	ret    	0
  0x2b23	int3   	
  0x2b24	int3   	
  0x2b25	int3   	
  === BLOCK LINK ===
    0x2b26
=== CODE BLOCK END ===

=== CODE BLOCK ADDRESS 0x2b26 ===
  0x2b26	int3   	
  0x2b27	int3   	
  0x2b28	int3   	
  0x2b29	int3   	
  0x2b2a	int3   	
  === BLOCK LINK ===
    0x2b2b
=== CODE BLOCK END ===

=== CODE BLOCK ADDRESS 0x2b2b ===
  0x2b2b	int3   	
  0x2b2c	inc    	eax
  0x2b2d	push   	ebx
  0x2b2e	dec    	eax
  0x2b2f	sub    	esp, 0x20
  === BLOCK LINK ===
    0x2b32
=== CODE BLOCK END ===

=== CODE BLOCK ADDRESS 0x2b32 ===
  0x2b32	dec    	eax
  0x2b33	mov    	ebx, ecx
  0x2b35	xor    	ecx, ecx
  0x2b37	call   	dword ptr [0x643]
  === BLOCK LINK ===
    0x2b3d
=== CODE BLOCK END ===

=== CODE BLOCK ADDRESS 0x2b3d ===
  0x2b3d	dec    	eax
  0x2b3e	mov    	ecx, ebx
  0x2b40	call   	dword ptr [0x672]
  === BLOCK LINK ===
    0x2b46
=== CODE BLOCK END ===

=== CODE BLOCK ADDRESS 0x2b46 ===
  0x2b46	call   	dword ptr [0x674]
  === BLOCK LINK ===
    0x2b4c
=== CODE BLOCK END ===

=== CODE BLOCK ADDRESS 0x2b4c ===
  0x2b4c	dec    	eax
  0x2b4d	mov    	ecx, eax
  0x2b4f	mov    	edx, 0xc0000409
  0x2b54	dec    	eax
  0x2b55	add    	esp, 0x20
  === BLOCK LINK ===
    0x2b58
=== CODE BLOCK END ===

=== CODE BLOCK ADDRESS 0x2b58 ===
  0x2b58	pop    	ebx
  0x2b59	dec    	eax
  0x2b5a	jmp    	dword ptr [0x668]
  === BLOCK LINK ===
    0x2b60
=== CODE BLOCK END ===

=== CODE BLOCK ADDRESS 0x2b60 ===
  0x2b60	int3   	
  0x2b61	int3   	
  0x2b62	int3   	
  0x2b63	int3   	
  0x2b64	int3   	
  === BLOCK LINK ===
    0x2b65
=== CODE BLOCK END ===

=== CODE BLOCK ADDRESS 0x2b65 ===
  0x2b65	int3   	
  0x2b66	int3   	
  0x2b67	int3   	
  0x2b68	int3   	
  0x2b69	int3   	
  === BLOCK LINK ===
    0x2b6a
=== CODE BLOCK END ===

=== CODE BLOCK ADDRESS 0x2b6a ===
  0x2b6a	int3   	
  0x2b6b	int3   	
  0x2b6c	int3   	
  0x2b6d	int3   	
  0x2b6e	int3   	
  === BLOCK LINK ===
    0x2b6f
=== CODE BLOCK END ===

=== CODE BLOCK ADDRESS 0x2b6f ===
  0x2b6f	int3   	
  0x2b70	dec    	eax
  0x2b71	mov    	dword ptr [esp + 8], ecx
  0x2b75	dec    	eax
  0x2b76	sub    	esp, 0x88
  === BLOCK LINK ===
    0x2b7c
=== CODE BLOCK END ===

=== CODE BLOCK ADDRESS 0x2b7c ===
  0x2b7c	dec    	eax
  0x2b7d	lea    	ecx, [0x258d]
  0x2b83	call   	dword ptr [0x73f]
  === BLOCK LINK ===
    0x2b89
=== CODE BLOCK END ===

=== CODE BLOCK ADDRESS 0x2b89 ===
  0x2b89	dec    	eax
  0x2b8a	mov    	eax, dword ptr [0x2678]
  0x2b90	dec    	eax
  0x2b91	mov    	dword ptr [esp + 0x48], eax
  0x2b95	inc    	ebp
  === BLOCK LINK ===
    0x2b96
=== CODE BLOCK END ===

=== CODE BLOCK ADDRESS 0x2b96 ===
  0x2b96	xor    	eax, eax
  0x2b98	dec    	eax
  0x2b99	lea    	edx, [esp + 0x50]
  0x2b9d	dec    	eax
  0x2b9e	mov    	ecx, dword ptr [esp + 0x48]
  === BLOCK LINK ===
    0x2ba2
=== CODE BLOCK END ===

=== CODE BLOCK ADDRESS 0x2ba2 ===
  0x2ba2	call   	dword ptr [0x728]
  === BLOCK LINK ===
    0x2ba8
=== CODE BLOCK END ===

=== CODE BLOCK ADDRESS 0x2ba8 ===
  0x2ba8	dec    	eax
  0x2ba9	mov    	dword ptr [esp + 0x40], eax
  0x2bad	dec    	eax
  0x2bae	cmp    	dword ptr [esp + 0x40], 0
  0x2bb3	je     	0x2bf7
  === BLOCK LINK ===
    0x2bb5
=== CODE BLOCK END ===

=== CODE BLOCK ADDRESS 0x2bb5 ===
  0x2bb5	dec    	eax
  0x2bb6	mov    	dword ptr [esp + 0x38], 0
  0x2bbe	dec    	eax
  0x2bbf	lea    	eax, [esp + 0x58]
  0x2bc3	dec    	eax
  === BLOCK LINK ===
    0x2bc4
=== CODE BLOCK END ===

=== CODE BLOCK ADDRESS 0x2bc4 ===
  0x2bc4	mov    	dword ptr [esp + 0x30], eax
  0x2bc8	dec    	eax
  0x2bc9	lea    	eax, [esp + 0x60]
  0x2bcd	dec    	eax
  0x2bce	mov    	dword ptr [esp + 0x28], eax
  === BLOCK LINK ===
    0x2bd2
=== CODE BLOCK END ===

=== CODE BLOCK ADDRESS 0x2bd2 ===
  0x2bd2	dec    	eax
  0x2bd3	lea    	eax, [0x2537]
  0x2bd9	dec    	eax
  0x2bda	mov    	dword ptr [esp + 0x20], eax
  0x2bde	dec    	esp
  === BLOCK LINK ===
    0x2bdf
=== CODE BLOCK END ===

=== CODE BLOCK ADDRESS 0x2bdf ===
  0x2bdf	mov    	ecx, dword ptr [esp + 0x40]
  0x2be3	dec    	esp
  0x2be4	mov    	eax, dword ptr [esp + 0x48]
  0x2be8	dec    	eax
  0x2be9	mov    	edx, dword ptr [esp + 0x50]
  === BLOCK LINK ===
    0x2bed
=== CODE BLOCK END ===

=== CODE BLOCK ADDRESS 0x2bed ===
  0x2bed	xor    	ecx, ecx
  0x2bef	call   	dword ptr [0x6e3]
  === BLOCK LINK ===
    0x2bf5
=== CODE BLOCK END ===

=== CODE BLOCK ADDRESS 0x2bf5 ===
  0x2bf5	jmp    	0x2c1a
  === BLOCK LINK ===
    0x2bf7
=== CODE BLOCK END ===

=== CODE BLOCK ADDRESS 0x2bf7 ===
  0x2bf7	dec    	eax
  0x2bf8	mov    	eax, dword ptr [0x25aa]
  0x2bfe	dec    	eax
  0x2bff	mov    	eax, dword ptr [eax]
  0x2c01	dec    	eax
  === BLOCK LINK ===
    0x2c02
=== CODE BLOCK END ===

=== CODE BLOCK ADDRESS 0x2c02 ===
  0x2c02	mov    	dword ptr [0x2600], eax
  0x2c08	dec    	eax
  0x2c09	mov    	eax, dword ptr [0x2599]
  0x2c0f	dec    	eax
  0x2c10	add    	eax, 8
  === BLOCK LINK ===
    0x2c13
=== CODE BLOCK END ===

=== CODE BLOCK ADDRESS 0x2c13 ===
  0x2c13	dec    	eax
  0x2c14	mov    	dword ptr [0x258e], eax
  0x2c1a	dec    	eax
  0x2c1b	mov    	eax, dword ptr [0x25e7]
  0x2c21	dec    	eax
  === BLOCK LINK ===
    0x2c22
=== CODE BLOCK END ===

=== CODE BLOCK ADDRESS 0x2c22 ===
  0x2c22	mov    	dword ptr [0x2458], eax
  0x2c28	dec    	eax
  0x2c29	mov    	eax, dword ptr [esp + 0x90]
  0x2c30	dec    	eax
  0x2c31	mov    	dword ptr [0x2559], eax
  === BLOCK LINK ===
    0x2c37
=== CODE BLOCK END ===

=== CODE BLOCK ADDRESS 0x2c37 ===
  0x2c37	mov    	dword ptr [0x242f], 0xc0000409
  0x2c41	mov    	dword ptr [0x2429], 1
  0x2c4b	mov    	dword ptr [0x2433], 3
  0x2c55	mov    	eax, 8
  0x2c5a	dec    	eax
  === BLOCK LINK ===
    0x2c5b
=== CODE BLOCK END ===

=== CODE BLOCK ADDRESS 0x2c5b ===
  0x2c5b	imul   	eax, eax, 0
  0x2c5e	dec    	eax
  0x2c5f	lea    	ecx, [0x242b]
  0x2c65	dec    	eax
  0x2c66	mov    	dword ptr [ecx + eax], 2
  === BLOCK LINK ===
    0x2c6d
=== CODE BLOCK END ===

=== CODE BLOCK ADDRESS 0x2c6d ===
  0x2c6d	mov    	eax, 8
  0x2c72	dec    	eax
  0x2c73	imul   	eax, eax, 1
  0x2c76	dec    	eax
  0x2c77	lea    	ecx, [0x2413]
  === BLOCK LINK ===
    0x2c7d
=== CODE BLOCK END ===

=== CODE BLOCK ADDRESS 0x2c7d ===
  0x2c7d	dec    	eax
  0x2c7e	mov    	edx, dword ptr [0x2384]
  0x2c84	dec    	eax
  0x2c85	mov    	dword ptr [ecx + eax], edx
  0x2c88	mov    	eax, 8
  === BLOCK LINK ===
    0x2c8d
=== CODE BLOCK END ===

=== CODE BLOCK ADDRESS 0x2c8d ===
  0x2c8d	dec    	eax
  0x2c8e	imul   	eax, eax, 2
  0x2c91	dec    	eax
  0x2c92	lea    	ecx, [0x23f8]
  0x2c98	dec    	eax
  === BLOCK LINK ===
    0x2c99
=== CODE BLOCK END ===

=== CODE BLOCK ADDRESS 0x2c99 ===
  0x2c99	mov    	edx, dword ptr [0x2371]
  0x2c9f	dec    	eax
  0x2ca0	mov    	dword ptr [ecx + eax], edx
  0x2ca3	mov    	eax, 8
  0x2ca8	dec    	eax
  === BLOCK LINK ===
    0x2ca9
=== CODE BLOCK END ===

=== CODE BLOCK ADDRESS 0x2ca9 ===
  0x2ca9	imul   	eax, eax, 0
  0x2cac	dec    	eax
  0x2cad	mov    	ecx, dword ptr [0x2355]
  0x2cb3	dec    	eax
  0x2cb4	mov    	dword ptr [esp + eax + 0x68], ecx
  === BLOCK LINK ===
    0x2cb8
=== CODE BLOCK END ===

=== CODE BLOCK ADDRESS 0x2cb8 ===
  0x2cb8	mov    	eax, 8
  0x2cbd	dec    	eax
  0x2cbe	imul   	eax, eax, 1
  0x2cc1	dec    	eax
  0x2cc2	mov    	ecx, dword ptr [0x2348]
  === BLOCK LINK ===
    0x2cc8
=== CODE BLOCK END ===

=== CODE BLOCK ADDRESS 0x2cc8 ===
  0x2cc8	dec    	eax
  0x2cc9	mov    	dword ptr [esp + eax + 0x68], ecx
  0x2ccd	dec    	eax
  0x2cce	lea    	ecx, [0x32c]
  0x2cd4	call   	0x2b2c
  === BLOCK LINK ===
    0x2cd9
=== CODE BLOCK END ===

=== CODE BLOCK ADDRESS 0x2cd9 ===
  0x2cd9	dec    	eax
  0x2cda	add    	esp, 0x88
  0x2ce0	ret    	
  0x2ce1	int3   	
  0x2ce2	int3   	
  === BLOCK LINK ===
    0x2ce3
=== CODE BLOCK END ===

=== CODE BLOCK ADDRESS 0x2ce3 ===
  0x2ce3	int3   	
  0x2ce4	int3   	
  0x2ce5	int3   	
  0x2ce6	int3   	
  0x2ce7	int3   	
  === BLOCK LINK ===
    0x2ce8
=== CODE BLOCK END ===

=== CODE BLOCK ADDRESS 0x2ce8 ===
  0x2ce8	dec    	eax
  0x2ce9	sub    	esp, 0x78
  0x2cec	dec    	eax
  0x2ced	lea    	ecx, [0x241d]
  0x2cf3	call   	dword ptr [0x5cf]
  === BLOCK LINK ===
    0x2cf9
=== CODE BLOCK END ===

=== CODE BLOCK ADDRESS 0x2cf9 ===
  0x2cf9	dec    	eax
  0x2cfa	mov    	eax, dword ptr [0x2508]
  0x2d00	dec    	eax
  0x2d01	mov    	dword ptr [esp + 0x48], eax
  0x2d05	inc    	ebp
  === BLOCK LINK ===
    0x2d06
=== CODE BLOCK END ===

=== CODE BLOCK ADDRESS 0x2d06 ===
  0x2d06	xor    	eax, eax
  0x2d08	dec    	eax
  0x2d09	lea    	edx, [esp + 0x50]
  0x2d0d	dec    	eax
  0x2d0e	mov    	ecx, dword ptr [esp + 0x48]
  === BLOCK LINK ===
    0x2d12
=== CODE BLOCK END ===

=== CODE BLOCK ADDRESS 0x2d12 ===
  0x2d12	call   	dword ptr [0x5b8]
  === BLOCK LINK ===
    0x2d18
=== CODE BLOCK END ===

=== CODE BLOCK ADDRESS 0x2d18 ===
  0x2d18	dec    	eax
  0x2d19	mov    	dword ptr [esp + 0x40], eax
  0x2d1d	dec    	eax
  0x2d1e	cmp    	dword ptr [esp + 0x40], 0
  0x2d23	je     	0x2d67
  === BLOCK LINK ===
    0x2d25
=== CODE BLOCK END ===

=== CODE BLOCK ADDRESS 0x2d25 ===
  0x2d25	dec    	eax
  0x2d26	mov    	dword ptr [esp + 0x38], 0
  0x2d2e	dec    	eax
  0x2d2f	lea    	eax, [esp + 0x58]
  0x2d33	dec    	eax
  === BLOCK LINK ===
    0x2d34
=== CODE BLOCK END ===

=== CODE BLOCK ADDRESS 0x2d34 ===
  0x2d34	mov    	dword ptr [esp + 0x30], eax
  0x2d38	dec    	eax
  0x2d39	lea    	eax, [esp + 0x60]
  0x2d3d	dec    	eax
  0x2d3e	mov    	dword ptr [esp + 0x28], eax
  === BLOCK LINK ===
    0x2d42
=== CODE BLOCK END ===

=== CODE BLOCK ADDRESS 0x2d42 ===
  0x2d42	dec    	eax
  0x2d43	lea    	eax, [0x23c7]
  0x2d49	dec    	eax
  0x2d4a	mov    	dword ptr [esp + 0x20], eax
  0x2d4e	dec    	esp
  === BLOCK LINK ===
    0x2d4f
=== CODE BLOCK END ===

=== CODE BLOCK ADDRESS 0x2d4f ===
  0x2d4f	mov    	ecx, dword ptr [esp + 0x40]
  0x2d53	dec    	esp
  0x2d54	mov    	eax, dword ptr [esp + 0x48]
  0x2d58	dec    	eax
  0x2d59	mov    	edx, dword ptr [esp + 0x50]
  === BLOCK LINK ===
    0x2d5d
=== CODE BLOCK END ===

=== CODE BLOCK ADDRESS 0x2d5d ===
  0x2d5d	xor    	ecx, ecx
  0x2d5f	call   	dword ptr [0x573]
  === BLOCK LINK ===
    0x2d65
=== CODE BLOCK END ===

=== CODE BLOCK ADDRESS 0x2d65 ===
  0x2d65	jmp    	0x2d8a
  === BLOCK LINK ===
    0x2d67
=== CODE BLOCK END ===

=== CODE BLOCK ADDRESS 0x2d67 ===
  0x2d67	dec    	eax
  0x2d68	mov    	eax, dword ptr [0x243a]
  0x2d6e	dec    	eax
  0x2d6f	mov    	eax, dword ptr [eax]
  0x2d71	dec    	eax
  === BLOCK LINK ===
    0x2d72
=== CODE BLOCK END ===

=== CODE BLOCK ADDRESS 0x2d72 ===
  0x2d72	mov    	dword ptr [0x2490], eax
  0x2d78	dec    	eax
  0x2d79	mov    	eax, dword ptr [0x2429]
  0x2d7f	dec    	eax
  0x2d80	add    	eax, 8
  === BLOCK LINK ===
    0x2d83
=== CODE BLOCK END ===

=== CODE BLOCK ADDRESS 0x2d83 ===
  0x2d83	dec    	eax
  0x2d84	mov    	dword ptr [0x241e], eax
  0x2d8a	dec    	eax
  0x2d8b	mov    	eax, dword ptr [0x2477]
  0x2d91	dec    	eax
  === BLOCK LINK ===
    0x2d92
=== CODE BLOCK END ===

=== CODE BLOCK ADDRESS 0x2d92 ===
  0x2d92	mov    	dword ptr [0x22e8], eax
  0x2d98	mov    	dword ptr [0x22ce], 0xc0000409
  0x2da2	mov    	dword ptr [0x22c8], 1
  0x2dac	mov    	dword ptr [0x22d2], 1
  0x2db6	mov    	eax, 8
  === BLOCK LINK ===
    0x2dbb
=== CODE BLOCK END ===

=== CODE BLOCK ADDRESS 0x2dbb ===
  0x2dbb	dec    	eax
  0x2dbc	imul   	eax, eax, 0
  0x2dbf	dec    	eax
  0x2dc0	lea    	ecx, [0x22ca]
  0x2dc6	dec    	eax
  === BLOCK LINK ===
    0x2dc7
=== CODE BLOCK END ===

=== CODE BLOCK ADDRESS 0x2dc7 ===
  0x2dc7	mov    	dword ptr [ecx + eax], 8
  0x2dce	dec    	eax
  0x2dcf	lea    	ecx, [0x22b]
  0x2dd5	call   	0x2b2c
  === BLOCK LINK ===
    0x2dda
=== CODE BLOCK END ===

=== CODE BLOCK ADDRESS 0x2dda ===
  0x2dda	dec    	eax
  0x2ddb	add    	esp, 0x78
  0x2dde	ret    	
  0x2ddf	int3   	
  0x2de0	int3   	
  === BLOCK LINK ===
    0x2de1
=== CODE BLOCK END ===

=== CODE BLOCK ADDRESS 0x2de1 ===
  0x2de1	int3   	
  0x2de2	int3   	
  0x2de3	int3   	
  0x2de4	int3   	
  0x2de5	int3   	
  === BLOCK LINK ===
    0x2de6
=== CODE BLOCK END ===

=== CODE BLOCK ADDRESS 0x2de6 ===
  0x2de6	int3   	
  0x2de7	int3   	
  0x2de8	dec    	eax
  0x2de9	sub    	esp, 0x28
  0x2dec	dec    	ebp
  === BLOCK LINK ===
    0x2ded
=== CODE BLOCK END ===

=== CODE BLOCK ADDRESS 0x2ded ===
  0x2ded	mov    	eax, dword ptr [ecx + 0x38]
  0x2df0	dec    	eax
  0x2df1	mov    	ecx, edx
  0x2df3	dec    	ecx
  0x2df4	mov    	edx, ecx
  === BLOCK LINK ===
    0x2df6
=== CODE BLOCK END ===

=== CODE BLOCK ADDRESS 0x2df6 ===
  0x2df6	call   	0x2e0c
  === BLOCK LINK ===
    0x2dfb
=== CODE BLOCK END ===

=== CODE BLOCK ADDRESS 0x2dfb ===
  0x2dfb	mov    	eax, 1
  0x2e00	dec    	eax
  0x2e01	add    	esp, 0x28
  0x2e04	ret    	
  0x2e05	int3   	
  === BLOCK LINK ===
    0x2e06
=== CODE BLOCK END ===

=== CODE BLOCK ADDRESS 0x2e06 ===
  0x2e06	int3   	
  0x2e07	int3   	
  0x2e08	int3   	
  0x2e09	int3   	
  0x2e0a	int3   	
  === BLOCK LINK ===
    0x2e0b
=== CODE BLOCK END ===

=== CODE BLOCK ADDRESS 0x2e0b ===
  0x2e0b	int3   	
  0x2e0c	inc    	eax
  0x2e0d	push   	ebx
  0x2e0e	inc    	ebp
  0x2e0f	mov    	ebx, dword ptr [eax]
  === BLOCK LINK ===
    0x2e11
=== CODE BLOCK END ===

=== CODE BLOCK ADDRESS 0x2e11 ===
  0x2e11	dec    	eax
  0x2e12	mov    	ebx, edx
  0x2e14	inc    	ecx
  0x2e15	and    	ebx, 0xfffffff8
  0x2e18	dec    	esp
  === BLOCK LINK ===
    0x2e19
=== CODE BLOCK END ===

=== CODE BLOCK ADDRESS 0x2e19 ===
  0x2e19	mov    	ecx, ecx
  0x2e1b	inc    	ecx
  0x2e1c	test   	byte ptr [eax], 4
  0x2e1f	dec    	esp
  0x2e20	mov    	edx, ecx
  === BLOCK LINK ===
    0x2e22
=== CODE BLOCK END ===

=== CODE BLOCK ADDRESS 0x2e22 ===
  0x2e22	je     	0x2e37
  === BLOCK LINK ===
    0x2e24
=== CODE BLOCK END ===

=== CODE BLOCK ADDRESS 0x2e24 ===
  0x2e24	inc    	ecx
  0x2e25	mov    	eax, dword ptr [eax + 8]
  0x2e28	dec    	ebp
  0x2e29	arpl   	word ptr [eax + 4], dx
  0x2e2c	neg    	eax
  === BLOCK LINK ===
    0x2e2e
=== CODE BLOCK END ===

=== CODE BLOCK ADDRESS 0x2e2e ===
  0x2e2e	dec    	esp
  0x2e2f	add    	edx, ecx
  0x2e31	dec    	eax
  0x2e32	arpl   	ax, cx
  0x2e34	dec    	esp
  === BLOCK LINK ===
    0x2e35
=== CODE BLOCK END ===

=== CODE BLOCK ADDRESS 0x2e35 ===
  0x2e35	and    	edx, ecx
  0x2e37	dec    	ecx
  0x2e38	arpl   	bx, ax
  0x2e3a	dec    	edx
  0x2e3b	mov    	edx, dword ptr [eax + edx]
  === BLOCK LINK ===
    0x2e3e
=== CODE BLOCK END ===

=== CODE BLOCK ADDRESS 0x2e3e ===
  0x2e3e	dec    	eax
  0x2e3f	mov    	eax, dword ptr [ebx + 0x10]
  0x2e42	mov    	ecx, dword ptr [eax + 8]
  0x2e45	dec    	eax
  0x2e46	mov    	eax, dword ptr [ebx + 8]
  === BLOCK LINK ===
    0x2e49
=== CODE BLOCK END ===

=== CODE BLOCK ADDRESS 0x2e49 ===
  0x2e49	test   	byte ptr [ecx + eax + 3], 0xf
  0x2e4e	je     	0x2e5b
  === BLOCK LINK ===
    0x2e50
=== CODE BLOCK END ===

=== CODE BLOCK ADDRESS 0x2e50 ===
  0x2e50	movzx  	eax, byte ptr [ecx + eax + 3]
  0x2e55	and    	eax, 0xfffffff0
  0x2e58	dec    	esp
  0x2e59	add    	ecx, eax
  0x2e5b	dec    	esp
  === BLOCK LINK ===
    0x2e5c
=== CODE BLOCK END ===

=== CODE BLOCK ADDRESS 0x2e5c ===
  0x2e5c	xor    	ecx, edx
  0x2e5e	dec    	ecx
  0x2e5f	mov    	ecx, ecx
  0x2e61	pop    	ebx
  0x2e62	jmp    	0x27e0
  === BLOCK LINK ===
    0x2e67
=== CODE BLOCK END ===

=== CODE BLOCK ADDRESS 0x2e67 ===
  0x2e67	int3   	
  0x2e68	int3   	
  0x2e69	int3   	
  0x2e6a	int3   	
  0x2e6b	int3   	
  === BLOCK LINK ===
    0x2e6c
=== CODE BLOCK END ===

=== CODE BLOCK ADDRESS 0x2e6c ===
  0x2e6c	int3   	
  0x2e6d	jmp    	dword ptr [0x3b5]
  === BLOCK LINK ===
    0x2e73
=== CODE BLOCK END ===

=== CODE BLOCK ADDRESS 0x2e73 ===
  0x2e73	int3   	
  0x2e74	int3   	
  0x2e75	int3   	
  0x2e76	int3   	
  0x2e77	int3   	
  === BLOCK LINK ===
    0x2e78
=== CODE BLOCK END ===

=== CODE BLOCK ADDRESS 0x2e78 ===
  0x2e78	int3   	
  0x2e79	int3   	
  0x2e7a	int3   	
  0x2e7b	int3   	
  0x2e7c	int3   	
  === BLOCK LINK ===
    0x2e7d
=== CODE BLOCK END ===

=== CODE BLOCK ADDRESS 0x2e7d ===
  0x2e7d	int3   	
  0x2e7e	int3   	
  0x2e7f	int3   	
  0x2e80	int3   	
  0x2e81	int3   	
  === BLOCK LINK ===
    0x2e82
=== CODE BLOCK END ===

=== CODE BLOCK ADDRESS 0x2e82 ===
  0x2e82	int3   	
  0x2e83	int3   	
  0x2e84	int3   	
  0x2e85	int3   	
  0x2e86	nop    	word ptr [eax + eax]
  === BLOCK LINK ===
    0x2e90
=== CODE BLOCK END ===

=== CODE BLOCK ADDRESS 0x2e90 ===
  0x2e90	jmp    	eax
  === BLOCK LINK ===
    0x2e92
=== CODE BLOCK END ===

=== CODE BLOCK ADDRESS 0x2e92 ===
  0x2e92	int3   	
  0x2e93	int3   	
  0x2e94	int3   	
  0x2e95	int3   	
  0x2e96	int3   	
  === BLOCK LINK ===
    0x2e97
=== CODE BLOCK END ===

=== CODE BLOCK ADDRESS 0x2e97 ===
  0x2e97	int3   	
  0x2e98	int3   	
  0x2e99	int3   	
  0x2e9a	int3   	
  0x2e9b	int3   	
  === BLOCK LINK ===
    0x2e9c
=== CODE BLOCK END ===

=== CODE BLOCK ADDRESS 0x2e9c ===
  0x2e9c	int3   	
  0x2e9d	int3   	
  0x2e9e	int3   	
  0x2e9f	int3   	
  0x2ea0	inc    	eax
  === BLOCK LINK ===
    0x2ea1
=== CODE BLOCK END ===

=== CODE BLOCK ADDRESS 0x2ea1 ===
  0x2ea1	push   	ebp
  0x2ea2	dec    	eax
  0x2ea3	sub    	esp, 0x20
  0x2ea6	dec    	eax
  0x2ea7	mov    	ebp, edx
  === BLOCK LINK ===
    0x2ea9
=== CODE BLOCK END ===

=== CODE BLOCK ADDRESS 0x2ea9 ===
  0x2ea9	dec    	eax
  0x2eaa	mov    	dword ptr [ebp + 0x38], ecx
  0x2ead	dec    	eax
  0x2eae	mov    	eax, dword ptr [ecx]
  0x2eb0	mov    	ecx, dword ptr [eax]
  === BLOCK LINK ===
    0x2eb2
=== CODE BLOCK END ===

=== CODE BLOCK ADDRESS 0x2eb2 ===
  0x2eb2	mov    	dword ptr [ebp + 0x30], ecx
  0x2eb5	mov    	dword ptr [ebp + 0x20], ecx
  0x2eb8	mov    	eax, dword ptr [ebp + 0x20]
  0x2ebb	cmp    	eax, 0xe0000300
  0x2ec0	je     	0x2ed5
  === BLOCK LINK ===
    0x2ec2
=== CODE BLOCK END ===

=== CODE BLOCK ADDRESS 0x2ec2 ===
  0x2ec2	mov    	eax, dword ptr [ebp + 0x20]
  0x2ec5	cmp    	eax, 0xc0000194
  0x2eca	je     	0x2ed5
  === BLOCK LINK ===
    0x2ecc
=== CODE BLOCK END ===

=== CODE BLOCK ADDRESS 0x2ecc ===
  0x2ecc	mov    	dword ptr [ebp + 0x28], 1
  0x2ed3	jmp    	0x2edc
  === BLOCK LINK ===
    0x2ed5
=== CODE BLOCK END ===

=== CODE BLOCK ADDRESS 0x2ed5 ===
  0x2ed5	mov    	dword ptr [ebp + 0x28], 0
  0x2edc	mov    	eax, dword ptr [ebp + 0x28]
  0x2edf	dec    	eax
  0x2ee0	add    	esp, 0x20
  0x2ee3	pop    	ebp
  === BLOCK LINK ===
    0x2ee4
=== CODE BLOCK END ===

=== CODE BLOCK ADDRESS 0x2ee4 ===
  0x2ee4	ret    	
  0x2ee5	int3   	
  0x2ee6	int3   	
  0x2ee7	int3   	
  0x2ee8	int3   	
  === BLOCK LINK ===
    0x2ee9
=== CODE BLOCK END ===

=== CODE BLOCK ADDRESS 0x2ee9 ===
  0x2ee9	int3   	
  0x2eea	int3   	
  0x2eeb	int3   	
  0x2eec	inc    	eax
  0x2eed	push   	ebp
  === BLOCK LINK ===
    0x2eee
=== CODE BLOCK END ===

=== CODE BLOCK ADDRESS 0x2eee ===
  0x2eee	dec    	eax
  0x2eef	sub    	esp, 0x20
  0x2ef2	dec    	eax
  0x2ef3	mov    	ebp, edx
  0x2ef5	dec    	eax
  === BLOCK LINK ===
    0x2ef6
=== CODE BLOCK END ===

=== CODE BLOCK ADDRESS 0x2ef6 ===
  0x2ef6	mov    	eax, dword ptr [ecx]
  0x2ef8	dec    	eax
  0x2ef9	mov    	edx, ecx
  0x2efb	mov    	ecx, dword ptr [eax]
  0x2efd	call   	0x286e
  === BLOCK LINK ===
    0x2f02
=== CODE BLOCK END ===

=== CODE BLOCK ADDRESS 0x2f02 ===
  0x2f02	nop    	
  0x2f03	dec    	eax
  0x2f04	add    	esp, 0x20
  0x2f07	pop    	ebp
  0x2f08	ret    	
  === BLOCK LINK ===
    0x2f09
=== CODE BLOCK END ===

=== CODE BLOCK ADDRESS 0x13bd ===
  0x13bd	dec    	eax
  0x13be	mov    	ebp, dword ptr [esp + 0x50]
  === BLOCK LINK ===
    0x13c2
=== CODE BLOCK END ===

=== CODE BLOCK ADDRESS 0x2f09 ===
  0x2f09	int3   	
  0x2f0a	int3   	
  0x2f0b	int3   	
  0x2f0c	int3   	
  0x2f0d	int3   	
  === BLOCK LINK ===
    0x2f0e
=== CODE BLOCK END ===

=== CODE BLOCK ADDRESS 0x2f0e ===
  0x2f0e	int3   	
  0x2f0f	int3   	
  0x2f10	inc    	eax
  0x2f11	push   	ebp
  0x2f12	dec    	eax
  === BLOCK LINK ===
    0x2f13
=== CODE BLOCK END ===

=== CODE BLOCK ADDRESS 0x2f13 ===
  0x2f13	sub    	esp, 0x20
  0x2f16	dec    	eax
  0x2f17	mov    	ebp, edx
  0x2f19	dec    	eax
  0x2f1a	mov    	eax, dword ptr [ecx]
  === BLOCK LINK ===
    0x2f1c
=== CODE BLOCK END ===

=== CODE BLOCK ADDRESS 0x2f1c ===
  0x2f1c	xor    	ecx, ecx
  0x2f1e	cmp    	dword ptr [eax], 0xc0000005
  0x2f24	sete   	cl
  0x2f27	mov    	eax, ecx
  0x2f29	dec    	eax
  === BLOCK LINK ===
    0x2f2a
=== CODE BLOCK END ===

=== CODE BLOCK ADDRESS 0x2f2a ===
  0x2f2a	add    	esp, 0x20
  0x2f2d	pop    	ebp
  0x2f2e	ret    	
  0x2f2f	int3   	
  0x2f30	add    	byte ptr [eax], al
  === BLOCK LINK ===
    0x2f32
=== CODE BLOCK END ===

=== CODE BLOCK ADDRESS 0x2f32 ===
  0x2f32	add    	byte ptr [eax], al
  0x2f34	add    	byte ptr [eax], al
  0x2f36	add    	byte ptr [eax], al
  0x2f38	add    	byte ptr [eax], al
  0x2f3a	add    	byte ptr [eax], al
  === BLOCK LINK ===
    0x2f3c
=== CODE BLOCK END ===

=== CODE BLOCK ADDRESS 0x2f3c ===
  0x2f3c	add    	byte ptr [eax], al
  0x2f3e	add    	byte ptr [eax], al
  0x2f40	add    	byte ptr [eax], al
  0x2f42	add    	byte ptr [eax], al
  0x2f44	add    	byte ptr [eax], al
  === BLOCK LINK ===
    0x2f46
=== CODE BLOCK END ===

=== CODE BLOCK ADDRESS 0x2f46 ===
  0x2f46	add    	byte ptr [eax], al
  0x2f48	add    	byte ptr [eax], al
  0x2f4a	add    	byte ptr [eax], al
  0x2f4c	add    	byte ptr [eax], al
  0x2f4e	add    	byte ptr [eax], al
  === BLOCK LINK ===
    0x2f50
=== CODE BLOCK END ===

=== CODE BLOCK ADDRESS 0x2f50 ===
  0x2f50	add    	byte ptr [eax], al
  0x2f52	add    	byte ptr [eax], al
  0x2f54	add    	byte ptr [eax], al
  0x2f56	add    	byte ptr [eax], al
  0x2f58	add    	byte ptr [eax], al
  === BLOCK LINK ===
    0x2f5a
=== CODE BLOCK END ===

=== CODE BLOCK ADDRESS 0x2f5a ===
  0x2f5a	add    	byte ptr [eax], al
  0x2f5c	add    	byte ptr [eax], al
  0x2f5e	add    	byte ptr [eax], al
  0x2f60	add    	byte ptr [eax], al
  0x2f62	add    	byte ptr [eax], al
  === BLOCK LINK ===
    0x2f64
=== CODE BLOCK END ===

=== CODE BLOCK ADDRESS 0x2f64 ===
  0x2f64	add    	byte ptr [eax], al
  0x2f66	add    	byte ptr [eax], al
  0x2f68	add    	byte ptr [eax], al
  0x2f6a	add    	byte ptr [eax], al
  0x2f6c	add    	byte ptr [eax], al
  === BLOCK LINK ===
    0x2f6e
=== CODE BLOCK END ===

=== CODE BLOCK ADDRESS 0x2f6e ===
  0x2f6e	add    	byte ptr [eax], al
  0x2f70	add    	byte ptr [eax], al
  0x2f72	add    	byte ptr [eax], al
  0x2f74	add    	byte ptr [eax], al
  0x2f76	add    	byte ptr [eax], al
  === BLOCK LINK ===
    0x2f78
=== CODE BLOCK END ===

=== CODE BLOCK ADDRESS 0x2f78 ===
  0x2f78	add    	byte ptr [eax], al
  0x2f7a	add    	byte ptr [eax], al
  0x2f7c	add    	byte ptr [eax], al
  0x2f7e	add    	byte ptr [eax], al
  0x2f80	add    	byte ptr [eax], al
  === BLOCK LINK ===
    0x2f82
=== CODE BLOCK END ===

=== CODE BLOCK ADDRESS 0x2f82 ===
  0x2f82	add    	byte ptr [eax], al
  0x2f84	add    	byte ptr [eax], al
  0x2f86	add    	byte ptr [eax], al
  0x2f88	add    	byte ptr [eax], al
  0x2f8a	add    	byte ptr [eax], al
  === BLOCK LINK ===
    0x2f8c
=== CODE BLOCK END ===

=== CODE BLOCK ADDRESS 0x2f8c ===
  0x2f8c	add    	byte ptr [eax], al
  0x2f8e	add    	byte ptr [eax], al
  0x2f90	add    	byte ptr [eax], al
  0x2f92	add    	byte ptr [eax], al
  0x2f94	add    	byte ptr [eax], al
  === BLOCK LINK ===
    0x2f96
=== CODE BLOCK END ===

=== CODE BLOCK ADDRESS 0x2f96 ===
  0x2f96	add    	byte ptr [eax], al
  0x2f98	add    	byte ptr [eax], al
  0x2f9a	add    	byte ptr [eax], al
  0x2f9c	add    	byte ptr [eax], al
  0x2f9e	add    	byte ptr [eax], al
  === BLOCK LINK ===
    0x2fa0
=== CODE BLOCK END ===

=== CODE BLOCK ADDRESS 0x2fa0 ===
  0x2fa0	add    	byte ptr [eax], al
  0x2fa2	add    	byte ptr [eax], al
  0x2fa4	add    	byte ptr [eax], al
  0x2fa6	add    	byte ptr [eax], al
  0x2fa8	add    	byte ptr [eax], al
  === BLOCK LINK ===
    0x2faa
=== CODE BLOCK END ===

=== CODE BLOCK ADDRESS 0x2faa ===
  0x2faa	add    	byte ptr [eax], al
  0x2fac	add    	byte ptr [eax], al
  0x2fae	add    	byte ptr [eax], al
  0x2fb0	add    	byte ptr [eax], al
  0x2fb2	add    	byte ptr [eax], al
  === BLOCK LINK ===
    0x2fb4
=== CODE BLOCK END ===

=== CODE BLOCK ADDRESS 0x2fb4 ===
  0x2fb4	add    	byte ptr [eax], al
  0x2fb6	add    	byte ptr [eax], al
  0x2fb8	add    	byte ptr [eax], al
  0x2fba	add    	byte ptr [eax], al
  0x2fbc	add    	byte ptr [eax], al
  === BLOCK LINK ===
    0x2fbe
=== CODE BLOCK END ===

=== CODE BLOCK ADDRESS 0x2fbe ===
  0x2fbe	add    	byte ptr [eax], al
  0x2fc0	add    	byte ptr [eax], al
  0x2fc2	add    	byte ptr [eax], al
  0x2fc4	add    	byte ptr [eax], al
  0x2fc6	add    	byte ptr [eax], al
  === BLOCK LINK ===
    0x2fc8
=== CODE BLOCK END ===

=== CODE BLOCK ADDRESS 0x2fc8 ===
  0x2fc8	add    	byte ptr [eax], al
  0x2fca	add    	byte ptr [eax], al
  0x2fcc	add    	byte ptr [eax], al
  0x2fce	add    	byte ptr [eax], al
  0x2fd0	add    	byte ptr [eax], al
  === BLOCK LINK ===
    0x2fd2
=== CODE BLOCK END ===

=== CODE BLOCK ADDRESS 0x2fd2 ===
  0x2fd2	add    	byte ptr [eax], al
  0x2fd4	add    	byte ptr [eax], al
  0x2fd6	add    	byte ptr [eax], al
  0x2fd8	add    	byte ptr [eax], al
  0x2fda	add    	byte ptr [eax], al
  === BLOCK LINK ===
    0x2fdc
=== CODE BLOCK END ===

=== CODE BLOCK ADDRESS 0x2fdc ===
  0x2fdc	add    	byte ptr [eax], al
  0x2fde	add    	byte ptr [eax], al
  0x2fe0	add    	byte ptr [eax], al
  0x2fe2	add    	byte ptr [eax], al
  0x2fe4	add    	byte ptr [eax], al
  === BLOCK LINK ===
    0x2fe6
=== CODE BLOCK END ===

=== CODE BLOCK ADDRESS 0x2fe6 ===
  0x2fe6	add    	byte ptr [eax], al
  0x2fe8	add    	byte ptr [eax], al
  0x2fea	add    	byte ptr [eax], al
  0x2fec	add    	byte ptr [eax], al
  0x2fee	add    	byte ptr [eax], al
  === BLOCK LINK ===
    0x2ff0
=== CODE BLOCK END ===

=== CODE BLOCK ADDRESS 0x2ff0 ===
  0x2ff0	add    	byte ptr [eax], al
  0x2ff2	add    	byte ptr [eax], al
  0x2ff4	add    	byte ptr [eax], al
  0x2ff6	add    	byte ptr [eax], al
  0x2ff8	add    	byte ptr [eax], al
  === BLOCK LINK ===
    0x2ffa
=== CODE BLOCK END ===

=== CODE BLOCK ADDRESS 0x2ffa ===
  0x2ffa	add    	byte ptr [eax], al
  0x2ffc	add    	byte ptr [eax], al
=== CODE BLOCK END ===

=== DATA BLOCK ADDRESS 0x3000 ===
  0x3000	70 50 00 40 01 00 00 00 10 51 00 40 01 00 00 00 	pP0@00000Q0@0000
  0x3010	18 01 00 00 00 00 00 00 00 00 00 00 00 00 00 00 	0000000000000000
  0x3020	00 00 00 00 00 00 00 00 00 00 00 00 00 00 00 00 	0000000000000000
  0x3030	00 00 00 00 00 00 00 00 00 00 00 00 00 00 00 00 	0000000000000000
  0x3040	00 00 00 00 00 00 00 00 00 00 00 00 00 00 00 00 	0000000000000000
  0x3050	00 00 00 00 00 00 00 00 00 00 00 00 00 00 00 00 	0000000000000000
  0x3060	00 00 00 00 00 00 00 00 08 50 00 40 01 00 00 00 	000000000P0@0000
  0x3070	00 00 00 00 00 00 00 00 00 00 00 00 00 00 00 00 	0000000000000000
  0x3080	20 33 00 40 01 00 00 00 28 33 00 40 01 00 00 00 	 30@0000(30@0000
  0x3090	68 33 00 40 01 00 00 00 08 00 00 00 00 00 00 00 	h30@000000000000
  0x30a0	00 75 01 00 00 00 00 00 00 00 00 00 00 00 00 00 	0u00000000000000
  0x30b0	00 00 00 00 00 00 00 00 00 00 00 00 00 00 00 00 	0000000000000000
  0x30c0	00 00 00 00 00 00 00 00 00 00 00 00 00 00 00 00 	0000000000000000
  0x30d0	00 00 00 00 00 00 00 00 00 00 00 00 00 00 00 00 	0000000000000000
  0x30e0	00 00 00 00 00 00 00 00 00 00 00 00 00 00 00 00 	0000000000000000
  0x30f0	00 00 00 00 00 00 00 00 00 00 00 00 00 00 00 00 	0000000000000000
  0x3100	00 00 00 00 00 00 00 00 00 00 00 00 00 00 00 00 	0000000000000000
  0x3110	00 00 00 00 00 00 00 00 00 00 00 00 00 00 00 00 	0000000000000000
  0x3120	00 00 00 00 00 00 00 00 aa 3d 00 00 00 00 00 00 	000000000=000000
  0x3130	b8 3d 00 00 00 00 00 00 f2 40 00 00 00 00 00 00 	0=0000000@000000
  0x3140	e6 40 00 00 00 00 00 00 da 40 00 00 00 00 00 00 	0@0000000@000000
  0x3150	98 3d 00 00 00 00 00 00 c6 40 00 00 00 00 00 00 	0=0000000@000000
  0x3160	88 3d 00 00 00 00 00 00 78 3d 00 00 00 00 00 00 	0=000000x=000000
  0x3170	fe 3e 00 00 00 00 00 00 06 3f 00 00 00 00 00 00 	0>0000000?000000
  0x3180	18 3f 00 00 00 00 00 00 36 3f 00 00 00 00 00 00 	0?0000006?000000
  0x3190	4a 3f 00 00 00 00 00 00 64 3f 00 00 00 00 00 00 	J?000000d?000000
  0x31a0	7a 3f 00 00 00 00 00 00 90 3f 00 00 00 00 00 00 	z?0000000?000000
  0x31b0	aa 3f 00 00 00 00 00 00 ba 3f 00 00 00 00 00 00 	0?0000000?000000
  0x31c0	d6 3f 00 00 00 00 00 00 ea 3f 00 00 00 00 00 00 	0?0000000?000000
  0x31d0	fe 3f 00 00 00 00 00 00 0e 40 00 00 00 00 00 00 	0?0000000@000000
  0x31e0	26 40 00 00 00 00 00 00 34 40 00 00 00 00 00 00 	&@0000004@000000
  0x31f0	40 40 00 00 00 00 00 00 5c 40 00 00 00 00 00 00 	@@0000000@000000
  0x3200	6c 40 00 00 00 00 00 00 8a 40 00 00 00 00 00 00 	l@0000000@000000
  0x3210	9c 40 00 00 00 00 00 00 b0 40 00 00 00 00 00 00 	0@0000000@000000
  0x3220	00 00 00 00 00 00 00 00 b6 41 00 00 00 00 00 00 	000000000A000000
  0x3230	1e 41 00 00 00 00 00 00 92 3e 00 00 00 00 00 00 	0A0000000>000000
  0x3240	86 3e 00 00 00 00 00 00 7c 3e 00 00 00 00 00 00 	0>000000|>000000
  0x3250	72 3e 00 00 00 00 00 00 5a 3e 00 00 00 00 00 00 	r>000000Z>000000
  0x3260	4e 3e 00 00 00 00 00 00 3a 3e 00 00 00 00 00 00 	N>000000:>000000
  0x3270	2c 3e 00 00 00 00 00 00 22 3e 00 00 00 00 00 00 	,>000000">000000
  0x3280	1a 3e 00 00 00 00 00 00 12 3e 00 00 00 00 00 00 	0>0000000>000000
  0x3290	00 3e 00 00 00 00 00 00 f0 3d 00 00 00 00 00 00 	0>0000000=000000
  0x32a0	e2 3d 00 00 00 00 00 00 d4 3d 00 00 00 00 00 00 	0=0000000=000000
  0x32b0	04 41 00 00 00 00 00 00 14 41 00 00 00 00 00 00 	0A0000000A000000
  0x32c0	00 00 00 00 00 00 00 00 b2 3e 00 00 00 00 00 00 	000000000>000000
  0x32d0	c6 3e 00 00 00 00 00 00 e0 3e 00 00 00 00 00 00 	0>0000000>000000
  0x32e0	28 41 00 00 00 00 00 00 40 41 00 00 00 00 00 00 	(A000000@A000000
  0x32f0	5e 41 00 00 00 00 00 00 76 41 00 00 00 00 00 00 	^A000000vA000000
  0x3300	80 41 00 00 00 00 00 00 98 41 00 00 00 00 00 00 	0A0000000A000000
  0x3310	a4 41 00 00 00 00 00 00 00 00 00 00 00 00 00 00 	0A00000000000000
  0x3320	20 2b 00 40 01 00 00 00 90 2e 00 40 01 00 00 00 	 +0@00000.0@0000
  0x3330	00 00 00 00 00 00 00 00 20 25 00 40 01 00 00 00 	00000000 %0@0000
  0x3340	00 00 00 00 00 00 00 00 00 00 00 00 00 00 00 00 	0000000000000000
  0x3350	40 24 00 40 01 00 00 00 50 28 00 40 01 00 00 00 	@$0@0000P(0@0000
  0x3360	00 00 00 00 00 00 00 00 40 24 00 00 20 25 00 00 	00000000@$00 %00
  0x3370	70 25 00 00 10 28 00 00 50 28 00 00 30 29 00 00 	p%000(00P(000)00
  0x3380	20 2b 00 00 70 2b 00 00 00 00 00 00 00 00 00 00 	 +00p+0000000000
  0x3390	68 00 64 00 77 00 77 00 69 00 7a 00 2e 00 63 00 	h0d0w0w0i0z0.0c0
  0x33a0	70 00 6c 00 00 00 00 00 41 64 64 48 61 72 64 77 	p0l00000AddHardw
  0x33b0	61 72 65 57 69 7a 61 72 64 00 00 00 00 00 00 00 	areWizard0000000
  0x33c0	53 00 6f 00 66 00 74 00 77 00 61 00 72 00 65 00 	S0o0f0t0w0a0r0e0
  0x33d0	5c 00 4d 00 69 00 63 00 72 00 6f 00 73 00 6f 00 	00M0i0c0r0o0s0o0
  0x33e0	66 00 74 00 5c 00 57 00 69 00 6e 00 64 00 6f 00 	f0t000W0i0n0d0o0
  0x33f0	77 00 73 00 5c 00 43 00 75 00 72 00 72 00 65 00 	w0s000C0u0r0r0e0
  0x3400	6e 00 74 00 56 00 65 00 72 00 73 00 69 00 6f 00 	n0t0V0e0r0s0i0o0
  0x3410	6e 00 5c 00 53 00 65 00 74 00 75 00 70 00 00 00 	n000S0e0t0u0p000
  0x3420	53 00 65 00 74 00 75 00 70 00 4f 00 76 00 65 00 	S0e0t0u0p0O0v0e0
  0x3430	72 00 72 00 69 00 64 00 65 00 00 00 00 00 00 00 	r0r0i0d0e0000000
  0x3440	4c 00 6f 00 67 00 50 00 61 00 74 00 68 00 00 00 	L0o0g0P0a0t0h000
  0x3450	73 00 65 00 74 00 75 00 70 00 61 00 70 00 69 00 	s0e0t0u0p0a0p0i0
  0x3460	2e 00 64 00 65 00 76 00 2e 00 6c 00 6f 00 67 00 	.0d0e0v0.0l0o0g0
  0x3470	00 00 00 00 00 00 00 00 49 00 4e 00 46 00 00 00 	00000000I0N0F000
  0x3480	5c 00 52 00 45 00 47 00 49 00 53 00 54 00 52 00 	00R0E0G0I0S0T0R0
  0x3490	59 00 5c 00 4d 00 41 00 43 00 48 00 49 00 4e 00 	Y000M0A0C0H0I0N0
  0x34a0	45 00 00 00 00 00 00 00 00 00 00 00 00 00 00 00 	E000000000000000
  0x34b0	5c 00 52 00 45 00 47 00 49 00 53 00 54 00 52 00 	00R0E0G0I0S0T0R0
  0x34c0	59 00 5c 00 4d 00 41 00 43 00 48 00 49 00 4e 00 	Y000M0A0C0H0I0N0
  0x34d0	45 00 5c 00 53 00 4f 00 46 00 54 00 57 00 41 00 	E000S0O0F0T0W0A0
  0x34e0	52 00 45 00 5c 00 43 00 6c 00 61 00 73 00 73 00 	R0E000C0l0a0s0s0
  0x34f0	65 00 73 00 00 00 00 00 5c 00 52 00 45 00 47 00 	e0s0000000R0E0G0
  0x3500	49 00 53 00 54 00 52 00 59 00 5c 00 55 00 53 00 	I0S0T0R0Y000U0S0
  0x3510	45 00 52 00 00 00 00 00 00 00 00 00 00 00 00 00 	E0R0000000000000
  0x3520	5c 00 52 00 45 00 47 00 49 00 53 00 54 00 52 00 	00R0E0G0I0S0T0R0
  0x3530	59 00 5c 00 4d 00 41 00 43 00 48 00 49 00 4e 00 	Y000M0A0C0H0I0N0
  0x3540	45 00 5c 00 53 00 59 00 53 00 54 00 45 00 4d 00 	E000S0Y0S0T0E0M0
  0x3550	5c 00 43 00 75 00 72 00 72 00 65 00 6e 00 74 00 	00C0u0r0r0e0n0t0
  0x3560	43 00 6f 00 6e 00 74 00 72 00 6f 00 6c 00 53 00 	C0o0n0t0r0o0l0S0
  0x3570	65 00 74 00 5c 00 48 00 61 00 72 00 64 00 77 00 	e0t000H0a0r0d0w0
  0x3580	61 00 72 00 65 00 20 00 50 00 72 00 6f 00 66 00 	a0r0e0 0P0r0o0f0
  0x3590	69 00 6c 00 65 00 73 00 5c 00 43 00 75 00 72 00 	i0l0e0s000C0u0r0
  0x35a0	72 00 65 00 6e 00 74 00 00 00 00 00 00 00 00 00 	r0e0n0t000000000
  0x35b0	73 00 65 00 74 00 75 00 70 00 61 00 70 00 69 00 	s0e0t0u0p0a0p0i0
  0x35c0	2e 00 61 00 70 00 70 00 2e 00 6c 00 6f 00 67 00 	.0a0p0p0.0l0o0g0
  0x35d0	00 00 00 00 00 00 00 00 73 00 65 00 74 00 75 00 	00000000s0e0t0u0
  0x35e0	70 00 61 00 70 00 69 00 2e 00 6f 00 66 00 66 00 	p0a0p0i0.0o0f0f0
  0x35f0	6c 00 69 00 6e 00 65 00 2e 00 6c 00 6f 00 67 00 	l0i0n0e0.0l0o0g0
  0x3600	00 00 00 00 00 00 00 00 73 00 65 00 74 00 75 00 	00000000s0e0t0u0
  0x3610	70 00 61 00 70 00 69 00 2e 00 65 00 76 00 31 00 	p0a0p0i0.0e0v010
  0x3620	00 00 00 00 00 00 00 00 73 00 65 00 74 00 75 00 	00000000s0e0t0u0
  0x3630	70 00 61 00 70 00 69 00 2e 00 65 00 76 00 32 00 	p0a0p0i0.0e0v020
  0x3640	00 00 00 00 00 00 00 00 73 00 65 00 74 00 75 00 	00000000s0e0t0u0
  0x3650	70 00 61 00 70 00 69 00 2e 00 65 00 76 00 33 00 	p0a0p0i0.0e0v030
  0x3660	00 00 00 00 00 00 00 00 00 00 00 00 00 00 00 00 	0000000000000000
  0x3670	00 00 00 00 0d 11 fc 44 00 00 00 00 02 00 00 00 	0000000D00000000
  0x3680	23 00 00 00 c4 36 00 00 c4 2a 00 00 00 00 00 00 	#00006000*000000
  0x3690	0d 11 fc 44 00 00 00 00 0d 00 00 00 f0 01 00 00 	000D000000000000
  0x36a0	e8 36 00 00 e8 2a 00 00 00 00 00 00 0d 11 fc 44 	06000*000000000D
  0x36b0	00 00 00 00 10 00 00 00 24 00 00 00 d8 38 00 00 	00000000$0000800
  0x36c0	d8 2c 00 00 52 53 44 53 04 e4 03 36 13 e8 56 8d 	0,00RSDS000600V0
  0x36d0	cc f2 aa 5e 9e c1 08 a2 01 00 00 00 48 64 77 57 	000^00000000HdwW
  0x36e0	69 7a 2e 70 64 62 00 00 47 43 54 4c 00 10 00 00 	iz.pdb00GCTL0000
  0x36f0	80 1e 00 00 2e 74 65 78 74 24 6d 6e 00 00 00 00 	0000.text$mn0000
  0x3700	80 2e 00 00 20 00 00 00 2e 74 65 78 74 24 6d 6e 	0.00 000.text$mn
  0x3710	24 30 30 00 a0 2e 00 00 90 00 00 00 2e 74 65 78 	$0000.000000.tex
  0x3720	74 24 78 00 00 30 00 00 28 01 00 00 2e 72 64 61 	t$x00000(000.rda
  0x3730	74 61 24 62 72 63 00 00 28 31 00 00 f8 01 00 00 	ta$brc00(1000000
  0x3740	2e 69 64 61 74 61 24 35 00 00 00 00 20 33 00 00 	.idata$50000 300
  0x3750	10 00 00 00 2e 30 30 63 66 67 00 00 30 33 00 00 	0000.00cfg000300
  0x3760	08 00 00 00 2e 43 52 54 24 58 43 41 00 00 00 00 	0000.CRT$XCA0000
  0x3770	38 33 00 00 08 00 00 00 2e 43 52 54 24 58 43 41 	83000000.CRT$XCA
  0x3780	41 00 00 00 40 33 00 00 08 00 00 00 2e 43 52 54 	A000@3000000.CRT
  0x3790	24 58 43 5a 00 00 00 00 48 33 00 00 08 00 00 00 	$XCZ0000H3000000
  0x37a0	2e 43 52 54 24 58 49 41 00 00 00 00 50 33 00 00 	.CRT$XIA0000P300
  0x37b0	08 00 00 00 2e 43 52 54 24 58 49 41 41 00 00 00 	0000.CRT$XIAA000
  0x37c0	58 33 00 00 08 00 00 00 2e 43 52 54 24 58 49 59 	X3000000.CRT$XIY
  0x37d0	00 00 00 00 60 33 00 00 08 00 00 00 2e 43 52 54 	0000`3000000.CRT
  0x37e0	24 58 49 5a 00 00 00 00 68 33 00 00 28 00 00 00 	$XIZ0000h300(000
  0x37f0	2e 67 66 69 64 73 00 00 90 33 00 00 34 03 00 00 	.gfids0003004000
  0x3800	2e 72 64 61 74 61 00 00 c4 36 00 00 3c 02 00 00 	.rdata000600<000
  0x3810	2e 72 64 61 74 61 24 7a 7a 7a 64 62 67 00 00 00 	.rdata$zzzdbg000
  0x3820	00 39 00 00 2c 02 00 00 2e 78 64 61 74 61 00 00 	0900,000.xdata00
  0x3830	2c 3b 00 00 3c 00 00 00 2e 69 64 61 74 61 24 32 	,;00<000.idata$2
  0x3840	00 00 00 00 68 3b 00 00 18 00 00 00 2e 69 64 61 	0000h;000000.ida
  0x3850	74 61 24 33 00 00 00 00 80 3b 00 00 f8 01 00 00 	ta$300000;000000
  0x3860	2e 69 64 61 74 61 24 34 00 00 00 00 78 3d 00 00 	.idata$40000x=00
  0x3870	48 04 00 00 2e 69 64 61 74 61 24 36 00 00 00 00 	H000.idata$60000
  0x3880	00 50 00 00 30 00 00 00 2e 64 61 74 61 00 00 00 	0P000000.data000
  0x3890	30 50 00 00 08 07 00 00 2e 62 73 73 00 00 00 00 	0P000000.bss0000
  0x38a0	00 60 00 00 e0 01 00 00 2e 70 64 61 74 61 00 00 	0`000000.pdata00
  0x38b0	00 70 00 00 d0 02 00 00 2e 72 73 72 63 24 30 31 	0p000000.rsrc$01
  0x38c0	00 00 00 00 d0 72 00 00 88 c9 00 00 2e 72 73 72 	00000r000000.rsr
  0x38d0	63 24 30 32 00 00 00 00 20 00 00 00 04 e4 03 36 	c$020000 0000006
  0x38e0	13 e8 56 8d cc f2 aa 5e 9e c1 08 a2 79 51 c2 4d 	00V0000^0000yQ0M
  0x38f0	2f 75 25 2b d5 4b 26 bc 0d 11 fc 44 00 00 00 00 	/u%+0K&0000D0000
  0x3900	01 0a 04 00 0a 34 0a 00 0a 72 06 70 01 0a 04 00 	000004000r0p0000
  0x3910	0a 34 06 00 0a 32 06 70 19 24 07 00 12 64 51 00 	0400020p0$000dQ0
  0x3920	12 34 50 00 12 01 4c 00 0b 70 00 00 e8 2d 00 00 	04P000L00p000-00
  0x3930	50 02 00 00 01 14 08 00 14 64 0b 00 14 54 0a 00 	P00000000d000T00
  0x3940	14 34 08 00 14 52 10 70 19 2f 09 00 1e e4 94 00 	04000R0p0/000000
  0x3950	1e 74 93 00 1e 34 92 00 1e 01 90 00 10 50 00 00 	0t00040000000P00
  0x3960	e8 2d 00 00 70 04 00 00 19 24 07 00 12 64 4c 00 	0-00p0000$000dL0
  0x3970	12 34 4a 00 12 01 48 00 0b 70 00 00 e8 2d 00 00 	04J000H00p000-00
  0x3980	30 02 00 00 01 06 02 00 06 72 02 30 19 1b 03 00 	000000000r000000
  0x3990	09 01 50 00 02 30 00 00 e8 2d 00 00 70 02 00 00 	00P000000-00p000
  0x39a0	01 04 01 00 04 42 00 00 01 05 02 00 05 34 01 00 	00000B0000000400
  0x39b0	01 1b 0a 00 1b 74 15 00 1b 64 14 00 1b 34 13 00 	00000t000d000400
  0x39c0	1b d2 14 f0 12 e0 10 50 19 20 09 00 11 c2 0d f0 	0000000P0 000000
  0x39d0	0b e0 09 d0 07 c0 05 70 04 60 03 50 02 30 00 00 	0000000p0`0P0000
  0x39e0	e8 2d 00 00 58 00 00 00 01 14 08 00 14 64 08 00 	0-00X00000000d00
  0x39f0	14 54 07 00 14 34 06 00 14 32 10 70 01 15 08 00 	0T000400020p0000
  0x3a00	15 74 08 00 15 64 07 00 15 34 06 00 15 32 11 e0 	0t000d0004000200
  0x3a10	09 14 08 00 14 72 10 f0 0e e0 0c d0 0a c0 08 70 	00000r000000000p
  0x3a20	07 60 06 30 0a 2b 00 00 01 00 00 00 14 1f 00 00 	0`000+0000000000
  0x3a30	38 1f 00 00 a0 2e 00 00 38 1f 00 00 01 06 02 00 	80000.0080000000
  0x3a40	06 32 02 50 19 32 0b 00 21 64 52 00 21 34 51 00 	020P0200!dR0!4Q0
  0x3a50	21 01 4a 00 12 f0 10 e0 0e c0 0c 70 0b 50 00 00 	!0J00000000p0P00
  0x3a60	e8 2d 00 00 40 02 00 00 01 0f 06 00 0f 64 07 00 	0-00@00000000d00
  0x3a70	0f 34 06 00 0f 32 0b 70 01 04 01 00 04 62 00 00 	0400020p00000b00
  0x3a80	09 13 07 00 13 74 19 00 13 34 18 00 13 01 16 00 	00000t0004000000
  0x3a90	0c e0 00 00 0a 2b 00 00 01 00 00 00 ac 25 00 00 	00000+0000000%00
  0x3aa0	87 27 00 00 ec 2e 00 00 87 27 00 00 00 00 00 00 	0'000.000'000000
  0x3ab0	01 00 00 00 09 04 01 00 04 22 00 00 0a 2b 00 00 	000000000"000+00
  0x3ac0	01 00 00 00 8c 28 00 00 c2 28 00 00 01 00 00 00 	00000(000(000000
  0x3ad0	c2 28 00 00 01 06 02 00 06 32 02 30 09 0a 04 00 	0(00000002000000
  0x3ae0	0a 34 06 00 0a 32 06 70 0a 2b 00 00 01 00 00 00 	0400020p0+000000
  0x3af0	9d 29 00 00 d0 29 00 00 10 2f 00 00 d0 29 00 00 	0)000)000/000)00
  0x3b00	01 0d 04 00 0d 34 09 00 0d 32 06 50 01 04 01 00 	00000400020P0000
  0x3b10	04 e2 00 00 01 0c 02 00 0c 01 11 00 00 00 00 00 	0000000000000000
  0x3b20	01 00 00 00 01 02 01 00 02 30 00 00 80 3b 00 00 	0000000000000;00
  0x3b30	00 00 00 00 00 00 00 00 c6 3d 00 00 28 31 00 00 	000000000=00(100
  0x3b40	80 3c 00 00 00 00 00 00 00 00 00 00 a6 3e 00 00 	0<00000000000>00
  0x3b50	28 32 00 00 20 3d 00 00 00 00 00 00 00 00 00 00 	(200 =0000000000
  0x3b60	f4 3e 00 00 c8 32 00 00 00 00 00 00 00 00 00 00 	0>00020000000000
  0x3b70	00 00 00 00 00 00 00 00 00 00 00 00 00 00 00 00 	0000000000000000
  0x3b80	aa 3d 00 00 00 00 00 00 b8 3d 00 00 00 00 00 00 	0=0000000=000000
  0x3b90	f2 40 00 00 00 00 00 00 e6 40 00 00 00 00 00 00 	0@0000000@000000
  0x3ba0	da 40 00 00 00 00 00 00 98 3d 00 00 00 00 00 00 	0@0000000=000000
  0x3bb0	c6 40 00 00 00 00 00 00 88 3d 00 00 00 00 00 00 	0@0000000=000000
  0x3bc0	78 3d 00 00 00 00 00 00 fe 3e 00 00 00 00 00 00 	x=0000000>000000
  0x3bd0	06 3f 00 00 00 00 00 00 18 3f 00 00 00 00 00 00 	0?0000000?000000
  0x3be0	36 3f 00 00 00 00 00 00 4a 3f 00 00 00 00 00 00 	6?000000J?000000
  0x3bf0	64 3f 00 00 00 00 00 00 7a 3f 00 00 00 00 00 00 	d?000000z?000000
  0x3c00	90 3f 00 00 00 00 00 00 aa 3f 00 00 00 00 00 00 	0?0000000?000000
  0x3c10	ba 3f 00 00 00 00 00 00 d6 3f 00 00 00 00 00 00 	0?0000000?000000
  0x3c20	ea 3f 00 00 00 00 00 00 fe 3f 00 00 00 00 00 00 	0?0000000?000000
  0x3c30	0e 40 00 00 00 00 00 00 26 40 00 00 00 00 00 00 	0@000000&@000000
  0x3c40	34 40 00 00 00 00 00 00 40 40 00 00 00 00 00 00 	4@000000@@000000
  0x3c50	5c 40 00 00 00 00 00 00 6c 40 00 00 00 00 00 00 	0@000000l@000000
  0x3c60	8a 40 00 00 00 00 00 00 9c 40 00 00 00 00 00 00 	0@0000000@000000
  0x3c70	b0 40 00 00 00 00 00 00 00 00 00 00 00 00 00 00 	0@00000000000000
  0x3c80	b6 41 00 00 00 00 00 00 1e 41 00 00 00 00 00 00 	0A0000000A000000
  0x3c90	92 3e 00 00 00 00 00 00 86 3e 00 00 00 00 00 00 	0>0000000>000000
  0x3ca0	7c 3e 00 00 00 00 00 00 72 3e 00 00 00 00 00 00 	|>000000r>000000
  0x3cb0	5a 3e 00 00 00 00 00 00 4e 3e 00 00 00 00 00 00 	Z>000000N>000000
  0x3cc0	3a 3e 00 00 00 00 00 00 2c 3e 00 00 00 00 00 00 	:>000000,>000000
  0x3cd0	22 3e 00 00 00 00 00 00 1a 3e 00 00 00 00 00 00 	">0000000>000000
  0x3ce0	12 3e 00 00 00 00 00 00 00 3e 00 00 00 00 00 00 	0>0000000>000000
  0x3cf0	f0 3d 00 00 00 00 00 00 e2 3d 00 00 00 00 00 00 	0=0000000=000000
  0x3d00	d4 3d 00 00 00 00 00 00 04 41 00 00 00 00 00 00 	0=0000000A000000
  0x3d10	14 41 00 00 00 00 00 00 00 00 00 00 00 00 00 00 	0A00000000000000
  0x3d20	b2 3e 00 00 00 00 00 00 c6 3e 00 00 00 00 00 00 	0>0000000>000000
  0x3d30	e0 3e 00 00 00 00 00 00 28 41 00 00 00 00 00 00 	0>000000(A000000
  0x3d40	40 41 00 00 00 00 00 00 5e 41 00 00 00 00 00 00 	@A000000^A000000
  0x3d50	76 41 00 00 00 00 00 00 80 41 00 00 00 00 00 00 	vA0000000A000000
  0x3d60	98 41 00 00 00 00 00 00 a4 41 00 00 00 00 00 00 	0A0000000A000000
  0x3d70	00 00 00 00 00 00 00 00 69 02 47 65 74 4c 61 73 	00000000i0GetLas
  0x3d80	74 45 72 72 6f 72 00 00 ca 03 4c 6f 61 64 4c 69 	tError0000LoadLi
  0x3d90	62 72 61 72 79 57 00 00 b7 02 47 65 74 50 72 6f 	braryW0000GetPro
  0x3da0	63 41 64 64 72 65 73 73 00 00 66 01 45 78 69 74 	cAddress00f0Exit
  0x3db0	50 72 6f 63 65 73 73 00 b3 01 46 72 65 65 4c 69 	Process000FreeLi
  0x3dc0	62 72 61 72 79 00 4b 45 52 4e 45 4c 33 32 2e 64 	brary0KERNEL32.d
  0x3dd0	6c 6c 00 00 55 00 5f 58 63 70 74 46 69 6c 74 65 	ll00U0_XcptFilte
  0x3de0	72 00 ae 00 5f 61 6d 73 67 5f 65 78 69 74 00 00 	r000_amsg_exit00
  0x3df0	7f 00 5f 5f 67 65 74 6d 61 69 6e 61 72 67 73 00 	00__getmainargs0
  0x3e00	8e 00 5f 5f 73 65 74 5f 61 70 70 5f 74 79 70 65 	00__set_app_type
  0x3e10	00 00 32 04 65 78 69 74 00 00 0e 01 5f 65 78 69 	0020exit0000_exi
  0x3e20	74 00 c1 00 5f 63 65 78 69 74 00 00 99 01 5f 69 	t000_cexit0000_i
  0x3e30	73 6d 62 62 6c 65 61 64 00 00 90 00 5f 5f 73 65 	smbblead0000__se
  0x3e40	74 75 73 65 72 6d 61 74 68 65 72 72 00 00 7d 01 	tusermatherr00}0
  0x3e50	5f 69 6e 69 74 74 65 72 6d 00 57 00 5f 5f 43 5f 	_initterm0W0__C_
  0x3e60	73 70 65 63 69 66 69 63 5f 68 61 6e 64 6c 65 72 	specific_handler
  0x3e70	00 00 a2 00 5f 61 63 6d 64 6c 6e 00 27 01 5f 66 	0000_acmdln0'0_f
  0x3e80	6d 6f 64 65 00 00 d2 00 5f 63 6f 6d 6d 6f 64 65 	mode0000_commode
  0x3e90	00 00 2f 00 3f 74 65 72 6d 69 6e 61 74 65 40 40 	00/0?terminate@@
  0x3ea0	59 41 58 58 5a 00 6d 73 76 63 72 74 2e 64 6c 6c 	YAXXZ0msvcrt.dll
  0x3eb0	00 00 f2 02 52 74 6c 43 61 70 74 75 72 65 43 6f 	0000RtlCaptureCo
  0x3ec0	6e 74 65 78 74 00 e8 04 52 74 6c 4c 6f 6f 6b 75 	ntext000RtlLooku
  0x3ed0	70 46 75 6e 63 74 69 6f 6e 45 6e 74 72 79 00 00 	pFunctionEntry00
  0x3ee0	27 06 52 74 6c 56 69 72 74 75 61 6c 55 6e 77 69 	'0RtlVirtualUnwi
  0x3ef0	6e 64 00 00 6e 74 64 6c 6c 2e 64 6c 6c 00 8d 05 	nd00ntdll.dll000
  0x3f00	53 6c 65 65 70 00 d9 02 47 65 74 53 74 61 72 74 	Sleep000GetStart
  0x3f10	75 70 49 6e 66 6f 57 00 7d 05 53 65 74 55 6e 68 	upInfoW0}0SetUnh
  0x3f20	61 6e 64 6c 65 64 45 78 63 65 70 74 69 6f 6e 46 	andledExceptionF
  0x3f30	69 6c 74 65 72 00 80 02 47 65 74 4d 6f 64 75 6c 	ilter000GetModul
  0x3f40	65 48 61 6e 64 6c 65 57 00 00 51 04 51 75 65 72 	eHandleW00Q0Quer
  0x3f50	79 50 65 72 66 6f 72 6d 61 6e 63 65 43 6f 75 6e 	yPerformanceCoun
  0x3f60	74 65 72 00 20 02 47 65 74 43 75 72 72 65 6e 74 	ter0 0GetCurrent
  0x3f70	50 72 6f 63 65 73 73 49 64 00 24 02 47 65 74 43 	ProcessId0$0GetC
  0x3f80	75 72 72 65 6e 74 54 68 72 65 61 64 49 64 00 00 	urrentThreadId00
  0x3f90	f2 02 47 65 74 53 79 73 74 65 6d 54 69 6d 65 41 	00GetSystemTimeA
  0x3fa0	73 46 69 6c 65 54 69 6d 65 00 10 03 47 65 74 54 	sFileTime000GetT
  0x3fb0	69 63 6b 43 6f 75 6e 74 00 00 be 05 55 6e 68 61 	ickCount0000Unha
  0x3fc0	6e 64 6c 65 64 45 78 63 65 70 74 69 6f 6e 46 69 	ndledExceptionFi
  0x3fd0	6c 74 65 72 00 00 1f 02 47 65 74 43 75 72 72 65 	lter0000GetCurre
  0x3fe0	6e 74 50 72 6f 63 65 73 73 00 9c 05 54 65 72 6d 	ntProcess000Term
  0x3ff0	69 6e 61 74 65 50 72 6f 63 65 73 73 00 00 c1 00 	inateProcess0000
  0x4000	43 72 65 61 74 65 45 76 65 6e 74 57 00 00 e9 05 	CreateEventW0000
  0x4010	57 61 69 74 46 6f 72 53 69 6e 67 6c 65 4f 62 6a 	WaitForSingleObj
  0x4020	65 63 74 45 78 00 88 00 43 6c 6f 73 65 48 61 6e 	ectEx000CloseHan
  0x4030	64 6c 65 00 25 05 53 65 74 45 76 65 6e 74 00 00 	dle0%0SetEvent00
  0x4040	6a 01 45 78 70 61 6e 64 45 6e 76 69 72 6f 6e 6d 	j0ExpandEnvironm
  0x4050	65 6e 74 53 74 72 69 6e 67 73 57 00 40 05 53 65 	entStringsW0@0Se
  0x4060	74 4c 61 73 74 45 72 72 6f 72 00 00 f6 02 47 65 	tLastError0000Ge
  0x4070	74 53 79 73 74 65 6d 57 69 6e 64 6f 77 73 44 69 	tSystemWindowsDi
  0x4080	72 65 63 74 6f 72 79 57 00 00 67 04 52 61 69 73 	rectoryW00g0Rais
  0x4090	65 45 78 63 65 70 74 69 6f 6e 00 00 62 02 47 65 	eException00b0Ge
  0x40a0	74 46 75 6c 6c 50 61 74 68 4e 61 6d 65 57 00 00 	tFullPathNameW00
  0x40b0	4e 02 47 65 74 46 69 6c 65 41 74 74 72 69 62 75 	N0GetFileAttribu
  0x40c0	74 65 73 57 00 00 bc 00 43 72 65 61 74 65 44 69 	tesW0000CreateDi
  0x40d0	72 65 63 74 6f 72 79 57 00 00 50 03 48 65 61 70 	rectoryW00P0Heap
  0x40e0	41 6c 6c 6f 63 00 54 03 48 65 61 70 46 72 65 65 	Alloc0T0HeapFree
  0x40f0	00 00 bd 02 47 65 74 50 72 6f 63 65 73 73 48 65 	0000GetProcessHe
  0x4100	61 70 00 00 a8 02 5f 72 65 73 65 74 73 74 6b 6f 	ap0000_resetstko
  0x4110	66 6c 77 00 01 05 77 63 73 63 68 72 00 00 10 05 	flw000wcschr0000
  0x4120	77 63 73 72 63 68 72 00 fd 04 52 74 6c 4e 74 53 	wcsrchr000RtlNtS
  0x4130	74 61 74 75 73 54 6f 44 6f 73 45 72 72 6f 72 00 	tatusToDosError0
  0x4140	ef 03 52 74 6c 46 6f 72 6d 61 74 43 75 72 72 65 	00RtlFormatCurre
  0x4150	6e 74 55 73 65 72 4b 65 79 50 61 74 68 00 fc 03 	ntUserKeyPath000
  0x4160	52 74 6c 46 72 65 65 55 6e 69 63 6f 64 65 53 74 	RtlFreeUnicodeSt
  0x4170	72 69 6e 67 00 00 fd 00 4e 74 43 6c 6f 73 65 00 	ring0000NtClose0
  0x4180	6e 04 52 74 6c 49 6e 69 74 55 6e 69 63 6f 64 65 	n0RtlInitUnicode
  0x4190	53 74 72 69 6e 67 00 00 a2 01 4e 74 4f 70 65 6e 	String0000NtOpen
  0x41a0	4b 65 79 00 fd 01 4e 74 51 75 65 72 79 56 61 6c 	Key000NtQueryVal
  0x41b0	75 65 4b 65 79 00 92 04 6d 65 6d 63 70 79 00 00 	ueKey000memcpy00
  0x41c0	00 00 00 00 00 00 00 00 00 00 00 00 00 00 00 00 	0000000000000000
  0x41d0	00 00 00 00 00 00 00 00 00 00 00 00 00 00 00 00 	0000000000000000
  0x41e0	00 00 00 00 00 00 00 00 00 00 00 00 00 00 00 00 	0000000000000000
  0x41f0	00 00 00 00 00 00 00 00 00 00 00 00 00 00 00 00 	0000000000000000
=== DATA BLOCK END ===

=== DATA BLOCK ADDRESS 0x5000 ===
  0x5000	01 00 00 00 00 00 00 00 32 a2 df 2d 99 2b 00 00 	00000000200-0+00
  0x5010	cd 5d 20 d2 66 d4 ff ff 00 00 00 00 00 00 00 00 	0] 0f00000000000
  0x5020	01 00 00 00 00 00 00 00 00 00 00 00 00 00 00 00 	0000000000000000
  0x5030	00 00 00 00 00 00 00 00 00 00 00 00 00 00 00 00 	0000000000000000
  0x5040	00 00 00 00 00 00 00 00 00 00 00 00 00 00 00 00 	0000000000000000
  0x5050	00 00 00 00 00 00 00 00 00 00 00 00 00 00 00 00 	0000000000000000
  0x5060	00 00 00 00 00 00 00 00 00 00 00 00 00 00 00 00 	0000000000000000
  0x5070	00 00 00 00 00 00 00 00 00 00 00 00 00 00 00 00 	0000000000000000
  0x5080	00 00 00 00 00 00 00 00 00 00 00 00 00 00 00 00 	0000000000000000
  0x5090	00 00 00 00 00 00 00 00 00 00 00 00 00 00 00 00 	0000000000000000
  0x50a0	00 00 00 00 00 00 00 00 00 00 00 00 00 00 00 00 	0000000000000000
  0x50b0	00 00 00 00 00 00 00 00 00 00 00 00 00 00 00 00 	0000000000000000
  0x50c0	00 00 00 00 00 00 00 00 00 00 00 00 00 00 00 00 	0000000000000000
  0x50d0	00 00 00 00 00 00 00 00 00 00 00 00 00 00 00 00 	0000000000000000
  0x50e0	00 00 00 00 00 00 00 00 00 00 00 00 00 00 00 00 	0000000000000000
  0x50f0	00 00 00 00 00 00 00 00 00 00 00 00 00 00 00 00 	0000000000000000
  0x5100	00 00 00 00 00 00 00 00 00 00 00 00 00 00 00 00 	0000000000000000
  0x5110	00 00 00 00 00 00 00 00 00 00 00 00 00 00 00 00 	0000000000000000
  0x5120	00 00 00 00 00 00 00 00 00 00 00 00 00 00 00 00 	0000000000000000
  0x5130	00 00 00 00 00 00 00 00 00 00 00 00 00 00 00 00 	0000000000000000
  0x5140	00 00 00 00 00 00 00 00 00 00 00 00 00 00 00 00 	0000000000000000
  0x5150	00 00 00 00 00 00 00 00 00 00 00 00 00 00 00 00 	0000000000000000
  0x5160	00 00 00 00 00 00 00 00 00 00 00 00 00 00 00 00 	0000000000000000
  0x5170	00 00 00 00 00 00 00 00 00 00 00 00 00 00 00 00 	0000000000000000
  0x5180	00 00 00 00 00 00 00 00 00 00 00 00 00 00 00 00 	0000000000000000
  0x5190	00 00 00 00 00 00 00 00 00 00 00 00 00 00 00 00 	0000000000000000
  0x51a0	00 00 00 00 00 00 00 00 00 00 00 00 00 00 00 00 	0000000000000000
  0x51b0	00 00 00 00 00 00 00 00 00 00 00 00 00 00 00 00 	0000000000000000
  0x51c0	00 00 00 00 00 00 00 00 00 00 00 00 00 00 00 00 	0000000000000000
  0x51d0	00 00 00 00 00 00 00 00 00 00 00 00 00 00 00 00 	0000000000000000
  0x51e0	00 00 00 00 00 00 00 00 00 00 00 00 00 00 00 00 	0000000000000000
  0x51f0	00 00 00 00 00 00 00 00 00 00 00 00 00 00 00 00 	0000000000000000
=== DATA BLOCK END ===

=== DATA BLOCK ADDRESS 0x6000 ===
  0x6000	08 10 00 00 5c 11 00 00 00 39 00 00 64 11 00 00 	000000000900d000
  0x6010	12 12 00 00 0c 39 00 00 58 12 00 00 30 13 00 00 	00000900X0000000
  0x6020	18 39 00 00 38 13 00 00 d5 13 00 00 34 39 00 00 	0900800000004900
  0x6030	dc 13 00 00 9e 15 00 00 48 39 00 00 a4 15 00 00 	00000000H9000000
  0x6040	73 16 00 00 68 39 00 00 7c 16 00 00 7b 17 00 00 	s000h900|000{000
  0x6050	84 39 00 00 84 17 00 00 5d 18 00 00 8c 39 00 00 	09000000]0000900
  0x6060	64 18 00 00 bb 18 00 00 a0 39 00 00 c4 18 00 00 	d000000009000000
  0x6070	47 19 00 00 a8 39 00 00 50 19 00 00 1c 1a 00 00 	G0000900P0000000
  0x6080	84 39 00 00 24 1a 00 00 15 1b 00 00 b0 39 00 00 	0900$00000000900
  0x6090	1c 1b 00 00 6f 1c 00 00 c8 39 00 00 78 1c 00 00 	0000o0000900x000
  0x60a0	14 1d 00 00 e8 39 00 00 1c 1d 00 00 1f 1e 00 00 	0000090000000000
  0x60b0	fc 39 00 00 28 1e 00 00 93 1f 00 00 10 3a 00 00 	0900(00000000:00
  0x60c0	9c 1f 00 00 c7 21 00 00 44 3a 00 00 d0 21 00 00 	00000!00D:000!00
  0x60d0	a9 22 00 00 68 3a 00 00 b0 22 00 00 3a 23 00 00 	0"00h:000"00:#00
  0x60e0	a0 39 00 00 40 23 00 00 33 24 00 00 0c 39 00 00 	0900@#003$000900
  0x60f0	40 24 00 00 13 25 00 00 a0 39 00 00 20 25 00 00 	@$000%000900 %00
  0x6100	69 25 00 00 78 3a 00 00 70 25 00 00 82 25 00 00 	i%00x:00p%000%00
  0x6110	a0 39 00 00 88 25 00 00 ca 27 00 00 80 3a 00 00 	09000%000'000:00
  0x6120	e0 27 00 00 fe 27 00 00 b0 3a 00 00 10 28 00 00 	0'000'000:000(00
  0x6130	49 28 00 00 a0 39 00 00 50 28 00 00 68 28 00 00 	I(000900P(00h(00
  0x6140	a0 39 00 00 7c 28 00 00 d0 28 00 00 b4 3a 00 00 	0900|(000(000:00
  0x6150	d8 28 00 00 1d 29 00 00 d4 3a 00 00 90 29 00 00 	0(000)000:000)00
  0x6160	dd 29 00 00 dc 3a 00 00 24 2a 00 00 f8 2a 00 00 	0)000:00$*000*00
  0x6170	00 3b 00 00 2c 2b 00 00 60 2b 00 00 d4 3a 00 00 	0;00,+00`+000:00
  0x6180	70 2b 00 00 e1 2c 00 00 14 3b 00 00 e8 2c 00 00 	p+000,000;000,00
  0x6190	df 2d 00 00 0c 3b 00 00 e8 2d 00 00 05 2e 00 00 	0-000;000-000.00
  0x61a0	a0 39 00 00 0c 2e 00 00 67 2e 00 00 24 3b 00 00 	09000.00g.00$;00
  0x61b0	90 2e 00 00 92 2e 00 00 20 3b 00 00 a0 2e 00 00 	0.000.00 ;000.00
  0x61c0	e6 2e 00 00 3c 3a 00 00 ec 2e 00 00 0a 2f 00 00 	0.00<:000.000/00
  0x61d0	3c 3a 00 00 10 2f 00 00 30 2f 00 00 3c 3a 00 00 	<:000/000/00<:00
  0x61e0	00 00 00 00 00 00 00 00 00 00 00 00 00 00 00 00 	0000000000000000
  0x61f0	00 00 00 00 00 00 00 00 00 00 00 00 00 00 00 00 	0000000000000000
=== DATA BLOCK END ===
