===== Assembly blocks =====

=== CODE BLOCK ADDRESS 0x1000 ===
  0x1000	int3   	
  0x1001	int3   	
  0x1002	int3   	
  0x1003	int3   	
  0x1004	int3   	
  === BLOCK LINK ===
    0x1005
=== CODE BLOCK END ===

=== CODE BLOCK ADDRESS 0x1005 ===
  0x1005	int3   	
  0x1006	int3   	
  0x1007	int3   	
  0x1008	inc    	eax
  0x1009	push   	ebp
  === BLOCK LINK ===
    0x100a
=== CODE BLOCK END ===

=== CODE BLOCK ADDRESS 0x100a ===
  0x100a	push   	ebx
  0x100b	push   	esi
  0x100c	push   	edi
  0x100d	inc    	ecx
  0x100e	push   	esp
  === BLOCK LINK ===
    0x100f
=== CODE BLOCK END ===

=== CODE BLOCK ADDRESS 0x100f ===
  0x100f	inc    	ecx
  0x1010	push   	ebp
  0x1011	inc    	ecx
  0x1012	push   	esi
  0x1013	inc    	ecx
  === BLOCK LINK ===
    0x1014
=== CODE BLOCK END ===

=== CODE BLOCK ADDRESS 0x1014 ===
  0x1014	push   	edi
  0x1015	dec    	eax
  0x1016	lea    	ebp, [esp - 0x5b8]
  0x101d	dec    	eax
  0x101e	sub    	esp, 0x6b8
  === BLOCK LINK ===
    0x1024
=== CODE BLOCK END ===

=== CODE BLOCK ADDRESS 0x1024 ===
  0x1024	dec    	eax
  0x1025	mov    	eax, dword ptr [0x3fdd]
  0x102b	dec    	eax
  0x102c	xor    	eax, esp
  0x102e	dec    	eax
  === BLOCK LINK ===
    0x102f
=== CODE BLOCK END ===

=== CODE BLOCK ADDRESS 0x102f ===
  0x102f	mov    	dword ptr [ebp + 0x5a0], eax
  0x1035	dec    	eax
  0x1036	mov    	edi, dword ptr [ebp + 0x620]
  0x103c	dec    	esp
  0x103d	mov    	esi, ecx
  === BLOCK LINK ===
    0x103f
=== CODE BLOCK END ===

=== CODE BLOCK ADDRESS 0x103f ===
  0x103f	dec    	eax
  0x1040	lea    	ecx, [ebp + 0xd8]
  0x1046	dec    	ebp
  0x1047	mov    	ebp, ecx
  0x1049	dec    	ebp
  === BLOCK LINK ===
    0x104a
=== CODE BLOCK END ===

=== CODE BLOCK ADDRESS 0x104a ===
  0x104a	mov    	edi, eax
  0x104c	dec    	esp
  0x104d	mov    	esp, edx
  0x104f	dec    	eax
  0x1050	call   	dword ptr [0x2352]
  === BLOCK LINK ===
    0x1056
=== CODE BLOCK END ===

=== CODE BLOCK ADDRESS 0x1056 ===
  0x1056	nop    	dword ptr [eax + eax]
  0x105b	dec    	eax
  0x105c	lea    	ecx, [ebp + 0x18]
  0x105f	dec    	eax
  0x1060	call   	dword ptr [0x2342]
  === BLOCK LINK ===
    0x1066
=== CODE BLOCK END ===

=== CODE BLOCK ADDRESS 0x1066 ===
  0x1066	nop    	dword ptr [eax + eax]
  0x106b	dec    	eax
  0x106c	lea    	ecx, [ebp + 0xa8]
  0x1072	dec    	eax
  0x1073	call   	dword ptr [0x232f]
  === BLOCK LINK ===
    0x1079
=== CODE BLOCK END ===

=== CODE BLOCK ADDRESS 0x1079 ===
  0x1079	nop    	dword ptr [eax + eax]
  0x107e	dec    	eax
  0x107f	lea    	ecx, [ebp - 0x18]
  0x1082	dec    	eax
  0x1083	call   	dword ptr [0x231f]
  === BLOCK LINK ===
    0x1089
=== CODE BLOCK END ===

=== CODE BLOCK ADDRESS 0x1089 ===
  0x1089	nop    	dword ptr [eax + eax]
  0x108e	dec    	eax
  0x108f	lea    	ecx, [ebp + 0x78]
  0x1092	dec    	eax
  0x1093	call   	dword ptr [0x230f]
  === BLOCK LINK ===
    0x1099
=== CODE BLOCK END ===

=== CODE BLOCK ADDRESS 0x1099 ===
  0x1099	nop    	dword ptr [eax + eax]
  0x109e	dec    	eax
  0x109f	lea    	ecx, [ebp + 0x48]
  0x10a2	dec    	eax
  0x10a3	call   	dword ptr [0x22ff]
  === BLOCK LINK ===
    0x10a9
=== CODE BLOCK END ===

=== CODE BLOCK ADDRESS 0x10a9 ===
  0x10a9	nop    	dword ptr [eax + eax]
  0x10ae	dec    	eax
  0x10af	lea    	ecx, [esp + 0x58]
  0x10b3	dec    	eax
  0x10b4	call   	dword ptr [0x22ee]
  === BLOCK LINK ===
    0x10ba
=== CODE BLOCK END ===

=== CODE BLOCK ADDRESS 0x10ba ===
  0x10ba	nop    	dword ptr [eax + eax]
  0x10bf	dec    	eax
  0x10c0	lea    	ecx, [ebp - 0x48]
  0x10c3	dec    	eax
  0x10c4	call   	dword ptr [0x22de]
  === BLOCK LINK ===
    0x10ca
=== CODE BLOCK END ===

=== CODE BLOCK ADDRESS 0x10ca ===
  0x10ca	nop    	dword ptr [eax + eax]
  0x10cf	dec    	eax
  0x10d0	lea    	edx, [esp + 0x58]
  0x10d4	dec    	ecx
  0x10d5	mov    	ecx, esp
  === BLOCK LINK ===
    0x10d7
=== CODE BLOCK END ===

=== CODE BLOCK ADDRESS 0x10d7 ===
  0x10d7	dec    	eax
  0x10d8	call   	dword ptr [0x204a]
  === BLOCK LINK ===
    0x10de
=== CODE BLOCK END ===

=== CODE BLOCK ADDRESS 0x10de ===
  0x10de	nop    	dword ptr [eax + eax]
  0x10e3	or     	esi, 0xffffffff
  0x10e6	xor    	ebx, ebx
  0x10e8	test   	al, al
  0x10ea	je     	0x1210
  === BLOCK LINK ===
    0x10f0
    0x1210
=== CODE BLOCK END ===

=== CODE BLOCK ADDRESS 0x10f0 ===
  0x10f0	inc    	esp
  0x10f1	mov    	eax, esi
  0x10f3	dec    	eax
  0x10f4	lea    	edx, [0x234a]
  0x10fa	dec    	eax
  === BLOCK LINK ===
    0x10fb
=== CODE BLOCK END ===

=== CODE BLOCK ADDRESS 0x10fb ===
  0x10fb	lea    	ecx, [ebp - 0x48]
  0x10fe	dec    	eax
  0x10ff	call   	dword ptr [0x21f3]
  === BLOCK LINK ===
    0x1105
=== CODE BLOCK END ===

=== CODE BLOCK ADDRESS 0x1105 ===
  0x1105	nop    	dword ptr [eax + eax]
  0x110a	test   	al, al
  0x110c	je     	0x1210
  === BLOCK LINK ===
    0x1112
    0x1210
=== CODE BLOCK END ===

=== CODE BLOCK ADDRESS 0x1112 ===
  0x1112	dec    	eax
  0x1113	lea    	edx, [ebp - 0x48]
  0x1116	dec    	eax
  0x1117	lea    	ecx, [esp + 0x58]
  0x111b	dec    	eax
  === BLOCK LINK ===
    0x111c
=== CODE BLOCK END ===

=== CODE BLOCK ADDRESS 0x111c ===
  0x111c	call   	dword ptr [0x21ae]
  === BLOCK LINK ===
    0x1122
=== CODE BLOCK END ===

=== CODE BLOCK ADDRESS 0x1122 ===
  0x1122	nop    	dword ptr [eax + eax]
  0x1127	test   	al, al
  0x1129	je     	0x1210
  === BLOCK LINK ===
    0x112f
    0x1210
=== CODE BLOCK END ===

=== CODE BLOCK ADDRESS 0x112f ===
  0x112f	mov    	byte ptr [esp + 0x28], 1
  0x1134	dec    	eax
  0x1135	lea    	ecx, [esp + 0x58]
  0x1139	inc    	ebp
  0x113a	xor    	ecx, ecx
  === BLOCK LINK ===
    0x113c
=== CODE BLOCK END ===

=== CODE BLOCK ADDRESS 0x113c ===
  0x113c	mov    	dword ptr [esp + 0x20], ebx
  0x1140	inc    	esp
  0x1141	mov    	eax, esi
  0x1143	xor    	edx, edx
  0x1145	dec    	eax
  === BLOCK LINK ===
    0x1146
=== CODE BLOCK END ===

=== CODE BLOCK ADDRESS 0x1146 ===
  0x1146	call   	dword ptr [0x218c]
  === BLOCK LINK ===
    0x114c
=== CODE BLOCK END ===

=== CODE BLOCK ADDRESS 0x114c ===
  0x114c	nop    	dword ptr [eax + eax]
  0x1151	dec    	eax
  0x1152	mov    	dword ptr [esp + 0x50], eax
  0x1156	dec    	eax
  0x1157	test   	eax, eax
  === BLOCK LINK ===
    0x1159
=== CODE BLOCK END ===

=== CODE BLOCK ADDRESS 0x1159 ===
  0x1159	jne    	0x1181
  === BLOCK LINK ===
    0x115b
    0x1181
=== CODE BLOCK END ===

=== CODE BLOCK ADDRESS 0x115b ===
  0x115b	dec    	eax
  0x115c	lea    	ecx, [ebp - 0x48]
  0x115f	dec    	eax
  0x1160	call   	dword ptr [0x224a]
  === BLOCK LINK ===
    0x1166
=== CODE BLOCK END ===

=== CODE BLOCK ADDRESS 0x1166 ===
  0x1166	nop    	dword ptr [eax + eax]
  0x116b	dec    	eax
  0x116c	lea    	ecx, [esp + 0x58]
  0x1170	dec    	eax
  0x1171	call   	dword ptr [0x2239]
  === BLOCK LINK ===
    0x1177
=== CODE BLOCK END ===

=== CODE BLOCK ADDRESS 0x1177 ===
  0x1177	nop    	dword ptr [eax + eax]
  0x117c	jmp    	0x1239
  === BLOCK LINK ===
    0x1181
    0x1239
=== CODE BLOCK END ===

=== CODE BLOCK ADDRESS 0x1181 ===
  0x1181	movzx  	eax, word ptr [esp + 0x70]
  0x1186	dec    	esp
  0x1187	lea    	ecx, [ebp + 0x108]
  0x118d	add    	ax, ax
  0x1190	mov    	dword ptr [esp + 0x28], 0x10
  === BLOCK LINK ===
    0x1198
=== CODE BLOCK END ===

=== CODE BLOCK ADDRESS 0x1198 ===
  0x1198	mov    	word ptr [esp + 0x48], ax
  0x119d	dec    	esp
  0x119e	lea    	eax, [ebp - 0x78]
  0x11a1	mov    	word ptr [esp + 0x4a], ax
  0x11a6	dec    	eax
  === BLOCK LINK ===
    0x11a7
=== CODE BLOCK END ===

=== CODE BLOCK ADDRESS 0x11a7 ===
  0x11a7	lea    	ecx, [esp + 0x40]
  0x11ab	dec    	eax
  0x11ac	lea    	eax, [esp + 0x48]
  0x11b0	mov    	dword ptr [ebp - 0x78], 0x30
  0x11b7	xorps  	xmm0, xmm0
  === BLOCK LINK ===
    0x11ba
=== CODE BLOCK END ===

=== CODE BLOCK ADDRESS 0x11ba ===
  0x11ba	dec    	eax
  0x11bb	mov    	dword ptr [ebp - 0x68], eax
  0x11be	mov    	edx, 0x100001
  0x11c3	dec    	eax
  0x11c4	mov    	dword ptr [ebp - 0x70], ebx
  === BLOCK LINK ===
    0x11c7
=== CODE BLOCK END ===

=== CODE BLOCK ADDRESS 0x11c7 ===
  0x11c7	mov    	dword ptr [ebp - 0x60], 0x40
  0x11ce	movdqu  	xmmword ptr [ebp - 0x58], xmm0
  0x11d3	mov    	dword ptr [esp + 0x20], 3
  0x11db	dec    	eax
  0x11dc	call   	dword ptr [0x204e]
  === BLOCK LINK ===
    0x11e2
=== CODE BLOCK END ===

=== CODE BLOCK ADDRESS 0x11e2 ===
  0x11e2	nop    	dword ptr [eax + eax]
  0x11e7	test   	eax, eax
  0x11e9	dec    	eax
  0x11ea	lea    	ecx, [ebp - 0x48]
  0x11ed	inc    	eax
  === BLOCK LINK ===
    0x11ee
=== CODE BLOCK END ===

=== CODE BLOCK ADDRESS 0x11ee ===
  0x11ee	setns  	dh
  0x11f1	dec    	eax
  0x11f2	call   	dword ptr [0x21b8]
  === BLOCK LINK ===
    0x11f8
=== CODE BLOCK END ===

=== CODE BLOCK ADDRESS 0x11f8 ===
  0x11f8	nop    	dword ptr [eax + eax]
  0x11fd	dec    	eax
  0x11fe	lea    	ecx, [esp + 0x58]
  0x1202	dec    	eax
  0x1203	call   	dword ptr [0x21a7]
  === BLOCK LINK ===
    0x1209
=== CODE BLOCK END ===

=== CODE BLOCK ADDRESS 0x1209 ===
  0x1209	nop    	dword ptr [eax + eax]
  0x120e	jmp    	0x1234
  === BLOCK LINK ===
    0x1210
    0x1234
=== CODE BLOCK END ===

=== CODE BLOCK ADDRESS 0x1210 ===
  0x1210	dec    	eax
  0x1211	lea    	ecx, [ebp - 0x48]
  0x1214	dec    	eax
  0x1215	call   	dword ptr [0x2195]
  === BLOCK LINK ===
    0x121b
=== CODE BLOCK END ===

=== CODE BLOCK ADDRESS 0x121b ===
  0x121b	nop    	dword ptr [eax + eax]
  0x1220	dec    	eax
  0x1221	lea    	ecx, [esp + 0x58]
  0x1225	dec    	eax
  0x1226	call   	dword ptr [0x2184]
  === BLOCK LINK ===
    0x122c
=== CODE BLOCK END ===

=== CODE BLOCK ADDRESS 0x122c ===
  0x122c	nop    	dword ptr [eax + eax]
  0x1231	inc    	eax
  0x1232	mov    	dh, bl
  === BLOCK LINK ===
    0x1234
=== CODE BLOCK END ===

=== CODE BLOCK ADDRESS 0x1237 ===
  0x1237	jne    	0x1272
  === BLOCK LINK ===
    0x1239
    0x1272
=== CODE BLOCK END ===

=== CODE BLOCK ADDRESS 0x1239 ===
  0x1239	dec    	eax
  0x123a	mov    	eax, dword ptr [edi]
  0x123c	inc    	ecx
  0x123d	mov    	ecx, 3
  0x1242	inc    	ebp
  === BLOCK LINK ===
    0x1243
=== CODE BLOCK END ===

=== CODE BLOCK ADDRESS 0x1243 ===
  0x1243	xor    	eax, eax
  0x1245	mov    	edx, 0x7f4
  0x124a	dec    	eax
  0x124b	mov    	ecx, edi
  0x124d	dec    	eax
  === BLOCK LINK ===
    0x124e
=== CODE BLOCK END ===

=== CODE BLOCK ADDRESS 0x124e ===
  0x124e	mov    	eax, dword ptr [eax + 0x20]
  0x1251	call   	dword ptr [0x2189]
  === BLOCK LINK ===
    0x1257
=== CODE BLOCK END ===

=== CODE BLOCK ADDRESS 0x1257 ===
  0x1257	dec    	eax
  0x1258	lea    	edx, [0x21e2]
  0x125e	dec    	eax
  0x125f	mov    	ecx, edi
  0x1261	dec    	eax
  === BLOCK LINK ===
    0x1262
=== CODE BLOCK END ===

=== CODE BLOCK ADDRESS 0x1262 ===
  0x1262	call   	dword ptr [0x2058]
  === BLOCK LINK ===
    0x1268
=== CODE BLOCK END ===

=== CODE BLOCK ADDRESS 0x1268 ===
  0x1268	nop    	dword ptr [eax + eax]
  0x126d	jmp    	0x1597
  === BLOCK LINK ===
    0x1272
    0x1597
=== CODE BLOCK END ===

=== CODE BLOCK ADDRESS 0x1272 ===
  0x1272	dec    	eax
  0x1273	mov    	ecx, dword ptr [esp + 0x40]
  0x1277	dec    	esp
  0x1278	lea    	eax, [ebp + 0x130]
  0x127e	inc    	ecx
  === BLOCK LINK ===
    0x127f
=== CODE BLOCK END ===

=== CODE BLOCK ADDRESS 0x127f ===
  0x127f	mov    	ecx, 0x418
  0x1284	mov    	dword ptr [esp + 0x20], 1
  0x128c	dec    	eax
  0x128d	lea    	edx, [ebp + 0x118]
  0x1293	dec    	eax
  === BLOCK LINK ===
    0x1294
=== CODE BLOCK END ===

=== CODE BLOCK ADDRESS 0x1294 ===
  0x1294	call   	dword ptr [0x1fa6]
  === BLOCK LINK ===
    0x129a
=== CODE BLOCK END ===

=== CODE BLOCK ADDRESS 0x129a ===
  0x129a	nop    	dword ptr [eax + eax]
  0x129f	dec    	eax
  0x12a0	mov    	ecx, dword ptr [esp + 0x40]
  0x12a4	test   	eax, eax
  0x12a6	jns    	0x12b9
  === BLOCK LINK ===
    0x12a8
    0x12b9
=== CODE BLOCK END ===

=== CODE BLOCK ADDRESS 0x12a8 ===
  0x12a8	dec    	eax
  0x12a9	call   	dword ptr [0x1fa1]
  === BLOCK LINK ===
    0x12af
=== CODE BLOCK END ===

=== CODE BLOCK ADDRESS 0x12af ===
  0x12af	nop    	dword ptr [eax + eax]
  0x12b4	jmp    	0x1597
  === BLOCK LINK ===
    0x12b9
    0x1597
=== CODE BLOCK END ===

=== CODE BLOCK ADDRESS 0x12b9 ===
  0x12b9	dec    	eax
  0x12ba	call   	dword ptr [0x1f90]
  === BLOCK LINK ===
    0x12c0
=== CODE BLOCK END ===

=== CODE BLOCK ADDRESS 0x12c0 ===
  0x12c0	nop    	dword ptr [eax + eax]
  0x12c5	mov    	eax, dword ptr [ebp + 0x13c]
  0x12cb	dec    	eax
  0x12cc	lea    	edx, [ebp + 0x142]
  0x12d2	dec    	eax
  === BLOCK LINK ===
    0x12d3
=== CODE BLOCK END ===

=== CODE BLOCK ADDRESS 0x12d3 ===
  0x12d3	shr    	eax, 1
  0x12d5	dec    	eax
  0x12d6	lea    	ecx, [ebp + 0xd8]
  0x12dc	or     	esi, 0xffffffff
  0x12df	inc    	esp
  === BLOCK LINK ===
    0x12e0
=== CODE BLOCK END ===

=== CODE BLOCK ADDRESS 0x12e0 ===
  0x12e0	mov    	eax, esi
  0x12e2	mov    	word ptr [ebp + eax*2 + 0x142], bx
  0x12ea	dec    	eax
  0x12eb	call   	dword ptr [0x1fff]
  === BLOCK LINK ===
    0x12f1
=== CODE BLOCK END ===

=== CODE BLOCK ADDRESS 0x12f1 ===
  0x12f1	nop    	dword ptr [eax + eax]
  0x12f6	test   	al, al
  0x12f8	je     	0x1597
  === BLOCK LINK ===
    0x12fe
    0x1597
=== CODE BLOCK END ===

=== CODE BLOCK ADDRESS 0x12fe ===
  0x12fe	dec    	eax
  0x12ff	mov    	eax, dword ptr [edi]
  0x1301	inc    	ebp
  0x1302	xor    	eax, eax
  0x1304	inc    	ecx
  === BLOCK LINK ===
    0x1305
=== CODE BLOCK END ===

=== CODE BLOCK ADDRESS 0x1305 ===
  0x1305	mov    	ecx, 3
  0x130a	dec    	eax
  0x130b	mov    	ecx, edi
  0x130d	dec    	eax
  0x130e	mov    	eax, dword ptr [eax + 0x20]
  === BLOCK LINK ===
    0x1311
=== CODE BLOCK END ===

=== CODE BLOCK ADDRESS 0x1311 ===
  0x1311	cmp    	dword ptr [ebp + 0x13c], ebx
  0x1317	je     	0x1348
  === BLOCK LINK ===
    0x1319
    0x1348
=== CODE BLOCK END ===

=== CODE BLOCK ADDRESS 0x1319 ===
  0x1319	mov    	edx, 0x1773
  0x131e	call   	dword ptr [0x20bc]
  === BLOCK LINK ===
    0x1324
=== CODE BLOCK END ===

=== CODE BLOCK ADDRESS 0x1324 ===
  0x1324	dec    	esp
  0x1325	lea    	ecx, [ebp + 0xd8]
  0x132b	dec    	ebp
  0x132c	mov    	eax, esi
  0x132e	dec    	eax
  === BLOCK LINK ===
    0x132f
=== CODE BLOCK END ===

=== CODE BLOCK ADDRESS 0x132f ===
  0x132f	lea    	edx, [0x2113]
  0x1335	dec    	eax
  0x1336	mov    	ecx, edi
  0x1338	dec    	eax
  0x1339	call   	dword ptr [0x1f81]
  === BLOCK LINK ===
    0x133f
=== CODE BLOCK END ===

=== CODE BLOCK ADDRESS 0x133f ===
  0x133f	nop    	dword ptr [eax + eax]
  0x1344	mov    	al, 1
  0x1346	jmp    	0x136e
  === BLOCK LINK ===
    0x1348
    0x136e
=== CODE BLOCK END ===

=== CODE BLOCK ADDRESS 0x1348 ===
  0x1348	mov    	edx, 0x1772
  0x134d	call   	dword ptr [0x208d]
  === BLOCK LINK ===
    0x1353
=== CODE BLOCK END ===

=== CODE BLOCK ADDRESS 0x1353 ===
  0x1353	dec    	ebp
  0x1354	mov    	eax, esi
  0x1356	dec    	eax
  0x1357	lea    	edx, [0x20f3]
  0x135d	dec    	eax
  === BLOCK LINK ===
    0x135e
=== CODE BLOCK END ===

=== CODE BLOCK ADDRESS 0x135e ===
  0x135e	mov    	ecx, edi
  0x1360	dec    	eax
  0x1361	call   	dword ptr [0x1f59]
  === BLOCK LINK ===
    0x1367
=== CODE BLOCK END ===

=== CODE BLOCK ADDRESS 0x1367 ===
  0x1367	nop    	dword ptr [eax + eax]
  0x136c	mov    	al, bl
  === BLOCK LINK ===
    0x136e
=== CODE BLOCK END ===

=== CODE BLOCK ADDRESS 0x1378 ===
  0x1378	jne    	0x1383
  === BLOCK LINK ===
    0x137a
    0x1383
=== CODE BLOCK END ===

=== CODE BLOCK ADDRESS 0x137a ===
  0x137a	cmp    	word ptr [ebp + 0x138], bx
  0x1381	je     	0x13c7
  === BLOCK LINK ===
    0x1383
    0x13c7
=== CODE BLOCK END ===

=== CODE BLOCK ADDRESS 0x1383 ===
  0x1383	dec    	eax
  0x1384	mov    	eax, dword ptr [edi]
  0x1386	inc    	ecx
  0x1387	mov    	ecx, 3
  0x138c	inc    	ebp
  === BLOCK LINK ===
    0x138d
=== CODE BLOCK END ===

=== CODE BLOCK ADDRESS 0x138d ===
  0x138d	xor    	eax, eax
  0x138f	mov    	edx, 0xbbb
  0x1394	dec    	eax
  0x1395	mov    	ecx, edi
  0x1397	dec    	eax
  === BLOCK LINK ===
    0x1398
=== CODE BLOCK END ===

=== CODE BLOCK ADDRESS 0x1398 ===
  0x1398	mov    	eax, dword ptr [eax + 0x20]
  0x139b	call   	dword ptr [0x203f]
  === BLOCK LINK ===
    0x13a1
=== CODE BLOCK END ===

=== CODE BLOCK ADDRESS 0x13a1 ===
  0x13a1	inc    	esp
  0x13a2	movzx  	ecx, word ptr [ebp + 0x138]
  0x13a9	dec    	eax
  0x13aa	lea    	edx, [0x20a8]
  0x13b0	inc    	esp
  === BLOCK LINK ===
    0x13b1
=== CODE BLOCK END ===

=== CODE BLOCK ADDRESS 0x13b1 ===
  0x13b1	movzx  	eax, word ptr [ebp + 0x13a]
  0x13b8	dec    	eax
  0x13b9	mov    	ecx, edi
  0x13bb	dec    	eax
  0x13bc	call   	dword ptr [0x1efe]
  === BLOCK LINK ===
    0x13c2
=== CODE BLOCK END ===

=== CODE BLOCK ADDRESS 0x13c2 ===
  0x13c2	nop    	dword ptr [eax + eax]
  === BLOCK LINK ===
    0x13c7
=== CODE BLOCK END ===

=== CODE BLOCK ADDRESS 0x13d1 ===
  0x13d1	dec    	eax
  0x13d2	lea    	ecx, [ebp + 0xa8]
  0x13d8	inc    	ecx
  0x13d9	mov    	esi, 0xbbc
  0x13de	dec    	eax
  === BLOCK LINK ===
    0x13df
=== CODE BLOCK END ===

=== CODE BLOCK ADDRESS 0x13df ===
  0x13df	call   	dword ptr [0x1f13]
  === BLOCK LINK ===
    0x13e5
=== CODE BLOCK END ===

=== CODE BLOCK ADDRESS 0x13e5 ===
  0x13e5	nop    	dword ptr [eax + eax]
  0x13ea	test   	al, al
  0x13ec	je     	0x154f
  === BLOCK LINK ===
    0x13f2
    0x154f
=== CODE BLOCK END ===

=== CODE BLOCK ADDRESS 0x13f2 ===
  0x13f2	inc    	esp
  0x13f3	mov    	ecx, esi
  0x13f5	dec    	eax
  0x13f6	lea    	ecx, [ebp + 0x18]
  0x13f9	inc    	ebp
  === BLOCK LINK ===
    0x13fa
=== CODE BLOCK END ===

=== CODE BLOCK ADDRESS 0x13fa ===
  0x13fa	xor    	eax, eax
  0x13fc	dec    	ecx
  0x13fd	mov    	edx, esp
  0x13ff	dec    	eax
  0x1400	call   	dword ptr [0x1ee2]
  === BLOCK LINK ===
    0x1406
=== CODE BLOCK END ===

=== CODE BLOCK ADDRESS 0x1406 ===
  0x1406	nop    	dword ptr [eax + eax]
  0x140b	test   	al, al
  0x140d	je     	0x154f
  === BLOCK LINK ===
    0x1413
    0x154f
=== CODE BLOCK END ===

=== CODE BLOCK ADDRESS 0x1413 ===
  0x1413	dec    	eax
  0x1414	lea    	edx, [ebp + 0xa8]
  0x141a	dec    	eax
  0x141b	lea    	ecx, [ebp + 0x18]
  0x141e	dec    	eax
  === BLOCK LINK ===
    0x141f
=== CODE BLOCK END ===

=== CODE BLOCK ADDRESS 0x141f ===
  0x141f	call   	dword ptr [0x1eab]
  === BLOCK LINK ===
    0x1425
=== CODE BLOCK END ===

=== CODE BLOCK ADDRESS 0x1425 ===
  0x1425	nop    	dword ptr [eax + eax]
  0x142a	test   	al, al
  0x142c	je     	0x154f
  === BLOCK LINK ===
    0x1432
    0x154f
=== CODE BLOCK END ===

=== CODE BLOCK ADDRESS 0x1432 ===
  0x1432	inc    	esp
  0x1433	mov    	eax, esi
  0x1435	dec    	eax
  0x1436	lea    	edx, [0x2028]
  0x143c	dec    	eax
  === BLOCK LINK ===
    0x143d
=== CODE BLOCK END ===

=== CODE BLOCK ADDRESS 0x143d ===
  0x143d	lea    	ecx, [ebp + 0x78]
  0x1440	dec    	eax
  0x1441	call   	dword ptr [0x1eb1]
  === BLOCK LINK ===
    0x1447
=== CODE BLOCK END ===

=== CODE BLOCK ADDRESS 0x1447 ===
  0x1447	nop    	dword ptr [eax + eax]
  0x144c	test   	al, al
  0x144e	je     	0x154f
  === BLOCK LINK ===
    0x1454
    0x154f
=== CODE BLOCK END ===

=== CODE BLOCK ADDRESS 0x1454 ===
  0x1454	inc    	esp
  0x1455	mov    	eax, esi
  0x1457	dec    	eax
  0x1458	lea    	edx, [0x200e]
  0x145e	dec    	eax
  === BLOCK LINK ===
    0x145f
=== CODE BLOCK END ===

=== CODE BLOCK ADDRESS 0x145f ===
  0x145f	lea    	ecx, [ebp + 0x48]
  0x1462	dec    	eax
  0x1463	call   	dword ptr [0x1e8f]
  === BLOCK LINK ===
    0x1469
=== CODE BLOCK END ===

=== CODE BLOCK ADDRESS 0x1469 ===
  0x1469	nop    	dword ptr [eax + eax]
  0x146e	test   	al, al
  0x1470	je     	0x154f
  === BLOCK LINK ===
    0x1476
    0x154f
=== CODE BLOCK END ===

=== CODE BLOCK ADDRESS 0x1476 ===
  0x1476	mov    	byte ptr [esp + 0x28], 1
  0x147b	dec    	eax
  0x147c	lea    	ecx, [ebp + 0x18]
  0x147f	inc    	ebp
  0x1480	xor    	ecx, ecx
  === BLOCK LINK ===
    0x1482
=== CODE BLOCK END ===

=== CODE BLOCK ADDRESS 0x1482 ===
  0x1482	mov    	dword ptr [esp + 0x20], ebx
  0x1486	inc    	esp
  0x1487	mov    	eax, esi
  0x1489	xor    	edx, edx
  0x148b	dec    	eax
  === BLOCK LINK ===
    0x148c
=== CODE BLOCK END ===

=== CODE BLOCK ADDRESS 0x148c ===
  0x148c	call   	dword ptr [0x1e46]
  === BLOCK LINK ===
    0x1492
=== CODE BLOCK END ===

=== CODE BLOCK ADDRESS 0x1492 ===
  0x1492	nop    	dword ptr [eax + eax]
  0x1497	dec    	eax
  0x1498	mov    	esi, eax
  0x149a	dec    	eax
  0x149b	test   	eax, eax
  === BLOCK LINK ===
    0x149d
=== CODE BLOCK END ===

=== CODE BLOCK ADDRESS 0x149d ===
  0x149d	je     	0x154f
  === BLOCK LINK ===
    0x14a3
    0x154f
=== CODE BLOCK END ===

=== CODE BLOCK ADDRESS 0x14a3 ===
  0x14a3	mov    	dword ptr [esp + 0x38], 0x28
  0x14ab	dec    	eax
  0x14ac	lea    	eax, [ebp + 0x550]
  0x14b2	dec    	eax
  0x14b3	mov    	dword ptr [esp + 0x30], eax
  === BLOCK LINK ===
    0x14b7
=== CODE BLOCK END ===

=== CODE BLOCK ADDRESS 0x14b7 ===
  0x14b7	inc    	ebp
  0x14b8	xor    	ecx, ecx
  0x14ba	dec    	eax
  0x14bb	mov    	dword ptr [esp + 0x28], ebx
  0x14bf	inc    	ebp
  === BLOCK LINK ===
    0x14c0
=== CODE BLOCK END ===

=== CODE BLOCK ADDRESS 0x14c0 ===
  0x14c0	xor    	eax, eax
  0x14c2	xor    	edx, edx
  0x14c4	dec    	eax
  0x14c5	mov    	dword ptr [esp + 0x20], ebx
  0x14c9	dec    	eax
  === BLOCK LINK ===
    0x14ca
=== CODE BLOCK END ===

=== CODE BLOCK ADDRESS 0x14ca ===
  0x14ca	mov    	ecx, esi
  0x14cc	dec    	eax
  0x14cd	call   	dword ptr [0x1cbd]
  === BLOCK LINK ===
    0x14d3
=== CODE BLOCK END ===

=== CODE BLOCK ADDRESS 0x14d3 ===
  0x14d3	nop    	dword ptr [eax + eax]
  0x14d8	test   	eax, eax
  0x14da	je     	0x1531
  === BLOCK LINK ===
    0x14dc
    0x1531
=== CODE BLOCK END ===

=== CODE BLOCK ADDRESS 0x14dc ===
  0x14dc	inc    	ecx
  0x14dd	or     	eax, 0xffffffff
  0x14e0	dec    	eax
  0x14e1	lea    	edx, [ebp + 0x550]
  0x14e7	dec    	eax
  === BLOCK LINK ===
    0x14e8
=== CODE BLOCK END ===

=== CODE BLOCK ADDRESS 0x14e8 ===
  0x14e8	lea    	ecx, [ebp - 0x18]
  0x14eb	dec    	eax
  0x14ec	call   	dword ptr [0x1dfe]
  === BLOCK LINK ===
    0x14f2
=== CODE BLOCK END ===

=== CODE BLOCK ADDRESS 0x14f2 ===
  0x14f2	nop    	dword ptr [eax + eax]
  0x14f7	test   	al, al
  0x14f9	je     	0x1531
  === BLOCK LINK ===
    0x14fb
=== CODE BLOCK END ===

=== CODE BLOCK ADDRESS 0x14fb ===
  0x14fb	dec    	eax
  0x14fc	lea    	edx, [ebp + 0x78]
  0x14ff	dec    	eax
  0x1500	lea    	ecx, [ebp - 0x18]
  0x1503	dec    	eax
  === BLOCK LINK ===
    0x1504
=== CODE BLOCK END ===

=== CODE BLOCK ADDRESS 0x1504 ===
  0x1504	call   	dword ptr [0x1dfe]
  === BLOCK LINK ===
    0x150a
=== CODE BLOCK END ===

=== CODE BLOCK ADDRESS 0x150a ===
  0x150a	nop    	dword ptr [eax + eax]
  0x150f	test   	eax, eax
  0x1511	je     	0x152b
  === BLOCK LINK ===
    0x1513
=== CODE BLOCK END ===

=== CODE BLOCK ADDRESS 0x1513 ===
  0x1513	dec    	eax
  0x1514	lea    	edx, [ebp + 0x48]
  0x1517	dec    	eax
  0x1518	lea    	ecx, [ebp - 0x18]
  0x151b	dec    	eax
  === BLOCK LINK ===
    0x151c
=== CODE BLOCK END ===

=== CODE BLOCK ADDRESS 0x151c ===
  0x151c	call   	dword ptr [0x1de6]
  === BLOCK LINK ===
    0x1522
=== CODE BLOCK END ===

=== CODE BLOCK ADDRESS 0x1522 ===
  0x1522	nop    	dword ptr [eax + eax]
  0x1527	test   	eax, eax
  0x1529	jne    	0x1531
  === BLOCK LINK ===
    0x152b
=== CODE BLOCK END ===

=== CODE BLOCK ADDRESS 0x152b ===
  0x152b	inc    	ecx
  0x152c	mov    	esi, 0xbd9
  === BLOCK LINK ===
    0x1531
=== CODE BLOCK END ===

=== CODE BLOCK ADDRESS 0x153b ===
  0x153b	mov    	eax, esi
  0x153d	xor    	edx, edx
  0x153f	dec    	eax
  0x1540	mov    	ecx, dword ptr [ecx + 0x30]
  0x1543	dec    	eax
  === BLOCK LINK ===
    0x1544
=== CODE BLOCK END ===

=== CODE BLOCK ADDRESS 0x1544 ===
  0x1544	call   	dword ptr [0x1cfe]
  === BLOCK LINK ===
    0x154a
=== CODE BLOCK END ===

=== CODE BLOCK ADDRESS 0x154a ===
  0x154a	nop    	dword ptr [eax + eax]
  === BLOCK LINK ===
    0x154f
=== CODE BLOCK END ===

=== CODE BLOCK ADDRESS 0x1558 ===
  0x1558	inc    	ecx
  0x1559	mov    	edx, esi
  0x155b	dec    	eax
  0x155c	mov    	ecx, edi
  0x155e	dec    	eax
  === BLOCK LINK ===
    0x155f
=== CODE BLOCK END ===

=== CODE BLOCK ADDRESS 0x155f ===
  0x155f	mov    	eax, dword ptr [eax + 0x20]
  0x1562	inc    	ebp
  0x1563	lea    	eax, [ecx - 2]
  0x1566	call   	dword ptr [0x1e74]
  === BLOCK LINK ===
    0x156c
=== CODE BLOCK END ===

=== CODE BLOCK ADDRESS 0x156c ===
  0x156c	dec    	eax
  0x156d	lea    	edx, [0x1ecd]
  0x1573	dec    	eax
  0x1574	mov    	ecx, edi
  0x1576	dec    	eax
  === BLOCK LINK ===
    0x1577
=== CODE BLOCK END ===

=== CODE BLOCK ADDRESS 0x1577 ===
  0x1577	call   	dword ptr [0x1d43]
  === BLOCK LINK ===
    0x157d
=== CODE BLOCK END ===

=== CODE BLOCK ADDRESS 0x157d ===
  0x157d	nop    	dword ptr [eax + eax]
  0x1582	dec    	eax
  0x1583	mov    	eax, dword ptr [edi]
  0x1585	dec    	ecx
  0x1586	mov    	edx, ebp
  === BLOCK LINK ===
    0x1588
=== CODE BLOCK END ===

=== CODE BLOCK ADDRESS 0x1588 ===
  0x1588	dec    	eax
  0x1589	mov    	ecx, edi
  0x158b	dec    	eax
  0x158c	mov    	eax, dword ptr [eax + 0x38]
  0x158f	call   	dword ptr [0x1e4b]
  === BLOCK LINK ===
    0x1595
=== CODE BLOCK END ===

=== CODE BLOCK ADDRESS 0x1595 ===
  0x1595	mov    	bl, al
  === BLOCK LINK ===
    0x1597
=== CODE BLOCK END ===

=== CODE BLOCK ADDRESS 0x15a2 ===
  0x15a2	nop    	dword ptr [eax + eax]
  0x15a7	dec    	eax
  0x15a8	lea    	ecx, [ebp + 0x78]
  0x15ab	dec    	eax
  0x15ac	call   	dword ptr [0x1dfe]
  === BLOCK LINK ===
    0x15b2
=== CODE BLOCK END ===

=== CODE BLOCK ADDRESS 0x15b2 ===
  0x15b2	nop    	dword ptr [eax + eax]
  0x15b7	dec    	eax
  0x15b8	lea    	ecx, [ebp - 0x18]
  0x15bb	dec    	eax
  0x15bc	call   	dword ptr [0x1dee]
  === BLOCK LINK ===
    0x15c2
=== CODE BLOCK END ===

=== CODE BLOCK ADDRESS 0x15c2 ===
  0x15c2	nop    	dword ptr [eax + eax]
  0x15c7	dec    	eax
  0x15c8	lea    	ecx, [ebp + 0xa8]
  0x15ce	dec    	eax
  0x15cf	call   	dword ptr [0x1ddb]
  === BLOCK LINK ===
    0x15d5
=== CODE BLOCK END ===

=== CODE BLOCK ADDRESS 0x15d5 ===
  0x15d5	nop    	dword ptr [eax + eax]
  0x15da	dec    	eax
  0x15db	lea    	ecx, [ebp + 0x18]
  0x15de	dec    	eax
  0x15df	call   	dword ptr [0x1dcb]
  === BLOCK LINK ===
    0x15e5
=== CODE BLOCK END ===

=== CODE BLOCK ADDRESS 0x15e5 ===
  0x15e5	nop    	dword ptr [eax + eax]
  0x15ea	dec    	eax
  0x15eb	lea    	ecx, [ebp + 0xd8]
  0x15f1	dec    	eax
  0x15f2	call   	dword ptr [0x1db8]
  === BLOCK LINK ===
    0x15f8
=== CODE BLOCK END ===

=== CODE BLOCK ADDRESS 0x15f8 ===
  0x15f8	nop    	dword ptr [eax + eax]
  0x15fd	mov    	al, bl
  0x15ff	dec    	eax
  0x1600	mov    	ecx, dword ptr [ebp + 0x5a0]
  0x1606	dec    	eax
  === BLOCK LINK ===
    0x1607
=== CODE BLOCK END ===

=== CODE BLOCK ADDRESS 0x1607 ===
  0x1607	xor    	ecx, esp
  0x1609	call   	0x2720
  === BLOCK LINK ===
    0x160e
=== CODE BLOCK END ===

=== CODE BLOCK ADDRESS 0x160e ===
  0x160e	dec    	eax
  0x160f	add    	esp, 0x6b8
  0x1615	inc    	ecx
  0x1616	pop    	edi
  0x1617	inc    	ecx
  === BLOCK LINK ===
    0x1618
=== CODE BLOCK END ===

=== CODE BLOCK ADDRESS 0x1618 ===
  0x1618	pop    	esi
  0x1619	inc    	ecx
  0x161a	pop    	ebp
  0x161b	inc    	ecx
  0x161c	pop    	esp
  === BLOCK LINK ===
    0x161d
=== CODE BLOCK END ===

=== CODE BLOCK ADDRESS 0x161d ===
  0x161d	pop    	edi
  0x161e	pop    	esi
  0x161f	pop    	ebx
  0x1620	pop    	ebp
  0x1621	ret    	
  === BLOCK LINK ===
    0x1622
=== CODE BLOCK END ===

=== CODE BLOCK ADDRESS 0x1622 ===
  0x1622	int3   	
  0x1623	int3   	
  0x1624	int3   	
  0x1625	int3   	
  0x1626	int3   	
  === BLOCK LINK ===
    0x1627
=== CODE BLOCK END ===

=== CODE BLOCK ADDRESS 0x1627 ===
  0x1627	int3   	
  0x1628	int3   	
  0x1629	int3   	
  0x162a	int3   	
  0x162b	int3   	
  === BLOCK LINK ===
    0x162c
=== CODE BLOCK END ===

=== CODE BLOCK ADDRESS 0x162c ===
  0x162c	dec    	eax
  0x162d	mov    	dword ptr [esp + 0x20], ebx
  0x1631	push   	ebp
  0x1632	push   	esi
  0x1633	push   	edi
  === BLOCK LINK ===
    0x1634
=== CODE BLOCK END ===

=== CODE BLOCK ADDRESS 0x1634 ===
  0x1634	inc    	ecx
  0x1635	push   	esi
  0x1636	inc    	ecx
  0x1637	push   	edi
  0x1638	dec    	eax
  === BLOCK LINK ===
    0x1639
=== CODE BLOCK END ===

=== CODE BLOCK ADDRESS 0x1639 ===
  0x1639	lea    	ebp, [esp - 0x420]
  0x1640	dec    	eax
  0x1641	sub    	esp, 0x520
  0x1647	dec    	eax
  0x1648	mov    	eax, dword ptr [0x39ba]
  === BLOCK LINK ===
    0x164e
=== CODE BLOCK END ===

=== CODE BLOCK ADDRESS 0x164e ===
  0x164e	dec    	eax
  0x164f	xor    	eax, esp
  0x1651	dec    	eax
  0x1652	mov    	dword ptr [ebp + 0x410], eax
  0x1658	dec    	eax
  === BLOCK LINK ===
    0x1659
=== CODE BLOCK END ===

=== CODE BLOCK ADDRESS 0x1659 ===
  0x1659	mov    	ebx, ecx
  0x165b	dec    	ecx
  0x165c	mov    	edi, eax
  0x165e	dec    	eax
  0x165f	lea    	ecx, [ebp - 0x58]
  === BLOCK LINK ===
    0x1662
=== CODE BLOCK END ===

=== CODE BLOCK ADDRESS 0x1662 ===
  0x1662	dec    	esp
  0x1663	mov    	esi, edx
  0x1665	dec    	eax
  0x1666	call   	dword ptr [0x1d3c]
  === BLOCK LINK ===
    0x166c
=== CODE BLOCK END ===

=== CODE BLOCK ADDRESS 0x166c ===
  0x166c	nop    	dword ptr [eax + eax]
  0x1671	dec    	eax
  0x1672	lea    	ecx, [esp + 0x48]
  0x1676	dec    	eax
  0x1677	call   	dword ptr [0x1d2b]
  === BLOCK LINK ===
    0x167d
=== CODE BLOCK END ===

=== CODE BLOCK ADDRESS 0x167d ===
  0x167d	nop    	dword ptr [eax + eax]
  0x1682	dec    	eax
  0x1683	lea    	edx, [esp + 0x48]
  0x1687	dec    	eax
  0x1688	mov    	ecx, ebx
  === BLOCK LINK ===
    0x168a
=== CODE BLOCK END ===

=== CODE BLOCK ADDRESS 0x168a ===
  0x168a	dec    	eax
  0x168b	call   	dword ptr [0x1a97]
  === BLOCK LINK ===
    0x1691
=== CODE BLOCK END ===

=== CODE BLOCK ADDRESS 0x1691 ===
  0x1691	nop    	dword ptr [eax + eax]
  0x1696	inc    	ecx
  0x1697	mov    	edi, 3
  0x169c	dec    	eax
  0x169d	lea    	ecx, [esp + 0x48]
  === BLOCK LINK ===
    0x16a1
=== CODE BLOCK END ===

=== CODE BLOCK ADDRESS 0x16a1 ===
  0x16a1	test   	al, al
  0x16a3	jne    	0x16bb
  === BLOCK LINK ===
    0x16a5
=== CODE BLOCK END ===

=== CODE BLOCK ADDRESS 0x16a5 ===
  0x16a5	mov    	ebx, 0xc0000017
  0x16aa	dec    	eax
  0x16ab	call   	dword ptr [0x1cff]
  === BLOCK LINK ===
    0x16b1
=== CODE BLOCK END ===

=== CODE BLOCK ADDRESS 0x16b1 ===
  0x16b1	nop    	dword ptr [eax + eax]
  0x16b6	jmp    	0x1768
  === BLOCK LINK ===
    0x16bb
=== CODE BLOCK END ===

=== CODE BLOCK ADDRESS 0x16bb ===
  0x16bb	inc    	eax
  0x16bc	mov    	dh, 1
  0x16be	inc    	ebp
  0x16bf	xor    	ecx, ecx
  0x16c1	inc    	eax
  === BLOCK LINK ===
    0x16c2
=== CODE BLOCK END ===

=== CODE BLOCK ADDRESS 0x16c2 ===
  0x16c2	mov    	byte ptr [esp + 0x28], dh
  0x16c6	inc    	ecx
  0x16c7	or     	eax, 0xffffffff
  0x16ca	and    	dword ptr [esp + 0x20], 0
  0x16cf	xor    	edx, edx
  === BLOCK LINK ===
    0x16d1
=== CODE BLOCK END ===

=== CODE BLOCK ADDRESS 0x16d1 ===
  0x16d1	dec    	eax
  0x16d2	call   	dword ptr [0x1c00]
  === BLOCK LINK ===
    0x16d8
=== CODE BLOCK END ===

=== CODE BLOCK ADDRESS 0x16d8 ===
  0x16d8	nop    	dword ptr [eax + eax]
  0x16dd	dec    	eax
  0x16de	mov    	dword ptr [esp + 0x40], eax
  0x16e2	dec    	eax
  0x16e3	test   	eax, eax
  === BLOCK LINK ===
    0x16e5
=== CODE BLOCK END ===

=== CODE BLOCK ADDRESS 0x16e5 ===
  0x16e5	jne    	0x16ee
  === BLOCK LINK ===
    0x16e7
=== CODE BLOCK END ===

=== CODE BLOCK ADDRESS 0x16e7 ===
  0x16e7	dec    	eax
  0x16e8	lea    	ecx, [esp + 0x48]
  0x16ec	jmp    	0x16a5
  === BLOCK LINK ===
    0x16ee
=== CODE BLOCK END ===

=== CODE BLOCK ADDRESS 0x16ee ===
  0x16ee	movzx  	eax, word ptr [esp + 0x60]
  0x16f3	dec    	esp
  0x16f4	lea    	ecx, [ebp - 0x28]
  0x16f7	dec    	eax
  0x16f8	and    	dword ptr [ebp - 0x80], 0
  === BLOCK LINK ===
    0x16fc
=== CODE BLOCK END ===

=== CODE BLOCK ADDRESS 0x16fc ===
  0x16fc	dec    	esp
  0x16fd	lea    	eax, [esp + 0x78]
  0x1701	add    	ax, ax
  0x1704	mov    	dword ptr [esp + 0x28], 0x12
  0x170c	mov    	word ptr [esp + 0x38], ax
  === BLOCK LINK ===
    0x1711
=== CODE BLOCK END ===

=== CODE BLOCK ADDRESS 0x1711 ===
  0x1711	dec    	eax
  0x1712	lea    	ecx, [esp + 0x30]
  0x1716	mov    	word ptr [esp + 0x3a], ax
  0x171b	xorps  	xmm0, xmm0
  0x171e	dec    	eax
  === BLOCK LINK ===
    0x171f
=== CODE BLOCK END ===

=== CODE BLOCK ADDRESS 0x171f ===
  0x171f	lea    	eax, [esp + 0x38]
  0x1723	mov    	dword ptr [esp + 0x78], 0x30
  0x172b	mov    	edx, 0x100003
  0x1730	dec    	eax
  0x1731	mov    	dword ptr [ebp - 0x78], eax
  === BLOCK LINK ===
    0x1734
=== CODE BLOCK END ===

=== CODE BLOCK ADDRESS 0x1734 ===
  0x1734	mov    	dword ptr [ebp - 0x70], 0x40
  0x173b	movdqu  	xmmword ptr [ebp - 0x68], xmm0
  0x1740	inc    	esp
  0x1741	mov    	dword ptr [esp + 0x20], edi
  0x1745	dec    	eax
  === BLOCK LINK ===
    0x1746
=== CODE BLOCK END ===

=== CODE BLOCK ADDRESS 0x1746 ===
  0x1746	call   	dword ptr [0x1ae4]
  === BLOCK LINK ===
    0x174c
=== CODE BLOCK END ===

=== CODE BLOCK ADDRESS 0x174c ===
  0x174c	nop    	dword ptr [eax + eax]
  0x1751	dec    	eax
  0x1752	lea    	ecx, [esp + 0x48]
  0x1756	mov    	ebx, eax
  0x1758	dec    	eax
  === BLOCK LINK ===
    0x1759
=== CODE BLOCK END ===

=== CODE BLOCK ADDRESS 0x1759 ===
  0x1759	call   	dword ptr [0x1c51]
  === BLOCK LINK ===
    0x175f
=== CODE BLOCK END ===

=== CODE BLOCK ADDRESS 0x175f ===
  0x175f	nop    	dword ptr [eax + eax]
  0x1764	test   	ebx, ebx
  0x1766	jns    	0x1794
  === BLOCK LINK ===
    0x1768
=== CODE BLOCK END ===

=== CODE BLOCK ADDRESS 0x1768 ===
  0x1768	dec    	eax
  0x1769	mov    	ecx, dword ptr [edi]
  0x176b	inc    	ebp
  0x176c	xor    	eax, eax
  0x176e	inc    	ebp
  === BLOCK LINK ===
    0x176f
=== CODE BLOCK END ===

=== CODE BLOCK ADDRESS 0x176f ===
  0x176f	mov    	ecx, edi
  0x1771	dec    	eax
  0x1772	mov    	eax, dword ptr [ecx + 0x20]
  0x1775	dec    	eax
  0x1776	mov    	ecx, edi
  === BLOCK LINK ===
    0x1778
=== CODE BLOCK END ===

=== CODE BLOCK ADDRESS 0x1778 ===
  0x1778	cmp    	ebx, 0xc0000022
  0x177e	jne    	0x178a
  === BLOCK LINK ===
    0x1780
=== CODE BLOCK END ===

=== CODE BLOCK ADDRESS 0x1780 ===
  0x1780	mov    	edx, 0xbd5
  0x1785	jmp    	0x18b5
  === BLOCK LINK ===
    0x178a
=== CODE BLOCK END ===

=== CODE BLOCK ADDRESS 0x178a ===
  0x178a	mov    	edx, 0x7f4
  0x178f	jmp    	0x18b5
  === BLOCK LINK ===
    0x1794
=== CODE BLOCK END ===

=== CODE BLOCK ADDRESS 0x1794 ===
  0x1794	inc    	ecx
  0x1795	or     	ecx, 0xffffffff
  0x1798	dec    	eax
  0x1799	lea    	ecx, [ebp - 0x58]
  0x179c	inc    	ebp
  === BLOCK LINK ===
    0x179d
=== CODE BLOCK END ===

=== CODE BLOCK ADDRESS 0x179d ===
  0x179d	xor    	eax, eax
  0x179f	dec    	ecx
  0x17a0	mov    	edx, esi
  0x17a2	dec    	eax
  0x17a3	call   	dword ptr [0x1b3f]
  === BLOCK LINK ===
    0x17a9
=== CODE BLOCK END ===

=== CODE BLOCK ADDRESS 0x17a9 ===
  0x17a9	nop    	dword ptr [eax + eax]
  0x17ae	test   	al, al
  0x17b0	je     	0x18d1
  === BLOCK LINK ===
    0x17b6
=== CODE BLOCK END ===

=== CODE BLOCK ADDRESS 0x17b6 ===
  0x17b6	inc    	eax
  0x17b7	mov    	byte ptr [esp + 0x28], dh
  0x17bb	dec    	esp
  0x17bc	lea    	ecx, [ebp + 4]
  0x17bf	inc    	ecx
  === BLOCK LINK ===
    0x17c0
=== CODE BLOCK END ===

=== CODE BLOCK ADDRESS 0x17c0 ===
  0x17c0	or     	eax, 0xffffffff
  0x17c3	mov    	dword ptr [esp + 0x20], 0x202
  0x17cb	xor    	edx, edx
  0x17cd	dec    	eax
  0x17ce	lea    	ecx, [ebp - 0x58]
  === BLOCK LINK ===
    0x17d1
=== CODE BLOCK END ===

=== CODE BLOCK ADDRESS 0x17d1 ===
  0x17d1	dec    	eax
  0x17d2	call   	dword ptr [0x1b00]
  === BLOCK LINK ===
    0x17d8
=== CODE BLOCK END ===

=== CODE BLOCK ADDRESS 0x17d8 ===
  0x17d8	nop    	dword ptr [eax + eax]
  0x17dd	dec    	eax
  0x17de	test   	eax, eax
  0x17e0	jne    	0x17ec
  === BLOCK LINK ===
    0x17e2
=== CODE BLOCK END ===

=== CODE BLOCK ADDRESS 0x17e2 ===
  0x17e2	mov    	edx, 0x7f4
  0x17e7	jmp    	0x18a5
  === BLOCK LINK ===
    0x17ec
=== CODE BLOCK END ===

=== CODE BLOCK ADDRESS 0x17ec ===
  0x17ec	mov    	eax, dword ptr [ebp - 0x40]
  0x17ef	dec    	esp
  0x17f0	lea    	eax, [ebp]
  0x17f3	dec    	eax
  0x17f4	mov    	ecx, dword ptr [esp + 0x30]
  === BLOCK LINK ===
    0x17f8
=== CODE BLOCK END ===

=== CODE BLOCK ADDRESS 0x17f8 ===
  0x17f8	dec    	eax
  0x17f9	lea    	edx, [ebp - 0x18]
  0x17fc	add    	eax, eax
  0x17fe	mov    	dword ptr [esp + 0x20], 2
  0x1806	inc    	ecx
  === BLOCK LINK ===
    0x1807
=== CODE BLOCK END ===

=== CODE BLOCK ADDRESS 0x1807 ===
  0x1807	mov    	ecx, 0x408
  0x180c	mov    	dword ptr [ebp], eax
  0x180f	dec    	eax
  0x1810	call   	dword ptr [0x1a22]
  === BLOCK LINK ===
    0x1816
=== CODE BLOCK END ===

=== CODE BLOCK ADDRESS 0x1816 ===
  0x1816	nop    	dword ptr [eax + eax]
  0x181b	test   	eax, eax
  0x181d	jns    	0x18d4
  === BLOCK LINK ===
    0x1823
=== CODE BLOCK END ===

=== CODE BLOCK ADDRESS 0x1823 ===
  0x1823	cmp    	eax, 0xc0000010
  0x1828	je     	0x18a0
  === BLOCK LINK ===
    0x182a
=== CODE BLOCK END ===

=== CODE BLOCK ADDRESS 0x182a ===
  0x182a	cmp    	eax, 0xc0000022
  0x182f	je     	0x1899
  === BLOCK LINK ===
    0x1831
=== CODE BLOCK END ===

=== CODE BLOCK ADDRESS 0x1831 ===
  0x1831	cmp    	eax, 0xc000007f
  0x1836	je     	0x1892
  === BLOCK LINK ===
    0x1838
=== CODE BLOCK END ===

=== CODE BLOCK ADDRESS 0x1838 ===
  0x1838	cmp    	eax, 0xc0000086
  0x183d	je     	0x188b
  === BLOCK LINK ===
    0x183f
=== CODE BLOCK END ===

=== CODE BLOCK ADDRESS 0x183f ===
  0x183f	cmp    	eax, 0xc00000a2
  0x1844	je     	0x1884
  === BLOCK LINK ===
    0x1846
=== CODE BLOCK END ===

=== CODE BLOCK ADDRESS 0x1846 ===
  0x1846	cmp    	eax, 0xc00000bb
  0x184b	je     	0x18a0
  === BLOCK LINK ===
    0x184d
=== CODE BLOCK END ===

=== CODE BLOCK ADDRESS 0x184d ===
  0x184d	dec    	esp
  0x184e	mov    	edx, dword ptr [edi]
  0x1850	inc    	ebp
  0x1851	xor    	eax, eax
  0x1853	inc    	ebp
  === BLOCK LINK ===
    0x1854
=== CODE BLOCK END ===

=== CODE BLOCK ADDRESS 0x1854 ===
  0x1854	mov    	ecx, edi
  0x1856	dec    	eax
  0x1857	mov    	ecx, edi
  0x1859	cmp    	eax, 0xc0000240
  0x185e	je     	0x1879
  === BLOCK LINK ===
    0x1860
=== CODE BLOCK END ===

=== CODE BLOCK ADDRESS 0x1860 ===
  0x1860	dec    	ebp
  0x1861	mov    	ebx, dword ptr [edx + 0x20]
  0x1864	cmp    	eax, 0xc00002ea
  0x1869	dec    	ecx
  0x186a	mov    	eax, ebx
  === BLOCK LINK ===
    0x186c
=== CODE BLOCK END ===

=== CODE BLOCK ADDRESS 0x186c ===
  0x186c	jne    	0x178a
  === BLOCK LINK ===
    0x1872
=== CODE BLOCK END ===

=== CODE BLOCK ADDRESS 0x1872 ===
  0x1872	mov    	edx, 0x177a
  0x1877	jmp    	0x18b5
  === BLOCK LINK ===
    0x1879
=== CODE BLOCK END ===

=== CODE BLOCK ADDRESS 0x1879 ===
  0x1879	dec    	ecx
  0x187a	mov    	eax, dword ptr [edx + 0x20]
  0x187d	mov    	edx, 0x177b
  0x1882	jmp    	0x18b5
  === BLOCK LINK ===
    0x1884
=== CODE BLOCK END ===

=== CODE BLOCK ADDRESS 0x1884 ===
  0x1884	mov    	edx, 0x1779
  0x1889	jmp    	0x18a5
  === BLOCK LINK ===
    0x188b
=== CODE BLOCK END ===

=== CODE BLOCK ADDRESS 0x188b ===
  0x188b	mov    	edx, 0xbd7
  0x1890	jmp    	0x18a5
  === BLOCK LINK ===
    0x1892
=== CODE BLOCK END ===

=== CODE BLOCK ADDRESS 0x1892 ===
  0x1892	mov    	edx, 0xbc2
  0x1897	jmp    	0x18a5
  === BLOCK LINK ===
    0x1899
=== CODE BLOCK END ===

=== CODE BLOCK ADDRESS 0x1899 ===
  0x1899	mov    	edx, 0xbd5
  0x189e	jmp    	0x18a5
  === BLOCK LINK ===
    0x18a0
=== CODE BLOCK END ===

=== CODE BLOCK ADDRESS 0x18a0 ===
  0x18a0	mov    	edx, 0x1776
  0x18a5	dec    	eax
  0x18a6	mov    	eax, dword ptr [edi]
  0x18a8	dec    	eax
  0x18a9	mov    	ecx, edi
  === BLOCK LINK ===
    0x18ab
=== CODE BLOCK END ===

=== CODE BLOCK ADDRESS 0x18ab ===
  0x18ab	inc    	ebp
  0x18ac	xor    	eax, eax
  0x18ae	inc    	ebp
  0x18af	mov    	ecx, edi
  0x18b1	dec    	eax
  === BLOCK LINK ===
    0x18b2
=== CODE BLOCK END ===

=== CODE BLOCK ADDRESS 0x18b2 ===
  0x18b2	mov    	eax, dword ptr [eax + 0x20]
  0x18b5	call   	dword ptr [0x1b25]
  === BLOCK LINK ===
    0x18bb
=== CODE BLOCK END ===

=== CODE BLOCK ADDRESS 0x18bb ===
  0x18bb	dec    	eax
  0x18bc	lea    	edx, [0x1b7e]
  0x18c2	dec    	eax
  0x18c3	mov    	ecx, edi
  0x18c5	dec    	eax
  === BLOCK LINK ===
    0x18c6
=== CODE BLOCK END ===

=== CODE BLOCK ADDRESS 0x18c6 ===
  0x18c6	call   	dword ptr [0x19f4]
  === BLOCK LINK ===
    0x18cc
=== CODE BLOCK END ===

=== CODE BLOCK ADDRESS 0x18cc ===
  0x18cc	nop    	dword ptr [eax + eax]
  0x18d1	inc    	eax
  0x18d2	xor    	dh, dh
  0x18d4	dec    	eax
  0x18d5	lea    	ecx, [ebp - 0x58]
  === BLOCK LINK ===
    0x18d8
=== CODE BLOCK END ===

=== CODE BLOCK ADDRESS 0x18d8 ===
  0x18d8	dec    	eax
  0x18d9	call   	dword ptr [0x1ad1]
  === BLOCK LINK ===
    0x18df
=== CODE BLOCK END ===

=== CODE BLOCK ADDRESS 0x18df ===
  0x18df	nop    	dword ptr [eax + eax]
  0x18e4	inc    	eax
  0x18e5	mov    	al, dh
  0x18e7	dec    	eax
  0x18e8	mov    	ecx, dword ptr [ebp + 0x410]
  === BLOCK LINK ===
    0x18ee
=== CODE BLOCK END ===

=== CODE BLOCK ADDRESS 0x18ee ===
  0x18ee	dec    	eax
  0x18ef	xor    	ecx, esp
  0x18f1	call   	0x2720
  === BLOCK LINK ===
    0x18f6
=== CODE BLOCK END ===

=== CODE BLOCK ADDRESS 0x18f6 ===
  0x18f6	dec    	eax
  0x18f7	mov    	ebx, dword ptr [esp + 0x568]
  0x18fe	dec    	eax
  0x18ff	add    	esp, 0x520
  0x1905	inc    	ecx
  === BLOCK LINK ===
    0x1906
=== CODE BLOCK END ===

=== CODE BLOCK ADDRESS 0x1906 ===
  0x1906	pop    	edi
  0x1907	inc    	ecx
  0x1908	pop    	esi
  0x1909	pop    	edi
  0x190a	pop    	esi
  === BLOCK LINK ===
    0x190b
=== CODE BLOCK END ===

=== CODE BLOCK ADDRESS 0x190b ===
  0x190b	pop    	ebp
  0x190c	ret    	
  0x190d	int3   	
  0x190e	int3   	
  0x190f	int3   	
  === BLOCK LINK ===
    0x1910
=== CODE BLOCK END ===

=== CODE BLOCK ADDRESS 0x1910 ===
  0x1910	int3   	
  0x1911	int3   	
  0x1912	int3   	
  0x1913	int3   	
  0x1914	dec    	eax
  === BLOCK LINK ===
    0x1915
=== CODE BLOCK END ===

=== CODE BLOCK ADDRESS 0x1915 ===
  0x1915	mov    	eax, esp
  0x1917	dec    	eax
  0x1918	mov    	dword ptr [eax + 8], ebx
  0x191b	dec    	eax
  0x191c	mov    	dword ptr [eax + 0x10], esi
  === BLOCK LINK ===
    0x191f
=== CODE BLOCK END ===

=== CODE BLOCK ADDRESS 0x191f ===
  0x191f	dec    	eax
  0x1920	mov    	dword ptr [eax + 0x18], edi
  0x1923	dec    	esp
  0x1924	mov    	dword ptr [eax + 0x20], esp
  0x1927	push   	ebp
  === BLOCK LINK ===
    0x1928
=== CODE BLOCK END ===

=== CODE BLOCK ADDRESS 0x1928 ===
  0x1928	inc    	ecx
  0x1929	push   	esi
  0x192a	inc    	ecx
  0x192b	push   	edi
  0x192c	dec    	eax
  === BLOCK LINK ===
    0x192d
=== CODE BLOCK END ===

=== CODE BLOCK ADDRESS 0x192d ===
  0x192d	lea    	ebp, [eax - 0x9a8]
  0x1933	dec    	eax
  0x1934	sub    	esp, 0xa90
  0x193a	dec    	eax
  0x193b	mov    	eax, dword ptr [0x36c7]
  === BLOCK LINK ===
    0x1941
=== CODE BLOCK END ===

=== CODE BLOCK ADDRESS 0x1941 ===
  0x1941	dec    	eax
  0x1942	xor    	eax, esp
  0x1944	dec    	eax
  0x1945	mov    	dword ptr [ebp + 0x980], eax
  0x194b	dec    	eax
  === BLOCK LINK ===
    0x194c
=== CODE BLOCK END ===

=== CODE BLOCK ADDRESS 0x194c ===
  0x194c	lea    	ecx, [ebp - 0x40]
  0x194f	dec    	eax
  0x1950	call   	dword ptr [0x1a0a]
  === BLOCK LINK ===
    0x1956
=== CODE BLOCK END ===

=== CODE BLOCK ADDRESS 0x1956 ===
  0x1956	nop    	dword ptr [eax + eax]
  0x195b	dec    	eax
  0x195c	lea    	ecx, [ebp + 0x2b0]
  0x1962	dec    	eax
  0x1963	call   	dword ptr [0x190f]
  === BLOCK LINK ===
    0x1969
=== CODE BLOCK END ===

=== CODE BLOCK ADDRESS 0x1969 ===
  0x1969	nop    	dword ptr [eax + eax]
  0x196e	dec    	eax
  0x196f	lea    	ecx, [ebp + 0xb0]
  0x1975	dec    	eax
  0x1976	call   	dword ptr [0x1a04]
  === BLOCK LINK ===
    0x197c
=== CODE BLOCK END ===

=== CODE BLOCK ADDRESS 0x197c ===
  0x197c	nop    	dword ptr [eax + eax]
  0x1981	dec    	eax
  0x1982	lea    	ecx, [ebp - 0x68]
  0x1985	dec    	eax
  0x1986	call   	dword ptr [0x19f4]
  === BLOCK LINK ===
    0x198c
=== CODE BLOCK END ===

=== CODE BLOCK ADDRESS 0x198c ===
  0x198c	nop    	dword ptr [eax + eax]
  0x1991	dec    	eax
  0x1992	lea    	ecx, [ebp + 0x250]
  0x1998	dec    	eax
  0x1999	call   	dword ptr [0x18f1]
  === BLOCK LINK ===
    0x199f
=== CODE BLOCK END ===

=== CODE BLOCK ADDRESS 0x199f ===
  0x199f	nop    	dword ptr [eax + eax]
  0x19a4	dec    	eax
  0x19a5	lea    	ecx, [ebp + 0x170]
  0x19ab	dec    	eax
  0x19ac	call   	dword ptr [0x196e]
  === BLOCK LINK ===
    0x19b2
=== CODE BLOCK END ===

=== CODE BLOCK ADDRESS 0x19b2 ===
  0x19b2	nop    	dword ptr [eax + eax]
  0x19b7	dec    	eax
  0x19b8	lea    	ecx, [ebp + 0x1f0]
  0x19be	dec    	eax
  0x19bf	call   	dword ptr [0x18e3]
  === BLOCK LINK ===
    0x19c5
=== CODE BLOCK END ===

=== CODE BLOCK ADDRESS 0x19c5 ===
  0x19c5	nop    	dword ptr [eax + eax]
  0x19ca	dec    	eax
  0x19cb	lea    	ecx, [ebp + 0x110]
  0x19d1	dec    	eax
  0x19d2	call   	dword ptr [0x18d0]
  === BLOCK LINK ===
    0x19d8
=== CODE BLOCK END ===

=== CODE BLOCK ADDRESS 0x19d8 ===
  0x19d8	nop    	dword ptr [eax + eax]
  0x19dd	dec    	eax
  0x19de	lea    	ecx, [esp + 0x68]
  0x19e2	dec    	eax
  0x19e3	call   	dword ptr [0x19bf]
  === BLOCK LINK ===
    0x19e9
=== CODE BLOCK END ===

=== CODE BLOCK ADDRESS 0x19e9 ===
  0x19e9	nop    	dword ptr [eax + eax]
  0x19ee	dec    	eax
  0x19ef	lea    	ecx, [esp + 0x38]
  0x19f3	dec    	eax
  0x19f4	call   	dword ptr [0x19ae]
  === BLOCK LINK ===
    0x19fa
=== CODE BLOCK END ===

=== CODE BLOCK ADDRESS 0x19fa ===
  0x19fa	nop    	dword ptr [eax + eax]
  0x19ff	xor    	esi, esi
  0x1a01	dec    	eax
  0x1a02	lea    	ecx, [ebp + 0x4c0]
  0x1a08	inc    	eax
  === BLOCK LINK ===
    0x1a09
=== CODE BLOCK END ===

=== CODE BLOCK ADDRESS 0x1a09 ===
  0x1a09	mov    	byte ptr [esp + 0x30], dh
  0x1a0d	dec    	eax
  0x1a0e	call   	dword ptr [0x18a4]
  === BLOCK LINK ===
    0x1a14
=== CODE BLOCK END ===

=== CODE BLOCK ADDRESS 0x1a14 ===
  0x1a14	nop    	dword ptr [eax + eax]
  0x1a19	dec    	eax
  0x1a1a	lea    	ecx, [ebp + 0x720]
  0x1a20	dec    	eax
  0x1a21	call   	dword ptr [0x1891]
  === BLOCK LINK ===
    0x1a27
=== CODE BLOCK END ===

=== CODE BLOCK ADDRESS 0x1a27 ===
  0x1a27	nop    	dword ptr [eax + eax]
  0x1a2c	dec    	eax
  0x1a2d	lea    	ecx, [ebp + 0xd8]
  0x1a33	dec    	eax
  0x1a34	call   	dword ptr [0x196e]
  === BLOCK LINK ===
    0x1a3a
=== CODE BLOCK END ===

=== CODE BLOCK ADDRESS 0x1a3a ===
  0x1a3a	nop    	dword ptr [eax + eax]
  0x1a3f	dec    	eax
  0x1a40	lea    	ecx, [ebp + 0x80]
  0x1a46	dec    	eax
  0x1a47	call   	dword ptr [0x195b]
  === BLOCK LINK ===
    0x1a4d
=== CODE BLOCK END ===

=== CODE BLOCK ADDRESS 0x1a4d ===
  0x1a4d	nop    	dword ptr [eax + eax]
  0x1a52	inc    	esp
  0x1a53	lea    	esi, [esi + 1]
  0x1a56	inc    	ebp
  0x1a57	xor    	ecx, ecx
  === BLOCK LINK ===
    0x1a59
=== CODE BLOCK END ===

=== CODE BLOCK ADDRESS 0x1a59 ===
  0x1a59	inc    	ecx
  0x1a5a	mov    	edx, esi
  0x1a5c	inc    	ebp
  0x1a5d	xor    	eax, eax
  0x1a5f	xor    	ecx, ecx
  === BLOCK LINK ===
    0x1a61
=== CODE BLOCK END ===

=== CODE BLOCK ADDRESS 0x1a61 ===
  0x1a61	dec    	eax
  0x1a62	call   	dword ptr [0x16f0]
  === BLOCK LINK ===
    0x1a68
=== CODE BLOCK END ===

=== CODE BLOCK ADDRESS 0x1a68 ===
  0x1a68	nop    	dword ptr [eax + eax]
  0x1a6d	dec    	eax
  0x1a6e	call   	dword ptr [0x18e4]
  === BLOCK LINK ===
    0x1a74
=== CODE BLOCK END ===

=== CODE BLOCK ADDRESS 0x1a74 ===
  0x1a74	nop    	dword ptr [eax + eax]
  0x1a79	dec    	eax
  0x1a7a	mov    	edi, eax
  0x1a7c	dec    	eax
  0x1a7d	call   	dword ptr [0x191d]
  === BLOCK LINK ===
    0x1a83
=== CODE BLOCK END ===

=== CODE BLOCK ADDRESS 0x1a83 ===
  0x1a83	nop    	dword ptr [eax + eax]
  0x1a88	dec    	eax
  0x1a89	mov    	ebx, eax
  0x1a8b	dec    	eax
  0x1a8c	call   	dword ptr [0x18e6]
  === BLOCK LINK ===
    0x1a92
=== CODE BLOCK END ===

=== CODE BLOCK ADDRESS 0x1a92 ===
  0x1a92	nop    	dword ptr [eax + eax]
  0x1a97	dec    	esp
  0x1a98	mov    	ecx, edi
  0x1a9a	dec    	eax
  0x1a9b	lea    	ecx, [ebp - 0x40]
  === BLOCK LINK ===
    0x1a9e
=== CODE BLOCK END ===

=== CODE BLOCK ADDRESS 0x1a9e ===
  0x1a9e	dec    	eax
  0x1a9f	mov    	edx, eax
  0x1aa1	dec    	esp
  0x1aa2	mov    	eax, ebx
  0x1aa4	dec    	eax
  === BLOCK LINK ===
    0x1aa5
=== CODE BLOCK END ===

=== CODE BLOCK ADDRESS 0x1aa5 ===
  0x1aa5	call   	dword ptr [0x18c5]
  === BLOCK LINK ===
    0x1aab
=== CODE BLOCK END ===

=== CODE BLOCK ADDRESS 0x1aab ===
  0x1aab	nop    	dword ptr [eax + eax]
  0x1ab0	test   	al, al
  0x1ab2	je     	0x1cb0
  === BLOCK LINK ===
    0x1ab8
=== CODE BLOCK END ===

=== CODE BLOCK ADDRESS 0x1ab8 ===
  0x1ab8	lea    	ebx, [esi + 0x19]
  0x1abb	lea    	edi, [esi + 0x32]
  0x1abe	inc    	esp
  0x1abf	mov    	eax, ebx
  0x1ac1	mov    	edx, edi
  === BLOCK LINK ===
    0x1ac3
=== CODE BLOCK END ===

=== CODE BLOCK ADDRESS 0x1ac3 ===
  0x1ac3	dec    	eax
  0x1ac4	lea    	ecx, [ebp + 0xb0]
  0x1aca	dec    	eax
  0x1acb	call   	dword ptr [0x18bf]
  === BLOCK LINK ===
    0x1ad1
=== CODE BLOCK END ===

=== CODE BLOCK ADDRESS 0x1ad1 ===
  0x1ad1	nop    	dword ptr [eax + eax]
  0x1ad6	test   	al, al
  0x1ad8	je     	0x1cb0
  === BLOCK LINK ===
    0x1ade
=== CODE BLOCK END ===

=== CODE BLOCK ADDRESS 0x1ade ===
  0x1ade	inc    	esp
  0x1adf	mov    	eax, ebx
  0x1ae1	dec    	eax
  0x1ae2	lea    	ecx, [ebp - 0x68]
  0x1ae5	mov    	edx, edi
  === BLOCK LINK ===
    0x1ae7
=== CODE BLOCK END ===

=== CODE BLOCK ADDRESS 0x1ae7 ===
  0x1ae7	dec    	eax
  0x1ae8	call   	dword ptr [0x18a2]
  === BLOCK LINK ===
    0x1aee
=== CODE BLOCK END ===

=== CODE BLOCK ADDRESS 0x1aee ===
  0x1aee	nop    	dword ptr [eax + eax]
  0x1af3	test   	al, al
  0x1af5	je     	0x1cb0
  === BLOCK LINK ===
    0x1afb
=== CODE BLOCK END ===

=== CODE BLOCK ADDRESS 0x1afb ===
  0x1afb	dec    	eax
  0x1afc	lea    	edx, [ebp + 0xb0]
  0x1b02	dec    	eax
  0x1b03	lea    	ecx, [ebp + 0x2b0]
  0x1b09	dec    	eax
  === BLOCK LINK ===
    0x1b0a
=== CODE BLOCK END ===

=== CODE BLOCK ADDRESS 0x1b0a ===
  0x1b0a	call   	dword ptr [0x1758]
  === BLOCK LINK ===
    0x1b10
=== CODE BLOCK END ===

=== CODE BLOCK ADDRESS 0x1b10 ===
  0x1b10	nop    	dword ptr [eax + eax]
  0x1b15	test   	al, al
  0x1b17	je     	0x1cb0
  === BLOCK LINK ===
    0x1b1d
=== CODE BLOCK END ===

=== CODE BLOCK ADDRESS 0x1b1d ===
  0x1b1d	xor    	edx, edx
  0x1b1f	dec    	eax
  0x1b20	lea    	ecx, [ebp + 0x2b0]
  0x1b26	dec    	eax
  0x1b27	call   	dword ptr [0x180b]
  === BLOCK LINK ===
    0x1b2d
=== CODE BLOCK END ===

=== CODE BLOCK ADDRESS 0x1b2d ===
  0x1b2d	nop    	dword ptr [eax + eax]
  0x1b32	xor    	edx, edx
  0x1b34	dec    	eax
  0x1b35	lea    	ecx, [ebp + 0x2b0]
  0x1b3b	dec    	eax
  === BLOCK LINK ===
    0x1b3c
=== CODE BLOCK END ===

=== CODE BLOCK ADDRESS 0x1b3c ===
  0x1b3c	call   	dword ptr [0x17ee]
  === BLOCK LINK ===
    0x1b42
=== CODE BLOCK END ===

=== CODE BLOCK ADDRESS 0x1b42 ===
  0x1b42	nop    	dword ptr [eax + eax]
  0x1b47	test   	al, al
  0x1b49	je     	0x1cb0
  === BLOCK LINK ===
    0x1b4f
=== CODE BLOCK END ===

=== CODE BLOCK ADDRESS 0x1b4f ===
  0x1b4f	dec    	eax
  0x1b50	lea    	edx, [0x191e]
  0x1b56	dec    	eax
  0x1b57	lea    	ecx, [ebp + 0x250]
  0x1b5d	dec    	eax
  === BLOCK LINK ===
    0x1b5e
=== CODE BLOCK END ===

=== CODE BLOCK ADDRESS 0x1b5e ===
  0x1b5e	call   	dword ptr [0x171c]
  === BLOCK LINK ===
    0x1b64
=== CODE BLOCK END ===

=== CODE BLOCK ADDRESS 0x1b64 ===
  0x1b64	nop    	dword ptr [eax + eax]
  0x1b69	test   	al, al
  0x1b6b	je     	0x1cb0
  === BLOCK LINK ===
    0x1b71
=== CODE BLOCK END ===

=== CODE BLOCK ADDRESS 0x1b71 ===
  0x1b71	dec    	eax
  0x1b72	lea    	edx, [0x1900]
  0x1b78	dec    	eax
  0x1b79	lea    	ecx, [ebp + 0x1f0]
  0x1b7f	dec    	eax
  === BLOCK LINK ===
    0x1b80
=== CODE BLOCK END ===

=== CODE BLOCK ADDRESS 0x1b80 ===
  0x1b80	call   	dword ptr [0x1792]
  === BLOCK LINK ===
    0x1b86
=== CODE BLOCK END ===

=== CODE BLOCK ADDRESS 0x1b86 ===
  0x1b86	nop    	dword ptr [eax + eax]
  0x1b8b	test   	al, al
  0x1b8d	je     	0x1cb0
  === BLOCK LINK ===
    0x1b93
=== CODE BLOCK END ===

=== CODE BLOCK ADDRESS 0x1b93 ===
  0x1b93	dec    	eax
  0x1b94	lea    	edx, [0x18e2]
  0x1b9a	dec    	eax
  0x1b9b	lea    	ecx, [ebp + 0x110]
  0x1ba1	dec    	eax
  === BLOCK LINK ===
    0x1ba2
=== CODE BLOCK END ===

=== CODE BLOCK ADDRESS 0x1ba2 ===
  0x1ba2	call   	dword ptr [0x1770]
  === BLOCK LINK ===
    0x1ba8
=== CODE BLOCK END ===

=== CODE BLOCK ADDRESS 0x1ba8 ===
  0x1ba8	nop    	dword ptr [eax + eax]
  0x1bad	test   	al, al
  0x1baf	je     	0x1cb0
  === BLOCK LINK ===
    0x1bb5
=== CODE BLOCK END ===

=== CODE BLOCK ADDRESS 0x1bb5 ===
  0x1bb5	dec    	eax
  0x1bb6	lea    	ecx, [ebp + 0x170]
  0x1bbc	dec    	eax
  0x1bbd	call   	dword ptr [0x1765]
  === BLOCK LINK ===
    0x1bc3
=== CODE BLOCK END ===

=== CODE BLOCK ADDRESS 0x1bc3 ===
  0x1bc3	nop    	dword ptr [eax + eax]
  0x1bc8	test   	al, al
  0x1bca	je     	0x1cb0
  === BLOCK LINK ===
    0x1bd0
=== CODE BLOCK END ===

=== CODE BLOCK ADDRESS 0x1bd0 ===
  0x1bd0	dec    	eax
  0x1bd1	lea    	edx, [ebp + 0x250]
  0x1bd7	dec    	eax
  0x1bd8	lea    	ecx, [ebp - 0x68]
  0x1bdb	dec    	eax
  === BLOCK LINK ===
    0x1bdc
=== CODE BLOCK END ===

=== CODE BLOCK ADDRESS 0x1bdc ===
  0x1bdc	call   	dword ptr [0x17b6]
  === BLOCK LINK ===
    0x1be2
=== CODE BLOCK END ===

=== CODE BLOCK ADDRESS 0x1be2 ===
  0x1be2	nop    	dword ptr [eax + eax]
  0x1be7	test   	al, al
  0x1be9	je     	0x1cb0
  === BLOCK LINK ===
    0x1bef
=== CODE BLOCK END ===

=== CODE BLOCK ADDRESS 0x1bef ===
  0x1bef	dec    	eax
  0x1bf0	lea    	edx, [ebp + 0x1f0]
  0x1bf6	dec    	eax
  0x1bf7	lea    	ecx, [ebp - 0x68]
  0x1bfa	dec    	eax
  === BLOCK LINK ===
    0x1bfb
=== CODE BLOCK END ===

=== CODE BLOCK ADDRESS 0x1bfb ===
  0x1bfb	call   	dword ptr [0x1797]
  === BLOCK LINK ===
    0x1c01
=== CODE BLOCK END ===

=== CODE BLOCK ADDRESS 0x1c01 ===
  0x1c01	nop    	dword ptr [eax + eax]
  0x1c06	test   	al, al
  0x1c08	je     	0x1cb0
  === BLOCK LINK ===
    0x1c0e
=== CODE BLOCK END ===

=== CODE BLOCK ADDRESS 0x1c0e ===
  0x1c0e	dec    	eax
  0x1c0f	lea    	edx, [ebp + 0x110]
  0x1c15	dec    	eax
  0x1c16	lea    	ecx, [ebp - 0x68]
  0x1c19	dec    	eax
  === BLOCK LINK ===
    0x1c1a
=== CODE BLOCK END ===

=== CODE BLOCK ADDRESS 0x1c1a ===
  0x1c1a	call   	dword ptr [0x1778]
  === BLOCK LINK ===
    0x1c20
=== CODE BLOCK END ===

=== CODE BLOCK ADDRESS 0x1c20 ===
  0x1c20	nop    	dword ptr [eax + eax]
  0x1c25	test   	al, al
  0x1c27	je     	0x1cb0
  === BLOCK LINK ===
    0x1c2d
=== CODE BLOCK END ===

=== CODE BLOCK ADDRESS 0x1c2d ===
  0x1c2d	dec    	eax
  0x1c2e	lea    	edx, [ebp + 0x170]
  0x1c34	dec    	eax
  0x1c35	lea    	ecx, [ebp - 0x68]
  0x1c38	dec    	eax
  === BLOCK LINK ===
    0x1c39
=== CODE BLOCK END ===

=== CODE BLOCK ADDRESS 0x1c39 ===
  0x1c39	call   	dword ptr [0x1759]
  === BLOCK LINK ===
    0x1c3f
=== CODE BLOCK END ===

=== CODE BLOCK ADDRESS 0x1c3f ===
  0x1c3f	nop    	dword ptr [eax + eax]
  0x1c44	test   	al, al
  0x1c46	je     	0x1cb0
  === BLOCK LINK ===
    0x1c48
=== CODE BLOCK END ===

=== CODE BLOCK ADDRESS 0x1c48 ===
  0x1c48	dec    	eax
  0x1c49	lea    	edx, [ebp - 0x68]
  0x1c4c	dec    	eax
  0x1c4d	lea    	ecx, [ebp + 0x2b0]
  0x1c53	dec    	eax
  === BLOCK LINK ===
    0x1c54
=== CODE BLOCK END ===

=== CODE BLOCK ADDRESS 0x1c54 ===
  0x1c54	call   	dword ptr [0x1606]
  === BLOCK LINK ===
    0x1c5a
=== CODE BLOCK END ===

=== CODE BLOCK ADDRESS 0x1c5a ===
  0x1c5a	nop    	dword ptr [eax + eax]
  0x1c5f	test   	al, al
  0x1c61	jne    	0x1e38
  === BLOCK LINK ===
    0x1c67
=== CODE BLOCK END ===

=== CODE BLOCK ADDRESS 0x1c67 ===
  0x1c67	inc    	esp
  0x1c68	lea    	ecx, [esi + 3]
  0x1c6b	inc    	ebp
  0x1c6c	xor    	eax, eax
  0x1c6e	mov    	edx, 0xbd2
  === BLOCK LINK ===
    0x1c73
=== CODE BLOCK END ===

=== CODE BLOCK ADDRESS 0x1c73 ===
  0x1c73	dec    	eax
  0x1c74	lea    	ecx, [ebp - 0x40]
  0x1c77	dec    	eax
  0x1c78	call   	dword ptr [0x173a]
  === BLOCK LINK ===
    0x1c7e
=== CODE BLOCK END ===

=== CODE BLOCK ADDRESS 0x1c7e ===
  0x1c7e	nop    	dword ptr [eax + eax]
  0x1c83	dec    	eax
  0x1c84	lea    	ecx, [ebp + 0x2b0]
  0x1c8a	dec    	eax
  0x1c8b	call   	dword ptr [0x1637]
  === BLOCK LINK ===
    0x1c91
=== CODE BLOCK END ===

=== CODE BLOCK ADDRESS 0x1c91 ===
  0x1c91	nop    	dword ptr [eax + eax]
  0x1c96	dec    	esp
  0x1c97	mov    	eax, eax
  0x1c99	dec    	eax
  0x1c9a	lea    	edx, [0x17b0]
  === BLOCK LINK ===
    0x1ca0
=== CODE BLOCK END ===

=== CODE BLOCK ADDRESS 0x1ca0 ===
  0x1ca0	dec    	eax
  0x1ca1	lea    	ecx, [ebp - 0x40]
  0x1ca4	dec    	eax
  0x1ca5	call   	dword ptr [0x1615]
  === BLOCK LINK ===
    0x1cab
=== CODE BLOCK END ===

=== CODE BLOCK ADDRESS 0x1cab ===
  0x1cab	nop    	dword ptr [eax + eax]
  0x1cb0	inc    	ecx
  0x1cb1	mov    	esi, esi
  0x1cb3	inc    	esp
  0x1cb4	mov    	esi, esi
  === BLOCK LINK ===
    0x1cb6
=== CODE BLOCK END ===

=== CODE BLOCK ADDRESS 0x1cb6 ===
  0x1cb6	inc    	ecx
  0x1cb7	mov    	esi, esi
  0x1cb9	dec    	eax
  0x1cba	lea    	ecx, [ebp + 0x80]
  0x1cc0	dec    	eax
  === BLOCK LINK ===
    0x1cc1
=== CODE BLOCK END ===

=== CODE BLOCK ADDRESS 0x1cc1 ===
  0x1cc1	call   	dword ptr [0x16e9]
  === BLOCK LINK ===
    0x1cc7
=== CODE BLOCK END ===

=== CODE BLOCK ADDRESS 0x1cc7 ===
  0x1cc7	nop    	dword ptr [eax + eax]
  0x1ccc	dec    	eax
  0x1ccd	lea    	ecx, [ebp + 0xd8]
  0x1cd3	dec    	eax
  0x1cd4	call   	dword ptr [0x16d6]
  === BLOCK LINK ===
    0x1cda
=== CODE BLOCK END ===

=== CODE BLOCK ADDRESS 0x1cda ===
  0x1cda	nop    	dword ptr [eax + eax]
  0x1cdf	dec    	eax
  0x1ce0	lea    	ecx, [ebp + 0x720]
  0x1ce6	dec    	eax
  0x1ce7	call   	dword ptr [0x16d3]
  === BLOCK LINK ===
    0x1ced
=== CODE BLOCK END ===

=== CODE BLOCK ADDRESS 0x1ced ===
  0x1ced	nop    	dword ptr [eax + eax]
  0x1cf2	dec    	eax
  0x1cf3	lea    	ecx, [ebp + 0x4c0]
  0x1cf9	dec    	eax
  0x1cfa	call   	dword ptr [0x16c0]
  === BLOCK LINK ===
    0x1d00
=== CODE BLOCK END ===

=== CODE BLOCK ADDRESS 0x1d00 ===
  0x1d00	nop    	dword ptr [eax + eax]
  0x1d05	dec    	eax
  0x1d06	lea    	ecx, [esp + 0x38]
  0x1d0a	dec    	eax
  0x1d0b	call   	dword ptr [0x169f]
  === BLOCK LINK ===
    0x1d11
=== CODE BLOCK END ===

=== CODE BLOCK ADDRESS 0x1d11 ===
  0x1d11	nop    	dword ptr [eax + eax]
  0x1d16	dec    	eax
  0x1d17	lea    	ecx, [esp + 0x68]
  0x1d1b	dec    	eax
  0x1d1c	call   	dword ptr [0x168e]
  === BLOCK LINK ===
    0x1d22
=== CODE BLOCK END ===

=== CODE BLOCK ADDRESS 0x1d22 ===
  0x1d22	nop    	dword ptr [eax + eax]
  0x1d27	dec    	eax
  0x1d28	lea    	ecx, [ebp + 0x130]
  0x1d2e	dec    	eax
  0x1d2f	call   	dword ptr [0x167b]
  === BLOCK LINK ===
    0x1d35
=== CODE BLOCK END ===

=== CODE BLOCK ADDRESS 0x1d35 ===
  0x1d35	nop    	dword ptr [eax + eax]
  0x1d3a	dec    	eax
  0x1d3b	lea    	ecx, [ebp + 0x110]
  0x1d41	dec    	eax
  0x1d42	call   	dword ptr [0x15f8]
  === BLOCK LINK ===
    0x1d48
=== CODE BLOCK END ===

=== CODE BLOCK ADDRESS 0x1d48 ===
  0x1d48	nop    	dword ptr [eax + eax]
  0x1d4d	dec    	eax
  0x1d4e	lea    	ecx, [ebp + 0x210]
  0x1d54	dec    	eax
  0x1d55	call   	dword ptr [0x1655]
  === BLOCK LINK ===
    0x1d5b
=== CODE BLOCK END ===

=== CODE BLOCK ADDRESS 0x1d5b ===
  0x1d5b	nop    	dword ptr [eax + eax]
  0x1d60	dec    	eax
  0x1d61	lea    	ecx, [ebp + 0x1f0]
  0x1d67	dec    	eax
  0x1d68	call   	dword ptr [0x15d2]
  === BLOCK LINK ===
    0x1d6e
=== CODE BLOCK END ===

=== CODE BLOCK ADDRESS 0x1d6e ===
  0x1d6e	nop    	dword ptr [eax + eax]
  0x1d73	dec    	eax
  0x1d74	lea    	ecx, [ebp + 0x1c0]
  0x1d7a	dec    	eax
  0x1d7b	call   	dword ptr [0x162f]
  === BLOCK LINK ===
    0x1d81
=== CODE BLOCK END ===

=== CODE BLOCK ADDRESS 0x1d81 ===
  0x1d81	nop    	dword ptr [eax + eax]
  0x1d86	dec    	eax
  0x1d87	lea    	ecx, [ebp + 0x190]
  0x1d8d	dec    	eax
  0x1d8e	call   	dword ptr [0x161c]
  === BLOCK LINK ===
    0x1d94
=== CODE BLOCK END ===

=== CODE BLOCK ADDRESS 0x1d94 ===
  0x1d94	nop    	dword ptr [eax + eax]
  0x1d99	dec    	eax
  0x1d9a	lea    	ecx, [ebp + 0x170]
  0x1da0	dec    	eax
  0x1da1	call   	dword ptr [0x1599]
  === BLOCK LINK ===
    0x1da7
=== CODE BLOCK END ===

=== CODE BLOCK ADDRESS 0x1da7 ===
  0x1da7	nop    	dword ptr [eax + eax]
  0x1dac	dec    	eax
  0x1dad	lea    	ecx, [ebp + 0x250]
  0x1db3	dec    	eax
  0x1db4	call   	dword ptr [0x14ce]
  === BLOCK LINK ===
    0x1dba
=== CODE BLOCK END ===

=== CODE BLOCK ADDRESS 0x1dba ===
  0x1dba	nop    	dword ptr [eax + eax]
  0x1dbf	dec    	eax
  0x1dc0	lea    	ecx, [ebp - 0x68]
  0x1dc3	dec    	eax
  0x1dc4	call   	dword ptr [0x15be]
  === BLOCK LINK ===
    0x1dca
=== CODE BLOCK END ===

=== CODE BLOCK ADDRESS 0x1dca ===
  0x1dca	nop    	dword ptr [eax + eax]
  0x1dcf	dec    	eax
  0x1dd0	lea    	ecx, [ebp + 0xb0]
  0x1dd6	dec    	eax
  0x1dd7	call   	dword ptr [0x15ab]
  === BLOCK LINK ===
    0x1ddd
=== CODE BLOCK END ===

=== CODE BLOCK ADDRESS 0x1ddd ===
  0x1ddd	nop    	dword ptr [eax + eax]
  0x1de2	dec    	eax
  0x1de3	lea    	ecx, [ebp + 0x2b0]
  0x1de9	dec    	eax
  0x1dea	call   	dword ptr [0x15d8]
  === BLOCK LINK ===
    0x1df0
=== CODE BLOCK END ===

=== CODE BLOCK ADDRESS 0x1df0 ===
  0x1df0	nop    	dword ptr [eax + eax]
  0x1df5	dec    	eax
  0x1df6	lea    	ecx, [ebp - 0x40]
  0x1df9	dec    	eax
  0x1dfa	call   	dword ptr [0x1568]
  === BLOCK LINK ===
    0x1e00
=== CODE BLOCK END ===

=== CODE BLOCK ADDRESS 0x1e00 ===
  0x1e00	nop    	dword ptr [eax + eax]
  0x1e05	mov    	eax, esi
  0x1e07	dec    	eax
  0x1e08	mov    	ecx, dword ptr [ebp + 0x980]
  0x1e0e	dec    	eax
  === BLOCK LINK ===
    0x1e0f
=== CODE BLOCK END ===

=== CODE BLOCK ADDRESS 0x1e0f ===
  0x1e0f	xor    	ecx, esp
  0x1e11	call   	0x2720
  === BLOCK LINK ===
    0x1e16
=== CODE BLOCK END ===

=== CODE BLOCK ADDRESS 0x1e16 ===
  0x1e16	dec    	esp
  0x1e17	lea    	ebx, [esp + 0xa90]
  0x1e1e	dec    	ecx
  0x1e1f	mov    	ebx, dword ptr [ebx + 0x20]
  0x1e22	dec    	ecx
  === BLOCK LINK ===
    0x1e23
=== CODE BLOCK END ===

=== CODE BLOCK ADDRESS 0x1e23 ===
  0x1e23	mov    	esi, dword ptr [ebx + 0x28]
  0x1e26	dec    	ecx
  0x1e27	mov    	edi, dword ptr [ebx + 0x30]
  0x1e2a	dec    	ebp
  0x1e2b	mov    	esp, dword ptr [ebx + 0x38]
  === BLOCK LINK ===
    0x1e2e
=== CODE BLOCK END ===

=== CODE BLOCK ADDRESS 0x1e2e ===
  0x1e2e	dec    	ecx
  0x1e2f	mov    	esp, ebx
  0x1e31	inc    	ecx
  0x1e32	pop    	edi
  0x1e33	inc    	ecx
  === BLOCK LINK ===
    0x1e34
=== CODE BLOCK END ===

=== CODE BLOCK ADDRESS 0x1e34 ===
  0x1e34	pop    	esi
  0x1e35	pop    	ebp
  0x1e36	ret    	
  0x1e37	int3   	
  0x1e38	inc    	eax
  === BLOCK LINK ===
    0x1e39
=== CODE BLOCK END ===

=== CODE BLOCK ADDRESS 0x1e39 ===
  0x1e39	cmp    	byte ptr [ebp + 0x244], dh
  0x1e3f	je     	0x1eb4
  === BLOCK LINK ===
    0x1e41
=== CODE BLOCK END ===

=== CODE BLOCK ADDRESS 0x1e41 ===
  0x1e41	dec    	eax
  0x1e42	mov    	eax, dword ptr [ebp - 0x40]
  0x1e45	dec    	eax
  0x1e46	lea    	ecx, [ebp - 0x40]
  0x1e49	inc    	ecx
  === BLOCK LINK ===
    0x1e4a
=== CODE BLOCK END ===

=== CODE BLOCK ADDRESS 0x1e4a ===
  0x1e4a	mov    	ecx, 3
  0x1e4f	inc    	ebp
  0x1e50	xor    	eax, eax
  0x1e52	mov    	edx, 0x1770
  0x1e57	dec    	eax
  === BLOCK LINK ===
    0x1e58
=== CODE BLOCK END ===

=== CODE BLOCK ADDRESS 0x1e58 ===
  0x1e58	mov    	eax, dword ptr [eax + 0x20]
  0x1e5b	call   	dword ptr [0x157f]
  === BLOCK LINK ===
    0x1e61
=== CODE BLOCK END ===

=== CODE BLOCK ADDRESS 0x1e61 ===
  0x1e61	dec    	eax
  0x1e62	lea    	edx, [0x15d8]
  0x1e68	dec    	eax
  0x1e69	lea    	ecx, [ebp - 0x40]
  0x1e6c	dec    	eax
  === BLOCK LINK ===
    0x1e6d
=== CODE BLOCK END ===

=== CODE BLOCK ADDRESS 0x1e6d ===
  0x1e6d	call   	dword ptr [0x144d]
  === BLOCK LINK ===
    0x1e73
=== CODE BLOCK END ===

=== CODE BLOCK ADDRESS 0x1e73 ===
  0x1e73	nop    	dword ptr [eax + eax]
  0x1e78	dec    	eax
  0x1e79	mov    	eax, dword ptr [ebp - 0x40]
  0x1e7c	dec    	eax
  0x1e7d	lea    	ecx, [ebp - 0x40]
  === BLOCK LINK ===
    0x1e80
=== CODE BLOCK END ===

=== CODE BLOCK ADDRESS 0x1e80 ===
  0x1e80	inc    	ecx
  0x1e81	mov    	ecx, 3
  0x1e86	inc    	ebp
  0x1e87	xor    	eax, eax
  0x1e89	mov    	edx, 0x1771
  === BLOCK LINK ===
    0x1e8e
=== CODE BLOCK END ===

=== CODE BLOCK ADDRESS 0x1e8e ===
  0x1e8e	dec    	eax
  0x1e8f	mov    	eax, dword ptr [eax + 0x20]
  0x1e92	call   	dword ptr [0x1548]
  === BLOCK LINK ===
    0x1e98
=== CODE BLOCK END ===

=== CODE BLOCK ADDRESS 0x1e98 ===
  0x1e98	dec    	eax
  0x1e99	lea    	edx, [0x15a1]
  0x1e9f	dec    	eax
  0x1ea0	lea    	ecx, [ebp - 0x40]
  0x1ea3	dec    	eax
  === BLOCK LINK ===
    0x1ea4
=== CODE BLOCK END ===

=== CODE BLOCK ADDRESS 0x1ea4 ===
  0x1ea4	call   	dword ptr [0x1416]
  === BLOCK LINK ===
    0x1eaa
=== CODE BLOCK END ===

=== CODE BLOCK ADDRESS 0x1eaa ===
  0x1eaa	nop    	dword ptr [eax + eax]
  0x1eaf	jmp    	0x1cb3
  === BLOCK LINK ===
    0x1eb4
=== CODE BLOCK END ===

=== CODE BLOCK ADDRESS 0x1eb4 ===
  0x1eb4	dec    	eax
  0x1eb5	lea    	ecx, [esp + 0x68]
  0x1eb9	dec    	eax
  0x1eba	call   	dword ptr [0x1450]
  === BLOCK LINK ===
    0x1ec0
=== CODE BLOCK END ===

=== CODE BLOCK ADDRESS 0x1ec0 ===
  0x1ec0	nop    	dword ptr [eax + eax]
  0x1ec5	test   	al, al
  0x1ec7	je     	0x1cb6
  === BLOCK LINK ===
    0x1ecd
=== CODE BLOCK END ===

=== CODE BLOCK ADDRESS 0x1ecd ===
  0x1ecd	dec    	eax
  0x1ece	lea    	ecx, [ebp + 0x170]
  0x1ed4	dec    	eax
  0x1ed5	call   	dword ptr [0x146d]
  === BLOCK LINK ===
    0x1edb
=== CODE BLOCK END ===

=== CODE BLOCK ADDRESS 0x1edb ===
  0x1edb	nop    	dword ptr [eax + eax]
  0x1ee0	inc    	ecx
  0x1ee1	or     	esp, 0xffffffff
  0x1ee4	test   	al, al
  0x1ee6	je     	0x2260
  === BLOCK LINK ===
    0x1eec
=== CODE BLOCK END ===

=== CODE BLOCK ADDRESS 0x1eec ===
  0x1eec	inc    	ebp
  0x1eed	mov    	ecx, esp
  0x1eef	dec    	eax
  0x1ef0	lea    	edx, [ebp + 0x1c0]
  0x1ef6	inc    	ebp
  === BLOCK LINK ===
    0x1ef7
=== CODE BLOCK END ===

=== CODE BLOCK ADDRESS 0x1ef7 ===
  0x1ef7	xor    	eax, eax
  0x1ef9	dec    	eax
  0x1efa	lea    	ecx, [esp + 0x38]
  0x1efe	dec    	eax
  0x1eff	call   	dword ptr [0x13e3]
  === BLOCK LINK ===
    0x1f05
=== CODE BLOCK END ===

=== CODE BLOCK ADDRESS 0x1f05 ===
  0x1f05	nop    	dword ptr [eax + eax]
  0x1f0a	test   	al, al
  0x1f0c	je     	0x1cb6
  === BLOCK LINK ===
    0x1f12
=== CODE BLOCK END ===

=== CODE BLOCK ADDRESS 0x1f12 ===
  0x1f12	inc    	ebp
  0x1f13	xor    	eax, eax
  0x1f15	dec    	eax
  0x1f16	lea    	edx, [ebp + 0x1c0]
  0x1f1c	dec    	eax
  === BLOCK LINK ===
    0x1f1d
=== CODE BLOCK END ===

=== CODE BLOCK ADDRESS 0x1f1d ===
  0x1f1d	lea    	ecx, [ebp + 0x4c0]
  0x1f23	dec    	eax
  0x1f24	call   	dword ptr [0x1386]
  === BLOCK LINK ===
    0x1f2a
=== CODE BLOCK END ===

=== CODE BLOCK ADDRESS 0x1f2a ===
  0x1f2a	nop    	dword ptr [eax + eax]
  0x1f2f	test   	al, al
  0x1f31	je     	0x1cb6
  === BLOCK LINK ===
    0x1f37
=== CODE BLOCK END ===

=== CODE BLOCK ADDRESS 0x1f37 ===
  0x1f37	dec    	eax
  0x1f38	lea    	ecx, [ebp + 0x110]
  0x1f3e	dec    	eax
  0x1f3f	call   	dword ptr [0x1403]
  === BLOCK LINK ===
    0x1f45
=== CODE BLOCK END ===

=== CODE BLOCK ADDRESS 0x1f45 ===
  0x1f45	nop    	dword ptr [eax + eax]
  0x1f4a	mov    	edi, 0xffff
  0x1f4f	test   	al, al
  0x1f51	je     	0x2105
  === BLOCK LINK ===
    0x1f57
=== CODE BLOCK END ===

=== CODE BLOCK ADDRESS 0x1f57 ===
  0x1f57	inc    	esp
  0x1f58	cmp    	dword ptr [esp + 0x50], esi
  0x1f5c	jbe    	0x1f69
  === BLOCK LINK ===
    0x1f5e
=== CODE BLOCK END ===

=== CODE BLOCK ADDRESS 0x1f5e ===
  0x1f5e	dec    	eax
  0x1f5f	mov    	eax, dword ptr [esp + 0x48]
  0x1f63	movzx  	ecx, word ptr [eax + 2]
  0x1f67	jmp    	0x1f6b
  === BLOCK LINK ===
    0x1f69
=== CODE BLOCK END ===

=== CODE BLOCK ADDRESS 0x1f69 ===
  0x1f69	mov    	ecx, edi
  0x1f6b	cmp    	cx, 0x3a
  0x1f6f	je     	0x207d
  === BLOCK LINK ===
    0x1f75
=== CODE BLOCK END ===

=== CODE BLOCK ADDRESS 0x1f75 ===
  0x1f75	dec    	eax
  0x1f76	lea    	ecx, [ebp + 0x4c0]
  0x1f7c	dec    	eax
  0x1f7d	call   	dword ptr [0x131d]
  === BLOCK LINK ===
    0x1f83
=== CODE BLOCK END ===

=== CODE BLOCK ADDRESS 0x1f83 ===
  0x1f83	nop    	dword ptr [eax + eax]
  0x1f88	test   	al, al
  0x1f8a	jne    	0x207d
  === BLOCK LINK ===
    0x1f90
=== CODE BLOCK END ===

=== CODE BLOCK ADDRESS 0x1f90 ===
  0x1f90	inc    	ebp
  0x1f91	mov    	ecx, esp
  0x1f93	dec    	eax
  0x1f94	lea    	edx, [esp + 0x38]
  0x1f98	inc    	ebp
  === BLOCK LINK ===
    0x1f99
=== CODE BLOCK END ===

=== CODE BLOCK ADDRESS 0x1f99 ===
  0x1f99	xor    	eax, eax
  0x1f9b	dec    	eax
  0x1f9c	lea    	ecx, [esp + 0x68]
  0x1fa0	dec    	eax
  0x1fa1	call   	dword ptr [0x1341]
  === BLOCK LINK ===
    0x1fa7
=== CODE BLOCK END ===

=== CODE BLOCK ADDRESS 0x1fa7 ===
  0x1fa7	nop    	dword ptr [eax + eax]
  0x1fac	test   	al, al
  0x1fae	je     	0x1cb6
  === BLOCK LINK ===
    0x1fb4
=== CODE BLOCK END ===

=== CODE BLOCK ADDRESS 0x1fb4 ===
  0x1fb4	dec    	eax
  0x1fb5	lea    	ecx, [esp + 0x38]
  0x1fb9	dec    	eax
  0x1fba	lea    	edx, [0x14c0]
  0x1fc0	inc    	ebp
  === BLOCK LINK ===
    0x1fc1
=== CODE BLOCK END ===

=== CODE BLOCK ADDRESS 0x1fc1 ===
  0x1fc1	mov    	eax, esp
  0x1fc3	dec    	eax
  0x1fc4	call   	dword ptr [0x1326]
  === BLOCK LINK ===
    0x1fca
=== CODE BLOCK END ===

=== CODE BLOCK ADDRESS 0x1fca ===
  0x1fca	nop    	dword ptr [eax + eax]
  0x1fcf	test   	al, al
  0x1fd1	je     	0x1cb6
  === BLOCK LINK ===
    0x1fd7
=== CODE BLOCK END ===

=== CODE BLOCK ADDRESS 0x1fd7 ===
  0x1fd7	inc    	ebp
  0x1fd8	xor    	eax, eax
  0x1fda	dec    	eax
  0x1fdb	lea    	edx, [esp + 0x38]
  0x1fdf	dec    	eax
  === BLOCK LINK ===
    0x1fe0
=== CODE BLOCK END ===

=== CODE BLOCK ADDRESS 0x1fe0 ===
  0x1fe0	lea    	ecx, [ebp + 0x4c0]
  0x1fe6	dec    	eax
  0x1fe7	call   	dword ptr [0x12c3]
  === BLOCK LINK ===
    0x1fed
=== CODE BLOCK END ===

=== CODE BLOCK ADDRESS 0x1fed ===
  0x1fed	nop    	dword ptr [eax + eax]
  0x1ff2	test   	al, al
  0x1ff4	je     	0x1cb6
  === BLOCK LINK ===
    0x1ffa
=== CODE BLOCK END ===

=== CODE BLOCK ADDRESS 0x1ffa ===
  0x1ffa	dec    	esp
  0x1ffb	lea    	ecx, [ebp + 0xd8]
  0x2001	dec    	esp
  0x2002	lea    	eax, [ebp + 0x720]
  0x2008	dec    	eax
  === BLOCK LINK ===
    0x2009
=== CODE BLOCK END ===

=== CODE BLOCK ADDRESS 0x2009 ===
  0x2009	lea    	edx, [esp + 0x38]
  0x200d	dec    	eax
  0x200e	lea    	ecx, [ebp + 0x4c0]
  0x2014	dec    	eax
  0x2015	call   	dword ptr [0x127d]
  === BLOCK LINK ===
    0x201b
=== CODE BLOCK END ===

=== CODE BLOCK ADDRESS 0x201b ===
  0x201b	nop    	dword ptr [eax + eax]
  0x2020	test   	eax, eax
  0x2022	js     	0x23df
  === BLOCK LINK ===
    0x2028
=== CODE BLOCK END ===

=== CODE BLOCK ADDRESS 0x2028 ===
  0x2028	inc    	ecx
  0x2029	cmp    	eax, esi
  0x202b	jle    	0x2291
  === BLOCK LINK ===
    0x2031
=== CODE BLOCK END ===

=== CODE BLOCK ADDRESS 0x2031 ===
  0x2031	cmp    	eax, 2
  0x2034	je     	0x1cb6
  === BLOCK LINK ===
    0x203a
=== CODE BLOCK END ===

=== CODE BLOCK ADDRESS 0x203a ===
  0x203a	cmp    	eax, 4
  0x203d	jne    	0x23df
  === BLOCK LINK ===
    0x2043
=== CODE BLOCK END ===

=== CODE BLOCK ADDRESS 0x2043 ===
  0x2043	mov    	edx, 0x1778
  0x2048	inc    	ecx
  0x2049	mov    	ecx, 3
  0x204e	dec    	eax
  0x204f	lea    	ecx, [ebp - 0x40]
  === BLOCK LINK ===
    0x2052
=== CODE BLOCK END ===

=== CODE BLOCK ADDRESS 0x2052 ===
  0x2052	inc    	ebp
  0x2053	xor    	eax, eax
  0x2055	dec    	eax
  0x2056	call   	dword ptr [0x135c]
  === BLOCK LINK ===
    0x205c
=== CODE BLOCK END ===

=== CODE BLOCK ADDRESS 0x205c ===
  0x205c	nop    	dword ptr [eax + eax]
  0x2061	dec    	eax
  0x2062	lea    	edx, [0x13d8]
  0x2068	dec    	eax
  0x2069	lea    	ecx, [ebp - 0x40]
  === BLOCK LINK ===
    0x206c
=== CODE BLOCK END ===

=== CODE BLOCK ADDRESS 0x206c ===
  0x206c	dec    	eax
  0x206d	call   	dword ptr [0x124d]
  === BLOCK LINK ===
    0x2073
=== CODE BLOCK END ===

=== CODE BLOCK ADDRESS 0x2073 ===
  0x2073	nop    	dword ptr [eax + eax]
  0x2078	jmp    	0x1cb6
  === BLOCK LINK ===
    0x207d
=== CODE BLOCK END ===

=== CODE BLOCK ADDRESS 0x207d ===
  0x207d	mov    	ebx, 0x20
  0x2082	dec    	eax
  0x2083	lea    	ecx, [esp + 0x38]
  0x2087	mov    	edx, ebx
  0x2089	inc    	ebp
  === BLOCK LINK ===
    0x208a
=== CODE BLOCK END ===

=== CODE BLOCK ADDRESS 0x208a ===
  0x208a	xor    	eax, eax
  0x208c	dec    	eax
  0x208d	call   	dword ptr [0x126d]
  === BLOCK LINK ===
    0x2093
=== CODE BLOCK END ===

=== CODE BLOCK ADDRESS 0x2093 ===
  0x2093	nop    	dword ptr [eax + eax]
  0x2098	inc    	esp
  0x2099	mov    	edi, eax
  0x209b	inc    	ecx
  0x209c	cmp    	eax, esp
  === BLOCK LINK ===
    0x209e
=== CODE BLOCK END ===

=== CODE BLOCK ADDRESS 0x209e ===
  0x209e	je     	0x1fd7
  === BLOCK LINK ===
    0x20a4
=== CODE BLOCK END ===

=== CODE BLOCK ADDRESS 0x20a4 ===
  0x20a4	inc    	ebp
  0x20a5	mov    	ecx, esp
  0x20a7	dec    	eax
  0x20a8	lea    	edx, [esp + 0x38]
  0x20ac	inc    	esp
  === BLOCK LINK ===
    0x20ad
=== CODE BLOCK END ===

=== CODE BLOCK ADDRESS 0x20ad ===
  0x20ad	mov    	eax, eax
  0x20af	dec    	eax
  0x20b0	lea    	ecx, [esp + 0x68]
  0x20b4	dec    	eax
  0x20b5	call   	dword ptr [0x122d]
  === BLOCK LINK ===
    0x20bb
=== CODE BLOCK END ===

=== CODE BLOCK ADDRESS 0x20bb ===
  0x20bb	nop    	dword ptr [eax + eax]
  0x20c0	test   	al, al
  0x20c2	je     	0x1cb6
  === BLOCK LINK ===
    0x20c8
=== CODE BLOCK END ===

=== CODE BLOCK ADDRESS 0x20c8 ===
  0x20c8	inc    	ebp
  0x20c9	mov    	eax, esp
  0x20cb	dec    	eax
  0x20cc	lea    	ecx, [esp + 0x38]
  0x20d0	inc    	ecx
  === BLOCK LINK ===
    0x20d1
=== CODE BLOCK END ===

=== CODE BLOCK ADDRESS 0x20d1 ===
  0x20d1	mov    	edx, edi
  0x20d3	dec    	eax
  0x20d4	call   	dword ptr [0x1206]
  === BLOCK LINK ===
    0x20da
=== CODE BLOCK END ===

=== CODE BLOCK ADDRESS 0x20da ===
  0x20da	nop    	dword ptr [eax + eax]
  0x20df	cmp    	dword ptr [ebp - 0x80], esi
  0x20e2	jbe    	0x20ee
  === BLOCK LINK ===
    0x20e4
=== CODE BLOCK END ===

=== CODE BLOCK ADDRESS 0x20e4 ===
  0x20e4	dec    	eax
  0x20e5	mov    	eax, dword ptr [esp + 0x78]
  0x20e9	movzx  	ecx, word ptr [eax]
  0x20ec	jmp    	0x20f0
  === BLOCK LINK ===
    0x20ee
=== CODE BLOCK END ===

=== CODE BLOCK ADDRESS 0x20ee ===
  0x20ee	mov    	ecx, edi
  0x20f0	cmp    	cx, bx
  0x20f3	jne    	0x1fd7
  === BLOCK LINK ===
    0x20f9
=== CODE BLOCK END ===

=== CODE BLOCK ADDRESS 0x20f9 ===
  0x20f9	inc    	ebp
  0x20fa	mov    	eax, esi
  0x20fc	dec    	eax
  0x20fd	lea    	ecx, [esp + 0x68]
  0x2101	xor    	edx, edx
  === BLOCK LINK ===
    0x2103
=== CODE BLOCK END ===

=== CODE BLOCK ADDRESS 0x2103 ===
  0x2103	jmp    	0x20d3
  === BLOCK LINK ===
    0x2105
=== CODE BLOCK END ===

=== CODE BLOCK ADDRESS 0x2105 ===
  0x2105	inc    	esp
  0x2106	cmp    	dword ptr [esp + 0x50], esi
  0x210a	jbe    	0x2117
  === BLOCK LINK ===
    0x210c
=== CODE BLOCK END ===

=== CODE BLOCK ADDRESS 0x210c ===
  0x210c	dec    	eax
  0x210d	mov    	eax, dword ptr [esp + 0x48]
  0x2111	movzx  	ecx, word ptr [eax + 2]
  0x2115	jmp    	0x2119
  === BLOCK LINK ===
    0x2117
=== CODE BLOCK END ===

=== CODE BLOCK ADDRESS 0x2117 ===
  0x2117	mov    	ecx, edi
  0x2119	cmp    	cx, 0x3a
  0x211d	jne    	0x2196
  === BLOCK LINK ===
    0x211f
=== CODE BLOCK END ===

=== CODE BLOCK ADDRESS 0x211f ===
  0x211f	inc    	ebp
  0x2120	mov    	ecx, esp
  0x2122	dec    	eax
  0x2123	lea    	edx, [esp + 0x38]
  0x2127	inc    	ecx
  === BLOCK LINK ===
    0x2128
=== CODE BLOCK END ===

=== CODE BLOCK ADDRESS 0x2128 ===
  0x2128	mov    	eax, 2
  0x212d	dec    	eax
  0x212e	lea    	ecx, [esp + 0x68]
  0x2132	dec    	eax
  0x2133	call   	dword ptr [0x11af]
  === BLOCK LINK ===
    0x2139
=== CODE BLOCK END ===

=== CODE BLOCK ADDRESS 0x2139 ===
  0x2139	nop    	dword ptr [eax + eax]
  0x213e	test   	al, al
  0x2140	je     	0x1cb6
  === BLOCK LINK ===
    0x2146
=== CODE BLOCK END ===

=== CODE BLOCK ADDRESS 0x2146 ===
  0x2146	inc    	ebp
  0x2147	mov    	eax, esp
  0x2149	dec    	eax
  0x214a	lea    	ecx, [esp + 0x38]
  0x214e	mov    	edx, 2
  === BLOCK LINK ===
    0x2153
=== CODE BLOCK END ===

=== CODE BLOCK ADDRESS 0x2153 ===
  0x2153	dec    	eax
  0x2154	call   	dword ptr [0x1186]
  === BLOCK LINK ===
    0x215a
=== CODE BLOCK END ===

=== CODE BLOCK ADDRESS 0x215a ===
  0x215a	nop    	dword ptr [eax + eax]
  0x215f	mov    	ebx, 0x20
  0x2164	cmp    	dword ptr [ebp - 0x80], esi
  0x2167	jbe    	0x2173
  === BLOCK LINK ===
    0x2169
=== CODE BLOCK END ===

=== CODE BLOCK ADDRESS 0x2169 ===
  0x2169	dec    	eax
  0x216a	mov    	eax, dword ptr [esp + 0x78]
  0x216e	movzx  	ecx, word ptr [eax]
  0x2171	jmp    	0x2175
  === BLOCK LINK ===
    0x2173
=== CODE BLOCK END ===

=== CODE BLOCK ADDRESS 0x2173 ===
  0x2173	mov    	ecx, edi
  0x2175	cmp    	cx, bx
  0x2178	jne    	0x1fd7
  === BLOCK LINK ===
    0x217e
=== CODE BLOCK END ===

=== CODE BLOCK ADDRESS 0x217e ===
  0x217e	inc    	ebp
  0x217f	mov    	eax, esi
  0x2181	dec    	eax
  0x2182	lea    	ecx, [esp + 0x68]
  0x2186	xor    	edx, edx
  === BLOCK LINK ===
    0x2188
=== CODE BLOCK END ===

=== CODE BLOCK ADDRESS 0x2188 ===
  0x2188	dec    	eax
  0x2189	call   	dword ptr [0x1151]
  === BLOCK LINK ===
    0x218f
=== CODE BLOCK END ===

=== CODE BLOCK ADDRESS 0x218f ===
  0x218f	nop    	dword ptr [eax + eax]
  0x2194	jmp    	0x2164
  === BLOCK LINK ===
    0x2196
=== CODE BLOCK END ===

=== CODE BLOCK ADDRESS 0x2196 ===
  0x2196	dec    	eax
  0x2197	lea    	ecx, [ebp + 0x4c0]
  0x219d	dec    	eax
  0x219e	call   	dword ptr [0x10fc]
  === BLOCK LINK ===
    0x21a4
=== CODE BLOCK END ===

=== CODE BLOCK ADDRESS 0x21a4 ===
  0x21a4	nop    	dword ptr [eax + eax]
  0x21a9	inc    	ebp
  0x21aa	xor    	eax, eax
  0x21ac	test   	al, al
  0x21ae	je     	0x2238
  === BLOCK LINK ===
    0x21b4
=== CODE BLOCK END ===

=== CODE BLOCK ADDRESS 0x21b4 ===
  0x21b4	inc    	ecx
  0x21b5	lea    	ebx, [eax + 0x20]
  0x21b8	mov    	edx, ebx
  0x21ba	dec    	eax
  0x21bb	lea    	ecx, [esp + 0x38]
  === BLOCK LINK ===
    0x21bf
=== CODE BLOCK END ===

=== CODE BLOCK ADDRESS 0x21bf ===
  0x21bf	dec    	eax
  0x21c0	call   	dword ptr [0x113a]
  === BLOCK LINK ===
    0x21c6
=== CODE BLOCK END ===

=== CODE BLOCK ADDRESS 0x21c6 ===
  0x21c6	nop    	dword ptr [eax + eax]
  0x21cb	inc    	esp
  0x21cc	mov    	edi, eax
  0x21ce	inc    	ecx
  0x21cf	cmp    	eax, esp
  === BLOCK LINK ===
    0x21d1
=== CODE BLOCK END ===

=== CODE BLOCK ADDRESS 0x21d1 ===
  0x21d1	je     	0x1fd7
  === BLOCK LINK ===
    0x21d7
=== CODE BLOCK END ===

=== CODE BLOCK ADDRESS 0x21d7 ===
  0x21d7	inc    	ebp
  0x21d8	mov    	ecx, esp
  0x21da	dec    	eax
  0x21db	lea    	edx, [esp + 0x38]
  0x21df	inc    	esp
  === BLOCK LINK ===
    0x21e0
=== CODE BLOCK END ===

=== CODE BLOCK ADDRESS 0x21e0 ===
  0x21e0	mov    	eax, eax
  0x21e2	dec    	eax
  0x21e3	lea    	ecx, [esp + 0x68]
  0x21e7	dec    	eax
  0x21e8	call   	dword ptr [0x10fa]
  === BLOCK LINK ===
    0x21ee
=== CODE BLOCK END ===

=== CODE BLOCK ADDRESS 0x21ee ===
  0x21ee	nop    	dword ptr [eax + eax]
  0x21f3	test   	al, al
  0x21f5	je     	0x1cb6
  === BLOCK LINK ===
    0x21fb
=== CODE BLOCK END ===

=== CODE BLOCK ADDRESS 0x21fb ===
  0x21fb	inc    	ebp
  0x21fc	mov    	eax, esp
  0x21fe	dec    	eax
  0x21ff	lea    	ecx, [esp + 0x38]
  0x2203	inc    	ecx
  === BLOCK LINK ===
    0x2204
=== CODE BLOCK END ===

=== CODE BLOCK ADDRESS 0x2204 ===
  0x2204	mov    	edx, edi
  0x2206	dec    	eax
  0x2207	call   	dword ptr [0x10d3]
  === BLOCK LINK ===
    0x220d
=== CODE BLOCK END ===

=== CODE BLOCK ADDRESS 0x220d ===
  0x220d	nop    	dword ptr [eax + eax]
  0x2212	cmp    	dword ptr [ebp - 0x80], esi
  0x2215	jbe    	0x2221
  === BLOCK LINK ===
    0x2217
=== CODE BLOCK END ===

=== CODE BLOCK ADDRESS 0x2217 ===
  0x2217	dec    	eax
  0x2218	mov    	eax, dword ptr [esp + 0x78]
  0x221c	movzx  	ecx, word ptr [eax]
  0x221f	jmp    	0x2223
  === BLOCK LINK ===
    0x2221
=== CODE BLOCK END ===

=== CODE BLOCK ADDRESS 0x2221 ===
  0x2221	mov    	ecx, edi
  0x2223	cmp    	cx, bx
  0x2226	jne    	0x1fd7
  === BLOCK LINK ===
    0x222c
=== CODE BLOCK END ===

=== CODE BLOCK ADDRESS 0x222c ===
  0x222c	inc    	ebp
  0x222d	mov    	eax, esi
  0x222f	dec    	eax
  0x2230	lea    	ecx, [esp + 0x68]
  0x2234	xor    	edx, edx
  === BLOCK LINK ===
    0x2236
=== CODE BLOCK END ===

=== CODE BLOCK ADDRESS 0x2236 ===
  0x2236	jmp    	0x2206
  === BLOCK LINK ===
    0x2238
=== CODE BLOCK END ===

=== CODE BLOCK ADDRESS 0x2238 ===
  0x2238	inc    	ebp
  0x2239	mov    	ecx, esp
  0x223b	dec    	eax
  0x223c	lea    	edx, [esp + 0x38]
  0x2240	dec    	eax
  === BLOCK LINK ===
    0x2241
=== CODE BLOCK END ===

=== CODE BLOCK ADDRESS 0x2241 ===
  0x2241	lea    	ecx, [esp + 0x68]
  0x2245	dec    	eax
  0x2246	call   	dword ptr [0x109c]
  === BLOCK LINK ===
    0x224c
=== CODE BLOCK END ===

=== CODE BLOCK ADDRESS 0x224c ===
  0x224c	nop    	dword ptr [eax + eax]
  0x2251	test   	al, al
  0x2253	je     	0x1cb6
  === BLOCK LINK ===
    0x2259
=== CODE BLOCK END ===

=== CODE BLOCK ADDRESS 0x2259 ===
  0x2259	dec    	eax
  0x225a	lea    	ecx, [esp + 0x38]
  0x225e	jmp    	0x2280
  === BLOCK LINK ===
    0x2260
=== CODE BLOCK END ===

=== CODE BLOCK ADDRESS 0x2260 ===
  0x2260	dec    	eax
  0x2261	lea    	ecx, [ebp + 0x110]
  0x2267	dec    	eax
  0x2268	call   	dword ptr [0x10da]
  === BLOCK LINK ===
    0x226e
=== CODE BLOCK END ===

=== CODE BLOCK ADDRESS 0x226e ===
  0x226e	nop    	dword ptr [eax + eax]
  0x2273	dec    	eax
  0x2274	lea    	ecx, [esp + 0x38]
  0x2278	test   	al, al
  0x227a	jne    	0x1fb9
  === BLOCK LINK ===
    0x2280
=== CODE BLOCK END ===

=== CODE BLOCK ADDRESS 0x2280 ===
  0x2280	dec    	eax
  0x2281	call   	dword ptr [0x10c9]
  === BLOCK LINK ===
    0x2287
=== CODE BLOCK END ===

=== CODE BLOCK ADDRESS 0x2287 ===
  0x2287	nop    	dword ptr [eax + eax]
  0x228c	jmp    	0x1fcf
  === BLOCK LINK ===
    0x2291
=== CODE BLOCK END ===

=== CODE BLOCK ADDRESS 0x2291 ===
  0x2291	cmp    	dword ptr [ebp + 0xf0], esi
  0x2297	je     	0x22a3
  === BLOCK LINK ===
    0x2299
=== CODE BLOCK END ===

=== CODE BLOCK ADDRESS 0x2299 ===
  0x2299	mov    	edx, 0x8ac
  0x229e	jmp    	0x2048
  === BLOCK LINK ===
    0x22a3
=== CODE BLOCK END ===

=== CODE BLOCK ADDRESS 0x22a3 ===
  0x22a3	dec    	eax
  0x22a4	lea    	ecx, [ebp + 0x4c0]
  0x22aa	dec    	eax
  0x22ab	call   	dword ptr [0xfef]
  === BLOCK LINK ===
    0x22b1
=== CODE BLOCK END ===

=== CODE BLOCK ADDRESS 0x22b1 ===
  0x22b1	nop    	dword ptr [eax + eax]
  0x22b6	inc    	ebp
  0x22b7	xor    	eax, eax
  0x22b9	dec    	eax
  0x22ba	lea    	ecx, [ebp + 0x80]
  === BLOCK LINK ===
    0x22c0
=== CODE BLOCK END ===

=== CODE BLOCK ADDRESS 0x22c0 ===
  0x22c0	inc    	ebp
  0x22c1	mov    	ecx, esp
  0x22c3	test   	al, al
  0x22c5	je     	0x23d3
  === BLOCK LINK ===
    0x22cb
=== CODE BLOCK END ===

=== CODE BLOCK ADDRESS 0x22cb ===
  0x22cb	dec    	eax
  0x22cc	lea    	edx, [esp + 0x38]
  0x22d0	dec    	eax
  0x22d1	call   	dword ptr [0x1011]
  === BLOCK LINK ===
    0x22d7
=== CODE BLOCK END ===

=== CODE BLOCK ADDRESS 0x22d7 ===
  0x22d7	nop    	dword ptr [eax + eax]
  0x22dc	test   	al, al
  0x22de	je     	0x1cb6
  === BLOCK LINK ===
    0x22e4
=== CODE BLOCK END ===

=== CODE BLOCK ADDRESS 0x22e4 ===
  0x22e4	cmp    	dword ptr [ebp + 0x950], 2
  0x22eb	jne    	0x2321
  === BLOCK LINK ===
    0x22ed
=== CODE BLOCK END ===

=== CODE BLOCK ADDRESS 0x22ed ===
  0x22ed	dec    	eax
  0x22ee	mov    	eax, dword ptr [ebp + 0x948]
  0x22f4	cmp    	word ptr [eax + 2], 0x3a
  0x22f9	jne    	0x2321
  === BLOCK LINK ===
    0x22fb
=== CODE BLOCK END ===

=== CODE BLOCK ADDRESS 0x22fb ===
  0x22fb	inc    	ebp
  0x22fc	mov    	ecx, esp
  0x22fe	dec    	eax
  0x22ff	lea    	edx, [ebp + 0x938]
  0x2305	inc    	ebp
  === BLOCK LINK ===
    0x2306
=== CODE BLOCK END ===

=== CODE BLOCK ADDRESS 0x2306 ===
  0x2306	xor    	eax, eax
  0x2308	dec    	eax
  0x2309	lea    	ecx, [esp + 0x38]
  0x230d	dec    	eax
  0x230e	call   	dword ptr [0xfd4]
  === BLOCK LINK ===
    0x2314
=== CODE BLOCK END ===

=== CODE BLOCK ADDRESS 0x2314 ===
  0x2314	nop    	dword ptr [eax + eax]
  0x2319	test   	al, al
  0x231b	je     	0x1cb6
  === BLOCK LINK ===
    0x2321
=== CODE BLOCK END ===

=== CODE BLOCK ADDRESS 0x2321 ===
  0x2321	cmp    	dword ptr [ebp - 0x80], esi
  0x2324	jne    	0x23b5
  === BLOCK LINK ===
    0x232a
=== CODE BLOCK END ===

=== CODE BLOCK ADDRESS 0x232a ===
  0x232a	dec    	eax
  0x232b	lea    	eax, [ebp - 0x40]
  0x232e	dec    	esp
  0x232f	lea    	ecx, [esp + 0x68]
  0x2333	dec    	eax
  === BLOCK LINK ===
    0x2334
=== CODE BLOCK END ===

=== CODE BLOCK ADDRESS 0x2334 ===
  0x2334	mov    	dword ptr [esp + 0x20], eax
  0x2338	dec    	esp
  0x2339	lea    	eax, [esp + 0x30]
  0x233d	dec    	eax
  0x233e	lea    	edx, [esp + 0x38]
  === BLOCK LINK ===
    0x2342
=== CODE BLOCK END ===

=== CODE BLOCK ADDRESS 0x2342 ===
  0x2342	dec    	eax
  0x2343	lea    	ecx, [ebp + 0x80]
  0x2349	call   	0x1008
  === BLOCK LINK ===
    0x234e
=== CODE BLOCK END ===

=== CODE BLOCK ADDRESS 0x234e ===
  0x234e	test   	al, al
  0x2350	je     	0x1cb6
  === BLOCK LINK ===
    0x2356
=== CODE BLOCK END ===

=== CODE BLOCK ADDRESS 0x2356 ===
  0x2356	cmp    	dword ptr [ebp - 0x80], esi
  0x2359	jne    	0x23b5
  === BLOCK LINK ===
    0x235b
=== CODE BLOCK END ===

=== CODE BLOCK ADDRESS 0x235b ===
  0x235b	inc    	eax
  0x235c	cmp    	byte ptr [esp + 0x30], dh
  0x2360	je     	0x1cb9
  === BLOCK LINK ===
    0x2366
=== CODE BLOCK END ===

=== CODE BLOCK ADDRESS 0x2366 ===
  0x2366	inc    	ecx
  0x2367	mov    	ecx, 3
  0x236c	dec    	eax
  0x236d	lea    	ecx, [ebp - 0x40]
  0x2370	inc    	ebp
  === BLOCK LINK ===
    0x2371
=== CODE BLOCK END ===

=== CODE BLOCK ADDRESS 0x2371 ===
  0x2371	xor    	eax, eax
  0x2373	mov    	edx, 0x1775
  0x2378	dec    	eax
  0x2379	call   	dword ptr [0x1039]
  === BLOCK LINK ===
    0x237f
=== CODE BLOCK END ===

=== CODE BLOCK ADDRESS 0x237f ===
  0x237f	nop    	dword ptr [eax + eax]
  0x2384	dec    	eax
  0x2385	lea    	edx, [0x10b5]
  0x238b	dec    	eax
  0x238c	lea    	ecx, [ebp - 0x40]
  === BLOCK LINK ===
    0x238f
=== CODE BLOCK END ===

=== CODE BLOCK ADDRESS 0x238f ===
  0x238f	dec    	eax
  0x2390	call   	dword ptr [0xf2a]
  === BLOCK LINK ===
    0x2396
=== CODE BLOCK END ===

=== CODE BLOCK ADDRESS 0x2396 ===
  0x2396	nop    	dword ptr [eax + eax]
  0x239b	xor    	edx, edx
  0x239d	dec    	eax
  0x239e	lea    	ecx, [ebp - 0x40]
  0x23a1	dec    	eax
  === BLOCK LINK ===
    0x23a2
=== CODE BLOCK END ===

=== CODE BLOCK ADDRESS 0x23a2 ===
  0x23a2	call   	dword ptr [0xec8]
  === BLOCK LINK ===
    0x23a8
=== CODE BLOCK END ===

=== CODE BLOCK ADDRESS 0x23a8 ===
  0x23a8	nop    	dword ptr [eax + eax]
  0x23ad	test   	al, al
  0x23af	je     	0x1cb9
  === BLOCK LINK ===
    0x23b5
=== CODE BLOCK END ===

=== CODE BLOCK ADDRESS 0x23b5 ===
  0x23b5	dec    	esp
  0x23b6	lea    	eax, [ebp - 0x40]
  0x23b9	dec    	eax
  0x23ba	lea    	edx, [esp + 0x68]
  0x23be	dec    	eax
  === BLOCK LINK ===
    0x23bf
=== CODE BLOCK END ===

=== CODE BLOCK ADDRESS 0x23bf ===
  0x23bf	lea    	ecx, [esp + 0x38]
  0x23c3	call   	0x162c
  === BLOCK LINK ===
    0x23c8
=== CODE BLOCK END ===

=== CODE BLOCK ADDRESS 0x23c8 ===
  0x23c8	test   	al, al
  0x23ca	inc    	eax
  0x23cb	sete   	dh
  0x23ce	jmp    	0x1cb9
  === BLOCK LINK ===
    0x23d3
=== CODE BLOCK END ===

=== CODE BLOCK ADDRESS 0x23d3 ===
  0x23d3	dec    	eax
  0x23d4	lea    	edx, [ebp + 0x938]
  0x23da	jmp    	0x22d0
  === BLOCK LINK ===
    0x23df
=== CODE BLOCK END ===

=== CODE BLOCK ADDRESS 0x23df ===
  0x23df	mov    	edx, 0x1777
  0x23e4	jmp    	0x2048
  === BLOCK LINK ===
    0x23e9
=== CODE BLOCK END ===

=== CODE BLOCK ADDRESS 0x23e9 ===
  0x23e9	int3   	
  0x23ea	int3   	
  0x23eb	int3   	
  0x23ec	int3   	
  0x23ed	int3   	
  === BLOCK LINK ===
    0x23ee
=== CODE BLOCK END ===

=== CODE BLOCK ADDRESS 0x23ee ===
  0x23ee	int3   	
  0x23ef	int3   	
  0x23f0	dec    	eax
  0x23f1	sub    	esp, 0x28
  0x23f4	mov    	eax, 0x5a4d
  === BLOCK LINK ===
    0x23f9
=== CODE BLOCK END ===

=== CODE BLOCK ADDRESS 0x23f9 ===
  0x23f9	cmp    	word ptr [0xffffdc00], ax
  0x2400	je     	0x2406
  === BLOCK LINK ===
    0x2402
=== CODE BLOCK END ===

=== CODE BLOCK ADDRESS 0x2402 ===
  0x2402	xor    	eax, eax
  0x2404	jmp    	0x2459
  === BLOCK LINK ===
    0x2406
=== CODE BLOCK END ===

=== CODE BLOCK ADDRESS 0x2406 ===
  0x2406	dec    	eax
  0x2407	arpl   	word ptr [0xffffdc2f], cx
  0x240d	dec    	eax
  0x240e	lea    	eax, [0xffffdbec]
  0x2414	dec    	eax
  === BLOCK LINK ===
    0x2415
=== CODE BLOCK END ===

=== CODE BLOCK ADDRESS 0x2415 ===
  0x2415	add    	ecx, eax
  0x2417	cmp    	dword ptr [ecx], 0x4550
  0x241d	jne    	0x2402
  === BLOCK LINK ===
    0x241f
=== CODE BLOCK END ===

=== CODE BLOCK ADDRESS 0x241f ===
  0x241f	mov    	eax, 0x10b
  0x2424	cmp    	word ptr [ecx + 0x18], ax
  0x2428	je     	0x2448
  === BLOCK LINK ===
    0x242a
=== CODE BLOCK END ===

=== CODE BLOCK ADDRESS 0x242a ===
  0x242a	mov    	eax, 0x20b
  0x242f	cmp    	word ptr [ecx + 0x18], ax
  0x2433	jne    	0x2402
  === BLOCK LINK ===
    0x2435
=== CODE BLOCK END ===

=== CODE BLOCK ADDRESS 0x2435 ===
  0x2435	xor    	eax, eax
  0x2437	cmp    	dword ptr [ecx + 0x84], 0xe
  0x243e	jbe    	0x2459
  === BLOCK LINK ===
    0x2440
=== CODE BLOCK END ===

=== CODE BLOCK ADDRESS 0x2440 ===
  0x2440	cmp    	dword ptr [ecx + 0xf8], eax
  0x2446	jmp    	0x2456
  === BLOCK LINK ===
    0x2448
=== CODE BLOCK END ===

=== CODE BLOCK ADDRESS 0x2448 ===
  0x2448	xor    	eax, eax
  0x244a	cmp    	dword ptr [ecx + 0x74], 0xe
  0x244e	jbe    	0x2459
  === BLOCK LINK ===
    0x2450
=== CODE BLOCK END ===

=== CODE BLOCK ADDRESS 0x2450 ===
  0x2450	cmp    	dword ptr [ecx + 0xe8], eax
  0x2456	setne  	al
  0x2459	mov    	ecx, 1
  0x245e	mov    	dword ptr [0x2bdc], eax
  0x2464	call   	0x2818
  === BLOCK LINK ===
    0x2469
=== CODE BLOCK END ===

=== CODE BLOCK ADDRESS 0x2469 ===
  0x2469	mov    	ecx, eax
  0x246b	call   	dword ptr [0xd47]
  === BLOCK LINK ===
    0x2471
=== CODE BLOCK END ===

=== CODE BLOCK ADDRESS 0x2471 ===
  0x2471	dec    	eax
  0x2472	mov    	ecx, dword ptr [0xd78]
  0x2478	dec    	eax
  0x2479	or     	eax, 0xffffffff
  0x247c	dec    	eax
  === BLOCK LINK ===
    0x247d
=== CODE BLOCK END ===

=== CODE BLOCK ADDRESS 0x247d ===
  0x247d	mov    	dword ptr [0x314d], eax
  0x2483	dec    	eax
  0x2484	mov    	dword ptr [0x314e], eax
  0x248a	mov    	eax, dword ptr [0x2bc4]
  0x2490	mov    	dword ptr [ecx], eax
  === BLOCK LINK ===
    0x2492
=== CODE BLOCK END ===

=== CODE BLOCK ADDRESS 0x2492 ===
  0x2492	dec    	eax
  0x2493	mov    	ecx, dword ptr [0xd6f]
  0x2499	mov    	eax, dword ptr [0x2ba9]
  0x249f	mov    	dword ptr [ecx], eax
  0x24a1	call   	0x2870
  === BLOCK LINK ===
    0x24a6
=== CODE BLOCK END ===

=== CODE BLOCK ADDRESS 0x24a6 ===
  0x24a6	cmp    	dword ptr [0x2b53], 0
  0x24ad	jne    	0x24bc
  === BLOCK LINK ===
    0x24af
=== CODE BLOCK END ===

=== CODE BLOCK ADDRESS 0x24af ===
  0x24af	dec    	eax
  0x24b0	lea    	ecx, [0x3ba]
  0x24b6	call   	dword ptr [0xd1c]
  === BLOCK LINK ===
    0x24bc
=== CODE BLOCK END ===

=== CODE BLOCK ADDRESS 0x24bc ===
  0x24bc	xor    	eax, eax
  0x24be	dec    	eax
  0x24bf	add    	esp, 0x28
  0x24c2	ret    	
  0x24c3	int3   	
  === BLOCK LINK ===
    0x24c4
=== CODE BLOCK END ===

=== CODE BLOCK ADDRESS 0x24c4 ===
  0x24c4	int3   	
  0x24c5	int3   	
  0x24c6	int3   	
  0x24c7	int3   	
  0x24c8	int3   	
  === BLOCK LINK ===
    0x24c9
=== CODE BLOCK END ===

=== CODE BLOCK ADDRESS 0x24c9 ===
  0x24c9	int3   	
  0x24ca	int3   	
  0x24cb	int3   	
  0x24cc	int3   	
  0x24cd	int3   	
  === BLOCK LINK ===
    0x24ce
=== CODE BLOCK END ===

=== CODE BLOCK ADDRESS 0x24ce ===
  0x24ce	int3   	
  0x24cf	int3   	
  0x24d0	dec    	eax
  0x24d1	sub    	esp, 0x38
  0x24d4	mov    	eax, dword ptr [0x2b76]
  === BLOCK LINK ===
    0x24da
=== CODE BLOCK END ===

=== CODE BLOCK ADDRESS 0x24da ===
  0x24da	dec    	esp
  0x24db	lea    	eax, [0x2b57]
  0x24e1	inc    	esp
  0x24e2	mov    	ecx, dword ptr [0x2b64]
  0x24e8	dec    	eax
  === BLOCK LINK ===
    0x24e9
=== CODE BLOCK END ===

=== CODE BLOCK ADDRESS 0x24e9 ===
  0x24e9	lea    	edx, [0x2b41]
  0x24ef	mov    	dword ptr [0x2b4f], eax
  0x24f5	dec    	eax
  0x24f6	lea    	ecx, [0x2b2c]
  0x24fc	dec    	eax
  === BLOCK LINK ===
    0x24fd
=== CODE BLOCK END ===

=== CODE BLOCK ADDRESS 0x24fd ===
  0x24fd	lea    	eax, [0x2b41]
  0x2503	dec    	eax
  0x2504	mov    	dword ptr [esp + 0x20], eax
  0x2508	call   	dword ptr [0xca2]
  === BLOCK LINK ===
    0x250e
=== CODE BLOCK END ===

=== CODE BLOCK ADDRESS 0x250e ===
  0x250e	mov    	dword ptr [0x2b18], eax
  0x2514	dec    	eax
  0x2515	add    	esp, 0x38
  0x2518	ret    	
  0x2519	int3   	
  === BLOCK LINK ===
    0x251a
=== CODE BLOCK END ===

=== CODE BLOCK ADDRESS 0x251a ===
  0x251a	int3   	
  0x251b	int3   	
  0x251c	int3   	
  0x251d	int3   	
  0x251e	int3   	
  === BLOCK LINK ===
    0x251f
=== CODE BLOCK END ===

=== CODE BLOCK ADDRESS 0x251f ===
  0x251f	int3   	
  0x2520	dec    	eax
  0x2521	mov    	dword ptr [esp + 8], ebx
  0x2525	dec    	eax
  0x2526	mov    	dword ptr [esp + 0x10], esi
  === BLOCK LINK ===
    0x252a
=== CODE BLOCK END ===

=== CODE BLOCK ADDRESS 0x252a ===
  0x252a	dec    	eax
  0x252b	mov    	dword ptr [esp + 0x18], edi
  0x252f	inc    	ecx
  0x2530	push   	edi
  0x2531	dec    	eax
  === BLOCK LINK ===
    0x2532
=== CODE BLOCK END ===

=== CODE BLOCK ADDRESS 0x2532 ===
  0x2532	sub    	esp, 0x30
  0x2535	dec    	eax
  0x2537	mov    	eax, dword ptr [0x30]
  0x253e	dec    	eax
  0x253f	mov    	ebx, dword ptr [eax + 8]
  === BLOCK LINK ===
    0x2542
=== CODE BLOCK END ===

=== CODE BLOCK ADDRESS 0x2542 ===
  0x2542	xor    	esi, esi
  0x2544	xor    	eax, eax
  0x2546	.byte  	0xf0
  0x2547	dec    	eax
  0x2548	cmpxchg  	dword ptr [0x3091], ebx
  === BLOCK LINK ===
    0x254f
=== CODE BLOCK END ===

=== CODE BLOCK ADDRESS 0x254f ===
  0x254f	je     	0x256c
  === BLOCK LINK ===
    0x2551
=== CODE BLOCK END ===

=== CODE BLOCK ADDRESS 0x2551 ===
  0x2551	dec    	eax
  0x2552	cmp    	eax, ebx
  0x2554	jne    	0x255f
  === BLOCK LINK ===
    0x2556
=== CODE BLOCK END ===

=== CODE BLOCK ADDRESS 0x2556 ===
  0x2556	mov    	ebx, 1
  0x255b	mov    	esi, ebx
  0x255d	jmp    	0x2571
  === BLOCK LINK ===
    0x255f
=== CODE BLOCK END ===

=== CODE BLOCK ADDRESS 0x255f ===
  0x255f	mov    	ecx, 0x3e8
  0x2564	call   	dword ptr [0xc16]
  === BLOCK LINK ===
    0x256a
=== CODE BLOCK END ===

=== CODE BLOCK ADDRESS 0x256a ===
  0x256a	jmp    	0x2544
  === BLOCK LINK ===
    0x256c
=== CODE BLOCK END ===

=== CODE BLOCK ADDRESS 0x256c ===
  0x256c	mov    	ebx, 1
  0x2571	mov    	eax, dword ptr [0x3071]
  0x2577	cmp    	eax, ebx
  0x2579	jne    	0x2587
  === BLOCK LINK ===
    0x257b
=== CODE BLOCK END ===

=== CODE BLOCK ADDRESS 0x257b ===
  0x257b	mov    	ecx, 0x1f
  0x2580	call   	0x2863
  === BLOCK LINK ===
    0x2585
=== CODE BLOCK END ===

=== CODE BLOCK ADDRESS 0x2585 ===
  0x2585	jmp    	0x25ec
  === BLOCK LINK ===
    0x2587
=== CODE BLOCK END ===

=== CODE BLOCK ADDRESS 0x2587 ===
  0x2587	mov    	eax, dword ptr [0x305b]
  0x258d	test   	eax, eax
  0x258f	jne    	0x25e6
  === BLOCK LINK ===
    0x2591
=== CODE BLOCK END ===

=== CODE BLOCK ADDRESS 0x2591 ===
  0x2591	mov    	dword ptr [0x3051], ebx
  0x2597	dec    	esp
  0x2598	lea    	edi, [0xe7a]
  0x259e	dec    	eax
  0x259f	lea    	edi, [0xe5b]
  === BLOCK LINK ===
    0x25a5
=== CODE BLOCK END ===

=== CODE BLOCK ADDRESS 0x25a5 ===
  0x25a5	dec    	eax
  0x25a6	mov    	dword ptr [esp + 0x28], edi
  0x25aa	mov    	dword ptr [esp + 0x20], eax
  0x25ae	dec    	ecx
  0x25af	cmp    	edi, edi
  === BLOCK LINK ===
    0x25b1
=== CODE BLOCK END ===

=== CODE BLOCK ADDRESS 0x25b1 ===
  0x25b1	jae    	0x25d8
  === BLOCK LINK ===
    0x25b3
=== CODE BLOCK END ===

=== CODE BLOCK ADDRESS 0x25b3 ===
  0x25b3	test   	eax, eax
  0x25b5	jne    	0x25dc
  === BLOCK LINK ===
    0x25b7
=== CODE BLOCK END ===

=== CODE BLOCK ADDRESS 0x25b7 ===
  0x25b7	dec    	eax
  0x25b8	cmp    	dword ptr [edi], 0
  0x25bb	je     	0x25cd
  === BLOCK LINK ===
    0x25bd
=== CODE BLOCK END ===

=== CODE BLOCK ADDRESS 0x25bd ===
  0x25bd	dec    	eax
  0x25be	mov    	eax, dword ptr [edi]
  0x25c0	dec    	eax
  0x25c1	mov    	ecx, dword ptr [0xe19]
  0x25c7	call   	ecx
  === BLOCK LINK ===
    0x25c9
=== CODE BLOCK END ===

=== CODE BLOCK ADDRESS 0x25c9 ===
  0x25c9	mov    	dword ptr [esp + 0x20], eax
  0x25cd	dec    	eax
  0x25ce	add    	edi, 8
  0x25d1	dec    	eax
  0x25d2	mov    	dword ptr [esp + 0x28], edi
  === BLOCK LINK ===
    0x25d6
=== CODE BLOCK END ===

=== CODE BLOCK ADDRESS 0x25d6 ===
  0x25d6	jmp    	0x25ae
  === BLOCK LINK ===
    0x25d8
=== CODE BLOCK END ===

=== CODE BLOCK ADDRESS 0x25d8 ===
  0x25d8	test   	eax, eax
  0x25da	je     	0x25ec
  === BLOCK LINK ===
    0x25dc
=== CODE BLOCK END ===

=== CODE BLOCK ADDRESS 0x25dc ===
  0x25dc	mov    	eax, 0xff
  0x25e1	jmp    	0x26c8
  === BLOCK LINK ===
    0x25e6
=== CODE BLOCK END ===

=== CODE BLOCK ADDRESS 0x25e6 ===
  0x25e6	mov    	dword ptr [0x2a38], ebx
  0x25ec	mov    	eax, dword ptr [0x2ff6]
  0x25f2	cmp    	eax, ebx
  0x25f4	jne    	0x2613
  === BLOCK LINK ===
    0x25f6
=== CODE BLOCK END ===

=== CODE BLOCK ADDRESS 0x25f6 ===
  0x25f6	dec    	eax
  0x25f7	lea    	edx, [0xdfb]
  0x25fd	dec    	eax
  0x25fe	lea    	ecx, [0xde4]
  0x2604	call   	0x2a3e
  === BLOCK LINK ===
    0x2609
=== CODE BLOCK END ===

=== CODE BLOCK ADDRESS 0x2609 ===
  0x2609	mov    	dword ptr [0x2fd5], 2
  0x2613	test   	esi, esi
  0x2615	jne    	0x2620
  === BLOCK LINK ===
    0x2617
=== CODE BLOCK END ===

=== CODE BLOCK ADDRESS 0x2617 ===
  0x2617	xor    	eax, eax
  0x2619	dec    	eax
  0x261a	xchg   	dword ptr [0x2fc0], eax
  0x2620	dec    	eax
  0x2621	cmp    	dword ptr [0x2fc8], 0
  === BLOCK LINK ===
    0x2628
=== CODE BLOCK END ===

=== CODE BLOCK ADDRESS 0x2628 ===
  0x2628	je     	0x2654
  === BLOCK LINK ===
    0x262a
=== CODE BLOCK END ===

=== CODE BLOCK ADDRESS 0x262a ===
  0x262a	dec    	eax
  0x262b	lea    	ecx, [0x2fbf]
  0x2631	call   	0x28d0
  === BLOCK LINK ===
    0x2636
=== CODE BLOCK END ===

=== CODE BLOCK ADDRESS 0x2636 ===
  0x2636	test   	eax, eax
  0x2638	je     	0x2654
  === BLOCK LINK ===
    0x263a
=== CODE BLOCK END ===

=== CODE BLOCK ADDRESS 0x263a ===
  0x263a	inc    	ebp
  0x263b	xor    	eax, eax
  0x263d	inc    	ecx
  0x263e	lea    	edx, [eax + 2]
  0x2641	xor    	ecx, ecx
  === BLOCK LINK ===
    0x2643
=== CODE BLOCK END ===

=== CODE BLOCK ADDRESS 0x2643 ===
  0x2643	dec    	eax
  0x2644	mov    	eax, dword ptr [0x2fa6]
  0x264a	dec    	esp
  0x264b	mov    	ecx, dword ptr [0xd8f]
  0x2651	inc    	ecx
  === BLOCK LINK ===
    0x2652
=== CODE BLOCK END ===

=== CODE BLOCK ADDRESS 0x2652 ===
  0x2652	call   	ecx
  === BLOCK LINK ===
    0x2654
=== CODE BLOCK END ===

=== CODE BLOCK ADDRESS 0x2654 ===
  0x2654	dec    	esp
  0x2655	mov    	eax, dword ptr [0x29dd]
  0x265b	dec    	eax
  0x265c	mov    	edx, dword ptr [0x29ce]
  0x2662	mov    	ecx, dword ptr [0x29c0]
  === BLOCK LINK ===
    0x2668
=== CODE BLOCK END ===

=== CODE BLOCK ADDRESS 0x2668 ===
  0x2668	call   	0x1914
  === BLOCK LINK ===
    0x266d
=== CODE BLOCK END ===

=== CODE BLOCK ADDRESS 0x266d ===
  0x266d	mov    	dword ptr [0x29ad], eax
  0x2673	cmp    	dword ptr [0x29c6], 0
  0x267a	jne    	0x2684
  === BLOCK LINK ===
    0x267c
=== CODE BLOCK END ===

=== CODE BLOCK ADDRESS 0x267c ===
  0x267c	mov    	ecx, eax
  0x267e	call   	dword ptr [0xb3c]
  === BLOCK LINK ===
    0x2684
=== CODE BLOCK END ===

=== CODE BLOCK ADDRESS 0x2684 ===
  0x2684	cmp    	dword ptr [0x2999], 0
  0x268b	jne    	0x2699
  === BLOCK LINK ===
    0x268d
=== CODE BLOCK END ===

=== CODE BLOCK ADDRESS 0x268d ===
  0x268d	call   	dword ptr [0xb3d]
  === BLOCK LINK ===
    0x2693
=== CODE BLOCK END ===

=== CODE BLOCK ADDRESS 0x2693 ===
  0x2693	mov    	eax, dword ptr [0x2987]
  0x2699	jmp    	0x26c8
  === BLOCK LINK ===
    0x269b
=== CODE BLOCK END ===

=== CODE BLOCK ADDRESS 0x269b ===
  0x269b	mov    	dword ptr [0x297f], eax
  0x26a1	cmp    	dword ptr [0x2998], 0
  0x26a8	jne    	0x26b3
  === BLOCK LINK ===
    0x26aa
=== CODE BLOCK END ===

=== CODE BLOCK ADDRESS 0x26aa ===
  0x26aa	mov    	ecx, eax
  0x26ac	call   	dword ptr [0xb16]
  === BLOCK LINK ===
    0x26b2
=== CODE BLOCK END ===

=== CODE BLOCK ADDRESS 0x26b2 ===
  0x26b2	int3   	
  0x26b3	cmp    	dword ptr [0x296a], 0
  0x26ba	jne    	0x26c8
  === BLOCK LINK ===
    0x26bc
=== CODE BLOCK END ===

=== CODE BLOCK ADDRESS 0x26bc ===
  0x26bc	call   	dword ptr [0xb0e]
  === BLOCK LINK ===
    0x26c2
=== CODE BLOCK END ===

=== CODE BLOCK ADDRESS 0x26c2 ===
  0x26c2	mov    	eax, dword ptr [0x2958]
  0x26c8	dec    	eax
  0x26c9	mov    	ebx, dword ptr [esp + 0x40]
  0x26cd	dec    	eax
  0x26ce	mov    	esi, dword ptr [esp + 0x48]
  === BLOCK LINK ===
    0x26d2
=== CODE BLOCK END ===

=== CODE BLOCK ADDRESS 0x26d2 ===
  0x26d2	dec    	eax
  0x26d3	mov    	edi, dword ptr [esp + 0x50]
  0x26d7	dec    	eax
  0x26d8	add    	esp, 0x30
  0x26db	inc    	ecx
  === BLOCK LINK ===
    0x26dc
=== CODE BLOCK END ===

=== CODE BLOCK ADDRESS 0x26dc ===
  0x26dc	pop    	edi
  0x26dd	ret    	
  0x26de	int3   	
  0x26df	int3   	
  0x26e0	int3   	
  === BLOCK LINK ===
    0x26e1
=== CODE BLOCK END ===

=== CODE BLOCK ADDRESS 0x1234 ===
  0x1234	inc    	eax
  0x1235	test   	dh, dh
  === BLOCK LINK ===
    0x1237
=== CODE BLOCK END ===

=== CODE BLOCK ADDRESS 0x26e1 ===
  0x26e1	int3   	
  0x26e2	int3   	
  0x26e3	int3   	
  0x26e4	int3   	
  0x26e5	int3   	
  === BLOCK LINK ===
    0x26e6
=== CODE BLOCK END ===

=== CODE BLOCK ADDRESS 0x26e6 ===
  0x26e6	int3   	
  0x26e7	int3   	
  0x26e8	int3   	
  0x26e9	int3   	
  0x26ea	int3   	
  === BLOCK LINK ===
    0x26eb
=== CODE BLOCK END ===

=== CODE BLOCK ADDRESS 0x26eb ===
  0x26eb	int3   	
  0x26ec	int3   	
  0x26ed	int3   	
  0x26ee	int3   	
  0x26ef	int3   	
  === BLOCK LINK ===
    0x26f0
=== CODE BLOCK END ===

=== CODE BLOCK ADDRESS 0x26f0 ===
  0x26f0	dec    	eax
  0x26f1	sub    	esp, 0x28
  0x26f4	call   	0x2964
  === BLOCK LINK ===
    0x26f9
=== CODE BLOCK END ===

=== CODE BLOCK ADDRESS 0x26f9 ===
  0x26f9	dec    	eax
  0x26fa	add    	esp, 0x28
  0x26fd	jmp    	0x2520
  === BLOCK LINK ===
    0x2702
=== CODE BLOCK END ===

=== CODE BLOCK ADDRESS 0x2702 ===
  0x2702	int3   	
  0x2703	int3   	
  0x2704	int3   	
  0x2705	int3   	
  0x2706	int3   	
  === BLOCK LINK ===
    0x2707
=== CODE BLOCK END ===

=== CODE BLOCK ADDRESS 0x2707 ===
  0x2707	int3   	
  0x2708	int3   	
  0x2709	int3   	
  0x270a	int3   	
  0x270b	int3   	
  === BLOCK LINK ===
    0x270c
=== CODE BLOCK END ===

=== CODE BLOCK ADDRESS 0x270c ===
  0x270c	int3   	
  0x270d	int3   	
  0x270e	int3   	
  0x270f	int3   	
  0x2710	int3   	
  === BLOCK LINK ===
    0x2711
=== CODE BLOCK END ===

=== CODE BLOCK ADDRESS 0x2711 ===
  0x2711	int3   	
  0x2712	int3   	
  0x2713	int3   	
  0x2714	int3   	
  0x2715	int3   	
  === BLOCK LINK ===
    0x2716
=== CODE BLOCK END ===

=== CODE BLOCK ADDRESS 0x2716 ===
  0x2716	nop    	word ptr [eax + eax]
  0x2720	dec    	eax
  0x2721	cmp    	ecx, dword ptr [0x28e1]
  0x2727	jne    	0x2739
  === BLOCK LINK ===
    0x2729
=== CODE BLOCK END ===

=== CODE BLOCK ADDRESS 0x2729 ===
  0x2729	dec    	eax
  0x272a	rol    	ecx, 0x10
  0x272d	test   	cx, 0xffff
  0x2732	jne    	0x2735
  === BLOCK LINK ===
    0x2734
=== CODE BLOCK END ===

=== CODE BLOCK ADDRESS 0x2734 ===
  0x2734	ret    	
  0x2735	dec    	eax
  0x2736	ror    	ecx, 0x10
  0x2739	jmp    	0x2ab0
  === BLOCK LINK ===
    0x273e
=== CODE BLOCK END ===

=== CODE BLOCK ADDRESS 0x273e ===
  0x273e	int3   	
  0x273f	int3   	
  0x2740	int3   	
  0x2741	int3   	
  0x2742	int3   	
  === BLOCK LINK ===
    0x2743
=== CODE BLOCK END ===

=== CODE BLOCK ADDRESS 0x2743 ===
  0x2743	int3   	
  0x2744	int3   	
  0x2745	int3   	
  0x2746	int3   	
  0x2747	int3   	
  === BLOCK LINK ===
    0x2748
=== CODE BLOCK END ===

=== CODE BLOCK ADDRESS 0x2748 ===
  0x2748	int3   	
  0x2749	int3   	
  0x274a	int3   	
  0x274b	int3   	
  0x274c	int3   	
  === BLOCK LINK ===
    0x274d
=== CODE BLOCK END ===

=== CODE BLOCK ADDRESS 0x274d ===
  0x274d	int3   	
  0x274e	int3   	
  0x274f	int3   	
  0x2750	dec    	eax
  0x2751	sub    	esp, 0x28
  === BLOCK LINK ===
    0x2754
=== CODE BLOCK END ===

=== CODE BLOCK ADDRESS 0x2754 ===
  0x2754	dec    	eax
  0x2755	mov    	eax, dword ptr [ecx]
  0x2757	cmp    	dword ptr [eax], 0xe06d7363
  0x275d	jne    	0x2782
  === BLOCK LINK ===
    0x275f
=== CODE BLOCK END ===

=== CODE BLOCK ADDRESS 0x275f ===
  0x275f	cmp    	dword ptr [eax + 0x18], 4
  0x2763	jne    	0x2782
  === BLOCK LINK ===
    0x2765
=== CODE BLOCK END ===

=== CODE BLOCK ADDRESS 0x2765 ===
  0x2765	mov    	ecx, dword ptr [eax + 0x20]
  0x2768	lea    	eax, [ecx - 0x19930520]
  0x276e	cmp    	eax, 2
  0x2771	jbe    	0x277b
  === BLOCK LINK ===
    0x2773
=== CODE BLOCK END ===

=== CODE BLOCK ADDRESS 0x2773 ===
  0x2773	cmp    	ecx, 0x1994000
  0x2779	jne    	0x2782
  === BLOCK LINK ===
    0x277b
=== CODE BLOCK END ===

=== CODE BLOCK ADDRESS 0x277b ===
  0x277b	call   	dword ptr [0xa77]
  === BLOCK LINK ===
    0x2781
=== CODE BLOCK END ===

=== CODE BLOCK ADDRESS 0x2781 ===
  0x2781	int3   	
  0x2782	xor    	eax, eax
  0x2784	dec    	eax
  0x2785	add    	esp, 0x28
  0x2788	ret    	
  === BLOCK LINK ===
    0x2789
=== CODE BLOCK END ===

=== CODE BLOCK ADDRESS 0x1597 ===
  0x1597	dec    	eax
  0x1598	lea    	ecx, [ebp + 0x48]
  0x159b	dec    	eax
  0x159c	call   	dword ptr [0x1e0e]
  === BLOCK LINK ===
    0x15a2
=== CODE BLOCK END ===

=== CODE BLOCK ADDRESS 0x2789 ===
  0x2789	int3   	
  0x278a	int3   	
  0x278b	int3   	
  0x278c	int3   	
  0x278d	int3   	
  === BLOCK LINK ===
    0x278e
=== CODE BLOCK END ===

=== CODE BLOCK ADDRESS 0x278e ===
  0x278e	int3   	
  0x278f	int3   	
  0x2790	dec    	eax
  0x2791	sub    	esp, 0x28
  0x2794	dec    	eax
  === BLOCK LINK ===
    0x2795
=== CODE BLOCK END ===

=== CODE BLOCK ADDRESS 0x2795 ===
  0x2795	lea    	ecx, [0xffffffb5]
  0x279b	call   	dword ptr [0x9d7]
  === BLOCK LINK ===
    0x27a1
=== CODE BLOCK END ===

=== CODE BLOCK ADDRESS 0x27a1 ===
  0x27a1	xor    	eax, eax
  0x27a3	dec    	eax
  0x27a4	add    	esp, 0x28
  0x27a7	ret    	
  0x27a8	int3   	
  === BLOCK LINK ===
    0x27a9
=== CODE BLOCK END ===

=== CODE BLOCK ADDRESS 0x27a9 ===
  0x27a9	int3   	
  0x27aa	int3   	
  0x27ab	int3   	
  0x27ac	int3   	
  0x27ad	int3   	
  === BLOCK LINK ===
    0x27ae
=== CODE BLOCK END ===

=== CODE BLOCK ADDRESS 0x27ae ===
  0x27ae	jmp    	dword ptr [0xa4c]
  === BLOCK LINK ===
    0x27b4
=== CODE BLOCK END ===

=== CODE BLOCK ADDRESS 0x27b4 ===
  0x27b4	int3   	
  0x27b5	int3   	
  0x27b6	int3   	
  0x27b7	int3   	
  0x27b8	int3   	
  === BLOCK LINK ===
    0x27b9
=== CODE BLOCK END ===

=== CODE BLOCK ADDRESS 0x27b9 ===
  0x27b9	int3   	
  0x27ba	int3   	
  0x27bb	int3   	
  0x27bc	dec    	eax
  0x27bd	sub    	esp, 0x18
  === BLOCK LINK ===
    0x27c0
=== CODE BLOCK END ===

=== CODE BLOCK ADDRESS 0x27c0 ===
  0x27c0	xor    	edx, edx
  0x27c2	dec    	eax
  0x27c3	lea    	eax, [ecx - 1]
  0x27c6	dec    	eax
  0x27c7	cmp    	eax, -3
  === BLOCK LINK ===
    0x27ca
=== CODE BLOCK END ===

=== CODE BLOCK ADDRESS 0x27ca ===
  0x27ca	ja     	0x2808
  === BLOCK LINK ===
    0x27cc
=== CODE BLOCK END ===

=== CODE BLOCK ADDRESS 0x27cc ===
  0x27cc	mov    	eax, 0x5a4d
  0x27d1	cmp    	word ptr [ecx], ax
  0x27d4	jne    	0x2800
  === BLOCK LINK ===
    0x27d6
=== CODE BLOCK END ===

=== CODE BLOCK ADDRESS 0x27d6 ===
  0x27d6	cmp    	dword ptr [ecx + 0x3c], edx
  0x27d9	jl     	0x2800
  === BLOCK LINK ===
    0x27db
=== CODE BLOCK END ===

=== CODE BLOCK ADDRESS 0x27db ===
  0x27db	cmp    	dword ptr [ecx + 0x3c], 0x10000000
  0x27e2	jae    	0x2800
  === BLOCK LINK ===
    0x27e4
=== CODE BLOCK END ===

=== CODE BLOCK ADDRESS 0x27e4 ===
  0x27e4	dec    	eax
  0x27e5	arpl   	word ptr [ecx + 0x3c], ax
  0x27e8	dec    	eax
  0x27e9	add    	eax, ecx
  0x27eb	dec    	eax
  === BLOCK LINK ===
    0x27ec
=== CODE BLOCK END ===

=== CODE BLOCK ADDRESS 0x27ec ===
  0x27ec	mov    	dword ptr [esp], eax
  0x27ef	cmp    	dword ptr [eax], 0x4550
  0x27f5	dec    	eax
  0x27f6	cmovne  	eax, edx
  0x27f9	dec    	eax
  === BLOCK LINK ===
    0x27fa
=== CODE BLOCK END ===

=== CODE BLOCK ADDRESS 0x27fa ===
  0x27fa	mov    	edx, eax
  0x27fc	dec    	eax
  0x27fd	mov    	dword ptr [esp], eax
  0x2800	jmp    	0x2808
  === BLOCK LINK ===
    0x2802
=== CODE BLOCK END ===

=== CODE BLOCK ADDRESS 0x2802 ===
  0x2802	xor    	edx, edx
  0x2804	dec    	eax
  0x2805	mov    	dword ptr [esp], edx
  0x2808	dec    	eax
  0x2809	mov    	eax, edx
  === BLOCK LINK ===
    0x280b
=== CODE BLOCK END ===

=== CODE BLOCK ADDRESS 0x280b ===
  0x280b	dec    	eax
  0x280c	add    	esp, 0x18
  0x280f	ret    	
  0x2810	int3   	
  0x2811	int3   	
  === BLOCK LINK ===
    0x2812
=== CODE BLOCK END ===

=== CODE BLOCK ADDRESS 0x2812 ===
  0x2812	int3   	
  0x2813	int3   	
  0x2814	int3   	
  0x2815	int3   	
  0x2816	int3   	
  === BLOCK LINK ===
    0x2817
=== CODE BLOCK END ===

=== CODE BLOCK ADDRESS 0x2817 ===
  0x2817	int3   	
  0x2818	inc    	eax
  0x2819	push   	ebx
  0x281a	dec    	eax
  0x281b	sub    	esp, 0x20
  === BLOCK LINK ===
    0x281e
=== CODE BLOCK END ===

=== CODE BLOCK ADDRESS 0x281e ===
  0x281e	mov    	ebx, ecx
  0x2820	xor    	ecx, ecx
  0x2822	call   	dword ptr [0x948]
  === BLOCK LINK ===
    0x2828
=== CODE BLOCK END ===

=== CODE BLOCK ADDRESS 0x2828 ===
  0x2828	dec    	eax
  0x2829	test   	eax, eax
  0x282b	je     	0x2855
  === BLOCK LINK ===
    0x282d
=== CODE BLOCK END ===

=== CODE BLOCK ADDRESS 0x282d ===
  0x282d	dec    	eax
  0x282e	mov    	ecx, eax
  0x2830	call   	0x27bc
  === BLOCK LINK ===
    0x2835
=== CODE BLOCK END ===

=== CODE BLOCK ADDRESS 0x2835 ===
  0x2835	dec    	eax
  0x2836	test   	eax, eax
  0x2838	je     	0x2855
  === BLOCK LINK ===
    0x283a
=== CODE BLOCK END ===

=== CODE BLOCK ADDRESS 0x283a ===
  0x283a	mov    	ecx, 2
  0x283f	cmp    	word ptr [eax + 0x5c], cx
  0x2843	jne    	0x2849
  === BLOCK LINK ===
    0x2845
=== CODE BLOCK END ===

=== CODE BLOCK ADDRESS 0x2845 ===
  0x2845	mov    	eax, ecx
  0x2847	jmp    	0x2857
  === BLOCK LINK ===
    0x2849
=== CODE BLOCK END ===

=== CODE BLOCK ADDRESS 0x2849 ===
  0x2849	cmp    	word ptr [eax + 0x5c], 3
  0x284e	mov    	eax, 1
  0x2853	je     	0x2857
  === BLOCK LINK ===
    0x2855
=== CODE BLOCK END ===

=== CODE BLOCK ADDRESS 0x2855 ===
  0x2855	mov    	eax, ebx
  0x2857	dec    	eax
  0x2858	add    	esp, 0x20
  0x285b	pop    	ebx
  0x285c	ret    	
  === BLOCK LINK ===
    0x285d
=== CODE BLOCK END ===

=== CODE BLOCK ADDRESS 0x285d ===
  0x285d	int3   	
  0x285e	int3   	
  0x285f	int3   	
  0x2860	int3   	
  0x2861	int3   	
  === BLOCK LINK ===
    0x2862
=== CODE BLOCK END ===

=== CODE BLOCK ADDRESS 0x2862 ===
  0x2862	int3   	
  0x2863	jmp    	dword ptr [0x93f]
  === BLOCK LINK ===
    0x2869
=== CODE BLOCK END ===

=== CODE BLOCK ADDRESS 0x2869 ===
  0x2869	int3   	
  0x286a	int3   	
  0x286b	int3   	
  0x286c	int3   	
  0x286d	int3   	
  === BLOCK LINK ===
    0x286e
=== CODE BLOCK END ===

=== CODE BLOCK ADDRESS 0x286e ===
  0x286e	int3   	
  0x286f	int3   	
  0x2870	xor    	eax, eax
  0x2872	ret    	
  0x2873	int3   	
  === BLOCK LINK ===
    0x2874
=== CODE BLOCK END ===

=== CODE BLOCK ADDRESS 0x2874 ===
  0x2874	int3   	
  0x2875	int3   	
  0x2876	int3   	
  0x2877	int3   	
  0x2878	int3   	
  === BLOCK LINK ===
    0x2879
=== CODE BLOCK END ===

=== CODE BLOCK ADDRESS 0x2879 ===
  0x2879	int3   	
  0x287a	int3   	
  0x287b	int3   	
  0x287c	int3   	
  0x287d	int3   	
  === BLOCK LINK ===
    0x287e
=== CODE BLOCK END ===

=== CODE BLOCK ADDRESS 0x287e ===
  0x287e	int3   	
  0x287f	int3   	
  0x2880	dec    	esp
  0x2881	arpl   	word ptr [ecx + 0x3c], ax
  0x2884	inc    	ebp
  === BLOCK LINK ===
    0x2885
=== CODE BLOCK END ===

=== CODE BLOCK ADDRESS 0x2885 ===
  0x2885	xor    	ecx, ecx
  0x2887	dec    	esp
  0x2888	add    	eax, ecx
  0x288a	dec    	esp
  0x288b	mov    	edx, edx
  === BLOCK LINK ===
    0x288d
=== CODE BLOCK END ===

=== CODE BLOCK ADDRESS 0x288d ===
  0x288d	inc    	ecx
  0x288e	movzx  	eax, word ptr [eax + 0x14]
  0x2892	inc    	ebp
  0x2893	movzx  	ebx, word ptr [eax + 6]
  0x2897	dec    	eax
  === BLOCK LINK ===
    0x2898
=== CODE BLOCK END ===

=== CODE BLOCK ADDRESS 0x2898 ===
  0x2898	add    	eax, 0x18
  0x289b	dec    	ecx
  0x289c	add    	eax, eax
  0x289e	inc    	ebp
  0x289f	test   	ebx, ebx
  === BLOCK LINK ===
    0x28a1
=== CODE BLOCK END ===

=== CODE BLOCK ADDRESS 0x28a1 ===
  0x28a1	je     	0x28c1
  === BLOCK LINK ===
    0x28a3
=== CODE BLOCK END ===

=== CODE BLOCK ADDRESS 0x28a3 ===
  0x28a3	mov    	edx, dword ptr [eax + 0xc]
  0x28a6	dec    	esp
  0x28a7	cmp    	edx, edx
  0x28a9	jb     	0x28b5
  === BLOCK LINK ===
    0x28ab
=== CODE BLOCK END ===

=== CODE BLOCK ADDRESS 0x28ab ===
  0x28ab	mov    	ecx, dword ptr [eax + 8]
  0x28ae	add    	ecx, edx
  0x28b0	dec    	esp
  0x28b1	cmp    	edx, ecx
  0x28b3	jb     	0x28c3
  === BLOCK LINK ===
    0x28b5
=== CODE BLOCK END ===

=== CODE BLOCK ADDRESS 0x28b5 ===
  0x28b5	inc    	ecx
  0x28b6	inc    	ecx
  0x28b8	dec    	eax
  0x28b9	add    	eax, 0x28
  0x28bc	inc    	ebp
  === BLOCK LINK ===
    0x28bd
=== CODE BLOCK END ===

=== CODE BLOCK ADDRESS 0x28bd ===
  0x28bd	cmp    	ecx, ebx
  0x28bf	jb     	0x28a3
  === BLOCK LINK ===
    0x28c1
=== CODE BLOCK END ===

=== CODE BLOCK ADDRESS 0x28c1 ===
  0x28c1	xor    	eax, eax
  0x28c3	ret    	
  0x28c4	int3   	
  0x28c5	int3   	
  0x28c6	int3   	
  === BLOCK LINK ===
    0x28c7
=== CODE BLOCK END ===

=== CODE BLOCK ADDRESS 0x136e ===
  0x136e	inc    	ecx
  0x136f	mov    	byte ptr [edi], al
  0x1371	cmp    	word ptr [ebp + 0x13a], bx
  === BLOCK LINK ===
    0x1378
=== CODE BLOCK END ===

=== CODE BLOCK ADDRESS 0x28c7 ===
  0x28c7	int3   	
  0x28c8	int3   	
  0x28c9	int3   	
  0x28ca	int3   	
  0x28cb	int3   	
  === BLOCK LINK ===
    0x28cc
=== CODE BLOCK END ===

=== CODE BLOCK ADDRESS 0x28cc ===
  0x28cc	int3   	
  0x28cd	int3   	
  0x28ce	int3   	
  0x28cf	int3   	
  0x28d0	dec    	eax
  === BLOCK LINK ===
    0x28d1
=== CODE BLOCK END ===

=== CODE BLOCK ADDRESS 0x28d1 ===
  0x28d1	mov    	dword ptr [esp + 8], ebx
  0x28d5	push   	edi
  0x28d6	dec    	eax
  0x28d7	sub    	esp, 0x20
  0x28da	dec    	eax
  === BLOCK LINK ===
    0x28db
=== CODE BLOCK END ===

=== CODE BLOCK ADDRESS 0x28db ===
  0x28db	mov    	ebx, ecx
  0x28dd	dec    	eax
  0x28de	lea    	edi, [0xffffd71c]
  0x28e4	dec    	eax
  0x28e5	mov    	ecx, edi
  === BLOCK LINK ===
    0x28e7
=== CODE BLOCK END ===

=== CODE BLOCK ADDRESS 0x28e7 ===
  0x28e7	call   	0x2930
  === BLOCK LINK ===
    0x28ec
=== CODE BLOCK END ===

=== CODE BLOCK ADDRESS 0x28ec ===
  0x28ec	test   	eax, eax
  0x28ee	je     	0x2912
  === BLOCK LINK ===
    0x28f0
=== CODE BLOCK END ===

=== CODE BLOCK ADDRESS 0x28f0 ===
  0x28f0	dec    	eax
  0x28f1	sub    	ebx, edi
  0x28f3	dec    	eax
  0x28f4	mov    	edx, ebx
  0x28f6	dec    	eax
  === BLOCK LINK ===
    0x28f7
=== CODE BLOCK END ===

=== CODE BLOCK ADDRESS 0x28f7 ===
  0x28f7	mov    	ecx, edi
  0x28f9	call   	0x2880
  === BLOCK LINK ===
    0x28fe
=== CODE BLOCK END ===

=== CODE BLOCK ADDRESS 0x28fe ===
  0x28fe	dec    	eax
  0x28ff	test   	eax, eax
  0x2901	je     	0x2912
  === BLOCK LINK ===
    0x2903
=== CODE BLOCK END ===

=== CODE BLOCK ADDRESS 0x2903 ===
  0x2903	mov    	eax, dword ptr [eax + 0x24]
  0x2906	shr    	eax, 0x1f
  0x2909	not    	eax
  0x290b	and    	eax, 1
  0x290e	jmp    	0x2912
  === BLOCK LINK ===
    0x2910
=== CODE BLOCK END ===

=== CODE BLOCK ADDRESS 0x2910 ===
  0x2910	xor    	eax, eax
  0x2912	dec    	eax
  0x2913	mov    	ebx, dword ptr [esp + 0x30]
  0x2917	dec    	eax
  0x2918	add    	esp, 0x20
  === BLOCK LINK ===
    0x291b
=== CODE BLOCK END ===

=== CODE BLOCK ADDRESS 0x291b ===
  0x291b	pop    	edi
  0x291c	ret    	
  0x291d	int3   	
  0x291e	int3   	
  0x291f	int3   	
  === BLOCK LINK ===
    0x2920
=== CODE BLOCK END ===

=== CODE BLOCK ADDRESS 0x2920 ===
  0x2920	int3   	
  0x2921	int3   	
  0x2922	int3   	
  0x2923	int3   	
  0x2924	int3   	
  === BLOCK LINK ===
    0x2925
=== CODE BLOCK END ===

=== CODE BLOCK ADDRESS 0x2925 ===
  0x2925	int3   	
  0x2926	int3   	
  0x2927	int3   	
  0x2928	int3   	
  0x2929	int3   	
  === BLOCK LINK ===
    0x292a
=== CODE BLOCK END ===

=== CODE BLOCK ADDRESS 0x292a ===
  0x292a	int3   	
  0x292b	int3   	
  0x292c	int3   	
  0x292d	int3   	
  0x292e	int3   	
  === BLOCK LINK ===
    0x292f
=== CODE BLOCK END ===

=== CODE BLOCK ADDRESS 0x292f ===
  0x292f	int3   	
  0x2930	mov    	eax, 0x5a4d
  0x2935	cmp    	word ptr [ecx], ax
  0x2938	jne    	0x295a
  === BLOCK LINK ===
    0x293a
=== CODE BLOCK END ===

=== CODE BLOCK ADDRESS 0x293a ===
  0x293a	dec    	eax
  0x293b	arpl   	word ptr [ecx + 0x3c], ax
  0x293e	dec    	eax
  0x293f	add    	eax, ecx
  0x2941	cmp    	dword ptr [eax], 0x4550
  === BLOCK LINK ===
    0x2947
=== CODE BLOCK END ===

=== CODE BLOCK ADDRESS 0x2947 ===
  0x2947	jne    	0x295a
  === BLOCK LINK ===
    0x2949
=== CODE BLOCK END ===

=== CODE BLOCK ADDRESS 0x2949 ===
  0x2949	mov    	ecx, 0x20b
  0x294e	cmp    	word ptr [eax + 0x18], cx
  0x2952	jne    	0x295a
  === BLOCK LINK ===
    0x2954
=== CODE BLOCK END ===

=== CODE BLOCK ADDRESS 0x2954 ===
  0x2954	mov    	eax, 1
  0x2959	ret    	
  0x295a	xor    	eax, eax
  0x295c	ret    	
  0x295d	int3   	
  === BLOCK LINK ===
    0x295e
=== CODE BLOCK END ===

=== CODE BLOCK ADDRESS 0x13c7 ===
  0x13c7	inc    	esp
  0x13c8	mov    	eax, esi
  0x13ca	dec    	eax
  0x13cb	lea    	edx, [0x2073]
  === BLOCK LINK ===
    0x13d1
=== CODE BLOCK END ===

=== CODE BLOCK ADDRESS 0x154f ===
  0x154f	dec    	eax
  0x1550	mov    	eax, dword ptr [edi]
  0x1552	inc    	ecx
  0x1553	mov    	ecx, 3
  === BLOCK LINK ===
    0x1558
=== CODE BLOCK END ===

=== CODE BLOCK ADDRESS 0x295e ===
  0x295e	int3   	
  0x295f	int3   	
  0x2960	int3   	
  0x2961	int3   	
  0x2962	int3   	
  === BLOCK LINK ===
    0x2963
=== CODE BLOCK END ===

=== CODE BLOCK ADDRESS 0x2963 ===
  0x2963	int3   	
  0x2964	dec    	eax
  0x2965	mov    	dword ptr [esp + 0x20], ebx
  0x2969	push   	ebp
  0x296a	dec    	eax
  === BLOCK LINK ===
    0x296b
=== CODE BLOCK END ===

=== CODE BLOCK ADDRESS 0x296b ===
  0x296b	mov    	ebp, esp
  0x296d	dec    	eax
  0x296e	sub    	esp, 0x20
  0x2971	dec    	eax
  0x2972	and    	dword ptr [ebp + 0x18], 0
  === BLOCK LINK ===
    0x2976
=== CODE BLOCK END ===

=== CODE BLOCK ADDRESS 0x2976 ===
  0x2976	dec    	eax
  0x2977	mov    	ebx, 0x2ddfa232
  0x297c	cdq    	
  0x297d	sub    	eax, dword ptr [eax]
  0x297f	add    	byte ptr [eax - 0x75], cl
  === BLOCK LINK ===
    0x2982
=== CODE BLOCK END ===

=== CODE BLOCK ADDRESS 0x2982 ===
  0x2982	add    	eax, 0x2681
  0x2987	dec    	eax
  0x2988	cmp    	eax, ebx
  0x298a	jne    	0x2a23
  === BLOCK LINK ===
    0x2990
=== CODE BLOCK END ===

=== CODE BLOCK ADDRESS 0x2990 ===
  0x2990	dec    	eax
  0x2991	lea    	ecx, [ebp + 0x18]
  0x2994	call   	dword ptr [0x7b6]
  === BLOCK LINK ===
    0x299a
=== CODE BLOCK END ===

=== CODE BLOCK ADDRESS 0x299a ===
  0x299a	dec    	eax
  0x299b	mov    	eax, dword ptr [ebp + 0x18]
  0x299e	dec    	eax
  0x299f	mov    	dword ptr [ebp + 0x10], eax
  0x29a2	call   	dword ptr [0x7b8]
  === BLOCK LINK ===
    0x29a8
=== CODE BLOCK END ===

=== CODE BLOCK ADDRESS 0x29a8 ===
  0x29a8	mov    	eax, eax
  0x29aa	dec    	eax
  0x29ab	xor    	dword ptr [ebp + 0x10], eax
  0x29ae	call   	dword ptr [0x7d4]
  === BLOCK LINK ===
    0x29b4
=== CODE BLOCK END ===

=== CODE BLOCK ADDRESS 0x29b4 ===
  0x29b4	mov    	eax, eax
  0x29b6	dec    	eax
  0x29b7	xor    	dword ptr [ebp + 0x10], eax
  0x29ba	call   	dword ptr [0x788]
  === BLOCK LINK ===
    0x29c0
=== CODE BLOCK END ===

=== CODE BLOCK ADDRESS 0x29c0 ===
  0x29c0	mov    	eax, eax
  0x29c2	dec    	eax
  0x29c3	shl    	eax, 0x18
  0x29c6	dec    	eax
  0x29c7	xor    	dword ptr [ebp + 0x10], eax
  === BLOCK LINK ===
    0x29ca
=== CODE BLOCK END ===

=== CODE BLOCK ADDRESS 0x29ca ===
  0x29ca	call   	dword ptr [0x778]
  === BLOCK LINK ===
    0x29d0
=== CODE BLOCK END ===

=== CODE BLOCK ADDRESS 0x29d0 ===
  0x29d0	mov    	eax, eax
  0x29d2	dec    	eax
  0x29d3	lea    	ecx, [ebp + 0x10]
  0x29d6	dec    	eax
  0x29d7	xor    	eax, dword ptr [ebp + 0x10]
  === BLOCK LINK ===
    0x29da
=== CODE BLOCK END ===

=== CODE BLOCK ADDRESS 0x29da ===
  0x29da	dec    	eax
  0x29db	xor    	eax, ecx
  0x29dd	dec    	eax
  0x29de	lea    	ecx, [ebp + 0x20]
  0x29e1	dec    	eax
  === BLOCK LINK ===
    0x29e2
=== CODE BLOCK END ===

=== CODE BLOCK ADDRESS 0x29e2 ===
  0x29e2	mov    	dword ptr [ebp + 0x10], eax
  0x29e5	call   	dword ptr [0x77d]
  === BLOCK LINK ===
    0x29eb
=== CODE BLOCK END ===

=== CODE BLOCK ADDRESS 0x29eb ===
  0x29eb	mov    	eax, dword ptr [ebp + 0x20]
  0x29ee	dec    	eax
  0x29ef	mov    	ecx, 0xffffffff
  0x29f4	.byte  	0xff
  0x29f5	inc    	dword ptr [eax]
  === BLOCK LINK ===
    0x29f7
=== CODE BLOCK END ===

=== CODE BLOCK ADDRESS 0x29f7 ===
  0x29f7	add    	byte ptr [eax - 0x3f], cl
  0x29fa	loopne  	0x2a1c
  === BLOCK LINK ===
    0x29fc
=== CODE BLOCK END ===

=== CODE BLOCK ADDRESS 0x29fc ===
  0x29fc	dec    	eax
  0x29fd	xor    	eax, dword ptr [ebp + 0x20]
  0x2a00	dec    	eax
  0x2a01	xor    	eax, dword ptr [ebp + 0x10]
  0x2a04	dec    	eax
  === BLOCK LINK ===
    0x2a05
=== CODE BLOCK END ===

=== CODE BLOCK ADDRESS 0x2a05 ===
  0x2a05	and    	eax, ecx
  0x2a07	dec    	eax
  0x2a08	mov    	ecx, eax
  0x2a0a	dec    	eax
  0x2a0b	cmp    	eax, ebx
  === BLOCK LINK ===
    0x2a0d
=== CODE BLOCK END ===

=== CODE BLOCK ADDRESS 0x2a0d ===
  0x2a0d	jne    	0x2a1c
  === BLOCK LINK ===
    0x2a0f
=== CODE BLOCK END ===

=== CODE BLOCK ADDRESS 0x2a0f ===
  0x2a0f	dec    	eax
  0x2a10	mov    	eax, 0x2ddfa233
  0x2a15	cdq    	
  0x2a16	sub    	eax, dword ptr [eax]
  0x2a18	add    	byte ptr [eax - 0x75], cl
  === BLOCK LINK ===
    0x2a1b
=== CODE BLOCK END ===

=== CODE BLOCK ADDRESS 0x2a1b ===
  0x2a1b	enter  	-0x76b8, 0xd
  0x2a1f	in     	eax, 0x25
  0x2a21	add    	byte ptr [eax], al
  0x2a23	dec    	eax
  0x2a24	mov    	ebx, dword ptr [esp + 0x48]
  === BLOCK LINK ===
    0x2a28
=== CODE BLOCK END ===

=== CODE BLOCK ADDRESS 0x2a28 ===
  0x2a28	dec    	eax
  0x2a29	not    	eax
  0x2a2b	dec    	eax
  0x2a2c	mov    	dword ptr [0x25de], eax
  0x2a32	dec    	eax
  === BLOCK LINK ===
    0x2a33
=== CODE BLOCK END ===

=== CODE BLOCK ADDRESS 0x2a33 ===
  0x2a33	add    	esp, 0x20
  0x2a36	pop    	ebp
  0x2a37	ret    	
  0x2a38	int3   	
  0x2a39	int3   	
  === BLOCK LINK ===
    0x2a3a
=== CODE BLOCK END ===

=== CODE BLOCK ADDRESS 0x2a3a ===
  0x2a3a	int3   	
  0x2a3b	int3   	
  0x2a3c	int3   	
  0x2a3d	int3   	
  0x2a3e	jmp    	dword ptr [0x79c]
  === BLOCK LINK ===
    0x2a44
=== CODE BLOCK END ===

=== CODE BLOCK ADDRESS 0x2a44 ===
  0x2a44	int3   	
  0x2a45	int3   	
  0x2a46	int3   	
  0x2a47	int3   	
  0x2a48	int3   	
  === BLOCK LINK ===
    0x2a49
=== CODE BLOCK END ===

=== CODE BLOCK ADDRESS 0x2a49 ===
  0x2a49	int3   	
  0x2a4a	jmp    	dword ptr [0x798]
  === BLOCK LINK ===
    0x2a50
=== CODE BLOCK END ===

=== CODE BLOCK ADDRESS 0x2a50 ===
  0x2a50	int3   	
  0x2a51	int3   	
  0x2a52	int3   	
  0x2a53	int3   	
  0x2a54	int3   	
  === BLOCK LINK ===
    0x2a55
=== CODE BLOCK END ===

=== CODE BLOCK ADDRESS 0x2a55 ===
  0x2a55	int3   	
  0x2a56	int3   	
  0x2a57	int3   	
  0x2a58	int3   	
  0x2a59	int3   	
  === BLOCK LINK ===
    0x2a5a
=== CODE BLOCK END ===

=== CODE BLOCK ADDRESS 0x2a5a ===
  0x2a5a	int3   	
  0x2a5b	int3   	
  0x2a5c	int3   	
  0x2a5d	int3   	
  0x2a5e	int3   	
  === BLOCK LINK ===
    0x2a5f
=== CODE BLOCK END ===

=== CODE BLOCK ADDRESS 0x2a5f ===
  0x2a5f	int3   	
  0x2a60	ret    	0
  0x2a63	int3   	
  0x2a64	int3   	
  0x2a65	int3   	
  === BLOCK LINK ===
    0x2a66
=== CODE BLOCK END ===

=== CODE BLOCK ADDRESS 0x2a66 ===
  0x2a66	int3   	
  0x2a67	int3   	
  0x2a68	int3   	
  0x2a69	int3   	
  0x2a6a	int3   	
  === BLOCK LINK ===
    0x2a6b
=== CODE BLOCK END ===

=== CODE BLOCK ADDRESS 0x2a6b ===
  0x2a6b	int3   	
  0x2a6c	inc    	eax
  0x2a6d	push   	ebx
  0x2a6e	dec    	eax
  0x2a6f	sub    	esp, 0x20
  === BLOCK LINK ===
    0x2a72
=== CODE BLOCK END ===

=== CODE BLOCK ADDRESS 0x2a72 ===
  0x2a72	dec    	eax
  0x2a73	mov    	ebx, ecx
  0x2a75	xor    	ecx, ecx
  0x2a77	call   	dword ptr [0x6fb]
  === BLOCK LINK ===
    0x2a7d
=== CODE BLOCK END ===

=== CODE BLOCK ADDRESS 0x2a7d ===
  0x2a7d	dec    	eax
  0x2a7e	mov    	ecx, ebx
  0x2a80	call   	dword ptr [0x6ba]
  === BLOCK LINK ===
    0x2a86
=== CODE BLOCK END ===

=== CODE BLOCK ADDRESS 0x2a86 ===
  0x2a86	call   	dword ptr [0x6ac]
  === BLOCK LINK ===
    0x2a8c
=== CODE BLOCK END ===

=== CODE BLOCK ADDRESS 0x2a8c ===
  0x2a8c	dec    	eax
  0x2a8d	mov    	ecx, eax
  0x2a8f	mov    	edx, 0xc0000409
  0x2a94	dec    	eax
  0x2a95	add    	esp, 0x20
  === BLOCK LINK ===
    0x2a98
=== CODE BLOCK END ===

=== CODE BLOCK ADDRESS 0x2a98 ===
  0x2a98	pop    	ebx
  0x2a99	dec    	eax
  0x2a9a	jmp    	dword ptr [0x6f8]
  === BLOCK LINK ===
    0x2aa0
=== CODE BLOCK END ===

=== CODE BLOCK ADDRESS 0x2aa0 ===
  0x2aa0	int3   	
  0x2aa1	int3   	
  0x2aa2	int3   	
  0x2aa3	int3   	
  0x2aa4	int3   	
  === BLOCK LINK ===
    0x2aa5
=== CODE BLOCK END ===

=== CODE BLOCK ADDRESS 0x2aa5 ===
  0x2aa5	int3   	
  0x2aa6	int3   	
  0x2aa7	int3   	
  0x2aa8	int3   	
  0x2aa9	int3   	
  === BLOCK LINK ===
    0x2aaa
=== CODE BLOCK END ===

=== CODE BLOCK ADDRESS 0x2aaa ===
  0x2aaa	int3   	
  0x2aab	int3   	
  0x2aac	int3   	
  0x2aad	int3   	
  0x2aae	int3   	
  === BLOCK LINK ===
    0x2aaf
=== CODE BLOCK END ===

=== CODE BLOCK ADDRESS 0x2aaf ===
  0x2aaf	int3   	
  0x2ab0	dec    	eax
  0x2ab1	mov    	dword ptr [esp + 8], ecx
  0x2ab5	dec    	eax
  0x2ab6	sub    	esp, 0x88
  === BLOCK LINK ===
    0x2abc
=== CODE BLOCK END ===

=== CODE BLOCK ADDRESS 0x2abc ===
  0x2abc	dec    	eax
  0x2abd	lea    	ecx, [0x263d]
  0x2ac3	call   	dword ptr [0x75f]
  === BLOCK LINK ===
    0x2ac9
=== CODE BLOCK END ===

=== CODE BLOCK ADDRESS 0x2ac9 ===
  0x2ac9	dec    	eax
  0x2aca	mov    	eax, dword ptr [0x2728]
  0x2ad0	dec    	eax
  0x2ad1	mov    	dword ptr [esp + 0x48], eax
  0x2ad5	inc    	ebp
  === BLOCK LINK ===
    0x2ad6
=== CODE BLOCK END ===

=== CODE BLOCK ADDRESS 0x2ad6 ===
  0x2ad6	xor    	eax, eax
  0x2ad8	dec    	eax
  0x2ad9	lea    	edx, [esp + 0x50]
  0x2add	dec    	eax
  0x2ade	mov    	ecx, dword ptr [esp + 0x48]
  === BLOCK LINK ===
    0x2ae2
=== CODE BLOCK END ===

=== CODE BLOCK ADDRESS 0x2ae2 ===
  0x2ae2	call   	dword ptr [0x738]
  === BLOCK LINK ===
    0x2ae8
=== CODE BLOCK END ===

=== CODE BLOCK ADDRESS 0x2ae8 ===
  0x2ae8	dec    	eax
  0x2ae9	mov    	dword ptr [esp + 0x40], eax
  0x2aed	dec    	eax
  0x2aee	cmp    	dword ptr [esp + 0x40], 0
  0x2af3	je     	0x2b37
  === BLOCK LINK ===
    0x2af5
=== CODE BLOCK END ===

=== CODE BLOCK ADDRESS 0x2af5 ===
  0x2af5	dec    	eax
  0x2af6	mov    	dword ptr [esp + 0x38], 0
  0x2afe	dec    	eax
  0x2aff	lea    	eax, [esp + 0x58]
  0x2b03	dec    	eax
  === BLOCK LINK ===
    0x2b04
=== CODE BLOCK END ===

=== CODE BLOCK ADDRESS 0x2b04 ===
  0x2b04	mov    	dword ptr [esp + 0x30], eax
  0x2b08	dec    	eax
  0x2b09	lea    	eax, [esp + 0x60]
  0x2b0d	dec    	eax
  0x2b0e	mov    	dword ptr [esp + 0x28], eax
  === BLOCK LINK ===
    0x2b12
=== CODE BLOCK END ===

=== CODE BLOCK ADDRESS 0x2b12 ===
  0x2b12	dec    	eax
  0x2b13	lea    	eax, [0x25e7]
  0x2b19	dec    	eax
  0x2b1a	mov    	dword ptr [esp + 0x20], eax
  0x2b1e	dec    	esp
  === BLOCK LINK ===
    0x2b1f
=== CODE BLOCK END ===

=== CODE BLOCK ADDRESS 0x2b1f ===
  0x2b1f	mov    	ecx, dword ptr [esp + 0x40]
  0x2b23	dec    	esp
  0x2b24	mov    	eax, dword ptr [esp + 0x48]
  0x2b28	dec    	eax
  0x2b29	mov    	edx, dword ptr [esp + 0x50]
  === BLOCK LINK ===
    0x2b2d
=== CODE BLOCK END ===

=== CODE BLOCK ADDRESS 0x2b2d ===
  0x2b2d	xor    	ecx, ecx
  0x2b2f	call   	dword ptr [0x6e3]
  === BLOCK LINK ===
    0x2b35
=== CODE BLOCK END ===

=== CODE BLOCK ADDRESS 0x2b35 ===
  0x2b35	jmp    	0x2b5a
  === BLOCK LINK ===
    0x2b37
=== CODE BLOCK END ===

=== CODE BLOCK ADDRESS 0x2b37 ===
  0x2b37	dec    	eax
  0x2b38	mov    	eax, dword ptr [0x265a]
  0x2b3e	dec    	eax
  0x2b3f	mov    	eax, dword ptr [eax]
  0x2b41	dec    	eax
  === BLOCK LINK ===
    0x2b42
=== CODE BLOCK END ===

=== CODE BLOCK ADDRESS 0x2b42 ===
  0x2b42	mov    	dword ptr [0x26b0], eax
  0x2b48	dec    	eax
  0x2b49	mov    	eax, dword ptr [0x2649]
  0x2b4f	dec    	eax
  0x2b50	add    	eax, 8
  === BLOCK LINK ===
    0x2b53
=== CODE BLOCK END ===

=== CODE BLOCK ADDRESS 0x2b53 ===
  0x2b53	dec    	eax
  0x2b54	mov    	dword ptr [0x263e], eax
  0x2b5a	dec    	eax
  0x2b5b	mov    	eax, dword ptr [0x2697]
  0x2b61	dec    	eax
  === BLOCK LINK ===
    0x2b62
=== CODE BLOCK END ===

=== CODE BLOCK ADDRESS 0x2b62 ===
  0x2b62	mov    	dword ptr [0x2508], eax
  0x2b68	dec    	eax
  0x2b69	mov    	eax, dword ptr [esp + 0x90]
  0x2b70	dec    	eax
  0x2b71	mov    	dword ptr [0x2609], eax
  === BLOCK LINK ===
    0x2b77
=== CODE BLOCK END ===

=== CODE BLOCK ADDRESS 0x2b77 ===
  0x2b77	mov    	dword ptr [0x24df], 0xc0000409
  0x2b81	mov    	dword ptr [0x24d9], 1
  0x2b8b	mov    	dword ptr [0x24e3], 3
  0x2b95	mov    	eax, 8
  0x2b9a	dec    	eax
  === BLOCK LINK ===
    0x2b9b
=== CODE BLOCK END ===

=== CODE BLOCK ADDRESS 0x2b9b ===
  0x2b9b	imul   	eax, eax, 0
  0x2b9e	dec    	eax
  0x2b9f	lea    	ecx, [0x24db]
  0x2ba5	dec    	eax
  0x2ba6	mov    	dword ptr [ecx + eax], 2
  === BLOCK LINK ===
    0x2bad
=== CODE BLOCK END ===

=== CODE BLOCK ADDRESS 0x2bad ===
  0x2bad	mov    	eax, 8
  0x2bb2	dec    	eax
  0x2bb3	imul   	eax, eax, 1
  0x2bb6	dec    	eax
  0x2bb7	lea    	ecx, [0x24c3]
  === BLOCK LINK ===
    0x2bbd
=== CODE BLOCK END ===

=== CODE BLOCK ADDRESS 0x2bbd ===
  0x2bbd	dec    	eax
  0x2bbe	mov    	edx, dword ptr [0x2444]
  0x2bc4	dec    	eax
  0x2bc5	mov    	dword ptr [ecx + eax], edx
  0x2bc8	mov    	eax, 8
  === BLOCK LINK ===
    0x2bcd
=== CODE BLOCK END ===

=== CODE BLOCK ADDRESS 0x2bcd ===
  0x2bcd	dec    	eax
  0x2bce	imul   	eax, eax, 2
  0x2bd1	dec    	eax
  0x2bd2	lea    	ecx, [0x24a8]
  0x2bd8	dec    	eax
  === BLOCK LINK ===
    0x2bd9
=== CODE BLOCK END ===

=== CODE BLOCK ADDRESS 0x2bd9 ===
  0x2bd9	mov    	edx, dword ptr [0x2431]
  0x2bdf	dec    	eax
  0x2be0	mov    	dword ptr [ecx + eax], edx
  0x2be3	mov    	eax, 8
  0x2be8	dec    	eax
  === BLOCK LINK ===
    0x2be9
=== CODE BLOCK END ===

=== CODE BLOCK ADDRESS 0x2be9 ===
  0x2be9	imul   	eax, eax, 0
  0x2bec	dec    	eax
  0x2bed	mov    	ecx, dword ptr [0x2415]
  0x2bf3	dec    	eax
  0x2bf4	mov    	dword ptr [esp + eax + 0x68], ecx
  === BLOCK LINK ===
    0x2bf8
=== CODE BLOCK END ===

=== CODE BLOCK ADDRESS 0x2bf8 ===
  0x2bf8	mov    	eax, 8
  0x2bfd	dec    	eax
  0x2bfe	imul   	eax, eax, 1
  0x2c01	dec    	eax
  0x2c02	mov    	ecx, dword ptr [0x2408]
  === BLOCK LINK ===
    0x2c08
=== CODE BLOCK END ===

=== CODE BLOCK ADDRESS 0x2c08 ===
  0x2c08	dec    	eax
  0x2c09	mov    	dword ptr [esp + eax + 0x68], ecx
  0x2c0d	dec    	eax
  0x2c0e	lea    	ecx, [0x3ec]
  0x2c14	call   	0x2a6c
  === BLOCK LINK ===
    0x2c19
=== CODE BLOCK END ===

=== CODE BLOCK ADDRESS 0x2c19 ===
  0x2c19	dec    	eax
  0x2c1a	add    	esp, 0x88
  0x2c20	ret    	
  0x2c21	int3   	
  0x2c22	int3   	
  === BLOCK LINK ===
    0x2c23
=== CODE BLOCK END ===

=== CODE BLOCK ADDRESS 0x2c23 ===
  0x2c23	int3   	
  0x2c24	int3   	
  0x2c25	int3   	
  0x2c26	int3   	
  0x2c27	int3   	
  === BLOCK LINK ===
    0x2c28
=== CODE BLOCK END ===

=== CODE BLOCK ADDRESS 0x2c28 ===
  0x2c28	int3   	
  0x2c29	int3   	
  0x2c2a	int3   	
  0x2c2b	int3   	
  0x2c2c	int3   	
  === BLOCK LINK ===
    0x2c2d
=== CODE BLOCK END ===

=== CODE BLOCK ADDRESS 0x2c2d ===
  0x2c2d	int3   	
  0x2c2e	int3   	
  0x2c2f	int3   	
  0x2c30	int3   	
  0x2c31	int3   	
  === BLOCK LINK ===
    0x2c32
=== CODE BLOCK END ===

=== CODE BLOCK ADDRESS 0x2c32 ===
  0x2c32	int3   	
  0x2c33	int3   	
  0x2c34	int3   	
  0x2c35	int3   	
  0x2c36	int3   	
  === BLOCK LINK ===
    0x2c37
=== CODE BLOCK END ===

=== CODE BLOCK ADDRESS 0x2c37 ===
  0x2c37	int3   	
  0x2c38	dec    	eax
  0x2c39	sub    	esp, 0x28
  0x2c3c	dec    	ebp
  0x2c3d	mov    	eax, dword ptr [ecx + 0x38]
  === BLOCK LINK ===
    0x2c40
=== CODE BLOCK END ===

=== CODE BLOCK ADDRESS 0x2c40 ===
  0x2c40	dec    	eax
  0x2c41	mov    	ecx, edx
  0x2c43	dec    	ecx
  0x2c44	mov    	edx, ecx
  0x2c46	call   	0x2c5c
  === BLOCK LINK ===
    0x2c4b
=== CODE BLOCK END ===

=== CODE BLOCK ADDRESS 0x2c4b ===
  0x2c4b	mov    	eax, 1
  0x2c50	dec    	eax
  0x2c51	add    	esp, 0x28
  0x2c54	ret    	
  0x2c55	int3   	
  === BLOCK LINK ===
    0x2c56
=== CODE BLOCK END ===

=== CODE BLOCK ADDRESS 0x2c56 ===
  0x2c56	int3   	
  0x2c57	int3   	
  0x2c58	int3   	
  0x2c59	int3   	
  0x2c5a	int3   	
  === BLOCK LINK ===
    0x2c5b
=== CODE BLOCK END ===

=== CODE BLOCK ADDRESS 0x2c5b ===
  0x2c5b	int3   	
  0x2c5c	inc    	eax
  0x2c5d	push   	ebx
  0x2c5e	inc    	ebp
  0x2c5f	mov    	ebx, dword ptr [eax]
  === BLOCK LINK ===
    0x2c61
=== CODE BLOCK END ===

=== CODE BLOCK ADDRESS 0x2c61 ===
  0x2c61	dec    	eax
  0x2c62	mov    	ebx, edx
  0x2c64	inc    	ecx
  0x2c65	and    	ebx, 0xfffffff8
  0x2c68	dec    	esp
  === BLOCK LINK ===
    0x2c69
=== CODE BLOCK END ===

=== CODE BLOCK ADDRESS 0x2c69 ===
  0x2c69	mov    	ecx, ecx
  0x2c6b	inc    	ecx
  0x2c6c	test   	byte ptr [eax], 4
  0x2c6f	dec    	esp
  0x2c70	mov    	edx, ecx
  === BLOCK LINK ===
    0x2c72
=== CODE BLOCK END ===

=== CODE BLOCK ADDRESS 0x2c72 ===
  0x2c72	je     	0x2c87
  === BLOCK LINK ===
    0x2c74
=== CODE BLOCK END ===

=== CODE BLOCK ADDRESS 0x2c74 ===
  0x2c74	inc    	ecx
  0x2c75	mov    	eax, dword ptr [eax + 8]
  0x2c78	dec    	ebp
  0x2c79	arpl   	word ptr [eax + 4], dx
  0x2c7c	neg    	eax
  === BLOCK LINK ===
    0x2c7e
=== CODE BLOCK END ===

=== CODE BLOCK ADDRESS 0x2c7e ===
  0x2c7e	dec    	esp
  0x2c7f	add    	edx, ecx
  0x2c81	dec    	eax
  0x2c82	arpl   	ax, cx
  0x2c84	dec    	esp
  === BLOCK LINK ===
    0x2c85
=== CODE BLOCK END ===

=== CODE BLOCK ADDRESS 0x2c85 ===
  0x2c85	and    	edx, ecx
  0x2c87	dec    	ecx
  0x2c88	arpl   	bx, ax
  0x2c8a	dec    	edx
  0x2c8b	mov    	edx, dword ptr [eax + edx]
  === BLOCK LINK ===
    0x2c8e
=== CODE BLOCK END ===

=== CODE BLOCK ADDRESS 0x2c8e ===
  0x2c8e	dec    	eax
  0x2c8f	mov    	eax, dword ptr [ebx + 0x10]
  0x2c92	mov    	ecx, dword ptr [eax + 8]
  0x2c95	dec    	eax
  0x2c96	mov    	eax, dword ptr [ebx + 8]
  === BLOCK LINK ===
    0x2c99
=== CODE BLOCK END ===

=== CODE BLOCK ADDRESS 0x2c99 ===
  0x2c99	test   	byte ptr [ecx + eax + 3], 0xf
  0x2c9e	je     	0x2cab
  === BLOCK LINK ===
    0x2ca0
=== CODE BLOCK END ===

=== CODE BLOCK ADDRESS 0x2ca0 ===
  0x2ca0	movzx  	eax, byte ptr [ecx + eax + 3]
  0x2ca5	and    	eax, 0xfffffff0
  0x2ca8	dec    	esp
  0x2ca9	add    	ecx, eax
  0x2cab	dec    	esp
  === BLOCK LINK ===
    0x2cac
=== CODE BLOCK END ===

=== CODE BLOCK ADDRESS 0x2cac ===
  0x2cac	xor    	ecx, edx
  0x2cae	dec    	ecx
  0x2caf	mov    	ecx, ecx
  0x2cb1	pop    	ebx
  0x2cb2	jmp    	0x2720
  === BLOCK LINK ===
    0x2cb7
=== CODE BLOCK END ===

=== CODE BLOCK ADDRESS 0x2cb7 ===
  0x2cb7	int3   	
  0x2cb8	int3   	
  0x2cb9	int3   	
  0x2cba	int3   	
  0x2cbb	int3   	
  === BLOCK LINK ===
    0x2cbc
=== CODE BLOCK END ===

=== CODE BLOCK ADDRESS 0x2cbc ===
  0x2cbc	int3   	
  0x2cbd	int3   	
  0x2cbe	int3   	
  0x2cbf	int3   	
  0x2cc0	int3   	
  === BLOCK LINK ===
    0x2cc1
=== CODE BLOCK END ===

=== CODE BLOCK ADDRESS 0x2cc1 ===
  0x2cc1	int3   	
  0x2cc2	int3   	
  0x2cc3	int3   	
  0x2cc4	int3   	
  0x2cc5	int3   	
  === BLOCK LINK ===
    0x2cc6
=== CODE BLOCK END ===

=== CODE BLOCK ADDRESS 0x2cc6 ===
  0x2cc6	nop    	word ptr [eax + eax]
  0x2cd0	jmp    	eax
  === BLOCK LINK ===
    0x2cd2
=== CODE BLOCK END ===

=== CODE BLOCK ADDRESS 0x2cd2 ===
  0x2cd2	int3   	
  0x2cd3	int3   	
  0x2cd4	int3   	
  0x2cd5	int3   	
  0x2cd6	int3   	
  === BLOCK LINK ===
    0x2cd7
=== CODE BLOCK END ===

=== CODE BLOCK ADDRESS 0x2cd7 ===
  0x2cd7	int3   	
  0x2cd8	int3   	
  0x2cd9	int3   	
  0x2cda	int3   	
  0x2cdb	int3   	
  === BLOCK LINK ===
    0x2cdc
=== CODE BLOCK END ===

=== CODE BLOCK ADDRESS 0x2cdc ===
  0x2cdc	int3   	
  0x2cdd	int3   	
  0x2cde	int3   	
  0x2cdf	int3   	
  0x2ce0	inc    	eax
  === BLOCK LINK ===
    0x2ce1
=== CODE BLOCK END ===

=== CODE BLOCK ADDRESS 0x2ce1 ===
  0x2ce1	push   	ebp
  0x2ce2	dec    	eax
  0x2ce3	sub    	esp, 0x20
  0x2ce6	dec    	eax
  0x2ce7	mov    	ebp, edx
  === BLOCK LINK ===
    0x2ce9
=== CODE BLOCK END ===

=== CODE BLOCK ADDRESS 0x2ce9 ===
  0x2ce9	dec    	eax
  0x2cea	mov    	eax, dword ptr [ecx]
  0x2cec	dec    	eax
  0x2ced	mov    	edx, ecx
  0x2cef	mov    	ecx, dword ptr [eax]
  === BLOCK LINK ===
    0x2cf1
=== CODE BLOCK END ===

=== CODE BLOCK ADDRESS 0x2cf1 ===
  0x2cf1	call   	0x27ae
  === BLOCK LINK ===
    0x2cf6
=== CODE BLOCK END ===

=== CODE BLOCK ADDRESS 0x2cf6 ===
  0x2cf6	nop    	
  0x2cf7	dec    	eax
  0x2cf8	add    	esp, 0x20
  0x2cfb	pop    	ebp
  0x2cfc	ret    	
  === BLOCK LINK ===
    0x2cfd
=== CODE BLOCK END ===

=== CODE BLOCK ADDRESS 0x2cfd ===
  0x2cfd	int3   	
  0x2cfe	int3   	
  0x2cff	int3   	
  0x2d00	int3   	
  0x2d01	int3   	
  === BLOCK LINK ===
    0x2d02
=== CODE BLOCK END ===

=== CODE BLOCK ADDRESS 0x2d02 ===
  0x2d02	int3   	
  0x2d03	int3   	
  0x2d04	int3   	
  0x2d05	int3   	
  0x2d06	int3   	
  === BLOCK LINK ===
    0x2d07
=== CODE BLOCK END ===

=== CODE BLOCK ADDRESS 0x2d07 ===
  0x2d07	int3   	
  0x2d08	int3   	
  0x2d09	int3   	
  0x2d0a	int3   	
  0x2d0b	int3   	
  === BLOCK LINK ===
    0x2d0c
=== CODE BLOCK END ===

=== CODE BLOCK ADDRESS 0x2d0c ===
  0x2d0c	int3   	
  0x2d0d	int3   	
  0x2d0e	int3   	
  0x2d0f	int3   	
  0x2d10	inc    	eax
  === BLOCK LINK ===
    0x2d11
=== CODE BLOCK END ===

=== CODE BLOCK ADDRESS 0x2d11 ===
  0x2d11	push   	ebp
  0x2d12	dec    	eax
  0x2d13	sub    	esp, 0x20
  0x2d16	dec    	eax
  0x2d17	mov    	ebp, edx
  === BLOCK LINK ===
    0x2d19
=== CODE BLOCK END ===

=== CODE BLOCK ADDRESS 0x2d19 ===
  0x2d19	dec    	eax
  0x2d1a	mov    	eax, dword ptr [ecx]
  0x2d1c	xor    	ecx, ecx
  0x2d1e	cmp    	dword ptr [eax], 0xc0000005
  0x2d24	sete   	cl
  === BLOCK LINK ===
    0x2d27
=== CODE BLOCK END ===

=== CODE BLOCK ADDRESS 0x2d27 ===
  0x2d27	mov    	eax, ecx
  0x2d29	dec    	eax
  0x2d2a	add    	esp, 0x20
  0x2d2d	pop    	ebp
  0x2d2e	ret    	
  === BLOCK LINK ===
    0x2d2f
=== CODE BLOCK END ===

=== CODE BLOCK ADDRESS 0x1531 ===
  0x1531	dec    	eax
  0x1533	mov    	ecx, dword ptr [0x60]
  0x153a	dec    	esp
  === BLOCK LINK ===
    0x153b
=== CODE BLOCK END ===

=== CODE BLOCK ADDRESS 0x2d2f ===
  0x2d2f	int3   	
  0x2d30	add    	byte ptr [eax], al
  0x2d32	add    	byte ptr [eax], al
  0x2d34	add    	byte ptr [eax], al
  0x2d36	add    	byte ptr [eax], al
  === BLOCK LINK ===
    0x2d38
=== CODE BLOCK END ===

=== CODE BLOCK ADDRESS 0x2d38 ===
  0x2d38	add    	byte ptr [eax], al
  0x2d3a	add    	byte ptr [eax], al
  0x2d3c	add    	byte ptr [eax], al
  0x2d3e	add    	byte ptr [eax], al
  0x2d40	add    	byte ptr [eax], al
  === BLOCK LINK ===
    0x2d42
=== CODE BLOCK END ===

=== CODE BLOCK ADDRESS 0x2d42 ===
  0x2d42	add    	byte ptr [eax], al
  0x2d44	add    	byte ptr [eax], al
  0x2d46	add    	byte ptr [eax], al
  0x2d48	add    	byte ptr [eax], al
  0x2d4a	add    	byte ptr [eax], al
  === BLOCK LINK ===
    0x2d4c
=== CODE BLOCK END ===

=== CODE BLOCK ADDRESS 0x2d4c ===
  0x2d4c	add    	byte ptr [eax], al
  0x2d4e	add    	byte ptr [eax], al
  0x2d50	add    	byte ptr [eax], al
  0x2d52	add    	byte ptr [eax], al
  0x2d54	add    	byte ptr [eax], al
  === BLOCK LINK ===
    0x2d56
=== CODE BLOCK END ===

=== CODE BLOCK ADDRESS 0x2d56 ===
  0x2d56	add    	byte ptr [eax], al
  0x2d58	add    	byte ptr [eax], al
  0x2d5a	add    	byte ptr [eax], al
  0x2d5c	add    	byte ptr [eax], al
  0x2d5e	add    	byte ptr [eax], al
  === BLOCK LINK ===
    0x2d60
=== CODE BLOCK END ===

=== CODE BLOCK ADDRESS 0x2d60 ===
  0x2d60	add    	byte ptr [eax], al
  0x2d62	add    	byte ptr [eax], al
  0x2d64	add    	byte ptr [eax], al
  0x2d66	add    	byte ptr [eax], al
  0x2d68	add    	byte ptr [eax], al
  === BLOCK LINK ===
    0x2d6a
=== CODE BLOCK END ===

=== CODE BLOCK ADDRESS 0x2d6a ===
  0x2d6a	add    	byte ptr [eax], al
  0x2d6c	add    	byte ptr [eax], al
  0x2d6e	add    	byte ptr [eax], al
  0x2d70	add    	byte ptr [eax], al
  0x2d72	add    	byte ptr [eax], al
  === BLOCK LINK ===
    0x2d74
=== CODE BLOCK END ===

=== CODE BLOCK ADDRESS 0x2d74 ===
  0x2d74	add    	byte ptr [eax], al
  0x2d76	add    	byte ptr [eax], al
  0x2d78	add    	byte ptr [eax], al
  0x2d7a	add    	byte ptr [eax], al
  0x2d7c	add    	byte ptr [eax], al
  === BLOCK LINK ===
    0x2d7e
=== CODE BLOCK END ===

=== CODE BLOCK ADDRESS 0x2d7e ===
  0x2d7e	add    	byte ptr [eax], al
  0x2d80	add    	byte ptr [eax], al
  0x2d82	add    	byte ptr [eax], al
  0x2d84	add    	byte ptr [eax], al
  0x2d86	add    	byte ptr [eax], al
  === BLOCK LINK ===
    0x2d88
=== CODE BLOCK END ===

=== CODE BLOCK ADDRESS 0x2d88 ===
  0x2d88	add    	byte ptr [eax], al
  0x2d8a	add    	byte ptr [eax], al
  0x2d8c	add    	byte ptr [eax], al
  0x2d8e	add    	byte ptr [eax], al
  0x2d90	add    	byte ptr [eax], al
  === BLOCK LINK ===
    0x2d92
=== CODE BLOCK END ===

=== CODE BLOCK ADDRESS 0x2d92 ===
  0x2d92	add    	byte ptr [eax], al
  0x2d94	add    	byte ptr [eax], al
  0x2d96	add    	byte ptr [eax], al
  0x2d98	add    	byte ptr [eax], al
  0x2d9a	add    	byte ptr [eax], al
  === BLOCK LINK ===
    0x2d9c
=== CODE BLOCK END ===

=== CODE BLOCK ADDRESS 0x2d9c ===
  0x2d9c	add    	byte ptr [eax], al
  0x2d9e	add    	byte ptr [eax], al
  0x2da0	add    	byte ptr [eax], al
  0x2da2	add    	byte ptr [eax], al
  0x2da4	add    	byte ptr [eax], al
  === BLOCK LINK ===
    0x2da6
=== CODE BLOCK END ===

=== CODE BLOCK ADDRESS 0x2da6 ===
  0x2da6	add    	byte ptr [eax], al
  0x2da8	add    	byte ptr [eax], al
  0x2daa	add    	byte ptr [eax], al
  0x2dac	add    	byte ptr [eax], al
  0x2dae	add    	byte ptr [eax], al
  === BLOCK LINK ===
    0x2db0
=== CODE BLOCK END ===

=== CODE BLOCK ADDRESS 0x2db0 ===
  0x2db0	add    	byte ptr [eax], al
  0x2db2	add    	byte ptr [eax], al
  0x2db4	add    	byte ptr [eax], al
  0x2db6	add    	byte ptr [eax], al
  0x2db8	add    	byte ptr [eax], al
  === BLOCK LINK ===
    0x2dba
=== CODE BLOCK END ===

=== CODE BLOCK ADDRESS 0x2dba ===
  0x2dba	add    	byte ptr [eax], al
  0x2dbc	add    	byte ptr [eax], al
  0x2dbe	add    	byte ptr [eax], al
  0x2dc0	add    	byte ptr [eax], al
  0x2dc2	add    	byte ptr [eax], al
  === BLOCK LINK ===
    0x2dc4
=== CODE BLOCK END ===

=== CODE BLOCK ADDRESS 0x2dc4 ===
  0x2dc4	add    	byte ptr [eax], al
  0x2dc6	add    	byte ptr [eax], al
  0x2dc8	add    	byte ptr [eax], al
  0x2dca	add    	byte ptr [eax], al
  0x2dcc	add    	byte ptr [eax], al
  === BLOCK LINK ===
    0x2dce
=== CODE BLOCK END ===

=== CODE BLOCK ADDRESS 0x2dce ===
  0x2dce	add    	byte ptr [eax], al
  0x2dd0	add    	byte ptr [eax], al
  0x2dd2	add    	byte ptr [eax], al
  0x2dd4	add    	byte ptr [eax], al
  0x2dd6	add    	byte ptr [eax], al
  === BLOCK LINK ===
    0x2dd8
=== CODE BLOCK END ===

=== CODE BLOCK ADDRESS 0x2dd8 ===
  0x2dd8	add    	byte ptr [eax], al
  0x2dda	add    	byte ptr [eax], al
  0x2ddc	add    	byte ptr [eax], al
  0x2dde	add    	byte ptr [eax], al
  0x2de0	add    	byte ptr [eax], al
  === BLOCK LINK ===
    0x2de2
=== CODE BLOCK END ===

=== CODE BLOCK ADDRESS 0x2de2 ===
  0x2de2	add    	byte ptr [eax], al
  0x2de4	add    	byte ptr [eax], al
  0x2de6	add    	byte ptr [eax], al
  0x2de8	add    	byte ptr [eax], al
  0x2dea	add    	byte ptr [eax], al
  === BLOCK LINK ===
    0x2dec
=== CODE BLOCK END ===

=== CODE BLOCK ADDRESS 0x2dec ===
  0x2dec	add    	byte ptr [eax], al
  0x2dee	add    	byte ptr [eax], al
  0x2df0	add    	byte ptr [eax], al
  0x2df2	add    	byte ptr [eax], al
  0x2df4	add    	byte ptr [eax], al
  === BLOCK LINK ===
    0x2df6
=== CODE BLOCK END ===

=== CODE BLOCK ADDRESS 0x2df6 ===
  0x2df6	add    	byte ptr [eax], al
  0x2df8	add    	byte ptr [eax], al
  0x2dfa	add    	byte ptr [eax], al
  0x2dfc	add    	byte ptr [eax], al
=== CODE BLOCK END ===

=== DATA BLOCK ADDRESS 0x3000 ===
  0x3000	60 50 00 40 01 00 00 00 00 51 00 40 01 00 00 00 	`P0@00000Q0@0000
  0x3010	18 01 00 00 00 00 00 00 00 00 00 00 00 00 00 00 	0000000000000000
  0x3020	00 00 00 00 00 00 00 00 00 00 00 00 00 00 00 00 	0000000000000000
  0x3030	00 00 00 00 00 00 00 00 00 00 00 00 00 00 00 00 	0000000000000000
  0x3040	00 00 00 00 00 00 00 00 00 00 00 00 00 00 00 00 	0000000000000000
  0x3050	00 00 00 00 00 00 00 00 00 00 00 00 00 00 00 00 	0000000000000000
  0x3060	00 00 00 00 00 00 00 00 08 50 00 40 01 00 00 00 	000000000P0@0000
  0x3070	00 00 00 00 00 00 00 00 00 00 00 00 00 00 00 00 	0000000000000000
  0x3080	d8 33 00 40 01 00 00 00 e0 33 00 40 01 00 00 00 	030@0000030@0000
  0x3090	20 34 00 40 01 00 00 00 08 00 00 00 00 00 00 00 	 40@000000000000
  0x30a0	00 75 01 00 00 00 00 00 00 00 00 00 00 00 00 00 	0u00000000000000
  0x30b0	00 00 00 00 00 00 00 00 00 00 00 00 00 00 00 00 	0000000000000000
  0x30c0	00 00 00 00 00 00 00 00 00 00 00 00 00 00 00 00 	0000000000000000
  0x30d0	00 00 00 00 00 00 00 00 00 00 00 00 00 00 00 00 	0000000000000000
  0x30e0	00 00 00 00 00 00 00 00 00 00 00 00 00 00 00 00 	0000000000000000
  0x30f0	00 00 00 00 00 00 00 00 00 00 00 00 00 00 00 00 	0000000000000000
  0x3100	00 00 00 00 00 00 00 00 00 00 00 00 00 00 00 00 	0000000000000000
  0x3110	00 00 00 00 00 00 00 00 00 00 00 00 00 00 00 00 	0000000000000000
  0x3120	00 00 00 00 00 00 00 00 16 43 00 00 00 00 00 00 	000000000C000000
  0x3130	00 00 00 00 00 00 00 00 da 44 00 00 00 00 00 00 	000000000D000000
  0x3140	be 44 00 00 00 00 00 00 ae 44 00 00 00 00 00 00 	0D0000000D000000
  0x3150	94 44 00 00 00 00 00 00 88 3b 00 00 00 00 00 00 	0D0000000;000000
  0x3160	68 44 00 00 00 00 00 00 4e 44 00 00 00 00 00 00 	hD000000ND000000
  0x3170	3a 44 00 00 00 00 00 00 1c 44 00 00 00 00 00 00 	:D0000000D000000
  0x3180	14 44 00 00 00 00 00 00 7e 44 00 00 00 00 00 00 	0D000000~D000000
  0x3190	70 3b 00 00 00 00 00 00 ee 44 00 00 00 00 00 00 	p;0000000D000000
  0x31a0	00 00 00 00 00 00 00 00 ba 3b 00 00 00 00 00 00 	000000000;000000
  0x31b0	c8 3b 00 00 00 00 00 00 d8 3b 00 00 00 00 00 00 	0;0000000;000000
  0x31c0	ea 3b 00 00 00 00 00 00 f2 3b 00 00 00 00 00 00 	0;0000000;000000
  0x31d0	fa 3b 00 00 00 00 00 00 04 3c 00 00 00 00 00 00 	0;0000000<000000
  0x31e0	18 3c 00 00 00 00 00 00 24 3c 00 00 00 00 00 00 	0<000000$<000000
  0x31f0	3c 3c 00 00 00 00 00 00 52 3c 00 00 00 00 00 00 	<<000000R<000000
  0x3200	ac 3b 00 00 00 00 00 00 46 3c 00 00 00 00 00 00 	0;000000F<000000
  0x3210	00 00 00 00 00 00 00 00 f6 43 00 00 00 00 00 00 	000000000C000000
  0x3220	dc 43 00 00 00 00 00 00 c8 43 00 00 00 00 00 00 	0C0000000C000000
  0x3230	ba 43 00 00 00 00 00 00 9c 43 00 00 00 00 00 00 	0C0000000C000000
  0x3240	7c 43 00 00 00 00 00 00 6e 43 00 00 00 00 00 00 	|C000000nC000000
  0x3250	64 43 00 00 00 00 00 00 00 00 00 00 00 00 00 00 	dC00000000000000
  0x3260	c0 3f 00 00 00 00 00 00 f4 3f 00 00 00 00 00 00 	0?0000000?000000
  0x3270	bc 3d 00 00 00 00 00 00 4c 40 00 00 00 00 00 00 	0=000000L@000000
  0x3280	6e 40 00 00 00 00 00 00 9a 40 00 00 00 00 00 00 	n@0000000@000000
  0x3290	b8 40 00 00 00 00 00 00 d6 40 00 00 00 00 00 00 	0@0000000@000000
  0x32a0	1e 41 00 00 00 00 00 00 a0 3d 00 00 00 00 00 00 	0A0000000=000000
  0x32b0	52 41 00 00 00 00 00 00 7c 41 00 00 00 00 00 00 	RA000000|A000000
  0x32c0	90 41 00 00 00 00 00 00 80 3f 00 00 00 00 00 00 	0A0000000?000000
  0x32d0	ce 41 00 00 00 00 00 00 f0 41 00 00 00 00 00 00 	0A0000000A000000
  0x32e0	1a 42 00 00 00 00 00 00 3c 42 00 00 00 00 00 00 	0B000000<B000000
  0x32f0	64 42 00 00 00 00 00 00 88 42 00 00 00 00 00 00 	dB0000000B000000
  0x3300	ac 42 00 00 00 00 00 00 ca 42 00 00 00 00 00 00 	0B0000000B000000
  0x3310	ec 42 00 00 00 00 00 00 76 3d 00 00 00 00 00 00 	0B000000v=000000
  0x3320	52 3d 00 00 00 00 00 00 24 3d 00 00 00 00 00 00 	R=000000$=000000
  0x3330	44 3f 00 00 00 00 00 00 12 3f 00 00 00 00 00 00 	D?0000000?000000
  0x3340	fc 3e 00 00 00 00 00 00 dc 3e 00 00 00 00 00 00 	0>0000000>000000
  0x3350	a4 3e 00 00 00 00 00 00 88 3e 00 00 00 00 00 00 	0>0000000>000000
  0x3360	6a 3e 00 00 00 00 00 00 4c 3e 00 00 00 00 00 00 	j>000000L>000000
  0x3370	18 3e 00 00 00 00 00 00 b0 41 00 00 00 00 00 00 	0>0000000A000000
  0x3380	10 3d 00 00 00 00 00 00 fc 3c 00 00 00 00 00 00 	0=0000000<000000
  0x3390	dc 3c 00 00 00 00 00 00 ba 3c 00 00 00 00 00 00 	0<0000000<000000
  0x33a0	9e 3c 00 00 00 00 00 00 88 3c 00 00 00 00 00 00 	0<0000000<000000
  0x33b0	72 3c 00 00 00 00 00 00 e6 3d 00 00 00 00 00 00 	r<0000000=000000
  0x33c0	3e 41 00 00 00 00 00 00 2a 40 00 00 00 00 00 00 	>A000000*@000000
  0x33d0	00 00 00 00 00 00 00 00 60 2a 00 40 01 00 00 00 	00000000`*0@0000
  0x33e0	d0 2c 00 40 01 00 00 00 00 00 00 00 00 00 00 00 	0,0@000000000000
  0x33f0	d0 24 00 40 01 00 00 00 00 00 00 00 00 00 00 00 	0$0@000000000000
  0x3400	00 00 00 00 00 00 00 00 f0 23 00 40 01 00 00 00 	000000000#0@0000
  0x3410	90 27 00 40 01 00 00 00 00 00 00 00 00 00 00 00 	0'0@000000000000
  0x3420	f0 23 00 00 d0 24 00 00 f0 26 00 00 50 27 00 00 	0#000$000&00P'00
  0x3430	90 27 00 00 70 28 00 00 60 2a 00 00 b0 2a 00 00 	0'00p(00`*000*00
  0x3440	00 00 00 00 5c 00 00 00 25 57 25 57 00 00 00 00 	00000000%W%W0000
  0x3450	25 57 00 00 00 00 00 00 25 30 34 58 25 30 34 58 	%W000000%04X%04X
  0x3460	00 00 00 00 4e 54 46 53 00 00 00 00 52 65 46 53 	0000NTFS0000ReFS
  0x3470	00 00 00 00 2a 00 00 00 2f 3f 00 00 2f 4d 50 00 	0000*000/?00/MP0
  0x3480	2e 00 00 00 00 00 00 00 00 00 00 00 00 00 00 00 	.000000000000000
  0x3490	00 00 00 00 84 f5 0b 3a 00 00 00 00 02 00 00 00 	0000000:00000000
  0x34a0	22 00 00 00 e4 34 00 00 e4 26 00 00 00 00 00 00 	"00004000&000000
  0x34b0	84 f5 0b 3a 00 00 00 00 0d 00 00 00 f0 01 00 00 	000:000000000000
  0x34c0	08 35 00 00 08 27 00 00 00 00 00 00 84 f5 0b 3a 	05000'000000000:
  0x34d0	00 00 00 00 10 00 00 00 24 00 00 00 f8 36 00 00 	00000000$0000600
  0x34e0	f8 28 00 00 52 53 44 53 4d 3a b2 2d b8 8e 51 7b 	0(00RSDSM:0-00Q{
  0x34f0	51 01 9a c6 37 91 59 84 01 00 00 00 6c 61 62 65 	Q00070Y00000labe
  0x3500	6c 2e 70 64 62 00 00 00 47 43 54 4c 00 10 00 00 	l.pdb000GCTL0000
  0x3510	c0 1c 00 00 2e 74 65 78 74 24 6d 6e 00 00 00 00 	0000.text$mn0000
  0x3520	c0 2c 00 00 20 00 00 00 2e 74 65 78 74 24 6d 6e 	0,00 000.text$mn
  0x3530	24 30 30 00 e0 2c 00 00 50 00 00 00 2e 74 65 78 	$0000,00P000.tex
  0x3540	74 24 78 00 00 30 00 00 28 01 00 00 2e 72 64 61 	t$x00000(000.rda
  0x3550	74 61 24 62 72 63 00 00 28 31 00 00 b0 02 00 00 	ta$brc00(1000000
  0x3560	2e 69 64 61 74 61 24 35 00 00 00 00 d8 33 00 00 	.idata$500000300
  0x3570	10 00 00 00 2e 30 30 63 66 67 00 00 e8 33 00 00 	0000.00cfg000300
  0x3580	08 00 00 00 2e 43 52 54 24 58 43 41 00 00 00 00 	0000.CRT$XCA0000
  0x3590	f0 33 00 00 08 00 00 00 2e 43 52 54 24 58 43 41 	03000000.CRT$XCA
  0x35a0	41 00 00 00 f8 33 00 00 08 00 00 00 2e 43 52 54 	A00003000000.CRT
  0x35b0	24 58 43 5a 00 00 00 00 00 34 00 00 08 00 00 00 	$XCZ000004000000
  0x35c0	2e 43 52 54 24 58 49 41 00 00 00 00 08 34 00 00 	.CRT$XIA00000400
  0x35d0	08 00 00 00 2e 43 52 54 24 58 49 41 41 00 00 00 	0000.CRT$XIAA000
  0x35e0	10 34 00 00 08 00 00 00 2e 43 52 54 24 58 49 59 	04000000.CRT$XIY
  0x35f0	00 00 00 00 18 34 00 00 08 00 00 00 2e 43 52 54 	000004000000.CRT
  0x3600	24 58 49 5a 00 00 00 00 20 34 00 00 20 00 00 00 	$XIZ0000 400 000
  0x3610	2e 67 66 69 64 73 00 00 40 34 00 00 a4 00 00 00 	.gfids00@4000000
  0x3620	2e 72 64 61 74 61 00 00 e4 34 00 00 3c 02 00 00 	.rdata000400<000
  0x3630	2e 72 64 61 74 61 24 7a 7a 7a 64 62 67 00 00 00 	.rdata$zzzdbg000
  0x3640	20 37 00 00 24 01 00 00 2e 78 64 61 74 61 00 00 	 700$000.xdata00
  0x3650	44 38 00 00 64 00 00 00 2e 69 64 61 74 61 24 32 	D800d000.idata$2
  0x3660	00 00 00 00 a8 38 00 00 18 00 00 00 2e 69 64 61 	000008000000.ida
  0x3670	74 61 24 33 00 00 00 00 c0 38 00 00 b0 02 00 00 	ta$3000008000000
  0x3680	2e 69 64 61 74 61 24 34 00 00 00 00 70 3b 00 00 	.idata$40000p;00
  0x3690	92 09 00 00 2e 69 64 61 74 61 24 36 00 00 00 00 	0000.idata$60000
  0x36a0	00 50 00 00 20 00 00 00 2e 64 61 74 61 00 00 00 	0P00 000.data000
  0x36b0	20 50 00 00 58 06 00 00 2e 62 73 73 00 00 00 00 	 P00X000.bss0000
  0x36c0	00 60 00 00 fc 00 00 00 2e 70 64 61 74 61 00 00 	0`000000.pdata00
  0x36d0	00 70 00 00 f0 00 00 00 2e 72 73 72 63 24 30 31 	0p000000.rsrc$01
  0x36e0	00 00 00 00 f0 70 00 00 f8 06 00 00 2e 72 73 72 	00000p000000.rsr
  0x36f0	63 24 30 32 00 00 00 00 20 00 00 00 4d 3a b2 2d 	c$020000 000M:0-
  0x3700	b8 8e 51 7b 51 01 9a c6 37 91 59 84 e6 59 75 0a 	00Q{Q00070Y00Yu0
  0x3710	79 13 ad 2c 85 8e 42 6b 84 f5 0b 3a 00 00 00 00 	y00,00Bk000:0000
  0x3720	19 2d 0a 00 1c 01 d7 00 0d f0 0b e0 09 d0 07 c0 	0-00000000000000
  0x3730	05 70 04 60 03 30 02 50 38 2c 00 00 a0 06 00 00 	0p0`000P8,000000
  0x3740	19 2c 09 00 1b 34 ad 00 1b 01 a4 00 0c f0 0a e0 	0,00040000000000
  0x3750	08 70 07 60 06 50 00 00 38 2c 00 00 10 05 00 00 	0p0`0P008,000000
  0x3760	19 37 0d 00 26 c4 59 01 26 74 58 01 26 64 57 01 	0700&0Y0&tX0&dW0
  0x3770	26 34 56 01 26 01 52 01 18 f0 16 e0 14 50 00 00 	&4V0&0R000000P00
  0x3780	38 2c 00 00 80 0a 00 00 01 04 01 00 04 42 00 00 	8,00000000000B00
  0x3790	01 04 01 00 04 62 00 00 09 15 08 00 15 74 0a 00 	00000b0000000t00
  0x37a0	15 64 09 00 15 34 08 00 15 52 11 f0 4a 2a 00 00 	0d0004000R00J*00
  0x37b0	01 00 00 00 35 25 00 00 9b 26 00 00 e0 2c 00 00 	00005%000&000,00
  0x37c0	9b 26 00 00 01 06 02 00 06 32 02 50 00 00 00 00 	0&000000020P0000
  0x37d0	01 00 00 00 09 04 01 00 04 22 00 00 4a 2a 00 00 	000000000"00J*00
  0x37e0	01 00 00 00 cc 27 00 00 02 28 00 00 01 00 00 00 	00000'000(000000
  0x37f0	02 28 00 00 01 06 02 00 06 32 02 30 09 0a 04 00 	0(00000002000000
  0x3800	0a 34 06 00 0a 32 06 70 4a 2a 00 00 01 00 00 00 	0400020pJ*000000
  0x3810	dd 28 00 00 10 29 00 00 10 2d 00 00 10 29 00 00 	0(000)000-000)00
  0x3820	01 0d 04 00 0d 34 09 00 0d 32 06 50 01 0c 02 00 	00000400020P0000
  0x3830	0c 01 11 00 00 00 00 00 01 00 00 00 01 02 01 00 	0000000000000000
  0x3840	02 30 00 00 d0 38 00 00 00 00 00 00 00 00 00 00 	0000080000000000
  0x3850	9e 3b 00 00 38 31 00 00 40 39 00 00 00 00 00 00 	0;008100@9000000
  0x3860	00 00 00 00 66 3c 00 00 a8 31 00 00 f8 39 00 00 	0000f<0001000900
  0x3870	00 00 00 00 00 00 00 00 0c 43 00 00 60 32 00 00 	000000000C00`200
  0x3880	c0 38 00 00 00 00 00 00 00 00 00 00 58 43 00 00 	080000000000XC00
  0x3890	28 31 00 00 b0 39 00 00 00 00 00 00 00 00 00 00 	(100090000000000
  0x38a0	0a 44 00 00 18 32 00 00 00 00 00 00 00 00 00 00 	0D00020000000000
  0x38b0	00 00 00 00 00 00 00 00 00 00 00 00 00 00 00 00 	0000000000000000
  0x38c0	16 43 00 00 00 00 00 00 00 00 00 00 00 00 00 00 	0C00000000000000
  0x38d0	da 44 00 00 00 00 00 00 be 44 00 00 00 00 00 00 	0D0000000D000000
  0x38e0	ae 44 00 00 00 00 00 00 94 44 00 00 00 00 00 00 	0D0000000D000000
  0x38f0	88 3b 00 00 00 00 00 00 68 44 00 00 00 00 00 00 	0;000000hD000000
  0x3900	4e 44 00 00 00 00 00 00 3a 44 00 00 00 00 00 00 	ND000000:D000000
  0x3910	1c 44 00 00 00 00 00 00 14 44 00 00 00 00 00 00 	0D0000000D000000
  0x3920	7e 44 00 00 00 00 00 00 70 3b 00 00 00 00 00 00 	~D000000p;000000
  0x3930	ee 44 00 00 00 00 00 00 00 00 00 00 00 00 00 00 	0D00000000000000
  0x3940	ba 3b 00 00 00 00 00 00 c8 3b 00 00 00 00 00 00 	0;0000000;000000
  0x3950	d8 3b 00 00 00 00 00 00 ea 3b 00 00 00 00 00 00 	0;0000000;000000
  0x3960	f2 3b 00 00 00 00 00 00 fa 3b 00 00 00 00 00 00 	0;0000000;000000
  0x3970	04 3c 00 00 00 00 00 00 18 3c 00 00 00 00 00 00 	0<0000000<000000
  0x3980	24 3c 00 00 00 00 00 00 3c 3c 00 00 00 00 00 00 	$<000000<<000000
  0x3990	52 3c 00 00 00 00 00 00 ac 3b 00 00 00 00 00 00 	R<0000000;000000
  0x39a0	46 3c 00 00 00 00 00 00 00 00 00 00 00 00 00 00 	F<00000000000000
  0x39b0	f6 43 00 00 00 00 00 00 dc 43 00 00 00 00 00 00 	0C0000000C000000
  0x39c0	c8 43 00 00 00 00 00 00 ba 43 00 00 00 00 00 00 	0C0000000C000000
  0x39d0	9c 43 00 00 00 00 00 00 7c 43 00 00 00 00 00 00 	0C000000|C000000
  0x39e0	6e 43 00 00 00 00 00 00 64 43 00 00 00 00 00 00 	nC000000dC000000
  0x39f0	00 00 00 00 00 00 00 00 c0 3f 00 00 00 00 00 00 	000000000?000000
  0x3a00	f4 3f 00 00 00 00 00 00 bc 3d 00 00 00 00 00 00 	0?0000000=000000
  0x3a10	4c 40 00 00 00 00 00 00 6e 40 00 00 00 00 00 00 	L@000000n@000000
  0x3a20	9a 40 00 00 00 00 00 00 b8 40 00 00 00 00 00 00 	0@0000000@000000
  0x3a30	d6 40 00 00 00 00 00 00 1e 41 00 00 00 00 00 00 	0@0000000A000000
  0x3a40	a0 3d 00 00 00 00 00 00 52 41 00 00 00 00 00 00 	0=000000RA000000
  0x3a50	7c 41 00 00 00 00 00 00 90 41 00 00 00 00 00 00 	|A0000000A000000
  0x3a60	80 3f 00 00 00 00 00 00 ce 41 00 00 00 00 00 00 	0?0000000A000000
  0x3a70	f0 41 00 00 00 00 00 00 1a 42 00 00 00 00 00 00 	0A0000000B000000
  0x3a80	3c 42 00 00 00 00 00 00 64 42 00 00 00 00 00 00 	<B000000dB000000
  0x3a90	88 42 00 00 00 00 00 00 ac 42 00 00 00 00 00 00 	0B0000000B000000
  0x3aa0	ca 42 00 00 00 00 00 00 ec 42 00 00 00 00 00 00 	0B0000000B000000
  0x3ab0	76 3d 00 00 00 00 00 00 52 3d 00 00 00 00 00 00 	v=000000R=000000
  0x3ac0	24 3d 00 00 00 00 00 00 44 3f 00 00 00 00 00 00 	$=000000D?000000
  0x3ad0	12 3f 00 00 00 00 00 00 fc 3e 00 00 00 00 00 00 	0?0000000>000000
  0x3ae0	dc 3e 00 00 00 00 00 00 a4 3e 00 00 00 00 00 00 	0>0000000>000000
  0x3af0	88 3e 00 00 00 00 00 00 6a 3e 00 00 00 00 00 00 	0>000000j>000000
  0x3b00	4c 3e 00 00 00 00 00 00 18 3e 00 00 00 00 00 00 	L>0000000>000000
  0x3b10	b0 41 00 00 00 00 00 00 10 3d 00 00 00 00 00 00 	0A0000000=000000
  0x3b20	fc 3c 00 00 00 00 00 00 dc 3c 00 00 00 00 00 00 	0<0000000<000000
  0x3b30	ba 3c 00 00 00 00 00 00 9e 3c 00 00 00 00 00 00 	0<0000000<000000
  0x3b40	88 3c 00 00 00 00 00 00 72 3c 00 00 00 00 00 00 	0<000000r<000000
  0x3b50	e6 3d 00 00 00 00 00 00 3e 41 00 00 00 00 00 00 	0=000000>A000000
  0x3b60	2a 40 00 00 00 00 00 00 00 00 00 00 00 00 00 00 	*@00000000000000
  0x3b70	29 03 47 65 74 56 6f 6c 75 6d 65 49 6e 66 6f 72 	)0GetVolumeInfor
  0x3b80	6d 61 74 69 6f 6e 57 00 58 03 48 65 61 70 53 65 	mationW0X0HeapSe
  0x3b90	74 49 6e 66 6f 72 6d 61 74 69 6f 6e 00 00 4b 45 	tInformation00KE
  0x3ba0	52 4e 45 4c 33 32 2e 64 6c 6c 00 00 55 00 5f 58 	RNEL32.dll00U0_X
  0x3bb0	63 70 74 46 69 6c 74 65 72 00 ae 00 5f 61 6d 73 	cptFilter000_ams
  0x3bc0	67 5f 65 78 69 74 00 00 7f 00 5f 5f 67 65 74 6d 	g_exit0000__getm
  0x3bd0	61 69 6e 61 72 67 73 00 8e 00 5f 5f 73 65 74 5f 	ainargs000__set_
  0x3be0	61 70 70 5f 74 79 70 65 00 00 32 04 65 78 69 74 	app_type0020exit
  0x3bf0	00 00 0e 01 5f 65 78 69 74 00 c1 00 5f 63 65 78 	0000_exit000_cex
  0x3c00	69 74 00 00 90 00 5f 5f 73 65 74 75 73 65 72 6d 	it0000__setuserm
  0x3c10	61 74 68 65 72 72 00 00 7d 01 5f 69 6e 69 74 74 	atherr00}0_initt
  0x3c20	65 72 6d 00 57 00 5f 5f 43 5f 73 70 65 63 69 66 	erm0W0__C_specif
  0x3c30	69 63 5f 68 61 6e 64 6c 65 72 00 00 27 01 5f 66 	ic_handler00'0_f
  0x3c40	6d 6f 64 65 00 00 d2 00 5f 63 6f 6d 6d 6f 64 65 	mode0000_commode
  0x3c50	00 00 2f 00 3f 74 65 72 6d 69 6e 61 74 65 40 40 	00/0?terminate@@
  0x3c60	59 41 58 58 5a 00 6d 73 76 63 72 74 2e 64 6c 6c 	YAXXZ0msvcrt.dll
  0x3c70	00 00 3b 00 3f 3f 31 44 53 54 52 49 4e 47 40 40 	00;0??1DSTRING@@
  0x3c80	55 45 41 41 40 58 5a 00 0f 00 3f 3f 30 44 53 54 	UEAA@XZ000??0DST
  0x3c90	52 49 4e 47 40 40 51 45 41 41 40 58 5a 00 cb 01 	RING@@QEAA@XZ000
  0x3ca0	47 65 74 5f 53 74 61 6e 64 61 72 64 5f 49 6e 70 	Get_Standard_Inp
  0x3cb0	75 74 5f 53 74 72 65 61 6d 00 15 01 3f 50 75 74 	ut_Stream000?Put
  0x3cc0	40 41 52 52 41 59 40 40 55 45 41 41 45 50 45 41 	@ARRAY@@UEAAEPEA
  0x3cd0	56 4f 42 4a 45 43 54 40 40 40 5a 00 c0 00 3f 49 	VOBJECT@@@Z000?I
  0x3ce0	6e 69 74 69 61 6c 69 7a 65 40 41 52 52 41 59 40 	nitialize@ARRAY@
  0x3cf0	40 51 45 41 41 45 4b 4b 40 5a 00 00 34 00 3f 3f 	@QEAAEKK@Z0040??
  0x3d00	31 41 52 52 41 59 40 40 55 45 41 41 40 58 5a 00 	1ARRAY@@UEAA@XZ0
  0x3d10	02 00 3f 3f 30 41 52 52 41 59 40 40 51 45 41 41 	00??0ARRAY@@QEAA
  0x3d20	40 58 5a 00 dc 00 3f 49 6e 69 74 69 61 6c 69 7a 	@XZ000?Initializ
  0x3d30	65 40 52 45 53 54 5f 4f 46 5f 4c 49 4e 45 5f 41 	e@REST_OF_LINE_A
  0x3d40	52 47 55 4d 45 4e 54 40 40 51 45 41 41 45 58 5a 	RGUMENT@@QEAAEXZ
  0x3d50	00 00 26 00 3f 3f 30 52 45 53 54 5f 4f 46 5f 4c 	00&0??0REST_OF_L
  0x3d60	49 4e 45 5f 41 52 47 55 4d 45 4e 54 40 40 51 45 	INE_ARGUMENT@@QE
  0x3d70	41 41 40 58 5a 00 ca 00 3f 49 6e 69 74 69 61 6c 	AA@XZ000?Initial
  0x3d80	69 7a 65 40 46 4c 41 47 5f 41 52 47 55 4d 45 4e 	ize@FLAG_ARGUMEN
  0x3d90	54 40 40 51 45 41 41 45 50 45 41 44 40 5a 00 00 	T@@QEAAEPEAD@Z00
  0x3da0	10 00 3f 3f 30 46 4c 41 47 5f 41 52 47 55 4d 45 	00??0FLAG_ARGUME
  0x3db0	4e 54 40 40 51 45 41 41 40 58 5a 00 ff 00 3f 49 	NT@@QEAA@XZ000?I
  0x3dc0	73 59 65 73 52 65 73 70 6f 6e 73 65 40 53 54 52 	sYesResponse@STR
  0x3dd0	45 41 4d 5f 4d 45 53 53 41 47 45 40 40 55 45 41 	EAM_MESSAGE@@UEA
  0x3de0	41 45 45 40 5a 00 70 01 3f 53 65 74 40 53 54 52 	AEE@Z0p0?Set@STR
  0x3df0	45 41 4d 5f 4d 45 53 53 41 47 45 40 40 55 45 41 	EAM_MESSAGE@@UEA
  0x3e00	41 45 4b 57 34 4d 45 53 53 41 47 45 5f 54 59 50 	AEKW4MESSAGE_TYP
  0x3e10	45 40 40 4b 40 5a 00 00 df 00 3f 49 6e 69 74 69 	E@@K@Z0000?Initi
  0x3e20	61 6c 69 7a 65 40 53 54 52 45 41 4d 5f 4d 45 53 	alize@STREAM_MES
  0x3e30	53 41 47 45 40 40 51 45 41 41 45 50 45 41 56 53 	SAGE@@QEAAEPEAVS
  0x3e40	54 52 45 41 4d 40 40 30 30 40 5a 00 4e 00 3f 3f 	TREAM@@00@Z0N0??
  0x3e50	31 53 54 52 45 41 4d 5f 4d 45 53 53 41 47 45 40 	1STREAM_MESSAGE@
  0x3e60	40 55 45 41 41 40 58 5a 00 00 2a 00 3f 3f 30 53 	@UEAA@XZ00*0??0S
  0x3e70	54 52 45 41 4d 5f 4d 45 53 53 41 47 45 40 40 51 	TREAM_MESSAGE@@Q
  0x3e80	45 41 41 40 58 5a 00 00 ca 01 47 65 74 5f 53 74 	EAA@XZ0000Get_St
  0x3e90	61 6e 64 61 72 64 5f 45 72 72 6f 72 5f 53 74 72 	andard_Error_Str
  0x3ea0	65 61 6d 00 29 01 3f 51 75 65 72 79 43 75 72 72 	eam0)0?QueryCurr
  0x3eb0	65 6e 74 44 6f 73 44 72 69 76 65 4e 61 6d 65 40 	entDosDriveName@
  0x3ec0	53 59 53 54 45 4d 40 40 53 41 45 50 45 41 56 57 	SYSTEM@@SAEPEAVW
  0x3ed0	53 54 52 49 4e 47 40 40 40 5a 00 00 fc 00 3f 49 	STRING@@@Z0000?I
  0x3ee0	73 56 61 6c 75 65 53 65 74 40 41 52 47 55 4d 45 	sValueSet@ARGUME
  0x3ef0	4e 54 40 40 51 45 41 41 45 58 5a 00 46 00 3f 3f 	NT@@QEAAEXZ0F0??
  0x3f00	31 4f 42 4a 45 43 54 40 40 55 45 41 41 40 58 5a 	1OBJECT@@UEAA@XZ
  0x3f10	00 00 77 01 3f 53 65 74 43 61 73 65 53 65 6e 73 	00w0?SetCaseSens
  0x3f20	69 74 69 76 65 40 41 52 47 55 4d 45 4e 54 5f 4c 	itive@ARGUMENT_L
  0x3f30	45 58 45 4d 49 5a 45 52 40 40 51 45 41 41 58 45 	EXEMIZER@@QEAAXE
  0x3f40	40 5a 00 00 14 01 3f 50 72 65 70 61 72 65 54 6f 	@Z0000?PrepareTo
  0x3f50	50 61 72 73 65 40 41 52 47 55 4d 45 4e 54 5f 4c 	Parse@ARGUMENT_L
  0x3f60	45 58 45 4d 49 5a 45 52 40 40 51 45 41 41 45 50 	EXEMIZER@@QEAAEP
  0x3f70	45 41 56 57 53 54 52 49 4e 47 40 40 40 5a 00 00 	EAVWSTRING@@@Z00
  0x3f80	34 01 3f 51 75 65 72 79 49 6e 76 61 6c 69 64 41 	40?QueryInvalidA
  0x3f90	72 67 75 6d 65 6e 74 40 41 52 47 55 4d 45 4e 54 	rgument@ARGUMENT
  0x3fa0	5f 4c 45 58 45 4d 49 5a 45 52 40 40 51 45 41 41 	_LEXEMIZER@@QEAA
  0x3fb0	50 45 41 56 57 53 54 52 49 4e 47 40 40 58 5a 00 	PEAVWSTRING@@XZ0
  0x3fc0	9b 00 3f 44 6f 50 61 72 73 69 6e 67 40 41 52 47 	00?DoParsing@ARG
  0x3fd0	55 4d 45 4e 54 5f 4c 45 58 45 4d 49 5a 45 52 40 	UMENT_LEXEMIZER@
  0x3fe0	40 51 45 41 41 45 50 45 41 56 41 52 52 41 59 40 	@QEAAEPEAVARRAY@
  0x3ff0	40 40 5a 00 bf 00 3f 49 6e 69 74 69 61 6c 69 7a 	@@Z000?Initializ
  0x4000	65 40 41 52 47 55 4d 45 4e 54 5f 4c 45 58 45 4d 	e@ARGUMENT_LEXEM
  0x4010	49 5a 45 52 40 40 51 45 41 41 45 50 45 41 56 41 	IZER@@QEAAEPEAVA
  0x4020	52 52 41 59 40 40 40 5a 00 00 33 00 3f 3f 31 41 	RRAY@@@Z0030??1A
  0x4030	52 47 55 4d 45 4e 54 5f 4c 45 58 45 4d 49 5a 45 	RGUMENT_LEXEMIZE
  0x4040	52 40 40 55 45 41 41 40 58 5a 00 00 01 00 3f 3f 	R@@UEAA@XZ0000??
  0x4050	30 41 52 47 55 4d 45 4e 54 5f 4c 45 58 45 4d 49 	0ARGUMENT_LEXEMI
  0x4060	5a 45 52 40 40 51 45 41 41 40 58 5a 00 00 e0 00 	ZER@@QEAA@XZ0000
  0x4070	3f 49 6e 69 74 69 61 6c 69 7a 65 40 53 54 52 49 	?Initialize@STRI
  0x4080	4e 47 5f 41 52 47 55 4d 45 4e 54 40 40 51 45 41 	NG_ARGUMENT@@QEA
  0x4090	41 45 50 45 41 44 40 5a 00 00 4f 00 3f 3f 31 53 	AEPEAD@Z00O0??1S
  0x40a0	54 52 49 4e 47 5f 41 52 47 55 4d 45 4e 54 40 40 	TRING_ARGUMENT@@
  0x40b0	55 45 41 41 40 58 5a 00 2b 00 3f 3f 30 53 54 52 	UEAA@XZ0+0??0STR
  0x40c0	49 4e 47 5f 41 52 47 55 4d 45 4e 54 40 40 51 45 	ING_ARGUMENT@@QE
  0x40d0	41 41 40 58 5a 00 6f 00 3f 41 6e 61 6c 79 7a 65 	AA@XZ0o0?Analyze
  0x40e0	50 61 74 68 40 50 41 54 48 40 40 51 45 41 41 3f 	Path@PATH@@QEAA?
  0x40f0	41 57 34 50 41 54 48 5f 41 4e 41 4c 59 5a 45 5f 	AW4PATH_ANALYZE_
  0x4100	43 4f 44 45 40 40 50 45 41 56 57 53 54 52 49 4e 	CODE@@PEAVWSTRIN
  0x4110	47 40 40 50 45 41 56 31 40 30 40 5a 00 00 f2 00 	G@@PEAV1@0@Z0000
  0x4120	3f 49 73 47 75 69 64 56 6f 6c 4e 61 6d 65 40 50 	?IsGuidVolName@P
  0x4130	41 54 48 40 40 51 45 41 41 45 58 5a 00 00 47 00 	ATH@@QEAAEXZ00G0
  0x4140	3f 3f 31 50 41 54 48 40 40 55 45 41 41 40 58 5a 	??1PATH@@UEAA@XZ
  0x4150	00 00 d8 00 3f 49 6e 69 74 69 61 6c 69 7a 65 40 	0000?Initialize@
  0x4160	50 41 54 48 40 40 51 45 41 41 45 50 45 42 56 57 	PATH@@QEAAEPEBVW
  0x4170	53 54 52 49 4e 47 40 40 45 40 5a 00 22 00 3f 3f 	STRING@@E@Z0"0??
  0x4180	30 50 41 54 48 40 40 51 45 41 41 40 58 5a 00 00 	0PATH@@QEAA@XZ00
  0x4190	92 00 3f 44 69 73 70 6c 61 79 40 4d 45 53 53 41 	00?Display@MESSA
  0x41a0	47 45 40 40 51 45 41 41 45 50 45 42 44 5a 5a 00 	GE@@QEAAEPEBDZZ0
  0x41b0	cc 01 47 65 74 5f 53 74 61 6e 64 61 72 64 5f 4f 	00Get_Standard_O
  0x41c0	75 74 70 75 74 5f 53 74 72 65 61 6d 00 00 9c 01 	utput_Stream0000
  0x41d0	3f 53 74 72 63 61 74 40 57 53 54 52 49 4e 47 40 	?Strcat@WSTRING@
  0x41e0	40 51 45 41 41 45 50 45 42 56 31 40 40 5a 00 00 	@QEAAEPEBV1@@Z00
  0x41f0	54 01 3f 51 75 65 72 79 57 53 54 52 40 57 53 54 	T0?QueryWSTR@WST
  0x4200	52 49 4e 47 40 40 51 45 42 41 50 45 41 47 4b 4b 	RING@@QEBAPEAGKK
  0x4210	50 45 41 47 4b 45 40 5a 00 00 8d 00 3f 44 65 6c 	PEAGKE@Z0000?Del
  0x4220	65 74 65 43 68 41 74 40 57 53 54 52 49 4e 47 40 	eteChAt@WSTRING@
  0x4230	40 51 45 41 41 58 4b 4b 40 5a 00 00 ea 00 3f 49 	@QEAAXKK@Z0000?I
  0x4240	6e 69 74 69 61 6c 69 7a 65 40 57 53 54 52 49 4e 	nitialize@WSTRIN
  0x4250	47 40 40 51 45 41 41 45 50 45 42 56 31 40 4b 4b 	G@@QEAAEPEBV1@KK
  0x4260	40 5a 00 00 e9 00 3f 49 6e 69 74 69 61 6c 69 7a 	@Z0000?Initializ
  0x4270	65 40 57 53 54 52 49 4e 47 40 40 51 45 41 41 45 	e@WSTRING@@QEAAE
  0x4280	50 45 42 47 4b 40 5a 00 e8 00 3f 49 6e 69 74 69 	PEBGK@Z000?Initi
  0x4290	61 6c 69 7a 65 40 57 53 54 52 49 4e 47 40 40 51 	alize@WSTRING@@Q
  0x42a0	45 41 41 45 50 45 42 44 4b 40 5a 00 9e 01 3f 53 	EAAEPEBDK@Z000?S
  0x42b0	74 72 63 68 72 40 57 53 54 52 49 4e 47 40 40 51 	trchr@WSTRING@@Q
  0x42c0	45 42 41 4b 47 4b 40 5a 00 00 a9 01 3f 53 74 72 	EBAKGK@Z0000?Str
  0x42d0	69 63 6d 70 40 57 53 54 52 49 4e 47 40 40 51 45 	icmp@WSTRING@@QE
  0x42e0	42 41 4a 50 45 42 56 31 40 40 5a 00 eb 00 3f 49 	BAJPEBV1@@Z000?I
  0x42f0	6e 69 74 69 61 6c 69 7a 65 40 57 53 54 52 49 4e 	nitialize@WSTRIN
  0x4300	47 40 40 51 45 41 41 45 58 5a 00 00 75 6c 69 62 	G@@QEAAEXZ00ulib
  0x4310	2e 64 6c 6c 00 00 4d 00 3f 44 6f 73 44 72 69 76 	.dll00M0?DosDriv
  0x4320	65 4e 61 6d 65 54 6f 4e 74 44 72 69 76 65 4e 61 	eNameToNtDriveNa
  0x4330	6d 65 40 49 46 53 5f 53 59 53 54 45 4d 40 40 53 	me@IFS_SYSTEM@@S
  0x4340	41 45 50 45 42 56 57 53 54 52 49 4e 47 40 40 50 	AEPEBVWSTRING@@P
  0x4350	45 41 56 32 40 40 5a 00 49 66 73 55 74 69 6c 2e 	EAV2@@Z0IfsUtil.
  0x4360	64 6c 6c 00 fd 00 4e 74 43 6c 6f 73 65 00 f5 03 	dll000NtClose000
  0x4370	52 74 6c 46 72 65 65 48 65 61 70 00 ff 01 4e 74 	RtlFreeHeap000Nt
  0x4380	51 75 65 72 79 56 6f 6c 75 6d 65 49 6e 66 6f 72 	QueryVolumeInfor
  0x4390	6d 61 74 69 6f 6e 46 69 6c 65 00 00 64 02 4e 74 	mationFile00d0Nt
  0x43a0	53 65 74 56 6f 6c 75 6d 65 49 6e 66 6f 72 6d 61 	SetVolumeInforma
  0x43b0	74 69 6f 6e 46 69 6c 65 00 00 9f 01 4e 74 4f 70 	tionFile0000NtOp
  0x43c0	65 6e 46 69 6c 65 00 00 f2 02 52 74 6c 43 61 70 	enFile0000RtlCap
  0x43d0	74 75 72 65 43 6f 6e 74 65 78 74 00 e8 04 52 74 	tureContext000Rt
  0x43e0	6c 4c 6f 6f 6b 75 70 46 75 6e 63 74 69 6f 6e 45 	lLookupFunctionE
  0x43f0	6e 74 72 79 00 00 27 06 52 74 6c 56 69 72 74 75 	ntry00'0RtlVirtu
  0x4400	61 6c 55 6e 77 69 6e 64 00 00 6e 74 64 6c 6c 2e 	alUnwind00ntdll.
  0x4410	64 6c 6c 00 8d 05 53 6c 65 65 70 00 7d 05 53 65 	dll000Sleep0}0Se
  0x4420	74 55 6e 68 61 6e 64 6c 65 64 45 78 63 65 70 74 	tUnhandledExcept
  0x4430	69 6f 6e 46 69 6c 74 65 72 00 80 02 47 65 74 4d 	ionFilter000GetM
  0x4440	6f 64 75 6c 65 48 61 6e 64 6c 65 57 00 00 51 04 	oduleHandleW00Q0
  0x4450	51 75 65 72 79 50 65 72 66 6f 72 6d 61 6e 63 65 	QueryPerformance
  0x4460	43 6f 75 6e 74 65 72 00 20 02 47 65 74 43 75 72 	Counter0 0GetCur
  0x4470	72 65 6e 74 50 72 6f 63 65 73 73 49 64 00 24 02 	rentProcessId0$0
  0x4480	47 65 74 43 75 72 72 65 6e 74 54 68 72 65 61 64 	GetCurrentThread
  0x4490	49 64 00 00 f2 02 47 65 74 53 79 73 74 65 6d 54 	Id0000GetSystemT
  0x44a0	69 6d 65 41 73 46 69 6c 65 54 69 6d 65 00 10 03 	imeAsFileTime000
  0x44b0	47 65 74 54 69 63 6b 43 6f 75 6e 74 00 00 be 05 	GetTickCount0000
  0x44c0	55 6e 68 61 6e 64 6c 65 64 45 78 63 65 70 74 69 	UnhandledExcepti
  0x44d0	6f 6e 46 69 6c 74 65 72 00 00 1f 02 47 65 74 43 	onFilter0000GetC
  0x44e0	75 72 72 65 6e 74 50 72 6f 63 65 73 73 00 9c 05 	urrentProcess000
  0x44f0	54 65 72 6d 69 6e 61 74 65 50 72 6f 63 65 73 73 	TerminateProcess
  0x4500	00 00 00 00 00 00 00 00 00 00 00 00 00 00 00 00 	0000000000000000
  0x4510	00 00 00 00 00 00 00 00 00 00 00 00 00 00 00 00 	0000000000000000
  0x4520	00 00 00 00 00 00 00 00 00 00 00 00 00 00 00 00 	0000000000000000
  0x4530	00 00 00 00 00 00 00 00 00 00 00 00 00 00 00 00 	0000000000000000
  0x4540	00 00 00 00 00 00 00 00 00 00 00 00 00 00 00 00 	0000000000000000
  0x4550	00 00 00 00 00 00 00 00 00 00 00 00 00 00 00 00 	0000000000000000
  0x4560	00 00 00 00 00 00 00 00 00 00 00 00 00 00 00 00 	0000000000000000
  0x4570	00 00 00 00 00 00 00 00 00 00 00 00 00 00 00 00 	0000000000000000
  0x4580	00 00 00 00 00 00 00 00 00 00 00 00 00 00 00 00 	0000000000000000
  0x4590	00 00 00 00 00 00 00 00 00 00 00 00 00 00 00 00 	0000000000000000
  0x45a0	00 00 00 00 00 00 00 00 00 00 00 00 00 00 00 00 	0000000000000000
  0x45b0	00 00 00 00 00 00 00 00 00 00 00 00 00 00 00 00 	0000000000000000
  0x45c0	00 00 00 00 00 00 00 00 00 00 00 00 00 00 00 00 	0000000000000000
  0x45d0	00 00 00 00 00 00 00 00 00 00 00 00 00 00 00 00 	0000000000000000
  0x45e0	00 00 00 00 00 00 00 00 00 00 00 00 00 00 00 00 	0000000000000000
  0x45f0	00 00 00 00 00 00 00 00 00 00 00 00 00 00 00 00 	0000000000000000
=== DATA BLOCK END ===

=== DATA BLOCK ADDRESS 0x5000 ===
  0x5000	01 00 00 00 00 00 00 00 32 a2 df 2d 99 2b 00 00 	00000000200-0+00
  0x5010	cd 5d 20 d2 66 d4 ff ff 00 00 00 00 00 00 00 00 	0] 0f00000000000
  0x5020	00 00 00 00 00 00 00 00 00 00 00 00 00 00 00 00 	0000000000000000
  0x5030	00 00 00 00 00 00 00 00 00 00 00 00 00 00 00 00 	0000000000000000
  0x5040	00 00 00 00 00 00 00 00 00 00 00 00 00 00 00 00 	0000000000000000
  0x5050	00 00 00 00 00 00 00 00 00 00 00 00 00 00 00 00 	0000000000000000
  0x5060	00 00 00 00 00 00 00 00 00 00 00 00 00 00 00 00 	0000000000000000
  0x5070	00 00 00 00 00 00 00 00 00 00 00 00 00 00 00 00 	0000000000000000
  0x5080	00 00 00 00 00 00 00 00 00 00 00 00 00 00 00 00 	0000000000000000
  0x5090	00 00 00 00 00 00 00 00 00 00 00 00 00 00 00 00 	0000000000000000
  0x50a0	00 00 00 00 00 00 00 00 00 00 00 00 00 00 00 00 	0000000000000000
  0x50b0	00 00 00 00 00 00 00 00 00 00 00 00 00 00 00 00 	0000000000000000
  0x50c0	00 00 00 00 00 00 00 00 00 00 00 00 00 00 00 00 	0000000000000000
  0x50d0	00 00 00 00 00 00 00 00 00 00 00 00 00 00 00 00 	0000000000000000
  0x50e0	00 00 00 00 00 00 00 00 00 00 00 00 00 00 00 00 	0000000000000000
  0x50f0	00 00 00 00 00 00 00 00 00 00 00 00 00 00 00 00 	0000000000000000
  0x5100	00 00 00 00 00 00 00 00 00 00 00 00 00 00 00 00 	0000000000000000
  0x5110	00 00 00 00 00 00 00 00 00 00 00 00 00 00 00 00 	0000000000000000
  0x5120	00 00 00 00 00 00 00 00 00 00 00 00 00 00 00 00 	0000000000000000
  0x5130	00 00 00 00 00 00 00 00 00 00 00 00 00 00 00 00 	0000000000000000
  0x5140	00 00 00 00 00 00 00 00 00 00 00 00 00 00 00 00 	0000000000000000
  0x5150	00 00 00 00 00 00 00 00 00 00 00 00 00 00 00 00 	0000000000000000
  0x5160	00 00 00 00 00 00 00 00 00 00 00 00 00 00 00 00 	0000000000000000
  0x5170	00 00 00 00 00 00 00 00 00 00 00 00 00 00 00 00 	0000000000000000
  0x5180	00 00 00 00 00 00 00 00 00 00 00 00 00 00 00 00 	0000000000000000
  0x5190	00 00 00 00 00 00 00 00 00 00 00 00 00 00 00 00 	0000000000000000
  0x51a0	00 00 00 00 00 00 00 00 00 00 00 00 00 00 00 00 	0000000000000000
  0x51b0	00 00 00 00 00 00 00 00 00 00 00 00 00 00 00 00 	0000000000000000
  0x51c0	00 00 00 00 00 00 00 00 00 00 00 00 00 00 00 00 	0000000000000000
  0x51d0	00 00 00 00 00 00 00 00 00 00 00 00 00 00 00 00 	0000000000000000
  0x51e0	00 00 00 00 00 00 00 00 00 00 00 00 00 00 00 00 	0000000000000000
  0x51f0	00 00 00 00 00 00 00 00 00 00 00 00 00 00 00 00 	0000000000000000
=== DATA BLOCK END ===

=== DATA BLOCK ADDRESS 0x6000 ===
  0x6000	08 10 00 00 23 16 00 00 20 37 00 00 2c 16 00 00 	0000#000 700,000
  0x6010	0e 19 00 00 40 37 00 00 14 19 00 00 e9 23 00 00 	0000@70000000#00
  0x6020	60 37 00 00 f0 23 00 00 c3 24 00 00 88 37 00 00 	`7000#000$000700
  0x6030	d0 24 00 00 19 25 00 00 90 37 00 00 20 25 00 00 	0$000%000700 %00
  0x6040	de 26 00 00 98 37 00 00 f0 26 00 00 02 27 00 00 	0&0007000&000'00
  0x6050	88 37 00 00 20 27 00 00 3e 27 00 00 d0 37 00 00 	0700 '00>'000700
  0x6060	50 27 00 00 89 27 00 00 88 37 00 00 90 27 00 00 	P'000'0007000'00
  0x6070	a8 27 00 00 88 37 00 00 bc 27 00 00 10 28 00 00 	0'0007000'000(00
  0x6080	d4 37 00 00 18 28 00 00 5d 28 00 00 f4 37 00 00 	07000(00](000700
  0x6090	d0 28 00 00 1d 29 00 00 fc 37 00 00 64 29 00 00 	0(000)000700d)00
  0x60a0	38 2a 00 00 20 38 00 00 6c 2a 00 00 a0 2a 00 00 	8*00 800l*000*00
  0x60b0	f4 37 00 00 b0 2a 00 00 21 2c 00 00 2c 38 00 00 	07000*00!,00,800
  0x60c0	38 2c 00 00 55 2c 00 00 88 37 00 00 5c 2c 00 00 	8,00U,0007000,00
  0x60d0	b7 2c 00 00 3c 38 00 00 d0 2c 00 00 d2 2c 00 00 	0,00<8000,000,00
  0x60e0	38 38 00 00 e0 2c 00 00 fe 2c 00 00 c4 37 00 00 	88000,000,000700
  0x60f0	10 2d 00 00 30 2d 00 00 c4 37 00 00 00 00 00 00 	0-000-0007000000
  0x6100	00 00 00 00 00 00 00 00 00 00 00 00 00 00 00 00 	0000000000000000
  0x6110	00 00 00 00 00 00 00 00 00 00 00 00 00 00 00 00 	0000000000000000
  0x6120	00 00 00 00 00 00 00 00 00 00 00 00 00 00 00 00 	0000000000000000
  0x6130	00 00 00 00 00 00 00 00 00 00 00 00 00 00 00 00 	0000000000000000
  0x6140	00 00 00 00 00 00 00 00 00 00 00 00 00 00 00 00 	0000000000000000
  0x6150	00 00 00 00 00 00 00 00 00 00 00 00 00 00 00 00 	0000000000000000
  0x6160	00 00 00 00 00 00 00 00 00 00 00 00 00 00 00 00 	0000000000000000
  0x6170	00 00 00 00 00 00 00 00 00 00 00 00 00 00 00 00 	0000000000000000
  0x6180	00 00 00 00 00 00 00 00 00 00 00 00 00 00 00 00 	0000000000000000
  0x6190	00 00 00 00 00 00 00 00 00 00 00 00 00 00 00 00 	0000000000000000
  0x61a0	00 00 00 00 00 00 00 00 00 00 00 00 00 00 00 00 	0000000000000000
  0x61b0	00 00 00 00 00 00 00 00 00 00 00 00 00 00 00 00 	0000000000000000
  0x61c0	00 00 00 00 00 00 00 00 00 00 00 00 00 00 00 00 	0000000000000000
  0x61d0	00 00 00 00 00 00 00 00 00 00 00 00 00 00 00 00 	0000000000000000
  0x61e0	00 00 00 00 00 00 00 00 00 00 00 00 00 00 00 00 	0000000000000000
  0x61f0	00 00 00 00 00 00 00 00 00 00 00 00 00 00 00 00 	0000000000000000
=== DATA BLOCK END ===
